(lp1
(S'clock'
p2
I1789772
tp3
a(S'w'
I281
tp4
a(S'ch_no'
I0
tp5
a(S'ch_tr'
I0
tp6
a(S'ch_p2'
I1
tp7
a(S'ch_p1'
I0
tp8
a(S'w'
I1
tp9
a(S'fc_mo'
I0
tp10
a(S'w'
I3
tp11
a(S'ch_no'
I0
tp12
a(S'ch_tr'
I0
tp13
a(S'ch_p2'
I1
tp14
a(S'ch_p1'
I1
tp15
a(S'w'
I3
tp16
a(S'p1_du'
I3
tp17
a(S'p1_vo'
I10
tp18
a(S'w'
I1
tp19
a(S'w'
I8
tp20
a(S'p1_tl'
I64
tp21
a(S'p1_ll'
I1
tp22
a(S'p1_th'
I1
tp23
a(S'w'
I2
tp24
a(S'ch_no'
I0
tp25
a(S'ch_tr'
I1
tp26
a(S'ch_p2'
I1
tp27
a(S'ch_p1'
I1
tp28
a(S'w'
I3
tp29
a(S'tr_lr'
I127
tp30
a(S'w'
I8
tp31
a(S'tr_tl'
I190
tp32
a(S'w'
I1
tp33
a(S'tr_ll'
I1
tp34
a(S'w'
I4135
tp35
a(S'p1_ll'
I1
tp36
a(S'w'
I11
tp37
a(S'tr_ll'
I1
tp38
a(S'w'
I13197
tp39
a(S'p1_tl'
I254
tp40
a(S'p1_ll'
I1
tp41
a(S'p1_th'
I0
tp42
a(S'w'
I11
tp43
a(S'tr_tl'
I160
tp44
a(S'tr_ll'
I1
tp45
a(S'w'
I5860
tp46
a(S'p1_tl'
I64
tp47
a(S'p1_ll'
I1
tp48
a(S'p1_th'
I1
tp49
a(S'w'
I11
tp50
a(S'tr_tl'
I190
tp51
a(S'tr_ll'
I1
tp52
a(S'w'
I5859
tp53
a(S'p1_tl'
I254
tp54
a(S'p1_ll'
I1
tp55
a(S'p1_th'
I0
tp56
a(S'w'
I10
tp57
a(S'tr_tl'
I160
tp58
a(S'w'
I1
tp59
a(S'tr_ll'
I1
tp60
a(S'w'
I5859
tp61
a(S'p1_tl'
I240
tp62
a(S'w'
I1
tp63
a(S'p1_ll'
I1
tp64
a(S'w'
I10
tp65
a(S'tr_tl'
I142
tp66
a(S'tr_ll'
I1
tp67
a(S'w'
I4392
tp68
a(S'p1_ll'
I1
tp69
a(S'w'
I11
tp70
a(S'tr_ll'
I1
tp71
a(S'w'
I13198
tp72
a(S'p1_tl'
I190
tp73
a(S'p1_ll'
I1
tp74
a(S'w'
I11
tp75
a(S'tr_tl'
I120
tp76
a(S'tr_ll'
I1
tp77
a(S'w'
I5859
tp78
a(S'p1_tl'
I240
tp79
a(S'p1_ll'
I1
tp80
a(S'w'
I11
tp81
a(S'tr_tl'
I142
tp82
a(S'tr_ll'
I1
tp83
a(S'w'
I5860
tp84
a(S'p1_tl'
I190
tp85
a(S'p1_ll'
I1
tp86
a(S'w'
I10
tp87
a(S'tr_tl'
I120
tp88
a(S'w'
I1
tp89
a(S'tr_ll'
I1
tp90
a(S'w'
I5859
tp91
a(S'p1_tl'
I160
tp92
a(S'p1_ll'
I1
tp93
a(S'w'
I11
tp94
a(S'tr_tl'
I95
tp95
a(S'tr_ll'
I1
tp96
a(S'w'
I29380
tp97
a.