(lp1
(S'clock'
p2
I1789772
tp3
a(S'w'
I323
tp4
a(S'ch_no'
I0
tp5
a(S'ch_tr'
I0
tp6
a(S'ch_p2'
I1
tp7
a(S'ch_p1'
I1
tp8
a(S'w'
I2
tp9
a(S'fc_mo'
I0
tp10
a(S'w'
I6
tp11
a(S'p1_du'
I2
tp12
a(S'p1_vo'
I10
tp13
a(S'w'
I8
tp14
a(S'p1_tl'
I103
tp15
a(S'p1_ll'
I1
tp16
a(S'p1_th'
I1
tp17
a(S'w'
I3
tp18
a(S'ch_no'
I0
tp19
a(S'ch_tr'
I1
tp20
a(S'ch_p2'
I1
tp21
a(S'ch_p1'
I1
tp22
a(S'w'
I2
tp23
a(S'tr_lr'
I127
tp24
a(S'w'
I1
tp25
a(S'w'
I8
tp26
a(S'tr_tl'
I103
tp27
a(S'tr_ll'
I1
tp28
a(S'tr_th'
I1
tp29
a(S'w'
I11473
tp30
a(S'w'
I1
tp31
a(S'p1_ll'
I1
tp32
a(S'w'
I5870
tp33
a(S'p1_tl'
I240
tp34
a(S'p1_ll'
I1
tp35
a(S'p1_th'
I0
tp36
a(S'w'
I11741
tp37
a(S'p1_ll'
I1
tp38
a(S'w'
I5870
tp39
a(S'p1_tl'
I29
tp40
a(S'p1_ll'
I1
tp41
a(S'p1_th'
I1
tp42
a(S'w'
I10
tp43
a(S'tr_tl'
I224
tp44
a(S'tr_ll'
I1
tp45
a(S'w'
I11731
tp46
a(S'p1_ll'
I1
tp47
a(S'w'
I5870
tp48
a(S'p1_tl'
I64
tp49
a(S'p1_ll'
I1
tp50
a(S'w'
I5871
tp51
a(S'p1_tl'
I29
tp52
a(S'p1_ll'
I1
tp53
a(S'w'
I5870
tp54
a(S'p1_tl'
I64
tp55
a(S'p1_ll'
I1
tp56
a(S'w'
I5870
tp57
a(S'p1_tl'
I103
tp58
a(S'w'
I1
tp59
a(S'p1_ll'
I1
tp60
a(S'w'
I10
tp61
a(S'tr_tl'
I103
tp62
a(S'tr_ll'
I1
tp63
a(S'w'
I29014
tp64
a.