(lp1
(S'clock'
p2
I1789772
tp3
a(S'tr_lh'
I1
tp4
a(S'tr_lr'
I1
tp5
a(S'w'
I1
tp6
a(S'tr_tl'
I254
tp7
a(S'w'
I1
tp8
a(S'tr_ll'
I0
tp9
a(S'w'
I5856
tp10
a(S'p1_du'
I3
tp11
a(S'p1_lh'
I1
tp12
a(S'p1_cv'
I1
tp13
a(S'p1_vo'
I15
tp14
a(S'w'
I1
tp15
a(S'p1_sp'
I7
tp16
a(S'p1_sn'
I1
tp17
a(S'p1_ss'
I7
tp18
a(S'p1_tl'
I169
tp19
a(S'w'
I1
tp20
a(S'p1_ll'
I11
tp21
a(S'w'
I4
tp22
a(S'p2_du'
I3
tp23
a(S'p2_lh'
I1
tp24
a(S'p2_cv'
I1
tp25
a(S'p2_vo'
I15
tp26
a(S'w'
I1
tp27
a(S'p2_sp'
I7
tp28
a(S'p2_sn'
I1
tp29
a(S'p2_ss'
I7
tp30
a(S'p2_tl'
I201
tp31
a(S'w'
I1
tp32
a(S'p2_ll'
I11
tp33
a(S'w'
I5864
tp34
a(S'p1_tl'
I151
tp35
a(S'w'
I1
tp36
a(S'p1_ll'
I11
tp37
a(S'w'
I5
tp38
a(S'p2_tl'
I190
tp39
a(S'w'
I1
tp40
a(S'p2_ll'
I11
tp41
a(S'w'
I5863
tp42
a(S'p1_tl'
I169
tp43
a(S'w'
I1
tp44
a(S'p1_ll'
I11
tp45
a(S'w'
I5
tp46
a(S'p2_tl'
I201
tp47
a(S'w'
I1
tp48
a(S'p2_ll'
I11
tp49
a(S'w'
I11734
tp50
a(S'w'
I1
tp51
a(S'p1_ll'
I11
tp52
a(S'w'
I5
tp53
a(S'w'
I1
tp54
a(S'p2_ll'
I11
tp55
a(S'w'
I5863
tp56
a(S'p1_tl'
I127
tp57
a(S'w'
I1
tp58
a(S'p1_ll'
I11
tp59
a(S'w'
I6
tp60
a(S'p2_tl'
I151
tp61
a(S'p2_ll'
I11
tp62
a(S'w'
I6
tp63
a(S'tr_tl'
I127
tp64
a(S'w'
I1
tp65
a(S'tr_ll'
I0
tp66
a(S'w'
I17602
tp67
a(S'tr_tl'
I254
tp68
a(S'w'
I1
tp69
a(S'tr_ll'
I0
tp70
a(S'w'
I5869
tp71
a(S'tr_tl'
I201
tp72
a(S'w'
I1
tp73
a(S'tr_ll'
I0
tp74
a(S'w'
I5870
tp75
a(S'tr_tl'
I169
tp76
a(S'tr_ll'
I0
tp77
a(S'w'
I5870
tp78
a(S'tr_tl'
I46
tp79
a(S'w'
I1
tp80
a(S'tr_ll'
I0
tp81
a(S'tr_th'
I1
tp82
a(S'w'
I17606
tp83
a(S'w'
I1
tp84
a(S'p1_ll'
I11
tp85
a(S'w'
I5
tp86
a(S'w'
I1
tp87
a(S'p2_ll'
I11
tp88
a(S'w'
I6
tp89
a(S'tr_ll'
I0
tp90
a(S'w'
I5858
tp91
a(S'p1_tl'
I113
tp92
a(S'p1_ll'
I11
tp93
a(S'w'
I6
tp94
a(S'p2_tl'
I134
tp95
a(S'w'
I1
tp96
a(S'p2_ll'
I11
tp97
a(S'w'
I5
tp98
a(S'tr_tl'
I254
tp99
a(S'w'
I1
tp100
a(S'tr_ll'
I0
tp101
a(S'tr_th'
I0
tp102
a(S'w'
I5857
tp103
a(S'p1_tl'
I100
tp104
a(S'w'
I1
tp105
a(S'p1_ll'
I11
tp106
a(S'w'
I5
tp107
a(S'p2_tl'
I127
tp108
a(S'w'
I1
tp109
a(S'p2_ll'
I11
tp110
a(S'w'
I5
tp111
a(S'tr_tl'
I190
tp112
a(S'w'
I1
tp113
a(S'tr_ll'
I0
tp114
a(S'w'
I5857
tp115
a(S'p1_tl'
I95
tp116
a(S'w'
I1
tp117
a(S'p1_ll'
I11
tp118
a(S'w'
I6
tp119
a(S'p2_tl'
I113
tp120
a(S'p2_ll'
I11
tp121
a(S'w'
I6
tp122
a(S'tr_tl'
I226
tp123
a(S'tr_ll'
I0
tp124
a(S'w'
I17599
tp125
a(S'p1_tl'
I100
tp126
a(S'p1_ll'
I11
tp127
a(S'w'
I6
tp128
a(S'p2_tl'
I134
tp129
a(S'w'
I1
tp130
a(S'p2_ll'
I11
tp131
a(S'w'
I6
tp132
a(S'tr_ll'
I0
tp133
a(S'w'
I5862
tp134
a(S'tr_ll'
I0
tp135
a(S'w'
I5870
tp136
a(S'tr_tl'
I201
tp137
a(S'tr_ll'
I0
tp138
a(S'w'
I5866
tp139
a(S'p1_tl'
I84
tp140
a(S'w'
I1
tp141
a(S'p1_ll'
I11
tp142
a(S'w'
I5
tp143
a(S'p2_tl'
I113
tp144
a(S'w'
I1
tp145
a(S'p2_ll'
I11
tp146
a(S'w'
I5
tp147
a(S'tr_tl'
I190
tp148
a(S'w'
I1
tp149
a(S'tr_ll'
I0
tp150
a(S'w'
I17600
tp151
a(S'p2_tl'
I95
tp152
a(S'w'
I1
tp153
a(S'p2_ll'
I11
tp154
a(S'w'
I17608
tp155
a(S'w'
I1
tp156
a(S'p1_ll'
I11
tp157
a(S'w'
I5
tp158
a(S'p2_tl'
I100
tp159
a(S'w'
I1
tp160
a(S'p2_ll'
I11
tp161
a(S'w'
I6
tp162
a(S'tr_tl'
I83
tp163
a(S'tr_ll'
I0
tp164
a(S'tr_th'
I1
tp165
a(S'w'
I8793
tp166
a(S'p1_tl'
I0
tp167
a(S'w'
I1
tp168
a(S'p1_ll'
I11
tp169
a(S'w'
I8813
tp170
a(S'tr_ll'
I0
tp171
a(S'w'
I5870
tp172
a(S'tr_tl'
I13
tp173
a(S'tr_ll'
I0
tp174
a(S'w'
I5870
tp175
a(S'tr_tl'
I226
tp176
a(S'w'
I1
tp177
a(S'tr_ll'
I0
tp178
a(S'tr_th'
I0
tp179
a(S'w'
I5867
tp180
a(S'w'
I1
tp181
a(S'p2_ll'
I11
tp182
a(S'w'
I6
tp183
a(S'tr_tl'
I254
tp184
a(S'tr_ll'
I0
tp185
a(S'w'
I8799
tp186
a(S'p2_tl'
I0
tp187
a(S'w'
I1
tp188
a(S'p2_ll'
I11
tp189
a(S'w'
I5
tp190
a(S'tr_tl'
I0
tp191
a(S'w'
I1
tp192
a(S'tr_ll'
I0
tp193
a(S'w'
I1
tp194
a.