(lp1
(S'clock'
p2
I1789772
tp3
a(S'ch_no'
I1
tp4
a(S'ch_tr'
I1
tp5
a(S'ch_p2'
I1
tp6
a(S'ch_p1'
I1
tp7
a(S'no_lh'
I1
tp8
a(S'no_cv'
I1
tp9
a(S'w'
I11
tp10
a(S'tr_tl'
I39
tp11
a(S'tr_ll'
I0
tp12
a(S'tr_th'
I3
tp13
a(S'w'
I6
tp14
a(S'tr_lh'
I1
tp15
a(S'w'
I11
tp16
a(S'p2_tl'
I12
tp17
a(S'w'
I1
tp18
a(S'p2_ll'
I0
tp19
a(S'p2_th'
I1
tp20
a(S'w'
I6
tp21
a(S'p2_du'
I3
tp22
a(S'p2_lh'
I1
tp23
a(S'p2_cv'
I1
tp24
a(S'p2_vo'
I2
tp25
a(S'w'
I11
tp26
a(S'p1_tl'
I200
tp27
a(S'p1_ll'
I0
tp28
a(S'w'
I6
tp29
a(S'p1_du'
I3
tp30
a(S'p1_lh'
I1
tp31
a(S'p1_cv'
I1
tp32
a(S'p1_vo'
I4
tp33
a(S'w'
I850
tp34
a(S'tr_lr'
I5
tp35
a(S'w'
I5
tp36
a(S'p2_vo'
I7
tp37
a(S'w'
I4
tp38
a(S'p1_vo'
I9
tp39
a(S'w'
I543
tp40
a(S'tr_lr'
I10
tp41
a(S'w'
I7
tp42
a(S'p2_vo'
I12
tp43
a(S'w'
I6
tp44
a(S'p1_vo'
I14
tp45
a(S'w'
I3118
tp46
a(S'p1_tl'
I212
tp47
a(S'w'
I1
tp48
a(S'p1_ll'
I0
tp49
a(S'w'
I5
tp50
a(S'p1_vo'
I4
tp51
a(S'w'
I723
tp52
a(S'p1_vo'
I9
tp53
a(S'w'
I726
tp54
a(S'tr_lr'
I9
tp55
a(S'w'
I7
tp56
a(S'p2_vo'
I11
tp57
a(S'w'
I6
tp58
a(S'p1_vo'
I14
tp59
a(S'w'
I2935
tp60
a(S'p1_tl'
I200
tp61
a(S'w'
I1
tp62
a(S'p1_ll'
I0
tp63
a(S'w'
I5
tp64
a(S'p1_vo'
I4
tp65
a(S'w'
I714
tp66
a(S'tr_lr'
I8
tp67
a(S'w'
I4
tp68
a(S'p2_vo'
I10
tp69
a(S'w'
I5
tp70
a(S'p1_vo'
I9
tp71
a(S'w'
I739
tp72
a(S'p1_vo'
I14
tp73
a(S'w'
I2187
tp74
a(S'tr_lr'
I7
tp75
a(S'w'
I5
tp76
a(S'p2_vo'
I9
tp77
a(S'w'
I743
tp78
a(S'p1_tl'
I178
tp79
a(S'p1_ll'
I0
tp80
a(S'w'
I6
tp81
a(S'p1_vo'
I4
tp82
a(S'w'
I723
tp83
a(S'p1_vo'
I9
tp84
a(S'w'
I726
tp85
a(S'tr_lr'
I6
tp86
a(S'w'
I6
tp87
a(S'p2_vo'
I8
tp88
a(S'w'
I6
tp89
a(S'p1_vo'
I14
tp90
a(S'w'
I1456
tp91
a(S'tr_lr'
I5
tp92
a(S'w'
I6
tp93
a(S'p2_vo'
I7
tp94
a(S'w'
I1461
tp95
a(S'tr_tl'
I53
tp96
a(S'w'
I1
tp97
a(S'tr_ll'
I0
tp98
a(S'tr_th'
I4
tp99
a(S'w'
I6
tp100
a(S'tr_lr'
I0
tp101
a(S'w'
I6
tp102
a(S'p2_tl'
I45
tp103
a(S'w'
I1
tp104
a(S'p2_ll'
I0
tp105
a(S'w'
I6
tp106
a(S'p2_vo'
I2
tp107
a(S'w'
I6
tp108
a(S'p1_tl'
I168
tp109
a(S'p1_ll'
I0
tp110
a(S'w'
I6
tp111
a(S'p1_vo'
I4
tp112
a(S'w'
I700
tp113
a(S'tr_lr'
I5
tp114
a(S'w'
I5
tp115
a(S'p2_vo'
I7
tp116
a(S'w'
I5
tp117
a(S'p1_vo'
I9
tp118
a(S'w'
I726
tp119
a(S'tr_lr'
I10
tp120
a(S'w'
I6
tp121
a(S'p2_vo'
I12
tp122
a(S'w'
I6
tp123
a(S'p1_vo'
I14
tp124
a(S'w'
I2936
tp125
a(S'p1_tl'
I178
tp126
a(S'p1_ll'
I0
tp127
a(S'w'
I6
tp128
a(S'p1_vo'
I4
tp129
a(S'w'
I723
tp130
a(S'p1_vo'
I9
tp131
a(S'w'
I726
tp132
a(S'tr_lr'
I9
tp133
a(S'w'
I6
tp134
a(S'p2_vo'
I11
tp135
a(S'w'
I6
tp136
a(S'p1_vo'
I14
tp137
a(S'w'
I2935
tp138
a(S'p1_tl'
I168
tp139
a(S'w'
I1
tp140
a(S'p1_ll'
I0
tp141
a(S'w'
I6
tp142
a(S'p1_vo'
I4
tp143
a(S'w'
I713
tp144
a(S'tr_lr'
I8
tp145
a(S'w'
I5
tp146
a(S'p2_vo'
I10
tp147
a(S'w'
I4
tp148
a(S'p1_vo'
I9
tp149
a(S'w'
I739
tp150
a(S'p1_vo'
I14
tp151
a(S'w'
I2187
tp152
a(S'tr_lr'
I7
tp153
a(S'w'
I5
tp154
a(S'p2_vo'
I9
tp155
a(S'w'
I743
tp156
a(S'p1_tl'
I150
tp157
a(S'w'
I1
tp158
a(S'p1_ll'
I0
tp159
a(S'w'
I5
tp160
a(S'p1_vo'
I4
tp161
a(S'w'
I723
tp162
a(S'p1_vo'
I9
tp163
a(S'w'
I726
tp164
a(S'tr_lr'
I6
tp165
a(S'w'
I7
tp166
a(S'p2_vo'
I8
tp167
a(S'w'
I6
tp168
a(S'p1_vo'
I14
tp169
a(S'w'
I1455
tp170
a(S'tr_lr'
I5
tp171
a(S'w'
I6
tp172
a(S'p2_vo'
I7
tp173
a(S'w'
I1461
tp174
a(S'tr_tl'
I185
tp175
a(S'w'
I1
tp176
a(S'tr_ll'
I0
tp177
a(S'w'
I6
tp178
a(S'tr_lr'
I0
tp179
a(S'w'
I6
tp180
a(S'p2_tl'
I82
tp181
a(S'w'
I1
tp182
a(S'p2_ll'
I0
tp183
a(S'w'
I6
tp184
a(S'p2_vo'
I2
tp185
a(S'w'
I6
tp186
a(S'p1_tl'
I133
tp187
a(S'p1_ll'
I0
tp188
a(S'w'
I6
tp189
a(S'p1_vo'
I4
tp190
a(S'w'
I701
tp191
a(S'tr_lr'
I5
tp192
a(S'w'
I4
tp193
a(S'p2_vo'
I7
tp194
a(S'w'
I5
tp195
a(S'p1_vo'
I9
tp196
a(S'w'
I726
tp197
a(S'tr_lr'
I10
tp198
a(S'w'
I6
tp199
a(S'p2_vo'
I12
tp200
a(S'w'
I7
tp201
a(S'p1_vo'
I14
tp202
a(S'w'
I2935
tp203
a(S'p1_tl'
I150
tp204
a(S'p1_ll'
I0
tp205
a(S'w'
I6
tp206
a(S'p1_vo'
I4
tp207
a(S'w'
I723
tp208
a(S'p1_vo'
I9
tp209
a(S'w'
I726
tp210
a(S'tr_lr'
I9
tp211
a(S'w'
I6
tp212
a(S'p2_vo'
I11
tp213
a(S'w'
I6
tp214
a(S'p1_vo'
I14
tp215
a(S'w'
I2936
tp216
a(S'p1_tl'
I168
tp217
a(S'p1_ll'
I0
tp218
a(S'w'
I6
tp219
a(S'p1_vo'
I4
tp220
a(S'w'
I713
tp221
a(S'tr_lr'
I8
tp222
a(S'w'
I5
tp223
a(S'p2_vo'
I10
tp224
a(S'w'
I4
tp225
a(S'p1_vo'
I9
tp226
a(S'w'
I739
tp227
a(S'p1_vo'
I14
tp228
a(S'w'
I2187
tp229
a(S'tr_lr'
I7
tp230
a(S'w'
I5
tp231
a(S'p2_vo'
I9
tp232
a(S'w'
I743
tp233
a(S'p1_tl'
I178
tp234
a(S'w'
I1
tp235
a(S'p1_ll'
I0
tp236
a(S'w'
I6
tp237
a(S'p1_vo'
I4
tp238
a(S'w'
I722
tp239
a(S'p1_vo'
I9
tp240
a(S'w'
I726
tp241
a(S'tr_lr'
I6
tp242
a(S'w'
I7
tp243
a(S'p2_vo'
I8
tp244
a(S'w'
I6
tp245
a(S'p1_vo'
I14
tp246
a(S'w'
I1455
tp247
a(S'tr_lr'
I5
tp248
a(S'w'
I6
tp249
a(S'p2_vo'
I7
tp250
a(S'w'
I1462
tp251
a(S'tr_tl'
I248
tp252
a(S'tr_ll'
I0
tp253
a(S'tr_th'
I3
tp254
a(S'w'
I6
tp255
a(S'tr_lr'
I0
tp256
a(S'w'
I7
tp257
a(S'p2_tl'
I212
tp258
a(S'p2_ll'
I0
tp259
a(S'p2_th'
I0
tp260
a(S'w'
I6
tp261
a(S'p2_vo'
I2
tp262
a(S'w'
I6
tp263
a(S'p1_tl'
I126
tp264
a(S'p1_ll'
I0
tp265
a(S'w'
I6
tp266
a(S'p1_vo'
I4
tp267
a(S'w'
I701
tp268
a(S'tr_lr'
I5
tp269
a(S'w'
I4
tp270
a(S'p2_vo'
I7
tp271
a(S'w'
I5
tp272
a(S'p1_vo'
I9
tp273
a(S'w'
I726
tp274
a(S'tr_lr'
I10
tp275
a(S'w'
I7
tp276
a(S'p2_vo'
I12
tp277
a(S'w'
I6
tp278
a(S'p1_vo'
I14
tp279
a(S'w'
I2935
tp280
a(S'p1_tl'
I133
tp281
a(S'p1_ll'
I0
tp282
a(S'w'
I6
tp283
a(S'p1_vo'
I4
tp284
a(S'w'
I723
tp285
a(S'p1_vo'
I9
tp286
a(S'w'
I726
tp287
a(S'tr_lr'
I9
tp288
a(S'w'
I6
tp289
a(S'p2_vo'
I11
tp290
a(S'w'
I7
tp291
a(S'p1_vo'
I14
tp292
a(S'w'
I2935
tp293
a(S'p1_tl'
I150
tp294
a(S'p1_ll'
I0
tp295
a(S'w'
I6
tp296
a(S'p1_vo'
I4
tp297
a(S'w'
I713
tp298
a(S'tr_lr'
I8
tp299
a(S'w'
I5
tp300
a(S'p2_vo'
I10
tp301
a(S'w'
I5
tp302
a(S'p1_vo'
I9
tp303
a(S'w'
I738
tp304
a(S'p1_vo'
I14
tp305
a(S'w'
I2188
tp306
a(S'tr_lr'
I7
tp307
a(S'w'
I4
tp308
a(S'p2_vo'
I9
tp309
a(S'w'
I744
tp310
a(S'p1_tl'
I168
tp311
a(S'p1_ll'
I0
tp312
a(S'w'
I6
tp313
a(S'p1_vo'
I4
tp314
a(S'w'
I722
tp315
a(S'p1_vo'
I9
tp316
a(S'w'
I727
tp317
a(S'tr_lr'
I6
tp318
a(S'w'
I6
tp319
a(S'p2_vo'
I8
tp320
a(S'w'
I6
tp321
a(S'p1_vo'
I14
tp322
a(S'w'
I1455
tp323
a(S'tr_lr'
I5
tp324
a(S'w'
I7
tp325
a(S'p2_vo'
I7
tp326
a(S'w'
I1464
tp327
a(S'tr_tl'
I207
tp328
a(S'w'
I1
tp329
a(S'tr_ll'
I0
tp330
a(S'tr_th'
I2
tp331
a(S'w'
I6
tp332
a(S'tr_lr'
I0
tp333
a(S'w'
I9
tp334
a(S'p2_tl'
I45
tp335
a(S'w'
I1
tp336
a(S'p2_ll'
I0
tp337
a(S'p2_th'
I1
tp338
a(S'w'
I5
tp339
a(S'p2_vo'
I2
tp340
a(S'w'
I10
tp341
a(S'p1_tl'
I178
tp342
a(S'p1_ll'
I0
tp343
a(S'w'
I6
tp344
a(S'p1_vo'
I4
tp345
a(S'w'
I691
tp346
a(S'tr_lr'
I5
tp347
a(S'w'
I5
tp348
a(S'p2_vo'
I7
tp349
a(S'w'
I4
tp350
a(S'p1_vo'
I9
tp351
a(S'w'
I727
tp352
a(S'tr_lr'
I10
tp353
a(S'w'
I6
tp354
a(S'p2_vo'
I12
tp355
a(S'w'
I6
tp356
a(S'p1_vo'
I14
tp357
a(S'w'
I2935
tp358
a(S'p1_tl'
I150
tp359
a(S'w'
I1
tp360
a(S'p1_ll'
I0
tp361
a(S'w'
I5
tp362
a(S'p1_vo'
I4
tp363
a(S'w'
I723
tp364
a(S'p1_vo'
I9
tp365
a(S'w'
I726
tp366
a(S'tr_lr'
I9
tp367
a(S'w'
I7
tp368
a(S'p2_vo'
I11
tp369
a(S'w'
I6
tp370
a(S'p1_vo'
I14
tp371
a(S'w'
I2929
tp372
a(S'p2_tl'
I253
tp373
a(S'p2_ll'
I0
tp374
a(S'p2_th'
I0
tp375
a(S'w'
I6
tp376
a(S'p2_vo'
I2
tp377
a(S'w'
I6
tp378
a(S'p1_tl'
I200
tp379
a(S'w'
I1
tp380
a(S'p1_ll'
I0
tp381
a(S'w'
I6
tp382
a(S'p1_vo'
I4
tp383
a(S'w'
I707
tp384
a(S'tr_lr'
I8
tp385
a(S'w'
I4
tp386
a(S'p2_vo'
I7
tp387
a(S'w'
I5
tp388
a(S'p1_vo'
I9
tp389
a(S'w'
I732
tp390
a(S'p2_vo'
I12
tp391
a(S'w'
I7
tp392
a(S'p1_vo'
I14
tp393
a(S'w'
I2187
tp394
a(S'tr_lr'
I7
tp395
a(S'w'
I748
tp396
a(S'p1_tl'
I150
tp397
a(S'p1_ll'
I0
tp398
a(S'w'
I6
tp399
a(S'p1_vo'
I4
tp400
a(S'w'
I723
tp401
a(S'p1_vo'
I9
tp402
a(S'w'
I726
tp403
a(S'tr_lr'
I6
tp404
a(S'w'
I6
tp405
a(S'p2_vo'
I11
tp406
a(S'w'
I6
tp407
a(S'p1_vo'
I14
tp408
a(S'w'
I1456
tp409
a(S'tr_lr'
I5
tp410
a(S'w'
I1467
tp411
a(S'tr_tl'
I53
tp412
a(S'w'
I1
tp413
a(S'tr_ll'
I0
tp414
a(S'tr_th'
I4
tp415
a(S'w'
I6
tp416
a(S'tr_lr'
I0
tp417
a(S'w'
I6
tp418
a(S'p2_tl'
I12
tp419
a(S'w'
I1
tp420
a(S'p2_ll'
I0
tp421
a(S'p2_th'
I1
tp422
a(S'w'
I6
tp423
a(S'p2_vo'
I2
tp424
a(S'w'
I6
tp425
a(S'p1_tl'
I212
tp426
a(S'p1_ll'
I0
tp427
a(S'w'
I6
tp428
a(S'p1_vo'
I4
tp429
a(S'w'
I700
tp430
a(S'tr_lr'
I5
tp431
a(S'w'
I5
tp432
a(S'p2_vo'
I7
tp433
a(S'w'
I5
tp434
a(S'p1_vo'
I9
tp435
a(S'w'
I726
tp436
a(S'tr_lr'
I10
tp437
a(S'w'
I6
tp438
a(S'p2_vo'
I12
tp439
a(S'w'
I6
tp440
a(S'p1_vo'
I14
tp441
a(S'w'
I2936
tp442
a(S'p1_tl'
I178
tp443
a(S'p1_ll'
I0
tp444
a(S'w'
I6
tp445
a(S'p1_vo'
I4
tp446
a(S'w'
I722
tp447
a(S'p1_vo'
I9
tp448
a(S'w'
I727
tp449
a(S'tr_lr'
I9
tp450
a(S'w'
I6
tp451
a(S'p2_vo'
I11
tp452
a(S'w'
I6
tp453
a(S'p1_vo'
I14
tp454
a(S'w'
I2929
tp455
a(S'p2_tl'
I103
tp456
a(S'w'
I1
tp457
a(S'p2_ll'
I0
tp458
a(S'w'
I5
tp459
a(S'p2_vo'
I2
tp460
a(S'w'
I7
tp461
a(S'p1_tl'
I12
tp462
a(S'p1_ll'
I0
tp463
a(S'p1_th'
I1
tp464
a(S'w'
I6
tp465
a(S'p1_vo'
I4
tp466
a(S'w'
I707
tp467
a(S'tr_lr'
I8
tp468
a(S'w'
I5
tp469
a(S'p2_vo'
I7
tp470
a(S'w'
I4
tp471
a(S'p1_vo'
I9
tp472
a(S'w'
I733
tp473
a(S'p2_vo'
I12
tp474
a(S'w'
I6
tp475
a(S'p1_vo'
I14
tp476
a(S'w'
I2187
tp477
a(S'tr_lr'
I7
tp478
a(S'w'
I748
tp479
a(S'p1_tl'
I212
tp480
a(S'w'
I1
tp481
a(S'p1_ll'
I0
tp482
a(S'p1_th'
I0
tp483
a(S'w'
I5
tp484
a(S'p1_vo'
I4
tp485
a(S'w'
I723
tp486
a(S'p1_vo'
I9
tp487
a(S'w'
I726
tp488
a(S'tr_lr'
I6
tp489
a(S'w'
I7
tp490
a(S'p2_vo'
I11
tp491
a(S'w'
I6
tp492
a(S'p1_vo'
I14
tp493
a(S'w'
I1455
tp494
a(S'tr_lr'
I5
tp495
a(S'w'
I1471
tp496
a(S'tr_tl'
I39
tp497
a(S'w'
I1
tp498
a(S'tr_ll'
I0
tp499
a(S'tr_th'
I3
tp500
a(S'w'
I5
tp501
a(S'tr_lr'
I0
tp502
a(S'w'
I7
tp503
a(S'p2_tl'
I82
tp504
a(S'p2_ll'
I0
tp505
a(S'w'
I6
tp506
a(S'p2_vo'
I2
tp507
a(S'w'
I10
tp508
a(S'p1_tl'
I200
tp509
a(S'p1_ll'
I0
tp510
a(S'w'
I6
tp511
a(S'p1_vo'
I4
tp512
a(S'w'
I694
tp513
a(S'tr_lr'
I5
tp514
a(S'w'
I4
tp515
a(S'p2_vo'
I7
tp516
a(S'w'
I5
tp517
a(S'p1_vo'
I9
tp518
a(S'w'
I726
tp519
a(S'tr_lr'
I10
tp520
a(S'w'
I6
tp521
a(S'p2_vo'
I12
tp522
a(S'w'
I7
tp523
a(S'p1_vo'
I14
tp524
a(S'w'
I4390
tp525
a(S'tr_lr'
I9
tp526
a(S'w'
I6
tp527
a(S'p2_vo'
I11
tp528
a(S'w'
I6
tp529
a(S'p1_vo'
I13
tp530
a(S'w'
I2924
tp531
a(S'tr_lh'
I0
tp532
a(S'tr_lr'
I0
tp533
a(S'w'
I6
tp534
a(S'p2_vo'
I0
tp535
a(S'w'
I7
tp536
a(S'p1_vo'
I0
tp537
a(S'w'
I8791
tp538
a(S'tr_tl'
I147
tp539
a(S'w'
I1
tp540
a(S'tr_ll'
I0
tp541
a(S'tr_th'
I1
tp542
a(S'w'
I5
tp543
a(S'tr_lh'
I1
tp544
a(S'w'
I6
tp545
a(S'p2_tl'
I168
tp546
a(S'w'
I1
tp547
a(S'p2_ll'
I0
tp548
a(S'p2_th'
I0
tp549
a(S'w'
I5
tp550
a(S'p2_vo'
I2
tp551
a(S'w'
I6
tp552
a(S'p1_tl'
I99
tp553
a(S'p1_ll'
I0
tp554
a(S'w'
I6
tp555
a(S'p1_vo'
I4
tp556
a(S'w'
I703
tp557
a(S'tr_lr'
I5
tp558
a(S'w'
I4
tp559
a(S'p2_vo'
I7
tp560
a(S'w'
I5
tp561
a(S'p1_vo'
I9
tp562
a(S'w'
I726
tp563
a(S'tr_lr'
I10
tp564
a(S'w'
I7
tp565
a(S'p2_vo'
I12
tp566
a(S'w'
I6
tp567
a(S'p1_vo'
I14
tp568
a(S'w'
I4390
tp569
a(S'tr_lr'
I9
tp570
a(S'w'
I6
tp571
a(S'p2_vo'
I11
tp572
a(S'w'
I7
tp573
a(S'p1_vo'
I13
tp574
a(S'w'
I2923
tp575
a(S'tr_lh'
I0
tp576
a(S'tr_lr'
I0
tp577
a(S'w'
I7
tp578
a(S'p2_vo'
I0
tp579
a(S'w'
I6
tp580
a(S'p1_vo'
I0
tp581
a(S'w'
I8804
tp582
a.