(lp1
(S'clock'
p2
I1789772
tp3
a(S'ch_no'
I0
tp4
a(S'ch_tr'
I1
tp5
a(S'ch_p2'
I0
tp6
a(S'ch_p1'
I1
tp7
a(S'w'
I1
tp8
a(S'p1_vo'
I10
tp9
a(S'w'
I1
tp10
a(S'p1_tl'
I106
tp11
a(S'p1_ll'
I1
tp12
a(S'w'
I13
tp13
a(S'ch_no'
I0
tp14
a(S'ch_tr'
I1
tp15
a(S'ch_p2'
I1
tp16
a(S'ch_p1'
I1
tp17
a(S'w'
I1
tp18
a(S'p2_lh'
I1
tp19
a(S'p2_cv'
I1
tp20
a(S'p2_vo'
I4
tp21
a(S'p2_tl'
I71
tp22
a(S'w'
I1
tp23
a(S'p2_ll'
I1
tp24
a(S'w'
I12
tp25
a(S'tr_lr'
I20
tp26
a(S'w'
I1
tp27
a(S'tr_tl'
I171
tp28
a(S'tr_ll'
I1
tp29
a(S'tr_th'
I1
tp30
a(S'w'
I14572
tp31
a(S'ch_no'
I0
tp32
a(S'ch_tr'
I1
tp33
a(S'ch_p2'
I1
tp34
a(S'ch_p1'
I0
tp35
a(S'w'
I14
tp36
a(S'p2_tl'
I53
tp37
a(S'p2_ll'
I1
tp38
a(S'w'
I7327
tp39
a(S'ch_no'
I0
tp40
a(S'ch_tr'
I1
tp41
a(S'ch_p2'
I1
tp42
a(S'ch_p1'
I1
tp43
a(S'w'
I1
tp44
a(S'w'
I1
tp45
a(S'p1_ll'
I1
tp46
a(S'w'
I12
tp47
a(S'p2_tl'
I71
tp48
a(S'w'
I1
tp49
a(S'p2_ll'
I1
tp50
a(S'w'
I11
tp51
a(S'tr_tl'
I58
tp52
a(S'tr_ll'
I1
tp53
a(S'tr_th'
I2
tp54
a(S'w'
I14652
tp55
a(S'ch_no'
I0
tp56
a(S'ch_tr'
I1
tp57
a(S'ch_p2'
I1
tp58
a(S'ch_p1'
I0
tp59
a(S'w'
I13
tp60
a(S'p2_tl'
I53
tp61
a(S'p2_ll'
I1
tp62
a(S'w'
I12
tp63
a(S'tr_tl'
I128
tp64
a(S'tr_ll'
I1
tp65
a(S'w'
I7315
tp66
a(S'ch_no'
I0
tp67
a(S'ch_tr'
I1
tp68
a(S'ch_p2'
I1
tp69
a(S'ch_p1'
I1
tp70
a(S'w'
I2
tp71
a(S'p1_tl'
I142
tp72
a(S'p1_ll'
I1
tp73
a(S'w'
I13
tp74
a(S'p2_tl'
I71
tp75
a(S'w'
I1
tp76
a(S'p2_ll'
I1
tp77
a(S'w'
I7323
tp78
a(S'p1_tl'
I213
tp79
a(S'p1_ll'
I1
tp80
a(S'w'
I13
tp81
a(S'p2_tl'
I53
tp82
a(S'p2_ll'
I1
tp83
a(S'w'
I12
tp84
a(S'tr_tl'
I171
tp85
a(S'tr_ll'
I1
tp86
a(S'tr_th'
I1
tp87
a(S'w'
I7310
tp88
a(S'p1_tl'
I106
tp89
a(S'p1_ll'
I1
tp90
a(S'w'
I13
tp91
a(S'p2_tl'
I75
tp92
a(S'p2_ll'
I1
tp93
a(S'w'
I12
tp94
a(S'tr_ll'
I1
tp95
a(S'w'
I14650
tp96
a(S'ch_no'
I0
tp97
a(S'ch_tr'
I1
tp98
a(S'ch_p2'
I1
tp99
a(S'ch_p1'
I0
tp100
a(S'w'
I13
tp101
a(S'p2_tl'
I53
tp102
a(S'p2_ll'
I1
tp103
a(S'w'
I7322
tp104
a(S'ch_no'
I0
tp105
a(S'ch_tr'
I1
tp106
a(S'ch_p2'
I1
tp107
a(S'ch_p1'
I1
tp108
a(S'w'
I1
tp109
a(S'w'
I1
tp110
a(S'p1_ll'
I1
tp111
a(S'w'
I12
tp112
a(S'p2_tl'
I75
tp113
a(S'w'
I1
tp114
a(S'p2_ll'
I1
tp115
a(S'w'
I11
tp116
a(S'tr_tl'
I58
tp117
a(S'tr_ll'
I1
tp118
a(S'tr_th'
I2
tp119
a(S'w'
I14653
tp120
a(S'ch_no'
I0
tp121
a(S'ch_tr'
I1
tp122
a(S'ch_p2'
I1
tp123
a(S'ch_p1'
I0
tp124
a(S'w'
I13
tp125
a(S'p2_tl'
I53
tp126
a(S'p2_ll'
I1
tp127
a(S'w'
I12
tp128
a(S'tr_tl'
I171
tp129
a(S'tr_ll'
I1
tp130
a(S'tr_th'
I1
tp131
a(S'w'
I7315
tp132
a(S'ch_no'
I0
tp133
a(S'ch_tr'
I1
tp134
a(S'ch_p2'
I1
tp135
a(S'ch_p1'
I1
tp136
a(S'w'
I2
tp137
a(S'p1_tl'
I142
tp138
a(S'w'
I1
tp139
a(S'p1_ll'
I1
tp140
a(S'w'
I12
tp141
a(S'p2_tl'
I75
tp142
a(S'w'
I1
tp143
a(S'p2_ll'
I1
tp144
a(S'w'
I7325
tp145
a(S'p1_tl'
I213
tp146
a(S'p1_ll'
I1
tp147
a(S'w'
I13
tp148
a(S'p2_tl'
I53
tp149
a(S'w'
I1
tp150
a(S'p2_ll'
I1
tp151
a(S'w'
I11
tp152
a(S'tr_tl'
I58
tp153
a(S'tr_ll'
I1
tp154
a(S'tr_th'
I2
tp155
a(S'w'
I7315
tp156
a(S'p1_tl'
I106
tp157
a(S'w'
I1
tp158
a(S'p1_ll'
I1
tp159
a(S'w'
I12
tp160
a(S'p2_tl'
I80
tp161
a(S'w'
I1
tp162
a(S'p2_ll'
I1
tp163
a(S'w'
I11
tp164
a(S'tr_tl'
I171
tp165
a(S'w'
I1
tp166
a(S'tr_ll'
I1
tp167
a(S'tr_th'
I1
tp168
a(S'w'
I14644
tp169
a(S'ch_no'
I0
tp170
a(S'ch_tr'
I1
tp171
a(S'ch_p2'
I1
tp172
a(S'ch_p1'
I0
tp173
a(S'w'
I13
tp174
a(S'p2_tl'
I53
tp175
a(S'p2_ll'
I1
tp176
a(S'w'
I7327
tp177
a(S'ch_no'
I0
tp178
a(S'ch_tr'
I1
tp179
a(S'ch_p2'
I1
tp180
a(S'ch_p1'
I1
tp181
a(S'w'
I2
tp182
a(S'p1_ll'
I1
tp183
a(S'w'
I13
tp184
a(S'p2_tl'
I80
tp185
a(S'p2_ll'
I1
tp186
a(S'w'
I11
tp187
a(S'tr_tl'
I58
tp188
a(S'w'
I1
tp189
a(S'tr_ll'
I1
tp190
a(S'tr_th'
I2
tp191
a(S'w'
I14647
tp192
a(S'ch_no'
I0
tp193
a(S'ch_tr'
I1
tp194
a(S'ch_p2'
I1
tp195
a(S'ch_p1'
I0
tp196
a(S'w'
I13
tp197
a(S'p2_tl'
I53
tp198
a(S'p2_ll'
I1
tp199
a(S'w'
I12
tp200
a(S'tr_tl'
I171
tp201
a(S'tr_ll'
I1
tp202
a(S'tr_th'
I1
tp203
a(S'w'
I7315
tp204
a(S'ch_no'
I0
tp205
a(S'ch_tr'
I1
tp206
a(S'ch_p2'
I1
tp207
a(S'ch_p1'
I1
tp208
a(S'w'
I2
tp209
a(S'p1_tl'
I142
tp210
a(S'w'
I1
tp211
a(S'p1_ll'
I1
tp212
a(S'w'
I12
tp213
a(S'p2_tl'
I84
tp214
a(S'w'
I1
tp215
a(S'p2_ll'
I1
tp216
a(S'w'
I11
tp217
a(S'tr_tl'
I83
tp218
a(S'w'
I1
tp219
a(S'tr_ll'
I1
tp220
a(S'w'
I7311
tp221
a(S'p1_tl'
I213
tp222
a(S'p1_ll'
I1
tp223
a(S'w'
I13
tp224
a(S'p2_tl'
I53
tp225
a(S'w'
I1
tp226
a(S'p2_ll'
I1
tp227
a(S'w'
I11
tp228
a(S'tr_tl'
I171
tp229
a(S'w'
I1
tp230
a(S'tr_ll'
I1
tp231
a(S'w'
I7309
tp232
a(S'p1_tl'
I106
tp233
a(S'p1_ll'
I1
tp234
a(S'w'
I13
tp235
a(S'p2_tl'
I80
tp236
a(S'p2_ll'
I1
tp237
a(S'w'
I12
tp238
a(S'tr_ll'
I1
tp239
a(S'w'
I14650
tp240
a(S'ch_no'
I0
tp241
a(S'ch_tr'
I1
tp242
a(S'ch_p2'
I1
tp243
a(S'ch_p1'
I0
tp244
a(S'w'
I13
tp245
a(S'p2_tl'
I106
tp246
a(S'p2_ll'
I1
tp247
a(S'w'
I7322
tp248
a(S'ch_no'
I0
tp249
a(S'ch_tr'
I1
tp250
a(S'ch_p2'
I1
tp251
a(S'ch_p1'
I1
tp252
a(S'w'
I1
tp253
a(S'w'
I1
tp254
a(S'p1_ll'
I1
tp255
a(S'w'
I13
tp256
a(S'p2_tl'
I95
tp257
a(S'p2_ll'
I1
tp258
a(S'w'
I11
tp259
a(S'tr_tl'
I58
tp260
a(S'tr_ll'
I1
tp261
a(S'tr_th'
I2
tp262
a(S'w'
I14633
tp263
a(S'tr_tl'
I171
tp264
a(S'w'
I1
tp265
a(S'tr_ll'
I1
tp266
a(S'tr_th'
I1
tp267
a(S'w'
I7337
tp268
a(S'tr_tl'
I83
tp269
a(S'w'
I1
tp270
a(S'tr_ll'
I1
tp271
a(S'w'
I7324
tp272
a(S'ch_no'
I0
tp273
a(S'ch_tr'
I1
tp274
a(S'ch_p2'
I1
tp275
a(S'ch_p1'
I0
tp276
a(S'w'
I8
tp277
a(S'ch_no'
I0
tp278
a(S'ch_tr'
I1
tp279
a(S'ch_p2'
I0
tp280
a(S'ch_p1'
I0
tp281
a(S'w'
I11
tp282
a(S'tr_tl'
I58
tp283
a(S'w'
I1
tp284
a(S'tr_ll'
I1
tp285
a(S'tr_th'
I2
tp286
a(S'w'
I7323
tp287
a(S'ch_no'
I0
tp288
a(S'ch_tr'
I1
tp289
a(S'ch_p2'
I0
tp290
a(S'ch_p1'
I1
tp291
a(S'w'
I1
tp292
a(S'p1_vo'
I15
tp293
a(S'w'
I1
tp294
a(S'p1_tl'
I80
tp295
a(S'p1_ll'
I1
tp296
a(S'w'
I14
tp297
a(S'ch_no'
I0
tp298
a(S'ch_tr'
I1
tp299
a(S'ch_p2'
I1
tp300
a(S'ch_p1'
I1
tp301
a(S'w'
I1
tp302
a(S'p2_lh'
I0
tp303
a(S'p2_cv'
I0
tp304
a(S'p2_vo'
I15
tp305
a(S'w'
I1
tp306
a(S'p2_tl'
I127
tp307
a(S'p2_ll'
I1
tp308
a(S'w'
I14
tp309
a(S'tr_lr'
I10
tp310
a(S'w'
I1
tp311
a(S'tr_tl'
I64
tp312
a(S'tr_ll'
I1
tp313
a(S'tr_th'
I1
tp314
a(S'w'
I7314
tp315
a(S'tr_ll'
I1
tp316
a(S'w'
I7339
tp317
a(S'tr_tl'
I83
tp318
a(S'tr_ll'
I1
tp319
a(S'w'
I7327
tp320
a(S'p1_tl'
I71
tp321
a(S'w'
I1
tp322
a(S'p1_ll'
I1
tp323
a(S'w'
I12
tp324
a(S'p2_tl'
I113
tp325
a(S'p2_ll'
I1
tp326
a(S'w'
I12
tp327
a(S'tr_tl'
I64
tp328
a(S'tr_ll'
I1
tp329
a(S'w'
I7322
tp330
a(S'tr_tl'
I13
tp331
a(S'tr_ll'
I1
tp332
a(S'w'
I7330
tp333
a(S'w'
I1
tp334
a(S'p1_ll'
I1
tp335
a(S'w'
I12
tp336
a(S'w'
I1
tp337
a(S'p2_ll'
I1
tp338
a(S'w'
I11
tp339
a(S'tr_tl'
I64
tp340
a(S'tr_ll'
I1
tp341
a(S'w'
I7323
tp342
a(S'tr_tl'
I254
tp343
a(S'tr_ll'
I1
tp344
a(S'tr_th'
I0
tp345
a(S'w'
I7327
tp346
a(S'p1_ll'
I1
tp347
a(S'w'
I13
tp348
a(S'p2_ll'
I1
tp349
a(S'w'
I12
tp350
a(S'tr_tl'
I29
tp351
a(S'tr_ll'
I1
tp352
a(S'tr_th'
I1
tp353
a(S'w'
I7307
tp354
a(S'p1_tl'
I67
tp355
a(S'w'
I1
tp356
a(S'p1_ll'
I1
tp357
a(S'w'
I12
tp358
a(S'p2_tl'
I106
tp359
a(S'w'
I1
tp360
a(S'p2_ll'
I1
tp361
a(S'w'
I11
tp362
a(S'tr_tl'
I13
tp363
a(S'w'
I1
tp364
a(S'tr_ll'
I1
tp365
a(S'w'
I7332
tp366
a(S'tr_ll'
I1
tp367
a(S'w'
I7337
tp368
a(S'tr_ll'
I1
tp369
a(S'w'
I7319
tp370
a(S'p1_tl'
I60
tp371
a(S'w'
I1
tp372
a(S'p1_ll'
I1
tp373
a(S'w'
I12
tp374
a(S'p2_tl'
I95
tp375
a(S'w'
I1
tp376
a(S'p2_ll'
I1
tp377
a(S'w'
I14
tp378
a(S'tr_ll'
I1
tp379
a(S'w'
I7329
tp380
a(S'tr_tl'
I240
tp381
a(S'tr_ll'
I1
tp382
a(S'tr_th'
I0
tp383
a(S'w'
I7326
tp384
a(S'p1_ll'
I1
tp385
a(S'w'
I13
tp386
a(S'p2_ll'
I1
tp387
a(S'w'
I12
tp388
a(S'tr_tl'
I254
tp389
a(S'tr_ll'
I1
tp390
a(S'w'
I7324
tp391
a(S'tr_tl'
I240
tp392
a(S'w'
I1
tp393
a(S'tr_ll'
I1
tp394
a(S'w'
I7326
tp395
a(S'p1_ll'
I1
tp396
a(S'w'
I13
tp397
a(S'w'
I1
tp398
a(S'p2_ll'
I1
tp399
a(S'w'
I11
tp400
a(S'tr_tl'
I254
tp401
a(S'w'
I1
tp402
a(S'tr_ll'
I1
tp403
a(S'w'
I7312
tp404
a(S'p1_tl'
I53
tp405
a(S'p1_ll'
I1
tp406
a(S'w'
I13
tp407
a(S'p2_tl'
I84
tp408
a(S'w'
I1
tp409
a(S'p2_ll'
I1
tp410
a(S'w'
I14
tp411
a(S'tr_tl'
I213
tp412
a(S'tr_ll'
I1
tp413
a(S'w'
I14658
tp414
a(S'tr_tl'
I29
tp415
a(S'tr_ll'
I1
tp416
a(S'tr_th'
I1
tp417
a(S'w'
I7337
tp418
a(S'tr_tl'
I83
tp419
a(S'tr_ll'
I1
tp420
a(S'w'
I7390
tp421
a(S'tr_tl'
I171
tp422
a(S'tr_ll'
I1
tp423
a(S'w'
I14677
tp424
a(S'tr_ll'
I1
tp425
a(S'w'
I7337
tp426
a(S'tr_ll'
I1
tp427
a(S'w'
I7323
tp428
a(S'w'
I1
tp429
a(S'p1_ll'
I1
tp430
a(S'w'
I12
tp431
a(S'w'
I1
tp432
a(S'p2_ll'
I1
tp433
a(S'w'
I11
tp434
a(S'tr_tl'
I58
tp435
a(S'tr_ll'
I1
tp436
a(S'tr_th'
I2
tp437
a(S'w'
I7315
tp438
a(S'ch_no'
I0
tp439
a(S'ch_tr'
I1
tp440
a(S'ch_p2'
I1
tp441
a(S'ch_p1'
I0
tp442
a(S'w'
I8
tp443
a(S'ch_no'
I0
tp444
a(S'ch_tr'
I1
tp445
a(S'ch_p2'
I0
tp446
a(S'ch_p1'
I0
tp447
a(S'w'
I22009
tp448
a(S'ch_no'
I0
tp449
a(S'ch_tr'
I1
tp450
a(S'ch_p2'
I0
tp451
a(S'ch_p1'
I1
tp452
a(S'w'
I2
tp453
a(S'p1_ll'
I1
tp454
a(S'w'
I11
tp455
a(S'ch_no'
I0
tp456
a(S'ch_tr'
I1
tp457
a(S'ch_p2'
I1
tp458
a(S'ch_p1'
I1
tp459
a(S'w'
I2
tp460
a(S'w'
I1
tp461
a(S'p2_ll'
I1
tp462
a(S'w'
I11
tp463
a(S'tr_tl'
I171
tp464
a(S'tr_ll'
I1
tp465
a(S'tr_th'
I1
tp466
a(S'w'
I7307
tp467
a(S'ch_no'
I0
tp468
a(S'ch_tr'
I1
tp469
a(S'ch_p2'
I1
tp470
a(S'ch_p1'
I0
tp471
a(S'w'
I8
tp472
a(S'ch_no'
I0
tp473
a(S'ch_tr'
I1
tp474
a(S'ch_p2'
I0
tp475
a(S'ch_p1'
I0
tp476
a.