(lp1
(S'clock'
p2
I1789772
tp3
a(S'ch_no'
I0
tp4
a(S'ch_tr'
I1
tp5
a(S'ch_p2'
I0
tp6
a(S'ch_p1'
I0
tp7
a(S'w'
I1
tp8
a(S'tr_lr'
I16
tp9
a(S'w'
I1
tp10
a(S'tr_tl'
I171
tp11
a(S'tr_ll'
I1
tp12
a(S'tr_th'
I1
tp13
a(S'w'
I716
tp14
a(S'p1_du'
I1
tp15
a(S'p1_vo'
I5
tp16
a(S'w'
I5148
tp17
a(S'tr_tl'
I224
tp18
a(S'tr_ll'
I1
tp19
a(S'w'
I5871
tp20
a(S'tr_tl'
I252
tp21
a(S'tr_ll'
I1
tp22
a(S'w'
I5870
tp23
a(S'tr_tl'
I171
tp24
a(S'w'
I1
tp25
a(S'tr_ll'
I1
tp26
a(S'w'
I5865
tp27
a(S'ch_no'
I0
tp28
a(S'ch_tr'
I1
tp29
a(S'ch_p2'
I0
tp30
a(S'ch_p1'
I1
tp31
a(S'w'
I2
tp32
a(S'p1_tl'
I26
tp33
a(S'p1_ll'
I1
tp34
a(S'w'
I11
tp35
a(S'tr_tl'
I224
tp36
a(S'w'
I1
tp37
a(S'tr_ll'
I1
tp38
a(S'w'
I1455
tp39
a(S'p1_tl'
I28
tp40
a(S'p1_ll'
I1
tp41
a(S'w'
I1468
tp42
a(S'p1_tl'
I31
tp43
a(S'p1_ll'
I1
tp44
a(S'w'
I1467
tp45
a(S'p1_tl'
I35
tp46
a(S'p1_ll'
I1
tp47
a(S'w'
I1468
tp48
a(S'p1_tl'
I40
tp49
a(S'p1_ll'
I1
tp50
a(S'w'
I11
tp51
a(S'tr_tl'
I252
tp52
a(S'w'
I1
tp53
a(S'tr_ll'
I1
tp54
a(S'w'
I1455
tp55
a(S'p1_tl'
I42
tp56
a(S'w'
I1
tp57
a(S'p1_ll'
I1
tp58
a(S'w'
I1467
tp59
a(S'p1_tl'
I47
tp60
a(S'p1_ll'
I1
tp61
a(S'w'
I1468
tp62
a(S'p1_tl'
I53
tp63
a(S'p1_ll'
I1
tp64
a(S'w'
I1467
tp65
a(S'p1_tl'
I35
tp66
a(S'p1_ll'
I1
tp67
a(S'w'
I12
tp68
a(S'tr_tl'
I224
tp69
a(S'tr_ll'
I1
tp70
a(S'w'
I1456
tp71
a(S'p1_tl'
I40
tp72
a(S'p1_ll'
I1
tp73
a(S'w'
I1467
tp74
a(S'p1_tl'
I42
tp75
a(S'w'
I1
tp76
a(S'p1_ll'
I1
tp77
a(S'w'
I1467
tp78
a(S'p1_tl'
I47
tp79
a(S'p1_ll'
I1
tp80
a(S'w'
I1468
tp81
a(S'p1_tl'
I53
tp82
a(S'p1_ll'
I1
tp83
a(S'w'
I11
tp84
a(S'tr_tl'
I252
tp85
a(S'tr_ll'
I1
tp86
a(S'w'
I1456
tp87
a(S'p1_tl'
I56
tp88
a(S'p1_ll'
I1
tp89
a(S'w'
I1467
tp90
a(S'p1_tl'
I60
tp91
a(S'w'
I1
tp92
a(S'p1_ll'
I1
tp93
a(S'w'
I1467
tp94
a(S'p1_tl'
I47
tp95
a(S'w'
I1
tp96
a(S'p1_ll'
I1
tp97
a(S'w'
I1467
tp98
a(S'p1_tl'
I106
tp99
a(S'p1_ll'
I1
tp100
a(S'w'
I11
tp101
a(S'tr_tl'
I58
tp102
a(S'tr_ll'
I1
tp103
a(S'tr_th'
I2
tp104
a(S'w'
I1456
tp105
a(S'p1_tl'
I95
tp106
a(S'w'
I1
tp107
a(S'p1_ll'
I1
tp108
a(S'w'
I1467
tp109
a(S'p1_tl'
I84
tp110
a(S'p1_ll'
I1
tp111
a(S'w'
I1467
tp112
a(S'p1_tl'
I80
tp113
a(S'w'
I1
tp114
a(S'p1_ll'
I1
tp115
a(S'w'
I1467
tp116
a(S'p1_tl'
I84
tp117
a(S'p1_ll'
I1
tp118
a(S'w'
I12
tp119
a(S'tr_tl'
I224
tp120
a(S'tr_ll'
I1
tp121
a(S'tr_th'
I1
tp122
a(S'w'
I1456
tp123
a(S'p1_tl'
I80
tp124
a(S'p1_ll'
I1
tp125
a(S'w'
I1467
tp126
a(S'p1_tl'
I71
tp127
a(S'w'
I1
tp128
a(S'p1_ll'
I1
tp129
a(S'w'
I1467
tp130
a(S'p1_tl'
I63
tp131
a(S'p1_ll'
I1
tp132
a(S'w'
I1467
tp133
a(S'p1_tl'
I80
tp134
a(S'w'
I1
tp135
a(S'p1_ll'
I1
tp136
a(S'w'
I11
tp137
a(S'tr_tl'
I252
tp138
a(S'tr_ll'
I1
tp139
a(S'w'
I1456
tp140
a(S'p1_tl'
I71
tp141
a(S'p1_ll'
I1
tp142
a(S'w'
I1468
tp143
a(S'p1_tl'
I63
tp144
a(S'p1_ll'
I1
tp145
a(S'w'
I1467
tp146
a(S'p1_tl'
I56
tp147
a(S'w'
I1
tp148
a(S'p1_ll'
I1
tp149
a(S'w'
I1467
tp150
a(S'p1_tl'
I53
tp151
a(S'w'
I1
tp152
a(S'p1_ll'
I1
tp153
a(S'w'
I11
tp154
a(S'tr_tl'
I58
tp155
a(S'tr_ll'
I1
tp156
a(S'tr_th'
I2
tp157
a(S'w'
I1456
tp158
a(S'p1_tl'
I47
tp159
a(S'p1_ll'
I1
tp160
a(S'w'
I1467
tp161
a(S'p1_tl'
I42
tp162
a(S'w'
I1
tp163
a(S'p1_ll'
I1
tp164
a(S'w'
I1467
tp165
a(S'p1_tl'
I40
tp166
a(S'p1_ll'
I1
tp167
a(S'w'
I1468
tp168
a(S'p1_tl'
I35
tp169
a(S'p1_ll'
I1
tp170
a(S'w'
I11
tp171
a(S'tr_ll'
I1
tp172
a(S'w'
I1456
tp173
a(S'p1_tl'
I33
tp174
a(S'w'
I1
tp175
a(S'p1_ll'
I1
tp176
a(S'w'
I1467
tp177
a(S'p1_tl'
I31
tp178
a(S'p1_ll'
I1
tp179
a(S'w'
I1467
tp180
a(S'p1_tl'
I28
tp181
a(S'w'
I1
tp182
a(S'p1_ll'
I1
tp183
a(S'w'
I1467
tp184
a(S'p1_tl'
I26
tp185
a(S'w'
I1
tp186
a(S'p1_ll'
I1
tp187
a(S'w'
I11
tp188
a(S'tr_tl'
I128
tp189
a(S'tr_ll'
I1
tp190
a(S'w'
I5853
tp191
a(S'ch_no'
I0
tp192
a(S'ch_tr'
I1
tp193
a(S'ch_p2'
I0
tp194
a(S'ch_p1'
I0
tp195
a(S'w'
I11
tp196
a(S'tr_tl'
I166
tp197
a(S'w'
I1
tp198
a(S'tr_ll'
I1
tp199
a(S'w'
I5867
tp200
a(S'tr_tl'
I171
tp201
a(S'w'
I1
tp202
a(S'tr_ll'
I1
tp203
a(S'tr_th'
I1
tp204
a(S'w'
I46959
tp205
a(S'ch_no'
I0
tp206
a(S'ch_tr'
I0
tp207
a(S'ch_p2'
I0
tp208
a(S'ch_p1'
I0
tp209
a(S'w'
I5872
tp210
a(S'ch_no'
I0
tp211
a(S'ch_tr'
I1
tp212
a(S'ch_p2'
I0
tp213
a(S'ch_p1'
I0
tp214
a(S'w'
I2
tp215
a(S'tr_tl'
I87
tp216
a(S'tr_ll'
I1
tp217
a(S'tr_th'
I3
tp218
a(S'w'
I5866
tp219
a(S'ch_no'
I0
tp220
a(S'ch_tr'
I0
tp221
a(S'ch_p2'
I0
tp222
a(S'ch_p1'
I0
tp223
a.