(lp1
(S'clock'
p2
I1789772
tp3
a(S'ch_no'
I1
tp4
a(S'ch_tr'
I0
tp5
a(S'ch_p2'
I0
tp6
a(S'ch_p1'
I0
tp7
a(S'w'
I2
tp8
a(S'no_np'
I10
tp9
a(S'no_ll'
I1
tp10
a(S'w'
I699
tp11
a(S'p1_vo'
I10
tp12
a(S'w'
I6
tp13
a(S'p2_vo'
I10
tp14
a(S'w'
I4
tp15
a(S'tr_lr'
I10
tp16
a(S'w'
I12470
tp17
a(S'ch_no'
I1
tp18
a(S'ch_tr'
I0
tp19
a(S'ch_p2'
I0
tp20
a(S'ch_p1'
I1
tp21
a(S'w'
I2
tp22
a(S'p1_tl'
I142
tp23
a(S'p1_ll'
I1
tp24
a(S'w'
I11
tp25
a(S'ch_no'
I1
tp26
a(S'ch_tr'
I0
tp27
a(S'ch_p2'
I1
tp28
a(S'ch_p1'
I1
tp29
a(S'w'
I2
tp30
a(S'p2_tl'
I169
tp31
a(S'p2_ll'
I1
tp32
a(S'w'
I16
tp33
a(S'no_np'
I4
tp34
a(S'no_ll'
I1
tp35
a(S'w'
I13180
tp36
a(S'p1_tl'
I190
tp37
a(S'p1_ll'
I1
tp38
a(S'w'
I12
tp39
a(S'p2_tl'
I226
tp40
a(S'p2_ll'
I1
tp41
a(S'w'
I16
tp42
a(S'no_np'
I10
tp43
a(S'no_ll'
I1
tp44
a(S'w'
I13193
tp45
a(S'no_np'
I4
tp46
a(S'w'
I1
tp47
a(S'no_ll'
I1
tp48
a(S'w'
I6592
tp49
a(S'p1_tl'
I160
tp50
a(S'p1_ll'
I1
tp51
a(S'w'
I12
tp52
a(S'p2_tl'
I190
tp53
a(S'w'
I1
tp54
a(S'p2_ll'
I1
tp55
a(S'w'
I6603
tp56
a(S'no_np'
I10
tp57
a(S'no_ll'
I1
tp58
a(S'w'
I6591
tp59
a(S'p1_ll'
I1
tp60
a(S'w'
I12
tp61
a(S'w'
I1
tp62
a(S'p2_ll'
I1
tp63
a(S'w'
I6604
tp64
a(S'no_np'
I4
tp65
a(S'w'
I1
tp66
a(S'no_ll'
I1
tp67
a(S'w'
I6590
tp68
a(S'p1_ll'
I1
tp69
a(S'w'
I13
tp70
a(S'p2_ll'
I1
tp71
a(S'w'
I6591
tp72
a(S'p1_tl'
I127
tp73
a(S'w'
I1
tp74
a(S'p1_ll'
I1
tp75
a(S'w'
I12
tp76
a(S'p2_tl'
I160
tp77
a(S'p2_ll'
I1
tp78
a(S'w'
I16
tp79
a(S'no_np'
I10
tp80
a(S'no_ll'
I1
tp81
a(S'w'
I6576
tp82
a(S'p1_ll'
I1
tp83
a(S'w'
I12
tp84
a(S'w'
I1
tp85
a(S'p2_ll'
I1
tp86
a(S'w'
I9
tp87
a(S'ch_no'
I1
tp88
a(S'ch_tr'
I1
tp89
a(S'ch_p2'
I1
tp90
a(S'ch_p1'
I1
tp91
a(S'w'
I2
tp92
a(S'tr_tl'
I58
tp93
a(S'tr_ll'
I1
tp94
a(S'tr_th'
I2
tp95
a(S'w'
I11
tp96
a(S'no_np'
I4
tp97
a(S'no_ll'
I1
tp98
a(S'w'
I6569
tp99
a(S'p1_tl'
I142
tp100
a(S'p1_ll'
I1
tp101
a(S'w'
I12
tp102
a(S'p2_tl'
I169
tp103
a(S'w'
I1
tp104
a(S'p2_ll'
I1
tp105
a(S'w'
I11
tp106
a(S'tr_tl'
I252
tp107
a(S'tr_ll'
I1
tp108
a(S'tr_th'
I1
tp109
a(S'w'
I11
tp110
a(S'no_ll'
I1
tp111
a(S'w'
I6579
tp112
a(S'tr_tl'
I197
tp113
a(S'w'
I1
tp114
a(S'tr_ll'
I1
tp115
a(S'w'
I10
tp116
a(S'w'
I1
tp117
a(S'no_ll'
I1
tp118
a(S'w'
I6578
tp119
a(S'ch_no'
I1
tp120
a(S'ch_tr'
I1
tp121
a(S'ch_p2'
I1
tp122
a(S'ch_p1'
I0
tp123
a(S'w'
I8
tp124
a(S'ch_no'
I1
tp125
a(S'ch_tr'
I1
tp126
a(S'ch_p2'
I0
tp127
a(S'ch_p1'
I0
tp128
a(S'w'
I11
tp129
a(S'tr_tl'
I171
tp130
a(S'w'
I1
tp131
a(S'tr_ll'
I1
tp132
a(S'w'
I13
tp133
a(S'no_np'
I10
tp134
a(S'no_ll'
I1
tp135
a(S'w'
I6588
tp136
a(S'tr_ll'
I1
tp137
a(S'w'
I6590
tp138
a(S'ch_no'
I1
tp139
a(S'ch_tr'
I1
tp140
a(S'ch_p2'
I0
tp141
a(S'ch_p1'
I1
tp142
a(S'w'
I2
tp143
a(S'p1_ll'
I1
tp144
a(S'w'
I11
tp145
a(S'ch_no'
I1
tp146
a(S'ch_tr'
I1
tp147
a(S'ch_p2'
I1
tp148
a(S'ch_p1'
I1
tp149
a(S'w'
I1
tp150
a(S'w'
I1
tp151
a(S'p2_ll'
I1
tp152
a(S'w'
I14
tp153
a(S'tr_ll'
I1
tp154
a(S'w'
I11
tp155
a(S'no_np'
I4
tp156
a(S'no_ll'
I1
tp157
a(S'w'
I6578
tp158
a(S'tr_ll'
I1
tp159
a(S'w'
I6592
tp160
a(S'p1_tl'
I190
tp161
a(S'p1_ll'
I1
tp162
a(S'w'
I12
tp163
a(S'p2_tl'
I226
tp164
a(S'w'
I1
tp165
a(S'p2_ll'
I1
tp166
a(S'w'
I14
tp167
a(S'tr_ll'
I1
tp168
a(S'w'
I11
tp169
a(S'no_np'
I10
tp170
a(S'no_ll'
I1
tp171
a(S'w'
I6579
tp172
a(S'tr_ll'
I1
tp173
a(S'w'
I6604
tp174
a(S'tr_ll'
I1
tp175
a(S'w'
I11
tp176
a(S'no_np'
I4
tp177
a(S'no_ll'
I1
tp178
a(S'w'
I6582
tp179
a(S'p1_tl'
I160
tp180
a(S'p1_ll'
I1
tp181
a(S'w'
I13
tp182
a(S'p2_tl'
I190
tp183
a(S'p2_ll'
I1
tp184
a(S'w'
I15
tp185
a(S'tr_ll'
I1
tp186
a(S'w'
I6587
tp187
a(S'tr_ll'
I1
tp188
a(S'w'
I11
tp189
a(S'no_np'
I10
tp190
a(S'no_ll'
I1
tp191
a(S'w'
I6581
tp192
a(S'p1_ll'
I1
tp193
a(S'w'
I13
tp194
a(S'p2_ll'
I1
tp195
a(S'w'
I15
tp196
a(S'tr_ll'
I1
tp197
a(S'w'
I6589
tp198
a(S'tr_ll'
I1
tp199
a(S'w'
I10
tp200
a(S'no_np'
I4
tp201
a(S'w'
I1
tp202
a(S'no_ll'
I1
tp203
a(S'w'
I6580
tp204
a(S'w'
I1
tp205
a(S'p1_ll'
I1
tp206
a(S'w'
I12
tp207
a(S'w'
I1
tp208
a(S'p2_ll'
I1
tp209
a(S'w'
I14
tp210
a(S'tr_ll'
I1
tp211
a(S'w'
I6577
tp212
a(S'p1_tl'
I213
tp213
a(S'p1_ll'
I1
tp214
a(S'w'
I12
tp215
a(S'p2_tl'
I254
tp216
a(S'p2_ll'
I1
tp217
a(S'w'
I14
tp218
a(S'tr_tl'
I128
tp219
a(S'tr_ll'
I1
tp220
a(S'tr_th'
I2
tp221
a(S'w'
I11
tp222
a(S'no_np'
I10
tp223
a(S'no_ll'
I1
tp224
a(S'w'
I6567
tp225
a(S'p1_ll'
I1
tp226
a(S'w'
I12
tp227
a(S'w'
I1
tp228
a(S'p2_ll'
I1
tp229
a(S'w'
I11
tp230
a(S'tr_ll'
I1
tp231
a(S'w'
I11
tp232
a(S'no_np'
I4
tp233
a(S'no_ll'
I1
tp234
a(S'w'
I6569
tp235
a(S'p1_tl'
I190
tp236
a(S'p1_ll'
I1
tp237
a(S'w'
I12
tp238
a(S'p2_tl'
I226
tp239
a(S'w'
I1
tp240
a(S'p2_ll'
I1
tp241
a(S'w'
I11
tp242
a(S'tr_tl'
I252
tp243
a(S'tr_ll'
I1
tp244
a(S'tr_th'
I1
tp245
a(S'w'
I11
tp246
a(S'no_ll'
I1
tp247
a(S'w'
I6580
tp248
a(S'tr_ll'
I1
tp249
a(S'w'
I11
tp250
a(S'no_ll'
I1
tp251
a(S'w'
I6581
tp252
a(S'ch_no'
I1
tp253
a(S'ch_tr'
I1
tp254
a(S'ch_p2'
I1
tp255
a(S'ch_p1'
I0
tp256
a(S'w'
I11
tp257
a(S'ch_no'
I1
tp258
a(S'ch_tr'
I1
tp259
a(S'ch_p2'
I0
tp260
a(S'ch_p1'
I0
tp261
a(S'w'
I11
tp262
a(S'tr_tl'
I171
tp263
a(S'w'
I1
tp264
a(S'tr_ll'
I1
tp265
a(S'w'
I13
tp266
a(S'no_np'
I10
tp267
a(S'no_ll'
I1
tp268
a(S'w'
I6582
tp269
a(S'tr_ll'
I1
tp270
a(S'w'
I6590
tp271
a(S'ch_no'
I1
tp272
a(S'ch_tr'
I1
tp273
a(S'ch_p2'
I0
tp274
a(S'ch_p1'
I1
tp275
a(S'w'
I2
tp276
a(S'p1_tl'
I142
tp277
a(S'p1_ll'
I1
tp278
a(S'w'
I11
tp279
a(S'ch_no'
I1
tp280
a(S'ch_tr'
I1
tp281
a(S'ch_p2'
I1
tp282
a(S'ch_p1'
I1
tp283
a(S'w'
I2
tp284
a(S'p2_tl'
I169
tp285
a(S'p2_ll'
I1
tp286
a(S'w'
I15
tp287
a(S'tr_ll'
I1
tp288
a(S'w'
I10
tp289
a(S'no_np'
I4
tp290
a(S'w'
I1
tp291
a(S'no_ll'
I1
tp292
a(S'w'
I6578
tp293
a(S'tr_ll'
I1
tp294
a(S'w'
I6591
tp295
a(S'p1_tl'
I190
tp296
a(S'w'
I1
tp297
a(S'p1_ll'
I1
tp298
a(S'w'
I12
tp299
a(S'p2_tl'
I226
tp300
a(S'p2_ll'
I1
tp301
a(S'w'
I15
tp302
a(S'tr_ll'
I1
tp303
a(S'w'
I10
tp304
a(S'no_np'
I10
tp305
a(S'w'
I1
tp306
a(S'no_ll'
I1
tp307
a(S'w'
I6578
tp308
a(S'tr_ll'
I1
tp309
a(S'w'
I6604
tp310
a(S'tr_ll'
I1
tp311
a(S'w'
I11
tp312
a(S'no_np'
I4
tp313
a(S'no_ll'
I1
tp314
a(S'w'
I6582
tp315
a(S'p1_tl'
I160
tp316
a(S'w'
I1
tp317
a(S'p1_ll'
I1
tp318
a(S'w'
I12
tp319
a(S'p2_tl'
I190
tp320
a(S'p2_ll'
I1
tp321
a(S'w'
I15
tp322
a(S'tr_ll'
I1
tp323
a(S'w'
I6588
tp324
a(S'tr_ll'
I1
tp325
a(S'w'
I10
tp326
a(S'no_np'
I10
tp327
a(S'w'
I1
tp328
a(S'no_ll'
I1
tp329
a(S'w'
I6581
tp330
a(S'p1_ll'
I1
tp331
a(S'w'
I12
tp332
a(S'w'
I1
tp333
a(S'p2_ll'
I1
tp334
a(S'w'
I14
tp335
a(S'tr_ll'
I1
tp336
a(S'w'
I6589
tp337
a(S'tr_ll'
I1
tp338
a(S'w'
I11
tp339
a(S'no_np'
I4
tp340
a(S'no_ll'
I1
tp341
a(S'w'
I6581
tp342
a(S'p1_ll'
I1
tp343
a(S'w'
I13
tp344
a(S'p2_ll'
I1
tp345
a(S'w'
I15
tp346
a(S'tr_ll'
I1
tp347
a(S'w'
I6576
tp348
a(S'p1_tl'
I127
tp349
a(S'p1_ll'
I1
tp350
a(S'w'
I13
tp351
a(S'p2_tl'
I160
tp352
a(S'p2_ll'
I1
tp353
a(S'w'
I15
tp354
a(S'tr_ll'
I1
tp355
a(S'w'
I10
tp356
a(S'no_np'
I10
tp357
a(S'w'
I1
tp358
a(S'no_ll'
I1
tp359
a(S'w'
I6565
tp360
a(S'w'
I1
tp361
a(S'p1_ll'
I1
tp362
a(S'w'
I12
tp363
a(S'p2_ll'
I1
tp364
a(S'w'
I14
tp365
a(S'tr_tl'
I128
tp366
a(S'tr_ll'
I1
tp367
a(S'tr_th'
I2
tp368
a(S'w'
I11
tp369
a(S'no_np'
I4
tp370
a(S'no_ll'
I1
tp371
a(S'w'
I6567
tp372
a(S'p1_tl'
I142
tp373
a(S'p1_ll'
I1
tp374
a(S'w'
I12
tp375
a(S'p2_tl'
I169
tp376
a(S'w'
I1
tp377
a(S'p2_ll'
I1
tp378
a(S'w'
I11
tp379
a(S'tr_tl'
I252
tp380
a(S'tr_ll'
I1
tp381
a(S'tr_th'
I1
tp382
a(S'w'
I11
tp383
a(S'no_ll'
I1
tp384
a(S'w'
I6579
tp385
a(S'tr_tl'
I197
tp386
a(S'tr_ll'
I1
tp387
a(S'w'
I11
tp388
a(S'no_ll'
I1
tp389
a(S'w'
I6579
tp390
a(S'ch_no'
I1
tp391
a(S'ch_tr'
I1
tp392
a(S'ch_p2'
I1
tp393
a(S'ch_p1'
I0
tp394
a(S'w'
I8
tp395
a(S'ch_no'
I1
tp396
a(S'ch_tr'
I1
tp397
a(S'ch_p2'
I0
tp398
a(S'ch_p1'
I0
tp399
a(S'w'
I11
tp400
a(S'tr_tl'
I171
tp401
a(S'w'
I1
tp402
a(S'tr_ll'
I1
tp403
a(S'w'
I13
tp404
a(S'no_np'
I10
tp405
a(S'no_ll'
I1
tp406
a(S'w'
I6588
tp407
a(S'tr_ll'
I1
tp408
a(S'w'
I6590
tp409
a(S'ch_no'
I1
tp410
a(S'ch_tr'
I1
tp411
a(S'ch_p2'
I0
tp412
a(S'ch_p1'
I1
tp413
a(S'w'
I1
tp414
a(S'w'
I1
tp415
a(S'p1_ll'
I1
tp416
a(S'w'
I10
tp417
a(S'ch_no'
I1
tp418
a(S'ch_tr'
I1
tp419
a(S'ch_p2'
I1
tp420
a(S'ch_p1'
I1
tp421
a(S'w'
I2
tp422
a(S'p2_ll'
I1
tp423
a(S'w'
I15
tp424
a(S'tr_ll'
I1
tp425
a(S'w'
I11
tp426
a(S'no_np'
I4
tp427
a(S'no_ll'
I1
tp428
a(S'w'
I6578
tp429
a(S'tr_ll'
I1
tp430
a(S'w'
I6592
tp431
a(S'p1_tl'
I190
tp432
a(S'p1_ll'
I1
tp433
a(S'w'
I12
tp434
a(S'p2_tl'
I226
tp435
a(S'p2_ll'
I1
tp436
a(S'w'
I15
tp437
a(S'tr_ll'
I1
tp438
a(S'w'
I11
tp439
a(S'no_np'
I10
tp440
a(S'no_ll'
I1
tp441
a(S'w'
I6578
tp442
a(S'tr_ll'
I1
tp443
a(S'w'
I6605
tp444
a(S'tr_ll'
I1
tp445
a(S'w'
I10
tp446
a(S'no_np'
I4
tp447
a(S'w'
I1
tp448
a(S'no_ll'
I1
tp449
a(S'w'
I6582
tp450
a(S'p1_tl'
I160
tp451
a(S'p1_ll'
I1
tp452
a(S'w'
I13
tp453
a(S'p2_tl'
I190
tp454
a(S'p2_ll'
I1
tp455
a(S'w'
I14
tp456
a(S'tr_ll'
I1
tp457
a(S'w'
I6588
tp458
a(S'tr_ll'
I1
tp459
a(S'w'
I11
tp460
a(S'no_np'
I10
tp461
a(S'no_ll'
I1
tp462
a(S'w'
I6581
tp463
a(S'p1_ll'
I1
tp464
a(S'w'
I13
tp465
a(S'p2_ll'
I1
tp466
a(S'w'
I14
tp467
a(S'tr_tl'
I64
tp468
a(S'tr_ll'
I1
tp469
a(S'w'
I6587
tp470
a(S'tr_tl'
I29
tp471
a(S'tr_ll'
I1
tp472
a(S'w'
I11
tp473
a(S'no_np'
I4
tp474
a(S'no_ll'
I1
tp475
a(S'w'
I6583
tp476
a(S'w'
I1
tp477
a(S'p1_ll'
I1
tp478
a(S'w'
I12
tp479
a(S'p2_ll'
I1
tp480
a(S'w'
I12
tp481
a(S'tr_tl'
I58
tp482
a(S'tr_ll'
I1
tp483
a(S'tr_th'
I2
tp484
a(S'w'
I6580
tp485
a(S'p1_tl'
I213
tp486
a(S'p1_ll'
I1
tp487
a(S'w'
I12
tp488
a(S'p2_tl'
I254
tp489
a(S'p2_ll'
I1
tp490
a(S'w'
I12
tp491
a(S'tr_ll'
I1
tp492
a(S'w'
I10
tp493
a(S'no_np'
I10
tp494
a(S'w'
I1
tp495
a(S'no_ll'
I1
tp496
a(S'w'
I6569
tp497
a(S'p1_ll'
I1
tp498
a(S'w'
I12
tp499
a(S'p2_ll'
I1
tp500
a(S'w'
I12
tp501
a(S'tr_tl'
I252
tp502
a(S'tr_ll'
I1
tp503
a(S'tr_th'
I1
tp504
a(S'w'
I11
tp505
a(S'no_np'
I4
tp506
a(S'no_ll'
I1
tp507
a(S'w'
I6569
tp508
a(S'p1_tl'
I190
tp509
a(S'p1_ll'
I1
tp510
a(S'w'
I12
tp511
a(S'p2_tl'
I226
tp512
a(S'w'
I1
tp513
a(S'p2_ll'
I1
tp514
a(S'w'
I11
tp515
a(S'tr_tl'
I197
tp516
a(S'tr_ll'
I1
tp517
a(S'w'
I11
tp518
a(S'no_ll'
I1
tp519
a(S'w'
I6580
tp520
a(S'tr_tl'
I171
tp521
a(S'tr_ll'
I1
tp522
a(S'w'
I11
tp523
a(S'no_ll'
I1
tp524
a(S'w'
I6585
tp525
a(S'p1_tl'
I120
tp526
a(S'p1_ll'
I1
tp527
a(S'w'
I15
tp528
a(S'p2_tl'
I142
tp529
a(S'p2_ll'
I1
tp530
a(S'w'
I12
tp531
a(S'tr_tl'
I103
tp532
a(S'tr_ll'
I1
tp533
a(S'w'
I13
tp534
a(S'no_ll'
I1
tp535
a(S'w'
I6571
tp536
a(S'tr_tl'
I171
tp537
a(S'tr_ll'
I1
tp538
a(S'w'
I6604
tp539
a(S'tr_tl'
I58
tp540
a(S'tr_ll'
I1
tp541
a(S'tr_th'
I2
tp542
a(S'w'
I6595
tp543
a(S'p1_tl'
I106
tp544
a(S'w'
I1
tp545
a(S'p1_ll'
I1
tp546
a(S'w'
I12
tp547
a(S'p2_tl'
I127
tp548
a(S'w'
I1
tp549
a(S'p2_ll'
I1
tp550
a(S'w'
I11
tp551
a(S'tr_tl'
I64
tp552
a(S'tr_ll'
I1
tp553
a(S'tr_th'
I1
tp554
a(S'w'
I11
tp555
a(S'no_ll'
I1
tp556
a(S'w'
I6578
tp557
a(S'tr_tl'
I125
tp558
a(S'tr_ll'
I1
tp559
a(S'w'
I6595
tp560
a(S'p1_ll'
I1
tp561
a(S'w'
I13
tp562
a(S'p2_ll'
I1
tp563
a(S'w'
I11
tp564
a(S'tr_tl'
I26
tp565
a(S'tr_ll'
I1
tp566
a(S'tr_th'
I2
tp567
a(S'w'
I6580
tp568
a(S'p1_tl'
I95
tp569
a(S'p1_ll'
I1
tp570
a(S'w'
I13
tp571
a(S'p2_tl'
I113
tp572
a(S'p2_ll'
I1
tp573
a(S'w'
I12
tp574
a(S'tr_tl'
I29
tp575
a(S'tr_ll'
I1
tp576
a(S'tr_th'
I1
tp577
a(S'w'
I11
tp578
a(S'no_ll'
I1
tp579
a(S'w'
I6582
tp580
a(S'tr_ll'
I1
tp581
a(S'w'
I6586
tp582
a(S'ch_no'
I1
tp583
a(S'ch_tr'
I1
tp584
a(S'ch_p2'
I1
tp585
a(S'ch_p1'
I0
tp586
a(S'w'
I8
tp587
a(S'ch_no'
I1
tp588
a(S'ch_tr'
I1
tp589
a(S'ch_p2'
I0
tp590
a(S'ch_p1'
I0
tp591
a(S'w'
I14
tp592
a(S'tr_ll'
I1
tp593
a(S'w'
I11
tp594
a(S'no_np'
I10
tp595
a(S'no_ll'
I1
tp596
a(S'w'
I6574
tp597
a(S'ch_no'
I1
tp598
a(S'ch_tr'
I1
tp599
a(S'ch_p2'
I0
tp600
a(S'ch_p1'
I1
tp601
a(S'w'
I2
tp602
a(S'p1_tl'
I63
tp603
a(S'p1_ll'
I1
tp604
a(S'w'
I11
tp605
a(S'ch_no'
I1
tp606
a(S'ch_tr'
I1
tp607
a(S'ch_p2'
I1
tp608
a(S'ch_p1'
I1
tp609
a(S'w'
I2
tp610
a(S'p2_tl'
I80
tp611
a(S'p2_ll'
I1
tp612
a(S'w'
I15
tp613
a(S'tr_ll'
I1
tp614
a(S'w'
I6588
tp615
a(S'tr_ll'
I1
tp616
a(S'w'
I11
tp617
a(S'no_np'
I4
tp618
a(S'no_ll'
I1
tp619
a(S'w'
I6581
tp620
a(S'p1_ll'
I1
tp621
a(S'w'
I13
tp622
a(S'w'
I1
tp623
a(S'p2_ll'
I1
tp624
a(S'w'
I14
tp625
a(S'tr_ll'
I1
tp626
a(S'w'
I6576
tp627
a(S'w'
I1
tp628
a(S'p1_ll'
I1
tp629
a(S'w'
I12
tp630
a(S'w'
I1
tp631
a(S'p2_ll'
I1
tp632
a(S'w'
I14
tp633
a(S'tr_ll'
I1
tp634
a(S'w'
I11
tp635
a(S'no_np'
I10
tp636
a(S'no_ll'
I1
tp637
a(S'w'
I6566
tp638
a(S'p1_ll'
I1
tp639
a(S'w'
I13
tp640
a(S'p2_ll'
I1
tp641
a(S'w'
I15
tp642
a(S'tr_ll'
I1
tp643
a(S'w'
I6576
tp644
a(S'p1_tl'
I71
tp645
a(S'p1_ll'
I1
tp646
a(S'w'
I13
tp647
a(S'p2_tl'
I84
tp648
a(S'p2_ll'
I1
tp649
a(S'w'
I14
tp650
a(S'tr_tl'
I64
tp651
a(S'w'
I1
tp652
a(S'tr_ll'
I1
tp653
a(S'w'
I10
tp654
a(S'no_np'
I4
tp655
a(S'w'
I1
tp656
a(S'no_ll'
I1
tp657
a(S'w'
I6575
tp658
a(S'tr_tl'
I125
tp659
a(S'w'
I1
tp660
a(S'tr_ll'
I1
tp661
a(S'w'
I6593
tp662
a(S'p1_tl'
I120
tp663
a(S'p1_ll'
I1
tp664
a(S'w'
I13
tp665
a(S'p2_tl'
I142
tp666
a(S'p2_ll'
I1
tp667
a(S'w'
I11
tp668
a(S'tr_tl'
I103
tp669
a(S'w'
I1
tp670
a(S'tr_ll'
I1
tp671
a(S'w'
I10
tp672
a(S'w'
I1
tp673
a(S'no_ll'
I1
tp674
a(S'w'
I6578
tp675
a(S'tr_tl'
I29
tp676
a(S'tr_ll'
I1
tp677
a(S'w'
I6604
tp678
a(S'tr_tl'
I240
tp679
a(S'tr_ll'
I1
tp680
a(S'tr_th'
I0
tp681
a(S'w'
I6595
tp682
a(S'p1_tl'
I106
tp683
a(S'p1_ll'
I1
tp684
a(S'w'
I13
tp685
a(S'p2_tl'
I127
tp686
a(S'p2_ll'
I1
tp687
a(S'w'
I12
tp688
a(S'tr_tl'
I64
tp689
a(S'tr_ll'
I1
tp690
a(S'tr_th'
I1
tp691
a(S'w'
I11
tp692
a(S'no_ll'
I1
tp693
a(S'w'
I6577
tp694
a(S'tr_tl'
I254
tp695
a(S'tr_ll'
I1
tp696
a(S'tr_th'
I0
tp697
a(S'w'
I6595
tp698
a(S'w'
I1
tp699
a(S'p1_ll'
I1
tp700
a(S'w'
I12
tp701
a(S'p2_ll'
I1
tp702
a(S'w'
I12
tp703
a(S'tr_tl'
I213
tp704
a(S'w'
I1
tp705
a(S'tr_ll'
I1
tp706
a(S'w'
I6578
tp707
a(S'p1_tl'
I142
tp708
a(S'p1_ll'
I1
tp709
a(S'w'
I13
tp710
a(S'p2_tl'
I169
tp711
a(S'p2_ll'
I1
tp712
a(S'w'
I12
tp713
a(S'tr_tl'
I29
tp714
a(S'tr_ll'
I1
tp715
a(S'tr_th'
I1
tp716
a(S'w'
I11
tp717
a(S'no_ll'
I1
tp718
a(S'w'
I6582
tp719
a(S'tr_ll'
I1
tp720
a(S'w'
I6586
tp721
a(S'ch_no'
I1
tp722
a(S'ch_tr'
I1
tp723
a(S'ch_p2'
I1
tp724
a(S'ch_p1'
I0
tp725
a(S'w'
I8
tp726
a(S'ch_no'
I1
tp727
a(S'ch_tr'
I1
tp728
a(S'ch_p2'
I0
tp729
a(S'ch_p1'
I0
tp730
a(S'w'
I15
tp731
a(S'tr_ll'
I1
tp732
a(S'w'
I8
tp733
a(S'ch_no'
I0
tp734
a(S'ch_tr'
I1
tp735
a(S'ch_p2'
I0
tp736
a(S'ch_p1'
I0
tp737
a(S'w'
I6576
tp738
a(S'ch_no'
I0
tp739
a(S'ch_tr'
I1
tp740
a(S'ch_p2'
I0
tp741
a(S'ch_p1'
I1
tp742
a(S'w'
I2
tp743
a(S'p1_tl'
I160
tp744
a(S'p1_ll'
I1
tp745
a(S'w'
I11
tp746
a(S'ch_no'
I0
tp747
a(S'ch_tr'
I1
tp748
a(S'ch_p2'
I1
tp749
a(S'ch_p1'
I1
tp750
a(S'w'
I2
tp751
a(S'p2_tl'
I190
tp752
a(S'p2_ll'
I1
tp753
a(S'w'
I14
tp754
a(S'tr_ll'
I1
tp755
a(S'w'
I9
tp756
a(S'ch_no'
I1
tp757
a(S'ch_tr'
I1
tp758
a(S'ch_p2'
I1
tp759
a(S'ch_p1'
I1
tp760
a(S'w'
I2
tp761
a(S'no_ll'
I1
tp762
a(S'w'
I6566
tp763
a(S'p1_ll'
I1
tp764
a(S'w'
I13
tp765
a(S'p2_ll'
I1
tp766
a(S'w'
I15
tp767
a(S'tr_ll'
I1
tp768
a(S'w'
I10
tp769
a(S'w'
I1
tp770
a(S'no_ll'
I1
tp771
a(S'w'
I6565
tp772
a(S'p1_ll'
I1
tp773
a(S'w'
I13
tp774
a(S'p2_ll'
I1
tp775
a(S'w'
I15
tp776
a(S'tr_ll'
I1
tp777
a(S'w'
I10
tp778
a(S'w'
I1
tp779
a(S'no_ll'
I1
tp780
a(S'w'
I6565
tp781
a(S'w'
I1
tp782
a(S'p1_ll'
I1
tp783
a(S'w'
I12
tp784
a(S'p2_ll'
I1
tp785
a(S'w'
I14
tp786
a(S'tr_tl'
I83
tp787
a(S'w'
I1
tp788
a(S'tr_ll'
I1
tp789
a(S'w'
I10
tp790
a(S'w'
I1
tp791
a(S'no_ll'
I1
tp792
a(S'w'
I13170
tp793
a(S'p1_tl'
I142
tp794
a(S'p1_ll'
I1
tp795
a(S'w'
I12
tp796
a(S'p2_tl'
I169
tp797
a(S'w'
I1
tp798
a(S'p2_ll'
I1
tp799
a(S'w'
I11
tp800
a(S'tr_tl'
I171
tp801
a(S'w'
I1
tp802
a(S'tr_ll'
I1
tp803
a(S'w'
I10
tp804
a(S'w'
I1
tp805
a(S'no_ll'
I1
tp806
a(S'w'
I13167
tp807
a(S'ch_no'
I1
tp808
a(S'ch_tr'
I1
tp809
a(S'ch_p2'
I1
tp810
a(S'ch_p1'
I0
tp811
a(S'w'
I6
tp812
a(S'ch_no'
I1
tp813
a(S'ch_tr'
I1
tp814
a(S'ch_p2'
I0
tp815
a(S'ch_p1'
I0
tp816
a(S'w'
I7
tp817
a(S'ch_no'
I1
tp818
a(S'ch_tr'
I0
tp819
a(S'ch_p2'
I0
tp820
a(S'ch_p1'
I0
tp821
a.