(lp1
(S'clock'
p2
I1789773
tp3
a(S'fc_mo'
I1
tp4
a(S'p2_lh'
I1
tp5
a(S'p2_cv'
I1
tp6
a(S'p2_sp'
I7
tp7
a(S'p2_sn'
I1
tp8
a(S'p2_ss'
I7
tp9
a(S'w'
I19
tp10
a(S'p2_du'
I3
tp11
a(S'w'
I5
tp12
a(S'p2_ll'
I1
tp13
a(S'p2_th'
I2
tp14
a(S'w'
I2
tp15
a(S'p2_tl'
I167
tp16
a(S'w'
I716
tp17
a(S'p2_vo'
I3
tp18
a(S'w'
I734
tp19
a(S'p2_vo'
I6
tp20
a(S'w'
I735
tp21
a(S'p2_vo'
I8
tp22
a(S'w'
I733
tp23
a(S'p2_vo'
I7
tp24
a(S'w'
I733
tp25
a(S'p2_vo'
I6
tp26
a(S'w'
I734
tp27
a(S'p2_vo'
I5
tp28
a(S'w'
I734
tp29
a(S'p2_vo'
I4
tp30
a(S'w'
I735
tp31
a(S'p2_vo'
I3
tp32
a(S'w'
I5873
tp33
a(S'p2_vo'
I0
tp34
a(S'w'
I6
tp35
a(S'w'
I724
tp36
a(S'p2_vo'
I3
tp37
a(S'w'
I734
tp38
a(S'p2_vo'
I6
tp39
a(S'w'
I735
tp40
a(S'p2_vo'
I8
tp41
a(S'w'
I732
tp42
a(S'p2_vo'
I7
tp43
a(S'w'
I734
tp44
a(S'p2_vo'
I6
tp45
a(S'w'
I734
tp46
a(S'p2_vo'
I5
tp47
a(S'w'
I734
tp48
a(S'p2_vo'
I4
tp49
a(S'w'
I743
tp50
a(S'p2_vo'
I0
tp51
a(S'w'
I5
tp52
a(S'p2_tl'
I27
tp53
a(S'w'
I13
tp54
a(S'no_lh'
I1
tp55
a(S'no_cv'
I1
tp56
a(S'w'
I1
tp57
a(S'w'
I6
tp58
a(S'tr_lr'
I24
tp59
a(S'w'
I4
tp60
a(S'tr_ll'
I1
tp61
a(S'tr_th'
I1
tp62
a(S'w'
I2
tp63
a(S'tr_tl'
I147
tp64
a(S'w'
I8
tp65
a(S'no_vo'
I7
tp66
a(S'w'
I2
tp67
a(S'no_ll'
I1
tp68
a(S'w'
I2
tp69
a(S'no_np'
I5
tp70
a(S'w'
I681
tp71
a(S'p2_vo'
I3
tp72
a(S'w'
I8
tp73
a(S'no_vo'
I8
tp74
a(S'w'
I3
tp75
a(S'no_ll'
I1
tp76
a(S'w'
I2
tp77
a(S'no_np'
I6
tp78
a(S'w'
I721
tp79
a(S'p2_vo'
I6
tp80
a(S'w'
I8
tp81
a(S'no_vo'
I6
tp82
a(S'w'
I3
tp83
a(S'no_ll'
I1
tp84
a(S'w'
I2
tp85
a(S'w'
I722
tp86
a(S'p2_vo'
I8
tp87
a(S'w'
I8
tp88
a(S'no_vo'
I5
tp89
a(S'w'
I3
tp90
a(S'no_ll'
I1
tp91
a(S'w'
I2
tp92
a(S'w'
I720
tp93
a(S'p2_vo'
I7
tp94
a(S'w'
I9
tp95
a(S'no_vo'
I3
tp96
a(S'w'
I2
tp97
a(S'no_ll'
I1
tp98
a(S'w'
I2
tp99
a(S'w'
I720
tp100
a(S'p2_vo'
I6
tp101
a(S'w'
I9
tp102
a(S'no_vo'
I2
tp103
a(S'w'
I2
tp104
a(S'no_ll'
I1
tp105
a(S'w'
I2
tp106
a(S'no_np'
I5
tp107
a(S'w'
I721
tp108
a(S'p2_vo'
I5
tp109
a(S'w'
I9
tp110
a(S'no_vo'
I1
tp111
a(S'w'
I2
tp112
a(S'no_ll'
I1
tp113
a(S'w'
I2
tp114
a(S'w'
I721
tp115
a(S'p2_vo'
I4
tp116
a(S'w'
I8
tp117
a(S'no_vo'
I0
tp118
a(S'w'
I727
tp119
a(S'p2_vo'
I3
tp120
a(S'w'
I11758
tp121
a(S'tr_ll'
I1
tp122
a(S'w'
I10
tp123
a(S'no_vo'
I15
tp124
a(S'w'
I2
tp125
a(S'no_ll'
I1
tp126
a(S'w'
I2
tp127
a(S'no_np'
I2
tp128
a(S'w'
I706
tp129
a(S'no_vo'
I0
tp130
a(S'w'
I3664
tp131
a(S'p2_vo'
I2
tp132
a(S'w'
I734
tp133
a(S'p2_vo'
I1
tp134
a(S'w'
I738
tp135
a(S'p2_vo'
I0
tp136
a(S'w'
I6
tp137
a(S'w'
I21
tp138
a(S'tr_ll'
I1
tp139
a(S'w'
I9
tp140
a(S'no_vo'
I15
tp141
a(S'w'
I3
tp142
a(S'no_ll'
I1
tp143
a(S'w'
I2
tp144
a(S'w'
I689
tp145
a(S'p2_vo'
I3
tp146
a(S'w'
I8
tp147
a(S'no_vo'
I0
tp148
a(S'w'
I725
tp149
a(S'p2_vo'
I6
tp150
a(S'w'
I735
tp151
a(S'p2_vo'
I8
tp152
a(S'w'
I733
tp153
a(S'p2_vo'
I7
tp154
a(S'w'
I734
tp155
a(S'p2_vo'
I6
tp156
a(S'w'
I734
tp157
a(S'p2_vo'
I5
tp158
a(S'w'
I733
tp159
a(S'p2_vo'
I4
tp160
a(S'w'
I738
tp161
a(S'p2_vo'
I0
tp162
a(S'w'
I6
tp163
a(S'w'
I21
tp164
a(S'tr_ll'
I1
tp165
a(S'w'
I9
tp166
a(S'no_vo'
I15
tp167
a(S'w'
I3
tp168
a(S'no_ll'
I1
tp169
a(S'w'
I2
tp170
a(S'w'
I689
tp171
a(S'p2_vo'
I3
tp172
a(S'w'
I8
tp173
a(S'no_vo'
I0
tp174
a(S'w'
I726
tp175
a(S'p2_vo'
I6
tp176
a(S'w'
I735
tp177
a(S'p2_vo'
I8
tp178
a(S'w'
I732
tp179
a(S'p2_vo'
I7
tp180
a(S'w'
I734
tp181
a(S'p2_vo'
I6
tp182
a(S'w'
I734
tp183
a(S'p2_vo'
I5
tp184
a(S'w'
I734
tp185
a(S'p2_vo'
I4
tp186
a(S'w'
I741
tp187
a(S'p2_vo'
I0
tp188
a(S'w'
I6
tp189
a(S'w'
I24
tp190
a(S'tr_ll'
I1
tp191
a(S'w'
I9
tp192
a(S'no_vo'
I15
tp193
a(S'w'
I3
tp194
a(S'no_ll'
I1
tp195
a(S'w'
I2
tp196
a(S'w'
I682
tp197
a(S'p2_vo'
I3
tp198
a(S'w'
I8
tp199
a(S'no_vo'
I0
tp200
a(S'w'
I726
tp201
a(S'p2_vo'
I6
tp202
a(S'w'
I735
tp203
a(S'p2_vo'
I8
tp204
a(S'w'
I733
tp205
a(S'p2_vo'
I7
tp206
a(S'w'
I733
tp207
a(S'p2_vo'
I6
tp208
a(S'w'
I734
tp209
a(S'p2_vo'
I5
tp210
a(S'w'
I734
tp211
a(S'p2_vo'
I4
tp212
a(S'w'
I735
tp213
a(S'p2_vo'
I3
tp214
a(S'w'
I11006
tp215
a(S'p2_vo'
I2
tp216
a(S'w'
I738
tp217
a(S'p2_vo'
I0
tp218
a(S'w'
I6
tp219
a(S'w'
I13
tp220
a(S'tr_ll'
I1
tp221
a(S'w'
I710
tp222
a(S'p2_vo'
I3
tp223
a(S'w'
I734
tp224
a(S'p2_vo'
I6
tp225
a(S'w'
I735
tp226
a(S'p2_vo'
I8
tp227
a(S'w'
I733
tp228
a(S'p2_vo'
I7
tp229
a(S'w'
I733
tp230
a(S'p2_vo'
I6
tp231
a(S'w'
I734
tp232
a(S'p2_vo'
I5
tp233
a(S'w'
I734
tp234
a(S'p2_vo'
I4
tp235
a(S'w'
I738
tp236
a(S'p2_vo'
I0
tp237
a(S'w'
I6
tp238
a(S'w'
I724
tp239
a(S'p2_vo'
I3
tp240
a(S'w'
I733
tp241
a(S'p2_vo'
I6
tp242
a(S'w'
I735
tp243
a(S'p2_vo'
I8
tp244
a(S'w'
I733
tp245
a(S'p2_vo'
I7
tp246
a(S'w'
I734
tp247
a(S'p2_vo'
I6
tp248
a(S'w'
I734
tp249
a(S'p2_vo'
I5
tp250
a(S'w'
I733
tp251
a(S'p2_vo'
I4
tp252
a(S'w'
I738
tp253
a(S'p2_vo'
I0
tp254
a(S'w'
I6
tp255
a(S'w'
I724
tp256
a(S'p2_vo'
I3
tp257
a(S'w'
I734
tp258
a(S'p2_vo'
I6
tp259
a(S'w'
I735
tp260
a(S'p2_vo'
I8
tp261
a(S'w'
I732
tp262
a(S'p2_vo'
I7
tp263
a(S'w'
I734
tp264
a(S'p2_vo'
I6
tp265
a(S'w'
I734
tp266
a(S'p2_vo'
I5
tp267
a(S'w'
I734
tp268
a(S'p2_vo'
I4
tp269
a(S'w'
I744
tp270
a(S'p2_vo'
I0
tp271
a(S'w'
I5
tp272
a(S'p2_ll'
I1
tp273
a(S'p2_th'
I1
tp274
a(S'w'
I2
tp275
a(S'p2_tl'
I197
tp276
a(S'w'
I26
tp277
a(S'tr_ll'
I1
tp278
a(S'tr_th'
I2
tp279
a(S'w'
I2
tp280
a(S'tr_tl'
I27
tp281
a(S'w'
I7
tp282
a(S'no_vo'
I7
tp283
a(S'w'
I2
tp284
a(S'no_ll'
I1
tp285
a(S'w'
I2
tp286
a(S'no_np'
I5
tp287
a(S'w'
I677
tp288
a(S'p2_vo'
I3
tp289
a(S'w'
I8
tp290
a(S'no_vo'
I8
tp291
a(S'w'
I3
tp292
a(S'no_ll'
I1
tp293
a(S'w'
I2
tp294
a(S'no_np'
I6
tp295
a(S'w'
I721
tp296
a(S'p2_vo'
I6
tp297
a(S'w'
I8
tp298
a(S'no_vo'
I6
tp299
a(S'w'
I3
tp300
a(S'no_ll'
I1
tp301
a(S'w'
I2
tp302
a(S'w'
I722
tp303
a(S'p2_vo'
I8
tp304
a(S'w'
I8
tp305
a(S'no_vo'
I5
tp306
a(S'w'
I3
tp307
a(S'no_ll'
I1
tp308
a(S'w'
I2
tp309
a(S'w'
I720
tp310
a(S'p2_vo'
I7
tp311
a(S'w'
I9
tp312
a(S'no_vo'
I3
tp313
a(S'w'
I2
tp314
a(S'no_ll'
I1
tp315
a(S'w'
I2
tp316
a(S'w'
I720
tp317
a(S'p2_vo'
I6
tp318
a(S'w'
I9
tp319
a(S'no_vo'
I2
tp320
a(S'w'
I2
tp321
a(S'no_ll'
I1
tp322
a(S'w'
I2
tp323
a(S'no_np'
I5
tp324
a(S'w'
I721
tp325
a(S'p2_vo'
I5
tp326
a(S'w'
I9
tp327
a(S'no_vo'
I1
tp328
a(S'w'
I2
tp329
a(S'no_ll'
I1
tp330
a(S'w'
I2
tp331
a(S'w'
I721
tp332
a(S'p2_vo'
I4
tp333
a(S'w'
I8
tp334
a(S'no_vo'
I0
tp335
a(S'w'
I727
tp336
a(S'p2_vo'
I3
tp337
a(S'w'
I11758
tp338
a(S'tr_ll'
I1
tp339
a(S'w'
I9
tp340
a(S'no_vo'
I15
tp341
a(S'w'
I2
tp342
a(S'no_ll'
I1
tp343
a(S'w'
I2
tp344
a(S'no_np'
I2
tp345
a(S'w'
I707
tp346
a(S'no_vo'
I0
tp347
a(S'w'
I5150
tp348
a(S'tr_ll'
I1
tp349
a(S'w'
I9
tp350
a(S'no_vo'
I15
tp351
a(S'w'
I2
tp352
a(S'no_ll'
I1
tp353
a(S'w'
I2
tp354
a(S'w'
I708
tp355
a(S'no_vo'
I0
tp356
a(S'w'
I2930
tp357
a(S'p2_vo'
I2
tp358
a(S'w'
I734
tp359
a(S'p2_vo'
I1
tp360
a(S'w'
I733
tp361
a(S'p2_vo'
I0
tp362
a(S'w'
I747
tp363
a(S'p2_ll'
I1
tp364
a(S'p2_th'
I2
tp365
a(S'w'
I2
tp366
a(S'p2_tl'
I207
tp367
a(S'w'
I21
tp368
a(S'tr_ll'
I1
tp369
a(S'w'
I9
tp370
a(S'no_vo'
I15
tp371
a(S'w'
I2
tp372
a(S'no_ll'
I1
tp373
a(S'w'
I2
tp374
a(S'w'
I685
tp375
a(S'p2_vo'
I3
tp376
a(S'w'
I8
tp377
a(S'no_vo'
I0
tp378
a(S'w'
I726
tp379
a(S'p2_vo'
I6
tp380
a(S'w'
I735
tp381
a(S'p2_vo'
I8
tp382
a(S'w'
I732
tp383
a(S'p2_vo'
I7
tp384
a(S'w'
I734
tp385
a(S'p2_vo'
I6
tp386
a(S'w'
I734
tp387
a(S'p2_vo'
I5
tp388
a(S'w'
I734
tp389
a(S'p2_vo'
I4
tp390
a(S'w'
I743
tp391
a(S'p2_vo'
I0
tp392
a(S'w'
I6
tp393
a(S'w'
I23
tp394
a(S'tr_ll'
I1
tp395
a(S'w'
I10
tp396
a(S'no_vo'
I15
tp397
a(S'w'
I2
tp398
a(S'no_ll'
I1
tp399
a(S'w'
I2
tp400
a(S'w'
I681
tp401
a(S'p2_vo'
I3
tp402
a(S'w'
I8
tp403
a(S'no_vo'
I0
tp404
a(S'w'
I726
tp405
a(S'p2_vo'
I6
tp406
a(S'w'
I735
tp407
a(S'p2_vo'
I8
tp408
a(S'w'
I733
tp409
a(S'p2_vo'
I7
tp410
a(S'w'
I733
tp411
a(S'p2_vo'
I6
tp412
a(S'w'
I734
tp413
a(S'p2_vo'
I5
tp414
a(S'w'
I734
tp415
a(S'p2_vo'
I4
tp416
a(S'w'
I735
tp417
a(S'p2_vo'
I3
tp418
a(S'w'
I11750
tp419
a(S'tr_ll'
I1
tp420
a(S'w'
I14665
tp421
a(S'p2_vo'
I2
tp422
a(S'w'
I734
tp423
a(S'p2_vo'
I1
tp424
a(S'w'
I734
tp425
a(S'p2_vo'
I0
tp426
a(S'w'
I1484
tp427
a(S'p2_tl'
I167
tp428
a(S'w'
I24
tp429
a(S'tr_ll'
I1
tp430
a(S'tr_th'
I1
tp431
a(S'w'
I2
tp432
a(S'tr_tl'
I252
tp433
a(S'w'
I7
tp434
a(S'no_vo'
I7
tp435
a(S'w'
I3
tp436
a(S'no_ll'
I1
tp437
a(S'w'
I2
tp438
a(S'no_np'
I5
tp439
a(S'w'
I679
tp440
a(S'p2_vo'
I3
tp441
a(S'w'
I8
tp442
a(S'no_vo'
I8
tp443
a(S'w'
I3
tp444
a(S'no_ll'
I1
tp445
a(S'w'
I2
tp446
a(S'no_np'
I6
tp447
a(S'w'
I721
tp448
a(S'p2_vo'
I6
tp449
a(S'w'
I8
tp450
a(S'no_vo'
I6
tp451
a(S'w'
I3
tp452
a(S'no_ll'
I1
tp453
a(S'w'
I2
tp454
a(S'w'
I722
tp455
a(S'p2_vo'
I8
tp456
a(S'w'
I8
tp457
a(S'no_vo'
I5
tp458
a(S'w'
I3
tp459
a(S'no_ll'
I1
tp460
a(S'w'
I2
tp461
a(S'w'
I720
tp462
a(S'p2_vo'
I7
tp463
a(S'w'
I9
tp464
a(S'no_vo'
I3
tp465
a(S'w'
I2
tp466
a(S'no_ll'
I1
tp467
a(S'w'
I2
tp468
a(S'w'
I720
tp469
a(S'p2_vo'
I6
tp470
a(S'w'
I9
tp471
a(S'no_vo'
I2
tp472
a(S'w'
I2
tp473
a(S'no_ll'
I1
tp474
a(S'w'
I2
tp475
a(S'no_np'
I5
tp476
a(S'w'
I721
tp477
a(S'p2_vo'
I5
tp478
a(S'w'
I9
tp479
a(S'no_vo'
I1
tp480
a(S'w'
I2
tp481
a(S'no_ll'
I1
tp482
a(S'w'
I2
tp483
a(S'w'
I721
tp484
a(S'p2_vo'
I4
tp485
a(S'w'
I8
tp486
a(S'no_vo'
I0
tp487
a(S'w'
I727
tp488
a(S'p2_vo'
I3
tp489
a(S'w'
I11006
tp490
a(S'p2_vo'
I2
tp491
a(S'w'
I738
tp492
a(S'p2_vo'
I0
tp493
a(S'w'
I5
tp494
a(S'p2_ll'
I1
tp495
a(S'p2_th'
I3
tp496
a(S'w'
I3
tp497
a(S'p2_tl'
I39
tp498
a(S'w'
I23
tp499
a(S'tr_ll'
I1
tp500
a(S'w'
I10
tp501
a(S'no_vo'
I7
tp502
a(S'w'
I2
tp503
a(S'no_ll'
I1
tp504
a(S'w'
I2
tp505
a(S'w'
I684
tp506
a(S'p2_vo'
I3
tp507
a(S'w'
I8
tp508
a(S'no_vo'
I8
tp509
a(S'w'
I3
tp510
a(S'no_ll'
I1
tp511
a(S'w'
I2
tp512
a(S'no_np'
I6
tp513
a(S'w'
I721
tp514
a(S'p2_vo'
I6
tp515
a(S'w'
I8
tp516
a(S'no_vo'
I6
tp517
a(S'w'
I3
tp518
a(S'no_ll'
I1
tp519
a(S'w'
I2
tp520
a(S'w'
I722
tp521
a(S'p2_vo'
I8
tp522
a(S'w'
I8
tp523
a(S'no_vo'
I5
tp524
a(S'w'
I3
tp525
a(S'no_ll'
I1
tp526
a(S'w'
I2
tp527
a(S'w'
I720
tp528
a(S'p2_vo'
I7
tp529
a(S'w'
I9
tp530
a(S'no_vo'
I3
tp531
a(S'w'
I2
tp532
a(S'no_ll'
I1
tp533
a(S'w'
I2
tp534
a(S'w'
I720
tp535
a(S'p2_vo'
I6
tp536
a(S'w'
I9
tp537
a(S'no_vo'
I2
tp538
a(S'w'
I2
tp539
a(S'no_ll'
I1
tp540
a(S'w'
I2
tp541
a(S'no_np'
I5
tp542
a(S'w'
I721
tp543
a(S'p2_vo'
I5
tp544
a(S'w'
I9
tp545
a(S'no_vo'
I1
tp546
a(S'w'
I2
tp547
a(S'no_ll'
I1
tp548
a(S'w'
I2
tp549
a(S'w'
I721
tp550
a(S'p2_vo'
I4
tp551
a(S'w'
I8
tp552
a(S'no_vo'
I0
tp553
a(S'w'
I730
tp554
a(S'p2_vo'
I0
tp555
a(S'w'
I5
tp556
a(S'p2_ll'
I1
tp557
a(S'p2_th'
I2
tp558
a(S'w'
I3
tp559
a(S'p2_tl'
I167
tp560
a(S'w'
I722
tp561
a(S'p2_vo'
I3
tp562
a(S'w'
I733
tp563
a(S'p2_vo'
I6
tp564
a(S'w'
I735
tp565
a(S'p2_vo'
I8
tp566
a(S'w'
I733
tp567
a(S'p2_vo'
I7
tp568
a(S'w'
I734
tp569
a(S'p2_vo'
I6
tp570
a(S'w'
I734
tp571
a(S'p2_vo'
I5
tp572
a(S'w'
I733
tp573
a(S'p2_vo'
I4
tp574
a(S'w'
I738
tp575
a(S'p2_vo'
I0
tp576
a(S'w'
I5
tp577
a(S'p2_ll'
I1
tp578
a(S'p2_th'
I1
tp579
a(S'w'
I3
tp580
a(S'p2_tl'
I252
tp581
a(S'w'
I722
tp582
a(S'p2_vo'
I3
tp583
a(S'w'
I734
tp584
a(S'p2_vo'
I6
tp585
a(S'w'
I735
tp586
a(S'p2_vo'
I8
tp587
a(S'w'
I732
tp588
a(S'p2_vo'
I7
tp589
a(S'w'
I734
tp590
a(S'p2_vo'
I6
tp591
a(S'w'
I734
tp592
a(S'p2_vo'
I5
tp593
a(S'w'
I734
tp594
a(S'p2_vo'
I4
tp595
a(S'w'
I741
tp596
a(S'p2_vo'
I0
tp597
a(S'w'
I5
tp598
a(S'p2_ll'
I1
tp599
a(S'p2_th'
I2
tp600
a(S'w'
I3
tp601
a(S'p2_tl'
I92
tp602
a(S'w'
I23
tp603
a(S'tr_ll'
I1
tp604
a(S'w'
I2
tp605
a(S'tr_tl'
I197
tp606
a(S'w'
I7
tp607
a(S'no_vo'
I7
tp608
a(S'w'
I3
tp609
a(S'no_ll'
I1
tp610
a(S'w'
I2
tp611
a(S'w'
I681
tp612
a(S'p2_vo'
I3
tp613
a(S'w'
I8
tp614
a(S'no_vo'
I8
tp615
a(S'w'
I3
tp616
a(S'no_ll'
I1
tp617
a(S'w'
I2
tp618
a(S'no_np'
I6
tp619
a(S'w'
I721
tp620
a(S'p2_vo'
I6
tp621
a(S'w'
I8
tp622
a(S'no_vo'
I6
tp623
a(S'w'
I3
tp624
a(S'no_ll'
I1
tp625
a(S'w'
I2
tp626
a(S'w'
I722
tp627
a(S'p2_vo'
I8
tp628
a(S'w'
I8
tp629
a(S'no_vo'
I5
tp630
a(S'w'
I3
tp631
a(S'no_ll'
I1
tp632
a(S'w'
I2
tp633
a(S'w'
I720
tp634
a(S'p2_vo'
I7
tp635
a(S'w'
I9
tp636
a(S'no_vo'
I3
tp637
a(S'w'
I2
tp638
a(S'no_ll'
I1
tp639
a(S'w'
I2
tp640
a(S'w'
I720
tp641
a(S'p2_vo'
I6
tp642
a(S'w'
I9
tp643
a(S'no_vo'
I2
tp644
a(S'w'
I2
tp645
a(S'no_ll'
I1
tp646
a(S'w'
I2
tp647
a(S'no_np'
I5
tp648
a(S'w'
I721
tp649
a(S'p2_vo'
I5
tp650
a(S'w'
I9
tp651
a(S'no_vo'
I1
tp652
a(S'w'
I2
tp653
a(S'no_ll'
I1
tp654
a(S'w'
I2
tp655
a(S'w'
I721
tp656
a(S'p2_vo'
I4
tp657
a(S'w'
I8
tp658
a(S'no_vo'
I0
tp659
a(S'w'
I727
tp660
a(S'p2_vo'
I3
tp661
a(S'w'
I11006
tp662
a(S'p2_vo'
I2
tp663
a(S'w'
I738
tp664
a(S'p2_vo'
I0
tp665
a(S'w'
I6
tp666
a(S'p2_tl'
I207
tp667
a(S'w'
I23
tp668
a(S'tr_ll'
I1
tp669
a(S'w'
I10
tp670
a(S'no_vo'
I7
tp671
a(S'w'
I2
tp672
a(S'no_ll'
I1
tp673
a(S'w'
I2
tp674
a(S'w'
I686
tp675
a(S'p2_vo'
I3
tp676
a(S'w'
I8
tp677
a(S'no_vo'
I8
tp678
a(S'w'
I3
tp679
a(S'no_ll'
I1
tp680
a(S'w'
I2
tp681
a(S'no_np'
I6
tp682
a(S'w'
I721
tp683
a(S'p2_vo'
I6
tp684
a(S'w'
I8
tp685
a(S'no_vo'
I6
tp686
a(S'w'
I3
tp687
a(S'no_ll'
I1
tp688
a(S'w'
I2
tp689
a(S'w'
I722
tp690
a(S'p2_vo'
I8
tp691
a(S'w'
I8
tp692
a(S'no_vo'
I5
tp693
a(S'w'
I3
tp694
a(S'no_ll'
I1
tp695
a(S'w'
I2
tp696
a(S'w'
I720
tp697
a(S'p2_vo'
I7
tp698
a(S'w'
I9
tp699
a(S'no_vo'
I3
tp700
a(S'w'
I2
tp701
a(S'no_ll'
I1
tp702
a(S'w'
I2
tp703
a(S'w'
I720
tp704
a(S'p2_vo'
I6
tp705
a(S'w'
I9
tp706
a(S'no_vo'
I2
tp707
a(S'w'
I2
tp708
a(S'no_ll'
I1
tp709
a(S'w'
I2
tp710
a(S'no_np'
I5
tp711
a(S'w'
I721
tp712
a(S'p2_vo'
I5
tp713
a(S'w'
I9
tp714
a(S'no_vo'
I1
tp715
a(S'w'
I2
tp716
a(S'no_ll'
I1
tp717
a(S'w'
I2
tp718
a(S'w'
I721
tp719
a(S'p2_vo'
I4
tp720
a(S'w'
I8
tp721
a(S'no_vo'
I0
tp722
a(S'w'
I730
tp723
a(S'p2_vo'
I0
tp724
a(S'w'
I6
tp725
a(S'p2_tl'
I92
tp726
a(S'w'
I724
tp727
a(S'p2_vo'
I3
tp728
a(S'w'
I733
tp729
a(S'p2_vo'
I6
tp730
a(S'w'
I735
tp731
a(S'p2_vo'
I8
tp732
a(S'w'
I733
tp733
a(S'p2_vo'
I7
tp734
a(S'w'
I734
tp735
a(S'p2_vo'
I6
tp736
a(S'w'
I734
tp737
a(S'p2_vo'
I5
tp738
a(S'w'
I733
tp739
a(S'p2_vo'
I4
tp740
a(S'w'
I738
tp741
a(S'p2_vo'
I0
tp742
a(S'w'
I5
tp743
a(S'p2_ll'
I1
tp744
a(S'p2_th'
I1
tp745
a(S'w'
I3
tp746
a(S'p2_tl'
I197
tp747
a(S'w'
I722
tp748
a(S'p2_vo'
I3
tp749
a(S'w'
I734
tp750
a(S'p2_vo'
I6
tp751
a(S'w'
I735
tp752
a(S'p2_vo'
I8
tp753
a(S'w'
I732
tp754
a(S'p2_vo'
I7
tp755
a(S'w'
I734
tp756
a(S'p2_vo'
I6
tp757
a(S'w'
I734
tp758
a(S'p2_vo'
I5
tp759
a(S'w'
I734
tp760
a(S'p2_vo'
I4
tp761
a(S'w'
I743
tp762
a(S'p2_vo'
I0
tp763
a(S'w'
I5
tp764
a(S'p2_ll'
I1
tp765
a(S'p2_th'
I2
tp766
a(S'w'
I3
tp767
a(S'p2_tl'
I27
tp768
a(S'w'
I26
tp769
a(S'tr_ll'
I1
tp770
a(S'w'
I2
tp771
a(S'tr_tl'
I147
tp772
a(S'w'
I7
tp773
a(S'no_vo'
I7
tp774
a(S'w'
I2
tp775
a(S'no_ll'
I1
tp776
a(S'w'
I2
tp777
a(S'w'
I677
tp778
a(S'p2_vo'
I6
tp779
a(S'w'
I8
tp780
a(S'no_vo'
I8
tp781
a(S'w'
I3
tp782
a(S'no_ll'
I1
tp783
a(S'w'
I2
tp784
a(S'no_np'
I6
tp785
a(S'w'
I722
tp786
a(S'p2_vo'
I8
tp787
a(S'w'
I8
tp788
a(S'no_vo'
I6
tp789
a(S'w'
I3
tp790
a(S'no_ll'
I1
tp791
a(S'w'
I2
tp792
a(S'w'
I720
tp793
a(S'p2_vo'
I7
tp794
a(S'w'
I9
tp795
a(S'no_vo'
I5
tp796
a(S'w'
I2
tp797
a(S'no_ll'
I1
tp798
a(S'w'
I2
tp799
a(S'w'
I721
tp800
a(S'p2_vo'
I6
tp801
a(S'w'
I9
tp802
a(S'no_vo'
I3
tp803
a(S'w'
I2
tp804
a(S'no_ll'
I1
tp805
a(S'w'
I2
tp806
a(S'w'
I720
tp807
a(S'p2_vo'
I5
tp808
a(S'w'
I9
tp809
a(S'no_vo'
I2
tp810
a(S'w'
I2
tp811
a(S'no_ll'
I1
tp812
a(S'w'
I2
tp813
a(S'no_np'
I5
tp814
a(S'w'
I721
tp815
a(S'p2_vo'
I4
tp816
a(S'w'
I9
tp817
a(S'no_vo'
I1
tp818
a(S'w'
I2
tp819
a(S'no_ll'
I1
tp820
a(S'w'
I2
tp821
a(S'w'
I722
tp822
a(S'p2_vo'
I3
tp823
a(S'w'
I8
tp824
a(S'no_vo'
I0
tp825
a(S'w'
I729
tp826
a(S'p2_vo'
I0
tp827
a(S'w'
I6
tp828
a(S'w'
I724
tp829
a(S'p2_vo'
I6
tp830
a(S'w'
I734
tp831
a(S'p2_vo'
I8
tp832
a(S'w'
I733
tp833
a(S'p2_vo'
I7
tp834
a(S'w'
I734
tp835
a(S'p2_vo'
I6
tp836
a(S'w'
I734
tp837
a(S'p2_vo'
I5
tp838
a(S'w'
I734
tp839
a(S'p2_vo'
I4
tp840
a(S'w'
I734
tp841
a(S'p2_vo'
I3
tp842
a(S'w'
I744
tp843
a(S'p2_vo'
I0
tp844
a(S'w'
I5
tp845
a(S'w'
I718
tp846
a(S'p2_vo'
I3
tp847
a(S'w'
I735
tp848
a(S'p2_vo'
I5
tp849
a(S'w'
I734
tp850
a(S'p2_vo'
I4
tp851
a(S'w'
I3686
tp852
a(S'tr_ll'
I1
tp853
a(S'w'
I10
tp854
a(S'no_vo'
I7
tp855
a(S'w'
I2
tp856
a(S'no_ll'
I1
tp857
a(S'w'
I2
tp858
a(S'w'
I707
tp859
a(S'no_vo'
I8
tp860
a(S'w'
I2
tp861
a(S'no_ll'
I1
tp862
a(S'w'
I2
tp863
a(S'no_np'
I6
tp864
a(S'w'
I730
tp865
a(S'no_vo'
I6
tp866
a(S'w'
I2
tp867
a(S'no_ll'
I1
tp868
a(S'w'
I2
tp869
a(S'w'
I730
tp870
a(S'no_vo'
I5
tp871
a(S'w'
I2
tp872
a(S'no_ll'
I1
tp873
a(S'w'
I2
tp874
a(S'w'
I730
tp875
a(S'no_vo'
I3
tp876
a(S'w'
I2
tp877
a(S'no_ll'
I1
tp878
a(S'w'
I2
tp879
a(S'w'
I729
tp880
a(S'no_vo'
I2
tp881
a(S'w'
I2
tp882
a(S'no_ll'
I1
tp883
a(S'w'
I2
tp884
a(S'no_np'
I5
tp885
a(S'w'
I730
tp886
a(S'no_vo'
I1
tp887
a(S'w'
I2
tp888
a(S'no_ll'
I1
tp889
a(S'w'
I2
tp890
a(S'w'
I729
tp891
a(S'no_vo'
I0
tp892
a(S'w'
I747
tp893
a(S'tr_ll'
I1
tp894
a(S'w'
I10
tp895
a(S'no_vo'
I7
tp896
a(S'w'
I2
tp897
a(S'no_ll'
I1
tp898
a(S'w'
I2
tp899
a(S'w'
I708
tp900
a(S'no_vo'
I8
tp901
a(S'w'
I2
tp902
a(S'no_ll'
I1
tp903
a(S'w'
I2
tp904
a(S'no_np'
I6
tp905
a(S'w'
I729
tp906
a(S'no_vo'
I6
tp907
a(S'w'
I2
tp908
a(S'no_ll'
I1
tp909
a(S'w'
I2
tp910
a(S'w'
I730
tp911
a(S'no_vo'
I5
tp912
a(S'w'
I2
tp913
a(S'no_ll'
I1
tp914
a(S'w'
I2
tp915
a(S'w'
I730
tp916
a(S'no_vo'
I3
tp917
a(S'w'
I2
tp918
a(S'no_ll'
I1
tp919
a(S'w'
I2
tp920
a(S'w'
I730
tp921
a(S'no_vo'
I2
tp922
a(S'w'
I2
tp923
a(S'no_ll'
I1
tp924
a(S'w'
I2
tp925
a(S'no_np'
I5
tp926
a(S'w'
I730
tp927
a(S'no_vo'
I1
tp928
a(S'w'
I2
tp929
a(S'no_ll'
I1
tp930
a(S'w'
I2
tp931
a(S'w'
I728
tp932
a(S'no_vo'
I0
tp933
a(S'w'
I747
tp934
a(S'tr_ll'
I1
tp935
a(S'w'
I10
tp936
a(S'no_vo'
I7
tp937
a(S'w'
I2
tp938
a(S'no_ll'
I1
tp939
a(S'w'
I2
tp940
a(S'w'
I708
tp941
a(S'no_vo'
I8
tp942
a(S'w'
I2
tp943
a(S'no_ll'
I1
tp944
a(S'w'
I2
tp945
a(S'no_np'
I6
tp946
a(S'w'
I730
tp947
a(S'no_vo'
I6
tp948
a(S'w'
I2
tp949
a(S'no_ll'
I1
tp950
a(S'w'
I2
tp951
a(S'w'
I730
tp952
a(S'no_vo'
I5
tp953
a(S'w'
I2
tp954
a(S'no_ll'
I1
tp955
a(S'w'
I2
tp956
a(S'w'
I729
tp957
a(S'no_vo'
I3
tp958
a(S'w'
I2
tp959
a(S'no_ll'
I1
tp960
a(S'w'
I2
tp961
a(S'w'
I730
tp962
a(S'no_vo'
I2
tp963
a(S'w'
I2
tp964
a(S'no_ll'
I1
tp965
a(S'w'
I2
tp966
a(S'no_np'
I5
tp967
a(S'w'
I730
tp968
a(S'no_vo'
I1
tp969
a(S'w'
I2
tp970
a(S'no_ll'
I1
tp971
a(S'w'
I2
tp972
a(S'w'
I729
tp973
a(S'no_vo'
I0
tp974
a(S'w'
I749
tp975
a(S'tr_lh'
I1
tp976
a(S'tr_lr'
I16
tp977
a(S'w'
I5
tp978
a(S'tr_ll'
I1
tp979
a(S'w'
I9
tp980
a(S'no_vo'
I7
tp981
a(S'w'
I2
tp982
a(S'no_ll'
I1
tp983
a(S'w'
I2
tp984
a(S'w'
I701
tp985
a(S'no_vo'
I8
tp986
a(S'w'
I2
tp987
a(S'no_ll'
I1
tp988
a(S'w'
I2
tp989
a(S'no_np'
I6
tp990
a(S'w'
I730
tp991
a(S'no_vo'
I6
tp992
a(S'w'
I2
tp993
a(S'no_ll'
I1
tp994
a(S'w'
I2
tp995
a(S'w'
I730
tp996
a(S'no_vo'
I5
tp997
a(S'w'
I2
tp998
a(S'no_ll'
I1
tp999
a(S'w'
I2
tp1000
a(S'w'
I730
tp1001
a(S'no_vo'
I3
tp1002
a(S'w'
I2
tp1003
a(S'no_ll'
I1
tp1004
a(S'w'
I2
tp1005
a(S'w'
I729
tp1006
a(S'no_vo'
I2
tp1007
a(S'w'
I2
tp1008
a(S'no_ll'
I1
tp1009
a(S'w'
I2
tp1010
a(S'no_np'
I5
tp1011
a(S'w'
I730
tp1012
a(S'no_vo'
I1
tp1013
a(S'w'
I2
tp1014
a(S'no_ll'
I1
tp1015
a(S'w'
I2
tp1016
a(S'w'
I729
tp1017
a(S'no_vo'
I0
tp1018
a(S'w'
I30086
tp1019
a(S'p2_vo'
I1
tp1020
a(S'w'
I6
tp1021
a(S'w'
I11
tp1022
a(S'tr_ll'
I1
tp1023
a(S'w'
I712
tp1024
a(S'p2_vo'
I0
tp1025
a(S'w'
I3672
tp1026
a(S'ch_no'
I1
tp1027
a(S'ch_tr'
I0
tp1028
a(S'ch_p2'
I1
tp1029
a(S'ch_p1'
I1
tp1030
a(S'tr_lh'
I0
tp1031
a(S'tr_lr'
I0
tp1032
a(S'ch_no'
I1
tp1033
a(S'ch_tr'
I1
tp1034
a(S'ch_p2'
I1
tp1035
a(S'ch_p1'
I1
tp1036
a(S'w'
I2931
tp1037
a(S'p2_du'
I0
tp1038
a.