(lp1
(S'clock'
p2
I1789773
tp3
a(S'fc_mo'
I1
tp4
a(S'p1_lh'
I1
tp5
a(S'p1_cv'
I1
tp6
a(S'p1_sp'
I7
tp7
a(S'p1_sn'
I1
tp8
a(S'p1_ss'
I7
tp9
a(S'p2_lh'
I1
tp10
a(S'p2_cv'
I1
tp11
a(S'p2_sp'
I7
tp12
a(S'p2_sn'
I1
tp13
a(S'p2_ss'
I7
tp14
a(S'w'
I15
tp15
a(S'p1_du'
I2
tp16
a(S'w'
I25
tp17
a(S'p2_du'
I2
tp18
a(S'w'
I4394
tp19
a(S'p2_vo'
I7
tp20
a(S'w'
I6
tp21
a(S'p2_ll'
I1
tp22
a(S'p2_th'
I1
tp23
a(S'w'
I2
tp24
a(S'p2_tl'
I46
tp25
a(S'w'
I5
tp26
a(S'tr_lh'
I1
tp27
a(S'tr_lr'
I16
tp28
a(S'w'
I4
tp29
a(S'tr_ll'
I1
tp30
a(S'tr_th'
I2
tp31
a(S'w'
I2
tp32
a(S'tr_tl'
I92
tp33
a(S'w'
I4363
tp34
a(S'p1_vo'
I6
tp35
a(S'w'
I6
tp36
a(S'p1_ll'
I1
tp37
a(S'p1_th'
I1
tp38
a(S'w'
I2
tp39
a(S'p1_tl'
I47
tp40
a(S'w'
I21
tp41
a(S'p2_ll'
I1
tp42
a(S'p2_th'
I0
tp43
a(S'w'
I2
tp44
a(S'p2_tl'
I254
tp45
a(S'w'
I9
tp46
a(S'tr_ll'
I1
tp47
a(S'tr_th'
I1
tp48
a(S'w'
I2
tp49
a(S'tr_tl'
I252
tp50
a(S'w'
I690
tp51
a(S'p1_vo'
I5
tp52
a(S'w'
I3671
tp53
a(S'p1_vo'
I6
tp54
a(S'w'
I6
tp55
a(S'p1_ll'
I1
tp56
a(S'p1_th'
I0
tp57
a(S'w'
I2
tp58
a(S'p1_tl'
I255
tp59
a(S'w'
I24
tp60
a(S'p2_tl'
I213
tp61
a(S'w'
I11
tp62
a(S'tr_ll'
I1
tp63
a(S'w'
I2
tp64
a(S'tr_tl'
I171
tp65
a(S'w'
I687
tp66
a(S'p1_vo'
I5
tp67
a(S'w'
I3673
tp68
a(S'p1_vo'
I6
tp69
a(S'w'
I7
tp70
a(S'p1_tl'
I214
tp71
a(S'w'
I21
tp72
a(S'p2_tl'
I179
tp73
a(S'w'
I10
tp74
a(S'tr_ll'
I1
tp75
a(S'w'
I2
tp76
a(S'tr_tl'
I103
tp77
a(S'w'
I689
tp78
a(S'p1_vo'
I5
tp79
a(S'w'
I3671
tp80
a(S'p1_vo'
I6
tp81
a(S'w'
I7
tp82
a(S'p1_tl'
I180
tp83
a(S'w'
I23
tp84
a(S'p2_tl'
I254
tp85
a(S'w'
I10
tp86
a(S'tr_ll'
I1
tp87
a(S'w'
I2
tp88
a(S'tr_tl'
I252
tp89
a(S'w'
I690
tp90
a(S'p1_vo'
I5
tp91
a(S'w'
I3673
tp92
a(S'p1_vo'
I6
tp93
a(S'w'
I6
tp94
a(S'p1_tl'
I255
tp95
a(S'w'
I24
tp96
a(S'p2_tl'
I213
tp97
a(S'w'
I11
tp98
a(S'tr_ll'
I1
tp99
a(S'w'
I2
tp100
a(S'tr_tl'
I171
tp101
a(S'w'
I687
tp102
a(S'p1_vo'
I5
tp103
a(S'w'
I3673
tp104
a(S'p1_vo'
I6
tp105
a(S'w'
I7
tp106
a(S'p1_tl'
I214
tp107
a(S'w'
I21
tp108
a(S'p2_tl'
I179
tp109
a(S'w'
I10
tp110
a(S'tr_ll'
I1
tp111
a(S'w'
I2
tp112
a(S'tr_tl'
I103
tp113
a(S'w'
I690
tp114
a(S'p1_vo'
I5
tp115
a(S'w'
I3671
tp116
a(S'p1_vo'
I6
tp117
a(S'w'
I7
tp118
a(S'p1_tl'
I180
tp119
a(S'w'
I22
tp120
a(S'p2_tl'
I151
tp121
a(S'w'
I9
tp122
a(S'tr_ll'
I1
tp123
a(S'w'
I2
tp124
a(S'tr_tl'
I46
tp125
a(S'w'
I691
tp126
a(S'p1_vo'
I5
tp127
a(S'w'
I3671
tp128
a(S'p1_vo'
I6
tp129
a(S'w'
I7
tp130
a(S'p1_tl'
I152
tp131
a(S'w'
I22
tp132
a(S'p2_tl'
I213
tp133
a(S'w'
I9
tp134
a(S'tr_ll'
I1
tp135
a(S'w'
I2
tp136
a(S'tr_tl'
I171
tp137
a(S'w'
I692
tp138
a(S'p1_vo'
I5
tp139
a(S'w'
I3671
tp140
a(S'p1_vo'
I6
tp141
a(S'w'
I7
tp142
a(S'p1_tl'
I214
tp143
a(S'w'
I22
tp144
a(S'p2_tl'
I179
tp145
a(S'w'
I9
tp146
a(S'tr_ll'
I1
tp147
a(S'w'
I2
tp148
a(S'tr_tl'
I103
tp149
a(S'w'
I692
tp150
a(S'p1_vo'
I5
tp151
a(S'w'
I3671
tp152
a(S'p1_vo'
I6
tp153
a(S'w'
I7
tp154
a(S'p1_tl'
I180
tp155
a(S'w'
I22
tp156
a(S'p2_tl'
I151
tp157
a(S'w'
I9
tp158
a(S'tr_ll'
I1
tp159
a(S'w'
I2
tp160
a(S'tr_tl'
I46
tp161
a(S'w'
I692
tp162
a(S'p1_vo'
I5
tp163
a(S'w'
I3671
tp164
a(S'p1_vo'
I6
tp165
a(S'w'
I7
tp166
a(S'p1_tl'
I152
tp167
a(S'w'
I22
tp168
a(S'p2_tl'
I127
tp169
a(S'w'
I9
tp170
a(S'tr_ll'
I1
tp171
a(S'tr_th'
I0
tp172
a(S'w'
I2
tp173
a(S'tr_tl'
I254
tp174
a(S'w'
I691
tp175
a(S'p1_vo'
I5
tp176
a(S'w'
I3671
tp177
a(S'p1_vo'
I6
tp178
a(S'w'
I7
tp179
a(S'p1_tl'
I128
tp180
a(S'w'
I22
tp181
a(S'p2_tl'
I179
tp182
a(S'w'
I9
tp183
a(S'tr_ll'
I1
tp184
a(S'tr_th'
I1
tp185
a(S'w'
I2
tp186
a(S'tr_tl'
I103
tp187
a(S'w'
I692
tp188
a(S'p1_vo'
I5
tp189
a(S'w'
I3671
tp190
a(S'p1_vo'
I6
tp191
a(S'w'
I7
tp192
a(S'p1_tl'
I180
tp193
a(S'w'
I22
tp194
a(S'p2_tl'
I151
tp195
a(S'w'
I9
tp196
a(S'tr_ll'
I1
tp197
a(S'w'
I2
tp198
a(S'tr_tl'
I46
tp199
a(S'w'
I692
tp200
a(S'p1_vo'
I5
tp201
a(S'w'
I3671
tp202
a(S'p1_vo'
I6
tp203
a(S'w'
I7
tp204
a(S'p1_tl'
I152
tp205
a(S'w'
I24
tp206
a(S'p2_tl'
I127
tp207
a(S'w'
I10
tp208
a(S'tr_ll'
I1
tp209
a(S'tr_th'
I0
tp210
a(S'w'
I2
tp211
a(S'tr_tl'
I254
tp212
a(S'w'
I689
tp213
a(S'p1_vo'
I5
tp214
a(S'w'
I3679
tp215
a(S'p1_vo'
I6
tp216
a(S'w'
I8
tp217
a(S'p1_tl'
I90
tp218
a(S'w'
I27
tp219
a(S'p2_tl'
I89
tp220
a(S'w'
I16
tp221
a(S'tr_ll'
I1
tp222
a(S'w'
I2
tp223
a(S'tr_tl'
I179
tp224
a(S'w'
I670
tp225
a(S'p1_vo'
I5
tp226
a(S'w'
I7341
tp227
a(S'p2_vo'
I6
tp228
a(S'w'
I8072
tp229
a(S'p2_vo'
I5
tp230
a(S'w'
I8072
tp231
a(S'p2_vo'
I4
tp232
a(S'w'
I729
tp233
a(S'p1_vo'
I4
tp234
a(S'w'
I734
tp235
a(S'p1_vo'
I3
tp236
a(S'w'
I739
tp237
a(S'p1_vo'
I2
tp238
a(S'w'
I8
tp239
a(S'w'
I11
tp240
a(S'p2_vo'
I2
tp241
a(S'w'
I7
tp242
a(S'w'
I7
tp243
a(S'ch_no'
I1
tp244
a(S'ch_tr'
I0
tp245
a(S'ch_p2'
I1
tp246
a(S'ch_p1'
I1
tp247
a(S'tr_lh'
I0
tp248
a(S'tr_lr'
I0
tp249
a(S'ch_no'
I1
tp250
a(S'ch_tr'
I1
tp251
a(S'ch_p2'
I1
tp252
a(S'ch_p1'
I1
tp253
a(S'w'
I697
tp254
a(S'p1_vo'
I1
tp255
a(S'w'
I7
tp256
a(S'p2_vo'
I1
tp257
a(S'w'
I3661
tp258
a(S'p1_du'
I0
tp259
a(S'p1_vo'
I0
tp260
a(S'w'
I6
tp261
a(S'p2_du'
I0
tp262
a(S'p2_vo'
I0
tp263
a(S'w'
I9
tp264
a.