(lp1
(S'clock'
p2
I1789772
tp3
a(S'p1_du'
I1
tp4
a(S'p1_lh'
I1
tp5
a(S'p1_cv'
I1
tp6
a(S'p1_ll'
I0
tp7
a(S'p2_du'
I1
tp8
a(S'p2_lh'
I1
tp9
a(S'p2_cv'
I1
tp10
a(S'p2_ll'
I0
tp11
a(S'tr_lr'
I112
tp12
a(S'tr_ll'
I0
tp13
a(S'no_lh'
I1
tp14
a(S'no_cv'
I1
tp15
a(S'no_ll'
I0
tp16
a(S'ch_no'
I1
tp17
a(S'ch_tr'
I1
tp18
a(S'ch_p2'
I1
tp19
a(S'ch_p1'
I1
tp20
a(S'p1_lh'
I0
tp21
a(S'p1_cv'
I0
tp22
a(S'p1_vo'
I6
tp23
a(S'p1_se'
I1
tp24
a(S'p1_sp'
I7
tp25
a(S'p1_tl'
I113
tp26
a(S'p1_ll'
I1
tp27
a(S'w'
I3
tp28
a(S'p2_du'
I2
tp29
a(S'p2_lh'
I0
tp30
a(S'p2_vo'
I4
tp31
a(S'p2_sn'
I1
tp32
a(S'p2_ss'
I7
tp33
a(S'p2_tl'
I201
tp34
a(S'w'
I1
tp35
a(S'p2_ll'
I17
tp36
a(S'w'
I2
tp37
a(S'tr_lr'
I115
tp38
a(S'w'
I1
tp39
a(S'tr_tl'
I167
tp40
a(S'tr_ll'
I15
tp41
a(S'tr_th'
I2
tp42
a(S'w'
I5
tp43
a(S'no_ll'
I0
tp44
a(S'w'
I707
tp45
a(S'no_ll'
I0
tp46
a(S'w'
I734
tp47
a(S'no_ll'
I0
tp48
a(S'w'
I734
tp49
a(S'no_ll'
I0
tp50
a(S'w'
I735
tp51
a(S'no_ll'
I0
tp52
a(S'w'
I732
tp53
a(S'no_ll'
I0
tp54
a(S'w'
I734
tp55
a(S'no_ll'
I0
tp56
a(S'w'
I734
tp57
a(S'no_ll'
I0
tp58
a(S'w'
I735
tp59
a(S'no_ll'
I0
tp60
a(S'w'
I733
tp61
a(S'no_ll'
I0
tp62
a(S'w'
I733
tp63
a(S'p2_tl'
I169
tp64
a(S'p2_ll'
I17
tp65
a(S'w'
I7
tp66
a(S'no_ll'
I0
tp67
a(S'w'
I727
tp68
a(S'no_ll'
I0
tp69
a(S'w'
I735
tp70
a(S'no_ll'
I0
tp71
a(S'w'
I733
tp72
a(S'no_ll'
I0
tp73
a(S'w'
I734
tp74
a(S'no_ll'
I0
tp75
a(S'w'
I733
tp76
a(S'w'
I1
tp77
a(S'no_ll'
I0
tp78
a(S'w'
I734
tp79
a(S'no_ll'
I0
tp80
a(S'w'
I733
tp81
a(S'no_ll'
I0
tp82
a(S'w'
I734
tp83
a(S'no_ll'
I0
tp84
a(S'w'
I734
tp85
a(S'no_ll'
I0
tp86
a(S'w'
I740
tp87
a(S'p1_tl'
I169
tp88
a(S'p1_ll'
I1
tp89
a(S'w'
I3
tp90
a(S'p2_tl'
I13
tp91
a(S'w'
I1
tp92
a(S'p2_ll'
I17
tp93
a(S'p2_th'
I1
tp94
a(S'w'
I3
tp95
a(S'tr_tl'
I252
tp96
a(S'tr_ll'
I15
tp97
a(S'tr_th'
I1
tp98
a(S'w'
I5
tp99
a(S'no_ll'
I0
tp100
a(S'w'
I715
tp101
a(S'no_ll'
I0
tp102
a(S'w'
I734
tp103
a(S'no_ll'
I0
tp104
a(S'w'
I734
tp105
a(S'no_ll'
I0
tp106
a(S'w'
I735
tp107
a(S'no_ll'
I0
tp108
a(S'w'
I732
tp109
a(S'w'
I1
tp110
a(S'no_ll'
I0
tp111
a(S'w'
I733
tp112
a(S'no_ll'
I0
tp113
a(S'w'
I734
tp114
a(S'no_ll'
I0
tp115
a(S'w'
I735
tp116
a(S'no_ll'
I0
tp117
a(S'w'
I733
tp118
a(S'no_ll'
I0
tp119
a(S'w'
I733
tp120
a(S'p2_tl'
I190
tp121
a(S'p2_ll'
I17
tp122
a(S'p2_th'
I0
tp123
a(S'w'
I7
tp124
a(S'no_ll'
I0
tp125
a(S'w'
I727
tp126
a(S'no_ll'
I0
tp127
a(S'w'
I735
tp128
a(S'no_ll'
I0
tp129
a(S'w'
I733
tp130
a(S'no_ll'
I0
tp131
a(S'w'
I734
tp132
a(S'no_ll'
I0
tp133
a(S'w'
I733
tp134
a(S'w'
I1
tp135
a(S'no_ll'
I0
tp136
a(S'w'
I734
tp137
a(S'no_ll'
I0
tp138
a(S'w'
I733
tp139
a(S'no_ll'
I0
tp140
a(S'w'
I734
tp141
a(S'no_ll'
I0
tp142
a(S'w'
I734
tp143
a(S'no_ll'
I0
tp144
a(S'w'
I740
tp145
a(S'p1_tl'
I201
tp146
a(S'p1_ll'
I1
tp147
a(S'w'
I3
tp148
a(S'p2_tl'
I83
tp149
a(S'p2_ll'
I17
tp150
a(S'p2_th'
I1
tp151
a(S'w'
I3
tp152
a(S'tr_tl'
I167
tp153
a(S'w'
I1
tp154
a(S'tr_ll'
I15
tp155
a(S'tr_th'
I2
tp156
a(S'w'
I5
tp157
a(S'no_ll'
I0
tp158
a(S'w'
I715
tp159
a(S'no_ll'
I0
tp160
a(S'w'
I734
tp161
a(S'no_ll'
I0
tp162
a(S'w'
I734
tp163
a(S'no_ll'
I0
tp164
a(S'w'
I735
tp165
a(S'no_ll'
I0
tp166
a(S'w'
I734
tp167
a(S'p1_tl'
I226
tp168
a(S'p1_ll'
I1
tp169
a(S'w'
I3
tp170
a(S'w'
I1
tp171
a(S'p2_ll'
I17
tp172
a(S'w'
I6
tp173
a(S'no_ll'
I0
tp174
a(S'w'
I722
tp175
a(S'no_ll'
I0
tp176
a(S'w'
I734
tp177
a(S'no_ll'
I0
tp178
a(S'w'
I735
tp179
a(S'no_ll'
I0
tp180
a(S'w'
I733
tp181
a(S'no_ll'
I0
tp182
a(S'w'
I739
tp183
a(S'p1_tl'
I254
tp184
a(S'p1_ll'
I1
tp185
a(S'w'
I3
tp186
a(S'p2_tl'
I46
tp187
a(S'w'
I1
tp188
a(S'p2_ll'
I17
tp189
a(S'w'
I3
tp190
a(S'tr_tl'
I46
tp191
a(S'tr_ll'
I15
tp192
a(S'tr_th'
I1
tp193
a(S'w'
I5
tp194
a(S'no_ll'
I0
tp195
a(S'w'
I716
tp196
a(S'no_ll'
I0
tp197
a(S'w'
I735
tp198
a(S'no_ll'
I0
tp199
a(S'w'
I733
tp200
a(S'no_ll'
I0
tp201
a(S'w'
I734
tp202
a(S'no_ll'
I0
tp203
a(S'w'
I735
tp204
a(S'p1_tl'
I226
tp205
a(S'p1_ll'
I1
tp206
a(S'w'
I3
tp207
a(S'p2_tl'
I13
tp208
a(S'w'
I1
tp209
a(S'p2_ll'
I17
tp210
a(S'w'
I6
tp211
a(S'no_ll'
I0
tp212
a(S'w'
I723
tp213
a(S'no_ll'
I0
tp214
a(S'w'
I733
tp215
a(S'no_ll'
I0
tp216
a(S'w'
I734
tp217
a(S'no_ll'
I0
tp218
a(S'w'
I734
tp219
a(S'no_ll'
I0
tp220
a(S'w'
I740
tp221
a(S'p1_tl'
I201
tp222
a(S'p1_ll'
I1
tp223
a(S'w'
I3
tp224
a(S'p2_tl'
I254
tp225
a(S'w'
I1
tp226
a(S'p2_ll'
I17
tp227
a(S'p2_th'
I0
tp228
a(S'w'
I3
tp229
a(S'tr_tl'
I167
tp230
a(S'tr_ll'
I15
tp231
a(S'tr_th'
I2
tp232
a(S'w'
I5
tp233
a(S'no_ll'
I0
tp234
a(S'w'
I715
tp235
a(S'no_ll'
I0
tp236
a(S'w'
I734
tp237
a(S'no_ll'
I0
tp238
a(S'w'
I734
tp239
a(S'no_ll'
I0
tp240
a(S'w'
I735
tp241
a(S'no_ll'
I0
tp242
a(S'w'
I732
tp243
a(S'tr_tl'
I87
tp244
a(S'w'
I1
tp245
a(S'tr_ll'
I15
tp246
a(S'tr_th'
I3
tp247
a(S'w'
I5
tp248
a(S'no_ll'
I0
tp249
a(S'w'
I728
tp250
a(S'no_ll'
I0
tp251
a(S'w'
I734
tp252
a(S'no_ll'
I0
tp253
a(S'w'
I735
tp254
a(S'no_ll'
I0
tp255
a(S'w'
I733
tp256
a(S'no_ll'
I0
tp257
a(S'w'
I739
tp258
a(S'p1_tl'
I169
tp259
a(S'p1_ll'
I1
tp260
a(S'w'
I3
tp261
a(S'p2_tl'
I147
tp262
a(S'p2_ll'
I17
tp263
a(S'p2_th'
I1
tp264
a(S'w'
I3
tp265
a(S'tr_tl'
I39
tp266
a(S'w'
I1
tp267
a(S'tr_ll'
I15
tp268
a(S'w'
I5
tp269
a(S'no_ll'
I0
tp270
a(S'w'
I716
tp271
a(S'no_ll'
I0
tp272
a(S'w'
I735
tp273
a(S'no_ll'
I0
tp274
a(S'w'
I733
tp275
a(S'no_ll'
I0
tp276
a(S'w'
I734
tp277
a(S'no_ll'
I0
tp278
a(S'w'
I733
tp279
a(S'w'
I1
tp280
a(S'no_ll'
I0
tp281
a(S'w'
I734
tp282
a(S'no_ll'
I0
tp283
a(S'w'
I733
tp284
a(S'no_ll'
I0
tp285
a(S'w'
I734
tp286
a(S'no_ll'
I0
tp287
a(S'w'
I734
tp288
a(S'no_ll'
I0
tp289
a(S'w'
I740
tp290
a(S'p1_tl'
I151
tp291
a(S'p1_ll'
I1
tp292
a(S'w'
I3
tp293
a(S'p2_ll'
I17
tp294
a(S'w'
I3
tp295
a(S'tr_tl'
I250
tp296
a(S'w'
I1
tp297
a(S'tr_ll'
I15
tp298
a(S'tr_th'
I2
tp299
a(S'w'
I5
tp300
a(S'no_ll'
I0
tp301
a(S'w'
I715
tp302
a(S'no_ll'
I0
tp303
a(S'w'
I734
tp304
a(S'no_ll'
I0
tp305
a(S'w'
I734
tp306
a(S'no_ll'
I0
tp307
a(S'w'
I735
tp308
a(S'no_ll'
I0
tp309
a(S'w'
I733
tp310
a(S'no_ll'
I0
tp311
a(S'w'
I733
tp312
a(S'no_ll'
I0
tp313
a(S'w'
I734
tp314
a(S'no_ll'
I0
tp315
a(S'w'
I735
tp316
a(S'no_ll'
I0
tp317
a(S'w'
I733
tp318
a(S'no_ll'
I0
tp319
a(S'w'
I739
tp320
a(S'p1_tl'
I134
tp321
a(S'p1_ll'
I1
tp322
a(S'w'
I4
tp323
a(S'p2_tl'
I254
tp324
a(S'p2_ll'
I17
tp325
a(S'p2_th'
I0
tp326
a(S'w'
I3
tp327
a(S'tr_tl'
I27
tp328
a(S'tr_ll'
I15
tp329
a(S'w'
I5
tp330
a(S'no_ll'
I0
tp331
a(S'w'
I716
tp332
a(S'no_ll'
I0
tp333
a(S'w'
I735
tp334
a(S'no_ll'
I0
tp335
a(S'w'
I733
tp336
a(S'no_ll'
I0
tp337
a(S'w'
I734
tp338
a(S'no_ll'
I0
tp339
a(S'w'
I734
tp340
a(S'no_ll'
I0
tp341
a(S'w'
I734
tp342
a(S'no_ll'
I0
tp343
a(S'w'
I733
tp344
a(S'no_ll'
I0
tp345
a(S'w'
I734
tp346
a(S'no_ll'
I0
tp347
a(S'w'
I734
tp348
a(S'no_ll'
I0
tp349
a(S'w'
I740
tp350
a(S'p1_tl'
I169
tp351
a(S'p1_ll'
I1
tp352
a(S'w'
I3
tp353
a(S'p2_tl'
I125
tp354
a(S'p2_ll'
I17
tp355
a(S'p2_th'
I1
tp356
a(S'w'
I3
tp357
a(S'tr_tl'
I167
tp358
a(S'w'
I1
tp359
a(S'tr_ll'
I15
tp360
a(S'w'
I5
tp361
a(S'no_ll'
I0
tp362
a(S'w'
I715
tp363
a(S'no_ll'
I0
tp364
a(S'w'
I734
tp365
a(S'no_ll'
I0
tp366
a(S'w'
I734
tp367
a(S'no_ll'
I0
tp368
a(S'w'
I735
tp369
a(S'no_ll'
I0
tp370
a(S'w'
I734
tp371
a(S'p1_tl'
I190
tp372
a(S'p1_ll'
I1
tp373
a(S'w'
I5
tp374
a(S'tr_tl'
I93
tp375
a(S'tr_ll'
I15
tp376
a(S'w'
I5
tp377
a(S'no_ll'
I0
tp378
a(S'w'
I722
tp379
a(S'no_ll'
I0
tp380
a(S'w'
I734
tp381
a(S'no_ll'
I0
tp382
a(S'w'
I735
tp383
a(S'no_ll'
I0
tp384
a(S'w'
I733
tp385
a(S'no_ll'
I0
tp386
a(S'w'
I739
tp387
a(S'p1_tl'
I201
tp388
a(S'p1_ll'
I1
tp389
a(S'w'
I3
tp390
a(S'p2_tl'
I13
tp391
a(S'p2_ll'
I17
tp392
a(S'w'
I3
tp393
a(S'tr_tl'
I27
tp394
a(S'w'
I1
tp395
a(S'tr_ll'
I15
tp396
a(S'w'
I5
tp397
a(S'no_ll'
I0
tp398
a(S'w'
I716
tp399
a(S'no_ll'
I0
tp400
a(S'w'
I735
tp401
a(S'no_ll'
I0
tp402
a(S'w'
I733
tp403
a(S'no_ll'
I0
tp404
a(S'w'
I734
tp405
a(S'no_ll'
I0
tp406
a(S'w'
I735
tp407
a(S'p1_tl'
I226
tp408
a(S'w'
I1
tp409
a(S'p1_ll'
I1
tp410
a(S'w'
I4
tp411
a(S'tr_tl'
I197
tp412
a(S'tr_ll'
I15
tp413
a(S'tr_th'
I1
tp414
a(S'w'
I5
tp415
a(S'w'
I1
tp416
a(S'no_ll'
I0
tp417
a(S'w'
I722
tp418
a(S'no_ll'
I0
tp419
a(S'w'
I733
tp420
a(S'no_ll'
I0
tp421
a(S'w'
I734
tp422
a(S'no_ll'
I0
tp423
a(S'w'
I734
tp424
a(S'no_ll'
I0
tp425
a(S'w'
I742
tp426
a(S'p1_du'
I2
tp427
a(S'p1_vo'
I15
tp428
a(S'p1_sp'
I6
tp429
a(S'p1_ss'
I3
tp430
a(S'p1_tl'
I240
tp431
a(S'w'
I1
tp432
a(S'p1_ll'
I1
tp433
a(S'w'
I3
tp434
a(S'p2_tl'
I64
tp435
a(S'p2_ll'
I17
tp436
a(S'w'
I3
tp437
a(S'tr_tl'
I224
tp438
a(S'tr_ll'
I15
tp439
a(S'w'
I5
tp440
a(S'w'
I1
tp441
a(S'no_ll'
I0
tp442
a(S'w'
I712
tp443
a(S'no_ll'
I0
tp444
a(S'w'
I734
tp445
a(S'no_ll'
I0
tp446
a(S'w'
I734
tp447
a(S'no_ll'
I0
tp448
a(S'w'
I735
tp449
a(S'no_ll'
I0
tp450
a(S'w'
I733
tp451
a(S'no_ll'
I0
tp452
a(S'w'
I733
tp453
a(S'no_ll'
I0
tp454
a(S'w'
I734
tp455
a(S'no_ll'
I0
tp456
a(S'w'
I735
tp457
a(S'no_ll'
I0
tp458
a(S'w'
I733
tp459
a(S'no_ll'
I0
tp460
a(S'w'
I734
tp461
a(S'no_ll'
I0
tp462
a(S'w'
I733
tp463
a(S'no_ll'
I0
tp464
a(S'w'
I735
tp465
a(S'no_ll'
I0
tp466
a(S'w'
I733
tp467
a(S'no_ll'
I0
tp468
a(S'w'
I734
tp469
a(S'no_ll'
I0
tp470
a(S'w'
I734
tp471
a(S'no_ll'
I0
tp472
a(S'w'
I734
tp473
a(S'no_ll'
I0
tp474
a(S'w'
I733
tp475
a(S'no_ll'
I0
tp476
a(S'w'
I734
tp477
a(S'no_ll'
I0
tp478
a(S'w'
I734
tp479
a(S'no_ll'
I0
tp480
a(S'w'
I752
tp481
a(S'p1_sp'
I3
tp482
a(S'p1_sn'
I1
tp483
a(S'p1_tl'
I240
tp484
a(S'w'
I1
tp485
a(S'p1_ll'
I1
tp486
a(S'w'
I3
tp487
a(S'p2_tl'
I0
tp488
a(S'p2_ll'
I17
tp489
a(S'p2_th'
I0
tp490
a(S'w'
I3
tp491
a(S'tr_tl'
I0
tp492
a(S'tr_ll'
I15
tp493
a(S'tr_th'
I0
tp494
a(S'w'
I5
tp495
a(S'no_ll'
I0
tp496
a(S'w'
I703
tp497
a(S'no_ll'
I0
tp498
a(S'w'
I734
tp499
a(S'no_ll'
I0
tp500
a(S'w'
I734
tp501
a(S'no_ll'
I0
tp502
a(S'w'
I735
tp503
a(S'no_ll'
I0
tp504
a(S'w'
I733
tp505
a(S'no_ll'
I0
tp506
a(S'w'
I733
tp507
a(S'w'
I1
tp508
a(S'no_ll'
I0
tp509
a(S'w'
I733
tp510
a(S'no_ll'
I0
tp511
a(S'w'
I735
tp512
a(S'no_ll'
I0
tp513
a(S'w'
I733
tp514
a(S'no_ll'
I0
tp515
a(S'w'
I734
tp516
a(S'no_ll'
I0
tp517
a(S'w'
I733
tp518
a(S'w'
I1
tp519
a(S'no_ll'
I0
tp520
a(S'w'
I734
tp521
a(S'no_ll'
I0
tp522
a(S'w'
I733
tp523
a(S'no_ll'
I0
tp524
a(S'w'
I734
tp525
a(S'no_ll'
I0
tp526
a(S'w'
I734
tp527
a(S'no_ll'
I0
tp528
a(S'w'
I734
tp529
a(S'no_ll'
I0
tp530
a(S'w'
I733
tp531
a(S'no_ll'
I0
tp532
a(S'w'
I734
tp533
a(S'no_ll'
I0
tp534
a(S'w'
I734
tp535
a(S'no_ll'
I0
tp536
a(S'w'
I735
tp537
a(S'no_ll'
I0
tp538
a(S'w'
I732
tp539
a(S'w'
I1
tp540
a(S'no_ll'
I0
tp541
a(S'w'
I733
tp542
a(S'no_ll'
I0
tp543
a(S'w'
I734
tp544
a(S'no_ll'
I0
tp545
a(S'w'
I735
tp546
a(S'no_ll'
I0
tp547
a(S'w'
I733
tp548
a(S'no_ll'
I0
tp549
a(S'w'
I733
tp550
a(S'w'
I1
tp551
a(S'no_ll'
I0
tp552
a(S'w'
I733
tp553
a(S'no_ll'
I0
tp554
a(S'w'
I735
tp555
a(S'no_ll'
I0
tp556
a(S'w'
I733
tp557
a(S'no_ll'
I0
tp558
a(S'w'
I738
tp559
a(S'tr_lr'
I112
tp560
a(S'w'
I1
tp561
a(S'p2_du'
I1
tp562
a(S'p2_lh'
I1
tp563
a(S'p2_vo'
I0
tp564
a(S'w'
I1
tp565
a(S'p1_du'
I1
tp566
a(S'p1_lh'
I1
tp567
a(S'p1_cv'
I1
tp568
a(S'p1_vo'
I0
tp569
a(S'w'
I1
tp570
a(S'p1_se'
I0
tp571
a(S'p1_sp'
I0
tp572
a(S'p1_sn'
I0
tp573
a(S'p1_ss'
I0
tp574
a(S'p1_tl'
I0
tp575
a(S'p1_ll'
I0
tp576
a(S'w'
I1
tp577
a(S'p2_sn'
I0
tp578
a(S'p2_ss'
I0
tp579
a(S'p2_ll'
I0
tp580
a.