(lp1
(S'clock'
p2
I1789772
tp3
a(S'ch_no'
I0
tp4
a(S'ch_tr'
I0
tp5
a(S'ch_p2'
I0
tp6
a(S'ch_p1'
I0
tp7
a(S'w'
I1465
tp8
a(S'ch_no'
I0
tp9
a(S'ch_tr'
I0
tp10
a(S'ch_p2'
I0
tp11
a(S'ch_p1'
I1
tp12
a(S'w'
I1
tp13
a(S'p1_du'
I3
tp14
a(S'p1_vo'
I10
tp15
a(S'p1_tl'
I190
tp16
a(S'w'
I1
tp17
a(S'p1_ll'
I10
tp18
a(S'w'
I8
tp19
a(S'ch_no'
I0
tp20
a(S'ch_tr'
I0
tp21
a(S'ch_p2'
I1
tp22
a(S'ch_p1'
I1
tp23
a(S'w'
I1
tp24
a(S'p2_du'
I3
tp25
a(S'p2_vo'
I10
tp26
a(S'p2_tl'
I46
tp27
a(S'p2_ll'
I10
tp28
a(S'p2_th'
I1
tp29
a(S'w'
I8
tp30
a(S'ch_no'
I0
tp31
a(S'ch_tr'
I1
tp32
a(S'ch_p2'
I1
tp33
a(S'ch_p1'
I1
tp34
a(S'w'
I1
tp35
a(S'tr_lr'
I127
tp36
a(S'w'
I1
tp37
a(S'tr_tl'
I125
tp38
a(S'tr_ll'
I2
tp39
a(S'tr_th'
I1
tp40
a(S'w'
I7308
tp41
a(S'ch_no'
I0
tp42
a(S'ch_tr'
I1
tp43
a(S'ch_p2'
I1
tp44
a(S'ch_p1'
I1
tp45
a(S'tr_tl'
I190
tp46
a(S'w'
I1
tp47
a(S'tr_ll'
I2
tp48
a(S'tr_th'
I0
tp49
a(S'w'
I7339
tp50
a(S'ch_no'
I0
tp51
a(S'ch_tr'
I1
tp52
a(S'ch_p2'
I1
tp53
a(S'ch_p1'
I1
tp54
a(S'w'
I1
tp55
a(S'tr_tl'
I125
tp56
a(S'tr_ll'
I2
tp57
a(S'tr_th'
I1
tp58
a(S'w'
I7331
tp59
a(S'ch_no'
I0
tp60
a(S'ch_tr'
I1
tp61
a(S'ch_p2'
I1
tp62
a(S'ch_p1'
I1
tp63
a(S'w'
I1
tp64
a(S'p1_ll'
I2
tp65
a(S'w'
I9
tp66
a(S'ch_no'
I0
tp67
a(S'ch_tr'
I1
tp68
a(S'ch_p2'
I1
tp69
a(S'ch_p1'
I1
tp70
a(S'w'
I1
tp71
a(S'p2_ll'
I2
tp72
a(S'w'
I8
tp73
a(S'ch_no'
I0
tp74
a(S'ch_tr'
I1
tp75
a(S'ch_p2'
I1
tp76
a(S'ch_p1'
I1
tp77
a(S'w'
I1
tp78
a(S'tr_tl'
I190
tp79
a(S'tr_ll'
I2
tp80
a(S'tr_th'
I0
tp81
a(S'w'
I7318
tp82
a(S'ch_no'
I0
tp83
a(S'ch_tr'
I1
tp84
a(S'ch_p2'
I1
tp85
a(S'ch_p1'
I1
tp86
a(S'w'
I1
tp87
a(S'p1_tl'
I201
tp88
a(S'p1_ll'
I2
tp89
a(S'w'
I9
tp90
a(S'ch_no'
I0
tp91
a(S'ch_tr'
I1
tp92
a(S'ch_p2'
I1
tp93
a(S'ch_p1'
I1
tp94
a(S'p2_tl'
I83
tp95
a(S'w'
I1
tp96
a(S'p2_ll'
I2
tp97
a(S'w'
I11
tp98
a(S'ch_no'
I0
tp99
a(S'ch_tr'
I1
tp100
a(S'ch_p2'
I1
tp101
a(S'ch_p1'
I1
tp102
a(S'tr_tl'
I125
tp103
a(S'w'
I1
tp104
a(S'tr_ll'
I2
tp105
a(S'tr_th'
I1
tp106
a(S'w'
I7315
tp107
a(S'ch_no'
I0
tp108
a(S'ch_tr'
I1
tp109
a(S'ch_p2'
I1
tp110
a(S'ch_p1'
I1
tp111
a(S'w'
I1
tp112
a(S'p1_ll'
I2
tp113
a(S'w'
I9
tp114
a(S'ch_no'
I0
tp115
a(S'ch_tr'
I1
tp116
a(S'ch_p2'
I1
tp117
a(S'ch_p1'
I1
tp118
a(S'w'
I1
tp119
a(S'p2_ll'
I2
tp120
a(S'w'
I8
tp121
a(S'ch_no'
I0
tp122
a(S'ch_tr'
I1
tp123
a(S'ch_p2'
I1
tp124
a(S'ch_p1'
I1
tp125
a(S'w'
I1
tp126
a(S'tr_tl'
I190
tp127
a(S'tr_ll'
I2
tp128
a(S'tr_th'
I0
tp129
a(S'w'
I7319
tp130
a(S'ch_no'
I0
tp131
a(S'ch_tr'
I1
tp132
a(S'ch_p2'
I1
tp133
a(S'ch_p1'
I1
tp134
a(S'p1_ll'
I2
tp135
a(S'w'
I9
tp136
a(S'ch_no'
I0
tp137
a(S'ch_tr'
I1
tp138
a(S'ch_p2'
I1
tp139
a(S'ch_p1'
I1
tp140
a(S'w'
I1
tp141
a(S'p2_ll'
I2
tp142
a(S'w'
I11
tp143
a(S'ch_no'
I0
tp144
a(S'ch_tr'
I1
tp145
a(S'ch_p2'
I1
tp146
a(S'ch_p1'
I1
tp147
a(S'w'
I1
tp148
a(S'tr_tl'
I125
tp149
a(S'tr_ll'
I2
tp150
a(S'tr_th'
I1
tp151
a(S'w'
I7315
tp152
a(S'ch_no'
I0
tp153
a(S'ch_tr'
I1
tp154
a(S'ch_p2'
I1
tp155
a(S'ch_p1'
I1
tp156
a(S'w'
I1
tp157
a(S'p1_tl'
I190
tp158
a(S'p1_ll'
I2
tp159
a(S'w'
I9
tp160
a(S'ch_no'
I0
tp161
a(S'ch_tr'
I1
tp162
a(S'ch_p2'
I1
tp163
a(S'ch_p1'
I1
tp164
a(S'p2_tl'
I46
tp165
a(S'w'
I1
tp166
a(S'p2_ll'
I2
tp167
a(S'w'
I8
tp168
a(S'ch_no'
I0
tp169
a(S'ch_tr'
I1
tp170
a(S'ch_p2'
I1
tp171
a(S'ch_p1'
I1
tp172
a(S'w'
I1
tp173
a(S'tr_tl'
I190
tp174
a(S'tr_ll'
I2
tp175
a(S'tr_th'
I0
tp176
a(S'w'
I7332
tp177
a(S'ch_no'
I0
tp178
a(S'ch_tr'
I1
tp179
a(S'ch_p2'
I1
tp180
a(S'ch_p1'
I1
tp181
a(S'w'
I1
tp182
a(S'tr_tl'
I125
tp183
a(S'tr_ll'
I2
tp184
a(S'tr_th'
I1
tp185
a(S'w'
I7324
tp186
a(S'ch_no'
I0
tp187
a(S'ch_tr'
I1
tp188
a(S'ch_p2'
I1
tp189
a(S'ch_p1'
I1
tp190
a(S'p1_ll'
I2
tp191
a(S'w'
I9
tp192
a(S'ch_no'
I0
tp193
a(S'ch_tr'
I1
tp194
a(S'ch_p2'
I1
tp195
a(S'ch_p1'
I1
tp196
a(S'w'
I1
tp197
a(S'p2_ll'
I2
tp198
a(S'w'
I8
tp199
a(S'ch_no'
I0
tp200
a(S'ch_tr'
I1
tp201
a(S'ch_p2'
I1
tp202
a(S'ch_p1'
I1
tp203
a(S'w'
I1
tp204
a(S'tr_tl'
I190
tp205
a(S'tr_ll'
I2
tp206
a(S'tr_th'
I0
tp207
a(S'w'
I7319
tp208
a(S'ch_no'
I0
tp209
a(S'ch_tr'
I1
tp210
a(S'ch_p2'
I1
tp211
a(S'ch_p1'
I1
tp212
a(S'p1_tl'
I201
tp213
a(S'w'
I1
tp214
a(S'p1_ll'
I2
tp215
a(S'w'
I8
tp216
a(S'ch_no'
I0
tp217
a(S'ch_tr'
I1
tp218
a(S'ch_p2'
I1
tp219
a(S'ch_p1'
I1
tp220
a(S'w'
I1
tp221
a(S'p2_tl'
I83
tp222
a(S'p2_ll'
I2
tp223
a(S'w'
I11
tp224
a(S'ch_no'
I0
tp225
a(S'ch_tr'
I1
tp226
a(S'ch_p2'
I1
tp227
a(S'ch_p1'
I1
tp228
a(S'w'
I1
tp229
a(S'tr_tl'
I125
tp230
a(S'tr_ll'
I2
tp231
a(S'tr_th'
I1
tp232
a(S'w'
I7327
tp233
a(S'ch_no'
I0
tp234
a(S'ch_tr'
I1
tp235
a(S'ch_p2'
I1
tp236
a(S'ch_p1'
I1
tp237
a(S'w'
I1
tp238
a(S'tr_tl'
I190
tp239
a(S'tr_ll'
I2
tp240
a(S'tr_th'
I0
tp241
a(S'w'
I7325
tp242
a(S'ch_no'
I0
tp243
a(S'ch_tr'
I1
tp244
a(S'ch_p2'
I1
tp245
a(S'ch_p1'
I1
tp246
a(S'w'
I1
tp247
a(S'p1_tl'
I254
tp248
a(S'p1_ll'
I2
tp249
a(S'w'
I8
tp250
a(S'ch_no'
I0
tp251
a(S'ch_tr'
I1
tp252
a(S'ch_p2'
I1
tp253
a(S'ch_p1'
I1
tp254
a(S'w'
I1
tp255
a(S'p2_tl'
I125
tp256
a(S'p2_ll'
I2
tp257
a(S'w'
I11
tp258
a(S'ch_no'
I0
tp259
a(S'ch_tr'
I1
tp260
a(S'ch_p2'
I1
tp261
a(S'ch_p1'
I1
tp262
a(S'w'
I1
tp263
a(S'tr_tl'
I125
tp264
a(S'tr_ll'
I2
tp265
a(S'tr_th'
I1
tp266
a(S'w'
I7328
tp267
a(S'ch_no'
I0
tp268
a(S'ch_tr'
I1
tp269
a(S'ch_p2'
I1
tp270
a(S'ch_p1'
I1
tp271
a(S'w'
I1
tp272
a(S'tr_tl'
I190
tp273
a(S'tr_ll'
I2
tp274
a(S'tr_th'
I0
tp275
a(S'w'
I7326
tp276
a(S'ch_no'
I0
tp277
a(S'ch_tr'
I1
tp278
a(S'ch_p2'
I1
tp279
a(S'ch_p1'
I1
tp280
a(S'p1_tl'
I201
tp281
a(S'w'
I1
tp282
a(S'p1_ll'
I2
tp283
a(S'w'
I8
tp284
a(S'ch_no'
I0
tp285
a(S'ch_tr'
I1
tp286
a(S'ch_p2'
I1
tp287
a(S'ch_p1'
I1
tp288
a(S'w'
I1
tp289
a(S'p2_tl'
I83
tp290
a(S'p2_ll'
I2
tp291
a(S'w'
I11
tp292
a(S'ch_no'
I0
tp293
a(S'ch_tr'
I1
tp294
a(S'ch_p2'
I1
tp295
a(S'ch_p1'
I1
tp296
a(S'w'
I1
tp297
a(S'tr_tl'
I125
tp298
a(S'tr_ll'
I2
tp299
a(S'tr_th'
I1
tp300
a(S'w'
I7327
tp301
a(S'ch_no'
I0
tp302
a(S'ch_tr'
I1
tp303
a(S'ch_p2'
I1
tp304
a(S'ch_p1'
I1
tp305
a(S'w'
I1
tp306
a(S'tr_tl'
I190
tp307
a(S'tr_ll'
I2
tp308
a(S'tr_th'
I0
tp309
a(S'w'
I7326
tp310
a(S'ch_no'
I0
tp311
a(S'ch_tr'
I1
tp312
a(S'ch_p2'
I1
tp313
a(S'ch_p1'
I1
tp314
a(S'p1_tl'
I190
tp315
a(S'w'
I1
tp316
a(S'p1_ll'
I10
tp317
a(S'w'
I8
tp318
a(S'ch_no'
I0
tp319
a(S'ch_tr'
I1
tp320
a(S'ch_p2'
I1
tp321
a(S'ch_p1'
I1
tp322
a(S'w'
I1
tp323
a(S'p2_tl'
I46
tp324
a(S'p2_ll'
I10
tp325
a(S'w'
I11
tp326
a(S'ch_no'
I0
tp327
a(S'ch_tr'
I1
tp328
a(S'ch_p2'
I1
tp329
a(S'ch_p1'
I1
tp330
a(S'w'
I1
tp331
a(S'tr_tl'
I125
tp332
a(S'tr_ll'
I2
tp333
a(S'tr_th'
I1
tp334
a(S'w'
I7319
tp335
a(S'ch_no'
I0
tp336
a(S'ch_tr'
I1
tp337
a(S'ch_p2'
I1
tp338
a(S'ch_p1'
I1
tp339
a(S'w'
I1
tp340
a(S'tr_tl'
I190
tp341
a(S'tr_ll'
I2
tp342
a(S'tr_th'
I0
tp343
a(S'w'
I7339
tp344
a(S'ch_no'
I0
tp345
a(S'ch_tr'
I1
tp346
a(S'ch_p2'
I1
tp347
a(S'ch_p1'
I1
tp348
a(S'w'
I1
tp349
a(S'tr_tl'
I125
tp350
a(S'tr_ll'
I2
tp351
a(S'tr_th'
I1
tp352
a(S'w'
I7332
tp353
a(S'ch_no'
I0
tp354
a(S'ch_tr'
I1
tp355
a(S'ch_p2'
I1
tp356
a(S'ch_p1'
I1
tp357
a(S'w'
I1
tp358
a(S'p1_ll'
I2
tp359
a(S'w'
I8
tp360
a(S'ch_no'
I0
tp361
a(S'ch_tr'
I1
tp362
a(S'ch_p2'
I1
tp363
a(S'ch_p1'
I1
tp364
a(S'w'
I1
tp365
a(S'p2_ll'
I2
tp366
a(S'w'
I8
tp367
a(S'ch_no'
I0
tp368
a(S'ch_tr'
I1
tp369
a(S'ch_p2'
I1
tp370
a(S'ch_p1'
I1
tp371
a(S'w'
I1
tp372
a(S'tr_tl'
I190
tp373
a(S'tr_ll'
I2
tp374
a(S'tr_th'
I0
tp375
a(S'w'
I7319
tp376
a(S'ch_no'
I0
tp377
a(S'ch_tr'
I1
tp378
a(S'ch_p2'
I1
tp379
a(S'ch_p1'
I1
tp380
a(S'p1_tl'
I201
tp381
a(S'w'
I1
tp382
a(S'p1_ll'
I2
tp383
a(S'w'
I8
tp384
a(S'ch_no'
I0
tp385
a(S'ch_tr'
I1
tp386
a(S'ch_p2'
I1
tp387
a(S'ch_p1'
I1
tp388
a(S'w'
I1
tp389
a(S'p2_tl'
I83
tp390
a(S'p2_ll'
I2
tp391
a(S'w'
I11
tp392
a(S'ch_no'
I0
tp393
a(S'ch_tr'
I1
tp394
a(S'ch_p2'
I1
tp395
a(S'ch_p1'
I1
tp396
a(S'w'
I1
tp397
a(S'tr_tl'
I125
tp398
a(S'tr_ll'
I2
tp399
a(S'tr_th'
I1
tp400
a(S'w'
I7316
tp401
a(S'ch_no'
I0
tp402
a(S'ch_tr'
I1
tp403
a(S'ch_p2'
I1
tp404
a(S'ch_p1'
I1
tp405
a(S'w'
I1
tp406
a(S'p1_ll'
I2
tp407
a(S'w'
I8
tp408
a(S'ch_no'
I0
tp409
a(S'ch_tr'
I1
tp410
a(S'ch_p2'
I1
tp411
a(S'ch_p1'
I1
tp412
a(S'w'
I1
tp413
a(S'p2_ll'
I2
tp414
a(S'w'
I9
tp415
a(S'ch_no'
I0
tp416
a(S'ch_tr'
I1
tp417
a(S'ch_p2'
I1
tp418
a(S'ch_p1'
I1
tp419
a(S'tr_tl'
I190
tp420
a(S'tr_ll'
I2
tp421
a(S'tr_th'
I0
tp422
a(S'w'
I7319
tp423
a(S'ch_no'
I0
tp424
a(S'ch_tr'
I1
tp425
a(S'ch_p2'
I1
tp426
a(S'ch_p1'
I1
tp427
a(S'w'
I1
tp428
a(S'p1_ll'
I2
tp429
a(S'w'
I8
tp430
a(S'ch_no'
I0
tp431
a(S'ch_tr'
I1
tp432
a(S'ch_p2'
I1
tp433
a(S'ch_p1'
I1
tp434
a(S'w'
I1
tp435
a(S'p2_ll'
I2
tp436
a(S'w'
I11
tp437
a(S'ch_no'
I0
tp438
a(S'ch_tr'
I1
tp439
a(S'ch_p2'
I1
tp440
a(S'ch_p1'
I1
tp441
a(S'w'
I1
tp442
a(S'tr_tl'
I125
tp443
a(S'tr_ll'
I2
tp444
a(S'tr_th'
I1
tp445
a(S'w'
I7316
tp446
a(S'ch_no'
I0
tp447
a(S'ch_tr'
I1
tp448
a(S'ch_p2'
I1
tp449
a(S'ch_p1'
I1
tp450
a(S'p1_tl'
I190
tp451
a(S'w'
I1
tp452
a(S'p1_ll'
I2
tp453
a(S'w'
I8
tp454
a(S'ch_no'
I0
tp455
a(S'ch_tr'
I1
tp456
a(S'ch_p2'
I1
tp457
a(S'ch_p1'
I1
tp458
a(S'w'
I1
tp459
a(S'p2_tl'
I46
tp460
a(S'p2_ll'
I2
tp461
a(S'w'
I9
tp462
a(S'ch_no'
I0
tp463
a(S'ch_tr'
I1
tp464
a(S'ch_p2'
I1
tp465
a(S'ch_p1'
I1
tp466
a(S'tr_tl'
I190
tp467
a(S'w'
I1
tp468
a(S'tr_ll'
I2
tp469
a(S'tr_th'
I0
tp470
a(S'w'
I7331
tp471
a(S'ch_no'
I0
tp472
a(S'ch_tr'
I1
tp473
a(S'ch_p2'
I1
tp474
a(S'ch_p1'
I1
tp475
a(S'w'
I1
tp476
a(S'tr_tl'
I125
tp477
a(S'tr_ll'
I2
tp478
a(S'tr_th'
I1
tp479
a(S'w'
I7324
tp480
a(S'ch_no'
I0
tp481
a(S'ch_tr'
I1
tp482
a(S'ch_p2'
I1
tp483
a(S'ch_p1'
I1
tp484
a(S'w'
I1
tp485
a(S'p1_ll'
I2
tp486
a(S'w'
I8
tp487
a(S'ch_no'
I0
tp488
a(S'ch_tr'
I1
tp489
a(S'ch_p2'
I1
tp490
a(S'ch_p1'
I1
tp491
a(S'w'
I1
tp492
a(S'p2_ll'
I2
tp493
a(S'w'
I9
tp494
a(S'ch_no'
I0
tp495
a(S'ch_tr'
I1
tp496
a(S'ch_p2'
I1
tp497
a(S'ch_p1'
I1
tp498
a(S'tr_tl'
I190
tp499
a(S'tr_ll'
I2
tp500
a(S'tr_th'
I0
tp501
a(S'w'
I7319
tp502
a(S'ch_no'
I0
tp503
a(S'ch_tr'
I1
tp504
a(S'ch_p2'
I1
tp505
a(S'ch_p1'
I1
tp506
a(S'p1_tl'
I201
tp507
a(S'w'
I1
tp508
a(S'p1_ll'
I2
tp509
a(S'w'
I8
tp510
a(S'ch_no'
I0
tp511
a(S'ch_tr'
I1
tp512
a(S'ch_p2'
I1
tp513
a(S'ch_p1'
I1
tp514
a(S'w'
I1
tp515
a(S'p2_tl'
I83
tp516
a(S'p2_ll'
I2
tp517
a(S'w'
I11
tp518
a(S'ch_no'
I0
tp519
a(S'ch_tr'
I1
tp520
a(S'ch_p2'
I1
tp521
a(S'ch_p1'
I1
tp522
a(S'w'
I1
tp523
a(S'tr_tl'
I125
tp524
a(S'tr_ll'
I2
tp525
a(S'tr_th'
I1
tp526
a(S'w'
I7327
tp527
a(S'ch_no'
I0
tp528
a(S'ch_tr'
I1
tp529
a(S'ch_p2'
I1
tp530
a(S'ch_p1'
I1
tp531
a(S'w'
I1
tp532
a(S'tr_tl'
I190
tp533
a(S'tr_ll'
I2
tp534
a(S'tr_th'
I0
tp535
a(S'w'
I7325
tp536
a(S'ch_no'
I0
tp537
a(S'ch_tr'
I1
tp538
a(S'ch_p2'
I1
tp539
a(S'ch_p1'
I1
tp540
a(S'w'
I1
tp541
a(S'p1_tl'
I254
tp542
a(S'p1_ll'
I2
tp543
a(S'w'
I9
tp544
a(S'ch_no'
I0
tp545
a(S'ch_tr'
I1
tp546
a(S'ch_p2'
I1
tp547
a(S'ch_p1'
I1
tp548
a(S'p2_tl'
I125
tp549
a(S'w'
I1
tp550
a(S'p2_ll'
I2
tp551
a(S'w'
I11
tp552
a(S'ch_no'
I0
tp553
a(S'ch_tr'
I1
tp554
a(S'ch_p2'
I1
tp555
a(S'ch_p1'
I1
tp556
a(S'tr_tl'
I125
tp557
a(S'w'
I1
tp558
a(S'tr_ll'
I2
tp559
a(S'tr_th'
I1
tp560
a(S'w'
I7327
tp561
a(S'ch_no'
I0
tp562
a(S'ch_tr'
I1
tp563
a(S'ch_p2'
I1
tp564
a(S'ch_p1'
I1
tp565
a(S'w'
I1
tp566
a(S'tr_tl'
I190
tp567
a(S'tr_ll'
I2
tp568
a(S'tr_th'
I0
tp569
a(S'w'
I7326
tp570
a(S'ch_no'
I0
tp571
a(S'ch_tr'
I1
tp572
a(S'ch_p2'
I1
tp573
a(S'ch_p1'
I1
tp574
a(S'w'
I1
tp575
a(S'p1_tl'
I201
tp576
a(S'p1_ll'
I2
tp577
a(S'w'
I8
tp578
a(S'ch_no'
I0
tp579
a(S'ch_tr'
I1
tp580
a(S'ch_p2'
I1
tp581
a(S'ch_p1'
I1
tp582
a(S'w'
I1
tp583
a(S'p2_tl'
I83
tp584
a(S'p2_ll'
I2
tp585
a(S'w'
I11
tp586
a(S'ch_no'
I0
tp587
a(S'ch_tr'
I1
tp588
a(S'ch_p2'
I1
tp589
a(S'ch_p1'
I1
tp590
a(S'w'
I1
tp591
a(S'tr_tl'
I125
tp592
a(S'tr_ll'
I2
tp593
a(S'tr_th'
I1
tp594
a(S'w'
I7327
tp595
a(S'ch_no'
I0
tp596
a(S'ch_tr'
I1
tp597
a(S'ch_p2'
I1
tp598
a(S'ch_p1'
I1
tp599
a(S'w'
I1
tp600
a(S'tr_tl'
I190
tp601
a(S'tr_ll'
I2
tp602
a(S'tr_th'
I0
tp603
a(S'w'
I7325
tp604
a(S'ch_no'
I0
tp605
a(S'ch_tr'
I1
tp606
a(S'ch_p2'
I1
tp607
a(S'ch_p1'
I1
tp608
a(S'w'
I1
tp609
a(S'p1_tl'
I29
tp610
a(S'p1_ll'
I2
tp611
a(S'p1_th'
I1
tp612
a(S'w'
I9
tp613
a(S'ch_no'
I0
tp614
a(S'ch_tr'
I1
tp615
a(S'ch_p2'
I1
tp616
a(S'ch_p1'
I1
tp617
a(S'w'
I1
tp618
a(S'p2_ll'
I2
tp619
a(S'w'
I10
tp620
a(S'ch_no'
I0
tp621
a(S'ch_tr'
I1
tp622
a(S'ch_p2'
I1
tp623
a(S'ch_p1'
I1
tp624
a(S'tr_tl'
I254
tp625
a(S'tr_ll'
I2
tp626
a(S'w'
I7320
tp627
a(S'ch_no'
I0
tp628
a(S'ch_tr'
I1
tp629
a(S'ch_p2'
I1
tp630
a(S'ch_p1'
I1
tp631
a(S'w'
I1
tp632
a(S'p1_ll'
I2
tp633
a(S'w'
I12
tp634
a(S'ch_no'
I0
tp635
a(S'ch_tr'
I1
tp636
a(S'ch_p2'
I1
tp637
a(S'ch_p1'
I1
tp638
a(S'w'
I1
tp639
a(S'p2_ll'
I2
tp640
a(S'w'
I11
tp641
a(S'ch_no'
I0
tp642
a(S'ch_tr'
I1
tp643
a(S'ch_p2'
I1
tp644
a(S'ch_p1'
I1
tp645
a(S'w'
I1
tp646
a(S'tr_ll'
I2
tp647
a(S'w'
I7312
tp648
a(S'ch_no'
I0
tp649
a(S'ch_tr'
I1
tp650
a(S'ch_p2'
I1
tp651
a(S'ch_p1'
I1
tp652
a(S'w'
I1
tp653
a(S'p1_ll'
I2
tp654
a(S'w'
I12
tp655
a(S'ch_no'
I0
tp656
a(S'ch_tr'
I1
tp657
a(S'ch_p2'
I1
tp658
a(S'ch_p1'
I1
tp659
a(S'p2_ll'
I2
tp660
a(S'w'
I12
tp661
a(S'ch_no'
I0
tp662
a(S'ch_tr'
I1
tp663
a(S'ch_p2'
I1
tp664
a(S'ch_p1'
I1
tp665
a(S'w'
I1
tp666
a(S'tr_ll'
I2
tp667
a(S'w'
I7312
tp668
a(S'ch_no'
I0
tp669
a(S'ch_tr'
I1
tp670
a(S'ch_p2'
I1
tp671
a(S'ch_p1'
I1
tp672
a(S'w'
I1
tp673
a(S'p1_ll'
I2
tp674
a(S'w'
I12
tp675
a(S'ch_no'
I0
tp676
a(S'ch_tr'
I1
tp677
a(S'ch_p2'
I1
tp678
a(S'ch_p1'
I1
tp679
a(S'w'
I1
tp680
a(S'p2_ll'
I2
tp681
a(S'w'
I11
tp682
a(S'ch_no'
I0
tp683
a(S'ch_tr'
I1
tp684
a(S'ch_p2'
I1
tp685
a(S'ch_p1'
I1
tp686
a(S'w'
I1
tp687
a(S'tr_ll'
I2
tp688
a(S'w'
I7312
tp689
a(S'ch_no'
I0
tp690
a(S'ch_tr'
I1
tp691
a(S'ch_p2'
I1
tp692
a(S'ch_p1'
I1
tp693
a(S'w'
I1
tp694
a(S'p1_ll'
I2
tp695
a(S'w'
I12
tp696
a(S'ch_no'
I0
tp697
a(S'ch_tr'
I1
tp698
a(S'ch_p2'
I1
tp699
a(S'ch_p1'
I1
tp700
a(S'w'
I1
tp701
a(S'p2_ll'
I2
tp702
a(S'w'
I11
tp703
a(S'ch_no'
I0
tp704
a(S'ch_tr'
I1
tp705
a(S'ch_p2'
I1
tp706
a(S'ch_p1'
I1
tp707
a(S'w'
I1
tp708
a(S'tr_ll'
I2
tp709
a(S'w'
I7312
tp710
a(S'ch_no'
I0
tp711
a(S'ch_tr'
I1
tp712
a(S'ch_p2'
I1
tp713
a(S'ch_p1'
I1
tp714
a(S'w'
I1
tp715
a(S'p1_ll'
I2
tp716
a(S'w'
I12
tp717
a(S'ch_no'
I0
tp718
a(S'ch_tr'
I1
tp719
a(S'ch_p2'
I1
tp720
a(S'ch_p1'
I1
tp721
a(S'p2_ll'
I2
tp722
a(S'w'
I12
tp723
a(S'ch_no'
I0
tp724
a(S'ch_tr'
I1
tp725
a(S'ch_p2'
I1
tp726
a(S'ch_p1'
I1
tp727
a(S'w'
I1
tp728
a(S'tr_ll'
I2
tp729
a(S'w'
I14648
tp730
a(S'ch_no'
I0
tp731
a(S'ch_tr'
I1
tp732
a(S'ch_p2'
I1
tp733
a(S'ch_p1'
I1
tp734
a(S'p1_tl'
I254
tp735
a(S'p1_ll'
I2
tp736
a(S'p1_th'
I0
tp737
a(S'w'
I9
tp738
a(S'ch_no'
I0
tp739
a(S'ch_tr'
I1
tp740
a(S'ch_p2'
I1
tp741
a(S'ch_p1'
I1
tp742
a(S'w'
I1
tp743
a(S'p2_tl'
I46
tp744
a(S'p2_ll'
I2
tp745
a(S'w'
I8
tp746
a(S'ch_no'
I0
tp747
a(S'ch_tr'
I1
tp748
a(S'ch_p2'
I1
tp749
a(S'ch_p1'
I1
tp750
a(S'w'
I1
tp751
a(S'tr_tl'
I190
tp752
a(S'tr_ll'
I2
tp753
a(S'w'
I14657
tp754
a(S'ch_no'
I0
tp755
a(S'ch_tr'
I1
tp756
a(S'ch_p2'
I1
tp757
a(S'ch_p1'
I1
tp758
a(S'w'
I1
tp759
a(S'p1_ll'
I2
tp760
a(S'w'
I8
tp761
a(S'ch_no'
I0
tp762
a(S'ch_tr'
I1
tp763
a(S'ch_p2'
I1
tp764
a(S'ch_p1'
I1
tp765
a(S'w'
I1
tp766
a(S'p2_ll'
I2
tp767
a(S'w'
I8
tp768
a(S'ch_no'
I0
tp769
a(S'ch_tr'
I1
tp770
a(S'ch_p2'
I1
tp771
a(S'ch_p1'
I1
tp772
a(S'w'
I1
tp773
a(S'tr_ll'
I2
tp774
a(S'w'
I7319
tp775
a(S'ch_no'
I0
tp776
a(S'ch_tr'
I1
tp777
a(S'ch_p2'
I1
tp778
a(S'ch_p1'
I1
tp779
a(S'p1_tl'
I29
tp780
a(S'w'
I1
tp781
a(S'p1_ll'
I2
tp782
a(S'p1_th'
I1
tp783
a(S'w'
I8
tp784
a(S'ch_no'
I0
tp785
a(S'ch_tr'
I1
tp786
a(S'ch_p2'
I1
tp787
a(S'ch_p1'
I1
tp788
a(S'w'
I1
tp789
a(S'p2_tl'
I83
tp790
a(S'p2_ll'
I2
tp791
a(S'w'
I8
tp792
a(S'ch_no'
I0
tp793
a(S'ch_tr'
I1
tp794
a(S'ch_p2'
I1
tp795
a(S'ch_p1'
I1
tp796
a(S'w'
I1
tp797
a(S'tr_tl'
I254
tp798
a(S'tr_ll'
I2
tp799
a(S'w'
I14658
tp800
a(S'ch_no'
I0
tp801
a(S'ch_tr'
I1
tp802
a(S'ch_p2'
I1
tp803
a(S'ch_p1'
I1
tp804
a(S'w'
I1
tp805
a(S'p1_cv'
I1
tp806
a(S'p1_vo'
I15
tp807
a(S'w'
I1
tp808
a(S'p1_tl'
I254
tp809
a(S'p1_ll'
I6
tp810
a(S'p1_th'
I0
tp811
a(S'w'
I10
tp812
a(S'ch_no'
I0
tp813
a(S'ch_tr'
I1
tp814
a(S'ch_p2'
I1
tp815
a(S'ch_p1'
I1
tp816
a(S'w'
I1
tp817
a(S'p2_cv'
I1
tp818
a(S'p2_vo'
I15
tp819
a(S'p2_tl'
I46
tp820
a(S'p2_ll'
I6
tp821
a(S'w'
I9
tp822
a(S'ch_no'
I0
tp823
a(S'ch_tr'
I1
tp824
a(S'ch_p2'
I1
tp825
a(S'ch_p1'
I1
tp826
a(S'w'
I1
tp827
a(S'tr_tl'
I190
tp828
a(S'tr_ll'
I6
tp829
a(S'w'
I29328
tp830
a(S'ch_no'
I0
tp831
a(S'ch_tr'
I1
tp832
a(S'ch_p2'
I1
tp833
a(S'ch_p1'
I1
tp834
a(S'w'
I1
tp835
a(S'p1_ll'
I2
tp836
a(S'w'
I8
tp837
a(S'ch_no'
I0
tp838
a(S'ch_tr'
I1
tp839
a(S'ch_p2'
I1
tp840
a(S'ch_p1'
I1
tp841
a(S'w'
I1
tp842
a(S'p2_ll'
I2
tp843
a(S'w'
I8
tp844
a(S'ch_no'
I0
tp845
a(S'ch_tr'
I1
tp846
a(S'ch_p2'
I1
tp847
a(S'ch_p1'
I1
tp848
a(S'w'
I1
tp849
a(S'tr_ll'
I2
tp850
a.