(lp1
(S'clock'
p2
I1789772
tp3
a(S'p1_du'
I2
tp4
a(S'p1_cv'
I1
tp5
a(S'p1_vo'
I15
tp6
a(S'p1_se'
I1
tp7
a(S'p1_sp'
I6
tp8
a(S'p1_sn'
I1
tp9
a(S'p1_ss'
I6
tp10
a(S'p1_tl'
I166
tp11
a(S'p1_ll'
I0
tp12
a(S'p1_th'
I2
tp13
a(S'p2_du'
I3
tp14
a(S'p2_cv'
I1
tp15
a(S'p2_vo'
I15
tp16
a(S'p2_tl'
I174
tp17
a(S'p2_ll'
I24
tp18
a(S'p2_th'
I6
tp19
a(S'tr_lr'
I64
tp20
a(S'tr_tl'
I171
tp21
a(S'tr_ll'
I22
tp22
a(S'tr_th'
I1
tp23
a(S'no_vo'
I10
tp24
a(S'no_np'
I3
tp25
a(S'no_ll'
I24
tp26
a(S'ch_no'
I0
tp27
a(S'ch_tr'
I0
tp28
a(S'ch_p2'
I0
tp29
a(S'ch_p1'
I1
tp30
a(S'fc_mo'
I0
tp31
a(S'w'
I6506
tp32
a(S'ch_no'
I0
tp33
a(S'ch_tr'
I0
tp34
a(S'ch_p2'
I0
tp35
a(S'ch_p1'
I0
tp36
a(S'w'
I4
tp37
a(S'ch_no'
I0
tp38
a(S'ch_tr'
I0
tp39
a(S'ch_p2'
I0
tp40
a(S'ch_p1'
I0
tp41
a(S'w'
I370
tp42
a(S'ch_no'
I0
tp43
a(S'ch_tr'
I0
tp44
a(S'ch_p2'
I0
tp45
a(S'ch_p1'
I0
tp46
a(S'w'
I378
tp47
a(S'ch_no'
I0
tp48
a(S'ch_tr'
I0
tp49
a(S'ch_p2'
I0
tp50
a(S'ch_p1'
I1
tp51
a(S'p1_se'
I0
tp52
a(S'p1_sp'
I0
tp53
a(S'p1_sn'
I0
tp54
a(S'p1_ss'
I0
tp55
a(S'p1_du'
I3
tp56
a(S'p1_cv'
I0
tp57
a(S'p1_vo'
I2
tp58
a(S'w'
I1
tp59
a(S'p1_tl'
I226
tp60
a(S'p1_ll'
I2
tp61
a(S'p1_th'
I0
tp62
a(S'w'
I8
tp63
a(S'ch_no'
I0
tp64
a(S'ch_tr'
I0
tp65
a(S'ch_p2'
I1
tp66
a(S'ch_p1'
I1
tp67
a(S'w'
I1
tp68
a(S'p2_cv'
I0
tp69
a(S'p2_vo'
I2
tp70
a(S'p2_tl'
I29
tp71
a(S'w'
I1
tp72
a(S'p2_ll'
I2
tp73
a(S'p2_th'
I1
tp74
a(S'w'
I9
tp75
a(S'ch_no'
I0
tp76
a(S'ch_tr'
I1
tp77
a(S'ch_p2'
I1
tp78
a(S'ch_p1'
I1
tp79
a(S'w'
I1
tp80
a(S'tr_lr'
I127
tp81
a(S'tr_tl'
I84
tp82
a(S'tr_ll'
I2
tp83
a(S'tr_th'
I0
tp84
a(S'w'
I7304
tp85
a(S'ch_no'
I0
tp86
a(S'ch_tr'
I1
tp87
a(S'ch_p2'
I1
tp88
a(S'ch_p1'
I1
tp89
a(S'w'
I1
tp90
a(S'p1_ll'
I2
tp91
a(S'w'
I8
tp92
a(S'ch_no'
I0
tp93
a(S'ch_tr'
I1
tp94
a(S'ch_p2'
I1
tp95
a(S'ch_p1'
I1
tp96
a(S'w'
I1
tp97
a(S'p2_ll'
I2
tp98
a(S'w'
I9
tp99
a(S'ch_no'
I0
tp100
a(S'ch_tr'
I1
tp101
a(S'ch_p2'
I1
tp102
a(S'ch_p1'
I1
tp103
a(S'w'
I1
tp104
a(S'tr_ll'
I2
tp105
a(S'w'
I7320
tp106
a(S'ch_no'
I0
tp107
a(S'ch_tr'
I1
tp108
a(S'ch_p2'
I1
tp109
a(S'ch_p1'
I1
tp110
a(S'p1_vo'
I12
tp111
a(S'w'
I1
tp112
a(S'p1_tl'
I254
tp113
a(S'p1_ll'
I0
tp114
a(S'w'
I10
tp115
a(S'ch_no'
I0
tp116
a(S'ch_tr'
I1
tp117
a(S'ch_p2'
I1
tp118
a(S'ch_p1'
I1
tp119
a(S'w'
I1
tp120
a(S'p2_vo'
I12
tp121
a(S'p2_tl'
I46
tp122
a(S'w'
I1
tp123
a(S'p2_ll'
I0
tp124
a(S'w'
I9
tp125
a(S'ch_no'
I0
tp126
a(S'ch_tr'
I1
tp127
a(S'ch_p2'
I1
tp128
a(S'ch_p1'
I1
tp129
a(S'tr_tl'
I95
tp130
a(S'tr_ll'
I0
tp131
a(S'w'
I3645
tp132
a(S'ch_no'
I0
tp133
a(S'ch_tr'
I1
tp134
a(S'ch_p2'
I1
tp135
a(S'ch_p1'
I1
tp136
a(S'w'
I1
tp137
a(S'p1_ll'
I0
tp138
a(S'w'
I8
tp139
a(S'ch_no'
I0
tp140
a(S'ch_tr'
I1
tp141
a(S'ch_p2'
I1
tp142
a(S'ch_p1'
I1
tp143
a(S'w'
I1
tp144
a(S'p2_ll'
I0
tp145
a(S'w'
I9
tp146
a(S'ch_no'
I0
tp147
a(S'ch_tr'
I1
tp148
a(S'ch_p2'
I1
tp149
a(S'ch_p1'
I1
tp150
a(S'w'
I1
tp151
a(S'tr_ll'
I0
tp152
a(S'w'
I3649
tp153
a(S'ch_no'
I0
tp154
a(S'ch_tr'
I1
tp155
a(S'ch_p2'
I1
tp156
a(S'ch_p1'
I1
tp157
a(S'w'
I1
tp158
a(S'p1_ll'
I0
tp159
a(S'w'
I8
tp160
a(S'ch_no'
I0
tp161
a(S'ch_tr'
I1
tp162
a(S'ch_p2'
I1
tp163
a(S'ch_p1'
I1
tp164
a(S'w'
I1
tp165
a(S'p2_ll'
I0
tp166
a(S'w'
I9
tp167
a(S'ch_no'
I0
tp168
a(S'ch_tr'
I1
tp169
a(S'ch_p2'
I1
tp170
a(S'ch_p1'
I1
tp171
a(S'w'
I1
tp172
a(S'tr_ll'
I0
tp173
a(S'w'
I3649
tp174
a(S'ch_no'
I0
tp175
a(S'ch_tr'
I1
tp176
a(S'ch_p2'
I1
tp177
a(S'ch_p1'
I1
tp178
a(S'w'
I1
tp179
a(S'p1_ll'
I0
tp180
a(S'w'
I8
tp181
a(S'ch_no'
I0
tp182
a(S'ch_tr'
I1
tp183
a(S'ch_p2'
I1
tp184
a(S'ch_p1'
I1
tp185
a(S'w'
I1
tp186
a(S'p2_ll'
I0
tp187
a(S'w'
I9
tp188
a(S'ch_no'
I0
tp189
a(S'ch_tr'
I1
tp190
a(S'ch_p2'
I1
tp191
a(S'ch_p1'
I1
tp192
a(S'w'
I1
tp193
a(S'tr_ll'
I0
tp194
a(S'w'
I3651
tp195
a(S'ch_no'
I0
tp196
a(S'ch_tr'
I1
tp197
a(S'ch_p2'
I1
tp198
a(S'ch_p1'
I1
tp199
a(S'p1_vo'
I2
tp200
a(S'w'
I1
tp201
a(S'p1_tl'
I29
tp202
a(S'p1_ll'
I2
tp203
a(S'p1_th'
I1
tp204
a(S'w'
I10
tp205
a(S'ch_no'
I0
tp206
a(S'ch_tr'
I1
tp207
a(S'ch_p2'
I1
tp208
a(S'ch_p1'
I1
tp209
a(S'w'
I1
tp210
a(S'p2_vo'
I2
tp211
a(S'p2_tl'
I83
tp212
a(S'w'
I1
tp213
a(S'p2_ll'
I2
tp214
a(S'w'
I9
tp215
a(S'ch_no'
I0
tp216
a(S'ch_tr'
I1
tp217
a(S'ch_p2'
I1
tp218
a(S'ch_p1'
I1
tp219
a(S'tr_tl'
I106
tp220
a(S'tr_ll'
I2
tp221
a(S'w'
I7314
tp222
a(S'ch_no'
I0
tp223
a(S'ch_tr'
I1
tp224
a(S'ch_p2'
I1
tp225
a(S'ch_p1'
I1
tp226
a(S'w'
I1
tp227
a(S'p1_ll'
I2
tp228
a(S'w'
I8
tp229
a(S'ch_no'
I0
tp230
a(S'ch_tr'
I1
tp231
a(S'ch_p2'
I1
tp232
a(S'ch_p1'
I1
tp233
a(S'w'
I1
tp234
a(S'p2_ll'
I2
tp235
a(S'w'
I9
tp236
a(S'ch_no'
I0
tp237
a(S'ch_tr'
I1
tp238
a(S'ch_p2'
I1
tp239
a(S'ch_p1'
I1
tp240
a(S'w'
I1
tp241
a(S'tr_ll'
I2
tp242
a(S'w'
I7318
tp243
a(S'ch_no'
I0
tp244
a(S'ch_tr'
I1
tp245
a(S'ch_p2'
I1
tp246
a(S'ch_p1'
I1
tp247
a(S'p1_tl'
I46
tp248
a(S'w'
I1
tp249
a(S'p1_ll'
I2
tp250
a(S'w'
I8
tp251
a(S'ch_no'
I0
tp252
a(S'ch_tr'
I1
tp253
a(S'ch_p2'
I1
tp254
a(S'ch_p1'
I1
tp255
a(S'w'
I1
tp256
a(S'p2_tl'
I103
tp257
a(S'p2_ll'
I2
tp258
a(S'w'
I9
tp259
a(S'ch_no'
I0
tp260
a(S'ch_tr'
I1
tp261
a(S'ch_p2'
I1
tp262
a(S'ch_p1'
I1
tp263
a(S'tr_tl'
I113
tp264
a(S'w'
I1
tp265
a(S'tr_ll'
I2
tp266
a(S'w'
I7318
tp267
a(S'ch_no'
I0
tp268
a(S'ch_tr'
I1
tp269
a(S'ch_p2'
I1
tp270
a(S'ch_p1'
I1
tp271
a(S'w'
I1
tp272
a(S'p1_ll'
I2
tp273
a(S'w'
I8
tp274
a(S'ch_no'
I0
tp275
a(S'ch_tr'
I1
tp276
a(S'ch_p2'
I1
tp277
a(S'ch_p1'
I1
tp278
a(S'w'
I1
tp279
a(S'p2_ll'
I2
tp280
a(S'w'
I9
tp281
a(S'ch_no'
I0
tp282
a(S'ch_tr'
I1
tp283
a(S'ch_p2'
I1
tp284
a(S'ch_p1'
I1
tp285
a(S'w'
I1
tp286
a(S'tr_ll'
I2
tp287
a(S'w'
I7321
tp288
a(S'ch_no'
I0
tp289
a(S'ch_tr'
I1
tp290
a(S'ch_p2'
I1
tp291
a(S'ch_p1'
I1
tp292
a(S'p1_tl'
I226
tp293
a(S'w'
I1
tp294
a(S'p1_ll'
I2
tp295
a(S'p1_th'
I0
tp296
a(S'w'
I11
tp297
a(S'ch_no'
I0
tp298
a(S'ch_tr'
I1
tp299
a(S'ch_p2'
I1
tp300
a(S'ch_p1'
I1
tp301
a(S'w'
I1
tp302
a(S'p2_tl'
I29
tp303
a(S'p2_ll'
I2
tp304
a(S'w'
I12
tp305
a(S'ch_no'
I0
tp306
a(S'ch_tr'
I1
tp307
a(S'ch_p2'
I1
tp308
a(S'ch_p1'
I1
tp309
a(S'w'
I1
tp310
a(S'tr_tl'
I84
tp311
a(S'tr_ll'
I2
tp312
a(S'w'
I7309
tp313
a(S'ch_no'
I0
tp314
a(S'ch_tr'
I1
tp315
a(S'ch_p2'
I1
tp316
a(S'ch_p1'
I1
tp317
a(S'w'
I1
tp318
a(S'p1_ll'
I2
tp319
a(S'w'
I8
tp320
a(S'ch_no'
I0
tp321
a(S'ch_tr'
I1
tp322
a(S'ch_p2'
I1
tp323
a(S'ch_p1'
I1
tp324
a(S'w'
I1
tp325
a(S'p2_ll'
I2
tp326
a(S'w'
I9
tp327
a(S'ch_no'
I0
tp328
a(S'ch_tr'
I1
tp329
a(S'ch_p2'
I1
tp330
a(S'ch_p1'
I1
tp331
a(S'w'
I1
tp332
a(S'tr_ll'
I2
tp333
a(S'w'
I7320
tp334
a(S'ch_no'
I0
tp335
a(S'ch_tr'
I1
tp336
a(S'ch_p2'
I1
tp337
a(S'ch_p1'
I1
tp338
a(S'w'
I1
tp339
a(S'p1_vo'
I12
tp340
a(S'p1_tl'
I254
tp341
a(S'p1_ll'
I0
tp342
a(S'w'
I10
tp343
a(S'ch_no'
I0
tp344
a(S'ch_tr'
I1
tp345
a(S'ch_p2'
I1
tp346
a(S'ch_p1'
I1
tp347
a(S'w'
I1
tp348
a(S'p2_vo'
I12
tp349
a(S'p2_tl'
I46
tp350
a(S'w'
I1
tp351
a(S'p2_ll'
I0
tp352
a(S'w'
I9
tp353
a(S'ch_no'
I0
tp354
a(S'ch_tr'
I1
tp355
a(S'ch_p2'
I1
tp356
a(S'ch_p1'
I1
tp357
a(S'tr_tl'
I95
tp358
a(S'w'
I1
tp359
a(S'tr_ll'
I0
tp360
a(S'w'
I3644
tp361
a(S'ch_no'
I0
tp362
a(S'ch_tr'
I1
tp363
a(S'ch_p2'
I1
tp364
a(S'ch_p1'
I1
tp365
a(S'w'
I1
tp366
a(S'p1_ll'
I0
tp367
a(S'w'
I8
tp368
a(S'ch_no'
I0
tp369
a(S'ch_tr'
I1
tp370
a(S'ch_p2'
I1
tp371
a(S'ch_p1'
I1
tp372
a(S'w'
I1
tp373
a(S'p2_ll'
I0
tp374
a(S'w'
I9
tp375
a(S'ch_no'
I0
tp376
a(S'ch_tr'
I1
tp377
a(S'ch_p2'
I1
tp378
a(S'ch_p1'
I1
tp379
a(S'w'
I1
tp380
a(S'tr_ll'
I0
tp381
a(S'w'
I3649
tp382
a(S'ch_no'
I0
tp383
a(S'ch_tr'
I1
tp384
a(S'ch_p2'
I1
tp385
a(S'ch_p1'
I1
tp386
a(S'w'
I1
tp387
a(S'p1_ll'
I0
tp388
a(S'w'
I8
tp389
a(S'ch_no'
I0
tp390
a(S'ch_tr'
I1
tp391
a(S'ch_p2'
I1
tp392
a(S'ch_p1'
I1
tp393
a(S'w'
I1
tp394
a(S'p2_ll'
I0
tp395
a(S'w'
I9
tp396
a(S'ch_no'
I0
tp397
a(S'ch_tr'
I1
tp398
a(S'ch_p2'
I1
tp399
a(S'ch_p1'
I1
tp400
a(S'w'
I1
tp401
a(S'tr_ll'
I0
tp402
a(S'w'
I3649
tp403
a(S'ch_no'
I0
tp404
a(S'ch_tr'
I1
tp405
a(S'ch_p2'
I1
tp406
a(S'ch_p1'
I1
tp407
a(S'w'
I1
tp408
a(S'p1_ll'
I0
tp409
a(S'w'
I8
tp410
a(S'ch_no'
I0
tp411
a(S'ch_tr'
I1
tp412
a(S'ch_p2'
I1
tp413
a(S'ch_p1'
I1
tp414
a(S'w'
I1
tp415
a(S'p2_ll'
I0
tp416
a(S'w'
I9
tp417
a(S'ch_no'
I0
tp418
a(S'ch_tr'
I1
tp419
a(S'ch_p2'
I1
tp420
a(S'ch_p1'
I1
tp421
a(S'w'
I1
tp422
a(S'tr_ll'
I0
tp423
a(S'w'
I3651
tp424
a(S'ch_no'
I0
tp425
a(S'ch_tr'
I1
tp426
a(S'ch_p2'
I1
tp427
a(S'ch_p1'
I1
tp428
a(S'w'
I1
tp429
a(S'p1_vo'
I2
tp430
a(S'p1_tl'
I29
tp431
a(S'p1_ll'
I2
tp432
a(S'p1_th'
I1
tp433
a(S'w'
I10
tp434
a(S'ch_no'
I0
tp435
a(S'ch_tr'
I1
tp436
a(S'ch_p2'
I1
tp437
a(S'ch_p1'
I1
tp438
a(S'w'
I1
tp439
a(S'p2_vo'
I2
tp440
a(S'p2_tl'
I83
tp441
a(S'w'
I1
tp442
a(S'p2_ll'
I2
tp443
a(S'w'
I9
tp444
a(S'ch_no'
I0
tp445
a(S'ch_tr'
I1
tp446
a(S'ch_p2'
I1
tp447
a(S'ch_p1'
I1
tp448
a(S'tr_tl'
I106
tp449
a(S'w'
I1
tp450
a(S'tr_ll'
I2
tp451
a(S'w'
I7313
tp452
a(S'ch_no'
I0
tp453
a(S'ch_tr'
I1
tp454
a(S'ch_p2'
I1
tp455
a(S'ch_p1'
I1
tp456
a(S'w'
I1
tp457
a(S'p1_ll'
I2
tp458
a(S'w'
I8
tp459
a(S'ch_no'
I0
tp460
a(S'ch_tr'
I1
tp461
a(S'ch_p2'
I1
tp462
a(S'ch_p1'
I1
tp463
a(S'w'
I1
tp464
a(S'p2_ll'
I2
tp465
a(S'w'
I9
tp466
a(S'ch_no'
I0
tp467
a(S'ch_tr'
I1
tp468
a(S'ch_p2'
I1
tp469
a(S'ch_p1'
I1
tp470
a(S'w'
I1
tp471
a(S'tr_ll'
I2
tp472
a(S'w'
I7318
tp473
a(S'ch_no'
I0
tp474
a(S'ch_tr'
I1
tp475
a(S'ch_p2'
I1
tp476
a(S'ch_p1'
I1
tp477
a(S'w'
I1
tp478
a(S'p1_tl'
I46
tp479
a(S'p1_ll'
I2
tp480
a(S'w'
I8
tp481
a(S'ch_no'
I0
tp482
a(S'ch_tr'
I1
tp483
a(S'ch_p2'
I1
tp484
a(S'ch_p1'
I1
tp485
a(S'w'
I1
tp486
a(S'p2_tl'
I103
tp487
a(S'p2_ll'
I2
tp488
a(S'w'
I9
tp489
a(S'ch_no'
I0
tp490
a(S'ch_tr'
I1
tp491
a(S'ch_p2'
I1
tp492
a(S'ch_p1'
I1
tp493
a(S'tr_tl'
I113
tp494
a(S'w'
I1
tp495
a(S'tr_ll'
I2
tp496
a(S'w'
I7318
tp497
a(S'ch_no'
I0
tp498
a(S'ch_tr'
I1
tp499
a(S'ch_p2'
I1
tp500
a(S'ch_p1'
I1
tp501
a(S'w'
I1
tp502
a(S'p1_ll'
I2
tp503
a(S'w'
I8
tp504
a(S'ch_no'
I0
tp505
a(S'ch_tr'
I1
tp506
a(S'ch_p2'
I1
tp507
a(S'ch_p1'
I1
tp508
a(S'w'
I1
tp509
a(S'p2_ll'
I2
tp510
a(S'w'
I9
tp511
a(S'ch_no'
I0
tp512
a(S'ch_tr'
I1
tp513
a(S'ch_p2'
I1
tp514
a(S'ch_p1'
I1
tp515
a(S'w'
I1
tp516
a(S'tr_ll'
I2
tp517
a(S'w'
I7338
tp518
a(S'ch_no'
I0
tp519
a(S'ch_tr'
I1
tp520
a(S'ch_p2'
I1
tp521
a(S'ch_p1'
I1
tp522
a(S'w'
I1
tp523
a(S'tr_tl'
I83
tp524
a(S'tr_ll'
I7
tp525
a(S'tr_th'
I1
tp526
a(S'w'
I2184
tp527
a(S'ch_no'
I0
tp528
a(S'ch_tr'
I1
tp529
a(S'ch_p2'
I1
tp530
a(S'ch_p1'
I1
tp531
a(S'tr_tl'
I226
tp532
a(S'w'
I1
tp533
a(S'tr_ll'
I7
tp534
a(S'tr_th'
I0
tp535
a(S'w'
I2201
tp536
a(S'ch_no'
I0
tp537
a(S'ch_tr'
I1
tp538
a(S'ch_p2'
I1
tp539
a(S'ch_p1'
I1
tp540
a(S'tr_tl'
I169
tp541
a(S'tr_ll'
I7
tp542
a(S'w'
I2201
tp543
a(S'ch_no'
I0
tp544
a(S'ch_tr'
I1
tp545
a(S'ch_p2'
I1
tp546
a(S'ch_p1'
I1
tp547
a(S'w'
I1
tp548
a(S'tr_tl'
I113
tp549
a(S'tr_ll'
I7
tp550
a(S'w'
I2201
tp551
a(S'ch_no'
I0
tp552
a(S'ch_tr'
I1
tp553
a(S'ch_p2'
I1
tp554
a(S'ch_p1'
I1
tp555
a(S'tr_tl'
I84
tp556
a(S'w'
I1
tp557
a(S'tr_ll'
I7
tp558
a(S'w'
I2200
tp559
a(S'ch_no'
I0
tp560
a(S'ch_tr'
I1
tp561
a(S'ch_p2'
I1
tp562
a(S'ch_p1'
I1
tp563
a(S'tr_tl'
I113
tp564
a(S'w'
I1
tp565
a(S'tr_ll'
I7
tp566
a(S'w'
I2200
tp567
a(S'ch_no'
I0
tp568
a(S'ch_tr'
I1
tp569
a(S'ch_p2'
I1
tp570
a(S'ch_p1'
I1
tp571
a(S'w'
I1
tp572
a(S'tr_tl'
I169
tp573
a(S'tr_ll'
I7
tp574
a(S'w'
I2200
tp575
a(S'ch_no'
I0
tp576
a(S'ch_tr'
I1
tp577
a(S'ch_p2'
I1
tp578
a(S'ch_p1'
I1
tp579
a(S'w'
I1
tp580
a(S'tr_tl'
I226
tp581
a(S'tr_ll'
I7
tp582
a(S'w'
I2198
tp583
a(S'ch_no'
I0
tp584
a(S'ch_tr'
I1
tp585
a(S'ch_p2'
I1
tp586
a(S'ch_p1'
I1
tp587
a(S'w'
I1
tp588
a(S'p2_vo'
I12
tp589
a(S'w'
I1
tp590
a(S'p2_tl'
I166
tp591
a(S'p2_ll'
I7
tp592
a(S'p2_th'
I2
tp593
a(S'w'
I11
tp594
a(S'ch_no'
I0
tp595
a(S'ch_tr'
I1
tp596
a(S'ch_p2'
I1
tp597
a(S'ch_p1'
I1
tp598
a(S'w'
I1
tp599
a(S'tr_tl'
I83
tp600
a(S'tr_ll'
I7
tp601
a(S'tr_th'
I1
tp602
a(S'w'
I2188
tp603
a(S'ch_no'
I0
tp604
a(S'ch_tr'
I1
tp605
a(S'ch_p2'
I1
tp606
a(S'ch_p1'
I1
tp607
a(S'w'
I1
tp608
a(S'p2_tl'
I197
tp609
a(S'p2_ll'
I7
tp610
a(S'p2_th'
I1
tp611
a(S'w'
I8
tp612
a(S'ch_no'
I0
tp613
a(S'ch_tr'
I1
tp614
a(S'ch_p2'
I1
tp615
a(S'ch_p1'
I1
tp616
a(S'w'
I1
tp617
a(S'tr_tl'
I226
tp618
a(S'tr_ll'
I7
tp619
a(S'tr_th'
I0
tp620
a(S'w'
I2192
tp621
a(S'ch_no'
I0
tp622
a(S'ch_tr'
I1
tp623
a(S'ch_p2'
I1
tp624
a(S'ch_p1'
I1
tp625
a(S'p2_tl'
I83
tp626
a(S'w'
I1
tp627
a(S'p2_ll'
I7
tp628
a(S'w'
I8
tp629
a(S'ch_no'
I0
tp630
a(S'ch_tr'
I1
tp631
a(S'ch_p2'
I1
tp632
a(S'ch_p1'
I1
tp633
a(S'w'
I1
tp634
a(S'tr_tl'
I169
tp635
a(S'tr_ll'
I7
tp636
a(S'w'
I2191
tp637
a(S'ch_no'
I0
tp638
a(S'ch_tr'
I1
tp639
a(S'ch_p2'
I1
tp640
a(S'ch_p1'
I1
tp641
a(S'w'
I1
tp642
a(S'p2_tl'
I226
tp643
a(S'p2_ll'
I7
tp644
a(S'p2_th'
I0
tp645
a(S'w'
I9
tp646
a(S'ch_no'
I0
tp647
a(S'ch_tr'
I1
tp648
a(S'ch_p2'
I1
tp649
a(S'ch_p1'
I1
tp650
a(S'tr_tl'
I113
tp651
a(S'w'
I1
tp652
a(S'tr_ll'
I7
tp653
a(S'w'
I2191
tp654
a(S'ch_no'
I0
tp655
a(S'ch_tr'
I1
tp656
a(S'ch_p2'
I1
tp657
a(S'ch_p1'
I1
tp658
a(S'w'
I1
tp659
a(S'p2_tl'
I169
tp660
a(S'p2_ll'
I7
tp661
a(S'w'
I9
tp662
a(S'ch_no'
I0
tp663
a(S'ch_tr'
I1
tp664
a(S'ch_p2'
I1
tp665
a(S'ch_p1'
I1
tp666
a(S'w'
I1
tp667
a(S'tr_tl'
I84
tp668
a(S'tr_ll'
I7
tp669
a(S'w'
I2190
tp670
a(S'ch_no'
I0
tp671
a(S'ch_tr'
I1
tp672
a(S'ch_p2'
I1
tp673
a(S'ch_p1'
I1
tp674
a(S'w'
I1
tp675
a(S'p2_tl'
I226
tp676
a(S'p2_ll'
I7
tp677
a(S'w'
I8
tp678
a(S'ch_no'
I0
tp679
a(S'ch_tr'
I1
tp680
a(S'ch_p2'
I1
tp681
a(S'ch_p1'
I1
tp682
a(S'w'
I1
tp683
a(S'tr_tl'
I113
tp684
a(S'tr_ll'
I7
tp685
a(S'w'
I2191
tp686
a(S'ch_no'
I0
tp687
a(S'ch_tr'
I1
tp688
a(S'ch_p2'
I1
tp689
a(S'ch_p1'
I1
tp690
a(S'w'
I1
tp691
a(S'p2_tl'
I83
tp692
a(S'p2_ll'
I7
tp693
a(S'p2_th'
I1
tp694
a(S'w'
I9
tp695
a(S'ch_no'
I0
tp696
a(S'ch_tr'
I1
tp697
a(S'ch_p2'
I1
tp698
a(S'ch_p1'
I1
tp699
a(S'w'
I1
tp700
a(S'tr_tl'
I169
tp701
a(S'tr_ll'
I7
tp702
a(S'w'
I2190
tp703
a(S'ch_no'
I0
tp704
a(S'ch_tr'
I1
tp705
a(S'ch_p2'
I1
tp706
a(S'ch_p1'
I1
tp707
a(S'w'
I1
tp708
a(S'p2_tl'
I197
tp709
a(S'p2_ll'
I7
tp710
a(S'w'
I8
tp711
a(S'ch_no'
I0
tp712
a(S'ch_tr'
I1
tp713
a(S'ch_p2'
I1
tp714
a(S'ch_p1'
I1
tp715
a(S'w'
I1
tp716
a(S'tr_tl'
I226
tp717
a(S'tr_ll'
I7
tp718
a(S'w'
I2190
tp719
a(S'ch_no'
I0
tp720
a(S'ch_tr'
I1
tp721
a(S'ch_p2'
I1
tp722
a(S'ch_p1'
I1
tp723
a(S'w'
I1
tp724
a(S'p1_vo'
I12
tp725
a(S'w'
I1
tp726
a(S'p1_tl'
I83
tp727
a(S'p1_ll'
I7
tp728
a(S'w'
I11
tp729
a(S'ch_no'
I0
tp730
a(S'ch_tr'
I1
tp731
a(S'ch_p2'
I1
tp732
a(S'ch_p1'
I1
tp733
a(S'p2_tl'
I166
tp734
a(S'w'
I1
tp735
a(S'p2_ll'
I7
tp736
a(S'p2_th'
I2
tp737
a(S'w'
I11
tp738
a(S'ch_no'
I0
tp739
a(S'ch_tr'
I1
tp740
a(S'ch_p2'
I1
tp741
a(S'ch_p1'
I1
tp742
a(S'tr_tl'
I83
tp743
a(S'w'
I1
tp744
a(S'tr_ll'
I7
tp745
a(S'tr_th'
I1
tp746
a(S'w'
I2176
tp747
a(S'ch_no'
I0
tp748
a(S'ch_tr'
I1
tp749
a(S'ch_p2'
I1
tp750
a(S'ch_p1'
I1
tp751
a(S'w'
I1
tp752
a(S'p1_tl'
I226
tp753
a(S'p1_ll'
I7
tp754
a(S'p1_th'
I0
tp755
a(S'w'
I8
tp756
a(S'ch_no'
I0
tp757
a(S'ch_tr'
I1
tp758
a(S'ch_p2'
I1
tp759
a(S'ch_p1'
I1
tp760
a(S'p2_tl'
I197
tp761
a(S'w'
I1
tp762
a(S'p2_ll'
I7
tp763
a(S'p2_th'
I1
tp764
a(S'w'
I8
tp765
a(S'ch_no'
I0
tp766
a(S'ch_tr'
I1
tp767
a(S'ch_p2'
I1
tp768
a(S'ch_p1'
I1
tp769
a(S'w'
I1
tp770
a(S'tr_tl'
I226
tp771
a(S'tr_ll'
I7
tp772
a(S'tr_th'
I0
tp773
a(S'w'
I2183
tp774
a(S'ch_no'
I0
tp775
a(S'ch_tr'
I1
tp776
a(S'ch_p2'
I1
tp777
a(S'ch_p1'
I1
tp778
a(S'p1_tl'
I169
tp779
a(S'w'
I1
tp780
a(S'p1_ll'
I7
tp781
a(S'w'
I8
tp782
a(S'ch_no'
I0
tp783
a(S'ch_tr'
I1
tp784
a(S'ch_p2'
I1
tp785
a(S'ch_p1'
I1
tp786
a(S'w'
I1
tp787
a(S'p2_tl'
I83
tp788
a(S'p2_ll'
I7
tp789
a(S'w'
I8
tp790
a(S'ch_no'
I0
tp791
a(S'ch_tr'
I1
tp792
a(S'ch_p2'
I1
tp793
a(S'ch_p1'
I1
tp794
a(S'w'
I1
tp795
a(S'tr_tl'
I169
tp796
a(S'tr_ll'
I7
tp797
a(S'w'
I2182
tp798
a(S'ch_no'
I0
tp799
a(S'ch_tr'
I1
tp800
a(S'ch_p2'
I1
tp801
a(S'ch_p1'
I1
tp802
a(S'w'
I1
tp803
a(S'p1_tl'
I113
tp804
a(S'p1_ll'
I7
tp805
a(S'w'
I8
tp806
a(S'ch_no'
I0
tp807
a(S'ch_tr'
I1
tp808
a(S'ch_p2'
I1
tp809
a(S'ch_p1'
I1
tp810
a(S'w'
I1
tp811
a(S'p2_tl'
I226
tp812
a(S'p2_ll'
I7
tp813
a(S'p2_th'
I0
tp814
a(S'w'
I9
tp815
a(S'ch_no'
I0
tp816
a(S'ch_tr'
I1
tp817
a(S'ch_p2'
I1
tp818
a(S'ch_p1'
I1
tp819
a(S'w'
I1
tp820
a(S'tr_tl'
I113
tp821
a(S'tr_ll'
I7
tp822
a(S'w'
I2182
tp823
a(S'ch_no'
I0
tp824
a(S'ch_tr'
I1
tp825
a(S'ch_p2'
I1
tp826
a(S'ch_p1'
I1
tp827
a(S'w'
I1
tp828
a(S'p1_tl'
I84
tp829
a(S'p1_ll'
I7
tp830
a(S'w'
I9
tp831
a(S'ch_no'
I0
tp832
a(S'ch_tr'
I1
tp833
a(S'ch_p2'
I1
tp834
a(S'ch_p1'
I1
tp835
a(S'p2_tl'
I169
tp836
a(S'w'
I1
tp837
a(S'p2_ll'
I7
tp838
a(S'w'
I9
tp839
a(S'ch_no'
I0
tp840
a(S'ch_tr'
I1
tp841
a(S'ch_p2'
I1
tp842
a(S'ch_p1'
I1
tp843
a(S'tr_tl'
I84
tp844
a(S'w'
I1
tp845
a(S'tr_ll'
I7
tp846
a(S'w'
I2180
tp847
a(S'ch_no'
I0
tp848
a(S'ch_tr'
I1
tp849
a(S'ch_p2'
I1
tp850
a(S'ch_p1'
I1
tp851
a(S'w'
I1
tp852
a(S'p1_tl'
I113
tp853
a(S'p1_ll'
I7
tp854
a(S'w'
I8
tp855
a(S'ch_no'
I0
tp856
a(S'ch_tr'
I1
tp857
a(S'ch_p2'
I1
tp858
a(S'ch_p1'
I1
tp859
a(S'w'
I1
tp860
a(S'p2_tl'
I226
tp861
a(S'p2_ll'
I7
tp862
a(S'w'
I9
tp863
a(S'ch_no'
I0
tp864
a(S'ch_tr'
I1
tp865
a(S'ch_p2'
I1
tp866
a(S'ch_p1'
I1
tp867
a(S'tr_tl'
I113
tp868
a(S'w'
I1
tp869
a(S'tr_ll'
I7
tp870
a(S'w'
I2181
tp871
a(S'ch_no'
I0
tp872
a(S'ch_tr'
I1
tp873
a(S'ch_p2'
I1
tp874
a(S'ch_p1'
I1
tp875
a(S'w'
I1
tp876
a(S'p1_tl'
I169
tp877
a(S'p1_ll'
I7
tp878
a(S'w'
I9
tp879
a(S'ch_no'
I0
tp880
a(S'ch_tr'
I1
tp881
a(S'ch_p2'
I1
tp882
a(S'ch_p1'
I1
tp883
a(S'p2_tl'
I83
tp884
a(S'p2_ll'
I7
tp885
a(S'p2_th'
I1
tp886
a(S'w'
I9
tp887
a(S'ch_no'
I0
tp888
a(S'ch_tr'
I1
tp889
a(S'ch_p2'
I1
tp890
a(S'ch_p1'
I1
tp891
a(S'w'
I1
tp892
a(S'tr_tl'
I169
tp893
a(S'tr_ll'
I7
tp894
a(S'w'
I2181
tp895
a(S'ch_no'
I0
tp896
a(S'ch_tr'
I1
tp897
a(S'ch_p2'
I1
tp898
a(S'ch_p1'
I1
tp899
a(S'w'
I1
tp900
a(S'p1_tl'
I226
tp901
a(S'p1_ll'
I7
tp902
a(S'w'
I8
tp903
a(S'ch_no'
I0
tp904
a(S'ch_tr'
I1
tp905
a(S'ch_p2'
I1
tp906
a(S'ch_p1'
I1
tp907
a(S'w'
I1
tp908
a(S'p2_tl'
I197
tp909
a(S'p2_ll'
I7
tp910
a(S'w'
I8
tp911
a(S'ch_no'
I0
tp912
a(S'ch_tr'
I1
tp913
a(S'ch_p2'
I1
tp914
a(S'ch_p1'
I1
tp915
a(S'w'
I1
tp916
a(S'tr_tl'
I226
tp917
a(S'tr_ll'
I7
tp918
a(S'w'
I2197
tp919
a(S'ch_no'
I0
tp920
a(S'ch_tr'
I1
tp921
a(S'ch_p2'
I1
tp922
a(S'ch_p1'
I1
tp923
a(S'w'
I1
tp924
a(S'tr_tl'
I83
tp925
a(S'tr_ll'
I7
tp926
a(S'tr_th'
I1
tp927
a(S'w'
I2192
tp928
a(S'ch_no'
I0
tp929
a(S'ch_tr'
I1
tp930
a(S'ch_p2'
I1
tp931
a(S'ch_p1'
I1
tp932
a(S'w'
I1
tp933
a(S'tr_ll'
I7
tp934
a(S'w'
I2201
tp935
a(S'ch_no'
I0
tp936
a(S'ch_tr'
I1
tp937
a(S'ch_p2'
I1
tp938
a(S'ch_p1'
I1
tp939
a(S'w'
I1
tp940
a(S'tr_ll'
I7
tp941
a(S'w'
I2200
tp942
a(S'ch_no'
I0
tp943
a(S'ch_tr'
I1
tp944
a(S'ch_p2'
I1
tp945
a(S'ch_p1'
I1
tp946
a(S'w'
I1
tp947
a(S'tr_ll'
I7
tp948
a(S'w'
I2201
tp949
a(S'ch_no'
I0
tp950
a(S'ch_tr'
I1
tp951
a(S'ch_p2'
I1
tp952
a(S'ch_p1'
I1
tp953
a(S'tr_ll'
I7
tp954
a(S'w'
I1477
tp955
a.