(lp1
(S'clock'
p2
I1789772
tp3
a(S'p1_du'
I2
tp4
a(S'p1_se'
I1
tp5
a(S'p1_ss'
I3
tp6
a(S'p1_tl'
I248
tp7
a(S'p1_ll'
I1
tp8
a(S'p1_th'
I3
tp9
a(S'p2_cv'
I1
tp10
a(S'p2_sp'
I7
tp11
a(S'p2_sn'
I1
tp12
a(S'p2_ss'
I7
tp13
a(S'p2_tl'
I212
tp14
a(S'p2_ll'
I1
tp15
a(S'tr_lr'
I56
tp16
a(S'tr_tl'
I171
tp17
a(S'tr_ll'
I1
tp18
a(S'tr_th'
I1
tp19
a(S'no_np'
I1
tp20
a(S'no_ll'
I17
tp21
a(S'ch_no'
I1
tp22
a(S'ch_tr'
I1
tp23
a(S'ch_p2'
I1
tp24
a(S'ch_p1'
I1
tp25
a(S'fc_mo'
I1
tp26
a(S'no_cv'
I1
tp27
a(S'p1_du'
I0
tp28
a(S'p1_cv'
I1
tp29
a(S'w'
I1
tp30
a(S'tr_lr'
I0
tp31
a(S'w'
I6
tp32
a(S'p1_se'
I0
tp33
a(S'p1_sp'
I7
tp34
a(S'p1_sn'
I1
tp35
a(S'p1_ss'
I7
tp36
a(S'w'
I6
tp37
a(S'p1_tl'
I159
tp38
a(S'p1_ll'
I1
tp39
a(S'p1_th'
I0
tp40
a(S'w'
I1
tp41
a(S'p1_du'
I2
tp42
a(S'p1_cv'
I0
tp43
a(S'w'
I6
tp44
a(S'tr_lr'
I8
tp45
a(S'w'
I2
tp46
a(S'tr_tl'
I159
tp47
a(S'tr_ll'
I1
tp48
a(S'tr_th'
I0
tp49
a(S'w'
I2916
tp50
a(S'p1_tl'
I79
tp51
a(S'p1_ll'
I1
tp52
a(S'w'
I5
tp53
a(S'tr_tl'
I79
tp54
a(S'w'
I1
tp55
a(S'tr_ll'
I1
tp56
a(S'w'
I2931
tp57
a(S'p1_tl'
I159
tp58
a(S'w'
I1
tp59
a(S'p1_ll'
I1
tp60
a(S'w'
I8
tp61
a(S'tr_tl'
I159
tp62
a(S'tr_ll'
I1
tp63
a(S'w'
I2924
tp64
a(S'p1_tl'
I79
tp65
a(S'w'
I1
tp66
a(S'p1_ll'
I1
tp67
a(S'w'
I5
tp68
a(S'tr_tl'
I79
tp69
a(S'tr_ll'
I1
tp70
a(S'w'
I2932
tp71
a(S'p1_tl'
I159
tp72
a(S'p1_ll'
I1
tp73
a(S'w'
I8
tp74
a(S'tr_tl'
I159
tp75
a(S'w'
I1
tp76
a(S'tr_ll'
I1
tp77
a(S'w'
I2924
tp78
a(S'p1_tl'
I79
tp79
a(S'p1_ll'
I1
tp80
a(S'w'
I5
tp81
a(S'tr_tl'
I79
tp82
a(S'w'
I1
tp83
a(S'tr_ll'
I1
tp84
a(S'w'
I2931
tp85
a(S'p1_tl'
I159
tp86
a(S'p1_ll'
I1
tp87
a(S'w'
I9
tp88
a(S'tr_tl'
I159
tp89
a(S'tr_ll'
I1
tp90
a(S'w'
I2924
tp91
a(S'p1_tl'
I79
tp92
a(S'p1_ll'
I1
tp93
a(S'w'
I6
tp94
a(S'tr_tl'
I79
tp95
a(S'tr_ll'
I1
tp96
a(S'w'
I2932
tp97
a(S'p1_tl'
I159
tp98
a(S'p1_ll'
I1
tp99
a(S'w'
I8
tp100
a(S'tr_tl'
I159
tp101
a(S'tr_ll'
I1
tp102
a(S'w'
I2925
tp103
a(S'p1_tl'
I79
tp104
a(S'p1_ll'
I1
tp105
a(S'w'
I5
tp106
a(S'tr_tl'
I79
tp107
a(S'tr_ll'
I1
tp108
a(S'w'
I2639
tp109
a.