(lp1
(S'clock'
p2
I1789772
tp3
a(S'p1_cv'
I1
tp4
a(S'p1_sp'
I7
tp5
a(S'p1_sn'
I1
tp6
a(S'p1_ss'
I7
tp7
a(S'p1_tl'
I79
tp8
a(S'p1_ll'
I1
tp9
a(S'p2_du'
I2
tp10
a(S'p2_sp'
I7
tp11
a(S'p2_sn'
I1
tp12
a(S'p2_ss'
I7
tp13
a(S'p2_tl'
I28
tp14
a(S'p2_ll'
I1
tp15
a(S'p2_th'
I1
tp16
a(S'tr_tl'
I79
tp17
a(S'tr_ll'
I1
tp18
a(S'no_cv'
I1
tp19
a(S'no_np'
I1
tp20
a(S'no_ll'
I17
tp21
a(S'ch_no'
I1
tp22
a(S'ch_tr'
I1
tp23
a(S'ch_p2'
I1
tp24
a(S'ch_p1'
I1
tp25
a(S'fc_mo'
I1
tp26
a(S'tr_lr'
I24
tp27
a(S'w'
I1
tp28
a(S'tr_tl'
I168
tp29
a(S'tr_ll'
I1
tp30
a(S'w'
I724
tp31
a(S'fc_mo'
I1
tp32
a(S'w'
I740
tp33
a(S'p2_du'
I0
tp34
a(S'p2_cv'
I1
tp35
a(S'w'
I4404
tp36
a(S'tr_lr'
I0
tp37
a(S'w'
I1466
tp38
a(S'p2_tl'
I212
tp39
a(S'p2_ll'
I1
tp40
a(S'p2_th'
I0
tp41
a(S'w'
I1
tp42
a(S'p2_du'
I2
tp43
a(S'p2_cv'
I0
tp44
a(S'w'
I4403
tp45
a(S'tr_tl'
I141
tp46
a(S'tr_ll'
I1
tp47
a(S'w'
I1
tp48
a(S'tr_lr'
I24
tp49
a(S'w'
I1465
tp50
a(S'p2_tl'
I168
tp51
a(S'p2_ll'
I1
tp52
a(S'w'
I4404
tp53
a(S'tr_tl'
I105
tp54
a(S'tr_ll'
I1
tp55
a(S'w'
I1467
tp56
a(S'p2_du'
I0
tp57
a(S'p2_cv'
I1
tp58
a(S'w'
I4405
tp59
a(S'tr_lr'
I0
tp60
a(S'w'
I1466
tp61
a(S'p2_tl'
I212
tp62
a(S'p2_ll'
I1
tp63
a(S'w'
I1
tp64
a(S'p2_du'
I2
tp65
a(S'p2_cv'
I0
tp66
a(S'w'
I4403
tp67
a(S'tr_tl'
I141
tp68
a(S'tr_ll'
I1
tp69
a(S'w'
I1
tp70
a(S'tr_lr'
I24
tp71
a(S'w'
I1465
tp72
a(S'p2_tl'
I189
tp73
a(S'p2_ll'
I1
tp74
a(S'w'
I4404
tp75
a(S'tr_tl'
I118
tp76
a(S'tr_ll'
I1
tp77
a(S'w'
I1467
tp78
a(S'p2_du'
I0
tp79
a(S'p2_cv'
I1
tp80
a(S'w'
I4404
tp81
a(S'tr_lr'
I0
tp82
a(S'w'
I1466
tp83
a(S'p2_tl'
I238
tp84
a(S'p2_ll'
I1
tp85
a(S'w'
I1
tp86
a(S'p2_du'
I2
tp87
a(S'p2_cv'
I0
tp88
a(S'w'
I4403
tp89
a(S'tr_tl'
I159
tp90
a(S'tr_ll'
I1
tp91
a(S'w'
I1
tp92
a(S'tr_lr'
I24
tp93
a(S'w'
I1465
tp94
a(S'p2_tl'
I63
tp95
a(S'p2_ll'
I1
tp96
a(S'p2_th'
I1
tp97
a(S'w'
I4404
tp98
a(S'tr_tl'
I189
tp99
a(S'tr_ll'
I1
tp100
a(S'w'
I1467
tp101
a(S'p2_du'
I0
tp102
a(S'p2_cv'
I1
tp103
a(S'w'
I4404
tp104
a(S'tr_lr'
I0
tp105
a(S'w'
I1466
tp106
a(S'p2_tl'
I238
tp107
a(S'p2_ll'
I1
tp108
a(S'p2_th'
I0
tp109
a(S'w'
I1
tp110
a(S'p2_du'
I2
tp111
a(S'p2_cv'
I0
tp112
a(S'w'
I4403
tp113
a(S'tr_tl'
I159
tp114
a(S'tr_ll'
I1
tp115
a(S'w'
I1
tp116
a(S'tr_lr'
I24
tp117
a(S'w'
I1467
tp118
a(S'p2_tl'
I28
tp119
a(S'w'
I1
tp120
a(S'p2_ll'
I1
tp121
a(S'p2_th'
I1
tp122
a(S'w'
I4404
tp123
a.