(lp1
(S'clock'
p2
I1789772
tp3
a(S'p1_cv'
I1
tp4
a(S'p1_sp'
I7
tp5
a(S'p1_sn'
I1
tp6
a(S'p1_ss'
I7
tp7
a(S'p1_tl'
I253
tp8
a(S'p1_ll'
I11
tp9
a(S'p2_cv'
I1
tp10
a(S'p2_sp'
I7
tp11
a(S'p2_sn'
I1
tp12
a(S'p2_ss'
I7
tp13
a(S'p2_tl'
I61
tp14
a(S'p2_ll'
I9
tp15
a(S'tr_tl'
I83
tp16
a(S'tr_ll'
I1
tp17
a(S'no_cv'
I1
tp18
a(S'no_np'
I10
tp19
a(S'no_ll'
I24
tp20
a(S'ch_no'
I1
tp21
a(S'ch_tr'
I1
tp22
a(S'ch_p2'
I1
tp23
a(S'ch_p1'
I1
tp24
a(S'fc_mo'
I1
tp25
a(S'tr_lr'
I4
tp26
a(S'w'
I1
tp27
a(S'tr_tl'
I150
tp28
a(S'tr_ll'
I1
tp29
a(S'w'
I728
tp30
a(S'p2_tl'
I189
tp31
a(S'w'
I1
tp32
a(S'p2_ll'
I1
tp33
a(S'p2_du'
I2
tp34
a(S'p2_cv'
I0
tp35
a(S'w'
I1475
tp36
a(S'tr_lr'
I0
tp37
a(S'w'
I732
tp38
a(S'p2_du'
I0
tp39
a(S'p2_cv'
I1
tp40
a(S'w'
I1468
tp41
a(S'tr_tl'
I126
tp42
a(S'w'
I1
tp43
a(S'tr_ll'
I1
tp44
a(S'tr_lr'
I4
tp45
a(S'w'
I733
tp46
a(S'p2_tl'
I150
tp47
a(S'p2_ll'
I1
tp48
a(S'p2_du'
I2
tp49
a(S'p2_cv'
I0
tp50
a(S'w'
I1469
tp51
a(S'tr_lr'
I0
tp52
a(S'w'
I732
tp53
a(S'p2_du'
I0
tp54
a(S'p2_cv'
I1
tp55
a(S'w'
I1468
tp56
a(S'tr_tl'
I94
tp57
a(S'tr_ll'
I1
tp58
a(S'w'
I1
tp59
a(S'tr_lr'
I4
tp60
a(S'w'
I732
tp61
a(S'p2_tl'
I126
tp62
a(S'w'
I1
tp63
a(S'p2_ll'
I1
tp64
a(S'p2_du'
I2
tp65
a(S'p2_cv'
I0
tp66
a(S'w'
I1469
tp67
a(S'tr_lr'
I0
tp68
a(S'w'
I732
tp69
a(S'p2_du'
I0
tp70
a(S'p2_cv'
I1
tp71
a(S'w'
I1468
tp72
a(S'tr_tl'
I74
tp73
a(S'tr_ll'
I1
tp74
a(S'w'
I1
tp75
a(S'tr_lr'
I4
tp76
a(S'w'
I732
tp77
a(S'p2_tl'
I94
tp78
a(S'p2_ll'
I1
tp79
a(S'w'
I1
tp80
a(S'p2_du'
I2
tp81
a(S'p2_cv'
I0
tp82
a(S'w'
I1469
tp83
a(S'tr_lr'
I0
tp84
a(S'w'
I731
tp85
a(S'p2_du'
I0
tp86
a(S'p2_cv'
I1
tp87
a(S'w'
I5871
tp88
a(S'tr_tl'
I83
tp89
a(S'w'
I1
tp90
a(S'tr_ll'
I1
tp91
a(S'tr_lr'
I4
tp92
a(S'w'
I732
tp93
a(S'p2_tl'
I112
tp94
a(S'w'
I1
tp95
a(S'p2_ll'
I1
tp96
a(S'p2_du'
I2
tp97
a(S'p2_cv'
I0
tp98
a(S'w'
I1469
tp99
a(S'tr_lr'
I16
tp100
a(S'w'
I2
tp101
a(S'tr_lr'
I0
tp102
a(S'w'
I729
tp103
a(S'p2_du'
I0
tp104
a(S'p2_cv'
I1
tp105
a(S'w'
I1
tp106
a.