(lp1
(S'clock'
p2
I1789772
tp3
a(S'p1_du'
I3
tp4
a(S'p1_lh'
I1
tp5
a(S'p1_cv'
I1
tp6
a(S'p1_vo'
I12
tp7
a(S'p1_sp'
I7
tp8
a(S'p1_sn'
I1
tp9
a(S'p1_ss'
I7
tp10
a(S'p1_tl'
I238
tp11
a(S'p1_ll'
I1
tp12
a(S'p2_cv'
I1
tp13
a(S'p2_sp'
I7
tp14
a(S'p2_sn'
I1
tp15
a(S'p2_ss'
I7
tp16
a(S'p2_tl'
I23
tp17
a(S'p2_ll'
I9
tp18
a(S'tr_lh'
I1
tp19
a(S'tr_lr'
I127
tp20
a(S'tr_tl'
I141
tp21
a(S'tr_ll'
I1
tp22
a(S'no_cv'
I1
tp23
a(S'no_np'
I4
tp24
a(S'no_ll'
I3
tp25
a(S'ch_no'
I1
tp26
a(S'ch_tr'
I1
tp27
a(S'ch_p2'
I1
tp28
a(S'ch_p1'
I1
tp29
a(S'fc_mo'
I1
tp30
a(S'p1_du'
I0
tp31
a(S'p1_lh'
I0
tp32
a(S'p1_vo'
I0
tp33
a(S'tr_lh'
I0
tp34
a(S'tr_lr'
I0
tp35
a(S'w'
I7
tp36
a(S'p1_se'
I1
tp37
a(S'p1_sp'
I0
tp38
a(S'p1_sn'
I0
tp39
a(S'p1_ss'
I3
tp40
a(S'w'
I5
tp41
a(S'p1_tl'
I171
tp42
a(S'p1_ll'
I1
tp43
a(S'p1_th'
I1
tp44
a(S'p1_du'
I2
tp45
a(S'p1_cv'
I0
tp46
a(S'w'
I10
tp47
a(S'tr_lr'
I60
tp48
a(S'w'
I2
tp49
a(S'tr_lr'
I0
tp50
a(S'w'
I4
tp51
a(S'no_cv'
I0
tp52
a(S'no_vo'
I2
tp53
a(S'no_np'
I2
tp54
a(S'no_ll'
I8
tp55
a(S'w'
I17572
tp56
a(S'p1_tl'
I171
tp57
a(S'p1_ll'
I1
tp58
a(S'w'
I7
tp59
a(S'no_ll'
I8
tp60
a(S'w'
I17606
tp61
a(S'p1_tl'
I171
tp62
a(S'w'
I1
tp63
a(S'p1_ll'
I1
tp64
a(S'w'
I5
tp65
a(S'p2_tl'
I159
tp66
a(S'p2_ll'
I1
tp67
a(S'w'
I1
tp68
a(S'p2_du'
I2
tp69
a(S'p2_cv'
I0
tp70
a(S'w'
I4
tp71
a(S'tr_lr'
I40
tp72
a(S'w'
I1
tp73
a(S'tr_tl'
I128
tp74
a(S'tr_ll'
I1
tp75
a(S'tr_th'
I2
tp76
a(S'w'
I6
tp77
a(S'no_cv'
I1
tp78
a(S'no_vo'
I0
tp79
a(S'w'
I1
tp80
a(S'no_np'
I1
tp81
a(S'no_ll'
I3
tp82
a(S'w'
I4384
tp83
a(S'p2_du'
I0
tp84
a(S'p2_cv'
I1
tp85
a(S'w'
I4402
tp86
a(S'w'
I1
tp87
a(S'p2_ll'
I1
tp88
a(S'p2_du'
I2
tp89
a(S'p2_cv'
I0
tp90
a(S'w'
I4
tp91
a(S'tr_ll'
I1
tp92
a(S'w'
I4399
tp93
a(S'p2_du'
I0
tp94
a(S'p2_cv'
I1
tp95
a(S'w'
I4400
tp96
a(S'p1_tl'
I171
tp97
a(S'w'
I1
tp98
a(S'p1_ll'
I1
tp99
a(S'w'
I4
tp100
a(S'p2_tl'
I168
tp101
a(S'p2_ll'
I1
tp102
a(S'w'
I1
tp103
a(S'p2_du'
I2
tp104
a(S'p2_cv'
I0
tp105
a(S'w'
I4
tp106
a(S'tr_lr'
I60
tp107
a(S'w'
I1
tp108
a(S'tr_tl'
I252
tp109
a(S'tr_ll'
I1
tp110
a(S'tr_th'
I1
tp111
a(S'w'
I4
tp112
a(S'no_cv'
I0
tp113
a(S'no_vo'
I3
tp114
a(S'no_np'
I5
tp115
a(S'w'
I1
tp116
a(S'no_ll'
I8
tp117
a(S'w'
I4390
tp118
a(S'p2_du'
I0
tp119
a(S'p2_cv'
I1
tp120
a(S'w'
I4402
tp121
a(S'p2_tl'
I159
tp122
a(S'p2_ll'
I1
tp123
a(S'w'
I1
tp124
a(S'p2_du'
I2
tp125
a(S'p2_cv'
I0
tp126
a(S'w'
I4402
tp127
a(S'p2_du'
I0
tp128
a(S'p2_cv'
I1
tp129
a(S'w'
I4402
tp130
a(S'p1_tl'
I171
tp131
a(S'p1_ll'
I1
tp132
a(S'w'
I4
tp133
a(S'p2_tl'
I105
tp134
a(S'p2_ll'
I1
tp135
a(S'w'
I1
tp136
a(S'p2_du'
I2
tp137
a(S'p2_cv'
I0
tp138
a(S'w'
I3
tp139
a(S'tr_tl'
I171
tp140
a(S'w'
I1
tp141
a(S'tr_ll'
I1
tp142
a(S'w'
I6
tp143
a(S'no_cv'
I1
tp144
a(S'no_vo'
I0
tp145
a(S'no_np'
I1
tp146
a(S'no_ll'
I3
tp147
a(S'w'
I4389
tp148
a(S'p2_du'
I0
tp149
a(S'p2_cv'
I1
tp150
a(S'w'
I4400
tp151
a(S'p1_tl'
I171
tp152
a(S'p1_ll'
I1
tp153
a(S'w'
I8806
tp154
a(S'p1_tl'
I171
tp155
a(S'p1_ll'
I1
tp156
a(S'w'
I4
tp157
a(S'p2_tl'
I159
tp158
a(S'w'
I1
tp159
a(S'p2_ll'
I1
tp160
a(S'p2_du'
I2
tp161
a(S'p2_cv'
I0
tp162
a(S'w'
I4
tp163
a(S'tr_tl'
I252
tp164
a(S'tr_ll'
I1
tp165
a(S'w'
I4
tp166
a(S'no_cv'
I0
tp167
a(S'no_vo'
I3
tp168
a(S'no_np'
I5
tp169
a(S'no_ll'
I8
tp170
a(S'w'
I4392
tp171
a(S'p2_du'
I0
tp172
a(S'p2_cv'
I1
tp173
a(S'w'
I4401
tp174
a(S'p1_du'
I0
tp175
a(S'p1_cv'
I1
tp176
a(S'w'
I4
tp177
a(S'p2_tl'
I168
tp178
a(S'p2_ll'
I1
tp179
a(S'w'
I1
tp180
a(S'p2_du'
I2
tp181
a(S'p2_cv'
I0
tp182
a(S'w'
I4400
tp183
a(S'p2_du'
I0
tp184
a(S'p2_cv'
I1
tp185
a(S'w'
I4402
tp186
a(S'p1_tl'
I171
tp187
a(S'w'
I1
tp188
a(S'p1_ll'
I1
tp189
a(S'p1_du'
I2
tp190
a(S'p1_cv'
I0
tp191
a(S'w'
I8
tp192
a(S'tr_lr'
I40
tp193
a(S'w'
I2
tp194
a(S'tr_lr'
I0
tp195
a(S'w'
I6
tp196
a(S'no_cv'
I1
tp197
a(S'no_vo'
I0
tp198
a(S'no_np'
I1
tp199
a(S'no_ll'
I3
tp200
a(S'w'
I8788
tp201
a(S'p2_tl'
I159
tp202
a(S'w'
I1
tp203
a(S'p2_ll'
I1
tp204
a(S'p2_du'
I2
tp205
a(S'p2_cv'
I0
tp206
a(S'w'
I4
tp207
a(S'tr_tl'
I249
tp208
a(S'tr_ll'
I1
tp209
a(S'tr_th'
I2
tp210
a(S'w'
I1
tp211
a(S'tr_lr'
I40
tp212
a(S'w'
I4398
tp213
a(S'p2_du'
I0
tp214
a(S'p2_cv'
I1
tp215
a(S'w'
I4400
tp216
a(S'p1_tl'
I171
tp217
a(S'w'
I1
tp218
a(S'p1_ll'
I1
tp219
a(S'w'
I4
tp220
a(S'p2_tl'
I168
tp221
a(S'p2_ll'
I1
tp222
a(S'w'
I1
tp223
a(S'p2_du'
I2
tp224
a(S'p2_cv'
I0
tp225
a(S'w'
I3
tp226
a(S'tr_tl'
I128
tp227
a(S'tr_ll'
I1
tp228
a(S'w'
I4
tp229
a(S'no_cv'
I0
tp230
a(S'no_vo'
I3
tp231
a(S'no_np'
I5
tp232
a(S'w'
I1
tp233
a(S'no_ll'
I8
tp234
a(S'w'
I4392
tp235
a(S'p2_du'
I0
tp236
a(S'p2_cv'
I1
tp237
a(S'w'
I4402
tp238
a(S'p2_tl'
I159
tp239
a(S'p2_ll'
I1
tp240
a(S'w'
I1
tp241
a(S'p2_du'
I2
tp242
a(S'p2_cv'
I0
tp243
a(S'w'
I4
tp244
a(S'tr_lr'
I0
tp245
a(S'w'
I4398
tp246
a(S'p2_du'
I0
tp247
a(S'p2_cv'
I1
tp248
a(S'w'
I4401
tp249
a(S'p1_tl'
I171
tp250
a(S'w'
I1
tp251
a(S'p1_ll'
I1
tp252
a(S'w'
I4
tp253
a(S'p2_tl'
I105
tp254
a(S'p2_ll'
I1
tp255
a(S'w'
I1
tp256
a(S'p2_du'
I2
tp257
a(S'p2_cv'
I0
tp258
a(S'w'
I4
tp259
a(S'tr_lr'
I60
tp260
a(S'w'
I1
tp261
a(S'tr_tl'
I252
tp262
a(S'tr_ll'
I1
tp263
a(S'tr_th'
I1
tp264
a(S'w'
I6
tp265
a(S'no_cv'
I1
tp266
a(S'no_vo'
I0
tp267
a(S'w'
I1
tp268
a(S'no_np'
I1
tp269
a(S'no_ll'
I3
tp270
a(S'w'
I4387
tp271
a(S'p2_du'
I0
tp272
a(S'p2_cv'
I1
tp273
a(S'w'
I4400
tp274
a(S'p1_tl'
I171
tp275
a(S'p1_ll'
I1
tp276
a(S'w'
I8806
tp277
a(S'p1_tl'
I171
tp278
a(S'p1_ll'
I1
tp279
a(S'w'
I4
tp280
a(S'p2_tl'
I159
tp281
a(S'w'
I1
tp282
a(S'p2_ll'
I1
tp283
a(S'p2_du'
I2
tp284
a(S'p2_cv'
I0
tp285
a(S'w'
I4
tp286
a(S'tr_tl'
I171
tp287
a(S'tr_ll'
I1
tp288
a(S'w'
I4
tp289
a(S'no_cv'
I0
tp290
a(S'no_vo'
I3
tp291
a(S'no_np'
I5
tp292
a(S'no_ll'
I8
tp293
a(S'w'
I4392
tp294
a(S'p2_du'
I0
tp295
a(S'p2_cv'
I1
tp296
a(S'w'
I4401
tp297
a(S'p1_du'
I0
tp298
a(S'p1_cv'
I1
tp299
a(S'w'
I4
tp300
a(S'p2_tl'
I168
tp301
a(S'p2_ll'
I1
tp302
a(S'w'
I1
tp303
a(S'p2_du'
I2
tp304
a(S'p2_cv'
I0
tp305
a(S'w'
I4400
tp306
a(S'p2_du'
I0
tp307
a(S'p2_cv'
I1
tp308
a(S'w'
I4402
tp309
a(S'p1_tl'
I171
tp310
a(S'p1_ll'
I1
tp311
a(S'w'
I1
tp312
a(S'p1_du'
I2
tp313
a(S'p1_cv'
I0
tp314
a(S'w'
I4
tp315
a(S'p2_tl'
I159
tp316
a(S'p2_ll'
I1
tp317
a(S'w'
I1
tp318
a(S'p2_du'
I2
tp319
a(S'p2_cv'
I0
tp320
a(S'w'
I5
tp321
a(S'tr_tl'
I223
tp322
a(S'tr_ll'
I1
tp323
a(S'w'
I6
tp324
a(S'no_cv'
I1
tp325
a(S'no_vo'
I0
tp326
a(S'no_np'
I1
tp327
a(S'w'
I1
tp328
a(S'no_ll'
I3
tp329
a(S'w'
I4385
tp330
a(S'p2_du'
I0
tp331
a(S'p2_cv'
I1
tp332
a(S'w'
I4402
tp333
a(S'w'
I1
tp334
a(S'p2_ll'
I1
tp335
a(S'p2_du'
I2
tp336
a(S'p2_cv'
I0
tp337
a(S'w'
I4403
tp338
a(S'p2_du'
I0
tp339
a(S'p2_cv'
I1
tp340
a(S'w'
I4400
tp341
a(S'p1_tl'
I171
tp342
a(S'w'
I1
tp343
a(S'p1_ll'
I1
tp344
a(S'w'
I4
tp345
a(S'p2_tl'
I168
tp346
a(S'p2_ll'
I1
tp347
a(S'w'
I1
tp348
a(S'p2_du'
I2
tp349
a(S'p2_cv'
I0
tp350
a(S'w'
I3
tp351
a(S'tr_ll'
I1
tp352
a(S'w'
I4
tp353
a(S'no_cv'
I0
tp354
a(S'no_vo'
I3
tp355
a(S'no_np'
I5
tp356
a(S'w'
I1
tp357
a(S'no_ll'
I8
tp358
a(S'w'
I4392
tp359
a(S'p2_du'
I0
tp360
a(S'p2_cv'
I1
tp361
a(S'w'
I4402
tp362
a(S'p2_tl'
I159
tp363
a(S'p2_ll'
I1
tp364
a(S'p2_du'
I2
tp365
a(S'p2_cv'
I0
tp366
a(S'w'
I4403
tp367
a(S'p2_du'
I0
tp368
a(S'p2_cv'
I1
tp369
a(S'w'
I4401
tp370
a(S'p1_tl'
I171
tp371
a(S'w'
I1
tp372
a(S'p1_ll'
I1
tp373
a(S'w'
I4
tp374
a(S'p2_tl'
I105
tp375
a(S'p2_ll'
I1
tp376
a(S'w'
I1
tp377
a(S'p2_du'
I2
tp378
a(S'p2_cv'
I0
tp379
a(S'w'
I4
tp380
a(S'tr_lr'
I40
tp381
a(S'w'
I1
tp382
a(S'tr_tl'
I128
tp383
a(S'tr_ll'
I1
tp384
a(S'tr_th'
I2
tp385
a(S'w'
I6
tp386
a(S'no_cv'
I1
tp387
a(S'no_vo'
I0
tp388
a(S'w'
I1
tp389
a(S'no_np'
I1
tp390
a(S'no_ll'
I3
tp391
a(S'w'
I4387
tp392
a(S'p2_du'
I0
tp393
a(S'p2_cv'
I1
tp394
a(S'w'
I4400
tp395
a(S'p1_tl'
I171
tp396
a(S'p1_ll'
I1
tp397
a(S'w'
I9
tp398
a(S'tr_ll'
I1
tp399
a(S'w'
I8797
tp400
a(S'p1_tl'
I171
tp401
a(S'p1_ll'
I1
tp402
a(S'w'
I4
tp403
a(S'p2_tl'
I159
tp404
a(S'w'
I1
tp405
a(S'p2_ll'
I1
tp406
a(S'p2_du'
I2
tp407
a(S'p2_cv'
I0
tp408
a(S'w'
I4
tp409
a(S'tr_lr'
I60
tp410
a(S'w'
I1
tp411
a(S'tr_tl'
I249
tp412
a(S'w'
I1
tp413
a(S'tr_ll'
I1
tp414
a(S'w'
I4
tp415
a(S'no_cv'
I0
tp416
a(S'no_vo'
I3
tp417
a(S'no_np'
I5
tp418
a(S'no_ll'
I8
tp419
a(S'w'
I4390
tp420
a(S'p2_du'
I0
tp421
a(S'p2_cv'
I1
tp422
a(S'w'
I4401
tp423
a(S'p1_du'
I0
tp424
a(S'p1_cv'
I1
tp425
a(S'w'
I4
tp426
a(S'p2_tl'
I168
tp427
a(S'p2_ll'
I1
tp428
a(S'w'
I1
tp429
a(S'p2_du'
I2
tp430
a(S'p2_cv'
I0
tp431
a(S'w'
I4400
tp432
a(S'p2_du'
I0
tp433
a(S'p2_cv'
I1
tp434
a(S'w'
I4403
tp435
a(S'p1_tl'
I171
tp436
a(S'p1_ll'
I1
tp437
a(S'w'
I1
tp438
a(S'p1_du'
I2
tp439
a(S'p1_cv'
I0
tp440
a(S'w'
I5
tp441
a(S'p2_tl'
I105
tp442
a(S'p2_ll'
I1
tp443
a(S'w'
I1
tp444
a(S'p2_du'
I2
tp445
a(S'p2_cv'
I0
tp446
a(S'w'
I3
tp447
a(S'tr_lr'
I56
tp448
a(S'w'
I2
tp449
a(S'tr_tl'
I82
tp450
a(S'tr_ll'
I1
tp451
a(S'tr_th'
I1
tp452
a(S'w'
I7
tp453
a(S'no_vo'
I0
tp454
a(S'no_np'
I1
tp455
a(S'no_ll'
I17
tp456
a(S'w'
I11721
tp457
a(S'p1_tl'
I171
tp458
a(S'p1_ll'
I1
tp459
a(S'w'
I4
tp460
a(S'p2_tl'
I118
tp461
a(S'w'
I1
tp462
a(S'p2_ll'
I1
tp463
a(S'w'
I4
tp464
a(S'tr_tl'
I124
tp465
a(S'tr_ll'
I1
tp466
a(S'w'
I6
tp467
a(S'w'
I1
tp468
a(S'no_ll'
I17
tp469
a(S'w'
I11725
tp470
a(S'p1_tl'
I171
tp471
a(S'p1_ll'
I1
tp472
a(S'w'
I4
tp473
a(S'p2_tl'
I126
tp474
a(S'w'
I1
tp475
a(S'p2_ll'
I1
tp476
a(S'w'
I4
tp477
a(S'tr_tl'
I171
tp478
a(S'tr_ll'
I1
tp479
a(S'w'
I6
tp480
a(S'no_ll'
I17
tp481
a(S'w'
I11726
tp482
a(S'p1_tl'
I171
tp483
a(S'p1_ll'
I1
tp484
a(S'w'
I4
tp485
a(S'p2_tl'
I141
tp486
a(S'p2_ll'
I1
tp487
a(S'w'
I4
tp488
a(S'tr_tl'
I223
tp489
a(S'w'
I1
tp490
a(S'tr_ll'
I1
tp491
a(S'w'
I6
tp492
a(S'no_ll'
I17
tp493
a(S'w'
I11725
tp494
a(S'p1_tl'
I171
tp495
a(S'w'
I1
tp496
a(S'p1_ll'
I1
tp497
a(S'w'
I4
tp498
a(S'p2_tl'
I159
tp499
a(S'p2_ll'
I1
tp500
a(S'w'
I4
tp501
a(S'tr_tl'
I252
tp502
a(S'w'
I1
tp503
a(S'tr_ll'
I1
tp504
a(S'w'
I6
tp505
a(S'no_ll'
I17
tp506
a(S'w'
I11725
tp507
a(S'p1_tl'
I171
tp508
a(S'w'
I1
tp509
a(S'p1_ll'
I1
tp510
a(S'w'
I4
tp511
a(S'p2_tl'
I168
tp512
a(S'p2_ll'
I1
tp513
a(S'w'
I4
tp514
a(S'tr_tl'
I58
tp515
a(S'tr_ll'
I1
tp516
a(S'tr_th'
I2
tp517
a(S'w'
I7
tp518
a(S'no_ll'
I17
tp519
a(S'w'
I11725
tp520
a(S'p1_tl'
I171
tp521
a(S'p1_ll'
I1
tp522
a(S'w'
I5
tp523
a(S'p2_tl'
I159
tp524
a(S'p2_ll'
I1
tp525
a(S'w'
I4
tp526
a(S'tr_tl'
I128
tp527
a(S'tr_ll'
I1
tp528
a(S'w'
I7
tp529
a(S'no_lh'
I1
tp530
a(S'no_vo'
I5
tp531
a(S'no_nl'
I1
tp532
a(S'no_np'
I7
tp533
a(S'w'
I1
tp534
a(S'no_ll'
I9
tp535
a(S'w'
I5855
tp536
a(S'no_lh'
I0
tp537
a(S'no_cv'
I1
tp538
a(S'no_vo'
I8
tp539
a(S'w'
I1
tp540
a(S'no_nl'
I0
tp541
a(S'no_np'
I0
tp542
a(S'no_ll'
I0
tp543
a(S'w'
I4430
tp544
a.