(lp1
(S'clock'
p2
I1789772
tp3
a(S'p1_du'
I2
tp4
a(S'p1_se'
I1
tp5
a(S'p1_ss'
I3
tp6
a(S'p1_tl'
I28
tp7
a(S'p1_ll'
I1
tp8
a(S'p1_th'
I1
tp9
a(S'p2_cv'
I1
tp10
a(S'p2_sp'
I7
tp11
a(S'p2_sn'
I1
tp12
a(S'p2_ss'
I7
tp13
a(S'p2_tl'
I82
tp14
a(S'p2_ll'
I1
tp15
a(S'p2_th'
I1
tp16
a(S'tr_tl'
I207
tp17
a(S'tr_ll'
I1
tp18
a(S'tr_th'
I2
tp19
a(S'no_np'
I1
tp20
a(S'no_ll'
I17
tp21
a(S'ch_no'
I1
tp22
a(S'ch_tr'
I1
tp23
a(S'ch_p2'
I1
tp24
a(S'ch_p1'
I1
tp25
a(S'fc_mo'
I1
tp26
a(S'no_cv'
I1
tp27
a(S'w'
I1
tp28
a(S'p1_du'
I0
tp29
a(S'p1_cv'
I1
tp30
a(S'w'
I734
tp31
a(S'p1_se'
I0
tp32
a(S'p1_sp'
I7
tp33
a(S'p1_sn'
I1
tp34
a(S'p1_ss'
I7
tp35
a(S'w'
I5
tp36
a(S'p1_tl'
I150
tp37
a(S'p1_ll'
I1
tp38
a(S'p1_th'
I0
tp39
a(S'w'
I1
tp40
a(S'p1_du'
I3
tp41
a(S'p1_lh'
I1
tp42
a(S'p1_vo'
I12
tp43
a(S'w'
I4
tp44
a(S'p2_tl'
I225
tp45
a(S'w'
I1
tp46
a(S'p2_ll'
I1
tp47
a(S'p2_th'
I0
tp48
a(S'p2_du'
I3
tp49
a(S'p2_lh'
I1
tp50
a(S'p2_vo'
I12
tp51
a(S'w'
I4
tp52
a(S'tr_lh'
I1
tp53
a(S'tr_lr'
I127
tp54
a(S'w'
I1
tp55
a(S'tr_tl'
I88
tp56
a(S'w'
I1
tp57
a(S'tr_ll'
I1
tp58
a(S'tr_th'
I0
tp59
a(S'w'
I6
tp60
a(S'no_cv'
I0
tp61
a(S'no_vo'
I3
tp62
a(S'no_np'
I5
tp63
a(S'no_ll'
I8
tp64
a(S'w'
I2164
tp65
a(S'p1_du'
I0
tp66
a(S'p1_lh'
I0
tp67
a(S'p1_vo'
I0
tp68
a(S'w'
I5
tp69
a(S'p2_du'
I0
tp70
a(S'p2_lh'
I0
tp71
a(S'p2_vo'
I0
tp72
a(S'w'
I4
tp73
a(S'tr_lh'
I0
tp74
a(S'tr_lr'
I0
tp75
a(S'w'
I2192
tp76
a(S'p1_ll'
I1
tp77
a(S'w'
I1
tp78
a(S'p1_du'
I3
tp79
a(S'p1_lh'
I1
tp80
a(S'p1_vo'
I12
tp81
a(S'w'
I3
tp82
a(S'w'
I1
tp83
a(S'p2_ll'
I1
tp84
a(S'p2_du'
I3
tp85
a(S'p2_lh'
I1
tp86
a(S'p2_vo'
I12
tp87
a(S'w'
I4
tp88
a(S'tr_ll'
I1
tp89
a(S'w'
I1
tp90
a(S'tr_lh'
I1
tp91
a(S'tr_lr'
I127
tp92
a(S'w'
I2192
tp93
a(S'p1_du'
I0
tp94
a(S'p1_lh'
I0
tp95
a(S'p1_vo'
I0
tp96
a(S'w'
I4
tp97
a(S'p2_du'
I0
tp98
a(S'p2_lh'
I0
tp99
a(S'p2_vo'
I0
tp100
a(S'w'
I4
tp101
a(S'tr_lh'
I0
tp102
a(S'tr_lr'
I0
tp103
a(S'w'
I2193
tp104
a(S'p1_ll'
I1
tp105
a(S'w'
I1
tp106
a(S'p1_du'
I3
tp107
a(S'p1_lh'
I1
tp108
a(S'p1_vo'
I12
tp109
a(S'w'
I3
tp110
a(S'w'
I1
tp111
a(S'p2_ll'
I1
tp112
a(S'p2_du'
I3
tp113
a(S'p2_lh'
I1
tp114
a(S'p2_vo'
I12
tp115
a(S'w'
I4
tp116
a(S'tr_ll'
I1
tp117
a(S'tr_lh'
I1
tp118
a(S'tr_lr'
I127
tp119
a(S'w'
I2193
tp120
a(S'p1_du'
I0
tp121
a(S'p1_lh'
I0
tp122
a(S'p1_vo'
I0
tp123
a(S'w'
I4
tp124
a(S'p2_du'
I0
tp125
a(S'p2_lh'
I0
tp126
a(S'p2_vo'
I0
tp127
a(S'w'
I4
tp128
a(S'tr_lh'
I0
tp129
a(S'tr_lr'
I0
tp130
a(S'w'
I2192
tp131
a(S'p1_tl'
I168
tp132
a(S'w'
I1
tp133
a(S'p1_ll'
I1
tp134
a(S'p1_du'
I3
tp135
a(S'p1_lh'
I1
tp136
a(S'p1_vo'
I12
tp137
a(S'w'
I5
tp138
a(S'w'
I1
tp139
a(S'p2_ll'
I1
tp140
a(S'p2_du'
I3
tp141
a(S'p2_lh'
I1
tp142
a(S'p2_vo'
I12
tp143
a(S'w'
I4
tp144
a(S'tr_tl'
I99
tp145
a(S'tr_ll'
I1
tp146
a(S'w'
I1
tp147
a(S'tr_lh'
I1
tp148
a(S'tr_lr'
I127
tp149
a(S'w'
I5
tp150
a(S'no_ll'
I8
tp151
a(S'w'
I2185
tp152
a(S'p1_ll'
I1
tp153
a(S'w'
I4
tp154
a(S'w'
I1
tp155
a(S'p2_ll'
I1
tp156
a(S'w'
I4
tp157
a(S'tr_ll'
I1
tp158
a(S'w'
I2192
tp159
a(S'w'
I1
tp160
a(S'p1_ll'
I1
tp161
a(S'w'
I4
tp162
a(S'p2_ll'
I1
tp163
a(S'w'
I4
tp164
a(S'tr_ll'
I1
tp165
a(S'w'
I2193
tp166
a(S'p1_du'
I0
tp167
a(S'p1_lh'
I0
tp168
a(S'p1_vo'
I0
tp169
a(S'w'
I5
tp170
a(S'p2_du'
I0
tp171
a(S'p2_lh'
I0
tp172
a(S'p2_vo'
I0
tp173
a(S'w'
I4
tp174
a(S'tr_lh'
I0
tp175
a(S'tr_lr'
I0
tp176
a(S'w'
I2192
tp177
a(S'p1_ll'
I1
tp178
a(S'w'
I1
tp179
a(S'p1_du'
I3
tp180
a(S'p1_lh'
I1
tp181
a(S'p1_vo'
I12
tp182
a(S'w'
I4
tp183
a(S'p2_ll'
I1
tp184
a(S'w'
I1
tp185
a(S'p2_du'
I3
tp186
a(S'p2_lh'
I1
tp187
a(S'p2_vo'
I12
tp188
a(S'w'
I3
tp189
a(S'tr_ll'
I1
tp190
a(S'w'
I1
tp191
a(S'tr_lh'
I1
tp192
a(S'tr_lr'
I127
tp193
a(S'w'
I2192
tp194
a(S'p1_du'
I0
tp195
a(S'p1_lh'
I0
tp196
a(S'p1_vo'
I0
tp197
a(S'w'
I5
tp198
a(S'p2_du'
I0
tp199
a(S'p2_lh'
I0
tp200
a(S'p2_vo'
I0
tp201
a(S'w'
I4
tp202
a(S'tr_lh'
I0
tp203
a(S'tr_lr'
I0
tp204
a(S'w'
I2192
tp205
a(S'p1_tl'
I133
tp206
a(S'p1_ll'
I1
tp207
a(S'w'
I1
tp208
a(S'p1_du'
I3
tp209
a(S'p1_lh'
I1
tp210
a(S'p1_vo'
I12
tp211
a(S'w'
I5
tp212
a(S'p2_ll'
I1
tp213
a(S'w'
I1
tp214
a(S'p2_du'
I3
tp215
a(S'p2_lh'
I1
tp216
a(S'p2_vo'
I12
tp217
a(S'w'
I3
tp218
a(S'tr_tl'
I83
tp219
a(S'tr_ll'
I1
tp220
a(S'w'
I1
tp221
a(S'tr_lh'
I1
tp222
a(S'tr_lr'
I127
tp223
a(S'w'
I6
tp224
a(S'no_ll'
I8
tp225
a(S'w'
I2184
tp226
a(S'w'
I1
tp227
a(S'p1_ll'
I1
tp228
a(S'w'
I4
tp229
a(S'p2_ll'
I1
tp230
a(S'w'
I4
tp231
a(S'tr_ll'
I1
tp232
a(S'w'
I2193
tp233
a(S'p1_ll'
I1
tp234
a(S'w'
I4
tp235
a(S'w'
I1
tp236
a(S'p2_ll'
I1
tp237
a(S'w'
I4
tp238
a(S'tr_ll'
I1
tp239
a(S'w'
I2193
tp240
a(S'p1_du'
I0
tp241
a(S'p1_lh'
I0
tp242
a(S'p1_vo'
I0
tp243
a(S'w'
I4
tp244
a(S'p2_du'
I0
tp245
a(S'p2_lh'
I0
tp246
a(S'p2_vo'
I0
tp247
a(S'w'
I4
tp248
a(S'tr_lh'
I0
tp249
a(S'tr_lr'
I0
tp250
a(S'w'
I2193
tp251
a(S'p1_ll'
I1
tp252
a(S'w'
I1
tp253
a(S'p1_du'
I3
tp254
a(S'p1_lh'
I1
tp255
a(S'p1_vo'
I12
tp256
a(S'w'
I3
tp257
a(S'p2_ll'
I1
tp258
a(S'w'
I1
tp259
a(S'p2_du'
I3
tp260
a(S'p2_lh'
I1
tp261
a(S'p2_vo'
I12
tp262
a(S'w'
I4
tp263
a(S'tr_ll'
I1
tp264
a(S'tr_lh'
I1
tp265
a(S'tr_lr'
I127
tp266
a(S'w'
I2193
tp267
a(S'p1_du'
I0
tp268
a(S'p1_lh'
I0
tp269
a(S'p1_vo'
I0
tp270
a(S'w'
I4
tp271
a(S'p2_du'
I0
tp272
a(S'p2_lh'
I0
tp273
a(S'p2_vo'
I0
tp274
a(S'w'
I4
tp275
a(S'tr_lh'
I0
tp276
a(S'tr_lr'
I0
tp277
a(S'w'
I2193
tp278
a(S'p1_tl'
I150
tp279
a(S'w'
I1
tp280
a(S'p1_ll'
I1
tp281
a(S'p1_du'
I3
tp282
a(S'p1_lh'
I1
tp283
a(S'p1_vo'
I12
tp284
a(S'w'
I6
tp285
a(S'p2_ll'
I1
tp286
a(S'w'
I1
tp287
a(S'p2_du'
I3
tp288
a(S'p2_lh'
I1
tp289
a(S'p2_vo'
I12
tp290
a(S'w'
I3
tp291
a(S'tr_lh'
I1
tp292
a(S'tr_lr'
I127
tp293
a(S'w'
I2
tp294
a(S'tr_tl'
I88
tp295
a(S'tr_ll'
I1
tp296
a(S'w'
I6
tp297
a(S'no_ll'
I8
tp298
a(S'w'
I13188
tp299
a(S'no_cv'
I1
tp300
a(S'no_vo'
I0
tp301
a(S'p1_du'
I0
tp302
a(S'p1_lh'
I0
tp303
a(S'p1_vo'
I0
tp304
a(S'p2_du'
I0
tp305
a(S'p2_lh'
I0
tp306
a(S'p2_vo'
I0
tp307
a(S'w'
I1
tp308
a(S'tr_lh'
I0
tp309
a(S'tr_lr'
I0
tp310
a.