(lp1
(S'clock'
p2
I1789772
tp3
a(S'p1_du'
I2
tp4
a(S'p1_cv'
I1
tp5
a(S'p1_vo'
I15
tp6
a(S'p1_se'
I1
tp7
a(S'p1_sp'
I1
tp8
a(S'p1_ss'
I3
tp9
a(S'p1_tl'
I128
tp10
a(S'p1_ll'
I4
tp11
a(S'p1_th'
I2
tp12
a(S'p2_du'
I3
tp13
a(S'p2_cv'
I1
tp14
a(S'p2_vo'
I9
tp15
a(S'p2_se'
I1
tp16
a(S'p2_ss'
I6
tp17
a(S'p2_tl'
I25
tp18
a(S'p2_ll'
I9
tp19
a(S'tr_tl'
I87
tp20
a(S'tr_ll'
I1
tp21
a(S'tr_th'
I3
tp22
a(S'no_vo'
I8
tp23
a(S'no_np'
I5
tp24
a(S'no_ll'
I24
tp25
a(S'ch_no'
I1
tp26
a(S'ch_tr'
I1
tp27
a(S'ch_p2'
I1
tp28
a(S'ch_p1'
I1
tp29
a(S'fc_mo'
I1
tp30
a(S'no_cv'
I1
tp31
a(S'no_vo'
I0
tp32
a(S'p1_du'
I0
tp33
a(S'p1_vo'
I0
tp34
a(S'p2_du'
I0
tp35
a(S'p2_vo'
I0
tp36
a(S'w'
I7
tp37
a(S'p1_se'
I0
tp38
a(S'p1_sp'
I7
tp39
a(S'p1_sn'
I1
tp40
a(S'p1_ss'
I7
tp41
a(S'p2_se'
I0
tp42
a(S'p2_sp'
I7
tp43
a(S'p2_sn'
I1
tp44
a(S'p2_ss'
I7
tp45
a(S'w'
I5
tp46
a(S'p1_tl'
I141
tp47
a(S'p1_ll'
I1
tp48
a(S'p1_th'
I0
tp49
a(S'w'
I1
tp50
a(S'p1_du'
I3
tp51
a(S'p1_lh'
I1
tp52
a(S'p1_vo'
I12
tp53
a(S'w'
I9
tp54
a(S'tr_lh'
I1
tp55
a(S'tr_lr'
I127
tp56
a(S'w'
I2
tp57
a(S'tr_lh'
I0
tp58
a(S'tr_lr'
I0
tp59
a(S'w'
I712
tp60
a(S'tr_lh'
I1
tp61
a(S'tr_lr'
I127
tp62
a(S'w'
I2
tp63
a(S'tr_tl'
I83
tp64
a(S'tr_ll'
I1
tp65
a(S'tr_th'
I0
tp66
a(S'w'
I723
tp67
a(S'p2_tl'
I212
tp68
a(S'p2_ll'
I1
tp69
a(S'w'
I1
tp70
a(S'p2_du'
I3
tp71
a(S'p2_lh'
I1
tp72
a(S'p2_vo'
I12
tp73
a(S'w'
I1465
tp74
a(S'p1_du'
I0
tp75
a(S'p1_lh'
I0
tp76
a(S'p1_vo'
I0
tp77
a(S'w'
I737
tp78
a(S'tr_lh'
I0
tp79
a(S'tr_lr'
I0
tp80
a(S'w'
I733
tp81
a(S'p2_du'
I0
tp82
a(S'p2_lh'
I0
tp83
a(S'p2_vo'
I0
tp84
a(S'w'
I1465
tp85
a(S'p1_tl'
I168
tp86
a(S'p1_ll'
I1
tp87
a(S'w'
I1
tp88
a(S'p1_du'
I3
tp89
a(S'p1_lh'
I1
tp90
a(S'p1_vo'
I12
tp91
a(S'w'
I735
tp92
a(S'tr_tl'
I105
tp93
a(S'tr_ll'
I1
tp94
a(S'w'
I1
tp95
a(S'tr_lh'
I1
tp96
a(S'tr_lr'
I127
tp97
a(S'w'
I732
tp98
a(S'p2_tl'
I28
tp99
a(S'p2_ll'
I1
tp100
a(S'p2_th'
I1
tp101
a(S'w'
I1
tp102
a(S'p2_du'
I3
tp103
a(S'p2_lh'
I1
tp104
a(S'p2_vo'
I12
tp105
a(S'w'
I1466
tp106
a(S'p1_du'
I0
tp107
a(S'p1_lh'
I0
tp108
a(S'p1_vo'
I0
tp109
a(S'w'
I736
tp110
a(S'tr_lh'
I0
tp111
a(S'tr_lr'
I0
tp112
a(S'w'
I733
tp113
a(S'p2_du'
I0
tp114
a(S'p2_lh'
I0
tp115
a(S'p2_vo'
I0
tp116
a(S'w'
I1465
tp117
a(S'p1_tl'
I212
tp118
a(S'w'
I1
tp119
a(S'p1_ll'
I1
tp120
a(S'p1_du'
I3
tp121
a(S'p1_lh'
I1
tp122
a(S'p1_vo'
I12
tp123
a(S'w'
I736
tp124
a(S'tr_tl'
I141
tp125
a(S'tr_ll'
I1
tp126
a(S'w'
I1
tp127
a(S'tr_lh'
I1
tp128
a(S'tr_lr'
I127
tp129
a(S'w'
I732
tp130
a(S'p2_tl'
I82
tp131
a(S'p2_ll'
I1
tp132
a(S'w'
I1
tp133
a(S'p2_du'
I3
tp134
a(S'p2_lh'
I1
tp135
a(S'p2_vo'
I12
tp136
a(S'w'
I1465
tp137
a(S'p1_du'
I0
tp138
a(S'p1_lh'
I0
tp139
a(S'p1_vo'
I0
tp140
a(S'w'
I737
tp141
a(S'tr_lh'
I0
tp142
a(S'tr_lr'
I0
tp143
a(S'w'
I733
tp144
a(S'p2_du'
I0
tp145
a(S'p2_lh'
I0
tp146
a(S'p2_vo'
I0
tp147
a(S'w'
I1465
tp148
a(S'p1_tl'
I168
tp149
a(S'p1_ll'
I1
tp150
a(S'w'
I1
tp151
a(S'p1_du'
I3
tp152
a(S'p1_lh'
I1
tp153
a(S'p1_vo'
I12
tp154
a(S'w'
I735
tp155
a(S'tr_tl'
I105
tp156
a(S'tr_ll'
I1
tp157
a(S'w'
I1
tp158
a(S'tr_lh'
I1
tp159
a(S'tr_lr'
I127
tp160
a(S'w'
I732
tp161
a(S'p2_tl'
I28
tp162
a(S'p2_ll'
I1
tp163
a(S'w'
I1
tp164
a(S'p2_du'
I3
tp165
a(S'p2_lh'
I1
tp166
a(S'p2_vo'
I12
tp167
a(S'w'
I1466
tp168
a(S'p1_du'
I0
tp169
a(S'p1_lh'
I0
tp170
a(S'p1_vo'
I0
tp171
a(S'w'
I736
tp172
a(S'tr_lh'
I0
tp173
a(S'tr_lr'
I0
tp174
a(S'w'
I733
tp175
a(S'p2_du'
I0
tp176
a(S'p2_lh'
I0
tp177
a(S'p2_vo'
I0
tp178
a(S'w'
I1465
tp179
a(S'p1_tl'
I212
tp180
a(S'w'
I1
tp181
a(S'p1_ll'
I1
tp182
a(S'p1_du'
I3
tp183
a(S'p1_lh'
I1
tp184
a(S'p1_vo'
I12
tp185
a(S'w'
I735
tp186
a(S'tr_tl'
I141
tp187
a(S'w'
I1
tp188
a(S'tr_ll'
I1
tp189
a(S'tr_lh'
I1
tp190
a(S'tr_lr'
I127
tp191
a(S'w'
I733
tp192
a(S'p2_tl'
I82
tp193
a(S'p2_ll'
I1
tp194
a(S'w'
I1
tp195
a(S'p2_du'
I3
tp196
a(S'p2_lh'
I1
tp197
a(S'p2_vo'
I12
tp198
a(S'w'
I1465
tp199
a(S'p1_du'
I0
tp200
a(S'p1_lh'
I0
tp201
a(S'p1_vo'
I0
tp202
a(S'w'
I736
tp203
a(S'tr_lh'
I0
tp204
a(S'tr_lr'
I0
tp205
a(S'w'
I733
tp206
a(S'p2_du'
I0
tp207
a(S'p2_lh'
I0
tp208
a(S'p2_vo'
I0
tp209
a(S'w'
I1465
tp210
a(S'p1_tl'
I28
tp211
a(S'w'
I1
tp212
a(S'p1_ll'
I1
tp213
a(S'p1_th'
I1
tp214
a(S'p1_du'
I3
tp215
a(S'p1_lh'
I1
tp216
a(S'p1_vo'
I12
tp217
a(S'w'
I736
tp218
a(S'tr_tl'
I168
tp219
a(S'tr_ll'
I1
tp220
a(S'w'
I1
tp221
a(S'tr_lh'
I1
tp222
a(S'tr_lr'
I127
tp223
a(S'w'
I732
tp224
a(S'p2_tl'
I171
tp225
a(S'p2_ll'
I1
tp226
a(S'p2_du'
I3
tp227
a(S'p2_lh'
I1
tp228
a(S'p2_vo'
I12
tp229
a(S'w'
I1466
tp230
a(S'p1_du'
I0
tp231
a(S'p1_lh'
I0
tp232
a(S'p1_vo'
I0
tp233
a(S'w'
I737
tp234
a(S'tr_lh'
I0
tp235
a(S'tr_lr'
I0
tp236
a(S'w'
I733
tp237
a(S'p2_du'
I0
tp238
a(S'p2_lh'
I0
tp239
a(S'p2_vo'
I0
tp240
a(S'w'
I1466
tp241
a(S'p1_tl'
I212
tp242
a(S'p1_ll'
I1
tp243
a(S'p1_th'
I0
tp244
a(S'w'
I1
tp245
a(S'p1_du'
I3
tp246
a(S'p1_lh'
I1
tp247
a(S'p1_vo'
I12
tp248
a(S'w'
I734
tp249
a(S'tr_lh'
I1
tp250
a(S'tr_lr'
I127
tp251
a(S'w'
I2
tp252
a(S'tr_tl'
I150
tp253
a(S'tr_ll'
I1
tp254
a(S'w'
I732
tp255
a(S'p2_tl'
I103
tp256
a(S'p2_ll'
I1
tp257
a(S'w'
I1
tp258
a(S'p2_du'
I3
tp259
a(S'p2_lh'
I1
tp260
a(S'p2_vo'
I12
tp261
a(S'w'
I4400
tp262
a(S'p1_du'
I0
tp263
a(S'p1_lh'
I0
tp264
a(S'p1_vo'
I0
tp265
a(S'w'
I736
tp266
a(S'tr_lh'
I0
tp267
a(S'tr_lr'
I0
tp268
a(S'w'
I733
tp269
a(S'p2_du'
I0
tp270
a(S'p2_lh'
I0
tp271
a(S'p2_vo'
I0
tp272
a(S'w'
I4402
tp273
a(S'p1_ll'
I1
tp274
a(S'w'
I1
tp275
a(S'p1_du'
I3
tp276
a(S'p1_lh'
I1
tp277
a(S'p1_vo'
I12
tp278
a(S'w'
I734
tp279
a(S'tr_lh'
I1
tp280
a(S'tr_lr'
I127
tp281
a(S'w'
I2
tp282
a(S'tr_ll'
I1
tp283
a(S'w'
I732
tp284
a(S'p2_ll'
I1
tp285
a(S'w'
I1
tp286
a(S'p2_du'
I3
tp287
a(S'p2_lh'
I1
tp288
a(S'p2_vo'
I12
tp289
a(S'w'
I1465
tp290
a(S'p1_du'
I0
tp291
a(S'p1_lh'
I0
tp292
a(S'p1_vo'
I0
tp293
a(S'w'
I737
tp294
a(S'tr_lh'
I0
tp295
a(S'tr_lr'
I0
tp296
a(S'w'
I732
tp297
a(S'p2_du'
I0
tp298
a(S'p2_lh'
I0
tp299
a(S'p2_vo'
I0
tp300
a(S'w'
I1466
tp301
a(S'p1_ll'
I1
tp302
a(S'w'
I1
tp303
a(S'p1_du'
I3
tp304
a(S'p1_lh'
I1
tp305
a(S'p1_vo'
I12
tp306
a(S'w'
I735
tp307
a(S'tr_lh'
I1
tp308
a(S'tr_lr'
I127
tp309
a(S'w'
I2
tp310
a(S'tr_tl'
I141
tp311
a(S'tr_ll'
I1
tp312
a(S'w'
I731
tp313
a(S'p2_tl'
I82
tp314
a(S'p2_ll'
I1
tp315
a(S'w'
I1
tp316
a(S'p2_du'
I3
tp317
a(S'p2_lh'
I1
tp318
a(S'p2_vo'
I12
tp319
a(S'w'
I4401
tp320
a(S'p1_du'
I0
tp321
a(S'p1_lh'
I0
tp322
a(S'p1_vo'
I0
tp323
a(S'w'
I740
tp324
a(S'tr_lh'
I0
tp325
a(S'tr_lr'
I0
tp326
a(S'w'
I725
tp327
a(S'p2_du'
I0
tp328
a(S'p2_lh'
I0
tp329
a(S'p2_vo'
I0
tp330
a(S'w'
I1
tp331
a.