(lp1
(S'clock'
p2
I1789772
tp3
a(S'p1_du'
I2
tp4
a(S'p1_cv'
I1
tp5
a(S'p1_vo'
I4
tp6
a(S'p1_se'
I1
tp7
a(S'p1_sp'
I2
tp8
a(S'p1_sn'
I1
tp9
a(S'p1_ss'
I3
tp10
a(S'p1_tl'
I253
tp11
a(S'p1_ll'
I11
tp12
a(S'p2_cv'
I1
tp13
a(S'p2_sp'
I7
tp14
a(S'p2_sn'
I1
tp15
a(S'p2_ss'
I7
tp16
a(S'p2_tl'
I212
tp17
a(S'p2_ll'
I1
tp18
a(S'tr_tl'
I87
tp19
a(S'tr_ll'
I1
tp20
a(S'tr_th'
I3
tp21
a(S'no_vo'
I6
tp22
a(S'no_np'
I10
tp23
a(S'no_ll'
I24
tp24
a(S'ch_no'
I1
tp25
a(S'ch_tr'
I1
tp26
a(S'ch_p2'
I1
tp27
a(S'ch_p1'
I1
tp28
a(S'fc_mo'
I1
tp29
a(S'p1_lh'
I1
tp30
a(S'p1_vo'
I8
tp31
a(S'w'
I1
tp32
a(S'p1_sp'
I5
tp33
a(S'p1_sn'
I0
tp34
a(S'p1_ss'
I5
tp35
a(S'p1_tl'
I32
tp36
a(S'w'
I1
tp37
a(S'p1_ll'
I0
tp38
a(S'w'
I7
tp39
a(S'no_ll'
I24
tp40
a(S'w'
I103456
tp41
a(S'p1_lh'
I0
tp42
a(S'p1_vo'
I15
tp43
a(S'w'
I1
tp44
a(S'p1_sp'
I1
tp45
a(S'p1_ss'
I3
tp46
a(S'p1_tl'
I128
tp47
a(S'w'
I1
tp48
a(S'p1_ll'
I4
tp49
a(S'p1_th'
I2
tp50
a(S'w'
I7
tp51
a(S'no_ll'
I24
tp52
a(S'w'
I11737
tp53
a(S'no_vo'
I8
tp54
a(S'w'
I1
tp55
a(S'no_np'
I5
tp56
a(S'no_ll'
I24
tp57
a(S'w'
I24177
tp58
a.