(lp1
(S'clock'
p2
I1789772
tp3
a(S'ch_no'
I1
tp4
a(S'ch_tr'
I1
tp5
a(S'ch_p2'
I1
tp6
a(S'ch_p1'
I1
tp7
a(S'w'
I1
tp8
a(S'fc_mo'
I1
tp9
a(S'w'
I2
tp10
a(S'p1_du'
I2
tp11
a(S'p1_cv'
I1
tp12
a(S'w'
I4
tp13
a(S'no_cv'
I1
tp14
a(S'w'
I6
tp15
a(S'p1_tl'
I253
tp16
a(S'w'
I1
tp17
a(S'p1_ll'
I1
tp18
a(S'w'
I1
tp19
a(S'p1_sp'
I7
tp20
a(S'p1_sn'
I1
tp21
a(S'p1_ss'
I7
tp22
a(S'p1_du'
I1
tp23
a(S'p1_cv'
I0
tp24
a(S'p1_vo'
I6
tp25
a(S'w'
I3
tp26
a(S'p2_tl'
I212
tp27
a(S'p2_ll'
I1
tp28
a(S'w'
I1
tp29
a(S'p2_sp'
I7
tp30
a(S'p2_sn'
I1
tp31
a(S'p2_ss'
I7
tp32
a(S'p2_du'
I2
tp33
a(S'p2_vo'
I6
tp34
a(S'w'
I3
tp35
a(S'tr_lr'
I28
tp36
a(S'w'
I5120
tp37
a(S'tr_lr'
I0
tp38
a(S'w'
I735
tp39
a(S'p1_tl'
I28
tp40
a(S'p1_ll'
I1
tp41
a(S'p1_th'
I1
tp42
a(S'w'
I4
tp43
a(S'p2_tl'
I225
tp44
a(S'w'
I1
tp45
a(S'p2_ll'
I1
tp46
a(S'w'
I3
tp47
a(S'tr_lr'
I56
tp48
a(S'w'
I11733
tp49
a(S'p1_tl'
I63
tp50
a(S'p1_ll'
I1
tp51
a(S'w'
I4
tp52
a(S'p2_tl'
I212
tp53
a(S'w'
I1
tp54
a(S'p2_ll'
I1
tp55
a(S'w'
I5130
tp56
a(S'tr_lr'
I0
tp57
a(S'w'
I734
tp58
a(S'p1_tl'
I171
tp59
a(S'p1_ll'
I1
tp60
a(S'w'
I4
tp61
a(S'p2_tl'
I168
tp62
a(S'w'
I1
tp63
a(S'p2_ll'
I1
tp64
a(S'w'
I3
tp65
a(S'tr_lr'
I56
tp66
a(S'w'
I1
tp67
a(S'tr_tl'
I171
tp68
a(S'tr_ll'
I1
tp69
a(S'tr_th'
I1
tp70
a(S'w'
I5861
tp71
a(S'p1_tl'
I58
tp72
a(S'p1_ll'
I1
tp73
a(S'p1_th'
I2
tp74
a(S'w'
I5871
tp75
a(S'p1_tl'
I166
tp76
a(S'p1_ll'
I1
tp77
a(S'w'
I4
tp78
a(S'p2_tl'
I159
tp79
a(S'w'
I1
tp80
a(S'p2_ll'
I1
tp81
a(S'w'
I5131
tp82
a(S'tr_lr'
I0
tp83
a(S'w'
I734
tp84
a(S'p1_tl'
I171
tp85
a(S'p1_ll'
I1
tp86
a(S'p1_th'
I1
tp87
a(S'w'
I4
tp88
a(S'p2_tl'
I141
tp89
a(S'w'
I1
tp90
a(S'p2_ll'
I1
tp91
a(S'w'
I3
tp92
a(S'tr_lr'
I56
tp93
a(S'w'
I1
tp94
a(S'tr_tl'
I58
tp95
a(S'tr_ll'
I1
tp96
a(S'tr_th'
I2
tp97
a(S'w'
I5861
tp98
a(S'p1_tl'
I58
tp99
a(S'p1_ll'
I1
tp100
a(S'p1_th'
I2
tp101
a(S'w'
I5871
tp102
a(S'p1_tl'
I166
tp103
a(S'p1_ll'
I1
tp104
a(S'w'
I4
tp105
a(S'p2_tl'
I159
tp106
a(S'w'
I1
tp107
a(S'p2_ll'
I1
tp108
a(S'w'
I5131
tp109
a(S'tr_lr'
I0
tp110
a(S'w'
I734
tp111
a(S'p1_tl'
I196
tp112
a(S'p1_ll'
I1
tp113
a(S'p1_th'
I1
tp114
a(S'w'
I4
tp115
a(S'p2_tl'
I168
tp116
a(S'w'
I1
tp117
a(S'p2_ll'
I1
tp118
a(S'w'
I3
tp119
a(S'tr_lr'
I56
tp120
a(S'w'
I1
tp121
a(S'tr_tl'
I28
tp122
a(S'tr_ll'
I1
tp123
a(S'tr_th'
I1
tp124
a(S'w'
I5861
tp125
a(S'p1_tl'
I58
tp126
a(S'p1_ll'
I1
tp127
a(S'p1_th'
I2
tp128
a(S'w'
I5871
tp129
a(S'p1_tl'
I249
tp130
a(S'p1_ll'
I1
tp131
a(S'w'
I5136
tp132
a(S'tr_lr'
I0
tp133
a(S'w'
I734
tp134
a(S'p1_tl'
I196
tp135
a(S'p1_ll'
I1
tp136
a(S'p1_th'
I1
tp137
a(S'w'
I4
tp138
a(S'p2_tl'
I189
tp139
a(S'w'
I1
tp140
a(S'p2_ll'
I1
tp141
a(S'w'
I3
tp142
a(S'tr_lr'
I56
tp143
a(S'w'
I1
tp144
a(S'tr_tl'
I124
tp145
a(S'tr_ll'
I1
tp146
a(S'w'
I5861
tp147
a(S'p1_tl'
I58
tp148
a(S'p1_ll'
I1
tp149
a(S'p1_th'
I2
tp150
a(S'w'
I5871
tp151
a(S'p1_tl'
I249
tp152
a(S'p1_ll'
I1
tp153
a(S'w'
I5136
tp154
a(S'tr_lr'
I0
tp155
a(S'w'
I735
tp156
a(S'p1_tl'
I171
tp157
a(S'p1_ll'
I1
tp158
a(S'p1_th'
I1
tp159
a(S'w'
I4
tp160
a(S'p2_tl'
I212
tp161
a(S'w'
I1
tp162
a(S'p2_ll'
I1
tp163
a(S'w'
I3
tp164
a(S'tr_lr'
I56
tp165
a(S'w'
I1
tp166
a(S'tr_tl'
I171
tp167
a(S'tr_ll'
I1
tp168
a(S'w'
I11732
tp169
a(S'p1_tl'
I58
tp170
a(S'p1_ll'
I1
tp171
a(S'p1_th'
I2
tp172
a(S'w'
I5869
tp173
a(S'p1_ll'
I1
tp174
a(S'w'
I5870
tp175
a(S'p1_tl'
I252
tp176
a(S'p1_ll'
I1
tp177
a(S'p1_th'
I1
tp178
a(S'w'
I5871
tp179
a(S'p1_tl'
I196
tp180
a(S'p1_ll'
I1
tp181
a(S'w'
I5136
tp182
a(S'tr_lr'
I0
tp183
a(S'w'
I735
tp184
a(S'p1_tl'
I171
tp185
a(S'p1_ll'
I1
tp186
a(S'w'
I5
tp187
a(S'p2_cv'
I1
tp188
a(S'p2_vo'
I0
tp189
a(S'w'
I3
tp190
a(S'tr_lr'
I56
tp191
a(S'tr_ll'
I1
tp192
a(S'w'
I16868
tp193
a(S'tr_lr'
I0
tp194
a(S'w'
I734
tp195
a(S'p1_ll'
I1
tp196
a(S'w'
I5
tp197
a(S'tr_lr'
I56
tp198
a(S'w'
I1
tp199
a(S'tr_ll'
I1
tp200
a(S'w'
I16871
tp201
a(S'tr_lr'
I0
tp202
a(S'w'
I735
tp203
a(S'p1_tl'
I96
tp204
a(S'p1_ll'
I9
tp205
a(S'p1_th'
I0
tp206
a(S'w'
I3
tp207
a(S'p1_du'
I2
tp208
a(S'p1_cv'
I1
tp209
a(S'p1_vo'
I0
tp210
a(S'w'
I36325
tp211
a.