(lp1
(S'clock'
p2
I1789772
tp3
a(S'ch_no'
I1
tp4
a(S'ch_tr'
I1
tp5
a(S'ch_p2'
I1
tp6
a(S'ch_p1'
I1
tp7
a(S'w'
I1
tp8
a(S'fc_mo'
I1
tp9
a(S'w'
I2
tp10
a(S'p1_du'
I2
tp11
a(S'p1_cv'
I1
tp12
a(S'w'
I4
tp13
a(S'no_cv'
I1
tp14
a(S'w'
I5
tp15
a(S'p1_tl'
I196
tp16
a(S'w'
I1
tp17
a(S'p1_ll'
I1
tp18
a(S'p1_th'
I1
tp19
a(S'w'
I1
tp20
a(S'p1_sp'
I7
tp21
a(S'p1_sn'
I1
tp22
a(S'p1_ss'
I7
tp23
a(S'p1_du'
I1
tp24
a(S'p1_cv'
I0
tp25
a(S'p1_vo'
I2
tp26
a(S'w'
I3
tp27
a(S'p2_tl'
I150
tp28
a(S'p2_ll'
I1
tp29
a(S'w'
I1
tp30
a(S'p2_sp'
I7
tp31
a(S'p2_sn'
I1
tp32
a(S'p2_ss'
I7
tp33
a(S'p2_du'
I2
tp34
a(S'p2_vo'
I2
tp35
a(S'w'
I3
tp36
a(S'tr_lr'
I44
tp37
a(S'tr_tl'
I171
tp38
a(S'w'
I1
tp39
a(S'tr_ll'
I1
tp40
a(S'tr_th'
I1
tp41
a(S'w'
I4386
tp42
a(S'p1_tl'
I171
tp43
a(S'p1_ll'
I1
tp44
a(S'w'
I4
tp45
a(S'p2_tl'
I141
tp46
a(S'w'
I1
tp47
a(S'p2_ll'
I1
tp48
a(S'w'
I3664
tp49
a(S'tr_lr'
I0
tp50
a(S'w'
I734
tp51
a(S'p1_ll'
I1
tp52
a(S'w'
I4
tp53
a(S'p2_tl'
I150
tp54
a(S'w'
I1
tp55
a(S'p2_ll'
I1
tp56
a(S'w'
I3
tp57
a(S'tr_lr'
I20
tp58
a(S'w'
I3661
tp59
a(S'tr_lr'
I0
tp60
a(S'w'
I734
tp61
a(S'p1_ll'
I1
tp62
a(S'w'
I4
tp63
a(S'p2_tl'
I141
tp64
a(S'w'
I1
tp65
a(S'p2_ll'
I1
tp66
a(S'w'
I3
tp67
a(S'tr_lr'
I20
tp68
a(S'w'
I1
tp69
a(S'tr_ll'
I1
tp70
a(S'w'
I3660
tp71
a(S'tr_lr'
I0
tp72
a(S'w'
I734
tp73
a(S'p1_tl'
I196
tp74
a(S'p1_ll'
I1
tp75
a(S'w'
I4
tp76
a(S'p2_tl'
I105
tp77
a(S'w'
I1
tp78
a(S'p2_ll'
I1
tp79
a(S'w'
I3
tp80
a(S'tr_lr'
I56
tp81
a(S'w'
I1
tp82
a(S'tr_tl'
I58
tp83
a(S'tr_ll'
I1
tp84
a(S'tr_th'
I2
tp85
a(S'w'
I4393
tp86
a(S'p1_ll'
I1
tp87
a(S'w'
I4
tp88
a(S'p2_tl'
I150
tp89
a(S'w'
I1
tp90
a(S'p2_ll'
I1
tp91
a(S'w'
I4398
tp92
a(S'p1_ll'
I1
tp93
a(S'w'
I4
tp94
a(S'p2_tl'
I141
tp95
a(S'w'
I1
tp96
a(S'p2_ll'
I1
tp97
a(S'w'
I4398
tp98
a(S'p1_tl'
I171
tp99
a(S'p1_ll'
I1
tp100
a(S'w'
I4
tp101
a(S'p2_tl'
I105
tp102
a(S'w'
I1
tp103
a(S'p2_ll'
I1
tp104
a(S'w'
I3664
tp105
a(S'tr_lr'
I0
tp106
a(S'w'
I734
tp107
a(S'p1_tl'
I196
tp108
a(S'p1_ll'
I1
tp109
a(S'w'
I4
tp110
a(S'p2_tl'
I150
tp111
a(S'w'
I1
tp112
a(S'p2_ll'
I1
tp113
a(S'w'
I3
tp114
a(S'tr_lr'
I44
tp115
a(S'w'
I1
tp116
a(S'tr_tl'
I171
tp117
a(S'tr_ll'
I1
tp118
a(S'tr_th'
I1
tp119
a(S'w'
I4393
tp120
a(S'p1_tl'
I171
tp121
a(S'p1_ll'
I1
tp122
a(S'w'
I4
tp123
a(S'p2_tl'
I141
tp124
a(S'w'
I1
tp125
a(S'p2_ll'
I1
tp126
a(S'w'
I3664
tp127
a(S'tr_lr'
I0
tp128
a(S'w'
I734
tp129
a(S'p1_ll'
I1
tp130
a(S'w'
I4
tp131
a(S'p2_tl'
I150
tp132
a(S'w'
I1
tp133
a(S'p2_ll'
I1
tp134
a(S'w'
I3
tp135
a(S'tr_lr'
I20
tp136
a(S'w'
I3661
tp137
a(S'tr_lr'
I0
tp138
a(S'w'
I734
tp139
a(S'p1_ll'
I1
tp140
a(S'w'
I4
tp141
a(S'p2_tl'
I141
tp142
a(S'w'
I1
tp143
a(S'p2_ll'
I1
tp144
a(S'w'
I3
tp145
a(S'tr_lr'
I20
tp146
a(S'w'
I1
tp147
a(S'tr_ll'
I1
tp148
a(S'w'
I3660
tp149
a(S'tr_lr'
I0
tp150
a(S'w'
I734
tp151
a(S'p1_tl'
I196
tp152
a(S'p1_ll'
I1
tp153
a(S'w'
I4
tp154
a(S'p2_tl'
I105
tp155
a(S'w'
I1
tp156
a(S'p2_ll'
I1
tp157
a(S'w'
I3
tp158
a(S'tr_lr'
I56
tp159
a(S'w'
I1
tp160
a(S'tr_tl'
I58
tp161
a(S'tr_ll'
I1
tp162
a(S'tr_th'
I2
tp163
a(S'w'
I4393
tp164
a(S'p1_ll'
I1
tp165
a(S'w'
I4
tp166
a(S'p2_tl'
I150
tp167
a(S'w'
I1
tp168
a(S'p2_ll'
I1
tp169
a(S'w'
I4398
tp170
a(S'p1_ll'
I1
tp171
a(S'w'
I4
tp172
a(S'p2_tl'
I141
tp173
a(S'w'
I1
tp174
a(S'p2_ll'
I1
tp175
a(S'w'
I4398
tp176
a(S'p1_tl'
I171
tp177
a(S'p1_ll'
I1
tp178
a(S'w'
I4
tp179
a(S'p2_tl'
I105
tp180
a(S'w'
I1
tp181
a(S'p2_ll'
I1
tp182
a(S'w'
I3664
tp183
a(S'tr_lr'
I0
tp184
a(S'w'
I734
tp185
a(S'p1_ll'
I1
tp186
a(S'w'
I4
tp187
a(S'p2_tl'
I150
tp188
a(S'w'
I1
tp189
a(S'p2_ll'
I1
tp190
a(S'w'
I3
tp191
a(S'tr_lr'
I44
tp192
a(S'w'
I1
tp193
a(S'tr_tl'
I171
tp194
a(S'tr_ll'
I1
tp195
a(S'tr_th'
I1
tp196
a(S'w'
I4393
tp197
a(S'p1_tl'
I196
tp198
a(S'p1_ll'
I1
tp199
a(S'w'
I4
tp200
a(S'p2_tl'
I141
tp201
a(S'w'
I1
tp202
a(S'p2_ll'
I1
tp203
a(S'w'
I3664
tp204
a(S'tr_lr'
I0
tp205
a(S'w'
I734
tp206
a(S'p1_tl'
I252
tp207
a(S'p1_ll'
I1
tp208
a(S'w'
I4
tp209
a(S'p2_tl'
I150
tp210
a(S'w'
I1
tp211
a(S'p2_ll'
I1
tp212
a(S'w'
I3
tp213
a(S'tr_lr'
I20
tp214
a(S'w'
I1
tp215
a(S'tr_tl'
I124
tp216
a(S'tr_ll'
I1
tp217
a(S'w'
I3660
tp218
a(S'tr_lr'
I0
tp219
a(S'w'
I734
tp220
a(S'p1_tl'
I58
tp221
a(S'p1_ll'
I1
tp222
a(S'p1_th'
I2
tp223
a(S'w'
I4
tp224
a(S'p2_tl'
I141
tp225
a(S'w'
I1
tp226
a(S'p2_ll'
I1
tp227
a(S'w'
I3
tp228
a(S'tr_lr'
I20
tp229
a(S'w'
I1
tp230
a(S'tr_tl'
I103
tp231
a(S'tr_ll'
I1
tp232
a(S'w'
I3660
tp233
a(S'tr_lr'
I0
tp234
a(S'w'
I734
tp235
a(S'p1_tl'
I128
tp236
a(S'p1_ll'
I1
tp237
a(S'w'
I4
tp238
a(S'p2_tl'
I105
tp239
a(S'w'
I1
tp240
a(S'p2_ll'
I1
tp241
a(S'w'
I3
tp242
a(S'tr_lr'
I20
tp243
a(S'w'
I1
tp244
a(S'tr_tl'
I82
tp245
a(S'tr_ll'
I1
tp246
a(S'w'
I3659
tp247
a(S'tr_lr'
I0
tp248
a(S'w'
I734
tp249
a(S'p1_tl'
I58
tp250
a(S'p1_ll'
I1
tp251
a(S'w'
I4
tp252
a(S'p2_tl'
I212
tp253
a(S'w'
I1
tp254
a(S'p2_ll'
I1
tp255
a(S'w'
I3
tp256
a(S'tr_lr'
I20
tp257
a(S'w'
I1
tp258
a(S'tr_tl'
I28
tp259
a(S'tr_ll'
I1
tp260
a(S'w'
I3660
tp261
a(S'tr_lr'
I0
tp262
a(S'w'
I734
tp263
a(S'p1_tl'
I252
tp264
a(S'p1_ll'
I1
tp265
a(S'p1_th'
I1
tp266
a(S'w'
I4
tp267
a(S'p2_tl'
I178
tp268
a(S'w'
I1
tp269
a(S'p2_ll'
I1
tp270
a(S'w'
I3
tp271
a(S'tr_lr'
I20
tp272
a(S'w'
I1
tp273
a(S'tr_tl'
I253
tp274
a(S'tr_ll'
I1
tp275
a(S'tr_th'
I0
tp276
a(S'w'
I3660
tp277
a(S'tr_lr'
I0
tp278
a(S'w'
I734
tp279
a(S'p1_tl'
I196
tp280
a(S'p1_ll'
I1
tp281
a(S'w'
I4
tp282
a(S'p2_tl'
I168
tp283
a(S'w'
I1
tp284
a(S'p2_ll'
I1
tp285
a(S'w'
I3
tp286
a(S'tr_lr'
I20
tp287
a(S'w'
I1
tp288
a(S'tr_tl'
I28
tp289
a(S'tr_ll'
I1
tp290
a(S'tr_th'
I1
tp291
a(S'w'
I3660
tp292
a(S'tr_lr'
I0
tp293
a(S'w'
I735
tp294
a(S'p1_tl'
I124
tp295
a(S'p1_ll'
I1
tp296
a(S'w'
I2
tp297
a(S'p1_vo'
I6
tp298
a(S'w'
I2
tp299
a(S'p2_tl'
I212
tp300
a(S'w'
I1
tp301
a(S'p2_ll'
I1
tp302
a(S'w'
I1
tp303
a(S'p2_vo'
I6
tp304
a(S'w'
I2
tp305
a(S'tr_lr'
I56
tp306
a(S'w'
I1
tp307
a(S'tr_tl'
I212
tp308
a(S'tr_ll'
I1
tp309
a(S'tr_th'
I0
tp310
a(S'w'
I34478
tp311
a(S'tr_lr'
I0
tp312
a(S'w'
I735
tp313
a(S'p1_tl'
I1
tp314
a(S'p1_ll'
I11
tp315
a(S'p1_th'
I2
tp316
a(S'w'
I2
tp317
a(S'p1_vo'
I2
tp318
a(S'w'
I1
tp319
a(S'p1_du'
I2
tp320
a(S'p1_cv'
I1
tp321
a(S'p1_vo'
I0
tp322
a(S'w'
I22942
tp323
a.