(lp1
(S'clock'
p2
I1789772
tp3
a(S'p1_cv'
I1
tp4
a(S'p1_sp'
I7
tp5
a(S'p1_sn'
I1
tp6
a(S'p1_ss'
I7
tp7
a(S'p1_tl'
I71
tp8
a(S'p1_ll'
I11
tp9
a(S'p2_cv'
I1
tp10
a(S'p2_sp'
I7
tp11
a(S'p2_sn'
I1
tp12
a(S'p2_ss'
I7
tp13
a(S'p2_tl'
I95
tp14
a(S'p2_ll'
I11
tp15
a(S'tr_lr'
I32
tp16
a(S'tr_tl'
I113
tp17
a(S'tr_ll'
I11
tp18
a(S'ch_no'
I1
tp19
a(S'ch_tr'
I1
tp20
a(S'ch_p2'
I1
tp21
a(S'ch_p1'
I1
tp22
a(S'fc_mo'
I1
tp23
a(S'p1_lh'
I1
tp24
a(S'w'
I1
tp25
a(S'p1_ll'
I1
tp26
a(S'w'
I7
tp27
a(S'p2_lh'
I1
tp28
a(S'w'
I1
tp29
a(S'p2_ll'
I1
tp30
a(S'w'
I44
tp31
a(S'p1_du'
I2
tp32
a(S'p1_vo'
I6
tp33
a(S'w'
I10
tp34
a(S'p1_ll'
I1
tp35
a(S'p1_th'
I1
tp36
a(S'w'
I3
tp37
a(S'p1_tl'
I103
tp38
a(S'w'
I34
tp39
a(S'p2_du'
I2
tp40
a(S'p2_vo'
I6
tp41
a(S'w'
I9
tp42
a(S'p2_ll'
I1
tp43
a(S'p2_th'
I2
tp44
a(S'w'
I3
tp45
a(S'p2_tl'
I92
tp46
a(S'w'
I13
tp47
a(S'tr_lh'
I1
tp48
a(S'tr_lr'
I1
tp49
a(S'w'
I7
tp50
a(S'tr_ll'
I1
tp51
a(S'tr_th'
I2
tp52
a(S'w'
I3
tp53
a(S'tr_tl'
I206
tp54
a(S'w'
I161
tp55
a(S'p1_vo'
I7
tp56
a(S'w'
I11
tp57
a(S'p2_vo'
I7
tp58
a(S'w'
I723
tp59
a(S'p1_vo'
I8
tp60
a(S'w'
I11
tp61
a(S'p2_vo'
I8
tp62
a(S'w'
I721
tp63
a(S'p1_vo'
I7
tp64
a(S'w'
I9
tp65
a(S'p2_vo'
I7
tp66
a(S'w'
I734
tp67
a(S'p1_vo'
I6
tp68
a(S'w'
I10
tp69
a(S'p1_tl'
I82
tp70
a(S'w'
I19
tp71
a(S'p2_vo'
I6
tp72
a(S'w'
I10
tp73
a(S'p2_tl'
I58
tp74
a(S'w'
I15
tp75
a(S'tr_ll'
I1
tp76
a(S'w'
I3
tp77
a(S'tr_tl'
I166
tp78
a(S'w'
I669
tp79
a(S'p1_vo'
I7
tp80
a(S'w'
I11
tp81
a(S'p2_vo'
I7
tp82
a(S'w'
I723
tp83
a(S'p1_vo'
I8
tp84
a(S'w'
I11
tp85
a(S'p2_vo'
I8
tp86
a(S'w'
I721
tp87
a(S'p1_vo'
I7
tp88
a(S'w'
I9
tp89
a(S'p2_vo'
I7
tp90
a(S'w'
I734
tp91
a(S'p1_vo'
I6
tp92
a(S'w'
I10
tp93
a(S'p1_tl'
I63
tp94
a(S'w'
I19
tp95
a(S'p2_vo'
I6
tp96
a(S'w'
I10
tp97
a(S'p2_tl'
I26
tp98
a(S'w'
I15
tp99
a(S'tr_ll'
I1
tp100
a(S'w'
I3
tp101
a(S'tr_tl'
I128
tp102
a(S'w'
I670
tp103
a(S'p1_vo'
I7
tp104
a(S'w'
I10
tp105
a(S'p2_vo'
I7
tp106
a(S'w'
I723
tp107
a(S'p1_vo'
I8
tp108
a(S'w'
I11
tp109
a(S'p2_vo'
I8
tp110
a(S'w'
I721
tp111
a(S'p1_vo'
I7
tp112
a(S'w'
I10
tp113
a(S'p2_vo'
I7
tp114
a(S'w'
I733
tp115
a(S'p1_vo'
I6
tp116
a(S'w'
I11
tp117
a(S'p1_tl'
I45
tp118
a(S'w'
I18
tp119
a(S'p2_vo'
I6
tp120
a(S'w'
I10
tp121
a(S'p2_ll'
I1
tp122
a(S'p2_th'
I1
tp123
a(S'w'
I2
tp124
a(S'p2_tl'
I251
tp125
a(S'w'
I16
tp126
a(S'tr_ll'
I1
tp127
a(S'w'
I2
tp128
a(S'tr_tl'
I92
tp129
a(S'w'
I668
tp130
a(S'p1_vo'
I7
tp131
a(S'w'
I11
tp132
a(S'p2_vo'
I7
tp133
a(S'w'
I723
tp134
a(S'p1_vo'
I8
tp135
a(S'w'
I10
tp136
a(S'p2_vo'
I8
tp137
a(S'w'
I722
tp138
a(S'p1_vo'
I7
tp139
a(S'w'
I9
tp140
a(S'p2_vo'
I7
tp141
a(S'w'
I734
tp142
a(S'p1_vo'
I6
tp143
a(S'w'
I10
tp144
a(S'p1_tl'
I28
tp145
a(S'w'
I18
tp146
a(S'p2_vo'
I6
tp147
a(S'w'
I10
tp148
a(S'p2_tl'
I223
tp149
a(S'w'
I16
tp150
a(S'tr_ll'
I1
tp151
a(S'w'
I2
tp152
a(S'tr_tl'
I58
tp153
a(S'w'
I670
tp154
a(S'p1_vo'
I7
tp155
a(S'w'
I11
tp156
a(S'p2_vo'
I7
tp157
a(S'w'
I723
tp158
a(S'p1_vo'
I8
tp159
a(S'w'
I11
tp160
a(S'p2_vo'
I8
tp161
a(S'w'
I721
tp162
a(S'p1_vo'
I7
tp163
a(S'w'
I9
tp164
a(S'p2_vo'
I7
tp165
a(S'w'
I734
tp166
a(S'p1_vo'
I6
tp167
a(S'w'
I10
tp168
a(S'p1_tl'
I12
tp169
a(S'w'
I19
tp170
a(S'p2_vo'
I6
tp171
a(S'w'
I9
tp172
a(S'p2_tl'
I196
tp173
a(S'w'
I16
tp174
a(S'tr_ll'
I1
tp175
a(S'w'
I3
tp176
a(S'tr_tl'
I26
tp177
a(S'w'
I669
tp178
a(S'p1_vo'
I7
tp179
a(S'w'
I11
tp180
a(S'p2_vo'
I7
tp181
a(S'w'
I723
tp182
a(S'p1_vo'
I8
tp183
a(S'w'
I11
tp184
a(S'p2_vo'
I8
tp185
a(S'w'
I721
tp186
a(S'p1_vo'
I7
tp187
a(S'w'
I9
tp188
a(S'p2_vo'
I7
tp189
a(S'w'
I734
tp190
a(S'p1_vo'
I6
tp191
a(S'w'
I10
tp192
a(S'p1_ll'
I1
tp193
a(S'p1_th'
I0
tp194
a(S'w'
I3
tp195
a(S'p1_tl'
I253
tp196
a(S'w'
I22
tp197
a(S'p2_vo'
I6
tp198
a(S'w'
I10
tp199
a(S'p2_tl'
I171
tp200
a(S'w'
I15
tp201
a(S'tr_ll'
I1
tp202
a(S'tr_th'
I1
tp203
a(S'w'
I3
tp204
a(S'tr_tl'
I251
tp205
a(S'w'
I663
tp206
a(S'p1_vo'
I7
tp207
a(S'w'
I11
tp208
a(S'p2_vo'
I7
tp209
a(S'w'
I723
tp210
a(S'p1_vo'
I8
tp211
a(S'w'
I11
tp212
a(S'p2_vo'
I8
tp213
a(S'w'
I721
tp214
a(S'p1_vo'
I7
tp215
a(S'w'
I9
tp216
a(S'p2_vo'
I7
tp217
a(S'w'
I734
tp218
a(S'p1_vo'
I6
tp219
a(S'w'
I10
tp220
a(S'p1_tl'
I239
tp221
a(S'w'
I19
tp222
a(S'p2_vo'
I6
tp223
a(S'w'
I10
tp224
a(S'p2_tl'
I147
tp225
a(S'w'
I15
tp226
a(S'tr_ll'
I1
tp227
a(S'w'
I3
tp228
a(S'tr_tl'
I223
tp229
a(S'w'
I670
tp230
a(S'p1_vo'
I7
tp231
a(S'w'
I10
tp232
a(S'p2_vo'
I7
tp233
a(S'w'
I723
tp234
a(S'p1_vo'
I8
tp235
a(S'w'
I11
tp236
a(S'p2_vo'
I8
tp237
a(S'w'
I721
tp238
a(S'p1_vo'
I7
tp239
a(S'w'
I10
tp240
a(S'p2_vo'
I7
tp241
a(S'w'
I755
tp242
a(S'p1_vo'
I1
tp243
a(S'w'
I10
tp244
a(S'p1_tl'
I225
tp245
a(S'w'
I40
tp246
a(S'p2_vo'
I1
tp247
a(S'w'
I10
tp248
a(S'p2_tl'
I124
tp249
a(S'w'
I24
tp250
a(S'tr_ll'
I1
tp251
a(S'w'
I2
tp252
a(S'tr_tl'
I196
tp253
a(S'w'
I14
tp254
a(S'ch_no'
I1
tp255
a(S'ch_tr'
I1
tp256
a(S'ch_p2'
I1
tp257
a(S'ch_p1'
I1
tp258
a(S'w'
I1339
tp259
a(S'p1_vo'
I2
tp260
a(S'w'
I10
tp261
a(S'p2_vo'
I2
tp262
a(S'w'
I1457
tp263
a(S'p1_vo'
I3
tp264
a(S'w'
I11
tp265
a(S'p2_vo'
I3
tp266
a(S'w'
I1457
tp267
a(S'p1_vo'
I4
tp268
a(S'w'
I11
tp269
a(S'p2_vo'
I4
tp270
a(S'w'
I723
tp271
a(S'p1_vo'
I5
tp272
a(S'w'
I10
tp273
a(S'p2_vo'
I5
tp274
a(S'w'
I723
tp275
a(S'p1_vo'
I6
tp276
a(S'w'
I11
tp277
a(S'p2_vo'
I6
tp278
a(S'w'
I723
tp279
a(S'p1_vo'
I7
tp280
a(S'w'
I11
tp281
a(S'p2_vo'
I7
tp282
a(S'w'
I5128
tp283
a(S'w'
I21
tp284
a(S'w'
I711
tp285
a(S'p1_tl'
I223
tp286
a(S'w'
I21
tp287
a(S'p2_tl'
I122
tp288
a(S'w'
I713
tp289
a(S'p1_tl'
I221
tp290
a(S'w'
I21
tp291
a(S'p2_tl'
I120
tp292
a(S'w'
I713
tp293
a(S'p1_tl'
I219
tp294
a(S'w'
I21
tp295
a(S'p2_tl'
I118
tp296
a(S'w'
I713
tp297
a(S'p1_tl'
I221
tp298
a(S'w'
I20
tp299
a(S'p2_tl'
I120
tp300
a(S'w'
I714
tp301
a(S'p1_tl'
I223
tp302
a(S'w'
I20
tp303
a(S'p2_tl'
I122
tp304
a(S'w'
I713
tp305
a(S'p1_tl'
I225
tp306
a(S'w'
I21
tp307
a(S'p2_tl'
I124
tp308
a(S'w'
I714
tp309
a(S'p1_tl'
I227
tp310
a(S'w'
I21
tp311
a(S'p2_tl'
I126
tp312
a(S'w'
I712
tp313
a(S'p1_tl'
I229
tp314
a(S'w'
I22
tp315
a(S'p2_tl'
I128
tp316
a(S'w'
I712
tp317
a(S'p1_tl'
I231
tp318
a(S'w'
I21
tp319
a(S'p2_tl'
I130
tp320
a(S'w'
I713
tp321
a(S'p1_tl'
I229
tp322
a(S'w'
I21
tp323
a(S'p2_tl'
I128
tp324
a(S'w'
I713
tp325
a(S'p1_tl'
I227
tp326
a(S'w'
I21
tp327
a(S'p2_tl'
I126
tp328
a(S'w'
I714
tp329
a(S'p1_tl'
I225
tp330
a(S'w'
I21
tp331
a(S'p2_tl'
I124
tp332
a(S'w'
I711
tp333
a(S'p1_tl'
I223
tp334
a(S'w'
I21
tp335
a(S'p2_tl'
I122
tp336
a(S'w'
I713
tp337
a(S'p1_tl'
I221
tp338
a(S'w'
I20
tp339
a(S'p2_tl'
I120
tp340
a(S'w'
I714
tp341
a(S'p1_tl'
I219
tp342
a(S'w'
I20
tp343
a(S'p2_tl'
I118
tp344
a(S'w'
I713
tp345
a(S'p1_tl'
I221
tp346
a(S'w'
I21
tp347
a(S'p2_tl'
I120
tp348
a(S'w'
I713
tp349
a(S'p1_tl'
I223
tp350
a(S'w'
I21
tp351
a(S'p2_tl'
I122
tp352
a(S'w'
I713
tp353
a(S'p1_tl'
I225
tp354
a(S'w'
I21
tp355
a(S'p2_tl'
I124
tp356
a(S'w'
I713
tp357
a(S'p1_tl'
I227
tp358
a(S'w'
I22
tp359
a(S'p2_tl'
I126
tp360
a(S'w'
I712
tp361
a(S'p1_tl'
I229
tp362
a(S'w'
I21
tp363
a(S'p2_tl'
I128
tp364
a(S'w'
I713
tp365
a(S'p1_tl'
I231
tp366
a(S'w'
I21
tp367
a(S'p2_tl'
I130
tp368
a(S'w'
I713
tp369
a(S'p1_tl'
I229
tp370
a(S'w'
I21
tp371
a(S'p2_tl'
I128
tp372
a(S'w'
I712
tp373
a(S'p1_tl'
I227
tp374
a(S'w'
I22
tp375
a(S'p2_tl'
I126
tp376
a(S'w'
I713
tp377
a(S'p1_tl'
I225
tp378
a(S'w'
I22
tp379
a(S'p2_tl'
I124
tp380
a(S'w'
I711
tp381
a(S'p1_tl'
I223
tp382
a(S'w'
I20
tp383
a(S'p2_tl'
I122
tp384
a(S'w'
I713
tp385
a(S'p1_tl'
I221
tp386
a(S'w'
I21
tp387
a(S'p2_tl'
I120
tp388
a(S'w'
I713
tp389
a(S'p1_tl'
I219
tp390
a(S'w'
I21
tp391
a(S'p2_tl'
I118
tp392
a(S'w'
I713
tp393
a(S'p1_tl'
I221
tp394
a(S'w'
I21
tp395
a(S'p2_tl'
I120
tp396
a(S'w'
I713
tp397
a(S'p1_tl'
I223
tp398
a(S'w'
I20
tp399
a(S'p2_tl'
I122
tp400
a(S'w'
I714
tp401
a(S'p1_tl'
I225
tp402
a(S'w'
I20
tp403
a(S'p2_tl'
I124
tp404
a(S'w'
I714
tp405
a(S'p1_tl'
I227
tp406
a(S'w'
I21
tp407
a(S'p2_tl'
I126
tp408
a(S'w'
I713
tp409
a(S'p1_tl'
I229
tp410
a(S'w'
I6
tp411
a(S'p1_vo'
I6
tp412
a(S'w'
I12
tp413
a(S'p2_tl'
I128
tp414
a(S'w'
I7
tp415
a(S'p2_vo'
I6
tp416
a(S'w'
I709
tp417
a(S'p1_tl'
I231
tp418
a(S'w'
I6
tp419
a(S'p1_vo'
I5
tp420
a(S'w'
I12
tp421
a(S'p2_tl'
I130
tp422
a(S'w'
I7
tp423
a(S'p2_vo'
I5
tp424
a(S'w'
I708
tp425
a(S'p1_tl'
I229
tp426
a(S'w'
I7
tp427
a(S'p1_vo'
I4
tp428
a(S'w'
I12
tp429
a(S'p2_tl'
I128
tp430
a(S'w'
I6
tp431
a(S'p2_vo'
I4
tp432
a(S'w'
I709
tp433
a(S'p1_tl'
I227
tp434
a(S'w'
I7
tp435
a(S'p1_vo'
I3
tp436
a(S'w'
I12
tp437
a(S'p2_tl'
I126
tp438
a(S'w'
I6
tp439
a(S'p2_vo'
I3
tp440
a(S'w'
I710
tp441
a(S'p1_tl'
I225
tp442
a(S'w'
I6
tp443
a(S'p1_vo'
I2
tp444
a(S'w'
I13
tp445
a(S'p2_tl'
I124
tp446
a(S'w'
I7
tp447
a(S'p2_vo'
I2
tp448
a(S'w'
I706
tp449
a(S'p1_tl'
I223
tp450
a(S'w'
I7
tp451
a(S'p1_vo'
I1
tp452
a(S'w'
I12
tp453
a(S'p2_tl'
I122
tp454
a(S'w'
I6
tp455
a(S'p2_vo'
I1
tp456
a(S'w'
I709
tp457
a(S'p1_tl'
I221
tp458
a(S'w'
I18
tp459
a(S'p2_tl'
I120
tp460
a(S'w'
I716
tp461
a(S'p1_tl'
I219
tp462
a(S'w'
I18
tp463
a(S'p2_tl'
I118
tp464
a(S'w'
I716
tp465
a(S'p1_tl'
I221
tp466
a(S'w'
I18
tp467
a(S'p2_tl'
I120
tp468
a(S'w'
I715
tp469
a(S'p1_tl'
I223
tp470
a(S'w'
I18
tp471
a(S'p2_tl'
I122
tp472
a(S'w'
I716
tp473
a(S'p1_tl'
I225
tp474
a(S'w'
I18
tp475
a(S'p2_tl'
I124
tp476
a(S'w'
I717
tp477
a(S'p1_tl'
I227
tp478
a(S'w'
I18
tp479
a(S'p2_tl'
I126
tp480
a(S'w'
I715
tp481
a(S'p1_tl'
I229
tp482
a(S'w'
I19
tp483
a(S'p2_tl'
I128
tp484
a(S'w'
I715
tp485
a(S'p1_tl'
I231
tp486
a(S'w'
I19
tp487
a(S'p2_tl'
I130
tp488
a(S'w'
I715
tp489
a(S'p1_tl'
I229
tp490
a(S'w'
I19
tp491
a(S'p2_tl'
I128
tp492
a(S'w'
I715
tp493
a(S'p1_tl'
I227
tp494
a(S'w'
I18
tp495
a(S'p2_tl'
I126
tp496
a(S'w'
I735
tp497
a(S'p1_tl'
I239
tp498
a(S'w'
I31
tp499
a(S'p2_tl'
I82
tp500
a(S'w'
I22
tp501
a(S'tr_ll'
I1
tp502
a(S'w'
I3
tp503
a(S'tr_tl'
I147
tp504
a(S'w'
I675
tp505
a(S'no_lh'
I1
tp506
a(S'no_cv'
I1
tp507
a(S'no_vo'
I9
tp508
a(S'w'
I5
tp509
a(S'no_ll'
I1
tp510
a(S'w'
I3
tp511
a(S'no_np'
I2
tp512
a(S'w'
I708
tp513
a(S'p1_vo'
I2
tp514
a(S'w'
I11
tp515
a(S'p2_vo'
I2
tp516
a(S'w'
I10
tp517
a(S'no_vo'
I8
tp518
a(S'w'
I6
tp519
a(S'no_np'
I1
tp520
a(S'w'
I723
tp521
a(S'no_vo'
I7
tp522
a(S'w'
I5
tp523
a(S'w'
I712
tp524
a(S'p1_vo'
I3
tp525
a(S'w'
I11
tp526
a(S'p2_vo'
I3
tp527
a(S'w'
I12
tp528
a(S'no_vo'
I6
tp529
a(S'w'
I6
tp530
a(S'w'
I1439
tp531
a(S'p1_vo'
I4
tp532
a(S'w'
I11
tp533
a(S'p2_vo'
I4
tp534
a(S'w'
I16
tp535
a(S'w'
I707
tp536
a(S'p1_vo'
I5
tp537
a(S'w'
I11
tp538
a(S'p2_vo'
I5
tp539
a(S'w'
I723
tp540
a(S'p1_vo'
I6
tp541
a(S'w'
I11
tp542
a(S'p2_vo'
I6
tp543
a(S'w'
I10
tp544
a(S'no_vo'
I5
tp545
a(S'w'
I6
tp546
a(S'w'
I706
tp547
a(S'p1_vo'
I7
tp548
a(S'w'
I11
tp549
a(S'p2_vo'
I7
tp550
a(S'w'
I752
tp551
a(S'w'
I1462
tp552
a(S'no_vo'
I4
tp553
a(S'w'
I5
tp554
a(S'w'
I1468
tp555
a(S'w'
I1441
tp556
a(S'w'
I22
tp557
a(S'w'
I19
tp558
a(S'no_vo'
I3
tp559
a(S'w'
I5
tp560
a(S'w'
I687
tp561
a(S'p1_tl'
I237
tp562
a(S'w'
I20
tp563
a(S'p2_tl'
I80
tp564
a(S'w'
I713
tp565
a(S'p1_tl'
I235
tp566
a(S'w'
I21
tp567
a(S'p2_tl'
I78
tp568
a(S'w'
I25
tp569
a(S'w'
I688
tp570
a(S'p1_tl'
I233
tp571
a(S'w'
I21
tp572
a(S'p2_tl'
I76
tp573
a(S'w'
I713
tp574
a(S'p1_tl'
I235
tp575
a(S'w'
I21
tp576
a(S'p2_tl'
I78
tp577
a(S'w'
I19
tp578
a(S'no_vo'
I2
tp579
a(S'w'
I5
tp580
a(S'w'
I689
tp581
a(S'p1_tl'
I237
tp582
a(S'w'
I20
tp583
a(S'p2_tl'
I80
tp584
a(S'w'
I714
tp585
a(S'p1_tl'
I239
tp586
a(S'w'
I20
tp587
a(S'p2_tl'
I82
tp588
a(S'w'
I25
tp589
a(S'w'
I689
tp590
a(S'p1_tl'
I241
tp591
a(S'w'
I21
tp592
a(S'p2_tl'
I84
tp593
a(S'w'
I713
tp594
a(S'p1_tl'
I243
tp595
a(S'w'
I21
tp596
a(S'p2_tl'
I86
tp597
a(S'w'
I21
tp598
a(S'no_vo'
I1
tp599
a(S'w'
I5
tp600
a(S'w'
I687
tp601
a(S'p1_tl'
I245
tp602
a(S'w'
I21
tp603
a(S'p2_tl'
I88
tp604
a(S'w'
I712
tp605
a(S'p1_tl'
I243
tp606
a(S'w'
I22
tp607
a(S'p2_tl'
I86
tp608
a(S'w'
I712
tp609
a(S'p1_tl'
I241
tp610
a(S'w'
I21
tp611
a(S'p2_tl'
I84
tp612
a(S'w'
I714
tp613
a(S'p1_tl'
I239
tp614
a(S'w'
I22
tp615
a(S'p2_tl'
I82
tp616
a(S'w'
I710
tp617
a(S'p1_tl'
I237
tp618
a(S'w'
I21
tp619
a(S'p2_tl'
I80
tp620
a(S'w'
I713
tp621
a(S'p1_tl'
I235
tp622
a(S'w'
I21
tp623
a(S'p2_tl'
I78
tp624
a(S'w'
I19
tp625
a(S'no_vo'
I0
tp626
a(S'w'
I694
tp627
a(S'p1_tl'
I233
tp628
a(S'w'
I21
tp629
a(S'p2_tl'
I76
tp630
a(S'w'
I713
tp631
a(S'p1_tl'
I235
tp632
a(S'w'
I20
tp633
a(S'p2_tl'
I78
tp634
a(S'w'
I714
tp635
a(S'p1_tl'
I237
tp636
a(S'w'
I20
tp637
a(S'p2_tl'
I80
tp638
a(S'w'
I713
tp639
a(S'p1_tl'
I239
tp640
a(S'w'
I21
tp641
a(S'p2_tl'
I82
tp642
a(S'w'
I714
tp643
a(S'p1_tl'
I241
tp644
a(S'w'
I21
tp645
a(S'p2_tl'
I84
tp646
a(S'w'
I712
tp647
a(S'p1_tl'
I243
tp648
a(S'w'
I22
tp649
a(S'p2_tl'
I86
tp650
a(S'w'
I712
tp651
a(S'p1_tl'
I245
tp652
a(S'w'
I21
tp653
a(S'p2_tl'
I88
tp654
a(S'w'
I713
tp655
a(S'p1_tl'
I243
tp656
a(S'w'
I21
tp657
a(S'p2_tl'
I86
tp658
a(S'w'
I713
tp659
a(S'p1_tl'
I241
tp660
a(S'w'
I21
tp661
a(S'p2_tl'
I84
tp662
a(S'w'
I713
tp663
a(S'p1_tl'
I239
tp664
a(S'w'
I22
tp665
a(S'p2_tl'
I82
tp666
a(S'w'
I711
tp667
a(S'p1_tl'
I237
tp668
a(S'w'
I20
tp669
a(S'p2_tl'
I80
tp670
a(S'w'
I714
tp671
a(S'p1_tl'
I235
tp672
a(S'w'
I20
tp673
a(S'p2_tl'
I78
tp674
a(S'w'
I713
tp675
a(S'p1_tl'
I233
tp676
a(S'w'
I21
tp677
a(S'p2_tl'
I76
tp678
a(S'w'
I713
tp679
a(S'p1_tl'
I235
tp680
a(S'w'
I21
tp681
a(S'p2_tl'
I78
tp682
a(S'w'
I713
tp683
a(S'p1_tl'
I237
tp684
a(S'w'
I21
tp685
a(S'p2_tl'
I80
tp686
a(S'w'
I713
tp687
a(S'p1_tl'
I239
tp688
a(S'w'
I21
tp689
a(S'p2_tl'
I82
tp690
a(S'w'
I713
tp691
a(S'p1_tl'
I241
tp692
a(S'w'
I21
tp693
a(S'p2_tl'
I84
tp694
a(S'w'
I713
tp695
a(S'p1_tl'
I243
tp696
a(S'w'
I6
tp697
a(S'p1_vo'
I6
tp698
a(S'w'
I13
tp699
a(S'p2_tl'
I86
tp700
a(S'w'
I6
tp701
a(S'p2_vo'
I6
tp702
a(S'w'
I709
tp703
a(S'p1_tl'
I245
tp704
a(S'w'
I6
tp705
a(S'p1_vo'
I5
tp706
a(S'w'
I13
tp707
a(S'p2_tl'
I88
tp708
a(S'w'
I6
tp709
a(S'p2_vo'
I5
tp710
a(S'w'
I709
tp711
a(S'p1_tl'
I243
tp712
a(S'w'
I6
tp713
a(S'p1_vo'
I4
tp714
a(S'w'
I12
tp715
a(S'p2_tl'
I86
tp716
a(S'w'
I7
tp717
a(S'p2_vo'
I4
tp718
a(S'w'
I708
tp719
a(S'p1_tl'
I241
tp720
a(S'w'
I7
tp721
a(S'p1_vo'
I3
tp722
a(S'w'
I12
tp723
a(S'p2_tl'
I84
tp724
a(S'w'
I7
tp725
a(S'p2_vo'
I3
tp726
a(S'w'
I709
tp727
a(S'p1_tl'
I239
tp728
a(S'w'
I7
tp729
a(S'p1_vo'
I2
tp730
a(S'w'
I13
tp731
a(S'p2_tl'
I82
tp732
a(S'w'
I6
tp733
a(S'p2_vo'
I2
tp734
a(S'w'
I706
tp735
a(S'p1_tl'
I237
tp736
a(S'w'
I7
tp737
a(S'p1_vo'
I1
tp738
a(S'w'
I12
tp739
a(S'p2_tl'
I80
tp740
a(S'w'
I6
tp741
a(S'p2_vo'
I1
tp742
a(S'w'
I709
tp743
a(S'p1_tl'
I235
tp744
a(S'w'
I18
tp745
a(S'p2_tl'
I78
tp746
a(S'w'
I716
tp747
a(S'p1_tl'
I233
tp748
a(S'w'
I18
tp749
a(S'p2_tl'
I76
tp750
a(S'w'
I716
tp751
a(S'p1_tl'
I235
tp752
a(S'w'
I18
tp753
a(S'p2_tl'
I78
tp754
a(S'w'
I716
tp755
a(S'p1_tl'
I237
tp756
a(S'w'
I18
tp757
a(S'p2_tl'
I80
tp758
a(S'w'
I716
tp759
a(S'p1_tl'
I239
tp760
a(S'w'
I18
tp761
a(S'p2_tl'
I82
tp762
a(S'w'
I716
tp763
a(S'p1_tl'
I241
tp764
a(S'w'
I18
tp765
a(S'p2_tl'
I84
tp766
a(S'w'
I716
tp767
a(S'p1_tl'
I243
tp768
a(S'w'
I18
tp769
a(S'p2_tl'
I86
tp770
a(S'w'
I715
tp771
a(S'p1_tl'
I245
tp772
a(S'w'
I19
tp773
a(S'p2_tl'
I88
tp774
a(S'w'
I715
tp775
a(S'p1_tl'
I243
tp776
a(S'w'
I19
tp777
a(S'p2_tl'
I86
tp778
a(S'w'
I715
tp779
a(S'p1_tl'
I241
tp780
a(S'w'
I19
tp781
a(S'p2_tl'
I84
tp782
a(S'w'
I739
tp783
a(S'p1_tl'
I253
tp784
a(S'w'
I32
tp785
a(S'p2_tl'
I171
tp786
a(S'w'
I18
tp787
a(S'tr_ll'
I1
tp788
a(S'w'
I3
tp789
a(S'tr_tl'
I103
tp790
a(S'w'
I11
tp791
a(S'ch_no'
I1
tp792
a(S'ch_tr'
I1
tp793
a(S'ch_p2'
I1
tp794
a(S'ch_p1'
I1
tp795
a(S'w'
I2
tp796
a(S'ch_no'
I1
tp797
a(S'ch_tr'
I1
tp798
a(S'ch_p2'
I1
tp799
a(S'ch_p1'
I1
tp800
a(S'w'
I1376
tp801
a(S'p1_vo'
I2
tp802
a(S'w'
I11
tp803
a(S'p2_vo'
I2
tp804
a(S'w'
I1456
tp805
a(S'p1_vo'
I3
tp806
a(S'w'
I11
tp807
a(S'p2_vo'
I3
tp808
a(S'w'
I1457
tp809
a(S'p1_vo'
I4
tp810
a(S'w'
I11
tp811
a(S'p2_vo'
I4
tp812
a(S'w'
I723
tp813
a(S'p1_vo'
I5
tp814
a(S'w'
I11
tp815
a(S'p2_vo'
I5
tp816
a(S'w'
I723
tp817
a(S'p1_vo'
I6
tp818
a(S'w'
I11
tp819
a(S'p2_vo'
I6
tp820
a(S'w'
I723
tp821
a(S'p1_vo'
I7
tp822
a(S'w'
I10
tp823
a(S'p2_vo'
I7
tp824
a(S'w'
I5140
tp825
a(S'w'
I732
tp826
a(S'p2_tl'
I169
tp827
a(S'w'
I734
tp828
a(S'p2_tl'
I167
tp829
a(S'w'
I734
tp830
a(S'p2_tl'
I165
tp831
a(S'w'
I734
tp832
a(S'p2_tl'
I167
tp833
a(S'w'
I734
tp834
a(S'p2_tl'
I169
tp835
a(S'w'
I733
tp836
a(S'p2_tl'
I171
tp837
a(S'w'
I735
tp838
a(S'p2_tl'
I173
tp839
a(S'w'
I734
tp840
a(S'p2_tl'
I175
tp841
a(S'w'
I733
tp842
a(S'p2_tl'
I177
tp843
a(S'w'
I734
tp844
a(S'p2_tl'
I175
tp845
a(S'w'
I734
tp846
a(S'p2_tl'
I173
tp847
a(S'w'
I734
tp848
a(S'p2_tl'
I171
tp849
a(S'w'
I733
tp850
a(S'p2_tl'
I169
tp851
a(S'w'
I734
tp852
a(S'p2_tl'
I167
tp853
a(S'w'
I734
tp854
a(S'p2_tl'
I165
tp855
a(S'w'
I733
tp856
a(S'p2_tl'
I167
tp857
a(S'w'
I734
tp858
a(S'p2_tl'
I169
tp859
a(S'w'
I734
tp860
a(S'p2_tl'
I171
tp861
a(S'w'
I734
tp862
a(S'p2_tl'
I173
tp863
a(S'w'
I734
tp864
a(S'p2_tl'
I175
tp865
a(S'w'
I734
tp866
a(S'p2_tl'
I177
tp867
a(S'w'
I734
tp868
a(S'p2_tl'
I175
tp869
a(S'w'
I734
tp870
a(S'p2_tl'
I173
tp871
a(S'w'
I734
tp872
a(S'p2_tl'
I171
tp873
a(S'w'
I733
tp874
a(S'p2_tl'
I169
tp875
a(S'w'
I733
tp876
a(S'p2_tl'
I167
tp877
a(S'w'
I734
tp878
a(S'p2_tl'
I165
tp879
a(S'w'
I734
tp880
a(S'p2_tl'
I167
tp881
a(S'w'
I734
tp882
a(S'p2_tl'
I169
tp883
a(S'w'
I734
tp884
a(S'p2_tl'
I171
tp885
a(S'w'
I734
tp886
a(S'p2_tl'
I173
tp887
a(S'w'
I719
tp888
a(S'p1_vo'
I6
tp889
a(S'w'
I12
tp890
a(S'p2_tl'
I175
tp891
a(S'w'
I7
tp892
a(S'p2_vo'
I6
tp893
a(S'w'
I715
tp894
a(S'p1_vo'
I5
tp895
a(S'w'
I12
tp896
a(S'p2_tl'
I177
tp897
a(S'w'
I7
tp898
a(S'p2_vo'
I5
tp899
a(S'w'
I715
tp900
a(S'p1_vo'
I4
tp901
a(S'w'
I12
tp902
a(S'p2_tl'
I175
tp903
a(S'w'
I6
tp904
a(S'p2_vo'
I4
tp905
a(S'w'
I715
tp906
a(S'p1_vo'
I3
tp907
a(S'w'
I13
tp908
a(S'p2_tl'
I173
tp909
a(S'w'
I6
tp910
a(S'p2_vo'
I3
tp911
a(S'w'
I715
tp912
a(S'p1_vo'
I2
tp913
a(S'w'
I13
tp914
a(S'p2_tl'
I171
tp915
a(S'w'
I7
tp916
a(S'p2_vo'
I2
tp917
a(S'w'
I714
tp918
a(S'p1_vo'
I1
tp919
a(S'w'
I12
tp920
a(S'p2_tl'
I169
tp921
a(S'w'
I6
tp922
a(S'p2_vo'
I1
tp923
a(S'w'
I728
tp924
a(S'p2_tl'
I167
tp925
a(S'w'
I733
tp926
a(S'p2_tl'
I165
tp927
a(S'w'
I734
tp928
a(S'p2_tl'
I167
tp929
a(S'w'
I734
tp930
a(S'p2_tl'
I169
tp931
a(S'w'
I734
tp932
a(S'p2_tl'
I171
tp933
a(S'w'
I734
tp934
a(S'p2_tl'
I173
tp935
a(S'w'
I734
tp936
a(S'p2_tl'
I175
tp937
a(S'w'
I734
tp938
a(S'p2_tl'
I177
tp939
a(S'w'
I733
tp940
a(S'p2_tl'
I175
tp941
a(S'w'
I734
tp942
a(S'p2_tl'
I173
tp943
a(S'w'
I751
tp944
a(S'p1_ll'
I1
tp945
a(S'p1_th'
I1
tp946
a(S'w'
I3
tp947
a(S'p1_tl'
I28
tp948
a(S'w'
I34
tp949
a(S'p2_tl'
I196
tp950
a(S'w'
I18
tp951
a(S'tr_ll'
I1
tp952
a(S'w'
I2
tp953
a(S'tr_tl'
I82
tp954
a(S'w'
I667
tp955
a(S'no_vo'
I9
tp956
a(S'w'
I6
tp957
a(S'no_ll'
I1
tp958
a(S'w'
I2
tp959
a(S'no_np'
I2
tp960
a(S'w'
I708
tp961
a(S'p1_vo'
I2
tp962
a(S'w'
I11
tp963
a(S'p2_vo'
I2
tp964
a(S'w'
I11
tp965
a(S'no_vo'
I8
tp966
a(S'w'
I5
tp967
a(S'no_np'
I1
tp968
a(S'w'
I724
tp969
a(S'no_vo'
I7
tp970
a(S'w'
I5
tp971
a(S'w'
I712
tp972
a(S'p1_vo'
I3
tp973
a(S'w'
I11
tp974
a(S'p2_vo'
I3
tp975
a(S'w'
I12
tp976
a(S'no_vo'
I6
tp977
a(S'w'
I6
tp978
a(S'w'
I1439
tp979
a(S'p1_vo'
I4
tp980
a(S'w'
I11
tp981
a(S'p2_vo'
I4
tp982
a(S'w'
I16
tp983
a(S'w'
I706
tp984
a(S'p1_vo'
I5
tp985
a(S'w'
I11
tp986
a(S'p2_vo'
I5
tp987
a(S'w'
I723
tp988
a(S'p1_vo'
I6
tp989
a(S'w'
I11
tp990
a(S'p2_vo'
I6
tp991
a(S'w'
I11
tp992
a(S'no_vo'
I5
tp993
a(S'w'
I5
tp994
a(S'w'
I707
tp995
a(S'p1_vo'
I7
tp996
a(S'w'
I11
tp997
a(S'p2_vo'
I7
tp998
a(S'w'
I751
tp999
a(S'w'
I1462
tp1000
a(S'no_vo'
I4
tp1001
a(S'w'
I6
tp1002
a(S'w'
I1467
tp1003
a(S'w'
I1453
tp1004
a(S'w'
I19
tp1005
a(S'no_vo'
I3
tp1006
a(S'w'
I6
tp1007
a(S'w'
I708
tp1008
a(S'p2_tl'
I194
tp1009
a(S'w'
I734
tp1010
a(S'p2_tl'
I192
tp1011
a(S'w'
I24
tp1012
a(S'w'
I709
tp1013
a(S'p2_tl'
I190
tp1014
a(S'w'
I734
tp1015
a(S'p2_tl'
I192
tp1016
a(S'w'
I19
tp1017
a(S'no_vo'
I2
tp1018
a(S'w'
I6
tp1019
a(S'w'
I709
tp1020
a(S'p2_tl'
I194
tp1021
a(S'w'
I734
tp1022
a(S'p2_tl'
I196
tp1023
a(S'w'
I25
tp1024
a(S'w'
I709
tp1025
a(S'p2_tl'
I198
tp1026
a(S'w'
I734
tp1027
a(S'p2_tl'
I200
tp1028
a(S'w'
I21
tp1029
a(S'no_vo'
I1
tp1030
a(S'w'
I5
tp1031
a(S'w'
I708
tp1032
a(S'p2_tl'
I202
tp1033
a(S'w'
I734
tp1034
a(S'p2_tl'
I200
tp1035
a(S'w'
I733
tp1036
a(S'p2_tl'
I198
tp1037
a(S'w'
I735
tp1038
a(S'p2_tl'
I196
tp1039
a(S'w'
I733
tp1040
a(S'p2_tl'
I194
tp1041
a(S'w'
I733
tp1042
a(S'p2_tl'
I192
tp1043
a(S'w'
I20
tp1044
a(S'no_vo'
I0
tp1045
a(S'w'
I714
tp1046
a(S'p2_tl'
I190
tp1047
a(S'w'
I723
tp1048
a(S'w'
I21
tp1049
a(S'p2_tl'
I192
tp1050
a(S'w'
I712
tp1051
a(S'p1_tl'
I26
tp1052
a(S'w'
I21
tp1053
a(S'p2_tl'
I194
tp1054
a(S'w'
I713
tp1055
a(S'p1_tl'
I24
tp1056
a(S'w'
I20
tp1057
a(S'p2_tl'
I196
tp1058
a(S'w'
I714
tp1059
a(S'p1_tl'
I22
tp1060
a(S'w'
I21
tp1061
a(S'p2_tl'
I198
tp1062
a(S'w'
I712
tp1063
a(S'p1_tl'
I24
tp1064
a(S'w'
I7
tp1065
a(S'p1_vo'
I6
tp1066
a(S'w'
I12
tp1067
a(S'p2_tl'
I200
tp1068
a(S'w'
I6
tp1069
a(S'p2_vo'
I6
tp1070
a(S'w'
I709
tp1071
a(S'p1_tl'
I26
tp1072
a(S'w'
I7
tp1073
a(S'p1_vo'
I5
tp1074
a(S'w'
I12
tp1075
a(S'p2_tl'
I202
tp1076
a(S'w'
I6
tp1077
a(S'p2_vo'
I5
tp1078
a(S'w'
I709
tp1079
a(S'p1_tl'
I28
tp1080
a(S'w'
I7
tp1081
a(S'p1_vo'
I4
tp1082
a(S'w'
I12
tp1083
a(S'p2_tl'
I200
tp1084
a(S'w'
I6
tp1085
a(S'p2_vo'
I4
tp1086
a(S'w'
I709
tp1087
a(S'p1_tl'
I30
tp1088
a(S'w'
I7
tp1089
a(S'p1_vo'
I3
tp1090
a(S'w'
I12
tp1091
a(S'p2_tl'
I198
tp1092
a(S'w'
I7
tp1093
a(S'p2_vo'
I3
tp1094
a(S'w'
I708
tp1095
a(S'p1_tl'
I32
tp1096
a(S'w'
I7
tp1097
a(S'p1_vo'
I2
tp1098
a(S'w'
I13
tp1099
a(S'p2_tl'
I196
tp1100
a(S'w'
I6
tp1101
a(S'p2_vo'
I2
tp1102
a(S'w'
I708
tp1103
a(S'p1_tl'
I34
tp1104
a(S'w'
I7
tp1105
a(S'p1_vo'
I1
tp1106
a(S'w'
I11
tp1107
a(S'p2_tl'
I194
tp1108
a(S'w'
I7
tp1109
a(S'p2_vo'
I1
tp1110
a(S'w'
I709
tp1111
a(S'p1_tl'
I32
tp1112
a(S'w'
I18
tp1113
a(S'p2_tl'
I192
tp1114
a(S'w'
I716
tp1115
a(S'p1_tl'
I30
tp1116
a(S'w'
I18
tp1117
a(S'p2_tl'
I190
tp1118
a(S'w'
I716
tp1119
a(S'p1_tl'
I28
tp1120
a(S'w'
I18
tp1121
a(S'p2_tl'
I192
tp1122
a(S'w'
I715
tp1123
a(S'p1_tl'
I26
tp1124
a(S'w'
I18
tp1125
a(S'p2_tl'
I194
tp1126
a(S'w'
I715
tp1127
a(S'p1_tl'
I24
tp1128
a(S'w'
I19
tp1129
a(S'p2_tl'
I196
tp1130
a(S'w'
I715
tp1131
a(S'p1_tl'
I22
tp1132
a(S'w'
I19
tp1133
a(S'p2_tl'
I198
tp1134
a(S'w'
I740
tp1135
a(S'p1_du'
I1
tp1136
a(S'p1_vo'
I6
tp1137
a(S'w'
I10
tp1138
a(S'p1_tl'
I63
tp1139
a(S'w'
I30
tp1140
a(S'p2_du'
I3
tp1141
a(S'w'
I10
tp1142
a(S'p2_ll'
I1
tp1143
a(S'p2_th'
I2
tp1144
a(S'w'
I2
tp1145
a(S'p2_tl'
I125
tp1146
a(S'w'
I19
tp1147
a(S'tr_ll'
I1
tp1148
a(S'tr_th'
I2
tp1149
a(S'w'
I3
tp1150
a(S'tr_tl'
I128
tp1151
a(S'w'
I634
tp1152
a(S'p1_du'
I2
tp1153
a(S'p1_vo'
I7
tp1154
a(S'w'
I734
tp1155
a(S'p1_vo'
I8
tp1156
a(S'w'
I11
tp1157
a(S'p2_vo'
I2
tp1158
a(S'w'
I723
tp1159
a(S'p1_vo'
I9
tp1160
a(S'w'
I733
tp1161
a(S'p1_vo'
I8
tp1162
a(S'w'
I11
tp1163
a(S'p2_vo'
I3
tp1164
a(S'w'
I723
tp1165
a(S'p1_vo'
I7
tp1166
a(S'w'
I730
tp1167
a(S'p1_vo'
I2
tp1168
a(S'w'
I10
tp1169
a(S'p2_vo'
I2
tp1170
a(S'w'
I734
tp1171
a(S'p2_vo'
I1
tp1172
a(S'w'
I735
tp1173
a(S'p1_du'
I1
tp1174
a(S'p1_vo'
I6
tp1175
a(S'w'
I11
tp1176
a(S'p1_tl'
I28
tp1177
a(S'w'
I28
tp1178
a(S'p2_tl'
I55
tp1179
a(S'w'
I16
tp1180
a(S'tr_ll'
I1
tp1181
a(S'w'
I3
tp1182
a(S'tr_tl'
I58
tp1183
a(S'w'
I669
tp1184
a(S'p1_du'
I2
tp1185
a(S'p1_vo'
I7
tp1186
a(S'w'
I733
tp1187
a(S'p1_vo'
I8
tp1188
a(S'w'
I11
tp1189
a(S'p2_vo'
I2
tp1190
a(S'w'
I723
tp1191
a(S'p1_vo'
I9
tp1192
a(S'w'
I734
tp1193
a(S'p1_vo'
I8
tp1194
a(S'w'
I11
tp1195
a(S'p2_vo'
I3
tp1196
a(S'w'
I723
tp1197
a(S'p1_vo'
I7
tp1198
a(S'w'
I730
tp1199
a(S'p1_vo'
I2
tp1200
a(S'w'
I9
tp1201
a(S'p2_vo'
I2
tp1202
a(S'w'
I734
tp1203
a(S'p2_vo'
I1
tp1204
a(S'w'
I745
tp1205
a(S'p1_du'
I1
tp1206
a(S'p1_vo'
I6
tp1207
a(S'w'
I10
tp1208
a(S'p1_tl'
I45
tp1209
a(S'w'
I39
tp1210
a(S'p2_tl'
I89
tp1211
a(S'w'
I20
tp1212
a(S'tr_ll'
I1
tp1213
a(S'w'
I3
tp1214
a(S'tr_tl'
I92
tp1215
a(S'w'
I645
tp1216
a(S'p1_du'
I2
tp1217
a(S'p1_vo'
I7
tp1218
a(S'w'
I734
tp1219
a(S'p1_vo'
I8
tp1220
a(S'w'
I11
tp1221
a(S'p2_vo'
I2
tp1222
a(S'w'
I723
tp1223
a(S'p1_vo'
I9
tp1224
a(S'w'
I733
tp1225
a(S'p1_vo'
I8
tp1226
a(S'w'
I11
tp1227
a(S'p2_vo'
I3
tp1228
a(S'w'
I723
tp1229
a(S'p1_vo'
I7
tp1230
a(S'w'
I746
tp1231
a(S'p2_vo'
I4
tp1232
a(S'w'
I733
tp1233
a(S'p2_vo'
I5
tp1234
a(S'w'
I734
tp1235
a(S'p2_vo'
I6
tp1236
a(S'w'
I734
tp1237
a(S'p2_vo'
I7
tp1238
a(S'w'
I5127
tp1239
a(S'w'
I23
tp1240
a(S'w'
I710
tp1241
a(S'p1_tl'
I41
tp1242
a(S'w'
I21
tp1243
a(S'p2_tl'
I87
tp1244
a(S'w'
I713
tp1245
a(S'p1_tl'
I37
tp1246
a(S'w'
I21
tp1247
a(S'p2_tl'
I85
tp1248
a(S'w'
I713
tp1249
a(S'p1_tl'
I33
tp1250
a(S'w'
I21
tp1251
a(S'p2_tl'
I83
tp1252
a(S'w'
I713
tp1253
a(S'p1_tl'
I37
tp1254
a(S'w'
I21
tp1255
a(S'p2_tl'
I85
tp1256
a(S'w'
I712
tp1257
a(S'p1_tl'
I41
tp1258
a(S'w'
I21
tp1259
a(S'p2_tl'
I87
tp1260
a(S'w'
I713
tp1261
a(S'p1_tl'
I45
tp1262
a(S'w'
I21
tp1263
a(S'p2_tl'
I89
tp1264
a(S'w'
I714
tp1265
a(S'p1_tl'
I49
tp1266
a(S'w'
I21
tp1267
a(S'p2_tl'
I91
tp1268
a(S'w'
I712
tp1269
a(S'p1_tl'
I53
tp1270
a(S'w'
I22
tp1271
a(S'p2_tl'
I93
tp1272
a(S'w'
I712
tp1273
a(S'p1_tl'
I57
tp1274
a(S'w'
I22
tp1275
a(S'p2_tl'
I95
tp1276
a(S'w'
I712
tp1277
a(S'p1_tl'
I53
tp1278
a(S'w'
I21
tp1279
a(S'p2_tl'
I93
tp1280
a(S'w'
I713
tp1281
a(S'p1_tl'
I49
tp1282
a(S'w'
I21
tp1283
a(S'p2_tl'
I91
tp1284
a(S'w'
I713
tp1285
a(S'p1_tl'
I45
tp1286
a(S'w'
I23
tp1287
a(S'p2_tl'
I89
tp1288
a(S'w'
I710
tp1289
a(S'p1_tl'
I41
tp1290
a(S'w'
I21
tp1291
a(S'p2_tl'
I87
tp1292
a(S'w'
I713
tp1293
a(S'p1_tl'
I37
tp1294
a(S'w'
I21
tp1295
a(S'p2_tl'
I85
tp1296
a(S'w'
I712
tp1297
a(S'p1_tl'
I33
tp1298
a(S'w'
I21
tp1299
a(S'p2_tl'
I83
tp1300
a(S'w'
I713
tp1301
a(S'p1_tl'
I37
tp1302
a(S'w'
I21
tp1303
a(S'p2_tl'
I85
tp1304
a(S'w'
I713
tp1305
a(S'p1_tl'
I41
tp1306
a(S'w'
I21
tp1307
a(S'p2_tl'
I87
tp1308
a(S'w'
I713
tp1309
a(S'p1_tl'
I45
tp1310
a(S'w'
I21
tp1311
a(S'p2_tl'
I89
tp1312
a(S'w'
I713
tp1313
a(S'p1_tl'
I49
tp1314
a(S'w'
I22
tp1315
a(S'p2_tl'
I91
tp1316
a(S'w'
I712
tp1317
a(S'p1_tl'
I53
tp1318
a(S'w'
I21
tp1319
a(S'p2_tl'
I93
tp1320
a(S'w'
I713
tp1321
a(S'p1_tl'
I57
tp1322
a(S'w'
I21
tp1323
a(S'p2_tl'
I95
tp1324
a(S'w'
I713
tp1325
a(S'p1_tl'
I53
tp1326
a(S'w'
I21
tp1327
a(S'p2_tl'
I93
tp1328
a(S'w'
I712
tp1329
a(S'p1_tl'
I49
tp1330
a(S'w'
I22
tp1331
a(S'p2_tl'
I91
tp1332
a(S'w'
I713
tp1333
a(S'p1_tl'
I45
tp1334
a(S'w'
I22
tp1335
a(S'p2_tl'
I89
tp1336
a(S'w'
I710
tp1337
a(S'p1_tl'
I41
tp1338
a(S'w'
I21
tp1339
a(S'p2_tl'
I87
tp1340
a(S'w'
I713
tp1341
a(S'p1_tl'
I37
tp1342
a(S'w'
I21
tp1343
a(S'p2_tl'
I85
tp1344
a(S'w'
I713
tp1345
a(S'p1_tl'
I33
tp1346
a(S'w'
I21
tp1347
a(S'p2_tl'
I83
tp1348
a(S'w'
I713
tp1349
a(S'p1_tl'
I37
tp1350
a(S'w'
I21
tp1351
a(S'p2_tl'
I85
tp1352
a(S'w'
I713
tp1353
a(S'p1_tl'
I41
tp1354
a(S'w'
I21
tp1355
a(S'p2_tl'
I87
tp1356
a(S'w'
I712
tp1357
a(S'p1_tl'
I45
tp1358
a(S'w'
I22
tp1359
a(S'p2_tl'
I89
tp1360
a(S'w'
I713
tp1361
a(S'p1_tl'
I49
tp1362
a(S'w'
I21
tp1363
a(S'p2_tl'
I91
tp1364
a(S'w'
I713
tp1365
a(S'p1_tl'
I53
tp1366
a(S'w'
I21
tp1367
a(S'p2_tl'
I93
tp1368
a(S'w'
I712
tp1369
a(S'p1_tl'
I57
tp1370
a(S'w'
I22
tp1371
a(S'p2_tl'
I95
tp1372
a(S'w'
I712
tp1373
a(S'p1_tl'
I53
tp1374
a(S'w'
I22
tp1375
a(S'p2_tl'
I93
tp1376
a(S'w'
I712
tp1377
a(S'p1_tl'
I49
tp1378
a(S'w'
I21
tp1379
a(S'p2_tl'
I91
tp1380
a(S'w'
I714
tp1381
a(S'p1_tl'
I45
tp1382
a(S'w'
I22
tp1383
a(S'p2_tl'
I89
tp1384
a(S'w'
I710
tp1385
a(S'p1_tl'
I41
tp1386
a(S'w'
I21
tp1387
a(S'p2_tl'
I87
tp1388
a(S'w'
I713
tp1389
a(S'p1_tl'
I37
tp1390
a(S'w'
I21
tp1391
a(S'p2_tl'
I85
tp1392
a(S'w'
I713
tp1393
a(S'p1_tl'
I33
tp1394
a(S'w'
I21
tp1395
a(S'p2_tl'
I83
tp1396
a(S'w'
I712
tp1397
a(S'p1_tl'
I37
tp1398
a(S'w'
I22
tp1399
a(S'p2_tl'
I85
tp1400
a(S'w'
I712
tp1401
a(S'p1_tl'
I41
tp1402
a(S'w'
I21
tp1403
a(S'p2_tl'
I87
tp1404
a(S'w'
I713
tp1405
a(S'p1_tl'
I45
tp1406
a(S'w'
I21
tp1407
a(S'p2_tl'
I89
tp1408
a(S'w'
I713
tp1409
a(S'p1_tl'
I49
tp1410
a(S'w'
I22
tp1411
a(S'p2_tl'
I91
tp1412
a(S'w'
I712
tp1413
a(S'p1_tl'
I53
tp1414
a(S'w'
I22
tp1415
a(S'p2_tl'
I93
tp1416
a(S'w'
I712
tp1417
a(S'p1_tl'
I57
tp1418
a(S'w'
I21
tp1419
a(S'p2_tl'
I95
tp1420
a(S'w'
I713
tp1421
a(S'p1_tl'
I53
tp1422
a(S'w'
I21
tp1423
a(S'p2_tl'
I93
tp1424
a(S'w'
I713
tp1425
a(S'p1_tl'
I49
tp1426
a(S'w'
I21
tp1427
a(S'p2_tl'
I91
tp1428
a(S'w'
I713
tp1429
a(S'p1_tl'
I45
tp1430
a(S'w'
I23
tp1431
a(S'p2_tl'
I89
tp1432
a(S'w'
I710
tp1433
a(S'p1_tl'
I41
tp1434
a(S'w'
I21
tp1435
a(S'p2_tl'
I87
tp1436
a(S'w'
I712
tp1437
a(S'p1_tl'
I37
tp1438
a(S'w'
I22
tp1439
a(S'p2_tl'
I85
tp1440
a(S'w'
I712
tp1441
a(S'p1_tl'
I33
tp1442
a(S'w'
I21
tp1443
a(S'p2_tl'
I83
tp1444
a(S'w'
I713
tp1445
a(S'p1_tl'
I37
tp1446
a(S'w'
I21
tp1447
a(S'p2_tl'
I85
tp1448
a(S'w'
I713
tp1449
a(S'p1_tl'
I41
tp1450
a(S'w'
I21
tp1451
a(S'p2_tl'
I87
tp1452
a(S'w'
I713
tp1453
a(S'p1_tl'
I45
tp1454
a(S'w'
I21
tp1455
a(S'p2_tl'
I89
tp1456
a(S'w'
I713
tp1457
a(S'p1_tl'
I49
tp1458
a(S'w'
I22
tp1459
a(S'p2_tl'
I91
tp1460
a(S'w'
I712
tp1461
a(S'p1_tl'
I53
tp1462
a(S'w'
I21
tp1463
a(S'p2_tl'
I93
tp1464
a(S'w'
I713
tp1465
a(S'p1_tl'
I57
tp1466
a(S'w'
I21
tp1467
a(S'p2_tl'
I95
tp1468
a(S'w'
I712
tp1469
a(S'p1_tl'
I53
tp1470
a(S'w'
I22
tp1471
a(S'p2_tl'
I93
tp1472
a(S'w'
I712
tp1473
a(S'p1_tl'
I49
tp1474
a(S'w'
I22
tp1475
a(S'p2_tl'
I91
tp1476
a(S'w'
I713
tp1477
a(S'p1_tl'
I45
tp1478
a(S'w'
I22
tp1479
a(S'p2_tl'
I89
tp1480
a(S'w'
I710
tp1481
a(S'p1_tl'
I41
tp1482
a(S'w'
I21
tp1483
a(S'p2_tl'
I87
tp1484
a(S'w'
I713
tp1485
a(S'p1_tl'
I37
tp1486
a(S'w'
I21
tp1487
a(S'p2_tl'
I85
tp1488
a(S'w'
I713
tp1489
a(S'p1_tl'
I33
tp1490
a(S'w'
I21
tp1491
a(S'p2_tl'
I83
tp1492
a(S'w'
I713
tp1493
a(S'p1_tl'
I37
tp1494
a(S'w'
I21
tp1495
a(S'p2_tl'
I85
tp1496
a(S'w'
I712
tp1497
a(S'p1_tl'
I41
tp1498
a(S'w'
I22
tp1499
a(S'p2_tl'
I87
tp1500
a(S'w'
I712
tp1501
a(S'p1_tl'
I45
tp1502
a(S'w'
I21
tp1503
a(S'p2_tl'
I89
tp1504
a(S'w'
I714
tp1505
a(S'p1_tl'
I49
tp1506
a(S'w'
I21
tp1507
a(S'p2_tl'
I91
tp1508
a(S'w'
I712
tp1509
a(S'p1_tl'
I53
tp1510
a(S'w'
I22
tp1511
a(S'p2_tl'
I93
tp1512
a(S'w'
I712
tp1513
a(S'p1_tl'
I57
tp1514
a(S'w'
I22
tp1515
a(S'p2_tl'
I95
tp1516
a(S'w'
I712
tp1517
a(S'p1_tl'
I53
tp1518
a(S'w'
I22
tp1519
a(S'p2_tl'
I93
tp1520
a(S'w'
I712
tp1521
a(S'p1_tl'
I49
tp1522
a(S'w'
I21
tp1523
a(S'p2_tl'
I91
tp1524
a(S'w'
I713
tp1525
a(S'p1_tl'
I45
tp1526
a(S'w'
I23
tp1527
a(S'p2_tl'
I89
tp1528
a(S'w'
I710
tp1529
a(S'p1_tl'
I41
tp1530
a(S'w'
I21
tp1531
a(S'p2_tl'
I87
tp1532
a(S'w'
I713
tp1533
a(S'p1_tl'
I37
tp1534
a(S'w'
I21
tp1535
a(S'p2_tl'
I85
tp1536
a(S'w'
I712
tp1537
a(S'p1_tl'
I33
tp1538
a(S'w'
I22
tp1539
a(S'p2_tl'
I83
tp1540
a(S'w'
I712
tp1541
a(S'p1_tl'
I37
tp1542
a(S'w'
I21
tp1543
a(S'p2_tl'
I85
tp1544
a(S'w'
I713
tp1545
a(S'p1_tl'
I41
tp1546
a(S'w'
I21
tp1547
a(S'p2_tl'
I87
tp1548
a(S'w'
I713
tp1549
a(S'p1_tl'
I45
tp1550
a(S'w'
I21
tp1551
a(S'p2_tl'
I89
tp1552
a(S'w'
I713
tp1553
a(S'p1_tl'
I49
tp1554
a(S'w'
I22
tp1555
a(S'p2_tl'
I91
tp1556
a(S'w'
I712
tp1557
a(S'p1_tl'
I53
tp1558
a(S'w'
I22
tp1559
a(S'p2_tl'
I93
tp1560
a(S'w'
I712
tp1561
a(S'p1_tl'
I57
tp1562
a(S'w'
I21
tp1563
a(S'p2_tl'
I95
tp1564
a(S'w'
I713
tp1565
a(S'p1_tl'
I53
tp1566
a(S'w'
I4
tp1567
a(S'p1_vo'
I2
tp1568
a(S'w'
I13
tp1569
a(S'p2_tl'
I93
tp1570
a(S'w'
I6
tp1571
a(S'p2_vo'
I6
tp1572
a(S'w'
I710
tp1573
a(S'p1_tl'
I49
tp1574
a(S'w'
I18
tp1575
a(S'p2_tl'
I91
tp1576
a(S'w'
I6
tp1577
a(S'p2_vo'
I5
tp1578
a(S'w'
I711
tp1579
a(S'p1_tl'
I45
tp1580
a(S'w'
I18
tp1581
a(S'p2_tl'
I89
tp1582
a(S'w'
I7
tp1583
a(S'p2_vo'
I4
tp1584
a(S'w'
I707
tp1585
a(S'p1_tl'
I41
tp1586
a(S'w'
I17
tp1587
a(S'p2_tl'
I87
tp1588
a(S'w'
I7
tp1589
a(S'p2_vo'
I3
tp1590
a(S'w'
I710
tp1591
a(S'p1_tl'
I37
tp1592
a(S'w'
I17
tp1593
a(S'p2_tl'
I85
tp1594
a(S'w'
I7
tp1595
a(S'p2_vo'
I2
tp1596
a(S'w'
I710
tp1597
a(S'p1_tl'
I33
tp1598
a(S'w'
I17
tp1599
a(S'p2_tl'
I83
tp1600
a(S'w'
I6
tp1601
a(S'p2_vo'
I1
tp1602
a(S'w'
I711
tp1603
a(S'p1_tl'
I37
tp1604
a(S'w'
I17
tp1605
a(S'p2_tl'
I85
tp1606
a(S'w'
I717
tp1607
a(S'p1_tl'
I41
tp1608
a(S'w'
I17
tp1609
a(S'p2_tl'
I87
tp1610
a(S'w'
I716
tp1611
a(S'p1_tl'
I45
tp1612
a(S'w'
I17
tp1613
a(S'p2_tl'
I89
tp1614
a(S'w'
I718
tp1615
a(S'p1_tl'
I49
tp1616
a(S'w'
I17
tp1617
a(S'p2_tl'
I91
tp1618
a(S'w'
I717
tp1619
a(S'p1_tl'
I53
tp1620
a(S'w'
I17
tp1621
a(S'p2_tl'
I93
tp1622
a(S'w'
I716
tp1623
a(S'p1_tl'
I57
tp1624
a(S'w'
I18
tp1625
a(S'p2_tl'
I95
tp1626
a(S'w'
I716
tp1627
a(S'p1_tl'
I53
tp1628
a(S'w'
I18
tp1629
a(S'p2_tl'
I93
tp1630
a(S'w'
I716
tp1631
a(S'p1_tl'
I49
tp1632
a(S'w'
I17
tp1633
a(S'p2_tl'
I91
tp1634
a(S'w'
I722
tp1635
a(S'p1_du'
I1
tp1636
a(S'p1_vo'
I6
tp1637
a(S'w'
I10
tp1638
a(S'p1_tl'
I63
tp1639
a(S'w'
I28
tp1640
a(S'p2_tl'
I125
tp1641
a(S'w'
I15
tp1642
a(S'tr_ll'
I1
tp1643
a(S'w'
I3
tp1644
a(S'tr_tl'
I128
tp1645
a(S'w'
I671
tp1646
a(S'p1_du'
I2
tp1647
a(S'p1_vo'
I7
tp1648
a(S'w'
I734
tp1649
a(S'p1_vo'
I8
tp1650
a(S'w'
I10
tp1651
a(S'p2_vo'
I2
tp1652
a(S'w'
I723
tp1653
a(S'p1_vo'
I9
tp1654
a(S'w'
I734
tp1655
a(S'p1_vo'
I8
tp1656
a(S'w'
I11
tp1657
a(S'p2_vo'
I3
tp1658
a(S'w'
I723
tp1659
a(S'p1_vo'
I7
tp1660
a(S'w'
I745
tp1661
a(S'p2_vo'
I4
tp1662
a(S'w'
I719
tp1663
a(S'p1_vo'
I2
tp1664
a(S'w'
I9
tp1665
a(S'p2_vo'
I3
tp1666
a(S'w'
I735
tp1667
a(S'p1_du'
I1
tp1668
a(S'p1_vo'
I6
tp1669
a(S'w'
I10
tp1670
a(S'p1_tl'
I45
tp1671
a(S'w'
I18
tp1672
a(S'p2_vo'
I1
tp1673
a(S'w'
I10
tp1674
a(S'p2_tl'
I89
tp1675
a(S'w'
I16
tp1676
a(S'tr_ll'
I1
tp1677
a(S'w'
I2
tp1678
a(S'tr_tl'
I92
tp1679
a(S'w'
I671
tp1680
a(S'p1_du'
I2
tp1681
a(S'p1_vo'
I7
tp1682
a(S'w'
I734
tp1683
a(S'p1_vo'
I8
tp1684
a(S'w'
I11
tp1685
a(S'p2_vo'
I2
tp1686
a(S'w'
I723
tp1687
a(S'p1_vo'
I9
tp1688
a(S'w'
I733
tp1689
a(S'p1_vo'
I8
tp1690
a(S'w'
I11
tp1691
a(S'p2_vo'
I3
tp1692
a(S'w'
I723
tp1693
a(S'p1_vo'
I7
tp1694
a(S'w'
I746
tp1695
a(S'p2_vo'
I4
tp1696
a(S'w'
I718
tp1697
a(S'p1_vo'
I2
tp1698
a(S'w'
I10
tp1699
a(S'p2_vo'
I3
tp1700
a(S'w'
I742
tp1701
a(S'p1_du'
I1
tp1702
a(S'p1_vo'
I6
tp1703
a(S'w'
I10
tp1704
a(S'p1_tl'
I28
tp1705
a(S'w'
I25
tp1706
a(S'p2_vo'
I1
tp1707
a(S'w'
I10
tp1708
a(S'p2_tl'
I55
tp1709
a(S'w'
I23
tp1710
a(S'tr_ll'
I1
tp1711
a(S'w'
I2
tp1712
a(S'tr_tl'
I58
tp1713
a(S'w'
I14
tp1714
a(S'ch_no'
I1
tp1715
a(S'ch_tr'
I1
tp1716
a(S'ch_p2'
I1
tp1717
a(S'ch_p1'
I1
tp1718
a(S'w'
I2
tp1719
a(S'ch_no'
I1
tp1720
a(S'ch_tr'
I1
tp1721
a(S'ch_p2'
I1
tp1722
a(S'ch_p1'
I1
tp1723
a(S'w'
I633
tp1724
a(S'p1_du'
I2
tp1725
a(S'p1_vo'
I7
tp1726
a(S'w'
I734
tp1727
a(S'p1_vo'
I8
tp1728
a(S'w'
I11
tp1729
a(S'p2_vo'
I2
tp1730
a(S'w'
I723
tp1731
a(S'p1_vo'
I9
tp1732
a(S'w'
I734
tp1733
a(S'p1_vo'
I8
tp1734
a(S'w'
I11
tp1735
a(S'p2_vo'
I3
tp1736
a(S'w'
I723
tp1737
a(S'p1_vo'
I7
tp1738
a(S'w'
I745
tp1739
a(S'p2_vo'
I4
tp1740
a(S'w'
I734
tp1741
a(S'p2_vo'
I5
tp1742
a(S'w'
I734
tp1743
a(S'p2_vo'
I6
tp1744
a(S'w'
I733
tp1745
a(S'p2_vo'
I7
tp1746
a(S'w'
I5128
tp1747
a(S'w'
I22
tp1748
a(S'w'
I711
tp1749
a(S'p1_tl'
I24
tp1750
a(S'w'
I21
tp1751
a(S'p2_tl'
I53
tp1752
a(S'w'
I713
tp1753
a(S'p1_tl'
I20
tp1754
a(S'w'
I21
tp1755
a(S'p2_tl'
I51
tp1756
a(S'w'
I712
tp1757
a(S'p1_tl'
I16
tp1758
a(S'w'
I21
tp1759
a(S'p2_tl'
I49
tp1760
a(S'w'
I713
tp1761
a(S'p1_tl'
I20
tp1762
a(S'w'
I21
tp1763
a(S'p2_tl'
I51
tp1764
a(S'w'
I713
tp1765
a(S'p1_tl'
I24
tp1766
a(S'w'
I4
tp1767
a(S'p1_vo'
I2
tp1768
a(S'w'
I13
tp1769
a(S'p2_tl'
I53
tp1770
a(S'w'
I6
tp1771
a(S'p2_vo'
I6
tp1772
a(S'w'
I711
tp1773
a(S'p1_tl'
I28
tp1774
a(S'w'
I17
tp1775
a(S'p2_tl'
I55
tp1776
a(S'w'
I6
tp1777
a(S'p2_vo'
I5
tp1778
a(S'w'
I711
tp1779
a(S'p1_tl'
I32
tp1780
a(S'w'
I18
tp1781
a(S'p2_tl'
I57
tp1782
a(S'w'
I6
tp1783
a(S'p2_vo'
I4
tp1784
a(S'w'
I720
tp1785
a(S'p1_du'
I1
tp1786
a(S'p1_vo'
I6
tp1787
a(S'w'
I10
tp1788
a(S'p1_tl'
I196
tp1789
a(S'w'
I23
tp1790
a(S'p2_vo'
I1
tp1791
a(S'w'
I9
tp1792
a(S'p2_ll'
I1
tp1793
a(S'p2_th'
I3
tp1794
a(S'w'
I3
tp1795
a(S'p2_tl'
I134
tp1796
a(S'w'
I20
tp1797
a(S'tr_ll'
I1
tp1798
a(S'tr_th'
I3
tp1799
a(S'w'
I3
tp1800
a(S'tr_tl'
I137
tp1801
a(S'w'
I10
tp1802
a(S'ch_no'
I1
tp1803
a(S'ch_tr'
I1
tp1804
a(S'ch_p2'
I1
tp1805
a(S'ch_p1'
I1
tp1806
a(S'w'
I2
tp1807
a(S'ch_no'
I1
tp1808
a(S'ch_tr'
I1
tp1809
a(S'ch_p2'
I1
tp1810
a(S'ch_p1'
I1
tp1811
a(S'w'
I642
tp1812
a(S'p1_du'
I2
tp1813
a(S'p1_vo'
I7
tp1814
a(S'w'
I734
tp1815
a(S'p1_vo'
I8
tp1816
a(S'w'
I10
tp1817
a(S'p2_vo'
I2
tp1818
a(S'w'
I723
tp1819
a(S'p1_vo'
I9
tp1820
a(S'w'
I734
tp1821
a(S'p1_vo'
I8
tp1822
a(S'w'
I11
tp1823
a(S'p2_vo'
I3
tp1824
a(S'w'
I723
tp1825
a(S'p1_vo'
I7
tp1826
a(S'w'
I745
tp1827
a(S'p2_vo'
I4
tp1828
a(S'w'
I734
tp1829
a(S'p2_vo'
I5
tp1830
a(S'w'
I734
tp1831
a(S'p2_vo'
I6
tp1832
a(S'w'
I734
tp1833
a(S'p2_vo'
I7
tp1834
a(S'w'
I5127
tp1835
a(S'w'
I22
tp1836
a(S'w'
I711
tp1837
a(S'p1_tl'
I192
tp1838
a(S'w'
I21
tp1839
a(S'p2_tl'
I132
tp1840
a(S'w'
I713
tp1841
a(S'p1_tl'
I188
tp1842
a(S'w'
I4
tp1843
a(S'p1_vo'
I2
tp1844
a(S'w'
I13
tp1845
a(S'p2_tl'
I130
tp1846
a(S'w'
I6
tp1847
a(S'p2_vo'
I6
tp1848
a(S'w'
I711
tp1849
a(S'p1_tl'
I184
tp1850
a(S'w'
I16
tp1851
a(S'p2_tl'
I128
tp1852
a(S'w'
I7
tp1853
a(S'p2_vo'
I5
tp1854
a(S'w'
I727
tp1855
a(S'p1_du'
I1
tp1856
a(S'p1_vo'
I6
tp1857
a(S'w'
I10
tp1858
a(S'p1_tl'
I223
tp1859
a(S'w'
I29
tp1860
a(S'p2_vo'
I1
tp1861
a(S'w'
I10
tp1862
a(S'p2_tl'
I188
tp1863
a(S'w'
I25
tp1864
a(S'tr_ll'
I1
tp1865
a(S'w'
I3
tp1866
a(S'tr_tl'
I191
tp1867
a(S'w'
I639
tp1868
a(S'p1_du'
I2
tp1869
a(S'p1_vo'
I7
tp1870
a(S'w'
I20
tp1871
a(S'no_vo'
I9
tp1872
a(S'w'
I5
tp1873
a(S'no_ll'
I1
tp1874
a(S'w'
I3
tp1875
a(S'no_np'
I2
tp1876
a(S'w'
I705
tp1877
a(S'p1_vo'
I8
tp1878
a(S'w'
I11
tp1879
a(S'p2_vo'
I2
tp1880
a(S'w'
I11
tp1881
a(S'no_vo'
I8
tp1882
a(S'w'
I5
tp1883
a(S'no_np'
I1
tp1884
a(S'w'
I707
tp1885
a(S'p1_vo'
I9
tp1886
a(S'w'
I19
tp1887
a(S'no_vo'
I7
tp1888
a(S'w'
I6
tp1889
a(S'w'
I709
tp1890
a(S'p1_vo'
I8
tp1891
a(S'w'
I11
tp1892
a(S'p2_vo'
I3
tp1893
a(S'w'
I12
tp1894
a(S'no_vo'
I6
tp1895
a(S'w'
I6
tp1896
a(S'w'
I705
tp1897
a(S'p1_vo'
I7
tp1898
a(S'w'
I745
tp1899
a(S'p2_vo'
I4
tp1900
a(S'w'
I16
tp1901
a(S'w'
I718
tp1902
a(S'p2_vo'
I5
tp1903
a(S'w'
I734
tp1904
a(S'p2_vo'
I6
tp1905
a(S'w'
I10
tp1906
a(S'no_vo'
I5
tp1907
a(S'w'
I6
tp1908
a(S'w'
I718
tp1909
a(S'p2_vo'
I7
tp1910
a(S'w'
I750
tp1911
a(S'w'
I1462
tp1912
a(S'no_vo'
I4
tp1913
a(S'w'
I6
tp1914
a(S'w'
I1467
tp1915
a(S'w'
I1442
tp1916
a(S'w'
I22
tp1917
a(S'w'
I20
tp1918
a(S'no_vo'
I3
tp1919
a(S'w'
I5
tp1920
a(S'w'
I686
tp1921
a(S'p1_tl'
I219
tp1922
a(S'w'
I21
tp1923
a(S'p2_tl'
I186
tp1924
a(S'w'
I713
tp1925
a(S'p1_tl'
I215
tp1926
a(S'w'
I21
tp1927
a(S'p2_tl'
I184
tp1928
a(S'w'
I25
tp1929
a(S'w'
I688
tp1930
a(S'p1_tl'
I211
tp1931
a(S'w'
I21
tp1932
a(S'p2_tl'
I182
tp1933
a(S'w'
I712
tp1934
a(S'p1_tl'
I215
tp1935
a(S'w'
I22
tp1936
a(S'p2_tl'
I184
tp1937
a(S'w'
I19
tp1938
a(S'no_vo'
I2
tp1939
a(S'w'
I5
tp1940
a(S'w'
I688
tp1941
a(S'p1_tl'
I219
tp1942
a(S'w'
I21
tp1943
a(S'p2_tl'
I186
tp1944
a(S'w'
I713
tp1945
a(S'p1_tl'
I223
tp1946
a(S'w'
I21
tp1947
a(S'p2_tl'
I188
tp1948
a(S'w'
I25
tp1949
a(S'w'
I688
tp1950
a(S'p1_tl'
I227
tp1951
a(S'w'
I22
tp1952
a(S'p2_tl'
I190
tp1953
a(S'w'
I712
tp1954
a(S'p1_tl'
I231
tp1955
a(S'w'
I22
tp1956
a(S'p2_tl'
I192
tp1957
a(S'w'
I21
tp1958
a(S'no_vo'
I1
tp1959
a(S'w'
I5
tp1960
a(S'w'
I686
tp1961
a(S'p1_tl'
I235
tp1962
a(S'w'
I22
tp1963
a(S'p2_tl'
I194
tp1964
a(S'w'
I712
tp1965
a(S'p1_tl'
I231
tp1966
a(S'w'
I21
tp1967
a(S'p2_tl'
I192
tp1968
a(S'w'
I712
tp1969
a(S'p1_tl'
I227
tp1970
a(S'w'
I22
tp1971
a(S'p2_tl'
I190
tp1972
a(S'w'
I713
tp1973
a(S'p1_tl'
I223
tp1974
a(S'w'
I23
tp1975
a(S'p2_tl'
I188
tp1976
a(S'w'
I710
tp1977
a(S'p1_tl'
I219
tp1978
a(S'w'
I21
tp1979
a(S'p2_tl'
I186
tp1980
a(S'w'
I712
tp1981
a(S'p1_tl'
I215
tp1982
a(S'w'
I22
tp1983
a(S'p2_tl'
I184
tp1984
a(S'w'
I19
tp1985
a(S'no_vo'
I0
tp1986
a(S'w'
I693
tp1987
a(S'p1_tl'
I211
tp1988
a(S'w'
I21
tp1989
a(S'p2_tl'
I182
tp1990
a(S'w'
I713
tp1991
a(S'p1_tl'
I215
tp1992
a(S'w'
I21
tp1993
a(S'p2_tl'
I184
tp1994
a(S'w'
I713
tp1995
a(S'p1_tl'
I219
tp1996
a(S'w'
I21
tp1997
a(S'p2_tl'
I186
tp1998
a(S'w'
I713
tp1999
a(S'p1_tl'
I223
tp2000
a(S'w'
I21
tp2001
a(S'p2_tl'
I188
tp2002
a(S'w'
I713
tp2003
a(S'p1_tl'
I227
tp2004
a(S'w'
I21
tp2005
a(S'p2_tl'
I190
tp2006
a(S'w'
I713
tp2007
a(S'p1_tl'
I231
tp2008
a(S'w'
I21
tp2009
a(S'p2_tl'
I192
tp2010
a(S'w'
I712
tp2011
a(S'p1_tl'
I235
tp2012
a(S'w'
I22
tp2013
a(S'p2_tl'
I194
tp2014
a(S'w'
I712
tp2015
a(S'p1_tl'
I231
tp2016
a(S'w'
I22
tp2017
a(S'p2_tl'
I192
tp2018
a(S'w'
I712
tp2019
a(S'p1_tl'
I227
tp2020
a(S'w'
I22
tp2021
a(S'p2_tl'
I190
tp2022
a(S'w'
I713
tp2023
a(S'p1_tl'
I223
tp2024
a(S'w'
I22
tp2025
a(S'p2_tl'
I188
tp2026
a(S'w'
I710
tp2027
a(S'p1_tl'
I219
tp2028
a(S'w'
I21
tp2029
a(S'p2_tl'
I186
tp2030
a(S'w'
I713
tp2031
a(S'p1_tl'
I215
tp2032
a(S'w'
I21
tp2033
a(S'p2_tl'
I184
tp2034
a(S'w'
I713
tp2035
a(S'p1_tl'
I211
tp2036
a(S'w'
I21
tp2037
a(S'p2_tl'
I182
tp2038
a(S'w'
I713
tp2039
a(S'p1_tl'
I215
tp2040
a(S'w'
I21
tp2041
a(S'p2_tl'
I184
tp2042
a(S'w'
I712
tp2043
a(S'p1_tl'
I219
tp2044
a(S'w'
I21
tp2045
a(S'p2_tl'
I186
tp2046
a(S'w'
I713
tp2047
a(S'p1_tl'
I223
tp2048
a(S'w'
I21
tp2049
a(S'p2_tl'
I188
tp2050
a(S'w'
I714
tp2051
a(S'p1_tl'
I227
tp2052
a(S'w'
I21
tp2053
a(S'p2_tl'
I190
tp2054
a(S'w'
I712
tp2055
a(S'p1_tl'
I231
tp2056
a(S'w'
I22
tp2057
a(S'p2_tl'
I192
tp2058
a(S'w'
I712
tp2059
a(S'p1_tl'
I235
tp2060
a(S'w'
I22
tp2061
a(S'p2_tl'
I194
tp2062
a(S'w'
I712
tp2063
a(S'p1_tl'
I231
tp2064
a(S'w'
I21
tp2065
a(S'p2_tl'
I192
tp2066
a(S'w'
I713
tp2067
a(S'p1_tl'
I227
tp2068
a(S'w'
I21
tp2069
a(S'p2_tl'
I190
tp2070
a(S'w'
I713
tp2071
a(S'p1_tl'
I223
tp2072
a(S'w'
I23
tp2073
a(S'p2_tl'
I188
tp2074
a(S'w'
I710
tp2075
a(S'p1_tl'
I219
tp2076
a(S'w'
I21
tp2077
a(S'p2_tl'
I186
tp2078
a(S'w'
I713
tp2079
a(S'p1_tl'
I215
tp2080
a(S'w'
I21
tp2081
a(S'p2_tl'
I184
tp2082
a(S'w'
I713
tp2083
a(S'p1_tl'
I211
tp2084
a(S'w'
I21
tp2085
a(S'p2_tl'
I182
tp2086
a(S'w'
I712
tp2087
a(S'p1_tl'
I215
tp2088
a(S'w'
I21
tp2089
a(S'p2_tl'
I184
tp2090
a(S'w'
I713
tp2091
a(S'p1_tl'
I219
tp2092
a(S'w'
I21
tp2093
a(S'p2_tl'
I186
tp2094
a(S'w'
I713
tp2095
a(S'p1_tl'
I223
tp2096
a(S'w'
I21
tp2097
a(S'p2_tl'
I188
tp2098
a(S'w'
I713
tp2099
a(S'p1_tl'
I227
tp2100
a(S'w'
I22
tp2101
a(S'p2_tl'
I190
tp2102
a(S'w'
I712
tp2103
a(S'p1_tl'
I231
tp2104
a(S'w'
I21
tp2105
a(S'p2_tl'
I192
tp2106
a(S'w'
I713
tp2107
a(S'p1_tl'
I235
tp2108
a(S'w'
I21
tp2109
a(S'p2_tl'
I194
tp2110
a(S'w'
I713
tp2111
a(S'p1_tl'
I231
tp2112
a(S'w'
I21
tp2113
a(S'p2_tl'
I192
tp2114
a(S'w'
I712
tp2115
a(S'p1_tl'
I227
tp2116
a(S'w'
I22
tp2117
a(S'p2_tl'
I190
tp2118
a(S'w'
I713
tp2119
a(S'p1_tl'
I223
tp2120
a(S'w'
I22
tp2121
a(S'p2_tl'
I188
tp2122
a(S'w'
I711
tp2123
a(S'p1_tl'
I219
tp2124
a(S'w'
I21
tp2125
a(S'p2_tl'
I186
tp2126
a(S'w'
I712
tp2127
a(S'p1_tl'
I215
tp2128
a(S'w'
I21
tp2129
a(S'p2_tl'
I184
tp2130
a(S'w'
I713
tp2131
a(S'p1_tl'
I211
tp2132
a(S'w'
I21
tp2133
a(S'p2_tl'
I182
tp2134
a(S'w'
I713
tp2135
a(S'p1_tl'
I215
tp2136
a(S'w'
I21
tp2137
a(S'p2_tl'
I184
tp2138
a(S'w'
I713
tp2139
a(S'p1_tl'
I219
tp2140
a(S'w'
I21
tp2141
a(S'p2_tl'
I186
tp2142
a(S'w'
I713
tp2143
a(S'p1_tl'
I223
tp2144
a(S'w'
I21
tp2145
a(S'p2_tl'
I188
tp2146
a(S'w'
I713
tp2147
a(S'p1_tl'
I227
tp2148
a(S'w'
I21
tp2149
a(S'p2_tl'
I190
tp2150
a(S'w'
I713
tp2151
a(S'p1_tl'
I231
tp2152
a(S'w'
I21
tp2153
a(S'p2_tl'
I192
tp2154
a(S'w'
I712
tp2155
a(S'p1_tl'
I235
tp2156
a(S'w'
I22
tp2157
a(S'p2_tl'
I194
tp2158
a(S'w'
I712
tp2159
a(S'p1_tl'
I231
tp2160
a(S'w'
I22
tp2161
a(S'p2_tl'
I192
tp2162
a(S'w'
I712
tp2163
a(S'p1_tl'
I227
tp2164
a(S'w'
I22
tp2165
a(S'p2_tl'
I190
tp2166
a(S'w'
I713
tp2167
a(S'p1_tl'
I223
tp2168
a(S'w'
I22
tp2169
a(S'p2_tl'
I188
tp2170
a(S'w'
I710
tp2171
a(S'p1_tl'
I219
tp2172
a(S'w'
I21
tp2173
a(S'p2_tl'
I186
tp2174
a(S'w'
I713
tp2175
a(S'p1_tl'
I215
tp2176
a(S'w'
I21
tp2177
a(S'p2_tl'
I184
tp2178
a(S'w'
I713
tp2179
a(S'p1_tl'
I211
tp2180
a(S'w'
I21
tp2181
a(S'p2_tl'
I182
tp2182
a(S'w'
I713
tp2183
a(S'p1_tl'
I215
tp2184
a(S'w'
I21
tp2185
a(S'p2_tl'
I184
tp2186
a(S'w'
I712
tp2187
a(S'p1_tl'
I219
tp2188
a(S'w'
I21
tp2189
a(S'p2_tl'
I186
tp2190
a(S'w'
I713
tp2191
a(S'p1_tl'
I223
tp2192
a(S'w'
I21
tp2193
a(S'p2_tl'
I188
tp2194
a(S'w'
I713
tp2195
a(S'p1_tl'
I227
tp2196
a(S'w'
I22
tp2197
a(S'p2_tl'
I190
tp2198
a(S'w'
I712
tp2199
a(S'p1_tl'
I231
tp2200
a(S'w'
I22
tp2201
a(S'p2_tl'
I192
tp2202
a(S'w'
I712
tp2203
a(S'p1_tl'
I235
tp2204
a(S'w'
I22
tp2205
a(S'p2_tl'
I194
tp2206
a(S'w'
I712
tp2207
a(S'p1_tl'
I231
tp2208
a(S'w'
I21
tp2209
a(S'p2_tl'
I192
tp2210
a(S'w'
I713
tp2211
a(S'p1_tl'
I227
tp2212
a(S'w'
I21
tp2213
a(S'p2_tl'
I190
tp2214
a(S'w'
I713
tp2215
a(S'p1_tl'
I223
tp2216
a(S'w'
I23
tp2217
a(S'p2_tl'
I188
tp2218
a(S'w'
I710
tp2219
a(S'p1_tl'
I219
tp2220
a(S'w'
I21
tp2221
a(S'p2_tl'
I186
tp2222
a(S'w'
I713
tp2223
a(S'p1_tl'
I215
tp2224
a(S'w'
I21
tp2225
a(S'p2_tl'
I184
tp2226
a(S'w'
I712
tp2227
a(S'p1_tl'
I211
tp2228
a(S'w'
I21
tp2229
a(S'p2_tl'
I182
tp2230
a(S'w'
I713
tp2231
a(S'p1_tl'
I215
tp2232
a(S'w'
I21
tp2233
a(S'p2_tl'
I184
tp2234
a(S'w'
I713
tp2235
a(S'p1_tl'
I219
tp2236
a(S'w'
I21
tp2237
a(S'p2_tl'
I186
tp2238
a(S'w'
I713
tp2239
a(S'p1_tl'
I223
tp2240
a(S'w'
I21
tp2241
a(S'p2_tl'
I188
tp2242
a(S'w'
I713
tp2243
a(S'p1_tl'
I227
tp2244
a(S'w'
I22
tp2245
a(S'p2_tl'
I190
tp2246
a(S'w'
I712
tp2247
a(S'p1_tl'
I231
tp2248
a(S'w'
I21
tp2249
a(S'p2_tl'
I192
tp2250
a(S'w'
I713
tp2251
a(S'p1_tl'
I235
tp2252
a(S'w'
I21
tp2253
a(S'p2_tl'
I194
tp2254
a(S'w'
I712
tp2255
a(S'p1_tl'
I231
tp2256
a(S'w'
I22
tp2257
a(S'p2_tl'
I192
tp2258
a(S'w'
I712
tp2259
a(S'p1_tl'
I227
tp2260
a(S'w'
I22
tp2261
a(S'p2_tl'
I190
tp2262
a(S'w'
I713
tp2263
a(S'p1_tl'
I223
tp2264
a(S'w'
I22
tp2265
a(S'p2_tl'
I188
tp2266
a(S'w'
I710
tp2267
a(S'p1_tl'
I219
tp2268
a(S'w'
I21
tp2269
a(S'p2_tl'
I186
tp2270
a(S'w'
I713
tp2271
a(S'p1_tl'
I215
tp2272
a(S'w'
I21
tp2273
a(S'p2_tl'
I184
tp2274
a(S'w'
I713
tp2275
a(S'p1_tl'
I211
tp2276
a(S'w'
I21
tp2277
a(S'p2_tl'
I182
tp2278
a(S'w'
I713
tp2279
a(S'p1_tl'
I215
tp2280
a(S'w'
I21
tp2281
a(S'p2_tl'
I184
tp2282
a(S'w'
I16
tp2283
a(S'tr_lh'
I0
tp2284
a(S'tr_lr'
I0
tp2285
a(S'w'
I1
tp2286
a(S'tr_ll'
I31
tp2287
a(S'tr_th'
I7
tp2288
a(S'w'
I696
tp2289
a(S'p1_tl'
I219
tp2290
a(S'w'
I21
tp2291
a(S'p2_tl'
I186
tp2292
a(S'w'
I712
tp2293
a(S'p1_tl'
I223
tp2294
a(S'w'
I21
tp2295
a(S'p2_tl'
I188
tp2296
a(S'w'
I714
tp2297
a(S'p1_tl'
I227
tp2298
a(S'w'
I21
tp2299
a(S'p2_tl'
I190
tp2300
a(S'w'
I712
tp2301
a(S'p1_tl'
I231
tp2302
a(S'w'
I22
tp2303
a(S'p2_tl'
I192
tp2304
a(S'w'
I712
tp2305
a(S'p1_tl'
I235
tp2306
a(S'w'
I22
tp2307
a(S'p2_tl'
I194
tp2308
a(S'w'
I712
tp2309
a(S'p1_tl'
I231
tp2310
a(S'w'
I22
tp2311
a(S'p2_tl'
I192
tp2312
a(S'w'
I712
tp2313
a(S'p1_tl'
I227
tp2314
a(S'w'
I21
tp2315
a(S'p2_tl'
I190
tp2316
a(S'w'
I714
tp2317
a(S'p1_tl'
I223
tp2318
a(S'w'
I4
tp2319
a(S'p1_vo'
I2
tp2320
a(S'w'
I14
tp2321
a(S'p2_tl'
I188
tp2322
a(S'w'
I6
tp2323
a(S'p2_vo'
I6
tp2324
a(S'w'
I708
tp2325
a(S'p1_tl'
I219
tp2326
a(S'w'
I17
tp2327
a(S'p2_tl'
I186
tp2328
a(S'w'
I6
tp2329
a(S'p2_vo'
I5
tp2330
a(S'w'
I711
tp2331
a(S'p1_tl'
I215
tp2332
a(S'w'
I17
tp2333
a(S'p2_tl'
I184
tp2334
a(S'w'
I6
tp2335
a(S'p2_vo'
I4
tp2336
a(S'w'
I710
tp2337
a(S'p1_tl'
I211
tp2338
a(S'w'
I17
tp2339
a(S'p2_tl'
I182
tp2340
a(S'w'
I7
tp2341
a(S'p2_vo'
I3
tp2342
a(S'w'
I710
tp2343
a(S'p1_tl'
I215
tp2344
a(S'w'
I17
tp2345
a(S'p2_tl'
I184
tp2346
a(S'w'
I7
tp2347
a(S'p2_vo'
I2
tp2348
a(S'w'
I710
tp2349
a(S'p1_tl'
I219
tp2350
a(S'w'
I17
tp2351
a(S'p2_tl'
I186
tp2352
a(S'w'
I6
tp2353
a(S'p2_vo'
I1
tp2354
a(S'w'
I711
tp2355
a(S'p1_tl'
I223
tp2356
a(S'w'
I17
tp2357
a(S'p2_tl'
I188
tp2358
a(S'w'
I717
tp2359
a(S'p1_tl'
I227
tp2360
a(S'w'
I18
tp2361
a(S'p2_tl'
I190
tp2362
a(S'w'
I716
tp2363
a(S'p1_tl'
I231
tp2364
a(S'w'
I17
tp2365
a(S'p2_tl'
I192
tp2366
a(S'w'
I717
tp2367
a(S'p1_tl'
I235
tp2368
a(S'w'
I17
tp2369
a(S'p2_tl'
I194
tp2370
a(S'w'
I717
tp2371
a(S'p1_tl'
I231
tp2372
a(S'w'
I17
tp2373
a(S'p2_tl'
I192
tp2374
a(S'w'
I716
tp2375
a(S'p1_tl'
I227
tp2376
a(S'w'
I18
tp2377
a(S'p2_tl'
I190
tp2378
a(S'w'
I717
tp2379
a(S'p1_tl'
I223
tp2380
a(S'w'
I18
tp2381
a(S'p2_tl'
I188
tp2382
a(S'w'
I715
tp2383
a(S'p1_tl'
I219
tp2384
a(S'w'
I16
tp2385
a(S'p2_tl'
I186
tp2386
a(S'w'
I717
tp2387
a(S'p1_tl'
I215
tp2388
a(S'w'
I17
tp2389
a(S'p2_tl'
I184
tp2390
a(S'w'
I717
tp2391
a(S'p1_tl'
I211
tp2392
a(S'w'
I17
tp2393
a(S'p2_tl'
I182
tp2394
a(S'w'
I712
tp2395
a(S'p1_du'
I0
tp2396
a(S'p1_vo'
I0
tp2397
a(S'w'
I8
tp2398
a(S'p2_du'
I0
tp2399
a(S'p2_vo'
I0
tp2400
a(S'w'
I1
tp2401
a.