(lp1
(S'clock'
p2
I1789772
tp3
a(S'p1_du'
I2
tp4
a(S'p1_lh'
I1
tp5
a(S'p1_cv'
I1
tp6
a(S'p1_vo'
I6
tp7
a(S'p1_sp'
I7
tp8
a(S'p1_sn'
I1
tp9
a(S'p1_ss'
I7
tp10
a(S'p1_tl'
I103
tp11
a(S'p1_ll'
I1
tp12
a(S'p1_th'
I1
tp13
a(S'p2_du'
I2
tp14
a(S'p2_lh'
I1
tp15
a(S'p2_cv'
I1
tp16
a(S'p2_vo'
I6
tp17
a(S'p2_sp'
I7
tp18
a(S'p2_sn'
I1
tp19
a(S'p2_ss'
I7
tp20
a(S'p2_tl'
I92
tp21
a(S'p2_ll'
I1
tp22
a(S'p2_th'
I2
tp23
a(S'tr_lh'
I1
tp24
a(S'tr_lr'
I1
tp25
a(S'tr_tl'
I206
tp26
a(S'tr_ll'
I1
tp27
a(S'tr_th'
I2
tp28
a(S'ch_no'
I1
tp29
a(S'ch_tr'
I1
tp30
a(S'ch_p2'
I1
tp31
a(S'ch_p1'
I1
tp32
a(S'fc_mo'
I1
tp33
a(S'p1_du'
I0
tp34
a(S'p1_vo'
I0
tp35
a(S'w'
I1
tp36
a(S'p1_ll'
I1
tp37
a(S'p1_th'
I0
tp38
a(S'w'
I7
tp39
a(S'p2_du'
I0
tp40
a(S'p2_vo'
I0
tp41
a(S'p2_ll'
I1
tp42
a(S'p2_th'
I0
tp43
a(S'w'
I43
tp44
a(S'p1_vo'
I6
tp45
a(S'w'
I10
tp46
a(S'p1_ll'
I1
tp47
a(S'p1_th'
I7
tp48
a(S'w'
I3
tp49
a(S'p1_tl'
I241
tp50
a(S'w'
I22
tp51
a(S'p2_du'
I2
tp52
a(S'w'
I10
tp53
a(S'tr_lh'
I0
tp54
a(S'tr_lr'
I0
tp55
a(S'w'
I2
tp56
a(S'tr_ll'
I31
tp57
a(S'tr_th'
I7
tp58
a(S'w'
I393
tp59
a(S'p1_vo'
I7
tp60
a(S'w'
I732
tp61
a(S'p1_vo'
I6
tp62
a(S'w'
I755
tp63
a(S'p1_ll'
I1
tp64
a(S'p1_th'
I5
tp65
a(S'w'
I3
tp66
a(S'p1_tl'
I243
tp67
a(S'w'
I711
tp68
a(S'p1_vo'
I7
tp69
a(S'w'
I732
tp70
a(S'p1_vo'
I6
tp71
a(S'w'
I756
tp72
a(S'p1_tl'
I76
tp73
a(S'w'
I714
tp74
a(S'p1_vo'
I7
tp75
a(S'w'
I732
tp76
a(S'p1_vo'
I6
tp77
a(S'w'
I769
tp78
a(S'p1_du'
I2
tp79
a(S'p1_vo'
I8
tp80
a(S'w'
I10
tp81
a(S'p1_ll'
I1
tp82
a(S'p1_th'
I3
tp83
a(S'w'
I3
tp84
a(S'p1_tl'
I248
tp85
a(S'w'
I18
tp86
a(S'tr_lh'
I1
tp87
a(S'tr_lr'
I1
tp88
a(S'w'
I9
tp89
a(S'tr_ll'
I1
tp90
a(S'tr_th'
I1
tp91
a(S'w'
I3
tp92
a(S'tr_tl'
I251
tp93
a(S'w'
I12
tp94
a(S'ch_no'
I1
tp95
a(S'ch_tr'
I1
tp96
a(S'ch_p2'
I1
tp97
a(S'ch_p1'
I1
tp98
a(S'w'
I645
tp99
a(S'p1_du'
I0
tp100
a(S'p1_vo'
I9
tp101
a(S'w'
I734
tp102
a(S'p1_vo'
I8
tp103
a(S'w'
I734
tp104
a(S'p1_vo'
I7
tp105
a(S'w'
I15
tp106
a(S'p2_vo'
I3
tp107
a(S'w'
I10
tp108
a(S'p2_ll'
I1
tp109
a(S'p2_th'
I7
tp110
a(S'w'
I3
tp111
a(S'p2_tl'
I242
tp112
a(S'w'
I717
tp113
a(S'p2_vo'
I4
tp114
a(S'w'
I734
tp115
a(S'p2_vo'
I3
tp116
a(S'w'
I721
tp117
a(S'p1_du'
I2
tp118
a(S'p1_vo'
I6
tp119
a(S'w'
I25
tp120
a(S'p2_ll'
I1
tp121
a(S'p2_th'
I5
tp122
a(S'w'
I3
tp123
a(S'p2_tl'
I244
tp124
a(S'w'
I706
tp125
a(S'p1_vo'
I5
tp126
a(S'w'
I10
tp127
a(S'p2_vo'
I4
tp128
a(S'w'
I724
tp129
a(S'p1_vo'
I4
tp130
a(S'w'
I11
tp131
a(S'p2_vo'
I3
tp132
a(S'w'
I722
tp133
a(S'p1_vo'
I3
tp134
a(S'w'
I11
tp135
a(S'p2_vo'
I2
tp136
a(S'w'
I723
tp137
a(S'p1_vo'
I2
tp138
a(S'w'
I15
tp139
a(S'p2_vo'
I3
tp140
a(S'w'
I11
tp141
a(S'p2_tl'
I77
tp142
a(S'w'
I708
tp143
a(S'p1_vo'
I1
tp144
a(S'w'
I11
tp145
a(S'p2_vo'
I4
tp146
a(S'w'
I733
tp147
a(S'p2_vo'
I3
tp148
a(S'w'
I736
tp149
a(S'p1_vo'
I8
tp150
a(S'w'
I10
tp151
a(S'p1_ll'
I1
tp152
a(S'p1_th'
I2
tp153
a(S'w'
I3
tp154
a(S'p1_tl'
I249
tp155
a(S'w'
I35
tp156
a(S'p2_ll'
I1
tp157
a(S'p2_th'
I3
tp158
a(S'w'
I3
tp159
a(S'p2_tl'
I249
tp160
a(S'w'
I672
tp161
a(S'p1_du'
I0
tp162
a(S'p1_vo'
I9
tp163
a(S'w'
I11
tp164
a(S'p2_vo'
I4
tp165
a(S'w'
I12
tp166
a(S'no_lh'
I1
tp167
a(S'no_cv'
I1
tp168
a(S'no_vo'
I10
tp169
a(S'w'
I5
tp170
a(S'no_ll'
I1
tp171
a(S'w'
I2
tp172
a(S'no_np'
I2
tp173
a(S'w'
I704
tp174
a(S'p1_vo'
I8
tp175
a(S'w'
I10
tp176
a(S'p2_vo'
I3
tp177
a(S'w'
I8
tp178
a(S'no_vo'
I0
tp179
a(S'w'
I716
tp180
a(S'p1_vo'
I7
tp181
a(S'w'
I11
tp182
a(S'p2_vo'
I2
tp183
a(S'w'
I2922
tp184
a(S'p1_du'
I2
tp185
a(S'p1_vo'
I6
tp186
a(S'w'
I734
tp187
a(S'p1_vo'
I5
tp188
a(S'w'
I734
tp189
a(S'p1_vo'
I4
tp190
a(S'w'
I734
tp191
a(S'p1_vo'
I3
tp192
a(S'w'
I734
tp193
a(S'p1_vo'
I2
tp194
a(S'w'
I733
tp195
a(S'p1_vo'
I1
tp196
a(S'w'
I1480
tp197
a(S'p1_vo'
I8
tp198
a(S'w'
I11
tp199
a(S'p1_tl'
I58
tp200
a(S'w'
I16
tp201
a(S'p2_vo'
I3
tp202
a(S'w'
I11
tp203
a(S'p2_ll'
I1
tp204
a(S'p2_th'
I2
tp205
a(S'w'
I2
tp206
a(S'p2_tl'
I250
tp207
a(S'w'
I683
tp208
a(S'p1_du'
I0
tp209
a(S'p1_vo'
I9
tp210
a(S'w'
I11
tp211
a(S'p2_vo'
I4
tp212
a(S'w'
I12
tp213
a(S'no_vo'
I10
tp214
a(S'w'
I5
tp215
a(S'no_ll'
I1
tp216
a(S'w'
I3
tp217
a(S'w'
I703
tp218
a(S'p1_vo'
I8
tp219
a(S'w'
I11
tp220
a(S'p2_vo'
I3
tp221
a(S'w'
I7
tp222
a(S'no_vo'
I0
tp223
a(S'w'
I716
tp224
a(S'p1_vo'
I7
tp225
a(S'w'
I10
tp226
a(S'p2_vo'
I2
tp227
a(S'w'
I2923
tp228
a(S'p1_du'
I2
tp229
a(S'p1_vo'
I6
tp230
a(S'w'
I734
tp231
a(S'p1_vo'
I5
tp232
a(S'w'
I734
tp233
a(S'p1_vo'
I4
tp234
a(S'w'
I734
tp235
a(S'p1_vo'
I3
tp236
a(S'w'
I734
tp237
a(S'p1_vo'
I2
tp238
a(S'w'
I733
tp239
a(S'p1_vo'
I1
tp240
a(S'w'
I1484
tp241
a(S'p1_vo'
I8
tp242
a(S'w'
I11
tp243
a(S'p1_ll'
I1
tp244
a(S'p1_th'
I1
tp245
a(S'w'
I3
tp246
a(S'p1_tl'
I171
tp247
a(S'w'
I16
tp248
a(S'p2_vo'
I3
tp249
a(S'w'
I11
tp250
a(S'p2_tl'
I59
tp251
a(S'w'
I24
tp252
a(S'tr_ll'
I1
tp253
a(S'tr_th'
I2
tp254
a(S'w'
I3
tp255
a(S'tr_tl'
I166
tp256
a(S'w'
I10
tp257
a(S'ch_no'
I1
tp258
a(S'ch_tr'
I1
tp259
a(S'ch_p2'
I1
tp260
a(S'ch_p1'
I1
tp261
a(S'w'
I2
tp262
a(S'ch_no'
I1
tp263
a(S'ch_tr'
I1
tp264
a(S'ch_p2'
I1
tp265
a(S'ch_p1'
I1
tp266
a(S'w'
I639
tp267
a(S'p1_du'
I0
tp268
a(S'p1_vo'
I9
tp269
a(S'w'
I11
tp270
a(S'p2_vo'
I4
tp271
a(S'w'
I723
tp272
a(S'p1_vo'
I8
tp273
a(S'w'
I11
tp274
a(S'p2_vo'
I3
tp275
a(S'w'
I723
tp276
a(S'p1_vo'
I7
tp277
a(S'w'
I11
tp278
a(S'p2_vo'
I2
tp279
a(S'w'
I2189
tp280
a(S'p1_du'
I2
tp281
a(S'p1_vo'
I6
tp282
a(S'w'
I734
tp283
a(S'p1_vo'
I5
tp284
a(S'w'
I734
tp285
a(S'p1_vo'
I4
tp286
a(S'w'
I733
tp287
a(S'p1_vo'
I3
tp288
a(S'w'
I734
tp289
a(S'p1_vo'
I2
tp290
a(S'w'
I734
tp291
a(S'p1_vo'
I1
tp292
a(S'w'
I1483
tp293
a(S'p1_vo'
I8
tp294
a(S'w'
I10
tp295
a(S'p1_ll'
I1
tp296
a(S'p1_th'
I2
tp297
a(S'w'
I3
tp298
a(S'p1_tl'
I58
tp299
a(S'w'
I20
tp300
a(S'p2_vo'
I3
tp301
a(S'w'
I10
tp302
a(S'p2_ll'
I1
tp303
a(S'p2_th'
I1
tp304
a(S'w'
I3
tp305
a(S'p2_tl'
I172
tp306
a(S'w'
I674
tp307
a(S'p1_du'
I0
tp308
a(S'p1_vo'
I9
tp309
a(S'w'
I10
tp310
a(S'p2_vo'
I4
tp311
a(S'w'
I12
tp312
a(S'no_vo'
I10
tp313
a(S'w'
I6
tp314
a(S'no_ll'
I1
tp315
a(S'w'
I2
tp316
a(S'w'
I704
tp317
a(S'p1_vo'
I8
tp318
a(S'w'
I11
tp319
a(S'p2_vo'
I3
tp320
a(S'w'
I8
tp321
a(S'no_vo'
I0
tp322
a(S'w'
I714
tp323
a(S'p1_vo'
I7
tp324
a(S'w'
I11
tp325
a(S'p2_vo'
I2
tp326
a(S'w'
I722
tp327
a(S'p1_du'
I2
tp328
a(S'p1_vo'
I6
tp329
a(S'w'
I734
tp330
a(S'p1_vo'
I5
tp331
a(S'w'
I733
tp332
a(S'p1_vo'
I4
tp333
a(S'w'
I749
tp334
a(S'p1_vo'
I8
tp335
a(S'w'
I11
tp336
a(S'p1_ll'
I1
tp337
a(S'p1_th'
I1
tp338
a(S'w'
I3
tp339
a(S'p1_tl'
I171
tp340
a(S'w'
I706
tp341
a(S'p1_du'
I0
tp342
a(S'p1_vo'
I9
tp343
a(S'w'
I734
tp344
a(S'p1_vo'
I8
tp345
a(S'w'
I735
tp346
a(S'p1_vo'
I7
tp347
a(S'w'
I731
tp348
a(S'p1_du'
I2
tp349
a(S'p1_vo'
I6
tp350
a(S'w'
I734
tp351
a(S'p1_vo'
I5
tp352
a(S'w'
I734
tp353
a(S'p1_vo'
I4
tp354
a(S'w'
I746
tp355
a(S'p1_vo'
I8
tp356
a(S'w'
I11
tp357
a(S'p1_tl'
I63
tp358
a(S'w'
I19
tp359
a(S'p2_vo'
I3
tp360
a(S'w'
I11
tp361
a(S'p2_ll'
I1
tp362
a(S'p2_th'
I2
tp363
a(S'w'
I2
tp364
a(S'p2_tl'
I59
tp365
a(S'w'
I680
tp366
a(S'p1_du'
I0
tp367
a(S'p1_vo'
I9
tp368
a(S'w'
I11
tp369
a(S'p2_vo'
I4
tp370
a(S'w'
I12
tp371
a(S'no_vo'
I10
tp372
a(S'w'
I5
tp373
a(S'no_ll'
I1
tp374
a(S'w'
I3
tp375
a(S'w'
I703
tp376
a(S'p1_vo'
I8
tp377
a(S'w'
I10
tp378
a(S'p2_vo'
I3
tp379
a(S'w'
I8
tp380
a(S'no_vo'
I0
tp381
a(S'w'
I716
tp382
a(S'p1_vo'
I7
tp383
a(S'w'
I10
tp384
a(S'p2_vo'
I2
tp385
a(S'w'
I2923
tp386
a(S'p1_du'
I2
tp387
a(S'p1_vo'
I6
tp388
a(S'w'
I19
tp389
a(S'p2_vo'
I3
tp390
a(S'w'
I11
tp391
a(S'p2_ll'
I1
tp392
a(S'p2_th'
I1
tp393
a(S'w'
I3
tp394
a(S'p2_tl'
I172
tp395
a(S'w'
I701
tp396
a(S'p1_vo'
I5
tp397
a(S'w'
I11
tp398
a(S'p2_vo'
I4
tp399
a(S'w'
I723
tp400
a(S'p1_vo'
I4
tp401
a(S'w'
I11
tp402
a(S'p2_vo'
I3
tp403
a(S'w'
I723
tp404
a(S'p1_vo'
I3
tp405
a(S'w'
I10
tp406
a(S'p2_vo'
I2
tp407
a(S'w'
I724
tp408
a(S'p1_vo'
I2
tp409
a(S'w'
I734
tp410
a(S'p1_vo'
I1
tp411
a(S'w'
I1483
tp412
a(S'p1_vo'
I8
tp413
a(S'w'
I11
tp414
a(S'p1_ll'
I1
tp415
a(S'p1_th'
I0
tp416
a(S'w'
I3
tp417
a(S'p1_tl'
I239
tp418
a(S'w'
I16
tp419
a(S'p2_vo'
I3
tp420
a(S'w'
I11
tp421
a(S'p2_tl'
I64
tp422
a(S'w'
I22
tp423
a(S'tr_ll'
I1
tp424
a(S'tr_th'
I1
tp425
a(S'w'
I2
tp426
a(S'tr_tl'
I251
tp427
a(S'w'
I10
tp428
a(S'ch_no'
I1
tp429
a(S'ch_tr'
I1
tp430
a(S'ch_p2'
I1
tp431
a(S'ch_p1'
I1
tp432
a(S'w'
I2
tp433
a(S'ch_no'
I1
tp434
a(S'ch_tr'
I1
tp435
a(S'ch_p2'
I1
tp436
a(S'ch_p1'
I1
tp437
a(S'w'
I642
tp438
a(S'p1_du'
I0
tp439
a(S'p1_vo'
I9
tp440
a(S'w'
I11
tp441
a(S'p2_vo'
I4
tp442
a(S'w'
I723
tp443
a(S'p1_vo'
I8
tp444
a(S'w'
I11
tp445
a(S'p2_vo'
I3
tp446
a(S'w'
I723
tp447
a(S'p1_vo'
I7
tp448
a(S'w'
I10
tp449
a(S'p2_vo'
I2
tp450
a(S'w'
I2923
tp451
a(S'p1_du'
I2
tp452
a(S'p1_vo'
I6
tp453
a(S'w'
I734
tp454
a(S'p1_vo'
I5
tp455
a(S'w'
I734
tp456
a(S'p1_vo'
I4
tp457
a(S'w'
I734
tp458
a(S'p1_vo'
I3
tp459
a(S'w'
I734
tp460
a(S'p1_vo'
I2
tp461
a(S'w'
I734
tp462
a(S'p1_vo'
I1
tp463
a(S'w'
I748
tp464
a(S'p1_vo'
I8
tp465
a(S'w'
I11
tp466
a(S'p1_ll'
I1
tp467
a(S'p1_th'
I1
tp468
a(S'w'
I3
tp469
a(S'p1_tl'
I63
tp470
a(S'w'
I20
tp471
a(S'p2_vo'
I3
tp472
a(S'w'
I11
tp473
a(S'p2_ll'
I1
tp474
a(S'p2_th'
I0
tp475
a(S'w'
I2
tp476
a(S'p2_tl'
I240
tp477
a(S'w'
I12
tp478
a(S'tr_lh'
I0
tp479
a(S'tr_lr'
I14
tp480
a(S'w'
I9
tp481
a(S'tr_ll'
I1
tp482
a(S'w'
I3
tp483
a(S'tr_tl'
I171
tp484
a(S'w'
I650
tp485
a(S'p1_du'
I0
tp486
a(S'p1_vo'
I9
tp487
a(S'w'
I11
tp488
a(S'p2_vo'
I4
tp489
a(S'w'
I12
tp490
a(S'no_vo'
I10
tp491
a(S'w'
I5
tp492
a(S'no_ll'
I1
tp493
a(S'w'
I3
tp494
a(S'w'
I702
tp495
a(S'p1_vo'
I8
tp496
a(S'w'
I11
tp497
a(S'p2_vo'
I3
tp498
a(S'w'
I8
tp499
a(S'no_vo'
I0
tp500
a(S'w'
I715
tp501
a(S'p1_vo'
I7
tp502
a(S'w'
I11
tp503
a(S'p2_vo'
I2
tp504
a(S'w'
I721
tp505
a(S'p1_du'
I2
tp506
a(S'p1_vo'
I6
tp507
a(S'w'
I734
tp508
a(S'p1_vo'
I5
tp509
a(S'w'
I734
tp510
a(S'p1_vo'
I4
tp511
a(S'w'
I749
tp512
a(S'p1_vo'
I8
tp513
a(S'w'
I11
tp514
a(S'p1_ll'
I1
tp515
a(S'p1_th'
I0
tp516
a(S'w'
I3
tp517
a(S'p1_tl'
I239
tp518
a(S'w'
I30
tp519
a(S'tr_ll'
I1
tp520
a(S'w'
I3
tp521
a(S'tr_tl'
I147
tp522
a(S'w'
I9
tp523
a(S'ch_no'
I1
tp524
a(S'ch_tr'
I1
tp525
a(S'ch_p2'
I1
tp526
a(S'ch_p1'
I1
tp527
a(S'w'
I2
tp528
a(S'ch_no'
I1
tp529
a(S'ch_tr'
I1
tp530
a(S'ch_p2'
I1
tp531
a(S'ch_p1'
I1
tp532
a(S'w'
I662
tp533
a(S'p1_du'
I0
tp534
a(S'p1_vo'
I9
tp535
a(S'w'
I735
tp536
a(S'p1_vo'
I8
tp537
a(S'w'
I733
tp538
a(S'p1_vo'
I7
tp539
a(S'w'
I732
tp540
a(S'p1_du'
I2
tp541
a(S'p1_vo'
I6
tp542
a(S'w'
I734
tp543
a(S'p1_vo'
I5
tp544
a(S'w'
I734
tp545
a(S'p1_vo'
I4
tp546
a(S'w'
I782
tp547
a(S'p1_vo'
I8
tp548
a(S'w'
I11
tp549
a(S'p1_tl'
I179
tp550
a(S'w'
I19
tp551
a(S'p2_vo'
I3
tp552
a(S'w'
I11
tp553
a(S'p2_ll'
I1
tp554
a(S'p2_th'
I1
tp555
a(S'w'
I3
tp556
a(S'p2_tl'
I64
tp557
a(S'w'
I11
tp558
a(S'tr_lh'
I1
tp559
a(S'tr_lr'
I1
tp560
a(S'w'
I9
tp561
a(S'tr_ll'
I1
tp562
a(S'w'
I3
tp563
a(S'tr_tl'
I103
tp564
a(S'w'
I14
tp565
a(S'ch_no'
I1
tp566
a(S'ch_tr'
I1
tp567
a(S'ch_p2'
I1
tp568
a(S'ch_p1'
I1
tp569
a(S'w'
I2
tp570
a(S'ch_no'
I1
tp571
a(S'ch_tr'
I1
tp572
a(S'ch_p2'
I1
tp573
a(S'ch_p1'
I1
tp574
a(S'w'
I604
tp575
a(S'p1_du'
I0
tp576
a(S'p1_vo'
I9
tp577
a(S'w'
I11
tp578
a(S'p2_vo'
I4
tp579
a(S'w'
I723
tp580
a(S'p1_vo'
I8
tp581
a(S'w'
I10
tp582
a(S'p2_vo'
I3
tp583
a(S'w'
I724
tp584
a(S'p1_vo'
I7
tp585
a(S'w'
I11
tp586
a(S'p2_vo'
I2
tp587
a(S'w'
I3677
tp588
a(S'p2_vo'
I3
tp589
a(S'w'
I11
tp590
a(S'p2_ll'
I1
tp591
a(S'p2_th'
I0
tp592
a(S'w'
I3
tp593
a(S'p2_tl'
I240
tp594
a(S'w'
I713
tp595
a(S'p2_vo'
I4
tp596
a(S'w'
I733
tp597
a(S'p2_vo'
I3
tp598
a(S'w'
I733
tp599
a(S'p2_vo'
I2
tp600
a(S'w'
I4420
tp601
a(S'p2_vo'
I3
tp602
a(S'w'
I11
tp603
a(S'p2_tl'
I180
tp604
a(S'w'
I707
tp605
a(S'p2_vo'
I4
tp606
a(S'w'
I733
tp607
a(S'p2_vo'
I3
tp608
a(S'w'
I734
tp609
a(S'p2_vo'
I2
tp610
a(S'w'
I2926
tp611
a(S'w'
I732
tp612
a(S'p1_tl'
I177
tp613
a(S'w'
I734
tp614
a(S'p1_tl'
I175
tp615
a(S'w'
I734
tp616
a(S'p1_tl'
I173
tp617
a(S'w'
I733
tp618
a(S'p1_tl'
I175
tp619
a(S'w'
I734
tp620
a(S'p1_tl'
I177
tp621
a(S'w'
I735
tp622
a(S'p1_tl'
I179
tp623
a(S'w'
I733
tp624
a(S'p1_tl'
I181
tp625
a(S'w'
I734
tp626
a(S'p1_tl'
I183
tp627
a(S'w'
I735
tp628
a(S'p1_tl'
I185
tp629
a(S'w'
I733
tp630
a(S'p1_tl'
I183
tp631
a(S'w'
I734
tp632
a(S'p1_tl'
I181
tp633
a(S'w'
I735
tp634
a(S'p1_tl'
I179
tp635
a(S'w'
I732
tp636
a(S'p1_tl'
I177
tp637
a(S'w'
I734
tp638
a(S'p1_tl'
I175
tp639
a(S'w'
I734
tp640
a(S'p1_tl'
I173
tp641
a(S'w'
I733
tp642
a(S'p1_tl'
I175
tp643
a(S'w'
I734
tp644
a(S'p1_tl'
I177
tp645
a(S'w'
I734
tp646
a(S'p1_tl'
I179
tp647
a(S'w'
I734
tp648
a(S'p1_tl'
I181
tp649
a(S'w'
I734
tp650
a(S'p1_tl'
I183
tp651
a(S'w'
I734
tp652
a(S'p1_tl'
I185
tp653
a(S'w'
I733
tp654
a(S'p1_tl'
I183
tp655
a(S'w'
I734
tp656
a(S'p1_tl'
I181
tp657
a(S'w'
I736
tp658
a(S'p1_tl'
I179
tp659
a(S'w'
I731
tp660
a(S'p1_tl'
I177
tp661
a(S'w'
I734
tp662
a(S'p1_tl'
I175
tp663
a(S'w'
I735
tp664
a(S'p1_tl'
I173
tp665
a(S'w'
I733
tp666
a(S'p1_tl'
I175
tp667
a(S'w'
I734
tp668
a(S'p1_tl'
I177
tp669
a(S'w'
I734
tp670
a(S'p1_tl'
I179
tp671
a(S'w'
I734
tp672
a(S'p1_tl'
I181
tp673
a(S'w'
I733
tp674
a(S'p1_tl'
I183
tp675
a(S'w'
I735
tp676
a(S'p1_tl'
I185
tp677
a(S'w'
I733
tp678
a(S'p1_tl'
I183
tp679
a(S'w'
I734
tp680
a(S'p1_tl'
I181
tp681
a(S'w'
I735
tp682
a(S'p1_tl'
I179
tp683
a(S'w'
I732
tp684
a(S'p1_tl'
I177
tp685
a(S'w'
I734
tp686
a(S'p1_tl'
I175
tp687
a(S'w'
I734
tp688
a(S'p1_tl'
I173
tp689
a(S'w'
I733
tp690
a(S'p1_tl'
I175
tp691
a(S'w'
I734
tp692
a(S'p1_tl'
I177
tp693
a(S'w'
I735
tp694
a(S'p1_tl'
I179
tp695
a(S'w'
I733
tp696
a(S'p1_tl'
I181
tp697
a(S'w'
I734
tp698
a(S'p1_tl'
I183
tp699
a(S'w'
I735
tp700
a(S'p1_tl'
I185
tp701
a(S'w'
I733
tp702
a(S'p1_tl'
I183
tp703
a(S'w'
I733
tp704
a(S'p1_tl'
I181
tp705
a(S'w'
I736
tp706
a(S'p1_tl'
I179
tp707
a(S'w'
I732
tp708
a(S'p1_tl'
I177
tp709
a(S'w'
I733
tp710
a(S'p1_tl'
I175
tp711
a(S'w'
I735
tp712
a(S'p1_tl'
I173
tp713
a(S'w'
I733
tp714
a(S'p1_tl'
I175
tp715
a(S'w'
I734
tp716
a(S'p1_tl'
I177
tp717
a(S'w'
I734
tp718
a(S'p1_tl'
I179
tp719
a(S'w'
I734
tp720
a(S'p1_tl'
I181
tp721
a(S'w'
I734
tp722
a(S'p1_tl'
I183
tp723
a(S'w'
I734
tp724
a(S'p1_tl'
I185
tp725
a(S'w'
I733
tp726
a(S'p1_tl'
I183
tp727
a(S'w'
I734
tp728
a(S'p1_tl'
I181
tp729
a(S'w'
I735
tp730
a(S'p1_tl'
I179
tp731
a(S'w'
I732
tp732
a(S'p1_tl'
I177
tp733
a(S'w'
I734
tp734
a(S'p1_tl'
I175
tp735
a(S'w'
I735
tp736
a(S'p1_tl'
I173
tp737
a(S'w'
I733
tp738
a(S'p1_tl'
I175
tp739
a(S'w'
I733
tp740
a(S'p1_tl'
I177
tp741
a(S'w'
I43
tp742
a(S'tr_ll'
I1
tp743
a(S'w'
I3
tp744
a(S'tr_tl'
I82
tp745
a(S'w'
I689
tp746
a(S'p1_tl'
I179
tp747
a(S'w'
I733
tp748
a(S'p1_tl'
I181
tp749
a(S'w'
I734
tp750
a(S'p1_tl'
I183
tp751
a(S'w'
I38
tp752
a(S'tr_ll'
I1
tp753
a(S'w'
I2
tp754
a(S'tr_tl'
I63
tp755
a(S'w'
I695
tp756
a(S'p1_tl'
I185
tp757
a(S'w'
I733
tp758
a(S'p1_tl'
I183
tp759
a(S'w'
I734
tp760
a(S'p1_tl'
I181
tp761
a(S'w'
I37
tp762
a(S'tr_ll'
I1
tp763
a(S'w'
I3
tp764
a(S'tr_tl'
I45
tp765
a(S'w'
I695
tp766
a(S'p1_tl'
I179
tp767
a(S'w'
I732
tp768
a(S'p1_tl'
I177
tp769
a(S'w'
I734
tp770
a(S'p1_tl'
I175
tp771
a(S'w'
I37
tp772
a(S'tr_ll'
I1
tp773
a(S'w'
I3
tp774
a(S'tr_tl'
I28
tp775
a(S'w'
I694
tp776
a(S'p1_tl'
I173
tp777
a(S'w'
I733
tp778
a(S'p1_tl'
I175
tp779
a(S'w'
I734
tp780
a(S'p1_tl'
I177
tp781
a(S'w'
I37
tp782
a(S'tr_ll'
I1
tp783
a(S'w'
I3
tp784
a(S'tr_tl'
I12
tp785
a(S'w'
I695
tp786
a(S'p1_tl'
I179
tp787
a(S'w'
I733
tp788
a(S'p1_tl'
I181
tp789
a(S'w'
I734
tp790
a(S'p1_tl'
I183
tp791
a(S'w'
I38
tp792
a(S'tr_ll'
I1
tp793
a(S'tr_th'
I0
tp794
a(S'w'
I3
tp795
a(S'tr_tl'
I253
tp796
a(S'w'
I693
tp797
a(S'p1_tl'
I185
tp798
a(S'w'
I734
tp799
a(S'p1_tl'
I183
tp800
a(S'w'
I6
tp801
a(S'p1_vo'
I6
tp802
a(S'w'
I727
tp803
a(S'p1_tl'
I181
tp804
a(S'w'
I35
tp805
a(S'tr_ll'
I1
tp806
a(S'w'
I3
tp807
a(S'tr_tl'
I239
tp808
a(S'w'
I698
tp809
a(S'p1_tl'
I179
tp810
a(S'w'
I731
tp811
a(S'p1_tl'
I177
tp812
a(S'w'
I734
tp813
a(S'p1_tl'
I175
tp814
a(S'w'
I7
tp815
a(S'p1_vo'
I5
tp816
a(S'w'
I28
tp817
a(S'tr_ll'
I1
tp818
a(S'w'
I3
tp819
a(S'tr_tl'
I225
tp820
a(S'w'
I697
tp821
a(S'p1_tl'
I173
tp822
a(S'w'
I733
tp823
a(S'p1_tl'
I175
tp824
a(S'w'
I34
tp825
a(S'tr_ll'
I1
tp826
a(S'w'
I3
tp827
a(S'tr_tl'
I213
tp828
a(S'w'
I697
tp829
a(S'p1_tl'
I177
tp830
a(S'w'
I34
tp831
a(S'tr_ll'
I1
tp832
a(S'w'
I3
tp833
a(S'tr_tl'
I201
tp834
a(S'w'
I697
tp835
a(S'p1_tl'
I179
tp836
a(S'w'
I7
tp837
a(S'p1_vo'
I4
tp838
a(S'w'
I727
tp839
a(S'p1_tl'
I181
tp840
a(S'w'
I34
tp841
a(S'tr_ll'
I1
tp842
a(S'w'
I3
tp843
a(S'tr_tl'
I189
tp844
a(S'w'
I697
tp845
a(S'p1_tl'
I183
tp846
a(S'w'
I34
tp847
a(S'tr_ll'
I1
tp848
a(S'w'
I3
tp849
a(S'tr_tl'
I179
tp850
a(S'w'
I697
tp851
a(S'p1_tl'
I185
tp852
a(S'w'
I733
tp853
a(S'p1_tl'
I183
tp854
a(S'w'
I7
tp855
a(S'p1_vo'
I3
tp856
a(S'w'
I28
tp857
a(S'tr_ll'
I1
tp858
a(S'w'
I3
tp859
a(S'tr_tl'
I169
tp860
a(S'w'
I696
tp861
a(S'p1_tl'
I181
tp862
a(S'w'
I34
tp863
a(S'tr_ll'
I1
tp864
a(S'w'
I3
tp865
a(S'tr_tl'
I159
tp866
a(S'w'
I10
tp867
a(S'no_vo'
I10
tp868
a(S'w'
I5
tp869
a(S'no_ll'
I1
tp870
a(S'w'
I3
tp871
a(S'w'
I680
tp872
a(S'p1_tl'
I179
tp873
a(S'w'
I26
tp874
a(S'no_vo'
I0
tp875
a(S'w'
I706
tp876
a(S'p1_tl'
I177
tp877
a(S'w'
I34
tp878
a(S'tr_ll'
I1
tp879
a(S'w'
I3
tp880
a(S'tr_tl'
I150
tp881
a(S'w'
I697
tp882
a(S'p1_tl'
I175
tp883
a(S'w'
I6
tp884
a(S'p1_vo'
I2
tp885
a(S'w'
I19
tp886
a(S'p2_du'
I1
tp887
a(S'p2_vo'
I0
tp888
a(S'w'
I17
tp889
a(S'tr_ll'
I1
tp890
a(S'w'
I3
tp891
a(S'tr_tl'
I142
tp892
a(S'w'
I9
tp893
a(S'ch_no'
I1
tp894
a(S'ch_tr'
I1
tp895
a(S'ch_p2'
I1
tp896
a(S'ch_p1'
I1
tp897
a(S'w'
I2
tp898
a(S'ch_no'
I1
tp899
a(S'ch_tr'
I1
tp900
a(S'ch_p2'
I1
tp901
a(S'ch_p1'
I1
tp902
a(S'w'
I678
tp903
a(S'p1_tl'
I173
tp904
a(S'w'
I733
tp905
a(S'p1_tl'
I175
tp906
a(S'w'
I26
tp907
a(S'tr_ll'
I1
tp908
a(S'w'
I3
tp909
a(S'tr_tl'
I134
tp910
a(S'w'
I707
tp911
a(S'p1_vo'
I0
tp912
a(S'w'
I14
tp913
a(S'tr_lh'
I0
tp914
a(S'tr_lr'
I0
tp915
a(S'w'
I2
tp916
a(S'tr_ll'
I31
tp917
a(S'tr_th'
I7
tp918
a(S'w'
I1479
tp919
a(S'p1_du'
I3
tp920
a(S'p1_vo'
I8
tp921
a(S'w'
I11
tp922
a(S'p1_ll'
I1
tp923
a(S'p1_th'
I1
tp924
a(S'w'
I3
tp925
a(S'p1_tl'
I82
tp926
a(S'w'
I22
tp927
a(S'p2_vo'
I7
tp928
a(S'w'
I11
tp929
a(S'p2_ll'
I1
tp930
a(S'p2_th'
I1
tp931
a(S'w'
I3
tp932
a(S'p2_tl'
I252
tp933
a(S'w'
I10
tp934
a(S'tr_lh'
I1
tp935
a(S'tr_lr'
I1
tp936
a(S'w'
I9
tp937
a(S'tr_ll'
I1
tp938
a(S'tr_th'
I1
tp939
a(S'w'
I3
tp940
a(S'tr_tl'
I82
tp941
a(S'w'
I9
tp942
a(S'ch_no'
I1
tp943
a(S'ch_tr'
I1
tp944
a(S'ch_p2'
I1
tp945
a(S'ch_p1'
I1
tp946
a(S'w'
I2
tp947
a(S'ch_no'
I1
tp948
a(S'ch_tr'
I1
tp949
a(S'ch_p2'
I1
tp950
a(S'ch_p1'
I1
tp951
a(S'w'
I621
tp952
a(S'p1_du'
I0
tp953
a(S'p1_vo'
I9
tp954
a(S'w'
I11
tp955
a(S'p2_vo'
I8
tp956
a(S'w'
I723
tp957
a(S'p1_vo'
I8
tp958
a(S'w'
I10
tp959
a(S'p2_vo'
I7
tp960
a(S'w'
I723
tp961
a(S'p1_vo'
I7
tp962
a(S'w'
I11
tp963
a(S'p2_vo'
I6
tp964
a(S'w'
I722
tp965
a(S'p1_du'
I3
tp966
a(S'p1_vo'
I6
tp967
a(S'w'
I733
tp968
a(S'p1_vo'
I5
tp969
a(S'w'
I735
tp970
a(S'p1_du'
I0
tp971
a(S'p1_vo'
I0
tp972
a(S'w'
I9
tp973
a(S'p2_vo'
I0
tp974
a(S'w'
I9
tp975
a(S'tr_lh'
I0
tp976
a(S'tr_lr'
I0
tp977
a(S'w'
I2
tp978
a(S'tr_ll'
I31
tp979
a(S'tr_th'
I7
tp980
a(S'w'
I5128
tp981
a(S'p1_du'
I3
tp982
a(S'p1_vo'
I8
tp983
a(S'w'
I11
tp984
a(S'p1_tl'
I251
tp985
a(S'w'
I20
tp986
a(S'p2_vo'
I7
tp987
a(S'w'
I10
tp988
a(S'p2_ll'
I1
tp989
a(S'p2_th'
I2
tp990
a(S'w'
I3
tp991
a(S'p2_tl'
I167
tp992
a(S'w'
I10
tp993
a(S'tr_lh'
I1
tp994
a(S'tr_lr'
I1
tp995
a(S'w'
I9
tp996
a(S'tr_ll'
I1
tp997
a(S'tr_th'
I1
tp998
a(S'w'
I3
tp999
a(S'tr_tl'
I251
tp1000
a(S'w'
I9
tp1001
a(S'ch_no'
I1
tp1002
a(S'ch_tr'
I1
tp1003
a(S'ch_p2'
I1
tp1004
a(S'ch_p1'
I1
tp1005
a(S'w'
I2
tp1006
a(S'ch_no'
I1
tp1007
a(S'ch_tr'
I1
tp1008
a(S'ch_p2'
I1
tp1009
a(S'ch_p1'
I1
tp1010
a(S'w'
I646
tp1011
a(S'p1_du'
I0
tp1012
a(S'p1_vo'
I9
tp1013
a(S'w'
I11
tp1014
a(S'p2_vo'
I8
tp1015
a(S'w'
I723
tp1016
a(S'p1_vo'
I8
tp1017
a(S'w'
I11
tp1018
a(S'p2_vo'
I7
tp1019
a(S'w'
I724
tp1020
a(S'p1_vo'
I7
tp1021
a(S'w'
I10
tp1022
a(S'p2_vo'
I6
tp1023
a(S'w'
I1455
tp1024
a(S'p1_du'
I3
tp1025
a(S'p1_vo'
I6
tp1026
a(S'w'
I734
tp1027
a(S'p1_vo'
I5
tp1028
a(S'w'
I734
tp1029
a(S'p1_du'
I0
tp1030
a(S'p1_vo'
I0
tp1031
a(S'w'
I9
tp1032
a(S'p2_vo'
I0
tp1033
a(S'w'
I8
tp1034
a(S'tr_lh'
I0
tp1035
a(S'tr_lr'
I0
tp1036
a(S'w'
I1
tp1037
a(S'tr_ll'
I31
tp1038
a(S'tr_th'
I7
tp1039
a(S'w'
I5134
tp1040
a(S'p1_du'
I3
tp1041
a(S'p1_vo'
I2
tp1042
a(S'w'
I11
tp1043
a(S'w'
I19
tp1044
a(S'p2_vo'
I1
tp1045
a(S'w'
I11
tp1046
a(S'w'
I678
tp1047
a(S'p1_du'
I0
tp1048
a(S'p1_vo'
I3
tp1049
a(S'w'
I11
tp1050
a(S'p2_vo'
I2
tp1051
a(S'w'
I723
tp1052
a(S'p1_vo'
I2
tp1053
a(S'w'
I11
tp1054
a(S'p2_vo'
I1
tp1055
a(S'w'
I723
tp1056
a(S'p1_vo'
I1
tp1057
a(S'w'
I732
tp1058
a(S'p1_du'
I3
tp1059
a(S'w'
I2203
tp1060
a(S'p1_du'
I0
tp1061
a(S'p1_vo'
I0
tp1062
a(S'w'
I8
tp1063
a(S'p2_vo'
I0
tp1064
a(S'w'
I5142
tp1065
a(S'p1_du'
I3
tp1066
a(S'p1_vo'
I1
tp1067
a(S'w'
I12
tp1068
a(S'w'
I18
tp1069
a(S'p2_vo'
I1
tp1070
a(S'w'
I11
tp1071
a(S'w'
I680
tp1072
a(S'p1_du'
I0
tp1073
a(S'w'
I2199
tp1074
a(S'p1_du'
I3
tp1075
a(S'w'
I1466
tp1076
a(S'p1_du'
I0
tp1077
a(S'p1_vo'
I0
tp1078
a(S'w'
I8
tp1079
a(S'p2_du'
I0
tp1080
a(S'p2_vo'
I0
tp1081
a(S'w'
I1
tp1082
a.