(lp1
(S'clock'
p2
I1789772
tp3
a(S'p1_cv'
I1
tp4
a(S'p2_cv'
I1
tp5
a(S'no_cv'
I1
tp6
a(S'ch_no'
I1
tp7
a(S'ch_tr'
I1
tp8
a(S'ch_p2'
I1
tp9
a(S'ch_p1'
I1
tp10
a(S'fc_mo'
I1
tp11
a(S'w'
I10
tp12
a(S'w'
I17
tp13
a(S'p2_du'
I1
tp14
a(S'p2_lh'
I1
tp15
a(S'p2_vo'
I14
tp16
a(S'p2_sn'
I1
tp17
a(S'w'
I1
tp18
a(S'p2_ll'
I1
tp19
a(S'p2_th'
I1
tp20
a(S'p2_tl'
I29
tp21
a(S'w'
I16
tp22
a(S'p1_du'
I1
tp23
a(S'p1_lh'
I1
tp24
a(S'p1_vo'
I14
tp25
a(S'p1_sn'
I1
tp26
a(S'w'
I1
tp27
a(S'p1_ll'
I1
tp28
a(S'p1_tl'
I213
tp29
a(S'w'
I9
tp30
a(S'ch_no'
I1
tp31
a(S'ch_tr'
I1
tp32
a(S'ch_p2'
I1
tp33
a(S'ch_p1'
I1
tp34
a(S'w'
I670
tp35
a(S'p2_du'
I0
tp36
a(S'p2_vo'
I13
tp37
a(S'w'
I1
tp38
a(S'w'
I6
tp39
a(S'p1_du'
I0
tp40
a(S'p1_vo'
I13
tp41
a(S'w'
I723
tp42
a(S'p2_vo'
I12
tp43
a(S'w'
I1
tp44
a(S'w'
I6
tp45
a(S'p1_vo'
I12
tp46
a(S'w'
I1
tp47
a(S'w'
I727
tp48
a(S'w'
I7
tp49
a(S'w'
I726
tp50
a(S'p2_vo'
I11
tp51
a(S'w'
I1
tp52
a(S'w'
I6
tp53
a(S'p1_vo'
I11
tp54
a(S'w'
I1
tp55
a(S'w'
I727
tp56
a(S'w'
I7
tp57
a(S'w'
I726
tp58
a(S'w'
I7
tp59
a(S'w'
I728
tp60
a(S'w'
I8
tp61
a(S'w'
I725
tp62
a(S'w'
I6
tp63
a(S'w'
I728
tp64
a(S'w'
I6
tp65
a(S'w'
I727
tp66
a(S'w'
I7
tp67
a(S'w'
I727
tp68
a(S'w'
I7
tp69
a(S'w'
I727
tp70
a(S'w'
I6
tp71
a(S'w'
I728
tp72
a(S'p2_vo'
I1
tp73
a(S'w'
I1
tp74
a(S'w'
I6
tp75
a(S'p1_vo'
I1
tp76
a(S'w'
I1
tp77
a(S'w'
I6
tp78
a(S'ch_no'
I1
tp79
a(S'ch_tr'
I1
tp80
a(S'ch_p2'
I1
tp81
a(S'ch_p1'
I1
tp82
a(S'w'
I720
tp83
a(S'w'
I7
tp84
a(S'w'
I727
tp85
a(S'w'
I7
tp86
a(S'w'
I727
tp87
a(S'w'
I6
tp88
a(S'w'
I727
tp89
a(S'w'
I7
tp90
a(S'w'
I727
tp91
a(S'w'
I7
tp92
a(S'w'
I726
tp93
a(S'p2_vo'
I5
tp94
a(S'w'
I1
tp95
a(S'w'
I6
tp96
a(S'p1_vo'
I5
tp97
a(S'w'
I1
tp98
a(S'w'
I726
tp99
a(S'p2_vo'
I4
tp100
a(S'w'
I1
tp101
a(S'w'
I6
tp102
a(S'p1_vo'
I4
tp103
a(S'w'
I1
tp104
a(S'w'
I726
tp105
a(S'p2_vo'
I3
tp106
a(S'w'
I1
tp107
a(S'w'
I6
tp108
a(S'p1_vo'
I3
tp109
a(S'w'
I727
tp110
a(S'p2_vo'
I2
tp111
a(S'w'
I6
tp112
a(S'p1_vo'
I2
tp113
a(S'w'
I1
tp114
a(S'w'
I728
tp115
a(S'w'
I8
tp116
a(S'w'
I725
tp117
a(S'w'
I6
tp118
a(S'w'
I727
tp119
a(S'w'
I7
tp120
a(S'w'
I733
tp121
a(S'p2_lh'
I0
tp122
a(S'p2_vo'
I0
tp123
a(S'p2_tl'
I32
tp124
a(S'w'
I13
tp125
a(S'p1_du'
I1
tp126
a(S'p1_vo'
I14
tp127
a(S'w'
I1
tp128
a(S'p1_ll'
I1
tp129
a(S'p1_th'
I1
tp130
a(S'p1_tl'
I29
tp131
a(S'w'
I715
tp132
a(S'p2_tl'
I35
tp133
a(S'w'
I6
tp134
a(S'p1_du'
I0
tp135
a(S'p1_vo'
I13
tp136
a(S'w'
I1
tp137
a(S'w'
I726
tp138
a(S'p2_tl'
I37
tp139
a(S'w'
I6
tp140
a(S'p1_vo'
I12
tp141
a(S'w'
I1
tp142
a(S'w'
I727
tp143
a(S'w'
I7
tp144
a(S'w'
I727
tp145
a(S'p2_tl'
I32
tp146
a(S'w'
I6
tp147
a(S'p1_vo'
I1
tp148
a(S'w'
I1
tp149
a(S'w'
I727
tp150
a(S'p2_tl'
I26
tp151
a(S'w'
I7
tp152
a(S'w'
I727
tp153
a(S'p2_tl'
I23
tp154
a(S'w'
I6
tp155
a(S'p1_vo'
I5
tp156
a(S'w'
I1
tp157
a(S'w'
I728
tp158
a(S'p2_lh'
I1
tp159
a(S'p2_vo'
I3
tp160
a(S'w'
I1
tp161
a(S'p2_ll'
I1
tp162
a(S'p2_tl'
I29
tp163
a(S'w'
I6
tp164
a(S'p1_vo'
I4
tp165
a(S'w'
I1
tp166
a(S'w'
I725
tp167
a(S'w'
I9
tp168
a(S'p1_du'
I1
tp169
a(S'p1_vo'
I14
tp170
a(S'w'
I1
tp171
a(S'p1_ll'
I1
tp172
a(S'p1_th'
I0
tp173
a(S'p1_tl'
I240
tp174
a(S'w'
I722
tp175
a(S'w'
I6
tp176
a(S'p1_du'
I0
tp177
a(S'p1_vo'
I13
tp178
a(S'w'
I1
tp179
a(S'w'
I727
tp180
a(S'w'
I6
tp181
a(S'p1_vo'
I12
tp182
a(S'w'
I1
tp183
a(S'w'
I727
tp184
a(S'w'
I7
tp185
a(S'w'
I727
tp186
a(S'w'
I6
tp187
a(S'p1_vo'
I1
tp188
a(S'w'
I1
tp189
a(S'w'
I727
tp190
a(S'w'
I6
tp191
a(S'w'
I728
tp192
a(S'w'
I5
tp193
a(S'p1_vo'
I5
tp194
a(S'w'
I1
tp195
a(S'w'
I731
tp196
a(S'p2_ll'
I1
tp197
a(S'p2_th'
I0
tp198
a(S'p2_tl'
I240
tp199
a(S'w'
I6
tp200
a(S'p1_vo'
I4
tp201
a(S'w'
I1
tp202
a(S'w'
I724
tp203
a(S'w'
I8
tp204
a(S'w'
I725
tp205
a(S'w'
I9
tp206
a(S'p1_du'
I1
tp207
a(S'p1_vo'
I14
tp208
a(S'w'
I1
tp209
a(S'p1_ll'
I1
tp210
a(S'p1_tl'
I213
tp211
a(S'w'
I724
tp212
a(S'w'
I6
tp213
a(S'p1_du'
I0
tp214
a(S'p1_vo'
I13
tp215
a(S'w'
I1
tp216
a(S'w'
I726
tp217
a(S'w'
I6
tp218
a(S'p1_vo'
I12
tp219
a(S'w'
I1
tp220
a(S'w'
I727
tp221
a(S'w'
I7
tp222
a(S'w'
I727
tp223
a(S'w'
I6
tp224
a(S'p1_vo'
I1
tp225
a(S'w'
I1
tp226
a(S'w'
I727
tp227
a(S'w'
I7
tp228
a(S'w'
I727
tp229
a(S'w'
I6
tp230
a(S'p1_vo'
I5
tp231
a(S'w'
I1
tp232
a(S'w'
I730
tp233
a(S'p2_ll'
I1
tp234
a(S'p2_tl'
I213
tp235
a(S'w'
I6
tp236
a(S'p1_vo'
I4
tp237
a(S'w'
I1
tp238
a(S'w'
I724
tp239
a(S'w'
I8
tp240
a(S'w'
I721
tp241
a(S'tr_lh'
I1
tp242
a(S'tr_lr'
I127
tp243
a(S'w'
I1
tp244
a(S'tr_ll'
I1
tp245
a(S'tr_tl'
I142
tp246
a(S'w'
I13
tp247
a(S'p2_du'
I1
tp248
a(S'p2_vo'
I14
tp249
a(S'w'
I1
tp250
a(S'p2_ll'
I1
tp251
a(S'p2_tl'
I240
tp252
a(S'w'
I13
tp253
a(S'p1_du'
I1
tp254
a(S'p1_vo'
I14
tp255
a(S'p1_ll'
I1
tp256
a(S'w'
I1
tp257
a(S'p1_tl'
I201
tp258
a(S'w'
I7
tp259
a(S'ch_no'
I1
tp260
a(S'ch_tr'
I1
tp261
a(S'ch_p2'
I1
tp262
a(S'ch_p1'
I1
tp263
a(S'w'
I702
tp264
a(S'p2_du'
I0
tp265
a(S'p2_vo'
I13
tp266
a(S'w'
I6
tp267
a(S'p1_du'
I0
tp268
a(S'p1_vo'
I13
tp269
a(S'w'
I1
tp270
a(S'w'
I726
tp271
a(S'p2_vo'
I12
tp272
a(S'w'
I1
tp273
a(S'w'
I6
tp274
a(S'p1_vo'
I12
tp275
a(S'w'
I1
tp276
a(S'w'
I727
tp277
a(S'w'
I7
tp278
a(S'w'
I726
tp279
a(S'p2_vo'
I11
tp280
a(S'w'
I1
tp281
a(S'w'
I6
tp282
a(S'p1_vo'
I11
tp283
a(S'w'
I1
tp284
a(S'w'
I727
tp285
a(S'w'
I6
tp286
a(S'w'
I727
tp287
a(S'w'
I7
tp288
a(S'w'
I728
tp289
a(S'w'
I8
tp290
a(S'w'
I725
tp291
a(S'w'
I6
tp292
a(S'w'
I728
tp293
a(S'w'
I6
tp294
a(S'w'
I727
tp295
a(S'w'
I7
tp296
a(S'w'
I727
tp297
a(S'w'
I7
tp298
a(S'w'
I727
tp299
a(S'w'
I6
tp300
a(S'w'
I728
tp301
a(S'w'
I6
tp302
a(S'w'
I728
tp303
a(S'w'
I6
tp304
a(S'w'
I727
tp305
a(S'w'
I7
tp306
a(S'w'
I727
tp307
a(S'w'
I7
tp308
a(S'w'
I727
tp309
a(S'w'
I6
tp310
a(S'w'
I728
tp311
a(S'w'
I6
tp312
a(S'w'
I728
tp313
a(S'w'
I6
tp314
a(S'w'
I727
tp315
a(S'w'
I7
tp316
a(S'w'
I727
tp317
a(S'w'
I7
tp318
a(S'w'
I727
tp319
a(S'w'
I6
tp320
a(S'w'
I728
tp321
a(S'w'
I6
tp322
a(S'w'
I728
tp323
a(S'w'
I6
tp324
a(S'w'
I727
tp325
a(S'w'
I7
tp326
a(S'w'
I728
tp327
a(S'p2_tl'
I243
tp328
a(S'w'
I7
tp329
a(S'p1_tl'
I204
tp330
a(S'w'
I727
tp331
a(S'p2_tl'
I246
tp332
a(S'w'
I7
tp333
a(S'p1_tl'
I207
tp334
a(S'w'
I727
tp335
a(S'p2_tl'
I248
tp336
a(S'w'
I7
tp337
a(S'p1_tl'
I209
tp338
a(S'w'
I726
tp339
a(S'w'
I8
tp340
a(S'w'
I726
tp341
a(S'p2_tl'
I243
tp342
a(S'w'
I8
tp343
a(S'p1_tl'
I204
tp344
a(S'w'
I726
tp345
a(S'p2_tl'
I237
tp346
a(S'w'
I8
tp347
a(S'p1_tl'
I198
tp348
a(S'w'
I726
tp349
a(S'p2_tl'
I234
tp350
a(S'w'
I8
tp351
a(S'p1_tl'
I195
tp352
a(S'w'
I726
tp353
a(S'p2_tl'
I232
tp354
a(S'w'
I8
tp355
a(S'p1_tl'
I193
tp356
a(S'w'
I726
tp357
a(S'p2_tl'
I234
tp358
a(S'w'
I7
tp359
a(S'p1_tl'
I195
tp360
a(S'w'
I726
tp361
a(S'p2_tl'
I237
tp362
a(S'w'
I8
tp363
a(S'p1_tl'
I198
tp364
a(S'w'
I727
tp365
a(S'p2_tl'
I243
tp366
a(S'w'
I8
tp367
a(S'p1_tl'
I204
tp368
a(S'w'
I725
tp369
a(S'p2_tl'
I246
tp370
a(S'w'
I7
tp371
a(S'p1_tl'
I207
tp372
a(S'w'
I727
tp373
a(S'p2_tl'
I248
tp374
a(S'w'
I7
tp375
a(S'p1_tl'
I209
tp376
a(S'w'
I724
tp377
a(S'p2_vo'
I1
tp378
a(S'w'
I8
tp379
a(S'p1_vo'
I1
tp380
a(S'w'
I1
tp381
a(S'w'
I1
tp382
a(S'tr_lh'
I0
tp383
a(S'tr_lr'
I0
tp384
a(S'w'
I721
tp385
a(S'p2_tl'
I243
tp386
a(S'w'
I7
tp387
a(S'p1_tl'
I204
tp388
a(S'w'
I727
tp389
a(S'p2_tl'
I237
tp390
a(S'w'
I8
tp391
a(S'p1_tl'
I198
tp392
a(S'w'
I725
tp393
a(S'p2_tl'
I234
tp394
a(S'w'
I8
tp395
a(S'p1_tl'
I195
tp396
a(S'w'
I726
tp397
a(S'p2_tl'
I232
tp398
a(S'w'
I8
tp399
a(S'p1_tl'
I193
tp400
a(S'w'
I726
tp401
a(S'p2_tl'
I234
tp402
a(S'w'
I8
tp403
a(S'p1_tl'
I195
tp404
a(S'w'
I725
tp405
a(S'p2_vo'
I5
tp406
a(S'w'
I1
tp407
a(S'p2_tl'
I237
tp408
a(S'w'
I7
tp409
a(S'p1_vo'
I5
tp410
a(S'w'
I1
tp411
a(S'p1_tl'
I198
tp412
a(S'w'
I725
tp413
a(S'p2_vo'
I4
tp414
a(S'w'
I1
tp415
a(S'p2_tl'
I243
tp416
a(S'w'
I8
tp417
a(S'p1_vo'
I4
tp418
a(S'p1_tl'
I204
tp419
a(S'w'
I724
tp420
a(S'p2_vo'
I3
tp421
a(S'w'
I1
tp422
a(S'p2_tl'
I246
tp423
a(S'w'
I7
tp424
a(S'p1_vo'
I3
tp425
a(S'w'
I1
tp426
a(S'p1_tl'
I207
tp427
a(S'w'
I725
tp428
a(S'p2_vo'
I2
tp429
a(S'w'
I1
tp430
a(S'p2_tl'
I248
tp431
a(S'w'
I7
tp432
a(S'p1_vo'
I2
tp433
a(S'w'
I1
tp434
a(S'p1_tl'
I209
tp435
a(S'w'
I727
tp436
a(S'w'
I8
tp437
a(S'w'
I724
tp438
a(S'p2_tl'
I243
tp439
a(S'w'
I8
tp440
a(S'p1_tl'
I204
tp441
a(S'w'
I726
tp442
a(S'p2_tl'
I237
tp443
a(S'w'
I8
tp444
a(S'p1_tl'
I198
tp445
a(S'w'
I732
tp446
a(S'p2_du'
I2
tp447
a(S'p2_vo'
I4
tp448
a(S'w'
I1
tp449
a(S'p2_ll'
I1
tp450
a(S'p2_th'
I4
tp451
a(S'p2_tl'
I121
tp452
a(S'w'
I13
tp453
a(S'p1_du'
I2
tp454
a(S'p1_vo'
I4
tp455
a(S'w'
I1
tp456
a(S'p1_ll'
I1
tp457
a(S'p1_th'
I4
tp458
a(S'p1_tl'
I117
tp459
a(S'w'
I714
tp460
a(S'w'
I9
tp461
a(S'w'
I723
tp462
a(S'w'
I6
tp463
a(S'w'
I727
tp464
a(S'w'
I7
tp465
a(S'w'
I727
tp466
a(S'w'
I7
tp467
a(S'w'
I727
tp468
a(S'w'
I7
tp469
a(S'w'
I727
tp470
a(S'w'
I6
tp471
a(S'w'
I728
tp472
a(S'w'
I6
tp473
a(S'w'
I727
tp474
a(S'w'
I7
tp475
a(S'w'
I727
tp476
a(S'w'
I7
tp477
a(S'w'
I727
tp478
a(S'w'
I7
tp479
a(S'w'
I727
tp480
a(S'w'
I6
tp481
a(S'w'
I728
tp482
a(S'w'
I6
tp483
a(S'w'
I727
tp484
a(S'w'
I7
tp485
a(S'w'
I727
tp486
a(S'w'
I7
tp487
a(S'w'
I727
tp488
a(S'w'
I7
tp489
a(S'w'
I727
tp490
a(S'w'
I6
tp491
a(S'w'
I728
tp492
a(S'w'
I6
tp493
a(S'w'
I728
tp494
a(S'w'
I6
tp495
a(S'w'
I727
tp496
a(S'w'
I7
tp497
a(S'w'
I727
tp498
a(S'w'
I7
tp499
a(S'w'
I727
tp500
a(S'w'
I6
tp501
a(S'w'
I728
tp502
a(S'w'
I6
tp503
a(S'w'
I727
tp504
a(S'w'
I7
tp505
a(S'w'
I727
tp506
a(S'w'
I7
tp507
a(S'w'
I727
tp508
a(S'w'
I7
tp509
a(S'w'
I728
tp510
a(S'p2_tl'
I124
tp511
a(S'w'
I6
tp512
a(S'w'
I1
tp513
a(S'p1_tl'
I120
tp514
a(S'w'
I1
tp515
a(S'w'
I1
tp516
a(S'w'
I724
tp517
a(S'w'
I1
tp518
a(S'p2_tl'
I127
tp519
a(S'w'
I7
tp520
a(S'p1_tl'
I123
tp521
a(S'w'
I726
tp522
a(S'p2_tl'
I129
tp523
a(S'w'
I8
tp524
a(S'p1_tl'
I125
tp525
a(S'w'
I726
tp526
a(S'w'
I8
tp527
a(S'w'
I726
tp528
a(S'p2_tl'
I124
tp529
a(S'w'
I7
tp530
a(S'p1_tl'
I120
tp531
a(S'w'
I727
tp532
a(S'p2_tl'
I118
tp533
a(S'w'
I8
tp534
a(S'p1_tl'
I114
tp535
a(S'w'
I726
tp536
a(S'p2_tl'
I115
tp537
a(S'w'
I8
tp538
a(S'p1_tl'
I111
tp539
a(S'w'
I726
tp540
a(S'p2_tl'
I113
tp541
a(S'w'
I7
tp542
a(S'p1_tl'
I109
tp543
a(S'w'
I726
tp544
a(S'p2_tl'
I115
tp545
a(S'w'
I8
tp546
a(S'p1_tl'
I111
tp547
a(S'w'
I726
tp548
a(S'p2_tl'
I118
tp549
a(S'w'
I8
tp550
a(S'p1_tl'
I114
tp551
a(S'w'
I726
tp552
a(S'p2_tl'
I124
tp553
a(S'w'
I8
tp554
a(S'p1_tl'
I120
tp555
a(S'w'
I726
tp556
a(S'p2_tl'
I127
tp557
a(S'w'
I7
tp558
a(S'p1_tl'
I123
tp559
a(S'w'
I726
tp560
a(S'p2_tl'
I129
tp561
a(S'w'
I8
tp562
a(S'p1_tl'
I125
tp563
a(S'w'
I726
tp564
a(S'w'
I8
tp565
a(S'w'
I726
tp566
a(S'p2_tl'
I124
tp567
a(S'w'
I7
tp568
a(S'p1_tl'
I120
tp569
a(S'w'
I727
tp570
a(S'p2_tl'
I118
tp571
a(S'w'
I8
tp572
a(S'p1_tl'
I114
tp573
a(S'w'
I726
tp574
a(S'p2_tl'
I115
tp575
a(S'w'
I8
tp576
a(S'p1_tl'
I111
tp577
a(S'w'
I726
tp578
a(S'p2_tl'
I113
tp579
a(S'w'
I7
tp580
a(S'p1_tl'
I109
tp581
a(S'w'
I726
tp582
a(S'p2_tl'
I115
tp583
a(S'w'
I8
tp584
a(S'p1_tl'
I111
tp585
a(S'w'
I726
tp586
a(S'p2_tl'
I118
tp587
a(S'w'
I8
tp588
a(S'p1_tl'
I114
tp589
a(S'w'
I726
tp590
a(S'p2_tl'
I124
tp591
a(S'w'
I8
tp592
a(S'p1_tl'
I120
tp593
a(S'w'
I726
tp594
a(S'p2_tl'
I127
tp595
a(S'w'
I7
tp596
a(S'p1_tl'
I123
tp597
a(S'w'
I726
tp598
a(S'p2_tl'
I129
tp599
a(S'w'
I8
tp600
a(S'p1_tl'
I125
tp601
a(S'w'
I726
tp602
a(S'w'
I8
tp603
a(S'w'
I726
tp604
a(S'p2_tl'
I124
tp605
a(S'w'
I7
tp606
a(S'p1_tl'
I120
tp607
a(S'w'
I727
tp608
a(S'p2_tl'
I118
tp609
a(S'w'
I8
tp610
a(S'p1_tl'
I114
tp611
a(S'w'
I726
tp612
a(S'p2_tl'
I115
tp613
a(S'w'
I8
tp614
a(S'p1_tl'
I111
tp615
a(S'w'
I726
tp616
a(S'p2_tl'
I113
tp617
a(S'w'
I7
tp618
a(S'p1_tl'
I109
tp619
a(S'w'
I727
tp620
a(S'p2_tl'
I115
tp621
a(S'w'
I7
tp622
a(S'p1_tl'
I111
tp623
a(S'w'
I726
tp624
a(S'p2_tl'
I118
tp625
a(S'w'
I8
tp626
a(S'p1_tl'
I114
tp627
a(S'w'
I726
tp628
a(S'p2_tl'
I124
tp629
a(S'w'
I8
tp630
a(S'p1_tl'
I120
tp631
a(S'w'
I726
tp632
a(S'p2_tl'
I127
tp633
a(S'w'
I7
tp634
a(S'p1_tl'
I123
tp635
a(S'w'
I726
tp636
a(S'p2_tl'
I129
tp637
a(S'w'
I8
tp638
a(S'p1_tl'
I125
tp639
a(S'w'
I726
tp640
a(S'w'
I8
tp641
a(S'w'
I726
tp642
a(S'p2_tl'
I124
tp643
a(S'w'
I7
tp644
a(S'p1_tl'
I120
tp645
a(S'w'
I727
tp646
a(S'p2_tl'
I118
tp647
a(S'w'
I8
tp648
a(S'p1_tl'
I114
tp649
a(S'w'
I726
tp650
a(S'p2_tl'
I115
tp651
a(S'w'
I8
tp652
a(S'p1_tl'
I111
tp653
a(S'w'
I726
tp654
a(S'p2_tl'
I113
tp655
a(S'w'
I7
tp656
a(S'p1_tl'
I109
tp657
a(S'w'
I727
tp658
a(S'p2_tl'
I115
tp659
a(S'w'
I7
tp660
a(S'p1_tl'
I111
tp661
a(S'w'
I726
tp662
a(S'p2_tl'
I118
tp663
a(S'w'
I8
tp664
a(S'p1_tl'
I114
tp665
a(S'w'
I726
tp666
a(S'p2_tl'
I124
tp667
a(S'w'
I8
tp668
a(S'p1_tl'
I120
tp669
a(S'w'
I726
tp670
a(S'p2_tl'
I127
tp671
a(S'w'
I7
tp672
a(S'p1_tl'
I123
tp673
a(S'w'
I726
tp674
a(S'p2_tl'
I129
tp675
a(S'w'
I8
tp676
a(S'p1_tl'
I125
tp677
a(S'w'
I726
tp678
a(S'w'
I8
tp679
a(S'w'
I726
tp680
a(S'p2_tl'
I124
tp681
a(S'w'
I7
tp682
a(S'p1_tl'
I120
tp683
a(S'w'
I727
tp684
a(S'p2_tl'
I118
tp685
a(S'w'
I8
tp686
a(S'p1_tl'
I114
tp687
a(S'w'
I726
tp688
a(S'p2_tl'
I115
tp689
a(S'w'
I8
tp690
a(S'p1_tl'
I111
tp691
a(S'w'
I726
tp692
a(S'p2_tl'
I113
tp693
a(S'w'
I7
tp694
a(S'p1_tl'
I109
tp695
a(S'w'
I727
tp696
a(S'p2_tl'
I115
tp697
a(S'w'
I7
tp698
a(S'p1_tl'
I111
tp699
a(S'w'
I726
tp700
a(S'p2_tl'
I118
tp701
a(S'w'
I8
tp702
a(S'p1_tl'
I114
tp703
a(S'w'
I726
tp704
a(S'p2_tl'
I124
tp705
a(S'w'
I8
tp706
a(S'p1_tl'
I120
tp707
a(S'w'
I726
tp708
a(S'p2_tl'
I127
tp709
a(S'w'
I7
tp710
a(S'p1_tl'
I123
tp711
a(S'w'
I726
tp712
a(S'p2_tl'
I129
tp713
a(S'w'
I8
tp714
a(S'p1_tl'
I125
tp715
a(S'w'
I726
tp716
a(S'w'
I8
tp717
a(S'w'
I726
tp718
a(S'p2_tl'
I124
tp719
a(S'w'
I7
tp720
a(S'p1_tl'
I120
tp721
a(S'w'
I727
tp722
a(S'p2_tl'
I118
tp723
a(S'w'
I8
tp724
a(S'p1_tl'
I114
tp725
a(S'w'
I726
tp726
a(S'p2_tl'
I115
tp727
a(S'w'
I8
tp728
a(S'p1_tl'
I111
tp729
a(S'w'
I726
tp730
a(S'p2_tl'
I113
tp731
a(S'w'
I7
tp732
a(S'p1_tl'
I109
tp733
a(S'w'
I727
tp734
a(S'p2_tl'
I115
tp735
a(S'w'
I7
tp736
a(S'p1_tl'
I111
tp737
a(S'w'
I726
tp738
a(S'p2_tl'
I118
tp739
a(S'w'
I8
tp740
a(S'p1_tl'
I114
tp741
a(S'w'
I726
tp742
a(S'p2_tl'
I124
tp743
a(S'w'
I8
tp744
a(S'p1_tl'
I120
tp745
a(S'w'
I726
tp746
a(S'p2_tl'
I127
tp747
a(S'w'
I7
tp748
a(S'p1_tl'
I123
tp749
a(S'w'
I726
tp750
a(S'p2_tl'
I129
tp751
a(S'w'
I8
tp752
a(S'p1_tl'
I125
tp753
a(S'w'
I726
tp754
a(S'w'
I8
tp755
a(S'w'
I726
tp756
a(S'p2_tl'
I124
tp757
a(S'w'
I7
tp758
a(S'p1_tl'
I120
tp759
a(S'w'
I727
tp760
a(S'p2_tl'
I118
tp761
a(S'w'
I8
tp762
a(S'p1_tl'
I114
tp763
a(S'w'
I726
tp764
a(S'p2_tl'
I115
tp765
a(S'w'
I8
tp766
a(S'p1_tl'
I111
tp767
a(S'w'
I726
tp768
a(S'p2_tl'
I113
tp769
a(S'w'
I7
tp770
a(S'p1_tl'
I109
tp771
a(S'w'
I727
tp772
a(S'p2_tl'
I115
tp773
a(S'w'
I7
tp774
a(S'p1_tl'
I111
tp775
a(S'w'
I726
tp776
a(S'p2_tl'
I118
tp777
a(S'w'
I8
tp778
a(S'p1_tl'
I114
tp779
a(S'w'
I727
tp780
a(S'p2_tl'
I124
tp781
a(S'w'
I8
tp782
a(S'p1_tl'
I120
tp783
a(S'w'
I725
tp784
a(S'p2_tl'
I127
tp785
a(S'w'
I7
tp786
a(S'p1_tl'
I123
tp787
a(S'w'
I727
tp788
a(S'p2_tl'
I129
tp789
a(S'w'
I7
tp790
a(S'p1_tl'
I125
tp791
a(S'w'
I726
tp792
a(S'w'
I8
tp793
a(S'w'
I726
tp794
a(S'p2_tl'
I124
tp795
a(S'w'
I7
tp796
a(S'p1_tl'
I120
tp797
a(S'w'
I727
tp798
a(S'p2_tl'
I118
tp799
a(S'w'
I8
tp800
a(S'p1_tl'
I114
tp801
a(S'w'
I726
tp802
a(S'p2_tl'
I115
tp803
a(S'w'
I8
tp804
a(S'p1_tl'
I111
tp805
a(S'w'
I726
tp806
a(S'p2_tl'
I113
tp807
a(S'w'
I7
tp808
a(S'p1_tl'
I109
tp809
a(S'w'
I727
tp810
a(S'p2_tl'
I115
tp811
a(S'w'
I7
tp812
a(S'p1_tl'
I111
tp813
a(S'w'
I726
tp814
a(S'p2_tl'
I118
tp815
a(S'w'
I8
tp816
a(S'p1_tl'
I114
tp817
a(S'w'
I726
tp818
a(S'p2_tl'
I124
tp819
a(S'w'
I8
tp820
a(S'p1_tl'
I120
tp821
a(S'w'
I726
tp822
a(S'p2_tl'
I127
tp823
a(S'w'
I7
tp824
a(S'p1_tl'
I123
tp825
a(S'w'
I726
tp826
a(S'p2_tl'
I129
tp827
a(S'w'
I8
tp828
a(S'p1_tl'
I125
tp829
a(S'w'
I726
tp830
a(S'w'
I8
tp831
a(S'w'
I726
tp832
a(S'p2_tl'
I124
tp833
a(S'w'
I7
tp834
a(S'p1_tl'
I120
tp835
a(S'w'
I727
tp836
a(S'p2_tl'
I118
tp837
a(S'w'
I8
tp838
a(S'p1_tl'
I114
tp839
a(S'w'
I726
tp840
a(S'p2_tl'
I115
tp841
a(S'w'
I8
tp842
a(S'p1_tl'
I111
tp843
a(S'w'
I726
tp844
a(S'p2_tl'
I113
tp845
a(S'w'
I7
tp846
a(S'p1_tl'
I109
tp847
a(S'w'
I727
tp848
a(S'p2_tl'
I115
tp849
a(S'w'
I7
tp850
a(S'p1_tl'
I111
tp851
a(S'w'
I726
tp852
a(S'p2_tl'
I118
tp853
a(S'w'
I8
tp854
a(S'p1_tl'
I114
tp855
a(S'w'
I726
tp856
a(S'p2_tl'
I124
tp857
a(S'w'
I8
tp858
a(S'p1_tl'
I120
tp859
a(S'w'
I726
tp860
a(S'p2_tl'
I127
tp861
a(S'w'
I7
tp862
a(S'p1_tl'
I123
tp863
a(S'w'
I726
tp864
a(S'p2_tl'
I129
tp865
a(S'w'
I8
tp866
a(S'p1_tl'
I125
tp867
a(S'w'
I726
tp868
a(S'w'
I8
tp869
a(S'w'
I726
tp870
a(S'p2_tl'
I124
tp871
a(S'w'
I8
tp872
a(S'p1_tl'
I120
tp873
a(S'w'
I726
tp874
a(S'p2_tl'
I118
tp875
a(S'w'
I8
tp876
a(S'p1_tl'
I114
tp877
a(S'w'
I726
tp878
a(S'p2_tl'
I115
tp879
a(S'w'
I8
tp880
a(S'p1_tl'
I111
tp881
a(S'w'
I726
tp882
a(S'p2_tl'
I113
tp883
a(S'w'
I7
tp884
a(S'p1_tl'
I109
tp885
a(S'w'
I727
tp886
a(S'p2_tl'
I115
tp887
a(S'w'
I7
tp888
a(S'p1_tl'
I111
tp889
a(S'w'
I726
tp890
a(S'p2_tl'
I118
tp891
a(S'w'
I8
tp892
a(S'p1_tl'
I114
tp893
a(S'w'
I726
tp894
a(S'p2_tl'
I124
tp895
a(S'w'
I8
tp896
a(S'p1_tl'
I120
tp897
a(S'w'
I726
tp898
a(S'p2_tl'
I127
tp899
a(S'w'
I7
tp900
a(S'p1_tl'
I123
tp901
a(S'w'
I727
tp902
a(S'p2_tl'
I129
tp903
a(S'w'
I7
tp904
a(S'p1_tl'
I125
tp905
a(S'w'
I726
tp906
a(S'w'
I8
tp907
a(S'w'
I726
tp908
a(S'p2_tl'
I124
tp909
a(S'w'
I8
tp910
a(S'p1_tl'
I120
tp911
a(S'w'
I726
tp912
a(S'p2_tl'
I118
tp913
a(S'w'
I8
tp914
a(S'p1_tl'
I114
tp915
a(S'w'
I726
tp916
a(S'p2_tl'
I115
tp917
a(S'w'
I8
tp918
a(S'p1_tl'
I111
tp919
a(S'w'
I726
tp920
a(S'p2_tl'
I113
tp921
a(S'w'
I7
tp922
a(S'p1_tl'
I109
tp923
a(S'w'
I727
tp924
a(S'p2_tl'
I115
tp925
a(S'w'
I7
tp926
a(S'p1_tl'
I111
tp927
a(S'w'
I726
tp928
a(S'p2_tl'
I118
tp929
a(S'w'
I8
tp930
a(S'p1_tl'
I114
tp931
a(S'w'
I727
tp932
a(S'p2_tl'
I124
tp933
a(S'w'
I7
tp934
a(S'p1_tl'
I120
tp935
a(S'w'
I726
tp936
a(S'p2_tl'
I127
tp937
a(S'w'
I7
tp938
a(S'p1_tl'
I123
tp939
a(S'w'
I727
tp940
a(S'p2_tl'
I129
tp941
a(S'w'
I7
tp942
a(S'p1_tl'
I125
tp943
a(S'w'
I726
tp944
a(S'w'
I8
tp945
a(S'w'
I726
tp946
a(S'p2_tl'
I124
tp947
a(S'w'
I8
tp948
a(S'p1_tl'
I120
tp949
a(S'w'
I726
tp950
a(S'p2_tl'
I118
tp951
a(S'w'
I8
tp952
a(S'p1_tl'
I114
tp953
a(S'w'
I726
tp954
a(S'p2_tl'
I115
tp955
a(S'w'
I8
tp956
a(S'p1_tl'
I111
tp957
a(S'w'
I726
tp958
a(S'p2_tl'
I113
tp959
a(S'w'
I7
tp960
a(S'p1_tl'
I109
tp961
a(S'w'
I727
tp962
a(S'p2_tl'
I115
tp963
a(S'w'
I7
tp964
a(S'p1_tl'
I111
tp965
a(S'w'
I726
tp966
a(S'p2_tl'
I118
tp967
a(S'w'
I8
tp968
a(S'p1_tl'
I114
tp969
a(S'w'
I727
tp970
a(S'p2_tl'
I124
tp971
a(S'w'
I8
tp972
a(S'p1_tl'
I120
tp973
a(S'w'
I725
tp974
a(S'p2_tl'
I127
tp975
a(S'w'
I7
tp976
a(S'p1_tl'
I123
tp977
a(S'w'
I727
tp978
a(S'p2_tl'
I129
tp979
a(S'w'
I7
tp980
a(S'p1_tl'
I125
tp981
a(S'w'
I726
tp982
a(S'w'
I8
tp983
a(S'w'
I726
tp984
a(S'p2_tl'
I124
tp985
a(S'w'
I8
tp986
a(S'p1_tl'
I120
tp987
a(S'w'
I726
tp988
a(S'p2_tl'
I118
tp989
a(S'w'
I8
tp990
a(S'p1_tl'
I114
tp991
a(S'w'
I726
tp992
a(S'p2_tl'
I115
tp993
a(S'w'
I8
tp994
a(S'p1_tl'
I111
tp995
a(S'w'
I726
tp996
a(S'p2_tl'
I113
tp997
a(S'w'
I7
tp998
a(S'p1_tl'
I109
tp999
a(S'w'
I727
tp1000
a(S'p2_tl'
I115
tp1001
a(S'w'
I7
tp1002
a(S'p1_tl'
I111
tp1003
a(S'w'
I726
tp1004
a(S'p2_tl'
I118
tp1005
a(S'w'
I8
tp1006
a(S'p1_tl'
I114
tp1007
a(S'w'
I727
tp1008
a(S'p2_tl'
I124
tp1009
a(S'w'
I7
tp1010
a(S'p1_tl'
I120
tp1011
a(S'w'
I726
tp1012
a(S'p2_tl'
I127
tp1013
a(S'w'
I7
tp1014
a(S'p1_tl'
I123
tp1015
a(S'w'
I727
tp1016
a(S'p2_tl'
I129
tp1017
a(S'w'
I7
tp1018
a(S'p1_tl'
I125
tp1019
a(S'w'
I726
tp1020
a(S'w'
I8
tp1021
a(S'w'
I726
tp1022
a(S'p2_tl'
I124
tp1023
a(S'w'
I8
tp1024
a(S'p1_tl'
I120
tp1025
a(S'w'
I726
tp1026
a(S'p2_tl'
I118
tp1027
a(S'w'
I8
tp1028
a(S'p1_tl'
I114
tp1029
a(S'w'
I726
tp1030
a(S'p2_tl'
I115
tp1031
a(S'w'
I8
tp1032
a(S'p1_tl'
I111
tp1033
a(S'w'
I726
tp1034
a(S'p2_tl'
I113
tp1035
a(S'w'
I7
tp1036
a(S'p1_tl'
I109
tp1037
a(S'w'
I727
tp1038
a(S'p2_tl'
I115
tp1039
a(S'w'
I7
tp1040
a(S'p1_tl'
I111
tp1041
a(S'w'
I726
tp1042
a(S'p2_tl'
I118
tp1043
a(S'w'
I8
tp1044
a(S'p1_tl'
I114
tp1045
a(S'w'
I727
tp1046
a(S'p2_tl'
I124
tp1047
a(S'w'
I8
tp1048
a(S'p1_tl'
I120
tp1049
a(S'w'
I725
tp1050
a(S'p2_tl'
I127
tp1051
a(S'w'
I7
tp1052
a(S'p1_tl'
I123
tp1053
a(S'w'
I727
tp1054
a(S'p2_tl'
I129
tp1055
a(S'w'
I7
tp1056
a(S'p1_tl'
I125
tp1057
a(S'w'
I726
tp1058
a(S'w'
I8
tp1059
a(S'w'
I726
tp1060
a(S'p2_tl'
I124
tp1061
a(S'w'
I8
tp1062
a(S'p1_tl'
I120
tp1063
a(S'w'
I726
tp1064
a(S'p2_tl'
I118
tp1065
a(S'w'
I8
tp1066
a(S'p1_tl'
I114
tp1067
a(S'w'
I726
tp1068
a(S'p2_tl'
I115
tp1069
a(S'w'
I8
tp1070
a(S'p1_tl'
I111
tp1071
a(S'w'
I726
tp1072
a(S'p2_tl'
I113
tp1073
a(S'w'
I8
tp1074
a(S'p1_tl'
I109
tp1075
a(S'w'
I726
tp1076
a(S'p2_tl'
I115
tp1077
a(S'w'
I7
tp1078
a(S'p1_tl'
I111
tp1079
a(S'w'
I726
tp1080
a(S'p2_tl'
I118
tp1081
a(S'w'
I8
tp1082
a(S'p1_tl'
I114
tp1083
a(S'w'
I727
tp1084
a(S'p2_tl'
I124
tp1085
a(S'w'
I8
tp1086
a(S'p1_tl'
I120
tp1087
a(S'w'
I725
tp1088
a(S'p2_tl'
I127
tp1089
a(S'w'
I7
tp1090
a(S'p1_tl'
I123
tp1091
a(S'w'
I727
tp1092
a(S'p2_tl'
I129
tp1093
a(S'w'
I7
tp1094
a(S'p1_tl'
I125
tp1095
a(S'w'
I726
tp1096
a(S'w'
I8
tp1097
a(S'w'
I726
tp1098
a(S'p2_tl'
I124
tp1099
a(S'w'
I8
tp1100
a(S'p1_tl'
I120
tp1101
a(S'w'
I726
tp1102
a(S'p2_tl'
I118
tp1103
a(S'w'
I8
tp1104
a(S'p1_tl'
I114
tp1105
a(S'w'
I726
tp1106
a(S'p2_tl'
I115
tp1107
a(S'w'
I8
tp1108
a(S'p1_tl'
I111
tp1109
a(S'w'
I726
tp1110
a(S'p2_tl'
I113
tp1111
a(S'w'
I8
tp1112
a(S'p1_tl'
I109
tp1113
a(S'w'
I726
tp1114
a(S'p2_tl'
I115
tp1115
a(S'w'
I7
tp1116
a(S'p1_tl'
I111
tp1117
a(S'w'
I726
tp1118
a(S'p2_tl'
I118
tp1119
a(S'w'
I8
tp1120
a(S'p1_tl'
I114
tp1121
a(S'w'
I727
tp1122
a(S'p2_tl'
I124
tp1123
a(S'w'
I8
tp1124
a(S'p1_tl'
I120
tp1125
a(S'w'
I725
tp1126
a(S'p2_tl'
I127
tp1127
a(S'w'
I7
tp1128
a(S'p1_tl'
I123
tp1129
a(S'w'
I727
tp1130
a(S'p2_tl'
I129
tp1131
a(S'w'
I7
tp1132
a(S'p1_tl'
I125
tp1133
a(S'w'
I726
tp1134
a(S'w'
I8
tp1135
a(S'w'
I726
tp1136
a(S'p2_tl'
I124
tp1137
a(S'w'
I8
tp1138
a(S'p1_tl'
I120
tp1139
a(S'w'
I726
tp1140
a(S'p2_tl'
I118
tp1141
a(S'w'
I8
tp1142
a(S'p1_tl'
I114
tp1143
a(S'w'
I726
tp1144
a(S'p2_tl'
I115
tp1145
a(S'w'
I8
tp1146
a(S'p1_tl'
I111
tp1147
a(S'w'
I726
tp1148
a(S'p2_tl'
I113
tp1149
a(S'w'
I8
tp1150
a(S'p1_tl'
I109
tp1151
a(S'w'
I726
tp1152
a(S'p2_tl'
I115
tp1153
a(S'w'
I7
tp1154
a(S'p1_tl'
I111
tp1155
a(S'w'
I726
tp1156
a(S'p2_tl'
I118
tp1157
a(S'w'
I8
tp1158
a(S'p1_tl'
I114
tp1159
a(S'w'
I727
tp1160
a(S'p2_tl'
I124
tp1161
a(S'w'
I8
tp1162
a(S'p1_tl'
I120
tp1163
a(S'w'
I725
tp1164
a(S'p2_tl'
I127
tp1165
a(S'w'
I7
tp1166
a(S'p1_tl'
I123
tp1167
a(S'w'
I727
tp1168
a(S'p2_tl'
I129
tp1169
a(S'w'
I7
tp1170
a(S'p1_tl'
I125
tp1171
a(S'w'
I726
tp1172
a(S'w'
I8
tp1173
a(S'w'
I729
tp1174
a(S'p2_ll'
I1
tp1175
a(S'p2_tl'
I121
tp1176
a(S'w'
I7
tp1177
a(S'p1_tl'
I120
tp1178
a(S'w'
I726
tp1179
a(S'w'
I7
tp1180
a(S'p1_tl'
I114
tp1181
a(S'w'
I724
tp1182
a(S'w'
I8
tp1183
a(S'p1_tl'
I111
tp1184
a(S'w'
I726
tp1185
a(S'w'
I7
tp1186
a(S'p1_tl'
I109
tp1187
a(S'w'
I727
tp1188
a(S'w'
I7
tp1189
a(S'p1_tl'
I111
tp1190
a(S'w'
I726
tp1191
a(S'w'
I8
tp1192
a(S'p1_tl'
I114
tp1193
a(S'w'
I726
tp1194
a(S'w'
I8
tp1195
a(S'p1_tl'
I120
tp1196
a(S'w'
I726
tp1197
a(S'w'
I7
tp1198
a(S'p1_tl'
I123
tp1199
a(S'w'
I727
tp1200
a(S'w'
I7
tp1201
a(S'p1_tl'
I125
tp1202
a(S'w'
I727
tp1203
a(S'w'
I7
tp1204
a(S'w'
I726
tp1205
a(S'w'
I8
tp1206
a(S'p1_tl'
I120
tp1207
a(S'w'
I726
tp1208
a(S'w'
I8
tp1209
a(S'p1_tl'
I114
tp1210
a(S'w'
I726
tp1211
a(S'w'
I8
tp1212
a(S'p1_tl'
I111
tp1213
a(S'w'
I726
tp1214
a(S'w'
I7
tp1215
a(S'p1_tl'
I109
tp1216
a(S'w'
I727
tp1217
a(S'w'
I7
tp1218
a(S'p1_tl'
I111
tp1219
a(S'w'
I726
tp1220
a(S'w'
I8
tp1221
a(S'p1_tl'
I114
tp1222
a(S'w'
I726
tp1223
a(S'w'
I8
tp1224
a(S'p1_tl'
I120
tp1225
a(S'w'
I726
tp1226
a(S'w'
I7
tp1227
a(S'p1_tl'
I123
tp1228
a(S'w'
I727
tp1229
a(S'w'
I7
tp1230
a(S'p1_tl'
I125
tp1231
a(S'w'
I727
tp1232
a(S'w'
I7
tp1233
a(S'w'
I726
tp1234
a(S'w'
I8
tp1235
a(S'p1_tl'
I120
tp1236
a(S'w'
I726
tp1237
a(S'w'
I8
tp1238
a(S'p1_tl'
I114
tp1239
a(S'w'
I726
tp1240
a(S'w'
I8
tp1241
a(S'p1_tl'
I111
tp1242
a(S'w'
I726
tp1243
a(S'w'
I7
tp1244
a(S'p1_tl'
I109
tp1245
a(S'w'
I727
tp1246
a(S'w'
I7
tp1247
a(S'p1_tl'
I111
tp1248
a(S'w'
I726
tp1249
a(S'w'
I8
tp1250
a(S'p1_tl'
I114
tp1251
a(S'w'
I727
tp1252
a.