(lp1
(S'clock'
p2
I1789772
tp3
a(S'ch_no'
I1
tp4
a(S'ch_tr'
I1
tp5
a(S'ch_p2'
I1
tp6
a(S'ch_p1'
I1
tp7
a(S'fc_mo'
I1
tp8
a(S'w'
I2
tp9
a(S'ch_no'
I1
tp10
a(S'ch_tr'
I1
tp11
a(S'ch_p2'
I1
tp12
a(S'ch_p1'
I1
tp13
a(S'w'
I14
tp14
a(S'no_lh'
I1
tp15
a(S'no_cv'
I1
tp16
a(S'no_vo'
I9
tp17
a(S'w'
I1
tp18
a(S'no_ll'
I1
tp19
a(S'no_np'
I2
tp20
a(S'w'
I11
tp21
a(S'tr_lh'
I1
tp22
a(S'tr_lr'
I127
tp23
a(S'w'
I1
tp24
a(S'tr_ll'
I1
tp25
a(S'tr_th'
I1
tp26
a(S'tr_tl'
I83
tp27
a(S'w'
I11
tp28
a(S'p2_cv'
I1
tp29
a(S'w'
I11
tp30
a(S'p1_lh'
I1
tp31
a(S'p1_cv'
I1
tp32
a(S'p1_vo'
I9
tp33
a(S'w'
I12
tp34
a(S'p1_se'
I1
tp35
a(S'p1_sn'
I1
tp36
a(S'p1_ll'
I1
tp37
a(S'p1_th'
I1
tp38
a(S'w'
I1
tp39
a(S'p1_tl'
I83
tp40
a(S'w'
I1390
tp41
a(S'no_lh'
I0
tp42
a(S'no_vo'
I8
tp43
a(S'w'
I1467
tp44
a(S'no_vo'
I7
tp45
a(S'w'
I742
tp46
a(S'p1_tl'
I84
tp47
a(S'w'
I726
tp48
a(S'no_vo'
I6
tp49
a(S'w'
I9
tp50
a(S'p1_tl'
I84
tp51
a(S'w'
I733
tp52
a(S'p1_tl'
I85
tp53
a(S'w'
I3
tp54
a(S'p1_vo'
I8
tp55
a(S'w'
I722
tp56
a(S'no_vo'
I5
tp57
a(S'w'
I10
tp58
a(S'p1_tl'
I85
tp59
a(S'w'
I732
tp60
a(S'p1_tl'
I84
tp61
a(S'w'
I726
tp62
a(S'no_vo'
I4
tp63
a(S'w'
I11
tp64
a(S'p2_lh'
I1
tp65
a(S'p2_vo'
I5
tp66
a(S'w'
I13
tp67
a(S'p2_se'
I1
tp68
a(S'p2_sn'
I1
tp69
a(S'p2_ll'
I1
tp70
a(S'p2_th'
I1
tp71
a(S'p2_tl'
I83
tp72
a(S'w'
I6
tp73
a(S'p1_tl'
I84
tp74
a(S'w'
I716
tp75
a(S'p1_tl'
I83
tp76
a(S'w'
I722
tp77
a(S'no_vo'
I3
tp78
a(S'w'
I14
tp79
a(S'p1_tl'
I83
tp80
a(S'w'
I3
tp81
a(S'p1_vo'
I7
tp82
a(S'w'
I730
tp83
a(S'p1_tl'
I82
tp84
a(S'w'
I720
tp85
a(S'no_vo'
I2
tp86
a(S'w'
I14
tp87
a(S'p1_tl'
I82
tp88
a(S'w'
I9
tp89
a(S'p1_ll'
I1
tp90
a(S'w'
I1
tp91
a(S'p1_tl'
I29
tp92
a(S'w'
I716
tp93
a(S'p2_tl'
I84
tp94
a(S'w'
I10
tp95
a(S'p1_vo'
I9
tp96
a(S'w'
I718
tp97
a(S'no_vo'
I1
tp98
a(S'w'
I7
tp99
a(S'p2_tl'
I84
tp100
a(S'w'
I733
tp101
a(S'p2_tl'
I85
tp102
a(S'w'
I727
tp103
a(S'no_vo'
I0
tp104
a(S'w'
I8
tp105
a(S'p2_tl'
I85
tp106
a(S'w'
I733
tp107
a(S'p2_tl'
I84
tp108
a(S'w'
I9
tp109
a(S'p1_tl'
I28
tp110
a(S'w'
I724
tp111
a(S'p2_tl'
I84
tp112
a(S'w'
I9
tp113
a(S'p1_tl'
I28
tp114
a(S'w'
I716
tp115
a(S'ch_no'
I1
tp116
a(S'ch_tr'
I1
tp117
a(S'ch_p2'
I1
tp118
a(S'ch_p1'
I1
tp119
a(S'ch_no'
I1
tp120
a(S'ch_tr'
I1
tp121
a(S'ch_p2'
I1
tp122
a(S'ch_p1'
I1
tp123
a(S'w'
I13
tp124
a(S'p2_tl'
I83
tp125
a(S'w'
I11
tp126
a(S'p1_tl'
I27
tp127
a(S'w'
I2
tp128
a(S'p1_vo'
I8
tp129
a(S'w'
I715
tp130
a(S'p2_tl'
I83
tp131
a(S'w'
I9
tp132
a(S'p1_tl'
I27
tp133
a(S'w'
I726
tp134
a(S'p2_tl'
I82
tp135
a(S'w'
I10
tp136
a(S'p1_tl'
I28
tp137
a(S'w'
I723
tp138
a(S'p2_tl'
I82
tp139
a(S'w'
I9
tp140
a(S'p2_ll'
I1
tp141
a(S'p2_tl'
I29
tp142
a(S'w'
I5
tp143
a(S'p1_tl'
I28
tp144
a(S'w'
I727
tp145
a(S'p1_tl'
I29
tp146
a(S'w'
I733
tp147
a(S'p1_tl'
I29
tp148
a(S'w'
I3
tp149
a(S'p1_vo'
I7
tp150
a(S'w'
I732
tp151
a(S'p1_tl'
I30
tp152
a(S'w'
I718
tp153
a(S'ch_no'
I1
tp154
a(S'ch_tr'
I1
tp155
a(S'ch_p2'
I1
tp156
a(S'ch_p1'
I1
tp157
a(S'ch_no'
I1
tp158
a(S'ch_tr'
I1
tp159
a(S'ch_p2'
I1
tp160
a(S'ch_p1'
I1
tp161
a(S'w'
I12
tp162
a(S'no_np'
I0
tp163
a(S'w'
I15
tp164
a(S'p1_tl'
I30
tp165
a(S'w'
I8
tp166
a(S'p1_ll'
I1
tp167
a(S'p1_th'
I0
tp168
a(S'w'
I1
tp169
a(S'p1_tl'
I254
tp170
a(S'w'
I706
tp171
a(S'p2_tl'
I28
tp172
a(S'w'
I10
tp173
a(S'p1_vo'
I9
tp174
a(S'w'
I723
tp175
a(S'p2_tl'
I28
tp176
a(S'w'
I735
tp177
a(S'p2_tl'
I27
tp178
a(S'w'
I732
tp179
a(S'p2_tl'
I27
tp180
a(S'w'
I735
tp181
a(S'p2_tl'
I28
tp182
a(S'w'
I10
tp183
a(S'p1_tl'
I253
tp184
a(S'w'
I723
tp185
a(S'p2_tl'
I28
tp186
a(S'w'
I9
tp187
a(S'p1_tl'
I253
tp188
a(S'w'
I718
tp189
a(S'ch_no'
I1
tp190
a(S'ch_tr'
I1
tp191
a(S'ch_p2'
I1
tp192
a(S'ch_p1'
I1
tp193
a(S'ch_no'
I1
tp194
a(S'ch_tr'
I1
tp195
a(S'ch_p2'
I1
tp196
a(S'ch_p1'
I1
tp197
a(S'w'
I12
tp198
a(S'p2_tl'
I29
tp199
a(S'w'
I11
tp200
a(S'p1_tl'
I254
tp201
a(S'w'
I3
tp202
a(S'p1_vo'
I8
tp203
a(S'w'
I5
tp204
a(S'p1_ll'
I1
tp205
a(S'p1_tl'
I226
tp206
a(S'w'
I709
tp207
a(S'p2_tl'
I29
tp208
a(S'w'
I10
tp209
a(S'p1_vo'
I9
tp210
a(S'w'
I725
tp211
a(S'p2_tl'
I30
tp212
a(S'w'
I733
tp213
a(S'p2_tl'
I30
tp214
a(S'w'
I9
tp215
a(S'p2_ll'
I1
tp216
a(S'p2_th'
I0
tp217
a(S'p2_tl'
I254
tp218
a(S'w'
I1466
tp219
a(S'p1_tl'
I226
tp220
a(S'w'
I734
tp221
a(S'p1_tl'
I225
tp222
a(S'w'
I720
tp223
a(S'ch_no'
I1
tp224
a(S'ch_tr'
I1
tp225
a(S'ch_p2'
I1
tp226
a(S'ch_p1'
I1
tp227
a(S'ch_no'
I1
tp228
a(S'ch_tr'
I1
tp229
a(S'ch_p2'
I1
tp230
a(S'ch_p1'
I1
tp231
a(S'w'
I18
tp232
a(S'p1_tl'
I225
tp233
a(S'w'
I3
tp234
a(S'p1_vo'
I8
tp235
a(S'w'
I721
tp236
a(S'p2_tl'
I253
tp237
a(S'w'
I10
tp238
a(S'p1_tl'
I224
tp239
a(S'w'
I722
tp240
a(S'p2_tl'
I253
tp241
a(S'w'
I9
tp242
a(S'p1_tl'
I224
tp243
a(S'w'
I726
tp244
a(S'p2_tl'
I254
tp245
a(S'w'
I9
tp246
a(S'p2_ll'
I1
tp247
a(S'p2_tl'
I226
tp248
a(S'w'
I7
tp249
a(S'p1_tl'
I225
tp250
a(S'w'
I722
tp251
a(S'p1_tl'
I225
tp252
a(S'w'
I736
tp253
a(S'p1_tl'
I226
tp254
a(S'w'
I3
tp255
a(S'p1_vo'
I7
tp256
a(S'w'
I730
tp257
a(S'p1_tl'
I226
tp258
a(S'w'
I735
tp259
a(S'p1_tl'
I227
tp260
a(S'w'
I726
tp261
a(S'p2_tl'
I226
tp262
a(S'w'
I8
tp263
a(S'p1_tl'
I227
tp264
a(S'w'
I727
tp265
a(S'p2_tl'
I225
tp266
a(S'w'
I10
tp267
a(S'p1_tl'
I228
tp268
a(S'w'
I722
tp269
a(S'p2_tl'
I225
tp270
a(S'w'
I9
tp271
a(S'p1_tl'
I228
tp272
a(S'w'
I724
tp273
a(S'tr_lh'
I0
tp274
a(S'tr_lr'
I0
tp275
a(S'w'
I7
tp276
a(S'p2_tl'
I224
tp277
a(S'w'
I10
tp278
a(S'p1_tl'
I227
tp279
a(S'w'
I717
tp280
a(S'p2_tl'
I224
tp281
a(S'w'
I8
tp282
a(S'p1_tl'
I227
tp283
a(S'w'
I727
tp284
a(S'p2_tl'
I225
tp285
a(S'w'
I10
tp286
a(S'p1_tl'
I226
tp287
a(S'w'
I717
tp288
a(S'ch_no'
I1
tp289
a(S'ch_tr'
I1
tp290
a(S'ch_p2'
I1
tp291
a(S'ch_p1'
I1
tp292
a(S'ch_no'
I1
tp293
a(S'ch_tr'
I1
tp294
a(S'ch_p2'
I1
tp295
a(S'ch_p1'
I1
tp296
a(S'w'
I14
tp297
a(S'no_lh'
I1
tp298
a(S'no_vo'
I9
tp299
a(S'w'
I1
tp300
a(S'no_ll'
I1
tp301
a(S'no_np'
I2
tp302
a(S'w'
I9
tp303
a(S'tr_lh'
I1
tp304
a(S'tr_lr'
I127
tp305
a(S'tr_ll'
I1
tp306
a(S'w'
I1
tp307
a(S'tr_tl'
I171
tp308
a(S'w'
I5
tp309
a(S'p2_tl'
I225
tp310
a(S'w'
I8
tp311
a(S'p1_tl'
I226
tp312
a(S'w'
I12
tp313
a(S'p1_ll'
I1
tp314
a(S'p1_tl'
I169
tp315
a(S'w'
I693
tp316
a(S'p2_tl'
I226
tp317
a(S'w'
I10
tp318
a(S'p1_vo'
I9
tp319
a(S'w'
I717
tp320
a(S'no_lh'
I0
tp321
a(S'no_vo'
I8
tp322
a(S'w'
I8
tp323
a(S'p2_tl'
I226
tp324
a(S'w'
I733
tp325
a(S'p2_tl'
I227
tp326
a(S'w'
I727
tp327
a(S'no_vo'
I7
tp328
a(S'w'
I7
tp329
a(S'p2_tl'
I227
tp330
a(S'w'
I733
tp331
a(S'p2_tl'
I228
tp332
a(S'w'
I10
tp333
a(S'p1_tl'
I168
tp334
a(S'w'
I718
tp335
a(S'no_vo'
I6
tp336
a(S'w'
I7
tp337
a(S'p2_tl'
I228
tp338
a(S'w'
I9
tp339
a(S'p1_tl'
I168
tp340
a(S'w'
I724
tp341
a(S'no_np'
I0
tp342
a(S'no_vo'
I0
tp343
a(S'w'
I7
tp344
a(S'tr_lh'
I0
tp345
a(S'tr_lr'
I0
tp346
a(S'w'
I6
tp347
a(S'p2_tl'
I227
tp348
a(S'w'
I10
tp349
a(S'p1_tl'
I167
tp350
a(S'w'
I3
tp351
a(S'p1_vo'
I8
tp352
a(S'w'
I7
tp353
a(S'p1_se'
I0
tp354
a(S'p1_sn'
I0
tp355
a(S'p1_tl'
I0
tp356
a(S'p1_lh'
I0
tp357
a(S'p1_vo'
I0
tp358
a(S'w'
I697
tp359
a(S'p2_tl'
I227
tp360
a(S'w'
I735
tp361
a(S'p2_tl'
I226
tp362
a(S'w'
I732
tp363
a(S'p2_tl'
I226
tp364
a(S'w'
I14
tp365
a(S'p2_se'
I0
tp366
a(S'p2_sn'
I0
tp367
a(S'p2_tl'
I0
tp368
a(S'p2_lh'
I0
tp369
a(S'p2_vo'
I0
tp370
a(S'w'
I8053
tp371
a(S'ch_no'
I1
tp372
a(S'ch_tr'
I1
tp373
a(S'ch_p2'
I1
tp374
a(S'ch_p1'
I1
tp375
a(S'ch_no'
I1
tp376
a(S'ch_tr'
I1
tp377
a(S'ch_p2'
I1
tp378
a(S'ch_p1'
I1
tp379
a(S'w'
I14
tp380
a(S'no_lh'
I1
tp381
a(S'no_vo'
I9
tp382
a(S'w'
I1
tp383
a(S'no_ll'
I1
tp384
a(S'no_np'
I2
tp385
a(S'w'
I9
tp386
a(S'tr_lh'
I1
tp387
a(S'tr_lr'
I127
tp388
a(S'tr_ll'
I1
tp389
a(S'w'
I9
tp390
a(S'p2_lh'
I1
tp391
a(S'p2_vo'
I9
tp392
a(S'w'
I5
tp393
a(S'p2_se'
I1
tp394
a(S'p2_sn'
I1
tp395
a(S'p2_ll'
I1
tp396
a(S'p2_tl'
I226
tp397
a(S'w'
I9
tp398
a(S'p1_lh'
I1
tp399
a(S'p1_vo'
I9
tp400
a(S'w'
I5
tp401
a(S'p1_se'
I1
tp402
a(S'p1_sn'
I1
tp403
a(S'p1_ll'
I1
tp404
a(S'p1_tl'
I169
tp405
a(S'w'
I1418
tp406
a(S'no_lh'
I0
tp407
a(S'no_vo'
I8
tp408
a(S'w'
I1468
tp409
a(S'no_vo'
I7
tp410
a(S'w'
I740
tp411
a(S'p2_tl'
I225
tp412
a(S'w'
I8
tp413
a(S'p1_tl'
I169
tp414
a(S'w'
I720
tp415
a(S'no_vo'
I6
tp416
a(S'w'
I7
tp417
a(S'p2_tl'
I225
tp418
a(S'w'
I9
tp419
a(S'p1_tl'
I170
tp420
a(S'w'
I724
tp421
a(S'p2_tl'
I224
tp422
a(S'w'
I3
tp423
a(S'p2_vo'
I8
tp424
a(S'w'
I5
tp425
a(S'p1_tl'
I170
tp426
a(S'w'
I2
tp427
a(S'p1_vo'
I8
tp428
a(S'w'
I717
tp429
a(S'no_vo'
I5
tp430
a(S'w'
I7
tp431
a(S'p2_tl'
I224
tp432
a(S'w'
I9
tp433
a(S'p1_tl'
I171
tp434
a(S'w'
I724
tp435
a(S'p2_tl'
I225
tp436
a(S'w'
I8
tp437
a(S'p1_tl'
I171
tp438
a(S'w'
I720
tp439
a(S'no_vo'
I4
tp440
a(S'w'
I7
tp441
a(S'p2_tl'
I225
tp442
a(S'w'
I9
tp443
a(S'p1_tl'
I170
tp444
a(S'w'
I724
tp445
a(S'p2_tl'
I226
tp446
a(S'w'
I7
tp447
a(S'p1_tl'
I170
tp448
a(S'w'
I720
tp449
a(S'no_vo'
I3
tp450
a(S'w'
I8
tp451
a(S'p2_tl'
I226
tp452
a(S'w'
I3
tp453
a(S'p2_vo'
I7
tp454
a(S'w'
I5
tp455
a(S'p1_tl'
I169
tp456
a(S'w'
I3
tp457
a(S'p1_vo'
I7
tp458
a(S'w'
I721
tp459
a(S'p2_tl'
I227
tp460
a(S'w'
I9
tp461
a(S'p1_tl'
I169
tp462
a(S'w'
I719
tp463
a(S'no_vo'
I2
tp464
a(S'w'
I7
tp465
a(S'p2_tl'
I227
tp466
a(S'w'
I10
tp467
a(S'p1_tl'
I168
tp468
a(S'w'
I723
tp469
a(S'p2_tl'
I228
tp470
a(S'w'
I9
tp471
a(S'p1_tl'
I168
tp472
a(S'w'
I718
tp473
a(S'no_vo'
I1
tp474
a(S'w'
I8
tp475
a(S'p2_tl'
I228
tp476
a(S'w'
I10
tp477
a(S'p1_tl'
I167
tp478
a(S'w'
I723
tp479
a(S'p2_tl'
I227
tp480
a(S'w'
I8
tp481
a(S'p1_tl'
I167
tp482
a(S'w'
I719
tp483
a(S'no_vo'
I0
tp484
a(S'w'
I8
tp485
a(S'p2_tl'
I227
tp486
a(S'w'
I9
tp487
a(S'p1_tl'
I168
tp488
a(S'w'
I723
tp489
a(S'p2_tl'
I226
tp490
a(S'w'
I9
tp491
a(S'p1_tl'
I168
tp492
a(S'w'
I725
tp493
a(S'p2_tl'
I226
tp494
a(S'w'
I9
tp495
a(S'p1_tl'
I169
tp496
a(S'w'
I724
tp497
a(S'p2_tl'
I225
tp498
a(S'w'
I9
tp499
a(S'p1_tl'
I169
tp500
a(S'w'
I724
tp501
a(S'p2_tl'
I225
tp502
a(S'w'
I9
tp503
a(S'p1_tl'
I170
tp504
a(S'w'
I726
tp505
a(S'p2_tl'
I224
tp506
a(S'w'
I9
tp507
a(S'p1_tl'
I170
tp508
a(S'w'
I724
tp509
a(S'p2_tl'
I224
tp510
a(S'w'
I9
tp511
a(S'p1_tl'
I171
tp512
a(S'w'
I725
tp513
a(S'p2_tl'
I225
tp514
a(S'w'
I9
tp515
a(S'p1_tl'
I171
tp516
a(S'w'
I724
tp517
a(S'p2_tl'
I225
tp518
a(S'w'
I10
tp519
a(S'p1_tl'
I170
tp520
a(S'w'
I725
tp521
a(S'p2_tl'
I226
tp522
a(S'w'
I8
tp523
a(S'p1_tl'
I170
tp524
a(S'w'
I713
tp525
a(S'ch_no'
I1
tp526
a(S'ch_tr'
I1
tp527
a(S'ch_p2'
I1
tp528
a(S'ch_p1'
I1
tp529
a(S'w'
I744
tp530
a(S'no_np'
I0
tp531
a(S'w'
I8
tp532
a(S'p2_tl'
I226
tp533
a(S'w'
I10
tp534
a(S'p1_tl'
I169
tp535
a(S'w'
I717
tp536
a(S'p2_tl'
I227
tp537
a(S'w'
I9
tp538
a(S'p1_tl'
I169
tp539
a(S'w'
I724
tp540
a(S'p2_tl'
I227
tp541
a(S'w'
I10
tp542
a(S'p1_tl'
I168
tp543
a(S'w'
I725
tp544
a(S'p2_tl'
I228
tp545
a(S'w'
I9
tp546
a(S'p1_tl'
I168
tp547
a(S'w'
I723
tp548
a(S'p2_tl'
I228
tp549
a(S'w'
I11
tp550
a(S'p1_tl'
I167
tp551
a(S'w'
I725
tp552
a(S'p2_tl'
I227
tp553
a(S'w'
I8
tp554
a(S'p1_tl'
I167
tp555
a(S'w'
I724
tp556
a(S'p2_tl'
I227
tp557
a(S'w'
I10
tp558
a(S'p1_tl'
I168
tp559
a(S'w'
I725
tp560
a(S'p2_tl'
I226
tp561
a(S'w'
I9
tp562
a(S'p1_tl'
I168
tp563
a(S'w'
I724
tp564
a(S'p2_tl'
I226
tp565
a(S'w'
I9
tp566
a(S'p1_tl'
I169
tp567
a(S'w'
I726
tp568
a(S'p2_tl'
I225
tp569
a(S'w'
I8
tp570
a(S'p1_tl'
I169
tp571
a(S'w'
I724
tp572
a(S'p2_tl'
I225
tp573
a(S'w'
I10
tp574
a(S'p1_tl'
I170
tp575
a(S'w'
I726
tp576
a(S'p2_tl'
I224
tp577
a(S'w'
I8
tp578
a(S'p1_tl'
I170
tp579
a(S'w'
I724
tp580
a(S'p2_tl'
I224
tp581
a(S'w'
I10
tp582
a(S'p1_tl'
I171
tp583
a(S'w'
I725
tp584
a(S'p2_tl'
I225
tp585
a(S'w'
I8
tp586
a(S'p1_tl'
I171
tp587
a(S'w'
I725
tp588
a(S'p2_tl'
I225
tp589
a(S'w'
I10
tp590
a(S'p2_vo'
I1
tp591
a(S'w'
I5
tp592
a(S'p2_ll'
I1
tp593
a(S'p2_tl'
I226
tp594
a(S'w'
I7
tp595
a(S'p1_tl'
I170
tp596
a(S'w'
I10
tp597
a(S'p1_vo'
I1
tp598
a(S'w'
I5
tp599
a(S'p1_ll'
I1
tp600
a(S'p1_tl'
I169
tp601
a(S'w'
I1431
tp602
a(S'p2_vo'
I6
tp603
a(S'w'
I6
tp604
a(S'p1_vo'
I6
tp605
a(S'w'
I728
tp606
a(S'p2_vo'
I5
tp607
a(S'w'
I6
tp608
a(S'p1_vo'
I5
tp609
a(S'w'
I1462
tp610
a(S'p2_tl'
I227
tp611
a(S'w'
I3
tp612
a(S'p2_vo'
I4
tp613
a(S'w'
I4
tp614
a(S'p1_tl'
I169
tp615
a(S'w'
I3
tp616
a(S'p1_vo'
I4
tp617
a(S'w'
I722
tp618
a(S'p2_tl'
I227
tp619
a(S'w'
I10
tp620
a(S'p1_tl'
I168
tp621
a(S'w'
I725
tp622
a(S'p2_tl'
I228
tp623
a(S'w'
I9
tp624
a(S'p1_tl'
I168
tp625
a(S'w'
I724
tp626
a(S'p2_tl'
I228
tp627
a(S'w'
I10
tp628
a(S'p1_tl'
I167
tp629
a(S'w'
I723
tp630
a(S'tr_lh'
I0
tp631
a(S'tr_lr'
I0
tp632
a(S'w'
I6
tp633
a(S'p2_tl'
I227
tp634
a(S'w'
I9
tp635
a(S'p1_tl'
I167
tp636
a(S'w'
I719
tp637
a(S'p2_tl'
I227
tp638
a(S'w'
I9
tp639
a(S'p1_tl'
I168
tp640
a(S'w'
I726
tp641
a(S'p2_tl'
I226
tp642
a(S'w'
I8
tp643
a(S'p1_tl'
I168
tp644
a(S'w'
I724
tp645
a(S'p2_tl'
I226
tp646
a(S'w'
I10
tp647
a(S'p1_tl'
I169
tp648
a(S'w'
I725
tp649
a(S'p2_tl'
I225
tp650
a(S'w'
I9
tp651
a(S'p1_tl'
I169
tp652
a(S'w'
I726
tp653
a(S'no_lh'
I1
tp654
a(S'w'
I1
tp655
a(S'no_ll'
I1
tp656
a(S'no_nl'
I1
tp657
a(S'no_np'
I14
tp658
a(S'w'
I10
tp659
a(S'p2_tl'
I225
tp660
a(S'w'
I13
tp661
a(S'p2_du'
I2
tp662
a(S'p2_vo'
I0
tp663
a(S'w'
I1
tp664
a(S'p2_ll'
I1
tp665
a(S'p2_th'
I6
tp666
a(S'p2_tl'
I174
tp667
a(S'w'
I6
tp668
a(S'p1_tl'
I170
tp669
a(S'w'
I13
tp670
a(S'p1_du'
I2
tp671
a(S'p1_vo'
I0
tp672
a(S'w'
I1
tp673
a(S'p1_ll'
I1
tp674
a(S'p1_th'
I6
tp675
a(S'p1_tl'
I174
tp676
a(S'w'
I684
tp677
a(S'no_nl'
I0
tp678
a(S'no_np'
I0
tp679
a(S'no_lh'
I0
tp680
a(S'w'
I8
tp681
a(S'p2_se'
I0
tp682
a(S'p2_sn'
I0
tp683
a(S'p2_tl'
I0
tp684
a(S'p2_du'
I0
tp685
a(S'p2_lh'
I0
tp686
a(S'w'
I6
tp687
a(S'p1_se'
I0
tp688
a(S'p1_sn'
I0
tp689
a(S'p1_tl'
I0
tp690
a(S'p1_du'
I0
tp691
a(S'p1_lh'
I0
tp692
a(S'w'
I1
tp693
a.