(lp1
(S'clock'
p2
I1789772
tp3
a(S'ch_no'
I1
tp4
a(S'ch_tr'
I1
tp5
a(S'ch_p2'
I1
tp6
a(S'ch_p1'
I1
tp7
a(S'fc_mo'
I1
tp8
a(S'w'
I29
tp9
a(S'p1_cv'
I1
tp10
a(S'w'
I1
tp11
a(S'p2_cv'
I1
tp12
a(S'w'
I1
tp13
a(S'w'
I1
tp14
a(S'w'
I707
tp15
a(S'p1_du'
I2
tp16
a(S'p1_cv'
I0
tp17
a(S'p1_vo'
I1
tp18
a(S'w'
I1
tp19
a(S'p1_sp'
I7
tp20
a(S'p1_sn'
I1
tp21
a(S'p1_ss'
I7
tp22
a(S'p1_tl'
I213
tp23
a(S'w'
I1
tp24
a(S'p1_ll'
I8
tp25
a(S'w'
I3
tp26
a(S'tr_lr'
I16
tp27
a(S'w'
I1
tp28
a(S'tr_tl'
I171
tp29
a(S'tr_ll'
I1
tp30
a(S'tr_th'
I1
tp31
a(S'w'
I3
tp32
a(S'p2_du'
I2
tp33
a(S'p2_cv'
I0
tp34
a(S'p2_vo'
I1
tp35
a(S'w'
I1
tp36
a(S'p2_sp'
I7
tp37
a(S'p2_sn'
I1
tp38
a(S'p2_ss'
I7
tp39
a(S'p2_tl'
I59
tp40
a(S'w'
I1
tp41
a(S'p2_ll'
I8
tp42
a(S'p2_th'
I2
tp43
a(S'w'
I5861
tp44
a(S'p1_tl'
I190
tp45
a(S'w'
I1
tp46
a(S'p1_ll'
I8
tp47
a(S'w'
I5869
tp48
a(S'p1_tl'
I179
tp49
a(S'w'
I1
tp50
a(S'p1_ll'
I8
tp51
a(S'w'
I5869
tp52
a(S'p1_tl'
I213
tp53
a(S'w'
I1
tp54
a(S'p1_ll'
I8
tp55
a(S'w'
I4
tp56
a(S'tr_ll'
I1
tp57
a(S'w'
I4
tp58
a(S'w'
I1
tp59
a(S'p2_ll'
I8
tp60
a(S'w'
I5861
tp61
a(S'p1_tl'
I190
tp62
a(S'w'
I1
tp63
a(S'p1_ll'
I8
tp64
a(S'w'
I4
tp65
a(S'tr_ll'
I1
tp66
a(S'w'
I4
tp67
a(S'w'
I1
tp68
a(S'p2_ll'
I8
tp69
a(S'w'
I5860
tp70
a(S'p1_tl'
I179
tp71
a(S'w'
I1
tp72
a(S'p1_ll'
I8
tp73
a(S'w'
I4
tp74
a(S'tr_ll'
I1
tp75
a(S'w'
I4
tp76
a(S'w'
I1
tp77
a(S'p2_ll'
I8
tp78
a(S'w'
I5860
tp79
a(S'w'
I1
tp80
a(S'p1_ll'
I8
tp81
a(S'w'
I4
tp82
a(S'tr_tl'
I103
tp83
a(S'tr_ll'
I1
tp84
a(S'w'
I4
tp85
a(S'p2_tl'
I224
tp86
a(S'w'
I1
tp87
a(S'p2_ll'
I8
tp88
a(S'p2_th'
I1
tp89
a(S'w'
I5861
tp90
a(S'p1_tl'
I160
tp91
a(S'w'
I1
tp92
a(S'p1_ll'
I8
tp93
a(S'w'
I5869
tp94
a(S'p1_tl'
I142
tp95
a(S'w'
I1
tp96
a(S'p1_ll'
I8
tp97
a(S'w'
I5869
tp98
a(S'p1_tl'
I179
tp99
a(S'w'
I1
tp100
a(S'p1_ll'
I8
tp101
a(S'w'
I4
tp102
a(S'tr_ll'
I1
tp103
a(S'w'
I4
tp104
a(S'w'
I1
tp105
a(S'p2_ll'
I8
tp106
a(S'w'
I5861
tp107
a(S'p1_tl'
I160
tp108
a(S'w'
I1
tp109
a(S'p1_ll'
I8
tp110
a(S'w'
I4
tp111
a(S'tr_ll'
I1
tp112
a(S'w'
I4
tp113
a(S'w'
I1
tp114
a(S'p2_ll'
I8
tp115
a(S'w'
I5860
tp116
a(S'p1_tl'
I142
tp117
a(S'w'
I1
tp118
a(S'p1_ll'
I8
tp119
a(S'w'
I4
tp120
a(S'tr_ll'
I1
tp121
a(S'w'
I4
tp122
a(S'w'
I1
tp123
a(S'p2_ll'
I8
tp124
a(S'w'
I5860
tp125
a(S'p1_tl'
I160
tp126
a(S'w'
I1
tp127
a(S'p1_ll'
I8
tp128
a(S'w'
I4
tp129
a(S'tr_tl'
I64
tp130
a(S'tr_ll'
I1
tp131
a(S'w'
I4
tp132
a(S'p2_tl'
I171
tp133
a(S'w'
I1
tp134
a(S'p2_ll'
I8
tp135
a(S'w'
I5861
tp136
a(S'p1_tl'
I142
tp137
a(S'w'
I1
tp138
a(S'p1_ll'
I8
tp139
a(S'w'
I5869
tp140
a(S'p1_tl'
I127
tp141
a(S'w'
I1
tp142
a(S'p1_ll'
I8
tp143
a(S'w'
I5869
tp144
a(S'p1_tl'
I160
tp145
a(S'w'
I1
tp146
a(S'p1_ll'
I8
tp147
a(S'w'
I4
tp148
a(S'tr_ll'
I1
tp149
a(S'w'
I4
tp150
a(S'w'
I1
tp151
a(S'p2_ll'
I8
tp152
a(S'w'
I5861
tp153
a(S'p1_tl'
I142
tp154
a(S'w'
I1
tp155
a(S'p1_ll'
I8
tp156
a(S'w'
I4
tp157
a(S'tr_ll'
I1
tp158
a(S'w'
I4
tp159
a(S'w'
I1
tp160
a(S'p2_ll'
I8
tp161
a(S'w'
I5860
tp162
a(S'p1_tl'
I127
tp163
a(S'w'
I1
tp164
a(S'p1_ll'
I8
tp165
a(S'w'
I4
tp166
a(S'tr_ll'
I1
tp167
a(S'w'
I4
tp168
a(S'w'
I1
tp169
a(S'p2_ll'
I8
tp170
a(S'w'
I5860
tp171
a(S'p1_tl'
I134
tp172
a(S'w'
I1
tp173
a(S'p1_ll'
I8
tp174
a(S'w'
I4
tp175
a(S'tr_tl'
I13
tp176
a(S'tr_ll'
I1
tp177
a(S'w'
I4
tp178
a(S'p2_tl'
I103
tp179
a(S'w'
I1
tp180
a(S'p2_ll'
I8
tp181
a(S'w'
I5861
tp182
a(S'p1_tl'
I120
tp183
a(S'w'
I1
tp184
a(S'p1_ll'
I8
tp185
a(S'w'
I4
tp186
a(S'tr_ll'
I1
tp187
a(S'w'
I4
tp188
a(S'w'
I1
tp189
a(S'p2_ll'
I8
tp190
a(S'w'
I5860
tp191
a(S'p1_tl'
I106
tp192
a(S'w'
I1
tp193
a(S'p1_ll'
I8
tp194
a(S'w'
I4
tp195
a(S'tr_ll'
I1
tp196
a(S'w'
I4
tp197
a(S'w'
I1
tp198
a(S'p2_ll'
I8
tp199
a(S'w'
I5860
tp200
a(S'p1_tl'
I134
tp201
a(S'w'
I1
tp202
a(S'p1_ll'
I8
tp203
a(S'w'
I4
tp204
a(S'tr_tl'
I240
tp205
a(S'tr_ll'
I1
tp206
a(S'tr_th'
I0
tp207
a(S'w'
I4
tp208
a(S'p2_tl'
I64
tp209
a(S'w'
I1
tp210
a(S'p2_ll'
I8
tp211
a(S'w'
I5861
tp212
a(S'p1_tl'
I120
tp213
a(S'w'
I1
tp214
a(S'p1_ll'
I8
tp215
a(S'w'
I4
tp216
a(S'tr_ll'
I1
tp217
a(S'w'
I4
tp218
a(S'w'
I1
tp219
a(S'p2_ll'
I8
tp220
a(S'w'
I5860
tp221
a(S'p1_tl'
I106
tp222
a(S'w'
I1
tp223
a(S'p1_ll'
I8
tp224
a(S'w'
I4
tp225
a(S'tr_ll'
I1
tp226
a(S'w'
I4
tp227
a(S'w'
I1
tp228
a(S'p2_ll'
I8
tp229
a(S'w'
I5860
tp230
a(S'w'
I1
tp231
a(S'p1_ll'
I8
tp232
a(S'w'
I4
tp233
a(S'tr_tl'
I29
tp234
a(S'tr_ll'
I1
tp235
a(S'tr_th'
I1
tp236
a(S'w'
I4
tp237
a(S'p2_tl'
I83
tp238
a(S'w'
I1
tp239
a(S'p2_ll'
I8
tp240
a(S'w'
I17601
tp241
a(S'w'
I1
tp242
a(S'p1_ll'
I8
tp243
a(S'w'
I4
tp244
a(S'tr_ll'
I1
tp245
a(S'w'
I4
tp246
a(S'w'
I1
tp247
a(S'p2_ll'
I8
tp248
a(S'w'
I5861
tp249
a(S'w'
I1
tp250
a(S'p1_ll'
I8
tp251
a(S'w'
I4
tp252
a(S'tr_ll'
I1
tp253
a(S'w'
I4
tp254
a(S'w'
I1
tp255
a(S'p2_ll'
I8
tp256
a(S'w'
I5860
tp257
a(S'w'
I1
tp258
a(S'p1_ll'
I8
tp259
a(S'w'
I4
tp260
a(S'tr_ll'
I1
tp261
a(S'w'
I4
tp262
a(S'w'
I1
tp263
a(S'p2_ll'
I8
tp264
a(S'w'
I5860
tp265
a(S'w'
I1
tp266
a(S'p1_ll'
I8
tp267
a(S'w'
I4
tp268
a(S'tr_ll'
I1
tp269
a(S'w'
I4
tp270
a(S'w'
I1
tp271
a(S'p2_ll'
I8
tp272
a(S'w'
I17623
tp273
a(S'p1_du'
I0
tp274
a(S'p1_cv'
I1
tp275
a(S'p1_vo'
I0
tp276
a(S'w'
I1
tp277
a(S'p2_du'
I0
tp278
a(S'p2_cv'
I1
tp279
a(S'p2_vo'
I0
tp280
a(S'w'
I1
tp281
a(S'tr_lr'
I0
tp282
a(S'w'
I33867
tp283
a.