(lp1
(S'clock'
p2
I1789773
tp3
a(S'ch_no'
I1
tp4
a(S'ch_tr'
I0
tp5
a(S'ch_p2'
I1
tp6
a(S'ch_p1'
I1
tp7
a(S'tr_lh'
I1
tp8
a(S'ch_no'
I1
tp9
a(S'ch_tr'
I1
tp10
a(S'ch_p2'
I1
tp11
a(S'ch_p1'
I1
tp12
a(S'p1_lh'
I1
tp13
a(S'p1_cv'
I1
tp14
a(S'p2_lh'
I1
tp15
a(S'p2_cv'
I1
tp16
a(S'no_lh'
I1
tp17
a(S'no_cv'
I1
tp18
a(S'p1_sp'
I7
tp19
a(S'p1_sn'
I1
tp20
a(S'p1_ss'
I7
tp21
a(S'p2_sp'
I7
tp22
a(S'p2_sn'
I1
tp23
a(S'p2_ss'
I7
tp24
a(S'ch_no'
I1
tp25
a(S'ch_tr'
I0
tp26
a(S'ch_p2'
I1
tp27
a(S'ch_p1'
I1
tp28
a(S'tr_lh'
I0
tp29
a(S'ch_no'
I1
tp30
a(S'ch_tr'
I1
tp31
a(S'ch_p2'
I1
tp32
a(S'ch_p1'
I1
tp33
a(S'w'
I19
tp34
a(S'p1_du'
I2
tp35
a(S'p1_vo'
I7
tp36
a(S'w'
I2
tp37
a(S'p1_du'
I0
tp38
a(S'p1_vo'
I0
tp39
a(S'w'
I26
tp40
a(S'p2_vo'
I5
tp41
a(S'w'
I6
tp42
a(S'p2_ll'
I1
tp43
a(S'p2_th'
I1
tp44
a(S'w'
I1
tp45
a(S'p2_tl'
I84
tp46
a(S'w'
I17
tp47
a(S'tr_lr'
I56
tp48
a(S'w'
I6
tp49
a(S'tr_ll'
I1
tp50
a(S'tr_th'
I1
tp51
a(S'w'
I1
tp52
a(S'tr_tl'
I171
tp53
a(S'w'
I82
tp54
a(S'no_vo'
I11
tp55
a(S'w'
I2
tp56
a(S'no_ll'
I1
tp57
a(S'w'
I1
tp58
a(S'no_np'
I14
tp59
a(S'w'
I582
tp60
a(S'p2_vo'
I3
tp61
a(S'w'
I16
tp62
a(S'no_vo'
I5
tp63
a(S'w'
I2
tp64
a(S'no_ll'
I1
tp65
a(S'w'
I2
tp66
a(S'no_np'
I15
tp67
a(S'w'
I734
tp68
a(S'no_vo'
I0
tp69
a(S'w'
I716
tp70
a(S'p2_vo'
I1
tp71
a(S'w'
I2933
tp72
a(S'p1_du'
I2
tp73
a(S'p1_vo'
I7
tp74
a(S'w'
I6
tp75
a(S'p1_ll'
I1
tp76
a(S'p1_th'
I1
tp77
a(S'w'
I2
tp78
a(S'p1_tl'
I83
tp79
a(S'w'
I8
tp80
a(S'p2_vo'
I5
tp81
a(S'w'
I2
tp82
a(S'p2_vo'
I0
tp83
a(S'w'
I59
tp84
a(S'no_vo'
I10
tp85
a(S'w'
I2
tp86
a(S'no_ll'
I1
tp87
a(S'w'
I1
tp88
a(S'no_np'
I2
tp89
a(S'w'
I674
tp90
a(S'no_vo'
I3
tp91
a(S'w'
I2
tp92
a(S'no_ll'
I1
tp93
a(S'w'
I2
tp94
a(S'w'
I709
tp95
a(S'p1_vo'
I5
tp96
a(S'w'
I24
tp97
a(S'no_vo'
I2
tp98
a(S'w'
I2
tp99
a(S'no_ll'
I1
tp100
a(S'w'
I2
tp101
a(S'no_np'
I1
tp102
a(S'w'
I728
tp103
a(S'no_vo'
I1
tp104
a(S'w'
I2
tp105
a(S'no_ll'
I1
tp106
a(S'w'
I2
tp107
a(S'w'
I707
tp108
a(S'p1_vo'
I3
tp109
a(S'w'
I21
tp110
a(S'no_vo'
I0
tp111
a(S'w'
I2180
tp112
a(S'p1_vo'
I7
tp113
a(S'w'
I2
tp114
a(S'p1_du'
I0
tp115
a(S'p1_vo'
I0
tp116
a(S'w'
I9
tp117
a(S'p2_vo'
I5
tp118
a(S'w'
I7
tp119
a(S'p2_tl'
I30
tp120
a(S'w'
I35
tp121
a(S'no_vo'
I10
tp122
a(S'w'
I2
tp123
a(S'no_ll'
I1
tp124
a(S'w'
I2
tp125
a(S'no_np'
I2
tp126
a(S'w'
I678
tp127
a(S'p2_vo'
I3
tp128
a(S'w'
I16
tp129
a(S'no_vo'
I3
tp130
a(S'w'
I2
tp131
a(S'no_ll'
I1
tp132
a(S'w'
I2
tp133
a(S'w'
I733
tp134
a(S'no_vo'
I2
tp135
a(S'w'
I2
tp136
a(S'no_ll'
I1
tp137
a(S'w'
I1
tp138
a(S'no_np'
I1
tp139
a(S'w'
I714
tp140
a(S'p2_vo'
I1
tp141
a(S'w'
I16
tp142
a(S'no_vo'
I1
tp143
a(S'w'
I2
tp144
a(S'no_ll'
I1
tp145
a(S'w'
I1
tp146
a(S'w'
I732
tp147
a(S'no_vo'
I0
tp148
a(S'w'
I2180
tp149
a(S'p1_du'
I2
tp150
a(S'p1_vo'
I7
tp151
a(S'w'
I6
tp152
a(S'w'
I10
tp153
a(S'p2_vo'
I5
tp154
a(S'w'
I6
tp155
a(S'p2_tl'
I172
tp156
a(S'w'
I15
tp157
a(S'tr_ll'
I1
tp158
a(S'tr_th'
I2
tp159
a(S'w'
I1
tp160
a(S'tr_tl'
I59
tp161
a(S'w'
I53
tp162
a(S'no_vo'
I11
tp163
a(S'w'
I2
tp164
a(S'no_ll'
I1
tp165
a(S'w'
I2
tp166
a(S'no_np'
I14
tp167
a(S'w'
I645
tp168
a(S'p2_vo'
I3
tp169
a(S'w'
I21
tp170
a(S'no_vo'
I5
tp171
a(S'w'
I2
tp172
a(S'no_ll'
I1
tp173
a(S'w'
I1
tp174
a(S'no_np'
I15
tp175
a(S'w'
I705
tp176
a(S'p1_vo'
I5
tp177
a(S'w'
I32
tp178
a(S'no_vo'
I0
tp179
a(S'w'
I711
tp180
a(S'p2_vo'
I1
tp181
a(S'w'
I724
tp182
a(S'p1_vo'
I3
tp183
a(S'w'
I2203
tp184
a(S'p1_vo'
I7
tp185
a(S'w'
I7
tp186
a(S'p1_ll'
I1
tp187
a(S'p1_th'
I0
tp188
a(S'w'
I1
tp189
a(S'p1_tl'
I213
tp190
a(S'w'
I61
tp191
a(S'no_vo'
I10
tp192
a(S'w'
I2
tp193
a(S'no_ll'
I1
tp194
a(S'w'
I1
tp195
a(S'no_np'
I8
tp196
a(S'w'
I681
tp197
a(S'no_vo'
I2
tp198
a(S'w'
I2
tp199
a(S'no_ll'
I1
tp200
a(S'w'
I2
tp201
a(S'no_np'
I3
tp202
a(S'w'
I709
tp203
a(S'p1_vo'
I5
tp204
a(S'w'
I29
tp205
a(S'no_vo'
I7
tp206
a(S'w'
I2
tp207
a(S'no_ll'
I1
tp208
a(S'w'
I1
tp209
a(S'no_np'
I8
tp210
a(S'w'
I726
tp211
a(S'no_vo'
I3
tp212
a(S'w'
I2
tp213
a(S'no_ll'
I1
tp214
a(S'w'
I1
tp215
a(S'w'
I707
tp216
a(S'p1_vo'
I3
tp217
a(S'w'
I20
tp218
a(S'no_vo'
I2
tp219
a(S'w'
I2
tp220
a(S'no_ll'
I1
tp221
a(S'w'
I1
tp222
a(S'no_np'
I3
tp223
a(S'w'
I740
tp224
a(S'no_vo'
I0
tp225
a(S'w'
I1437
tp226
a(S'p1_vo'
I7
tp227
a(S'w'
I7
tp228
a(S'w'
I9
tp229
a(S'p2_vo'
I5
tp230
a(S'w'
I7
tp231
a(S'p2_tl'
I84
tp232
a(S'w'
I56
tp233
a(S'no_vo'
I10
tp234
a(S'w'
I2
tp235
a(S'no_ll'
I1
tp236
a(S'w'
I1
tp237
a(S'no_np'
I2
tp238
a(S'w'
I658
tp239
a(S'p2_vo'
I3
tp240
a(S'w'
I21
tp241
a(S'no_vo'
I3
tp242
a(S'w'
I2
tp243
a(S'no_ll'
I1
tp244
a(S'w'
I1
tp245
a(S'w'
I705
tp246
a(S'p1_vo'
I5
tp247
a(S'w'
I31
tp248
a(S'no_vo'
I2
tp249
a(S'w'
I2
tp250
a(S'no_ll'
I1
tp251
a(S'w'
I2
tp252
a(S'no_np'
I1
tp253
a(S'w'
I708
tp254
a(S'p2_vo'
I1
tp255
a(S'w'
I21
tp256
a(S'no_vo'
I1
tp257
a(S'w'
I2
tp258
a(S'no_ll'
I1
tp259
a(S'w'
I1
tp260
a(S'w'
I700
tp261
a(S'p1_vo'
I3
tp262
a(S'w'
I27
tp263
a(S'no_vo'
I0
tp264
a(S'w'
I2174
tp265
a(S'p1_vo'
I7
tp266
a(S'w'
I2
tp267
a(S'p1_du'
I0
tp268
a(S'p1_vo'
I0
tp269
a(S'w'
I11
tp270
a(S'tr_lr'
I37
tp271
a(S'w'
I6
tp272
a(S'tr_ll'
I1
tp273
a(S'tr_th'
I1
tp274
a(S'w'
I2
tp275
a(S'tr_tl'
I171
tp276
a(S'w'
I13
tp277
a(S'p2_vo'
I0
tp278
a(S'w'
I13
tp279
a(S'p2_se'
I1
tp280
a(S'p2_sp'
I0
tp281
a(S'p2_sn'
I0
tp282
a(S'p2_ss'
I4
tp283
a(S'w'
I3
tp284
a(S'p2_du'
I2
tp285
a(S'p2_vo'
I7
tp286
a(S'w'
I2
tp287
a(S'p2_ll'
I1
tp288
a(S'w'
I1
tp289
a(S'p2_tl'
I64
tp290
a(S'w'
I17
tp291
a(S'no_vo'
I5
tp292
a(S'w'
I2
tp293
a(S'no_ll'
I1
tp294
a(S'w'
I1
tp295
a(S'no_np'
I4
tp296
a(S'w'
I670
tp297
a(S'p2_vo'
I5
tp298
a(S'w'
I8
tp299
a(S'no_vo'
I2
tp300
a(S'w'
I2
tp301
a(S'no_ll'
I1
tp302
a(S'w'
I1
tp303
a(S'no_np'
I2
tp304
a(S'w'
I726
tp305
a(S'p2_vo'
I4
tp306
a(S'w'
I9
tp307
a(S'no_vo'
I0
tp308
a(S'w'
I721
tp309
a(S'p2_vo'
I3
tp310
a(S'w'
I734
tp311
a(S'p2_vo'
I2
tp312
a(S'w'
I738
tp313
a(S'p2_vo'
I1
tp314
a(S'w'
I730
tp315
a(S'p2_vo'
I0
tp316
a(S'w'
I724
tp317
a(S'p1_du'
I2
tp318
a(S'p1_vo'
I7
tp319
a(S'w'
I7
tp320
a(S'w'
I32
tp321
a(S'p2_du'
I0
tp322
a(S'p2_se'
I0
tp323
a(S'p2_sp'
I7
tp324
a(S'p2_sn'
I1
tp325
a(S'p2_ss'
I7
tp326
a(S'w'
I13
tp327
a(S'p2_se'
I1
tp328
a(S'p2_sp'
I0
tp329
a(S'p2_sn'
I0
tp330
a(S'p2_ss'
I4
tp331
a(S'w'
I2
tp332
a(S'p2_du'
I2
tp333
a(S'p2_vo'
I8
tp334
a(S'w'
I3
tp335
a(S'p2_ll'
I1
tp336
a(S'w'
I1
tp337
a(S'p2_tl'
I128
tp338
a(S'w'
I37
tp339
a(S'no_vo'
I5
tp340
a(S'w'
I2
tp341
a(S'no_ll'
I1
tp342
a(S'w'
I1
tp343
a(S'no_np'
I4
tp344
a(S'w'
I653
tp345
a(S'p2_vo'
I6
tp346
a(S'w'
I12
tp347
a(S'no_vo'
I2
tp348
a(S'w'
I2
tp349
a(S'no_ll'
I1
tp350
a(S'w'
I2
tp351
a(S'no_np'
I2
tp352
a(S'w'
I702
tp353
a(S'p1_vo'
I5
tp354
a(S'w'
I21
tp355
a(S'p2_vo'
I5
tp356
a(S'w'
I14
tp357
a(S'no_vo'
I0
tp358
a(S'w'
I719
tp359
a(S'p2_vo'
I4
tp360
a(S'w'
I713
tp361
a(S'p1_vo'
I3
tp362
a(S'w'
I20
tp363
a(S'p2_vo'
I3
tp364
a(S'w'
I735
tp365
a(S'p2_vo'
I2
tp366
a(S'w'
I729
tp367
a(S'p2_vo'
I1
tp368
a(S'w'
I717
tp369
a(S'p1_vo'
I7
tp370
a(S'w'
I2
tp371
a(S'p1_du'
I0
tp372
a(S'p1_vo'
I0
tp373
a(S'w'
I12
tp374
a(S'tr_lr'
I56
tp375
a(S'w'
I6
tp376
a(S'tr_ll'
I1
tp377
a(S'w'
I1
tp378
a(S'tr_tl'
I253
tp379
a(S'w'
I32
tp380
a(S'p2_vo'
I0
tp381
a(S'w'
I16
tp382
a(S'no_vo'
I11
tp383
a(S'w'
I2
tp384
a(S'no_ll'
I1
tp385
a(S'w'
I1
tp386
a(S'no_np'
I14
tp387
a(S'w'
I674
tp388
a(S'p2_se'
I0
tp389
a(S'p2_sp'
I7
tp390
a(S'p2_sn'
I1
tp391
a(S'p2_ss'
I7
tp392
a(S'w'
I2
tp393
a(S'p2_du'
I0
tp394
a(S'p2_vo'
I1
tp395
a(S'w'
I1
tp396
a(S'p2_tl'
I65
tp397
a(S'w'
I1
tp398
a(S'p2_ll'
I0
tp399
a(S'w'
I7
tp400
a(S'no_vo'
I5
tp401
a(S'w'
I2
tp402
a(S'no_ll'
I1
tp403
a(S'w'
I2
tp404
a(S'no_np'
I15
tp405
a(S'w'
I725
tp406
a(S'no_vo'
I0
tp407
a(S'w'
I3650
tp408
a(S'p1_du'
I2
tp409
a(S'p1_vo'
I7
tp410
a(S'w'
I7
tp411
a(S'w'
I9
tp412
a(S'p2_vo'
I5
tp413
a(S'w'
I7
tp414
a(S'p2_ll'
I1
tp415
a(S'p2_th'
I0
tp416
a(S'w'
I1
tp417
a(S'p2_tl'
I255
tp418
a(S'w'
I56
tp419
a(S'no_vo'
I10
tp420
a(S'w'
I2
tp421
a(S'no_ll'
I1
tp422
a(S'w'
I1
tp423
a(S'no_np'
I2
tp424
a(S'w'
I657
tp425
a(S'p2_vo'
I3
tp426
a(S'w'
I21
tp427
a(S'no_vo'
I3
tp428
a(S'w'
I2
tp429
a(S'no_ll'
I1
tp430
a(S'w'
I1
tp431
a(S'w'
I705
tp432
a(S'p1_vo'
I5
tp433
a(S'w'
I31
tp434
a(S'no_vo'
I2
tp435
a(S'w'
I2
tp436
a(S'no_ll'
I1
tp437
a(S'w'
I2
tp438
a(S'no_np'
I1
tp439
a(S'w'
I708
tp440
a(S'p2_vo'
I1
tp441
a(S'w'
I21
tp442
a(S'no_vo'
I1
tp443
a(S'w'
I2
tp444
a(S'no_ll'
I1
tp445
a(S'w'
I1
tp446
a(S'w'
I701
tp447
a(S'p1_vo'
I3
tp448
a(S'w'
I27
tp449
a(S'no_vo'
I0
tp450
a(S'w'
I2173
tp451
a(S'p1_vo'
I7
tp452
a(S'w'
I2
tp453
a(S'p1_du'
I0
tp454
a(S'p1_vo'
I0
tp455
a(S'w'
I39
tp456
a(S'no_vo'
I10
tp457
a(S'w'
I2
tp458
a(S'no_ll'
I1
tp459
a(S'w'
I1
tp460
a(S'no_np'
I2
tp461
a(S'w'
I704
tp462
a(S'no_vo'
I3
tp463
a(S'w'
I2
tp464
a(S'no_ll'
I1
tp465
a(S'w'
I1
tp466
a(S'w'
I735
tp467
a(S'no_vo'
I2
tp468
a(S'w'
I2
tp469
a(S'no_ll'
I1
tp470
a(S'w'
I2
tp471
a(S'no_np'
I1
tp472
a(S'w'
I725
tp473
a(S'no_vo'
I1
tp474
a(S'w'
I2
tp475
a(S'no_ll'
I1
tp476
a(S'w'
I1
tp477
a(S'w'
I732
tp478
a(S'no_vo'
I0
tp479
a(S'w'
I2186
tp480
a(S'p1_du'
I2
tp481
a(S'p1_vo'
I7
tp482
a(S'w'
I7
tp483
a(S'w'
I9
tp484
a(S'p2_vo'
I5
tp485
a(S'w'
I6
tp486
a(S'p2_ll'
I1
tp487
a(S'p2_th'
I1
tp488
a(S'w'
I2
tp489
a(S'p2_tl'
I172
tp490
a(S'w'
I12
tp491
a(S'tr_ll'
I1
tp492
a(S'tr_th'
I2
tp493
a(S'w'
I1
tp494
a(S'tr_tl'
I129
tp495
a(S'w'
I53
tp496
a(S'no_vo'
I11
tp497
a(S'w'
I2
tp498
a(S'no_ll'
I1
tp499
a(S'w'
I2
tp500
a(S'no_np'
I14
tp501
a(S'w'
I646
tp502
a(S'p2_vo'
I3
tp503
a(S'w'
I21
tp504
a(S'no_vo'
I5
tp505
a(S'w'
I2
tp506
a(S'no_ll'
I1
tp507
a(S'w'
I1
tp508
a(S'no_np'
I15
tp509
a(S'w'
I705
tp510
a(S'p1_vo'
I5
tp511
a(S'w'
I32
tp512
a(S'no_vo'
I0
tp513
a(S'w'
I711
tp514
a(S'p2_vo'
I1
tp515
a(S'w'
I725
tp516
a(S'p1_vo'
I3
tp517
a(S'w'
I2200
tp518
a(S'p1_vo'
I7
tp519
a(S'w'
I7
tp520
a(S'w'
I9
tp521
a(S'p2_vo'
I5
tp522
a(S'w'
I7
tp523
a(S'p2_tl'
I65
tp524
a(S'w'
I56
tp525
a(S'no_vo'
I10
tp526
a(S'w'
I2
tp527
a(S'no_ll'
I1
tp528
a(S'w'
I1
tp529
a(S'no_np'
I8
tp530
a(S'w'
I658
tp531
a(S'p2_vo'
I3
tp532
a(S'w'
I21
tp533
a(S'no_vo'
I2
tp534
a(S'w'
I2
tp535
a(S'no_ll'
I1
tp536
a(S'w'
I1
tp537
a(S'no_np'
I3
tp538
a(S'w'
I705
tp539
a(S'p1_vo'
I5
tp540
a(S'w'
I31
tp541
a(S'no_vo'
I7
tp542
a(S'w'
I2
tp543
a(S'no_ll'
I1
tp544
a(S'w'
I2
tp545
a(S'no_np'
I8
tp546
a(S'w'
I707
tp547
a(S'p2_vo'
I1
tp548
a(S'w'
I21
tp549
a(S'no_vo'
I3
tp550
a(S'w'
I2
tp551
a(S'no_ll'
I1
tp552
a(S'w'
I1
tp553
a(S'w'
I701
tp554
a(S'p1_vo'
I3
tp555
a(S'w'
I26
tp556
a(S'no_vo'
I2
tp557
a(S'w'
I2
tp558
a(S'no_ll'
I1
tp559
a(S'w'
I2
tp560
a(S'no_np'
I3
tp561
a(S'w'
I735
tp562
a(S'no_vo'
I0
tp563
a(S'w'
I1438
tp564
a(S'p1_vo'
I7
tp565
a(S'w'
I6
tp566
a(S'p1_tl'
I226
tp567
a(S'w'
I62
tp568
a(S'no_vo'
I10
tp569
a(S'w'
I2
tp570
a(S'no_ll'
I1
tp571
a(S'w'
I1
tp572
a(S'no_np'
I2
tp573
a(S'w'
I682
tp574
a(S'no_vo'
I3
tp575
a(S'w'
I2
tp576
a(S'no_ll'
I1
tp577
a(S'w'
I2
tp578
a(S'w'
I709
tp579
a(S'p1_vo'
I5
tp580
a(S'w'
I29
tp581
a(S'no_vo'
I2
tp582
a(S'w'
I2
tp583
a(S'no_ll'
I1
tp584
a(S'w'
I1
tp585
a(S'no_np'
I1
tp586
a(S'w'
I726
tp587
a(S'no_vo'
I1
tp588
a(S'w'
I2
tp589
a(S'no_ll'
I1
tp590
a(S'w'
I1
tp591
a(S'w'
I707
tp592
a(S'p1_vo'
I3
tp593
a(S'w'
I21
tp594
a(S'no_vo'
I0
tp595
a(S'w'
I2179
tp596
a(S'p1_vo'
I7
tp597
a(S'w'
I6
tp598
a(S'p1_tl'
I254
tp599
a(S'w'
I10
tp600
a(S'p2_vo'
I5
tp601
a(S'w'
I6
tp602
a(S'p2_ll'
I1
tp603
a(S'p2_th'
I0
tp604
a(S'w'
I2
tp605
a(S'p2_tl'
I255
tp606
a(S'w'
I6
tp607
a(S'tr_lr'
I37
tp608
a(S'w'
I5
tp609
a(S'tr_ll'
I1
tp610
a(S'tr_th'
I1
tp611
a(S'w'
I2
tp612
a(S'tr_tl'
I253
tp613
a(S'w'
I12
tp614
a(S'p2_vo'
I0
tp615
a(S'w'
I14
tp616
a(S'p2_se'
I1
tp617
a(S'p2_sp'
I0
tp618
a(S'p2_sn'
I0
tp619
a(S'p2_ss'
I4
tp620
a(S'w'
I2
tp621
a(S'p2_du'
I2
tp622
a(S'p2_vo'
I7
tp623
a(S'w'
I3
tp624
a(S'p2_ll'
I1
tp625
a(S'p2_th'
I1
tp626
a(S'w'
I1
tp627
a(S'p2_tl'
I64
tp628
a(S'w'
I37
tp629
a(S'no_vo'
I5
tp630
a(S'w'
I2
tp631
a(S'no_ll'
I1
tp632
a(S'w'
I1
tp633
a(S'no_np'
I4
tp634
a(S'w'
I642
tp635
a(S'p2_vo'
I5
tp636
a(S'w'
I12
tp637
a(S'no_vo'
I2
tp638
a(S'w'
I2
tp639
a(S'no_ll'
I1
tp640
a(S'w'
I2
tp641
a(S'no_np'
I2
tp642
a(S'w'
I702
tp643
a(S'p1_vo'
I5
tp644
a(S'w'
I21
tp645
a(S'p2_vo'
I4
tp646
a(S'w'
I14
tp647
a(S'no_vo'
I0
tp648
a(S'w'
I718
tp649
a(S'p2_vo'
I3
tp650
a(S'w'
I714
tp651
a(S'p1_vo'
I3
tp652
a(S'w'
I20
tp653
a(S'p2_vo'
I2
tp654
a(S'w'
I735
tp655
a(S'p2_vo'
I1
tp656
a(S'w'
I729
tp657
a(S'p2_vo'
I0
tp658
a(S'w'
I717
tp659
a(S'p1_vo'
I7
tp660
a(S'w'
I6
tp661
a(S'p1_ll'
I1
tp662
a(S'p1_th'
I1
tp663
a(S'w'
I2
tp664
a(S'p1_tl'
I29
tp665
a(S'w'
I19
tp666
a(S'p2_du'
I0
tp667
a(S'p2_se'
I0
tp668
a(S'p2_sp'
I7
tp669
a(S'p2_sn'
I1
tp670
a(S'p2_ss'
I7
tp671
a(S'w'
I13
tp672
a(S'p2_se'
I1
tp673
a(S'p2_sp'
I0
tp674
a(S'p2_sn'
I0
tp675
a(S'p2_ss'
I4
tp676
a(S'w'
I3
tp677
a(S'p2_du'
I2
tp678
a(S'p2_vo'
I8
tp679
a(S'w'
I2
tp680
a(S'p2_ll'
I1
tp681
a(S'w'
I1
tp682
a(S'p2_tl'
I128
tp683
a(S'w'
I37
tp684
a(S'no_vo'
I5
tp685
a(S'w'
I2
tp686
a(S'no_ll'
I1
tp687
a(S'w'
I2
tp688
a(S'no_np'
I4
tp689
a(S'w'
I659
tp690
a(S'p2_vo'
I6
tp691
a(S'w'
I12
tp692
a(S'no_vo'
I2
tp693
a(S'w'
I2
tp694
a(S'no_ll'
I1
tp695
a(S'w'
I1
tp696
a(S'no_np'
I2
tp697
a(S'w'
I707
tp698
a(S'p1_vo'
I5
tp699
a(S'w'
I19
tp700
a(S'p2_vo'
I5
tp701
a(S'w'
I13
tp702
a(S'no_vo'
I0
tp703
a(S'w'
I716
tp704
a(S'p2_vo'
I4
tp705
a(S'w'
I720
tp706
a(S'p1_vo'
I3
tp707
a(S'w'
I14
tp708
a(S'p2_vo'
I3
tp709
a(S'w'
I738
tp710
a(S'p2_vo'
I2
tp711
a(S'w'
I727
tp712
a(S'p2_vo'
I1
tp713
a(S'w'
I721
tp714
a(S'p1_vo'
I7
tp715
a(S'w'
I2
tp716
a(S'p1_du'
I0
tp717
a(S'p1_vo'
I0
tp718
a(S'w'
I25
tp719
a(S'tr_lr'
I18
tp720
a(S'w'
I2
tp721
a(S'tr_lh'
I1
tp722
a(S'tr_lr'
I0
tp723
a(S'w'
I32
tp724
a(S'p2_vo'
I0
tp725
a(S'w'
I16
tp726
a(S'no_vo'
I11
tp727
a(S'w'
I2
tp728
a(S'no_ll'
I1
tp729
a(S'w'
I1
tp730
a(S'no_np'
I14
tp731
a(S'w'
I665
tp732
a(S'p2_du'
I0
tp733
a(S'w'
I1
tp734
a(S'p2_se'
I0
tp735
a(S'p2_sp'
I7
tp736
a(S'p2_sn'
I1
tp737
a(S'p2_ss'
I7
tp738
a(S'p2_tl'
I255
tp739
a(S'w'
I1
tp740
a(S'p2_ll'
I0
tp741
a(S'p2_th'
I0
tp742
a(S'w'
I8
tp743
a(S'no_vo'
I5
tp744
a(S'w'
I2
tp745
a(S'no_ll'
I1
tp746
a(S'w'
I1
tp747
a(S'no_np'
I15
tp748
a(S'w'
I725
tp749
a(S'no_vo'
I0
tp750
a(S'w'
I3658
tp751
a(S'p1_du'
I2
tp752
a(S'p1_vo'
I7
tp753
a(S'w'
I7
tp754
a(S'w'
I9
tp755
a(S'p2_vo'
I3
tp756
a(S'w'
I6
tp757
a(S'p2_ll'
I1
tp758
a(S'p2_th'
I2
tp759
a(S'w'
I2
tp760
a(S'p2_tl'
I60
tp761
a(S'w'
I5
tp762
a(S'tr_lh'
I0
tp763
a(S'tr_lr'
I18
tp764
a(S'w'
I5
tp765
a(S'tr_ll'
I1
tp766
a(S'tr_th'
I2
tp767
a(S'w'
I2
tp768
a(S'tr_tl'
I59
tp769
a(S'w'
I56
tp770
a(S'no_vo'
I10
tp771
a(S'w'
I2
tp772
a(S'no_ll'
I1
tp773
a(S'w'
I1
tp774
a(S'no_np'
I2
tp775
a(S'w'
I634
tp776
a(S'p1_vo'
I5
tp777
a(S'w'
I28
tp778
a(S'no_vo'
I3
tp779
a(S'w'
I2
tp780
a(S'no_ll'
I1
tp781
a(S'w'
I2
tp782
a(S'w'
I714
tp783
a(S'p2_vo'
I1
tp784
a(S'w'
I21
tp785
a(S'no_vo'
I2
tp786
a(S'w'
I2
tp787
a(S'no_ll'
I1
tp788
a(S'w'
I1
tp789
a(S'no_np'
I1
tp790
a(S'w'
I699
tp791
a(S'p1_vo'
I3
tp792
a(S'w'
I30
tp793
a(S'no_vo'
I1
tp794
a(S'w'
I2
tp795
a(S'no_ll'
I1
tp796
a(S'w'
I2
tp797
a(S'w'
I728
tp798
a(S'no_vo'
I0
tp799
a(S'w'
I2172
tp800
a(S'p1_vo'
I7
tp801
a(S'w'
I2
tp802
a(S'p1_du'
I0
tp803
a(S'p1_vo'
I0
tp804
a(S'w'
I11
tp805
a(S'tr_lh'
I1
tp806
a(S'tr_lr'
I0
tp807
a(S'w'
I33
tp808
a(S'no_vo'
I10
tp809
a(S'w'
I2
tp810
a(S'no_ll'
I1
tp811
a(S'w'
I1
tp812
a(S'no_np'
I2
tp813
a(S'w'
I699
tp814
a(S'no_vo'
I3
tp815
a(S'w'
I2
tp816
a(S'no_ll'
I1
tp817
a(S'w'
I1
tp818
a(S'w'
I735
tp819
a(S'no_vo'
I2
tp820
a(S'w'
I2
tp821
a(S'no_ll'
I1
tp822
a(S'w'
I1
tp823
a(S'no_np'
I1
tp824
a(S'w'
I727
tp825
a(S'no_vo'
I1
tp826
a(S'w'
I2
tp827
a(S'no_ll'
I1
tp828
a(S'w'
I1
tp829
a(S'w'
I731
tp830
a(S'no_vo'
I0
tp831
a(S'w'
I2187
tp832
a(S'p1_du'
I2
tp833
a(S'p1_vo'
I7
tp834
a(S'w'
I7
tp835
a(S'w'
I9
tp836
a(S'p2_vo'
I3
tp837
a(S'w'
I6
tp838
a(S'w'
I6
tp839
a(S'tr_lh'
I0
tp840
a(S'tr_lr'
I18
tp841
a(S'w'
I5
tp842
a(S'tr_ll'
I1
tp843
a(S'w'
I55
tp844
a(S'no_vo'
I11
tp845
a(S'w'
I2
tp846
a(S'no_ll'
I1
tp847
a(S'w'
I1
tp848
a(S'no_np'
I14
tp849
a(S'w'
I642
tp850
a(S'p1_vo'
I5
tp851
a(S'w'
I28
tp852
a(S'no_vo'
I5
tp853
a(S'w'
I2
tp854
a(S'no_ll'
I1
tp855
a(S'w'
I2
tp856
a(S'no_np'
I15
tp857
a(S'w'
I714
tp858
a(S'p2_vo'
I1
tp859
a(S'w'
I22
tp860
a(S'no_vo'
I0
tp861
a(S'w'
I701
tp862
a(S'p1_vo'
I3
tp863
a(S'w'
I2935
tp864
a(S'p1_vo'
I7
tp865
a(S'w'
I6
tp866
a(S'p1_tl'
I64
tp867
a(S'w'
I10
tp868
a(S'p2_vo'
I3
tp869
a(S'w'
I6
tp870
a(S'p2_tl'
I130
tp871
a(S'w'
I11
tp872
a(S'tr_ll'
I1
tp873
a(S'w'
I1
tp874
a(S'tr_tl'
I129
tp875
a(S'w'
I54
tp876
a(S'no_vo'
I10
tp877
a(S'w'
I2
tp878
a(S'no_ll'
I1
tp879
a(S'w'
I1
tp880
a(S'no_np'
I8
tp881
a(S'w'
I641
tp882
a(S'p1_vo'
I5
tp883
a(S'w'
I28
tp884
a(S'no_vo'
I2
tp885
a(S'w'
I2
tp886
a(S'no_ll'
I1
tp887
a(S'w'
I2
tp888
a(S'no_np'
I3
tp889
a(S'w'
I715
tp890
a(S'p2_vo'
I1
tp891
a(S'w'
I21
tp892
a(S'no_vo'
I7
tp893
a(S'w'
I2
tp894
a(S'no_ll'
I1
tp895
a(S'w'
I1
tp896
a(S'no_np'
I8
tp897
a(S'w'
I699
tp898
a(S'p1_vo'
I3
tp899
a(S'w'
I30
tp900
a(S'no_vo'
I3
tp901
a(S'w'
I2
tp902
a(S'no_ll'
I1
tp903
a(S'w'
I2
tp904
a(S'w'
I727
tp905
a(S'no_vo'
I2
tp906
a(S'w'
I2
tp907
a(S'no_ll'
I1
tp908
a(S'w'
I1
tp909
a(S'no_np'
I3
tp910
a(S'w'
I735
tp911
a(S'no_vo'
I0
tp912
a(S'w'
I1440
tp913
a(S'tr_lh'
I1
tp914
a(S'tr_lr'
I0
tp915
a(S'w'
I33
tp916
a(S'no_vo'
I10
tp917
a(S'w'
I2
tp918
a(S'no_ll'
I1
tp919
a(S'w'
I1
tp920
a(S'no_np'
I2
tp921
a(S'w'
I714
tp922
a(S'no_vo'
I3
tp923
a(S'w'
I2
tp924
a(S'no_ll'
I1
tp925
a(S'w'
I1
tp926
a(S'w'
I708
tp927
a(S'p1_vo'
I1
tp928
a(S'w'
I30
tp929
a(S'no_vo'
I2
tp930
a(S'w'
I2
tp931
a(S'no_ll'
I1
tp932
a(S'w'
I2
tp933
a(S'no_np'
I1
tp934
a(S'w'
I722
tp935
a(S'no_vo'
I1
tp936
a(S'w'
I2
tp937
a(S'no_ll'
I1
tp938
a(S'w'
I1
tp939
a(S'w'
I730
tp940
a(S'no_vo'
I0
tp941
a(S'w'
I713
tp942
a(S'p1_vo'
I3
tp943
a(S'w'
I1469
tp944
a(S'p1_vo'
I7
tp945
a(S'w'
I6
tp946
a(S'p1_tl'
I29
tp947
a(S'w'
I10
tp948
a(S'p2_vo'
I3
tp949
a(S'w'
I6
tp950
a(S'p2_tl'
I60
tp951
a(S'w'
I5
tp952
a(S'tr_lh'
I0
tp953
a(S'tr_lr'
I18
tp954
a(S'w'
I6
tp955
a(S'tr_ll'
I1
tp956
a(S'w'
I1
tp957
a(S'tr_tl'
I59
tp958
a(S'w'
I13
tp959
a(S'p2_vo'
I0
tp960
a(S'w'
I13
tp961
a(S'p2_se'
I1
tp962
a(S'p2_sp'
I0
tp963
a(S'p2_sn'
I0
tp964
a(S'p2_ss'
I4
tp965
a(S'w'
I3
tp966
a(S'p2_du'
I2
tp967
a(S'p2_vo'
I7
tp968
a(S'w'
I2
tp969
a(S'p2_ll'
I1
tp970
a(S'p2_th'
I1
tp971
a(S'w'
I2
tp972
a(S'p2_tl'
I64
tp973
a(S'w'
I37
tp974
a(S'no_vo'
I5
tp975
a(S'w'
I2
tp976
a(S'no_ll'
I1
tp977
a(S'w'
I1
tp978
a(S'no_np'
I4
tp979
a(S'w'
I625
tp980
a(S'p1_vo'
I5
tp981
a(S'w'
I19
tp982
a(S'p2_vo'
I5
tp983
a(S'w'
I12
tp984
a(S'no_vo'
I2
tp985
a(S'w'
I2
tp986
a(S'no_ll'
I1
tp987
a(S'w'
I1
tp988
a(S'no_np'
I2
tp989
a(S'w'
I724
tp990
a(S'p2_vo'
I4
tp991
a(S'w'
I13
tp992
a(S'no_vo'
I0
tp993
a(S'w'
I699
tp994
a(S'p1_vo'
I3
tp995
a(S'w'
I20
tp996
a(S'p2_vo'
I3
tp997
a(S'w'
I734
tp998
a(S'p2_vo'
I2
tp999
a(S'w'
I734
tp1000
a(S'p2_vo'
I1
tp1001
a(S'w'
I730
tp1002
a(S'p2_vo'
I0
tp1003
a(S'w'
I720
tp1004
a(S'tr_lr'
I37
tp1005
a(S'w'
I2
tp1006
a(S'tr_lh'
I1
tp1007
a(S'tr_lr'
I0
tp1008
a(S'w'
I13
tp1009
a(S'p2_du'
I0
tp1010
a(S'p2_se'
I0
tp1011
a(S'p2_sp'
I7
tp1012
a(S'p2_sn'
I1
tp1013
a(S'p2_ss'
I7
tp1014
a(S'w'
I13
tp1015
a(S'p2_se'
I1
tp1016
a(S'p2_sp'
I0
tp1017
a(S'p2_sn'
I0
tp1018
a(S'p2_ss'
I4
tp1019
a(S'w'
I3
tp1020
a(S'p2_du'
I2
tp1021
a(S'p2_vo'
I8
tp1022
a(S'w'
I2
tp1023
a(S'p2_ll'
I1
tp1024
a(S'w'
I1
tp1025
a(S'p2_tl'
I128
tp1026
a(S'w'
I17
tp1027
a(S'no_vo'
I5
tp1028
a(S'w'
I2
tp1029
a(S'no_ll'
I1
tp1030
a(S'w'
I1
tp1031
a(S'no_np'
I4
tp1032
a(S'w'
I685
tp1033
a(S'p2_vo'
I6
tp1034
a(S'w'
I14
tp1035
a(S'no_vo'
I2
tp1036
a(S'w'
I2
tp1037
a(S'no_ll'
I1
tp1038
a(S'w'
I2
tp1039
a(S'no_np'
I2
tp1040
a(S'w'
I706
tp1041
a(S'p1_vo'
I1
tp1042
a(S'w'
I18
tp1043
a(S'p2_vo'
I5
tp1044
a(S'w'
I16
tp1045
a(S'no_vo'
I0
tp1046
a(S'w'
I709
tp1047
a(S'p2_vo'
I4
tp1048
a(S'w'
I734
tp1049
a(S'p2_vo'
I3
tp1050
a(S'w'
I724
tp1051
a(S'p1_vo'
I3
tp1052
a(S'w'
I18
tp1053
a(S'p2_vo'
I2
tp1054
a(S'w'
I726
tp1055
a(S'p2_vo'
I1
tp1056
a(S'w'
I725
tp1057
a(S'p1_vo'
I7
tp1058
a(S'w'
I2
tp1059
a(S'p1_du'
I0
tp1060
a(S'p1_vo'
I0
tp1061
a(S'w'
I30
tp1062
a(S'p2_vo'
I0
tp1063
a(S'w'
I712
tp1064
a(S'p2_du'
I0
tp1065
a(S'w'
I1
tp1066
a(S'p2_se'
I0
tp1067
a(S'p2_sp'
I7
tp1068
a(S'p2_sn'
I1
tp1069
a(S'p2_ss'
I7
tp1070
a(S'p2_tl'
I60
tp1071
a(S'w'
I1
tp1072
a(S'p2_ll'
I0
tp1073
a(S'p2_th'
I2
tp1074
a(S'w'
I4391
tp1075
a(S'p1_du'
I2
tp1076
a(S'p1_vo'
I7
tp1077
a(S'w'
I6
tp1078
a(S'w'
I12
tp1079
a(S'p2_vo'
I3
tp1080
a(S'w'
I6
tp1081
a(S'p2_ll'
I1
tp1082
a(S'p2_th'
I0
tp1083
a(S'w'
I2
tp1084
a(S'p2_tl'
I170
tp1085
a(S'w'
I7
tp1086
a(S'tr_lh'
I0
tp1087
a(S'tr_lr'
I18
tp1088
a(S'w'
I6
tp1089
a(S'tr_ll'
I1
tp1090
a(S'tr_th'
I1
tp1091
a(S'w'
I2
tp1092
a(S'tr_tl'
I171
tp1093
a(S'w'
I55
tp1094
a(S'no_vo'
I10
tp1095
a(S'w'
I2
tp1096
a(S'no_ll'
I1
tp1097
a(S'w'
I2
tp1098
a(S'no_np'
I8
tp1099
a(S'w'
I632
tp1100
a(S'p1_vo'
I5
tp1101
a(S'w'
I28
tp1102
a(S'no_vo'
I2
tp1103
a(S'w'
I2
tp1104
a(S'no_ll'
I1
tp1105
a(S'w'
I2
tp1106
a(S'no_np'
I3
tp1107
a(S'w'
I715
tp1108
a(S'p2_vo'
I1
tp1109
a(S'w'
I21
tp1110
a(S'no_vo'
I7
tp1111
a(S'w'
I2
tp1112
a(S'no_ll'
I1
tp1113
a(S'w'
I1
tp1114
a(S'no_np'
I8
tp1115
a(S'w'
I698
tp1116
a(S'p1_vo'
I3
tp1117
a(S'w'
I30
tp1118
a(S'no_vo'
I3
tp1119
a(S'w'
I2
tp1120
a(S'no_ll'
I1
tp1121
a(S'w'
I2
tp1122
a(S'w'
I727
tp1123
a(S'no_vo'
I2
tp1124
a(S'w'
I2
tp1125
a(S'no_ll'
I1
tp1126
a(S'w'
I1
tp1127
a(S'no_np'
I3
tp1128
a(S'w'
I736
tp1129
a(S'no_vo'
I0
tp1130
a(S'w'
I1440
tp1131
a(S'tr_lh'
I1
tp1132
a(S'tr_lr'
I0
tp1133
a(S'w'
I1461
tp1134
a(S'p1_vo'
I1
tp1135
a(S'w'
I2202
tp1136
a(S'p1_vo'
I3
tp1137
a(S'w'
I1468
tp1138
a(S'p1_vo'
I7
tp1139
a(S'w'
I7
tp1140
a(S'w'
I9
tp1141
a(S'p2_vo'
I3
tp1142
a(S'w'
I7
tp1143
a(S'w'
I6
tp1144
a(S'tr_lh'
I0
tp1145
a(S'tr_lr'
I18
tp1146
a(S'w'
I6
tp1147
a(S'tr_ll'
I1
tp1148
a(S'w'
I54
tp1149
a(S'no_vo'
I10
tp1150
a(S'w'
I2
tp1151
a(S'no_ll'
I1
tp1152
a(S'w'
I1
tp1153
a(S'no_np'
I8
tp1154
a(S'w'
I641
tp1155
a(S'p1_vo'
I5
tp1156
a(S'w'
I28
tp1157
a(S'no_vo'
I2
tp1158
a(S'w'
I2
tp1159
a(S'no_ll'
I1
tp1160
a(S'w'
I2
tp1161
a(S'no_np'
I3
tp1162
a(S'w'
I715
tp1163
a(S'p2_vo'
I1
tp1164
a(S'w'
I21
tp1165
a(S'no_vo'
I7
tp1166
a(S'w'
I2
tp1167
a(S'no_ll'
I1
tp1168
a(S'w'
I1
tp1169
a(S'no_np'
I8
tp1170
a(S'w'
I699
tp1171
a(S'p1_vo'
I3
tp1172
a(S'w'
I30
tp1173
a(S'no_vo'
I3
tp1174
a(S'w'
I2
tp1175
a(S'no_ll'
I1
tp1176
a(S'w'
I2
tp1177
a(S'w'
I726
tp1178
a(S'no_vo'
I2
tp1179
a(S'w'
I2
tp1180
a(S'no_ll'
I1
tp1181
a(S'w'
I1
tp1182
a(S'no_np'
I3
tp1183
a(S'w'
I736
tp1184
a(S'no_vo'
I0
tp1185
a(S'w'
I1436
tp1186
a(S'p1_vo'
I7
tp1187
a(S'w'
I6
tp1188
a(S'w'
I10
tp1189
a(S'p2_vo'
I3
tp1190
a(S'w'
I7
tp1191
a(S'w'
I11
tp1192
a(S'tr_ll'
I1
tp1193
a(S'w'
I55
tp1194
a(S'no_vo'
I10
tp1195
a(S'w'
I2
tp1196
a(S'no_ll'
I1
tp1197
a(S'w'
I2
tp1198
a(S'no_np'
I8
tp1199
a(S'w'
I638
tp1200
a(S'p1_vo'
I5
tp1201
a(S'w'
I28
tp1202
a(S'no_vo'
I2
tp1203
a(S'w'
I2
tp1204
a(S'no_ll'
I1
tp1205
a(S'w'
I2
tp1206
a(S'no_np'
I3
tp1207
a(S'w'
I715
tp1208
a(S'p2_vo'
I1
tp1209
a(S'w'
I21
tp1210
a(S'no_vo'
I7
tp1211
a(S'w'
I2
tp1212
a(S'no_ll'
I1
tp1213
a(S'w'
I1
tp1214
a(S'no_np'
I8
tp1215
a(S'w'
I699
tp1216
a(S'p1_vo'
I3
tp1217
a(S'w'
I30
tp1218
a(S'no_vo'
I3
tp1219
a(S'w'
I2
tp1220
a(S'no_ll'
I1
tp1221
a(S'w'
I2
tp1222
a(S'w'
I727
tp1223
a(S'no_vo'
I2
tp1224
a(S'w'
I2
tp1225
a(S'no_ll'
I1
tp1226
a(S'w'
I1
tp1227
a(S'no_np'
I3
tp1228
a(S'w'
I736
tp1229
a(S'no_vo'
I0
tp1230
a(S'w'
I1438
tp1231
a(S'ch_no'
I1
tp1232
a(S'ch_tr'
I0
tp1233
a(S'ch_p2'
I1
tp1234
a(S'ch_p1'
I1
tp1235
a(S'tr_lh'
I1
tp1236
a(S'tr_lr'
I0
tp1237
a(S'w'
I1
tp1238
a(S'ch_no'
I1
tp1239
a(S'ch_tr'
I1
tp1240
a(S'ch_p2'
I1
tp1241
a(S'ch_p1'
I1
tp1242
a(S'w'
I1462
tp1243
a(S'p1_vo'
I1
tp1244
a(S'w'
I2201
tp1245
a(S'p1_vo'
I3
tp1246
a(S'w'
I1467
tp1247
a(S'p1_du'
I0
tp1248
a(S'p1_vo'
I0
tp1249
a(S'w'
I7
tp1250
a(S'p2_vo'
I0
tp1251
a(S'w'
I37377
tp1252
a.