(lp1
(S'clock'
p2
I1789772
tp3
a(S'p1_du'
I3
tp4
a(S'p1_lh'
I1
tp5
a(S'p1_cv'
I1
tp6
a(S'p1_sp'
I7
tp7
a(S'p1_sn'
I1
tp8
a(S'p1_tl'
I240
tp9
a(S'p1_ll'
I1
tp10
a(S'p2_du'
I3
tp11
a(S'p2_lh'
I1
tp12
a(S'p2_cv'
I1
tp13
a(S'p2_sp'
I7
tp14
a(S'p2_sn'
I1
tp15
a(S'p2_tl'
I240
tp16
a(S'p2_ll'
I1
tp17
a(S'tr_lh'
I1
tp18
a(S'tr_tl'
I240
tp19
a(S'tr_ll'
I1
tp20
a(S'no_lh'
I1
tp21
a(S'no_cv'
I1
tp22
a(S'no_nl'
I1
tp23
a(S'no_ll'
I1
tp24
a(S'ch_no'
I1
tp25
a(S'ch_tr'
I1
tp26
a(S'ch_p2'
I1
tp27
a(S'ch_p1'
I1
tp28
a(S'fc_mo'
I1
tp29
a(S'p1_du'
I1
tp30
a(S'p1_vo'
I9
tp31
a(S'w'
I4
tp32
a(S'p1_tl'
I143
tp33
a(S'p1_ll'
I1
tp34
a(S'w'
I7
tp35
a(S'p2_du'
I1
tp36
a(S'p2_vo'
I9
tp37
a(S'w'
I4
tp38
a(S'p2_tl'
I170
tp39
a(S'p2_ll'
I1
tp40
a(S'w'
I2134
tp41
a(S'p1_vo'
I8
tp42
a(S'w'
I9
tp43
a(S'p2_vo'
I8
tp44
a(S'w'
I1459
tp45
a(S'p1_vo'
I7
tp46
a(S'w'
I9
tp47
a(S'p2_vo'
I7
tp48
a(S'w'
I737
tp49
a(S'p1_vo'
I9
tp50
a(S'w'
I4
tp51
a(S'p1_tl'
I107
tp52
a(S'p1_ll'
I1
tp53
a(S'w'
I7
tp54
a(S'p2_vo'
I9
tp55
a(S'w'
I3
tp56
a(S'p2_tl'
I143
tp57
a(S'w'
I1
tp58
a(S'p2_ll'
I1
tp59
a(S'w'
I2174
tp60
a(S'p1_vo'
I8
tp61
a(S'w'
I9
tp62
a(S'p2_vo'
I8
tp63
a(S'w'
I1459
tp64
a(S'p1_vo'
I7
tp65
a(S'w'
I9
tp66
a(S'p2_vo'
I7
tp67
a(S'w'
I737
tp68
a(S'p1_vo'
I9
tp69
a(S'w'
I4
tp70
a(S'p1_tl'
I85
tp71
a(S'p1_ll'
I1
tp72
a(S'w'
I6
tp73
a(S'p2_vo'
I9
tp74
a(S'w'
I4
tp75
a(S'p2_tl'
I107
tp76
a(S'w'
I1
tp77
a(S'p2_ll'
I1
tp78
a(S'w'
I2174
tp79
a(S'p1_vo'
I8
tp80
a(S'w'
I9
tp81
a(S'p2_vo'
I8
tp82
a(S'w'
I1459
tp83
a(S'p1_vo'
I7
tp84
a(S'w'
I8
tp85
a(S'p2_vo'
I7
tp86
a(S'w'
I738
tp87
a(S'p1_vo'
I9
tp88
a(S'w'
I3
tp89
a(S'p1_tl'
I71
tp90
a(S'w'
I1
tp91
a(S'p1_ll'
I1
tp92
a(S'w'
I6
tp93
a(S'p2_vo'
I9
tp94
a(S'w'
I4
tp95
a(S'p2_tl'
I85
tp96
a(S'p2_ll'
I1
tp97
a(S'w'
I2175
tp98
a(S'p1_vo'
I8
tp99
a(S'w'
I9
tp100
a(S'p2_vo'
I8
tp101
a(S'w'
I1459
tp102
a(S'p1_vo'
I7
tp103
a(S'w'
I8
tp104
a(S'p2_vo'
I7
tp105
a(S'w'
I738
tp106
a(S'p1_vo'
I9
tp107
a(S'w'
I4
tp108
a(S'p1_tl'
I85
tp109
a(S'p1_ll'
I1
tp110
a(S'w'
I7
tp111
a(S'p2_vo'
I9
tp112
a(S'w'
I4
tp113
a(S'p2_tl'
I107
tp114
a(S'p2_ll'
I1
tp115
a(S'w'
I2174
tp116
a(S'p1_vo'
I8
tp117
a(S'w'
I8
tp118
a(S'p2_vo'
I8
tp119
a(S'w'
I1459
tp120
a(S'p1_vo'
I7
tp121
a(S'w'
I9
tp122
a(S'p2_vo'
I7
tp123
a(S'w'
I1459
tp124
a(S'p1_vo'
I6
tp125
a(S'w'
I9
tp126
a(S'p2_vo'
I6
tp127
a(S'w'
I2192
tp128
a(S'p1_vo'
I5
tp129
a(S'w'
I9
tp130
a(S'p2_vo'
I5
tp131
a(S'w'
I5128
tp132
a(S'p1_vo'
I4
tp133
a(S'w'
I9
tp134
a(S'p2_vo'
I4
tp135
a(S'w'
I5128
tp136
a(S'p1_vo'
I3
tp137
a(S'w'
I8
tp138
a(S'p2_vo'
I3
tp139
a(S'w'
I6596
tp140
a(S'p1_vo'
I2
tp141
a(S'w'
I8
tp142
a(S'p2_vo'
I2
tp143
a(S'w'
I6596
tp144
a(S'p1_vo'
I1
tp145
a(S'w'
I9
tp146
a(S'p2_vo'
I1
tp147
a(S'w'
I9530
tp148
a(S'p1_vo'
I0
tp149
a(S'w'
I9
tp150
a(S'p2_vo'
I0
tp151
a(S'w'
I30089
tp152
a(S'p1_du'
I3
tp153
a(S'w'
I3
tp154
a(S'p2_du'
I3
tp155
a(S'w'
I1
tp156
a.