(lp1
(S'clock'
p2
I1789772
tp3
a(S'p1_du'
I3
tp4
a(S'p1_lh'
I1
tp5
a(S'p1_cv'
I1
tp6
a(S'p1_sp'
I7
tp7
a(S'p1_sn'
I1
tp8
a(S'p1_tl'
I240
tp9
a(S'p1_ll'
I1
tp10
a(S'p2_du'
I3
tp11
a(S'p2_lh'
I1
tp12
a(S'p2_cv'
I1
tp13
a(S'p2_sp'
I7
tp14
a(S'p2_sn'
I1
tp15
a(S'p2_tl'
I240
tp16
a(S'p2_ll'
I1
tp17
a(S'tr_lh'
I1
tp18
a(S'tr_tl'
I240
tp19
a(S'tr_ll'
I1
tp20
a(S'no_lh'
I1
tp21
a(S'no_cv'
I1
tp22
a(S'no_nl'
I1
tp23
a(S'no_ll'
I1
tp24
a(S'ch_no'
I1
tp25
a(S'ch_tr'
I1
tp26
a(S'ch_p2'
I1
tp27
a(S'ch_p1'
I1
tp28
a(S'fc_mo'
I1
tp29
a(S'w'
I1
tp30
a(S'w'
I791
tp31
a(S'p1_du'
I2
tp32
a(S'p1_vo'
I9
tp33
a(S'w'
I3
tp34
a(S'w'
I1
tp35
a(S'p1_tl'
I48
tp36
a(S'p1_ll'
I1
tp37
a(S'w'
I6
tp38
a(S'p2_du'
I2
tp39
a(S'p2_vo'
I9
tp40
a(S'w'
I4
tp41
a(S'p2_tl'
I50
tp42
a(S'w'
I1
tp43
a(S'p2_ll'
I1
tp44
a(S'w'
I2131
tp45
a(S'p1_vo'
I8
tp46
a(S'w'
I9
tp47
a(S'p2_vo'
I8
tp48
a(S'w'
I1458
tp49
a(S'p1_vo'
I7
tp50
a(S'w'
I9
tp51
a(S'p2_vo'
I7
tp52
a(S'w'
I738
tp53
a(S'p1_vo'
I9
tp54
a(S'w'
I4
tp55
a(S'p1_ll'
I1
tp56
a(S'w'
I7
tp57
a(S'p2_vo'
I9
tp58
a(S'w'
I4
tp59
a(S'p2_ll'
I1
tp60
a(S'w'
I2174
tp61
a(S'p1_vo'
I8
tp62
a(S'w'
I8
tp63
a(S'p2_vo'
I8
tp64
a(S'w'
I1459
tp65
a(S'p1_vo'
I7
tp66
a(S'w'
I9
tp67
a(S'p2_vo'
I7
tp68
a(S'w'
I2926
tp69
a(S'p1_vo'
I6
tp70
a(S'w'
I9
tp71
a(S'p2_vo'
I6
tp72
a(S'w'
I3660
tp73
a(S'p1_vo'
I5
tp74
a(S'w'
I9
tp75
a(S'p2_vo'
I5
tp76
a(S'w'
I6596
tp77
a(S'p1_vo'
I4
tp78
a(S'w'
I8
tp79
a(S'p2_vo'
I4
tp80
a(S'w'
I12466
tp81
a(S'p1_vo'
I3
tp82
a(S'w'
I9
tp83
a(S'p2_vo'
I3
tp84
a(S'w'
I24207
tp85
a(S'p1_vo'
I2
tp86
a(S'w'
I9
tp87
a(S'p2_vo'
I2
tp88
a(S'w'
I16881
tp89
a(S'p1_vo'
I9
tp90
a(S'w'
I4
tp91
a(S'p1_ll'
I1
tp92
a(S'w'
I7
tp93
a(S'p2_vo'
I9
tp94
a(S'w'
I3
tp95
a(S'w'
I1
tp96
a(S'p2_ll'
I1
tp97
a(S'w'
I2174
tp98
a(S'p1_vo'
I8
tp99
a(S'w'
I8
tp100
a(S'p2_vo'
I8
tp101
a(S'w'
I1459
tp102
a(S'p1_vo'
I7
tp103
a(S'w'
I9
tp104
a(S'p2_vo'
I7
tp105
a(S'w'
I737
tp106
a(S'p1_vo'
I9
tp107
a(S'w'
I4
tp108
a(S'p1_ll'
I1
tp109
a(S'w'
I7
tp110
a(S'p2_vo'
I9
tp111
a(S'w'
I4
tp112
a(S'p2_ll'
I1
tp113
a(S'w'
I2174
tp114
a(S'p1_vo'
I8
tp115
a(S'w'
I9
tp116
a(S'p2_vo'
I8
tp117
a(S'w'
I1459
tp118
a(S'p1_vo'
I7
tp119
a(S'w'
I9
tp120
a(S'p2_vo'
I7
tp121
a(S'w'
I738
tp122
a(S'p1_vo'
I9
tp123
a(S'w'
I3
tp124
a(S'w'
I1
tp125
a(S'p1_ll'
I1
tp126
a(S'w'
I6
tp127
a(S'p2_vo'
I9
tp128
a(S'w'
I4
tp129
a(S'w'
I1
tp130
a(S'p2_ll'
I1
tp131
a(S'w'
I2173
tp132
a(S'p1_vo'
I8
tp133
a(S'w'
I9
tp134
a(S'p2_vo'
I8
tp135
a(S'w'
I1459
tp136
a(S'p1_vo'
I7
tp137
a(S'w'
I9
tp138
a(S'p2_vo'
I7
tp139
a(S'w'
I2939
tp140
a(S'p1_vo'
I9
tp141
a(S'w'
I4
tp142
a(S'p1_ll'
I1
tp143
a(S'w'
I6
tp144
a(S'p2_vo'
I9
tp145
a(S'w'
I4
tp146
a(S'w'
I1
tp147
a(S'p2_ll'
I1
tp148
a(S'w'
I2173
tp149
a(S'p1_vo'
I8
tp150
a(S'w'
I9
tp151
a(S'p2_vo'
I8
tp152
a(S'w'
I1459
tp153
a(S'p1_vo'
I7
tp154
a(S'w'
I9
tp155
a(S'p2_vo'
I7
tp156
a(S'w'
I738
tp157
a(S'p1_vo'
I9
tp158
a(S'w'
I3
tp159
a(S'w'
I1
tp160
a(S'p1_ll'
I1
tp161
a(S'w'
I6
tp162
a(S'p2_vo'
I9
tp163
a(S'w'
I4
tp164
a(S'w'
I1
tp165
a(S'p2_ll'
I1
tp166
a(S'w'
I2173
tp167
a(S'p1_vo'
I8
tp168
a(S'w'
I9
tp169
a(S'p2_vo'
I8
tp170
a(S'w'
I1459
tp171
a(S'p1_vo'
I7
tp172
a(S'w'
I9
tp173
a(S'p2_vo'
I7
tp174
a(S'w'
I2926
tp175
a(S'p1_vo'
I6
tp176
a(S'w'
I9
tp177
a(S'p2_vo'
I6
tp178
a(S'w'
I3660
tp179
a(S'p1_vo'
I5
tp180
a(S'w'
I9
tp181
a(S'p2_vo'
I5
tp182
a(S'w'
I6595
tp183
a(S'p1_vo'
I4
tp184
a(S'w'
I9
tp185
a(S'p2_vo'
I4
tp186
a(S'w'
I12466
tp187
a(S'p1_vo'
I3
tp188
a(S'w'
I9
tp189
a(S'p2_vo'
I3
tp190
a(S'w'
I5874
tp191
a(S'p1_vo'
I9
tp192
a(S'w'
I4
tp193
a(S'p1_ll'
I1
tp194
a(S'w'
I7
tp195
a(S'p2_vo'
I9
tp196
a(S'w'
I4
tp197
a(S'p2_ll'
I1
tp198
a(S'w'
I2174
tp199
a(S'p1_vo'
I8
tp200
a(S'w'
I8
tp201
a(S'p2_vo'
I8
tp202
a(S'w'
I738
tp203
a(S'p1_vo'
I9
tp204
a(S'w'
I4
tp205
a(S'w'
I1
tp206
a(S'p1_ll'
I1
tp207
a(S'w'
I6
tp208
a(S'p2_vo'
I9
tp209
a(S'w'
I4
tp210
a(S'p2_ll'
I1
tp211
a(S'w'
I2174
tp212
a(S'p1_vo'
I8
tp213
a(S'w'
I9
tp214
a(S'p2_vo'
I8
tp215
a(S'w'
I1458
tp216
a(S'p1_vo'
I7
tp217
a(S'w'
I9
tp218
a(S'p2_vo'
I7
tp219
a(S'w'
I2939
tp220
a(S'p1_vo'
I9
tp221
a(S'w'
I4
tp222
a(S'p1_ll'
I1
tp223
a(S'w'
I6
tp224
a(S'p2_vo'
I9
tp225
a(S'w'
I4
tp226
a(S'w'
I1
tp227
a(S'p2_ll'
I1
tp228
a(S'w'
I2174
tp229
a(S'p1_vo'
I8
tp230
a(S'w'
I9
tp231
a(S'p2_vo'
I8
tp232
a(S'w'
I1459
tp233
a(S'p1_vo'
I7
tp234
a(S'w'
I9
tp235
a(S'p2_vo'
I7
tp236
a(S'w'
I2939
tp237
a(S'p1_vo'
I9
tp238
a(S'w'
I4
tp239
a(S'p1_ll'
I1
tp240
a(S'w'
I6
tp241
a(S'p2_vo'
I9
tp242
a(S'w'
I4
tp243
a(S'w'
I1
tp244
a(S'p2_ll'
I1
tp245
a(S'w'
I2173
tp246
a(S'p1_vo'
I8
tp247
a(S'w'
I9
tp248
a(S'p2_vo'
I8
tp249
a(S'w'
I1459
tp250
a(S'p1_vo'
I7
tp251
a(S'w'
I9
tp252
a(S'p2_vo'
I7
tp253
a(S'w'
I737
tp254
a(S'p1_vo'
I9
tp255
a(S'w'
I4
tp256
a(S'p1_ll'
I1
tp257
a(S'w'
I6
tp258
a(S'p2_vo'
I9
tp259
a(S'w'
I4
tp260
a(S'w'
I1
tp261
a(S'p2_ll'
I1
tp262
a(S'w'
I2174
tp263
a(S'p1_vo'
I8
tp264
a(S'w'
I9
tp265
a(S'p2_vo'
I8
tp266
a(S'w'
I1459
tp267
a(S'p1_vo'
I7
tp268
a(S'w'
I8
tp269
a(S'p2_vo'
I7
tp270
a(S'w'
I738
tp271
a(S'p1_vo'
I9
tp272
a(S'w'
I3
tp273
a(S'w'
I1
tp274
a(S'p1_ll'
I1
tp275
a(S'w'
I6
tp276
a(S'p2_vo'
I9
tp277
a(S'w'
I4
tp278
a(S'w'
I1
tp279
a(S'p2_ll'
I1
tp280
a(S'w'
I2174
tp281
a(S'p1_vo'
I8
tp282
a(S'w'
I9
tp283
a(S'p2_vo'
I8
tp284
a(S'w'
I1458
tp285
a(S'p1_vo'
I7
tp286
a(S'w'
I9
tp287
a(S'p2_vo'
I7
tp288
a(S'w'
I738
tp289
a(S'p1_vo'
I9
tp290
a(S'w'
I4
tp291
a(S'p1_ll'
I1
tp292
a(S'w'
I7
tp293
a(S'p2_vo'
I9
tp294
a(S'w'
I4
tp295
a(S'p2_ll'
I1
tp296
a(S'w'
I2174
tp297
a(S'p1_vo'
I8
tp298
a(S'w'
I9
tp299
a(S'p2_vo'
I8
tp300
a(S'w'
I1458
tp301
a(S'p1_vo'
I7
tp302
a(S'w'
I9
tp303
a(S'p2_vo'
I7
tp304
a(S'w'
I2926
tp305
a(S'p1_vo'
I6
tp306
a(S'w'
I9
tp307
a(S'p2_vo'
I6
tp308
a(S'w'
I3660
tp309
a(S'p1_vo'
I5
tp310
a(S'w'
I9
tp311
a(S'p2_vo'
I5
tp312
a(S'w'
I6596
tp313
a(S'p1_vo'
I4
tp314
a(S'w'
I9
tp315
a(S'p2_vo'
I4
tp316
a(S'w'
I12465
tp317
a(S'p1_vo'
I3
tp318
a(S'w'
I9
tp319
a(S'p2_vo'
I3
tp320
a(S'w'
I24207
tp321
a(S'p1_vo'
I2
tp322
a(S'w'
I9
tp323
a(S'p2_vo'
I2
tp324
a(S'w'
I16881
tp325
a(S'p1_vo'
I9
tp326
a(S'w'
I4
tp327
a(S'p1_ll'
I1
tp328
a(S'w'
I7
tp329
a(S'p2_vo'
I9
tp330
a(S'w'
I4
tp331
a(S'p2_ll'
I1
tp332
a(S'w'
I2174
tp333
a(S'p1_vo'
I8
tp334
a(S'w'
I8
tp335
a(S'p2_vo'
I8
tp336
a(S'w'
I1459
tp337
a(S'p1_vo'
I7
tp338
a(S'w'
I9
tp339
a(S'p2_vo'
I7
tp340
a(S'w'
I738
tp341
a(S'p1_vo'
I9
tp342
a(S'w'
I4
tp343
a(S'p1_ll'
I1
tp344
a(S'w'
I7
tp345
a(S'p2_vo'
I9
tp346
a(S'w'
I4
tp347
a(S'p2_ll'
I1
tp348
a(S'w'
I2173
tp349
a(S'p1_vo'
I8
tp350
a(S'w'
I9
tp351
a(S'p2_vo'
I8
tp352
a(S'w'
I1459
tp353
a(S'p1_vo'
I7
tp354
a(S'w'
I9
tp355
a(S'p2_vo'
I7
tp356
a(S'w'
I2926
tp357
a(S'p1_vo'
I6
tp358
a(S'w'
I9
tp359
a(S'p2_vo'
I6
tp360
a(S'w'
I3660
tp361
a(S'p1_vo'
I5
tp362
a(S'w'
I9
tp363
a(S'p2_vo'
I5
tp364
a(S'w'
I6595
tp365
a(S'p1_vo'
I4
tp366
a(S'w'
I9
tp367
a(S'p2_vo'
I4
tp368
a(S'w'
I12466
tp369
a(S'p1_vo'
I3
tp370
a(S'w'
I9
tp371
a(S'p2_vo'
I3
tp372
a(S'w'
I24206
tp373
a(S'p1_vo'
I2
tp374
a(S'w'
I9
tp375
a(S'p2_vo'
I2
tp376
a(S'w'
I16882
tp377
a(S'p1_vo'
I9
tp378
a(S'w'
I4
tp379
a(S'p1_ll'
I1
tp380
a(S'w'
I7
tp381
a(S'p2_vo'
I9
tp382
a(S'w'
I3
tp383
a(S'w'
I1
tp384
a(S'p2_ll'
I1
tp385
a(S'w'
I2173
tp386
a(S'p1_vo'
I8
tp387
a(S'w'
I9
tp388
a(S'p2_vo'
I8
tp389
a(S'w'
I1459
tp390
a(S'p1_vo'
I7
tp391
a(S'w'
I9
tp392
a(S'p2_vo'
I7
tp393
a(S'w'
I4
tp394
a.