(lp1
(S'clock'
p2
I1789772
tp3
a(S'ch_no'
I1
tp4
a(S'ch_tr'
I1
tp5
a(S'ch_p2'
I1
tp6
a(S'ch_p1'
I1
tp7
a(S'w'
I13
tp8
a(S'w'
I1
tp9
a(S'no_ll'
I1
tp10
a(S'no_np'
I4
tp11
a(S'w'
I7
tp12
a(S'tr_lr'
I21
tp13
a(S'w'
I1
tp14
a(S'tr_ll'
I1
tp15
a(S'tr_th'
I1
tp16
a(S'tr_tl'
I83
tp17
a(S'w'
I8
tp18
a(S'p2_du'
I2
tp19
a(S'p2_vo'
I15
tp20
a(S'w'
I1
tp21
a(S'p2_se'
I1
tp22
a(S'p2_sn'
I1
tp23
a(S'p2_ll'
I1
tp24
a(S'p2_th'
I3
tp25
a(S'p2_tl'
I249
tp26
a(S'w'
I8
tp27
a(S'p1_du'
I2
tp28
a(S'p1_vo'
I15
tp29
a(S'p1_se'
I1
tp30
a(S'p1_sn'
I1
tp31
a(S'w'
I1
tp32
a(S'p1_ll'
I1
tp33
a(S'p1_th'
I3
tp34
a(S'p1_tl'
I249
tp35
a(S'w'
I706
tp36
a(S'no_ll'
I1
tp37
a(S'w'
I1
tp38
a(S'no_np'
I0
tp39
a(S'w'
I8
tp40
a(S'p2_tl'
I250
tp41
a(S'w'
I5
tp42
a(S'p1_tl'
I250
tp43
a(S'w'
I723
tp44
a(S'tr_ll'
I1
tp45
a(S'tr_tl'
I252
tp46
a(S'w'
I4
tp47
a(S'p2_tl'
I250
tp48
a(S'w'
I4
tp49
a(S'p1_tl'
I250
tp50
a(S'w'
I726
tp51
a(S'p2_tl'
I250
tp52
a(S'w'
I6
tp53
a(S'p1_tl'
I249
tp54
a(S'w'
I728
tp55
a(S'p2_tl'
I250
tp56
a(S'w'
I4
tp57
a(S'p1_tl'
I249
tp58
a(S'w'
I731
tp59
a(S'p2_tl'
I249
tp60
a(S'w'
I6
tp61
a(S'p1_tl'
I248
tp62
a(S'w'
I726
tp63
a(S'p2_tl'
I249
tp64
a(S'w'
I4
tp65
a(S'p1_tl'
I248
tp66
a(S'w'
I730
tp67
a(S'p2_tl'
I249
tp68
a(S'w'
I6
tp69
a(S'p1_tl'
I249
tp70
a(S'w'
I728
tp71
a(S'p2_tl'
I249
tp72
a(S'w'
I4
tp73
a(S'p1_tl'
I249
tp74
a(S'w'
I733
tp75
a(S'p2_tl'
I248
tp76
a(S'w'
I5
tp77
a(S'p1_tl'
I250
tp78
a(S'w'
I725
tp79
a(S'p2_tl'
I248
tp80
a(S'w'
I4
tp81
a(S'p2_ll'
I1
tp82
a(S'p2_th'
I2
tp83
a(S'w'
I1
tp84
a(S'p2_tl'
I250
tp85
a(S'w'
I3
tp86
a(S'p1_tl'
I250
tp87
a(S'w'
I4
tp88
a(S'p1_ll'
I1
tp89
a(S'p1_th'
I2
tp90
a(S'p1_tl'
I250
tp91
a(S'w'
I722
tp92
a(S'p2_tl'
I249
tp93
a(S'w'
I6
tp94
a(S'p1_tl'
I250
tp95
a(S'w'
I728
tp96
a(S'p2_tl'
I249
tp97
a(S'w'
I4
tp98
a(S'p1_tl'
I250
tp99
a(S'w'
I732
tp100
a(S'p2_tl'
I250
tp101
a(S'w'
I6
tp102
a(S'p1_tl'
I249
tp103
a(S'w'
I726
tp104
a(S'p2_tl'
I250
tp105
a(S'w'
I4
tp106
a(S'p1_tl'
I249
tp107
a(S'w'
I729
tp108
a(S'p2_tl'
I250
tp109
a(S'w'
I6
tp110
a(S'p1_tl'
I250
tp111
a(S'w'
I728
tp112
a(S'p2_tl'
I250
tp113
a(S'w'
I4
tp114
a(S'p1_tl'
I250
tp115
a(S'w'
I732
tp116
a(S'p2_tl'
I251
tp117
a(S'w'
I6
tp118
a(S'p1_tl'
I251
tp119
a(S'w'
I726
tp120
a(S'p2_tl'
I251
tp121
a(S'w'
I4
tp122
a(S'p1_tl'
I251
tp123
a(S'w'
I730
tp124
a(S'p2_tl'
I251
tp125
a(S'w'
I6
tp126
a(S'p1_tl'
I250
tp127
a(S'w'
I724
tp128
a(S'no_ll'
I1
tp129
a(S'w'
I1
tp130
a(S'no_np'
I4
tp131
a(S'w'
I6
tp132
a(S'tr_ll'
I1
tp133
a(S'tr_tl'
I83
tp134
a(S'w'
I4
tp135
a(S'p2_tl'
I251
tp136
a(S'w'
I4
tp137
a(S'p2_ll'
I1
tp138
a(S'p2_tl'
I166
tp139
a(S'w'
I3
tp140
a(S'p1_tl'
I250
tp141
a(S'w'
I4
tp142
a(S'p1_ll'
I1
tp143
a(S'w'
I1
tp144
a(S'p1_tl'
I166
tp145
a(S'w'
I711
tp146
a(S'no_ll'
I1
tp147
a(S'w'
I1
tp148
a(S'no_np'
I0
tp149
a(S'w'
I8
tp150
a(S'p2_tl'
I166
tp151
a(S'w'
I6
tp152
a(S'p1_tl'
I165
tp153
a(S'w'
I722
tp154
a(S'tr_ll'
I1
tp155
a(S'tr_tl'
I252
tp156
a(S'w'
I4
tp157
a(S'p2_tl'
I166
tp158
a(S'w'
I4
tp159
a(S'p1_tl'
I165
tp160
a(S'w'
I726
tp161
a(S'p2_tl'
I166
tp162
a(S'w'
I6
tp163
a(S'p1_tl'
I166
tp164
a(S'w'
I728
tp165
a(S'p2_tl'
I166
tp166
a(S'w'
I4
tp167
a(S'p1_tl'
I166
tp168
a(S'w'
I732
tp169
a(S'p2_tl'
I165
tp170
a(S'w'
I5
tp171
a(S'p1_tl'
I167
tp172
a(S'w'
I726
tp173
a(S'p2_tl'
I165
tp174
a(S'w'
I4
tp175
a(S'p1_tl'
I167
tp176
a(S'w'
I730
tp177
a(S'p2_tl'
I165
tp178
a(S'w'
I6
tp179
a(S'p1_tl'
I166
tp180
a(S'w'
I728
tp181
a(S'p2_tl'
I165
tp182
a(S'w'
I4
tp183
a(S'p1_tl'
I166
tp184
a(S'w'
I731
tp185
a(S'p2_tl'
I166
tp186
a(S'w'
I6
tp187
a(S'p1_tl'
I165
tp188
a(S'w'
I723
tp189
a(S'no_ll'
I1
tp190
a(S'w'
I1
tp191
a(S'no_np'
I11
tp192
a(S'w'
I6
tp193
a(S'tr_ll'
I1
tp194
a(S'tr_th'
I0
tp195
a(S'tr_tl'
I190
tp196
a(S'w'
I4
tp197
a(S'p2_tl'
I166
tp198
a(S'w'
I4
tp199
a(S'p2_ll'
I1
tp200
a(S'p2_tl'
I250
tp201
a(S'w'
I3
tp202
a(S'p1_tl'
I165
tp203
a(S'w'
I4
tp204
a(S'p1_ll'
I1
tp205
a(S'w'
I1
tp206
a(S'p1_tl'
I58
tp207
a(S'w'
I711
tp208
a(S'no_ll'
I1
tp209
a(S'w'
I1
tp210
a(S'no_np'
I3
tp211
a(S'w'
I6
tp212
a(S'p2_tl'
I250
tp213
a(S'w'
I5
tp214
a(S'p1_tl'
I58
tp215
a(S'w'
I725
tp216
a(S'tr_ll'
I1
tp217
a(S'tr_th'
I1
tp218
a(S'tr_tl'
I252
tp219
a(S'w'
I4
tp220
a(S'p2_tl'
I250
tp221
a(S'w'
I4
tp222
a(S'p1_tl'
I58
tp223
a(S'w'
I728
tp224
a(S'p2_tl'
I251
tp225
a(S'w'
I6
tp226
a(S'p1_tl'
I59
tp227
a(S'w'
I725
tp228
a(S'p2_tl'
I251
tp229
a(S'w'
I4
tp230
a(S'p1_tl'
I59
tp231
a(S'w'
I730
tp232
a(S'p2_tl'
I251
tp233
a(S'w'
I6
tp234
a(S'p1_tl'
I58
tp235
a(S'w'
I728
tp236
a(S'p2_tl'
I251
tp237
a(S'w'
I4
tp238
a(S'p1_tl'
I58
tp239
a(S'w'
I732
tp240
a(S'p2_tl'
I250
tp241
a(S'w'
I6
tp242
a(S'p1_tl'
I57
tp243
a(S'w'
I726
tp244
a(S'p2_tl'
I250
tp245
a(S'w'
I4
tp246
a(S'p1_tl'
I57
tp247
a(S'w'
I729
tp248
a(S'p2_tl'
I250
tp249
a(S'w'
I6
tp250
a(S'p1_tl'
I58
tp251
a(S'w'
I728
tp252
a(S'p2_tl'
I250
tp253
a(S'w'
I4
tp254
a(S'p1_tl'
I58
tp255
a(S'w'
I732
tp256
a(S'p2_tl'
I249
tp257
a(S'w'
I6
tp258
a(S'p1_tl'
I59
tp259
a(S'w'
I726
tp260
a(S'p2_tl'
I249
tp261
a(S'w'
I4
tp262
a(S'p1_tl'
I59
tp263
a(S'w'
I730
tp264
a(S'p2_tl'
I249
tp265
a(S'w'
I6
tp266
a(S'p1_tl'
I58
tp267
a(S'w'
I727
tp268
a(S'p2_tl'
I249
tp269
a(S'w'
I4
tp270
a(S'p1_tl'
I58
tp271
a(S'w'
I732
tp272
a(S'p2_tl'
I250
tp273
a(S'w'
I6
tp274
a(S'p1_tl'
I57
tp275
a(S'w'
I726
tp276
a(S'p2_tl'
I250
tp277
a(S'w'
I4
tp278
a(S'p1_tl'
I57
tp279
a(S'w'
I730
tp280
a(S'p2_tl'
I250
tp281
a(S'w'
I6
tp282
a(S'p1_tl'
I58
tp283
a(S'w'
I728
tp284
a(S'p2_tl'
I250
tp285
a(S'w'
I4
tp286
a(S'p1_tl'
I58
tp287
a(S'w'
I731
tp288
a(S'p2_tl'
I251
tp289
a(S'w'
I6
tp290
a(S'p1_tl'
I59
tp291
a(S'w'
I723
tp292
a(S'no_ll'
I1
tp293
a(S'w'
I1
tp294
a(S'no_np'
I4
tp295
a(S'w'
I6
tp296
a(S'tr_ll'
I1
tp297
a(S'tr_tl'
I83
tp298
a(S'w'
I4
tp299
a(S'p2_tl'
I251
tp300
a(S'w'
I4
tp301
a(S'p2_ll'
I1
tp302
a(S'p2_tl'
I166
tp303
a(S'w'
I3
tp304
a(S'p1_tl'
I59
tp305
a(S'w'
I4
tp306
a(S'p1_ll'
I1
tp307
a(S'p1_th'
I1
tp308
a(S'w'
I1
tp309
a(S'p1_tl'
I252
tp310
a(S'w'
I711
tp311
a(S'no_ll'
I1
tp312
a(S'w'
I1
tp313
a(S'no_np'
I0
tp314
a(S'w'
I6
tp315
a(S'p2_tl'
I167
tp316
a(S'w'
I6
tp317
a(S'p1_tl'
I252
tp318
a(S'w'
I724
tp319
a(S'tr_ll'
I1
tp320
a(S'tr_tl'
I252
tp321
a(S'w'
I4
tp322
a(S'p2_tl'
I167
tp323
a(S'w'
I4
tp324
a(S'p1_tl'
I252
tp325
a(S'w'
I727
tp326
a(S'p2_tl'
I166
tp327
a(S'w'
I6
tp328
a(S'p1_tl'
I251
tp329
a(S'w'
I726
tp330
a(S'p2_tl'
I166
tp331
a(S'w'
I4
tp332
a(S'p1_tl'
I251
tp333
a(S'w'
I730
tp334
a(S'p2_tl'
I166
tp335
a(S'w'
I6
tp336
a(S'p1_tl'
I252
tp337
a(S'w'
I728
tp338
a(S'p2_tl'
I166
tp339
a(S'w'
I4
tp340
a(S'p1_tl'
I252
tp341
a(S'w'
I732
tp342
a(S'p2_tl'
I165
tp343
a(S'w'
I6
tp344
a(S'p1_tl'
I253
tp345
a(S'w'
I725
tp346
a(S'p2_tl'
I165
tp347
a(S'w'
I4
tp348
a(S'p1_tl'
I253
tp349
a(S'w'
I730
tp350
a(S'p2_tl'
I165
tp351
a(S'w'
I6
tp352
a(S'p1_tl'
I252
tp353
a(S'w'
I729
tp354
a(S'no_ll'
I1
tp355
a(S'no_np'
I4
tp356
a(S'w'
I10
tp357
a(S'tr_ll'
I1
tp358
a(S'tr_tl'
I83
tp359
a(S'w'
I4
tp360
a(S'p2_tl'
I165
tp361
a(S'w'
I7
tp362
a(S'p2_ll'
I1
tp363
a(S'p2_th'
I3
tp364
a(S'w'
I1
tp365
a(S'p2_tl'
I249
tp366
a(S'w'
I3
tp367
a(S'p1_tl'
I252
tp368
a(S'w'
I8
tp369
a(S'p1_ll'
I1
tp370
a(S'p1_th'
I3
tp371
a(S'p1_tl'
I249
tp372
a(S'w'
I697
tp373
a(S'no_ll'
I1
tp374
a(S'w'
I1
tp375
a(S'no_np'
I0
tp376
a(S'w'
I8
tp377
a(S'p2_tl'
I250
tp378
a(S'w'
I5
tp379
a(S'p1_tl'
I250
tp380
a(S'w'
I723
tp381
a(S'tr_ll'
I1
tp382
a(S'tr_tl'
I252
tp383
a(S'w'
I4
tp384
a(S'p2_tl'
I250
tp385
a(S'w'
I4
tp386
a(S'p1_tl'
I250
tp387
a(S'w'
I725
tp388
a(S'p2_tl'
I250
tp389
a(S'w'
I6
tp390
a(S'p1_tl'
I249
tp391
a(S'w'
I728
tp392
a(S'p2_tl'
I250
tp393
a(S'w'
I4
tp394
a(S'p1_tl'
I249
tp395
a(S'w'
I732
tp396
a(S'p2_tl'
I249
tp397
a(S'w'
I6
tp398
a(S'p1_tl'
I248
tp399
a(S'w'
I726
tp400
a(S'p2_tl'
I249
tp401
a(S'w'
I4
tp402
a(S'p1_tl'
I248
tp403
a(S'w'
I730
tp404
a(S'p2_tl'
I249
tp405
a(S'w'
I6
tp406
a(S'p1_tl'
I249
tp407
a(S'w'
I727
tp408
a(S'p2_tl'
I249
tp409
a(S'w'
I4
tp410
a(S'p1_tl'
I249
tp411
a(S'w'
I732
tp412
a(S'p2_tl'
I248
tp413
a(S'w'
I6
tp414
a(S'p1_tl'
I250
tp415
a(S'w'
I726
tp416
a(S'p2_tl'
I248
tp417
a(S'w'
I4
tp418
a(S'p2_ll'
I1
tp419
a(S'p2_th'
I2
tp420
a(S'w'
I1
tp421
a(S'p2_tl'
I250
tp422
a(S'w'
I3
tp423
a(S'p1_tl'
I250
tp424
a(S'w'
I4
tp425
a(S'p1_ll'
I1
tp426
a(S'p1_th'
I2
tp427
a(S'p1_tl'
I250
tp428
a(S'w'
I722
tp429
a(S'p2_tl'
I249
tp430
a(S'w'
I6
tp431
a(S'p1_tl'
I250
tp432
a(S'w'
I728
tp433
a(S'p2_tl'
I249
tp434
a(S'w'
I4
tp435
a(S'p1_tl'
I250
tp436
a(S'w'
I731
tp437
a(S'p2_tl'
I250
tp438
a(S'w'
I6
tp439
a(S'p1_tl'
I249
tp440
a(S'w'
I726
tp441
a(S'p2_tl'
I250
tp442
a(S'w'
I4
tp443
a(S'p1_tl'
I249
tp444
a(S'w'
I730
tp445
a(S'p2_tl'
I250
tp446
a(S'w'
I6
tp447
a(S'p1_tl'
I250
tp448
a(S'w'
I728
tp449
a(S'p2_tl'
I250
tp450
a(S'w'
I4
tp451
a(S'p1_tl'
I250
tp452
a(S'w'
I731
tp453
a(S'p2_tl'
I251
tp454
a(S'w'
I6
tp455
a(S'p1_tl'
I251
tp456
a(S'w'
I726
tp457
a(S'p2_tl'
I251
tp458
a(S'w'
I4
tp459
a(S'p1_tl'
I251
tp460
a(S'w'
I730
tp461
a(S'p2_tl'
I251
tp462
a(S'w'
I6
tp463
a(S'p1_tl'
I250
tp464
a(S'w'
I725
tp465
a(S'no_ll'
I1
tp466
a(S'w'
I1
tp467
a(S'no_np'
I4
tp468
a(S'w'
I6
tp469
a(S'tr_ll'
I1
tp470
a(S'tr_tl'
I83
tp471
a(S'w'
I4
tp472
a(S'p2_tl'
I251
tp473
a(S'w'
I4
tp474
a(S'p2_ll'
I1
tp475
a(S'p2_tl'
I166
tp476
a(S'w'
I3
tp477
a(S'p1_tl'
I250
tp478
a(S'w'
I4
tp479
a(S'p1_ll'
I1
tp480
a(S'w'
I1
tp481
a(S'p1_tl'
I166
tp482
a(S'w'
I711
tp483
a(S'no_ll'
I1
tp484
a(S'w'
I1
tp485
a(S'no_np'
I0
tp486
a(S'w'
I8
tp487
a(S'p2_tl'
I166
tp488
a(S'w'
I6
tp489
a(S'p1_tl'
I165
tp490
a(S'w'
I721
tp491
a(S'tr_ll'
I1
tp492
a(S'tr_tl'
I252
tp493
a(S'w'
I4
tp494
a(S'p2_tl'
I166
tp495
a(S'w'
I4
tp496
a(S'p1_tl'
I165
tp497
a(S'w'
I726
tp498
a(S'p2_tl'
I166
tp499
a(S'w'
I6
tp500
a(S'p1_tl'
I166
tp501
a(S'w'
I728
tp502
a(S'p2_tl'
I166
tp503
a(S'w'
I4
tp504
a(S'p1_tl'
I166
tp505
a(S'w'
I732
tp506
a(S'p2_tl'
I165
tp507
a(S'w'
I6
tp508
a(S'p1_tl'
I167
tp509
a(S'w'
I726
tp510
a(S'p2_tl'
I165
tp511
a(S'w'
I4
tp512
a(S'p1_tl'
I167
tp513
a(S'w'
I729
tp514
a(S'p2_tl'
I165
tp515
a(S'w'
I6
tp516
a(S'p1_tl'
I166
tp517
a(S'w'
I728
tp518
a(S'p2_tl'
I165
tp519
a(S'w'
I4
tp520
a(S'p1_tl'
I166
tp521
a(S'w'
I732
tp522
a(S'p2_tl'
I166
tp523
a(S'w'
I6
tp524
a(S'p1_tl'
I165
tp525
a(S'w'
I723
tp526
a(S'no_ll'
I1
tp527
a(S'w'
I1
tp528
a(S'no_np'
I11
tp529
a(S'w'
I6
tp530
a(S'tr_ll'
I1
tp531
a(S'tr_th'
I0
tp532
a(S'tr_tl'
I190
tp533
a(S'w'
I4
tp534
a(S'p2_tl'
I166
tp535
a(S'w'
I4
tp536
a(S'p2_ll'
I1
tp537
a(S'p2_tl'
I250
tp538
a(S'w'
I3
tp539
a(S'p1_tl'
I165
tp540
a(S'w'
I4
tp541
a(S'p1_ll'
I1
tp542
a(S'w'
I1
tp543
a(S'p1_tl'
I58
tp544
a(S'w'
I711
tp545
a(S'no_ll'
I1
tp546
a(S'w'
I1
tp547
a(S'no_np'
I3
tp548
a(S'w'
I6
tp549
a(S'p2_tl'
I250
tp550
a(S'w'
I5
tp551
a(S'p1_tl'
I58
tp552
a(S'w'
I724
tp553
a(S'tr_ll'
I1
tp554
a(S'tr_th'
I1
tp555
a(S'tr_tl'
I252
tp556
a(S'w'
I4
tp557
a(S'p2_tl'
I250
tp558
a(S'w'
I4
tp559
a(S'p1_tl'
I58
tp560
a(S'w'
I728
tp561
a(S'p2_tl'
I251
tp562
a(S'w'
I6
tp563
a(S'p1_tl'
I59
tp564
a(S'w'
I726
tp565
a(S'p2_tl'
I251
tp566
a(S'w'
I4
tp567
a(S'p1_tl'
I59
tp568
a(S'w'
I730
tp569
a(S'p2_tl'
I251
tp570
a(S'w'
I6
tp571
a(S'p1_tl'
I58
tp572
a(S'w'
I728
tp573
a(S'p2_tl'
I251
tp574
a(S'w'
I4
tp575
a(S'p1_tl'
I58
tp576
a(S'w'
I731
tp577
a(S'p2_tl'
I250
tp578
a(S'w'
I6
tp579
a(S'p1_tl'
I57
tp580
a(S'w'
I726
tp581
a(S'p2_tl'
I250
tp582
a(S'w'
I4
tp583
a(S'p1_tl'
I57
tp584
a(S'w'
I730
tp585
a(S'p2_tl'
I250
tp586
a(S'w'
I6
tp587
a(S'p1_tl'
I58
tp588
a(S'w'
I728
tp589
a(S'p2_tl'
I250
tp590
a(S'w'
I4
tp591
a(S'p1_tl'
I58
tp592
a(S'w'
I731
tp593
a(S'p2_tl'
I249
tp594
a(S'w'
I6
tp595
a(S'p1_tl'
I59
tp596
a(S'w'
I726
tp597
a(S'p2_tl'
I249
tp598
a(S'w'
I4
tp599
a(S'p1_tl'
I59
tp600
a(S'w'
I730
tp601
a(S'p2_tl'
I249
tp602
a(S'w'
I6
tp603
a(S'p1_tl'
I58
tp604
a(S'w'
I728
tp605
a(S'p2_tl'
I249
tp606
a(S'w'
I4
tp607
a(S'p1_tl'
I58
tp608
a(S'w'
I732
tp609
a(S'p2_tl'
I250
tp610
a(S'w'
I6
tp611
a(S'p1_tl'
I57
tp612
a(S'w'
I725
tp613
a(S'p2_tl'
I250
tp614
a(S'w'
I4
tp615
a(S'p1_tl'
I57
tp616
a(S'w'
I730
tp617
a(S'p2_tl'
I250
tp618
a(S'w'
I6
tp619
a(S'p1_tl'
I58
tp620
a(S'w'
I728
tp621
a(S'p2_tl'
I250
tp622
a(S'w'
I4
tp623
a(S'p1_tl'
I58
tp624
a(S'w'
I732
tp625
a(S'p2_tl'
I251
tp626
a(S'w'
I6
tp627
a(S'p1_tl'
I59
tp628
a(S'w'
I723
tp629
a(S'no_ll'
I1
tp630
a(S'w'
I1
tp631
a(S'no_np'
I4
tp632
a(S'w'
I6
tp633
a(S'tr_ll'
I1
tp634
a(S'tr_tl'
I83
tp635
a(S'w'
I4
tp636
a(S'p2_tl'
I251
tp637
a(S'w'
I4
tp638
a(S'p2_ll'
I1
tp639
a(S'p2_tl'
I166
tp640
a(S'w'
I3
tp641
a(S'p1_tl'
I59
tp642
a(S'w'
I4
tp643
a(S'p1_ll'
I1
tp644
a(S'p1_th'
I1
tp645
a(S'w'
I1
tp646
a(S'p1_tl'
I252
tp647
a(S'w'
I710
tp648
a(S'no_ll'
I1
tp649
a(S'w'
I1
tp650
a(S'no_np'
I0
tp651
a(S'w'
I6
tp652
a(S'p2_tl'
I167
tp653
a(S'w'
I6
tp654
a(S'p1_tl'
I252
tp655
a(S'w'
I724
tp656
a(S'tr_ll'
I1
tp657
a(S'tr_tl'
I252
tp658
a(S'w'
I4
tp659
a(S'p2_tl'
I167
tp660
a(S'w'
I4
tp661
a(S'p1_tl'
I252
tp662
a(S'w'
I728
tp663
a(S'p2_tl'
I166
tp664
a(S'w'
I6
tp665
a(S'p1_tl'
I251
tp666
a(S'w'
I726
tp667
a(S'p2_tl'
I166
tp668
a(S'w'
I4
tp669
a(S'p1_tl'
I251
tp670
a(S'w'
I730
tp671
a(S'p2_tl'
I166
tp672
a(S'w'
I6
tp673
a(S'p1_tl'
I252
tp674
a(S'w'
I727
tp675
a(S'p2_tl'
I166
tp676
a(S'w'
I4
tp677
a(S'p1_tl'
I252
tp678
a(S'w'
I732
tp679
a(S'p2_tl'
I165
tp680
a(S'w'
I6
tp681
a(S'p1_tl'
I253
tp682
a(S'w'
I726
tp683
a(S'p2_tl'
I165
tp684
a(S'w'
I4
tp685
a(S'p1_tl'
I253
tp686
a(S'w'
I730
tp687
a(S'p2_tl'
I165
tp688
a(S'w'
I6
tp689
a(S'p1_tl'
I252
tp690
a(S'w'
I726
tp691
a(S'no_ll'
I1
tp692
a(S'w'
I1
tp693
a(S'no_np'
I4
tp694
a(S'w'
I7
tp695
a(S'tr_ll'
I1
tp696
a(S'w'
I1
tp697
a(S'tr_tl'
I83
tp698
a(S'w'
I3
tp699
a(S'p2_tl'
I165
tp700
a(S'w'
I5
tp701
a(S'p2_ll'
I1
tp702
a(S'w'
I1
tp703
a(S'p2_tl'
I128
tp704
a(S'w'
I3
tp705
a(S'p1_tl'
I252
tp706
a(S'w'
I5
tp707
a(S'p1_ll'
I1
tp708
a(S'w'
I1
tp709
a(S'p1_tl'
I171
tp710
a(S'w'
I705
tp711
a(S'no_ll'
I1
tp712
a(S'w'
I1
tp713
a(S'no_np'
I0
tp714
a(S'w'
I7
tp715
a(S'p2_tl'
I128
tp716
a(S'w'
I7
tp717
a(S'p1_tl'
I170
tp718
a(S'w'
I722
tp719
a(S'tr_ll'
I1
tp720
a(S'tr_th'
I2
tp721
a(S'tr_tl'
I128
tp722
a(S'w'
I4
tp723
a(S'p2_tl'
I128
tp724
a(S'w'
I4
tp725
a(S'p1_tl'
I170
tp726
a(S'w'
I726
tp727
a(S'p2_tl'
I128
tp728
a(S'w'
I6
tp729
a(S'p1_tl'
I171
tp730
a(S'w'
I728
tp731
a(S'p2_tl'
I128
tp732
a(S'w'
I4
tp733
a(S'p1_tl'
I171
tp734
a(S'w'
I731
tp735
a(S'p2_tl'
I129
tp736
a(S'w'
I6
tp737
a(S'p1_tl'
I172
tp738
a(S'w'
I726
tp739
a(S'p2_tl'
I129
tp740
a(S'w'
I4
tp741
a(S'p1_tl'
I172
tp742
a(S'w'
I730
tp743
a(S'p2_tl'
I129
tp744
a(S'w'
I6
tp745
a(S'p1_tl'
I171
tp746
a(S'w'
I728
tp747
a(S'p2_tl'
I129
tp748
a(S'w'
I4
tp749
a(S'p1_tl'
I171
tp750
a(S'w'
I732
tp751
a(S'p2_tl'
I128
tp752
a(S'w'
I6
tp753
a(S'p1_tl'
I170
tp754
a(S'w'
I722
tp755
a(S'no_ll'
I1
tp756
a(S'w'
I1
tp757
a(S'no_np'
I11
tp758
a(S'w'
I7
tp759
a(S'tr_lr'
I2
tp760
a(S'tr_ll'
I1
tp761
a(S'tr_th'
I0
tp762
a(S'w'
I1
tp763
a(S'tr_tl'
I190
tp764
a(S'w'
I3
tp765
a(S'p2_tl'
I128
tp766
a(S'w'
I4
tp767
a(S'p1_tl'
I170
tp768
a(S'w'
I4
tp769
a(S'p1_ll'
I1
tp770
a(S'p1_tl'
I125
tp771
a(S'w'
I714
tp772
a(S'no_ll'
I1
tp773
a(S'w'
I1
tp774
a(S'no_np'
I3
tp775
a(S'w'
I6
tp776
a(S'p2_tl'
I128
tp777
a(S'w'
I5
tp778
a(S'p1_tl'
I125
tp779
a(S'w'
I726
tp780
a(S'tr_lr'
I0
tp781
a(S'w'
I1
tp782
a(S'tr_ll'
I1
tp783
a(S'tr_th'
I6
tp784
a(S'tr_tl'
I174
tp785
a(S'w'
I4
tp786
a(S'p2_tl'
I128
tp787
a(S'w'
I4
tp788
a(S'p1_tl'
I125
tp789
a(S'w'
I726
tp790
a(S'p2_tl'
I127
tp791
a(S'w'
I6
tp792
a(S'p1_tl'
I126
tp793
a(S'w'
I726
tp794
a(S'p2_tl'
I127
tp795
a(S'w'
I4
tp796
a(S'p1_tl'
I126
tp797
a(S'w'
I729
tp798
a(S'p2_tl'
I127
tp799
a(S'w'
I6
tp800
a(S'p1_tl'
I125
tp801
a(S'w'
I728
tp802
a(S'p2_tl'
I127
tp803
a(S'w'
I4
tp804
a(S'p1_tl'
I125
tp805
a(S'w'
I732
tp806
a(S'p2_tl'
I128
tp807
a(S'w'
I6
tp808
a(S'p1_tl'
I124
tp809
a(S'w'
I726
tp810
a(S'p2_tl'
I128
tp811
a(S'w'
I4
tp812
a(S'p1_tl'
I124
tp813
a(S'w'
I730
tp814
a(S'p2_tl'
I128
tp815
a(S'w'
I6
tp816
a(S'p1_tl'
I125
tp817
a(S'w'
I724
tp818
a(S'no_ll'
I1
tp819
a(S'w'
I1
tp820
a(S'no_np'
I4
tp821
a(S'w'
I7
tp822
a(S'tr_lr'
I21
tp823
a(S'tr_ll'
I1
tp824
a(S'tr_th'
I1
tp825
a(S'w'
I1
tp826
a(S'tr_tl'
I83
tp827
a(S'w'
I3
tp828
a(S'p2_tl'
I128
tp829
a(S'w'
I4
tp830
a(S'p2_ll'
I1
tp831
a(S'w'
I1
tp832
a(S'p2_tl'
I128
tp833
a(S'w'
I3
tp834
a(S'p1_tl'
I125
tp835
a(S'w'
I4
tp836
a(S'p1_ll'
I1
tp837
a(S'p1_tl'
I171
tp838
a(S'w'
I710
tp839
a(S'no_ll'
I1
tp840
a(S'w'
I1
tp841
a(S'no_np'
I0
tp842
a(S'w'
I8
tp843
a(S'p2_tl'
I129
tp844
a(S'w'
I5
tp845
a(S'p1_tl'
I172
tp846
a(S'w'
I723
tp847
a(S'tr_ll'
I1
tp848
a(S'tr_th'
I2
tp849
a(S'tr_tl'
I128
tp850
a(S'w'
I4
tp851
a(S'p2_tl'
I129
tp852
a(S'w'
I4
tp853
a(S'p1_tl'
I172
tp854
a(S'w'
I726
tp855
a(S'p2_tl'
I129
tp856
a(S'w'
I6
tp857
a(S'p1_tl'
I171
tp858
a(S'w'
I728
tp859
a(S'p2_tl'
I129
tp860
a(S'w'
I4
tp861
a(S'p1_tl'
I171
tp862
a(S'w'
I731
tp863
a(S'p2_tl'
I128
tp864
a(S'w'
I6
tp865
a(S'p1_tl'
I170
tp866
a(S'w'
I726
tp867
a(S'p2_tl'
I128
tp868
a(S'w'
I4
tp869
a(S'p1_tl'
I170
tp870
a(S'w'
I730
tp871
a(S'p2_tl'
I128
tp872
a(S'w'
I6
tp873
a(S'p1_tl'
I171
tp874
a(S'w'
I728
tp875
a(S'p2_tl'
I128
tp876
a(S'w'
I4
tp877
a(S'p1_tl'
I171
tp878
a(S'w'
I731
tp879
a(S'p2_tl'
I127
tp880
a(S'w'
I6
tp881
a(S'p1_tl'
I172
tp882
a(S'w'
I723
tp883
a(S'no_ll'
I1
tp884
a(S'w'
I1
tp885
a(S'no_np'
I11
tp886
a(S'w'
I6
tp887
a(S'tr_ll'
I1
tp888
a(S'tr_th'
I0
tp889
a(S'tr_tl'
I190
tp890
a(S'w'
I4
tp891
a(S'p2_tl'
I127
tp892
a(S'w'
I4
tp893
a(S'p2_ll'
I1
tp894
a(S'p2_tl'
I250
tp895
a(S'w'
I3
tp896
a(S'p1_tl'
I172
tp897
a(S'w'
I4
tp898
a(S'p1_ll'
I1
tp899
a(S'w'
I1
tp900
a(S'p1_tl'
I197
tp901
a(S'w'
I711
tp902
a(S'no_ll'
I1
tp903
a(S'w'
I1
tp904
a(S'no_np'
I3
tp905
a(S'w'
I6
tp906
a(S'p2_tl'
I249
tp907
a(S'w'
I6
tp908
a(S'p1_tl'
I197
tp909
a(S'w'
I724
tp910
a(S'tr_ll'
I1
tp911
a(S'tr_th'
I2
tp912
a(S'tr_tl'
I58
tp913
a(S'w'
I4
tp914
a(S'p2_tl'
I249
tp915
a(S'w'
I4
tp916
a(S'p1_tl'
I197
tp917
a(S'w'
I728
tp918
a(S'p2_tl'
I250
tp919
a(S'w'
I6
tp920
a(S'p1_tl'
I196
tp921
a(S'w'
I725
tp922
a(S'p2_tl'
I250
tp923
a(S'w'
I4
tp924
a(S'p1_tl'
I196
tp925
a(S'w'
I730
tp926
a(S'p2_tl'
I250
tp927
a(S'w'
I6
tp928
a(S'p1_tl'
I197
tp929
a(S'w'
I728
tp930
a(S'p2_tl'
I250
tp931
a(S'w'
I4
tp932
a(S'p1_tl'
I197
tp933
a(S'w'
I732
tp934
a(S'p2_tl'
I251
tp935
a(S'w'
I6
tp936
a(S'p1_tl'
I198
tp937
a(S'w'
I726
tp938
a(S'p2_tl'
I251
tp939
a(S'w'
I4
tp940
a(S'p1_tl'
I198
tp941
a(S'w'
I729
tp942
a(S'p2_tl'
I251
tp943
a(S'w'
I6
tp944
a(S'p1_tl'
I197
tp945
a(S'w'
I725
tp946
a(S'no_ll'
I1
tp947
a(S'w'
I1
tp948
a(S'no_np'
I4
tp949
a(S'w'
I7
tp950
a(S'tr_lr'
I2
tp951
a(S'tr_ll'
I1
tp952
a(S'tr_th'
I1
tp953
a(S'w'
I1
tp954
a(S'tr_tl'
I83
tp955
a(S'w'
I3
tp956
a(S'p2_tl'
I251
tp957
a(S'w'
I4
tp958
a(S'p1_tl'
I197
tp959
a(S'w'
I4
tp960
a(S'p1_ll'
I1
tp961
a(S'p1_th'
I2
tp962
a(S'p1_tl'
I58
tp963
a(S'w'
I714
tp964
a(S'no_ll'
I1
tp965
a(S'w'
I1
tp966
a(S'no_np'
I0
tp967
a(S'w'
I8
tp968
a(S'p2_tl'
I250
tp969
a(S'w'
I6
tp970
a(S'p1_tl'
I57
tp971
a(S'w'
I723
tp972
a(S'tr_lr'
I0
tp973
a(S'w'
I1
tp974
a(S'tr_ll'
I1
tp975
a(S'tr_th'
I6
tp976
a(S'tr_tl'
I174
tp977
a(S'w'
I4
tp978
a(S'p2_tl'
I250
tp979
a(S'w'
I4
tp980
a(S'p1_tl'
I57
tp981
a(S'w'
I724
tp982
a(S'p2_tl'
I250
tp983
a(S'w'
I6
tp984
a(S'p1_tl'
I58
tp985
a(S'w'
I727
tp986
a(S'p2_tl'
I250
tp987
a(S'w'
I4
tp988
a(S'p1_tl'
I58
tp989
a(S'w'
I732
tp990
a(S'p2_tl'
I249
tp991
a(S'w'
I6
tp992
a(S'p1_tl'
I59
tp993
a(S'w'
I726
tp994
a(S'p2_tl'
I249
tp995
a(S'w'
I4
tp996
a(S'p1_tl'
I59
tp997
a(S'w'
I730
tp998
a(S'p2_tl'
I249
tp999
a(S'w'
I6
tp1000
a(S'p1_tl'
I58
tp1001
a(S'w'
I728
tp1002
a(S'p2_tl'
I249
tp1003
a(S'w'
I4
tp1004
a(S'p1_tl'
I58
tp1005
a(S'w'
I731
tp1006
a(S'p2_tl'
I250
tp1007
a(S'w'
I6
tp1008
a(S'p1_tl'
I57
tp1009
a(S'w'
I723
tp1010
a(S'no_ll'
I1
tp1011
a(S'w'
I1
tp1012
a(S'no_np'
I4
tp1013
a(S'w'
I7
tp1014
a(S'tr_lr'
I21
tp1015
a(S'tr_ll'
I1
tp1016
a(S'tr_th'
I1
tp1017
a(S'w'
I1
tp1018
a(S'tr_tl'
I83
tp1019
a(S'w'
I3
tp1020
a(S'p2_tl'
I250
tp1021
a(S'w'
I4
tp1022
a(S'p2_ll'
I1
tp1023
a(S'w'
I1
tp1024
a(S'p2_tl'
I250
tp1025
a(S'w'
I3
tp1026
a(S'p1_tl'
I57
tp1027
a(S'w'
I4
tp1028
a(S'p1_ll'
I1
tp1029
a(S'p1_th'
I1
tp1030
a(S'p1_tl'
I197
tp1031
a(S'w'
I710
tp1032
a(S'no_ll'
I1
tp1033
a(S'w'
I1
tp1034
a(S'no_np'
I0
tp1035
a(S'w'
I6
tp1036
a(S'p2_tl'
I250
tp1037
a(S'w'
I5
tp1038
a(S'p1_tl'
I197
tp1039
a(S'w'
I725
tp1040
a(S'tr_ll'
I1
tp1041
a(S'tr_th'
I2
tp1042
a(S'tr_tl'
I58
tp1043
a(S'w'
I4
tp1044
a(S'p2_tl'
I250
tp1045
a(S'w'
I4
tp1046
a(S'p1_tl'
I197
tp1047
a(S'w'
I727
tp1048
a(S'p2_tl'
I251
tp1049
a(S'w'
I6
tp1050
a(S'p1_tl'
I198
tp1051
a(S'w'
I726
tp1052
a(S'p2_tl'
I251
tp1053
a(S'w'
I4
tp1054
a(S'p1_tl'
I198
tp1055
a(S'w'
I730
tp1056
a(S'p2_tl'
I251
tp1057
a(S'w'
I6
tp1058
a(S'p1_tl'
I197
tp1059
a(S'w'
I728
tp1060
a(S'p2_tl'
I251
tp1061
a(S'w'
I4
tp1062
a(S'p1_tl'
I197
tp1063
a(S'w'
I732
tp1064
a(S'p2_tl'
I250
tp1065
a(S'w'
I6
tp1066
a(S'p1_tl'
I196
tp1067
a(S'w'
I725
tp1068
a(S'p2_tl'
I250
tp1069
a(S'w'
I4
tp1070
a(S'p1_tl'
I196
tp1071
a(S'w'
I730
tp1072
a(S'p2_tl'
I250
tp1073
a(S'w'
I6
tp1074
a(S'p1_tl'
I197
tp1075
a(S'w'
I726
tp1076
a(S'no_vo'
I1
tp1077
a(S'w'
I1
tp1078
a(S'no_ll'
I1
tp1079
a(S'no_np'
I11
tp1080
a(S'w'
I6
tp1081
a(S'tr_ll'
I1
tp1082
a(S'tr_th'
I0
tp1083
a(S'w'
I1
tp1084
a(S'tr_tl'
I190
tp1085
a(S'w'
I3
tp1086
a(S'p2_tl'
I250
tp1087
a(S'w'
I4
tp1088
a(S'p2_ll'
I1
tp1089
a(S'w'
I1
tp1090
a(S'p2_tl'
I166
tp1091
a(S'w'
I3
tp1092
a(S'p1_tl'
I197
tp1093
a(S'w'
I4
tp1094
a(S'p1_ll'
I1
tp1095
a(S'p1_tl'
I252
tp1096
a(S'w'
I710
tp1097
a(S'no_ll'
I1
tp1098
a(S'w'
I1
tp1099
a(S'no_np'
I3
tp1100
a(S'w'
I8
tp1101
a(S'p2_tl'
I165
tp1102
a(S'w'
I6
tp1103
a(S'p1_tl'
I253
tp1104
a(S'w'
I722
tp1105
a(S'tr_ll'
I1
tp1106
a(S'tr_th'
I1
tp1107
a(S'tr_tl'
I252
tp1108
a(S'w'
I4
tp1109
a(S'p2_tl'
I165
tp1110
a(S'w'
I4
tp1111
a(S'p1_tl'
I253
tp1112
a(S'w'
I725
tp1113
a(S'p2_tl'
I165
tp1114
a(S'w'
I6
tp1115
a(S'p1_tl'
I252
tp1116
a(S'w'
I728
tp1117
a(S'p2_tl'
I165
tp1118
a(S'w'
I4
tp1119
a(S'p1_tl'
I252
tp1120
a(S'w'
I732
tp1121
a(S'p2_tl'
I166
tp1122
a(S'w'
I6
tp1123
a(S'p1_tl'
I251
tp1124
a(S'w'
I726
tp1125
a(S'p2_tl'
I166
tp1126
a(S'w'
I4
tp1127
a(S'p1_tl'
I251
tp1128
a(S'w'
I730
tp1129
a(S'p2_tl'
I166
tp1130
a(S'w'
I6
tp1131
a(S'p1_tl'
I252
tp1132
a(S'w'
I727
tp1133
a(S'p2_tl'
I166
tp1134
a(S'w'
I4
tp1135
a(S'p1_tl'
I252
tp1136
a(S'w'
I732
tp1137
a(S'p2_tl'
I167
tp1138
a(S'w'
I6
tp1139
a(S'p1_tl'
I253
tp1140
a(S'w'
I726
tp1141
a(S'p2_tl'
I167
tp1142
a(S'w'
I4
tp1143
a(S'p1_tl'
I253
tp1144
a(S'w'
I730
tp1145
a(S'p2_tl'
I167
tp1146
a(S'w'
I6
tp1147
a(S'p1_tl'
I252
tp1148
a(S'w'
I728
tp1149
a(S'p2_tl'
I167
tp1150
a(S'w'
I4
tp1151
a(S'p1_tl'
I252
tp1152
a(S'w'
I731
tp1153
a(S'p2_tl'
I166
tp1154
a(S'w'
I6
tp1155
a(S'p1_tl'
I251
tp1156
a(S'w'
I726
tp1157
a(S'p2_tl'
I166
tp1158
a(S'w'
I4
tp1159
a(S'p1_tl'
I251
tp1160
a(S'w'
I730
tp1161
a(S'p2_tl'
I166
tp1162
a(S'w'
I6
tp1163
a(S'p1_tl'
I252
tp1164
a(S'w'
I728
tp1165
a(S'p2_tl'
I166
tp1166
a(S'w'
I4
tp1167
a(S'p1_tl'
I252
tp1168
a(S'w'
I731
tp1169
a(S'p2_tl'
I165
tp1170
a(S'w'
I6
tp1171
a(S'p1_tl'
I253
tp1172
a(S'w'
I726
tp1173
a(S'p2_tl'
I165
tp1174
a(S'w'
I4
tp1175
a(S'p1_tl'
I253
tp1176
a(S'w'
I730
tp1177
a(S'p2_tl'
I165
tp1178
a(S'w'
I6
tp1179
a(S'p1_tl'
I252
tp1180
a(S'w'
I725
tp1181
a(S'no_ll'
I1
tp1182
a(S'w'
I1
tp1183
a(S'no_np'
I11
tp1184
a(S'w'
I6
tp1185
a(S'tr_ll'
I1
tp1186
a(S'tr_th'
I0
tp1187
a(S'tr_tl'
I190
tp1188
a(S'w'
I4
tp1189
a(S'p2_tl'
I165
tp1190
a(S'w'
I4
tp1191
a(S'p2_ll'
I1
tp1192
a(S'p2_tl'
I166
tp1193
a(S'w'
I3
tp1194
a(S'p1_tl'
I252
tp1195
a(S'w'
I4
tp1196
a(S'p1_ll'
I1
tp1197
a(S'w'
I1
tp1198
a(S'p1_tl'
I252
tp1199
a(S'w'
I711
tp1200
a(S'no_ll'
I1
tp1201
a(S'w'
I1
tp1202
a(S'no_np'
I3
tp1203
a(S'w'
I7
tp1204
a(S'p2_tl'
I166
tp1205
a(S'w'
I7
tp1206
a(S'p1_tl'
I251
tp1207
a(S'w'
I721
tp1208
a(S'tr_ll'
I1
tp1209
a(S'tr_th'
I1
tp1210
a(S'tr_tl'
I252
tp1211
a(S'w'
I4
tp1212
a(S'p2_tl'
I166
tp1213
a(S'w'
I4
tp1214
a(S'p1_tl'
I251
tp1215
a(S'w'
I726
tp1216
a(S'p2_tl'
I166
tp1217
a(S'w'
I6
tp1218
a(S'p1_tl'
I252
tp1219
a(S'w'
I728
tp1220
a(S'p2_tl'
I166
tp1221
a(S'w'
I4
tp1222
a(S'p1_tl'
I252
tp1223
a(S'w'
I732
tp1224
a(S'p2_tl'
I167
tp1225
a(S'w'
I6
tp1226
a(S'p1_tl'
I253
tp1227
a(S'w'
I726
tp1228
a(S'p2_tl'
I167
tp1229
a(S'w'
I4
tp1230
a(S'p1_tl'
I253
tp1231
a(S'w'
I729
tp1232
a(S'p2_tl'
I167
tp1233
a(S'w'
I6
tp1234
a(S'p1_tl'
I252
tp1235
a(S'w'
I728
tp1236
a(S'p2_tl'
I167
tp1237
a(S'w'
I4
tp1238
a(S'p1_tl'
I252
tp1239
a(S'w'
I732
tp1240
a(S'p2_tl'
I166
tp1241
a(S'w'
I6
tp1242
a(S'p1_tl'
I251
tp1243
a(S'w'
I722
tp1244
a(S'no_cv'
I1
tp1245
a(S'no_vo'
I0
tp1246
a(S'no_np'
I0
tp1247
a(S'w'
I6
tp1248
a(S'tr_lr'
I0
tp1249
a(S'w'
I3
tp1250
a(S'p2_tl'
I166
tp1251
a(S'w'
I4
tp1252
a(S'p2_du'
I0
tp1253
a(S'p2_cv'
I1
tp1254
a(S'p2_vo'
I0
tp1255
a(S'w'
I1
tp1256
a(S'p2_se'
I0
tp1257
a(S'p2_sn'
I0
tp1258
a(S'p2_tl'
I0
tp1259
a(S'w'
I3
tp1260
a(S'p1_tl'
I251
tp1261
a(S'w'
I4
tp1262
a(S'p1_du'
I0
tp1263
a(S'p1_cv'
I1
tp1264
a(S'p1_vo'
I0
tp1265
a(S'p1_se'
I0
tp1266
a(S'p1_sn'
I0
tp1267
a(S'w'
I1
tp1268
a(S'p1_tl'
I0
tp1269
a(S'w'
I7323
tp1270
a(S'tr_lr'
I1
tp1271
a(S'tr_ll'
I1
tp1272
a(S'tr_th'
I0
tp1273
a(S'w'
I1
tp1274
a(S'tr_tl'
I151
tp1275
a(S'w'
I727
tp1276
a(S'tr_ll'
I1
tp1277
a(S'w'
I1
tp1278
a(S'tr_tl'
I160
tp1279
a(S'w'
I733
tp1280
a(S'tr_ll'
I1
tp1281
a(S'w'
I1
tp1282
a(S'tr_tl'
I169
tp1283
a(S'w'
I733
tp1284
a(S'tr_ll'
I1
tp1285
a(S'w'
I1
tp1286
a(S'tr_tl'
I151
tp1287
a(S'w'
I733
tp1288
a(S'tr_ll'
I1
tp1289
a(S'w'
I1
tp1290
a(S'tr_tl'
I134
tp1291
a(S'w'
I733
tp1292
a(S'tr_ll'
I1
tp1293
a(S'w'
I1
tp1294
a(S'tr_tl'
I127
tp1295
a(S'w'
I732
tp1296
a(S'tr_ll'
I1
tp1297
a(S'w'
I1
tp1298
a(S'tr_tl'
I120
tp1299
a(S'w'
I733
tp1300
a(S'tr_ll'
I1
tp1301
a(S'w'
I1
tp1302
a(S'tr_tl'
I113
tp1303
a(S'w'
I733
tp1304
a(S'tr_ll'
I1
tp1305
a(S'w'
I1
tp1306
a(S'tr_tl'
I127
tp1307
a(S'w'
I733
tp1308
a(S'tr_ll'
I1
tp1309
a(S'w'
I1
tp1310
a(S'tr_tl'
I134
tp1311
a(S'w'
I733
tp1312
a(S'tr_ll'
I1
tp1313
a(S'w'
I1
tp1314
a(S'tr_tl'
I142
tp1315
a(S'w'
I732
tp1316
a(S'tr_ll'
I1
tp1317
a(S'w'
I1
tp1318
a(S'tr_tl'
I151
tp1319
a(S'w'
I733
tp1320
a(S'tr_ll'
I1
tp1321
a(S'w'
I1
tp1322
a(S'tr_tl'
I160
tp1323
a(S'w'
I733
tp1324
a(S'tr_ll'
I1
tp1325
a(S'w'
I1
tp1326
a(S'tr_tl'
I169
tp1327
a(S'w'
I733
tp1328
a(S'tr_ll'
I1
tp1329
a(S'w'
I1
tp1330
a(S'tr_tl'
I179
tp1331
a(S'w'
I733
tp1332
a(S'tr_ll'
I1
tp1333
a(S'w'
I1
tp1334
a(S'tr_tl'
I190
tp1335
a(S'w'
I732
tp1336
a(S'tr_ll'
I1
tp1337
a(S'w'
I1
tp1338
a(S'tr_tl'
I201
tp1339
a(S'w'
I733
tp1340
a(S'tr_ll'
I1
tp1341
a(S'w'
I1
tp1342
a(S'tr_tl'
I226
tp1343
a(S'w'
I733
tp1344
a(S'tr_ll'
I1
tp1345
a(S'tr_th'
I1
tp1346
a(S'w'
I1
tp1347
a(S'tr_tl'
I13
tp1348
a(S'w'
I733
tp1349
a(S'tr_ll'
I1
tp1350
a(S'w'
I1
tp1351
a(S'tr_tl'
I64
tp1352
a(S'w'
I733
tp1353
a(S'tr_ll'
I1
tp1354
a(S'w'
I1
tp1355
a(S'tr_tl'
I147
tp1356
a(S'w'
I732
tp1357
a(S'tr_ll'
I1
tp1358
a(S'tr_th'
I2
tp1359
a(S'w'
I1
tp1360
a(S'tr_tl'
I26
tp1361
a(S'w'
I733
tp1362
a(S'tr_ll'
I1
tp1363
a(S'w'
I1
tp1364
a(S'tr_tl'
I207
tp1365
a(S'w'
I733
tp1366
a(S'tr_ll'
I1
tp1367
a(S'tr_th'
I3
tp1368
a(S'w'
I1
tp1369
a(S'tr_tl'
I192
tp1370
a(S'w'
I733
tp1371
a(S'tr_ll'
I1
tp1372
a(S'w'
I1
tp1373
a(S'tr_tl'
I249
tp1374
a(S'w'
I732
tp1375
a(S'tr_ll'
I1
tp1376
a(S'tr_th'
I4
tp1377
a(S'w'
I1
tp1378
a(S'tr_tl'
I53
tp1379
a(S'w'
I733
tp1380
a(S'tr_ll'
I1
tp1381
a(S'w'
I1
tp1382
a(S'tr_tl'
I117
tp1383
a(S'w'
I733
tp1384
a(S'tr_ll'
I1
tp1385
a(S'w'
I1
tp1386
a(S'tr_tl'
I185
tp1387
a(S'w'
I735
tp1388
a(S'tr_lr'
I0
tp1389
a(S'w'
I26900
tp1390
a.