(lp1
(S'clock'
p2
I1789772
tp3
a(S'ch_no'
I1
tp4
a(S'ch_tr'
I1
tp5
a(S'ch_p2'
I1
tp6
a(S'ch_p1'
I1
tp7
a(S'w'
I13
tp8
a(S'no_vo'
I1
tp9
a(S'w'
I1
tp10
a(S'no_ll'
I1
tp11
a(S'no_np'
I4
tp12
a(S'w'
I7
tp13
a(S'tr_lr'
I9
tp14
a(S'w'
I1
tp15
a(S'tr_ll'
I1
tp16
a(S'tr_th'
I1
tp17
a(S'tr_tl'
I46
tp18
a(S'w'
I9
tp19
a(S'p2_du'
I2
tp20
a(S'p2_vo'
I15
tp21
a(S'p2_se'
I1
tp22
a(S'p2_sn'
I1
tp23
a(S'p2_ll'
I1
tp24
a(S'p2_th'
I2
tp25
a(S'w'
I1
tp26
a(S'p2_tl'
I250
tp27
a(S'w'
I2
tp28
a(S'p2_du'
I0
tp29
a(S'p2_vo'
I0
tp30
a(S'w'
I9
tp31
a(S'p1_du'
I2
tp32
a(S'p1_vo'
I10
tp33
a(S'p1_se'
I1
tp34
a(S'p1_sn'
I1
tp35
a(S'w'
I1
tp36
a(S'p1_ll'
I1
tp37
a(S'p1_th'
I2
tp38
a(S'p1_tl'
I58
tp39
a(S'w'
I2
tp40
a(S'p1_du'
I0
tp41
a(S'p1_vo'
I0
tp42
a(S'w'
I700
tp43
a(S'no_ll'
I1
tp44
a(S'w'
I1
tp45
a(S'no_np'
I0
tp46
a(S'w'
I7
tp47
a(S'p2_du'
I2
tp48
a(S'p2_lh'
I1
tp49
a(S'p2_cv'
I1
tp50
a(S'p2_vo'
I11
tp51
a(S'w'
I5
tp52
a(S'p1_tl'
I59
tp53
a(S'w'
I3
tp54
a(S'p1_du'
I2
tp55
a(S'p1_lh'
I1
tp56
a(S'p1_cv'
I1
tp57
a(S'p1_vo'
I11
tp58
a(S'w'
I721
tp59
a(S'tr_ll'
I1
tp60
a(S'tr_tl'
I252
tp61
a(S'w'
I9
tp62
a(S'p1_tl'
I59
tp63
a(S'w'
I726
tp64
a(S'p2_vo'
I5
tp65
a(S'w'
I6
tp66
a(S'p1_tl'
I58
tp67
a(S'w'
I2
tp68
a(S'p1_vo'
I5
tp69
a(S'w'
I726
tp70
a(S'p2_vo'
I4
tp71
a(S'w'
I4
tp72
a(S'p1_tl'
I58
tp73
a(S'w'
I2
tp74
a(S'p1_vo'
I4
tp75
a(S'w'
I727
tp76
a(S'p2_vo'
I5
tp77
a(S'w'
I6
tp78
a(S'p1_tl'
I57
tp79
a(S'w'
I2
tp80
a(S'p1_vo'
I5
tp81
a(S'w'
I722
tp82
a(S'no_ll'
I1
tp83
a(S'w'
I1
tp84
a(S'no_np'
I4
tp85
a(S'w'
I6
tp86
a(S'tr_ll'
I1
tp87
a(S'tr_tl'
I46
tp88
a(S'w'
I5
tp89
a(S'p2_vo'
I4
tp90
a(S'w'
I3
tp91
a(S'p2_ll'
I1
tp92
a(S'w'
I1
tp93
a(S'p2_tl'
I207
tp94
a(S'w'
I4
tp95
a(S'p1_tl'
I57
tp96
a(S'w'
I3
tp97
a(S'p1_vo'
I4
tp98
a(S'w'
I3
tp99
a(S'p1_ll'
I1
tp100
a(S'p1_tl'
I26
tp101
a(S'w'
I708
tp102
a(S'no_ll'
I1
tp103
a(S'w'
I1
tp104
a(S'no_np'
I0
tp105
a(S'w'
I7
tp106
a(S'p2_vo'
I11
tp107
a(S'w'
I5
tp108
a(S'p1_tl'
I26
tp109
a(S'w'
I2
tp110
a(S'p1_vo'
I11
tp111
a(S'w'
I722
tp112
a(S'tr_ll'
I1
tp113
a(S'tr_th'
I2
tp114
a(S'tr_tl'
I58
tp115
a(S'w'
I9
tp116
a(S'p1_tl'
I26
tp117
a(S'w'
I726
tp118
a(S'p2_vo'
I5
tp119
a(S'w'
I6
tp120
a(S'p1_tl'
I27
tp121
a(S'w'
I2
tp122
a(S'p1_vo'
I5
tp123
a(S'w'
I725
tp124
a(S'p2_vo'
I4
tp125
a(S'w'
I4
tp126
a(S'p1_tl'
I27
tp127
a(S'w'
I2
tp128
a(S'p1_vo'
I4
tp129
a(S'w'
I728
tp130
a(S'p2_vo'
I5
tp131
a(S'w'
I6
tp132
a(S'p1_tl'
I26
tp133
a(S'w'
I2
tp134
a(S'p1_vo'
I5
tp135
a(S'w'
I722
tp136
a(S'no_ll'
I1
tp137
a(S'w'
I1
tp138
a(S'no_np'
I10
tp139
a(S'w'
I6
tp140
a(S'tr_ll'
I1
tp141
a(S'tr_th'
I0
tp142
a(S'tr_tl'
I190
tp143
a(S'w'
I5
tp144
a(S'p2_vo'
I4
tp145
a(S'w'
I3
tp146
a(S'p2_ll'
I1
tp147
a(S'w'
I1
tp148
a(S'p2_tl'
I166
tp149
a(S'w'
I4
tp150
a(S'p1_tl'
I26
tp151
a(S'w'
I3
tp152
a(S'p1_vo'
I4
tp153
a(S'w'
I3
tp154
a(S'p1_ll'
I1
tp155
a(S'p1_th'
I1
tp156
a(S'p1_tl'
I252
tp157
a(S'w'
I708
tp158
a(S'no_ll'
I1
tp159
a(S'w'
I1
tp160
a(S'no_np'
I4
tp161
a(S'w'
I7
tp162
a(S'p2_vo'
I11
tp163
a(S'w'
I6
tp164
a(S'p1_tl'
I251
tp165
a(S'w'
I2
tp166
a(S'p1_vo'
I11
tp167
a(S'w'
I721
tp168
a(S'tr_ll'
I1
tp169
a(S'tr_th'
I1
tp170
a(S'tr_tl'
I252
tp171
a(S'w'
I9
tp172
a(S'p1_tl'
I251
tp173
a(S'w'
I725
tp174
a(S'p2_vo'
I5
tp175
a(S'w'
I5
tp176
a(S'p1_tl'
I252
tp177
a(S'w'
I3
tp178
a(S'p1_vo'
I5
tp179
a(S'w'
I726
tp180
a(S'p2_vo'
I4
tp181
a(S'w'
I4
tp182
a(S'p1_tl'
I252
tp183
a(S'w'
I2
tp184
a(S'p1_vo'
I4
tp185
a(S'w'
I728
tp186
a(S'p2_vo'
I5
tp187
a(S'w'
I6
tp188
a(S'p1_tl'
I253
tp189
a(S'w'
I2
tp190
a(S'p1_vo'
I5
tp191
a(S'w'
I725
tp192
a(S'tr_ll'
I1
tp193
a(S'w'
I5
tp194
a(S'p2_vo'
I4
tp195
a(S'w'
I4
tp196
a(S'p2_ll'
I1
tp197
a(S'p2_tl'
I166
tp198
a(S'w'
I5
tp199
a(S'p1_tl'
I253
tp200
a(S'w'
I2
tp201
a(S'p1_vo'
I4
tp202
a(S'w'
I3
tp203
a(S'p1_ll'
I1
tp204
a(S'w'
I1
tp205
a(S'p1_tl'
I252
tp206
a(S'w'
I715
tp207
a(S'p2_vo'
I11
tp208
a(S'w'
I6
tp209
a(S'p1_tl'
I252
tp210
a(S'w'
I2
tp211
a(S'p1_vo'
I11
tp212
a(S'w'
I729
tp213
a(S'p1_tl'
I252
tp214
a(S'w'
I730
tp215
a(S'p2_vo'
I5
tp216
a(S'w'
I6
tp217
a(S'p1_tl'
I251
tp218
a(S'w'
I2
tp219
a(S'p1_vo'
I5
tp220
a(S'w'
I726
tp221
a(S'p2_vo'
I4
tp222
a(S'w'
I4
tp223
a(S'p1_tl'
I251
tp224
a(S'w'
I2
tp225
a(S'p1_vo'
I4
tp226
a(S'w'
I728
tp227
a(S'p2_vo'
I5
tp228
a(S'w'
I5
tp229
a(S'p1_tl'
I252
tp230
a(S'w'
I3
tp231
a(S'p1_vo'
I5
tp232
a(S'w'
I725
tp233
a(S'w'
I1
tp234
a(S'no_ll'
I1
tp235
a(S'w'
I8
tp236
a(S'tr_ll'
I1
tp237
a(S'tr_tl'
I46
tp238
a(S'w'
I5
tp239
a(S'p2_vo'
I4
tp240
a(S'w'
I3
tp241
a(S'p2_ll'
I1
tp242
a(S'w'
I1
tp243
a(S'p2_tl'
I166
tp244
a(S'w'
I4
tp245
a(S'p1_tl'
I252
tp246
a(S'w'
I3
tp247
a(S'p1_vo'
I4
tp248
a(S'w'
I3
tp249
a(S'p1_ll'
I1
tp250
a(S'p1_tl'
I252
tp251
a(S'w'
I702
tp252
a(S'no_ll'
I1
tp253
a(S'w'
I1
tp254
a(S'no_np'
I0
tp255
a(S'w'
I7
tp256
a(S'p2_vo'
I11
tp257
a(S'w'
I5
tp258
a(S'p1_tl'
I253
tp259
a(S'w'
I3
tp260
a(S'p1_vo'
I11
tp261
a(S'w'
I721
tp262
a(S'tr_ll'
I1
tp263
a(S'tr_tl'
I252
tp264
a(S'w'
I9
tp265
a(S'p1_tl'
I253
tp266
a(S'w'
I726
tp267
a(S'p2_vo'
I5
tp268
a(S'w'
I6
tp269
a(S'p1_tl'
I252
tp270
a(S'w'
I2
tp271
a(S'p1_vo'
I5
tp272
a(S'w'
I726
tp273
a(S'p2_vo'
I4
tp274
a(S'w'
I4
tp275
a(S'p1_tl'
I252
tp276
a(S'w'
I2
tp277
a(S'p1_vo'
I4
tp278
a(S'w'
I727
tp279
a(S'p2_vo'
I5
tp280
a(S'w'
I6
tp281
a(S'p1_tl'
I251
tp282
a(S'w'
I2
tp283
a(S'p1_vo'
I5
tp284
a(S'w'
I722
tp285
a(S'no_ll'
I1
tp286
a(S'w'
I1
tp287
a(S'no_np'
I4
tp288
a(S'w'
I6
tp289
a(S'tr_ll'
I1
tp290
a(S'tr_tl'
I46
tp291
a(S'w'
I5
tp292
a(S'p2_vo'
I4
tp293
a(S'w'
I3
tp294
a(S'p2_ll'
I1
tp295
a(S'w'
I1
tp296
a(S'p2_tl'
I166
tp297
a(S'w'
I4
tp298
a(S'p1_tl'
I251
tp299
a(S'w'
I3
tp300
a(S'p1_vo'
I4
tp301
a(S'w'
I3
tp302
a(S'p1_ll'
I1
tp303
a(S'p1_tl'
I252
tp304
a(S'w'
I708
tp305
a(S'no_ll'
I1
tp306
a(S'w'
I1
tp307
a(S'no_np'
I0
tp308
a(S'w'
I7
tp309
a(S'p2_vo'
I11
tp310
a(S'w'
I5
tp311
a(S'p1_tl'
I252
tp312
a(S'w'
I2
tp313
a(S'p1_vo'
I11
tp314
a(S'w'
I722
tp315
a(S'tr_ll'
I1
tp316
a(S'tr_th'
I2
tp317
a(S'tr_tl'
I58
tp318
a(S'w'
I9
tp319
a(S'p1_tl'
I252
tp320
a(S'w'
I726
tp321
a(S'p2_vo'
I5
tp322
a(S'w'
I6
tp323
a(S'p1_tl'
I253
tp324
a(S'w'
I2
tp325
a(S'p1_vo'
I5
tp326
a(S'w'
I725
tp327
a(S'p2_vo'
I4
tp328
a(S'w'
I4
tp329
a(S'p1_tl'
I253
tp330
a(S'w'
I2
tp331
a(S'p1_vo'
I4
tp332
a(S'w'
I728
tp333
a(S'p2_vo'
I5
tp334
a(S'w'
I6
tp335
a(S'p1_tl'
I252
tp336
a(S'w'
I2
tp337
a(S'p1_vo'
I5
tp338
a(S'w'
I722
tp339
a(S'no_ll'
I1
tp340
a(S'w'
I1
tp341
a(S'no_np'
I10
tp342
a(S'w'
I6
tp343
a(S'tr_ll'
I1
tp344
a(S'tr_th'
I0
tp345
a(S'tr_tl'
I190
tp346
a(S'w'
I5
tp347
a(S'p2_vo'
I4
tp348
a(S'w'
I3
tp349
a(S'p2_ll'
I1
tp350
a(S'w'
I1
tp351
a(S'p2_tl'
I166
tp352
a(S'w'
I4
tp353
a(S'p1_tl'
I252
tp354
a(S'w'
I3
tp355
a(S'p1_vo'
I4
tp356
a(S'w'
I3
tp357
a(S'p1_ll'
I1
tp358
a(S'p1_tl'
I252
tp359
a(S'w'
I708
tp360
a(S'no_ll'
I1
tp361
a(S'w'
I1
tp362
a(S'no_np'
I4
tp363
a(S'w'
I7
tp364
a(S'p2_vo'
I11
tp365
a(S'w'
I6
tp366
a(S'p1_tl'
I251
tp367
a(S'w'
I2
tp368
a(S'p1_vo'
I11
tp369
a(S'w'
I721
tp370
a(S'tr_ll'
I1
tp371
a(S'tr_th'
I1
tp372
a(S'tr_tl'
I252
tp373
a(S'w'
I9
tp374
a(S'p1_tl'
I251
tp375
a(S'w'
I725
tp376
a(S'p2_vo'
I5
tp377
a(S'w'
I5
tp378
a(S'p1_tl'
I252
tp379
a(S'w'
I3
tp380
a(S'p1_vo'
I5
tp381
a(S'w'
I726
tp382
a(S'p2_vo'
I4
tp383
a(S'w'
I4
tp384
a(S'p1_tl'
I252
tp385
a(S'w'
I2
tp386
a(S'p1_vo'
I4
tp387
a(S'w'
I728
tp388
a(S'p2_vo'
I5
tp389
a(S'w'
I6
tp390
a(S'p1_tl'
I253
tp391
a(S'w'
I2
tp392
a(S'p1_vo'
I5
tp393
a(S'w'
I725
tp394
a(S'tr_ll'
I1
tp395
a(S'w'
I5
tp396
a(S'p2_vo'
I4
tp397
a(S'w'
I4
tp398
a(S'p2_ll'
I1
tp399
a(S'p2_tl'
I166
tp400
a(S'w'
I5
tp401
a(S'p1_tl'
I253
tp402
a(S'w'
I2
tp403
a(S'p1_vo'
I4
tp404
a(S'w'
I3
tp405
a(S'p1_ll'
I1
tp406
a(S'w'
I1
tp407
a(S'p1_tl'
I252
tp408
a(S'w'
I715
tp409
a(S'p2_vo'
I11
tp410
a(S'w'
I6
tp411
a(S'p1_tl'
I252
tp412
a(S'w'
I2
tp413
a(S'p1_vo'
I11
tp414
a(S'w'
I729
tp415
a(S'p1_tl'
I252
tp416
a(S'w'
I730
tp417
a(S'p2_vo'
I5
tp418
a(S'w'
I6
tp419
a(S'p1_tl'
I251
tp420
a(S'w'
I2
tp421
a(S'p1_vo'
I5
tp422
a(S'w'
I726
tp423
a(S'p2_vo'
I4
tp424
a(S'w'
I4
tp425
a(S'p1_tl'
I251
tp426
a(S'w'
I2
tp427
a(S'p1_vo'
I4
tp428
a(S'w'
I728
tp429
a(S'p2_vo'
I5
tp430
a(S'w'
I5
tp431
a(S'p1_tl'
I252
tp432
a(S'w'
I3
tp433
a(S'p1_vo'
I5
tp434
a(S'w'
I725
tp435
a(S'no_ll'
I1
tp436
a(S'w'
I8
tp437
a(S'tr_ll'
I1
tp438
a(S'tr_tl'
I46
tp439
a(S'w'
I5
tp440
a(S'p2_vo'
I4
tp441
a(S'w'
I6
tp442
a(S'p2_ll'
I1
tp443
a(S'p2_tl'
I58
tp444
a(S'w'
I5
tp445
a(S'p1_tl'
I252
tp446
a(S'w'
I2
tp447
a(S'p1_vo'
I4
tp448
a(S'w'
I6
tp449
a(S'p1_ll'
I1
tp450
a(S'p1_tl'
I171
tp451
a(S'w'
I698
tp452
a(S'no_ll'
I1
tp453
a(S'w'
I1
tp454
a(S'no_np'
I0
tp455
a(S'w'
I7
tp456
a(S'p2_vo'
I10
tp457
a(S'w'
I5
tp458
a(S'p1_tl'
I172
tp459
a(S'w'
I3
tp460
a(S'p1_vo'
I10
tp461
a(S'w'
I721
tp462
a(S'tr_ll'
I1
tp463
a(S'tr_tl'
I252
tp464
a(S'w'
I5
tp465
a(S'p2_vo'
I9
tp466
a(S'w'
I4
tp467
a(S'p1_tl'
I172
tp468
a(S'w'
I2
tp469
a(S'p1_vo'
I9
tp470
a(S'w'
I724
tp471
a(S'p2_vo'
I10
tp472
a(S'w'
I6
tp473
a(S'p1_tl'
I171
tp474
a(S'w'
I2
tp475
a(S'p1_vo'
I10
tp476
a(S'w'
I726
tp477
a(S'p2_vo'
I9
tp478
a(S'w'
I4
tp479
a(S'p1_tl'
I171
tp480
a(S'w'
I2
tp481
a(S'p1_vo'
I9
tp482
a(S'w'
I727
tp483
a(S'p2_vo'
I5
tp484
a(S'w'
I6
tp485
a(S'p1_tl'
I170
tp486
a(S'w'
I2
tp487
a(S'p1_vo'
I5
tp488
a(S'w'
I722
tp489
a(S'no_ll'
I1
tp490
a(S'w'
I1
tp491
a(S'no_np'
I4
tp492
a(S'w'
I6
tp493
a(S'tr_ll'
I1
tp494
a(S'tr_tl'
I46
tp495
a(S'w'
I5
tp496
a(S'p2_vo'
I4
tp497
a(S'w'
I3
tp498
a(S'p1_tl'
I170
tp499
a(S'w'
I3
tp500
a(S'p1_vo'
I4
tp501
a(S'w'
I716
tp502
a(S'no_ll'
I1
tp503
a(S'w'
I1
tp504
a(S'no_np'
I0
tp505
a(S'w'
I7
tp506
a(S'p2_vo'
I5
tp507
a(S'w'
I5
tp508
a(S'p1_tl'
I171
tp509
a(S'w'
I2
tp510
a(S'p1_vo'
I5
tp511
a(S'w'
I722
tp512
a(S'tr_ll'
I1
tp513
a(S'tr_tl'
I252
tp514
a(S'w'
I5
tp515
a(S'p2_vo'
I4
tp516
a(S'w'
I4
tp517
a(S'p1_tl'
I171
tp518
a(S'w'
I2
tp519
a(S'p1_vo'
I4
tp520
a(S'w'
I724
tp521
a(S'p2_vo'
I5
tp522
a(S'w'
I6
tp523
a(S'p1_tl'
I172
tp524
a(S'w'
I2
tp525
a(S'p1_vo'
I5
tp526
a(S'w'
I725
tp527
a(S'p2_vo'
I4
tp528
a(S'w'
I4
tp529
a(S'p1_tl'
I172
tp530
a(S'w'
I2
tp531
a(S'p1_vo'
I4
tp532
a(S'w'
I728
tp533
a(S'p2_vo'
I5
tp534
a(S'w'
I6
tp535
a(S'p1_tl'
I171
tp536
a(S'w'
I2
tp537
a(S'p1_vo'
I5
tp538
a(S'w'
I722
tp539
a(S'no_ll'
I1
tp540
a(S'w'
I1
tp541
a(S'no_np'
I10
tp542
a(S'w'
I6
tp543
a(S'tr_ll'
I1
tp544
a(S'tr_th'
I0
tp545
a(S'tr_tl'
I190
tp546
a(S'w'
I5
tp547
a(S'p2_vo'
I4
tp548
a(S'w'
I6
tp549
a(S'p2_ll'
I1
tp550
a(S'p2_tl'
I166
tp551
a(S'w'
I5
tp552
a(S'p1_tl'
I171
tp553
a(S'w'
I2
tp554
a(S'p1_vo'
I4
tp555
a(S'w'
I6
tp556
a(S'p1_ll'
I1
tp557
a(S'p1_tl'
I252
tp558
a(S'w'
I703
tp559
a(S'no_ll'
I1
tp560
a(S'w'
I1
tp561
a(S'no_np'
I4
tp562
a(S'w'
I7
tp563
a(S'p2_vo'
I11
tp564
a(S'w'
I6
tp565
a(S'p1_tl'
I251
tp566
a(S'w'
I2
tp567
a(S'p1_vo'
I11
tp568
a(S'w'
I721
tp569
a(S'tr_ll'
I1
tp570
a(S'tr_th'
I1
tp571
a(S'tr_tl'
I252
tp572
a(S'w'
I9
tp573
a(S'p1_tl'
I251
tp574
a(S'w'
I725
tp575
a(S'p2_vo'
I5
tp576
a(S'w'
I5
tp577
a(S'p1_tl'
I252
tp578
a(S'w'
I3
tp579
a(S'p1_vo'
I5
tp580
a(S'w'
I726
tp581
a(S'p2_vo'
I4
tp582
a(S'w'
I4
tp583
a(S'p1_tl'
I252
tp584
a(S'w'
I2
tp585
a(S'p1_vo'
I4
tp586
a(S'w'
I728
tp587
a(S'p2_vo'
I5
tp588
a(S'w'
I6
tp589
a(S'p1_tl'
I253
tp590
a(S'w'
I2
tp591
a(S'p1_vo'
I5
tp592
a(S'w'
I722
tp593
a(S'no_ll'
I1
tp594
a(S'w'
I1
tp595
a(S'w'
I6
tp596
a(S'tr_ll'
I1
tp597
a(S'tr_tl'
I46
tp598
a(S'w'
I5
tp599
a(S'p2_vo'
I4
tp600
a(S'w'
I6
tp601
a(S'p2_ll'
I1
tp602
a(S'p2_th'
I1
tp603
a(S'p2_tl'
I252
tp604
a(S'w'
I5
tp605
a(S'p1_tl'
I253
tp606
a(S'w'
I2
tp607
a(S'p1_vo'
I4
tp608
a(S'w'
I5
tp609
a(S'p1_ll'
I1
tp610
a(S'w'
I1
tp611
a(S'p1_tl'
I125
tp612
a(S'w'
I703
tp613
a(S'no_ll'
I1
tp614
a(S'w'
I1
tp615
a(S'no_np'
I0
tp616
a(S'w'
I7
tp617
a(S'p2_vo'
I10
tp618
a(S'w'
I5
tp619
a(S'p1_tl'
I125
tp620
a(S'w'
I3
tp621
a(S'p1_vo'
I10
tp622
a(S'w'
I720
tp623
a(S'tr_ll'
I1
tp624
a(S'tr_tl'
I252
tp625
a(S'w'
I5
tp626
a(S'p2_vo'
I9
tp627
a(S'w'
I4
tp628
a(S'p1_tl'
I125
tp629
a(S'w'
I2
tp630
a(S'p1_vo'
I9
tp631
a(S'w'
I724
tp632
a(S'p2_vo'
I10
tp633
a(S'w'
I6
tp634
a(S'p1_tl'
I124
tp635
a(S'w'
I2
tp636
a(S'p1_vo'
I10
tp637
a(S'w'
I726
tp638
a(S'p2_vo'
I9
tp639
a(S'w'
I4
tp640
a(S'p1_tl'
I124
tp641
a(S'w'
I2
tp642
a(S'p1_vo'
I9
tp643
a(S'w'
I728
tp644
a(S'p2_vo'
I5
tp645
a(S'w'
I5
tp646
a(S'p1_tl'
I125
tp647
a(S'w'
I3
tp648
a(S'p1_vo'
I5
tp649
a(S'w'
I724
tp650
a(S'no_ll'
I1
tp651
a(S'no_np'
I4
tp652
a(S'w'
I6
tp653
a(S'tr_ll'
I1
tp654
a(S'w'
I1
tp655
a(S'tr_tl'
I46
tp656
a(S'w'
I4
tp657
a(S'p2_vo'
I4
tp658
a(S'w'
I4
tp659
a(S'p1_tl'
I125
tp660
a(S'w'
I2
tp661
a(S'p1_vo'
I4
tp662
a(S'w'
I714
tp663
a(S'no_ll'
I1
tp664
a(S'w'
I1
tp665
a(S'no_np'
I0
tp666
a(S'w'
I7
tp667
a(S'p2_vo'
I5
tp668
a(S'w'
I5
tp669
a(S'p1_tl'
I126
tp670
a(S'w'
I3
tp671
a(S'p1_vo'
I5
tp672
a(S'w'
I721
tp673
a(S'tr_ll'
I1
tp674
a(S'tr_tl'
I252
tp675
a(S'w'
I5
tp676
a(S'p2_vo'
I4
tp677
a(S'w'
I4
tp678
a(S'p1_tl'
I126
tp679
a(S'w'
I2
tp680
a(S'p1_vo'
I4
tp681
a(S'w'
I724
tp682
a(S'p2_vo'
I5
tp683
a(S'w'
I6
tp684
a(S'p1_tl'
I125
tp685
a(S'w'
I2
tp686
a(S'p1_vo'
I5
tp687
a(S'w'
I726
tp688
a(S'p2_vo'
I4
tp689
a(S'w'
I4
tp690
a(S'p1_tl'
I125
tp691
a(S'w'
I2
tp692
a(S'p1_vo'
I4
tp693
a(S'w'
I727
tp694
a(S'p2_vo'
I5
tp695
a(S'w'
I6
tp696
a(S'p1_tl'
I124
tp697
a(S'w'
I2
tp698
a(S'p1_vo'
I5
tp699
a(S'w'
I722
tp700
a(S'no_ll'
I1
tp701
a(S'w'
I1
tp702
a(S'no_np'
I4
tp703
a(S'w'
I6
tp704
a(S'tr_ll'
I1
tp705
a(S'tr_tl'
I46
tp706
a(S'w'
I5
tp707
a(S'p2_vo'
I4
tp708
a(S'w'
I3
tp709
a(S'p1_tl'
I124
tp710
a(S'w'
I3
tp711
a(S'p1_vo'
I4
tp712
a(S'w'
I716
tp713
a(S'no_ll'
I1
tp714
a(S'w'
I1
tp715
a(S'no_np'
I0
tp716
a(S'w'
I8
tp717
a(S'p2_vo'
I5
tp718
a(S'w'
I5
tp719
a(S'p1_tl'
I125
tp720
a(S'w'
I3
tp721
a(S'p1_vo'
I5
tp722
a(S'w'
I720
tp723
a(S'tr_ll'
I1
tp724
a(S'tr_tl'
I252
tp725
a(S'w'
I5
tp726
a(S'p2_vo'
I4
tp727
a(S'w'
I4
tp728
a(S'p1_tl'
I125
tp729
a(S'w'
I2
tp730
a(S'p1_vo'
I4
tp731
a(S'w'
I725
tp732
a(S'p2_vo'
I5
tp733
a(S'w'
I6
tp734
a(S'p1_tl'
I126
tp735
a(S'w'
I3
tp736
a(S'p1_vo'
I5
tp737
a(S'w'
I723
tp738
a(S'p2_vo'
I4
tp739
a(S'w'
I4
tp740
a(S'p1_tl'
I126
tp741
a(S'w'
I2
tp742
a(S'p1_vo'
I4
tp743
a(S'w'
I729
tp744
a(S'p2_vo'
I5
tp745
a(S'w'
I6
tp746
a(S'p1_tl'
I125
tp747
a(S'w'
I3
tp748
a(S'p1_vo'
I5
tp749
a(S'w'
I720
tp750
a(S'no_ll'
I1
tp751
a(S'w'
I1
tp752
a(S'no_np'
I10
tp753
a(S'w'
I6
tp754
a(S'tr_ll'
I1
tp755
a(S'tr_th'
I0
tp756
a(S'tr_tl'
I190
tp757
a(S'w'
I5
tp758
a(S'p2_vo'
I4
tp759
a(S'w'
I3
tp760
a(S'p1_tl'
I125
tp761
a(S'w'
I3
tp762
a(S'p1_vo'
I4
tp763
a(S'w'
I716
tp764
a(S'no_ll'
I1
tp765
a(S'w'
I1
tp766
a(S'no_np'
I4
tp767
a(S'w'
I8
tp768
a(S'p2_vo'
I5
tp769
a(S'w'
I6
tp770
a(S'p1_tl'
I124
tp771
a(S'w'
I3
tp772
a(S'p1_vo'
I5
tp773
a(S'w'
I719
tp774
a(S'tr_ll'
I1
tp775
a(S'tr_th'
I1
tp776
a(S'tr_tl'
I252
tp777
a(S'w'
I5
tp778
a(S'p2_vo'
I4
tp779
a(S'w'
I4
tp780
a(S'p1_tl'
I124
tp781
a(S'w'
I2
tp782
a(S'p1_vo'
I4
tp783
a(S'w'
I724
tp784
a(S'p2_vo'
I5
tp785
a(S'w'
I5
tp786
a(S'p1_tl'
I125
tp787
a(S'w'
I4
tp788
a(S'p1_vo'
I5
tp789
a(S'w'
I724
tp790
a(S'p2_vo'
I4
tp791
a(S'w'
I4
tp792
a(S'p1_tl'
I125
tp793
a(S'w'
I2
tp794
a(S'p1_vo'
I4
tp795
a(S'w'
I729
tp796
a(S'p2_vo'
I5
tp797
a(S'w'
I6
tp798
a(S'p1_tl'
I126
tp799
a(S'w'
I3
tp800
a(S'p1_vo'
I5
tp801
a(S'w'
I723
tp802
a(S'tr_ll'
I1
tp803
a(S'w'
I5
tp804
a(S'p2_vo'
I4
tp805
a(S'w'
I4
tp806
a(S'p1_tl'
I126
tp807
a(S'w'
I2
tp808
a(S'p1_vo'
I4
tp809
a(S'w'
I725
tp810
a(S'p2_vo'
I5
tp811
a(S'w'
I6
tp812
a(S'p1_tl'
I125
tp813
a(S'w'
I3
tp814
a(S'p1_vo'
I5
tp815
a(S'w'
I723
tp816
a(S'p2_vo'
I4
tp817
a(S'w'
I4
tp818
a(S'p1_tl'
I125
tp819
a(S'w'
I2
tp820
a(S'p1_vo'
I4
tp821
a(S'w'
I729
tp822
a(S'p2_vo'
I5
tp823
a(S'w'
I6
tp824
a(S'p1_tl'
I124
tp825
a(S'w'
I3
tp826
a(S'p1_vo'
I5
tp827
a(S'w'
I724
tp828
a(S'p2_vo'
I4
tp829
a(S'w'
I4
tp830
a(S'p1_tl'
I124
tp831
a(S'w'
I2
tp832
a(S'p1_vo'
I4
tp833
a(S'w'
I729
tp834
a(S'p2_vo'
I5
tp835
a(S'w'
I5
tp836
a(S'p1_tl'
I125
tp837
a(S'w'
I4
tp838
a(S'p1_vo'
I5
tp839
a(S'w'
I724
tp840
a(S'no_ll'
I1
tp841
a(S'w'
I8
tp842
a(S'tr_ll'
I1
tp843
a(S'tr_tl'
I46
tp844
a(S'w'
I5
tp845
a(S'p2_vo'
I4
tp846
a(S'w'
I6
tp847
a(S'p2_ll'
I1
tp848
a(S'p2_th'
I2
tp849
a(S'p2_tl'
I250
tp850
a(S'w'
I5
tp851
a(S'p1_tl'
I125
tp852
a(S'w'
I2
tp853
a(S'p1_vo'
I4
tp854
a(S'w'
I6
tp855
a(S'p1_ll'
I1
tp856
a(S'p1_th'
I2
tp857
a(S'p1_tl'
I58
tp858
a(S'w'
I697
tp859
a(S'no_ll'
I1
tp860
a(S'w'
I1
tp861
a(S'no_np'
I0
tp862
a(S'w'
I7
tp863
a(S'p2_vo'
I11
tp864
a(S'w'
I5
tp865
a(S'p1_tl'
I59
tp866
a(S'w'
I3
tp867
a(S'p1_vo'
I11
tp868
a(S'w'
I721
tp869
a(S'tr_ll'
I1
tp870
a(S'tr_tl'
I252
tp871
a(S'w'
I9
tp872
a(S'p1_tl'
I59
tp873
a(S'w'
I726
tp874
a(S'p2_vo'
I5
tp875
a(S'w'
I6
tp876
a(S'p1_tl'
I58
tp877
a(S'w'
I2
tp878
a(S'p1_vo'
I5
tp879
a(S'w'
I726
tp880
a(S'p2_vo'
I4
tp881
a(S'w'
I4
tp882
a(S'p1_tl'
I58
tp883
a(S'w'
I2
tp884
a(S'p1_vo'
I4
tp885
a(S'w'
I727
tp886
a(S'p2_vo'
I5
tp887
a(S'w'
I6
tp888
a(S'p1_tl'
I57
tp889
a(S'w'
I2
tp890
a(S'p1_vo'
I5
tp891
a(S'w'
I722
tp892
a(S'no_ll'
I1
tp893
a(S'w'
I1
tp894
a(S'no_np'
I4
tp895
a(S'w'
I6
tp896
a(S'tr_ll'
I1
tp897
a(S'tr_tl'
I46
tp898
a(S'w'
I5
tp899
a(S'p2_vo'
I4
tp900
a(S'w'
I3
tp901
a(S'p2_ll'
I1
tp902
a(S'w'
I1
tp903
a(S'p2_tl'
I207
tp904
a(S'w'
I4
tp905
a(S'p1_tl'
I57
tp906
a(S'w'
I3
tp907
a(S'p1_vo'
I4
tp908
a(S'w'
I3
tp909
a(S'p1_ll'
I1
tp910
a(S'p1_tl'
I26
tp911
a(S'w'
I708
tp912
a(S'no_ll'
I1
tp913
a(S'w'
I1
tp914
a(S'no_np'
I0
tp915
a(S'w'
I7
tp916
a(S'p2_vo'
I11
tp917
a(S'w'
I5
tp918
a(S'p1_tl'
I26
tp919
a(S'w'
I2
tp920
a(S'p1_vo'
I11
tp921
a(S'w'
I722
tp922
a(S'tr_ll'
I1
tp923
a(S'tr_tl'
I252
tp924
a(S'w'
I9
tp925
a(S'p1_tl'
I26
tp926
a(S'w'
I726
tp927
a(S'p2_vo'
I5
tp928
a(S'w'
I6
tp929
a(S'p1_tl'
I27
tp930
a(S'w'
I2
tp931
a(S'p1_vo'
I5
tp932
a(S'w'
I725
tp933
a(S'p2_vo'
I4
tp934
a(S'w'
I4
tp935
a(S'p1_tl'
I27
tp936
a(S'w'
I2
tp937
a(S'p1_vo'
I4
tp938
a(S'w'
I728
tp939
a(S'p2_vo'
I5
tp940
a(S'w'
I6
tp941
a(S'p1_tl'
I26
tp942
a(S'w'
I2
tp943
a(S'p1_vo'
I5
tp944
a(S'w'
I722
tp945
a(S'no_ll'
I1
tp946
a(S'w'
I1
tp947
a(S'no_np'
I10
tp948
a(S'w'
I6
tp949
a(S'tr_ll'
I1
tp950
a(S'tr_th'
I0
tp951
a(S'tr_tl'
I190
tp952
a(S'w'
I5
tp953
a(S'p2_vo'
I4
tp954
a(S'w'
I3
tp955
a(S'p2_ll'
I1
tp956
a(S'w'
I1
tp957
a(S'p2_tl'
I166
tp958
a(S'w'
I4
tp959
a(S'p1_tl'
I26
tp960
a(S'w'
I3
tp961
a(S'p1_vo'
I4
tp962
a(S'w'
I3
tp963
a(S'p1_ll'
I1
tp964
a(S'p1_th'
I1
tp965
a(S'p1_tl'
I252
tp966
a(S'w'
I708
tp967
a(S'no_ll'
I1
tp968
a(S'w'
I1
tp969
a(S'no_np'
I4
tp970
a(S'w'
I7
tp971
a(S'p2_vo'
I11
tp972
a(S'w'
I6
tp973
a(S'p1_tl'
I251
tp974
a(S'w'
I2
tp975
a(S'p1_vo'
I11
tp976
a(S'w'
I721
tp977
a(S'tr_ll'
I1
tp978
a(S'tr_th'
I1
tp979
a(S'tr_tl'
I252
tp980
a(S'w'
I9
tp981
a(S'p1_tl'
I251
tp982
a(S'w'
I725
tp983
a(S'p2_vo'
I5
tp984
a(S'w'
I5
tp985
a(S'p1_tl'
I252
tp986
a(S'w'
I3
tp987
a(S'p1_vo'
I5
tp988
a(S'w'
I726
tp989
a(S'p2_vo'
I4
tp990
a(S'w'
I4
tp991
a(S'p1_tl'
I252
tp992
a(S'w'
I2
tp993
a(S'p1_vo'
I4
tp994
a(S'w'
I728
tp995
a(S'p2_vo'
I5
tp996
a(S'w'
I6
tp997
a(S'p1_tl'
I253
tp998
a(S'w'
I2
tp999
a(S'p1_vo'
I5
tp1000
a(S'w'
I725
tp1001
a(S'tr_ll'
I1
tp1002
a(S'w'
I5
tp1003
a(S'p2_vo'
I4
tp1004
a(S'w'
I4
tp1005
a(S'p2_ll'
I1
tp1006
a(S'p2_tl'
I166
tp1007
a(S'w'
I5
tp1008
a(S'p1_tl'
I253
tp1009
a(S'w'
I2
tp1010
a(S'p1_vo'
I4
tp1011
a(S'w'
I3
tp1012
a(S'p1_ll'
I1
tp1013
a(S'w'
I1
tp1014
a(S'p1_tl'
I252
tp1015
a(S'w'
I715
tp1016
a(S'p2_vo'
I11
tp1017
a(S'w'
I6
tp1018
a(S'p1_tl'
I252
tp1019
a(S'w'
I2
tp1020
a(S'p1_vo'
I11
tp1021
a(S'w'
I729
tp1022
a(S'p1_tl'
I252
tp1023
a(S'w'
I730
tp1024
a(S'p2_vo'
I5
tp1025
a(S'w'
I6
tp1026
a(S'p1_tl'
I251
tp1027
a(S'w'
I2
tp1028
a(S'p1_vo'
I5
tp1029
a(S'w'
I726
tp1030
a(S'p2_vo'
I4
tp1031
a(S'w'
I4
tp1032
a(S'p1_tl'
I251
tp1033
a(S'w'
I2
tp1034
a(S'p1_vo'
I4
tp1035
a(S'w'
I728
tp1036
a(S'p2_vo'
I5
tp1037
a(S'w'
I5
tp1038
a(S'p1_tl'
I252
tp1039
a(S'w'
I3
tp1040
a(S'p1_vo'
I5
tp1041
a(S'w'
I726
tp1042
a(S'no_ll'
I1
tp1043
a(S'w'
I8
tp1044
a(S'tr_ll'
I1
tp1045
a(S'tr_tl'
I46
tp1046
a(S'w'
I5
tp1047
a(S'p2_vo'
I4
tp1048
a(S'w'
I3
tp1049
a(S'p2_ll'
I1
tp1050
a(S'w'
I1
tp1051
a(S'p2_tl'
I166
tp1052
a(S'w'
I4
tp1053
a(S'p1_tl'
I252
tp1054
a(S'w'
I3
tp1055
a(S'p1_vo'
I4
tp1056
a(S'w'
I3
tp1057
a(S'p1_ll'
I1
tp1058
a(S'p1_tl'
I252
tp1059
a(S'w'
I702
tp1060
a(S'no_ll'
I1
tp1061
a(S'w'
I1
tp1062
a(S'no_np'
I0
tp1063
a(S'w'
I7
tp1064
a(S'p2_vo'
I11
tp1065
a(S'w'
I5
tp1066
a(S'p1_tl'
I253
tp1067
a(S'w'
I3
tp1068
a(S'p1_vo'
I11
tp1069
a(S'w'
I721
tp1070
a(S'tr_ll'
I1
tp1071
a(S'tr_tl'
I252
tp1072
a(S'w'
I9
tp1073
a(S'p1_tl'
I253
tp1074
a(S'w'
I726
tp1075
a(S'p2_vo'
I5
tp1076
a(S'w'
I6
tp1077
a(S'p1_tl'
I252
tp1078
a(S'w'
I2
tp1079
a(S'p1_vo'
I5
tp1080
a(S'w'
I726
tp1081
a(S'p2_vo'
I4
tp1082
a(S'w'
I4
tp1083
a(S'p1_tl'
I252
tp1084
a(S'w'
I2
tp1085
a(S'p1_vo'
I4
tp1086
a(S'w'
I727
tp1087
a(S'p2_vo'
I5
tp1088
a(S'w'
I6
tp1089
a(S'p1_tl'
I251
tp1090
a(S'w'
I2
tp1091
a(S'p1_vo'
I5
tp1092
a(S'w'
I722
tp1093
a(S'no_ll'
I1
tp1094
a(S'w'
I1
tp1095
a(S'no_np'
I4
tp1096
a(S'w'
I6
tp1097
a(S'tr_ll'
I1
tp1098
a(S'tr_tl'
I46
tp1099
a(S'w'
I5
tp1100
a(S'p2_vo'
I4
tp1101
a(S'w'
I3
tp1102
a(S'p2_ll'
I1
tp1103
a(S'w'
I1
tp1104
a(S'p2_tl'
I166
tp1105
a(S'w'
I4
tp1106
a(S'p1_tl'
I251
tp1107
a(S'w'
I3
tp1108
a(S'p1_vo'
I4
tp1109
a(S'w'
I3
tp1110
a(S'p1_ll'
I1
tp1111
a(S'p1_tl'
I252
tp1112
a(S'w'
I708
tp1113
a(S'no_ll'
I1
tp1114
a(S'w'
I1
tp1115
a(S'no_np'
I0
tp1116
a(S'w'
I7
tp1117
a(S'p2_vo'
I11
tp1118
a(S'w'
I5
tp1119
a(S'p1_tl'
I252
tp1120
a(S'w'
I2
tp1121
a(S'p1_vo'
I11
tp1122
a(S'w'
I722
tp1123
a(S'tr_ll'
I1
tp1124
a(S'tr_tl'
I252
tp1125
a(S'w'
I9
tp1126
a(S'p1_tl'
I252
tp1127
a(S'w'
I726
tp1128
a(S'p2_vo'
I5
tp1129
a(S'w'
I6
tp1130
a(S'p1_tl'
I253
tp1131
a(S'w'
I2
tp1132
a(S'p1_vo'
I5
tp1133
a(S'w'
I725
tp1134
a(S'p2_vo'
I4
tp1135
a(S'w'
I4
tp1136
a(S'p1_tl'
I253
tp1137
a(S'w'
I2
tp1138
a(S'p1_vo'
I4
tp1139
a(S'w'
I728
tp1140
a(S'p2_vo'
I5
tp1141
a(S'w'
I6
tp1142
a(S'p1_tl'
I252
tp1143
a(S'w'
I2
tp1144
a(S'p1_vo'
I5
tp1145
a(S'w'
I722
tp1146
a(S'no_ll'
I1
tp1147
a(S'w'
I1
tp1148
a(S'no_np'
I10
tp1149
a(S'w'
I6
tp1150
a(S'tr_ll'
I1
tp1151
a(S'tr_th'
I0
tp1152
a(S'tr_tl'
I190
tp1153
a(S'w'
I5
tp1154
a(S'p2_vo'
I4
tp1155
a(S'w'
I3
tp1156
a(S'p2_ll'
I1
tp1157
a(S'w'
I1
tp1158
a(S'p2_tl'
I166
tp1159
a(S'w'
I4
tp1160
a(S'p1_tl'
I252
tp1161
a(S'w'
I3
tp1162
a(S'p1_vo'
I4
tp1163
a(S'w'
I3
tp1164
a(S'p1_ll'
I1
tp1165
a(S'p1_tl'
I252
tp1166
a(S'w'
I708
tp1167
a(S'no_ll'
I1
tp1168
a(S'w'
I1
tp1169
a(S'no_np'
I4
tp1170
a(S'w'
I7
tp1171
a(S'p2_vo'
I11
tp1172
a(S'w'
I6
tp1173
a(S'p1_tl'
I251
tp1174
a(S'w'
I2
tp1175
a(S'p1_vo'
I11
tp1176
a(S'w'
I721
tp1177
a(S'tr_ll'
I1
tp1178
a(S'tr_th'
I1
tp1179
a(S'tr_tl'
I252
tp1180
a(S'w'
I9
tp1181
a(S'p1_tl'
I251
tp1182
a(S'w'
I725
tp1183
a(S'p2_vo'
I5
tp1184
a(S'w'
I5
tp1185
a(S'p1_tl'
I252
tp1186
a(S'w'
I3
tp1187
a(S'p1_vo'
I5
tp1188
a(S'w'
I726
tp1189
a(S'p2_vo'
I4
tp1190
a(S'w'
I4
tp1191
a(S'p1_tl'
I252
tp1192
a(S'w'
I2
tp1193
a(S'p1_vo'
I4
tp1194
a(S'w'
I728
tp1195
a(S'p2_vo'
I5
tp1196
a(S'w'
I6
tp1197
a(S'p1_tl'
I253
tp1198
a(S'w'
I2
tp1199
a(S'p1_vo'
I5
tp1200
a(S'w'
I725
tp1201
a(S'tr_ll'
I1
tp1202
a(S'w'
I5
tp1203
a(S'p2_vo'
I4
tp1204
a(S'w'
I4
tp1205
a(S'p2_ll'
I1
tp1206
a(S'p2_tl'
I166
tp1207
a(S'w'
I5
tp1208
a(S'p1_tl'
I253
tp1209
a(S'w'
I2
tp1210
a(S'p1_vo'
I4
tp1211
a(S'w'
I3
tp1212
a(S'p1_ll'
I1
tp1213
a(S'w'
I1
tp1214
a(S'p1_tl'
I252
tp1215
a(S'w'
I715
tp1216
a(S'p2_vo'
I11
tp1217
a(S'w'
I6
tp1218
a(S'p1_tl'
I252
tp1219
a(S'w'
I2
tp1220
a(S'p1_vo'
I11
tp1221
a(S'w'
I729
tp1222
a(S'p1_tl'
I252
tp1223
a(S'w'
I730
tp1224
a(S'p2_vo'
I5
tp1225
a(S'w'
I6
tp1226
a(S'p1_tl'
I251
tp1227
a(S'w'
I2
tp1228
a(S'p1_vo'
I5
tp1229
a(S'w'
I726
tp1230
a(S'p2_vo'
I4
tp1231
a(S'w'
I4
tp1232
a(S'p1_tl'
I251
tp1233
a(S'w'
I2
tp1234
a(S'p1_vo'
I4
tp1235
a(S'w'
I728
tp1236
a(S'p2_vo'
I5
tp1237
a(S'w'
I5
tp1238
a(S'p1_tl'
I252
tp1239
a(S'w'
I3
tp1240
a(S'p1_vo'
I5
tp1241
a(S'w'
I725
tp1242
a(S'no_ll'
I1
tp1243
a(S'w'
I8
tp1244
a(S'tr_ll'
I1
tp1245
a(S'tr_tl'
I46
tp1246
a(S'w'
I5
tp1247
a(S'p2_vo'
I4
tp1248
a(S'w'
I3
tp1249
a(S'p2_ll'
I1
tp1250
a(S'w'
I1
tp1251
a(S'p2_tl'
I58
tp1252
a(S'w'
I4
tp1253
a(S'p1_tl'
I252
tp1254
a(S'w'
I3
tp1255
a(S'p1_vo'
I4
tp1256
a(S'w'
I5
tp1257
a(S'p1_ll'
I1
tp1258
a(S'w'
I1
tp1259
a(S'p1_tl'
I171
tp1260
a(S'w'
I700
tp1261
a(S'no_ll'
I1
tp1262
a(S'w'
I1
tp1263
a(S'no_np'
I0
tp1264
a(S'w'
I7
tp1265
a(S'p2_vo'
I11
tp1266
a(S'w'
I5
tp1267
a(S'p1_tl'
I172
tp1268
a(S'w'
I3
tp1269
a(S'p1_vo'
I10
tp1270
a(S'w'
I721
tp1271
a(S'tr_ll'
I1
tp1272
a(S'tr_th'
I3
tp1273
a(S'tr_tl'
I87
tp1274
a(S'w'
I9
tp1275
a(S'p1_tl'
I172
tp1276
a(S'w'
I2
tp1277
a(S'p1_vo'
I9
tp1278
a(S'w'
I724
tp1279
a(S'p2_vo'
I5
tp1280
a(S'w'
I6
tp1281
a(S'p1_tl'
I171
tp1282
a(S'w'
I2
tp1283
a(S'p1_vo'
I10
tp1284
a(S'w'
I726
tp1285
a(S'p2_vo'
I4
tp1286
a(S'w'
I4
tp1287
a(S'p1_tl'
I171
tp1288
a(S'w'
I2
tp1289
a(S'p1_vo'
I9
tp1290
a(S'w'
I727
tp1291
a(S'p2_vo'
I5
tp1292
a(S'w'
I6
tp1293
a(S'p1_tl'
I170
tp1294
a(S'w'
I2
tp1295
a(S'p1_vo'
I5
tp1296
a(S'w'
I722
tp1297
a(S'no_ll'
I1
tp1298
a(S'w'
I1
tp1299
a(S'no_np'
I4
tp1300
a(S'w'
I6
tp1301
a(S'tr_ll'
I1
tp1302
a(S'tr_th'
I1
tp1303
a(S'tr_tl'
I46
tp1304
a(S'w'
I5
tp1305
a(S'p2_vo'
I4
tp1306
a(S'w'
I3
tp1307
a(S'p1_tl'
I170
tp1308
a(S'w'
I3
tp1309
a(S'p1_vo'
I4
tp1310
a(S'w'
I716
tp1311
a(S'no_ll'
I1
tp1312
a(S'w'
I1
tp1313
a(S'no_np'
I0
tp1314
a(S'w'
I7
tp1315
a(S'p2_vo'
I2
tp1316
a(S'w'
I5
tp1317
a(S'p1_tl'
I171
tp1318
a(S'w'
I2
tp1319
a(S'p1_vo'
I5
tp1320
a(S'w'
I721
tp1321
a(S'tr_lr'
I0
tp1322
a(S'w'
I5
tp1323
a(S'p2_vo'
I1
tp1324
a(S'w'
I4
tp1325
a(S'p1_tl'
I171
tp1326
a(S'w'
I2
tp1327
a(S'p1_vo'
I4
tp1328
a(S'w'
I726
tp1329
a(S'p2_vo'
I2
tp1330
a(S'w'
I6
tp1331
a(S'p1_tl'
I172
tp1332
a(S'w'
I2
tp1333
a(S'p1_vo'
I5
tp1334
a(S'w'
I724
tp1335
a(S'p2_vo'
I1
tp1336
a(S'w'
I4
tp1337
a(S'p1_tl'
I172
tp1338
a(S'w'
I2
tp1339
a(S'p1_vo'
I4
tp1340
a(S'w'
I729
tp1341
a(S'p2_vo'
I2
tp1342
a(S'w'
I6
tp1343
a(S'p1_tl'
I171
tp1344
a(S'w'
I2
tp1345
a(S'p1_vo'
I5
tp1346
a(S'w'
I721
tp1347
a(S'no_ll'
I1
tp1348
a(S'w'
I1
tp1349
a(S'no_np'
I10
tp1350
a(S'w'
I6
tp1351
a(S'tr_lr'
I9
tp1352
a(S'tr_ll'
I1
tp1353
a(S'tr_th'
I0
tp1354
a(S'w'
I1
tp1355
a(S'tr_tl'
I190
tp1356
a(S'w'
I4
tp1357
a(S'p2_vo'
I1
tp1358
a(S'w'
I4
tp1359
a(S'p2_ll'
I1
tp1360
a(S'p2_tl'
I26
tp1361
a(S'w'
I5
tp1362
a(S'p1_tl'
I171
tp1363
a(S'w'
I2
tp1364
a(S'p1_vo'
I4
tp1365
a(S'w'
I3
tp1366
a(S'p1_ll'
I1
tp1367
a(S'w'
I1
tp1368
a(S'p1_tl'
I197
tp1369
a(S'w'
I707
tp1370
a(S'no_ll'
I1
tp1371
a(S'w'
I1
tp1372
a(S'no_np'
I4
tp1373
a(S'w'
I7
tp1374
a(S'p2_vo'
I11
tp1375
a(S'w'
I6
tp1376
a(S'p1_tl'
I196
tp1377
a(S'w'
I2
tp1378
a(S'p1_vo'
I10
tp1379
a(S'w'
I721
tp1380
a(S'tr_ll'
I1
tp1381
a(S'tr_th'
I1
tp1382
a(S'tr_tl'
I197
tp1383
a(S'w'
I9
tp1384
a(S'p1_tl'
I196
tp1385
a(S'w'
I2
tp1386
a(S'p1_vo'
I9
tp1387
a(S'w'
I723
tp1388
a(S'p2_vo'
I5
tp1389
a(S'w'
I5
tp1390
a(S'p1_tl'
I197
tp1391
a(S'w'
I3
tp1392
a(S'p1_vo'
I10
tp1393
a(S'w'
I726
tp1394
a(S'p2_vo'
I4
tp1395
a(S'w'
I4
tp1396
a(S'p1_tl'
I197
tp1397
a(S'w'
I2
tp1398
a(S'p1_vo'
I9
tp1399
a(S'w'
I728
tp1400
a(S'p2_vo'
I5
tp1401
a(S'w'
I6
tp1402
a(S'p1_tl'
I198
tp1403
a(S'w'
I2
tp1404
a(S'p1_vo'
I5
tp1405
a(S'w'
I722
tp1406
a(S'no_ll'
I1
tp1407
a(S'w'
I1
tp1408
a(S'w'
I6
tp1409
a(S'tr_ll'
I1
tp1410
a(S'tr_tl'
I46
tp1411
a(S'w'
I5
tp1412
a(S'p2_vo'
I4
tp1413
a(S'w'
I3
tp1414
a(S'p1_tl'
I198
tp1415
a(S'w'
I3
tp1416
a(S'p1_vo'
I4
tp1417
a(S'w'
I716
tp1418
a(S'no_ll'
I1
tp1419
a(S'w'
I1
tp1420
a(S'no_np'
I0
tp1421
a(S'w'
I7
tp1422
a(S'p2_vo'
I2
tp1423
a(S'w'
I5
tp1424
a(S'p1_tl'
I197
tp1425
a(S'w'
I3
tp1426
a(S'p1_vo'
I5
tp1427
a(S'w'
I719
tp1428
a(S'tr_lr'
I0
tp1429
a(S'w'
I5
tp1430
a(S'p2_vo'
I1
tp1431
a(S'w'
I4
tp1432
a(S'p1_tl'
I197
tp1433
a(S'w'
I2
tp1434
a(S'p1_vo'
I4
tp1435
a(S'w'
I726
tp1436
a(S'p2_vo'
I2
tp1437
a(S'w'
I6
tp1438
a(S'p1_tl'
I196
tp1439
a(S'w'
I2
tp1440
a(S'p1_vo'
I5
tp1441
a(S'w'
I725
tp1442
a(S'p2_vo'
I1
tp1443
a(S'w'
I4
tp1444
a(S'p1_tl'
I196
tp1445
a(S'w'
I2
tp1446
a(S'p1_vo'
I4
tp1447
a(S'w'
I729
tp1448
a(S'p2_vo'
I2
tp1449
a(S'w'
I5
tp1450
a(S'p1_tl'
I197
tp1451
a(S'w'
I3
tp1452
a(S'p1_vo'
I5
tp1453
a(S'w'
I723
tp1454
a(S'no_ll'
I1
tp1455
a(S'no_np'
I4
tp1456
a(S'w'
I6
tp1457
a(S'tr_lr'
I9
tp1458
a(S'w'
I1
tp1459
a(S'tr_ll'
I1
tp1460
a(S'w'
I5
tp1461
a(S'p2_vo'
I1
tp1462
a(S'w'
I3
tp1463
a(S'p2_ll'
I1
tp1464
a(S'w'
I1
tp1465
a(S'p2_tl'
I250
tp1466
a(S'w'
I4
tp1467
a(S'p1_tl'
I197
tp1468
a(S'w'
I2
tp1469
a(S'p1_vo'
I4
tp1470
a(S'w'
I4
tp1471
a(S'p1_ll'
I1
tp1472
a(S'p1_th'
I2
tp1473
a(S'p1_tl'
I58
tp1474
a(S'w'
I705
tp1475
a(S'no_ll'
I1
tp1476
a(S'w'
I1
tp1477
a(S'no_np'
I0
tp1478
a(S'w'
I7
tp1479
a(S'p2_vo'
I11
tp1480
a(S'w'
I5
tp1481
a(S'p1_tl'
I59
tp1482
a(S'w'
I3
tp1483
a(S'p1_vo'
I10
tp1484
a(S'w'
I721
tp1485
a(S'tr_ll'
I1
tp1486
a(S'tr_th'
I2
tp1487
a(S'tr_tl'
I58
tp1488
a(S'w'
I9
tp1489
a(S'p1_tl'
I59
tp1490
a(S'w'
I2
tp1491
a(S'p1_vo'
I9
tp1492
a(S'w'
I724
tp1493
a(S'p2_vo'
I5
tp1494
a(S'w'
I6
tp1495
a(S'p1_tl'
I58
tp1496
a(S'w'
I2
tp1497
a(S'p1_vo'
I10
tp1498
a(S'w'
I726
tp1499
a(S'p2_vo'
I4
tp1500
a(S'w'
I4
tp1501
a(S'p1_tl'
I58
tp1502
a(S'w'
I2
tp1503
a(S'p1_vo'
I9
tp1504
a(S'w'
I727
tp1505
a(S'p2_vo'
I5
tp1506
a(S'w'
I6
tp1507
a(S'p1_tl'
I57
tp1508
a(S'w'
I2
tp1509
a(S'p1_vo'
I5
tp1510
a(S'w'
I722
tp1511
a(S'no_ll'
I1
tp1512
a(S'w'
I1
tp1513
a(S'no_np'
I4
tp1514
a(S'w'
I6
tp1515
a(S'tr_ll'
I1
tp1516
a(S'tr_th'
I1
tp1517
a(S'tr_tl'
I46
tp1518
a(S'w'
I5
tp1519
a(S'p2_vo'
I4
tp1520
a(S'w'
I3
tp1521
a(S'p1_tl'
I57
tp1522
a(S'w'
I3
tp1523
a(S'p1_vo'
I4
tp1524
a(S'w'
I716
tp1525
a(S'no_ll'
I1
tp1526
a(S'w'
I1
tp1527
a(S'no_np'
I0
tp1528
a(S'w'
I7
tp1529
a(S'p2_vo'
I2
tp1530
a(S'w'
I5
tp1531
a(S'p1_tl'
I58
tp1532
a(S'w'
I2
tp1533
a(S'p1_vo'
I5
tp1534
a(S'w'
I721
tp1535
a(S'tr_lr'
I0
tp1536
a(S'w'
I5
tp1537
a(S'p2_vo'
I1
tp1538
a(S'w'
I4
tp1539
a(S'p1_tl'
I58
tp1540
a(S'w'
I2
tp1541
a(S'p1_vo'
I4
tp1542
a(S'w'
I726
tp1543
a(S'p2_vo'
I2
tp1544
a(S'w'
I6
tp1545
a(S'p1_tl'
I59
tp1546
a(S'w'
I2
tp1547
a(S'p1_vo'
I5
tp1548
a(S'w'
I724
tp1549
a(S'p2_vo'
I1
tp1550
a(S'w'
I4
tp1551
a(S'p1_tl'
I59
tp1552
a(S'w'
I2
tp1553
a(S'p1_vo'
I4
tp1554
a(S'w'
I729
tp1555
a(S'p2_vo'
I2
tp1556
a(S'w'
I6
tp1557
a(S'p1_tl'
I58
tp1558
a(S'w'
I2
tp1559
a(S'p1_vo'
I5
tp1560
a(S'w'
I721
tp1561
a(S'no_ll'
I1
tp1562
a(S'w'
I1
tp1563
a(S'no_np'
I10
tp1564
a(S'w'
I6
tp1565
a(S'tr_lr'
I9
tp1566
a(S'tr_ll'
I1
tp1567
a(S'tr_th'
I0
tp1568
a(S'w'
I1
tp1569
a(S'tr_tl'
I190
tp1570
a(S'w'
I4
tp1571
a(S'p2_vo'
I1
tp1572
a(S'w'
I4
tp1573
a(S'p2_ll'
I1
tp1574
a(S'p2_th'
I3
tp1575
a(S'p2_tl'
I138
tp1576
a(S'w'
I5
tp1577
a(S'p1_tl'
I58
tp1578
a(S'w'
I2
tp1579
a(S'p1_vo'
I4
tp1580
a(S'w'
I3
tp1581
a(S'p1_ll'
I1
tp1582
a(S'w'
I1
tp1583
a(S'p1_tl'
I166
tp1584
a(S'w'
I707
tp1585
a(S'no_ll'
I1
tp1586
a(S'w'
I1
tp1587
a(S'no_np'
I4
tp1588
a(S'w'
I7
tp1589
a(S'p2_vo'
I11
tp1590
a(S'w'
I6
tp1591
a(S'p1_tl'
I165
tp1592
a(S'w'
I2
tp1593
a(S'p1_vo'
I10
tp1594
a(S'w'
I721
tp1595
a(S'tr_ll'
I1
tp1596
a(S'tr_th'
I2
tp1597
a(S'tr_tl'
I166
tp1598
a(S'w'
I9
tp1599
a(S'p1_tl'
I165
tp1600
a(S'w'
I2
tp1601
a(S'p1_vo'
I9
tp1602
a(S'w'
I723
tp1603
a(S'p2_vo'
I5
tp1604
a(S'w'
I5
tp1605
a(S'p1_tl'
I166
tp1606
a(S'w'
I3
tp1607
a(S'p1_vo'
I10
tp1608
a(S'w'
I726
tp1609
a(S'p2_vo'
I4
tp1610
a(S'w'
I4
tp1611
a(S'p1_tl'
I166
tp1612
a(S'w'
I2
tp1613
a(S'p1_vo'
I9
tp1614
a(S'w'
I728
tp1615
a(S'p2_vo'
I5
tp1616
a(S'w'
I6
tp1617
a(S'p1_tl'
I167
tp1618
a(S'w'
I2
tp1619
a(S'p1_vo'
I5
tp1620
a(S'w'
I726
tp1621
a(S'p2_vo'
I4
tp1622
a(S'w'
I4
tp1623
a(S'p1_tl'
I167
tp1624
a(S'w'
I2
tp1625
a(S'p1_vo'
I4
tp1626
a(S'w'
I728
tp1627
a(S'p2_vo'
I2
tp1628
a(S'w'
I6
tp1629
a(S'p1_tl'
I166
tp1630
a(S'w'
I2
tp1631
a(S'p1_vo'
I5
tp1632
a(S'w'
I725
tp1633
a(S'p2_vo'
I1
tp1634
a(S'w'
I4
tp1635
a(S'p1_tl'
I166
tp1636
a(S'w'
I2
tp1637
a(S'p1_vo'
I4
tp1638
a(S'w'
I729
tp1639
a(S'p2_vo'
I2
tp1640
a(S'w'
I6
tp1641
a(S'p1_tl'
I165
tp1642
a(S'w'
I2
tp1643
a(S'p1_vo'
I5
tp1644
a(S'w'
I725
tp1645
a(S'p2_vo'
I1
tp1646
a(S'w'
I4
tp1647
a(S'p1_tl'
I165
tp1648
a(S'w'
I2
tp1649
a(S'p1_vo'
I4
tp1650
a(S'w'
I729
tp1651
a(S'p2_vo'
I2
tp1652
a(S'w'
I5
tp1653
a(S'p1_tl'
I166
tp1654
a(S'w'
I3
tp1655
a(S'p1_vo'
I5
tp1656
a(S'w'
I726
tp1657
a(S'no_ll'
I1
tp1658
a(S'w'
I8
tp1659
a(S'tr_ll'
I1
tp1660
a(S'tr_th'
I1
tp1661
a(S'w'
I1
tp1662
a(S'tr_tl'
I46
tp1663
a(S'w'
I4
tp1664
a(S'p2_vo'
I1
tp1665
a(S'w'
I6
tp1666
a(S'p2_ll'
I1
tp1667
a(S'p2_th'
I2
tp1668
a(S'p2_tl'
I250
tp1669
a(S'w'
I5
tp1670
a(S'p1_tl'
I166
tp1671
a(S'w'
I2
tp1672
a(S'p1_vo'
I4
tp1673
a(S'w'
I9
tp1674
a(S'p1_ll'
I1
tp1675
a(S'w'
I1
tp1676
a(S'p1_tl'
I58
tp1677
a(S'w'
I692
tp1678
a.