(lp1
(S'clock'
p2
I1789772
tp3
a(S'p1_du'
I2
tp4
a(S'p1_vo'
I2
tp5
a(S'p1_sn'
I1
tp6
a(S'p1_tl'
I200
tp7
a(S'p1_ll'
I1
tp8
a(S'p2_du'
I2
tp9
a(S'p2_vo'
I2
tp10
a(S'p2_sn'
I1
tp11
a(S'p2_tl'
I238
tp12
a(S'p2_ll'
I1
tp13
a(S'tr_lr'
I32
tp14
a(S'tr_tl'
I196
tp15
a(S'tr_ll'
I1
tp16
a(S'tr_th'
I1
tp17
a(S'ch_no'
I1
tp18
a(S'ch_tr'
I1
tp19
a(S'ch_p2'
I1
tp20
a(S'ch_p1'
I1
tp21
a(S'w'
I1
tp22
a(S'tr_lr'
I10
tp23
a(S'tr_tl'
I166
tp24
a(S'w'
I1
tp25
a(S'tr_ll'
I1
tp26
a(S'tr_th'
I2
tp27
a(S'w'
I3662
tp28
a(S'tr_ll'
I1
tp29
a(S'w'
I3669
tp30
a(S'tr_tl'
I82
tp31
a(S'tr_ll'
I1
tp32
a(S'tr_th'
I1
tp33
a(S'w'
I3669
tp34
a(S'tr_ll'
I1
tp35
a(S'w'
I3669
tp36
a(S'tr_tl'
I168
tp37
a(S'tr_ll'
I1
tp38
a(S'tr_th'
I0
tp39
a(S'w'
I5
tp40
a(S'p2_vo'
I1
tp41
a(S'w'
I1
tp42
a(S'p2_tl'
I12
tp43
a(S'w'
I1
tp44
a(S'p2_ll'
I1
tp45
a(S'p2_th'
I1
tp46
a(S'w'
I5
tp47
a(S'p1_vo'
I1
tp48
a(S'w'
I1
tp49
a(S'p1_tl'
I168
tp50
a(S'p1_ll'
I1
tp51
a(S'w'
I3656
tp52
a(S'tr_ll'
I1
tp53
a(S'w'
I5
tp54
a(S'w'
I1
tp55
a(S'p2_ll'
I1
tp56
a(S'w'
I4
tp57
a(S'w'
I1
tp58
a(S'p1_ll'
I1
tp59
a(S'w'
I3658
tp60
a(S'tr_tl'
I82
tp61
a(S'tr_ll'
I1
tp62
a(S'tr_th'
I1
tp63
a(S'w'
I5
tp64
a(S'p2_tl'
I133
tp65
a(S'w'
I1
tp66
a(S'p2_ll'
I1
tp67
a(S'p2_th'
I0
tp68
a(S'w'
I4
tp69
a(S'p1_tl'
I112
tp70
a(S'w'
I1
tp71
a(S'p1_ll'
I1
tp72
a(S'w'
I3658
tp73
a(S'tr_ll'
I1
tp74
a(S'w'
I5
tp75
a(S'w'
I1
tp76
a(S'p2_ll'
I1
tp77
a(S'w'
I4
tp78
a(S'w'
I1
tp79
a(S'p1_ll'
I1
tp80
a(S'w'
I3658
tp81
a(S'tr_tl'
I166
tp82
a(S'tr_ll'
I1
tp83
a(S'tr_th'
I2
tp84
a(S'w'
I5
tp85
a(S'p2_vo'
I2
tp86
a(S'w'
I1
tp87
a(S'w'
I1
tp88
a(S'p2_ll'
I1
tp89
a(S'w'
I5
tp90
a(S'p1_vo'
I2
tp91
a(S'w'
I1
tp92
a(S'p1_ll'
I1
tp93
a(S'w'
I3656
tp94
a(S'tr_ll'
I1
tp95
a(S'w'
I3669
tp96
a(S'tr_tl'
I82
tp97
a(S'tr_ll'
I1
tp98
a(S'tr_th'
I1
tp99
a(S'w'
I3669
tp100
a(S'tr_ll'
I1
tp101
a(S'w'
I3669
tp102
a(S'tr_tl'
I168
tp103
a(S'w'
I1
tp104
a(S'tr_ll'
I1
tp105
a(S'tr_th'
I0
tp106
a(S'w'
I5
tp107
a(S'p2_vo'
I1
tp108
a(S'w'
I1
tp109
a(S'p2_tl'
I12
tp110
a(S'p2_ll'
I1
tp111
a(S'p2_th'
I1
tp112
a(S'w'
I5
tp113
a(S'p1_vo'
I1
tp114
a(S'w'
I1
tp115
a(S'p1_tl'
I168
tp116
a(S'p1_ll'
I1
tp117
a(S'w'
I3657
tp118
a(S'tr_ll'
I1
tp119
a(S'w'
I4
tp120
a(S'w'
I1
tp121
a(S'p2_ll'
I1
tp122
a(S'w'
I5
tp123
a(S'p1_ll'
I1
tp124
a(S'w'
I3658
tp125
a(S'tr_tl'
I82
tp126
a(S'tr_ll'
I1
tp127
a(S'tr_th'
I1
tp128
a(S'w'
I5
tp129
a(S'p2_tl'
I133
tp130
a(S'w'
I1
tp131
a(S'p2_ll'
I1
tp132
a(S'p2_th'
I0
tp133
a(S'w'
I5
tp134
a(S'p1_tl'
I112
tp135
a(S'p1_ll'
I1
tp136
a(S'w'
I3658
tp137
a(S'tr_ll'
I1
tp138
a(S'w'
I5
tp139
a(S'w'
I1
tp140
a(S'p2_ll'
I1
tp141
a(S'w'
I5
tp142
a(S'p1_ll'
I1
tp143
a(S'w'
I3658
tp144
a(S'tr_tl'
I92
tp145
a(S'tr_ll'
I1
tp146
a(S'tr_th'
I2
tp147
a(S'w'
I5
tp148
a(S'p2_tl'
I150
tp149
a(S'w'
I1
tp150
a(S'p2_ll'
I1
tp151
a(S'w'
I5
tp152
a(S'p1_tl'
I118
tp153
a(S'p1_ll'
I1
tp154
a(S'w'
I3658
tp155
a(S'tr_ll'
I1
tp156
a(S'w'
I5
tp157
a(S'w'
I1
tp158
a(S'p2_ll'
I1
tp159
a(S'w'
I5
tp160
a(S'p1_ll'
I1
tp161
a(S'w'
I3658
tp162
a(S'tr_tl'
I45
tp163
a(S'w'
I1
tp164
a(S'tr_ll'
I1
tp165
a(S'tr_th'
I1
tp166
a(S'w'
I4
tp167
a(S'p2_tl'
I159
tp168
a(S'w'
I1
tp169
a(S'p2_ll'
I1
tp170
a(S'w'
I5
tp171
a(S'p1_tl'
I133
tp172
a(S'p1_ll'
I1
tp173
a(S'w'
I3658
tp174
a(S'tr_ll'
I1
tp175
a(S'w'
I5
tp176
a(S'w'
I1
tp177
a(S'p2_ll'
I1
tp178
a(S'w'
I5
tp179
a(S'p1_ll'
I1
tp180
a(S'w'
I3658
tp181
a(S'tr_tl'
I150
tp182
a(S'w'
I1
tp183
a(S'tr_ll'
I1
tp184
a(S'tr_th'
I0
tp185
a(S'w'
I4
tp186
a(S'p2_tl'
I200
tp187
a(S'w'
I1
tp188
a(S'p2_ll'
I1
tp189
a(S'w'
I5
tp190
a(S'p1_tl'
I150
tp191
a(S'p1_ll'
I1
tp192
a(S'w'
I3659
tp193
a(S'tr_ll'
I1
tp194
a(S'w'
I4
tp195
a(S'w'
I1
tp196
a(S'p2_ll'
I1
tp197
a(S'w'
I5
tp198
a(S'p1_ll'
I1
tp199
a(S'w'
I3658
tp200
a(S'tr_tl'
I45
tp201
a(S'tr_ll'
I1
tp202
a(S'tr_th'
I1
tp203
a(S'w'
I5
tp204
a(S'p2_tl'
I238
tp205
a(S'w'
I1
tp206
a(S'p2_ll'
I1
tp207
a(S'w'
I5
tp208
a(S'p1_tl'
I200
tp209
a(S'p1_ll'
I1
tp210
a(S'w'
I3659
tp211
a(S'tr_ll'
I1
tp212
a(S'w'
I4
tp213
a(S'w'
I1
tp214
a(S'p2_ll'
I1
tp215
a(S'w'
I5
tp216
a(S'p1_ll'
I1
tp217
a(S'w'
I3658
tp218
a(S'tr_tl'
I92
tp219
a(S'w'
I1
tp220
a(S'tr_ll'
I1
tp221
a(S'tr_th'
I2
tp222
a(S'w'
I5
tp223
a(S'p2_tl'
I45
tp224
a(S'p2_ll'
I1
tp225
a(S'p2_th'
I1
tp226
a(S'w'
I5
tp227
a(S'p1_tl'
I238
tp228
a(S'p1_ll'
I1
tp229
a(S'w'
I3659
tp230
a(S'tr_ll'
I1
tp231
a(S'w'
I5
tp232
a(S'p2_ll'
I1
tp233
a(S'w'
I5
tp234
a(S'p1_ll'
I1
tp235
a(S'w'
I3658
tp236
a(S'tr_tl'
I45
tp237
a(S'w'
I1
tp238
a(S'tr_ll'
I1
tp239
a(S'tr_th'
I1
tp240
a(S'w'
I4
tp241
a(S'p2_tl'
I147
tp242
a(S'w'
I1
tp243
a(S'p2_ll'
I1
tp244
a(S'w'
I5
tp245
a(S'p1_tl'
I12
tp246
a(S'p1_ll'
I1
tp247
a(S'p1_th'
I1
tp248
a(S'w'
I3659
tp249
a(S'tr_ll'
I1
tp250
a(S'w'
I4
tp251
a(S'w'
I1
tp252
a(S'p2_ll'
I1
tp253
a(S'w'
I5
tp254
a(S'p1_ll'
I1
tp255
a(S'w'
I3658
tp256
a(S'tr_tl'
I92
tp257
a(S'w'
I1
tp258
a(S'tr_ll'
I1
tp259
a(S'tr_th'
I2
tp260
a(S'w'
I5
tp261
a(S'p2_vo'
I5
tp262
a(S'w'
I1
tp263
a(S'p2_tl'
I223
tp264
a(S'p2_ll'
I1
tp265
a(S'w'
I5
tp266
a(S'p1_vo'
I5
tp267
a(S'w'
I1
tp268
a(S'p1_tl'
I45
tp269
a(S'p1_ll'
I1
tp270
a(S'w'
I3657
tp271
a(S'tr_ll'
I1
tp272
a(S'w'
I3668
tp273
a(S'tr_tl'
I45
tp274
a(S'w'
I1
tp275
a(S'tr_ll'
I1
tp276
a(S'tr_th'
I1
tp277
a(S'w'
I3669
tp278
a(S'tr_ll'
I1
tp279
a(S'w'
I3668
tp280
a(S'tr_tl'
I249
tp281
a(S'w'
I1
tp282
a(S'tr_ll'
I1
tp283
a(S'tr_th'
I2
tp284
a(S'w'
I3669
tp285
a(S'tr_ll'
I1
tp286
a(S'w'
I3668
tp287
a(S'tr_tl'
I124
tp288
a(S'w'
I1
tp289
a(S'tr_ll'
I1
tp290
a(S'tr_th'
I1
tp291
a(S'w'
I3669
tp292
a(S'tr_ll'
I1
tp293
a(S'w'
I3668
tp294
a(S'tr_tl'
I189
tp295
a(S'w'
I1
tp296
a(S'tr_ll'
I1
tp297
a(S'tr_th'
I0
tp298
a(S'w'
I5
tp299
a(S'p2_vo'
I1
tp300
a(S'w'
I1
tp301
a(S'p2_tl'
I150
tp302
a(S'p2_ll'
I1
tp303
a(S'p2_th'
I0
tp304
a(S'w'
I5
tp305
a(S'p1_vo'
I1
tp306
a(S'w'
I1
tp307
a(S'p1_tl'
I126
tp308
a(S'p1_ll'
I1
tp309
a(S'p1_th'
I0
tp310
a(S'w'
I3657
tp311
a(S'tr_ll'
I1
tp312
a(S'w'
I5
tp313
a(S'p2_ll'
I1
tp314
a(S'w'
I5
tp315
a(S'p1_ll'
I1
tp316
a(S'w'
I3658
tp317
a(S'tr_tl'
I124
tp318
a(S'w'
I1
tp319
a(S'tr_ll'
I1
tp320
a(S'tr_th'
I1
tp321
a(S'w'
I5
tp322
a(S'p2_tl'
I126
tp323
a(S'p2_ll'
I1
tp324
a(S'w'
I5
tp325
a(S'p1_tl'
I94
tp326
a(S'p1_ll'
I1
tp327
a(S'w'
I3659
tp328
a(S'tr_ll'
I1
tp329
a(S'w'
I5
tp330
a(S'p2_ll'
I1
tp331
a(S'w'
I5
tp332
a(S'p1_ll'
I1
tp333
a(S'w'
I3658
tp334
a(S'tr_tl'
I249
tp335
a(S'w'
I1
tp336
a(S'tr_ll'
I1
tp337
a(S'tr_th'
I2
tp338
a(S'w'
I5
tp339
a(S'p2_vo'
I2
tp340
a(S'w'
I1
tp341
a(S'p2_ll'
I1
tp342
a(S'w'
I5
tp343
a(S'p1_vo'
I2
tp344
a(S'w'
I1
tp345
a(S'p1_ll'
I1
tp346
a(S'w'
I3657
tp347
a(S'tr_ll'
I1
tp348
a(S'w'
I3668
tp349
a(S'tr_tl'
I124
tp350
a(S'w'
I1
tp351
a(S'tr_ll'
I1
tp352
a(S'tr_th'
I1
tp353
a(S'w'
I3669
tp354
a(S'tr_ll'
I1
tp355
a(S'w'
I3668
tp356
a(S'tr_tl'
I189
tp357
a(S'w'
I1
tp358
a(S'tr_ll'
I1
tp359
a(S'tr_th'
I0
tp360
a(S'w'
I5
tp361
a(S'p2_vo'
I1
tp362
a(S'w'
I1
tp363
a(S'p2_tl'
I150
tp364
a(S'p2_ll'
I1
tp365
a(S'w'
I5
tp366
a(S'p1_vo'
I1
tp367
a(S'w'
I1
tp368
a(S'p1_tl'
I126
tp369
a(S'p1_ll'
I1
tp370
a(S'w'
I3657
tp371
a(S'tr_ll'
I1
tp372
a(S'w'
I5
tp373
a(S'p2_ll'
I1
tp374
a(S'w'
I5
tp375
a(S'p1_ll'
I1
tp376
a(S'w'
I3658
tp377
a(S'tr_tl'
I124
tp378
a(S'w'
I1
tp379
a(S'tr_ll'
I1
tp380
a(S'tr_th'
I1
tp381
a(S'w'
I5
tp382
a(S'p2_tl'
I126
tp383
a(S'p2_ll'
I1
tp384
a(S'w'
I5
tp385
a(S'p1_tl'
I74
tp386
a(S'p1_ll'
I1
tp387
a(S'w'
I3659
tp388
a(S'tr_ll'
I1
tp389
a(S'w'
I5
tp390
a(S'p2_ll'
I1
tp391
a(S'w'
I5
tp392
a(S'p1_ll'
I1
tp393
a(S'w'
I3658
tp394
a(S'tr_tl'
I137
tp395
a(S'w'
I1
tp396
a(S'tr_ll'
I1
tp397
a(S'tr_th'
I3
tp398
a(S'w'
I5
tp399
a(S'p2_tl'
I112
tp400
a(S'p2_ll'
I1
tp401
a(S'w'
I5
tp402
a(S'p1_tl'
I88
tp403
a(S'p1_ll'
I1
tp404
a(S'w'
I3659
tp405
a(S'tr_ll'
I1
tp406
a(S'w'
I5
tp407
a(S'p2_ll'
I1
tp408
a(S'w'
I5
tp409
a(S'p1_ll'
I1
tp410
a(S'w'
I3658
tp411
a(S'tr_tl'
I196
tp412
a(S'w'
I1
tp413
a(S'tr_ll'
I1
tp414
a(S'tr_th'
I1
tp415
a(S'w'
I5
tp416
a(S'p2_tl'
I126
tp417
a(S'p2_ll'
I1
tp418
a(S'w'
I5
tp419
a(S'p1_tl'
I99
tp420
a(S'p1_ll'
I1
tp421
a(S'w'
I3659
tp422
a(S'tr_ll'
I1
tp423
a(S'w'
I5
tp424
a(S'p2_ll'
I1
tp425
a(S'w'
I5
tp426
a(S'p1_ll'
I1
tp427
a(S'w'
I3659
tp428
a(S'tr_tl'
I225
tp429
a(S'tr_ll'
I1
tp430
a(S'tr_th'
I0
tp431
a(S'w'
I5
tp432
a(S'p2_tl'
I133
tp433
a(S'p2_ll'
I1
tp434
a(S'w'
I5
tp435
a(S'p1_tl'
I112
tp436
a(S'p1_ll'
I1
tp437
a(S'w'
I3659
tp438
a(S'tr_ll'
I1
tp439
a(S'w'
I5
tp440
a(S'p2_ll'
I1
tp441
a(S'w'
I5
tp442
a(S'p1_ll'
I1
tp443
a(S'w'
I3658
tp444
a(S'tr_tl'
I196
tp445
a(S'w'
I1
tp446
a(S'tr_ll'
I1
tp447
a(S'tr_th'
I1
tp448
a(S'w'
I5
tp449
a(S'p2_tl'
I150
tp450
a(S'p2_ll'
I1
tp451
a(S'w'
I5
tp452
a(S'p1_tl'
I126
tp453
a(S'p1_ll'
I1
tp454
a(S'w'
I3659
tp455
a(S'tr_ll'
I1
tp456
a(S'w'
I5
tp457
a(S'p2_ll'
I1
tp458
a(S'w'
I5
tp459
a(S'p1_ll'
I1
tp460
a(S'w'
I3659
tp461
a(S'tr_tl'
I137
tp462
a(S'tr_ll'
I1
tp463
a(S'tr_th'
I3
tp464
a(S'w'
I5
tp465
a(S'p2_tl'
I168
tp466
a(S'p2_ll'
I1
tp467
a(S'w'
I5
tp468
a(S'p1_tl'
I133
tp469
a(S'p1_ll'
I1
tp470
a(S'w'
I3659
tp471
a(S'tr_ll'
I1
tp472
a(S'w'
I5
tp473
a(S'p2_ll'
I1
tp474
a(S'w'
I5
tp475
a(S'p1_ll'
I1
tp476
a(S'w'
I3659
tp477
a(S'tr_tl'
I196
tp478
a(S'tr_ll'
I1
tp479
a(S'tr_th'
I1
tp480
a(S'w'
I5
tp481
a(S'p2_tl'
I178
tp482
a(S'p2_ll'
I1
tp483
a(S'w'
I5
tp484
a(S'p1_tl'
I150
tp485
a(S'p1_ll'
I1
tp486
a(S'w'
I3659
tp487
a(S'tr_ll'
I1
tp488
a(S'w'
I5
tp489
a(S'p2_ll'
I1
tp490
a(S'w'
I5
tp491
a(S'p1_ll'
I1
tp492
a(S'w'
I3658
tp493
a(S'tr_tl'
I225
tp494
a(S'w'
I1
tp495
a(S'tr_ll'
I1
tp496
a(S'tr_th'
I0
tp497
a(S'w'
I5
tp498
a(S'p2_tl'
I12
tp499
a(S'p2_ll'
I1
tp500
a(S'p2_th'
I1
tp501
a(S'w'
I5
tp502
a(S'p1_tl'
I168
tp503
a(S'p1_ll'
I1
tp504
a(S'w'
I3659
tp505
a(S'tr_ll'
I1
tp506
a(S'w'
I5
tp507
a(S'p2_ll'
I1
tp508
a(S'w'
I5
tp509
a(S'p1_ll'
I1
tp510
a(S'w'
I3659
tp511
a(S'tr_tl'
I253
tp512
a(S'tr_ll'
I1
tp513
a(S'w'
I5
tp514
a(S'p2_tl'
I45
tp515
a(S'p2_ll'
I1
tp516
a(S'w'
I5
tp517
a(S'p1_tl'
I178
tp518
a(S'p1_ll'
I1
tp519
a(S'w'
I3659
tp520
a(S'tr_ll'
I1
tp521
a(S'w'
I5
tp522
a(S'p2_ll'
I1
tp523
a(S'w'
I5
tp524
a(S'p1_ll'
I1
tp525
a(S'w'
I3661
tp526
a.