(lp1
(S'clock'
p2
I1789772
tp3
a(S'p1_du'
I2
tp4
a(S'p1_vo'
I1
tp5
a(S'p1_sn'
I1
tp6
a(S'p1_tl'
I168
tp7
a(S'p1_ll'
I1
tp8
a(S'p2_du'
I2
tp9
a(S'p2_vo'
I1
tp10
a(S'p2_sn'
I1
tp11
a(S'p2_tl'
I147
tp12
a(S'p2_ll'
I1
tp13
a(S'p2_th'
I1
tp14
a(S'tr_lr'
I14
tp15
a(S'tr_tl'
I150
tp16
a(S'tr_ll'
I1
tp17
a(S'ch_no'
I1
tp18
a(S'ch_tr'
I1
tp19
a(S'ch_p2'
I1
tp20
a(S'ch_p1'
I1
tp21
a(S'w'
I2
tp22
a(S'tr_lr'
I32
tp23
a(S'w'
I1
tp24
a(S'tr_tl'
I196
tp25
a(S'tr_ll'
I1
tp26
a(S'tr_th'
I1
tp27
a(S'w'
I8
tp28
a(S'p2_vo'
I4
tp29
a(S'w'
I1
tp30
a(S'p2_tl'
I45
tp31
a(S'p2_ll'
I1
tp32
a(S'w'
I7
tp33
a(S'p1_vo'
I4
tp34
a(S'w'
I1
tp35
a(S'p1_tl'
I253
tp36
a(S'p1_ll'
I1
tp37
a(S'w'
I11716
tp38
a(S'tr_ll'
I1
tp39
a(S'w'
I5
tp40
a(S'p2_vo'
I2
tp41
a(S'w'
I1
tp42
a(S'p2_tl'
I12
tp43
a(S'p2_ll'
I1
tp44
a(S'w'
I5
tp45
a(S'p1_vo'
I2
tp46
a(S'w'
I1
tp47
a(S'p1_tl'
I225
tp48
a(S'p1_ll'
I1
tp49
a(S'w'
I5859
tp50
a(S'p2_tl'
I238
tp51
a(S'p2_ll'
I1
tp52
a(S'p2_th'
I0
tp53
a(S'w'
I5
tp54
a(S'p1_tl'
I200
tp55
a(S'p1_ll'
I1
tp56
a(S'w'
I5864
tp57
a(S'tr_ll'
I1
tp58
a(S'w'
I5871
tp59
a(S'w'
I1
tp60
a(S'p2_ll'
I1
tp61
a(S'w'
I4
tp62
a(S'w'
I1
tp63
a(S'p1_ll'
I1
tp64
a(S'w'
I5864
tp65
a(S'tr_ll'
I1
tp66
a(S'w'
I5
tp67
a(S'p2_tl'
I225
tp68
a(S'p2_ll'
I1
tp69
a(S'w'
I5
tp70
a(S'p1_tl'
I178
tp71
a(S'w'
I1
tp72
a(S'p1_ll'
I1
tp73
a(S'w'
I11733
tp74
a(S'tr_ll'
I1
tp75
a(S'w'
I7
tp76
a(S'p2_vo'
I4
tp77
a(S'w'
I1
tp78
a(S'p2_tl'
I45
tp79
a(S'w'
I1
tp80
a(S'p2_ll'
I1
tp81
a(S'p2_th'
I1
tp82
a(S'w'
I7
tp83
a(S'p1_vo'
I4
tp84
a(S'w'
I1
tp85
a(S'p1_tl'
I253
tp86
a(S'p1_ll'
I1
tp87
a(S'w'
I11721
tp88
a(S'tr_ll'
I1
tp89
a(S'w'
I5
tp90
a(S'p2_vo'
I2
tp91
a(S'w'
I1
tp92
a(S'p2_tl'
I12
tp93
a(S'p2_ll'
I1
tp94
a(S'w'
I5
tp95
a(S'p1_vo'
I2
tp96
a(S'w'
I1
tp97
a(S'p1_tl'
I225
tp98
a(S'p1_ll'
I1
tp99
a(S'w'
I5859
tp100
a(S'p2_tl'
I238
tp101
a(S'p2_ll'
I1
tp102
a(S'p2_th'
I0
tp103
a(S'w'
I5
tp104
a(S'p1_tl'
I200
tp105
a(S'p1_ll'
I1
tp106
a(S'w'
I5865
tp107
a(S'tr_ll'
I1
tp108
a(S'w'
I5870
tp109
a(S'w'
I1
tp110
a(S'p2_ll'
I1
tp111
a(S'w'
I5
tp112
a(S'p1_ll'
I1
tp113
a(S'w'
I5864
tp114
a(S'tr_ll'
I1
tp115
a(S'w'
I5
tp116
a(S'p2_tl'
I225
tp117
a(S'w'
I1
tp118
a(S'p2_ll'
I1
tp119
a(S'w'
I5
tp120
a(S'p1_tl'
I178
tp121
a(S'p1_ll'
I1
tp122
a(S'w'
I11733
tp123
a(S'tr_ll'
I1
tp124
a(S'w'
I9
tp125
a(S'p2_tl'
I196
tp126
a(S'w'
I1
tp127
a(S'p2_ll'
I1
tp128
a(S'p2_th'
I1
tp129
a(S'w'
I5858
tp130
a(S'p2_tl'
I207
tp131
a(S'p2_ll'
I1
tp132
a(S'p2_th'
I2
tp133
a(S'w'
I5870
tp134
a(S'tr_ll'
I1
tp135
a(S'w'
I5
tp136
a(S'p2_tl'
I196
tp137
a(S'p2_ll'
I1
tp138
a(S'p2_th'
I1
tp139
a(S'w'
I5866
tp140
a(S'p2_tl'
I252
tp141
a(S'p2_ll'
I1
tp142
a(S'w'
I5870
tp143
a(S'tr_ll'
I1
tp144
a(S'w'
I5
tp145
a(S'p2_tl'
I26
tp146
a(S'p2_ll'
I1
tp147
a(S'p2_th'
I2
tp148
a(S'w'
I5866
tp149
a(S'p2_tl'
I207
tp150
a(S'p2_ll'
I1
tp151
a(S'w'
I5870
tp152
a(S'tr_ll'
I1
tp153
a(S'w'
I5
tp154
a(S'p2_tl'
I26
tp155
a(S'p2_ll'
I1
tp156
a(S'w'
I5866
tp157
a(S'p2_tl'
I252
tp158
a(S'p2_ll'
I1
tp159
a(S'p2_th'
I1
tp160
a(S'w'
I5873
tp161
a(S'tr_ll'
I1
tp162
a(S'w'
I7
tp163
a(S'p2_tl'
I196
tp164
a(S'p2_ll'
I1
tp165
a(S'w'
I6
tp166
a(S'p1_tl'
I45
tp167
a(S'p1_ll'
I1
tp168
a(S'p1_th'
I1
tp169
a(S'w'
I5854
tp170
a(S'p2_tl'
I207
tp171
a(S'w'
I1
tp172
a(S'p2_ll'
I1
tp173
a(S'p2_th'
I2
tp174
a(S'w'
I5
tp175
a(S'p1_tl'
I252
tp176
a(S'p1_ll'
I1
tp177
a(S'w'
I5864
tp178
a(S'tr_ll'
I1
tp179
a(S'w'
I5
tp180
a(S'p2_tl'
I196
tp181
a(S'w'
I1
tp182
a(S'p2_ll'
I1
tp183
a(S'p2_th'
I1
tp184
a(S'w'
I5
tp185
a(S'p1_tl'
I45
tp186
a(S'p1_ll'
I1
tp187
a(S'w'
I5860
tp188
a(S'p2_tl'
I252
tp189
a(S'w'
I1
tp190
a(S'p2_ll'
I1
tp191
a(S'w'
I5
tp192
a(S'p1_tl'
I82
tp193
a(S'p1_ll'
I1
tp194
a(S'w'
I5864
tp195
a(S'tr_ll'
I1
tp196
a(S'w'
I5
tp197
a(S'p2_tl'
I26
tp198
a(S'p2_ll'
I1
tp199
a(S'p2_th'
I2
tp200
a(S'w'
I5
tp201
a(S'p1_tl'
I103
tp202
a(S'w'
I1
tp203
a(S'p1_ll'
I1
tp204
a(S'w'
I5860
tp205
a(S'p2_tl'
I207
tp206
a(S'p2_ll'
I1
tp207
a(S'w'
I5
tp208
a(S'p1_tl'
I252
tp209
a(S'w'
I1
tp210
a(S'p1_ll'
I1
tp211
a(S'w'
I5864
tp212
a(S'tr_ll'
I1
tp213
a(S'w'
I5
tp214
a(S'p2_tl'
I26
tp215
a(S'p2_ll'
I1
tp216
a(S'w'
I5
tp217
a(S'p1_tl'
I103
tp218
a(S'p1_ll'
I1
tp219
a(S'w'
I5861
tp220
a(S'p2_tl'
I252
tp221
a(S'p2_ll'
I1
tp222
a(S'p2_th'
I1
tp223
a(S'w'
I5
tp224
a(S'p1_tl'
I82
tp225
a(S'w'
I1
tp226
a(S'p1_ll'
I1
tp227
a(S'w'
I5868
tp228
a(S'tr_tl'
I252
tp229
a(S'tr_ll'
I1
tp230
a(S'w'
I9
tp231
a(S'p2_tl'
I28
tp232
a(S'p2_ll'
I1
tp233
a(S'w'
I7
tp234
a(S'p1_tl'
I225
tp235
a(S'w'
I1
tp236
a(S'p1_ll'
I1
tp237
a(S'p1_th'
I0
tp238
a(S'w'
I5850
tp239
a(S'p2_tl'
I253
tp240
a(S'p2_ll'
I1
tp241
a(S'p2_th'
I0
tp242
a(S'w'
I5
tp243
a(S'p1_tl'
I200
tp244
a(S'p1_ll'
I1
tp245
a(S'w'
I5865
tp246
a(S'tr_ll'
I1
tp247
a(S'w'
I5
tp248
a(S'p2_tl'
I28
tp249
a(S'p2_ll'
I1
tp250
a(S'p2_th'
I1
tp251
a(S'w'
I5
tp252
a(S'p1_tl'
I225
tp253
a(S'p1_ll'
I1
tp254
a(S'w'
I5861
tp255
a(S'p2_tl'
I225
tp256
a(S'p2_ll'
I1
tp257
a(S'p2_th'
I0
tp258
a(S'w'
I5
tp259
a(S'p1_tl'
I189
tp260
a(S'p1_ll'
I1
tp261
a(S'w'
I5865
tp262
a(S'tr_ll'
I1
tp263
a(S'w'
I5870
tp264
a(S'p2_tl'
I253
tp265
a(S'w'
I1
tp266
a(S'p2_ll'
I1
tp267
a(S'w'
I5
tp268
a(S'p1_tl'
I200
tp269
a(S'p1_ll'
I1
tp270
a(S'w'
I5864
tp271
a(S'tr_ll'
I1
tp272
a(S'w'
I5
tp273
a(S'p2_tl'
I28
tp274
a(S'w'
I1
tp275
a(S'p2_ll'
I1
tp276
a(S'p2_th'
I1
tp277
a(S'w'
I5
tp278
a(S'p1_tl'
I225
tp279
a(S'p1_ll'
I1
tp280
a(S'w'
I11732
tp281
a(S'tr_ll'
I1
tp282
a(S'w'
I7
tp283
a(S'p2_ll'
I1
tp284
a(S'w'
I7
tp285
a(S'w'
I1
tp286
a(S'p1_ll'
I1
tp287
a(S'w'
I5854
tp288
a(S'p2_tl'
I253
tp289
a(S'p2_ll'
I1
tp290
a(S'p2_th'
I0
tp291
a(S'w'
I5
tp292
a(S'p1_tl'
I200
tp293
a(S'w'
I1
tp294
a(S'p1_ll'
I1
tp295
a(S'w'
I5864
tp296
a(S'tr_ll'
I1
tp297
a(S'w'
I5
tp298
a(S'p2_tl'
I28
tp299
a(S'p2_ll'
I1
tp300
a(S'p2_th'
I1
tp301
a(S'w'
I5
tp302
a(S'p1_tl'
I225
tp303
a(S'p1_ll'
I1
tp304
a(S'w'
I5861
tp305
a(S'p2_tl'
I225
tp306
a(S'p2_ll'
I1
tp307
a(S'p2_th'
I0
tp308
a(S'w'
I5
tp309
a(S'p1_tl'
I189
tp310
a(S'p1_ll'
I1
tp311
a(S'w'
I5865
tp312
a(S'tr_ll'
I1
tp313
a(S'w'
I5871
tp314
a(S'p2_tl'
I253
tp315
a(S'p2_ll'
I1
tp316
a(S'w'
I5
tp317
a(S'p1_tl'
I200
tp318
a(S'p1_ll'
I1
tp319
a(S'w'
I5865
tp320
a(S'tr_ll'
I1
tp321
a(S'w'
I5
tp322
a(S'p2_tl'
I28
tp323
a(S'p2_ll'
I1
tp324
a(S'p2_th'
I1
tp325
a(S'w'
I5
tp326
a(S'p1_tl'
I225
tp327
a(S'p1_ll'
I1
tp328
a(S'w'
I11733
tp329
a(S'tr_ll'
I1
tp330
a(S'w'
I9
tp331
a(S'p2_tl'
I252
tp332
a(S'p2_ll'
I1
tp333
a(S'w'
I5859
tp334
a(S'p2_tl'
I39
tp335
a(S'w'
I1
tp336
a(S'p2_ll'
I1
tp337
a(S'p2_th'
I3
tp338
a(S'w'
I5869
tp339
a(S'tr_ll'
I1
tp340
a(S'w'
I5
tp341
a(S'p2_tl'
I252
tp342
a(S'w'
I1
tp343
a(S'p2_ll'
I1
tp344
a(S'p2_th'
I1
tp345
a(S'w'
I5865
tp346
a(S'p2_tl'
I58
tp347
a(S'p2_ll'
I1
tp348
a(S'p2_th'
I2
tp349
a(S'w'
I5870
tp350
a(S'tr_ll'
I1
tp351
a(S'w'
I5
tp352
a(S'p2_tl'
I92
tp353
a(S'p2_ll'
I1
tp354
a(S'w'
I5866
tp355
a(S'p2_tl'
I39
tp356
a(S'p2_ll'
I1
tp357
a(S'p2_th'
I3
tp358
a(S'w'
I5870
tp359
a(S'tr_ll'
I1
tp360
a(S'w'
I5
tp361
a(S'p2_tl'
I92
tp362
a(S'p2_ll'
I1
tp363
a(S'p2_th'
I2
tp364
a(S'w'
I5866
tp365
a(S'p2_tl'
I252
tp366
a(S'p2_ll'
I1
tp367
a(S'p2_th'
I1
tp368
a(S'w'
I5872
tp369
a(S'tr_ll'
I1
tp370
a(S'w'
I7
tp371
a(S'p2_ll'
I1
tp372
a(S'w'
I6
tp373
a(S'p1_tl'
I82
tp374
a(S'p1_ll'
I1
tp375
a(S'p1_th'
I1
tp376
a(S'w'
I5856
tp377
a(S'p2_tl'
I39
tp378
a(S'p2_ll'
I1
tp379
a(S'p2_th'
I3
tp380
a(S'w'
I5
tp381
a(S'p1_tl'
I58
tp382
a(S'p1_ll'
I1
tp383
a(S'p1_th'
I2
tp384
a(S'w'
I5865
tp385
a(S'tr_ll'
I1
tp386
a(S'w'
I5
tp387
a(S'p2_tl'
I252
tp388
a(S'p2_ll'
I1
tp389
a(S'p2_th'
I1
tp390
a(S'w'
I5
tp391
a(S'p1_tl'
I82
tp392
a(S'p1_ll'
I1
tp393
a(S'p1_th'
I1
tp394
a(S'w'
I5861
tp395
a(S'p2_tl'
I58
tp396
a(S'p2_ll'
I1
tp397
a(S'p2_th'
I2
tp398
a(S'w'
I5
tp399
a(S'p1_tl'
I124
tp400
a(S'p1_ll'
I1
tp401
a(S'w'
I5864
tp402
a(S'tr_ll'
I1
tp403
a(S'w'
I5
tp404
a(S'p2_tl'
I92
tp405
a(S'w'
I1
tp406
a(S'p2_ll'
I1
tp407
a(S'w'
I4
tp408
a(S'p1_tl'
I147
tp409
a(S'w'
I1
tp410
a(S'p1_ll'
I1
tp411
a(S'w'
I5860
tp412
a(S'p2_tl'
I39
tp413
a(S'w'
I1
tp414
a(S'p2_ll'
I1
tp415
a(S'p2_th'
I3
tp416
a(S'w'
I4
tp417
a(S'p1_tl'
I58
tp418
a(S'w'
I1
tp419
a(S'p1_ll'
I1
tp420
a(S'p1_th'
I2
tp421
a(S'w'
I5864
tp422
a(S'tr_ll'
I1
tp423
a(S'w'
I5
tp424
a(S'p2_tl'
I92
tp425
a(S'p2_ll'
I1
tp426
a(S'p2_th'
I2
tp427
a(S'w'
I5
tp428
a(S'p1_tl'
I147
tp429
a(S'w'
I1
tp430
a(S'p1_ll'
I1
tp431
a(S'p1_th'
I1
tp432
a(S'w'
I5860
tp433
a(S'p2_tl'
I252
tp434
a(S'p2_ll'
I1
tp435
a(S'p2_th'
I1
tp436
a(S'w'
I5
tp437
a(S'p1_tl'
I103
tp438
a(S'w'
I1
tp439
a(S'p1_ll'
I1
tp440
a(S'w'
I5870
tp441
a.