(lp1
(S'clock'
p2
I1789772
tp3
a(S'p1_du'
I1
tp4
a(S'p1_vo'
I5
tp5
a(S'p1_sn'
I1
tp6
a(S'p1_tl'
I253
tp7
a(S'p1_ll'
I1
tp8
a(S'p2_du'
I1
tp9
a(S'p2_vo'
I5
tp10
a(S'p2_sn'
I1
tp11
a(S'p2_tl'
I45
tp12
a(S'p2_ll'
I1
tp13
a(S'p2_th'
I1
tp14
a(S'tr_lr'
I40
tp15
a(S'tr_tl'
I92
tp16
a(S'tr_ll'
I1
tp17
a(S'tr_th'
I2
tp18
a(S'ch_no'
I1
tp19
a(S'ch_tr'
I1
tp20
a(S'ch_p2'
I1
tp21
a(S'ch_p1'
I1
tp22
a(S'w'
I2
tp23
a(S'tr_lr'
I14
tp24
a(S'tr_tl'
I225
tp25
a(S'w'
I1
tp26
a(S'tr_ll'
I1
tp27
a(S'tr_th'
I0
tp28
a(S'w'
I5129
tp29
a(S'w'
I1
tp30
a(S'tr_ll'
I1
tp31
a(S'w'
I5136
tp32
a(S'tr_tl'
I112
tp33
a(S'w'
I1
tp34
a(S'tr_ll'
I1
tp35
a(S'w'
I5135
tp36
a(S'w'
I1
tp37
a(S'tr_tl'
I225
tp38
a(S'tr_ll'
I1
tp39
a(S'w'
I5139
tp40
a(S'w'
I1
tp41
a(S'tr_tl'
I189
tp42
a(S'tr_ll'
I1
tp43
a(S'w'
I10272
tp44
a(S'w'
I1
tp45
a(S'tr_tl'
I150
tp46
a(S'tr_ll'
I1
tp47
a(S'w'
I5133
tp48
a(S'tr_tl'
I133
tp49
a(S'w'
I1
tp50
a(S'tr_ll'
I1
tp51
a(S'w'
I5138
tp52
a(S'w'
I1
tp53
a(S'tr_tl'
I126
tp54
a(S'tr_ll'
I1
tp55
a(S'w'
I10270
tp56
a(S'w'
I1
tp57
a(S'tr_ll'
I1
tp58
a(S'w'
I10273
tp59
a(S'tr_lr'
I28
tp60
a(S'w'
I1
tp61
a(S'tr_tl'
I133
tp62
a(S'w'
I1
tp63
a(S'tr_ll'
I1
tp64
a(S'w'
I20544
tp65
a(S'tr_lr'
I14
tp66
a(S'w'
I1
tp67
a(S'tr_tl'
I253
tp68
a(S'tr_ll'
I1
tp69
a(S'w'
I5135
tp70
a(S'w'
I1
tp71
a(S'tr_ll'
I1
tp72
a(S'w'
I5135
tp73
a(S'w'
I1
tp74
a(S'tr_tl'
I126
tp75
a(S'tr_ll'
I1
tp76
a(S'w'
I5136
tp77
a(S'w'
I1
tp78
a(S'tr_tl'
I253
tp79
a(S'tr_ll'
I1
tp80
a(S'w'
I5139
tp81
a(S'tr_tl'
I200
tp82
a(S'w'
I1
tp83
a(S'tr_ll'
I1
tp84
a(S'w'
I10272
tp85
a(S'tr_tl'
I168
tp86
a(S'w'
I1
tp87
a(S'tr_ll'
I1
tp88
a(S'w'
I5132
tp89
a(S'w'
I1
tp90
a(S'tr_tl'
I150
tp91
a(S'w'
I1
tp92
a(S'tr_ll'
I1
tp93
a(S'w'
I5138
tp94
a(S'w'
I1
tp95
a(S'tr_tl'
I141
tp96
a(S'tr_ll'
I1
tp97
a(S'w'
I10272
tp98
a(S'w'
I1
tp99
a(S'tr_tl'
I150
tp100
a(S'tr_ll'
I1
tp101
a(S'w'
I5133
tp102
a(S'w'
I1
tp103
a(S'tr_tl'
I141
tp104
a(S'tr_ll'
I1
tp105
a(S'w'
I5135
tp106
a(S'w'
I1
tp107
a(S'tr_tl'
I253
tp108
a(S'tr_ll'
I1
tp109
a(S'w'
I5136
tp110
a(S'w'
I1
tp111
a(S'tr_tl'
I12
tp112
a(S'tr_ll'
I1
tp113
a(S'tr_th'
I1
tp114
a(S'w'
I5139
tp115
a(S'tr_tl'
I253
tp116
a(S'w'
I1
tp117
a(S'tr_ll'
I1
tp118
a(S'tr_th'
I0
tp119
a(S'w'
I10272
tp120
a(S'w'
I1
tp121
a(S'tr_tl'
I45
tp122
a(S'tr_ll'
I1
tp123
a(S'tr_th'
I1
tp124
a(S'w'
I5132
tp125
a(S'w'
I1
tp126
a(S'w'
I1
tp127
a(S'tr_ll'
I1
tp128
a(S'w'
I5135
tp129
a(S'w'
I1
tp130
a(S'tr_tl'
I150
tp131
a(S'tr_ll'
I1
tp132
a(S'tr_th'
I0
tp133
a(S'w'
I5136
tp134
a(S'tr_tl'
I45
tp135
a(S'w'
I1
tp136
a(S'tr_ll'
I1
tp137
a(S'tr_th'
I1
tp138
a(S'w'
I5138
tp139
a(S'w'
I1
tp140
a(S'tr_tl'
I168
tp141
a(S'tr_ll'
I1
tp142
a(S'tr_th'
I0
tp143
a(S'w'
I10272
tp144
a(S'w'
I1
tp145
a(S'tr_tl'
I178
tp146
a(S'w'
I1
tp147
a(S'tr_ll'
I1
tp148
a(S'w'
I5132
tp149
a(S'w'
I1
tp150
a(S'tr_tl'
I168
tp151
a(S'tr_ll'
I1
tp152
a(S'w'
I5139
tp153
a(S'w'
I1
tp154
a(S'tr_tl'
I45
tp155
a(S'tr_ll'
I1
tp156
a(S'tr_th'
I1
tp157
a(S'w'
I10269
tp158
a(S'w'
I1
tp159
a(S'tr_tl'
I150
tp160
a(S'tr_ll'
I1
tp161
a(S'tr_th'
I0
tp162
a(S'w'
I10274
tp163
a(S'tr_lr'
I28
tp164
a(S'w'
I1
tp165
a(S'tr_tl'
I45
tp166
a(S'tr_ll'
I1
tp167
a(S'tr_th'
I1
tp168
a(S'w'
I20545
tp169
a(S'tr_lr'
I14
tp170
a(S'w'
I1
tp171
a(S'tr_ll'
I1
tp172
a(S'w'
I5134
tp173
a(S'w'
I1
tp174
a(S'tr_ll'
I1
tp175
a(S'w'
I5136
tp176
a(S'w'
I1
tp177
a(S'tr_tl'
I150
tp178
a(S'tr_ll'
I1
tp179
a(S'tr_th'
I0
tp180
a(S'w'
I5135
tp181
a(S'w'
I1
tp182
a(S'tr_tl'
I45
tp183
a(S'w'
I1
tp184
a(S'tr_ll'
I1
tp185
a(S'tr_th'
I1
tp186
a(S'w'
I5138
tp187
a(S'w'
I1
tp188
a(S'tr_tl'
I168
tp189
a(S'tr_ll'
I1
tp190
a(S'tr_th'
I0
tp191
a(S'w'
I10272
tp192
a(S'w'
I1
tp193
a(S'tr_tl'
I178
tp194
a(S'tr_ll'
I1
tp195
a(S'w'
I5133
tp196
a(S'w'
I1
tp197
a(S'tr_tl'
I168
tp198
a(S'tr_ll'
I1
tp199
a(S'w'
I5139
tp200
a(S'tr_tl'
I45
tp201
a(S'w'
I1
tp202
a(S'tr_ll'
I1
tp203
a(S'tr_th'
I1
tp204
a(S'w'
I10269
tp205
a(S'w'
I1
tp206
a(S'tr_tl'
I150
tp207
a(S'tr_ll'
I1
tp208
a(S'tr_th'
I0
tp209
a(S'w'
I10275
tp210
a(S'w'
I1
tp211
a(S'tr_tl'
I45
tp212
a(S'tr_ll'
I1
tp213
a(S'tr_th'
I1
tp214
a(S'w'
I5133
tp215
a(S'w'
I1
tp216
a(S'tr_ll'
I1
tp217
a(S'w'
I5135
tp218
a(S'w'
I1
tp219
a(S'tr_tl'
I12
tp220
a(S'tr_ll'
I1
tp221
a(S'w'
I5136
tp222
a(S'w'
I1
tp223
a(S'tr_tl'
I238
tp224
a(S'tr_ll'
I1
tp225
a(S'tr_th'
I0
tp226
a(S'w'
I5138
tp227
a.