(lp1
(S'clock'
p2
I1789772
tp3
a(S'p1_du'
I2
tp4
a(S'p1_vo'
I3
tp5
a(S'p1_sn'
I1
tp6
a(S'p1_tl'
I225
tp7
a(S'p1_ll'
I1
tp8
a(S'p2_du'
I2
tp9
a(S'p2_vo'
I3
tp10
a(S'p2_sn'
I1
tp11
a(S'p2_tl'
I196
tp12
a(S'p2_ll'
I1
tp13
a(S'p2_th'
I1
tp14
a(S'tr_lr'
I28
tp15
a(S'tr_tl'
I196
tp16
a(S'tr_ll'
I1
tp17
a(S'tr_th'
I1
tp18
a(S'ch_no'
I1
tp19
a(S'ch_tr'
I1
tp20
a(S'ch_p2'
I1
tp21
a(S'ch_p1'
I1
tp22
a(S'w'
I2
tp23
a(S'tr_lr'
I10
tp24
a(S'w'
I1
tp25
a(S'tr_ll'
I1
tp26
a(S'w'
I5
tp27
a(S'p2_du'
I1
tp28
a(S'p2_vo'
I1
tp29
a(S'w'
I1
tp30
a(S'p2_tl'
I178
tp31
a(S'p2_ll'
I1
tp32
a(S'p2_th'
I0
tp33
a(S'w'
I6
tp34
a(S'p1_du'
I1
tp35
a(S'p1_vo'
I1
tp36
a(S'p1_tl'
I112
tp37
a(S'w'
I1
tp38
a(S'p1_ll'
I1
tp39
a(S'w'
I7317
tp40
a(S'tr_ll'
I1
tp41
a(S'w'
I5
tp42
a(S'p2_tl'
I189
tp43
a(S'p2_ll'
I1
tp44
a(S'w'
I5
tp45
a(S'p1_tl'
I118
tp46
a(S'p1_ll'
I1
tp47
a(S'w'
I3659
tp48
a(S'p2_tl'
I178
tp49
a(S'w'
I1
tp50
a(S'p2_ll'
I1
tp51
a(S'w'
I5
tp52
a(S'p1_tl'
I112
tp53
a(S'p1_ll'
I1
tp54
a(S'w'
I3663
tp55
a(S'tr_tl'
I103
tp56
a(S'tr_ll'
I1
tp57
a(S'w'
I5
tp58
a(S'p2_tl'
I189
tp59
a(S'p2_ll'
I1
tp60
a(S'w'
I5
tp61
a(S'p1_tl'
I118
tp62
a(S'p1_ll'
I1
tp63
a(S'w'
I3659
tp64
a(S'p2_tl'
I178
tp65
a(S'w'
I1
tp66
a(S'p2_ll'
I1
tp67
a(S'w'
I5
tp68
a(S'p1_tl'
I112
tp69
a(S'p1_ll'
I1
tp70
a(S'w'
I3663
tp71
a(S'tr_tl'
I45
tp72
a(S'tr_ll'
I1
tp73
a(S'w'
I5
tp74
a(S'p2_tl'
I189
tp75
a(S'p2_ll'
I1
tp76
a(S'w'
I5
tp77
a(S'p1_tl'
I118
tp78
a(S'p1_ll'
I1
tp79
a(S'w'
I3659
tp80
a(S'p2_tl'
I178
tp81
a(S'w'
I1
tp82
a(S'p2_ll'
I1
tp83
a(S'w'
I5
tp84
a(S'p1_tl'
I112
tp85
a(S'p1_ll'
I1
tp86
a(S'w'
I3663
tp87
a(S'tr_tl'
I196
tp88
a(S'tr_ll'
I1
tp89
a(S'w'
I5
tp90
a(S'p2_tl'
I225
tp91
a(S'p2_ll'
I1
tp92
a(S'w'
I5
tp93
a(S'p1_tl'
I150
tp94
a(S'p1_ll'
I1
tp95
a(S'w'
I7328
tp96
a(S'tr_ll'
I1
tp97
a(S'w'
I5
tp98
a(S'p2_tl'
I238
tp99
a(S'p2_ll'
I1
tp100
a(S'w'
I5
tp101
a(S'p1_tl'
I159
tp102
a(S'p1_ll'
I1
tp103
a(S'w'
I3659
tp104
a(S'p2_tl'
I225
tp105
a(S'w'
I1
tp106
a(S'p2_ll'
I1
tp107
a(S'w'
I5
tp108
a(S'p1_tl'
I150
tp109
a(S'p1_ll'
I1
tp110
a(S'w'
I3663
tp111
a(S'tr_tl'
I103
tp112
a(S'tr_ll'
I1
tp113
a(S'w'
I5
tp114
a(S'p2_tl'
I238
tp115
a(S'p2_ll'
I1
tp116
a(S'w'
I5
tp117
a(S'p1_tl'
I159
tp118
a(S'p1_ll'
I1
tp119
a(S'w'
I3659
tp120
a(S'p2_tl'
I225
tp121
a(S'w'
I1
tp122
a(S'p2_ll'
I1
tp123
a(S'w'
I5
tp124
a(S'p1_tl'
I150
tp125
a(S'p1_ll'
I1
tp126
a(S'w'
I3663
tp127
a(S'tr_tl'
I45
tp128
a(S'tr_ll'
I1
tp129
a(S'w'
I5
tp130
a(S'p2_tl'
I238
tp131
a(S'p2_ll'
I1
tp132
a(S'w'
I5
tp133
a(S'p1_tl'
I159
tp134
a(S'w'
I1
tp135
a(S'p1_ll'
I1
tp136
a(S'w'
I3658
tp137
a(S'p2_tl'
I225
tp138
a(S'w'
I1
tp139
a(S'p2_ll'
I1
tp140
a(S'w'
I5
tp141
a(S'p1_tl'
I150
tp142
a(S'p1_ll'
I1
tp143
a(S'w'
I3666
tp144
a(S'tr_ll'
I1
tp145
a(S'w'
I5
tp146
a(S'p2_ll'
I1
tp147
a(S'w'
I5
tp148
a(S'p1_tl'
I178
tp149
a(S'p1_ll'
I1
tp150
a(S'w'
I3656
tp151
a(S'tr_tl'
I12
tp152
a(S'tr_ll'
I1
tp153
a(S'w'
I5
tp154
a(S'p2_tl'
I200
tp155
a(S'p2_ll'
I1
tp156
a(S'w'
I5
tp157
a(S'p1_tl'
I168
tp158
a(S'p1_ll'
I1
tp159
a(S'w'
I3659
tp160
a(S'tr_tl'
I238
tp161
a(S'tr_ll'
I1
tp162
a(S'tr_th'
I0
tp163
a(S'w'
I5
tp164
a(S'p2_tl'
I189
tp165
a(S'p2_ll'
I1
tp166
a(S'w'
I5
tp167
a(S'p1_tl'
I159
tp168
a(S'p1_ll'
I1
tp169
a(S'w'
I3659
tp170
a(S'tr_tl'
I225
tp171
a(S'tr_ll'
I1
tp172
a(S'w'
I5
tp173
a(S'p2_tl'
I178
tp174
a(S'p2_ll'
I1
tp175
a(S'w'
I5
tp176
a(S'p1_tl'
I150
tp177
a(S'p1_ll'
I1
tp178
a(S'w'
I3659
tp179
a(S'tr_tl'
I45
tp180
a(S'tr_ll'
I1
tp181
a(S'tr_th'
I1
tp182
a(S'w'
I5
tp183
a(S'p2_tl'
I225
tp184
a(S'p2_ll'
I1
tp185
a(S'w'
I5
tp186
a(S'p1_tl'
I178
tp187
a(S'p1_ll'
I1
tp188
a(S'w'
I3659
tp189
a(S'tr_tl'
I12
tp190
a(S'tr_ll'
I1
tp191
a(S'w'
I5
tp192
a(S'p2_tl'
I200
tp193
a(S'p2_ll'
I1
tp194
a(S'w'
I5
tp195
a(S'p1_tl'
I168
tp196
a(S'p1_ll'
I1
tp197
a(S'w'
I3659
tp198
a(S'tr_tl'
I238
tp199
a(S'tr_ll'
I1
tp200
a(S'tr_th'
I0
tp201
a(S'w'
I5
tp202
a(S'p2_tl'
I189
tp203
a(S'p2_ll'
I1
tp204
a(S'w'
I5
tp205
a(S'p1_tl'
I159
tp206
a(S'p1_ll'
I1
tp207
a(S'w'
I3659
tp208
a(S'tr_tl'
I225
tp209
a(S'tr_ll'
I1
tp210
a(S'w'
I5
tp211
a(S'p2_tl'
I178
tp212
a(S'p2_ll'
I1
tp213
a(S'w'
I5
tp214
a(S'p1_tl'
I150
tp215
a(S'p1_ll'
I1
tp216
a(S'w'
I3662
tp217
a(S'tr_tl'
I45
tp218
a(S'tr_ll'
I1
tp219
a(S'tr_th'
I1
tp220
a(S'w'
I5
tp221
a(S'p2_tl'
I225
tp222
a(S'p2_ll'
I1
tp223
a(S'w'
I5
tp224
a(S'p1_tl'
I178
tp225
a(S'w'
I1
tp226
a(S'p1_ll'
I1
tp227
a(S'w'
I7324
tp228
a(S'tr_tl'
I196
tp229
a(S'tr_ll'
I1
tp230
a(S'w'
I5
tp231
a(S'p2_tl'
I103
tp232
a(S'p2_ll'
I1
tp233
a(S'p2_th'
I1
tp234
a(S'w'
I5
tp235
a(S'p1_tl'
I225
tp236
a(S'w'
I1
tp237
a(S'p1_ll'
I1
tp238
a(S'w'
I7329
tp239
a(S'tr_lr'
I40
tp240
a(S'w'
I1
tp241
a(S'tr_tl'
I92
tp242
a(S'tr_ll'
I1
tp243
a(S'tr_th'
I2
tp244
a(S'w'
I5
tp245
a(S'p2_vo'
I5
tp246
a(S'w'
I1
tp247
a(S'p2_tl'
I45
tp248
a(S'p2_ll'
I1
tp249
a(S'w'
I5
tp250
a(S'p1_vo'
I5
tp251
a(S'w'
I1
tp252
a(S'p1_tl'
I253
tp253
a(S'w'
I1
tp254
a(S'p1_ll'
I1
tp255
a(S'w'
I15469
tp256
a.