(lp1
(S'clock'
p2
I1789772
tp3
a(S'p1_lh'
I1
tp4
a(S'p1_cv'
I1
tp5
a(S'p1_sn'
I1
tp6
a(S'p1_tl'
I169
tp7
a(S'p1_ll'
I1
tp8
a(S'p2_lh'
I1
tp9
a(S'p2_cv'
I1
tp10
a(S'p2_sn'
I1
tp11
a(S'p2_tl'
I76
tp12
a(S'p2_ll'
I1
tp13
a(S'p2_th'
I5
tp14
a(S'tr_tl'
I82
tp15
a(S'tr_ll'
I1
tp16
a(S'tr_th'
I1
tp17
a(S'no_lh'
I1
tp18
a(S'no_cv'
I1
tp19
a(S'no_np'
I4
tp20
a(S'no_ll'
I1
tp21
a(S'ch_no'
I1
tp22
a(S'ch_tr'
I1
tp23
a(S'ch_p2'
I1
tp24
a(S'ch_p1'
I1
tp25
a(S'fc_mo'
I0
tp26
a(S'w'
I37
tp27
a(S'p1_tl'
I166
tp28
a(S'p1_ll'
I1
tp29
a(S'p1_th'
I2
tp30
a(S'w'
I2
tp31
a(S'p1_vo'
I6
tp32
a(S'w'
I2
tp33
a(S'p2_ll'
I1
tp34
a(S'w'
I2
tp35
a(S'p2_vo'
I6
tp36
a(S'w'
I1
tp37
a(S'tr_tl'
I76
tp38
a(S'w'
I1
tp39
a(S'tr_ll'
I1
tp40
a(S'tr_th'
I5
tp41
a(S'tr_lh'
I1
tp42
a(S'tr_lr'
I126
tp43
a(S'w'
I1
tp44
a(S'no_np'
I0
tp45
a(S'no_ll'
I1
tp46
a(S'w'
I2
tp47
a(S'no_vo'
I13
tp48
a(S'w'
I692
tp49
a(S'p1_du'
I1
tp50
a(S'p1_vo'
I12
tp51
a(S'w'
I3
tp52
a(S'p2_du'
I1
tp53
a(S'p2_vo'
I12
tp54
a(S'w'
I2
tp55
a(S'no_vo'
I2
tp56
a(S'w'
I728
tp57
a(S'p1_du'
I0
tp58
a(S'p1_vo'
I2
tp59
a(S'w'
I2
tp60
a(S'p2_vo'
I11
tp61
a(S'w'
I1483
tp62
a(S'p1_tl'
I92
tp63
a(S'p1_ll'
I1
tp64
a(S'w'
I2
tp65
a(S'p1_vo'
I6
tp66
a(S'w'
I3
tp67
a(S'p2_vo'
I10
tp68
a(S'w'
I2
tp69
a(S'no_ll'
I1
tp70
a(S'w'
I2
tp71
a(S'no_vo'
I13
tp72
a(S'w'
I708
tp73
a(S'p1_du'
I1
tp74
a(S'p1_vo'
I12
tp75
a(S'w'
I5
tp76
a(S'no_vo'
I2
tp77
a(S'w'
I728
tp78
a(S'p1_du'
I0
tp79
a(S'p1_vo'
I2
tp80
a(S'w'
I3
tp81
a(S'p2_vo'
I9
tp82
a(S'w'
I1485
tp83
a(S'p1_tl'
I26
tp84
a(S'p1_ll'
I1
tp85
a(S'w'
I2
tp86
a(S'p1_vo'
I6
tp87
a(S'w'
I2
tp88
a(S'p2_tl'
I166
tp89
a(S'p2_ll'
I1
tp90
a(S'p2_th'
I2
tp91
a(S'w'
I2
tp92
a(S'p2_du'
I0
tp93
a(S'p2_vo'
I6
tp94
a(S'w'
I2
tp95
a(S'no_ll'
I1
tp96
a(S'w'
I2
tp97
a(S'no_vo'
I13
tp98
a(S'w'
I705
tp99
a(S'p1_du'
I1
tp100
a(S'p1_vo'
I12
tp101
a(S'w'
I3
tp102
a(S'p2_du'
I1
tp103
a(S'p2_vo'
I12
tp104
a(S'w'
I2
tp105
a(S'no_vo'
I2
tp106
a(S'w'
I728
tp107
a(S'p1_du'
I0
tp108
a(S'p1_vo'
I2
tp109
a(S'w'
I1
tp110
a(S'p2_du'
I0
tp111
a(S'p2_vo'
I2
tp112
a(S'w'
I1484
tp113
a(S'p1_tl'
I223
tp114
a(S'w'
I1
tp115
a(S'p1_ll'
I1
tp116
a(S'p1_th'
I1
tp117
a(S'w'
I2
tp118
a(S'p1_vo'
I6
tp119
a(S'w'
I1
tp120
a(S'p2_tl'
I92
tp121
a(S'p2_ll'
I1
tp122
a(S'w'
I2
tp123
a(S'p2_vo'
I6
tp124
a(S'w'
I2
tp125
a(S'no_ll'
I1
tp126
a(S'w'
I2
tp127
a(S'no_vo'
I13
tp128
a(S'w'
I707
tp129
a(S'p1_du'
I1
tp130
a(S'p1_vo'
I12
tp131
a(S'w'
I3
tp132
a(S'p2_du'
I1
tp133
a(S'p2_vo'
I12
tp134
a(S'w'
I2
tp135
a(S'no_vo'
I2
tp136
a(S'w'
I728
tp137
a(S'p1_du'
I0
tp138
a(S'p1_vo'
I2
tp139
a(S'w'
I1
tp140
a(S'p2_du'
I0
tp141
a(S'p2_vo'
I2
tp142
a(S'w'
I1482
tp143
a(S'p1_tl'
I171
tp144
a(S'p1_ll'
I1
tp145
a(S'w'
I2
tp146
a(S'p1_vo'
I6
tp147
a(S'w'
I1
tp148
a(S'p2_tl'
I26
tp149
a(S'w'
I1
tp150
a(S'p2_ll'
I1
tp151
a(S'w'
I2
tp152
a(S'p2_vo'
I6
tp153
a(S'w'
I1
tp154
a(S'tr_tl'
I82
tp155
a(S'tr_ll'
I1
tp156
a(S'tr_th'
I1
tp157
a(S'w'
I2
tp158
a(S'no_ll'
I1
tp159
a(S'w'
I2
tp160
a(S'no_vo'
I13
tp161
a(S'w'
I714
tp162
a(S'p1_du'
I1
tp163
a(S'p1_vo'
I12
tp164
a(S'w'
I3
tp165
a(S'p2_du'
I1
tp166
a(S'p2_vo'
I12
tp167
a(S'w'
I2
tp168
a(S'no_vo'
I2
tp169
a(S'w'
I723
tp170
a(S'p1_du'
I0
tp171
a(S'p1_vo'
I2
tp172
a(S'w'
I1
tp173
a(S'p2_du'
I0
tp174
a(S'p2_vo'
I2
tp175
a(S'w'
I1
tp176
a(S'tr_lh'
I0
tp177
a(S'tr_lr'
I0
tp178
a(S'w'
I1478
tp179
a(S'p1_tl'
I124
tp180
a(S'p1_ll'
I1
tp181
a(S'w'
I2
tp182
a(S'p1_vo'
I6
tp183
a(S'w'
I2
tp184
a(S'p2_tl'
I223
tp185
a(S'p2_ll'
I1
tp186
a(S'p2_th'
I1
tp187
a(S'w'
I2
tp188
a(S'p2_vo'
I6
tp189
a(S'w'
I1
tp190
a(S'tr_tl'
I45
tp191
a(S'tr_ll'
I1
tp192
a(S'w'
I1
tp193
a(S'tr_lh'
I1
tp194
a(S'tr_lr'
I126
tp195
a(S'w'
I1
tp196
a(S'no_np'
I1
tp197
a(S'no_ll'
I1
tp198
a(S'w'
I2
tp199
a(S'no_vo'
I13
tp200
a(S'w'
I716
tp201
a(S'p1_du'
I1
tp202
a(S'p1_vo'
I12
tp203
a(S'w'
I3
tp204
a(S'p2_du'
I1
tp205
a(S'p2_vo'
I12
tp206
a(S'w'
I2
tp207
a(S'no_vo'
I2
tp208
a(S'w'
I723
tp209
a(S'p1_du'
I0
tp210
a(S'p1_vo'
I2
tp211
a(S'w'
I1
tp212
a(S'p2_du'
I0
tp213
a(S'p2_vo'
I2
tp214
a(S'w'
I1
tp215
a(S'tr_lh'
I0
tp216
a(S'tr_lr'
I0
tp217
a(S'w'
I1478
tp218
a(S'p1_tl'
I82
tp219
a(S'p1_ll'
I1
tp220
a(S'w'
I2
tp221
a(S'p1_vo'
I6
tp222
a(S'w'
I2
tp223
a(S'p2_tl'
I171
tp224
a(S'p2_ll'
I1
tp225
a(S'w'
I2
tp226
a(S'p2_vo'
I6
tp227
a(S'w'
I1
tp228
a(S'tr_tl'
I12
tp229
a(S'w'
I1
tp230
a(S'tr_ll'
I1
tp231
a(S'tr_lh'
I1
tp232
a(S'tr_lr'
I126
tp233
a(S'w'
I1
tp234
a(S'no_np'
I2
tp235
a(S'no_ll'
I1
tp236
a(S'w'
I2
tp237
a(S'no_vo'
I13
tp238
a(S'w'
I717
tp239
a(S'p1_du'
I1
tp240
a(S'p1_vo'
I12
tp241
a(S'w'
I2
tp242
a(S'p2_du'
I1
tp243
a(S'p2_vo'
I12
tp244
a(S'w'
I3
tp245
a(S'no_vo'
I2
tp246
a(S'w'
I722
tp247
a(S'p1_du'
I0
tp248
a(S'p1_vo'
I2
tp249
a(S'w'
I2
tp250
a(S'p2_du'
I0
tp251
a(S'p2_vo'
I2
tp252
a(S'w'
I1
tp253
a(S'tr_lh'
I0
tp254
a(S'tr_lr'
I0
tp255
a(S'w'
I1477
tp256
a(S'p1_tl'
I45
tp257
a(S'w'
I1
tp258
a(S'p1_ll'
I1
tp259
a(S'w'
I2
tp260
a(S'p1_vo'
I6
tp261
a(S'w'
I1
tp262
a(S'p2_tl'
I124
tp263
a(S'p2_ll'
I1
tp264
a(S'w'
I2
tp265
a(S'p2_vo'
I6
tp266
a(S'w'
I2
tp267
a(S'tr_tl'
I239
tp268
a(S'tr_ll'
I1
tp269
a(S'tr_th'
I0
tp270
a(S'tr_lh'
I1
tp271
a(S'tr_lr'
I126
tp272
a(S'w'
I1
tp273
a(S'no_np'
I3
tp274
a(S'no_ll'
I1
tp275
a(S'w'
I2
tp276
a(S'no_vo'
I13
tp277
a(S'w'
I711
tp278
a(S'p1_du'
I1
tp279
a(S'p1_vo'
I12
tp280
a(S'w'
I3
tp281
a(S'p2_du'
I1
tp282
a(S'p2_vo'
I12
tp283
a(S'w'
I3
tp284
a(S'no_lh'
I0
tp285
a(S'no_cv'
I0
tp286
a(S'no_vo'
I2
tp287
a(S'w'
I733
tp288
a(S'p1_du'
I0
tp289
a(S'p1_vo'
I2
tp290
a(S'w'
I2
tp291
a(S'p2_du'
I0
tp292
a(S'p2_vo'
I2
tp293
a(S'w'
I1
tp294
a(S'tr_lh'
I0
tp295
a(S'tr_lr'
I0
tp296
a(S'w'
I1
tp297
a(S'no_lh'
I1
tp298
a(S'no_cv'
I1
tp299
a(S'w'
I1470
tp300
a(S'p1_tl'
I12
tp301
a(S'w'
I1
tp302
a(S'p1_ll'
I1
tp303
a(S'w'
I2
tp304
a(S'p1_vo'
I6
tp305
a(S'w'
I1
tp306
a(S'p2_tl'
I82
tp307
a(S'p2_ll'
I1
tp308
a(S'w'
I3
tp309
a(S'p2_vo'
I6
tp310
a(S'w'
I1
tp311
a(S'tr_tl'
I213
tp312
a(S'tr_ll'
I1
tp313
a(S'w'
I1
tp314
a(S'tr_lh'
I1
tp315
a(S'tr_lr'
I126
tp316
a(S'w'
I1
tp317
a(S'no_np'
I4
tp318
a(S'no_ll'
I1
tp319
a(S'w'
I1
tp320
a(S'no_vo'
I13
tp321
a(S'w'
I711
tp322
a(S'p1_du'
I1
tp323
a(S'p1_vo'
I12
tp324
a(S'w'
I3
tp325
a(S'p2_du'
I1
tp326
a(S'p2_vo'
I12
tp327
a(S'w'
I3
tp328
a(S'no_lh'
I0
tp329
a(S'no_cv'
I0
tp330
a(S'no_vo'
I2
tp331
a(S'w'
I733
tp332
a(S'p1_du'
I0
tp333
a(S'p1_vo'
I2
tp334
a(S'w'
I2
tp335
a(S'p2_du'
I0
tp336
a(S'p2_vo'
I2
tp337
a(S'w'
I1
tp338
a(S'tr_lh'
I0
tp339
a(S'tr_lr'
I0
tp340
a(S'w'
I1
tp341
a(S'no_lh'
I1
tp342
a(S'no_cv'
I1
tp343
a(S'w'
I1471
tp344
a(S'p1_tl'
I239
tp345
a(S'p1_ll'
I1
tp346
a(S'p1_th'
I0
tp347
a(S'w'
I2
tp348
a(S'p1_vo'
I6
tp349
a(S'w'
I1
tp350
a(S'p2_tl'
I45
tp351
a(S'w'
I1
tp352
a(S'p2_ll'
I1
tp353
a(S'w'
I2
tp354
a(S'p2_vo'
I6
tp355
a(S'w'
I1
tp356
a(S'tr_tl'
I189
tp357
a(S'tr_ll'
I1
tp358
a(S'w'
I1
tp359
a(S'tr_lh'
I1
tp360
a(S'tr_lr'
I126
tp361
a(S'w'
I1
tp362
a(S'no_np'
I5
tp363
a(S'no_ll'
I1
tp364
a(S'w'
I2
tp365
a(S'no_vo'
I13
tp366
a(S'w'
I710
tp367
a(S'p1_du'
I1
tp368
a(S'p1_vo'
I12
tp369
a(S'w'
I3
tp370
a(S'p2_du'
I1
tp371
a(S'p2_vo'
I12
tp372
a(S'w'
I3
tp373
a(S'no_lh'
I0
tp374
a(S'no_cv'
I0
tp375
a(S'no_vo'
I2
tp376
a(S'w'
I734
tp377
a(S'p1_du'
I0
tp378
a(S'p1_vo'
I2
tp379
a(S'w'
I1
tp380
a(S'p2_du'
I0
tp381
a(S'p2_vo'
I2
tp382
a(S'w'
I1
tp383
a(S'tr_lh'
I0
tp384
a(S'tr_lr'
I0
tp385
a(S'w'
I1
tp386
a(S'no_lh'
I1
tp387
a(S'no_cv'
I1
tp388
a(S'w'
I1471
tp389
a(S'p1_tl'
I213
tp390
a(S'p1_ll'
I1
tp391
a(S'w'
I2
tp392
a(S'p1_vo'
I6
tp393
a(S'w'
I2
tp394
a(S'p2_tl'
I12
tp395
a(S'p2_ll'
I1
tp396
a(S'w'
I2
tp397
a(S'p2_vo'
I6
tp398
a(S'w'
I1
tp399
a(S'tr_tl'
I169
tp400
a(S'tr_ll'
I1
tp401
a(S'w'
I1
tp402
a(S'tr_lh'
I1
tp403
a(S'tr_lr'
I126
tp404
a(S'w'
I1
tp405
a(S'no_np'
I6
tp406
a(S'no_ll'
I1
tp407
a(S'w'
I2
tp408
a(S'no_vo'
I13
tp409
a(S'w'
I710
tp410
a(S'p1_du'
I1
tp411
a(S'p1_vo'
I12
tp412
a(S'w'
I3
tp413
a(S'p2_du'
I1
tp414
a(S'p2_vo'
I12
tp415
a(S'w'
I4
tp416
a(S'no_lh'
I0
tp417
a(S'no_cv'
I0
tp418
a(S'no_vo'
I2
tp419
a(S'w'
I728
tp420
a(S'p1_vo'
I11
tp421
a(S'w'
I2
tp422
a(S'p2_vo'
I11
tp423
a(S'w'
I2
tp424
a(S'no_lh'
I1
tp425
a(S'no_cv'
I1
tp426
a(S'w'
I734
tp427
a(S'p1_du'
I0
tp428
a(S'p1_vo'
I2
tp429
a(S'w'
I1
tp430
a(S'p2_du'
I0
tp431
a(S'p2_vo'
I2
tp432
a(S'w'
I1
tp433
a(S'tr_lh'
I0
tp434
a(S'tr_lr'
I0
tp435
a(S'w'
I739
tp436
a(S'p1_tl'
I189
tp437
a(S'p1_ll'
I1
tp438
a(S'w'
I2
tp439
a(S'p1_vo'
I6
tp440
a(S'w'
I2
tp441
a(S'p2_tl'
I239
tp442
a(S'p2_ll'
I1
tp443
a(S'p2_th'
I0
tp444
a(S'w'
I2
tp445
a(S'p2_vo'
I6
tp446
a(S'w'
I1
tp447
a(S'tr_tl'
I150
tp448
a(S'w'
I1
tp449
a(S'tr_ll'
I1
tp450
a(S'tr_lh'
I1
tp451
a(S'tr_lr'
I126
tp452
a(S'w'
I1
tp453
a(S'no_np'
I7
tp454
a(S'no_ll'
I1
tp455
a(S'w'
I2
tp456
a(S'no_vo'
I13
tp457
a(S'w'
I711
tp458
a(S'p1_du'
I1
tp459
a(S'p1_vo'
I12
tp460
a(S'w'
I2
tp461
a(S'p2_du'
I1
tp462
a(S'p2_vo'
I12
tp463
a(S'w'
I4
tp464
a(S'no_lh'
I0
tp465
a(S'no_cv'
I0
tp466
a(S'no_vo'
I2
tp467
a(S'w'
I728
tp468
a(S'p1_vo'
I11
tp469
a(S'w'
I3
tp470
a(S'p2_vo'
I11
tp471
a(S'w'
I2
tp472
a(S'no_lh'
I1
tp473
a(S'no_cv'
I1
tp474
a(S'w'
I733
tp475
a(S'p1_du'
I0
tp476
a(S'p1_vo'
I2
tp477
a(S'w'
I1
tp478
a(S'p2_du'
I0
tp479
a(S'p2_vo'
I2
tp480
a(S'w'
I1
tp481
a(S'tr_lh'
I0
tp482
a(S'tr_lr'
I0
tp483
a(S'w'
I739
tp484
a(S'p1_tl'
I169
tp485
a(S'w'
I1
tp486
a(S'p1_ll'
I1
tp487
a(S'w'
I2
tp488
a(S'p1_vo'
I6
tp489
a(S'w'
I1
tp490
a(S'p2_tl'
I213
tp491
a(S'p2_ll'
I1
tp492
a(S'w'
I2
tp493
a(S'p2_vo'
I6
tp494
a(S'w'
I2
tp495
a(S'tr_tl'
I134
tp496
a(S'tr_ll'
I1
tp497
a(S'tr_lh'
I1
tp498
a(S'tr_lr'
I126
tp499
a(S'w'
I1
tp500
a(S'no_np'
I8
tp501
a(S'w'
I1
tp502
a(S'no_ll'
I1
tp503
a(S'w'
I1
tp504
a(S'no_vo'
I13
tp505
a(S'w'
I711
tp506
a(S'p1_du'
I1
tp507
a(S'p1_vo'
I12
tp508
a(S'w'
I3
tp509
a(S'p2_du'
I1
tp510
a(S'p2_vo'
I12
tp511
a(S'w'
I3
tp512
a(S'no_lh'
I0
tp513
a(S'no_cv'
I0
tp514
a(S'no_vo'
I2
tp515
a(S'w'
I728
tp516
a(S'p1_vo'
I11
tp517
a(S'w'
I3
tp518
a(S'p2_vo'
I11
tp519
a(S'w'
I2
tp520
a(S'no_lh'
I1
tp521
a(S'no_cv'
I1
tp522
a(S'w'
I733
tp523
a(S'p1_du'
I0
tp524
a(S'p1_vo'
I2
tp525
a(S'w'
I1
tp526
a(S'p2_du'
I0
tp527
a(S'p2_vo'
I2
tp528
a(S'w'
I1
tp529
a(S'tr_lh'
I0
tp530
a(S'tr_lr'
I0
tp531
a(S'w'
I740
tp532
a(S'p1_tl'
I150
tp533
a(S'p1_ll'
I1
tp534
a(S'w'
I2
tp535
a(S'p1_vo'
I6
tp536
a(S'w'
I1
tp537
a(S'p2_tl'
I189
tp538
a(S'w'
I1
tp539
a(S'p2_ll'
I1
tp540
a(S'w'
I2
tp541
a(S'p2_vo'
I6
tp542
a(S'w'
I1
tp543
a(S'tr_tl'
I119
tp544
a(S'tr_ll'
I1
tp545
a(S'w'
I1
tp546
a(S'tr_lh'
I1
tp547
a(S'tr_lr'
I126
tp548
a(S'w'
I1
tp549
a(S'no_np'
I9
tp550
a(S'no_ll'
I1
tp551
a(S'w'
I2
tp552
a(S'no_vo'
I13
tp553
a(S'w'
I710
tp554
a(S'p1_du'
I1
tp555
a(S'p1_vo'
I12
tp556
a(S'w'
I3
tp557
a(S'p2_du'
I1
tp558
a(S'p2_vo'
I12
tp559
a(S'w'
I3
tp560
a(S'no_lh'
I0
tp561
a(S'no_cv'
I0
tp562
a(S'no_vo'
I2
tp563
a(S'w'
I728
tp564
a(S'p1_vo'
I11
tp565
a(S'w'
I3
tp566
a(S'p2_vo'
I11
tp567
a(S'w'
I2
tp568
a(S'no_lh'
I1
tp569
a(S'no_cv'
I1
tp570
a(S'w'
I728
tp571
a(S'p1_du'
I0
tp572
a(S'p1_vo'
I2
tp573
a(S'w'
I2
tp574
a(S'p2_du'
I0
tp575
a(S'p2_vo'
I2
tp576
a(S'w'
I1
tp577
a(S'tr_lh'
I0
tp578
a(S'tr_lr'
I0
tp579
a(S'w'
I749
tp580
a(S'p1_tl'
I134
tp581
a(S'p1_ll'
I1
tp582
a(S'w'
I2
tp583
a(S'p1_vo'
I6
tp584
a(S'w'
I1
tp585
a(S'p2_tl'
I169
tp586
a(S'w'
I1
tp587
a(S'p2_ll'
I1
tp588
a(S'w'
I2
tp589
a(S'p2_vo'
I6
tp590
a(S'w'
I1
tp591
a(S'tr_tl'
I106
tp592
a(S'tr_ll'
I1
tp593
a(S'w'
I1
tp594
a(S'tr_lh'
I1
tp595
a(S'tr_lr'
I126
tp596
a(S'w'
I1
tp597
a(S'no_np'
I10
tp598
a(S'no_ll'
I1
tp599
a(S'w'
I2
tp600
a(S'no_vo'
I13
tp601
a(S'w'
I705
tp602
a(S'p1_du'
I1
tp603
a(S'p1_vo'
I12
tp604
a(S'w'
I3
tp605
a(S'p2_du'
I1
tp606
a(S'p2_vo'
I12
tp607
a(S'w'
I3
tp608
a(S'no_lh'
I0
tp609
a(S'no_cv'
I0
tp610
a(S'no_vo'
I2
tp611
a(S'w'
I728
tp612
a(S'p1_vo'
I11
tp613
a(S'w'
I3
tp614
a(S'p2_vo'
I11
tp615
a(S'w'
I2
tp616
a(S'no_lh'
I1
tp617
a(S'no_cv'
I1
tp618
a(S'w'
I728
tp619
a(S'p1_du'
I0
tp620
a(S'p1_vo'
I2
tp621
a(S'w'
I2
tp622
a(S'p2_du'
I0
tp623
a(S'p2_vo'
I2
tp624
a(S'w'
I1
tp625
a(S'tr_lh'
I0
tp626
a(S'tr_lr'
I0
tp627
a(S'w'
I749
tp628
a(S'p1_tl'
I119
tp629
a(S'p1_ll'
I1
tp630
a(S'w'
I2
tp631
a(S'p1_vo'
I6
tp632
a(S'w'
I1
tp633
a(S'p2_tl'
I150
tp634
a(S'w'
I1
tp635
a(S'p2_ll'
I1
tp636
a(S'w'
I2
tp637
a(S'p2_vo'
I6
tp638
a(S'w'
I1
tp639
a(S'tr_tl'
I94
tp640
a(S'tr_ll'
I1
tp641
a(S'w'
I1
tp642
a(S'tr_lh'
I1
tp643
a(S'tr_lr'
I126
tp644
a(S'w'
I1
tp645
a(S'no_np'
I11
tp646
a(S'no_ll'
I1
tp647
a(S'w'
I2
tp648
a(S'no_vo'
I13
tp649
a(S'w'
I705
tp650
a(S'p1_du'
I1
tp651
a(S'p1_vo'
I12
tp652
a(S'w'
I3
tp653
a(S'p2_du'
I1
tp654
a(S'p2_vo'
I12
tp655
a(S'w'
I4
tp656
a(S'no_lh'
I0
tp657
a(S'no_cv'
I0
tp658
a(S'no_vo'
I2
tp659
a(S'w'
I728
tp660
a(S'p1_vo'
I11
tp661
a(S'w'
I2
tp662
a(S'p2_vo'
I11
tp663
a(S'w'
I3
tp664
a(S'no_lh'
I1
tp665
a(S'no_cv'
I1
tp666
a(S'w'
I728
tp667
a(S'p1_du'
I0
tp668
a(S'p1_vo'
I2
tp669
a(S'w'
I1
tp670
a(S'p2_du'
I0
tp671
a(S'p2_vo'
I2
tp672
a(S'w'
I1
tp673
a(S'tr_lh'
I0
tp674
a(S'tr_lr'
I0
tp675
a(S'w'
I749
tp676
a(S'p1_tl'
I106
tp677
a(S'p1_ll'
I1
tp678
a(S'w'
I2
tp679
a(S'p1_vo'
I6
tp680
a(S'w'
I2
tp681
a(S'p2_tl'
I134
tp682
a(S'p2_ll'
I1
tp683
a(S'w'
I2
tp684
a(S'p2_vo'
I6
tp685
a(S'w'
I1
tp686
a(S'tr_tl'
I84
tp687
a(S'tr_ll'
I1
tp688
a(S'w'
I1
tp689
a(S'tr_lh'
I1
tp690
a(S'tr_lr'
I126
tp691
a(S'w'
I1
tp692
a(S'no_np'
I12
tp693
a(S'no_ll'
I1
tp694
a(S'w'
I2
tp695
a(S'no_vo'
I13
tp696
a(S'w'
I706
tp697
a(S'p1_du'
I1
tp698
a(S'p1_vo'
I12
tp699
a(S'w'
I2
tp700
a(S'p2_du'
I1
tp701
a(S'p2_vo'
I12
tp702
a(S'w'
I4
tp703
a(S'no_lh'
I0
tp704
a(S'no_cv'
I0
tp705
a(S'no_vo'
I2
tp706
a(S'w'
I728
tp707
a(S'p1_vo'
I11
tp708
a(S'w'
I3
tp709
a(S'p2_vo'
I11
tp710
a(S'w'
I2
tp711
a(S'no_lh'
I1
tp712
a(S'no_cv'
I1
tp713
a(S'w'
I728
tp714
a(S'p1_du'
I0
tp715
a(S'p1_vo'
I2
tp716
a(S'w'
I1
tp717
a(S'p2_du'
I0
tp718
a(S'p2_vo'
I2
tp719
a(S'w'
I1
tp720
a(S'tr_lh'
I0
tp721
a(S'tr_lr'
I0
tp722
a(S'w'
I1484
tp723
a(S'p1_tl'
I94
tp724
a(S'p1_ll'
I1
tp725
a(S'w'
I2
tp726
a(S'p1_vo'
I6
tp727
a(S'w'
I2
tp728
a(S'p2_tl'
I119
tp729
a(S'p2_ll'
I1
tp730
a(S'w'
I2
tp731
a(S'p2_vo'
I6
tp732
a(S'w'
I1
tp733
a(S'tr_tl'
I75
tp734
a(S'tr_ll'
I1
tp735
a(S'w'
I1
tp736
a(S'tr_lh'
I1
tp737
a(S'tr_lr'
I126
tp738
a(S'w'
I1
tp739
a(S'no_np'
I13
tp740
a(S'no_ll'
I1
tp741
a(S'w'
I2
tp742
a(S'no_vo'
I13
tp743
a(S'w'
I705
tp744
a(S'p1_du'
I1
tp745
a(S'p1_vo'
I12
tp746
a(S'w'
I3
tp747
a(S'p2_du'
I1
tp748
a(S'p2_vo'
I12
tp749
a(S'w'
I2
tp750
a(S'no_vo'
I2
tp751
a(S'w'
I728
tp752
a(S'p1_du'
I0
tp753
a(S'p1_vo'
I2
tp754
a(S'w'
I2
tp755
a(S'p2_du'
I0
tp756
a(S'p2_vo'
I2
tp757
a(S'w'
I1
tp758
a(S'tr_lh'
I0
tp759
a(S'tr_lr'
I0
tp760
a(S'w'
I1483
tp761
a(S'p1_tl'
I84
tp762
a(S'p1_ll'
I1
tp763
a(S'w'
I2
tp764
a(S'p1_vo'
I6
tp765
a(S'w'
I2
tp766
a(S'p2_tl'
I106
tp767
a(S'p2_ll'
I1
tp768
a(S'w'
I2
tp769
a(S'p2_vo'
I6
tp770
a(S'w'
I1
tp771
a(S'tr_tl'
I66
tp772
a(S'w'
I1
tp773
a(S'tr_ll'
I1
tp774
a(S'tr_lh'
I1
tp775
a(S'tr_lr'
I126
tp776
a(S'w'
I1
tp777
a(S'no_np'
I14
tp778
a(S'no_ll'
I1
tp779
a(S'w'
I2
tp780
a(S'no_vo'
I13
tp781
a(S'w'
I705
tp782
a(S'p1_du'
I1
tp783
a(S'p1_vo'
I12
tp784
a(S'w'
I3
tp785
a(S'p2_du'
I1
tp786
a(S'p2_vo'
I12
tp787
a(S'w'
I2
tp788
a(S'no_vo'
I2
tp789
a(S'w'
I728
tp790
a(S'p1_du'
I0
tp791
a(S'p1_vo'
I2
tp792
a(S'w'
I2
tp793
a(S'p2_du'
I0
tp794
a(S'p2_vo'
I2
tp795
a(S'w'
I1
tp796
a(S'tr_lh'
I0
tp797
a(S'tr_lr'
I0
tp798
a(S'w'
I1483
tp799
a(S'p1_tl'
I75
tp800
a(S'w'
I1
tp801
a(S'p1_ll'
I1
tp802
a(S'w'
I2
tp803
a(S'p1_vo'
I6
tp804
a(S'w'
I1
tp805
a(S'p2_tl'
I94
tp806
a(S'p2_ll'
I1
tp807
a(S'w'
I2
tp808
a(S'p2_vo'
I6
tp809
a(S'w'
I2
tp810
a(S'tr_tl'
I59
tp811
a(S'tr_ll'
I1
tp812
a(S'tr_lh'
I1
tp813
a(S'tr_lr'
I126
tp814
a(S'w'
I1
tp815
a(S'no_ll'
I1
tp816
a(S'w'
I2
tp817
a(S'no_vo'
I13
tp818
a(S'w'
I705
tp819
a(S'p1_du'
I1
tp820
a(S'p1_vo'
I12
tp821
a(S'w'
I3
tp822
a(S'p2_du'
I1
tp823
a(S'p2_vo'
I12
tp824
a(S'w'
I2
tp825
a(S'no_vo'
I2
tp826
a(S'w'
I729
tp827
a(S'p1_du'
I0
tp828
a(S'p1_vo'
I2
tp829
a(S'w'
I1
tp830
a(S'p2_du'
I0
tp831
a(S'p2_vo'
I2
tp832
a(S'w'
I1
tp833
a(S'tr_lh'
I0
tp834
a(S'tr_lr'
I0
tp835
a(S'w'
I1489
tp836
a(S'p1_tl'
I66
tp837
a(S'w'
I1
tp838
a(S'p1_ll'
I1
tp839
a(S'w'
I2
tp840
a(S'p1_vo'
I6
tp841
a(S'w'
I1
tp842
a(S'p2_tl'
I84
tp843
a(S'p2_ll'
I1
tp844
a(S'w'
I3
tp845
a(S'p2_vo'
I6
tp846
a(S'w'
I1
tp847
a(S'tr_tl'
I52
tp848
a(S'tr_ll'
I1
tp849
a(S'w'
I1
tp850
a(S'tr_lh'
I1
tp851
a(S'tr_lr'
I126
tp852
a(S'w'
I1
tp853
a(S'no_ll'
I1
tp854
a(S'w'
I700
tp855
a(S'p1_vo'
I2
tp856
a(S'w'
I1
tp857
a(S'p2_vo'
I2
tp858
a(S'w'
I1
tp859
a(S'tr_lh'
I0
tp860
a(S'tr_lr'
I0
tp861
a(S'w'
I759
tp862
a(S'p1_tl'
I166
tp863
a(S'p1_ll'
I1
tp864
a(S'p1_th'
I2
tp865
a(S'w'
I2
tp866
a(S'p1_vo'
I6
tp867
a(S'w'
I1
tp868
a(S'p2_tl'
I171
tp869
a(S'w'
I1
tp870
a(S'p2_ll'
I1
tp871
a(S'p2_th'
I1
tp872
a(S'w'
I2
tp873
a(S'p2_vo'
I6
tp874
a(S'w'
I1
tp875
a(S'tr_tl'
I169
tp876
a(S'tr_ll'
I1
tp877
a(S'w'
I1
tp878
a(S'tr_lh'
I1
tp879
a(S'tr_lr'
I126
tp880
a(S'w'
I1
tp881
a(S'no_np'
I4
tp882
a(S'no_ll'
I1
tp883
a(S'w'
I2
tp884
a(S'no_vo'
I13
tp885
a(S'w'
I696
tp886
a(S'p1_du'
I1
tp887
a(S'p1_vo'
I12
tp888
a(S'w'
I3
tp889
a(S'p2_du'
I1
tp890
a(S'p2_vo'
I12
tp891
a(S'w'
I3
tp892
a(S'no_lh'
I0
tp893
a(S'no_cv'
I0
tp894
a(S'no_vo'
I2
tp895
a(S'w'
I728
tp896
a(S'p1_vo'
I11
tp897
a(S'w'
I2
tp898
a(S'p2_vo'
I11
tp899
a(S'w'
I4
tp900
a(S'no_lh'
I1
tp901
a(S'no_cv'
I1
tp902
a(S'no_vo'
I0
tp903
a(S'w'
I1461
tp904
a(S'p1_du'
I0
tp905
a(S'p1_vo'
I2
tp906
a(S'w'
I1
tp907
a(S'p2_du'
I0
tp908
a(S'p2_vo'
I2
tp909
a(S'w'
I5872
tp910
a(S'no_vo'
I2
tp911
a(S'w'
I2205
tp912
a(S'p1_ll'
I1
tp913
a(S'w'
I2
tp914
a(S'p1_vo'
I6
tp915
a(S'w'
I1
tp916
a(S'w'
I1
tp917
a(S'p2_ll'
I1
tp918
a(S'w'
I2
tp919
a(S'p2_vo'
I6
tp920
a(S'w'
I722
tp921
a(S'p1_du'
I1
tp922
a(S'p1_vo'
I12
tp923
a(S'w'
I2
tp924
a(S'p2_du'
I1
tp925
a(S'p2_vo'
I12
tp926
a(S'w'
I737
tp927
a(S'p1_vo'
I11
tp928
a(S'w'
I3
tp929
a(S'p2_vo'
I11
tp930
a(S'w'
I1459
tp931
a(S'p1_du'
I0
tp932
a(S'p1_vo'
I2
tp933
a(S'w'
I1
tp934
a(S'p2_du'
I0
tp935
a(S'p2_vo'
I2
tp936
a(S'w'
I739
tp937
a(S'tr_lh'
I0
tp938
a(S'tr_lr'
I0
tp939
a(S'w'
I1487
tp940
a(S'p1_ll'
I1
tp941
a(S'w'
I2
tp942
a(S'p1_vo'
I6
tp943
a(S'w'
I1
tp944
a(S'w'
I1
tp945
a(S'p2_ll'
I1
tp946
a(S'w'
I2
tp947
a(S'p2_vo'
I6
tp948
a(S'w'
I1
tp949
a(S'tr_tl'
I28
tp950
a(S'tr_ll'
I1
tp951
a(S'tr_th'
I1
tp952
a(S'w'
I1
tp953
a(S'tr_lh'
I1
tp954
a(S'tr_lr'
I126
tp955
a(S'w'
I1
tp956
a(S'no_np'
I7
tp957
a(S'no_ll'
I1
tp958
a(S'w'
I2
tp959
a(S'no_vo'
I13
tp960
a(S'w'
I698
tp961
a(S'p1_du'
I1
tp962
a(S'p1_vo'
I12
tp963
a(S'w'
I3
tp964
a(S'p2_du'
I1
tp965
a(S'p2_vo'
I12
tp966
a(S'w'
I2
tp967
a(S'no_vo'
I2
tp968
a(S'w'
I728
tp969
a(S'p1_vo'
I11
tp970
a(S'w'
I3
tp971
a(S'p2_vo'
I11
tp972
a(S'w'
I1465
tp973
a(S'p1_vo'
I10
tp974
a(S'w'
I3
tp975
a(S'p2_vo'
I10
tp976
a(S'w'
I1
tp977
a(S'tr_lh'
I0
tp978
a(S'tr_lr'
I0
tp979
a(S'w'
I1468
tp980
a(S'p1_vo'
I9
tp981
a(S'w'
I3
tp982
a(S'p2_vo'
I9
tp983
a(S'w'
I1471
tp984
a(S'tr_tl'
I213
tp985
a(S'tr_ll'
I1
tp986
a(S'tr_th'
I0
tp987
a(S'tr_lh'
I1
tp988
a(S'tr_lr'
I126
tp989
a(S'w'
I1
tp990
a(S'no_np'
I2
tp991
a(S'w'
I1
tp992
a(S'no_ll'
I1
tp993
a(S'w'
I1
tp994
a(S'no_vo'
I13
tp995
a(S'w'
I726
tp996
a(S'p1_vo'
I8
tp997
a(S'w'
I3
tp998
a(S'p2_vo'
I8
tp999
a(S'w'
I2
tp1000
a(S'no_vo'
I2
tp1001
a(S'w'
I1456
tp1002
a(S'p1_vo'
I7
tp1003
a(S'w'
I3
tp1004
a(S'p2_vo'
I7
tp1005
a(S'w'
I741
tp1006
a(S'tr_lh'
I0
tp1007
a(S'tr_lr'
I0
tp1008
a(S'w'
I2203
tp1009
a(S'tr_tl'
I169
tp1010
a(S'tr_ll'
I1
tp1011
a(S'w'
I1
tp1012
a(S'tr_lh'
I1
tp1013
a(S'tr_lr'
I126
tp1014
a(S'w'
I1
tp1015
a(S'no_np'
I7
tp1016
a(S'no_ll'
I1
tp1017
a(S'w'
I2
tp1018
a(S'no_vo'
I13
tp1019
a(S'w'
I725
tp1020
a(S'no_vo'
I2
tp1021
a(S'w'
I2200
tp1022
a(S'tr_lh'
I0
tp1023
a(S'tr_lr'
I0
tp1024
a(S'w'
I733
tp1025
a(S'p1_du'
I0
tp1026
a(S'p1_vo'
I2
tp1027
a(S'w'
I730
tp1028
a(S'p2_du'
I0
tp1029
a(S'p2_vo'
I2
tp1030
a(S'w'
I1495
tp1031
a(S'p1_tl'
I92
tp1032
a(S'p1_ll'
I1
tp1033
a(S'w'
I2
tp1034
a(S'p1_vo'
I6
tp1035
a(S'w'
I2
tp1036
a(S'p2_tl'
I124
tp1037
a(S'p2_ll'
I1
tp1038
a(S'w'
I2
tp1039
a(S'p2_vo'
I6
tp1040
a(S'w'
I1
tp1041
a(S'tr_tl'
I150
tp1042
a(S'tr_ll'
I1
tp1043
a(S'w'
I1
tp1044
a(S'tr_lh'
I1
tp1045
a(S'tr_lr'
I126
tp1046
a(S'w'
I1
tp1047
a(S'no_ll'
I1
tp1048
a(S'w'
I697
tp1049
a(S'p1_du'
I1
tp1050
a(S'p1_vo'
I12
tp1051
a(S'w'
I3
tp1052
a(S'p2_du'
I1
tp1053
a(S'p2_vo'
I12
tp1054
a(S'w'
I731
tp1055
a(S'p1_vo'
I11
tp1056
a(S'w'
I2
tp1057
a(S'p2_vo'
I11
tp1058
a(S'w'
I737
tp1059
a(S'p1_du'
I0
tp1060
a(S'p1_vo'
I2
tp1061
a(S'w'
I1
tp1062
a(S'p2_du'
I0
tp1063
a(S'p2_vo'
I2
tp1064
a(S'w'
I1
tp1065
a(S'tr_lh'
I0
tp1066
a(S'tr_lr'
I0
tp1067
a(S'w'
I2939
tp1068
a(S'w'
I1
tp1069
a(S'p1_ll'
I1
tp1070
a(S'w'
I2
tp1071
a(S'p1_vo'
I6
tp1072
a(S'w'
I1
tp1073
a(S'p2_ll'
I1
tp1074
a(S'w'
I2
tp1075
a(S'p2_vo'
I6
tp1076
a(S'w'
I2
tp1077
a(S'no_np'
I2
tp1078
a(S'w'
I1
tp1079
a(S'no_ll'
I1
tp1080
a(S'w'
I1
tp1081
a(S'no_vo'
I13
tp1082
a(S'w'
I718
tp1083
a(S'p1_du'
I1
tp1084
a(S'p1_vo'
I12
tp1085
a(S'w'
I3
tp1086
a(S'p2_du'
I1
tp1087
a(S'p2_vo'
I12
tp1088
a(S'w'
I2
tp1089
a(S'no_vo'
I2
tp1090
a(S'w'
I723
tp1091
a(S'p1_vo'
I11
tp1092
a(S'w'
I3
tp1093
a(S'p2_vo'
I11
tp1094
a(S'w'
I1469
tp1095
a(S'p1_du'
I0
tp1096
a(S'p1_vo'
I2
tp1097
a(S'w'
I2
tp1098
a(S'p2_du'
I0
tp1099
a(S'p2_vo'
I2
tp1100
a(S'w'
I2212
tp1101
a(S'w'
I1
tp1102
a(S'p1_ll'
I1
tp1103
a(S'w'
I2
tp1104
a(S'p1_vo'
I6
tp1105
a(S'w'
I1
tp1106
a(S'p2_ll'
I1
tp1107
a(S'w'
I2
tp1108
a(S'p2_vo'
I6
tp1109
a(S'w'
I2
tp1110
a(S'tr_tl'
I142
tp1111
a(S'tr_ll'
I1
tp1112
a(S'tr_lh'
I1
tp1113
a(S'tr_lr'
I126
tp1114
a(S'w'
I1
tp1115
a(S'no_np'
I7
tp1116
a(S'w'
I1
tp1117
a(S'no_ll'
I1
tp1118
a(S'w'
I1
tp1119
a(S'no_vo'
I13
tp1120
a(S'w'
I707
tp1121
a(S'p1_du'
I1
tp1122
a(S'p1_vo'
I12
tp1123
a(S'w'
I2
tp1124
a(S'p2_du'
I1
tp1125
a(S'p2_vo'
I12
tp1126
a(S'w'
I3
tp1127
a(S'no_vo'
I2
tp1128
a(S'w'
I728
tp1129
a(S'p1_vo'
I11
tp1130
a(S'w'
I2
tp1131
a(S'p2_vo'
I11
tp1132
a(S'w'
I1465
tp1133
a(S'p1_du'
I0
tp1134
a(S'p1_vo'
I2
tp1135
a(S'w'
I2
tp1136
a(S'p2_du'
I0
tp1137
a(S'p2_vo'
I2
tp1138
a(S'w'
I1
tp1139
a(S'tr_lh'
I0
tp1140
a(S'tr_lr'
I0
tp1141
a(S'w'
I2960
tp1142
a(S'w'
I1
tp1143
a(S'p1_ll'
I1
tp1144
a(S'w'
I2
tp1145
a(S'p1_vo'
I6
tp1146
a(S'w'
I1
tp1147
a(S'p2_ll'
I1
tp1148
a(S'w'
I2
tp1149
a(S'p2_vo'
I6
tp1150
a(S'w'
I2
tp1151
a(S'tr_tl'
I126
tp1152
a(S'tr_ll'
I1
tp1153
a(S'tr_lh'
I1
tp1154
a(S'tr_lr'
I126
tp1155
a(S'w'
I1
tp1156
a(S'no_ll'
I1
tp1157
a(S'w'
I697
tp1158
a(S'p1_du'
I1
tp1159
a(S'p1_vo'
I12
tp1160
a(S'w'
I3
tp1161
a(S'p2_du'
I1
tp1162
a(S'p2_vo'
I12
tp1163
a(S'w'
I731
tp1164
a(S'p1_vo'
I11
tp1165
a(S'w'
I3
tp1166
a(S'p2_vo'
I11
tp1167
a(S'w'
I741
tp1168
a(S'tr_lh'
I0
tp1169
a(S'tr_lr'
I0
tp1170
a(S'w'
I724
tp1171
a(S'p1_vo'
I10
tp1172
a(S'w'
I2
tp1173
a(S'p2_vo'
I10
tp1174
a(S'w'
I1470
tp1175
a(S'p1_vo'
I9
tp1176
a(S'w'
I3
tp1177
a(S'p2_vo'
I9
tp1178
a(S'w'
I737
tp1179
a(S'no_np'
I2
tp1180
a(S'no_ll'
I1
tp1181
a(S'w'
I2
tp1182
a(S'no_vo'
I13
tp1183
a(S'w'
I726
tp1184
a(S'no_vo'
I2
tp1185
a(S'w'
I734
tp1186
a(S'p1_vo'
I8
tp1187
a(S'w'
I3
tp1188
a(S'p2_vo'
I8
tp1189
a(S'w'
I1465
tp1190
a(S'p1_vo'
I7
tp1191
a(S'w'
I3
tp1192
a(S'p2_vo'
I7
tp1193
a(S'w'
I2210
tp1194
a(S'tr_tl'
I150
tp1195
a(S'tr_ll'
I1
tp1196
a(S'w'
I1
tp1197
a(S'tr_lh'
I1
tp1198
a(S'tr_lr'
I126
tp1199
a(S'no_np'
I7
tp1200
a(S'w'
I1
tp1201
a(S'no_ll'
I1
tp1202
a(S'w'
I1
tp1203
a(S'no_vo'
I13
tp1204
a(S'w'
I720
tp1205
a(S'no_vo'
I2
tp1206
a(S'w'
I2200
tp1207
a(S'tr_lh'
I0
tp1208
a(S'tr_lr'
I0
tp1209
a(S'w'
I728
tp1210
a(S'p1_du'
I0
tp1211
a(S'p1_vo'
I2
tp1212
a(S'w'
I740
tp1213
a(S'p2_du'
I0
tp1214
a(S'p2_vo'
I2
tp1215
a(S'w'
I1484
tp1216
a(S'p1_tl'
I26
tp1217
a(S'p1_ll'
I1
tp1218
a(S'w'
I2
tp1219
a(S'p1_vo'
I6
tp1220
a(S'w'
I2
tp1221
a(S'p2_tl'
I225
tp1222
a(S'p2_ll'
I1
tp1223
a(S'p2_th'
I0
tp1224
a(S'w'
I2
tp1225
a(S'p2_vo'
I6
tp1226
a(S'w'
I1
tp1227
a(S'tr_tl'
I82
tp1228
a(S'tr_ll'
I1
tp1229
a(S'tr_th'
I1
tp1230
a(S'w'
I1
tp1231
a(S'tr_lh'
I1
tp1232
a(S'tr_lr'
I126
tp1233
a(S'w'
I1
tp1234
a(S'no_ll'
I1
tp1235
a(S'w'
I2
tp1236
a(S'no_vo'
I13
tp1237
a(S'w'
I707
tp1238
a(S'p1_du'
I1
tp1239
a(S'p1_vo'
I12
tp1240
a(S'w'
I3
tp1241
a(S'p2_du'
I1
tp1242
a(S'p2_vo'
I12
tp1243
a(S'w'
I2
tp1244
a(S'no_vo'
I2
tp1245
a(S'w'
I723
tp1246
a(S'p1_vo'
I11
tp1247
a(S'w'
I3
tp1248
a(S'p2_vo'
I11
tp1249
a(S'w'
I1464
tp1250
a(S'p1_vo'
I10
tp1251
a(S'w'
I3
tp1252
a(S'p2_vo'
I10
tp1253
a(S'w'
I1470
tp1254
a(S'p1_vo'
I9
tp1255
a(S'w'
I3
tp1256
a(S'p2_vo'
I9
tp1257
a(S'w'
I734
tp1258
a(S'no_np'
I2
tp1259
a(S'no_ll'
I1
tp1260
a(S'w'
I2
tp1261
a(S'no_vo'
I13
tp1262
a(S'w'
I729
tp1263
a(S'no_vo'
I2
tp1264
a(S'w'
I734
tp1265
a(S'p1_vo'
I8
tp1266
a(S'w'
I3
tp1267
a(S'p2_vo'
I8
tp1268
a(S'w'
I1459
tp1269
a(S'p1_vo'
I7
tp1270
a(S'w'
I3
tp1271
a(S'p2_vo'
I7
tp1272
a(S'w'
I2947
tp1273
a(S'no_np'
I7
tp1274
a(S'w'
I1
tp1275
a(S'no_ll'
I1
tp1276
a(S'w'
I3661
tp1277
a(S'p2_du'
I0
tp1278
a(S'p2_vo'
I2
tp1279
a(S'w'
I1476
tp1280
a(S'p2_tl'
I253
tp1281
a(S'p2_ll'
I1
tp1282
a(S'w'
I2
tp1283
a(S'p2_vo'
I6
tp1284
a(S'w'
I2
tp1285
a(S'w'
I1
tp1286
a(S'no_ll'
I1
tp1287
a(S'w'
I1
tp1288
a(S'no_vo'
I13
tp1289
a(S'w'
I721
tp1290
a(S'p2_du'
I1
tp1291
a(S'p2_vo'
I12
tp1292
a(S'w'
I2
tp1293
a(S'no_vo'
I2
tp1294
a(S'w'
I726
tp1295
a(S'p2_vo'
I11
tp1296
a(S'w'
I1472
tp1297
a(S'p2_du'
I0
tp1298
a(S'p2_vo'
I2
tp1299
a(S'w'
I1479
tp1300
a(S'p2_tl'
I12
tp1301
a(S'p2_ll'
I1
tp1302
a(S'p2_th'
I1
tp1303
a(S'w'
I3
tp1304
a(S'p2_vo'
I6
tp1305
a(S'w'
I2
tp1306
a(S'no_np'
I2
tp1307
a(S'no_ll'
I1
tp1308
a(S'w'
I1
tp1309
a(S'no_vo'
I13
tp1310
a(S'w'
I718
tp1311
a(S'p2_du'
I1
tp1312
a(S'p2_vo'
I12
tp1313
a(S'w'
I2
tp1314
a(S'no_vo'
I2
tp1315
a(S'w'
I725
tp1316
a(S'p2_vo'
I11
tp1317
a(S'w'
I1472
tp1318
a(S'p2_du'
I0
tp1319
a(S'p2_vo'
I2
tp1320
a(S'w'
I2209
tp1321
a(S'p2_tl'
I45
tp1322
a(S'p2_ll'
I1
tp1323
a(S'w'
I2
tp1324
a(S'p2_vo'
I6
tp1325
a(S'w'
I2
tp1326
a(S'no_np'
I7
tp1327
a(S'no_ll'
I1
tp1328
a(S'w'
I2
tp1329
a(S'no_vo'
I13
tp1330
a(S'w'
I717
tp1331
a(S'p2_du'
I1
tp1332
a(S'p2_vo'
I12
tp1333
a(S'w'
I2
tp1334
a(S'no_vo'
I2
tp1335
a(S'w'
I731
tp1336
a(S'p2_vo'
I11
tp1337
a(S'w'
I1467
tp1338
a(S'p2_du'
I0
tp1339
a(S'p2_vo'
I2
tp1340
a(S'w'
I2954
tp1341
a(S'p2_tl'
I12
tp1342
a(S'w'
I1
tp1343
a(S'p2_ll'
I1
tp1344
a(S'w'
I2
tp1345
a(S'p2_vo'
I6
tp1346
a(S'w'
I2
tp1347
a(S'no_np'
I11
tp1348
a(S'no_ll'
I1
tp1349
a(S'w'
I2
tp1350
a(S'no_vo'
I13
tp1351
a(S'w'
I709
tp1352
a(S'p2_du'
I1
tp1353
a(S'p2_vo'
I12
tp1354
a(S'w'
I3
tp1355
a(S'no_lh'
I0
tp1356
a(S'no_cv'
I0
tp1357
a(S'no_vo'
I2
tp1358
a(S'w'
I731
tp1359
a(S'p2_vo'
I11
tp1360
a(S'w'
I3
tp1361
a(S'no_lh'
I1
tp1362
a(S'no_cv'
I1
tp1363
a(S'no_vo'
I0
tp1364
a(S'w'
I1464
tp1365
a(S'p2_vo'
I10
tp1366
a(S'w'
I1474
tp1367
a(S'p2_vo'
I9
tp1368
a(S'w'
I730
tp1369
a(S'no_vo'
I2
tp1370
a(S'w'
I1471
tp1371
a(S'p2_vo'
I8
tp1372
a(S'w'
I1462
tp1373
a(S'p2_vo'
I7
tp1374
a(S'w'
I23498
tp1375
a(S'p1_du'
I0
tp1376
a(S'p1_vo'
I0
tp1377
a(S'w'
I2
tp1378
a(S'p2_du'
I0
tp1379
a(S'p2_vo'
I0
tp1380
a(S'w'
I1
tp1381
a(S'tr_lh'
I0
tp1382
a(S'tr_lr'
I0
tp1383
a(S'w'
I1
tp1384
a(S'no_vo'
I0
tp1385
a.