(lp1
(S'clock'
p2
I1789772
tp3
a(S'p1_lh'
I1
tp4
a(S'p1_cv'
I1
tp5
a(S'p2_lh'
I1
tp6
a(S'p2_cv'
I1
tp7
a(S'tr_lr'
I48
tp8
a(S'no_lh'
I1
tp9
a(S'no_cv'
I1
tp10
a(S'ch_no'
I1
tp11
a(S'ch_tr'
I1
tp12
a(S'ch_p2'
I1
tp13
a(S'ch_p1'
I1
tp14
a(S'fc_mo'
I0
tp15
a(S'ch_no'
I1
tp16
a(S'ch_tr'
I1
tp17
a(S'ch_p2'
I1
tp18
a(S'ch_p1'
I1
tp19
a(S'w'
I14
tp20
a(S'p1_du'
I1
tp21
a(S'p1_vo'
I5
tp22
a(S'p1_sn'
I1
tp23
a(S'w'
I1
tp24
a(S'p1_tl'
I213
tp25
a(S'w'
I1
tp26
a(S'p1_ll'
I19
tp27
a(S'w'
I3
tp28
a(S'p2_vo'
I5
tp29
a(S'p2_sn'
I1
tp30
a(S'w'
I1
tp31
a(S'p2_tl'
I83
tp32
a(S'w'
I1
tp33
a(S'p2_ll'
I19
tp34
a(S'p2_th'
I1
tp35
a(S'w'
I3
tp36
a(S'tr_lh'
I1
tp37
a(S'tr_lr'
I15
tp38
a(S'w'
I1
tp39
a(S'tr_tl'
I254
tp40
a(S'tr_ll'
I3
tp41
a(S'w'
I4
tp42
a(S'no_vo'
I9
tp43
a(S'w'
I1
tp44
a(S'no_np'
I1
tp45
a(S'no_ll'
I19
tp46
a(S'w'
I633
tp47
a(S'p1_vo'
I8
tp48
a(S'w'
I1
tp49
a(S'w'
I3
tp50
a(S'p2_vo'
I8
tp51
a(S'w'
I1
tp52
a(S'w'
I7
tp53
a(S'no_vo'
I7
tp54
a(S'w'
I1
tp55
a(S'w'
I1
tp56
a(S'no_ll'
I19
tp57
a(S'w'
I731
tp58
a(S'w'
I5
tp59
a(S'w'
I7
tp60
a(S'no_vo'
I5
tp61
a(S'w'
I1
tp62
a(S'w'
I1
tp63
a(S'no_ll'
I19
tp64
a(S'w'
I707
tp65
a(S'p1_vo'
I5
tp66
a(S'w'
I1
tp67
a(S'w'
I4
tp68
a(S'w'
I7
tp69
a(S'no_vo'
I3
tp70
a(S'w'
I1
tp71
a(S'w'
I1
tp72
a(S'no_ll'
I19
tp73
a(S'w'
I720
tp74
a(S'p1_vo'
I2
tp75
a(S'w'
I1
tp76
a(S'w'
I4
tp77
a(S'w'
I7
tp78
a(S'no_vo'
I1
tp79
a(S'w'
I1
tp80
a(S'w'
I1
tp81
a(S'no_ll'
I19
tp82
a(S'w'
I721
tp83
a(S'p1_vo'
I5
tp84
a(S'w'
I1
tp85
a(S'w'
I5
tp86
a(S'w'
I3
tp87
a(S'tr_lr'
I0
tp88
a(S'w'
I4
tp89
a(S'no_vo'
I0
tp90
a(S'w'
I1
tp91
a(S'no_ll'
I19
tp92
a(S'w'
I737
tp93
a(S'w'
I5
tp94
a(S'w'
I8
tp95
a(S'no_ll'
I19
tp96
a(S'w'
I719
tp97
a(S'p1_tl'
I226
tp98
a(S'w'
I4
tp99
a(S'w'
I4
tp100
a(S'tr_lr'
I15
tp101
a(S'w'
I1
tp102
a(S'tr_ll'
I3
tp103
a(S'w'
I5
tp104
a(S'no_ll'
I19
tp105
a(S'w'
I703
tp106
a(S'p1_vo'
I8
tp107
a(S'w'
I1
tp108
a(S'w'
I4
tp109
a(S'w'
I8
tp110
a(S'w'
I1
tp111
a(S'no_ll'
I19
tp112
a(S'w'
I717
tp113
a(S'w'
I5
tp114
a(S'w'
I8
tp115
a(S'w'
I1
tp116
a(S'no_ll'
I19
tp117
a(S'w'
I735
tp118
a(S'p1_vo'
I5
tp119
a(S'w'
I1
tp120
a(S'w'
I4
tp121
a(S'w'
I9
tp122
a(S'no_ll'
I19
tp123
a(S'w'
I706
tp124
a(S'p1_vo'
I2
tp125
a(S'w'
I1
tp126
a(S'w'
I4
tp127
a(S'w'
I8
tp128
a(S'w'
I1
tp129
a(S'no_ll'
I19
tp130
a(S'w'
I721
tp131
a(S'p1_vo'
I5
tp132
a(S'w'
I1
tp133
a(S'w'
I5
tp134
a(S'w'
I3
tp135
a(S'tr_lr'
I0
tp136
a(S'w'
I5
tp137
a(S'no_ll'
I19
tp138
a(S'w'
I718
tp139
a(S'w'
I4
tp140
a(S'w'
I8
tp141
a(S'w'
I1
tp142
a(S'no_ll'
I19
tp143
a(S'w'
I744
tp144
a(S'ch_no'
I1
tp145
a(S'ch_tr'
I1
tp146
a(S'ch_p2'
I1
tp147
a(S'ch_p1'
I1
tp148
a(S'w'
I1
tp149
a(S'ch_no'
I1
tp150
a(S'ch_tr'
I1
tp151
a(S'ch_p2'
I1
tp152
a(S'ch_p1'
I1
tp153
a(S'w'
I13
tp154
a(S'p1_tl'
I254
tp155
a(S'w'
I5
tp156
a(S'w'
I7
tp157
a(S'no_vo'
I9
tp158
a(S'w'
I1
tp159
a(S'no_np'
I5
tp160
a(S'w'
I1
tp161
a(S'no_ll'
I19
tp162
a(S'w'
I684
tp163
a(S'p1_vo'
I8
tp164
a(S'w'
I1
tp165
a(S'w'
I5
tp166
a(S'w'
I7
tp167
a(S'no_vo'
I7
tp168
a(S'w'
I1
tp169
a(S'no_ll'
I19
tp170
a(S'w'
I719
tp171
a(S'w'
I5
tp172
a(S'w'
I7
tp173
a(S'no_vo'
I5
tp174
a(S'w'
I1
tp175
a(S'no_ll'
I19
tp176
a(S'w'
I722
tp177
a(S'p1_vo'
I5
tp178
a(S'w'
I1
tp179
a(S'w'
I4
tp180
a(S'w'
I7
tp181
a(S'no_vo'
I3
tp182
a(S'w'
I1
tp183
a(S'w'
I1
tp184
a(S'no_ll'
I19
tp185
a(S'w'
I734
tp186
a(S'p1_vo'
I2
tp187
a(S'w'
I1
tp188
a(S'w'
I4
tp189
a(S'w'
I7
tp190
a(S'no_vo'
I1
tp191
a(S'w'
I1
tp192
a(S'w'
I1
tp193
a(S'no_ll'
I19
tp194
a(S'w'
I707
tp195
a(S'p1_vo'
I5
tp196
a(S'w'
I1
tp197
a(S'w'
I5
tp198
a(S'w'
I7
tp199
a(S'no_vo'
I0
tp200
a(S'w'
I1
tp201
a(S'no_ll'
I19
tp202
a(S'w'
I719
tp203
a(S'w'
I4
tp204
a(S'p2_vo'
I7
tp205
a(S'w'
I1
tp206
a(S'w'
I8
tp207
a(S'no_ll'
I19
tp208
a(S'w'
I739
tp209
a(S'p1_tl'
I29
tp210
a(S'p1_ll'
I19
tp211
a(S'p1_th'
I1
tp212
a(S'w'
I4
tp213
a(S'p2_vo'
I8
tp214
a(S'w'
I1
tp215
a(S'w'
I3
tp216
a(S'tr_lr'
I15
tp217
a(S'w'
I2
tp218
a(S'tr_ll'
I3
tp219
a(S'w'
I4
tp220
a(S'w'
I1
tp221
a(S'no_ll'
I19
tp222
a(S'w'
I716
tp223
a(S'p1_vo'
I8
tp224
a(S'w'
I1
tp225
a(S'w'
I3
tp226
a(S'p2_vo'
I7
tp227
a(S'w'
I1
tp228
a(S'w'
I8
tp229
a(S'w'
I1
tp230
a(S'no_ll'
I19
tp231
a(S'w'
I703
tp232
a(S'w'
I4
tp233
a(S'p2_vo'
I8
tp234
a(S'w'
I1
tp235
a(S'w'
I8
tp236
a(S'no_ll'
I19
tp237
a(S'w'
I722
tp238
a(S'p1_vo'
I5
tp239
a(S'w'
I1
tp240
a(S'w'
I3
tp241
a(S'p2_vo'
I7
tp242
a(S'w'
I1
tp243
a(S'w'
I8
tp244
a(S'w'
I1
tp245
a(S'no_ll'
I19
tp246
a(S'w'
I719
tp247
a(S'p1_vo'
I2
tp248
a(S'w'
I1
tp249
a(S'w'
I4
tp250
a(S'p2_vo'
I8
tp251
a(S'w'
I1
tp252
a(S'w'
I8
tp253
a(S'w'
I1
tp254
a(S'no_ll'
I19
tp255
a(S'w'
I735
tp256
a(S'p1_vo'
I5
tp257
a(S'w'
I1
tp258
a(S'w'
I4
tp259
a(S'p2_vo'
I7
tp260
a(S'w'
I1
tp261
a(S'w'
I3
tp262
a(S'tr_lr'
I0
tp263
a(S'w'
I5
tp264
a(S'no_ll'
I19
tp265
a(S'w'
I703
tp266
a(S'w'
I4
tp267
a(S'p2_vo'
I8
tp268
a(S'w'
I1
tp269
a(S'w'
I8
tp270
a(S'w'
I1
tp271
a(S'no_ll'
I19
tp272
a(S'w'
I747
tp273
a(S'p1_tl'
I254
tp274
a(S'p1_ll'
I19
tp275
a(S'p1_th'
I0
tp276
a(S'w'
I4
tp277
a(S'p2_vo'
I7
tp278
a(S'w'
I1
tp279
a(S'w'
I7
tp280
a(S'no_vo'
I9
tp281
a(S'w'
I1
tp282
a(S'no_np'
I1
tp283
a(S'no_ll'
I19
tp284
a(S'w'
I696
tp285
a(S'p1_vo'
I8
tp286
a(S'w'
I1
tp287
a(S'w'
I4
tp288
a(S'p2_vo'
I6
tp289
a(S'w'
I1
tp290
a(S'w'
I7
tp291
a(S'no_vo'
I7
tp292
a(S'w'
I1
tp293
a(S'no_ll'
I19
tp294
a(S'w'
I732
tp295
a(S'w'
I4
tp296
a(S'w'
I7
tp297
a(S'no_vo'
I5
tp298
a(S'w'
I1
tp299
a(S'w'
I1
tp300
a(S'no_ll'
I19
tp301
a(S'w'
I708
tp302
a(S'w'
I4
tp303
a(S'p2_vo'
I5
tp304
a(S'w'
I1
tp305
a(S'w'
I7
tp306
a(S'no_vo'
I3
tp307
a(S'w'
I1
tp308
a(S'no_ll'
I19
tp309
a(S'w'
I720
tp310
a(S'p1_vo'
I6
tp311
a(S'w'
I1
tp312
a(S'w'
I4
tp313
a(S'w'
I7
tp314
a(S'no_vo'
I1
tp315
a(S'w'
I1
tp316
a(S'w'
I1
tp317
a(S'no_ll'
I19
tp318
a(S'w'
I723
tp319
a(S'p1_vo'
I4
tp320
a(S'w'
I1
tp321
a(S'w'
I3
tp322
a(S'p2_vo'
I6
tp323
a(S'w'
I1
tp324
a(S'w'
I7
tp325
a(S'no_vo'
I0
tp326
a(S'w'
I1
tp327
a(S'w'
I1
tp328
a(S'no_ll'
I19
tp329
a(S'w'
I716
tp330
a(S'p1_vo'
I2
tp331
a(S'w'
I1
tp332
a(S'w'
I5
tp333
a(S'w'
I8
tp334
a(S'w'
I1
tp335
a(S'no_ll'
I19
tp336
a(S'w'
I723
tp337
a(S'ch_no'
I1
tp338
a(S'ch_tr'
I1
tp339
a(S'ch_p2'
I1
tp340
a(S'ch_p1'
I1
tp341
a(S'w'
I1
tp342
a(S'ch_no'
I1
tp343
a(S'ch_tr'
I1
tp344
a(S'ch_p2'
I1
tp345
a(S'ch_p1'
I1
tp346
a(S'w'
I13
tp347
a(S'w'
I4
tp348
a(S'p2_vo'
I5
tp349
a(S'w'
I1
tp350
a(S'w'
I3
tp351
a(S'tr_lr'
I15
tp352
a(S'w'
I2
tp353
a(S'tr_ll'
I3
tp354
a(S'w'
I3
tp355
a(S'no_vo'
I9
tp356
a(S'w'
I1
tp357
a(S'no_np'
I5
tp358
a(S'w'
I1
tp359
a(S'no_ll'
I19
tp360
a(S'w'
I701
tp361
a(S'p1_vo'
I5
tp362
a(S'w'
I1
tp363
a(S'w'
I5
tp364
a(S'w'
I7
tp365
a(S'no_vo'
I7
tp366
a(S'w'
I1
tp367
a(S'no_ll'
I19
tp368
a(S'w'
I721
tp369
a(S'w'
I4
tp370
a(S'p2_vo'
I6
tp371
a(S'w'
I1
tp372
a(S'w'
I7
tp373
a(S'no_vo'
I5
tp374
a(S'w'
I1
tp375
a(S'no_ll'
I19
tp376
a(S'w'
I719
tp377
a(S'w'
I5
tp378
a(S'w'
I7
tp379
a(S'no_vo'
I3
tp380
a(S'w'
I1
tp381
a(S'no_ll'
I19
tp382
a(S'w'
I723
tp383
a(S'w'
I3
tp384
a(S'p2_vo'
I5
tp385
a(S'w'
I1
tp386
a(S'w'
I7
tp387
a(S'no_vo'
I1
tp388
a(S'w'
I1
tp389
a(S'w'
I1
tp390
a(S'no_ll'
I19
tp391
a(S'w'
I735
tp392
a(S'w'
I4
tp393
a(S'w'
I4
tp394
a(S'tr_lr'
I0
tp395
a(S'w'
I3
tp396
a(S'no_vo'
I0
tp397
a(S'w'
I1
tp398
a(S'w'
I1
tp399
a(S'no_ll'
I19
tp400
a(S'w'
I706
tp401
a(S'w'
I4
tp402
a(S'p2_vo'
I6
tp403
a(S'w'
I1
tp404
a(S'w'
I8
tp405
a(S'no_ll'
I19
tp406
a(S'w'
I733
tp407
a(S'ch_no'
I1
tp408
a(S'ch_tr'
I1
tp409
a(S'ch_p2'
I1
tp410
a(S'ch_p1'
I1
tp411
a(S'w'
I1
tp412
a(S'ch_no'
I1
tp413
a(S'ch_tr'
I1
tp414
a(S'ch_p2'
I1
tp415
a(S'ch_p1'
I1
tp416
a(S'w'
I14
tp417
a(S'p1_tl'
I169
tp418
a(S'w'
I5
tp419
a(S'w'
I7
tp420
a(S'no_vo'
I9
tp421
a(S'w'
I1
tp422
a(S'no_np'
I1
tp423
a(S'no_ll'
I19
tp424
a(S'w'
I694
tp425
a(S'p1_vo'
I8
tp426
a(S'w'
I1
tp427
a(S'w'
I4
tp428
a(S'p2_vo'
I5
tp429
a(S'w'
I1
tp430
a(S'w'
I7
tp431
a(S'no_vo'
I7
tp432
a(S'w'
I1
tp433
a(S'no_ll'
I19
tp434
a(S'w'
I732
tp435
a(S'w'
I4
tp436
a(S'w'
I7
tp437
a(S'no_vo'
I5
tp438
a(S'w'
I1
tp439
a(S'w'
I1
tp440
a(S'no_ll'
I19
tp441
a(S'w'
I708
tp442
a(S'w'
I4
tp443
a(S'p2_vo'
I6
tp444
a(S'w'
I1
tp445
a(S'w'
I7
tp446
a(S'no_vo'
I3
tp447
a(S'w'
I1
tp448
a(S'no_ll'
I19
tp449
a(S'w'
I719
tp450
a(S'w'
I5
tp451
a(S'w'
I7
tp452
a(S'no_vo'
I1
tp453
a(S'w'
I1
tp454
a(S'no_ll'
I19
tp455
a(S'w'
I724
tp456
a(S'w'
I4
tp457
a(S'p2_vo'
I5
tp458
a(S'w'
I1
tp459
a(S'w'
I7
tp460
a(S'no_vo'
I0
tp461
a(S'w'
I1
tp462
a(S'w'
I1
tp463
a(S'no_ll'
I19
tp464
a(S'w'
I731
tp465
a(S'w'
I5
tp466
a(S'w'
I8
tp467
a(S'no_ll'
I19
tp468
a(S'w'
I717
tp469
a(S'w'
I4
tp470
a(S'p2_vo'
I6
tp471
a(S'w'
I1
tp472
a(S'w'
I4
tp473
a(S'tr_lr'
I15
tp474
a(S'w'
I1
tp475
a(S'tr_ll'
I3
tp476
a(S'w'
I5
tp477
a(S'no_ll'
I19
tp478
a(S'w'
I709
tp479
a(S'w'
I4
tp480
a(S'w'
I8
tp481
a(S'w'
I1
tp482
a(S'no_ll'
I19
tp483
a(S'w'
I721
tp484
a(S'w'
I3
tp485
a(S'p2_vo'
I5
tp486
a(S'w'
I1
tp487
a(S'w'
I8
tp488
a(S'w'
I1
tp489
a(S'no_ll'
I19
tp490
a(S'w'
I733
tp491
a(S'w'
I5
tp492
a(S'w'
I8
tp493
a(S'no_ll'
I19
tp494
a(S'w'
I708
tp495
a(S'w'
I4
tp496
a(S'p2_vo'
I6
tp497
a(S'w'
I1
tp498
a(S'w'
I8
tp499
a(S'no_ll'
I19
tp500
a(S'w'
I721
tp501
a(S'w'
I5
tp502
a(S'w'
I3
tp503
a(S'tr_lr'
I0
tp504
a(S'w'
I5
tp505
a(S'no_ll'
I19
tp506
a(S'w'
I721
tp507
a(S'w'
I4
tp508
a(S'p2_vo'
I5
tp509
a(S'w'
I1
tp510
a(S'w'
I8
tp511
a(S'no_ll'
I19
tp512
a(S'w'
I761
tp513
a(S'ch_no'
I1
tp514
a(S'ch_tr'
I1
tp515
a(S'ch_p2'
I1
tp516
a(S'ch_p1'
I1
tp517
a(S'w'
I1
tp518
a(S'ch_no'
I1
tp519
a(S'ch_tr'
I1
tp520
a(S'ch_p2'
I1
tp521
a(S'ch_p1'
I1
tp522
a(S'w'
I14
tp523
a(S'w'
I5
tp524
a(S'w'
I4
tp525
a(S'tr_lr'
I15
tp526
a(S'w'
I1
tp527
a(S'tr_ll'
I3
tp528
a(S'w'
I3
tp529
a(S'no_vo'
I9
tp530
a(S'w'
I1
tp531
a(S'w'
I1
tp532
a(S'no_ll'
I19
tp533
a(S'w'
I667
tp534
a(S'w'
I3
tp535
a(S'p2_vo'
I6
tp536
a(S'w'
I1
tp537
a(S'w'
I7
tp538
a(S'no_vo'
I7
tp539
a(S'w'
I1
tp540
a(S'w'
I1
tp541
a(S'no_ll'
I19
tp542
a(S'w'
I719
tp543
a(S'p1_tl'
I168
tp544
a(S'w'
I5
tp545
a(S'w'
I7
tp546
a(S'no_vo'
I5
tp547
a(S'w'
I1
tp548
a(S'no_ll'
I19
tp549
a(S'w'
I723
tp550
a(S'p1_tl'
I167
tp551
a(S'w'
I3
tp552
a(S'p2_vo'
I5
tp553
a(S'w'
I1
tp554
a(S'w'
I7
tp555
a(S'no_vo'
I3
tp556
a(S'w'
I1
tp557
a(S'w'
I1
tp558
a(S'no_ll'
I19
tp559
a(S'w'
I733
tp560
a(S'p1_tl'
I168
tp561
a(S'w'
I4
tp562
a(S'w'
I7
tp563
a(S'no_vo'
I1
tp564
a(S'w'
I1
tp565
a(S'w'
I1
tp566
a(S'no_ll'
I19
tp567
a(S'w'
I710
tp568
a(S'p1_tl'
I169
tp569
a(S'w'
I3
tp570
a(S'p2_vo'
I6
tp571
a(S'w'
I1
tp572
a(S'w'
I4
tp573
a(S'tr_lr'
I0
tp574
a(S'w'
I3
tp575
a(S'no_vo'
I0
tp576
a(S'w'
I1
tp577
a(S'w'
I1
tp578
a(S'no_ll'
I19
tp579
a(S'w'
I718
tp580
a(S'p1_vo'
I7
tp581
a(S'w'
I1
tp582
a(S'w'
I4
tp583
a(S'w'
I8
tp584
a(S'w'
I1
tp585
a(S'no_ll'
I19
tp586
a(S'w'
I730
tp587
a(S'p1_vo'
I8
tp588
a(S'w'
I1
tp589
a(S'p1_tl'
I170
tp590
a(S'w'
I4
tp591
a(S'p2_vo'
I5
tp592
a(S'w'
I1
tp593
a(S'w'
I3
tp594
a(S'tr_lr'
I15
tp595
a(S'w'
I2
tp596
a(S'tr_ll'
I3
tp597
a(S'w'
I4
tp598
a(S'w'
I1
tp599
a(S'no_ll'
I19
tp600
a(S'w'
I722
tp601
a(S'p1_vo'
I7
tp602
a(S'w'
I1
tp603
a(S'p1_tl'
I171
tp604
a(S'w'
I4
tp605
a(S'w'
I8
tp606
a(S'w'
I1
tp607
a(S'no_ll'
I19
tp608
a(S'w'
I705
tp609
a(S'p1_vo'
I8
tp610
a(S'w'
I1
tp611
a(S'p1_tl'
I170
tp612
a(S'w'
I4
tp613
a(S'p2_vo'
I6
tp614
a(S'w'
I1
tp615
a(S'w'
I8
tp616
a(S'w'
I1
tp617
a(S'no_ll'
I19
tp618
a(S'w'
I717
tp619
a(S'p1_vo'
I7
tp620
a(S'w'
I1
tp621
a(S'p1_tl'
I169
tp622
a(S'w'
I5
tp623
a(S'w'
I8
tp624
a(S'no_ll'
I19
tp625
a(S'w'
I722
tp626
a(S'p1_vo'
I8
tp627
a(S'w'
I1
tp628
a(S'w'
I3
tp629
a(S'p2_vo'
I5
tp630
a(S'w'
I1
tp631
a(S'w'
I8
tp632
a(S'w'
I1
tp633
a(S'no_ll'
I19
tp634
a(S'w'
I734
tp635
a(S'p1_vo'
I7
tp636
a(S'w'
I1
tp637
a(S'p1_tl'
I168
tp638
a(S'w'
I4
tp639
a(S'w'
I4
tp640
a(S'tr_lr'
I0
tp641
a(S'w'
I4
tp642
a(S'w'
I1
tp643
a(S'no_ll'
I19
tp644
a(S'w'
I706
tp645
a(S'p1_vo'
I8
tp646
a(S'w'
I1
tp647
a(S'p1_tl'
I167
tp648
a(S'w'
I3
tp649
a(S'p2_vo'
I6
tp650
a(S'w'
I1
tp651
a(S'w'
I8
tp652
a(S'w'
I1
tp653
a(S'no_ll'
I19
tp654
a(S'w'
I745
tp655
a(S'ch_no'
I1
tp656
a(S'ch_tr'
I1
tp657
a(S'ch_p2'
I1
tp658
a(S'ch_p1'
I1
tp659
a(S'w'
I1
tp660
a(S'ch_no'
I1
tp661
a(S'ch_tr'
I1
tp662
a(S'ch_p2'
I1
tp663
a(S'ch_p1'
I1
tp664
a(S'w'
I12
tp665
a(S'p1_vo'
I7
tp666
a(S'w'
I1
tp667
a(S'p1_tl'
I169
tp668
a(S'w'
I4
tp669
a(S'p2_vo'
I5
tp670
a(S'w'
I1
tp671
a(S'p2_tl'
I252
tp672
a(S'w'
I3
tp673
a(S'tr_lr'
I15
tp674
a(S'w'
I1
tp675
a(S'tr_tl'
I29
tp676
a(S'w'
I1
tp677
a(S'tr_ll'
I3
tp678
a(S'tr_th'
I1
tp679
a(S'w'
I3
tp680
a(S'no_vo'
I9
tp681
a(S'w'
I1
tp682
a(S'no_np'
I5
tp683
a(S'w'
I1
tp684
a(S'no_ll'
I19
tp685
a(S'w'
I681
tp686
a(S'p1_vo'
I6
tp687
a(S'w'
I1
tp688
a(S'p1_tl'
I166
tp689
a(S'w'
I3
tp690
a(S'p2_vo'
I8
tp691
a(S'w'
I1
tp692
a(S'w'
I8
tp693
a(S'no_vo'
I7
tp694
a(S'w'
I1
tp695
a(S'no_ll'
I19
tp696
a(S'w'
I732
tp697
a(S'p1_tl'
I163
tp698
a(S'w'
I4
tp699
a(S'w'
I7
tp700
a(S'no_vo'
I5
tp701
a(S'w'
I1
tp702
a(S'w'
I1
tp703
a(S'no_ll'
I19
tp704
a(S'w'
I707
tp705
a(S'p1_vo'
I5
tp706
a(S'w'
I1
tp707
a(S'p1_tl'
I166
tp708
a(S'w'
I4
tp709
a(S'w'
I8
tp710
a(S'no_vo'
I3
tp711
a(S'w'
I1
tp712
a(S'no_ll'
I19
tp713
a(S'w'
I720
tp714
a(S'p1_tl'
I169
tp715
a(S'w'
I4
tp716
a(S'p2_vo'
I6
tp717
a(S'w'
I1
tp718
a(S'w'
I7
tp719
a(S'no_vo'
I1
tp720
a(S'w'
I1
tp721
a(S'w'
I1
tp722
a(S'no_ll'
I19
tp723
a(S'w'
I723
tp724
a(S'p1_vo'
I6
tp725
a(S'w'
I1
tp726
a(S'p1_tl'
I172
tp727
a(S'w'
I3
tp728
a(S'p2_vo'
I4
tp729
a(S'w'
I1
tp730
a(S'w'
I4
tp731
a(S'tr_lr'
I0
tp732
a(S'w'
I3
tp733
a(S'no_vo'
I0
tp734
a(S'w'
I1
tp735
a(S'w'
I1
tp736
a(S'no_ll'
I19
tp737
a(S'w'
I717
tp738
a(S'p1_tl'
I175
tp739
a(S'w'
I4
tp740
a(S'p2_vo'
I2
tp741
a(S'w'
I1
tp742
a(S'w'
I8
tp743
a(S'no_ll'
I19
tp744
a(S'w'
I726
tp745
a(S'p1_vo'
I5
tp746
a(S'w'
I1
tp747
a(S'p1_tl'
I172
tp748
a(S'w'
I5
tp749
a(S'w'
I8
tp750
a(S'no_ll'
I19
tp751
a(S'w'
I714
tp752
a(S'p1_tl'
I169
tp753
a(S'w'
I4
tp754
a(S'p2_vo'
I5
tp755
a(S'w'
I1
tp756
a(S'w'
I8
tp757
a(S'w'
I1
tp758
a(S'no_ll'
I19
tp759
a(S'w'
I718
tp760
a(S'p1_vo'
I6
tp761
a(S'w'
I1
tp762
a(S'p1_tl'
I166
tp763
a(S'w'
I4
tp764
a(S'w'
I8
tp765
a(S'w'
I1
tp766
a(S'no_ll'
I19
tp767
a(S'w'
I719
tp768
a(S'p1_tl'
I163
tp769
a(S'w'
I5
tp770
a(S'w'
I8
tp771
a(S'no_ll'
I19
tp772
a(S'w'
I721
tp773
a(S'p1_vo'
I5
tp774
a(S'w'
I1
tp775
a(S'p1_tl'
I166
tp776
a(S'w'
I5
tp777
a(S'w'
I8
tp778
a(S'w'
I1
tp779
a(S'no_ll'
I19
tp780
a(S'w'
I734
tp781
a(S'p1_tl'
I169
tp782
a(S'w'
I5
tp783
a(S'w'
I8
tp784
a(S'no_ll'
I19
tp785
a(S'w'
I706
tp786
a(S'p1_vo'
I6
tp787
a(S'w'
I1
tp788
a(S'p1_tl'
I172
tp789
a(S'w'
I5
tp790
a(S'w'
I8
tp791
a(S'no_ll'
I19
tp792
a(S'w'
I745
tp793
a(S'p1_tl'
I175
tp794
a(S'w'
I4
tp795
a(S'p2_tl'
I196
tp796
a(S'w'
I4
tp797
a(S'tr_lr'
I15
tp798
a(S'w'
I1
tp799
a(S'tr_tl'
I64
tp800
a(S'tr_ll'
I3
tp801
a(S'w'
I4
tp802
a(S'no_vo'
I9
tp803
a(S'w'
I1
tp804
a(S'no_np'
I1
tp805
a(S'no_ll'
I19
tp806
a(S'w'
I698
tp807
a(S'p1_vo'
I5
tp808
a(S'w'
I1
tp809
a(S'p1_tl'
I172
tp810
a(S'w'
I4
tp811
a(S'p2_vo'
I8
tp812
a(S'w'
I1
tp813
a(S'w'
I7
tp814
a(S'no_vo'
I7
tp815
a(S'w'
I1
tp816
a(S'no_ll'
I19
tp817
a(S'w'
I731
tp818
a(S'p1_tl'
I169
tp819
a(S'w'
I5
tp820
a(S'w'
I7
tp821
a(S'no_vo'
I5
tp822
a(S'w'
I1
tp823
a(S'w'
I1
tp824
a(S'no_ll'
I19
tp825
a(S'w'
I707
tp826
a(S'p1_vo'
I6
tp827
a(S'w'
I1
tp828
a(S'p1_tl'
I166
tp829
a(S'w'
I5
tp830
a(S'w'
I7
tp831
a(S'no_vo'
I3
tp832
a(S'w'
I1
tp833
a(S'no_ll'
I19
tp834
a(S'w'
I721
tp835
a(S'p1_tl'
I163
tp836
a(S'w'
I4
tp837
a(S'p2_vo'
I6
tp838
a(S'w'
I1
tp839
a(S'w'
I7
tp840
a(S'no_vo'
I1
tp841
a(S'w'
I1
tp842
a(S'no_ll'
I19
tp843
a(S'w'
I723
tp844
a(S'p1_vo'
I5
tp845
a(S'w'
I1
tp846
a(S'p1_tl'
I166
tp847
a(S'w'
I4
tp848
a(S'p2_vo'
I4
tp849
a(S'w'
I1
tp850
a(S'w'
I3
tp851
a(S'tr_lr'
I0
tp852
a(S'w'
I4
tp853
a(S'no_vo'
I0
tp854
a(S'w'
I1
tp855
a(S'no_ll'
I19
tp856
a(S'w'
I731
tp857
a(S'p1_tl'
I169
tp858
a(S'w'
I4
tp859
a(S'p2_vo'
I2
tp860
a(S'w'
I1
tp861
a(S'w'
I8
tp862
a(S'w'
I1
tp863
a(S'no_ll'
I19
tp864
a(S'w'
I706
tp865
a(S'ch_no'
I1
tp866
a(S'ch_tr'
I1
tp867
a(S'ch_p2'
I1
tp868
a(S'ch_p1'
I1
tp869
a(S'w'
I1
tp870
a(S'ch_no'
I1
tp871
a(S'ch_tr'
I1
tp872
a(S'ch_p2'
I1
tp873
a(S'ch_p1'
I1
tp874
a(S'w'
I12
tp875
a(S'p1_vo'
I6
tp876
a(S'w'
I1
tp877
a(S'p1_tl'
I172
tp878
a(S'w'
I5
tp879
a(S'w'
I7
tp880
a(S'no_vo'
I9
tp881
a(S'w'
I1
tp882
a(S'no_np'
I5
tp883
a(S'no_ll'
I19
tp884
a(S'w'
I707
tp885
a(S'p1_tl'
I175
tp886
a(S'w'
I3
tp887
a(S'p2_vo'
I5
tp888
a(S'w'
I1
tp889
a(S'w'
I7
tp890
a(S'no_vo'
I7
tp891
a(S'w'
I1
tp892
a(S'w'
I1
tp893
a(S'no_ll'
I19
tp894
a(S'w'
I720
tp895
a(S'p1_vo'
I5
tp896
a(S'w'
I1
tp897
a(S'p1_tl'
I172
tp898
a(S'w'
I4
tp899
a(S'w'
I7
tp900
a(S'no_vo'
I5
tp901
a(S'w'
I1
tp902
a(S'w'
I1
tp903
a(S'no_ll'
I19
tp904
a(S'w'
I733
tp905
a(S'p1_tl'
I169
tp906
a(S'w'
I4
tp907
a(S'w'
I7
tp908
a(S'no_vo'
I3
tp909
a(S'w'
I1
tp910
a(S'w'
I1
tp911
a(S'no_ll'
I19
tp912
a(S'w'
I707
tp913
a(S'p1_vo'
I6
tp914
a(S'w'
I1
tp915
a(S'p1_tl'
I166
tp916
a(S'w'
I5
tp917
a(S'w'
I7
tp918
a(S'no_vo'
I1
tp919
a(S'w'
I1
tp920
a(S'no_ll'
I19
tp921
a(S'w'
I721
tp922
a(S'p1_tl'
I163
tp923
a(S'w'
I5
tp924
a(S'w'
I7
tp925
a(S'no_vo'
I0
tp926
a(S'w'
I1
tp927
a(S'no_ll'
I19
tp928
a(S'w'
I720
tp929
a(S'p1_vo'
I5
tp930
a(S'w'
I1
tp931
a(S'p1_tl'
I166
tp932
a(S'w'
I5
tp933
a(S'w'
I8
tp934
a(S'no_ll'
I19
tp935
a(S'w'
I749
tp936
a(S'ch_no'
I1
tp937
a(S'ch_tr'
I1
tp938
a(S'ch_p2'
I1
tp939
a(S'ch_p1'
I1
tp940
a(S'w'
I1
tp941
a(S'ch_no'
I1
tp942
a(S'ch_tr'
I1
tp943
a(S'ch_p2'
I1
tp944
a(S'ch_p1'
I1
tp945
a(S'w'
I13
tp946
a(S'p1_vo'
I0
tp947
a(S'w'
I1
tp948
a(S'w'
I5
tp949
a(S'p2_tl'
I171
tp950
a(S'w'
I4
tp951
a(S'tr_lr'
I15
tp952
a(S'tr_tl'
I83
tp953
a(S'w'
I1
tp954
a(S'tr_ll'
I3
tp955
a(S'w'
I3
tp956
a(S'no_vo'
I9
tp957
a(S'w'
I1
tp958
a(S'no_np'
I1
tp959
a(S'w'
I1
tp960
a(S'no_ll'
I19
tp961
a(S'w'
I675
tp962
a(S'w'
I4
tp963
a(S'p2_vo'
I8
tp964
a(S'w'
I1
tp965
a(S'w'
I7
tp966
a(S'no_vo'
I7
tp967
a(S'w'
I1
tp968
a(S'no_ll'
I19
tp969
a(S'w'
I718
tp970
a(S'w'
I4
tp971
a(S'w'
I7
tp972
a(S'no_vo'
I5
tp973
a(S'w'
I1
tp974
a(S'w'
I1
tp975
a(S'no_ll'
I19
tp976
a(S'w'
I722
tp977
a(S'w'
I5
tp978
a(S'w'
I7
tp979
a(S'no_vo'
I3
tp980
a(S'w'
I1
tp981
a(S'no_ll'
I19
tp982
a(S'w'
I735
tp983
a(S'w'
I4
tp984
a(S'p2_vo'
I6
tp985
a(S'w'
I1
tp986
a(S'w'
I7
tp987
a(S'no_vo'
I1
tp988
a(S'w'
I1
tp989
a(S'no_ll'
I19
tp990
a(S'w'
I710
tp991
a(S'w'
I4
tp992
a(S'p2_vo'
I4
tp993
a(S'w'
I1
tp994
a(S'w'
I3
tp995
a(S'tr_lr'
I0
tp996
a(S'w'
I4
tp997
a(S'no_vo'
I0
tp998
a(S'w'
I1
tp999
a(S'no_ll'
I19
tp1000
a(S'w'
I717
tp1001
a(S'w'
I4
tp1002
a(S'p2_vo'
I2
tp1003
a(S'w'
I1
tp1004
a(S'w'
I8
tp1005
a(S'w'
I1
tp1006
a(S'no_ll'
I19
tp1007
a(S'w'
I726
tp1008
a(S'w'
I5
tp1009
a(S'w'
I8
tp1010
a(S'no_ll'
I19
tp1011
a(S'w'
I729
tp1012
a(S'w'
I4
tp1013
a(S'p2_vo'
I5
tp1014
a(S'w'
I1
tp1015
a(S'w'
I8
tp1016
a(S'no_ll'
I19
tp1017
a(S'w'
I705
tp1018
a(S'w'
I5
tp1019
a(S'w'
I8
tp1020
a(S'no_ll'
I19
tp1021
a(S'w'
I719
tp1022
a(S'w'
I5
tp1023
a(S'w'
I8
tp1024
a(S'no_ll'
I19
tp1025
a(S'w'
I723
tp1026
a(S'w'
I4
tp1027
a(S'w'
I8
tp1028
a(S'w'
I1
tp1029
a(S'no_ll'
I19
tp1030
a(S'w'
I734
tp1031
a(S'w'
I5
tp1032
a(S'w'
I8
tp1033
a(S'w'
I1
tp1034
a(S'no_ll'
I19
tp1035
a(S'w'
I706
tp1036
a(S'w'
I5
tp1037
a(S'w'
I8
tp1038
a(S'no_ll'
I19
tp1039
a(S'w'
I756
tp1040
a(S'ch_no'
I1
tp1041
a(S'ch_tr'
I1
tp1042
a(S'ch_p2'
I1
tp1043
a(S'ch_p1'
I1
tp1044
a(S'w'
I1
tp1045
a(S'ch_no'
I1
tp1046
a(S'ch_tr'
I1
tp1047
a(S'ch_p2'
I1
tp1048
a(S'ch_p1'
I1
tp1049
a(S'w'
I12
tp1050
a(S'p1_vo'
I5
tp1051
a(S'w'
I1
tp1052
a(S'p1_tl'
I213
tp1053
a(S'w'
I5
tp1054
a(S'p2_tl'
I64
tp1055
a(S'w'
I4
tp1056
a(S'tr_lr'
I15
tp1057
a(S'tr_tl'
I64
tp1058
a(S'w'
I1
tp1059
a(S'tr_ll'
I3
tp1060
a(S'w'
I4
tp1061
a(S'no_vo'
I9
tp1062
a(S'w'
I1
tp1063
a(S'no_ll'
I19
tp1064
a(S'w'
I673
tp1065
a(S'p1_vo'
I8
tp1066
a(S'w'
I1
tp1067
a(S'w'
I3
tp1068
a(S'p2_vo'
I8
tp1069
a(S'w'
I1
tp1070
a(S'w'
I7
tp1071
a(S'no_vo'
I7
tp1072
a(S'w'
I1
tp1073
a(S'w'
I1
tp1074
a(S'no_ll'
I19
tp1075
a(S'w'
I731
tp1076
a(S'w'
I5
tp1077
a(S'w'
I7
tp1078
a(S'no_vo'
I5
tp1079
a(S'w'
I1
tp1080
a(S'no_ll'
I19
tp1081
a(S'w'
I708
tp1082
a(S'p1_vo'
I5
tp1083
a(S'w'
I1
tp1084
a(S'w'
I4
tp1085
a(S'w'
I7
tp1086
a(S'no_vo'
I3
tp1087
a(S'w'
I1
tp1088
a(S'w'
I1
tp1089
a(S'no_ll'
I19
tp1090
a(S'w'
I719
tp1091
a(S'p1_vo'
I2
tp1092
a(S'w'
I1
tp1093
a(S'w'
I5
tp1094
a(S'w'
I7
tp1095
a(S'no_vo'
I1
tp1096
a(S'w'
I1
tp1097
a(S'no_ll'
I19
tp1098
a(S'w'
I722
tp1099
a(S'p1_vo'
I5
tp1100
a(S'w'
I1
tp1101
a(S'w'
I4
tp1102
a(S'w'
I4
tp1103
a(S'tr_lr'
I0
tp1104
a(S'w'
I3
tp1105
a(S'no_vo'
I0
tp1106
a(S'w'
I1
tp1107
a(S'w'
I1
tp1108
a(S'no_ll'
I19
tp1109
a(S'w'
I717
tp1110
a(S'w'
I5
tp1111
a(S'w'
I8
tp1112
a(S'no_ll'
I19
tp1113
a(S'w'
I738
tp1114
a(S'p1_tl'
I226
tp1115
a(S'w'
I5
tp1116
a(S'w'
I4
tp1117
a(S'tr_lr'
I15
tp1118
a(S'w'
I1
tp1119
a(S'tr_ll'
I3
tp1120
a(S'w'
I5
tp1121
a(S'no_ll'
I19
tp1122
a(S'w'
I702
tp1123
a(S'p1_vo'
I8
tp1124
a(S'w'
I2
tp1125
a(S'w'
I4
tp1126
a(S'w'
I8
tp1127
a(S'w'
I1
tp1128
a(S'no_ll'
I19
tp1129
a(S'w'
I717
tp1130
a(S'w'
I5
tp1131
a(S'w'
I8
tp1132
a(S'no_ll'
I19
tp1133
a(S'w'
I722
tp1134
a(S'p1_vo'
I5
tp1135
a(S'w'
I1
tp1136
a(S'w'
I4
tp1137
a(S'w'
I8
tp1138
a(S'w'
I1
tp1139
a(S'no_ll'
I19
tp1140
a(S'w'
I719
tp1141
a(S'p1_vo'
I2
tp1142
a(S'w'
I1
tp1143
a(S'w'
I5
tp1144
a(S'w'
I8
tp1145
a(S'no_ll'
I19
tp1146
a(S'w'
I736
tp1147
a(S'p1_vo'
I5
tp1148
a(S'w'
I1
tp1149
a(S'w'
I5
tp1150
a(S'w'
I3
tp1151
a(S'tr_lr'
I0
tp1152
a(S'w'
I5
tp1153
a(S'no_ll'
I19
tp1154
a(S'w'
I703
tp1155
a(S'w'
I5
tp1156
a(S'w'
I8
tp1157
a(S'no_ll'
I19
tp1158
a(S'w'
I731
tp1159
a(S'ch_no'
I1
tp1160
a(S'ch_tr'
I1
tp1161
a(S'ch_p2'
I1
tp1162
a(S'ch_p1'
I1
tp1163
a(S'w'
I1
tp1164
a(S'ch_no'
I1
tp1165
a(S'ch_tr'
I1
tp1166
a(S'ch_p2'
I1
tp1167
a(S'ch_p1'
I1
tp1168
a(S'w'
I14
tp1169
a(S'p1_tl'
I254
tp1170
a(S'w'
I5
tp1171
a(S'w'
I7
tp1172
a(S'no_vo'
I9
tp1173
a(S'w'
I1
tp1174
a(S'no_np'
I5
tp1175
a(S'no_ll'
I19
tp1176
a(S'w'
I698
tp1177
a(S'p1_vo'
I8
tp1178
a(S'w'
I1
tp1179
a(S'w'
I4
tp1180
a(S'w'
I8
tp1181
a(S'no_vo'
I7
tp1182
a(S'w'
I1
tp1183
a(S'no_ll'
I19
tp1184
a(S'w'
I733
tp1185
a(S'w'
I5
tp1186
a(S'w'
I7
tp1187
a(S'no_vo'
I5
tp1188
a(S'w'
I1
tp1189
a(S'no_ll'
I19
tp1190
a(S'w'
I707
tp1191
a(S'p1_vo'
I5
tp1192
a(S'w'
I1
tp1193
a(S'w'
I5
tp1194
a(S'w'
I7
tp1195
a(S'no_vo'
I3
tp1196
a(S'w'
I1
tp1197
a(S'w'
I1
tp1198
a(S'no_ll'
I19
tp1199
a(S'w'
I719
tp1200
a(S'p1_vo'
I2
tp1201
a(S'w'
I1
tp1202
a(S'w'
I5
tp1203
a(S'w'
I7
tp1204
a(S'no_vo'
I1
tp1205
a(S'w'
I1
tp1206
a(S'no_ll'
I19
tp1207
a(S'w'
I722
tp1208
a(S'p1_vo'
I5
tp1209
a(S'w'
I1
tp1210
a(S'w'
I4
tp1211
a(S'w'
I7
tp1212
a(S'no_vo'
I0
tp1213
a(S'w'
I1
tp1214
a(S'w'
I1
tp1215
a(S'no_ll'
I19
tp1216
a(S'w'
I733
tp1217
a(S'w'
I4
tp1218
a(S'p2_vo'
I7
tp1219
a(S'w'
I1
tp1220
a(S'w'
I8
tp1221
a(S'no_ll'
I19
tp1222
a(S'w'
I718
tp1223
a(S'ch_no'
I1
tp1224
a(S'ch_tr'
I1
tp1225
a(S'ch_p2'
I1
tp1226
a(S'ch_p1'
I1
tp1227
a(S'w'
I1
tp1228
a(S'ch_no'
I1
tp1229
a(S'ch_tr'
I1
tp1230
a(S'ch_p2'
I1
tp1231
a(S'ch_p1'
I1
tp1232
a(S'w'
I13
tp1233
a(S'p1_tl'
I29
tp1234
a(S'w'
I1
tp1235
a(S'p1_ll'
I19
tp1236
a(S'p1_th'
I1
tp1237
a(S'w'
I3
tp1238
a(S'p2_vo'
I8
tp1239
a(S'w'
I1
tp1240
a(S'w'
I4
tp1241
a(S'tr_lr'
I15
tp1242
a(S'w'
I1
tp1243
a(S'tr_ll'
I3
tp1244
a(S'w'
I4
tp1245
a(S'no_vo'
I9
tp1246
a(S'w'
I1
tp1247
a(S'no_ll'
I19
tp1248
a(S'w'
I694
tp1249
a(S'p1_vo'
I8
tp1250
a(S'w'
I1
tp1251
a(S'w'
I4
tp1252
a(S'p2_vo'
I7
tp1253
a(S'w'
I1
tp1254
a(S'w'
I7
tp1255
a(S'no_vo'
I7
tp1256
a(S'w'
I1
tp1257
a(S'w'
I1
tp1258
a(S'no_ll'
I19
tp1259
a(S'w'
I719
tp1260
a(S'w'
I3
tp1261
a(S'p2_vo'
I8
tp1262
a(S'w'
I1
tp1263
a(S'w'
I7
tp1264
a(S'no_vo'
I5
tp1265
a(S'w'
I1
tp1266
a(S'w'
I1
tp1267
a(S'no_ll'
I19
tp1268
a(S'w'
I735
tp1269
a(S'p1_vo'
I5
tp1270
a(S'w'
I1
tp1271
a(S'w'
I4
tp1272
a(S'p2_vo'
I7
tp1273
a(S'w'
I1
tp1274
a(S'w'
I7
tp1275
a(S'no_vo'
I3
tp1276
a(S'w'
I1
tp1277
a(S'no_ll'
I19
tp1278
a(S'w'
I706
tp1279
a(S'p1_vo'
I2
tp1280
a(S'w'
I1
tp1281
a(S'w'
I3
tp1282
a(S'p2_vo'
I8
tp1283
a(S'w'
I1
tp1284
a(S'w'
I7
tp1285
a(S'no_vo'
I1
tp1286
a(S'w'
I1
tp1287
a(S'w'
I1
tp1288
a(S'no_ll'
I19
tp1289
a(S'w'
I721
tp1290
a(S'p1_vo'
I5
tp1291
a(S'w'
I1
tp1292
a(S'w'
I4
tp1293
a(S'p2_vo'
I7
tp1294
a(S'w'
I1
tp1295
a(S'w'
I4
tp1296
a(S'tr_lr'
I0
tp1297
a(S'w'
I3
tp1298
a(S'no_vo'
I0
tp1299
a(S'w'
I1
tp1300
a(S'no_ll'
I19
tp1301
a(S'w'
I718
tp1302
a(S'w'
I3
tp1303
a(S'p2_vo'
I8
tp1304
a(S'w'
I1
tp1305
a(S'w'
I8
tp1306
a(S'w'
I1
tp1307
a(S'no_ll'
I19
tp1308
a(S'w'
I758
tp1309
a(S'p1_tl'
I254
tp1310
a(S'w'
I1
tp1311
a(S'p1_ll'
I19
tp1312
a(S'p1_th'
I0
tp1313
a(S'w'
I3
tp1314
a(S'p2_vo'
I7
tp1315
a(S'w'
I1
tp1316
a(S'w'
I7
tp1317
a(S'no_vo'
I9
tp1318
a(S'w'
I1
tp1319
a(S'no_np'
I1
tp1320
a(S'w'
I1
tp1321
a(S'no_ll'
I19
tp1322
a(S'w'
I683
tp1323
a(S'p1_vo'
I8
tp1324
a(S'w'
I1
tp1325
a(S'w'
I3
tp1326
a(S'p2_vo'
I6
tp1327
a(S'w'
I1
tp1328
a(S'w'
I7
tp1329
a(S'no_vo'
I7
tp1330
a(S'w'
I1
tp1331
a(S'w'
I1
tp1332
a(S'no_ll'
I19
tp1333
a(S'w'
I717
tp1334
a(S'w'
I5
tp1335
a(S'w'
I7
tp1336
a(S'no_vo'
I5
tp1337
a(S'w'
I1
tp1338
a(S'no_ll'
I19
tp1339
a(S'w'
I723
tp1340
a(S'w'
I3
tp1341
a(S'p2_vo'
I5
tp1342
a(S'w'
I1
tp1343
a(S'w'
I7
tp1344
a(S'no_vo'
I3
tp1345
a(S'w'
I1
tp1346
a(S'w'
I1
tp1347
a(S'no_ll'
I19
tp1348
a(S'w'
I734
tp1349
a(S'p1_vo'
I6
tp1350
a(S'w'
I1
tp1351
a(S'w'
I4
tp1352
a(S'w'
I7
tp1353
a(S'no_vo'
I1
tp1354
a(S'w'
I1
tp1355
a(S'w'
I1
tp1356
a(S'no_ll'
I19
tp1357
a(S'w'
I709
tp1358
a(S'p1_vo'
I4
tp1359
a(S'w'
I1
tp1360
a(S'w'
I3
tp1361
a(S'p2_vo'
I6
tp1362
a(S'w'
I1
tp1363
a(S'w'
I7
tp1364
a(S'no_vo'
I0
tp1365
a(S'w'
I1
tp1366
a(S'w'
I1
tp1367
a(S'no_ll'
I19
tp1368
a(S'w'
I716
tp1369
a(S'p1_vo'
I2
tp1370
a(S'w'
I1
tp1371
a(S'w'
I5
tp1372
a(S'w'
I8
tp1373
a(S'no_ll'
I19
tp1374
a(S'w'
I724
tp1375
a(S'ch_no'
I1
tp1376
a(S'ch_tr'
I1
tp1377
a(S'ch_p2'
I1
tp1378
a(S'ch_p1'
I1
tp1379
a(S'ch_no'
I1
tp1380
a(S'ch_tr'
I1
tp1381
a(S'ch_p2'
I1
tp1382
a(S'ch_p1'
I1
tp1383
a(S'w'
I14
tp1384
a(S'w'
I3
tp1385
a(S'p2_vo'
I5
tp1386
a(S'w'
I1
tp1387
a(S'w'
I4
tp1388
a(S'tr_lr'
I15
tp1389
a(S'w'
I1
tp1390
a(S'tr_ll'
I3
tp1391
a(S'w'
I4
tp1392
a(S'no_vo'
I9
tp1393
a(S'w'
I1
tp1394
a(S'no_np'
I5
tp1395
a(S'no_ll'
I19
tp1396
a(S'w'
I716
tp1397
a(S'p1_vo'
I5
tp1398
a(S'w'
I1
tp1399
a(S'w'
I5
tp1400
a(S'w'
I7
tp1401
a(S'no_vo'
I7
tp1402
a(S'w'
I1
tp1403
a(S'no_ll'
I19
tp1404
a(S'w'
I707
tp1405
a(S'w'
I3
tp1406
a(S'p2_vo'
I6
tp1407
a(S'w'
I1
tp1408
a(S'w'
I7
tp1409
a(S'no_vo'
I5
tp1410
a(S'w'
I1
tp1411
a(S'w'
I1
tp1412
a(S'no_ll'
I19
tp1413
a(S'w'
I719
tp1414
a(S'w'
I5
tp1415
a(S'w'
I7
tp1416
a(S'no_vo'
I3
tp1417
a(S'w'
I1
tp1418
a(S'no_ll'
I19
tp1419
a(S'w'
I722
tp1420
a(S'w'
I4
tp1421
a(S'p2_vo'
I5
tp1422
a(S'w'
I1
tp1423
a(S'w'
I7
tp1424
a(S'no_vo'
I1
tp1425
a(S'w'
I1
tp1426
a(S'w'
I1
tp1427
a(S'no_ll'
I19
tp1428
a(S'w'
I734
tp1429
a(S'w'
I5
tp1430
a(S'w'
I4
tp1431
a(S'tr_lr'
I0
tp1432
a(S'w'
I3
tp1433
a(S'no_vo'
I0
tp1434
a(S'w'
I1
tp1435
a(S'no_ll'
I19
tp1436
a(S'w'
I707
tp1437
a(S'w'
I4
tp1438
a(S'p2_vo'
I6
tp1439
a(S'w'
I1
tp1440
a(S'w'
I8
tp1441
a(S'no_ll'
I19
tp1442
a(S'w'
I744
tp1443
a(S'p1_tl'
I160
tp1444
a(S'w'
I5
tp1445
a(S'w'
I7
tp1446
a(S'no_vo'
I9
tp1447
a(S'w'
I1
tp1448
a(S'no_np'
I1
tp1449
a(S'w'
I1
tp1450
a(S'no_ll'
I19
tp1451
a(S'w'
I697
tp1452
a(S'p1_vo'
I8
tp1453
a(S'w'
I1
tp1454
a(S'w'
I4
tp1455
a(S'p2_vo'
I5
tp1456
a(S'w'
I1
tp1457
a(S'w'
I7
tp1458
a(S'no_vo'
I7
tp1459
a(S'w'
I1
tp1460
a(S'no_ll'
I19
tp1461
a(S'w'
I732
tp1462
a(S'w'
I4
tp1463
a(S'w'
I7
tp1464
a(S'no_vo'
I5
tp1465
a(S'w'
I1
tp1466
a(S'w'
I1
tp1467
a(S'no_ll'
I19
tp1468
a(S'w'
I708
tp1469
a(S'w'
I4
tp1470
a(S'p2_vo'
I6
tp1471
a(S'w'
I1
tp1472
a(S'w'
I7
tp1473
a(S'no_vo'
I3
tp1474
a(S'w'
I1
tp1475
a(S'no_ll'
I19
tp1476
a(S'w'
I719
tp1477
a(S'w'
I5
tp1478
a(S'w'
I7
tp1479
a(S'no_vo'
I1
tp1480
a(S'w'
I1
tp1481
a(S'no_ll'
I19
tp1482
a(S'w'
I724
tp1483
a(S'w'
I4
tp1484
a(S'p2_vo'
I5
tp1485
a(S'w'
I1
tp1486
a(S'w'
I7
tp1487
a(S'no_vo'
I0
tp1488
a(S'w'
I1
tp1489
a(S'no_ll'
I19
tp1490
a(S'w'
I718
tp1491
a(S'w'
I4
tp1492
a(S'w'
I8
tp1493
a(S'w'
I1
tp1494
a(S'no_ll'
I19
tp1495
a(S'w'
I725
tp1496
a(S'ch_no'
I1
tp1497
a(S'ch_tr'
I1
tp1498
a(S'ch_p2'
I1
tp1499
a(S'ch_p1'
I1
tp1500
a(S'w'
I1
tp1501
a(S'ch_no'
I1
tp1502
a(S'ch_tr'
I1
tp1503
a(S'ch_p2'
I1
tp1504
a(S'ch_p1'
I1
tp1505
a(S'w'
I13
tp1506
a(S'w'
I4
tp1507
a(S'p2_vo'
I6
tp1508
a(S'w'
I1
tp1509
a(S'w'
I3
tp1510
a(S'tr_lr'
I15
tp1511
a(S'w'
I2
tp1512
a(S'tr_ll'
I3
tp1513
a(S'w'
I3
tp1514
a(S'no_vo'
I9
tp1515
a(S'w'
I1
tp1516
a(S'no_np'
I5
tp1517
a(S'w'
I1
tp1518
a(S'no_ll'
I19
tp1519
a(S'w'
I701
tp1520
a(S'w'
I4
tp1521
a(S'w'
I7
tp1522
a(S'no_vo'
I7
tp1523
a(S'w'
I1
tp1524
a(S'w'
I1
tp1525
a(S'no_ll'
I19
tp1526
a(S'w'
I722
tp1527
a(S'w'
I4
tp1528
a(S'p2_vo'
I5
tp1529
a(S'w'
I1
tp1530
a(S'w'
I7
tp1531
a(S'no_vo'
I5
tp1532
a(S'w'
I1
tp1533
a(S'no_ll'
I19
tp1534
a(S'w'
I719
tp1535
a(S'w'
I5
tp1536
a(S'w'
I7
tp1537
a(S'no_vo'
I3
tp1538
a(S'w'
I1
tp1539
a(S'no_ll'
I19
tp1540
a(S'w'
I723
tp1541
a(S'w'
I3
tp1542
a(S'p2_vo'
I6
tp1543
a(S'w'
I1
tp1544
a(S'w'
I7
tp1545
a(S'no_vo'
I1
tp1546
a(S'w'
I1
tp1547
a(S'w'
I1
tp1548
a(S'no_ll'
I19
tp1549
a(S'w'
I735
tp1550
a(S'w'
I4
tp1551
a(S'w'
I4
tp1552
a(S'tr_lr'
I0
tp1553
a(S'w'
I3
tp1554
a(S'no_vo'
I0
tp1555
a(S'w'
I1
tp1556
a(S'w'
I1
tp1557
a(S'no_ll'
I19
tp1558
a(S'w'
I706
tp1559
a(S'w'
I4
tp1560
a(S'p2_vo'
I5
tp1561
a(S'w'
I1
tp1562
a(S'w'
I8
tp1563
a(S'no_ll'
I19
tp1564
a(S'w'
I743
tp1565
a(S'ch_no'
I1
tp1566
a(S'ch_tr'
I1
tp1567
a(S'ch_p2'
I1
tp1568
a(S'ch_p1'
I1
tp1569
a(S'w'
I1
tp1570
a(S'ch_no'
I1
tp1571
a(S'ch_tr'
I1
tp1572
a(S'ch_p2'
I1
tp1573
a(S'ch_p1'
I1
tp1574
a(S'w'
I14
tp1575
a(S'w'
I5
tp1576
a(S'w'
I4
tp1577
a(S'tr_lr'
I15
tp1578
a(S'w'
I1
tp1579
a(S'tr_ll'
I3
tp1580
a(S'w'
I3
tp1581
a(S'no_vo'
I9
tp1582
a(S'w'
I1
tp1583
a(S'w'
I1
tp1584
a(S'no_ll'
I19
tp1585
a(S'w'
I683
tp1586
a(S'w'
I4
tp1587
a(S'p2_vo'
I6
tp1588
a(S'w'
I1
tp1589
a(S'w'
I7
tp1590
a(S'no_vo'
I7
tp1591
a(S'w'
I1
tp1592
a(S'w'
I1
tp1593
a(S'no_ll'
I19
tp1594
a(S'w'
I733
tp1595
a(S'p1_tl'
I159
tp1596
a(S'w'
I5
tp1597
a(S'w'
I7
tp1598
a(S'no_vo'
I5
tp1599
a(S'w'
I1
tp1600
a(S'no_ll'
I19
tp1601
a(S'w'
I708
tp1602
a(S'p1_tl'
I158
tp1603
a(S'w'
I4
tp1604
a(S'p2_vo'
I5
tp1605
a(S'w'
I1
tp1606
a(S'w'
I7
tp1607
a(S'no_vo'
I3
tp1608
a(S'w'
I1
tp1609
a(S'w'
I1
tp1610
a(S'no_ll'
I19
tp1611
a(S'w'
I718
tp1612
a(S'p1_tl'
I159
tp1613
a(S'w'
I5
tp1614
a(S'w'
I7
tp1615
a(S'no_vo'
I1
tp1616
a(S'w'
I1
tp1617
a(S'w'
I1
tp1618
a(S'no_ll'
I19
tp1619
a(S'w'
I723
tp1620
a(S'p1_tl'
I160
tp1621
a(S'w'
I4
tp1622
a(S'p2_vo'
I6
tp1623
a(S'w'
I1
tp1624
a(S'w'
I4
tp1625
a(S'tr_lr'
I0
tp1626
a(S'w'
I3
tp1627
a(S'no_vo'
I0
tp1628
a(S'w'
I1
tp1629
a(S'no_ll'
I19
tp1630
a(S'w'
I732
tp1631
a(S'p1_vo'
I7
tp1632
a(S'w'
I2
tp1633
a(S'w'
I4
tp1634
a(S'w'
I8
tp1635
a(S'w'
I1
tp1636
a(S'no_ll'
I19
tp1637
a(S'w'
I716
tp1638
a(S'p1_vo'
I8
tp1639
a(S'w'
I1
tp1640
a(S'p1_tl'
I161
tp1641
a(S'w'
I3
tp1642
a(S'p2_vo'
I5
tp1643
a(S'w'
I1
tp1644
a(S'w'
I4
tp1645
a(S'tr_lr'
I15
tp1646
a(S'w'
I1
tp1647
a(S'tr_ll'
I3
tp1648
a(S'w'
I5
tp1649
a(S'no_ll'
I19
tp1650
a(S'w'
I708
tp1651
a(S'p1_vo'
I7
tp1652
a(S'w'
I1
tp1653
a(S'p1_tl'
I162
tp1654
a(S'w'
I5
tp1655
a(S'w'
I8
tp1656
a(S'w'
I1
tp1657
a(S'no_ll'
I19
tp1658
a(S'w'
I719
tp1659
a(S'p1_vo'
I8
tp1660
a(S'w'
I1
tp1661
a(S'p1_tl'
I161
tp1662
a(S'w'
I4
tp1663
a(S'p2_vo'
I6
tp1664
a(S'w'
I1
tp1665
a(S'w'
I8
tp1666
a(S'no_ll'
I19
tp1667
a(S'w'
I732
tp1668
a(S'p1_vo'
I7
tp1669
a(S'w'
I1
tp1670
a(S'p1_tl'
I160
tp1671
a(S'w'
I5
tp1672
a(S'w'
I8
tp1673
a(S'no_ll'
I19
tp1674
a(S'w'
I707
tp1675
a(S'p1_vo'
I8
tp1676
a(S'w'
I1
tp1677
a(S'w'
I4
tp1678
a(S'p2_vo'
I5
tp1679
a(S'w'
I1
tp1680
a(S'w'
I8
tp1681
a(S'w'
I1
tp1682
a(S'no_ll'
I19
tp1683
a(S'w'
I719
tp1684
a(S'p1_vo'
I7
tp1685
a(S'w'
I1
tp1686
a(S'p1_tl'
I159
tp1687
a(S'w'
I5
tp1688
a(S'w'
I4
tp1689
a(S'tr_lr'
I0
tp1690
a(S'w'
I4
tp1691
a(S'w'
I1
tp1692
a(S'no_ll'
I19
tp1693
a(S'w'
I719
tp1694
a(S'p1_vo'
I8
tp1695
a(S'w'
I1
tp1696
a(S'p1_tl'
I158
tp1697
a(S'w'
I4
tp1698
a(S'p2_vo'
I6
tp1699
a(S'w'
I1
tp1700
a(S'w'
I8
tp1701
a(S'w'
I1
tp1702
a(S'no_ll'
I19
tp1703
a(S'w'
I759
tp1704
a(S'ch_no'
I1
tp1705
a(S'ch_tr'
I1
tp1706
a(S'ch_p2'
I1
tp1707
a(S'ch_p1'
I1
tp1708
a(S'w'
I1
tp1709
a(S'ch_no'
I1
tp1710
a(S'ch_tr'
I1
tp1711
a(S'ch_p2'
I1
tp1712
a(S'ch_p1'
I1
tp1713
a(S'w'
I12
tp1714
a(S'p1_vo'
I7
tp1715
a(S'w'
I1
tp1716
a(S'p1_tl'
I160
tp1717
a(S'w'
I4
tp1718
a(S'p2_vo'
I5
tp1719
a(S'w'
I1
tp1720
a(S'p2_tl'
I171
tp1721
a(S'w'
I4
tp1722
a(S'tr_lr'
I15
tp1723
a(S'tr_tl'
I124
tp1724
a(S'w'
I1
tp1725
a(S'tr_ll'
I3
tp1726
a(S'w'
I3
tp1727
a(S'no_vo'
I9
tp1728
a(S'w'
I2
tp1729
a(S'no_np'
I1
tp1730
a(S'no_ll'
I19
tp1731
a(S'w'
I667
tp1732
a(S'p1_vo'
I6
tp1733
a(S'w'
I1
tp1734
a(S'p1_tl'
I157
tp1735
a(S'w'
I3
tp1736
a(S'p2_vo'
I8
tp1737
a(S'w'
I1
tp1738
a(S'w'
I7
tp1739
a(S'no_vo'
I7
tp1740
a(S'w'
I1
tp1741
a(S'w'
I1
tp1742
a(S'no_ll'
I19
tp1743
a(S'w'
I717
tp1744
a(S'p1_tl'
I154
tp1745
a(S'w'
I5
tp1746
a(S'w'
I7
tp1747
a(S'no_vo'
I5
tp1748
a(S'w'
I1
tp1749
a(S'no_ll'
I19
tp1750
a(S'w'
I722
tp1751
a(S'p1_vo'
I5
tp1752
a(S'w'
I1
tp1753
a(S'p1_tl'
I157
tp1754
a(S'w'
I4
tp1755
a(S'w'
I7
tp1756
a(S'no_vo'
I3
tp1757
a(S'w'
I1
tp1758
a(S'w'
I1
tp1759
a(S'no_ll'
I19
tp1760
a(S'w'
I734
tp1761
a(S'p1_tl'
I160
tp1762
a(S'w'
I4
tp1763
a(S'p2_vo'
I6
tp1764
a(S'w'
I1
tp1765
a(S'w'
I7
tp1766
a(S'no_vo'
I1
tp1767
a(S'w'
I1
tp1768
a(S'no_ll'
I19
tp1769
a(S'w'
I709
tp1770
a(S'p1_vo'
I6
tp1771
a(S'w'
I1
tp1772
a(S'p1_tl'
I163
tp1773
a(S'w'
I4
tp1774
a(S'p2_vo'
I4
tp1775
a(S'w'
I1
tp1776
a(S'w'
I4
tp1777
a(S'tr_lr'
I0
tp1778
a(S'w'
I3
tp1779
a(S'no_vo'
I0
tp1780
a(S'w'
I1
tp1781
a(S'w'
I1
tp1782
a(S'no_ll'
I19
tp1783
a(S'w'
I717
tp1784
a(S'p1_tl'
I166
tp1785
a(S'w'
I4
tp1786
a(S'p2_vo'
I2
tp1787
a(S'w'
I1
tp1788
a(S'w'
I8
tp1789
a(S'no_ll'
I19
tp1790
a(S'w'
I726
tp1791
a(S'p1_vo'
I5
tp1792
a(S'w'
I1
tp1793
a(S'p1_tl'
I163
tp1794
a(S'w'
I4
tp1795
a(S'w'
I8
tp1796
a(S'w'
I1
tp1797
a(S'no_ll'
I19
tp1798
a(S'w'
I728
tp1799
a(S'p1_tl'
I160
tp1800
a(S'w'
I4
tp1801
a(S'p2_vo'
I5
tp1802
a(S'w'
I1
tp1803
a(S'w'
I8
tp1804
a(S'no_ll'
I19
tp1805
a(S'w'
I705
tp1806
a(S'p1_vo'
I6
tp1807
a(S'w'
I1
tp1808
a(S'p1_tl'
I157
tp1809
a(S'w'
I4
tp1810
a(S'w'
I8
tp1811
a(S'w'
I1
tp1812
a(S'no_ll'
I19
tp1813
a(S'w'
I719
tp1814
a(S'p1_tl'
I154
tp1815
a(S'w'
I4
tp1816
a(S'w'
I8
tp1817
a(S'w'
I1
tp1818
a(S'no_ll'
I19
tp1819
a(S'w'
I721
tp1820
a(S'p1_vo'
I5
tp1821
a(S'w'
I1
tp1822
a(S'p1_tl'
I157
tp1823
a(S'w'
I5
tp1824
a(S'w'
I8
tp1825
a(S'no_ll'
I19
tp1826
a(S'w'
I735
tp1827
a(S'p1_tl'
I160
tp1828
a(S'w'
I4
tp1829
a(S'w'
I8
tp1830
a(S'w'
I1
tp1831
a(S'no_ll'
I19
tp1832
a(S'w'
I706
tp1833
a(S'p1_vo'
I6
tp1834
a(S'w'
I1
tp1835
a(S'p1_tl'
I163
tp1836
a(S'w'
I4
tp1837
a(S'w'
I8
tp1838
a(S'w'
I1
tp1839
a(S'no_ll'
I19
tp1840
a(S'w'
I732
tp1841
a(S'ch_no'
I1
tp1842
a(S'ch_tr'
I1
tp1843
a(S'ch_p2'
I1
tp1844
a(S'ch_p1'
I1
tp1845
a(S'w'
I1
tp1846
a(S'ch_no'
I1
tp1847
a(S'ch_tr'
I1
tp1848
a(S'ch_p2'
I1
tp1849
a(S'ch_p1'
I1
tp1850
a(S'w'
I13
tp1851
a(S'p1_tl'
I166
tp1852
a(S'w'
I5
tp1853
a(S'p2_tl'
I124
tp1854
a(S'w'
I3
tp1855
a(S'tr_lr'
I15
tp1856
a(S'w'
I1
tp1857
a(S'tr_tl'
I83
tp1858
a(S'w'
I1
tp1859
a(S'tr_ll'
I3
tp1860
a(S'w'
I3
tp1861
a(S'no_vo'
I9
tp1862
a(S'w'
I1
tp1863
a(S'no_np'
I5
tp1864
a(S'w'
I1
tp1865
a(S'no_ll'
I19
tp1866
a(S'w'
I696
tp1867
a(S'p1_vo'
I5
tp1868
a(S'w'
I1
tp1869
a(S'p1_tl'
I163
tp1870
a(S'w'
I4
tp1871
a(S'p2_vo'
I8
tp1872
a(S'w'
I1
tp1873
a(S'w'
I7
tp1874
a(S'no_vo'
I7
tp1875
a(S'w'
I1
tp1876
a(S'no_ll'
I19
tp1877
a(S'w'
I731
tp1878
a(S'p1_tl'
I160
tp1879
a(S'w'
I5
tp1880
a(S'w'
I7
tp1881
a(S'no_vo'
I5
tp1882
a(S'w'
I1
tp1883
a(S'no_ll'
I19
tp1884
a(S'w'
I708
tp1885
a(S'p1_vo'
I6
tp1886
a(S'w'
I1
tp1887
a(S'p1_tl'
I157
tp1888
a(S'w'
I5
tp1889
a(S'w'
I7
tp1890
a(S'no_vo'
I3
tp1891
a(S'w'
I1
tp1892
a(S'no_ll'
I19
tp1893
a(S'w'
I721
tp1894
a(S'p1_tl'
I154
tp1895
a(S'w'
I3
tp1896
a(S'p2_vo'
I6
tp1897
a(S'w'
I1
tp1898
a(S'w'
I7
tp1899
a(S'no_vo'
I1
tp1900
a(S'w'
I1
tp1901
a(S'w'
I1
tp1902
a(S'no_ll'
I19
tp1903
a(S'w'
I723
tp1904
a(S'p1_vo'
I5
tp1905
a(S'w'
I1
tp1906
a(S'p1_tl'
I157
tp1907
a(S'w'
I3
tp1908
a(S'p2_vo'
I4
tp1909
a(S'w'
I1
tp1910
a(S'w'
I4
tp1911
a(S'tr_lr'
I0
tp1912
a(S'w'
I3
tp1913
a(S'no_vo'
I0
tp1914
a(S'w'
I1
tp1915
a(S'w'
I1
tp1916
a(S'no_ll'
I19
tp1917
a(S'w'
I717
tp1918
a(S'p1_tl'
I160
tp1919
a(S'w'
I4
tp1920
a(S'p2_vo'
I2
tp1921
a(S'w'
I1
tp1922
a(S'w'
I8
tp1923
a(S'no_ll'
I19
tp1924
a(S'w'
I726
tp1925
a(S'p1_vo'
I6
tp1926
a(S'w'
I1
tp1927
a(S'p1_tl'
I163
tp1928
a(S'w'
I5
tp1929
a(S'w'
I8
tp1930
a(S'no_ll'
I19
tp1931
a(S'w'
I715
tp1932
a(S'p1_tl'
I166
tp1933
a(S'w'
I3
tp1934
a(S'p2_vo'
I5
tp1935
a(S'w'
I1
tp1936
a(S'w'
I8
tp1937
a(S'w'
I1
tp1938
a(S'no_ll'
I19
tp1939
a(S'w'
I718
tp1940
a(S'p1_vo'
I5
tp1941
a(S'w'
I1
tp1942
a(S'p1_tl'
I163
tp1943
a(S'w'
I4
tp1944
a(S'w'
I8
tp1945
a(S'w'
I1
tp1946
a(S'no_ll'
I19
tp1947
a(S'w'
I719
tp1948
a(S'p1_tl'
I160
tp1949
a(S'w'
I4
tp1950
a(S'w'
I8
tp1951
a(S'w'
I1
tp1952
a(S'no_ll'
I19
tp1953
a(S'w'
I721
tp1954
a(S'p1_vo'
I6
tp1955
a(S'w'
I1
tp1956
a(S'p1_tl'
I157
tp1957
a(S'w'
I5
tp1958
a(S'w'
I8
tp1959
a(S'w'
I1
tp1960
a(S'no_ll'
I19
tp1961
a(S'w'
I734
tp1962
a(S'p1_tl'
I154
tp1963
a(S'w'
I5
tp1964
a(S'w'
I8
tp1965
a(S'w'
I1
tp1966
a(S'no_ll'
I19
tp1967
a(S'w'
I705
tp1968
a(S'p1_vo'
I5
tp1969
a(S'w'
I1
tp1970
a(S'p1_tl'
I157
tp1971
a(S'w'
I5
tp1972
a(S'w'
I8
tp1973
a(S'no_ll'
I19
tp1974
a(S'w'
I737
tp1975
a(S'ch_no'
I1
tp1976
a(S'ch_tr'
I1
tp1977
a(S'ch_p2'
I1
tp1978
a(S'ch_p1'
I1
tp1979
a(S'ch_no'
I1
tp1980
a(S'ch_tr'
I1
tp1981
a(S'ch_p2'
I1
tp1982
a(S'ch_p1'
I1
tp1983
a(S'w'
I13
tp1984
a(S'p1_vo'
I0
tp1985
a(S'w'
I1
tp1986
a(S'w'
I4
tp1987
a(S'p2_tl'
I83
tp1988
a(S'w'
I4
tp1989
a(S'tr_lr'
I15
tp1990
a(S'w'
I1
tp1991
a(S'tr_tl'
I64
tp1992
a(S'tr_ll'
I3
tp1993
a(S'w'
I4
tp1994
a(S'no_vo'
I9
tp1995
a(S'w'
I1
tp1996
a(S'no_ll'
I19
tp1997
a(S'w'
I691
tp1998
a(S'w'
I4
tp1999
a(S'p2_vo'
I8
tp2000
a(S'w'
I1
tp2001
a(S'w'
I7
tp2002
a(S'no_vo'
I7
tp2003
a(S'w'
I1
tp2004
a(S'no_ll'
I19
tp2005
a(S'w'
I731
tp2006
a(S'w'
I5
tp2007
a(S'w'
I7
tp2008
a(S'no_vo'
I5
tp2009
a(S'w'
I1
tp2010
a(S'w'
I1
tp2011
a(S'no_ll'
I19
tp2012
a(S'w'
I708
tp2013
a(S'w'
I4
tp2014
a(S'w'
I7
tp2015
a(S'no_vo'
I3
tp2016
a(S'w'
I1
tp2017
a(S'w'
I1
tp2018
a(S'no_ll'
I19
tp2019
a(S'w'
I721
tp2020
a(S'w'
I3
tp2021
a(S'p2_vo'
I6
tp2022
a(S'w'
I1
tp2023
a(S'w'
I7
tp2024
a(S'no_vo'
I1
tp2025
a(S'w'
I1
tp2026
a(S'w'
I1
tp2027
a(S'no_ll'
I19
tp2028
a(S'w'
I724
tp2029
a(S'w'
I3
tp2030
a(S'p2_vo'
I4
tp2031
a(S'w'
I1
tp2032
a(S'w'
I4
tp2033
a(S'tr_lr'
I0
tp2034
a(S'w'
I3
tp2035
a(S'no_vo'
I0
tp2036
a(S'w'
I1
tp2037
a(S'w'
I1
tp2038
a(S'no_ll'
I19
tp2039
a(S'w'
I731
tp2040
a(S'w'
I4
tp2041
a(S'p2_vo'
I2
tp2042
a(S'w'
I1
tp2043
a(S'w'
I8
tp2044
a(S'no_ll'
I19
tp2045
a(S'w'
I713
tp2046
a(S'w'
I5
tp2047
a(S'w'
I8
tp2048
a(S'no_ll'
I19
tp2049
a(S'w'
I715
tp2050
a(S'w'
I3
tp2051
a(S'p2_vo'
I5
tp2052
a(S'w'
I1
tp2053
a(S'w'
I8
tp2054
a(S'w'
I1
tp2055
a(S'no_ll'
I19
tp2056
a(S'w'
I719
tp2057
a(S'w'
I4
tp2058
a(S'w'
I8
tp2059
a(S'w'
I1
tp2060
a(S'no_ll'
I19
tp2061
a(S'w'
I733
tp2062
a(S'w'
I5
tp2063
a(S'w'
I8
tp2064
a(S'no_ll'
I19
tp2065
a(S'w'
I708
tp2066
a(S'w'
I5
tp2067
a(S'w'
I8
tp2068
a(S'w'
I1
tp2069
a(S'no_ll'
I19
tp2070
a(S'w'
I720
tp2071
a(S'w'
I5
tp2072
a(S'w'
I8
tp2073
a(S'no_ll'
I19
tp2074
a(S'w'
I721
tp2075
a(S'w'
I5
tp2076
a(S'w'
I8
tp2077
a(S'no_ll'
I19
tp2078
a(S'w'
I779
tp2079
a(S'ch_no'
I1
tp2080
a(S'ch_tr'
I1
tp2081
a(S'ch_p2'
I1
tp2082
a(S'ch_p1'
I1
tp2083
a(S'w'
I1
tp2084
a(S'ch_no'
I1
tp2085
a(S'ch_tr'
I1
tp2086
a(S'ch_p2'
I1
tp2087
a(S'ch_p1'
I1
tp2088
a(S'w'
I12
tp2089
a(S'p1_vo'
I5
tp2090
a(S'w'
I1
tp2091
a(S'p1_tl'
I160
tp2092
a(S'w'
I5
tp2093
a(S'p2_tl'
I254
tp2094
a(S'w'
I1
tp2095
a(S'p2_ll'
I19
tp2096
a(S'p2_th'
I0
tp2097
a(S'w'
I3
tp2098
a(S'tr_lr'
I15
tp2099
a(S'w'
I1
tp2100
a(S'tr_tl'
I124
tp2101
a(S'tr_ll'
I3
tp2102
a(S'w'
I4
tp2103
a(S'no_vo'
I9
tp2104
a(S'w'
I1
tp2105
a(S'no_np'
I1
tp2106
a(S'no_ll'
I19
tp2107
a(S'w'
I651
tp2108
a(S'p1_vo'
I8
tp2109
a(S'w'
I1
tp2110
a(S'w'
I4
tp2111
a(S'p2_vo'
I8
tp2112
a(S'w'
I1
tp2113
a(S'w'
I4
tp2114
a(S'tr_tl'
I121
tp2115
a(S'w'
I1
tp2116
a(S'tr_ll'
I3
tp2117
a(S'w'
I3
tp2118
a(S'no_vo'
I7
tp2119
a(S'w'
I1
tp2120
a(S'w'
I1
tp2121
a(S'no_ll'
I19
tp2122
a(S'w'
I716
tp2123
a(S'w'
I5
tp2124
a(S'w'
I4
tp2125
a(S'tr_tl'
I118
tp2126
a(S'w'
I1
tp2127
a(S'tr_ll'
I3
tp2128
a(S'w'
I3
tp2129
a(S'no_vo'
I5
tp2130
a(S'w'
I1
tp2131
a(S'w'
I1
tp2132
a(S'no_ll'
I19
tp2133
a(S'w'
I719
tp2134
a(S'w'
I4
tp2135
a(S'w'
I5
tp2136
a(S'tr_tl'
I121
tp2137
a(S'tr_ll'
I3
tp2138
a(S'w'
I4
tp2139
a(S'no_vo'
I3
tp2140
a(S'w'
I1
tp2141
a(S'no_ll'
I19
tp2142
a(S'w'
I735
tp2143
a(S'w'
I4
tp2144
a(S'p2_vo'
I2
tp2145
a(S'w'
I1
tp2146
a(S'w'
I4
tp2147
a(S'tr_tl'
I124
tp2148
a(S'w'
I1
tp2149
a(S'tr_ll'
I3
tp2150
a(S'w'
I3
tp2151
a(S'no_vo'
I1
tp2152
a(S'w'
I1
tp2153
a(S'w'
I1
tp2154
a(S'no_ll'
I19
tp2155
a(S'w'
I705
tp2156
a(S'w'
I3
tp2157
a(S'p2_vo'
I5
tp2158
a(S'w'
I1
tp2159
a(S'w'
I5
tp2160
a(S'tr_tl'
I127
tp2161
a(S'w'
I1
tp2162
a(S'tr_ll'
I3
tp2163
a(S'w'
I3
tp2164
a(S'no_vo'
I0
tp2165
a(S'w'
I1
tp2166
a(S'w'
I1
tp2167
a(S'no_ll'
I19
tp2168
a(S'w'
I717
tp2169
a(S'w'
I5
tp2170
a(S'w'
I4
tp2171
a(S'tr_tl'
I130
tp2172
a(S'w'
I1
tp2173
a(S'tr_ll'
I3
tp2174
a(S'w'
I4
tp2175
a(S'w'
I1
tp2176
a(S'no_ll'
I19
tp2177
a(S'w'
I719
tp2178
a(S'w'
I5
tp2179
a(S'w'
I4
tp2180
a(S'tr_tl'
I127
tp2181
a(S'w'
I1
tp2182
a(S'tr_ll'
I3
tp2183
a(S'w'
I4
tp2184
a(S'w'
I1
tp2185
a(S'no_ll'
I19
tp2186
a(S'w'
I733
tp2187
a(S'w'
I4
tp2188
a(S'w'
I5
tp2189
a(S'tr_tl'
I124
tp2190
a(S'tr_ll'
I3
tp2191
a(S'w'
I5
tp2192
a(S'no_ll'
I19
tp2193
a(S'w'
I714
tp2194
a(S'p1_vo'
I2
tp2195
a(S'w'
I1
tp2196
a(S'w'
I5
tp2197
a(S'p2_tl'
I64
tp2198
a(S'w'
I1
tp2199
a(S'p2_ll'
I19
tp2200
a(S'p2_th'
I1
tp2201
a(S'w'
I4
tp2202
a(S'tr_tl'
I121
tp2203
a(S'tr_ll'
I3
tp2204
a(S'w'
I5
tp2205
a(S'no_ll'
I19
tp2206
a(S'w'
I710
tp2207
a(S'p1_vo'
I5
tp2208
a(S'w'
I1
tp2209
a(S'w'
I4
tp2210
a(S'p2_vo'
I8
tp2211
a(S'w'
I1
tp2212
a(S'w'
I4
tp2213
a(S'tr_tl'
I118
tp2214
a(S'w'
I1
tp2215
a(S'tr_ll'
I3
tp2216
a(S'w'
I4
tp2217
a(S'w'
I1
tp2218
a(S'no_ll'
I19
tp2219
a(S'w'
I715
tp2220
a(S'w'
I5
tp2221
a(S'w'
I5
tp2222
a(S'tr_tl'
I121
tp2223
a(S'tr_ll'
I3
tp2224
a(S'w'
I5
tp2225
a(S'no_ll'
I19
tp2226
a(S'w'
I733
tp2227
a(S'w'
I5
tp2228
a(S'w'
I4
tp2229
a(S'tr_tl'
I124
tp2230
a(S'w'
I1
tp2231
a(S'tr_ll'
I3
tp2232
a(S'w'
I4
tp2233
a(S'w'
I1
tp2234
a(S'no_ll'
I19
tp2235
a(S'w'
I707
tp2236
a(S'w'
I3
tp2237
a(S'p2_vo'
I2
tp2238
a(S'w'
I1
tp2239
a(S'w'
I5
tp2240
a(S'tr_tl'
I127
tp2241
a(S'tr_ll'
I3
tp2242
a(S'w'
I5
tp2243
a(S'no_ll'
I19
tp2244
a(S'w'
I719
tp2245
a(S'w'
I4
tp2246
a(S'p2_vo'
I5
tp2247
a(S'w'
I1
tp2248
a(S'w'
I5
tp2249
a(S'tr_tl'
I130
tp2250
a(S'tr_ll'
I3
tp2251
a(S'w'
I5
tp2252
a(S'no_ll'
I19
tp2253
a(S'w'
I718
tp2254
a(S'w'
I4
tp2255
a(S'w'
I5
tp2256
a(S'tr_tl'
I127
tp2257
a(S'tr_ll'
I3
tp2258
a(S'w'
I5
tp2259
a(S'no_ll'
I19
tp2260
a(S'w'
I733
tp2261
a(S'w'
I5
tp2262
a(S'w'
I4
tp2263
a(S'tr_tl'
I124
tp2264
a(S'w'
I1
tp2265
a(S'tr_ll'
I3
tp2266
a(S'w'
I5
tp2267
a(S'no_ll'
I19
tp2268
a(S'w'
I705
tp2269
a(S'w'
I5
tp2270
a(S'w'
I4
tp2271
a(S'tr_tl'
I121
tp2272
a(S'w'
I1
tp2273
a(S'tr_ll'
I3
tp2274
a(S'w'
I4
tp2275
a(S'w'
I1
tp2276
a(S'no_ll'
I19
tp2277
a(S'w'
I732
tp2278
a(S'p1_vo'
I0
tp2279
a(S'w'
I1
tp2280
a(S'w'
I5
tp2281
a(S'w'
I4
tp2282
a(S'tr_tl'
I118
tp2283
a(S'w'
I1
tp2284
a(S'tr_ll'
I3
tp2285
a(S'w'
I4
tp2286
a(S'w'
I1
tp2287
a(S'no_ll'
I19
tp2288
a(S'w'
I720
tp2289
a(S'ch_no'
I1
tp2290
a(S'ch_tr'
I1
tp2291
a(S'ch_p2'
I1
tp2292
a(S'ch_p1'
I1
tp2293
a(S'w'
I1
tp2294
a(S'ch_no'
I1
tp2295
a(S'ch_tr'
I1
tp2296
a(S'ch_p2'
I1
tp2297
a(S'ch_p1'
I1
tp2298
a(S'w'
I13
tp2299
a(S'p1_vo'
I5
tp2300
a(S'w'
I1
tp2301
a(S'w'
I5
tp2302
a(S'p2_tl'
I171
tp2303
a(S'w'
I4
tp2304
a(S'tr_tl'
I121
tp2305
a(S'w'
I1
tp2306
a(S'tr_ll'
I3
tp2307
a(S'w'
I3
tp2308
a(S'no_vo'
I9
tp2309
a(S'w'
I1
tp2310
a(S'no_np'
I5
tp2311
a(S'w'
I1
tp2312
a(S'no_ll'
I19
tp2313
a(S'w'
I692
tp2314
a(S'p1_vo'
I8
tp2315
a(S'w'
I1
tp2316
a(S'w'
I4
tp2317
a(S'p2_vo'
I8
tp2318
a(S'w'
I1
tp2319
a(S'w'
I4
tp2320
a(S'tr_tl'
I124
tp2321
a(S'w'
I1
tp2322
a(S'tr_ll'
I3
tp2323
a(S'w'
I3
tp2324
a(S'no_vo'
I7
tp2325
a(S'w'
I1
tp2326
a(S'w'
I1
tp2327
a(S'no_ll'
I19
tp2328
a(S'w'
I716
tp2329
a(S'w'
I5
tp2330
a(S'w'
I4
tp2331
a(S'tr_tl'
I127
tp2332
a(S'w'
I1
tp2333
a(S'tr_ll'
I3
tp2334
a(S'w'
I3
tp2335
a(S'no_vo'
I5
tp2336
a(S'w'
I1
tp2337
a(S'w'
I1
tp2338
a(S'no_ll'
I19
tp2339
a(S'w'
I719
tp2340
a(S'w'
I5
tp2341
a(S'w'
I4
tp2342
a(S'tr_tl'
I130
tp2343
a(S'w'
I1
tp2344
a(S'tr_ll'
I3
tp2345
a(S'w'
I3
tp2346
a(S'no_vo'
I3
tp2347
a(S'w'
I1
tp2348
a(S'w'
I1
tp2349
a(S'no_ll'
I19
tp2350
a(S'w'
I720
tp2351
a(S'w'
I4
tp2352
a(S'p2_vo'
I2
tp2353
a(S'w'
I1
tp2354
a(S'w'
I4
tp2355
a(S'tr_tl'
I127
tp2356
a(S'w'
I1
tp2357
a(S'tr_ll'
I3
tp2358
a(S'w'
I3
tp2359
a(S'no_vo'
I1
tp2360
a(S'w'
I1
tp2361
a(S'w'
I1
tp2362
a(S'no_ll'
I19
tp2363
a(S'w'
I719
tp2364
a(S'w'
I3
tp2365
a(S'p2_vo'
I5
tp2366
a(S'w'
I1
tp2367
a(S'w'
I5
tp2368
a(S'tr_tl'
I124
tp2369
a(S'w'
I1
tp2370
a(S'tr_ll'
I3
tp2371
a(S'w'
I3
tp2372
a(S'no_vo'
I0
tp2373
a(S'w'
I1
tp2374
a(S'w'
I1
tp2375
a(S'no_ll'
I19
tp2376
a(S'w'
I717
tp2377
a(S'w'
I5
tp2378
a(S'w'
I4
tp2379
a(S'tr_tl'
I121
tp2380
a(S'w'
I1
tp2381
a(S'tr_ll'
I3
tp2382
a(S'w'
I4
tp2383
a(S'w'
I1
tp2384
a(S'no_ll'
I19
tp2385
a(S'w'
I733
tp2386
a(S'w'
I5
tp2387
a(S'w'
I4
tp2388
a(S'tr_tl'
I118
tp2389
a(S'w'
I1
tp2390
a(S'tr_ll'
I3
tp2391
a(S'w'
I4
tp2392
a(S'w'
I1
tp2393
a(S'no_ll'
I19
tp2394
a(S'w'
I705
tp2395
a(S'w'
I5
tp2396
a(S'w'
I4
tp2397
a(S'tr_tl'
I121
tp2398
a(S'w'
I1
tp2399
a(S'tr_ll'
I3
tp2400
a(S'w'
I4
tp2401
a(S'w'
I1
tp2402
a(S'no_ll'
I19
tp2403
a(S'w'
I730
tp2404
a(S'p1_vo'
I2
tp2405
a(S'w'
I1
tp2406
a(S'w'
I4
tp2407
a(S'p2_tl'
I254
tp2408
a(S'w'
I1
tp2409
a(S'p2_ll'
I19
tp2410
a(S'p2_th'
I0
tp2411
a(S'w'
I4
tp2412
a(S'tr_tl'
I124
tp2413
a(S'w'
I1
tp2414
a(S'tr_ll'
I3
tp2415
a(S'w'
I4
tp2416
a(S'w'
I1
tp2417
a(S'no_ll'
I19
tp2418
a(S'w'
I707
tp2419
a(S'p1_vo'
I5
tp2420
a(S'w'
I1
tp2421
a(S'w'
I4
tp2422
a(S'p2_vo'
I8
tp2423
a(S'w'
I1
tp2424
a(S'w'
I4
tp2425
a(S'tr_tl'
I127
tp2426
a(S'w'
I1
tp2427
a(S'tr_ll'
I3
tp2428
a(S'w'
I4
tp2429
a(S'w'
I1
tp2430
a(S'no_ll'
I19
tp2431
a(S'w'
I730
tp2432
a(S'w'
I5
tp2433
a(S'w'
I4
tp2434
a(S'tr_tl'
I130
tp2435
a(S'w'
I1
tp2436
a(S'tr_ll'
I3
tp2437
a(S'w'
I4
tp2438
a(S'w'
I1
tp2439
a(S'no_ll'
I19
tp2440
a(S'w'
I704
tp2441
a(S'w'
I5
tp2442
a(S'w'
I5
tp2443
a(S'tr_tl'
I127
tp2444
a(S'tr_ll'
I3
tp2445
a(S'w'
I5
tp2446
a(S'no_ll'
I19
tp2447
a(S'w'
I721
tp2448
a(S'w'
I3
tp2449
a(S'p2_vo'
I2
tp2450
a(S'w'
I1
tp2451
a(S'w'
I5
tp2452
a(S'tr_tl'
I124
tp2453
a(S'tr_ll'
I3
tp2454
a(S'w'
I5
tp2455
a(S'no_ll'
I19
tp2456
a(S'w'
I720
tp2457
a(S'w'
I3
tp2458
a(S'p2_vo'
I5
tp2459
a(S'w'
I1
tp2460
a(S'w'
I5
tp2461
a(S'tr_tl'
I121
tp2462
a(S'tr_ll'
I3
tp2463
a(S'w'
I5
tp2464
a(S'no_ll'
I19
tp2465
a(S'w'
I732
tp2466
a(S'w'
I5
tp2467
a(S'w'
I4
tp2468
a(S'tr_tl'
I118
tp2469
a(S'w'
I1
tp2470
a(S'tr_ll'
I3
tp2471
a(S'w'
I4
tp2472
a(S'w'
I1
tp2473
a(S'no_ll'
I19
tp2474
a(S'w'
I705
tp2475
a(S'w'
I4
tp2476
a(S'w'
I5
tp2477
a(S'tr_tl'
I121
tp2478
a(S'tr_ll'
I3
tp2479
a(S'w'
I5
tp2480
a(S'no_ll'
I19
tp2481
a(S'w'
I719
tp2482
a(S'w'
I5
tp2483
a(S'w'
I4
tp2484
a(S'tr_tl'
I124
tp2485
a(S'w'
I1
tp2486
a(S'tr_ll'
I3
tp2487
a(S'w'
I4
tp2488
a(S'w'
I1
tp2489
a(S'no_ll'
I19
tp2490
a(S'w'
I742
tp2491
a(S'p1_vo'
I0
tp2492
a(S'w'
I1
tp2493
a(S'w'
I5
tp2494
a(S'p2_tl'
I64
tp2495
a(S'p2_ll'
I19
tp2496
a(S'p2_th'
I1
tp2497
a(S'w'
I4
tp2498
a(S'tr_tl'
I127
tp2499
a(S'w'
I1
tp2500
a(S'tr_ll'
I3
tp2501
a(S'w'
I4
tp2502
a(S'w'
I1
tp2503
a(S'no_ll'
I19
tp2504
a(S'w'
I716
tp2505
a(S'ch_no'
I1
tp2506
a(S'ch_tr'
I1
tp2507
a(S'ch_p2'
I1
tp2508
a(S'ch_p1'
I1
tp2509
a(S'w'
I1
tp2510
a(S'ch_no'
I1
tp2511
a(S'ch_tr'
I1
tp2512
a(S'ch_p2'
I1
tp2513
a(S'ch_p1'
I1
tp2514
a(S'w'
I13
tp2515
a(S'p1_vo'
I5
tp2516
a(S'w'
I2
tp2517
a(S'w'
I3
tp2518
a(S'p2_vo'
I8
tp2519
a(S'w'
I1
tp2520
a(S'w'
I5
tp2521
a(S'tr_tl'
I130
tp2522
a(S'tr_ll'
I3
tp2523
a(S'w'
I4
tp2524
a(S'no_vo'
I9
tp2525
a(S'w'
I1
tp2526
a(S'no_ll'
I19
tp2527
a(S'w'
I685
tp2528
a(S'p1_vo'
I8
tp2529
a(S'w'
I1
tp2530
a(S'w'
I5
tp2531
a(S'w'
I4
tp2532
a(S'tr_tl'
I127
tp2533
a(S'w'
I1
tp2534
a(S'tr_ll'
I3
tp2535
a(S'w'
I3
tp2536
a(S'no_vo'
I7
tp2537
a(S'w'
I1
tp2538
a(S'w'
I1
tp2539
a(S'no_ll'
I19
tp2540
a(S'w'
I717
tp2541
a(S'w'
I5
tp2542
a(S'w'
I4
tp2543
a(S'tr_tl'
I124
tp2544
a(S'w'
I1
tp2545
a(S'tr_ll'
I3
tp2546
a(S'w'
I3
tp2547
a(S'no_vo'
I5
tp2548
a(S'w'
I1
tp2549
a(S'w'
I1
tp2550
a(S'no_ll'
I19
tp2551
a(S'w'
I721
tp2552
a(S'w'
I3
tp2553
a(S'p2_vo'
I2
tp2554
a(S'w'
I1
tp2555
a(S'w'
I5
tp2556
a(S'tr_tl'
I121
tp2557
a(S'tr_ll'
I3
tp2558
a(S'w'
I4
tp2559
a(S'no_vo'
I3
tp2560
a(S'w'
I1
tp2561
a(S'no_ll'
I19
tp2562
a(S'w'
I734
tp2563
a(S'w'
I3
tp2564
a(S'p2_vo'
I5
tp2565
a(S'w'
I1
tp2566
a(S'w'
I5
tp2567
a(S'tr_tl'
I118
tp2568
a(S'tr_ll'
I3
tp2569
a(S'w'
I4
tp2570
a(S'no_vo'
I1
tp2571
a(S'w'
I1
tp2572
a(S'no_ll'
I19
tp2573
a(S'w'
I704
tp2574
a(S'w'
I4
tp2575
a(S'w'
I5
tp2576
a(S'tr_tl'
I121
tp2577
a(S'tr_ll'
I3
tp2578
a(S'w'
I4
tp2579
a(S'no_vo'
I0
tp2580
a(S'w'
I1
tp2581
a(S'no_ll'
I19
tp2582
a(S'w'
I719
tp2583
a(S'w'
I5
tp2584
a(S'w'
I4
tp2585
a(S'tr_tl'
I124
tp2586
a(S'w'
I1
tp2587
a(S'tr_ll'
I3
tp2588
a(S'w'
I4
tp2589
a(S'w'
I1
tp2590
a(S'no_ll'
I19
tp2591
a(S'w'
I719
tp2592
a(S'w'
I5
tp2593
a(S'w'
I4
tp2594
a(S'tr_tl'
I127
tp2595
a(S'w'
I1
tp2596
a(S'tr_ll'
I3
tp2597
a(S'w'
I4
tp2598
a(S'w'
I1
tp2599
a(S'no_ll'
I19
tp2600
a(S'w'
I733
tp2601
a(S'w'
I5
tp2602
a(S'w'
I4
tp2603
a(S'tr_tl'
I130
tp2604
a(S'w'
I1
tp2605
a(S'tr_ll'
I3
tp2606
a(S'w'
I4
tp2607
a(S'w'
I1
tp2608
a(S'no_ll'
I19
tp2609
a(S'w'
I714
tp2610
a(S'p1_vo'
I2
tp2611
a(S'w'
I1
tp2612
a(S'w'
I4
tp2613
a(S'p2_tl'
I171
tp2614
a(S'w'
I5
tp2615
a(S'tr_tl'
I127
tp2616
a(S'tr_ll'
I3
tp2617
a(S'w'
I5
tp2618
a(S'no_ll'
I19
tp2619
a(S'w'
I710
tp2620
a(S'p1_vo'
I5
tp2621
a(S'w'
I1
tp2622
a(S'w'
I4
tp2623
a(S'p2_vo'
I8
tp2624
a(S'w'
I1
tp2625
a(S'w'
I4
tp2626
a(S'tr_tl'
I124
tp2627
a(S'w'
I1
tp2628
a(S'tr_ll'
I3
tp2629
a(S'w'
I4
tp2630
a(S'w'
I1
tp2631
a(S'no_ll'
I19
tp2632
a(S'w'
I716
tp2633
a(S'w'
I5
tp2634
a(S'w'
I4
tp2635
a(S'tr_tl'
I121
tp2636
a(S'w'
I1
tp2637
a(S'tr_ll'
I3
tp2638
a(S'w'
I4
tp2639
a(S'w'
I1
tp2640
a(S'no_ll'
I19
tp2641
a(S'w'
I733
tp2642
a(S'w'
I5
tp2643
a(S'w'
I4
tp2644
a(S'tr_tl'
I118
tp2645
a(S'w'
I1
tp2646
a(S'tr_ll'
I3
tp2647
a(S'w'
I4
tp2648
a(S'w'
I1
tp2649
a(S'no_ll'
I19
tp2650
a(S'w'
I706
tp2651
a(S'w'
I4
tp2652
a(S'p2_vo'
I2
tp2653
a(S'w'
I1
tp2654
a(S'w'
I4
tp2655
a(S'tr_tl'
I121
tp2656
a(S'w'
I1
tp2657
a(S'tr_ll'
I3
tp2658
a(S'w'
I4
tp2659
a(S'w'
I1
tp2660
a(S'no_ll'
I19
tp2661
a(S'w'
I719
tp2662
a(S'w'
I3
tp2663
a(S'p2_vo'
I5
tp2664
a(S'w'
I1
tp2665
a(S'w'
I5
tp2666
a(S'tr_tl'
I124
tp2667
a(S'tr_ll'
I3
tp2668
a(S'w'
I5
tp2669
a(S'no_ll'
I19
tp2670
a(S'w'
I718
tp2671
a(S'w'
I5
tp2672
a(S'w'
I4
tp2673
a(S'tr_tl'
I127
tp2674
a(S'w'
I1
tp2675
a(S'tr_ll'
I3
tp2676
a(S'w'
I4
tp2677
a(S'w'
I1
tp2678
a(S'no_ll'
I19
tp2679
a(S'w'
I733
tp2680
a(S'w'
I5
tp2681
a(S'w'
I4
tp2682
a(S'tr_tl'
I130
tp2683
a(S'w'
I1
tp2684
a(S'tr_ll'
I3
tp2685
a(S'w'
I4
tp2686
a(S'w'
I1
tp2687
a(S'no_ll'
I19
tp2688
a(S'w'
I705
tp2689
a(S'w'
I4
tp2690
a(S'w'
I5
tp2691
a(S'tr_tl'
I127
tp2692
a(S'tr_ll'
I3
tp2693
a(S'w'
I5
tp2694
a(S'no_ll'
I19
tp2695
a(S'w'
I752
tp2696
a(S'ch_no'
I1
tp2697
a(S'ch_tr'
I1
tp2698
a(S'ch_p2'
I1
tp2699
a(S'ch_p1'
I1
tp2700
a(S'ch_no'
I1
tp2701
a(S'ch_tr'
I1
tp2702
a(S'ch_p2'
I1
tp2703
a(S'ch_p1'
I1
tp2704
a(S'w'
I14
tp2705
a(S'p1_tl'
I142
tp2706
a(S'w'
I4
tp2707
a(S'p2_tl'
I226
tp2708
a(S'w'
I1
tp2709
a(S'p2_ll'
I19
tp2710
a(S'p2_th'
I0
tp2711
a(S'w'
I4
tp2712
a(S'tr_tl'
I29
tp2713
a(S'w'
I1
tp2714
a(S'tr_ll'
I3
tp2715
a(S'w'
I3
tp2716
a(S'no_vo'
I9
tp2717
a(S'w'
I1
tp2718
a(S'no_np'
I1
tp2719
a(S'w'
I1
tp2720
a(S'no_ll'
I19
tp2721
a(S'w'
I676
tp2722
a(S'p1_vo'
I8
tp2723
a(S'w'
I1
tp2724
a(S'w'
I4
tp2725
a(S'p2_vo'
I8
tp2726
a(S'w'
I1
tp2727
a(S'w'
I4
tp2728
a(S'tr_tl'
I26
tp2729
a(S'w'
I1
tp2730
a(S'tr_ll'
I3
tp2731
a(S'w'
I3
tp2732
a(S'no_vo'
I7
tp2733
a(S'w'
I1
tp2734
a(S'w'
I1
tp2735
a(S'no_ll'
I19
tp2736
a(S'w'
I730
tp2737
a(S'w'
I5
tp2738
a(S'w'
I4
tp2739
a(S'tr_tl'
I23
tp2740
a(S'w'
I1
tp2741
a(S'tr_ll'
I3
tp2742
a(S'w'
I3
tp2743
a(S'no_vo'
I5
tp2744
a(S'w'
I1
tp2745
a(S'w'
I1
tp2746
a(S'no_ll'
I19
tp2747
a(S'w'
I705
tp2748
a(S'w'
I4
tp2749
a(S'w'
I5
tp2750
a(S'tr_tl'
I26
tp2751
a(S'tr_ll'
I3
tp2752
a(S'w'
I4
tp2753
a(S'no_vo'
I3
tp2754
a(S'w'
I1
tp2755
a(S'no_ll'
I19
tp2756
a(S'w'
I721
tp2757
a(S'w'
I3
tp2758
a(S'p2_vo'
I2
tp2759
a(S'w'
I1
tp2760
a(S'w'
I5
tp2761
a(S'tr_tl'
I29
tp2762
a(S'tr_ll'
I3
tp2763
a(S'w'
I4
tp2764
a(S'no_vo'
I1
tp2765
a(S'w'
I1
tp2766
a(S'no_ll'
I19
tp2767
a(S'w'
I720
tp2768
a(S'w'
I3
tp2769
a(S'p2_vo'
I5
tp2770
a(S'w'
I1
tp2771
a(S'w'
I5
tp2772
a(S'tr_tl'
I32
tp2773
a(S'tr_ll'
I3
tp2774
a(S'w'
I4
tp2775
a(S'no_vo'
I0
tp2776
a(S'w'
I1
tp2777
a(S'no_ll'
I19
tp2778
a(S'w'
I718
tp2779
a(S'w'
I5
tp2780
a(S'w'
I4
tp2781
a(S'tr_tl'
I35
tp2782
a(S'w'
I1
tp2783
a(S'tr_ll'
I3
tp2784
a(S'w'
I4
tp2785
a(S'w'
I1
tp2786
a(S'no_ll'
I19
tp2787
a(S'w'
I719
tp2788
a(S'w'
I4
tp2789
a(S'w'
I5
tp2790
a(S'tr_tl'
I32
tp2791
a(S'tr_ll'
I3
tp2792
a(S'w'
I5
tp2793
a(S'no_ll'
I19
tp2794
a(S'w'
I719
tp2795
a(S'w'
I5
tp2796
a(S'w'
I4
tp2797
a(S'tr_tl'
I29
tp2798
a(S'w'
I1
tp2799
a(S'tr_ll'
I3
tp2800
a(S'w'
I5
tp2801
a(S'no_ll'
I19
tp2802
a(S'w'
I728
tp2803
a(S'p1_vo'
I2
tp2804
a(S'w'
I1
tp2805
a(S'w'
I5
tp2806
a(S'p2_tl'
I29
tp2807
a(S'p2_ll'
I19
tp2808
a(S'p2_th'
I1
tp2809
a(S'w'
I5
tp2810
a(S'tr_tl'
I26
tp2811
a(S'tr_ll'
I3
tp2812
a(S'w'
I5
tp2813
a(S'no_ll'
I19
tp2814
a(S'w'
I710
tp2815
a(S'p1_vo'
I5
tp2816
a(S'w'
I1
tp2817
a(S'w'
I3
tp2818
a(S'p2_vo'
I8
tp2819
a(S'w'
I1
tp2820
a(S'w'
I5
tp2821
a(S'tr_tl'
I23
tp2822
a(S'w'
I1
tp2823
a(S'tr_ll'
I3
tp2824
a(S'w'
I4
tp2825
a(S'no_ll'
I19
tp2826
a(S'w'
I716
tp2827
a(S'w'
I5
tp2828
a(S'w'
I4
tp2829
a(S'tr_tl'
I26
tp2830
a(S'w'
I1
tp2831
a(S'tr_ll'
I3
tp2832
a(S'w'
I5
tp2833
a(S'no_ll'
I19
tp2834
a(S'w'
I733
tp2835
a(S'w'
I5
tp2836
a(S'w'
I4
tp2837
a(S'tr_tl'
I29
tp2838
a(S'w'
I1
tp2839
a(S'tr_ll'
I3
tp2840
a(S'w'
I4
tp2841
a(S'w'
I1
tp2842
a(S'no_ll'
I19
tp2843
a(S'w'
I707
tp2844
a(S'w'
I3
tp2845
a(S'p2_vo'
I2
tp2846
a(S'w'
I1
tp2847
a(S'w'
I5
tp2848
a(S'tr_tl'
I32
tp2849
a(S'tr_ll'
I3
tp2850
a(S'w'
I5
tp2851
a(S'no_ll'
I19
tp2852
a(S'w'
I719
tp2853
a(S'w'
I4
tp2854
a(S'p2_vo'
I5
tp2855
a(S'w'
I1
tp2856
a(S'w'
I5
tp2857
a(S'tr_tl'
I35
tp2858
a(S'tr_ll'
I3
tp2859
a(S'w'
I5
tp2860
a(S'no_ll'
I19
tp2861
a(S'w'
I718
tp2862
a(S'w'
I4
tp2863
a(S'w'
I5
tp2864
a(S'tr_tl'
I32
tp2865
a(S'tr_ll'
I3
tp2866
a(S'w'
I5
tp2867
a(S'no_ll'
I19
tp2868
a(S'w'
I733
tp2869
a(S'w'
I5
tp2870
a(S'w'
I4
tp2871
a(S'tr_tl'
I29
tp2872
a(S'w'
I1
tp2873
a(S'tr_ll'
I3
tp2874
a(S'w'
I4
tp2875
a(S'w'
I1
tp2876
a(S'no_ll'
I19
tp2877
a(S'w'
I705
tp2878
a(S'w'
I5
tp2879
a(S'w'
I4
tp2880
a(S'tr_tl'
I26
tp2881
a(S'w'
I1
tp2882
a(S'tr_ll'
I3
tp2883
a(S'w'
I4
tp2884
a(S'w'
I1
tp2885
a(S'no_ll'
I19
tp2886
a(S'w'
I732
tp2887
a(S'p1_vo'
I0
tp2888
a(S'w'
I1
tp2889
a(S'w'
I5
tp2890
a(S'w'
I4
tp2891
a(S'tr_tl'
I23
tp2892
a(S'w'
I1
tp2893
a(S'tr_ll'
I3
tp2894
a(S'w'
I4
tp2895
a(S'w'
I1
tp2896
a(S'no_ll'
I19
tp2897
a(S'w'
I720
tp2898
a(S'ch_no'
I1
tp2899
a(S'ch_tr'
I1
tp2900
a(S'ch_p2'
I1
tp2901
a(S'ch_p1'
I1
tp2902
a(S'w'
I1
tp2903
a(S'ch_no'
I1
tp2904
a(S'ch_tr'
I1
tp2905
a(S'ch_p2'
I1
tp2906
a(S'ch_p1'
I1
tp2907
a(S'w'
I13
tp2908
a(S'p1_vo'
I5
tp2909
a(S'w'
I1
tp2910
a(S'p1_tl'
I160
tp2911
a(S'w'
I5
tp2912
a(S'p2_tl'
I124
tp2913
a(S'w'
I4
tp2914
a(S'tr_tl'
I26
tp2915
a(S'w'
I1
tp2916
a(S'tr_ll'
I3
tp2917
a(S'w'
I3
tp2918
a(S'no_vo'
I9
tp2919
a(S'w'
I1
tp2920
a(S'no_np'
I5
tp2921
a(S'w'
I1
tp2922
a(S'no_ll'
I19
tp2923
a(S'w'
I706
tp2924
a(S'p1_vo'
I8
tp2925
a(S'w'
I1
tp2926
a(S'w'
I4
tp2927
a(S'p2_vo'
I8
tp2928
a(S'w'
I1
tp2929
a(S'w'
I4
tp2930
a(S'tr_tl'
I29
tp2931
a(S'w'
I1
tp2932
a(S'tr_ll'
I3
tp2933
a(S'w'
I3
tp2934
a(S'no_vo'
I7
tp2935
a(S'w'
I1
tp2936
a(S'w'
I1
tp2937
a(S'no_ll'
I19
tp2938
a(S'w'
I702
tp2939
a(S'w'
I5
tp2940
a(S'w'
I4
tp2941
a(S'tr_tl'
I32
tp2942
a(S'w'
I1
tp2943
a(S'tr_ll'
I3
tp2944
a(S'w'
I3
tp2945
a(S'no_vo'
I5
tp2946
a(S'w'
I1
tp2947
a(S'w'
I1
tp2948
a(S'no_ll'
I19
tp2949
a(S'w'
I719
tp2950
a(S'w'
I4
tp2951
a(S'w'
I5
tp2952
a(S'tr_tl'
I35
tp2953
a(S'tr_ll'
I3
tp2954
a(S'w'
I4
tp2955
a(S'no_vo'
I3
tp2956
a(S'w'
I1
tp2957
a(S'no_ll'
I19
tp2958
a(S'w'
I721
tp2959
a(S'w'
I4
tp2960
a(S'p2_vo'
I2
tp2961
a(S'w'
I1
tp2962
a(S'w'
I4
tp2963
a(S'tr_tl'
I32
tp2964
a(S'w'
I1
tp2965
a(S'tr_ll'
I3
tp2966
a(S'w'
I3
tp2967
a(S'no_vo'
I1
tp2968
a(S'w'
I1
tp2969
a(S'w'
I1
tp2970
a(S'no_ll'
I19
tp2971
a(S'w'
I733
tp2972
a(S'w'
I4
tp2973
a(S'p2_vo'
I5
tp2974
a(S'w'
I1
tp2975
a(S'w'
I4
tp2976
a(S'tr_tl'
I29
tp2977
a(S'w'
I1
tp2978
a(S'tr_ll'
I3
tp2979
a(S'w'
I3
tp2980
a(S'no_vo'
I0
tp2981
a(S'w'
I1
tp2982
a(S'w'
I1
tp2983
a(S'no_ll'
I19
tp2984
a(S'w'
I703
tp2985
a(S'w'
I5
tp2986
a(S'w'
I4
tp2987
a(S'tr_tl'
I26
tp2988
a(S'w'
I1
tp2989
a(S'tr_ll'
I3
tp2990
a(S'w'
I4
tp2991
a(S'w'
I1
tp2992
a(S'no_ll'
I19
tp2993
a(S'w'
I719
tp2994
a(S'w'
I5
tp2995
a(S'w'
I4
tp2996
a(S'tr_tl'
I23
tp2997
a(S'w'
I1
tp2998
a(S'tr_ll'
I3
tp2999
a(S'w'
I4
tp3000
a(S'w'
I1
tp3001
a(S'no_ll'
I19
tp3002
a(S'w'
I719
tp3003
a(S'w'
I4
tp3004
a(S'w'
I5
tp3005
a(S'tr_tl'
I26
tp3006
a(S'tr_ll'
I3
tp3007
a(S'w'
I5
tp3008
a(S'no_ll'
I19
tp3009
a(S'w'
I745
tp3010
a(S'p1_vo'
I2
tp3011
a(S'w'
I1
tp3012
a(S'w'
I4
tp3013
a(S'p2_tl'
I226
tp3014
a(S'w'
I1
tp3015
a(S'p2_ll'
I19
tp3016
a(S'p2_th'
I0
tp3017
a(S'w'
I4
tp3018
a(S'tr_tl'
I29
tp3019
a(S'w'
I1
tp3020
a(S'tr_ll'
I3
tp3021
a(S'w'
I4
tp3022
a(S'w'
I1
tp3023
a(S'no_ll'
I19
tp3024
a(S'w'
I693
tp3025
a(S'p1_vo'
I5
tp3026
a(S'w'
I1
tp3027
a(S'w'
I4
tp3028
a(S'p2_vo'
I8
tp3029
a(S'w'
I1
tp3030
a(S'w'
I4
tp3031
a(S'tr_tl'
I32
tp3032
a(S'w'
I1
tp3033
a(S'tr_ll'
I3
tp3034
a(S'w'
I4
tp3035
a(S'w'
I1
tp3036
a(S'no_ll'
I19
tp3037
a(S'w'
I716
tp3038
a(S'w'
I4
tp3039
a(S'w'
I5
tp3040
a(S'tr_tl'
I35
tp3041
a(S'tr_ll'
I3
tp3042
a(S'w'
I5
tp3043
a(S'no_ll'
I19
tp3044
a(S'w'
I719
tp3045
a(S'w'
I5
tp3046
a(S'w'
I4
tp3047
a(S'tr_tl'
I32
tp3048
a(S'w'
I1
tp3049
a(S'tr_ll'
I3
tp3050
a(S'w'
I5
tp3051
a(S'no_ll'
I19
tp3052
a(S'w'
I735
tp3053
a(S'w'
I3
tp3054
a(S'p2_vo'
I2
tp3055
a(S'w'
I1
tp3056
a(S'w'
I5
tp3057
a(S'tr_tl'
I29
tp3058
a(S'tr_ll'
I3
tp3059
a(S'w'
I5
tp3060
a(S'no_ll'
I19
tp3061
a(S'w'
I706
tp3062
a(S'w'
I3
tp3063
a(S'p2_vo'
I5
tp3064
a(S'w'
I1
tp3065
a(S'w'
I5
tp3066
a(S'tr_tl'
I26
tp3067
a(S'tr_ll'
I3
tp3068
a(S'w'
I5
tp3069
a(S'no_ll'
I19
tp3070
a(S'w'
I718
tp3071
a(S'w'
I4
tp3072
a(S'w'
I5
tp3073
a(S'tr_tl'
I23
tp3074
a(S'tr_ll'
I3
tp3075
a(S'w'
I5
tp3076
a(S'no_ll'
I19
tp3077
a(S'w'
I720
tp3078
a(S'w'
I4
tp3079
a(S'w'
I5
tp3080
a(S'tr_tl'
I26
tp3081
a(S'tr_ll'
I3
tp3082
a(S'w'
I5
tp3083
a(S'no_ll'
I19
tp3084
a(S'w'
I733
tp3085
a(S'w'
I5
tp3086
a(S'w'
I4
tp3087
a(S'tr_tl'
I29
tp3088
a(S'w'
I1
tp3089
a(S'tr_ll'
I3
tp3090
a(S'w'
I4
tp3091
a(S'w'
I1
tp3092
a(S'no_ll'
I19
tp3093
a(S'w'
I728
tp3094
a(S'p1_vo'
I0
tp3095
a(S'w'
I1
tp3096
a(S'w'
I4
tp3097
a(S'p2_tl'
I29
tp3098
a(S'w'
I1
tp3099
a(S'p2_ll'
I19
tp3100
a(S'p2_th'
I1
tp3101
a(S'w'
I4
tp3102
a(S'tr_tl'
I32
tp3103
a(S'w'
I1
tp3104
a(S'tr_ll'
I3
tp3105
a(S'w'
I4
tp3106
a(S'w'
I1
tp3107
a(S'no_ll'
I19
tp3108
a(S'w'
I702
tp3109
a(S'ch_no'
I1
tp3110
a(S'ch_tr'
I1
tp3111
a(S'ch_p2'
I1
tp3112
a(S'ch_p1'
I1
tp3113
a(S'w'
I1
tp3114
a(S'ch_no'
I1
tp3115
a(S'ch_tr'
I1
tp3116
a(S'ch_p2'
I1
tp3117
a(S'ch_p1'
I1
tp3118
a(S'w'
I13
tp3119
a(S'p1_vo'
I5
tp3120
a(S'w'
I1
tp3121
a(S'p1_tl'
I142
tp3122
a(S'w'
I4
tp3123
a(S'p2_vo'
I8
tp3124
a(S'w'
I1
tp3125
a(S'w'
I4
tp3126
a(S'tr_tl'
I35
tp3127
a(S'w'
I1
tp3128
a(S'tr_ll'
I3
tp3129
a(S'w'
I3
tp3130
a(S'no_vo'
I9
tp3131
a(S'w'
I1
tp3132
a(S'w'
I1
tp3133
a(S'no_ll'
I19
tp3134
a(S'w'
I699
tp3135
a(S'p1_vo'
I8
tp3136
a(S'w'
I1
tp3137
a(S'w'
I5
tp3138
a(S'w'
I4
tp3139
a(S'tr_tl'
I32
tp3140
a(S'w'
I1
tp3141
a(S'tr_ll'
I3
tp3142
a(S'w'
I3
tp3143
a(S'no_vo'
I7
tp3144
a(S'w'
I1
tp3145
a(S'w'
I1
tp3146
a(S'no_ll'
I19
tp3147
a(S'w'
I731
tp3148
a(S'w'
I5
tp3149
a(S'w'
I4
tp3150
a(S'tr_tl'
I29
tp3151
a(S'w'
I1
tp3152
a(S'tr_ll'
I3
tp3153
a(S'w'
I3
tp3154
a(S'no_vo'
I5
tp3155
a(S'w'
I1
tp3156
a(S'w'
I1
tp3157
a(S'no_ll'
I19
tp3158
a(S'w'
I707
tp3159
a(S'w'
I3
tp3160
a(S'p2_vo'
I2
tp3161
a(S'w'
I1
tp3162
a(S'w'
I5
tp3163
a(S'tr_tl'
I26
tp3164
a(S'tr_ll'
I3
tp3165
a(S'w'
I4
tp3166
a(S'no_vo'
I3
tp3167
a(S'w'
I1
tp3168
a(S'no_ll'
I19
tp3169
a(S'w'
I719
tp3170
a(S'w'
I4
tp3171
a(S'p2_vo'
I5
tp3172
a(S'w'
I1
tp3173
a(S'w'
I5
tp3174
a(S'tr_tl'
I23
tp3175
a(S'tr_ll'
I3
tp3176
a(S'w'
I4
tp3177
a(S'no_vo'
I1
tp3178
a(S'w'
I1
tp3179
a(S'no_ll'
I19
tp3180
a(S'w'
I718
tp3181
a(S'w'
I4
tp3182
a(S'w'
I5
tp3183
a(S'tr_tl'
I26
tp3184
a(S'tr_ll'
I3
tp3185
a(S'w'
I4
tp3186
a(S'no_vo'
I0
tp3187
a(S'w'
I1
tp3188
a(S'no_ll'
I19
tp3189
a(S'w'
I733
tp3190
a(S'w'
I5
tp3191
a(S'w'
I4
tp3192
a(S'tr_tl'
I29
tp3193
a(S'w'
I1
tp3194
a(S'tr_ll'
I3
tp3195
a(S'w'
I4
tp3196
a(S'w'
I1
tp3197
a(S'no_ll'
I19
tp3198
a(S'w'
I705
tp3199
a(S'w'
I5
tp3200
a(S'w'
I4
tp3201
a(S'tr_tl'
I32
tp3202
a(S'w'
I1
tp3203
a(S'tr_ll'
I3
tp3204
a(S'w'
I4
tp3205
a(S'w'
I1
tp3206
a(S'no_ll'
I19
tp3207
a(S'w'
I719
tp3208
a(S'w'
I5
tp3209
a(S'w'
I4
tp3210
a(S'tr_tl'
I35
tp3211
a(S'w'
I1
tp3212
a(S'tr_ll'
I3
tp3213
a(S'w'
I4
tp3214
a(S'w'
I1
tp3215
a(S'no_ll'
I19
tp3216
a(S'w'
I728
tp3217
a(S'p1_vo'
I2
tp3218
a(S'w'
I1
tp3219
a(S'w'
I4
tp3220
a(S'p2_tl'
I124
tp3221
a(S'w'
I5
tp3222
a(S'tr_tl'
I32
tp3223
a(S'tr_ll'
I3
tp3224
a(S'w'
I5
tp3225
a(S'no_ll'
I19
tp3226
a(S'w'
I710
tp3227
a(S'p1_vo'
I5
tp3228
a(S'w'
I1
tp3229
a(S'w'
I4
tp3230
a(S'p2_vo'
I8
tp3231
a(S'w'
I1
tp3232
a(S'w'
I4
tp3233
a(S'tr_tl'
I29
tp3234
a(S'w'
I1
tp3235
a(S'tr_ll'
I3
tp3236
a(S'w'
I4
tp3237
a(S'w'
I1
tp3238
a(S'no_ll'
I19
tp3239
a(S'w'
I716
tp3240
a(S'w'
I4
tp3241
a(S'w'
I5
tp3242
a(S'tr_tl'
I26
tp3243
a(S'w'
I1
tp3244
a(S'tr_ll'
I3
tp3245
a(S'w'
I4
tp3246
a(S'no_ll'
I19
tp3247
a(S'w'
I720
tp3248
a(S'w'
I4
tp3249
a(S'w'
I5
tp3250
a(S'tr_tl'
I23
tp3251
a(S'tr_ll'
I3
tp3252
a(S'w'
I5
tp3253
a(S'no_ll'
I19
tp3254
a(S'w'
I721
tp3255
a(S'w'
I4
tp3256
a(S'p2_vo'
I2
tp3257
a(S'w'
I1
tp3258
a(S'w'
I4
tp3259
a(S'tr_tl'
I26
tp3260
a(S'w'
I1
tp3261
a(S'tr_ll'
I3
tp3262
a(S'w'
I4
tp3263
a(S'w'
I1
tp3264
a(S'no_ll'
I19
tp3265
a(S'w'
I719
tp3266
a(S'w'
I3
tp3267
a(S'p2_vo'
I5
tp3268
a(S'w'
I1
tp3269
a(S'w'
I5
tp3270
a(S'tr_tl'
I29
tp3271
a(S'tr_ll'
I3
tp3272
a(S'w'
I5
tp3273
a(S'no_ll'
I19
tp3274
a(S'w'
I718
tp3275
a(S'w'
I5
tp3276
a(S'w'
I4
tp3277
a(S'tr_tl'
I32
tp3278
a(S'w'
I1
tp3279
a(S'tr_ll'
I3
tp3280
a(S'w'
I4
tp3281
a(S'w'
I1
tp3282
a(S'no_ll'
I19
tp3283
a(S'w'
I733
tp3284
a(S'w'
I5
tp3285
a(S'w'
I4
tp3286
a(S'tr_tl'
I35
tp3287
a(S'w'
I1
tp3288
a(S'tr_ll'
I3
tp3289
a(S'w'
I4
tp3290
a(S'w'
I1
tp3291
a(S'no_ll'
I19
tp3292
a(S'w'
I705
tp3293
a(S'w'
I4
tp3294
a(S'w'
I5
tp3295
a(S'tr_tl'
I32
tp3296
a(S'tr_ll'
I3
tp3297
a(S'w'
I5
tp3298
a(S'no_ll'
I19
tp3299
a(S'w'
I765
tp3300
a(S'p1_tl'
I127
tp3301
a(S'w'
I4
tp3302
a(S'p2_tl'
I83
tp3303
a(S'w'
I5
tp3304
a(S'tr_tl'
I254
tp3305
a(S'tr_ll'
I3
tp3306
a(S'tr_th'
I0
tp3307
a(S'w'
I4
tp3308
a(S'no_vo'
I9
tp3309
a(S'w'
I1
tp3310
a(S'no_np'
I0
tp3311
a(S'no_ll'
I19
tp3312
a(S'w'
I678
tp3313
a(S'p1_vo'
I8
tp3314
a(S'w'
I1
tp3315
a(S'w'
I4
tp3316
a(S'p2_vo'
I8
tp3317
a(S'w'
I1
tp3318
a(S'w'
I4
tp3319
a(S'tr_tl'
I251
tp3320
a(S'w'
I1
tp3321
a(S'tr_ll'
I3
tp3322
a(S'w'
I3
tp3323
a(S'no_vo'
I7
tp3324
a(S'w'
I1
tp3325
a(S'w'
I1
tp3326
a(S'no_ll'
I19
tp3327
a(S'w'
I730
tp3328
a(S'w'
I4
tp3329
a(S'w'
I5
tp3330
a(S'tr_tl'
I248
tp3331
a(S'w'
I1
tp3332
a(S'tr_ll'
I3
tp3333
a(S'w'
I3
tp3334
a(S'no_vo'
I5
tp3335
a(S'w'
I1
tp3336
a(S'no_ll'
I19
tp3337
a(S'w'
I705
tp3338
a(S'w'
I5
tp3339
a(S'w'
I4
tp3340
a(S'tr_tl'
I251
tp3341
a(S'w'
I1
tp3342
a(S'tr_ll'
I3
tp3343
a(S'w'
I4
tp3344
a(S'no_vo'
I3
tp3345
a(S'w'
I1
tp3346
a(S'no_ll'
I19
tp3347
a(S'w'
I721
tp3348
a(S'w'
I3
tp3349
a(S'p2_vo'
I2
tp3350
a(S'w'
I1
tp3351
a(S'w'
I5
tp3352
a(S'tr_tl'
I254
tp3353
a(S'tr_ll'
I3
tp3354
a(S'w'
I4
tp3355
a(S'no_vo'
I1
tp3356
a(S'w'
I1
tp3357
a(S'no_ll'
I19
tp3358
a(S'w'
I720
tp3359
a(S'w'
I3
tp3360
a(S'p2_vo'
I5
tp3361
a(S'w'
I1
tp3362
a(S'w'
I5
tp3363
a(S'tr_tl'
I1
tp3364
a(S'tr_ll'
I3
tp3365
a(S'tr_th'
I1
tp3366
a(S'w'
I4
tp3367
a(S'no_vo'
I0
tp3368
a(S'w'
I1
tp3369
a(S'no_ll'
I19
tp3370
a(S'w'
I732
tp3371
a(S'w'
I5
tp3372
a(S'w'
I4
tp3373
a(S'tr_tl'
I4
tp3374
a(S'w'
I1
tp3375
a(S'tr_ll'
I3
tp3376
a(S'w'
I4
tp3377
a(S'w'
I1
tp3378
a(S'no_ll'
I19
tp3379
a(S'w'
I710
tp3380
a(S'w'
I5
tp3381
a(S'w'
I4
tp3382
a(S'tr_tl'
I1
tp3383
a(S'w'
I1
tp3384
a(S'tr_ll'
I3
tp3385
a(S'w'
I3
tp3386
a(S'no_vo'
I9
tp3387
a(S'w'
I1
tp3388
a(S'w'
I1
tp3389
a(S'no_ll'
I19
tp3390
a(S'w'
I713
tp3391
a(S'w'
I5
tp3392
a(S'w'
I4
tp3393
a(S'tr_tl'
I254
tp3394
a(S'w'
I1
tp3395
a(S'tr_ll'
I3
tp3396
a(S'tr_th'
I0
tp3397
a(S'w'
I3
tp3398
a(S'no_vo'
I7
tp3399
a(S'w'
I1
tp3400
a(S'w'
I1
tp3401
a(S'no_ll'
I19
tp3402
a(S'w'
I729
tp3403
a(S'w'
I5
tp3404
a(S'p2_tl'
I29
tp3405
a(S'w'
I4
tp3406
a(S'tr_tl'
I251
tp3407
a(S'w'
I1
tp3408
a(S'tr_ll'
I3
tp3409
a(S'w'
I3
tp3410
a(S'no_vo'
I5
tp3411
a(S'w'
I1
tp3412
a(S'w'
I1
tp3413
a(S'no_ll'
I19
tp3414
a(S'w'
I725
tp3415
a(S'w'
I3
tp3416
a(S'p2_vo'
I8
tp3417
a(S'w'
I1
tp3418
a(S'w'
I5
tp3419
a(S'tr_tl'
I248
tp3420
a(S'w'
I1
tp3421
a(S'tr_ll'
I3
tp3422
a(S'w'
I3
tp3423
a(S'no_vo'
I3
tp3424
a(S'w'
I1
tp3425
a(S'w'
I1
tp3426
a(S'no_ll'
I19
tp3427
a(S'w'
I703
tp3428
a(S'w'
I4
tp3429
a(S'w'
I5
tp3430
a(S'tr_tl'
I251
tp3431
a(S'tr_ll'
I3
tp3432
a(S'w'
I4
tp3433
a(S'no_vo'
I1
tp3434
a(S'w'
I1
tp3435
a(S'no_ll'
I19
tp3436
a(S'w'
I719
tp3437
a(S'w'
I5
tp3438
a(S'w'
I5
tp3439
a(S'tr_tl'
I254
tp3440
a(S'tr_ll'
I3
tp3441
a(S'w'
I4
tp3442
a(S'no_vo'
I0
tp3443
a(S'w'
I1
tp3444
a(S'no_ll'
I19
tp3445
a(S'w'
I721
tp3446
a(S'w'
I4
tp3447
a(S'p2_vo'
I2
tp3448
a(S'w'
I1
tp3449
a(S'w'
I4
tp3450
a(S'tr_tl'
I1
tp3451
a(S'w'
I1
tp3452
a(S'tr_ll'
I3
tp3453
a(S'tr_th'
I1
tp3454
a(S'w'
I4
tp3455
a(S'w'
I1
tp3456
a(S'no_ll'
I19
tp3457
a(S'w'
I739
tp3458
a(S'w'
I3
tp3459
a(S'p2_vo'
I5
tp3460
a(S'w'
I1
tp3461
a(S'w'
I5
tp3462
a(S'tr_tl'
I4
tp3463
a(S'tr_ll'
I3
tp3464
a(S'w'
I4
tp3465
a(S'no_vo'
I9
tp3466
a(S'w'
I1
tp3467
a(S'no_np'
I1
tp3468
a(S'no_ll'
I19
tp3469
a(S'w'
I698
tp3470
a(S'w'
I5
tp3471
a(S'w'
I4
tp3472
a(S'tr_tl'
I1
tp3473
a(S'w'
I1
tp3474
a(S'tr_ll'
I3
tp3475
a(S'w'
I3
tp3476
a(S'no_vo'
I7
tp3477
a(S'w'
I1
tp3478
a(S'w'
I1
tp3479
a(S'no_ll'
I19
tp3480
a(S'w'
I719
tp3481
a(S'w'
I4
tp3482
a(S'w'
I5
tp3483
a(S'tr_tl'
I254
tp3484
a(S'tr_ll'
I3
tp3485
a(S'tr_th'
I0
tp3486
a(S'w'
I4
tp3487
a(S'no_vo'
I5
tp3488
a(S'w'
I1
tp3489
a(S'no_ll'
I19
tp3490
a(S'w'
I720
tp3491
a(S'w'
I4
tp3492
a(S'w'
I5
tp3493
a(S'tr_tl'
I251
tp3494
a(S'tr_ll'
I3
tp3495
a(S'w'
I4
tp3496
a(S'no_vo'
I3
tp3497
a(S'w'
I1
tp3498
a(S'no_ll'
I19
tp3499
a(S'w'
I734
tp3500
a(S'w'
I4
tp3501
a(S'w'
I5
tp3502
a(S'tr_tl'
I248
tp3503
a(S'tr_ll'
I3
tp3504
a(S'w'
I4
tp3505
a(S'no_vo'
I1
tp3506
a(S'w'
I1
tp3507
a(S'no_ll'
I19
tp3508
a(S'w'
I715
tp3509
a(S'w'
I5
tp3510
a(S'p2_tl'
I254
tp3511
a(S'p2_ll'
I19
tp3512
a(S'p2_th'
I0
tp3513
a(S'w'
I5
tp3514
a(S'tr_tl'
I251
tp3515
a(S'tr_ll'
I3
tp3516
a(S'w'
I4
tp3517
a(S'no_vo'
I0
tp3518
a(S'w'
I1
tp3519
a(S'no_ll'
I19
tp3520
a(S'w'
I711
tp3521
a(S'p1_vo'
I7
tp3522
a(S'w'
I1
tp3523
a(S'w'
I4
tp3524
a(S'p2_vo'
I8
tp3525
a(S'w'
I1
tp3526
a(S'w'
I4
tp3527
a(S'tr_tl'
I254
tp3528
a(S'w'
I1
tp3529
a(S'tr_ll'
I3
tp3530
a(S'w'
I4
tp3531
a(S'w'
I1
tp3532
a(S'no_ll'
I19
tp3533
a(S'w'
I722
tp3534
a(S'p1_vo'
I8
tp3535
a(S'w'
I1
tp3536
a(S'w'
I5
tp3537
a(S'w'
I4
tp3538
a(S'tr_tl'
I1
tp3539
a(S'w'
I1
tp3540
a(S'tr_ll'
I3
tp3541
a(S'tr_th'
I1
tp3542
a(S'w'
I3
tp3543
a(S'no_vo'
I9
tp3544
a(S'w'
I1
tp3545
a(S'w'
I1
tp3546
a(S'no_ll'
I19
tp3547
a(S'w'
I726
tp3548
a(S'p1_vo'
I7
tp3549
a(S'w'
I1
tp3550
a(S'w'
I5
tp3551
a(S'w'
I5
tp3552
a(S'tr_tl'
I4
tp3553
a(S'tr_ll'
I3
tp3554
a(S'w'
I4
tp3555
a(S'no_vo'
I7
tp3556
a(S'w'
I1
tp3557
a(S'no_ll'
I19
tp3558
a(S'w'
I706
tp3559
a(S'p1_vo'
I8
tp3560
a(S'w'
I1
tp3561
a(S'w'
I3
tp3562
a(S'p2_vo'
I2
tp3563
a(S'w'
I1
tp3564
a(S'w'
I5
tp3565
a(S'tr_tl'
I1
tp3566
a(S'tr_ll'
I3
tp3567
a(S'w'
I4
tp3568
a(S'no_vo'
I5
tp3569
a(S'w'
I1
tp3570
a(S'no_ll'
I19
tp3571
a(S'w'
I718
tp3572
a(S'p1_vo'
I7
tp3573
a(S'w'
I1
tp3574
a(S'w'
I4
tp3575
a(S'p2_vo'
I5
tp3576
a(S'w'
I1
tp3577
a(S'w'
I4
tp3578
a(S'tr_tl'
I254
tp3579
a(S'w'
I1
tp3580
a(S'tr_ll'
I3
tp3581
a(S'tr_th'
I0
tp3582
a(S'w'
I3
tp3583
a(S'no_vo'
I3
tp3584
a(S'w'
I1
tp3585
a(S'w'
I1
tp3586
a(S'no_ll'
I19
tp3587
a(S'w'
I717
tp3588
a(S'p1_vo'
I8
tp3589
a(S'w'
I1
tp3590
a(S'w'
I4
tp3591
a(S'w'
I5
tp3592
a(S'tr_tl'
I251
tp3593
a(S'tr_ll'
I3
tp3594
a(S'w'
I4
tp3595
a(S'no_vo'
I1
tp3596
a(S'w'
I1
tp3597
a(S'no_ll'
I19
tp3598
a(S'w'
I733
tp3599
a(S'p1_vo'
I7
tp3600
a(S'w'
I1
tp3601
a(S'w'
I4
tp3602
a(S'w'
I5
tp3603
a(S'tr_tl'
I248
tp3604
a(S'tr_ll'
I3
tp3605
a(S'w'
I4
tp3606
a(S'no_vo'
I0
tp3607
a(S'w'
I1
tp3608
a(S'no_ll'
I19
tp3609
a(S'w'
I704
tp3610
a(S'p1_vo'
I8
tp3611
a(S'w'
I1
tp3612
a(S'w'
I5
tp3613
a(S'w'
I4
tp3614
a(S'tr_tl'
I251
tp3615
a(S'w'
I1
tp3616
a(S'tr_ll'
I3
tp3617
a(S'w'
I4
tp3618
a(S'w'
I1
tp3619
a(S'no_ll'
I19
tp3620
a(S'w'
I744
tp3621
a(S'p1_vo'
I7
tp3622
a(S'w'
I1
tp3623
a(S'w'
I5
tp3624
a(S'p2_tl'
I226
tp3625
a(S'w'
I4
tp3626
a(S'tr_tl'
I254
tp3627
a(S'w'
I1
tp3628
a(S'tr_ll'
I3
tp3629
a(S'w'
I3
tp3630
a(S'no_vo'
I9
tp3631
a(S'w'
I1
tp3632
a(S'no_np'
I2
tp3633
a(S'w'
I1
tp3634
a(S'no_ll'
I19
tp3635
a(S'w'
I695
tp3636
a(S'p1_vo'
I6
tp3637
a(S'w'
I1
tp3638
a(S'w'
I4
tp3639
a(S'p2_vo'
I8
tp3640
a(S'w'
I1
tp3641
a(S'w'
I4
tp3642
a(S'tr_tl'
I1
tp3643
a(S'w'
I1
tp3644
a(S'tr_ll'
I3
tp3645
a(S'tr_th'
I1
tp3646
a(S'w'
I3
tp3647
a(S'no_vo'
I7
tp3648
a(S'w'
I1
tp3649
a(S'w'
I1
tp3650
a(S'no_ll'
I19
tp3651
a(S'w'
I730
tp3652
a(S'p1_tl'
I126
tp3653
a(S'w'
I5
tp3654
a(S'w'
I4
tp3655
a(S'tr_tl'
I4
tp3656
a(S'w'
I1
tp3657
a(S'tr_ll'
I3
tp3658
a(S'w'
I3
tp3659
a(S'no_vo'
I5
tp3660
a(S'w'
I1
tp3661
a(S'w'
I1
tp3662
a(S'no_ll'
I19
tp3663
a(S'w'
I705
tp3664
a(S'p1_vo'
I5
tp3665
a(S'w'
I1
tp3666
a(S'p1_tl'
I125
tp3667
a(S'w'
I5
tp3668
a(S'w'
I4
tp3669
a(S'tr_tl'
I1
tp3670
a(S'w'
I1
tp3671
a(S'tr_ll'
I3
tp3672
a(S'w'
I4
tp3673
a(S'no_vo'
I3
tp3674
a(S'w'
I1
tp3675
a(S'no_ll'
I19
tp3676
a(S'w'
I719
tp3677
a(S'p1_tl'
I126
tp3678
a(S'w'
I4
tp3679
a(S'p2_vo'
I2
tp3680
a(S'w'
I1
tp3681
a(S'w'
I4
tp3682
a(S'tr_tl'
I254
tp3683
a(S'w'
I1
tp3684
a(S'tr_ll'
I3
tp3685
a(S'tr_th'
I0
tp3686
a(S'w'
I3
tp3687
a(S'no_vo'
I1
tp3688
a(S'w'
I1
tp3689
a(S'w'
I1
tp3690
a(S'no_ll'
I19
tp3691
a(S'w'
I719
tp3692
a(S'p1_vo'
I6
tp3693
a(S'w'
I1
tp3694
a(S'p1_tl'
I127
tp3695
a(S'w'
I4
tp3696
a(S'p2_vo'
I5
tp3697
a(S'w'
I1
tp3698
a(S'w'
I4
tp3699
a(S'tr_tl'
I251
tp3700
a(S'w'
I1
tp3701
a(S'tr_ll'
I3
tp3702
a(S'w'
I4
tp3703
a(S'no_vo'
I0
tp3704
a(S'w'
I1
tp3705
a(S'no_ll'
I19
tp3706
a(S'w'
I716
tp3707
a(S'w'
I5
tp3708
a(S'w'
I4
tp3709
a(S'tr_tl'
I248
tp3710
a(S'w'
I1
tp3711
a(S'tr_ll'
I3
tp3712
a(S'w'
I4
tp3713
a(S'w'
I1
tp3714
a(S'no_ll'
I19
tp3715
a(S'w'
I725
tp3716
a(S'p1_vo'
I5
tp3717
a(S'w'
I1
tp3718
a(S'p1_tl'
I128
tp3719
a(S'w'
I5
tp3720
a(S'w'
I4
tp3721
a(S'tr_tl'
I251
tp3722
a(S'w'
I1
tp3723
a(S'tr_ll'
I3
tp3724
a(S'w'
I3
tp3725
a(S'no_vo'
I9
tp3726
a(S'w'
I1
tp3727
a(S'w'
I1
tp3728
a(S'no_ll'
I19
tp3729
a(S'w'
I711
tp3730
a(S'p1_tl'
I129
tp3731
a(S'w'
I5
tp3732
a(S'w'
I5
tp3733
a(S'tr_tl'
I254
tp3734
a(S'tr_ll'
I3
tp3735
a(S'w'
I4
tp3736
a(S'no_vo'
I7
tp3737
a(S'w'
I1
tp3738
a(S'no_ll'
I19
tp3739
a(S'w'
I730
tp3740
a(S'p1_vo'
I6
tp3741
a(S'w'
I1
tp3742
a(S'p1_tl'
I128
tp3743
a(S'w'
I5
tp3744
a(S'p2_tl'
I213
tp3745
a(S'w'
I4
tp3746
a(S'tr_tl'
I1
tp3747
a(S'w'
I1
tp3748
a(S'tr_ll'
I3
tp3749
a(S'tr_th'
I1
tp3750
a(S'w'
I3
tp3751
a(S'no_vo'
I5
tp3752
a(S'w'
I1
tp3753
a(S'w'
I1
tp3754
a(S'no_ll'
I19
tp3755
a(S'w'
I709
tp3756
a(S'p1_tl'
I127
tp3757
a(S'w'
I3
tp3758
a(S'p2_vo'
I8
tp3759
a(S'w'
I1
tp3760
a(S'w'
I5
tp3761
a(S'tr_tl'
I4
tp3762
a(S'tr_ll'
I3
tp3763
a(S'w'
I4
tp3764
a(S'no_vo'
I3
tp3765
a(S'w'
I1
tp3766
a(S'no_ll'
I19
tp3767
a(S'w'
I718
tp3768
a(S'p1_vo'
I5
tp3769
a(S'w'
I1
tp3770
a(S'w'
I5
tp3771
a(S'w'
I5
tp3772
a(S'tr_tl'
I1
tp3773
a(S'tr_ll'
I3
tp3774
a(S'w'
I4
tp3775
a(S'no_vo'
I1
tp3776
a(S'w'
I1
tp3777
a(S'no_ll'
I19
tp3778
a(S'w'
I732
tp3779
a(S'p1_tl'
I126
tp3780
a(S'w'
I4
tp3781
a(S'w'
I5
tp3782
a(S'tr_tl'
I254
tp3783
a(S'tr_ll'
I3
tp3784
a(S'tr_th'
I0
tp3785
a(S'w'
I4
tp3786
a(S'no_vo'
I0
tp3787
a(S'w'
I1
tp3788
a(S'no_ll'
I19
tp3789
a(S'w'
I708
tp3790
a(S'p1_vo'
I6
tp3791
a(S'w'
I1
tp3792
a(S'p1_tl'
I125
tp3793
a(S'w'
I4
tp3794
a(S'p2_vo'
I2
tp3795
a(S'w'
I1
tp3796
a(S'w'
I4
tp3797
a(S'tr_tl'
I251
tp3798
a(S'w'
I1
tp3799
a(S'tr_ll'
I3
tp3800
a(S'w'
I4
tp3801
a(S'w'
I1
tp3802
a(S'no_ll'
I19
tp3803
a(S'w'
I723
tp3804
a(S'p1_tl'
I126
tp3805
a(S'w'
I3
tp3806
a(S'p2_vo'
I5
tp3807
a(S'w'
I1
tp3808
a(S'w'
I5
tp3809
a(S'tr_tl'
I248
tp3810
a(S'tr_ll'
I3
tp3811
a(S'w'
I4
tp3812
a(S'no_vo'
I9
tp3813
a(S'w'
I1
tp3814
a(S'no_np'
I3
tp3815
a(S'no_ll'
I19
tp3816
a(S'w'
I713
tp3817
a(S'p1_vo'
I5
tp3818
a(S'w'
I1
tp3819
a(S'p1_tl'
I127
tp3820
a(S'w'
I4
tp3821
a(S'w'
I5
tp3822
a(S'tr_tl'
I251
tp3823
a(S'tr_ll'
I3
tp3824
a(S'w'
I4
tp3825
a(S'no_vo'
I7
tp3826
a(S'w'
I1
tp3827
a(S'no_ll'
I19
tp3828
a(S'w'
I732
tp3829
a(S'w'
I4
tp3830
a(S'w'
I5
tp3831
a(S'tr_tl'
I254
tp3832
a(S'tr_ll'
I3
tp3833
a(S'w'
I4
tp3834
a(S'no_vo'
I5
tp3835
a(S'w'
I1
tp3836
a(S'no_ll'
I19
tp3837
a(S'w'
I707
tp3838
a(S'p1_vo'
I6
tp3839
a(S'w'
I1
tp3840
a(S'p1_tl'
I128
tp3841
a(S'w'
I4
tp3842
a(S'w'
I5
tp3843
a(S'tr_tl'
I1
tp3844
a(S'tr_ll'
I3
tp3845
a(S'tr_th'
I1
tp3846
a(S'w'
I4
tp3847
a(S'no_vo'
I3
tp3848
a(S'w'
I1
tp3849
a(S'no_ll'
I19
tp3850
a(S'w'
I718
tp3851
a(S'p1_tl'
I129
tp3852
a(S'w'
I4
tp3853
a(S'w'
I5
tp3854
a(S'tr_tl'
I4
tp3855
a(S'w'
I1
tp3856
a(S'tr_ll'
I3
tp3857
a(S'w'
I3
tp3858
a(S'no_vo'
I1
tp3859
a(S'w'
I1
tp3860
a(S'w'
I1
tp3861
a(S'no_ll'
I19
tp3862
a(S'w'
I729
tp3863
a(S'p1_vo'
I5
tp3864
a(S'w'
I1
tp3865
a(S'p1_tl'
I128
tp3866
a(S'w'
I5
tp3867
a(S'p2_tl'
I226
tp3868
a(S'w'
I4
tp3869
a(S'tr_tl'
I1
tp3870
a(S'w'
I1
tp3871
a(S'tr_ll'
I3
tp3872
a(S'w'
I3
tp3873
a(S'no_vo'
I0
tp3874
a(S'w'
I1
tp3875
a(S'w'
I1
tp3876
a(S'no_ll'
I19
tp3877
a(S'w'
I723
tp3878
a(S'p1_tl'
I127
tp3879
a(S'w'
I3
tp3880
a(S'p2_vo'
I8
tp3881
a(S'w'
I1
tp3882
a(S'w'
I5
tp3883
a(S'tr_tl'
I254
tp3884
a(S'tr_ll'
I3
tp3885
a(S'tr_th'
I0
tp3886
a(S'w'
I5
tp3887
a(S'no_ll'
I19
tp3888
a(S'w'
I710
tp3889
a(S'p1_vo'
I6
tp3890
a(S'w'
I1
tp3891
a(S'w'
I5
tp3892
a(S'w'
I4
tp3893
a(S'tr_tl'
I251
tp3894
a(S'w'
I1
tp3895
a(S'tr_ll'
I3
tp3896
a(S'w'
I3
tp3897
a(S'no_vo'
I9
tp3898
a(S'w'
I1
tp3899
a(S'w'
I1
tp3900
a(S'no_ll'
I19
tp3901
a(S'w'
I712
tp3902
a(S'p1_tl'
I126
tp3903
a(S'w'
I5
tp3904
a(S'w'
I4
tp3905
a(S'tr_tl'
I248
tp3906
a(S'w'
I1
tp3907
a(S'tr_ll'
I3
tp3908
a(S'w'
I3
tp3909
a(S'no_vo'
I7
tp3910
a(S'w'
I1
tp3911
a(S'w'
I1
tp3912
a(S'no_ll'
I19
tp3913
a(S'w'
I721
tp3914
a(S'p1_vo'
I5
tp3915
a(S'w'
I1
tp3916
a(S'p1_tl'
I125
tp3917
a(S'w'
I4
tp3918
a(S'p2_vo'
I2
tp3919
a(S'w'
I1
tp3920
a(S'w'
I4
tp3921
a(S'tr_tl'
I251
tp3922
a(S'w'
I1
tp3923
a(S'tr_ll'
I3
tp3924
a(S'w'
I3
tp3925
a(S'no_vo'
I5
tp3926
a(S'w'
I1
tp3927
a(S'w'
I1
tp3928
a(S'no_ll'
I19
tp3929
a(S'w'
I731
tp3930
a(S'p1_tl'
I126
tp3931
a(S'w'
I4
tp3932
a(S'p2_vo'
I5
tp3933
a(S'w'
I1
tp3934
a(S'w'
I4
tp3935
a(S'tr_tl'
I254
tp3936
a(S'w'
I1
tp3937
a(S'tr_ll'
I3
tp3938
a(S'w'
I3
tp3939
a(S'no_vo'
I3
tp3940
a(S'w'
I1
tp3941
a(S'w'
I1
tp3942
a(S'no_ll'
I19
tp3943
a(S'w'
I704
tp3944
a(S'p1_vo'
I6
tp3945
a(S'w'
I1
tp3946
a(S'p1_tl'
I127
tp3947
a(S'w'
I4
tp3948
a(S'w'
I5
tp3949
a(S'tr_tl'
I1
tp3950
a(S'tr_ll'
I3
tp3951
a(S'tr_th'
I1
tp3952
a(S'w'
I4
tp3953
a(S'no_vo'
I1
tp3954
a(S'w'
I1
tp3955
a(S'no_ll'
I19
tp3956
a(S'w'
I718
tp3957
a(S'w'
I5
tp3958
a(S'w'
I4
tp3959
a(S'tr_tl'
I4
tp3960
a(S'w'
I1
tp3961
a(S'tr_ll'
I3
tp3962
a(S'w'
I3
tp3963
a(S'no_vo'
I0
tp3964
a(S'w'
I1
tp3965
a(S'w'
I1
tp3966
a(S'no_ll'
I19
tp3967
a(S'w'
I720
tp3968
a(S'p1_vo'
I5
tp3969
a(S'w'
I1
tp3970
a(S'p1_tl'
I128
tp3971
a(S'w'
I4
tp3972
a(S'w'
I5
tp3973
a(S'tr_tl'
I1
tp3974
a(S'tr_ll'
I3
tp3975
a(S'w'
I5
tp3976
a(S'no_ll'
I19
tp3977
a(S'w'
I759
tp3978
a(S'p1_tl'
I127
tp3979
a(S'w'
I5
tp3980
a(S'p2_tl'
I254
tp3981
a(S'w'
I4
tp3982
a(S'tr_tl'
I254
tp3983
a(S'w'
I1
tp3984
a(S'tr_ll'
I3
tp3985
a(S'tr_th'
I0
tp3986
a(S'w'
I3
tp3987
a(S'no_vo'
I9
tp3988
a(S'w'
I1
tp3989
a(S'no_np'
I4
tp3990
a(S'w'
I1
tp3991
a(S'no_ll'
I19
tp3992
a(S'w'
I680
tp3993
a(S'p1_vo'
I6
tp3994
a(S'w'
I1
tp3995
a(S'p1_tl'
I124
tp3996
a(S'w'
I4
tp3997
a(S'p2_vo'
I8
tp3998
a(S'w'
I1
tp3999
a(S'w'
I4
tp4000
a(S'tr_tl'
I251
tp4001
a(S'w'
I1
tp4002
a(S'tr_ll'
I3
tp4003
a(S'w'
I3
tp4004
a(S'no_vo'
I7
tp4005
a(S'w'
I1
tp4006
a(S'w'
I1
tp4007
a(S'no_ll'
I19
tp4008
a(S'w'
I716
tp4009
a(S'p1_tl'
I121
tp4010
a(S'w'
I4
tp4011
a(S'w'
I5
tp4012
a(S'tr_tl'
I248
tp4013
a(S'tr_ll'
I3
tp4014
a(S'w'
I4
tp4015
a(S'no_vo'
I5
tp4016
a(S'w'
I1
tp4017
a(S'no_ll'
I19
tp4018
a(S'w'
I720
tp4019
a(S'p1_vo'
I5
tp4020
a(S'w'
I1
tp4021
a(S'p1_tl'
I124
tp4022
a(S'w'
I5
tp4023
a(S'w'
I4
tp4024
a(S'tr_tl'
I251
tp4025
a(S'w'
I1
tp4026
a(S'tr_ll'
I3
tp4027
a(S'w'
I3
tp4028
a(S'no_vo'
I3
tp4029
a(S'w'
I1
tp4030
a(S'w'
I1
tp4031
a(S'no_ll'
I19
tp4032
a(S'w'
I731
tp4033
a(S'p1_tl'
I127
tp4034
a(S'w'
I4
tp4035
a(S'w'
I5
tp4036
a(S'tr_tl'
I254
tp4037
a(S'tr_ll'
I3
tp4038
a(S'w'
I4
tp4039
a(S'no_vo'
I1
tp4040
a(S'w'
I1
tp4041
a(S'no_ll'
I19
tp4042
a(S'w'
I707
tp4043
a(S'p1_vo'
I6
tp4044
a(S'w'
I1
tp4045
a(S'p1_tl'
I130
tp4046
a(S'w'
I4
tp4047
a(S'w'
I5
tp4048
a(S'tr_tl'
I1
tp4049
a(S'tr_ll'
I3
tp4050
a(S'tr_th'
I1
tp4051
a(S'w'
I4
tp4052
a(S'no_vo'
I0
tp4053
a(S'w'
I1
tp4054
a(S'no_ll'
I19
tp4055
a(S'w'
I718
tp4056
a(S'p1_tl'
I133
tp4057
a(S'w'
I4
tp4058
a(S'w'
I5
tp4059
a(S'tr_tl'
I4
tp4060
a(S'w'
I1
tp4061
a(S'tr_ll'
I3
tp4062
a(S'w'
I4
tp4063
a(S'w'
I1
tp4064
a(S'no_ll'
I19
tp4065
a(S'w'
I725
tp4066
a(S'p1_vo'
I5
tp4067
a(S'w'
I1
tp4068
a(S'p1_tl'
I130
tp4069
a(S'w'
I4
tp4070
a(S'w'
I5
tp4071
a(S'tr_tl'
I1
tp4072
a(S'tr_ll'
I3
tp4073
a(S'w'
I4
tp4074
a(S'no_vo'
I9
tp4075
a(S'w'
I1
tp4076
a(S'no_np'
I5
tp4077
a(S'no_ll'
I19
tp4078
a(S'w'
I726
tp4079
a(S'p1_tl'
I127
tp4080
a(S'w'
I5
tp4081
a(S'w'
I4
tp4082
a(S'tr_tl'
I254
tp4083
a(S'w'
I1
tp4084
a(S'tr_ll'
I3
tp4085
a(S'tr_th'
I0
tp4086
a(S'w'
I3
tp4087
a(S'no_vo'
I7
tp4088
a(S'w'
I1
tp4089
a(S'w'
I1
tp4090
a(S'no_ll'
I19
tp4091
a(S'w'
I706
tp4092
a(S'p1_vo'
I6
tp4093
a(S'w'
I1
tp4094
a(S'p1_tl'
I124
tp4095
a(S'w'
I4
tp4096
a(S'w'
I5
tp4097
a(S'tr_tl'
I251
tp4098
a(S'tr_ll'
I3
tp4099
a(S'w'
I4
tp4100
a(S'no_vo'
I5
tp4101
a(S'w'
I1
tp4102
a(S'no_ll'
I19
tp4103
a(S'w'
I718
tp4104
a(S'p1_tl'
I121
tp4105
a(S'w'
I5
tp4106
a(S'w'
I4
tp4107
a(S'tr_tl'
I248
tp4108
a(S'w'
I1
tp4109
a(S'tr_ll'
I3
tp4110
a(S'w'
I3
tp4111
a(S'no_vo'
I3
tp4112
a(S'w'
I1
tp4113
a(S'w'
I1
tp4114
a(S'no_ll'
I19
tp4115
a(S'w'
I719
tp4116
a(S'p1_vo'
I5
tp4117
a(S'w'
I1
tp4118
a(S'p1_tl'
I124
tp4119
a(S'w'
I5
tp4120
a(S'w'
I4
tp4121
a(S'tr_tl'
I251
tp4122
a(S'w'
I1
tp4123
a(S'tr_ll'
I3
tp4124
a(S'w'
I3
tp4125
a(S'no_vo'
I1
tp4126
a(S'w'
I1
tp4127
a(S'w'
I1
tp4128
a(S'no_ll'
I19
tp4129
a(S'w'
I731
tp4130
a(S'p1_tl'
I127
tp4131
a(S'w'
I5
tp4132
a(S'w'
I4
tp4133
a(S'tr_tl'
I254
tp4134
a(S'w'
I1
tp4135
a(S'tr_ll'
I3
tp4136
a(S'w'
I3
tp4137
a(S'no_vo'
I0
tp4138
a(S'w'
I1
tp4139
a(S'w'
I1
tp4140
a(S'no_ll'
I19
tp4141
a(S'w'
I706
tp4142
a(S'p1_vo'
I6
tp4143
a(S'w'
I1
tp4144
a(S'p1_tl'
I130
tp4145
a(S'w'
I5
tp4146
a(S'w'
I4
tp4147
a(S'tr_tl'
I1
tp4148
a(S'w'
I1
tp4149
a(S'tr_ll'
I3
tp4150
a(S'tr_th'
I1
tp4151
a(S'w'
I4
tp4152
a(S'w'
I1
tp4153
a(S'no_ll'
I19
tp4154
a(S'w'
I711
tp4155
a(S'ch_no'
I1
tp4156
a(S'ch_tr'
I1
tp4157
a(S'ch_p2'
I1
tp4158
a(S'ch_p1'
I1
tp4159
a(S'w'
I1
tp4160
a(S'ch_no'
I1
tp4161
a(S'ch_tr'
I1
tp4162
a(S'ch_p2'
I1
tp4163
a(S'ch_p1'
I1
tp4164
a(S'w'
I13
tp4165
a(S'p1_tl'
I133
tp4166
a(S'w'
I5
tp4167
a(S'w'
I4
tp4168
a(S'tr_tl'
I4
tp4169
a(S'w'
I1
tp4170
a(S'tr_ll'
I3
tp4171
a(S'w'
I3
tp4172
a(S'no_vo'
I9
tp4173
a(S'w'
I1
tp4174
a(S'w'
I1
tp4175
a(S'no_ll'
I19
tp4176
a(S'w'
I712
tp4177
a(S'p1_vo'
I5
tp4178
a(S'w'
I1
tp4179
a(S'p1_tl'
I130
tp4180
a(S'w'
I4
tp4181
a(S'w'
I5
tp4182
a(S'tr_tl'
I1
tp4183
a(S'tr_ll'
I3
tp4184
a(S'w'
I4
tp4185
a(S'no_vo'
I7
tp4186
a(S'w'
I1
tp4187
a(S'no_ll'
I19
tp4188
a(S'w'
I731
tp4189
a(S'p1_tl'
I127
tp4190
a(S'w'
I5
tp4191
a(S'w'
I4
tp4192
a(S'tr_tl'
I254
tp4193
a(S'w'
I1
tp4194
a(S'tr_ll'
I3
tp4195
a(S'tr_th'
I0
tp4196
a(S'w'
I4
tp4197
a(S'no_vo'
I5
tp4198
a(S'w'
I1
tp4199
a(S'no_ll'
I19
tp4200
a(S'w'
I706
tp4201
a(S'p1_vo'
I6
tp4202
a(S'w'
I1
tp4203
a(S'p1_tl'
I124
tp4204
a(S'w'
I5
tp4205
a(S'w'
I4
tp4206
a(S'tr_tl'
I251
tp4207
a(S'w'
I1
tp4208
a(S'tr_ll'
I3
tp4209
a(S'w'
I3
tp4210
a(S'no_vo'
I3
tp4211
a(S'w'
I1
tp4212
a(S'w'
I1
tp4213
a(S'no_ll'
I19
tp4214
a(S'w'
I717
tp4215
a(S'p1_tl'
I121
tp4216
a(S'w'
I5
tp4217
a(S'w'
I4
tp4218
a(S'tr_tl'
I248
tp4219
a(S'w'
I1
tp4220
a(S'tr_ll'
I3
tp4221
a(S'w'
I4
tp4222
a(S'no_vo'
I1
tp4223
a(S'w'
I1
tp4224
a(S'no_ll'
I19
tp4225
a(S'w'
I720
tp4226
a(S'p1_vo'
I5
tp4227
a(S'w'
I1
tp4228
a(S'p1_tl'
I124
tp4229
a(S'w'
I4
tp4230
a(S'w'
I5
tp4231
a(S'tr_tl'
I251
tp4232
a(S'tr_ll'
I3
tp4233
a(S'w'
I4
tp4234
a(S'no_vo'
I0
tp4235
a(S'w'
I1
tp4236
a(S'no_ll'
I19
tp4237
a(S'w'
I719
tp4238
a(S'p1_tl'
I127
tp4239
a(S'w'
I4
tp4240
a(S'p2_vo'
I7
tp4241
a(S'w'
I1
tp4242
a(S'w'
I4
tp4243
a(S'tr_tl'
I254
tp4244
a(S'w'
I1
tp4245
a(S'tr_ll'
I3
tp4246
a(S'w'
I4
tp4247
a(S'w'
I1
tp4248
a(S'no_ll'
I19
tp4249
a(S'w'
I715
tp4250
a(S'ch_no'
I1
tp4251
a(S'ch_tr'
I1
tp4252
a(S'ch_p2'
I1
tp4253
a(S'ch_p1'
I1
tp4254
a(S'ch_no'
I1
tp4255
a(S'ch_tr'
I1
tp4256
a(S'ch_p2'
I1
tp4257
a(S'ch_p1'
I1
tp4258
a(S'w'
I13
tp4259
a(S'p1_vo'
I6
tp4260
a(S'w'
I1
tp4261
a(S'p1_tl'
I130
tp4262
a(S'w'
I3
tp4263
a(S'p2_vo'
I8
tp4264
a(S'w'
I1
tp4265
a(S'w'
I5
tp4266
a(S'tr_tl'
I1
tp4267
a(S'w'
I1
tp4268
a(S'tr_ll'
I3
tp4269
a(S'tr_th'
I1
tp4270
a(S'w'
I3
tp4271
a(S'no_vo'
I9
tp4272
a(S'w'
I1
tp4273
a(S'no_ll'
I19
tp4274
a(S'w'
I710
tp4275
a(S'p1_tl'
I133
tp4276
a(S'w'
I4
tp4277
a(S'p2_vo'
I7
tp4278
a(S'w'
I1
tp4279
a(S'w'
I4
tp4280
a(S'tr_tl'
I4
tp4281
a(S'w'
I1
tp4282
a(S'tr_ll'
I3
tp4283
a(S'w'
I3
tp4284
a(S'no_vo'
I7
tp4285
a(S'w'
I1
tp4286
a(S'w'
I1
tp4287
a(S'no_ll'
I19
tp4288
a(S'w'
I720
tp4289
a(S'p1_vo'
I5
tp4290
a(S'w'
I1
tp4291
a(S'p1_tl'
I130
tp4292
a(S'w'
I3
tp4293
a(S'p2_vo'
I8
tp4294
a(S'w'
I1
tp4295
a(S'w'
I5
tp4296
a(S'tr_tl'
I1
tp4297
a(S'tr_ll'
I3
tp4298
a(S'w'
I4
tp4299
a(S'no_vo'
I5
tp4300
a(S'w'
I1
tp4301
a(S'no_ll'
I19
tp4302
a(S'w'
I717
tp4303
a(S'p1_tl'
I127
tp4304
a(S'w'
I4
tp4305
a(S'p2_vo'
I7
tp4306
a(S'w'
I1
tp4307
a(S'w'
I4
tp4308
a(S'tr_tl'
I254
tp4309
a(S'w'
I1
tp4310
a(S'tr_ll'
I3
tp4311
a(S'tr_th'
I0
tp4312
a(S'w'
I3
tp4313
a(S'no_vo'
I3
tp4314
a(S'w'
I1
tp4315
a(S'w'
I1
tp4316
a(S'no_ll'
I19
tp4317
a(S'w'
I720
tp4318
a(S'p1_vo'
I6
tp4319
a(S'w'
I1
tp4320
a(S'p1_tl'
I124
tp4321
a(S'w'
I4
tp4322
a(S'p2_vo'
I8
tp4323
a(S'w'
I1
tp4324
a(S'w'
I4
tp4325
a(S'tr_tl'
I251
tp4326
a(S'w'
I1
tp4327
a(S'tr_ll'
I3
tp4328
a(S'w'
I3
tp4329
a(S'no_vo'
I1
tp4330
a(S'w'
I1
tp4331
a(S'w'
I1
tp4332
a(S'no_ll'
I19
tp4333
a(S'w'
I732
tp4334
a(S'p1_tl'
I121
tp4335
a(S'w'
I3
tp4336
a(S'p2_vo'
I7
tp4337
a(S'w'
I1
tp4338
a(S'w'
I5
tp4339
a(S'tr_tl'
I248
tp4340
a(S'tr_ll'
I3
tp4341
a(S'w'
I4
tp4342
a(S'no_vo'
I0
tp4343
a(S'w'
I1
tp4344
a(S'no_ll'
I19
tp4345
a(S'w'
I706
tp4346
a(S'p1_vo'
I5
tp4347
a(S'w'
I1
tp4348
a(S'p1_tl'
I124
tp4349
a(S'w'
I3
tp4350
a(S'p2_vo'
I8
tp4351
a(S'w'
I1
tp4352
a(S'w'
I5
tp4353
a(S'tr_tl'
I251
tp4354
a(S'tr_ll'
I3
tp4355
a(S'w'
I5
tp4356
a(S'no_ll'
I19
tp4357
a(S'w'
I711
tp4358
a(S'ch_no'
I1
tp4359
a(S'ch_tr'
I1
tp4360
a(S'ch_p2'
I1
tp4361
a(S'ch_p1'
I1
tp4362
a(S'w'
I1
tp4363
a(S'ch_no'
I1
tp4364
a(S'ch_tr'
I1
tp4365
a(S'ch_p2'
I1
tp4366
a(S'ch_p1'
I1
tp4367
a(S'w'
I14
tp4368
a(S'p1_tl'
I127
tp4369
a(S'w'
I4
tp4370
a(S'p2_vo'
I7
tp4371
a(S'w'
I1
tp4372
a(S'w'
I4
tp4373
a(S'tr_tl'
I254
tp4374
a(S'w'
I1
tp4375
a(S'tr_ll'
I3
tp4376
a(S'w'
I4
tp4377
a(S'no_vo'
I9
tp4378
a(S'w'
I1
tp4379
a(S'no_ll'
I19
tp4380
a(S'w'
I711
tp4381
a(S'p1_vo'
I6
tp4382
a(S'w'
I1
tp4383
a(S'p1_tl'
I130
tp4384
a(S'w'
I4
tp4385
a(S'p2_vo'
I6
tp4386
a(S'w'
I1
tp4387
a(S'w'
I5
tp4388
a(S'tr_tl'
I1
tp4389
a(S'tr_ll'
I3
tp4390
a(S'tr_th'
I1
tp4391
a(S'w'
I4
tp4392
a(S'no_vo'
I7
tp4393
a(S'w'
I1
tp4394
a(S'no_ll'
I19
tp4395
a(S'w'
I730
tp4396
a(S'p1_tl'
I133
tp4397
a(S'w'
I5
tp4398
a(S'w'
I4
tp4399
a(S'tr_tl'
I4
tp4400
a(S'w'
I1
tp4401
a(S'tr_ll'
I3
tp4402
a(S'w'
I3
tp4403
a(S'no_vo'
I5
tp4404
a(S'w'
I1
tp4405
a(S'w'
I1
tp4406
a(S'no_ll'
I19
tp4407
a(S'w'
I707
tp4408
a(S'p1_vo'
I5
tp4409
a(S'w'
I1
tp4410
a(S'p1_tl'
I130
tp4411
a(S'w'
I4
tp4412
a(S'p2_vo'
I5
tp4413
a(S'w'
I1
tp4414
a(S'w'
I4
tp4415
a(S'tr_tl'
I1
tp4416
a(S'w'
I1
tp4417
a(S'tr_ll'
I3
tp4418
a(S'w'
I3
tp4419
a(S'no_vo'
I3
tp4420
a(S'w'
I1
tp4421
a(S'w'
I1
tp4422
a(S'no_ll'
I19
tp4423
a(S'w'
I715
tp4424
a(S'p1_tl'
I127
tp4425
a(S'w'
I5
tp4426
a(S'w'
I4
tp4427
a(S'tr_tl'
I254
tp4428
a(S'w'
I1
tp4429
a(S'tr_ll'
I3
tp4430
a(S'tr_th'
I0
tp4431
a(S'w'
I3
tp4432
a(S'no_vo'
I1
tp4433
a(S'w'
I1
tp4434
a(S'w'
I1
tp4435
a(S'no_ll'
I19
tp4436
a(S'w'
I722
tp4437
a(S'p1_vo'
I6
tp4438
a(S'w'
I1
tp4439
a(S'p1_tl'
I124
tp4440
a(S'w'
I3
tp4441
a(S'p2_vo'
I6
tp4442
a(S'w'
I1
tp4443
a(S'w'
I5
tp4444
a(S'tr_tl'
I251
tp4445
a(S'tr_ll'
I3
tp4446
a(S'w'
I4
tp4447
a(S'no_vo'
I0
tp4448
a(S'w'
I1
tp4449
a(S'no_ll'
I19
tp4450
a(S'w'
I730
tp4451
a(S'p1_tl'
I121
tp4452
a(S'w'
I5
tp4453
a(S'w'
I5
tp4454
a(S'tr_tl'
I248
tp4455
a(S'tr_ll'
I3
tp4456
a(S'w'
I5
tp4457
a(S'no_ll'
I19
tp4458
a(S'w'
I707
tp4459
a(S'p1_vo'
I5
tp4460
a(S'w'
I1
tp4461
a(S'p1_tl'
I124
tp4462
a(S'w'
I4
tp4463
a(S'p2_vo'
I5
tp4464
a(S'w'
I1
tp4465
a(S'w'
I4
tp4466
a(S'tr_tl'
I251
tp4467
a(S'w'
I1
tp4468
a(S'tr_ll'
I3
tp4469
a(S'w'
I4
tp4470
a(S'w'
I1
tp4471
a(S'no_ll'
I19
tp4472
a(S'w'
I715
tp4473
a(S'p1_tl'
I127
tp4474
a(S'w'
I5
tp4475
a(S'w'
I4
tp4476
a(S'tr_tl'
I254
tp4477
a(S'w'
I1
tp4478
a(S'tr_ll'
I3
tp4479
a(S'w'
I4
tp4480
a(S'w'
I1
tp4481
a(S'no_ll'
I19
tp4482
a(S'w'
I720
tp4483
a(S'p1_vo'
I6
tp4484
a(S'w'
I1
tp4485
a(S'p1_tl'
I130
tp4486
a(S'w'
I4
tp4487
a(S'p2_vo'
I6
tp4488
a(S'w'
I1
tp4489
a(S'w'
I4
tp4490
a(S'tr_tl'
I1
tp4491
a(S'w'
I1
tp4492
a(S'tr_ll'
I3
tp4493
a(S'tr_th'
I1
tp4494
a(S'w'
I4
tp4495
a(S'w'
I1
tp4496
a(S'no_ll'
I19
tp4497
a(S'w'
I730
tp4498
a(S'p1_tl'
I133
tp4499
a(S'w'
I5
tp4500
a(S'w'
I4
tp4501
a(S'tr_tl'
I4
tp4502
a(S'w'
I1
tp4503
a(S'tr_ll'
I3
tp4504
a(S'w'
I4
tp4505
a(S'w'
I1
tp4506
a(S'no_ll'
I19
tp4507
a(S'w'
I707
tp4508
a(S'p1_vo'
I5
tp4509
a(S'w'
I1
tp4510
a(S'p1_tl'
I130
tp4511
a(S'w'
I3
tp4512
a(S'p2_vo'
I5
tp4513
a(S'w'
I1
tp4514
a(S'w'
I5
tp4515
a(S'tr_tl'
I1
tp4516
a(S'w'
I1
tp4517
a(S'tr_ll'
I3
tp4518
a(S'w'
I4
tp4519
a(S'w'
I1
tp4520
a(S'no_ll'
I19
tp4521
a(S'w'
I715
tp4522
a(S'p1_tl'
I127
tp4523
a(S'w'
I4
tp4524
a(S'w'
I5
tp4525
a(S'tr_tl'
I254
tp4526
a(S'w'
I1
tp4527
a(S'tr_ll'
I3
tp4528
a(S'tr_th'
I0
tp4529
a(S'w'
I4
tp4530
a(S'no_ll'
I19
tp4531
a(S'w'
I722
tp4532
a(S'p1_vo'
I6
tp4533
a(S'w'
I1
tp4534
a(S'p1_tl'
I124
tp4535
a(S'w'
I4
tp4536
a(S'p2_vo'
I6
tp4537
a(S'w'
I1
tp4538
a(S'w'
I4
tp4539
a(S'tr_tl'
I251
tp4540
a(S'w'
I1
tp4541
a(S'tr_ll'
I3
tp4542
a(S'w'
I5
tp4543
a(S'no_ll'
I19
tp4544
a(S'w'
I730
tp4545
a(S'p1_tl'
I121
tp4546
a(S'w'
I5
tp4547
a(S'w'
I4
tp4548
a(S'tr_tl'
I248
tp4549
a(S'w'
I1
tp4550
a(S'tr_ll'
I3
tp4551
a(S'w'
I4
tp4552
a(S'w'
I1
tp4553
a(S'no_ll'
I19
tp4554
a(S'w'
I707
tp4555
a(S'p1_vo'
I5
tp4556
a(S'w'
I1
tp4557
a(S'p1_tl'
I124
tp4558
a(S'w'
I4
tp4559
a(S'p2_vo'
I5
tp4560
a(S'w'
I1
tp4561
a(S'w'
I4
tp4562
a(S'tr_tl'
I251
tp4563
a(S'w'
I1
tp4564
a(S'tr_ll'
I3
tp4565
a(S'w'
I4
tp4566
a(S'w'
I1
tp4567
a(S'no_ll'
I19
tp4568
a(S'w'
I715
tp4569
a(S'p1_tl'
I127
tp4570
a(S'w'
I5
tp4571
a(S'w'
I4
tp4572
a(S'tr_tl'
I254
tp4573
a(S'w'
I1
tp4574
a(S'tr_ll'
I3
tp4575
a(S'w'
I4
tp4576
a(S'w'
I1
tp4577
a(S'no_ll'
I19
tp4578
a(S'w'
I722
tp4579
a(S'p1_vo'
I6
tp4580
a(S'w'
I1
tp4581
a(S'p1_tl'
I130
tp4582
a(S'w'
I3
tp4583
a(S'p2_vo'
I6
tp4584
a(S'w'
I1
tp4585
a(S'w'
I5
tp4586
a(S'tr_tl'
I1
tp4587
a(S'tr_ll'
I3
tp4588
a(S'tr_th'
I1
tp4589
a(S'w'
I5
tp4590
a(S'no_ll'
I19
tp4591
a(S'w'
I730
tp4592
a(S'p1_tl'
I133
tp4593
a(S'w'
I5
tp4594
a(S'w'
I4
tp4595
a(S'tr_tl'
I4
tp4596
a(S'w'
I1
tp4597
a(S'tr_ll'
I3
tp4598
a(S'w'
I5
tp4599
a(S'no_ll'
I19
tp4600
a(S'w'
I707
tp4601
a(S'p1_vo'
I5
tp4602
a(S'w'
I1
tp4603
a(S'p1_tl'
I130
tp4604
a(S'w'
I4
tp4605
a(S'p2_vo'
I5
tp4606
a(S'w'
I1
tp4607
a(S'w'
I4
tp4608
a(S'tr_tl'
I1
tp4609
a(S'w'
I1
tp4610
a(S'tr_ll'
I3
tp4611
a(S'w'
I4
tp4612
a(S'w'
I1
tp4613
a(S'no_ll'
I19
tp4614
a(S'w'
I715
tp4615
a(S'p1_tl'
I127
tp4616
a(S'w'
I5
tp4617
a(S'w'
I4
tp4618
a(S'tr_tl'
I254
tp4619
a(S'w'
I1
tp4620
a(S'tr_ll'
I3
tp4621
a(S'tr_th'
I0
tp4622
a(S'w'
I4
tp4623
a(S'w'
I1
tp4624
a(S'no_ll'
I19
tp4625
a(S'w'
I722
tp4626
a(S'p1_vo'
I6
tp4627
a(S'w'
I1
tp4628
a(S'p1_tl'
I124
tp4629
a(S'w'
I3
tp4630
a(S'p2_vo'
I6
tp4631
a(S'w'
I1
tp4632
a(S'w'
I5
tp4633
a(S'tr_tl'
I251
tp4634
a(S'w'
I1
tp4635
a(S'tr_ll'
I3
tp4636
a(S'w'
I4
tp4637
a(S'w'
I1
tp4638
a(S'no_ll'
I19
tp4639
a(S'w'
I730
tp4640
a(S'p1_tl'
I121
tp4641
a(S'w'
I4
tp4642
a(S'w'
I5
tp4643
a(S'tr_tl'
I248
tp4644
a(S'tr_ll'
I3
tp4645
a(S'w'
I5
tp4646
a(S'no_ll'
I19
tp4647
a(S'w'
I707
tp4648
a(S'p1_vo'
I5
tp4649
a(S'w'
I1
tp4650
a(S'p1_tl'
I124
tp4651
a(S'w'
I4
tp4652
a(S'p2_vo'
I5
tp4653
a(S'w'
I1
tp4654
a(S'w'
I5
tp4655
a(S'tr_tl'
I251
tp4656
a(S'tr_ll'
I3
tp4657
a(S'w'
I5
tp4658
a(S'no_ll'
I19
tp4659
a(S'w'
I715
tp4660
a(S'p1_tl'
I127
tp4661
a(S'w'
I5
tp4662
a(S'w'
I5
tp4663
a(S'tr_tl'
I254
tp4664
a(S'tr_ll'
I3
tp4665
a(S'w'
I5
tp4666
a(S'no_ll'
I19
tp4667
a(S'w'
I721
tp4668
a(S'p1_tl'
I130
tp4669
a(S'w'
I4
tp4670
a(S'p2_vo'
I6
tp4671
a(S'w'
I1
tp4672
a(S'w'
I5
tp4673
a(S'tr_tl'
I1
tp4674
a(S'tr_ll'
I3
tp4675
a(S'tr_th'
I1
tp4676
a(S'w'
I5
tp4677
a(S'no_ll'
I19
tp4678
a(S'w'
I732
tp4679
a(S'p1_tl'
I133
tp4680
a(S'w'
I4
tp4681
a(S'w'
I5
tp4682
a(S'tr_tl'
I4
tp4683
a(S'tr_ll'
I3
tp4684
a(S'w'
I5
tp4685
a(S'no_ll'
I19
tp4686
a(S'w'
I707
tp4687
a(S'p1_tl'
I130
tp4688
a(S'w'
I4
tp4689
a(S'p2_vo'
I5
tp4690
a(S'w'
I1
tp4691
a(S'w'
I4
tp4692
a(S'tr_tl'
I1
tp4693
a(S'w'
I1
tp4694
a(S'tr_ll'
I3
tp4695
a(S'w'
I4
tp4696
a(S'w'
I1
tp4697
a(S'no_ll'
I19
tp4698
a(S'w'
I700
tp4699
a(S'p1_du'
I0
tp4700
a(S'p1_vo'
I0
tp4701
a(S'w'
I8
tp4702
a(S'p2_vo'
I0
tp4703
a(S'w'
I9
tp4704
a(S'tr_lh'
I0
tp4705
a(S'tr_lr'
I48
tp4706
a(S'w'
I715
tp4707
a.