(lp1
(S'clock'
p2
I1789772
tp3
a(S'fc_mo'
I1
tp4
a(S'ch_no'
I1
tp5
a(S'ch_tr'
I1
tp6
a(S'ch_p2'
I1
tp7
a(S'ch_p1'
I1
tp8
a(S'p1_lh'
I1
tp9
a(S'p1_cv'
I1
tp10
a(S'p2_lh'
I1
tp11
a(S'p2_cv'
I1
tp12
a(S'no_lh'
I1
tp13
a(S'no_cv'
I1
tp14
a(S'w'
I12
tp15
a(S'p1_tl'
I231
tp16
a(S'p1_ll'
I0
tp17
a(S'p1_th'
I3
tp18
a(S'w'
I34
tp19
a(S'p1_du'
I1
tp20
a(S'p1_vo'
I13
tp21
a(S'w'
I1
tp22
a(S'w'
I1
tp23
a(S'w'
I701
tp24
a(S'p1_vo'
I12
tp25
a(S'w'
I1
tp26
a(S'p1_tl'
I235
tp27
a(S'p2_tl'
I4
tp28
a(S'w'
I1
tp29
a(S'w'
I733
tp30
a(S'p1_tl'
I239
tp31
a(S'p2_tl'
I8
tp32
a(S'w'
I1
tp33
a(S'w'
I724
tp34
a(S'p2_tl'
I175
tp35
a(S'w'
I1
tp36
a(S'p2_ll'
I0
tp37
a(S'p2_th'
I3
tp38
a(S'w'
I16
tp39
a(S'p1_tl'
I235
tp40
a(S'p2_vo'
I13
tp41
a(S'p2_tl'
I179
tp42
a(S'w'
I1
tp43
a(S'w'
I725
tp44
a(S'p1_tl'
I231
tp45
a(S'w'
I1
tp46
a(S'p2_tl'
I175
tp47
a(S'w'
I1
tp48
a(S'w'
I1465
tp49
a(S'p1_tl'
I227
tp50
a(S'p2_vo'
I12
tp51
a(S'w'
I1
tp52
a(S'p2_tl'
I171
tp53
a(S'w'
I733
tp54
a(S'p1_tl'
I223
tp55
a(S'w'
I1
tp56
a(S'p2_tl'
I167
tp57
a(S'w'
I722
tp58
a(S'p1_tl'
I122
tp59
a(S'p1_ll'
I0
tp60
a(S'w'
I16
tp61
a(S'p1_vo'
I13
tp62
a(S'w'
I1
tp63
a(S'p1_tl'
I118
tp64
a(S'p2_tl'
I171
tp65
a(S'w'
I1
tp66
a(S'w'
I728
tp67
a(S'p1_tl'
I122
tp68
a(S'p2_tl'
I175
tp69
a(S'w'
I1
tp70
a(S'w'
I731
tp71
a(S'p1_tl'
I126
tp72
a(S'w'
I1
tp73
a(S'p2_tl'
I179
tp74
a(S'w'
I1456
tp75
a(S'p2_tl'
I72
tp76
a(S'p2_ll'
I0
tp77
a(S'w'
I17
tp78
a(S'p1_tl'
I130
tp79
a(S'p2_vo'
I13
tp80
a(S'p2_tl'
I80
tp81
a(S'w'
I1
tp82
a(S'w'
I727
tp83
a(S'p1_tl'
I126
tp84
a(S'w'
I1
tp85
a(S'p2_tl'
I76
tp86
a(S'w'
I733
tp87
a(S'p1_tl'
I122
tp88
a(S'w'
I1
tp89
a(S'p2_tl'
I72
tp90
a(S'w'
I732
tp91
a(S'p1_tl'
I118
tp92
a(S'w'
I1
tp93
a(S'p2_tl'
I68
tp94
a(S'w'
I1
tp95
a(S'w'
I721
tp96
a(S'p1_tl'
I26
tp97
a(S'p1_ll'
I0
tp98
a(S'w'
I17
tp99
a(S'p1_tl'
I18
tp100
a(S'p2_tl'
I64
tp101
a(S'w'
I1
tp102
a(S'w'
I1461
tp103
a(S'p1_tl'
I22
tp104
a(S'w'
I1
tp105
a(S'p2_tl'
I68
tp106
a(S'w'
I734
tp107
a(S'p1_tl'
I26
tp108
a(S'w'
I1
tp109
a(S'p2_tl'
I72
tp110
a(S'w'
I720
tp111
a(S'p2_tl'
I236
tp112
a(S'p2_ll'
I0
tp113
a(S'p2_th'
I2
tp114
a(S'w'
I17
tp115
a(S'p1_tl'
I30
tp116
a(S'p2_tl'
I240
tp117
a(S'w'
I1
tp118
a(S'w'
I727
tp119
a(S'p1_tl'
I34
tp120
a(S'w'
I1
tp121
a(S'p2_tl'
I244
tp122
a(S'w'
I733
tp123
a(S'p1_tl'
I30
tp124
a(S'w'
I1
tp125
a(S'p2_tl'
I240
tp126
a(S'w'
I1467
tp127
a(S'p1_tl'
I26
tp128
a(S'w'
I1
tp129
a(S'p2_tl'
I236
tp130
a(S'w'
I1
tp131
a(S'w'
I720
tp132
a(S'p1_tl'
I194
tp133
a(S'p1_ll'
I0
tp134
a(S'p1_th'
I2
tp135
a(S'w'
I17
tp136
a(S'p1_tl'
I190
tp137
a(S'p2_tl'
I232
tp138
a(S'w'
I1
tp139
a(S'w'
I727
tp140
a(S'p1_tl'
I186
tp141
a(S'w'
I1
tp142
a(S'p2_tl'
I228
tp143
a(S'w'
I733
tp144
a(S'p1_tl'
I190
tp145
a(S'w'
I1
tp146
a(S'p2_tl'
I232
tp147
a(S'w'
I1
tp148
a(S'w'
I722
tp149
a(S'p2_tl'
I231
tp150
a(S'p2_ll'
I0
tp151
a(S'p2_th'
I3
tp152
a(S'w'
I17
tp153
a(S'p1_tl'
I194
tp154
a(S'w'
I1
tp155
a(S'w'
I1459
tp156
a(S'p1_tl'
I198
tp157
a(S'w'
I1
tp158
a(S'p2_tl'
I235
tp159
a(S'w'
I733
tp160
a(S'p1_tl'
I202
tp161
a(S'w'
I1
tp162
a(S'p2_tl'
I239
tp163
a(S'w'
I733
tp164
a(S'p1_tl'
I198
tp165
a(S'w'
I1
tp166
a(S'p2_tl'
I235
tp167
a(S'w'
I1
tp168
a(S'w'
I722
tp169
a(S'p1_tl'
I154
tp170
a(S'p1_ll'
I0
tp171
a(S'w'
I16
tp172
a(S'w'
I1
tp173
a(S'p2_tl'
I231
tp174
a(S'w'
I1
tp175
a(S'w'
I725
tp176
a(S'p1_tl'
I150
tp177
a(S'w'
I1
tp178
a(S'p2_tl'
I227
tp179
a(S'w'
I1467
tp180
a(S'p1_tl'
I146
tp181
a(S'w'
I1
tp182
a(S'p2_tl'
I223
tp183
a(S'w'
I1
tp184
a(S'w'
I732
tp185
a(S'p1_tl'
I150
tp186
a(S'p2_vo'
I12
tp187
a(S'w'
I1
tp188
a(S'p2_tl'
I227
tp189
a(S'w'
I735
tp190
a(S'p1_tl'
I154
tp191
a(S'w'
I1
tp192
a(S'p2_tl'
I231
tp193
a(S'w'
I1
tp194
a(S'w'
I729
tp195
a(S'p1_tl'
I158
tp196
a(S'w'
I1
tp197
a(S'p2_tl'
I235
tp198
a(S'w'
I733
tp199
a(S'p1_tl'
I162
tp200
a(S'w'
I1
tp201
a(S'p2_tl'
I239
tp202
a(S'w'
I1
tp203
a(S'w'
I1468
tp204
a(S'p1_vo'
I12
tp205
a(S'p1_tl'
I158
tp206
a(S'w'
I1
tp207
a(S'p2_tl'
I235
tp208
a(S'w'
I731
tp209
a(S'p1_tl'
I154
tp210
a(S'w'
I1
tp211
a(S'p2_tl'
I231
tp212
a(S'w'
I732
tp213
a(S'p1_tl'
I150
tp214
a(S'w'
I1
tp215
a(S'p2_tl'
I227
tp216
a(S'w'
I1
tp217
a(S'w'
I732
tp218
a(S'p1_tl'
I146
tp219
a(S'p2_vo'
I11
tp220
a(S'w'
I1
tp221
a(S'p2_tl'
I223
tp222
a(S'w'
I735
tp223
a(S'p1_tl'
I150
tp224
a(S'w'
I1
tp225
a(S'p2_tl'
I227
tp226
a(S'w'
I1466
tp227
a(S'p1_tl'
I154
tp228
a(S'p2_tl'
I231
tp229
a(S'w'
I1
tp230
a(S'w'
I731
tp231
a(S'p1_tl'
I158
tp232
a(S'w'
I1
tp233
a(S'p2_tl'
I235
tp234
a(S'w'
I1
tp235
a(S'w'
I734
tp236
a(S'p1_vo'
I11
tp237
a(S'p1_tl'
I162
tp238
a(S'w'
I1
tp239
a(S'p2_tl'
I239
tp240
a(S'w'
I731
tp241
a(S'p1_tl'
I158
tp242
a(S'w'
I1
tp243
a(S'p2_tl'
I235
tp244
a(S'w'
I733
tp245
a(S'p1_tl'
I154
tp246
a(S'w'
I1
tp247
a(S'p2_tl'
I231
tp248
a(S'w'
I1
tp249
a(S'w'
I1465
tp250
a(S'p1_tl'
I150
tp251
a(S'p2_vo'
I10
tp252
a(S'w'
I1
tp253
a(S'p2_tl'
I227
tp254
a(S'w'
I735
tp255
a(S'p1_tl'
I146
tp256
a(S'w'
I1
tp257
a(S'p2_tl'
I223
tp258
a(S'w'
I731
tp259
a(S'p1_tl'
I150
tp260
a(S'w'
I1
tp261
a(S'p2_tl'
I227
tp262
a(S'w'
I734
tp263
a(S'p1_tl'
I154
tp264
a(S'w'
I1
tp265
a(S'p2_tl'
I231
tp266
a(S'w'
I733
tp267
a(S'p1_vo'
I10
tp268
a(S'p1_tl'
I158
tp269
a(S'w'
I1
tp270
a(S'p2_tl'
I235
tp271
a(S'w'
I1465
tp272
a(S'p1_tl'
I162
tp273
a(S'w'
I1
tp274
a(S'p2_tl'
I239
tp275
a(S'w'
I733
tp276
a(S'p1_tl'
I158
tp277
a(S'w'
I1
tp278
a(S'p2_tl'
I235
tp279
a(S'w'
I1
tp280
a(S'w'
I732
tp281
a(S'p1_tl'
I154
tp282
a(S'p2_vo'
I9
tp283
a(S'w'
I1
tp284
a(S'p2_tl'
I231
tp285
a(S'w'
I734
tp286
a(S'p1_tl'
I150
tp287
a(S'w'
I1
tp288
a(S'p2_tl'
I227
tp289
a(S'w'
I731
tp290
a(S'p1_tl'
I146
tp291
a(S'w'
I1
tp292
a(S'p2_tl'
I223
tp293
a(S'w'
I1467
tp294
a(S'p1_tl'
I150
tp295
a(S'w'
I1
tp296
a(S'p2_tl'
I227
tp297
a(S'w'
I1
tp298
a(S'w'
I734
tp299
a(S'p1_vo'
I9
tp300
a(S'p1_tl'
I154
tp301
a(S'w'
I1
tp302
a(S'p2_tl'
I231
tp303
a(S'w'
I1
tp304
a(S'w'
I729
tp305
a(S'p1_tl'
I158
tp306
a(S'w'
I1
tp307
a(S'p2_tl'
I235
tp308
a(S'w'
I733
tp309
a(S'p1_tl'
I162
tp310
a(S'w'
I1
tp311
a(S'p2_tl'
I239
tp312
a(S'w'
I1
tp313
a(S'w'
I732
tp314
a(S'p1_tl'
I158
tp315
a(S'p2_vo'
I8
tp316
a(S'w'
I1
tp317
a(S'p2_tl'
I235
tp318
a(S'w'
I1469
tp319
a(S'p1_tl'
I154
tp320
a(S'w'
I1
tp321
a(S'p2_tl'
I231
tp322
a(S'w'
I730
tp323
a(S'p1_tl'
I150
tp324
a(S'w'
I1
tp325
a(S'p2_tl'
I227
tp326
a(S'w'
I733
tp327
a(S'p1_tl'
I146
tp328
a(S'w'
I1
tp329
a(S'p2_tl'
I223
tp330
a(S'w'
I1
tp331
a(S'w'
I732
tp332
a(S'p1_vo'
I8
tp333
a(S'p1_tl'
I150
tp334
a(S'w'
I1
tp335
a(S'p2_tl'
I227
tp336
a(S'w'
I735
tp337
a(S'p1_tl'
I154
tp338
a(S'w'
I1
tp339
a(S'p2_tl'
I231
tp340
a(S'w'
I1
tp341
a(S'w'
I1463
tp342
a(S'p1_tl'
I158
tp343
a(S'w'
I1
tp344
a(S'p2_tl'
I235
tp345
a(S'w'
I1
tp346
a(S'w'
I732
tp347
a(S'p1_tl'
I162
tp348
a(S'p2_vo'
I7
tp349
a(S'w'
I1
tp350
a(S'p2_tl'
I239
tp351
a(S'w'
I735
tp352
a(S'p1_tl'
I158
tp353
a(S'w'
I1
tp354
a(S'p2_tl'
I235
tp355
a(S'w'
I731
tp356
a(S'p1_tl'
I154
tp357
a(S'w'
I1
tp358
a(S'p2_tl'
I231
tp359
a(S'w'
I732
tp360
a(S'p1_tl'
I150
tp361
a(S'w'
I1
tp362
a(S'p2_tl'
I227
tp363
a(S'w'
I1
tp364
a(S'w'
I1466
tp365
a(S'p1_vo'
I7
tp366
a(S'p1_tl'
I146
tp367
a(S'w'
I1
tp368
a(S'p2_tl'
I223
tp369
a(S'w'
I735
tp370
a(S'p1_tl'
I150
tp371
a(S'w'
I1
tp372
a(S'p2_tl'
I227
tp373
a(S'w'
I732
tp374
a(S'p1_tl'
I154
tp375
a(S'w'
I1
tp376
a(S'p2_tl'
I231
tp377
a(S'w'
I731
tp378
a(S'p1_tl'
I158
tp379
a(S'p2_vo'
I6
tp380
a(S'w'
I1
tp381
a(S'p2_tl'
I235
tp382
a(S'w'
I735
tp383
a(S'p1_tl'
I162
tp384
a(S'w'
I1
tp385
a(S'p2_tl'
I239
tp386
a(S'w'
I1465
tp387
a(S'p1_tl'
I158
tp388
a(S'w'
I1
tp389
a(S'p2_tl'
I235
tp390
a(S'w'
I733
tp391
a(S'p1_tl'
I154
tp392
a(S'w'
I1
tp393
a(S'p2_tl'
I231
tp394
a(S'w'
I1
tp395
a(S'w'
I731
tp396
a(S'p1_vo'
I6
tp397
a(S'p1_tl'
I150
tp398
a(S'w'
I1
tp399
a(S'p2_tl'
I227
tp400
a(S'w'
I735
tp401
a(S'p1_tl'
I146
tp402
a(S'w'
I1
tp403
a(S'p2_tl'
I223
tp404
a(S'w'
I731
tp405
a(S'p1_tl'
I150
tp406
a(S'w'
I1
tp407
a(S'p2_tl'
I227
tp408
a(S'w'
I1
tp409
a(S'w'
I1467
tp410
a(S'p1_tl'
I154
tp411
a(S'p2_vo'
I5
tp412
a(S'p2_tl'
I231
tp413
a(S'w'
I1
tp414
a(S'w'
I733
tp415
a(S'p1_tl'
I158
tp416
a(S'w'
I1
tp417
a(S'p2_tl'
I235
tp418
a(S'w'
I731
tp419
a(S'p1_tl'
I162
tp420
a(S'w'
I1
tp421
a(S'p2_tl'
I239
tp422
a(S'w'
I733
tp423
a(S'p1_tl'
I158
tp424
a(S'w'
I1
tp425
a(S'p2_tl'
I235
tp426
a(S'w'
I1
tp427
a(S'w'
I732
tp428
a(S'p1_vo'
I5
tp429
a(S'p1_tl'
I154
tp430
a(S'w'
I1
tp431
a(S'p2_tl'
I231
tp432
a(S'w'
I1468
tp433
a(S'p1_tl'
I150
tp434
a(S'w'
I1
tp435
a(S'p2_tl'
I227
tp436
a(S'w'
I731
tp437
a(S'p1_tl'
I146
tp438
a(S'w'
I1
tp439
a(S'p2_tl'
I223
tp440
a(S'w'
I1
tp441
a(S'w'
I732
tp442
a(S'p1_tl'
I150
tp443
a(S'p2_vo'
I4
tp444
a(S'w'
I1
tp445
a(S'p2_tl'
I227
tp446
a(S'w'
I735
tp447
a(S'p1_tl'
I154
tp448
a(S'w'
I1
tp449
a(S'p2_tl'
I231
tp450
a(S'w'
I1
tp451
a(S'w'
I729
tp452
a(S'p1_tl'
I158
tp453
a(S'w'
I1
tp454
a(S'p2_tl'
I235
tp455
a(S'w'
I1467
tp456
a(S'p1_tl'
I162
tp457
a(S'w'
I1
tp458
a(S'p2_tl'
I239
tp459
a(S'w'
I1
tp460
a(S'w'
I732
tp461
a(S'p1_vo'
I4
tp462
a(S'p1_tl'
I158
tp463
a(S'w'
I1
tp464
a(S'p2_tl'
I235
tp465
a(S'w'
I735
tp466
a(S'p1_tl'
I154
tp467
a(S'w'
I1
tp468
a(S'p2_tl'
I231
tp469
a(S'w'
I730
tp470
a(S'p1_tl'
I150
tp471
a(S'w'
I1
tp472
a(S'p2_tl'
I227
tp473
a(S'w'
I1
tp474
a(S'w'
I732
tp475
a(S'p1_tl'
I146
tp476
a(S'p2_vo'
I3
tp477
a(S'w'
I1
tp478
a(S'p2_tl'
I223
tp479
a(S'w'
I1467
tp480
a(S'p1_tl'
I150
tp481
a(S'w'
I1
tp482
a(S'p2_tl'
I227
tp483
a(S'w'
I735
tp484
a(S'p1_tl'
I154
tp485
a(S'w'
I1
tp486
a(S'p2_tl'
I231
tp487
a(S'w'
I1
tp488
a(S'w'
I729
tp489
a(S'p1_tl'
I158
tp490
a(S'w'
I1
tp491
a(S'p2_tl'
I235
tp492
a(S'w'
I1
tp493
a(S'w'
I732
tp494
a(S'p1_vo'
I3
tp495
a(S'p1_tl'
I162
tp496
a(S'w'
I1
tp497
a(S'p2_tl'
I239
tp498
a(S'w'
I735
tp499
a(S'p1_tl'
I158
tp500
a(S'w'
I1
tp501
a(S'p2_tl'
I235
tp502
a(S'w'
I1465
tp503
a(S'p1_tl'
I154
tp504
a(S'w'
I1
tp505
a(S'p2_tl'
I231
tp506
a(S'w'
I1
tp507
a(S'w'
I731
tp508
a(S'p1_tl'
I150
tp509
a(S'p2_vo'
I2
tp510
a(S'w'
I1
tp511
a(S'p2_tl'
I227
tp512
a(S'w'
I733
tp513
a(S'p1_tl'
I146
tp514
a(S'w'
I1
tp515
a(S'p2_tl'
I223
tp516
a(S'w'
I728
tp517
a(S'p1_du'
I0
tp518
a(S'p1_vo'
I0
tp519
a(S'p2_vo'
I0
tp520
a(S'w'
I50020
tp521
a.