(lp1
(S'clock'
p2
I1789772
tp3
a(S'p1_du'
I3
tp4
a(S'p1_lh'
I1
tp5
a(S'p1_cv'
I1
tp6
a(S'p1_sp'
I7
tp7
a(S'p1_sn'
I1
tp8
a(S'p1_tl'
I101
tp9
a(S'p1_ll'
I1
tp10
a(S'p2_du'
I3
tp11
a(S'p2_lh'
I1
tp12
a(S'p2_cv'
I1
tp13
a(S'p2_sp'
I7
tp14
a(S'p2_sn'
I1
tp15
a(S'p2_tl'
I135
tp16
a(S'p2_ll'
I1
tp17
a(S'tr_lh'
I1
tp18
a(S'tr_tl'
I174
tp19
a(S'tr_ll'
I1
tp20
a(S'tr_th'
I6
tp21
a(S'no_lh'
I1
tp22
a(S'no_cv'
I1
tp23
a(S'no_np'
I5
tp24
a(S'no_ll'
I3
tp25
a(S'ch_no'
I1
tp26
a(S'ch_tr'
I1
tp27
a(S'ch_p2'
I1
tp28
a(S'ch_p1'
I1
tp29
a(S'fc_mo'
I1
tp30
a(S'p1_du'
I0
tp31
a(S'p1_vo'
I15
tp32
a(S'w'
I2
tp33
a(S'p1_du'
I3
tp34
a(S'p1_vo'
I0
tp35
a(S'w'
I3
tp36
a(S'p1_tl'
I5
tp37
a(S'p1_ll'
I3
tp38
a(S'w'
I6
tp39
a(S'p2_du'
I0
tp40
a(S'p2_vo'
I15
tp41
a(S'w'
I2
tp42
a(S'p2_du'
I3
tp43
a(S'p2_vo'
I0
tp44
a(S'w'
I3
tp45
a(S'p2_tl'
I5
tp46
a(S'p2_ll'
I3
tp47
a(S'w'
I6
tp48
a(S'tr_lh'
I0
tp49
a(S'tr_lr'
I6
tp50
a(S'w'
I6
tp51
a(S'tr_tl'
I13
tp52
a(S'tr_ll'
I1
tp53
a(S'tr_th'
I1
tp54
a(S'w'
I6
tp55
a(S'no_vo'
I7
tp56
a(S'w'
I5
tp57
a(S'no_ll'
I3
tp58
a(S'w'
I676
tp59
a(S'no_vo'
I3
tp60
a(S'w'
I729
tp61
a(S'tr_lh'
I1
tp62
a(S'tr_lr'
I0
tp63
a(S'w'
I3
tp64
a(S'tr_tl'
I5
tp65
a(S'tr_ll'
I3
tp66
a(S'tr_th'
I0
tp67
a(S'w'
I6
tp68
a(S'no_vo'
I5
tp69
a(S'w'
I720
tp70
a(S'tr_lh'
I0
tp71
a(S'tr_lr'
I6
tp72
a(S'w'
I1
tp73
a(S'tr_lh'
I1
tp74
a(S'tr_lr'
I0
tp75
a(S'w'
I7
tp76
a(S'no_vo'
I3
tp77
a(S'w'
I2203
tp78
a(S'tr_lh'
I0
tp79
a(S'tr_lr'
I5
tp80
a(S'w'
I6
tp81
a(S'tr_tl'
I13
tp82
a(S'tr_ll'
I1
tp83
a(S'tr_th'
I1
tp84
a(S'w'
I7
tp85
a(S'no_vo'
I7
tp86
a(S'w'
I4
tp87
a(S'w'
I1
tp88
a(S'no_ll'
I3
tp89
a(S'w'
I715
tp90
a(S'no_vo'
I3
tp91
a(S'w'
I729
tp92
a(S'tr_lh'
I1
tp93
a(S'tr_lr'
I0
tp94
a(S'w'
I3
tp95
a(S'tr_tl'
I5
tp96
a(S'w'
I1
tp97
a(S'tr_ll'
I3
tp98
a(S'tr_th'
I0
tp99
a(S'w'
I6
tp100
a(S'no_vo'
I5
tp101
a(S'w'
I719
tp102
a(S'tr_lh'
I0
tp103
a(S'tr_lr'
I5
tp104
a(S'w'
I2
tp105
a(S'tr_lh'
I1
tp106
a(S'tr_lr'
I0
tp107
a(S'w'
I7
tp108
a(S'no_vo'
I3
tp109
a(S'w'
I2210
tp110
a(S'tr_lh'
I0
tp111
a(S'tr_lr'
I5
tp112
a(S'w'
I5
tp113
a(S'tr_tl'
I83
tp114
a(S'w'
I1
tp115
a(S'tr_ll'
I1
tp116
a(S'tr_th'
I1
tp117
a(S'w'
I6
tp118
a(S'no_vo'
I10
tp119
a(S'w'
I4
tp120
a(S'no_np'
I3
tp121
a(S'w'
I1
tp122
a(S'no_ll'
I3
tp123
a(S'w'
I709
tp124
a(S'no_vo'
I0
tp125
a(S'w'
I729
tp126
a(S'tr_lh'
I1
tp127
a(S'tr_lr'
I0
tp128
a(S'w'
I3
tp129
a(S'tr_tl'
I3
tp130
a(S'w'
I1
tp131
a(S'tr_ll'
I3
tp132
a(S'tr_th'
I0
tp133
a(S'w'
I6
tp134
a(S'no_vo'
I5
tp135
a(S'w'
I717
tp136
a(S'tr_lh'
I0
tp137
a(S'tr_lr'
I5
tp138
a(S'w'
I2
tp139
a(S'tr_lh'
I1
tp140
a(S'tr_lr'
I0
tp141
a(S'w'
I739
tp142
a(S'no_vo'
I3
tp143
a(S'w'
I734
tp144
a(S'no_vo'
I1
tp145
a(S'w'
I739
tp146
a(S'tr_lh'
I0
tp147
a(S'tr_lr'
I5
tp148
a(S'w'
I6
tp149
a(S'tr_tl'
I83
tp150
a(S'tr_ll'
I1
tp151
a(S'tr_th'
I1
tp152
a(S'w'
I6
tp153
a(S'no_vo'
I10
tp154
a(S'w'
I5
tp155
a(S'no_ll'
I3
tp156
a(S'w'
I716
tp157
a(S'no_vo'
I0
tp158
a(S'w'
I729
tp159
a(S'tr_lh'
I1
tp160
a(S'tr_lr'
I0
tp161
a(S'w'
I3
tp162
a(S'tr_tl'
I3
tp163
a(S'w'
I1
tp164
a(S'tr_ll'
I3
tp165
a(S'tr_th'
I0
tp166
a(S'w'
I6
tp167
a(S'no_vo'
I5
tp168
a(S'w'
I717
tp169
a(S'tr_lh'
I0
tp170
a(S'tr_lr'
I5
tp171
a(S'w'
I1
tp172
a(S'tr_lh'
I1
tp173
a(S'tr_lr'
I0
tp174
a(S'w'
I740
tp175
a(S'no_vo'
I3
tp176
a(S'w'
I734
tp177
a(S'no_vo'
I1
tp178
a(S'w'
I750
tp179
a(S'tr_lh'
I0
tp180
a(S'tr_lr'
I6
tp181
a(S'w'
I6
tp182
a(S'tr_tl'
I13
tp183
a(S'tr_ll'
I1
tp184
a(S'tr_th'
I1
tp185
a(S'w'
I6
tp186
a(S'no_vo'
I7
tp187
a(S'w'
I5
tp188
a(S'no_np'
I5
tp189
a(S'w'
I1
tp190
a(S'no_ll'
I3
tp191
a(S'w'
I704
tp192
a(S'no_vo'
I3
tp193
a(S'w'
I729
tp194
a(S'tr_lh'
I1
tp195
a(S'tr_lr'
I0
tp196
a(S'w'
I3
tp197
a(S'tr_tl'
I5
tp198
a(S'tr_ll'
I3
tp199
a(S'tr_th'
I0
tp200
a(S'w'
I6
tp201
a(S'no_vo'
I5
tp202
a(S'w'
I720
tp203
a(S'tr_lh'
I0
tp204
a(S'tr_lr'
I6
tp205
a(S'w'
I1
tp206
a(S'tr_lh'
I1
tp207
a(S'tr_lr'
I0
tp208
a(S'w'
I7
tp209
a(S'no_vo'
I3
tp210
a(S'w'
I2204
tp211
a(S'tr_lh'
I0
tp212
a(S'tr_lr'
I5
tp213
a(S'w'
I5
tp214
a(S'tr_tl'
I13
tp215
a(S'w'
I1
tp216
a(S'tr_ll'
I1
tp217
a(S'tr_th'
I1
tp218
a(S'w'
I6
tp219
a(S'no_vo'
I7
tp220
a(S'w'
I4
tp221
a(S'w'
I1
tp222
a(S'no_ll'
I3
tp223
a(S'w'
I716
tp224
a(S'no_vo'
I3
tp225
a(S'w'
I729
tp226
a(S'tr_lh'
I1
tp227
a(S'tr_lr'
I0
tp228
a(S'w'
I3
tp229
a(S'tr_tl'
I5
tp230
a(S'tr_ll'
I3
tp231
a(S'tr_th'
I0
tp232
a(S'w'
I6
tp233
a(S'no_vo'
I5
tp234
a(S'w'
I720
tp235
a(S'tr_lh'
I0
tp236
a(S'tr_lr'
I5
tp237
a(S'w'
I1
tp238
a(S'tr_lh'
I1
tp239
a(S'tr_lr'
I0
tp240
a(S'w'
I7
tp241
a(S'no_vo'
I3
tp242
a(S'w'
I2210
tp243
a(S'tr_lh'
I0
tp244
a(S'tr_lr'
I5
tp245
a(S'w'
I5
tp246
a(S'tr_tl'
I148
tp247
a(S'w'
I1
tp248
a(S'tr_ll'
I1
tp249
a(S'tr_th'
I1
tp250
a(S'w'
I6
tp251
a(S'no_vo'
I10
tp252
a(S'w'
I5
tp253
a(S'no_np'
I3
tp254
a(S'no_ll'
I3
tp255
a(S'w'
I709
tp256
a(S'no_vo'
I0
tp257
a(S'w'
I729
tp258
a(S'tr_lh'
I1
tp259
a(S'tr_lr'
I0
tp260
a(S'w'
I3
tp261
a(S'tr_tl'
I3
tp262
a(S'w'
I1
tp263
a(S'tr_ll'
I3
tp264
a(S'tr_th'
I0
tp265
a(S'w'
I6
tp266
a(S'no_vo'
I5
tp267
a(S'w'
I717
tp268
a(S'tr_lh'
I0
tp269
a(S'tr_lr'
I5
tp270
a(S'w'
I2
tp271
a(S'tr_lh'
I1
tp272
a(S'tr_lr'
I0
tp273
a(S'w'
I740
tp274
a(S'no_vo'
I3
tp275
a(S'w'
I733
tp276
a(S'no_vo'
I1
tp277
a(S'w'
I739
tp278
a(S'tr_lh'
I0
tp279
a(S'tr_lr'
I5
tp280
a(S'w'
I6
tp281
a(S'tr_tl'
I148
tp282
a(S'tr_ll'
I1
tp283
a(S'tr_th'
I1
tp284
a(S'w'
I6
tp285
a(S'no_vo'
I10
tp286
a(S'w'
I5
tp287
a(S'no_ll'
I3
tp288
a(S'w'
I716
tp289
a(S'no_vo'
I0
tp290
a(S'w'
I729
tp291
a(S'tr_lh'
I1
tp292
a(S'tr_lr'
I0
tp293
a(S'w'
I3
tp294
a(S'tr_tl'
I3
tp295
a(S'w'
I1
tp296
a(S'tr_ll'
I3
tp297
a(S'tr_th'
I0
tp298
a(S'w'
I6
tp299
a(S'no_vo'
I5
tp300
a(S'w'
I717
tp301
a(S'tr_lh'
I0
tp302
a(S'tr_lr'
I5
tp303
a(S'w'
I2
tp304
a(S'tr_lh'
I1
tp305
a(S'tr_lr'
I0
tp306
a(S'w'
I739
tp307
a(S'no_vo'
I3
tp308
a(S'w'
I734
tp309
a(S'no_vo'
I1
tp310
a(S'w'
I751
tp311
a(S'tr_lh'
I0
tp312
a(S'tr_lr'
I6
tp313
a(S'w'
I5
tp314
a(S'tr_tl'
I13
tp315
a(S'w'
I1
tp316
a(S'tr_ll'
I1
tp317
a(S'tr_th'
I1
tp318
a(S'w'
I6
tp319
a(S'no_vo'
I7
tp320
a(S'w'
I4
tp321
a(S'no_np'
I5
tp322
a(S'w'
I1
tp323
a(S'no_ll'
I3
tp324
a(S'w'
I704
tp325
a(S'no_vo'
I3
tp326
a(S'w'
I729
tp327
a(S'tr_lh'
I1
tp328
a(S'tr_lr'
I0
tp329
a(S'w'
I3
tp330
a(S'tr_tl'
I5
tp331
a(S'w'
I1
tp332
a(S'tr_ll'
I3
tp333
a(S'tr_th'
I0
tp334
a(S'w'
I6
tp335
a(S'no_vo'
I5
tp336
a(S'w'
I719
tp337
a(S'tr_lh'
I0
tp338
a(S'tr_lr'
I6
tp339
a(S'w'
I2
tp340
a(S'tr_lh'
I1
tp341
a(S'tr_lr'
I0
tp342
a(S'w'
I7
tp343
a(S'no_vo'
I3
tp344
a(S'w'
I2203
tp345
a(S'tr_lh'
I0
tp346
a(S'tr_lr'
I5
tp347
a(S'w'
I5
tp348
a(S'tr_tl'
I13
tp349
a(S'w'
I1
tp350
a(S'tr_ll'
I1
tp351
a(S'tr_th'
I1
tp352
a(S'w'
I6
tp353
a(S'no_vo'
I7
tp354
a(S'w'
I5
tp355
a(S'no_ll'
I3
tp356
a(S'w'
I716
tp357
a(S'no_vo'
I3
tp358
a(S'w'
I729
tp359
a(S'tr_lh'
I1
tp360
a(S'tr_lr'
I0
tp361
a(S'w'
I3
tp362
a(S'tr_tl'
I5
tp363
a(S'tr_ll'
I3
tp364
a(S'tr_th'
I0
tp365
a(S'w'
I6
tp366
a(S'no_vo'
I5
tp367
a(S'w'
I720
tp368
a(S'tr_lh'
I0
tp369
a(S'tr_lr'
I5
tp370
a(S'w'
I1
tp371
a(S'tr_lh'
I1
tp372
a(S'tr_lr'
I0
tp373
a(S'w'
I8
tp374
a(S'no_vo'
I3
tp375
a(S'w'
I2209
tp376
a(S'tr_lh'
I0
tp377
a(S'tr_lr'
I15
tp378
a(S'w'
I6
tp379
a(S'tr_tl'
I252
tp380
a(S'tr_ll'
I1
tp381
a(S'tr_th'
I1
tp382
a(S'w'
I6
tp383
a(S'no_vo'
I10
tp384
a(S'w'
I5
tp385
a(S'no_np'
I3
tp386
a(S'no_ll'
I3
tp387
a(S'w'
I710
tp388
a(S'no_vo'
I0
tp389
a(S'w'
I729
tp390
a(S'tr_lh'
I1
tp391
a(S'tr_lr'
I0
tp392
a(S'w'
I3
tp393
a(S'tr_tl'
I3
tp394
a(S'tr_ll'
I3
tp395
a(S'tr_th'
I0
tp396
a(S'w'
I6
tp397
a(S'no_vo'
I5
tp398
a(S'w'
I717
tp399
a(S'tr_lh'
I0
tp400
a(S'tr_lr'
I15
tp401
a(S'w'
I2
tp402
a(S'tr_lh'
I1
tp403
a(S'tr_lr'
I0
tp404
a(S'w'
I740
tp405
a(S'no_vo'
I3
tp406
a(S'w'
I734
tp407
a(S'no_vo'
I1
tp408
a(S'w'
I738
tp409
a(S'tr_lh'
I0
tp410
a(S'tr_lr'
I15
tp411
a(S'w'
I6
tp412
a(S'tr_tl'
I252
tp413
a(S'w'
I1
tp414
a(S'tr_ll'
I1
tp415
a(S'tr_th'
I1
tp416
a(S'w'
I6
tp417
a(S'no_vo'
I10
tp418
a(S'w'
I4
tp419
a(S'w'
I1
tp420
a(S'no_ll'
I3
tp421
a(S'w'
I716
tp422
a(S'no_vo'
I0
tp423
a(S'w'
I728
tp424
a(S'tr_lh'
I1
tp425
a(S'tr_lr'
I0
tp426
a(S'w'
I3
tp427
a(S'tr_tl'
I3
tp428
a(S'w'
I1
tp429
a(S'tr_ll'
I3
tp430
a(S'tr_th'
I0
tp431
a(S'w'
I6
tp432
a(S'no_vo'
I5
tp433
a(S'w'
I717
tp434
a(S'tr_lh'
I0
tp435
a(S'tr_lr'
I15
tp436
a(S'w'
I2
tp437
a(S'tr_lh'
I1
tp438
a(S'tr_lr'
I0
tp439
a(S'w'
I740
tp440
a(S'no_vo'
I3
tp441
a(S'w'
I733
tp442
a(S'no_vo'
I1
tp443
a(S'w'
I750
tp444
a(S'tr_lh'
I0
tp445
a(S'tr_lr'
I6
tp446
a(S'w'
I6
tp447
a(S'tr_tl'
I13
tp448
a(S'tr_ll'
I1
tp449
a(S'tr_th'
I1
tp450
a(S'w'
I6
tp451
a(S'no_vo'
I7
tp452
a(S'w'
I5
tp453
a(S'no_np'
I5
tp454
a(S'w'
I1
tp455
a(S'no_ll'
I3
tp456
a(S'w'
I704
tp457
a(S'no_vo'
I3
tp458
a(S'w'
I729
tp459
a(S'tr_lh'
I1
tp460
a(S'tr_lr'
I0
tp461
a(S'w'
I3
tp462
a(S'tr_tl'
I5
tp463
a(S'w'
I1
tp464
a(S'tr_ll'
I3
tp465
a(S'tr_th'
I0
tp466
a(S'w'
I6
tp467
a(S'no_vo'
I5
tp468
a(S'w'
I719
tp469
a(S'tr_lh'
I0
tp470
a(S'tr_lr'
I6
tp471
a(S'w'
I2
tp472
a(S'tr_lh'
I1
tp473
a(S'tr_lr'
I0
tp474
a(S'w'
I7
tp475
a(S'no_vo'
I3
tp476
a(S'w'
I2203
tp477
a(S'tr_lh'
I0
tp478
a(S'tr_lr'
I5
tp479
a(S'w'
I6
tp480
a(S'tr_tl'
I13
tp481
a(S'tr_ll'
I1
tp482
a(S'tr_th'
I1
tp483
a(S'w'
I6
tp484
a(S'no_vo'
I7
tp485
a(S'w'
I5
tp486
a(S'no_ll'
I3
tp487
a(S'w'
I716
tp488
a(S'no_vo'
I3
tp489
a(S'w'
I729
tp490
a(S'tr_lh'
I1
tp491
a(S'tr_lr'
I0
tp492
a(S'w'
I3
tp493
a(S'tr_tl'
I5
tp494
a(S'w'
I1
tp495
a(S'tr_ll'
I3
tp496
a(S'tr_th'
I0
tp497
a(S'w'
I6
tp498
a(S'no_vo'
I5
tp499
a(S'w'
I719
tp500
a(S'tr_lh'
I0
tp501
a(S'tr_lr'
I5
tp502
a(S'w'
I2
tp503
a(S'tr_lh'
I1
tp504
a(S'tr_lr'
I0
tp505
a(S'w'
I7
tp506
a(S'no_vo'
I3
tp507
a(S'w'
I2210
tp508
a(S'tr_lh'
I0
tp509
a(S'tr_lr'
I6
tp510
a(S'w'
I6
tp511
a(S'tr_tl'
I13
tp512
a(S'tr_ll'
I1
tp513
a(S'tr_th'
I1
tp514
a(S'w'
I6
tp515
a(S'no_vo'
I7
tp516
a(S'w'
I5
tp517
a(S'w'
I1
tp518
a(S'no_ll'
I3
tp519
a(S'w'
I708
tp520
a(S'no_vo'
I3
tp521
a(S'w'
I729
tp522
a(S'tr_lh'
I1
tp523
a(S'tr_lr'
I0
tp524
a(S'w'
I3
tp525
a(S'tr_tl'
I5
tp526
a(S'tr_ll'
I3
tp527
a(S'tr_th'
I0
tp528
a(S'w'
I6
tp529
a(S'no_vo'
I5
tp530
a(S'w'
I720
tp531
a(S'tr_lh'
I0
tp532
a(S'tr_lr'
I6
tp533
a(S'w'
I1
tp534
a(S'tr_lh'
I1
tp535
a(S'tr_lr'
I0
tp536
a(S'w'
I8
tp537
a(S'no_vo'
I3
tp538
a(S'w'
I2203
tp539
a(S'tr_lh'
I0
tp540
a(S'tr_lr'
I5
tp541
a(S'w'
I5
tp542
a(S'tr_tl'
I13
tp543
a(S'w'
I1
tp544
a(S'tr_ll'
I1
tp545
a(S'tr_th'
I1
tp546
a(S'w'
I6
tp547
a(S'no_vo'
I7
tp548
a(S'w'
I4
tp549
a(S'w'
I1
tp550
a(S'no_ll'
I3
tp551
a(S'w'
I716
tp552
a(S'no_vo'
I3
tp553
a(S'w'
I729
tp554
a(S'tr_lh'
I1
tp555
a(S'tr_lr'
I0
tp556
a(S'w'
I3
tp557
a(S'tr_tl'
I5
tp558
a(S'tr_ll'
I3
tp559
a(S'tr_th'
I0
tp560
a(S'w'
I6
tp561
a(S'no_vo'
I5
tp562
a(S'w'
I720
tp563
a(S'tr_lh'
I0
tp564
a(S'tr_lr'
I5
tp565
a(S'w'
I1
tp566
a(S'tr_lh'
I1
tp567
a(S'tr_lr'
I0
tp568
a(S'w'
I7
tp569
a(S'no_vo'
I3
tp570
a(S'w'
I2244
tp571
a(S'p1_du'
I2
tp572
a(S'p1_vo'
I5
tp573
a(S'w'
I5
tp574
a(S'p1_tl'
I160
tp575
a(S'w'
I1
tp576
a(S'p1_ll'
I1
tp577
a(S'w'
I6
tp578
a(S'p2_du'
I0
tp579
a(S'p2_vo'
I7
tp580
a(S'w'
I5
tp581
a(S'w'
I1
tp582
a(S'p2_tl'
I129
tp583
a(S'p2_ll'
I1
tp584
a(S'p2_th'
I2
tp585
a(S'w'
I6
tp586
a(S'tr_lh'
I0
tp587
a(S'tr_lr'
I15
tp588
a(S'w'
I5
tp589
a(S'tr_tl'
I252
tp590
a(S'w'
I1
tp591
a(S'tr_ll'
I1
tp592
a(S'tr_th'
I1
tp593
a(S'w'
I6
tp594
a(S'no_vo'
I10
tp595
a(S'w'
I4
tp596
a(S'no_np'
I3
tp597
a(S'w'
I1
tp598
a(S'no_ll'
I3
tp599
a(S'w'
I635
tp600
a(S'p1_vo'
I4
tp601
a(S'w'
I10
tp602
a(S'p2_vo'
I6
tp603
a(S'w'
I19
tp604
a(S'no_vo'
I0
tp605
a(S'w'
I713
tp606
a(S'p1_vo'
I3
tp607
a(S'w'
I9
tp608
a(S'p2_vo'
I5
tp609
a(S'w'
I9
tp610
a(S'tr_lh'
I1
tp611
a(S'tr_lr'
I126
tp612
a(S'w'
I6
tp613
a(S'tr_tl'
I129
tp614
a(S'w'
I1
tp615
a(S'tr_ll'
I1
tp616
a(S'tr_th'
I2
tp617
a(S'w'
I6
tp618
a(S'no_vo'
I5
tp619
a(S'w'
I692
tp620
a(S'p1_vo'
I0
tp621
a(S'w'
I9
tp622
a(S'p2_vo'
I4
tp623
a(S'w'
I727
tp624
a(S'p1_vo'
I5
tp625
a(S'w'
I9
tp626
a(S'p2_vo'
I0
tp627
a(S'w'
I17
tp628
a(S'no_vo'
I3
tp629
a(S'w'
I707
tp630
a(S'p1_vo'
I4
tp631
a(S'w'
I10
tp632
a(S'p2_vo'
I3
tp633
a(S'w'
I17
tp634
a(S'no_vo'
I1
tp635
a(S'w'
I720
tp636
a(S'p1_vo'
I5
tp637
a(S'w'
I6
tp638
a(S'p1_tl'
I135
tp639
a(S'p1_ll'
I1
tp640
a(S'w'
I6
tp641
a(S'p2_du'
I1
tp642
a(S'p2_vo'
I7
tp643
a(S'w'
I6
tp644
a(S'p2_ll'
I1
tp645
a(S'w'
I13
tp646
a(S'no_vo'
I0
tp647
a(S'w'
I688
tp648
a(S'p1_vo'
I4
tp649
a(S'w'
I10
tp650
a(S'p2_vo'
I3
tp651
a(S'w'
I724
tp652
a(S'p1_vo'
I3
tp653
a(S'w'
I9
tp654
a(S'p2_vo'
I4
tp655
a(S'w'
I725
tp656
a(S'p1_vo'
I0
tp657
a(S'w'
I733
tp658
a(S'p1_vo'
I5
tp659
a(S'w'
I10
tp660
a(S'p2_vo'
I2
tp661
a(S'w'
I724
tp662
a(S'p1_vo'
I4
tp663
a(S'w'
I761
tp664
a(S'p1_vo'
I5
tp665
a(S'w'
I5
tp666
a(S'p1_tl'
I160
tp667
a(S'w'
I1
tp668
a(S'p1_ll'
I1
tp669
a(S'w'
I6
tp670
a(S'p2_du'
I2
tp671
a(S'p2_vo'
I7
tp672
a(S'w'
I5
tp673
a(S'p2_tl'
I250
tp674
a(S'w'
I1
tp675
a(S'p2_ll'
I1
tp676
a(S'w'
I5
tp677
a(S'tr_lh'
I0
tp678
a(S'tr_lr'
I15
tp679
a(S'w'
I6
tp680
a(S'tr_tl'
I252
tp681
a(S'tr_ll'
I1
tp682
a(S'tr_th'
I1
tp683
a(S'w'
I6
tp684
a(S'no_vo'
I10
tp685
a(S'w'
I5
tp686
a(S'no_ll'
I3
tp687
a(S'w'
I670
tp688
a(S'p1_vo'
I4
tp689
a(S'w'
I10
tp690
a(S'p2_vo'
I6
tp691
a(S'w'
I18
tp692
a(S'no_vo'
I0
tp693
a(S'w'
I713
tp694
a(S'p1_vo'
I3
tp695
a(S'w'
I10
tp696
a(S'p2_vo'
I5
tp697
a(S'w'
I9
tp698
a(S'tr_lh'
I1
tp699
a(S'tr_lr'
I126
tp700
a(S'w'
I6
tp701
a(S'tr_tl'
I250
tp702
a(S'tr_ll'
I1
tp703
a(S'tr_th'
I2
tp704
a(S'w'
I6
tp705
a(S'no_vo'
I5
tp706
a(S'w'
I692
tp707
a(S'p1_vo'
I0
tp708
a(S'w'
I10
tp709
a(S'p2_vo'
I4
tp710
a(S'w'
I726
tp711
a(S'p1_vo'
I5
tp712
a(S'w'
I10
tp713
a(S'p2_vo'
I0
tp714
a(S'w'
I16
tp715
a(S'no_vo'
I3
tp716
a(S'w'
I708
tp717
a(S'p1_vo'
I4
tp718
a(S'w'
I10
tp719
a(S'p2_vo'
I3
tp720
a(S'w'
I16
tp721
a(S'no_vo'
I1
tp722
a(S'w'
I721
tp723
a(S'p1_vo'
I5
tp724
a(S'w'
I5
tp725
a(S'p1_tl'
I135
tp726
a(S'w'
I1
tp727
a(S'p1_ll'
I1
tp728
a(S'w'
I6
tp729
a(S'p2_du'
I3
tp730
a(S'p2_vo'
I7
tp731
a(S'w'
I6
tp732
a(S'p2_ll'
I1
tp733
a(S'w'
I13
tp734
a(S'no_vo'
I0
tp735
a(S'w'
I688
tp736
a(S'p1_vo'
I4
tp737
a(S'w'
I9
tp738
a(S'p2_vo'
I3
tp739
a(S'w'
I724
tp740
a(S'p1_vo'
I3
tp741
a(S'w'
I10
tp742
a(S'p2_vo'
I4
tp743
a(S'w'
I724
tp744
a(S'p1_vo'
I0
tp745
a(S'w'
I734
tp746
a(S'p1_vo'
I5
tp747
a(S'w'
I10
tp748
a(S'p2_vo'
I2
tp749
a(S'w'
I724
tp750
a(S'p1_vo'
I4
tp751
a(S'w'
I767
tp752
a(S'p1_du'
I3
tp753
a(S'p1_vo'
I5
tp754
a(S'w'
I5
tp755
a(S'p1_tl'
I160
tp756
a(S'w'
I1
tp757
a(S'p1_ll'
I1
tp758
a(S'w'
I6
tp759
a(S'p2_du'
I0
tp760
a(S'p2_vo'
I7
tp761
a(S'w'
I5
tp762
a(S'p2_tl'
I1
tp763
a(S'w'
I1
tp764
a(S'p2_ll'
I1
tp765
a(S'p2_th'
I5
tp766
a(S'w'
I5
tp767
a(S'tr_lh'
I0
tp768
a(S'tr_lr'
I6
tp769
a(S'w'
I6
tp770
a(S'tr_tl'
I13
tp771
a(S'tr_ll'
I1
tp772
a(S'tr_th'
I1
tp773
a(S'w'
I6
tp774
a(S'no_vo'
I7
tp775
a(S'w'
I5
tp776
a(S'no_np'
I5
tp777
a(S'w'
I1
tp778
a(S'no_ll'
I3
tp779
a(S'w'
I663
tp780
a(S'p1_vo'
I4
tp781
a(S'w'
I9
tp782
a(S'p2_vo'
I6
tp783
a(S'w'
I19
tp784
a(S'no_vo'
I3
tp785
a(S'w'
I713
tp786
a(S'p1_vo'
I3
tp787
a(S'w'
I10
tp788
a(S'p2_vo'
I5
tp789
a(S'w'
I9
tp790
a(S'tr_lh'
I1
tp791
a(S'tr_lr'
I126
tp792
a(S'w'
I5
tp793
a(S'tr_tl'
I1
tp794
a(S'w'
I1
tp795
a(S'tr_ll'
I1
tp796
a(S'tr_th'
I5
tp797
a(S'w'
I6
tp798
a(S'no_vo'
I5
tp799
a(S'w'
I694
tp800
a(S'p1_vo'
I0
tp801
a(S'w'
I10
tp802
a(S'p2_vo'
I4
tp803
a(S'w'
I16
tp804
a(S'no_vo'
I3
tp805
a(S'w'
I706
tp806
a(S'p1_vo'
I5
tp807
a(S'w'
I9
tp808
a(S'p2_vo'
I0
tp809
a(S'w'
I725
tp810
a(S'p1_vo'
I4
tp811
a(S'w'
I9
tp812
a(S'p2_vo'
I3
tp813
a(S'w'
I739
tp814
a(S'p1_vo'
I5
tp815
a(S'w'
I6
tp816
a(S'p1_tl'
I135
tp817
a(S'w'
I1
tp818
a(S'p1_ll'
I1
tp819
a(S'w'
I6
tp820
a(S'p2_du'
I1
tp821
a(S'p2_vo'
I7
tp822
a(S'w'
I5
tp823
a(S'w'
I1
tp824
a(S'p2_ll'
I1
tp825
a(S'w'
I12
tp826
a(S'no_vo'
I1
tp827
a(S'w'
I688
tp828
a(S'p1_vo'
I4
tp829
a(S'w'
I10
tp830
a(S'p2_vo'
I3
tp831
a(S'w'
I724
tp832
a(S'p1_vo'
I3
tp833
a(S'w'
I10
tp834
a(S'p2_vo'
I4
tp835
a(S'w'
I724
tp836
a(S'p1_vo'
I0
tp837
a(S'w'
I734
tp838
a(S'p1_vo'
I5
tp839
a(S'w'
I9
tp840
a(S'p2_vo'
I2
tp841
a(S'w'
I724
tp842
a(S'p1_vo'
I4
tp843
a(S'w'
I764
tp844
a(S'p1_vo'
I5
tp845
a(S'w'
I5
tp846
a(S'p1_tl'
I160
tp847
a(S'w'
I1
tp848
a(S'p1_ll'
I1
tp849
a(S'w'
I6
tp850
a(S'p2_du'
I2
tp851
a(S'p2_vo'
I7
tp852
a(S'w'
I6
tp853
a(S'p2_tl'
I117
tp854
a(S'p2_ll'
I1
tp855
a(S'p2_th'
I4
tp856
a(S'w'
I6
tp857
a(S'tr_lh'
I0
tp858
a(S'tr_lr'
I15
tp859
a(S'w'
I5
tp860
a(S'tr_tl'
I252
tp861
a(S'w'
I1
tp862
a(S'tr_ll'
I1
tp863
a(S'tr_th'
I1
tp864
a(S'w'
I6
tp865
a(S'no_vo'
I10
tp866
a(S'w'
I4
tp867
a(S'no_np'
I3
tp868
a(S'w'
I1
tp869
a(S'no_ll'
I3
tp870
a(S'w'
I666
tp871
a(S'p1_vo'
I4
tp872
a(S'w'
I10
tp873
a(S'p2_vo'
I6
tp874
a(S'w'
I19
tp875
a(S'no_vo'
I0
tp876
a(S'w'
I713
tp877
a(S'p1_vo'
I3
tp878
a(S'w'
I9
tp879
a(S'p2_vo'
I5
tp880
a(S'w'
I9
tp881
a(S'tr_lh'
I1
tp882
a(S'tr_lr'
I126
tp883
a(S'w'
I6
tp884
a(S'tr_tl'
I117
tp885
a(S'tr_ll'
I1
tp886
a(S'tr_th'
I4
tp887
a(S'w'
I6
tp888
a(S'no_vo'
I5
tp889
a(S'w'
I693
tp890
a(S'p1_vo'
I0
tp891
a(S'w'
I9
tp892
a(S'p2_vo'
I4
tp893
a(S'w'
I727
tp894
a(S'p1_vo'
I5
tp895
a(S'w'
I9
tp896
a(S'p2_vo'
I0
tp897
a(S'w'
I17
tp898
a(S'no_vo'
I3
tp899
a(S'w'
I707
tp900
a(S'p1_vo'
I4
tp901
a(S'w'
I10
tp902
a(S'p2_vo'
I3
tp903
a(S'w'
I17
tp904
a(S'no_vo'
I1
tp905
a(S'w'
I720
tp906
a(S'p1_vo'
I5
tp907
a(S'w'
I6
tp908
a(S'p1_tl'
I135
tp909
a(S'p1_ll'
I1
tp910
a(S'w'
I6
tp911
a(S'p2_du'
I3
tp912
a(S'p2_vo'
I7
tp913
a(S'w'
I6
tp914
a(S'p2_ll'
I1
tp915
a(S'w'
I13
tp916
a(S'no_vo'
I0
tp917
a(S'w'
I688
tp918
a(S'p1_vo'
I4
tp919
a(S'w'
I10
tp920
a(S'p2_vo'
I3
tp921
a(S'w'
I724
tp922
a(S'p1_vo'
I3
tp923
a(S'w'
I9
tp924
a(S'p2_vo'
I4
tp925
a(S'w'
I724
tp926
a(S'p1_vo'
I0
tp927
a(S'w'
I734
tp928
a(S'p1_vo'
I5
tp929
a(S'w'
I10
tp930
a(S'p2_vo'
I2
tp931
a(S'w'
I724
tp932
a(S'p1_vo'
I4
tp933
a(S'w'
I777
tp934
a(S'p1_du'
I0
tp935
a(S'p1_vo'
I3
tp936
a(S'w'
I5
tp937
a(S'p1_tl'
I160
tp938
a(S'w'
I1
tp939
a(S'p1_ll'
I1
tp940
a(S'w'
I6
tp941
a(S'p2_du'
I0
tp942
a(S'p2_vo'
I7
tp943
a(S'w'
I5
tp944
a(S'w'
I1
tp945
a(S'p2_ll'
I1
tp946
a(S'w'
I7
tp947
a(S'tr_lr'
I0
tp948
a(S'w'
I3
tp949
a(S'tr_ll'
I1
tp950
a(S'w'
I6
tp951
a(S'no_vo'
I8
tp952
a(S'w'
I5
tp953
a(S'no_ll'
I3
tp954
a(S'w'
I654
tp955
a(S'p1_vo'
I2
tp956
a(S'w'
I9
tp957
a(S'p2_vo'
I6
tp958
a(S'w'
I16
tp959
a(S'no_vo'
I3
tp960
a(S'w'
I718
tp961
a(S'p2_vo'
I5
tp962
a(S'w'
I16
tp963
a(S'no_vo'
I2
tp964
a(S'w'
I708
tp965
a(S'p1_vo'
I0
tp966
a(S'w'
I10
tp967
a(S'p2_vo'
I4
tp968
a(S'w'
I15
tp969
a(S'no_vo'
I1
tp970
a(S'w'
I709
tp971
a(S'p1_vo'
I3
tp972
a(S'w'
I10
tp973
a(S'p2_vo'
I0
tp974
a(S'w'
I15
tp975
a(S'no_vo'
I0
tp976
a(S'w'
I707
tp977
a(S'p1_vo'
I2
tp978
a(S'w'
I10
tp979
a(S'p2_vo'
I3
tp980
a(S'w'
I737
tp981
a(S'p1_vo'
I3
tp982
a(S'w'
I5
tp983
a(S'p1_tl'
I135
tp984
a(S'w'
I1
tp985
a(S'p1_ll'
I1
tp986
a(S'w'
I6
tp987
a(S'p2_du'
I1
tp988
a(S'p2_vo'
I7
tp989
a(S'w'
I5
tp990
a(S'w'
I1
tp991
a(S'p2_ll'
I1
tp992
a(S'w'
I702
tp993
a(S'p1_vo'
I2
tp994
a(S'w'
I10
tp995
a(S'p2_vo'
I3
tp996
a(S'w'
I734
tp997
a(S'p2_vo'
I4
tp998
a(S'w'
I724
tp999
a(S'p1_vo'
I0
tp1000
a(S'w'
I734
tp1001
a(S'p1_vo'
I3
tp1002
a(S'w'
I10
tp1003
a(S'p2_vo'
I2
tp1004
a(S'w'
I724
tp1005
a(S'p1_vo'
I2
tp1006
a(S'w'
I763
tp1007
a(S'p1_vo'
I3
tp1008
a(S'w'
I6
tp1009
a(S'p1_tl'
I160
tp1010
a(S'p1_ll'
I1
tp1011
a(S'w'
I6
tp1012
a(S'p2_du'
I2
tp1013
a(S'p2_vo'
I7
tp1014
a(S'w'
I6
tp1015
a(S'p2_ll'
I1
tp1016
a(S'w'
I6
tp1017
a(S'tr_lh'
I0
tp1018
a(S'tr_lr'
I15
tp1019
a(S'w'
I5
tp1020
a(S'tr_tl'
I252
tp1021
a(S'w'
I1
tp1022
a(S'tr_ll'
I1
tp1023
a(S'tr_th'
I1
tp1024
a(S'w'
I6
tp1025
a(S'no_vo'
I10
tp1026
a(S'w'
I4
tp1027
a(S'w'
I1
tp1028
a(S'no_ll'
I3
tp1029
a(S'w'
I666
tp1030
a(S'p1_vo'
I2
tp1031
a(S'w'
I10
tp1032
a(S'p2_vo'
I6
tp1033
a(S'w'
I19
tp1034
a(S'no_vo'
I0
tp1035
a(S'w'
I723
tp1036
a(S'p2_vo'
I5
tp1037
a(S'w'
I9
tp1038
a(S'tr_lh'
I1
tp1039
a(S'tr_lr'
I126
tp1040
a(S'w'
I5
tp1041
a(S'tr_tl'
I1
tp1042
a(S'w'
I1
tp1043
a(S'tr_ll'
I1
tp1044
a(S'tr_th'
I5
tp1045
a(S'w'
I6
tp1046
a(S'no_vo'
I5
tp1047
a(S'w'
I692
tp1048
a(S'p1_vo'
I0
tp1049
a(S'w'
I10
tp1050
a(S'p2_vo'
I4
tp1051
a(S'w'
I726
tp1052
a(S'p1_vo'
I3
tp1053
a(S'w'
I9
tp1054
a(S'p2_vo'
I0
tp1055
a(S'w'
I17
tp1056
a(S'no_vo'
I3
tp1057
a(S'w'
I708
tp1058
a(S'p1_vo'
I2
tp1059
a(S'w'
I9
tp1060
a(S'p2_vo'
I3
tp1061
a(S'w'
I17
tp1062
a(S'no_vo'
I1
tp1063
a(S'w'
I720
tp1064
a(S'p1_vo'
I3
tp1065
a(S'w'
I6
tp1066
a(S'p1_tl'
I135
tp1067
a(S'p1_ll'
I1
tp1068
a(S'w'
I6
tp1069
a(S'p2_du'
I3
tp1070
a(S'p2_vo'
I7
tp1071
a(S'w'
I6
tp1072
a(S'w'
I1
tp1073
a(S'p2_ll'
I1
tp1074
a(S'w'
I12
tp1075
a(S'no_vo'
I0
tp1076
a(S'w'
I688
tp1077
a(S'p1_vo'
I2
tp1078
a(S'w'
I10
tp1079
a(S'p2_vo'
I3
tp1080
a(S'w'
I734
tp1081
a(S'p2_vo'
I4
tp1082
a(S'w'
I724
tp1083
a(S'p1_vo'
I0
tp1084
a(S'w'
I733
tp1085
a(S'p1_vo'
I3
tp1086
a(S'w'
I10
tp1087
a(S'p2_vo'
I2
tp1088
a(S'w'
I724
tp1089
a(S'p1_vo'
I2
tp1090
a(S'w'
I770
tp1091
a(S'p1_du'
I1
tp1092
a(S'p1_vo'
I3
tp1093
a(S'w'
I6
tp1094
a(S'p1_tl'
I160
tp1095
a(S'p1_ll'
I1
tp1096
a(S'w'
I6
tp1097
a(S'p2_du'
I0
tp1098
a(S'p2_vo'
I7
tp1099
a(S'w'
I6
tp1100
a(S'w'
I1
tp1101
a(S'p2_ll'
I1
tp1102
a(S'w'
I5
tp1103
a(S'tr_lh'
I0
tp1104
a(S'tr_lr'
I6
tp1105
a(S'w'
I5
tp1106
a(S'tr_tl'
I13
tp1107
a(S'w'
I1
tp1108
a(S'tr_ll'
I1
tp1109
a(S'tr_th'
I1
tp1110
a(S'w'
I6
tp1111
a(S'no_vo'
I7
tp1112
a(S'w'
I5
tp1113
a(S'no_np'
I5
tp1114
a(S'no_ll'
I3
tp1115
a(S'w'
I660
tp1116
a(S'p1_vo'
I2
tp1117
a(S'w'
I10
tp1118
a(S'p2_vo'
I6
tp1119
a(S'w'
I18
tp1120
a(S'no_vo'
I3
tp1121
a(S'w'
I723
tp1122
a(S'p2_vo'
I5
tp1123
a(S'w'
I9
tp1124
a(S'tr_lh'
I1
tp1125
a(S'tr_lr'
I126
tp1126
a(S'w'
I6
tp1127
a(S'tr_tl'
I117
tp1128
a(S'tr_ll'
I1
tp1129
a(S'tr_th'
I4
tp1130
a(S'w'
I6
tp1131
a(S'no_vo'
I5
tp1132
a(S'w'
I695
tp1133
a(S'p1_vo'
I0
tp1134
a(S'w'
I9
tp1135
a(S'p2_vo'
I4
tp1136
a(S'w'
I17
tp1137
a(S'no_vo'
I3
tp1138
a(S'w'
I705
tp1139
a(S'p1_vo'
I3
tp1140
a(S'w'
I10
tp1141
a(S'p2_vo'
I0
tp1142
a(S'w'
I724
tp1143
a(S'p1_vo'
I2
tp1144
a(S'w'
I10
tp1145
a(S'p2_vo'
I3
tp1146
a(S'w'
I739
tp1147
a(S'p1_vo'
I3
tp1148
a(S'w'
I5
tp1149
a(S'p1_tl'
I135
tp1150
a(S'w'
I1
tp1151
a(S'p1_ll'
I1
tp1152
a(S'w'
I6
tp1153
a(S'p2_du'
I1
tp1154
a(S'p2_vo'
I7
tp1155
a(S'w'
I6
tp1156
a(S'p2_ll'
I1
tp1157
a(S'w'
I13
tp1158
a(S'no_vo'
I1
tp1159
a(S'w'
I688
tp1160
a(S'p1_vo'
I2
tp1161
a(S'w'
I9
tp1162
a(S'p2_vo'
I3
tp1163
a(S'w'
I734
tp1164
a(S'p2_vo'
I4
tp1165
a(S'w'
I724
tp1166
a(S'p1_vo'
I0
tp1167
a(S'w'
I734
tp1168
a(S'p1_vo'
I3
tp1169
a(S'w'
I10
tp1170
a(S'p2_vo'
I2
tp1171
a(S'w'
I724
tp1172
a(S'p1_vo'
I2
tp1173
a(S'w'
I759
tp1174
a(S'p1_vo'
I3
tp1175
a(S'w'
I6
tp1176
a(S'p1_tl'
I160
tp1177
a(S'p1_ll'
I1
tp1178
a(S'w'
I6
tp1179
a(S'p2_du'
I2
tp1180
a(S'p2_vo'
I7
tp1181
a(S'w'
I6
tp1182
a(S'p2_ll'
I1
tp1183
a(S'w'
I7
tp1184
a(S'tr_lr'
I0
tp1185
a(S'w'
I4
tp1186
a(S'tr_ll'
I1
tp1187
a(S'w'
I6
tp1188
a(S'no_vo'
I8
tp1189
a(S'w'
I4
tp1190
a(S'no_np'
I3
tp1191
a(S'w'
I1
tp1192
a(S'no_ll'
I3
tp1193
a(S'w'
I671
tp1194
a(S'p1_vo'
I2
tp1195
a(S'w'
I9
tp1196
a(S'p2_vo'
I6
tp1197
a(S'w'
I16
tp1198
a(S'no_vo'
I3
tp1199
a(S'w'
I718
tp1200
a(S'p2_vo'
I5
tp1201
a(S'w'
I16
tp1202
a(S'no_vo'
I2
tp1203
a(S'w'
I708
tp1204
a(S'p1_vo'
I0
tp1205
a(S'w'
I10
tp1206
a(S'p2_vo'
I4
tp1207
a(S'w'
I15
tp1208
a(S'no_vo'
I1
tp1209
a(S'w'
I709
tp1210
a(S'p1_vo'
I3
tp1211
a(S'w'
I10
tp1212
a(S'p2_vo'
I0
tp1213
a(S'w'
I15
tp1214
a(S'no_vo'
I0
tp1215
a(S'w'
I707
tp1216
a(S'p1_vo'
I2
tp1217
a(S'w'
I9
tp1218
a(S'p2_vo'
I3
tp1219
a(S'w'
I737
tp1220
a(S'p1_vo'
I3
tp1221
a(S'w'
I6
tp1222
a(S'p1_tl'
I135
tp1223
a(S'w'
I1
tp1224
a(S'p1_ll'
I1
tp1225
a(S'w'
I6
tp1226
a(S'p2_du'
I3
tp1227
a(S'p2_vo'
I7
tp1228
a(S'w'
I5
tp1229
a(S'w'
I1
tp1230
a(S'p2_ll'
I1
tp1231
a(S'w'
I702
tp1232
a(S'p1_vo'
I2
tp1233
a(S'w'
I10
tp1234
a(S'p2_vo'
I3
tp1235
a(S'w'
I734
tp1236
a(S'p2_vo'
I4
tp1237
a(S'w'
I724
tp1238
a(S'p1_vo'
I0
tp1239
a(S'w'
I734
tp1240
a(S'p1_vo'
I3
tp1241
a(S'w'
I9
tp1242
a(S'p2_vo'
I2
tp1243
a(S'w'
I724
tp1244
a(S'p1_vo'
I2
tp1245
a(S'w'
I776
tp1246
a(S'p1_du'
I2
tp1247
a(S'w'
I5
tp1248
a(S'p1_tl'
I160
tp1249
a(S'w'
I1
tp1250
a(S'p1_ll'
I1
tp1251
a(S'w'
I6
tp1252
a(S'p2_du'
I0
tp1253
a(S'p2_vo'
I7
tp1254
a(S'w'
I5
tp1255
a(S'w'
I1
tp1256
a(S'p2_ll'
I1
tp1257
a(S'w'
I5
tp1258
a(S'tr_lr'
I126
tp1259
a(S'w'
I2
tp1260
a(S'tr_lr'
I0
tp1261
a(S'w'
I3
tp1262
a(S'tr_ll'
I1
tp1263
a(S'w'
I6
tp1264
a(S'no_vo'
I8
tp1265
a(S'w'
I5
tp1266
a(S'no_ll'
I3
tp1267
a(S'w'
I655
tp1268
a(S'p1_vo'
I1
tp1269
a(S'w'
I10
tp1270
a(S'p2_vo'
I6
tp1271
a(S'w'
I15
tp1272
a(S'no_vo'
I3
tp1273
a(S'w'
I719
tp1274
a(S'p2_vo'
I5
tp1275
a(S'w'
I15
tp1276
a(S'no_vo'
I2
tp1277
a(S'w'
I709
tp1278
a(S'p1_vo'
I0
tp1279
a(S'w'
I10
tp1280
a(S'p2_vo'
I4
tp1281
a(S'w'
I15
tp1282
a(S'no_vo'
I1
tp1283
a(S'w'
I709
tp1284
a(S'p1_vo'
I2
tp1285
a(S'w'
I9
tp1286
a(S'p2_vo'
I0
tp1287
a(S'w'
I16
tp1288
a(S'no_vo'
I0
tp1289
a(S'w'
I706
tp1290
a(S'p1_vo'
I1
tp1291
a(S'w'
I10
tp1292
a(S'p2_vo'
I3
tp1293
a(S'w'
I737
tp1294
a(S'p1_vo'
I2
tp1295
a(S'w'
I6
tp1296
a(S'p1_tl'
I135
tp1297
a(S'p1_ll'
I1
tp1298
a(S'w'
I6
tp1299
a(S'p2_du'
I1
tp1300
a(S'p2_vo'
I7
tp1301
a(S'w'
I6
tp1302
a(S'p2_ll'
I1
tp1303
a(S'w'
I703
tp1304
a(S'p1_vo'
I1
tp1305
a(S'w'
I10
tp1306
a(S'p2_vo'
I3
tp1307
a(S'w'
I733
tp1308
a(S'p2_vo'
I4
tp1309
a(S'w'
I724
tp1310
a(S'p1_vo'
I0
tp1311
a(S'w'
I734
tp1312
a(S'p1_vo'
I2
tp1313
a(S'w'
I10
tp1314
a(S'p2_vo'
I2
tp1315
a(S'w'
I724
tp1316
a(S'p1_vo'
I1
tp1317
a(S'w'
I763
tp1318
a(S'p1_vo'
I2
tp1319
a(S'w'
I6
tp1320
a(S'p1_tl'
I160
tp1321
a(S'w'
I1
tp1322
a(S'p1_ll'
I1
tp1323
a(S'w'
I6
tp1324
a(S'p2_du'
I2
tp1325
a(S'p2_vo'
I7
tp1326
a(S'w'
I5
tp1327
a(S'w'
I1
tp1328
a(S'p2_ll'
I1
tp1329
a(S'w'
I5
tp1330
a(S'tr_lh'
I0
tp1331
a(S'tr_lr'
I15
tp1332
a(S'w'
I6
tp1333
a(S'tr_tl'
I252
tp1334
a(S'tr_ll'
I1
tp1335
a(S'tr_th'
I1
tp1336
a(S'w'
I6
tp1337
a(S'no_vo'
I10
tp1338
a(S'w'
I5
tp1339
a(S'no_ll'
I3
tp1340
a(S'w'
I667
tp1341
a(S'p1_vo'
I1
tp1342
a(S'w'
I10
tp1343
a(S'p2_vo'
I6
tp1344
a(S'w'
I18
tp1345
a(S'no_vo'
I0
tp1346
a(S'w'
I723
tp1347
a(S'p2_vo'
I5
tp1348
a(S'w'
I9
tp1349
a(S'tr_lh'
I1
tp1350
a(S'tr_lr'
I126
tp1351
a(S'w'
I6
tp1352
a(S'tr_tl'
I1
tp1353
a(S'tr_ll'
I1
tp1354
a(S'tr_th'
I5
tp1355
a(S'w'
I6
tp1356
a(S'no_vo'
I5
tp1357
a(S'w'
I692
tp1358
a(S'p1_vo'
I0
tp1359
a(S'w'
I10
tp1360
a(S'p2_vo'
I4
tp1361
a(S'w'
I726
tp1362
a(S'p1_vo'
I2
tp1363
a(S'w'
I10
tp1364
a(S'p2_vo'
I0
tp1365
a(S'w'
I16
tp1366
a(S'no_vo'
I3
tp1367
a(S'w'
I708
tp1368
a(S'p1_vo'
I1
tp1369
a(S'w'
I10
tp1370
a(S'p2_vo'
I3
tp1371
a(S'w'
I16
tp1372
a(S'no_vo'
I1
tp1373
a(S'w'
I721
tp1374
a(S'p1_vo'
I2
tp1375
a(S'w'
I5
tp1376
a(S'p1_tl'
I135
tp1377
a(S'w'
I1
tp1378
a(S'p1_ll'
I1
tp1379
a(S'w'
I6
tp1380
a(S'p2_du'
I3
tp1381
a(S'p2_vo'
I7
tp1382
a(S'w'
I6
tp1383
a(S'p2_ll'
I1
tp1384
a(S'w'
I13
tp1385
a(S'no_vo'
I0
tp1386
a(S'w'
I687
tp1387
a(S'p1_vo'
I1
tp1388
a(S'w'
I10
tp1389
a(S'p2_vo'
I3
tp1390
a(S'w'
I734
tp1391
a(S'p2_vo'
I4
tp1392
a(S'w'
I724
tp1393
a(S'p1_vo'
I0
tp1394
a(S'w'
I734
tp1395
a(S'p1_vo'
I2
tp1396
a(S'w'
I10
tp1397
a(S'p2_vo'
I2
tp1398
a(S'w'
I724
tp1399
a(S'p1_vo'
I1
tp1400
a(S'w'
I770
tp1401
a(S'p1_du'
I3
tp1402
a(S'p1_vo'
I2
tp1403
a(S'w'
I5
tp1404
a(S'p1_tl'
I160
tp1405
a(S'w'
I1
tp1406
a(S'p1_ll'
I1
tp1407
a(S'w'
I6
tp1408
a(S'p2_du'
I0
tp1409
a(S'p2_vo'
I7
tp1410
a(S'w'
I5
tp1411
a(S'w'
I1
tp1412
a(S'p2_ll'
I1
tp1413
a(S'w'
I5
tp1414
a(S'tr_lh'
I0
tp1415
a(S'tr_lr'
I6
tp1416
a(S'w'
I6
tp1417
a(S'tr_tl'
I13
tp1418
a(S'tr_ll'
I1
tp1419
a(S'tr_th'
I1
tp1420
a(S'w'
I7
tp1421
a(S'no_vo'
I7
tp1422
a(S'w'
I4
tp1423
a(S'no_np'
I5
tp1424
a(S'w'
I1
tp1425
a(S'no_ll'
I3
tp1426
a(S'w'
I660
tp1427
a(S'p1_vo'
I1
tp1428
a(S'w'
I9
tp1429
a(S'p2_vo'
I6
tp1430
a(S'w'
I19
tp1431
a(S'no_vo'
I3
tp1432
a(S'w'
I723
tp1433
a(S'p2_vo'
I5
tp1434
a(S'w'
I9
tp1435
a(S'tr_lh'
I1
tp1436
a(S'tr_lr'
I126
tp1437
a(S'w'
I5
tp1438
a(S'tr_tl'
I117
tp1439
a(S'w'
I1
tp1440
a(S'tr_ll'
I1
tp1441
a(S'tr_th'
I4
tp1442
a(S'w'
I6
tp1443
a(S'no_vo'
I5
tp1444
a(S'w'
I694
tp1445
a(S'p1_vo'
I0
tp1446
a(S'w'
I10
tp1447
a(S'p2_vo'
I4
tp1448
a(S'w'
I16
tp1449
a(S'no_vo'
I3
tp1450
a(S'w'
I706
tp1451
a(S'p1_vo'
I2
tp1452
a(S'w'
I9
tp1453
a(S'p2_vo'
I0
tp1454
a(S'w'
I724
tp1455
a(S'p1_vo'
I1
tp1456
a(S'w'
I10
tp1457
a(S'p2_vo'
I3
tp1458
a(S'w'
I739
tp1459
a(S'p1_vo'
I2
tp1460
a(S'w'
I6
tp1461
a(S'p1_tl'
I135
tp1462
a(S'p1_ll'
I1
tp1463
a(S'w'
I6
tp1464
a(S'p2_du'
I1
tp1465
a(S'p2_vo'
I7
tp1466
a(S'w'
I6
tp1467
a(S'w'
I1
tp1468
a(S'p2_ll'
I1
tp1469
a(S'w'
I12
tp1470
a(S'no_vo'
I1
tp1471
a(S'w'
I688
tp1472
a(S'p1_vo'
I1
tp1473
a(S'w'
I10
tp1474
a(S'p2_vo'
I3
tp1475
a(S'w'
I734
tp1476
a(S'p2_vo'
I4
tp1477
a(S'w'
I724
tp1478
a(S'p1_vo'
I0
tp1479
a(S'w'
I733
tp1480
a(S'p1_vo'
I2
tp1481
a(S'w'
I10
tp1482
a(S'p2_vo'
I2
tp1483
a(S'w'
I724
tp1484
a(S'p1_vo'
I1
tp1485
a(S'w'
I759
tp1486
a(S'p1_vo'
I2
tp1487
a(S'w'
I6
tp1488
a(S'p1_tl'
I160
tp1489
a(S'w'
I1
tp1490
a(S'p1_ll'
I1
tp1491
a(S'w'
I6
tp1492
a(S'p2_du'
I2
tp1493
a(S'p2_vo'
I7
tp1494
a(S'w'
I5
tp1495
a(S'w'
I1
tp1496
a(S'p2_ll'
I1
tp1497
a(S'w'
I7
tp1498
a(S'tr_lr'
I0
tp1499
a(S'w'
I3
tp1500
a(S'tr_ll'
I1
tp1501
a(S'w'
I6
tp1502
a(S'no_vo'
I8
tp1503
a(S'w'
I5
tp1504
a(S'no_np'
I3
tp1505
a(S'no_ll'
I3
tp1506
a(S'w'
I671
tp1507
a(S'p1_vo'
I1
tp1508
a(S'w'
I10
tp1509
a(S'p2_vo'
I6
tp1510
a(S'w'
I15
tp1511
a(S'no_vo'
I3
tp1512
a(S'w'
I719
tp1513
a(S'p2_vo'
I5
tp1514
a(S'w'
I15
tp1515
a(S'no_vo'
I2
tp1516
a(S'w'
I709
tp1517
a(S'p1_vo'
I0
tp1518
a(S'w'
I9
tp1519
a(S'p2_vo'
I4
tp1520
a(S'w'
I16
tp1521
a(S'no_vo'
I1
tp1522
a(S'w'
I708
tp1523
a(S'p1_vo'
I2
tp1524
a(S'w'
I10
tp1525
a(S'p2_vo'
I0
tp1526
a(S'w'
I16
tp1527
a(S'no_vo'
I0
tp1528
a(S'w'
I706
tp1529
a(S'p1_vo'
I1
tp1530
a(S'w'
I10
tp1531
a(S'p2_vo'
I3
tp1532
a(S'w'
I737
tp1533
a(S'p1_vo'
I2
tp1534
a(S'w'
I5
tp1535
a(S'p1_tl'
I135
tp1536
a(S'w'
I1
tp1537
a(S'p1_ll'
I1
tp1538
a(S'w'
I6
tp1539
a(S'p2_du'
I3
tp1540
a(S'p2_vo'
I7
tp1541
a(S'w'
I6
tp1542
a(S'p2_ll'
I1
tp1543
a(S'w'
I703
tp1544
a(S'p1_vo'
I1
tp1545
a(S'w'
I10
tp1546
a(S'p2_vo'
I3
tp1547
a(S'w'
I733
tp1548
a(S'p2_vo'
I4
tp1549
a(S'w'
I724
tp1550
a(S'p1_vo'
I0
tp1551
a(S'w'
I734
tp1552
a(S'p1_vo'
I2
tp1553
a(S'w'
I10
tp1554
a(S'p2_vo'
I2
tp1555
a(S'w'
I724
tp1556
a(S'p1_vo'
I1
tp1557
a(S'w'
I787
tp1558
a(S'p1_vo'
I7
tp1559
a(S'w'
I5
tp1560
a(S'p1_tl'
I172
tp1561
a(S'w'
I1
tp1562
a(S'p1_ll'
I1
tp1563
a(S'p1_th'
I1
tp1564
a(S'w'
I6
tp1565
a(S'p2_du'
I0
tp1566
a(S'p2_vo'
I7
tp1567
a(S'w'
I5
tp1568
a(S'w'
I1
tp1569
a(S'p2_ll'
I1
tp1570
a(S'w'
I5
tp1571
a(S'tr_lr'
I126
tp1572
a(S'w'
I6
tp1573
a(S'tr_tl'
I192
tp1574
a(S'w'
I1
tp1575
a(S'tr_ll'
I1
tp1576
a(S'tr_th'
I3
tp1577
a(S'w'
I6
tp1578
a(S'no_vo'
I8
tp1579
a(S'w'
I4
tp1580
a(S'w'
I1
tp1581
a(S'no_ll'
I3
tp1582
a(S'w'
I642
tp1583
a(S'p1_vo'
I3
tp1584
a(S'w'
I9
tp1585
a(S'p2_vo'
I6
tp1586
a(S'w'
I17
tp1587
a(S'no_vo'
I3
tp1588
a(S'w'
I707
tp1589
a(S'p1_vo'
I4
tp1590
a(S'w'
I10
tp1591
a(S'p2_vo'
I5
tp1592
a(S'w'
I17
tp1593
a(S'no_vo'
I2
tp1594
a(S'w'
I717
tp1595
a(S'p2_vo'
I4
tp1596
a(S'w'
I17
tp1597
a(S'no_vo'
I1
tp1598
a(S'w'
I707
tp1599
a(S'p1_vo'
I2
tp1600
a(S'w'
I10
tp1601
a(S'p2_vo'
I0
tp1602
a(S'w'
I16
tp1603
a(S'no_vo'
I0
tp1604
a(S'w'
I715
tp1605
a(S'p2_vo'
I3
tp1606
a(S'w'
I737
tp1607
a(S'p1_du'
I0
tp1608
a(S'p1_vo'
I7
tp1609
a(S'w'
I6
tp1610
a(S'p1_ll'
I1
tp1611
a(S'w'
I6
tp1612
a(S'p2_du'
I1
tp1613
a(S'p2_vo'
I7
tp1614
a(S'w'
I6
tp1615
a(S'w'
I1
tp1616
a(S'p2_ll'
I1
tp1617
a(S'w'
I702
tp1618
a(S'p1_vo'
I3
tp1619
a(S'w'
I10
tp1620
a(S'p2_vo'
I6
tp1621
a(S'w'
I724
tp1622
a(S'p1_vo'
I4
tp1623
a(S'w'
I10
tp1624
a(S'p2_vo'
I5
tp1625
a(S'w'
I734
tp1626
a(S'p2_vo'
I4
tp1627
a(S'w'
I724
tp1628
a(S'p1_vo'
I2
tp1629
a(S'w'
I9
tp1630
a(S'p2_vo'
I0
tp1631
a(S'w'
I734
tp1632
a(S'p2_vo'
I3
tp1633
a(S'w'
I754
tp1634
a(S'p1_du'
I1
tp1635
a(S'p1_vo'
I7
tp1636
a(S'w'
I6
tp1637
a(S'w'
I1
tp1638
a(S'p1_ll'
I1
tp1639
a(S'w'
I6
tp1640
a(S'p2_du'
I2
tp1641
a(S'p2_vo'
I7
tp1642
a(S'w'
I5
tp1643
a(S'w'
I1
tp1644
a(S'p2_ll'
I1
tp1645
a(S'w'
I5
tp1646
a(S'tr_lh'
I0
tp1647
a(S'tr_lr'
I15
tp1648
a(S'w'
I6
tp1649
a(S'tr_tl'
I252
tp1650
a(S'tr_ll'
I1
tp1651
a(S'tr_th'
I1
tp1652
a(S'w'
I6
tp1653
a(S'no_vo'
I10
tp1654
a(S'w'
I5
tp1655
a(S'no_ll'
I3
tp1656
a(S'w'
I666
tp1657
a(S'p1_vo'
I3
tp1658
a(S'w'
I10
tp1659
a(S'p2_vo'
I6
tp1660
a(S'w'
I19
tp1661
a(S'no_vo'
I0
tp1662
a(S'w'
I713
tp1663
a(S'p1_vo'
I4
tp1664
a(S'w'
I9
tp1665
a(S'p2_vo'
I5
tp1666
a(S'w'
I9
tp1667
a(S'tr_lh'
I1
tp1668
a(S'tr_lr'
I126
tp1669
a(S'w'
I6
tp1670
a(S'tr_tl'
I87
tp1671
a(S'w'
I1
tp1672
a(S'tr_ll'
I1
tp1673
a(S'tr_th'
I3
tp1674
a(S'w'
I6
tp1675
a(S'no_vo'
I5
tp1676
a(S'w'
I701
tp1677
a(S'p2_vo'
I4
tp1678
a(S'w'
I727
tp1679
a(S'p1_vo'
I2
tp1680
a(S'w'
I9
tp1681
a(S'p2_vo'
I0
tp1682
a(S'w'
I17
tp1683
a(S'no_vo'
I3
tp1684
a(S'w'
I717
tp1685
a(S'p2_vo'
I3
tp1686
a(S'w'
I17
tp1687
a(S'no_vo'
I1
tp1688
a(S'w'
I747
tp1689
a(S'p1_du'
I2
tp1690
a(S'p1_vo'
I7
tp1691
a(S'w'
I5
tp1692
a(S'w'
I1
tp1693
a(S'p1_ll'
I1
tp1694
a(S'w'
I6
tp1695
a(S'p2_du'
I3
tp1696
a(S'p2_vo'
I7
tp1697
a(S'w'
I5
tp1698
a(S'w'
I1
tp1699
a(S'p2_ll'
I1
tp1700
a(S'w'
I5
tp1701
a(S'tr_lh'
I0
tp1702
a(S'tr_lr'
I15
tp1703
a(S'w'
I6
tp1704
a(S'tr_tl'
I252
tp1705
a(S'tr_ll'
I1
tp1706
a(S'tr_th'
I1
tp1707
a(S'w'
I6
tp1708
a(S'no_vo'
I10
tp1709
a(S'w'
I5
tp1710
a(S'no_ll'
I3
tp1711
a(S'w'
I655
tp1712
a(S'p1_vo'
I3
tp1713
a(S'w'
I10
tp1714
a(S'p2_vo'
I6
tp1715
a(S'w'
I19
tp1716
a(S'no_vo'
I0
tp1717
a(S'w'
I713
tp1718
a(S'p1_vo'
I4
tp1719
a(S'w'
I9
tp1720
a(S'p2_vo'
I5
tp1721
a(S'w'
I9
tp1722
a(S'tr_lh'
I1
tp1723
a(S'tr_lr'
I126
tp1724
a(S'w'
I6
tp1725
a(S'tr_tl'
I87
tp1726
a(S'tr_ll'
I1
tp1727
a(S'tr_th'
I3
tp1728
a(S'w'
I6
tp1729
a(S'no_vo'
I5
tp1730
a(S'w'
I702
tp1731
a(S'p2_vo'
I4
tp1732
a(S'w'
I726
tp1733
a(S'p1_vo'
I2
tp1734
a(S'w'
I10
tp1735
a(S'p2_vo'
I0
tp1736
a(S'w'
I17
tp1737
a(S'no_vo'
I3
tp1738
a(S'w'
I717
tp1739
a(S'p2_vo'
I3
tp1740
a(S'w'
I17
tp1741
a(S'no_vo'
I1
tp1742
a(S'w'
I750
tp1743
a(S'p1_du'
I3
tp1744
a(S'p1_vo'
I7
tp1745
a(S'w'
I6
tp1746
a(S'p1_ll'
I1
tp1747
a(S'w'
I6
tp1748
a(S'p2_du'
I0
tp1749
a(S'p2_vo'
I7
tp1750
a(S'w'
I6
tp1751
a(S'p2_ll'
I1
tp1752
a(S'w'
I6
tp1753
a(S'tr_lh'
I0
tp1754
a(S'tr_lr'
I6
tp1755
a(S'w'
I5
tp1756
a(S'tr_tl'
I13
tp1757
a(S'w'
I1
tp1758
a(S'tr_ll'
I1
tp1759
a(S'tr_th'
I1
tp1760
a(S'w'
I6
tp1761
a(S'no_vo'
I7
tp1762
a(S'w'
I4
tp1763
a(S'no_np'
I5
tp1764
a(S'w'
I1
tp1765
a(S'no_ll'
I3
tp1766
a(S'w'
I651
tp1767
a(S'p1_vo'
I3
tp1768
a(S'w'
I10
tp1769
a(S'p2_vo'
I6
tp1770
a(S'w'
I18
tp1771
a(S'no_vo'
I3
tp1772
a(S'w'
I713
tp1773
a(S'p1_vo'
I4
tp1774
a(S'w'
I10
tp1775
a(S'p2_vo'
I5
tp1776
a(S'w'
I9
tp1777
a(S'tr_lh'
I1
tp1778
a(S'tr_lr'
I126
tp1779
a(S'w'
I6
tp1780
a(S'tr_tl'
I250
tp1781
a(S'tr_ll'
I1
tp1782
a(S'tr_th'
I2
tp1783
a(S'w'
I6
tp1784
a(S'no_vo'
I5
tp1785
a(S'w'
I704
tp1786
a(S'p2_vo'
I4
tp1787
a(S'w'
I17
tp1788
a(S'no_vo'
I3
tp1789
a(S'w'
I705
tp1790
a(S'p1_vo'
I2
tp1791
a(S'w'
I10
tp1792
a(S'p2_vo'
I0
tp1793
a(S'w'
I734
tp1794
a(S'p2_vo'
I3
tp1795
a(S'w'
I739
tp1796
a(S'p1_du'
I0
tp1797
a(S'p1_vo'
I7
tp1798
a(S'w'
I5
tp1799
a(S'w'
I1
tp1800
a(S'p1_ll'
I1
tp1801
a(S'w'
I6
tp1802
a(S'p2_du'
I1
tp1803
a(S'p2_vo'
I7
tp1804
a(S'w'
I5
tp1805
a(S'w'
I1
tp1806
a(S'p2_ll'
I1
tp1807
a(S'w'
I13
tp1808
a(S'no_vo'
I1
tp1809
a(S'w'
I688
tp1810
a(S'p1_vo'
I3
tp1811
a(S'w'
I9
tp1812
a(S'p2_vo'
I6
tp1813
a(S'w'
I724
tp1814
a(S'p1_vo'
I4
tp1815
a(S'w'
I10
tp1816
a(S'p2_vo'
I5
tp1817
a(S'w'
I734
tp1818
a(S'p2_vo'
I4
tp1819
a(S'w'
I724
tp1820
a(S'p1_vo'
I2
tp1821
a(S'w'
I10
tp1822
a(S'p2_vo'
I0
tp1823
a(S'w'
I733
tp1824
a(S'p2_vo'
I3
tp1825
a(S'w'
I751
tp1826
a(S'p1_du'
I1
tp1827
a(S'p1_vo'
I7
tp1828
a(S'w'
I6
tp1829
a(S'p1_ll'
I1
tp1830
a(S'w'
I6
tp1831
a(S'p2_du'
I2
tp1832
a(S'p2_vo'
I7
tp1833
a(S'w'
I6
tp1834
a(S'p2_ll'
I1
tp1835
a(S'w'
I11
tp1836
a(S'tr_tl'
I207
tp1837
a(S'w'
I1
tp1838
a(S'tr_ll'
I1
tp1839
a(S'w'
I6
tp1840
a(S'no_vo'
I8
tp1841
a(S'w'
I4
tp1842
a(S'no_np'
I3
tp1843
a(S'w'
I1
tp1844
a(S'no_ll'
I3
tp1845
a(S'w'
I669
tp1846
a(S'p1_vo'
I3
tp1847
a(S'w'
I9
tp1848
a(S'p2_vo'
I6
tp1849
a(S'w'
I17
tp1850
a(S'no_vo'
I3
tp1851
a(S'w'
I707
tp1852
a(S'p1_vo'
I4
tp1853
a(S'w'
I10
tp1854
a(S'p2_vo'
I5
tp1855
a(S'w'
I17
tp1856
a(S'no_vo'
I2
tp1857
a(S'w'
I717
tp1858
a(S'p2_vo'
I4
tp1859
a(S'w'
I16
tp1860
a(S'no_vo'
I1
tp1861
a(S'w'
I714
tp1862
a(S'p1_vo'
I2
tp1863
a(S'w'
I9
tp1864
a(S'p2_vo'
I0
tp1865
a(S'w'
I15
tp1866
a(S'tr_tl'
I174
tp1867
a(S'tr_ll'
I1
tp1868
a(S'tr_th'
I6
tp1869
a(S'w'
I6
tp1870
a(S'no_vo'
I0
tp1871
a(S'w'
I705
tp1872
a(S'p2_vo'
I3
tp1873
a(S'w'
I743
tp1874
a(S'p1_du'
I2
tp1875
a(S'p1_vo'
I7
tp1876
a(S'w'
I5
tp1877
a(S'w'
I1
tp1878
a(S'p1_ll'
I1
tp1879
a(S'w'
I6
tp1880
a(S'p2_du'
I3
tp1881
a(S'p2_vo'
I7
tp1882
a(S'w'
I6
tp1883
a(S'p2_ll'
I1
tp1884
a(S'w'
I11
tp1885
a(S'tr_tl'
I167
tp1886
a(S'w'
I1
tp1887
a(S'tr_ll'
I1
tp1888
a(S'tr_th'
I2
tp1889
a(S'w'
I685
tp1890
a(S'p1_vo'
I3
tp1891
a(S'w'
I10
tp1892
a(S'p2_vo'
I6
tp1893
a(S'w'
I724
tp1894
a(S'p1_vo'
I4
tp1895
a(S'w'
I10
tp1896
a(S'p2_vo'
I5
tp1897
a(S'w'
I733
tp1898
a(S'p2_vo'
I4
tp1899
a(S'w'
I730
tp1900
a(S'p1_vo'
I2
tp1901
a(S'w'
I10
tp1902
a(S'p2_vo'
I0
tp1903
a(S'w'
I15
tp1904
a(S'tr_tl'
I174
tp1905
a(S'tr_ll'
I1
tp1906
a(S'tr_th'
I6
tp1907
a(S'w'
I713
tp1908
a(S'p2_vo'
I3
tp1909
a(S'w'
I794
tp1910
a(S'p1_vo'
I5
tp1911
a(S'w'
I6
tp1912
a(S'p1_tl'
I143
tp1913
a(S'p1_ll'
I1
tp1914
a(S'p1_th'
I0
tp1915
a(S'w'
I6
tp1916
a(S'p2_du'
I0
tp1917
a(S'p2_vo'
I7
tp1918
a(S'w'
I6
tp1919
a(S'p2_tl'
I129
tp1920
a(S'p2_ll'
I1
tp1921
a(S'p2_th'
I2
tp1922
a(S'w'
I6
tp1923
a(S'tr_lh'
I0
tp1924
a(S'tr_lr'
I15
tp1925
a(S'w'
I5
tp1926
a(S'tr_tl'
I252
tp1927
a(S'w'
I1
tp1928
a(S'tr_ll'
I1
tp1929
a(S'tr_th'
I1
tp1930
a(S'w'
I6
tp1931
a(S'no_vo'
I10
tp1932
a(S'w'
I4
tp1933
a(S'w'
I1
tp1934
a(S'no_ll'
I3
tp1935
a(S'w'
I626
tp1936
a(S'p1_vo'
I4
tp1937
a(S'w'
I10
tp1938
a(S'p2_vo'
I6
tp1939
a(S'w'
I19
tp1940
a(S'no_vo'
I0
tp1941
a(S'w'
I713
tp1942
a(S'p1_vo'
I3
tp1943
a(S'w'
I9
tp1944
a(S'p2_vo'
I5
tp1945
a(S'w'
I9
tp1946
a(S'tr_lh'
I1
tp1947
a(S'tr_lr'
I126
tp1948
a(S'w'
I6
tp1949
a(S'tr_tl'
I129
tp1950
a(S'tr_ll'
I1
tp1951
a(S'tr_th'
I2
tp1952
a(S'w'
I6
tp1953
a(S'no_vo'
I5
tp1954
a(S'w'
I693
tp1955
a(S'p1_vo'
I0
tp1956
a(S'w'
I9
tp1957
a(S'p2_vo'
I4
tp1958
a(S'w'
I727
tp1959
a(S'p1_vo'
I5
tp1960
a(S'w'
I9
tp1961
a(S'p2_vo'
I0
tp1962
a(S'w'
I17
tp1963
a(S'no_vo'
I3
tp1964
a(S'w'
I707
tp1965
a(S'p1_vo'
I4
tp1966
a(S'w'
I10
tp1967
a(S'p2_vo'
I3
tp1968
a(S'w'
I17
tp1969
a(S'no_vo'
I1
tp1970
a(S'w'
I720
tp1971
a(S'p1_vo'
I5
tp1972
a(S'w'
I6
tp1973
a(S'p1_tl'
I120
tp1974
a(S'p1_ll'
I1
tp1975
a(S'w'
I6
tp1976
a(S'p2_du'
I1
tp1977
a(S'p2_vo'
I7
tp1978
a(S'w'
I6
tp1979
a(S'p2_ll'
I1
tp1980
a(S'w'
I13
tp1981
a(S'no_vo'
I0
tp1982
a(S'w'
I688
tp1983
a(S'p1_vo'
I4
tp1984
a(S'w'
I10
tp1985
a(S'p2_vo'
I3
tp1986
a(S'w'
I724
tp1987
a(S'p1_vo'
I3
tp1988
a(S'w'
I9
tp1989
a(S'p2_vo'
I4
tp1990
a(S'w'
I724
tp1991
a(S'p1_vo'
I0
tp1992
a(S'w'
I734
tp1993
a(S'p1_vo'
I5
tp1994
a(S'w'
I10
tp1995
a(S'p2_vo'
I2
tp1996
a(S'w'
I724
tp1997
a(S'p1_vo'
I4
tp1998
a(S'w'
I760
tp1999
a(S'p1_vo'
I5
tp2000
a(S'w'
I6
tp2001
a(S'p1_tl'
I143
tp2002
a(S'w'
I1
tp2003
a(S'p1_ll'
I1
tp2004
a(S'w'
I6
tp2005
a(S'p2_du'
I2
tp2006
a(S'p2_vo'
I7
tp2007
a(S'w'
I5
tp2008
a(S'p2_tl'
I250
tp2009
a(S'w'
I1
tp2010
a(S'p2_ll'
I1
tp2011
a(S'w'
I5
tp2012
a(S'tr_lh'
I0
tp2013
a(S'tr_lr'
I15
tp2014
a(S'w'
I6
tp2015
a(S'tr_tl'
I252
tp2016
a(S'tr_ll'
I1
tp2017
a(S'tr_th'
I1
tp2018
a(S'w'
I6
tp2019
a(S'no_vo'
I10
tp2020
a(S'w'
I5
tp2021
a(S'no_ll'
I3
tp2022
a(S'w'
I670
tp2023
a(S'p1_vo'
I4
tp2024
a(S'w'
I10
tp2025
a(S'p2_vo'
I6
tp2026
a(S'w'
I18
tp2027
a(S'no_vo'
I0
tp2028
a(S'w'
I713
tp2029
a(S'p1_vo'
I3
tp2030
a(S'w'
I10
tp2031
a(S'p2_vo'
I5
tp2032
a(S'w'
I9
tp2033
a(S'tr_lh'
I1
tp2034
a(S'tr_lr'
I126
tp2035
a(S'w'
I5
tp2036
a(S'tr_tl'
I250
tp2037
a(S'w'
I1
tp2038
a(S'tr_ll'
I1
tp2039
a(S'tr_th'
I2
tp2040
a(S'w'
I6
tp2041
a(S'no_vo'
I5
tp2042
a(S'w'
I692
tp2043
a(S'p1_vo'
I0
tp2044
a(S'w'
I10
tp2045
a(S'p2_vo'
I4
tp2046
a(S'w'
I726
tp2047
a(S'p1_vo'
I5
tp2048
a(S'w'
I10
tp2049
a(S'p2_vo'
I0
tp2050
a(S'w'
I16
tp2051
a(S'no_vo'
I3
tp2052
a(S'w'
I708
tp2053
a(S'p1_vo'
I4
tp2054
a(S'w'
I10
tp2055
a(S'p2_vo'
I3
tp2056
a(S'w'
I16
tp2057
a(S'no_vo'
I1
tp2058
a(S'w'
I721
tp2059
a(S'p1_vo'
I5
tp2060
a(S'w'
I5
tp2061
a(S'p1_tl'
I120
tp2062
a(S'w'
I1
tp2063
a(S'p1_ll'
I1
tp2064
a(S'w'
I6
tp2065
a(S'p2_du'
I3
tp2066
a(S'p2_vo'
I7
tp2067
a(S'w'
I6
tp2068
a(S'p2_ll'
I1
tp2069
a(S'w'
I13
tp2070
a(S'no_vo'
I0
tp2071
a(S'w'
I687
tp2072
a(S'p1_vo'
I4
tp2073
a(S'w'
I10
tp2074
a(S'p2_vo'
I3
tp2075
a(S'w'
I724
tp2076
a(S'p1_vo'
I3
tp2077
a(S'w'
I10
tp2078
a(S'p2_vo'
I4
tp2079
a(S'w'
I724
tp2080
a(S'p1_vo'
I0
tp2081
a(S'w'
I734
tp2082
a(S'p1_vo'
I5
tp2083
a(S'w'
I10
tp2084
a(S'p2_vo'
I2
tp2085
a(S'w'
I724
tp2086
a(S'p1_vo'
I4
tp2087
a(S'w'
I767
tp2088
a(S'p1_du'
I3
tp2089
a(S'p1_vo'
I5
tp2090
a(S'w'
I5
tp2091
a(S'p1_tl'
I143
tp2092
a(S'w'
I1
tp2093
a(S'p1_ll'
I1
tp2094
a(S'w'
I6
tp2095
a(S'p2_du'
I0
tp2096
a(S'p2_vo'
I7
tp2097
a(S'w'
I5
tp2098
a(S'p2_tl'
I1
tp2099
a(S'w'
I1
tp2100
a(S'p2_ll'
I1
tp2101
a(S'p2_th'
I5
tp2102
a(S'w'
I5
tp2103
a(S'tr_lh'
I0
tp2104
a(S'tr_lr'
I6
tp2105
a(S'w'
I6
tp2106
a(S'tr_tl'
I13
tp2107
a(S'tr_ll'
I1
tp2108
a(S'tr_th'
I1
tp2109
a(S'w'
I6
tp2110
a(S'no_vo'
I7
tp2111
a(S'w'
I5
tp2112
a(S'no_np'
I5
tp2113
a(S'no_ll'
I3
tp2114
a(S'w'
I664
tp2115
a(S'p1_vo'
I4
tp2116
a(S'w'
I9
tp2117
a(S'p2_vo'
I6
tp2118
a(S'w'
I19
tp2119
a(S'no_vo'
I3
tp2120
a(S'w'
I713
tp2121
a(S'p1_vo'
I3
tp2122
a(S'w'
I10
tp2123
a(S'p2_vo'
I5
tp2124
a(S'w'
I9
tp2125
a(S'tr_lh'
I1
tp2126
a(S'tr_lr'
I126
tp2127
a(S'w'
I5
tp2128
a(S'tr_tl'
I1
tp2129
a(S'w'
I1
tp2130
a(S'tr_ll'
I1
tp2131
a(S'tr_th'
I5
tp2132
a(S'w'
I6
tp2133
a(S'no_vo'
I5
tp2134
a(S'w'
I694
tp2135
a(S'p1_vo'
I0
tp2136
a(S'w'
I10
tp2137
a(S'p2_vo'
I4
tp2138
a(S'w'
I16
tp2139
a(S'no_vo'
I3
tp2140
a(S'w'
I706
tp2141
a(S'p1_vo'
I5
tp2142
a(S'w'
I9
tp2143
a(S'p2_vo'
I0
tp2144
a(S'w'
I724
tp2145
a(S'p1_vo'
I4
tp2146
a(S'w'
I10
tp2147
a(S'p2_vo'
I3
tp2148
a(S'w'
I739
tp2149
a(S'p1_vo'
I5
tp2150
a(S'w'
I6
tp2151
a(S'p1_tl'
I120
tp2152
a(S'p1_ll'
I1
tp2153
a(S'w'
I6
tp2154
a(S'p2_du'
I1
tp2155
a(S'p2_vo'
I7
tp2156
a(S'w'
I6
tp2157
a(S'w'
I1
tp2158
a(S'p2_ll'
I1
tp2159
a(S'w'
I12
tp2160
a(S'no_vo'
I1
tp2161
a(S'w'
I688
tp2162
a(S'p1_vo'
I4
tp2163
a(S'w'
I10
tp2164
a(S'p2_vo'
I3
tp2165
a(S'w'
I724
tp2166
a(S'p1_vo'
I3
tp2167
a(S'w'
I10
tp2168
a(S'p2_vo'
I4
tp2169
a(S'w'
I724
tp2170
a(S'p1_vo'
I0
tp2171
a(S'w'
I733
tp2172
a(S'p1_vo'
I5
tp2173
a(S'w'
I10
tp2174
a(S'p2_vo'
I2
tp2175
a(S'w'
I724
tp2176
a(S'p1_vo'
I4
tp2177
a(S'w'
I764
tp2178
a(S'p1_vo'
I5
tp2179
a(S'w'
I5
tp2180
a(S'p1_tl'
I143
tp2181
a(S'w'
I1
tp2182
a(S'p1_ll'
I1
tp2183
a(S'w'
I6
tp2184
a(S'p2_du'
I2
tp2185
a(S'p2_vo'
I7
tp2186
a(S'w'
I6
tp2187
a(S'p2_tl'
I117
tp2188
a(S'p2_ll'
I1
tp2189
a(S'p2_th'
I4
tp2190
a(S'w'
I5
tp2191
a(S'tr_lh'
I0
tp2192
a(S'tr_lr'
I15
tp2193
a(S'w'
I6
tp2194
a(S'tr_tl'
I252
tp2195
a(S'w'
I1
tp2196
a(S'tr_ll'
I1
tp2197
a(S'tr_th'
I1
tp2198
a(S'w'
I6
tp2199
a(S'no_vo'
I10
tp2200
a(S'w'
I4
tp2201
a(S'no_np'
I3
tp2202
a(S'w'
I1
tp2203
a(S'no_ll'
I3
tp2204
a(S'w'
I666
tp2205
a(S'p1_vo'
I4
tp2206
a(S'w'
I10
tp2207
a(S'p2_vo'
I6
tp2208
a(S'w'
I19
tp2209
a(S'no_vo'
I0
tp2210
a(S'w'
I712
tp2211
a(S'p1_vo'
I3
tp2212
a(S'w'
I10
tp2213
a(S'p2_vo'
I5
tp2214
a(S'w'
I9
tp2215
a(S'tr_lh'
I1
tp2216
a(S'tr_lr'
I126
tp2217
a(S'w'
I6
tp2218
a(S'tr_tl'
I117
tp2219
a(S'tr_ll'
I1
tp2220
a(S'tr_th'
I4
tp2221
a(S'w'
I6
tp2222
a(S'no_vo'
I5
tp2223
a(S'w'
I693
tp2224
a(S'p1_vo'
I0
tp2225
a(S'w'
I9
tp2226
a(S'p2_vo'
I4
tp2227
a(S'w'
I726
tp2228
a(S'p1_vo'
I5
tp2229
a(S'w'
I10
tp2230
a(S'p2_vo'
I0
tp2231
a(S'w'
I17
tp2232
a(S'no_vo'
I3
tp2233
a(S'w'
I707
tp2234
a(S'p1_vo'
I4
tp2235
a(S'w'
I10
tp2236
a(S'p2_vo'
I3
tp2237
a(S'w'
I16
tp2238
a(S'no_vo'
I1
tp2239
a(S'w'
I721
tp2240
a(S'p1_vo'
I5
tp2241
a(S'w'
I6
tp2242
a(S'p1_tl'
I120
tp2243
a(S'p1_ll'
I1
tp2244
a(S'w'
I6
tp2245
a(S'p2_du'
I3
tp2246
a(S'p2_vo'
I7
tp2247
a(S'w'
I6
tp2248
a(S'p2_ll'
I1
tp2249
a(S'w'
I13
tp2250
a(S'no_vo'
I0
tp2251
a(S'w'
I688
tp2252
a(S'p1_vo'
I4
tp2253
a(S'w'
I9
tp2254
a(S'p2_vo'
I3
tp2255
a(S'w'
I724
tp2256
a(S'p1_vo'
I3
tp2257
a(S'w'
I10
tp2258
a(S'p2_vo'
I4
tp2259
a(S'w'
I724
tp2260
a(S'p1_vo'
I0
tp2261
a(S'w'
I734
tp2262
a(S'p1_vo'
I5
tp2263
a(S'w'
I10
tp2264
a(S'p2_vo'
I2
tp2265
a(S'w'
I724
tp2266
a(S'p1_vo'
I4
tp2267
a(S'w'
I776
tp2268
a(S'p1_du'
I0
tp2269
a(S'p1_vo'
I3
tp2270
a(S'w'
I6
tp2271
a(S'p1_tl'
I143
tp2272
a(S'w'
I1
tp2273
a(S'p1_ll'
I1
tp2274
a(S'w'
I6
tp2275
a(S'p2_du'
I0
tp2276
a(S'p2_vo'
I7
tp2277
a(S'w'
I5
tp2278
a(S'w'
I1
tp2279
a(S'p2_ll'
I1
tp2280
a(S'w'
I7
tp2281
a(S'tr_lr'
I0
tp2282
a(S'w'
I3
tp2283
a(S'tr_ll'
I1
tp2284
a(S'w'
I6
tp2285
a(S'no_vo'
I8
tp2286
a(S'w'
I5
tp2287
a(S'no_ll'
I3
tp2288
a(S'w'
I654
tp2289
a(S'p1_vo'
I2
tp2290
a(S'w'
I9
tp2291
a(S'p2_vo'
I6
tp2292
a(S'w'
I16
tp2293
a(S'no_vo'
I3
tp2294
a(S'w'
I718
tp2295
a(S'p2_vo'
I5
tp2296
a(S'w'
I16
tp2297
a(S'no_vo'
I2
tp2298
a(S'w'
I708
tp2299
a(S'p1_vo'
I0
tp2300
a(S'w'
I10
tp2301
a(S'p2_vo'
I4
tp2302
a(S'w'
I15
tp2303
a(S'no_vo'
I1
tp2304
a(S'w'
I709
tp2305
a(S'p1_vo'
I3
tp2306
a(S'w'
I10
tp2307
a(S'p2_vo'
I0
tp2308
a(S'w'
I15
tp2309
a(S'no_vo'
I0
tp2310
a(S'w'
I707
tp2311
a(S'p1_vo'
I2
tp2312
a(S'w'
I9
tp2313
a(S'p2_vo'
I3
tp2314
a(S'w'
I737
tp2315
a(S'p1_vo'
I3
tp2316
a(S'w'
I6
tp2317
a(S'p1_tl'
I120
tp2318
a(S'w'
I1
tp2319
a(S'p1_ll'
I1
tp2320
a(S'w'
I6
tp2321
a(S'p2_du'
I1
tp2322
a(S'p2_vo'
I7
tp2323
a(S'w'
I5
tp2324
a(S'w'
I1
tp2325
a(S'p2_ll'
I1
tp2326
a(S'w'
I702
tp2327
a(S'p1_vo'
I2
tp2328
a(S'w'
I10
tp2329
a(S'p2_vo'
I3
tp2330
a(S'w'
I734
tp2331
a(S'p2_vo'
I4
tp2332
a(S'w'
I724
tp2333
a(S'p1_vo'
I0
tp2334
a(S'w'
I734
tp2335
a(S'p1_vo'
I3
tp2336
a(S'w'
I9
tp2337
a(S'p2_vo'
I2
tp2338
a(S'w'
I724
tp2339
a(S'p1_vo'
I2
tp2340
a(S'w'
I764
tp2341
a(S'p1_vo'
I3
tp2342
a(S'w'
I5
tp2343
a(S'p1_tl'
I143
tp2344
a(S'w'
I1
tp2345
a(S'p1_ll'
I1
tp2346
a(S'w'
I6
tp2347
a(S'p2_du'
I2
tp2348
a(S'p2_vo'
I7
tp2349
a(S'w'
I6
tp2350
a(S'p2_ll'
I1
tp2351
a(S'w'
I6
tp2352
a(S'tr_lh'
I0
tp2353
a(S'tr_lr'
I15
tp2354
a(S'w'
I5
tp2355
a(S'tr_tl'
I252
tp2356
a(S'w'
I1
tp2357
a(S'tr_ll'
I1
tp2358
a(S'tr_th'
I1
tp2359
a(S'w'
I6
tp2360
a(S'no_vo'
I10
tp2361
a(S'w'
I4
tp2362
a(S'w'
I1
tp2363
a(S'no_ll'
I3
tp2364
a(S'w'
I666
tp2365
a(S'p1_vo'
I2
tp2366
a(S'w'
I10
tp2367
a(S'p2_vo'
I6
tp2368
a(S'w'
I19
tp2369
a(S'no_vo'
I0
tp2370
a(S'w'
I722
tp2371
a(S'p2_vo'
I5
tp2372
a(S'w'
I9
tp2373
a(S'tr_lh'
I1
tp2374
a(S'tr_lr'
I126
tp2375
a(S'w'
I6
tp2376
a(S'tr_tl'
I1
tp2377
a(S'w'
I1
tp2378
a(S'tr_ll'
I1
tp2379
a(S'tr_th'
I5
tp2380
a(S'w'
I6
tp2381
a(S'no_vo'
I5
tp2382
a(S'w'
I692
tp2383
a(S'p1_vo'
I0
tp2384
a(S'w'
I9
tp2385
a(S'p2_vo'
I4
tp2386
a(S'w'
I727
tp2387
a(S'p1_vo'
I3
tp2388
a(S'w'
I9
tp2389
a(S'p2_vo'
I0
tp2390
a(S'w'
I17
tp2391
a(S'no_vo'
I3
tp2392
a(S'w'
I707
tp2393
a(S'p1_vo'
I2
tp2394
a(S'w'
I10
tp2395
a(S'p2_vo'
I3
tp2396
a(S'w'
I17
tp2397
a(S'no_vo'
I1
tp2398
a(S'w'
I720
tp2399
a(S'p1_vo'
I3
tp2400
a(S'w'
I6
tp2401
a(S'p1_tl'
I120
tp2402
a(S'p1_ll'
I1
tp2403
a(S'w'
I6
tp2404
a(S'p2_du'
I3
tp2405
a(S'p2_vo'
I7
tp2406
a(S'w'
I6
tp2407
a(S'w'
I1
tp2408
a(S'p2_ll'
I1
tp2409
a(S'w'
I12
tp2410
a(S'no_vo'
I0
tp2411
a(S'w'
I688
tp2412
a(S'p1_vo'
I2
tp2413
a(S'w'
I10
tp2414
a(S'p2_vo'
I3
tp2415
a(S'w'
I733
tp2416
a(S'p2_vo'
I4
tp2417
a(S'w'
I725
tp2418
a(S'p1_vo'
I0
tp2419
a(S'w'
I733
tp2420
a(S'p1_vo'
I3
tp2421
a(S'w'
I10
tp2422
a(S'p2_vo'
I2
tp2423
a(S'w'
I724
tp2424
a(S'p1_vo'
I2
tp2425
a(S'w'
I770
tp2426
a(S'p1_du'
I1
tp2427
a(S'p1_vo'
I3
tp2428
a(S'w'
I6
tp2429
a(S'p1_tl'
I143
tp2430
a(S'p1_ll'
I1
tp2431
a(S'w'
I6
tp2432
a(S'p2_du'
I0
tp2433
a(S'p2_vo'
I7
tp2434
a(S'w'
I6
tp2435
a(S'w'
I1
tp2436
a(S'p2_ll'
I1
tp2437
a(S'w'
I5
tp2438
a(S'tr_lh'
I0
tp2439
a(S'tr_lr'
I6
tp2440
a(S'w'
I5
tp2441
a(S'tr_tl'
I13
tp2442
a(S'w'
I1
tp2443
a(S'tr_ll'
I1
tp2444
a(S'tr_th'
I1
tp2445
a(S'w'
I6
tp2446
a(S'no_vo'
I7
tp2447
a(S'w'
I5
tp2448
a(S'no_np'
I5
tp2449
a(S'no_ll'
I3
tp2450
a(S'w'
I660
tp2451
a(S'p1_vo'
I2
tp2452
a(S'w'
I10
tp2453
a(S'p2_vo'
I6
tp2454
a(S'w'
I18
tp2455
a(S'no_vo'
I3
tp2456
a(S'w'
I723
tp2457
a(S'p2_vo'
I5
tp2458
a(S'w'
I9
tp2459
a(S'tr_lh'
I1
tp2460
a(S'tr_lr'
I126
tp2461
a(S'w'
I6
tp2462
a(S'tr_tl'
I117
tp2463
a(S'tr_ll'
I1
tp2464
a(S'tr_th'
I4
tp2465
a(S'w'
I6
tp2466
a(S'no_vo'
I5
tp2467
a(S'w'
I694
tp2468
a(S'p1_vo'
I0
tp2469
a(S'w'
I10
tp2470
a(S'p2_vo'
I4
tp2471
a(S'w'
I17
tp2472
a(S'no_vo'
I3
tp2473
a(S'w'
I705
tp2474
a(S'p1_vo'
I3
tp2475
a(S'w'
I10
tp2476
a(S'p2_vo'
I0
tp2477
a(S'w'
I724
tp2478
a(S'p1_vo'
I2
tp2479
a(S'w'
I10
tp2480
a(S'p2_vo'
I3
tp2481
a(S'w'
I739
tp2482
a(S'p1_vo'
I3
tp2483
a(S'w'
I5
tp2484
a(S'p1_tl'
I120
tp2485
a(S'w'
I1
tp2486
a(S'p1_ll'
I1
tp2487
a(S'w'
I6
tp2488
a(S'p2_du'
I1
tp2489
a(S'p2_vo'
I7
tp2490
a(S'w'
I5
tp2491
a(S'w'
I1
tp2492
a(S'p2_ll'
I1
tp2493
a(S'w'
I13
tp2494
a(S'no_vo'
I1
tp2495
a(S'w'
I688
tp2496
a(S'p1_vo'
I2
tp2497
a(S'w'
I9
tp2498
a(S'p2_vo'
I3
tp2499
a(S'w'
I734
tp2500
a(S'p2_vo'
I4
tp2501
a(S'w'
I724
tp2502
a(S'p1_vo'
I0
tp2503
a(S'w'
I734
tp2504
a(S'p1_vo'
I3
tp2505
a(S'w'
I10
tp2506
a(S'p2_vo'
I2
tp2507
a(S'w'
I724
tp2508
a(S'p1_vo'
I2
tp2509
a(S'w'
I759
tp2510
a(S'p1_vo'
I3
tp2511
a(S'w'
I5
tp2512
a(S'p1_tl'
I143
tp2513
a(S'w'
I1
tp2514
a(S'p1_ll'
I1
tp2515
a(S'w'
I6
tp2516
a(S'p2_du'
I2
tp2517
a(S'p2_vo'
I7
tp2518
a(S'w'
I6
tp2519
a(S'p2_ll'
I1
tp2520
a(S'w'
I7
tp2521
a(S'tr_lr'
I0
tp2522
a(S'w'
I4
tp2523
a(S'tr_ll'
I1
tp2524
a(S'w'
I6
tp2525
a(S'no_vo'
I8
tp2526
a(S'w'
I4
tp2527
a(S'no_np'
I3
tp2528
a(S'w'
I1
tp2529
a(S'no_ll'
I3
tp2530
a(S'w'
I670
tp2531
a(S'p1_vo'
I2
tp2532
a(S'w'
I10
tp2533
a(S'p2_vo'
I6
tp2534
a(S'w'
I16
tp2535
a(S'no_vo'
I3
tp2536
a(S'w'
I718
tp2537
a(S'p2_vo'
I5
tp2538
a(S'w'
I15
tp2539
a(S'no_vo'
I2
tp2540
a(S'w'
I709
tp2541
a(S'p1_vo'
I0
tp2542
a(S'w'
I10
tp2543
a(S'p2_vo'
I4
tp2544
a(S'w'
I15
tp2545
a(S'no_vo'
I1
tp2546
a(S'w'
I709
tp2547
a(S'p1_vo'
I3
tp2548
a(S'w'
I10
tp2549
a(S'p2_vo'
I0
tp2550
a(S'w'
I15
tp2551
a(S'no_vo'
I0
tp2552
a(S'w'
I707
tp2553
a(S'p1_vo'
I2
tp2554
a(S'w'
I9
tp2555
a(S'p2_vo'
I3
tp2556
a(S'w'
I737
tp2557
a(S'p1_vo'
I3
tp2558
a(S'w'
I6
tp2559
a(S'p1_tl'
I120
tp2560
a(S'p1_ll'
I1
tp2561
a(S'w'
I7
tp2562
a(S'p2_du'
I3
tp2563
a(S'p2_vo'
I7
tp2564
a(S'w'
I5
tp2565
a(S'w'
I1
tp2566
a(S'p2_ll'
I1
tp2567
a(S'w'
I702
tp2568
a(S'p1_vo'
I2
tp2569
a(S'w'
I10
tp2570
a(S'p2_vo'
I3
tp2571
a(S'w'
I734
tp2572
a(S'p2_vo'
I4
tp2573
a(S'w'
I724
tp2574
a(S'p1_vo'
I0
tp2575
a(S'w'
I734
tp2576
a(S'p1_vo'
I3
tp2577
a(S'w'
I9
tp2578
a(S'p2_vo'
I2
tp2579
a(S'w'
I724
tp2580
a(S'p1_vo'
I2
tp2581
a(S'w'
I775
tp2582
a(S'p1_du'
I2
tp2583
a(S'w'
I6
tp2584
a(S'p1_tl'
I143
tp2585
a(S'w'
I1
tp2586
a(S'p1_ll'
I1
tp2587
a(S'w'
I6
tp2588
a(S'p2_du'
I0
tp2589
a(S'p2_vo'
I7
tp2590
a(S'w'
I5
tp2591
a(S'w'
I1
tp2592
a(S'p2_ll'
I1
tp2593
a(S'w'
I5
tp2594
a(S'tr_lr'
I126
tp2595
a(S'w'
I2
tp2596
a(S'tr_lr'
I0
tp2597
a(S'w'
I3
tp2598
a(S'tr_ll'
I1
tp2599
a(S'w'
I6
tp2600
a(S'no_vo'
I8
tp2601
a(S'w'
I5
tp2602
a(S'no_ll'
I3
tp2603
a(S'w'
I655
tp2604
a(S'p1_vo'
I1
tp2605
a(S'w'
I10
tp2606
a(S'p2_vo'
I6
tp2607
a(S'w'
I15
tp2608
a(S'no_vo'
I3
tp2609
a(S'w'
I719
tp2610
a(S'p2_vo'
I5
tp2611
a(S'w'
I15
tp2612
a(S'no_vo'
I2
tp2613
a(S'w'
I709
tp2614
a(S'p1_vo'
I0
tp2615
a(S'w'
I9
tp2616
a(S'p2_vo'
I4
tp2617
a(S'w'
I16
tp2618
a(S'no_vo'
I1
tp2619
a(S'w'
I709
tp2620
a(S'p1_vo'
I2
tp2621
a(S'w'
I9
tp2622
a(S'p2_vo'
I0
tp2623
a(S'w'
I16
tp2624
a(S'no_vo'
I0
tp2625
a(S'w'
I706
tp2626
a(S'p1_vo'
I1
tp2627
a(S'w'
I10
tp2628
a(S'p2_vo'
I3
tp2629
a(S'w'
I737
tp2630
a(S'p1_vo'
I2
tp2631
a(S'w'
I5
tp2632
a(S'p1_tl'
I120
tp2633
a(S'w'
I1
tp2634
a(S'p1_ll'
I1
tp2635
a(S'w'
I6
tp2636
a(S'p2_du'
I1
tp2637
a(S'p2_vo'
I7
tp2638
a(S'w'
I6
tp2639
a(S'p2_ll'
I1
tp2640
a(S'w'
I703
tp2641
a(S'p1_vo'
I1
tp2642
a(S'w'
I9
tp2643
a(S'p2_vo'
I3
tp2644
a(S'w'
I734
tp2645
a(S'p2_vo'
I4
tp2646
a(S'w'
I724
tp2647
a(S'p1_vo'
I0
tp2648
a(S'w'
I734
tp2649
a(S'p1_vo'
I2
tp2650
a(S'w'
I10
tp2651
a(S'p2_vo'
I2
tp2652
a(S'w'
I724
tp2653
a(S'p1_vo'
I1
tp2654
a(S'w'
I763
tp2655
a(S'p1_vo'
I2
tp2656
a(S'w'
I6
tp2657
a(S'p1_tl'
I143
tp2658
a(S'p1_ll'
I1
tp2659
a(S'w'
I7
tp2660
a(S'p2_du'
I2
tp2661
a(S'p2_vo'
I7
tp2662
a(S'w'
I5
tp2663
a(S'w'
I1
tp2664
a(S'p2_ll'
I1
tp2665
a(S'w'
I5
tp2666
a(S'tr_lh'
I0
tp2667
a(S'tr_lr'
I15
tp2668
a(S'w'
I6
tp2669
a(S'tr_tl'
I252
tp2670
a(S'tr_ll'
I1
tp2671
a(S'tr_th'
I1
tp2672
a(S'w'
I6
tp2673
a(S'no_vo'
I10
tp2674
a(S'w'
I5
tp2675
a(S'no_ll'
I3
tp2676
a(S'w'
I667
tp2677
a(S'p1_vo'
I1
tp2678
a(S'w'
I10
tp2679
a(S'p2_vo'
I6
tp2680
a(S'w'
I18
tp2681
a(S'no_vo'
I0
tp2682
a(S'w'
I723
tp2683
a(S'p2_vo'
I5
tp2684
a(S'w'
I9
tp2685
a(S'tr_lh'
I1
tp2686
a(S'tr_lr'
I126
tp2687
a(S'w'
I5
tp2688
a(S'tr_tl'
I1
tp2689
a(S'w'
I1
tp2690
a(S'tr_ll'
I1
tp2691
a(S'tr_th'
I5
tp2692
a(S'w'
I6
tp2693
a(S'no_vo'
I5
tp2694
a(S'w'
I692
tp2695
a(S'p1_vo'
I0
tp2696
a(S'w'
I10
tp2697
a(S'p2_vo'
I4
tp2698
a(S'w'
I726
tp2699
a(S'p1_vo'
I2
tp2700
a(S'w'
I10
tp2701
a(S'p2_vo'
I0
tp2702
a(S'w'
I16
tp2703
a(S'no_vo'
I3
tp2704
a(S'w'
I708
tp2705
a(S'p1_vo'
I1
tp2706
a(S'w'
I10
tp2707
a(S'p2_vo'
I3
tp2708
a(S'w'
I16
tp2709
a(S'no_vo'
I1
tp2710
a(S'w'
I721
tp2711
a(S'p1_vo'
I2
tp2712
a(S'w'
I5
tp2713
a(S'p1_tl'
I120
tp2714
a(S'w'
I1
tp2715
a(S'p1_ll'
I1
tp2716
a(S'w'
I6
tp2717
a(S'p2_du'
I3
tp2718
a(S'p2_vo'
I7
tp2719
a(S'w'
I5
tp2720
a(S'w'
I1
tp2721
a(S'p2_ll'
I1
tp2722
a(S'w'
I13
tp2723
a(S'no_vo'
I0
tp2724
a(S'w'
I687
tp2725
a(S'p1_vo'
I1
tp2726
a(S'w'
I10
tp2727
a(S'p2_vo'
I3
tp2728
a(S'w'
I734
tp2729
a(S'p2_vo'
I4
tp2730
a(S'w'
I724
tp2731
a(S'p1_vo'
I0
tp2732
a(S'w'
I734
tp2733
a(S'p1_vo'
I2
tp2734
a(S'w'
I10
tp2735
a(S'p2_vo'
I2
tp2736
a(S'w'
I724
tp2737
a(S'p1_vo'
I1
tp2738
a(S'w'
I770
tp2739
a(S'p1_du'
I3
tp2740
a(S'p1_vo'
I2
tp2741
a(S'w'
I5
tp2742
a(S'p1_tl'
I143
tp2743
a(S'w'
I1
tp2744
a(S'p1_ll'
I1
tp2745
a(S'w'
I6
tp2746
a(S'p2_du'
I0
tp2747
a(S'p2_vo'
I7
tp2748
a(S'w'
I5
tp2749
a(S'w'
I1
tp2750
a(S'p2_ll'
I1
tp2751
a(S'w'
I5
tp2752
a(S'tr_lh'
I0
tp2753
a(S'tr_lr'
I6
tp2754
a(S'w'
I6
tp2755
a(S'tr_tl'
I13
tp2756
a(S'tr_ll'
I1
tp2757
a(S'tr_th'
I1
tp2758
a(S'w'
I6
tp2759
a(S'no_vo'
I7
tp2760
a(S'w'
I5
tp2761
a(S'no_np'
I5
tp2762
a(S'w'
I1
tp2763
a(S'no_ll'
I3
tp2764
a(S'w'
I659
tp2765
a(S'p1_vo'
I1
tp2766
a(S'w'
I10
tp2767
a(S'p2_vo'
I6
tp2768
a(S'w'
I19
tp2769
a(S'no_vo'
I3
tp2770
a(S'w'
I723
tp2771
a(S'p2_vo'
I5
tp2772
a(S'w'
I9
tp2773
a(S'tr_lh'
I1
tp2774
a(S'tr_lr'
I126
tp2775
a(S'w'
I5
tp2776
a(S'tr_tl'
I117
tp2777
a(S'w'
I1
tp2778
a(S'tr_ll'
I1
tp2779
a(S'tr_th'
I4
tp2780
a(S'w'
I6
tp2781
a(S'no_vo'
I5
tp2782
a(S'w'
I694
tp2783
a(S'p1_vo'
I0
tp2784
a(S'w'
I10
tp2785
a(S'p2_vo'
I4
tp2786
a(S'w'
I16
tp2787
a(S'no_vo'
I3
tp2788
a(S'w'
I706
tp2789
a(S'p1_vo'
I2
tp2790
a(S'w'
I9
tp2791
a(S'p2_vo'
I0
tp2792
a(S'w'
I724
tp2793
a(S'p1_vo'
I1
tp2794
a(S'w'
I10
tp2795
a(S'p2_vo'
I3
tp2796
a(S'w'
I739
tp2797
a(S'p1_vo'
I2
tp2798
a(S'w'
I6
tp2799
a(S'p1_tl'
I120
tp2800
a(S'p1_ll'
I1
tp2801
a(S'w'
I6
tp2802
a(S'p2_du'
I1
tp2803
a(S'p2_vo'
I7
tp2804
a(S'w'
I6
tp2805
a(S'p2_ll'
I1
tp2806
a(S'w'
I13
tp2807
a(S'no_vo'
I1
tp2808
a(S'w'
I688
tp2809
a(S'p1_vo'
I1
tp2810
a(S'w'
I10
tp2811
a(S'p2_vo'
I3
tp2812
a(S'w'
I734
tp2813
a(S'p2_vo'
I4
tp2814
a(S'w'
I724
tp2815
a(S'p1_vo'
I0
tp2816
a(S'w'
I733
tp2817
a(S'p1_vo'
I2
tp2818
a(S'w'
I10
tp2819
a(S'p2_vo'
I2
tp2820
a(S'w'
I724
tp2821
a(S'p1_vo'
I1
tp2822
a(S'w'
I759
tp2823
a(S'p1_vo'
I2
tp2824
a(S'w'
I6
tp2825
a(S'p1_tl'
I143
tp2826
a(S'p1_ll'
I1
tp2827
a(S'w'
I6
tp2828
a(S'p2_du'
I2
tp2829
a(S'p2_vo'
I7
tp2830
a(S'w'
I6
tp2831
a(S'w'
I1
tp2832
a(S'p2_ll'
I1
tp2833
a(S'w'
I7
tp2834
a(S'tr_lr'
I0
tp2835
a(S'w'
I3
tp2836
a(S'tr_ll'
I1
tp2837
a(S'w'
I6
tp2838
a(S'no_vo'
I8
tp2839
a(S'w'
I5
tp2840
a(S'no_np'
I3
tp2841
a(S'no_ll'
I3
tp2842
a(S'w'
I671
tp2843
a(S'p1_vo'
I1
tp2844
a(S'w'
I10
tp2845
a(S'p2_vo'
I6
tp2846
a(S'w'
I15
tp2847
a(S'no_vo'
I3
tp2848
a(S'w'
I718
tp2849
a(S'p2_vo'
I5
tp2850
a(S'w'
I16
tp2851
a(S'no_vo'
I2
tp2852
a(S'w'
I709
tp2853
a(S'p1_vo'
I0
tp2854
a(S'w'
I9
tp2855
a(S'p2_vo'
I4
tp2856
a(S'w'
I16
tp2857
a(S'no_vo'
I1
tp2858
a(S'w'
I708
tp2859
a(S'p1_vo'
I2
tp2860
a(S'w'
I10
tp2861
a(S'p2_vo'
I0
tp2862
a(S'w'
I16
tp2863
a(S'no_vo'
I0
tp2864
a(S'w'
I706
tp2865
a(S'p1_vo'
I1
tp2866
a(S'w'
I10
tp2867
a(S'p2_vo'
I3
tp2868
a(S'w'
I737
tp2869
a(S'p1_vo'
I2
tp2870
a(S'w'
I5
tp2871
a(S'p1_tl'
I120
tp2872
a(S'w'
I1
tp2873
a(S'p1_ll'
I1
tp2874
a(S'w'
I6
tp2875
a(S'p2_du'
I3
tp2876
a(S'p2_vo'
I7
tp2877
a(S'w'
I6
tp2878
a(S'p2_ll'
I1
tp2879
a(S'w'
I703
tp2880
a(S'p1_vo'
I1
tp2881
a(S'w'
I9
tp2882
a(S'p2_vo'
I3
tp2883
a(S'w'
I734
tp2884
a(S'p2_vo'
I4
tp2885
a(S'w'
I724
tp2886
a(S'p1_vo'
I0
tp2887
a(S'w'
I734
tp2888
a(S'p1_vo'
I2
tp2889
a(S'w'
I10
tp2890
a(S'p2_vo'
I2
tp2891
a(S'w'
I724
tp2892
a(S'p1_vo'
I1
tp2893
a(S'w'
I790
tp2894
a(S'p1_vo'
I7
tp2895
a(S'w'
I5
tp2896
a(S'p1_tl'
I172
tp2897
a(S'w'
I1
tp2898
a(S'p1_ll'
I1
tp2899
a(S'p1_th'
I1
tp2900
a(S'w'
I6
tp2901
a(S'p2_du'
I0
tp2902
a(S'p2_vo'
I7
tp2903
a(S'w'
I5
tp2904
a(S'w'
I1
tp2905
a(S'p2_ll'
I1
tp2906
a(S'w'
I5
tp2907
a(S'tr_lr'
I126
tp2908
a(S'w'
I6
tp2909
a(S'tr_tl'
I192
tp2910
a(S'tr_ll'
I1
tp2911
a(S'tr_th'
I3
tp2912
a(S'w'
I6
tp2913
a(S'no_vo'
I8
tp2914
a(S'w'
I5
tp2915
a(S'w'
I1
tp2916
a(S'no_ll'
I3
tp2917
a(S'w'
I639
tp2918
a(S'p1_vo'
I3
tp2919
a(S'w'
I9
tp2920
a(S'p2_vo'
I6
tp2921
a(S'w'
I17
tp2922
a(S'no_vo'
I3
tp2923
a(S'w'
I707
tp2924
a(S'p1_vo'
I4
tp2925
a(S'w'
I10
tp2926
a(S'p2_vo'
I5
tp2927
a(S'w'
I17
tp2928
a(S'no_vo'
I2
tp2929
a(S'w'
I717
tp2930
a(S'p2_vo'
I4
tp2931
a(S'w'
I16
tp2932
a(S'no_vo'
I1
tp2933
a(S'w'
I708
tp2934
a(S'p1_vo'
I2
tp2935
a(S'w'
I10
tp2936
a(S'p2_vo'
I0
tp2937
a(S'w'
I16
tp2938
a(S'no_vo'
I0
tp2939
a(S'w'
I715
tp2940
a(S'p2_vo'
I3
tp2941
a(S'w'
I737
tp2942
a(S'p1_du'
I0
tp2943
a(S'p1_vo'
I7
tp2944
a(S'w'
I6
tp2945
a(S'p1_ll'
I1
tp2946
a(S'w'
I6
tp2947
a(S'p2_du'
I1
tp2948
a(S'p2_vo'
I7
tp2949
a(S'w'
I6
tp2950
a(S'p2_ll'
I1
tp2951
a(S'w'
I703
tp2952
a(S'p1_vo'
I3
tp2953
a(S'w'
I10
tp2954
a(S'p2_vo'
I6
tp2955
a(S'w'
I724
tp2956
a(S'p1_vo'
I4
tp2957
a(S'w'
I10
tp2958
a(S'p2_vo'
I5
tp2959
a(S'w'
I734
tp2960
a(S'p2_vo'
I4
tp2961
a(S'w'
I724
tp2962
a(S'p1_vo'
I2
tp2963
a(S'w'
I9
tp2964
a(S'p2_vo'
I0
tp2965
a(S'w'
I734
tp2966
a(S'p2_vo'
I3
tp2967
a(S'w'
I754
tp2968
a(S'p1_du'
I1
tp2969
a(S'p1_vo'
I7
tp2970
a(S'w'
I6
tp2971
a(S'w'
I1
tp2972
a(S'p1_ll'
I1
tp2973
a(S'w'
I6
tp2974
a(S'p2_du'
I2
tp2975
a(S'p2_vo'
I7
tp2976
a(S'w'
I5
tp2977
a(S'w'
I1
tp2978
a(S'p2_ll'
I1
tp2979
a(S'w'
I5
tp2980
a(S'tr_lh'
I0
tp2981
a(S'tr_lr'
I15
tp2982
a(S'w'
I6
tp2983
a(S'tr_tl'
I252
tp2984
a(S'tr_ll'
I1
tp2985
a(S'tr_th'
I1
tp2986
a(S'w'
I6
tp2987
a(S'no_vo'
I10
tp2988
a(S'w'
I5
tp2989
a(S'no_ll'
I3
tp2990
a(S'w'
I666
tp2991
a(S'p1_vo'
I3
tp2992
a(S'w'
I10
tp2993
a(S'p2_vo'
I6
tp2994
a(S'w'
I19
tp2995
a(S'no_vo'
I0
tp2996
a(S'w'
I713
tp2997
a(S'p1_vo'
I4
tp2998
a(S'w'
I9
tp2999
a(S'p2_vo'
I5
tp3000
a(S'w'
I9
tp3001
a(S'tr_lh'
I1
tp3002
a(S'tr_lr'
I126
tp3003
a(S'w'
I6
tp3004
a(S'tr_tl'
I87
tp3005
a(S'tr_ll'
I1
tp3006
a(S'tr_th'
I3
tp3007
a(S'w'
I7
tp3008
a(S'no_vo'
I5
tp3009
a(S'w'
I701
tp3010
a(S'p2_vo'
I4
tp3011
a(S'w'
I727
tp3012
a(S'p1_vo'
I2
tp3013
a(S'w'
I9
tp3014
a(S'p2_vo'
I0
tp3015
a(S'w'
I17
tp3016
a(S'no_vo'
I3
tp3017
a(S'w'
I717
tp3018
a(S'p2_vo'
I3
tp3019
a(S'w'
I17
tp3020
a(S'no_vo'
I1
tp3021
a(S'w'
I747
tp3022
a(S'p1_du'
I2
tp3023
a(S'p1_vo'
I7
tp3024
a(S'w'
I6
tp3025
a(S'p1_ll'
I1
tp3026
a(S'w'
I6
tp3027
a(S'p2_du'
I3
tp3028
a(S'p2_vo'
I7
tp3029
a(S'w'
I6
tp3030
a(S'p2_ll'
I1
tp3031
a(S'w'
I6
tp3032
a(S'tr_lh'
I0
tp3033
a(S'tr_lr'
I6
tp3034
a(S'w'
I5
tp3035
a(S'tr_tl'
I13
tp3036
a(S'w'
I1
tp3037
a(S'tr_ll'
I1
tp3038
a(S'tr_th'
I1
tp3039
a(S'w'
I6
tp3040
a(S'no_vo'
I10
tp3041
a(S'w'
I4
tp3042
a(S'w'
I1
tp3043
a(S'no_ll'
I3
tp3044
a(S'w'
I654
tp3045
a(S'p1_vo'
I3
tp3046
a(S'w'
I10
tp3047
a(S'p2_vo'
I6
tp3048
a(S'w'
I18
tp3049
a(S'no_vo'
I0
tp3050
a(S'w'
I713
tp3051
a(S'p1_vo'
I4
tp3052
a(S'w'
I10
tp3053
a(S'p2_vo'
I5
tp3054
a(S'w'
I9
tp3055
a(S'tr_lh'
I1
tp3056
a(S'tr_lr'
I126
tp3057
a(S'w'
I6
tp3058
a(S'tr_tl'
I87
tp3059
a(S'tr_ll'
I1
tp3060
a(S'tr_th'
I3
tp3061
a(S'w'
I6
tp3062
a(S'no_vo'
I5
tp3063
a(S'w'
I720
tp3064
a(S'p2_vo'
I4
tp3065
a(S'w'
I9
tp3066
a(S'tr_lh'
I0
tp3067
a(S'tr_lr'
I5
tp3068
a(S'w'
I5
tp3069
a(S'tr_tl'
I13
tp3070
a(S'w'
I1
tp3071
a(S'tr_ll'
I1
tp3072
a(S'tr_th'
I1
tp3073
a(S'w'
I6
tp3074
a(S'no_vo'
I7
tp3075
a(S'w'
I4
tp3076
a(S'no_np'
I5
tp3077
a(S'w'
I1
tp3078
a(S'no_ll'
I3
tp3079
a(S'w'
I683
tp3080
a(S'p1_vo'
I2
tp3081
a(S'w'
I10
tp3082
a(S'p2_vo'
I0
tp3083
a(S'w'
I19
tp3084
a(S'no_vo'
I3
tp3085
a(S'w'
I723
tp3086
a(S'p2_vo'
I3
tp3087
a(S'w'
I9
tp3088
a(S'tr_lh'
I1
tp3089
a(S'tr_lr'
I126
tp3090
a(S'w'
I5
tp3091
a(S'tr_tl'
I87
tp3092
a(S'w'
I1
tp3093
a(S'tr_ll'
I1
tp3094
a(S'tr_th'
I3
tp3095
a(S'w'
I6
tp3096
a(S'no_vo'
I5
tp3097
a(S'w'
I734
tp3098
a(S'p1_du'
I3
tp3099
a(S'p1_vo'
I7
tp3100
a(S'w'
I5
tp3101
a(S'w'
I1
tp3102
a(S'p1_ll'
I1
tp3103
a(S'w'
I6
tp3104
a(S'p2_du'
I0
tp3105
a(S'p2_vo'
I7
tp3106
a(S'w'
I6
tp3107
a(S'p2_ll'
I1
tp3108
a(S'w'
I5
tp3109
a(S'tr_lh'
I0
tp3110
a(S'tr_lr'
I6
tp3111
a(S'w'
I6
tp3112
a(S'tr_tl'
I13
tp3113
a(S'w'
I1
tp3114
a(S'tr_ll'
I1
tp3115
a(S'tr_th'
I1
tp3116
a(S'w'
I6
tp3117
a(S'no_vo'
I7
tp3118
a(S'w'
I4
tp3119
a(S'w'
I1
tp3120
a(S'no_ll'
I3
tp3121
a(S'w'
I654
tp3122
a(S'p1_vo'
I3
tp3123
a(S'w'
I10
tp3124
a(S'p2_vo'
I6
tp3125
a(S'w'
I18
tp3126
a(S'no_vo'
I3
tp3127
a(S'w'
I713
tp3128
a(S'p1_vo'
I4
tp3129
a(S'w'
I10
tp3130
a(S'p2_vo'
I5
tp3131
a(S'w'
I9
tp3132
a(S'tr_lh'
I1
tp3133
a(S'tr_lr'
I126
tp3134
a(S'w'
I6
tp3135
a(S'tr_tl'
I250
tp3136
a(S'tr_ll'
I1
tp3137
a(S'tr_th'
I2
tp3138
a(S'w'
I6
tp3139
a(S'no_vo'
I5
tp3140
a(S'w'
I704
tp3141
a(S'p2_vo'
I4
tp3142
a(S'w'
I17
tp3143
a(S'no_vo'
I3
tp3144
a(S'w'
I705
tp3145
a(S'p1_vo'
I2
tp3146
a(S'w'
I10
tp3147
a(S'p2_vo'
I0
tp3148
a(S'w'
I734
tp3149
a(S'p2_vo'
I3
tp3150
a(S'w'
I751
tp3151
a(S'p1_du'
I0
tp3152
a(S'p1_vo'
I7
tp3153
a(S'w'
I5
tp3154
a(S'w'
I1
tp3155
a(S'p1_ll'
I1
tp3156
a(S'w'
I6
tp3157
a(S'p2_du'
I1
tp3158
a(S'p2_vo'
I7
tp3159
a(S'w'
I5
tp3160
a(S'w'
I1
tp3161
a(S'p2_ll'
I1
tp3162
a(S'w'
I5
tp3163
a(S'tr_lh'
I0
tp3164
a(S'tr_lr'
I5
tp3165
a(S'w'
I6
tp3166
a(S'tr_tl'
I13
tp3167
a(S'tr_ll'
I1
tp3168
a(S'tr_th'
I1
tp3169
a(S'w'
I7
tp3170
a(S'no_vo'
I7
tp3171
a(S'w'
I4
tp3172
a(S'w'
I1
tp3173
a(S'no_ll'
I3
tp3174
a(S'w'
I669
tp3175
a(S'p1_vo'
I3
tp3176
a(S'w'
I9
tp3177
a(S'p2_vo'
I6
tp3178
a(S'w'
I19
tp3179
a(S'no_vo'
I3
tp3180
a(S'w'
I713
tp3181
a(S'p1_vo'
I4
tp3182
a(S'w'
I10
tp3183
a(S'p2_vo'
I5
tp3184
a(S'w'
I9
tp3185
a(S'tr_lh'
I1
tp3186
a(S'tr_lr'
I126
tp3187
a(S'w'
I5
tp3188
a(S'tr_tl'
I250
tp3189
a(S'w'
I1
tp3190
a(S'tr_ll'
I1
tp3191
a(S'tr_th'
I2
tp3192
a(S'w'
I6
tp3193
a(S'no_vo'
I5
tp3194
a(S'w'
I704
tp3195
a(S'p2_vo'
I4
tp3196
a(S'w'
I16
tp3197
a(S'no_vo'
I3
tp3198
a(S'w'
I706
tp3199
a(S'p1_vo'
I2
tp3200
a(S'w'
I10
tp3201
a(S'p2_vo'
I0
tp3202
a(S'w'
I733
tp3203
a(S'p2_vo'
I3
tp3204
a(S'w'
I745
tp3205
a(S'p1_du'
I1
tp3206
a(S'p1_vo'
I7
tp3207
a(S'w'
I6
tp3208
a(S'p1_ll'
I1
tp3209
a(S'w'
I6
tp3210
a(S'p2_du'
I2
tp3211
a(S'p2_vo'
I7
tp3212
a(S'w'
I6
tp3213
a(S'p2_ll'
I1
tp3214
a(S'w'
I11
tp3215
a(S'tr_tl'
I207
tp3216
a(S'w'
I1
tp3217
a(S'tr_ll'
I1
tp3218
a(S'w'
I6
tp3219
a(S'no_vo'
I1
tp3220
a(S'w'
I677
tp3221
a(S'p1_vo'
I3
tp3222
a(S'w'
I10
tp3223
a(S'p2_vo'
I6
tp3224
a(S'w'
I724
tp3225
a(S'p1_vo'
I4
tp3226
a(S'w'
I10
tp3227
a(S'p2_vo'
I5
tp3228
a(S'w'
I734
tp3229
a(S'p2_vo'
I4
tp3230
a(S'w'
I729
tp3231
a(S'p1_vo'
I2
tp3232
a(S'w'
I10
tp3233
a(S'p2_vo'
I0
tp3234
a(S'w'
I15
tp3235
a(S'tr_tl'
I174
tp3236
a(S'tr_ll'
I1
tp3237
a(S'tr_th'
I6
tp3238
a(S'w'
I713
tp3239
a(S'p2_vo'
I3
tp3240
a(S'w'
I751
tp3241
a(S'p1_du'
I2
tp3242
a(S'p1_vo'
I7
tp3243
a(S'w'
I6
tp3244
a(S'p1_ll'
I1
tp3245
a(S'w'
I7
tp3246
a(S'p2_du'
I3
tp3247
a(S'p2_vo'
I7
tp3248
a(S'w'
I5
tp3249
a(S'w'
I1
tp3250
a(S'p2_ll'
I1
tp3251
a(S'w'
I5
tp3252
a(S'tr_lh'
I0
tp3253
a(S'tr_lr'
I6
tp3254
a(S'w'
I6
tp3255
a(S'tr_tl'
I13
tp3256
a(S'tr_ll'
I1
tp3257
a(S'tr_th'
I1
tp3258
a(S'w'
I6
tp3259
a(S'no_vo'
I7
tp3260
a(S'w'
I5
tp3261
a(S'no_ll'
I3
tp3262
a(S'w'
I669
tp3263
a(S'p1_vo'
I3
tp3264
a(S'w'
I10
tp3265
a(S'p2_vo'
I6
tp3266
a(S'w'
I19
tp3267
a(S'no_vo'
I3
tp3268
a(S'w'
I713
tp3269
a(S'p1_vo'
I4
tp3270
a(S'w'
I9
tp3271
a(S'p2_vo'
I5
tp3272
a(S'w'
I9
tp3273
a(S'tr_lh'
I1
tp3274
a(S'tr_lr'
I126
tp3275
a(S'w'
I6
tp3276
a(S'tr_tl'
I167
tp3277
a(S'w'
I1
tp3278
a(S'tr_ll'
I1
tp3279
a(S'tr_th'
I2
tp3280
a(S'w'
I6
tp3281
a(S'no_vo'
I5
tp3282
a(S'w'
I703
tp3283
a(S'p2_vo'
I4
tp3284
a(S'w'
I17
tp3285
a(S'no_vo'
I3
tp3286
a(S'w'
I711
tp3287
a(S'p1_vo'
I2
tp3288
a(S'w'
I10
tp3289
a(S'p2_vo'
I0
tp3290
a(S'w'
I14
tp3291
a(S'tr_tl'
I174
tp3292
a(S'w'
I1
tp3293
a(S'tr_ll'
I1
tp3294
a(S'tr_th'
I6
tp3295
a(S'w'
I713
tp3296
a(S'p2_vo'
I3
tp3297
a(S'w'
I806
tp3298
a.