(lp1
(S'clock'
p2
I1789772
tp3
a(S'p1_du'
I3
tp4
a(S'p1_lh'
I1
tp5
a(S'p1_cv'
I1
tp6
a(S'p1_sp'
I7
tp7
a(S'p1_sn'
I1
tp8
a(S'p1_tl'
I143
tp9
a(S'p1_ll'
I1
tp10
a(S'p2_du'
I3
tp11
a(S'p2_lh'
I1
tp12
a(S'p2_cv'
I1
tp13
a(S'p2_sp'
I7
tp14
a(S'p2_sn'
I1
tp15
a(S'p2_tl'
I226
tp16
a(S'p2_ll'
I1
tp17
a(S'tr_lh'
I1
tp18
a(S'tr_tl'
I117
tp19
a(S'tr_ll'
I1
tp20
a(S'tr_th'
I4
tp21
a(S'no_lh'
I1
tp22
a(S'no_cv'
I1
tp23
a(S'no_np'
I5
tp24
a(S'no_ll'
I3
tp25
a(S'ch_no'
I1
tp26
a(S'ch_tr'
I1
tp27
a(S'ch_p2'
I1
tp28
a(S'ch_p1'
I1
tp29
a(S'fc_mo'
I1
tp30
a(S'p1_vo'
I4
tp31
a(S'w'
I5
tp32
a(S'p1_se'
I1
tp33
a(S'p1_sp'
I1
tp34
a(S'p1_ss'
I1
tp35
a(S'p1_tl'
I46
tp36
a(S'w'
I1
tp37
a(S'p1_ll'
I1
tp38
a(S'p1_th'
I1
tp39
a(S'w'
I7
tp40
a(S'p2_vo'
I4
tp41
a(S'w'
I5
tp42
a(S'p2_se'
I1
tp43
a(S'p2_sp'
I1
tp44
a(S'p2_ss'
I1
tp45
a(S'p2_tl'
I185
tp46
a(S'w'
I1
tp47
a(S'p2_ll'
I1
tp48
a(S'p2_th'
I4
tp49
a(S'w'
I6
tp50
a(S'tr_lh'
I0
tp51
a(S'tr_lr'
I15
tp52
a(S'w'
I1
tp53
a(S'tr_lh'
I1
tp54
a(S'tr_lr'
I0
tp55
a(S'w'
I3
tp56
a(S'tr_tl'
I185
tp57
a(S'w'
I1
tp58
a(S'tr_ll'
I1
tp59
a(S'w'
I6
tp60
a(S'no_vo'
I15
tp61
a(S'w'
I2
tp62
a(S'no_vo'
I0
tp63
a(S'w'
I3
tp64
a(S'no_nl'
I1
tp65
a(S'no_np'
I9
tp66
a(S'no_ll'
I1
tp67
a(S'w'
I650
tp68
a(S'p1_vo'
I6
tp69
a(S'w'
I10
tp70
a(S'p2_vo'
I6
tp71
a(S'w'
I9
tp72
a(S'tr_lr'
I126
tp73
a(S'w'
I5
tp74
a(S'tr_tl'
I93
tp75
a(S'w'
I1
tp76
a(S'tr_ll'
I1
tp77
a(S'tr_th'
I2
tp78
a(S'w'
I6
tp79
a(S'no_vo'
I7
tp80
a(S'w'
I5
tp81
a(S'no_nl'
I0
tp82
a(S'no_np'
I5
tp83
a(S'no_ll'
I3
tp84
a(S'w'
I683
tp85
a(S'p1_vo'
I12
tp86
a(S'w'
I9
tp87
a(S'p2_vo'
I12
tp88
a(S'w'
I17
tp89
a(S'no_vo'
I3
tp90
a(S'w'
I708
tp91
a(S'p1_vo'
I8
tp92
a(S'w'
I9
tp93
a(S'p2_vo'
I8
tp94
a(S'w'
I17
tp95
a(S'no_vo'
I5
tp96
a(S'w'
I707
tp97
a(S'p1_vo'
I6
tp98
a(S'w'
I10
tp99
a(S'p2_vo'
I6
tp100
a(S'w'
I17
tp101
a(S'no_vo'
I3
tp102
a(S'w'
I725
tp103
a(S'p1_vo'
I2
tp104
a(S'w'
I6
tp105
a(S'p1_tl'
I46
tp106
a(S'p1_ll'
I1
tp107
a(S'w'
I7
tp108
a(S'p2_vo'
I2
tp109
a(S'w'
I5
tp110
a(S'p2_tl'
I185
tp111
a(S'w'
I1
tp112
a(S'p2_ll'
I1
tp113
a(S'w'
I695
tp114
a(S'p1_vo'
I3
tp115
a(S'w'
I10
tp116
a(S'p2_vo'
I3
tp117
a(S'w'
I779
tp118
a(S'p1_vo'
I4
tp119
a(S'w'
I6
tp120
a(S'p1_tl'
I83
tp121
a(S'w'
I1
tp122
a(S'p1_ll'
I1
tp123
a(S'w'
I6
tp124
a(S'p2_vo'
I4
tp125
a(S'w'
I6
tp126
a(S'p2_tl'
I77
tp127
a(S'p2_ll'
I1
tp128
a(S'p2_th'
I5
tp129
a(S'w'
I11
tp130
a(S'tr_tl'
I185
tp131
a(S'w'
I1
tp132
a(S'tr_ll'
I1
tp133
a(S'tr_th'
I4
tp134
a(S'w'
I6
tp135
a(S'no_vo'
I1
tp136
a(S'w'
I652
tp137
a(S'p1_vo'
I6
tp138
a(S'w'
I10
tp139
a(S'p2_vo'
I6
tp140
a(S'w'
I14
tp141
a(S'tr_tl'
I167
tp142
a(S'w'
I1
tp143
a(S'tr_ll'
I1
tp144
a(S'tr_th'
I2
tp145
a(S'w'
I6
tp146
a(S'no_vo'
I7
tp147
a(S'w'
I4
tp148
a(S'w'
I1
tp149
a(S'no_ll'
I3
tp150
a(S'w'
I689
tp151
a(S'p1_vo'
I12
tp152
a(S'w'
I10
tp153
a(S'p2_vo'
I12
tp154
a(S'w'
I17
tp155
a(S'no_vo'
I3
tp156
a(S'w'
I707
tp157
a(S'p1_vo'
I8
tp158
a(S'w'
I10
tp159
a(S'p2_vo'
I8
tp160
a(S'w'
I16
tp161
a(S'no_vo'
I5
tp162
a(S'w'
I708
tp163
a(S'p1_vo'
I6
tp164
a(S'w'
I10
tp165
a(S'p2_vo'
I6
tp166
a(S'w'
I16
tp167
a(S'no_vo'
I3
tp168
a(S'w'
I725
tp169
a(S'p1_vo'
I2
tp170
a(S'w'
I6
tp171
a(S'p1_tl'
I83
tp172
a(S'w'
I1
tp173
a(S'p1_ll'
I1
tp174
a(S'w'
I6
tp175
a(S'p2_vo'
I2
tp176
a(S'w'
I6
tp177
a(S'p2_tl'
I77
tp178
a(S'p2_ll'
I1
tp179
a(S'w'
I695
tp180
a(S'p1_vo'
I3
tp181
a(S'w'
I10
tp182
a(S'p2_vo'
I3
tp183
a(S'w'
I780
tp184
a(S'p1_vo'
I4
tp185
a(S'w'
I6
tp186
a(S'p1_tl'
I254
tp187
a(S'p1_ll'
I1
tp188
a(S'p1_th'
I0
tp189
a(S'w'
I7
tp190
a(S'p2_vo'
I4
tp191
a(S'w'
I5
tp192
a(S'p2_tl'
I249
tp193
a(S'w'
I1
tp194
a(S'p2_ll'
I1
tp195
a(S'p2_th'
I3
tp196
a(S'w'
I11
tp197
a(S'tr_tl'
I77
tp198
a(S'w'
I1
tp199
a(S'tr_ll'
I1
tp200
a(S'tr_th'
I5
tp201
a(S'w'
I6
tp202
a(S'no_vo'
I1
tp203
a(S'w'
I646
tp204
a(S'p1_vo'
I6
tp205
a(S'w'
I10
tp206
a(S'p2_vo'
I6
tp207
a(S'w'
I16
tp208
a(S'no_vo'
I7
tp209
a(S'w'
I5
tp210
a(S'no_ll'
I3
tp211
a(S'w'
I700
tp212
a(S'p1_vo'
I12
tp213
a(S'w'
I10
tp214
a(S'p2_vo'
I12
tp215
a(S'w'
I16
tp216
a(S'no_vo'
I3
tp217
a(S'w'
I713
tp218
a(S'p1_vo'
I8
tp219
a(S'w'
I10
tp220
a(S'p2_vo'
I8
tp221
a(S'w'
I15
tp222
a(S'tr_tl'
I252
tp223
a(S'tr_ll'
I1
tp224
a(S'tr_th'
I1
tp225
a(S'w'
I6
tp226
a(S'no_vo'
I5
tp227
a(S'w'
I698
tp228
a(S'p1_vo'
I6
tp229
a(S'w'
I9
tp230
a(S'p2_vo'
I6
tp231
a(S'w'
I17
tp232
a(S'no_vo'
I3
tp233
a(S'w'
I725
tp234
a(S'p1_vo'
I2
tp235
a(S'w'
I6
tp236
a(S'p1_tl'
I254
tp237
a(S'p1_ll'
I1
tp238
a(S'w'
I7
tp239
a(S'p2_vo'
I2
tp240
a(S'w'
I5
tp241
a(S'p2_tl'
I249
tp242
a(S'w'
I1
tp243
a(S'p2_ll'
I1
tp244
a(S'w'
I695
tp245
a(S'p1_vo'
I3
tp246
a(S'w'
I10
tp247
a(S'p2_vo'
I3
tp248
a(S'w'
I774
tp249
a(S'p1_vo'
I4
tp250
a(S'w'
I6
tp251
a(S'p1_tl'
I29
tp252
a(S'p1_ll'
I1
tp253
a(S'p1_th'
I1
tp254
a(S'w'
I7
tp255
a(S'p2_vo'
I4
tp256
a(S'w'
I5
tp257
a(S'p2_tl'
I117
tp258
a(S'w'
I1
tp259
a(S'p2_ll'
I1
tp260
a(S'p2_th'
I4
tp261
a(S'w'
I13
tp262
a(S'no_vo'
I1
tp263
a(S'w'
I656
tp264
a(S'p1_vo'
I6
tp265
a(S'w'
I10
tp266
a(S'p2_vo'
I6
tp267
a(S'w'
I17
tp268
a(S'no_vo'
I7
tp269
a(S'w'
I4
tp270
a(S'w'
I1
tp271
a(S'no_ll'
I3
tp272
a(S'w'
I705
tp273
a(S'p1_vo'
I12
tp274
a(S'w'
I10
tp275
a(S'p2_vo'
I12
tp276
a(S'w'
I15
tp277
a(S'tr_tl'
I249
tp278
a(S'tr_ll'
I1
tp279
a(S'tr_th'
I3
tp280
a(S'w'
I6
tp281
a(S'no_vo'
I3
tp282
a(S'w'
I703
tp283
a(S'p1_vo'
I8
tp284
a(S'w'
I10
tp285
a(S'p2_vo'
I8
tp286
a(S'w'
I14
tp287
a(S'tr_tl'
I59
tp288
a(S'w'
I1
tp289
a(S'tr_ll'
I1
tp290
a(S'tr_th'
I2
tp291
a(S'w'
I6
tp292
a(S'no_vo'
I5
tp293
a(S'w'
I697
tp294
a(S'p1_vo'
I6
tp295
a(S'w'
I10
tp296
a(S'p2_vo'
I6
tp297
a(S'w'
I16
tp298
a(S'no_vo'
I3
tp299
a(S'w'
I726
tp300
a(S'p1_vo'
I2
tp301
a(S'w'
I5
tp302
a(S'p1_tl'
I29
tp303
a(S'w'
I1
tp304
a(S'p1_ll'
I1
tp305
a(S'w'
I6
tp306
a(S'p2_vo'
I2
tp307
a(S'w'
I6
tp308
a(S'p2_tl'
I117
tp309
a(S'w'
I1
tp310
a(S'p2_ll'
I1
tp311
a(S'w'
I695
tp312
a(S'p1_vo'
I3
tp313
a(S'w'
I9
tp314
a(S'p2_vo'
I3
tp315
a(S'w'
I775
tp316
a(S'p1_vo'
I4
tp317
a(S'w'
I5
tp318
a(S'p1_tl'
I214
tp319
a(S'w'
I1
tp320
a(S'p1_ll'
I1
tp321
a(S'p1_th'
I0
tp322
a(S'w'
I6
tp323
a(S'p2_vo'
I4
tp324
a(S'w'
I6
tp325
a(S'p2_tl'
I87
tp326
a(S'w'
I1
tp327
a(S'p2_ll'
I1
tp328
a(S'p2_th'
I3
tp329
a(S'w'
I13
tp330
a(S'no_vo'
I1
tp331
a(S'w'
I656
tp332
a(S'p1_vo'
I6
tp333
a(S'w'
I10
tp334
a(S'p2_vo'
I6
tp335
a(S'w'
I16
tp336
a(S'no_vo'
I7
tp337
a(S'w'
I5
tp338
a(S'no_ll'
I3
tp339
a(S'w'
I706
tp340
a(S'p1_vo'
I12
tp341
a(S'w'
I9
tp342
a(S'p2_vo'
I12
tp343
a(S'w'
I15
tp344
a(S'tr_tl'
I117
tp345
a(S'w'
I1
tp346
a(S'tr_ll'
I1
tp347
a(S'tr_th'
I4
tp348
a(S'w'
I6
tp349
a(S'no_vo'
I3
tp350
a(S'w'
I703
tp351
a(S'p1_vo'
I8
tp352
a(S'w'
I9
tp353
a(S'p2_vo'
I8
tp354
a(S'w'
I15
tp355
a(S'tr_tl'
I172
tp356
a(S'tr_ll'
I1
tp357
a(S'tr_th'
I1
tp358
a(S'w'
I7
tp359
a(S'no_vo'
I5
tp360
a(S'w'
I697
tp361
a(S'p1_vo'
I6
tp362
a(S'w'
I9
tp363
a(S'p2_vo'
I6
tp364
a(S'w'
I17
tp365
a(S'no_vo'
I3
tp366
a(S'w'
I725
tp367
a(S'p1_vo'
I2
tp368
a(S'w'
I6
tp369
a(S'p1_tl'
I214
tp370
a(S'w'
I1
tp371
a(S'p1_ll'
I1
tp372
a(S'w'
I6
tp373
a(S'p2_vo'
I2
tp374
a(S'w'
I6
tp375
a(S'p2_tl'
I87
tp376
a(S'p2_ll'
I1
tp377
a(S'w'
I695
tp378
a(S'p1_vo'
I3
tp379
a(S'w'
I10
tp380
a(S'p2_vo'
I3
tp381
a(S'w'
I774
tp382
a(S'p1_vo'
I4
tp383
a(S'w'
I6
tp384
a(S'p1_tl'
I240
tp385
a(S'p1_ll'
I1
tp386
a(S'w'
I7
tp387
a(S'p2_vo'
I4
tp388
a(S'w'
I6
tp389
a(S'p2_tl'
I192
tp390
a(S'p2_ll'
I1
tp391
a(S'w'
I13
tp392
a(S'no_vo'
I1
tp393
a(S'w'
I657
tp394
a(S'p1_vo'
I6
tp395
a(S'w'
I9
tp396
a(S'p2_vo'
I6
tp397
a(S'w'
I17
tp398
a(S'no_vo'
I7
tp399
a(S'w'
I5
tp400
a(S'no_ll'
I3
tp401
a(S'w'
I705
tp402
a(S'p1_vo'
I12
tp403
a(S'w'
I10
tp404
a(S'p2_vo'
I12
tp405
a(S'w'
I15
tp406
a(S'tr_tl'
I87
tp407
a(S'tr_ll'
I1
tp408
a(S'tr_th'
I3
tp409
a(S'w'
I6
tp410
a(S'no_vo'
I3
tp411
a(S'w'
I703
tp412
a(S'p1_vo'
I8
tp413
a(S'w'
I10
tp414
a(S'p2_vo'
I8
tp415
a(S'w'
I14
tp416
a(S'tr_tl'
I224
tp417
a(S'w'
I1
tp418
a(S'tr_ll'
I1
tp419
a(S'tr_th'
I1
tp420
a(S'w'
I6
tp421
a(S'no_vo'
I5
tp422
a(S'w'
I697
tp423
a(S'p1_vo'
I6
tp424
a(S'w'
I10
tp425
a(S'p2_vo'
I6
tp426
a(S'w'
I17
tp427
a(S'no_vo'
I3
tp428
a(S'w'
I725
tp429
a(S'p1_vo'
I2
tp430
a(S'w'
I6
tp431
a(S'p1_tl'
I240
tp432
a(S'p1_ll'
I1
tp433
a(S'w'
I7
tp434
a(S'p2_vo'
I2
tp435
a(S'w'
I5
tp436
a(S'p2_tl'
I192
tp437
a(S'w'
I1
tp438
a(S'p2_ll'
I1
tp439
a(S'w'
I695
tp440
a(S'p1_vo'
I3
tp441
a(S'w'
I10
tp442
a(S'p2_vo'
I3
tp443
a(S'w'
I774
tp444
a(S'p1_vo'
I4
tp445
a(S'w'
I6
tp446
a(S'p1_tl'
I180
tp447
a(S'p1_ll'
I1
tp448
a(S'w'
I7
tp449
a(S'p2_vo'
I4
tp450
a(S'w'
I5
tp451
a(S'p2_tl'
I207
tp452
a(S'w'
I1
tp453
a(S'p2_ll'
I1
tp454
a(S'p2_th'
I2
tp455
a(S'w'
I13
tp456
a(S'no_vo'
I1
tp457
a(S'w'
I656
tp458
a(S'p1_vo'
I6
tp459
a(S'w'
I10
tp460
a(S'p2_vo'
I6
tp461
a(S'w'
I17
tp462
a(S'no_vo'
I7
tp463
a(S'w'
I4
tp464
a(S'w'
I1
tp465
a(S'no_ll'
I3
tp466
a(S'w'
I705
tp467
a(S'p1_vo'
I12
tp468
a(S'w'
I10
tp469
a(S'p2_vo'
I12
tp470
a(S'w'
I14
tp471
a(S'tr_tl'
I192
tp472
a(S'w'
I1
tp473
a(S'tr_ll'
I1
tp474
a(S'tr_th'
I3
tp475
a(S'w'
I6
tp476
a(S'no_vo'
I3
tp477
a(S'w'
I703
tp478
a(S'p1_vo'
I8
tp479
a(S'w'
I10
tp480
a(S'p2_vo'
I8
tp481
a(S'w'
I14
tp482
a(S'tr_tl'
I104
tp483
a(S'w'
I1
tp484
a(S'tr_ll'
I1
tp485
a(S'tr_th'
I1
tp486
a(S'w'
I6
tp487
a(S'no_vo'
I5
tp488
a(S'w'
I697
tp489
a(S'p1_vo'
I6
tp490
a(S'w'
I10
tp491
a(S'p2_vo'
I6
tp492
a(S'w'
I16
tp493
a(S'no_vo'
I3
tp494
a(S'w'
I726
tp495
a(S'p1_vo'
I2
tp496
a(S'w'
I5
tp497
a(S'p1_tl'
I180
tp498
a(S'w'
I1
tp499
a(S'p1_ll'
I1
tp500
a(S'w'
I6
tp501
a(S'p2_vo'
I2
tp502
a(S'w'
I6
tp503
a(S'p2_tl'
I207
tp504
a(S'w'
I1
tp505
a(S'p2_ll'
I1
tp506
a(S'w'
I694
tp507
a(S'p1_vo'
I3
tp508
a(S'w'
I10
tp509
a(S'p2_vo'
I3
tp510
a(S'w'
I774
tp511
a(S'p1_vo'
I4
tp512
a(S'w'
I6
tp513
a(S'p1_tl'
I226
tp514
a(S'w'
I1
tp515
a(S'p1_ll'
I1
tp516
a(S'w'
I6
tp517
a(S'p2_vo'
I4
tp518
a(S'w'
I6
tp519
a(S'p2_tl'
I138
tp520
a(S'p2_ll'
I1
tp521
a(S'p2_th'
I3
tp522
a(S'w'
I14
tp523
a(S'no_vo'
I1
tp524
a(S'w'
I656
tp525
a(S'p1_vo'
I6
tp526
a(S'w'
I10
tp527
a(S'p2_vo'
I6
tp528
a(S'w'
I16
tp529
a(S'no_vo'
I7
tp530
a(S'w'
I5
tp531
a(S'no_ll'
I3
tp532
a(S'w'
I706
tp533
a(S'p1_vo'
I12
tp534
a(S'w'
I9
tp535
a(S'p2_vo'
I12
tp536
a(S'w'
I15
tp537
a(S'tr_tl'
I207
tp538
a(S'w'
I1
tp539
a(S'tr_ll'
I1
tp540
a(S'tr_th'
I2
tp541
a(S'w'
I6
tp542
a(S'no_vo'
I3
tp543
a(S'w'
I702
tp544
a(S'p1_vo'
I8
tp545
a(S'w'
I10
tp546
a(S'p2_vo'
I8
tp547
a(S'w'
I15
tp548
a(S'tr_tl'
I197
tp549
a(S'tr_ll'
I1
tp550
a(S'tr_th'
I1
tp551
a(S'w'
I6
tp552
a(S'no_vo'
I5
tp553
a(S'w'
I698
tp554
a(S'p1_vo'
I6
tp555
a(S'w'
I9
tp556
a(S'p2_vo'
I6
tp557
a(S'w'
I17
tp558
a(S'no_vo'
I3
tp559
a(S'w'
I725
tp560
a(S'p1_vo'
I2
tp561
a(S'w'
I6
tp562
a(S'p1_tl'
I226
tp563
a(S'p1_ll'
I1
tp564
a(S'w'
I7
tp565
a(S'p2_vo'
I2
tp566
a(S'w'
I5
tp567
a(S'p2_tl'
I138
tp568
a(S'w'
I1
tp569
a(S'p2_ll'
I1
tp570
a(S'w'
I695
tp571
a(S'p1_vo'
I3
tp572
a(S'w'
I10
tp573
a(S'p2_vo'
I3
tp574
a(S'w'
I774
tp575
a(S'p1_vo'
I4
tp576
a(S'w'
I6
tp577
a(S'p1_tl'
I214
tp578
a(S'p1_ll'
I1
tp579
a(S'w'
I7
tp580
a(S'p2_vo'
I4
tp581
a(S'w'
I5
tp582
a(S'p2_tl'
I87
tp583
a(S'w'
I1
tp584
a(S'p2_ll'
I1
tp585
a(S'w'
I13
tp586
a(S'no_vo'
I1
tp587
a(S'w'
I657
tp588
a(S'p1_vo'
I6
tp589
a(S'w'
I10
tp590
a(S'p2_vo'
I6
tp591
a(S'w'
I17
tp592
a(S'no_vo'
I7
tp593
a(S'w'
I4
tp594
a(S'w'
I1
tp595
a(S'no_ll'
I3
tp596
a(S'w'
I704
tp597
a(S'p1_vo'
I12
tp598
a(S'w'
I10
tp599
a(S'p2_vo'
I12
tp600
a(S'w'
I15
tp601
a(S'tr_tl'
I138
tp602
a(S'tr_ll'
I1
tp603
a(S'tr_th'
I3
tp604
a(S'w'
I6
tp605
a(S'no_vo'
I3
tp606
a(S'w'
I703
tp607
a(S'p1_vo'
I8
tp608
a(S'w'
I10
tp609
a(S'p2_vo'
I8
tp610
a(S'w'
I14
tp611
a(S'tr_tl'
I172
tp612
a(S'w'
I1
tp613
a(S'tr_ll'
I1
tp614
a(S'tr_th'
I1
tp615
a(S'w'
I6
tp616
a(S'no_vo'
I5
tp617
a(S'w'
I697
tp618
a(S'p1_vo'
I6
tp619
a(S'w'
I10
tp620
a(S'p2_vo'
I6
tp621
a(S'w'
I16
tp622
a(S'no_vo'
I3
tp623
a(S'w'
I725
tp624
a(S'p1_vo'
I2
tp625
a(S'w'
I5
tp626
a(S'p1_tl'
I214
tp627
a(S'w'
I1
tp628
a(S'p1_ll'
I1
tp629
a(S'w'
I6
tp630
a(S'p2_vo'
I2
tp631
a(S'w'
I6
tp632
a(S'p2_tl'
I87
tp633
a(S'w'
I1
tp634
a(S'p2_ll'
I1
tp635
a(S'w'
I696
tp636
a(S'p1_vo'
I3
tp637
a(S'w'
I9
tp638
a(S'p2_vo'
I3
tp639
a(S'w'
I727
tp640
a(S'p1_vo'
I6
tp641
a(S'w'
I9
tp642
a(S'p2_vo'
I6
tp643
a(S'w'
I17
tp644
a(S'no_vo'
I1
tp645
a(S'w'
I705
tp646
a(S'p1_vo'
I4
tp647
a(S'w'
I10
tp648
a(S'p2_vo'
I4
tp649
a(S'w'
I730
tp650
a(S'p1_vo'
I3
tp651
a(S'w'
I9
tp652
a(S'p2_vo'
I3
tp653
a(S'w'
I15
tp654
a(S'tr_tl'
I87
tp655
a(S'w'
I1
tp656
a(S'tr_ll'
I1
tp657
a(S'tr_th'
I3
tp658
a(S'w'
I726
tp659
a(S'p1_vo'
I1
tp660
a(S'w'
I6
tp661
a(S'p1_tl'
I214
tp662
a(S'p1_ll'
I1
tp663
a(S'w'
I7
tp664
a(S'p2_vo'
I1
tp665
a(S'w'
I5
tp666
a(S'p2_tl'
I87
tp667
a(S'w'
I1
tp668
a(S'p2_ll'
I1
tp669
a(S'w'
I7
tp670
a(S'tr_lr'
I0
tp671
a(S'w'
I4
tp672
a(S'tr_ll'
I1
tp673
a(S'w'
I681
tp674
a(S'p1_vo'
I2
tp675
a(S'w'
I9
tp676
a(S'p2_vo'
I2
tp677
a(S'w'
I724
tp678
a(S'p1_vo'
I3
tp679
a(S'w'
I10
tp680
a(S'p2_vo'
I3
tp681
a(S'w'
I724
tp682
a(S'p1_vo'
I2
tp683
a(S'w'
I10
tp684
a(S'p2_vo'
I2
tp685
a(S'w'
I1505
tp686
a(S'p1_vo'
I4
tp687
a(S'w'
I5
tp688
a(S'p1_tl'
I172
tp689
a(S'w'
I1
tp690
a(S'p1_ll'
I1
tp691
a(S'p1_th'
I1
tp692
a(S'w'
I6
tp693
a(S'p2_vo'
I4
tp694
a(S'w'
I6
tp695
a(S'p2_tl'
I174
tp696
a(S'w'
I1
tp697
a(S'p2_ll'
I1
tp698
a(S'p2_th'
I6
tp699
a(S'w'
I673
tp700
a(S'p1_vo'
I6
tp701
a(S'w'
I10
tp702
a(S'p2_vo'
I6
tp703
a(S'w'
I16
tp704
a(S'no_vo'
I7
tp705
a(S'w'
I4
tp706
a(S'w'
I1
tp707
a(S'no_ll'
I3
tp708
a(S'w'
I700
tp709
a(S'p1_vo'
I12
tp710
a(S'w'
I9
tp711
a(S'p2_vo'
I12
tp712
a(S'w'
I16
tp713
a(S'no_vo'
I3
tp714
a(S'w'
I714
tp715
a(S'p1_vo'
I8
tp716
a(S'w'
I10
tp717
a(S'p2_vo'
I8
tp718
a(S'w'
I9
tp719
a(S'tr_lr'
I126
tp720
a(S'w'
I6
tp721
a(S'tr_ll'
I1
tp722
a(S'w'
I6
tp723
a(S'no_vo'
I5
tp724
a(S'w'
I697
tp725
a(S'p1_vo'
I6
tp726
a(S'w'
I10
tp727
a(S'p2_vo'
I6
tp728
a(S'w'
I16
tp729
a(S'no_vo'
I3
tp730
a(S'w'
I718
tp731
a(S'p1_vo'
I4
tp732
a(S'w'
I6
tp733
a(S'p1_tl'
I172
tp734
a(S'w'
I1
tp735
a(S'p1_ll'
I1
tp736
a(S'w'
I6
tp737
a(S'p2_vo'
I4
tp738
a(S'w'
I6
tp739
a(S'p2_tl'
I174
tp740
a(S'p2_ll'
I1
tp741
a(S'w'
I708
tp742
a(S'p1_vo'
I6
tp743
a(S'w'
I9
tp744
a(S'p2_vo'
I6
tp745
a(S'w'
I17
tp746
a(S'no_vo'
I7
tp747
a(S'w'
I4
tp748
a(S'w'
I1
tp749
a(S'no_ll'
I3
tp750
a(S'w'
I700
tp751
a(S'p1_vo'
I12
tp752
a(S'w'
I9
tp753
a(S'p2_vo'
I12
tp754
a(S'w'
I17
tp755
a(S'no_vo'
I3
tp756
a(S'w'
I707
tp757
a(S'p1_vo'
I8
tp758
a(S'w'
I10
tp759
a(S'p2_vo'
I8
tp760
a(S'w'
I17
tp761
a(S'no_vo'
I5
tp762
a(S'w'
I707
tp763
a(S'p1_vo'
I6
tp764
a(S'w'
I10
tp765
a(S'p2_vo'
I6
tp766
a(S'w'
I17
tp767
a(S'no_vo'
I3
tp768
a(S'w'
I717
tp769
a(S'p1_vo'
I4
tp770
a(S'w'
I6
tp771
a(S'p1_tl'
I172
tp772
a(S'w'
I1
tp773
a(S'p1_ll'
I1
tp774
a(S'w'
I6
tp775
a(S'p2_vo'
I4
tp776
a(S'w'
I6
tp777
a(S'p2_tl'
I174
tp778
a(S'p2_ll'
I1
tp779
a(S'w'
I708
tp780
a(S'p1_vo'
I6
tp781
a(S'w'
I9
tp782
a(S'p2_vo'
I6
tp783
a(S'w'
I17
tp784
a(S'no_vo'
I7
tp785
a(S'w'
I4
tp786
a(S'w'
I1
tp787
a(S'no_ll'
I3
tp788
a(S'w'
I700
tp789
a(S'p1_vo'
I12
tp790
a(S'w'
I9
tp791
a(S'p2_vo'
I12
tp792
a(S'w'
I17
tp793
a(S'no_vo'
I3
tp794
a(S'w'
I707
tp795
a(S'p1_vo'
I8
tp796
a(S'w'
I10
tp797
a(S'p2_vo'
I8
tp798
a(S'w'
I17
tp799
a(S'no_vo'
I5
tp800
a(S'w'
I707
tp801
a(S'p1_vo'
I6
tp802
a(S'w'
I10
tp803
a(S'p2_vo'
I6
tp804
a(S'w'
I16
tp805
a(S'no_vo'
I3
tp806
a(S'w'
I720
tp807
a(S'p1_vo'
I4
tp808
a(S'w'
I5
tp809
a(S'p1_tl'
I172
tp810
a(S'w'
I1
tp811
a(S'p1_ll'
I1
tp812
a(S'w'
I6
tp813
a(S'p2_vo'
I4
tp814
a(S'w'
I6
tp815
a(S'p2_tl'
I174
tp816
a(S'w'
I1
tp817
a(S'p2_ll'
I1
tp818
a(S'w'
I706
tp819
a(S'p1_vo'
I6
tp820
a(S'w'
I10
tp821
a(S'p2_vo'
I6
tp822
a(S'w'
I17
tp823
a(S'no_vo'
I7
tp824
a(S'w'
I4
tp825
a(S'w'
I1
tp826
a(S'no_ll'
I3
tp827
a(S'w'
I699
tp828
a(S'p1_vo'
I12
tp829
a(S'w'
I9
tp830
a(S'p2_vo'
I12
tp831
a(S'w'
I17
tp832
a(S'no_vo'
I3
tp833
a(S'w'
I713
tp834
a(S'p1_vo'
I8
tp835
a(S'w'
I10
tp836
a(S'p2_vo'
I8
tp837
a(S'w'
I15
tp838
a(S'tr_ll'
I1
tp839
a(S'w'
I6
tp840
a(S'no_vo'
I5
tp841
a(S'w'
I697
tp842
a(S'p1_vo'
I6
tp843
a(S'w'
I10
tp844
a(S'p2_vo'
I6
tp845
a(S'w'
I17
tp846
a(S'no_vo'
I3
tp847
a(S'w'
I723
tp848
a(S'p1_vo'
I2
tp849
a(S'w'
I6
tp850
a(S'p1_tl'
I172
tp851
a(S'w'
I1
tp852
a(S'p1_ll'
I1
tp853
a(S'w'
I6
tp854
a(S'p2_vo'
I2
tp855
a(S'w'
I6
tp856
a(S'p2_tl'
I174
tp857
a(S'p2_ll'
I1
tp858
a(S'w'
I697
tp859
a(S'p1_vo'
I3
tp860
a(S'w'
I10
tp861
a(S'p2_vo'
I3
tp862
a(S'w'
I726
tp863
a(S'p1_vo'
I6
tp864
a(S'w'
I9
tp865
a(S'p2_vo'
I6
tp866
a(S'w'
I17
tp867
a(S'no_vo'
I1
tp868
a(S'w'
I705
tp869
a(S'p1_vo'
I4
tp870
a(S'w'
I10
tp871
a(S'p2_vo'
I4
tp872
a(S'w'
I724
tp873
a(S'p1_vo'
I3
tp874
a(S'w'
I10
tp875
a(S'p2_vo'
I3
tp876
a(S'w'
I744
tp877
a(S'p1_vo'
I1
tp878
a(S'w'
I6
tp879
a(S'p1_tl'
I172
tp880
a(S'w'
I1
tp881
a(S'p1_ll'
I1
tp882
a(S'w'
I6
tp883
a(S'p2_vo'
I1
tp884
a(S'w'
I6
tp885
a(S'p2_tl'
I174
tp886
a(S'p2_ll'
I1
tp887
a(S'w'
I6
tp888
a(S'tr_lr'
I0
tp889
a(S'w'
I686
tp890
a(S'p1_vo'
I2
tp891
a(S'w'
I10
tp892
a(S'p2_vo'
I2
tp893
a(S'w'
I724
tp894
a(S'p1_vo'
I3
tp895
a(S'w'
I10
tp896
a(S'p2_vo'
I3
tp897
a(S'w'
I724
tp898
a(S'p1_vo'
I2
tp899
a(S'w'
I10
tp900
a(S'p2_vo'
I2
tp901
a(S'w'
I1476
tp902
a(S'p1_vo'
I1
tp903
a(S'w'
I6
tp904
a(S'p1_tl'
I172
tp905
a(S'p1_ll'
I1
tp906
a(S'w'
I7
tp907
a(S'p2_vo'
I1
tp908
a(S'w'
I6
tp909
a(S'p2_tl'
I174
tp910
a(S'p2_ll'
I1
tp911
a(S'w'
I1430
tp912
a(S'p1_vo'
I2
tp913
a(S'w'
I10
tp914
a(S'p2_vo'
I2
tp915
a(S'w'
I724
tp916
a(S'p1_vo'
I1
tp917
a(S'w'
I10
tp918
a(S'p2_vo'
I1
tp919
a(S'w'
I1484
tp920
a(S'p1_tl'
I172
tp921
a(S'w'
I1
tp922
a(S'p1_ll'
I1
tp923
a(S'w'
I12
tp924
a(S'p2_tl'
I174
tp925
a(S'p2_ll'
I1
tp926
a(S'w'
I13
tp927
a(S'no_vo'
I0
tp928
a(S'w'
I3637
tp929
a(S'p1_tl'
I172
tp930
a(S'p1_ll'
I1
tp931
a(S'w'
I12
tp932
a(S'p2_tl'
I174
tp933
a(S'w'
I1
tp934
a(S'p2_ll'
I1
tp935
a(S'w'
I11
tp936
a(S'w'
I3626
tp937
a(S'p1_vo'
I0
tp938
a(S'w'
I6
tp939
a(S'p2_vo'
I0
tp940
a(S'w'
I1
tp941
a.