(lp1
(S'clock'
p2
I1789772
tp3
a(S'fc_mo'
I0
tp4
a(S'w'
I2
tp5
a(S'ch_no'
I0
tp6
a(S'ch_tr'
I0
tp7
a(S'ch_p2'
I0
tp8
a(S'ch_p1'
I1
tp9
a(S'w'
I3
tp10
a(S'w'
I1
tp11
a(S'w'
I3
tp12
a(S'ch_no'
I0
tp13
a(S'ch_tr'
I0
tp14
a(S'ch_p2'
I0
tp15
a(S'ch_p1'
I0
tp16
a(S'w'
I1
tp17
a(S'ch_no'
I0
tp18
a(S'ch_tr'
I0
tp19
a(S'ch_p2'
I1
tp20
a(S'ch_p1'
I0
tp21
a(S'w'
I3
tp22
a(S'w'
I1
tp23
a(S'w'
I3
tp24
a(S'ch_no'
I0
tp25
a(S'ch_tr'
I0
tp26
a(S'ch_p2'
I0
tp27
a(S'ch_p1'
I0
tp28
a(S'w'
I2
tp29
a(S'ch_no'
I0
tp30
a(S'ch_tr'
I1
tp31
a(S'ch_p2'
I0
tp32
a(S'ch_p1'
I0
tp33
a(S'w'
I3
tp34
a(S'tr_lr'
I26
tp35
a(S'w'
I1
tp36
a(S'w'
I3
tp37
a(S'tr_lr'
I18
tp38
a(S'w'
I7
tp39
a(S'tr_tl'
I142
tp40
a(S'w'
I1
tp41
a(S'tr_ll'
I27
tp42
a(S'w'
I1
tp43
a(S'ch_no'
I1
tp44
a(S'ch_tr'
I1
tp45
a(S'ch_p2'
I0
tp46
a(S'ch_p1'
I0
tp47
a(S'w'
I3
tp48
a(S'w'
I1
tp49
a(S'w'
I3
tp50
a(S'ch_no'
I0
tp51
a(S'ch_tr'
I1
tp52
a(S'ch_p2'
I0
tp53
a(S'ch_p1'
I0
tp54
a(S'w'
I10244
tp55
a(S'tr_tl'
I106
tp56
a(S'tr_ll'
I27
tp57
a(S'w'
I10272
tp58
a(S'tr_tl'
I142
tp59
a(S'tr_ll'
I27
tp60
a(S'w'
I9540
tp61
a(S'tr_tl'
I106
tp62
a(S'tr_ll'
I27
tp63
a(S'w'
I10272
tp64
a(S'tr_tl'
I142
tp65
a(S'tr_ll'
I27
tp66
a(S'w'
I9540
tp67
a(S'tr_tl'
I106
tp68
a(S'tr_ll'
I27
tp69
a(S'w'
I10272
tp70
a(S'tr_tl'
I142
tp71
a(S'tr_ll'
I27
tp72
a(S'w'
I9541
tp73
a(S'tr_tl'
I106
tp74
a(S'tr_ll'
I27
tp75
a(S'w'
I9540
tp76
a(S'tr_tl'
I142
tp77
a(S'w'
I1
tp78
a(S'tr_ll'
I27
tp79
a(S'w'
I9536
tp80
a(S'tr_tl'
I113
tp81
a(S'tr_ll'
I27
tp82
a(S'w'
I9543
tp83
a(S'tr_tl'
I142
tp84
a(S'tr_ll'
I27
tp85
a(S'w'
I9536
tp86
a(S'tr_tl'
I113
tp87
a(S'tr_ll'
I27
tp88
a(S'w'
I9542
tp89
a(S'tr_tl'
I142
tp90
a(S'tr_ll'
I27
tp91
a(S'w'
I9536
tp92
a(S'tr_tl'
I113
tp93
a(S'tr_ll'
I27
tp94
a(S'w'
I9543
tp95
a(S'tr_tl'
I142
tp96
a(S'tr_ll'
I27
tp97
a(S'w'
I9536
tp98
a(S'tr_tl'
I113
tp99
a(S'tr_ll'
I27
tp100
a(S'w'
I9537
tp101
a.