(lp1
(S'clock'
p2
I1789772
tp3
a(S'fc_mo'
I0
tp4
a(S'w'
I2
tp5
a(S'ch_no'
I0
tp6
a(S'ch_tr'
I0
tp7
a(S'ch_p2'
I0
tp8
a(S'ch_p1'
I1
tp9
a(S'w'
I3
tp10
a(S'p1_du'
I3
tp11
a(S'p1_vo'
I7
tp12
a(S'w'
I1
tp13
a(S'w'
I8
tp14
a(S'p1_tl'
I106
tp15
a(S'p1_ll'
I19
tp16
a(S'w'
I2
tp17
a(S'ch_no'
I0
tp18
a(S'ch_tr'
I0
tp19
a(S'ch_p2'
I1
tp20
a(S'ch_p1'
I1
tp21
a(S'w'
I3
tp22
a(S'w'
I1
tp23
a(S'w'
I3
tp24
a(S'ch_no'
I0
tp25
a(S'ch_tr'
I0
tp26
a(S'ch_p2'
I0
tp27
a(S'ch_p1'
I1
tp28
a(S'w'
I1
tp29
a(S'ch_no'
I0
tp30
a(S'ch_tr'
I1
tp31
a(S'ch_p2'
I0
tp32
a(S'ch_p1'
I1
tp33
a(S'w'
I4
tp34
a(S'w'
I4
tp35
a(S'ch_no'
I0
tp36
a(S'ch_tr'
I0
tp37
a(S'ch_p2'
I0
tp38
a(S'ch_p1'
I1
tp39
a(S'w'
I1
tp40
a(S'ch_no'
I1
tp41
a(S'ch_tr'
I0
tp42
a(S'ch_p2'
I0
tp43
a(S'ch_p1'
I1
tp44
a(S'w'
I3
tp45
a(S'w'
I1
tp46
a(S'w'
I3
tp47
a(S'ch_no'
I0
tp48
a(S'ch_tr'
I0
tp49
a(S'ch_p2'
I0
tp50
a(S'ch_p1'
I1
tp51
a(S'w'
I7308
tp52
a(S'p1_tl'
I60
tp53
a(S'p1_ll'
I19
tp54
a(S'w'
I6604
tp55
a(S'p1_tl'
I134
tp56
a(S'w'
I1
tp57
a(S'p1_ll'
I19
tp58
a(S'w'
I6607
tp59
a(S'p1_tl'
I106
tp60
a(S'p1_ll'
I19
tp61
a(S'w'
I6601
tp62
a(S'p1_tl'
I60
tp63
a(S'p1_ll'
I19
tp64
a(S'w'
I6603
tp65
a(S'p1_tl'
I134
tp66
a(S'w'
I1
tp67
a(S'p1_ll'
I19
tp68
a(S'w'
I6606
tp69
a(S'p1_tl'
I106
tp70
a(S'p1_ll'
I19
tp71
a(S'w'
I6602
tp72
a(S'p1_tl'
I60
tp73
a(S'p1_ll'
I19
tp74
a(S'w'
I6603
tp75
a(S'p1_tl'
I134
tp76
a(S'w'
I1
tp77
a(S'p1_ll'
I19
tp78
a(S'w'
I6606
tp79
a(S'p1_tl'
I106
tp80
a(S'p1_ll'
I19
tp81
a(S'w'
I6603
tp82
a(S'p1_tl'
I60
tp83
a(S'p1_ll'
I19
tp84
a(S'w'
I6603
tp85
a(S'p1_tl'
I134
tp86
a(S'w'
I1
tp87
a(S'p1_ll'
I19
tp88
a(S'w'
I6606
tp89
a(S'p1_tl'
I100
tp90
a(S'p1_ll'
I31
tp91
a(S'w'
I11005
tp92
a(S'p1_ll'
I19
tp93
a(S'w'
I6604
tp94
a(S'p1_tl'
I60
tp95
a(S'p1_ll'
I4
tp96
a(S'w'
I14670
tp97
a(S'ch_no'
I0
tp98
a(S'ch_tr'
I0
tp99
a(S'ch_p2'
I0
tp100
a(S'ch_p1'
I0
tp101
a(S'w'
I43373
tp102
a.