(lp1
(S'clock'
p2
I1789772
tp3
a(S'w'
I1022
tp4
a(S'ch_no'
I1
tp5
a(S'ch_tr'
I1
tp6
a(S'ch_p2'
I1
tp7
a(S'ch_p1'
I1
tp8
a(S'p1_vo'
I6
tp9
a(S'w'
I1
tp10
a(S'p1_sn'
I1
tp11
a(S'w'
I1
tp12
a(S'p1_ll'
I0
tp13
a(S'w'
I1
tp14
a(S'no_vo'
I1
tp15
a(S'p2_vo'
I6
tp16
a(S'w'
I1
tp17
a(S'p2_sn'
I1
tp18
a(S'w'
I1
tp19
a(S'p2_ll'
I0
tp20
a(S'w'
I70
tp21
a(S'tr_ll'
I0
tp22
a(S'w'
I384
tp23
a(S'fc_mo'
I1
tp24
a(S'w'
I9560
tp25
a(S'p2_ll'
I0
tp26
a(S'w'
I1
tp27
a(S'no_np'
I1
tp28
a(S'w'
I5
tp29
a(S'p1_tl'
I12
tp30
a(S'p1_ll'
I1
tp31
a(S'p1_th'
I1
tp32
a(S'w'
I5
tp33
a(S'p2_ll'
I1
tp34
a(S'w'
I3
tp35
a(S'tr_lr'
I12
tp36
a(S'w'
I1
tp37
a(S'tr_tl'
I252
tp38
a(S'w'
I1
tp39
a(S'tr_ll'
I1
tp40
a(S'tr_th'
I1
tp41
a(S'w'
I4384
tp42
a(S'p1_tl'
I253
tp43
a(S'p1_ll'
I1
tp44
a(S'p1_th'
I0
tp45
a(S'w'
I4
tp46
a(S'tr_lr'
I48
tp47
a(S'w'
I4399
tp48
a(S'p1_tl'
I12
tp49
a(S'p1_ll'
I1
tp50
a(S'p1_th'
I1
tp51
a(S'w'
I4403
tp52
a(S'p1_tl'
I82
tp53
a(S'p1_ll'
I1
tp54
a(S'w'
I8805
tp55
a(S'p1_tl'
I147
tp56
a(S'w'
I1
tp57
a(S'p1_ll'
I1
tp58
a(S'w'
I5
tp59
a(S'tr_ll'
I1
tp60
a(S'w'
I4397
tp61
a(S'p1_tl'
I0
tp62
a(S'p1_ll'
I1
tp63
a(S'p1_th'
I0
tp64
a(S'w'
I8806
tp65
a(S'p1_tl'
I252
tp66
a(S'p1_ll'
I1
tp67
a(S'p1_th'
I1
tp68
a(S'w'
I4
tp69
a(S'p2_tl'
I82
tp70
a(S'w'
I1
tp71
a(S'p2_ll'
I1
tp72
a(S'p2_th'
I1
tp73
a(S'w'
I4398
tp74
a(S'p2_tl'
I45
tp75
a(S'w'
I1
tp76
a(S'p2_ll'
I1
tp77
a(S'w'
I3
tp78
a(S'tr_lr'
I24
tp79
a(S'w'
I1
tp80
a(S'tr_ll'
I1
tp81
a(S'w'
I4398
tp82
a(S'p2_tl'
I82
tp83
a(S'w'
I1
tp84
a(S'p2_ll'
I1
tp85
a(S'w'
I4401
tp86
a(S'p1_tl'
I147
tp87
a(S'p1_ll'
I1
tp88
a(S'w'
I5
tp89
a(S'p2_tl'
I147
tp90
a(S'p2_ll'
I1
tp91
a(S'w'
I3
tp92
a(S'tr_lr'
I12
tp93
a(S'w'
I1
tp94
a(S'tr_tl'
I166
tp95
a(S'w'
I1
tp96
a(S'tr_ll'
I1
tp97
a(S'tr_th'
I2
tp98
a(S'w'
I4393
tp99
a(S'p1_tl'
I253
tp100
a(S'p1_ll'
I1
tp101
a(S'p1_th'
I0
tp102
a(S'w'
I5
tp103
a(S'p2_tl'
I124
tp104
a(S'p2_ll'
I1
tp105
a(S'w'
I4
tp106
a(S'tr_tl'
I196
tp107
a(S'tr_ll'
I1
tp108
a(S'tr_th'
I1
tp109
a(S'w'
I4394
tp110
a(S'p1_tl'
I225
tp111
a(S'p1_ll'
I1
tp112
a(S'w'
I4
tp113
a(S'tr_lr'
I48
tp114
a(S'w'
I4399
tp115
a(S'p1_tl'
I253
tp116
a(S'p1_ll'
I1
tp117
a(S'w'
I4
tp118
a(S'p2_tl'
I45
tp119
a(S'w'
I1
tp120
a(S'p2_ll'
I1
tp121
a(S'w'
I4397
tp122
a(S'p1_tl'
I45
tp123
a(S'w'
I1
tp124
a(S'p1_ll'
I1
tp125
a(S'p1_th'
I1
tp126
a(S'w'
I4
tp127
a(S'p2_tl'
I0
tp128
a(S'p2_ll'
I1
tp129
a(S'p2_th'
I0
tp130
a(S'w'
I8801
tp131
a(S'p1_tl'
I124
tp132
a(S'p1_ll'
I1
tp133
a(S'w'
I5
tp134
a(S'tr_ll'
I1
tp135
a(S'w'
I4398
tp136
a(S'p1_tl'
I0
tp137
a(S'p1_ll'
I1
tp138
a(S'p1_th'
I0
tp139
a(S'w'
I5
tp140
a(S'p2_tl'
I200
tp141
a(S'p2_ll'
I1
tp142
a(S'w'
I4399
tp143
a(S'p2_tl'
I189
tp144
a(S'p2_ll'
I1
tp145
a(S'w'
I4401
tp146
a(S'p1_tl'
I196
tp147
a(S'w'
I1
tp148
a(S'p1_ll'
I1
tp149
a(S'p1_th'
I1
tp150
a(S'w'
I4
tp151
a(S'p2_tl'
I200
tp152
a(S'p2_ll'
I1
tp153
a(S'w'
I4398
tp154
a(S'p1_tl'
I103
tp155
a(S'p1_ll'
I1
tp156
a(S'w'
I5
tp157
a(S'p2_tl'
I253
tp158
a(S'p2_ll'
I1
tp159
a(S'w'
I4
tp160
a(S'tr_lr'
I24
tp161
a(S'tr_tl'
I171
tp162
a(S'w'
I1
tp163
a(S'tr_ll'
I1
tp164
a(S'w'
I8796
tp165
a(S'tr_lr'
I12
tp166
a(S'w'
I1
tp167
a(S'tr_tl'
I58
tp168
a(S'tr_ll'
I1
tp169
a(S'tr_th'
I2
tp170
a(S'w'
I4415
tp171
a(S'p1_tl'
I147
tp172
a(S'p1_ll'
I1
tp173
a(S'w'
I4
tp174
a(S'p2_tl'
I0
tp175
a(S'w'
I1
tp176
a(S'p2_ll'
I1
tp177
a(S'w'
I3
tp178
a(S'tr_lr'
I24
tp179
a(S'w'
I1
tp180
a(S'tr_tl'
I147
tp181
a(S'tr_ll'
I1
tp182
a(S'tr_th'
I1
tp183
a(S'w'
I8796
tp184
a(S'p1_tl'
I82
tp185
a(S'w'
I1
tp186
a(S'p1_ll'
I1
tp187
a(S'w'
I3
tp188
a(S'tr_lr'
I12
tp189
a(S'w'
I2
tp190
a(S'tr_ll'
I1
tp191
a(S'w'
I4397
tp192
a(S'p1_tl'
I12
tp193
a(S'p1_ll'
I1
tp194
a(S'w'
I4
tp195
a(S'tr_lr'
I24
tp196
a(S'w'
I4400
tp197
a(S'p2_ll'
I1
tp198
a(S'w'
I4402
tp199
a(S'p1_tl'
I253
tp200
a(S'p1_ll'
I1
tp201
a(S'p1_th'
I0
tp202
a(S'w'
I4
tp203
a(S'p2_tl'
I82
tp204
a(S'w'
I1
tp205
a(S'p2_ll'
I1
tp206
a(S'p2_th'
I1
tp207
a(S'w'
I3
tp208
a(S'tr_lr'
I48
tp209
a(S'w'
I1
tp210
a(S'tr_ll'
I1
tp211
a(S'w'
I4393
tp212
a(S'p1_tl'
I225
tp213
a(S'w'
I1
tp214
a(S'p1_ll'
I1
tp215
a(S'w'
I4
tp216
a(S'p2_tl'
I12
tp217
a(S'p2_ll'
I1
tp218
a(S'w'
I8801
tp219
a(S'p1_tl'
I200
tp220
a(S'p1_ll'
I1
tp221
a(S'w'
I5
tp222
a(S'p2_tl'
I253
tp223
a(S'p2_ll'
I1
tp224
a(S'p2_th'
I0
tp225
a(S'w'
I4398
tp226
a(S'p1_tl'
I12
tp227
a(S'p1_ll'
I1
tp228
a(S'p1_th'
I1
tp229
a(S'w'
I5
tp230
a(S'p2_tl'
I225
tp231
a(S'p2_ll'
I1
tp232
a(S'w'
I3
tp233
a(S'tr_lr'
I36
tp234
a(S'w'
I1
tp235
a(S'tr_tl'
I26
tp236
a(S'tr_ll'
I1
tp237
a(S'tr_th'
I2
tp238
a(S'w'
I8784
tp239
a(S'p1_tl'
I82
tp240
a(S'p1_ll'
I1
tp241
a(S'w'
I4
tp242
a(S'p2_tl'
I200
tp243
a(S'w'
I1
tp244
a(S'p2_ll'
I1
tp245
a(S'w'
I4397
tp246
a(S'p1_tl'
I124
tp247
a(S'w'
I1
tp248
a(S'p1_ll'
I1
tp249
a(S'w'
I4
tp250
a(S'p2_tl'
I253
tp251
a(S'p2_ll'
I1
tp252
a(S'w'
I4
tp253
a(S'tr_lr'
I12
tp254
a(S'w'
I1
tp255
a(S'tr_tl'
I124
tp256
a(S'tr_ll'
I1
tp257
a(S'tr_th'
I1
tp258
a(S'w'
I4394
tp259
a(S'p2_tl'
I0
tp260
a(S'p2_ll'
I1
tp261
a(S'w'
I4
tp262
a(S'tr_lr'
I48
tp263
a(S'w'
I4398
tp264
a(S'p1_tl'
I45
tp265
a(S'p1_ll'
I1
tp266
a(S'w'
I4403
tp267
a(S'p1_tl'
I253
tp268
a(S'p1_ll'
I1
tp269
a(S'p1_th'
I0
tp270
a(S'w'
I4
tp271
a(S'p2_tl'
I124
tp272
a(S'w'
I1
tp273
a(S'p2_ll'
I1
tp274
a(S'p2_th'
I1
tp275
a(S'w'
I8800
tp276
a(S'p1_tl'
I200
tp277
a(S'w'
I1
tp278
a(S'p1_ll'
I1
tp279
a(S'w'
I4
tp280
a(S'p2_tl'
I45
tp281
a(S'p2_ll'
I1
tp282
a(S'w'
I4
tp283
a(S'tr_lr'
I36
tp284
a(S'w'
I1
tp285
a(S'tr_tl'
I249
tp286
a(S'tr_ll'
I1
tp287
a(S'tr_th'
I2
tp288
a(S'w'
I13200
tp289
a(S'p2_tl'
I124
tp290
a(S'p2_ll'
I1
tp291
a(S'w'
I3
tp292
a(S'tr_lr'
I12
tp293
a(S'w'
I1
tp294
a(S'tr_ll'
I1
tp295
a(S'w'
I4398
tp296
a(S'tr_lr'
I24
tp297
a(S'w'
I1
tp298
a(S'tr_tl'
I252
tp299
a(S'tr_ll'
I1
tp300
a(S'tr_th'
I1
tp301
a(S'w'
I8804
tp302
a(S'p1_tl'
I0
tp303
a(S'w'
I1
tp304
a(S'p1_ll'
I1
tp305
a(S'w'
I3
tp306
a(S'tr_lr'
I12
tp307
a(S'w'
I1
tp308
a(S'tr_tl'
I124
tp309
a(S'w'
I1
tp310
a(S'tr_ll'
I1
tp311
a(S'w'
I4397
tp312
a(S'p1_tl'
I225
tp313
a(S'p1_ll'
I1
tp314
a(S'w'
I5
tp315
a(S'p2_tl'
I82
tp316
a(S'p2_ll'
I1
tp317
a(S'w'
I3
tp318
a(S'tr_lr'
I24
tp319
a(S'w'
I1
tp320
a(S'tr_tl'
I147
tp321
a(S'tr_ll'
I1
tp322
a(S'w'
I4394
tp323
a(S'p1_tl'
I0
tp324
a(S'p1_ll'
I1
tp325
a(S'w'
I4404
tp326
a(S'p2_tl'
I103
tp327
a(S'p2_ll'
I1
tp328
a(S'w'
I3
tp329
a(S'tr_lr'
I12
tp330
a(S'w'
I1
tp331
a(S'tr_ll'
I1
tp332
a(S'w'
I4398
tp333
a(S'p2_tl'
I82
tp334
a(S'w'
I1
tp335
a(S'p2_ll'
I1
tp336
a(S'w'
I3
tp337
a(S'tr_lr'
I48
tp338
a(S'w'
I8801
tp339
a(S'p1_tl'
I168
tp340
a(S'p1_ll'
I1
tp341
a(S'w'
I5
tp342
a(S'p2_tl'
I12
tp343
a(S'p2_ll'
I1
tp344
a(S'w'
I8801
tp345
a(S'tr_lr'
I12
tp346
a(S'w'
I4403
tp347
a(S'p1_tl'
I225
tp348
a(S'p1_ll'
I1
tp349
a(S'w'
I4
tp350
a(S'p2_tl'
I82
tp351
a(S'p2_ll'
I1
tp352
a(S'w'
I4
tp353
a(S'tr_lr'
I36
tp354
a(S'w'
I1
tp355
a(S'tr_tl'
I200
tp356
a(S'tr_ll'
I1
tp357
a(S'tr_th'
I0
tp358
a(S'w'
I13199
tp359
a(S'p1_tl'
I12
tp360
a(S'p1_ll'
I1
tp361
a(S'p1_th'
I1
tp362
a(S'w'
I4
tp363
a(S'tr_lr'
I12
tp364
a(S'w'
I1
tp365
a(S'tr_tl'
I147
tp366
a(S'tr_ll'
I1
tp367
a(S'tr_th'
I1
tp368
a(S'w'
I4398
tp369
a(S'p1_tl'
I45
tp370
a(S'p1_ll'
I1
tp371
a(S'w'
I4
tp372
a(S'p2_tl'
I124
tp373
a(S'w'
I1
tp374
a(S'p2_ll'
I1
tp375
a(S'w'
I3
tp376
a(S'tr_lr'
I24
tp377
a(S'w'
I1
tp378
a(S'tr_tl'
I196
tp379
a(S'tr_ll'
I1
tp380
a(S'w'
I4394
tp381
a(S'p1_tl'
I0
tp382
a(S'p1_ll'
I1
tp383
a(S'p1_th'
I0
tp384
a(S'w'
I4403
tp385
a(S'p2_tl'
I147
tp386
a(S'w'
I1
tp387
a(S'p2_ll'
I1
tp388
a(S'w'
I3
tp389
a(S'tr_lr'
I12
tp390
a(S'w'
I1
tp391
a(S'tr_ll'
I1
tp392
a(S'w'
I4398
tp393
a(S'p2_tl'
I124
tp394
a(S'p2_ll'
I1
tp395
a(S'w'
I4
tp396
a(S'tr_lr'
I48
tp397
a(S'w'
I8801
tp398
a(S'p1_tl'
I189
tp399
a(S'p1_ll'
I1
tp400
a(S'w'
I5
tp401
a(S'p2_tl'
I45
tp402
a(S'p2_ll'
I1
tp403
a(S'w'
I8801
tp404
a(S'tr_lr'
I12
tp405
a(S'w'
I4402
tp406
a(S'p1_tl'
I253
tp407
a(S'p1_ll'
I1
tp408
a(S'w'
I4
tp409
a(S'tr_lr'
I36
tp410
a(S'w'
I1
tp411
a(S'tr_tl'
I225
tp412
a(S'w'
I1
tp413
a(S'tr_ll'
I1
tp414
a(S'tr_th'
I0
tp415
a(S'w'
I13203
tp416
a(S'p1_tl'
I45
tp417
a(S'p1_ll'
I1
tp418
a(S'p1_th'
I1
tp419
a(S'w'
I4
tp420
a(S'p2_tl'
I124
tp421
a(S'w'
I1
tp422
a(S'p2_ll'
I1
tp423
a(S'w'
I3
tp424
a(S'tr_lr'
I12
tp425
a(S'w'
I1
tp426
a(S'tr_tl'
I196
tp427
a(S'tr_ll'
I1
tp428
a(S'tr_th'
I1
tp429
a(S'w'
I4393
tp430
a(S'p1_tl'
I124
tp431
a(S'w'
I1
tp432
a(S'p1_ll'
I1
tp433
a(S'w'
I4
tp434
a(S'p2_tl'
I0
tp435
a(S'w'
I1
tp436
a(S'p2_ll'
I1
tp437
a(S'p2_th'
I0
tp438
a(S'w'
I3
tp439
a(S'tr_lr'
I36
tp440
a(S'w'
I1
tp441
a(S'tr_tl'
I166
tp442
a(S'tr_ll'
I1
tp443
a(S'tr_th'
I2
tp444
a(S'w'
I8796
tp445
a(S'p1_tl'
I196
tp446
a(S'p1_ll'
I1
tp447
a(S'w'
I4403
tp448
a(S'p1_tl'
I124
tp449
a(S'p1_ll'
I1
tp450
a(S'w'
I5
tp451
a(S'p2_tl'
I252
tp452
a(S'p2_ll'
I1
tp453
a(S'p2_th'
I1
tp454
a(S'w'
I4
tp455
a(S'tr_ll'
I1
tp456
a(S'w'
I8796
tp457
a(S'p1_tl'
I45
tp458
a(S'w'
I1
tp459
a(S'p1_ll'
I1
tp460
a(S'w'
I4402
tp461
a(S'p1_tl'
I253
tp462
a(S'w'
I1
tp463
a(S'p1_ll'
I1
tp464
a(S'p1_th'
I0
tp465
a(S'w'
I4
tp466
a(S'p2_tl'
I124
tp467
a(S'p2_ll'
I1
tp468
a(S'w'
I4
tp469
a(S'tr_lr'
I24
tp470
a(S'w'
I1
tp471
a(S'tr_ll'
I1
tp472
a(S'w'
I8796
tp473
a(S'p1_tl'
I63
tp474
a(S'p1_ll'
I1
tp475
a(S'p1_th'
I1
tp476
a(S'w'
I4
tp477
a(S'tr_lr'
I12
tp478
a(S'w'
I1
tp479
a(S'tr_ll'
I1
tp480
a(S'w'
I4398
tp481
a(S'p1_tl'
I253
tp482
a(S'p1_ll'
I1
tp483
a(S'p1_th'
I0
tp484
a(S'w'
I4
tp485
a(S'p2_tl'
I63
tp486
a(S'w'
I1
tp487
a(S'p2_ll'
I1
tp488
a(S'w'
I3
tp489
a(S'tr_lr'
I36
tp490
a(S'w'
I1
tp491
a(S'tr_ll'
I1
tp492
a(S'w'
I4394
tp493
a(S'p2_tl'
I196
tp494
a(S'w'
I1
tp495
a(S'p2_ll'
I1
tp496
a(S'w'
I4401
tp497
a(S'p1_tl'
I189
tp498
a(S'w'
I1
tp499
a(S'p1_ll'
I1
tp500
a(S'w'
I4
tp501
a(S'p2_tl'
I124
tp502
a(S'p2_ll'
I1
tp503
a(S'w'
I4398
tp504
a(S'p1_tl'
I200
tp505
a(S'p1_ll'
I1
tp506
a(S'w'
I5
tp507
a(S'p2_tl'
I12
tp508
a(S'p2_ll'
I1
tp509
a(S'w'
I3
tp510
a(S'tr_lr'
I12
tp511
a(S'w'
I1
tp512
a(S'tr_tl'
I252
tp513
a(S'w'
I1
tp514
a(S'tr_ll'
I1
tp515
a(S'tr_th'
I1
tp516
a(S'w'
I4393
tp517
a(S'p1_tl'
I0
tp518
a(S'p1_ll'
I1
tp519
a(S'w'
I5
tp520
a(S'p2_tl'
I0
tp521
a(S'p2_ll'
I1
tp522
a(S'p2_th'
I0
tp523
a(S'w'
I3
tp524
a(S'tr_lr'
I24
tp525
a(S'w'
I8798
tp526
a(S'p1_tl'
I212
tp527
a(S'p1_ll'
I1
tp528
a(S'w'
I4
tp529
a(S'p2_tl'
I28
tp530
a(S'w'
I1
tp531
a(S'p2_ll'
I1
tp532
a(S'p2_th'
I1
tp533
a(S'w'
I4
tp534
a(S'tr_tl'
I26
tp535
a(S'tr_ll'
I1
tp536
a(S'tr_th'
I2
tp537
a(S'w'
I8796
tp538
a(S'p1_tl'
I200
tp539
a(S'p1_ll'
I1
tp540
a(S'w'
I5
tp541
a(S'p2_tl'
I12
tp542
a(S'p2_ll'
I1
tp543
a(S'w'
I3
tp544
a(S'tr_lr'
I72
tp545
a(S'w'
I1
tp546
a(S'tr_tl'
I252
tp547
a(S'w'
I1
tp548
a(S'tr_ll'
I1
tp549
a(S'tr_th'
I1
tp550
a(S'w'
I26407
tp551
a(S'p1_tl'
I0
tp552
a(S'p1_ll'
I1
tp553
a(S'w'
I5
tp554
a(S'p2_tl'
I0
tp555
a(S'p2_ll'
I1
tp556
a(S'p2_th'
I0
tp557
a(S'w'
I4
tp558
a(S'tr_lr'
I12
tp559
a(S'w'
I16103
tp560
a.