(lp1
(S'clock'
p2
I1789773
tp3
a(S'p1_lh'
I1
tp4
a(S'p1_cv'
I1
tp5
a(S'p1_se'
I1
tp6
a(S'p1_sn'
I1
tp7
a(S'p1_tl'
I0
tp8
a(S'p1_ll'
I0
tp9
a(S'p2_lh'
I1
tp10
a(S'p2_cv'
I1
tp11
a(S'p2_se'
I1
tp12
a(S'p2_sn'
I1
tp13
a(S'p2_tl'
I0
tp14
a(S'p2_ll'
I0
tp15
a(S'tr_ll'
I0
tp16
a(S'no_lh'
I1
tp17
a(S'no_cv'
I1
tp18
a(S'no_ll'
I0
tp19
a(S'w'
I765
tp20
a(S'p1_du'
I1
tp21
a(S'p1_vo'
I6
tp22
a(S'w'
I8
tp23
a(S'p1_tl'
I82
tp24
a(S'w'
I2
tp25
a(S'p1_ll'
I24
tp26
a(S'p1_th'
I1
tp27
a(S'w'
I29
tp28
a(S'p2_du'
I1
tp29
a(S'p2_vo'
I8
tp30
a(S'w'
I9
tp31
a(S'p2_tl'
I12
tp32
a(S'w'
I2
tp33
a(S'p2_ll'
I24
tp34
a(S'p2_th'
I1
tp35
a(S'w'
I22
tp36
a(S'tr_lh'
I1
tp37
a(S'tr_lr'
I16
tp38
a(S'w'
I6
tp39
a(S'tr_tl'
I82
tp40
a(S'w'
I1
tp41
a(S'tr_ll'
I24
tp42
a(S'tr_th'
I1
tp43
a(S'w'
I17
tp44
a(S'no_np'
I14
tp45
a(S'no_ll'
I24
tp46
a(S'w'
I1
tp47
a(S'no_vo'
I15
tp48
a(S'w'
I614
tp49
a(S'p1_vo'
I8
tp50
a(S'w'
I12
tp51
a(S'p2_vo'
I10
tp52
a(S'w'
I18
tp53
a(S'no_np'
I15
tp54
a(S'no_ll'
I24
tp55
a(S'w'
I1
tp56
a(S'no_vo'
I10
tp57
a(S'w'
I703
tp58
a(S'p1_vo'
I4
tp59
a(S'w'
I10
tp60
a(S'p2_vo'
I6
tp61
a(S'w'
I17
tp62
a(S'no_np'
I13
tp63
a(S'no_ll'
I24
tp64
a(S'w'
I1
tp65
a(S'no_vo'
I3
tp66
a(S'w'
I725
tp67
a(S'no_vo'
I2
tp68
a(S'w'
I733
tp69
a(S'no_vo'
I0
tp70
a(S'no_np'
I0
tp71
a(S'no_ll'
I0
tp72
a(S'w'
I715
tp73
a(S'p1_vo'
I3
tp74
a(S'w'
I12
tp75
a(S'p2_vo'
I5
tp76
a(S'w'
I1456
tp77
a(S'p1_vo'
I2
tp78
a(S'w'
I10
tp79
a(S'p2_vo'
I4
tp80
a(S'w'
I735
tp81
a(S'tr_lh'
I0
tp82
a(S'tr_lr'
I0
tp83
a(S'w'
I721
tp84
a(S'p1_vo'
I0
tp85
a(S'w'
I5
tp86
a(S'p1_vo'
I2
tp87
a(S'w'
I4
tp88
a(S'p1_tl'
I106
tp89
a(S'w'
I3
tp90
a(S'p1_ll'
I24
tp91
a(S'p1_th'
I0
tp92
a(S'w'
I5
tp93
a(S'p2_vo'
I0
tp94
a(S'w'
I6
tp95
a(S'p2_vo'
I2
tp96
a(S'w'
I4
tp97
a(S'p2_tl'
I106
tp98
a(S'w'
I2
tp99
a(S'p2_ll'
I24
tp100
a(S'p2_th'
I0
tp101
a(S'w'
I711
tp102
a(S'p1_vo'
I6
tp103
a(S'w'
I8
tp104
a(S'p1_tl'
I196
tp105
a(S'w'
I2
tp106
a(S'p1_ll'
I24
tp107
a(S'p1_th'
I1
tp108
a(S'w'
I10
tp109
a(S'p2_vo'
I8
tp110
a(S'w'
I8
tp111
a(S'p2_tl'
I45
tp112
a(S'w'
I3
tp113
a(S'p2_ll'
I24
tp114
a(S'p2_th'
I1
tp115
a(S'w'
I9
tp116
a(S'tr_lh'
I1
tp117
a(S'tr_lr'
I16
tp118
a(S'w'
I7
tp119
a(S'tr_ll'
I24
tp120
a(S'w'
I14
tp121
a(S'no_np'
I2
tp122
a(S'no_ll'
I24
tp123
a(S'w'
I1
tp124
a(S'no_vo'
I10
tp125
a(S'w'
I667
tp126
a(S'p1_vo'
I8
tp127
a(S'w'
I12
tp128
a(S'p2_vo'
I10
tp129
a(S'w'
I18
tp130
a(S'no_np'
I1
tp131
a(S'no_ll'
I24
tp132
a(S'w'
I1
tp133
a(S'no_vo'
I6
tp134
a(S'w'
I703
tp135
a(S'p1_vo'
I4
tp136
a(S'w'
I10
tp137
a(S'p2_vo'
I6
tp138
a(S'w'
I17
tp139
a(S'no_np'
I0
tp140
a(S'no_ll'
I24
tp141
a(S'w'
I1
tp142
a(S'no_vo'
I3
tp143
a(S'w'
I725
tp144
a(S'no_vo'
I0
tp145
a(S'no_ll'
I0
tp146
a(S'w'
I1448
tp147
a(S'p1_vo'
I3
tp148
a(S'w'
I12
tp149
a(S'p2_vo'
I5
tp150
a(S'w'
I1456
tp151
a(S'p1_vo'
I2
tp152
a(S'w'
I10
tp153
a(S'p2_vo'
I4
tp154
a(S'w'
I735
tp155
a(S'tr_lh'
I0
tp156
a(S'tr_lr'
I0
tp157
a(S'w'
I721
tp158
a(S'p1_vo'
I0
tp159
a(S'w'
I5
tp160
a(S'p1_vo'
I2
tp161
a(S'w'
I4
tp162
a(S'p1_tl'
I82
tp163
a(S'w'
I7
tp164
a(S'p2_vo'
I0
tp165
a(S'w'
I5
tp166
a(S'p2_vo'
I2
tp167
a(S'w'
I4
tp168
a(S'p2_tl'
I12
tp169
a(S'w'
I713
tp170
a(S'p1_vo'
I6
tp171
a(S'w'
I8
tp172
a(S'p1_tl'
I196
tp173
a(S'w'
I10
tp174
a(S'p2_vo'
I8
tp175
a(S'w'
I9
tp176
a(S'p2_tl'
I82
tp177
a(S'w'
I12
tp178
a(S'tr_lh'
I1
tp179
a(S'tr_lr'
I16
tp180
a(S'w'
I5
tp181
a(S'tr_tl'
I169
tp182
a(S'w'
I2
tp183
a(S'tr_ll'
I24
tp184
a(S'tr_th'
I0
tp185
a(S'w'
I13
tp186
a(S'no_np'
I8
tp187
a(S'w'
I1
tp188
a(S'no_ll'
I24
tp189
a(S'w'
I1
tp190
a(S'no_vo'
I11
tp191
a(S'w'
I670
tp192
a(S'p1_vo'
I8
tp193
a(S'w'
I12
tp194
a(S'p2_vo'
I10
tp195
a(S'w'
I18
tp196
a(S'no_np'
I6
tp197
a(S'no_ll'
I24
tp198
a(S'w'
I704
tp199
a(S'p1_vo'
I4
tp200
a(S'w'
I10
tp201
a(S'p2_vo'
I6
tp202
a(S'w'
I17
tp203
a(S'no_np'
I3
tp204
a(S'no_ll'
I24
tp205
a(S'w'
I2
tp206
a(S'no_vo'
I5
tp207
a(S'w'
I2172
tp208
a(S'p1_vo'
I3
tp209
a(S'w'
I12
tp210
a(S'p2_vo'
I5
tp211
a(S'w'
I741
tp212
a(S'no_vo'
I4
tp213
a(S'w'
I715
tp214
a(S'p1_vo'
I2
tp215
a(S'w'
I10
tp216
a(S'p2_vo'
I4
tp217
a(S'w'
I734
tp218
a(S'tr_lh'
I0
tp219
a(S'tr_lr'
I0
tp220
a(S'w'
I722
tp221
a(S'p1_vo'
I0
tp222
a(S'w'
I5
tp223
a(S'p1_vo'
I2
tp224
a(S'w'
I4
tp225
a(S'p1_tl'
I196
tp226
a(S'w'
I7
tp227
a(S'p2_vo'
I0
tp228
a(S'w'
I5
tp229
a(S'p2_vo'
I2
tp230
a(S'w'
I4
tp231
a(S'p2_tl'
I45
tp232
a(S'w'
I715
tp233
a(S'p1_vo'
I6
tp234
a(S'w'
I9
tp235
a(S'p1_tl'
I45
tp236
a(S'w'
I10
tp237
a(S'p2_vo'
I8
tp238
a(S'w'
I9
tp239
a(S'p2_tl'
I253
tp240
a(S'w'
I2
tp241
a(S'p2_ll'
I24
tp242
a(S'p2_th'
I0
tp243
a(S'w'
I12
tp244
a(S'tr_lh'
I1
tp245
a(S'tr_lr'
I16
tp246
a(S'w'
I5
tp247
a(S'tr_tl'
I124
tp248
a(S'w'
I2
tp249
a(S'tr_ll'
I24
tp250
a(S'tr_th'
I1
tp251
a(S'w'
I13
tp252
a(S'no_np'
I14
tp253
a(S'w'
I1
tp254
a(S'no_ll'
I24
tp255
a(S'w'
I1
tp256
a(S'no_vo'
I15
tp257
a(S'w'
I665
tp258
a(S'p1_vo'
I8
tp259
a(S'w'
I12
tp260
a(S'p2_vo'
I10
tp261
a(S'w'
I18
tp262
a(S'no_np'
I15
tp263
a(S'no_ll'
I24
tp264
a(S'w'
I1
tp265
a(S'no_vo'
I10
tp266
a(S'w'
I703
tp267
a(S'p1_vo'
I4
tp268
a(S'w'
I10
tp269
a(S'p2_vo'
I6
tp270
a(S'w'
I17
tp271
a(S'no_np'
I13
tp272
a(S'no_ll'
I24
tp273
a(S'w'
I1
tp274
a(S'no_vo'
I3
tp275
a(S'w'
I724
tp276
a(S'no_vo'
I2
tp277
a(S'w'
I734
tp278
a(S'no_vo'
I0
tp279
a(S'no_np'
I0
tp280
a(S'no_ll'
I0
tp281
a(S'w'
I4410
tp282
a(S'no_np'
I2
tp283
a(S'no_ll'
I24
tp284
a(S'w'
I1
tp285
a(S'no_vo'
I10
tp286
a(S'w'
I726
tp287
a(S'no_np'
I1
tp288
a(S'w'
I1
tp289
a(S'no_ll'
I24
tp290
a(S'w'
I1
tp291
a(S'no_vo'
I6
tp292
a(S'w'
I732
tp293
a(S'no_np'
I0
tp294
a(S'w'
I1
tp295
a(S'no_ll'
I24
tp296
a(S'w'
I1
tp297
a(S'no_vo'
I3
tp298
a(S'w'
I731
tp299
a(S'no_vo'
I0
tp300
a(S'no_ll'
I0
tp301
a(S'w'
I1449
tp302
a(S'p1_vo'
I3
tp303
a(S'w'
I12
tp304
a(S'p2_vo'
I5
tp305
a(S'w'
I1456
tp306
a(S'p1_vo'
I2
tp307
a(S'w'
I11
tp308
a(S'p2_vo'
I4
tp309
a(S'w'
I734
tp310
a(S'tr_lh'
I0
tp311
a(S'tr_lr'
I0
tp312
a(S'w'
I721
tp313
a(S'p1_vo'
I0
tp314
a(S'w'
I6
tp315
a(S'p1_vo'
I2
tp316
a(S'w'
I3
tp317
a(S'p1_tl'
I45
tp318
a(S'w'
I7
tp319
a(S'p2_vo'
I0
tp320
a(S'w'
I6
tp321
a(S'p2_vo'
I2
tp322
a(S'w'
I4
tp323
a(S'p2_tl'
I253
tp324
a(S'w'
I712
tp325
a(S'p1_vo'
I6
tp326
a(S'w'
I8
tp327
a(S'p1_tl'
I82
tp328
a(S'w'
I10
tp329
a(S'p2_vo'
I8
tp330
a(S'w'
I9
tp331
a(S'p2_tl'
I12
tp332
a(S'w'
I2
tp333
a(S'p2_ll'
I24
tp334
a(S'p2_th'
I1
tp335
a(S'w'
I9
tp336
a(S'tr_lh'
I1
tp337
a(S'tr_lr'
I16
tp338
a(S'w'
I8
tp339
a(S'tr_ll'
I24
tp340
a(S'w'
I13
tp341
a(S'no_np'
I14
tp342
a(S'no_ll'
I24
tp343
a(S'w'
I2
tp344
a(S'no_vo'
I15
tp345
a(S'w'
I670
tp346
a(S'p1_vo'
I8
tp347
a(S'w'
I12
tp348
a(S'p2_vo'
I10
tp349
a(S'w'
I18
tp350
a(S'no_np'
I15
tp351
a(S'no_ll'
I24
tp352
a(S'w'
I1
tp353
a(S'no_vo'
I10
tp354
a(S'w'
I702
tp355
a(S'p1_vo'
I4
tp356
a(S'w'
I10
tp357
a(S'p2_vo'
I6
tp358
a(S'w'
I17
tp359
a(S'no_np'
I13
tp360
a(S'no_ll'
I24
tp361
a(S'w'
I1
tp362
a(S'no_vo'
I3
tp363
a(S'w'
I725
tp364
a(S'no_vo'
I2
tp365
a(S'w'
I734
tp366
a(S'no_vo'
I0
tp367
a(S'no_np'
I0
tp368
a(S'no_ll'
I0
tp369
a(S'w'
I715
tp370
a(S'p1_vo'
I3
tp371
a(S'w'
I12
tp372
a(S'p2_vo'
I5
tp373
a(S'w'
I1455
tp374
a(S'p1_vo'
I2
tp375
a(S'w'
I10
tp376
a(S'p2_vo'
I4
tp377
a(S'w'
I735
tp378
a(S'tr_lh'
I0
tp379
a(S'tr_lr'
I0
tp380
a(S'w'
I722
tp381
a(S'p1_vo'
I0
tp382
a(S'w'
I5
tp383
a(S'p1_vo'
I2
tp384
a(S'w'
I4
tp385
a(S'p1_tl'
I45
tp386
a(S'w'
I7
tp387
a(S'p2_vo'
I0
tp388
a(S'w'
I5
tp389
a(S'p2_vo'
I2
tp390
a(S'w'
I4
tp391
a(S'p2_tl'
I253
tp392
a(S'w'
I2
tp393
a(S'p2_ll'
I24
tp394
a(S'p2_th'
I0
tp395
a(S'w'
I711
tp396
a(S'p1_vo'
I6
tp397
a(S'w'
I8
tp398
a(S'p1_tl'
I124
tp399
a(S'w'
I10
tp400
a(S'p2_vo'
I8
tp401
a(S'w'
I9
tp402
a(S'p2_tl'
I45
tp403
a(S'w'
I2
tp404
a(S'p2_ll'
I24
tp405
a(S'p2_th'
I1
tp406
a(S'w'
I11
tp407
a(S'tr_lh'
I1
tp408
a(S'tr_lr'
I16
tp409
a(S'w'
I6
tp410
a(S'tr_tl'
I189
tp411
a(S'w'
I2
tp412
a(S'tr_ll'
I24
tp413
a(S'tr_th'
I0
tp414
a(S'w'
I13
tp415
a(S'no_np'
I8
tp416
a(S'no_ll'
I24
tp417
a(S'w'
I1
tp418
a(S'no_vo'
I11
tp419
a(S'w'
I669
tp420
a(S'p1_vo'
I8
tp421
a(S'w'
I12
tp422
a(S'p2_vo'
I10
tp423
a(S'w'
I18
tp424
a(S'no_np'
I6
tp425
a(S'no_ll'
I24
tp426
a(S'w'
I703
tp427
a(S'p1_vo'
I4
tp428
a(S'w'
I10
tp429
a(S'p2_vo'
I6
tp430
a(S'w'
I17
tp431
a(S'no_np'
I3
tp432
a(S'no_ll'
I24
tp433
a(S'w'
I2
tp434
a(S'no_vo'
I5
tp435
a(S'w'
I2173
tp436
a(S'p1_vo'
I3
tp437
a(S'w'
I12
tp438
a(S'p2_vo'
I5
tp439
a(S'w'
I741
tp440
a(S'no_vo'
I4
tp441
a(S'w'
I714
tp442
a(S'p1_vo'
I2
tp443
a(S'w'
I10
tp444
a(S'p2_vo'
I4
tp445
a(S'w'
I735
tp446
a(S'tr_lh'
I0
tp447
a(S'tr_lr'
I0
tp448
a(S'w'
I722
tp449
a(S'p1_vo'
I0
tp450
a(S'w'
I5
tp451
a(S'p1_vo'
I2
tp452
a(S'w'
I4
tp453
a(S'p1_tl'
I82
tp454
a(S'w'
I7
tp455
a(S'p2_vo'
I0
tp456
a(S'w'
I5
tp457
a(S'p2_vo'
I2
tp458
a(S'w'
I4
tp459
a(S'p2_tl'
I12
tp460
a(S'w'
I713
tp461
a(S'p1_vo'
I6
tp462
a(S'w'
I9
tp463
a(S'p1_tl'
I12
tp464
a(S'w'
I10
tp465
a(S'p2_vo'
I8
tp466
a(S'w'
I9
tp467
a(S'p2_tl'
I225
tp468
a(S'w'
I2
tp469
a(S'p2_ll'
I24
tp470
a(S'p2_th'
I0
tp471
a(S'w'
I12
tp472
a(S'tr_lh'
I1
tp473
a(S'tr_lr'
I16
tp474
a(S'w'
I5
tp475
a(S'tr_tl'
I146
tp476
a(S'w'
I2
tp477
a(S'tr_ll'
I24
tp478
a(S'tr_th'
I1
tp479
a(S'w'
I13
tp480
a(S'no_np'
I14
tp481
a(S'w'
I1
tp482
a(S'no_ll'
I24
tp483
a(S'w'
I1
tp484
a(S'no_vo'
I15
tp485
a(S'w'
I667
tp486
a(S'p1_vo'
I8
tp487
a(S'w'
I12
tp488
a(S'p2_vo'
I10
tp489
a(S'w'
I18
tp490
a(S'no_np'
I15
tp491
a(S'no_ll'
I24
tp492
a(S'w'
I1
tp493
a(S'no_vo'
I10
tp494
a(S'w'
I702
tp495
a(S'p1_vo'
I4
tp496
a(S'w'
I10
tp497
a(S'p2_vo'
I6
tp498
a(S'w'
I17
tp499
a(S'no_np'
I13
tp500
a(S'no_ll'
I24
tp501
a(S'w'
I1
tp502
a(S'no_vo'
I3
tp503
a(S'w'
I725
tp504
a(S'no_vo'
I2
tp505
a(S'w'
I734
tp506
a(S'no_vo'
I0
tp507
a(S'no_np'
I0
tp508
a(S'no_ll'
I0
tp509
a(S'w'
I4410
tp510
a(S'no_np'
I2
tp511
a(S'no_ll'
I24
tp512
a(S'w'
I1
tp513
a(S'no_vo'
I10
tp514
a(S'w'
I725
tp515
a(S'no_np'
I1
tp516
a(S'w'
I1
tp517
a(S'no_ll'
I24
tp518
a(S'w'
I1
tp519
a(S'no_vo'
I6
tp520
a(S'w'
I732
tp521
a(S'no_np'
I0
tp522
a(S'w'
I1
tp523
a(S'no_ll'
I24
tp524
a(S'w'
I1
tp525
a(S'no_vo'
I3
tp526
a(S'w'
I732
tp527
a(S'no_vo'
I0
tp528
a(S'no_ll'
I0
tp529
a(S'w'
I1449
tp530
a(S'p1_vo'
I3
tp531
a(S'w'
I12
tp532
a(S'p2_vo'
I5
tp533
a(S'w'
I1455
tp534
a(S'p1_vo'
I2
tp535
a(S'w'
I11
tp536
a(S'p2_vo'
I4
tp537
a(S'w'
I735
tp538
a(S'tr_lh'
I0
tp539
a(S'tr_lr'
I0
tp540
a(S'w'
I721
tp541
a(S'p1_vo'
I0
tp542
a(S'w'
I6
tp543
a(S'p1_vo'
I2
tp544
a(S'w'
I3
tp545
a(S'p1_tl'
I12
tp546
a(S'w'
I7
tp547
a(S'p2_vo'
I0
tp548
a(S'w'
I6
tp549
a(S'p2_vo'
I2
tp550
a(S'w'
I4
tp551
a(S'p2_tl'
I225
tp552
a(S'w'
I712
tp553
a(S'p1_vo'
I6
tp554
a(S'w'
I8
tp555
a(S'p1_tl'
I82
tp556
a(S'w'
I10
tp557
a(S'p2_vo'
I8
tp558
a(S'w'
I9
tp559
a(S'p2_tl'
I12
tp560
a(S'w'
I2
tp561
a(S'p2_ll'
I24
tp562
a(S'p2_th'
I1
tp563
a(S'w'
I9
tp564
a(S'tr_lh'
I1
tp565
a(S'tr_lr'
I16
tp566
a(S'w'
I8
tp567
a(S'tr_ll'
I24
tp568
a(S'w'
I13
tp569
a(S'no_np'
I14
tp570
a(S'no_ll'
I24
tp571
a(S'w'
I2
tp572
a(S'no_vo'
I15
tp573
a(S'w'
I669
tp574
a(S'p1_vo'
I8
tp575
a(S'w'
I12
tp576
a(S'p2_vo'
I10
tp577
a(S'w'
I18
tp578
a(S'no_np'
I15
tp579
a(S'no_ll'
I24
tp580
a(S'w'
I1
tp581
a(S'no_vo'
I10
tp582
a(S'w'
I703
tp583
a(S'p1_vo'
I4
tp584
a(S'w'
I10
tp585
a(S'p2_vo'
I6
tp586
a(S'w'
I17
tp587
a(S'no_np'
I13
tp588
a(S'no_ll'
I24
tp589
a(S'w'
I1
tp590
a(S'no_vo'
I3
tp591
a(S'w'
I725
tp592
a(S'no_vo'
I2
tp593
a(S'w'
I734
tp594
a(S'no_vo'
I0
tp595
a(S'no_np'
I0
tp596
a(S'no_ll'
I0
tp597
a(S'w'
I715
tp598
a(S'p1_vo'
I3
tp599
a(S'w'
I12
tp600
a(S'p2_vo'
I5
tp601
a(S'w'
I1455
tp602
a(S'p1_vo'
I2
tp603
a(S'w'
I10
tp604
a(S'p2_vo'
I4
tp605
a(S'w'
I735
tp606
a(S'tr_lh'
I0
tp607
a(S'tr_lr'
I0
tp608
a(S'w'
I722
tp609
a(S'p1_vo'
I0
tp610
a(S'w'
I5
tp611
a(S'p1_vo'
I2
tp612
a(S'w'
I4
tp613
a(S'p1_tl'
I12
tp614
a(S'w'
I7
tp615
a(S'p2_vo'
I0
tp616
a(S'w'
I5
tp617
a(S'p2_vo'
I2
tp618
a(S'w'
I4
tp619
a(S'p2_tl'
I225
tp620
a(S'w'
I2
tp621
a(S'p2_ll'
I24
tp622
a(S'p2_th'
I0
tp623
a(S'w'
I710
tp624
a(S'p1_vo'
I6
tp625
a(S'w'
I8
tp626
a(S'p1_tl'
I12
tp627
a(S'w'
I10
tp628
a(S'p2_vo'
I8
tp629
a(S'w'
I9
tp630
a(S'p2_tl'
I225
tp631
a(S'w'
I12
tp632
a(S'tr_lh'
I1
tp633
a(S'tr_lr'
I16
tp634
a(S'w'
I5
tp635
a(S'tr_tl'
I201
tp636
a(S'w'
I2
tp637
a(S'tr_ll'
I24
tp638
a(S'tr_th'
I0
tp639
a(S'w'
I13
tp640
a(S'no_np'
I8
tp641
a(S'w'
I1
tp642
a(S'no_ll'
I24
tp643
a(S'w'
I1
tp644
a(S'no_vo'
I11
tp645
a(S'w'
I670
tp646
a(S'p1_vo'
I8
tp647
a(S'w'
I12
tp648
a(S'p2_vo'
I10
tp649
a(S'w'
I18
tp650
a(S'no_np'
I6
tp651
a(S'no_ll'
I24
tp652
a(S'w'
I704
tp653
a(S'p1_vo'
I4
tp654
a(S'w'
I10
tp655
a(S'p2_vo'
I6
tp656
a(S'w'
I17
tp657
a(S'no_np'
I3
tp658
a(S'no_ll'
I24
tp659
a(S'w'
I2
tp660
a(S'no_vo'
I5
tp661
a(S'w'
I2172
tp662
a(S'p1_vo'
I3
tp663
a(S'w'
I12
tp664
a(S'p2_vo'
I5
tp665
a(S'w'
I741
tp666
a(S'no_vo'
I4
tp667
a(S'w'
I715
tp668
a(S'p1_vo'
I2
tp669
a(S'w'
I10
tp670
a(S'p2_vo'
I4
tp671
a(S'w'
I735
tp672
a(S'tr_lh'
I0
tp673
a(S'tr_lr'
I0
tp674
a(S'w'
I722
tp675
a(S'p1_vo'
I0
tp676
a(S'w'
I5
tp677
a(S'p1_vo'
I2
tp678
a(S'w'
I4
tp679
a(S'p1_tl'
I82
tp680
a(S'w'
I7
tp681
a(S'p2_vo'
I0
tp682
a(S'w'
I5
tp683
a(S'p2_vo'
I2
tp684
a(S'w'
I4
tp685
a(S'p2_tl'
I12
tp686
a(S'w'
I2
tp687
a(S'p2_ll'
I24
tp688
a(S'p2_th'
I1
tp689
a(S'w'
I712
tp690
a(S'p1_vo'
I6
tp691
a(S'w'
I8
tp692
a(S'p1_tl'
I137
tp693
a(S'w'
I2
tp694
a(S'p1_ll'
I24
tp695
a(S'p1_th'
I3
tp696
a(S'w'
I13
tp697
a(S'p2_vo'
I8
tp698
a(S'w'
I9
tp699
a(S'p2_tl'
I169
tp700
a(S'w'
I2
tp701
a(S'p2_ll'
I24
tp702
a(S'p2_th'
I0
tp703
a(S'w'
I12
tp704
a(S'tr_lh'
I1
tp705
a(S'tr_lr'
I16
tp706
a(S'w'
I5
tp707
a(S'tr_tl'
I170
tp708
a(S'w'
I2
tp709
a(S'tr_ll'
I24
tp710
a(S'tr_th'
I1
tp711
a(S'w'
I13
tp712
a(S'no_np'
I14
tp713
a(S'w'
I1
tp714
a(S'no_ll'
I24
tp715
a(S'w'
I1
tp716
a(S'no_vo'
I15
tp717
a(S'w'
I661
tp718
a(S'p1_vo'
I5
tp719
a(S'w'
I12
tp720
a(S'p2_vo'
I10
tp721
a(S'w'
I17
tp722
a(S'no_np'
I15
tp723
a(S'no_ll'
I24
tp724
a(S'w'
I2
tp725
a(S'no_vo'
I10
tp726
a(S'w'
I710
tp727
a(S'p2_vo'
I6
tp728
a(S'w'
I16
tp729
a(S'no_np'
I13
tp730
a(S'no_ll'
I24
tp731
a(S'w'
I1
tp732
a(S'no_vo'
I3
tp733
a(S'w'
I710
tp734
a(S'p1_vo'
I4
tp735
a(S'w'
I22
tp736
a(S'no_vo'
I2
tp737
a(S'w'
I730
tp738
a(S'no_vo'
I0
tp739
a(S'w'
I1
tp740
a(S'no_np'
I0
tp741
a(S'no_ll'
I0
tp742
a(S'w'
I721
tp743
a(S'p1_du'
I0
tp744
a(S'p1_vo'
I8
tp745
a(S'w'
I9
tp746
a(S'p1_tl'
I165
tp747
a(S'w'
I2
tp748
a(S'p1_ll'
I24
tp749
a(S'p1_th'
I2
tp750
a(S'w'
I716
tp751
a(S'p1_vo'
I7
tp752
a(S'w'
I1468
tp753
a(S'p1_vo'
I6
tp754
a(S'w'
I1470
tp755
a(S'p1_vo'
I8
tp756
a(S'w'
I8
tp757
a(S'p1_tl'
I57
tp758
a(S'w'
I26
tp759
a(S'no_np'
I2
tp760
a(S'no_ll'
I24
tp761
a(S'w'
I1
tp762
a(S'no_vo'
I10
tp763
a(S'w'
I696
tp764
a(S'p1_vo'
I7
tp765
a(S'w'
I24
tp766
a(S'no_np'
I1
tp767
a(S'no_ll'
I24
tp768
a(S'w'
I1
tp769
a(S'no_vo'
I6
tp770
a(S'w'
I728
tp771
a(S'no_np'
I0
tp772
a(S'no_ll'
I24
tp773
a(S'w'
I2
tp774
a(S'no_vo'
I3
tp775
a(S'w'
I713
tp776
a(S'p1_vo'
I6
tp777
a(S'w'
I22
tp778
a(S'no_vo'
I0
tp779
a(S'no_ll'
I0
tp780
a(S'w'
I1448
tp781
a(S'p1_vo'
I8
tp782
a(S'w'
I8
tp783
a(S'p1_tl'
I196
tp784
a(S'w'
I2
tp785
a(S'p1_ll'
I24
tp786
a(S'p1_th'
I1
tp787
a(S'w'
I721
tp788
a(S'p1_vo'
I7
tp789
a(S'w'
I1468
tp790
a(S'p1_vo'
I6
tp791
a(S'w'
I15
tp792
a(S'tr_lh'
I0
tp793
a(S'tr_lr'
I0
tp794
a(S'w'
I1457
tp795
a(S'p1_vo'
I8
tp796
a(S'w'
I8
tp797
a(S'p1_tl'
I82
tp798
a(S'w'
I9
tp799
a(S'p2_tl'
I167
tp800
a(S'w'
I11
tp801
a(S'tr_lh'
I1
tp802
a(S'tr_lr'
I16
tp803
a(S'w'
I8
tp804
a(S'tr_ll'
I24
tp805
a(S'w'
I13
tp806
a(S'no_np'
I8
tp807
a(S'no_ll'
I24
tp808
a(S'w'
I2
tp809
a(S'no_vo'
I11
tp810
a(S'w'
I678
tp811
a(S'p1_vo'
I7
tp812
a(S'w'
I24
tp813
a(S'no_np'
I6
tp814
a(S'no_ll'
I24
tp815
a(S'w'
I729
tp816
a(S'no_np'
I3
tp817
a(S'w'
I1
tp818
a(S'no_ll'
I24
tp819
a(S'w'
I2
tp820
a(S'no_vo'
I5
tp821
a(S'w'
I712
tp822
a(S'p1_vo'
I6
tp823
a(S'w'
I15
tp824
a(S'tr_lh'
I0
tp825
a(S'tr_lr'
I0
tp826
a(S'w'
I1455
tp827
a(S'p1_vo'
I8
tp828
a(S'w'
I8
tp829
a(S'p1_tl'
I28
tp830
a(S'w'
I9
tp831
a(S'p2_tl'
I169
tp832
a(S'w'
I13
tp833
a(S'tr_lh'
I1
tp834
a(S'tr_lr'
I16
tp835
a(S'w'
I6
tp836
a(S'tr_tl'
I213
tp837
a(S'w'
I2
tp838
a(S'tr_ll'
I24
tp839
a(S'tr_th'
I0
tp840
a(S'w'
I693
tp841
a(S'p1_vo'
I7
tp842
a(S'w'
I24
tp843
a(S'no_vo'
I4
tp844
a(S'w'
I1444
tp845
a(S'p1_vo'
I6
tp846
a(S'w'
I15
tp847
a(S'tr_lh'
I0
tp848
a(S'tr_lr'
I0
tp849
a(S'w'
I1455
tp850
a(S'p1_vo'
I8
tp851
a(S'w'
I8
tp852
a(S'p1_tl'
I253
tp853
a(S'w'
I2
tp854
a(S'p1_ll'
I24
tp855
a(S'p1_th'
I0
tp856
a(S'w'
I9
tp857
a(S'p2_tl'
I167
tp858
a(S'w'
I13
tp859
a(S'tr_lh'
I1
tp860
a(S'tr_lr'
I16
tp861
a(S'w'
I6
tp862
a(S'tr_tl'
I124
tp863
a(S'w'
I2
tp864
a(S'tr_ll'
I24
tp865
a(S'tr_th'
I1
tp866
a(S'w'
I13
tp867
a(S'no_np'
I8
tp868
a(S'no_ll'
I24
tp869
a(S'w'
I1
tp870
a(S'no_vo'
I11
tp871
a(S'w'
I677
tp872
a(S'p1_vo'
I7
tp873
a(S'w'
I24
tp874
a(S'no_np'
I6
tp875
a(S'no_ll'
I24
tp876
a(S'w'
I729
tp877
a(S'no_np'
I3
tp878
a(S'w'
I1
tp879
a(S'no_ll'
I24
tp880
a(S'w'
I2
tp881
a(S'no_vo'
I5
tp882
a(S'w'
I712
tp883
a(S'p1_vo'
I6
tp884
a(S'w'
I1470
tp885
a(S'p1_vo'
I8
tp886
a(S'w'
I8
tp887
a(S'p1_tl'
I225
tp888
a(S'w'
I9
tp889
a(S'p2_tl'
I169
tp890
a(S'w'
I20
tp891
a(S'no_np'
I8
tp892
a(S'no_ll'
I24
tp893
a(S'w'
I2
tp894
a(S'no_vo'
I11
tp895
a(S'w'
I692
tp896
a(S'p1_vo'
I7
tp897
a(S'w'
I24
tp898
a(S'no_np'
I6
tp899
a(S'no_ll'
I24
tp900
a(S'w'
I729
tp901
a(S'no_np'
I3
tp902
a(S'w'
I1
tp903
a(S'no_ll'
I24
tp904
a(S'w'
I2
tp905
a(S'no_vo'
I5
tp906
a(S'w'
I711
tp907
a(S'p1_vo'
I6
tp908
a(S'w'
I15
tp909
a(S'tr_lh'
I0
tp910
a(S'tr_lr'
I0
tp911
a(S'w'
I1458
tp912
a(S'p1_vo'
I8
tp913
a(S'w'
I8
tp914
a(S'p1_tl'
I213
tp915
a(S'w'
I7
tp916
a(S'p2_vo'
I5
tp917
a(S'w'
I7
tp918
a(S'p2_tl'
I167
tp919
a(S'w'
I11
tp920
a(S'tr_lh'
I1
tp921
a(S'tr_lr'
I16
tp922
a(S'w'
I7
tp923
a(S'tr_ll'
I24
tp924
a(S'w'
I13
tp925
a(S'no_np'
I8
tp926
a(S'no_ll'
I24
tp927
a(S'w'
I2
tp928
a(S'no_vo'
I11
tp929
a(S'w'
I674
tp930
a(S'p1_vo'
I7
tp931
a(S'w'
I24
tp932
a(S'no_np'
I6
tp933
a(S'no_ll'
I24
tp934
a(S'w'
I717
tp935
a(S'p2_vo'
I4
tp936
a(S'w'
I16
tp937
a(S'no_np'
I3
tp938
a(S'no_ll'
I24
tp939
a(S'w'
I2
tp940
a(S'no_vo'
I5
tp941
a(S'w'
I708
tp942
a(S'p1_vo'
I6
tp943
a(S'w'
I15
tp944
a(S'tr_lh'
I0
tp945
a(S'tr_lr'
I0
tp946
a(S'w'
I725
tp947
a(S'p2_vo'
I0
tp948
a(S'w'
I6
tp949
a(S'p2_vo'
I2
tp950
a(S'w'
I3
tp951
a(S'p2_tl'
I169
tp952
a(S'w'
I722
tp953
a(S'p1_vo'
I8
tp954
a(S'w'
I8
tp955
a(S'p1_tl'
I189
tp956
a(S'w'
I7
tp957
a(S'p2_vo'
I0
tp958
a(S'w'
I14
tp959
a(S'tr_lh'
I1
tp960
a(S'tr_lr'
I16
tp961
a(S'w'
I6
tp962
a(S'tr_tl'
I189
tp963
a(S'w'
I2
tp964
a(S'tr_ll'
I24
tp965
a(S'tr_th'
I0
tp966
a(S'w'
I13
tp967
a(S'no_np'
I8
tp968
a(S'no_ll'
I24
tp969
a(S'w'
I1
tp970
a(S'no_vo'
I11
tp971
a(S'w'
I680
tp972
a(S'p1_vo'
I7
tp973
a(S'w'
I13
tp974
a(S'p2_tl'
I171
tp975
a(S'w'
I4
tp976
a(S'p2_vo'
I2
tp977
a(S'w'
I3
tp978
a(S'p2_tl'
I169
tp979
a(S'w'
I3
tp980
a(S'p2_ll'
I24
tp981
a(S'w'
I12
tp982
a(S'no_np'
I6
tp983
a(S'no_ll'
I24
tp984
a(S'w'
I711
tp985
a(S'p2_tl'
I169
tp986
a(S'w'
I13
tp987
a(S'no_np'
I3
tp988
a(S'no_ll'
I24
tp989
a(S'w'
I3
tp990
a(S'no_vo'
I5
tp991
a(S'w'
I705
tp992
a(S'p1_vo'
I6
tp993
a(S'w'
I16
tp994
a(S'p2_tl'
I169
tp995
a(S'w'
I5
tp996
a(S'tr_lh'
I0
tp997
a(S'tr_lr'
I0
tp998
a(S'w'
I725
tp999
a(S'p2_tl'
I169
tp1000
a(S'w'
I730
tp1001
a(S'p1_du'
I1
tp1002
a(S'w'
I8
tp1003
a(S'p1_tl'
I225
tp1004
a(S'w'
I10
tp1005
a(S'p2_vo'
I8
tp1006
a(S'w'
I9
tp1007
a(S'p2_tl'
I169
tp1008
a(S'w'
I12
tp1009
a(S'tr_lh'
I1
tp1010
a(S'tr_lr'
I16
tp1011
a(S'w'
I5
tp1012
a(S'tr_tl'
I82
tp1013
a(S'w'
I2
tp1014
a(S'tr_ll'
I24
tp1015
a(S'tr_th'
I1
tp1016
a(S'w'
I13
tp1017
a(S'no_np'
I8
tp1018
a(S'no_ll'
I24
tp1019
a(S'w'
I2
tp1020
a(S'no_vo'
I11
tp1021
a(S'w'
I665
tp1022
a(S'p1_vo'
I8
tp1023
a(S'w'
I12
tp1024
a(S'p2_vo'
I10
tp1025
a(S'w'
I18
tp1026
a(S'no_np'
I6
tp1027
a(S'no_ll'
I24
tp1028
a(S'w'
I704
tp1029
a(S'p1_vo'
I4
tp1030
a(S'w'
I10
tp1031
a(S'p2_vo'
I6
tp1032
a(S'w'
I17
tp1033
a(S'no_np'
I3
tp1034
a(S'no_ll'
I24
tp1035
a(S'w'
I2
tp1036
a(S'no_vo'
I5
tp1037
a(S'w'
I2172
tp1038
a(S'p1_vo'
I3
tp1039
a(S'w'
I12
tp1040
a(S'p2_vo'
I5
tp1041
a(S'w'
I741
tp1042
a(S'no_vo'
I4
tp1043
a(S'w'
I715
tp1044
a(S'p1_vo'
I2
tp1045
a(S'w'
I10
tp1046
a(S'p2_vo'
I4
tp1047
a(S'w'
I734
tp1048
a(S'tr_lh'
I0
tp1049
a(S'tr_lr'
I0
tp1050
a(S'w'
I722
tp1051
a(S'p1_vo'
I0
tp1052
a(S'w'
I5
tp1053
a(S'p1_vo'
I2
tp1054
a(S'w'
I4
tp1055
a(S'p1_tl'
I213
tp1056
a(S'w'
I7
tp1057
a(S'p2_vo'
I0
tp1058
a(S'w'
I5
tp1059
a(S'p2_vo'
I2
tp1060
a(S'w'
I4
tp1061
a(S'p2_tl'
I169
tp1062
a(S'w'
I713
tp1063
a(S'p1_vo'
I6
tp1064
a(S'w'
I8
tp1065
a(S'p1_tl'
I225
tp1066
a(S'w'
I10
tp1067
a(S'p2_vo'
I8
tp1068
a(S'w'
I9
tp1069
a(S'p2_tl'
I169
tp1070
a(S'w'
I10
tp1071
a(S'tr_lh'
I1
tp1072
a(S'tr_lr'
I16
tp1073
a(S'w'
I7
tp1074
a(S'tr_ll'
I24
tp1075
a(S'w'
I13
tp1076
a(S'no_np'
I8
tp1077
a(S'w'
I1
tp1078
a(S'no_ll'
I24
tp1079
a(S'w'
I1
tp1080
a(S'no_vo'
I11
tp1081
a(S'w'
I672
tp1082
a(S'p1_vo'
I8
tp1083
a(S'w'
I12
tp1084
a(S'p2_vo'
I10
tp1085
a(S'w'
I18
tp1086
a(S'no_np'
I6
tp1087
a(S'no_ll'
I24
tp1088
a(S'w'
I703
tp1089
a(S'p1_vo'
I4
tp1090
a(S'w'
I10
tp1091
a(S'p2_vo'
I6
tp1092
a(S'w'
I17
tp1093
a(S'no_np'
I3
tp1094
a(S'no_ll'
I24
tp1095
a(S'w'
I2
tp1096
a(S'no_vo'
I5
tp1097
a(S'w'
I2173
tp1098
a(S'p1_vo'
I3
tp1099
a(S'w'
I12
tp1100
a(S'p2_vo'
I5
tp1101
a(S'w'
I741
tp1102
a(S'no_vo'
I4
tp1103
a(S'w'
I714
tp1104
a(S'p1_vo'
I2
tp1105
a(S'w'
I10
tp1106
a(S'p2_vo'
I4
tp1107
a(S'w'
I735
tp1108
a(S'tr_lh'
I0
tp1109
a(S'tr_lr'
I0
tp1110
a(S'w'
I722
tp1111
a(S'p1_vo'
I0
tp1112
a(S'w'
I5
tp1113
a(S'p1_vo'
I2
tp1114
a(S'w'
I4
tp1115
a(S'p1_tl'
I225
tp1116
a(S'w'
I7
tp1117
a(S'p2_vo'
I0
tp1118
a(S'w'
I5
tp1119
a(S'p2_vo'
I2
tp1120
a(S'w'
I4
tp1121
a(S'p2_tl'
I169
tp1122
a(S'w'
I710
tp1123
a(S'p1_vo'
I0
tp1124
a(S'w'
I10
tp1125
a(S'p2_vo'
I0
tp1126
a(S'w'
I25
tp1127
a(S'no_np'
I2
tp1128
a(S'no_ll'
I24
tp1129
a(S'w'
I1
tp1130
a(S'no_vo'
I10
tp1131
a(S'w'
I699
tp1132
a(S'p1_vo'
I2
tp1133
a(S'w'
I4
tp1134
a(S'p1_tl'
I225
tp1135
a(S'w'
I2
tp1136
a(S'p1_ll'
I24
tp1137
a(S'w'
I8
tp1138
a(S'p2_vo'
I2
tp1139
a(S'w'
I4
tp1140
a(S'p2_tl'
I169
tp1141
a(S'w'
I3
tp1142
a(S'p2_ll'
I24
tp1143
a(S'w'
I11
tp1144
a(S'no_np'
I1
tp1145
a(S'no_ll'
I24
tp1146
a(S'w'
I1
tp1147
a(S'no_vo'
I6
tp1148
a(S'w'
I704
tp1149
a(S'p1_tl'
I225
tp1150
a(S'w'
I13
tp1151
a(S'p2_tl'
I169
tp1152
a(S'w'
I12
tp1153
a(S'no_np'
I0
tp1154
a(S'no_ll'
I24
tp1155
a(S'w'
I1
tp1156
a(S'no_vo'
I3
tp1157
a(S'w'
I708
tp1158
a(S'p1_tl'
I225
tp1159
a(S'w'
I13
tp1160
a(S'p2_tl'
I169
tp1161
a(S'w'
I11
tp1162
a(S'no_vo'
I0
tp1163
a(S'no_ll'
I0
tp1164
a(S'w'
I710
tp1165
a(S'p1_tl'
I225
tp1166
a(S'w'
I13
tp1167
a(S'p2_tl'
I169
tp1168
a(S'w'
I721
tp1169
a(S'p1_tl'
I225
tp1170
a(S'w'
I13
tp1171
a(S'p2_tl'
I169
tp1172
a(S'w'
I721
tp1173
a(S'p1_tl'
I225
tp1174
a(S'w'
I13
tp1175
a(S'p2_tl'
I169
tp1176
a(S'w'
I720
tp1177
a(S'p1_tl'
I225
tp1178
a(S'w'
I13
tp1179
a(S'p2_tl'
I169
tp1180
a(S'w'
I721
tp1181
a(S'p1_tl'
I225
tp1182
a(S'w'
I13
tp1183
a(S'p2_tl'
I169
tp1184
a(S'w'
I721
tp1185
a(S'p1_tl'
I225
tp1186
a(S'w'
I13
tp1187
a(S'p2_tl'
I169
tp1188
a(S'w'
I723
tp1189
a(S'p1_du'
I0
tp1190
a(S'p1_vo'
I8
tp1191
a(S'w'
I9
tp1192
a(S'p1_tl'
I26
tp1193
a(S'w'
I2
tp1194
a(S'p1_ll'
I24
tp1195
a(S'p1_th'
I2
tp1196
a(S'w'
I14
tp1197
a(S'p2_du'
I0
tp1198
a(S'p2_vo'
I8
tp1199
a(S'w'
I9
tp1200
a(S'p2_tl'
I196
tp1201
a(S'w'
I2
tp1202
a(S'p2_ll'
I24
tp1203
a(S'p2_th'
I1
tp1204
a(S'w'
I11
tp1205
a(S'tr_lh'
I1
tp1206
a(S'tr_lr'
I16
tp1207
a(S'w'
I5
tp1208
a(S'tr_tl'
I165
tp1209
a(S'w'
I2
tp1210
a(S'tr_ll'
I24
tp1211
a(S'tr_th'
I2
tp1212
a(S'w'
I13
tp1213
a(S'no_np'
I14
tp1214
a(S'no_ll'
I24
tp1215
a(S'w'
I2
tp1216
a(S'no_vo'
I15
tp1217
a(S'w'
I658
tp1218
a(S'p1_vo'
I7
tp1219
a(S'w'
I12
tp1220
a(S'p2_vo'
I7
tp1221
a(S'w'
I16
tp1222
a(S'no_np'
I15
tp1223
a(S'w'
I1
tp1224
a(S'no_ll'
I24
tp1225
a(S'w'
I1
tp1226
a(S'no_vo'
I10
tp1227
a(S'w'
I722
tp1228
a(S'no_np'
I13
tp1229
a(S'no_ll'
I24
tp1230
a(S'w'
I1
tp1231
a(S'no_vo'
I3
tp1232
a(S'w'
I714
tp1233
a(S'p1_vo'
I6
tp1234
a(S'w'
I10
tp1235
a(S'p2_vo'
I6
tp1236
a(S'w'
I8
tp1237
a(S'tr_lh'
I0
tp1238
a(S'tr_lr'
I0
tp1239
a(S'w'
I9
tp1240
a(S'no_vo'
I2
tp1241
a(S'w'
I724
tp1242
a(S'no_vo'
I0
tp1243
a(S'w'
I1
tp1244
a(S'no_np'
I0
tp1245
a(S'no_ll'
I0
tp1246
a(S'w'
I721
tp1247
a(S'p1_vo'
I8
tp1248
a(S'w'
I8
tp1249
a(S'p1_tl'
I82
tp1250
a(S'w'
I2
tp1251
a(S'p1_ll'
I24
tp1252
a(S'p1_th'
I1
tp1253
a(S'w'
I11
tp1254
a(S'p2_vo'
I8
tp1255
a(S'w'
I9
tp1256
a(S'p2_tl'
I12
tp1257
a(S'w'
I10
tp1258
a(S'tr_lh'
I1
tp1259
a(S'tr_lr'
I16
tp1260
a(S'w'
I7
tp1261
a(S'tr_ll'
I24
tp1262
a(S'w'
I13
tp1263
a(S'no_np'
I14
tp1264
a(S'no_ll'
I24
tp1265
a(S'w'
I1
tp1266
a(S'no_vo'
I15
tp1267
a(S'w'
I667
tp1268
a(S'p1_vo'
I7
tp1269
a(S'w'
I12
tp1270
a(S'p2_vo'
I7
tp1271
a(S'w'
I16
tp1272
a(S'no_np'
I15
tp1273
a(S'w'
I1
tp1274
a(S'no_ll'
I24
tp1275
a(S'w'
I1
tp1276
a(S'no_vo'
I10
tp1277
a(S'w'
I723
tp1278
a(S'no_np'
I13
tp1279
a(S'no_ll'
I24
tp1280
a(S'w'
I1
tp1281
a(S'no_vo'
I3
tp1282
a(S'w'
I714
tp1283
a(S'p1_vo'
I6
tp1284
a(S'w'
I10
tp1285
a(S'p2_vo'
I6
tp1286
a(S'w'
I8
tp1287
a(S'tr_lh'
I0
tp1288
a(S'tr_lr'
I0
tp1289
a(S'w'
I9
tp1290
a(S'no_vo'
I2
tp1291
a(S'w'
I724
tp1292
a(S'no_vo'
I0
tp1293
a(S'no_np'
I0
tp1294
a(S'w'
I1
tp1295
a(S'no_ll'
I0
tp1296
a(S'w'
I721
tp1297
a(S'p1_vo'
I8
tp1298
a(S'w'
I8
tp1299
a(S'p1_tl'
I196
tp1300
a(S'w'
I10
tp1301
a(S'p2_vo'
I8
tp1302
a(S'w'
I9
tp1303
a(S'p2_tl'
I82
tp1304
a(S'w'
I10
tp1305
a(S'tr_lh'
I1
tp1306
a(S'tr_lr'
I16
tp1307
a(S'w'
I8
tp1308
a(S'tr_ll'
I24
tp1309
a(S'w'
I13
tp1310
a(S'no_np'
I8
tp1311
a(S'no_ll'
I24
tp1312
a(S'w'
I2
tp1313
a(S'no_vo'
I11
tp1314
a(S'w'
I668
tp1315
a(S'p1_vo'
I10
tp1316
a(S'w'
I12
tp1317
a(S'p2_vo'
I10
tp1318
a(S'w'
I18
tp1319
a(S'no_np'
I6
tp1320
a(S'no_ll'
I24
tp1321
a(S'w'
I704
tp1322
a(S'p1_vo'
I6
tp1323
a(S'w'
I10
tp1324
a(S'p2_vo'
I6
tp1325
a(S'w'
I17
tp1326
a(S'no_np'
I3
tp1327
a(S'no_ll'
I24
tp1328
a(S'w'
I2
tp1329
a(S'no_vo'
I5
tp1330
a(S'w'
I2173
tp1331
a(S'p1_vo'
I5
tp1332
a(S'w'
I12
tp1333
a(S'p2_vo'
I5
tp1334
a(S'w'
I740
tp1335
a(S'no_vo'
I4
tp1336
a(S'w'
I715
tp1337
a(S'p1_vo'
I4
tp1338
a(S'w'
I10
tp1339
a(S'p2_vo'
I4
tp1340
a(S'w'
I1457
tp1341
a(S'p1_vo'
I0
tp1342
a(S'w'
I5
tp1343
a(S'p1_vo'
I2
tp1344
a(S'w'
I4
tp1345
a(S'p1_tl'
I26
tp1346
a(S'w'
I3
tp1347
a(S'p1_ll'
I24
tp1348
a(S'p1_th'
I2
tp1349
a(S'w'
I5
tp1350
a(S'p2_vo'
I0
tp1351
a(S'w'
I6
tp1352
a(S'p2_vo'
I2
tp1353
a(S'w'
I4
tp1354
a(S'p2_tl'
I196
tp1355
a(S'w'
I708
tp1356
a(S'p1_vo'
I0
tp1357
a(S'w'
I10
tp1358
a(S'p2_vo'
I0
tp1359
a(S'w'
I15
tp1360
a(S'no_vo'
I3
tp1361
a(S'w'
I709
tp1362
a(S'p1_vo'
I2
tp1363
a(S'w'
I4
tp1364
a(S'p1_tl'
I26
tp1365
a(S'w'
I2
tp1366
a(S'p1_ll'
I24
tp1367
a(S'w'
I8
tp1368
a(S'p2_vo'
I2
tp1369
a(S'w'
I4
tp1370
a(S'p2_tl'
I196
tp1371
a(S'w'
I3
tp1372
a(S'p2_ll'
I24
tp1373
a(S'w'
I717
tp1374
a(S'p1_tl'
I26
tp1375
a(S'w'
I13
tp1376
a(S'p2_tl'
I196
tp1377
a(S'w'
I721
tp1378
a(S'p1_tl'
I26
tp1379
a(S'w'
I13
tp1380
a(S'p2_tl'
I196
tp1381
a(S'w'
I5
tp1382
a(S'tr_lh'
I0
tp1383
a(S'tr_lr'
I0
tp1384
a(S'w'
I716
tp1385
a(S'p1_tl'
I26
tp1386
a(S'w'
I13
tp1387
a(S'p2_tl'
I196
tp1388
a(S'w'
I12
tp1389
a(S'no_vo'
I2
tp1390
a(S'w'
I709
tp1391
a(S'p1_tl'
I82
tp1392
a(S'w'
I2
tp1393
a(S'p1_ll'
I24
tp1394
a(S'p1_th'
I1
tp1395
a(S'w'
I12
tp1396
a(S'p2_tl'
I12
tp1397
a(S'w'
I719
tp1398
a(S'p1_tl'
I82
tp1399
a(S'w'
I13
tp1400
a(S'p2_tl'
I12
tp1401
a(S'w'
I721
tp1402
a(S'p1_tl'
I82
tp1403
a(S'w'
I13
tp1404
a(S'p2_tl'
I12
tp1405
a(S'w'
I721
tp1406
a(S'p1_tl'
I82
tp1407
a(S'w'
I13
tp1408
a(S'p2_tl'
I12
tp1409
a(S'w'
I11
tp1410
a(S'no_vo'
I0
tp1411
a(S'w'
I1
tp1412
a(S'no_np'
I0
tp1413
a(S'no_ll'
I0
tp1414
a(S'w'
I709
tp1415
a(S'p1_tl'
I82
tp1416
a(S'w'
I13
tp1417
a(S'p2_tl'
I12
tp1418
a(S'w'
I721
tp1419
a(S'p1_du'
I1
tp1420
a(S'p1_vo'
I6
tp1421
a(S'w'
I8
tp1422
a(S'p1_tl'
I196
tp1423
a(S'w'
I13
tp1424
a(S'p2_du'
I1
tp1425
a(S'p2_vo'
I8
tp1426
a(S'w'
I9
tp1427
a(S'p2_tl'
I82
tp1428
a(S'w'
I12
tp1429
a(S'tr_lh'
I1
tp1430
a(S'tr_lr'
I16
tp1431
a(S'w'
I5
tp1432
a(S'tr_tl'
I82
tp1433
a(S'w'
I2
tp1434
a(S'tr_ll'
I24
tp1435
a(S'tr_th'
I1
tp1436
a(S'w'
I13
tp1437
a(S'no_np'
I8
tp1438
a(S'no_ll'
I24
tp1439
a(S'w'
I2
tp1440
a(S'no_vo'
I11
tp1441
a(S'w'
I664
tp1442
a(S'p1_vo'
I8
tp1443
a(S'w'
I12
tp1444
a(S'p2_vo'
I10
tp1445
a(S'w'
I18
tp1446
a(S'no_np'
I6
tp1447
a(S'no_ll'
I24
tp1448
a(S'w'
I704
tp1449
a(S'p1_vo'
I4
tp1450
a(S'w'
I10
tp1451
a(S'p2_vo'
I6
tp1452
a(S'w'
I17
tp1453
a(S'no_np'
I3
tp1454
a(S'no_ll'
I24
tp1455
a(S'w'
I2
tp1456
a(S'no_vo'
I5
tp1457
a(S'w'
I2172
tp1458
a(S'p1_vo'
I3
tp1459
a(S'w'
I12
tp1460
a(S'p2_vo'
I5
tp1461
a(S'w'
I741
tp1462
a(S'no_vo'
I4
tp1463
a(S'w'
I715
tp1464
a(S'p1_vo'
I2
tp1465
a(S'w'
I10
tp1466
a(S'p2_vo'
I4
tp1467
a(S'w'
I735
tp1468
a(S'tr_lh'
I0
tp1469
a(S'tr_lr'
I0
tp1470
a(S'w'
I722
tp1471
a(S'p1_vo'
I0
tp1472
a(S'w'
I5
tp1473
a(S'p1_vo'
I2
tp1474
a(S'w'
I4
tp1475
a(S'p1_tl'
I196
tp1476
a(S'w'
I7
tp1477
a(S'p2_vo'
I0
tp1478
a(S'w'
I5
tp1479
a(S'p2_vo'
I2
tp1480
a(S'w'
I4
tp1481
a(S'p2_tl'
I82
tp1482
a(S'w'
I712
tp1483
a(S'p1_vo'
I6
tp1484
a(S'w'
I8
tp1485
a(S'p1_tl'
I196
tp1486
a(S'w'
I10
tp1487
a(S'p2_vo'
I8
tp1488
a(S'w'
I9
tp1489
a(S'p2_tl'
I82
tp1490
a(S'w'
I10
tp1491
a(S'tr_lh'
I1
tp1492
a(S'tr_lr'
I16
tp1493
a(S'w'
I7
tp1494
a(S'tr_ll'
I24
tp1495
a(S'w'
I13
tp1496
a(S'no_np'
I8
tp1497
a(S'w'
I1
tp1498
a(S'no_ll'
I24
tp1499
a(S'w'
I1
tp1500
a(S'no_vo'
I11
tp1501
a(S'w'
I672
tp1502
a(S'p1_vo'
I8
tp1503
a(S'w'
I12
tp1504
a(S'p2_vo'
I10
tp1505
a(S'w'
I18
tp1506
a(S'no_np'
I6
tp1507
a(S'no_ll'
I24
tp1508
a(S'w'
I704
tp1509
a(S'p1_vo'
I4
tp1510
a(S'w'
I10
tp1511
a(S'p2_vo'
I6
tp1512
a(S'w'
I17
tp1513
a(S'no_np'
I3
tp1514
a(S'no_ll'
I24
tp1515
a(S'w'
I2
tp1516
a(S'no_vo'
I5
tp1517
a(S'w'
I2172
tp1518
a(S'p1_vo'
I3
tp1519
a(S'w'
I12
tp1520
a(S'p2_vo'
I5
tp1521
a(S'w'
I741
tp1522
a(S'no_vo'
I4
tp1523
a(S'w'
I715
tp1524
a(S'p1_vo'
I2
tp1525
a(S'w'
I10
tp1526
a(S'p2_vo'
I4
tp1527
a(S'w'
I735
tp1528
a(S'tr_lh'
I0
tp1529
a(S'tr_lr'
I0
tp1530
a(S'w'
I722
tp1531
a(S'p1_vo'
I0
tp1532
a(S'w'
I5
tp1533
a(S'p1_vo'
I2
tp1534
a(S'w'
I4
tp1535
a(S'p1_tl'
I196
tp1536
a(S'w'
I7
tp1537
a(S'p2_vo'
I0
tp1538
a(S'w'
I5
tp1539
a(S'p2_vo'
I2
tp1540
a(S'w'
I4
tp1541
a(S'p2_tl'
I82
tp1542
a(S'w'
I709
tp1543
a(S'p1_vo'
I0
tp1544
a(S'w'
I10
tp1545
a(S'p2_vo'
I0
tp1546
a(S'w'
I12
tp1547
a(S'w'
I2
tp1548
a(S'tr_tl'
I0
tp1549
a(S'w'
I1
tp1550
a(S'tr_ll'
I0
tp1551
a(S'tr_th'
I0
tp1552
a(S'w'
I8
tp1553
a(S'no_vo'
I0
tp1554
a(S'w'
I702
tp1555
a(S'p1_vo'
I2
tp1556
a(S'w'
I4
tp1557
a(S'p1_tl'
I196
tp1558
a(S'w'
I2
tp1559
a(S'p1_ll'
I24
tp1560
a(S'w'
I8
tp1561
a(S'p2_vo'
I2
tp1562
a(S'w'
I4
tp1563
a(S'p2_tl'
I82
tp1564
a(S'w'
I3
tp1565
a(S'p2_ll'
I24
tp1566
a(S'w'
I717
tp1567
a(S'p1_tl'
I196
tp1568
a(S'w'
I13
tp1569
a(S'p2_tl'
I82
tp1570
a(S'w'
I721
tp1571
a(S'p1_tl'
I196
tp1572
a(S'w'
I13
tp1573
a(S'p2_tl'
I82
tp1574
a(S'w'
I720
tp1575
a(S'p1_tl'
I196
tp1576
a(S'w'
I13
tp1577
a(S'p2_tl'
I82
tp1578
a(S'w'
I721
tp1579
a(S'p1_tl'
I196
tp1580
a(S'w'
I13
tp1581
a(S'p2_tl'
I82
tp1582
a(S'w'
I721
tp1583
a(S'p1_tl'
I196
tp1584
a(S'w'
I13
tp1585
a(S'p2_tl'
I82
tp1586
a(S'w'
I721
tp1587
a(S'p1_tl'
I196
tp1588
a(S'w'
I13
tp1589
a(S'p2_tl'
I82
tp1590
a(S'w'
I721
tp1591
a(S'p1_tl'
I196
tp1592
a(S'w'
I13
tp1593
a(S'p2_tl'
I82
tp1594
a(S'w'
I720
tp1595
a(S'p1_tl'
I196
tp1596
a(S'w'
I13
tp1597
a(S'p2_tl'
I82
tp1598
a(S'w'
I717
tp1599
a(S'p1_du'
I0
tp1600
a(S'p1_vo'
I0
tp1601
a(S'w'
I3
tp1602
a(S'p1_tl'
I0
tp1603
a(S'w'
I1
tp1604
a(S'p1_ll'
I0
tp1605
a(S'p1_th'
I0
tp1606
a(S'w'
I8
tp1607
a(S'p2_du'
I0
tp1608
a(S'p2_vo'
I0
tp1609
a(S'w'
I4
tp1610
a(S'p2_tl'
I0
tp1611
a(S'w'
I1
tp1612
a(S'p2_ll'
I0
tp1613
a(S'p2_th'
I0
tp1614
a.