(lp1
(S'clock'
p2
I1789772
tp3
a(S'p1_lh'
I1
tp4
a(S'p1_cv'
I1
tp5
a(S'p1_sn'
I1
tp6
a(S'p1_tl'
I197
tp7
a(S'p1_ll'
I0
tp8
a(S'p2_lh'
I1
tp9
a(S'p2_cv'
I1
tp10
a(S'p2_sn'
I1
tp11
a(S'p2_tl'
I140
tp12
a(S'p2_ll'
I0
tp13
a(S'tr_lh'
I1
tp14
a(S'tr_ll'
I16
tp15
a(S'no_lh'
I1
tp16
a(S'no_cv'
I1
tp17
a(S'ch_no'
I0
tp18
a(S'ch_tr'
I0
tp19
a(S'ch_p2'
I1
tp20
a(S'ch_p1'
I1
tp21
a(S'fc_mo'
I0
tp22
a(S'w'
I1
tp23
a(S'p1_vo'
I13
tp24
a(S'w'
I52
tp25
a(S'p2_tl'
I211
tp26
a(S'p2_ll'
I0
tp27
a(S'p2_th'
I1
tp28
a(S'w'
I2
tp29
a(S'p2_du'
I1
tp30
a(S'p2_vo'
I15
tp31
a(S'w'
I628
tp32
a(S'w'
I15
tp33
a(S'p2_tl'
I241
tp34
a(S'w'
I718
tp35
a(S'w'
I2
tp36
a(S'p1_vo'
I12
tp37
a(S'w'
I15
tp38
a(S'w'
I717
tp39
a(S'w'
I2
tp40
a(S'p1_vo'
I11
tp41
a(S'w'
I14
tp42
a(S'w'
I2
tp43
a(S'p2_vo'
I14
tp44
a(S'w'
I716
tp45
a(S'w'
I2
tp46
a(S'p1_vo'
I10
tp47
a(S'w'
I16
tp48
a(S'w'
I716
tp49
a(S'w'
I2
tp50
a(S'p1_vo'
I9
tp51
a(S'w'
I14
tp52
a(S'w'
I1
tp53
a(S'p2_vo'
I13
tp54
a(S'w'
I717
tp55
a(S'w'
I1
tp56
a(S'p1_vo'
I8
tp57
a(S'w'
I16
tp58
a(S'w'
I716
tp59
a(S'w'
I2
tp60
a(S'p1_vo'
I7
tp61
a(S'w'
I14
tp62
a(S'w'
I2
tp63
a(S'p2_vo'
I12
tp64
a(S'w'
I715
tp65
a(S'w'
I2
tp66
a(S'p1_vo'
I6
tp67
a(S'w'
I16
tp68
a(S'w'
I716
tp69
a(S'w'
I16
tp70
a(S'w'
I1
tp71
a(S'p2_vo'
I11
tp72
a(S'w'
I717
tp73
a(S'w'
I16
tp74
a(S'w'
I719
tp75
a(S'w'
I15
tp76
a(S'w'
I717
tp77
a(S'w'
I2
tp78
a(S'p1_vo'
I5
tp79
a(S'w'
I16
tp80
a(S'w'
I716
tp81
a(S'w'
I17
tp82
a(S'w'
I1
tp83
a(S'p2_vo'
I10
tp84
a(S'w'
I726
tp85
a(S'p1_tl'
I249
tp86
a(S'p1_ll'
I0
tp87
a(S'w'
I2
tp88
a(S'p1_vo'
I13
tp89
a(S'w'
I26
tp90
a(S'p2_tl'
I139
tp91
a(S'p2_ll'
I0
tp92
a(S'w'
I2
tp93
a(S'p2_vo'
I15
tp94
a(S'w'
I695
tp95
a(S'w'
I16
tp96
a(S'w'
I718
tp97
a(S'w'
I1
tp98
a(S'p1_vo'
I12
tp99
a(S'w'
I16
tp100
a(S'w'
I717
tp101
a(S'w'
I1
tp102
a(S'p1_vo'
I11
tp103
a(S'w'
I14
tp104
a(S'w'
I2
tp105
a(S'p2_vo'
I14
tp106
a(S'w'
I716
tp107
a(S'w'
I2
tp108
a(S'p1_vo'
I10
tp109
a(S'w'
I16
tp110
a(S'w'
I716
tp111
a(S'w'
I2
tp112
a(S'p1_vo'
I9
tp113
a(S'w'
I14
tp114
a(S'w'
I2
tp115
a(S'p2_vo'
I13
tp116
a(S'w'
I716
tp117
a(S'w'
I2
tp118
a(S'p1_vo'
I8
tp119
a(S'w'
I15
tp120
a(S'w'
I732
tp121
a(S'p1_tl'
I197
tp122
a(S'p1_ll'
I0
tp123
a(S'w'
I2
tp124
a(S'p1_vo'
I13
tp125
a(S'w'
I30
tp126
a(S'p2_tl'
I241
tp127
a(S'w'
I1
tp128
a(S'p2_ll'
I0
tp129
a(S'w'
I2
tp130
a(S'p2_vo'
I15
tp131
a(S'w'
I683
tp132
a(S'w'
I16
tp133
a(S'w'
I718
tp134
a(S'w'
I2
tp135
a(S'p1_vo'
I12
tp136
a(S'w'
I15
tp137
a(S'w'
I717
tp138
a(S'w'
I2
tp139
a(S'p1_vo'
I11
tp140
a(S'w'
I14
tp141
a(S'w'
I2
tp142
a(S'p2_vo'
I14
tp143
a(S'w'
I716
tp144
a(S'w'
I2
tp145
a(S'p1_vo'
I10
tp146
a(S'w'
I16
tp147
a(S'w'
I716
tp148
a(S'w'
I1
tp149
a(S'p1_vo'
I9
tp150
a(S'w'
I14
tp151
a(S'w'
I2
tp152
a(S'p2_vo'
I13
tp153
a(S'w'
I716
tp154
a(S'w'
I2
tp155
a(S'p1_vo'
I8
tp156
a(S'w'
I15
tp157
a(S'w'
I717
tp158
a(S'w'
I2
tp159
a(S'p1_vo'
I7
tp160
a(S'w'
I14
tp161
a(S'w'
I2
tp162
a(S'p2_vo'
I12
tp163
a(S'w'
I715
tp164
a(S'w'
I2
tp165
a(S'p1_vo'
I6
tp166
a(S'w'
I16
tp167
a(S'w'
I716
tp168
a(S'w'
I16
tp169
a(S'w'
I1
tp170
a(S'p2_vo'
I11
tp171
a(S'w'
I717
tp172
a(S'w'
I15
tp173
a(S'w'
I719
tp174
a(S'w'
I16
tp175
a(S'w'
I717
tp176
a(S'w'
I2
tp177
a(S'p1_vo'
I5
tp178
a(S'w'
I16
tp179
a(S'w'
I716
tp180
a(S'w'
I16
tp181
a(S'w'
I2
tp182
a(S'p2_vo'
I10
tp183
a(S'w'
I726
tp184
a(S'p1_tl'
I249
tp185
a(S'p1_ll'
I0
tp186
a(S'w'
I2
tp187
a(S'p1_vo'
I13
tp188
a(S'w'
I26
tp189
a(S'p2_tl'
I139
tp190
a(S'p2_ll'
I0
tp191
a(S'w'
I2
tp192
a(S'p2_vo'
I15
tp193
a(S'w'
I695
tp194
a(S'w'
I15
tp195
a(S'w'
I719
tp196
a(S'w'
I1
tp197
a(S'p1_vo'
I12
tp198
a(S'w'
I15
tp199
a(S'w'
I717
tp200
a(S'w'
I2
tp201
a(S'p1_vo'
I11
tp202
a(S'w'
I14
tp203
a(S'w'
I2
tp204
a(S'p2_vo'
I14
tp205
a(S'w'
I716
tp206
a(S'w'
I2
tp207
a(S'p1_vo'
I10
tp208
a(S'w'
I16
tp209
a(S'w'
I716
tp210
a(S'w'
I2
tp211
a(S'p1_vo'
I9
tp212
a(S'w'
I14
tp213
a(S'w'
I1
tp214
a(S'p2_vo'
I13
tp215
a(S'w'
I717
tp216
a(S'w'
I2
tp217
a(S'p1_vo'
I8
tp218
a(S'w'
I15
tp219
a(S'w'
I736
tp220
a(S'p1_tl'
I186
tp221
a(S'p1_ll'
I0
tp222
a(S'w'
I3
tp223
a(S'p1_vo'
I13
tp224
a(S'w'
I34
tp225
a(S'p2_tl'
I187
tp226
a(S'w'
I1
tp227
a(S'p2_ll'
I0
tp228
a(S'w'
I2
tp229
a(S'p2_vo'
I15
tp230
a(S'w'
I674
tp231
a(S'w'
I16
tp232
a(S'w'
I718
tp233
a(S'w'
I2
tp234
a(S'p1_vo'
I12
tp235
a(S'w'
I15
tp236
a(S'w'
I717
tp237
a(S'w'
I2
tp238
a(S'p1_vo'
I11
tp239
a(S'w'
I14
tp240
a(S'w'
I1
tp241
a(S'p2_vo'
I14
tp242
a(S'w'
I717
tp243
a(S'w'
I1
tp244
a(S'p1_vo'
I10
tp245
a(S'w'
I17
tp246
a(S'w'
I716
tp247
a(S'w'
I1
tp248
a(S'p1_vo'
I9
tp249
a(S'w'
I14
tp250
a(S'w'
I2
tp251
a(S'p2_vo'
I13
tp252
a(S'w'
I716
tp253
a(S'w'
I2
tp254
a(S'p1_vo'
I8
tp255
a(S'w'
I15
tp256
a(S'w'
I717
tp257
a(S'w'
I2
tp258
a(S'p1_vo'
I7
tp259
a(S'w'
I14
tp260
a(S'w'
I2
tp261
a(S'p2_vo'
I12
tp262
a(S'w'
I715
tp263
a(S'w'
I2
tp264
a(S'p1_vo'
I6
tp265
a(S'w'
I16
tp266
a(S'w'
I716
tp267
a(S'w'
I15
tp268
a(S'w'
I2
tp269
a(S'p2_vo'
I11
tp270
a(S'w'
I716
tp271
a(S'w'
I16
tp272
a(S'w'
I719
tp273
a(S'w'
I16
tp274
a(S'w'
I717
tp275
a(S'w'
I2
tp276
a(S'p1_vo'
I5
tp277
a(S'w'
I16
tp278
a(S'w'
I716
tp279
a(S'w'
I16
tp280
a(S'w'
I2
tp281
a(S'p2_vo'
I10
tp282
a(S'w'
I726
tp283
a(S'p1_tl'
I221
tp284
a(S'p1_ll'
I0
tp285
a(S'w'
I2
tp286
a(S'p1_vo'
I13
tp287
a(S'w'
I25
tp288
a(S'p2_tl'
I116
tp289
a(S'w'
I1
tp290
a(S'p2_ll'
I0
tp291
a(S'w'
I2
tp292
a(S'p2_vo'
I15
tp293
a(S'w'
I695
tp294
a(S'w'
I15
tp295
a(S'w'
I718
tp296
a(S'w'
I2
tp297
a(S'p1_vo'
I12
tp298
a(S'w'
I15
tp299
a(S'w'
I717
tp300
a(S'w'
I2
tp301
a(S'p1_vo'
I11
tp302
a(S'w'
I14
tp303
a(S'w'
I2
tp304
a(S'p2_vo'
I14
tp305
a(S'w'
I716
tp306
a(S'w'
I2
tp307
a(S'p1_vo'
I10
tp308
a(S'w'
I16
tp309
a(S'w'
I716
tp310
a(S'w'
I2
tp311
a(S'p1_vo'
I9
tp312
a(S'w'
I14
tp313
a(S'w'
I1
tp314
a(S'p2_vo'
I13
tp315
a(S'w'
I717
tp316
a(S'w'
I2
tp317
a(S'p1_vo'
I8
tp318
a(S'w'
I15
tp319
a(S'w'
I731
tp320
a(S'p1_tl'
I186
tp321
a(S'w'
I1
tp322
a(S'p1_ll'
I0
tp323
a(S'w'
I2
tp324
a(S'p1_vo'
I13
tp325
a(S'w'
I30
tp326
a(S'p2_tl'
I187
tp327
a(S'p2_ll'
I0
tp328
a(S'w'
I2
tp329
a(S'p2_vo'
I15
tp330
a(S'w'
I684
tp331
a(S'w'
I16
tp332
a(S'w'
I718
tp333
a(S'w'
I2
tp334
a(S'p1_vo'
I12
tp335
a(S'w'
I15
tp336
a(S'w'
I717
tp337
a(S'w'
I2
tp338
a(S'p1_vo'
I11
tp339
a(S'w'
I14
tp340
a(S'w'
I1
tp341
a(S'p2_vo'
I14
tp342
a(S'w'
I717
tp343
a(S'w'
I1
tp344
a(S'p1_vo'
I10
tp345
a(S'w'
I17
tp346
a(S'w'
I715
tp347
a(S'w'
I2
tp348
a(S'p1_vo'
I9
tp349
a(S'w'
I14
tp350
a(S'w'
I2
tp351
a(S'p2_vo'
I13
tp352
a(S'w'
I716
tp353
a(S'w'
I2
tp354
a(S'p1_vo'
I8
tp355
a(S'w'
I15
tp356
a(S'w'
I717
tp357
a(S'w'
I2
tp358
a(S'p1_vo'
I7
tp359
a(S'w'
I14
tp360
a(S'w'
I1
tp361
a(S'p2_vo'
I12
tp362
a(S'w'
I716
tp363
a(S'w'
I1
tp364
a(S'p1_vo'
I6
tp365
a(S'w'
I17
tp366
a(S'w'
I715
tp367
a(S'w'
I16
tp368
a(S'w'
I2
tp369
a(S'p2_vo'
I11
tp370
a(S'w'
I716
tp371
a(S'w'
I16
tp372
a(S'w'
I719
tp373
a(S'w'
I16
tp374
a(S'w'
I717
tp375
a(S'w'
I2
tp376
a(S'p1_vo'
I5
tp377
a(S'w'
I16
tp378
a(S'w'
I716
tp379
a(S'w'
I16
tp380
a(S'w'
I2
tp381
a(S'p2_vo'
I10
tp382
a(S'w'
I725
tp383
a(S'p1_tl'
I221
tp384
a(S'w'
I1
tp385
a(S'p1_ll'
I0
tp386
a(S'w'
I2
tp387
a(S'p1_vo'
I13
tp388
a(S'w'
I25
tp389
a(S'p2_tl'
I116
tp390
a(S'w'
I1
tp391
a(S'p2_ll'
I0
tp392
a(S'w'
I2
tp393
a(S'p2_vo'
I15
tp394
a(S'w'
I694
tp395
a(S'w'
I16
tp396
a(S'w'
I718
tp397
a(S'w'
I2
tp398
a(S'p1_vo'
I12
tp399
a(S'w'
I15
tp400
a(S'w'
I717
tp401
a(S'w'
I2
tp402
a(S'p1_vo'
I11
tp403
a(S'w'
I14
tp404
a(S'w'
I1
tp405
a(S'p2_vo'
I14
tp406
a(S'w'
I717
tp407
a(S'w'
I2
tp408
a(S'p1_vo'
I10
tp409
a(S'w'
I16
tp410
a(S'w'
I716
tp411
a(S'w'
I1
tp412
a(S'p1_vo'
I9
tp413
a(S'w'
I14
tp414
a(S'w'
I2
tp415
a(S'p2_vo'
I13
tp416
a(S'w'
I717
tp417
a(S'w'
I1
tp418
a(S'p1_vo'
I8
tp419
a(S'w'
I16
tp420
a(S'w'
I731
tp421
a(S'p1_tl'
I166
tp422
a(S'p1_ll'
I0
tp423
a(S'w'
I2
tp424
a(S'p1_vo'
I13
tp425
a(S'w'
I30
tp426
a(S'p2_tl'
I139
tp427
a(S'p2_ll'
I0
tp428
a(S'w'
I2
tp429
a(S'p2_vo'
I15
tp430
a(S'w'
I685
tp431
a(S'w'
I16
tp432
a(S'w'
I718
tp433
a(S'w'
I2
tp434
a(S'p1_vo'
I12
tp435
a(S'w'
I15
tp436
a(S'w'
I717
tp437
a(S'w'
I1
tp438
a(S'p1_vo'
I11
tp439
a(S'w'
I14
tp440
a(S'w'
I2
tp441
a(S'p2_vo'
I14
tp442
a(S'w'
I716
tp443
a(S'w'
I2
tp444
a(S'p1_vo'
I10
tp445
a(S'w'
I16
tp446
a(S'w'
I716
tp447
a(S'w'
I2
tp448
a(S'p1_vo'
I9
tp449
a(S'w'
I14
tp450
a(S'w'
I2
tp451
a(S'p2_vo'
I13
tp452
a(S'w'
I716
tp453
a(S'w'
I2
tp454
a(S'p1_vo'
I8
tp455
a(S'w'
I15
tp456
a(S'w'
I717
tp457
a(S'w'
I2
tp458
a(S'p1_vo'
I7
tp459
a(S'w'
I14
tp460
a(S'w'
I1
tp461
a(S'p2_vo'
I12
tp462
a(S'w'
I716
tp463
a(S'w'
I1
tp464
a(S'p1_vo'
I6
tp465
a(S'w'
I17
tp466
a(S'w'
I715
tp467
a(S'w'
I16
tp468
a(S'w'
I2
tp469
a(S'p2_vo'
I11
tp470
a(S'w'
I716
tp471
a(S'w'
I16
tp472
a(S'w'
I719
tp473
a(S'w'
I16
tp474
a(S'w'
I717
tp475
a(S'w'
I1
tp476
a(S'p1_vo'
I5
tp477
a(S'w'
I17
tp478
a(S'w'
I716
tp479
a(S'w'
I16
tp480
a(S'w'
I2
tp481
a(S'p2_vo'
I10
tp482
a(S'w'
I725
tp483
a(S'p1_tl'
I197
tp484
a(S'w'
I1
tp485
a(S'p1_ll'
I0
tp486
a(S'w'
I2
tp487
a(S'p1_vo'
I13
tp488
a(S'w'
I25
tp489
a(S'p2_tl'
I76
tp490
a(S'p2_ll'
I0
tp491
a(S'w'
I3
tp492
a(S'p2_vo'
I15
tp493
a(S'w'
I694
tp494
a(S'w'
I16
tp495
a(S'w'
I718
tp496
a(S'w'
I2
tp497
a(S'p1_vo'
I12
tp498
a(S'w'
I15
tp499
a(S'w'
I717
tp500
a(S'w'
I2
tp501
a(S'p1_vo'
I11
tp502
a(S'w'
I14
tp503
a(S'w'
I1
tp504
a(S'p2_vo'
I14
tp505
a(S'w'
I717
tp506
a(S'w'
I1
tp507
a(S'p1_vo'
I10
tp508
a(S'w'
I17
tp509
a(S'w'
I715
tp510
a(S'w'
I2
tp511
a(S'p1_vo'
I9
tp512
a(S'w'
I14
tp513
a(S'w'
I2
tp514
a(S'p2_vo'
I13
tp515
a(S'w'
I717
tp516
a(S'w'
I1
tp517
a(S'p1_vo'
I8
tp518
a(S'w'
I16
tp519
a(S'w'
I726
tp520
a(S'p1_tl'
I186
tp521
a(S'p1_ll'
I0
tp522
a(S'w'
I3
tp523
a(S'p1_vo'
I13
tp524
a(S'w'
I25
tp525
a(S'p2_tl'
I187
tp526
a(S'p2_ll'
I0
tp527
a(S'w'
I2
tp528
a(S'p2_vo'
I15
tp529
a(S'w'
I694
tp530
a(S'w'
I16
tp531
a(S'w'
I718
tp532
a(S'w'
I1
tp533
a(S'p1_vo'
I12
tp534
a(S'w'
I16
tp535
a(S'w'
I716
tp536
a(S'w'
I2
tp537
a(S'p1_vo'
I11
tp538
a(S'w'
I14
tp539
a(S'w'
I2
tp540
a(S'p2_vo'
I14
tp541
a(S'w'
I716
tp542
a(S'w'
I2
tp543
a(S'p1_vo'
I10
tp544
a(S'w'
I16
tp545
a(S'w'
I716
tp546
a(S'w'
I2
tp547
a(S'p1_vo'
I9
tp548
a(S'w'
I14
tp549
a(S'w'
I1
tp550
a(S'p2_vo'
I13
tp551
a(S'w'
I717
tp552
a(S'w'
I2
tp553
a(S'p1_vo'
I8
tp554
a(S'w'
I15
tp555
a(S'w'
I717
tp556
a(S'w'
I1
tp557
a(S'p1_vo'
I7
tp558
a(S'w'
I14
tp559
a(S'w'
I2
tp560
a(S'p2_vo'
I12
tp561
a(S'w'
I715
tp562
a(S'w'
I2
tp563
a(S'p1_vo'
I6
tp564
a(S'w'
I16
tp565
a(S'w'
I716
tp566
a(S'w'
I16
tp567
a(S'w'
I2
tp568
a(S'p2_vo'
I11
tp569
a(S'w'
I716
tp570
a(S'w'
I16
tp571
a(S'w'
I719
tp572
a(S'w'
I16
tp573
a(S'w'
I717
tp574
a(S'w'
I1
tp575
a(S'p1_vo'
I5
tp576
a(S'w'
I17
tp577
a(S'w'
I716
tp578
a(S'w'
I16
tp579
a(S'w'
I1
tp580
a(S'p2_vo'
I10
tp581
a(S'w'
I726
tp582
a(S'p1_tl'
I221
tp583
a(S'w'
I1
tp584
a(S'p1_ll'
I0
tp585
a(S'w'
I2
tp586
a(S'p1_vo'
I13
tp587
a(S'w'
I25
tp588
a(S'p2_tl'
I116
tp589
a(S'p2_ll'
I0
tp590
a(S'w'
I2
tp591
a(S'p2_vo'
I15
tp592
a(S'w'
I710
tp593
a(S'w'
I16
tp594
a(S'w'
I718
tp595
a(S'w'
I2
tp596
a(S'p1_vo'
I12
tp597
a(S'w'
I15
tp598
a(S'w'
I717
tp599
a(S'w'
I2
tp600
a(S'p1_vo'
I11
tp601
a(S'w'
I14
tp602
a(S'w'
I1
tp603
a(S'p2_vo'
I14
tp604
a(S'w'
I717
tp605
a(S'w'
I1
tp606
a(S'p1_vo'
I10
tp607
a(S'w'
I17
tp608
a(S'w'
I715
tp609
a(S'w'
I2
tp610
a(S'p1_vo'
I9
tp611
a(S'w'
I14
tp612
a(S'w'
I2
tp613
a(S'p2_vo'
I13
tp614
a(S'w'
I717
tp615
a(S'w'
I1
tp616
a(S'p1_vo'
I8
tp617
a(S'w'
I16
tp618
a(S'w'
I726
tp619
a(S'p1_tl'
I197
tp620
a(S'p1_ll'
I0
tp621
a(S'w'
I2
tp622
a(S'p1_vo'
I13
tp623
a(S'w'
I26
tp624
a(S'p2_tl'
I241
tp625
a(S'p2_ll'
I0
tp626
a(S'w'
I2
tp627
a(S'p2_vo'
I15
tp628
a(S'w'
I694
tp629
a(S'w'
I15
tp630
a(S'w'
I719
tp631
a(S'w'
I1
tp632
a(S'p1_vo'
I12
tp633
a(S'w'
I15
tp634
a(S'w'
I717
tp635
a(S'w'
I2
tp636
a(S'p1_vo'
I11
tp637
a(S'w'
I14
tp638
a(S'w'
I2
tp639
a(S'p2_vo'
I14
tp640
a(S'w'
I716
tp641
a(S'w'
I2
tp642
a(S'p1_vo'
I10
tp643
a(S'w'
I16
tp644
a(S'w'
I716
tp645
a(S'w'
I2
tp646
a(S'p1_vo'
I9
tp647
a(S'w'
I14
tp648
a(S'w'
I1
tp649
a(S'p2_vo'
I13
tp650
a(S'w'
I717
tp651
a(S'w'
I1
tp652
a(S'p1_vo'
I8
tp653
a(S'w'
I16
tp654
a(S'w'
I717
tp655
a(S'w'
I1
tp656
a(S'p1_vo'
I7
tp657
a(S'w'
I14
tp658
a(S'w'
I2
tp659
a(S'p2_vo'
I12
tp660
a(S'w'
I715
tp661
a(S'w'
I2
tp662
a(S'p1_vo'
I6
tp663
a(S'w'
I16
tp664
a(S'w'
I716
tp665
a(S'w'
I16
tp666
a(S'w'
I1
tp667
a(S'p2_vo'
I11
tp668
a(S'w'
I746
tp669
a(S'w'
I16
tp670
a(S'w'
I690
tp671
a(S'w'
I16
tp672
a(S'w'
I745
tp673
a(S'w'
I2
tp674
a(S'p1_vo'
I5
tp675
a(S'w'
I16
tp676
a(S'w'
I687
tp677
a(S'w'
I16
tp678
a(S'w'
I2
tp679
a(S'p2_vo'
I10
tp680
a(S'w'
I741
tp681
a(S'w'
I16
tp682
a(S'w'
I694
tp683
a(S'w'
I16
tp684
a(S'w'
I740
tp685
a(S'w'
I2
tp686
a(S'p1_vo'
I4
tp687
a(S'w'
I16
tp688
a(S'w'
I693
tp689
a(S'w'
I15
tp690
a(S'w'
I2
tp691
a(S'p2_vo'
I11
tp692
a(S'w'
I736
tp693
a(S'w'
I17
tp694
a(S'w'
I698
tp695
a(S'w'
I16
tp696
a(S'w'
I2
tp697
a(S'p2_vo'
I12
tp698
a(S'w'
I735
tp699
a(S'w'
I2
tp700
a(S'p1_vo'
I3
tp701
a(S'w'
I16
tp702
a(S'w'
I696
tp703
a(S'w'
I17
tp704
a(S'w'
I1
tp705
a(S'p2_vo'
I11
tp706
a(S'w'
I735
tp707
a(S'w'
I17
tp708
a(S'w'
I2
tp709
a(S'p2_vo'
I10
tp710
a(S'w'
I696
tp711
a(S'w'
I16
tp712
a(S'w'
I2
tp713
a(S'p2_vo'
I9
tp714
a(S'w'
I735
tp715
a(S'w'
I2
tp716
a(S'p1_vo'
I2
tp717
a(S'w'
I16
tp718
a(S'w'
I696
tp719
a(S'w'
I16
tp720
a(S'w'
I1
tp721
a(S'p2_vo'
I10
tp722
a(S'w'
I717
tp723
a(S'w'
I17
tp724
a(S'w'
I6019
tp725
a(S'w'
I16
tp726
a(S'w'
I1
tp727
a(S'p2_vo'
I11
tp728
a(S'w'
I716
tp729
a(S'w'
I1
tp730
a(S'p1_vo'
I1
tp731
a(S'w'
I17
tp732
a(S'w'
I715
tp733
a(S'w'
I17
tp734
a(S'w'
I2
tp735
a(S'p2_vo'
I10
tp736
a(S'w'
I715
tp737
a(S'w'
I17
tp738
a(S'w'
I2
tp739
a(S'p2_vo'
I9
tp740
a(S'w'
I716
tp741
a(S'w'
I16
tp742
a(S'w'
I2
tp743
a(S'p2_vo'
I8
tp744
a(S'w'
I715
tp745
a(S'w'
I1
tp746
a(S'p1_vo'
I0
tp747
a(S'w'
I17
tp748
a(S'w'
I716
tp749
a(S'w'
I15
tp750
a(S'p2_tl'
I240
tp751
a(S'w'
I2
tp752
a(S'p2_vo'
I9
tp753
a(S'w'
I716
tp754
a(S'w'
I17
tp755
a(S'w'
I718
tp756
a(S'w'
I16
tp757
a(S'w'
I2
tp758
a(S'p2_vo'
I10
tp759
a(S'w'
I715
tp760
a(S'w'
I17
tp761
a(S'w'
I717
tp762
a(S'w'
I16
tp763
a(S'p2_tl'
I241
tp764
a(S'w'
I2
tp765
a(S'p2_vo'
I9
tp766
a(S'w'
I716
tp767
a(S'w'
I16
tp768
a(S'w'
I2
tp769
a(S'p2_vo'
I8
tp770
a(S'w'
I715
tp771
a(S'w'
I16
tp772
a(S'w'
I1
tp773
a(S'p2_vo'
I7
tp774
a(S'w'
I717
tp775
a(S'w'
I18
tp776
a(S'w'
I716
tp777
a(S'w'
I16
tp778
a(S'p2_tl'
I242
tp779
a(S'w'
I2
tp780
a(S'p2_vo'
I8
tp781
a(S'w'
I752
tp782
a(S'p2_vo'
I0
tp783
a(S'w'
I12564
tp784
a(S'ch_no'
I0
tp785
a(S'ch_tr'
I0
tp786
a(S'ch_p2'
I0
tp787
a(S'ch_p1'
I0
tp788
a(S'w'
I726
tp789
a(S'ch_no'
I1
tp790
a(S'ch_tr'
I0
tp791
a(S'ch_p2'
I1
tp792
a(S'ch_p1'
I1
tp793
a(S'w'
I66
tp794
a.