(lp1
(S'clock'
p2
I1789772
tp3
a(S'p1_du'
I2
tp4
a(S'p1_lh'
I1
tp5
a(S'p1_cv'
I1
tp6
a(S'p1_vo'
I12
tp7
a(S'p1_sn'
I1
tp8
a(S'p1_tl'
I166
tp9
a(S'p1_ll'
I0
tp10
a(S'p2_lh'
I1
tp11
a(S'p2_cv'
I1
tp12
a(S'p2_sn'
I1
tp13
a(S'tr_lh'
I1
tp14
a(S'tr_ll'
I16
tp15
a(S'no_lh'
I1
tp16
a(S'no_cv'
I1
tp17
a(S'ch_no'
I1
tp18
a(S'ch_tr'
I1
tp19
a(S'ch_p2'
I1
tp20
a(S'ch_p1'
I1
tp21
a(S'w'
I43
tp22
a(S'p2_tl'
I162
tp23
a(S'p2_ll'
I0
tp24
a(S'p2_th'
I1
tp25
a(S'w'
I2
tp26
a(S'p2_du'
I2
tp27
a(S'p2_vo'
I11
tp28
a(S'w'
I647
tp29
a(S'w'
I14
tp30
a(S'w'
I721
tp31
a(S'w'
I15
tp32
a(S'w'
I718
tp33
a(S'w'
I1
tp34
a(S'p1_vo'
I11
tp35
a(S'w'
I13
tp36
a(S'w'
I2
tp37
a(S'p2_vo'
I10
tp38
a(S'w'
I719
tp39
a(S'w'
I15
tp40
a(S'w'
I718
tp41
a(S'w'
I1
tp42
a(S'p1_vo'
I10
tp43
a(S'w'
I13
tp44
a(S'w'
I2
tp45
a(S'p2_vo'
I9
tp46
a(S'w'
I718
tp47
a(S'w'
I15
tp48
a(S'w'
I718
tp49
a(S'w'
I1
tp50
a(S'p1_vo'
I9
tp51
a(S'w'
I13
tp52
a(S'w'
I2
tp53
a(S'p2_vo'
I8
tp54
a(S'w'
I719
tp55
a(S'w'
I15
tp56
a(S'w'
I718
tp57
a(S'w'
I1
tp58
a(S'p1_vo'
I8
tp59
a(S'w'
I13
tp60
a(S'w'
I2
tp61
a(S'p2_vo'
I7
tp62
a(S'w'
I719
tp63
a(S'w'
I15
tp64
a(S'w'
I717
tp65
a(S'w'
I2
tp66
a(S'p1_vo'
I7
tp67
a(S'w'
I13
tp68
a(S'w'
I1
tp69
a(S'p2_vo'
I6
tp70
a(S'w'
I729
tp71
a(S'p1_ll'
I0
tp72
a(S'w'
I2
tp73
a(S'p1_vo'
I12
tp74
a(S'w'
I24
tp75
a(S'p2_ll'
I0
tp76
a(S'w'
I2
tp77
a(S'p2_vo'
I11
tp78
a(S'w'
I695
tp79
a(S'w'
I14
tp80
a(S'w'
I721
tp81
a(S'w'
I15
tp82
a(S'w'
I718
tp83
a(S'w'
I1
tp84
a(S'p1_vo'
I11
tp85
a(S'w'
I13
tp86
a(S'w'
I2
tp87
a(S'p2_vo'
I10
tp88
a(S'w'
I718
tp89
a(S'w'
I15
tp90
a(S'w'
I718
tp91
a(S'w'
I2
tp92
a(S'p1_vo'
I10
tp93
a(S'w'
I12
tp94
a(S'w'
I2
tp95
a(S'p2_vo'
I9
tp96
a(S'w'
I729
tp97
a(S'p1_tl'
I140
tp98
a(S'p1_ll'
I0
tp99
a(S'w'
I2
tp100
a(S'p1_vo'
I12
tp101
a(S'w'
I24
tp102
a(S'p2_tl'
I76
tp103
a(S'p2_ll'
I0
tp104
a(S'w'
I2
tp105
a(S'p2_vo'
I11
tp106
a(S'w'
I695
tp107
a(S'w'
I14
tp108
a(S'w'
I721
tp109
a(S'w'
I15
tp110
a(S'w'
I717
tp111
a(S'w'
I1
tp112
a(S'p1_vo'
I11
tp113
a(S'w'
I13
tp114
a(S'w'
I2
tp115
a(S'p2_vo'
I10
tp116
a(S'w'
I719
tp117
a(S'w'
I15
tp118
a(S'w'
I718
tp119
a(S'w'
I1
tp120
a(S'p1_vo'
I10
tp121
a(S'w'
I13
tp122
a(S'w'
I2
tp123
a(S'p2_vo'
I9
tp124
a(S'w'
I719
tp125
a(S'w'
I15
tp126
a(S'w'
I717
tp127
a(S'w'
I1
tp128
a(S'p1_vo'
I9
tp129
a(S'w'
I13
tp130
a(S'w'
I2
tp131
a(S'p2_vo'
I8
tp132
a(S'w'
I719
tp133
a(S'w'
I15
tp134
a(S'w'
I718
tp135
a(S'w'
I1
tp136
a(S'p1_vo'
I8
tp137
a(S'w'
I13
tp138
a(S'w'
I2
tp139
a(S'p2_vo'
I7
tp140
a(S'w'
I719
tp141
a(S'w'
I15
tp142
a(S'w'
I718
tp143
a(S'w'
I2
tp144
a(S'p1_vo'
I7
tp145
a(S'w'
I13
tp146
a(S'w'
I1
tp147
a(S'p2_vo'
I6
tp148
a(S'w'
I728
tp149
a(S'p1_tl'
I166
tp150
a(S'p1_ll'
I0
tp151
a(S'w'
I2
tp152
a(S'p1_vo'
I12
tp153
a(S'w'
I24
tp154
a(S'p2_tl'
I162
tp155
a(S'p2_ll'
I0
tp156
a(S'w'
I2
tp157
a(S'p2_vo'
I11
tp158
a(S'w'
I695
tp159
a(S'w'
I14
tp160
a(S'w'
I721
tp161
a(S'w'
I15
tp162
a(S'w'
I718
tp163
a(S'w'
I1
tp164
a(S'p1_vo'
I11
tp165
a(S'w'
I13
tp166
a(S'w'
I2
tp167
a(S'p2_vo'
I10
tp168
a(S'w'
I719
tp169
a(S'w'
I15
tp170
a(S'w'
I717
tp171
a(S'w'
I2
tp172
a(S'p1_vo'
I10
tp173
a(S'w'
I12
tp174
a(S'w'
I2
tp175
a(S'p2_vo'
I9
tp176
a(S'w'
I729
tp177
a(S'p1_tl'
I140
tp178
a(S'p1_ll'
I0
tp179
a(S'w'
I2
tp180
a(S'p1_vo'
I12
tp181
a(S'w'
I24
tp182
a(S'p2_tl'
I76
tp183
a(S'p2_ll'
I0
tp184
a(S'w'
I2
tp185
a(S'p2_vo'
I11
tp186
a(S'w'
I695
tp187
a(S'w'
I14
tp188
a(S'w'
I721
tp189
a(S'w'
I15
tp190
a(S'w'
I718
tp191
a(S'w'
I1
tp192
a(S'p1_vo'
I11
tp193
a(S'w'
I13
tp194
a(S'w'
I2
tp195
a(S'p2_vo'
I10
tp196
a(S'w'
I718
tp197
a(S'w'
I15
tp198
a(S'w'
I718
tp199
a(S'w'
I1
tp200
a(S'p1_vo'
I10
tp201
a(S'w'
I13
tp202
a(S'w'
I2
tp203
a(S'p2_vo'
I9
tp204
a(S'w'
I719
tp205
a(S'w'
I15
tp206
a(S'w'
I718
tp207
a(S'w'
I1
tp208
a(S'p1_vo'
I9
tp209
a(S'w'
I13
tp210
a(S'w'
I2
tp211
a(S'p2_vo'
I8
tp212
a(S'w'
I719
tp213
a(S'w'
I15
tp214
a(S'w'
I717
tp215
a(S'w'
I1
tp216
a(S'p1_vo'
I8
tp217
a(S'w'
I13
tp218
a(S'w'
I2
tp219
a(S'p2_vo'
I7
tp220
a(S'w'
I719
tp221
a(S'w'
I15
tp222
a(S'w'
I718
tp223
a(S'w'
I2
tp224
a(S'p1_vo'
I7
tp225
a(S'w'
I12
tp226
a(S'w'
I2
tp227
a(S'p2_vo'
I6
tp228
a(S'w'
I729
tp229
a(S'p1_tl'
I157
tp230
a(S'p1_ll'
I0
tp231
a(S'w'
I2
tp232
a(S'p1_vo'
I12
tp233
a(S'w'
I24
tp234
a(S'p2_tl'
I116
tp235
a(S'p2_ll'
I0
tp236
a(S'w'
I2
tp237
a(S'p2_vo'
I11
tp238
a(S'w'
I694
tp239
a(S'w'
I14
tp240
a(S'w'
I721
tp241
a(S'w'
I15
tp242
a(S'w'
I718
tp243
a(S'w'
I1
tp244
a(S'p1_vo'
I11
tp245
a(S'w'
I13
tp246
a(S'w'
I2
tp247
a(S'p2_vo'
I10
tp248
a(S'w'
I719
tp249
a(S'w'
I15
tp250
a(S'w'
I718
tp251
a(S'w'
I1
tp252
a(S'p1_vo'
I10
tp253
a(S'w'
I13
tp254
a(S'w'
I2
tp255
a(S'p2_vo'
I9
tp256
a(S'w'
I718
tp257
a(S'w'
I15
tp258
a(S'w'
I718
tp259
a(S'w'
I1
tp260
a(S'p1_vo'
I9
tp261
a(S'w'
I13
tp262
a(S'w'
I2
tp263
a(S'p2_vo'
I8
tp264
a(S'w'
I719
tp265
a(S'w'
I15
tp266
a(S'w'
I718
tp267
a(S'w'
I1
tp268
a(S'p1_vo'
I8
tp269
a(S'w'
I13
tp270
a(S'w'
I2
tp271
a(S'p2_vo'
I7
tp272
a(S'w'
I719
tp273
a(S'w'
I15
tp274
a(S'w'
I717
tp275
a(S'w'
I2
tp276
a(S'p1_vo'
I7
tp277
a(S'w'
I12
tp278
a(S'w'
I2
tp279
a(S'p2_vo'
I6
tp280
a(S'w'
I729
tp281
a(S'p1_ll'
I0
tp282
a(S'w'
I2
tp283
a(S'p1_vo'
I12
tp284
a(S'w'
I24
tp285
a(S'p2_ll'
I0
tp286
a(S'w'
I2
tp287
a(S'p2_vo'
I11
tp288
a(S'w'
I695
tp289
a(S'w'
I14
tp290
a(S'w'
I721
tp291
a(S'w'
I15
tp292
a(S'w'
I718
tp293
a(S'w'
I1
tp294
a(S'p1_vo'
I11
tp295
a(S'w'
I13
tp296
a(S'w'
I2
tp297
a(S'p2_vo'
I10
tp298
a(S'w'
I718
tp299
a(S'w'
I15
tp300
a(S'w'
I718
tp301
a(S'w'
I2
tp302
a(S'p1_vo'
I10
tp303
a(S'w'
I12
tp304
a(S'w'
I2
tp305
a(S'p2_vo'
I9
tp306
a(S'w'
I729
tp307
a(S'p1_tl'
I124
tp308
a(S'p1_ll'
I0
tp309
a(S'w'
I2
tp310
a(S'p1_vo'
I12
tp311
a(S'w'
I24
tp312
a(S'p2_tl'
I57
tp313
a(S'p2_ll'
I0
tp314
a(S'w'
I2
tp315
a(S'p2_vo'
I11
tp316
a(S'w'
I695
tp317
a(S'w'
I14
tp318
a(S'w'
I721
tp319
a(S'w'
I15
tp320
a(S'w'
I717
tp321
a(S'w'
I1
tp322
a(S'p1_vo'
I11
tp323
a(S'w'
I13
tp324
a(S'w'
I2
tp325
a(S'p2_vo'
I10
tp326
a(S'w'
I719
tp327
a(S'w'
I15
tp328
a(S'w'
I718
tp329
a(S'w'
I1
tp330
a(S'p1_vo'
I10
tp331
a(S'w'
I13
tp332
a(S'w'
I2
tp333
a(S'p2_vo'
I9
tp334
a(S'w'
I719
tp335
a(S'w'
I15
tp336
a(S'w'
I717
tp337
a(S'w'
I1
tp338
a(S'p1_vo'
I9
tp339
a(S'w'
I13
tp340
a(S'w'
I2
tp341
a(S'p2_vo'
I8
tp342
a(S'w'
I719
tp343
a(S'w'
I15
tp344
a(S'w'
I718
tp345
a(S'w'
I1
tp346
a(S'p1_vo'
I8
tp347
a(S'w'
I13
tp348
a(S'w'
I2
tp349
a(S'p2_vo'
I7
tp350
a(S'w'
I719
tp351
a(S'w'
I15
tp352
a(S'w'
I718
tp353
a(S'w'
I2
tp354
a(S'p1_vo'
I7
tp355
a(S'w'
I13
tp356
a(S'w'
I1
tp357
a(S'p2_vo'
I6
tp358
a(S'w'
I728
tp359
a(S'p1_tl'
I157
tp360
a(S'p1_ll'
I0
tp361
a(S'w'
I2
tp362
a(S'p1_vo'
I12
tp363
a(S'w'
I24
tp364
a(S'p2_tl'
I116
tp365
a(S'p2_ll'
I0
tp366
a(S'w'
I2
tp367
a(S'p2_vo'
I11
tp368
a(S'w'
I695
tp369
a(S'w'
I14
tp370
a(S'w'
I721
tp371
a(S'w'
I15
tp372
a(S'w'
I718
tp373
a(S'w'
I1
tp374
a(S'p1_vo'
I11
tp375
a(S'w'
I13
tp376
a(S'w'
I2
tp377
a(S'p2_vo'
I10
tp378
a(S'w'
I719
tp379
a(S'w'
I15
tp380
a(S'w'
I717
tp381
a(S'w'
I2
tp382
a(S'p1_vo'
I10
tp383
a(S'w'
I12
tp384
a(S'w'
I2
tp385
a(S'p2_vo'
I9
tp386
a(S'w'
I729
tp387
a(S'p1_tl'
I124
tp388
a(S'p1_ll'
I0
tp389
a(S'w'
I2
tp390
a(S'p1_vo'
I12
tp391
a(S'w'
I24
tp392
a(S'p2_tl'
I57
tp393
a(S'p2_ll'
I0
tp394
a(S'w'
I2
tp395
a(S'p2_vo'
I11
tp396
a(S'w'
I695
tp397
a(S'w'
I14
tp398
a(S'w'
I721
tp399
a(S'w'
I15
tp400
a(S'w'
I718
tp401
a(S'w'
I1
tp402
a(S'p1_vo'
I11
tp403
a(S'w'
I13
tp404
a(S'w'
I2
tp405
a(S'p2_vo'
I10
tp406
a(S'w'
I718
tp407
a(S'w'
I15
tp408
a(S'w'
I718
tp409
a(S'w'
I1
tp410
a(S'p1_vo'
I10
tp411
a(S'w'
I13
tp412
a(S'w'
I2
tp413
a(S'p2_vo'
I9
tp414
a(S'w'
I719
tp415
a(S'w'
I15
tp416
a(S'w'
I718
tp417
a(S'w'
I1
tp418
a(S'p1_vo'
I9
tp419
a(S'w'
I13
tp420
a(S'w'
I2
tp421
a(S'p2_vo'
I8
tp422
a(S'w'
I719
tp423
a(S'w'
I15
tp424
a(S'w'
I717
tp425
a(S'w'
I1
tp426
a(S'p1_vo'
I8
tp427
a(S'w'
I13
tp428
a(S'w'
I2
tp429
a(S'p2_vo'
I7
tp430
a(S'w'
I719
tp431
a(S'w'
I15
tp432
a(S'w'
I718
tp433
a(S'w'
I2
tp434
a(S'p1_vo'
I7
tp435
a(S'w'
I13
tp436
a(S'w'
I1
tp437
a(S'p2_vo'
I6
tp438
a(S'w'
I729
tp439
a(S'p1_tl'
I140
tp440
a(S'p1_ll'
I0
tp441
a(S'w'
I2
tp442
a(S'p1_vo'
I12
tp443
a(S'w'
I24
tp444
a(S'p2_tl'
I76
tp445
a(S'p2_ll'
I0
tp446
a(S'w'
I2
tp447
a(S'p2_vo'
I11
tp448
a(S'w'
I694
tp449
a(S'w'
I14
tp450
a(S'w'
I721
tp451
a(S'w'
I15
tp452
a(S'w'
I718
tp453
a(S'w'
I1
tp454
a(S'p1_vo'
I11
tp455
a(S'w'
I13
tp456
a(S'w'
I2
tp457
a(S'p2_vo'
I10
tp458
a(S'w'
I719
tp459
a(S'w'
I15
tp460
a(S'w'
I718
tp461
a(S'w'
I1
tp462
a(S'p1_vo'
I10
tp463
a(S'w'
I13
tp464
a(S'w'
I2
tp465
a(S'p2_vo'
I9
tp466
a(S'w'
I718
tp467
a(S'w'
I15
tp468
a(S'w'
I718
tp469
a(S'w'
I1
tp470
a(S'p1_vo'
I9
tp471
a(S'w'
I13
tp472
a(S'w'
I2
tp473
a(S'p2_vo'
I8
tp474
a(S'w'
I719
tp475
a(S'w'
I15
tp476
a(S'w'
I718
tp477
a(S'w'
I1
tp478
a(S'p1_vo'
I8
tp479
a(S'w'
I13
tp480
a(S'w'
I2
tp481
a(S'p2_vo'
I7
tp482
a(S'w'
I719
tp483
a(S'w'
I15
tp484
a(S'w'
I717
tp485
a(S'w'
I2
tp486
a(S'p1_vo'
I7
tp487
a(S'w'
I12
tp488
a(S'w'
I2
tp489
a(S'p2_vo'
I6
tp490
a(S'w'
I729
tp491
a(S'p1_ll'
I0
tp492
a(S'w'
I2
tp493
a(S'p1_vo'
I12
tp494
a(S'w'
I24
tp495
a(S'p2_ll'
I0
tp496
a(S'w'
I2
tp497
a(S'p2_vo'
I11
tp498
a(S'w'
I695
tp499
a(S'w'
I14
tp500
a(S'w'
I721
tp501
a(S'w'
I15
tp502
a(S'w'
I718
tp503
a(S'w'
I1
tp504
a(S'p1_vo'
I11
tp505
a(S'w'
I13
tp506
a(S'w'
I2
tp507
a(S'p2_vo'
I10
tp508
a(S'w'
I718
tp509
a(S'w'
I15
tp510
a(S'w'
I718
tp511
a(S'w'
I2
tp512
a(S'p1_vo'
I10
tp513
a(S'w'
I12
tp514
a(S'w'
I2
tp515
a(S'p2_vo'
I9
tp516
a(S'w'
I729
tp517
a(S'p1_tl'
I105
tp518
a(S'p1_ll'
I0
tp519
a(S'w'
I2
tp520
a(S'p1_vo'
I12
tp521
a(S'w'
I24
tp522
a(S'p2_tl'
I249
tp523
a(S'p2_ll'
I0
tp524
a(S'p2_th'
I0
tp525
a(S'w'
I2
tp526
a(S'p2_vo'
I11
tp527
a(S'w'
I695
tp528
a(S'w'
I14
tp529
a(S'w'
I721
tp530
a(S'w'
I15
tp531
a(S'w'
I717
tp532
a(S'w'
I1
tp533
a(S'p1_vo'
I11
tp534
a(S'w'
I13
tp535
a(S'w'
I2
tp536
a(S'p2_vo'
I10
tp537
a(S'w'
I719
tp538
a(S'w'
I15
tp539
a(S'w'
I718
tp540
a(S'w'
I1
tp541
a(S'p1_vo'
I10
tp542
a(S'w'
I13
tp543
a(S'w'
I2
tp544
a(S'p2_vo'
I9
tp545
a(S'w'
I719
tp546
a(S'w'
I15
tp547
a(S'w'
I717
tp548
a(S'w'
I1
tp549
a(S'p1_vo'
I9
tp550
a(S'w'
I13
tp551
a(S'w'
I2
tp552
a(S'p2_vo'
I8
tp553
a(S'w'
I719
tp554
a(S'w'
I15
tp555
a(S'w'
I718
tp556
a(S'w'
I1
tp557
a(S'p1_vo'
I8
tp558
a(S'w'
I13
tp559
a(S'w'
I2
tp560
a(S'p2_vo'
I7
tp561
a(S'w'
I719
tp562
a(S'w'
I15
tp563
a(S'w'
I718
tp564
a(S'w'
I2
tp565
a(S'p1_vo'
I7
tp566
a(S'w'
I12
tp567
a(S'w'
I2
tp568
a(S'p2_vo'
I6
tp569
a(S'w'
I728
tp570
a(S'p1_tl'
I111
tp571
a(S'p1_ll'
I0
tp572
a(S'w'
I2
tp573
a(S'p1_vo'
I12
tp574
a(S'w'
I24
tp575
a(S'p2_tl'
I23
tp576
a(S'p2_ll'
I0
tp577
a(S'p2_th'
I1
tp578
a(S'w'
I2
tp579
a(S'p2_vo'
I11
tp580
a(S'w'
I695
tp581
a(S'w'
I14
tp582
a(S'w'
I721
tp583
a(S'w'
I15
tp584
a(S'w'
I718
tp585
a(S'w'
I1
tp586
a(S'p1_vo'
I11
tp587
a(S'w'
I13
tp588
a(S'w'
I1
tp589
a(S'p2_vo'
I10
tp590
a(S'w'
I720
tp591
a(S'w'
I15
tp592
a(S'w'
I717
tp593
a(S'w'
I2
tp594
a(S'p1_vo'
I10
tp595
a(S'w'
I12
tp596
a(S'w'
I2
tp597
a(S'p2_vo'
I9
tp598
a(S'w'
I729
tp599
a(S'p1_tl'
I124
tp600
a(S'p1_ll'
I0
tp601
a(S'w'
I2
tp602
a(S'p1_vo'
I12
tp603
a(S'w'
I24
tp604
a(S'p2_tl'
I57
tp605
a(S'p2_ll'
I0
tp606
a(S'w'
I2
tp607
a(S'p2_vo'
I11
tp608
a(S'w'
I695
tp609
a(S'w'
I14
tp610
a(S'w'
I721
tp611
a(S'w'
I15
tp612
a(S'w'
I718
tp613
a(S'w'
I1
tp614
a(S'p1_vo'
I11
tp615
a(S'w'
I13
tp616
a(S'w'
I1
tp617
a(S'p2_vo'
I10
tp618
a(S'w'
I719
tp619
a(S'w'
I15
tp620
a(S'w'
I718
tp621
a(S'w'
I1
tp622
a(S'p1_vo'
I10
tp623
a(S'w'
I13
tp624
a(S'w'
I1
tp625
a(S'p2_vo'
I9
tp626
a(S'w'
I720
tp627
a(S'w'
I15
tp628
a(S'w'
I718
tp629
a(S'w'
I1
tp630
a(S'p1_vo'
I9
tp631
a(S'w'
I13
tp632
a(S'w'
I1
tp633
a(S'p2_vo'
I8
tp634
a(S'w'
I720
tp635
a(S'w'
I15
tp636
a(S'w'
I717
tp637
a(S'w'
I1
tp638
a(S'p1_vo'
I8
tp639
a(S'w'
I13
tp640
a(S'w'
I1
tp641
a(S'p2_vo'
I7
tp642
a(S'w'
I720
tp643
a(S'w'
I15
tp644
a(S'w'
I718
tp645
a(S'w'
I2
tp646
a(S'p1_vo'
I7
tp647
a(S'w'
I12
tp648
a(S'w'
I2
tp649
a(S'p2_vo'
I6
tp650
a(S'w'
I729
tp651
a(S'p1_tl'
I140
tp652
a(S'p1_ll'
I0
tp653
a(S'w'
I2
tp654
a(S'p1_vo'
I12
tp655
a(S'w'
I24
tp656
a(S'p2_tl'
I162
tp657
a(S'p2_ll'
I0
tp658
a(S'w'
I2
tp659
a(S'p2_vo'
I11
tp660
a(S'w'
I694
tp661
a(S'w'
I14
tp662
a(S'w'
I721
tp663
a(S'w'
I15
tp664
a(S'w'
I718
tp665
a(S'w'
I1
tp666
a(S'p1_vo'
I11
tp667
a(S'w'
I13
tp668
a(S'w'
I1
tp669
a(S'p2_vo'
I10
tp670
a(S'w'
I720
tp671
a(S'w'
I15
tp672
a(S'w'
I718
tp673
a(S'w'
I1
tp674
a(S'p1_vo'
I10
tp675
a(S'w'
I13
tp676
a(S'w'
I2
tp677
a(S'p2_vo'
I9
tp678
a(S'w'
I718
tp679
a(S'w'
I22
tp680
a(S'p2_tl'
I46
tp681
a(S'w'
I1
tp682
a(S'p2_ll'
I0
tp683
a(S'p2_th'
I2
tp684
a(S'w'
I2
tp685
a(S'p2_vo'
I11
tp686
a(S'w'
I708
tp687
a(S'w'
I1
tp688
a(S'p1_vo'
I9
tp689
a(S'w'
I13
tp690
a(S'w'
I721
tp691
a(S'w'
I15
tp692
a(S'w'
I718
tp693
a(S'w'
I1
tp694
a(S'p1_vo'
I8
tp695
a(S'w'
I13
tp696
a(S'w'
I1
tp697
a(S'p2_vo'
I10
tp698
a(S'w'
I720
tp699
a(S'w'
I15
tp700
a(S'w'
I717
tp701
a(S'w'
I1
tp702
a(S'p1_vo'
I7
tp703
a(S'w'
I13
tp704
a(S'w'
I2
tp705
a(S'p2_vo'
I9
tp706
a(S'w'
I719
tp707
a(S'w'
I22
tp708
a(S'p2_tl'
I152
tp709
a(S'w'
I1
tp710
a(S'p2_ll'
I0
tp711
a(S'w'
I2
tp712
a(S'p2_vo'
I11
tp713
a(S'w'
I708
tp714
a(S'w'
I1
tp715
a(S'p1_vo'
I6
tp716
a(S'w'
I13
tp717
a(S'w'
I721
tp718
a(S'w'
I15
tp719
a(S'w'
I718
tp720
a(S'w'
I1
tp721
a(S'p1_vo'
I5
tp722
a(S'w'
I13
tp723
a(S'w'
I1
tp724
a(S'p2_vo'
I10
tp725
a(S'w'
I719
tp726
a(S'w'
I15
tp727
a(S'w'
I718
tp728
a(S'w'
I1
tp729
a(S'p1_vo'
I4
tp730
a(S'w'
I13
tp731
a(S'w'
I2
tp732
a(S'p2_vo'
I9
tp733
a(S'w'
I719
tp734
a(S'w'
I25
tp735
a(S'p2_tl'
I68
tp736
a(S'p2_ll'
I0
tp737
a(S'p2_th'
I3
tp738
a(S'w'
I2
tp739
a(S'p2_vo'
I11
tp740
a(S'w'
I706
tp741
a(S'w'
I1
tp742
a(S'p1_vo'
I3
tp743
a(S'w'
I13
tp744
a(S'w'
I721
tp745
a(S'w'
I15
tp746
a(S'w'
I717
tp747
a(S'w'
I1
tp748
a(S'p1_vo'
I2
tp749
a(S'w'
I13
tp750
a(S'w'
I1
tp751
a(S'p2_vo'
I10
tp752
a(S'w'
I720
tp753
a(S'w'
I15
tp754
a(S'w'
I718
tp755
a(S'w'
I1
tp756
a(S'p1_vo'
I1
tp757
a(S'w'
I13
tp758
a(S'w'
I1
tp759
a(S'p2_vo'
I9
tp760
a(S'w'
I720
tp761
a(S'w'
I15
tp762
a(S'w'
I717
tp763
a(S'w'
I1
tp764
a(S'p1_vo'
I0
tp765
a(S'w'
I13
tp766
a(S'w'
I1
tp767
a(S'p2_vo'
I8
tp768
a(S'w'
I720
tp769
a(S'w'
I15
tp770
a(S'w'
I718
tp771
a(S'w'
I14
tp772
a(S'w'
I1
tp773
a(S'p2_vo'
I7
tp774
a(S'w'
I720
tp775
a(S'w'
I15
tp776
a(S'w'
I718
tp777
a(S'w'
I14
tp778
a(S'w'
I1
tp779
a(S'p2_vo'
I6
tp780
a(S'w'
I719
tp781
a(S'w'
I15
tp782
a(S'w'
I718
tp783
a(S'w'
I13
tp784
a(S'w'
I2
tp785
a(S'p2_vo'
I5
tp786
a(S'w'
I719
tp787
a(S'w'
I14
tp788
a(S'w'
I720
tp789
a(S'w'
I13
tp790
a(S'w'
I2
tp791
a(S'p2_vo'
I4
tp792
a(S'w'
I719
tp793
a(S'w'
I14
tp794
a(S'w'
I719
tp795
a(S'w'
I13
tp796
a(S'w'
I2
tp797
a(S'p2_vo'
I3
tp798
a(S'w'
I719
tp799
a(S'w'
I14
tp800
a(S'w'
I720
tp801
a(S'w'
I13
tp802
a(S'w'
I2
tp803
a(S'p2_vo'
I2
tp804
a(S'w'
I719
tp805
a(S'w'
I14
tp806
a(S'w'
I720
tp807
a(S'w'
I13
tp808
a(S'w'
I2
tp809
a(S'p2_vo'
I1
tp810
a(S'w'
I718
tp811
a(S'w'
I14
tp812
a(S'w'
I720
tp813
a(S'w'
I13
tp814
a(S'w'
I2
tp815
a(S'p2_vo'
I0
tp816
a(S'w'
I719
tp817
a(S'w'
I14
tp818
a(S'w'
I720
tp819
a(S'w'
I13
tp820
a(S'w'
I721
tp821
a(S'w'
I14
tp822
a(S'w'
I719
tp823
a(S'w'
I13
tp824
a(S'w'
I721
tp825
a(S'w'
I14
tp826
a(S'w'
I720
tp827
a(S'w'
I14
tp828
a(S'w'
I33286
tp829
a.