(lp1
(S'clock'
p2
I1789772
tp3
a(S'ch_no'
I1
tp4
a(S'ch_tr'
I1
tp5
a(S'ch_p2'
I1
tp6
a(S'ch_p1'
I1
tp7
a(S'p2_ll'
I0
tp8
a(S'tr_ll'
I0
tp9
a(S'p2_du'
I1
tp10
a(S'p2_lh'
I1
tp11
a(S'p2_cv'
I1
tp12
a(S'p2_vo'
I10
tp13
a(S'tr_lr'
I32
tp14
a(S'p2_du'
I0
tp15
a(S'p2_vo'
I0
tp16
a(S'p2_sp'
I3
tp17
a(S'tr_lr'
I0
tp18
a(S'w'
I9
tp19
a(S'p2_du'
I1
tp20
a(S'p2_vo'
I10
tp21
a(S'w'
I3
tp22
a(S'p2_ll'
I1
tp23
a(S'w'
I1
tp24
a(S'p2_tl'
I226
tp25
a(S'w'
I6
tp26
a(S'tr_lr'
I32
tp27
a(S'tr_lr'
I0
tp28
a(S'w'
I721
tp29
a(S'p2_vo'
I9
tp30
a(S'w'
I734
tp31
a(S'p2_vo'
I8
tp32
a(S'w'
I734
tp33
a(S'p2_vo'
I7
tp34
a(S'w'
I734
tp35
a(S'p2_vo'
I6
tp36
a(S'w'
I733
tp37
a(S'p2_vo'
I5
tp38
a(S'w'
I734
tp39
a(S'p2_vo'
I4
tp40
a(S'w'
I735
tp41
a(S'p2_vo'
I10
tp42
a(S'w'
I4
tp43
a(S'p2_tl'
I201
tp44
a(S'w'
I729
tp45
a(S'p2_vo'
I9
tp46
a(S'w'
I734
tp47
a(S'p2_vo'
I8
tp48
a(S'w'
I733
tp49
a(S'p2_vo'
I7
tp50
a(S'w'
I734
tp51
a(S'p2_vo'
I6
tp52
a(S'w'
I734
tp53
a(S'p2_vo'
I5
tp54
a(S'w'
I734
tp55
a(S'p2_vo'
I4
tp56
a(S'w'
I735
tp57
a(S'p2_vo'
I10
tp58
a(S'w'
I4
tp59
a(S'p2_tl'
I190
tp60
a(S'w'
I8
tp61
a(S'tr_lr'
I32
tp62
a(S'w'
I3
tp63
a(S'tr_ll'
I1
tp64
a(S'tr_th'
I1
tp65
a(S'tr_tl'
I125
tp66
a(S'w'
I717
tp67
a(S'p2_vo'
I9
tp68
a(S'w'
I734
tp69
a(S'p2_vo'
I8
tp70
a(S'w'
I5137
tp71
a(S'p2_vo'
I7
tp72
a(S'w'
I734
tp73
a(S'p2_vo'
I6
tp74
a(S'w'
I733
tp75
a(S'p2_vo'
I5
tp76
a(S'w'
I734
tp77
a(S'p2_vo'
I4
tp78
a(S'w'
I734
tp79
a(S'p2_vo'
I3
tp80
a(S'w'
I735
tp81
a(S'p2_vo'
I10
tp82
a(S'w'
I4
tp83
a(S'w'
I8
tp84
a(S'tr_ll'
I1
tp85
a(S'tr_th'
I0
tp86
a(S'w'
I1
tp87
a(S'tr_tl'
I254
tp88
a(S'w'
I719
tp89
a(S'p2_vo'
I9
tp90
a(S'w'
I734
tp91
a(S'p2_vo'
I8
tp92
a(S'w'
I5137
tp93
a(S'p2_vo'
I7
tp94
a(S'w'
I734
tp95
a(S'p2_vo'
I6
tp96
a(S'w'
I733
tp97
a(S'p2_vo'
I5
tp98
a(S'w'
I734
tp99
a(S'p2_vo'
I4
tp100
a(S'w'
I734
tp101
a(S'p2_vo'
I3
tp102
a(S'w'
I734
tp103
a(S'p2_vo'
I10
tp104
a(S'w'
I4
tp105
a(S'w'
I9
tp106
a(S'tr_ll'
I1
tp107
a(S'tr_th'
I1
tp108
a(S'tr_tl'
I125
tp109
a(S'w'
I721
tp110
a(S'p2_vo'
I9
tp111
a(S'w'
I733
tp112
a(S'p2_vo'
I8
tp113
a(S'w'
I734
tp114
a(S'p2_vo'
I7
tp115
a(S'w'
I734
tp116
a(S'p2_vo'
I6
tp117
a(S'w'
I734
tp118
a(S'p2_vo'
I5
tp119
a(S'w'
I734
tp120
a(S'p2_vo'
I4
tp121
a(S'w'
I733
tp122
a(S'p2_vo'
I10
tp123
a(S'w'
I4
tp124
a(S'p2_tl'
I201
tp125
a(S'w'
I730
tp126
a(S'p2_vo'
I9
tp127
a(S'w'
I734
tp128
a(S'p2_vo'
I8
tp129
a(S'w'
I734
tp130
a(S'p2_vo'
I7
tp131
a(S'w'
I733
tp132
a(S'p2_vo'
I6
tp133
a(S'w'
I734
tp134
a(S'p2_vo'
I5
tp135
a(S'w'
I734
tp136
a(S'p2_vo'
I4
tp137
a(S'w'
I734
tp138
a(S'p2_vo'
I10
tp139
a(S'w'
I4
tp140
a(S'p2_tl'
I190
tp141
a(S'w'
I9
tp142
a(S'tr_ll'
I1
tp143
a(S'tr_th'
I0
tp144
a(S'tr_tl'
I254
tp145
a(S'w'
I721
tp146
a(S'p2_vo'
I9
tp147
a(S'w'
I733
tp148
a(S'p2_vo'
I8
tp149
a(S'w'
I734
tp150
a(S'p2_vo'
I7
tp151
a(S'w'
I734
tp152
a(S'p2_vo'
I6
tp153
a(S'w'
I734
tp154
a(S'p2_vo'
I5
tp155
a(S'w'
I734
tp156
a(S'p2_vo'
I4
tp157
a(S'w'
I733
tp158
a(S'p2_vo'
I10
tp159
a(S'w'
I4
tp160
a(S'p2_tl'
I169
tp161
a(S'w'
I730
tp162
a(S'p2_vo'
I9
tp163
a(S'w'
I734
tp164
a(S'p2_vo'
I8
tp165
a(S'w'
I734
tp166
a(S'p2_vo'
I7
tp167
a(S'w'
I734
tp168
a(S'p2_vo'
I6
tp169
a(S'w'
I733
tp170
a(S'p2_vo'
I5
tp171
a(S'w'
I734
tp172
a(S'p2_vo'
I4
tp173
a(S'w'
I735
tp174
a(S'p2_vo'
I10
tp175
a(S'w'
I4
tp176
a(S'p2_tl'
I151
tp177
a(S'w'
I8
tp178
a(S'tr_ll'
I1
tp179
a(S'tr_th'
I1
tp180
a(S'w'
I1
tp181
a(S'tr_tl'
I125
tp182
a(S'w'
I720
tp183
a(S'p2_vo'
I9
tp184
a(S'w'
I734
tp185
a(S'p2_vo'
I8
tp186
a(S'w'
I5136
tp187
a(S'p2_vo'
I7
tp188
a(S'w'
I734
tp189
a(S'p2_vo'
I6
tp190
a(S'w'
I734
tp191
a(S'p2_vo'
I5
tp192
a(S'w'
I733
tp193
a(S'p2_vo'
I4
tp194
a(S'w'
I734
tp195
a(S'p2_vo'
I3
tp196
a(S'w'
I735
tp197
a(S'p2_vo'
I10
tp198
a(S'w'
I4
tp199
a(S'w'
I8
tp200
a(S'tr_ll'
I1
tp201
a(S'tr_th'
I0
tp202
a(S'w'
I1
tp203
a(S'tr_tl'
I254
tp204
a(S'w'
I720
tp205
a(S'p2_vo'
I9
tp206
a(S'w'
I734
tp207
a(S'p2_vo'
I8
tp208
a(S'w'
I5136
tp209
a(S'p2_vo'
I7
tp210
a(S'w'
I734
tp211
a(S'p2_vo'
I6
tp212
a(S'w'
I734
tp213
a(S'p2_vo'
I5
tp214
a(S'w'
I734
tp215
a(S'p2_vo'
I4
tp216
a(S'w'
I733
tp217
a(S'p2_vo'
I3
tp218
a(S'w'
I734
tp219
a(S'p2_vo'
I10
tp220
a(S'w'
I4
tp221
a(S'w'
I9
tp222
a(S'tr_ll'
I1
tp223
a(S'tr_th'
I1
tp224
a(S'tr_tl'
I125
tp225
a(S'w'
I721
tp226
a(S'p2_vo'
I9
tp227
a(S'w'
I734
tp228
a(S'p2_vo'
I8
tp229
a(S'w'
I733
tp230
a(S'p2_vo'
I7
tp231
a(S'w'
I734
tp232
a(S'p2_vo'
I6
tp233
a(S'w'
I734
tp234
a(S'p2_vo'
I5
tp235
a(S'w'
I734
tp236
a(S'p2_vo'
I4
tp237
a(S'w'
I734
tp238
a(S'p2_vo'
I10
tp239
a(S'w'
I4
tp240
a(S'p2_tl'
I160
tp241
a(S'w'
I729
tp242
a(S'p2_vo'
I9
tp243
a(S'w'
I734
tp244
a(S'p2_vo'
I8
tp245
a(S'w'
I734
tp246
a(S'p2_vo'
I7
tp247
a(S'w'
I734
tp248
a(S'p2_vo'
I6
tp249
a(S'w'
I734
tp250
a(S'p2_vo'
I5
tp251
a(S'w'
I733
tp252
a(S'p2_vo'
I4
tp253
a(S'w'
I734
tp254
a(S'p2_vo'
I10
tp255
a(S'w'
I4
tp256
a(S'p2_tl'
I151
tp257
a(S'w'
I9
tp258
a(S'tr_ll'
I1
tp259
a(S'tr_th'
I0
tp260
a(S'tr_tl'
I254
tp261
a(S'w'
I721
tp262
a(S'p2_vo'
I9
tp263
a(S'w'
I734
tp264
a(S'p2_vo'
I8
tp265
a(S'w'
I734
tp266
a(S'p2_vo'
I7
tp267
a(S'w'
I733
tp268
a(S'p2_vo'
I6
tp269
a(S'w'
I734
tp270
a(S'p2_vo'
I5
tp271
a(S'w'
I734
tp272
a(S'p2_vo'
I4
tp273
a(S'w'
I734
tp274
a(S'p2_vo'
I10
tp275
a(S'w'
I4
tp276
a(S'p2_tl'
I142
tp277
a(S'w'
I730
tp278
a(S'p2_vo'
I9
tp279
a(S'w'
I733
tp280
a(S'p2_vo'
I8
tp281
a(S'w'
I734
tp282
a(S'p2_vo'
I7
tp283
a(S'w'
I734
tp284
a(S'p2_vo'
I6
tp285
a(S'w'
I734
tp286
a(S'p2_vo'
I5
tp287
a(S'w'
I733
tp288
a(S'p2_vo'
I4
tp289
a(S'w'
I735
tp290
a(S'p2_vo'
I10
tp291
a(S'w'
I4
tp292
a(S'p2_tl'
I127
tp293
a(S'w'
I8
tp294
a(S'tr_ll'
I1
tp295
a(S'tr_th'
I1
tp296
a(S'w'
I1
tp297
a(S'tr_tl'
I125
tp298
a(S'w'
I720
tp299
a(S'p2_vo'
I9
tp300
a(S'w'
I734
tp301
a(S'p2_vo'
I8
tp302
a(S'w'
I5136
tp303
a(S'p2_vo'
I7
tp304
a(S'w'
I734
tp305
a(S'p2_vo'
I6
tp306
a(S'w'
I734
tp307
a(S'p2_vo'
I5
tp308
a(S'w'
I734
tp309
a(S'p2_vo'
I4
tp310
a(S'w'
I734
tp311
a(S'p2_vo'
I3
tp312
a(S'w'
I734
tp313
a(S'p2_vo'
I10
tp314
a(S'w'
I4
tp315
a(S'w'
I8
tp316
a(S'tr_ll'
I1
tp317
a(S'tr_tl'
I46
tp318
a(S'w'
I721
tp319
a(S'p2_vo'
I9
tp320
a(S'w'
I734
tp321
a(S'p2_vo'
I8
tp322
a(S'w'
I3676
tp323
a(S'tr_ll'
I1
tp324
a(S'w'
I1
tp325
a(S'tr_tl'
I64
tp326
a(S'w'
I1459
tp327
a(S'p2_vo'
I7
tp328
a(S'w'
I734
tp329
a(S'p2_vo'
I6
tp330
a(S'w'
I734
tp331
a(S'p2_vo'
I5
tp332
a(S'w'
I734
tp333
a(S'p2_vo'
I4
tp334
a(S'w'
I734
tp335
a(S'p2_vo'
I3
tp336
a(S'w'
I733
tp337
a(S'p2_vo'
I10
tp338
a(S'w'
I4
tp339
a(S'w'
I9
tp340
a(S'tr_ll'
I1
tp341
a(S'tr_tl'
I46
tp342
a(S'w'
I721
tp343
a(S'p2_vo'
I9
tp344
a(S'w'
I734
tp345
a(S'p2_vo'
I8
tp346
a(S'w'
I734
tp347
a(S'p2_vo'
I7
tp348
a(S'w'
I734
tp349
a(S'p2_vo'
I6
tp350
a(S'w'
I733
tp351
a(S'p2_vo'
I5
tp352
a(S'w'
I734
tp353
a(S'p2_vo'
I4
tp354
a(S'w'
I734
tp355
a(S'p2_vo'
I10
tp356
a(S'w'
I4
tp357
a(S'p2_tl'
I134
tp358
a(S'w'
I730
tp359
a(S'p2_vo'
I9
tp360
a(S'w'
I734
tp361
a(S'p2_vo'
I8
tp362
a(S'w'
I733
tp363
a(S'p2_vo'
I7
tp364
a(S'w'
I734
tp365
a(S'p2_vo'
I6
tp366
a(S'w'
I734
tp367
a(S'p2_vo'
I5
tp368
a(S'w'
I734
tp369
a(S'p2_vo'
I4
tp370
a(S'w'
I734
tp371
a(S'p2_vo'
I10
tp372
a(S'w'
I4
tp373
a(S'p2_tl'
I127
tp374
a(S'w'
I9
tp375
a(S'tr_ll'
I1
tp376
a(S'tr_th'
I0
tp377
a(S'tr_tl'
I254
tp378
a(S'w'
I720
tp379
a(S'p2_vo'
I9
tp380
a(S'w'
I734
tp381
a(S'p2_vo'
I8
tp382
a(S'w'
I734
tp383
a(S'p2_vo'
I7
tp384
a(S'w'
I734
tp385
a(S'p2_vo'
I6
tp386
a(S'w'
I733
tp387
a(S'p2_vo'
I5
tp388
a(S'w'
I734
tp389
a(S'p2_vo'
I4
tp390
a(S'w'
I735
tp391
a(S'p2_vo'
I10
tp392
a(S'w'
I4
tp393
a(S'p2_tl'
I95
tp394
a(S'w'
I729
tp395
a(S'p2_vo'
I9
tp396
a(S'w'
I734
tp397
a(S'p2_vo'
I8
tp398
a(S'w'
I733
tp399
a(S'p2_vo'
I7
tp400
a(S'w'
I734
tp401
a(S'p2_vo'
I6
tp402
a(S'w'
I734
tp403
a(S'p2_vo'
I5
tp404
a(S'w'
I734
tp405
a(S'p2_vo'
I4
tp406
a(S'w'
I736
tp407
a(S'p2_vo'
I10
tp408
a(S'w'
I4
tp409
a(S'p2_tl'
I127
tp410
a(S'w'
I9
tp411
a(S'tr_ll'
I1
tp412
a(S'tr_th'
I1
tp413
a(S'tr_tl'
I125
tp414
a(S'w'
I718
tp415
a(S'p2_vo'
I9
tp416
a(S'w'
I734
tp417
a(S'p2_vo'
I8
tp418
a(S'w'
I8814
tp419
a(S'tr_ll'
I1
tp420
a(S'tr_th'
I0
tp421
a(S'tr_tl'
I254
tp422
a(S'w'
I10274
tp423
a(S'tr_ll'
I1
tp424
a(S'tr_th'
I1
tp425
a(S'w'
I1
tp426
a(S'tr_tl'
I125
tp427
a(S'w'
I6594
tp428
a(S'p2_vo'
I7
tp429
a(S'w'
I734
tp430
a(S'p2_vo'
I6
tp431
a(S'w'
I733
tp432
a(S'p2_vo'
I5
tp433
a(S'w'
I734
tp434
a(S'p2_vo'
I4
tp435
a(S'w'
I734
tp436
a(S'p2_vo'
I3
tp437
a(S'w'
I737
tp438
a(S'p2_vo'
I10
tp439
a(S'w'
I4
tp440
a(S'p2_tl'
I151
tp441
a(S'w'
I8
tp442
a(S'tr_ll'
I1
tp443
a(S'tr_th'
I0
tp444
a(S'w'
I1
tp445
a(S'tr_tl'
I254
tp446
a(S'w'
I718
tp447
a(S'p2_vo'
I9
tp448
a(S'w'
I733
tp449
a(S'p2_vo'
I8
tp450
a(S'w'
I5137
tp451
a(S'p2_vo'
I7
tp452
a(S'w'
I734
tp453
a(S'p2_vo'
I6
tp454
a(S'w'
I734
tp455
a(S'p2_vo'
I5
tp456
a(S'w'
I733
tp457
a(S'p2_vo'
I4
tp458
a(S'w'
I734
tp459
a(S'p2_vo'
I3
tp460
a(S'w'
I735
tp461
a(S'p2_vo'
I10
tp462
a(S'w'
I4
tp463
a(S'p2_tl'
I142
tp464
a(S'w'
I8
tp465
a(S'tr_ll'
I1
tp466
a(S'tr_th'
I1
tp467
a(S'w'
I1
tp468
a(S'tr_tl'
I147
tp469
a(S'w'
I720
tp470
a(S'p2_vo'
I9
tp471
a(S'w'
I734
tp472
a(S'p2_vo'
I8
tp473
a(S'w'
I5136
tp474
a(S'p2_vo'
I7
tp475
a(S'w'
I734
tp476
a(S'p2_vo'
I6
tp477
a(S'w'
I734
tp478
a(S'p2_vo'
I5
tp479
a(S'w'
I733
tp480
a(S'p2_vo'
I4
tp481
a(S'w'
I734
tp482
a(S'p2_vo'
I3
tp483
a(S'w'
I734
tp484
a(S'p2_vo'
I10
tp485
a(S'w'
I4
tp486
a(S'w'
I9
tp487
a(S'tr_ll'
I1
tp488
a(S'tr_th'
I0
tp489
a(S'tr_tl'
I254
tp490
a(S'w'
I721
tp491
a(S'p2_vo'
I9
tp492
a(S'w'
I734
tp493
a(S'p2_vo'
I8
tp494
a(S'w'
I733
tp495
a(S'p2_vo'
I7
tp496
a(S'w'
I734
tp497
a(S'p2_vo'
I6
tp498
a(S'w'
I734
tp499
a(S'p2_vo'
I5
tp500
a(S'w'
I734
tp501
a(S'p2_vo'
I4
tp502
a(S'w'
I734
tp503
a(S'p2_vo'
I10
tp504
a(S'w'
I4
tp505
a(S'p2_tl'
I151
tp506
a(S'w'
I729
tp507
a(S'p2_vo'
I9
tp508
a(S'w'
I734
tp509
a(S'p2_vo'
I8
tp510
a(S'w'
I734
tp511
a(S'p2_vo'
I7
tp512
a(S'w'
I734
tp513
a(S'p2_vo'
I6
tp514
a(S'w'
I734
tp515
a(S'p2_vo'
I5
tp516
a(S'w'
I733
tp517
a(S'p2_vo'
I4
tp518
a(S'w'
I735
tp519
a(S'p2_vo'
I10
tp520
a(S'w'
I4
tp521
a(S'p2_tl'
I169
tp522
a(S'w'
I8
tp523
a(S'tr_ll'
I1
tp524
a(S'tr_th'
I1
tp525
a(S'w'
I1
tp526
a(S'tr_tl'
I147
tp527
a(S'w'
I720
tp528
a(S'p2_vo'
I9
tp529
a(S'w'
I734
tp530
a(S'p2_vo'
I8
tp531
a(S'w'
I5136
tp532
a(S'p2_vo'
I7
tp533
a(S'w'
I734
tp534
a(S'p2_vo'
I6
tp535
a(S'w'
I734
tp536
a(S'p2_vo'
I5
tp537
a(S'w'
I734
tp538
a(S'p2_vo'
I4
tp539
a(S'w'
I733
tp540
a(S'p2_vo'
I3
tp541
a(S'w'
I735
tp542
a(S'p2_vo'
I10
tp543
a(S'w'
I4
tp544
a(S'p2_tl'
I142
tp545
a(S'w'
I8
tp546
a(S'tr_ll'
I1
tp547
a(S'tr_th'
I0
tp548
a(S'w'
I1
tp549
a(S'tr_tl'
I254
tp550
a(S'w'
I720
tp551
a(S'p2_vo'
I9
tp552
a(S'w'
I734
tp553
a(S'p2_vo'
I8
tp554
a(S'w'
I5136
tp555
a(S'p2_vo'
I7
tp556
a(S'w'
I734
tp557
a(S'p2_vo'
I6
tp558
a(S'w'
I734
tp559
a(S'p2_vo'
I5
tp560
a(S'w'
I734
tp561
a(S'p2_vo'
I4
tp562
a(S'w'
I733
tp563
a(S'p2_vo'
I3
tp564
a(S'w'
I735
tp565
a(S'p2_vo'
I10
tp566
a(S'w'
I4
tp567
a(S'p2_tl'
I151
tp568
a(S'w'
I8
tp569
a(S'tr_ll'
I1
tp570
a(S'tr_th'
I1
tp571
a(S'w'
I1
tp572
a(S'tr_tl'
I125
tp573
a(S'w'
I720
tp574
a(S'p2_vo'
I9
tp575
a(S'w'
I734
tp576
a(S'p2_vo'
I8
tp577
a(S'w'
I5136
tp578
a(S'p2_vo'
I7
tp579
a(S'w'
I734
tp580
a(S'p2_vo'
I6
tp581
a(S'w'
I734
tp582
a(S'p2_vo'
I5
tp583
a(S'w'
I734
tp584
a(S'p2_vo'
I4
tp585
a(S'w'
I734
tp586
a(S'p2_vo'
I3
tp587
a(S'w'
I733
tp588
a(S'p2_vo'
I10
tp589
a(S'w'
I4
tp590
a(S'w'
I9
tp591
a(S'tr_ll'
I1
tp592
a(S'tr_th'
I0
tp593
a(S'tr_tl'
I254
tp594
a(S'w'
I721
tp595
a(S'p2_vo'
I9
tp596
a(S'w'
I734
tp597
a(S'p2_vo'
I8
tp598
a(S'w'
I734
tp599
a(S'p2_vo'
I7
tp600
a(S'w'
I734
tp601
a(S'p2_vo'
I6
tp602
a(S'w'
I733
tp603
a(S'p2_vo'
I5
tp604
a(S'w'
I734
tp605
a(S'p2_vo'
I4
tp606
a(S'w'
I734
tp607
a(S'p2_vo'
I10
tp608
a(S'w'
I4
tp609
a(S'p2_tl'
I169
tp610
a(S'w'
I730
tp611
a(S'p2_vo'
I9
tp612
a(S'w'
I733
tp613
a(S'p2_vo'
I8
tp614
a(S'w'
I734
tp615
a(S'p2_vo'
I7
tp616
a(S'w'
I734
tp617
a(S'p2_vo'
I6
tp618
a(S'w'
I734
tp619
a(S'p2_vo'
I5
tp620
a(S'w'
I734
tp621
a(S'p2_vo'
I4
tp622
a(S'w'
I734
tp623
a(S'p2_vo'
I10
tp624
a(S'w'
I4
tp625
a(S'p2_tl'
I190
tp626
a(S'w'
I8
tp627
a(S'tr_ll'
I1
tp628
a(S'tr_th'
I1
tp629
a(S'w'
I1
tp630
a(S'tr_tl'
I125
tp631
a(S'w'
I720
tp632
a(S'p2_vo'
I9
tp633
a(S'w'
I734
tp634
a(S'p2_vo'
I8
tp635
a(S'w'
I5137
tp636
a(S'p2_vo'
I7
tp637
a(S'w'
I733
tp638
a(S'p2_vo'
I6
tp639
a(S'w'
I734
tp640
a(S'p2_vo'
I5
tp641
a(S'w'
I734
tp642
a(S'p2_vo'
I4
tp643
a(S'w'
I734
tp644
a(S'p2_vo'
I3
tp645
a(S'w'
I735
tp646
a(S'p2_vo'
I10
tp647
a(S'w'
I4
tp648
a(S'p2_tl'
I151
tp649
a(S'w'
I8
tp650
a(S'tr_ll'
I1
tp651
a(S'tr_th'
I0
tp652
a(S'w'
I1
tp653
a(S'tr_tl'
I254
tp654
a(S'w'
I719
tp655
a(S'p2_vo'
I9
tp656
a(S'w'
I734
tp657
a(S'p2_vo'
I8
tp658
a(S'w'
I5137
tp659
a(S'p2_vo'
I7
tp660
a(S'w'
I733
tp661
a(S'p2_vo'
I6
tp662
a(S'w'
I734
tp663
a(S'p2_vo'
I5
tp664
a(S'w'
I734
tp665
a(S'p2_vo'
I4
tp666
a(S'w'
I734
tp667
a(S'p2_vo'
I3
tp668
a(S'w'
I735
tp669
a(S'p2_vo'
I10
tp670
a(S'w'
I4
tp671
a(S'p2_tl'
I169
tp672
a(S'w'
I8
tp673
a(S'tr_ll'
I1
tp674
a(S'tr_th'
I1
tp675
a(S'tr_tl'
I197
tp676
a(S'w'
I720
tp677
a(S'p2_vo'
I9
tp678
a(S'w'
I734
tp679
a(S'p2_vo'
I8
tp680
a(S'w'
I5137
tp681
a(S'p2_vo'
I7
tp682
a(S'w'
I734
tp683
a(S'p2_vo'
I6
tp684
a(S'w'
I733
tp685
a(S'p2_vo'
I5
tp686
a(S'w'
I734
tp687
a(S'p2_vo'
I4
tp688
a(S'w'
I734
tp689
a(S'p2_vo'
I3
tp690
a(S'w'
I735
tp691
a(S'p2_vo'
I10
tp692
a(S'w'
I3
tp693
a(S'p2_tl'
I226
tp694
a(S'w'
I10
tp695
a(S'tr_ll'
I1
tp696
a(S'tr_tl'
I13
tp697
a(S'w'
I719
tp698
a(S'p2_vo'
I9
tp699
a(S'w'
I734
tp700
a(S'p2_vo'
I8
tp701
a(S'w'
I5137
tp702
a(S'p2_vo'
I7
tp703
a(S'w'
I734
tp704
a(S'p2_vo'
I6
tp705
a(S'w'
I733
tp706
a(S'p2_vo'
I5
tp707
a(S'w'
I734
tp708
a(S'p2_vo'
I4
tp709
a(S'w'
I734
tp710
a(S'p2_vo'
I3
tp711
a(S'w'
I735
tp712
a(S'p2_vo'
I10
tp713
a(S'w'
I4
tp714
a(S'p2_tl'
I201
tp715
a(S'w'
I9
tp716
a(S'tr_ll'
I1
tp717
a(S'tr_tl'
I83
tp718
a(S'w'
I720
tp719
a(S'p2_vo'
I9
tp720
a(S'w'
I733
tp721
a(S'p2_vo'
I8
tp722
a(S'w'
I5137
tp723
a(S'p2_vo'
I7
tp724
a(S'w'
I734
tp725
a(S'p2_vo'
I6
tp726
a(S'w'
I733
tp727
a(S'p2_vo'
I5
tp728
a(S'w'
I734
tp729
a(S'p2_vo'
I4
tp730
a(S'w'
I734
tp731
a(S'p2_vo'
I3
tp732
a(S'w'
I735
tp733
a(S'p2_vo'
I10
tp734
a(S'w'
I4
tp735
a(S'p2_tl'
I190
tp736
a(S'w'
I8
tp737
a(S'tr_ll'
I1
tp738
a(S'w'
I1
tp739
a(S'tr_tl'
I13
tp740
a(S'w'
I720
tp741
a(S'p2_vo'
I9
tp742
a(S'w'
I733
tp743
a(S'p2_vo'
I8
tp744
a(S'w'
I5137
tp745
a(S'p2_vo'
I7
tp746
a(S'w'
I734
tp747
a(S'p2_vo'
I6
tp748
a(S'w'
I734
tp749
a(S'p2_vo'
I5
tp750
a(S'w'
I733
tp751
a(S'p2_vo'
I4
tp752
a(S'w'
I734
tp753
a(S'p2_vo'
I3
tp754
a(S'w'
I735
tp755
a(S'p2_vo'
I10
tp756
a(S'w'
I4
tp757
a(S'p2_tl'
I169
tp758
a(S'w'
I9
tp759
a(S'tr_ll'
I1
tp760
a(S'tr_th'
I0
tp761
a(S'tr_tl'
I254
tp762
a(S'w'
I720
tp763
a(S'p2_vo'
I9
tp764
a(S'w'
I734
tp765
a(S'p2_vo'
I8
tp766
a(S'w'
I8812
tp767
a(S'tr_ll'
I1
tp768
a(S'w'
I5137
tp769
a(S'tr_ll'
I1
tp770
a(S'tr_th'
I1
tp771
a(S'tr_tl'
I29
tp772
a(S'w'
I1460
tp773
a(S'p2_vo'
I7
tp774
a(S'w'
I734
tp775
a(S'p2_vo'
I6
tp776
a(S'w'
I734
tp777
a(S'p2_vo'
I5
tp778
a(S'w'
I734
tp779
a(S'p2_vo'
I4
tp780
a(S'w'
I733
tp781
a(S'p2_vo'
I3
tp782
a(S'w'
I735
tp783
a(S'p2_vo'
I10
tp784
a(S'p2_du'
I0
tp785
a(S'p2_vo'
I0
tp786
a(S'w'
I9
tp787
a(S'tr_ll'
I1
tp788
a(S'w'
I1
tp789
a(S'tr_tl'
I46
tp790
a(S'w'
I10265
tp791
a(S'p2_du'
I1
tp792
a(S'p2_vo'
I10
tp793
a(S'w'
I4
tp794
a(S'p2_tl'
I226
tp795
a(S'w'
I8
tp796
a(S'tr_ll'
I1
tp797
a(S'w'
I1
tp798
a(S'tr_tl'
I83
tp799
a(S'w'
I718
tp800
a(S'p2_vo'
I9
tp801
a(S'w'
I734
tp802
a(S'p2_vo'
I8
tp803
a(S'w'
I734
tp804
a(S'p2_vo'
I7
tp805
a(S'w'
I733
tp806
a(S'p2_vo'
I6
tp807
a(S'w'
I734
tp808
a(S'p2_vo'
I5
tp809
a(S'w'
I734
tp810
a(S'p2_vo'
I4
tp811
a(S'w'
I735
tp812
a(S'p2_vo'
I10
tp813
a(S'w'
I4
tp814
a(S'p2_tl'
I201
tp815
a(S'w'
I729
tp816
a(S'p2_vo'
I9
tp817
a(S'w'
I733
tp818
a(S'p2_vo'
I8
tp819
a(S'w'
I734
tp820
a(S'p2_vo'
I7
tp821
a(S'w'
I734
tp822
a(S'p2_vo'
I6
tp823
a(S'w'
I734
tp824
a(S'p2_vo'
I5
tp825
a(S'w'
I733
tp826
a(S'p2_vo'
I4
tp827
a(S'w'
I735
tp828
a(S'p2_vo'
I10
tp829
a(S'w'
I4
tp830
a(S'p2_tl'
I190
tp831
a(S'w'
I11
tp832
a(S'tr_ll'
I1
tp833
a(S'tr_tl'
I125
tp834
a(S'w'
I718
tp835
a(S'p2_vo'
I9
tp836
a(S'w'
I734
tp837
a(S'p2_vo'
I8
tp838
a(S'w'
I5136
tp839
a(S'p2_vo'
I7
tp840
a(S'w'
I734
tp841
a(S'p2_vo'
I6
tp842
a(S'w'
I734
tp843
a(S'p2_vo'
I5
tp844
a(S'w'
I734
tp845
a(S'p2_vo'
I4
tp846
a(S'w'
I734
tp847
a(S'p2_vo'
I3
tp848
a(S'w'
I734
tp849
a(S'p2_vo'
I10
tp850
a(S'w'
I4
tp851
a(S'w'
I8
tp852
a(S'tr_ll'
I1
tp853
a(S'tr_th'
I0
tp854
a(S'w'
I1
tp855
a(S'tr_tl'
I254
tp856
a(S'w'
I720
tp857
a(S'p2_vo'
I9
tp858
a(S'w'
I734
tp859
a(S'p2_vo'
I8
tp860
a(S'w'
I5136
tp861
a(S'p2_vo'
I7
tp862
a(S'w'
I734
tp863
a(S'p2_vo'
I6
tp864
a(S'w'
I734
tp865
a(S'p2_vo'
I5
tp866
a(S'w'
I734
tp867
a(S'p2_vo'
I4
tp868
a(S'w'
I734
tp869
a(S'p2_vo'
I3
tp870
a(S'w'
I733
tp871
a(S'p2_vo'
I10
tp872
a(S'w'
I4
tp873
a(S'w'
I9
tp874
a(S'tr_ll'
I1
tp875
a(S'tr_th'
I1
tp876
a(S'tr_tl'
I125
tp877
a(S'w'
I721
tp878
a(S'p2_vo'
I9
tp879
a(S'w'
I734
tp880
a(S'p2_vo'
I8
tp881
a(S'w'
I734
tp882
a(S'p2_vo'
I7
tp883
a(S'w'
I734
tp884
a(S'p2_vo'
I6
tp885
a(S'w'
I733
tp886
a(S'p2_vo'
I5
tp887
a(S'w'
I734
tp888
a(S'p2_vo'
I4
tp889
a(S'w'
I734
tp890
a(S'p2_vo'
I10
tp891
a(S'w'
I4
tp892
a(S'p2_tl'
I201
tp893
a(S'w'
I730
tp894
a(S'p2_vo'
I9
tp895
a(S'w'
I734
tp896
a(S'p2_vo'
I8
tp897
a(S'w'
I733
tp898
a(S'p2_vo'
I7
tp899
a(S'w'
I734
tp900
a(S'p2_vo'
I6
tp901
a(S'w'
I734
tp902
a(S'p2_vo'
I5
tp903
a(S'w'
I734
tp904
a(S'p2_vo'
I4
tp905
a(S'w'
I733
tp906
a(S'p2_vo'
I10
tp907
a(S'w'
I4
tp908
a(S'p2_tl'
I190
tp909
a(S'w'
I9
tp910
a(S'tr_ll'
I1
tp911
a(S'tr_th'
I0
tp912
a(S'tr_tl'
I254
tp913
a(S'w'
I721
tp914
a(S'p2_vo'
I9
tp915
a(S'w'
I734
tp916
a(S'p2_vo'
I8
tp917
a(S'w'
I734
tp918
a(S'p2_vo'
I7
tp919
a(S'w'
I734
tp920
a(S'p2_vo'
I6
tp921
a(S'w'
I733
tp922
a(S'p2_vo'
I5
tp923
a(S'w'
I734
tp924
a(S'p2_vo'
I4
tp925
a(S'w'
I734
tp926
a(S'p2_vo'
I10
tp927
a(S'w'
I4
tp928
a(S'p2_tl'
I169
tp929
a(S'w'
I730
tp930
a(S'p2_vo'
I9
tp931
a(S'w'
I734
tp932
a(S'p2_vo'
I8
tp933
a(S'w'
I733
tp934
a(S'p2_vo'
I7
tp935
a(S'w'
I734
tp936
a(S'p2_vo'
I6
tp937
a(S'w'
I734
tp938
a(S'p2_vo'
I5
tp939
a(S'w'
I734
tp940
a(S'p2_vo'
I4
tp941
a(S'w'
I735
tp942
a(S'p2_vo'
I10
tp943
a(S'w'
I4
tp944
a(S'p2_tl'
I151
tp945
a(S'w'
I8
tp946
a(S'tr_ll'
I1
tp947
a(S'tr_th'
I1
tp948
a(S'w'
I1
tp949
a(S'tr_tl'
I125
tp950
a(S'w'
I719
tp951
a(S'p2_vo'
I9
tp952
a(S'w'
I734
tp953
a(S'p2_vo'
I8
tp954
a(S'w'
I5137
tp955
a(S'p2_vo'
I7
tp956
a(S'w'
I733
tp957
a(S'p2_vo'
I6
tp958
a(S'w'
I734
tp959
a(S'p2_vo'
I5
tp960
a(S'w'
I734
tp961
a(S'p2_vo'
I4
tp962
a(S'w'
I734
tp963
a(S'p2_vo'
I3
tp964
a(S'w'
I735
tp965
a(S'p2_vo'
I10
tp966
a(S'w'
I4
tp967
a(S'w'
I8
tp968
a(S'tr_ll'
I1
tp969
a(S'tr_th'
I0
tp970
a(S'w'
I1
tp971
a(S'tr_tl'
I254
tp972
a(S'w'
I719
tp973
a(S'p2_vo'
I9
tp974
a(S'w'
I734
tp975
a(S'p2_vo'
I8
tp976
a(S'w'
I5137
tp977
a(S'p2_vo'
I7
tp978
a(S'w'
I734
tp979
a(S'p2_vo'
I6
tp980
a(S'w'
I733
tp981
a(S'p2_vo'
I5
tp982
a(S'w'
I734
tp983
a(S'p2_vo'
I4
tp984
a(S'w'
I734
tp985
a(S'p2_vo'
I3
tp986
a(S'w'
I734
tp987
a(S'p2_vo'
I10
tp988
a(S'w'
I4
tp989
a(S'w'
I9
tp990
a(S'tr_ll'
I1
tp991
a(S'tr_th'
I1
tp992
a(S'tr_tl'
I125
tp993
a(S'w'
I721
tp994
a(S'p2_vo'
I9
tp995
a(S'w'
I733
tp996
a(S'p2_vo'
I8
tp997
a(S'w'
I734
tp998
a(S'p2_vo'
I7
tp999
a(S'w'
I734
tp1000
a(S'p2_vo'
I6
tp1001
a(S'w'
I734
tp1002
a(S'p2_vo'
I5
tp1003
a(S'w'
I733
tp1004
a(S'p2_vo'
I4
tp1005
a(S'w'
I734
tp1006
a(S'p2_vo'
I10
tp1007
a(S'w'
I4
tp1008
a(S'p2_tl'
I160
tp1009
a(S'w'
I730
tp1010
a(S'p2_vo'
I9
tp1011
a(S'w'
I734
tp1012
a(S'p2_vo'
I8
tp1013
a(S'w'
I734
tp1014
a(S'p2_vo'
I7
tp1015
a(S'w'
I733
tp1016
a(S'p2_vo'
I6
tp1017
a(S'w'
I734
tp1018
a(S'p2_vo'
I5
tp1019
a(S'w'
I734
tp1020
a(S'p2_vo'
I4
tp1021
a(S'w'
I734
tp1022
a(S'p2_vo'
I10
tp1023
a(S'w'
I4
tp1024
a(S'p2_tl'
I151
tp1025
a(S'w'
I9
tp1026
a(S'tr_ll'
I1
tp1027
a(S'tr_th'
I0
tp1028
a(S'tr_tl'
I254
tp1029
a(S'w'
I721
tp1030
a(S'p2_vo'
I9
tp1031
a(S'w'
I733
tp1032
a(S'p2_vo'
I8
tp1033
a(S'w'
I734
tp1034
a(S'p2_vo'
I7
tp1035
a(S'w'
I734
tp1036
a(S'p2_vo'
I6
tp1037
a(S'w'
I734
tp1038
a(S'p2_vo'
I5
tp1039
a(S'w'
I734
tp1040
a(S'p2_vo'
I4
tp1041
a(S'w'
I733
tp1042
a(S'p2_vo'
I10
tp1043
a(S'w'
I4
tp1044
a(S'p2_tl'
I142
tp1045
a(S'w'
I730
tp1046
a(S'p2_vo'
I9
tp1047
a(S'w'
I734
tp1048
a(S'p2_vo'
I8
tp1049
a(S'w'
I734
tp1050
a(S'p2_vo'
I7
tp1051
a(S'w'
I734
tp1052
a(S'p2_vo'
I6
tp1053
a(S'w'
I733
tp1054
a(S'p2_vo'
I5
tp1055
a(S'w'
I734
tp1056
a(S'p2_vo'
I4
tp1057
a(S'w'
I735
tp1058
a(S'p2_vo'
I10
tp1059
a(S'w'
I4
tp1060
a(S'p2_tl'
I127
tp1061
a(S'w'
I8
tp1062
a(S'tr_ll'
I1
tp1063
a(S'tr_th'
I1
tp1064
a(S'w'
I1
tp1065
a(S'tr_tl'
I125
tp1066
a(S'w'
I720
tp1067
a(S'p2_vo'
I9
tp1068
a(S'w'
I733
tp1069
a(S'p2_vo'
I8
tp1070
a(S'w'
I5137
tp1071
a(S'p2_vo'
I7
tp1072
a(S'w'
I734
tp1073
a(S'p2_vo'
I6
tp1074
a(S'w'
I734
tp1075
a(S'p2_vo'
I5
tp1076
a(S'w'
I733
tp1077
a(S'p2_vo'
I4
tp1078
a(S'w'
I734
tp1079
a(S'p2_vo'
I3
tp1080
a(S'w'
I735
tp1081
a(S'p2_vo'
I10
tp1082
a(S'w'
I4
tp1083
a(S'w'
I8
tp1084
a(S'tr_ll'
I1
tp1085
a(S'tr_tl'
I46
tp1086
a(S'w'
I721
tp1087
a(S'p2_vo'
I9
tp1088
a(S'w'
I734
tp1089
a(S'p2_vo'
I8
tp1090
a(S'w'
I3676
tp1091
a(S'tr_ll'
I1
tp1092
a(S'w'
I1
tp1093
a(S'tr_tl'
I64
tp1094
a(S'w'
I1459
tp1095
a(S'p2_vo'
I7
tp1096
a(S'w'
I734
tp1097
a(S'p2_vo'
I6
tp1098
a(S'w'
I734
tp1099
a(S'p2_vo'
I5
tp1100
a(S'w'
I733
tp1101
a(S'p2_vo'
I4
tp1102
a(S'w'
I734
tp1103
a(S'p2_vo'
I3
tp1104
a(S'w'
I734
tp1105
a(S'p2_vo'
I10
tp1106
a(S'w'
I4
tp1107
a(S'w'
I9
tp1108
a(S'tr_ll'
I1
tp1109
a(S'tr_tl'
I46
tp1110
a(S'w'
I721
tp1111
a(S'p2_vo'
I9
tp1112
a(S'w'
I734
tp1113
a(S'p2_vo'
I8
tp1114
a(S'w'
I733
tp1115
a(S'p2_vo'
I7
tp1116
a(S'w'
I734
tp1117
a(S'p2_vo'
I6
tp1118
a(S'w'
I734
tp1119
a(S'p2_vo'
I5
tp1120
a(S'w'
I734
tp1121
a(S'p2_vo'
I4
tp1122
a(S'w'
I734
tp1123
a(S'p2_vo'
I10
tp1124
a(S'w'
I4
tp1125
a(S'p2_tl'
I134
tp1126
a(S'w'
I729
tp1127
a(S'p2_vo'
I9
tp1128
a(S'w'
I734
tp1129
a(S'p2_vo'
I8
tp1130
a(S'w'
I734
tp1131
a(S'p2_vo'
I7
tp1132
a(S'w'
I734
tp1133
a(S'p2_vo'
I6
tp1134
a(S'w'
I734
tp1135
a(S'p2_vo'
I5
tp1136
a(S'w'
I733
tp1137
a(S'p2_vo'
I4
tp1138
a(S'w'
I734
tp1139
a(S'p2_vo'
I10
tp1140
a(S'w'
I4
tp1141
a(S'p2_tl'
I127
tp1142
a(S'w'
I9
tp1143
a(S'tr_ll'
I1
tp1144
a(S'tr_th'
I0
tp1145
a(S'tr_tl'
I254
tp1146
a(S'w'
I721
tp1147
a(S'p2_vo'
I9
tp1148
a(S'w'
I734
tp1149
a(S'p2_vo'
I8
tp1150
a(S'w'
I734
tp1151
a(S'p2_vo'
I7
tp1152
a(S'w'
I733
tp1153
a(S'p2_vo'
I6
tp1154
a(S'w'
I734
tp1155
a(S'p2_vo'
I5
tp1156
a(S'w'
I734
tp1157
a(S'p2_vo'
I4
tp1158
a(S'w'
I735
tp1159
a(S'p2_vo'
I10
tp1160
a(S'w'
I4
tp1161
a(S'p2_tl'
I95
tp1162
a(S'w'
I728
tp1163
a(S'p2_vo'
I9
tp1164
a(S'w'
I734
tp1165
a(S'p2_vo'
I8
tp1166
a(S'w'
I734
tp1167
a(S'p2_vo'
I7
tp1168
a(S'w'
I734
tp1169
a(S'p2_vo'
I6
tp1170
a(S'w'
I734
tp1171
a(S'p2_vo'
I5
tp1172
a(S'w'
I733
tp1173
a(S'p2_vo'
I4
tp1174
a(S'w'
I736
tp1175
a(S'p2_vo'
I10
tp1176
a(S'w'
I4
tp1177
a(S'p2_tl'
I127
tp1178
a(S'w'
I9
tp1179
a(S'tr_ll'
I1
tp1180
a(S'tr_th'
I1
tp1181
a(S'tr_tl'
I125
tp1182
a(S'w'
I719
tp1183
a(S'p2_vo'
I9
tp1184
a(S'w'
I734
tp1185
a(S'p2_vo'
I8
tp1186
a(S'w'
I8813
tp1187
a(S'tr_ll'
I1
tp1188
a(S'tr_th'
I0
tp1189
a(S'tr_tl'
I254
tp1190
a(S'w'
I10274
tp1191
a(S'tr_ll'
I1
tp1192
a(S'tr_th'
I1
tp1193
a(S'w'
I1
tp1194
a(S'tr_tl'
I125
tp1195
a(S'w'
I6595
tp1196
a(S'p2_vo'
I7
tp1197
a(S'w'
I733
tp1198
a(S'p2_vo'
I6
tp1199
a(S'w'
I734
tp1200
a(S'p2_vo'
I5
tp1201
a(S'w'
I734
tp1202
a(S'p2_vo'
I4
tp1203
a(S'w'
I734
tp1204
a(S'p2_vo'
I3
tp1205
a(S'w'
I736
tp1206
a(S'p2_vo'
I10
tp1207
a(S'w'
I4
tp1208
a(S'p2_tl'
I190
tp1209
a(S'w'
I8
tp1210
a(S'tr_ll'
I1
tp1211
a(S'w'
I719
tp1212
a(S'p2_vo'
I9
tp1213
a(S'w'
I734
tp1214
a(S'p2_vo'
I8
tp1215
a(S'w'
I5137
tp1216
a(S'p2_vo'
I7
tp1217
a(S'w'
I733
tp1218
a(S'p2_vo'
I6
tp1219
a(S'w'
I734
tp1220
a(S'p2_vo'
I5
tp1221
a(S'w'
I734
tp1222
a(S'p2_vo'
I4
tp1223
a(S'w'
I734
tp1224
a(S'p2_vo'
I3
tp1225
a(S'w'
I735
tp1226
a(S'p2_vo'
I10
tp1227
a(S'w'
I4
tp1228
a(S'p2_tl'
I113
tp1229
a(S'w'
I8
tp1230
a(S'tr_ll'
I1
tp1231
a(S'w'
I1
tp1232
a(S'tr_tl'
I29
tp1233
a(S'w'
I719
tp1234
a(S'p2_vo'
I9
tp1235
a(S'w'
I734
tp1236
a(S'p2_vo'
I8
tp1237
a(S'w'
I5137
tp1238
a(S'p2_vo'
I7
tp1239
a(S'w'
I733
tp1240
a(S'p2_vo'
I6
tp1241
a(S'w'
I734
tp1242
a(S'p2_vo'
I5
tp1243
a(S'w'
I734
tp1244
a(S'p2_vo'
I4
tp1245
a(S'w'
I734
tp1246
a(S'p2_vo'
I3
tp1247
a(S'w'
I735
tp1248
a(S'p2_vo'
I10
tp1249
a(S'w'
I4
tp1250
a(S'p2_tl'
I127
tp1251
a(S'w'
I8
tp1252
a(S'tr_ll'
I1
tp1253
a(S'w'
I1
tp1254
a(S'tr_tl'
I46
tp1255
a(S'w'
I719
tp1256
a(S'p2_vo'
I9
tp1257
a(S'w'
I734
tp1258
a(S'p2_vo'
I8
tp1259
a(S'w'
I5137
tp1260
a(S'p2_vo'
I7
tp1261
a(S'w'
I734
tp1262
a(S'p2_vo'
I6
tp1263
a(S'w'
I733
tp1264
a(S'p2_vo'
I5
tp1265
a(S'w'
I734
tp1266
a(S'p2_vo'
I4
tp1267
a(S'w'
I734
tp1268
a(S'p2_vo'
I3
tp1269
a(S'w'
I735
tp1270
a(S'p2_vo'
I10
tp1271
a(S'w'
I4
tp1272
a(S'p2_tl'
I142
tp1273
a(S'w'
I8
tp1274
a(S'tr_ll'
I1
tp1275
a(S'w'
I1
tp1276
a(S'tr_tl'
I83
tp1277
a(S'w'
I720
tp1278
a(S'p2_vo'
I9
tp1279
a(S'w'
I733
tp1280
a(S'p2_vo'
I8
tp1281
a(S'w'
I5137
tp1282
a(S'p2_vo'
I7
tp1283
a(S'w'
I734
tp1284
a(S'p2_vo'
I6
tp1285
a(S'w'
I733
tp1286
a(S'p2_vo'
I5
tp1287
a(S'w'
I734
tp1288
a(S'p2_vo'
I4
tp1289
a(S'w'
I734
tp1290
a(S'p2_vo'
I3
tp1291
a(S'w'
I735
tp1292
a(S'p2_vo'
I10
tp1293
a(S'w'
I4
tp1294
a(S'p2_tl'
I151
tp1295
a(S'w'
I8
tp1296
a(S'tr_ll'
I1
tp1297
a(S'w'
I1
tp1298
a(S'tr_tl'
I125
tp1299
a(S'w'
I720
tp1300
a(S'p2_vo'
I9
tp1301
a(S'w'
I733
tp1302
a(S'p2_vo'
I8
tp1303
a(S'w'
I5137
tp1304
a(S'p2_vo'
I7
tp1305
a(S'w'
I734
tp1306
a(S'p2_vo'
I6
tp1307
a(S'w'
I734
tp1308
a(S'p2_vo'
I5
tp1309
a(S'w'
I733
tp1310
a(S'p2_vo'
I4
tp1311
a(S'w'
I734
tp1312
a(S'p2_vo'
I3
tp1313
a(S'w'
I735
tp1314
a(S'p2_vo'
I10
tp1315
a(S'w'
I4
tp1316
a(S'p2_tl'
I169
tp1317
a(S'w'
I8
tp1318
a(S'tr_ll'
I1
tp1319
a(S'w'
I1
tp1320
a(S'tr_tl'
I147
tp1321
a(S'w'
I720
tp1322
a(S'p2_vo'
I9
tp1323
a(S'w'
I733
tp1324
a(S'p2_vo'
I8
tp1325
a(S'w'
I5137
tp1326
a(S'p2_vo'
I7
tp1327
a(S'w'
I734
tp1328
a(S'p2_vo'
I6
tp1329
a(S'w'
I734
tp1330
a(S'p2_vo'
I5
tp1331
a(S'w'
I733
tp1332
a(S'p2_vo'
I4
tp1333
a(S'w'
I734
tp1334
a(S'p2_vo'
I3
tp1335
a(S'w'
I735
tp1336
a(S'p2_vo'
I10
tp1337
a(S'w'
I4
tp1338
a(S'p2_tl'
I190
tp1339
a(S'w'
I8
tp1340
a(S'tr_ll'
I1
tp1341
a(S'w'
I1
tp1342
a(S'tr_tl'
I197
tp1343
a(S'w'
I720
tp1344
a(S'p2_vo'
I9
tp1345
a(S'w'
I734
tp1346
a(S'p2_vo'
I8
tp1347
a(S'w'
I5136
tp1348
a(S'p2_vo'
I7
tp1349
a(S'w'
I734
tp1350
a(S'p2_vo'
I6
tp1351
a(S'w'
I734
tp1352
a(S'p2_vo'
I5
tp1353
a(S'w'
I733
tp1354
a(S'p2_vo'
I4
tp1355
a(S'w'
I734
tp1356
a(S'p2_vo'
I3
tp1357
a(S'w'
I735
tp1358
a(S'p2_vo'
I10
tp1359
a(S'w'
I4
tp1360
a(S'p2_tl'
I201
tp1361
a(S'w'
I8
tp1362
a(S'tr_ll'
I1
tp1363
a(S'tr_tl'
I252
tp1364
a(S'w'
I721
tp1365
a(S'p2_vo'
I9
tp1366
a(S'w'
I734
tp1367
a(S'p2_vo'
I8
tp1368
a(S'w'
I5136
tp1369
a(S'p2_vo'
I7
tp1370
a(S'w'
I734
tp1371
a(S'p2_vo'
I6
tp1372
a(S'w'
I734
tp1373
a(S'p2_vo'
I5
tp1374
a(S'w'
I734
tp1375
a(S'p2_vo'
I4
tp1376
a(S'w'
I733
tp1377
a(S'p2_vo'
I3
tp1378
a(S'w'
I735
tp1379
a(S'p2_vo'
I10
tp1380
a(S'w'
I4
tp1381
a(S'p2_tl'
I190
tp1382
a(S'w'
I8
tp1383
a(S'tr_ll'
I1
tp1384
a(S'tr_th'
I2
tp1385
a(S'tr_tl'
I92
tp1386
a(S'w'
I721
tp1387
a(S'p2_vo'
I9
tp1388
a(S'w'
I734
tp1389
a(S'p2_vo'
I8
tp1390
a(S'w'
I5136
tp1391
a(S'p2_vo'
I7
tp1392
a(S'w'
I734
tp1393
a(S'p2_vo'
I6
tp1394
a(S'w'
I734
tp1395
a(S'p2_vo'
I5
tp1396
a(S'w'
I734
tp1397
a(S'p2_vo'
I4
tp1398
a(S'w'
I733
tp1399
a(S'p2_vo'
I3
tp1400
a(S'w'
I735
tp1401
a(S'p2_vo'
I10
tp1402
a(S'w'
I4
tp1403
a(S'p2_tl'
I169
tp1404
a(S'w'
I9
tp1405
a(S'tr_ll'
I1
tp1406
a(S'tr_tl'
I59
tp1407
a(S'w'
I720
tp1408
a(S'p2_vo'
I9
tp1409
a(S'w'
I734
tp1410
a(S'p2_vo'
I8
tp1411
a(S'w'
I5136
tp1412
a(S'p2_vo'
I7
tp1413
a(S'w'
I734
tp1414
a(S'p2_vo'
I6
tp1415
a(S'w'
I734
tp1416
a(S'p2_vo'
I5
tp1417
a(S'w'
I734
tp1418
a(S'p2_vo'
I4
tp1419
a(S'w'
I734
tp1420
a(S'p2_vo'
I3
tp1421
a(S'w'
I733
tp1422
a(S'p2_vo'
I10
tp1423
a(S'w'
I4
tp1424
a(S'p2_tl'
I151
tp1425
a(S'w'
I730
tp1426
a(S'p2_vo'
I9
tp1427
a(S'w'
I734
tp1428
a(S'p2_vo'
I8
tp1429
a(S'w'
I734
tp1430
a(S'p2_vo'
I7
tp1431
a(S'w'
I733
tp1432
a(S'p2_vo'
I6
tp1433
a(S'w'
I734
tp1434
a(S'p2_vo'
I5
tp1435
a(S'w'
I734
tp1436
a(S'p2_vo'
I4
tp1437
a(S'w'
I734
tp1438
a(S'p2_vo'
I10
tp1439
a(S'w'
I4
tp1440
a(S'p2_tl'
I142
tp1441
a(S'w'
I730
tp1442
a(S'p2_vo'
I9
tp1443
a(S'w'
I733
tp1444
a(S'p2_vo'
I8
tp1445
a(S'w'
I734
tp1446
a(S'p2_vo'
I7
tp1447
a(S'w'
I734
tp1448
a(S'p2_vo'
I6
tp1449
a(S'w'
I734
tp1450
a(S'p2_vo'
I5
tp1451
a(S'w'
I734
tp1452
a(S'p2_vo'
I4
tp1453
a(S'w'
I734
tp1454
a(S'p2_vo'
I10
tp1455
a(S'w'
I4
tp1456
a(S'p2_tl'
I151
tp1457
a(S'w'
I8
tp1458
a(S'tr_ll'
I1
tp1459
a(S'tr_th'
I1
tp1460
a(S'tr_tl'
I252
tp1461
a(S'w'
I721
tp1462
a(S'p2_vo'
I9
tp1463
a(S'w'
I734
tp1464
a(S'p2_vo'
I8
tp1465
a(S'w'
I5137
tp1466
a(S'p2_vo'
I7
tp1467
a(S'w'
I733
tp1468
a(S'p2_vo'
I6
tp1469
a(S'w'
I734
tp1470
a(S'p2_vo'
I5
tp1471
a(S'w'
I734
tp1472
a(S'p2_vo'
I4
tp1473
a(S'w'
I734
tp1474
a(S'p2_vo'
I3
tp1475
a(S'w'
I734
tp1476
a(S'p2_vo'
I10
tp1477
a(S'w'
I4
tp1478
a(S'p2_tl'
I169
tp1479
a(S'w'
I9
tp1480
a(S'tr_ll'
I1
tp1481
a(S'tr_tl'
I29
tp1482
a(S'w'
I720
tp1483
a(S'p2_vo'
I9
tp1484
a(S'w'
I734
tp1485
a(S'p2_vo'
I8
tp1486
a(S'w'
I5137
tp1487
a(S'p2_vo'
I7
tp1488
a(S'w'
I733
tp1489
a(S'p2_vo'
I6
tp1490
a(S'w'
I734
tp1491
a(S'p2_vo'
I5
tp1492
a(S'w'
I734
tp1493
a(S'p2_vo'
I4
tp1494
a(S'w'
I734
tp1495
a(S'p2_vo'
I3
tp1496
a(S'w'
I735
tp1497
a(S'p2_vo'
I10
tp1498
a(S'w'
I4
tp1499
a(S'p2_tl'
I190
tp1500
a(S'w'
I8
tp1501
a(S'tr_ll'
I1
tp1502
a(S'w'
I1
tp1503
a(S'tr_tl'
I46
tp1504
a(S'w'
I719
tp1505
a(S'p2_vo'
I9
tp1506
a(S'w'
I734
tp1507
a(S'p2_vo'
I8
tp1508
a(S'w'
I5137
tp1509
a(S'p2_vo'
I7
tp1510
a(S'w'
I733
tp1511
a(S'p2_vo'
I6
tp1512
a(S'w'
I734
tp1513
a(S'p2_vo'
I5
tp1514
a(S'w'
I734
tp1515
a(S'p2_vo'
I4
tp1516
a(S'w'
I734
tp1517
a(S'p2_vo'
I3
tp1518
a(S'w'
I735
tp1519
a(S'p2_vo'
I10
tp1520
a(S'w'
I3
tp1521
a(S'p2_tl'
I254
tp1522
a(S'w'
I8
tp1523
a(S'tr_lr'
I0
tp1524
a(S'w'
I721
tp1525
a(S'p2_vo'
I9
tp1526
a(S'w'
I734
tp1527
a(S'p2_vo'
I8
tp1528
a(S'w'
I734
tp1529
a(S'p2_vo'
I7
tp1530
a(S'w'
I734
tp1531
a(S'p2_vo'
I6
tp1532
a(S'w'
I734
tp1533
a(S'p2_vo'
I5
tp1534
a(S'w'
I733
tp1535
a(S'p2_vo'
I4
tp1536
a(S'w'
I734
tp1537
a(S'p2_vo'
I10
tp1538
a(S'w'
I4
tp1539
a(S'p2_tl'
I226
tp1540
a(S'w'
I730
tp1541
a(S'p2_vo'
I9
tp1542
a(S'w'
I734
tp1543
a(S'p2_vo'
I8
tp1544
a(S'w'
I734
tp1545
a(S'p2_vo'
I7
tp1546
a(S'w'
I733
tp1547
a(S'p2_vo'
I6
tp1548
a(S'w'
I734
tp1549
a(S'p2_vo'
I5
tp1550
a(S'w'
I734
tp1551
a(S'p2_vo'
I4
tp1552
a(S'w'
I735
tp1553
a(S'p2_vo'
I10
tp1554
a(S'w'
I4
tp1555
a(S'p2_tl'
I201
tp1556
a(S'w'
I729
tp1557
a(S'p2_vo'
I9
tp1558
a(S'w'
I733
tp1559
a(S'p2_vo'
I8
tp1560
a(S'w'
I734
tp1561
a(S'p2_vo'
I7
tp1562
a(S'w'
I734
tp1563
a(S'p2_vo'
I6
tp1564
a(S'w'
I734
tp1565
a(S'p2_vo'
I5
tp1566
a(S'w'
I733
tp1567
a(S'p2_vo'
I4
tp1568
a(S'w'
I734
tp1569
a(S'p2_vo'
I10
tp1570
a(S'w'
I4
tp1571
a(S'p2_tl'
I190
tp1572
a(S'w'
I730
tp1573
a(S'p2_vo'
I9
tp1574
a(S'w'
I734
tp1575
a(S'p2_vo'
I8
tp1576
a(S'w'
I734
tp1577
a(S'p2_vo'
I7
tp1578
a(S'w'
I733
tp1579
a(S'p2_vo'
I6
tp1580
a(S'w'
I734
tp1581
a(S'p2_vo'
I5
tp1582
a(S'w'
I734
tp1583
a(S'p2_vo'
I4
tp1584
a(S'w'
I734
tp1585
a(S'p2_vo'
I10
tp1586
a(S'w'
I4
tp1587
a(S'p2_tl'
I169
tp1588
a(S'w'
I730
tp1589
a(S'p2_vo'
I9
tp1590
a(S'w'
I733
tp1591
a(S'p2_vo'
I8
tp1592
a(S'w'
I734
tp1593
a(S'p2_vo'
I7
tp1594
a(S'w'
I734
tp1595
a(S'p2_vo'
I6
tp1596
a(S'w'
I734
tp1597
a(S'p2_vo'
I5
tp1598
a(S'w'
I734
tp1599
a(S'p2_vo'
I4
tp1600
a(S'w'
I733
tp1601
a(S'p2_vo'
I10
tp1602
a(S'w'
I4
tp1603
a(S'p2_tl'
I151
tp1604
a(S'w'
I730
tp1605
a(S'p2_vo'
I9
tp1606
a(S'w'
I734
tp1607
a(S'p2_vo'
I8
tp1608
a(S'w'
I734
tp1609
a(S'p2_vo'
I7
tp1610
a(S'w'
I734
tp1611
a(S'p2_vo'
I6
tp1612
a(S'w'
I733
tp1613
a(S'p2_vo'
I5
tp1614
a(S'w'
I734
tp1615
a(S'p2_vo'
I4
tp1616
a(S'w'
I735
tp1617
a(S'p2_vo'
I10
tp1618
a(S'w'
I4
tp1619
a(S'p2_tl'
I142
tp1620
a(S'w'
I5
tp1621
a(S'tr_lr'
I32
tp1622
a(S'w'
I3
tp1623
a(S'tr_ll'
I1
tp1624
a(S'w'
I1
tp1625
a(S'tr_tl'
I147
tp1626
a(S'w'
I720
tp1627
a(S'p2_vo'
I9
tp1628
a(S'w'
I733
tp1629
a(S'p2_vo'
I8
tp1630
a(S'w'
I5137
tp1631
a(S'p2_vo'
I7
tp1632
a(S'w'
I734
tp1633
a(S'p2_vo'
I6
tp1634
a(S'w'
I734
tp1635
a(S'p2_vo'
I5
tp1636
a(S'w'
I733
tp1637
a(S'p2_vo'
I4
tp1638
a(S'w'
I734
tp1639
a(S'p2_vo'
I3
tp1640
a(S'w'
I735
tp1641
a(S'p2_vo'
I10
tp1642
a(S'w'
I4
tp1643
a(S'w'
I8
tp1644
a(S'tr_ll'
I1
tp1645
a(S'tr_th'
I0
tp1646
a(S'w'
I1
tp1647
a(S'tr_tl'
I254
tp1648
a(S'w'
I720
tp1649
a(S'p2_vo'
I9
tp1650
a(S'w'
I734
tp1651
a(S'p2_vo'
I8
tp1652
a(S'w'
I5136
tp1653
a(S'p2_vo'
I7
tp1654
a(S'w'
I734
tp1655
a(S'p2_vo'
I6
tp1656
a(S'w'
I734
tp1657
a(S'p2_vo'
I5
tp1658
a(S'w'
I733
tp1659
a(S'p2_vo'
I4
tp1660
a(S'w'
I734
tp1661
a(S'p2_vo'
I3
tp1662
a(S'w'
I735
tp1663
a(S'p2_vo'
I10
tp1664
a(S'w'
I4
tp1665
a(S'w'
I8
tp1666
a(S'tr_ll'
I1
tp1667
a(S'tr_th'
I1
tp1668
a(S'w'
I1
tp1669
a(S'tr_tl'
I125
tp1670
a(S'w'
I720
tp1671
a(S'p2_vo'
I9
tp1672
a(S'w'
I734
tp1673
a(S'p2_vo'
I8
tp1674
a(S'w'
I5136
tp1675
a(S'p2_vo'
I7
tp1676
a(S'w'
I734
tp1677
a(S'p2_vo'
I6
tp1678
a(S'w'
I734
tp1679
a(S'p2_vo'
I5
tp1680
a(S'w'
I734
tp1681
a(S'p2_vo'
I4
tp1682
a(S'w'
I733
tp1683
a(S'p2_vo'
I3
tp1684
a(S'w'
I735
tp1685
a(S'p2_vo'
I10
tp1686
a(S'w'
I4
tp1687
a(S'w'
I8
tp1688
a(S'tr_ll'
I1
tp1689
a(S'tr_th'
I0
tp1690
a(S'w'
I1
tp1691
a(S'tr_tl'
I254
tp1692
a(S'w'
I720
tp1693
a(S'p2_vo'
I9
tp1694
a(S'w'
I734
tp1695
a(S'p2_vo'
I8
tp1696
a(S'w'
I5136
tp1697
a(S'p2_vo'
I7
tp1698
a(S'w'
I734
tp1699
a(S'p2_vo'
I6
tp1700
a(S'w'
I734
tp1701
a(S'p2_vo'
I5
tp1702
a(S'w'
I734
tp1703
a(S'p2_vo'
I4
tp1704
a(S'w'
I733
tp1705
a(S'p2_vo'
I3
tp1706
a(S'w'
I734
tp1707
a(S'p2_vo'
I10
tp1708
a(S'w'
I4
tp1709
a(S'w'
I9
tp1710
a(S'tr_ll'
I1
tp1711
a(S'tr_th'
I1
tp1712
a(S'tr_tl'
I83
tp1713
a(S'w'
I721
tp1714
a(S'p2_vo'
I9
tp1715
a(S'w'
I734
tp1716
a(S'p2_vo'
I8
tp1717
a(S'w'
I734
tp1718
a(S'p2_vo'
I7
tp1719
a(S'w'
I733
tp1720
a(S'p2_vo'
I6
tp1721
a(S'w'
I734
tp1722
a(S'p2_vo'
I5
tp1723
a(S'w'
I734
tp1724
a(S'p2_vo'
I4
tp1725
a(S'w'
I734
tp1726
a(S'p2_vo'
I10
tp1727
a(S'w'
I4
tp1728
a(S'p2_tl'
I151
tp1729
a(S'w'
I730
tp1730
a(S'p2_vo'
I9
tp1731
a(S'w'
I733
tp1732
a(S'p2_vo'
I8
tp1733
a(S'w'
I734
tp1734
a(S'p2_vo'
I7
tp1735
a(S'w'
I734
tp1736
a(S'p2_vo'
I6
tp1737
a(S'w'
I734
tp1738
a(S'p2_vo'
I5
tp1739
a(S'w'
I734
tp1740
a(S'p2_vo'
I4
tp1741
a(S'w'
I734
tp1742
a(S'p2_vo'
I10
tp1743
a(S'w'
I4
tp1744
a(S'p2_tl'
I142
tp1745
a(S'w'
I9
tp1746
a(S'tr_ll'
I1
tp1747
a(S'tr_th'
I0
tp1748
a(S'tr_tl'
I254
tp1749
a(S'w'
I720
tp1750
a(S'p2_vo'
I9
tp1751
a(S'w'
I734
tp1752
a(S'p2_vo'
I8
tp1753
a(S'w'
I8813
tp1754
a(S'tr_ll'
I1
tp1755
a(S'tr_th'
I1
tp1756
a(S'tr_tl'
I64
tp1757
a(S'w'
I6597
tp1758
a(S'p2_vo'
I7
tp1759
a(S'w'
I733
tp1760
a(S'p2_vo'
I6
tp1761
a(S'w'
I734
tp1762
a(S'p2_vo'
I5
tp1763
a(S'w'
I734
tp1764
a(S'p2_vo'
I4
tp1765
a(S'w'
I734
tp1766
a(S'p2_vo'
I3
tp1767
a(S'w'
I734
tp1768
a(S'p2_vo'
I10
tp1769
a(S'w'
I4
tp1770
a(S'p2_tl'
I134
tp1771
a(S'w'
I8
tp1772
a(S'tr_ll'
I1
tp1773
a(S'tr_th'
I0
tp1774
a(S'w'
I1
tp1775
a(S'tr_tl'
I254
tp1776
a(S'w'
I720
tp1777
a(S'p2_vo'
I9
tp1778
a(S'w'
I734
tp1779
a(S'p2_vo'
I8
tp1780
a(S'w'
I5137
tp1781
a(S'p2_vo'
I7
tp1782
a(S'w'
I733
tp1783
a(S'p2_vo'
I6
tp1784
a(S'w'
I734
tp1785
a(S'p2_vo'
I5
tp1786
a(S'w'
I734
tp1787
a(S'p2_vo'
I4
tp1788
a(S'w'
I734
tp1789
a(S'p2_vo'
I3
tp1790
a(S'w'
I735
tp1791
a(S'p2_vo'
I10
tp1792
a(S'w'
I4
tp1793
a(S'p2_tl'
I127
tp1794
a(S'w'
I8
tp1795
a(S'tr_ll'
I1
tp1796
a(S'tr_th'
I1
tp1797
a(S'w'
I1
tp1798
a(S'tr_tl'
I46
tp1799
a(S'w'
I719
tp1800
a(S'p2_vo'
I9
tp1801
a(S'w'
I734
tp1802
a(S'p2_vo'
I8
tp1803
a(S'w'
I5137
tp1804
a(S'p2_vo'
I7
tp1805
a(S'w'
I733
tp1806
a(S'p2_vo'
I6
tp1807
a(S'w'
I734
tp1808
a(S'p2_vo'
I5
tp1809
a(S'w'
I734
tp1810
a(S'p2_vo'
I4
tp1811
a(S'w'
I734
tp1812
a(S'p2_vo'
I3
tp1813
a(S'w'
I735
tp1814
a(S'p2_vo'
I10
tp1815
a(S'w'
I4
tp1816
a(S'w'
I8
tp1817
a(S'tr_ll'
I1
tp1818
a(S'tr_th'
I0
tp1819
a(S'w'
I1
tp1820
a(S'tr_tl'
I254
tp1821
a(S'w'
I719
tp1822
a(S'p2_vo'
I9
tp1823
a(S'w'
I734
tp1824
a(S'p2_vo'
I8
tp1825
a(S'w'
I5137
tp1826
a(S'p2_vo'
I7
tp1827
a(S'w'
I734
tp1828
a(S'p2_vo'
I6
tp1829
a(S'w'
I733
tp1830
a(S'p2_vo'
I5
tp1831
a(S'w'
I734
tp1832
a(S'p2_vo'
I4
tp1833
a(S'w'
I734
tp1834
a(S'p2_vo'
I3
tp1835
a(S'w'
I734
tp1836
a(S'p2_vo'
I10
tp1837
a(S'w'
I4
tp1838
a(S'w'
I9
tp1839
a(S'tr_ll'
I1
tp1840
a(S'tr_th'
I1
tp1841
a(S'tr_tl'
I147
tp1842
a(S'w'
I720
tp1843
a(S'p2_vo'
I9
tp1844
a(S'w'
I734
tp1845
a(S'p2_vo'
I8
tp1846
a(S'w'
I734
tp1847
a(S'p2_vo'
I7
tp1848
a(S'w'
I734
tp1849
a(S'p2_vo'
I6
tp1850
a(S'w'
I734
tp1851
a(S'p2_vo'
I5
tp1852
a(S'w'
I733
tp1853
a(S'p2_vo'
I4
tp1854
a(S'w'
I734
tp1855
a(S'p2_vo'
I10
tp1856
a(S'w'
I4
tp1857
a(S'p2_tl'
I142
tp1858
a(S'w'
I730
tp1859
a(S'p2_vo'
I9
tp1860
a(S'w'
I734
tp1861
a(S'p2_vo'
I8
tp1862
a(S'w'
I734
tp1863
a(S'p2_vo'
I7
tp1864
a(S'w'
I733
tp1865
a(S'p2_vo'
I6
tp1866
a(S'w'
I734
tp1867
a(S'p2_vo'
I5
tp1868
a(S'w'
I734
tp1869
a(S'p2_vo'
I4
tp1870
a(S'w'
I734
tp1871
a(S'p2_vo'
I10
tp1872
a(S'w'
I4
tp1873
a(S'p2_tl'
I151
tp1874
a(S'w'
I9
tp1875
a(S'tr_ll'
I1
tp1876
a(S'tr_th'
I0
tp1877
a(S'tr_tl'
I254
tp1878
a(S'w'
I721
tp1879
a(S'p2_vo'
I9
tp1880
a(S'w'
I733
tp1881
a(S'p2_vo'
I8
tp1882
a(S'w'
I734
tp1883
a(S'p2_vo'
I7
tp1884
a(S'w'
I734
tp1885
a(S'p2_vo'
I6
tp1886
a(S'w'
I734
tp1887
a(S'p2_vo'
I5
tp1888
a(S'w'
I734
tp1889
a(S'p2_vo'
I4
tp1890
a(S'w'
I733
tp1891
a(S'p2_vo'
I10
tp1892
a(S'w'
I4
tp1893
a(S'p2_tl'
I142
tp1894
a(S'w'
I730
tp1895
a(S'p2_vo'
I9
tp1896
a(S'w'
I734
tp1897
a(S'p2_vo'
I8
tp1898
a(S'w'
I734
tp1899
a(S'p2_vo'
I7
tp1900
a(S'w'
I733
tp1901
a(S'p2_vo'
I6
tp1902
a(S'w'
I734
tp1903
a(S'p2_vo'
I5
tp1904
a(S'w'
I734
tp1905
a(S'p2_vo'
I4
tp1906
a(S'w'
I736
tp1907
a(S'p2_vo'
I10
tp1908
a(S'w'
I4
tp1909
a(S'p2_tl'
I127
tp1910
a(S'w'
I9
tp1911
a(S'tr_ll'
I1
tp1912
a(S'tr_th'
I1
tp1913
a(S'tr_tl'
I125
tp1914
a(S'w'
I719
tp1915
a(S'p2_vo'
I9
tp1916
a(S'w'
I733
tp1917
a(S'p2_vo'
I8
tp1918
a(S'w'
I8813
tp1919
a(S'tr_ll'
I1
tp1920
a(S'tr_th'
I0
tp1921
a(S'tr_tl'
I254
tp1922
a(S'w'
I5136
tp1923
a(S'tr_ll'
I1
tp1924
a(S'tr_th'
I1
tp1925
a(S'tr_tl'
I13
tp1926
a(S'w'
I5138
tp1927
a(S'tr_ll'
I1
tp1928
a(S'tr_th'
I0
tp1929
a(S'tr_tl'
I254
tp1930
a(S'w'
I6596
tp1931
a(S'p2_vo'
I7
tp1932
a(S'w'
I734
tp1933
a(S'p2_vo'
I6
tp1934
a(S'w'
I734
tp1935
a(S'p2_vo'
I5
tp1936
a(S'w'
I734
tp1937
a(S'p2_vo'
I4
tp1938
a(S'w'
I733
tp1939
a(S'p2_vo'
I3
tp1940
a(S'w'
I735
tp1941
a(S'p2_vo'
I10
tp1942
a(S'w'
I4
tp1943
a(S'w'
I8
tp1944
a(S'tr_ll'
I1
tp1945
a(S'tr_th'
I1
tp1946
a(S'w'
I1
tp1947
a(S'tr_tl'
I46
tp1948
a(S'w'
I720
tp1949
a(S'p2_vo'
I9
tp1950
a(S'w'
I734
tp1951
a(S'p2_vo'
I8
tp1952
a(S'w'
I5136
tp1953
a(S'p2_vo'
I7
tp1954
a(S'w'
I734
tp1955
a(S'p2_vo'
I6
tp1956
a(S'w'
I734
tp1957
a(S'p2_vo'
I5
tp1958
a(S'w'
I734
tp1959
a(S'p2_vo'
I4
tp1960
a(S'w'
I733
tp1961
a(S'p2_vo'
I3
tp1962
a(S'w'
I735
tp1963
a(S'p2_vo'
I10
tp1964
a(S'w'
I4
tp1965
a(S'p2_tl'
I113
tp1966
a(S'w'
I8
tp1967
a(S'tr_ll'
I1
tp1968
a(S'w'
I1
tp1969
a(S'tr_tl'
I29
tp1970
a(S'w'
I720
tp1971
a(S'p2_vo'
I9
tp1972
a(S'w'
I734
tp1973
a(S'p2_vo'
I8
tp1974
a(S'w'
I5136
tp1975
a(S'p2_vo'
I7
tp1976
a(S'w'
I734
tp1977
a(S'p2_vo'
I6
tp1978
a(S'w'
I734
tp1979
a(S'p2_vo'
I5
tp1980
a(S'w'
I734
tp1981
a(S'p2_vo'
I4
tp1982
a(S'w'
I733
tp1983
a(S'p2_vo'
I3
tp1984
a(S'w'
I735
tp1985
a(S'p2_vo'
I10
tp1986
a(S'w'
I4
tp1987
a(S'w'
I8
tp1988
a(S'tr_ll'
I1
tp1989
a(S'w'
I721
tp1990
a(S'p2_vo'
I9
tp1991
a(S'w'
I734
tp1992
a(S'p2_vo'
I8
tp1993
a(S'w'
I3676
tp1994
a(S'tr_ll'
I1
tp1995
a(S'tr_th'
I0
tp1996
a(S'tr_tl'
I254
tp1997
a(S'w'
I1460
tp1998
a(S'p2_vo'
I7
tp1999
a(S'w'
I734
tp2000
a(S'p2_vo'
I6
tp2001
a(S'w'
I734
tp2002
a(S'p2_vo'
I5
tp2003
a(S'w'
I734
tp2004
a(S'p2_vo'
I4
tp2005
a(S'w'
I734
tp2006
a(S'p2_vo'
I3
tp2007
a(S'w'
I734
tp2008
a(S'p2_vo'
I10
tp2009
a(S'w'
I5
tp2010
a(S'p2_tl'
I95
tp2011
a(S'w'
I9
tp2012
a(S'tr_ll'
I1
tp2013
a(S'tr_tl'
I226
tp2014
a(S'w'
I719
tp2015
a(S'p2_vo'
I9
tp2016
a(S'w'
I734
tp2017
a(S'p2_vo'
I8
tp2018
a(S'w'
I8813
tp2019
a(S'tr_ll'
I1
tp2020
a(S'tr_th'
I1
tp2021
a(S'tr_tl'
I29
tp2022
a(S'w'
I1460
tp2023
a(S'p2_vo'
I7
tp2024
a(S'w'
I734
tp2025
a(S'p2_vo'
I6
tp2026
a(S'w'
I734
tp2027
a(S'p2_vo'
I5
tp2028
a(S'w'
I733
tp2029
a(S'p2_vo'
I4
tp2030
a(S'w'
I734
tp2031
a(S'p2_vo'
I3
tp2032
a(S'w'
I735
tp2033
a(S'p2_vo'
I10
tp2034
a(S'w'
I4
tp2035
a(S'p2_tl'
I113
tp2036
a(S'w'
I729
tp2037
a(S'p2_vo'
I9
tp2038
a(S'w'
I734
tp2039
a(S'p2_vo'
I8
tp2040
a(S'w'
I733
tp2041
a(S'p2_vo'
I7
tp2042
a(S'w'
I734
tp2043
a(S'p2_vo'
I6
tp2044
a(S'w'
I734
tp2045
a(S'p2_vo'
I5
tp2046
a(S'w'
I734
tp2047
a(S'p2_vo'
I4
tp2048
a(S'w'
I735
tp2049
a(S'p2_vo'
I10
tp2050
a(S'w'
I4
tp2051
a(S'p2_tl'
I127
tp2052
a(S'w'
I8
tp2053
a(S'tr_ll'
I1
tp2054
a(S'w'
I1
tp2055
a(S'tr_tl'
I46
tp2056
a(S'w'
I719
tp2057
a(S'p2_vo'
I9
tp2058
a(S'w'
I734
tp2059
a(S'p2_vo'
I8
tp2060
a(S'w'
I5137
tp2061
a(S'p2_vo'
I7
tp2062
a(S'w'
I733
tp2063
a(S'p2_vo'
I6
tp2064
a(S'w'
I734
tp2065
a(S'p2_vo'
I5
tp2066
a(S'w'
I734
tp2067
a(S'p2_vo'
I4
tp2068
a(S'w'
I734
tp2069
a(S'p2_vo'
I3
tp2070
a(S'w'
I735
tp2071
a(S'p2_vo'
I10
tp2072
a(S'w'
I4
tp2073
a(S'w'
I9
tp2074
a(S'tr_ll'
I1
tp2075
a(S'tr_th'
I0
tp2076
a(S'w'
I1
tp2077
a(S'tr_tl'
I190
tp2078
a(S'w'
I718
tp2079
a(S'p2_vo'
I9
tp2080
a(S'w'
I734
tp2081
a(S'p2_vo'
I8
tp2082
a(S'w'
I5137
tp2083
a(S'p2_vo'
I7
tp2084
a(S'w'
I734
tp2085
a(S'p2_vo'
I6
tp2086
a(S'w'
I733
tp2087
a(S'p2_vo'
I5
tp2088
a(S'w'
I734
tp2089
a(S'p2_vo'
I4
tp2090
a(S'w'
I734
tp2091
a(S'p2_vo'
I3
tp2092
a(S'w'
I734
tp2093
a(S'p2_vo'
I10
tp2094
a(S'w'
I4
tp2095
a(S'w'
I9
tp2096
a(S'tr_ll'
I1
tp2097
a(S'tr_th'
I1
tp2098
a(S'w'
I1
tp2099
a(S'tr_tl'
I125
tp2100
a(S'w'
I719
tp2101
a(S'p2_vo'
I9
tp2102
a(S'w'
I734
tp2103
a(S'p2_vo'
I8
tp2104
a(S'w'
I734
tp2105
a(S'p2_vo'
I7
tp2106
a(S'w'
I734
tp2107
a(S'p2_vo'
I6
tp2108
a(S'w'
I734
tp2109
a(S'p2_vo'
I5
tp2110
a(S'w'
I733
tp2111
a(S'p2_vo'
I4
tp2112
a(S'w'
I734
tp2113
a(S'p2_vo'
I10
tp2114
a(S'w'
I4
tp2115
a(S'p2_tl'
I142
tp2116
a(S'w'
I730
tp2117
a(S'p2_vo'
I9
tp2118
a(S'w'
I734
tp2119
a(S'p2_vo'
I8
tp2120
a(S'w'
I734
tp2121
a(S'p2_vo'
I7
tp2122
a(S'w'
I733
tp2123
a(S'p2_vo'
I6
tp2124
a(S'w'
I734
tp2125
a(S'p2_vo'
I5
tp2126
a(S'w'
I734
tp2127
a(S'p2_vo'
I4
tp2128
a(S'w'
I735
tp2129
a(S'p2_vo'
I10
tp2130
a(S'w'
I4
tp2131
a(S'p2_tl'
I151
tp2132
a(S'w'
I8
tp2133
a(S'tr_ll'
I1
tp2134
a(S'w'
I721
tp2135
a(S'p2_vo'
I9
tp2136
a(S'w'
I733
tp2137
a(S'p2_vo'
I8
tp2138
a(S'w'
I3676
tp2139
a(S'tr_ll'
I1
tp2140
a(S'w'
I1
tp2141
a(S'tr_tl'
I103
tp2142
a(S'w'
I1460
tp2143
a(S'p2_vo'
I7
tp2144
a(S'w'
I734
tp2145
a(S'p2_vo'
I6
tp2146
a(S'w'
I733
tp2147
a(S'p2_vo'
I5
tp2148
a(S'w'
I734
tp2149
a(S'p2_vo'
I4
tp2150
a(S'w'
I734
tp2151
a(S'p2_vo'
I3
tp2152
a(S'w'
I735
tp2153
a(S'p2_vo'
I10
tp2154
a(S'w'
I4
tp2155
a(S'p2_tl'
I142
tp2156
a(S'w'
I8
tp2157
a(S'tr_ll'
I1
tp2158
a(S'tr_tl'
I83
tp2159
a(S'w'
I721
tp2160
a(S'p2_vo'
I9
tp2161
a(S'w'
I733
tp2162
a(S'p2_vo'
I8
tp2163
a(S'w'
I3676
tp2164
a(S'tr_ll'
I1
tp2165
a(S'w'
I1
tp2166
a(S'tr_tl'
I64
tp2167
a(S'w'
I1460
tp2168
a(S'p2_vo'
I7
tp2169
a(S'w'
I734
tp2170
a(S'p2_vo'
I6
tp2171
a(S'w'
I734
tp2172
a(S'p2_vo'
I5
tp2173
a(S'w'
I733
tp2174
a(S'p2_vo'
I4
tp2175
a(S'w'
I734
tp2176
a(S'p2_vo'
I3
tp2177
a(S'w'
I735
tp2178
a(S'p2_vo'
I10
tp2179
a(S'w'
I4
tp2180
a(S'w'
I8
tp2181
a(S'tr_ll'
I1
tp2182
a(S'tr_tl'
I46
tp2183
a(S'w'
I721
tp2184
a(S'p2_vo'
I9
tp2185
a(S'w'
I734
tp2186
a(S'p2_vo'
I8
tp2187
a(S'w'
I3675
tp2188
a(S'tr_ll'
I1
tp2189
a(S'w'
I1
tp2190
a(S'tr_tl'
I29
tp2191
a(S'w'
I1460
tp2192
a(S'p2_vo'
I7
tp2193
a(S'w'
I734
tp2194
a(S'p2_vo'
I6
tp2195
a(S'w'
I734
tp2196
a(S'p2_vo'
I5
tp2197
a(S'w'
I733
tp2198
a(S'p2_vo'
I4
tp2199
a(S'w'
I734
tp2200
a(S'p2_vo'
I3
tp2201
a(S'w'
I735
tp2202
a(S'p2_vo'
I10
tp2203
a(S'w'
I4
tp2204
a(S'p2_tl'
I201
tp2205
a(S'w'
I9
tp2206
a(S'tr_ll'
I1
tp2207
a(S'tr_th'
I0
tp2208
a(S'tr_tl'
I254
tp2209
a(S'w'
I720
tp2210
a(S'p2_vo'
I9
tp2211
a(S'w'
I734
tp2212
a(S'p2_vo'
I8
tp2213
a(S'w'
I5136
tp2214
a(S'p2_vo'
I7
tp2215
a(S'w'
I734
tp2216
a(S'p2_vo'
I6
tp2217
a(S'w'
I734
tp2218
a(S'p2_vo'
I5
tp2219
a(S'w'
I734
tp2220
a(S'p2_vo'
I4
tp2221
a(S'w'
I733
tp2222
a(S'p2_vo'
I3
tp2223
a(S'w'
I735
tp2224
a(S'p2_vo'
I10
tp2225
a(S'w'
I4
tp2226
a(S'p2_tl'
I169
tp2227
a(S'w'
I729
tp2228
a(S'p2_vo'
I9
tp2229
a(S'w'
I734
tp2230
a(S'p2_vo'
I8
tp2231
a(S'w'
I5136
tp2232
a(S'p2_vo'
I7
tp2233
a(S'w'
I734
tp2234
a(S'p2_vo'
I6
tp2235
a(S'w'
I734
tp2236
a(S'p2_vo'
I5
tp2237
a(S'w'
I734
tp2238
a(S'p2_vo'
I4
tp2239
a(S'w'
I733
tp2240
a(S'p2_vo'
I3
tp2241
a(S'w'
I735
tp2242
a(S'p2_vo'
I10
tp2243
a(S'w'
I4
tp2244
a(S'p2_tl'
I190
tp2245
a(S'w'
I8
tp2246
a(S'tr_ll'
I1
tp2247
a(S'tr_th'
I1
tp2248
a(S'w'
I1
tp2249
a(S'tr_tl'
I46
tp2250
a(S'w'
I720
tp2251
a(S'p2_vo'
I9
tp2252
a(S'w'
I734
tp2253
a(S'p2_vo'
I8
tp2254
a(S'w'
I5136
tp2255
a(S'p2_vo'
I7
tp2256
a(S'w'
I734
tp2257
a(S'p2_vo'
I6
tp2258
a(S'w'
I734
tp2259
a(S'p2_vo'
I5
tp2260
a(S'w'
I734
tp2261
a(S'p2_vo'
I4
tp2262
a(S'w'
I733
tp2263
a(S'p2_vo'
I3
tp2264
a(S'w'
I735
tp2265
a(S'p2_vo'
I10
tp2266
a(S'w'
I4
tp2267
a(S'w'
I8
tp2268
a(S'tr_ll'
I1
tp2269
a(S'w'
I721
tp2270
a(S'p2_vo'
I9
tp2271
a(S'w'
I734
tp2272
a(S'p2_vo'
I8
tp2273
a(S'w'
I5136
tp2274
a(S'p2_vo'
I7
tp2275
a(S'w'
I734
tp2276
a(S'p2_vo'
I6
tp2277
a(S'w'
I734
tp2278
a(S'p2_vo'
I5
tp2279
a(S'w'
I734
tp2280
a(S'p2_vo'
I4
tp2281
a(S'w'
I734
tp2282
a(S'p2_vo'
I3
tp2283
a(S'w'
I734
tp2284
a(S'p2_vo'
I10
tp2285
a(S'w'
I4
tp2286
a(S'w'
I8
tp2287
a(S'tr_ll'
I1
tp2288
a(S'w'
I721
tp2289
a(S'p2_vo'
I9
tp2290
a(S'w'
I734
tp2291
a(S'p2_vo'
I8
tp2292
a(S'w'
I5136
tp2293
a(S'p2_vo'
I7
tp2294
a(S'w'
I734
tp2295
a(S'p2_vo'
I6
tp2296
a(S'w'
I734
tp2297
a(S'p2_vo'
I5
tp2298
a(S'w'
I734
tp2299
a(S'p2_vo'
I4
tp2300
a(S'w'
I734
tp2301
a(S'p2_vo'
I3
tp2302
a(S'w'
I738
tp2303
a(S'p2_vo'
I10
tp2304
a(S'w'
I4
tp2305
a.