(lp1
(S'clock'
p2
I1789772
tp3
a(S'w'
I1
tp4
a(S'fc_mo'
I1
tp5
a(S'w'
I7
tp6
a(S'p1_sp'
I7
tp7
a(S'p1_sn'
I1
tp8
a(S'p1_ss'
I7
tp9
a(S'p2_sp'
I7
tp10
a(S'p2_sn'
I1
tp11
a(S'p2_ss'
I7
tp12
a(S'w'
I3
tp13
a(S'p2_du'
I2
tp14
a(S'p2_vo'
I2
tp15
a(S'w'
I3
tp16
a(S'p1_cv'
I1
tp17
a(S'w'
I2
tp18
a(S'tr_lr'
I56
tp19
a(S'w'
I1
tp20
a(S'tr_tl'
I171
tp21
a(S'tr_ll'
I1
tp22
a(S'tr_th'
I1
tp23
a(S'w'
I5862
tp24
a(S'p2_tl'
I168
tp25
a(S'w'
I1
tp26
a(S'p2_ll'
I1
tp27
a(S'w'
I1
tp28
a(S'p2_vo'
I4
tp29
a(S'w'
I2
tp30
a(S'p1_tl'
I212
tp31
a(S'p1_ll'
I1
tp32
a(S'w'
I1
tp33
a(S'p1_cv'
I0
tp34
a(S'p1_vo'
I6
tp35
a(S'w'
I5866
tp36
a(S'w'
I1
tp37
a(S'no_np'
I2
tp38
a(S'no_ll'
I1
tp39
a(S'w'
I5869
tp40
a(S'p2_tl'
I212
tp41
a(S'w'
I1
tp42
a(S'p2_ll'
I1
tp43
a(S'w'
I1
tp44
a(S'p2_vo'
I2
tp45
a(S'w'
I2
tp46
a(S'p1_tl'
I28
tp47
a(S'p1_ll'
I1
tp48
a(S'p1_th'
I1
tp49
a(S'w'
I3
tp50
a(S'tr_lr'
I24
tp51
a(S'w'
I1
tp52
a(S'tr_ll'
I1
tp53
a(S'w'
I5862
tp54
a(S'p2_tl'
I168
tp55
a(S'w'
I1
tp56
a(S'p2_ll'
I1
tp57
a(S'w'
I3
tp58
a(S'p1_tl'
I168
tp59
a(S'p1_ll'
I1
tp60
a(S'p1_th'
I0
tp61
a(S'w'
I3
tp62
a(S'tr_lr'
I56
tp63
a(S'w'
I1
tp64
a(S'tr_ll'
I1
tp65
a(S'w'
I5862
tp66
a(S'p2_tl'
I212
tp67
a(S'w'
I1
tp68
a(S'p2_ll'
I1
tp69
a(S'w'
I1
tp70
a(S'p2_vo'
I4
tp71
a(S'w'
I2
tp72
a(S'p1_tl'
I212
tp73
a(S'p1_ll'
I1
tp74
a(S'w'
I5869
tp75
a(S'no_ll'
I1
tp76
a(S'w'
I5868
tp77
a(S'w'
I1
tp78
a(S'p2_ll'
I1
tp79
a(S'w'
I1
tp80
a(S'p2_vo'
I2
tp81
a(S'w'
I2
tp82
a(S'p1_ll'
I1
tp83
a(S'w'
I4
tp84
a(S'tr_ll'
I1
tp85
a(S'w'
I5862
tp86
a(S'p2_tl'
I28
tp87
a(S'w'
I1
tp88
a(S'p2_ll'
I1
tp89
a(S'p2_th'
I1
tp90
a(S'w'
I1
tp91
a(S'p2_vo'
I4
tp92
a(S'w'
I5870
tp93
a(S'p1_tl'
I82
tp94
a(S'p1_ll'
I1
tp95
a(S'p1_th'
I1
tp96
a(S'w'
I2
tp97
a(S'tr_lr'
I24
tp98
a(S'w'
I1
tp99
a(S'tr_ll'
I1
tp100
a(S'w'
I5867
tp101
a(S'p1_tl'
I28
tp102
a(S'p1_ll'
I1
tp103
a(S'w'
I3
tp104
a(S'tr_tl'
I82
tp105
a(S'tr_ll'
I1
tp106
a(S'w'
I3
tp107
a(S'no_ll'
I1
tp108
a(S'w'
I5864
tp109
a(S'p1_tl'
I212
tp110
a(S'p1_ll'
I1
tp111
a(S'p1_th'
I0
tp112
a(S'w'
I3
tp113
a(S'tr_tl'
I28
tp114
a(S'tr_ll'
I1
tp115
a(S'w'
I5868
tp116
a(S'p1_tl'
I168
tp117
a(S'p1_ll'
I1
tp118
a(S'w'
I3
tp119
a(S'tr_tl'
I212
tp120
a(S'tr_ll'
I1
tp121
a(S'tr_th'
I0
tp122
a(S'w'
I5867
tp123
a(S'p1_tl'
I189
tp124
a(S'p1_ll'
I1
tp125
a(S'w'
I2
tp126
a(S'tr_lr'
I56
tp127
a(S'w'
I1
tp128
a(S'tr_tl'
I225
tp129
a(S'tr_ll'
I1
tp130
a(S'w'
I5868
tp131
a(S'no_ll'
I1
tp132
a(S'w'
I5870
tp133
a(S'p1_tl'
I212
tp134
a(S'p1_ll'
I1
tp135
a(S'w'
I2
tp136
a(S'tr_lr'
I24
tp137
a(S'w'
I1
tp138
a(S'tr_tl'
I253
tp139
a(S'tr_ll'
I1
tp140
a(S'w'
I5867
tp141
a(S'p2_vo'
I2
tp142
a(S'w'
I3
tp143
a(S'tr_lr'
I56
tp144
a(S'tr_tl'
I45
tp145
a(S'w'
I1
tp146
a(S'tr_ll'
I1
tp147
a(S'tr_th'
I1
tp148
a(S'w'
I5865
tp149
a(S'p2_tl'
I168
tp150
a(S'w'
I1
tp151
a(S'p2_ll'
I1
tp152
a(S'p2_th'
I0
tp153
a(S'p2_vo'
I4
tp154
a(S'w'
I3
tp155
a(S'p1_tl'
I253
tp156
a(S'p1_ll'
I1
tp157
a(S'w'
I5869
tp158
a(S'no_ll'
I1
tp159
a(S'w'
I5868
tp160
a(S'p2_tl'
I212
tp161
a(S'w'
I1
tp162
a(S'p2_ll'
I1
tp163
a(S'w'
I1
tp164
a(S'p2_vo'
I2
tp165
a(S'w'
I2
tp166
a(S'p1_tl'
I45
tp167
a(S'p1_ll'
I1
tp168
a(S'p1_th'
I1
tp169
a(S'w'
I3
tp170
a(S'tr_lr'
I24
tp171
a(S'w'
I1
tp172
a(S'tr_ll'
I1
tp173
a(S'w'
I5862
tp174
a(S'p2_tl'
I168
tp175
a(S'w'
I1
tp176
a(S'p2_ll'
I1
tp177
a(S'w'
I3
tp178
a(S'p1_tl'
I253
tp179
a(S'p1_ll'
I1
tp180
a(S'p1_th'
I0
tp181
a(S'w'
I3
tp182
a(S'tr_lr'
I56
tp183
a(S'w'
I1
tp184
a(S'tr_ll'
I1
tp185
a(S'w'
I5863
tp186
a(S'p2_tl'
I212
tp187
a(S'w'
I1
tp188
a(S'p2_ll'
I1
tp189
a(S'p2_vo'
I4
tp190
a(S'w'
I3
tp191
a(S'p1_tl'
I45
tp192
a(S'p1_ll'
I1
tp193
a(S'p1_th'
I1
tp194
a(S'w'
I5868
tp195
a(S'no_ll'
I1
tp196
a(S'w'
I5868
tp197
a(S'w'
I1
tp198
a(S'p2_ll'
I1
tp199
a(S'w'
I1
tp200
a(S'p2_vo'
I2
tp201
a(S'w'
I2
tp202
a(S'p1_ll'
I1
tp203
a(S'w'
I4
tp204
a(S'tr_ll'
I1
tp205
a(S'w'
I5863
tp206
a(S'p2_tl'
I253
tp207
a(S'w'
I1
tp208
a(S'p2_ll'
I1
tp209
a(S'w'
I1
tp210
a(S'p2_vo'
I4
tp211
a(S'w'
I5869
tp212
a(S'p1_ll'
I1
tp213
a(S'w'
I2
tp214
a(S'tr_lr'
I24
tp215
a(S'w'
I1
tp216
a(S'tr_tl'
I124
tp217
a(S'tr_ll'
I1
tp218
a(S'w'
I5867
tp219
a(S'p1_tl'
I253
tp220
a(S'p1_ll'
I1
tp221
a(S'p1_th'
I0
tp222
a(S'w'
I3
tp223
a(S'tr_tl'
I45
tp224
a(S'tr_ll'
I1
tp225
a(S'w'
I3
tp226
a(S'no_ll'
I1
tp227
a(S'w'
I5865
tp228
a(S'p1_tl'
I212
tp229
a(S'p1_ll'
I1
tp230
a(S'w'
I3
tp231
a(S'tr_tl'
I253
tp232
a(S'tr_ll'
I1
tp233
a(S'tr_th'
I0
tp234
a(S'w'
I5867
tp235
a(S'p1_tl'
I168
tp236
a(S'p1_ll'
I1
tp237
a(S'w'
I3
tp238
a(S'tr_tl'
I212
tp239
a(S'tr_ll'
I1
tp240
a(S'w'
I5867
tp241
a(S'p1_tl'
I189
tp242
a(S'p1_ll'
I1
tp243
a(S'w'
I2
tp244
a(S'tr_lr'
I56
tp245
a(S'w'
I1
tp246
a(S'tr_tl'
I225
tp247
a(S'tr_ll'
I1
tp248
a(S'w'
I5869
tp249
a(S'no_ll'
I1
tp250
a(S'w'
I5869
tp251
a(S'p1_tl'
I212
tp252
a(S'p1_ll'
I1
tp253
a(S'w'
I2
tp254
a(S'tr_lr'
I24
tp255
a(S'w'
I1
tp256
a(S'tr_tl'
I253
tp257
a(S'tr_ll'
I1
tp258
a(S'w'
I5870
tp259
a(S'tr_lr'
I56
tp260
a(S'tr_tl'
I63
tp261
a(S'w'
I1
tp262
a(S'tr_ll'
I1
tp263
a(S'tr_th'
I1
tp264
a(S'w'
I11738
tp265
a(S'no_ll'
I1
tp266
a(S'w'
I5868
tp267
a(S'w'
I1
tp268
a(S'p2_ll'
I1
tp269
a(S'w'
I1
tp270
a(S'p2_vo'
I2
tp271
a(S'w'
I2
tp272
a(S'p1_tl'
I63
tp273
a(S'p1_ll'
I1
tp274
a(S'p1_th'
I1
tp275
a(S'w'
I3
tp276
a(S'tr_lr'
I24
tp277
a(S'w'
I1
tp278
a(S'tr_ll'
I1
tp279
a(S'w'
I5863
tp280
a(S'p2_tl'
I212
tp281
a(S'w'
I1
tp282
a(S'p2_ll'
I1
tp283
a(S'w'
I1
tp284
a(S'p2_vo'
I4
tp285
a(S'w'
I2
tp286
a(S'p1_tl'
I253
tp287
a(S'p1_ll'
I1
tp288
a(S'p1_th'
I0
tp289
a(S'w'
I3
tp290
a(S'tr_lr'
I56
tp291
a(S'w'
I1
tp292
a(S'tr_ll'
I1
tp293
a(S'w'
I11732
tp294
a(S'p2_tl'
I253
tp295
a(S'w'
I1
tp296
a(S'p2_ll'
I1
tp297
a(S'w'
I3
tp298
a(S'p1_tl'
I63
tp299
a(S'p1_ll'
I1
tp300
a(S'p1_th'
I1
tp301
a(S'w'
I4
tp302
a(S'tr_ll'
I1
tp303
a(S'w'
I2
tp304
a(S'no_ll'
I1
tp305
a(S'w'
I11731
tp306
a(S'p2_tl'
I141
tp307
a(S'w'
I1
tp308
a(S'p2_ll'
I1
tp309
a(S'w'
I3
tp310
a(S'p1_tl'
I189
tp311
a(S'p1_ll'
I1
tp312
a(S'p1_th'
I0
tp313
a(S'w'
I3
tp314
a(S'tr_tl'
I225
tp315
a(S'w'
I1
tp316
a(S'tr_ll'
I1
tp317
a(S'tr_th'
I0
tp318
a(S'w'
I11733
tp319
a(S'w'
I1
tp320
a(S'p2_ll'
I1
tp321
a(S'w'
I1
tp322
a(S'p2_vo'
I2
tp323
a(S'w'
I2
tp324
a(S'p1_ll'
I1
tp325
a(S'w'
I3
tp326
a(S'tr_lr'
I24
tp327
a(S'w'
I1
tp328
a(S'tr_ll'
I1
tp329
a(S'w'
I2
tp330
a(S'no_ll'
I1
tp331
a(S'w'
I5864
tp332
a(S'p1_cv'
I1
tp333
a(S'p1_vo'
I0
tp334
a(S'w'
I2
tp335
a(S'tr_lr'
I8
tp336
a(S'w'
I2929
tp337
a(S'p2_tl'
I126
tp338
a(S'w'
I1
tp339
a(S'p2_ll'
I1
tp340
a(S'w'
I3
tp341
a(S'p1_ll'
I1
tp342
a(S'w'
I1
tp343
a(S'p1_cv'
I0
tp344
a(S'p1_vo'
I6
tp345
a(S'w'
I3
tp346
a(S'tr_ll'
I1
tp347
a(S'w'
I2927
tp348
a(S'p2_tl'
I178
tp349
a(S'w'
I1
tp350
a(S'p2_ll'
I1
tp351
a(S'w'
I3
tp352
a(S'p1_tl'
I63
tp353
a(S'p1_ll'
I1
tp354
a(S'p1_th'
I1
tp355
a(S'w'
I3
tp356
a(S'tr_lr'
I24
tp357
a(S'tr_tl'
I253
tp358
a(S'w'
I1
tp359
a(S'tr_ll'
I1
tp360
a(S'w'
I5867
tp361
a(S'p1_cv'
I1
tp362
a(S'p1_vo'
I0
tp363
a(S'w'
I2
tp364
a(S'tr_lr'
I8
tp365
a(S'w'
I2929
tp366
a(S'p2_tl'
I189
tp367
a(S'w'
I1
tp368
a(S'p2_ll'
I1
tp369
a(S'w'
I1
tp370
a(S'p2_vo'
I4
tp371
a(S'w'
I2
tp372
a(S'p1_ll'
I1
tp373
a(S'w'
I1
tp374
a(S'p1_cv'
I0
tp375
a(S'p1_vo'
I6
tp376
a(S'w'
I2
tp377
a(S'tr_lr'
I56
tp378
a(S'w'
I1
tp379
a(S'tr_ll'
I1
tp380
a(S'w'
I2929
tp381
a(S'no_ll'
I1
tp382
a(S'w'
I8804
tp383
a(S'p2_vo'
I2
tp384
a(S'w'
I3
tp385
a(S'p1_cv'
I1
tp386
a(S'p1_vo'
I0
tp387
a(S'w'
I2
tp388
a(S'tr_lr'
I8
tp389
a(S'w'
I2930
tp390
a(S'p2_tl'
I212
tp391
a(S'w'
I1
tp392
a(S'p2_ll'
I1
tp393
a(S'w'
I1
tp394
a(S'p2_vo'
I4
tp395
a(S'w'
I2
tp396
a(S'p1_tl'
I82
tp397
a(S'p1_ll'
I1
tp398
a(S'w'
I1
tp399
a(S'p1_cv'
I0
tp400
a(S'p1_vo'
I6
tp401
a(S'w'
I2
tp402
a(S'tr_lr'
I56
tp403
a(S'tr_tl'
I28
tp404
a(S'w'
I1
tp405
a(S'tr_ll'
I1
tp406
a(S'tr_th'
I1
tp407
a(S'w'
I2
tp408
a(S'no_vo'
I2
tp409
a(S'no_np'
I0
tp410
a(S'no_ll'
I5
tp411
a(S'w'
I2927
tp412
a(S'no_ll'
I5
tp413
a(S'w'
I2935
tp414
a(S'no_ll'
I5
tp415
a(S'w'
I2935
tp416
a(S'no_ll'
I5
tp417
a(S'w'
I2935
tp418
a(S'no_ll'
I5
tp419
a(S'w'
I35219
tp420
a(S'p1_du'
I2
tp421
a(S'p1_cv'
I1
tp422
a(S'p1_vo'
I0
tp423
a(S'p2_cv'
I1
tp424
a(S'p2_vo'
I0
tp425
a(S'w'
I25558
tp426
a.