(lp1
(S'clock'
p2
I1789772
tp3
a(S'w'
I1
tp4
a(S'fc_mo'
I1
tp5
a(S'w'
I6
tp6
a(S'p1_du'
I2
tp7
a(S'p1_cv'
I1
tp8
a(S'p1_vo'
I15
tp9
a(S'p1_sp'
I7
tp10
a(S'p1_sn'
I1
tp11
a(S'p1_ss'
I7
tp12
a(S'p1_tl'
I212
tp13
a(S'w'
I1
tp14
a(S'p1_ll'
I1
tp15
a(S'w'
I5136
tp16
a(S'p1_tl'
I159
tp17
a(S'p1_ll'
I1
tp18
a(S'w'
I5137
tp19
a(S'p1_tl'
I212
tp20
a(S'p1_ll'
I1
tp21
a(S'w'
I5135
tp22
a(S'p1_tl'
I225
tp23
a(S'w'
I1
tp24
a(S'p1_ll'
I1
tp25
a(S'w'
I5136
tp26
a(S'p1_tl'
I159
tp27
a(S'p1_ll'
I1
tp28
a(S'w'
I5136
tp29
a(S'p1_tl'
I225
tp30
a(S'p1_ll'
I1
tp31
a(S'w'
I5136
tp32
a(S'p1_tl'
I238
tp33
a(S'w'
I1
tp34
a(S'p1_ll'
I1
tp35
a(S'w'
I5135
tp36
a(S'p1_tl'
I159
tp37
a(S'p1_ll'
I1
tp38
a(S'w'
I5137
tp39
a(S'p1_tl'
I238
tp40
a(S'p1_ll'
I1
tp41
a(S'w'
I5136
tp42
a(S'p1_tl'
I253
tp43
a(S'p1_ll'
I1
tp44
a(S'w'
I5136
tp45
a(S'p1_tl'
I159
tp46
a(S'w'
I1
tp47
a(S'p1_ll'
I1
tp48
a(S'w'
I5135
tp49
a(S'p1_tl'
I253
tp50
a(S'p1_ll'
I1
tp51
a(S'w'
I5137
tp52
a(S'p1_tl'
I12
tp53
a(S'p1_ll'
I1
tp54
a(S'p1_th'
I1
tp55
a(S'w'
I5136
tp56
a(S'p1_tl'
I238
tp57
a(S'w'
I1
tp58
a(S'p1_ll'
I1
tp59
a(S'p1_th'
I0
tp60
a(S'w'
I5135
tp61
a(S'p1_tl'
I12
tp62
a(S'p1_ll'
I1
tp63
a(S'p1_th'
I1
tp64
a(S'w'
I5137
tp65
a(S'p1_tl'
I28
tp66
a(S'p1_ll'
I1
tp67
a(S'w'
I11011
tp68
a(S'p1_se'
I1
tp69
a(S'p1_sp'
I2
tp70
a(S'p1_sn'
I0
tp71
a(S'p1_ss'
I3
tp72
a(S'p1_tl'
I253
tp73
a(S'w'
I1
tp74
a(S'p1_ll'
I1
tp75
a(S'p1_th'
I0
tp76
a(S'w'
I2934
tp77
a(S'p1_tl'
I253
tp78
a(S'w'
I1
tp79
a(S'p1_ll'
I1
tp80
a(S'w'
I2934
tp81
a(S'p1_tl'
I253
tp82
a(S'w'
I1
tp83
a(S'p1_ll'
I1
tp84
a(S'w'
I2934
tp85
a(S'p1_tl'
I253
tp86
a(S'w'
I1
tp87
a(S'p1_ll'
I1
tp88
a(S'w'
I2934
tp89
a(S'p1_tl'
I253
tp90
a(S'w'
I1
tp91
a(S'p1_ll'
I1
tp92
a(S'w'
I2201
tp93
a(S'p1_vo'
I0
tp94
a(S'w'
I47499
tp95
a.