(lp1
(S'clock'
p2
I1789772
tp3
a(S'w'
I1
tp4
a(S'fc_mo'
I1
tp5
a(S'w'
I8
tp6
a(S'p1_sp'
I7
tp7
a(S'p1_sn'
I1
tp8
a(S'p1_ss'
I7
tp9
a(S'p2_sp'
I7
tp10
a(S'p2_sn'
I1
tp11
a(S'p2_ss'
I7
tp12
a(S'w'
I2
tp13
a(S'p2_tl'
I28
tp14
a(S'p2_ll'
I1
tp15
a(S'p2_th'
I1
tp16
a(S'w'
I1
tp17
a(S'p2_du'
I2
tp18
a(S'p2_vo'
I2
tp19
a(S'w'
I1
tp20
a(S'p2_du'
I1
tp21
a(S'p2_cv'
I1
tp22
a(S'p2_vo'
I7
tp23
a(S'w'
I2
tp24
a(S'tr_lr'
I32
tp25
a(S'w'
I1
tp26
a(S'tr_tl'
I171
tp27
a(S'tr_ll'
I1
tp28
a(S'tr_th'
I1
tp29
a(S'w'
I725
tp30
a(S'p2_vo'
I6
tp31
a(S'w'
I2935
tp32
a(S'p2_vo'
I5
tp33
a(S'w'
I2202
tp34
a(S'p2_vo'
I4
tp35
a(S'w'
I1468
tp36
a(S'p2_tl'
I168
tp37
a(S'w'
I1
tp38
a(S'p2_ll'
I1
tp39
a(S'p2_th'
I0
tp40
a(S'w'
I1
tp41
a(S'p2_du'
I2
tp42
a(S'p2_cv'
I0
tp43
a(S'p2_vo'
I2
tp44
a(S'p2_du'
I1
tp45
a(S'p2_cv'
I1
tp46
a(S'p2_vo'
I7
tp47
a(S'w'
I3
tp48
a(S'tr_tl'
I82
tp49
a(S'tr_ll'
I1
tp50
a(S'w'
I728
tp51
a(S'p2_vo'
I6
tp52
a(S'w'
I2936
tp53
a(S'p2_tl'
I212
tp54
a(S'w'
I1
tp55
a(S'p2_ll'
I1
tp56
a(S'w'
I1
tp57
a(S'p2_du'
I2
tp58
a(S'p2_cv'
I0
tp59
a(S'p2_vo'
I2
tp60
a(S'p2_du'
I1
tp61
a(S'p2_cv'
I1
tp62
a(S'p2_vo'
I7
tp63
a(S'w'
I731
tp64
a(S'p2_vo'
I6
tp65
a(S'w'
I2936
tp66
a(S'p2_tl'
I28
tp67
a(S'w'
I1
tp68
a(S'p2_ll'
I1
tp69
a(S'p2_th'
I1
tp70
a(S'w'
I1
tp71
a(S'p2_du'
I2
tp72
a(S'p2_cv'
I0
tp73
a(S'p2_vo'
I2
tp74
a(S'p2_du'
I1
tp75
a(S'p2_cv'
I1
tp76
a(S'p2_vo'
I7
tp77
a(S'w'
I3
tp78
a(S'tr_tl'
I28
tp79
a(S'tr_ll'
I1
tp80
a(S'w'
I728
tp81
a(S'p2_vo'
I6
tp82
a(S'w'
I2936
tp83
a(S'p2_tl'
I168
tp84
a(S'w'
I1
tp85
a(S'p2_ll'
I1
tp86
a(S'p2_th'
I0
tp87
a(S'w'
I1
tp88
a(S'p2_du'
I2
tp89
a(S'p2_cv'
I0
tp90
a(S'p2_vo'
I2
tp91
a(S'p2_du'
I1
tp92
a(S'p2_cv'
I1
tp93
a(S'p2_vo'
I7
tp94
a(S'w'
I731
tp95
a(S'p2_vo'
I6
tp96
a(S'w'
I2936
tp97
a(S'p2_tl'
I212
tp98
a(S'w'
I1
tp99
a(S'p2_ll'
I1
tp100
a(S'w'
I1
tp101
a(S'p2_du'
I2
tp102
a(S'p2_cv'
I0
tp103
a(S'p2_vo'
I2
tp104
a(S'p2_du'
I1
tp105
a(S'p2_cv'
I1
tp106
a(S'p2_vo'
I7
tp107
a(S'w'
I3
tp108
a(S'tr_tl'
I253
tp109
a(S'tr_ll'
I1
tp110
a(S'tr_th'
I0
tp111
a(S'w'
I728
tp112
a(S'p2_vo'
I6
tp113
a(S'w'
I2936
tp114
a(S'p2_tl'
I28
tp115
a(S'w'
I1
tp116
a(S'p2_ll'
I1
tp117
a(S'p2_th'
I1
tp118
a(S'w'
I1
tp119
a(S'p2_du'
I2
tp120
a(S'p2_cv'
I0
tp121
a(S'p2_vo'
I2
tp122
a(S'p2_du'
I1
tp123
a(S'p2_cv'
I1
tp124
a(S'p2_vo'
I7
tp125
a(S'w'
I731
tp126
a(S'p2_vo'
I6
tp127
a(S'w'
I2936
tp128
a(S'p2_tl'
I168
tp129
a(S'w'
I1
tp130
a(S'p2_ll'
I1
tp131
a(S'p2_th'
I0
tp132
a(S'w'
I1
tp133
a(S'p2_du'
I2
tp134
a(S'p2_cv'
I0
tp135
a(S'p2_vo'
I2
tp136
a(S'p2_du'
I1
tp137
a(S'p2_cv'
I1
tp138
a(S'p2_vo'
I7
tp139
a(S'w'
I3
tp140
a(S'tr_tl'
I212
tp141
a(S'tr_ll'
I1
tp142
a(S'w'
I728
tp143
a(S'p2_vo'
I6
tp144
a(S'w'
I2936
tp145
a(S'p2_tl'
I212
tp146
a(S'w'
I1
tp147
a(S'p2_ll'
I1
tp148
a(S'w'
I1
tp149
a(S'p2_du'
I2
tp150
a(S'p2_cv'
I0
tp151
a(S'p2_vo'
I2
tp152
a(S'p2_du'
I1
tp153
a(S'p2_cv'
I1
tp154
a(S'p2_vo'
I7
tp155
a(S'w'
I731
tp156
a(S'p2_vo'
I6
tp157
a(S'w'
I2936
tp158
a(S'p2_tl'
I28
tp159
a(S'w'
I1
tp160
a(S'p2_ll'
I1
tp161
a(S'p2_th'
I1
tp162
a(S'w'
I1
tp163
a(S'p2_du'
I2
tp164
a(S'p2_cv'
I0
tp165
a(S'p2_vo'
I2
tp166
a(S'p2_du'
I1
tp167
a(S'p2_cv'
I1
tp168
a(S'p2_vo'
I7
tp169
a(S'w'
I3
tp170
a(S'tr_tl'
I253
tp171
a(S'tr_ll'
I1
tp172
a(S'w'
I728
tp173
a(S'p2_vo'
I6
tp174
a(S'w'
I2936
tp175
a(S'p2_tl'
I168
tp176
a(S'w'
I1
tp177
a(S'p2_ll'
I1
tp178
a(S'p2_th'
I0
tp179
a(S'w'
I1
tp180
a(S'p2_du'
I2
tp181
a(S'p2_cv'
I0
tp182
a(S'p2_vo'
I2
tp183
a(S'p2_du'
I1
tp184
a(S'p2_cv'
I1
tp185
a(S'p2_vo'
I7
tp186
a(S'w'
I731
tp187
a(S'p2_vo'
I6
tp188
a(S'w'
I2936
tp189
a(S'p2_tl'
I212
tp190
a(S'w'
I1
tp191
a(S'p2_ll'
I1
tp192
a(S'w'
I1
tp193
a(S'p2_du'
I2
tp194
a(S'p2_cv'
I0
tp195
a(S'p2_vo'
I2
tp196
a(S'p2_du'
I1
tp197
a(S'p2_cv'
I1
tp198
a(S'p2_vo'
I7
tp199
a(S'w'
I3
tp200
a(S'tr_tl'
I28
tp201
a(S'tr_ll'
I1
tp202
a(S'tr_th'
I1
tp203
a(S'w'
I728
tp204
a(S'p2_vo'
I6
tp205
a(S'w'
I2936
tp206
a(S'p2_tl'
I28
tp207
a(S'w'
I1
tp208
a(S'p2_ll'
I1
tp209
a(S'p2_th'
I1
tp210
a(S'w'
I1
tp211
a(S'p2_du'
I2
tp212
a(S'p2_cv'
I0
tp213
a(S'p2_vo'
I2
tp214
a(S'p2_du'
I1
tp215
a(S'p2_cv'
I1
tp216
a(S'p2_vo'
I7
tp217
a(S'w'
I731
tp218
a(S'p2_vo'
I6
tp219
a(S'w'
I2936
tp220
a(S'p2_tl'
I168
tp221
a(S'w'
I1
tp222
a(S'p2_ll'
I1
tp223
a(S'p2_th'
I0
tp224
a(S'w'
I1
tp225
a(S'p2_du'
I2
tp226
a(S'p2_cv'
I0
tp227
a(S'p2_vo'
I2
tp228
a(S'p2_du'
I1
tp229
a(S'p2_cv'
I1
tp230
a(S'p2_vo'
I7
tp231
a(S'w'
I3
tp232
a(S'tr_tl'
I82
tp233
a(S'tr_ll'
I1
tp234
a(S'w'
I728
tp235
a(S'p2_vo'
I6
tp236
a(S'w'
I2936
tp237
a(S'p2_tl'
I212
tp238
a(S'w'
I1
tp239
a(S'p2_ll'
I1
tp240
a(S'w'
I1
tp241
a(S'p2_du'
I2
tp242
a(S'p2_cv'
I0
tp243
a(S'p2_vo'
I2
tp244
a(S'p2_du'
I1
tp245
a(S'p2_cv'
I1
tp246
a(S'p2_vo'
I7
tp247
a(S'w'
I731
tp248
a(S'p2_vo'
I6
tp249
a(S'w'
I2929
tp250
a(S'fc_mo'
I1
tp251
a(S'w'
I7
tp252
a(S'p2_tl'
I253
tp253
a(S'w'
I1
tp254
a(S'p2_ll'
I1
tp255
a(S'w'
I1
tp256
a(S'p2_du'
I2
tp257
a(S'p2_cv'
I0
tp258
a(S'p2_vo'
I2
tp259
a(S'p2_du'
I1
tp260
a(S'p2_cv'
I1
tp261
a(S'p2_vo'
I7
tp262
a(S'w'
I2
tp263
a(S'w'
I1
tp264
a(S'tr_tl'
I124
tp265
a(S'tr_ll'
I1
tp266
a(S'w'
I728
tp267
a(S'p2_vo'
I6
tp268
a(S'w'
I2935
tp269
a(S'p2_vo'
I5
tp270
a(S'w'
I2201
tp271
a(S'p2_vo'
I4
tp272
a(S'w'
I1469
tp273
a(S'p2_tl'
I150
tp274
a(S'w'
I1
tp275
a(S'p2_ll'
I1
tp276
a(S'w'
I1
tp277
a(S'p2_du'
I2
tp278
a(S'p2_cv'
I0
tp279
a(S'p2_vo'
I2
tp280
a(S'p2_du'
I1
tp281
a(S'p2_cv'
I1
tp282
a(S'p2_vo'
I7
tp283
a(S'w'
I3
tp284
a(S'tr_tl'
I45
tp285
a(S'tr_ll'
I1
tp286
a(S'w'
I728
tp287
a(S'p2_vo'
I6
tp288
a(S'w'
I2936
tp289
a(S'p2_tl'
I189
tp290
a(S'w'
I1
tp291
a(S'p2_ll'
I1
tp292
a(S'w'
I1
tp293
a(S'p2_du'
I2
tp294
a(S'p2_cv'
I0
tp295
a(S'p2_vo'
I2
tp296
a(S'p2_du'
I1
tp297
a(S'p2_cv'
I1
tp298
a(S'p2_vo'
I7
tp299
a(S'w'
I731
tp300
a(S'p2_vo'
I6
tp301
a(S'w'
I2936
tp302
a(S'p2_tl'
I253
tp303
a(S'w'
I1
tp304
a(S'p2_ll'
I1
tp305
a(S'w'
I1
tp306
a(S'p2_du'
I2
tp307
a(S'p2_cv'
I0
tp308
a(S'p2_vo'
I2
tp309
a(S'p2_du'
I1
tp310
a(S'p2_cv'
I1
tp311
a(S'p2_vo'
I7
tp312
a(S'w'
I3
tp313
a(S'tr_tl'
I253
tp314
a(S'tr_ll'
I1
tp315
a(S'tr_th'
I0
tp316
a(S'w'
I727
tp317
a(S'p2_vo'
I6
tp318
a(S'w'
I2937
tp319
a(S'p2_tl'
I150
tp320
a(S'w'
I1
tp321
a(S'p2_ll'
I1
tp322
a(S'w'
I1
tp323
a(S'p2_du'
I2
tp324
a(S'p2_cv'
I0
tp325
a(S'p2_vo'
I2
tp326
a(S'p2_du'
I1
tp327
a(S'p2_cv'
I1
tp328
a(S'p2_vo'
I7
tp329
a(S'w'
I730
tp330
a(S'p2_vo'
I6
tp331
a(S'w'
I2937
tp332
a(S'p2_tl'
I189
tp333
a(S'w'
I1
tp334
a(S'p2_ll'
I1
tp335
a(S'w'
I1
tp336
a(S'p2_du'
I2
tp337
a(S'p2_cv'
I0
tp338
a(S'p2_vo'
I2
tp339
a(S'p2_du'
I1
tp340
a(S'p2_cv'
I1
tp341
a(S'p2_vo'
I7
tp342
a(S'w'
I3
tp343
a(S'tr_tl'
I225
tp344
a(S'tr_ll'
I1
tp345
a(S'w'
I727
tp346
a(S'p2_vo'
I6
tp347
a(S'w'
I2937
tp348
a(S'p2_tl'
I253
tp349
a(S'w'
I1
tp350
a(S'p2_ll'
I1
tp351
a(S'w'
I1
tp352
a(S'p2_du'
I2
tp353
a(S'p2_cv'
I0
tp354
a(S'p2_vo'
I2
tp355
a(S'p2_du'
I1
tp356
a(S'p2_cv'
I1
tp357
a(S'p2_vo'
I7
tp358
a(S'w'
I730
tp359
a(S'p2_vo'
I6
tp360
a(S'w'
I2937
tp361
a(S'p2_tl'
I150
tp362
a(S'w'
I1
tp363
a(S'p2_ll'
I1
tp364
a(S'w'
I1
tp365
a(S'p2_du'
I2
tp366
a(S'p2_cv'
I0
tp367
a(S'p2_vo'
I2
tp368
a(S'p2_du'
I1
tp369
a(S'p2_cv'
I1
tp370
a(S'p2_vo'
I7
tp371
a(S'w'
I3
tp372
a(S'tr_tl'
I189
tp373
a(S'tr_ll'
I1
tp374
a(S'w'
I727
tp375
a(S'p2_vo'
I6
tp376
a(S'w'
I2936
tp377
a(S'p2_tl'
I189
tp378
a(S'w'
I1
tp379
a(S'p2_ll'
I1
tp380
a(S'w'
I1
tp381
a(S'p2_du'
I2
tp382
a(S'p2_cv'
I0
tp383
a(S'p2_vo'
I2
tp384
a(S'p2_du'
I1
tp385
a(S'p2_cv'
I1
tp386
a(S'p2_vo'
I7
tp387
a(S'w'
I731
tp388
a(S'p2_vo'
I6
tp389
a(S'w'
I2936
tp390
a(S'p2_tl'
I253
tp391
a(S'w'
I1
tp392
a(S'p2_ll'
I1
tp393
a(S'w'
I1
tp394
a(S'p2_du'
I2
tp395
a(S'p2_cv'
I0
tp396
a(S'p2_vo'
I2
tp397
a(S'p2_du'
I1
tp398
a(S'p2_cv'
I1
tp399
a(S'p2_vo'
I7
tp400
a(S'w'
I3
tp401
a(S'tr_tl'
I225
tp402
a(S'tr_ll'
I1
tp403
a(S'w'
I728
tp404
a(S'p2_vo'
I6
tp405
a(S'w'
I2936
tp406
a(S'p2_tl'
I150
tp407
a(S'w'
I1
tp408
a(S'p2_ll'
I1
tp409
a(S'w'
I1
tp410
a(S'p2_du'
I2
tp411
a(S'p2_cv'
I0
tp412
a(S'p2_vo'
I2
tp413
a(S'p2_du'
I1
tp414
a(S'p2_cv'
I1
tp415
a(S'p2_vo'
I7
tp416
a(S'w'
I731
tp417
a(S'p2_vo'
I6
tp418
a(S'w'
I2936
tp419
a(S'p2_tl'
I189
tp420
a(S'w'
I1
tp421
a(S'p2_ll'
I1
tp422
a(S'w'
I1
tp423
a(S'p2_du'
I2
tp424
a(S'p2_cv'
I0
tp425
a(S'p2_vo'
I2
tp426
a(S'p2_du'
I1
tp427
a(S'p2_cv'
I1
tp428
a(S'p2_vo'
I7
tp429
a(S'w'
I3
tp430
a(S'tr_tl'
I253
tp431
a(S'tr_ll'
I1
tp432
a(S'w'
I728
tp433
a(S'p2_vo'
I6
tp434
a(S'w'
I2936
tp435
a(S'p2_tl'
I253
tp436
a(S'w'
I1
tp437
a(S'p2_ll'
I1
tp438
a(S'w'
I1
tp439
a(S'p2_du'
I2
tp440
a(S'p2_cv'
I0
tp441
a(S'p2_vo'
I2
tp442
a(S'p2_du'
I1
tp443
a(S'p2_cv'
I1
tp444
a(S'p2_vo'
I7
tp445
a(S'w'
I731
tp446
a(S'p2_vo'
I6
tp447
a(S'w'
I2936
tp448
a(S'p2_tl'
I150
tp449
a(S'w'
I1
tp450
a(S'p2_ll'
I1
tp451
a(S'w'
I1
tp452
a(S'p2_du'
I2
tp453
a(S'p2_cv'
I0
tp454
a(S'p2_vo'
I2
tp455
a(S'p2_du'
I1
tp456
a(S'p2_cv'
I1
tp457
a(S'p2_vo'
I7
tp458
a(S'w'
I3
tp459
a(S'tr_tl'
I45
tp460
a(S'tr_ll'
I1
tp461
a(S'tr_th'
I1
tp462
a(S'w'
I728
tp463
a(S'p2_vo'
I6
tp464
a(S'w'
I2936
tp465
a(S'p2_tl'
I189
tp466
a(S'w'
I1
tp467
a(S'p2_ll'
I1
tp468
a(S'w'
I1
tp469
a(S'p2_du'
I2
tp470
a(S'p2_cv'
I0
tp471
a(S'p2_vo'
I2
tp472
a(S'p2_du'
I1
tp473
a(S'p2_cv'
I1
tp474
a(S'p2_vo'
I7
tp475
a(S'w'
I731
tp476
a(S'p2_vo'
I6
tp477
a(S'w'
I2936
tp478
a(S'p2_tl'
I253
tp479
a(S'w'
I1
tp480
a(S'p2_ll'
I1
tp481
a(S'w'
I1
tp482
a(S'p2_du'
I2
tp483
a(S'p2_cv'
I0
tp484
a(S'p2_vo'
I2
tp485
a(S'p2_du'
I1
tp486
a(S'p2_cv'
I1
tp487
a(S'p2_vo'
I7
tp488
a(S'w'
I3
tp489
a(S'tr_tl'
I63
tp490
a(S'tr_ll'
I1
tp491
a(S'w'
I728
tp492
a(S'p2_vo'
I6
tp493
a(S'w'
I2935
tp494
a(S'p2_vo'
I5
tp495
a(S'w'
I2202
tp496
a(S'p2_vo'
I4
tp497
a(S'w'
I1468
tp498
a(S'p2_tl'
I159
tp499
a(S'w'
I1
tp500
a(S'p2_ll'
I1
tp501
a(S'w'
I1
tp502
a(S'p2_du'
I2
tp503
a(S'p2_cv'
I0
tp504
a(S'p2_vo'
I2
tp505
a(S'p2_du'
I1
tp506
a(S'p2_cv'
I1
tp507
a(S'p2_vo'
I7
tp508
a(S'w'
I3
tp509
a(S'tr_tl'
I253
tp510
a(S'tr_ll'
I1
tp511
a(S'tr_th'
I0
tp512
a(S'w'
I728
tp513
a(S'p2_vo'
I6
tp514
a(S'w'
I2936
tp515
a(S'p2_tl'
I212
tp516
a(S'w'
I1
tp517
a(S'p2_ll'
I1
tp518
a(S'w'
I1
tp519
a(S'p2_du'
I2
tp520
a(S'p2_cv'
I0
tp521
a(S'p2_vo'
I2
tp522
a(S'p2_du'
I1
tp523
a(S'p2_cv'
I1
tp524
a(S'p2_vo'
I7
tp525
a(S'w'
I731
tp526
a(S'p2_vo'
I6
tp527
a(S'w'
I2936
tp528
a(S'p2_tl'
I253
tp529
a(S'w'
I1
tp530
a(S'p2_ll'
I1
tp531
a(S'w'
I1
tp532
a(S'p2_du'
I2
tp533
a(S'p2_cv'
I0
tp534
a(S'p2_vo'
I2
tp535
a(S'p2_du'
I1
tp536
a(S'p2_cv'
I1
tp537
a(S'p2_vo'
I7
tp538
a(S'w'
I3
tp539
a(S'tr_tl'
I212
tp540
a(S'tr_ll'
I1
tp541
a(S'w'
I728
tp542
a(S'p2_vo'
I6
tp543
a(S'w'
I2936
tp544
a(S'p2_tl'
I159
tp545
a(S'w'
I1
tp546
a(S'p2_ll'
I1
tp547
a(S'w'
I1
tp548
a(S'p2_du'
I2
tp549
a(S'p2_cv'
I0
tp550
a(S'p2_vo'
I2
tp551
a(S'p2_du'
I1
tp552
a(S'p2_cv'
I1
tp553
a(S'p2_vo'
I7
tp554
a(S'w'
I731
tp555
a(S'p2_vo'
I6
tp556
a(S'w'
I2936
tp557
a(S'p2_tl'
I212
tp558
a(S'w'
I1
tp559
a(S'p2_ll'
I1
tp560
a(S'w'
I1
tp561
a(S'p2_du'
I2
tp562
a(S'p2_cv'
I0
tp563
a(S'p2_vo'
I2
tp564
a(S'p2_du'
I1
tp565
a(S'p2_cv'
I1
tp566
a(S'p2_vo'
I7
tp567
a(S'w'
I3
tp568
a(S'tr_tl'
I189
tp569
a(S'tr_ll'
I1
tp570
a(S'w'
I728
tp571
a(S'p2_vo'
I6
tp572
a(S'w'
I2936
tp573
a(S'p2_tl'
I253
tp574
a(S'w'
I1
tp575
a(S'p2_ll'
I1
tp576
a(S'w'
I1
tp577
a(S'p2_du'
I2
tp578
a(S'p2_cv'
I0
tp579
a(S'p2_vo'
I2
tp580
a(S'p2_du'
I1
tp581
a(S'p2_cv'
I1
tp582
a(S'p2_vo'
I7
tp583
a(S'w'
I731
tp584
a(S'p2_vo'
I6
tp585
a(S'w'
I2936
tp586
a(S'p2_tl'
I159
tp587
a(S'w'
I1
tp588
a(S'p2_ll'
I1
tp589
a(S'w'
I1
tp590
a(S'p2_du'
I2
tp591
a(S'p2_cv'
I0
tp592
a(S'p2_vo'
I2
tp593
a(S'p2_du'
I1
tp594
a(S'p2_cv'
I1
tp595
a(S'p2_vo'
I7
tp596
a(S'w'
I3
tp597
a(S'tr_tl'
I159
tp598
a(S'tr_ll'
I1
tp599
a(S'w'
I728
tp600
a(S'p2_vo'
I6
tp601
a(S'w'
I2936
tp602
a(S'p2_tl'
I212
tp603
a(S'w'
I1
tp604
a(S'p2_ll'
I1
tp605
a(S'w'
I1
tp606
a(S'p2_du'
I2
tp607
a(S'p2_cv'
I0
tp608
a(S'p2_vo'
I2
tp609
a(S'p2_du'
I1
tp610
a(S'p2_cv'
I1
tp611
a(S'p2_vo'
I7
tp612
a(S'w'
I731
tp613
a(S'p2_vo'
I6
tp614
a(S'w'
I2936
tp615
a(S'p2_tl'
I253
tp616
a(S'w'
I1
tp617
a(S'p2_ll'
I1
tp618
a(S'w'
I1
tp619
a(S'p2_du'
I2
tp620
a(S'p2_cv'
I0
tp621
a(S'p2_vo'
I2
tp622
a(S'p2_du'
I1
tp623
a(S'p2_cv'
I1
tp624
a(S'p2_vo'
I7
tp625
a(S'w'
I3
tp626
a(S'tr_tl'
I189
tp627
a(S'tr_ll'
I1
tp628
a(S'w'
I728
tp629
a(S'p2_vo'
I6
tp630
a(S'w'
I2936
tp631
a(S'p2_tl'
I159
tp632
a(S'w'
I1
tp633
a(S'p2_ll'
I1
tp634
a(S'w'
I1
tp635
a(S'p2_du'
I2
tp636
a(S'p2_cv'
I0
tp637
a(S'p2_vo'
I2
tp638
a(S'p2_du'
I1
tp639
a(S'p2_cv'
I1
tp640
a(S'p2_vo'
I7
tp641
a(S'w'
I731
tp642
a(S'p2_vo'
I6
tp643
a(S'w'
I2936
tp644
a(S'p2_tl'
I212
tp645
a(S'w'
I1
tp646
a(S'p2_ll'
I1
tp647
a(S'w'
I1
tp648
a(S'p2_du'
I2
tp649
a(S'p2_cv'
I0
tp650
a(S'p2_vo'
I2
tp651
a(S'p2_du'
I1
tp652
a(S'p2_cv'
I1
tp653
a(S'p2_vo'
I7
tp654
a(S'w'
I3
tp655
a(S'tr_tl'
I212
tp656
a(S'tr_ll'
I1
tp657
a(S'w'
I727
tp658
a(S'p2_vo'
I6
tp659
a(S'w'
I2937
tp660
a(S'p2_tl'
I253
tp661
a(S'w'
I1
tp662
a(S'p2_ll'
I1
tp663
a(S'w'
I1
tp664
a(S'p2_du'
I2
tp665
a(S'p2_cv'
I0
tp666
a(S'p2_vo'
I2
tp667
a(S'p2_du'
I1
tp668
a(S'p2_cv'
I1
tp669
a(S'p2_vo'
I7
tp670
a(S'w'
I730
tp671
a(S'p2_vo'
I6
tp672
a(S'w'
I2937
tp673
a(S'p2_tl'
I159
tp674
a(S'w'
I1
tp675
a(S'p2_ll'
I1
tp676
a(S'w'
I1
tp677
a(S'p2_du'
I2
tp678
a(S'p2_cv'
I0
tp679
a(S'p2_vo'
I2
tp680
a(S'p2_du'
I1
tp681
a(S'p2_cv'
I1
tp682
a(S'p2_vo'
I7
tp683
a(S'w'
I3
tp684
a(S'tr_tl'
I253
tp685
a(S'tr_ll'
I1
tp686
a(S'w'
I727
tp687
a(S'p2_vo'
I6
tp688
a(S'w'
I2937
tp689
a(S'p2_tl'
I212
tp690
a(S'w'
I1
tp691
a(S'p2_ll'
I1
tp692
a(S'w'
I1
tp693
a(S'p2_du'
I2
tp694
a(S'p2_cv'
I0
tp695
a(S'p2_vo'
I2
tp696
a(S'p2_du'
I1
tp697
a(S'p2_cv'
I1
tp698
a(S'p2_vo'
I7
tp699
a(S'w'
I730
tp700
a(S'p2_vo'
I6
tp701
a(S'w'
I2937
tp702
a(S'p2_tl'
I225
tp703
a(S'w'
I1
tp704
a(S'p2_ll'
I1
tp705
a(S'w'
I1
tp706
a(S'p2_du'
I2
tp707
a(S'p2_cv'
I0
tp708
a(S'p2_vo'
I2
tp709
a(S'p2_du'
I1
tp710
a(S'p2_cv'
I1
tp711
a(S'p2_vo'
I7
tp712
a(S'w'
I3
tp713
a(S'tr_tl'
I28
tp714
a(S'tr_ll'
I1
tp715
a(S'tr_th'
I1
tp716
a(S'w'
I727
tp717
a(S'p2_vo'
I6
tp718
a(S'w'
I2935
tp719
a(S'p2_vo'
I5
tp720
a(S'w'
I2202
tp721
a(S'p2_vo'
I4
tp722
a(S'w'
I1468
tp723
a(S'p2_tl'
I141
tp724
a(S'w'
I1
tp725
a(S'p2_ll'
I1
tp726
a(S'w'
I1
tp727
a(S'p2_du'
I2
tp728
a(S'p2_cv'
I0
tp729
a(S'p2_vo'
I2
tp730
a(S'p2_du'
I1
tp731
a(S'p2_cv'
I1
tp732
a(S'p2_vo'
I7
tp733
a(S'w'
I3
tp734
a(S'tr_tl'
I225
tp735
a(S'tr_ll'
I1
tp736
a(S'tr_th'
I0
tp737
a(S'w'
I728
tp738
a(S'p2_vo'
I6
tp739
a(S'w'
I2936
tp740
a(S'p2_tl'
I189
tp741
a(S'w'
I1
tp742
a(S'p2_ll'
I1
tp743
a(S'w'
I1
tp744
a(S'p2_du'
I2
tp745
a(S'p2_cv'
I0
tp746
a(S'p2_vo'
I2
tp747
a(S'p2_du'
I1
tp748
a(S'p2_cv'
I1
tp749
a(S'p2_vo'
I7
tp750
a(S'w'
I731
tp751
a(S'p2_vo'
I6
tp752
a(S'w'
I2936
tp753
a(S'p2_tl'
I225
tp754
a(S'w'
I1
tp755
a(S'p2_ll'
I1
tp756
a(S'w'
I1
tp757
a(S'p2_du'
I2
tp758
a(S'p2_cv'
I0
tp759
a(S'p2_vo'
I2
tp760
a(S'p2_du'
I1
tp761
a(S'p2_cv'
I1
tp762
a(S'p2_vo'
I7
tp763
a(S'w'
I3
tp764
a(S'tr_tl'
I189
tp765
a(S'tr_ll'
I1
tp766
a(S'w'
I728
tp767
a(S'p2_vo'
I6
tp768
a(S'w'
I2936
tp769
a(S'p2_tl'
I141
tp770
a(S'w'
I1
tp771
a(S'p2_ll'
I1
tp772
a(S'w'
I1
tp773
a(S'p2_du'
I2
tp774
a(S'p2_cv'
I0
tp775
a(S'p2_vo'
I2
tp776
a(S'p2_du'
I1
tp777
a(S'p2_cv'
I1
tp778
a(S'p2_vo'
I7
tp779
a(S'w'
I731
tp780
a(S'p2_vo'
I6
tp781
a(S'w'
I2936
tp782
a(S'p2_tl'
I189
tp783
a(S'w'
I1
tp784
a(S'p2_ll'
I1
tp785
a(S'w'
I1
tp786
a(S'p2_du'
I2
tp787
a(S'p2_cv'
I0
tp788
a(S'p2_vo'
I2
tp789
a(S'p2_du'
I1
tp790
a(S'p2_cv'
I1
tp791
a(S'p2_vo'
I7
tp792
a(S'w'
I3
tp793
a(S'tr_tl'
I159
tp794
a(S'tr_ll'
I1
tp795
a(S'w'
I728
tp796
a(S'p2_vo'
I6
tp797
a(S'w'
I2936
tp798
a(S'p2_tl'
I225
tp799
a(S'w'
I1
tp800
a(S'p2_ll'
I1
tp801
a(S'w'
I1
tp802
a(S'p2_du'
I2
tp803
a(S'p2_cv'
I0
tp804
a(S'p2_vo'
I2
tp805
a(S'p2_du'
I1
tp806
a(S'p2_cv'
I1
tp807
a(S'p2_vo'
I7
tp808
a(S'w'
I731
tp809
a(S'p2_vo'
I6
tp810
a(S'w'
I2936
tp811
a(S'p2_tl'
I141
tp812
a(S'w'
I1
tp813
a(S'p2_ll'
I1
tp814
a(S'w'
I1
tp815
a(S'p2_du'
I2
tp816
a(S'p2_cv'
I0
tp817
a(S'p2_vo'
I2
tp818
a(S'p2_du'
I1
tp819
a(S'p2_cv'
I1
tp820
a(S'p2_vo'
I7
tp821
a(S'w'
I2
tp822
a(S'tr_lr'
I12
tp823
a(S'w'
I1
tp824
a(S'tr_tl'
I112
tp825
a(S'tr_ll'
I1
tp826
a(S'w'
I728
tp827
a(S'p2_vo'
I6
tp828
a(S'w'
I2936
tp829
a(S'w'
I1
tp830
a(S'p2_ll'
I1
tp831
a(S'w'
I1
tp832
a(S'p2_du'
I2
tp833
a(S'p2_cv'
I0
tp834
a(S'p2_vo'
I2
tp835
a(S'p2_du'
I1
tp836
a(S'p2_cv'
I1
tp837
a(S'p2_vo'
I7
tp838
a(S'w'
I3
tp839
a(S'tr_ll'
I1
tp840
a(S'w'
I728
tp841
a(S'p2_vo'
I6
tp842
a(S'w'
I2936
tp843
a(S'p2_tl'
I159
tp844
a(S'w'
I1
tp845
a(S'p2_ll'
I1
tp846
a(S'w'
I1
tp847
a(S'p2_du'
I2
tp848
a(S'p2_cv'
I0
tp849
a(S'p2_vo'
I2
tp850
a(S'p2_du'
I1
tp851
a(S'p2_cv'
I1
tp852
a(S'p2_vo'
I7
tp853
a(S'w'
I3
tp854
a(S'tr_tl'
I126
tp855
a(S'tr_ll'
I1
tp856
a(S'w'
I728
tp857
a(S'p2_vo'
I6
tp858
a(S'w'
I2936
tp859
a(S'w'
I1
tp860
a(S'p2_ll'
I1
tp861
a(S'w'
I1
tp862
a(S'p2_du'
I2
tp863
a(S'p2_cv'
I0
tp864
a(S'p2_vo'
I2
tp865
a(S'p2_du'
I1
tp866
a(S'p2_cv'
I1
tp867
a(S'p2_vo'
I7
tp868
a(S'w'
I3
tp869
a(S'tr_ll'
I1
tp870
a(S'w'
I728
tp871
a(S'p2_vo'
I6
tp872
a(S'w'
I2936
tp873
a(S'p2_tl'
I168
tp874
a(S'w'
I1
tp875
a(S'p2_ll'
I1
tp876
a(S'w'
I1
tp877
a(S'p2_du'
I2
tp878
a(S'p2_cv'
I0
tp879
a(S'p2_vo'
I2
tp880
a(S'p2_du'
I1
tp881
a(S'p2_cv'
I1
tp882
a(S'p2_vo'
I7
tp883
a(S'w'
I3
tp884
a(S'tr_tl'
I141
tp885
a(S'tr_ll'
I1
tp886
a(S'w'
I728
tp887
a(S'p2_vo'
I6
tp888
a(S'w'
I2936
tp889
a(S'w'
I1
tp890
a(S'p2_ll'
I1
tp891
a(S'w'
I1
tp892
a(S'p2_du'
I2
tp893
a(S'p2_cv'
I0
tp894
a(S'p2_vo'
I2
tp895
a(S'p2_du'
I1
tp896
a(S'p2_cv'
I1
tp897
a(S'p2_vo'
I7
tp898
a(S'w'
I3
tp899
a(S'tr_ll'
I1
tp900
a(S'w'
I728
tp901
a(S'p2_vo'
I6
tp902
a(S'w'
I2936
tp903
a(S'p2_tl'
I189
tp904
a(S'w'
I1
tp905
a(S'p2_ll'
I1
tp906
a(S'w'
I1
tp907
a(S'p2_du'
I2
tp908
a(S'p2_cv'
I0
tp909
a(S'p2_vo'
I2
tp910
a(S'p2_du'
I1
tp911
a(S'p2_cv'
I1
tp912
a(S'p2_vo'
I7
tp913
a(S'w'
I3
tp914
a(S'tr_tl'
I159
tp915
a(S'tr_ll'
I1
tp916
a(S'w'
I728
tp917
a(S'p2_vo'
I6
tp918
a(S'w'
I2936
tp919
a(S'w'
I1
tp920
a(S'p2_ll'
I1
tp921
a(S'w'
I1
tp922
a(S'p2_du'
I2
tp923
a(S'p2_cv'
I0
tp924
a(S'p2_vo'
I2
tp925
a(S'p2_du'
I1
tp926
a(S'p2_cv'
I1
tp927
a(S'p2_vo'
I7
tp928
a(S'w'
I3
tp929
a(S'tr_ll'
I1
tp930
a(S'w'
I728
tp931
a(S'p2_vo'
I6
tp932
a(S'w'
I2937
tp933
a(S'w'
I1
tp934
a(S'w'
I2
tp935
a(S'p2_tl'
I28
tp936
a(S'p2_ll'
I1
tp937
a(S'p2_th'
I1
tp938
a(S'w'
I1
tp939
a(S'p2_du'
I2
tp940
a(S'p2_cv'
I0
tp941
a(S'p2_vo'
I2
tp942
a(S'w'
I1
tp943
a(S'p2_du'
I1
tp944
a(S'p2_cv'
I1
tp945
a(S'p2_vo'
I7
tp946
a(S'w'
I2
tp947
a(S'tr_lr'
I32
tp948
a(S'w'
I1
tp949
a(S'tr_tl'
I171
tp950
a(S'tr_ll'
I1
tp951
a(S'tr_th'
I1
tp952
a(S'w'
I724
tp953
a(S'p2_vo'
I6
tp954
a(S'w'
I2935
tp955
a(S'p2_vo'
I5
tp956
a(S'w'
I2201
tp957
a(S'p2_vo'
I4
tp958
a(S'w'
I1469
tp959
a(S'p2_tl'
I168
tp960
a(S'w'
I1
tp961
a(S'p2_ll'
I1
tp962
a(S'p2_th'
I0
tp963
a(S'w'
I1
tp964
a(S'p2_du'
I2
tp965
a(S'p2_cv'
I0
tp966
a(S'p2_vo'
I2
tp967
a(S'p2_du'
I1
tp968
a(S'p2_cv'
I1
tp969
a(S'p2_vo'
I7
tp970
a(S'w'
I3
tp971
a(S'tr_tl'
I82
tp972
a(S'tr_ll'
I1
tp973
a(S'w'
I728
tp974
a(S'p2_vo'
I6
tp975
a(S'w'
I2936
tp976
a(S'p2_tl'
I212
tp977
a(S'w'
I1
tp978
a(S'p2_ll'
I1
tp979
a(S'w'
I1
tp980
a(S'p2_du'
I2
tp981
a(S'p2_cv'
I0
tp982
a(S'p2_vo'
I2
tp983
a(S'p2_du'
I1
tp984
a(S'p2_cv'
I1
tp985
a(S'p2_vo'
I7
tp986
a(S'w'
I731
tp987
a(S'p2_vo'
I6
tp988
a(S'w'
I2936
tp989
a(S'p2_tl'
I28
tp990
a(S'w'
I1
tp991
a(S'p2_ll'
I1
tp992
a(S'p2_th'
I1
tp993
a(S'w'
I1
tp994
a(S'p2_du'
I2
tp995
a(S'p2_cv'
I0
tp996
a(S'p2_vo'
I2
tp997
a(S'p2_du'
I1
tp998
a(S'p2_cv'
I1
tp999
a(S'p2_vo'
I7
tp1000
a(S'w'
I3
tp1001
a(S'tr_tl'
I28
tp1002
a(S'tr_ll'
I1
tp1003
a(S'w'
I727
tp1004
a(S'p2_vo'
I6
tp1005
a(S'w'
I2937
tp1006
a(S'p2_tl'
I168
tp1007
a(S'w'
I1
tp1008
a(S'p2_ll'
I1
tp1009
a(S'p2_th'
I0
tp1010
a(S'w'
I1
tp1011
a(S'p2_du'
I2
tp1012
a(S'p2_cv'
I0
tp1013
a(S'p2_vo'
I2
tp1014
a(S'p2_du'
I1
tp1015
a(S'p2_cv'
I1
tp1016
a(S'p2_vo'
I7
tp1017
a(S'w'
I730
tp1018
a(S'p2_vo'
I6
tp1019
a(S'w'
I2937
tp1020
a(S'p2_tl'
I212
tp1021
a(S'w'
I1
tp1022
a(S'p2_ll'
I1
tp1023
a(S'w'
I1
tp1024
a(S'p2_du'
I2
tp1025
a(S'p2_cv'
I0
tp1026
a(S'p2_vo'
I2
tp1027
a(S'p2_du'
I1
tp1028
a(S'p2_cv'
I1
tp1029
a(S'p2_vo'
I7
tp1030
a(S'w'
I3
tp1031
a(S'tr_tl'
I253
tp1032
a(S'tr_ll'
I1
tp1033
a(S'tr_th'
I0
tp1034
a(S'w'
I727
tp1035
a(S'p2_vo'
I6
tp1036
a(S'w'
I2937
tp1037
a(S'p2_tl'
I28
tp1038
a(S'w'
I1
tp1039
a(S'p2_ll'
I1
tp1040
a(S'p2_th'
I1
tp1041
a(S'w'
I1
tp1042
a(S'p2_du'
I2
tp1043
a(S'p2_cv'
I0
tp1044
a(S'p2_vo'
I2
tp1045
a(S'p2_du'
I1
tp1046
a(S'p2_cv'
I1
tp1047
a(S'p2_vo'
I7
tp1048
a(S'w'
I730
tp1049
a(S'p2_vo'
I6
tp1050
a(S'w'
I2937
tp1051
a(S'p2_tl'
I168
tp1052
a(S'w'
I1
tp1053
a(S'p2_ll'
I1
tp1054
a(S'p2_th'
I0
tp1055
a(S'w'
I1
tp1056
a(S'p2_du'
I2
tp1057
a(S'p2_cv'
I0
tp1058
a(S'p2_vo'
I2
tp1059
a(S'p2_du'
I1
tp1060
a(S'p2_cv'
I1
tp1061
a(S'p2_vo'
I7
tp1062
a(S'w'
I3
tp1063
a(S'tr_tl'
I212
tp1064
a(S'tr_ll'
I1
tp1065
a(S'w'
I727
tp1066
a(S'p2_vo'
I6
tp1067
a(S'w'
I2936
tp1068
a(S'p2_tl'
I212
tp1069
a(S'w'
I1
tp1070
a(S'p2_ll'
I1
tp1071
a(S'w'
I1
tp1072
a(S'p2_du'
I2
tp1073
a(S'p2_cv'
I0
tp1074
a(S'p2_vo'
I2
tp1075
a(S'p2_du'
I1
tp1076
a(S'p2_cv'
I1
tp1077
a(S'p2_vo'
I7
tp1078
a(S'w'
I731
tp1079
a(S'p2_vo'
I6
tp1080
a(S'w'
I2936
tp1081
a(S'p2_tl'
I28
tp1082
a(S'w'
I1
tp1083
a(S'p2_ll'
I1
tp1084
a(S'p2_th'
I1
tp1085
a(S'w'
I1
tp1086
a(S'p2_du'
I2
tp1087
a(S'p2_cv'
I0
tp1088
a(S'p2_vo'
I2
tp1089
a(S'p2_du'
I1
tp1090
a(S'p2_cv'
I1
tp1091
a(S'p2_vo'
I7
tp1092
a(S'w'
I3
tp1093
a(S'tr_tl'
I253
tp1094
a(S'tr_ll'
I1
tp1095
a(S'w'
I728
tp1096
a(S'p2_vo'
I6
tp1097
a(S'w'
I2936
tp1098
a(S'p2_tl'
I168
tp1099
a(S'w'
I1
tp1100
a(S'p2_ll'
I1
tp1101
a(S'p2_th'
I0
tp1102
a(S'w'
I1
tp1103
a(S'p2_du'
I2
tp1104
a(S'p2_cv'
I0
tp1105
a(S'p2_vo'
I2
tp1106
a(S'p2_du'
I1
tp1107
a(S'p2_cv'
I1
tp1108
a(S'p2_vo'
I7
tp1109
a(S'w'
I731
tp1110
a(S'p2_vo'
I6
tp1111
a(S'w'
I2936
tp1112
a(S'p2_tl'
I212
tp1113
a(S'w'
I1
tp1114
a(S'p2_ll'
I1
tp1115
a(S'w'
I1
tp1116
a(S'p2_du'
I2
tp1117
a(S'p2_cv'
I0
tp1118
a(S'p2_vo'
I2
tp1119
a(S'p2_du'
I1
tp1120
a(S'p2_cv'
I1
tp1121
a(S'p2_vo'
I7
tp1122
a(S'w'
I3
tp1123
a(S'tr_tl'
I28
tp1124
a(S'tr_ll'
I1
tp1125
a(S'tr_th'
I1
tp1126
a(S'w'
I728
tp1127
a(S'p2_vo'
I6
tp1128
a(S'w'
I2936
tp1129
a(S'p2_tl'
I28
tp1130
a(S'w'
I1
tp1131
a(S'p2_ll'
I1
tp1132
a(S'p2_th'
I1
tp1133
a(S'w'
I1
tp1134
a(S'p2_du'
I2
tp1135
a(S'p2_cv'
I0
tp1136
a(S'p2_vo'
I2
tp1137
a(S'p2_du'
I1
tp1138
a(S'p2_cv'
I1
tp1139
a(S'p2_vo'
I7
tp1140
a(S'w'
I731
tp1141
a(S'p2_vo'
I6
tp1142
a(S'w'
I2936
tp1143
a(S'p2_tl'
I168
tp1144
a(S'w'
I1
tp1145
a(S'p2_ll'
I1
tp1146
a(S'p2_th'
I0
tp1147
a(S'w'
I1
tp1148
a(S'p2_du'
I2
tp1149
a(S'p2_cv'
I0
tp1150
a(S'p2_vo'
I2
tp1151
a(S'p2_du'
I1
tp1152
a(S'p2_cv'
I1
tp1153
a(S'p2_vo'
I7
tp1154
a(S'w'
I3
tp1155
a(S'tr_tl'
I82
tp1156
a(S'tr_ll'
I1
tp1157
a(S'w'
I728
tp1158
a(S'p2_vo'
I6
tp1159
a(S'w'
I2936
tp1160
a(S'p2_tl'
I212
tp1161
a(S'w'
I1
tp1162
a(S'p2_ll'
I1
tp1163
a(S'w'
I1
tp1164
a(S'p2_du'
I2
tp1165
a(S'p2_cv'
I0
tp1166
a(S'p2_vo'
I2
tp1167
a(S'p2_du'
I1
tp1168
a(S'p2_cv'
I1
tp1169
a(S'p2_vo'
I7
tp1170
a(S'w'
I731
tp1171
a(S'p2_vo'
I6
tp1172
a(S'w'
I2929
tp1173
a.