(lp1
(S'clock'
p2
I1789772
tp3
a(S'ch_no'
I1
tp4
a(S'ch_tr'
I0
tp5
a(S'ch_p2'
I1
tp6
a(S'ch_p1'
I1
tp7
a(S'ch_no'
I1
tp8
a(S'ch_tr'
I1
tp9
a(S'ch_p2'
I1
tp10
a(S'ch_p1'
I1
tp11
a(S'p1_lh'
I1
tp12
a(S'p1_cv'
I1
tp13
a(S'w'
I1
tp14
a(S'p2_lh'
I1
tp15
a(S'p2_cv'
I1
tp16
a(S'w'
I1
tp17
a(S'no_lh'
I1
tp18
a(S'no_cv'
I1
tp19
a(S'w'
I1
tp20
a(S'p1_sp'
I7
tp21
a(S'p1_sn'
I1
tp22
a(S'p1_ss'
I7
tp23
a(S'w'
I1
tp24
a(S'p2_sp'
I7
tp25
a(S'p2_sn'
I1
tp26
a(S'p2_ss'
I7
tp27
a(S'w'
I26
tp28
a(S'w'
I5
tp29
a(S'w'
I677
tp30
a(S'p1_du'
I2
tp31
a(S'w'
I16
tp32
a(S'p2_du'
I3
tp33
a(S'w'
I5115
tp34
a(S'p1_vo'
I8
tp35
a(S'w'
I6
tp36
a(S'p1_ll'
I1
tp37
a(S'p1_th'
I1
tp38
a(S'w'
I2
tp39
a(S'p1_tl'
I84
tp40
a(S'w'
I12
tp41
a(S'p2_vo'
I8
tp42
a(S'w'
I5
tp43
a(S'p2_ll'
I1
tp44
a(S'w'
I1
tp45
a(S'p2_tl'
I254
tp46
a(S'w'
I5
tp47
a(S'tr_lr'
I16
tp48
a(S'w'
I5
tp49
a(S'tr_ll'
I1
tp50
a(S'w'
I1
tp51
a(S'tr_tl'
I254
tp52
a(S'w'
I9
tp53
a(S'ch_no'
I1
tp54
a(S'ch_tr'
I1
tp55
a(S'ch_p2'
I1
tp56
a(S'ch_p1'
I1
tp57
a(S'w'
I19
tp58
a(S'no_vo'
I7
tp59
a(S'w'
I2
tp60
a(S'no_ll'
I1
tp61
a(S'w'
I1
tp62
a(S'no_np'
I3
tp63
a(S'w'
I661
tp64
a(S'p1_vo'
I7
tp65
a(S'w'
I7
tp66
a(S'p2_vo'
I7
tp67
a(S'w'
I12
tp68
a(S'no_vo'
I3
tp69
a(S'w'
I2
tp70
a(S'no_ll'
I1
tp71
a(S'w'
I1
tp72
a(S'no_np'
I2
tp73
a(S'w'
I712
tp74
a(S'p1_vo'
I6
tp75
a(S'w'
I7
tp76
a(S'p2_vo'
I6
tp77
a(S'w'
I11
tp78
a(S'no_vo'
I0
tp79
a(S'w'
I716
tp80
a(S'p1_vo'
I5
tp81
a(S'w'
I6
tp82
a(S'p2_vo'
I5
tp83
a(S'w'
I728
tp84
a(S'p1_vo'
I4
tp85
a(S'w'
I6
tp86
a(S'p2_vo'
I4
tp87
a(S'w'
I728
tp88
a(S'p1_vo'
I3
tp89
a(S'w'
I6
tp90
a(S'p2_vo'
I3
tp91
a(S'w'
I1461
tp92
a(S'p1_vo'
I0
tp93
a(S'w'
I6
tp94
a(S'p2_vo'
I0
tp95
a(S'w'
I6
tp96
a(S'tr_lr'
I0
tp97
a(S'w'
I25
tp98
a(S'no_vo'
I7
tp99
a(S'w'
I3
tp100
a(S'no_ll'
I1
tp101
a(S'w'
I1
tp102
a(S'no_np'
I3
tp103
a(S'w'
I711
tp104
a(S'no_vo'
I3
tp105
a(S'w'
I2
tp106
a(S'no_ll'
I1
tp107
a(S'w'
I1
tp108
a(S'no_np'
I2
tp109
a(S'w'
I730
tp110
a(S'no_vo'
I0
tp111
a(S'w'
I1450
tp112
a(S'p1_vo'
I1
tp113
a(S'w'
I6
tp114
a(S'p2_vo'
I1
tp115
a(S'w'
I2201
tp116
a(S'p1_vo'
I8
tp117
a(S'w'
I6
tp118
a(S'w'
I12
tp119
a(S'p2_vo'
I8
tp120
a(S'w'
I6
tp121
a(S'w'
I6
tp122
a(S'tr_lr'
I16
tp123
a(S'w'
I4
tp124
a(S'tr_ll'
I1
tp125
a(S'w'
I10
tp126
a(S'ch_no'
I1
tp127
a(S'ch_tr'
I1
tp128
a(S'ch_p2'
I1
tp129
a(S'ch_p1'
I1
tp130
a(S'w'
I1
tp131
a(S'ch_no'
I1
tp132
a(S'ch_tr'
I1
tp133
a(S'ch_p2'
I1
tp134
a(S'ch_p1'
I1
tp135
a(S'w'
I18
tp136
a(S'no_vo'
I7
tp137
a(S'w'
I2
tp138
a(S'no_ll'
I1
tp139
a(S'w'
I2
tp140
a(S'no_np'
I3
tp141
a(S'w'
I662
tp142
a(S'p1_vo'
I7
tp143
a(S'w'
I6
tp144
a(S'p2_vo'
I7
tp145
a(S'w'
I12
tp146
a(S'no_vo'
I3
tp147
a(S'w'
I2
tp148
a(S'no_ll'
I1
tp149
a(S'w'
I1
tp150
a(S'no_np'
I2
tp151
a(S'w'
I712
tp152
a(S'p1_vo'
I6
tp153
a(S'w'
I7
tp154
a(S'p2_vo'
I6
tp155
a(S'w'
I11
tp156
a(S'no_vo'
I0
tp157
a(S'w'
I716
tp158
a(S'p1_vo'
I5
tp159
a(S'w'
I7
tp160
a(S'p2_vo'
I5
tp161
a(S'w'
I727
tp162
a(S'p1_vo'
I4
tp163
a(S'w'
I6
tp164
a(S'p2_vo'
I4
tp165
a(S'w'
I728
tp166
a(S'p1_vo'
I3
tp167
a(S'w'
I6
tp168
a(S'p2_vo'
I3
tp169
a(S'w'
I1461
tp170
a(S'p1_vo'
I0
tp171
a(S'w'
I6
tp172
a(S'p2_vo'
I0
tp173
a(S'w'
I7
tp174
a(S'tr_lr'
I0
tp175
a(S'w'
I2922
tp176
a(S'p1_vo'
I1
tp177
a(S'w'
I7
tp178
a(S'p2_vo'
I1
tp179
a(S'w'
I7339
tp180
a(S'p1_du'
I3
tp181
a(S'p1_vo'
I6
tp182
a(S'w'
I7
tp183
a(S'p1_tl'
I30
tp184
a(S'w'
I11
tp185
a(S'p2_vo'
I8
tp186
a(S'w'
I5
tp187
a(S'p2_ll'
I1
tp188
a(S'p2_th'
I1
tp189
a(S'w'
I2
tp190
a(S'p2_tl'
I29
tp191
a(S'w'
I7
tp192
a(S'tr_lr'
I16
tp193
a(S'w'
I4
tp194
a(S'tr_ll'
I1
tp195
a(S'tr_th'
I2
tp196
a(S'w'
I1
tp197
a(S'tr_tl'
I59
tp198
a(S'w'
I25
tp199
a(S'no_vo'
I7
tp200
a(S'w'
I2
tp201
a(S'no_ll'
I1
tp202
a(S'w'
I1
tp203
a(S'no_np'
I3
tp204
a(S'w'
I662
tp205
a(S'p1_vo'
I5
tp206
a(S'w'
I6
tp207
a(S'p2_vo'
I7
tp208
a(S'w'
I12
tp209
a(S'no_vo'
I3
tp210
a(S'w'
I2
tp211
a(S'no_ll'
I1
tp212
a(S'w'
I1
tp213
a(S'no_np'
I2
tp214
a(S'w'
I712
tp215
a(S'p1_vo'
I4
tp216
a(S'w'
I7
tp217
a(S'p2_vo'
I6
tp218
a(S'w'
I11
tp219
a(S'no_vo'
I0
tp220
a(S'w'
I716
tp221
a(S'p1_vo'
I3
tp222
a(S'w'
I6
tp223
a(S'p2_vo'
I5
tp224
a(S'w'
I734
tp225
a(S'p2_vo'
I4
tp226
a(S'w'
I734
tp227
a(S'p2_vo'
I3
tp228
a(S'w'
I1466
tp229
a(S'p1_vo'
I6
tp230
a(S'w'
I6
tp231
a(S'p1_ll'
I1
tp232
a(S'p1_th'
I0
tp233
a(S'w'
I1
tp234
a(S'p1_tl'
I255
tp235
a(S'w'
I12
tp236
a(S'p2_vo'
I8
tp237
a(S'w'
I5
tp238
a(S'p2_ll'
I1
tp239
a(S'p2_th'
I0
tp240
a(S'w'
I1
tp241
a(S'p2_tl'
I254
tp242
a(S'w'
I10
tp243
a(S'tr_ll'
I1
tp244
a(S'tr_th'
I1
tp245
a(S'w'
I1
tp246
a(S'tr_tl'
I252
tp247
a(S'w'
I24
tp248
a(S'no_vo'
I7
tp249
a(S'w'
I3
tp250
a(S'no_ll'
I1
tp251
a(S'w'
I1
tp252
a(S'no_np'
I3
tp253
a(S'w'
I665
tp254
a(S'p1_vo'
I5
tp255
a(S'w'
I6
tp256
a(S'p2_vo'
I7
tp257
a(S'w'
I12
tp258
a(S'no_vo'
I3
tp259
a(S'w'
I3
tp260
a(S'no_ll'
I1
tp261
a(S'w'
I1
tp262
a(S'no_np'
I2
tp263
a(S'w'
I712
tp264
a(S'p1_vo'
I4
tp265
a(S'w'
I6
tp266
a(S'p2_vo'
I6
tp267
a(S'w'
I11
tp268
a(S'no_vo'
I0
tp269
a(S'w'
I717
tp270
a(S'p1_vo'
I3
tp271
a(S'w'
I6
tp272
a(S'p2_vo'
I5
tp273
a(S'w'
I734
tp274
a(S'p2_vo'
I4
tp275
a(S'w'
I734
tp276
a(S'p2_vo'
I3
tp277
a(S'w'
I1465
tp278
a(S'p1_vo'
I6
tp279
a(S'w'
I7
tp280
a(S'p1_tl'
I227
tp281
a(S'w'
I11
tp282
a(S'p2_vo'
I8
tp283
a(S'w'
I6
tp284
a(S'p2_tl'
I226
tp285
a(S'w'
I9
tp286
a(S'tr_ll'
I1
tp287
a(S'w'
I1
tp288
a(S'tr_tl'
I197
tp289
a(S'w'
I25
tp290
a(S'no_vo'
I7
tp291
a(S'w'
I3
tp292
a(S'no_ll'
I1
tp293
a(S'w'
I1
tp294
a(S'no_np'
I3
tp295
a(S'w'
I667
tp296
a(S'p1_vo'
I5
tp297
a(S'w'
I6
tp298
a(S'p2_vo'
I7
tp299
a(S'w'
I12
tp300
a(S'no_vo'
I3
tp301
a(S'w'
I2
tp302
a(S'no_ll'
I1
tp303
a(S'w'
I2
tp304
a(S'no_np'
I2
tp305
a(S'w'
I711
tp306
a(S'p1_vo'
I4
tp307
a(S'w'
I7
tp308
a(S'p2_vo'
I6
tp309
a(S'w'
I11
tp310
a(S'no_vo'
I0
tp311
a(S'w'
I716
tp312
a(S'p1_vo'
I3
tp313
a(S'w'
I7
tp314
a(S'p2_vo'
I5
tp315
a(S'w'
I733
tp316
a(S'p2_vo'
I4
tp317
a(S'w'
I734
tp318
a(S'p2_vo'
I3
tp319
a(S'w'
I1466
tp320
a(S'p1_vo'
I6
tp321
a(S'w'
I6
tp322
a(S'p1_ll'
I1
tp323
a(S'p1_th'
I1
tp324
a(S'w'
I1
tp325
a(S'p1_tl'
I84
tp326
a(S'w'
I12
tp327
a(S'p2_vo'
I8
tp328
a(S'w'
I6
tp329
a(S'p2_tl'
I254
tp330
a(S'w'
I9
tp331
a(S'tr_ll'
I1
tp332
a(S'w'
I1
tp333
a(S'tr_tl'
I252
tp334
a(S'w'
I8
tp335
a(S'ch_no'
I1
tp336
a(S'ch_tr'
I1
tp337
a(S'ch_p2'
I1
tp338
a(S'ch_p1'
I1
tp339
a(S'w'
I1
tp340
a(S'ch_no'
I1
tp341
a(S'ch_tr'
I1
tp342
a(S'ch_p2'
I1
tp343
a(S'ch_p1'
I1
tp344
a(S'w'
I19
tp345
a(S'no_vo'
I7
tp346
a(S'w'
I2
tp347
a(S'no_ll'
I1
tp348
a(S'w'
I1
tp349
a(S'no_np'
I3
tp350
a(S'w'
I663
tp351
a(S'p1_vo'
I5
tp352
a(S'w'
I7
tp353
a(S'p2_vo'
I7
tp354
a(S'w'
I12
tp355
a(S'no_vo'
I3
tp356
a(S'w'
I2
tp357
a(S'no_ll'
I1
tp358
a(S'w'
I1
tp359
a(S'no_np'
I2
tp360
a(S'w'
I712
tp361
a(S'p1_vo'
I4
tp362
a(S'w'
I6
tp363
a(S'p2_vo'
I6
tp364
a(S'w'
I12
tp365
a(S'no_vo'
I0
tp366
a(S'w'
I716
tp367
a(S'p1_vo'
I3
tp368
a(S'w'
I6
tp369
a(S'p2_vo'
I5
tp370
a(S'w'
I734
tp371
a(S'p2_vo'
I4
tp372
a(S'w'
I734
tp373
a(S'p2_vo'
I3
tp374
a(S'w'
I1466
tp375
a(S'p1_vo'
I6
tp376
a(S'w'
I6
tp377
a(S'w'
I12
tp378
a(S'p2_vo'
I8
tp379
a(S'w'
I6
tp380
a(S'w'
I10
tp381
a(S'tr_ll'
I1
tp382
a(S'w'
I9
tp383
a(S'ch_no'
I1
tp384
a(S'ch_tr'
I1
tp385
a(S'ch_p2'
I1
tp386
a(S'ch_p1'
I1
tp387
a(S'w'
I1
tp388
a(S'ch_no'
I1
tp389
a(S'ch_tr'
I1
tp390
a(S'ch_p2'
I1
tp391
a(S'ch_p1'
I1
tp392
a(S'w'
I18
tp393
a(S'no_vo'
I7
tp394
a(S'w'
I3
tp395
a(S'no_ll'
I1
tp396
a(S'w'
I1
tp397
a(S'no_np'
I3
tp398
a(S'w'
I663
tp399
a(S'p1_vo'
I5
tp400
a(S'w'
I6
tp401
a(S'p2_vo'
I7
tp402
a(S'w'
I12
tp403
a(S'no_vo'
I3
tp404
a(S'w'
I3
tp405
a(S'no_ll'
I1
tp406
a(S'w'
I1
tp407
a(S'no_np'
I2
tp408
a(S'w'
I712
tp409
a(S'p1_vo'
I4
tp410
a(S'w'
I6
tp411
a(S'p2_vo'
I6
tp412
a(S'w'
I11
tp413
a(S'no_vo'
I0
tp414
a(S'w'
I717
tp415
a(S'p1_vo'
I3
tp416
a(S'w'
I6
tp417
a(S'p2_vo'
I5
tp418
a(S'w'
I734
tp419
a(S'p2_vo'
I4
tp420
a(S'w'
I733
tp421
a(S'p2_vo'
I3
tp422
a(S'w'
I1462
tp423
a(S'p1_vo'
I0
tp424
a(S'w'
I6
tp425
a(S'p2_vo'
I0
tp426
a(S'w'
I10
tp427
a(S'ch_no'
I1
tp428
a(S'ch_tr'
I1
tp429
a(S'ch_p2'
I1
tp430
a(S'ch_p1'
I1
tp431
a(S'w'
I1
tp432
a(S'ch_no'
I1
tp433
a(S'ch_tr'
I1
tp434
a(S'ch_p2'
I1
tp435
a(S'ch_p1'
I1
tp436
a(S'w'
I18
tp437
a(S'no_vo'
I7
tp438
a(S'w'
I3
tp439
a(S'no_ll'
I1
tp440
a(S'w'
I1
tp441
a(S'no_np'
I3
tp442
a(S'w'
I713
tp443
a(S'no_vo'
I3
tp444
a(S'w'
I2
tp445
a(S'no_ll'
I1
tp446
a(S'w'
I1
tp447
a(S'no_np'
I2
tp448
a(S'w'
I729
tp449
a(S'no_vo'
I0
tp450
a(S'w'
I1451
tp451
a(S'p1_vo'
I1
tp452
a(S'w'
I6
tp453
a(S'p2_vo'
I1
tp454
a(S'w'
I2200
tp455
a(S'p1_vo'
I6
tp456
a(S'w'
I7
tp457
a(S'p1_tl'
I126
tp458
a(S'w'
I12
tp459
a(S'p2_vo'
I8
tp460
a(S'w'
I5
tp461
a(S'p2_ll'
I1
tp462
a(S'p2_th'
I1
tp463
a(S'w'
I1
tp464
a(S'p2_tl'
I29
tp465
a(S'w'
I11
tp466
a(S'tr_ll'
I1
tp467
a(S'tr_th'
I2
tp468
a(S'w'
I1
tp469
a(S'tr_tl'
I59
tp470
a(S'w'
I8
tp471
a(S'ch_no'
I1
tp472
a(S'ch_tr'
I1
tp473
a(S'ch_p2'
I1
tp474
a(S'ch_p1'
I1
tp475
a(S'w'
I1
tp476
a(S'ch_no'
I1
tp477
a(S'ch_tr'
I1
tp478
a(S'ch_p2'
I1
tp479
a(S'ch_p1'
I1
tp480
a(S'w'
I18
tp481
a(S'no_vo'
I7
tp482
a(S'w'
I3
tp483
a(S'no_ll'
I1
tp484
a(S'w'
I1
tp485
a(S'no_np'
I3
tp486
a(S'w'
I661
tp487
a(S'p1_vo'
I5
tp488
a(S'w'
I6
tp489
a(S'p2_vo'
I7
tp490
a(S'w'
I12
tp491
a(S'no_vo'
I3
tp492
a(S'w'
I3
tp493
a(S'no_ll'
I1
tp494
a(S'w'
I1
tp495
a(S'no_np'
I2
tp496
a(S'w'
I712
tp497
a(S'p1_vo'
I4
tp498
a(S'w'
I6
tp499
a(S'p2_vo'
I6
tp500
a(S'w'
I11
tp501
a(S'no_vo'
I0
tp502
a(S'w'
I717
tp503
a(S'p1_vo'
I3
tp504
a(S'w'
I6
tp505
a(S'p2_vo'
I5
tp506
a(S'w'
I734
tp507
a(S'p2_vo'
I4
tp508
a(S'w'
I734
tp509
a(S'p2_vo'
I3
tp510
a(S'w'
I1461
tp511
a(S'p1_vo'
I0
tp512
a(S'w'
I6
tp513
a(S'p2_vo'
I0
tp514
a(S'w'
I10
tp515
a(S'ch_no'
I1
tp516
a(S'ch_tr'
I1
tp517
a(S'ch_p2'
I1
tp518
a(S'ch_p1'
I1
tp519
a(S'w'
I1
tp520
a(S'ch_no'
I1
tp521
a(S'ch_tr'
I1
tp522
a(S'ch_p2'
I1
tp523
a(S'ch_p1'
I1
tp524
a(S'w'
I18
tp525
a(S'no_vo'
I7
tp526
a(S'w'
I3
tp527
a(S'no_ll'
I1
tp528
a(S'w'
I1
tp529
a(S'no_np'
I3
tp530
a(S'w'
I713
tp531
a(S'no_vo'
I3
tp532
a(S'w'
I2
tp533
a(S'no_ll'
I1
tp534
a(S'w'
I1
tp535
a(S'no_np'
I2
tp536
a(S'w'
I730
tp537
a(S'no_vo'
I0
tp538
a(S'w'
I1450
tp539
a(S'p1_vo'
I1
tp540
a(S'w'
I6
tp541
a(S'p2_vo'
I1
tp542
a(S'w'
I2207
tp543
a(S'ch_no'
I1
tp544
a(S'ch_tr'
I1
tp545
a(S'ch_p2'
I1
tp546
a(S'ch_p1'
I1
tp547
a(S'w'
I1
tp548
a(S'ch_no'
I1
tp549
a(S'ch_tr'
I1
tp550
a(S'ch_p2'
I1
tp551
a(S'ch_p1'
I1
tp552
a(S'w'
I19
tp553
a(S'no_vo'
I7
tp554
a(S'w'
I2
tp555
a(S'no_ll'
I1
tp556
a(S'w'
I1
tp557
a(S'no_np'
I3
tp558
a(S'w'
I713
tp559
a(S'no_vo'
I3
tp560
a(S'w'
I2
tp561
a(S'no_ll'
I1
tp562
a(S'w'
I1
tp563
a(S'no_np'
I2
tp564
a(S'w'
I730
tp565
a(S'no_vo'
I0
tp566
a(S'w'
I3662
tp567
a(S'p1_vo'
I6
tp568
a(S'w'
I6
tp569
a(S'p1_tl'
I172
tp570
a(S'w'
I12
tp571
a(S'p2_vo'
I8
tp572
a(S'w'
I6
tp573
a(S'p2_tl'
I64
tp574
a(S'w'
I9
tp575
a(S'tr_lr'
I127
tp576
a(S'w'
I4
tp577
a(S'tr_ll'
I1
tp578
a(S'w'
I1
tp579
a(S'tr_tl'
I128
tp580
a(S'w'
I9
tp581
a(S'ch_no'
I1
tp582
a(S'ch_tr'
I1
tp583
a(S'ch_p2'
I1
tp584
a(S'ch_p1'
I1
tp585
a(S'w'
I1
tp586
a(S'ch_no'
I1
tp587
a(S'ch_tr'
I1
tp588
a(S'ch_p2'
I1
tp589
a(S'ch_p1'
I1
tp590
a(S'w'
I19
tp591
a(S'no_vo'
I7
tp592
a(S'w'
I2
tp593
a(S'no_ll'
I1
tp594
a(S'w'
I1
tp595
a(S'no_np'
I3
tp596
a(S'w'
I658
tp597
a(S'p1_vo'
I5
tp598
a(S'w'
I6
tp599
a(S'p2_vo'
I7
tp600
a(S'w'
I12
tp601
a(S'no_vo'
I3
tp602
a(S'w'
I3
tp603
a(S'no_ll'
I1
tp604
a(S'w'
I1
tp605
a(S'no_np'
I2
tp606
a(S'w'
I712
tp607
a(S'p1_vo'
I4
tp608
a(S'w'
I6
tp609
a(S'p2_vo'
I6
tp610
a(S'w'
I11
tp611
a(S'no_vo'
I0
tp612
a(S'w'
I717
tp613
a(S'p1_vo'
I3
tp614
a(S'w'
I6
tp615
a(S'p2_vo'
I5
tp616
a(S'w'
I734
tp617
a(S'p2_vo'
I4
tp618
a(S'w'
I734
tp619
a(S'p2_vo'
I3
tp620
a(S'w'
I1461
tp621
a(S'p1_vo'
I0
tp622
a(S'w'
I6
tp623
a(S'p2_vo'
I0
tp624
a(S'w'
I2929
tp625
a(S'p1_vo'
I1
tp626
a(S'w'
I6
tp627
a(S'p2_vo'
I1
tp628
a(S'w'
I12475
tp629
a(S'p1_vo'
I6
tp630
a(S'w'
I6
tp631
a(S'p1_ll'
I1
tp632
a(S'p1_th'
I0
tp633
a(S'w'
I2
tp634
a(S'p1_tl'
I214
tp635
a(S'w'
I16
tp636
a(S'p2_du'
I0
tp637
a(S'p2_vo'
I8
tp638
a(S'w'
I6
tp639
a(S'p2_ll'
I1
tp640
a(S'p2_th'
I0
tp641
a(S'w'
I1
tp642
a(S'p2_tl'
I213
tp643
a(S'w'
I10
tp644
a(S'tr_lr'
I47
tp645
a(S'w'
I4
tp646
a(S'tr_ll'
I1
tp647
a(S'tr_th'
I1
tp648
a(S'w'
I1
tp649
a(S'tr_tl'
I171
tp650
a(S'w'
I25
tp651
a(S'no_vo'
I7
tp652
a(S'w'
I2
tp653
a(S'no_ll'
I1
tp654
a(S'w'
I2
tp655
a(S'no_np'
I3
tp656
a(S'w'
I652
tp657
a(S'p1_vo'
I5
tp658
a(S'w'
I7
tp659
a(S'p2_vo'
I7
tp660
a(S'w'
I12
tp661
a(S'no_vo'
I3
tp662
a(S'w'
I2
tp663
a(S'no_ll'
I1
tp664
a(S'w'
I1
tp665
a(S'no_np'
I2
tp666
a(S'w'
I712
tp667
a(S'p1_vo'
I4
tp668
a(S'w'
I7
tp669
a(S'p2_vo'
I6
tp670
a(S'w'
I11
tp671
a(S'no_vo'
I0
tp672
a(S'w'
I716
tp673
a(S'p1_vo'
I3
tp674
a(S'w'
I6
tp675
a(S'p2_vo'
I5
tp676
a(S'w'
I734
tp677
a(S'p2_vo'
I4
tp678
a(S'w'
I734
tp679
a(S'p2_vo'
I3
tp680
a(S'w'
I1466
tp681
a(S'p1_vo'
I6
tp682
a(S'w'
I6
tp683
a(S'p1_tl'
I191
tp684
a(S'w'
I12
tp685
a(S'p2_vo'
I8
tp686
a(S'w'
I6
tp687
a(S'p2_tl'
I190
tp688
a(S'w'
I10
tp689
a(S'tr_ll'
I1
tp690
a(S'w'
I1
tp691
a(S'tr_tl'
I125
tp692
a(S'w'
I25
tp693
a(S'no_vo'
I7
tp694
a(S'w'
I2
tp695
a(S'no_ll'
I1
tp696
a(S'w'
I1
tp697
a(S'no_np'
I3
tp698
a(S'w'
I666
tp699
a(S'p1_vo'
I5
tp700
a(S'w'
I6
tp701
a(S'p2_vo'
I7
tp702
a(S'w'
I12
tp703
a(S'no_vo'
I3
tp704
a(S'w'
I3
tp705
a(S'no_ll'
I1
tp706
a(S'w'
I1
tp707
a(S'no_np'
I2
tp708
a(S'w'
I712
tp709
a(S'p1_vo'
I4
tp710
a(S'w'
I6
tp711
a(S'p2_vo'
I6
tp712
a(S'w'
I11
tp713
a(S'no_vo'
I0
tp714
a(S'w'
I717
tp715
a(S'p1_vo'
I3
tp716
a(S'w'
I6
tp717
a(S'p2_vo'
I5
tp718
a(S'w'
I734
tp719
a(S'p2_vo'
I4
tp720
a(S'w'
I734
tp721
a(S'p2_vo'
I3
tp722
a(S'w'
I1467
tp723
a(S'p1_vo'
I6
tp724
a(S'w'
I7
tp725
a(S'p1_tl'
I170
tp726
a(S'w'
I13
tp727
a(S'p2_vo'
I8
tp728
a(S'w'
I6
tp729
a(S'p2_tl'
I169
tp730
a(S'w'
I9
tp731
a(S'tr_lr'
I127
tp732
a(S'w'
I5
tp733
a(S'tr_ll'
I1
tp734
a(S'w'
I1
tp735
a(S'tr_tl'
I83
tp736
a(S'w'
I27
tp737
a(S'no_vo'
I7
tp738
a(S'w'
I2
tp739
a(S'no_ll'
I1
tp740
a(S'w'
I1
tp741
a(S'no_np'
I3
tp742
a(S'w'
I657
tp743
a(S'p1_vo'
I5
tp744
a(S'w'
I6
tp745
a(S'p2_vo'
I7
tp746
a(S'w'
I12
tp747
a(S'no_vo'
I3
tp748
a(S'w'
I2
tp749
a(S'no_ll'
I1
tp750
a(S'w'
I1
tp751
a(S'no_np'
I2
tp752
a(S'w'
I712
tp753
a(S'p1_vo'
I4
tp754
a(S'w'
I7
tp755
a(S'p2_vo'
I6
tp756
a(S'w'
I11
tp757
a(S'no_vo'
I0
tp758
a(S'w'
I716
tp759
a(S'p1_vo'
I3
tp760
a(S'w'
I7
tp761
a(S'p2_vo'
I5
tp762
a(S'w'
I733
tp763
a(S'p2_vo'
I4
tp764
a(S'w'
I734
tp765
a(S'p2_vo'
I3
tp766
a(S'w'
I1461
tp767
a(S'p1_vo'
I0
tp768
a(S'w'
I6
tp769
a(S'p2_vo'
I0
tp770
a(S'w'
I2929
tp771
a(S'p1_vo'
I1
tp772
a(S'w'
I7
tp773
a(S'p2_vo'
I1
tp774
a(S'w'
I22748
tp775
a(S'p1_vo'
I6
tp776
a(S'w'
I6
tp777
a(S'p1_ll'
I1
tp778
a(S'p1_th'
I1
tp779
a(S'w'
I2
tp780
a(S'p1_tl'
I126
tp781
a(S'w'
I17
tp782
a(S'p2_du'
I3
tp783
a(S'p2_vo'
I8
tp784
a(S'w'
I6
tp785
a(S'p2_ll'
I1
tp786
a(S'p2_th'
I1
tp787
a(S'w'
I1
tp788
a(S'p2_tl'
I29
tp789
a(S'w'
I10
tp790
a(S'tr_lr'
I16
tp791
a(S'w'
I4
tp792
a(S'tr_ll'
I1
tp793
a(S'tr_th'
I2
tp794
a(S'w'
I1
tp795
a(S'tr_tl'
I59
tp796
a(S'w'
I8
tp797
a(S'ch_no'
I1
tp798
a(S'ch_tr'
I1
tp799
a(S'ch_p2'
I1
tp800
a(S'ch_p1'
I1
tp801
a(S'w'
I1
tp802
a(S'ch_no'
I1
tp803
a(S'ch_tr'
I1
tp804
a(S'ch_p2'
I1
tp805
a(S'ch_p1'
I1
tp806
a(S'w'
I19
tp807
a(S'no_vo'
I7
tp808
a(S'w'
I2
tp809
a(S'no_ll'
I1
tp810
a(S'w'
I1
tp811
a(S'no_np'
I3
tp812
a(S'w'
I649
tp813
a(S'p1_vo'
I5
tp814
a(S'w'
I7
tp815
a(S'p2_vo'
I7
tp816
a(S'w'
I12
tp817
a(S'no_vo'
I3
tp818
a(S'w'
I2
tp819
a(S'no_ll'
I1
tp820
a(S'w'
I1
tp821
a(S'no_np'
I2
tp822
a(S'w'
I712
tp823
a(S'p1_vo'
I4
tp824
a(S'w'
I6
tp825
a(S'p2_vo'
I6
tp826
a(S'w'
I12
tp827
a(S'no_vo'
I0
tp828
a(S'w'
I716
tp829
a(S'p1_vo'
I3
tp830
a(S'w'
I6
tp831
a(S'p2_vo'
I5
tp832
a(S'w'
I734
tp833
a(S'p2_vo'
I4
tp834
a(S'w'
I734
tp835
a(S'p2_vo'
I3
tp836
a(S'w'
I1461
tp837
a(S'p1_vo'
I0
tp838
a(S'w'
I6
tp839
a(S'p2_vo'
I0
tp840
a(S'w'
I27
tp841
a(S'no_vo'
I7
tp842
a(S'w'
I2
tp843
a(S'no_ll'
I1
tp844
a(S'w'
I1
tp845
a(S'no_np'
I3
tp846
a(S'w'
I716
tp847
a(S'no_vo'
I3
tp848
a(S'w'
I2
tp849
a(S'no_ll'
I1
tp850
a(S'w'
I1
tp851
a(S'no_np'
I2
tp852
a(S'w'
I730
tp853
a(S'no_vo'
I0
tp854
a(S'w'
I1450
tp855
a(S'p1_vo'
I1
tp856
a(S'w'
I6
tp857
a(S'p2_vo'
I1
tp858
a(S'w'
I2224
tp859
a(S'no_vo'
I7
tp860
a(S'w'
I2
tp861
a(S'no_ll'
I1
tp862
a(S'w'
I2
tp863
a(S'no_np'
I3
tp864
a(S'w'
I715
tp865
a(S'no_vo'
I3
tp866
a(S'w'
I2
tp867
a(S'no_ll'
I1
tp868
a(S'w'
I2
tp869
a(S'no_np'
I2
tp870
a(S'w'
I729
tp871
a(S'no_vo'
I0
tp872
a(S'w'
I3661
tp873
a(S'p1_vo'
I6
tp874
a(S'w'
I7
tp875
a(S'p1_tl'
I104
tp876
a(S'w'
I12
tp877
a(S'p2_vo'
I8
tp878
a(S'w'
I6
tp879
a(S'p2_tl'
I13
tp880
a(S'w'
I10
tp881
a(S'tr_ll'
I1
tp882
a(S'w'
I1
tp883
a(S'tr_tl'
I27
tp884
a(S'w'
I8
tp885
a(S'ch_no'
I1
tp886
a(S'ch_tr'
I1
tp887
a(S'ch_p2'
I1
tp888
a(S'ch_p1'
I1
tp889
a(S'w'
I1
tp890
a(S'ch_no'
I1
tp891
a(S'ch_tr'
I1
tp892
a(S'ch_p2'
I1
tp893
a(S'ch_p1'
I1
tp894
a(S'w'
I19
tp895
a(S'no_vo'
I7
tp896
a(S'w'
I2
tp897
a(S'no_ll'
I1
tp898
a(S'w'
I1
tp899
a(S'no_np'
I3
tp900
a(S'w'
I662
tp901
a(S'p1_vo'
I5
tp902
a(S'w'
I6
tp903
a(S'p2_vo'
I7
tp904
a(S'w'
I12
tp905
a(S'no_vo'
I3
tp906
a(S'w'
I3
tp907
a(S'no_ll'
I1
tp908
a(S'w'
I1
tp909
a(S'no_np'
I2
tp910
a(S'w'
I712
tp911
a(S'p1_vo'
I4
tp912
a(S'w'
I6
tp913
a(S'p2_vo'
I6
tp914
a(S'w'
I11
tp915
a(S'no_vo'
I0
tp916
a(S'w'
I717
tp917
a(S'p1_vo'
I3
tp918
a(S'w'
I6
tp919
a(S'p2_vo'
I5
tp920
a(S'w'
I734
tp921
a(S'p2_vo'
I4
tp922
a(S'w'
I734
tp923
a(S'p2_vo'
I3
tp924
a(S'w'
I1461
tp925
a(S'p1_vo'
I0
tp926
a(S'w'
I6
tp927
a(S'p2_vo'
I0
tp928
a(S'w'
I27
tp929
a(S'no_vo'
I7
tp930
a(S'w'
I2
tp931
a(S'no_ll'
I1
tp932
a(S'w'
I1
tp933
a(S'no_np'
I3
tp934
a(S'w'
I716
tp935
a(S'no_vo'
I3
tp936
a(S'w'
I2
tp937
a(S'no_ll'
I1
tp938
a(S'w'
I1
tp939
a(S'no_np'
I2
tp940
a(S'w'
I730
tp941
a(S'no_vo'
I0
tp942
a(S'w'
I1450
tp943
a(S'p1_vo'
I1
tp944
a(S'w'
I6
tp945
a(S'p2_vo'
I1
tp946
a(S'w'
I2224
tp947
a(S'no_vo'
I7
tp948
a(S'w'
I2
tp949
a(S'no_ll'
I1
tp950
a(S'w'
I1
tp951
a(S'no_np'
I3
tp952
a(S'w'
I716
tp953
a(S'no_vo'
I3
tp954
a(S'w'
I2
tp955
a(S'no_ll'
I1
tp956
a(S'w'
I1
tp957
a(S'no_np'
I2
tp958
a(S'w'
I730
tp959
a(S'no_vo'
I0
tp960
a(S'w'
I3661
tp961
a(S'p1_vo'
I6
tp962
a(S'w'
I6
tp963
a(S'p1_tl'
I84
tp964
a(S'w'
I12
tp965
a(S'p2_vo'
I8
tp966
a(S'w'
I5
tp967
a(S'p2_ll'
I1
tp968
a(S'p2_th'
I0
tp969
a(S'w'
I2
tp970
a(S'p2_tl'
I254
tp971
a(S'w'
I9
tp972
a(S'tr_ll'
I1
tp973
a(S'tr_th'
I1
tp974
a(S'w'
I2
tp975
a(S'tr_tl'
I252
tp976
a(S'w'
I8
tp977
a(S'ch_no'
I1
tp978
a(S'ch_tr'
I1
tp979
a(S'ch_p2'
I1
tp980
a(S'ch_p1'
I1
tp981
a(S'w'
I1
tp982
a(S'ch_no'
I1
tp983
a(S'ch_tr'
I1
tp984
a(S'ch_p2'
I1
tp985
a(S'ch_p1'
I1
tp986
a(S'w'
I18
tp987
a(S'no_vo'
I7
tp988
a(S'w'
I3
tp989
a(S'no_ll'
I1
tp990
a(S'w'
I1
tp991
a(S'no_np'
I3
tp992
a(S'w'
I662
tp993
a(S'p1_vo'
I5
tp994
a(S'w'
I6
tp995
a(S'p2_vo'
I7
tp996
a(S'w'
I12
tp997
a(S'no_vo'
I3
tp998
a(S'w'
I3
tp999
a(S'no_ll'
I1
tp1000
a(S'w'
I1
tp1001
a(S'no_np'
I2
tp1002
a(S'w'
I712
tp1003
a(S'p1_vo'
I4
tp1004
a(S'w'
I6
tp1005
a(S'p2_vo'
I6
tp1006
a(S'w'
I11
tp1007
a(S'no_vo'
I0
tp1008
a(S'w'
I717
tp1009
a(S'p1_vo'
I3
tp1010
a(S'w'
I6
tp1011
a(S'p2_vo'
I5
tp1012
a(S'w'
I734
tp1013
a(S'p2_vo'
I4
tp1014
a(S'w'
I734
tp1015
a(S'p2_vo'
I3
tp1016
a(S'w'
I1461
tp1017
a(S'p1_vo'
I0
tp1018
a(S'w'
I6
tp1019
a(S'p2_vo'
I0
tp1020
a(S'w'
I2929
tp1021
a(S'p1_vo'
I1
tp1022
a(S'w'
I6
tp1023
a(S'p2_vo'
I1
tp1024
a(S'w'
I2206
tp1025
a(S'p1_vo'
I5
tp1026
a(S'w'
I6
tp1027
a(S'p1_ll'
I1
tp1028
a(S'p1_th'
I0
tp1029
a(S'w'
I2
tp1030
a(S'p1_tl'
I169
tp1031
a(S'w'
I16
tp1032
a(S'p2_du'
I0
tp1033
a(S'p2_vo'
I8
tp1034
a(S'w'
I7
tp1035
a(S'p2_tl'
I84
tp1036
a(S'w'
I9
tp1037
a(S'tr_lr'
I15
tp1038
a(S'w'
I5
tp1039
a(S'tr_ll'
I1
tp1040
a(S'w'
I1
tp1041
a(S'tr_tl'
I83
tp1042
a(S'w'
I26
tp1043
a(S'no_vo'
I7
tp1044
a(S'w'
I2
tp1045
a(S'no_ll'
I1
tp1046
a(S'w'
I1
tp1047
a(S'no_np'
I3
tp1048
a(S'w'
I648
tp1049
a(S'p1_vo'
I4
tp1050
a(S'w'
I7
tp1051
a(S'p2_vo'
I7
tp1052
a(S'w'
I12
tp1053
a(S'no_vo'
I3
tp1054
a(S'w'
I2
tp1055
a(S'no_ll'
I1
tp1056
a(S'w'
I1
tp1057
a(S'no_np'
I2
tp1058
a(S'w'
I712
tp1059
a(S'p1_vo'
I3
tp1060
a(S'w'
I6
tp1061
a(S'p2_vo'
I6
tp1062
a(S'w'
I11
tp1063
a(S'no_vo'
I0
tp1064
a(S'w'
I717
tp1065
a(S'p1_vo'
I2
tp1066
a(S'w'
I6
tp1067
a(S'p2_vo'
I5
tp1068
a(S'w'
I734
tp1069
a(S'p2_vo'
I4
tp1070
a(S'w'
I734
tp1071
a(S'p2_vo'
I3
tp1072
a(S'w'
I727
tp1073
a(S'p1_vo'
I0
tp1074
a(S'w'
I6
tp1075
a(S'p2_vo'
I0
tp1076
a(S'w'
I2195
tp1077
a(S'p1_vo'
I1
tp1078
a(S'w'
I7
tp1079
a(S'p2_vo'
I1
tp1080
a(S'w'
I3666
tp1081
a(S'p1_vo'
I5
tp1082
a(S'w'
I7
tp1083
a(S'p1_tl'
I201
tp1084
a(S'w'
I10
tp1085
a(S'p2_vo'
I8
tp1086
a(S'w'
I7
tp1087
a(S'p2_tl'
I100
tp1088
a(S'w'
I11
tp1089
a(S'tr_ll'
I1
tp1090
a(S'w'
I1
tp1091
a(S'tr_tl'
I147
tp1092
a(S'w'
I25
tp1093
a(S'no_vo'
I7
tp1094
a(S'w'
I2
tp1095
a(S'no_ll'
I1
tp1096
a(S'w'
I1
tp1097
a(S'no_np'
I3
tp1098
a(S'w'
I666
tp1099
a(S'p1_vo'
I4
tp1100
a(S'w'
I7
tp1101
a(S'p2_vo'
I7
tp1102
a(S'w'
I12
tp1103
a(S'no_vo'
I3
tp1104
a(S'w'
I2
tp1105
a(S'no_ll'
I1
tp1106
a(S'w'
I1
tp1107
a(S'no_np'
I2
tp1108
a(S'w'
I712
tp1109
a(S'p1_vo'
I3
tp1110
a(S'w'
I7
tp1111
a(S'p2_vo'
I6
tp1112
a(S'w'
I11
tp1113
a(S'no_vo'
I0
tp1114
a(S'w'
I716
tp1115
a(S'p1_vo'
I2
tp1116
a(S'w'
I6
tp1117
a(S'p2_vo'
I5
tp1118
a(S'w'
I734
tp1119
a(S'p2_vo'
I4
tp1120
a(S'w'
I734
tp1121
a(S'p2_vo'
I3
tp1122
a(S'w'
I727
tp1123
a(S'p1_vo'
I0
tp1124
a(S'w'
I6
tp1125
a(S'p2_vo'
I0
tp1126
a(S'w'
I2196
tp1127
a(S'p1_vo'
I1
tp1128
a(S'w'
I6
tp1129
a(S'p2_vo'
I1
tp1130
a(S'w'
I3668
tp1131
a(S'p1_vo'
I5
tp1132
a(S'w'
I7
tp1133
a(S'p1_tl'
I240
tp1134
a(S'w'
I12
tp1135
a(S'p2_vo'
I8
tp1136
a(S'w'
I6
tp1137
a(S'p2_tl'
I120
tp1138
a(S'w'
I12
tp1139
a(S'tr_ll'
I1
tp1140
a(S'w'
I1
tp1141
a(S'tr_tl'
I224
tp1142
a(S'w'
I25
tp1143
a(S'no_vo'
I7
tp1144
a(S'w'
I2
tp1145
a(S'no_ll'
I1
tp1146
a(S'w'
I2
tp1147
a(S'no_np'
I3
tp1148
a(S'w'
I662
tp1149
a(S'p1_vo'
I4
tp1150
a(S'w'
I6
tp1151
a(S'p2_vo'
I7
tp1152
a(S'w'
I12
tp1153
a(S'no_vo'
I3
tp1154
a(S'w'
I2
tp1155
a(S'no_ll'
I1
tp1156
a(S'w'
I1
tp1157
a(S'no_np'
I2
tp1158
a(S'w'
I712
tp1159
a(S'p1_vo'
I3
tp1160
a(S'w'
I7
tp1161
a(S'p2_vo'
I6
tp1162
a(S'w'
I11
tp1163
a(S'no_vo'
I0
tp1164
a(S'w'
I716
tp1165
a(S'p1_vo'
I2
tp1166
a(S'w'
I7
tp1167
a(S'p2_vo'
I5
tp1168
a(S'w'
I733
tp1169
a(S'p2_vo'
I4
tp1170
a(S'w'
I734
tp1171
a(S'p2_vo'
I3
tp1172
a(S'w'
I727
tp1173
a(S'p1_vo'
I0
tp1174
a(S'w'
I7
tp1175
a(S'p2_vo'
I0
tp1176
a(S'w'
I2195
tp1177
a(S'p1_vo'
I1
tp1178
a(S'w'
I6
tp1179
a(S'p2_vo'
I1
tp1180
a(S'w'
I3669
tp1181
a(S'p1_vo'
I5
tp1182
a(S'w'
I6
tp1183
a(S'p1_tl'
I254
tp1184
a(S'w'
I13
tp1185
a(S'p2_vo'
I8
tp1186
a(S'w'
I6
tp1187
a(S'p2_tl'
I127
tp1188
a(S'w'
I10
tp1189
a(S'tr_lh'
I1
tp1190
a(S'tr_lr'
I16
tp1191
a(S'w'
I4
tp1192
a(S'tr_ll'
I1
tp1193
a(S'w'
I1
tp1194
a(S'tr_tl'
I252
tp1195
a(S'w'
I25
tp1196
a(S'no_vo'
I7
tp1197
a(S'w'
I3
tp1198
a(S'no_ll'
I1
tp1199
a(S'w'
I1
tp1200
a(S'no_np'
I3
tp1201
a(S'w'
I659
tp1202
a(S'p1_vo'
I4
tp1203
a(S'w'
I6
tp1204
a(S'p2_vo'
I7
tp1205
a(S'w'
I12
tp1206
a(S'no_vo'
I3
tp1207
a(S'w'
I2
tp1208
a(S'no_ll'
I1
tp1209
a(S'w'
I2
tp1210
a(S'no_np'
I2
tp1211
a(S'w'
I712
tp1212
a(S'p1_vo'
I3
tp1213
a(S'w'
I6
tp1214
a(S'p2_vo'
I6
tp1215
a(S'w'
I11
tp1216
a(S'no_vo'
I0
tp1217
a(S'w'
I716
tp1218
a(S'p1_vo'
I2
tp1219
a(S'w'
I7
tp1220
a(S'p2_vo'
I5
tp1221
a(S'w'
I734
tp1222
a(S'p2_vo'
I4
tp1223
a(S'w'
I733
tp1224
a(S'p2_vo'
I3
tp1225
a(S'w'
I728
tp1226
a(S'p1_vo'
I0
tp1227
a(S'w'
I6
tp1228
a(S'p2_vo'
I0
tp1229
a(S'w'
I2195
tp1230
a(S'p1_vo'
I1
tp1231
a(S'w'
I6
tp1232
a(S'p2_vo'
I1
tp1233
a(S'w'
I34483
tp1234
a(S'p1_du'
I0
tp1235
a(S'p1_vo'
I0
tp1236
a(S'w'
I7
tp1237
a(S'p2_vo'
I0
tp1238
a(S'w'
I6
tp1239
a(S'ch_no'
I1
tp1240
a(S'ch_tr'
I0
tp1241
a(S'ch_p2'
I1
tp1242
a(S'ch_p1'
I1
tp1243
a(S'tr_lh'
I0
tp1244
a(S'tr_lr'
I0
tp1245
a(S'ch_no'
I1
tp1246
a(S'ch_tr'
I1
tp1247
a(S'ch_p2'
I1
tp1248
a(S'ch_p1'
I1
tp1249
a.