(lp1
(S'clock'
p2
I1789772
tp3
a(S'ch_no'
I1
tp4
a(S'ch_tr'
I0
tp5
a(S'ch_p2'
I1
tp6
a(S'ch_p1'
I1
tp7
a(S'w'
I1
tp8
a(S'ch_no'
I1
tp9
a(S'ch_tr'
I1
tp10
a(S'ch_p2'
I1
tp11
a(S'ch_p1'
I1
tp12
a(S'p1_lh'
I1
tp13
a(S'p1_cv'
I1
tp14
a(S'w'
I1
tp15
a(S'p2_lh'
I1
tp16
a(S'p2_cv'
I1
tp17
a(S'w'
I1
tp18
a(S'no_lh'
I1
tp19
a(S'no_cv'
I1
tp20
a(S'w'
I1
tp21
a(S'p1_sp'
I7
tp22
a(S'p1_sn'
I1
tp23
a(S'p1_ss'
I7
tp24
a(S'w'
I1
tp25
a(S'p2_sp'
I7
tp26
a(S'p2_sn'
I1
tp27
a(S'p2_ss'
I7
tp28
a(S'w'
I26
tp29
a(S'w'
I5
tp30
a(S'w'
I683
tp31
a(S'p1_du'
I3
tp32
a(S'p1_vo'
I8
tp33
a(S'w'
I6
tp34
a(S'p1_ll'
I1
tp35
a(S'p1_th'
I3
tp36
a(S'w'
I1
tp37
a(S'p1_tl'
I88
tp38
a(S'w'
I21
tp39
a(S'p2_vo'
I9
tp40
a(S'w'
I5
tp41
a(S'p2_ll'
I1
tp42
a(S'p2_th'
I2
tp43
a(S'w'
I2
tp44
a(S'p2_tl'
I128
tp45
a(S'w'
I10
tp46
a(S'tr_lr'
I111
tp47
a(S'w'
I4
tp48
a(S'tr_ll'
I1
tp49
a(S'tr_th'
I2
tp50
a(S'w'
I1
tp51
a(S'tr_tl'
I128
tp52
a(S'w'
I11
tp53
a(S'ch_no'
I1
tp54
a(S'ch_tr'
I1
tp55
a(S'ch_p2'
I1
tp56
a(S'ch_p1'
I1
tp57
a(S'w'
I19
tp58
a(S'no_vo'
I7
tp59
a(S'w'
I2
tp60
a(S'no_ll'
I1
tp61
a(S'w'
I1
tp62
a(S'no_np'
I3
tp63
a(S'w'
I634
tp64
a(S'p1_vo'
I7
tp65
a(S'w'
I5
tp66
a(S'p2_vo'
I8
tp67
a(S'w'
I12
tp68
a(S'no_vo'
I3
tp69
a(S'w'
I3
tp70
a(S'no_ll'
I1
tp71
a(S'w'
I1
tp72
a(S'no_np'
I2
tp73
a(S'w'
I713
tp74
a(S'p1_vo'
I6
tp75
a(S'w'
I5
tp76
a(S'p2_vo'
I7
tp77
a(S'w'
I11
tp78
a(S'no_vo'
I0
tp79
a(S'w'
I717
tp80
a(S'p1_vo'
I5
tp81
a(S'w'
I6
tp82
a(S'p2_vo'
I6
tp83
a(S'w'
I728
tp84
a(S'p1_vo'
I4
tp85
a(S'w'
I6
tp86
a(S'p2_vo'
I5
tp87
a(S'w'
I728
tp88
a(S'p1_vo'
I3
tp89
a(S'w'
I5
tp90
a(S'p2_vo'
I4
tp91
a(S'w'
I729
tp92
a(S'p1_vo'
I2
tp93
a(S'w'
I5
tp94
a(S'p2_vo'
I3
tp95
a(S'w'
I728
tp96
a(S'p1_vo'
I1
tp97
a(S'w'
I6609
tp98
a(S'p2_vo'
I2
tp99
a(S'w'
I733
tp100
a(S'p2_vo'
I1
tp101
a(S'w'
I13951
tp102
a(S'p1_vo'
I7
tp103
a(S'w'
I6
tp104
a(S'p1_ll'
I1
tp105
a(S'p1_th'
I0
tp106
a(S'w'
I2
tp107
a(S'p1_tl'
I255
tp108
a(S'w'
I18
tp109
a(S'p2_vo'
I10
tp110
a(S'w'
I6
tp111
a(S'p2_ll'
I1
tp112
a(S'p2_th'
I0
tp113
a(S'w'
I1
tp114
a(S'p2_tl'
I213
tp115
a(S'w'
I14
tp116
a(S'tr_ll'
I1
tp117
a(S'tr_th'
I0
tp118
a(S'w'
I1
tp119
a(S'tr_tl'
I169
tp120
a(S'w'
I26
tp121
a(S'no_vo'
I7
tp122
a(S'w'
I2
tp123
a(S'no_ll'
I1
tp124
a(S'w'
I1
tp125
a(S'no_np'
I3
tp126
a(S'w'
I645
tp127
a(S'p1_vo'
I6
tp128
a(S'w'
I5
tp129
a(S'p2_vo'
I9
tp130
a(S'w'
I12
tp131
a(S'no_vo'
I3
tp132
a(S'w'
I2
tp133
a(S'no_ll'
I1
tp134
a(S'w'
I2
tp135
a(S'no_np'
I2
tp136
a(S'w'
I712
tp137
a(S'p1_vo'
I5
tp138
a(S'w'
I6
tp139
a(S'p2_vo'
I8
tp140
a(S'w'
I11
tp141
a(S'no_vo'
I0
tp142
a(S'w'
I717
tp143
a(S'p1_vo'
I4
tp144
a(S'w'
I6
tp145
a(S'p2_vo'
I7
tp146
a(S'w'
I728
tp147
a(S'p1_vo'
I3
tp148
a(S'w'
I5
tp149
a(S'p2_vo'
I6
tp150
a(S'w'
I733
tp151
a(S'p2_vo'
I5
tp152
a(S'w'
I733
tp153
a(S'p2_vo'
I4
tp154
a(S'w'
I734
tp155
a(S'p2_vo'
I3
tp156
a(S'w'
I13205
tp157
a(S'p1_vo'
I2
tp158
a(S'w'
I734
tp159
a(S'p1_vo'
I1
tp160
a(S'w'
I737
tp161
a(S'p2_vo'
I2
tp162
a(S'w'
I734
tp163
a(S'p2_vo'
I1
tp164
a(S'w'
I5874
tp165
a(S'p1_vo'
I7
tp166
a(S'w'
I6
tp167
a(S'p1_ll'
I1
tp168
a(S'p1_th'
I1
tp169
a(S'w'
I2
tp170
a(S'p1_tl'
I30
tp171
a(S'w'
I14
tp172
a(S'p2_vo'
I10
tp173
a(S'w'
I7
tp174
a(S'p2_tl'
I226
tp175
a(S'w'
I11
tp176
a(S'tr_ll'
I1
tp177
a(S'w'
I1
tp178
a(S'tr_tl'
I190
tp179
a(S'w'
I26
tp180
a(S'no_vo'
I7
tp181
a(S'w'
I2
tp182
a(S'no_ll'
I1
tp183
a(S'w'
I1
tp184
a(S'no_np'
I3
tp185
a(S'w'
I656
tp186
a(S'p1_vo'
I6
tp187
a(S'w'
I6
tp188
a(S'p2_vo'
I9
tp189
a(S'w'
I12
tp190
a(S'no_vo'
I3
tp191
a(S'w'
I2
tp192
a(S'no_ll'
I1
tp193
a(S'w'
I1
tp194
a(S'no_np'
I2
tp195
a(S'w'
I713
tp196
a(S'p1_vo'
I5
tp197
a(S'w'
I6
tp198
a(S'p2_vo'
I8
tp199
a(S'w'
I11
tp200
a(S'no_vo'
I0
tp201
a(S'w'
I717
tp202
a(S'p1_vo'
I4
tp203
a(S'w'
I6
tp204
a(S'p2_vo'
I7
tp205
a(S'w'
I728
tp206
a(S'p1_vo'
I3
tp207
a(S'w'
I5
tp208
a(S'p2_vo'
I6
tp209
a(S'w'
I733
tp210
a(S'p2_vo'
I5
tp211
a(S'w'
I733
tp212
a(S'p2_vo'
I4
tp213
a(S'w'
I734
tp214
a(S'p2_vo'
I3
tp215
a(S'w'
I13205
tp216
a(S'p1_vo'
I2
tp217
a(S'w'
I733
tp218
a(S'p1_vo'
I1
tp219
a(S'w'
I738
tp220
a(S'p2_vo'
I2
tp221
a(S'w'
I734
tp222
a(S'p2_vo'
I1
tp223
a(S'w'
I5874
tp224
a(S'p1_vo'
I7
tp225
a(S'w'
I7
tp226
a(S'p1_tl'
I126
tp227
a(S'w'
I12
tp228
a(S'p2_vo'
I10
tp229
a(S'w'
I6
tp230
a(S'p2_ll'
I1
tp231
a(S'p2_th'
I1
tp232
a(S'w'
I1
tp233
a(S'p2_tl'
I29
tp234
a(S'w'
I13
tp235
a(S'tr_ll'
I1
tp236
a(S'w'
I1
tp237
a(S'tr_tl'
I226
tp238
a(S'w'
I9
tp239
a(S'ch_no'
I1
tp240
a(S'ch_tr'
I1
tp241
a(S'ch_p2'
I1
tp242
a(S'ch_p1'
I1
tp243
a(S'w'
I1
tp244
a(S'ch_no'
I1
tp245
a(S'ch_tr'
I1
tp246
a(S'ch_p2'
I1
tp247
a(S'ch_p1'
I1
tp248
a(S'w'
I19
tp249
a(S'no_vo'
I7
tp250
a(S'w'
I2
tp251
a(S'no_ll'
I1
tp252
a(S'w'
I1
tp253
a(S'no_np'
I3
tp254
a(S'w'
I654
tp255
a(S'p1_vo'
I6
tp256
a(S'w'
I6
tp257
a(S'p2_vo'
I9
tp258
a(S'w'
I12
tp259
a(S'no_vo'
I3
tp260
a(S'w'
I2
tp261
a(S'no_ll'
I1
tp262
a(S'w'
I1
tp263
a(S'no_np'
I2
tp264
a(S'w'
I713
tp265
a(S'p1_vo'
I5
tp266
a(S'w'
I6
tp267
a(S'p2_vo'
I8
tp268
a(S'w'
I11
tp269
a(S'no_vo'
I0
tp270
a(S'w'
I717
tp271
a(S'p1_vo'
I4
tp272
a(S'w'
I5
tp273
a(S'p2_vo'
I7
tp274
a(S'w'
I729
tp275
a(S'p1_vo'
I3
tp276
a(S'w'
I5
tp277
a(S'p2_vo'
I6
tp278
a(S'w'
I732
tp279
a(S'p2_vo'
I5
tp280
a(S'w'
I734
tp281
a(S'p2_vo'
I4
tp282
a(S'w'
I734
tp283
a(S'p2_vo'
I3
tp284
a(S'w'
I13205
tp285
a(S'p1_vo'
I2
tp286
a(S'w'
I733
tp287
a(S'p1_vo'
I1
tp288
a(S'w'
I738
tp289
a(S'p2_vo'
I2
tp290
a(S'w'
I734
tp291
a(S'p2_vo'
I1
tp292
a(S'w'
I5881
tp293
a(S'p1_vo'
I7
tp294
a(S'w'
I7
tp295
a(S'p1_tl'
I84
tp296
a(S'w'
I15
tp297
a(S'p2_vo'
I8
tp298
a(S'w'
I6
tp299
a(S'p2_ll'
I1
tp300
a(S'p2_th'
I0
tp301
a(S'w'
I1
tp302
a(S'p2_tl'
I254
tp303
a(S'w'
I11
tp304
a(S'tr_lh'
I1
tp305
a(S'tr_lr'
I16
tp306
a(S'w'
I4
tp307
a(S'tr_ll'
I1
tp308
a(S'tr_th'
I1
tp309
a(S'w'
I1
tp310
a(S'tr_tl'
I252
tp311
a(S'w'
I34
tp312
a(S'no_vo'
I15
tp313
a(S'w'
I2
tp314
a(S'no_ll'
I1
tp315
a(S'w'
I2
tp316
a(S'no_np'
I14
tp317
a(S'w'
I636
tp318
a(S'p1_vo'
I6
tp319
a(S'w'
I6
tp320
a(S'p2_vo'
I7
tp321
a(S'w'
I14
tp322
a(S'no_ll'
I1
tp323
a(S'w'
I1
tp324
a(S'no_np'
I15
tp325
a(S'w'
I713
tp326
a(S'p1_vo'
I5
tp327
a(S'w'
I5
tp328
a(S'p2_vo'
I6
tp329
a(S'w'
I19
tp330
a(S'no_ll'
I1
tp331
a(S'w'
I1
tp332
a(S'no_np'
I14
tp333
a(S'w'
I709
tp334
a(S'p1_vo'
I4
tp335
a(S'w'
I5
tp336
a(S'p2_vo'
I5
tp337
a(S'w'
I14
tp338
a(S'no_ll'
I1
tp339
a(S'w'
I2
tp340
a(S'no_np'
I15
tp341
a(S'w'
I713
tp342
a(S'p1_vo'
I3
tp343
a(S'w'
I5
tp344
a(S'p2_vo'
I4
tp345
a(S'w'
I18
tp346
a(S'no_ll'
I1
tp347
a(S'w'
I2
tp348
a(S'no_np'
I14
tp349
a(S'w'
I712
tp350
a(S'p2_vo'
I3
tp351
a(S'w'
I14
tp352
a(S'no_ll'
I1
tp353
a(S'w'
I2
tp354
a(S'no_np'
I15
tp355
a(S'w'
I735
tp356
a(S'no_ll'
I1
tp357
a(S'w'
I1
tp358
a(S'no_np'
I14
tp359
a(S'w'
I728
tp360
a(S'no_ll'
I1
tp361
a(S'w'
I1
tp362
a(S'no_np'
I15
tp363
a(S'w'
I737
tp364
a(S'no_ll'
I1
tp365
a(S'w'
I1
tp366
a(S'w'
I1463
tp367
a(S'no_ll'
I1
tp368
a(S'w'
I1
tp369
a(S'no_np'
I8
tp370
a(S'w'
I1466
tp371
a(S'no_ll'
I1
tp372
a(S'w'
I1
tp373
a(S'no_np'
I15
tp374
a(S'w'
I1468
tp375
a(S'no_ll'
I1
tp376
a(S'w'
I1
tp377
a(S'no_np'
I12
tp378
a(S'w'
I5135
tp379
a(S'no_ll'
I1
tp380
a(S'w'
I1
tp381
a(S'no_np'
I11
tp382
a(S'w'
I5135
tp383
a(S'no_ll'
I1
tp384
a(S'w'
I1
tp385
a(S'w'
I5136
tp386
a(S'no_ll'
I1
tp387
a(S'w'
I1
tp388
a(S'w'
I5133
tp389
a(S'no_vo'
I14
tp390
a(S'w'
I2
tp391
a(S'no_ll'
I1
tp392
a(S'w'
I2
tp393
a(S'w'
I5133
tp394
a(S'no_vo'
I13
tp395
a(S'w'
I2
tp396
a(S'no_ll'
I1
tp397
a(S'w'
I1
tp398
a(S'w'
I1454
tp399
a(S'p2_vo'
I2
tp400
a(S'w'
I734
tp401
a(S'p2_vo'
I1
tp402
a(S'w'
I2945
tp403
a(S'no_vo'
I12
tp404
a(S'w'
I3
tp405
a(S'no_ll'
I1
tp406
a(S'w'
I1
tp407
a(S'no_np'
I13
tp408
a(S'w'
I2928
tp409
a(S'p2_vo'
I8
tp410
a(S'w'
I6
tp411
a(S'p2_tl'
I190
tp412
a(S'w'
I10
tp413
a(S'tr_ll'
I1
tp414
a(S'tr_th'
I2
tp415
a(S'w'
I1
tp416
a(S'tr_tl'
I250
tp417
a(S'w'
I9
tp418
a(S'ch_no'
I1
tp419
a(S'ch_tr'
I1
tp420
a(S'ch_p2'
I1
tp421
a(S'ch_p1'
I1
tp422
a(S'w'
I1
tp423
a(S'ch_no'
I1
tp424
a(S'ch_tr'
I1
tp425
a(S'ch_p2'
I1
tp426
a(S'ch_p1'
I1
tp427
a(S'w'
I700
tp428
a(S'p2_vo'
I7
tp429
a(S'w'
I734
tp430
a(S'p2_vo'
I6
tp431
a(S'w'
I733
tp432
a(S'p2_vo'
I5
tp433
a(S'w'
I12
tp434
a(S'no_vo'
I11
tp435
a(S'w'
I3
tp436
a(S'no_ll'
I1
tp437
a(S'w'
I1
tp438
a(S'no_np'
I12
tp439
a(S'w'
I718
tp440
a(S'p2_vo'
I4
tp441
a(S'w'
I734
tp442
a(S'p2_vo'
I3
tp443
a(S'w'
I3679
tp444
a(S'no_vo'
I10
tp445
a(S'w'
I3
tp446
a(S'no_ll'
I1
tp447
a(S'w'
I1
tp448
a(S'no_np'
I11
tp449
a(S'w'
I5133
tp450
a(S'no_vo'
I9
tp451
a(S'w'
I2
tp452
a(S'no_ll'
I1
tp453
a(S'w'
I2
tp454
a(S'w'
I1453
tp455
a(S'p2_vo'
I2
tp456
a(S'w'
I741
tp457
a(S'p2_vo'
I8
tp458
a(S'w'
I7
tp459
a(S'p2_tl'
I169
tp460
a(S'w'
I11
tp461
a(S'tr_ll'
I1
tp462
a(S'tr_th'
I1
tp463
a(S'w'
I2
tp464
a(S'tr_tl'
I252
tp465
a(S'w'
I10
tp466
a(S'ch_no'
I1
tp467
a(S'ch_tr'
I1
tp468
a(S'ch_p2'
I1
tp469
a(S'ch_p1'
I1
tp470
a(S'w'
I1
tp471
a(S'ch_no'
I1
tp472
a(S'ch_tr'
I1
tp473
a(S'ch_p2'
I1
tp474
a(S'ch_p1'
I1
tp475
a(S'w'
I696
tp476
a(S'p2_vo'
I7
tp477
a(S'w'
I734
tp478
a(S'p2_vo'
I6
tp479
a(S'w'
I733
tp480
a(S'p2_vo'
I5
tp481
a(S'w'
I734
tp482
a(S'p2_vo'
I4
tp483
a(S'w'
I12
tp484
a(S'no_vo'
I8
tp485
a(S'w'
I2
tp486
a(S'no_ll'
I1
tp487
a(S'w'
I2
tp488
a(S'w'
I718
tp489
a(S'p2_vo'
I3
tp490
a(S'w'
I4413
tp491
a(S'no_vo'
I7
tp492
a(S'w'
I3
tp493
a(S'no_ll'
I1
tp494
a(S'w'
I1
tp495
a(S'w'
I5133
tp496
a(S'no_vo'
I6
tp497
a(S'w'
I2
tp498
a(S'no_ll'
I1
tp499
a(S'w'
I1
tp500
a(S'no_np'
I12
tp501
a(S'w'
I5133
tp502
a(S'no_vo'
I5
tp503
a(S'w'
I3
tp504
a(S'no_ll'
I1
tp505
a(S'w'
I1
tp506
a(S'no_np'
I11
tp507
a(S'w'
I5133
tp508
a(S'no_vo'
I4
tp509
a(S'w'
I2
tp510
a(S'no_ll'
I1
tp511
a(S'w'
I2
tp512
a(S'w'
I5133
tp513
a(S'no_vo'
I3
tp514
a(S'w'
I2
tp515
a(S'no_ll'
I1
tp516
a(S'w'
I1
tp517
a(S'no_np'
I12
tp518
a(S'w'
I5133
tp519
a(S'no_vo'
I2
tp520
a(S'w'
I3
tp521
a(S'no_ll'
I1
tp522
a(S'w'
I1
tp523
a(S'w'
I5133
tp524
a(S'no_vo'
I1
tp525
a(S'w'
I2
tp526
a(S'no_ll'
I1
tp527
a(S'w'
I2
tp528
a(S'no_np'
I11
tp529
a(S'w'
I5132
tp530
a(S'no_vo'
I0
tp531
a(S'w'
I1454
tp532
a(S'p1_vo'
I2
tp533
a(S'w'
I734
tp534
a(S'p1_vo'
I1
tp535
a(S'w'
I2939
tp536
a(S'p2_vo'
I2
tp537
a(S'w'
I734
tp538
a(S'p2_vo'
I1
tp539
a(S'w'
I8803
tp540
a(S'p1_du'
I0
tp541
a(S'p1_vo'
I0
tp542
a(S'w'
I6
tp543
a(S'p2_vo'
I0
tp544
a(S'w'
I6
tp545
a(S'ch_no'
I1
tp546
a(S'ch_tr'
I0
tp547
a(S'ch_p2'
I1
tp548
a(S'ch_p1'
I1
tp549
a(S'tr_lh'
I0
tp550
a(S'tr_lr'
I0
tp551
a(S'ch_no'
I1
tp552
a(S'ch_tr'
I1
tp553
a(S'ch_p2'
I1
tp554
a(S'ch_p1'
I1
tp555
a(S'w'
I5
tp556
a.