(lp1
(S'clock'
p2
I1789772
tp3
a(S'ch_no'
I1
tp4
a(S'ch_tr'
I0
tp5
a(S'ch_p2'
I1
tp6
a(S'ch_p1'
I1
tp7
a(S'ch_no'
I1
tp8
a(S'ch_tr'
I1
tp9
a(S'ch_p2'
I1
tp10
a(S'ch_p1'
I1
tp11
a(S'p1_lh'
I1
tp12
a(S'p1_cv'
I1
tp13
a(S'p2_lh'
I1
tp14
a(S'p2_cv'
I1
tp15
a(S'no_lh'
I1
tp16
a(S'no_cv'
I1
tp17
a(S'p1_sp'
I7
tp18
a(S'p1_sn'
I1
tp19
a(S'p1_ss'
I7
tp20
a(S'p2_sp'
I7
tp21
a(S'p2_sn'
I1
tp22
a(S'p2_ss'
I7
tp23
a(S'w'
I27
tp24
a(S'p1_vo'
I6
tp25
a(S'w'
I20
tp26
a(S'p1_ll'
I1
tp27
a(S'p1_th'
I1
tp28
a(S'w'
I1
tp29
a(S'p1_tl'
I172
tp30
a(S'w'
I24
tp31
a(S'p2_du'
I1
tp32
a(S'p2_vo'
I5
tp33
a(S'w'
I19
tp34
a(S'p2_ll'
I1
tp35
a(S'p2_th'
I1
tp36
a(S'w'
I2
tp37
a(S'p2_tl'
I252
tp38
a(S'w'
I16
tp39
a(S'tr_lh'
I1
tp40
a(S'tr_lr'
I16
tp41
a(S'w'
I11
tp42
a(S'tr_ll'
I1
tp43
a(S'tr_th'
I1
tp44
a(S'w'
I1
tp45
a(S'tr_tl'
I252
tp46
a(S'w'
I621
tp47
a(S'p1_du'
I1
tp48
a(S'p1_vo'
I5
tp49
a(S'w'
I9
tp50
a(S'p2_vo'
I4
tp51
a(S'w'
I729
tp52
a(S'p1_du'
I0
tp53
a(S'p1_vo'
I6
tp54
a(S'w'
I15
tp55
a(S'p1_tl'
I125
tp56
a(S'w'
I12
tp57
a(S'p2_vo'
I5
tp58
a(S'w'
I13
tp59
a(S'p2_tl'
I197
tp60
a(S'w'
I19
tp61
a(S'tr_ll'
I1
tp62
a(S'w'
I1
tp63
a(S'tr_tl'
I197
tp64
a(S'w'
I8
tp65
a(S'ch_no'
I1
tp66
a(S'ch_tr'
I1
tp67
a(S'ch_p2'
I1
tp68
a(S'ch_p1'
I1
tp69
a(S'w'
I664
tp70
a(S'p1_du'
I1
tp71
a(S'p1_vo'
I5
tp72
a(S'w'
I9
tp73
a(S'p2_vo'
I4
tp74
a(S'w'
I729
tp75
a(S'p1_du'
I0
tp76
a(S'p1_vo'
I6
tp77
a(S'w'
I14
tp78
a(S'p1_tl'
I83
tp79
a(S'w'
I15
tp80
a(S'p2_vo'
I5
tp81
a(S'w'
I14
tp82
a(S'p2_tl'
I172
tp83
a(S'w'
I22
tp84
a(S'tr_ll'
I1
tp85
a(S'w'
I1
tp86
a(S'tr_tl'
I172
tp87
a(S'w'
I663
tp88
a(S'p1_du'
I1
tp89
a(S'p1_vo'
I5
tp90
a(S'w'
I9
tp91
a(S'p2_vo'
I4
tp92
a(S'w'
I729
tp93
a(S'p1_du'
I0
tp94
a(S'p1_vo'
I6
tp95
a(S'w'
I14
tp96
a(S'p1_tl'
I64
tp97
a(S'w'
I12
tp98
a(S'p2_vo'
I5
tp99
a(S'w'
I14
tp100
a(S'p2_tl'
I125
tp101
a(S'w'
I11
tp102
a(S'ch_no'
I1
tp103
a(S'ch_tr'
I1
tp104
a(S'ch_p2'
I1
tp105
a(S'ch_p1'
I1
tp106
a(S'w'
I1
tp107
a(S'ch_no'
I1
tp108
a(S'ch_tr'
I1
tp109
a(S'ch_p2'
I1
tp110
a(S'ch_p1'
I1
tp111
a(S'w'
I677
tp112
a(S'p1_du'
I1
tp113
a(S'p1_vo'
I5
tp114
a(S'w'
I9
tp115
a(S'p2_vo'
I4
tp116
a(S'w'
I729
tp117
a(S'p1_du'
I0
tp118
a(S'p1_vo'
I6
tp119
a(S'w'
I15
tp120
a(S'p1_tl'
I29
tp121
a(S'w'
I12
tp122
a(S'p2_vo'
I5
tp123
a(S'w'
I14
tp124
a(S'p2_tl'
I83
tp125
a(S'w'
I689
tp126
a(S'p1_du'
I1
tp127
a(S'p1_vo'
I5
tp128
a(S'w'
I9
tp129
a(S'p2_vo'
I4
tp130
a(S'w'
I728
tp131
a(S'p1_du'
I0
tp132
a(S'p1_vo'
I6
tp133
a(S'w'
I14
tp134
a(S'p1_ll'
I1
tp135
a(S'p1_th'
I0
tp136
a(S'w'
I2
tp137
a(S'p1_tl'
I254
tp138
a(S'w'
I12
tp139
a(S'p2_vo'
I5
tp140
a(S'w'
I14
tp141
a(S'p2_tl'
I64
tp142
a(S'w'
I10
tp143
a(S'ch_no'
I1
tp144
a(S'ch_tr'
I1
tp145
a(S'ch_p2'
I1
tp146
a(S'ch_p1'
I1
tp147
a(S'w'
I1
tp148
a(S'ch_no'
I1
tp149
a(S'ch_tr'
I1
tp150
a(S'ch_p2'
I1
tp151
a(S'ch_p1'
I1
tp152
a(S'w'
I678
tp153
a(S'p1_du'
I1
tp154
a(S'p1_vo'
I5
tp155
a(S'w'
I9
tp156
a(S'p2_vo'
I4
tp157
a(S'w'
I4
tp158
a(S'tr_lh'
I0
tp159
a(S'tr_lr'
I0
tp160
a(S'w'
I725
tp161
a(S'p1_du'
I0
tp162
a(S'p1_vo'
I6
tp163
a(S'w'
I14
tp164
a(S'p1_tl'
I226
tp165
a(S'w'
I12
tp166
a(S'p2_vo'
I5
tp167
a(S'w'
I14
tp168
a(S'p2_tl'
I29
tp169
a(S'w'
I688
tp170
a(S'p1_du'
I1
tp171
a(S'p1_vo'
I5
tp172
a(S'w'
I9
tp173
a(S'p2_vo'
I4
tp174
a(S'w'
I734
tp175
a(S'p1_du'
I0
tp176
a(S'p1_vo'
I6
tp177
a(S'w'
I15
tp178
a(S'p1_tl'
I214
tp179
a(S'w'
I21
tp180
a(S'p2_du'
I0
tp181
a(S'p2_vo'
I5
tp182
a(S'w'
I14
tp183
a(S'w'
I10
tp184
a(S'tr_lh'
I1
tp185
a(S'tr_lr'
I16
tp186
a(S'w'
I11
tp187
a(S'tr_ll'
I1
tp188
a(S'w'
I1
tp189
a(S'tr_tl'
I125
tp190
a(S'w'
I9
tp191
a(S'ch_no'
I1
tp192
a(S'ch_tr'
I1
tp193
a(S'ch_p2'
I1
tp194
a(S'ch_p1'
I1
tp195
a(S'w'
I1
tp196
a(S'ch_no'
I1
tp197
a(S'ch_tr'
I1
tp198
a(S'ch_p2'
I1
tp199
a(S'ch_p1'
I1
tp200
a(S'w'
I644
tp201
a(S'p1_du'
I1
tp202
a(S'p1_vo'
I5
tp203
a(S'w'
I9
tp204
a(S'p2_du'
I1
tp205
a(S'p2_vo'
I4
tp206
a(S'w'
I725
tp207
a(S'p1_vo'
I4
tp208
a(S'w'
I9
tp209
a(S'p2_vo'
I3
tp210
a(S'w'
I2926
tp211
a(S'p1_tl'
I254
tp212
a(S'w'
I4
tp213
a(S'p1_du'
I0
tp214
a(S'p1_vo'
I2
tp215
a(S'w'
I8
tp216
a(S'p2_tl'
I64
tp217
a(S'w'
I3
tp218
a(S'p2_du'
I0
tp219
a(S'p2_vo'
I2
tp220
a(S'w'
I721
tp221
a(S'tr_lh'
I0
tp222
a(S'tr_lr'
I0
tp223
a(S'w'
I738
tp224
a(S'p1_vo'
I1
tp225
a(S'w'
I15
tp226
a(S'p1_tl'
I214
tp227
a(S'w'
I14
tp228
a(S'p2_vo'
I1
tp229
a(S'w'
I14
tp230
a(S'p2_tl'
I29
tp231
a(S'w'
I14
tp232
a(S'ch_no'
I1
tp233
a(S'ch_tr'
I1
tp234
a(S'ch_p2'
I1
tp235
a(S'ch_p1'
I1
tp236
a(S'w'
I1
tp237
a(S'ch_no'
I1
tp238
a(S'ch_tr'
I1
tp239
a(S'ch_p2'
I1
tp240
a(S'ch_p1'
I1
tp241
a(S'w'
I670
tp242
a(S'p1_du'
I1
tp243
a(S'w'
I9
tp244
a(S'p2_du'
I1
tp245
a(S'w'
I3659
tp246
a(S'w'
I3
tp247
a(S'p1_du'
I0
tp248
a(S'w'
I8
tp249
a(S'w'
I4
tp250
a(S'p2_du'
I0
tp251
a(S'w'
I1458
tp252
a(S'p1_vo'
I6
tp253
a(S'w'
I15
tp254
a(S'p1_tl'
I190
tp255
a(S'w'
I15
tp256
a(S'p2_vo'
I5
tp257
a(S'w'
I13
tp258
a(S'p2_ll'
I1
tp259
a(S'p2_th'
I0
tp260
a(S'w'
I2
tp261
a(S'p2_tl'
I254
tp262
a(S'w'
I11
tp263
a(S'tr_lh'
I1
tp264
a(S'tr_lr'
I16
tp265
a(S'w'
I11
tp266
a(S'tr_ll'
I1
tp267
a(S'w'
I1
tp268
a(S'tr_tl'
I224
tp269
a(S'w'
I8
tp270
a(S'ch_no'
I1
tp271
a(S'ch_tr'
I1
tp272
a(S'ch_p2'
I1
tp273
a(S'ch_p1'
I1
tp274
a(S'w'
I1
tp275
a(S'ch_no'
I1
tp276
a(S'ch_tr'
I1
tp277
a(S'ch_p2'
I1
tp278
a(S'ch_p1'
I1
tp279
a(S'w'
I652
tp280
a(S'p1_du'
I1
tp281
a(S'p1_vo'
I5
tp282
a(S'w'
I9
tp283
a(S'p2_du'
I1
tp284
a(S'p2_vo'
I4
tp285
a(S'w'
I725
tp286
a(S'p1_vo'
I4
tp287
a(S'w'
I9
tp288
a(S'p2_vo'
I3
tp289
a(S'w'
I4410
tp290
a(S'ch_no'
I1
tp291
a(S'ch_tr'
I1
tp292
a(S'ch_p2'
I1
tp293
a(S'ch_p1'
I1
tp294
a(S'w'
I1
tp295
a(S'ch_no'
I1
tp296
a(S'ch_tr'
I1
tp297
a(S'ch_p2'
I1
tp298
a(S'ch_p1'
I1
tp299
a(S'w'
I5868
tp300
a(S'ch_no'
I1
tp301
a(S'ch_tr'
I1
tp302
a(S'ch_p2'
I1
tp303
a(S'ch_p1'
I1
tp304
a(S'w'
I1
tp305
a(S'ch_no'
I1
tp306
a(S'ch_tr'
I1
tp307
a(S'ch_p2'
I1
tp308
a(S'ch_p1'
I1
tp309
a(S'w'
I718
tp310
a(S'w'
I4
tp311
a(S'p1_du'
I0
tp312
a(S'p1_vo'
I2
tp313
a(S'w'
I8
tp314
a(S'w'
I3
tp315
a(S'p2_du'
I0
tp316
a(S'p2_vo'
I2
tp317
a(S'w'
I2184
tp318
a(S'w'
I9
tp319
a(S'w'
I727
tp320
a(S'tr_lh'
I0
tp321
a(S'tr_lr'
I0
tp322
a(S'w'
I2204
tp323
a(S'p1_vo'
I6
tp324
a(S'w'
I14
tp325
a(S'p1_tl'
I160
tp326
a(S'w'
I15
tp327
a(S'p2_vo'
I5
tp328
a(S'w'
I14
tp329
a(S'p2_tl'
I214
tp330
a(S'w'
I8
tp331
a(S'tr_lh'
I1
tp332
a(S'tr_lr'
I16
tp333
a(S'w'
I11
tp334
a(S'tr_ll'
I1
tp335
a(S'tr_th'
I2
tp336
a(S'w'
I1
tp337
a(S'tr_tl'
I54
tp338
a(S'w'
I8
tp339
a(S'ch_no'
I1
tp340
a(S'ch_tr'
I1
tp341
a(S'ch_p2'
I1
tp342
a(S'ch_p1'
I1
tp343
a(S'w'
I1
tp344
a(S'ch_no'
I1
tp345
a(S'ch_tr'
I1
tp346
a(S'ch_p2'
I1
tp347
a(S'ch_p1'
I1
tp348
a(S'w'
I659
tp349
a(S'p1_du'
I1
tp350
a(S'p1_vo'
I5
tp351
a(S'w'
I9
tp352
a(S'p2_du'
I1
tp353
a(S'p2_vo'
I4
tp354
a(S'w'
I725
tp355
a(S'p1_vo'
I4
tp356
a(S'w'
I9
tp357
a(S'p2_vo'
I3
tp358
a(S'w'
I2926
tp359
a(S'p1_tl'
I190
tp360
a(S'w'
I4
tp361
a(S'p1_du'
I0
tp362
a(S'p1_vo'
I2
tp363
a(S'w'
I8
tp364
a(S'p2_tl'
I254
tp365
a(S'w'
I3
tp366
a(S'p2_du'
I0
tp367
a(S'p2_vo'
I2
tp368
a(S'w'
I721
tp369
a(S'tr_lh'
I0
tp370
a(S'tr_lr'
I0
tp371
a(S'w'
I736
tp372
a(S'p1_vo'
I6
tp373
a(S'w'
I15
tp374
a(S'p1_tl'
I170
tp375
a(S'w'
I15
tp376
a(S'p2_vo'
I5
tp377
a(S'w'
I14
tp378
a(S'p2_tl'
I226
tp379
a(S'w'
I8
tp380
a(S'tr_lh'
I1
tp381
a(S'tr_lr'
I16
tp382
a(S'w'
I10
tp383
a(S'tr_ll'
I1
tp384
a(S'w'
I2
tp385
a(S'tr_tl'
I129
tp386
a(S'w'
I8
tp387
a(S'ch_no'
I1
tp388
a(S'ch_tr'
I1
tp389
a(S'ch_p2'
I1
tp390
a(S'ch_p1'
I1
tp391
a(S'w'
I1
tp392
a(S'ch_no'
I1
tp393
a(S'ch_tr'
I1
tp394
a(S'ch_p2'
I1
tp395
a(S'ch_p1'
I1
tp396
a(S'w'
I656
tp397
a(S'p1_du'
I1
tp398
a(S'p1_vo'
I5
tp399
a(S'w'
I9
tp400
a(S'p2_du'
I1
tp401
a(S'p2_vo'
I4
tp402
a(S'w'
I725
tp403
a(S'p1_vo'
I4
tp404
a(S'w'
I9
tp405
a(S'p2_vo'
I3
tp406
a(S'w'
I2925
tp407
a(S'p1_tl'
I160
tp408
a(S'w'
I3
tp409
a(S'p1_du'
I0
tp410
a(S'p1_vo'
I2
tp411
a(S'w'
I8
tp412
a(S'p2_tl'
I214
tp413
a(S'w'
I3
tp414
a(S'p2_du'
I0
tp415
a(S'p2_vo'
I2
tp416
a(S'w'
I721
tp417
a(S'tr_lh'
I0
tp418
a(S'tr_lr'
I0
tp419
a(S'w'
I737
tp420
a(S'p1_vo'
I6
tp421
a(S'w'
I14
tp422
a(S'p1_tl'
I214
tp423
a(S'w'
I13
tp424
a(S'p2_vo'
I5
tp425
a(S'w'
I13
tp426
a(S'p2_ll'
I1
tp427
a(S'p2_th'
I1
tp428
a(S'w'
I1
tp429
a(S'p2_tl'
I64
tp430
a(S'w'
I8
tp431
a(S'tr_lh'
I1
tp432
a(S'tr_lr'
I16
tp433
a(S'w'
I11
tp434
a(S'tr_ll'
I1
tp435
a(S'w'
I1
tp436
a(S'tr_tl'
I54
tp437
a(S'w'
I9
tp438
a(S'ch_no'
I1
tp439
a(S'ch_tr'
I1
tp440
a(S'ch_p2'
I1
tp441
a(S'ch_p1'
I1
tp442
a(S'w'
I1
tp443
a(S'ch_no'
I1
tp444
a(S'ch_tr'
I1
tp445
a(S'ch_p2'
I1
tp446
a(S'ch_p1'
I1
tp447
a(S'w'
I660
tp448
a(S'p1_du'
I1
tp449
a(S'p1_vo'
I5
tp450
a(S'w'
I9
tp451
a(S'p2_du'
I1
tp452
a(S'p2_vo'
I4
tp453
a(S'w'
I725
tp454
a(S'p1_vo'
I4
tp455
a(S'w'
I9
tp456
a(S'p2_vo'
I3
tp457
a(S'w'
I2925
tp458
a(S'p1_tl'
I170
tp459
a(S'w'
I3
tp460
a(S'p1_du'
I0
tp461
a(S'p1_vo'
I2
tp462
a(S'w'
I8
tp463
a(S'p2_ll'
I1
tp464
a(S'p2_th'
I0
tp465
a(S'w'
I1
tp466
a(S'p2_tl'
I226
tp467
a(S'w'
I3
tp468
a(S'p2_du'
I0
tp469
a(S'p2_vo'
I2
tp470
a(S'w'
I719
tp471
a(S'tr_lh'
I0
tp472
a(S'tr_lr'
I0
tp473
a(S'w'
I738
tp474
a(S'p1_vo'
I6
tp475
a(S'w'
I14
tp476
a(S'p1_tl'
I190
tp477
a(S'w'
I14
tp478
a(S'p2_vo'
I5
tp479
a(S'w'
I13
tp480
a(S'p2_tl'
I240
tp481
a(S'w'
I12
tp482
a(S'tr_lh'
I1
tp483
a(S'tr_lr'
I16
tp484
a(S'w'
I11
tp485
a(S'tr_ll'
I1
tp486
a(S'tr_th'
I1
tp487
a(S'w'
I1
tp488
a(S'tr_tl'
I172
tp489
a(S'w'
I8
tp490
a(S'ch_no'
I1
tp491
a(S'ch_tr'
I1
tp492
a(S'ch_p2'
I1
tp493
a(S'ch_p1'
I1
tp494
a(S'w'
I1
tp495
a(S'ch_no'
I1
tp496
a(S'ch_tr'
I1
tp497
a(S'ch_p2'
I1
tp498
a(S'ch_p1'
I1
tp499
a(S'w'
I656
tp500
a(S'p1_du'
I1
tp501
a(S'p1_vo'
I5
tp502
a(S'w'
I9
tp503
a(S'p2_du'
I1
tp504
a(S'p2_vo'
I4
tp505
a(S'w'
I725
tp506
a(S'p1_vo'
I4
tp507
a(S'w'
I9
tp508
a(S'p2_vo'
I3
tp509
a(S'w'
I4410
tp510
a(S'ch_no'
I1
tp511
a(S'ch_tr'
I1
tp512
a(S'ch_p2'
I1
tp513
a(S'ch_p1'
I1
tp514
a(S'w'
I1
tp515
a(S'ch_no'
I1
tp516
a(S'ch_tr'
I1
tp517
a(S'ch_p2'
I1
tp518
a(S'ch_p1'
I1
tp519
a(S'w'
I5868
tp520
a(S'ch_no'
I1
tp521
a(S'ch_tr'
I1
tp522
a(S'ch_p2'
I1
tp523
a(S'ch_p1'
I1
tp524
a(S'w'
I1
tp525
a(S'ch_no'
I1
tp526
a(S'ch_tr'
I1
tp527
a(S'ch_p2'
I1
tp528
a(S'ch_p1'
I1
tp529
a(S'w'
I718
tp530
a(S'w'
I4
tp531
a(S'p1_du'
I0
tp532
a(S'p1_vo'
I2
tp533
a(S'w'
I8
tp534
a(S'w'
I3
tp535
a(S'p2_du'
I0
tp536
a(S'p2_vo'
I2
tp537
a(S'w'
I2184
tp538
a(S'w'
I9
tp539
a(S'w'
I727
tp540
a(S'tr_lh'
I0
tp541
a(S'tr_lr'
I0
tp542
a(S'w'
I2211
tp543
a(S'p1_vo'
I6
tp544
a(S'w'
I14
tp545
a(S'p1_tl'
I143
tp546
a(S'w'
I21
tp547
a(S'p2_vo'
I5
tp548
a(S'w'
I14
tp549
a(S'p2_tl'
I190
tp550
a(S'w'
I15
tp551
a(S'tr_lh'
I1
tp552
a(S'tr_lr'
I16
tp553
a(S'w'
I11
tp554
a(S'tr_ll'
I1
tp555
a(S'w'
I1
tp556
a(S'tr_tl'
I224
tp557
a(S'w'
I7
tp558
a(S'ch_no'
I1
tp559
a(S'ch_tr'
I1
tp560
a(S'ch_p2'
I1
tp561
a(S'ch_p1'
I1
tp562
a(S'w'
I1
tp563
a(S'ch_no'
I1
tp564
a(S'ch_tr'
I1
tp565
a(S'ch_p2'
I1
tp566
a(S'ch_p1'
I1
tp567
a(S'w'
I640
tp568
a(S'p1_du'
I1
tp569
a(S'p1_vo'
I5
tp570
a(S'w'
I9
tp571
a(S'p2_du'
I1
tp572
a(S'p2_vo'
I4
tp573
a(S'w'
I26
tp574
a(S'no_vo'
I5
tp575
a(S'w'
I2
tp576
a(S'no_ll'
I1
tp577
a(S'w'
I1
tp578
a(S'no_np'
I2
tp579
a(S'w'
I696
tp580
a(S'p1_vo'
I4
tp581
a(S'w'
I9
tp582
a(S'p2_vo'
I3
tp583
a(S'w'
I11
tp584
a(S'no_vo'
I4
tp585
a(S'w'
I1
tp586
a(S'no_ll'
I1
tp587
a(S'w'
I1
tp588
a(S'no_np'
I1
tp589
a(S'w'
I3657
tp590
a(S'no_vo'
I3
tp591
a(S'w'
I1
tp592
a(S'no_ll'
I1
tp593
a(S'w'
I1
tp594
a(S'w'
I3669
tp595
a(S'no_vo'
I2
tp596
a(S'w'
I2
tp597
a(S'no_ll'
I1
tp598
a(S'w'
I1
tp599
a(S'w'
I2935
tp600
a(S'no_vo'
I0
tp601
a(S'w'
I2931
tp602
a(S'p2_tl'
I189
tp603
a(S'w'
I1462
tp604
a(S'p2_tl'
I190
tp605
a(S'w'
I1472
tp606
a(S'p2_tl'
I191
tp607
a(S'w'
I1463
tp608
a(S'p2_tl'
I190
tp609
a(S'w'
I1467
tp610
a(S'p1_tl'
I141
tp611
a(S'w'
I15
tp612
a(S'p2_tl'
I189
tp613
a(S'w'
I1448
tp614
a(S'p1_tl'
I143
tp615
a(S'w'
I11
tp616
a(S'p2_tl'
I190
tp617
a(S'w'
I1461
tp618
a(S'p1_tl'
I145
tp619
a(S'w'
I14
tp620
a(S'p2_tl'
I191
tp621
a(S'w'
I718
tp622
a(S'p2_tl'
I190
tp623
a(S'w'
I3
tp624
a(S'p2_du'
I0
tp625
a(S'p2_vo'
I1
tp626
a(S'w'
I728
tp627
a(S'p1_tl'
I143
tp628
a(S'w'
I1473
tp629
a(S'p1_tl'
I141
tp630
a(S'w'
I9
tp631
a(S'w'
I1453
tp632
a(S'p1_tl'
I143
tp633
a(S'w'
I1472
tp634
a(S'p1_tl'
I145
tp635
a(S'w'
I27
tp636
a(S'p2_vo'
I5
tp637
a(S'w'
I19
tp638
a(S'p2_tl'
I240
tp639
a(S'w'
I11
tp640
a(S'ch_no'
I1
tp641
a(S'ch_tr'
I1
tp642
a(S'ch_p2'
I1
tp643
a(S'ch_p1'
I1
tp644
a(S'w'
I1
tp645
a(S'ch_no'
I1
tp646
a(S'ch_tr'
I1
tp647
a(S'ch_p2'
I1
tp648
a(S'ch_p1'
I1
tp649
a(S'w'
I676
tp650
a(S'p2_du'
I1
tp651
a(S'p2_vo'
I4
tp652
a(S'w'
I732
tp653
a(S'p1_tl'
I143
tp654
a(S'w'
I9
tp655
a(S'p2_vo'
I3
tp656
a(S'w'
I727
tp657
a(S'w'
I3
tp658
a(S'p2_du'
I0
tp659
a(S'p2_vo'
I1
tp660
a(S'w'
I732
tp661
a(S'p1_tl'
I141
tp662
a(S'w'
I14
tp663
a(S'p2_vo'
I5
tp664
a(S'w'
I13
tp665
a(S'p2_tl'
I254
tp666
a(S'w'
I11
tp667
a(S'ch_no'
I1
tp668
a(S'ch_tr'
I1
tp669
a(S'ch_p2'
I1
tp670
a(S'ch_p1'
I1
tp671
a(S'w'
I1
tp672
a(S'ch_no'
I1
tp673
a(S'ch_tr'
I1
tp674
a(S'ch_p2'
I1
tp675
a(S'ch_p1'
I1
tp676
a(S'w'
I693
tp677
a(S'p2_du'
I1
tp678
a(S'p2_vo'
I4
tp679
a(S'w'
I732
tp680
a(S'p1_tl'
I143
tp681
a(S'w'
I9
tp682
a(S'p2_vo'
I3
tp683
a(S'w'
I727
tp684
a(S'p2_tl'
I240
tp685
a(S'w'
I3
tp686
a(S'p2_du'
I0
tp687
a(S'p2_vo'
I1
tp688
a(S'w'
I731
tp689
a(S'p1_tl'
I145
tp690
a(S'w'
I14
tp691
a(S'p2_vo'
I5
tp692
a(S'w'
I13
tp693
a(S'w'
I13
tp694
a(S'tr_tl'
I222
tp695
a(S'w'
I8
tp696
a(S'ch_no'
I1
tp697
a(S'ch_tr'
I1
tp698
a(S'ch_p2'
I1
tp699
a(S'ch_p1'
I1
tp700
a(S'w'
I1
tp701
a(S'ch_no'
I1
tp702
a(S'ch_tr'
I1
tp703
a(S'ch_p2'
I1
tp704
a(S'ch_p1'
I1
tp705
a(S'w'
I680
tp706
a(S'p1_tl'
I143
tp707
a(S'w'
I4
tp708
a(S'p1_du'
I0
tp709
a(S'p1_vo'
I1
tp710
a(S'w'
I7
tp711
a(S'p2_du'
I1
tp712
a(S'p2_vo'
I4
tp713
a(S'w'
I726
tp714
a(S'p2_vo'
I3
tp715
a(S'w'
I10
tp716
a(S'tr_tl'
I224
tp717
a(S'w'
I724
tp718
a(S'p2_tl'
I254
tp719
a(S'w'
I4
tp720
a(S'p2_du'
I0
tp721
a(S'p2_vo'
I1
tp722
a(S'w'
I726
tp723
a(S'w'
I15
tp724
a(S'p2_vo'
I5
tp725
a(S'w'
I14
tp726
a(S'p2_tl'
I214
tp727
a(S'w'
I12
tp728
a(S'tr_tl'
I226
tp729
a(S'w'
I7
tp730
a(S'ch_no'
I1
tp731
a(S'ch_tr'
I1
tp732
a(S'ch_p2'
I1
tp733
a(S'ch_p1'
I1
tp734
a(S'w'
I1
tp735
a(S'ch_no'
I1
tp736
a(S'ch_tr'
I1
tp737
a(S'ch_p2'
I1
tp738
a(S'ch_p1'
I1
tp739
a(S'w'
I688
tp740
a(S'p2_du'
I1
tp741
a(S'p2_vo'
I4
tp742
a(S'w'
I734
tp743
a(S'p2_vo'
I3
tp744
a(S'w'
I10
tp745
a(S'tr_tl'
I224
tp746
a(S'w'
I724
tp747
a(S'p2_tl'
I240
tp748
a(S'w'
I4
tp749
a(S'p2_du'
I0
tp750
a(S'p2_vo'
I1
tp751
a(S'w'
I727
tp752
a(S'w'
I13
tp753
a(S'p2_vo'
I5
tp754
a(S'w'
I14
tp755
a(S'p2_tl'
I190
tp756
a(S'w'
I12
tp757
a(S'tr_tl'
I222
tp758
a(S'w'
I8
tp759
a(S'ch_no'
I1
tp760
a(S'ch_tr'
I1
tp761
a(S'ch_p2'
I1
tp762
a(S'ch_p1'
I1
tp763
a(S'w'
I1
tp764
a(S'ch_no'
I1
tp765
a(S'ch_tr'
I1
tp766
a(S'ch_p2'
I1
tp767
a(S'ch_p1'
I1
tp768
a(S'w'
I688
tp769
a(S'p2_du'
I1
tp770
a(S'p2_vo'
I4
tp771
a(S'w'
I734
tp772
a(S'p2_vo'
I3
tp773
a(S'w'
I10
tp774
a(S'tr_tl'
I224
tp775
a(S'w'
I724
tp776
a(S'p2_tl'
I214
tp777
a(S'w'
I3
tp778
a(S'p2_du'
I0
tp779
a(S'p2_vo'
I1
tp780
a(S'w'
I743
tp781
a(S'p1_du'
I1
tp782
a(S'p1_vo'
I2
tp783
a(S'w'
I15
tp784
a(S'p1_tl'
I253
tp785
a(S'w'
I13
tp786
a(S'p2_vo'
I5
tp787
a(S'w'
I14
tp788
a(S'w'
I12
tp789
a(S'tr_tl'
I226
tp790
a(S'w'
I7
tp791
a(S'ch_no'
I1
tp792
a(S'ch_tr'
I1
tp793
a(S'ch_p2'
I1
tp794
a(S'ch_p1'
I1
tp795
a(S'w'
I1
tp796
a(S'ch_no'
I1
tp797
a(S'ch_tr'
I1
tp798
a(S'ch_p2'
I1
tp799
a(S'ch_p1'
I1
tp800
a(S'w'
I656
tp801
a(S'p1_vo'
I1
tp802
a(S'w'
I9
tp803
a(S'p2_du'
I1
tp804
a(S'p2_vo'
I4
tp805
a(S'w'
I727
tp806
a(S'p1_tl'
I255
tp807
a(S'w'
I10
tp808
a(S'p2_vo'
I3
tp809
a(S'w'
I10
tp810
a(S'tr_tl'
I224
tp811
a(S'w'
I716
tp812
a(S'p2_tl'
I190
tp813
a(S'w'
I3
tp814
a(S'p2_du'
I0
tp815
a(S'p2_vo'
I1
tp816
a(S'w'
I728
tp817
a(S'p1_vo'
I2
tp818
a(S'w'
I15
tp819
a(S'p1_tl'
I239
tp820
a(S'w'
I13
tp821
a(S'p2_vo'
I5
tp822
a(S'w'
I14
tp823
a(S'w'
I12
tp824
a(S'tr_tl'
I222
tp825
a(S'w'
I8
tp826
a(S'ch_no'
I1
tp827
a(S'ch_tr'
I1
tp828
a(S'ch_p2'
I1
tp829
a(S'ch_p1'
I1
tp830
a(S'w'
I1
tp831
a(S'ch_no'
I1
tp832
a(S'ch_tr'
I1
tp833
a(S'ch_p2'
I1
tp834
a(S'ch_p1'
I1
tp835
a(S'w'
I670
tp836
a(S'p1_vo'
I1
tp837
a(S'w'
I8
tp838
a(S'p2_du'
I1
tp839
a(S'p2_vo'
I4
tp840
a(S'w'
I729
tp841
a(S'p1_tl'
I241
tp842
a(S'w'
I9
tp843
a(S'p2_vo'
I3
tp844
a(S'w'
I10
tp845
a(S'tr_tl'
I224
tp846
a(S'w'
I715
tp847
a(S'p2_tl'
I214
tp848
a(S'w'
I3
tp849
a(S'p2_du'
I0
tp850
a(S'p2_vo'
I1
tp851
a(S'w'
I730
tp852
a(S'p1_vo'
I2
tp853
a(S'w'
I16
tp854
a(S'p1_tl'
I213
tp855
a(S'w'
I12
tp856
a(S'p2_vo'
I5
tp857
a(S'w'
I14
tp858
a(S'p2_tl'
I170
tp859
a(S'w'
I12
tp860
a(S'tr_tl'
I226
tp861
a(S'w'
I7
tp862
a(S'ch_no'
I1
tp863
a(S'ch_tr'
I1
tp864
a(S'ch_p2'
I1
tp865
a(S'ch_p1'
I1
tp866
a(S'w'
I1
tp867
a(S'ch_no'
I1
tp868
a(S'ch_tr'
I1
tp869
a(S'ch_p2'
I1
tp870
a(S'ch_p1'
I1
tp871
a(S'w'
I669
tp872
a(S'p1_vo'
I1
tp873
a(S'w'
I8
tp874
a(S'p2_du'
I1
tp875
a(S'p2_vo'
I4
tp876
a(S'w'
I729
tp877
a(S'p1_tl'
I215
tp878
a(S'w'
I9
tp879
a(S'p2_vo'
I3
tp880
a(S'w'
I10
tp881
a(S'tr_tl'
I224
tp882
a(S'w'
I715
tp883
a(S'p2_tl'
I190
tp884
a(S'w'
I3
tp885
a(S'p2_du'
I0
tp886
a(S'p2_vo'
I1
tp887
a(S'w'
I728
tp888
a(S'p1_vo'
I2
tp889
a(S'w'
I15
tp890
a(S'p1_tl'
I189
tp891
a(S'w'
I13
tp892
a(S'p2_vo'
I5
tp893
a(S'w'
I14
tp894
a(S'p2_tl'
I160
tp895
a(S'w'
I12
tp896
a(S'tr_tl'
I222
tp897
a(S'w'
I8
tp898
a(S'ch_no'
I1
tp899
a(S'ch_tr'
I1
tp900
a(S'ch_p2'
I1
tp901
a(S'ch_p1'
I1
tp902
a(S'w'
I1
tp903
a(S'ch_no'
I1
tp904
a(S'ch_tr'
I1
tp905
a(S'ch_p2'
I1
tp906
a(S'ch_p1'
I1
tp907
a(S'w'
I669
tp908
a(S'p1_vo'
I1
tp909
a(S'w'
I9
tp910
a(S'p2_du'
I1
tp911
a(S'p2_vo'
I4
tp912
a(S'w'
I728
tp913
a(S'p1_tl'
I191
tp914
a(S'w'
I9
tp915
a(S'p2_vo'
I3
tp916
a(S'w'
I10
tp917
a(S'tr_tl'
I224
tp918
a(S'w'
I717
tp919
a(S'p2_tl'
I170
tp920
a(S'w'
I3
tp921
a(S'p2_du'
I0
tp922
a(S'p2_vo'
I1
tp923
a(S'w'
I726
tp924
a(S'p1_vo'
I2
tp925
a(S'w'
I16
tp926
a(S'p1_tl'
I213
tp927
a(S'w'
I13
tp928
a(S'p2_vo'
I5
tp929
a(S'w'
I13
tp930
a(S'w'
I12
tp931
a(S'tr_tl'
I226
tp932
a(S'w'
I8
tp933
a(S'ch_no'
I1
tp934
a(S'ch_tr'
I1
tp935
a(S'ch_p2'
I1
tp936
a(S'ch_p1'
I1
tp937
a(S'w'
I1
tp938
a(S'ch_no'
I1
tp939
a(S'ch_tr'
I1
tp940
a(S'ch_p2'
I1
tp941
a(S'ch_p1'
I1
tp942
a(S'w'
I670
tp943
a(S'p1_vo'
I1
tp944
a(S'w'
I9
tp945
a(S'p2_du'
I1
tp946
a(S'p2_vo'
I4
tp947
a(S'w'
I4
tp948
a(S'tr_lh'
I0
tp949
a(S'tr_lr'
I0
tp950
a(S'w'
I724
tp951
a(S'p1_tl'
I215
tp952
a(S'w'
I9
tp953
a(S'p2_vo'
I3
tp954
a(S'w'
I10
tp955
a(S'tr_tl'
I224
tp956
a(S'w'
I717
tp957
a(S'p2_tl'
I160
tp958
a(S'w'
I3
tp959
a(S'p2_du'
I0
tp960
a(S'p2_vo'
I1
tp961
a(S'w'
I727
tp962
a(S'p1_vo'
I2
tp963
a(S'w'
I16
tp964
a(S'p1_tl'
I189
tp965
a(S'w'
I13
tp966
a(S'p2_vo'
I5
tp967
a(S'w'
I14
tp968
a(S'w'
I12
tp969
a(S'tr_tl'
I222
tp970
a(S'w'
I8
tp971
a(S'ch_no'
I1
tp972
a(S'ch_tr'
I1
tp973
a(S'ch_p2'
I1
tp974
a(S'ch_p1'
I1
tp975
a(S'ch_no'
I1
tp976
a(S'ch_tr'
I1
tp977
a(S'ch_p2'
I1
tp978
a(S'ch_p1'
I1
tp979
a(S'w'
I669
tp980
a(S'p1_vo'
I1
tp981
a(S'w'
I9
tp982
a(S'p2_du'
I1
tp983
a(S'p2_vo'
I4
tp984
a(S'w'
I728
tp985
a(S'p1_tl'
I191
tp986
a(S'w'
I9
tp987
a(S'p2_vo'
I3
tp988
a(S'w'
I10
tp989
a(S'tr_tl'
I224
tp990
a(S'w'
I717
tp991
a(S'p2_tl'
I170
tp992
a(S'w'
I3
tp993
a(S'p2_du'
I0
tp994
a(S'p2_vo'
I1
tp995
a(S'w'
I727
tp996
a(S'p1_vo'
I2
tp997
a(S'w'
I16
tp998
a(S'p1_tl'
I169
tp999
a(S'w'
I13
tp1000
a(S'p2_vo'
I5
tp1001
a(S'w'
I13
tp1002
a(S'p2_tl'
I143
tp1003
a(S'w'
I12
tp1004
a(S'tr_tl'
I226
tp1005
a(S'w'
I8
tp1006
a(S'ch_no'
I1
tp1007
a(S'ch_tr'
I1
tp1008
a(S'ch_p2'
I1
tp1009
a(S'ch_p1'
I1
tp1010
a(S'w'
I1
tp1011
a(S'ch_no'
I1
tp1012
a(S'ch_tr'
I1
tp1013
a(S'ch_p2'
I1
tp1014
a(S'ch_p1'
I1
tp1015
a(S'w'
I670
tp1016
a(S'p1_vo'
I1
tp1017
a(S'w'
I9
tp1018
a(S'p2_du'
I1
tp1019
a(S'p2_vo'
I4
tp1020
a(S'w'
I727
tp1021
a(S'p1_tl'
I171
tp1022
a(S'w'
I9
tp1023
a(S'p2_vo'
I3
tp1024
a(S'w'
I10
tp1025
a(S'tr_tl'
I224
tp1026
a(S'w'
I717
tp1027
a(S'p2_tl'
I160
tp1028
a(S'w'
I3
tp1029
a(S'p2_du'
I0
tp1030
a(S'p2_vo'
I1
tp1031
a(S'w'
I727
tp1032
a(S'p1_vo'
I2
tp1033
a(S'w'
I16
tp1034
a(S'p1_tl'
I159
tp1035
a(S'w'
I22
tp1036
a(S'p2_du'
I1
tp1037
a(S'p2_vo'
I5
tp1038
a(S'w'
I8
tp1039
a(S'p2_ll'
I1
tp1040
a(S'p2_th'
I5
tp1041
a(S'w'
I1
tp1042
a(S'p2_tl'
I244
tp1043
a(S'w'
I10
tp1044
a(S'tr_lh'
I1
tp1045
a(S'tr_lr'
I16
tp1046
a(S'w'
I11
tp1047
a(S'tr_ll'
I1
tp1048
a(S'tr_th'
I2
tp1049
a(S'w'
I1
tp1050
a(S'tr_tl'
I250
tp1051
a(S'w'
I8
tp1052
a(S'ch_no'
I1
tp1053
a(S'ch_tr'
I1
tp1054
a(S'ch_p2'
I1
tp1055
a(S'ch_p1'
I1
tp1056
a(S'w'
I1
tp1057
a(S'ch_no'
I1
tp1058
a(S'ch_tr'
I1
tp1059
a(S'ch_p2'
I1
tp1060
a(S'ch_p1'
I1
tp1061
a(S'w'
I656
tp1062
a(S'p1_vo'
I1
tp1063
a(S'w'
I7
tp1064
a(S'p2_vo'
I4
tp1065
a(S'w'
I729
tp1066
a(S'p1_tl'
I161
tp1067
a(S'w'
I9
tp1068
a(S'p2_vo'
I3
tp1069
a(S'w'
I1452
tp1070
a(S'p1_du'
I0
tp1071
a(S'p1_vo'
I0
tp1072
a(S'w'
I738
tp1073
a(S'p2_vo'
I2
tp1074
a(S'w'
I734
tp1075
a(S'p2_vo'
I1
tp1076
a(S'w'
I734
tp1077
a(S'p2_vo'
I0
tp1078
a(S'w'
I3
tp1079
a(S'tr_lh'
I0
tp1080
a(S'tr_lr'
I0
tp1081
a(S'w'
I735
tp1082
a(S'p2_vo'
I5
tp1083
a(S'w'
I8
tp1084
a(S'w'
I9
tp1085
a(S'tr_lh'
I1
tp1086
a(S'tr_lr'
I16
tp1087
a(S'w'
I11
tp1088
a(S'tr_ll'
I1
tp1089
a(S'w'
I9
tp1090
a(S'ch_no'
I1
tp1091
a(S'ch_tr'
I1
tp1092
a(S'ch_p2'
I1
tp1093
a(S'ch_p1'
I1
tp1094
a(S'w'
I1
tp1095
a(S'ch_no'
I1
tp1096
a(S'ch_tr'
I1
tp1097
a(S'ch_p2'
I1
tp1098
a(S'ch_p1'
I1
tp1099
a(S'w'
I691
tp1100
a(S'p2_vo'
I4
tp1101
a(S'w'
I734
tp1102
a(S'p2_vo'
I3
tp1103
a(S'w'
I5870
tp1104
a(S'p2_vo'
I2
tp1105
a(S'w'
I734
tp1106
a(S'p2_vo'
I1
tp1107
a(S'w'
I735
tp1108
a(S'p2_vo'
I0
tp1109
a(S'w'
I2930
tp1110
a(S'p2_du'
I0
tp1111
a(S'w'
I1469
tp1112
a(S'tr_lh'
I0
tp1113
a(S'tr_lr'
I0
tp1114
a(S'w'
I1464
tp1115
a(S'ch_no'
I1
tp1116
a(S'ch_tr'
I0
tp1117
a(S'ch_p2'
I1
tp1118
a(S'ch_p1'
I1
tp1119
a(S'ch_no'
I1
tp1120
a(S'ch_tr'
I1
tp1121
a(S'ch_p2'
I1
tp1122
a(S'ch_p1'
I1
tp1123
a(S'w'
I1
tp1124
a.