(lp1
(S'clock'
p2
I1789772
tp3
a(S'ch_no'
I1
tp4
a(S'ch_tr'
I0
tp5
a(S'ch_p2'
I1
tp6
a(S'ch_p1'
I1
tp7
a(S'ch_no'
I1
tp8
a(S'ch_tr'
I1
tp9
a(S'ch_p2'
I1
tp10
a(S'ch_p1'
I1
tp11
a(S'p1_lh'
I1
tp12
a(S'p1_cv'
I1
tp13
a(S'p2_lh'
I1
tp14
a(S'p2_cv'
I1
tp15
a(S'no_lh'
I1
tp16
a(S'no_cv'
I1
tp17
a(S'p1_sp'
I7
tp18
a(S'p1_sn'
I1
tp19
a(S'p1_ss'
I7
tp20
a(S'p2_sp'
I7
tp21
a(S'p2_sn'
I1
tp22
a(S'p2_ss'
I7
tp23
a(S'w'
I19
tp24
a(S'p1_vo'
I5
tp25
a(S'w'
I8
tp26
a(S'p1_ll'
I1
tp27
a(S'p1_th'
I2
tp28
a(S'w'
I2
tp29
a(S'p1_tl'
I54
tp30
a(S'w'
I19
tp31
a(S'p2_du'
I1
tp32
a(S'p2_vo'
I4
tp33
a(S'w'
I7
tp34
a(S'p2_ll'
I1
tp35
a(S'p2_th'
I5
tp36
a(S'w'
I2
tp37
a(S'p2_tl'
I74
tp38
a(S'w'
I12
tp39
a(S'tr_lh'
I1
tp40
a(S'tr_lr'
I16
tp41
a(S'w'
I7
tp42
a(S'tr_ll'
I1
tp43
a(S'tr_th'
I5
tp44
a(S'w'
I1
tp45
a(S'tr_tl'
I77
tp46
a(S'w'
I1409
tp47
a(S'p1_tl'
I22
tp48
a(S'w'
I17
tp49
a(S'p2_ll'
I1
tp50
a(S'p2_th'
I4
tp51
a(S'w'
I2
tp52
a(S'p2_tl'
I254
tp53
a(S'w'
I13
tp54
a(S'tr_ll'
I1
tp55
a(S'w'
I1
tp56
a(S'tr_tl'
I1
tp57
a(S'w'
I1435
tp58
a(S'p1_ll'
I1
tp59
a(S'p1_th'
I1
tp60
a(S'w'
I1
tp61
a(S'p1_tl'
I252
tp62
a(S'w'
I18
tp63
a(S'p2_tl'
I198
tp64
a(S'w'
I13
tp65
a(S'tr_ll'
I1
tp66
a(S'tr_th'
I4
tp67
a(S'w'
I1
tp68
a(S'tr_tl'
I201
tp69
a(S'w'
I1434
tp70
a(S'p1_tl'
I224
tp71
a(S'w'
I18
tp72
a(S'p2_tl'
I114
tp73
a(S'w'
I13
tp74
a(S'tr_ll'
I1
tp75
a(S'w'
I1
tp76
a(S'tr_tl'
I117
tp77
a(S'w'
I1436
tp78
a(S'p1_tl'
I197
tp79
a(S'w'
I18
tp80
a(S'p2_tl'
I50
tp81
a(S'w'
I13
tp82
a(S'tr_ll'
I1
tp83
a(S'w'
I1
tp84
a(S'tr_tl'
I53
tp85
a(S'w'
I1438
tp86
a(S'p1_tl'
I172
tp87
a(S'w'
I17
tp88
a(S'p2_ll'
I1
tp89
a(S'p2_th'
I3
tp90
a(S'w'
I1
tp91
a(S'p2_tl'
I246
tp92
a(S'w'
I13
tp93
a(S'tr_ll'
I1
tp94
a(S'tr_th'
I3
tp95
a(S'w'
I1
tp96
a(S'tr_tl'
I249
tp97
a(S'w'
I1433
tp98
a(S'p1_tl'
I148
tp99
a(S'w'
I18
tp100
a(S'p2_tl'
I189
tp101
a(S'w'
I13
tp102
a(S'tr_ll'
I1
tp103
a(S'w'
I1
tp104
a(S'tr_tl'
I192
tp105
a(S'w'
I1436
tp106
a(S'p1_tl'
I125
tp107
a(S'w'
I18
tp108
a(S'p2_tl'
I135
tp109
a(S'w'
I13
tp110
a(S'tr_ll'
I1
tp111
a(S'w'
I1
tp112
a(S'tr_tl'
I138
tp113
a(S'w'
I1435
tp114
a(S'p1_tl'
I104
tp115
a(S'w'
I21
tp116
a(S'p2_tl'
I84
tp117
a(S'w'
I16
tp118
a(S'tr_ll'
I1
tp119
a(S'w'
I1
tp120
a(S'tr_tl'
I87
tp121
a(S'w'
I1430
tp122
a(S'p1_tl'
I83
tp123
a(S'w'
I19
tp124
a(S'p2_tl'
I36
tp125
a(S'w'
I13
tp126
a(S'tr_ll'
I1
tp127
a(S'w'
I1
tp128
a(S'tr_tl'
I39
tp129
a(S'w'
I1433
tp130
a(S'p1_vo'
I7
tp131
a(S'w'
I9
tp132
a(S'p1_tl'
I125
tp133
a(S'w'
I25
tp134
a(S'p2_du'
I0
tp135
a(S'p2_vo'
I9
tp136
a(S'w'
I16
tp137
a(S'p2_ll'
I1
tp138
a(S'p2_th'
I5
tp139
a(S'w'
I1
tp140
a(S'p2_tl'
I241
tp141
a(S'w'
I23
tp142
a(S'tr_ll'
I1
tp143
a(S'tr_th'
I1
tp144
a(S'w'
I1
tp145
a(S'tr_tl'
I125
tp146
a(S'w'
I10
tp147
a(S'ch_no'
I1
tp148
a(S'ch_tr'
I1
tp149
a(S'ch_p2'
I1
tp150
a(S'ch_p1'
I1
tp151
a(S'w'
I641
tp152
a(S'p1_du'
I1
tp153
a(S'p1_vo'
I6
tp154
a(S'w'
I8
tp155
a(S'p2_du'
I1
tp156
a(S'p2_vo'
I8
tp157
a(S'w'
I726
tp158
a(S'p1_vo'
I5
tp159
a(S'w'
I8
tp160
a(S'p2_vo'
I7
tp161
a(S'w'
I726
tp162
a(S'p1_vo'
I4
tp163
a(S'w'
I8
tp164
a(S'p2_vo'
I6
tp165
a(S'w'
I1459
tp166
a(S'p1_du'
I0
tp167
a(S'p1_vo'
I2
tp168
a(S'w'
I8
tp169
a(S'w'
I4
tp170
a(S'p2_du'
I0
tp171
a(S'p2_vo'
I2
tp172
a(S'w'
I3
tp173
a(S'tr_lh'
I0
tp174
a(S'tr_lr'
I0
tp175
a(S'w'
I1465
tp176
a(S'p1_vo'
I7
tp177
a(S'w'
I18
tp178
a(S'w'
I19
tp179
a(S'p2_vo'
I9
tp180
a(S'w'
I12
tp181
a(S'p2_ll'
I1
tp182
a(S'p2_th'
I0
tp183
a(S'w'
I1
tp184
a(S'p2_tl'
I226
tp185
a(S'w'
I11
tp186
a(S'tr_lh'
I1
tp187
a(S'tr_lr'
I16
tp188
a(S'w'
I8
tp189
a(S'tr_ll'
I1
tp190
a(S'tr_th'
I0
tp191
a(S'w'
I1
tp192
a(S'tr_tl'
I190
tp193
a(S'w'
I7
tp194
a(S'ch_no'
I1
tp195
a(S'ch_tr'
I1
tp196
a(S'ch_p2'
I1
tp197
a(S'ch_p1'
I1
tp198
a(S'w'
I1
tp199
a(S'ch_no'
I1
tp200
a(S'ch_tr'
I1
tp201
a(S'ch_p2'
I1
tp202
a(S'ch_p1'
I1
tp203
a(S'w'
I645
tp204
a(S'p1_du'
I1
tp205
a(S'p1_vo'
I6
tp206
a(S'w'
I8
tp207
a(S'p2_du'
I1
tp208
a(S'p2_vo'
I8
tp209
a(S'w'
I725
tp210
a(S'p1_vo'
I5
tp211
a(S'w'
I8
tp212
a(S'p2_vo'
I7
tp213
a(S'w'
I726
tp214
a(S'p1_vo'
I4
tp215
a(S'w'
I8
tp216
a(S'p2_vo'
I6
tp217
a(S'w'
I1460
tp218
a(S'w'
I3
tp219
a(S'p1_du'
I0
tp220
a(S'p1_vo'
I2
tp221
a(S'w'
I8
tp222
a(S'p2_ll'
I1
tp223
a(S'p2_th'
I5
tp224
a(S'w'
I1
tp225
a(S'p2_tl'
I244
tp226
a(S'w'
I3
tp227
a(S'p2_du'
I0
tp228
a(S'p2_vo'
I2
tp229
a(S'w'
I3
tp230
a(S'tr_lh'
I0
tp231
a(S'tr_lr'
I0
tp232
a(S'w'
I1453
tp233
a(S'p1_vo'
I7
tp234
a(S'w'
I12
tp235
a(S'p1_tl'
I148
tp236
a(S'w'
I13
tp237
a(S'p2_vo'
I9
tp238
a(S'w'
I11
tp239
a(S'p2_ll'
I1
tp240
a(S'p2_th'
I0
tp241
a(S'w'
I1
tp242
a(S'p2_tl'
I240
tp243
a(S'w'
I12
tp244
a(S'tr_lh'
I1
tp245
a(S'tr_lr'
I16
tp246
a(S'w'
I7
tp247
a(S'tr_ll'
I1
tp248
a(S'w'
I2
tp249
a(S'tr_tl'
I254
tp250
a(S'w'
I6
tp251
a(S'ch_no'
I1
tp252
a(S'ch_tr'
I1
tp253
a(S'ch_p2'
I1
tp254
a(S'ch_p1'
I1
tp255
a(S'w'
I1
tp256
a(S'ch_no'
I1
tp257
a(S'ch_tr'
I1
tp258
a(S'ch_p2'
I1
tp259
a(S'ch_p1'
I1
tp260
a(S'w'
I664
tp261
a(S'p1_du'
I1
tp262
a(S'p1_vo'
I6
tp263
a(S'w'
I8
tp264
a(S'p2_du'
I1
tp265
a(S'p2_vo'
I8
tp266
a(S'w'
I726
tp267
a(S'p1_vo'
I5
tp268
a(S'w'
I9
tp269
a(S'p2_vo'
I7
tp270
a(S'w'
I725
tp271
a(S'p1_vo'
I4
tp272
a(S'w'
I8
tp273
a(S'p2_vo'
I6
tp274
a(S'w'
I1460
tp275
a(S'p1_tl'
I125
tp276
a(S'w'
I3
tp277
a(S'p1_du'
I0
tp278
a(S'p1_vo'
I2
tp279
a(S'w'
I7
tp280
a(S'p2_ll'
I1
tp281
a(S'p2_th'
I5
tp282
a(S'w'
I1
tp283
a(S'p2_tl'
I244
tp284
a(S'w'
I4
tp285
a(S'p2_du'
I0
tp286
a(S'p2_vo'
I2
tp287
a(S'w'
I3
tp288
a(S'tr_lh'
I0
tp289
a(S'tr_lr'
I0
tp290
a(S'w'
I1456
tp291
a(S'p1_vo'
I7
tp292
a(S'w'
I12
tp293
a(S'p1_tl'
I252
tp294
a(S'w'
I15
tp295
a(S'p2_vo'
I9
tp296
a(S'w'
I11
tp297
a(S'p2_ll'
I1
tp298
a(S'p2_th'
I1
tp299
a(S'w'
I1
tp300
a(S'p2_tl'
I46
tp301
a(S'w'
I9
tp302
a(S'tr_lh'
I1
tp303
a(S'tr_lr'
I16
tp304
a(S'w'
I8
tp305
a(S'tr_ll'
I1
tp306
a(S'tr_th'
I1
tp307
a(S'w'
I1
tp308
a(S'tr_tl'
I64
tp309
a(S'w'
I7
tp310
a(S'ch_no'
I1
tp311
a(S'ch_tr'
I1
tp312
a(S'ch_p2'
I1
tp313
a(S'ch_p1'
I1
tp314
a(S'w'
I1
tp315
a(S'ch_no'
I1
tp316
a(S'ch_tr'
I1
tp317
a(S'ch_p2'
I1
tp318
a(S'ch_p1'
I1
tp319
a(S'w'
I662
tp320
a(S'p1_du'
I1
tp321
a(S'p1_vo'
I6
tp322
a(S'w'
I8
tp323
a(S'p2_du'
I1
tp324
a(S'p2_vo'
I8
tp325
a(S'w'
I726
tp326
a(S'p1_vo'
I5
tp327
a(S'w'
I8
tp328
a(S'p2_vo'
I7
tp329
a(S'w'
I725
tp330
a(S'p1_vo'
I4
tp331
a(S'w'
I8
tp332
a(S'p2_vo'
I6
tp333
a(S'w'
I1460
tp334
a(S'p1_tl'
I125
tp335
a(S'w'
I4
tp336
a(S'p1_du'
I0
tp337
a(S'p1_vo'
I2
tp338
a(S'w'
I7
tp339
a(S'p2_ll'
I1
tp340
a(S'p2_th'
I5
tp341
a(S'w'
I1
tp342
a(S'p2_tl'
I244
tp343
a(S'w'
I3
tp344
a(S'p2_du'
I0
tp345
a(S'p2_vo'
I2
tp346
a(S'w'
I4
tp347
a(S'tr_lh'
I0
tp348
a(S'tr_lr'
I0
tp349
a(S'w'
I1456
tp350
a(S'p1_vo'
I7
tp351
a(S'w'
I12
tp352
a(S'p1_tl'
I172
tp353
a(S'w'
I15
tp354
a(S'p2_vo'
I9
tp355
a(S'w'
I11
tp356
a(S'p2_ll'
I1
tp357
a(S'p2_th'
I0
tp358
a(S'w'
I2
tp359
a(S'p2_tl'
I254
tp360
a(S'w'
I8
tp361
a(S'tr_lh'
I1
tp362
a(S'tr_lr'
I16
tp363
a(S'w'
I8
tp364
a(S'tr_ll'
I1
tp365
a(S'w'
I1
tp366
a(S'tr_tl'
I172
tp367
a(S'w'
I7
tp368
a(S'ch_no'
I1
tp369
a(S'ch_tr'
I1
tp370
a(S'ch_p2'
I1
tp371
a(S'ch_p1'
I1
tp372
a(S'w'
I1
tp373
a(S'ch_no'
I1
tp374
a(S'ch_tr'
I1
tp375
a(S'ch_p2'
I1
tp376
a(S'ch_p1'
I1
tp377
a(S'w'
I662
tp378
a(S'p1_du'
I1
tp379
a(S'p1_vo'
I6
tp380
a(S'w'
I8
tp381
a(S'p2_du'
I1
tp382
a(S'p2_vo'
I8
tp383
a(S'w'
I726
tp384
a(S'p1_vo'
I5
tp385
a(S'w'
I8
tp386
a(S'p2_vo'
I7
tp387
a(S'w'
I726
tp388
a(S'p1_vo'
I4
tp389
a(S'w'
I8
tp390
a(S'p2_vo'
I6
tp391
a(S'w'
I1459
tp392
a(S'p1_tl'
I125
tp393
a(S'w'
I3
tp394
a(S'p1_du'
I0
tp395
a(S'p1_vo'
I2
tp396
a(S'w'
I8
tp397
a(S'p2_tl'
I226
tp398
a(S'w'
I3
tp399
a(S'p2_du'
I0
tp400
a(S'p2_vo'
I2
tp401
a(S'w'
I4
tp402
a(S'tr_lh'
I0
tp403
a(S'tr_lr'
I0
tp404
a(S'w'
I1457
tp405
a(S'p1_vo'
I7
tp406
a(S'w'
I11
tp407
a(S'p1_tl'
I197
tp408
a(S'w'
I15
tp409
a(S'p2_vo'
I9
tp410
a(S'w'
I12
tp411
a(S'p2_ll'
I1
tp412
a(S'p2_th'
I1
tp413
a(S'w'
I1
tp414
a(S'p2_tl'
I13
tp415
a(S'w'
I9
tp416
a(S'tr_lh'
I1
tp417
a(S'tr_lr'
I16
tp418
a(S'w'
I7
tp419
a(S'tr_ll'
I1
tp420
a(S'w'
I2
tp421
a(S'tr_tl'
I83
tp422
a(S'w'
I6
tp423
a(S'ch_no'
I1
tp424
a(S'ch_tr'
I1
tp425
a(S'ch_p2'
I1
tp426
a(S'ch_p1'
I1
tp427
a(S'w'
I1
tp428
a(S'ch_no'
I1
tp429
a(S'ch_tr'
I1
tp430
a(S'ch_p2'
I1
tp431
a(S'ch_p1'
I1
tp432
a(S'w'
I663
tp433
a(S'p1_du'
I1
tp434
a(S'p1_vo'
I6
tp435
a(S'w'
I8
tp436
a(S'p2_du'
I1
tp437
a(S'p2_vo'
I8
tp438
a(S'w'
I726
tp439
a(S'p1_vo'
I5
tp440
a(S'w'
I8
tp441
a(S'p2_vo'
I7
tp442
a(S'w'
I725
tp443
a(S'p1_vo'
I4
tp444
a(S'w'
I8
tp445
a(S'p2_vo'
I6
tp446
a(S'w'
I1460
tp447
a(S'p1_tl'
I148
tp448
a(S'w'
I3
tp449
a(S'p1_du'
I0
tp450
a(S'p1_vo'
I2
tp451
a(S'w'
I8
tp452
a(S'p2_ll'
I1
tp453
a(S'p2_th'
I0
tp454
a(S'w'
I1
tp455
a(S'p2_tl'
I240
tp456
a(S'w'
I3
tp457
a(S'p2_du'
I0
tp458
a(S'p2_vo'
I2
tp459
a(S'w'
I3
tp460
a(S'tr_lh'
I0
tp461
a(S'tr_lr'
I0
tp462
a(S'w'
I1454
tp463
a(S'p1_vo'
I7
tp464
a(S'w'
I11
tp465
a(S'p1_ll'
I1
tp466
a(S'p1_th'
I2
tp467
a(S'w'
I2
tp468
a(S'p1_tl'
I54
tp469
a(S'w'
I13
tp470
a(S'p2_vo'
I9
tp471
a(S'w'
I11
tp472
a(S'p2_ll'
I1
tp473
a(S'p2_th'
I1
tp474
a(S'w'
I1
tp475
a(S'p2_tl'
I83
tp476
a(S'w'
I9
tp477
a(S'tr_lh'
I1
tp478
a(S'tr_lr'
I16
tp479
a(S'w'
I8
tp480
a(S'tr_ll'
I1
tp481
a(S'w'
I1
tp482
a(S'tr_tl'
I29
tp483
a(S'w'
I7
tp484
a(S'ch_no'
I1
tp485
a(S'ch_tr'
I1
tp486
a(S'ch_p2'
I1
tp487
a(S'ch_p1'
I1
tp488
a(S'ch_no'
I1
tp489
a(S'ch_tr'
I1
tp490
a(S'ch_p2'
I1
tp491
a(S'ch_p1'
I1
tp492
a(S'w'
I665
tp493
a(S'p1_du'
I1
tp494
a(S'p1_vo'
I6
tp495
a(S'w'
I8
tp496
a(S'p2_du'
I1
tp497
a(S'p2_vo'
I8
tp498
a(S'w'
I726
tp499
a(S'p1_vo'
I5
tp500
a(S'w'
I9
tp501
a(S'p2_vo'
I7
tp502
a(S'w'
I725
tp503
a(S'p1_vo'
I4
tp504
a(S'w'
I8
tp505
a(S'p2_vo'
I6
tp506
a(S'w'
I1460
tp507
a(S'p1_ll'
I1
tp508
a(S'p1_th'
I1
tp509
a(S'w'
I1
tp510
a(S'p1_tl'
I252
tp511
a(S'w'
I4
tp512
a(S'p1_du'
I0
tp513
a(S'p1_vo'
I2
tp514
a(S'w'
I8
tp515
a(S'p2_tl'
I46
tp516
a(S'w'
I3
tp517
a(S'p2_du'
I0
tp518
a(S'p2_vo'
I2
tp519
a(S'w'
I3
tp520
a(S'tr_lh'
I0
tp521
a(S'tr_lr'
I0
tp522
a(S'w'
I1453
tp523
a(S'p1_vo'
I7
tp524
a(S'w'
I11
tp525
a(S'p1_ll'
I1
tp526
a(S'p1_th'
I2
tp527
a(S'w'
I1
tp528
a(S'p1_tl'
I250
tp529
a(S'w'
I13
tp530
a(S'p2_vo'
I9
tp531
a(S'w'
I12
tp532
a(S'p2_tl'
I197
tp533
a(S'w'
I8
tp534
a(S'tr_lh'
I1
tp535
a(S'tr_lr'
I16
tp536
a(S'w'
I8
tp537
a(S'tr_ll'
I1
tp538
a(S'tr_th'
I0
tp539
a(S'w'
I1
tp540
a(S'tr_tl'
I254
tp541
a(S'w'
I7
tp542
a(S'ch_no'
I1
tp543
a(S'ch_tr'
I1
tp544
a(S'ch_p2'
I1
tp545
a(S'ch_p1'
I1
tp546
a(S'w'
I1
tp547
a(S'ch_no'
I1
tp548
a(S'ch_tr'
I1
tp549
a(S'ch_p2'
I1
tp550
a(S'ch_p1'
I1
tp551
a(S'w'
I667
tp552
a(S'p1_du'
I1
tp553
a(S'p1_vo'
I6
tp554
a(S'w'
I8
tp555
a(S'p2_du'
I1
tp556
a(S'p2_vo'
I8
tp557
a(S'w'
I726
tp558
a(S'p1_vo'
I5
tp559
a(S'w'
I8
tp560
a(S'p2_vo'
I7
tp561
a(S'w'
I726
tp562
a(S'p1_vo'
I4
tp563
a(S'w'
I8
tp564
a(S'p2_vo'
I6
tp565
a(S'w'
I1459
tp566
a(S'p1_ll'
I1
tp567
a(S'p1_th'
I1
tp568
a(S'w'
I1
tp569
a(S'p1_tl'
I172
tp570
a(S'w'
I4
tp571
a(S'p1_du'
I0
tp572
a(S'p1_vo'
I2
tp573
a(S'w'
I7
tp574
a(S'p2_ll'
I1
tp575
a(S'p2_th'
I0
tp576
a(S'w'
I1
tp577
a(S'p2_tl'
I254
tp578
a(S'w'
I3
tp579
a(S'p2_du'
I0
tp580
a(S'p2_vo'
I2
tp581
a(S'w'
I4
tp582
a(S'tr_lh'
I0
tp583
a(S'tr_lr'
I0
tp584
a(S'w'
I1453
tp585
a(S'p1_vo'
I7
tp586
a(S'w'
I11
tp587
a(S'p1_ll'
I1
tp588
a(S'p1_th'
I2
tp589
a(S'w'
I1
tp590
a(S'p1_tl'
I22
tp591
a(S'w'
I13
tp592
a(S'p2_vo'
I9
tp593
a(S'w'
I11
tp594
a(S'p2_ll'
I1
tp595
a(S'p2_th'
I1
tp596
a(S'w'
I1
tp597
a(S'p2_tl'
I64
tp598
a(S'w'
I9
tp599
a(S'tr_lh'
I1
tp600
a(S'tr_lr'
I16
tp601
a(S'w'
I8
tp602
a(S'tr_ll'
I1
tp603
a(S'tr_th'
I1
tp604
a(S'w'
I1
tp605
a(S'tr_tl'
I13
tp606
a(S'w'
I7
tp607
a(S'ch_no'
I1
tp608
a(S'ch_tr'
I1
tp609
a(S'ch_p2'
I1
tp610
a(S'ch_p1'
I1
tp611
a(S'w'
I1
tp612
a(S'ch_no'
I1
tp613
a(S'ch_tr'
I1
tp614
a(S'ch_p2'
I1
tp615
a(S'ch_p1'
I1
tp616
a(S'w'
I666
tp617
a(S'p1_du'
I1
tp618
a(S'p1_vo'
I6
tp619
a(S'w'
I8
tp620
a(S'p2_du'
I1
tp621
a(S'p2_vo'
I8
tp622
a(S'w'
I726
tp623
a(S'p1_vo'
I5
tp624
a(S'w'
I8
tp625
a(S'p2_vo'
I7
tp626
a(S'w'
I726
tp627
a(S'p1_vo'
I4
tp628
a(S'w'
I8
tp629
a(S'p2_vo'
I6
tp630
a(S'w'
I1460
tp631
a(S'p1_ll'
I1
tp632
a(S'p1_th'
I1
tp633
a(S'w'
I1
tp634
a(S'p1_tl'
I197
tp635
a(S'w'
I3
tp636
a(S'p1_du'
I0
tp637
a(S'p1_vo'
I2
tp638
a(S'w'
I8
tp639
a(S'p2_tl'
I13
tp640
a(S'w'
I3
tp641
a(S'p2_du'
I0
tp642
a(S'p2_vo'
I2
tp643
a(S'w'
I4
tp644
a(S'tr_lh'
I0
tp645
a(S'tr_lr'
I0
tp646
a(S'w'
I1452
tp647
a(S'p1_vo'
I7
tp648
a(S'w'
I11
tp649
a(S'p1_ll'
I1
tp650
a(S'p1_th'
I2
tp651
a(S'w'
I2
tp652
a(S'p1_tl'
I54
tp653
a(S'w'
I13
tp654
a(S'p2_vo'
I9
tp655
a(S'w'
I11
tp656
a(S'p2_tl'
I83
tp657
a(S'w'
I9
tp658
a(S'tr_lh'
I1
tp659
a(S'tr_lr'
I16
tp660
a(S'w'
I8
tp661
a(S'tr_ll'
I1
tp662
a(S'tr_th'
I0
tp663
a(S'w'
I1
tp664
a(S'tr_tl'
I240
tp665
a(S'w'
I7
tp666
a(S'ch_no'
I1
tp667
a(S'ch_tr'
I1
tp668
a(S'ch_p2'
I1
tp669
a(S'ch_p1'
I1
tp670
a(S'w'
I1
tp671
a(S'ch_no'
I1
tp672
a(S'ch_tr'
I1
tp673
a(S'ch_p2'
I1
tp674
a(S'ch_p1'
I1
tp675
a(S'w'
I667
tp676
a(S'p1_du'
I1
tp677
a(S'p1_vo'
I6
tp678
a(S'w'
I8
tp679
a(S'p2_du'
I1
tp680
a(S'p2_vo'
I8
tp681
a(S'w'
I726
tp682
a(S'p1_vo'
I5
tp683
a(S'w'
I8
tp684
a(S'p2_vo'
I7
tp685
a(S'w'
I724
tp686
a(S'p1_vo'
I4
tp687
a(S'w'
I8
tp688
a(S'p2_vo'
I6
tp689
a(S'w'
I1459
tp690
a(S'w'
I4
tp691
a(S'p1_du'
I0
tp692
a(S'p1_vo'
I2
tp693
a(S'w'
I7
tp694
a(S'w'
I3
tp695
a(S'p2_du'
I0
tp696
a(S'p2_vo'
I2
tp697
a(S'w'
I4
tp698
a(S'tr_lh'
I0
tp699
a(S'tr_lr'
I0
tp700
a(S'w'
I1455
tp701
a(S'p1_vo'
I7
tp702
a(S'w'
I11
tp703
a(S'p1_tl'
I250
tp704
a(S'w'
I13
tp705
a(S'p2_vo'
I9
tp706
a(S'w'
I11
tp707
a(S'p2_tl'
I197
tp708
a(S'w'
I9
tp709
a(S'tr_lh'
I1
tp710
a(S'tr_lr'
I16
tp711
a(S'w'
I8
tp712
a(S'tr_ll'
I1
tp713
a(S'w'
I1
tp714
a(S'tr_tl'
I226
tp715
a(S'w'
I7
tp716
a(S'ch_no'
I1
tp717
a(S'ch_tr'
I1
tp718
a(S'ch_p2'
I1
tp719
a(S'ch_p1'
I1
tp720
a(S'w'
I1
tp721
a(S'ch_no'
I1
tp722
a(S'ch_tr'
I1
tp723
a(S'ch_p2'
I1
tp724
a(S'ch_p1'
I1
tp725
a(S'w'
I670
tp726
a(S'p1_du'
I1
tp727
a(S'p1_vo'
I6
tp728
a(S'w'
I8
tp729
a(S'p2_du'
I1
tp730
a(S'p2_vo'
I8
tp731
a(S'w'
I725
tp732
a(S'p1_vo'
I5
tp733
a(S'w'
I8
tp734
a(S'p2_vo'
I7
tp735
a(S'w'
I724
tp736
a(S'p1_vo'
I4
tp737
a(S'w'
I8
tp738
a(S'p2_vo'
I6
tp739
a(S'w'
I1460
tp740
a(S'w'
I4
tp741
a(S'p1_du'
I0
tp742
a(S'p1_vo'
I2
tp743
a(S'w'
I7
tp744
a(S'w'
I3
tp745
a(S'p2_du'
I0
tp746
a(S'p2_vo'
I2
tp747
a(S'w'
I4
tp748
a(S'tr_lh'
I0
tp749
a(S'tr_lr'
I0
tp750
a(S'w'
I1465
tp751
a(S'p1_vo'
I7
tp752
a(S'w'
I11
tp753
a(S'p1_ll'
I1
tp754
a(S'p1_th'
I3
tp755
a(S'w'
I2
tp756
a(S'p1_tl'
I39
tp757
a(S'w'
I24
tp758
a(S'p2_vo'
I9
tp759
a(S'w'
I11
tp760
a(S'p2_tl'
I224
tp761
a(S'w'
I19
tp762
a(S'tr_lh'
I1
tp763
a(S'tr_lr'
I16
tp764
a(S'w'
I10
tp765
a(S'tr_ll'
I1
tp766
a(S'w'
I1
tp767
a(S'tr_tl'
I202
tp768
a(S'w'
I21
tp769
a(S'no_vo'
I5
tp770
a(S'w'
I2
tp771
a(S'no_ll'
I1
tp772
a(S'w'
I1
tp773
a(S'no_np'
I2
tp774
a(S'w'
I616
tp775
a(S'p1_du'
I1
tp776
a(S'p1_vo'
I6
tp777
a(S'w'
I8
tp778
a(S'p2_du'
I1
tp779
a(S'p2_vo'
I8
tp780
a(S'w'
I11
tp781
a(S'no_vo'
I4
tp782
a(S'w'
I2
tp783
a(S'no_ll'
I1
tp784
a(S'w'
I1
tp785
a(S'no_np'
I1
tp786
a(S'w'
I712
tp787
a(S'p1_vo'
I5
tp788
a(S'w'
I8
tp789
a(S'p2_vo'
I7
tp790
a(S'w'
I726
tp791
a(S'p1_vo'
I4
tp792
a(S'w'
I8
tp793
a(S'p2_vo'
I6
tp794
a(S'w'
I2202
tp795
a(S'no_vo'
I3
tp796
a(S'w'
I2
tp797
a(S'no_ll'
I1
tp798
a(S'w'
I1
tp799
a(S'w'
I3666
tp800
a(S'no_vo'
I2
tp801
a(S'w'
I2
tp802
a(S'no_ll'
I1
tp803
a(S'w'
I1
tp804
a(S'w'
I3666
tp805
a(S'no_vo'
I1
tp806
a(S'w'
I2
tp807
a(S'no_ll'
I1
tp808
a(S'w'
I1
tp809
a(S'w'
I3669
tp810
a(S'tr_tl'
I200
tp811
a(S'w'
I8
tp812
a(S'no_ll'
I1
tp813
a(S'w'
I1
tp814
a(S'w'
I1458
tp815
a(S'tr_tl'
I204
tp816
a(S'w'
I1468
tp817
a(S'tr_tl'
I200
tp818
a(S'w'
I731
tp819
a(S'no_vo'
I0
tp820
a(S'w'
I736
tp821
a(S'tr_tl'
I204
tp822
a(S'w'
I727
tp823
a(S'p1_tl'
I32
tp824
a(S'w'
I14
tp825
a(S'p2_tl'
I218
tp826
a(S'w'
I719
tp827
a(S'p1_tl'
I25
tp828
a(S'w'
I13
tp829
a(S'p2_tl'
I212
tp830
a(S'w'
I13
tp831
a(S'tr_tl'
I200
tp832
a(S'w'
I708
tp833
a(S'p1_tl'
I32
tp834
a(S'w'
I13
tp835
a(S'p2_tl'
I218
tp836
a(S'w'
I719
tp837
a(S'p1_tl'
I39
tp838
a(S'w'
I10
tp839
a(S'p2_tl'
I224
tp840
a(S'w'
I12
tp841
a(S'tr_tl'
I204
tp842
a(S'w'
I1447
tp843
a(S'p1_tl'
I46
tp844
a(S'w'
I13
tp845
a(S'p2_tl'
I230
tp846
a(S'w'
I13
tp847
a(S'tr_tl'
I200
tp848
a(S'w'
I708
tp849
a(S'p1_tl'
I53
tp850
a(S'w'
I13
tp851
a(S'p2_tl'
I236
tp852
a(S'w'
I721
tp853
a(S'p1_tl'
I46
tp854
a(S'w'
I13
tp855
a(S'p2_tl'
I230
tp856
a(S'w'
I12
tp857
a(S'tr_tl'
I204
tp858
a(S'w'
I707
tp859
a(S'p1_tl'
I39
tp860
a(S'w'
I10
tp861
a(S'p2_tl'
I224
tp862
a(S'w'
I734
tp863
a(S'tr_tl'
I200
tp864
a(S'w'
I726
tp865
a(S'p1_tl'
I32
tp866
a(S'w'
I14
tp867
a(S'p2_tl'
I218
tp868
a(S'w'
I719
tp869
a(S'p1_tl'
I25
tp870
a(S'w'
I13
tp871
a(S'p2_tl'
I212
tp872
a(S'w'
I12
tp873
a(S'tr_tl'
I204
tp874
a(S'w'
I709
tp875
a(S'p1_tl'
I32
tp876
a(S'w'
I13
tp877
a(S'p2_tl'
I218
tp878
a(S'w'
I719
tp879
a(S'p1_tl'
I39
tp880
a(S'w'
I10
tp881
a(S'p2_tl'
I224
tp882
a(S'w'
I13
tp883
a(S'tr_tl'
I200
tp884
a(S'w'
I722
tp885
a(S'ch_no'
I1
tp886
a(S'ch_tr'
I1
tp887
a(S'ch_p2'
I1
tp888
a(S'ch_p1'
I1
tp889
a(S'w'
I1
tp890
a(S'ch_no'
I1
tp891
a(S'ch_tr'
I1
tp892
a(S'ch_p2'
I1
tp893
a(S'ch_p1'
I1
tp894
a(S'w'
I725
tp895
a(S'p1_tl'
I46
tp896
a(S'w'
I13
tp897
a(S'p2_tl'
I230
tp898
a(S'w'
I12
tp899
a(S'tr_tl'
I204
tp900
a(S'w'
I709
tp901
a(S'p1_tl'
I53
tp902
a(S'w'
I13
tp903
a(S'p2_tl'
I236
tp904
a(S'w'
I721
tp905
a(S'p1_tl'
I46
tp906
a(S'w'
I13
tp907
a(S'p2_tl'
I230
tp908
a(S'w'
I13
tp909
a(S'tr_tl'
I200
tp910
a(S'w'
I705
tp911
a(S'p1_tl'
I39
tp912
a(S'w'
I11
tp913
a(S'p2_tl'
I224
tp914
a(S'w'
I12
tp915
a(S'ch_no'
I1
tp916
a(S'ch_tr'
I1
tp917
a(S'ch_p2'
I1
tp918
a(S'ch_p1'
I1
tp919
a(S'w'
I1
tp920
a(S'ch_no'
I1
tp921
a(S'ch_tr'
I1
tp922
a(S'ch_p2'
I1
tp923
a(S'ch_p1'
I1
tp924
a(S'w'
I720
tp925
a(S'tr_tl'
I204
tp926
a(S'w'
I727
tp927
a(S'p1_tl'
I32
tp928
a(S'w'
I14
tp929
a(S'p2_tl'
I218
tp930
a(S'w'
I719
tp931
a(S'p1_tl'
I25
tp932
a(S'w'
I12
tp933
a(S'p2_tl'
I212
tp934
a(S'w'
I13
tp935
a(S'tr_tl'
I200
tp936
a(S'w'
I709
tp937
a(S'p1_tl'
I32
tp938
a(S'w'
I12
tp939
a(S'p2_tl'
I218
tp940
a(S'w'
I719
tp941
a(S'p1_tl'
I39
tp942
a(S'w'
I11
tp943
a(S'p2_tl'
I224
tp944
a(S'w'
I12
tp945
a(S'tr_tl'
I204
tp946
a(S'w'
I8
tp947
a(S'ch_no'
I1
tp948
a(S'ch_tr'
I1
tp949
a(S'ch_p2'
I1
tp950
a(S'ch_p1'
I1
tp951
a(S'w'
I1
tp952
a(S'ch_no'
I1
tp953
a(S'ch_tr'
I1
tp954
a(S'ch_p2'
I1
tp955
a(S'ch_p1'
I1
tp956
a(S'w'
I1437
tp957
a(S'p1_tl'
I46
tp958
a(S'w'
I13
tp959
a(S'p2_tl'
I230
tp960
a(S'w'
I13
tp961
a(S'tr_tl'
I200
tp962
a(S'w'
I708
tp963
a(S'p1_tl'
I53
tp964
a(S'w'
I13
tp965
a(S'p2_tl'
I236
tp966
a(S'w'
I721
tp967
a(S'p1_tl'
I46
tp968
a(S'w'
I13
tp969
a(S'p2_tl'
I230
tp970
a(S'w'
I12
tp971
a(S'tr_tl'
I204
tp972
a(S'w'
I707
tp973
a(S'p1_tl'
I39
tp974
a(S'w'
I10
tp975
a(S'p2_tl'
I224
tp976
a(S'w'
I12
tp977
a(S'ch_no'
I1
tp978
a(S'ch_tr'
I1
tp979
a(S'ch_p2'
I1
tp980
a(S'ch_p1'
I1
tp981
a(S'w'
I1
tp982
a(S'ch_no'
I1
tp983
a(S'ch_tr'
I1
tp984
a(S'ch_p2'
I1
tp985
a(S'ch_p1'
I1
tp986
a(S'w'
I720
tp987
a(S'tr_tl'
I200
tp988
a(S'w'
I728
tp989
a(S'p1_tl'
I32
tp990
a(S'w'
I13
tp991
a(S'p2_tl'
I218
tp992
a(S'w'
I719
tp993
a(S'p1_tl'
I25
tp994
a(S'w'
I13
tp995
a(S'p2_tl'
I212
tp996
a(S'w'
I12
tp997
a(S'tr_tl'
I204
tp998
a(S'w'
I709
tp999
a(S'p1_tl'
I32
tp1000
a(S'w'
I13
tp1001
a(S'p2_tl'
I218
tp1002
a(S'w'
I12
tp1003
a(S'ch_no'
I1
tp1004
a(S'ch_tr'
I1
tp1005
a(S'ch_p2'
I1
tp1006
a(S'ch_p1'
I1
tp1007
a(S'w'
I1
tp1008
a(S'ch_no'
I1
tp1009
a(S'ch_tr'
I1
tp1010
a(S'ch_p2'
I1
tp1011
a(S'ch_p1'
I1
tp1012
a(S'w'
I706
tp1013
a(S'p1_tl'
I39
tp1014
a(S'w'
I10
tp1015
a(S'p2_tl'
I224
tp1016
a(S'w'
I13
tp1017
a(S'tr_tl'
I200
tp1018
a(S'w'
I1447
tp1019
a(S'p1_tl'
I46
tp1020
a(S'w'
I12
tp1021
a(S'p2_tl'
I230
tp1022
a(S'w'
I12
tp1023
a(S'tr_tl'
I204
tp1024
a(S'w'
I710
tp1025
a(S'p1_tl'
I53
tp1026
a(S'w'
I12
tp1027
a(S'p2_tl'
I236
tp1028
a(S'w'
I722
tp1029
a(S'p1_tl'
I46
tp1030
a(S'w'
I12
tp1031
a(S'p2_tl'
I230
tp1032
a(S'w'
I13
tp1033
a(S'tr_tl'
I200
tp1034
a(S'w'
I8
tp1035
a(S'ch_no'
I1
tp1036
a(S'ch_tr'
I1
tp1037
a(S'ch_p2'
I1
tp1038
a(S'ch_p1'
I1
tp1039
a(S'w'
I1
tp1040
a(S'ch_no'
I1
tp1041
a(S'ch_tr'
I1
tp1042
a(S'ch_p2'
I1
tp1043
a(S'ch_p1'
I1
tp1044
a(S'w'
I697
tp1045
a(S'p1_tl'
I39
tp1046
a(S'w'
I10
tp1047
a(S'p2_tl'
I224
tp1048
a(S'w'
I732
tp1049
a(S'tr_tl'
I204
tp1050
a(S'w'
I729
tp1051
a(S'p1_tl'
I32
tp1052
a(S'w'
I13
tp1053
a(S'p2_tl'
I218
tp1054
a(S'w'
I719
tp1055
a(S'p1_tl'
I25
tp1056
a(S'w'
I13
tp1057
a(S'p2_tl'
I212
tp1058
a(S'w'
I13
tp1059
a(S'tr_tl'
I200
tp1060
a(S'w'
I708
tp1061
a(S'p1_tl'
I32
tp1062
a(S'w'
I13
tp1063
a(S'p2_tl'
I218
tp1064
a(S'w'
I11
tp1065
a(S'ch_no'
I1
tp1066
a(S'ch_tr'
I1
tp1067
a(S'ch_p2'
I1
tp1068
a(S'ch_p1'
I1
tp1069
a(S'w'
I1
tp1070
a(S'ch_no'
I1
tp1071
a(S'ch_tr'
I1
tp1072
a(S'ch_p2'
I1
tp1073
a(S'ch_p1'
I1
tp1074
a(S'w'
I707
tp1075
a(S'p1_tl'
I39
tp1076
a(S'w'
I10
tp1077
a(S'p2_tl'
I224
tp1078
a(S'w'
I12
tp1079
a(S'tr_tl'
I204
tp1080
a(S'w'
I1447
tp1081
a(S'p1_tl'
I46
tp1082
a(S'w'
I13
tp1083
a(S'p2_tl'
I230
tp1084
a(S'w'
I13
tp1085
a(S'tr_tl'
I200
tp1086
a(S'w'
I708
tp1087
a(S'p1_tl'
I53
tp1088
a(S'w'
I13
tp1089
a(S'p2_tl'
I236
tp1090
a(S'w'
I12
tp1091
a(S'ch_no'
I1
tp1092
a(S'ch_tr'
I1
tp1093
a(S'ch_p2'
I1
tp1094
a(S'ch_p1'
I1
tp1095
a(S'w'
I1
tp1096
a(S'ch_no'
I1
tp1097
a(S'ch_tr'
I1
tp1098
a(S'ch_p2'
I1
tp1099
a(S'ch_p1'
I1
tp1100
a(S'w'
I708
tp1101
a(S'p1_tl'
I46
tp1102
a(S'w'
I13
tp1103
a(S'p2_tl'
I230
tp1104
a(S'w'
I12
tp1105
a(S'tr_tl'
I204
tp1106
a(S'w'
I706
tp1107
a(S'p1_tl'
I39
tp1108
a(S'w'
I10
tp1109
a(S'p2_tl'
I224
tp1110
a(S'w'
I734
tp1111
a(S'tr_tl'
I200
tp1112
a(S'w'
I727
tp1113
a(S'p1_tl'
I32
tp1114
a(S'w'
I14
tp1115
a(S'p2_tl'
I218
tp1116
a(S'w'
I719
tp1117
a(S'p1_tl'
I25
tp1118
a(S'w'
I6
tp1119
a(S'p1_vo'
I3
tp1120
a(S'w'
I11
tp1121
a(S'p2_tl'
I212
tp1122
a(S'w'
I12
tp1123
a(S'tr_tl'
I204
tp1124
a(S'w'
I8
tp1125
a(S'ch_no'
I1
tp1126
a(S'ch_tr'
I1
tp1127
a(S'ch_p2'
I1
tp1128
a(S'ch_p1'
I1
tp1129
a(S'w'
I1
tp1130
a(S'ch_no'
I1
tp1131
a(S'ch_tr'
I1
tp1132
a(S'ch_p2'
I1
tp1133
a(S'ch_p1'
I1
tp1134
a(S'w'
I696
tp1135
a(S'p1_tl'
I32
tp1136
a(S'w'
I13
tp1137
a(S'p2_tl'
I218
tp1138
a(S'w'
I718
tp1139
a(S'p1_tl'
I39
tp1140
a(S'w'
I10
tp1141
a(S'p2_tl'
I224
tp1142
a(S'w'
I13
tp1143
a(S'tr_tl'
I200
tp1144
a(S'w'
I1448
tp1145
a(S'p1_tl'
I46
tp1146
a(S'w'
I12
tp1147
a(S'p2_tl'
I230
tp1148
a(S'w'
I12
tp1149
a(S'tr_tl'
I204
tp1150
a(S'w'
I710
tp1151
a(S'p1_tl'
I53
tp1152
a(S'w'
I12
tp1153
a(S'p2_tl'
I236
tp1154
a(S'w'
I12
tp1155
a(S'ch_no'
I1
tp1156
a(S'ch_tr'
I1
tp1157
a(S'ch_p2'
I1
tp1158
a(S'ch_p1'
I1
tp1159
a(S'w'
I1
tp1160
a(S'ch_no'
I1
tp1161
a(S'ch_tr'
I1
tp1162
a(S'ch_p2'
I1
tp1163
a(S'ch_p1'
I1
tp1164
a(S'w'
I709
tp1165
a(S'p1_tl'
I46
tp1166
a(S'w'
I13
tp1167
a(S'p2_tl'
I230
tp1168
a(S'w'
I13
tp1169
a(S'tr_tl'
I200
tp1170
a(S'w'
I704
tp1171
a(S'p1_tl'
I39
tp1172
a(S'w'
I11
tp1173
a(S'p2_tl'
I224
tp1174
a(S'w'
I733
tp1175
a(S'tr_tl'
I204
tp1176
a(S'w'
I728
tp1177
a(S'p1_tl'
I32
tp1178
a(S'w'
I14
tp1179
a(S'p2_tl'
I218
tp1180
a(S'w'
I5
tp1181
a(S'p2_vo'
I5
tp1182
a(S'w'
I10
tp1183
a(S'ch_no'
I1
tp1184
a(S'ch_tr'
I1
tp1185
a(S'ch_p2'
I1
tp1186
a(S'ch_p1'
I1
tp1187
a(S'w'
I1
tp1188
a(S'ch_no'
I1
tp1189
a(S'ch_tr'
I1
tp1190
a(S'ch_p2'
I1
tp1191
a(S'ch_p1'
I1
tp1192
a(S'w'
I703
tp1193
a(S'p1_tl'
I25
tp1194
a(S'w'
I12
tp1195
a(S'p2_tl'
I212
tp1196
a(S'w'
I13
tp1197
a(S'tr_tl'
I200
tp1198
a(S'w'
I709
tp1199
a(S'p1_tl'
I32
tp1200
a(S'w'
I12
tp1201
a(S'p2_tl'
I218
tp1202
a(S'w'
I718
tp1203
a(S'p1_tl'
I39
tp1204
a(S'w'
I5
tp1205
a(S'p1_vo'
I2
tp1206
a(S'w'
I10
tp1207
a(S'p2_tl'
I224
tp1208
a(S'w'
I12
tp1209
a(S'tr_tl'
I204
tp1210
a(S'w'
I1444
tp1211
a(S'p1_tl'
I46
tp1212
a(S'w'
I13
tp1213
a(S'p2_tl'
I230
tp1214
a(S'w'
I13
tp1215
a(S'tr_tl'
I200
tp1216
a(S'w'
I8
tp1217
a(S'ch_no'
I1
tp1218
a(S'ch_tr'
I1
tp1219
a(S'ch_p2'
I1
tp1220
a(S'ch_p1'
I1
tp1221
a(S'w'
I1
tp1222
a(S'ch_no'
I1
tp1223
a(S'ch_tr'
I1
tp1224
a(S'ch_p2'
I1
tp1225
a(S'ch_p1'
I1
tp1226
a(S'w'
I698
tp1227
a(S'p1_tl'
I53
tp1228
a(S'w'
I13
tp1229
a(S'p2_tl'
I236
tp1230
a(S'w'
I721
tp1231
a(S'p1_tl'
I46
tp1232
a(S'w'
I13
tp1233
a(S'p2_tl'
I230
tp1234
a(S'w'
I12
tp1235
a(S'tr_tl'
I204
tp1236
a(S'w'
I706
tp1237
a(S'p1_tl'
I39
tp1238
a(S'w'
I10
tp1239
a(S'p2_tl'
I224
tp1240
a(S'w'
I734
tp1241
a(S'tr_tl'
I200
tp1242
a(S'w'
I727
tp1243
a(S'p1_tl'
I32
tp1244
a(S'w'
I14
tp1245
a(S'p2_tl'
I218
tp1246
a(S'w'
I12
tp1247
a(S'ch_no'
I1
tp1248
a(S'ch_tr'
I1
tp1249
a(S'ch_p2'
I1
tp1250
a(S'ch_p1'
I1
tp1251
a(S'ch_no'
I1
tp1252
a(S'ch_tr'
I1
tp1253
a(S'ch_p2'
I1
tp1254
a(S'ch_p1'
I1
tp1255
a(S'w'
I707
tp1256
a(S'p1_tl'
I25
tp1257
a(S'w'
I13
tp1258
a(S'p2_tl'
I212
tp1259
a(S'w'
I12
tp1260
a(S'tr_tl'
I204
tp1261
a(S'w'
I708
tp1262
a(S'p1_tl'
I32
tp1263
a(S'w'
I13
tp1264
a(S'p2_tl'
I218
tp1265
a(S'w'
I5
tp1266
a(S'p2_vo'
I4
tp1267
a(S'w'
I714
tp1268
a(S'p1_tl'
I39
tp1269
a(S'w'
I10
tp1270
a(S'p2_tl'
I224
tp1271
a(S'w'
I13
tp1272
a(S'tr_tl'
I200
tp1273
a(S'w'
I720
tp1274
a(S'ch_no'
I1
tp1275
a(S'ch_tr'
I1
tp1276
a(S'ch_p2'
I1
tp1277
a(S'ch_p1'
I1
tp1278
a(S'w'
I1
tp1279
a(S'ch_no'
I1
tp1280
a(S'ch_tr'
I1
tp1281
a(S'ch_p2'
I1
tp1282
a(S'ch_p1'
I1
tp1283
a(S'w'
I727
tp1284
a(S'p1_tl'
I46
tp1285
a(S'w'
I5
tp1286
a(S'p1_vo'
I1
tp1287
a(S'w'
I11
tp1288
a(S'p2_tl'
I230
tp1289
a(S'w'
I12
tp1290
a(S'tr_tl'
I204
tp1291
a(S'w'
I706
tp1292
a(S'p1_tl'
I53
tp1293
a(S'w'
I12
tp1294
a(S'p2_tl'
I236
tp1295
a(S'w'
I721
tp1296
a(S'p1_tl'
I46
tp1297
a(S'w'
I12
tp1298
a(S'p2_tl'
I230
tp1299
a(S'w'
I13
tp1300
a(S'tr_tl'
I200
tp1301
a(S'w'
I706
tp1302
a(S'p1_tl'
I39
tp1303
a(S'w'
I10
tp1304
a(S'p2_tl'
I224
tp1305
a(S'w'
I733
tp1306
a(S'tr_tl'
I204
tp1307
a(S'w'
I8
tp1308
a(S'ch_no'
I1
tp1309
a(S'ch_tr'
I1
tp1310
a(S'ch_p2'
I1
tp1311
a(S'ch_p1'
I1
tp1312
a(S'w'
I1
tp1313
a(S'ch_no'
I1
tp1314
a(S'ch_tr'
I1
tp1315
a(S'ch_p2'
I1
tp1316
a(S'ch_p1'
I1
tp1317
a(S'w'
I720
tp1318
a(S'p1_tl'
I32
tp1319
a(S'w'
I13
tp1320
a(S'p2_tl'
I218
tp1321
a(S'w'
I719
tp1322
a(S'p1_tl'
I25
tp1323
a(S'w'
I13
tp1324
a(S'p2_tl'
I212
tp1325
a(S'w'
I13
tp1326
a(S'tr_tl'
I200
tp1327
a(S'w'
I707
tp1328
a(S'p1_tl'
I32
tp1329
a(S'w'
I13
tp1330
a(S'p2_tl'
I218
tp1331
a(S'w'
I719
tp1332
a(S'p1_tl'
I39
tp1333
a(S'w'
I10
tp1334
a(S'p2_tl'
I224
tp1335
a(S'w'
I12
tp1336
a(S'tr_tl'
I204
tp1337
a(S'w'
I714
tp1338
a(S'p2_vo'
I3
tp1339
a(S'w'
I16
tp1340
a(S'tr_ll'
I1
tp1341
a(S'w'
I2
tp1342
a(S'tr_tl'
I202
tp1343
a(S'w'
I7
tp1344
a(S'ch_no'
I1
tp1345
a(S'ch_tr'
I1
tp1346
a(S'ch_p2'
I1
tp1347
a(S'ch_p1'
I1
tp1348
a(S'w'
I1
tp1349
a(S'ch_no'
I1
tp1350
a(S'ch_tr'
I1
tp1351
a(S'ch_p2'
I1
tp1352
a(S'ch_p1'
I1
tp1353
a(S'w'
I708
tp1354
a(S'p1_tl'
I46
tp1355
a(S'w'
I13
tp1356
a(S'p2_tl'
I230
tp1357
a(S'w'
I721
tp1358
a(S'p1_tl'
I53
tp1359
a(S'w'
I13
tp1360
a(S'p2_tl'
I236
tp1361
a(S'w'
I720
tp1362
a(S'p1_tl'
I46
tp1363
a(S'w'
I6
tp1364
a(S'p1_vo'
I0
tp1365
a(S'w'
I11
tp1366
a(S'p2_tl'
I230
tp1367
a(S'w'
I715
tp1368
a(S'p1_tl'
I39
tp1369
a(S'w'
I10
tp1370
a(S'p2_tl'
I224
tp1371
a(S'w'
I12
tp1372
a(S'ch_no'
I1
tp1373
a(S'ch_tr'
I1
tp1374
a(S'ch_p2'
I1
tp1375
a(S'ch_p1'
I1
tp1376
a(S'w'
I1
tp1377
a(S'ch_no'
I1
tp1378
a(S'ch_tr'
I1
tp1379
a(S'ch_p2'
I1
tp1380
a(S'ch_p1'
I1
tp1381
a(S'w'
I1448
tp1382
a(S'p1_tl'
I32
tp1383
a(S'w'
I14
tp1384
a(S'p2_tl'
I218
tp1385
a(S'w'
I719
tp1386
a(S'p1_tl'
I25
tp1387
a(S'w'
I12
tp1388
a(S'p2_tl'
I212
tp1389
a(S'w'
I721
tp1390
a(S'p1_tl'
I32
tp1391
a(S'w'
I12
tp1392
a(S'p2_tl'
I218
tp1393
a(S'w'
I720
tp1394
a(S'p1_tl'
I39
tp1395
a(S'w'
I10
tp1396
a(S'p2_tl'
I224
tp1397
a(S'w'
I12
tp1398
a(S'ch_no'
I1
tp1399
a(S'ch_tr'
I1
tp1400
a(S'ch_p2'
I1
tp1401
a(S'ch_p1'
I1
tp1402
a(S'w'
I1
tp1403
a(S'ch_no'
I1
tp1404
a(S'ch_tr'
I1
tp1405
a(S'ch_p2'
I1
tp1406
a(S'ch_p1'
I1
tp1407
a(S'w'
I1447
tp1408
a(S'p1_tl'
I46
tp1409
a(S'w'
I13
tp1410
a(S'p2_tl'
I230
tp1411
a(S'w'
I720
tp1412
a(S'p1_tl'
I53
tp1413
a(S'w'
I13
tp1414
a(S'p2_tl'
I236
tp1415
a(S'w'
I5
tp1416
a(S'p2_vo'
I2
tp1417
a(S'w'
I716
tp1418
a(S'p1_tl'
I46
tp1419
a(S'w'
I13
tp1420
a(S'p2_tl'
I230
tp1421
a(S'w'
I717
tp1422
a(S'p1_du'
I0
tp1423
a(S'w'
I10
tp1424
a(S'p2_tl'
I224
tp1425
a(S'w'
I13
tp1426
a(S'ch_no'
I1
tp1427
a(S'ch_tr'
I1
tp1428
a(S'ch_p2'
I1
tp1429
a(S'ch_p1'
I1
tp1430
a(S'ch_no'
I1
tp1431
a(S'ch_tr'
I1
tp1432
a(S'ch_p2'
I1
tp1433
a(S'ch_p1'
I1
tp1434
a(S'w'
I1452
tp1435
a(S'p2_tl'
I218
tp1436
a(S'w'
I732
tp1437
a(S'p2_tl'
I212
tp1438
a(S'w'
I734
tp1439
a(S'p2_tl'
I218
tp1440
a(S'w'
I732
tp1441
a(S'p2_tl'
I224
tp1442
a(S'w'
I1477
tp1443
a(S'p1_vo'
I7
tp1444
a(S'w'
I18
tp1445
a(S'p1_ll'
I1
tp1446
a(S'p1_th'
I1
tp1447
a(S'w'
I2
tp1448
a(S'p1_tl'
I252
tp1449
a(S'w'
I12
tp1450
a(S'p2_tl'
I230
tp1451
a(S'w'
I25
tp1452
a(S'tr_ll'
I1
tp1453
a(S'tr_th'
I1
tp1454
a(S'w'
I1
tp1455
a(S'tr_tl'
I252
tp1456
a(S'w'
I9
tp1457
a(S'ch_no'
I1
tp1458
a(S'ch_tr'
I1
tp1459
a(S'ch_p2'
I1
tp1460
a(S'ch_p1'
I1
tp1461
a(S'w'
I1
tp1462
a(S'ch_no'
I1
tp1463
a(S'ch_tr'
I1
tp1464
a(S'ch_p2'
I1
tp1465
a(S'ch_p1'
I1
tp1466
a(S'w'
I653
tp1467
a(S'p1_du'
I1
tp1468
a(S'p1_vo'
I6
tp1469
a(S'w'
I12
tp1470
a(S'p2_tl'
I236
tp1471
a(S'w'
I722
tp1472
a(S'p1_vo'
I5
tp1473
a(S'w'
I12
tp1474
a(S'p2_tl'
I230
tp1475
a(S'w'
I720
tp1476
a(S'p1_vo'
I4
tp1477
a(S'w'
I10
tp1478
a(S'p2_tl'
I224
tp1479
a(S'w'
I5
tp1480
a(S'p2_vo'
I1
tp1481
a(S'w'
I1454
tp1482
a(S'w'
I3
tp1483
a(S'p1_du'
I0
tp1484
a(S'p1_vo'
I2
tp1485
a(S'w'
I12
tp1486
a(S'p2_tl'
I218
tp1487
a(S'w'
I5
tp1488
a(S'tr_lh'
I0
tp1489
a(S'tr_lr'
I0
tp1490
a(S'w'
I719
tp1491
a(S'p2_tl'
I212
tp1492
a(S'w'
I734
tp1493
a(S'p1_vo'
I7
tp1494
a(S'w'
I14
tp1495
a(S'p1_tl'
I172
tp1496
a(S'w'
I36
tp1497
a(S'p2_tl'
I251
tp1498
a(S'w'
I12
tp1499
a(S'tr_lh'
I1
tp1500
a(S'tr_lr'
I16
tp1501
a(S'w'
I10
tp1502
a(S'tr_ll'
I1
tp1503
a(S'w'
I1
tp1504
a(S'tr_tl'
I172
tp1505
a(S'w'
I8
tp1506
a(S'ch_no'
I1
tp1507
a(S'ch_tr'
I1
tp1508
a(S'ch_p2'
I1
tp1509
a(S'ch_p1'
I1
tp1510
a(S'w'
I1
tp1511
a(S'ch_no'
I1
tp1512
a(S'ch_tr'
I1
tp1513
a(S'ch_p2'
I1
tp1514
a(S'ch_p1'
I1
tp1515
a(S'w'
I647
tp1516
a(S'p1_du'
I1
tp1517
a(S'p1_vo'
I6
tp1518
a(S'w'
I734
tp1519
a(S'p1_vo'
I5
tp1520
a(S'w'
I732
tp1521
a(S'p1_vo'
I4
tp1522
a(S'w'
I1468
tp1523
a(S'p1_tl'
I252
tp1524
a(S'w'
I3
tp1525
a(S'p1_du'
I0
tp1526
a(S'p1_vo'
I2
tp1527
a(S'w'
I8
tp1528
a(S'tr_lh'
I0
tp1529
a(S'tr_lr'
I0
tp1530
a(S'w'
I1472
tp1531
a(S'p1_vo'
I7
tp1532
a(S'w'
I17
tp1533
a(S'p1_tl'
I125
tp1534
a(S'w'
I22
tp1535
a(S'p2_tl'
I171
tp1536
a(S'w'
I10
tp1537
a(S'tr_lh'
I1
tp1538
a(S'tr_lr'
I16
tp1539
a(S'w'
I10
tp1540
a(S'tr_ll'
I1
tp1541
a(S'w'
I1
tp1542
a(S'tr_tl'
I125
tp1543
a(S'w'
I7
tp1544
a(S'ch_no'
I1
tp1545
a(S'ch_tr'
I1
tp1546
a(S'ch_p2'
I1
tp1547
a(S'ch_p1'
I1
tp1548
a(S'w'
I1
tp1549
a(S'ch_no'
I1
tp1550
a(S'ch_tr'
I1
tp1551
a(S'ch_p2'
I1
tp1552
a(S'ch_p1'
I1
tp1553
a(S'w'
I651
tp1554
a(S'p1_du'
I1
tp1555
a(S'p1_vo'
I6
tp1556
a(S'w'
I734
tp1557
a(S'p1_vo'
I5
tp1558
a(S'w'
I734
tp1559
a(S'p1_vo'
I4
tp1560
a(S'w'
I2960
tp1561
a(S'p2_tl'
I124
tp1562
a(S'w'
I709
tp1563
a(S'p1_tl'
I172
tp1564
a(S'w'
I734
tp1565
a(S'p1_tl'
I219
tp1566
a(S'w'
I734
tp1567
a(S'p1_ll'
I1
tp1568
a(S'p1_th'
I2
tp1569
a(S'w'
I2
tp1570
a(S'p1_tl'
I10
tp1571
a(S'w'
I9
tp1572
a(S'tr_lh'
I0
tp1573
a(S'tr_lr'
I0
tp1574
a(S'w'
I722
tp1575
a(S'p1_tl'
I57
tp1576
a(S'w'
I6
tp1577
a(S'p1_vo'
I3
tp1578
a(S'w'
I728
tp1579
a(S'p1_tl'
I104
tp1580
a(S'w'
I5
tp1581
a(S'p1_vo'
I2
tp1582
a(S'w'
I729
tp1583
a(S'p1_tl'
I151
tp1584
a(S'w'
I5
tp1585
a(S'p1_vo'
I1
tp1586
a(S'w'
I736
tp1587
a(S'p1_tl'
I191
tp1588
a(S'w'
I6
tp1589
a(S'p1_vo'
I0
tp1590
a(S'w'
I7
tp1591
a(S'ch_no'
I1
tp1592
a(S'ch_tr'
I0
tp1593
a(S'ch_p2'
I1
tp1594
a(S'ch_p1'
I1
tp1595
a(S'ch_no'
I1
tp1596
a(S'ch_tr'
I1
tp1597
a(S'ch_p2'
I1
tp1598
a(S'ch_p1'
I1
tp1599
a(S'w'
I718
tp1600
a(S'p1_tl'
I231
tp1601
a(S'w'
I9
tp1602
a(S'p2_tl'
I171
tp1603
a(S'w'
I724
tp1604
a(S'p1_ll'
I1
tp1605
a(S'p1_th'
I3
tp1606
a(S'w'
I1
tp1607
a(S'p1_tl'
I29
tp1608
a(S'w'
I10
tp1609
a(S'p2_tl'
I218
tp1610
a(S'w'
I721
tp1611
a(S'p1_tl'
I83
tp1612
a(S'w'
I9
tp1613
a(S'p2_ll'
I1
tp1614
a(S'p2_th'
I2
tp1615
a(S'w'
I1
tp1616
a(S'p2_tl'
I9
tp1617
a(S'w'
I721
tp1618
a(S'p1_tl'
I130
tp1619
a(S'w'
I9
tp1620
a(S'p2_tl'
I56
tp1621
a(S'w'
I730
tp1622
a(S'p1_tl'
I184
tp1623
a(S'w'
I10
tp1624
a(S'p2_tl'
I103
tp1625
a(S'w'
I724
tp1626
a(S'p1_tl'
I238
tp1627
a(S'w'
I10
tp1628
a(S'p2_tl'
I150
tp1629
a(S'w'
I713
tp1630
a(S'p1_du'
I0
tp1631
a(S'w'
I15
tp1632
a(S'p2_tl'
I191
tp1633
a(S'w'
I730
tp1634
a(S'p2_tl'
I232
tp1635
a(S'w'
I734
tp1636
a(S'p2_ll'
I1
tp1637
a(S'p2_th'
I3
tp1638
a(S'w'
I1
tp1639
a(S'p2_tl'
I29
tp1640
a(S'w'
I731
tp1641
a(S'p2_tl'
I82
tp1642
a(S'w'
I730
tp1643
a(S'p2_tl'
I129
tp1644
a(S'w'
I739
tp1645
a(S'p2_tl'
I182
tp1646
a(S'w'
I734
tp1647
a(S'p2_tl'
I235
tp1648
a(S'w'
I724
tp1649
a(S'p2_du'
I0
tp1650
a(S'p2_vo'
I0
tp1651
a.