(lp1
(S'clock'
p2
I1789772
tp3
a(S'p1_du'
I2
tp4
a(S'p1_sn'
I1
tp5
a(S'p2_du'
I2
tp6
a(S'p2_sn'
I1
tp7
a(S'tr_lh'
I1
tp8
a(S'ch_no'
I1
tp9
a(S'ch_tr'
I1
tp10
a(S'ch_p2'
I1
tp11
a(S'ch_p1'
I1
tp12
a(S'fc_mo'
I0
tp13
a(S'no_np'
I3
tp14
a(S'no_ll'
I1
tp15
a(S'w'
I2
tp16
a(S'no_lh'
I1
tp17
a(S'no_cv'
I1
tp18
a(S'no_vo'
I1
tp19
a(S'w'
I17
tp20
a(S'w'
I1
tp21
a(S'tr_tl'
I166
tp22
a(S'w'
I1
tp23
a(S'tr_ll'
I1
tp24
a(S'tr_th'
I2
tp25
a(S'w'
I1
tp26
a(S'tr_lr'
I127
tp27
a(S'w'
I28
tp28
a(S'p2_tl'
I83
tp29
a(S'w'
I1
tp30
a(S'p2_ll'
I1
tp31
a(S'p2_th'
I1
tp32
a(S'w'
I3
tp33
a(S'p2_du'
I1
tp34
a(S'p2_lh'
I1
tp35
a(S'p2_cv'
I1
tp36
a(S'p2_vo'
I6
tp37
a(S'w'
I23
tp38
a(S'p1_tl'
I171
tp39
a(S'w'
I1
tp40
a(S'p1_ll'
I1
tp41
a(S'p1_th'
I1
tp42
a(S'w'
I3
tp43
a(S'p1_du'
I1
tp44
a(S'p1_lh'
I1
tp45
a(S'p1_cv'
I1
tp46
a(S'p1_vo'
I6
tp47
a(S'w'
I2084
tp48
a(S'no_vo'
I0
tp49
a(S'w'
I755
tp50
a(S'w'
I4
tp51
a(S'p2_vo'
I1
tp52
a(S'w'
I17
tp53
a(S'w'
I4
tp54
a(S'p1_vo'
I1
tp55
a(S'w'
I1427
tp56
a(S'w'
I1
tp57
a(S'no_ll'
I1
tp58
a(S'w'
I1
tp59
a(S'no_vo'
I1
tp60
a(S'w'
I30
tp61
a(S'p2_tl'
I64
tp62
a(S'w'
I1
tp63
a(S'p2_ll'
I1
tp64
a(S'w'
I2
tp65
a(S'p2_vo'
I6
tp66
a(S'w'
I25
tp67
a(S'p1_tl'
I124
tp68
a(S'w'
I1
tp69
a(S'p1_ll'
I1
tp70
a(S'w'
I3
tp71
a(S'p1_vo'
I6
tp72
a(S'w'
I2132
tp73
a(S'no_vo'
I0
tp74
a(S'w'
I755
tp75
a(S'w'
I4
tp76
a(S'p2_vo'
I1
tp77
a(S'w'
I17
tp78
a(S'w'
I4
tp79
a(S'p1_vo'
I1
tp80
a(S'w'
I1427
tp81
a(S'no_ll'
I1
tp82
a(S'w'
I2
tp83
a(S'no_vo'
I1
tp84
a(S'w'
I34
tp85
a(S'p2_tl'
I13
tp86
a(S'w'
I1
tp87
a(S'p2_ll'
I1
tp88
a(S'w'
I2
tp89
a(S'p2_vo'
I6
tp90
a(S'w'
I25
tp91
a(S'p1_tl'
I83
tp92
a(S'w'
I1
tp93
a(S'p1_ll'
I1
tp94
a(S'w'
I2
tp95
a(S'p1_vo'
I6
tp96
a(S'w'
I2129
tp97
a(S'no_vo'
I0
tp98
a(S'w'
I768
tp99
a(S'w'
I4
tp100
a(S'p2_vo'
I1
tp101
a(S'w'
I17
tp102
a(S'w'
I4
tp103
a(S'p1_vo'
I1
tp104
a(S'w'
I1414
tp105
a(S'no_ll'
I1
tp106
a(S'w'
I2
tp107
a(S'no_vo'
I1
tp108
a(S'w'
I29
tp109
a(S'p2_tl'
I254
tp110
a(S'w'
I2
tp111
a(S'p2_ll'
I1
tp112
a(S'p2_th'
I0
tp113
a(S'w'
I2
tp114
a(S'p2_vo'
I6
tp115
a(S'w'
I25
tp116
a(S'p1_tl'
I64
tp117
a(S'w'
I1
tp118
a(S'p1_ll'
I1
tp119
a(S'w'
I2
tp120
a(S'p1_vo'
I6
tp121
a(S'w'
I2133
tp122
a(S'no_vo'
I0
tp123
a(S'w'
I755
tp124
a(S'w'
I3
tp125
a(S'p2_vo'
I1
tp126
a(S'w'
I18
tp127
a(S'w'
I3
tp128
a(S'p1_vo'
I1
tp129
a(S'w'
I1430
tp130
a(S'no_np'
I2
tp131
a(S'no_ll'
I1
tp132
a(S'w'
I2
tp133
a(S'no_vo'
I2
tp134
a(S'w'
I33
tp135
a(S'p2_tl'
I13
tp136
a(S'w'
I1
tp137
a(S'p2_ll'
I1
tp138
a(S'p2_th'
I1
tp139
a(S'w'
I2
tp140
a(S'p2_vo'
I6
tp141
a(S'w'
I30
tp142
a(S'p1_tl'
I83
tp143
a(S'w'
I1
tp144
a(S'p1_ll'
I1
tp145
a(S'w'
I3
tp146
a(S'p1_vo'
I6
tp147
a(S'w'
I1388
tp148
a(S'no_vo'
I1
tp149
a(S'w'
I1467
tp150
a(S'no_vo'
I0
tp151
a(S'w'
I23
tp152
a(S'w'
I3
tp153
a(S'p2_vo'
I1
tp154
a(S'w'
I18
tp155
a(S'w'
I3
tp156
a(S'p1_vo'
I1
tp157
a(S'w'
I1427
tp158
a(S'no_ll'
I1
tp159
a(S'w'
I1
tp160
a(S'no_vo'
I2
tp161
a(S'w'
I30
tp162
a(S'p2_tl'
I254
tp163
a(S'w'
I1
tp164
a(S'p2_ll'
I1
tp165
a(S'p2_th'
I0
tp166
a(S'w'
I3
tp167
a(S'p2_vo'
I6
tp168
a(S'w'
I24
tp169
a(S'p1_tl'
I64
tp170
a(S'w'
I1
tp171
a(S'p1_ll'
I1
tp172
a(S'w'
I3
tp173
a(S'p1_vo'
I6
tp174
a(S'w'
I1412
tp175
a(S'no_vo'
I1
tp176
a(S'w'
I1454
tp177
a(S'no_vo'
I0
tp178
a(S'w'
I22
tp179
a(S'w'
I4
tp180
a(S'p2_vo'
I1
tp181
a(S'w'
I17
tp182
a(S'w'
I4
tp183
a(S'p1_vo'
I1
tp184
a(S'w'
I1427
tp185
a(S'no_ll'
I1
tp186
a(S'w'
I1
tp187
a(S'no_vo'
I2
tp188
a(S'w'
I37
tp189
a(S'p2_tl'
I226
tp190
a(S'w'
I1
tp191
a(S'p2_ll'
I1
tp192
a(S'w'
I3
tp193
a(S'p2_vo'
I6
tp194
a(S'w'
I28
tp195
a(S'p1_tl'
I13
tp196
a(S'w'
I2
tp197
a(S'p1_ll'
I1
tp198
a(S'w'
I2
tp199
a(S'p1_vo'
I6
tp200
a(S'w'
I1387
tp201
a(S'no_vo'
I1
tp202
a(S'w'
I1468
tp203
a(S'no_vo'
I0
tp204
a(S'w'
I22
tp205
a(S'w'
I4
tp206
a(S'p2_vo'
I1
tp207
a(S'w'
I17
tp208
a(S'w'
I4
tp209
a(S'p1_vo'
I1
tp210
a(S'w'
I1426
tp211
a(S'no_ll'
I1
tp212
a(S'w'
I2
tp213
a(S'no_vo'
I2
tp214
a(S'w'
I30
tp215
a(S'p2_tl'
I213
tp216
a(S'w'
I1
tp217
a(S'p2_ll'
I1
tp218
a(S'w'
I3
tp219
a(S'p2_vo'
I6
tp220
a(S'w'
I24
tp221
a(S'p1_tl'
I254
tp222
a(S'w'
I2
tp223
a(S'p1_ll'
I1
tp224
a(S'p1_th'
I0
tp225
a(S'w'
I2
tp226
a(S'p1_vo'
I6
tp227
a(S'w'
I1398
tp228
a(S'no_vo'
I1
tp229
a(S'w'
I1468
tp230
a(S'no_vo'
I0
tp231
a(S'w'
I22
tp232
a(S'w'
I3
tp233
a(S'p2_vo'
I1
tp234
a(S'w'
I18
tp235
a(S'w'
I3
tp236
a(S'p1_vo'
I1
tp237
a(S'w'
I1443
tp238
a(S'no_np'
I1
tp239
a(S'no_ll'
I1
tp240
a(S'w'
I1
tp241
a(S'no_vo'
I5
tp242
a(S'w'
I33
tp243
a(S'p2_tl'
I226
tp244
a(S'w'
I1
tp245
a(S'p2_ll'
I1
tp246
a(S'w'
I3
tp247
a(S'p2_vo'
I6
tp248
a(S'w'
I28
tp249
a(S'p1_tl'
I13
tp250
a(S'w'
I1
tp251
a(S'p1_ll'
I1
tp252
a(S'p1_th'
I1
tp253
a(S'w'
I2
tp254
a(S'p1_vo'
I6
tp255
a(S'w'
I643
tp256
a(S'no_vo'
I4
tp257
a(S'w'
I734
tp258
a(S'no_vo'
I3
tp259
a(S'w'
I734
tp260
a(S'no_vo'
I2
tp261
a(S'w'
I734
tp262
a(S'no_vo'
I1
tp263
a(S'w'
I22
tp264
a(S'w'
I3
tp265
a(S'p2_vo'
I1
tp266
a(S'w'
I18
tp267
a(S'w'
I3
tp268
a(S'p1_vo'
I1
tp269
a(S'w'
I687
tp270
a(S'no_vo'
I0
tp271
a(S'w'
I740
tp272
a(S'no_ll'
I1
tp273
a(S'w'
I2
tp274
a(S'no_vo'
I6
tp275
a(S'w'
I29
tp276
a(S'p2_tl'
I213
tp277
a(S'w'
I1
tp278
a(S'p2_ll'
I1
tp279
a(S'w'
I3
tp280
a(S'p2_vo'
I6
tp281
a(S'w'
I24
tp282
a(S'p1_tl'
I254
tp283
a(S'w'
I2
tp284
a(S'p1_ll'
I1
tp285
a(S'p1_th'
I0
tp286
a(S'w'
I2
tp287
a(S'p1_vo'
I6
tp288
a(S'w'
I665
tp289
a(S'no_vo'
I5
tp290
a(S'w'
I734
tp291
a(S'no_vo'
I4
tp292
a(S'w'
I734
tp293
a(S'no_vo'
I3
tp294
a(S'w'
I733
tp295
a(S'no_vo'
I2
tp296
a(S'w'
I23
tp297
a(S'w'
I3
tp298
a(S'p2_vo'
I1
tp299
a(S'w'
I18
tp300
a(S'w'
I3
tp301
a(S'p1_vo'
I1
tp302
a(S'w'
I688
tp303
a(S'no_vo'
I0
tp304
a(S'w'
I739
tp305
a(S'no_ll'
I1
tp306
a(S'w'
I2
tp307
a(S'no_vo'
I7
tp308
a(S'w'
I32
tp309
a(S'p2_tl'
I190
tp310
a(S'w'
I1
tp311
a(S'p2_ll'
I1
tp312
a(S'w'
I3
tp313
a(S'p2_vo'
I6
tp314
a(S'w'
I32
tp315
a(S'p1_tl'
I226
tp316
a(S'w'
I1
tp317
a(S'p1_ll'
I1
tp318
a(S'w'
I2
tp319
a(S'p1_vo'
I6
tp320
a(S'w'
I655
tp321
a(S'no_vo'
I6
tp322
a(S'w'
I734
tp323
a(S'no_vo'
I5
tp324
a(S'w'
I734
tp325
a(S'no_vo'
I3
tp326
a(S'w'
I747
tp327
a(S'no_vo'
I2
tp328
a(S'w'
I22
tp329
a(S'w'
I3
tp330
a(S'p2_vo'
I1
tp331
a(S'w'
I18
tp332
a(S'w'
I3
tp333
a(S'p1_vo'
I1
tp334
a(S'w'
I674
tp335
a(S'no_vo'
I0
tp336
a(S'w'
I740
tp337
a(S'no_ll'
I1
tp338
a(S'w'
I1
tp339
a(S'no_vo'
I8
tp340
a(S'w'
I30
tp341
a(S'p2_tl'
I169
tp342
a(S'w'
I1
tp343
a(S'p2_ll'
I1
tp344
a(S'w'
I2
tp345
a(S'p2_vo'
I6
tp346
a(S'w'
I25
tp347
a(S'p1_tl'
I213
tp348
a(S'w'
I1
tp349
a(S'p1_ll'
I1
tp350
a(S'w'
I3
tp351
a(S'p1_vo'
I6
tp352
a(S'w'
I665
tp353
a(S'no_vo'
I7
tp354
a(S'w'
I734
tp355
a(S'no_vo'
I5
tp356
a(S'w'
I733
tp357
a(S'no_vo'
I4
tp358
a(S'w'
I735
tp359
a(S'no_vo'
I2
tp360
a(S'w'
I22
tp361
a(S'w'
I4
tp362
a(S'p2_vo'
I1
tp363
a(S'w'
I17
tp364
a(S'w'
I4
tp365
a(S'p1_vo'
I1
tp366
a(S'w'
I686
tp367
a(S'no_vo'
I0
tp368
a(S'w'
I742
tp369
a(S'no_ll'
I1
tp370
a(S'w'
I1
tp371
a(S'no_vo'
I9
tp372
a(S'w'
I33
tp373
a(S'p2_tl'
I190
tp374
a(S'w'
I1
tp375
a(S'p2_ll'
I1
tp376
a(S'w'
I3
tp377
a(S'p2_vo'
I6
tp378
a(S'w'
I28
tp379
a(S'p1_tl'
I226
tp380
a(S'w'
I1
tp381
a(S'p1_ll'
I1
tp382
a(S'w'
I2
tp383
a(S'p1_vo'
I6
tp384
a(S'w'
I657
tp385
a(S'no_vo'
I8
tp386
a(S'w'
I734
tp387
a(S'no_vo'
I6
tp388
a(S'w'
I733
tp389
a(S'no_vo'
I5
tp390
a(S'w'
I734
tp391
a(S'no_vo'
I3
tp392
a(S'w'
I23
tp393
a(S'w'
I3
tp394
a(S'p2_vo'
I1
tp395
a(S'w'
I18
tp396
a(S'w'
I3
tp397
a(S'p1_vo'
I1
tp398
a(S'w'
I687
tp399
a(S'no_vo'
I2
tp400
a(S'w'
I739
tp401
a(S'no_ll'
I1
tp402
a(S'w'
I2
tp403
a(S'no_vo'
I10
tp404
a(S'w'
I29
tp405
a(S'p2_tl'
I169
tp406
a(S'w'
I2
tp407
a(S'p2_ll'
I1
tp408
a(S'w'
I2
tp409
a(S'p2_vo'
I6
tp410
a(S'w'
I25
tp411
a(S'p1_tl'
I213
tp412
a(S'w'
I1
tp413
a(S'p1_ll'
I1
tp414
a(S'w'
I2
tp415
a(S'p1_vo'
I6
tp416
a(S'w'
I665
tp417
a(S'no_vo'
I9
tp418
a(S'w'
I748
tp419
a(S'no_vo'
I7
tp420
a(S'w'
I720
tp421
a(S'no_vo'
I5
tp422
a(S'w'
I734
tp423
a(S'no_vo'
I4
tp424
a(S'w'
I22
tp425
a(S'w'
I3
tp426
a(S'p2_vo'
I1
tp427
a(S'w'
I18
tp428
a(S'w'
I3
tp429
a(S'p1_vo'
I1
tp430
a(S'w'
I688
tp431
a(S'no_vo'
I2
tp432
a(S'w'
I739
tp433
a(S'no_ll'
I1
tp434
a(S'w'
I2
tp435
a(S'no_vo'
I11
tp436
a(S'w'
I30
tp437
a(S'p2_tl'
I160
tp438
a(S'w'
I1
tp439
a(S'p2_ll'
I1
tp440
a(S'w'
I2
tp441
a(S'p2_vo'
I6
tp442
a(S'w'
I28
tp443
a(S'p1_tl'
I190
tp444
a(S'w'
I1
tp445
a(S'p1_ll'
I1
tp446
a(S'w'
I3
tp447
a(S'p1_vo'
I6
tp448
a(S'w'
I661
tp449
a(S'no_vo'
I10
tp450
a(S'w'
I734
tp451
a(S'no_vo'
I8
tp452
a(S'w'
I734
tp453
a(S'no_vo'
I6
tp454
a(S'w'
I734
tp455
a(S'no_vo'
I4
tp456
a(S'w'
I22
tp457
a(S'w'
I4
tp458
a(S'p2_vo'
I1
tp459
a(S'w'
I17
tp460
a(S'w'
I4
tp461
a(S'p1_vo'
I1
tp462
a(S'w'
I687
tp463
a(S'no_vo'
I2
tp464
a(S'w'
I739
tp465
a(S'no_ll'
I1
tp466
a(S'w'
I2
tp467
a(S'no_vo'
I11
tp468
a(S'w'
I6
tp469
a(S'tr_lr'
I0
tp470
a(S'w'
I24
tp471
a(S'p2_tl'
I142
tp472
a(S'w'
I1
tp473
a(S'p2_ll'
I1
tp474
a(S'w'
I3
tp475
a(S'p2_vo'
I6
tp476
a(S'w'
I24
tp477
a(S'p1_tl'
I169
tp478
a(S'w'
I2
tp479
a(S'p1_ll'
I1
tp480
a(S'w'
I2
tp481
a(S'p1_vo'
I6
tp482
a(S'w'
I664
tp483
a(S'no_vo'
I10
tp484
a(S'w'
I734
tp485
a(S'no_vo'
I8
tp486
a(S'w'
I734
tp487
a(S'no_vo'
I6
tp488
a(S'w'
I734
tp489
a(S'no_vo'
I4
tp490
a(S'w'
I22
tp491
a(S'w'
I4
tp492
a(S'p2_vo'
I1
tp493
a(S'w'
I17
tp494
a(S'w'
I4
tp495
a(S'p1_vo'
I1
tp496
a(S'w'
I687
tp497
a(S'no_vo'
I2
tp498
a(S'w'
I766
tp499
a(S'ch_no'
I1
tp500
a(S'ch_tr'
I1
tp501
a(S'ch_p2'
I1
tp502
a(S'ch_p1'
I1
tp503
a(S'w'
I6
tp504
a(S'no_np'
I2
tp505
a(S'no_ll'
I1
tp506
a(S'w'
I33
tp507
a(S'w'
I1
tp508
a(S'tr_tl'
I252
tp509
a(S'w'
I1
tp510
a(S'tr_ll'
I1
tp511
a(S'tr_th'
I1
tp512
a(S'w'
I1
tp513
a(S'tr_lr'
I127
tp514
a(S'w'
I42
tp515
a(S'p2_tl'
I254
tp516
a(S'w'
I2
tp517
a(S'p2_ll'
I1
tp518
a(S'w'
I2
tp519
a(S'p2_vo'
I6
tp520
a(S'w'
I46
tp521
a(S'p1_tl'
I83
tp522
a(S'w'
I1
tp523
a(S'p1_ll'
I1
tp524
a(S'p1_th'
I1
tp525
a(S'w'
I3
tp526
a(S'p1_vo'
I6
tp527
a(S'w'
I563
tp528
a(S'no_vo'
I0
tp529
a(S'w'
I2224
tp530
a(S'w'
I3
tp531
a(S'p2_vo'
I1
tp532
a(S'w'
I18
tp533
a(S'w'
I3
tp534
a(S'p1_vo'
I1
tp535
a(S'w'
I693
tp536
a(S'tr_lr'
I0
tp537
a(S'w'
I737
tp538
a(S'w'
I2
tp539
a(S'tr_ll'
I1
tp540
a(S'w'
I1
tp541
a(S'tr_lr'
I127
tp542
a(S'w'
I24
tp543
a(S'w'
I1
tp544
a(S'p2_ll'
I1
tp545
a(S'w'
I3
tp546
a(S'p2_vo'
I6
tp547
a(S'w'
I24
tp548
a(S'w'
I2
tp549
a(S'p1_ll'
I1
tp550
a(S'w'
I2
tp551
a(S'p1_vo'
I6
tp552
a(S'w'
I2889
tp553
a(S'w'
I4
tp554
a(S'p2_vo'
I1
tp555
a(S'w'
I17
tp556
a(S'w'
I4
tp557
a(S'p1_vo'
I1
tp558
a(S'w'
I692
tp559
a(S'tr_lr'
I0
tp560
a(S'w'
I733
tp561
a(S'ch_no'
I1
tp562
a(S'ch_tr'
I1
tp563
a(S'ch_p2'
I1
tp564
a(S'ch_p1'
I1
tp565
a(S'w'
I1
tp566
a(S'ch_no'
I1
tp567
a(S'ch_tr'
I1
tp568
a(S'ch_p2'
I1
tp569
a(S'ch_p1'
I1
tp570
a(S'w'
I6
tp571
a(S'no_np'
I6
tp572
a(S'w'
I1
tp573
a(S'no_ll'
I1
tp574
a(S'w'
I1
tp575
a(S'no_vo'
I10
tp576
a(S'w'
I19
tp577
a(S'tr_tl'
I171
tp578
a(S'w'
I2
tp579
a(S'tr_ll'
I1
tp580
a(S'tr_lr'
I127
tp581
a(S'w'
I28
tp582
a(S'p2_tl'
I213
tp583
a(S'w'
I1
tp584
a(S'p2_ll'
I1
tp585
a(S'w'
I3
tp586
a(S'p2_vo'
I6
tp587
a(S'w'
I28
tp588
a(S'p1_tl'
I29
tp589
a(S'w'
I1
tp590
a(S'p1_ll'
I1
tp591
a(S'w'
I2
tp592
a(S'p1_vo'
I6
tp593
a(S'w'
I637
tp594
a(S'no_vo'
I8
tp595
a(S'w'
I734
tp596
a(S'no_vo'
I6
tp597
a(S'w'
I733
tp598
a(S'no_vo'
I4
tp599
a(S'w'
I748
tp600
a(S'no_vo'
I2
tp601
a(S'w'
I720
tp602
a(S'no_vo'
I0
tp603
a(S'w'
I12
tp604
a(S'p2_vo'
I5
tp605
a(S'w'
I7
tp606
a(S'p1_vo'
I5
tp607
a(S'w'
I2203
tp608
a(S'w'
I4
tp609
a(S'p2_vo'
I1
tp610
a(S'w'
I17
tp611
a(S'w'
I4
tp612
a(S'p1_vo'
I1
tp613
a(S'w'
I1427
tp614
a(S'tr_lr'
I0
tp615
a(S'w'
I1466
tp616
a(S'no_np'
I0
tp617
a(S'no_ll'
I1
tp618
a(S'w'
I2
tp619
a(S'no_vo'
I10
tp620
a(S'w'
I13
tp621
a(S'tr_tl'
I252
tp622
a(S'w'
I2
tp623
a(S'tr_ll'
I1
tp624
a(S'tr_lr'
I127
tp625
a(S'w'
I25
tp626
a(S'p2_tl'
I254
tp627
a(S'w'
I1
tp628
a(S'p2_ll'
I1
tp629
a(S'w'
I2
tp630
a(S'p2_vo'
I6
tp631
a(S'w'
I25
tp632
a(S'p1_tl'
I83
tp633
a(S'w'
I1
tp634
a(S'p1_ll'
I1
tp635
a(S'w'
I3
tp636
a(S'p1_vo'
I6
tp637
a(S'w'
I657
tp638
a(S'no_vo'
I8
tp639
a(S'w'
I733
tp640
a(S'no_vo'
I6
tp641
a(S'w'
I734
tp642
a(S'no_vo'
I4
tp643
a(S'w'
I734
tp644
a(S'no_vo'
I2
tp645
a(S'w'
I733
tp646
a(S'no_vo'
I0
tp647
a(S'w'
I13
tp648
a(S'p2_vo'
I5
tp649
a(S'w'
I6
tp650
a(S'p1_vo'
I5
tp651
a(S'w'
I720
tp652
a(S'ch_no'
I1
tp653
a(S'ch_tr'
I1
tp654
a(S'ch_p2'
I1
tp655
a(S'ch_p1'
I1
tp656
a(S'w'
I1
tp657
a(S'ch_no'
I1
tp658
a(S'ch_tr'
I1
tp659
a(S'ch_p2'
I1
tp660
a(S'ch_p1'
I1
tp661
a(S'w'
I6
tp662
a(S'no_np'
I2
tp663
a(S'no_ll'
I1
tp664
a(S'w'
I2
tp665
a(S'no_vo'
I2
tp666
a(S'w'
I720
tp667
a(S'no_vo'
I0
tp668
a(S'w'
I768
tp669
a(S'w'
I4
tp670
a(S'p2_vo'
I1
tp671
a(S'w'
I17
tp672
a(S'w'
I4
tp673
a(S'p1_vo'
I1
tp674
a(S'w'
I1413
tp675
a(S'tr_lr'
I0
tp676
a(S'w'
I1468
tp677
a(S'ch_no'
I1
tp678
a(S'ch_tr'
I1
tp679
a(S'ch_p2'
I1
tp680
a(S'ch_p1'
I1
tp681
a(S'w'
I1
tp682
a(S'ch_no'
I1
tp683
a(S'ch_tr'
I1
tp684
a(S'ch_p2'
I1
tp685
a(S'ch_p1'
I1
tp686
a(S'w'
I6
tp687
a(S'no_np'
I6
tp688
a(S'no_ll'
I1
tp689
a(S'w'
I2
tp690
a(S'no_vo'
I10
tp691
a(S'w'
I20
tp692
a(S'tr_ll'
I1
tp693
a(S'w'
I1
tp694
a(S'tr_lr'
I127
tp695
a(S'w'
I29
tp696
a(S'w'
I2
tp697
a(S'p2_ll'
I1
tp698
a(S'w'
I2
tp699
a(S'p2_vo'
I6
tp700
a(S'w'
I29
tp701
a(S'w'
I2
tp702
a(S'p1_ll'
I1
tp703
a(S'w'
I2
tp704
a(S'p1_vo'
I6
tp705
a(S'w'
I633
tp706
a(S'no_vo'
I8
tp707
a(S'w'
I734
tp708
a(S'no_vo'
I6
tp709
a(S'w'
I734
tp710
a(S'no_vo'
I4
tp711
a(S'w'
I734
tp712
a(S'no_vo'
I2
tp713
a(S'w'
I23
tp714
a(S'w'
I4
tp715
a(S'p2_vo'
I1
tp716
a(S'w'
I17
tp717
a(S'w'
I4
tp718
a(S'p1_vo'
I1
tp719
a(S'w'
I685
tp720
a(S'no_vo'
I0
tp721
a(S'w'
I7
tp722
a(S'tr_lr'
I0
tp723
a(S'w'
I738
tp724
a(S'tr_ll'
I1
tp725
a(S'w'
I1
tp726
a(S'tr_lr'
I127
tp727
a(S'w'
I24
tp728
a(S'w'
I1
tp729
a(S'p2_ll'
I1
tp730
a(S'w'
I3
tp731
a(S'p2_vo'
I6
tp732
a(S'w'
I24
tp733
a(S'w'
I2
tp734
a(S'p1_ll'
I1
tp735
a(S'w'
I2
tp736
a(S'p1_vo'
I6
tp737
a(S'w'
I2889
tp738
a(S'w'
I4
tp739
a(S'p2_vo'
I1
tp740
a(S'w'
I17
tp741
a(S'w'
I4
tp742
a(S'p1_vo'
I1
tp743
a(S'w'
I692
tp744
a(S'tr_lr'
I0
tp745
a(S'w'
I747
tp746
a(S'ch_no'
I1
tp747
a(S'ch_tr'
I1
tp748
a(S'ch_p2'
I1
tp749
a(S'ch_p1'
I1
tp750
a(S'w'
I1
tp751
a(S'ch_no'
I1
tp752
a(S'ch_tr'
I1
tp753
a(S'ch_p2'
I1
tp754
a(S'ch_p1'
I1
tp755
a(S'w'
I6
tp756
a(S'no_np'
I2
tp757
a(S'no_ll'
I1
tp758
a(S'w'
I2
tp759
a(S'no_vo'
I2
tp760
a(S'w'
I19
tp761
a(S'tr_tl'
I124
tp762
a(S'w'
I1
tp763
a(S'tr_ll'
I1
tp764
a(S'w'
I1
tp765
a(S'tr_lr'
I127
tp766
a(S'w'
I27
tp767
a(S'p2_tl'
I190
tp768
a(S'w'
I2
tp769
a(S'p2_ll'
I1
tp770
a(S'w'
I2
tp771
a(S'p2_vo'
I6
tp772
a(S'w'
I28
tp773
a(S'p1_tl'
I254
tp774
a(S'w'
I1
tp775
a(S'p1_ll'
I1
tp776
a(S'p1_th'
I0
tp777
a(S'w'
I3
tp778
a(S'p1_vo'
I6
tp779
a(S'w'
I623
tp780
a(S'no_vo'
I0
tp781
a(S'w'
I2945
tp782
a(S'p2_vo'
I5
tp783
a(S'w'
I7
tp784
a(S'p1_vo'
I5
tp785
a(S'w'
I2205
tp786
a(S'w'
I4
tp787
a(S'p2_vo'
I1
tp788
a(S'w'
I17
tp789
a(S'w'
I4
tp790
a(S'p1_vo'
I1
tp791
a(S'w'
I1427
tp792
a(S'tr_lr'
I0
tp793
a(S'w'
I1467
tp794
a(S'ch_no'
I1
tp795
a(S'ch_tr'
I1
tp796
a(S'ch_p2'
I1
tp797
a(S'ch_p1'
I1
tp798
a(S'w'
I1
tp799
a(S'ch_no'
I1
tp800
a(S'ch_tr'
I1
tp801
a(S'ch_p2'
I1
tp802
a(S'ch_p1'
I1
tp803
a(S'w'
I6
tp804
a(S'no_np'
I6
tp805
a(S'no_ll'
I1
tp806
a(S'w'
I2
tp807
a(S'no_vo'
I10
tp808
a(S'w'
I13
tp809
a(S'tr_tl'
I252
tp810
a(S'w'
I2
tp811
a(S'tr_ll'
I1
tp812
a(S'tr_lr'
I127
tp813
a(S'w'
I25
tp814
a(S'p2_tl'
I254
tp815
a(S'w'
I1
tp816
a(S'p2_ll'
I1
tp817
a(S'w'
I2
tp818
a(S'p2_vo'
I6
tp819
a(S'w'
I25
tp820
a(S'p1_tl'
I83
tp821
a(S'w'
I1
tp822
a(S'p1_ll'
I1
tp823
a(S'p1_th'
I1
tp824
a(S'w'
I3
tp825
a(S'p1_vo'
I6
tp826
a(S'w'
I648
tp827
a(S'no_vo'
I8
tp828
a(S'w'
I747
tp829
a(S'no_vo'
I6
tp830
a(S'w'
I721
tp831
a(S'no_vo'
I4
tp832
a(S'w'
I734
tp833
a(S'no_vo'
I2
tp834
a(S'w'
I733
tp835
a(S'no_vo'
I0
tp836
a(S'w'
I12
tp837
a(S'p2_vo'
I5
tp838
a(S'w'
I7
tp839
a(S'p1_vo'
I5
tp840
a(S'w'
I720
tp841
a(S'ch_no'
I1
tp842
a(S'ch_tr'
I1
tp843
a(S'ch_p2'
I1
tp844
a(S'ch_p1'
I1
tp845
a(S'w'
I1
tp846
a(S'ch_no'
I1
tp847
a(S'ch_tr'
I1
tp848
a(S'ch_p2'
I1
tp849
a(S'ch_p1'
I1
tp850
a(S'w'
I6
tp851
a(S'no_np'
I2
tp852
a(S'no_ll'
I1
tp853
a(S'w'
I2
tp854
a(S'no_vo'
I2
tp855
a(S'w'
I720
tp856
a(S'no_vo'
I0
tp857
a(S'w'
I755
tp858
a(S'w'
I3
tp859
a(S'p2_vo'
I1
tp860
a(S'w'
I18
tp861
a(S'w'
I3
tp862
a(S'p1_vo'
I1
tp863
a(S'w'
I1440
tp864
a(S'tr_lr'
I0
tp865
a(S'w'
I1453
tp866
a(S'no_np'
I0
tp867
a(S'w'
I1
tp868
a(S'no_ll'
I1
tp869
a(S'w'
I1
tp870
a(S'no_vo'
I2
tp871
a(S'w'
I20
tp872
a(S'tr_ll'
I1
tp873
a(S'w'
I1
tp874
a(S'tr_lr'
I127
tp875
a(S'w'
I29
tp876
a(S'w'
I2
tp877
a(S'p2_ll'
I1
tp878
a(S'w'
I2
tp879
a(S'p2_vo'
I6
tp880
a(S'w'
I30
tp881
a(S'w'
I1
tp882
a(S'p1_ll'
I1
tp883
a(S'w'
I2
tp884
a(S'p1_vo'
I6
tp885
a(S'w'
I642
tp886
a(S'no_vo'
I0
tp887
a(S'w'
I2223
tp888
a(S'w'
I4
tp889
a(S'p2_vo'
I1
tp890
a(S'w'
I17
tp891
a(S'w'
I4
tp892
a(S'p1_vo'
I1
tp893
a(S'w'
I692
tp894
a(S'tr_lr'
I0
tp895
a(S'w'
I742
tp896
a(S'ch_no'
I1
tp897
a(S'ch_tr'
I1
tp898
a(S'ch_p2'
I1
tp899
a(S'ch_p1'
I1
tp900
a(S'w'
I1
tp901
a(S'ch_no'
I1
tp902
a(S'ch_tr'
I1
tp903
a(S'ch_p2'
I1
tp904
a(S'ch_p1'
I1
tp905
a(S'w'
I6
tp906
a(S'no_ll'
I1
tp907
a(S'w'
I2
tp908
a(S'no_vo'
I2
tp909
a(S'w'
I12
tp910
a(S'tr_ll'
I1
tp911
a(S'w'
I1
tp912
a(S'tr_lr'
I127
tp913
a(S'w'
I25
tp914
a(S'w'
I1
tp915
a(S'p2_ll'
I1
tp916
a(S'w'
I2
tp917
a(S'p2_vo'
I6
tp918
a(S'w'
I25
tp919
a(S'w'
I1
tp920
a(S'p1_ll'
I1
tp921
a(S'w'
I3
tp922
a(S'p1_vo'
I6
tp923
a(S'w'
I642
tp924
a(S'no_vo'
I0
tp925
a(S'w'
I2223
tp926
a(S'w'
I4
tp927
a(S'p2_vo'
I1
tp928
a(S'w'
I17
tp929
a(S'w'
I4
tp930
a(S'p1_vo'
I1
tp931
a(S'w'
I692
tp932
a(S'tr_lr'
I0
tp933
a(S'w'
I734
tp934
a(S'ch_no'
I1
tp935
a(S'ch_tr'
I1
tp936
a(S'ch_p2'
I1
tp937
a(S'ch_p1'
I1
tp938
a(S'ch_no'
I1
tp939
a(S'ch_tr'
I1
tp940
a(S'ch_p2'
I1
tp941
a(S'ch_p1'
I1
tp942
a(S'w'
I7
tp943
a(S'no_np'
I6
tp944
a(S'no_ll'
I1
tp945
a(S'w'
I1
tp946
a(S'no_vo'
I10
tp947
a(S'w'
I19
tp948
a(S'tr_tl'
I103
tp949
a(S'w'
I2
tp950
a(S'tr_ll'
I1
tp951
a(S'tr_lr'
I127
tp952
a(S'w'
I28
tp953
a(S'p2_tl'
I179
tp954
a(S'w'
I2
tp955
a(S'p2_ll'
I1
tp956
a(S'w'
I2
tp957
a(S'p2_vo'
I6
tp958
a(S'w'
I28
tp959
a(S'p1_tl'
I239
tp960
a(S'w'
I1
tp961
a(S'p1_ll'
I1
tp962
a(S'p1_th'
I0
tp963
a(S'w'
I3
tp964
a(S'p1_vo'
I6
tp965
a(S'w'
I636
tp966
a(S'no_vo'
I8
tp967
a(S'w'
I746
tp968
a(S'no_vo'
I6
tp969
a(S'w'
I721
tp970
a(S'no_vo'
I4
tp971
a(S'w'
I734
tp972
a(S'no_vo'
I2
tp973
a(S'w'
I734
tp974
a(S'no_vo'
I0
tp975
a(S'w'
I12
tp976
a(S'p2_vo'
I5
tp977
a(S'w'
I7
tp978
a(S'p1_vo'
I5
tp979
a(S'w'
I2203
tp980
a(S'w'
I4
tp981
a(S'p2_vo'
I1
tp982
a(S'w'
I17
tp983
a(S'w'
I4
tp984
a(S'p1_vo'
I1
tp985
a(S'w'
I1439
tp986
a(S'tr_lr'
I0
tp987
a(S'w'
I1467
tp988
a(S'ch_no'
I1
tp989
a(S'ch_tr'
I1
tp990
a(S'ch_p2'
I1
tp991
a(S'ch_p1'
I1
tp992
a(S'w'
I1
tp993
a(S'ch_no'
I1
tp994
a(S'ch_tr'
I1
tp995
a(S'ch_p2'
I1
tp996
a(S'ch_p1'
I1
tp997
a(S'w'
I6
tp998
a(S'no_np'
I2
tp999
a(S'no_ll'
I1
tp1000
a(S'w'
I2
tp1001
a(S'no_vo'
I2
tp1002
a(S'w'
I13
tp1003
a(S'tr_tl'
I252
tp1004
a(S'w'
I1
tp1005
a(S'tr_ll'
I1
tp1006
a(S'w'
I1
tp1007
a(S'tr_lr'
I127
tp1008
a(S'w'
I24
tp1009
a(S'p2_tl'
I254
tp1010
a(S'w'
I2
tp1011
a(S'p2_ll'
I1
tp1012
a(S'w'
I2
tp1013
a(S'p2_vo'
I6
tp1014
a(S'w'
I25
tp1015
a(S'p1_tl'
I83
tp1016
a(S'w'
I1
tp1017
a(S'p1_ll'
I1
tp1018
a(S'p1_th'
I1
tp1019
a(S'w'
I2
tp1020
a(S'p1_vo'
I6
tp1021
a(S'w'
I637
tp1022
a(S'no_vo'
I0
tp1023
a(S'w'
I2946
tp1024
a(S'p2_vo'
I5
tp1025
a(S'w'
I7
tp1026
a(S'p1_vo'
I5
tp1027
a(S'w'
I2205
tp1028
a(S'w'
I3
tp1029
a(S'p2_vo'
I1
tp1030
a(S'w'
I18
tp1031
a(S'w'
I3
tp1032
a(S'p1_vo'
I1
tp1033
a(S'w'
I1427
tp1034
a(S'tr_lr'
I0
tp1035
a(S'w'
I1467
tp1036
a(S'ch_no'
I1
tp1037
a(S'ch_tr'
I1
tp1038
a(S'ch_p2'
I1
tp1039
a(S'ch_p1'
I1
tp1040
a(S'w'
I1
tp1041
a(S'ch_no'
I1
tp1042
a(S'ch_tr'
I1
tp1043
a(S'ch_p2'
I1
tp1044
a(S'ch_p1'
I1
tp1045
a(S'w'
I6
tp1046
a(S'no_np'
I6
tp1047
a(S'w'
I1
tp1048
a(S'no_ll'
I1
tp1049
a(S'w'
I1
tp1050
a(S'no_vo'
I10
tp1051
a(S'w'
I13
tp1052
a(S'tr_tl'
I124
tp1053
a(S'w'
I2
tp1054
a(S'tr_ll'
I1
tp1055
a(S'tr_lr'
I127
tp1056
a(S'w'
I25
tp1057
a(S'p2_tl'
I190
tp1058
a(S'w'
I1
tp1059
a(S'p2_ll'
I1
tp1060
a(S'w'
I2
tp1061
a(S'p2_vo'
I6
tp1062
a(S'w'
I25
tp1063
a(S'p1_tl'
I254
tp1064
a(S'w'
I1
tp1065
a(S'p1_ll'
I1
tp1066
a(S'p1_th'
I0
tp1067
a(S'w'
I3
tp1068
a(S'p1_vo'
I6
tp1069
a(S'w'
I649
tp1070
a(S'no_vo'
I8
tp1071
a(S'w'
I747
tp1072
a(S'no_vo'
I6
tp1073
a(S'w'
I720
tp1074
a(S'no_vo'
I4
tp1075
a(S'w'
I734
tp1076
a(S'no_vo'
I2
tp1077
a(S'w'
I734
tp1078
a(S'no_vo'
I0
tp1079
a(S'w'
I12
tp1080
a(S'p2_vo'
I5
tp1081
a(S'w'
I7
tp1082
a(S'p1_vo'
I5
tp1083
a(S'w'
I2203
tp1084
a(S'w'
I4
tp1085
a(S'p2_vo'
I1
tp1086
a(S'w'
I17
tp1087
a(S'w'
I4
tp1088
a(S'p1_vo'
I1
tp1089
a(S'w'
I1440
tp1090
a(S'tr_lr'
I0
tp1091
a(S'w'
I1453
tp1092
a(S'no_np'
I0
tp1093
a(S'no_ll'
I1
tp1094
a(S'w'
I2
tp1095
a(S'no_vo'
I10
tp1096
a(S'w'
I13
tp1097
a(S'tr_tl'
I252
tp1098
a(S'w'
I1
tp1099
a(S'tr_ll'
I1
tp1100
a(S'w'
I1
tp1101
a(S'tr_lr'
I127
tp1102
a(S'w'
I25
tp1103
a(S'p2_tl'
I254
tp1104
a(S'w'
I1
tp1105
a(S'p2_ll'
I1
tp1106
a(S'w'
I2
tp1107
a(S'p2_vo'
I6
tp1108
a(S'w'
I25
tp1109
a(S'p1_tl'
I83
tp1110
a(S'w'
I1
tp1111
a(S'p1_ll'
I1
tp1112
a(S'p1_th'
I1
tp1113
a(S'w'
I2
tp1114
a(S'p1_vo'
I6
tp1115
a(S'w'
I657
tp1116
a(S'no_vo'
I8
tp1117
a(S'w'
I734
tp1118
a(S'no_vo'
I6
tp1119
a(S'w'
I734
tp1120
a(S'no_vo'
I4
tp1121
a(S'w'
I734
tp1122
a(S'no_vo'
I2
tp1123
a(S'w'
I733
tp1124
a(S'no_vo'
I0
tp1125
a(S'w'
I13
tp1126
a(S'p2_vo'
I5
tp1127
a(S'w'
I6
tp1128
a(S'p1_vo'
I5
tp1129
a(S'w'
I733
tp1130
a(S'ch_no'
I1
tp1131
a(S'ch_tr'
I1
tp1132
a(S'ch_p2'
I1
tp1133
a(S'ch_p1'
I1
tp1134
a(S'w'
I1
tp1135
a(S'ch_no'
I1
tp1136
a(S'ch_tr'
I1
tp1137
a(S'ch_p2'
I1
tp1138
a(S'ch_p1'
I1
tp1139
a(S'w'
I6
tp1140
a(S'no_np'
I2
tp1141
a(S'no_ll'
I1
tp1142
a(S'w'
I2
tp1143
a(S'no_vo'
I2
tp1144
a(S'w'
I707
tp1145
a(S'no_vo'
I0
tp1146
a(S'w'
I755
tp1147
a(S'w'
I4
tp1148
a(S'p2_vo'
I1
tp1149
a(S'w'
I17
tp1150
a(S'w'
I3
tp1151
a(S'p1_vo'
I1
tp1152
a(S'w'
I1427
tp1153
a(S'tr_lr'
I0
tp1154
a(S'w'
I1468
tp1155
a(S'ch_no'
I1
tp1156
a(S'ch_tr'
I1
tp1157
a(S'ch_p2'
I1
tp1158
a(S'ch_p1'
I1
tp1159
a(S'w'
I1
tp1160
a(S'ch_no'
I1
tp1161
a(S'ch_tr'
I1
tp1162
a(S'ch_p2'
I1
tp1163
a(S'ch_p1'
I1
tp1164
a(S'w'
I6
tp1165
a(S'no_np'
I6
tp1166
a(S'no_ll'
I1
tp1167
a(S'w'
I2
tp1168
a(S'no_vo'
I10
tp1169
a(S'w'
I13
tp1170
a(S'tr_tl'
I171
tp1171
a(S'w'
I1
tp1172
a(S'tr_ll'
I1
tp1173
a(S'w'
I1
tp1174
a(S'tr_lr'
I127
tp1175
a(S'w'
I24
tp1176
a(S'p2_tl'
I213
tp1177
a(S'w'
I2
tp1178
a(S'p2_ll'
I1
tp1179
a(S'w'
I2
tp1180
a(S'p2_vo'
I6
tp1181
a(S'w'
I25
tp1182
a(S'p1_tl'
I29
tp1183
a(S'w'
I1
tp1184
a(S'p1_ll'
I1
tp1185
a(S'w'
I2
tp1186
a(S'p1_vo'
I6
tp1187
a(S'w'
I649
tp1188
a(S'no_vo'
I8
tp1189
a(S'w'
I747
tp1190
a(S'no_vo'
I6
tp1191
a(S'w'
I721
tp1192
a(S'no_vo'
I4
tp1193
a(S'w'
I733
tp1194
a(S'no_vo'
I2
tp1195
a(S'w'
I734
tp1196
a(S'no_vo'
I0
tp1197
a(S'w'
I12
tp1198
a(S'p2_vo'
I5
tp1199
a(S'w'
I7
tp1200
a(S'p1_vo'
I5
tp1201
a(S'w'
I2204
tp1202
a(S'w'
I3
tp1203
a(S'p2_vo'
I1
tp1204
a(S'w'
I18
tp1205
a(S'w'
I3
tp1206
a(S'p1_vo'
I1
tp1207
a(S'w'
I1440
tp1208
a(S'tr_lr'
I0
tp1209
a(S'w'
I1455
tp1210
a(S'ch_no'
I1
tp1211
a(S'ch_tr'
I1
tp1212
a(S'ch_p2'
I1
tp1213
a(S'ch_p1'
I1
tp1214
a(S'w'
I1
tp1215
a(S'ch_no'
I1
tp1216
a(S'ch_tr'
I1
tp1217
a(S'ch_p2'
I1
tp1218
a(S'ch_p1'
I1
tp1219
a(S'w'
I6
tp1220
a(S'no_np'
I2
tp1221
a(S'no_ll'
I1
tp1222
a(S'w'
I1
tp1223
a(S'no_vo'
I2
tp1224
a(S'w'
I12
tp1225
a(S'tr_tl'
I124
tp1226
a(S'w'
I1
tp1227
a(S'tr_ll'
I1
tp1228
a(S'w'
I1
tp1229
a(S'tr_lr'
I127
tp1230
a(S'w'
I24
tp1231
a(S'p2_tl'
I190
tp1232
a(S'w'
I1
tp1233
a(S'p2_ll'
I1
tp1234
a(S'w'
I3
tp1235
a(S'p2_vo'
I6
tp1236
a(S'w'
I24
tp1237
a(S'p1_tl'
I254
tp1238
a(S'w'
I2
tp1239
a(S'p1_ll'
I1
tp1240
a(S'p1_th'
I0
tp1241
a(S'w'
I2
tp1242
a(S'p1_vo'
I6
tp1243
a(S'w'
I650
tp1244
a(S'no_vo'
I0
tp1245
a(S'w'
I2946
tp1246
a(S'p2_vo'
I5
tp1247
a(S'w'
I7
tp1248
a(S'p1_vo'
I5
tp1249
a(S'w'
I2205
tp1250
a(S'w'
I4
tp1251
a(S'p2_vo'
I1
tp1252
a(S'w'
I17
tp1253
a(S'w'
I4
tp1254
a(S'p1_vo'
I1
tp1255
a(S'w'
I1427
tp1256
a(S'tr_lr'
I0
tp1257
a(S'w'
I1467
tp1258
a(S'ch_no'
I1
tp1259
a(S'ch_tr'
I1
tp1260
a(S'ch_p2'
I1
tp1261
a(S'ch_p1'
I1
tp1262
a(S'w'
I1
tp1263
a(S'ch_no'
I1
tp1264
a(S'ch_tr'
I1
tp1265
a(S'ch_p2'
I1
tp1266
a(S'ch_p1'
I1
tp1267
a(S'w'
I6
tp1268
a(S'no_np'
I6
tp1269
a(S'no_ll'
I1
tp1270
a(S'w'
I2
tp1271
a(S'no_vo'
I10
tp1272
a(S'w'
I13
tp1273
a(S'tr_tl'
I58
tp1274
a(S'w'
I1
tp1275
a(S'tr_ll'
I1
tp1276
a(S'tr_th'
I2
tp1277
a(S'w'
I1
tp1278
a(S'tr_lr'
I127
tp1279
a(S'w'
I25
tp1280
a(S'p2_tl'
I29
tp1281
a(S'w'
I1
tp1282
a(S'p2_ll'
I1
tp1283
a(S'p2_th'
I1
tp1284
a(S'w'
I2
tp1285
a(S'p2_vo'
I6
tp1286
a(S'w'
I25
tp1287
a(S'p1_tl'
I124
tp1288
a(S'w'
I1
tp1289
a(S'p1_ll'
I1
tp1290
a(S'p1_th'
I1
tp1291
a(S'w'
I2
tp1292
a(S'p1_vo'
I6
tp1293
a(S'w'
I649
tp1294
a(S'no_vo'
I8
tp1295
a(S'w'
I747
tp1296
a(S'no_vo'
I6
tp1297
a(S'w'
I721
tp1298
a(S'no_vo'
I4
tp1299
a(S'w'
I734
tp1300
a(S'no_vo'
I2
tp1301
a(S'w'
I733
tp1302
a(S'no_vo'
I0
tp1303
a(S'w'
I12
tp1304
a(S'p2_vo'
I5
tp1305
a(S'w'
I7
tp1306
a(S'p1_vo'
I5
tp1307
a(S'w'
I720
tp1308
a(S'ch_no'
I1
tp1309
a(S'ch_tr'
I1
tp1310
a(S'ch_p2'
I1
tp1311
a(S'ch_p1'
I1
tp1312
a(S'w'
I1
tp1313
a(S'ch_no'
I1
tp1314
a(S'ch_tr'
I1
tp1315
a(S'ch_p2'
I1
tp1316
a(S'ch_p1'
I1
tp1317
a(S'w'
I6
tp1318
a(S'no_np'
I2
tp1319
a(S'no_ll'
I1
tp1320
a(S'w'
I2
tp1321
a(S'no_vo'
I2
tp1322
a(S'w'
I720
tp1323
a(S'no_vo'
I0
tp1324
a(S'w'
I755
tp1325
a(S'w'
I3
tp1326
a(S'p2_vo'
I1
tp1327
a(S'w'
I18
tp1328
a(S'w'
I3
tp1329
a(S'p1_vo'
I1
tp1330
a(S'w'
I1440
tp1331
a(S'tr_lr'
I0
tp1332
a(S'w'
I1453
tp1333
a(S'no_np'
I0
tp1334
a(S'no_ll'
I1
tp1335
a(S'w'
I2
tp1336
a(S'no_vo'
I2
tp1337
a(S'w'
I11
tp1338
a(S'tr_tl'
I26
tp1339
a(S'w'
I2
tp1340
a(S'tr_ll'
I1
tp1341
a(S'tr_lr'
I127
tp1342
a(S'w'
I25
tp1343
a(S'p2_tl'
I13
tp1344
a(S'w'
I1
tp1345
a(S'p2_ll'
I1
tp1346
a(S'w'
I2
tp1347
a(S'p2_vo'
I6
tp1348
a(S'w'
I25
tp1349
a(S'p1_tl'
I103
tp1350
a(S'w'
I1
tp1351
a(S'p1_ll'
I1
tp1352
a(S'w'
I3
tp1353
a(S'p1_vo'
I6
tp1354
a(S'w'
I659
tp1355
a(S'no_vo'
I0
tp1356
a(S'w'
I2945
tp1357
a(S'p2_vo'
I5
tp1358
a(S'w'
I7
tp1359
a(S'p1_vo'
I5
tp1360
a(S'w'
I730
tp1361
a(S'ch_no'
I1
tp1362
a(S'ch_tr'
I1
tp1363
a(S'ch_p2'
I1
tp1364
a(S'ch_p1'
I1
tp1365
a(S'w'
I1
tp1366
a(S'ch_no'
I1
tp1367
a(S'ch_tr'
I1
tp1368
a(S'ch_p2'
I1
tp1369
a(S'ch_p1'
I1
tp1370
a(S'w'
I6
tp1371
a(S'no_ll'
I1
tp1372
a(S'w'
I2
tp1373
a(S'no_vo'
I2
tp1374
a(S'w'
I711
tp1375
a(S'no_vo'
I0
tp1376
a(S'w'
I756
tp1377
a(S'w'
I3
tp1378
a(S'p2_vo'
I1
tp1379
a(S'w'
I18
tp1380
a(S'w'
I3
tp1381
a(S'p1_vo'
I1
tp1382
a(S'w'
I1427
tp1383
a(S'tr_lr'
I0
tp1384
a(S'w'
I1468
tp1385
a(S'ch_no'
I1
tp1386
a(S'ch_tr'
I1
tp1387
a(S'ch_p2'
I1
tp1388
a(S'ch_p1'
I1
tp1389
a(S'ch_no'
I1
tp1390
a(S'ch_tr'
I1
tp1391
a(S'ch_p2'
I1
tp1392
a(S'ch_p1'
I1
tp1393
a(S'w'
I7
tp1394
a(S'no_np'
I6
tp1395
a(S'no_ll'
I1
tp1396
a(S'w'
I1
tp1397
a(S'no_vo'
I10
tp1398
a(S'w'
I12
tp1399
a(S'tr_tl'
I252
tp1400
a(S'w'
I1
tp1401
a(S'tr_ll'
I1
tp1402
a(S'tr_th'
I1
tp1403
a(S'w'
I1
tp1404
a(S'tr_lr'
I127
tp1405
a(S'w'
I24
tp1406
a(S'p2_tl'
I254
tp1407
a(S'w'
I1
tp1408
a(S'p2_ll'
I1
tp1409
a(S'p2_th'
I0
tp1410
a(S'w'
I3
tp1411
a(S'p2_vo'
I6
tp1412
a(S'w'
I24
tp1413
a(S'p1_tl'
I83
tp1414
a(S'w'
I2
tp1415
a(S'p1_ll'
I1
tp1416
a(S'w'
I2
tp1417
a(S'p1_vo'
I6
tp1418
a(S'w'
I651
tp1419
a(S'no_vo'
I8
tp1420
a(S'w'
I746
tp1421
a(S'no_vo'
I6
tp1422
a(S'w'
I721
tp1423
a(S'no_vo'
I4
tp1424
a(S'w'
I734
tp1425
a(S'no_vo'
I2
tp1426
a(S'w'
I734
tp1427
a(S'no_vo'
I0
tp1428
a(S'w'
I12
tp1429
a(S'p2_vo'
I5
tp1430
a(S'w'
I6
tp1431
a(S'p1_vo'
I5
tp1432
a(S'w'
I2204
tp1433
a(S'w'
I4
tp1434
a(S'p2_vo'
I1
tp1435
a(S'w'
I17
tp1436
a(S'w'
I4
tp1437
a(S'p1_vo'
I1
tp1438
a(S'w'
I1439
tp1439
a(S'tr_lr'
I0
tp1440
a(S'w'
I1467
tp1441
a(S'ch_no'
I1
tp1442
a(S'ch_tr'
I1
tp1443
a(S'ch_p2'
I1
tp1444
a(S'ch_p1'
I1
tp1445
a(S'w'
I1
tp1446
a(S'ch_no'
I1
tp1447
a(S'ch_tr'
I1
tp1448
a(S'ch_p2'
I1
tp1449
a(S'ch_p1'
I1
tp1450
a(S'w'
I6
tp1451
a(S'no_np'
I2
tp1452
a(S'no_ll'
I1
tp1453
a(S'w'
I2
tp1454
a(S'no_vo'
I2
tp1455
a(S'w'
I32
tp1456
a(S'tr_ll'
I1
tp1457
a(S'tr_lr'
I127
tp1458
a(S'w'
I41
tp1459
a(S'w'
I2
tp1460
a(S'p2_ll'
I1
tp1461
a(S'w'
I2
tp1462
a(S'p2_vo'
I6
tp1463
a(S'w'
I41
tp1464
a(S'w'
I2
tp1465
a(S'p1_ll'
I1
tp1466
a(S'w'
I2
tp1467
a(S'p1_vo'
I6
tp1468
a(S'w'
I586
tp1469
a(S'no_vo'
I0
tp1470
a(S'w'
I2223
tp1471
a(S'w'
I4
tp1472
a(S'p2_vo'
I1
tp1473
a(S'w'
I17
tp1474
a(S'w'
I4
tp1475
a(S'p1_vo'
I1
tp1476
a(S'w'
I693
tp1477
a(S'tr_lr'
I0
tp1478
a(S'w'
I752
tp1479
a(S'tr_ll'
I1
tp1480
a(S'w'
I1
tp1481
a(S'tr_lr'
I127
tp1482
a(S'w'
I24
tp1483
a(S'w'
I1
tp1484
a(S'p2_ll'
I1
tp1485
a(S'w'
I3
tp1486
a(S'p2_vo'
I6
tp1487
a(S'w'
I24
tp1488
a(S'w'
I2
tp1489
a(S'p1_ll'
I1
tp1490
a(S'w'
I2
tp1491
a(S'p1_vo'
I6
tp1492
a(S'w'
I2876
tp1493
a(S'w'
I4
tp1494
a(S'p2_vo'
I1
tp1495
a(S'w'
I17
tp1496
a(S'w'
I4
tp1497
a(S'p1_vo'
I1
tp1498
a(S'w'
I692
tp1499
a(S'tr_lr'
I0
tp1500
a(S'w'
I733
tp1501
a(S'ch_no'
I1
tp1502
a(S'ch_tr'
I1
tp1503
a(S'ch_p2'
I1
tp1504
a(S'ch_p1'
I1
tp1505
a(S'w'
I1
tp1506
a(S'ch_no'
I1
tp1507
a(S'ch_tr'
I1
tp1508
a(S'ch_p2'
I1
tp1509
a(S'ch_p1'
I1
tp1510
a(S'w'
I6
tp1511
a(S'no_np'
I6
tp1512
a(S'no_ll'
I1
tp1513
a(S'w'
I2
tp1514
a(S'no_vo'
I10
tp1515
a(S'w'
I19
tp1516
a(S'tr_tl'
I171
tp1517
a(S'w'
I1
tp1518
a(S'tr_ll'
I1
tp1519
a(S'w'
I1
tp1520
a(S'tr_lr'
I127
tp1521
a(S'w'
I28
tp1522
a(S'p2_tl'
I213
tp1523
a(S'w'
I1
tp1524
a(S'p2_ll'
I1
tp1525
a(S'w'
I3
tp1526
a(S'p2_vo'
I6
tp1527
a(S'w'
I28
tp1528
a(S'p1_tl'
I29
tp1529
a(S'w'
I1
tp1530
a(S'p1_ll'
I1
tp1531
a(S'w'
I2
tp1532
a(S'p1_vo'
I6
tp1533
a(S'w'
I637
tp1534
a(S'no_vo'
I8
tp1535
a(S'w'
I747
tp1536
a(S'no_vo'
I6
tp1537
a(S'w'
I720
tp1538
a(S'no_vo'
I4
tp1539
a(S'w'
I734
tp1540
a(S'no_vo'
I2
tp1541
a(S'w'
I734
tp1542
a(S'no_vo'
I0
tp1543
a(S'w'
I12
tp1544
a(S'p2_vo'
I5
tp1545
a(S'w'
I7
tp1546
a(S'p1_vo'
I5
tp1547
a(S'w'
I2203
tp1548
a(S'w'
I4
tp1549
a(S'p2_vo'
I1
tp1550
a(S'w'
I17
tp1551
a(S'w'
I4
tp1552
a(S'p1_vo'
I1
tp1553
a(S'w'
I1440
tp1554
a(S'tr_lr'
I0
tp1555
a(S'w'
I1453
tp1556
a(S'no_np'
I0
tp1557
a(S'no_ll'
I1
tp1558
a(S'w'
I2
tp1559
a(S'no_vo'
I10
tp1560
a(S'w'
I13
tp1561
a(S'tr_tl'
I252
tp1562
a(S'w'
I1
tp1563
a(S'tr_ll'
I1
tp1564
a(S'w'
I1
tp1565
a(S'tr_lr'
I127
tp1566
a(S'w'
I24
tp1567
a(S'p2_tl'
I254
tp1568
a(S'w'
I2
tp1569
a(S'p2_ll'
I1
tp1570
a(S'w'
I2
tp1571
a(S'p2_vo'
I6
tp1572
a(S'w'
I25
tp1573
a(S'p1_tl'
I83
tp1574
a(S'w'
I1
tp1575
a(S'p1_ll'
I1
tp1576
a(S'w'
I2
tp1577
a(S'p1_vo'
I6
tp1578
a(S'w'
I657
tp1579
a(S'no_vo'
I8
tp1580
a(S'w'
I734
tp1581
a(S'no_vo'
I6
tp1582
a(S'w'
I734
tp1583
a(S'no_vo'
I4
tp1584
a(S'w'
I734
tp1585
a(S'no_vo'
I2
tp1586
a(S'w'
I733
tp1587
a(S'no_vo'
I0
tp1588
a(S'w'
I12
tp1589
a(S'p2_vo'
I5
tp1590
a(S'w'
I7
tp1591
a(S'p1_vo'
I5
tp1592
a(S'w'
I733
tp1593
a(S'ch_no'
I1
tp1594
a(S'ch_tr'
I1
tp1595
a(S'ch_p2'
I1
tp1596
a(S'ch_p1'
I1
tp1597
a(S'w'
I1
tp1598
a(S'ch_no'
I1
tp1599
a(S'ch_tr'
I1
tp1600
a(S'ch_p2'
I1
tp1601
a(S'ch_p1'
I1
tp1602
a(S'w'
I6
tp1603
a(S'no_np'
I2
tp1604
a(S'no_ll'
I1
tp1605
a(S'w'
I2
tp1606
a(S'no_vo'
I2
tp1607
a(S'w'
I707
tp1608
a(S'no_vo'
I0
tp1609
a(S'w'
I755
tp1610
a(S'w'
I4
tp1611
a(S'p2_vo'
I1
tp1612
a(S'w'
I17
tp1613
a(S'w'
I3
tp1614
a(S'p1_vo'
I1
tp1615
a(S'w'
I1427
tp1616
a(S'tr_lr'
I0
tp1617
a(S'w'
I1468
tp1618
a(S'ch_no'
I1
tp1619
a(S'ch_tr'
I1
tp1620
a(S'ch_p2'
I1
tp1621
a(S'ch_p1'
I1
tp1622
a(S'w'
I1
tp1623
a(S'ch_no'
I1
tp1624
a(S'ch_tr'
I1
tp1625
a(S'ch_p2'
I1
tp1626
a(S'ch_p1'
I1
tp1627
a(S'w'
I6
tp1628
a(S'no_np'
I6
tp1629
a(S'no_ll'
I1
tp1630
a(S'w'
I2
tp1631
a(S'no_vo'
I10
tp1632
a(S'w'
I20
tp1633
a(S'tr_ll'
I1
tp1634
a(S'w'
I1
tp1635
a(S'tr_lr'
I127
tp1636
a(S'w'
I29
tp1637
a(S'w'
I1
tp1638
a(S'p2_ll'
I1
tp1639
a(S'w'
I3
tp1640
a(S'p2_vo'
I6
tp1641
a(S'w'
I29
tp1642
a(S'w'
I2
tp1643
a(S'p1_ll'
I1
tp1644
a(S'w'
I2
tp1645
a(S'p1_vo'
I6
tp1646
a(S'w'
I633
tp1647
a(S'no_vo'
I8
tp1648
a(S'w'
I747
tp1649
a(S'no_vo'
I6
tp1650
a(S'w'
I721
tp1651
a(S'no_vo'
I4
tp1652
a(S'w'
I733
tp1653
a(S'no_vo'
I2
tp1654
a(S'w'
I24
tp1655
a(S'w'
I4
tp1656
a(S'p2_vo'
I1
tp1657
a(S'w'
I17
tp1658
a(S'w'
I4
tp1659
a(S'p1_vo'
I1
tp1660
a(S'w'
I685
tp1661
a(S'no_vo'
I0
tp1662
a(S'w'
I7
tp1663
a(S'tr_lr'
I0
tp1664
a(S'w'
I738
tp1665
a(S'tr_ll'
I1
tp1666
a(S'tr_lr'
I127
tp1667
a(S'w'
I25
tp1668
a(S'w'
I1
tp1669
a(S'p2_ll'
I1
tp1670
a(S'w'
I2
tp1671
a(S'p2_vo'
I6
tp1672
a(S'w'
I25
tp1673
a(S'w'
I1
tp1674
a(S'p1_ll'
I1
tp1675
a(S'w'
I3
tp1676
a(S'p1_vo'
I6
tp1677
a(S'w'
I2902
tp1678
a(S'w'
I4
tp1679
a(S'p2_vo'
I1
tp1680
a(S'w'
I17
tp1681
a(S'w'
I4
tp1682
a(S'p1_vo'
I1
tp1683
a(S'w'
I679
tp1684
a(S'tr_lr'
I0
tp1685
a(S'w'
I734
tp1686
a(S'ch_no'
I1
tp1687
a(S'ch_tr'
I1
tp1688
a(S'ch_p2'
I1
tp1689
a(S'ch_p1'
I1
tp1690
a(S'ch_no'
I1
tp1691
a(S'ch_tr'
I1
tp1692
a(S'ch_p2'
I1
tp1693
a(S'ch_p1'
I1
tp1694
a(S'w'
I7
tp1695
a(S'no_np'
I2
tp1696
a(S'no_ll'
I1
tp1697
a(S'w'
I1
tp1698
a(S'no_vo'
I2
tp1699
a(S'w'
I19
tp1700
a(S'tr_tl'
I124
tp1701
a(S'w'
I2
tp1702
a(S'tr_ll'
I1
tp1703
a(S'tr_lr'
I127
tp1704
a(S'w'
I28
tp1705
a(S'p2_tl'
I190
tp1706
a(S'w'
I2
tp1707
a(S'p2_ll'
I1
tp1708
a(S'w'
I2
tp1709
a(S'p2_vo'
I6
tp1710
a(S'w'
I28
tp1711
a(S'p1_tl'
I254
tp1712
a(S'w'
I1
tp1713
a(S'p1_ll'
I1
tp1714
a(S'p1_th'
I0
tp1715
a(S'w'
I3
tp1716
a(S'p1_vo'
I6
tp1717
a(S'w'
I635
tp1718
a(S'no_vo'
I0
tp1719
a(S'w'
I2946
tp1720
a(S'p2_vo'
I5
tp1721
a(S'w'
I7
tp1722
a(S'p1_vo'
I5
tp1723
a(S'w'
I2205
tp1724
a(S'w'
I4
tp1725
a(S'p2_vo'
I1
tp1726
a(S'w'
I17
tp1727
a(S'w'
I4
tp1728
a(S'p1_vo'
I1
tp1729
a(S'w'
I1427
tp1730
a(S'tr_lr'
I0
tp1731
a(S'w'
I1467
tp1732
a(S'ch_no'
I1
tp1733
a(S'ch_tr'
I1
tp1734
a(S'ch_p2'
I1
tp1735
a(S'ch_p1'
I1
tp1736
a(S'w'
I1
tp1737
a(S'ch_no'
I1
tp1738
a(S'ch_tr'
I1
tp1739
a(S'ch_p2'
I1
tp1740
a(S'ch_p1'
I1
tp1741
a(S'w'
I6
tp1742
a(S'no_np'
I6
tp1743
a(S'no_ll'
I1
tp1744
a(S'w'
I2
tp1745
a(S'no_vo'
I10
tp1746
a(S'w'
I13
tp1747
a(S'tr_tl'
I252
tp1748
a(S'w'
I1
tp1749
a(S'tr_ll'
I1
tp1750
a(S'w'
I1
tp1751
a(S'tr_lr'
I127
tp1752
a(S'w'
I25
tp1753
a(S'p2_tl'
I254
tp1754
a(S'w'
I1
tp1755
a(S'p2_ll'
I1
tp1756
a(S'w'
I2
tp1757
a(S'p2_vo'
I6
tp1758
a(S'w'
I25
tp1759
a(S'p1_tl'
I83
tp1760
a(S'w'
I1
tp1761
a(S'p1_ll'
I1
tp1762
a(S'p1_th'
I1
tp1763
a(S'w'
I2
tp1764
a(S'p1_vo'
I6
tp1765
a(S'w'
I649
tp1766
a(S'no_vo'
I8
tp1767
a(S'w'
I747
tp1768
a(S'no_vo'
I6
tp1769
a(S'w'
I721
tp1770
a(S'no_vo'
I4
tp1771
a(S'w'
I734
tp1772
a(S'no_vo'
I2
tp1773
a(S'w'
I733
tp1774
a(S'no_vo'
I0
tp1775
a(S'w'
I12
tp1776
a(S'p2_vo'
I5
tp1777
a(S'w'
I7
tp1778
a(S'p1_vo'
I5
tp1779
a(S'w'
I720
tp1780
a(S'ch_no'
I1
tp1781
a(S'ch_tr'
I1
tp1782
a(S'ch_p2'
I1
tp1783
a(S'ch_p1'
I1
tp1784
a(S'w'
I1
tp1785
a(S'ch_no'
I1
tp1786
a(S'ch_tr'
I1
tp1787
a(S'ch_p2'
I1
tp1788
a(S'ch_p1'
I1
tp1789
a(S'w'
I6
tp1790
a(S'no_np'
I2
tp1791
a(S'no_ll'
I1
tp1792
a(S'w'
I2
tp1793
a(S'no_vo'
I2
tp1794
a(S'w'
I720
tp1795
a(S'no_vo'
I0
tp1796
a(S'w'
I755
tp1797
a(S'w'
I3
tp1798
a(S'p2_vo'
I1
tp1799
a(S'w'
I18
tp1800
a(S'w'
I3
tp1801
a(S'p1_vo'
I1
tp1802
a(S'w'
I1440
tp1803
a(S'tr_lr'
I0
tp1804
a(S'w'
I1453
tp1805
a(S'no_np'
I0
tp1806
a(S'no_ll'
I1
tp1807
a(S'w'
I2
tp1808
a(S'no_vo'
I2
tp1809
a(S'w'
I20
tp1810
a(S'tr_ll'
I1
tp1811
a(S'w'
I1
tp1812
a(S'tr_lr'
I127
tp1813
a(S'w'
I29
tp1814
a(S'w'
I2
tp1815
a(S'p2_ll'
I1
tp1816
a(S'w'
I2
tp1817
a(S'p2_vo'
I6
tp1818
a(S'w'
I29
tp1819
a(S'w'
I2
tp1820
a(S'p1_ll'
I1
tp1821
a(S'w'
I2
tp1822
a(S'p1_vo'
I6
tp1823
a(S'w'
I642
tp1824
a(S'no_vo'
I0
tp1825
a(S'w'
I2223
tp1826
a(S'w'
I4
tp1827
a(S'p2_vo'
I1
tp1828
a(S'w'
I17
tp1829
a(S'w'
I4
tp1830
a(S'p1_vo'
I1
tp1831
a(S'w'
I692
tp1832
a(S'tr_lr'
I0
tp1833
a(S'w'
I742
tp1834
a(S'ch_no'
I1
tp1835
a(S'ch_tr'
I1
tp1836
a(S'ch_p2'
I1
tp1837
a(S'ch_p1'
I1
tp1838
a(S'w'
I1
tp1839
a(S'ch_no'
I1
tp1840
a(S'ch_tr'
I1
tp1841
a(S'ch_p2'
I1
tp1842
a(S'ch_p1'
I1
tp1843
a(S'w'
I6
tp1844
a(S'no_ll'
I1
tp1845
a(S'w'
I2
tp1846
a(S'no_vo'
I2
tp1847
a(S'w'
I12
tp1848
a(S'tr_ll'
I1
tp1849
a(S'w'
I1
tp1850
a(S'tr_lr'
I127
tp1851
a(S'w'
I25
tp1852
a(S'w'
I1
tp1853
a(S'p2_ll'
I1
tp1854
a(S'w'
I2
tp1855
a(S'p2_vo'
I6
tp1856
a(S'w'
I25
tp1857
a(S'w'
I1
tp1858
a(S'p1_ll'
I1
tp1859
a(S'w'
I2
tp1860
a(S'p1_vo'
I6
tp1861
a(S'w'
I642
tp1862
a(S'no_vo'
I0
tp1863
a(S'w'
I2224
tp1864
a(S'w'
I4
tp1865
a(S'p2_vo'
I1
tp1866
a(S'w'
I17
tp1867
a(S'w'
I4
tp1868
a(S'p1_vo'
I1
tp1869
a(S'w'
I692
tp1870
a(S'tr_lr'
I0
tp1871
a(S'w'
I733
tp1872
a(S'ch_no'
I1
tp1873
a(S'ch_tr'
I1
tp1874
a(S'ch_p2'
I1
tp1875
a(S'ch_p1'
I1
tp1876
a(S'w'
I1
tp1877
a(S'ch_no'
I1
tp1878
a(S'ch_tr'
I1
tp1879
a(S'ch_p2'
I1
tp1880
a(S'ch_p1'
I1
tp1881
a(S'w'
I6
tp1882
a(S'no_np'
I6
tp1883
a(S'w'
I1
tp1884
a(S'no_ll'
I1
tp1885
a(S'w'
I1
tp1886
a(S'no_vo'
I10
tp1887
a(S'w'
I19
tp1888
a(S'tr_tl'
I103
tp1889
a(S'w'
I2
tp1890
a(S'tr_ll'
I1
tp1891
a(S'tr_lr'
I127
tp1892
a(S'w'
I28
tp1893
a(S'p2_tl'
I179
tp1894
a(S'w'
I1
tp1895
a(S'p2_ll'
I1
tp1896
a(S'w'
I3
tp1897
a(S'p2_vo'
I6
tp1898
a(S'w'
I28
tp1899
a(S'p1_tl'
I239
tp1900
a(S'w'
I1
tp1901
a(S'p1_ll'
I1
tp1902
a(S'p1_th'
I0
tp1903
a(S'w'
I2
tp1904
a(S'p1_vo'
I6
tp1905
a(S'w'
I636
tp1906
a(S'no_vo'
I8
tp1907
a(S'w'
I747
tp1908
a(S'no_vo'
I6
tp1909
a(S'w'
I721
tp1910
a(S'no_vo'
I4
tp1911
a(S'w'
I734
tp1912
a(S'no_vo'
I2
tp1913
a(S'w'
I733
tp1914
a(S'no_vo'
I0
tp1915
a(S'w'
I13
tp1916
a(S'p2_vo'
I5
tp1917
a(S'w'
I6
tp1918
a(S'p1_vo'
I5
tp1919
a(S'w'
I2204
tp1920
a(S'w'
I4
tp1921
a(S'p2_vo'
I1
tp1922
a(S'w'
I17
tp1923
a(S'w'
I4
tp1924
a(S'p1_vo'
I1
tp1925
a(S'w'
I1439
tp1926
a(S'tr_lr'
I0
tp1927
a(S'w'
I1467
tp1928
a(S'ch_no'
I1
tp1929
a(S'ch_tr'
I1
tp1930
a(S'ch_p2'
I1
tp1931
a(S'ch_p1'
I1
tp1932
a(S'w'
I1
tp1933
a(S'ch_no'
I1
tp1934
a(S'ch_tr'
I1
tp1935
a(S'ch_p2'
I1
tp1936
a(S'ch_p1'
I1
tp1937
a(S'w'
I6
tp1938
a(S'no_np'
I2
tp1939
a(S'no_ll'
I1
tp1940
a(S'w'
I2
tp1941
a(S'no_vo'
I2
tp1942
a(S'w'
I13
tp1943
a(S'tr_tl'
I252
tp1944
a(S'w'
I1
tp1945
a(S'tr_ll'
I1
tp1946
a(S'w'
I1
tp1947
a(S'tr_lr'
I127
tp1948
a(S'w'
I24
tp1949
a(S'p2_tl'
I254
tp1950
a(S'w'
I2
tp1951
a(S'p2_ll'
I1
tp1952
a(S'w'
I2
tp1953
a(S'p2_vo'
I6
tp1954
a(S'w'
I24
tp1955
a(S'p1_tl'
I83
tp1956
a(S'w'
I2
tp1957
a(S'p1_ll'
I1
tp1958
a(S'p1_th'
I1
tp1959
a(S'w'
I2
tp1960
a(S'p1_vo'
I6
tp1961
a(S'w'
I637
tp1962
a(S'no_vo'
I0
tp1963
a(S'w'
I2946
tp1964
a(S'p2_vo'
I5
tp1965
a(S'w'
I6
tp1966
a(S'p1_vo'
I5
tp1967
a(S'w'
I2206
tp1968
a(S'w'
I3
tp1969
a(S'p2_vo'
I1
tp1970
a(S'w'
I18
tp1971
a(S'w'
I3
tp1972
a(S'p1_vo'
I1
tp1973
a(S'w'
I1427
tp1974
a(S'tr_lr'
I0
tp1975
a(S'w'
I1467
tp1976
a(S'ch_no'
I1
tp1977
a(S'ch_tr'
I1
tp1978
a(S'ch_p2'
I1
tp1979
a(S'ch_p1'
I1
tp1980
a(S'w'
I1
tp1981
a(S'ch_no'
I1
tp1982
a(S'ch_tr'
I1
tp1983
a(S'ch_p2'
I1
tp1984
a(S'ch_p1'
I1
tp1985
a(S'w'
I6
tp1986
a(S'no_np'
I6
tp1987
a(S'no_ll'
I1
tp1988
a(S'w'
I2
tp1989
a(S'no_vo'
I10
tp1990
a(S'w'
I13
tp1991
a(S'tr_tl'
I124
tp1992
a(S'w'
I1
tp1993
a(S'tr_ll'
I1
tp1994
a(S'w'
I1
tp1995
a(S'tr_lr'
I127
tp1996
a(S'w'
I25
tp1997
a(S'p2_tl'
I190
tp1998
a(S'w'
I1
tp1999
a(S'p2_ll'
I1
tp2000
a(S'w'
I2
tp2001
a(S'p2_vo'
I6
tp2002
a(S'w'
I25
tp2003
a(S'p1_tl'
I254
tp2004
a(S'w'
I1
tp2005
a(S'p1_ll'
I1
tp2006
a(S'p1_th'
I0
tp2007
a(S'w'
I2
tp2008
a(S'p1_vo'
I6
tp2009
a(S'w'
I650
tp2010
a(S'no_vo'
I8
tp2011
a(S'w'
I747
tp2012
a(S'no_vo'
I6
tp2013
a(S'w'
I720
tp2014
a(S'no_vo'
I4
tp2015
a(S'w'
I734
tp2016
a(S'no_vo'
I2
tp2017
a(S'w'
I734
tp2018
a(S'no_vo'
I0
tp2019
a(S'w'
I12
tp2020
a(S'p2_vo'
I5
tp2021
a(S'w'
I7
tp2022
a(S'p1_vo'
I5
tp2023
a(S'w'
I2203
tp2024
a(S'w'
I4
tp2025
a(S'p2_vo'
I1
tp2026
a(S'w'
I17
tp2027
a(S'w'
I4
tp2028
a(S'p1_vo'
I1
tp2029
a(S'w'
I1440
tp2030
a(S'tr_lr'
I0
tp2031
a(S'w'
I1453
tp2032
a(S'no_np'
I0
tp2033
a(S'no_ll'
I1
tp2034
a(S'w'
I2
tp2035
a(S'no_vo'
I10
tp2036
a(S'w'
I13
tp2037
a(S'tr_tl'
I252
tp2038
a(S'w'
I1
tp2039
a(S'tr_ll'
I1
tp2040
a(S'w'
I1
tp2041
a(S'tr_lr'
I127
tp2042
a(S'w'
I24
tp2043
a(S'p2_tl'
I254
tp2044
a(S'w'
I2
tp2045
a(S'p2_ll'
I1
tp2046
a(S'w'
I2
tp2047
a(S'p2_vo'
I6
tp2048
a(S'w'
I25
tp2049
a(S'p1_tl'
I83
tp2050
a(S'w'
I1
tp2051
a(S'p1_ll'
I1
tp2052
a(S'p1_th'
I1
tp2053
a(S'w'
I2
tp2054
a(S'p1_vo'
I6
tp2055
a(S'w'
I657
tp2056
a(S'no_vo'
I8
tp2057
a(S'w'
I734
tp2058
a(S'no_vo'
I6
tp2059
a(S'w'
I734
tp2060
a(S'no_vo'
I4
tp2061
a(S'w'
I734
tp2062
a(S'no_vo'
I2
tp2063
a(S'w'
I733
tp2064
a(S'no_vo'
I0
tp2065
a(S'w'
I12
tp2066
a(S'p2_vo'
I5
tp2067
a(S'w'
I7
tp2068
a(S'p1_vo'
I5
tp2069
a(S'w'
I733
tp2070
a(S'ch_no'
I1
tp2071
a(S'ch_tr'
I1
tp2072
a(S'ch_p2'
I1
tp2073
a(S'ch_p1'
I1
tp2074
a(S'w'
I1
tp2075
a(S'ch_no'
I1
tp2076
a(S'ch_tr'
I1
tp2077
a(S'ch_p2'
I1
tp2078
a(S'ch_p1'
I1
tp2079
a(S'w'
I6
tp2080
a(S'no_np'
I2
tp2081
a(S'no_ll'
I1
tp2082
a(S'w'
I2
tp2083
a(S'no_vo'
I2
tp2084
a(S'w'
I707
tp2085
a(S'no_vo'
I0
tp2086
a(S'w'
I755
tp2087
a(S'w'
I3
tp2088
a(S'p2_vo'
I1
tp2089
a(S'w'
I18
tp2090
a(S'w'
I3
tp2091
a(S'p1_vo'
I1
tp2092
a(S'w'
I1427
tp2093
a(S'tr_lr'
I0
tp2094
a(S'w'
I1468
tp2095
a(S'ch_no'
I1
tp2096
a(S'ch_tr'
I1
tp2097
a(S'ch_p2'
I1
tp2098
a(S'ch_p1'
I1
tp2099
a(S'w'
I1
tp2100
a(S'ch_no'
I1
tp2101
a(S'ch_tr'
I1
tp2102
a(S'ch_p2'
I1
tp2103
a(S'ch_p1'
I1
tp2104
a(S'w'
I6
tp2105
a(S'no_np'
I6
tp2106
a(S'no_ll'
I1
tp2107
a(S'w'
I2
tp2108
a(S'no_vo'
I10
tp2109
a(S'w'
I13
tp2110
a(S'tr_tl'
I171
tp2111
a(S'w'
I1
tp2112
a(S'tr_ll'
I1
tp2113
a(S'w'
I1
tp2114
a(S'tr_lr'
I127
tp2115
a(S'w'
I24
tp2116
a(S'p2_tl'
I213
tp2117
a(S'w'
I2
tp2118
a(S'p2_ll'
I1
tp2119
a(S'w'
I2
tp2120
a(S'p2_vo'
I6
tp2121
a(S'w'
I24
tp2122
a(S'p1_tl'
I29
tp2123
a(S'w'
I2
tp2124
a(S'p1_ll'
I1
tp2125
a(S'w'
I2
tp2126
a(S'p1_vo'
I6
tp2127
a(S'w'
I649
tp2128
a(S'no_vo'
I8
tp2129
a(S'w'
I747
tp2130
a(S'no_vo'
I6
tp2131
a(S'w'
I721
tp2132
a(S'no_vo'
I4
tp2133
a(S'w'
I733
tp2134
a(S'no_vo'
I2
tp2135
a(S'w'
I734
tp2136
a(S'no_vo'
I0
tp2137
a(S'w'
I12
tp2138
a(S'p2_vo'
I5
tp2139
a(S'w'
I7
tp2140
a(S'p1_vo'
I5
tp2141
a(S'w'
I2204
tp2142
a(S'w'
I3
tp2143
a(S'p2_vo'
I1
tp2144
a(S'w'
I18
tp2145
a(S'w'
I3
tp2146
a(S'p1_vo'
I1
tp2147
a(S'w'
I1440
tp2148
a(S'tr_lr'
I0
tp2149
a(S'w'
I1455
tp2150
a(S'ch_no'
I1
tp2151
a(S'ch_tr'
I1
tp2152
a(S'ch_p2'
I1
tp2153
a(S'ch_p1'
I1
tp2154
a(S'ch_no'
I1
tp2155
a(S'ch_tr'
I1
tp2156
a(S'ch_p2'
I1
tp2157
a(S'ch_p1'
I1
tp2158
a(S'w'
I7
tp2159
a(S'no_np'
I2
tp2160
a(S'no_ll'
I1
tp2161
a(S'w'
I1
tp2162
a(S'no_vo'
I2
tp2163
a(S'w'
I11
tp2164
a(S'tr_tl'
I124
tp2165
a(S'w'
I2
tp2166
a(S'tr_ll'
I1
tp2167
a(S'w'
I1
tp2168
a(S'tr_lr'
I127
tp2169
a(S'w'
I24
tp2170
a(S'p2_tl'
I190
tp2171
a(S'w'
I1
tp2172
a(S'p2_ll'
I1
tp2173
a(S'w'
I3
tp2174
a(S'p2_vo'
I6
tp2175
a(S'w'
I24
tp2176
a(S'p1_tl'
I254
tp2177
a(S'w'
I2
tp2178
a(S'p1_ll'
I1
tp2179
a(S'p1_th'
I0
tp2180
a(S'w'
I2
tp2181
a(S'p1_vo'
I6
tp2182
a(S'w'
I650
tp2183
a(S'no_vo'
I0
tp2184
a(S'w'
I2946
tp2185
a(S'p2_vo'
I5
tp2186
a(S'w'
I7
tp2187
a(S'p1_vo'
I5
tp2188
a(S'w'
I2205
tp2189
a(S'w'
I4
tp2190
a(S'p2_vo'
I1
tp2191
a(S'w'
I17
tp2192
a(S'w'
I4
tp2193
a(S'p1_vo'
I1
tp2194
a(S'w'
I1426
tp2195
a(S'tr_lr'
I0
tp2196
a(S'w'
I1468
tp2197
a(S'ch_no'
I1
tp2198
a(S'ch_tr'
I1
tp2199
a(S'ch_p2'
I1
tp2200
a(S'ch_p1'
I1
tp2201
a(S'w'
I1
tp2202
a(S'ch_no'
I1
tp2203
a(S'ch_tr'
I1
tp2204
a(S'ch_p2'
I1
tp2205
a(S'ch_p1'
I1
tp2206
a(S'w'
I6
tp2207
a(S'no_np'
I6
tp2208
a(S'no_ll'
I1
tp2209
a(S'w'
I2
tp2210
a(S'no_vo'
I10
tp2211
a(S'w'
I13
tp2212
a(S'tr_tl'
I58
tp2213
a(S'w'
I1
tp2214
a(S'tr_ll'
I1
tp2215
a(S'tr_th'
I2
tp2216
a(S'w'
I1
tp2217
a(S'tr_lr'
I127
tp2218
a(S'w'
I25
tp2219
a(S'p2_tl'
I29
tp2220
a(S'w'
I1
tp2221
a(S'p2_ll'
I1
tp2222
a(S'p2_th'
I1
tp2223
a(S'w'
I2
tp2224
a(S'p2_vo'
I6
tp2225
a(S'w'
I25
tp2226
a(S'p1_tl'
I124
tp2227
a(S'w'
I1
tp2228
a(S'p1_ll'
I1
tp2229
a(S'p1_th'
I1
tp2230
a(S'w'
I2
tp2231
a(S'p1_vo'
I6
tp2232
a(S'w'
I649
tp2233
a(S'no_vo'
I8
tp2234
a(S'w'
I747
tp2235
a(S'no_vo'
I6
tp2236
a(S'w'
I721
tp2237
a(S'no_vo'
I4
tp2238
a(S'w'
I734
tp2239
a(S'no_vo'
I2
tp2240
a(S'w'
I733
tp2241
a(S'no_vo'
I0
tp2242
a(S'w'
I12
tp2243
a(S'p2_vo'
I5
tp2244
a(S'w'
I7
tp2245
a(S'p1_vo'
I5
tp2246
a(S'w'
I720
tp2247
a(S'ch_no'
I1
tp2248
a(S'ch_tr'
I1
tp2249
a(S'ch_p2'
I1
tp2250
a(S'ch_p1'
I1
tp2251
a(S'w'
I1
tp2252
a(S'ch_no'
I1
tp2253
a(S'ch_tr'
I1
tp2254
a(S'ch_p2'
I1
tp2255
a(S'ch_p1'
I1
tp2256
a(S'w'
I6
tp2257
a(S'no_np'
I2
tp2258
a(S'no_ll'
I1
tp2259
a(S'w'
I2
tp2260
a(S'no_vo'
I2
tp2261
a(S'w'
I720
tp2262
a(S'no_vo'
I0
tp2263
a(S'w'
I755
tp2264
a(S'w'
I3
tp2265
a(S'p2_vo'
I1
tp2266
a(S'w'
I18
tp2267
a(S'w'
I3
tp2268
a(S'p1_vo'
I1
tp2269
a(S'w'
I1440
tp2270
a(S'tr_lr'
I0
tp2271
a(S'w'
I1453
tp2272
a(S'no_np'
I0
tp2273
a(S'no_ll'
I1
tp2274
a(S'w'
I2
tp2275
a(S'no_vo'
I2
tp2276
a(S'w'
I11
tp2277
a(S'tr_tl'
I26
tp2278
a(S'w'
I1
tp2279
a(S'tr_ll'
I1
tp2280
a(S'w'
I1
tp2281
a(S'tr_lr'
I127
tp2282
a(S'w'
I25
tp2283
a(S'p2_tl'
I13
tp2284
a(S'w'
I1
tp2285
a(S'p2_ll'
I1
tp2286
a(S'w'
I2
tp2287
a(S'p2_vo'
I6
tp2288
a(S'w'
I25
tp2289
a(S'p1_tl'
I103
tp2290
a(S'w'
I1
tp2291
a(S'p1_ll'
I1
tp2292
a(S'w'
I2
tp2293
a(S'p1_vo'
I6
tp2294
a(S'w'
I660
tp2295
a(S'no_vo'
I0
tp2296
a(S'w'
I2945
tp2297
a(S'p2_vo'
I5
tp2298
a(S'w'
I7
tp2299
a(S'p1_vo'
I5
tp2300
a(S'w'
I730
tp2301
a(S'ch_no'
I1
tp2302
a(S'ch_tr'
I1
tp2303
a(S'ch_p2'
I1
tp2304
a(S'ch_p1'
I1
tp2305
a(S'w'
I1
tp2306
a(S'ch_no'
I1
tp2307
a(S'ch_tr'
I1
tp2308
a(S'ch_p2'
I1
tp2309
a(S'ch_p1'
I1
tp2310
a(S'w'
I6
tp2311
a(S'no_ll'
I1
tp2312
a(S'w'
I2
tp2313
a(S'no_vo'
I2
tp2314
a(S'w'
I711
tp2315
a(S'no_vo'
I0
tp2316
a(S'w'
I755
tp2317
a(S'w'
I4
tp2318
a(S'p2_vo'
I1
tp2319
a(S'w'
I17
tp2320
a(S'w'
I4
tp2321
a(S'p1_vo'
I1
tp2322
a(S'w'
I1427
tp2323
a(S'tr_lr'
I0
tp2324
a(S'w'
I1467
tp2325
a(S'ch_no'
I1
tp2326
a(S'ch_tr'
I1
tp2327
a(S'ch_p2'
I1
tp2328
a(S'ch_p1'
I1
tp2329
a(S'w'
I1
tp2330
a(S'ch_no'
I1
tp2331
a(S'ch_tr'
I1
tp2332
a(S'ch_p2'
I1
tp2333
a(S'ch_p1'
I1
tp2334
a(S'w'
I6
tp2335
a(S'no_np'
I6
tp2336
a(S'w'
I1
tp2337
a(S'no_ll'
I1
tp2338
a(S'w'
I1
tp2339
a(S'no_vo'
I10
tp2340
a(S'w'
I11
tp2341
a(S'tr_tl'
I252
tp2342
a(S'w'
I2
tp2343
a(S'tr_ll'
I1
tp2344
a(S'tr_th'
I1
tp2345
a(S'tr_lr'
I127
tp2346
a(S'w'
I25
tp2347
a(S'p2_tl'
I254
tp2348
a(S'w'
I1
tp2349
a(S'p2_ll'
I1
tp2350
a(S'p2_th'
I0
tp2351
a(S'w'
I2
tp2352
a(S'p2_vo'
I6
tp2353
a(S'w'
I25
tp2354
a(S'p1_tl'
I83
tp2355
a(S'w'
I1
tp2356
a(S'p1_ll'
I1
tp2357
a(S'w'
I3
tp2358
a(S'p1_vo'
I6
tp2359
a(S'w'
I650
tp2360
a(S'no_vo'
I8
tp2361
a(S'w'
I747
tp2362
a(S'no_vo'
I6
tp2363
a(S'w'
I721
tp2364
a(S'no_vo'
I4
tp2365
a(S'w'
I734
tp2366
a(S'no_vo'
I2
tp2367
a(S'w'
I733
tp2368
a(S'no_vo'
I0
tp2369
a(S'w'
I13
tp2370
a(S'p2_vo'
I5
tp2371
a(S'w'
I6
tp2372
a(S'p1_vo'
I5
tp2373
a(S'w'
I2204
tp2374
a(S'w'
I4
tp2375
a(S'p2_vo'
I1
tp2376
a(S'w'
I17
tp2377
a(S'w'
I4
tp2378
a(S'p1_vo'
I1
tp2379
a(S'w'
I1439
tp2380
a(S'tr_lr'
I0
tp2381
a(S'w'
I1467
tp2382
a(S'ch_no'
I1
tp2383
a(S'ch_tr'
I1
tp2384
a(S'ch_p2'
I1
tp2385
a(S'ch_p1'
I1
tp2386
a(S'w'
I1
tp2387
a(S'ch_no'
I1
tp2388
a(S'ch_tr'
I1
tp2389
a(S'ch_p2'
I1
tp2390
a(S'ch_p1'
I1
tp2391
a(S'w'
I6
tp2392
a(S'no_np'
I2
tp2393
a(S'no_ll'
I1
tp2394
a(S'w'
I2
tp2395
a(S'no_vo'
I2
tp2396
a(S'w'
I34
tp2397
a(S'tr_tl'
I124
tp2398
a(S'w'
I2
tp2399
a(S'tr_ll'
I1
tp2400
a(S'tr_lr'
I127
tp2401
a(S'w'
I45
tp2402
a(S'p2_tl'
I190
tp2403
a(S'w'
I2
tp2404
a(S'p2_ll'
I1
tp2405
a(S'w'
I2
tp2406
a(S'p2_vo'
I6
tp2407
a(S'w'
I45
tp2408
a(S'p1_tl'
I254
tp2409
a(S'w'
I2
tp2410
a(S'p1_ll'
I1
tp2411
a(S'p1_th'
I0
tp2412
a(S'w'
I2
tp2413
a(S'p1_vo'
I6
tp2414
a(S'w'
I574
tp2415
a(S'no_vo'
I0
tp2416
a(S'w'
I2223
tp2417
a(S'w'
I4
tp2418
a(S'p2_vo'
I1
tp2419
a(S'w'
I17
tp2420
a(S'w'
I4
tp2421
a(S'p1_vo'
I1
tp2422
a(S'w'
I692
tp2423
a(S'tr_lr'
I0
tp2424
a(S'w'
I753
tp2425
a(S'tr_ll'
I1
tp2426
a(S'w'
I1
tp2427
a(S'tr_lr'
I127
tp2428
a(S'w'
I24
tp2429
a(S'w'
I1
tp2430
a(S'p2_ll'
I1
tp2431
a(S'w'
I3
tp2432
a(S'p2_vo'
I6
tp2433
a(S'w'
I24
tp2434
a(S'w'
I2
tp2435
a(S'p1_ll'
I1
tp2436
a(S'w'
I2
tp2437
a(S'p1_vo'
I6
tp2438
a(S'w'
I2876
tp2439
a(S'w'
I4
tp2440
a(S'p2_vo'
I1
tp2441
a(S'w'
I17
tp2442
a(S'w'
I4
tp2443
a(S'p1_vo'
I1
tp2444
a(S'w'
I692
tp2445
a(S'tr_lr'
I0
tp2446
a(S'w'
I733
tp2447
a(S'ch_no'
I1
tp2448
a(S'ch_tr'
I1
tp2449
a(S'ch_p2'
I1
tp2450
a(S'ch_p1'
I1
tp2451
a(S'w'
I1
tp2452
a(S'ch_no'
I1
tp2453
a(S'ch_tr'
I1
tp2454
a(S'ch_p2'
I1
tp2455
a(S'ch_p1'
I1
tp2456
a(S'w'
I6
tp2457
a(S'no_np'
I6
tp2458
a(S'no_ll'
I1
tp2459
a(S'w'
I2
tp2460
a(S'no_vo'
I10
tp2461
a(S'w'
I19
tp2462
a(S'tr_tl'
I64
tp2463
a(S'w'
I1
tp2464
a(S'tr_ll'
I1
tp2465
a(S'w'
I1
tp2466
a(S'tr_lr'
I127
tp2467
a(S'w'
I28
tp2468
a(S'p2_tl'
I160
tp2469
a(S'w'
I1
tp2470
a(S'p2_ll'
I1
tp2471
a(S'w'
I3
tp2472
a(S'p2_vo'
I6
tp2473
a(S'w'
I27
tp2474
a(S'p1_tl'
I213
tp2475
a(S'w'
I2
tp2476
a(S'p1_ll'
I1
tp2477
a(S'w'
I2
tp2478
a(S'p1_vo'
I6
tp2479
a(S'w'
I637
tp2480
a(S'no_vo'
I8
tp2481
a(S'w'
I746
tp2482
a(S'no_vo'
I6
tp2483
a(S'w'
I721
tp2484
a(S'no_vo'
I4
tp2485
a(S'w'
I734
tp2486
a(S'no_vo'
I2
tp2487
a(S'w'
I734
tp2488
a(S'no_vo'
I0
tp2489
a(S'w'
I12
tp2490
a(S'p2_vo'
I5
tp2491
a(S'w'
I7
tp2492
a(S'p1_vo'
I5
tp2493
a(S'w'
I2203
tp2494
a(S'w'
I4
tp2495
a(S'p2_vo'
I1
tp2496
a(S'w'
I17
tp2497
a(S'w'
I4
tp2498
a(S'p1_vo'
I1
tp2499
a(S'w'
I1440
tp2500
a(S'tr_lr'
I0
tp2501
a(S'w'
I1453
tp2502
a(S'no_np'
I0
tp2503
a(S'no_ll'
I1
tp2504
a(S'w'
I2
tp2505
a(S'no_vo'
I10
tp2506
a(S'w'
I13
tp2507
a(S'tr_tl'
I124
tp2508
a(S'w'
I1
tp2509
a(S'tr_ll'
I1
tp2510
a(S'w'
I1
tp2511
a(S'tr_lr'
I127
tp2512
a(S'w'
I24
tp2513
a(S'p2_tl'
I190
tp2514
a(S'w'
I2
tp2515
a(S'p2_ll'
I1
tp2516
a(S'w'
I2
tp2517
a(S'p2_vo'
I6
tp2518
a(S'w'
I25
tp2519
a(S'p1_tl'
I254
tp2520
a(S'w'
I1
tp2521
a(S'p1_ll'
I1
tp2522
a(S'w'
I2
tp2523
a(S'p1_vo'
I6
tp2524
a(S'w'
I657
tp2525
a(S'no_vo'
I8
tp2526
a(S'w'
I734
tp2527
a(S'no_vo'
I6
tp2528
a(S'w'
I734
tp2529
a(S'no_vo'
I4
tp2530
a(S'w'
I734
tp2531
a(S'no_vo'
I2
tp2532
a(S'w'
I733
tp2533
a(S'no_vo'
I0
tp2534
a(S'w'
I12
tp2535
a(S'p2_vo'
I5
tp2536
a(S'w'
I7
tp2537
a(S'p1_vo'
I5
tp2538
a(S'w'
I733
tp2539
a(S'ch_no'
I1
tp2540
a(S'ch_tr'
I1
tp2541
a(S'ch_p2'
I1
tp2542
a(S'ch_p1'
I1
tp2543
a(S'w'
I1
tp2544
a(S'ch_no'
I1
tp2545
a(S'ch_tr'
I1
tp2546
a(S'ch_p2'
I1
tp2547
a(S'ch_p1'
I1
tp2548
a(S'w'
I6
tp2549
a(S'no_np'
I2
tp2550
a(S'no_ll'
I1
tp2551
a(S'w'
I2
tp2552
a(S'no_vo'
I2
tp2553
a(S'w'
I707
tp2554
a(S'no_vo'
I0
tp2555
a(S'w'
I755
tp2556
a(S'w'
I3
tp2557
a(S'p2_vo'
I1
tp2558
a(S'w'
I18
tp2559
a(S'w'
I3
tp2560
a(S'p1_vo'
I1
tp2561
a(S'w'
I1427
tp2562
a(S'tr_lr'
I0
tp2563
a(S'w'
I1468
tp2564
a(S'ch_no'
I1
tp2565
a(S'ch_tr'
I1
tp2566
a(S'ch_p2'
I1
tp2567
a(S'ch_p1'
I1
tp2568
a(S'w'
I1
tp2569
a(S'ch_no'
I1
tp2570
a(S'ch_tr'
I1
tp2571
a(S'ch_p2'
I1
tp2572
a(S'ch_p1'
I1
tp2573
a(S'w'
I6
tp2574
a(S'no_np'
I6
tp2575
a(S'no_ll'
I1
tp2576
a(S'w'
I2
tp2577
a(S'no_vo'
I10
tp2578
a(S'w'
I20
tp2579
a(S'tr_ll'
I1
tp2580
a(S'w'
I1
tp2581
a(S'tr_lr'
I127
tp2582
a(S'w'
I29
tp2583
a(S'w'
I1
tp2584
a(S'p2_ll'
I1
tp2585
a(S'w'
I3
tp2586
a(S'p2_vo'
I6
tp2587
a(S'w'
I29
tp2588
a(S'w'
I1
tp2589
a(S'p1_ll'
I1
tp2590
a(S'w'
I3
tp2591
a(S'p1_vo'
I6
tp2592
a(S'w'
I633
tp2593
a(S'no_vo'
I8
tp2594
a(S'w'
I747
tp2595
a(S'no_vo'
I6
tp2596
a(S'w'
I720
tp2597
a(S'no_vo'
I4
tp2598
a(S'w'
I734
tp2599
a(S'no_vo'
I2
tp2600
a(S'w'
I24
tp2601
a(S'w'
I4
tp2602
a(S'p2_vo'
I1
tp2603
a(S'w'
I17
tp2604
a(S'w'
I4
tp2605
a(S'p1_vo'
I1
tp2606
a(S'w'
I685
tp2607
a(S'no_vo'
I0
tp2608
a(S'w'
I7
tp2609
a(S'tr_lr'
I0
tp2610
a(S'w'
I738
tp2611
a(S'tr_ll'
I1
tp2612
a(S'tr_lr'
I127
tp2613
a(S'w'
I25
tp2614
a(S'w'
I1
tp2615
a(S'p2_ll'
I1
tp2616
a(S'w'
I2
tp2617
a(S'p2_vo'
I6
tp2618
a(S'w'
I25
tp2619
a(S'w'
I1
tp2620
a(S'p1_ll'
I1
tp2621
a(S'w'
I3
tp2622
a(S'p1_vo'
I6
tp2623
a(S'w'
I2902
tp2624
a(S'w'
I4
tp2625
a(S'p2_vo'
I1
tp2626
a(S'w'
I17
tp2627
a(S'w'
I4
tp2628
a(S'p1_vo'
I1
tp2629
a(S'w'
I679
tp2630
a(S'tr_lr'
I0
tp2631
a(S'w'
I734
tp2632
a(S'ch_no'
I1
tp2633
a(S'ch_tr'
I1
tp2634
a(S'ch_p2'
I1
tp2635
a(S'ch_p1'
I1
tp2636
a(S'ch_no'
I1
tp2637
a(S'ch_tr'
I1
tp2638
a(S'ch_p2'
I1
tp2639
a(S'ch_p1'
I1
tp2640
a(S'w'
I7
tp2641
a(S'no_np'
I2
tp2642
a(S'no_ll'
I1
tp2643
a(S'w'
I1
tp2644
a(S'no_vo'
I2
tp2645
a(S'w'
I19
tp2646
a(S'tr_tl'
I29
tp2647
a(S'w'
I2
tp2648
a(S'tr_ll'
I1
tp2649
a(S'tr_lr'
I127
tp2650
a(S'w'
I28
tp2651
a(S'p2_tl'
I142
tp2652
a(S'w'
I2
tp2653
a(S'p2_ll'
I1
tp2654
a(S'w'
I2
tp2655
a(S'p2_vo'
I6
tp2656
a(S'w'
I28
tp2657
a(S'p1_tl'
I190
tp2658
a(S'w'
I1
tp2659
a(S'p1_ll'
I1
tp2660
a(S'w'
I3
tp2661
a(S'p1_vo'
I6
tp2662
a(S'w'
I635
tp2663
a(S'no_vo'
I0
tp2664
a(S'w'
I2946
tp2665
a(S'p2_vo'
I5
tp2666
a(S'w'
I7
tp2667
a(S'p1_vo'
I5
tp2668
a(S'w'
I2205
tp2669
a(S'w'
I4
tp2670
a(S'p2_vo'
I1
tp2671
a(S'w'
I17
tp2672
a(S'w'
I4
tp2673
a(S'p1_vo'
I1
tp2674
a(S'w'
I1426
tp2675
a(S'tr_lr'
I0
tp2676
a(S'w'
I1468
tp2677
a(S'ch_no'
I1
tp2678
a(S'ch_tr'
I1
tp2679
a(S'ch_p2'
I1
tp2680
a(S'ch_p1'
I1
tp2681
a(S'w'
I1
tp2682
a(S'ch_no'
I1
tp2683
a(S'ch_tr'
I1
tp2684
a(S'ch_p2'
I1
tp2685
a(S'ch_p1'
I1
tp2686
a(S'w'
I6
tp2687
a(S'no_np'
I6
tp2688
a(S'no_ll'
I1
tp2689
a(S'w'
I2
tp2690
a(S'no_vo'
I10
tp2691
a(S'w'
I13
tp2692
a(S'tr_tl'
I124
tp2693
a(S'w'
I1
tp2694
a(S'tr_ll'
I1
tp2695
a(S'w'
I1
tp2696
a(S'tr_lr'
I127
tp2697
a(S'w'
I24
tp2698
a(S'p2_tl'
I190
tp2699
a(S'w'
I2
tp2700
a(S'p2_ll'
I1
tp2701
a(S'w'
I2
tp2702
a(S'p2_vo'
I6
tp2703
a(S'w'
I25
tp2704
a(S'p1_tl'
I254
tp2705
a(S'w'
I1
tp2706
a(S'p1_ll'
I1
tp2707
a(S'w'
I2
tp2708
a(S'p1_vo'
I6
tp2709
a(S'w'
I649
tp2710
a(S'no_vo'
I8
tp2711
a(S'w'
I747
tp2712
a(S'no_vo'
I6
tp2713
a(S'w'
I721
tp2714
a(S'no_vo'
I4
tp2715
a(S'w'
I734
tp2716
a(S'no_vo'
I2
tp2717
a(S'w'
I733
tp2718
a(S'no_vo'
I0
tp2719
a(S'w'
I12
tp2720
a(S'p2_vo'
I5
tp2721
a(S'w'
I7
tp2722
a(S'p1_vo'
I5
tp2723
a(S'w'
I720
tp2724
a(S'ch_no'
I1
tp2725
a(S'ch_tr'
I1
tp2726
a(S'ch_p2'
I1
tp2727
a(S'ch_p1'
I1
tp2728
a(S'w'
I1
tp2729
a(S'ch_no'
I1
tp2730
a(S'ch_tr'
I1
tp2731
a(S'ch_p2'
I1
tp2732
a(S'ch_p1'
I1
tp2733
a(S'w'
I6
tp2734
a(S'no_np'
I2
tp2735
a(S'no_ll'
I1
tp2736
a(S'w'
I2
tp2737
a(S'no_vo'
I2
tp2738
a(S'w'
I720
tp2739
a(S'no_vo'
I0
tp2740
a(S'w'
I755
tp2741
a(S'w'
I3
tp2742
a(S'p2_vo'
I1
tp2743
a(S'w'
I18
tp2744
a(S'w'
I3
tp2745
a(S'p1_vo'
I1
tp2746
a(S'w'
I1440
tp2747
a(S'tr_lr'
I0
tp2748
a(S'w'
I1453
tp2749
a(S'no_np'
I0
tp2750
a(S'no_ll'
I1
tp2751
a(S'w'
I2
tp2752
a(S'no_vo'
I2
tp2753
a(S'w'
I20
tp2754
a(S'tr_ll'
I1
tp2755
a(S'w'
I1
tp2756
a(S'tr_lr'
I127
tp2757
a(S'w'
I29
tp2758
a(S'w'
I1
tp2759
a(S'p2_ll'
I1
tp2760
a(S'w'
I3
tp2761
a(S'p2_vo'
I6
tp2762
a(S'w'
I29
tp2763
a(S'w'
I2
tp2764
a(S'p1_ll'
I1
tp2765
a(S'w'
I2
tp2766
a(S'p1_vo'
I6
tp2767
a(S'w'
I642
tp2768
a(S'no_vo'
I0
tp2769
a(S'w'
I2223
tp2770
a(S'w'
I4
tp2771
a(S'p2_vo'
I1
tp2772
a(S'w'
I17
tp2773
a(S'w'
I4
tp2774
a(S'p1_vo'
I1
tp2775
a(S'w'
I692
tp2776
a(S'tr_lr'
I0
tp2777
a(S'w'
I742
tp2778
a(S'ch_no'
I1
tp2779
a(S'ch_tr'
I1
tp2780
a(S'ch_p2'
I1
tp2781
a(S'ch_p1'
I1
tp2782
a(S'w'
I1
tp2783
a(S'ch_no'
I1
tp2784
a(S'ch_tr'
I1
tp2785
a(S'ch_p2'
I1
tp2786
a(S'ch_p1'
I1
tp2787
a(S'w'
I6
tp2788
a(S'no_ll'
I1
tp2789
a(S'w'
I2
tp2790
a(S'no_vo'
I2
tp2791
a(S'w'
I12
tp2792
a(S'tr_ll'
I1
tp2793
a(S'w'
I1
tp2794
a(S'tr_lr'
I127
tp2795
a(S'w'
I24
tp2796
a(S'w'
I2
tp2797
a(S'p2_ll'
I1
tp2798
a(S'w'
I2
tp2799
a(S'p2_vo'
I6
tp2800
a(S'w'
I25
tp2801
a(S'w'
I1
tp2802
a(S'p1_ll'
I1
tp2803
a(S'w'
I2
tp2804
a(S'p1_vo'
I6
tp2805
a(S'w'
I642
tp2806
a(S'no_vo'
I0
tp2807
a(S'w'
I2224
tp2808
a(S'w'
I3
tp2809
a(S'p2_vo'
I1
tp2810
a(S'w'
I18
tp2811
a(S'w'
I3
tp2812
a(S'p1_vo'
I1
tp2813
a(S'w'
I693
tp2814
a(S'tr_lr'
I0
tp2815
a(S'w'
I733
tp2816
a(S'ch_no'
I1
tp2817
a(S'ch_tr'
I1
tp2818
a(S'ch_p2'
I1
tp2819
a(S'ch_p1'
I1
tp2820
a(S'w'
I1
tp2821
a(S'ch_no'
I1
tp2822
a(S'ch_tr'
I1
tp2823
a(S'ch_p2'
I1
tp2824
a(S'ch_p1'
I1
tp2825
a(S'w'
I6
tp2826
a(S'no_np'
I6
tp2827
a(S'w'
I1
tp2828
a(S'no_ll'
I1
tp2829
a(S'w'
I1
tp2830
a(S'no_vo'
I10
tp2831
a(S'w'
I19
tp2832
a(S'tr_tl'
I13
tp2833
a(S'w'
I2
tp2834
a(S'tr_ll'
I1
tp2835
a(S'tr_lr'
I127
tp2836
a(S'w'
I28
tp2837
a(S'p2_tl'
I134
tp2838
a(S'w'
I1
tp2839
a(S'p2_ll'
I1
tp2840
a(S'w'
I3
tp2841
a(S'p2_vo'
I6
tp2842
a(S'w'
I28
tp2843
a(S'p1_tl'
I179
tp2844
a(S'w'
I1
tp2845
a(S'p1_ll'
I1
tp2846
a(S'w'
I2
tp2847
a(S'p1_vo'
I6
tp2848
a(S'w'
I636
tp2849
a(S'no_vo'
I8
tp2850
a(S'w'
I747
tp2851
a(S'no_vo'
I6
tp2852
a(S'w'
I721
tp2853
a(S'no_vo'
I4
tp2854
a(S'w'
I734
tp2855
a(S'no_vo'
I2
tp2856
a(S'w'
I733
tp2857
a(S'no_vo'
I0
tp2858
a(S'w'
I12
tp2859
a(S'p2_vo'
I5
tp2860
a(S'w'
I7
tp2861
a(S'p1_vo'
I5
tp2862
a(S'w'
I2204
tp2863
a(S'w'
I3
tp2864
a(S'p2_vo'
I1
tp2865
a(S'w'
I18
tp2866
a(S'w'
I3
tp2867
a(S'p1_vo'
I1
tp2868
a(S'w'
I1440
tp2869
a(S'tr_lr'
I0
tp2870
a(S'w'
I1467
tp2871
a(S'ch_no'
I1
tp2872
a(S'ch_tr'
I1
tp2873
a(S'ch_p2'
I1
tp2874
a(S'ch_p1'
I1
tp2875
a(S'w'
I1
tp2876
a(S'ch_no'
I1
tp2877
a(S'ch_tr'
I1
tp2878
a(S'ch_p2'
I1
tp2879
a(S'ch_p1'
I1
tp2880
a(S'w'
I6
tp2881
a(S'no_np'
I2
tp2882
a(S'no_ll'
I1
tp2883
a(S'w'
I1
tp2884
a(S'no_vo'
I2
tp2885
a(S'w'
I14
tp2886
a(S'tr_tl'
I124
tp2887
a(S'w'
I1
tp2888
a(S'tr_ll'
I1
tp2889
a(S'w'
I1
tp2890
a(S'tr_lr'
I127
tp2891
a(S'w'
I24
tp2892
a(S'p2_tl'
I190
tp2893
a(S'w'
I1
tp2894
a(S'p2_ll'
I1
tp2895
a(S'w'
I3
tp2896
a(S'p2_vo'
I6
tp2897
a(S'w'
I24
tp2898
a(S'p1_tl'
I254
tp2899
a(S'w'
I2
tp2900
a(S'p1_ll'
I1
tp2901
a(S'w'
I2
tp2902
a(S'p1_vo'
I6
tp2903
a(S'w'
I637
tp2904
a(S'no_vo'
I0
tp2905
a(S'w'
I2946
tp2906
a(S'p2_vo'
I5
tp2907
a(S'w'
I6
tp2908
a(S'p1_vo'
I5
tp2909
a(S'w'
I2205
tp2910
a(S'w'
I4
tp2911
a(S'p2_vo'
I1
tp2912
a(S'w'
I17
tp2913
a(S'w'
I4
tp2914
a(S'p1_vo'
I1
tp2915
a(S'w'
I1427
tp2916
a(S'tr_lr'
I0
tp2917
a(S'w'
I1467
tp2918
a(S'ch_no'
I1
tp2919
a(S'ch_tr'
I1
tp2920
a(S'ch_p2'
I1
tp2921
a(S'ch_p1'
I1
tp2922
a(S'w'
I1
tp2923
a(S'ch_no'
I1
tp2924
a(S'ch_tr'
I1
tp2925
a(S'ch_p2'
I1
tp2926
a(S'ch_p1'
I1
tp2927
a(S'w'
I6
tp2928
a(S'no_np'
I6
tp2929
a(S'no_ll'
I1
tp2930
a(S'w'
I2
tp2931
a(S'no_vo'
I10
tp2932
a(S'w'
I13
tp2933
a(S'tr_tl'
I29
tp2934
a(S'w'
I1
tp2935
a(S'tr_ll'
I1
tp2936
a(S'w'
I1
tp2937
a(S'tr_lr'
I127
tp2938
a(S'w'
I24
tp2939
a(S'p2_tl'
I142
tp2940
a(S'w'
I2
tp2941
a(S'p2_ll'
I1
tp2942
a(S'w'
I2
tp2943
a(S'p2_vo'
I6
tp2944
a(S'w'
I25
tp2945
a(S'p1_tl'
I190
tp2946
a(S'w'
I1
tp2947
a(S'p1_ll'
I1
tp2948
a(S'w'
I2
tp2949
a(S'p1_vo'
I6
tp2950
a(S'w'
I650
tp2951
a(S'no_vo'
I8
tp2952
a(S'w'
I746
tp2953
a(S'no_vo'
I6
tp2954
a(S'w'
I721
tp2955
a(S'no_vo'
I4
tp2956
a(S'w'
I734
tp2957
a(S'no_vo'
I2
tp2958
a(S'w'
I734
tp2959
a(S'no_vo'
I0
tp2960
a(S'w'
I12
tp2961
a(S'p2_vo'
I5
tp2962
a(S'w'
I7
tp2963
a(S'p1_vo'
I5
tp2964
a(S'w'
I2203
tp2965
a(S'w'
I4
tp2966
a(S'p2_vo'
I1
tp2967
a(S'w'
I17
tp2968
a(S'w'
I4
tp2969
a(S'p1_vo'
I1
tp2970
a(S'w'
I1439
tp2971
a(S'tr_lr'
I0
tp2972
a(S'w'
I1454
tp2973
a(S'no_np'
I0
tp2974
a(S'no_ll'
I1
tp2975
a(S'w'
I2
tp2976
a(S'no_vo'
I10
tp2977
a(S'w'
I13
tp2978
a(S'tr_tl'
I124
tp2979
a(S'w'
I1
tp2980
a(S'tr_ll'
I1
tp2981
a(S'w'
I1
tp2982
a(S'tr_lr'
I127
tp2983
a(S'w'
I24
tp2984
a(S'p2_tl'
I190
tp2985
a(S'w'
I2
tp2986
a(S'p2_ll'
I1
tp2987
a(S'w'
I2
tp2988
a(S'p2_vo'
I6
tp2989
a(S'w'
I25
tp2990
a(S'p1_tl'
I254
tp2991
a(S'w'
I1
tp2992
a(S'p1_ll'
I1
tp2993
a(S'w'
I2
tp2994
a(S'p1_vo'
I6
tp2995
a(S'w'
I657
tp2996
a(S'no_vo'
I8
tp2997
a(S'w'
I734
tp2998
a(S'no_vo'
I6
tp2999
a(S'w'
I734
tp3000
a(S'no_vo'
I4
tp3001
a(S'w'
I734
tp3002
a(S'no_vo'
I2
tp3003
a(S'w'
I733
tp3004
a(S'no_vo'
I0
tp3005
a(S'w'
I12
tp3006
a(S'p2_vo'
I5
tp3007
a(S'w'
I7
tp3008
a(S'p1_vo'
I5
tp3009
a(S'w'
I733
tp3010
a(S'ch_no'
I1
tp3011
a(S'ch_tr'
I1
tp3012
a(S'ch_p2'
I1
tp3013
a(S'ch_p1'
I1
tp3014
a(S'w'
I1
tp3015
a(S'ch_no'
I1
tp3016
a(S'ch_tr'
I1
tp3017
a(S'ch_p2'
I1
tp3018
a(S'ch_p1'
I1
tp3019
a(S'w'
I6
tp3020
a(S'no_np'
I2
tp3021
a(S'no_ll'
I1
tp3022
a(S'w'
I2
tp3023
a(S'no_vo'
I2
tp3024
a(S'w'
I707
tp3025
a(S'no_vo'
I0
tp3026
a(S'w'
I755
tp3027
a(S'w'
I3
tp3028
a(S'p2_vo'
I1
tp3029
a(S'w'
I18
tp3030
a(S'w'
I3
tp3031
a(S'p1_vo'
I1
tp3032
a(S'w'
I1427
tp3033
a(S'tr_lr'
I0
tp3034
a(S'w'
I1468
tp3035
a(S'ch_no'
I1
tp3036
a(S'ch_tr'
I1
tp3037
a(S'ch_p2'
I1
tp3038
a(S'ch_p1'
I1
tp3039
a(S'w'
I1
tp3040
a(S'ch_no'
I1
tp3041
a(S'ch_tr'
I1
tp3042
a(S'ch_p2'
I1
tp3043
a(S'ch_p1'
I1
tp3044
a(S'w'
I6
tp3045
a(S'no_np'
I6
tp3046
a(S'no_ll'
I1
tp3047
a(S'w'
I2
tp3048
a(S'no_vo'
I10
tp3049
a(S'w'
I13
tp3050
a(S'tr_tl'
I64
tp3051
a(S'w'
I1
tp3052
a(S'tr_ll'
I1
tp3053
a(S'w'
I1
tp3054
a(S'tr_lr'
I127
tp3055
a(S'w'
I24
tp3056
a(S'p2_tl'
I160
tp3057
a(S'w'
I1
tp3058
a(S'p2_ll'
I1
tp3059
a(S'w'
I3
tp3060
a(S'p2_vo'
I6
tp3061
a(S'w'
I24
tp3062
a(S'p1_tl'
I213
tp3063
a(S'w'
I2
tp3064
a(S'p1_ll'
I1
tp3065
a(S'w'
I2
tp3066
a(S'p1_vo'
I6
tp3067
a(S'w'
I649
tp3068
a(S'no_vo'
I8
tp3069
a(S'w'
I747
tp3070
a(S'no_vo'
I6
tp3071
a(S'w'
I720
tp3072
a(S'no_vo'
I4
tp3073
a(S'w'
I734
tp3074
a(S'no_vo'
I2
tp3075
a(S'w'
I734
tp3076
a(S'no_vo'
I0
tp3077
a(S'w'
I12
tp3078
a(S'p2_vo'
I5
tp3079
a(S'w'
I7
tp3080
a(S'p1_vo'
I5
tp3081
a(S'w'
I2203
tp3082
a(S'w'
I4
tp3083
a(S'p2_vo'
I1
tp3084
a(S'w'
I17
tp3085
a(S'w'
I4
tp3086
a(S'p1_vo'
I1
tp3087
a(S'w'
I1440
tp3088
a(S'tr_lr'
I0
tp3089
a(S'w'
I1454
tp3090
a(S'ch_no'
I1
tp3091
a(S'ch_tr'
I1
tp3092
a(S'ch_p2'
I1
tp3093
a(S'ch_p1'
I1
tp3094
a(S'w'
I1
tp3095
a(S'ch_no'
I1
tp3096
a(S'ch_tr'
I1
tp3097
a(S'ch_p2'
I1
tp3098
a(S'ch_p1'
I1
tp3099
a(S'w'
I6
tp3100
a(S'no_np'
I2
tp3101
a(S'w'
I1
tp3102
a(S'no_ll'
I1
tp3103
a(S'w'
I1
tp3104
a(S'no_vo'
I2
tp3105
a(S'w'
I11
tp3106
a(S'tr_tl'
I29
tp3107
a(S'w'
I2
tp3108
a(S'tr_ll'
I1
tp3109
a(S'tr_lr'
I127
tp3110
a(S'w'
I25
tp3111
a(S'p2_tl'
I142
tp3112
a(S'w'
I1
tp3113
a(S'p2_ll'
I1
tp3114
a(S'w'
I2
tp3115
a(S'p2_vo'
I6
tp3116
a(S'w'
I25
tp3117
a(S'p1_tl'
I190
tp3118
a(S'w'
I1
tp3119
a(S'p1_ll'
I1
tp3120
a(S'w'
I3
tp3121
a(S'p1_vo'
I6
tp3122
a(S'w'
I650
tp3123
a(S'no_vo'
I0
tp3124
a(S'w'
I2946
tp3125
a(S'p2_vo'
I5
tp3126
a(S'w'
I7
tp3127
a(S'p1_vo'
I5
tp3128
a(S'w'
I2205
tp3129
a(S'w'
I4
tp3130
a(S'p2_vo'
I1
tp3131
a(S'w'
I17
tp3132
a(S'w'
I4
tp3133
a(S'p1_vo'
I1
tp3134
a(S'w'
I1426
tp3135
a(S'tr_lr'
I0
tp3136
a(S'w'
I1468
tp3137
a(S'ch_no'
I1
tp3138
a(S'ch_tr'
I1
tp3139
a(S'ch_p2'
I1
tp3140
a(S'ch_p1'
I1
tp3141
a(S'w'
I1
tp3142
a(S'ch_no'
I1
tp3143
a(S'ch_tr'
I1
tp3144
a(S'ch_p2'
I1
tp3145
a(S'ch_p1'
I1
tp3146
a(S'w'
I6
tp3147
a(S'no_np'
I6
tp3148
a(S'no_ll'
I1
tp3149
a(S'w'
I2
tp3150
a(S'no_vo'
I10
tp3151
a(S'w'
I13
tp3152
a(S'tr_tl'
I171
tp3153
a(S'w'
I1
tp3154
a(S'tr_ll'
I1
tp3155
a(S'w'
I1
tp3156
a(S'tr_lr'
I127
tp3157
a(S'w'
I24
tp3158
a(S'p2_tl'
I213
tp3159
a(S'w'
I2
tp3160
a(S'p2_ll'
I1
tp3161
a(S'w'
I2
tp3162
a(S'p2_vo'
I6
tp3163
a(S'w'
I25
tp3164
a(S'p1_tl'
I29
tp3165
a(S'w'
I1
tp3166
a(S'p1_ll'
I1
tp3167
a(S'p1_th'
I1
tp3168
a(S'w'
I2
tp3169
a(S'p1_vo'
I6
tp3170
a(S'w'
I649
tp3171
a(S'no_vo'
I8
tp3172
a(S'w'
I747
tp3173
a(S'no_vo'
I6
tp3174
a(S'w'
I721
tp3175
a(S'no_vo'
I4
tp3176
a(S'w'
I734
tp3177
a(S'no_vo'
I2
tp3178
a(S'w'
I733
tp3179
a(S'no_vo'
I0
tp3180
a(S'w'
I12
tp3181
a(S'p2_vo'
I5
tp3182
a(S'w'
I7
tp3183
a(S'p1_vo'
I5
tp3184
a(S'w'
I720
tp3185
a(S'ch_no'
I1
tp3186
a(S'ch_tr'
I1
tp3187
a(S'ch_p2'
I1
tp3188
a(S'ch_p1'
I1
tp3189
a(S'w'
I1
tp3190
a(S'ch_no'
I1
tp3191
a(S'ch_tr'
I1
tp3192
a(S'ch_p2'
I1
tp3193
a(S'ch_p1'
I1
tp3194
a(S'w'
I6
tp3195
a(S'no_np'
I2
tp3196
a(S'no_ll'
I1
tp3197
a(S'w'
I2
tp3198
a(S'no_vo'
I2
tp3199
a(S'w'
I720
tp3200
a(S'no_vo'
I0
tp3201
a(S'w'
I755
tp3202
a(S'w'
I3
tp3203
a(S'p2_vo'
I1
tp3204
a(S'w'
I18
tp3205
a(S'w'
I3
tp3206
a(S'p1_vo'
I1
tp3207
a(S'w'
I1440
tp3208
a(S'tr_lr'
I0
tp3209
a(S'w'
I1453
tp3210
a(S'no_np'
I0
tp3211
a(S'no_ll'
I1
tp3212
a(S'w'
I2
tp3213
a(S'no_vo'
I2
tp3214
a(S'w'
I11
tp3215
a(S'tr_tl'
I147
tp3216
a(S'w'
I1
tp3217
a(S'tr_ll'
I1
tp3218
a(S'w'
I1
tp3219
a(S'tr_lr'
I127
tp3220
a(S'w'
I24
tp3221
a(S'p2_tl'
I201
tp3222
a(S'w'
I2
tp3223
a(S'p2_ll'
I1
tp3224
a(S'w'
I2
tp3225
a(S'p2_vo'
I6
tp3226
a(S'w'
I25
tp3227
a(S'p1_tl'
I13
tp3228
a(S'w'
I1
tp3229
a(S'p1_ll'
I1
tp3230
a(S'w'
I2
tp3231
a(S'p1_vo'
I6
tp3232
a(S'w'
I659
tp3233
a(S'no_vo'
I0
tp3234
a(S'w'
I2946
tp3235
a(S'p2_vo'
I5
tp3236
a(S'w'
I7
tp3237
a(S'p1_vo'
I5
tp3238
a(S'w'
I730
tp3239
a(S'ch_no'
I1
tp3240
a(S'ch_tr'
I1
tp3241
a(S'ch_p2'
I1
tp3242
a(S'ch_p1'
I1
tp3243
a(S'w'
I1
tp3244
a(S'ch_no'
I1
tp3245
a(S'ch_tr'
I1
tp3246
a(S'ch_p2'
I1
tp3247
a(S'ch_p1'
I1
tp3248
a(S'w'
I6
tp3249
a(S'no_ll'
I1
tp3250
a(S'w'
I2
tp3251
a(S'no_vo'
I2
tp3252
a(S'w'
I711
tp3253
a(S'no_vo'
I0
tp3254
a(S'w'
I755
tp3255
a(S'w'
I4
tp3256
a(S'p2_vo'
I1
tp3257
a(S'w'
I17
tp3258
a(S'w'
I4
tp3259
a(S'p1_vo'
I1
tp3260
a(S'w'
I1427
tp3261
a(S'tr_lr'
I0
tp3262
a(S'w'
I1467
tp3263
a(S'ch_no'
I1
tp3264
a(S'ch_tr'
I1
tp3265
a(S'ch_p2'
I1
tp3266
a(S'ch_p1'
I1
tp3267
a(S'w'
I1
tp3268
a(S'ch_no'
I1
tp3269
a(S'ch_tr'
I1
tp3270
a(S'ch_p2'
I1
tp3271
a(S'ch_p1'
I1
tp3272
a(S'w'
I6
tp3273
a(S'no_np'
I6
tp3274
a(S'no_ll'
I1
tp3275
a(S'w'
I2
tp3276
a(S'no_vo'
I10
tp3277
a(S'w'
I11
tp3278
a(S'tr_tl'
I124
tp3279
a(S'w'
I2
tp3280
a(S'tr_ll'
I1
tp3281
a(S'tr_lr'
I127
tp3282
a(S'w'
I25
tp3283
a(S'p2_tl'
I190
tp3284
a(S'w'
I1
tp3285
a(S'p2_ll'
I1
tp3286
a(S'w'
I2
tp3287
a(S'p2_vo'
I6
tp3288
a(S'w'
I25
tp3289
a(S'p1_tl'
I254
tp3290
a(S'w'
I1
tp3291
a(S'p1_ll'
I1
tp3292
a(S'p1_th'
I0
tp3293
a(S'w'
I3
tp3294
a(S'p1_vo'
I6
tp3295
a(S'w'
I650
tp3296
a(S'no_vo'
I8
tp3297
a(S'w'
I747
tp3298
a(S'no_vo'
I6
tp3299
a(S'w'
I721
tp3300
a(S'no_vo'
I4
tp3301
a(S'w'
I734
tp3302
a(S'no_vo'
I2
tp3303
a(S'w'
I733
tp3304
a(S'no_vo'
I0
tp3305
a(S'w'
I12
tp3306
a(S'p2_vo'
I5
tp3307
a(S'w'
I7
tp3308
a(S'p1_vo'
I5
tp3309
a(S'w'
I2204
tp3310
a(S'w'
I3
tp3311
a(S'p2_vo'
I1
tp3312
a(S'w'
I18
tp3313
a(S'w'
I3
tp3314
a(S'p1_vo'
I1
tp3315
a(S'w'
I1440
tp3316
a(S'tr_lr'
I0
tp3317
a(S'w'
I1467
tp3318
a(S'ch_no'
I1
tp3319
a(S'ch_tr'
I1
tp3320
a(S'ch_p2'
I1
tp3321
a(S'ch_p1'
I1
tp3322
a(S'w'
I1
tp3323
a(S'ch_no'
I1
tp3324
a(S'ch_tr'
I1
tp3325
a(S'ch_p2'
I1
tp3326
a(S'ch_p1'
I1
tp3327
a(S'w'
I6
tp3328
a(S'no_np'
I2
tp3329
a(S'no_ll'
I1
tp3330
a(S'w'
I1
tp3331
a(S'no_vo'
I2
tp3332
a(S'w'
I33
tp3333
a(S'tr_ll'
I1
tp3334
a(S'w'
I1
tp3335
a(S'tr_lr'
I127
tp3336
a(S'w'
I41
tp3337
a(S'w'
I1
tp3338
a(S'p2_ll'
I1
tp3339
a(S'w'
I2
tp3340
a(S'p2_vo'
I6
tp3341
a(S'w'
I42
tp3342
a(S'w'
I1
tp3343
a(S'p1_ll'
I1
tp3344
a(S'w'
I2
tp3345
a(S'p1_vo'
I6
tp3346
a(S'w'
I586
tp3347
a(S'no_vo'
I0
tp3348
a(S'w'
I2223
tp3349
a(S'w'
I4
tp3350
a(S'p2_vo'
I1
tp3351
a(S'w'
I17
tp3352
a(S'w'
I4
tp3353
a(S'p1_vo'
I1
tp3354
a(S'w'
I692
tp3355
a(S'tr_lr'
I0
tp3356
a(S'w'
I753
tp3357
a(S'tr_ll'
I1
tp3358
a(S'tr_lr'
I127
tp3359
a(S'w'
I25
tp3360
a(S'w'
I1
tp3361
a(S'p2_ll'
I1
tp3362
a(S'w'
I2
tp3363
a(S'p2_vo'
I6
tp3364
a(S'w'
I25
tp3365
a(S'w'
I1
tp3366
a(S'p1_ll'
I1
tp3367
a(S'w'
I3
tp3368
a(S'p1_vo'
I6
tp3369
a(S'w'
I2876
tp3370
a(S'w'
I4
tp3371
a(S'p2_vo'
I1
tp3372
a(S'w'
I17
tp3373
a(S'w'
I4
tp3374
a(S'p1_vo'
I1
tp3375
a(S'w'
I692
tp3376
a(S'tr_lr'
I0
tp3377
a(S'w'
I733
tp3378
a(S'ch_no'
I1
tp3379
a(S'ch_tr'
I1
tp3380
a(S'ch_p2'
I1
tp3381
a(S'ch_p1'
I1
tp3382
a(S'w'
I1
tp3383
a(S'ch_no'
I1
tp3384
a(S'ch_tr'
I1
tp3385
a(S'ch_p2'
I1
tp3386
a(S'ch_p1'
I1
tp3387
a(S'w'
I6
tp3388
a(S'no_np'
I6
tp3389
a(S'no_ll'
I1
tp3390
a(S'w'
I2
tp3391
a(S'no_vo'
I10
tp3392
a(S'w'
I19
tp3393
a(S'tr_tl'
I64
tp3394
a(S'w'
I1
tp3395
a(S'tr_ll'
I1
tp3396
a(S'w'
I1
tp3397
a(S'tr_lr'
I127
tp3398
a(S'w'
I28
tp3399
a(S'p2_tl'
I160
tp3400
a(S'w'
I1
tp3401
a(S'p2_ll'
I1
tp3402
a(S'w'
I2
tp3403
a(S'p2_vo'
I6
tp3404
a(S'w'
I28
tp3405
a(S'p1_tl'
I213
tp3406
a(S'w'
I2
tp3407
a(S'p1_ll'
I1
tp3408
a(S'w'
I2
tp3409
a(S'p1_vo'
I6
tp3410
a(S'w'
I637
tp3411
a(S'no_vo'
I8
tp3412
a(S'w'
I746
tp3413
a(S'no_vo'
I6
tp3414
a(S'w'
I721
tp3415
a(S'no_vo'
I4
tp3416
a(S'w'
I734
tp3417
a(S'no_vo'
I2
tp3418
a(S'w'
I734
tp3419
a(S'no_vo'
I0
tp3420
a(S'w'
I12
tp3421
a(S'p2_vo'
I5
tp3422
a(S'w'
I6
tp3423
a(S'p1_vo'
I5
tp3424
a(S'w'
I2204
tp3425
a(S'w'
I4
tp3426
a(S'p2_vo'
I1
tp3427
a(S'w'
I17
tp3428
a(S'w'
I4
tp3429
a(S'p1_vo'
I1
tp3430
a(S'w'
I1439
tp3431
a(S'tr_lr'
I0
tp3432
a(S'w'
I1454
tp3433
a(S'no_np'
I0
tp3434
a(S'no_ll'
I1
tp3435
a(S'w'
I2
tp3436
a(S'no_vo'
I10
tp3437
a(S'w'
I13
tp3438
a(S'tr_tl'
I124
tp3439
a(S'w'
I1
tp3440
a(S'tr_ll'
I1
tp3441
a(S'w'
I1
tp3442
a(S'tr_lr'
I127
tp3443
a(S'w'
I24
tp3444
a(S'p2_tl'
I190
tp3445
a(S'w'
I2
tp3446
a(S'p2_ll'
I1
tp3447
a(S'w'
I2
tp3448
a(S'p2_vo'
I6
tp3449
a(S'w'
I24
tp3450
a(S'p1_tl'
I254
tp3451
a(S'w'
I2
tp3452
a(S'p1_ll'
I1
tp3453
a(S'w'
I2
tp3454
a(S'p1_vo'
I6
tp3455
a(S'w'
I657
tp3456
a(S'no_vo'
I8
tp3457
a(S'w'
I734
tp3458
a(S'no_vo'
I6
tp3459
a(S'w'
I734
tp3460
a(S'no_vo'
I4
tp3461
a(S'w'
I734
tp3462
a(S'no_vo'
I2
tp3463
a(S'w'
I733
tp3464
a(S'no_vo'
I0
tp3465
a(S'w'
I12
tp3466
a(S'p2_vo'
I5
tp3467
a(S'w'
I7
tp3468
a(S'p1_vo'
I5
tp3469
a(S'w'
I733
tp3470
a(S'ch_no'
I1
tp3471
a(S'ch_tr'
I1
tp3472
a(S'ch_p2'
I1
tp3473
a(S'ch_p1'
I1
tp3474
a(S'w'
I1
tp3475
a(S'ch_no'
I1
tp3476
a(S'ch_tr'
I1
tp3477
a(S'ch_p2'
I1
tp3478
a(S'ch_p1'
I1
tp3479
a(S'w'
I6
tp3480
a(S'no_np'
I2
tp3481
a(S'no_ll'
I1
tp3482
a(S'w'
I2
tp3483
a(S'no_vo'
I2
tp3484
a(S'w'
I707
tp3485
a(S'no_vo'
I0
tp3486
a(S'w'
I755
tp3487
a(S'w'
I3
tp3488
a(S'p2_vo'
I1
tp3489
a(S'w'
I18
tp3490
a(S'w'
I3
tp3491
a(S'p1_vo'
I1
tp3492
a(S'w'
I1427
tp3493
a(S'tr_lr'
I0
tp3494
a(S'w'
I1468
tp3495
a(S'ch_no'
I1
tp3496
a(S'ch_tr'
I1
tp3497
a(S'ch_p2'
I1
tp3498
a(S'ch_p1'
I1
tp3499
a(S'w'
I1
tp3500
a(S'ch_no'
I1
tp3501
a(S'ch_tr'
I1
tp3502
a(S'ch_p2'
I1
tp3503
a(S'ch_p1'
I1
tp3504
a(S'w'
I6
tp3505
a(S'no_np'
I6
tp3506
a(S'no_ll'
I1
tp3507
a(S'w'
I2
tp3508
a(S'no_vo'
I10
tp3509
a(S'w'
I20
tp3510
a(S'tr_ll'
I1
tp3511
a(S'tr_lr'
I127
tp3512
a(S'w'
I30
tp3513
a(S'w'
I1
tp3514
a(S'p2_ll'
I1
tp3515
a(S'w'
I2
tp3516
a(S'p2_vo'
I6
tp3517
a(S'w'
I30
tp3518
a(S'w'
I1
tp3519
a(S'p1_ll'
I1
tp3520
a(S'w'
I3
tp3521
a(S'p1_vo'
I6
tp3522
a(S'w'
I633
tp3523
a(S'no_vo'
I8
tp3524
a(S'w'
I747
tp3525
a(S'no_vo'
I6
tp3526
a(S'w'
I720
tp3527
a(S'no_vo'
I4
tp3528
a(S'w'
I734
tp3529
a(S'no_vo'
I2
tp3530
a(S'w'
I24
tp3531
a(S'w'
I3
tp3532
a(S'p2_vo'
I1
tp3533
a(S'w'
I18
tp3534
a(S'w'
I3
tp3535
a(S'p1_vo'
I1
tp3536
a(S'w'
I686
tp3537
a(S'no_vo'
I0
tp3538
a(S'w'
I7
tp3539
a(S'tr_lr'
I0
tp3540
a(S'w'
I737
tp3541
a(S'tr_ll'
I1
tp3542
a(S'w'
I1
tp3543
a(S'tr_lr'
I127
tp3544
a(S'w'
I25
tp3545
a(S'w'
I1
tp3546
a(S'p2_ll'
I1
tp3547
a(S'w'
I2
tp3548
a(S'p2_vo'
I6
tp3549
a(S'w'
I25
tp3550
a(S'w'
I1
tp3551
a(S'p1_ll'
I1
tp3552
a(S'w'
I2
tp3553
a(S'p1_vo'
I6
tp3554
a(S'w'
I2903
tp3555
a(S'w'
I3
tp3556
a(S'p2_vo'
I1
tp3557
a(S'w'
I18
tp3558
a(S'w'
I3
tp3559
a(S'p1_vo'
I1
tp3560
a(S'w'
I680
tp3561
a(S'tr_lr'
I0
tp3562
a(S'w'
I733
tp3563
a(S'ch_no'
I1
tp3564
a(S'ch_tr'
I1
tp3565
a(S'ch_p2'
I1
tp3566
a(S'ch_p1'
I1
tp3567
a(S'w'
I1
tp3568
a(S'ch_no'
I1
tp3569
a(S'ch_tr'
I1
tp3570
a(S'ch_p2'
I1
tp3571
a(S'ch_p1'
I1
tp3572
a(S'w'
I6
tp3573
a(S'no_np'
I2
tp3574
a(S'no_ll'
I1
tp3575
a(S'w'
I2
tp3576
a(S'no_vo'
I2
tp3577
a(S'w'
I19
tp3578
a(S'tr_tl'
I29
tp3579
a(S'w'
I2
tp3580
a(S'tr_ll'
I1
tp3581
a(S'tr_lr'
I127
tp3582
a(S'w'
I28
tp3583
a(S'p2_tl'
I142
tp3584
a(S'w'
I1
tp3585
a(S'p2_ll'
I1
tp3586
a(S'w'
I3
tp3587
a(S'p2_vo'
I6
tp3588
a(S'w'
I28
tp3589
a(S'p1_tl'
I190
tp3590
a(S'w'
I1
tp3591
a(S'p1_ll'
I1
tp3592
a(S'w'
I2
tp3593
a(S'p1_vo'
I6
tp3594
a(S'w'
I636
tp3595
a(S'no_vo'
I0
tp3596
a(S'w'
I2946
tp3597
a(S'p2_vo'
I5
tp3598
a(S'w'
I7
tp3599
a(S'p1_vo'
I5
tp3600
a(S'w'
I2205
tp3601
a(S'w'
I3
tp3602
a(S'p2_vo'
I1
tp3603
a(S'w'
I18
tp3604
a(S'w'
I3
tp3605
a(S'p1_vo'
I1
tp3606
a(S'w'
I1427
tp3607
a(S'tr_lr'
I0
tp3608
a(S'w'
I1468
tp3609
a(S'ch_no'
I1
tp3610
a(S'ch_tr'
I1
tp3611
a(S'ch_p2'
I1
tp3612
a(S'ch_p1'
I1
tp3613
a(S'w'
I1
tp3614
a(S'ch_no'
I1
tp3615
a(S'ch_tr'
I1
tp3616
a(S'ch_p2'
I1
tp3617
a(S'ch_p1'
I1
tp3618
a(S'w'
I6
tp3619
a(S'no_np'
I6
tp3620
a(S'no_ll'
I1
tp3621
a(S'w'
I2
tp3622
a(S'no_vo'
I10
tp3623
a(S'w'
I13
tp3624
a(S'tr_tl'
I124
tp3625
a(S'w'
I1
tp3626
a(S'tr_ll'
I1
tp3627
a(S'w'
I1
tp3628
a(S'tr_lr'
I127
tp3629
a(S'w'
I24
tp3630
a(S'p2_tl'
I190
tp3631
a(S'w'
I2
tp3632
a(S'p2_ll'
I1
tp3633
a(S'w'
I2
tp3634
a(S'p2_vo'
I6
tp3635
a(S'w'
I25
tp3636
a(S'p1_tl'
I254
tp3637
a(S'w'
I1
tp3638
a(S'p1_ll'
I1
tp3639
a(S'w'
I2
tp3640
a(S'p1_vo'
I6
tp3641
a(S'w'
I649
tp3642
a(S'no_vo'
I8
tp3643
a(S'w'
I747
tp3644
a(S'no_vo'
I6
tp3645
a(S'w'
I721
tp3646
a(S'no_vo'
I4
tp3647
a(S'w'
I733
tp3648
a(S'no_vo'
I2
tp3649
a(S'w'
I734
tp3650
a(S'no_vo'
I0
tp3651
a(S'w'
I12
tp3652
a(S'p2_vo'
I5
tp3653
a(S'w'
I7
tp3654
a(S'p1_vo'
I5
tp3655
a(S'w'
I720
tp3656
a(S'ch_no'
I1
tp3657
a(S'ch_tr'
I1
tp3658
a(S'ch_p2'
I1
tp3659
a(S'ch_p1'
I1
tp3660
a(S'w'
I1
tp3661
a(S'ch_no'
I1
tp3662
a(S'ch_tr'
I1
tp3663
a(S'ch_p2'
I1
tp3664
a(S'ch_p1'
I1
tp3665
a(S'w'
I6
tp3666
a(S'no_np'
I2
tp3667
a(S'no_ll'
I1
tp3668
a(S'w'
I2
tp3669
a(S'no_vo'
I2
tp3670
a(S'w'
I720
tp3671
a(S'no_vo'
I0
tp3672
a(S'w'
I755
tp3673
a(S'w'
I3
tp3674
a(S'p2_vo'
I1
tp3675
a(S'w'
I18
tp3676
a(S'w'
I3
tp3677
a(S'p1_vo'
I1
tp3678
a(S'w'
I1440
tp3679
a(S'tr_lr'
I0
tp3680
a(S'w'
I1453
tp3681
a(S'no_np'
I0
tp3682
a(S'no_ll'
I1
tp3683
a(S'w'
I2
tp3684
a(S'no_vo'
I2
tp3685
a(S'w'
I20
tp3686
a(S'tr_ll'
I1
tp3687
a(S'w'
I1
tp3688
a(S'tr_lr'
I127
tp3689
a(S'w'
I29
tp3690
a(S'w'
I1
tp3691
a(S'p2_ll'
I1
tp3692
a(S'w'
I3
tp3693
a(S'p2_vo'
I6
tp3694
a(S'w'
I29
tp3695
a(S'w'
I2
tp3696
a(S'p1_ll'
I1
tp3697
a(S'w'
I2
tp3698
a(S'p1_vo'
I6
tp3699
a(S'w'
I641
tp3700
a(S'no_vo'
I0
tp3701
a(S'w'
I2224
tp3702
a(S'w'
I3
tp3703
a(S'p2_vo'
I1
tp3704
a(S'w'
I18
tp3705
a(S'w'
I3
tp3706
a(S'p1_vo'
I1
tp3707
a(S'w'
I693
tp3708
a(S'tr_lr'
I0
tp3709
a(S'w'
I742
tp3710
a(S'ch_no'
I1
tp3711
a(S'ch_tr'
I1
tp3712
a(S'ch_p2'
I1
tp3713
a(S'ch_p1'
I1
tp3714
a(S'w'
I1
tp3715
a(S'ch_no'
I1
tp3716
a(S'ch_tr'
I1
tp3717
a(S'ch_p2'
I1
tp3718
a(S'ch_p1'
I1
tp3719
a(S'w'
I6
tp3720
a(S'no_ll'
I1
tp3721
a(S'w'
I2
tp3722
a(S'no_vo'
I2
tp3723
a(S'w'
I12
tp3724
a(S'tr_ll'
I1
tp3725
a(S'w'
I1
tp3726
a(S'tr_lr'
I127
tp3727
a(S'w'
I24
tp3728
a(S'w'
I2
tp3729
a(S'p2_ll'
I1
tp3730
a(S'w'
I2
tp3731
a(S'p2_vo'
I6
tp3732
a(S'w'
I24
tp3733
a(S'w'
I2
tp3734
a(S'p1_ll'
I1
tp3735
a(S'w'
I2
tp3736
a(S'p1_vo'
I6
tp3737
a(S'w'
I642
tp3738
a(S'no_vo'
I0
tp3739
a(S'w'
I2224
tp3740
a(S'w'
I3
tp3741
a(S'p2_vo'
I1
tp3742
a(S'w'
I18
tp3743
a(S'w'
I3
tp3744
a(S'p1_vo'
I1
tp3745
a(S'w'
I693
tp3746
a(S'tr_lr'
I0
tp3747
a(S'w'
I733
tp3748
a(S'ch_no'
I1
tp3749
a(S'ch_tr'
I1
tp3750
a(S'ch_p2'
I1
tp3751
a(S'ch_p1'
I1
tp3752
a(S'w'
I1
tp3753
a(S'ch_no'
I1
tp3754
a(S'ch_tr'
I1
tp3755
a(S'ch_p2'
I1
tp3756
a(S'ch_p1'
I1
tp3757
a(S'w'
I6
tp3758
a(S'no_np'
I6
tp3759
a(S'no_ll'
I1
tp3760
a(S'w'
I2
tp3761
a(S'no_vo'
I10
tp3762
a(S'w'
I19
tp3763
a(S'tr_tl'
I13
tp3764
a(S'w'
I1
tp3765
a(S'tr_ll'
I1
tp3766
a(S'w'
I1
tp3767
a(S'tr_lr'
I127
tp3768
a(S'w'
I28
tp3769
a(S'p2_tl'
I134
tp3770
a(S'w'
I1
tp3771
a(S'p2_ll'
I1
tp3772
a(S'w'
I3
tp3773
a(S'p2_vo'
I6
tp3774
a(S'w'
I27
tp3775
a(S'p1_tl'
I179
tp3776
a(S'w'
I2
tp3777
a(S'p1_ll'
I1
tp3778
a(S'w'
I2
tp3779
a(S'p1_vo'
I6
tp3780
a(S'w'
I636
tp3781
a(S'no_vo'
I8
tp3782
a(S'w'
I747
tp3783
a(S'no_vo'
I6
tp3784
a(S'w'
I721
tp3785
a(S'no_vo'
I4
tp3786
a(S'w'
I734
tp3787
a(S'no_vo'
I2
tp3788
a(S'w'
I733
tp3789
a(S'no_vo'
I0
tp3790
a(S'w'
I12
tp3791
a(S'p2_vo'
I5
tp3792
a(S'w'
I7
tp3793
a(S'p1_vo'
I5
tp3794
a(S'w'
I2204
tp3795
a(S'w'
I3
tp3796
a(S'p2_vo'
I1
tp3797
a(S'w'
I18
tp3798
a(S'w'
I3
tp3799
a(S'p1_vo'
I1
tp3800
a(S'w'
I1440
tp3801
a(S'tr_lr'
I0
tp3802
a(S'w'
I1467
tp3803
a(S'ch_no'
I1
tp3804
a(S'ch_tr'
I1
tp3805
a(S'ch_p2'
I1
tp3806
a(S'ch_p1'
I1
tp3807
a(S'w'
I1
tp3808
a(S'ch_no'
I1
tp3809
a(S'ch_tr'
I1
tp3810
a(S'ch_p2'
I1
tp3811
a(S'ch_p1'
I1
tp3812
a(S'w'
I6
tp3813
a(S'no_np'
I2
tp3814
a(S'no_ll'
I1
tp3815
a(S'w'
I1
tp3816
a(S'no_vo'
I2
tp3817
a(S'w'
I13
tp3818
a(S'tr_tl'
I124
tp3819
a(S'w'
I2
tp3820
a(S'tr_ll'
I1
tp3821
a(S'w'
I1
tp3822
a(S'tr_lr'
I127
tp3823
a(S'w'
I24
tp3824
a(S'p2_tl'
I190
tp3825
a(S'w'
I1
tp3826
a(S'p2_ll'
I1
tp3827
a(S'w'
I3
tp3828
a(S'p2_vo'
I6
tp3829
a(S'w'
I24
tp3830
a(S'p1_tl'
I254
tp3831
a(S'w'
I2
tp3832
a(S'p1_ll'
I1
tp3833
a(S'w'
I2
tp3834
a(S'p1_vo'
I6
tp3835
a(S'w'
I637
tp3836
a(S'no_vo'
I0
tp3837
a(S'w'
I2945
tp3838
a(S'p2_vo'
I5
tp3839
a(S'w'
I7
tp3840
a(S'p1_vo'
I5
tp3841
a(S'w'
I2205
tp3842
a(S'w'
I4
tp3843
a(S'p2_vo'
I1
tp3844
a(S'w'
I17
tp3845
a(S'w'
I4
tp3846
a(S'p1_vo'
I1
tp3847
a(S'w'
I1427
tp3848
a(S'tr_lr'
I0
tp3849
a(S'w'
I1467
tp3850
a(S'ch_no'
I1
tp3851
a(S'ch_tr'
I1
tp3852
a(S'ch_p2'
I1
tp3853
a(S'ch_p1'
I1
tp3854
a(S'w'
I1
tp3855
a(S'ch_no'
I1
tp3856
a(S'ch_tr'
I1
tp3857
a(S'ch_p2'
I1
tp3858
a(S'ch_p1'
I1
tp3859
a(S'w'
I6
tp3860
a(S'no_np'
I6
tp3861
a(S'no_ll'
I1
tp3862
a(S'w'
I2
tp3863
a(S'no_vo'
I10
tp3864
a(S'w'
I13
tp3865
a(S'tr_tl'
I29
tp3866
a(S'w'
I1
tp3867
a(S'tr_ll'
I1
tp3868
a(S'w'
I1
tp3869
a(S'tr_lr'
I127
tp3870
a(S'w'
I24
tp3871
a(S'p2_tl'
I142
tp3872
a(S'w'
I2
tp3873
a(S'p2_ll'
I1
tp3874
a(S'w'
I2
tp3875
a(S'p2_vo'
I6
tp3876
a(S'w'
I25
tp3877
a(S'p1_tl'
I190
tp3878
a(S'w'
I1
tp3879
a(S'p1_ll'
I1
tp3880
a(S'w'
I2
tp3881
a(S'p1_vo'
I6
tp3882
a(S'w'
I649
tp3883
a(S'no_vo'
I8
tp3884
a(S'w'
I747
tp3885
a(S'no_vo'
I6
tp3886
a(S'w'
I721
tp3887
a(S'no_vo'
I4
tp3888
a(S'w'
I734
tp3889
a(S'no_vo'
I2
tp3890
a(S'w'
I733
tp3891
a(S'no_vo'
I0
tp3892
a(S'w'
I13
tp3893
a(S'p2_vo'
I5
tp3894
a(S'w'
I6
tp3895
a(S'p1_vo'
I5
tp3896
a(S'w'
I2204
tp3897
a(S'w'
I4
tp3898
a(S'p2_vo'
I1
tp3899
a(S'w'
I17
tp3900
a(S'w'
I4
tp3901
a(S'p1_vo'
I1
tp3902
a(S'w'
I1439
tp3903
a(S'tr_lr'
I0
tp3904
a(S'w'
I1454
tp3905
a(S'no_np'
I0
tp3906
a(S'no_ll'
I1
tp3907
a(S'w'
I2
tp3908
a(S'no_vo'
I10
tp3909
a(S'w'
I13
tp3910
a(S'tr_tl'
I124
tp3911
a(S'w'
I1
tp3912
a(S'tr_ll'
I1
tp3913
a(S'w'
I1
tp3914
a(S'tr_lr'
I127
tp3915
a(S'w'
I24
tp3916
a(S'p2_tl'
I190
tp3917
a(S'w'
I2
tp3918
a(S'p2_ll'
I1
tp3919
a(S'w'
I2
tp3920
a(S'p2_vo'
I6
tp3921
a(S'w'
I24
tp3922
a(S'p1_tl'
I254
tp3923
a(S'w'
I2
tp3924
a(S'p1_ll'
I1
tp3925
a(S'w'
I2
tp3926
a(S'p1_vo'
I6
tp3927
a(S'w'
I657
tp3928
a(S'no_vo'
I8
tp3929
a(S'w'
I734
tp3930
a(S'no_vo'
I6
tp3931
a(S'w'
I734
tp3932
a(S'no_vo'
I4
tp3933
a(S'w'
I733
tp3934
a(S'no_vo'
I2
tp3935
a(S'w'
I734
tp3936
a(S'no_vo'
I0
tp3937
a(S'w'
I12
tp3938
a(S'p2_vo'
I5
tp3939
a(S'w'
I7
tp3940
a(S'p1_vo'
I5
tp3941
a(S'w'
I733
tp3942
a(S'ch_no'
I1
tp3943
a(S'ch_tr'
I1
tp3944
a(S'ch_p2'
I1
tp3945
a(S'ch_p1'
I1
tp3946
a(S'w'
I1
tp3947
a(S'ch_no'
I1
tp3948
a(S'ch_tr'
I1
tp3949
a(S'ch_p2'
I1
tp3950
a(S'ch_p1'
I1
tp3951
a(S'w'
I6
tp3952
a(S'no_np'
I2
tp3953
a(S'no_ll'
I1
tp3954
a(S'w'
I2
tp3955
a(S'no_vo'
I2
tp3956
a(S'w'
I707
tp3957
a(S'no_vo'
I0
tp3958
a(S'w'
I755
tp3959
a(S'w'
I3
tp3960
a(S'p2_vo'
I1
tp3961
a(S'w'
I18
tp3962
a(S'w'
I3
tp3963
a(S'p1_vo'
I1
tp3964
a(S'w'
I1427
tp3965
a(S'tr_lr'
I0
tp3966
a(S'w'
I1468
tp3967
a(S'ch_no'
I1
tp3968
a(S'ch_tr'
I1
tp3969
a(S'ch_p2'
I1
tp3970
a(S'ch_p1'
I1
tp3971
a(S'w'
I1
tp3972
a(S'ch_no'
I1
tp3973
a(S'ch_tr'
I1
tp3974
a(S'ch_p2'
I1
tp3975
a(S'ch_p1'
I1
tp3976
a(S'w'
I6
tp3977
a(S'no_np'
I6
tp3978
a(S'no_ll'
I1
tp3979
a(S'w'
I1
tp3980
a(S'no_vo'
I10
tp3981
a(S'w'
I14
tp3982
a(S'tr_tl'
I64
tp3983
a(S'w'
I1
tp3984
a(S'tr_ll'
I1
tp3985
a(S'w'
I1
tp3986
a(S'tr_lr'
I127
tp3987
a(S'w'
I24
tp3988
a(S'p2_tl'
I160
tp3989
a(S'w'
I1
tp3990
a(S'p2_ll'
I1
tp3991
a(S'w'
I3
tp3992
a(S'p2_vo'
I6
tp3993
a(S'w'
I24
tp3994
a(S'p1_tl'
I213
tp3995
a(S'w'
I2
tp3996
a(S'p1_ll'
I1
tp3997
a(S'w'
I2
tp3998
a(S'p1_vo'
I6
tp3999
a(S'w'
I649
tp4000
a(S'no_vo'
I8
tp4001
a(S'w'
I747
tp4002
a(S'no_vo'
I6
tp4003
a(S'w'
I720
tp4004
a(S'no_vo'
I4
tp4005
a(S'w'
I734
tp4006
a(S'no_vo'
I2
tp4007
a(S'w'
I734
tp4008
a(S'no_vo'
I0
tp4009
a(S'w'
I12
tp4010
a(S'p2_vo'
I5
tp4011
a(S'w'
I7
tp4012
a(S'p1_vo'
I5
tp4013
a(S'w'
I2203
tp4014
a(S'w'
I4
tp4015
a(S'p2_vo'
I1
tp4016
a(S'w'
I17
tp4017
a(S'w'
I4
tp4018
a(S'p1_vo'
I1
tp4019
a(S'w'
I1440
tp4020
a(S'tr_lr'
I0
tp4021
a(S'w'
I1454
tp4022
a(S'ch_no'
I1
tp4023
a(S'ch_tr'
I1
tp4024
a(S'ch_p2'
I1
tp4025
a(S'ch_p1'
I1
tp4026
a(S'w'
I1
tp4027
a(S'ch_no'
I1
tp4028
a(S'ch_tr'
I1
tp4029
a(S'ch_p2'
I1
tp4030
a(S'ch_p1'
I1
tp4031
a(S'w'
I6
tp4032
a(S'no_np'
I2
tp4033
a(S'no_ll'
I1
tp4034
a(S'w'
I2
tp4035
a(S'no_vo'
I2
tp4036
a(S'w'
I11
tp4037
a(S'tr_tl'
I29
tp4038
a(S'w'
I2
tp4039
a(S'tr_ll'
I1
tp4040
a(S'tr_lr'
I127
tp4041
a(S'w'
I25
tp4042
a(S'p2_tl'
I142
tp4043
a(S'w'
I1
tp4044
a(S'p2_ll'
I1
tp4045
a(S'w'
I2
tp4046
a(S'p2_vo'
I6
tp4047
a(S'w'
I25
tp4048
a(S'p1_tl'
I190
tp4049
a(S'w'
I1
tp4050
a(S'p1_ll'
I1
tp4051
a(S'w'
I3
tp4052
a(S'p1_vo'
I6
tp4053
a(S'w'
I650
tp4054
a(S'no_vo'
I0
tp4055
a(S'w'
I2946
tp4056
a(S'p2_vo'
I5
tp4057
a(S'w'
I7
tp4058
a(S'p1_vo'
I5
tp4059
a(S'w'
I2205
tp4060
a(S'w'
I3
tp4061
a(S'p2_vo'
I1
tp4062
a(S'w'
I18
tp4063
a(S'w'
I3
tp4064
a(S'p1_vo'
I1
tp4065
a(S'w'
I1427
tp4066
a(S'tr_lr'
I0
tp4067
a(S'w'
I1468
tp4068
a(S'ch_no'
I1
tp4069
a(S'ch_tr'
I1
tp4070
a(S'ch_p2'
I1
tp4071
a(S'ch_p1'
I1
tp4072
a(S'w'
I1
tp4073
a(S'ch_no'
I1
tp4074
a(S'ch_tr'
I1
tp4075
a(S'ch_p2'
I1
tp4076
a(S'ch_p1'
I1
tp4077
a(S'w'
I6
tp4078
a(S'no_np'
I6
tp4079
a(S'no_ll'
I1
tp4080
a(S'w'
I2
tp4081
a(S'no_vo'
I10
tp4082
a(S'w'
I13
tp4083
a(S'tr_tl'
I171
tp4084
a(S'w'
I1
tp4085
a(S'tr_ll'
I1
tp4086
a(S'w'
I1
tp4087
a(S'tr_lr'
I127
tp4088
a(S'w'
I24
tp4089
a(S'p2_tl'
I213
tp4090
a(S'w'
I2
tp4091
a(S'p2_ll'
I1
tp4092
a(S'w'
I2
tp4093
a(S'p2_vo'
I6
tp4094
a(S'w'
I24
tp4095
a(S'p1_tl'
I29
tp4096
a(S'w'
I2
tp4097
a(S'p1_ll'
I1
tp4098
a(S'p1_th'
I1
tp4099
a(S'w'
I2
tp4100
a(S'p1_vo'
I6
tp4101
a(S'w'
I649
tp4102
a(S'no_vo'
I8
tp4103
a(S'w'
I747
tp4104
a(S'no_vo'
I6
tp4105
a(S'w'
I721
tp4106
a(S'no_vo'
I4
tp4107
a(S'w'
I733
tp4108
a(S'no_vo'
I2
tp4109
a(S'w'
I734
tp4110
a(S'no_vo'
I0
tp4111
a(S'w'
I12
tp4112
a(S'p2_vo'
I5
tp4113
a(S'w'
I7
tp4114
a(S'p1_vo'
I5
tp4115
a(S'w'
I720
tp4116
a(S'ch_no'
I1
tp4117
a(S'ch_tr'
I1
tp4118
a(S'ch_p2'
I1
tp4119
a(S'ch_p1'
I1
tp4120
a(S'w'
I1
tp4121
a(S'ch_no'
I1
tp4122
a(S'ch_tr'
I1
tp4123
a(S'ch_p2'
I1
tp4124
a(S'ch_p1'
I1
tp4125
a(S'w'
I6
tp4126
a(S'no_np'
I2
tp4127
a(S'no_ll'
I1
tp4128
a(S'w'
I1
tp4129
a(S'no_vo'
I2
tp4130
a(S'w'
I720
tp4131
a(S'no_vo'
I0
tp4132
a(S'w'
I756
tp4133
a(S'w'
I3
tp4134
a(S'p2_vo'
I1
tp4135
a(S'w'
I18
tp4136
a(S'w'
I3
tp4137
a(S'p1_vo'
I1
tp4138
a(S'w'
I1440
tp4139
a(S'tr_lr'
I0
tp4140
a(S'w'
I1453
tp4141
a(S'no_np'
I0
tp4142
a(S'no_ll'
I1
tp4143
a(S'w'
I2
tp4144
a(S'no_vo'
I2
tp4145
a(S'w'
I11
tp4146
a(S'tr_tl'
I147
tp4147
a(S'w'
I1
tp4148
a(S'tr_ll'
I1
tp4149
a(S'w'
I1
tp4150
a(S'tr_lr'
I127
tp4151
a(S'w'
I24
tp4152
a(S'p2_tl'
I201
tp4153
a(S'w'
I2
tp4154
a(S'p2_ll'
I1
tp4155
a(S'w'
I2
tp4156
a(S'p2_vo'
I6
tp4157
a(S'w'
I25
tp4158
a(S'p1_tl'
I13
tp4159
a(S'w'
I1
tp4160
a(S'p1_ll'
I1
tp4161
a(S'w'
I2
tp4162
a(S'p1_vo'
I6
tp4163
a(S'w'
I659
tp4164
a(S'no_vo'
I0
tp4165
a(S'w'
I2946
tp4166
a(S'p2_vo'
I5
tp4167
a(S'w'
I7
tp4168
a(S'p1_vo'
I5
tp4169
a(S'w'
I730
tp4170
a(S'ch_no'
I1
tp4171
a(S'ch_tr'
I1
tp4172
a(S'ch_p2'
I1
tp4173
a(S'ch_p1'
I1
tp4174
a(S'w'
I1
tp4175
a(S'ch_no'
I1
tp4176
a(S'ch_tr'
I1
tp4177
a(S'ch_p2'
I1
tp4178
a(S'ch_p1'
I1
tp4179
a(S'w'
I6
tp4180
a(S'no_ll'
I1
tp4181
a(S'w'
I2
tp4182
a(S'no_vo'
I2
tp4183
a(S'w'
I711
tp4184
a(S'no_vo'
I0
tp4185
a(S'w'
I755
tp4186
a(S'w'
I4
tp4187
a(S'p2_vo'
I1
tp4188
a(S'w'
I17
tp4189
a(S'w'
I4
tp4190
a(S'p1_vo'
I1
tp4191
a(S'w'
I1426
tp4192
a(S'tr_lr'
I0
tp4193
a(S'w'
I1468
tp4194
a(S'ch_no'
I1
tp4195
a(S'ch_tr'
I1
tp4196
a(S'ch_p2'
I1
tp4197
a(S'ch_p1'
I1
tp4198
a(S'w'
I1
tp4199
a(S'ch_no'
I1
tp4200
a(S'ch_tr'
I1
tp4201
a(S'ch_p2'
I1
tp4202
a(S'ch_p1'
I1
tp4203
a(S'w'
I6
tp4204
a(S'no_np'
I6
tp4205
a(S'no_ll'
I1
tp4206
a(S'w'
I2
tp4207
a(S'no_vo'
I10
tp4208
a(S'w'
I11
tp4209
a(S'tr_tl'
I124
tp4210
a(S'w'
I1
tp4211
a(S'tr_ll'
I1
tp4212
a(S'w'
I1
tp4213
a(S'tr_lr'
I127
tp4214
a(S'w'
I25
tp4215
a(S'p2_tl'
I190
tp4216
a(S'w'
I1
tp4217
a(S'p2_ll'
I1
tp4218
a(S'w'
I2
tp4219
a(S'p2_vo'
I6
tp4220
a(S'w'
I25
tp4221
a(S'p1_tl'
I254
tp4222
a(S'w'
I1
tp4223
a(S'p1_ll'
I1
tp4224
a(S'p1_th'
I0
tp4225
a(S'w'
I2
tp4226
a(S'p1_vo'
I6
tp4227
a(S'w'
I651
tp4228
a(S'no_vo'
I8
tp4229
a(S'w'
I747
tp4230
a(S'no_vo'
I6
tp4231
a(S'w'
I721
tp4232
a(S'no_vo'
I4
tp4233
a(S'w'
I734
tp4234
a(S'no_vo'
I2
tp4235
a(S'w'
I733
tp4236
a(S'no_vo'
I0
tp4237
a(S'w'
I12
tp4238
a(S'p2_vo'
I5
tp4239
a(S'w'
I7
tp4240
a(S'p1_vo'
I5
tp4241
a(S'w'
I2204
tp4242
a(S'w'
I3
tp4243
a(S'p2_vo'
I1
tp4244
a(S'w'
I18
tp4245
a(S'w'
I3
tp4246
a(S'p1_vo'
I1
tp4247
a(S'w'
I1440
tp4248
a(S'tr_lr'
I0
tp4249
a(S'w'
I1467
tp4250
a(S'ch_no'
I1
tp4251
a(S'ch_tr'
I1
tp4252
a(S'ch_p2'
I1
tp4253
a(S'ch_p1'
I1
tp4254
a(S'ch_no'
I1
tp4255
a(S'ch_tr'
I1
tp4256
a(S'ch_p2'
I1
tp4257
a(S'ch_p1'
I1
tp4258
a(S'w'
I7
tp4259
a(S'no_np'
I2
tp4260
a(S'no_ll'
I1
tp4261
a(S'w'
I1
tp4262
a(S'no_vo'
I2
tp4263
a(S'w'
I35
tp4264
a(S'tr_tl'
I252
tp4265
a(S'w'
I1
tp4266
a(S'tr_ll'
I1
tp4267
a(S'w'
I1
tp4268
a(S'tr_lr'
I127
tp4269
a(S'w'
I45
tp4270
a(S'p2_tl'
I254
tp4271
a(S'w'
I1
tp4272
a(S'p2_ll'
I1
tp4273
a(S'w'
I3
tp4274
a(S'p2_vo'
I6
tp4275
a(S'w'
I45
tp4276
a(S'p1_tl'
I83
tp4277
a(S'w'
I1
tp4278
a(S'p1_ll'
I1
tp4279
a(S'p1_th'
I1
tp4280
a(S'w'
I3
tp4281
a(S'p1_vo'
I6
tp4282
a(S'w'
I574
tp4283
a(S'no_vo'
I0
tp4284
a(S'w'
I2223
tp4285
a(S'w'
I4
tp4286
a(S'p2_vo'
I1
tp4287
a(S'w'
I17
tp4288
a(S'w'
I4
tp4289
a(S'p1_vo'
I1
tp4290
a(S'w'
I692
tp4291
a(S'tr_lr'
I0
tp4292
a(S'w'
I753
tp4293
a(S'tr_ll'
I1
tp4294
a(S'tr_lr'
I127
tp4295
a(S'w'
I25
tp4296
a(S'w'
I1
tp4297
a(S'p2_ll'
I1
tp4298
a(S'w'
I2
tp4299
a(S'p2_vo'
I6
tp4300
a(S'w'
I25
tp4301
a(S'w'
I1
tp4302
a(S'p1_ll'
I1
tp4303
a(S'w'
I3
tp4304
a(S'p1_vo'
I6
tp4305
a(S'w'
I2876
tp4306
a(S'w'
I4
tp4307
a(S'p2_vo'
I1
tp4308
a(S'w'
I17
tp4309
a(S'w'
I4
tp4310
a(S'p1_vo'
I1
tp4311
a(S'w'
I692
tp4312
a(S'tr_lr'
I0
tp4313
a(S'w'
I733
tp4314
a(S'ch_no'
I1
tp4315
a(S'ch_tr'
I1
tp4316
a(S'ch_p2'
I1
tp4317
a(S'ch_p1'
I1
tp4318
a(S'w'
I1
tp4319
a(S'ch_no'
I1
tp4320
a(S'ch_tr'
I1
tp4321
a(S'ch_p2'
I1
tp4322
a(S'ch_p1'
I1
tp4323
a(S'w'
I6
tp4324
a(S'no_np'
I6
tp4325
a(S'no_ll'
I1
tp4326
a(S'w'
I2
tp4327
a(S'no_vo'
I10
tp4328
a(S'w'
I19
tp4329
a(S'tr_tl'
I171
tp4330
a(S'w'
I1
tp4331
a(S'tr_ll'
I1
tp4332
a(S'w'
I1
tp4333
a(S'tr_lr'
I127
tp4334
a(S'w'
I28
tp4335
a(S'p2_tl'
I213
tp4336
a(S'w'
I1
tp4337
a(S'p2_ll'
I1
tp4338
a(S'w'
I2
tp4339
a(S'p2_vo'
I6
tp4340
a(S'w'
I28
tp4341
a(S'p1_tl'
I29
tp4342
a(S'w'
I2
tp4343
a(S'p1_ll'
I1
tp4344
a(S'w'
I2
tp4345
a(S'p1_vo'
I6
tp4346
a(S'w'
I636
tp4347
a(S'no_vo'
I8
tp4348
a(S'w'
I747
tp4349
a(S'no_vo'
I6
tp4350
a(S'w'
I721
tp4351
a(S'no_vo'
I4
tp4352
a(S'w'
I734
tp4353
a(S'no_vo'
I2
tp4354
a(S'w'
I733
tp4355
a(S'no_vo'
I0
tp4356
a(S'w'
I13
tp4357
a(S'p2_vo'
I5
tp4358
a(S'w'
I6
tp4359
a(S'p1_vo'
I5
tp4360
a(S'w'
I2204
tp4361
a(S'w'
I4
tp4362
a(S'p2_vo'
I1
tp4363
a(S'w'
I17
tp4364
a(S'w'
I4
tp4365
a(S'p1_vo'
I1
tp4366
a(S'w'
I1439
tp4367
a(S'tr_lr'
I0
tp4368
a(S'w'
I1454
tp4369
a(S'no_np'
I0
tp4370
a(S'no_ll'
I1
tp4371
a(S'w'
I2
tp4372
a(S'no_vo'
I10
tp4373
a(S'w'
I13
tp4374
a(S'tr_tl'
I252
tp4375
a(S'w'
I1
tp4376
a(S'tr_ll'
I1
tp4377
a(S'w'
I1
tp4378
a(S'tr_lr'
I127
tp4379
a(S'w'
I24
tp4380
a(S'p2_tl'
I254
tp4381
a(S'w'
I1
tp4382
a(S'p2_ll'
I1
tp4383
a(S'w'
I3
tp4384
a(S'p2_vo'
I6
tp4385
a(S'w'
I24
tp4386
a(S'p1_tl'
I83
tp4387
a(S'w'
I2
tp4388
a(S'p1_ll'
I1
tp4389
a(S'w'
I2
tp4390
a(S'p1_vo'
I6
tp4391
a(S'w'
I657
tp4392
a(S'no_vo'
I8
tp4393
a(S'w'
I734
tp4394
a(S'no_vo'
I6
tp4395
a(S'w'
I734
tp4396
a(S'no_vo'
I4
tp4397
a(S'w'
I733
tp4398
a(S'no_vo'
I2
tp4399
a(S'w'
I734
tp4400
a(S'no_vo'
I0
tp4401
a(S'w'
I12
tp4402
a(S'p2_vo'
I5
tp4403
a(S'w'
I7
tp4404
a(S'p1_vo'
I5
tp4405
a(S'w'
I733
tp4406
a(S'ch_no'
I1
tp4407
a(S'ch_tr'
I1
tp4408
a(S'ch_p2'
I1
tp4409
a(S'ch_p1'
I1
tp4410
a(S'w'
I1
tp4411
a(S'ch_no'
I1
tp4412
a(S'ch_tr'
I1
tp4413
a(S'ch_p2'
I1
tp4414
a(S'ch_p1'
I1
tp4415
a(S'w'
I6
tp4416
a(S'no_np'
I2
tp4417
a(S'no_ll'
I1
tp4418
a(S'w'
I2
tp4419
a(S'no_vo'
I2
tp4420
a(S'w'
I707
tp4421
a(S'no_vo'
I0
tp4422
a(S'w'
I755
tp4423
a(S'w'
I3
tp4424
a(S'p2_vo'
I1
tp4425
a(S'w'
I18
tp4426
a(S'w'
I3
tp4427
a(S'p1_vo'
I1
tp4428
a(S'w'
I1427
tp4429
a(S'tr_lr'
I0
tp4430
a(S'w'
I1468
tp4431
a(S'ch_no'
I1
tp4432
a(S'ch_tr'
I1
tp4433
a(S'ch_p2'
I1
tp4434
a(S'ch_p1'
I1
tp4435
a(S'w'
I1
tp4436
a(S'ch_no'
I1
tp4437
a(S'ch_tr'
I1
tp4438
a(S'ch_p2'
I1
tp4439
a(S'ch_p1'
I1
tp4440
a(S'w'
I6
tp4441
a(S'no_np'
I6
tp4442
a(S'no_ll'
I1
tp4443
a(S'w'
I1
tp4444
a(S'no_vo'
I10
tp4445
a(S'w'
I21
tp4446
a(S'tr_ll'
I1
tp4447
a(S'tr_lr'
I127
tp4448
a(S'w'
I30
tp4449
a(S'w'
I1
tp4450
a(S'p2_ll'
I1
tp4451
a(S'w'
I2
tp4452
a(S'p2_vo'
I6
tp4453
a(S'w'
I30
tp4454
a(S'w'
I1
tp4455
a(S'p1_ll'
I1
tp4456
a(S'w'
I3
tp4457
a(S'p1_vo'
I6
tp4458
a(S'w'
I633
tp4459
a(S'no_vo'
I8
tp4460
a(S'w'
I747
tp4461
a(S'no_vo'
I6
tp4462
a(S'w'
I720
tp4463
a(S'no_vo'
I4
tp4464
a(S'w'
I734
tp4465
a(S'no_vo'
I2
tp4466
a(S'w'
I24
tp4467
a(S'w'
I3
tp4468
a(S'p2_vo'
I1
tp4469
a(S'w'
I18
tp4470
a(S'w'
I3
tp4471
a(S'p1_vo'
I1
tp4472
a(S'w'
I686
tp4473
a(S'no_vo'
I0
tp4474
a(S'w'
I6
tp4475
a(S'tr_lr'
I0
tp4476
a(S'w'
I738
tp4477
a(S'tr_ll'
I1
tp4478
a(S'w'
I1
tp4479
a(S'tr_lr'
I127
tp4480
a(S'w'
I24
tp4481
a(S'w'
I2
tp4482
a(S'p2_ll'
I1
tp4483
a(S'w'
I2
tp4484
a(S'p2_vo'
I6
tp4485
a(S'w'
I25
tp4486
a(S'w'
I1
tp4487
a(S'p1_ll'
I1
tp4488
a(S'w'
I2
tp4489
a(S'p1_vo'
I6
tp4490
a(S'w'
I2903
tp4491
a(S'w'
I3
tp4492
a(S'p2_vo'
I1
tp4493
a(S'w'
I18
tp4494
a(S'w'
I3
tp4495
a(S'p1_vo'
I1
tp4496
a(S'w'
I680
tp4497
a(S'tr_lr'
I0
tp4498
a(S'w'
I733
tp4499
a(S'ch_no'
I1
tp4500
a(S'ch_tr'
I1
tp4501
a(S'ch_p2'
I1
tp4502
a(S'ch_p1'
I1
tp4503
a(S'w'
I1
tp4504
a(S'ch_no'
I1
tp4505
a(S'ch_tr'
I1
tp4506
a(S'ch_p2'
I1
tp4507
a(S'ch_p1'
I1
tp4508
a(S'w'
I6
tp4509
a(S'no_np'
I2
tp4510
a(S'no_ll'
I1
tp4511
a(S'w'
I2
tp4512
a(S'no_vo'
I2
tp4513
a(S'w'
I19
tp4514
a(S'tr_tl'
I124
tp4515
a(S'w'
I1
tp4516
a(S'tr_ll'
I1
tp4517
a(S'w'
I1
tp4518
a(S'tr_lr'
I127
tp4519
a(S'w'
I28
tp4520
a(S'p2_tl'
I190
tp4521
a(S'w'
I1
tp4522
a(S'p2_ll'
I1
tp4523
a(S'w'
I3
tp4524
a(S'p2_vo'
I6
tp4525
a(S'w'
I28
tp4526
a(S'p1_tl'
I254
tp4527
a(S'w'
I1
tp4528
a(S'p1_ll'
I1
tp4529
a(S'p1_th'
I0
tp4530
a(S'w'
I2
tp4531
a(S'p1_vo'
I6
tp4532
a(S'w'
I636
tp4533
a(S'no_vo'
I0
tp4534
a(S'w'
I2946
tp4535
a(S'p2_vo'
I5
tp4536
a(S'w'
I7
tp4537
a(S'p1_vo'
I5
tp4538
a(S'w'
I2205
tp4539
a(S'w'
I3
tp4540
a(S'p2_vo'
I1
tp4541
a(S'w'
I18
tp4542
a(S'w'
I3
tp4543
a(S'p1_vo'
I1
tp4544
a(S'w'
I1427
tp4545
a(S'tr_lr'
I0
tp4546
a(S'w'
I1468
tp4547
a(S'ch_no'
I1
tp4548
a(S'ch_tr'
I1
tp4549
a(S'ch_p2'
I1
tp4550
a(S'ch_p1'
I1
tp4551
a(S'w'
I1
tp4552
a(S'ch_no'
I1
tp4553
a(S'ch_tr'
I1
tp4554
a(S'ch_p2'
I1
tp4555
a(S'ch_p1'
I1
tp4556
a(S'w'
I6
tp4557
a(S'no_np'
I6
tp4558
a(S'no_ll'
I1
tp4559
a(S'w'
I2
tp4560
a(S'no_vo'
I10
tp4561
a(S'w'
I13
tp4562
a(S'tr_tl'
I252
tp4563
a(S'w'
I1
tp4564
a(S'tr_ll'
I1
tp4565
a(S'w'
I1
tp4566
a(S'tr_lr'
I127
tp4567
a(S'w'
I24
tp4568
a(S'p2_tl'
I254
tp4569
a(S'w'
I2
tp4570
a(S'p2_ll'
I1
tp4571
a(S'w'
I2
tp4572
a(S'p2_vo'
I6
tp4573
a(S'w'
I24
tp4574
a(S'p1_tl'
I83
tp4575
a(S'w'
I2
tp4576
a(S'p1_ll'
I1
tp4577
a(S'p1_th'
I1
tp4578
a(S'w'
I2
tp4579
a(S'p1_vo'
I6
tp4580
a(S'w'
I649
tp4581
a(S'no_vo'
I8
tp4582
a(S'w'
I747
tp4583
a(S'no_vo'
I6
tp4584
a(S'w'
I720
tp4585
a(S'no_vo'
I4
tp4586
a(S'w'
I734
tp4587
a(S'no_vo'
I2
tp4588
a(S'w'
I734
tp4589
a(S'no_vo'
I0
tp4590
a(S'w'
I12
tp4591
a(S'p2_vo'
I5
tp4592
a(S'w'
I7
tp4593
a(S'p1_vo'
I5
tp4594
a(S'w'
I720
tp4595
a(S'ch_no'
I1
tp4596
a(S'ch_tr'
I1
tp4597
a(S'ch_p2'
I1
tp4598
a(S'ch_p1'
I1
tp4599
a(S'w'
I1
tp4600
a(S'ch_no'
I1
tp4601
a(S'ch_tr'
I1
tp4602
a(S'ch_p2'
I1
tp4603
a(S'ch_p1'
I1
tp4604
a(S'w'
I6
tp4605
a(S'no_np'
I2
tp4606
a(S'no_ll'
I1
tp4607
a(S'w'
I1
tp4608
a(S'no_vo'
I2
tp4609
a(S'w'
I720
tp4610
a(S'no_vo'
I0
tp4611
a(S'w'
I755
tp4612
a(S'w'
I4
tp4613
a(S'p2_vo'
I1
tp4614
a(S'w'
I17
tp4615
a(S'w'
I4
tp4616
a(S'p1_vo'
I1
tp4617
a(S'w'
I1440
tp4618
a(S'tr_lr'
I0
tp4619
a(S'w'
I1453
tp4620
a(S'no_np'
I0
tp4621
a(S'no_ll'
I1
tp4622
a(S'w'
I2
tp4623
a(S'no_vo'
I2
tp4624
a(S'w'
I20
tp4625
a(S'tr_ll'
I1
tp4626
a(S'w'
I1
tp4627
a(S'tr_lr'
I127
tp4628
a(S'w'
I29
tp4629
a(S'w'
I1
tp4630
a(S'p2_ll'
I1
tp4631
a(S'w'
I3
tp4632
a(S'p2_vo'
I6
tp4633
a(S'w'
I29
tp4634
a(S'w'
I2
tp4635
a(S'p1_ll'
I1
tp4636
a(S'w'
I2
tp4637
a(S'p1_vo'
I6
tp4638
a(S'w'
I641
tp4639
a(S'no_vo'
I0
tp4640
a(S'w'
I2224
tp4641
a(S'w'
I3
tp4642
a(S'p2_vo'
I1
tp4643
a(S'w'
I18
tp4644
a(S'w'
I3
tp4645
a(S'p1_vo'
I1
tp4646
a(S'w'
I693
tp4647
a(S'tr_lr'
I0
tp4648
a(S'w'
I742
tp4649
a(S'ch_no'
I1
tp4650
a(S'ch_tr'
I1
tp4651
a(S'ch_p2'
I1
tp4652
a(S'ch_p1'
I1
tp4653
a(S'w'
I1
tp4654
a(S'ch_no'
I1
tp4655
a(S'ch_tr'
I1
tp4656
a(S'ch_p2'
I1
tp4657
a(S'ch_p1'
I1
tp4658
a(S'w'
I6
tp4659
a(S'no_ll'
I1
tp4660
a(S'w'
I1
tp4661
a(S'no_vo'
I2
tp4662
a(S'w'
I13
tp4663
a(S'tr_ll'
I1
tp4664
a(S'w'
I1
tp4665
a(S'tr_lr'
I127
tp4666
a(S'w'
I24
tp4667
a(S'w'
I1
tp4668
a(S'p2_ll'
I1
tp4669
a(S'w'
I3
tp4670
a(S'p2_vo'
I6
tp4671
a(S'w'
I24
tp4672
a(S'w'
I2
tp4673
a(S'p1_ll'
I1
tp4674
a(S'w'
I2
tp4675
a(S'p1_vo'
I6
tp4676
a(S'w'
I642
tp4677
a(S'no_vo'
I0
tp4678
a(S'w'
I2224
tp4679
a(S'w'
I3
tp4680
a(S'p2_vo'
I1
tp4681
a(S'w'
I18
tp4682
a(S'w'
I3
tp4683
a(S'p1_vo'
I1
tp4684
a(S'w'
I693
tp4685
a(S'tr_lr'
I0
tp4686
a(S'w'
I733
tp4687
a(S'ch_no'
I1
tp4688
a(S'ch_tr'
I1
tp4689
a(S'ch_p2'
I1
tp4690
a(S'ch_p1'
I1
tp4691
a(S'w'
I1
tp4692
a(S'ch_no'
I1
tp4693
a(S'ch_tr'
I1
tp4694
a(S'ch_p2'
I1
tp4695
a(S'ch_p1'
I1
tp4696
a(S'w'
I6
tp4697
a(S'no_np'
I6
tp4698
a(S'no_ll'
I1
tp4699
a(S'w'
I2
tp4700
a(S'no_vo'
I10
tp4701
a(S'w'
I19
tp4702
a(S'tr_tl'
I103
tp4703
a(S'w'
I1
tp4704
a(S'tr_ll'
I1
tp4705
a(S'w'
I1
tp4706
a(S'tr_lr'
I127
tp4707
a(S'w'
I28
tp4708
a(S'p2_tl'
I179
tp4709
a(S'w'
I1
tp4710
a(S'p2_ll'
I1
tp4711
a(S'w'
I2
tp4712
a(S'p2_vo'
I6
tp4713
a(S'w'
I28
tp4714
a(S'p1_tl'
I239
tp4715
a(S'w'
I2
tp4716
a(S'p1_ll'
I1
tp4717
a(S'p1_th'
I0
tp4718
a(S'w'
I2
tp4719
a(S'p1_vo'
I6
tp4720
a(S'w'
I636
tp4721
a(S'no_vo'
I8
tp4722
a(S'w'
I747
tp4723
a(S'no_vo'
I6
tp4724
a(S'w'
I721
tp4725
a(S'no_vo'
I4
tp4726
a(S'w'
I733
tp4727
a(S'no_vo'
I2
tp4728
a(S'w'
I734
tp4729
a(S'no_vo'
I0
tp4730
a(S'w'
I12
tp4731
a(S'p2_vo'
I5
tp4732
a(S'w'
I7
tp4733
a(S'p1_vo'
I5
tp4734
a(S'w'
I2204
tp4735
a(S'w'
I3
tp4736
a(S'p2_vo'
I1
tp4737
a(S'w'
I18
tp4738
a(S'w'
I3
tp4739
a(S'p1_vo'
I1
tp4740
a(S'w'
I1440
tp4741
a(S'tr_lr'
I0
tp4742
a(S'w'
I1466
tp4743
a(S'ch_no'
I1
tp4744
a(S'ch_tr'
I1
tp4745
a(S'ch_p2'
I1
tp4746
a(S'ch_p1'
I1
tp4747
a(S'w'
I1
tp4748
a(S'ch_no'
I1
tp4749
a(S'ch_tr'
I1
tp4750
a(S'ch_p2'
I1
tp4751
a(S'ch_p1'
I1
tp4752
a(S'w'
I6
tp4753
a(S'no_np'
I2
tp4754
a(S'w'
I1
tp4755
a(S'no_ll'
I1
tp4756
a(S'w'
I1
tp4757
a(S'no_vo'
I2
tp4758
a(S'w'
I13
tp4759
a(S'tr_tl'
I252
tp4760
a(S'w'
I2
tp4761
a(S'tr_ll'
I1
tp4762
a(S'tr_lr'
I127
tp4763
a(S'w'
I25
tp4764
a(S'p2_tl'
I254
tp4765
a(S'w'
I1
tp4766
a(S'p2_ll'
I1
tp4767
a(S'w'
I2
tp4768
a(S'p2_vo'
I6
tp4769
a(S'w'
I25
tp4770
a(S'p1_tl'
I83
tp4771
a(S'w'
I1
tp4772
a(S'p1_ll'
I1
tp4773
a(S'p1_th'
I1
tp4774
a(S'w'
I3
tp4775
a(S'p1_vo'
I6
tp4776
a(S'w'
I637
tp4777
a(S'no_vo'
I0
tp4778
a(S'w'
I2945
tp4779
a(S'p2_vo'
I5
tp4780
a(S'w'
I7
tp4781
a(S'p1_vo'
I5
tp4782
a(S'w'
I2205
tp4783
a(S'w'
I4
tp4784
a(S'p2_vo'
I1
tp4785
a(S'w'
I17
tp4786
a(S'w'
I4
tp4787
a(S'p1_vo'
I1
tp4788
a(S'w'
I1427
tp4789
a(S'tr_lr'
I0
tp4790
a(S'w'
I1467
tp4791
a(S'ch_no'
I1
tp4792
a(S'ch_tr'
I1
tp4793
a(S'ch_p2'
I1
tp4794
a(S'ch_p1'
I1
tp4795
a(S'w'
I1
tp4796
a(S'ch_no'
I1
tp4797
a(S'ch_tr'
I1
tp4798
a(S'ch_p2'
I1
tp4799
a(S'ch_p1'
I1
tp4800
a(S'w'
I6
tp4801
a(S'no_np'
I6
tp4802
a(S'no_ll'
I1
tp4803
a(S'w'
I2
tp4804
a(S'no_vo'
I10
tp4805
a(S'w'
I13
tp4806
a(S'tr_tl'
I124
tp4807
a(S'w'
I1
tp4808
a(S'tr_ll'
I1
tp4809
a(S'w'
I1
tp4810
a(S'tr_lr'
I127
tp4811
a(S'w'
I24
tp4812
a(S'p2_tl'
I190
tp4813
a(S'w'
I2
tp4814
a(S'p2_ll'
I1
tp4815
a(S'w'
I2
tp4816
a(S'p2_vo'
I6
tp4817
a(S'w'
I24
tp4818
a(S'p1_tl'
I254
tp4819
a(S'w'
I2
tp4820
a(S'p1_ll'
I1
tp4821
a(S'p1_th'
I0
tp4822
a(S'w'
I2
tp4823
a(S'p1_vo'
I6
tp4824
a(S'w'
I649
tp4825
a(S'no_vo'
I8
tp4826
a(S'w'
I747
tp4827
a(S'no_vo'
I6
tp4828
a(S'w'
I721
tp4829
a(S'no_vo'
I4
tp4830
a(S'w'
I734
tp4831
a(S'no_vo'
I2
tp4832
a(S'w'
I733
tp4833
a(S'no_vo'
I0
tp4834
a(S'w'
I12
tp4835
a(S'p2_vo'
I5
tp4836
a(S'w'
I7
tp4837
a(S'p1_vo'
I5
tp4838
a(S'w'
I2204
tp4839
a(S'w'
I3
tp4840
a(S'p2_vo'
I1
tp4841
a(S'w'
I18
tp4842
a(S'w'
I3
tp4843
a(S'p1_vo'
I1
tp4844
a(S'w'
I1440
tp4845
a(S'tr_lr'
I0
tp4846
a(S'w'
I1454
tp4847
a(S'no_np'
I0
tp4848
a(S'no_ll'
I1
tp4849
a(S'w'
I2
tp4850
a(S'no_vo'
I10
tp4851
a(S'w'
I13
tp4852
a(S'tr_tl'
I252
tp4853
a(S'w'
I1
tp4854
a(S'tr_ll'
I1
tp4855
a(S'w'
I1
tp4856
a(S'tr_lr'
I127
tp4857
a(S'w'
I24
tp4858
a(S'p2_tl'
I254
tp4859
a(S'w'
I1
tp4860
a(S'p2_ll'
I1
tp4861
a(S'w'
I3
tp4862
a(S'p2_vo'
I6
tp4863
a(S'w'
I24
tp4864
a(S'p1_tl'
I83
tp4865
a(S'w'
I2
tp4866
a(S'p1_ll'
I1
tp4867
a(S'p1_th'
I1
tp4868
a(S'w'
I2
tp4869
a(S'p1_vo'
I6
tp4870
a(S'w'
I657
tp4871
a(S'no_vo'
I8
tp4872
a(S'w'
I734
tp4873
a(S'no_vo'
I6
tp4874
a(S'w'
I734
tp4875
a(S'no_vo'
I4
tp4876
a(S'w'
I733
tp4877
a(S'no_vo'
I2
tp4878
a(S'w'
I734
tp4879
a(S'no_vo'
I0
tp4880
a(S'w'
I12
tp4881
a(S'p2_vo'
I5
tp4882
a(S'w'
I7
tp4883
a(S'p1_vo'
I5
tp4884
a(S'w'
I733
tp4885
a(S'ch_no'
I1
tp4886
a(S'ch_tr'
I1
tp4887
a(S'ch_p2'
I1
tp4888
a(S'ch_p1'
I1
tp4889
a(S'w'
I1
tp4890
a(S'ch_no'
I1
tp4891
a(S'ch_tr'
I1
tp4892
a(S'ch_p2'
I1
tp4893
a(S'ch_p1'
I1
tp4894
a(S'w'
I6
tp4895
a(S'no_np'
I2
tp4896
a(S'no_ll'
I1
tp4897
a(S'w'
I2
tp4898
a(S'no_vo'
I2
tp4899
a(S'w'
I707
tp4900
a(S'no_vo'
I0
tp4901
a(S'w'
I755
tp4902
a(S'w'
I3
tp4903
a(S'p2_vo'
I1
tp4904
a(S'w'
I18
tp4905
a(S'w'
I3
tp4906
a(S'p1_vo'
I1
tp4907
a(S'w'
I1427
tp4908
a(S'tr_lr'
I0
tp4909
a(S'w'
I1468
tp4910
a(S'ch_no'
I1
tp4911
a(S'ch_tr'
I1
tp4912
a(S'ch_p2'
I1
tp4913
a(S'ch_p1'
I1
tp4914
a(S'ch_no'
I1
tp4915
a(S'ch_tr'
I1
tp4916
a(S'ch_p2'
I1
tp4917
a(S'ch_p1'
I1
tp4918
a(S'w'
I7
tp4919
a(S'no_np'
I6
tp4920
a(S'no_ll'
I1
tp4921
a(S'w'
I1
tp4922
a(S'no_vo'
I10
tp4923
a(S'w'
I13
tp4924
a(S'tr_tl'
I171
tp4925
a(S'w'
I2
tp4926
a(S'tr_ll'
I1
tp4927
a(S'w'
I1
tp4928
a(S'tr_lr'
I127
tp4929
a(S'w'
I24
tp4930
a(S'p2_tl'
I213
tp4931
a(S'w'
I1
tp4932
a(S'p2_ll'
I1
tp4933
a(S'w'
I3
tp4934
a(S'p2_vo'
I6
tp4935
a(S'w'
I24
tp4936
a(S'p1_tl'
I29
tp4937
a(S'w'
I1
tp4938
a(S'p1_ll'
I1
tp4939
a(S'w'
I3
tp4940
a(S'p1_vo'
I6
tp4941
a(S'w'
I649
tp4942
a(S'no_vo'
I8
tp4943
a(S'w'
I746
tp4944
a(S'no_vo'
I6
tp4945
a(S'w'
I721
tp4946
a(S'no_vo'
I4
tp4947
a(S'w'
I734
tp4948
a(S'no_vo'
I2
tp4949
a(S'w'
I734
tp4950
a(S'no_vo'
I0
tp4951
a(S'w'
I12
tp4952
a(S'p2_vo'
I5
tp4953
a(S'w'
I7
tp4954
a(S'p1_vo'
I5
tp4955
a(S'w'
I2203
tp4956
a(S'w'
I4
tp4957
a(S'p2_vo'
I1
tp4958
a(S'w'
I17
tp4959
a(S'w'
I4
tp4960
a(S'p1_vo'
I1
tp4961
a(S'w'
I1439
tp4962
a(S'tr_lr'
I0
tp4963
a(S'w'
I1455
tp4964
a(S'ch_no'
I1
tp4965
a(S'ch_tr'
I1
tp4966
a(S'ch_p2'
I1
tp4967
a(S'ch_p1'
I1
tp4968
a(S'w'
I1
tp4969
a(S'ch_no'
I1
tp4970
a(S'ch_tr'
I1
tp4971
a(S'ch_p2'
I1
tp4972
a(S'ch_p1'
I1
tp4973
a(S'w'
I6
tp4974
a(S'no_np'
I2
tp4975
a(S'no_ll'
I1
tp4976
a(S'w'
I2
tp4977
a(S'no_vo'
I2
tp4978
a(S'w'
I11
tp4979
a(S'tr_tl'
I124
tp4980
a(S'w'
I2
tp4981
a(S'tr_ll'
I1
tp4982
a(S'tr_lr'
I127
tp4983
a(S'w'
I25
tp4984
a(S'p2_tl'
I190
tp4985
a(S'w'
I1
tp4986
a(S'p2_ll'
I1
tp4987
a(S'w'
I2
tp4988
a(S'p2_vo'
I6
tp4989
a(S'w'
I25
tp4990
a(S'p1_tl'
I254
tp4991
a(S'w'
I1
tp4992
a(S'p1_ll'
I1
tp4993
a(S'p1_th'
I0
tp4994
a(S'w'
I3
tp4995
a(S'p1_vo'
I6
tp4996
a(S'w'
I650
tp4997
a(S'no_vo'
I0
tp4998
a(S'w'
I2946
tp4999
a(S'p2_vo'
I5
tp5000
a(S'w'
I7
tp5001
a(S'p1_vo'
I5
tp5002
a(S'w'
I2205
tp5003
a(S'w'
I3
tp5004
a(S'p2_vo'
I1
tp5005
a(S'w'
I18
tp5006
a(S'w'
I3
tp5007
a(S'p1_vo'
I1
tp5008
a(S'w'
I1427
tp5009
a(S'tr_lr'
I0
tp5010
a(S'w'
I1468
tp5011
a(S'ch_no'
I1
tp5012
a(S'ch_tr'
I1
tp5013
a(S'ch_p2'
I1
tp5014
a(S'ch_p1'
I1
tp5015
a(S'w'
I1
tp5016
a(S'ch_no'
I1
tp5017
a(S'ch_tr'
I1
tp5018
a(S'ch_p2'
I1
tp5019
a(S'ch_p1'
I1
tp5020
a(S'w'
I6
tp5021
a(S'no_np'
I6
tp5022
a(S'no_ll'
I1
tp5023
a(S'w'
I2
tp5024
a(S'no_vo'
I10
tp5025
a(S'w'
I13
tp5026
a(S'tr_tl'
I58
tp5027
a(S'w'
I1
tp5028
a(S'tr_ll'
I1
tp5029
a(S'tr_th'
I2
tp5030
a(S'w'
I1
tp5031
a(S'tr_lr'
I127
tp5032
a(S'w'
I24
tp5033
a(S'p2_tl'
I29
tp5034
a(S'w'
I1
tp5035
a(S'p2_ll'
I1
tp5036
a(S'p2_th'
I1
tp5037
a(S'w'
I3
tp5038
a(S'p2_vo'
I6
tp5039
a(S'w'
I24
tp5040
a(S'p1_tl'
I124
tp5041
a(S'w'
I2
tp5042
a(S'p1_ll'
I1
tp5043
a(S'p1_th'
I1
tp5044
a(S'w'
I2
tp5045
a(S'p1_vo'
I6
tp5046
a(S'w'
I649
tp5047
a(S'no_vo'
I8
tp5048
a(S'w'
I747
tp5049
a(S'no_vo'
I6
tp5050
a(S'w'
I720
tp5051
a(S'no_vo'
I4
tp5052
a(S'w'
I734
tp5053
a(S'no_vo'
I2
tp5054
a(S'w'
I734
tp5055
a(S'no_vo'
I0
tp5056
a(S'w'
I12
tp5057
a(S'p2_vo'
I5
tp5058
a(S'w'
I7
tp5059
a(S'p1_vo'
I5
tp5060
a(S'w'
I720
tp5061
a(S'ch_no'
I1
tp5062
a(S'ch_tr'
I1
tp5063
a(S'ch_p2'
I1
tp5064
a(S'ch_p1'
I1
tp5065
a(S'w'
I1
tp5066
a(S'ch_no'
I1
tp5067
a(S'ch_tr'
I1
tp5068
a(S'ch_p2'
I1
tp5069
a(S'ch_p1'
I1
tp5070
a(S'w'
I6
tp5071
a(S'no_np'
I2
tp5072
a(S'no_ll'
I1
tp5073
a(S'w'
I1
tp5074
a(S'no_vo'
I2
tp5075
a(S'w'
I720
tp5076
a(S'no_vo'
I0
tp5077
a(S'w'
I755
tp5078
a(S'w'
I4
tp5079
a(S'p2_vo'
I1
tp5080
a(S'w'
I17
tp5081
a(S'w'
I4
tp5082
a(S'p1_vo'
I1
tp5083
a(S'w'
I1440
tp5084
a(S'tr_lr'
I0
tp5085
a(S'w'
I1453
tp5086
a(S'no_np'
I0
tp5087
a(S'no_ll'
I1
tp5088
a(S'w'
I2
tp5089
a(S'no_vo'
I2
tp5090
a(S'w'
I11
tp5091
a(S'tr_tl'
I26
tp5092
a(S'w'
I1
tp5093
a(S'tr_ll'
I1
tp5094
a(S'w'
I1
tp5095
a(S'tr_lr'
I127
tp5096
a(S'w'
I24
tp5097
a(S'p2_tl'
I13
tp5098
a(S'w'
I2
tp5099
a(S'p2_ll'
I1
tp5100
a(S'w'
I2
tp5101
a(S'p2_vo'
I6
tp5102
a(S'w'
I24
tp5103
a(S'p1_tl'
I103
tp5104
a(S'w'
I2
tp5105
a(S'p1_ll'
I1
tp5106
a(S'w'
I2
tp5107
a(S'p1_vo'
I6
tp5108
a(S'w'
I659
tp5109
a(S'no_vo'
I0
tp5110
a(S'w'
I2946
tp5111
a(S'p2_vo'
I5
tp5112
a(S'w'
I7
tp5113
a(S'p1_vo'
I5
tp5114
a(S'w'
I730
tp5115
a(S'ch_no'
I1
tp5116
a(S'ch_tr'
I1
tp5117
a(S'ch_p2'
I1
tp5118
a(S'ch_p1'
I1
tp5119
a(S'w'
I1
tp5120
a(S'ch_no'
I1
tp5121
a(S'ch_tr'
I1
tp5122
a(S'ch_p2'
I1
tp5123
a(S'ch_p1'
I1
tp5124
a(S'w'
I6
tp5125
a(S'no_ll'
I1
tp5126
a(S'w'
I1
tp5127
a(S'no_vo'
I2
tp5128
a(S'w'
I712
tp5129
a(S'no_vo'
I0
tp5130
a(S'w'
I755
tp5131
a(S'w'
I4
tp5132
a(S'p2_vo'
I1
tp5133
a(S'w'
I17
tp5134
a(S'w'
I4
tp5135
a(S'p1_vo'
I1
tp5136
a(S'w'
I1426
tp5137
a(S'tr_lr'
I0
tp5138
a(S'w'
I1468
tp5139
a(S'ch_no'
I1
tp5140
a(S'ch_tr'
I1
tp5141
a(S'ch_p2'
I1
tp5142
a(S'ch_p1'
I1
tp5143
a(S'w'
I1
tp5144
a(S'ch_no'
I1
tp5145
a(S'ch_tr'
I1
tp5146
a(S'ch_p2'
I1
tp5147
a(S'ch_p1'
I1
tp5148
a(S'w'
I6
tp5149
a(S'no_np'
I6
tp5150
a(S'no_ll'
I1
tp5151
a(S'w'
I2
tp5152
a(S'no_vo'
I10
tp5153
a(S'w'
I11
tp5154
a(S'tr_tl'
I252
tp5155
a(S'w'
I1
tp5156
a(S'tr_ll'
I1
tp5157
a(S'tr_th'
I1
tp5158
a(S'w'
I1
tp5159
a(S'tr_lr'
I127
tp5160
a(S'w'
I24
tp5161
a(S'p2_tl'
I254
tp5162
a(S'w'
I2
tp5163
a(S'p2_ll'
I1
tp5164
a(S'p2_th'
I0
tp5165
a(S'w'
I2
tp5166
a(S'p2_vo'
I6
tp5167
a(S'w'
I25
tp5168
a(S'p1_tl'
I83
tp5169
a(S'w'
I1
tp5170
a(S'p1_ll'
I1
tp5171
a(S'w'
I2
tp5172
a(S'p1_vo'
I6
tp5173
a(S'w'
I651
tp5174
a(S'no_vo'
I8
tp5175
a(S'w'
I747
tp5176
a(S'no_vo'
I6
tp5177
a(S'w'
I721
tp5178
a(S'no_vo'
I4
tp5179
a(S'w'
I733
tp5180
a(S'no_vo'
I2
tp5181
a(S'w'
I734
tp5182
a(S'no_vo'
I0
tp5183
a(S'w'
I12
tp5184
a(S'p2_vo'
I5
tp5185
a(S'w'
I7
tp5186
a(S'p1_vo'
I5
tp5187
a(S'w'
I2204
tp5188
a(S'w'
I3
tp5189
a(S'p2_vo'
I1
tp5190
a(S'w'
I18
tp5191
a(S'w'
I3
tp5192
a(S'p1_vo'
I1
tp5193
a(S'w'
I1440
tp5194
a(S'tr_lr'
I0
tp5195
a(S'w'
I1466
tp5196
a(S'ch_no'
I1
tp5197
a(S'ch_tr'
I1
tp5198
a(S'ch_p2'
I1
tp5199
a(S'ch_p1'
I1
tp5200
a(S'w'
I1
tp5201
a(S'ch_no'
I1
tp5202
a(S'ch_tr'
I1
tp5203
a(S'ch_p2'
I1
tp5204
a(S'ch_p1'
I1
tp5205
a(S'w'
I6
tp5206
a(S'no_np'
I2
tp5207
a(S'w'
I1
tp5208
a(S'no_ll'
I1
tp5209
a(S'w'
I1
tp5210
a(S'no_vo'
I2
tp5211
a(S'w'
I33
tp5212
a(S'tr_ll'
I1
tp5213
a(S'tr_lr'
I127
tp5214
a(S'w'
I41
tp5215
a(S'w'
I2
tp5216
a(S'p2_ll'
I1
tp5217
a(S'w'
I2
tp5218
a(S'p2_vo'
I6
tp5219
a(S'w'
I41
tp5220
a(S'w'
I2
tp5221
a(S'p1_ll'
I1
tp5222
a(S'w'
I2
tp5223
a(S'p1_vo'
I6
tp5224
a(S'w'
I585
tp5225
a(S'no_vo'
I0
tp5226
a(S'w'
I2224
tp5227
a(S'w'
I4
tp5228
a(S'p2_vo'
I1
tp5229
a(S'w'
I17
tp5230
a(S'w'
I4
tp5231
a(S'p1_vo'
I1
tp5232
a(S'w'
I692
tp5233
a(S'tr_lr'
I0
tp5234
a(S'w'
I752
tp5235
a(S'tr_ll'
I1
tp5236
a(S'w'
I1
tp5237
a(S'tr_lr'
I127
tp5238
a(S'w'
I25
tp5239
a(S'w'
I1
tp5240
a(S'p2_ll'
I1
tp5241
a(S'w'
I2
tp5242
a(S'p2_vo'
I6
tp5243
a(S'w'
I25
tp5244
a(S'w'
I1
tp5245
a(S'p1_ll'
I1
tp5246
a(S'w'
I2
tp5247
a(S'p1_vo'
I6
tp5248
a(S'w'
I2877
tp5249
a(S'w'
I3
tp5250
a(S'p2_vo'
I1
tp5251
a(S'w'
I18
tp5252
a(S'w'
I3
tp5253
a(S'p1_vo'
I1
tp5254
a(S'w'
I693
tp5255
a(S'tr_lr'
I0
tp5256
a(S'w'
I733
tp5257
a(S'ch_no'
I1
tp5258
a(S'ch_tr'
I1
tp5259
a(S'ch_p2'
I1
tp5260
a(S'ch_p1'
I1
tp5261
a(S'w'
I1
tp5262
a(S'ch_no'
I1
tp5263
a(S'ch_tr'
I1
tp5264
a(S'ch_p2'
I1
tp5265
a(S'ch_p1'
I1
tp5266
a(S'w'
I6
tp5267
a(S'no_np'
I6
tp5268
a(S'no_ll'
I1
tp5269
a(S'w'
I2
tp5270
a(S'no_vo'
I10
tp5271
a(S'w'
I19
tp5272
a(S'tr_tl'
I171
tp5273
a(S'w'
I1
tp5274
a(S'tr_ll'
I1
tp5275
a(S'w'
I1
tp5276
a(S'tr_lr'
I127
tp5277
a(S'w'
I28
tp5278
a(S'p2_tl'
I213
tp5279
a(S'w'
I1
tp5280
a(S'p2_ll'
I1
tp5281
a(S'w'
I2
tp5282
a(S'p2_vo'
I6
tp5283
a(S'w'
I28
tp5284
a(S'p1_tl'
I29
tp5285
a(S'w'
I2
tp5286
a(S'p1_ll'
I1
tp5287
a(S'w'
I2
tp5288
a(S'p1_vo'
I6
tp5289
a(S'w'
I636
tp5290
a(S'no_vo'
I8
tp5291
a(S'w'
I747
tp5292
a(S'no_vo'
I6
tp5293
a(S'w'
I721
tp5294
a(S'no_vo'
I4
tp5295
a(S'w'
I734
tp5296
a(S'no_vo'
I2
tp5297
a(S'w'
I733
tp5298
a(S'no_vo'
I0
tp5299
a(S'w'
I12
tp5300
a(S'p2_vo'
I5
tp5301
a(S'w'
I7
tp5302
a(S'p1_vo'
I5
tp5303
a(S'w'
I2204
tp5304
a(S'w'
I3
tp5305
a(S'p2_vo'
I1
tp5306
a(S'w'
I18
tp5307
a(S'w'
I3
tp5308
a(S'p1_vo'
I1
tp5309
a(S'w'
I1440
tp5310
a(S'tr_lr'
I0
tp5311
a(S'w'
I1454
tp5312
a(S'no_np'
I0
tp5313
a(S'no_ll'
I1
tp5314
a(S'w'
I1
tp5315
a(S'no_vo'
I10
tp5316
a(S'w'
I14
tp5317
a(S'tr_tl'
I252
tp5318
a(S'w'
I1
tp5319
a(S'tr_ll'
I1
tp5320
a(S'w'
I1
tp5321
a(S'tr_lr'
I127
tp5322
a(S'w'
I24
tp5323
a(S'p2_tl'
I254
tp5324
a(S'w'
I1
tp5325
a(S'p2_ll'
I1
tp5326
a(S'w'
I3
tp5327
a(S'p2_vo'
I6
tp5328
a(S'w'
I24
tp5329
a(S'p1_tl'
I83
tp5330
a(S'w'
I2
tp5331
a(S'p1_ll'
I1
tp5332
a(S'w'
I2
tp5333
a(S'p1_vo'
I6
tp5334
a(S'w'
I657
tp5335
a(S'no_vo'
I8
tp5336
a(S'w'
I734
tp5337
a(S'no_vo'
I6
tp5338
a(S'w'
I733
tp5339
a(S'no_vo'
I4
tp5340
a(S'w'
I734
tp5341
a(S'no_vo'
I2
tp5342
a(S'w'
I734
tp5343
a(S'no_vo'
I0
tp5344
a(S'w'
I12
tp5345
a(S'p2_vo'
I5
tp5346
a(S'w'
I7
tp5347
a(S'p1_vo'
I5
tp5348
a(S'w'
I733
tp5349
a(S'ch_no'
I1
tp5350
a(S'ch_tr'
I1
tp5351
a(S'ch_p2'
I1
tp5352
a(S'ch_p1'
I1
tp5353
a(S'w'
I1
tp5354
a(S'ch_no'
I1
tp5355
a(S'ch_tr'
I1
tp5356
a(S'ch_p2'
I1
tp5357
a(S'ch_p1'
I1
tp5358
a(S'w'
I6
tp5359
a(S'no_np'
I2
tp5360
a(S'no_ll'
I1
tp5361
a(S'w'
I1
tp5362
a(S'no_vo'
I2
tp5363
a(S'w'
I707
tp5364
a(S'no_vo'
I0
tp5365
a(S'w'
I755
tp5366
a(S'w'
I4
tp5367
a(S'p2_vo'
I1
tp5368
a(S'w'
I17
tp5369
a(S'w'
I4
tp5370
a(S'p1_vo'
I1
tp5371
a(S'w'
I1427
tp5372
a(S'tr_lr'
I0
tp5373
a(S'w'
I1468
tp5374
a(S'ch_no'
I1
tp5375
a(S'ch_tr'
I1
tp5376
a(S'ch_p2'
I1
tp5377
a(S'ch_p1'
I1
tp5378
a(S'ch_no'
I1
tp5379
a(S'ch_tr'
I1
tp5380
a(S'ch_p2'
I1
tp5381
a(S'ch_p1'
I1
tp5382
a(S'w'
I7
tp5383
a(S'no_np'
I6
tp5384
a(S'no_ll'
I1
tp5385
a(S'w'
I1
tp5386
a(S'no_vo'
I10
tp5387
a(S'w'
I20
tp5388
a(S'tr_ll'
I1
tp5389
a(S'w'
I1
tp5390
a(S'tr_lr'
I127
tp5391
a(S'w'
I30
tp5392
a(S'w'
I1
tp5393
a(S'p2_ll'
I1
tp5394
a(S'w'
I2
tp5395
a(S'p2_vo'
I6
tp5396
a(S'w'
I30
tp5397
a(S'w'
I1
tp5398
a(S'p1_ll'
I1
tp5399
a(S'w'
I2
tp5400
a(S'p1_vo'
I6
tp5401
a(S'w'
I633
tp5402
a(S'no_vo'
I8
tp5403
a(S'w'
I747
tp5404
a(S'no_vo'
I6
tp5405
a(S'w'
I721
tp5406
a(S'no_vo'
I4
tp5407
a(S'w'
I734
tp5408
a(S'no_vo'
I2
tp5409
a(S'w'
I24
tp5410
a(S'w'
I3
tp5411
a(S'p2_vo'
I1
tp5412
a(S'w'
I18
tp5413
a(S'w'
I3
tp5414
a(S'p1_vo'
I1
tp5415
a(S'w'
I686
tp5416
a(S'no_vo'
I0
tp5417
a(S'w'
I6
tp5418
a(S'tr_lr'
I0
tp5419
a(S'w'
I738
tp5420
a(S'tr_ll'
I1
tp5421
a(S'w'
I1
tp5422
a(S'tr_lr'
I127
tp5423
a(S'w'
I24
tp5424
a(S'w'
I2
tp5425
a(S'p2_ll'
I1
tp5426
a(S'w'
I2
tp5427
a(S'p2_vo'
I6
tp5428
a(S'w'
I25
tp5429
a(S'w'
I1
tp5430
a(S'p1_ll'
I1
tp5431
a(S'w'
I2
tp5432
a(S'p1_vo'
I6
tp5433
a(S'w'
I2903
tp5434
a(S'w'
I3
tp5435
a(S'p2_vo'
I1
tp5436
a(S'w'
I18
tp5437
a(S'w'
I3
tp5438
a(S'p1_vo'
I1
tp5439
a(S'w'
I680
tp5440
a(S'tr_lr'
I0
tp5441
a(S'w'
I733
tp5442
a(S'ch_no'
I1
tp5443
a(S'ch_tr'
I1
tp5444
a(S'ch_p2'
I1
tp5445
a(S'ch_p1'
I1
tp5446
a(S'w'
I1
tp5447
a(S'ch_no'
I1
tp5448
a(S'ch_tr'
I1
tp5449
a(S'ch_p2'
I1
tp5450
a(S'ch_p1'
I1
tp5451
a(S'w'
I6
tp5452
a(S'no_np'
I2
tp5453
a(S'no_ll'
I1
tp5454
a(S'w'
I2
tp5455
a(S'no_vo'
I2
tp5456
a(S'w'
I19
tp5457
a(S'tr_tl'
I124
tp5458
a(S'w'
I1
tp5459
a(S'tr_ll'
I1
tp5460
a(S'w'
I1
tp5461
a(S'tr_lr'
I127
tp5462
a(S'w'
I28
tp5463
a(S'p2_tl'
I190
tp5464
a(S'w'
I1
tp5465
a(S'p2_ll'
I1
tp5466
a(S'w'
I3
tp5467
a(S'p2_vo'
I6
tp5468
a(S'w'
I27
tp5469
a(S'p1_tl'
I254
tp5470
a(S'w'
I2
tp5471
a(S'p1_ll'
I1
tp5472
a(S'p1_th'
I0
tp5473
a(S'w'
I2
tp5474
a(S'p1_vo'
I6
tp5475
a(S'w'
I636
tp5476
a(S'no_vo'
I0
tp5477
a(S'w'
I2946
tp5478
a(S'p2_vo'
I5
tp5479
a(S'w'
I7
tp5480
a(S'p1_vo'
I5
tp5481
a(S'w'
I2205
tp5482
a(S'w'
I3
tp5483
a(S'p2_vo'
I1
tp5484
a(S'w'
I18
tp5485
a(S'w'
I3
tp5486
a(S'p1_vo'
I1
tp5487
a(S'w'
I1427
tp5488
a(S'tr_lr'
I0
tp5489
a(S'w'
I1468
tp5490
a(S'ch_no'
I1
tp5491
a(S'ch_tr'
I1
tp5492
a(S'ch_p2'
I1
tp5493
a(S'ch_p1'
I1
tp5494
a(S'w'
I1
tp5495
a(S'ch_no'
I1
tp5496
a(S'ch_tr'
I1
tp5497
a(S'ch_p2'
I1
tp5498
a(S'ch_p1'
I1
tp5499
a(S'w'
I6
tp5500
a(S'no_np'
I6
tp5501
a(S'no_ll'
I1
tp5502
a(S'w'
I1
tp5503
a(S'no_vo'
I10
tp5504
a(S'w'
I14
tp5505
a(S'tr_tl'
I252
tp5506
a(S'w'
I1
tp5507
a(S'tr_ll'
I1
tp5508
a(S'w'
I1
tp5509
a(S'tr_lr'
I127
tp5510
a(S'w'
I24
tp5511
a(S'p2_tl'
I254
tp5512
a(S'w'
I1
tp5513
a(S'p2_ll'
I1
tp5514
a(S'w'
I3
tp5515
a(S'p2_vo'
I6
tp5516
a(S'w'
I24
tp5517
a(S'p1_tl'
I83
tp5518
a(S'w'
I2
tp5519
a(S'p1_ll'
I1
tp5520
a(S'p1_th'
I1
tp5521
a(S'w'
I2
tp5522
a(S'p1_vo'
I6
tp5523
a(S'w'
I649
tp5524
a(S'no_vo'
I8
tp5525
a(S'w'
I747
tp5526
a(S'no_vo'
I6
tp5527
a(S'w'
I720
tp5528
a(S'no_vo'
I4
tp5529
a(S'w'
I734
tp5530
a(S'no_vo'
I2
tp5531
a(S'w'
I734
tp5532
a(S'no_vo'
I0
tp5533
a(S'w'
I12
tp5534
a(S'p2_vo'
I5
tp5535
a(S'w'
I7
tp5536
a(S'p1_vo'
I5
tp5537
a(S'w'
I720
tp5538
a(S'ch_no'
I1
tp5539
a(S'ch_tr'
I1
tp5540
a(S'ch_p2'
I1
tp5541
a(S'ch_p1'
I1
tp5542
a(S'ch_no'
I1
tp5543
a(S'ch_tr'
I1
tp5544
a(S'ch_p2'
I1
tp5545
a(S'ch_p1'
I1
tp5546
a(S'w'
I7
tp5547
a(S'no_np'
I2
tp5548
a(S'no_ll'
I1
tp5549
a(S'w'
I1
tp5550
a(S'no_vo'
I2
tp5551
a(S'w'
I720
tp5552
a(S'no_vo'
I0
tp5553
a(S'w'
I755
tp5554
a(S'w'
I4
tp5555
a(S'p2_vo'
I1
tp5556
a(S'w'
I17
tp5557
a(S'w'
I4
tp5558
a(S'p1_vo'
I1
tp5559
a(S'w'
I1440
tp5560
a(S'tr_lr'
I0
tp5561
a(S'w'
I1453
tp5562
a(S'no_np'
I0
tp5563
a(S'no_ll'
I1
tp5564
a(S'w'
I1
tp5565
a(S'no_vo'
I2
tp5566
a(S'w'
I21
tp5567
a(S'tr_ll'
I1
tp5568
a(S'tr_lr'
I127
tp5569
a(S'w'
I30
tp5570
a(S'w'
I1
tp5571
a(S'p2_ll'
I1
tp5572
a(S'w'
I2
tp5573
a(S'p2_vo'
I6
tp5574
a(S'w'
I30
tp5575
a(S'w'
I1
tp5576
a(S'p1_ll'
I1
tp5577
a(S'w'
I3
tp5578
a(S'p1_vo'
I6
tp5579
a(S'w'
I641
tp5580
a(S'no_vo'
I0
tp5581
a(S'w'
I2224
tp5582
a(S'w'
I3
tp5583
a(S'p2_vo'
I1
tp5584
a(S'w'
I18
tp5585
a(S'w'
I3
tp5586
a(S'p1_vo'
I1
tp5587
a(S'w'
I693
tp5588
a(S'tr_lr'
I0
tp5589
a(S'w'
I742
tp5590
a(S'ch_no'
I1
tp5591
a(S'ch_tr'
I1
tp5592
a(S'ch_p2'
I1
tp5593
a(S'ch_p1'
I1
tp5594
a(S'w'
I1
tp5595
a(S'ch_no'
I1
tp5596
a(S'ch_tr'
I1
tp5597
a(S'ch_p2'
I1
tp5598
a(S'ch_p1'
I1
tp5599
a(S'w'
I6
tp5600
a(S'no_ll'
I1
tp5601
a(S'w'
I1
tp5602
a(S'no_vo'
I2
tp5603
a(S'w'
I13
tp5604
a(S'tr_ll'
I1
tp5605
a(S'w'
I1
tp5606
a(S'tr_lr'
I127
tp5607
a(S'w'
I24
tp5608
a(S'w'
I1
tp5609
a(S'p2_ll'
I1
tp5610
a(S'w'
I3
tp5611
a(S'p2_vo'
I6
tp5612
a(S'w'
I24
tp5613
a(S'w'
I2
tp5614
a(S'p1_ll'
I1
tp5615
a(S'w'
I2
tp5616
a(S'p1_vo'
I6
tp5617
a(S'w'
I642
tp5618
a(S'no_vo'
I0
tp5619
a(S'w'
I2224
tp5620
a(S'w'
I3
tp5621
a(S'p2_vo'
I1
tp5622
a(S'w'
I18
tp5623
a(S'w'
I3
tp5624
a(S'p1_vo'
I1
tp5625
a(S'w'
I693
tp5626
a(S'tr_lr'
I0
tp5627
a(S'w'
I733
tp5628
a(S'ch_no'
I1
tp5629
a(S'ch_tr'
I1
tp5630
a(S'ch_p2'
I1
tp5631
a(S'ch_p1'
I1
tp5632
a(S'w'
I1
tp5633
a(S'ch_no'
I1
tp5634
a(S'ch_tr'
I1
tp5635
a(S'ch_p2'
I1
tp5636
a(S'ch_p1'
I1
tp5637
a(S'w'
I6
tp5638
a(S'no_np'
I6
tp5639
a(S'no_ll'
I1
tp5640
a(S'w'
I2
tp5641
a(S'no_vo'
I10
tp5642
a(S'w'
I19
tp5643
a(S'tr_tl'
I103
tp5644
a(S'w'
I1
tp5645
a(S'tr_ll'
I1
tp5646
a(S'w'
I1
tp5647
a(S'tr_lr'
I127
tp5648
a(S'w'
I28
tp5649
a(S'p2_tl'
I179
tp5650
a(S'w'
I1
tp5651
a(S'p2_ll'
I1
tp5652
a(S'w'
I2
tp5653
a(S'p2_vo'
I6
tp5654
a(S'w'
I28
tp5655
a(S'p1_tl'
I239
tp5656
a(S'w'
I2
tp5657
a(S'p1_ll'
I1
tp5658
a(S'p1_th'
I0
tp5659
a(S'w'
I2
tp5660
a(S'p1_vo'
I6
tp5661
a(S'w'
I636
tp5662
a(S'no_vo'
I8
tp5663
a(S'w'
I747
tp5664
a(S'no_vo'
I6
tp5665
a(S'w'
I721
tp5666
a(S'no_vo'
I4
tp5667
a(S'w'
I733
tp5668
a(S'no_vo'
I2
tp5669
a(S'w'
I734
tp5670
a(S'no_vo'
I0
tp5671
a(S'w'
I12
tp5672
a(S'p2_vo'
I5
tp5673
a(S'w'
I7
tp5674
a(S'p1_vo'
I5
tp5675
a(S'w'
I2204
tp5676
a(S'w'
I3
tp5677
a(S'p2_vo'
I1
tp5678
a(S'w'
I18
tp5679
a(S'w'
I3
tp5680
a(S'p1_vo'
I1
tp5681
a(S'w'
I1440
tp5682
a(S'tr_lr'
I0
tp5683
a(S'w'
I1466
tp5684
a(S'ch_no'
I1
tp5685
a(S'ch_tr'
I1
tp5686
a(S'ch_p2'
I1
tp5687
a(S'ch_p1'
I1
tp5688
a(S'w'
I1
tp5689
a(S'ch_no'
I1
tp5690
a(S'ch_tr'
I1
tp5691
a(S'ch_p2'
I1
tp5692
a(S'ch_p1'
I1
tp5693
a(S'w'
I6
tp5694
a(S'no_np'
I2
tp5695
a(S'w'
I1
tp5696
a(S'no_ll'
I1
tp5697
a(S'w'
I1
tp5698
a(S'no_vo'
I2
tp5699
a(S'w'
I13
tp5700
a(S'tr_tl'
I252
tp5701
a(S'w'
I2
tp5702
a(S'tr_ll'
I1
tp5703
a(S'tr_lr'
I127
tp5704
a(S'w'
I25
tp5705
a(S'p2_tl'
I254
tp5706
a(S'w'
I1
tp5707
a(S'p2_ll'
I1
tp5708
a(S'w'
I2
tp5709
a(S'p2_vo'
I6
tp5710
a(S'w'
I25
tp5711
a(S'p1_tl'
I83
tp5712
a(S'w'
I1
tp5713
a(S'p1_ll'
I1
tp5714
a(S'p1_th'
I1
tp5715
a(S'w'
I3
tp5716
a(S'p1_vo'
I6
tp5717
a(S'w'
I636
tp5718
a(S'no_vo'
I0
tp5719
a(S'w'
I2946
tp5720
a(S'p2_vo'
I5
tp5721
a(S'w'
I7
tp5722
a(S'p1_vo'
I5
tp5723
a(S'w'
I2205
tp5724
a(S'w'
I4
tp5725
a(S'p2_vo'
I1
tp5726
a(S'w'
I17
tp5727
a(S'w'
I4
tp5728
a(S'p1_vo'
I1
tp5729
a(S'w'
I1427
tp5730
a(S'tr_lr'
I0
tp5731
a(S'w'
I1467
tp5732
a(S'ch_no'
I1
tp5733
a(S'ch_tr'
I1
tp5734
a(S'ch_p2'
I1
tp5735
a(S'ch_p1'
I1
tp5736
a(S'w'
I1
tp5737
a(S'ch_no'
I1
tp5738
a(S'ch_tr'
I1
tp5739
a(S'ch_p2'
I1
tp5740
a(S'ch_p1'
I1
tp5741
a(S'w'
I6
tp5742
a(S'no_np'
I6
tp5743
a(S'no_ll'
I1
tp5744
a(S'w'
I2
tp5745
a(S'no_vo'
I10
tp5746
a(S'w'
I13
tp5747
a(S'tr_tl'
I124
tp5748
a(S'w'
I1
tp5749
a(S'tr_ll'
I1
tp5750
a(S'w'
I1
tp5751
a(S'tr_lr'
I127
tp5752
a(S'w'
I24
tp5753
a(S'p2_tl'
I190
tp5754
a(S'w'
I1
tp5755
a(S'p2_ll'
I1
tp5756
a(S'w'
I3
tp5757
a(S'p2_vo'
I6
tp5758
a(S'w'
I24
tp5759
a(S'p1_tl'
I254
tp5760
a(S'w'
I2
tp5761
a(S'p1_ll'
I1
tp5762
a(S'p1_th'
I0
tp5763
a(S'w'
I2
tp5764
a(S'p1_vo'
I6
tp5765
a(S'w'
I649
tp5766
a(S'no_vo'
I8
tp5767
a(S'w'
I747
tp5768
a(S'no_vo'
I6
tp5769
a(S'w'
I721
tp5770
a(S'no_vo'
I4
tp5771
a(S'w'
I734
tp5772
a(S'no_vo'
I2
tp5773
a(S'w'
I733
tp5774
a(S'no_vo'
I0
tp5775
a(S'w'
I12
tp5776
a(S'p2_vo'
I5
tp5777
a(S'w'
I7
tp5778
a(S'p1_vo'
I5
tp5779
a(S'w'
I2204
tp5780
a(S'w'
I3
tp5781
a(S'p2_vo'
I1
tp5782
a(S'w'
I18
tp5783
a(S'w'
I3
tp5784
a(S'p1_vo'
I1
tp5785
a(S'w'
I1440
tp5786
a(S'tr_lr'
I0
tp5787
a(S'w'
I1454
tp5788
a(S'no_np'
I0
tp5789
a(S'no_ll'
I1
tp5790
a(S'w'
I1
tp5791
a(S'no_vo'
I10
tp5792
a(S'w'
I13
tp5793
a(S'tr_tl'
I252
tp5794
a(S'w'
I2
tp5795
a(S'tr_ll'
I1
tp5796
a(S'w'
I1
tp5797
a(S'tr_lr'
I127
tp5798
a(S'w'
I24
tp5799
a(S'p2_tl'
I254
tp5800
a(S'w'
I1
tp5801
a(S'p2_ll'
I1
tp5802
a(S'w'
I3
tp5803
a(S'p2_vo'
I6
tp5804
a(S'w'
I24
tp5805
a(S'p1_tl'
I83
tp5806
a(S'w'
I2
tp5807
a(S'p1_ll'
I1
tp5808
a(S'p1_th'
I1
tp5809
a(S'w'
I2
tp5810
a(S'p1_vo'
I6
tp5811
a(S'w'
I657
tp5812
a(S'no_vo'
I8
tp5813
a(S'w'
I734
tp5814
a(S'no_vo'
I6
tp5815
a(S'w'
I733
tp5816
a(S'no_vo'
I4
tp5817
a(S'w'
I734
tp5818
a(S'no_vo'
I2
tp5819
a(S'w'
I734
tp5820
a(S'no_vo'
I0
tp5821
a(S'w'
I12
tp5822
a(S'p2_vo'
I5
tp5823
a(S'w'
I7
tp5824
a(S'p1_vo'
I5
tp5825
a(S'w'
I733
tp5826
a(S'ch_no'
I1
tp5827
a(S'ch_tr'
I1
tp5828
a(S'ch_p2'
I1
tp5829
a(S'ch_p1'
I1
tp5830
a(S'w'
I1
tp5831
a(S'ch_no'
I1
tp5832
a(S'ch_tr'
I1
tp5833
a(S'ch_p2'
I1
tp5834
a(S'ch_p1'
I1
tp5835
a(S'w'
I6
tp5836
a(S'no_np'
I2
tp5837
a(S'no_ll'
I1
tp5838
a(S'w'
I1
tp5839
a(S'no_vo'
I2
tp5840
a(S'w'
I707
tp5841
a(S'no_vo'
I0
tp5842
a(S'w'
I755
tp5843
a(S'w'
I4
tp5844
a(S'p2_vo'
I1
tp5845
a(S'w'
I17
tp5846
a(S'w'
I4
tp5847
a(S'p1_vo'
I1
tp5848
a(S'w'
I1427
tp5849
a(S'tr_lr'
I0
tp5850
a(S'w'
I1467
tp5851
a(S'ch_no'
I1
tp5852
a(S'ch_tr'
I1
tp5853
a(S'ch_p2'
I1
tp5854
a(S'ch_p1'
I1
tp5855
a(S'w'
I1
tp5856
a(S'ch_no'
I1
tp5857
a(S'ch_tr'
I1
tp5858
a(S'ch_p2'
I1
tp5859
a(S'ch_p1'
I1
tp5860
a(S'w'
I6
tp5861
a(S'no_np'
I6
tp5862
a(S'w'
I1
tp5863
a(S'no_ll'
I1
tp5864
a(S'w'
I1
tp5865
a(S'no_vo'
I10
tp5866
a(S'w'
I13
tp5867
a(S'tr_tl'
I171
tp5868
a(S'w'
I2
tp5869
a(S'tr_ll'
I1
tp5870
a(S'tr_lr'
I127
tp5871
a(S'w'
I25
tp5872
a(S'p2_tl'
I213
tp5873
a(S'w'
I1
tp5874
a(S'p2_ll'
I1
tp5875
a(S'w'
I2
tp5876
a(S'p2_vo'
I6
tp5877
a(S'w'
I25
tp5878
a(S'p1_tl'
I29
tp5879
a(S'w'
I1
tp5880
a(S'p1_ll'
I1
tp5881
a(S'w'
I3
tp5882
a(S'p1_vo'
I6
tp5883
a(S'w'
I648
tp5884
a(S'no_vo'
I8
tp5885
a(S'w'
I747
tp5886
a(S'no_vo'
I6
tp5887
a(S'w'
I721
tp5888
a(S'no_vo'
I4
tp5889
a(S'w'
I734
tp5890
a(S'no_vo'
I2
tp5891
a(S'w'
I733
tp5892
a(S'no_vo'
I0
tp5893
a(S'w'
I13
tp5894
a(S'p2_vo'
I5
tp5895
a(S'w'
I6
tp5896
a(S'p1_vo'
I5
tp5897
a(S'w'
I2204
tp5898
a(S'w'
I4
tp5899
a(S'p2_vo'
I1
tp5900
a(S'w'
I17
tp5901
a(S'w'
I4
tp5902
a(S'p1_vo'
I1
tp5903
a(S'w'
I1439
tp5904
a(S'tr_lr'
I0
tp5905
a(S'w'
I1455
tp5906
a(S'ch_no'
I1
tp5907
a(S'ch_tr'
I1
tp5908
a(S'ch_p2'
I1
tp5909
a(S'ch_p1'
I1
tp5910
a(S'w'
I1
tp5911
a(S'ch_no'
I1
tp5912
a(S'ch_tr'
I1
tp5913
a(S'ch_p2'
I1
tp5914
a(S'ch_p1'
I1
tp5915
a(S'w'
I6
tp5916
a(S'no_np'
I2
tp5917
a(S'no_ll'
I1
tp5918
a(S'w'
I2
tp5919
a(S'no_vo'
I2
tp5920
a(S'w'
I11
tp5921
a(S'tr_tl'
I124
tp5922
a(S'w'
I1
tp5923
a(S'tr_ll'
I1
tp5924
a(S'w'
I1
tp5925
a(S'tr_lr'
I127
tp5926
a(S'w'
I24
tp5927
a(S'p2_tl'
I190
tp5928
a(S'w'
I2
tp5929
a(S'p2_ll'
I1
tp5930
a(S'w'
I2
tp5931
a(S'p2_vo'
I6
tp5932
a(S'w'
I25
tp5933
a(S'p1_tl'
I254
tp5934
a(S'w'
I1
tp5935
a(S'p1_ll'
I1
tp5936
a(S'p1_th'
I0
tp5937
a(S'w'
I2
tp5938
a(S'p1_vo'
I6
tp5939
a(S'w'
I651
tp5940
a(S'no_vo'
I0
tp5941
a(S'w'
I2946
tp5942
a(S'p2_vo'
I5
tp5943
a(S'w'
I6
tp5944
a(S'p1_vo'
I5
tp5945
a(S'w'
I2206
tp5946
a(S'w'
I3
tp5947
a(S'p2_vo'
I1
tp5948
a(S'w'
I18
tp5949
a(S'w'
I3
tp5950
a(S'p1_vo'
I1
tp5951
a(S'w'
I1427
tp5952
a(S'tr_lr'
I0
tp5953
a(S'w'
I1468
tp5954
a(S'ch_no'
I1
tp5955
a(S'ch_tr'
I1
tp5956
a(S'ch_p2'
I1
tp5957
a(S'ch_p1'
I1
tp5958
a(S'w'
I1
tp5959
a(S'ch_no'
I1
tp5960
a(S'ch_tr'
I1
tp5961
a(S'ch_p2'
I1
tp5962
a(S'ch_p1'
I1
tp5963
a(S'w'
I6
tp5964
a(S'no_np'
I6
tp5965
a(S'no_ll'
I1
tp5966
a(S'w'
I1
tp5967
a(S'no_vo'
I10
tp5968
a(S'w'
I14
tp5969
a(S'tr_tl'
I58
tp5970
a(S'w'
I1
tp5971
a(S'tr_ll'
I1
tp5972
a(S'tr_th'
I2
tp5973
a(S'w'
I1
tp5974
a(S'tr_lr'
I127
tp5975
a(S'w'
I24
tp5976
a(S'p2_tl'
I29
tp5977
a(S'w'
I1
tp5978
a(S'p2_ll'
I1
tp5979
a(S'p2_th'
I1
tp5980
a(S'w'
I3
tp5981
a(S'p2_vo'
I6
tp5982
a(S'w'
I24
tp5983
a(S'p1_tl'
I124
tp5984
a(S'w'
I2
tp5985
a(S'p1_ll'
I1
tp5986
a(S'p1_th'
I1
tp5987
a(S'w'
I2
tp5988
a(S'p1_vo'
I6
tp5989
a(S'w'
I649
tp5990
a(S'no_vo'
I8
tp5991
a(S'w'
I747
tp5992
a(S'no_vo'
I6
tp5993
a(S'w'
I720
tp5994
a(S'no_vo'
I4
tp5995
a(S'w'
I734
tp5996
a(S'no_vo'
I2
tp5997
a(S'w'
I734
tp5998
a(S'no_vo'
I0
tp5999
a(S'w'
I12
tp6000
a(S'p2_vo'
I5
tp6001
a(S'w'
I7
tp6002
a(S'p1_vo'
I5
tp6003
a(S'w'
I719
tp6004
a(S'ch_no'
I1
tp6005
a(S'ch_tr'
I1
tp6006
a(S'ch_p2'
I1
tp6007
a(S'ch_p1'
I1
tp6008
a(S'w'
I1
tp6009
a(S'ch_no'
I1
tp6010
a(S'ch_tr'
I1
tp6011
a(S'ch_p2'
I1
tp6012
a(S'ch_p1'
I1
tp6013
a(S'w'
I6
tp6014
a(S'no_np'
I2
tp6015
a(S'w'
I1
tp6016
a(S'no_ll'
I1
tp6017
a(S'w'
I1
tp6018
a(S'no_vo'
I2
tp6019
a(S'w'
I720
tp6020
a(S'no_vo'
I0
tp6021
a(S'w'
I755
tp6022
a(S'w'
I4
tp6023
a(S'p2_vo'
I1
tp6024
a(S'w'
I17
tp6025
a(S'w'
I4
tp6026
a(S'p1_vo'
I1
tp6027
a(S'w'
I1440
tp6028
a(S'tr_lr'
I0
tp6029
a(S'w'
I1453
tp6030
a(S'no_np'
I0
tp6031
a(S'no_ll'
I1
tp6032
a(S'w'
I1
tp6033
a(S'no_vo'
I2
tp6034
a(S'w'
I12
tp6035
a(S'tr_tl'
I26
tp6036
a(S'w'
I1
tp6037
a(S'tr_ll'
I1
tp6038
a(S'w'
I1
tp6039
a(S'tr_lr'
I127
tp6040
a(S'w'
I24
tp6041
a(S'p2_tl'
I13
tp6042
a(S'w'
I1
tp6043
a(S'p2_ll'
I1
tp6044
a(S'w'
I3
tp6045
a(S'p2_vo'
I6
tp6046
a(S'w'
I24
tp6047
a(S'p1_tl'
I103
tp6048
a(S'w'
I2
tp6049
a(S'p1_ll'
I1
tp6050
a(S'w'
I2
tp6051
a(S'p1_vo'
I6
tp6052
a(S'w'
I659
tp6053
a(S'no_vo'
I0
tp6054
a(S'w'
I2946
tp6055
a(S'p2_vo'
I5
tp6056
a(S'w'
I7
tp6057
a(S'p1_vo'
I5
tp6058
a(S'w'
I730
tp6059
a(S'ch_no'
I1
tp6060
a(S'ch_tr'
I1
tp6061
a(S'ch_p2'
I1
tp6062
a(S'ch_p1'
I1
tp6063
a(S'ch_no'
I1
tp6064
a(S'ch_tr'
I1
tp6065
a(S'ch_p2'
I1
tp6066
a(S'ch_p1'
I1
tp6067
a(S'w'
I7
tp6068
a(S'no_ll'
I1
tp6069
a(S'w'
I1
tp6070
a(S'no_vo'
I2
tp6071
a(S'w'
I712
tp6072
a(S'no_vo'
I0
tp6073
a(S'w'
I755
tp6074
a(S'w'
I3
tp6075
a(S'p2_vo'
I1
tp6076
a(S'w'
I18
tp6077
a(S'w'
I3
tp6078
a(S'p1_vo'
I1
tp6079
a(S'w'
I1427
tp6080
a(S'tr_lr'
I0
tp6081
a(S'w'
I1468
tp6082
a(S'ch_no'
I1
tp6083
a(S'ch_tr'
I1
tp6084
a(S'ch_p2'
I1
tp6085
a(S'ch_p1'
I1
tp6086
a(S'w'
I1
tp6087
a(S'ch_no'
I1
tp6088
a(S'ch_tr'
I1
tp6089
a(S'ch_p2'
I1
tp6090
a(S'ch_p1'
I1
tp6091
a(S'w'
I6
tp6092
a(S'no_np'
I6
tp6093
a(S'no_ll'
I1
tp6094
a(S'w'
I2
tp6095
a(S'no_vo'
I10
tp6096
a(S'w'
I11
tp6097
a(S'tr_tl'
I252
tp6098
a(S'w'
I1
tp6099
a(S'tr_ll'
I1
tp6100
a(S'tr_th'
I1
tp6101
a(S'w'
I1
tp6102
a(S'tr_lr'
I127
tp6103
a(S'w'
I24
tp6104
a(S'p2_tl'
I254
tp6105
a(S'w'
I2
tp6106
a(S'p2_ll'
I1
tp6107
a(S'p2_th'
I0
tp6108
a(S'w'
I2
tp6109
a(S'p2_vo'
I6
tp6110
a(S'w'
I25
tp6111
a(S'p1_tl'
I83
tp6112
a(S'w'
I1
tp6113
a(S'p1_ll'
I1
tp6114
a(S'w'
I2
tp6115
a(S'p1_vo'
I6
tp6116
a(S'w'
I651
tp6117
a(S'no_vo'
I8
tp6118
a(S'w'
I747
tp6119
a(S'no_vo'
I6
tp6120
a(S'w'
I721
tp6121
a(S'no_vo'
I4
tp6122
a(S'w'
I733
tp6123
a(S'no_vo'
I2
tp6124
a(S'w'
I734
tp6125
a(S'no_vo'
I0
tp6126
a(S'w'
I12
tp6127
a(S'p2_vo'
I5
tp6128
a(S'w'
I7
tp6129
a(S'p1_vo'
I5
tp6130
a(S'w'
I2203
tp6131
a(S'w'
I4
tp6132
a(S'p2_vo'
I1
tp6133
a(S'w'
I17
tp6134
a(S'w'
I4
tp6135
a(S'p1_vo'
I1
tp6136
a(S'w'
I1440
tp6137
a(S'tr_lr'
I0
tp6138
a(S'w'
I1466
tp6139
a(S'ch_no'
I1
tp6140
a(S'ch_tr'
I1
tp6141
a(S'ch_p2'
I1
tp6142
a(S'ch_p1'
I1
tp6143
a(S'w'
I1
tp6144
a(S'ch_no'
I1
tp6145
a(S'ch_tr'
I1
tp6146
a(S'ch_p2'
I1
tp6147
a(S'ch_p1'
I1
tp6148
a(S'w'
I6
tp6149
a(S'no_np'
I2
tp6150
a(S'no_ll'
I1
tp6151
a(S'w'
I2
tp6152
a(S'no_vo'
I2
tp6153
a(S'w'
I18
tp6154
a(S'tr_tl'
I166
tp6155
a(S'w'
I1
tp6156
a(S'tr_ll'
I1
tp6157
a(S'tr_th'
I2
tp6158
a(S'w'
I1
tp6159
a(S'tr_lr'
I127
tp6160
a(S'w'
I35
tp6161
a(S'p2_tl'
I84
tp6162
a(S'w'
I2
tp6163
a(S'p2_ll'
I1
tp6164
a(S'w'
I2
tp6165
a(S'p2_vo'
I6
tp6166
a(S'w'
I35
tp6167
a(S'p1_tl'
I113
tp6168
a(S'w'
I1
tp6169
a(S'p1_ll'
I1
tp6170
a(S'p1_th'
I0
tp6171
a(S'w'
I3
tp6172
a(S'p1_vo'
I6
tp6173
a(S'w'
I610
tp6174
a(S'no_vo'
I0
tp6175
a(S'w'
I2223
tp6176
a(S'w'
I4
tp6177
a(S'p2_vo'
I1
tp6178
a(S'w'
I17
tp6179
a(S'w'
I4
tp6180
a(S'p1_vo'
I1
tp6181
a(S'w'
I1463
tp6182
a(S'p2_tl'
I113
tp6183
a(S'w'
I1
tp6184
a(S'p2_ll'
I1
tp6185
a(S'w'
I2
tp6186
a(S'p2_vo'
I6
tp6187
a(S'w'
I25
tp6188
a(S'p1_tl'
I169
tp6189
a(S'w'
I1
tp6190
a(S'p1_ll'
I1
tp6191
a(S'w'
I3
tp6192
a(S'p1_vo'
I6
tp6193
a(S'w'
I2866
tp6194
a(S'tr_lr'
I0
tp6195
a(S'w'
I18
tp6196
a(S'w'
I3
tp6197
a(S'p2_vo'
I1
tp6198
a(S'w'
I18
tp6199
a(S'w'
I3
tp6200
a(S'p1_vo'
I1
tp6201
a(S'w'
I1426
tp6202
a(S'ch_no'
I1
tp6203
a(S'ch_tr'
I1
tp6204
a(S'ch_p2'
I1
tp6205
a(S'ch_p1'
I1
tp6206
a(S'w'
I1
tp6207
a(S'ch_no'
I1
tp6208
a(S'ch_tr'
I1
tp6209
a(S'ch_p2'
I1
tp6210
a(S'ch_p1'
I1
tp6211
a(S'w'
I6
tp6212
a(S'no_np'
I6
tp6213
a(S'no_ll'
I1
tp6214
a(S'w'
I2
tp6215
a(S'no_vo'
I10
tp6216
a(S'w'
I13
tp6217
a(S'tr_tl'
I83
tp6218
a(S'w'
I1
tp6219
a(S'tr_ll'
I1
tp6220
a(S'tr_th'
I1
tp6221
a(S'w'
I1
tp6222
a(S'tr_lr'
I127
tp6223
a(S'w'
I24
tp6224
a(S'p2_tl'
I127
tp6225
a(S'w'
I2
tp6226
a(S'p2_ll'
I1
tp6227
a(S'w'
I2
tp6228
a(S'p2_vo'
I6
tp6229
a(S'w'
I25
tp6230
a(S'p1_tl'
I190
tp6231
a(S'w'
I1
tp6232
a(S'p1_ll'
I1
tp6233
a(S'w'
I2
tp6234
a(S'p1_vo'
I6
tp6235
a(S'w'
I649
tp6236
a(S'no_vo'
I8
tp6237
a(S'w'
I747
tp6238
a(S'no_vo'
I6
tp6239
a(S'w'
I721
tp6240
a(S'no_vo'
I4
tp6241
a(S'w'
I734
tp6242
a(S'no_vo'
I2
tp6243
a(S'w'
I23
tp6244
a(S'w'
I3
tp6245
a(S'p2_vo'
I1
tp6246
a(S'w'
I18
tp6247
a(S'w'
I3
tp6248
a(S'p1_vo'
I1
tp6249
a(S'w'
I686
tp6250
a(S'no_vo'
I0
tp6251
a(S'w'
I745
tp6252
a(S'tr_tl'
I166
tp6253
a(S'w'
I2
tp6254
a(S'tr_ll'
I1
tp6255
a(S'tr_th'
I2
tp6256
a(S'w'
I25
tp6257
a(S'p2_tl'
I169
tp6258
a(S'w'
I1
tp6259
a(S'p2_ll'
I1
tp6260
a(S'w'
I3
tp6261
a(S'p2_vo'
I6
tp6262
a(S'w'
I24
tp6263
a(S'p1_tl'
I226
tp6264
a(S'w'
I1
tp6265
a(S'p1_ll'
I1
tp6266
a(S'w'
I3
tp6267
a(S'p1_vo'
I6
tp6268
a(S'w'
I2899
tp6269
a(S'w'
I4
tp6270
a(S'p2_vo'
I1
tp6271
a(S'w'
I17
tp6272
a(S'w'
I4
tp6273
a(S'p1_vo'
I1
tp6274
a(S'w'
I1413
tp6275
a(S'no_np'
I0
tp6276
a(S'no_ll'
I1
tp6277
a(S'w'
I1
tp6278
a(S'no_vo'
I10
tp6279
a(S'w'
I10
tp6280
a(S'tr_lr'
I0
tp6281
a(S'w'
I4
tp6282
a(S'tr_ll'
I1
tp6283
a(S'w'
I28
tp6284
a(S'p2_tl'
I84
tp6285
a(S'w'
I2
tp6286
a(S'p2_ll'
I1
tp6287
a(S'w'
I2
tp6288
a(S'p2_vo'
I6
tp6289
a(S'w'
I28
tp6290
a(S'p1_tl'
I113
tp6291
a(S'w'
I1
tp6292
a(S'p1_ll'
I1
tp6293
a(S'w'
I3
tp6294
a(S'p1_vo'
I6
tp6295
a(S'w'
I651
tp6296
a(S'no_vo'
I8
tp6297
a(S'w'
I734
tp6298
a(S'no_vo'
I6
tp6299
a(S'w'
I733
tp6300
a(S'no_vo'
I4
tp6301
a(S'w'
I734
tp6302
a(S'no_vo'
I2
tp6303
a(S'w'
I20
tp6304
a(S'w'
I4
tp6305
a(S'p2_vo'
I1
tp6306
a(S'w'
I17
tp6307
a(S'w'
I4
tp6308
a(S'p1_vo'
I1
tp6309
a(S'w'
I689
tp6310
a(S'no_vo'
I0
tp6311
a(S'w'
I752
tp6312
a(S'ch_no'
I1
tp6313
a(S'ch_tr'
I1
tp6314
a(S'ch_p2'
I1
tp6315
a(S'ch_p1'
I1
tp6316
a(S'ch_no'
I1
tp6317
a(S'ch_tr'
I1
tp6318
a(S'ch_p2'
I1
tp6319
a(S'ch_p1'
I1
tp6320
a(S'w'
I7
tp6321
a(S'no_np'
I2
tp6322
a(S'no_ll'
I1
tp6323
a(S'w'
I1
tp6324
a(S'no_vo'
I2
tp6325
a(S'w'
I13
tp6326
a(S'tr_ll'
I1
tp6327
a(S'w'
I1
tp6328
a(S'tr_lr'
I127
tp6329
a(S'w'
I24
tp6330
a(S'p2_tl'
I113
tp6331
a(S'w'
I1
tp6332
a(S'p2_ll'
I1
tp6333
a(S'w'
I3
tp6334
a(S'p2_vo'
I6
tp6335
a(S'w'
I24
tp6336
a(S'p1_tl'
I169
tp6337
a(S'w'
I2
tp6338
a(S'p1_ll'
I1
tp6339
a(S'w'
I2
tp6340
a(S'p1_vo'
I6
tp6341
a(S'w'
I637
tp6342
a(S'no_vo'
I0
tp6343
a(S'w'
I2223
tp6344
a(S'w'
I4
tp6345
a(S'p2_vo'
I1
tp6346
a(S'w'
I17
tp6347
a(S'w'
I4
tp6348
a(S'p1_vo'
I1
tp6349
a(S'w'
I1426
tp6350
a(S'ch_no'
I1
tp6351
a(S'ch_tr'
I1
tp6352
a(S'ch_p2'
I1
tp6353
a(S'ch_p1'
I1
tp6354
a(S'w'
I1
tp6355
a(S'ch_no'
I1
tp6356
a(S'ch_tr'
I1
tp6357
a(S'ch_p2'
I1
tp6358
a(S'ch_p1'
I1
tp6359
a(S'w'
I6
tp6360
a(S'no_np'
I6
tp6361
a(S'w'
I1
tp6362
a(S'no_ll'
I1
tp6363
a(S'w'
I1
tp6364
a(S'no_vo'
I10
tp6365
a(S'w'
I14
tp6366
a(S'tr_tl'
I83
tp6367
a(S'w'
I1
tp6368
a(S'tr_ll'
I1
tp6369
a(S'tr_th'
I1
tp6370
a(S'w'
I25
tp6371
a(S'p2_tl'
I127
tp6372
a(S'w'
I1
tp6373
a(S'p2_ll'
I1
tp6374
a(S'w'
I3
tp6375
a(S'p2_vo'
I6
tp6376
a(S'w'
I24
tp6377
a(S'p1_tl'
I190
tp6378
a(S'w'
I2
tp6379
a(S'p1_ll'
I1
tp6380
a(S'w'
I2
tp6381
a(S'p1_vo'
I6
tp6382
a(S'w'
I648
tp6383
a(S'no_vo'
I8
tp6384
a(S'w'
I747
tp6385
a(S'no_vo'
I6
tp6386
a(S'w'
I721
tp6387
a(S'no_vo'
I4
tp6388
a(S'w'
I734
tp6389
a(S'no_vo'
I2
tp6390
a(S'w'
I23
tp6391
a(S'w'
I3
tp6392
a(S'p2_vo'
I1
tp6393
a(S'w'
I18
tp6394
a(S'w'
I3
tp6395
a(S'p1_vo'
I1
tp6396
a(S'w'
I686
tp6397
a(S'no_vo'
I0
tp6398
a(S'w'
I763
tp6399
a(S'p2_tl'
I169
tp6400
a(S'w'
I1
tp6401
a(S'p2_ll'
I1
tp6402
a(S'w'
I2
tp6403
a(S'p2_vo'
I6
tp6404
a(S'w'
I25
tp6405
a(S'p1_tl'
I226
tp6406
a(S'w'
I1
tp6407
a(S'p1_ll'
I1
tp6408
a(S'w'
I2
tp6409
a(S'p1_vo'
I6
tp6410
a(S'w'
I2893
tp6411
a(S'tr_lr'
I0
tp6412
a(S'w'
I17
tp6413
a(S'w'
I4
tp6414
a(S'p2_vo'
I1
tp6415
a(S'w'
I17
tp6416
a(S'w'
I4
tp6417
a(S'p1_vo'
I1
tp6418
a(S'w'
I1413
tp6419
a(S'ch_no'
I1
tp6420
a(S'ch_tr'
I1
tp6421
a(S'ch_p2'
I1
tp6422
a(S'ch_p1'
I1
tp6423
a(S'w'
I1
tp6424
a(S'ch_no'
I1
tp6425
a(S'ch_tr'
I1
tp6426
a(S'ch_p2'
I1
tp6427
a(S'ch_p1'
I1
tp6428
a(S'w'
I6
tp6429
a(S'no_np'
I2
tp6430
a(S'no_ll'
I1
tp6431
a(S'w'
I2
tp6432
a(S'no_vo'
I2
tp6433
a(S'w'
I13
tp6434
a(S'tr_tl'
I128
tp6435
a(S'w'
I1
tp6436
a(S'tr_ll'
I1
tp6437
a(S'tr_th'
I2
tp6438
a(S'w'
I1
tp6439
a(S'tr_lr'
I127
tp6440
a(S'w'
I32
tp6441
a(S'p2_tl'
I80
tp6442
a(S'w'
I1
tp6443
a(S'p2_ll'
I1
tp6444
a(S'w'
I2
tp6445
a(S'p2_vo'
I6
tp6446
a(S'w'
I32
tp6447
a(S'p1_tl'
I106
tp6448
a(S'w'
I1
tp6449
a(S'p1_ll'
I1
tp6450
a(S'w'
I3
tp6451
a(S'p1_vo'
I6
tp6452
a(S'w'
I634
tp6453
a(S'no_vo'
I0
tp6454
a(S'w'
I2222
tp6455
a(S'w'
I4
tp6456
a(S'p2_vo'
I1
tp6457
a(S'w'
I17
tp6458
a(S'w'
I4
tp6459
a(S'p1_vo'
I1
tp6460
a(S'w'
I1463
tp6461
a(S'p2_tl'
I106
tp6462
a(S'w'
I1
tp6463
a(S'p2_ll'
I1
tp6464
a(S'w'
I3
tp6465
a(S'p2_vo'
I6
tp6466
a(S'w'
I24
tp6467
a(S'p1_tl'
I127
tp6468
a(S'w'
I2
tp6469
a(S'p1_ll'
I1
tp6470
a(S'w'
I2
tp6471
a(S'p1_vo'
I6
tp6472
a(S'w'
I2866
tp6473
a(S'tr_lr'
I0
tp6474
a(S'w'
I18
tp6475
a(S'w'
I3
tp6476
a(S'p2_vo'
I1
tp6477
a(S'w'
I18
tp6478
a(S'w'
I3
tp6479
a(S'p1_vo'
I1
tp6480
a(S'w'
I1427
tp6481
a(S'ch_no'
I1
tp6482
a(S'ch_tr'
I1
tp6483
a(S'ch_p2'
I1
tp6484
a(S'ch_p1'
I1
tp6485
a(S'w'
I1
tp6486
a(S'ch_no'
I1
tp6487
a(S'ch_tr'
I1
tp6488
a(S'ch_p2'
I1
tp6489
a(S'ch_p1'
I1
tp6490
a(S'w'
I6
tp6491
a(S'no_np'
I6
tp6492
a(S'no_ll'
I1
tp6493
a(S'w'
I1
tp6494
a(S'no_vo'
I10
tp6495
a(S'w'
I14
tp6496
a(S'tr_tl'
I64
tp6497
a(S'w'
I1
tp6498
a(S'tr_ll'
I1
tp6499
a(S'tr_th'
I1
tp6500
a(S'w'
I1
tp6501
a(S'tr_lr'
I127
tp6502
a(S'w'
I24
tp6503
a(S'p2_tl'
I127
tp6504
a(S'w'
I2
tp6505
a(S'p2_ll'
I1
tp6506
a(S'w'
I2
tp6507
a(S'p2_vo'
I6
tp6508
a(S'w'
I25
tp6509
a(S'p1_tl'
I160
tp6510
a(S'w'
I1
tp6511
a(S'p1_ll'
I1
tp6512
a(S'w'
I2
tp6513
a(S'p1_vo'
I6
tp6514
a(S'w'
I649
tp6515
a(S'no_vo'
I8
tp6516
a(S'w'
I746
tp6517
a(S'no_vo'
I6
tp6518
a(S'w'
I721
tp6519
a(S'no_vo'
I4
tp6520
a(S'w'
I734
tp6521
a(S'no_vo'
I2
tp6522
a(S'w'
I23
tp6523
a(S'w'
I3
tp6524
a(S'p2_vo'
I1
tp6525
a(S'w'
I18
tp6526
a(S'w'
I3
tp6527
a(S'p1_vo'
I1
tp6528
a(S'w'
I687
tp6529
a(S'no_vo'
I0
tp6530
a(S'w'
I738
tp6531
a(S'ch_no'
I1
tp6532
a(S'ch_tr'
I1
tp6533
a(S'ch_p2'
I1
tp6534
a(S'ch_p1'
I1
tp6535
a(S'w'
I1
tp6536
a(S'ch_no'
I1
tp6537
a(S'ch_tr'
I1
tp6538
a(S'ch_p2'
I1
tp6539
a(S'ch_p1'
I1
tp6540
a(S'w'
I6
tp6541
a(S'no_np'
I2
tp6542
a(S'w'
I1
tp6543
a(S'no_ll'
I1
tp6544
a(S'w'
I1
tp6545
a(S'no_vo'
I2
tp6546
a(S'w'
I13
tp6547
a(S'tr_tl'
I128
tp6548
a(S'w'
I2
tp6549
a(S'tr_ll'
I1
tp6550
a(S'tr_th'
I2
tp6551
a(S'w'
I25
tp6552
a(S'p2_tl'
I160
tp6553
a(S'w'
I1
tp6554
a(S'p2_ll'
I1
tp6555
a(S'w'
I2
tp6556
a(S'p2_vo'
I6
tp6557
a(S'w'
I25
tp6558
a(S'p1_tl'
I213
tp6559
a(S'w'
I1
tp6560
a(S'p1_ll'
I1
tp6561
a(S'w'
I3
tp6562
a(S'p1_vo'
I6
tp6563
a(S'w'
I648
tp6564
a(S'no_vo'
I0
tp6565
a(S'w'
I2236
tp6566
a(S'w'
I4
tp6567
a(S'p2_vo'
I1
tp6568
a(S'w'
I17
tp6569
a(S'w'
I4
tp6570
a(S'p1_vo'
I1
tp6571
a(S'w'
I1412
tp6572
a(S'no_np'
I0
tp6573
a(S'no_ll'
I1
tp6574
a(S'w'
I1
tp6575
a(S'no_vo'
I2
tp6576
a(S'w'
I10
tp6577
a(S'tr_lr'
I0
tp6578
a(S'w'
I4
tp6579
a(S'tr_ll'
I1
tp6580
a(S'w'
I28
tp6581
a(S'p2_tl'
I80
tp6582
a(S'w'
I2
tp6583
a(S'p2_ll'
I1
tp6584
a(S'w'
I2
tp6585
a(S'p2_vo'
I6
tp6586
a(S'w'
I28
tp6587
a(S'p1_tl'
I106
tp6588
a(S'w'
I1
tp6589
a(S'p1_ll'
I1
tp6590
a(S'w'
I3
tp6591
a(S'p1_vo'
I6
tp6592
a(S'w'
I651
tp6593
a(S'no_vo'
I0
tp6594
a(S'w'
I2220
tp6595
a(S'w'
I4
tp6596
a(S'p2_vo'
I1
tp6597
a(S'w'
I17
tp6598
a(S'w'
I4
tp6599
a(S'p1_vo'
I1
tp6600
a(S'w'
I1438
tp6601
a(S'ch_no'
I1
tp6602
a(S'ch_tr'
I1
tp6603
a(S'ch_p2'
I1
tp6604
a(S'ch_p1'
I1
tp6605
a(S'ch_no'
I1
tp6606
a(S'ch_tr'
I1
tp6607
a(S'ch_p2'
I1
tp6608
a(S'ch_p1'
I1
tp6609
a(S'w'
I7
tp6610
a(S'no_ll'
I1
tp6611
a(S'w'
I1
tp6612
a(S'no_vo'
I2
tp6613
a(S'w'
I13
tp6614
a(S'tr_ll'
I1
tp6615
a(S'w'
I1
tp6616
a(S'tr_lr'
I127
tp6617
a(S'w'
I24
tp6618
a(S'p2_tl'
I106
tp6619
a(S'w'
I1
tp6620
a(S'p2_ll'
I1
tp6621
a(S'w'
I3
tp6622
a(S'p2_vo'
I6
tp6623
a(S'w'
I24
tp6624
a(S'p1_tl'
I127
tp6625
a(S'w'
I2
tp6626
a(S'p1_ll'
I1
tp6627
a(S'w'
I2
tp6628
a(S'p1_vo'
I6
tp6629
a(S'w'
I642
tp6630
a(S'no_vo'
I0
tp6631
a(S'w'
I2222
tp6632
a(S'w'
I4
tp6633
a(S'p2_vo'
I1
tp6634
a(S'w'
I17
tp6635
a(S'w'
I4
tp6636
a(S'p1_vo'
I1
tp6637
a(S'w'
I1427
tp6638
a(S'ch_no'
I1
tp6639
a(S'ch_tr'
I1
tp6640
a(S'ch_p2'
I1
tp6641
a(S'ch_p1'
I1
tp6642
a(S'w'
I1
tp6643
a(S'ch_no'
I1
tp6644
a(S'ch_tr'
I1
tp6645
a(S'ch_p2'
I1
tp6646
a(S'ch_p1'
I1
tp6647
a(S'w'
I6
tp6648
a(S'no_np'
I6
tp6649
a(S'no_ll'
I1
tp6650
a(S'w'
I2
tp6651
a(S'no_vo'
I10
tp6652
a(S'w'
I13
tp6653
a(S'tr_tl'
I64
tp6654
a(S'w'
I1
tp6655
a(S'tr_ll'
I1
tp6656
a(S'tr_th'
I1
tp6657
a(S'w'
I26
tp6658
a(S'p2_tl'
I127
tp6659
a(S'w'
I1
tp6660
a(S'p2_ll'
I1
tp6661
a(S'w'
I2
tp6662
a(S'p2_vo'
I6
tp6663
a(S'w'
I25
tp6664
a(S'p1_tl'
I160
tp6665
a(S'w'
I1
tp6666
a(S'p1_ll'
I1
tp6667
a(S'w'
I2
tp6668
a(S'p1_vo'
I6
tp6669
a(S'w'
I649
tp6670
a(S'no_vo'
I8
tp6671
a(S'w'
I747
tp6672
a(S'no_vo'
I6
tp6673
a(S'w'
I720
tp6674
a(S'no_vo'
I4
tp6675
a(S'w'
I734
tp6676
a(S'no_vo'
I2
tp6677
a(S'w'
I23
tp6678
a(S'w'
I4
tp6679
a(S'p2_vo'
I1
tp6680
a(S'w'
I17
tp6681
a(S'w'
I4
tp6682
a(S'p1_vo'
I1
tp6683
a(S'w'
I686
tp6684
a(S'no_vo'
I0
tp6685
a(S'w'
I762
tp6686
a(S'p2_tl'
I160
tp6687
a(S'w'
I1
tp6688
a(S'p2_ll'
I1
tp6689
a(S'w'
I3
tp6690
a(S'p2_vo'
I6
tp6691
a(S'w'
I24
tp6692
a(S'p1_tl'
I213
tp6693
a(S'w'
I2
tp6694
a(S'p1_ll'
I1
tp6695
a(S'w'
I2
tp6696
a(S'p1_vo'
I6
tp6697
a(S'w'
I2893
tp6698
a(S'tr_lr'
I0
tp6699
a(S'w'
I17
tp6700
a(S'w'
I4
tp6701
a(S'p2_vo'
I1
tp6702
a(S'w'
I17
tp6703
a(S'w'
I4
tp6704
a(S'p1_vo'
I1
tp6705
a(S'w'
I1424
tp6706
a(S'ch_no'
I1
tp6707
a(S'ch_tr'
I1
tp6708
a(S'ch_p2'
I1
tp6709
a(S'ch_p1'
I1
tp6710
a(S'w'
I1
tp6711
a(S'ch_no'
I1
tp6712
a(S'ch_tr'
I1
tp6713
a(S'ch_p2'
I1
tp6714
a(S'ch_p1'
I1
tp6715
a(S'w'
I6
tp6716
a(S'no_np'
I2
tp6717
a(S'no_ll'
I1
tp6718
a(S'w'
I2
tp6719
a(S'no_vo'
I2
tp6720
a(S'w'
I13
tp6721
a(S'tr_tl'
I58
tp6722
a(S'w'
I1
tp6723
a(S'tr_ll'
I1
tp6724
a(S'tr_th'
I2
tp6725
a(S'w'
I1
tp6726
a(S'tr_lr'
I127
tp6727
a(S'w'
I32
tp6728
a(S'p2_tl'
I71
tp6729
a(S'w'
I1
tp6730
a(S'p2_ll'
I1
tp6731
a(S'w'
I2
tp6732
a(S'p2_vo'
I6
tp6733
a(S'w'
I32
tp6734
a(S'p1_tl'
I95
tp6735
a(S'w'
I2
tp6736
a(S'p1_ll'
I1
tp6737
a(S'w'
I2
tp6738
a(S'p1_vo'
I6
tp6739
a(S'w'
I622
tp6740
a(S'no_vo'
I0
tp6741
a(S'w'
I2223
tp6742
a(S'w'
I4
tp6743
a(S'p2_vo'
I1
tp6744
a(S'w'
I17
tp6745
a(S'w'
I4
tp6746
a(S'p1_vo'
I1
tp6747
a(S'w'
I1463
tp6748
a(S'p2_tl'
I95
tp6749
a(S'w'
I1
tp6750
a(S'p2_ll'
I1
tp6751
a(S'w'
I2
tp6752
a(S'p2_vo'
I6
tp6753
a(S'w'
I25
tp6754
a(S'p1_tl'
I113
tp6755
a(S'w'
I1
tp6756
a(S'p1_ll'
I1
tp6757
a(S'w'
I3
tp6758
a(S'p1_vo'
I6
tp6759
a(S'w'
I2866
tp6760
a(S'tr_lr'
I0
tp6761
a(S'w'
I18
tp6762
a(S'w'
I3
tp6763
a(S'p2_vo'
I1
tp6764
a(S'w'
I18
tp6765
a(S'w'
I3
tp6766
a(S'p1_vo'
I1
tp6767
a(S'w'
I1426
tp6768
a(S'ch_no'
I1
tp6769
a(S'ch_tr'
I1
tp6770
a(S'ch_p2'
I1
tp6771
a(S'ch_p1'
I1
tp6772
a(S'w'
I1
tp6773
a(S'ch_no'
I1
tp6774
a(S'ch_tr'
I1
tp6775
a(S'ch_p2'
I1
tp6776
a(S'ch_p1'
I1
tp6777
a(S'w'
I6
tp6778
a(S'no_np'
I6
tp6779
a(S'no_ll'
I1
tp6780
a(S'w'
I1
tp6781
a(S'no_vo'
I10
tp6782
a(S'w'
I14
tp6783
a(S'tr_tl'
I29
tp6784
a(S'w'
I1
tp6785
a(S'tr_ll'
I1
tp6786
a(S'tr_th'
I1
tp6787
a(S'w'
I1
tp6788
a(S'tr_lr'
I127
tp6789
a(S'w'
I24
tp6790
a(S'p2_tl'
I113
tp6791
a(S'w'
I2
tp6792
a(S'p2_ll'
I1
tp6793
a(S'w'
I2
tp6794
a(S'p2_vo'
I6
tp6795
a(S'w'
I25
tp6796
a(S'p1_tl'
I142
tp6797
a(S'w'
I1
tp6798
a(S'p1_ll'
I1
tp6799
a(S'w'
I2
tp6800
a(S'p1_vo'
I6
tp6801
a(S'w'
I649
tp6802
a(S'no_vo'
I8
tp6803
a(S'w'
I747
tp6804
a(S'no_vo'
I6
tp6805
a(S'w'
I721
tp6806
a(S'no_vo'
I4
tp6807
a(S'w'
I734
tp6808
a(S'no_vo'
I2
tp6809
a(S'w'
I23
tp6810
a(S'w'
I3
tp6811
a(S'p2_vo'
I1
tp6812
a(S'w'
I18
tp6813
a(S'w'
I3
tp6814
a(S'p1_vo'
I1
tp6815
a(S'w'
I686
tp6816
a(S'no_vo'
I0
tp6817
a(S'w'
I745
tp6818
a(S'tr_tl'
I58
tp6819
a(S'w'
I2
tp6820
a(S'tr_ll'
I1
tp6821
a(S'tr_th'
I2
tp6822
a(S'w'
I25
tp6823
a(S'p2_tl'
I142
tp6824
a(S'w'
I1
tp6825
a(S'p2_ll'
I1
tp6826
a(S'w'
I2
tp6827
a(S'p2_vo'
I6
tp6828
a(S'w'
I25
tp6829
a(S'p1_tl'
I226
tp6830
a(S'w'
I1
tp6831
a(S'p1_ll'
I1
tp6832
a(S'w'
I3
tp6833
a(S'p1_vo'
I6
tp6834
a(S'w'
I2899
tp6835
a(S'w'
I4
tp6836
a(S'p2_vo'
I1
tp6837
a(S'w'
I17
tp6838
a(S'w'
I4
tp6839
a(S'p1_vo'
I1
tp6840
a(S'w'
I1413
tp6841
a(S'no_np'
I0
tp6842
a(S'no_ll'
I1
tp6843
a(S'w'
I1
tp6844
a(S'no_vo'
I10
tp6845
a(S'w'
I10
tp6846
a(S'tr_lr'
I0
tp6847
a(S'w'
I4
tp6848
a(S'tr_ll'
I1
tp6849
a(S'w'
I28
tp6850
a(S'p2_tl'
I71
tp6851
a(S'w'
I2
tp6852
a(S'p2_ll'
I1
tp6853
a(S'w'
I2
tp6854
a(S'p2_vo'
I6
tp6855
a(S'w'
I28
tp6856
a(S'p1_tl'
I95
tp6857
a(S'w'
I1
tp6858
a(S'p1_ll'
I1
tp6859
a(S'w'
I3
tp6860
a(S'p1_vo'
I6
tp6861
a(S'w'
I651
tp6862
a(S'no_vo'
I8
tp6863
a(S'w'
I733
tp6864
a(S'no_vo'
I6
tp6865
a(S'w'
I734
tp6866
a(S'no_vo'
I4
tp6867
a(S'w'
I734
tp6868
a(S'no_vo'
I2
tp6869
a(S'w'
I20
tp6870
a(S'w'
I4
tp6871
a(S'p2_vo'
I1
tp6872
a(S'w'
I17
tp6873
a(S'w'
I4
tp6874
a(S'p1_vo'
I1
tp6875
a(S'w'
I689
tp6876
a(S'no_vo'
I0
tp6877
a(S'w'
I752
tp6878
a(S'ch_no'
I1
tp6879
a(S'ch_tr'
I1
tp6880
a(S'ch_p2'
I1
tp6881
a(S'ch_p1'
I1
tp6882
a(S'ch_no'
I1
tp6883
a(S'ch_tr'
I1
tp6884
a(S'ch_p2'
I1
tp6885
a(S'ch_p1'
I1
tp6886
a(S'w'
I7
tp6887
a(S'no_np'
I2
tp6888
a(S'no_ll'
I1
tp6889
a(S'w'
I1
tp6890
a(S'no_vo'
I2
tp6891
a(S'w'
I13
tp6892
a(S'tr_ll'
I1
tp6893
a(S'w'
I1
tp6894
a(S'tr_lr'
I127
tp6895
a(S'w'
I24
tp6896
a(S'p2_tl'
I95
tp6897
a(S'w'
I1
tp6898
a(S'p2_ll'
I1
tp6899
a(S'w'
I3
tp6900
a(S'p2_vo'
I6
tp6901
a(S'w'
I24
tp6902
a(S'p1_tl'
I113
tp6903
a(S'w'
I2
tp6904
a(S'p1_ll'
I1
tp6905
a(S'w'
I2
tp6906
a(S'p1_vo'
I6
tp6907
a(S'w'
I637
tp6908
a(S'no_vo'
I0
tp6909
a(S'w'
I2223
tp6910
a(S'w'
I4
tp6911
a(S'p2_vo'
I1
tp6912
a(S'w'
I17
tp6913
a(S'w'
I4
tp6914
a(S'p1_vo'
I1
tp6915
a(S'w'
I1426
tp6916
a(S'ch_no'
I1
tp6917
a(S'ch_tr'
I1
tp6918
a(S'ch_p2'
I1
tp6919
a(S'ch_p1'
I1
tp6920
a(S'w'
I1
tp6921
a(S'ch_no'
I1
tp6922
a(S'ch_tr'
I1
tp6923
a(S'ch_p2'
I1
tp6924
a(S'ch_p1'
I1
tp6925
a(S'w'
I6
tp6926
a(S'no_np'
I6
tp6927
a(S'no_ll'
I1
tp6928
a(S'w'
I2
tp6929
a(S'no_vo'
I10
tp6930
a(S'w'
I14
tp6931
a(S'tr_tl'
I29
tp6932
a(S'w'
I1
tp6933
a(S'tr_ll'
I1
tp6934
a(S'tr_th'
I1
tp6935
a(S'w'
I25
tp6936
a(S'p2_tl'
I113
tp6937
a(S'w'
I1
tp6938
a(S'p2_ll'
I1
tp6939
a(S'w'
I3
tp6940
a(S'p2_vo'
I6
tp6941
a(S'w'
I24
tp6942
a(S'p1_tl'
I142
tp6943
a(S'w'
I2
tp6944
a(S'p1_ll'
I1
tp6945
a(S'w'
I2
tp6946
a(S'p1_vo'
I6
tp6947
a(S'w'
I648
tp6948
a(S'no_vo'
I8
tp6949
a(S'w'
I747
tp6950
a(S'no_vo'
I6
tp6951
a(S'w'
I721
tp6952
a(S'no_vo'
I4
tp6953
a(S'w'
I734
tp6954
a(S'no_vo'
I2
tp6955
a(S'w'
I22
tp6956
a(S'w'
I4
tp6957
a(S'p2_vo'
I1
tp6958
a(S'w'
I17
tp6959
a(S'w'
I4
tp6960
a(S'p1_vo'
I1
tp6961
a(S'w'
I686
tp6962
a(S'no_vo'
I0
tp6963
a(S'w'
I762
tp6964
a(S'p2_tl'
I142
tp6965
a(S'w'
I2
tp6966
a(S'p2_ll'
I1
tp6967
a(S'w'
I2
tp6968
a(S'p2_vo'
I6
tp6969
a(S'w'
I25
tp6970
a(S'p1_tl'
I226
tp6971
a(S'w'
I1
tp6972
a(S'p1_ll'
I1
tp6973
a(S'w'
I2
tp6974
a(S'p1_vo'
I6
tp6975
a(S'w'
I2893
tp6976
a(S'tr_lr'
I0
tp6977
a(S'w'
I17
tp6978
a(S'w'
I4
tp6979
a(S'p2_vo'
I1
tp6980
a(S'w'
I17
tp6981
a(S'w'
I4
tp6982
a(S'p1_vo'
I1
tp6983
a(S'w'
I1413
tp6984
a(S'ch_no'
I1
tp6985
a(S'ch_tr'
I1
tp6986
a(S'ch_p2'
I1
tp6987
a(S'ch_p1'
I1
tp6988
a(S'w'
I1
tp6989
a(S'ch_no'
I1
tp6990
a(S'ch_tr'
I1
tp6991
a(S'ch_p2'
I1
tp6992
a(S'ch_p1'
I1
tp6993
a(S'w'
I6
tp6994
a(S'no_np'
I2
tp6995
a(S'no_ll'
I1
tp6996
a(S'w'
I2
tp6997
a(S'no_vo'
I2
tp6998
a(S'w'
I13
tp6999
a(S'tr_tl'
I26
tp7000
a(S'w'
I1
tp7001
a(S'tr_ll'
I1
tp7002
a(S'tr_th'
I2
tp7003
a(S'w'
I1
tp7004
a(S'tr_lr'
I127
tp7005
a(S'w'
I32
tp7006
a(S'p2_tl'
I67
tp7007
a(S'w'
I1
tp7008
a(S'p2_ll'
I1
tp7009
a(S'w'
I2
tp7010
a(S'p2_vo'
I6
tp7011
a(S'w'
I32
tp7012
a(S'p1_tl'
I89
tp7013
a(S'w'
I1
tp7014
a(S'p1_ll'
I1
tp7015
a(S'w'
I3
tp7016
a(S'p1_vo'
I6
tp7017
a(S'w'
I634
tp7018
a(S'no_vo'
I0
tp7019
a(S'w'
I2222
tp7020
a(S'w'
I4
tp7021
a(S'p2_vo'
I1
tp7022
a(S'w'
I17
tp7023
a(S'w'
I4
tp7024
a(S'p1_vo'
I1
tp7025
a(S'w'
I1463
tp7026
a(S'p2_tl'
I89
tp7027
a(S'w'
I1
tp7028
a(S'p2_ll'
I1
tp7029
a(S'w'
I3
tp7030
a(S'p2_vo'
I6
tp7031
a(S'w'
I24
tp7032
a(S'p1_tl'
I106
tp7033
a(S'w'
I2
tp7034
a(S'p1_ll'
I1
tp7035
a(S'w'
I2
tp7036
a(S'p1_vo'
I6
tp7037
a(S'w'
I2866
tp7038
a(S'tr_lr'
I0
tp7039
a(S'w'
I18
tp7040
a(S'w'
I3
tp7041
a(S'p2_vo'
I1
tp7042
a(S'w'
I18
tp7043
a(S'w'
I3
tp7044
a(S'p1_vo'
I1
tp7045
a(S'w'
I1427
tp7046
a(S'ch_no'
I1
tp7047
a(S'ch_tr'
I1
tp7048
a(S'ch_p2'
I1
tp7049
a(S'ch_p1'
I1
tp7050
a(S'ch_no'
I1
tp7051
a(S'ch_tr'
I1
tp7052
a(S'ch_p2'
I1
tp7053
a(S'ch_p1'
I1
tp7054
a(S'w'
I7
tp7055
a(S'no_np'
I6
tp7056
a(S'no_ll'
I1
tp7057
a(S'w'
I1
tp7058
a(S'no_vo'
I10
tp7059
a(S'w'
I14
tp7060
a(S'tr_tl'
I13
tp7061
a(S'w'
I1
tp7062
a(S'tr_ll'
I1
tp7063
a(S'tr_th'
I1
tp7064
a(S'w'
I1
tp7065
a(S'tr_lr'
I127
tp7066
a(S'w'
I24
tp7067
a(S'p2_tl'
I106
tp7068
a(S'w'
I2
tp7069
a(S'p2_ll'
I1
tp7070
a(S'w'
I2
tp7071
a(S'p2_vo'
I6
tp7072
a(S'w'
I25
tp7073
a(S'p1_tl'
I134
tp7074
a(S'w'
I1
tp7075
a(S'p1_ll'
I1
tp7076
a(S'w'
I2
tp7077
a(S'p1_vo'
I6
tp7078
a(S'w'
I649
tp7079
a(S'no_vo'
I8
tp7080
a(S'w'
I746
tp7081
a(S'no_vo'
I6
tp7082
a(S'w'
I721
tp7083
a(S'no_vo'
I4
tp7084
a(S'w'
I734
tp7085
a(S'no_vo'
I2
tp7086
a(S'w'
I23
tp7087
a(S'w'
I3
tp7088
a(S'p2_vo'
I1
tp7089
a(S'w'
I18
tp7090
a(S'w'
I3
tp7091
a(S'p1_vo'
I1
tp7092
a(S'w'
I687
tp7093
a(S'no_vo'
I0
tp7094
a(S'w'
I738
tp7095
a(S'ch_no'
I1
tp7096
a(S'ch_tr'
I1
tp7097
a(S'ch_p2'
I1
tp7098
a(S'ch_p1'
I1
tp7099
a(S'w'
I1
tp7100
a(S'ch_no'
I1
tp7101
a(S'ch_tr'
I1
tp7102
a(S'ch_p2'
I1
tp7103
a(S'ch_p1'
I1
tp7104
a(S'w'
I6
tp7105
a(S'no_np'
I2
tp7106
a(S'w'
I1
tp7107
a(S'no_ll'
I1
tp7108
a(S'w'
I1
tp7109
a(S'no_vo'
I2
tp7110
a(S'w'
I13
tp7111
a(S'tr_tl'
I26
tp7112
a(S'w'
I2
tp7113
a(S'tr_ll'
I1
tp7114
a(S'tr_th'
I2
tp7115
a(S'w'
I25
tp7116
a(S'p2_tl'
I134
tp7117
a(S'w'
I1
tp7118
a(S'p2_ll'
I1
tp7119
a(S'w'
I2
tp7120
a(S'p2_vo'
I6
tp7121
a(S'w'
I25
tp7122
a(S'p1_tl'
I179
tp7123
a(S'w'
I1
tp7124
a(S'p1_ll'
I1
tp7125
a(S'w'
I3
tp7126
a(S'p1_vo'
I6
tp7127
a(S'w'
I648
tp7128
a(S'no_vo'
I0
tp7129
a(S'w'
I2236
tp7130
a(S'w'
I4
tp7131
a(S'p2_vo'
I1
tp7132
a(S'w'
I17
tp7133
a(S'w'
I4
tp7134
a(S'p1_vo'
I1
tp7135
a(S'w'
I1412
tp7136
a(S'no_np'
I0
tp7137
a(S'no_ll'
I1
tp7138
a(S'w'
I1
tp7139
a(S'no_vo'
I2
tp7140
a(S'w'
I10
tp7141
a(S'tr_lr'
I0
tp7142
a(S'w'
I4
tp7143
a(S'tr_ll'
I1
tp7144
a(S'w'
I28
tp7145
a(S'p2_tl'
I67
tp7146
a(S'w'
I2
tp7147
a(S'p2_ll'
I1
tp7148
a(S'w'
I2
tp7149
a(S'p2_vo'
I6
tp7150
a(S'w'
I28
tp7151
a(S'p1_tl'
I89
tp7152
a(S'w'
I1
tp7153
a(S'p1_ll'
I1
tp7154
a(S'w'
I3
tp7155
a(S'p1_vo'
I6
tp7156
a(S'w'
I651
tp7157
a(S'no_vo'
I0
tp7158
a(S'w'
I2220
tp7159
a(S'w'
I4
tp7160
a(S'p2_vo'
I1
tp7161
a(S'w'
I17
tp7162
a(S'w'
I4
tp7163
a(S'p1_vo'
I1
tp7164
a(S'w'
I1437
tp7165
a(S'ch_no'
I1
tp7166
a(S'ch_tr'
I1
tp7167
a(S'ch_p2'
I1
tp7168
a(S'ch_p1'
I1
tp7169
a(S'w'
I1
tp7170
a(S'ch_no'
I1
tp7171
a(S'ch_tr'
I1
tp7172
a(S'ch_p2'
I1
tp7173
a(S'ch_p1'
I1
tp7174
a(S'w'
I6
tp7175
a(S'w'
I1
tp7176
a(S'no_ll'
I1
tp7177
a(S'w'
I1
tp7178
a(S'no_vo'
I2
tp7179
a(S'w'
I13
tp7180
a(S'tr_ll'
I1
tp7181
a(S'tr_lr'
I127
tp7182
a(S'w'
I25
tp7183
a(S'p2_tl'
I89
tp7184
a(S'w'
I1
tp7185
a(S'p2_ll'
I1
tp7186
a(S'w'
I2
tp7187
a(S'p2_vo'
I6
tp7188
a(S'w'
I25
tp7189
a(S'p1_tl'
I106
tp7190
a(S'w'
I1
tp7191
a(S'p1_ll'
I1
tp7192
a(S'w'
I3
tp7193
a(S'p1_vo'
I6
tp7194
a(S'w'
I642
tp7195
a(S'no_vo'
I0
tp7196
a(S'w'
I2222
tp7197
a(S'w'
I4
tp7198
a(S'p2_vo'
I1
tp7199
a(S'w'
I17
tp7200
a(S'w'
I4
tp7201
a(S'p1_vo'
I1
tp7202
a(S'w'
I1427
tp7203
a(S'ch_no'
I1
tp7204
a(S'ch_tr'
I1
tp7205
a(S'ch_p2'
I1
tp7206
a(S'ch_p1'
I1
tp7207
a(S'w'
I1
tp7208
a(S'ch_no'
I1
tp7209
a(S'ch_tr'
I1
tp7210
a(S'ch_p2'
I1
tp7211
a(S'ch_p1'
I1
tp7212
a(S'w'
I6
tp7213
a(S'no_np'
I6
tp7214
a(S'no_ll'
I1
tp7215
a(S'w'
I2
tp7216
a(S'no_vo'
I10
tp7217
a(S'w'
I13
tp7218
a(S'tr_tl'
I13
tp7219
a(S'w'
I1
tp7220
a(S'tr_ll'
I1
tp7221
a(S'tr_th'
I1
tp7222
a(S'w'
I25
tp7223
a(S'p2_tl'
I106
tp7224
a(S'w'
I2
tp7225
a(S'p2_ll'
I1
tp7226
a(S'w'
I2
tp7227
a(S'p2_vo'
I6
tp7228
a(S'w'
I25
tp7229
a(S'p1_tl'
I134
tp7230
a(S'w'
I1
tp7231
a(S'p1_ll'
I1
tp7232
a(S'w'
I2
tp7233
a(S'p1_vo'
I6
tp7234
a(S'w'
I649
tp7235
a(S'no_vo'
I8
tp7236
a(S'w'
I747
tp7237
a(S'no_vo'
I6
tp7238
a(S'w'
I720
tp7239
a(S'no_vo'
I4
tp7240
a(S'w'
I734
tp7241
a(S'no_vo'
I2
tp7242
a(S'w'
I23
tp7243
a(S'w'
I4
tp7244
a(S'p2_vo'
I1
tp7245
a(S'w'
I17
tp7246
a(S'w'
I4
tp7247
a(S'p1_vo'
I1
tp7248
a(S'w'
I686
tp7249
a(S'no_vo'
I0
tp7250
a(S'w'
I762
tp7251
a(S'p2_tl'
I134
tp7252
a(S'w'
I1
tp7253
a(S'p2_ll'
I1
tp7254
a(S'w'
I3
tp7255
a(S'p2_vo'
I6
tp7256
a(S'w'
I24
tp7257
a(S'p1_tl'
I179
tp7258
a(S'w'
I2
tp7259
a(S'p1_ll'
I1
tp7260
a(S'w'
I2
tp7261
a(S'p1_vo'
I6
tp7262
a(S'w'
I2893
tp7263
a(S'tr_lr'
I0
tp7264
a(S'w'
I17
tp7265
a(S'w'
I4
tp7266
a(S'p2_vo'
I1
tp7267
a(S'w'
I17
tp7268
a(S'w'
I4
tp7269
a(S'p1_vo'
I1
tp7270
a(S'w'
I1424
tp7271
a(S'ch_no'
I1
tp7272
a(S'ch_tr'
I1
tp7273
a(S'ch_p2'
I1
tp7274
a(S'ch_p1'
I1
tp7275
a(S'w'
I1
tp7276
a(S'ch_no'
I1
tp7277
a(S'ch_tr'
I1
tp7278
a(S'ch_p2'
I1
tp7279
a(S'ch_p1'
I1
tp7280
a(S'w'
I6
tp7281
a(S'no_ll'
I1
tp7282
a(S'w'
I2
tp7283
a(S'no_vo'
I10
tp7284
a(S'w'
I15
tp7285
a(S'tr_tl'
I252
tp7286
a(S'w'
I2
tp7287
a(S'tr_ll'
I1
tp7288
a(S'tr_lr'
I127
tp7289
a(S'w'
I33
tp7290
a(S'p2_tl'
I63
tp7291
a(S'w'
I1
tp7292
a(S'p2_ll'
I1
tp7293
a(S'w'
I3
tp7294
a(S'p2_vo'
I6
tp7295
a(S'w'
I32
tp7296
a(S'p1_tl'
I84
tp7297
a(S'w'
I2
tp7298
a(S'p1_ll'
I1
tp7299
a(S'w'
I2
tp7300
a(S'p1_vo'
I6
tp7301
a(S'w'
I619
tp7302
a(S'no_vo'
I7
tp7303
a(S'w'
I734
tp7304
a(S'no_vo'
I4
tp7305
a(S'w'
I734
tp7306
a(S'no_vo'
I0
tp7307
a(S'w'
I755
tp7308
a(S'w'
I3
tp7309
a(S'p2_vo'
I1
tp7310
a(S'w'
I18
tp7311
a(S'w'
I3
tp7312
a(S'p1_vo'
I1
tp7313
a(S'w'
I693
tp7314
a(S'tr_lr'
I0
tp7315
a(S'w'
I746
tp7316
a(S'ch_no'
I1
tp7317
a(S'ch_tr'
I1
tp7318
a(S'ch_p2'
I1
tp7319
a(S'ch_p1'
I1
tp7320
a(S'w'
I1
tp7321
a(S'ch_no'
I1
tp7322
a(S'ch_tr'
I1
tp7323
a(S'ch_p2'
I1
tp7324
a(S'ch_p1'
I1
tp7325
a(S'w'
I6
tp7326
a(S'no_ll'
I1
tp7327
a(S'w'
I2
tp7328
a(S'no_vo'
I10
tp7329
a(S'w'
I12
tp7330
a(S'tr_ll'
I1
tp7331
a(S'w'
I1
tp7332
a(S'tr_lr'
I127
tp7333
a(S'w'
I24
tp7334
a(S'w'
I1
tp7335
a(S'p2_ll'
I1
tp7336
a(S'w'
I3
tp7337
a(S'p2_vo'
I6
tp7338
a(S'w'
I24
tp7339
a(S'w'
I1
tp7340
a(S'p1_ll'
I1
tp7341
a(S'w'
I2
tp7342
a(S'p1_vo'
I6
tp7343
a(S'w'
I640
tp7344
a(S'no_vo'
I7
tp7345
a(S'w'
I733
tp7346
a(S'no_vo'
I4
tp7347
a(S'w'
I735
tp7348
a(S'no_vo'
I0
tp7349
a(S'w'
I1472
tp7350
a(S'tr_lr'
I0
tp7351
a(S'w'
I6
tp7352
a(S'p2_vo'
I5
tp7353
a(S'w'
I7
tp7354
a(S'p1_vo'
I5
tp7355
a(S'w'
I720
tp7356
a(S'ch_no'
I1
tp7357
a(S'ch_tr'
I1
tp7358
a(S'ch_p2'
I1
tp7359
a(S'ch_p1'
I1
tp7360
a(S'w'
I1
tp7361
a(S'ch_no'
I1
tp7362
a(S'ch_tr'
I1
tp7363
a(S'ch_p2'
I1
tp7364
a(S'ch_p1'
I1
tp7365
a(S'w'
I6
tp7366
a(S'no_np'
I0
tp7367
a(S'no_ll'
I1
tp7368
a(S'w'
I1
tp7369
a(S'no_vo'
I2
tp7370
a(S'w'
I14
tp7371
a(S'tr_ll'
I1
tp7372
a(S'w'
I707
tp7373
a(S'no_vo'
I0
tp7374
a(S'w'
I765
tp7375
a(S'w'
I4
tp7376
a(S'p2_vo'
I1
tp7377
a(S'w'
I17
tp7378
a(S'w'
I4
tp7379
a(S'p1_vo'
I1
tp7380
a(S'w'
I2883
tp7381
a(S'ch_no'
I1
tp7382
a(S'ch_tr'
I1
tp7383
a(S'ch_p2'
I1
tp7384
a(S'ch_p1'
I1
tp7385
a(S'w'
I1
tp7386
a(S'ch_no'
I1
tp7387
a(S'ch_tr'
I1
tp7388
a(S'ch_p2'
I1
tp7389
a(S'ch_p1'
I1
tp7390
a(S'w'
I6
tp7391
a(S'no_np'
I6
tp7392
a(S'w'
I1
tp7393
a(S'no_ll'
I1
tp7394
a(S'w'
I1
tp7395
a(S'no_vo'
I10
tp7396
a(S'w'
I13
tp7397
a(S'tr_ll'
I1
tp7398
a(S'tr_lr'
I127
tp7399
a(S'w'
I24
tp7400
a(S'w'
I2
tp7401
a(S'p2_ll'
I1
tp7402
a(S'w'
I2
tp7403
a(S'p2_vo'
I6
tp7404
a(S'w'
I24
tp7405
a(S'w'
I2
tp7406
a(S'p1_ll'
I1
tp7407
a(S'w'
I2
tp7408
a(S'p1_vo'
I6
tp7409
a(S'w'
I652
tp7410
a(S'no_vo'
I7
tp7411
a(S'w'
I734
tp7412
a(S'no_vo'
I4
tp7413
a(S'w'
I734
tp7414
a(S'no_vo'
I0
tp7415
a(S'w'
I1472
tp7416
a(S'tr_lr'
I0
tp7417
a(S'w'
I7
tp7418
a(S'p2_vo'
I5
tp7419
a(S'w'
I7
tp7420
a(S'p1_vo'
I5
tp7421
a(S'w'
I721
tp7422
a(S'w'
I1
tp7423
a(S'no_ll'
I1
tp7424
a(S'w'
I14
tp7425
a(S'tr_ll'
I1
tp7426
a(S'w'
I2920
tp7427
a(S'p2_vo'
I4
tp7428
a(S'w'
I7
tp7429
a(S'p1_vo'
I4
tp7430
a(S'w'
I3662
tp7431
a(S'p2_vo'
I3
tp7432
a(S'w'
I7
tp7433
a(S'p1_vo'
I3
tp7434
a(S'w'
I737
tp7435
a(S'w'
I4
tp7436
a(S'p2_vo'
I1
tp7437
a(S'w'
I17
tp7438
a(S'w'
I4
tp7439
a(S'p1_vo'
I1
tp7440
a(S'w'
I1431
tp7441
a(S'no_ll'
I1
tp7442
a(S'w'
I4413
tp7443
a(S'p2_du'
I0
tp7444
a(S'p2_vo'
I0
tp7445
a(S'w'
I3
tp7446
a(S'w'
I1
tp7447
a(S'p2_ll'
I1
tp7448
a(S'w'
I17
tp7449
a(S'p1_du'
I0
tp7450
a(S'p1_vo'
I0
tp7451
a(S'w'
I2
tp7452
a(S'w'
I1
tp7453
a(S'p1_ll'
I1
tp7454
a(S'w'
I4368
tp7455
a(S'ch_no'
I1
tp7456
a(S'ch_tr'
I1
tp7457
a(S'ch_p2'
I1
tp7458
a(S'ch_p1'
I1
tp7459
a(S'w'
I1
tp7460
a(S'ch_no'
I1
tp7461
a(S'ch_tr'
I1
tp7462
a(S'ch_p2'
I1
tp7463
a(S'ch_p1'
I1
tp7464
a(S'w'
I6
tp7465
a(S'no_ll'
I1
tp7466
a(S'w'
I2
tp7467
a(S'no_vo'
I2
tp7468
a(S'w'
I13
tp7469
a(S'tr_tl'
I254
tp7470
a(S'w'
I2
tp7471
a(S'tr_ll'
I1
tp7472
a(S'tr_th'
I0
tp7473
a(S'tr_lr'
I127
tp7474
a(S'w'
I23
tp7475
a(S'p2_tl'
I254
tp7476
a(S'w'
I1
tp7477
a(S'p2_ll'
I1
tp7478
a(S'w'
I3
tp7479
a(S'p2_du'
I1
tp7480
a(S'p2_vo'
I6
tp7481
a(S'w'
I22
tp7482
a(S'p1_tl'
I83
tp7483
a(S'w'
I2
tp7484
a(S'p1_ll'
I1
tp7485
a(S'p1_th'
I1
tp7486
a(S'w'
I2
tp7487
a(S'p1_du'
I1
tp7488
a(S'p1_vo'
I6
tp7489
a(S'w'
I1386
tp7490
a(S'no_vo'
I1
tp7491
a(S'w'
I734
tp7492
a(S'no_vo'
I0
tp7493
a(S'w'
I756
tp7494
a(S'w'
I4
tp7495
a(S'p2_vo'
I1
tp7496
a(S'w'
I17
tp7497
a(S'w'
I4
tp7498
a(S'p1_vo'
I1
tp7499
a(S'w'
I692
tp7500
a(S'tr_lr'
I0
tp7501
a(S'w'
I742
tp7502
a(S'ch_no'
I1
tp7503
a(S'ch_tr'
I1
tp7504
a(S'ch_p2'
I1
tp7505
a(S'ch_p1'
I1
tp7506
a(S'w'
I1
tp7507
a(S'ch_no'
I1
tp7508
a(S'ch_tr'
I1
tp7509
a(S'ch_p2'
I1
tp7510
a(S'ch_p1'
I1
tp7511
a(S'w'
I6
tp7512
a(S'no_ll'
I1
tp7513
a(S'w'
I2
tp7514
a(S'no_vo'
I2
tp7515
a(S'w'
I11
tp7516
a(S'tr_tl'
I29
tp7517
a(S'w'
I1
tp7518
a(S'tr_ll'
I1
tp7519
a(S'tr_th'
I1
tp7520
a(S'w'
I1
tp7521
a(S'tr_lr'
I127
tp7522
a(S'w'
I25
tp7523
a(S'p2_tl'
I29
tp7524
a(S'w'
I1
tp7525
a(S'p2_ll'
I1
tp7526
a(S'p2_th'
I1
tp7527
a(S'w'
I2
tp7528
a(S'p2_vo'
I6
tp7529
a(S'w'
I25
tp7530
a(S'p1_tl'
I124
tp7531
a(S'w'
I1
tp7532
a(S'p1_ll'
I1
tp7533
a(S'w'
I2
tp7534
a(S'p1_vo'
I6
tp7535
a(S'w'
I1376
tp7536
a(S'no_vo'
I1
tp7537
a(S'w'
I734
tp7538
a(S'no_vo'
I0
tp7539
a(S'w'
I756
tp7540
a(S'w'
I4
tp7541
a(S'p2_vo'
I1
tp7542
a(S'w'
I17
tp7543
a(S'w'
I4
tp7544
a(S'p1_vo'
I1
tp7545
a(S'w'
I692
tp7546
a(S'tr_lr'
I0
tp7547
a(S'w'
I729
tp7548
a(S'ch_no'
I1
tp7549
a(S'ch_tr'
I1
tp7550
a(S'ch_p2'
I1
tp7551
a(S'ch_p1'
I1
tp7552
a(S'w'
I1
tp7553
a(S'ch_no'
I1
tp7554
a(S'ch_tr'
I1
tp7555
a(S'ch_p2'
I1
tp7556
a(S'ch_p1'
I1
tp7557
a(S'w'
I6
tp7558
a(S'no_ll'
I1
tp7559
a(S'w'
I2
tp7560
a(S'no_vo'
I2
tp7561
a(S'w'
I11
tp7562
a(S'tr_tl'
I83
tp7563
a(S'w'
I1
tp7564
a(S'tr_ll'
I1
tp7565
a(S'w'
I1
tp7566
a(S'tr_lr'
I127
tp7567
a(S'w'
I24
tp7568
a(S'p2_tl'
I83
tp7569
a(S'w'
I2
tp7570
a(S'p2_ll'
I1
tp7571
a(S'w'
I2
tp7572
a(S'p2_vo'
I6
tp7573
a(S'w'
I25
tp7574
a(S'p1_tl'
I196
tp7575
a(S'w'
I1
tp7576
a(S'p1_ll'
I1
tp7577
a(S'w'
I2
tp7578
a(S'p1_vo'
I6
tp7579
a(S'w'
I1402
tp7580
a(S'no_vo'
I1
tp7581
a(S'w'
I720
tp7582
a(S'no_vo'
I0
tp7583
a(S'w'
I757
tp7584
a(S'w'
I3
tp7585
a(S'p2_vo'
I1
tp7586
a(S'w'
I18
tp7587
a(S'w'
I3
tp7588
a(S'p1_vo'
I1
tp7589
a(S'w'
I693
tp7590
a(S'tr_lr'
I0
tp7591
a(S'w'
I729
tp7592
a(S'ch_no'
I1
tp7593
a(S'ch_tr'
I1
tp7594
a(S'ch_p2'
I1
tp7595
a(S'ch_p1'
I1
tp7596
a(S'w'
I1
tp7597
a(S'ch_no'
I1
tp7598
a(S'ch_tr'
I1
tp7599
a(S'ch_p2'
I1
tp7600
a(S'ch_p1'
I1
tp7601
a(S'w'
I6
tp7602
a(S'no_ll'
I1
tp7603
a(S'w'
I2
tp7604
a(S'no_vo'
I2
tp7605
a(S'w'
I11
tp7606
a(S'tr_tl'
I103
tp7607
a(S'w'
I1
tp7608
a(S'tr_ll'
I1
tp7609
a(S'w'
I1
tp7610
a(S'tr_lr'
I127
tp7611
a(S'w'
I24
tp7612
a(S'p2_tl'
I103
tp7613
a(S'w'
I2
tp7614
a(S'p2_ll'
I1
tp7615
a(S'w'
I2
tp7616
a(S'p2_vo'
I6
tp7617
a(S'w'
I24
tp7618
a(S'p1_tl'
I223
tp7619
a(S'w'
I2
tp7620
a(S'p1_ll'
I1
tp7621
a(S'w'
I2
tp7622
a(S'p1_vo'
I6
tp7623
a(S'w'
I1389
tp7624
a(S'no_vo'
I1
tp7625
a(S'w'
I733
tp7626
a(S'no_vo'
I0
tp7627
a(S'w'
I770
tp7628
a(S'w'
I3
tp7629
a(S'p2_vo'
I1
tp7630
a(S'w'
I18
tp7631
a(S'w'
I3
tp7632
a(S'p1_vo'
I1
tp7633
a(S'w'
I680
tp7634
a(S'tr_lr'
I0
tp7635
a(S'w'
I729
tp7636
a(S'ch_no'
I1
tp7637
a(S'ch_tr'
I1
tp7638
a(S'ch_p2'
I1
tp7639
a(S'ch_p1'
I1
tp7640
a(S'ch_no'
I1
tp7641
a(S'ch_tr'
I1
tp7642
a(S'ch_p2'
I1
tp7643
a(S'ch_p1'
I1
tp7644
a(S'w'
I7
tp7645
a(S'no_ll'
I1
tp7646
a(S'w'
I1
tp7647
a(S'no_vo'
I2
tp7648
a(S'w'
I11
tp7649
a(S'tr_tl'
I124
tp7650
a(S'w'
I2
tp7651
a(S'tr_ll'
I1
tp7652
a(S'w'
I1
tp7653
a(S'tr_lr'
I127
tp7654
a(S'w'
I24
tp7655
a(S'p2_tl'
I124
tp7656
a(S'w'
I1
tp7657
a(S'p2_ll'
I1
tp7658
a(S'w'
I3
tp7659
a(S'p2_vo'
I6
tp7660
a(S'w'
I24
tp7661
a(S'p1_tl'
I252
tp7662
a(S'w'
I2
tp7663
a(S'p1_ll'
I1
tp7664
a(S'w'
I2
tp7665
a(S'p1_vo'
I6
tp7666
a(S'w'
I1388
tp7667
a(S'no_vo'
I1
tp7668
a(S'w'
I734
tp7669
a(S'no_vo'
I0
tp7670
a(S'w'
I757
tp7671
a(S'w'
I3
tp7672
a(S'p2_vo'
I1
tp7673
a(S'w'
I18
tp7674
a(S'w'
I3
tp7675
a(S'p1_vo'
I1
tp7676
a(S'w'
I692
tp7677
a(S'tr_lr'
I0
tp7678
a(S'w'
I742
tp7679
a(S'ch_no'
I1
tp7680
a(S'ch_tr'
I1
tp7681
a(S'ch_p2'
I1
tp7682
a(S'ch_p1'
I1
tp7683
a(S'w'
I1
tp7684
a(S'ch_no'
I1
tp7685
a(S'ch_tr'
I1
tp7686
a(S'ch_p2'
I1
tp7687
a(S'ch_p1'
I1
tp7688
a(S'w'
I6
tp7689
a(S'w'
I1
tp7690
a(S'no_ll'
I1
tp7691
a(S'w'
I1
tp7692
a(S'no_vo'
I2
tp7693
a(S'w'
I11
tp7694
a(S'tr_tl'
I171
tp7695
a(S'w'
I2
tp7696
a(S'tr_ll'
I1
tp7697
a(S'tr_lr'
I127
tp7698
a(S'w'
I25
tp7699
a(S'p2_tl'
I171
tp7700
a(S'w'
I1
tp7701
a(S'p2_ll'
I1
tp7702
a(S'w'
I2
tp7703
a(S'p2_vo'
I6
tp7704
a(S'w'
I25
tp7705
a(S'p1_tl'
I58
tp7706
a(S'w'
I1
tp7707
a(S'p1_ll'
I1
tp7708
a(S'p1_th'
I2
tp7709
a(S'w'
I3
tp7710
a(S'p1_vo'
I6
tp7711
a(S'w'
I1375
tp7712
a(S'no_vo'
I1
tp7713
a(S'w'
I734
tp7714
a(S'no_vo'
I0
tp7715
a(S'w'
I756
tp7716
a(S'w'
I4
tp7717
a(S'p2_vo'
I1
tp7718
a(S'w'
I17
tp7719
a(S'w'
I4
tp7720
a(S'p1_vo'
I1
tp7721
a(S'w'
I692
tp7722
a(S'tr_lr'
I0
tp7723
a(S'w'
I729
tp7724
a(S'ch_no'
I1
tp7725
a(S'ch_tr'
I1
tp7726
a(S'ch_p2'
I1
tp7727
a(S'ch_p1'
I1
tp7728
a(S'w'
I1
tp7729
a(S'ch_no'
I1
tp7730
a(S'ch_tr'
I1
tp7731
a(S'ch_p2'
I1
tp7732
a(S'ch_p1'
I1
tp7733
a(S'w'
I6
tp7734
a(S'no_ll'
I1
tp7735
a(S'w'
I2
tp7736
a(S'no_vo'
I2
tp7737
a(S'w'
I13
tp7738
a(S'tr_tl'
I252
tp7739
a(S'w'
I1
tp7740
a(S'tr_ll'
I1
tp7741
a(S'w'
I1
tp7742
a(S'tr_lr'
I127
tp7743
a(S'w'
I24
tp7744
a(S'p2_tl'
I252
tp7745
a(S'w'
I2
tp7746
a(S'p2_ll'
I1
tp7747
a(S'w'
I2
tp7748
a(S'p2_vo'
I6
tp7749
a(S'w'
I25
tp7750
a(S'p1_tl'
I166
tp7751
a(S'w'
I1
tp7752
a(S'p1_ll'
I1
tp7753
a(S'w'
I2
tp7754
a(S'p1_vo'
I6
tp7755
a(S'w'
I1400
tp7756
a(S'no_vo'
I1
tp7757
a(S'w'
I721
tp7758
a(S'no_vo'
I0
tp7759
a(S'w'
I756
tp7760
a(S'w'
I4
tp7761
a(S'p2_vo'
I1
tp7762
a(S'w'
I17
tp7763
a(S'w'
I4
tp7764
a(S'p1_vo'
I1
tp7765
a(S'w'
I692
tp7766
a(S'tr_lr'
I0
tp7767
a(S'w'
I729
tp7768
a(S'ch_no'
I1
tp7769
a(S'ch_tr'
I1
tp7770
a(S'ch_p2'
I1
tp7771
a(S'ch_p1'
I1
tp7772
a(S'w'
I1
tp7773
a(S'ch_no'
I1
tp7774
a(S'ch_tr'
I1
tp7775
a(S'ch_p2'
I1
tp7776
a(S'ch_p1'
I1
tp7777
a(S'w'
I6
tp7778
a(S'no_ll'
I1
tp7779
a(S'w'
I2
tp7780
a(S'no_vo'
I2
tp7781
a(S'w'
I11
tp7782
a(S'tr_tl'
I58
tp7783
a(S'w'
I1
tp7784
a(S'tr_ll'
I1
tp7785
a(S'tr_th'
I2
tp7786
a(S'w'
I1
tp7787
a(S'tr_lr'
I127
tp7788
a(S'w'
I24
tp7789
a(S'p2_tl'
I58
tp7790
a(S'w'
I2
tp7791
a(S'p2_ll'
I1
tp7792
a(S'p2_th'
I2
tp7793
a(S'w'
I2
tp7794
a(S'p2_vo'
I6
tp7795
a(S'w'
I25
tp7796
a(S'p1_tl'
I249
tp7797
a(S'w'
I1
tp7798
a(S'p1_ll'
I1
tp7799
a(S'w'
I2
tp7800
a(S'p1_vo'
I6
tp7801
a(S'w'
I1389
tp7802
a(S'no_vo'
I1
tp7803
a(S'w'
I733
tp7804
a(S'no_vo'
I0
tp7805
a(S'w'
I770
tp7806
a(S'w'
I3
tp7807
a(S'p2_vo'
I1
tp7808
a(S'w'
I18
tp7809
a(S'w'
I3
tp7810
a(S'p1_vo'
I1
tp7811
a(S'w'
I680
tp7812
a(S'tr_lr'
I0
tp7813
a(S'w'
I738
tp7814
a(S'ch_no'
I1
tp7815
a(S'ch_tr'
I1
tp7816
a(S'ch_p2'
I1
tp7817
a(S'ch_p1'
I1
tp7818
a(S'w'
I1
tp7819
a(S'ch_no'
I1
tp7820
a(S'ch_tr'
I1
tp7821
a(S'ch_p2'
I1
tp7822
a(S'ch_p1'
I1
tp7823
a(S'w'
I6
tp7824
a(S'no_ll'
I1
tp7825
a(S'w'
I2
tp7826
a(S'no_vo'
I10
tp7827
a(S'w'
I11
tp7828
a(S'tr_tl'
I252
tp7829
a(S'w'
I2
tp7830
a(S'tr_ll'
I1
tp7831
a(S'tr_th'
I1
tp7832
a(S'tr_lr'
I127
tp7833
a(S'w'
I30
tp7834
a(S'p2_tl'
I63
tp7835
a(S'w'
I1
tp7836
a(S'p2_ll'
I1
tp7837
a(S'p2_th'
I0
tp7838
a(S'w'
I2
tp7839
a(S'p2_vo'
I6
tp7840
a(S'w'
I30
tp7841
a(S'p1_tl'
I84
tp7842
a(S'w'
I1
tp7843
a(S'p1_ll'
I1
tp7844
a(S'p1_th'
I0
tp7845
a(S'w'
I3
tp7846
a(S'p1_vo'
I6
tp7847
a(S'w'
I636
tp7848
a(S'no_vo'
I7
tp7849
a(S'w'
I734
tp7850
a(S'no_vo'
I4
tp7851
a(S'w'
I734
tp7852
a(S'no_vo'
I0
tp7853
a(S'w'
I755
tp7854
a(S'w'
I3
tp7855
a(S'p2_vo'
I1
tp7856
a(S'w'
I18
tp7857
a(S'w'
I3
tp7858
a(S'p1_vo'
I1
tp7859
a(S'w'
I693
tp7860
a(S'tr_lr'
I0
tp7861
a(S'w'
I746
tp7862
a(S'ch_no'
I1
tp7863
a(S'ch_tr'
I1
tp7864
a(S'ch_p2'
I1
tp7865
a(S'ch_p1'
I1
tp7866
a(S'w'
I1
tp7867
a(S'ch_no'
I1
tp7868
a(S'ch_tr'
I1
tp7869
a(S'ch_p2'
I1
tp7870
a(S'ch_p1'
I1
tp7871
a(S'w'
I6
tp7872
a(S'no_ll'
I1
tp7873
a(S'w'
I2
tp7874
a(S'no_vo'
I10
tp7875
a(S'w'
I12
tp7876
a(S'tr_ll'
I1
tp7877
a(S'w'
I1
tp7878
a(S'tr_lr'
I127
tp7879
a(S'w'
I24
tp7880
a(S'w'
I1
tp7881
a(S'p2_ll'
I1
tp7882
a(S'w'
I2
tp7883
a(S'p2_vo'
I6
tp7884
a(S'w'
I25
tp7885
a(S'w'
I1
tp7886
a(S'p1_ll'
I1
tp7887
a(S'w'
I2
tp7888
a(S'p1_vo'
I6
tp7889
a(S'w'
I640
tp7890
a(S'no_vo'
I7
tp7891
a(S'w'
I733
tp7892
a(S'no_vo'
I4
tp7893
a(S'w'
I735
tp7894
a(S'no_vo'
I0
tp7895
a(S'w'
I1471
tp7896
a(S'tr_lr'
I0
tp7897
a(S'w'
I7
tp7898
a(S'p2_vo'
I5
tp7899
a(S'w'
I7
tp7900
a(S'p1_vo'
I5
tp7901
a(S'w'
I720
tp7902
a(S'ch_no'
I1
tp7903
a(S'ch_tr'
I1
tp7904
a(S'ch_p2'
I1
tp7905
a(S'ch_p1'
I1
tp7906
a(S'ch_no'
I1
tp7907
a(S'ch_tr'
I1
tp7908
a(S'ch_p2'
I1
tp7909
a(S'ch_p1'
I1
tp7910
a(S'w'
I7
tp7911
a(S'no_np'
I0
tp7912
a(S'no_ll'
I1
tp7913
a(S'w'
I1
tp7914
a(S'no_vo'
I2
tp7915
a(S'w'
I14
tp7916
a(S'tr_ll'
I1
tp7917
a(S'w'
I707
tp7918
a(S'no_vo'
I0
tp7919
a(S'w'
I765
tp7920
a(S'w'
I4
tp7921
a(S'p2_vo'
I1
tp7922
a(S'w'
I17
tp7923
a(S'w'
I4
tp7924
a(S'p1_vo'
I1
tp7925
a(S'w'
I2883
tp7926
a(S'ch_no'
I1
tp7927
a(S'ch_tr'
I1
tp7928
a(S'ch_p2'
I1
tp7929
a(S'ch_p1'
I1
tp7930
a(S'w'
I1
tp7931
a(S'ch_no'
I1
tp7932
a(S'ch_tr'
I1
tp7933
a(S'ch_p2'
I1
tp7934
a(S'ch_p1'
I1
tp7935
a(S'w'
I6
tp7936
a(S'no_np'
I6
tp7937
a(S'w'
I1
tp7938
a(S'no_ll'
I1
tp7939
a(S'w'
I1
tp7940
a(S'no_vo'
I10
tp7941
a(S'w'
I13
tp7942
a(S'tr_ll'
I1
tp7943
a(S'tr_lr'
I127
tp7944
a(S'w'
I24
tp7945
a(S'w'
I2
tp7946
a(S'p2_ll'
I1
tp7947
a(S'w'
I2
tp7948
a(S'p2_vo'
I6
tp7949
a(S'w'
I24
tp7950
a(S'w'
I2
tp7951
a(S'p1_ll'
I1
tp7952
a(S'w'
I2
tp7953
a(S'p1_vo'
I6
tp7954
a(S'w'
I652
tp7955
a(S'no_vo'
I7
tp7956
a(S'w'
I734
tp7957
a(S'no_vo'
I4
tp7958
a(S'w'
I734
tp7959
a(S'no_vo'
I0
tp7960
a(S'w'
I1472
tp7961
a(S'tr_lr'
I0
tp7962
a(S'w'
I7
tp7963
a(S'p2_vo'
I5
tp7964
a(S'w'
I7
tp7965
a(S'p1_vo'
I5
tp7966
a(S'w'
I721
tp7967
a(S'w'
I1
tp7968
a(S'no_ll'
I1
tp7969
a(S'w'
I16
tp7970
a(S'tr_ll'
I1
tp7971
a(S'w'
I2918
tp7972
a(S'p2_vo'
I4
tp7973
a(S'w'
I7
tp7974
a(S'p1_vo'
I4
tp7975
a(S'w'
I3662
tp7976
a(S'p2_vo'
I3
tp7977
a(S'w'
I7
tp7978
a(S'p1_vo'
I3
tp7979
a(S'w'
I737
tp7980
a(S'w'
I4
tp7981
a(S'p2_vo'
I1
tp7982
a(S'w'
I17
tp7983
a(S'w'
I4
tp7984
a(S'p1_vo'
I1
tp7985
a(S'w'
I1431
tp7986
a(S'no_ll'
I1
tp7987
a(S'w'
I4413
tp7988
a(S'p2_du'
I0
tp7989
a(S'p2_vo'
I0
tp7990
a(S'w'
I2
tp7991
a(S'w'
I2
tp7992
a(S'p2_ll'
I1
tp7993
a(S'w'
I16
tp7994
a(S'p1_du'
I0
tp7995
a(S'p1_vo'
I0
tp7996
a(S'w'
I3
tp7997
a(S'w'
I1
tp7998
a(S'p1_ll'
I1
tp7999
a(S'w'
I4376
tp8000
a(S'ch_no'
I1
tp8001
a(S'ch_tr'
I1
tp8002
a(S'ch_p2'
I1
tp8003
a(S'ch_p1'
I1
tp8004
a(S'w'
I1
tp8005
a(S'ch_no'
I1
tp8006
a(S'ch_tr'
I1
tp8007
a(S'ch_p2'
I1
tp8008
a(S'ch_p1'
I1
tp8009
a(S'w'
I6
tp8010
a(S'no_ll'
I1
tp8011
a(S'w'
I2
tp8012
a(S'no_vo'
I10
tp8013
a(S'w'
I13
tp8014
a(S'tr_tl'
I124
tp8015
a(S'w'
I2
tp8016
a(S'tr_ll'
I1
tp8017
a(S'tr_lr'
I127
tp8018
a(S'w'
I23
tp8019
a(S'p2_tl'
I160
tp8020
a(S'w'
I1
tp8021
a(S'p2_ll'
I1
tp8022
a(S'w'
I2
tp8023
a(S'p2_du'
I1
tp8024
a(S'p2_vo'
I6
tp8025
a(S'w'
I23
tp8026
a(S'p1_tl'
I213
tp8027
a(S'w'
I1
tp8028
a(S'p1_ll'
I1
tp8029
a(S'w'
I3
tp8030
a(S'p1_du'
I1
tp8031
a(S'p1_vo'
I6
tp8032
a(S'w'
I645
tp8033
a(S'no_vo'
I8
tp8034
a(S'w'
I734
tp8035
a(S'no_vo'
I6
tp8036
a(S'w'
I733
tp8037
a(S'no_vo'
I4
tp8038
a(S'w'
I734
tp8039
a(S'no_vo'
I2
tp8040
a(S'w'
I734
tp8041
a(S'no_vo'
I0
tp8042
a(S'w'
I12
tp8043
a(S'p2_vo'
I5
tp8044
a(S'w'
I7
tp8045
a(S'p1_vo'
I5
tp8046
a(S'w'
I732
tp8047
a(S'ch_no'
I1
tp8048
a(S'ch_tr'
I1
tp8049
a(S'ch_p2'
I1
tp8050
a(S'ch_p1'
I1
tp8051
a(S'w'
I1
tp8052
a(S'ch_no'
I1
tp8053
a(S'ch_tr'
I1
tp8054
a(S'ch_p2'
I1
tp8055
a(S'ch_p1'
I1
tp8056
a(S'w'
I6
tp8057
a(S'no_np'
I0
tp8058
a(S'no_ll'
I1
tp8059
a(S'w'
I2
tp8060
a(S'no_vo'
I2
tp8061
a(S'w'
I707
tp8062
a(S'no_vo'
I0
tp8063
a(S'w'
I2212
tp8064
a(S'p2_vo'
I4
tp8065
a(S'w'
I7
tp8066
a(S'p1_vo'
I4
tp8067
a(S'w'
I1451
tp8068
a(S'ch_no'
I1
tp8069
a(S'ch_tr'
I1
tp8070
a(S'ch_p2'
I1
tp8071
a(S'ch_p1'
I1
tp8072
a(S'w'
I1
tp8073
a(S'ch_no'
I1
tp8074
a(S'ch_tr'
I1
tp8075
a(S'ch_p2'
I1
tp8076
a(S'ch_p1'
I1
tp8077
a(S'w'
I6
tp8078
a(S'no_ll'
I1
tp8079
a(S'w'
I2
tp8080
a(S'no_vo'
I2
tp8081
a(S'w'
I724
tp8082
a(S'no_vo'
I0
tp8083
a(S'w'
I1472
tp8084
a(S'tr_lr'
I0
tp8085
a(S'w'
I7
tp8086
a(S'p2_vo'
I3
tp8087
a(S'w'
I7
tp8088
a(S'p1_vo'
I3
tp8089
a(S'w'
I736
tp8090
a(S'w'
I4
tp8091
a(S'p2_vo'
I1
tp8092
a(S'w'
I17
tp8093
a(S'w'
I4
tp8094
a(S'p1_vo'
I1
tp8095
a(S'w'
I1427
tp8096
a(S'ch_no'
I1
tp8097
a(S'ch_tr'
I1
tp8098
a(S'ch_p2'
I1
tp8099
a(S'ch_p1'
I1
tp8100
a(S'w'
I1
tp8101
a(S'ch_no'
I1
tp8102
a(S'ch_tr'
I1
tp8103
a(S'ch_p2'
I1
tp8104
a(S'ch_p1'
I1
tp8105
a(S'w'
I6
tp8106
a(S'no_np'
I6
tp8107
a(S'no_ll'
I1
tp8108
a(S'w'
I2
tp8109
a(S'no_vo'
I10
tp8110
a(S'w'
I720
tp8111
a(S'no_vo'
I8
tp8112
a(S'w'
I734
tp8113
a(S'no_vo'
I6
tp8114
a(S'w'
I734
tp8115
a(S'no_vo'
I4
tp8116
a(S'w'
I747
tp8117
a(S'no_vo'
I2
tp8118
a(S'w'
I720
tp8119
a(S'no_vo'
I0
tp8120
a(S'w'
I742
tp8121
a(S'ch_no'
I1
tp8122
a(S'ch_tr'
I1
tp8123
a(S'ch_p2'
I1
tp8124
a(S'ch_p1'
I1
tp8125
a(S'w'
I1
tp8126
a(S'ch_no'
I1
tp8127
a(S'ch_tr'
I1
tp8128
a(S'ch_p2'
I1
tp8129
a(S'ch_p1'
I1
tp8130
a(S'w'
I6
tp8131
a(S'w'
I1
tp8132
a(S'no_ll'
I1
tp8133
a(S'w'
I1
tp8134
a(S'no_vo'
I10
tp8135
a(S'w'
I11
tp8136
a(S'tr_tl'
I83
tp8137
a(S'w'
I2
tp8138
a(S'tr_ll'
I1
tp8139
a(S'w'
I1
tp8140
a(S'tr_lr'
I127
tp8141
a(S'w'
I24
tp8142
a(S'p2_tl'
I142
tp8143
a(S'w'
I1
tp8144
a(S'p2_ll'
I1
tp8145
a(S'w'
I3
tp8146
a(S'p2_vo'
I6
tp8147
a(S'w'
I24
tp8148
a(S'p1_tl'
I190
tp8149
a(S'w'
I1
tp8150
a(S'p1_ll'
I1
tp8151
a(S'w'
I3
tp8152
a(S'p1_vo'
I6
tp8153
a(S'w'
I647
tp8154
a(S'no_vo'
I8
tp8155
a(S'w'
I734
tp8156
a(S'no_vo'
I6
tp8157
a(S'w'
I734
tp8158
a(S'no_vo'
I4
tp8159
a(S'w'
I733
tp8160
a(S'no_vo'
I2
tp8161
a(S'w'
I734
tp8162
a(S'no_vo'
I0
tp8163
a(S'w'
I12
tp8164
a(S'p2_vo'
I5
tp8165
a(S'w'
I7
tp8166
a(S'p1_vo'
I5
tp8167
a(S'w'
I733
tp8168
a(S'ch_no'
I1
tp8169
a(S'ch_tr'
I1
tp8170
a(S'ch_p2'
I1
tp8171
a(S'ch_p1'
I1
tp8172
a(S'ch_no'
I1
tp8173
a(S'ch_tr'
I1
tp8174
a(S'ch_p2'
I1
tp8175
a(S'ch_p1'
I1
tp8176
a(S'w'
I7
tp8177
a(S'no_np'
I0
tp8178
a(S'no_ll'
I1
tp8179
a(S'w'
I1
tp8180
a(S'no_vo'
I2
tp8181
a(S'w'
I708
tp8182
a(S'no_vo'
I0
tp8183
a(S'w'
I2212
tp8184
a(S'p2_vo'
I4
tp8185
a(S'w'
I6
tp8186
a(S'p1_vo'
I4
tp8187
a(S'w'
I1451
tp8188
a(S'ch_no'
I1
tp8189
a(S'ch_tr'
I1
tp8190
a(S'ch_p2'
I1
tp8191
a(S'ch_p1'
I1
tp8192
a(S'w'
I1
tp8193
a(S'ch_no'
I1
tp8194
a(S'ch_tr'
I1
tp8195
a(S'ch_p2'
I1
tp8196
a(S'ch_p1'
I1
tp8197
a(S'w'
I6
tp8198
a(S'no_ll'
I1
tp8199
a(S'w'
I2
tp8200
a(S'no_vo'
I2
tp8201
a(S'w'
I725
tp8202
a(S'no_vo'
I0
tp8203
a(S'w'
I1471
tp8204
a(S'tr_lr'
I0
tp8205
a(S'w'
I7
tp8206
a(S'p2_vo'
I3
tp8207
a(S'w'
I7
tp8208
a(S'p1_vo'
I3
tp8209
a(S'w'
I737
tp8210
a(S'w'
I3
tp8211
a(S'p2_vo'
I1
tp8212
a(S'w'
I18
tp8213
a(S'w'
I3
tp8214
a(S'p1_vo'
I1
tp8215
a(S'w'
I1427
tp8216
a(S'ch_no'
I1
tp8217
a(S'ch_tr'
I1
tp8218
a(S'ch_p2'
I1
tp8219
a(S'ch_p1'
I1
tp8220
a(S'w'
I1
tp8221
a(S'ch_no'
I1
tp8222
a(S'ch_tr'
I1
tp8223
a(S'ch_p2'
I1
tp8224
a(S'ch_p1'
I1
tp8225
a(S'w'
I6
tp8226
a(S'no_np'
I6
tp8227
a(S'w'
I1
tp8228
a(S'no_ll'
I1
tp8229
a(S'w'
I1
tp8230
a(S'no_vo'
I10
tp8231
a(S'w'
I720
tp8232
a(S'no_vo'
I8
tp8233
a(S'w'
I734
tp8234
a(S'no_vo'
I6
tp8235
a(S'w'
I734
tp8236
a(S'no_vo'
I4
tp8237
a(S'w'
I747
tp8238
a(S'no_vo'
I2
tp8239
a(S'w'
I720
tp8240
a(S'no_vo'
I0
tp8241
a(S'w'
I755
tp8242
a(S'ch_no'
I1
tp8243
a(S'ch_tr'
I1
tp8244
a(S'ch_p2'
I1
tp8245
a(S'ch_p1'
I1
tp8246
a(S'w'
I1
tp8247
a(S'ch_no'
I1
tp8248
a(S'ch_tr'
I1
tp8249
a(S'ch_p2'
I1
tp8250
a(S'ch_p1'
I1
tp8251
a(S'w'
I6
tp8252
a(S'no_np'
I2
tp8253
a(S'no_ll'
I1
tp8254
a(S'w'
I2
tp8255
a(S'no_vo'
I2
tp8256
a(S'w'
I33
tp8257
a.