(lp1
(S'clock'
p2
I1789772
tp3
a(S'p1_cv'
I1
tp4
a(S'p2_cv'
I1
tp5
a(S'no_cv'
I1
tp6
a(S'ch_no'
I1
tp7
a(S'ch_tr'
I1
tp8
a(S'ch_p2'
I1
tp9
a(S'ch_p1'
I1
tp10
a(S'fc_mo'
I1
tp11
a(S'p1_cv'
I0
tp12
a(S'p1_vo'
I15
tp13
a(S'p1_sp'
I7
tp14
a(S'p1_sn'
I1
tp15
a(S'p1_ss'
I7
tp16
a(S'p1_tl'
I29
tp17
a(S'p1_ll'
I1
tp18
a(S'p1_th'
I1
tp19
a(S'w'
I1
tp20
a(S'p2_cv'
I0
tp21
a(S'p2_vo'
I8
tp22
a(S'p2_sp'
I7
tp23
a(S'p2_sn'
I1
tp24
a(S'p2_ss'
I7
tp25
a(S'p2_tl'
I224
tp26
a(S'w'
I1
tp27
a(S'p2_ll'
I1
tp28
a(S'p2_th'
I1
tp29
a(S'w'
I1
tp30
a(S'tr_lr'
I15
tp31
a(S'tr_tl'
I64
tp32
a(S'tr_ll'
I1
tp33
a(S'tr_th'
I1
tp34
a(S'w'
I4371
tp35
a(S'tr_tl'
I129
tp36
a(S'tr_ll'
I1
tp37
a(S'tr_th'
I2
tp38
a(S'w'
I4409
tp39
a(S'p1_tl'
I13
tp40
a(S'w'
I1
tp41
a(S'p1_ll'
I1
tp42
a(S'w'
I1
tp43
a(S'p2_tl'
I171
tp44
a(S'p2_ll'
I1
tp45
a(S'w'
I4395
tp46
a(S'tr_ll'
I1
tp47
a(S'w'
I4411
tp48
a(S'p1_tl'
I240
tp49
a(S'p1_ll'
I1
tp50
a(S'p1_th'
I0
tp51
a(S'w'
I1
tp52
a(S'p2_tl'
I147
tp53
a(S'w'
I1
tp54
a(S'p2_ll'
I1
tp55
a(S'w'
I1
tp56
a(S'tr_tl'
I64
tp57
a(S'tr_ll'
I1
tp58
a(S'tr_th'
I1
tp59
a(S'w'
I4391
tp60
a(S'tr_tl'
I129
tp61
a(S'tr_ll'
I1
tp62
a(S'tr_th'
I2
tp63
a(S'w'
I4410
tp64
a(S'p1_tl'
I213
tp65
a(S'p1_ll'
I1
tp66
a(S'w'
I1
tp67
a(S'p2_tl'
I103
tp68
a(S'p2_ll'
I1
tp69
a(S'w'
I4395
tp70
a(S'tr_ll'
I1
tp71
a(S'w'
I4417
tp72
a(S'p1_tl'
I240
tp73
a(S'w'
I1
tp74
a(S'p1_ll'
I1
tp75
a(S'w'
I1
tp76
a(S'p2_tl'
I147
tp77
a(S'p2_ll'
I1
tp78
a(S'w'
I1
tp79
a(S'tr_tl'
I64
tp80
a(S'w'
I1
tp81
a(S'tr_ll'
I1
tp82
a(S'tr_th'
I1
tp83
a(S'w'
I4384
tp84
a(S'tr_tl'
I129
tp85
a(S'tr_ll'
I1
tp86
a(S'tr_th'
I2
tp87
a(S'w'
I4410
tp88
a(S'p1_tl'
I13
tp89
a(S'p1_ll'
I1
tp90
a(S'p1_th'
I1
tp91
a(S'w'
I1
tp92
a(S'p2_tl'
I171
tp93
a(S'w'
I1
tp94
a(S'p2_ll'
I1
tp95
a(S'w'
I4394
tp96
a(S'tr_ll'
I1
tp97
a(S'w'
I4411
tp98
a(S'p1_tl'
I29
tp99
a(S'p1_ll'
I1
tp100
a(S'w'
I1
tp101
a(S'p2_tl'
I224
tp102
a(S'w'
I1
tp103
a(S'p2_ll'
I1
tp104
a(S'w'
I1
tp105
a(S'tr_tl'
I64
tp106
a(S'tr_ll'
I1
tp107
a(S'tr_th'
I1
tp108
a(S'w'
I4391
tp109
a(S'tr_tl'
I129
tp110
a(S'w'
I1
tp111
a(S'tr_ll'
I1
tp112
a(S'tr_th'
I2
tp113
a(S'w'
I4409
tp114
a(S'p1_tl'
I64
tp115
a(S'p1_ll'
I1
tp116
a(S'w'
I1
tp117
a(S'p2_tl'
I26
tp118
a(S'p2_ll'
I1
tp119
a(S'p2_th'
I2
tp120
a(S'w'
I4395
tp121
a(S'tr_ll'
I1
tp122
a(S'w'
I4422
tp123
a(S'p1_tl'
I103
tp124
a(S'p1_ll'
I1
tp125
a(S'w'
I1
tp126
a(S'p2_tl'
I224
tp127
a(S'w'
I1
tp128
a(S'p2_ll'
I1
tp129
a(S'p2_th'
I1
tp130
a(S'w'
I1
tp131
a(S'tr_tl'
I64
tp132
a(S'tr_ll'
I1
tp133
a(S'tr_th'
I1
tp134
a(S'w'
I4381
tp135
a(S'tr_tl'
I129
tp136
a(S'tr_ll'
I1
tp137
a(S'tr_th'
I2
tp138
a(S'w'
I8806
tp139
a(S'tr_ll'
I1
tp140
a(S'w'
I4410
tp141
a(S'p1_tl'
I171
tp142
a(S'w'
I1
tp143
a(S'p1_ll'
I1
tp144
a(S'w'
I1
tp145
a(S'p2_tl'
I26
tp146
a(S'p2_ll'
I1
tp147
a(S'p2_th'
I2
tp148
a(S'w'
I1
tp149
a(S'tr_tl'
I64
tp150
a(S'w'
I1
tp151
a(S'tr_ll'
I1
tp152
a(S'tr_th'
I1
tp153
a(S'w'
I4391
tp154
a(S'tr_tl'
I129
tp155
a(S'tr_ll'
I1
tp156
a(S'tr_th'
I2
tp157
a(S'w'
I8806
tp158
a(S'tr_ll'
I1
tp159
a(S'w'
I4417
tp160
a(S'p1_tl'
I103
tp161
a(S'p1_ll'
I1
tp162
a(S'w'
I1
tp163
a(S'p2_tl'
I224
tp164
a(S'p2_ll'
I1
tp165
a(S'p2_th'
I1
tp166
a(S'w'
I2
tp167
a(S'tr_tl'
I64
tp168
a(S'tr_ll'
I1
tp169
a(S'tr_th'
I1
tp170
a(S'w'
I4385
tp171
a(S'tr_tl'
I129
tp172
a(S'tr_ll'
I1
tp173
a(S'tr_th'
I2
tp174
a(S'w'
I8806
tp175
a(S'tr_ll'
I1
tp176
a(S'w'
I4411
tp177
a(S'p1_tl'
I171
tp178
a(S'p1_ll'
I1
tp179
a(S'w'
I1
tp180
a(S'p2_tl'
I26
tp181
a(S'p2_ll'
I1
tp182
a(S'p2_th'
I2
tp183
a(S'w'
I2
tp184
a(S'tr_tl'
I64
tp185
a(S'tr_ll'
I1
tp186
a(S'tr_th'
I1
tp187
a(S'w'
I4391
tp188
a(S'tr_tl'
I129
tp189
a(S'w'
I1
tp190
a(S'tr_ll'
I1
tp191
a(S'tr_th'
I2
tp192
a(S'w'
I8805
tp193
a(S'tr_ll'
I1
tp194
a(S'w'
I4423
tp195
a(S'p1_tl'
I29
tp196
a(S'p1_ll'
I1
tp197
a(S'w'
I2
tp198
a(S'p2_tl'
I224
tp199
a(S'p2_ll'
I1
tp200
a(S'p2_th'
I1
tp201
a(S'w'
I1
tp202
a(S'tr_tl'
I64
tp203
a(S'tr_ll'
I1
tp204
a(S'tr_th'
I1
tp205
a(S'w'
I4380
tp206
a(S'tr_tl'
I129
tp207
a(S'tr_ll'
I1
tp208
a(S'tr_th'
I2
tp209
a(S'w'
I4409
tp210
a(S'p1_tl'
I13
tp211
a(S'w'
I1
tp212
a(S'p1_ll'
I1
tp213
a(S'w'
I1
tp214
a(S'p2_tl'
I171
tp215
a(S'p2_ll'
I1
tp216
a(S'w'
I4394
tp217
a(S'tr_ll'
I1
tp218
a(S'w'
I4412
tp219
a(S'p1_tl'
I240
tp220
a(S'p1_ll'
I1
tp221
a(S'p1_th'
I0
tp222
a(S'w'
I1
tp223
a(S'p2_tl'
I147
tp224
a(S'p2_ll'
I1
tp225
a(S'w'
I2
tp226
a(S'tr_tl'
I64
tp227
a(S'tr_ll'
I1
tp228
a(S'tr_th'
I1
tp229
a(S'w'
I4391
tp230
a(S'tr_tl'
I129
tp231
a(S'tr_ll'
I1
tp232
a(S'tr_th'
I2
tp233
a(S'w'
I4410
tp234
a(S'p1_tl'
I213
tp235
a(S'p1_ll'
I1
tp236
a(S'w'
I1
tp237
a(S'p2_tl'
I103
tp238
a(S'p2_ll'
I1
tp239
a(S'w'
I4395
tp240
a(S'tr_ll'
I1
tp241
a(S'w'
I4417
tp242
a(S'p1_tl'
I240
tp243
a(S'p1_ll'
I1
tp244
a(S'w'
I2
tp245
a(S'p2_tl'
I147
tp246
a(S'p2_ll'
I1
tp247
a(S'w'
I1
tp248
a(S'tr_tl'
I103
tp249
a(S'w'
I1
tp250
a(S'tr_ll'
I1
tp251
a(S'tr_th'
I1
tp252
a(S'w'
I4384
tp253
a(S'tr_tl'
I207
tp254
a(S'tr_ll'
I1
tp255
a(S'tr_th'
I2
tp256
a(S'w'
I4410
tp257
a(S'p1_tl'
I13
tp258
a(S'p1_ll'
I1
tp259
a(S'p1_th'
I1
tp260
a(S'w'
I1
tp261
a(S'p2_tl'
I171
tp262
a(S'w'
I1
tp263
a(S'p2_ll'
I1
tp264
a(S'w'
I4394
tp265
a(S'tr_ll'
I1
tp266
a(S'w'
I4411
tp267
a(S'p1_tl'
I142
tp268
a(S'p1_ll'
I1
tp269
a(S'p1_th'
I0
tp270
a(S'w'
I2
tp271
a(S'p2_tl'
I224
tp272
a(S'p2_ll'
I1
tp273
a(S'w'
I1
tp274
a(S'tr_tl'
I103
tp275
a(S'tr_ll'
I1
tp276
a(S'tr_th'
I1
tp277
a(S'w'
I4391
tp278
a(S'tr_tl'
I207
tp279
a(S'w'
I1
tp280
a(S'tr_ll'
I1
tp281
a(S'tr_th'
I2
tp282
a(S'w'
I4409
tp283
a(S'p1_tl'
I160
tp284
a(S'p1_ll'
I1
tp285
a(S'w'
I2
tp286
a(S'p2_tl'
I26
tp287
a(S'p2_ll'
I1
tp288
a(S'p2_th'
I2
tp289
a(S'w'
I4394
tp290
a(S'tr_ll'
I1
tp291
a(S'w'
I4422
tp292
a(S'p1_tl'
I179
tp293
a(S'p1_ll'
I1
tp294
a(S'w'
I1
tp295
a(S'p2_tl'
I59
tp296
a(S'w'
I1
tp297
a(S'p2_ll'
I1
tp298
a(S'w'
I1
tp299
a(S'tr_tl'
I147
tp300
a(S'tr_ll'
I1
tp301
a(S'tr_th'
I1
tp302
a(S'w'
I4381
tp303
a(S'tr_tl'
I39
tp304
a(S'tr_ll'
I1
tp305
a(S'tr_th'
I3
tp306
a(S'w'
I8805
tp307
a(S'tr_ll'
I1
tp308
a(S'w'
I4411
tp309
a(S'p1_tl'
I240
tp310
a(S'p1_ll'
I1
tp311
a(S'w'
I2
tp312
a(S'p2_tl'
I207
tp313
a(S'p2_ll'
I1
tp314
a(S'w'
I1
tp315
a(S'tr_tl'
I147
tp316
a(S'tr_ll'
I1
tp317
a(S'tr_th'
I1
tp318
a(S'w'
I4392
tp319
a(S'tr_tl'
I39
tp320
a(S'tr_ll'
I1
tp321
a(S'tr_th'
I3
tp322
a(S'w'
I8806
tp323
a(S'tr_ll'
I1
tp324
a(S'w'
I4417
tp325
a(S'p1_tl'
I179
tp326
a(S'p1_ll'
I1
tp327
a(S'w'
I1
tp328
a(S'p2_tl'
I59
tp329
a(S'p2_ll'
I1
tp330
a(S'w'
I2
tp331
a(S'tr_tl'
I171
tp332
a(S'tr_ll'
I1
tp333
a(S'tr_th'
I1
tp334
a(S'w'
I4385
tp335
a(S'tr_tl'
I87
tp336
a(S'tr_ll'
I1
tp337
a(S'tr_th'
I3
tp338
a(S'w'
I8806
tp339
a(S'tr_ll'
I1
tp340
a(S'w'
I4411
tp341
a(S'p1_tl'
I13
tp342
a(S'p1_ll'
I1
tp343
a(S'p1_th'
I1
tp344
a(S'w'
I1
tp345
a(S'p2_tl'
I207
tp346
a(S'p2_ll'
I1
tp347
a(S'w'
I2
tp348
a(S'tr_tl'
I171
tp349
a(S'tr_ll'
I1
tp350
a(S'tr_th'
I1
tp351
a(S'w'
I4391
tp352
a(S'tr_tl'
I87
tp353
a(S'w'
I1
tp354
a(S'tr_ll'
I1
tp355
a(S'tr_th'
I3
tp356
a(S'w'
I8805
tp357
a(S'tr_ll'
I1
tp358
a(S'w'
I4420
tp359
a(S'p1_tl'
I142
tp360
a(S'p1_ll'
I1
tp361
a(S'p1_th'
I0
tp362
a(S'w'
I1
tp363
a(S'p2_tl'
I179
tp364
a(S'w'
I1
tp365
a(S'p2_ll'
I1
tp366
a(S'p2_th'
I0
tp367
a(S'w'
I1
tp368
a(S'tr_tl'
I192
tp369
a(S'tr_ll'
I1
tp370
a(S'w'
I4383
tp371
a(S'tr_tl'
I224
tp372
a(S'tr_ll'
I1
tp373
a(S'tr_th'
I1
tp374
a(S'w'
I4403
tp375
a(S'tr_tl'
I147
tp376
a(S'tr_ll'
I1
tp377
a(S'w'
I4403
tp378
a(S'tr_tl'
I64
tp379
a(S'tr_ll'
I1
tp380
a(S'w'
I4403
tp381
a(S'tr_tl'
I13
tp382
a(S'tr_ll'
I1
tp383
a(S'w'
I8817
tp384
a(S'p1_tl'
I160
tp385
a(S'p1_ll'
I1
tp386
a(S'w'
I1
tp387
a(S'p2_tl'
I201
tp388
a(S'p2_ll'
I1
tp389
a(S'w'
I2
tp390
a(S'tr_tl'
I213
tp391
a(S'tr_ll'
I1
tp392
a(S'tr_th'
I0
tp393
a(S'w'
I8802
tp394
a(S'p1_tl'
I142
tp395
a(S'p1_ll'
I1
tp396
a(S'w'
I2
tp397
a(S'p2_tl'
I179
tp398
a(S'p2_ll'
I1
tp399
a(S'w'
I1
tp400
a(S'tr_tl'
I240
tp401
a(S'tr_ll'
I1
tp402
a(S'w'
I4396
tp403
a(S'p1_tl'
I160
tp404
a(S'p1_ll'
I1
tp405
a(S'w'
I1
tp406
a(S'p2_tl'
I201
tp407
a(S'p2_ll'
I1
tp408
a(S'w'
I4403
tp409
a(S'p1_tl'
I179
tp410
a(S'w'
I1
tp411
a(S'p1_ll'
I1
tp412
a(S'w'
I1
tp413
a(S'p2_tl'
I213
tp414
a(S'p2_ll'
I1
tp415
a(S'w'
I1
tp416
a(S'tr_tl'
I13
tp417
a(S'w'
I1
tp418
a(S'tr_ll'
I1
tp419
a(S'tr_th'
I1
tp420
a(S'w'
I4397
tp421
a(S'p1_tl'
I201
tp422
a(S'p1_ll'
I1
tp423
a(S'w'
I2
tp424
a(S'p2_tl'
I240
tp425
a(S'p2_ll'
I1
tp426
a(S'w'
I4403
tp427
a(S'p1_tl'
I213
tp428
a(S'p1_ll'
I1
tp429
a(S'w'
I2
tp430
a(S'p2_tl'
I13
tp431
a(S'p2_ll'
I1
tp432
a(S'p2_th'
I1
tp433
a(S'w'
I1
tp434
a(S'tr_tl'
I240
tp435
a(S'tr_ll'
I1
tp436
a(S'tr_th'
I0
tp437
a(S'w'
I8802
tp438
a(S'p1_tl'
I240
tp439
a(S'p1_ll'
I1
tp440
a(S'w'
I2
tp441
a(S'p2_tl'
I29
tp442
a(S'p2_ll'
I1
tp443
a(S'w'
I1
tp444
a(S'tr_tl'
I13
tp445
a(S'tr_ll'
I1
tp446
a(S'tr_th'
I1
tp447
a(S'w'
I8811
tp448
a(S'p1_tl'
I151
tp449
a(S'p1_ll'
I1
tp450
a(S'w'
I1
tp451
a(S'p2_tl'
I179
tp452
a(S'w'
I1
tp453
a(S'p2_ll'
I1
tp454
a(S'p2_th'
I0
tp455
a(S'w'
I1
tp456
a(S'tr_tl'
I192
tp457
a(S'tr_ll'
I1
tp458
a(S'tr_th'
I3
tp459
a(S'w'
I4383
tp460
a(S'tr_tl'
I224
tp461
a(S'tr_ll'
I1
tp462
a(S'tr_th'
I1
tp463
a(S'w'
I4403
tp464
a(S'tr_tl'
I147
tp465
a(S'tr_ll'
I1
tp466
a(S'w'
I4403
tp467
a(S'tr_tl'
I64
tp468
a(S'tr_ll'
I1
tp469
a(S'w'
I4403
tp470
a(S'tr_tl'
I13
tp471
a(S'tr_ll'
I1
tp472
a(S'w'
I8816
tp473
a(S'p1_tl'
I160
tp474
a(S'w'
I1
tp475
a(S'p1_ll'
I1
tp476
a(S'w'
I1
tp477
a(S'p2_tl'
I201
tp478
a(S'p2_ll'
I1
tp479
a(S'w'
I1
tp480
a(S'tr_tl'
I213
tp481
a(S'w'
I1
tp482
a(S'tr_ll'
I1
tp483
a(S'tr_th'
I0
tp484
a(S'w'
I8802
tp485
a(S'p1_tl'
I151
tp486
a(S'p1_ll'
I1
tp487
a(S'w'
I2
tp488
a(S'p2_tl'
I179
tp489
a(S'p2_ll'
I1
tp490
a(S'w'
I1
tp491
a(S'tr_tl'
I240
tp492
a(S'tr_ll'
I1
tp493
a(S'w'
I4395
tp494
a(S'p1_tl'
I160
tp495
a(S'w'
I1
tp496
a(S'p1_ll'
I1
tp497
a(S'w'
I1
tp498
a(S'p2_tl'
I201
tp499
a(S'p2_ll'
I1
tp500
a(S'w'
I4403
tp501
a(S'p1_tl'
I179
tp502
a(S'w'
I1
tp503
a(S'p1_ll'
I1
tp504
a(S'w'
I1
tp505
a(S'p2_tl'
I213
tp506
a(S'p2_ll'
I1
tp507
a(S'w'
I1
tp508
a(S'tr_tl'
I13
tp509
a(S'w'
I1
tp510
a(S'tr_ll'
I1
tp511
a(S'tr_th'
I1
tp512
a(S'w'
I4397
tp513
a(S'p1_tl'
I201
tp514
a(S'p1_ll'
I1
tp515
a(S'w'
I2
tp516
a(S'p2_tl'
I240
tp517
a(S'p2_ll'
I1
tp518
a(S'w'
I4403
tp519
a(S'p1_tl'
I213
tp520
a(S'p1_ll'
I1
tp521
a(S'w'
I2
tp522
a(S'p2_tl'
I13
tp523
a(S'p2_ll'
I1
tp524
a(S'p2_th'
I1
tp525
a(S'w'
I1
tp526
a(S'tr_tl'
I240
tp527
a(S'tr_ll'
I1
tp528
a(S'tr_th'
I0
tp529
a(S'w'
I8802
tp530
a(S'p1_tl'
I240
tp531
a(S'p1_ll'
I1
tp532
a(S'w'
I2
tp533
a(S'p2_tl'
I29
tp534
a(S'p2_ll'
I1
tp535
a(S'w'
I1
tp536
a(S'tr_tl'
I13
tp537
a(S'tr_ll'
I1
tp538
a(S'tr_th'
I1
tp539
a(S'w'
I8810
tp540
a(S'p1_tl'
I160
tp541
a(S'p1_ll'
I1
tp542
a(S'w'
I2
tp543
a(S'p2_tl'
I201
tp544
a(S'p2_ll'
I1
tp545
a(S'p2_th'
I0
tp546
a(S'w'
I1
tp547
a(S'tr_tl'
I64
tp548
a(S'tr_ll'
I1
tp549
a(S'w'
I4388
tp550
a(S'p1_tl'
I179
tp551
a(S'p1_ll'
I1
tp552
a(S'w'
I2
tp553
a(S'p2_tl'
I213
tp554
a(S'p2_ll'
I1
tp555
a(S'w'
I4405
tp556
a(S'p1_tl'
I201
tp557
a(S'w'
I1
tp558
a(S'p1_ll'
I1
tp559
a(S'w'
I1
tp560
a(S'p2_tl'
I240
tp561
a(S'p2_ll'
I1
tp562
a(S'w'
I2
tp563
a(S'tr_ll'
I1
tp564
a(S'w'
I4395
tp565
a(S'p1_tl'
I213
tp566
a(S'p1_ll'
I1
tp567
a(S'w'
I1
tp568
a(S'p2_tl'
I13
tp569
a(S'p2_ll'
I1
tp570
a(S'p2_th'
I1
tp571
a(S'w'
I4405
tp572
a(S'p1_tl'
I240
tp573
a(S'w'
I1
tp574
a(S'p1_ll'
I1
tp575
a(S'w'
I1
tp576
a(S'p2_tl'
I29
tp577
a(S'p2_ll'
I1
tp578
a(S'w'
I2
tp579
a(S'tr_tl'
I29
tp580
a(S'tr_ll'
I1
tp581
a(S'w'
I8802
tp582
a(S'p1_tl'
I13
tp583
a(S'p1_ll'
I1
tp584
a(S'p1_th'
I1
tp585
a(S'w'
I2
tp586
a(S'p2_tl'
I64
tp587
a(S'p2_ll'
I1
tp588
a(S'w'
I1
tp589
a(S'tr_tl'
I64
tp590
a(S'tr_ll'
I1
tp591
a(S'w'
I8805
tp592
a(S'p1_tl'
I29
tp593
a(S'p1_ll'
I1
tp594
a(S'w'
I1
tp595
a(S'p2_tl'
I103
tp596
a(S'p2_ll'
I1
tp597
a(S'w'
I2
tp598
a(S'tr_tl'
I125
tp599
a(S'tr_ll'
I1
tp600
a(S'w'
I8796
tp601
a(S'p1_tl'
I13
tp602
a(S'p1_ll'
I1
tp603
a(S'w'
I2
tp604
a(S'tr_tl'
I171
tp605
a(S'tr_ll'
I1
tp606
a(S'w'
I8808
tp607
a(S'p1_tl'
I240
tp608
a(S'p1_ll'
I1
tp609
a(S'p1_th'
I0
tp610
a(S'w'
I1
tp611
a(S'p2_tl'
I64
tp612
a(S'w'
I1
tp613
a(S'p2_ll'
I1
tp614
a(S'w'
I1
tp615
a(S'tr_tl'
I125
tp616
a(S'tr_ll'
I1
tp617
a(S'w'
I8798
tp618
a(S'p1_tl'
I213
tp619
a(S'p1_ll'
I1
tp620
a(S'w'
I2
tp621
a(S'tr_tl'
I171
tp622
a(S'tr_ll'
I1
tp623
a(S'w'
I8810
tp624
a(S'p1_tl'
I179
tp625
a(S'w'
I1
tp626
a(S'p1_ll'
I1
tp627
a(S'w'
I1
tp628
a(S'p2_tl'
I103
tp629
a(S'p2_ll'
I1
tp630
a(S'w'
I1
tp631
a(S'tr_tl'
I224
tp632
a(S'w'
I1
tp633
a(S'tr_ll'
I1
tp634
a(S'w'
I8795
tp635
a(S'p1_tl'
I201
tp636
a(S'w'
I1
tp637
a(S'p1_ll'
I1
tp638
a(S'w'
I1
tp639
a(S'p2_tl'
I224
tp640
a(S'p2_ll'
I1
tp641
a(S'w'
I8804
tp642
a(S'p1_tl'
I213
tp643
a(S'p1_ll'
I1
tp644
a(S'w'
I1
tp645
a(S'p2_tl'
I171
tp646
a(S'w'
I1
tp647
a(S'p2_ll'
I1
tp648
a(S'w'
I8804
tp649
a(S'p1_tl'
I240
tp650
a(S'p1_ll'
I1
tp651
a(S'w'
I1
tp652
a(S'p2_tl'
I147
tp653
a(S'p2_ll'
I1
tp654
a(S'w'
I8809
tp655
a(S'p1_tl'
I13
tp656
a(S'w'
I1
tp657
a(S'p1_ll'
I1
tp658
a(S'p1_th'
I1
tp659
a(S'w'
I1
tp660
a(S'p2_tl'
I103
tp661
a(S'p2_ll'
I1
tp662
a(S'w'
I1
tp663
a(S'tr_tl'
I93
tp664
a(S'w'
I1
tp665
a(S'tr_ll'
I1
tp666
a(S'tr_th'
I2
tp667
a(S'w'
I8792
tp668
a(S'p1_tl'
I240
tp669
a(S'w'
I1
tp670
a(S'p1_ll'
I1
tp671
a(S'p1_th'
I0
tp672
a(S'w'
I8809
tp673
a(S'p1_tl'
I13
tp674
a(S'w'
I1
tp675
a(S'p1_ll'
I1
tp676
a(S'p1_th'
I1
tp677
a(S'w'
I1
tp678
a(S'p2_tl'
I224
tp679
a(S'p2_ll'
I1
tp680
a(S'w'
I8799
tp681
a(S'p1_tl'
I103
tp682
a(S'p1_ll'
I1
tp683
a(S'w'
I8847
tp684
a.