(lp1
(S'clock'
p2
I1789772
tp3
a(S'p1_cv'
I1
tp4
a(S'p2_cv'
I1
tp5
a(S'no_cv'
I1
tp6
a(S'ch_no'
I1
tp7
a(S'ch_tr'
I1
tp8
a(S'ch_p2'
I1
tp9
a(S'ch_p1'
I1
tp10
a(S'fc_mo'
I1
tp11
a(S'tr_lr'
I15
tp12
a(S'w'
I1
tp13
a(S'tr_tl'
I201
tp14
a(S'tr_ll'
I1
tp15
a(S'w'
I5856
tp16
a(S'tr_tl'
I147
tp17
a(S'tr_ll'
I1
tp18
a(S'tr_th'
I1
tp19
a(S'w'
I5870
tp20
a(S'tr_tl'
I201
tp21
a(S'w'
I1
tp22
a(S'tr_ll'
I1
tp23
a(S'tr_th'
I0
tp24
a(S'w'
I5869
tp25
a(S'tr_tl'
I147
tp26
a(S'tr_ll'
I1
tp27
a(S'tr_th'
I1
tp28
a(S'w'
I5871
tp29
a(S'tr_tl'
I201
tp30
a(S'tr_ll'
I1
tp31
a(S'tr_th'
I0
tp32
a(S'w'
I5870
tp33
a(S'tr_tl'
I147
tp34
a(S'tr_ll'
I1
tp35
a(S'tr_th'
I1
tp36
a(S'w'
I5871
tp37
a(S'tr_tl'
I201
tp38
a(S'tr_ll'
I1
tp39
a(S'tr_th'
I0
tp40
a(S'w'
I5870
tp41
a(S'tr_tl'
I147
tp42
a(S'tr_ll'
I1
tp43
a(S'tr_th'
I1
tp44
a(S'w'
I5871
tp45
a(S'tr_tl'
I169
tp46
a(S'tr_ll'
I1
tp47
a(S'tr_th'
I0
tp48
a(S'w'
I5870
tp49
a(S'tr_tl'
I83
tp50
a(S'tr_ll'
I1
tp51
a(S'tr_th'
I1
tp52
a(S'w'
I5871
tp53
a(S'tr_tl'
I169
tp54
a(S'tr_ll'
I1
tp55
a(S'tr_th'
I0
tp56
a(S'w'
I5870
tp57
a(S'tr_tl'
I83
tp58
a(S'tr_ll'
I1
tp59
a(S'tr_th'
I1
tp60
a(S'w'
I5871
tp61
a(S'tr_tl'
I169
tp62
a(S'tr_ll'
I1
tp63
a(S'tr_th'
I0
tp64
a(S'w'
I5869
tp65
a(S'tr_tl'
I83
tp66
a(S'w'
I1
tp67
a(S'tr_ll'
I1
tp68
a(S'tr_th'
I1
tp69
a(S'w'
I5870
tp70
a(S'tr_tl'
I169
tp71
a(S'w'
I1
tp72
a(S'tr_ll'
I1
tp73
a(S'tr_th'
I0
tp74
a(S'w'
I5869
tp75
a(S'tr_tl'
I83
tp76
a(S'tr_ll'
I1
tp77
a(S'tr_th'
I1
tp78
a(S'w'
I5871
tp79
a(S'tr_tl'
I179
tp80
a(S'tr_ll'
I1
tp81
a(S'tr_th'
I0
tp82
a(S'w'
I5870
tp83
a(S'tr_tl'
I103
tp84
a(S'tr_ll'
I1
tp85
a(S'tr_th'
I1
tp86
a(S'w'
I5871
tp87
a(S'tr_tl'
I179
tp88
a(S'tr_ll'
I1
tp89
a(S'tr_th'
I0
tp90
a(S'w'
I5870
tp91
a(S'tr_tl'
I103
tp92
a(S'tr_ll'
I1
tp93
a(S'tr_th'
I1
tp94
a(S'w'
I5871
tp95
a(S'tr_tl'
I179
tp96
a(S'tr_ll'
I1
tp97
a(S'tr_th'
I0
tp98
a(S'w'
I5870
tp99
a(S'tr_tl'
I103
tp100
a(S'tr_ll'
I1
tp101
a(S'tr_th'
I1
tp102
a(S'w'
I5871
tp103
a(S'tr_tl'
I179
tp104
a(S'tr_ll'
I1
tp105
a(S'tr_th'
I0
tp106
a(S'w'
I5870
tp107
a(S'tr_tl'
I103
tp108
a(S'tr_ll'
I1
tp109
a(S'tr_th'
I1
tp110
a(S'w'
I5871
tp111
a(S'tr_tl'
I190
tp112
a(S'tr_ll'
I1
tp113
a(S'tr_th'
I0
tp114
a(S'w'
I5869
tp115
a(S'tr_tl'
I125
tp116
a(S'w'
I1
tp117
a(S'tr_ll'
I1
tp118
a(S'tr_th'
I1
tp119
a(S'w'
I5870
tp120
a(S'tr_tl'
I190
tp121
a(S'w'
I1
tp122
a(S'tr_ll'
I1
tp123
a(S'tr_th'
I0
tp124
a(S'w'
I5869
tp125
a(S'tr_tl'
I125
tp126
a(S'tr_ll'
I1
tp127
a(S'tr_th'
I1
tp128
a(S'w'
I5871
tp129
a(S'tr_tl'
I190
tp130
a(S'tr_ll'
I1
tp131
a(S'tr_th'
I0
tp132
a(S'w'
I5870
tp133
a(S'tr_tl'
I125
tp134
a(S'tr_ll'
I1
tp135
a(S'tr_th'
I1
tp136
a(S'w'
I5871
tp137
a(S'tr_tl'
I190
tp138
a(S'tr_ll'
I1
tp139
a(S'tr_th'
I0
tp140
a(S'w'
I5870
tp141
a(S'tr_tl'
I125
tp142
a(S'tr_ll'
I1
tp143
a(S'tr_th'
I1
tp144
a(S'w'
I5890
tp145
a.