(lp1
(S'clock'
p2
I1789772
tp3
a(S'p1_cv'
I1
tp4
a(S'p2_cv'
I1
tp5
a(S'no_cv'
I1
tp6
a(S'ch_no'
I1
tp7
a(S'ch_tr'
I1
tp8
a(S'ch_p2'
I1
tp9
a(S'ch_p1'
I1
tp10
a(S'fc_mo'
I1
tp11
a(S'p1_du'
I1
tp12
a(S'p1_cv'
I0
tp13
a(S'p1_vo'
I15
tp14
a(S'p1_sp'
I7
tp15
a(S'p1_sn'
I1
tp16
a(S'p1_ss'
I7
tp17
a(S'w'
I1
tp18
a(S'p1_tl'
I240
tp19
a(S'p1_ll'
I1
tp20
a(S'w'
I1
tp21
a(S'p2_cv'
I0
tp22
a(S'p2_vo'
I8
tp23
a(S'p2_sp'
I7
tp24
a(S'p2_sn'
I1
tp25
a(S'p2_ss'
I7
tp26
a(S'p2_tl'
I224
tp27
a(S'p2_ll'
I1
tp28
a(S'p2_th'
I1
tp29
a(S'w'
I1
tp30
a(S'tr_lr'
I15
tp31
a(S'w'
I1
tp32
a(S'tr_tl'
I103
tp33
a(S'tr_ll'
I1
tp34
a(S'tr_th'
I1
tp35
a(S'w'
I13173
tp36
a(S'p1_tl'
I213
tp37
a(S'p1_ll'
I1
tp38
a(S'w'
I4411
tp39
a(S'p1_tl'
I240
tp40
a(S'w'
I1
tp41
a(S'p1_ll'
I1
tp42
a(S'w'
I1
tp43
a(S'p2_ll'
I1
tp44
a(S'w'
I2
tp45
a(S'tr_ll'
I1
tp46
a(S'w'
I8802
tp47
a(S'p1_ll'
I1
tp48
a(S'w'
I2
tp49
a(S'p2_ll'
I1
tp50
a(S'w'
I1
tp51
a(S'tr_ll'
I1
tp52
a(S'w'
I13197
tp53
a(S'p1_tl'
I213
tp54
a(S'p1_ll'
I1
tp55
a(S'w'
I4411
tp56
a(S'p1_tl'
I240
tp57
a(S'w'
I1
tp58
a(S'p1_ll'
I1
tp59
a(S'w'
I1
tp60
a(S'p2_ll'
I1
tp61
a(S'w'
I2
tp62
a(S'tr_ll'
I1
tp63
a(S'w'
I8815
tp64
a(S'w'
I1
tp65
a(S'p1_tl'
I201
tp66
a(S'p1_ll'
I1
tp67
a(S'w'
I1
tp68
a(S'p2_ll'
I1
tp69
a(S'w'
I1
tp70
a(S'w'
I1
tp71
a(S'tr_ll'
I1
tp72
a(S'w'
I17590
tp73
a(S'p2_ll'
I1
tp74
a(S'w'
I1
tp75
a(S'tr_ll'
I1
tp76
a(S'w'
I8804
tp77
a(S'w'
I1
tp78
a(S'p2_ll'
I1
tp79
a(S'w'
I1
tp80
a(S'tr_ll'
I1
tp81
a(S'w'
I8806
tp82
a(S'p1_tl'
I213
tp83
a(S'p1_ll'
I1
tp84
a(S'w'
I8808
tp85
a(S'p1_tl'
I240
tp86
a(S'p1_ll'
I1
tp87
a(S'w'
I2
tp88
a(S'p2_ll'
I1
tp89
a(S'w'
I1
tp90
a(S'tr_ll'
I1
tp91
a(S'w'
I8815
tp92
a(S'p1_tl'
I13
tp93
a(S'p1_ll'
I1
tp94
a(S'p1_th'
I1
tp95
a(S'w'
I2
tp96
a(S'p2_tl'
I26
tp97
a(S'p2_ll'
I1
tp98
a(S'p2_th'
I2
tp99
a(S'w'
I1
tp100
a(S'tr_tl'
I147
tp101
a(S'tr_ll'
I1
tp102
a(S'w'
I17596
tp103
a(S'p1_ll'
I1
tp104
a(S'w'
I1
tp105
a(S'w'
I1
tp106
a(S'p2_ll'
I1
tp107
a(S'w'
I1
tp108
a(S'tr_ll'
I1
tp109
a(S'w'
I8803
tp110
a(S'p1_tl'
I64
tp111
a(S'p1_ll'
I1
tp112
a(S'w'
I2
tp113
a(S'p2_ll'
I1
tp114
a(S'w'
I1
tp115
a(S'tr_ll'
I1
tp116
a(S'w'
I13196
tp117
a(S'p1_tl'
I13
tp118
a(S'p1_ll'
I1
tp119
a(S'w'
I4411
tp120
a(S'p1_tl'
I64
tp121
a(S'p1_ll'
I1
tp122
a(S'w'
I2
tp123
a(S'p2_ll'
I1
tp124
a(S'w'
I2
tp125
a(S'tr_ll'
I1
tp126
a(S'w'
I8815
tp127
a(S'p1_tl'
I29
tp128
a(S'w'
I1
tp129
a(S'p1_ll'
I1
tp130
a(S'w'
I1
tp131
a(S'p2_tl'
I224
tp132
a(S'p2_ll'
I1
tp133
a(S'p2_th'
I1
tp134
a(S'w'
I1
tp135
a(S'tr_tl'
I103
tp136
a(S'w'
I1
tp137
a(S'tr_ll'
I1
tp138
a(S'w'
I17590
tp139
a(S'p2_ll'
I1
tp140
a(S'w'
I2
tp141
a(S'tr_ll'
I1
tp142
a(S'w'
I8808
tp143
a(S'p1_tl'
I103
tp144
a(S'p1_ll'
I1
tp145
a(S'w'
I1
tp146
a(S'p2_ll'
I1
tp147
a(S'w'
I2
tp148
a(S'tr_ll'
I1
tp149
a(S'w'
I17604
tp150
a(S'p2_ll'
I1
tp151
a(S'w'
I2
tp152
a(S'tr_ll'
I1
tp153
a(S'w'
I8822
tp154
a(S'p1_tl'
I240
tp155
a(S'p1_ll'
I1
tp156
a(S'p1_th'
I0
tp157
a(S'w'
I1
tp158
a(S'p2_ll'
I1
tp159
a(S'w'
I2
tp160
a(S'tr_ll'
I1
tp161
a(S'w'
I13182
tp162
a(S'p1_tl'
I213
tp163
a(S'w'
I1
tp164
a(S'p1_ll'
I1
tp165
a(S'w'
I4411
tp166
a(S'p1_tl'
I240
tp167
a(S'p1_ll'
I1
tp168
a(S'w'
I2
tp169
a(S'p2_ll'
I1
tp170
a(S'w'
I1
tp171
a(S'tr_ll'
I1
tp172
a(S'w'
I8803
tp173
a(S'p1_ll'
I1
tp174
a(S'w'
I1
tp175
a(S'w'
I1
tp176
a(S'p2_ll'
I1
tp177
a(S'w'
I1
tp178
a(S'tr_ll'
I1
tp179
a(S'w'
I13196
tp180
a(S'p1_tl'
I213
tp181
a(S'p1_ll'
I1
tp182
a(S'w'
I4412
tp183
a(S'p1_tl'
I240
tp184
a(S'p1_ll'
I1
tp185
a(S'w'
I2
tp186
a(S'p2_ll'
I1
tp187
a(S'w'
I1
tp188
a(S'tr_ll'
I1
tp189
a(S'w'
I8816
tp190
a(S'p1_tl'
I179
tp191
a(S'p1_ll'
I1
tp192
a(S'w'
I2
tp193
a(S'p2_ll'
I1
tp194
a(S'w'
I1
tp195
a(S'tr_ll'
I1
tp196
a(S'w'
I17591
tp197
a(S'p2_ll'
I1
tp198
a(S'w'
I1
tp199
a(S'tr_ll'
I1
tp200
a(S'w'
I8804
tp201
a(S'w'
I1
tp202
a(S'p2_ll'
I1
tp203
a(S'w'
I1
tp204
a(S'tr_ll'
I1
tp205
a(S'w'
I8806
tp206
a(S'p1_tl'
I160
tp207
a(S'p1_ll'
I1
tp208
a(S'w'
I8808
tp209
a(S'p1_tl'
I179
tp210
a(S'p1_ll'
I1
tp211
a(S'w'
I1
tp212
a(S'w'
I1
tp213
a(S'p2_ll'
I1
tp214
a(S'w'
I1
tp215
a(S'tr_ll'
I1
tp216
a(S'w'
I8815
tp217
a(S'p1_tl'
I201
tp218
a(S'p1_ll'
I1
tp219
a(S'w'
I1
tp220
a(S'p2_tl'
I26
tp221
a(S'w'
I1
tp222
a(S'p2_ll'
I1
tp223
a(S'p2_th'
I2
tp224
a(S'w'
I1
tp225
a(S'tr_tl'
I147
tp226
a(S'tr_ll'
I1
tp227
a(S'w'
I17596
tp228
a(S'p1_ll'
I1
tp229
a(S'w'
I1
tp230
a(S'p2_ll'
I1
tp231
a(S'w'
I2
tp232
a(S'tr_ll'
I1
tp233
a(S'w'
I8802
tp234
a(S'p1_tl'
I13
tp235
a(S'p1_ll'
I1
tp236
a(S'p1_th'
I1
tp237
a(S'w'
I2
tp238
a(S'p2_ll'
I1
tp239
a(S'w'
I1
tp240
a(S'tr_ll'
I1
tp241
a(S'w'
I17609
tp242
a(S'p1_tl'
I201
tp243
a(S'p1_ll'
I1
tp244
a(S'p1_th'
I0
tp245
a(S'w'
I1
tp246
a(S'p2_ll'
I1
tp247
a(S'w'
I2
tp248
a(S'tr_ll'
I1
tp249
a(S'w'
I8816
tp250
a(S'p1_tl'
I240
tp251
a(S'p1_ll'
I1
tp252
a(S'w'
I1
tp253
a(S'p2_tl'
I224
tp254
a(S'p2_ll'
I1
tp255
a(S'p2_th'
I1
tp256
a(S'w'
I2
tp257
a(S'tr_tl'
I103
tp258
a(S'tr_ll'
I1
tp259
a(S'w'
I17590
tp260
a(S'p2_ll'
I1
tp261
a(S'w'
I2
tp262
a(S'tr_ll'
I1
tp263
a(S'w'
I8807
tp264
a(S'p1_tl'
I103
tp265
a(S'w'
I1
tp266
a(S'p1_ll'
I1
tp267
a(S'p1_th'
I1
tp268
a(S'w'
I1
tp269
a(S'p2_ll'
I1
tp270
a(S'w'
I2
tp271
a(S'tr_ll'
I1
tp272
a(S'w'
I17604
tp273
a(S'p2_ll'
I1
tp274
a(S'w'
I2
tp275
a(S'tr_ll'
I1
tp276
a(S'w'
I8821
tp277
a(S'p1_tl'
I147
tp278
a(S'p1_ll'
I1
tp279
a(S'w'
I1
tp280
a(S'p2_tl'
I26
tp281
a(S'w'
I1
tp282
a(S'p2_ll'
I1
tp283
a(S'p2_th'
I2
tp284
a(S'w'
I1
tp285
a(S'tr_tl'
I147
tp286
a(S'tr_ll'
I1
tp287
a(S'w'
I13183
tp288
a(S'p1_tl'
I26
tp289
a(S'p1_ll'
I1
tp290
a(S'p1_th'
I2
tp291
a(S'w'
I4412
tp292
a(S'p1_tl'
I147
tp293
a(S'p1_ll'
I1
tp294
a(S'p1_th'
I1
tp295
a(S'w'
I1
tp296
a(S'p2_ll'
I1
tp297
a(S'w'
I2
tp298
a(S'tr_ll'
I1
tp299
a(S'w'
I8803
tp300
a(S'p1_tl'
I103
tp301
a(S'w'
I1
tp302
a(S'p1_ll'
I1
tp303
a(S'w'
I1
tp304
a(S'p2_tl'
I224
tp305
a(S'p2_ll'
I1
tp306
a(S'p2_th'
I1
tp307
a(S'w'
I1
tp308
a(S'tr_tl'
I103
tp309
a(S'w'
I1
tp310
a(S'tr_ll'
I1
tp311
a(S'w'
I17603
tp312
a(S'p2_ll'
I1
tp313
a(S'w'
I1
tp314
a(S'tr_ll'
I1
tp315
a(S'w'
I8815
tp316
a(S'p1_tl'
I64
tp317
a(S'w'
I1
tp318
a(S'p1_ll'
I1
tp319
a(S'w'
I1
tp320
a(S'p2_tl'
I26
tp321
a(S'p2_ll'
I1
tp322
a(S'p2_th'
I2
tp323
a(S'w'
I1
tp324
a(S'tr_tl'
I147
tp325
a(S'w'
I1
tp326
a(S'tr_ll'
I1
tp327
a(S'w'
I13188
tp328
a(S'p1_tl'
I224
tp329
a(S'w'
I1
tp330
a(S'p1_ll'
I1
tp331
a(S'w'
I4411
tp332
a(S'p1_tl'
I64
tp333
a(S'p1_ll'
I1
tp334
a(S'w'
I2
tp335
a(S'p2_ll'
I1
tp336
a(S'w'
I1
tp337
a(S'tr_ll'
I1
tp338
a(S'w'
I8804
tp339
a(S'p1_tl'
I103
tp340
a(S'p1_ll'
I1
tp341
a(S'w'
I2
tp342
a(S'p2_tl'
I224
tp343
a(S'p2_ll'
I1
tp344
a(S'p2_th'
I1
tp345
a(S'w'
I1
tp346
a(S'tr_tl'
I103
tp347
a(S'tr_ll'
I1
tp348
a(S'w'
I17603
tp349
a(S'w'
I1
tp350
a(S'p2_ll'
I1
tp351
a(S'w'
I1
tp352
a(S'tr_ll'
I1
tp353
a(S'w'
I8828
tp354
a(S'p1_tl'
I147
tp355
a(S'p1_ll'
I1
tp356
a(S'w'
I2
tp357
a(S'p2_tl'
I26
tp358
a(S'p2_ll'
I1
tp359
a(S'p2_th'
I2
tp360
a(S'w'
I1
tp361
a(S'tr_ll'
I1
tp362
a(S'w'
I13176
tp363
a(S'p1_tl'
I26
tp364
a(S'p1_ll'
I1
tp365
a(S'p1_th'
I2
tp366
a(S'w'
I4412
tp367
a(S'p1_tl'
I147
tp368
a(S'p1_ll'
I1
tp369
a(S'p1_th'
I1
tp370
a(S'w'
I2
tp371
a(S'p2_ll'
I1
tp372
a(S'w'
I1
tp373
a(S'tr_ll'
I1
tp374
a(S'w'
I8804
tp375
a(S'p1_tl'
I64
tp376
a(S'p1_ll'
I1
tp377
a(S'w'
I1
tp378
a(S'p2_tl'
I224
tp379
a(S'p2_ll'
I1
tp380
a(S'p2_th'
I1
tp381
a(S'w'
I2
tp382
a(S'tr_ll'
I1
tp383
a(S'w'
I17603
tp384
a(S'p2_ll'
I1
tp385
a(S'w'
I2
tp386
a(S'tr_ll'
I1
tp387
a(S'w'
I8815
tp388
a(S'p1_ll'
I1
tp389
a(S'w'
I1
tp390
a(S'p2_tl'
I26
tp391
a(S'w'
I1
tp392
a(S'p2_ll'
I1
tp393
a(S'p2_th'
I2
tp394
a(S'w'
I1
tp395
a(S'tr_ll'
I1
tp396
a(S'w'
I13189
tp397
a(S'p1_tl'
I103
tp398
a(S'p1_ll'
I1
tp399
a(S'w'
I4412
tp400
a(S'p1_tl'
I147
tp401
a(S'p1_ll'
I1
tp402
a(S'w'
I1
tp403
a(S'p2_ll'
I1
tp404
a(S'w'
I2
tp405
a(S'tr_ll'
I1
tp406
a(S'w'
I8803
tp407
a(S'p1_tl'
I103
tp408
a(S'w'
I1
tp409
a(S'p1_ll'
I1
tp410
a(S'w'
I1
tp411
a(S'p2_tl'
I224
tp412
a(S'p2_ll'
I1
tp413
a(S'p2_th'
I1
tp414
a(S'w'
I2
tp415
a(S'tr_ll'
I1
tp416
a(S'w'
I17603
tp417
a(S'p2_ll'
I1
tp418
a(S'w'
I1
tp419
a(S'tr_ll'
I1
tp420
a(S'w'
I8837
tp421
a(S'p1_tl'
I240
tp422
a(S'w'
I1
tp423
a(S'p1_ll'
I1
tp424
a(S'p1_th'
I0
tp425
a(S'w'
I1
tp426
a(S'p2_ll'
I1
tp427
a(S'w'
I1
tp428
a(S'tr_tl'
I147
tp429
a(S'w'
I1
tp430
a(S'tr_ll'
I1
tp431
a(S'w'
I13167
tp432
a(S'p1_tl'
I213
tp433
a(S'p1_ll'
I1
tp434
a(S'w'
I4412
tp435
a(S'p1_tl'
I240
tp436
a(S'p1_ll'
I1
tp437
a(S'w'
I1
tp438
a(S'w'
I1
tp439
a(S'p2_ll'
I1
tp440
a(S'w'
I1
tp441
a(S'tr_ll'
I1
tp442
a(S'w'
I8803
tp443
a(S'p1_ll'
I1
tp444
a(S'w'
I1
tp445
a(S'p2_ll'
I1
tp446
a(S'w'
I2
tp447
a(S'tr_ll'
I1
tp448
a(S'w'
I13196
tp449
a(S'p1_tl'
I213
tp450
a(S'p1_ll'
I1
tp451
a(S'w'
I4412
tp452
a(S'p1_tl'
I240
tp453
a(S'p1_ll'
I1
tp454
a(S'w'
I1
tp455
a(S'p2_ll'
I1
tp456
a(S'w'
I2
tp457
a.