(lp1
(S'clock'
p2
I1789773
tp3
a(S'ch_no'
I0
tp4
a(S'ch_tr'
I1
tp5
a(S'ch_p2'
I1
tp6
a(S'ch_p1'
I1
tp7
a(S'p1_lh'
I1
tp8
a(S'p1_cv'
I1
tp9
a(S'p1_vo'
I15
tp10
a(S'p2_lh'
I1
tp11
a(S'p2_cv'
I1
tp12
a(S'p2_vo'
I15
tp13
a(S'p1_sp'
I7
tp14
a(S'p1_sn'
I1
tp15
a(S'p1_ss'
I7
tp16
a(S'p2_sp'
I7
tp17
a(S'p2_sn'
I1
tp18
a(S'p2_ss'
I7
tp19
a(S'tr_lr'
I32
tp20
a(S'fc_mo'
I1
tp21
a(S'w'
I7
tp22
a(S'p1_du'
I1
tp23
a(S'w'
I5
tp24
a(S'p1_tl'
I58
tp25
a(S'w'
I1
tp26
a(S'p1_ll'
I0
tp27
a(S'p1_th'
I2
tp28
a(S'w'
I6
tp29
a(S'p2_du'
I1
tp30
a(S'p2_vo'
I13
tp31
a(S'w'
I5
tp32
a(S'p2_tl'
I87
tp33
a(S'w'
I1
tp34
a(S'p2_ll'
I0
tp35
a(S'p2_th'
I3
tp36
a(S'w'
I26355
tp37
a(S'p1_tl'
I252
tp38
a(S'w'
I1
tp39
a(S'p1_ll'
I0
tp40
a(S'p1_th'
I1
tp41
a(S'w'
I5
tp42
a(S'p2_tl'
I128
tp43
a(S'w'
I1
tp44
a(S'p2_ll'
I0
tp45
a(S'p2_th'
I2
tp46
a(S'w'
I26367
tp47
a(S'p1_tl'
I224
tp48
a(S'w'
I1
tp49
a(S'p1_ll'
I0
tp50
a(S'w'
I5
tp51
a(S'p2_tl'
I207
tp52
a(S'w'
I1
tp53
a(S'p2_ll'
I0
tp54
a(S'w'
I26367
tp55
a(S'p1_tl'
I207
tp56
a(S'w'
I1
tp57
a(S'p1_ll'
I0
tp58
a(S'p1_th'
I2
tp59
a(S'w'
I7
tp60
a(S'p2_tl'
I53
tp61
a(S'p2_ll'
I0
tp62
a(S'p2_th'
I4
tp63
a(S'w'
I26365
tp64
a(S'p1_tl'
I249
tp65
a(S'w'
I1
tp66
a(S'p1_ll'
I0
tp67
a(S'w'
I5
tp68
a(S'p2_tl'
I117
tp69
a(S'p2_ll'
I0
tp70
a(S'w'
I26368
tp71
a(S'p1_tl'
I58
tp72
a(S'w'
I1
tp73
a(S'p1_ll'
I0
tp74
a(S'w'
I7
tp75
a(S'p2_tl'
I87
tp76
a(S'p2_ll'
I0
tp77
a(S'p2_th'
I3
tp78
a(S'w'
I26366
tp79
a(S'p1_tl'
I252
tp80
a(S'w'
I1
tp81
a(S'p1_ll'
I0
tp82
a(S'p1_th'
I1
tp83
a(S'w'
I5
tp84
a(S'p2_tl'
I128
tp85
a(S'w'
I1
tp86
a(S'p2_ll'
I0
tp87
a(S'p2_th'
I2
tp88
a(S'w'
I26366
tp89
a(S'p1_tl'
I92
tp90
a(S'w'
I1
tp91
a(S'p1_ll'
I0
tp92
a(S'p1_th'
I2
tp93
a(S'w'
I5
tp94
a(S'p2_tl'
I249
tp95
a(S'w'
I1
tp96
a(S'p2_ll'
I0
tp97
a(S'w'
I26367
tp98
a(S'p1_tl'
I58
tp99
a(S'w'
I1
tp100
a(S'p1_ll'
I0
tp101
a(S'w'
I5
tp102
a(S'p2_tl'
I207
tp103
a(S'w'
I1
tp104
a(S'p2_ll'
I0
tp105
a(S'w'
I26367
tp106
a(S'p1_tl'
I207
tp107
a(S'w'
I1
tp108
a(S'p1_ll'
I0
tp109
a(S'w'
I7
tp110
a(S'p2_tl'
I138
tp111
a(S'p2_ll'
I0
tp112
a(S'p2_th'
I3
tp113
a(S'w'
I26366
tp114
a(S'p1_tl'
I26
tp115
a(S'w'
I1
tp116
a(S'p1_ll'
I0
tp117
a(S'w'
I7
tp118
a(S'p2_tl'
I165
tp119
a(S'p2_ll'
I0
tp120
a(S'p2_th'
I2
tp121
a(S'w'
I26365
tp122
a(S'p1_tl'
I165
tp123
a(S'w'
I1
tp124
a(S'p1_ll'
I0
tp125
a(S'w'
I7
tp126
a(S'p2_tl'
I249
tp127
a(S'p2_ll'
I0
tp128
a(S'p2_th'
I3
tp129
a(S'w'
I26366
tp130
a(S'p1_tl'
I92
tp131
a(S'w'
I1
tp132
a(S'p1_ll'
I0
tp133
a(S'w'
I7
tp134
a(S'p2_ll'
I0
tp135
a(S'p2_th'
I2
tp136
a(S'w'
I26366
tp137
a(S'p1_tl'
I224
tp138
a(S'w'
I1
tp139
a(S'p1_ll'
I0
tp140
a(S'p1_th'
I1
tp141
a(S'w'
I5
tp142
a(S'p2_tl'
I207
tp143
a(S'w'
I1
tp144
a(S'p2_ll'
I0
tp145
a(S'w'
I26366
tp146
a(S'p1_tl'
I92
tp147
a(S'w'
I1
tp148
a(S'p1_ll'
I0
tp149
a(S'p1_th'
I2
tp150
a(S'w'
I7
tp151
a(S'p2_tl'
I138
tp152
a(S'p2_ll'
I0
tp153
a(S'p2_th'
I3
tp154
a(S'w'
I26366
tp155
a(S'p1_tl'
I252
tp156
a(S'w'
I1
tp157
a(S'p1_ll'
I0
tp158
a(S'p1_th'
I1
tp159
a(S'w'
I5
tp160
a(S'p2_tl'
I249
tp161
a(S'p2_ll'
I0
tp162
a(S'w'
I26370
tp163
a(S'p1_tl'
I0
tp164
a(S'w'
I1
tp165
a(S'p1_ll'
I0
tp166
a(S'p1_th'
I0
tp167
a(S'w'
I5
tp168
a(S'p2_tl'
I192
tp169
a(S'w'
I1
tp170
a(S'p2_ll'
I0
tp171
a(S'w'
I8783
tp172
a(S'p1_tl'
I147
tp173
a(S'p1_ll'
I0
tp174
a(S'p1_th'
I1
tp175
a(S'w'
I4396
tp176
a(S'p1_tl'
I0
tp177
a(S'p1_ll'
I0
tp178
a(S'p1_th'
I0
tp179
a(S'w'
I4396
tp180
a(S'p2_tl'
I224
tp181
a(S'w'
I1
tp182
a(S'p2_ll'
I0
tp183
a(S'p2_th'
I1
tp184
a(S'w'
I8789
tp185
a(S'p1_tl'
I254
tp186
a(S'p1_ll'
I0
tp187
a(S'w'
I4396
tp188
a(S'p1_tl'
I0
tp189
a(S'p1_ll'
I0
tp190
a(S'w'
I13189
tp191
a(S'p1_tl'
I213
tp192
a(S'p1_ll'
I0
tp193
a(S'w'
I4393
tp194
a(S'p1_tl'
I0
tp195
a(S'w'
I1
tp196
a(S'p1_ll'
I0
tp197
a(S'w'
I4395
tp198
a(S'p2_tl'
I252
tp199
a(S'p2_ll'
I0
tp200
a(S'w'
I8791
tp201
a(S'p1_tl'
I213
tp202
a(S'w'
I1
tp203
a(S'p1_ll'
I0
tp204
a(S'w'
I4395
tp205
a(S'p1_tl'
I0
tp206
a(S'w'
I1
tp207
a(S'p1_ll'
I0
tp208
a(S'w'
I4395
tp209
a(S'p2_tl'
I224
tp210
a(S'p2_ll'
I0
tp211
a(S'w'
I8792
tp212
a(S'p1_tl'
I240
tp213
a(S'w'
I1
tp214
a(S'p1_ll'
I0
tp215
a(S'w'
I4393
tp216
a(S'p1_tl'
I0
tp217
a(S'p1_ll'
I0
tp218
a(S'w'
I4396
tp219
a(S'p2_tl'
I92
tp220
a(S'p2_ll'
I0
tp221
a(S'p2_th'
I2
tp222
a(S'w'
I8791
tp223
a(S'p1_tl'
I240
tp224
a(S'p1_ll'
I0
tp225
a(S'w'
I4396
tp226
a(S'p1_tl'
I0
tp227
a(S'p1_ll'
I0
tp228
a(S'w'
I4395
tp229
a(S'p2_tl'
I128
tp230
a(S'p2_ll'
I0
tp231
a(S'w'
I8792
tp232
a(S'p1_tl'
I64
tp233
a(S'p1_ll'
I0
tp234
a(S'p1_th'
I1
tp235
a(S'w'
I4395
tp236
a(S'p1_tl'
I0
tp237
a(S'p1_ll'
I0
tp238
a(S'p1_th'
I0
tp239
a(S'w'
I4396
tp240
a(S'p2_tl'
I39
tp241
a(S'p2_ll'
I0
tp242
a(S'p2_th'
I3
tp243
a(S'w'
I8791
tp244
a(S'p1_tl'
I64
tp245
a(S'p1_ll'
I0
tp246
a(S'p1_th'
I1
tp247
a(S'w'
I4396
tp248
a(S'p1_tl'
I0
tp249
a(S'p1_ll'
I0
tp250
a(S'p1_th'
I0
tp251
a(S'w'
I4395
tp252
a(S'p2_tl'
I249
tp253
a(S'p2_ll'
I0
tp254
a(S'p2_th'
I2
tp255
a(S'w'
I8792
tp256
a(S'p1_tl'
I124
tp257
a(S'p1_ll'
I0
tp258
a(S'p1_th'
I1
tp259
a(S'w'
I4395
tp260
a(S'p1_tl'
I0
tp261
a(S'p1_ll'
I0
tp262
a(S'p1_th'
I0
tp263
a(S'w'
I4396
tp264
a(S'p2_tl'
I58
tp265
a(S'p2_ll'
I0
tp266
a(S'w'
I8791
tp267
a(S'p1_tl'
I46
tp268
a(S'p1_ll'
I0
tp269
a(S'p1_th'
I1
tp270
a(S'w'
I4396
tp271
a(S'p1_tl'
I0
tp272
a(S'p1_ll'
I0
tp273
a(S'p1_th'
I0
tp274
a(S'w'
I4395
tp275
a(S'p2_tl'
I165
tp276
a(S'p2_ll'
I0
tp277
a(S'w'
I8792
tp278
a(S'p1_tl'
I82
tp279
a(S'p1_ll'
I0
tp280
a(S'p1_th'
I1
tp281
a(S'w'
I4395
tp282
a(S'p1_tl'
I0
tp283
a(S'p1_ll'
I0
tp284
a(S'p1_th'
I0
tp285
a(S'w'
I4396
tp286
a(S'p2_tl'
I252
tp287
a(S'p2_ll'
I0
tp288
a(S'p2_th'
I1
tp289
a(S'w'
I8791
tp290
a(S'p1_tl'
I254
tp291
a(S'p1_ll'
I0
tp292
a(S'w'
I4396
tp293
a(S'p1_tl'
I0
tp294
a(S'p1_ll'
I0
tp295
a(S'w'
I4397
tp296
a(S'p1_tl'
I213
tp297
a(S'p1_ll'
I0
tp298
a(S'w'
I8
tp299
a(S'p2_tl'
I64
tp300
a(S'p2_ll'
I0
tp301
a(S'w'
I4387
tp302
a(S'p1_tl'
I254
tp303
a(S'w'
I1
tp304
a(S'p1_ll'
I0
tp305
a(S'w'
I4394
tp306
a(S'p1_tl'
I64
tp307
a(S'p1_ll'
I0
tp308
a(S'p1_th'
I1
tp309
a(S'w'
I6
tp310
a(S'p2_tl'
I124
tp311
a(S'w'
I1
tp312
a(S'p2_ll'
I0
tp313
a(S'w'
I4388
tp314
a(S'p1_tl'
I171
tp315
a(S'p1_ll'
I0
tp316
a(S'w'
I4398
tp317
a(S'p1_tl'
I201
tp318
a(S'p1_ll'
I0
tp319
a(S'p1_th'
I0
tp320
a(S'w'
I8
tp321
a(S'p2_tl'
I224
tp322
a(S'p2_ll'
I0
tp323
a(S'w'
I4386
tp324
a(S'p1_tl'
I240
tp325
a(S'w'
I1
tp326
a(S'p1_ll'
I0
tp327
a(S'w'
I4394
tp328
a(S'p1_tl'
I46
tp329
a(S'p1_ll'
I0
tp330
a(S'p1_th'
I1
tp331
a(S'w'
I6
tp332
a(S'p2_tl'
I92
tp333
a(S'p2_ll'
I0
tp334
a(S'p2_th'
I2
tp335
a(S'w'
I4390
tp336
a(S'p1_tl'
I147
tp337
a(S'p1_ll'
I0
tp338
a(S'w'
I4397
tp339
a(S'p1_tl'
I179
tp340
a(S'p1_ll'
I0
tp341
a(S'p1_th'
I0
tp342
a(S'w'
I6
tp343
a(S'p2_tl'
I249
tp344
a(S'p2_ll'
I0
tp345
a(S'w'
I4388
tp346
a(S'p1_tl'
I213
tp347
a(S'w'
I1
tp348
a(S'p1_ll'
I0
tp349
a(S'w'
I4395
tp350
a(S'p1_tl'
I254
tp351
a(S'w'
I1
tp352
a(S'p1_ll'
I0
tp353
a(S'w'
I7
tp354
a(S'p2_tl'
I138
tp355
a(S'p2_ll'
I0
tp356
a(S'p2_th'
I3
tp357
a(S'w'
I4387
tp358
a(S'p1_tl'
I46
tp359
a(S'p1_ll'
I0
tp360
a(S'p1_th'
I1
tp361
a(S'w'
I4398
tp362
a(S'p1_tl'
I179
tp363
a(S'p1_ll'
I0
tp364
a(S'p1_th'
I0
tp365
a(S'w'
I8
tp366
a(S'p2_tl'
I39
tp367
a(S'p2_ll'
I0
tp368
a(S'w'
I4385
tp369
a(S'p1_tl'
I169
tp370
a(S'w'
I1
tp371
a(S'p1_ll'
I0
tp372
a(S'w'
I4395
tp373
a(S'p1_tl'
I160
tp374
a(S'w'
I1
tp375
a(S'p1_ll'
I0
tp376
a(S'w'
I5
tp377
a(S'p2_tl'
I87
tp378
a(S'w'
I1
tp379
a(S'p2_ll'
I0
tp380
a(S'w'
I4389
tp381
a(S'p1_tl'
I151
tp382
a(S'w'
I1
tp383
a(S'p1_ll'
I0
tp384
a(S'w'
I4395
tp385
a(S'p1_tl'
I0
tp386
a(S'w'
I1
tp387
a(S'p1_ll'
I0
tp388
a(S'w'
I7
tp389
a(S'p2_tl'
I192
tp390
a(S'p2_ll'
I0
tp391
a(S'w'
I8782
tp392
a(S'p1_tl'
I147
tp393
a(S'p1_ll'
I0
tp394
a(S'p1_th'
I1
tp395
a(S'w'
I4396
tp396
a(S'p1_tl'
I0
tp397
a(S'p1_ll'
I0
tp398
a(S'p1_th'
I0
tp399
a(S'w'
I4397
tp400
a(S'p2_tl'
I224
tp401
a(S'w'
I1
tp402
a(S'p2_ll'
I0
tp403
a(S'p2_th'
I1
tp404
a(S'w'
I8789
tp405
a(S'p1_tl'
I254
tp406
a(S'p1_ll'
I0
tp407
a(S'w'
I4395
tp408
a(S'p1_tl'
I0
tp409
a(S'p1_ll'
I0
tp410
a(S'w'
I13189
tp411
a(S'p1_tl'
I213
tp412
a(S'p1_ll'
I0
tp413
a(S'w'
I4394
tp414
a(S'p1_tl'
I0
tp415
a(S'w'
I1
tp416
a(S'p1_ll'
I0
tp417
a(S'w'
I4395
tp418
a(S'p2_tl'
I252
tp419
a(S'p2_ll'
I0
tp420
a(S'w'
I8791
tp421
a(S'p1_tl'
I213
tp422
a(S'w'
I1
tp423
a(S'p1_ll'
I0
tp424
a(S'w'
I4394
tp425
a(S'p1_tl'
I0
tp426
a(S'w'
I1
tp427
a(S'p1_ll'
I0
tp428
a(S'w'
I4395
tp429
a(S'p2_tl'
I224
tp430
a(S'p2_ll'
I0
tp431
a(S'w'
I8792
tp432
a(S'p1_tl'
I240
tp433
a(S'w'
I1
tp434
a(S'p1_ll'
I0
tp435
a(S'w'
I4394
tp436
a(S'p1_tl'
I0
tp437
a(S'p1_ll'
I0
tp438
a(S'w'
I4395
tp439
a(S'p2_tl'
I92
tp440
a(S'p2_ll'
I0
tp441
a(S'p2_th'
I2
tp442
a(S'w'
I8792
tp443
a(S'p1_tl'
I240
tp444
a(S'p1_ll'
I0
tp445
a(S'w'
I4395
tp446
a(S'p1_tl'
I0
tp447
a(S'p1_ll'
I0
tp448
a(S'w'
I4396
tp449
a(S'p2_tl'
I128
tp450
a(S'p2_ll'
I0
tp451
a(S'w'
I8791
tp452
a(S'p1_tl'
I64
tp453
a(S'p1_ll'
I0
tp454
a(S'p1_th'
I1
tp455
a(S'w'
I4396
tp456
a(S'p1_tl'
I0
tp457
a(S'p1_ll'
I0
tp458
a(S'p1_th'
I0
tp459
a(S'w'
I4395
tp460
a(S'p2_tl'
I39
tp461
a(S'p2_ll'
I0
tp462
a(S'p2_th'
I3
tp463
a(S'w'
I8792
tp464
a(S'p1_tl'
I64
tp465
a(S'p1_ll'
I0
tp466
a(S'p1_th'
I1
tp467
a(S'w'
I4395
tp468
a(S'p1_tl'
I0
tp469
a(S'p1_ll'
I0
tp470
a(S'p1_th'
I0
tp471
a(S'w'
I4396
tp472
a(S'p2_tl'
I249
tp473
a(S'p2_ll'
I0
tp474
a(S'p2_th'
I2
tp475
a(S'w'
I8791
tp476
a(S'p1_tl'
I124
tp477
a(S'p1_ll'
I0
tp478
a(S'p1_th'
I1
tp479
a(S'w'
I4396
tp480
a(S'p1_tl'
I0
tp481
a(S'p1_ll'
I0
tp482
a(S'p1_th'
I0
tp483
a(S'w'
I4395
tp484
a(S'p2_tl'
I58
tp485
a(S'p2_ll'
I0
tp486
a(S'w'
I8792
tp487
a(S'p1_tl'
I46
tp488
a(S'p1_ll'
I0
tp489
a(S'p1_th'
I1
tp490
a(S'w'
I4395
tp491
a(S'p1_tl'
I0
tp492
a(S'p1_ll'
I0
tp493
a(S'p1_th'
I0
tp494
a(S'w'
I4396
tp495
a(S'p2_tl'
I165
tp496
a(S'p2_ll'
I0
tp497
a(S'w'
I8791
tp498
a(S'p1_tl'
I82
tp499
a(S'p1_ll'
I0
tp500
a(S'p1_th'
I1
tp501
a(S'w'
I4396
tp502
a(S'p1_tl'
I0
tp503
a(S'p1_ll'
I0
tp504
a(S'p1_th'
I0
tp505
a(S'w'
I4395
tp506
a(S'p2_tl'
I252
tp507
a(S'p2_ll'
I0
tp508
a(S'p2_th'
I1
tp509
a(S'w'
I8792
tp510
a(S'p1_tl'
I254
tp511
a(S'p1_ll'
I0
tp512
a(S'w'
I4395
tp513
a(S'p1_tl'
I0
tp514
a(S'p1_ll'
I0
tp515
a(S'w'
I4398
tp516
a(S'p1_tl'
I213
tp517
a(S'p1_ll'
I0
tp518
a(S'w'
I8
tp519
a(S'p2_tl'
I64
tp520
a(S'p2_ll'
I0
tp521
a(S'w'
I4386
tp522
a(S'p1_tl'
I254
tp523
a(S'w'
I1
tp524
a(S'p1_ll'
I0
tp525
a(S'w'
I4394
tp526
a(S'p1_tl'
I64
tp527
a(S'p1_ll'
I0
tp528
a(S'p1_th'
I1
tp529
a(S'w'
I6
tp530
a(S'p2_tl'
I124
tp531
a(S'w'
I1
tp532
a(S'p2_ll'
I0
tp533
a(S'w'
I4389
tp534
a(S'p1_tl'
I171
tp535
a(S'p1_ll'
I0
tp536
a(S'w'
I4397
tp537
a(S'p1_tl'
I201
tp538
a(S'p1_ll'
I0
tp539
a(S'p1_th'
I0
tp540
a(S'w'
I8
tp541
a(S'p2_tl'
I224
tp542
a(S'p2_ll'
I0
tp543
a(S'w'
I4387
tp544
a(S'p1_tl'
I240
tp545
a(S'w'
I1
tp546
a(S'p1_ll'
I0
tp547
a(S'w'
I4393
tp548
a(S'p1_tl'
I46
tp549
a(S'p1_ll'
I0
tp550
a(S'p1_th'
I1
tp551
a(S'w'
I6
tp552
a(S'p2_tl'
I92
tp553
a(S'p2_ll'
I0
tp554
a(S'p2_th'
I2
tp555
a(S'w'
I4390
tp556
a(S'p1_tl'
I147
tp557
a(S'p1_ll'
I0
tp558
a(S'w'
I4398
tp559
a(S'p1_tl'
I179
tp560
a(S'p1_ll'
I0
tp561
a(S'p1_th'
I0
tp562
a(S'w'
I6
tp563
a(S'p2_tl'
I249
tp564
a(S'p2_ll'
I0
tp565
a(S'w'
I4387
tp566
a(S'p1_tl'
I213
tp567
a(S'w'
I1
tp568
a(S'p1_ll'
I0
tp569
a(S'w'
I4396
tp570
a(S'p1_tl'
I254
tp571
a(S'w'
I1
tp572
a(S'p1_ll'
I0
tp573
a(S'w'
I7
tp574
a(S'p2_tl'
I138
tp575
a(S'p2_ll'
I0
tp576
a(S'p2_th'
I3
tp577
a(S'w'
I4387
tp578
a(S'p1_tl'
I46
tp579
a(S'p1_ll'
I0
tp580
a(S'p1_th'
I1
tp581
a(S'w'
I4397
tp582
a(S'p1_tl'
I190
tp583
a(S'p1_ll'
I0
tp584
a(S'p1_th'
I0
tp585
a(S'w'
I8
tp586
a(S'p2_tl'
I249
tp587
a(S'p2_ll'
I0
tp588
a(S'p2_th'
I2
tp589
a(S'w'
I5851
tp590
a(S'p1_tl'
I169
tp591
a(S'w'
I1
tp592
a(S'p1_ll'
I0
tp593
a(S'w'
I5
tp594
a(S'p2_tl'
I39
tp595
a(S'w'
I1
tp596
a(S'p2_ll'
I0
tp597
a(S'p2_th'
I3
tp598
a(S'w'
I5854
tp599
a(S'p1_tl'
I151
tp600
a(S'w'
I1
tp601
a(S'p1_ll'
I0
tp602
a(S'w'
I5
tp603
a(S'p2_tl'
I87
tp604
a(S'w'
I1
tp605
a(S'p2_ll'
I0
tp606
a(S'w'
I5856
tp607
a.