(lp1
(S'clock'
p2
I1789772
tp3
a(S'w'
I1
tp4
a(S'fc_mo'
I1
tp5
a(S'w'
I11
tp6
a(S'p1_tl'
I58
tp7
a(S'p1_ll'
I1
tp8
a(S'p1_th'
I2
tp9
a(S'w'
I1
tp10
a(S'p1_sp'
I7
tp11
a(S'p1_sn'
I1
tp12
a(S'p1_ss'
I7
tp13
a(S'p1_du'
I1
tp14
a(S'p1_cv'
I1
tp15
a(S'p1_vo'
I8
tp16
a(S'w'
I3
tp17
a(S'p2_tl'
I171
tp18
a(S'w'
I1
tp19
a(S'p2_ll'
I1
tp20
a(S'p2_th'
I1
tp21
a(S'p2_du'
I2
tp22
a(S'p2_cv'
I1
tp23
a(S'p2_vo'
I15
tp24
a(S'p2_sp'
I7
tp25
a(S'p2_sn'
I1
tp26
a(S'p2_ss'
I7
tp27
a(S'w'
I3
tp28
a(S'tr_lh'
I1
tp29
a(S'tr_lr'
I127
tp30
a(S'tr_tl'
I171
tp31
a(S'w'
I1
tp32
a(S'tr_ll'
I1
tp33
a(S'tr_th'
I1
tp34
a(S'w'
I8791
tp35
a(S'tr_tl'
I58
tp36
a(S'tr_ll'
I1
tp37
a(S'tr_th'
I2
tp38
a(S'w'
I8806
tp39
a(S'tr_tl'
I171
tp40
a(S'tr_ll'
I1
tp41
a(S'tr_th'
I1
tp42
a(S'w'
I8804
tp43
a(S'p1_du'
I0
tp44
a(S'p1_vo'
I0
tp45
a(S'w'
I3
tp46
a(S'p2_du'
I0
tp47
a(S'p2_vo'
I0
tp48
a(S'w'
I3
tp49
a(S'tr_tl'
I58
tp50
a(S'tr_ll'
I1
tp51
a(S'tr_th'
I2
tp52
a(S'w'
I8799
tp53
a(S'p1_ll'
I1
tp54
a(S'w'
I1
tp55
a(S'p1_du'
I1
tp56
a(S'p1_vo'
I8
tp57
a(S'w'
I3
tp58
a(S'w'
I1
tp59
a(S'p2_ll'
I1
tp60
a(S'p2_du'
I2
tp61
a(S'p2_vo'
I15
tp62
a(S'w'
I3
tp63
a(S'tr_tl'
I171
tp64
a(S'tr_ll'
I1
tp65
a(S'tr_th'
I1
tp66
a(S'w'
I8799
tp67
a(S'tr_tl'
I58
tp68
a(S'tr_ll'
I1
tp69
a(S'tr_th'
I2
tp70
a(S'w'
I8804
tp71
a(S'p1_tl'
I252
tp72
a(S'p1_ll'
I1
tp73
a(S'p1_th'
I1
tp74
a(S'w'
I4
tp75
a(S'p2_tl'
I124
tp76
a(S'w'
I1
tp77
a(S'p2_ll'
I1
tp78
a(S'w'
I3
tp79
a(S'tr_tl'
I171
tp80
a(S'tr_ll'
I1
tp81
a(S'tr_th'
I1
tp82
a(S'w'
I8797
tp83
a(S'p1_tl'
I223
tp84
a(S'p1_ll'
I1
tp85
a(S'w'
I4
tp86
a(S'p2_tl'
I103
tp87
a(S'w'
I1
tp88
a(S'p2_ll'
I1
tp89
a(S'w'
I3
tp90
a(S'tr_tl'
I58
tp91
a(S'tr_ll'
I1
tp92
a(S'tr_th'
I2
tp93
a(S'w'
I8800
tp94
a(S'tr_tl'
I103
tp95
a(S'tr_ll'
I1
tp96
a(S'tr_th'
I1
tp97
a(S'w'
I8805
tp98
a(S'tr_tl'
I223
tp99
a(S'tr_ll'
I1
tp100
a(S'w'
I8806
tp101
a(S'tr_tl'
I103
tp102
a(S'tr_ll'
I1
tp103
a(S'w'
I8805
tp104
a(S'tr_tl'
I223
tp105
a(S'tr_ll'
I1
tp106
a(S'w'
I8806
tp107
a(S'tr_tl'
I103
tp108
a(S'tr_ll'
I1
tp109
a(S'w'
I8805
tp110
a(S'tr_tl'
I223
tp111
a(S'tr_ll'
I1
tp112
a(S'w'
I8804
tp113
a(S'p1_tl'
I252
tp114
a(S'p1_ll'
I1
tp115
a(S'w'
I4
tp116
a(S'p2_tl'
I124
tp117
a(S'w'
I1
tp118
a(S'p2_ll'
I1
tp119
a(S'w'
I3
tp120
a(S'tr_tl'
I103
tp121
a(S'tr_ll'
I1
tp122
a(S'w'
I2927
tp123
a(S'p1_tl'
I223
tp124
a(S'p1_ll'
I1
tp125
a(S'w'
I4
tp126
a(S'p2_tl'
I103
tp127
a(S'w'
I1
tp128
a(S'p2_ll'
I1
tp129
a(S'w'
I5865
tp130
a(S'p1_tl'
I252
tp131
a(S'p1_ll'
I1
tp132
a(S'w'
I4
tp133
a(S'p2_tl'
I124
tp134
a(S'w'
I1
tp135
a(S'p2_ll'
I1
tp136
a(S'w'
I3
tp137
a(S'tr_tl'
I223
tp138
a(S'tr_ll'
I1
tp139
a(S'w'
I8800
tp140
a(S'tr_tl'
I124
tp141
a(S'tr_ll'
I1
tp142
a(S'w'
I8805
tp143
a(S'tr_tl'
I252
tp144
a(S'tr_ll'
I1
tp145
a(S'w'
I8806
tp146
a(S'tr_tl'
I124
tp147
a(S'tr_ll'
I1
tp148
a(S'w'
I8805
tp149
a(S'tr_tl'
I252
tp150
a(S'tr_ll'
I1
tp151
a(S'w'
I8806
tp152
a(S'tr_tl'
I124
tp153
a(S'tr_ll'
I1
tp154
a(S'w'
I8805
tp155
a(S'tr_tl'
I252
tp156
a(S'tr_ll'
I1
tp157
a(S'w'
I8806
tp158
a(S'tr_tl'
I124
tp159
a(S'tr_ll'
I1
tp160
a(S'w'
I8805
tp161
a(S'tr_tl'
I252
tp162
a(S'tr_ll'
I1
tp163
a(S'w'
I8804
tp164
a(S'p1_tl'
I8
tp165
a(S'p1_ll'
I1
tp166
a(S'w'
I3
tp167
a(S'tr_lh'
I0
tp168
a(S'tr_lr'
I0
tp169
a(S'p1_du'
I2
tp170
a(S'p1_vo'
I0
tp171
a(S'w'
I1
tp172
a(S'p2_vo'
I0
tp173
a(S'w'
I47731
tp174
a.