(lp1
(S'clock'
p2
I1789772
tp3
a(S'w'
I1
tp4
a(S'fc_mo'
I1
tp5
a(S'w'
I11
tp6
a(S'p1_tl'
I253
tp7
a(S'p1_ll'
I1
tp8
a(S'w'
I1
tp9
a(S'p1_sp'
I7
tp10
a(S'p1_sn'
I1
tp11
a(S'p1_ss'
I7
tp12
a(S'p1_vo'
I6
tp13
a(S'w'
I3
tp14
a(S'p2_tl'
I212
tp15
a(S'p2_ll'
I1
tp16
a(S'w'
I1
tp17
a(S'p2_du'
I2
tp18
a(S'p2_vo'
I4
tp19
a(S'p2_sp'
I7
tp20
a(S'p2_sn'
I1
tp21
a(S'p2_ss'
I7
tp22
a(S'w'
I3
tp23
a(S'tr_lr'
I56
tp24
a(S'tr_tl'
I63
tp25
a(S'w'
I1
tp26
a(S'tr_ll'
I1
tp27
a(S'tr_th'
I1
tp28
a(S'w'
I6587
tp29
a(S'p1_ll'
I1
tp30
a(S'w'
I4
tp31
a(S'w'
I1
tp32
a(S'p2_ll'
I1
tp33
a(S'w'
I6600
tp34
a(S'p1_ll'
I1
tp35
a(S'w'
I4
tp36
a(S'w'
I1
tp37
a(S'p2_ll'
I1
tp38
a(S'w'
I7333
tp39
a(S'p1_ll'
I1
tp40
a(S'w'
I4
tp41
a(S'w'
I1
tp42
a(S'p2_ll'
I1
tp43
a(S'w'
I4
tp44
a(S'tr_tl'
I171
tp45
a(S'tr_ll'
I1
tp46
a(S'w'
I6594
tp47
a(S'p1_tl'
I28
tp48
a(S'p1_ll'
I1
tp49
a(S'p1_th'
I1
tp50
a(S'w'
I4
tp51
a(S'p2_tl'
I238
tp52
a(S'w'
I1
tp53
a(S'p2_ll'
I1
tp54
a(S'w'
I6600
tp55
a(S'p1_tl'
I63
tp56
a(S'p1_ll'
I1
tp57
a(S'w'
I4
tp58
a(S'p2_tl'
I253
tp59
a(S'w'
I1
tp60
a(S'p2_ll'
I1
tp61
a(S'w'
I7333
tp62
a(S'p1_tl'
I253
tp63
a(S'p1_ll'
I1
tp64
a(S'p1_th'
I0
tp65
a(S'w'
I4
tp66
a(S'p2_tl'
I212
tp67
a(S'w'
I1
tp68
a(S'p2_ll'
I1
tp69
a(S'w'
I4
tp70
a(S'tr_tl'
I63
tp71
a(S'tr_ll'
I1
tp72
a(S'w'
I6594
tp73
a(S'p1_ll'
I1
tp74
a(S'w'
I4
tp75
a(S'w'
I1
tp76
a(S'p2_ll'
I1
tp77
a(S'w'
I6600
tp78
a(S'p1_ll'
I1
tp79
a(S'w'
I4
tp80
a(S'w'
I1
tp81
a(S'p2_ll'
I1
tp82
a(S'w'
I1
tp83
a(S'p2_vo'
I7
tp84
a(S'w'
I7332
tp85
a(S'p1_tl'
I252
tp86
a(S'p1_ll'
I1
tp87
a(S'p1_th'
I1
tp88
a(S'w'
I5
tp89
a(S'tr_tl'
I171
tp90
a(S'w'
I1
tp91
a(S'tr_ll'
I1
tp92
a(S'w'
I6597
tp93
a(S'p1_tl'
I171
tp94
a(S'p1_ll'
I1
tp95
a(S'w'
I6605
tp96
a(S'p1_tl'
I252
tp97
a(S'p1_ll'
I1
tp98
a(S'w'
I5
tp99
a(S'p2_du'
I0
tp100
a(S'p2_cv'
I1
tp101
a(S'p2_vo'
I0
tp102
a(S'w'
I7333
tp103
a(S'p1_tl'
I238
tp104
a(S'p1_ll'
I1
tp105
a(S'p1_th'
I0
tp106
a(S'w'
I4
tp107
a(S'p2_tl'
I189
tp108
a(S'w'
I1
tp109
a(S'p2_ll'
I1
tp110
a(S'w'
I1
tp111
a(S'p2_du'
I2
tp112
a(S'p2_cv'
I0
tp113
a(S'p2_vo'
I4
tp114
a(S'w'
I3
tp115
a(S'tr_tl'
I238
tp116
a(S'tr_ll'
I1
tp117
a(S'tr_th'
I0
tp118
a(S'w'
I6594
tp119
a(S'p1_ll'
I1
tp120
a(S'w'
I4
tp121
a(S'w'
I1
tp122
a(S'p2_ll'
I1
tp123
a(S'w'
I6600
tp124
a(S'p1_ll'
I1
tp125
a(S'w'
I4
tp126
a(S'w'
I1
tp127
a(S'p2_ll'
I1
tp128
a(S'w'
I7333
tp129
a(S'p1_ll'
I1
tp130
a(S'w'
I4
tp131
a(S'w'
I1
tp132
a(S'p2_ll'
I1
tp133
a(S'w'
I4
tp134
a(S'tr_tl'
I63
tp135
a(S'tr_ll'
I1
tp136
a(S'tr_th'
I1
tp137
a(S'w'
I6594
tp138
a(S'p1_tl'
I253
tp139
a(S'p1_ll'
I1
tp140
a(S'w'
I4
tp141
a(S'p2_tl'
I212
tp142
a(S'w'
I1
tp143
a(S'p2_ll'
I1
tp144
a(S'w'
I6601
tp145
a(S'p1_tl'
I28
tp146
a(S'p1_ll'
I1
tp147
a(S'p1_th'
I1
tp148
a(S'w'
I4
tp149
a(S'p2_tl'
I238
tp150
a(S'w'
I1
tp151
a(S'p2_ll'
I1
tp152
a(S'w'
I7333
tp153
a(S'p1_tl'
I238
tp154
a(S'p1_ll'
I1
tp155
a(S'p1_th'
I0
tp156
a(S'w'
I4
tp157
a(S'p2_tl'
I189
tp158
a(S'w'
I1
tp159
a(S'p2_ll'
I1
tp160
a(S'w'
I4
tp161
a(S'tr_tl'
I238
tp162
a(S'tr_ll'
I1
tp163
a(S'tr_th'
I0
tp164
a(S'w'
I6594
tp165
a(S'p1_ll'
I1
tp166
a(S'w'
I4
tp167
a(S'w'
I1
tp168
a(S'p2_ll'
I1
tp169
a(S'w'
I6600
tp170
a(S'p1_ll'
I1
tp171
a(S'w'
I4
tp172
a(S'w'
I1
tp173
a(S'p2_ll'
I1
tp174
a(S'w'
I1
tp175
a(S'p2_vo'
I7
tp176
a(S'w'
I7332
tp177
a(S'p1_tl'
I223
tp178
a(S'p1_ll'
I1
tp179
a(S'p1_th'
I1
tp180
a(S'w'
I5
tp181
a(S'tr_tl'
I63
tp182
a(S'w'
I1
tp183
a(S'tr_ll'
I1
tp184
a(S'tr_th'
I1
tp185
a(S'w'
I6597
tp186
a(S'p1_tl'
I124
tp187
a(S'p1_ll'
I1
tp188
a(S'w'
I6605
tp189
a(S'p1_tl'
I223
tp190
a(S'p1_ll'
I1
tp191
a(S'w'
I5
tp192
a(S'p2_du'
I0
tp193
a(S'p2_cv'
I1
tp194
a(S'p2_vo'
I0
tp195
a(S'w'
I7333
tp196
a(S'p1_tl'
I212
tp197
a(S'p1_ll'
I1
tp198
a(S'p1_th'
I0
tp199
a(S'w'
I4
tp200
a(S'p2_tl'
I168
tp201
a(S'w'
I1
tp202
a(S'p2_ll'
I1
tp203
a(S'w'
I1
tp204
a(S'p2_du'
I2
tp205
a(S'p2_cv'
I0
tp206
a(S'p2_vo'
I4
tp207
a(S'w'
I3
tp208
a(S'tr_tl'
I212
tp209
a(S'tr_ll'
I1
tp210
a(S'tr_th'
I0
tp211
a(S'w'
I6594
tp212
a(S'p1_ll'
I1
tp213
a(S'w'
I4
tp214
a(S'w'
I1
tp215
a(S'p2_ll'
I1
tp216
a(S'w'
I6600
tp217
a(S'p1_ll'
I1
tp218
a(S'w'
I4
tp219
a(S'w'
I1
tp220
a(S'p2_ll'
I1
tp221
a(S'w'
I7333
tp222
a(S'p1_ll'
I1
tp223
a(S'w'
I4
tp224
a(S'w'
I1
tp225
a(S'p2_ll'
I1
tp226
a(S'w'
I4
tp227
a(S'tr_tl'
I28
tp228
a(S'tr_ll'
I1
tp229
a(S'tr_th'
I1
tp230
a(S'w'
I6594
tp231
a(S'p1_tl'
I238
tp232
a(S'p1_ll'
I1
tp233
a(S'w'
I4
tp234
a(S'p2_tl'
I189
tp235
a(S'w'
I1
tp236
a(S'p2_ll'
I1
tp237
a(S'w'
I6600
tp238
a(S'p1_tl'
I253
tp239
a(S'p1_ll'
I1
tp240
a(S'w'
I4
tp241
a(S'p2_tl'
I212
tp242
a(S'w'
I1
tp243
a(S'p2_ll'
I1
tp244
a(S'w'
I7333
tp245
a(S'p1_tl'
I212
tp246
a(S'p1_ll'
I1
tp247
a(S'w'
I4
tp248
a(S'p2_tl'
I168
tp249
a(S'w'
I1
tp250
a(S'p2_ll'
I1
tp251
a(S'w'
I1
tp252
a(S'p2_vo'
I7
tp253
a(S'w'
I3
tp254
a(S'tr_tl'
I212
tp255
a(S'tr_ll'
I1
tp256
a(S'tr_th'
I0
tp257
a(S'w'
I10264
tp258
a(S'p1_tl'
I171
tp259
a(S'p1_ll'
I1
tp260
a(S'p1_th'
I1
tp261
a(S'w'
I10275
tp262
a(S'tr_tl'
I28
tp263
a(S'tr_ll'
I1
tp264
a(S'tr_th'
I1
tp265
a(S'w'
I10271
tp266
a(S'p1_ll'
I1
tp267
a(S'w'
I4
tp268
a(S'w'
I1
tp269
a(S'p2_ll'
I1
tp270
a(S'w'
I1
tp271
a(S'p2_vo'
I4
tp272
a(S'w'
I10267
tp273
a(S'p1_tl'
I212
tp274
a(S'p1_ll'
I1
tp275
a(S'p1_th'
I0
tp276
a(S'w'
I4
tp277
a(S'w'
I1
tp278
a(S'p2_ll'
I1
tp279
a(S'w'
I4
tp280
a(S'tr_tl'
I212
tp281
a(S'tr_ll'
I1
tp282
a(S'tr_th'
I0
tp283
a(S'w'
I10265
tp284
a(S'p1_tl'
I189
tp285
a(S'p1_ll'
I1
tp286
a(S'w'
I4
tp287
a(S'p2_tl'
I159
tp288
a(S'w'
I1
tp289
a(S'p2_ll'
I1
tp290
a(S'w'
I1
tp291
a(S'p2_vo'
I7
tp292
a(S'w'
I10269
tp293
a(S'tr_tl'
I28
tp294
a(S'tr_ll'
I1
tp295
a(S'tr_th'
I1
tp296
a(S'w'
I10271
tp297
a(S'p1_tl'
I168
tp298
a(S'p1_ll'
I1
tp299
a(S'w'
I4
tp300
a(S'p2_tl'
I141
tp301
a(S'w'
I1
tp302
a(S'p2_ll'
I1
tp303
a(S'w'
I1
tp304
a(S'p2_vo'
I4
tp305
a(S'w'
I10267
tp306
a(S'p1_tl'
I253
tp307
a(S'p1_ll'
I1
tp308
a(S'w'
I4
tp309
a(S'p2_tl'
I212
tp310
a(S'w'
I1
tp311
a(S'p2_ll'
I1
tp312
a(S'w'
I1
tp313
a(S'p2_vo'
I7
tp314
a(S'w'
I3
tp315
a(S'tr_tl'
I63
tp316
a(S'tr_ll'
I1
tp317
a(S'w'
I20539
tp318
a(S'tr_tl'
I171
tp319
a(S'tr_ll'
I1
tp320
a(S'w'
I20545
tp321
a(S'tr_lr'
I20
tp322
a(S'w'
I1
tp323
a(S'tr_tl'
I63
tp324
a(S'tr_ll'
I1
tp325
a(S'w'
I5136
tp326
a(S'tr_lr'
I48
tp327
a(S'w'
I1
tp328
a(S'tr_tl'
I82
tp329
a(S'tr_ll'
I1
tp330
a(S'w'
I10273
tp331
a(S'tr_tl'
I124
tp332
a(S'tr_ll'
I1
tp333
a(S'w'
I10272
tp334
a(S'tr_lr'
I20
tp335
a(S'w'
I1
tp336
a(S'tr_tl'
I171
tp337
a(S'tr_ll'
I1
tp338
a(S'w'
I5135
tp339
a(S'tr_lr'
I48
tp340
a(S'w'
I1
tp341
a(S'tr_tl'
I252
tp342
a(S'tr_ll'
I1
tp343
a(S'w'
I10271
tp344
a(S'p1_tl'
I128
tp345
a(S'p1_ll'
I1
tp346
a(S'p1_th'
I2
tp347
a(S'w'
I4
tp348
a(S'w'
I1
tp349
a(S'p2_ll'
I1
tp350
a(S'w'
I1
tp351
a(S'p2_vo'
I4
tp352
a(S'w'
I2
tp353
a(S'tr_lr'
I56
tp354
a(S'w'
I1
tp355
a(S'tr_tl'
I63
tp356
a(S'tr_ll'
I1
tp357
a(S'w'
I6595
tp358
a(S'p1_tl'
I252
tp359
a(S'p1_ll'
I1
tp360
a(S'p1_th'
I1
tp361
a(S'w'
I4
tp362
a(S'w'
I1
tp363
a(S'p2_ll'
I1
tp364
a(S'w'
I6600
tp365
a(S'p1_tl'
I171
tp366
a(S'p1_ll'
I1
tp367
a(S'w'
I4
tp368
a(S'w'
I1
tp369
a(S'p2_ll'
I1
tp370
a(S'w'
I7333
tp371
a(S'p1_tl'
I128
tp372
a(S'p1_ll'
I1
tp373
a(S'p1_th'
I2
tp374
a(S'w'
I4
tp375
a(S'w'
I1
tp376
a(S'p2_ll'
I1
tp377
a(S'w'
I4
tp378
a(S'tr_tl'
I171
tp379
a(S'tr_ll'
I1
tp380
a(S'w'
I6594
tp381
a(S'p1_tl'
I252
tp382
a(S'p1_ll'
I1
tp383
a(S'p1_th'
I1
tp384
a(S'w'
I4
tp385
a(S'p2_tl'
I238
tp386
a(S'w'
I1
tp387
a(S'p2_ll'
I1
tp388
a(S'w'
I6600
tp389
a(S'p1_tl'
I171
tp390
a(S'p1_ll'
I1
tp391
a(S'w'
I4
tp392
a(S'p2_tl'
I253
tp393
a(S'w'
I1
tp394
a(S'p2_ll'
I1
tp395
a(S'w'
I7333
tp396
a(S'p1_tl'
I128
tp397
a(S'p1_ll'
I1
tp398
a(S'p1_th'
I2
tp399
a(S'w'
I4
tp400
a(S'p2_tl'
I212
tp401
a(S'w'
I1
tp402
a(S'p2_ll'
I1
tp403
a(S'w'
I4
tp404
a(S'tr_tl'
I63
tp405
a(S'tr_ll'
I1
tp406
a(S'w'
I6594
tp407
a(S'p1_tl'
I252
tp408
a(S'p1_ll'
I1
tp409
a(S'p1_th'
I1
tp410
a(S'w'
I4
tp411
a(S'w'
I1
tp412
a(S'p2_ll'
I1
tp413
a(S'w'
I6600
tp414
a(S'p1_tl'
I171
tp415
a(S'p1_ll'
I1
tp416
a(S'w'
I4
tp417
a(S'w'
I1
tp418
a(S'p2_ll'
I1
tp419
a(S'w'
I1
tp420
a(S'p2_vo'
I7
tp421
a(S'w'
I7332
tp422
a(S'p1_tl'
I128
tp423
a(S'p1_ll'
I1
tp424
a(S'p1_th'
I2
tp425
a(S'w'
I5
tp426
a(S'tr_tl'
I171
tp427
a(S'w'
I1
tp428
a(S'tr_ll'
I1
tp429
a(S'w'
I6597
tp430
a(S'p1_tl'
I58
tp431
a(S'p1_ll'
I1
tp432
a(S'w'
I6605
tp433
a(S'p1_tl'
I252
tp434
a(S'p1_ll'
I1
tp435
a(S'p1_th'
I1
tp436
a(S'w'
I5
tp437
a(S'p2_du'
I0
tp438
a(S'p2_cv'
I1
tp439
a(S'p2_vo'
I0
tp440
a(S'w'
I7333
tp441
a(S'p1_tl'
I223
tp442
a(S'p1_ll'
I1
tp443
a(S'w'
I4
tp444
a(S'p2_tl'
I189
tp445
a(S'w'
I1
tp446
a(S'p2_ll'
I1
tp447
a(S'w'
I1
tp448
a(S'p2_du'
I2
tp449
a(S'p2_cv'
I0
tp450
a(S'p2_vo'
I4
tp451
a(S'w'
I3
tp452
a(S'tr_tl'
I238
tp453
a(S'tr_ll'
I1
tp454
a(S'tr_th'
I0
tp455
a(S'w'
I6594
tp456
a(S'p1_tl'
I124
tp457
a(S'p1_ll'
I1
tp458
a(S'w'
I4
tp459
a(S'w'
I1
tp460
a(S'p2_ll'
I1
tp461
a(S'w'
I6600
tp462
a(S'p1_tl'
I63
tp463
a(S'p1_ll'
I1
tp464
a(S'w'
I4
tp465
a(S'w'
I1
tp466
a(S'p2_ll'
I1
tp467
a(S'w'
I7333
tp468
a(S'p1_tl'
I223
tp469
a(S'p1_ll'
I1
tp470
a(S'w'
I4
tp471
a(S'w'
I1
tp472
a(S'p2_ll'
I1
tp473
a(S'w'
I4
tp474
a(S'tr_tl'
I63
tp475
a(S'tr_ll'
I1
tp476
a(S'tr_th'
I1
tp477
a(S'w'
I6594
tp478
a(S'p1_tl'
I124
tp479
a(S'p1_ll'
I1
tp480
a(S'w'
I4
tp481
a(S'p2_tl'
I212
tp482
a(S'w'
I1
tp483
a(S'p2_ll'
I1
tp484
a(S'w'
I6601
tp485
a(S'p1_tl'
I63
tp486
a(S'p1_ll'
I1
tp487
a(S'w'
I4
tp488
a(S'p2_tl'
I238
tp489
a(S'w'
I1
tp490
a(S'p2_ll'
I1
tp491
a(S'w'
I7332
tp492
a(S'p1_tl'
I223
tp493
a(S'p1_ll'
I1
tp494
a(S'w'
I4
tp495
a(S'p2_tl'
I189
tp496
a(S'w'
I1
tp497
a(S'p2_ll'
I1
tp498
a(S'w'
I4
tp499
a(S'tr_tl'
I238
tp500
a(S'tr_ll'
I1
tp501
a(S'tr_th'
I0
tp502
a(S'w'
I6595
tp503
a(S'p1_tl'
I124
tp504
a(S'p1_ll'
I1
tp505
a(S'w'
I4
tp506
a(S'w'
I1
tp507
a(S'p2_ll'
I1
tp508
a(S'w'
I6600
tp509
a(S'p1_tl'
I63
tp510
a(S'p1_ll'
I1
tp511
a(S'w'
I4
tp512
a(S'w'
I1
tp513
a(S'p2_ll'
I1
tp514
a(S'w'
I1
tp515
a(S'p2_vo'
I7
tp516
a(S'w'
I7332
tp517
a(S'p1_tl'
I58
tp518
a(S'p1_ll'
I1
tp519
a(S'p1_th'
I2
tp520
a(S'w'
I5
tp521
a(S'tr_tl'
I63
tp522
a(S'w'
I1
tp523
a(S'tr_ll'
I1
tp524
a(S'tr_th'
I1
tp525
a(S'w'
I6597
tp526
a(S'p1_tl'
I252
tp527
a(S'p1_ll'
I1
tp528
a(S'p1_th'
I1
tp529
a(S'w'
I6605
tp530
a(S'p1_tl'
I223
tp531
a(S'p1_ll'
I1
tp532
a(S'w'
I5
tp533
a(S'p2_du'
I0
tp534
a(S'p2_cv'
I1
tp535
a(S'p2_vo'
I0
tp536
a(S'w'
I7333
tp537
a(S'p1_tl'
I171
tp538
a(S'p1_ll'
I1
tp539
a(S'w'
I4
tp540
a(S'p2_tl'
I168
tp541
a(S'w'
I1
tp542
a(S'p2_ll'
I1
tp543
a(S'w'
I1
tp544
a(S'p2_du'
I2
tp545
a(S'p2_cv'
I0
tp546
a(S'p2_vo'
I4
tp547
a(S'w'
I3
tp548
a(S'tr_tl'
I212
tp549
a(S'tr_ll'
I1
tp550
a(S'tr_th'
I0
tp551
a(S'w'
I6594
tp552
a(S'p1_tl'
I82
tp553
a(S'p1_ll'
I1
tp554
a(S'w'
I4
tp555
a(S'w'
I1
tp556
a(S'p2_ll'
I1
tp557
a(S'w'
I6600
tp558
a(S'p1_tl'
I28
tp559
a(S'p1_ll'
I1
tp560
a(S'w'
I4
tp561
a(S'w'
I1
tp562
a(S'p2_ll'
I1
tp563
a(S'w'
I7333
tp564
a(S'p1_tl'
I171
tp565
a(S'p1_ll'
I1
tp566
a(S'w'
I4
tp567
a(S'w'
I1
tp568
a(S'p2_ll'
I1
tp569
a(S'w'
I4
tp570
a(S'tr_tl'
I28
tp571
a(S'tr_ll'
I1
tp572
a(S'tr_th'
I1
tp573
a(S'w'
I6594
tp574
a(S'p1_tl'
I82
tp575
a(S'p1_ll'
I1
tp576
a(S'w'
I4
tp577
a(S'p2_tl'
I189
tp578
a(S'w'
I1
tp579
a(S'p2_ll'
I1
tp580
a(S'w'
I6600
tp581
a(S'p1_tl'
I28
tp582
a(S'p1_ll'
I1
tp583
a(S'w'
I4
tp584
a(S'p2_tl'
I212
tp585
a(S'w'
I1
tp586
a(S'p2_ll'
I1
tp587
a(S'w'
I7333
tp588
a(S'p1_ll'
I1
tp589
a(S'w'
I4
tp590
a(S'p2_tl'
I168
tp591
a(S'w'
I1
tp592
a(S'p2_ll'
I1
tp593
a(S'w'
I1
tp594
a(S'p2_vo'
I7
tp595
a(S'w'
I3
tp596
a(S'tr_tl'
I212
tp597
a(S'tr_ll'
I1
tp598
a(S'tr_th'
I0
tp599
a(S'w'
I5127
tp600
a(S'p1_tl'
I63
tp601
a(S'p1_ll'
I1
tp602
a(S'w'
I5136
tp603
a(S'p1_tl'
I28
tp604
a(S'p1_ll'
I1
tp605
a(S'w'
I5137
tp606
a(S'p1_tl'
I63
tp607
a(S'p1_ll'
I1
tp608
a(S'w'
I5137
tp609
a(S'p1_tl'
I28
tp610
a(S'p1_ll'
I1
tp611
a(S'w'
I5
tp612
a(S'tr_tl'
I28
tp613
a(S'w'
I1
tp614
a(S'tr_ll'
I1
tp615
a(S'tr_th'
I1
tp616
a(S'w'
I10266
tp617
a(S'p1_tl'
I171
tp618
a(S'p1_ll'
I1
tp619
a(S'w'
I4
tp620
a(S'w'
I1
tp621
a(S'p2_ll'
I1
tp622
a(S'w'
I1
tp623
a(S'p2_vo'
I4
tp624
a(S'w'
I10268
tp625
a(S'p1_ll'
I1
tp626
a(S'w'
I4
tp627
a(S'w'
I1
tp628
a(S'p2_ll'
I1
tp629
a(S'w'
I4
tp630
a(S'tr_tl'
I212
tp631
a(S'tr_ll'
I1
tp632
a(S'tr_th'
I0
tp633
a(S'w'
I5127
tp634
a(S'p1_tl'
I196
tp635
a(S'p1_ll'
I1
tp636
a(S'w'
I5137
tp637
a(S'p1_tl'
I124
tp638
a(S'p1_ll'
I1
tp639
a(S'w'
I4
tp640
a(S'p2_tl'
I159
tp641
a(S'w'
I1
tp642
a(S'p2_ll'
I1
tp643
a(S'w'
I1
tp644
a(S'p2_vo'
I7
tp645
a(S'w'
I5130
tp646
a(S'p1_tl'
I171
tp647
a(S'p1_ll'
I1
tp648
a(S'w'
I5138
tp649
a(S'p1_tl'
I124
tp650
a(S'p1_ll'
I1
tp651
a(S'w'
I5
tp652
a(S'tr_tl'
I28
tp653
a(S'w'
I1
tp654
a(S'tr_ll'
I1
tp655
a(S'tr_th'
I1
tp656
a(S'w'
I10266
tp657
a(S'p1_tl'
I82
tp658
a(S'p1_ll'
I1
tp659
a(S'w'
I4
tp660
a(S'p2_tl'
I141
tp661
a(S'w'
I1
tp662
a(S'p2_ll'
I1
tp663
a(S'w'
I1
tp664
a(S'p2_vo'
I4
tp665
a(S'w'
I10268
tp666
a(S'p1_tl'
I212
tp667
a(S'p1_ll'
I1
tp668
a(S'p1_th'
I0
tp669
a(S'w'
I4
tp670
a(S'p2_tl'
I159
tp671
a(S'w'
I1
tp672
a(S'p2_ll'
I1
tp673
a(S'w'
I1
tp674
a(S'p2_vo'
I7
tp675
a(S'w'
I2
tp676
a(S'tr_lr'
I48
tp677
a(S'w'
I1
tp678
a(S'tr_tl'
I63
tp679
a(S'tr_ll'
I1
tp680
a(S'w'
I10265
tp681
a(S'tr_lr'
I56
tp682
a(S'w'
I1
tp683
a(S'tr_tl'
I171
tp684
a(S'tr_ll'
I1
tp685
a(S'w'
I20545
tp686
a(S'tr_lr'
I48
tp687
a(S'w'
I1
tp688
a(S'tr_tl'
I252
tp689
a(S'tr_ll'
I1
tp690
a(S'w'
I10272
tp691
a(S'tr_lr'
I56
tp692
a(S'w'
I1
tp693
a(S'tr_tl'
I128
tp694
a(S'tr_ll'
I1
tp695
a(S'tr_th'
I2
tp696
a(S'w'
I41090
tp697
a(S'p1_cv'
I1
tp698
a(S'p1_vo'
I0
tp699
a(S'w'
I1
tp700
a(S'tr_lr'
I0
tp701
a(S'w'
I1
tp702
a(S'p1_du'
I2
tp703
a(S'p2_cv'
I1
tp704
a(S'p2_vo'
I0
tp705
a(S'w'
I23212
tp706
a.