(lp1
(S'clock'
p2
I1789772
tp3
a(S'p1_ll'
I0
tp4
a(S'p2_ll'
I0
tp5
a(S'tr_ll'
I0
tp6
a(S'ch_no'
I0
tp7
a(S'ch_tr'
I1
tp8
a(S'ch_p2'
I1
tp9
a(S'ch_p1'
I1
tp10
a(S'fc_mo'
I0
tp11
a(S'p1_ll'
I0
tp12
a(S'w'
I23
tp13
a(S'p2_ll'
I0
tp14
a(S'w'
I5
tp15
a(S'tr_ll'
I0
tp16
a(S'w'
I670
tp17
a(S'p1_du'
I3
tp18
a(S'p1_lh'
I1
tp19
a(S'p1_cv'
I1
tp20
a(S'p1_vo'
I15
tp21
a(S'w'
I3
tp22
a(S'p1_tl'
I120
tp23
a(S'w'
I1
tp24
a(S'p1_ll'
I1
tp25
a(S'w'
I6
tp26
a(S'p2_du'
I2
tp27
a(S'p2_lh'
I1
tp28
a(S'p2_cv'
I1
tp29
a(S'p2_vo'
I15
tp30
a(S'w'
I3
tp31
a(S'p2_tl'
I46
tp32
a(S'p2_ll'
I1
tp33
a(S'p2_th'
I1
tp34
a(S'w'
I5
tp35
a(S'tr_ll'
I0
tp36
a(S'w'
I719
tp37
a(S'w'
I9
tp38
a(S'w'
I5
tp39
a(S'tr_ll'
I0
tp40
a(S'w'
I720
tp41
a(S'w'
I9
tp42
a(S'w'
I5
tp43
a(S'tr_ll'
I0
tp44
a(S'w'
I720
tp45
a(S'w'
I9
tp46
a(S'w'
I4
tp47
a(S'tr_ll'
I0
tp48
a(S'w'
I722
tp49
a(S'p1_tl'
I0
tp50
a(S'p1_ll'
I0
tp51
a(S'w'
I14
tp52
a(S'p2_tl'
I0
tp53
a(S'p2_ll'
I0
tp54
a(S'p2_th'
I0
tp55
a(S'w'
I5
tp56
a(S'tr_ll'
I0
tp57
a(S'w'
I713
tp58
a(S'p1_tl'
I201
tp59
a(S'w'
I1
tp60
a(S'p1_ll'
I1
tp61
a(S'w'
I9
tp62
a(S'p2_tl'
I240
tp63
a(S'p2_ll'
I1
tp64
a(S'w'
I5
tp65
a(S'tr_ll'
I0
tp66
a(S'w'
I719
tp67
a(S'w'
I9
tp68
a(S'w'
I5
tp69
a(S'tr_ll'
I0
tp70
a(S'w'
I720
tp71
a(S'w'
I9
tp72
a(S'w'
I5
tp73
a(S'tr_ll'
I0
tp74
a(S'w'
I720
tp75
a(S'w'
I9
tp76
a(S'w'
I4
tp77
a(S'tr_ll'
I0
tp78
a(S'w'
I722
tp79
a(S'p1_tl'
I0
tp80
a(S'p1_ll'
I0
tp81
a(S'w'
I14
tp82
a(S'p2_tl'
I0
tp83
a(S'p2_ll'
I0
tp84
a(S'w'
I5
tp85
a(S'tr_ll'
I0
tp86
a(S'w'
I713
tp87
a(S'p1_tl'
I46
tp88
a(S'w'
I1
tp89
a(S'p1_ll'
I1
tp90
a(S'p1_th'
I1
tp91
a(S'w'
I9
tp92
a(S'p2_tl'
I103
tp93
a(S'p2_ll'
I1
tp94
a(S'p2_th'
I1
tp95
a(S'w'
I5
tp96
a(S'tr_ll'
I0
tp97
a(S'w'
I719
tp98
a(S'w'
I9
tp99
a(S'w'
I5
tp100
a(S'tr_ll'
I0
tp101
a(S'w'
I720
tp102
a(S'w'
I9
tp103
a(S'w'
I5
tp104
a(S'tr_ll'
I0
tp105
a(S'w'
I720
tp106
a(S'w'
I9
tp107
a(S'w'
I4
tp108
a(S'tr_ll'
I0
tp109
a(S'w'
I722
tp110
a(S'p1_tl'
I0
tp111
a(S'p1_ll'
I0
tp112
a(S'p1_th'
I0
tp113
a(S'w'
I14
tp114
a(S'p2_tl'
I0
tp115
a(S'p2_ll'
I0
tp116
a(S'p2_th'
I0
tp117
a(S'w'
I5
tp118
a(S'tr_ll'
I0
tp119
a(S'w'
I713
tp120
a(S'p1_tl'
I103
tp121
a(S'w'
I1
tp122
a(S'p1_ll'
I1
tp123
a(S'p1_th'
I1
tp124
a(S'w'
I9
tp125
a(S'p2_tl'
I13
tp126
a(S'p2_ll'
I1
tp127
a(S'p2_th'
I1
tp128
a(S'w'
I5
tp129
a(S'tr_ll'
I0
tp130
a(S'w'
I719
tp131
a(S'w'
I9
tp132
a(S'w'
I5
tp133
a(S'tr_ll'
I0
tp134
a(S'w'
I720
tp135
a(S'w'
I9
tp136
a(S'w'
I5
tp137
a(S'tr_ll'
I0
tp138
a(S'w'
I720
tp139
a(S'w'
I9
tp140
a(S'w'
I4
tp141
a(S'tr_ll'
I0
tp142
a(S'w'
I726
tp143
a(S'p1_tl'
I0
tp144
a(S'w'
I1
tp145
a(S'p1_ll'
I0
tp146
a(S'p1_th'
I0
tp147
a(S'w'
I18
tp148
a(S'p2_tl'
I0
tp149
a(S'p2_ll'
I0
tp150
a(S'p2_th'
I0
tp151
a(S'w'
I4
tp152
a(S'tr_ll'
I0
tp153
a(S'w'
I702
tp154
a(S'p1_vo'
I13
tp155
a(S'w'
I3
tp156
a(S'p1_tl'
I120
tp157
a(S'w'
I1
tp158
a(S'p1_ll'
I1
tp159
a(S'w'
I6
tp160
a(S'p2_vo'
I13
tp161
a(S'w'
I3
tp162
a(S'p2_tl'
I46
tp163
a(S'p2_ll'
I1
tp164
a(S'p2_th'
I1
tp165
a(S'w'
I5
tp166
a(S'tr_ll'
I0
tp167
a(S'w'
I719
tp168
a(S'w'
I9
tp169
a(S'w'
I5
tp170
a(S'tr_ll'
I0
tp171
a(S'w'
I720
tp172
a(S'w'
I9
tp173
a(S'w'
I5
tp174
a(S'tr_ll'
I0
tp175
a(S'w'
I720
tp176
a(S'w'
I9
tp177
a(S'w'
I4
tp178
a(S'tr_ll'
I0
tp179
a(S'w'
I722
tp180
a(S'p1_tl'
I0
tp181
a(S'p1_ll'
I0
tp182
a(S'w'
I14
tp183
a(S'p2_tl'
I0
tp184
a(S'p2_ll'
I0
tp185
a(S'p2_th'
I0
tp186
a(S'w'
I5
tp187
a(S'tr_ll'
I0
tp188
a(S'w'
I713
tp189
a(S'p1_tl'
I201
tp190
a(S'w'
I1
tp191
a(S'p1_ll'
I1
tp192
a(S'w'
I9
tp193
a(S'p2_tl'
I240
tp194
a(S'p2_ll'
I1
tp195
a(S'w'
I5
tp196
a(S'tr_ll'
I0
tp197
a(S'w'
I719
tp198
a(S'w'
I9
tp199
a(S'w'
I5
tp200
a(S'tr_ll'
I0
tp201
a(S'w'
I720
tp202
a(S'w'
I9
tp203
a(S'w'
I5
tp204
a(S'tr_ll'
I0
tp205
a(S'w'
I720
tp206
a(S'w'
I9
tp207
a(S'w'
I5
tp208
a(S'tr_ll'
I0
tp209
a(S'w'
I721
tp210
a(S'p1_tl'
I0
tp211
a(S'p1_ll'
I0
tp212
a(S'w'
I14
tp213
a(S'p2_tl'
I0
tp214
a(S'p2_ll'
I0
tp215
a(S'w'
I5
tp216
a(S'tr_ll'
I0
tp217
a(S'w'
I713
tp218
a(S'p1_tl'
I46
tp219
a(S'w'
I1
tp220
a(S'p1_ll'
I1
tp221
a(S'p1_th'
I1
tp222
a(S'w'
I9
tp223
a(S'p2_tl'
I103
tp224
a(S'p2_ll'
I1
tp225
a(S'p2_th'
I1
tp226
a(S'w'
I5
tp227
a(S'tr_ll'
I0
tp228
a(S'w'
I719
tp229
a(S'w'
I9
tp230
a(S'w'
I5
tp231
a(S'tr_ll'
I0
tp232
a(S'w'
I720
tp233
a(S'w'
I9
tp234
a(S'w'
I5
tp235
a(S'tr_ll'
I0
tp236
a(S'w'
I720
tp237
a(S'w'
I9
tp238
a(S'w'
I5
tp239
a(S'tr_ll'
I0
tp240
a(S'w'
I721
tp241
a(S'p1_tl'
I0
tp242
a(S'p1_ll'
I0
tp243
a(S'p1_th'
I0
tp244
a(S'w'
I14
tp245
a(S'p2_tl'
I0
tp246
a(S'p2_ll'
I0
tp247
a(S'p2_th'
I0
tp248
a(S'w'
I5
tp249
a(S'tr_ll'
I0
tp250
a(S'w'
I713
tp251
a(S'p1_tl'
I103
tp252
a(S'w'
I1
tp253
a(S'p1_ll'
I1
tp254
a(S'p1_th'
I1
tp255
a(S'w'
I9
tp256
a(S'p2_tl'
I13
tp257
a(S'p2_ll'
I1
tp258
a(S'p2_th'
I1
tp259
a(S'w'
I5
tp260
a(S'tr_ll'
I0
tp261
a(S'w'
I719
tp262
a(S'w'
I9
tp263
a(S'w'
I5
tp264
a(S'tr_ll'
I0
tp265
a(S'w'
I720
tp266
a(S'w'
I9
tp267
a(S'w'
I5
tp268
a(S'tr_ll'
I0
tp269
a(S'w'
I720
tp270
a(S'w'
I9
tp271
a(S'w'
I5
tp272
a(S'tr_ll'
I0
tp273
a(S'w'
I725
tp274
a(S'p1_tl'
I0
tp275
a(S'w'
I1
tp276
a(S'p1_ll'
I0
tp277
a(S'p1_th'
I0
tp278
a(S'w'
I18
tp279
a(S'p2_tl'
I0
tp280
a(S'p2_ll'
I0
tp281
a(S'p2_th'
I0
tp282
a(S'w'
I5
tp283
a(S'tr_ll'
I0
tp284
a(S'w'
I701
tp285
a(S'p1_vo'
I11
tp286
a(S'w'
I3
tp287
a(S'p1_tl'
I120
tp288
a(S'w'
I1
tp289
a(S'p1_ll'
I1
tp290
a(S'w'
I6
tp291
a(S'p2_vo'
I11
tp292
a(S'w'
I3
tp293
a(S'p2_tl'
I46
tp294
a(S'p2_ll'
I1
tp295
a(S'p2_th'
I1
tp296
a(S'w'
I5
tp297
a(S'tr_ll'
I0
tp298
a(S'w'
I719
tp299
a(S'w'
I9
tp300
a(S'w'
I5
tp301
a(S'tr_ll'
I0
tp302
a(S'w'
I720
tp303
a(S'w'
I9
tp304
a(S'w'
I5
tp305
a(S'tr_ll'
I0
tp306
a(S'w'
I720
tp307
a(S'w'
I9
tp308
a(S'w'
I5
tp309
a(S'tr_ll'
I0
tp310
a(S'w'
I721
tp311
a(S'p1_tl'
I0
tp312
a(S'p1_ll'
I0
tp313
a(S'w'
I14
tp314
a(S'p2_tl'
I0
tp315
a(S'p2_ll'
I0
tp316
a(S'p2_th'
I0
tp317
a(S'w'
I5
tp318
a(S'tr_ll'
I0
tp319
a(S'w'
I713
tp320
a(S'p1_tl'
I201
tp321
a(S'w'
I1
tp322
a(S'p1_ll'
I1
tp323
a(S'w'
I9
tp324
a(S'p2_tl'
I240
tp325
a(S'p2_ll'
I1
tp326
a(S'w'
I5
tp327
a(S'tr_ll'
I0
tp328
a(S'w'
I719
tp329
a(S'w'
I9
tp330
a(S'w'
I5
tp331
a(S'tr_ll'
I0
tp332
a(S'w'
I720
tp333
a(S'w'
I9
tp334
a(S'w'
I5
tp335
a(S'tr_ll'
I0
tp336
a(S'w'
I720
tp337
a(S'w'
I9
tp338
a(S'w'
I5
tp339
a(S'tr_ll'
I0
tp340
a(S'w'
I721
tp341
a(S'p1_tl'
I0
tp342
a(S'p1_ll'
I0
tp343
a(S'w'
I14
tp344
a(S'p2_tl'
I0
tp345
a(S'p2_ll'
I0
tp346
a(S'w'
I5
tp347
a(S'tr_ll'
I0
tp348
a(S'w'
I713
tp349
a(S'p1_tl'
I46
tp350
a(S'w'
I1
tp351
a(S'p1_ll'
I1
tp352
a(S'p1_th'
I1
tp353
a(S'w'
I9
tp354
a(S'p2_tl'
I103
tp355
a(S'p2_ll'
I1
tp356
a(S'p2_th'
I1
tp357
a(S'w'
I5
tp358
a(S'tr_ll'
I0
tp359
a(S'w'
I719
tp360
a(S'w'
I9
tp361
a(S'w'
I5
tp362
a(S'tr_ll'
I0
tp363
a(S'w'
I720
tp364
a(S'w'
I9
tp365
a(S'w'
I5
tp366
a(S'tr_ll'
I0
tp367
a(S'w'
I720
tp368
a(S'w'
I9
tp369
a(S'w'
I5
tp370
a(S'tr_ll'
I0
tp371
a(S'w'
I721
tp372
a(S'p1_tl'
I0
tp373
a(S'p1_ll'
I0
tp374
a(S'p1_th'
I0
tp375
a(S'w'
I14
tp376
a(S'p2_tl'
I0
tp377
a(S'p2_ll'
I0
tp378
a(S'p2_th'
I0
tp379
a(S'w'
I5
tp380
a(S'tr_ll'
I0
tp381
a(S'w'
I713
tp382
a(S'p1_tl'
I103
tp383
a(S'w'
I1
tp384
a(S'p1_ll'
I1
tp385
a(S'p1_th'
I1
tp386
a(S'w'
I9
tp387
a(S'p2_tl'
I13
tp388
a(S'p2_ll'
I1
tp389
a(S'p2_th'
I1
tp390
a(S'w'
I5
tp391
a(S'tr_ll'
I0
tp392
a(S'w'
I719
tp393
a(S'w'
I9
tp394
a(S'w'
I5
tp395
a(S'tr_ll'
I0
tp396
a(S'w'
I720
tp397
a(S'w'
I9
tp398
a(S'w'
I5
tp399
a(S'tr_ll'
I0
tp400
a(S'w'
I720
tp401
a(S'w'
I9
tp402
a(S'w'
I5
tp403
a(S'tr_ll'
I0
tp404
a(S'w'
I725
tp405
a(S'p1_tl'
I0
tp406
a(S'w'
I1
tp407
a(S'p1_ll'
I0
tp408
a(S'p1_th'
I0
tp409
a(S'w'
I18
tp410
a(S'p2_tl'
I0
tp411
a(S'p2_ll'
I0
tp412
a(S'p2_th'
I0
tp413
a(S'w'
I5
tp414
a(S'tr_ll'
I0
tp415
a(S'w'
I701
tp416
a(S'p1_vo'
I9
tp417
a(S'w'
I3
tp418
a(S'p1_tl'
I120
tp419
a(S'w'
I1
tp420
a(S'p1_ll'
I1
tp421
a(S'w'
I6
tp422
a(S'p2_vo'
I9
tp423
a(S'w'
I3
tp424
a(S'p2_tl'
I46
tp425
a(S'p2_ll'
I1
tp426
a(S'p2_th'
I1
tp427
a(S'w'
I5
tp428
a(S'tr_ll'
I0
tp429
a(S'w'
I719
tp430
a(S'w'
I9
tp431
a(S'w'
I5
tp432
a(S'tr_ll'
I0
tp433
a(S'w'
I720
tp434
a(S'w'
I9
tp435
a(S'w'
I5
tp436
a(S'tr_ll'
I0
tp437
a(S'w'
I720
tp438
a(S'w'
I9
tp439
a(S'w'
I5
tp440
a(S'tr_ll'
I0
tp441
a(S'w'
I721
tp442
a(S'p1_tl'
I0
tp443
a(S'p1_ll'
I0
tp444
a(S'w'
I14
tp445
a(S'p2_tl'
I0
tp446
a(S'p2_ll'
I0
tp447
a(S'p2_th'
I0
tp448
a(S'w'
I5
tp449
a(S'tr_ll'
I0
tp450
a(S'w'
I713
tp451
a(S'p1_tl'
I201
tp452
a(S'w'
I1
tp453
a(S'p1_ll'
I1
tp454
a(S'w'
I9
tp455
a(S'p2_tl'
I240
tp456
a(S'p2_ll'
I1
tp457
a(S'w'
I5
tp458
a(S'tr_ll'
I0
tp459
a(S'w'
I719
tp460
a(S'w'
I9
tp461
a(S'w'
I5
tp462
a(S'tr_ll'
I0
tp463
a(S'w'
I720
tp464
a(S'w'
I9
tp465
a(S'w'
I5
tp466
a(S'tr_ll'
I0
tp467
a(S'w'
I720
tp468
a(S'w'
I9
tp469
a(S'w'
I5
tp470
a(S'tr_ll'
I0
tp471
a(S'w'
I721
tp472
a(S'p1_tl'
I0
tp473
a(S'p1_ll'
I0
tp474
a(S'w'
I14
tp475
a(S'p2_tl'
I0
tp476
a(S'p2_ll'
I0
tp477
a(S'w'
I5
tp478
a(S'tr_ll'
I0
tp479
a(S'w'
I713
tp480
a(S'p1_tl'
I46
tp481
a(S'w'
I1
tp482
a(S'p1_ll'
I1
tp483
a(S'p1_th'
I1
tp484
a(S'w'
I9
tp485
a(S'p2_tl'
I103
tp486
a(S'p2_ll'
I1
tp487
a(S'p2_th'
I1
tp488
a(S'w'
I5
tp489
a(S'tr_ll'
I0
tp490
a(S'w'
I719
tp491
a(S'w'
I9
tp492
a(S'w'
I5
tp493
a(S'tr_ll'
I0
tp494
a(S'w'
I720
tp495
a(S'w'
I9
tp496
a(S'w'
I5
tp497
a(S'tr_ll'
I0
tp498
a(S'w'
I720
tp499
a(S'w'
I9
tp500
a(S'w'
I5
tp501
a(S'tr_ll'
I0
tp502
a(S'w'
I721
tp503
a(S'p1_tl'
I0
tp504
a(S'p1_ll'
I0
tp505
a(S'p1_th'
I0
tp506
a(S'w'
I14
tp507
a(S'p2_tl'
I0
tp508
a(S'p2_ll'
I0
tp509
a(S'p2_th'
I0
tp510
a(S'w'
I5
tp511
a(S'tr_ll'
I0
tp512
a(S'w'
I713
tp513
a(S'p1_tl'
I103
tp514
a(S'w'
I1
tp515
a(S'p1_ll'
I1
tp516
a(S'p1_th'
I1
tp517
a(S'w'
I9
tp518
a(S'p2_tl'
I13
tp519
a(S'p2_ll'
I1
tp520
a(S'p2_th'
I1
tp521
a(S'w'
I5
tp522
a(S'tr_ll'
I0
tp523
a(S'w'
I719
tp524
a(S'w'
I9
tp525
a(S'w'
I5
tp526
a(S'tr_ll'
I0
tp527
a(S'w'
I720
tp528
a(S'w'
I9
tp529
a(S'w'
I5
tp530
a(S'tr_ll'
I0
tp531
a(S'w'
I720
tp532
a(S'w'
I9
tp533
a(S'w'
I5
tp534
a(S'tr_ll'
I0
tp535
a(S'w'
I725
tp536
a(S'p1_tl'
I0
tp537
a(S'w'
I1
tp538
a(S'p1_ll'
I0
tp539
a(S'p1_th'
I0
tp540
a(S'w'
I18
tp541
a(S'p2_tl'
I0
tp542
a(S'p2_ll'
I0
tp543
a(S'p2_th'
I0
tp544
a(S'w'
I5
tp545
a(S'tr_ll'
I0
tp546
a(S'w'
I701
tp547
a(S'p1_vo'
I7
tp548
a(S'w'
I3
tp549
a(S'p1_tl'
I120
tp550
a(S'w'
I1
tp551
a(S'p1_ll'
I1
tp552
a(S'w'
I6
tp553
a(S'p2_vo'
I7
tp554
a(S'w'
I3
tp555
a(S'p2_tl'
I46
tp556
a(S'p2_ll'
I1
tp557
a(S'p2_th'
I1
tp558
a(S'w'
I5
tp559
a(S'tr_ll'
I0
tp560
a(S'w'
I719
tp561
a(S'w'
I9
tp562
a(S'w'
I5
tp563
a(S'tr_ll'
I0
tp564
a(S'w'
I720
tp565
a(S'w'
I9
tp566
a(S'w'
I5
tp567
a(S'tr_ll'
I0
tp568
a(S'w'
I720
tp569
a(S'w'
I9
tp570
a(S'w'
I5
tp571
a(S'tr_ll'
I0
tp572
a(S'w'
I721
tp573
a(S'p1_tl'
I0
tp574
a(S'p1_ll'
I0
tp575
a(S'w'
I14
tp576
a(S'p2_tl'
I0
tp577
a(S'p2_ll'
I0
tp578
a(S'p2_th'
I0
tp579
a(S'w'
I5
tp580
a(S'tr_ll'
I0
tp581
a(S'w'
I713
tp582
a(S'p1_tl'
I201
tp583
a(S'w'
I1
tp584
a(S'p1_ll'
I1
tp585
a(S'w'
I9
tp586
a(S'p2_tl'
I240
tp587
a(S'p2_ll'
I1
tp588
a(S'w'
I5
tp589
a(S'tr_ll'
I0
tp590
a(S'w'
I719
tp591
a(S'w'
I9
tp592
a(S'w'
I5
tp593
a(S'tr_ll'
I0
tp594
a(S'w'
I720
tp595
a(S'w'
I9
tp596
a(S'w'
I5
tp597
a(S'tr_ll'
I0
tp598
a(S'w'
I720
tp599
a(S'w'
I9
tp600
a(S'w'
I5
tp601
a(S'tr_ll'
I0
tp602
a(S'w'
I721
tp603
a(S'p1_tl'
I0
tp604
a(S'p1_ll'
I0
tp605
a(S'w'
I14
tp606
a(S'p2_tl'
I0
tp607
a(S'p2_ll'
I0
tp608
a(S'w'
I5
tp609
a(S'tr_ll'
I0
tp610
a(S'w'
I713
tp611
a(S'p1_tl'
I46
tp612
a(S'w'
I1
tp613
a(S'p1_ll'
I1
tp614
a(S'p1_th'
I1
tp615
a(S'w'
I9
tp616
a(S'p2_tl'
I103
tp617
a(S'p2_ll'
I1
tp618
a(S'p2_th'
I1
tp619
a(S'w'
I5
tp620
a(S'tr_ll'
I0
tp621
a(S'w'
I719
tp622
a(S'w'
I9
tp623
a(S'w'
I5
tp624
a(S'tr_ll'
I0
tp625
a(S'w'
I720
tp626
a(S'w'
I9
tp627
a(S'w'
I5
tp628
a(S'tr_ll'
I0
tp629
a(S'w'
I720
tp630
a(S'w'
I9
tp631
a(S'w'
I5
tp632
a(S'tr_ll'
I0
tp633
a(S'w'
I721
tp634
a(S'p1_tl'
I0
tp635
a(S'p1_ll'
I0
tp636
a(S'p1_th'
I0
tp637
a(S'w'
I14
tp638
a(S'p2_tl'
I0
tp639
a(S'p2_ll'
I0
tp640
a(S'p2_th'
I0
tp641
a(S'w'
I5
tp642
a(S'tr_ll'
I0
tp643
a(S'w'
I713
tp644
a(S'p1_tl'
I103
tp645
a(S'w'
I1
tp646
a(S'p1_ll'
I1
tp647
a(S'p1_th'
I1
tp648
a(S'w'
I9
tp649
a(S'p2_tl'
I13
tp650
a(S'p2_ll'
I1
tp651
a(S'p2_th'
I1
tp652
a(S'w'
I5
tp653
a(S'tr_ll'
I0
tp654
a(S'w'
I719
tp655
a(S'w'
I9
tp656
a(S'w'
I5
tp657
a(S'tr_ll'
I0
tp658
a(S'w'
I720
tp659
a(S'w'
I9
tp660
a(S'w'
I5
tp661
a(S'tr_ll'
I0
tp662
a(S'w'
I720
tp663
a(S'w'
I9
tp664
a(S'w'
I5
tp665
a(S'tr_ll'
I0
tp666
a(S'w'
I726
tp667
a(S'p1_tl'
I0
tp668
a(S'p1_ll'
I0
tp669
a(S'p1_th'
I0
tp670
a(S'w'
I18
tp671
a(S'p2_tl'
I0
tp672
a(S'p2_ll'
I0
tp673
a(S'p2_th'
I0
tp674
a(S'w'
I5
tp675
a(S'tr_ll'
I0
tp676
a(S'w'
I701
tp677
a(S'p1_vo'
I4
tp678
a(S'w'
I3
tp679
a(S'p1_tl'
I120
tp680
a(S'w'
I1
tp681
a(S'p1_ll'
I1
tp682
a(S'w'
I6
tp683
a(S'p2_vo'
I4
tp684
a(S'w'
I3
tp685
a(S'p2_tl'
I46
tp686
a(S'p2_ll'
I1
tp687
a(S'p2_th'
I1
tp688
a(S'w'
I5
tp689
a(S'tr_ll'
I0
tp690
a(S'w'
I719
tp691
a(S'w'
I9
tp692
a(S'w'
I5
tp693
a(S'tr_ll'
I0
tp694
a(S'w'
I720
tp695
a(S'w'
I9
tp696
a(S'w'
I5
tp697
a(S'tr_ll'
I0
tp698
a(S'w'
I720
tp699
a(S'w'
I9
tp700
a(S'w'
I5
tp701
a(S'tr_ll'
I0
tp702
a(S'w'
I721
tp703
a(S'p1_tl'
I0
tp704
a(S'p1_ll'
I0
tp705
a(S'w'
I14
tp706
a(S'p2_tl'
I0
tp707
a(S'w'
I1
tp708
a(S'p2_ll'
I0
tp709
a(S'p2_th'
I0
tp710
a(S'w'
I4
tp711
a(S'tr_ll'
I0
tp712
a(S'w'
I713
tp713
a(S'p1_tl'
I201
tp714
a(S'w'
I1
tp715
a(S'p1_ll'
I1
tp716
a(S'w'
I9
tp717
a(S'p2_tl'
I240
tp718
a(S'p2_ll'
I1
tp719
a(S'w'
I5
tp720
a(S'tr_ll'
I0
tp721
a(S'w'
I719
tp722
a(S'w'
I9
tp723
a(S'w'
I5
tp724
a(S'tr_ll'
I0
tp725
a(S'w'
I720
tp726
a(S'w'
I9
tp727
a(S'w'
I5
tp728
a(S'tr_ll'
I0
tp729
a(S'w'
I720
tp730
a(S'w'
I9
tp731
a(S'w'
I5
tp732
a(S'tr_ll'
I0
tp733
a(S'w'
I721
tp734
a(S'p1_tl'
I0
tp735
a(S'p1_ll'
I0
tp736
a(S'w'
I14
tp737
a(S'p2_tl'
I0
tp738
a(S'p2_ll'
I0
tp739
a(S'w'
I5
tp740
a(S'tr_ll'
I0
tp741
a(S'w'
I713
tp742
a(S'p1_tl'
I46
tp743
a(S'w'
I1
tp744
a(S'p1_ll'
I1
tp745
a(S'p1_th'
I1
tp746
a(S'w'
I9
tp747
a(S'p2_tl'
I103
tp748
a(S'p2_ll'
I1
tp749
a(S'p2_th'
I1
tp750
a(S'w'
I5
tp751
a(S'tr_ll'
I0
tp752
a(S'w'
I719
tp753
a(S'w'
I9
tp754
a(S'w'
I5
tp755
a(S'tr_ll'
I0
tp756
a(S'w'
I720
tp757
a(S'w'
I9
tp758
a(S'w'
I5
tp759
a(S'tr_ll'
I0
tp760
a(S'w'
I720
tp761
a(S'w'
I9
tp762
a(S'w'
I5
tp763
a(S'tr_ll'
I0
tp764
a(S'w'
I721
tp765
a(S'p1_tl'
I0
tp766
a(S'p1_ll'
I0
tp767
a(S'p1_th'
I0
tp768
a(S'w'
I14
tp769
a(S'p2_tl'
I0
tp770
a(S'w'
I1
tp771
a(S'p2_ll'
I0
tp772
a(S'p2_th'
I0
tp773
a(S'w'
I4
tp774
a(S'tr_ll'
I0
tp775
a(S'w'
I713
tp776
a(S'p1_tl'
I103
tp777
a(S'w'
I1
tp778
a(S'p1_ll'
I1
tp779
a(S'p1_th'
I1
tp780
a(S'w'
I9
tp781
a(S'p2_tl'
I13
tp782
a(S'p2_ll'
I1
tp783
a(S'p2_th'
I1
tp784
a(S'w'
I5
tp785
a(S'tr_ll'
I0
tp786
a(S'w'
I719
tp787
a(S'w'
I9
tp788
a(S'w'
I5
tp789
a(S'tr_ll'
I0
tp790
a(S'w'
I720
tp791
a(S'w'
I9
tp792
a(S'w'
I5
tp793
a(S'tr_ll'
I0
tp794
a(S'w'
I720
tp795
a(S'w'
I9
tp796
a(S'w'
I5
tp797
a(S'tr_ll'
I0
tp798
a(S'w'
I726
tp799
a(S'p1_tl'
I0
tp800
a(S'p1_ll'
I0
tp801
a(S'p1_th'
I0
tp802
a(S'w'
I18
tp803
a(S'p2_tl'
I0
tp804
a(S'p2_ll'
I0
tp805
a(S'p2_th'
I0
tp806
a(S'w'
I5
tp807
a(S'tr_ll'
I0
tp808
a(S'w'
I701
tp809
a(S'p1_vo'
I2
tp810
a(S'w'
I3
tp811
a(S'p1_tl'
I120
tp812
a(S'w'
I1
tp813
a(S'p1_ll'
I1
tp814
a(S'w'
I6
tp815
a(S'p2_vo'
I2
tp816
a(S'w'
I3
tp817
a(S'p2_tl'
I46
tp818
a(S'p2_ll'
I1
tp819
a(S'p2_th'
I1
tp820
a(S'w'
I5
tp821
a(S'tr_ll'
I0
tp822
a(S'w'
I719
tp823
a(S'w'
I9
tp824
a(S'w'
I5
tp825
a(S'tr_ll'
I0
tp826
a(S'w'
I720
tp827
a(S'w'
I9
tp828
a(S'w'
I5
tp829
a(S'tr_ll'
I0
tp830
a(S'w'
I720
tp831
a(S'w'
I9
tp832
a(S'w'
I5
tp833
a(S'tr_ll'
I0
tp834
a(S'w'
I721
tp835
a(S'p1_tl'
I0
tp836
a(S'p1_ll'
I0
tp837
a(S'w'
I14
tp838
a(S'p2_tl'
I0
tp839
a(S'w'
I1
tp840
a(S'p2_ll'
I0
tp841
a(S'p2_th'
I0
tp842
a(S'w'
I4
tp843
a(S'tr_ll'
I0
tp844
a(S'w'
I713
tp845
a(S'p1_tl'
I201
tp846
a(S'w'
I1
tp847
a(S'p1_ll'
I1
tp848
a(S'w'
I9
tp849
a(S'p2_tl'
I240
tp850
a(S'p2_ll'
I1
tp851
a(S'w'
I5
tp852
a(S'tr_ll'
I0
tp853
a(S'w'
I719
tp854
a(S'w'
I9
tp855
a(S'w'
I5
tp856
a(S'tr_ll'
I0
tp857
a(S'w'
I720
tp858
a(S'w'
I9
tp859
a(S'w'
I5
tp860
a(S'tr_ll'
I0
tp861
a(S'w'
I720
tp862
a(S'w'
I9
tp863
a(S'w'
I5
tp864
a(S'tr_ll'
I0
tp865
a(S'w'
I721
tp866
a(S'p1_tl'
I0
tp867
a(S'p1_ll'
I0
tp868
a(S'w'
I14
tp869
a(S'p2_tl'
I0
tp870
a(S'w'
I1
tp871
a(S'p2_ll'
I0
tp872
a(S'w'
I4
tp873
a(S'tr_ll'
I0
tp874
a(S'w'
I713
tp875
a(S'p1_tl'
I46
tp876
a(S'w'
I1
tp877
a(S'p1_ll'
I1
tp878
a(S'p1_th'
I1
tp879
a(S'w'
I9
tp880
a(S'p2_tl'
I103
tp881
a(S'p2_ll'
I1
tp882
a(S'p2_th'
I1
tp883
a(S'w'
I5
tp884
a(S'tr_ll'
I0
tp885
a(S'w'
I719
tp886
a(S'w'
I9
tp887
a(S'w'
I5
tp888
a(S'tr_ll'
I0
tp889
a(S'w'
I720
tp890
a(S'w'
I9
tp891
a(S'w'
I5
tp892
a(S'tr_ll'
I0
tp893
a(S'w'
I720
tp894
a(S'w'
I9
tp895
a(S'w'
I5
tp896
a(S'tr_ll'
I0
tp897
a(S'w'
I721
tp898
a(S'p1_tl'
I0
tp899
a(S'p1_ll'
I0
tp900
a(S'p1_th'
I0
tp901
a(S'w'
I14
tp902
a(S'p2_tl'
I0
tp903
a(S'w'
I1
tp904
a(S'p2_ll'
I0
tp905
a(S'p2_th'
I0
tp906
a(S'w'
I4
tp907
a(S'tr_ll'
I0
tp908
a(S'w'
I713
tp909
a(S'p1_tl'
I103
tp910
a(S'w'
I1
tp911
a(S'p1_ll'
I1
tp912
a(S'p1_th'
I1
tp913
a(S'w'
I9
tp914
a(S'p2_tl'
I13
tp915
a(S'p2_ll'
I1
tp916
a(S'p2_th'
I1
tp917
a(S'w'
I5
tp918
a(S'tr_ll'
I0
tp919
a(S'w'
I719
tp920
a(S'w'
I9
tp921
a(S'w'
I5
tp922
a(S'tr_ll'
I0
tp923
a(S'w'
I720
tp924
a(S'w'
I9
tp925
a(S'w'
I5
tp926
a(S'tr_ll'
I0
tp927
a(S'w'
I720
tp928
a(S'w'
I9
tp929
a(S'w'
I5
tp930
a(S'tr_ll'
I0
tp931
a(S'w'
I719
tp932
a(S'p1_tl'
I0
tp933
a(S'p1_ll'
I0
tp934
a(S'p1_th'
I0
tp935
a(S'w'
I2
tp936
a(S'p1_ll'
I0
tp937
a(S'w'
I7
tp938
a(S'p2_tl'
I0
tp939
a(S'p2_ll'
I0
tp940
a(S'p2_th'
I0
tp941
a(S'w'
I2
tp942
a(S'p2_ll'
I0
tp943
a(S'w'
I4
tp944
a(S'tr_ll'
I0
tp945
a(S'w'
I715
tp946
a(S'p1_ll'
I0
tp947
a(S'w'
I4
tp948
a(S'p2_ll'
I0
tp949
a(S'w'
I4
tp950
a(S'tr_ll'
I0
tp951
a(S'w'
I726
tp952
a(S'p1_ll'
I0
tp953
a.