(lp1
(S'clock'
p2
I1789772
tp3
a(S'p1_ll'
I0
tp4
a(S'p2_ll'
I0
tp5
a(S'tr_ll'
I0
tp6
a(S'ch_no'
I0
tp7
a(S'ch_tr'
I1
tp8
a(S'ch_p2'
I1
tp9
a(S'ch_p1'
I1
tp10
a(S'fc_mo'
I0
tp11
a(S'p1_ll'
I0
tp12
a(S'w'
I46
tp13
a(S'p2_ll'
I0
tp14
a(S'w'
I33
tp15
a(S'tr_ll'
I0
tp16
a(S'w'
I564
tp17
a(S'p1_lh'
I1
tp18
a(S'p1_cv'
I1
tp19
a(S'p1_vo'
I11
tp20
a(S'w'
I3
tp21
a(S'p1_tl'
I142
tp22
a(S'w'
I1
tp23
a(S'p1_ll'
I1
tp24
a(S'w'
I8
tp25
a(S'p2_lh'
I1
tp26
a(S'p2_cv'
I1
tp27
a(S'p2_vo'
I11
tp28
a(S'w'
I4
tp29
a(S'p2_tl'
I169
tp30
a(S'p2_ll'
I1
tp31
a(S'w'
I8
tp32
a(S'tr_lh'
I1
tp33
a(S'tr_lr'
I1
tp34
a(S'w'
I3
tp35
a(S'tr_tl'
I106
tp36
a(S'w'
I1
tp37
a(S'tr_ll'
I1
tp38
a(S'w'
I709
tp39
a(S'w'
I12
tp40
a(S'w'
I722
tp41
a(S'w'
I12
tp42
a(S'w'
I722
tp43
a(S'w'
I12
tp44
a(S'w'
I726
tp45
a(S'p1_tl'
I0
tp46
a(S'p1_ll'
I0
tp47
a(S'w'
I17
tp48
a(S'p2_tl'
I0
tp49
a(S'p2_ll'
I0
tp50
a(S'w'
I17
tp51
a(S'tr_tl'
I0
tp52
a(S'tr_ll'
I0
tp53
a(S'w'
I7305
tp54
a(S'p1_ll'
I0
tp55
a(S'w'
I18
tp56
a(S'p2_ll'
I0
tp57
a(S'w'
I18
tp58
a(S'tr_ll'
I0
tp59
a(S'w'
I692
tp60
a(S'p1_tl'
I142
tp61
a(S'w'
I1
tp62
a(S'p1_ll'
I1
tp63
a(S'w'
I12
tp64
a(S'p2_tl'
I169
tp65
a(S'p2_ll'
I1
tp66
a(S'w'
I11
tp67
a(S'tr_tl'
I106
tp68
a(S'w'
I1
tp69
a(S'tr_ll'
I1
tp70
a(S'w'
I709
tp71
a(S'w'
I12
tp72
a(S'w'
I722
tp73
a(S'w'
I12
tp74
a(S'w'
I722
tp75
a(S'w'
I12
tp76
a(S'w'
I727
tp77
a(S'p1_tl'
I0
tp78
a(S'p1_ll'
I0
tp79
a(S'w'
I18
tp80
a(S'p2_tl'
I0
tp81
a(S'p2_ll'
I0
tp82
a(S'w'
I18
tp83
a(S'tr_tl'
I0
tp84
a(S'tr_ll'
I0
tp85
a(S'w'
I692
tp86
a(S'p1_tl'
I142
tp87
a(S'w'
I1
tp88
a(S'p1_ll'
I1
tp89
a(S'w'
I12
tp90
a(S'p2_tl'
I169
tp91
a(S'p2_ll'
I1
tp92
a(S'w'
I11
tp93
a(S'tr_tl'
I106
tp94
a(S'w'
I1
tp95
a(S'tr_ll'
I1
tp96
a(S'w'
I709
tp97
a(S'w'
I12
tp98
a(S'w'
I722
tp99
a(S'w'
I12
tp100
a(S'w'
I722
tp101
a(S'w'
I12
tp102
a(S'w'
I726
tp103
a(S'p1_tl'
I0
tp104
a(S'p1_ll'
I0
tp105
a(S'w'
I17
tp106
a(S'p2_tl'
I0
tp107
a(S'p2_ll'
I0
tp108
a(S'w'
I17
tp109
a(S'tr_tl'
I0
tp110
a(S'tr_ll'
I0
tp111
a(S'w'
I3636
tp112
a(S'p1_ll'
I0
tp113
a(S'w'
I18
tp114
a(S'p2_ll'
I0
tp115
a(S'w'
I18
tp116
a(S'tr_ll'
I0
tp117
a(S'w'
I692
tp118
a(S'p1_tl'
I142
tp119
a(S'w'
I1
tp120
a(S'p1_ll'
I1
tp121
a(S'w'
I12
tp122
a(S'p2_tl'
I169
tp123
a(S'p2_ll'
I1
tp124
a(S'w'
I11
tp125
a(S'tr_tl'
I106
tp126
a(S'w'
I1
tp127
a(S'tr_ll'
I1
tp128
a(S'w'
I709
tp129
a(S'w'
I12
tp130
a(S'w'
I722
tp131
a(S'w'
I12
tp132
a(S'w'
I722
tp133
a(S'w'
I12
tp134
a(S'w'
I727
tp135
a(S'p1_tl'
I0
tp136
a(S'p1_ll'
I0
tp137
a(S'w'
I18
tp138
a(S'p2_tl'
I0
tp139
a(S'p2_ll'
I0
tp140
a(S'w'
I18
tp141
a(S'tr_tl'
I0
tp142
a(S'tr_ll'
I0
tp143
a(S'w'
I692
tp144
a(S'p1_tl'
I142
tp145
a(S'w'
I1
tp146
a(S'p1_ll'
I1
tp147
a(S'w'
I12
tp148
a(S'p2_tl'
I169
tp149
a(S'p2_ll'
I1
tp150
a(S'w'
I11
tp151
a(S'tr_tl'
I106
tp152
a(S'w'
I1
tp153
a(S'tr_ll'
I1
tp154
a(S'w'
I709
tp155
a(S'w'
I12
tp156
a(S'w'
I722
tp157
a(S'w'
I12
tp158
a(S'w'
I722
tp159
a(S'w'
I12
tp160
a(S'w'
I726
tp161
a(S'p1_tl'
I0
tp162
a(S'p1_ll'
I0
tp163
a(S'w'
I17
tp164
a(S'p2_tl'
I0
tp165
a(S'p2_ll'
I0
tp166
a(S'w'
I17
tp167
a(S'tr_tl'
I0
tp168
a(S'tr_ll'
I0
tp169
a(S'w'
I3636
tp170
a(S'p1_ll'
I0
tp171
a(S'w'
I18
tp172
a(S'p2_ll'
I0
tp173
a(S'w'
I18
tp174
a(S'tr_ll'
I0
tp175
a(S'w'
I692
tp176
a(S'p1_tl'
I142
tp177
a(S'w'
I1
tp178
a(S'p1_ll'
I1
tp179
a(S'w'
I12
tp180
a(S'p2_tl'
I169
tp181
a(S'p2_ll'
I1
tp182
a(S'w'
I11
tp183
a(S'tr_tl'
I106
tp184
a(S'w'
I1
tp185
a(S'tr_ll'
I1
tp186
a(S'w'
I709
tp187
a(S'w'
I12
tp188
a(S'w'
I722
tp189
a(S'w'
I12
tp190
a(S'w'
I722
tp191
a(S'w'
I12
tp192
a(S'w'
I727
tp193
a(S'p1_tl'
I0
tp194
a(S'p1_ll'
I0
tp195
a(S'w'
I18
tp196
a(S'p2_tl'
I0
tp197
a(S'p2_ll'
I0
tp198
a(S'w'
I18
tp199
a(S'tr_tl'
I0
tp200
a(S'tr_ll'
I0
tp201
a(S'w'
I692
tp202
a(S'p1_tl'
I160
tp203
a(S'w'
I1
tp204
a(S'p1_ll'
I1
tp205
a(S'w'
I12
tp206
a(S'p2_tl'
I190
tp207
a(S'p2_ll'
I1
tp208
a(S'w'
I11
tp209
a(S'tr_tl'
I120
tp210
a(S'w'
I1
tp211
a(S'tr_ll'
I1
tp212
a(S'w'
I709
tp213
a(S'w'
I12
tp214
a(S'w'
I722
tp215
a(S'w'
I12
tp216
a(S'w'
I722
tp217
a(S'w'
I12
tp218
a(S'w'
I726
tp219
a(S'p1_tl'
I0
tp220
a(S'p1_ll'
I0
tp221
a(S'w'
I17
tp222
a(S'p2_tl'
I0
tp223
a(S'p2_ll'
I0
tp224
a(S'w'
I17
tp225
a(S'tr_tl'
I0
tp226
a(S'tr_ll'
I0
tp227
a(S'w'
I3636
tp228
a(S'w'
I1
tp229
a(S'p1_ll'
I0
tp230
a(S'w'
I17
tp231
a(S'p2_ll'
I0
tp232
a(S'w'
I18
tp233
a(S'tr_ll'
I0
tp234
a(S'w'
I692
tp235
a(S'p1_tl'
I142
tp236
a(S'w'
I1
tp237
a(S'p1_ll'
I1
tp238
a(S'w'
I12
tp239
a(S'p2_tl'
I169
tp240
a(S'p2_ll'
I1
tp241
a(S'w'
I11
tp242
a(S'tr_tl'
I106
tp243
a(S'w'
I1
tp244
a(S'tr_ll'
I1
tp245
a(S'w'
I709
tp246
a(S'w'
I12
tp247
a(S'w'
I722
tp248
a(S'w'
I12
tp249
a(S'w'
I722
tp250
a(S'w'
I12
tp251
a(S'w'
I726
tp252
a(S'p1_tl'
I0
tp253
a(S'p1_ll'
I0
tp254
a(S'w'
I17
tp255
a(S'p2_tl'
I0
tp256
a(S'p2_ll'
I0
tp257
a(S'w'
I17
tp258
a(S'tr_tl'
I0
tp259
a(S'tr_ll'
I0
tp260
a(S'w'
I3636
tp261
a(S'w'
I1
tp262
a(S'p1_ll'
I0
tp263
a(S'w'
I17
tp264
a(S'p2_ll'
I0
tp265
a(S'w'
I18
tp266
a(S'tr_ll'
I0
tp267
a(S'w'
I692
tp268
a(S'p1_tl'
I160
tp269
a(S'w'
I1
tp270
a(S'p1_ll'
I1
tp271
a(S'w'
I12
tp272
a(S'p2_tl'
I190
tp273
a(S'p2_ll'
I1
tp274
a(S'w'
I11
tp275
a(S'tr_tl'
I120
tp276
a(S'w'
I1
tp277
a(S'tr_ll'
I1
tp278
a(S'w'
I709
tp279
a(S'w'
I12
tp280
a(S'w'
I722
tp281
a(S'w'
I12
tp282
a(S'w'
I722
tp283
a(S'w'
I12
tp284
a(S'w'
I726
tp285
a(S'p1_tl'
I0
tp286
a(S'p1_ll'
I0
tp287
a(S'w'
I17
tp288
a(S'p2_tl'
I0
tp289
a(S'p2_ll'
I0
tp290
a(S'w'
I17
tp291
a(S'tr_tl'
I0
tp292
a(S'tr_ll'
I0
tp293
a(S'w'
I3647
tp294
a(S'p1_ll'
I0
tp295
a(S'w'
I29
tp296
a(S'p2_ll'
I0
tp297
a(S'w'
I29
tp298
a(S'tr_ll'
I0
tp299
a(S'w'
I660
tp300
a(S'p1_tl'
I142
tp301
a(S'p1_ll'
I1
tp302
a(S'w'
I12
tp303
a(S'p2_tl'
I169
tp304
a(S'w'
I1
tp305
a(S'p2_ll'
I1
tp306
a(S'w'
I11
tp307
a(S'tr_tl'
I106
tp308
a(S'w'
I1
tp309
a(S'tr_ll'
I1
tp310
a(S'w'
I712
tp311
a(S'p1_tl'
I143
tp312
a(S'w'
I17
tp313
a(S'p2_tl'
I170
tp314
a(S'w'
I15
tp315
a(S'tr_tl'
I107
tp316
a(S'w'
I698
tp317
a(S'w'
I12
tp318
a(S'w'
I726
tp319
a(S'p1_tl'
I142
tp320
a(S'w'
I16
tp321
a(S'p2_tl'
I169
tp322
a(S'w'
I15
tp323
a(S'tr_tl'
I106
tp324
a(S'w'
I699
tp325
a(S'w'
I12
tp326
a(S'w'
I726
tp327
a(S'p1_tl'
I141
tp328
a(S'w'
I17
tp329
a(S'p2_tl'
I168
tp330
a(S'w'
I15
tp331
a(S'tr_tl'
I105
tp332
a(S'w'
I697
tp333
a(S'w'
I13
tp334
a(S'w'
I725
tp335
a(S'p1_tl'
I142
tp336
a(S'w'
I16
tp337
a(S'p2_tl'
I169
tp338
a(S'w'
I15
tp339
a(S'tr_tl'
I106
tp340
a(S'w'
I699
tp341
a(S'w'
I12
tp342
a(S'w'
I726
tp343
a(S'p1_tl'
I143
tp344
a(S'w'
I16
tp345
a(S'p2_tl'
I170
tp346
a(S'w'
I16
tp347
a(S'tr_tl'
I107
tp348
a(S'w'
I698
tp349
a(S'w'
I12
tp350
a(S'w'
I725
tp351
a(S'p1_tl'
I142
tp352
a(S'w'
I16
tp353
a(S'p2_tl'
I169
tp354
a(S'w'
I16
tp355
a(S'tr_tl'
I106
tp356
a(S'w'
I698
tp357
a(S'w'
I12
tp358
a(S'w'
I726
tp359
a(S'p1_tl'
I141
tp360
a(S'w'
I17
tp361
a(S'p2_tl'
I168
tp362
a(S'w'
I16
tp363
a(S'tr_tl'
I105
tp364
a(S'w'
I697
tp365
a(S'w'
I12
tp366
a(S'w'
I725
tp367
a(S'p1_tl'
I142
tp368
a(S'w'
I16
tp369
a(S'p2_tl'
I169
tp370
a(S'w'
I15
tp371
a(S'tr_tl'
I106
tp372
a(S'w'
I699
tp373
a(S'w'
I13
tp374
a(S'w'
I725
tp375
a(S'p1_tl'
I143
tp376
a(S'w'
I17
tp377
a(S'p2_tl'
I170
tp378
a(S'w'
I15
tp379
a(S'tr_tl'
I107
tp380
a(S'w'
I698
tp381
a(S'w'
I12
tp382
a(S'w'
I720
tp383
a(S'p1_tl'
I0
tp384
a(S'p1_ll'
I0
tp385
a(S'w'
I10
tp386
a(S'p2_tl'
I0
tp387
a(S'w'
I1
tp388
a(S'p2_ll'
I0
tp389
a(S'w'
I10
tp390
a(S'tr_tl'
I0
tp391
a(S'tr_ll'
I0
tp392
a(S'w'
I706
tp393
a(S'p1_ll'
I0
tp394
a(S'w'
I4
tp395
a(S'p2_ll'
I0
tp396
a(S'w'
I4
tp397
a(S'tr_ll'
I0
tp398
a(S'w'
I726
tp399
a(S'p1_ll'
I0
tp400
a.