(lp1
(S'clock'
p2
I1789772
tp3
a(S'p1_ll'
I0
tp4
a(S'p2_ll'
I0
tp5
a(S'tr_ll'
I0
tp6
a(S'ch_no'
I0
tp7
a(S'ch_tr'
I1
tp8
a(S'ch_p2'
I1
tp9
a(S'ch_p1'
I1
tp10
a(S'fc_mo'
I0
tp11
a(S'p1_ll'
I0
tp12
a(S'w'
I51
tp13
a(S'p2_ll'
I0
tp14
a(S'w'
I33
tp15
a(S'tr_ll'
I0
tp16
a(S'w'
I568
tp17
a(S'tr_lh'
I1
tp18
a(S'tr_lr'
I1
tp19
a(S'w'
I3
tp20
a(S'tr_tl'
I64
tp21
a(S'w'
I1
tp22
a(S'tr_ll'
I1
tp23
a(S'tr_th'
I1
tp24
a(S'w'
I5871
tp25
a(S'p2_ll'
I0
tp26
a(S'w'
I2197
tp27
a(S'p1_ll'
I0
tp28
a(S'w'
I22
tp29
a(S'tr_tl'
I0
tp30
a(S'w'
I1
tp31
a(S'tr_ll'
I0
tp32
a(S'tr_th'
I0
tp33
a(S'w'
I701
tp34
a(S'p1_lh'
I1
tp35
a(S'p1_cv'
I1
tp36
a(S'p1_vo'
I12
tp37
a(S'w'
I3
tp38
a(S'p1_tl'
I171
tp39
a(S'w'
I1
tp40
a(S'p1_ll'
I1
tp41
a(S'p1_th'
I1
tp42
a(S'w'
I733
tp43
a(S'w'
I734
tp44
a(S'w'
I734
tp45
a(S'w'
I733
tp46
a(S'w'
I734
tp47
a(S'w'
I734
tp48
a(S'w'
I734
tp49
a(S'w'
I734
tp50
a(S'w'
I19
tp51
a(S'p2_ll'
I0
tp52
a(S'w'
I712
tp53
a(S'p1_vo'
I9
tp54
a(S'w'
I3
tp55
a(S'w'
I10
tp56
a(S'p2_lh'
I1
tp57
a(S'p2_cv'
I1
tp58
a(S'p2_vo'
I8
tp59
a(S'w'
I4
tp60
a(S'p2_tl'
I171
tp61
a(S'p2_ll'
I1
tp62
a(S'p2_th'
I1
tp63
a(S'w'
I719
tp64
a(S'w'
I13
tp65
a(S'w'
I727
tp66
a(S'p1_tl'
I0
tp67
a(S'w'
I1
tp68
a(S'p1_ll'
I0
tp69
a(S'p1_th'
I0
tp70
a(S'w'
I12
tp71
a(S'w'
I19
tp72
a(S'tr_ll'
I0
tp73
a(S'w'
I693
tp74
a(S'p1_vo'
I12
tp75
a(S'w'
I3
tp76
a(S'p1_tl'
I64
tp77
a(S'p1_ll'
I1
tp78
a(S'p1_th'
I1
tp79
a(S'w'
I13
tp80
a(S'w'
I12
tp81
a(S'tr_tl'
I83
tp82
a(S'tr_ll'
I1
tp83
a(S'tr_th'
I1
tp84
a(S'w'
I709
tp85
a(S'w'
I13
tp86
a(S'w'
I720
tp87
a(S'w'
I14
tp88
a(S'w'
I720
tp89
a(S'w'
I13
tp90
a(S'w'
I721
tp91
a(S'w'
I13
tp92
a(S'w'
I721
tp93
a(S'w'
I13
tp94
a(S'w'
I721
tp95
a(S'w'
I11
tp96
a(S'p2_vo'
I5
tp97
a(S'w'
I3
tp98
a(S'w'
I719
tp99
a(S'w'
I14
tp100
a(S'w'
I720
tp101
a(S'w'
I20
tp102
a(S'p2_tl'
I0
tp103
a(S'p2_ll'
I0
tp104
a(S'p2_th'
I0
tp105
a(S'w'
I712
tp106
a(S'p1_vo'
I9
tp107
a(S'w'
I3
tp108
a(S'w'
I10
tp109
a(S'p2_vo'
I8
tp110
a(S'w'
I3
tp111
a(S'p2_tl'
I64
tp112
a(S'w'
I1
tp113
a(S'p2_ll'
I1
tp114
a(S'p2_th'
I1
tp115
a(S'w'
I719
tp116
a(S'w'
I13
tp117
a(S'w'
I727
tp118
a(S'p1_tl'
I0
tp119
a(S'p1_ll'
I0
tp120
a(S'p1_th'
I0
tp121
a(S'w'
I13
tp122
a(S'w'
I17
tp123
a(S'tr_tl'
I0
tp124
a(S'tr_ll'
I0
tp125
a(S'tr_th'
I0
tp126
a(S'w'
I694
tp127
a(S'p1_vo'
I12
tp128
a(S'w'
I3
tp129
a(S'p1_tl'
I254
tp130
a(S'w'
I1
tp131
a(S'p1_ll'
I1
tp132
a(S'w'
I13
tp133
a(S'w'
I720
tp134
a(S'w'
I13
tp135
a(S'w'
I721
tp136
a(S'w'
I13
tp137
a(S'w'
I721
tp138
a(S'w'
I13
tp139
a(S'w'
I721
tp140
a(S'w'
I13
tp141
a(S'w'
I720
tp142
a(S'w'
I14
tp143
a(S'w'
I720
tp144
a(S'w'
I11
tp145
a(S'p2_vo'
I5
tp146
a(S'w'
I3
tp147
a(S'w'
I720
tp148
a(S'w'
I13
tp149
a(S'w'
I721
tp150
a(S'w'
I19
tp151
a(S'p2_tl'
I0
tp152
a(S'w'
I1
tp153
a(S'p2_ll'
I0
tp154
a(S'p2_th'
I0
tp155
a(S'w'
I711
tp156
a(S'p1_vo'
I9
tp157
a(S'w'
I4
tp158
a(S'w'
I10
tp159
a(S'p2_vo'
I8
tp160
a(S'w'
I3
tp161
a(S'p2_tl'
I254
tp162
a(S'w'
I1
tp163
a(S'p2_ll'
I1
tp164
a(S'w'
I718
tp165
a(S'w'
I14
tp166
a(S'w'
I727
tp167
a(S'p1_tl'
I0
tp168
a(S'p1_ll'
I0
tp169
a(S'w'
I13
tp170
a(S'w'
I18
tp171
a(S'tr_ll'
I0
tp172
a(S'w'
I693
tp173
a(S'p1_vo'
I12
tp174
a(S'w'
I3
tp175
a(S'p1_tl'
I240
tp176
a(S'w'
I1
tp177
a(S'p1_ll'
I1
tp178
a(S'w'
I13
tp179
a(S'w'
I11
tp180
a(S'tr_tl'
I125
tp181
a(S'tr_ll'
I1
tp182
a(S'tr_th'
I1
tp183
a(S'w'
I709
tp184
a(S'w'
I13
tp185
a(S'w'
I721
tp186
a(S'w'
I13
tp187
a(S'w'
I720
tp188
a(S'w'
I14
tp189
a(S'w'
I720
tp190
a(S'w'
I13
tp191
a(S'w'
I721
tp192
a(S'w'
I13
tp193
a(S'w'
I721
tp194
a(S'w'
I11
tp195
a(S'p2_vo'
I5
tp196
a(S'w'
I3
tp197
a(S'w'
I720
tp198
a(S'w'
I13
tp199
a(S'w'
I720
tp200
a(S'w'
I20
tp201
a(S'p2_tl'
I0
tp202
a(S'p2_ll'
I0
tp203
a(S'w'
I712
tp204
a(S'p1_vo'
I9
tp205
a(S'w'
I3
tp206
a(S'w'
I10
tp207
a(S'p2_vo'
I8
tp208
a(S'w'
I4
tp209
a(S'p2_tl'
I240
tp210
a(S'p2_ll'
I1
tp211
a(S'w'
I719
tp212
a(S'w'
I13
tp213
a(S'w'
I727
tp214
a(S'p1_tl'
I0
tp215
a(S'p1_ll'
I0
tp216
a(S'w'
I13
tp217
a(S'w'
I17
tp218
a(S'tr_tl'
I0
tp219
a(S'w'
I1
tp220
a(S'tr_ll'
I0
tp221
a(S'tr_th'
I0
tp222
a(S'w'
I693
tp223
a(S'p1_vo'
I12
tp224
a(S'w'
I4
tp225
a(S'p1_tl'
I254
tp226
a(S'p1_ll'
I1
tp227
a(S'w'
I13
tp228
a(S'w'
I720
tp229
a(S'w'
I14
tp230
a(S'w'
I720
tp231
a(S'w'
I14
tp232
a(S'w'
I720
tp233
a(S'w'
I13
tp234
a(S'w'
I721
tp235
a(S'w'
I13
tp236
a(S'w'
I721
tp237
a(S'w'
I13
tp238
a(S'w'
I720
tp239
a(S'w'
I11
tp240
a(S'p2_vo'
I5
tp241
a(S'w'
I4
tp242
a(S'w'
I719
tp243
a(S'w'
I13
tp244
a(S'w'
I721
tp245
a(S'w'
I20
tp246
a(S'p2_tl'
I0
tp247
a(S'p2_ll'
I0
tp248
a(S'w'
I712
tp249
a(S'p1_vo'
I9
tp250
a(S'w'
I3
tp251
a(S'w'
I10
tp252
a(S'p2_vo'
I8
tp253
a(S'w'
I3
tp254
a(S'p2_tl'
I254
tp255
a(S'w'
I1
tp256
a(S'p2_ll'
I1
tp257
a(S'w'
I719
tp258
a(S'w'
I13
tp259
a(S'w'
I727
tp260
a(S'p1_tl'
I0
tp261
a(S'p1_ll'
I0
tp262
a(S'w'
I13
tp263
a(S'w'
I18
tp264
a(S'tr_ll'
I0
tp265
a(S'w'
I693
tp266
a(S'p1_vo'
I12
tp267
a(S'w'
I3
tp268
a(S'p1_tl'
I29
tp269
a(S'w'
I1
tp270
a(S'p1_ll'
I1
tp271
a(S'p1_th'
I1
tp272
a(S'w'
I13
tp273
a(S'w'
I11
tp274
a(S'tr_tl'
I171
tp275
a(S'w'
I1
tp276
a(S'tr_ll'
I1
tp277
a(S'tr_th'
I1
tp278
a(S'w'
I708
tp279
a(S'w'
I13
tp280
a(S'w'
I721
tp281
a(S'w'
I13
tp282
a(S'w'
I721
tp283
a(S'w'
I13
tp284
a(S'w'
I721
tp285
a(S'w'
I13
tp286
a(S'w'
I720
tp287
a(S'w'
I14
tp288
a(S'w'
I720
tp289
a(S'w'
I11
tp290
a(S'p2_vo'
I5
tp291
a(S'w'
I3
tp292
a(S'w'
I720
tp293
a(S'w'
I13
tp294
a(S'w'
I721
tp295
a(S'w'
I19
tp296
a(S'p2_tl'
I0
tp297
a(S'p2_ll'
I0
tp298
a(S'w'
I712
tp299
a(S'p1_vo'
I9
tp300
a(S'w'
I4
tp301
a(S'w'
I10
tp302
a(S'p2_vo'
I8
tp303
a(S'w'
I3
tp304
a(S'p2_tl'
I29
tp305
a(S'p2_ll'
I1
tp306
a(S'p2_th'
I1
tp307
a(S'w'
I719
tp308
a(S'w'
I13
tp309
a(S'w'
I727
tp310
a(S'p1_tl'
I0
tp311
a(S'w'
I1
tp312
a(S'p1_ll'
I0
tp313
a(S'p1_th'
I0
tp314
a(S'w'
I13
tp315
a(S'w'
I17
tp316
a(S'tr_tl'
I0
tp317
a(S'tr_ll'
I0
tp318
a(S'tr_th'
I0
tp319
a(S'w'
I694
tp320
a(S'p1_vo'
I12
tp321
a(S'w'
I3
tp322
a(S'p1_tl'
I64
tp323
a(S'w'
I1
tp324
a(S'p1_ll'
I1
tp325
a(S'p1_th'
I1
tp326
a(S'w'
I12
tp327
a(S'w'
I721
tp328
a(S'w'
I13
tp329
a(S'w'
I721
tp330
a(S'w'
I13
tp331
a(S'w'
I720
tp332
a(S'w'
I14
tp333
a(S'w'
I720
tp334
a(S'w'
I13
tp335
a(S'w'
I721
tp336
a(S'w'
I13
tp337
a(S'w'
I721
tp338
a(S'w'
I11
tp339
a(S'p2_vo'
I5
tp340
a(S'w'
I3
tp341
a(S'w'
I720
tp342
a(S'w'
I13
tp343
a(S'w'
I720
tp344
a(S'w'
I20
tp345
a(S'p2_tl'
I0
tp346
a(S'p2_ll'
I0
tp347
a(S'p2_th'
I0
tp348
a(S'w'
I712
tp349
a(S'p1_vo'
I9
tp350
a(S'w'
I3
tp351
a(S'w'
I10
tp352
a(S'p2_vo'
I8
tp353
a(S'w'
I3
tp354
a(S'p2_tl'
I64
tp355
a(S'w'
I1
tp356
a(S'p2_ll'
I1
tp357
a(S'p2_th'
I1
tp358
a(S'w'
I719
tp359
a(S'w'
I13
tp360
a(S'w'
I736
tp361
a(S'p1_tl'
I0
tp362
a(S'p1_ll'
I0
tp363
a(S'p1_th'
I0
tp364
a(S'w'
I13
tp365
a(S'w'
I18
tp366
a(S'tr_ll'
I0
tp367
a(S'w'
I684
tp368
a(S'p1_vo'
I12
tp369
a(S'w'
I4
tp370
a(S'p1_tl'
I190
tp371
a(S'p1_ll'
I1
tp372
a(S'w'
I13
tp373
a(S'w'
I11
tp374
a(S'tr_tl'
I240
tp375
a(S'w'
I1
tp376
a(S'tr_ll'
I1
tp377
a(S'w'
I708
tp378
a(S'w'
I14
tp379
a(S'w'
I720
tp380
a(S'w'
I13
tp381
a(S'w'
I721
tp382
a(S'w'
I13
tp383
a(S'w'
I721
tp384
a(S'w'
I13
tp385
a(S'w'
I721
tp386
a(S'w'
I13
tp387
a(S'w'
I17
tp388
a(S'tr_tl'
I0
tp389
a(S'tr_ll'
I0
tp390
a(S'w'
I703
tp391
a(S'w'
I11
tp392
a(S'p2_vo'
I5
tp393
a(S'w'
I4
tp394
a(S'w'
I719
tp395
a(S'w'
I13
tp396
a(S'w'
I719
tp397
a(S'p1_vo'
I11
tp398
a(S'w'
I3
tp399
a(S'w'
I18
tp400
a(S'p2_tl'
I0
tp401
a(S'w'
I1
tp402
a(S'p2_ll'
I0
tp403
a(S'p2_th'
I0
tp404
a(S'w'
I714
tp405
a(S'w'
I733
tp406
a(S'w'
I734
tp407
a(S'w'
I34
tp408
a(S'p2_ll'
I0
tp409
a(S'w'
I18
tp410
a(S'tr_ll'
I0
tp411
a(S'w'
I682
tp412
a(S'w'
I10
tp413
a(S'p2_vo'
I9
tp414
a(S'w'
I3
tp415
a(S'p2_tl'
I224
tp416
a(S'w'
I1
tp417
a(S'p2_ll'
I1
tp418
a(S'p2_th'
I1
tp419
a(S'w'
I11
tp420
a(S'tr_tl'
I254
tp421
a(S'w'
I1
tp422
a(S'tr_ll'
I1
tp423
a(S'w'
I708
tp424
a(S'w'
I13
tp425
a(S'w'
I721
tp426
a(S'w'
I13
tp427
a(S'w'
I720
tp428
a(S'w'
I14
tp429
a(S'w'
I720
tp430
a(S'w'
I13
tp431
a(S'w'
I719
tp432
a(S'p1_vo'
I10
tp433
a(S'w'
I3
tp434
a(S'w'
I25
tp435
a(S'p2_tl'
I0
tp436
a(S'w'
I1
tp437
a(S'p2_ll'
I0
tp438
a(S'p2_th'
I0
tp439
a(S'w'
I16
tp440
a(S'tr_tl'
I0
tp441
a(S'w'
I1
tp442
a(S'tr_ll'
I0
tp443
a(S'w'
I690
tp444
a(S'w'
I10
tp445
a(S'p2_vo'
I5
tp446
a(S'w'
I3
tp447
a(S'p2_tl'
I224
tp448
a(S'w'
I1
tp449
a(S'p2_ll'
I1
tp450
a(S'p2_th'
I1
tp451
a(S'w'
I720
tp452
a(S'w'
I13
tp453
a(S'w'
I720
tp454
a(S'w'
I14
tp455
a(S'w'
I720
tp456
a(S'w'
I14
tp457
a(S'w'
I720
tp458
a(S'w'
I13
tp459
a(S'w'
I721
tp460
a(S'w'
I25
tp461
a(S'p2_tl'
I0
tp462
a(S'p2_ll'
I0
tp463
a(S'p2_th'
I0
tp464
a(S'w'
I18
tp465
a(S'tr_ll'
I0
tp466
a(S'w'
I691
tp467
a(S'w'
I10
tp468
a(S'p2_vo'
I9
tp469
a(S'w'
I3
tp470
a(S'p2_tl'
I125
tp471
a(S'w'
I1
tp472
a(S'p2_ll'
I1
tp473
a(S'p2_th'
I1
tp474
a(S'w'
I10
tp475
a(S'tr_tl'
I29
tp476
a(S'w'
I1
tp477
a(S'tr_ll'
I1
tp478
a(S'tr_th'
I1
tp479
a(S'w'
I709
tp480
a(S'w'
I13
tp481
a(S'w'
I718
tp482
a(S'p1_vo'
I9
tp483
a(S'w'
I3
tp484
a(S'w'
I14
tp485
a(S'w'
I719
tp486
a(S'w'
I13
tp487
a(S'w'
I721
tp488
a(S'w'
I13
tp489
a(S'w'
I721
tp490
a(S'w'
I25
tp491
a(S'p2_tl'
I0
tp492
a(S'p2_ll'
I0
tp493
a(S'p2_th'
I0
tp494
a(S'w'
I17
tp495
a(S'tr_tl'
I0
tp496
a(S'tr_ll'
I0
tp497
a(S'tr_th'
I0
tp498
a(S'w'
I692
tp499
a(S'w'
I10
tp500
a(S'p2_vo'
I5
tp501
a(S'w'
I3
tp502
a(S'p2_tl'
I125
tp503
a(S'p2_ll'
I1
tp504
a(S'p2_th'
I1
tp505
a(S'w'
I720
tp506
a(S'w'
I14
tp507
a(S'w'
I720
tp508
a(S'w'
I13
tp509
a(S'w'
I721
tp510
a(S'w'
I13
tp511
a(S'w'
I721
tp512
a(S'w'
I13
tp513
a(S'w'
I718
tp514
a(S'p1_vo'
I8
tp515
a(S'w'
I4
tp516
a(S'w'
I25
tp517
a(S'p2_tl'
I0
tp518
a(S'p2_ll'
I0
tp519
a(S'p2_th'
I0
tp520
a(S'w'
I18
tp521
a(S'tr_ll'
I0
tp522
a(S'w'
I689
tp523
a(S'w'
I10
tp524
a(S'p2_vo'
I9
tp525
a(S'w'
I4
tp526
a(S'p2_tl'
I64
tp527
a(S'p2_ll'
I1
tp528
a(S'p2_th'
I1
tp529
a(S'w'
I11
tp530
a(S'tr_tl'
I64
tp531
a(S'w'
I1
tp532
a(S'tr_ll'
I1
tp533
a(S'tr_th'
I1
tp534
a(S'w'
I708
tp535
a(S'w'
I13
tp536
a(S'w'
I721
tp537
a(S'w'
I13
tp538
a(S'w'
I721
tp539
a(S'w'
I13
tp540
a(S'w'
I721
tp541
a(S'w'
I13
tp542
a(S'w'
I720
tp543
a(S'w'
I26
tp544
a(S'p2_tl'
I0
tp545
a(S'p2_ll'
I0
tp546
a(S'p2_th'
I0
tp547
a(S'w'
I17
tp548
a(S'tr_tl'
I0
tp549
a(S'tr_ll'
I0
tp550
a(S'tr_th'
I0
tp551
a(S'w'
I691
tp552
a(S'w'
I10
tp553
a(S'p2_vo'
I5
tp554
a(S'w'
I3
tp555
a(S'p2_tl'
I64
tp556
a(S'w'
I1
tp557
a(S'p2_ll'
I1
tp558
a(S'p2_th'
I1
tp559
a(S'w'
I720
tp560
a(S'w'
I13
tp561
a(S'w'
I719
tp562
a(S'p1_vo'
I7
tp563
a(S'w'
I3
tp564
a(S'w'
I13
tp565
a(S'w'
I720
tp566
a(S'w'
I13
tp567
a(S'w'
I720
tp568
a(S'w'
I14
tp569
a(S'w'
I727
tp570
a(S'p1_tl'
I0
tp571
a(S'p1_ll'
I0
tp572
a(S'w'
I25
tp573
a(S'p2_tl'
I0
tp574
a(S'p2_ll'
I0
tp575
a(S'p2_th'
I0
tp576
a(S'w'
I18
tp577
a(S'tr_ll'
I0
tp578
a(S'w'
I681
tp579
a(S'p1_vo'
I12
tp580
a(S'w'
I3
tp581
a(S'p1_tl'
I160
tp582
a(S'w'
I1
tp583
a(S'p1_ll'
I1
tp584
a(S'w'
I9
tp585
a(S'p2_vo'
I9
tp586
a(S'w'
I4
tp587
a(S'p2_tl'
I240
tp588
a(S'p2_ll'
I1
tp589
a(S'w'
I11
tp590
a(S'tr_tl'
I213
tp591
a(S'w'
I1
tp592
a(S'tr_ll'
I1
tp593
a(S'w'
I708
tp594
a(S'w'
I13
tp595
a(S'w'
I721
tp596
a(S'w'
I13
tp597
a(S'w'
I720
tp598
a(S'w'
I14
tp599
a(S'w'
I720
tp600
a(S'w'
I13
tp601
a(S'w'
I721
tp602
a(S'w'
I13
tp603
a(S'w'
I721
tp604
a(S'w'
I13
tp605
a(S'w'
I721
tp606
a(S'w'
I13
tp607
a(S'w'
I718
tp608
a(S'p1_vo'
I11
tp609
a(S'w'
I3
tp610
a(S'w'
I11
tp611
a(S'p2_vo'
I8
tp612
a(S'w'
I4
tp613
a(S'w'
I718
tp614
a(S'w'
I13
tp615
a(S'w'
I721
tp616
a(S'w'
I13
tp617
a(S'w'
I721
tp618
a(S'w'
I13
tp619
a(S'w'
I721
tp620
a(S'w'
I13
tp621
a(S'w'
I720
tp622
a(S'w'
I14
tp623
a(S'w'
I720
tp624
a(S'w'
I13
tp625
a(S'w'
I721
tp626
a(S'w'
I13
tp627
a(S'w'
I721
tp628
a(S'w'
I13
tp629
a(S'w'
I718
tp630
a(S'p1_vo'
I10
tp631
a(S'w'
I4
tp632
a(S'w'
I11
tp633
a(S'p2_vo'
I7
tp634
a(S'w'
I3
tp635
a(S'w'
I718
tp636
a(S'w'
I14
tp637
a(S'w'
I720
tp638
a(S'w'
I13
tp639
a(S'w'
I721
tp640
a(S'w'
I13
tp641
a(S'w'
I721
tp642
a(S'w'
I13
tp643
a(S'w'
I721
tp644
a(S'w'
I13
tp645
a(S'w'
I730
tp646
a(S'p1_tl'
I0
tp647
a(S'p1_ll'
I0
tp648
a(S'w'
I22
tp649
a(S'p2_tl'
I0
tp650
a(S'p2_ll'
I0
tp651
a(S'w'
I21
tp652
a(S'tr_tl'
I0
tp653
a(S'tr_ll'
I0
tp654
a(S'w'
I678
tp655
a(S'p1_vo'
I12
tp656
a(S'w'
I3
tp657
a(S'p1_tl'
I142
tp658
a(S'w'
I1
tp659
a(S'p1_ll'
I1
tp660
a(S'w'
I10
tp661
a(S'p2_vo'
I9
tp662
a(S'w'
I3
tp663
a(S'p2_tl'
I213
tp664
a(S'p2_ll'
I1
tp665
a(S'w'
I11
tp666
a(S'tr_tl'
I171
tp667
a(S'w'
I1
tp668
a(S'tr_ll'
I1
tp669
a(S'tr_th'
I1
tp670
a(S'w'
I708
tp671
a(S'w'
I13
tp672
a(S'w'
I721
tp673
a(S'w'
I13
tp674
a(S'w'
I721
tp675
a(S'w'
I13
tp676
a(S'w'
I720
tp677
a(S'w'
I14
tp678
a(S'w'
I720
tp679
a(S'w'
I13
tp680
a(S'w'
I721
tp681
a(S'w'
I13
tp682
a(S'w'
I721
tp683
a(S'w'
I13
tp684
a(S'w'
I718
tp685
a(S'p1_vo'
I11
tp686
a(S'w'
I4
tp687
a(S'w'
I11
tp688
a(S'p2_vo'
I8
tp689
a(S'w'
I3
tp690
a(S'w'
I718
tp691
a(S'w'
I14
tp692
a(S'w'
I720
tp693
a(S'w'
I13
tp694
a(S'w'
I721
tp695
a(S'w'
I13
tp696
a(S'w'
I721
tp697
a(S'w'
I13
tp698
a(S'w'
I721
tp699
a(S'w'
I13
tp700
a(S'w'
I720
tp701
a(S'w'
I14
tp702
a(S'w'
I720
tp703
a(S'w'
I13
tp704
a(S'w'
I721
tp705
a(S'w'
I13
tp706
a(S'w'
I730
tp707
a(S'p1_tl'
I0
tp708
a(S'p1_ll'
I0
tp709
a(S'w'
I22
tp710
a(S'p2_tl'
I0
tp711
a(S'p2_ll'
I0
tp712
a(S'w'
I699
tp713
a(S'p1_vo'
I12
tp714
a(S'w'
I4
tp715
a(S'p1_tl'
I142
tp716
a(S'p1_ll'
I1
tp717
a(S'w'
I10
tp718
a(S'p2_vo'
I9
tp719
a(S'w'
I3
tp720
a(S'p2_tl'
I213
tp721
a(S'w'
I1
tp722
a(S'p2_ll'
I1
tp723
a(S'w'
I719
tp724
a(S'w'
I14
tp725
a(S'w'
I720
tp726
a(S'w'
I13
tp727
a(S'w'
I721
tp728
a(S'w'
I13
tp729
a(S'w'
I721
tp730
a(S'w'
I13
tp731
a(S'w'
I721
tp732
a(S'w'
I13
tp733
a(S'w'
I720
tp734
a(S'w'
I14
tp735
a(S'w'
I720
tp736
a(S'w'
I13
tp737
a(S'w'
I719
tp738
a(S'p1_vo'
I11
tp739
a(S'w'
I3
tp740
a(S'w'
I11
tp741
a(S'p2_vo'
I8
tp742
a(S'w'
I3
tp743
a(S'w'
I719
tp744
a(S'w'
I13
tp745
a(S'w'
I721
tp746
a(S'w'
I13
tp747
a(S'w'
I720
tp748
a(S'w'
I14
tp749
a(S'w'
I720
tp750
a(S'w'
I13
tp751
a(S'w'
I721
tp752
a(S'w'
I13
tp753
a(S'w'
I721
tp754
a(S'w'
I13
tp755
a(S'w'
I721
tp756
a(S'w'
I13
tp757
a(S'w'
I720
tp758
a(S'w'
I14
tp759
a(S'w'
I749
tp760
a(S'p1_tl'
I0
tp761
a(S'p1_ll'
I0
tp762
a(S'w'
I48
tp763
a(S'p2_tl'
I0
tp764
a(S'p2_ll'
I0
tp765
a(S'w'
I32
tp766
a(S'tr_tl'
I0
tp767
a(S'tr_ll'
I0
tp768
a(S'tr_th'
I0
tp769
a(S'w'
I622
tp770
a(S'p1_vo'
I12
tp771
a(S'w'
I6
tp772
a(S'p1_tl'
I129
tp773
a(S'w'
I1
tp774
a(S'p1_ll'
I1
tp775
a(S'w'
I9
tp776
a(S'p2_vo'
I10
tp777
a(S'w'
I7
tp778
a(S'p2_tl'
I215
tp779
a(S'p2_ll'
I1
tp780
a(S'w'
I14
tp781
a(S'tr_tl'
I66
tp782
a(S'w'
I1
tp783
a(S'tr_ll'
I1
tp784
a(S'tr_th'
I1
tp785
a(S'w'
I703
tp786
a(S'p1_tl'
I131
tp787
a(S'w'
I18
tp788
a(S'p2_tl'
I217
tp789
a(S'w'
I15
tp790
a(S'tr_tl'
I68
tp791
a(S'w'
I700
tp792
a(S'p1_tl'
I129
tp793
a(S'w'
I16
tp794
a(S'p2_tl'
I215
tp795
a(S'w'
I15
tp796
a(S'tr_tl'
I66
tp797
a(S'w'
I704
tp798
a(S'p1_tl'
I127
tp799
a(S'w'
I17
tp800
a(S'p2_tl'
I213
tp801
a(S'w'
I15
tp802
a(S'tr_tl'
I64
tp803
a(S'w'
I701
tp804
a(S'p1_tl'
I125
tp805
a(S'w'
I16
tp806
a(S'p2_tl'
I211
tp807
a(S'w'
I14
tp808
a(S'tr_tl'
I62
tp809
a(S'w'
I705
tp810
a(S'p1_tl'
I123
tp811
a(S'w'
I18
tp812
a(S'p2_tl'
I209
tp813
a(S'w'
I15
tp814
a(S'tr_tl'
I60
tp815
a(S'w'
I699
tp816
a(S'p1_tl'
I125
tp817
a(S'w'
I16
tp818
a(S'p2_tl'
I211
tp819
a(S'w'
I14
tp820
a(S'tr_tl'
I62
tp821
a(S'w'
I705
tp822
a(S'p1_tl'
I127
tp823
a(S'w'
I17
tp824
a(S'p2_tl'
I213
tp825
a(S'w'
I15
tp826
a(S'tr_tl'
I64
tp827
a(S'w'
I700
tp828
a(S'p1_tl'
I129
tp829
a(S'w'
I17
tp830
a(S'p2_tl'
I215
tp831
a(S'w'
I14
tp832
a(S'tr_tl'
I66
tp833
a(S'w'
I698
tp834
a(S'p1_vo'
I11
tp835
a(S'w'
I8
tp836
a(S'p1_tl'
I131
tp837
a(S'w'
I11
tp838
a(S'p2_vo'
I9
tp839
a(S'w'
I7
tp840
a(S'p2_tl'
I217
tp841
a(S'w'
I16
tp842
a(S'tr_tl'
I68
tp843
a(S'w'
I697
tp844
a(S'p1_tl'
I129
tp845
a(S'w'
I17
tp846
a(S'p2_tl'
I215
tp847
a(S'w'
I14
tp848
a(S'tr_tl'
I66
tp849
a(S'w'
I704
tp850
a(S'p1_tl'
I127
tp851
a(S'w'
I17
tp852
a(S'p2_tl'
I213
tp853
a(S'w'
I16
tp854
a(S'tr_tl'
I64
tp855
a(S'w'
I700
tp856
a(S'p1_tl'
I125
tp857
a(S'w'
I16
tp858
a(S'p2_tl'
I211
tp859
a(S'w'
I15
tp860
a(S'tr_tl'
I62
tp861
a(S'w'
I704
tp862
a(S'p1_tl'
I123
tp863
a(S'w'
I18
tp864
a(S'p2_tl'
I209
tp865
a(S'w'
I16
tp866
a(S'tr_tl'
I60
tp867
a(S'w'
I698
tp868
a(S'p1_tl'
I125
tp869
a(S'w'
I16
tp870
a(S'p2_tl'
I211
tp871
a(S'w'
I15
tp872
a(S'tr_tl'
I62
tp873
a(S'w'
I704
tp874
a(S'p1_tl'
I127
tp875
a(S'w'
I17
tp876
a(S'p2_tl'
I213
tp877
a(S'w'
I15
tp878
a(S'tr_tl'
I64
tp879
a(S'w'
I701
tp880
a(S'p1_tl'
I129
tp881
a(S'w'
I16
tp882
a(S'p2_tl'
I215
tp883
a(S'w'
I14
tp884
a(S'tr_tl'
I66
tp885
a(S'w'
I705
tp886
a(S'p1_tl'
I131
tp887
a(S'w'
I18
tp888
a(S'p2_tl'
I217
tp889
a(S'w'
I15
tp890
a(S'tr_tl'
I68
tp891
a(S'w'
I700
tp892
a(S'p1_tl'
I129
tp893
a(S'w'
I16
tp894
a(S'p2_tl'
I215
tp895
a(S'w'
I15
tp896
a(S'tr_tl'
I66
tp897
a(S'w'
I697
tp898
a(S'p1_vo'
I10
tp899
a(S'w'
I7
tp900
a(S'p1_tl'
I127
tp901
a(S'w'
I11
tp902
a(S'p2_vo'
I8
tp903
a(S'w'
I8
tp904
a(S'p2_tl'
I213
tp905
a(S'w'
I15
tp906
a(S'tr_tl'
I64
tp907
a(S'w'
I698
tp908
a(S'p1_tl'
I125
tp909
a(S'w'
I17
tp910
a(S'p2_tl'
I211
tp911
a(S'w'
I14
tp912
a(S'tr_tl'
I62
tp913
a(S'w'
I704
tp914
a(S'p1_tl'
I123
tp915
a(S'w'
I18
tp916
a(S'p2_tl'
I209
tp917
a(S'w'
I16
tp918
a(S'tr_tl'
I60
tp919
a(S'w'
I699
tp920
a(S'p1_tl'
I125
tp921
a(S'w'
I16
tp922
a(S'p2_tl'
I211
tp923
a(S'w'
I14
tp924
a(S'tr_tl'
I62
tp925
a(S'w'
I704
tp926
a(S'p1_tl'
I127
tp927
a(S'w'
I17
tp928
a(S'p2_tl'
I213
tp929
a(S'w'
I15
tp930
a(S'tr_tl'
I64
tp931
a(S'w'
I701
tp932
a(S'p1_tl'
I129
tp933
a(S'w'
I16
tp934
a(S'p2_tl'
I215
tp935
a(S'w'
I15
tp936
a(S'tr_tl'
I66
tp937
a(S'w'
I704
tp938
a(S'p1_tl'
I131
tp939
a(S'w'
I18
tp940
a(S'p2_tl'
I217
tp941
a(S'w'
I16
tp942
a(S'tr_tl'
I68
tp943
a(S'w'
I699
tp944
a(S'p1_tl'
I129
tp945
a(S'w'
I17
tp946
a(S'p2_tl'
I215
tp947
a(S'w'
I14
tp948
a(S'tr_tl'
I66
tp949
a(S'w'
I704
tp950
a(S'p1_tl'
I127
tp951
a(S'w'
I17
tp952
a(S'p2_tl'
I213
tp953
a(S'w'
I15
tp954
a(S'tr_tl'
I64
tp955
a(S'w'
I701
tp956
a(S'p1_tl'
I125
tp957
a(S'w'
I16
tp958
a(S'p2_tl'
I211
tp959
a(S'w'
I15
tp960
a(S'tr_tl'
I62
tp961
a(S'w'
I697
tp962
a(S'p1_vo'
I9
tp963
a(S'w'
I8
tp964
a(S'p1_tl'
I123
tp965
a(S'w'
I11
tp966
a(S'p2_vo'
I7
tp967
a(S'w'
I8
tp968
a(S'p2_tl'
I209
tp969
a(S'w'
I16
tp970
a(S'tr_tl'
I60
tp971
a(S'w'
I696
tp972
a(S'p1_tl'
I125
tp973
a(S'w'
I16
tp974
a(S'p2_tl'
I211
tp975
a(S'w'
I14
tp976
a(S'tr_tl'
I62
tp977
a(S'w'
I705
tp978
a(S'p1_tl'
I127
tp979
a(S'w'
I17
tp980
a(S'p2_tl'
I213
tp981
a(S'w'
I15
tp982
a(S'tr_tl'
I64
tp983
a(S'w'
I701
tp984
a(S'p1_tl'
I129
tp985
a(S'w'
I16
tp986
a(S'p2_tl'
I215
tp987
a(S'w'
I14
tp988
a(S'tr_tl'
I66
tp989
a(S'w'
I705
tp990
a(S'p1_tl'
I131
tp991
a(S'w'
I17
tp992
a(S'p2_tl'
I217
tp993
a(S'w'
I16
tp994
a(S'tr_tl'
I68
tp995
a(S'w'
I700
tp996
a(S'p1_tl'
I129
tp997
a(S'w'
I16
tp998
a(S'p2_tl'
I215
tp999
a(S'w'
I14
tp1000
a(S'tr_tl'
I66
tp1001
a(S'w'
I704
tp1002
a(S'p1_tl'
I127
tp1003
a(S'w'
I18
tp1004
a(S'p2_tl'
I213
tp1005
a(S'w'
I15
tp1006
a(S'tr_tl'
I64
tp1007
a(S'w'
I700
tp1008
a(S'p1_tl'
I125
tp1009
a(S'w'
I16
tp1010
a(S'p2_tl'
I211
tp1011
a(S'w'
I15
tp1012
a(S'tr_tl'
I62
tp1013
a(S'w'
I704
tp1014
a(S'p1_tl'
I123
tp1015
a(S'w'
I18
tp1016
a(S'p2_tl'
I209
tp1017
a(S'w'
I16
tp1018
a(S'tr_tl'
I60
tp1019
a(S'w'
I698
tp1020
a(S'p1_tl'
I125
tp1021
a(S'w'
I17
tp1022
a(S'p2_tl'
I211
tp1023
a(S'w'
I14
tp1024
a(S'tr_tl'
I62
tp1025
a(S'w'
I698
tp1026
a(S'p1_vo'
I8
tp1027
a(S'w'
I7
tp1028
a(S'p1_tl'
I127
tp1029
a(S'w'
I11
tp1030
a(S'p2_vo'
I6
tp1031
a(S'w'
I7
tp1032
a(S'p2_tl'
I213
tp1033
a(S'w'
I15
tp1034
a(S'tr_tl'
I64
tp1035
a(S'w'
I699
tp1036
a(S'p1_tl'
I129
tp1037
a(S'w'
I16
tp1038
a(S'p2_tl'
I215
tp1039
a(S'w'
I14
tp1040
a(S'tr_tl'
I66
tp1041
a(S'w'
I705
tp1042
a(S'p1_tl'
I131
tp1043
a(S'w'
I18
tp1044
a(S'p2_tl'
I217
tp1045
a(S'w'
I15
tp1046
a(S'tr_tl'
I68
tp1047
a(S'w'
I700
tp1048
a(S'p1_tl'
I129
tp1049
a(S'w'
I16
tp1050
a(S'p2_tl'
I215
tp1051
a(S'w'
I15
tp1052
a(S'tr_tl'
I66
tp1053
a(S'w'
I704
tp1054
a(S'p1_tl'
I127
tp1055
a(S'w'
I17
tp1056
a(S'p2_tl'
I213
tp1057
a(S'w'
I15
tp1058
a(S'tr_tl'
I64
tp1059
a(S'w'
I701
tp1060
a(S'p1_tl'
I125
tp1061
a(S'w'
I16
tp1062
a(S'p2_tl'
I211
tp1063
a(S'w'
I14
tp1064
a(S'tr_tl'
I62
tp1065
a(S'w'
I705
tp1066
a(S'p1_tl'
I123
tp1067
a(S'w'
I18
tp1068
a(S'p2_tl'
I209
tp1069
a(S'w'
I15
tp1070
a(S'tr_tl'
I60
tp1071
a(S'w'
I699
tp1072
a(S'p1_tl'
I125
tp1073
a(S'w'
I16
tp1074
a(S'p2_tl'
I211
tp1075
a(S'w'
I14
tp1076
a(S'tr_tl'
I62
tp1077
a(S'w'
I705
tp1078
a(S'p1_tl'
I127
tp1079
a(S'w'
I17
tp1080
a(S'p2_tl'
I213
tp1081
a(S'w'
I15
tp1082
a(S'tr_tl'
I64
tp1083
a(S'w'
I700
tp1084
a(S'p1_tl'
I129
tp1085
a(S'w'
I17
tp1086
a(S'p2_tl'
I215
tp1087
a(S'w'
I14
tp1088
a(S'tr_tl'
I66
tp1089
a(S'w'
I698
tp1090
a(S'p1_vo'
I7
tp1091
a(S'w'
I8
tp1092
a(S'p1_tl'
I131
tp1093
a(S'w'
I11
tp1094
a(S'p2_vo'
I5
tp1095
a(S'w'
I7
tp1096
a(S'p2_tl'
I217
tp1097
a(S'w'
I16
tp1098
a(S'tr_tl'
I68
tp1099
a(S'w'
I697
tp1100
a(S'p1_tl'
I129
tp1101
a(S'w'
I17
tp1102
a(S'p2_tl'
I215
tp1103
a(S'w'
I14
tp1104
a(S'tr_tl'
I66
tp1105
a(S'w'
I704
tp1106
a(S'p1_tl'
I127
tp1107
a(S'w'
I17
tp1108
a(S'p2_tl'
I213
tp1109
a(S'w'
I16
tp1110
a(S'tr_tl'
I64
tp1111
a(S'w'
I700
tp1112
a(S'p1_tl'
I125
tp1113
a(S'w'
I16
tp1114
a(S'p2_tl'
I211
tp1115
a(S'w'
I15
tp1116
a(S'tr_tl'
I62
tp1117
a(S'w'
I704
tp1118
a(S'p1_tl'
I123
tp1119
a(S'w'
I18
tp1120
a(S'p2_tl'
I209
tp1121
a(S'w'
I16
tp1122
a(S'tr_tl'
I60
tp1123
a(S'w'
I698
tp1124
a(S'p1_tl'
I125
tp1125
a(S'w'
I16
tp1126
a(S'p2_tl'
I211
tp1127
a(S'w'
I15
tp1128
a(S'tr_tl'
I62
tp1129
a(S'w'
I704
tp1130
a(S'p1_tl'
I127
tp1131
a(S'w'
I17
tp1132
a(S'p2_tl'
I213
tp1133
a(S'w'
I15
tp1134
a(S'tr_tl'
I64
tp1135
a(S'w'
I701
tp1136
a(S'p1_tl'
I129
tp1137
a(S'w'
I16
tp1138
a(S'p2_tl'
I215
tp1139
a(S'w'
I14
tp1140
a(S'tr_tl'
I66
tp1141
a(S'w'
I705
tp1142
a(S'p1_tl'
I131
tp1143
a(S'w'
I18
tp1144
a(S'p2_tl'
I217
tp1145
a(S'w'
I15
tp1146
a(S'tr_tl'
I68
tp1147
a(S'w'
I700
tp1148
a(S'p1_tl'
I129
tp1149
a(S'w'
I16
tp1150
a(S'p2_tl'
I215
tp1151
a(S'w'
I15
tp1152
a(S'tr_tl'
I66
tp1153
a(S'w'
I697
tp1154
a(S'p1_vo'
I6
tp1155
a(S'w'
I8
tp1156
a(S'p1_tl'
I127
tp1157
a(S'w'
I11
tp1158
a(S'p2_vo'
I4
tp1159
a(S'w'
I7
tp1160
a(S'p2_tl'
I213
tp1161
a(S'w'
I15
tp1162
a(S'tr_tl'
I64
tp1163
a(S'w'
I698
tp1164
a(S'p1_tl'
I125
tp1165
a(S'w'
I17
tp1166
a(S'p2_tl'
I211
tp1167
a(S'w'
I14
tp1168
a(S'tr_tl'
I62
tp1169
a(S'w'
I705
tp1170
a(S'p1_tl'
I123
tp1171
a(S'w'
I17
tp1172
a(S'p2_tl'
I209
tp1173
a(S'w'
I16
tp1174
a(S'tr_tl'
I60
tp1175
a(S'w'
I699
tp1176
a(S'p1_tl'
I125
tp1177
a(S'w'
I16
tp1178
a(S'p2_tl'
I211
tp1179
a(S'w'
I14
tp1180
a(S'tr_tl'
I62
tp1181
a(S'w'
I704
tp1182
a(S'p1_tl'
I127
tp1183
a(S'w'
I17
tp1184
a(S'p2_tl'
I213
tp1185
a(S'w'
I16
tp1186
a(S'tr_tl'
I64
tp1187
a(S'w'
I700
tp1188
a(S'p1_tl'
I129
tp1189
a(S'w'
I16
tp1190
a(S'p2_tl'
I215
tp1191
a(S'w'
I15
tp1192
a(S'tr_tl'
I66
tp1193
a(S'w'
I704
tp1194
a(S'p1_tl'
I131
tp1195
a(S'w'
I18
tp1196
a(S'p2_tl'
I217
tp1197
a(S'w'
I16
tp1198
a(S'tr_tl'
I68
tp1199
a(S'w'
I699
tp1200
a(S'p1_tl'
I129
tp1201
a(S'w'
I17
tp1202
a(S'p2_tl'
I215
tp1203
a(S'w'
I14
tp1204
a(S'tr_tl'
I66
tp1205
a(S'w'
I704
tp1206
a(S'p1_tl'
I127
tp1207
a(S'w'
I17
tp1208
a(S'p2_tl'
I213
tp1209
a(S'w'
I16
tp1210
a(S'tr_tl'
I64
tp1211
a(S'w'
I700
tp1212
a(S'p1_tl'
I125
tp1213
a(S'w'
I16
tp1214
a(S'p2_tl'
I211
tp1215
a(S'w'
I15
tp1216
a(S'tr_tl'
I62
tp1217
a(S'w'
I697
tp1218
a(S'p1_vo'
I5
tp1219
a(S'w'
I8
tp1220
a(S'p1_tl'
I123
tp1221
a(S'w'
I11
tp1222
a(S'p2_vo'
I3
tp1223
a(S'w'
I8
tp1224
a(S'p2_tl'
I209
tp1225
a(S'w'
I16
tp1226
a(S'tr_tl'
I60
tp1227
a(S'w'
I696
tp1228
a(S'p1_tl'
I125
tp1229
a(S'w'
I16
tp1230
a(S'p2_tl'
I211
tp1231
a(S'w'
I14
tp1232
a(S'tr_tl'
I62
tp1233
a(S'w'
I698
tp1234
a(S'p1_tl'
I0
tp1235
a(S'p1_ll'
I0
tp1236
a(S'w'
I11
tp1237
a(S'p2_tl'
I0
tp1238
a(S'p2_ll'
I0
tp1239
a(S'w'
I10
tp1240
a(S'tr_tl'
I0
tp1241
a(S'tr_ll'
I0
tp1242
a(S'tr_th'
I0
tp1243
a(S'w'
I707
tp1244
a(S'p1_ll'
I0
tp1245
a(S'w'
I3
tp1246
a(S'p2_ll'
I0
tp1247
a(S'w'
I4
tp1248
a(S'tr_ll'
I0
tp1249
a(S'w'
I726
tp1250
a(S'p1_ll'
I0
tp1251
a.