(lp1
(S'clock'
p2
I1789772
tp3
a(S'ch_no'
I1
tp4
a(S'ch_tr'
I1
tp5
a(S'ch_p2'
I1
tp6
a(S'ch_p1'
I1
tp7
a(S'fc_mo'
I1
tp8
a(S'w'
I30
tp9
a(S'p1_cv'
I1
tp10
a(S'w'
I1
tp11
a(S'p2_cv'
I1
tp12
a(S'w'
I1
tp13
a(S'w'
I1
tp14
a(S'w'
I728
tp15
a(S'p1_du'
I2
tp16
a(S'p1_cv'
I0
tp17
a(S'p1_vo'
I2
tp18
a(S'w'
I1
tp19
a(S'p1_sp'
I7
tp20
a(S'p1_sn'
I1
tp21
a(S'p1_ss'
I7
tp22
a(S'p1_tl'
I160
tp23
a(S'w'
I1
tp24
a(S'p1_ll'
I31
tp25
a(S'w'
I3
tp26
a(S'p2_du'
I1
tp27
a(S'p2_cv'
I0
tp28
a(S'p2_vo'
I2
tp29
a(S'p2_sp'
I7
tp30
a(S'p2_sn'
I1
tp31
a(S'p2_ss'
I7
tp32
a(S'w'
I1
tp33
a(S'p2_tl'
I213
tp34
a(S'p2_ll'
I31
tp35
a(S'w'
I4398
tp36
a(S'p1_tl'
I151
tp37
a(S'w'
I1
tp38
a(S'p1_ll'
I31
tp39
a(S'w'
I4402
tp40
a(S'p1_tl'
I142
tp41
a(S'w'
I1
tp42
a(S'p1_ll'
I31
tp43
a(S'w'
I4402
tp44
a(S'p1_tl'
I134
tp45
a(S'w'
I1
tp46
a(S'p1_ll'
I31
tp47
a(S'w'
I4
tp48
a(S'p2_tl'
I226
tp49
a(S'p2_ll'
I31
tp50
a(S'w'
I8800
tp51
a(S'p1_tl'
I127
tp52
a(S'w'
I1
tp53
a(S'p1_ll'
I31
tp54
a(S'w'
I4402
tp55
a(S'p1_tl'
I120
tp56
a(S'w'
I1
tp57
a(S'p1_ll'
I31
tp58
a(S'w'
I4
tp59
a(S'p2_tl'
I240
tp60
a(S'p2_ll'
I31
tp61
a(S'w'
I8800
tp62
a(S'p1_tl'
I113
tp63
a(S'w'
I1
tp64
a(S'p1_ll'
I31
tp65
a(S'w'
I4404
tp66
a(S'p2_tl'
I254
tp67
a(S'w'
I1
tp68
a(S'p2_ll'
I31
tp69
a(S'w'
I8803
tp70
a(S'p1_tl'
I142
tp71
a(S'w'
I1
tp72
a(S'p1_ll'
I31
tp73
a(S'w'
I4401
tp74
a(S'p1_tl'
I106
tp75
a(S'w'
I1
tp76
a(S'p1_ll'
I31
tp77
a(S'w'
I4
tp78
a(S'p2_tl'
I13
tp79
a(S'p2_ll'
I31
tp80
a(S'p2_th'
I1
tp81
a(S'w'
I13204
tp82
a(S'p1_tl'
I142
tp83
a(S'w'
I1
tp84
a(S'p1_ll'
I31
tp85
a(S'w'
I4
tp86
a(S'p2_tl'
I29
tp87
a(S'p2_ll'
I31
tp88
a(S'w'
I8799
tp89
a(S'p1_vo'
I13
tp90
a(S'w'
I1
tp91
a(S'p1_tl'
I106
tp92
a(S'w'
I1
tp93
a(S'p1_ll'
I31
tp94
a(S'w'
I3
tp95
a(S'p2_vo'
I13
tp96
a(S'w'
I1
tp97
a(S'p2_tl'
I171
tp98
a(S'p2_ll'
I31
tp99
a(S'w'
I30816
tp100
a(S'p1_du'
I0
tp101
a(S'p1_cv'
I1
tp102
a(S'p1_vo'
I0
tp103
a(S'w'
I1
tp104
a(S'p2_du'
I0
tp105
a(S'p2_cv'
I1
tp106
a(S'p2_vo'
I0
tp107
a(S'w'
I27713
tp108
a.