(lp1
(S'clock'
p2
I1789772
tp3
a(S'ch_no'
I1
tp4
a(S'ch_tr'
I1
tp5
a(S'ch_p2'
I1
tp6
a(S'ch_p1'
I1
tp7
a(S'fc_mo'
I1
tp8
a(S'w'
I30
tp9
a(S'p1_cv'
I1
tp10
a(S'w'
I1
tp11
a(S'p2_cv'
I1
tp12
a(S'w'
I1
tp13
a(S'w'
I1
tp14
a(S'w'
I710
tp15
a(S'p1_du'
I3
tp16
a(S'p1_cv'
I0
tp17
a(S'p1_vo'
I1
tp18
a(S'w'
I1
tp19
a(S'p1_sp'
I7
tp20
a(S'p1_sn'
I1
tp21
a(S'p1_ss'
I7
tp22
a(S'p1_tl'
I169
tp23
a(S'w'
I1
tp24
a(S'p1_ll'
I31
tp25
a(S'w'
I3
tp26
a(S'p2_du'
I3
tp27
a(S'p2_sp'
I7
tp28
a(S'p2_sn'
I1
tp29
a(S'p2_ss'
I7
tp30
a(S'w'
I1
tp31
a(S'p2_ll'
I31
tp32
a(S'w'
I4398
tp33
a(S'p1_tl'
I160
tp34
a(S'w'
I1
tp35
a(S'p1_ll'
I31
tp36
a(S'w'
I4402
tp37
a(S'p1_tl'
I151
tp38
a(S'w'
I1
tp39
a(S'p1_ll'
I31
tp40
a(S'w'
I4402
tp41
a(S'p1_tl'
I142
tp42
a(S'w'
I1
tp43
a(S'p1_ll'
I31
tp44
a(S'w'
I3
tp45
a(S'p2_cv'
I0
tp46
a(S'p2_vo'
I2
tp47
a(S'w'
I1
tp48
a(S'p2_tl'
I59
tp49
a(S'p2_ll'
I31
tp50
a(S'p2_th'
I2
tp51
a(S'w'
I8800
tp52
a(S'p1_tl'
I169
tp53
a(S'w'
I1
tp54
a(S'p1_ll'
I31
tp55
a(S'w'
I4402
tp56
a(S'p1_tl'
I160
tp57
a(S'w'
I1
tp58
a(S'p1_ll'
I31
tp59
a(S'w'
I4
tp60
a(S'p2_tl'
I27
tp61
a(S'p2_ll'
I31
tp62
a(S'w'
I8800
tp63
a(S'p1_tl'
I190
tp64
a(S'w'
I1
tp65
a(S'p1_ll'
I31
tp66
a(S'w'
I4402
tp67
a(S'p1_tl'
I169
tp68
a(S'w'
I1
tp69
a(S'p1_ll'
I31
tp70
a(S'w'
I4
tp71
a(S'p2_tl'
I252
tp72
a(S'p2_ll'
I31
tp73
a(S'p2_th'
I1
tp74
a(S'w'
I8801
tp75
a(S'p1_tl'
I213
tp76
a(S'w'
I1
tp77
a(S'p1_ll'
I31
tp78
a(S'w'
I4401
tp79
a(S'p1_tl'
I190
tp80
a(S'w'
I1
tp81
a(S'p1_ll'
I31
tp82
a(S'w'
I4
tp83
a(S'p2_tl'
I197
tp84
a(S'p2_ll'
I31
tp85
a(S'w'
I8801
tp86
a(S'p1_tl'
I226
tp87
a(S'w'
I1
tp88
a(S'p1_ll'
I31
tp89
a(S'w'
I4402
tp90
a(S'p1_tl'
I213
tp91
a(S'w'
I1
tp92
a(S'p1_ll'
I31
tp93
a(S'w'
I4
tp94
a(S'p2_tl'
I171
tp95
a(S'p2_ll'
I31
tp96
a(S'w'
I13203
tp97
a(S'p1_tl'
I106
tp98
a(S'w'
I1
tp99
a(S'p1_ll'
I31
tp100
a(S'w'
I7338
tp101
a(S'p2_vo'
I13
tp102
a(S'w'
I1
tp103
a(S'p2_ll'
I31
tp104
a(S'w'
I1464
tp105
a(S'p1_vo'
I13
tp106
a(S'w'
I1
tp107
a(S'p1_tl'
I213
tp108
a(S'w'
I1
tp109
a(S'p1_ll'
I31
tp110
a(S'w'
I16164
tp111
a(S'p2_du'
I0
tp112
a(S'p2_cv'
I1
tp113
a(S'p2_vo'
I0
tp114
a(S'w'
I1466
tp115
a(S'p1_du'
I0
tp116
a(S'p1_cv'
I1
tp117
a(S'p1_vo'
I0
tp118
a(S'w'
I45122
tp119
a.