(lp1
(S'clock'
p2
I1789772
tp3
a(S'ch_no'
I1
tp4
a(S'ch_tr'
I1
tp5
a(S'ch_p2'
I1
tp6
a(S'ch_p1'
I1
tp7
a(S'fc_mo'
I1
tp8
a(S'w'
I30
tp9
a(S'p1_cv'
I1
tp10
a(S'w'
I1
tp11
a(S'p2_cv'
I1
tp12
a(S'w'
I1
tp13
a(S'w'
I1
tp14
a(S'w'
I725
tp15
a(S'p1_du'
I2
tp16
a(S'p1_cv'
I0
tp17
a(S'p1_vo'
I1
tp18
a(S'w'
I1
tp19
a(S'p1_sp'
I7
tp20
a(S'p1_sn'
I1
tp21
a(S'p1_ss'
I7
tp22
a(S'w'
I1
tp23
a(S'p1_tl'
I151
tp24
a(S'p1_ll'
I31
tp25
a(S'w'
I3
tp26
a(S'p2_du'
I2
tp27
a(S'p2_cv'
I0
tp28
a(S'p2_vo'
I1
tp29
a(S'p2_sp'
I7
tp30
a(S'p2_sn'
I1
tp31
a(S'p2_ss'
I7
tp32
a(S'w'
I1
tp33
a(S'p2_tl'
I171
tp34
a(S'w'
I1
tp35
a(S'p2_ll'
I31
tp36
a(S'p2_th'
I1
tp37
a(S'w'
I5866
tp38
a(S'p1_tl'
I142
tp39
a(S'p1_ll'
I31
tp40
a(S'w'
I4
tp41
a(S'p2_tl'
I29
tp42
a(S'w'
I1
tp43
a(S'p2_ll'
I31
tp44
a(S'w'
I5865
tp45
a(S'p1_ll'
I31
tp46
a(S'w'
I4
tp47
a(S'p2_tl'
I171
tp48
a(S'w'
I1
tp49
a(S'p2_ll'
I31
tp50
a(S'w'
I5865
tp51
a(S'p1_ll'
I31
tp52
a(S'w'
I4
tp53
a(S'p2_tl'
I29
tp54
a(S'w'
I1
tp55
a(S'p2_ll'
I31
tp56
a(S'w'
I5867
tp57
a(S'p2_tl'
I197
tp58
a(S'w'
I1
tp59
a(S'p2_ll'
I31
tp60
a(S'w'
I5868
tp61
a(S'p1_ll'
I31
tp62
a(S'w'
I4
tp63
a(S'p2_tl'
I29
tp64
a(S'w'
I1
tp65
a(S'p2_ll'
I31
tp66
a(S'w'
I5865
tp67
a(S'p1_ll'
I31
tp68
a(S'w'
I4
tp69
a(S'p2_tl'
I197
tp70
a(S'w'
I1
tp71
a(S'p2_ll'
I31
tp72
a(S'w'
I5866
tp73
a(S'p1_ll'
I31
tp74
a(S'w'
I4
tp75
a(S'p2_tl'
I29
tp76
a(S'w'
I1
tp77
a(S'p2_ll'
I31
tp78
a(S'w'
I5865
tp79
a(S'p1_ll'
I31
tp80
a(S'w'
I4
tp81
a(S'p2_tl'
I224
tp82
a(S'w'
I1
tp83
a(S'p2_ll'
I31
tp84
a(S'w'
I5865
tp85
a(S'p1_ll'
I31
tp86
a(S'w'
I4
tp87
a(S'p2_tl'
I29
tp88
a(S'w'
I1
tp89
a(S'p2_ll'
I31
tp90
a(S'w'
I5866
tp91
a(S'p1_ll'
I31
tp92
a(S'w'
I4
tp93
a(S'p2_tl'
I224
tp94
a(S'w'
I1
tp95
a(S'p2_ll'
I31
tp96
a(S'w'
I5865
tp97
a(S'p1_ll'
I31
tp98
a(S'w'
I4
tp99
a(S'p2_tl'
I29
tp100
a(S'w'
I1
tp101
a(S'p2_ll'
I31
tp102
a(S'w'
I5866
tp103
a(S'p2_tl'
I252
tp104
a(S'w'
I1
tp105
a(S'p2_ll'
I31
tp106
a(S'w'
I5869
tp107
a(S'p1_ll'
I31
tp108
a(S'w'
I4
tp109
a(S'p2_tl'
I29
tp110
a(S'w'
I1
tp111
a(S'p2_ll'
I31
tp112
a(S'w'
I5865
tp113
a(S'p1_ll'
I31
tp114
a(S'w'
I4
tp115
a(S'p2_tl'
I252
tp116
a(S'w'
I1
tp117
a(S'p2_ll'
I31
tp118
a(S'w'
I5865
tp119
a(S'p1_ll'
I31
tp120
a(S'w'
I4
tp121
a(S'p2_tl'
I29
tp122
a(S'w'
I1
tp123
a(S'p2_ll'
I31
tp124
a(S'w'
I5866
tp125
a(S'p1_tl'
I169
tp126
a(S'p1_ll'
I31
tp127
a(S'w'
I4
tp128
a(S'p2_tl'
I27
tp129
a(S'w'
I1
tp130
a(S'p2_ll'
I31
tp131
a(S'p2_th'
I2
tp132
a(S'w'
I5866
tp133
a(S'p2_tl'
I64
tp134
a(S'w'
I1
tp135
a(S'p2_ll'
I31
tp136
a(S'p2_th'
I1
tp137
a(S'w'
I5868
tp138
a(S'p1_tl'
I190
tp139
a(S'p1_ll'
I31
tp140
a(S'w'
I4
tp141
a(S'p2_tl'
I27
tp142
a(S'w'
I1
tp143
a(S'p2_ll'
I31
tp144
a(S'p2_th'
I2
tp145
a(S'w'
I5866
tp146
a(S'p1_tl'
I169
tp147
a(S'p1_ll'
I31
tp148
a(S'w'
I4
tp149
a(S'p2_tl'
I64
tp150
a(S'w'
I1
tp151
a(S'p2_ll'
I31
tp152
a(S'p2_th'
I1
tp153
a(S'w'
I5866
tp154
a(S'p2_tl'
I27
tp155
a(S'w'
I1
tp156
a(S'p2_ll'
I31
tp157
a(S'p2_th'
I2
tp158
a(S'w'
I5868
tp159
a(S'p1_tl'
I190
tp160
a(S'p1_ll'
I31
tp161
a(S'w'
I4
tp162
a(S'p2_tl'
I64
tp163
a(S'w'
I1
tp164
a(S'p2_ll'
I31
tp165
a(S'p2_th'
I1
tp166
a(S'w'
I5866
tp167
a(S'p1_tl'
I169
tp168
a(S'p1_ll'
I31
tp169
a(S'w'
I4
tp170
a(S'p2_tl'
I27
tp171
a(S'w'
I1
tp172
a(S'p2_ll'
I31
tp173
a(S'p2_th'
I2
tp174
a(S'w'
I5865
tp175
a(S'p1_tl'
I190
tp176
a(S'p1_ll'
I31
tp177
a(S'w'
I4
tp178
a(S'p2_tl'
I64
tp179
a(S'w'
I1
tp180
a(S'p2_ll'
I31
tp181
a(S'p2_th'
I1
tp182
a(S'w'
I5865
tp183
a(S'p1_tl'
I169
tp184
a(S'p1_ll'
I31
tp185
a(S'w'
I4
tp186
a(S'p2_tl'
I59
tp187
a(S'w'
I1
tp188
a(S'p2_ll'
I31
tp189
a(S'p2_th'
I2
tp190
a(S'w'
I5867
tp191
a(S'p2_tl'
I64
tp192
a(S'w'
I1
tp193
a(S'p2_ll'
I31
tp194
a(S'p2_th'
I1
tp195
a(S'w'
I5869
tp196
a(S'p2_tl'
I59
tp197
a(S'w'
I1
tp198
a(S'p2_ll'
I31
tp199
a(S'p2_th'
I2
tp200
a(S'w'
I5869
tp201
a(S'p2_tl'
I64
tp202
a(S'w'
I1
tp203
a(S'p2_ll'
I31
tp204
a(S'p2_th'
I1
tp205
a(S'w'
I5869
tp206
a(S'p1_tl'
I190
tp207
a(S'p1_ll'
I31
tp208
a(S'w'
I4
tp209
a(S'p2_tl'
I252
tp210
a(S'w'
I1
tp211
a(S'p2_ll'
I31
tp212
a(S'w'
I5866
tp213
a(S'p2_tl'
I64
tp214
a(S'w'
I1
tp215
a(S'p2_ll'
I31
tp216
a(S'w'
I5869
tp217
a(S'p2_tl'
I197
tp218
a(S'w'
I1
tp219
a(S'p2_ll'
I31
tp220
a(S'w'
I5870
tp221
a(S'p2_tl'
I64
tp222
a(S'w'
I1
tp223
a(S'p2_ll'
I31
tp224
a(S'w'
I5868
tp225
a(S'p1_tl'
I179
tp226
a(S'p1_ll'
I31
tp227
a(S'w'
I4
tp228
a(S'p2_tl'
I171
tp229
a(S'w'
I1
tp230
a(S'p2_ll'
I31
tp231
a(S'w'
I5865
tp232
a(S'p1_tl'
I169
tp233
a(S'p1_ll'
I31
tp234
a(S'w'
I4
tp235
a(S'p2_tl'
I29
tp236
a(S'w'
I1
tp237
a(S'p2_ll'
I31
tp238
a(S'w'
I5866
tp239
a(S'p1_ll'
I31
tp240
a(S'w'
I4
tp241
a(S'p2_tl'
I171
tp242
a(S'w'
I1
tp243
a(S'p2_ll'
I31
tp244
a(S'w'
I5865
tp245
a(S'p1_ll'
I31
tp246
a(S'w'
I4
tp247
a(S'p2_tl'
I29
tp248
a(S'w'
I1
tp249
a(S'p2_ll'
I31
tp250
a(S'w'
I5866
tp251
a(S'p2_tl'
I197
tp252
a(S'w'
I1
tp253
a(S'p2_ll'
I31
tp254
a(S'w'
I5869
tp255
a(S'p1_ll'
I31
tp256
a(S'w'
I4
tp257
a(S'p2_tl'
I29
tp258
a(S'w'
I1
tp259
a(S'p2_ll'
I31
tp260
a(S'w'
I5865
tp261
a(S'p1_ll'
I31
tp262
a(S'w'
I4
tp263
a(S'p2_tl'
I197
tp264
a(S'w'
I1
tp265
a(S'p2_ll'
I31
tp266
a(S'w'
I5865
tp267
a(S'p1_ll'
I31
tp268
a(S'w'
I4
tp269
a(S'p2_tl'
I29
tp270
a(S'w'
I1
tp271
a(S'p2_ll'
I31
tp272
a(S'w'
I5866
tp273
a(S'p1_ll'
I31
tp274
a(S'w'
I4
tp275
a(S'p2_tl'
I224
tp276
a(S'w'
I1
tp277
a(S'p2_ll'
I31
tp278
a(S'w'
I5865
tp279
a(S'p1_ll'
I31
tp280
a(S'w'
I4
tp281
a(S'p2_tl'
I29
tp282
a(S'w'
I1
tp283
a(S'p2_ll'
I31
tp284
a(S'w'
I5865
tp285
a(S'p1_ll'
I31
tp286
a(S'w'
I4
tp287
a(S'p2_tl'
I224
tp288
a(S'w'
I1
tp289
a(S'p2_ll'
I31
tp290
a(S'w'
I5866
tp291
a(S'p1_ll'
I31
tp292
a(S'w'
I4
tp293
a(S'p2_tl'
I29
tp294
a(S'w'
I1
tp295
a(S'p2_ll'
I31
tp296
a(S'w'
I5866
tp297
a(S'p2_tl'
I252
tp298
a(S'w'
I1
tp299
a(S'p2_ll'
I31
tp300
a(S'w'
I5868
tp301
a(S'p1_ll'
I31
tp302
a(S'w'
I4
tp303
a(S'p2_tl'
I29
tp304
a(S'w'
I1
tp305
a(S'p2_ll'
I31
tp306
a(S'w'
I5866
tp307
a(S'p1_ll'
I31
tp308
a(S'w'
I4
tp309
a(S'p2_tl'
I252
tp310
a(S'w'
I1
tp311
a(S'p2_ll'
I31
tp312
a(S'w'
I5865
tp313
a(S'p1_ll'
I31
tp314
a(S'w'
I4
tp315
a(S'p2_tl'
I29
tp316
a(S'w'
I1
tp317
a(S'p2_ll'
I31
tp318
a(S'w'
I5865
tp319
a(S'p1_ll'
I31
tp320
a(S'w'
I4
tp321
a(S'p2_tl'
I27
tp322
a(S'w'
I1
tp323
a(S'p2_ll'
I31
tp324
a(S'p2_th'
I2
tp325
a(S'w'
I5867
tp326
a(S'p2_tl'
I64
tp327
a(S'w'
I1
tp328
a(S'p2_ll'
I31
tp329
a(S'p2_th'
I1
tp330
a(S'w'
I5868
tp331
a(S'p1_tl'
I190
tp332
a(S'p1_ll'
I31
tp333
a(S'w'
I4
tp334
a(S'p2_tl'
I27
tp335
a(S'w'
I1
tp336
a(S'p2_ll'
I31
tp337
a(S'p2_th'
I2
tp338
a(S'w'
I5865
tp339
a(S'p1_tl'
I169
tp340
a(S'p1_ll'
I31
tp341
a(S'w'
I4
tp342
a(S'p2_tl'
I64
tp343
a(S'w'
I1
tp344
a(S'p2_ll'
I31
tp345
a(S'p2_th'
I1
tp346
a(S'w'
I5867
tp347
a(S'p2_tl'
I27
tp348
a(S'w'
I1
tp349
a(S'p2_ll'
I31
tp350
a(S'p2_th'
I2
tp351
a(S'w'
I5868
tp352
a(S'p1_tl'
I190
tp353
a(S'p1_ll'
I31
tp354
a(S'w'
I4
tp355
a(S'p2_tl'
I64
tp356
a(S'w'
I1
tp357
a(S'p2_ll'
I31
tp358
a(S'p2_th'
I1
tp359
a(S'w'
I5865
tp360
a(S'p1_tl'
I169
tp361
a(S'p1_ll'
I31
tp362
a(S'w'
I4
tp363
a(S'p2_tl'
I27
tp364
a(S'w'
I1
tp365
a(S'p2_ll'
I31
tp366
a(S'p2_th'
I2
tp367
a(S'w'
I5866
tp368
a(S'p1_tl'
I190
tp369
a(S'p1_ll'
I31
tp370
a(S'w'
I4
tp371
a(S'p2_tl'
I64
tp372
a(S'w'
I1
tp373
a(S'p2_ll'
I31
tp374
a(S'p2_th'
I1
tp375
a(S'w'
I5865
tp376
a(S'p1_tl'
I142
tp377
a(S'p1_ll'
I31
tp378
a(S'w'
I4
tp379
a(S'p2_tl'
I59
tp380
a(S'w'
I1
tp381
a(S'p2_ll'
I31
tp382
a(S'p2_th'
I2
tp383
a(S'w'
I5866
tp384
a(S'p2_tl'
I64
tp385
a(S'w'
I1
tp386
a(S'p2_ll'
I31
tp387
a(S'p2_th'
I1
tp388
a(S'w'
I5870
tp389
a(S'p2_tl'
I59
tp390
a(S'w'
I1
tp391
a(S'p2_ll'
I31
tp392
a(S'p2_th'
I2
tp393
a(S'w'
I5869
tp394
a(S'p2_tl'
I64
tp395
a(S'w'
I1
tp396
a(S'p2_ll'
I31
tp397
a(S'p2_th'
I1
tp398
a(S'w'
I5869
tp399
a(S'p2_tl'
I252
tp400
a(S'w'
I1
tp401
a(S'p2_ll'
I31
tp402
a(S'w'
I5870
tp403
a(S'p2_tl'
I64
tp404
a(S'w'
I1
tp405
a(S'p2_ll'
I31
tp406
a(S'w'
I5869
tp407
a(S'p2_tl'
I197
tp408
a(S'w'
I1
tp409
a(S'p2_ll'
I31
tp410
a(S'w'
I5869
tp411
a(S'p2_tl'
I64
tp412
a(S'w'
I1
tp413
a(S'p2_ll'
I31
tp414
a(S'w'
I5869
tp415
a(S'p1_tl'
I151
tp416
a(S'p1_ll'
I31
tp417
a(S'w'
I4
tp418
a.