(lp1
(S'clock'
p2
I1789772
tp3
a(S'ch_no'
I1
tp4
a(S'ch_tr'
I1
tp5
a(S'ch_p2'
I1
tp6
a(S'ch_p1'
I1
tp7
a(S'fc_mo'
I1
tp8
a(S'w'
I30
tp9
a(S'p1_cv'
I1
tp10
a(S'w'
I1
tp11
a(S'p2_cv'
I1
tp12
a(S'w'
I1
tp13
a(S'w'
I1
tp14
a(S'w'
I714
tp15
a(S'p1_du'
I3
tp16
a(S'p1_cv'
I0
tp17
a(S'p1_vo'
I1
tp18
a(S'p1_sp'
I7
tp19
a(S'p1_sn'
I1
tp20
a(S'p1_ss'
I7
tp21
a(S'w'
I1
tp22
a(S'p1_tl'
I142
tp23
a(S'w'
I1
tp24
a(S'p1_ll'
I15
tp25
a(S'w'
I2
tp26
a(S'p2_du'
I3
tp27
a(S'p2_cv'
I0
tp28
a(S'p2_vo'
I2
tp29
a(S'w'
I1
tp30
a(S'p2_sp'
I7
tp31
a(S'p2_sn'
I1
tp32
a(S'p2_ss'
I7
tp33
a(S'p2_tl'
I171
tp34
a(S'w'
I1
tp35
a(S'p2_ll'
I15
tp36
a(S'p2_th'
I1
tp37
a(S'w'
I5866
tp38
a(S'w'
I1
tp39
a(S'p1_ll'
I15
tp40
a(S'w'
I4
tp41
a(S'p2_tl'
I59
tp42
a(S'p2_ll'
I15
tp43
a(S'p2_th'
I2
tp44
a(S'w'
I5865
tp45
a(S'p1_tl'
I169
tp46
a(S'w'
I1
tp47
a(S'p1_ll'
I15
tp48
a(S'w'
I5869
tp49
a(S'p1_tl'
I142
tp50
a(S'w'
I1
tp51
a(S'p1_ll'
I15
tp52
a(S'w'
I4
tp53
a(S'p2_ll'
I15
tp54
a(S'w'
I5866
tp55
a(S'p1_tl'
I127
tp56
a(S'w'
I1
tp57
a(S'p1_ll'
I15
tp58
a(S'w'
I4
tp59
a(S'p2_tl'
I171
tp60
a(S'p2_ll'
I15
tp61
a(S'p2_th'
I1
tp62
a(S'w'
I5865
tp63
a(S'p1_tl'
I113
tp64
a(S'w'
I1
tp65
a(S'p1_ll'
I15
tp66
a(S'w'
I3
tp67
a(S'p2_tl'
I59
tp68
a(S'w'
I1
tp69
a(S'p2_ll'
I15
tp70
a(S'p2_th'
I2
tp71
a(S'w'
I5865
tp72
a(S'p1_tl'
I106
tp73
a(S'w'
I1
tp74
a(S'p1_ll'
I15
tp75
a(S'w'
I5870
tp76
a(S'p1_tl'
I95
tp77
a(S'w'
I1
tp78
a(S'p1_ll'
I15
tp79
a(S'w'
I4
tp80
a(S'p2_ll'
I15
tp81
a(S'w'
I5865
tp82
a(S'p1_tl'
I84
tp83
a(S'w'
I1
tp84
a(S'p1_ll'
I15
tp85
a(S'w'
I3
tp86
a(S'p2_tl'
I171
tp87
a(S'w'
I1
tp88
a(S'p2_ll'
I15
tp89
a(S'p2_th'
I1
tp90
a(S'w'
I5865
tp91
a(S'w'
I1
tp92
a(S'p1_ll'
I15
tp93
a(S'w'
I4
tp94
a(S'p2_tl'
I59
tp95
a(S'p2_ll'
I15
tp96
a(S'p2_th'
I2
tp97
a(S'w'
I5866
tp98
a(S'w'
I1
tp99
a(S'p1_ll'
I15
tp100
a(S'w'
I5869
tp101
a(S'w'
I1
tp102
a(S'p1_ll'
I15
tp103
a(S'w'
I3
tp104
a(S'w'
I1
tp105
a(S'p2_ll'
I15
tp106
a(S'w'
I11737
tp107
a(S'p2_vo'
I1
tp108
a(S'w'
I1
tp109
a(S'p2_ll'
I15
tp110
a(S'w'
I5870
tp111
a(S'p2_ll'
I15
tp112
a(S'w'
I5870
tp113
a(S'p2_ll'
I15
tp114
a(S'w'
I5885
tp115
a(S'p1_du'
I0
tp116
a(S'p1_cv'
I1
tp117
a(S'p1_vo'
I0
tp118
a(S'w'
I1
tp119
a(S'p2_du'
I0
tp120
a(S'p2_cv'
I1
tp121
a(S'p2_vo'
I0
tp122
a(S'w'
I38429
tp123
a.