(lp1
(S'clock'
p2
I1789772
tp3
a(S'p1_du'
I2
tp4
a(S'p1_cv'
I1
tp5
a(S'p1_se'
I1
tp6
a(S'p1_ss'
I3
tp7
a(S'p1_tl'
I185
tp8
a(S'p1_ll'
I17
tp9
a(S'p2_du'
I2
tp10
a(S'p2_cv'
I1
tp11
a(S'p2_se'
I1
tp12
a(S'p2_ss'
I5
tp13
a(S'p2_tl'
I248
tp14
a(S'p2_ll'
I1
tp15
a(S'p2_th'
I3
tp16
a(S'tr_lr'
I16
tp17
a(S'tr_tl'
I28
tp18
a(S'tr_ll'
I1
tp19
a(S'tr_th'
I1
tp20
a(S'ch_no'
I1
tp21
a(S'ch_tr'
I1
tp22
a(S'ch_p2'
I1
tp23
a(S'ch_p1'
I1
tp24
a(S'fc_mo'
I1
tp25
a(S'tr_tl'
I70
tp26
a(S'tr_ll'
I1
tp27
a(S'tr_th'
I0
tp28
a(S'w'
I723
tp29
a(S'fc_mo'
I1
tp30
a(S'w'
I734
tp31
a(S'fc_mo'
I1
tp32
a(S'w'
I734
tp33
a(S'fc_mo'
I1
tp34
a(S'w'
I734
tp35
a(S'fc_mo'
I1
tp36
a(S'w'
I734
tp37
a(S'fc_mo'
I1
tp38
a(S'w'
I733
tp39
a(S'fc_mo'
I1
tp40
a(S'w'
I734
tp41
a(S'fc_mo'
I1
tp42
a(S'w'
I734
tp43
a(S'fc_mo'
I1
tp44
a(S'w'
I734
tp45
a(S'fc_mo'
I1
tp46
a(S'w'
I4
tp47
a(S'tr_tl'
I83
tp48
a(S'w'
I1
tp49
a(S'tr_ll'
I1
tp50
a(S'w'
I729
tp51
a(S'fc_mo'
I1
tp52
a(S'w'
I733
tp53
a(S'fc_mo'
I1
tp54
a(S'w'
I734
tp55
a(S'fc_mo'
I1
tp56
a(S'w'
I734
tp57
a(S'fc_mo'
I1
tp58
a(S'w'
I734
tp59
a(S'fc_mo'
I1
tp60
a(S'w'
I734
tp61
a(S'fc_mo'
I1
tp62
a(S'w'
I733
tp63
a(S'fc_mo'
I1
tp64
a(S'w'
I734
tp65
a(S'fc_mo'
I1
tp66
a(S'w'
I734
tp67
a(S'fc_mo'
I1
tp68
a(S'w'
I5
tp69
a(S'tr_tl'
I105
tp70
a(S'tr_ll'
I1
tp71
a(S'w'
I729
tp72
a(S'fc_mo'
I1
tp73
a(S'w'
I734
tp74
a(S'fc_mo'
I1
tp75
a(S'w'
I733
tp76
a(S'fc_mo'
I1
tp77
a(S'w'
I734
tp78
a(S'fc_mo'
I1
tp79
a(S'w'
I734
tp80
a(S'fc_mo'
I1
tp81
a(S'w'
I734
tp82
a(S'fc_mo'
I1
tp83
a(S'w'
I734
tp84
a(S'fc_mo'
I1
tp85
a(S'w'
I734
tp86
a(S'fc_mo'
I1
tp87
a(S'w'
I733
tp88
a(S'fc_mo'
I1
tp89
a(S'w'
I7
tp90
a(S'tr_tl'
I70
tp91
a(S'tr_ll'
I1
tp92
a(S'w'
I727
tp93
a(S'fc_mo'
I1
tp94
a(S'w'
I734
tp95
a(S'fc_mo'
I1
tp96
a(S'w'
I734
tp97
a(S'fc_mo'
I1
tp98
a(S'w'
I733
tp99
a(S'fc_mo'
I1
tp100
a(S'w'
I734
tp101
a(S'fc_mo'
I1
tp102
a(S'w'
I734
tp103
a(S'fc_mo'
I1
tp104
a(S'w'
I734
tp105
a(S'fc_mo'
I1
tp106
a(S'w'
I734
tp107
a(S'fc_mo'
I1
tp108
a(S'w'
I733
tp109
a(S'fc_mo'
I1
tp110
a(S'w'
I5
tp111
a(S'tr_tl'
I83
tp112
a(S'tr_ll'
I1
tp113
a(S'w'
I729
tp114
a(S'fc_mo'
I1
tp115
a(S'w'
I734
tp116
a(S'fc_mo'
I1
tp117
a(S'w'
I734
tp118
a(S'fc_mo'
I1
tp119
a(S'w'
I734
tp120
a(S'fc_mo'
I1
tp121
a(S'w'
I733
tp122
a(S'fc_mo'
I1
tp123
a(S'w'
I734
tp124
a(S'fc_mo'
I1
tp125
a(S'w'
I734
tp126
a(S'fc_mo'
I1
tp127
a(S'w'
I734
tp128
a(S'fc_mo'
I1
tp129
a(S'w'
I734
tp130
a(S'fc_mo'
I1
tp131
a(S'w'
I4
tp132
a(S'tr_tl'
I105
tp133
a(S'w'
I1
tp134
a(S'tr_ll'
I1
tp135
a(S'w'
I728
tp136
a(S'fc_mo'
I1
tp137
a(S'w'
I734
tp138
a(S'fc_mo'
I1
tp139
a(S'w'
I734
tp140
a(S'fc_mo'
I1
tp141
a(S'w'
I734
tp142
a(S'fc_mo'
I1
tp143
a(S'w'
I734
tp144
a(S'fc_mo'
I1
tp145
a(S'w'
I733
tp146
a(S'fc_mo'
I1
tp147
a(S'w'
I734
tp148
a(S'fc_mo'
I1
tp149
a(S'w'
I734
tp150
a(S'fc_mo'
I1
tp151
a(S'w'
I734
tp152
a(S'fc_mo'
I1
tp153
a(S'w'
I7
tp154
a(S'tr_tl'
I70
tp155
a(S'tr_ll'
I1
tp156
a(S'w'
I727
tp157
a(S'fc_mo'
I1
tp158
a(S'w'
I733
tp159
a(S'fc_mo'
I1
tp160
a(S'w'
I734
tp161
a(S'fc_mo'
I1
tp162
a(S'w'
I734
tp163
a(S'fc_mo'
I1
tp164
a(S'w'
I734
tp165
a(S'fc_mo'
I1
tp166
a(S'w'
I734
tp167
a(S'fc_mo'
I1
tp168
a(S'w'
I733
tp169
a(S'fc_mo'
I1
tp170
a(S'w'
I734
tp171
a(S'fc_mo'
I1
tp172
a(S'w'
I734
tp173
a(S'fc_mo'
I1
tp174
a(S'w'
I5
tp175
a(S'tr_tl'
I83
tp176
a(S'tr_ll'
I1
tp177
a(S'w'
I729
tp178
a(S'fc_mo'
I1
tp179
a(S'w'
I734
tp180
a(S'fc_mo'
I1
tp181
a(S'w'
I734
tp182
a(S'fc_mo'
I1
tp183
a(S'w'
I733
tp184
a(S'fc_mo'
I1
tp185
a(S'w'
I734
tp186
a(S'fc_mo'
I1
tp187
a(S'w'
I734
tp188
a(S'fc_mo'
I1
tp189
a(S'w'
I734
tp190
a(S'fc_mo'
I1
tp191
a(S'w'
I733
tp192
a(S'fc_mo'
I1
tp193
a(S'w'
I734
tp194
a(S'fc_mo'
I1
tp195
a(S'w'
I5
tp196
a(S'tr_tl'
I105
tp197
a(S'tr_ll'
I1
tp198
a(S'w'
I729
tp199
a(S'fc_mo'
I1
tp200
a(S'w'
I734
tp201
a(S'fc_mo'
I1
tp202
a(S'w'
I734
tp203
a(S'fc_mo'
I1
tp204
a(S'w'
I733
tp205
a(S'fc_mo'
I1
tp206
a(S'w'
I734
tp207
a(S'fc_mo'
I1
tp208
a(S'w'
I734
tp209
a(S'fc_mo'
I1
tp210
a(S'w'
I734
tp211
a(S'fc_mo'
I1
tp212
a(S'w'
I734
tp213
a(S'fc_mo'
I1
tp214
a(S'w'
I734
tp215
a(S'fc_mo'
I1
tp216
a(S'w'
I6
tp217
a(S'tr_tl'
I70
tp218
a(S'tr_ll'
I1
tp219
a(S'w'
I727
tp220
a(S'fc_mo'
I1
tp221
a(S'w'
I734
tp222
a(S'fc_mo'
I1
tp223
a(S'w'
I734
tp224
a(S'fc_mo'
I1
tp225
a(S'w'
I734
tp226
a(S'fc_mo'
I1
tp227
a(S'w'
I734
tp228
a(S'fc_mo'
I1
tp229
a(S'w'
I733
tp230
a(S'fc_mo'
I1
tp231
a(S'w'
I734
tp232
a(S'fc_mo'
I1
tp233
a(S'w'
I734
tp234
a(S'fc_mo'
I1
tp235
a(S'w'
I734
tp236
a(S'fc_mo'
I1
tp237
a(S'w'
I4
tp238
a(S'tr_tl'
I83
tp239
a(S'w'
I1
tp240
a(S'tr_ll'
I1
tp241
a(S'w'
I729
tp242
a(S'fc_mo'
I1
tp243
a(S'w'
I733
tp244
a(S'fc_mo'
I1
tp245
a(S'w'
I734
tp246
a(S'fc_mo'
I1
tp247
a(S'w'
I734
tp248
a(S'fc_mo'
I1
tp249
a(S'w'
I734
tp250
a(S'fc_mo'
I1
tp251
a(S'w'
I734
tp252
a(S'fc_mo'
I1
tp253
a(S'w'
I733
tp254
a(S'fc_mo'
I1
tp255
a(S'w'
I734
tp256
a(S'fc_mo'
I1
tp257
a(S'w'
I734
tp258
a(S'fc_mo'
I1
tp259
a(S'w'
I5
tp260
a(S'tr_tl'
I105
tp261
a(S'tr_ll'
I1
tp262
a(S'w'
I729
tp263
a(S'fc_mo'
I1
tp264
a(S'w'
I733
tp265
a(S'fc_mo'
I1
tp266
a(S'w'
I734
tp267
a(S'fc_mo'
I1
tp268
a(S'w'
I734
tp269
a(S'fc_mo'
I1
tp270
a(S'w'
I734
tp271
a(S'fc_mo'
I1
tp272
a(S'w'
I734
tp273
a(S'fc_mo'
I1
tp274
a(S'w'
I734
tp275
a(S'fc_mo'
I1
tp276
a(S'w'
I733
tp277
a(S'fc_mo'
I1
tp278
a(S'w'
I734
tp279
a(S'fc_mo'
I1
tp280
a(S'w'
I7
tp281
a.