(lp1
(S'clock'
p2
I1789772
tp3
a(S'p1_du'
I2
tp4
a(S'p1_cv'
I1
tp5
a(S'p1_sp'
I7
tp6
a(S'p1_sn'
I1
tp7
a(S'p1_ss'
I7
tp8
a(S'p1_tl'
I159
tp9
a(S'p1_ll'
I1
tp10
a(S'p2_du'
I2
tp11
a(S'p2_cv'
I1
tp12
a(S'p2_sp'
I7
tp13
a(S'p2_sn'
I1
tp14
a(S'p2_ss'
I7
tp15
a(S'p2_tl'
I105
tp16
a(S'p2_ll'
I1
tp17
a(S'tr_tl'
I62
tp18
a(S'tr_ll'
I1
tp19
a(S'ch_no'
I1
tp20
a(S'ch_tr'
I1
tp21
a(S'ch_p2'
I1
tp22
a(S'ch_p1'
I1
tp23
a(S'fc_mo'
I1
tp24
a(S'p2_du'
I0
tp25
a(S'p2_cv'
I0
tp26
a(S'p2_vo'
I1
tp27
a(S'w'
I1
tp28
a(S'w'
I3
tp29
a(S'p2_tl'
I39
tp30
a(S'p2_ll'
I1
tp31
a(S'p2_th'
I3
tp32
a(S'w'
I3
tp33
a(S'p1_cv'
I0
tp34
a(S'p1_vo'
I1
tp35
a(S'w'
I3
tp36
a(S'p1_tl'
I26
tp37
a(S'p1_ll'
I1
tp38
a(S'p1_th'
I2
tp39
a(S'w'
I729
tp40
a(S'fc_mo'
I1
tp41
a(S'w'
I3654
tp42
a(S'p1_du'
I0
tp43
a(S'p1_cv'
I1
tp44
a(S'p1_vo'
I0
tp45
a(S'w'
I4405
tp46
a(S'p2_tl'
I128
tp47
a(S'w'
I1
tp48
a(S'p2_ll'
I1
tp49
a(S'p2_th'
I2
tp50
a(S'w'
I2
tp51
a(S'p1_du'
I2
tp52
a(S'p1_cv'
I0
tp53
a(S'p1_vo'
I1
tp54
a(S'w'
I4
tp55
a(S'p1_tl'
I147
tp56
a(S'p1_ll'
I1
tp57
a(S'p1_th'
I1
tp58
a(S'w'
I4394
tp59
a(S'p1_du'
I0
tp60
a(S'p1_cv'
I1
tp61
a(S'p1_vo'
I0
tp62
a(S'w'
I4403
tp63
a(S'p2_tl'
I1
tp64
a(S'p2_ll'
I1
tp65
a(S'p2_th'
I5
tp66
a(S'w'
I2
tp67
a(S'p1_du'
I2
tp68
a(S'p1_cv'
I0
tp69
a(S'p1_vo'
I1
tp70
a(S'w'
I4
tp71
a(S'p1_tl'
I103
tp72
a(S'p1_ll'
I1
tp73
a(S'w'
I4399
tp74
a(S'p1_tl'
I147
tp75
a(S'p1_ll'
I1
tp76
a(S'w'
I4402
tp77
a(S'p2_tl'
I128
tp78
a(S'w'
I1
tp79
a(S'p2_ll'
I1
tp80
a(S'p2_th'
I2
tp81
a(S'w'
I2
tp82
a(S'p1_du'
I0
tp83
a(S'p1_cv'
I1
tp84
a(S'p1_vo'
I0
tp85
a(S'w'
I4398
tp86
a(S'p1_du'
I2
tp87
a(S'p1_cv'
I0
tp88
a(S'p1_vo'
I1
tp89
a(S'w'
I4
tp90
a(S'p1_tl'
I45
tp91
a(S'p1_ll'
I1
tp92
a(S'w'
I4400
tp93
a(S'p2_tl'
I207
tp94
a(S'p2_ll'
I1
tp95
a(S'w'
I3
tp96
a(S'p1_du'
I0
tp97
a(S'p1_cv'
I1
tp98
a(S'p1_vo'
I0
tp99
a(S'w'
I4398
tp100
a(S'p1_du'
I2
tp101
a(S'p1_cv'
I0
tp102
a(S'p1_vo'
I1
tp103
a(S'p1_du'
I0
tp104
a(S'p1_cv'
I1
tp105
a(S'p1_vo'
I0
tp106
a(S'w'
I4406
tp107
a(S'p2_tl'
I92
tp108
a(S'p2_ll'
I1
tp109
a(S'w'
I2
tp110
a(S'p1_du'
I2
tp111
a(S'p1_cv'
I0
tp112
a(S'p1_vo'
I1
tp113
a(S'w'
I4
tp114
a(S'p1_tl'
I63
tp115
a(S'p1_ll'
I1
tp116
a(S'w'
I4394
tp117
a(S'p1_du'
I0
tp118
a(S'p1_cv'
I1
tp119
a(S'p1_vo'
I0
tp120
a(S'w'
I4404
tp121
a(S'p2_tl'
I191
tp122
a(S'p2_ll'
I1
tp123
a(S'p2_th'
I3
tp124
a(S'w'
I2
tp125
a(S'p1_du'
I2
tp126
a(S'p1_cv'
I0
tp127
a(S'p1_vo'
I1
tp128
a(S'w'
I4
tp129
a(S'p1_tl'
I103
tp130
a(S'p1_ll'
I1
tp131
a(S'w'
I4398
tp132
a(S'p1_tl'
I147
tp133
a(S'p1_ll'
I1
tp134
a(S'w'
I4403
tp135
a(S'p2_tl'
I223
tp136
a(S'p2_ll'
I1
tp137
a(S'p2_th'
I1
tp138
a(S'w'
I3
tp139
a(S'p1_du'
I0
tp140
a(S'p1_cv'
I1
tp141
a(S'p1_vo'
I0
tp142
a(S'w'
I4397
tp143
a(S'p1_du'
I2
tp144
a(S'p1_cv'
I0
tp145
a(S'p1_vo'
I1
tp146
a(S'p1_du'
I0
tp147
a(S'p1_cv'
I1
tp148
a(S'p1_vo'
I0
tp149
a(S'w'
I4405
tp150
a(S'p2_tl'
I39
tp151
a(S'w'
I1
tp152
a(S'p2_ll'
I1
tp153
a(S'p2_th'
I3
tp154
a(S'w'
I2
tp155
a(S'p1_du'
I2
tp156
a(S'p1_cv'
I0
tp157
a(S'p1_vo'
I1
tp158
a(S'w'
I3
tp159
a(S'p1_tl'
I26
tp160
a(S'p1_ll'
I1
tp161
a(S'p1_th'
I2
tp162
a(S'w'
I4395
tp163
a(S'p1_du'
I0
tp164
a(S'p1_cv'
I1
tp165
a(S'p1_vo'
I0
tp166
a(S'w'
I4405
tp167
a(S'p2_tl'
I128
tp168
a(S'w'
I1
tp169
a(S'p2_ll'
I1
tp170
a(S'p2_th'
I2
tp171
a(S'w'
I2
tp172
a(S'p1_du'
I2
tp173
a(S'p1_cv'
I0
tp174
a(S'p1_vo'
I1
tp175
a(S'w'
I4
tp176
a(S'p1_tl'
I147
tp177
a(S'p1_ll'
I1
tp178
a(S'p1_th'
I1
tp179
a(S'w'
I4393
tp180
a(S'p1_du'
I0
tp181
a(S'p1_cv'
I1
tp182
a(S'p1_vo'
I0
tp183
a(S'w'
I4405
tp184
a(S'p2_tl'
I1
tp185
a(S'p2_ll'
I1
tp186
a(S'p2_th'
I5
tp187
a(S'w'
I2
tp188
a(S'p1_du'
I2
tp189
a(S'p1_cv'
I0
tp190
a(S'p1_vo'
I1
tp191
a(S'w'
I4
tp192
a(S'p1_tl'
I103
tp193
a(S'p1_ll'
I1
tp194
a(S'w'
I4398
tp195
a(S'p1_tl'
I147
tp196
a(S'p1_ll'
I1
tp197
a(S'w'
I4402
tp198
a(S'p2_tl'
I128
tp199
a(S'p2_ll'
I1
tp200
a(S'p2_th'
I2
tp201
a(S'w'
I2
tp202
a(S'p1_du'
I0
tp203
a(S'p1_cv'
I1
tp204
a(S'p1_vo'
I0
tp205
a(S'w'
I4397
tp206
a(S'p1_du'
I2
tp207
a(S'p1_cv'
I0
tp208
a(S'p1_vo'
I1
tp209
a(S'w'
I4
tp210
a(S'p1_tl'
I45
tp211
a(S'w'
I1
tp212
a(S'p1_ll'
I1
tp213
a(S'w'
I4402
tp214
a(S'p2_tl'
I207
tp215
a(S'p2_ll'
I1
tp216
a(S'w'
I3
tp217
a(S'p1_du'
I0
tp218
a(S'p1_cv'
I1
tp219
a(S'p1_vo'
I0
tp220
a(S'w'
I4396
tp221
a(S'p1_du'
I2
tp222
a(S'p1_cv'
I0
tp223
a(S'p1_vo'
I1
tp224
a(S'w'
I1
tp225
a(S'p1_du'
I0
tp226
a(S'p1_cv'
I1
tp227
a(S'p1_vo'
I0
tp228
a(S'w'
I4405
tp229
a(S'p2_tl'
I92
tp230
a(S'p2_ll'
I1
tp231
a(S'w'
I2
tp232
a(S'p1_du'
I2
tp233
a(S'p1_cv'
I0
tp234
a(S'p1_vo'
I1
tp235
a(S'w'
I4
tp236
a(S'p1_tl'
I63
tp237
a(S'p1_ll'
I1
tp238
a(S'w'
I4396
tp239
a(S'p1_du'
I0
tp240
a(S'p1_cv'
I1
tp241
a(S'p1_vo'
I0
tp242
a(S'w'
I4403
tp243
a(S'p2_tl'
I191
tp244
a(S'p2_ll'
I1
tp245
a(S'p2_th'
I3
tp246
a(S'w'
I2
tp247
a(S'p1_du'
I2
tp248
a(S'p1_cv'
I0
tp249
a(S'p1_vo'
I1
tp250
a(S'w'
I4
tp251
a(S'p1_tl'
I103
tp252
a(S'p1_ll'
I1
tp253
a(S'w'
I4400
tp254
a(S'p1_tl'
I147
tp255
a(S'p1_ll'
I1
tp256
a(S'w'
I4400
tp257
a(S'p2_tl'
I223
tp258
a(S'w'
I1
tp259
a(S'p2_ll'
I1
tp260
a(S'p2_th'
I1
tp261
a(S'w'
I2
tp262
a(S'p1_du'
I0
tp263
a(S'p1_cv'
I1
tp264
a(S'p1_vo'
I0
tp265
a(S'w'
I4398
tp266
a(S'p1_du'
I2
tp267
a(S'p1_cv'
I0
tp268
a(S'p1_vo'
I1
tp269
a(S'w'
I1
tp270
a(S'p1_du'
I0
tp271
a(S'p1_cv'
I1
tp272
a(S'p1_vo'
I0
tp273
a(S'w'
I4405
tp274
a(S'p2_tl'
I249
tp275
a(S'p2_ll'
I1
tp276
a(S'p2_th'
I2
tp277
a(S'w'
I2
tp278
a(S'p1_du'
I2
tp279
a(S'p1_cv'
I0
tp280
a(S'p1_vo'
I1
tp281
a(S'w'
I3
tp282
a(S'p1_tl'
I252
tp283
a(S'p1_ll'
I1
tp284
a(S'w'
I4394
tp285
a(S'p1_du'
I0
tp286
a(S'p1_cv'
I1
tp287
a(S'p1_vo'
I0
tp288
a(S'w'
I4405
tp289
a(S'p2_tl'
I92
tp290
a(S'p2_ll'
I1
tp291
a(S'w'
I2
tp292
a(S'p1_du'
I2
tp293
a(S'p1_cv'
I0
tp294
a(S'p1_vo'
I1
tp295
a(S'w'
I4
tp296
a(S'p1_tl'
I124
tp297
a(S'w'
I1
tp298
a(S'p1_ll'
I1
tp299
a(S'w'
I4395
tp300
a(S'p1_du'
I0
tp301
a(S'p1_cv'
I1
tp302
a(S'p1_vo'
I0
tp303
a(S'w'
I4404
tp304
a(S'p2_tl'
I185
tp305
a(S'p2_ll'
I1
tp306
a(S'p2_th'
I4
tp307
a(S'w'
I2
tp308
a(S'p1_du'
I2
tp309
a(S'p1_cv'
I0
tp310
a(S'p1_vo'
I1
tp311
a(S'w'
I4
tp312
a(S'p1_tl'
I82
tp313
a(S'w'
I1
tp314
a(S'p1_ll'
I1
tp315
a(S'w'
I4397
tp316
a(S'p1_tl'
I124
tp317
a(S'p1_ll'
I1
tp318
a(S'w'
I4401
tp319
a(S'p2_tl'
I92
tp320
a(S'w'
I1
tp321
a(S'p2_ll'
I1
tp322
a(S'p2_th'
I2
tp323
a(S'w'
I2
tp324
a(S'p1_du'
I0
tp325
a(S'p1_cv'
I1
tp326
a(S'p1_vo'
I0
tp327
a(S'w'
I4397
tp328
a(S'p1_du'
I2
tp329
a(S'p1_cv'
I0
tp330
a(S'p1_vo'
I1
tp331
a(S'w'
I4
tp332
a(S'p1_tl'
I28
tp333
a(S'w'
I1
tp334
a(S'p1_ll'
I1
tp335
a(S'w'
I4401
tp336
a(S'p2_tl'
I166
tp337
a(S'w'
I1
tp338
a(S'p2_ll'
I1
tp339
a(S'w'
I2
tp340
a(S'p1_du'
I0
tp341
a(S'p1_cv'
I1
tp342
a(S'p1_vo'
I0
tp343
a(S'w'
I4397
tp344
a(S'p1_du'
I2
tp345
a(S'p1_cv'
I0
tp346
a(S'p1_vo'
I1
tp347
a(S'w'
I1
tp348
a(S'p1_du'
I0
tp349
a(S'p1_cv'
I1
tp350
a(S'p1_vo'
I0
tp351
a(S'w'
I4404
tp352
a(S'p2_tl'
I58
tp353
a(S'w'
I1
tp354
a(S'p2_ll'
I1
tp355
a(S'w'
I2
tp356
a(S'p1_du'
I2
tp357
a(S'p1_cv'
I0
tp358
a(S'p1_vo'
I1
tp359
a(S'w'
I4
tp360
a(S'p1_tl'
I45
tp361
a(S'p1_ll'
I1
tp362
a(S'w'
I4394
tp363
a(S'p1_du'
I0
tp364
a(S'p1_cv'
I1
tp365
a(S'p1_vo'
I0
tp366
a(S'w'
I4405
tp367
a(S'p2_tl'
I137
tp368
a(S'w'
I1
tp369
a(S'p2_ll'
I1
tp370
a(S'p2_th'
I3
tp371
a(S'w'
I2
tp372
a(S'p1_du'
I2
tp373
a(S'p1_cv'
I0
tp374
a(S'p1_vo'
I1
tp375
a(S'w'
I4
tp376
a(S'p1_tl'
I82
tp377
a(S'p1_ll'
I1
tp378
a(S'w'
I4398
tp379
a(S'p1_tl'
I124
tp380
a(S'p1_ll'
I1
tp381
a(S'w'
I4401
tp382
a(S'p2_tl'
I196
tp383
a(S'p2_ll'
I1
tp384
a(S'p2_th'
I1
tp385
a(S'w'
I3
tp386
a(S'p1_du'
I0
tp387
a(S'p1_cv'
I1
tp388
a(S'p1_vo'
I0
tp389
a(S'w'
I4397
tp390
a(S'p1_du'
I2
tp391
a(S'p1_cv'
I0
tp392
a(S'p1_vo'
I1
tp393
a(S'w'
I1
tp394
a(S'p1_du'
I0
tp395
a(S'p1_cv'
I1
tp396
a(S'p1_vo'
I0
tp397
a(S'w'
I4406
tp398
a(S'p2_tl'
I249
tp399
a(S'p2_ll'
I1
tp400
a(S'p2_th'
I2
tp401
a(S'w'
I2
tp402
a(S'p1_du'
I2
tp403
a(S'p1_cv'
I0
tp404
a(S'p1_vo'
I1
tp405
a(S'w'
I3
tp406
a(S'p1_tl'
I252
tp407
a(S'p1_ll'
I1
tp408
a(S'w'
I4395
tp409
a(S'p1_du'
I0
tp410
a(S'p1_cv'
I1
tp411
a(S'p1_vo'
I0
tp412
a(S'w'
I4405
tp413
a(S'p2_tl'
I92
tp414
a(S'w'
I1
tp415
a(S'p2_ll'
I1
tp416
a(S'w'
I2
tp417
a(S'p1_du'
I2
tp418
a(S'p1_cv'
I0
tp419
a(S'p1_vo'
I1
tp420
a(S'w'
I4
tp421
a(S'p1_tl'
I124
tp422
a(S'p1_ll'
I1
tp423
a(S'w'
I4393
tp424
a(S'p1_du'
I0
tp425
a(S'p1_cv'
I1
tp426
a(S'p1_vo'
I0
tp427
a(S'w'
I4404
tp428
a(S'p2_tl'
I185
tp429
a(S'p2_ll'
I1
tp430
a(S'p2_th'
I4
tp431
a(S'w'
I2
tp432
a(S'p1_du'
I2
tp433
a(S'p1_cv'
I0
tp434
a(S'p1_vo'
I1
tp435
a(S'w'
I4
tp436
a(S'p1_tl'
I82
tp437
a(S'w'
I1
tp438
a(S'p1_ll'
I1
tp439
a(S'w'
I4398
tp440
a(S'p1_tl'
I124
tp441
a(S'w'
I1
tp442
a(S'p1_ll'
I1
tp443
a(S'w'
I4400
tp444
a(S'p2_tl'
I92
tp445
a(S'p2_ll'
I1
tp446
a(S'p2_th'
I2
tp447
a(S'w'
I3
tp448
a(S'p1_du'
I0
tp449
a(S'p1_cv'
I1
tp450
a(S'p1_vo'
I0
tp451
a(S'w'
I4397
tp452
a(S'p1_du'
I2
tp453
a(S'p1_cv'
I0
tp454
a(S'p1_vo'
I1
tp455
a(S'w'
I4
tp456
a(S'p1_tl'
I28
tp457
a(S'w'
I1
tp458
a(S'p1_ll'
I1
tp459
a(S'w'
I4402
tp460
a(S'p2_tl'
I166
tp461
a(S'p2_ll'
I1
tp462
a(S'w'
I3
tp463
a(S'p1_du'
I0
tp464
a(S'p1_cv'
I1
tp465
a(S'p1_vo'
I0
tp466
a(S'w'
I4396
tp467
a(S'p1_du'
I2
tp468
a(S'p1_cv'
I0
tp469
a(S'p1_vo'
I1
tp470
a(S'w'
I1
tp471
a(S'p1_du'
I0
tp472
a(S'p1_cv'
I1
tp473
a(S'p1_vo'
I0
tp474
a(S'w'
I4404
tp475
a(S'p2_tl'
I58
tp476
a(S'w'
I1
tp477
a(S'p2_ll'
I1
tp478
a(S'w'
I2
tp479
a(S'p1_du'
I2
tp480
a(S'p1_cv'
I0
tp481
a(S'p1_vo'
I1
tp482
a(S'w'
I4
tp483
a(S'p1_tl'
I45
tp484
a(S'p1_ll'
I1
tp485
a(S'w'
I4394
tp486
a(S'p1_du'
I0
tp487
a(S'p1_cv'
I1
tp488
a(S'p1_vo'
I0
tp489
a(S'w'
I4404
tp490
a(S'p2_tl'
I137
tp491
a(S'p2_ll'
I1
tp492
a(S'p2_th'
I3
tp493
a(S'w'
I2
tp494
a(S'p1_du'
I2
tp495
a(S'p1_cv'
I0
tp496
a(S'p1_vo'
I1
tp497
a(S'w'
I4
tp498
a(S'p1_tl'
I82
tp499
a(S'w'
I1
tp500
a(S'p1_ll'
I1
tp501
a(S'w'
I4399
tp502
a(S'p1_tl'
I124
tp503
a(S'p1_ll'
I1
tp504
a(S'w'
I4402
tp505
a(S'p2_tl'
I196
tp506
a(S'p2_ll'
I1
tp507
a(S'p2_th'
I1
tp508
a(S'w'
I3
tp509
a(S'p1_du'
I0
tp510
a(S'p1_cv'
I1
tp511
a(S'p1_vo'
I0
tp512
a(S'w'
I4397
tp513
a(S'p1_du'
I2
tp514
a(S'p1_cv'
I0
tp515
a(S'p1_vo'
I1
tp516
a(S'p1_du'
I0
tp517
a(S'p1_cv'
I1
tp518
a(S'p1_vo'
I0
tp519
a(S'w'
I4403
tp520
a(S'p2_cv'
I1
tp521
a(S'p2_vo'
I0
tp522
a(S'w'
I6
tp523
a.