(lp1
(S'clock'
p2
I1789772
tp3
a(S'p1_du'
I2
tp4
a(S'p1_cv'
I1
tp5
a(S'p1_sp'
I7
tp6
a(S'p1_sn'
I1
tp7
a(S'p1_ss'
I7
tp8
a(S'p1_tl'
I141
tp9
a(S'p1_ll'
I1
tp10
a(S'p2_du'
I2
tp11
a(S'p2_cv'
I1
tp12
a(S'p2_sp'
I7
tp13
a(S'p2_sn'
I1
tp14
a(S'p2_ss'
I7
tp15
a(S'p2_tl'
I205
tp16
a(S'p2_ll'
I1
tp17
a(S'tr_tl'
I28
tp18
a(S'tr_ll'
I1
tp19
a(S'tr_th'
I1
tp20
a(S'ch_no'
I1
tp21
a(S'ch_tr'
I1
tp22
a(S'ch_p2'
I1
tp23
a(S'ch_p1'
I1
tp24
a(S'fc_mo'
I1
tp25
a(S'p1_tl'
I243
tp26
a(S'p1_ll'
I1
tp27
a(S'p1_th'
I5
tp28
a(S'p1_vo'
I15
tp29
a(S'w'
I4
tp30
a(S'tr_lh'
I1
tp31
a(S'tr_lr'
I127
tp32
a(S'w'
I719
tp33
a(S'fc_mo'
I1
tp34
a(S'w'
I734
tp35
a(S'fc_mo'
I1
tp36
a(S'w'
I734
tp37
a(S'fc_mo'
I1
tp38
a(S'w'
I734
tp39
a(S'fc_mo'
I1
tp40
a(S'w'
I733
tp41
a(S'fc_mo'
I1
tp42
a(S'w'
I734
tp43
a(S'fc_mo'
I1
tp44
a(S'w'
I734
tp45
a(S'fc_mo'
I1
tp46
a(S'w'
I734
tp47
a(S'fc_mo'
I1
tp48
a(S'w'
I734
tp49
a(S'fc_mo'
I1
tp50
a(S'w'
I734
tp51
a(S'fc_mo'
I1
tp52
a(S'w'
I733
tp53
a(S'fc_mo'
I1
tp54
a(S'w'
I734
tp55
a(S'fc_mo'
I1
tp56
a(S'w'
I2
tp57
a(S'p1_tl'
I1
tp58
a(S'w'
I1
tp59
a(S'p1_ll'
I1
tp60
a(S'w'
I1
tp61
a(S'tr_lh'
I0
tp62
a(S'tr_lr'
I0
tp63
a(S'w'
I3
tp64
a(S'tr_tl'
I249
tp65
a(S'tr_ll'
I1
tp66
a(S'tr_th'
I2
tp67
a(S'tr_lh'
I1
tp68
a(S'tr_lr'
I127
tp69
a(S'w'
I727
tp70
a(S'fc_mo'
I1
tp71
a(S'w'
I734
tp72
a(S'fc_mo'
I1
tp73
a(S'w'
I734
tp74
a(S'fc_mo'
I1
tp75
a(S'w'
I733
tp76
a(S'fc_mo'
I1
tp77
a(S'w'
I734
tp78
a(S'fc_mo'
I1
tp79
a(S'w'
I734
tp80
a(S'fc_mo'
I1
tp81
a(S'w'
I734
tp82
a(S'fc_mo'
I1
tp83
a(S'w'
I734
tp84
a(S'fc_mo'
I1
tp85
a(S'w'
I733
tp86
a(S'fc_mo'
I1
tp87
a(S'w'
I734
tp88
a(S'fc_mo'
I1
tp89
a(S'w'
I734
tp90
a(S'fc_mo'
I1
tp91
a(S'w'
I734
tp92
a(S'fc_mo'
I1
tp93
a(S'w'
I2
tp94
a(S'p1_tl'
I53
tp95
a(S'p1_ll'
I1
tp96
a(S'p1_th'
I4
tp97
a(S'w'
I2
tp98
a(S'tr_lh'
I0
tp99
a(S'tr_lr'
I0
tp100
a(S'w'
I2
tp101
a(S'tr_tl'
I128
tp102
a(S'w'
I1
tp103
a(S'tr_ll'
I1
tp104
a(S'tr_lh'
I1
tp105
a(S'tr_lr'
I127
tp106
a(S'w'
I727
tp107
a(S'fc_mo'
I1
tp108
a(S'w'
I733
tp109
a(S'fc_mo'
I1
tp110
a(S'w'
I734
tp111
a(S'fc_mo'
I1
tp112
a(S'w'
I734
tp113
a(S'fc_mo'
I1
tp114
a(S'w'
I734
tp115
a(S'fc_mo'
I1
tp116
a(S'w'
I734
tp117
a(S'fc_mo'
I1
tp118
a(S'w'
I733
tp119
a(S'fc_mo'
I1
tp120
a(S'w'
I734
tp121
a(S'fc_mo'
I1
tp122
a(S'w'
I734
tp123
a(S'fc_mo'
I1
tp124
a(S'w'
I734
tp125
a(S'fc_mo'
I1
tp126
a(S'w'
I734
tp127
a(S'fc_mo'
I1
tp128
a(S'w'
I733
tp129
a(S'fc_mo'
I1
tp130
a(S'w'
I2
tp131
a(S'p1_tl'
I137
tp132
a(S'w'
I1
tp133
a(S'p1_ll'
I1
tp134
a(S'p1_th'
I3
tp135
a(S'w'
I1
tp136
a(S'tr_lh'
I0
tp137
a(S'tr_lr'
I0
tp138
a(S'w'
I3
tp139
a(S'tr_tl'
I26
tp140
a(S'tr_ll'
I1
tp141
a(S'w'
I1
tp142
a(S'tr_lh'
I1
tp143
a(S'tr_lr'
I127
tp144
a(S'w'
I726
tp145
a(S'fc_mo'
I1
tp146
a(S'w'
I734
tp147
a(S'fc_mo'
I1
tp148
a(S'w'
I734
tp149
a(S'fc_mo'
I1
tp150
a(S'w'
I734
tp151
a(S'fc_mo'
I1
tp152
a(S'w'
I733
tp153
a(S'fc_mo'
I1
tp154
a(S'w'
I734
tp155
a(S'fc_mo'
I1
tp156
a(S'w'
I734
tp157
a(S'fc_mo'
I1
tp158
a(S'w'
I734
tp159
a(S'fc_mo'
I1
tp160
a(S'w'
I734
tp161
a(S'fc_mo'
I1
tp162
a(S'w'
I733
tp163
a(S'fc_mo'
I1
tp164
a(S'w'
I734
tp165
a(S'fc_mo'
I1
tp166
a(S'w'
I734
tp167
a(S'fc_mo'
I1
tp168
a(S'w'
I2
tp169
a(S'p1_tl'
I249
tp170
a(S'p1_ll'
I1
tp171
a(S'p1_th'
I2
tp172
a(S'w'
I2
tp173
a(S'tr_lh'
I0
tp174
a(S'tr_lr'
I0
tp175
a(S'w'
I3
tp176
a(S'tr_tl'
I196
tp177
a(S'tr_ll'
I1
tp178
a(S'tr_th'
I1
tp179
a(S'tr_lh'
I1
tp180
a(S'tr_lr'
I127
tp181
a(S'w'
I727
tp182
a(S'fc_mo'
I1
tp183
a(S'w'
I734
tp184
a(S'fc_mo'
I1
tp185
a(S'w'
I733
tp186
a(S'fc_mo'
I1
tp187
a(S'w'
I734
tp188
a(S'fc_mo'
I1
tp189
a(S'w'
I734
tp190
a(S'fc_mo'
I1
tp191
a(S'w'
I734
tp192
a(S'fc_mo'
I1
tp193
a(S'w'
I734
tp194
a(S'fc_mo'
I1
tp195
a(S'w'
I733
tp196
a(S'fc_mo'
I1
tp197
a(S'w'
I734
tp198
a(S'fc_mo'
I1
tp199
a(S'w'
I734
tp200
a(S'fc_mo'
I1
tp201
a(S'w'
I734
tp202
a(S'fc_mo'
I1
tp203
a(S'w'
I734
tp204
a(S'fc_mo'
I1
tp205
a(S'w'
I2
tp206
a(S'p1_tl'
I128
tp207
a(S'p1_ll'
I1
tp208
a(S'w'
I2
tp209
a(S'tr_lh'
I0
tp210
a(S'tr_lr'
I0
tp211
a(S'w'
I2
tp212
a(S'tr_tl'
I124
tp213
a(S'tr_ll'
I1
tp214
a(S'w'
I1
tp215
a(S'tr_lh'
I1
tp216
a(S'tr_lr'
I127
tp217
a(S'w'
I726
tp218
a(S'fc_mo'
I1
tp219
a(S'w'
I734
tp220
a(S'fc_mo'
I1
tp221
a(S'w'
I734
tp222
a(S'fc_mo'
I1
tp223
a(S'w'
I734
tp224
a(S'fc_mo'
I1
tp225
a(S'w'
I734
tp226
a(S'fc_mo'
I1
tp227
a(S'w'
I733
tp228
a(S'fc_mo'
I1
tp229
a(S'w'
I734
tp230
a(S'fc_mo'
I1
tp231
a(S'w'
I734
tp232
a(S'fc_mo'
I1
tp233
a(S'w'
I734
tp234
a(S'fc_mo'
I1
tp235
a(S'w'
I734
tp236
a(S'fc_mo'
I1
tp237
a(S'w'
I733
tp238
a(S'fc_mo'
I1
tp239
a(S'w'
I734
tp240
a(S'fc_mo'
I1
tp241
a(S'w'
I2
tp242
a(S'p1_tl'
I26
tp243
a(S'w'
I1
tp244
a(S'p1_ll'
I1
tp245
a(S'w'
I1
tp246
a(S'tr_lh'
I0
tp247
a(S'tr_lr'
I0
tp248
a(S'w'
I3
tp249
a(S'tr_tl'
I63
tp250
a(S'tr_ll'
I1
tp251
a(S'w'
I1
tp252
a(S'tr_lh'
I1
tp253
a(S'tr_lr'
I127
tp254
a(S'w'
I726
tp255
a(S'fc_mo'
I1
tp256
a(S'w'
I734
tp257
a(S'fc_mo'
I1
tp258
a(S'w'
I734
tp259
a(S'fc_mo'
I1
tp260
a(S'w'
I733
tp261
a(S'fc_mo'
I1
tp262
a(S'w'
I734
tp263
a(S'fc_mo'
I1
tp264
a(S'w'
I734
tp265
a(S'fc_mo'
I1
tp266
a(S'w'
I734
tp267
a(S'fc_mo'
I1
tp268
a(S'w'
I734
tp269
a(S'fc_mo'
I1
tp270
a(S'w'
I733
tp271
a(S'fc_mo'
I1
tp272
a(S'w'
I734
tp273
a(S'fc_mo'
I1
tp274
a(S'w'
I734
tp275
a(S'fc_mo'
I1
tp276
a(S'w'
I734
tp277
a(S'fc_mo'
I1
tp278
a(S'w'
I2
tp279
a(S'p1_tl'
I196
tp280
a(S'p1_ll'
I1
tp281
a(S'p1_th'
I1
tp282
a(S'w'
I2
tp283
a(S'tr_lh'
I0
tp284
a(S'tr_lr'
I0
tp285
a(S'w'
I2
tp286
a(S'tr_tl'
I12
tp287
a(S'w'
I1
tp288
a(S'tr_ll'
I1
tp289
a(S'tr_lh'
I1
tp290
a(S'tr_lr'
I127
tp291
a(S'w'
I727
tp292
a(S'fc_mo'
I1
tp293
a(S'w'
I733
tp294
a(S'fc_mo'
I1
tp295
a(S'w'
I734
tp296
a(S'fc_mo'
I1
tp297
a(S'w'
I734
tp298
a(S'fc_mo'
I1
tp299
a(S'w'
I734
tp300
a(S'fc_mo'
I1
tp301
a(S'w'
I734
tp302
a(S'fc_mo'
I1
tp303
a(S'w'
I733
tp304
a(S'fc_mo'
I1
tp305
a(S'w'
I734
tp306
a(S'fc_mo'
I1
tp307
a(S'w'
I734
tp308
a(S'fc_mo'
I1
tp309
a(S'w'
I734
tp310
a(S'fc_mo'
I1
tp311
a(S'w'
I734
tp312
a(S'fc_mo'
I1
tp313
a(S'w'
I733
tp314
a(S'fc_mo'
I1
tp315
a(S'w'
I4
tp316
a(S'p1_tl'
I124
tp317
a(S'p1_ll'
I1
tp318
a(S'w'
I1
tp319
a(S'tr_lh'
I0
tp320
a(S'tr_lr'
I0
tp321
a(S'w'
I3
tp322
a(S'tr_tl'
I225
tp323
a(S'tr_ll'
I1
tp324
a(S'tr_th'
I0
tp325
a(S'w'
I1
tp326
a(S'tr_lh'
I1
tp327
a(S'tr_lr'
I127
tp328
a(S'w'
I725
tp329
a(S'fc_mo'
I1
tp330
a(S'w'
I734
tp331
a(S'fc_mo'
I1
tp332
a(S'w'
I734
tp333
a(S'fc_mo'
I1
tp334
a(S'w'
I734
tp335
a(S'fc_mo'
I1
tp336
a(S'w'
I733
tp337
a(S'fc_mo'
I1
tp338
a(S'w'
I734
tp339
a(S'fc_mo'
I1
tp340
a(S'w'
I2
tp341
a(S'p1_tl'
I147
tp342
a(S'w'
I1
tp343
a(S'p1_ll'
I1
tp344
a(S'w'
I731
tp345
a(S'fc_mo'
I1
tp346
a(S'w'
I734
tp347
a(S'fc_mo'
I1
tp348
a(S'w'
I734
tp349
a(S'fc_mo'
I1
tp350
a(S'w'
I734
tp351
a(S'fc_mo'
I1
tp352
a(S'w'
I733
tp353
a(S'fc_mo'
I1
tp354
a(S'w'
I734
tp355
a(S'fc_mo'
I1
tp356
a(S'w'
I2
tp357
a(S'p1_tl'
I124
tp358
a(S'p1_ll'
I1
tp359
a(S'w'
I732
tp360
a(S'fc_mo'
I1
tp361
a(S'w'
I734
tp362
a(S'fc_mo'
I1
tp363
a(S'w'
I734
tp364
a(S'fc_mo'
I1
tp365
a(S'w'
I733
tp366
a(S'fc_mo'
I1
tp367
a(S'w'
I734
tp368
a(S'fc_mo'
I1
tp369
a(S'w'
I734
tp370
a(S'fc_mo'
I1
tp371
a(S'w'
I2
tp372
a(S'p1_tl'
I147
tp373
a(S'p1_ll'
I1
tp374
a(S'w'
I732
tp375
a(S'fc_mo'
I1
tp376
a(S'w'
I733
tp377
a(S'fc_mo'
I1
tp378
a(S'w'
I734
tp379
a(S'fc_mo'
I1
tp380
a(S'w'
I734
tp381
a(S'fc_mo'
I1
tp382
a(S'w'
I734
tp383
a(S'fc_mo'
I1
tp384
a(S'w'
I734
tp385
a(S'fc_mo'
I1
tp386
a(S'w'
I2
tp387
a(S'p1_tl'
I124
tp388
a(S'p1_ll'
I1
tp389
a(S'w'
I731
tp390
a(S'fc_mo'
I1
tp391
a(S'w'
I734
tp392
a(S'fc_mo'
I1
tp393
a(S'w'
I734
tp394
a(S'fc_mo'
I1
tp395
a(S'w'
I734
tp396
a(S'fc_mo'
I1
tp397
a(S'w'
I734
tp398
a(S'fc_mo'
I1
tp399
a(S'w'
I734
tp400
a(S'fc_mo'
I1
tp401
a(S'w'
I2
tp402
a(S'p1_tl'
I147
tp403
a(S'p1_ll'
I1
tp404
a(S'w'
I731
tp405
a(S'fc_mo'
I1
tp406
a(S'w'
I734
tp407
a(S'fc_mo'
I1
tp408
a(S'w'
I734
tp409
a(S'fc_mo'
I1
tp410
a(S'w'
I734
tp411
a(S'fc_mo'
I1
tp412
a(S'w'
I734
tp413
a(S'fc_mo'
I1
tp414
a(S'w'
I733
tp415
a(S'fc_mo'
I1
tp416
a(S'w'
I3
tp417
a(S'p1_tl'
I124
tp418
a(S'p1_ll'
I1
tp419
a(S'w'
I731
tp420
a(S'fc_mo'
I1
tp421
a(S'w'
I734
tp422
a(S'fc_mo'
I1
tp423
a(S'w'
I734
tp424
a(S'fc_mo'
I1
tp425
a(S'w'
I734
tp426
a(S'fc_mo'
I1
tp427
a(S'w'
I733
tp428
a(S'fc_mo'
I1
tp429
a(S'w'
I734
tp430
a(S'fc_mo'
I1
tp431
a(S'w'
I2
tp432
a(S'p1_tl'
I147
tp433
a(S'w'
I1
tp434
a(S'p1_ll'
I1
tp435
a(S'w'
I731
tp436
a(S'fc_mo'
I1
tp437
a(S'w'
I734
tp438
a(S'fc_mo'
I1
tp439
a(S'w'
I734
tp440
a(S'fc_mo'
I1
tp441
a(S'w'
I733
tp442
a(S'fc_mo'
I1
tp443
a(S'w'
I734
tp444
a(S'fc_mo'
I1
tp445
a(S'w'
I734
tp446
a(S'fc_mo'
I1
tp447
a(S'w'
I3
tp448
a(S'p1_tl'
I124
tp449
a(S'p1_ll'
I1
tp450
a(S'w'
I2
tp451
a(S'tr_lh'
I0
tp452
a(S'tr_lr'
I0
tp453
a(S'w'
I3
tp454
a(S'tr_ll'
I1
tp455
a(S'tr_lh'
I1
tp456
a(S'tr_lr'
I127
tp457
a(S'w'
I726
tp458
a(S'fc_mo'
I1
tp459
a(S'w'
I733
tp460
a(S'fc_mo'
I1
tp461
a(S'w'
I734
tp462
a(S'fc_mo'
I1
tp463
a(S'w'
I734
tp464
a(S'fc_mo'
I1
tp465
a(S'w'
I734
tp466
a(S'fc_mo'
I1
tp467
a(S'w'
I734
tp468
a(S'fc_mo'
I1
tp469
a(S'w'
I734
tp470
a(S'fc_mo'
I1
tp471
a(S'w'
I733
tp472
a(S'fc_mo'
I1
tp473
a(S'w'
I734
tp474
a(S'fc_mo'
I1
tp475
a(S'w'
I734
tp476
a(S'fc_mo'
I1
tp477
a(S'w'
I734
tp478
a(S'fc_mo'
I1
tp479
a(S'w'
I734
tp480
a(S'fc_mo'
I1
tp481
a(S'w'
I733
tp482
a(S'fc_mo'
I1
tp483
a(S'w'
I734
tp484
a(S'fc_mo'
I1
tp485
a(S'w'
I734
tp486
a(S'fc_mo'
I1
tp487
a(S'w'
I734
tp488
a(S'fc_mo'
I1
tp489
a(S'w'
I734
tp490
a(S'fc_mo'
I1
tp491
a(S'w'
I733
tp492
a(S'fc_mo'
I1
tp493
a(S'w'
I734
tp494
a(S'fc_mo'
I1
tp495
a(S'w'
I734
tp496
a(S'fc_mo'
I1
tp497
a(S'w'
I734
tp498
a(S'fc_mo'
I1
tp499
a(S'w'
I734
tp500
a(S'fc_mo'
I1
tp501
a(S'w'
I733
tp502
a(S'fc_mo'
I1
tp503
a(S'w'
I734
tp504
a(S'fc_mo'
I1
tp505
a(S'w'
I734
tp506
a(S'fc_mo'
I1
tp507
a(S'w'
I734
tp508
a(S'fc_mo'
I1
tp509
a(S'w'
I734
tp510
a(S'fc_mo'
I1
tp511
a(S'w'
I733
tp512
a(S'fc_mo'
I1
tp513
a(S'w'
I749
tp514
a(S'fc_mo'
I1
tp515
a(S'w'
I729
tp516
a(S'fc_mo'
I1
tp517
a(S'w'
I724
tp518
a(S'fc_mo'
I1
tp519
a(S'w'
I734
tp520
a(S'fc_mo'
I1
tp521
a(S'w'
I733
tp522
a(S'fc_mo'
I1
tp523
a(S'w'
I734
tp524
a(S'fc_mo'
I1
tp525
a(S'w'
I734
tp526
a(S'fc_mo'
I1
tp527
a(S'w'
I734
tp528
a(S'fc_mo'
I1
tp529
a(S'w'
I734
tp530
a(S'fc_mo'
I1
tp531
a(S'w'
I733
tp532
a(S'fc_mo'
I1
tp533
a(S'w'
I734
tp534
a(S'fc_mo'
I1
tp535
a(S'w'
I734
tp536
a(S'fc_mo'
I1
tp537
a(S'w'
I734
tp538
a(S'fc_mo'
I1
tp539
a(S'w'
I734
tp540
a(S'fc_mo'
I1
tp541
a(S'w'
I733
tp542
a(S'fc_mo'
I1
tp543
a(S'w'
I734
tp544
a(S'fc_mo'
I1
tp545
a(S'w'
I734
tp546
a(S'fc_mo'
I1
tp547
a(S'w'
I734
tp548
a(S'fc_mo'
I1
tp549
a(S'w'
I734
tp550
a(S'fc_mo'
I1
tp551
a(S'w'
I733
tp552
a(S'fc_mo'
I1
tp553
a(S'w'
I2
tp554
a(S'p1_vo'
I0
tp555
a(S'w'
I1
tp556
a(S'tr_lh'
I0
tp557
a(S'tr_lr'
I0
tp558
a(S'w'
I322
tp559
a.