(lp1
(S'clock'
p2
I1789772
tp3
a(S'p1_du'
I2
tp4
a(S'p1_cv'
I1
tp5
a(S'p1_sp'
I7
tp6
a(S'p1_sn'
I1
tp7
a(S'p1_ss'
I7
tp8
a(S'p1_tl'
I228
tp9
a(S'p1_ll'
I25
tp10
a(S'p1_th'
I1
tp11
a(S'tr_lh'
I1
tp12
a(S'tr_lr'
I127
tp13
a(S'tr_tl'
I28
tp14
a(S'tr_ll'
I1
tp15
a(S'tr_th'
I1
tp16
a(S'ch_no'
I1
tp17
a(S'ch_tr'
I1
tp18
a(S'ch_p2'
I1
tp19
a(S'ch_p1'
I1
tp20
a(S'fc_mo'
I1
tp21
a(S'tr_tl'
I212
tp22
a(S'tr_ll'
I1
tp23
a(S'tr_th'
I0
tp24
a(S'w'
I723
tp25
a(S'fc_mo'
I1
tp26
a(S'w'
I3
tp27
a(S'w'
I731
tp28
a(S'fc_mo'
I1
tp29
a(S'w'
I733
tp30
a(S'fc_mo'
I1
tp31
a(S'w'
I734
tp32
a(S'fc_mo'
I1
tp33
a(S'w'
I4
tp34
a(S'tr_lh'
I0
tp35
a(S'tr_lr'
I0
tp36
a(S'w'
I730
tp37
a(S'fc_mo'
I1
tp38
a(S'w'
I3
tp39
a(S'tr_lh'
I1
tp40
a(S'tr_lr'
I127
tp41
a(S'w'
I731
tp42
a(S'fc_mo'
I1
tp43
a(S'w'
I734
tp44
a(S'fc_mo'
I1
tp45
a(S'w'
I733
tp46
a(S'fc_mo'
I1
tp47
a(S'w'
I7
tp48
a(S'tr_ll'
I1
tp49
a(S'w'
I727
tp50
a(S'fc_mo'
I1
tp51
a(S'w'
I734
tp52
a(S'fc_mo'
I1
tp53
a(S'w'
I734
tp54
a(S'fc_mo'
I1
tp55
a(S'w'
I734
tp56
a(S'fc_mo'
I1
tp57
a(S'w'
I4
tp58
a(S'tr_lh'
I0
tp59
a(S'tr_lr'
I0
tp60
a(S'w'
I729
tp61
a(S'fc_mo'
I1
tp62
a(S'w'
I4
tp63
a(S'tr_lh'
I1
tp64
a(S'tr_lr'
I127
tp65
a(S'w'
I730
tp66
a(S'fc_mo'
I1
tp67
a(S'w'
I734
tp68
a(S'fc_mo'
I1
tp69
a(S'w'
I734
tp70
a(S'fc_mo'
I1
tp71
a(S'w'
I6
tp72
a(S'tr_ll'
I1
tp73
a(S'w'
I728
tp74
a(S'fc_mo'
I1
tp75
a(S'w'
I733
tp76
a(S'fc_mo'
I1
tp77
a(S'w'
I734
tp78
a(S'fc_mo'
I1
tp79
a(S'w'
I734
tp80
a(S'fc_mo'
I1
tp81
a(S'w'
I4
tp82
a(S'tr_lh'
I0
tp83
a(S'tr_lr'
I0
tp84
a(S'w'
I730
tp85
a(S'fc_mo'
I1
tp86
a(S'w'
I3
tp87
a(S'tr_lh'
I1
tp88
a(S'tr_lr'
I127
tp89
a(S'w'
I731
tp90
a(S'fc_mo'
I1
tp91
a(S'w'
I733
tp92
a(S'fc_mo'
I1
tp93
a(S'w'
I734
tp94
a(S'fc_mo'
I1
tp95
a(S'w'
I6
tp96
a(S'tr_ll'
I1
tp97
a(S'w'
I728
tp98
a(S'fc_mo'
I1
tp99
a(S'w'
I734
tp100
a(S'fc_mo'
I1
tp101
a(S'w'
I734
tp102
a(S'fc_mo'
I1
tp103
a(S'w'
I733
tp104
a(S'fc_mo'
I1
tp105
a(S'w'
I5
tp106
a(S'tr_lh'
I0
tp107
a(S'tr_lr'
I0
tp108
a(S'w'
I729
tp109
a(S'fc_mo'
I1
tp110
a(S'w'
I3
tp111
a(S'tr_lh'
I1
tp112
a(S'tr_lr'
I127
tp113
a(S'w'
I731
tp114
a(S'fc_mo'
I1
tp115
a(S'w'
I734
tp116
a(S'fc_mo'
I1
tp117
a(S'w'
I734
tp118
a(S'fc_mo'
I1
tp119
a(S'w'
I6
tp120
a(S'tr_tl'
I189
tp121
a(S'tr_ll'
I1
tp122
a(S'w'
I728
tp123
a(S'fc_mo'
I1
tp124
a(S'w'
I733
tp125
a(S'fc_mo'
I1
tp126
a(S'w'
I734
tp127
a(S'fc_mo'
I1
tp128
a(S'w'
I734
tp129
a(S'fc_mo'
I1
tp130
a(S'w'
I4
tp131
a(S'tr_lh'
I0
tp132
a(S'tr_lr'
I0
tp133
a(S'w'
I730
tp134
a(S'fc_mo'
I1
tp135
a(S'w'
I3
tp136
a(S'tr_lh'
I1
tp137
a(S'tr_lr'
I127
tp138
a(S'w'
I730
tp139
a(S'fc_mo'
I1
tp140
a(S'w'
I734
tp141
a(S'fc_mo'
I1
tp142
a(S'w'
I734
tp143
a(S'fc_mo'
I1
tp144
a(S'w'
I6
tp145
a(S'tr_tl'
I168
tp146
a(S'tr_ll'
I1
tp147
a(S'w'
I728
tp148
a(S'fc_mo'
I1
tp149
a(S'w'
I734
tp150
a(S'fc_mo'
I1
tp151
a(S'w'
I733
tp152
a(S'fc_mo'
I1
tp153
a(S'w'
I734
tp154
a(S'fc_mo'
I1
tp155
a(S'w'
I4
tp156
a(S'tr_lh'
I0
tp157
a(S'tr_lr'
I0
tp158
a(S'w'
I730
tp159
a(S'fc_mo'
I1
tp160
a(S'w'
I3
tp161
a(S'tr_lh'
I1
tp162
a(S'tr_lr'
I127
tp163
a(S'w'
I731
tp164
a(S'fc_mo'
I1
tp165
a(S'w'
I734
tp166
a(S'fc_mo'
I1
tp167
a(S'w'
I733
tp168
a(S'fc_mo'
I1
tp169
a(S'w'
I6
tp170
a(S'tr_tl'
I159
tp171
a(S'w'
I1
tp172
a(S'tr_ll'
I1
tp173
a(S'w'
I727
tp174
a(S'fc_mo'
I1
tp175
a(S'w'
I734
tp176
a(S'fc_mo'
I1
tp177
a(S'w'
I734
tp178
a(S'fc_mo'
I1
tp179
a(S'w'
I734
tp180
a(S'fc_mo'
I1
tp181
a(S'w'
I4
tp182
a(S'tr_lh'
I0
tp183
a(S'tr_lr'
I0
tp184
a(S'w'
I729
tp185
a(S'fc_mo'
I1
tp186
a(S'w'
I4
tp187
a(S'tr_lh'
I1
tp188
a(S'tr_lr'
I127
tp189
a(S'w'
I730
tp190
a(S'fc_mo'
I1
tp191
a(S'w'
I734
tp192
a(S'fc_mo'
I1
tp193
a(S'w'
I734
tp194
a(S'fc_mo'
I1
tp195
a(S'w'
I6
tp196
a(S'tr_ll'
I1
tp197
a(S'w'
I728
tp198
a(S'fc_mo'
I1
tp199
a(S'w'
I734
tp200
a(S'fc_mo'
I1
tp201
a(S'w'
I733
tp202
a(S'fc_mo'
I1
tp203
a(S'w'
I734
tp204
a(S'fc_mo'
I1
tp205
a(S'w'
I4
tp206
a(S'tr_lh'
I0
tp207
a(S'tr_lr'
I0
tp208
a(S'w'
I730
tp209
a(S'fc_mo'
I1
tp210
a(S'w'
I3
tp211
a(S'tr_lh'
I1
tp212
a(S'tr_lr'
I127
tp213
a(S'w'
I731
tp214
a(S'fc_mo'
I1
tp215
a(S'w'
I734
tp216
a(S'fc_mo'
I1
tp217
a(S'w'
I733
tp218
a(S'fc_mo'
I1
tp219
a(S'w'
I7
tp220
a(S'tr_ll'
I1
tp221
a(S'w'
I727
tp222
a(S'fc_mo'
I1
tp223
a(S'w'
I734
tp224
a(S'fc_mo'
I1
tp225
a(S'w'
I734
tp226
a(S'fc_mo'
I1
tp227
a(S'w'
I733
tp228
a(S'fc_mo'
I1
tp229
a(S'w'
I5
tp230
a(S'tr_lh'
I0
tp231
a(S'tr_lr'
I0
tp232
a(S'w'
I729
tp233
a(S'fc_mo'
I1
tp234
a(S'w'
I3
tp235
a(S'tr_lh'
I1
tp236
a(S'tr_lr'
I127
tp237
a(S'w'
I731
tp238
a(S'fc_mo'
I1
tp239
a(S'w'
I734
tp240
a(S'fc_mo'
I1
tp241
a(S'w'
I734
tp242
a(S'fc_mo'
I1
tp243
a(S'w'
I6
tp244
a(S'tr_ll'
I1
tp245
a(S'w'
I727
tp246
a(S'fc_mo'
I1
tp247
a(S'w'
I734
tp248
a(S'fc_mo'
I1
tp249
a(S'w'
I740
tp250
a(S'fc_mo'
I1
tp251
a(S'w'
I728
tp252
a(S'fc_mo'
I1
tp253
a(S'w'
I4
tp254
a(S'tr_lh'
I0
tp255
a(S'tr_lr'
I0
tp256
a(S'w'
I730
tp257
a(S'fc_mo'
I1
tp258
a(S'w'
I3
tp259
a(S'tr_lh'
I1
tp260
a(S'tr_lr'
I127
tp261
a(S'w'
I730
tp262
a(S'fc_mo'
I1
tp263
a(S'w'
I734
tp264
a(S'fc_mo'
I1
tp265
a(S'w'
I734
tp266
a(S'fc_mo'
I1
tp267
a(S'w'
I6
tp268
a(S'tr_tl'
I168
tp269
a(S'tr_ll'
I1
tp270
a(S'w'
I728
tp271
a(S'fc_mo'
I1
tp272
a(S'w'
I734
tp273
a(S'fc_mo'
I1
tp274
a(S'w'
I733
tp275
a(S'fc_mo'
I1
tp276
a(S'w'
I734
tp277
a(S'fc_mo'
I1
tp278
a(S'w'
I4
tp279
a(S'tr_lh'
I0
tp280
a(S'tr_lr'
I0
tp281
a(S'w'
I730
tp282
a(S'fc_mo'
I1
tp283
a(S'w'
I3
tp284
a(S'tr_lh'
I1
tp285
a(S'tr_lr'
I127
tp286
a(S'w'
I731
tp287
a(S'fc_mo'
I1
tp288
a(S'w'
I734
tp289
a(S'fc_mo'
I1
tp290
a(S'w'
I733
tp291
a(S'fc_mo'
I1
tp292
a(S'w'
I6
tp293
a(S'tr_tl'
I189
tp294
a(S'w'
I1
tp295
a(S'tr_ll'
I1
tp296
a(S'w'
I727
tp297
a(S'fc_mo'
I1
tp298
a(S'w'
I740
tp299
a(S'fc_mo'
I1
tp300
a(S'w'
I728
tp301
a(S'fc_mo'
I1
tp302
a(S'w'
I734
tp303
a(S'fc_mo'
I1
tp304
a(S'w'
I4
tp305
a(S'tr_lh'
I0
tp306
a(S'tr_lr'
I0
tp307
a(S'w'
I730
tp308
a(S'fc_mo'
I1
tp309
a(S'w'
I3
tp310
a(S'tr_lh'
I1
tp311
a(S'tr_lr'
I127
tp312
a(S'w'
I730
tp313
a(S'fc_mo'
I1
tp314
a(S'w'
I734
tp315
a(S'fc_mo'
I1
tp316
a(S'w'
I734
tp317
a(S'fc_mo'
I1
tp318
a(S'w'
I8
tp319
a.