(lp1
(S'clock'
p2
I1789772
tp3
a(S'p1_tl'
I149
tp4
a(S'p1_ll'
I5
tp5
a(S'p1_th'
I2
tp6
a(S'w'
I1
tp7
a(S'p1_du'
I1
tp8
a(S'p1_cv'
I1
tp9
a(S'p1_vo'
I9
tp10
a(S'p1_sp'
I7
tp11
a(S'p1_sn'
I1
tp12
a(S'p1_ss'
I7
tp13
a(S'w'
I1
tp14
a(S'w'
I3
tp15
a(S'p2_sp'
I7
tp16
a(S'p2_sn'
I1
tp17
a(S'p2_ss'
I7
tp18
a(S'w'
I3
tp19
a(S'p1_tl'
I166
tp20
a(S'w'
I1
tp21
a(S'p1_ll'
I1
tp22
a(S'p1_du'
I2
tp23
a(S'p1_cv'
I0
tp24
a(S'p1_vo'
I6
tp25
a(S'w'
I3
tp26
a(S'p2_tl'
I82
tp27
a(S'p2_ll'
I1
tp28
a(S'p2_th'
I1
tp29
a(S'w'
I1
tp30
a(S'p2_du'
I2
tp31
a(S'p2_vo'
I5
tp32
a(S'w'
I718
tp33
a(S'fc_mo'
I1
tp34
a(S'w'
I734
tp35
a(S'fc_mo'
I1
tp36
a(S'w'
I734
tp37
a(S'fc_mo'
I1
tp38
a(S'w'
I734
tp39
a(S'fc_mo'
I1
tp40
a(S'w'
I733
tp41
a(S'fc_mo'
I1
tp42
a(S'w'
I734
tp43
a(S'fc_mo'
I1
tp44
a(S'w'
I734
tp45
a(S'fc_mo'
I1
tp46
a(S'w'
I734
tp47
a(S'fc_mo'
I1
tp48
a(S'w'
I734
tp49
a(S'fc_mo'
I1
tp50
a(S'w'
I733
tp51
a(S'fc_mo'
I1
tp52
a(S'w'
I5
tp53
a(S'p2_tl'
I12
tp54
a(S'p2_ll'
I1
tp55
a(S'w'
I729
tp56
a(S'fc_mo'
I1
tp57
a(S'w'
I734
tp58
a(S'fc_mo'
I1
tp59
a(S'w'
I734
tp60
a(S'fc_mo'
I1
tp61
a(S'w'
I734
tp62
a(S'fc_mo'
I1
tp63
a(S'w'
I733
tp64
a(S'fc_mo'
I1
tp65
a(S'w'
I734
tp66
a(S'fc_mo'
I1
tp67
a(S'w'
I734
tp68
a(S'fc_mo'
I1
tp69
a(S'w'
I734
tp70
a(S'fc_mo'
I1
tp71
a(S'w'
I734
tp72
a(S'fc_mo'
I1
tp73
a(S'w'
I733
tp74
a(S'fc_mo'
I1
tp75
a(S'w'
I3
tp76
a(S'p1_tl'
I137
tp77
a(S'w'
I1
tp78
a(S'p1_ll'
I1
tp79
a(S'p1_th'
I3
tp80
a(S'w'
I3
tp81
a(S'p2_tl'
I225
tp82
a(S'p2_ll'
I1
tp83
a(S'p2_th'
I0
tp84
a(S'w'
I727
tp85
a(S'fc_mo'
I1
tp86
a(S'w'
I734
tp87
a(S'fc_mo'
I1
tp88
a(S'w'
I734
tp89
a(S'fc_mo'
I1
tp90
a(S'w'
I734
tp91
a(S'fc_mo'
I1
tp92
a(S'w'
I733
tp93
a(S'fc_mo'
I1
tp94
a(S'w'
I734
tp95
a(S'fc_mo'
I1
tp96
a(S'w'
I734
tp97
a(S'fc_mo'
I1
tp98
a(S'w'
I734
tp99
a(S'fc_mo'
I1
tp100
a(S'w'
I734
tp101
a(S'fc_mo'
I1
tp102
a(S'w'
I733
tp103
a(S'fc_mo'
I1
tp104
a(S'w'
I5
tp105
a(S'p2_tl'
I189
tp106
a(S'p2_ll'
I1
tp107
a(S'w'
I729
tp108
a(S'fc_mo'
I1
tp109
a(S'w'
I734
tp110
a(S'fc_mo'
I1
tp111
a(S'w'
I734
tp112
a(S'fc_mo'
I1
tp113
a(S'w'
I734
tp114
a(S'fc_mo'
I1
tp115
a(S'w'
I733
tp116
a(S'fc_mo'
I1
tp117
a(S'w'
I734
tp118
a(S'fc_mo'
I1
tp119
a(S'w'
I734
tp120
a(S'fc_mo'
I1
tp121
a(S'w'
I734
tp122
a(S'fc_mo'
I1
tp123
a(S'w'
I734
tp124
a(S'fc_mo'
I1
tp125
a(S'w'
I733
tp126
a(S'fc_mo'
I1
tp127
a(S'w'
I3
tp128
a(S'p1_tl'
I185
tp129
a(S'w'
I1
tp130
a(S'p1_ll'
I1
tp131
a(S'p1_th'
I4
tp132
a(S'w'
I3
tp133
a(S'p2_tl'
I45
tp134
a(S'w'
I1
tp135
a(S'p2_ll'
I1
tp136
a(S'p2_th'
I1
tp137
a(S'w'
I726
tp138
a(S'fc_mo'
I1
tp139
a(S'w'
I734
tp140
a(S'fc_mo'
I1
tp141
a(S'w'
I734
tp142
a(S'fc_mo'
I1
tp143
a(S'w'
I734
tp144
a(S'fc_mo'
I1
tp145
a(S'w'
I733
tp146
a(S'fc_mo'
I1
tp147
a(S'w'
I734
tp148
a(S'fc_mo'
I1
tp149
a(S'w'
I734
tp150
a(S'fc_mo'
I1
tp151
a(S'w'
I734
tp152
a(S'fc_mo'
I1
tp153
a(S'w'
I734
tp154
a(S'fc_mo'
I1
tp155
a(S'w'
I733
tp156
a(S'fc_mo'
I1
tp157
a(S'w'
I5
tp158
a(S'p2_tl'
I253
tp159
a(S'p2_ll'
I1
tp160
a(S'p2_th'
I0
tp161
a(S'w'
I729
tp162
a(S'fc_mo'
I1
tp163
a(S'w'
I734
tp164
a(S'fc_mo'
I1
tp165
a(S'w'
I734
tp166
a(S'fc_mo'
I1
tp167
a(S'w'
I734
tp168
a(S'fc_mo'
I1
tp169
a(S'w'
I733
tp170
a(S'fc_mo'
I1
tp171
a(S'w'
I734
tp172
a(S'fc_mo'
I1
tp173
a(S'w'
I734
tp174
a(S'fc_mo'
I1
tp175
a(S'w'
I734
tp176
a(S'fc_mo'
I1
tp177
a(S'w'
I734
tp178
a(S'fc_mo'
I1
tp179
a(S'w'
I733
tp180
a(S'fc_mo'
I1
tp181
a(S'w'
I3
tp182
a(S'p1_tl'
I158
tp183
a(S'w'
I1
tp184
a(S'p1_ll'
I1
tp185
a(S'p1_th'
I5
tp186
a(S'w'
I3
tp187
a(S'p2_tl'
I212
tp188
a(S'w'
I1
tp189
a(S'p2_ll'
I1
tp190
a(S'w'
I726
tp191
a(S'fc_mo'
I1
tp192
a(S'w'
I734
tp193
a(S'fc_mo'
I1
tp194
a(S'w'
I734
tp195
a(S'fc_mo'
I1
tp196
a(S'w'
I734
tp197
a(S'fc_mo'
I1
tp198
a(S'w'
I734
tp199
a(S'fc_mo'
I1
tp200
a(S'w'
I733
tp201
a(S'fc_mo'
I1
tp202
a(S'w'
I734
tp203
a(S'fc_mo'
I1
tp204
a(S'w'
I734
tp205
a(S'fc_mo'
I1
tp206
a(S'w'
I734
tp207
a(S'fc_mo'
I1
tp208
a(S'w'
I734
tp209
a(S'fc_mo'
I1
tp210
a(S'w'
I4
tp211
a(S'p2_tl'
I168
tp212
a(S'p2_ll'
I1
tp213
a(S'w'
I729
tp214
a(S'fc_mo'
I1
tp215
a(S'w'
I734
tp216
a(S'fc_mo'
I1
tp217
a(S'w'
I734
tp218
a(S'fc_mo'
I1
tp219
a(S'w'
I734
tp220
a(S'fc_mo'
I1
tp221
a(S'w'
I733
tp222
a(S'fc_mo'
I1
tp223
a(S'w'
I734
tp224
a(S'fc_mo'
I1
tp225
a(S'w'
I734
tp226
a(S'fc_mo'
I1
tp227
a(S'w'
I734
tp228
a(S'fc_mo'
I1
tp229
a(S'w'
I734
tp230
a(S'fc_mo'
I1
tp231
a(S'w'
I734
tp232
a(S'fc_mo'
I1
tp233
a(S'w'
I3
tp234
a(S'p1_tl'
I249
tp235
a(S'p1_ll'
I1
tp236
a(S'p1_th'
I2
tp237
a(S'w'
I3
tp238
a(S'p2_tl'
I159
tp239
a(S'w'
I1
tp240
a(S'p2_ll'
I1
tp241
a(S'p2_vo'
I2
tp242
a(S'w'
I726
tp243
a(S'fc_mo'
I1
tp244
a(S'w'
I734
tp245
a(S'fc_mo'
I1
tp246
a(S'w'
I734
tp247
a(S'fc_mo'
I1
tp248
a(S'w'
I734
tp249
a(S'fc_mo'
I1
tp250
a(S'w'
I734
tp251
a(S'fc_mo'
I1
tp252
a(S'w'
I4
tp253
a(S'p2_tl'
I189
tp254
a(S'p2_ll'
I1
tp255
a(S'w'
I729
tp256
a(S'fc_mo'
I1
tp257
a(S'w'
I734
tp258
a(S'fc_mo'
I1
tp259
a(S'w'
I734
tp260
a(S'fc_mo'
I1
tp261
a(S'w'
I734
tp262
a(S'fc_mo'
I1
tp263
a(S'w'
I734
tp264
a(S'fc_mo'
I1
tp265
a(S'w'
I4
tp266
a(S'p2_tl'
I168
tp267
a(S'w'
I1
tp268
a(S'p2_ll'
I1
tp269
a(S'w'
I728
tp270
a(S'fc_mo'
I1
tp271
a(S'w'
I734
tp272
a(S'fc_mo'
I1
tp273
a(S'w'
I734
tp274
a(S'fc_mo'
I1
tp275
a(S'w'
I734
tp276
a(S'fc_mo'
I1
tp277
a(S'w'
I734
tp278
a(S'fc_mo'
I1
tp279
a(S'w'
I4
tp280
a(S'p2_tl'
I212
tp281
a(S'p2_ll'
I1
tp282
a(S'w'
I729
tp283
a(S'fc_mo'
I1
tp284
a(S'w'
I744
tp285
a(S'fc_mo'
I1
tp286
a(S'w'
I724
tp287
a(S'fc_mo'
I1
tp288
a(S'w'
I734
tp289
a(S'fc_mo'
I1
tp290
a(S'w'
I734
tp291
a(S'fc_mo'
I1
tp292
a(S'w'
I3
tp293
a(S'p1_tl'
I137
tp294
a(S'p1_ll'
I1
tp295
a(S'p1_th'
I3
tp296
a(S'w'
I3
tp297
a(S'p2_tl'
I189
tp298
a(S'w'
I1
tp299
a(S'p2_ll'
I1
tp300
a(S'w'
I726
tp301
a(S'fc_mo'
I1
tp302
a(S'w'
I734
tp303
a(S'fc_mo'
I1
tp304
a(S'w'
I734
tp305
a(S'fc_mo'
I1
tp306
a(S'w'
I734
tp307
a(S'fc_mo'
I1
tp308
a(S'w'
I734
tp309
a(S'fc_mo'
I1
tp310
a(S'w'
I4
tp311
a(S'p2_tl'
I225
tp312
a(S'w'
I1
tp313
a(S'p2_ll'
I1
tp314
a(S'w'
I728
tp315
a(S'fc_mo'
I1
tp316
a(S'w'
I734
tp317
a(S'fc_mo'
I1
tp318
a(S'w'
I734
tp319
a(S'fc_mo'
I1
tp320
a(S'w'
I734
tp321
a(S'fc_mo'
I1
tp322
a(S'w'
I734
tp323
a(S'fc_mo'
I1
tp324
a(S'w'
I4
tp325
a(S'p2_tl'
I212
tp326
a(S'p2_ll'
I1
tp327
a(S'w'
I729
tp328
a(S'fc_mo'
I1
tp329
a(S'w'
I734
tp330
a(S'fc_mo'
I1
tp331
a(S'w'
I734
tp332
a(S'fc_mo'
I1
tp333
a(S'w'
I734
tp334
a(S'fc_mo'
I1
tp335
a(S'w'
I734
tp336
a(S'fc_mo'
I1
tp337
a(S'w'
I4
tp338
a(S'p2_tl'
I253
tp339
a(S'w'
I1
tp340
a(S'p2_ll'
I1
tp341
a(S'w'
I728
tp342
a(S'fc_mo'
I1
tp343
a(S'w'
I734
tp344
a(S'fc_mo'
I1
tp345
a(S'w'
I734
tp346
a(S'fc_mo'
I1
tp347
a(S'w'
I734
tp348
a(S'fc_mo'
I1
tp349
a(S'w'
I734
tp350
a(S'fc_mo'
I1
tp351
a(S'w'
I3
tp352
a(S'p1_tl'
I117
tp353
a(S'p1_ll'
I1
tp354
a(S'p1_th'
I4
tp355
a(S'w'
I3
tp356
a(S'p2_tl'
I225
tp357
a(S'w'
I1
tp358
a(S'p2_ll'
I1
tp359
a(S'w'
I726
tp360
a(S'fc_mo'
I1
tp361
a(S'w'
I734
tp362
a(S'fc_mo'
I1
tp363
a(S'w'
I734
tp364
a(S'fc_mo'
I1
tp365
a(S'w'
I734
tp366
a(S'fc_mo'
I1
tp367
a(S'w'
I734
tp368
a(S'fc_mo'
I1
tp369
a(S'w'
I4
tp370
a(S'p2_tl'
I28
tp371
a(S'w'
I1
tp372
a(S'p2_ll'
I1
tp373
a(S'p2_th'
I1
tp374
a(S'w'
I728
tp375
a(S'fc_mo'
I1
tp376
a(S'w'
I734
tp377
a(S'fc_mo'
I1
tp378
a(S'w'
I734
tp379
a(S'fc_mo'
I1
tp380
a(S'w'
I734
tp381
a(S'fc_mo'
I1
tp382
a(S'w'
I734
tp383
a(S'fc_mo'
I1
tp384
a(S'w'
I4
tp385
a(S'p2_tl'
I253
tp386
a(S'w'
I1
tp387
a(S'p2_ll'
I1
tp388
a(S'p2_th'
I0
tp389
a(S'w'
I728
tp390
a(S'fc_mo'
I1
tp391
a(S'w'
I734
tp392
a(S'fc_mo'
I1
tp393
a(S'w'
I734
tp394
a(S'fc_mo'
I1
tp395
a(S'w'
I734
tp396
a(S'fc_mo'
I1
tp397
a(S'w'
I734
tp398
a(S'fc_mo'
I1
tp399
a(S'w'
I4
tp400
a(S'p2_tl'
I63
tp401
a(S'w'
I1
tp402
a(S'p2_ll'
I1
tp403
a(S'p2_th'
I1
tp404
a(S'w'
I728
tp405
a(S'fc_mo'
I1
tp406
a(S'w'
I734
tp407
a(S'fc_mo'
I1
tp408
a(S'w'
I734
tp409
a(S'fc_mo'
I1
tp410
a(S'w'
I734
tp411
a(S'fc_mo'
I1
tp412
a(S'w'
I734
tp413
a(S'fc_mo'
I1
tp414
a(S'w'
I3
tp415
a(S'p1_tl'
I77
tp416
a(S'p1_ll'
I1
tp417
a(S'p1_th'
I5
tp418
a(S'w'
I3
tp419
a(S'p2_tl'
I28
tp420
a(S'w'
I1
tp421
a(S'p2_ll'
I1
tp422
a(S'w'
I726
tp423
a(S'fc_mo'
I1
tp424
a(S'w'
I734
tp425
a(S'fc_mo'
I1
tp426
a(S'w'
I734
tp427
a(S'fc_mo'
I1
tp428
a(S'w'
I734
tp429
a(S'fc_mo'
I1
tp430
a(S'w'
I734
tp431
a(S'fc_mo'
I1
tp432
a(S'w'
I4
tp433
a(S'p2_tl'
I82
tp434
a(S'w'
I1
tp435
a(S'p2_ll'
I1
tp436
a(S'w'
I728
tp437
a(S'fc_mo'
I1
tp438
a(S'w'
I734
tp439
a(S'fc_mo'
I1
tp440
a(S'w'
I734
tp441
a(S'fc_mo'
I1
tp442
a(S'w'
I734
tp443
a(S'fc_mo'
I1
tp444
a(S'w'
I734
tp445
a(S'fc_mo'
I1
tp446
a(S'w'
I4
tp447
a(S'p2_tl'
I63
tp448
a(S'w'
I1
tp449
a(S'p2_ll'
I1
tp450
a(S'w'
I728
tp451
a(S'fc_mo'
I1
tp452
a(S'w'
I734
tp453
a(S'fc_mo'
I1
tp454
a(S'w'
I734
tp455
a(S'fc_mo'
I1
tp456
a(S'w'
I734
tp457
a(S'fc_mo'
I1
tp458
a(S'w'
I734
tp459
a(S'fc_mo'
I1
tp460
a(S'w'
I4
tp461
a(S'p2_tl'
I124
tp462
a(S'w'
I1
tp463
a(S'p2_ll'
I1
tp464
a(S'w'
I728
tp465
a(S'fc_mo'
I1
tp466
a(S'w'
I734
tp467
a(S'fc_mo'
I1
tp468
a(S'w'
I734
tp469
a(S'fc_mo'
I1
tp470
a(S'w'
I734
tp471
a(S'fc_mo'
I1
tp472
a(S'w'
I734
tp473
a(S'fc_mo'
I1
tp474
a(S'w'
I4
tp475
a(S'p1_tl'
I174
tp476
a(S'p1_ll'
I1
tp477
a(S'p1_th'
I6
tp478
a(S'w'
I3
tp479
a(S'p2_tl'
I171
tp480
a(S'w'
I1
tp481
a(S'p2_ll'
I1
tp482
a(S'p2_vo'
I7
tp483
a(S'w'
I725
tp484
a(S'fc_mo'
I1
tp485
a(S'w'
I734
tp486
a(S'fc_mo'
I1
tp487
a(S'w'
I734
tp488
a(S'fc_mo'
I1
tp489
a(S'w'
I734
tp490
a(S'fc_mo'
I1
tp491
a(S'w'
I734
tp492
a(S'fc_mo'
I1
tp493
a(S'w'
I733
tp494
a(S'fc_mo'
I1
tp495
a(S'w'
I734
tp496
a(S'fc_mo'
I1
tp497
a(S'w'
I734
tp498
a(S'fc_mo'
I1
tp499
a(S'w'
I734
tp500
a(S'fc_mo'
I1
tp501
a(S'w'
I734
tp502
a(S'fc_mo'
I1
tp503
a(S'w'
I3
tp504
a(S'p1_tl'
I243
tp505
a(S'p1_ll'
I1
tp506
a(S'p1_th'
I5
tp507
a(S'w'
I730
tp508
a(S'fc_mo'
I1
tp509
a(S'w'
I734
tp510
a(S'fc_mo'
I1
tp511
a(S'w'
I734
tp512
a(S'fc_mo'
I1
tp513
a(S'w'
I734
tp514
a(S'fc_mo'
I1
tp515
a(S'w'
I734
tp516
a(S'fc_mo'
I1
tp517
a(S'w'
I733
tp518
a(S'fc_mo'
I1
tp519
a(S'w'
I734
tp520
a(S'fc_mo'
I1
tp521
a(S'w'
I734
tp522
a(S'fc_mo'
I1
tp523
a(S'w'
I734
tp524
a(S'fc_mo'
I1
tp525
a(S'w'
I734
tp526
a(S'fc_mo'
I1
tp527
a(S'w'
I3
tp528
a(S'p1_tl'
I77
tp529
a(S'p1_ll'
I1
tp530
a(S'w'
I730
tp531
a(S'fc_mo'
I1
tp532
a(S'w'
I734
tp533
a(S'fc_mo'
I1
tp534
a(S'w'
I734
tp535
a(S'fc_mo'
I1
tp536
a(S'w'
I734
tp537
a(S'fc_mo'
I1
tp538
a(S'w'
I734
tp539
a(S'fc_mo'
I1
tp540
a(S'w'
I733
tp541
a(S'fc_mo'
I1
tp542
a(S'w'
I734
tp543
a(S'fc_mo'
I1
tp544
a(S'w'
I734
tp545
a(S'fc_mo'
I1
tp546
a(S'w'
I734
tp547
a(S'fc_mo'
I1
tp548
a(S'w'
I734
tp549
a(S'fc_mo'
I1
tp550
a(S'w'
I4
tp551
a(S'p1_tl'
I117
tp552
a(S'p1_ll'
I1
tp553
a(S'p1_th'
I4
tp554
a(S'w'
I729
tp555
a(S'fc_mo'
I1
tp556
a(S'w'
I734
tp557
a(S'fc_mo'
I1
tp558
a(S'w'
I734
tp559
a(S'fc_mo'
I1
tp560
a(S'w'
I734
tp561
a(S'fc_mo'
I1
tp562
a(S'w'
I734
tp563
a(S'fc_mo'
I1
tp564
a(S'w'
I733
tp565
a(S'fc_mo'
I1
tp566
a(S'w'
I734
tp567
a(S'fc_mo'
I1
tp568
a(S'w'
I734
tp569
a(S'fc_mo'
I1
tp570
a(S'w'
I734
tp571
a(S'fc_mo'
I1
tp572
a(S'w'
I734
tp573
a(S'fc_mo'
I1
tp574
a(S'w'
I733
tp575
a(S'fc_mo'
I1
tp576
a(S'w'
I734
tp577
a(S'fc_mo'
I1
tp578
a(S'w'
I734
tp579
a(S'fc_mo'
I1
tp580
a(S'w'
I734
tp581
a(S'fc_mo'
I1
tp582
a(S'w'
I734
tp583
a(S'fc_mo'
I1
tp584
a(S'w'
I733
tp585
a(S'fc_mo'
I1
tp586
a(S'w'
I734
tp587
a(S'fc_mo'
I1
tp588
a(S'w'
I734
tp589
a(S'fc_mo'
I1
tp590
a(S'w'
I734
tp591
a(S'fc_mo'
I1
tp592
a(S'w'
I734
tp593
a(S'fc_mo'
I1
tp594
a(S'w'
I4
tp595
a(S'p1_tl'
I248
tp596
a(S'p1_ll'
I1
tp597
a(S'p1_th'
I3
tp598
a(S'w'
I730
tp599
a(S'fc_mo'
I1
tp600
a(S'w'
I733
tp601
a(S'fc_mo'
I1
tp602
a(S'w'
I734
tp603
a(S'fc_mo'
I1
tp604
a(S'w'
I734
tp605
a(S'fc_mo'
I1
tp606
a(S'w'
I734
tp607
a(S'fc_mo'
I1
tp608
a(S'w'
I733
tp609
a(S'fc_mo'
I1
tp610
a(S'w'
I734
tp611
a(S'fc_mo'
I1
tp612
a(S'w'
I734
tp613
a(S'fc_mo'
I1
tp614
a(S'w'
I734
tp615
a(S'fc_mo'
I1
tp616
a(S'w'
I734
tp617
a(S'fc_mo'
I1
tp618
a(S'w'
I3
tp619
a(S'p1_tl'
I87
tp620
a(S'p1_ll'
I1
tp621
a(S'w'
I730
tp622
a(S'fc_mo'
I1
tp623
a(S'w'
I734
tp624
a(S'fc_mo'
I1
tp625
a(S'w'
I734
tp626
a(S'fc_mo'
I1
tp627
a(S'w'
I734
tp628
a(S'fc_mo'
I1
tp629
a(S'w'
I734
tp630
a(S'fc_mo'
I1
tp631
a(S'w'
I734
tp632
a(S'fc_mo'
I1
tp633
a(S'w'
I733
tp634
a(S'fc_mo'
I1
tp635
a(S'w'
I734
tp636
a(S'fc_mo'
I1
tp637
a(S'w'
I734
tp638
a(S'fc_mo'
I1
tp639
a(S'w'
I734
tp640
a(S'fc_mo'
I1
tp641
a(S'w'
I3
tp642
a(S'p1_tl'
I249
tp643
a(S'p1_ll'
I1
tp644
a(S'p1_th'
I2
tp645
a(S'w'
I730
tp646
a(S'fc_mo'
I1
tp647
a(S'w'
I734
tp648
a(S'fc_mo'
I1
tp649
a(S'w'
I734
tp650
a(S'fc_mo'
I1
tp651
a(S'w'
I734
tp652
a(S'fc_mo'
I1
tp653
a(S'w'
I734
tp654
a(S'fc_mo'
I1
tp655
a(S'w'
I734
tp656
a(S'fc_mo'
I1
tp657
a(S'w'
I733
tp658
a(S'fc_mo'
I1
tp659
a(S'w'
I734
tp660
a(S'fc_mo'
I1
tp661
a(S'w'
I734
tp662
a(S'fc_mo'
I1
tp663
a(S'w'
I734
tp664
a(S'fc_mo'
I1
tp665
a(S'w'
I4
tp666
a(S'p1_tl'
I87
tp667
a(S'p1_ll'
I1
tp668
a(S'p1_th'
I3
tp669
a(S'w'
I730
tp670
a(S'fc_mo'
I1
tp671
a(S'w'
I733
tp672
a(S'fc_mo'
I1
tp673
a(S'w'
I734
tp674
a(S'fc_mo'
I1
tp675
a(S'w'
I734
tp676
a(S'fc_mo'
I1
tp677
a(S'w'
I734
tp678
a(S'fc_mo'
I1
tp679
a(S'w'
I734
tp680
a(S'fc_mo'
I1
tp681
a(S'w'
I733
tp682
a(S'fc_mo'
I1
tp683
a(S'w'
I734
tp684
a(S'fc_mo'
I1
tp685
a(S'w'
I734
tp686
a(S'fc_mo'
I1
tp687
a(S'w'
I734
tp688
a(S'fc_mo'
I1
tp689
a(S'w'
I734
tp690
a(S'fc_mo'
I1
tp691
a(S'w'
I733
tp692
a(S'fc_mo'
I1
tp693
a(S'w'
I734
tp694
a(S'fc_mo'
I1
tp695
a(S'w'
I734
tp696
a(S'fc_mo'
I1
tp697
a(S'w'
I734
tp698
a(S'fc_mo'
I1
tp699
a(S'w'
I734
tp700
a(S'fc_mo'
I1
tp701
a(S'w'
I733
tp702
a(S'fc_mo'
I1
tp703
a(S'w'
I734
tp704
a(S'fc_mo'
I1
tp705
a(S'w'
I734
tp706
a(S'fc_mo'
I1
tp707
a(S'w'
I734
tp708
a(S'fc_mo'
I1
tp709
a(S'w'
I734
tp710
a(S'fc_mo'
I1
tp711
a(S'w'
I733
tp712
a(S'fc_mo'
I1
tp713
a(S'w'
I734
tp714
a(S'fc_mo'
I1
tp715
a(S'w'
I734
tp716
a(S'fc_mo'
I1
tp717
a(S'w'
I734
tp718
a(S'fc_mo'
I1
tp719
a(S'w'
I734
tp720
a(S'fc_mo'
I1
tp721
a(S'w'
I358
tp722
a.