(lp1
(S'clock'
p2
I1789772
tp3
a(S'p1_du'
I2
tp4
a(S'p1_vo'
I4
tp5
a(S'p1_tl'
I171
tp6
a(S'p1_ll'
I15
tp7
a(S'p1_th'
I1
tp8
a(S'p2_du'
I2
tp9
a(S'p2_vo'
I4
tp10
a(S'p2_tl'
I166
tp11
a(S'p2_ll'
I15
tp12
a(S'p2_th'
I2
tp13
a(S'tr_lr'
I24
tp14
a(S'tr_tl'
I171
tp15
a(S'tr_ll'
I1
tp16
a(S'tr_th'
I1
tp17
a(S'no_np'
I4
tp18
a(S'no_ll'
I4
tp19
a(S'ch_no'
I1
tp20
a(S'ch_tr'
I1
tp21
a(S'ch_p2'
I1
tp22
a(S'ch_p1'
I1
tp23
a(S'fc_mo'
I0
tp24
a(S'p1_du'
I0
tp25
a(S'p1_cv'
I1
tp26
a(S'p1_vo'
I0
tp27
a(S'w'
I1
tp28
a(S'p2_du'
I0
tp29
a(S'p2_cv'
I1
tp30
a(S'p2_vo'
I0
tp31
a(S'no_cv'
I1
tp32
a(S'tr_lr'
I0
tp33
a(S'p1_ll'
I3
tp34
a(S'p1_th'
I0
tp35
a(S'p2_ll'
I3
tp36
a(S'p2_th'
I0
tp37
a(S'tr_ll'
I3
tp38
a(S'tr_th'
I0
tp39
a(S'no_ll'
I3
tp40
a(S'w'
I25
tp41
a(S'p1_du'
I2
tp42
a(S'p1_cv'
I0
tp43
a(S'p1_vo'
I15
tp44
a(S'w'
I1
tp45
a(S'p1_tl'
I212
tp46
a(S'p1_ll'
I26
tp47
a(S'w'
I24
tp48
a(S'p2_du'
I2
tp49
a(S'p2_cv'
I0
tp50
a(S'p2_vo'
I15
tp51
a(S'w'
I1
tp52
a(S'p2_tl'
I12
tp53
a(S'p2_ll'
I26
tp54
a(S'p2_th'
I1
tp55
a(S'w'
I27
tp56
a(S'no_cv'
I0
tp57
a(S'w'
I1
tp58
a(S'w'
I1
tp59
a(S'no_ll'
I4
tp60
a(S'w'
I20472
tp61
a(S'no_ll'
I4
tp62
a(S'w'
I10267
tp63
a(S'p1_vo'
I3
tp64
a(S'w'
I1
tp65
a(S'p1_tl'
I225
tp66
a(S'p1_ll'
I15
tp67
a(S'w'
I9
tp68
a(S'p2_vo'
I3
tp69
a(S'w'
I1
tp70
a(S'p2_tl'
I28
tp71
a(S'w'
I1
tp72
a(S'p2_ll'
I15
tp73
a(S'w'
I5
tp74
a(S'no_ll'
I4
tp75
a(S'w'
I5116
tp76
a(S'p1_tl'
I28
tp77
a(S'p1_ll'
I15
tp78
a(S'p1_th'
I1
tp79
a(S'w'
I5
tp80
a(S'p2_tl'
I103
tp81
a(S'w'
I1
tp82
a(S'p2_ll'
I15
tp83
a(S'w'
I5134
tp84
a(S'p1_vo'
I7
tp85
a(S'w'
I1
tp86
a(S'p1_tl'
I238
tp87
a(S'w'
I1
tp88
a(S'p1_ll'
I27
tp89
a(S'p1_th'
I0
tp90
a(S'w'
I9
tp91
a(S'p2_vo'
I7
tp92
a(S'w'
I1
tp93
a(S'p2_tl'
I45
tp94
a(S'p2_ll'
I27
tp95
a(S'w'
I14
tp96
a(S'w'
I1
tp97
a(S'no_ll'
I4
tp98
a(S'w'
I20543
tp99
a(S'no_ll'
I4
tp100
a(S'w'
I10249
tp101
a(S'no_ll'
I4
tp102
a(S'w'
I10276
tp103
a(S'p1_vo'
I15
tp104
a(S'w'
I1
tp105
a(S'p1_tl'
I253
tp106
a(S'p1_ll'
I26
tp107
a(S'w'
I11
tp108
a(S'p2_vo'
I15
tp109
a(S'w'
I1
tp110
a(S'p2_tl'
I63
tp111
a(S'p2_ll'
I26
tp112
a(S'w'
I7
tp113
a(S'tr_lr'
I126
tp114
a(S'w'
I1
tp115
a(S'tr_tl'
I28
tp116
a(S'w'
I1
tp117
a(S'tr_ll'
I1
tp118
a(S'tr_th'
I1
tp119
a(S'w'
I16
tp120
a(S'w'
I1
tp121
a(S'no_ll'
I4
tp122
a(S'w'
I20512
tp123
a(S'no_ll'
I4
tp124
a(S'w'
I10267
tp125
a(S'p1_vo'
I3
tp126
a(S'w'
I1
tp127
a(S'p1_tl'
I12
tp128
a(S'p1_ll'
I15
tp129
a(S'p1_th'
I1
tp130
a(S'w'
I9
tp131
a(S'p2_vo'
I3
tp132
a(S'w'
I1
tp133
a(S'p2_tl'
I82
tp134
a(S'w'
I1
tp135
a(S'p2_ll'
I15
tp136
a(S'w'
I7
tp137
a(S'tr_lr'
I21
tp138
a(S'w'
I1
tp139
a(S'tr_tl'
I45
tp140
a(S'tr_ll'
I1
tp141
a(S'w'
I4
tp142
a(S'w'
I1
tp143
a(S'no_ll'
I4
tp144
a(S'w'
I5107
tp145
a(S'p1_tl'
I103
tp146
a(S'w'
I1
tp147
a(S'p1_ll'
I15
tp148
a(S'w'
I5
tp149
a(S'p2_tl'
I196
tp150
a(S'p2_ll'
I15
tp151
a(S'w'
I5
tp152
a(S'tr_tl'
I147
tp153
a(S'w'
I1
tp154
a(S'tr_ll'
I1
tp155
a(S'w'
I5129
tp156
a(S'p1_vo'
I7
tp157
a(S'w'
I1
tp158
a(S'p1_tl'
I45
tp159
a(S'p1_ll'
I27
tp160
a(S'w'
I9
tp161
a(S'p2_vo'
I7
tp162
a(S'w'
I1
tp163
a(S'p2_tl'
I124
tp164
a(S'w'
I1
tp165
a(S'p2_ll'
I27
tp166
a(S'w'
I7
tp167
a(S'tr_lr'
I42
tp168
a(S'w'
I1
tp169
a(S'tr_tl'
I82
tp170
a(S'w'
I1
tp171
a(S'tr_ll'
I1
tp172
a(S'w'
I13
tp173
a(S'no_ll'
I4
tp174
a(S'w'
I20540
tp175
a(S'w'
I1
tp176
a(S'no_ll'
I4
tp177
a(S'w'
I10244
tp178
a(S'no_ll'
I4
tp179
a(S'w'
I10275
tp180
a(S'p1_tl'
I63
tp181
a(S'p1_ll'
I27
tp182
a(S'w'
I10
tp183
a(S'p2_tl'
I147
tp184
a(S'w'
I1
tp185
a(S'p2_ll'
I27
tp186
a(S'w'
I8
tp187
a(S'tr_tl'
I103
tp188
a(S'tr_ll'
I1
tp189
a(S'w'
I17
tp190
a(S'w'
I1
tp191
a(S'no_ll'
I4
tp192
a(S'w'
I10231
tp193
a(S'p1_ll'
I27
tp194
a(S'w'
I6
tp195
a(S'p2_ll'
I27
tp196
a(S'w'
I6
tp197
a(S'tr_ll'
I1
tp198
a(S'w'
I10276
tp199
a(S'no_ll'
I4
tp200
a(S'w'
I10258
tp201
a(S'w'
I1
tp202
a(S'p1_ll'
I27
tp203
a(S'w'
I5
tp204
a(S'p2_ll'
I27
tp205
a(S'w'
I6
tp206
a(S'tr_ll'
I1
tp207
a(S'w'
I4
tp208
a(S'no_ll'
I4
tp209
a(S'w'
I10258
tp210
a(S'p1_tl'
I45
tp211
a(S'p1_ll'
I27
tp212
a(S'w'
I5
tp213
a(S'p2_tl'
I124
tp214
a(S'w'
I1
tp215
a(S'p2_ll'
I27
tp216
a(S'w'
I5
tp217
a(S'tr_tl'
I82
tp218
a(S'tr_ll'
I1
tp219
a(S'w'
I13
tp220
a(S'w'
I1
tp221
a(S'no_ll'
I4
tp222
a(S'w'
I10248
tp223
a(S'p1_ll'
I27
tp224
a(S'w'
I5
tp225
a(S'w'
I1
tp226
a(S'p2_ll'
I27
tp227
a(S'w'
I5
tp228
a(S'tr_ll'
I1
tp229
a(S'w'
I10277
tp230
a(S'no_ll'
I4
tp231
a(S'w'
I10258
tp232
a(S'w'
I1
tp233
a(S'p1_ll'
I27
tp234
a(S'w'
I5
tp235
a(S'p2_ll'
I27
tp236
a(S'w'
I6
tp237
a(S'tr_ll'
I1
tp238
a(S'w'
I4
tp239
a(S'no_ll'
I4
tp240
a(S'w'
I10262
tp241
a(S'p1_vo'
I3
tp242
a(S'w'
I1
tp243
a(S'p1_tl'
I28
tp244
a(S'p1_ll'
I15
tp245
a(S'w'
I9
tp246
a(S'p2_vo'
I3
tp247
a(S'w'
I1
tp248
a(S'p2_tl'
I103
tp249
a(S'w'
I1
tp250
a(S'p2_ll'
I15
tp251
a(S'w'
I22
tp252
a(S'w'
I1
tp253
a(S'no_ll'
I4
tp254
a(S'w'
I5097
tp255
a(S'p1_tl'
I253
tp256
a(S'w'
I1
tp257
a(S'p1_ll'
I15
tp258
a(S'p1_th'
I0
tp259
a(S'w'
I5
tp260
a(S'p2_tl'
I63
tp261
a(S'p2_ll'
I15
tp262
a(S'w'
I5131
tp263
a(S'p1_tl'
I225
tp264
a(S'p1_ll'
I15
tp265
a(S'w'
I5
tp266
a(S'p2_tl'
I28
tp267
a(S'w'
I1
tp268
a(S'p2_ll'
I15
tp269
a(S'w'
I5130
tp270
a(S'p1_tl'
I200
tp271
a(S'w'
I1
tp272
a(S'p1_ll'
I15
tp273
a(S'w'
I5
tp274
a(S'p2_tl'
I253
tp275
a(S'p2_ll'
I15
tp276
a(S'p2_th'
I0
tp277
a(S'w'
I5131
tp278
a(S'p1_tl'
I178
tp279
a(S'p1_ll'
I15
tp280
a(S'w'
I6
tp281
a(S'p2_tl'
I225
tp282
a(S'p2_ll'
I15
tp283
a(S'w'
I7
tp284
a(S'tr_lr'
I21
tp285
a(S'w'
I1
tp286
a(S'tr_tl'
I200
tp287
a(S'w'
I1
tp288
a(S'tr_ll'
I1
tp289
a(S'tr_th'
I0
tp290
a(S'w'
I11
tp291
a(S'no_ll'
I4
tp292
a(S'w'
I5111
tp293
a(S'p1_tl'
I200
tp294
a(S'p1_ll'
I15
tp295
a(S'w'
I5
tp296
a(S'p2_tl'
I253
tp297
a(S'w'
I1
tp298
a(S'p2_ll'
I15
tp299
a(S'w'
I5
tp300
a(S'tr_tl'
I225
tp301
a(S'tr_ll'
I1
tp302
a(S'w'
I5125
tp303
a(S'p1_tl'
I225
tp304
a(S'w'
I1
tp305
a(S'p1_ll'
I15
tp306
a(S'w'
I5
tp307
a(S'p2_tl'
I28
tp308
a(S'p2_ll'
I15
tp309
a(S'p2_th'
I1
tp310
a(S'w'
I5
tp311
a(S'tr_tl'
I253
tp312
a(S'w'
I1
tp313
a(S'tr_ll'
I1
tp314
a(S'w'
I4
tp315
a(S'no_ll'
I4
tp316
a(S'w'
I5121
tp317
a(S'p1_tl'
I253
tp318
a(S'p1_ll'
I15
tp319
a(S'w'
I5
tp320
a(S'p2_tl'
I63
tp321
a(S'w'
I1
tp322
a(S'p2_ll'
I15
tp323
a(S'w'
I5
tp324
a(S'tr_tl'
I28
tp325
a(S'tr_ll'
I1
tp326
a(S'tr_th'
I1
tp327
a(S'w'
I5131
tp328
a(S'p1_vo'
I15
tp329
a(S'w'
I1
tp330
a(S'p1_tl'
I28
tp331
a(S'p1_ll'
I26
tp332
a(S'p1_th'
I1
tp333
a(S'w'
I11
tp334
a(S'p2_vo'
I15
tp335
a(S'w'
I1
tp336
a(S'p2_tl'
I103
tp337
a(S'p2_ll'
I26
tp338
a(S'w'
I8
tp339
a(S'tr_lr'
I126
tp340
a(S'w'
I1
tp341
a(S'tr_tl'
I63
tp342
a(S'tr_ll'
I1
tp343
a(S'w'
I13
tp344
a(S'w'
I1
tp345
a(S'no_ll'
I4
tp346
a(S'w'
I20515
tp347
a(S'no_ll'
I4
tp348
a(S'w'
I10284
tp349
a(S'no_ll'
I4
tp350
a(S'w'
I10263
tp351
a(S'p1_tl'
I212
tp352
a(S'p1_ll'
I26
tp353
a(S'p1_th'
I0
tp354
a(S'w'
I15
tp355
a(S'p2_tl'
I12
tp356
a(S'w'
I1
tp357
a(S'p2_ll'
I26
tp358
a(S'w'
I28
tp359
a(S'no_ll'
I4
tp360
a(S'w'
I20502
tp361
a(S'no_ll'
I4
tp362
a(S'w'
I10267
tp363
a(S'p1_vo'
I3
tp364
a(S'w'
I1
tp365
a(S'p1_tl'
I225
tp366
a(S'p1_ll'
I15
tp367
a(S'w'
I10
tp368
a(S'p2_vo'
I3
tp369
a(S'w'
I1
tp370
a(S'p2_tl'
I28
tp371
a(S'p2_ll'
I15
tp372
a(S'w'
I5
tp373
a(S'w'
I1
tp374
a(S'no_ll'
I4
tp375
a(S'w'
I5115
tp376
a(S'p1_tl'
I28
tp377
a(S'p1_ll'
I15
tp378
a(S'p1_th'
I1
tp379
a(S'w'
I5
tp380
a(S'p2_tl'
I103
tp381
a(S'w'
I1
tp382
a(S'p2_ll'
I15
tp383
a(S'w'
I5134
tp384
a(S'p1_vo'
I7
tp385
a(S'w'
I1
tp386
a(S'p1_tl'
I238
tp387
a(S'w'
I1
tp388
a(S'p1_ll'
I27
tp389
a(S'p1_th'
I0
tp390
a(S'w'
I9
tp391
a(S'p2_vo'
I7
tp392
a(S'w'
I1
tp393
a(S'p2_tl'
I45
tp394
a(S'p2_ll'
I27
tp395
a(S'w'
I15
tp396
a(S'no_ll'
I4
tp397
a(S'w'
I20543
tp398
a(S'no_ll'
I4
tp399
a(S'w'
I10249
tp400
a(S'no_ll'
I4
tp401
a(S'w'
I10276
tp402
a(S'p1_vo'
I15
tp403
a(S'w'
I1
tp404
a(S'p1_tl'
I253
tp405
a(S'p1_ll'
I26
tp406
a(S'w'
I11
tp407
a(S'p2_vo'
I15
tp408
a(S'w'
I1
tp409
a(S'p2_tl'
I63
tp410
a(S'p2_ll'
I26
tp411
a(S'w'
I8
tp412
a(S'tr_tl'
I28
tp413
a(S'w'
I1
tp414
a(S'tr_ll'
I1
tp415
a(S'w'
I17
tp416
a(S'no_ll'
I4
tp417
a(S'w'
I20512
tp418
a(S'no_ll'
I4
tp419
a(S'w'
I10267
tp420
a(S'p1_vo'
I3
tp421
a(S'w'
I1
tp422
a(S'p1_tl'
I12
tp423
a(S'p1_ll'
I15
tp424
a(S'p1_th'
I1
tp425
a(S'w'
I9
tp426
a(S'p2_vo'
I3
tp427
a(S'w'
I1
tp428
a(S'p2_tl'
I82
tp429
a(S'w'
I1
tp430
a(S'p2_ll'
I15
tp431
a(S'w'
I7
tp432
a(S'tr_lr'
I21
tp433
a(S'w'
I1
tp434
a(S'tr_tl'
I45
tp435
a(S'tr_ll'
I1
tp436
a(S'w'
I4
tp437
a(S'w'
I1
tp438
a(S'no_ll'
I4
tp439
a(S'w'
I5107
tp440
a(S'p1_tl'
I103
tp441
a(S'w'
I1
tp442
a(S'p1_ll'
I15
tp443
a(S'w'
I5
tp444
a(S'p2_tl'
I196
tp445
a(S'p2_ll'
I15
tp446
a(S'w'
I5
tp447
a(S'tr_tl'
I147
tp448
a(S'w'
I1
tp449
a(S'tr_ll'
I1
tp450
a(S'w'
I5129
tp451
a(S'p1_vo'
I7
tp452
a(S'w'
I1
tp453
a(S'p1_tl'
I45
tp454
a(S'p1_ll'
I27
tp455
a(S'w'
I9
tp456
a(S'p2_vo'
I7
tp457
a(S'w'
I1
tp458
a(S'p2_tl'
I124
tp459
a(S'w'
I1
tp460
a(S'p2_ll'
I27
tp461
a(S'w'
I7
tp462
a(S'tr_lr'
I42
tp463
a(S'w'
I1
tp464
a(S'tr_tl'
I82
tp465
a(S'w'
I1
tp466
a(S'tr_ll'
I1
tp467
a(S'w'
I13
tp468
a(S'no_ll'
I4
tp469
a(S'w'
I20540
tp470
a(S'w'
I1
tp471
a(S'no_ll'
I4
tp472
a(S'w'
I10244
tp473
a(S'no_ll'
I4
tp474
a(S'w'
I10275
tp475
a(S'p1_tl'
I63
tp476
a(S'p1_ll'
I27
tp477
a(S'w'
I10
tp478
a(S'p2_tl'
I147
tp479
a(S'w'
I1
tp480
a(S'p2_ll'
I27
tp481
a(S'w'
I8
tp482
a(S'tr_tl'
I103
tp483
a(S'tr_ll'
I1
tp484
a(S'w'
I17
tp485
a(S'w'
I1
tp486
a(S'no_ll'
I4
tp487
a(S'w'
I10231
tp488
a(S'w'
I1
tp489
a(S'p1_ll'
I27
tp490
a(S'w'
I5
tp491
a(S'p2_ll'
I27
tp492
a(S'w'
I6
tp493
a(S'tr_ll'
I1
tp494
a(S'w'
I10276
tp495
a(S'no_ll'
I4
tp496
a(S'w'
I10259
tp497
a(S'p1_ll'
I27
tp498
a(S'w'
I5
tp499
a(S'p2_ll'
I27
tp500
a(S'w'
I6
tp501
a(S'tr_ll'
I1
tp502
a(S'w'
I4
tp503
a(S'no_ll'
I4
tp504
a(S'w'
I10258
tp505
a(S'p1_tl'
I45
tp506
a(S'p1_ll'
I27
tp507
a(S'w'
I5
tp508
a(S'p2_tl'
I124
tp509
a(S'w'
I1
tp510
a(S'p2_ll'
I27
tp511
a(S'w'
I5
tp512
a(S'tr_tl'
I82
tp513
a(S'tr_ll'
I1
tp514
a(S'w'
I13
tp515
a(S'w'
I1
tp516
a(S'no_ll'
I4
tp517
a(S'w'
I10248
tp518
a(S'p1_ll'
I27
tp519
a(S'w'
I6
tp520
a(S'p2_ll'
I27
tp521
a(S'w'
I5
tp522
a(S'tr_ll'
I1
tp523
a(S'w'
I10277
tp524
a(S'no_ll'
I4
tp525
a(S'w'
I10258
tp526
a(S'w'
I1
tp527
a(S'p1_ll'
I27
tp528
a(S'w'
I5
tp529
a(S'p2_ll'
I27
tp530
a(S'w'
I6
tp531
a(S'tr_ll'
I1
tp532
a(S'w'
I4
tp533
a(S'no_ll'
I4
tp534
a(S'w'
I10262
tp535
a(S'p1_vo'
I3
tp536
a(S'w'
I1
tp537
a(S'p1_tl'
I28
tp538
a(S'p1_ll'
I15
tp539
a(S'w'
I9
tp540
a(S'p2_vo'
I3
tp541
a(S'w'
I1
tp542
a(S'p2_tl'
I103
tp543
a(S'w'
I1
tp544
a(S'p2_ll'
I15
tp545
a(S'w'
I22
tp546
a(S'w'
I1
tp547
a(S'no_ll'
I4
tp548
a(S'w'
I5097
tp549
a(S'p1_tl'
I253
tp550
a(S'w'
I1
tp551
a(S'p1_ll'
I15
tp552
a(S'p1_th'
I0
tp553
a(S'w'
I5
tp554
a(S'p2_tl'
I63
tp555
a(S'p2_ll'
I15
tp556
a(S'w'
I5131
tp557
a(S'p1_tl'
I225
tp558
a(S'p1_ll'
I15
tp559
a(S'w'
I5
tp560
a(S'p2_tl'
I28
tp561
a(S'w'
I1
tp562
a(S'p2_ll'
I15
tp563
a(S'w'
I5131
tp564
a(S'p1_tl'
I200
tp565
a(S'p1_ll'
I15
tp566
a(S'w'
I5
tp567
a(S'p2_tl'
I253
tp568
a(S'p2_ll'
I15
tp569
a(S'p2_th'
I0
tp570
a(S'w'
I5131
tp571
a(S'p1_tl'
I178
tp572
a(S'w'
I1
tp573
a(S'p1_ll'
I15
tp574
a(S'w'
I5
tp575
a(S'p2_tl'
I225
tp576
a(S'p2_ll'
I15
tp577
a(S'w'
I7
tp578
a(S'tr_lr'
I21
tp579
a(S'w'
I1
tp580
a(S'tr_tl'
I200
tp581
a(S'w'
I1
tp582
a(S'tr_ll'
I1
tp583
a(S'tr_th'
I0
tp584
a(S'w'
I11
tp585
a(S'no_ll'
I4
tp586
a(S'w'
I5111
tp587
a(S'p1_tl'
I200
tp588
a(S'p1_ll'
I15
tp589
a(S'w'
I5
tp590
a(S'p2_tl'
I253
tp591
a(S'w'
I1
tp592
a(S'p2_ll'
I15
tp593
a(S'w'
I5
tp594
a(S'tr_tl'
I225
tp595
a(S'tr_ll'
I1
tp596
a(S'w'
I5125
tp597
a(S'p1_tl'
I225
tp598
a(S'w'
I1
tp599
a(S'p1_ll'
I15
tp600
a(S'w'
I5
tp601
a(S'p2_tl'
I28
tp602
a(S'p2_ll'
I15
tp603
a(S'p2_th'
I1
tp604
a(S'w'
I5
tp605
a(S'tr_tl'
I253
tp606
a(S'w'
I1
tp607
a(S'tr_ll'
I1
tp608
a(S'w'
I4
tp609
a(S'no_ll'
I4
tp610
a(S'w'
I5121
tp611
a(S'p1_tl'
I253
tp612
a(S'p1_ll'
I15
tp613
a(S'w'
I5
tp614
a(S'p2_tl'
I63
tp615
a(S'w'
I1
tp616
a(S'p2_ll'
I15
tp617
a(S'w'
I5
tp618
a(S'tr_tl'
I28
tp619
a(S'tr_ll'
I1
tp620
a(S'tr_th'
I1
tp621
a(S'w'
I5131
tp622
a(S'p1_vo'
I15
tp623
a(S'w'
I1
tp624
a(S'p1_tl'
I28
tp625
a(S'p1_ll'
I26
tp626
a(S'p1_th'
I1
tp627
a(S'w'
I11
tp628
a(S'p2_vo'
I15
tp629
a(S'w'
I1
tp630
a(S'p2_tl'
I103
tp631
a(S'p2_ll'
I26
tp632
a(S'w'
I8
tp633
a(S'tr_lr'
I126
tp634
a(S'w'
I1
tp635
a(S'tr_tl'
I63
tp636
a(S'tr_ll'
I1
tp637
a(S'w'
I13
tp638
a(S'w'
I1
tp639
a(S'no_ll'
I4
tp640
a(S'w'
I20515
tp641
a(S'no_ll'
I4
tp642
a(S'w'
I10284
tp643
a(S'no_ll'
I4
tp644
a(S'w'
I10266
tp645
a(S'p1_vo'
I7
tp646
a(S'w'
I1
tp647
a(S'p1_tl'
I253
tp648
a(S'p1_ll'
I27
tp649
a(S'p1_th'
I0
tp650
a(S'w'
I50
tp651
a(S'w'
I1
tp652
a(S'no_ll'
I4
tp653
a(S'w'
I10208
tp654
a(S'p1_ll'
I27
tp655
a(S'w'
I10273
tp656
a(S'p1_tl'
I212
tp657
a(S'p1_ll'
I27
tp658
a(S'w'
I14
tp659
a(S'no_ll'
I4
tp660
a(S'w'
I10259
tp661
a(S'p1_ll'
I27
tp662
a(S'w'
I7
tp663
a(S'no_ll'
I4
tp664
a(S'w'
I10266
tp665
a(S'p1_tl'
I225
tp666
a(S'w'
I1
tp667
a(S'p1_ll'
I27
tp668
a(S'w'
I16
tp669
a(S'no_ll'
I4
tp670
a(S'w'
I20541
tp671
a(S'w'
I1
tp672
a(S'no_ll'
I4
tp673
a(S'w'
I10261
tp674
a(S'p1_tl'
I45
tp675
a(S'p1_ll'
I27
tp676
a(S'p1_th'
I1
tp677
a(S'w'
I7
tp678
a(S'no_ll'
I4
tp679
a(S'w'
I10276
tp680
a(S'p1_tl'
I63
tp681
a(S'w'
I1
tp682
a(S'p1_ll'
I27
tp683
a(S'w'
I14
tp684
a(S'p2_vo'
I7
tp685
a(S'w'
I1
tp686
a(S'p2_tl'
I147
tp687
a(S'p2_ll'
I27
tp688
a(S'w'
I8
tp689
a(S'tr_lr'
I42
tp690
a(S'w'
I1
tp691
a(S'tr_tl'
I103
tp692
a(S'tr_ll'
I1
tp693
a(S'w'
I17
tp694
a(S'no_ll'
I4
tp695
a(S'w'
I10221
tp696
a(S'p1_tl'
I200
tp697
a(S'w'
I1
tp698
a(S'p1_ll'
I27
tp699
a(S'p1_th'
I0
tp700
a(S'w'
I5
tp701
a(S'p2_tl'
I253
tp702
a(S'p2_ll'
I27
tp703
a(S'p2_th'
I0
tp704
a(S'w'
I5
tp705
a(S'tr_tl'
I225
tp706
a(S'w'
I1
tp707
a(S'tr_ll'
I1
tp708
a(S'tr_th'
I0
tp709
a(S'w'
I10276
tp710
a(S'w'
I1
tp711
a(S'no_ll'
I4
tp712
a(S'w'
I10258
tp713
a(S'p1_tl'
I63
tp714
a(S'p1_ll'
I27
tp715
a(S'p1_th'
I1
tp716
a(S'w'
I5
tp717
a(S'p2_tl'
I147
tp718
a(S'w'
I1
tp719
a(S'p2_ll'
I27
tp720
a(S'p2_th'
I1
tp721
a(S'w'
I5
tp722
a(S'tr_tl'
I103
tp723
a(S'tr_ll'
I1
tp724
a(S'tr_th'
I1
tp725
a(S'w'
I4
tp726
a(S'w'
I1
tp727
a(S'no_ll'
I4
tp728
a(S'w'
I10257
tp729
a(S'p1_tl'
I82
tp730
a(S'w'
I1
tp731
a(S'p1_ll'
I27
tp732
a(S'w'
I5
tp733
a(S'p2_tl'
I171
tp734
a(S'p2_ll'
I27
tp735
a(S'w'
I5
tp736
a(S'tr_tl'
I124
tp737
a(S'w'
I1
tp738
a(S'tr_ll'
I1
tp739
a(S'w'
I13
tp740
a(S'no_ll'
I4
tp741
a(S'w'
I10248
tp742
a(S'p1_tl'
I212
tp743
a(S'w'
I1
tp744
a(S'p1_ll'
I27
tp745
a(S'p1_th'
I0
tp746
a(S'w'
I5
tp747
a(S'p2_tl'
I12
tp748
a(S'p2_ll'
I27
tp749
a(S'w'
I6
tp750
a(S'tr_tl'
I238
tp751
a(S'tr_ll'
I1
tp752
a(S'tr_th'
I0
tp753
a(S'w'
I10276
tp754
a(S'w'
I1
tp755
a(S'no_ll'
I4
tp756
a(S'w'
I10258
tp757
a(S'p1_tl'
I82
tp758
a(S'p1_ll'
I27
tp759
a(S'p1_th'
I1
tp760
a(S'w'
I5
tp761
a(S'p2_tl'
I171
tp762
a(S'w'
I1
tp763
a(S'p2_ll'
I27
tp764
a(S'w'
I5
tp765
a(S'tr_tl'
I124
tp766
a(S'tr_ll'
I1
tp767
a(S'tr_th'
I1
tp768
a(S'w'
I4
tp769
a(S'w'
I1
tp770
a(S'no_ll'
I4
tp771
a(S'w'
I10285
tp772
a(S'tr_lr'
I127
tp773
a(S'w'
I1
tp774
a(S'tr_tl'
I26
tp775
a(S'w'
I1
tp776
a(S'tr_ll'
I1
tp777
a(S'tr_th'
I2
tp778
a(S'w'
I16
tp779
a(S'w'
I1
tp780
a(S'no_ll'
I4
tp781
a(S'w'
I20504
tp782
a(S'p1_tl'
I103
tp783
a(S'w'
I1
tp784
a(S'p1_ll'
I27
tp785
a(S'w'
I13
tp786
a(S'w'
I1
tp787
a(S'no_ll'
I4
tp788
a(S'w'
I10254
tp789
a(S'p1_tl'
I124
tp790
a(S'p1_ll'
I27
tp791
a(S'w'
I7
tp792
a(S'no_ll'
I4
tp793
a(S'w'
I10271
tp794
a(S'p1_vo'
I15
tp795
a(S'w'
I1
tp796
a(S'p1_tl'
I196
tp797
a(S'w'
I1
tp798
a(S'p1_ll'
I26
tp799
a(S'w'
I16
tp800
a(S'no_ll'
I4
tp801
a(S'w'
I20533
tp802
a(S'w'
I1
tp803
a(S'no_ll'
I4
tp804
a(S'w'
I10266
tp805
a(S'p1_vo'
I7
tp806
a(S'w'
I1
tp807
a(S'p1_tl'
I171
tp808
a(S'w'
I1
tp809
a(S'p1_ll'
I27
tp810
a(S'w'
I6
tp811
a(S'w'
I1
tp812
a(S'no_ll'
I4
tp813
a(S'w'
I10261
tp814
a(S'p1_tl'
I28
tp815
a(S'p1_ll'
I27
tp816
a(S'w'
I9
tp817
a(S'tr_lr'
I21
tp818
a(S'w'
I1
tp819
a(S'tr_tl'
I103
tp820
a(S'tr_ll'
I1
tp821
a(S'tr_th'
I1
tp822
a(S'w'
I17
tp823
a(S'no_ll'
I4
tp824
a(S'w'
I5112
tp825
a(S'tr_tl'
I178
tp826
a(S'w'
I1
tp827
a(S'tr_ll'
I1
tp828
a(S'tr_th'
I0
tp829
a(S'w'
I5133
tp830
a(S'p1_tl'
I225
tp831
a(S'p1_ll'
I27
tp832
a(S'p1_th'
I0
tp833
a(S'w'
I7
tp834
a(S'tr_tl'
I28
tp835
a(S'tr_ll'
I1
tp836
a(S'tr_th'
I1
tp837
a(S'w'
I5132
tp838
a(S'tr_tl'
I141
tp839
a(S'w'
I1
tp840
a(S'tr_ll'
I1
tp841
a(S'tr_th'
I0
tp842
a(S'w'
I5133
tp843
a(S'p1_tl'
I178
tp844
a(S'w'
I1
tp845
a(S'p1_ll'
I27
tp846
a(S'w'
I6
tp847
a(S'tr_tl'
I225
tp848
a(S'tr_ll'
I1
tp849
a(S'w'
I12
tp850
a(S'no_ll'
I4
tp851
a(S'w'
I5121
tp852
a(S'tr_tl'
I112
tp853
a(S'tr_ll'
I1
tp854
a(S'w'
I5133
tp855
a(S'p1_tl'
I225
tp856
a(S'w'
I1
tp857
a(S'p1_ll'
I27
tp858
a(S'w'
I6
tp859
a(S'tr_tl'
I28
tp860
a(S'w'
I1
tp861
a(S'tr_ll'
I1
tp862
a(S'tr_th'
I1
tp863
a(S'w'
I4
tp864
a(S'no_ll'
I4
tp865
a(S'w'
I5128
tp866
a(S'tr_tl'
I141
tp867
a(S'tr_ll'
I1
tp868
a(S'tr_th'
I0
tp869
a(S'w'
I5134
tp870
a(S'p1_tl'
I28
tp871
a(S'p1_ll'
I27
tp872
a(S'p1_th'
I1
tp873
a(S'w'
I9
tp874
a(S'tr_lr'
I42
tp875
a(S'w'
I1
tp876
a(S'tr_tl'
I103
tp877
a(S'tr_ll'
I1
tp878
a(S'tr_th'
I1
tp879
a(S'w'
I13
tp880
a(S'w'
I1
tp881
a(S'no_ll'
I4
tp882
a(S'w'
I20534
tp883
a(S'p1_cv'
I1
tp884
a(S'p1_vo'
I15
tp885
a(S'w'
I1
tp886
a(S'p1_tl'
I82
tp887
a(S'w'
I1
tp888
a(S'p1_ll'
I22
tp889
a(S'w'
I18
tp890
a(S'w'
I1
tp891
a(S'no_ll'
I4
tp892
a(S'w'
I2901
tp893
a(S'p1_vo'
I14
tp894
a(S'w'
I2203
tp895
a(S'p1_tl'
I103
tp896
a(S'p1_ll'
I22
tp897
a(S'w'
I1466
tp898
a(S'p1_vo'
I13
tp899
a(S'w'
I2935
tp900
a(S'p1_vo'
I12
tp901
a(S'w'
I735
tp902
a(S'p1_tl'
I124
tp903
a(S'w'
I1
tp904
a(S'p1_ll'
I22
tp905
a(S'w'
I6
tp906
a(S'w'
I1
tp907
a(S'no_ll'
I4
tp908
a(S'w'
I2926
tp909
a(S'p1_vo'
I11
tp910
a(S'w'
I2203
tp911
a(S'p1_tl'
I147
tp912
a(S'p1_ll'
I22
tp913
a(S'w'
I1466
tp914
a(S'p1_vo'
I10
tp915
a(S'w'
I2935
tp916
a(S'p1_vo'
I9
tp917
a(S'w'
I749
tp918
a(S'p1_cv'
I0
tp919
a(S'p1_vo'
I7
tp920
a(S'w'
I1
tp921
a(S'p1_tl'
I253
tp922
a(S'p1_ll'
I27
tp923
a(S'p1_th'
I0
tp924
a(S'w'
I42
tp925
a(S'no_ll'
I4
tp926
a(S'w'
I10217
tp927
a(S'p1_ll'
I27
tp928
a(S'w'
I10273
tp929
a(S'p1_tl'
I212
tp930
a(S'p1_ll'
I27
tp931
a(S'w'
I14
tp932
a(S'w'
I1
tp933
a(S'no_ll'
I4
tp934
a(S'w'
I10258
tp935
a(S'w'
I1
tp936
a(S'p1_ll'
I27
tp937
a(S'w'
I6
tp938
a(S'w'
I1
tp939
a(S'no_ll'
I4
tp940
a(S'w'
I10265
tp941
a(S'p1_tl'
I225
tp942
a(S'w'
I1
tp943
a(S'p1_ll'
I27
tp944
a(S'w'
I16
tp945
a(S'no_ll'
I4
tp946
a(S'w'
I20541
tp947
a(S'w'
I1
tp948
a(S'no_ll'
I4
tp949
a(S'w'
I10261
tp950
a(S'p1_tl'
I45
tp951
a(S'p1_ll'
I27
tp952
a(S'p1_th'
I1
tp953
a(S'w'
I7
tp954
a(S'no_ll'
I4
tp955
a(S'w'
I10276
tp956
a(S'p1_tl'
I63
tp957
a(S'w'
I1
tp958
a(S'p1_ll'
I27
tp959
a(S'w'
I15
tp960
a(S'p2_tl'
I147
tp961
a(S'p2_ll'
I27
tp962
a(S'w'
I9
tp963
a(S'tr_ll'
I1
tp964
a(S'w'
I17
tp965
a(S'no_ll'
I4
tp966
a(S'w'
I10221
tp967
a(S'p1_tl'
I200
tp968
a(S'w'
I1
tp969
a(S'p1_ll'
I27
tp970
a(S'p1_th'
I0
tp971
a(S'w'
I5
tp972
a(S'p2_tl'
I253
tp973
a(S'p2_ll'
I27
tp974
a(S'p2_th'
I0
tp975
a(S'w'
I5
tp976
a(S'tr_tl'
I225
tp977
a(S'w'
I1
tp978
a(S'tr_ll'
I1
tp979
a(S'tr_th'
I0
tp980
a(S'w'
I10276
tp981
a(S'w'
I1
tp982
a(S'no_ll'
I4
tp983
a(S'w'
I10258
tp984
a(S'p1_tl'
I63
tp985
a(S'p1_ll'
I27
tp986
a(S'p1_th'
I1
tp987
a(S'w'
I5
tp988
a(S'p2_tl'
I147
tp989
a(S'w'
I1
tp990
a(S'p2_ll'
I27
tp991
a(S'p2_th'
I1
tp992
a(S'w'
I5
tp993
a(S'tr_tl'
I103
tp994
a(S'tr_ll'
I1
tp995
a(S'tr_th'
I1
tp996
a(S'w'
I4
tp997
a(S'w'
I1
tp998
a(S'no_ll'
I4
tp999
a(S'w'
I10257
tp1000
a(S'p1_tl'
I82
tp1001
a(S'w'
I1
tp1002
a(S'p1_ll'
I27
tp1003
a(S'w'
I5
tp1004
a(S'p2_tl'
I171
tp1005
a(S'p2_ll'
I27
tp1006
a(S'w'
I5
tp1007
a(S'tr_tl'
I124
tp1008
a(S'w'
I1
tp1009
a(S'tr_ll'
I1
tp1010
a(S'w'
I13
tp1011
a(S'no_ll'
I4
tp1012
a(S'w'
I10248
tp1013
a(S'p1_tl'
I212
tp1014
a(S'w'
I1
tp1015
a(S'p1_ll'
I27
tp1016
a(S'p1_th'
I0
tp1017
a(S'w'
I5
tp1018
a(S'p2_tl'
I12
tp1019
a(S'w'
I1
tp1020
a(S'p2_ll'
I27
tp1021
a(S'w'
I5
tp1022
a(S'tr_tl'
I238
tp1023
a(S'tr_ll'
I1
tp1024
a(S'tr_th'
I0
tp1025
a(S'w'
I10276
tp1026
a(S'w'
I1
tp1027
a(S'no_ll'
I4
tp1028
a(S'w'
I10258
tp1029
a(S'p1_tl'
I82
tp1030
a(S'p1_ll'
I27
tp1031
a(S'p1_th'
I1
tp1032
a(S'w'
I5
tp1033
a(S'p2_tl'
I171
tp1034
a(S'w'
I1
tp1035
a(S'p2_ll'
I27
tp1036
a(S'w'
I5
tp1037
a(S'tr_tl'
I124
tp1038
a(S'tr_ll'
I1
tp1039
a(S'tr_th'
I1
tp1040
a(S'w'
I4
tp1041
a(S'w'
I1
tp1042
a(S'no_ll'
I4
tp1043
a(S'w'
I10285
tp1044
a(S'tr_lr'
I127
tp1045
a(S'w'
I1
tp1046
a(S'tr_tl'
I26
tp1047
a(S'w'
I1
tp1048
a(S'tr_ll'
I1
tp1049
a(S'tr_th'
I2
tp1050
a(S'w'
I16
tp1051
a(S'w'
I1
tp1052
a(S'no_ll'
I4
tp1053
a(S'w'
I20504
tp1054
a(S'p1_tl'
I103
tp1055
a(S'w'
I1
tp1056
a(S'p1_ll'
I27
tp1057
a(S'w'
I14
tp1058
a(S'no_ll'
I4
tp1059
a(S'w'
I10254
tp1060
a(S'p1_tl'
I124
tp1061
a(S'p1_ll'
I27
tp1062
a(S'w'
I7
tp1063
a(S'no_ll'
I4
tp1064
a(S'w'
I10271
tp1065
a(S'p1_vo'
I15
tp1066
a(S'w'
I1
tp1067
a(S'p1_tl'
I196
tp1068
a(S'w'
I1
tp1069
a(S'p1_ll'
I26
tp1070
a(S'w'
I16
tp1071
a(S'no_ll'
I4
tp1072
a(S'w'
I20533
tp1073
a(S'w'
I1
tp1074
a(S'no_ll'
I4
tp1075
a(S'w'
I10266
tp1076
a(S'p1_vo'
I7
tp1077
a(S'w'
I2
tp1078
a(S'p1_tl'
I171
tp1079
a(S'p1_ll'
I27
tp1080
a(S'w'
I7
tp1081
a(S'no_ll'
I4
tp1082
a(S'w'
I10261
tp1083
a(S'p1_tl'
I28
tp1084
a(S'p1_ll'
I27
tp1085
a(S'w'
I9
tp1086
a(S'tr_lr'
I21
tp1087
a(S'w'
I1
tp1088
a(S'tr_tl'
I103
tp1089
a(S'tr_ll'
I1
tp1090
a(S'tr_th'
I1
tp1091
a(S'w'
I17
tp1092
a(S'w'
I1
tp1093
a(S'no_ll'
I4
tp1094
a(S'w'
I5111
tp1095
a(S'tr_tl'
I178
tp1096
a(S'w'
I1
tp1097
a(S'tr_ll'
I1
tp1098
a(S'tr_th'
I0
tp1099
a(S'w'
I5133
tp1100
a(S'p1_tl'
I225
tp1101
a(S'p1_ll'
I27
tp1102
a(S'p1_th'
I0
tp1103
a(S'w'
I7
tp1104
a(S'tr_tl'
I28
tp1105
a(S'tr_ll'
I1
tp1106
a(S'tr_th'
I1
tp1107
a(S'w'
I5132
tp1108
a(S'tr_tl'
I141
tp1109
a(S'w'
I1
tp1110
a(S'tr_ll'
I1
tp1111
a(S'tr_th'
I0
tp1112
a(S'w'
I5133
tp1113
a(S'p1_tl'
I178
tp1114
a(S'w'
I1
tp1115
a(S'p1_ll'
I27
tp1116
a(S'w'
I6
tp1117
a(S'tr_tl'
I225
tp1118
a(S'w'
I1
tp1119
a(S'tr_ll'
I1
tp1120
a(S'w'
I11
tp1121
a(S'no_ll'
I4
tp1122
a(S'w'
I5121
tp1123
a(S'tr_tl'
I112
tp1124
a(S'tr_ll'
I1
tp1125
a(S'w'
I5133
tp1126
a(S'p1_tl'
I225
tp1127
a(S'w'
I1
tp1128
a(S'p1_ll'
I27
tp1129
a(S'w'
I6
tp1130
a(S'tr_tl'
I28
tp1131
a(S'w'
I1
tp1132
a(S'tr_ll'
I1
tp1133
a(S'tr_th'
I1
tp1134
a(S'w'
I4
tp1135
a(S'no_ll'
I4
tp1136
a(S'w'
I5128
tp1137
a(S'tr_tl'
I141
tp1138
a(S'tr_ll'
I1
tp1139
a(S'tr_th'
I0
tp1140
a(S'w'
I5134
tp1141
a(S'p1_tl'
I28
tp1142
a(S'p1_ll'
I27
tp1143
a(S'p1_th'
I1
tp1144
a(S'w'
I9
tp1145
a(S'tr_lr'
I42
tp1146
a(S'w'
I1
tp1147
a(S'tr_tl'
I103
tp1148
a(S'tr_ll'
I1
tp1149
a(S'tr_th'
I1
tp1150
a(S'w'
I13
tp1151
a(S'w'
I1
tp1152
a(S'no_ll'
I4
tp1153
a(S'w'
I20534
tp1154
a(S'p1_cv'
I1
tp1155
a(S'p1_vo'
I15
tp1156
a(S'w'
I1
tp1157
a(S'p1_tl'
I82
tp1158
a(S'w'
I1
tp1159
a(S'p1_ll'
I22
tp1160
a(S'w'
I18
tp1161
a(S'w'
I1
tp1162
a(S'no_ll'
I4
tp1163
a(S'w'
I2901
tp1164
a(S'p1_vo'
I14
tp1165
a(S'w'
I2203
tp1166
a(S'p1_tl'
I103
tp1167
a(S'p1_ll'
I22
tp1168
a(S'w'
I1466
tp1169
a(S'p1_vo'
I13
tp1170
a(S'w'
I2935
tp1171
a(S'p1_vo'
I12
tp1172
a(S'w'
I735
tp1173
a(S'p1_tl'
I124
tp1174
a(S'w'
I1
tp1175
a(S'p1_ll'
I22
tp1176
a(S'w'
I6
tp1177
a(S'w'
I1
tp1178
a(S'no_ll'
I4
tp1179
a(S'w'
I2926
tp1180
a(S'p1_vo'
I11
tp1181
a(S'w'
I2203
tp1182
a(S'p1_tl'
I147
tp1183
a(S'p1_ll'
I22
tp1184
a(S'w'
I1466
tp1185
a(S'p1_vo'
I10
tp1186
a(S'w'
I2936
tp1187
a(S'p1_vo'
I9
tp1188
a(S'w'
I765
tp1189
a.