(lp1
(S'clock'
p2
I1789772
tp3
a(S'p1_du'
I2
tp4
a(S'p1_vo'
I3
tp5
a(S'p1_tl'
I189
tp6
a(S'p1_ll'
I13
tp7
a(S'p2_du'
I2
tp8
a(S'p2_vo'
I3
tp9
a(S'p2_tl'
I253
tp10
a(S'p2_ll'
I13
tp11
a(S'tr_lr'
I18
tp12
a(S'tr_tl'
I150
tp13
a(S'tr_ll'
I1
tp14
a(S'no_np'
I8
tp15
a(S'no_ll'
I4
tp16
a(S'ch_no'
I1
tp17
a(S'ch_tr'
I1
tp18
a(S'ch_p2'
I1
tp19
a(S'ch_p1'
I1
tp20
a(S'fc_mo'
I0
tp21
a(S'p1_du'
I0
tp22
a(S'p1_cv'
I1
tp23
a(S'p1_vo'
I0
tp24
a(S'p2_du'
I0
tp25
a(S'p2_cv'
I1
tp26
a(S'p2_vo'
I0
tp27
a(S'no_cv'
I1
tp28
a(S'tr_lr'
I0
tp29
a(S'p1_ll'
I3
tp30
a(S'p2_ll'
I3
tp31
a(S'tr_ll'
I3
tp32
a(S'w'
I1
tp33
a(S'no_ll'
I3
tp34
a(S'w'
I13
tp35
a(S'p1_du'
I2
tp36
a(S'p1_cv'
I0
tp37
a(S'p1_vo'
I5
tp38
a(S'w'
I1
tp39
a(S'p1_tl'
I238
tp40
a(S'w'
I1
tp41
a(S'p1_ll'
I19
tp42
a(S'w'
I9
tp43
a(S'p2_du'
I2
tp44
a(S'p2_cv'
I0
tp45
a(S'p2_vo'
I5
tp46
a(S'w'
I1
tp47
a(S'p2_tl'
I45
tp48
a(S'p2_ll'
I19
tp49
a(S'p2_th'
I1
tp50
a(S'w'
I8
tp51
a(S'tr_lr'
I30
tp52
a(S'w'
I1
tp53
a(S'tr_tl'
I45
tp54
a(S'tr_ll'
I1
tp55
a(S'tr_th'
I1
tp56
a(S'w'
I10
tp57
a(S'no_cv'
I0
tp58
a(S'w'
I1
tp59
a(S'no_np'
I4
tp60
a(S'w'
I1
tp61
a(S'no_ll'
I4
tp62
a(S'w'
I7287
tp63
a(S'p1_ll'
I19
tp64
a(S'w'
I5
tp65
a(S'w'
I1
tp66
a(S'p2_ll'
I19
tp67
a(S'w'
I5
tp68
a(S'tr_ll'
I1
tp69
a(S'w'
I4
tp70
a(S'w'
I1
tp71
a(S'no_ll'
I4
tp72
a(S'w'
I7322
tp73
a(S'p1_tl'
I225
tp74
a(S'p1_ll'
I19
tp75
a(S'w'
I5
tp76
a(S'p2_tl'
I12
tp77
a(S'w'
I1
tp78
a(S'p2_ll'
I19
tp79
a(S'w'
I5
tp80
a(S'tr_ll'
I1
tp81
a(S'w'
I4
tp82
a(S'w'
I1
tp83
a(S'no_ll'
I4
tp84
a(S'w'
I7322
tp85
a(S'p1_tl'
I200
tp86
a(S'p1_ll'
I19
tp87
a(S'w'
I5
tp88
a(S'p2_tl'
I238
tp89
a(S'w'
I1
tp90
a(S'p2_ll'
I19
tp91
a(S'p2_th'
I0
tp92
a(S'w'
I5
tp93
a(S'tr_ll'
I1
tp94
a(S'w'
I4
tp95
a(S'w'
I1
tp96
a(S'no_ll'
I4
tp97
a(S'w'
I14660
tp98
a(S'p1_tl'
I150
tp99
a(S'p1_ll'
I19
tp100
a(S'w'
I5
tp101
a(S'w'
I1
tp102
a(S'p2_ll'
I19
tp103
a(S'w'
I5
tp104
a(S'tr_tl'
I200
tp105
a(S'tr_ll'
I1
tp106
a(S'tr_th'
I0
tp107
a(S'w'
I6
tp108
a(S'w'
I1
tp109
a(S'no_ll'
I4
tp110
a(S'w'
I7320
tp111
a(S'p1_tl'
I200
tp112
a(S'p1_ll'
I19
tp113
a(S'w'
I5
tp114
a(S'w'
I1
tp115
a(S'p2_ll'
I19
tp116
a(S'w'
I5
tp117
a(S'tr_tl'
I45
tp118
a(S'tr_ll'
I1
tp119
a(S'tr_th'
I1
tp120
a(S'w'
I4
tp121
a(S'w'
I1
tp122
a(S'no_ll'
I4
tp123
a(S'w'
I14660
tp124
a(S'p1_tl'
I150
tp125
a(S'p1_ll'
I19
tp126
a(S'w'
I5
tp127
a(S'w'
I1
tp128
a(S'p2_ll'
I19
tp129
a(S'w'
I5
tp130
a(S'tr_tl'
I200
tp131
a(S'tr_ll'
I1
tp132
a(S'tr_th'
I0
tp133
a(S'w'
I6
tp134
a(S'w'
I1
tp135
a(S'no_ll'
I4
tp136
a(S'w'
I7332
tp137
a(S'p1_cv'
I1
tp138
a(S'p1_vo'
I15
tp139
a(S'w'
I1
tp140
a(S'w'
I1
tp141
a(S'p1_ll'
I22
tp142
a(S'w'
I17
tp143
a(S'p2_cv'
I1
tp144
a(S'p2_vo'
I15
tp145
a(S'w'
I1
tp146
a(S'w'
I1
tp147
a(S'p2_ll'
I22
tp148
a(S'w'
I10
tp149
a(S'tr_lr'
I127
tp150
a(S'w'
I2
tp151
a(S'tr_ll'
I1
tp152
a(S'w'
I11
tp153
a(S'no_ll'
I4
tp154
a(S'w'
I2152
tp155
a(S'no_ll'
I4
tp156
a(S'w'
I726
tp157
a(S'p1_vo'
I14
tp158
a(S'w'
I3
tp159
a(S'p2_vo'
I14
tp160
a(S'w'
I1472
tp161
a(S'w'
I1
tp162
a(S'no_ll'
I4
tp163
a(S'w'
I1459
tp164
a(S'p1_vo'
I13
tp165
a(S'w'
I3
tp166
a(S'p2_vo'
I13
tp167
a(S'w'
I739
tp168
a(S'no_ll'
I4
tp169
a(S'w'
I1709
tp170
a(S'p1_vo'
I12
tp171
a(S'w'
I3
tp172
a(S'p2_vo'
I12
tp173
a(S'w'
I4
tp174
a(S'w'
I1
tp175
a(S'no_ll'
I4
tp176
a(S'w'
I2208
tp177
a(S'no_ll'
I4
tp178
a(S'w'
I719
tp179
a(S'p1_vo'
I11
tp180
a(S'w'
I3
tp181
a(S'p2_vo'
I11
tp182
a(S'w'
I2935
tp183
a(S'p1_tl'
I159
tp184
a(S'w'
I1
tp185
a(S'p1_ll'
I22
tp186
a(S'w'
I7
tp187
a(S'p2_tl'
I253
tp188
a(S'p2_ll'
I22
tp189
a(S'w'
I7
tp190
a(S'tr_tl'
I45
tp191
a(S'w'
I1
tp192
a(S'tr_ll'
I1
tp193
a(S'tr_th'
I1
tp194
a(S'w'
I3
tp195
a(S'w'
I1
tp196
a(S'no_ll'
I4
tp197
a(S'w'
I711
tp198
a(S'p1_vo'
I10
tp199
a(S'w'
I3
tp200
a(S'p2_vo'
I10
tp201
a(S'w'
I2933
tp202
a(S'p1_tl'
I168
tp203
a(S'p1_ll'
I22
tp204
a(S'w'
I5
tp205
a(S'p2_tl'
I12
tp206
a(S'w'
I1
tp207
a(S'p2_ll'
I22
tp208
a(S'p2_th'
I1
tp209
a(S'w'
I8
tp210
a(S'tr_lr'
I15
tp211
a(S'w'
I1
tp212
a(S'tr_tl'
I238
tp213
a(S'tr_ll'
I1
tp214
a(S'tr_th'
I0
tp215
a(S'w'
I4
tp216
a(S'w'
I1
tp217
a(S'no_ll'
I4
tp218
a(S'w'
I713
tp219
a(S'p1_vo'
I9
tp220
a(S'w'
I3
tp221
a(S'p2_vo'
I9
tp222
a(S'w'
I2946
tp223
a(S'p1_cv'
I0
tp224
a(S'p1_vo'
I10
tp225
a(S'w'
I1
tp226
a(S'p1_tl'
I178
tp227
a(S'p1_ll'
I30
tp228
a(S'w'
I18
tp229
a(S'p2_cv'
I0
tp230
a(S'p2_vo'
I10
tp231
a(S'w'
I1
tp232
a(S'p2_tl'
I225
tp233
a(S'p2_ll'
I30
tp234
a(S'p2_th'
I0
tp235
a(S'w'
I7
tp236
a(S'tr_lr'
I60
tp237
a(S'w'
I1
tp238
a(S'tr_tl'
I12
tp239
a(S'w'
I1
tp240
a(S'tr_ll'
I1
tp241
a(S'tr_th'
I1
tp242
a(S'w'
I11
tp243
a(S'no_ll'
I4
tp244
a(S'w'
I14627
tp245
a(S'p1_vo'
I5
tp246
a(S'w'
I1
tp247
a(S'p1_tl'
I150
tp248
a(S'w'
I1
tp249
a(S'p1_ll'
I19
tp250
a(S'w'
I9
tp251
a(S'p2_vo'
I5
tp252
a(S'w'
I1
tp253
a(S'p2_tl'
I178
tp254
a(S'p2_ll'
I19
tp255
a(S'w'
I7
tp256
a(S'tr_lr'
I30
tp257
a(S'w'
I1
tp258
a(S'tr_tl'
I225
tp259
a(S'w'
I1
tp260
a(S'tr_ll'
I1
tp261
a(S'tr_th'
I0
tp262
a(S'w'
I6
tp263
a(S'no_ll'
I4
tp264
a(S'w'
I7314
tp265
a(S'p1_vo'
I10
tp266
a(S'w'
I1
tp267
a(S'p1_tl'
I225
tp268
a(S'p1_ll'
I30
tp269
a(S'w'
I12
tp270
a(S'p2_vo'
I10
tp271
a(S'w'
I1
tp272
a(S'p2_tl'
I12
tp273
a(S'w'
I1
tp274
a(S'p2_ll'
I30
tp275
a(S'p2_th'
I1
tp276
a(S'w'
I7
tp277
a(S'tr_lr'
I60
tp278
a(S'w'
I1
tp279
a(S'tr_tl'
I178
tp280
a(S'tr_ll'
I1
tp281
a(S'w'
I4
tp282
a(S'w'
I1
tp283
a(S'no_ll'
I4
tp284
a(S'w'
I14645
tp285
a(S'p1_vo'
I5
tp286
a(S'w'
I1
tp287
a(S'p1_tl'
I238
tp288
a(S'w'
I1
tp289
a(S'p1_ll'
I19
tp290
a(S'w'
I9
tp291
a(S'p2_vo'
I5
tp292
a(S'w'
I1
tp293
a(S'p2_tl'
I45
tp294
a(S'p2_ll'
I19
tp295
a(S'w'
I7
tp296
a(S'tr_lr'
I30
tp297
a(S'w'
I1
tp298
a(S'tr_tl'
I200
tp299
a(S'w'
I1
tp300
a(S'tr_ll'
I1
tp301
a(S'w'
I6
tp302
a(S'no_ll'
I4
tp303
a(S'w'
I7322
tp304
a(S'p1_tl'
I12
tp305
a(S'p1_ll'
I19
tp306
a(S'p1_th'
I1
tp307
a(S'w'
I19
tp308
a(S'p2_tl'
I103
tp309
a(S'w'
I1
tp310
a(S'p2_ll'
I19
tp311
a(S'w'
I13
tp312
a(S'tr_tl'
I225
tp313
a(S'tr_ll'
I1
tp314
a(S'w'
I4
tp315
a(S'no_ll'
I4
tp316
a(S'w'
I21971
tp317
a(S'p1_vo'
I15
tp318
a(S'w'
I1
tp319
a(S'p1_tl'
I150
tp320
a(S'p1_ll'
I1
tp321
a(S'p1_th'
I0
tp322
a(S'w'
I14
tp323
a(S'p2_vo'
I15
tp324
a(S'w'
I1
tp325
a(S'p2_tl'
I178
tp326
a(S'w'
I1
tp327
a(S'p2_ll'
I1
tp328
a(S'p2_th'
I0
tp329
a(S'w'
I7
tp330
a(S'tr_lr'
I90
tp331
a(S'w'
I1
tp332
a(S'tr_ll'
I1
tp333
a(S'w'
I12
tp334
a(S'no_ll'
I4
tp335
a(S'w'
I2158
tp336
a(S'w'
I1
tp337
a(S'no_ll'
I4
tp338
a(S'w'
I2201
tp339
a(S'no_ll'
I4
tp340
a(S'w'
I2201
tp341
a(S'w'
I1
tp342
a(S'no_ll'
I4
tp343
a(S'w'
I2201
tp344
a(S'no_ll'
I4
tp345
a(S'w'
I2201
tp346
a(S'no_ll'
I4
tp347
a(S'w'
I2201
tp348
a(S'w'
I1
tp349
a(S'no_ll'
I4
tp350
a(S'w'
I2201
tp351
a(S'no_ll'
I4
tp352
a(S'w'
I2200
tp353
a(S'w'
I1
tp354
a(S'no_ll'
I4
tp355
a(S'w'
I2216
tp356
a(S'no_ll'
I4
tp357
a(S'w'
I2213
tp358
a(S'p1_tl'
I159
tp359
a(S'p1_ll'
I10
tp360
a(S'w'
I17
tp361
a(S'p2_vo'
I5
tp362
a(S'w'
I1
tp363
a(S'p2_tl'
I225
tp364
a(S'p2_ll'
I19
tp365
a(S'w'
I8
tp366
a(S'tr_lr'
I30
tp367
a(S'w'
I1
tp368
a(S'tr_tl'
I147
tp369
a(S'tr_ll'
I1
tp370
a(S'tr_th'
I1
tp371
a(S'w'
I11
tp372
a(S'w'
I1
tp373
a(S'no_ll'
I4
tp374
a(S'w'
I7285
tp375
a(S'p2_tl'
I200
tp376
a(S'p2_ll'
I19
tp377
a(S'w'
I6
tp378
a(S'tr_tl'
I200
tp379
a(S'tr_ll'
I1
tp380
a(S'tr_th'
I0
tp381
a(S'w'
I7332
tp382
a(S'p2_tl'
I225
tp383
a(S'w'
I1
tp384
a(S'p2_ll'
I19
tp385
a(S'w'
I5
tp386
a(S'tr_tl'
I147
tp387
a(S'tr_ll'
I1
tp388
a(S'tr_th'
I1
tp389
a(S'w'
I6
tp390
a(S'w'
I1
tp391
a(S'no_ll'
I4
tp392
a(S'w'
I7544
tp393
a(S'p2_tl'
I200
tp394
a(S'w'
I1
tp395
a(S'p2_ll'
I19
tp396
a(S'w'
I5
tp397
a(S'tr_tl'
I200
tp398
a(S'tr_ll'
I1
tp399
a(S'tr_th'
I0
tp400
a(S'w'
I4
tp401
a(S'w'
I1
tp402
a(S'no_ll'
I4
tp403
a(S'w'
I7334
tp404
a(S'p2_tl'
I225
tp405
a(S'p2_ll'
I19
tp406
a(S'w'
I5
tp407
a(S'tr_tl'
I147
tp408
a(S'w'
I1
tp409
a(S'tr_ll'
I1
tp410
a(S'tr_th'
I1
tp411
a(S'w'
I4
tp412
a(S'no_ll'
I4
tp413
a(S'w'
I7319
tp414
a(S'p1_vo'
I5
tp415
a(S'w'
I1
tp416
a(S'p1_tl'
I178
tp417
a(S'p1_ll'
I19
tp418
a(S'w'
I5
tp419
a(S'p2_tl'
I200
tp420
a(S'w'
I1
tp421
a(S'p2_ll'
I19
tp422
a(S'w'
I5
tp423
a(S'tr_tl'
I200
tp424
a(S'tr_ll'
I1
tp425
a(S'tr_th'
I0
tp426
a(S'w'
I4
tp427
a(S'w'
I1
tp428
a(S'no_ll'
I4
tp429
a(S'w'
I7329
tp430
a(S'p1_vo'
I10
tp431
a(S'w'
I1
tp432
a(S'p1_tl'
I200
tp433
a(S'p1_ll'
I30
tp434
a(S'w'
I5
tp435
a(S'p2_tl'
I12
tp436
a(S'w'
I1
tp437
a(S'p2_ll'
I19
tp438
a(S'p2_th'
I1
tp439
a(S'w'
I5
tp440
a(S'tr_tl'
I147
tp441
a(S'tr_ll'
I1
tp442
a(S'tr_th'
I1
tp443
a(S'w'
I4
tp444
a(S'w'
I1
tp445
a(S'no_ll'
I4
tp446
a(S'w'
I7315
tp447
a(S'p2_tl'
I225
tp448
a(S'w'
I1
tp449
a(S'p2_ll'
I19
tp450
a(S'p2_th'
I0
tp451
a(S'w'
I5
tp452
a(S'tr_tl'
I200
tp453
a(S'tr_ll'
I1
tp454
a(S'tr_th'
I0
tp455
a(S'w'
I7335
tp456
a(S'p1_vo'
I5
tp457
a(S'w'
I1
tp458
a(S'p1_ll'
I19
tp459
a(S'w'
I5
tp460
a(S'p2_tl'
I12
tp461
a(S'w'
I1
tp462
a(S'p2_ll'
I19
tp463
a(S'p2_th'
I1
tp464
a(S'w'
I5
tp465
a(S'tr_tl'
I147
tp466
a(S'tr_ll'
I1
tp467
a(S'tr_th'
I1
tp468
a(S'w'
I6
tp469
a(S'w'
I1
tp470
a(S'no_ll'
I4
tp471
a(S'w'
I7322
tp472
a(S'p1_vo'
I10
tp473
a(S'w'
I1
tp474
a(S'p1_tl'
I178
tp475
a(S'p1_ll'
I30
tp476
a(S'w'
I5
tp477
a(S'p2_tl'
I225
tp478
a(S'w'
I1
tp479
a(S'p2_ll'
I19
tp480
a(S'p2_th'
I0
tp481
a(S'w'
I5
tp482
a(S'tr_tl'
I200
tp483
a(S'tr_ll'
I1
tp484
a(S'tr_th'
I0
tp485
a(S'w'
I4
tp486
a(S'w'
I1
tp487
a(S'no_ll'
I4
tp488
a(S'w'
I7315
tp489
a(S'p2_tl'
I12
tp490
a(S'w'
I1
tp491
a(S'p2_ll'
I19
tp492
a(S'p2_th'
I1
tp493
a(S'w'
I5
tp494
a(S'tr_tl'
I147
tp495
a(S'tr_ll'
I1
tp496
a(S'tr_th'
I1
tp497
a(S'w'
I7335
tp498
a(S'p1_vo'
I5
tp499
a(S'w'
I1
tp500
a(S'p1_tl'
I159
tp501
a(S'p1_ll'
I19
tp502
a(S'w'
I5
tp503
a(S'p2_tl'
I225
tp504
a(S'w'
I1
tp505
a(S'p2_ll'
I19
tp506
a(S'p2_th'
I0
tp507
a(S'w'
I5
tp508
a(S'tr_tl'
I200
tp509
a(S'tr_ll'
I1
tp510
a(S'tr_th'
I0
tp511
a(S'w'
I6
tp512
a(S'w'
I1
tp513
a(S'no_ll'
I4
tp514
a(S'w'
I7320
tp515
a(S'p1_vo'
I15
tp516
a(S'w'
I1
tp517
a(S'p1_tl'
I150
tp518
a(S'p1_ll'
I22
tp519
a(S'w'
I10
tp520
a(S'p2_vo'
I15
tp521
a(S'w'
I1
tp522
a(S'p2_tl'
I238
tp523
a(S'w'
I1
tp524
a(S'p2_ll'
I22
tp525
a(S'w'
I7
tp526
a(S'tr_lr'
I127
tp527
a(S'w'
I1
tp528
a(S'tr_tl'
I45
tp529
a(S'tr_ll'
I1
tp530
a(S'tr_th'
I1
tp531
a(S'w'
I12
tp532
a(S'no_ll'
I4
tp533
a(S'w'
I2166
tp534
a(S'w'
I1
tp535
a(S'no_ll'
I4
tp536
a(S'w'
I2201
tp537
a(S'no_ll'
I4
tp538
a(S'w'
I2201
tp539
a(S'no_ll'
I4
tp540
a(S'w'
I2201
tp541
a(S'w'
I1
tp542
a(S'no_ll'
I4
tp543
a(S'w'
I2201
tp544
a(S'no_ll'
I4
tp545
a(S'w'
I2201
tp546
a(S'w'
I1
tp547
a(S'no_ll'
I4
tp548
a(S'w'
I2201
tp549
a(S'no_ll'
I4
tp550
a(S'w'
I2201
tp551
a(S'no_ll'
I4
tp552
a(S'w'
I2201
tp553
a(S'w'
I1
tp554
a(S'no_ll'
I4
tp555
a(S'w'
I2203
tp556
a(S'no_ll'
I4
tp557
a(S'w'
I2199
tp558
a(S'w'
I1
tp559
a(S'no_ll'
I4
tp560
a(S'w'
I2201
tp561
a(S'no_ll'
I4
tp562
a(S'w'
I2201
tp563
a(S'no_ll'
I4
tp564
a(S'w'
I2201
tp565
a(S'w'
I1
tp566
a(S'no_ll'
I4
tp567
a(S'w'
I2201
tp568
a(S'no_ll'
I4
tp569
a(S'w'
I2201
tp570
a(S'w'
I1
tp571
a(S'no_ll'
I4
tp572
a(S'w'
I8806
tp573
a(S'p1_vo'
I5
tp574
a(S'w'
I1
tp575
a(S'p1_ll'
I19
tp576
a(S'w'
I10
tp577
a(S'p2_vo'
I5
tp578
a(S'w'
I1
tp579
a(S'p2_ll'
I19
tp580
a(S'w'
I7
tp581
a(S'tr_lr'
I30
tp582
a(S'w'
I2
tp583
a(S'tr_ll'
I1
tp584
a(S'w'
I11
tp585
a(S'no_ll'
I4
tp586
a(S'w'
I7302
tp587
a(S'p1_ll'
I19
tp588
a(S'w'
I6
tp589
a(S'p2_ll'
I19
tp590
a(S'w'
I6
tp591
a(S'tr_ll'
I1
tp592
a(S'w'
I4
tp593
a(S'no_ll'
I4
tp594
a(S'w'
I7322
tp595
a(S'p1_tl'
I133
tp596
a(S'w'
I1
tp597
a(S'p1_ll'
I19
tp598
a(S'w'
I5
tp599
a(S'p2_tl'
I189
tp600
a(S'p2_ll'
I19
tp601
a(S'w'
I5
tp602
a(S'tr_tl'
I225
tp603
a(S'w'
I1
tp604
a(S'tr_ll'
I1
tp605
a(S'tr_th'
I0
tp606
a(S'w'
I14
tp607
a(S'no_ll'
I4
tp608
a(S'w'
I14650
tp609
a(S'w'
I1
tp610
a(S'p1_ll'
I19
tp611
a(S'w'
I5
tp612
a(S'p2_ll'
I19
tp613
a(S'w'
I6
tp614
a(S'tr_ll'
I1
tp615
a(S'w'
I4
tp616
a(S'no_ll'
I4
tp617
a(S'w'
I14660
tp618
a(S'p1_tl'
I112
tp619
a(S'w'
I1
tp620
a(S'p1_ll'
I19
tp621
a(S'w'
I5
tp622
a(S'p2_tl'
I150
tp623
a(S'p2_ll'
I19
tp624
a(S'w'
I5
tp625
a(S'tr_tl'
I189
tp626
a(S'w'
I1
tp627
a(S'tr_ll'
I1
tp628
a(S'w'
I4
tp629
a(S'no_ll'
I4
tp630
a(S'w'
I14660
tp631
a(S'w'
I1
tp632
a(S'p1_ll'
I19
tp633
a(S'w'
I5
tp634
a(S'p2_ll'
I19
tp635
a(S'w'
I6
tp636
a(S'tr_ll'
I1
tp637
a(S'w'
I4
tp638
a(S'no_ll'
I4
tp639
a(S'w'
I14672
tp640
a(S'p1_cv'
I1
tp641
a(S'p1_vo'
I15
tp642
a(S'w'
I1
tp643
a(S'p1_tl'
I118
tp644
a(S'p1_ll'
I1
tp645
a(S'w'
I16
tp646
a(S'p2_cv'
I1
tp647
a(S'p2_vo'
I15
tp648
a(S'w'
I2
tp649
a(S'p2_tl'
I200
tp650
a(S'p2_ll'
I1
tp651
a(S'w'
I11
tp652
a(S'tr_lr'
I127
tp653
a(S'w'
I1
tp654
a(S'tr_tl'
I45
tp655
a(S'tr_ll'
I1
tp656
a(S'tr_th'
I1
tp657
a(S'w'
I14
tp658
a(S'no_ll'
I4
tp659
a(S'w'
I5812
tp660
a(S'p1_vo'
I14
tp661
a(S'w'
I4
tp662
a(S'p2_vo'
I14
tp663
a(S'w'
I5867
tp664
a(S'p1_vo'
I13
tp665
a(S'w'
I3
tp666
a(S'p2_vo'
I13
tp667
a(S'w'
I5867
tp668
a(S'p1_vo'
I12
tp669
a(S'w'
I3
tp670
a(S'p2_vo'
I12
tp671
a(S'w'
I5868
tp672
a(S'p1_vo'
I11
tp673
a(S'w'
I3
tp674
a(S'p2_vo'
I11
tp675
a(S'w'
I5874
tp676
a(S'p1_vo'
I12
tp677
a(S'w'
I1
tp678
a(S'p1_tl'
I238
tp679
a(S'p1_ll'
I1
tp680
a(S'w'
I10
tp681
a(S'p2_vo'
I12
tp682
a(S'w'
I1
tp683
a(S'p2_tl'
I147
tp684
a(S'w'
I1
tp685
a(S'p2_ll'
I1
tp686
a(S'p2_th'
I1
tp687
a(S'w'
I7
tp688
a(S'tr_ll'
I1
tp689
a(S'w'
I4377
tp690
a(S'p1_tl'
I200
tp691
a(S'p1_ll'
I1
tp692
a(S'w'
I5
tp693
a(S'p2_tl'
I45
tp694
a(S'w'
I1
tp695
a(S'p2_ll'
I1
tp696
a(S'w'
I5
tp697
a(S'tr_tl'
I238
tp698
a(S'tr_ll'
I1
tp699
a(S'tr_th'
I0
tp700
a(S'w'
I2189
tp701
a(S'p1_vo'
I11
tp702
a(S'w'
I3
tp703
a(S'p2_vo'
I11
tp704
a(S'w'
I2200
tp705
a(S'p1_tl'
I150
tp706
a(S'p1_ll'
I1
tp707
a(S'w'
I5
tp708
a(S'p2_tl'
I238
tp709
a(S'w'
I1
tp710
a(S'p2_ll'
I1
tp711
a(S'p2_th'
I0
tp712
a(S'w'
I5
tp713
a(S'tr_tl'
I200
tp714
a(S'tr_ll'
I1
tp715
a(S'w'
I4397
tp716
a(S'p1_du'
I1
tp717
a(S'p1_vo'
I0
tp718
a(S'w'
I1
tp719
a(S'p1_tl'
I118
tp720
a(S'p1_ll'
I1
tp721
a(S'w'
I11
tp722
a(S'p2_du'
I1
tp723
a(S'p2_vo'
I0
tp724
a(S'w'
I1
tp725
a(S'p2_tl'
I200
tp726
a(S'p2_ll'
I1
tp727
a(S'w'
I5
tp728
a(S'tr_tl'
I150
tp729
a(S'tr_ll'
I1
tp730
a(S'w'
I709
tp731
a(S'p1_vo'
I10
tp732
a(S'w'
I4
tp733
a(S'p2_vo'
I10
tp734
a(S'w'
I3666
tp735
a(S'p1_tl'
I99
tp736
a(S'w'
I1
tp737
a(S'p1_ll'
I1
tp738
a(S'w'
I5
tp739
a(S'p2_tl'
I150
tp740
a(S'p2_ll'
I1
tp741
a(S'w'
I5
tp742
a(S'tr_tl'
I200
tp743
a(S'w'
I1
tp744
a(S'tr_ll'
I1
tp745
a(S'w'
I2922
tp746
a(S'p1_vo'
I9
tp747
a(S'w'
I4
tp748
a(S'p2_vo'
I9
tp749
a(S'w'
I1465
tp750
a(S'p1_tl'
I74
tp751
a(S'w'
I1
tp752
a(S'p1_ll'
I1
tp753
a(S'w'
I5
tp754
a(S'p2_tl'
I118
tp755
a(S'p2_ll'
I1
tp756
a(S'w'
I5
tp757
a(S'tr_tl'
I238
tp758
a(S'tr_ll'
I1
tp759
a(S'w'
I4397
tp760
a(S'p1_du'
I0
tp761
a(S'p1_vo'
I0
tp762
a(S'w'
I1
tp763
a(S'p1_tl'
I99
tp764
a(S'w'
I1
tp765
a(S'p1_ll'
I1
tp766
a(S'w'
I10
tp767
a(S'p2_du'
I0
tp768
a(S'p2_vo'
I0
tp769
a(S'w'
I1
tp770
a(S'p2_tl'
I150
tp771
a(S'w'
I1
tp772
a(S'p2_ll'
I1
tp773
a(S'w'
I4
tp774
a(S'tr_tl'
I45
tp775
a(S'w'
I1
tp776
a(S'tr_ll'
I1
tp777
a(S'tr_th'
I1
tp778
a(S'w'
I709
tp779
a(S'p1_vo'
I9
tp780
a(S'w'
I3
tp781
a(S'p2_vo'
I9
tp782
a(S'w'
I731
tp783
a(S'p1_vo'
I8
tp784
a(S'w'
I3
tp785
a(S'p2_vo'
I8
tp786
a(S'w'
I2933
tp787
a(S'p1_tl'
I118
tp788
a(S'p1_ll'
I1
tp789
a(S'w'
I5
tp790
a(S'p2_tl'
I200
tp791
a(S'w'
I1
tp792
a(S'p2_ll'
I1
tp793
a(S'w'
I7
tp794
a(S'tr_ll'
I1
tp795
a(S'w'
I3655
tp796
a(S'p1_vo'
I7
tp797
a(S'w'
I3
tp798
a(S'p2_vo'
I7
tp799
a(S'w'
I734
tp800
a(S'p1_ll'
I1
tp801
a(S'w'
I7
tp802
a(S'w'
I1
tp803
a(S'p2_ll'
I1
tp804
a(S'w'
I5859
tp805
a(S'p1_vo'
I6
tp806
a(S'w'
I3
tp807
a(S'p2_vo'
I6
tp808
a(S'w'
I5867
tp809
a(S'p1_vo'
I5
tp810
a(S'w'
I4
tp811
a(S'p2_vo'
I5
tp812
a(S'w'
I5867
tp813
a(S'p1_vo'
I4
tp814
a(S'w'
I3
tp815
a(S'p2_vo'
I4
tp816
a(S'w'
I5867
tp817
a(S'p1_vo'
I3
tp818
a(S'w'
I3
tp819
a(S'p2_vo'
I3
tp820
a(S'w'
I5868
tp821
a(S'p1_vo'
I2
tp822
a(S'w'
I3
tp823
a(S'p2_vo'
I2
tp824
a(S'w'
I5867
tp825
a(S'p1_vo'
I1
tp826
a(S'w'
I3
tp827
a(S'p2_vo'
I1
tp828
a(S'w'
I5868
tp829
a(S'p1_vo'
I0
tp830
a(S'w'
I3
tp831
a(S'p2_vo'
I0
tp832
a(S'w'
I1
tp833
a.