(lp1
(S'clock'
p2
I1789772
tp3
a(S'p1_du'
I2
tp4
a(S'p1_vo'
I4
tp5
a(S'p1_tl'
I171
tp6
a(S'p1_ll'
I15
tp7
a(S'p1_th'
I1
tp8
a(S'p2_du'
I2
tp9
a(S'p2_vo'
I4
tp10
a(S'p2_tl'
I166
tp11
a(S'p2_ll'
I15
tp12
a(S'p2_th'
I2
tp13
a(S'tr_lr'
I24
tp14
a(S'tr_tl'
I171
tp15
a(S'tr_ll'
I1
tp16
a(S'tr_th'
I1
tp17
a(S'no_np'
I4
tp18
a(S'no_ll'
I4
tp19
a(S'ch_no'
I1
tp20
a(S'ch_tr'
I1
tp21
a(S'ch_p2'
I1
tp22
a(S'ch_p1'
I1
tp23
a(S'fc_mo'
I0
tp24
a(S'p1_du'
I0
tp25
a(S'p1_cv'
I1
tp26
a(S'p1_vo'
I0
tp27
a(S'p2_du'
I0
tp28
a(S'p2_cv'
I1
tp29
a(S'p2_vo'
I0
tp30
a(S'w'
I1
tp31
a(S'no_cv'
I1
tp32
a(S'tr_lr'
I0
tp33
a(S'p1_ll'
I3
tp34
a(S'p1_th'
I0
tp35
a(S'p2_ll'
I3
tp36
a(S'p2_th'
I0
tp37
a(S'tr_ll'
I3
tp38
a(S'tr_th'
I0
tp39
a(S'no_ll'
I3
tp40
a(S'w'
I36
tp41
a(S'tr_lr'
I127
tp42
a(S'w'
I1
tp43
a(S'tr_tl'
I28
tp44
a(S'w'
I1
tp45
a(S'tr_ll'
I1
tp46
a(S'tr_th'
I1
tp47
a(S'w'
I17572
tp48
a(S'p1_du'
I2
tp49
a(S'p1_cv'
I0
tp50
a(S'p1_vo'
I8
tp51
a(S'w'
I2
tp52
a(S'p1_tl'
I141
tp53
a(S'p1_ll'
I29
tp54
a(S'w'
I9
tp55
a(S'p2_du'
I2
tp56
a(S'p2_cv'
I0
tp57
a(S'p2_vo'
I8
tp58
a(S'w'
I1
tp59
a(S'p2_tl'
I28
tp60
a(S'p2_ll'
I29
tp61
a(S'p2_th'
I1
tp62
a(S'w'
I8
tp63
a(S'tr_ll'
I1
tp64
a(S'w'
I2181
tp65
a(S'tr_tl'
I253
tp66
a(S'tr_ll'
I1
tp67
a(S'tr_th'
I0
tp68
a(S'w'
I2201
tp69
a(S'tr_tl'
I225
tp70
a(S'w'
I1
tp71
a(S'tr_ll'
I1
tp72
a(S'w'
I2200
tp73
a(S'tr_tl'
I212
tp74
a(S'w'
I1
tp75
a(S'tr_ll'
I1
tp76
a(S'w'
I2201
tp77
a(S'tr_tl'
I189
tp78
a(S'tr_ll'
I1
tp79
a(S'w'
I2201
tp80
a(S'tr_tl'
I168
tp81
a(S'w'
I1
tp82
a(S'tr_ll'
I1
tp83
a(S'w'
I734
tp84
a(S'p1_vo'
I4
tp85
a(S'w'
I1
tp86
a(S'p1_tl'
I126
tp87
a(S'w'
I1
tp88
a(S'p1_ll'
I15
tp89
a(S'w'
I9
tp90
a(S'p2_vo'
I4
tp91
a(S'w'
I1
tp92
a(S'p2_tl'
I253
tp93
a(S'p2_ll'
I15
tp94
a(S'p2_th'
I0
tp95
a(S'w'
I1455
tp96
a(S'tr_tl'
I159
tp97
a(S'tr_ll'
I1
tp98
a(S'w'
I2201
tp99
a(S'tr_tl'
I150
tp100
a(S'w'
I1
tp101
a(S'tr_ll'
I1
tp102
a(S'w'
I2203
tp103
a(S'p1_vo'
I15
tp104
a(S'w'
I1
tp105
a(S'p1_tl'
I168
tp106
a(S'w'
I1
tp107
a(S'p1_ll'
I10
tp108
a(S'w'
I11
tp109
a(S'p2_vo'
I15
tp110
a(S'w'
I1
tp111
a(S'p2_tl'
I82
tp112
a(S'p2_ll'
I10
tp113
a(S'p2_th'
I1
tp114
a(S'w'
I7
tp115
a(S'tr_tl'
I141
tp116
a(S'w'
I1
tp117
a(S'tr_ll'
I1
tp118
a(S'w'
I17589
tp119
a(S'tr_tl'
I150
tp120
a(S'tr_ll'
I1
tp121
a(S'w'
I2199
tp122
a(S'tr_tl'
I159
tp123
a(S'w'
I1
tp124
a(S'tr_ll'
I1
tp125
a(S'w'
I2201
tp126
a(S'tr_tl'
I168
tp127
a(S'tr_ll'
I1
tp128
a(S'w'
I2201
tp129
a(S'tr_tl'
I189
tp130
a(S'tr_ll'
I1
tp131
a(S'w'
I2201
tp132
a(S'tr_tl'
I212
tp133
a(S'w'
I1
tp134
a(S'tr_ll'
I1
tp135
a(S'w'
I2201
tp136
a(S'tr_tl'
I225
tp137
a(S'tr_ll'
I1
tp138
a(S'w'
I735
tp139
a(S'p1_vo'
I4
tp140
a(S'w'
I1
tp141
a(S'p1_tl'
I189
tp142
a(S'p1_ll'
I15
tp143
a(S'w'
I9
tp144
a(S'p2_vo'
I4
tp145
a(S'w'
I1
tp146
a(S'p2_tl'
I124
tp147
a(S'w'
I1
tp148
a(S'p2_ll'
I15
tp149
a(S'w'
I1454
tp150
a(S'tr_tl'
I253
tp151
a(S'w'
I1
tp152
a(S'tr_ll'
I1
tp153
a(S'w'
I2203
tp154
a(S'tr_lr'
I9
tp155
a(S'w'
I2
tp156
a(S'tr_tl'
I28
tp157
a(S'tr_ll'
I1
tp158
a(S'tr_th'
I1
tp159
a(S'w'
I19809
tp160
a(S'p1_vo'
I6
tp161
a(S'w'
I1
tp162
a(S'p1_tl'
I225
tp163
a(S'w'
I1
tp164
a(S'p1_ll'
I23
tp165
a(S'w'
I9
tp166
a(S'p2_vo'
I6
tp167
a(S'w'
I1
tp168
a(S'p2_tl'
I45
tp169
a(S'p2_ll'
I23
tp170
a(S'w'
I8
tp171
a(S'tr_lr'
I36
tp172
a(S'w'
I1
tp173
a(S'tr_tl'
I88
tp174
a(S'tr_ll'
I1
tp175
a(S'tr_th'
I0
tp176
a(S'w'
I17598
tp177
a(S'p1_cv'
I1
tp178
a(S'p1_vo'
I15
tp179
a(S'w'
I1
tp180
a(S'p1_tl'
I212
tp181
a(S'p1_ll'
I10
tp182
a(S'w'
I5
tp183
a(S'p2_tl'
I28
tp184
a(S'w'
I1
tp185
a(S'p2_ll'
I23
tp186
a(S'w'
I5
tp187
a(S'tr_tl'
I83
tp188
a(S'tr_ll'
I1
tp189
a(S'w'
I2177
tp190
a(S'p1_vo'
I14
tp191
a(S'w'
I2201
tp192
a(S'p1_vo'
I13
tp193
a(S'w'
I1468
tp194
a(S'p1_vo'
I12
tp195
a(S'w'
I2201
tp196
a(S'p1_vo'
I11
tp197
a(S'w'
I737
tp198
a(S'p1_tl'
I225
tp199
a(S'w'
I1
tp200
a(S'p1_ll'
I10
tp201
a(S'w'
I2198
tp202
a(S'p1_vo'
I10
tp203
a(S'w'
I1467
tp204
a(S'p1_vo'
I9
tp205
a(S'w'
I735
tp206
a(S'p1_tl'
I238
tp207
a(S'w'
I1
tp208
a(S'p1_ll'
I10
tp209
a(S'w'
I2199
tp210
a(S'p1_vo'
I8
tp211
a(S'w'
I2203
tp212
a(S'p1_tl'
I253
tp213
a(S'p1_ll'
I10
tp214
a(S'w'
I733
tp215
a(S'p1_vo'
I7
tp216
a(S'w'
I1467
tp217
a(S'p1_vo'
I6
tp218
a(S'w'
I2203
tp219
a(S'p1_tl'
I12
tp220
a(S'p1_ll'
I10
tp221
a(S'p1_th'
I1
tp222
a(S'w'
I732
tp223
a(S'p1_vo'
I5
tp224
a(S'w'
I2202
tp225
a(S'p1_vo'
I4
tp226
a(S'w'
I2201
tp227
a(S'p1_vo'
I3
tp228
a(S'w'
I2201
tp229
a(S'p1_vo'
I2
tp230
a(S'w'
I2201
tp231
a(S'p1_vo'
I1
tp232
a(S'w'
I1468
tp233
a(S'p1_vo'
I0
tp234
a(S'w'
I1
tp235
a.