(lp1
(S'clock'
p2
I1789773
tp3
a(S'w'
I12
tp4
a(S'tr_lr'
I20
tp5
a(S'w'
I5
tp6
a(S'tr_ll'
I1
tp7
a(S'w'
I1
tp8
a(S'tr_tl'
I213
tp9
a(S'w'
I11738
tp10
a(S'tr_ll'
I1
tp11
a(S'tr_th'
I1
tp12
a(S'w'
I1
tp13
a(S'tr_tl'
I29
tp14
a(S'w'
I11743
tp15
a(S'tr_ll'
I1
tp16
a(S'tr_th'
I0
tp17
a(S'w'
I1
tp18
a(S'tr_tl'
I213
tp19
a(S'w'
I22012
tp20
a(S'tr_ll'
I1
tp21
a(S'w'
I11738
tp22
a(S'tr_ll'
I1
tp23
a(S'tr_th'
I1
tp24
a(S'w'
I1
tp25
a(S'tr_tl'
I29
tp26
a(S'w'
I11743
tp27
a(S'tr_ll'
I1
tp28
a(S'tr_th'
I0
tp29
a(S'w'
I1
tp30
a(S'tr_tl'
I213
tp31
a(S'w'
I22012
tp32
a(S'tr_ll'
I1
tp33
a(S'w'
I1
tp34
a(S'tr_tl'
I201
tp35
a(S'w'
I11737
tp36
a(S'tr_ll'
I1
tp37
a(S'tr_th'
I1
tp38
a(S'w'
I1
tp39
a(S'tr_tl'
I13
tp40
a(S'w'
I11743
tp41
a(S'tr_ll'
I1
tp42
a(S'tr_th'
I0
tp43
a(S'w'
I1
tp44
a(S'tr_tl'
I201
tp45
a(S'w'
I22012
tp46
a(S'tr_ll'
I1
tp47
a(S'w'
I11738
tp48
a(S'tr_ll'
I1
tp49
a(S'tr_th'
I1
tp50
a(S'w'
I1
tp51
a(S'tr_tl'
I13
tp52
a(S'w'
I11743
tp53
a(S'tr_ll'
I1
tp54
a(S'tr_th'
I0
tp55
a(S'w'
I1
tp56
a(S'tr_tl'
I201
tp57
a(S'w'
I22012
tp58
a(S'tr_ll'
I1
tp59
a(S'w'
I1
tp60
a(S'tr_tl'
I190
tp61
a(S'w'
I11738
tp62
a(S'tr_ll'
I1
tp63
a(S'w'
I1
tp64
a(S'tr_tl'
I254
tp65
a(S'w'
I11742
tp66
a(S'tr_ll'
I1
tp67
a(S'w'
I1
tp68
a(S'tr_tl'
I190
tp69
a(S'w'
I22012
tp70
a(S'tr_ll'
I1
tp71
a(S'w'
I11739
tp72
a(S'tr_ll'
I1
tp73
a(S'w'
I1
tp74
a(S'tr_tl'
I254
tp75
a(S'w'
I11742
tp76
a(S'tr_ll'
I1
tp77
a(S'w'
I1
tp78
a(S'tr_tl'
I190
tp79
a(S'w'
I22012
tp80
a(S'tr_ll'
I1
tp81
a(S'w'
I1
tp82
a(S'tr_tl'
I179
tp83
a(S'w'
I11738
tp84
a(S'tr_ll'
I1
tp85
a(S'w'
I1
tp86
a(S'tr_tl'
I240
tp87
a(S'w'
I11742
tp88
a(S'tr_ll'
I1
tp89
a(S'w'
I1
tp90
a(S'tr_tl'
I179
tp91
a(S'w'
I22012
tp92
a(S'tr_ll'
I1
tp93
a(S'w'
I11739
tp94
a(S'tr_ll'
I1
tp95
a(S'w'
I1
tp96
a(S'tr_tl'
I240
tp97
a(S'w'
I11742
tp98
a(S'tr_ll'
I1
tp99
a(S'w'
I1
tp100
a(S'tr_tl'
I179
tp101
a(S'w'
I22014
tp102
a(S'tr_ll'
I1
tp103
a(S'w'
I1
tp104
a(S'tr_tl'
I170
tp105
a(S'w'
I11738
tp106
a(S'tr_ll'
I1
tp107
a(S'w'
I1
tp108
a(S'tr_tl'
I226
tp109
a(S'w'
I11742
tp110
a(S'tr_ll'
I1
tp111
a(S'w'
I1
tp112
a(S'tr_tl'
I170
tp113
a(S'w'
I22011
tp114
a(S'tr_ll'
I1
tp115
a(S'w'
I11740
tp116
a(S'tr_ll'
I1
tp117
a(S'w'
I1
tp118
a(S'tr_tl'
I226
tp119
a(S'w'
I11743
tp120
a(S'tr_ll'
I1
tp121
a(S'w'
I1
tp122
a(S'tr_tl'
I170
tp123
a(S'w'
I22003
tp124
a(S'tr_lr'
I0
tp125
a(S'w'
I38606
tp126
a.