(lp1
(S'clock'
p2
I1789773
tp3
a(S'w'
I11
tp4
a(S'tr_lr'
I29
tp5
a(S'w'
I4
tp6
a(S'tr_ll'
I1
tp7
a(S'w'
I1
tp8
a(S'tr_tl'
I213
tp9
a(S'w'
I15407
tp10
a(S'tr_ll'
I1
tp11
a(S'tr_th'
I1
tp12
a(S'w'
I1
tp13
a(S'tr_tl'
I29
tp14
a(S'w'
I15407
tp15
a(S'tr_ll'
I1
tp16
a(S'tr_th'
I0
tp17
a(S'w'
I1
tp18
a(S'tr_tl'
I254
tp19
a(S'w'
I15408
tp20
a(S'tr_ll'
I1
tp21
a(S'w'
I1
tp22
a(S'tr_tl'
I226
tp23
a(S'w'
I15415
tp24
a(S'tr_ll'
I1
tp25
a(S'w'
I1
tp26
a(S'tr_tl'
I213
tp27
a(S'w'
I15405
tp28
a(S'tr_ll'
I1
tp29
a(S'tr_th'
I1
tp30
a(S'w'
I1
tp31
a(S'tr_tl'
I29
tp32
a(S'w'
I15406
tp33
a(S'tr_ll'
I1
tp34
a(S'tr_th'
I0
tp35
a(S'w'
I1
tp36
a(S'tr_tl'
I254
tp37
a(S'w'
I15409
tp38
a(S'tr_ll'
I1
tp39
a(S'w'
I1
tp40
a(S'tr_tl'
I226
tp41
a(S'w'
I15415
tp42
a(S'tr_ll'
I1
tp43
a(S'w'
I1
tp44
a(S'tr_tl'
I201
tp45
a(S'w'
I15404
tp46
a(S'tr_ll'
I1
tp47
a(S'tr_th'
I1
tp48
a(S'w'
I1
tp49
a(S'tr_tl'
I13
tp50
a(S'w'
I15407
tp51
a(S'tr_ll'
I1
tp52
a(S'tr_th'
I0
tp53
a(S'w'
I1
tp54
a(S'tr_tl'
I240
tp55
a(S'w'
I15411
tp56
a(S'tr_ll'
I1
tp57
a(S'w'
I1
tp58
a(S'tr_tl'
I213
tp59
a(S'w'
I15411
tp60
a(S'tr_ll'
I1
tp61
a(S'w'
I1
tp62
a(S'tr_tl'
I201
tp63
a(S'w'
I15406
tp64
a(S'tr_ll'
I1
tp65
a(S'tr_th'
I1
tp66
a(S'w'
I1
tp67
a(S'tr_tl'
I13
tp68
a(S'w'
I15406
tp69
a(S'tr_ll'
I1
tp70
a(S'tr_th'
I0
tp71
a(S'w'
I1
tp72
a(S'tr_tl'
I240
tp73
a(S'w'
I15412
tp74
a(S'tr_ll'
I1
tp75
a(S'w'
I1
tp76
a(S'tr_tl'
I213
tp77
a(S'w'
I15410
tp78
a(S'tr_lr'
I16
tp79
a(S'w'
I4
tp80
a(S'tr_ll'
I1
tp81
a(S'tr_th'
I1
tp82
a(S'w'
I1
tp83
a(S'tr_tl'
I29
tp84
a(S'w'
I5131
tp85
a(S'tr_ll'
I1
tp86
a(S'tr_th'
I0
tp87
a(S'w'
I1
tp88
a(S'tr_tl'
I213
tp89
a(S'w'
I5134
tp90
a(S'tr_ll'
I1
tp91
a(S'w'
I1
tp92
a(S'tr_tl'
I169
tp93
a(S'w'
I5138
tp94
a(S'tr_ll'
I1
tp95
a(S'w'
I1
tp96
a(S'tr_tl'
I142
tp97
a(S'w'
I11003
tp98
a(S'tr_ll'
I1
tp99
a(S'w'
I1
tp100
a(S'tr_tl'
I169
tp101
a(S'w'
I5133
tp102
a(S'tr_lh'
I1
tp103
a(S'w'
I5
tp104
a(S'tr_ll'
I1
tp105
a(S'w'
I1
tp106
a(S'tr_tl'
I142
tp107
a(S'w'
I30811
tp108
a(S'tr_lh'
I0
tp109
a(S'tr_lr'
I0
tp110
a(S'w'
I55609
tp111
a.