(lp1
(S'clock'
p2
I1789773
tp3
a(S'p2_lh'
I1
tp4
a(S'p2_cv'
I1
tp5
a(S'p2_sp'
I7
tp6
a(S'p2_sn'
I1
tp7
a(S'p2_ss'
I7
tp8
a(S'p1_lh'
I1
tp9
a(S'p1_cv'
I1
tp10
a(S'p1_sp'
I7
tp11
a(S'p1_sn'
I1
tp12
a(S'p1_ss'
I7
tp13
a(S'w'
I19
tp14
a(S'p1_du'
I3
tp15
a(S'p1_vo'
I1
tp16
a(S'w'
I5
tp17
a(S'p1_ll'
I1
tp18
a(S'p1_th'
I1
tp19
a(S'w'
I1
tp20
a(S'p1_tl'
I83
tp21
a(S'w'
I18
tp22
a(S'p2_du'
I3
tp23
a(S'p2_vo'
I1
tp24
a(S'w'
I4
tp25
a(S'p2_ll'
I1
tp26
a(S'p2_th'
I1
tp27
a(S'w'
I1
tp28
a(S'p2_tl'
I29
tp29
a(S'w'
I9
tp30
a(S'tr_lr'
I16
tp31
a(S'w'
I4
tp32
a(S'tr_ll'
I1
tp33
a(S'tr_th'
I1
tp34
a(S'w'
I1
tp35
a(S'tr_tl'
I29
tp36
a(S'w'
I678
tp37
a(S'p1_vo'
I3
tp38
a(S'w'
I5
tp39
a(S'p2_vo'
I3
tp40
a(S'w'
I729
tp41
a(S'p1_vo'
I6
tp42
a(S'w'
I5
tp43
a(S'p2_vo'
I6
tp44
a(S'w'
I729
tp45
a(S'p1_vo'
I8
tp46
a(S'w'
I5
tp47
a(S'p2_vo'
I9
tp48
a(S'w'
I729
tp49
a(S'p1_vo'
I10
tp50
a(S'w'
I5
tp51
a(S'p2_vo'
I12
tp52
a(S'w'
I728
tp53
a(S'p1_vo'
I9
tp54
a(S'w'
I5
tp55
a(S'p2_vo'
I11
tp56
a(S'w'
I737
tp57
a(S'p1_vo'
I1
tp58
a(S'w'
I6
tp59
a(S'p1_tl'
I29
tp60
a(S'w'
I15
tp61
a(S'p2_vo'
I1
tp62
a(S'w'
I5
tp63
a(S'p2_ll'
I1
tp64
a(S'p2_th'
I0
tp65
a(S'w'
I1
tp66
a(S'p2_tl'
I213
tp67
a(S'w'
I11
tp68
a(S'tr_ll'
I1
tp69
a(S'tr_th'
I0
tp70
a(S'w'
I1
tp71
a(S'tr_tl'
I213
tp72
a(S'w'
I687
tp73
a(S'p1_vo'
I3
tp74
a(S'w'
I5
tp75
a(S'p2_vo'
I3
tp76
a(S'w'
I729
tp77
a(S'p1_vo'
I6
tp78
a(S'w'
I5
tp79
a(S'p2_vo'
I6
tp80
a(S'w'
I729
tp81
a(S'p1_vo'
I8
tp82
a(S'w'
I5
tp83
a(S'p2_vo'
I9
tp84
a(S'w'
I728
tp85
a(S'p1_vo'
I10
tp86
a(S'w'
I5
tp87
a(S'p2_vo'
I12
tp88
a(S'w'
I729
tp89
a(S'p1_vo'
I9
tp90
a(S'w'
I5
tp91
a(S'p2_vo'
I11
tp92
a(S'w'
I739
tp93
a(S'p1_vo'
I1
tp94
a(S'w'
I5
tp95
a(S'p1_ll'
I1
tp96
a(S'p1_th'
I0
tp97
a(S'w'
I1
tp98
a(S'p1_tl'
I213
tp99
a(S'w'
I14
tp100
a(S'p2_vo'
I1
tp101
a(S'w'
I6
tp102
a(S'p2_tl'
I169
tp103
a(S'w'
I9
tp104
a(S'tr_ll'
I1
tp105
a(S'w'
I1
tp106
a(S'tr_tl'
I169
tp107
a(S'w'
I688
tp108
a(S'p1_vo'
I3
tp109
a(S'w'
I5
tp110
a(S'p2_vo'
I3
tp111
a(S'w'
I729
tp112
a(S'p1_vo'
I6
tp113
a(S'w'
I5
tp114
a(S'p2_vo'
I6
tp115
a(S'w'
I728
tp116
a(S'p1_vo'
I8
tp117
a(S'w'
I5
tp118
a(S'p2_vo'
I9
tp119
a(S'w'
I729
tp120
a(S'p1_vo'
I10
tp121
a(S'w'
I5
tp122
a(S'p2_vo'
I12
tp123
a(S'w'
I729
tp124
a(S'p1_vo'
I9
tp125
a(S'w'
I5
tp126
a(S'p2_vo'
I11
tp127
a(S'w'
I738
tp128
a(S'p1_vo'
I1
tp129
a(S'w'
I6
tp130
a(S'p1_tl'
I169
tp131
a(S'w'
I14
tp132
a(S'p2_vo'
I1
tp133
a(S'w'
I5
tp134
a(S'p2_tl'
I142
tp135
a(S'w'
I11
tp136
a(S'tr_ll'
I1
tp137
a(S'w'
I1
tp138
a(S'tr_tl'
I142
tp139
a(S'w'
I688
tp140
a(S'p1_vo'
I3
tp141
a(S'w'
I5
tp142
a(S'p2_vo'
I3
tp143
a(S'w'
I728
tp144
a(S'p1_vo'
I6
tp145
a(S'w'
I5
tp146
a(S'p2_vo'
I6
tp147
a(S'w'
I729
tp148
a(S'p1_vo'
I8
tp149
a(S'w'
I5
tp150
a(S'p2_vo'
I9
tp151
a(S'w'
I729
tp152
a(S'p1_vo'
I10
tp153
a(S'w'
I5
tp154
a(S'p2_vo'
I12
tp155
a(S'w'
I729
tp156
a(S'p1_vo'
I9
tp157
a(S'w'
I5
tp158
a(S'p2_vo'
I11
tp159
a(S'w'
I729
tp160
a(S'p1_vo'
I8
tp161
a(S'w'
I5
tp162
a(S'p2_vo'
I10
tp163
a(S'w'
I728
tp164
a(S'p1_vo'
I7
tp165
a(S'w'
I5
tp166
a(S'p2_vo'
I9
tp167
a(S'w'
I736
tp168
a(S'p1_vo'
I0
tp169
a(S'w'
I12
tp170
a(S'p2_vo'
I0
tp171
a(S'w'
I2924
tp172
a(S'p1_vo'
I1
tp173
a(S'w'
I6
tp174
a(S'p1_tl'
I213
tp175
a(S'w'
I14
tp176
a(S'p2_vo'
I1
tp177
a(S'w'
I6
tp178
a(S'p2_tl'
I169
tp179
a(S'w'
I9
tp180
a(S'tr_ll'
I1
tp181
a(S'w'
I1
tp182
a(S'tr_tl'
I169
tp183
a(S'w'
I690
tp184
a(S'p1_vo'
I3
tp185
a(S'w'
I5
tp186
a(S'p2_vo'
I3
tp187
a(S'w'
I729
tp188
a(S'p1_vo'
I6
tp189
a(S'w'
I5
tp190
a(S'p2_vo'
I6
tp191
a(S'w'
I729
tp192
a(S'p1_vo'
I8
tp193
a(S'w'
I5
tp194
a(S'p2_vo'
I9
tp195
a(S'w'
I728
tp196
a(S'p1_vo'
I10
tp197
a(S'w'
I5
tp198
a(S'p2_vo'
I12
tp199
a(S'w'
I729
tp200
a(S'p1_vo'
I9
tp201
a(S'w'
I5
tp202
a(S'p2_vo'
I11
tp203
a(S'w'
I739
tp204
a(S'p1_vo'
I0
tp205
a(S'w'
I6
tp206
a(S'p1_tl'
I169
tp207
a(S'w'
I16
tp208
a(S'p2_vo'
I0
tp209
a(S'w'
I5
tp210
a(S'p2_tl'
I142
tp211
a(S'w'
I11
tp212
a(S'tr_lh'
I1
tp213
a(S'w'
I4
tp214
a(S'tr_ll'
I1
tp215
a(S'w'
I1
tp216
a(S'tr_tl'
I142
tp217
a(S'w'
I681
tp218
a(S'p1_vo'
I3
tp219
a(S'w'
I5
tp220
a(S'p2_vo'
I3
tp221
a(S'w'
I729
tp222
a(S'p1_vo'
I6
tp223
a(S'w'
I5
tp224
a(S'p2_vo'
I6
tp225
a(S'w'
I728
tp226
a(S'p1_vo'
I9
tp227
a(S'w'
I5
tp228
a(S'p2_vo'
I9
tp229
a(S'w'
I729
tp230
a(S'p1_vo'
I12
tp231
a(S'w'
I5
tp232
a(S'p2_vo'
I12
tp233
a(S'w'
I729
tp234
a(S'p1_vo'
I11
tp235
a(S'w'
I5
tp236
a(S'p2_vo'
I11
tp237
a(S'w'
I729
tp238
a(S'p1_vo'
I10
tp239
a(S'w'
I5
tp240
a(S'p2_vo'
I10
tp241
a(S'w'
I729
tp242
a(S'p1_vo'
I9
tp243
a(S'w'
I5
tp244
a(S'p2_vo'
I9
tp245
a(S'w'
I728
tp246
a(S'p1_vo'
I8
tp247
a(S'w'
I5
tp248
a(S'p2_vo'
I8
tp249
a(S'w'
I729
tp250
a(S'p1_vo'
I9
tp251
a(S'w'
I5
tp252
a(S'p2_vo'
I9
tp253
a(S'w'
I729
tp254
a(S'p1_vo'
I10
tp255
a(S'w'
I5
tp256
a(S'p2_vo'
I10
tp257
a(S'w'
I730
tp258
a(S'p1_vo'
I11
tp259
a(S'w'
I6
tp260
a(S'p2_vo'
I11
tp261
a(S'w'
I727
tp262
a(S'p1_vo'
I10
tp263
a(S'w'
I5
tp264
a(S'p2_vo'
I10
tp265
a(S'w'
I728
tp266
a(S'p1_vo'
I9
tp267
a(S'w'
I5
tp268
a(S'p2_vo'
I9
tp269
a(S'w'
I729
tp270
a(S'p1_vo'
I8
tp271
a(S'w'
I5
tp272
a(S'p2_vo'
I8
tp273
a(S'w'
I729
tp274
a(S'p1_vo'
I9
tp275
a(S'w'
I5
tp276
a(S'p2_vo'
I9
tp277
a(S'w'
I729
tp278
a(S'p1_vo'
I10
tp279
a(S'w'
I5
tp280
a(S'p2_vo'
I10
tp281
a(S'w'
I729
tp282
a(S'p1_vo'
I11
tp283
a(S'w'
I6
tp284
a(S'p2_vo'
I11
tp285
a(S'w'
I727
tp286
a(S'p1_vo'
I10
tp287
a(S'w'
I5
tp288
a(S'p2_vo'
I10
tp289
a(S'w'
I729
tp290
a(S'p1_vo'
I9
tp291
a(S'w'
I5
tp292
a(S'p2_vo'
I9
tp293
a(S'w'
I729
tp294
a(S'p1_vo'
I8
tp295
a(S'w'
I5
tp296
a(S'p2_vo'
I8
tp297
a(S'w'
I729
tp298
a(S'p1_vo'
I9
tp299
a(S'w'
I5
tp300
a(S'p2_vo'
I9
tp301
a(S'w'
I728
tp302
a(S'p1_vo'
I10
tp303
a(S'w'
I5
tp304
a(S'p2_vo'
I10
tp305
a(S'w'
I730
tp306
a(S'p1_vo'
I11
tp307
a(S'w'
I6
tp308
a(S'p2_vo'
I11
tp309
a(S'w'
I727
tp310
a(S'p1_vo'
I10
tp311
a(S'w'
I5
tp312
a(S'p2_vo'
I10
tp313
a(S'w'
I729
tp314
a(S'p1_vo'
I9
tp315
a(S'w'
I5
tp316
a(S'p2_vo'
I9
tp317
a(S'w'
I730
tp318
a(S'p1_du'
I0
tp319
a(S'p1_vo'
I0
tp320
a(S'w'
I5
tp321
a(S'p2_du'
I0
tp322
a(S'p2_vo'
I0
tp323
a(S'w'
I6
tp324
a(S'tr_lh'
I0
tp325
a(S'tr_lr'
I0
tp326
a(S'w'
I50742
tp327
a.