(lp1
(S'clock'
p2
I1789772
tp3
a(S'p1_lh'
I1
tp4
a(S'p1_cv'
I1
tp5
a(S'p1_sp'
I1
tp6
a(S'p1_sn'
I1
tp7
a(S'p1_ss'
I1
tp8
a(S'p2_lh'
I1
tp9
a(S'p2_cv'
I1
tp10
a(S'p2_sp'
I1
tp11
a(S'p2_sn'
I1
tp12
a(S'p2_ss'
I1
tp13
a(S'tr_lh'
I1
tp14
a(S'no_lh'
I1
tp15
a(S'no_cv'
I1
tp16
a(S'ch_no'
I1
tp17
a(S'ch_tr'
I1
tp18
a(S'ch_p2'
I1
tp19
a(S'ch_p1'
I1
tp20
a(S'fc_mo'
I0
tp21
a(S'p1_du'
I1
tp22
a(S'w'
I719
tp23
a(S'p1_vo'
I6
tp24
a(S'w'
I1
tp25
a(S'p1_tl'
I124
tp26
a(S'p1_ll'
I20
tp27
a(S'p1_th'
I1
tp28
a(S'w'
I4
tp29
a(S'p2_vo'
I6
tp30
a(S'w'
I1
tp31
a(S'p2_tl'
I249
tp32
a(S'w'
I1
tp33
a(S'p2_ll'
I20
tp34
a(S'p2_th'
I2
tp35
a(S'w'
I723
tp36
a(S'p1_tl'
I83
tp37
a(S'w'
I1
tp38
a(S'p1_ll'
I20
tp39
a(S'w'
I5
tp40
a(S'p2_tl'
I166
tp41
a(S'p2_ll'
I20
tp42
a(S'w'
I728
tp43
a(S'p1_tl'
I46
tp44
a(S'w'
I1
tp45
a(S'p1_ll'
I20
tp46
a(S'w'
I4
tp47
a(S'p2_tl'
I92
tp48
a(S'w'
I1
tp49
a(S'p2_ll'
I20
tp50
a(S'w'
I728
tp51
a(S'p1_tl'
I13
tp52
a(S'p1_ll'
I20
tp53
a(S'w'
I5
tp54
a(S'p2_tl'
I26
tp55
a(S'w'
I1
tp56
a(S'p2_ll'
I20
tp57
a(S'w'
I731
tp58
a(S'p1_vo'
I9
tp59
a(S'w'
I1
tp60
a(S'p1_tl'
I239
tp61
a(S'w'
I1
tp62
a(S'p1_ll'
I20
tp63
a(S'p1_th'
I0
tp64
a(S'w'
I3
tp65
a(S'p2_vo'
I9
tp66
a(S'w'
I1
tp67
a(S'p2_tl'
I223
tp68
a(S'w'
I1
tp69
a(S'p2_ll'
I20
tp70
a(S'p2_th'
I1
tp71
a(S'w'
I724
tp72
a(S'p1_tl'
I213
tp73
a(S'w'
I1
tp74
a(S'p1_ll'
I20
tp75
a(S'w'
I5
tp76
a(S'p2_tl'
I171
tp77
a(S'p2_ll'
I20
tp78
a(S'w'
I728
tp79
a(S'p1_tl'
I190
tp80
a(S'w'
I1
tp81
a(S'p1_ll'
I20
tp82
a(S'w'
I4
tp83
a(S'p2_tl'
I124
tp84
a(S'w'
I1
tp85
a(S'p2_ll'
I20
tp86
a(S'w'
I728
tp87
a(S'p1_tl'
I169
tp88
a(S'p1_ll'
I20
tp89
a(S'w'
I5
tp90
a(S'p2_tl'
I83
tp91
a(S'w'
I1
tp92
a(S'p2_ll'
I20
tp93
a(S'w'
I731
tp94
a(S'p1_vo'
I12
tp95
a(S'w'
I1
tp96
a(S'p1_tl'
I179
tp97
a(S'p1_ll'
I20
tp98
a(S'w'
I4
tp99
a(S'p2_vo'
I12
tp100
a(S'w'
I1
tp101
a(S'p2_tl'
I103
tp102
a(S'w'
I1
tp103
a(S'p2_ll'
I20
tp104
a(S'w'
I724
tp105
a(S'p1_tl'
I169
tp106
a(S'p1_ll'
I20
tp107
a(S'w'
I5
tp108
a(S'p2_tl'
I83
tp109
a(S'p2_ll'
I20
tp110
a(S'w'
I728
tp111
a(S'p1_tl'
I179
tp112
a(S'w'
I1
tp113
a(S'p1_ll'
I20
tp114
a(S'w'
I5
tp115
a(S'p2_tl'
I103
tp116
a(S'p2_ll'
I20
tp117
a(S'w'
I728
tp118
a(S'p1_tl'
I169
tp119
a(S'w'
I1
tp120
a(S'p1_ll'
I20
tp121
a(S'w'
I4
tp122
a(S'p2_tl'
I83
tp123
a(S'w'
I1
tp124
a(S'p2_ll'
I20
tp125
a(S'w'
I731
tp126
a(S'p1_vo'
I11
tp127
a(S'w'
I1
tp128
a(S'p1_tl'
I213
tp129
a(S'w'
I1
tp130
a(S'p1_ll'
I20
tp131
a(S'w'
I3
tp132
a(S'p2_vo'
I11
tp133
a(S'w'
I1
tp134
a(S'p2_tl'
I171
tp135
a(S'w'
I1
tp136
a(S'p2_ll'
I20
tp137
a(S'w'
I724
tp138
a(S'p1_tl'
I201
tp139
a(S'p1_ll'
I20
tp140
a(S'w'
I5
tp141
a(S'p2_tl'
I147
tp142
a(S'p2_ll'
I20
tp143
a(S'w'
I729
tp144
a(S'p1_tl'
I213
tp145
a(S'p1_ll'
I20
tp146
a(S'w'
I5
tp147
a(S'p2_tl'
I171
tp148
a(S'p2_ll'
I20
tp149
a(S'w'
I728
tp150
a(S'p1_tl'
I201
tp151
a(S'w'
I1
tp152
a(S'p1_ll'
I20
tp153
a(S'w'
I5
tp154
a(S'p2_tl'
I147
tp155
a(S'p2_ll'
I20
tp156
a(S'w'
I730
tp157
a(S'p1_vo'
I10
tp158
a(S'w'
I2
tp159
a(S'p1_tl'
I254
tp160
a(S'p1_ll'
I20
tp161
a(S'w'
I4
tp162
a(S'p2_vo'
I10
tp163
a(S'w'
I1
tp164
a(S'p2_tl'
I252
tp165
a(S'p2_ll'
I20
tp166
a(S'w'
I724
tp167
a(S'p1_tl'
I239
tp168
a(S'w'
I1
tp169
a(S'p1_ll'
I20
tp170
a(S'w'
I4
tp171
a(S'p2_tl'
I223
tp172
a(S'w'
I1
tp173
a(S'p2_ll'
I20
tp174
a(S'w'
I728
tp175
a(S'p1_tl'
I254
tp176
a(S'p1_ll'
I20
tp177
a(S'w'
I5
tp178
a(S'p2_tl'
I252
tp179
a(S'w'
I1
tp180
a(S'p2_ll'
I20
tp181
a(S'w'
I728
tp182
a(S'p1_tl'
I239
tp183
a(S'p1_ll'
I20
tp184
a(S'w'
I5
tp185
a(S'p2_tl'
I223
tp186
a(S'w'
I1
tp187
a(S'p2_ll'
I20
tp188
a(S'w'
I731
tp189
a(S'p1_vo'
I9
tp190
a(S'w'
I1
tp191
a(S'p1_tl'
I46
tp192
a(S'p1_ll'
I20
tp193
a(S'p1_th'
I1
tp194
a(S'w'
I4
tp195
a(S'p2_vo'
I9
tp196
a(S'w'
I1
tp197
a(S'p2_tl'
I92
tp198
a(S'w'
I1
tp199
a(S'p2_ll'
I20
tp200
a(S'p2_th'
I2
tp201
a(S'w'
I723
tp202
a(S'p1_tl'
I29
tp203
a(S'w'
I1
tp204
a(S'p1_ll'
I20
tp205
a(S'w'
I5
tp206
a(S'p2_tl'
I58
tp207
a(S'p2_ll'
I20
tp208
a(S'w'
I728
tp209
a(S'p1_tl'
I46
tp210
a(S'w'
I1
tp211
a(S'p1_ll'
I20
tp212
a(S'w'
I4
tp213
a(S'p2_tl'
I92
tp214
a(S'w'
I1
tp215
a(S'p2_ll'
I20
tp216
a(S'w'
I728
tp217
a(S'p1_tl'
I29
tp218
a(S'p1_ll'
I20
tp219
a(S'w'
I5
tp220
a(S'p2_tl'
I58
tp221
a(S'w'
I1
tp222
a(S'p2_ll'
I20
tp223
a(S'w'
I731
tp224
a(S'p1_vo'
I8
tp225
a(S'w'
I1
tp226
a(S'p1_tl'
I103
tp227
a(S'w'
I1
tp228
a(S'p1_ll'
I20
tp229
a(S'w'
I3
tp230
a(S'p2_vo'
I8
tp231
a(S'w'
I1
tp232
a(S'p2_tl'
I207
tp233
a(S'w'
I1
tp234
a(S'p2_ll'
I20
tp235
a(S'w'
I724
tp236
a(S'p1_tl'
I83
tp237
a(S'p1_ll'
I20
tp238
a(S'w'
I5
tp239
a(S'p2_tl'
I166
tp240
a(S'p2_ll'
I20
tp241
a(S'w'
I728
tp242
a(S'p1_tl'
I103
tp243
a(S'w'
I1
tp244
a(S'p1_ll'
I20
tp245
a(S'w'
I5
tp246
a(S'p2_tl'
I207
tp247
a(S'p2_ll'
I20
tp248
a(S'w'
I728
tp249
a(S'p1_tl'
I83
tp250
a(S'w'
I1
tp251
a(S'p1_ll'
I20
tp252
a(S'w'
I5
tp253
a(S'p2_tl'
I166
tp254
a(S'p2_ll'
I20
tp255
a(S'w'
I731
tp256
a(S'p1_vo'
I7
tp257
a(S'w'
I1
tp258
a(S'p1_tl'
I171
tp259
a(S'w'
I1
tp260
a(S'p1_ll'
I20
tp261
a(S'w'
I3
tp262
a(S'p2_vo'
I7
tp263
a(S'w'
I2
tp264
a(S'p2_tl'
I87
tp265
a(S'p2_ll'
I20
tp266
a(S'p2_th'
I3
tp267
a(S'w'
I724
tp268
a(S'p1_tl'
I147
tp269
a(S'p1_ll'
I20
tp270
a(S'w'
I5
tp271
a(S'p2_tl'
I39
tp272
a(S'p2_ll'
I20
tp273
a(S'w'
I729
tp274
a(S'p1_tl'
I171
tp275
a(S'p1_ll'
I20
tp276
a(S'w'
I5
tp277
a(S'p2_tl'
I87
tp278
a(S'p2_ll'
I20
tp279
a(S'w'
I728
tp280
a(S'p1_tl'
I147
tp281
a(S'w'
I1
tp282
a(S'p1_ll'
I20
tp283
a(S'w'
I5
tp284
a(S'p2_tl'
I39
tp285
a(S'p2_ll'
I20
tp286
a(S'w'
I731
tp287
a(S'p1_vo'
I6
tp288
a(S'w'
I1
tp289
a(S'p1_tl'
I252
tp290
a(S'p1_ll'
I20
tp291
a(S'w'
I4
tp292
a(S'p2_vo'
I6
tp293
a(S'w'
I1
tp294
a(S'p2_tl'
I248
tp295
a(S'w'
I1
tp296
a(S'p2_ll'
I20
tp297
a(S'w'
I723
tp298
a(S'p1_tl'
I223
tp299
a(S'w'
I1
tp300
a(S'p1_ll'
I20
tp301
a(S'w'
I5
tp302
a(S'p2_tl'
I191
tp303
a(S'p2_ll'
I20
tp304
a(S'w'
I728
tp305
a(S'p1_tl'
I252
tp306
a(S'w'
I1
tp307
a(S'p1_ll'
I20
tp308
a(S'w'
I4
tp309
a(S'p2_tl'
I248
tp310
a(S'w'
I1
tp311
a(S'p2_ll'
I20
tp312
a(S'w'
I728
tp313
a(S'p1_tl'
I223
tp314
a(S'p1_ll'
I20
tp315
a(S'w'
I5
tp316
a(S'p2_tl'
I191
tp317
a(S'w'
I1
tp318
a(S'p2_ll'
I20
tp319
a(S'w'
I718
tp320
a(S'p1_du'
I0
tp321
a(S'p1_vo'
I0
tp322
a(S'w'
I5
tp323
a(S'p2_vo'
I0
tp324
a(S'w'
I1
tp325
a.