(lp1
(S'clock'
p2
I1789772
tp3
a(S'p1_lh'
I1
tp4
a(S'p1_cv'
I1
tp5
a(S'p1_sp'
I1
tp6
a(S'p1_sn'
I1
tp7
a(S'p1_ss'
I1
tp8
a(S'p2_lh'
I1
tp9
a(S'p2_cv'
I1
tp10
a(S'p2_sp'
I1
tp11
a(S'p2_sn'
I1
tp12
a(S'p2_ss'
I1
tp13
a(S'tr_lh'
I1
tp14
a(S'no_lh'
I1
tp15
a(S'no_cv'
I1
tp16
a(S'ch_no'
I1
tp17
a(S'ch_tr'
I1
tp18
a(S'ch_p2'
I1
tp19
a(S'ch_p1'
I1
tp20
a(S'fc_mo'
I0
tp21
a(S'p1_du'
I1
tp22
a(S'w'
I4
tp23
a(S'p2_du'
I1
tp24
a(S'w'
I716
tp25
a(S'p1_vo'
I14
tp26
a(S'w'
I1
tp27
a(S'p1_tl'
I243
tp28
a(S'p1_ll'
I20
tp29
a(S'p1_th'
I5
tp30
a(S'w'
I4
tp31
a(S'p2_vo'
I15
tp32
a(S'w'
I1
tp33
a(S'p2_tl'
I249
tp34
a(S'w'
I1
tp35
a(S'p2_ll'
I20
tp36
a(S'p2_th'
I2
tp37
a(S'w'
I710
tp38
a(S'p1_vo'
I13
tp39
a(S'w'
I5
tp40
a(S'p2_vo'
I14
tp41
a(S'w'
I729
tp42
a(S'p1_vo'
I12
tp43
a(S'w'
I4
tp44
a(S'p2_vo'
I13
tp45
a(S'w'
I730
tp46
a(S'p1_vo'
I11
tp47
a(S'w'
I4
tp48
a(S'p2_vo'
I12
tp49
a(S'w'
I730
tp50
a(S'p1_vo'
I10
tp51
a(S'w'
I4
tp52
a(S'p2_vo'
I11
tp53
a(S'w'
I1463
tp54
a(S'p1_vo'
I9
tp55
a(S'w'
I5
tp56
a(S'p2_vo'
I10
tp57
a(S'w'
I1473
tp58
a(S'p1_vo'
I14
tp59
a(S'w'
I1
tp60
a(S'p1_tl'
I174
tp61
a(S'w'
I1
tp62
a(S'p1_ll'
I20
tp63
a(S'p1_th'
I6
tp64
a(S'w'
I3
tp65
a(S'p2_vo'
I15
tp66
a(S'w'
I2
tp67
a(S'p2_tl'
I87
tp68
a(S'p2_ll'
I20
tp69
a(S'p2_th'
I3
tp70
a(S'w'
I717
tp71
a(S'p1_vo'
I13
tp72
a(S'w'
I4
tp73
a(S'p2_vo'
I14
tp74
a(S'w'
I730
tp75
a(S'p1_vo'
I12
tp76
a(S'w'
I4
tp77
a(S'p2_vo'
I13
tp78
a(S'w'
I729
tp79
a(S'p1_vo'
I11
tp80
a(S'w'
I5
tp81
a(S'p2_vo'
I12
tp82
a(S'w'
I729
tp83
a(S'p1_vo'
I10
tp84
a(S'w'
I4
tp85
a(S'p2_vo'
I11
tp86
a(S'w'
I1464
tp87
a(S'p1_vo'
I9
tp88
a(S'w'
I4
tp89
a(S'p2_vo'
I10
tp90
a(S'w'
I1473
tp91
a(S'p1_vo'
I14
tp92
a(S'w'
I2
tp93
a(S'p1_tl'
I243
tp94
a(S'p1_ll'
I20
tp95
a(S'p1_th'
I5
tp96
a(S'w'
I4
tp97
a(S'p2_vo'
I15
tp98
a(S'w'
I1
tp99
a(S'p2_tl'
I249
tp100
a(S'p2_ll'
I20
tp101
a(S'p2_th'
I2
tp102
a(S'w'
I717
tp103
a(S'p1_vo'
I13
tp104
a(S'w'
I4
tp105
a(S'p2_vo'
I14
tp106
a(S'w'
I730
tp107
a(S'p1_vo'
I12
tp108
a(S'w'
I4
tp109
a(S'p2_vo'
I13
tp110
a(S'w'
I730
tp111
a(S'p1_vo'
I11
tp112
a(S'w'
I4
tp113
a(S'p2_vo'
I12
tp114
a(S'w'
I730
tp115
a(S'p1_vo'
I10
tp116
a(S'w'
I4
tp117
a(S'p2_vo'
I11
tp118
a(S'w'
I1463
tp119
a(S'p1_vo'
I9
tp120
a(S'w'
I5
tp121
a(S'p2_vo'
I10
tp122
a(S'w'
I1474
tp123
a(S'p1_vo'
I14
tp124
a(S'w'
I1
tp125
a(S'p1_tl'
I87
tp126
a(S'p1_ll'
I20
tp127
a(S'p1_th'
I3
tp128
a(S'w'
I4
tp129
a(S'p2_vo'
I15
tp130
a(S'w'
I1
tp131
a(S'p2_tl'
I171
tp132
a(S'p2_ll'
I20
tp133
a(S'p2_th'
I1
tp134
a(S'w'
I717
tp135
a(S'p1_vo'
I13
tp136
a(S'w'
I4
tp137
a(S'p2_vo'
I14
tp138
a(S'w'
I729
tp139
a(S'p1_vo'
I12
tp140
a(S'w'
I5
tp141
a(S'p2_vo'
I13
tp142
a(S'w'
I729
tp143
a(S'p1_vo'
I11
tp144
a(S'w'
I4
tp145
a(S'p2_vo'
I12
tp146
a(S'w'
I730
tp147
a(S'p1_vo'
I10
tp148
a(S'w'
I4
tp149
a(S'p2_vo'
I11
tp150
a(S'w'
I1464
tp151
a(S'p1_vo'
I9
tp152
a(S'w'
I4
tp153
a(S'p2_vo'
I10
tp154
a(S'w'
I1473
tp155
a(S'p1_vo'
I14
tp156
a(S'w'
I1
tp157
a(S'p1_tl'
I137
tp158
a(S'w'
I1
tp159
a(S'p1_ll'
I20
tp160
a(S'w'
I4
tp161
a(S'p2_vo'
I15
tp162
a(S'w'
I1
tp163
a(S'p2_tl'
I196
tp164
a(S'p2_ll'
I20
tp165
a(S'w'
I717
tp166
a(S'p1_vo'
I13
tp167
a(S'w'
I4
tp168
a(S'p2_vo'
I14
tp169
a(S'w'
I730
tp170
a(S'p1_vo'
I12
tp171
a(S'w'
I4
tp172
a(S'p2_vo'
I13
tp173
a(S'w'
I730
tp174
a(S'p1_vo'
I11
tp175
a(S'w'
I4
tp176
a(S'p2_vo'
I12
tp177
a(S'w'
I729
tp178
a(S'p1_vo'
I10
tp179
a(S'w'
I5
tp180
a(S'p2_vo'
I11
tp181
a(S'w'
I1463
tp182
a(S'p1_vo'
I9
tp183
a(S'w'
I4
tp184
a(S'p2_vo'
I10
tp185
a(S'w'
I1476
tp186
a(S'p1_vo'
I14
tp187
a(S'w'
I1
tp188
a(S'p1_tl'
I191
tp189
a(S'p1_ll'
I20
tp190
a(S'w'
I4
tp191
a(S'p2_vo'
I15
tp192
a(S'w'
I1
tp193
a(S'p2_tl'
I223
tp194
a(S'p2_ll'
I20
tp195
a(S'w'
I715
tp196
a(S'p1_vo'
I13
tp197
a(S'w'
I5
tp198
a(S'p2_vo'
I14
tp199
a(S'w'
I729
tp200
a(S'p1_vo'
I12
tp201
a(S'w'
I4
tp202
a(S'p2_vo'
I13
tp203
a(S'w'
I730
tp204
a(S'p1_vo'
I11
tp205
a(S'w'
I4
tp206
a(S'p2_vo'
I12
tp207
a(S'w'
I730
tp208
a(S'p1_vo'
I10
tp209
a(S'w'
I4
tp210
a(S'p2_vo'
I11
tp211
a(S'w'
I1463
tp212
a(S'p1_vo'
I9
tp213
a(S'w'
I5
tp214
a(S'p2_vo'
I10
tp215
a(S'w'
I2197
tp216
a(S'p1_vo'
I8
tp217
a(S'w'
I4
tp218
a(S'p2_vo'
I9
tp219
a(S'w'
I2931
tp220
a(S'p1_vo'
I7
tp221
a(S'w'
I4
tp222
a(S'p2_vo'
I8
tp223
a(S'w'
I3684
tp224
a(S'p1_vo'
I11
tp225
a(S'w'
I1
tp226
a(S'p1_tl'
I243
tp227
a(S'p1_ll'
I20
tp228
a(S'p1_th'
I5
tp229
a(S'w'
I4
tp230
a(S'p2_vo'
I4
tp231
a(S'w'
I1
tp232
a(S'p2_tl'
I249
tp233
a(S'w'
I1
tp234
a(S'p2_ll'
I20
tp235
a(S'p2_th'
I2
tp236
a(S'w'
I708
tp237
a(S'p1_vo'
I10
tp238
a(S'w'
I4
tp239
a(S'p2_vo'
I5
tp240
a(S'w'
I730
tp241
a(S'p1_vo'
I9
tp242
a(S'w'
I4
tp243
a(S'p2_vo'
I6
tp244
a(S'w'
I729
tp245
a(S'p1_vo'
I8
tp246
a(S'w'
I5
tp247
a(S'p2_vo'
I7
tp248
a(S'w'
I734
tp249
a(S'p1_vo'
I7
tp250
a(S'w'
I5
tp251
a(S'p2_vo'
I4
tp252
a(S'w'
I1
tp253
a(S'p2_tl'
I128
tp254
a(S'p2_ll'
I20
tp255
a(S'w'
I725
tp256
a(S'p2_vo'
I5
tp257
a(S'w'
I732
tp258
a(S'p1_vo'
I6
tp259
a(S'w'
I4
tp260
a(S'p2_vo'
I6
tp261
a(S'w'
I732
tp262
a(S'p2_vo'
I7
tp263
a(S'w'
I739
tp264
a(S'p2_vo'
I4
tp265
a(S'w'
I1
tp266
a(S'p2_tl'
I252
tp267
a(S'w'
I1
tp268
a(S'p2_ll'
I20
tp269
a(S'p2_th'
I1
tp270
a(S'w'
I724
tp271
a(S'p1_vo'
I5
tp272
a(S'w'
I5
tp273
a(S'p2_vo'
I5
tp274
a(S'w'
I731
tp275
a(S'p2_vo'
I6
tp276
a(S'w'
I734
tp277
a(S'p2_vo'
I7
tp278
a(S'w'
I742
tp279
a(S'p1_vo'
I11
tp280
a(S'w'
I2
tp281
a(S'p1_tl'
I249
tp282
a(S'p1_ll'
I20
tp283
a(S'p1_th'
I2
tp284
a(S'w'
I4
tp285
a(S'p2_vo'
I4
tp286
a(S'w'
I1
tp287
a(S'p2_tl'
I124
tp288
a(S'p2_ll'
I20
tp289
a(S'w'
I716
tp290
a(S'p1_vo'
I10
tp291
a(S'w'
I5
tp292
a(S'p2_vo'
I5
tp293
a(S'w'
I729
tp294
a(S'p1_vo'
I9
tp295
a(S'w'
I5
tp296
a(S'p2_vo'
I6
tp297
a(S'w'
I729
tp298
a(S'p1_vo'
I8
tp299
a(S'w'
I4
tp300
a(S'p2_vo'
I7
tp301
a(S'w'
I735
tp302
a(S'p1_vo'
I7
tp303
a(S'w'
I5
tp304
a(S'p2_vo'
I4
tp305
a(S'w'
I1
tp306
a(S'p2_tl'
I64
tp307
a(S'p2_ll'
I20
tp308
a(S'w'
I725
tp309
a(S'p2_vo'
I5
tp310
a(S'w'
I732
tp311
a(S'p1_vo'
I6
tp312
a(S'w'
I4
tp313
a(S'p2_vo'
I6
tp314
a(S'w'
I732
tp315
a(S'p2_vo'
I7
tp316
a(S'w'
I739
tp317
a(S'p2_vo'
I4
tp318
a(S'w'
I1
tp319
a(S'p2_tl'
I254
tp320
a(S'w'
I1
tp321
a(S'p2_ll'
I20
tp322
a(S'p2_th'
I0
tp323
a(S'w'
I724
tp324
a(S'p1_vo'
I5
tp325
a(S'w'
I4
tp326
a(S'p2_vo'
I5
tp327
a(S'w'
I732
tp328
a(S'p2_vo'
I6
tp329
a(S'w'
I734
tp330
a(S'p2_vo'
I7
tp331
a(S'w'
I741
tp332
a(S'p1_vo'
I11
tp333
a(S'w'
I2
tp334
a(S'p1_tl'
I77
tp335
a(S'p1_ll'
I20
tp336
a(S'p1_th'
I5
tp337
a(S'w'
I4
tp338
a(S'p2_vo'
I4
tp339
a(S'w'
I1
tp340
a(S'p2_tl'
I166
tp341
a(S'p2_ll'
I20
tp342
a(S'p2_th'
I2
tp343
a(S'w'
I717
tp344
a(S'p1_vo'
I10
tp345
a(S'w'
I4
tp346
a(S'p2_vo'
I5
tp347
a(S'w'
I730
tp348
a(S'p1_vo'
I9
tp349
a(S'w'
I4
tp350
a(S'p2_vo'
I6
tp351
a(S'w'
I730
tp352
a(S'p1_vo'
I8
tp353
a(S'w'
I4
tp354
a(S'p2_vo'
I7
tp355
a(S'w'
I735
tp356
a(S'p1_vo'
I7
tp357
a(S'w'
I4
tp358
a(S'p2_vo'
I4
tp359
a(S'w'
I1
tp360
a(S'p2_tl'
I58
tp361
a(S'w'
I1
tp362
a(S'p2_ll'
I20
tp363
a(S'w'
I725
tp364
a(S'p2_vo'
I5
tp365
a(S'w'
I731
tp366
a(S'p1_vo'
I6
tp367
a(S'w'
I4
tp368
a(S'p2_vo'
I6
tp369
a(S'w'
I732
tp370
a(S'p2_vo'
I7
tp371
a(S'w'
I739
tp372
a(S'p2_vo'
I4
tp373
a(S'w'
I1
tp374
a(S'p2_tl'
I223
tp375
a(S'w'
I1
tp376
a(S'p2_ll'
I20
tp377
a(S'p2_th'
I1
tp378
a(S'w'
I724
tp379
a(S'p1_vo'
I5
tp380
a(S'w'
I5
tp381
a(S'p2_vo'
I5
tp382
a(S'w'
I732
tp383
a(S'p2_vo'
I6
tp384
a(S'w'
I733
tp385
a(S'p2_vo'
I7
tp386
a(S'w'
I743
tp387
a(S'p1_vo'
I11
tp388
a(S'w'
I1
tp389
a(S'p1_tl'
I166
tp390
a(S'p1_ll'
I20
tp391
a(S'p1_th'
I2
tp392
a(S'w'
I4
tp393
a(S'p2_vo'
I4
tp394
a(S'w'
I1
tp395
a(S'p2_tl'
I83
tp396
a(S'w'
I1
tp397
a(S'p2_ll'
I20
tp398
a(S'w'
I716
tp399
a(S'p1_vo'
I10
tp400
a(S'w'
I4
tp401
a(S'p2_vo'
I5
tp402
a(S'w'
I729
tp403
a(S'p1_vo'
I9
tp404
a(S'w'
I5
tp405
a(S'p2_vo'
I6
tp406
a(S'w'
I729
tp407
a(S'p1_vo'
I8
tp408
a(S'w'
I5
tp409
a(S'p2_vo'
I7
tp410
a(S'w'
I735
tp411
a(S'p1_vo'
I7
tp412
a(S'w'
I4
tp413
a(S'p2_vo'
I4
tp414
a(S'w'
I1
tp415
a(S'p2_tl'
I29
tp416
a(S'w'
I1
tp417
a(S'p2_ll'
I20
tp418
a(S'w'
I724
tp419
a(S'p2_vo'
I5
tp420
a(S'w'
I732
tp421
a(S'p1_vo'
I6
tp422
a(S'w'
I4
tp423
a(S'p2_vo'
I6
tp424
a(S'w'
I732
tp425
a(S'p2_vo'
I7
tp426
a(S'w'
I739
tp427
a(S'p2_vo'
I4
tp428
a(S'w'
I1
tp429
a(S'p2_tl'
I239
tp430
a(S'w'
I1
tp431
a(S'p2_ll'
I20
tp432
a(S'p2_th'
I0
tp433
a(S'w'
I724
tp434
a(S'p1_vo'
I5
tp435
a(S'w'
I4
tp436
a(S'p2_vo'
I5
tp437
a(S'w'
I732
tp438
a(S'p2_vo'
I6
tp439
a(S'w'
I734
tp440
a(S'p2_vo'
I7
tp441
a(S'w'
I742
tp442
a(S'p1_vo'
I11
tp443
a(S'w'
I1
tp444
a(S'p1_tl'
I1
tp445
a(S'p1_ll'
I20
tp446
a(S'p1_th'
I5
tp447
a(S'w'
I4
tp448
a(S'p2_vo'
I4
tp449
a(S'w'
I1
tp450
a(S'p2_tl'
I128
tp451
a(S'p2_ll'
I20
tp452
a(S'p2_th'
I2
tp453
a(S'w'
I717
tp454
a(S'p1_vo'
I10
tp455
a(S'w'
I5
tp456
a(S'p2_vo'
I5
tp457
a(S'w'
I729
tp458
a(S'p1_vo'
I9
tp459
a(S'w'
I4
tp460
a(S'p2_vo'
I6
tp461
a(S'w'
I730
tp462
a(S'p1_vo'
I8
tp463
a(S'w'
I4
tp464
a(S'p2_vo'
I7
tp465
a(S'w'
I735
tp466
a(S'p1_vo'
I7
tp467
a(S'w'
I4
tp468
a(S'p2_vo'
I4
tp469
a(S'w'
I1
tp470
a(S'p2_tl'
I26
tp471
a(S'w'
I1
tp472
a(S'p2_ll'
I20
tp473
a(S'w'
I725
tp474
a(S'p2_vo'
I5
tp475
a(S'w'
I731
tp476
a(S'p1_vo'
I6
tp477
a(S'w'
I5
tp478
a(S'p2_vo'
I6
tp479
a(S'w'
I731
tp480
a(S'p2_vo'
I7
tp481
a(S'w'
I740
tp482
a(S'p2_vo'
I4
tp483
a(S'w'
I1
tp484
a(S'p2_tl'
I171
tp485
a(S'p2_ll'
I20
tp486
a(S'p2_th'
I1
tp487
a(S'w'
I725
tp488
a(S'p1_vo'
I5
tp489
a(S'w'
I4
tp490
a(S'p2_vo'
I5
tp491
a(S'w'
I732
tp492
a(S'p2_vo'
I6
tp493
a(S'w'
I734
tp494
a(S'p2_vo'
I7
tp495
a(S'w'
I742
tp496
a(S'p1_vo'
I11
tp497
a(S'w'
I1
tp498
a(S'p1_tl'
I128
tp499
a(S'p1_ll'
I20
tp500
a(S'p1_th'
I2
tp501
a(S'w'
I4
tp502
a(S'p2_vo'
I4
tp503
a(S'w'
I1
tp504
a(S'p2_tl'
I64
tp505
a(S'w'
I1
tp506
a(S'p2_ll'
I20
tp507
a(S'w'
I716
tp508
a(S'p1_vo'
I10
tp509
a(S'w'
I4
tp510
a(S'p2_vo'
I5
tp511
a(S'w'
I730
tp512
a(S'p1_vo'
I9
tp513
a(S'w'
I4
tp514
a(S'p2_vo'
I6
tp515
a(S'w'
I730
tp516
a(S'p1_vo'
I8
tp517
a(S'w'
I4
tp518
a(S'p2_vo'
I7
tp519
a(S'w'
I735
tp520
a(S'p1_vo'
I7
tp521
a(S'w'
I4
tp522
a(S'p2_vo'
I4
tp523
a(S'w'
I1
tp524
a(S'p2_tl'
I13
tp525
a(S'w'
I1
tp526
a(S'p2_ll'
I20
tp527
a(S'w'
I725
tp528
a(S'p2_vo'
I5
tp529
a(S'w'
I731
tp530
a(S'p1_vo'
I6
tp531
a(S'w'
I4
tp532
a(S'p2_vo'
I6
tp533
a(S'w'
I732
tp534
a(S'p2_vo'
I7
tp535
a(S'w'
I740
tp536
a(S'p2_vo'
I4
tp537
a(S'w'
I1
tp538
a(S'p2_tl'
I213
tp539
a(S'p2_ll'
I20
tp540
a(S'p2_th'
I0
tp541
a(S'w'
I724
tp542
a(S'p1_vo'
I5
tp543
a(S'w'
I5
tp544
a(S'p2_vo'
I5
tp545
a(S'w'
I732
tp546
a(S'p2_vo'
I6
tp547
a(S'w'
I733
tp548
a(S'p2_vo'
I7
tp549
a(S'w'
I742
tp550
a(S'p1_vo'
I11
tp551
a(S'w'
I1
tp552
a(S'p1_tl'
I117
tp553
a(S'p1_ll'
I20
tp554
a(S'p1_th'
I4
tp555
a(S'w'
I4
tp556
a(S'p2_vo'
I4
tp557
a(S'w'
I1
tp558
a(S'p2_tl'
I58
tp559
a(S'w'
I1
tp560
a(S'p2_ll'
I20
tp561
a(S'p2_th'
I2
tp562
a(S'w'
I717
tp563
a(S'p1_vo'
I10
tp564
a(S'w'
I4
tp565
a(S'p2_vo'
I5
tp566
a(S'w'
I729
tp567
a(S'p1_vo'
I9
tp568
a(S'w'
I5
tp569
a(S'p2_vo'
I6
tp570
a(S'w'
I729
tp571
a(S'p1_vo'
I8
tp572
a(S'w'
I4
tp573
a(S'p2_vo'
I7
tp574
a(S'w'
I735
tp575
a(S'p1_vo'
I7
tp576
a(S'w'
I4
tp577
a(S'p2_vo'
I4
tp578
a(S'w'
I2
tp579
a(S'p2_tl'
I223
tp580
a(S'p2_ll'
I20
tp581
a(S'p2_th'
I1
tp582
a(S'w'
I725
tp583
a(S'p2_vo'
I5
tp584
a(S'w'
I732
tp585
a(S'p1_vo'
I6
tp586
a(S'w'
I4
tp587
a(S'p2_vo'
I6
tp588
a(S'w'
I732
tp589
a(S'p2_vo'
I7
tp590
a(S'w'
I739
tp591
a(S'p2_vo'
I4
tp592
a(S'w'
I1
tp593
a(S'p2_tl'
I147
tp594
a(S'w'
I1
tp595
a(S'p2_ll'
I20
tp596
a(S'w'
I724
tp597
a(S'p1_vo'
I5
tp598
a(S'w'
I4
tp599
a(S'p2_vo'
I5
tp600
a(S'w'
I732
tp601
a(S'p2_vo'
I6
tp602
a(S'w'
I734
tp603
a(S'p2_vo'
I7
tp604
a(S'w'
I742
tp605
a(S'p1_vo'
I11
tp606
a(S'w'
I1
tp607
a(S'p1_tl'
I58
tp608
a(S'w'
I1
tp609
a(S'p1_ll'
I20
tp610
a(S'p1_th'
I2
tp611
a(S'w'
I3
tp612
a(S'p2_vo'
I4
tp613
a(S'w'
I2
tp614
a(S'p2_tl'
I29
tp615
a(S'p2_ll'
I20
tp616
a(S'w'
I716
tp617
a(S'p1_vo'
I10
tp618
a(S'w'
I4
tp619
a(S'p2_vo'
I5
tp620
a(S'w'
I730
tp621
a(S'p1_vo'
I9
tp622
a(S'w'
I4
tp623
a(S'p2_vo'
I6
tp624
a(S'w'
I730
tp625
a(S'p1_vo'
I8
tp626
a(S'w'
I4
tp627
a(S'p2_vo'
I7
tp628
a(S'w'
I735
tp629
a(S'p1_vo'
I7
tp630
a(S'w'
I4
tp631
a(S'p2_vo'
I4
tp632
a(S'w'
I2
tp633
a(S'p2_tl'
I239
tp634
a(S'p2_ll'
I20
tp635
a(S'p2_th'
I0
tp636
a(S'w'
I725
tp637
a(S'p2_vo'
I5
tp638
a(S'w'
I731
tp639
a(S'p1_vo'
I6
tp640
a(S'w'
I4
tp641
a(S'p2_vo'
I6
tp642
a(S'w'
I732
tp643
a(S'p2_vo'
I7
tp644
a(S'w'
I740
tp645
a(S'p2_vo'
I4
tp646
a(S'w'
I1
tp647
a(S'p2_tl'
I201
tp648
a(S'w'
I1
tp649
a(S'p2_ll'
I20
tp650
a(S'w'
I724
tp651
a(S'p1_vo'
I5
tp652
a(S'w'
I4
tp653
a(S'p2_vo'
I5
tp654
a(S'w'
I732
tp655
a(S'p2_vo'
I6
tp656
a(S'w'
I734
tp657
a(S'p2_vo'
I7
tp658
a(S'w'
I741
tp659
a(S'p1_vo'
I11
tp660
a(S'w'
I1
tp661
a(S'p1_tl'
I248
tp662
a(S'w'
I1
tp663
a(S'p1_ll'
I20
tp664
a(S'p1_th'
I3
tp665
a(S'w'
I3
tp666
a(S'p2_vo'
I4
tp667
a(S'w'
I2
tp668
a(S'p2_tl'
I252
tp669
a(S'p2_ll'
I20
tp670
a(S'p2_th'
I1
tp671
a(S'w'
I717
tp672
a(S'p1_vo'
I10
tp673
a(S'w'
I4
tp674
a(S'p2_vo'
I5
tp675
a(S'w'
I730
tp676
a(S'p1_vo'
I9
tp677
a(S'w'
I4
tp678
a(S'p2_vo'
I6
tp679
a(S'w'
I729
tp680
a(S'p1_vo'
I8
tp681
a(S'w'
I5
tp682
a(S'p2_vo'
I7
tp683
a(S'w'
I735
tp684
a(S'p1_vo'
I7
tp685
a(S'w'
I4
tp686
a(S'p2_vo'
I4
tp687
a(S'w'
I1
tp688
a(S'p2_tl'
I171
tp689
a(S'w'
I1
tp690
a(S'p2_ll'
I20
tp691
a(S'w'
I724
tp692
a(S'p2_vo'
I5
tp693
a(S'w'
I732
tp694
a(S'p1_vo'
I6
tp695
a(S'w'
I4
tp696
a(S'p2_vo'
I6
tp697
a(S'w'
I732
tp698
a(S'p2_vo'
I7
tp699
a(S'w'
I739
tp700
a(S'p2_vo'
I4
tp701
a(S'w'
I2
tp702
a(S'p2_tl'
I83
tp703
a(S'p2_ll'
I20
tp704
a(S'w'
I724
tp705
a(S'p1_vo'
I5
tp706
a(S'w'
I4
tp707
a(S'p2_vo'
I5
tp708
a(S'w'
I732
tp709
a(S'p2_vo'
I6
tp710
a(S'w'
I734
tp711
a(S'p2_vo'
I7
tp712
a(S'w'
I742
tp713
a(S'p1_vo'
I11
tp714
a(S'w'
I2
tp715
a(S'p1_tl'
I252
tp716
a(S'p1_ll'
I20
tp717
a(S'p1_th'
I1
tp718
a(S'w'
I4
tp719
a(S'p2_vo'
I4
tp720
a(S'w'
I1
tp721
a(S'p2_tl'
I254
tp722
a(S'p2_ll'
I20
tp723
a(S'p2_th'
I0
tp724
a(S'w'
I716
tp725
a(S'p1_vo'
I10
tp726
a(S'w'
I5
tp727
a(S'p2_vo'
I5
tp728
a(S'w'
I729
tp729
a(S'p1_vo'
I9
tp730
a(S'w'
I5
tp731
a(S'p2_vo'
I6
tp732
a(S'w'
I729
tp733
a(S'p1_vo'
I8
tp734
a(S'w'
I4
tp735
a(S'p2_vo'
I7
tp736
a(S'w'
I736
tp737
a(S'p1_vo'
I7
tp738
a(S'w'
I4
tp739
a(S'p2_vo'
I4
tp740
a(S'w'
I1
tp741
a(S'p2_tl'
I213
tp742
a(S'w'
I1
tp743
a(S'p2_ll'
I20
tp744
a(S'w'
I724
tp745
a(S'p2_vo'
I5
tp746
a(S'w'
I731
tp747
a(S'p1_vo'
I6
tp748
a(S'w'
I5
tp749
a(S'p2_vo'
I6
tp750
a(S'w'
I732
tp751
a(S'p2_vo'
I7
tp752
a(S'w'
I739
tp753
a(S'p2_vo'
I4
tp754
a(S'w'
I1
tp755
a(S'p2_tl'
I169
tp756
a(S'w'
I1
tp757
a(S'p2_ll'
I20
tp758
a(S'w'
I724
tp759
a(S'p1_vo'
I5
tp760
a(S'w'
I4
tp761
a(S'p2_vo'
I5
tp762
a(S'w'
I732
tp763
a(S'p2_vo'
I6
tp764
a(S'w'
I734
tp765
a(S'p2_vo'
I7
tp766
a(S'w'
I746
tp767
a(S'p1_vo'
I10
tp768
a(S'w'
I1
tp769
a(S'p1_tl'
I137
tp770
a(S'p1_ll'
I20
tp771
a(S'p1_th'
I3
tp772
a(S'w'
I4
tp773
a(S'p2_vo'
I3
tp774
a(S'w'
I1
tp775
a(S'p2_tl'
I196
tp776
a(S'p2_ll'
I20
tp777
a(S'p2_th'
I1
tp778
a(S'w'
I713
tp779
a(S'p1_vo'
I9
tp780
a(S'w'
I4
tp781
a(S'p2_vo'
I4
tp782
a(S'w'
I730
tp783
a(S'p1_vo'
I8
tp784
a(S'w'
I4
tp785
a(S'p2_vo'
I5
tp786
a(S'w'
I730
tp787
a(S'p1_vo'
I7
tp788
a(S'w'
I4
tp789
a(S'p2_vo'
I6
tp790
a(S'w'
I735
tp791
a(S'p1_vo'
I6
tp792
a(S'w'
I4
tp793
a(S'p2_vo'
I3
tp794
a(S'w'
I2
tp795
a(S'p2_tl'
I124
tp796
a(S'p2_ll'
I20
tp797
a(S'w'
I725
tp798
a(S'p2_vo'
I4
tp799
a(S'w'
I731
tp800
a(S'p1_vo'
I5
tp801
a(S'w'
I4
tp802
a(S'p2_vo'
I5
tp803
a(S'w'
I732
tp804
a(S'p2_vo'
I6
tp805
a(S'w'
I740
tp806
a(S'p2_vo'
I3
tp807
a(S'w'
I1
tp808
a(S'p2_tl'
I64
tp809
a(S'p2_ll'
I20
tp810
a(S'w'
I724
tp811
a(S'p1_vo'
I4
tp812
a(S'w'
I5
tp813
a(S'p2_vo'
I4
tp814
a(S'w'
I732
tp815
a(S'p2_vo'
I5
tp816
a(S'w'
I733
tp817
a(S'p2_vo'
I6
tp818
a(S'w'
I743
tp819
a(S'p1_vo'
I10
tp820
a(S'w'
I1
tp821
a(S'p1_tl'
I196
tp822
a(S'p1_ll'
I20
tp823
a(S'p1_th'
I1
tp824
a(S'w'
I4
tp825
a(S'p2_vo'
I3
tp826
a(S'w'
I1
tp827
a(S'p2_tl'
I226
tp828
a(S'p2_ll'
I20
tp829
a(S'p2_th'
I0
tp830
a(S'w'
I717
tp831
a(S'p1_vo'
I9
tp832
a(S'w'
I4
tp833
a(S'p2_vo'
I4
tp834
a(S'w'
I729
tp835
a(S'p1_vo'
I8
tp836
a(S'w'
I5
tp837
a(S'p2_vo'
I5
tp838
a(S'w'
I729
tp839
a(S'p1_vo'
I7
tp840
a(S'w'
I5
tp841
a(S'p2_vo'
I6
tp842
a(S'w'
I735
tp843
a(S'p1_vo'
I6
tp844
a(S'w'
I4
tp845
a(S'p2_vo'
I3
tp846
a(S'w'
I2
tp847
a(S'p2_tl'
I190
tp848
a(S'p2_ll'
I20
tp849
a(S'w'
I724
tp850
a(S'p2_vo'
I4
tp851
a(S'w'
I732
tp852
a(S'p1_vo'
I5
tp853
a(S'w'
I4
tp854
a(S'p2_vo'
I5
tp855
a(S'w'
I732
tp856
a(S'p2_vo'
I6
tp857
a(S'w'
I739
tp858
a(S'p2_vo'
I3
tp859
a(S'w'
I2
tp860
a(S'p2_tl'
I160
tp861
a(S'p2_ll'
I20
tp862
a(S'w'
I724
tp863
a(S'p1_vo'
I4
tp864
a(S'w'
I4
tp865
a(S'p2_vo'
I4
tp866
a(S'w'
I732
tp867
a(S'p2_vo'
I5
tp868
a(S'w'
I734
tp869
a(S'p2_vo'
I6
tp870
a(S'w'
I746
tp871
a(S'p1_vo'
I9
tp872
a(S'w'
I2
tp873
a(S'p1_tl'
I87
tp874
a(S'p1_ll'
I20
tp875
a(S'p1_th'
I3
tp876
a(S'w'
I4
tp877
a(S'p2_vo'
I2
tp878
a(S'w'
I1
tp879
a(S'p2_tl'
I171
tp880
a(S'p2_ll'
I20
tp881
a(S'p2_th'
I1
tp882
a(S'w'
I712
tp883
a(S'p1_vo'
I8
tp884
a(S'w'
I4
tp885
a(S'p2_vo'
I3
tp886
a(S'w'
I730
tp887
a(S'p1_vo'
I7
tp888
a(S'w'
I4
tp889
a(S'p2_vo'
I4
tp890
a(S'w'
I730
tp891
a(S'p1_vo'
I6
tp892
a(S'w'
I4
tp893
a(S'p2_vo'
I5
tp894
a(S'w'
I735
tp895
a(S'p1_vo'
I5
tp896
a(S'w'
I5
tp897
a(S'p2_vo'
I2
tp898
a(S'w'
I1
tp899
a(S'p2_tl'
I103
tp900
a(S'p2_ll'
I20
tp901
a(S'w'
I725
tp902
a(S'p2_vo'
I3
tp903
a(S'w'
I731
tp904
a(S'p1_vo'
I4
tp905
a(S'w'
I4
tp906
a(S'p2_vo'
I4
tp907
a(S'w'
I732
tp908
a(S'p2_vo'
I5
tp909
a(S'w'
I740
tp910
a(S'p2_vo'
I2
tp911
a(S'w'
I1
tp912
a(S'p2_tl'
I29
tp913
a(S'p2_ll'
I20
tp914
a(S'w'
I725
tp915
a(S'p1_vo'
I3
tp916
a(S'w'
I4
tp917
a(S'p2_vo'
I3
tp918
a(S'w'
I732
tp919
a(S'p2_vo'
I4
tp920
a(S'w'
I734
tp921
a(S'p2_vo'
I5
tp922
a(S'w'
I743
tp923
a(S'p1_vo'
I9
tp924
a(S'w'
I1
tp925
a(S'p1_tl'
I171
tp926
a(S'p1_ll'
I20
tp927
a(S'p1_th'
I1
tp928
a(S'w'
I4
tp929
a(S'p2_vo'
I2
tp930
a(S'w'
I1
tp931
a(S'p2_tl'
I213
tp932
a(S'p2_ll'
I20
tp933
a(S'p2_th'
I0
tp934
a(S'w'
I716
tp935
a(S'p1_vo'
I8
tp936
a(S'w'
I4
tp937
a(S'p2_vo'
I3
tp938
a(S'w'
I730
tp939
a(S'p1_vo'
I7
tp940
a(S'w'
I4
tp941
a(S'p2_vo'
I4
tp942
a(S'w'
I729
tp943
a(S'p1_vo'
I6
tp944
a(S'w'
I5
tp945
a(S'p2_vo'
I5
tp946
a(S'w'
I735
tp947
a(S'p1_vo'
I5
tp948
a(S'w'
I4
tp949
a(S'p2_vo'
I2
tp950
a(S'w'
I2
tp951
a(S'p2_tl'
I179
tp952
a(S'p2_ll'
I20
tp953
a(S'w'
I724
tp954
a(S'p2_vo'
I3
tp955
a(S'w'
I732
tp956
a(S'p1_vo'
I4
tp957
a(S'w'
I4
tp958
a(S'p2_vo'
I4
tp959
a(S'w'
I732
tp960
a(S'p2_vo'
I5
tp961
a(S'w'
I740
tp962
a(S'p2_vo'
I2
tp963
a(S'w'
I1
tp964
a(S'p2_tl'
I142
tp965
a(S'p2_ll'
I20
tp966
a(S'w'
I724
tp967
a(S'p1_vo'
I3
tp968
a(S'w'
I5
tp969
a(S'p2_vo'
I3
tp970
a(S'w'
I731
tp971
a(S'p2_vo'
I4
tp972
a(S'w'
I734
tp973
a(S'p2_vo'
I5
tp974
a(S'w'
I747
tp975
a(S'p1_vo'
I8
tp976
a(S'w'
I1
tp977
a(S'p1_tl'
I249
tp978
a(S'p1_ll'
I20
tp979
a(S'p1_th'
I2
tp980
a(S'w'
I4
tp981
a(S'p2_vo'
I1
tp982
a(S'w'
I1
tp983
a(S'p2_tl'
I124
tp984
a(S'w'
I1
tp985
a(S'p2_ll'
I20
tp986
a(S'p2_th'
I1
tp987
a(S'w'
I711
tp988
a(S'p1_vo'
I7
tp989
a(S'w'
I5
tp990
a(S'p2_vo'
I2
tp991
a(S'w'
I729
tp992
a(S'p1_vo'
I6
tp993
a(S'w'
I5
tp994
a(S'p2_vo'
I3
tp995
a(S'w'
I729
tp996
a(S'p1_vo'
I5
tp997
a(S'w'
I4
tp998
a(S'p2_vo'
I4
tp999
a(S'w'
I736
tp1000
a(S'p1_vo'
I4
tp1001
a(S'w'
I4
tp1002
a(S'p2_vo'
I1
tp1003
a(S'w'
I1
tp1004
a(S'p2_tl'
I64
tp1005
a(S'p2_ll'
I20
tp1006
a(S'w'
I725
tp1007
a(S'p2_vo'
I2
tp1008
a(S'w'
I731
tp1009
a(S'p1_vo'
I3
tp1010
a(S'w'
I5
tp1011
a(S'p2_vo'
I3
tp1012
a(S'w'
I732
tp1013
a(S'p2_vo'
I4
tp1014
a(S'w'
I739
tp1015
a(S'p2_vo'
I1
tp1016
a(S'w'
I1
tp1017
a(S'p2_tl'
I13
tp1018
a(S'w'
I1
tp1019
a(S'p2_ll'
I20
tp1020
a(S'w'
I724
tp1021
a(S'p1_vo'
I2
tp1022
a(S'w'
I4
tp1023
a(S'p2_vo'
I2
tp1024
a(S'w'
I732
tp1025
a(S'p2_vo'
I3
tp1026
a(S'w'
I734
tp1027
a(S'p2_vo'
I4
tp1028
a(S'w'
I743
tp1029
a(S'p1_vo'
I8
tp1030
a(S'w'
I1
tp1031
a(S'p1_tl'
I124
tp1032
a(S'p1_ll'
I20
tp1033
a(S'p1_th'
I1
tp1034
a(S'w'
I4
tp1035
a(S'p2_vo'
I1
tp1036
a(S'w'
I1
tp1037
a(S'p2_tl'
I190
tp1038
a(S'w'
I1
tp1039
a(S'p2_ll'
I20
tp1040
a(S'p2_th'
I0
tp1041
a(S'w'
I715
tp1042
a(S'p1_vo'
I7
tp1043
a(S'w'
I4
tp1044
a(S'p2_vo'
I2
tp1045
a(S'w'
I730
tp1046
a(S'p1_vo'
I6
tp1047
a(S'w'
I4
tp1048
a(S'p2_vo'
I3
tp1049
a(S'w'
I730
tp1050
a(S'p1_vo'
I5
tp1051
a(S'w'
I4
tp1052
a(S'p2_vo'
I4
tp1053
a(S'w'
I735
tp1054
a(S'p1_vo'
I4
tp1055
a(S'w'
I5
tp1056
a(S'p2_vo'
I1
tp1057
a(S'w'
I1
tp1058
a(S'p2_tl'
I160
tp1059
a(S'p2_ll'
I20
tp1060
a(S'w'
I725
tp1061
a(S'p2_vo'
I2
tp1062
a(S'w'
I731
tp1063
a(S'p1_vo'
I3
tp1064
a(S'w'
I4
tp1065
a(S'p2_vo'
I3
tp1066
a(S'w'
I732
tp1067
a(S'p2_vo'
I4
tp1068
a(S'w'
I740
tp1069
a(S'p2_vo'
I1
tp1070
a(S'w'
I1
tp1071
a(S'p2_tl'
I134
tp1072
a(S'w'
I1
tp1073
a(S'p2_ll'
I20
tp1074
a(S'w'
I723
tp1075
a(S'p1_vo'
I2
tp1076
a(S'w'
I5
tp1077
a(S'p2_vo'
I2
tp1078
a(S'w'
I732
tp1079
a(S'p2_vo'
I3
tp1080
a(S'w'
I734
tp1081
a(S'p2_vo'
I4
tp1082
a(S'w'
I735
tp1083
a(S'p1_du'
I0
tp1084
a(S'p1_vo'
I0
tp1085
a(S'w'
I4
tp1086
a(S'p2_du'
I0
tp1087
a(S'p2_vo'
I0
tp1088
a(S'w'
I1
tp1089
a.