(lp1
(S'clock'
p2
I1789773
tp3
a(S'p1_lh'
I1
tp4
a(S'p1_cv'
I1
tp5
a(S'p1_sp'
I7
tp6
a(S'p1_sn'
I1
tp7
a(S'p1_ss'
I7
tp8
a(S'p2_lh'
I1
tp9
a(S'p2_cv'
I1
tp10
a(S'p2_sp'
I7
tp11
a(S'p2_sn'
I1
tp12
a(S'p2_ss'
I7
tp13
a(S'w'
I16
tp14
a(S'p1_du'
I1
tp15
a(S'w'
I21
tp16
a(S'p2_du'
I1
tp17
a(S'w'
I9
tp18
a(S'tr_lr'
I12
tp19
a(S'w'
I4
tp20
a(S'tr_ll'
I1
tp21
a(S'tr_th'
I1
tp22
a(S'w'
I1
tp23
a(S'tr_tl'
I83
tp24
a(S'w'
I4360
tp25
a(S'p2_vo'
I7
tp26
a(S'w'
I6
tp27
a(S'p2_ll'
I1
tp28
a(S'w'
I1
tp29
a(S'p2_tl'
I114
tp30
a(S'w'
I721
tp31
a(S'p2_vo'
I6
tp32
a(S'w'
I732
tp33
a(S'p2_vo'
I5
tp34
a(S'w'
I736
tp35
a(S'p1_vo'
I7
tp36
a(S'w'
I5
tp37
a(S'p1_ll'
I1
tp38
a(S'w'
I1
tp39
a(S'p1_tl'
I226
tp40
a(S'w'
I7
tp41
a(S'p2_vo'
I4
tp42
a(S'w'
I715
tp43
a(S'p1_vo'
I6
tp44
a(S'w'
I6
tp45
a(S'p2_vo'
I3
tp46
a(S'w'
I726
tp47
a(S'p1_vo'
I5
tp48
a(S'w'
I733
tp49
a(S'p1_vo'
I4
tp50
a(S'w'
I11
tp51
a(S'p2_vo'
I7
tp52
a(S'w'
I6
tp53
a(S'p2_tl'
I128
tp54
a(S'w'
I9
tp55
a(S'tr_ll'
I1
tp56
a(S'w'
I1
tp57
a(S'tr_tl'
I46
tp58
a(S'w'
I705
tp59
a(S'p1_vo'
I3
tp60
a(S'w'
I6
tp61
a(S'p2_vo'
I6
tp62
a(S'w'
I731
tp63
a(S'p2_vo'
I5
tp64
a(S'w'
I734
tp65
a(S'p1_vo'
I7
tp66
a(S'w'
I5
tp67
a(S'p1_tl'
I254
tp68
a(S'w'
I7
tp69
a(S'p2_vo'
I4
tp70
a(S'w'
I715
tp71
a(S'p1_vo'
I6
tp72
a(S'w'
I6
tp73
a(S'p2_vo'
I3
tp74
a(S'w'
I727
tp75
a(S'p1_vo'
I5
tp76
a(S'w'
I732
tp77
a(S'p1_vo'
I4
tp78
a(S'w'
I11
tp79
a(S'p2_vo'
I7
tp80
a(S'w'
I6
tp81
a(S'p2_tl'
I114
tp82
a(S'w'
I716
tp83
a(S'p1_vo'
I3
tp84
a(S'w'
I6
tp85
a(S'p2_vo'
I6
tp86
a(S'w'
I731
tp87
a(S'p2_vo'
I5
tp88
a(S'w'
I733
tp89
a(S'p1_vo'
I7
tp90
a(S'w'
I5
tp91
a(S'p1_tl'
I226
tp92
a(S'w'
I7
tp93
a(S'p2_vo'
I4
tp94
a(S'w'
I716
tp95
a(S'p1_vo'
I6
tp96
a(S'w'
I6
tp97
a(S'p2_vo'
I3
tp98
a(S'w'
I726
tp99
a(S'p1_vo'
I5
tp100
a(S'w'
I733
tp101
a(S'p1_vo'
I4
tp102
a(S'w'
I11
tp103
a(S'p2_vo'
I7
tp104
a(S'w'
I6
tp105
a(S'p2_tl'
I143
tp106
a(S'w'
I9
tp107
a(S'tr_ll'
I1
tp108
a(S'w'
I1
tp109
a(S'tr_tl'
I29
tp110
a(S'w'
I706
tp111
a(S'p1_vo'
I3
tp112
a(S'w'
I6
tp113
a(S'p2_vo'
I6
tp114
a(S'w'
I730
tp115
a(S'p2_vo'
I5
tp116
a(S'w'
I734
tp117
a(S'p1_vo'
I7
tp118
a(S'w'
I5
tp119
a(S'p1_ll'
I1
tp120
a(S'p1_th'
I1
tp121
a(S'w'
I1
tp122
a(S'p1_tl'
I29
tp123
a(S'w'
I7
tp124
a(S'p2_vo'
I4
tp125
a(S'w'
I714
tp126
a(S'p1_vo'
I6
tp127
a(S'w'
I6
tp128
a(S'p2_vo'
I3
tp129
a(S'w'
I727
tp130
a(S'p1_vo'
I5
tp131
a(S'w'
I733
tp132
a(S'p1_vo'
I4
tp133
a(S'w'
I11
tp134
a(S'p2_vo'
I7
tp135
a(S'w'
I6
tp136
a(S'p2_tl'
I114
tp137
a(S'w'
I715
tp138
a(S'p1_vo'
I3
tp139
a(S'w'
I6
tp140
a(S'p2_vo'
I6
tp141
a(S'w'
I731
tp142
a(S'p2_vo'
I5
tp143
a(S'w'
I733
tp144
a(S'p1_vo'
I7
tp145
a(S'w'
I5
tp146
a(S'p1_ll'
I1
tp147
a(S'p1_th'
I0
tp148
a(S'w'
I1
tp149
a(S'p1_tl'
I226
tp150
a(S'w'
I7
tp151
a(S'p2_vo'
I4
tp152
a(S'w'
I715
tp153
a(S'p1_vo'
I6
tp154
a(S'w'
I6
tp155
a(S'p2_vo'
I3
tp156
a(S'w'
I727
tp157
a(S'p1_vo'
I5
tp158
a(S'w'
I732
tp159
a(S'p1_vo'
I4
tp160
a(S'w'
I11
tp161
a(S'p2_vo'
I7
tp162
a(S'w'
I6
tp163
a(S'p2_tl'
I152
tp164
a(S'w'
I9
tp165
a(S'tr_ll'
I1
tp166
a(S'tr_th'
I0
tp167
a(S'w'
I1
tp168
a(S'tr_tl'
I254
tp169
a(S'w'
I706
tp170
a(S'p1_vo'
I3
tp171
a(S'w'
I6
tp172
a(S'p2_vo'
I6
tp173
a(S'w'
I730
tp174
a(S'p2_vo'
I5
tp175
a(S'w'
I734
tp176
a(S'p1_vo'
I7
tp177
a(S'w'
I5
tp178
a(S'p1_ll'
I1
tp179
a(S'p1_th'
I1
tp180
a(S'w'
I1
tp181
a(S'p1_tl'
I46
tp182
a(S'w'
I7
tp183
a(S'p2_vo'
I4
tp184
a(S'w'
I715
tp185
a(S'p1_vo'
I6
tp186
a(S'w'
I6
tp187
a(S'p2_vo'
I3
tp188
a(S'w'
I726
tp189
a(S'p1_vo'
I5
tp190
a(S'w'
I733
tp191
a(S'p1_vo'
I4
tp192
a(S'w'
I11
tp193
a(S'p2_vo'
I7
tp194
a(S'w'
I6
tp195
a(S'p2_tl'
I114
tp196
a(S'w'
I715
tp197
a(S'p1_vo'
I3
tp198
a(S'w'
I6
tp199
a(S'p2_vo'
I6
tp200
a(S'w'
I731
tp201
a(S'p2_vo'
I5
tp202
a(S'w'
I734
tp203
a(S'p1_vo'
I7
tp204
a(S'w'
I5
tp205
a(S'p1_ll'
I1
tp206
a(S'p1_th'
I0
tp207
a(S'w'
I1
tp208
a(S'p1_tl'
I226
tp209
a(S'w'
I7
tp210
a(S'p2_vo'
I4
tp211
a(S'w'
I714
tp212
a(S'p1_vo'
I6
tp213
a(S'w'
I6
tp214
a(S'p2_vo'
I3
tp215
a(S'w'
I727
tp216
a(S'p1_vo'
I5
tp217
a(S'w'
I732
tp218
a(S'p1_vo'
I4
tp219
a(S'w'
I11
tp220
a(S'p2_vo'
I7
tp221
a(S'w'
I6
tp222
a(S'p2_tl'
I170
tp223
a(S'w'
I9
tp224
a(S'tr_ll'
I1
tp225
a(S'w'
I1
tp226
a(S'tr_tl'
I226
tp227
a(S'w'
I706
tp228
a(S'p1_vo'
I3
tp229
a(S'w'
I6
tp230
a(S'p2_vo'
I6
tp231
a(S'w'
I731
tp232
a(S'p2_vo'
I5
tp233
a(S'w'
I733
tp234
a(S'p1_vo'
I7
tp235
a(S'w'
I5
tp236
a(S'p1_ll'
I1
tp237
a(S'p1_th'
I1
tp238
a(S'w'
I1
tp239
a(S'p1_tl'
I83
tp240
a(S'w'
I7
tp241
a(S'p2_vo'
I4
tp242
a(S'w'
I715
tp243
a(S'p1_vo'
I6
tp244
a(S'w'
I6
tp245
a(S'p2_vo'
I3
tp246
a(S'w'
I726
tp247
a(S'p1_vo'
I5
tp248
a(S'w'
I733
tp249
a(S'p1_vo'
I4
tp250
a(S'w'
I11
tp251
a(S'p2_vo'
I7
tp252
a(S'w'
I6
tp253
a(S'p2_tl'
I114
tp254
a(S'w'
I716
tp255
a(S'p1_vo'
I3
tp256
a(S'w'
I6
tp257
a(S'p2_vo'
I6
tp258
a(S'w'
I730
tp259
a(S'p2_vo'
I5
tp260
a(S'w'
I734
tp261
a(S'p1_vo'
I7
tp262
a(S'w'
I5
tp263
a(S'p1_ll'
I1
tp264
a(S'p1_th'
I0
tp265
a(S'w'
I1
tp266
a(S'p1_tl'
I226
tp267
a(S'w'
I7
tp268
a(S'p2_vo'
I4
tp269
a(S'w'
I714
tp270
a(S'p1_vo'
I6
tp271
a(S'w'
I6
tp272
a(S'p2_vo'
I3
tp273
a(S'w'
I727
tp274
a(S'p1_vo'
I5
tp275
a(S'w'
I733
tp276
a(S'p1_vo'
I4
tp277
a(S'w'
I11
tp278
a(S'p2_vo'
I7
tp279
a(S'w'
I6
tp280
a(S'p2_tl'
I180
tp281
a(S'w'
I9
tp282
a(S'tr_ll'
I1
tp283
a(S'w'
I1
tp284
a(S'tr_tl'
I254
tp285
a(S'w'
I705
tp286
a(S'p1_vo'
I3
tp287
a(S'w'
I6
tp288
a(S'p2_vo'
I6
tp289
a(S'w'
I731
tp290
a(S'p2_vo'
I5
tp291
a(S'w'
I733
tp292
a(S'p1_vo'
I7
tp293
a(S'w'
I5
tp294
a(S'p1_ll'
I1
tp295
a(S'p1_th'
I1
tp296
a(S'w'
I1
tp297
a(S'p1_tl'
I103
tp298
a(S'w'
I7
tp299
a(S'p2_vo'
I4
tp300
a(S'w'
I715
tp301
a(S'p1_vo'
I6
tp302
a(S'w'
I6
tp303
a(S'p2_vo'
I3
tp304
a(S'w'
I727
tp305
a(S'p1_vo'
I5
tp306
a(S'w'
I732
tp307
a(S'p1_vo'
I4
tp308
a(S'w'
I11
tp309
a(S'p2_vo'
I7
tp310
a(S'w'
I6
tp311
a(S'p2_tl'
I114
tp312
a(S'w'
I716
tp313
a(S'p1_vo'
I3
tp314
a(S'w'
I6
tp315
a(S'p2_vo'
I6
tp316
a(S'w'
I731
tp317
a(S'p2_vo'
I5
tp318
a(S'w'
I733
tp319
a(S'p1_vo'
I7
tp320
a(S'w'
I5
tp321
a(S'p1_ll'
I1
tp322
a(S'p1_th'
I0
tp323
a(S'w'
I1
tp324
a(S'p1_tl'
I226
tp325
a(S'w'
I7
tp326
a(S'p2_vo'
I4
tp327
a(S'w'
I715
tp328
a(S'p1_vo'
I6
tp329
a(S'w'
I6
tp330
a(S'p2_vo'
I3
tp331
a(S'w'
I726
tp332
a(S'p1_vo'
I5
tp333
a(S'w'
I733
tp334
a(S'p1_vo'
I4
tp335
a(S'w'
I11
tp336
a(S'p2_vo'
I7
tp337
a(S'w'
I6
tp338
a(S'p2_tl'
I170
tp339
a(S'w'
I9
tp340
a(S'tr_ll'
I1
tp341
a(S'tr_th'
I1
tp342
a(S'w'
I1
tp343
a(S'tr_tl'
I29
tp344
a(S'w'
I706
tp345
a(S'p1_vo'
I3
tp346
a(S'w'
I6
tp347
a(S'p2_vo'
I6
tp348
a(S'w'
I730
tp349
a(S'p2_vo'
I5
tp350
a(S'w'
I734
tp351
a(S'p1_vo'
I7
tp352
a(S'w'
I5
tp353
a(S'p1_ll'
I1
tp354
a(S'p1_th'
I1
tp355
a(S'w'
I1
tp356
a(S'p1_tl'
I83
tp357
a(S'w'
I7
tp358
a(S'p2_vo'
I4
tp359
a(S'w'
I714
tp360
a(S'p1_vo'
I6
tp361
a(S'w'
I6
tp362
a(S'p2_vo'
I3
tp363
a(S'w'
I727
tp364
a(S'p1_vo'
I5
tp365
a(S'w'
I733
tp366
a(S'p1_vo'
I4
tp367
a(S'w'
I11
tp368
a(S'p2_vo'
I7
tp369
a(S'w'
I6
tp370
a(S'p2_tl'
I114
tp371
a(S'w'
I715
tp372
a(S'p1_vo'
I3
tp373
a(S'w'
I6
tp374
a(S'p2_vo'
I6
tp375
a(S'w'
I731
tp376
a(S'p2_vo'
I5
tp377
a(S'w'
I733
tp378
a(S'p1_vo'
I7
tp379
a(S'w'
I5
tp380
a(S'p1_ll'
I1
tp381
a(S'p1_th'
I0
tp382
a(S'w'
I1
tp383
a(S'p1_tl'
I226
tp384
a(S'w'
I7
tp385
a(S'p2_vo'
I4
tp386
a(S'w'
I715
tp387
a(S'p1_vo'
I6
tp388
a(S'w'
I6
tp389
a(S'p2_vo'
I3
tp390
a(S'w'
I727
tp391
a(S'p1_vo'
I5
tp392
a(S'w'
I732
tp393
a(S'p1_vo'
I4
tp394
a(S'w'
I11
tp395
a(S'p2_vo'
I7
tp396
a(S'w'
I6
tp397
a(S'p2_tl'
I152
tp398
a(S'w'
I9
tp399
a(S'tr_ll'
I1
tp400
a(S'w'
I1
tp401
a(S'tr_tl'
I46
tp402
a(S'w'
I706
tp403
a(S'p1_vo'
I3
tp404
a(S'w'
I6
tp405
a(S'p2_vo'
I6
tp406
a(S'w'
I730
tp407
a(S'p2_vo'
I5
tp408
a(S'w'
I734
tp409
a(S'p1_vo'
I7
tp410
a(S'w'
I5
tp411
a(S'p1_ll'
I1
tp412
a(S'p1_th'
I1
tp413
a(S'w'
I1
tp414
a(S'p1_tl'
I46
tp415
a(S'w'
I7
tp416
a(S'p2_vo'
I4
tp417
a(S'w'
I715
tp418
a(S'p1_vo'
I6
tp419
a(S'w'
I6
tp420
a(S'p2_vo'
I3
tp421
a(S'w'
I726
tp422
a(S'p1_vo'
I5
tp423
a(S'w'
I733
tp424
a(S'p1_vo'
I4
tp425
a(S'w'
I11
tp426
a(S'p2_vo'
I7
tp427
a(S'w'
I6
tp428
a(S'p2_tl'
I114
tp429
a(S'w'
I715
tp430
a(S'p1_vo'
I3
tp431
a(S'w'
I6
tp432
a(S'p2_vo'
I6
tp433
a(S'w'
I731
tp434
a(S'p2_vo'
I5
tp435
a(S'w'
I734
tp436
a(S'p1_vo'
I7
tp437
a(S'w'
I5
tp438
a(S'p1_ll'
I1
tp439
a(S'p1_th'
I0
tp440
a(S'w'
I1
tp441
a(S'p1_tl'
I226
tp442
a(S'w'
I7
tp443
a(S'p2_vo'
I4
tp444
a(S'w'
I714
tp445
a(S'p1_vo'
I6
tp446
a(S'w'
I6
tp447
a(S'p2_vo'
I3
tp448
a(S'w'
I727
tp449
a(S'p1_vo'
I5
tp450
a(S'w'
I732
tp451
a(S'p1_vo'
I4
tp452
a(S'w'
I12
tp453
a(S'p2_vo'
I7
tp454
a(S'w'
I6
tp455
a(S'p2_tl'
I170
tp456
a(S'w'
I9
tp457
a(S'tr_lh'
I1
tp458
a(S'tr_lr'
I16
tp459
a(S'w'
I4
tp460
a(S'tr_ll'
I1
tp461
a(S'w'
I1
tp462
a(S'tr_tl'
I83
tp463
a(S'w'
I701
tp464
a(S'p1_vo'
I3
tp465
a(S'w'
I6
tp466
a(S'p2_vo'
I6
tp467
a(S'w'
I731
tp468
a(S'p2_vo'
I5
tp469
a(S'w'
I734
tp470
a(S'p1_vo'
I7
tp471
a(S'w'
I4
tp472
a(S'p1_ll'
I1
tp473
a(S'p1_th'
I1
tp474
a(S'w'
I2
tp475
a(S'p1_tl'
I83
tp476
a(S'w'
I7
tp477
a(S'p2_vo'
I4
tp478
a(S'w'
I714
tp479
a(S'p1_vo'
I6
tp480
a(S'w'
I6
tp481
a(S'p2_vo'
I3
tp482
a(S'w'
I726
tp483
a(S'p1_vo'
I5
tp484
a(S'w'
I733
tp485
a(S'p1_vo'
I4
tp486
a(S'w'
I733
tp487
a(S'p1_vo'
I3
tp488
a(S'w'
I2932
tp489
a(S'p2_vo'
I2
tp490
a(S'w'
I742
tp491
a(S'p2_vo'
I7
tp492
a(S'w'
I6
tp493
a(S'p2_tl'
I227
tp494
a(S'w'
I718
tp495
a(S'p2_vo'
I6
tp496
a(S'w'
I729
tp497
a(S'p1_vo'
I2
tp498
a(S'w'
I6
tp499
a(S'p2_vo'
I5
tp500
a(S'w'
I735
tp501
a(S'p1_vo'
I7
tp502
a(S'w'
I4
tp503
a(S'p1_ll'
I1
tp504
a(S'p1_th'
I0
tp505
a(S'w'
I2
tp506
a(S'p1_tl'
I226
tp507
a(S'w'
I7
tp508
a(S'p2_vo'
I4
tp509
a(S'w'
I712
tp510
a(S'p1_vo'
I6
tp511
a(S'w'
I6
tp512
a(S'p2_vo'
I3
tp513
a(S'w'
I727
tp514
a(S'p1_vo'
I5
tp515
a(S'w'
I732
tp516
a(S'p1_vo'
I4
tp517
a(S'w'
I733
tp518
a(S'p1_vo'
I3
tp519
a(S'w'
I5130
tp520
a(S'p2_vo'
I2
tp521
a(S'w'
I741
tp522
a(S'p2_vo'
I7
tp523
a(S'w'
I5
tp524
a(S'p2_tl'
I255
tp525
a(S'w'
I720
tp526
a(S'p2_vo'
I6
tp527
a(S'w'
I729
tp528
a(S'p1_vo'
I2
tp529
a(S'w'
I6
tp530
a(S'p2_vo'
I5
tp531
a(S'w'
I733
tp532
a(S'p1_vo'
I7
tp533
a(S'w'
I6
tp534
a(S'p1_tl'
I254
tp535
a(S'w'
I6
tp536
a(S'p2_vo'
I4
tp537
a(S'w'
I715
tp538
a(S'p1_vo'
I6
tp539
a(S'w'
I6
tp540
a(S'p2_vo'
I3
tp541
a(S'w'
I727
tp542
a(S'p1_vo'
I5
tp543
a(S'w'
I732
tp544
a(S'p1_vo'
I4
tp545
a(S'w'
I733
tp546
a(S'p1_vo'
I3
tp547
a(S'w'
I6595
tp548
a(S'p2_vo'
I2
tp549
a(S'w'
I733
tp550
a(S'p2_vo'
I1
tp551
a(S'w'
I741
tp552
a(S'p2_vo'
I7
tp553
a(S'w'
I6
tp554
a(S'p2_tl'
I227
tp555
a(S'w'
I715
tp556
a(S'p1_vo'
I2
tp557
a(S'w'
I6
tp558
a(S'p2_vo'
I6
tp559
a(S'w'
I727
tp560
a(S'p1_vo'
I1
tp561
a(S'w'
I6
tp562
a(S'p2_vo'
I5
tp563
a(S'w'
I734
tp564
a(S'p1_vo'
I7
tp565
a(S'w'
I5
tp566
a(S'p1_tl'
I226
tp567
a(S'w'
I7
tp568
a(S'p2_vo'
I4
tp569
a(S'w'
I714
tp570
a(S'p1_vo'
I6
tp571
a(S'w'
I6
tp572
a(S'p2_vo'
I3
tp573
a(S'w'
I727
tp574
a(S'p1_vo'
I5
tp575
a(S'w'
I732
tp576
a(S'p1_vo'
I4
tp577
a(S'w'
I733
tp578
a(S'p1_vo'
I3
tp579
a(S'w'
I8060
tp580
a(S'p2_vo'
I2
tp581
a(S'w'
I733
tp582
a(S'p2_vo'
I1
tp583
a(S'w'
I733
tp584
a(S'p2_vo'
I0
tp585
a(S'w'
I729
tp586
a(S'p1_vo'
I2
tp587
a(S'w'
I16
tp588
a(S'p2_vo'
I7
tp589
a(S'w'
I5
tp590
a(S'p2_ll'
I1
tp591
a(S'p2_th'
I1
tp592
a(S'w'
I2
tp593
a(S'p2_tl'
I84
tp594
a(S'w'
I710
tp595
a(S'p1_vo'
I1
tp596
a(S'w'
I6
tp597
a(S'p2_vo'
I6
tp598
a(S'w'
I726
tp599
a(S'p1_vo'
I0
tp600
a(S'w'
I6
tp601
a(S'p2_vo'
I5
tp602
a(S'w'
I738
tp603
a(S'p1_vo'
I7
tp604
a(S'w'
I5
tp605
a(S'p1_ll'
I1
tp606
a(S'p1_th'
I1
tp607
a(S'w'
I1
tp608
a(S'p1_tl'
I83
tp609
a(S'w'
I7
tp610
a(S'p2_vo'
I4
tp611
a(S'w'
I710
tp612
a(S'p1_vo'
I6
tp613
a(S'w'
I6
tp614
a(S'p2_vo'
I3
tp615
a(S'w'
I726
tp616
a(S'p1_vo'
I5
tp617
a(S'w'
I733
tp618
a(S'p1_vo'
I4
tp619
a(S'w'
I732
tp620
a(S'p1_vo'
I3
tp621
a(S'w'
I22713
tp622
a(S'p2_vo'
I2
tp623
a(S'w'
I733
tp624
a(S'p2_vo'
I1
tp625
a(S'w'
I732
tp626
a(S'p2_vo'
I0
tp627
a(S'w'
I730
tp628
a(S'p1_vo'
I2
tp629
a(S'w'
I732
tp630
a(S'p1_vo'
I1
tp631
a(S'w'
I7
tp632
a(S'ch_no'
I1
tp633
a(S'ch_tr'
I0
tp634
a(S'ch_p2'
I1
tp635
a(S'ch_p1'
I1
tp636
a(S'w'
I1
tp637
a(S'tr_lh'
I0
tp638
a(S'tr_lr'
I0
tp639
a(S'ch_no'
I1
tp640
a(S'ch_tr'
I1
tp641
a(S'ch_p2'
I1
tp642
a(S'ch_p1'
I1
tp643
a(S'w'
I725
tp644
a(S'p1_vo'
I0
tp645
a(S'w'
I3666
tp646
a(S'p2_du'
I0
tp647
a(S'w'
I2196
tp648
a(S'p1_du'
I0
tp649
a.