(lp1
(S'clock'
p2
I1789773
tp3
a(S'p2_lh'
I1
tp4
a(S'p2_cv'
I1
tp5
a(S'p2_sp'
I7
tp6
a(S'p2_sn'
I1
tp7
a(S'p2_ss'
I7
tp8
a(S'p1_lh'
I1
tp9
a(S'p1_cv'
I1
tp10
a(S'p1_sp'
I7
tp11
a(S'p1_sn'
I1
tp12
a(S'p1_ss'
I7
tp13
a(S'w'
I18
tp14
a(S'p1_du'
I3
tp15
a(S'p1_vo'
I6
tp16
a(S'w'
I6
tp17
a(S'p1_ll'
I1
tp18
a(S'w'
I2
tp19
a(S'p1_tl'
I143
tp20
a(S'w'
I19
tp21
a(S'p2_du'
I3
tp22
a(S'p2_vo'
I6
tp23
a(S'w'
I5
tp24
a(S'p2_ll'
I1
tp25
a(S'w'
I2
tp26
a(S'p2_tl'
I240
tp27
a(S'w'
I9
tp28
a(S'ch_no'
I1
tp29
a(S'ch_tr'
I1
tp30
a(S'ch_p2'
I1
tp31
a(S'ch_p1'
I1
tp32
a(S'w'
I1
tp33
a(S'ch_no'
I1
tp34
a(S'ch_tr'
I1
tp35
a(S'ch_p2'
I1
tp36
a(S'ch_p1'
I1
tp37
a(S'w'
I2
tp38
a(S'tr_lr'
I32
tp39
a(S'w'
I4
tp40
a(S'tr_ll'
I1
tp41
a(S'tr_th'
I2
tp42
a(S'w'
I1
tp43
a(S'tr_tl'
I59
tp44
a(S'w'
I673
tp45
a(S'p1_vo'
I5
tp46
a(S'w'
I6
tp47
a(S'p2_vo'
I5
tp48
a(S'w'
I727
tp49
a(S'p1_vo'
I4
tp50
a(S'w'
I6
tp51
a(S'p2_vo'
I4
tp52
a(S'w'
I726
tp53
a(S'p1_vo'
I3
tp54
a(S'w'
I6
tp55
a(S'p2_vo'
I3
tp56
a(S'w'
I2191
tp57
a(S'p1_vo'
I2
tp58
a(S'w'
I6
tp59
a(S'p2_vo'
I2
tp60
a(S'w'
I2193
tp61
a(S'p1_vo'
I3
tp62
a(S'w'
I7
tp63
a(S'p2_vo'
I3
tp64
a(S'w'
I2190
tp65
a(S'p1_vo'
I2
tp66
a(S'w'
I6
tp67
a(S'p2_vo'
I2
tp68
a(S'w'
I2193
tp69
a(S'p1_vo'
I3
tp70
a(S'w'
I8
tp71
a(S'p2_vo'
I3
tp72
a(S'w'
I728
tp73
a(S'p1_vo'
I6
tp74
a(S'w'
I5
tp75
a(S'p1_ll'
I1
tp76
a(S'p1_th'
I1
tp77
a(S'w'
I2
tp78
a(S'p1_tl'
I30
tp79
a(S'w'
I12
tp80
a(S'p2_vo'
I6
tp81
a(S'w'
I4
tp82
a(S'p2_ll'
I1
tp83
a(S'p2_th'
I1
tp84
a(S'w'
I2
tp85
a(S'p2_tl'
I224
tp86
a(S'w'
I6
tp87
a(S'ch_no'
I1
tp88
a(S'ch_tr'
I1
tp89
a(S'ch_p2'
I1
tp90
a(S'ch_p1'
I1
tp91
a(S'ch_no'
I1
tp92
a(S'ch_tr'
I1
tp93
a(S'ch_p2'
I1
tp94
a(S'ch_p1'
I1
tp95
a(S'w'
I6
tp96
a(S'tr_ll'
I1
tp97
a(S'w'
I692
tp98
a(S'p1_vo'
I5
tp99
a(S'w'
I6
tp100
a(S'p2_vo'
I5
tp101
a(S'w'
I726
tp102
a(S'p1_vo'
I4
tp103
a(S'w'
I6
tp104
a(S'p2_vo'
I4
tp105
a(S'w'
I727
tp106
a(S'p1_vo'
I3
tp107
a(S'w'
I6
tp108
a(S'p2_vo'
I3
tp109
a(S'w'
I2191
tp110
a(S'p1_vo'
I2
tp111
a(S'w'
I6
tp112
a(S'p2_vo'
I2
tp113
a(S'w'
I1468
tp114
a(S'p1_vo'
I6
tp115
a(S'w'
I5
tp116
a(S'p1_ll'
I1
tp117
a(S'p1_th'
I0
tp118
a(S'w'
I2
tp119
a(S'p1_tl'
I161
tp120
a(S'w'
I15
tp121
a(S'p2_vo'
I6
tp122
a(S'w'
I5
tp123
a(S'p2_ll'
I1
tp124
a(S'p2_th'
I0
tp125
a(S'w'
I2
tp126
a(S'p2_tl'
I213
tp127
a(S'w'
I695
tp128
a(S'p1_vo'
I5
tp129
a(S'w'
I6
tp130
a(S'p2_vo'
I5
tp131
a(S'w'
I726
tp132
a(S'p1_vo'
I4
tp133
a(S'w'
I6
tp134
a(S'p2_vo'
I4
tp135
a(S'w'
I727
tp136
a(S'p1_vo'
I3
tp137
a(S'w'
I6
tp138
a(S'p2_vo'
I3
tp139
a(S'w'
I2192
tp140
a(S'p1_vo'
I2
tp141
a(S'w'
I6
tp142
a(S'p2_vo'
I2
tp143
a(S'w'
I1479
tp144
a(S'no_lh'
I1
tp145
a(S'no_cv'
I1
tp146
a(S'w'
I1
tp147
a(S'w'
I3
tp148
a(S'tr_lr'
I22
tp149
a(S'w'
I4
tp150
a(S'tr_ll'
I1
tp151
a(S'tr_th'
I1
tp152
a(S'w'
I1
tp153
a(S'tr_tl'
I29
tp154
a(S'w'
I7
tp155
a(S'no_vo'
I14
tp156
a(S'w'
I2
tp157
a(S'no_ll'
I1
tp158
a(S'w'
I2
tp159
a(S'no_np'
I6
tp160
a(S'w'
I693
tp161
a(S'p1_vo'
I3
tp162
a(S'w'
I7
tp163
a(S'p2_vo'
I3
tp164
a(S'w'
I8
tp165
a(S'no_vo'
I9
tp166
a(S'w'
I2
tp167
a(S'no_ll'
I1
tp168
a(S'w'
I1
tp169
a(S'no_np'
I5
tp170
a(S'w'
I727
tp171
a(S'no_vo'
I6
tp172
a(S'w'
I2
tp173
a(S'no_ll'
I1
tp174
a(S'w'
I2
tp175
a(S'no_np'
I7
tp176
a(S'w'
I729
tp177
a(S'no_vo'
I0
tp178
a(S'w'
I719
tp179
a(S'p1_vo'
I2
tp180
a(S'w'
I6
tp181
a(S'p2_vo'
I2
tp182
a(S'w'
I2193
tp183
a(S'p1_vo'
I3
tp184
a(S'w'
I7
tp185
a(S'p2_vo'
I3
tp186
a(S'w'
I2190
tp187
a(S'p1_vo'
I2
tp188
a(S'w'
I6
tp189
a(S'p2_vo'
I2
tp190
a(S'w'
I2193
tp191
a(S'p1_vo'
I3
tp192
a(S'w'
I7
tp193
a(S'p2_vo'
I3
tp194
a(S'w'
I2189
tp195
a(S'p1_vo'
I2
tp196
a(S'w'
I6
tp197
a(S'p2_vo'
I2
tp198
a(S'w'
I7
tp199
a(S'ch_no'
I1
tp200
a(S'ch_tr'
I1
tp201
a(S'ch_p2'
I1
tp202
a(S'ch_p1'
I1
tp203
a(S'ch_no'
I1
tp204
a(S'ch_tr'
I1
tp205
a(S'ch_p2'
I1
tp206
a(S'ch_p1'
I1
tp207
a(S'w'
I6
tp208
a(S'tr_ll'
I1
tp209
a(S'tr_th'
I2
tp210
a(S'w'
I1
tp211
a(S'tr_tl'
I59
tp212
a(S'w'
I2180
tp213
a(S'p1_vo'
I3
tp214
a(S'w'
I7
tp215
a(S'p2_vo'
I3
tp216
a(S'w'
I2189
tp217
a(S'p1_vo'
I2
tp218
a(S'w'
I6
tp219
a(S'p2_vo'
I2
tp220
a(S'w'
I2193
tp221
a(S'p1_vo'
I3
tp222
a(S'w'
I7
tp223
a(S'p2_vo'
I3
tp224
a(S'w'
I2190
tp225
a(S'p1_vo'
I2
tp226
a(S'w'
I6
tp227
a(S'p2_vo'
I2
tp228
a(S'w'
I2192
tp229
a(S'p1_vo'
I3
tp230
a(S'w'
I7
tp231
a(S'p2_vo'
I3
tp232
a(S'w'
I736
tp233
a(S'ch_no'
I1
tp234
a(S'ch_tr'
I1
tp235
a(S'ch_p2'
I1
tp236
a(S'ch_p1'
I1
tp237
a(S'w'
I1
tp238
a(S'ch_no'
I1
tp239
a(S'ch_tr'
I1
tp240
a(S'ch_p2'
I1
tp241
a(S'ch_p1'
I1
tp242
a(S'w'
I5
tp243
a(S'tr_ll'
I1
tp244
a(S'w'
I1449
tp245
a(S'p1_vo'
I2
tp246
a(S'w'
I6
tp247
a(S'p2_vo'
I2
tp248
a(S'w'
I2192
tp249
a(S'p1_vo'
I3
tp250
a(S'w'
I7
tp251
a(S'p2_vo'
I3
tp252
a(S'w'
I2190
tp253
a(S'p1_vo'
I2
tp254
a(S'w'
I6
tp255
a(S'p2_vo'
I2
tp256
a(S'w'
I6
tp257
a(S'tr_lr'
I32
tp258
a(S'w'
I3
tp259
a(S'tr_ll'
I1
tp260
a(S'tr_th'
I1
tp261
a(S'w'
I1
tp262
a(S'tr_tl'
I224
tp263
a(S'w'
I2183
tp264
a(S'p1_vo'
I3
tp265
a(S'w'
I7
tp266
a(S'p2_vo'
I3
tp267
a(S'w'
I2190
tp268
a(S'p1_vo'
I2
tp269
a(S'w'
I6
tp270
a(S'p2_vo'
I2
tp271
a(S'w'
I1483
tp272
a(S'tr_ll'
I1
tp273
a(S'w'
I8
tp274
a(S'no_vo'
I12
tp275
a(S'w'
I2
tp276
a(S'no_ll'
I1
tp277
a(S'w'
I1
tp278
a(S'no_np'
I2
tp279
a(S'w'
I698
tp280
a(S'p1_vo'
I3
tp281
a(S'w'
I7
tp282
a(S'p2_vo'
I3
tp283
a(S'w'
I8
tp284
a(S'no_vo'
I0
tp285
a(S'w'
I2182
tp286
a(S'p1_vo'
I2
tp287
a(S'w'
I6
tp288
a(S'p2_vo'
I2
tp289
a(S'w'
I2193
tp290
a(S'p1_vo'
I3
tp291
a(S'w'
I7
tp292
a(S'p2_vo'
I3
tp293
a(S'w'
I747
tp294
a(S'tr_lr'
I22
tp295
a(S'w'
I4
tp296
a(S'tr_ll'
I1
tp297
a(S'w'
I1
tp298
a(S'tr_tl'
I252
tp299
a(S'w'
I7
tp300
a(S'no_vo'
I14
tp301
a(S'w'
I2
tp302
a(S'no_ll'
I1
tp303
a(S'w'
I1
tp304
a(S'no_np'
I6
tp305
a(S'w'
I708
tp306
a(S'no_vo'
I9
tp307
a(S'w'
I2
tp308
a(S'no_ll'
I1
tp309
a(S'w'
I2
tp310
a(S'no_np'
I5
tp311
a(S'w'
I716
tp312
a(S'p1_vo'
I2
tp313
a(S'w'
I6
tp314
a(S'p2_vo'
I2
tp315
a(S'w'
I7
tp316
a(S'no_vo'
I6
tp317
a(S'w'
I2
tp318
a(S'no_ll'
I1
tp319
a(S'w'
I2
tp320
a(S'no_np'
I7
tp321
a(S'w'
I728
tp322
a(S'no_vo'
I0
tp323
a(S'w'
I1454
tp324
a(S'p1_vo'
I3
tp325
a(S'w'
I7
tp326
a(S'p2_vo'
I3
tp327
a(S'w'
I2189
tp328
a(S'p1_vo'
I2
tp329
a(S'w'
I6
tp330
a(S'p2_vo'
I2
tp331
a(S'w'
I18
tp332
a(S'tr_ll'
I1
tp333
a(S'w'
I1
tp334
a(S'tr_tl'
I224
tp335
a(S'w'
I7
tp336
a(S'no_vo'
I12
tp337
a(S'w'
I2
tp338
a(S'no_ll'
I1
tp339
a(S'w'
I1
tp340
a(S'no_np'
I2
tp341
a(S'w'
I711
tp342
a(S'no_vo'
I0
tp343
a(S'w'
I1453
tp344
a(S'p1_vo'
I3
tp345
a(S'w'
I7
tp346
a(S'p2_vo'
I3
tp347
a(S'w'
I2190
tp348
a(S'p1_vo'
I2
tp349
a(S'w'
I6
tp350
a(S'p2_vo'
I2
tp351
a(S'w'
I1472
tp352
a(S'tr_ll'
I1
tp353
a(S'w'
I1
tp354
a(S'tr_tl'
I197
tp355
a(S'w'
I720
tp356
a(S'p1_vo'
I3
tp357
a(S'w'
I8
tp358
a(S'p2_vo'
I3
tp359
a(S'w'
I722
tp360
a(S'p1_vo'
I2
tp361
a(S'w'
I5
tp362
a(S'p2_vo'
I2
tp363
a(S'w'
I728
tp364
a(S'p1_vo'
I1
tp365
a(S'w'
I5
tp366
a(S'p2_vo'
I1
tp367
a(S'w'
I728
tp368
a(S'p1_vo'
I0
tp369
a(S'w'
I5
tp370
a(S'p2_vo'
I0
tp371
a(S'w'
I2929
tp372
a(S'p1_vo'
I6
tp373
a(S'w'
I6
tp374
a(S'p1_tl'
I170
tp375
a(S'w'
I11
tp376
a(S'p2_vo'
I6
tp377
a(S'w'
I6
tp378
a(S'w'
I10
tp379
a(S'tr_ll'
I1
tp380
a(S'w'
I1
tp381
a(S'tr_tl'
I125
tp382
a(S'w'
I696
tp383
a(S'p1_vo'
I5
tp384
a(S'w'
I6
tp385
a(S'p2_vo'
I5
tp386
a(S'w'
I726
tp387
a(S'p1_vo'
I4
tp388
a(S'w'
I6
tp389
a(S'p2_vo'
I4
tp390
a(S'w'
I727
tp391
a(S'p1_vo'
I3
tp392
a(S'w'
I6
tp393
a(S'p2_vo'
I3
tp394
a(S'w'
I2192
tp395
a(S'p1_vo'
I2
tp396
a(S'w'
I6
tp397
a(S'p2_vo'
I2
tp398
a(S'w'
I1462
tp399
a(S'p1_vo'
I6
tp400
a(S'w'
I6
tp401
a(S'p1_tl'
I161
tp402
a(S'w'
I11
tp403
a(S'p2_vo'
I6
tp404
a(S'w'
I6
tp405
a(S'p2_tl'
I190
tp406
a(S'w'
I706
tp407
a(S'p1_vo'
I5
tp408
a(S'w'
I6
tp409
a(S'p2_vo'
I5
tp410
a(S'w'
I727
tp411
a(S'p1_vo'
I4
tp412
a(S'w'
I6
tp413
a(S'p2_vo'
I4
tp414
a(S'w'
I727
tp415
a(S'p1_vo'
I3
tp416
a(S'w'
I6
tp417
a(S'p2_vo'
I3
tp418
a(S'w'
I2191
tp419
a(S'p1_vo'
I2
tp420
a(S'w'
I6
tp421
a(S'p2_vo'
I2
tp422
a(S'w'
I1464
tp423
a(S'p1_vo'
I6
tp424
a(S'w'
I6
tp425
a(S'p1_tl'
I170
tp426
a(S'w'
I11
tp427
a(S'p2_vo'
I6
tp428
a(S'w'
I6
tp429
a(S'p2_tl'
I213
tp430
a(S'w'
I8
tp431
a(S'ch_no'
I1
tp432
a(S'ch_tr'
I1
tp433
a(S'ch_p2'
I1
tp434
a(S'ch_p1'
I1
tp435
a(S'ch_no'
I1
tp436
a(S'ch_tr'
I1
tp437
a(S'ch_p2'
I1
tp438
a(S'ch_p1'
I1
tp439
a(S'w'
I6
tp440
a(S'tr_ll'
I1
tp441
a(S'tr_th'
I2
tp442
a(S'w'
I1
tp443
a(S'tr_tl'
I59
tp444
a(S'w'
I691
tp445
a(S'p1_vo'
I5
tp446
a(S'w'
I6
tp447
a(S'p2_vo'
I5
tp448
a(S'w'
I727
tp449
a(S'p1_vo'
I4
tp450
a(S'w'
I6
tp451
a(S'p2_vo'
I4
tp452
a(S'w'
I726
tp453
a(S'p1_vo'
I3
tp454
a(S'w'
I6
tp455
a(S'p2_vo'
I3
tp456
a(S'w'
I2191
tp457
a(S'p1_vo'
I2
tp458
a(S'w'
I6
tp459
a(S'p2_vo'
I2
tp460
a(S'w'
I2193
tp461
a(S'p1_vo'
I3
tp462
a(S'w'
I7
tp463
a(S'p2_vo'
I3
tp464
a(S'w'
I2190
tp465
a(S'p1_vo'
I2
tp466
a(S'w'
I6
tp467
a(S'p2_vo'
I2
tp468
a(S'w'
I2193
tp469
a(S'p1_vo'
I3
tp470
a(S'w'
I7
tp471
a(S'p2_vo'
I3
tp472
a(S'w'
I735
tp473
a(S'ch_no'
I1
tp474
a(S'ch_tr'
I1
tp475
a(S'ch_p2'
I1
tp476
a(S'ch_p1'
I1
tp477
a(S'w'
I1
tp478
a(S'ch_no'
I1
tp479
a(S'ch_tr'
I1
tp480
a(S'ch_p2'
I1
tp481
a(S'ch_p1'
I1
tp482
a(S'w'
I6
tp483
a(S'tr_ll'
I1
tp484
a(S'w'
I1449
tp485
a(S'p1_vo'
I2
tp486
a(S'w'
I6
tp487
a(S'p2_vo'
I2
tp488
a(S'w'
I2191
tp489
a(S'p1_vo'
I3
tp490
a(S'w'
I7
tp491
a(S'p2_vo'
I3
tp492
a(S'w'
I2198
tp493
a(S'p1_vo'
I6
tp494
a(S'w'
I6
tp495
a(S'p1_tl'
I191
tp496
a(S'w'
I15
tp497
a(S'p2_vo'
I6
tp498
a(S'w'
I5
tp499
a(S'p2_tl'
I240
tp500
a(S'w'
I699
tp501
a(S'p1_vo'
I5
tp502
a(S'w'
I6
tp503
a(S'p2_vo'
I5
tp504
a(S'w'
I726
tp505
a(S'p1_vo'
I4
tp506
a(S'w'
I6
tp507
a(S'p2_vo'
I4
tp508
a(S'w'
I727
tp509
a(S'p1_vo'
I3
tp510
a(S'w'
I6
tp511
a(S'p2_vo'
I3
tp512
a(S'w'
I2192
tp513
a(S'p1_vo'
I2
tp514
a(S'w'
I6
tp515
a(S'p2_vo'
I2
tp516
a(S'w'
I1483
tp517
a(S'tr_lr'
I32
tp518
a(S'w'
I4
tp519
a(S'tr_ll'
I1
tp520
a(S'tr_th'
I1
tp521
a(S'w'
I1
tp522
a(S'tr_tl'
I29
tp523
a(S'w'
I7
tp524
a(S'no_vo'
I14
tp525
a(S'w'
I2
tp526
a(S'no_ll'
I1
tp527
a(S'w'
I2
tp528
a(S'no_np'
I6
tp529
a(S'w'
I694
tp530
a(S'p1_vo'
I3
tp531
a(S'w'
I7
tp532
a(S'p2_vo'
I3
tp533
a(S'w'
I8
tp534
a(S'no_vo'
I9
tp535
a(S'w'
I2
tp536
a(S'no_ll'
I1
tp537
a(S'w'
I1
tp538
a(S'no_np'
I5
tp539
a(S'w'
I726
tp540
a(S'no_vo'
I6
tp541
a(S'w'
I2
tp542
a(S'no_ll'
I1
tp543
a(S'w'
I2
tp544
a(S'no_np'
I7
tp545
a(S'w'
I729
tp546
a(S'no_vo'
I0
tp547
a(S'w'
I719
tp548
a(S'p1_vo'
I2
tp549
a(S'w'
I6
tp550
a(S'p2_vo'
I2
tp551
a(S'w'
I2193
tp552
a(S'p1_vo'
I3
tp553
a(S'w'
I7
tp554
a(S'p2_vo'
I3
tp555
a(S'w'
I2190
tp556
a(S'p1_vo'
I2
tp557
a(S'w'
I6
tp558
a(S'p2_vo'
I2
tp559
a(S'w'
I2193
tp560
a(S'p1_vo'
I3
tp561
a(S'w'
I7
tp562
a(S'p2_vo'
I3
tp563
a(S'w'
I2190
tp564
a(S'p1_vo'
I2
tp565
a(S'w'
I6
tp566
a(S'p2_vo'
I2
tp567
a(S'w'
I7
tp568
a(S'ch_no'
I1
tp569
a(S'ch_tr'
I1
tp570
a(S'ch_p2'
I1
tp571
a(S'ch_p1'
I1
tp572
a(S'ch_no'
I1
tp573
a(S'ch_tr'
I1
tp574
a(S'ch_p2'
I1
tp575
a(S'ch_p1'
I1
tp576
a(S'w'
I6
tp577
a(S'tr_ll'
I1
tp578
a(S'tr_th'
I2
tp579
a(S'w'
I1
tp580
a(S'tr_tl'
I59
tp581
a(S'w'
I2179
tp582
a(S'p1_vo'
I3
tp583
a(S'w'
I7
tp584
a(S'p2_vo'
I3
tp585
a(S'w'
I2189
tp586
a(S'p1_vo'
I2
tp587
a(S'w'
I6
tp588
a(S'p2_vo'
I2
tp589
a(S'w'
I2193
tp590
a(S'p1_vo'
I3
tp591
a(S'w'
I7
tp592
a(S'p2_vo'
I3
tp593
a(S'w'
I2190
tp594
a(S'p1_vo'
I2
tp595
a(S'w'
I6
tp596
a(S'p2_vo'
I2
tp597
a(S'w'
I2193
tp598
a(S'p1_vo'
I3
tp599
a(S'w'
I7
tp600
a(S'p2_vo'
I3
tp601
a(S'w'
I735
tp602
a(S'ch_no'
I1
tp603
a(S'ch_tr'
I1
tp604
a(S'ch_p2'
I1
tp605
a(S'ch_p1'
I1
tp606
a(S'w'
I1
tp607
a(S'ch_no'
I1
tp608
a(S'ch_tr'
I1
tp609
a(S'ch_p2'
I1
tp610
a(S'ch_p1'
I1
tp611
a(S'w'
I6
tp612
a(S'tr_ll'
I1
tp613
a(S'tr_th'
I1
tp614
a(S'w'
I1
tp615
a(S'tr_tl'
I224
tp616
a(S'w'
I1447
tp617
a(S'p1_vo'
I2
tp618
a(S'w'
I6
tp619
a(S'p2_vo'
I2
tp620
a(S'w'
I2192
tp621
a(S'p1_vo'
I3
tp622
a(S'w'
I7
tp623
a(S'p2_vo'
I3
tp624
a(S'w'
I2190
tp625
a(S'p1_vo'
I2
tp626
a(S'w'
I6
tp627
a(S'p2_vo'
I2
tp628
a(S'w'
I2193
tp629
a(S'p1_vo'
I3
tp630
a(S'w'
I7
tp631
a(S'p2_vo'
I3
tp632
a(S'w'
I2190
tp633
a(S'p1_vo'
I2
tp634
a(S'w'
I6
tp635
a(S'p2_vo'
I2
tp636
a(S'w'
I1485
tp637
a(S'tr_ll'
I1
tp638
a(S'tr_th'
I0
tp639
a(S'w'
I1
tp640
a(S'tr_tl'
I240
tp641
a(S'w'
I7
tp642
a(S'no_vo'
I12
tp643
a(S'w'
I2
tp644
a(S'no_ll'
I1
tp645
a(S'w'
I1
tp646
a(S'no_np'
I2
tp647
a(S'w'
I696
tp648
a(S'p1_vo'
I3
tp649
a(S'w'
I7
tp650
a(S'p2_vo'
I3
tp651
a(S'w'
I8
tp652
a(S'no_vo'
I0
tp653
a(S'w'
I2182
tp654
a(S'p1_vo'
I2
tp655
a(S'w'
I6
tp656
a(S'p2_vo'
I2
tp657
a(S'w'
I2193
tp658
a(S'p1_vo'
I3
tp659
a(S'w'
I7
tp660
a(S'p2_vo'
I3
tp661
a(S'w'
I740
tp662
a(S'tr_ll'
I1
tp663
a(S'tr_th'
I1
tp664
a(S'w'
I1
tp665
a(S'tr_tl'
I224
tp666
a(S'w'
I1449
tp667
a(S'p1_vo'
I2
tp668
a(S'w'
I6
tp669
a(S'p2_vo'
I2
tp670
a(S'w'
I2193
tp671
a(S'p1_vo'
I3
tp672
a(S'w'
I7
tp673
a(S'p2_vo'
I3
tp674
a(S'w'
I2190
tp675
a(S'p1_vo'
I2
tp676
a(S'w'
I6
tp677
a(S'p2_vo'
I2
tp678
a(S'w'
I20
tp679
a(S'tr_ll'
I1
tp680
a(S'w'
I1
tp681
a(S'tr_tl'
I171
tp682
a(S'w'
I7
tp683
a(S'no_vo'
I14
tp684
a(S'w'
I2
tp685
a(S'no_ll'
I1
tp686
a(S'w'
I1
tp687
a(S'no_np'
I6
tp688
a(S'w'
I708
tp689
a(S'no_vo'
I9
tp690
a(S'w'
I2
tp691
a(S'no_ll'
I1
tp692
a(S'w'
I2
tp693
a(S'no_np'
I5
tp694
a(S'w'
I729
tp695
a(S'no_vo'
I6
tp696
a(S'w'
I2
tp697
a(S'no_ll'
I1
tp698
a(S'w'
I2
tp699
a(S'no_np'
I7
tp700
a(S'w'
I716
tp701
a(S'p1_vo'
I3
tp702
a(S'w'
I8
tp703
a(S'p2_vo'
I3
tp704
a(S'w'
I7
tp705
a(S'no_vo'
I0
tp706
a(S'w'
I722
tp707
a(S'p2_vo'
I2
tp708
a(S'w'
I733
tp709
a(S'p2_vo'
I1
tp710
a(S'w'
I727
tp711
a(S'p1_vo'
I2
tp712
a(S'w'
I5
tp713
a(S'p2_vo'
I0
tp714
a(S'w'
I1469
tp715
a(S'p2_vo'
I6
tp716
a(S'w'
I6
tp717
a(S'p2_tl'
I254
tp718
a(S'w'
I19
tp719
a(S'tr_ll'
I1
tp720
a(S'w'
I8
tp721
a(S'no_vo'
I12
tp722
a(S'w'
I2
tp723
a(S'no_ll'
I1
tp724
a(S'w'
I1
tp725
a(S'no_np'
I2
tp726
a(S'w'
I689
tp727
a(S'p1_vo'
I3
tp728
a(S'w'
I6
tp729
a(S'p2_vo'
I5
tp730
a(S'w'
I8
tp731
a(S'no_vo'
I0
tp732
a(S'w'
I724
tp733
a(S'p2_vo'
I4
tp734
a(S'w'
I732
tp735
a(S'p2_vo'
I3
tp736
a(S'w'
I727
tp737
a(S'p1_vo'
I2
tp738
a(S'w'
I1471
tp739
a(S'p2_vo'
I2
tp740
a(S'w'
I728
tp741
a(S'p1_vo'
I3
tp742
a(S'w'
I740
tp743
a(S'p2_vo'
I6
tp744
a(S'w'
I6
tp745
a(S'p2_tl'
I240
tp746
a(S'w'
I22
tp747
a(S'tr_ll'
I1
tp748
a(S'tr_th'
I0
tp749
a(S'w'
I1
tp750
a(S'tr_tl'
I213
tp751
a(S'w'
I7
tp752
a(S'no_vo'
I12
tp753
a(S'w'
I2
tp754
a(S'no_ll'
I1
tp755
a(S'w'
I1
tp756
a(S'w'
I691
tp757
a(S'p2_vo'
I5
tp758
a(S'w'
I7
tp759
a(S'no_vo'
I0
tp760
a(S'w'
I719
tp761
a(S'p1_vo'
I2
tp762
a(S'w'
I6
tp763
a(S'p2_vo'
I4
tp764
a(S'w'
I733
tp765
a(S'p2_vo'
I3
tp766
a(S'w'
I1460
tp767
a(S'p1_vo'
I3
tp768
a(S'w'
I731
tp769
a(S'p1_vo'
I2
tp770
a(S'w'
I6
tp771
a(S'p2_vo'
I2
tp772
a(S'w'
I726
tp773
a(S'p1_vo'
I1
tp774
a(S'w'
I733
tp775
a(S'p1_vo'
I0
tp776
a(S'w'
I11
tp777
a(S'p2_vo'
I6
tp778
a(S'w'
I6
tp779
a(S'p2_tl'
I213
tp780
a(S'w'
I720
tp781
a(S'p2_vo'
I5
tp782
a(S'w'
I731
tp783
a(S'p2_vo'
I4
tp784
a(S'w'
I733
tp785
a(S'p2_vo'
I3
tp786
a(S'w'
I2198
tp787
a(S'p2_vo'
I2
tp788
a(S'w'
I1471
tp789
a(S'p1_vo'
I6
tp790
a(S'w'
I6
tp791
a(S'p1_tl'
I143
tp792
a(S'w'
I16
tp793
a(S'p2_vo'
I6
tp794
a(S'w'
I5
tp795
a(S'p2_tl'
I240
tp796
a(S'w'
I13
tp797
a(S'ch_no'
I1
tp798
a(S'ch_tr'
I1
tp799
a(S'ch_p2'
I1
tp800
a(S'ch_p1'
I1
tp801
a(S'w'
I1
tp802
a(S'ch_no'
I1
tp803
a(S'ch_tr'
I1
tp804
a(S'ch_p2'
I1
tp805
a(S'ch_p1'
I1
tp806
a(S'w'
I6
tp807
a(S'tr_ll'
I1
tp808
a(S'tr_th'
I2
tp809
a(S'w'
I1
tp810
a(S'tr_tl'
I59
tp811
a(S'w'
I677
tp812
a(S'p1_vo'
I5
tp813
a(S'w'
I6
tp814
a(S'p2_vo'
I5
tp815
a(S'w'
I727
tp816
a(S'p1_vo'
I4
tp817
a(S'w'
I6
tp818
a(S'p2_vo'
I4
tp819
a(S'w'
I727
tp820
a(S'p1_vo'
I3
tp821
a(S'w'
I6
tp822
a(S'p2_vo'
I3
tp823
a(S'w'
I2190
tp824
a(S'p1_vo'
I2
tp825
a(S'w'
I6
tp826
a(S'p2_vo'
I2
tp827
a(S'w'
I2193
tp828
a(S'p1_vo'
I3
tp829
a(S'w'
I7
tp830
a(S'p2_vo'
I3
tp831
a(S'w'
I2190
tp832
a(S'p1_vo'
I2
tp833
a(S'w'
I6
tp834
a(S'p2_vo'
I2
tp835
a(S'w'
I2193
tp836
a(S'p1_vo'
I3
tp837
a(S'w'
I8
tp838
a(S'p2_vo'
I3
tp839
a(S'w'
I728
tp840
a(S'p1_vo'
I6
tp841
a(S'w'
I5
tp842
a(S'p1_ll'
I1
tp843
a(S'p1_th'
I1
tp844
a(S'w'
I2
tp845
a(S'p1_tl'
I30
tp846
a(S'w'
I12
tp847
a(S'p2_vo'
I6
tp848
a(S'w'
I4
tp849
a(S'p2_ll'
I1
tp850
a(S'p2_th'
I1
tp851
a(S'w'
I2
tp852
a(S'p2_tl'
I224
tp853
a(S'w'
I6
tp854
a(S'ch_no'
I1
tp855
a(S'ch_tr'
I1
tp856
a(S'ch_p2'
I1
tp857
a(S'ch_p1'
I1
tp858
a(S'ch_no'
I1
tp859
a(S'ch_tr'
I1
tp860
a(S'ch_p2'
I1
tp861
a(S'ch_p1'
I1
tp862
a(S'w'
I6
tp863
a(S'tr_ll'
I1
tp864
a(S'w'
I692
tp865
a(S'p1_vo'
I5
tp866
a(S'w'
I6
tp867
a(S'p2_vo'
I5
tp868
a(S'w'
I727
tp869
a(S'p1_vo'
I4
tp870
a(S'w'
I6
tp871
a(S'p2_vo'
I4
tp872
a(S'w'
I726
tp873
a(S'p1_vo'
I3
tp874
a(S'w'
I6
tp875
a(S'p2_vo'
I3
tp876
a(S'w'
I2191
tp877
a(S'p1_vo'
I2
tp878
a(S'w'
I6
tp879
a(S'p2_vo'
I2
tp880
a(S'w'
I1468
tp881
a(S'p1_vo'
I6
tp882
a(S'w'
I5
tp883
a(S'p1_ll'
I1
tp884
a(S'p1_th'
I0
tp885
a(S'w'
I2
tp886
a(S'p1_tl'
I161
tp887
a(S'w'
I15
tp888
a(S'p2_vo'
I6
tp889
a(S'w'
I5
tp890
a(S'p2_ll'
I1
tp891
a(S'p2_th'
I0
tp892
a(S'w'
I2
tp893
a(S'p2_tl'
I213
tp894
a(S'w'
I695
tp895
a(S'p1_vo'
I5
tp896
a(S'w'
I6
tp897
a(S'p2_vo'
I5
tp898
a(S'w'
I726
tp899
a(S'p1_vo'
I4
tp900
a(S'w'
I6
tp901
a(S'p2_vo'
I4
tp902
a(S'w'
I727
tp903
a(S'p1_vo'
I3
tp904
a(S'w'
I6
tp905
a(S'p2_vo'
I3
tp906
a(S'w'
I2192
tp907
a(S'p1_vo'
I2
tp908
a(S'w'
I6
tp909
a(S'p2_vo'
I2
tp910
a(S'w'
I1483
tp911
a(S'tr_lr'
I22
tp912
a(S'w'
I4
tp913
a(S'tr_ll'
I1
tp914
a(S'tr_th'
I1
tp915
a(S'w'
I1
tp916
a(S'tr_tl'
I29
tp917
a(S'w'
I7
tp918
a(S'no_vo'
I14
tp919
a(S'w'
I2
tp920
a(S'no_ll'
I1
tp921
a(S'w'
I2
tp922
a(S'no_np'
I6
tp923
a(S'w'
I694
tp924
a(S'p1_vo'
I3
tp925
a(S'w'
I7
tp926
a(S'p2_vo'
I3
tp927
a(S'w'
I8
tp928
a(S'no_vo'
I9
tp929
a(S'w'
I2
tp930
a(S'no_ll'
I1
tp931
a(S'w'
I1
tp932
a(S'no_np'
I5
tp933
a(S'w'
I726
tp934
a(S'no_vo'
I6
tp935
a(S'w'
I2
tp936
a(S'no_ll'
I1
tp937
a(S'w'
I2
tp938
a(S'no_np'
I7
tp939
a(S'w'
I729
tp940
a(S'no_vo'
I0
tp941
a(S'w'
I720
tp942
a(S'p1_vo'
I2
tp943
a(S'w'
I6
tp944
a(S'p2_vo'
I2
tp945
a(S'w'
I2192
tp946
a(S'p1_vo'
I3
tp947
a(S'w'
I7
tp948
a(S'p2_vo'
I3
tp949
a(S'w'
I2190
tp950
a(S'p1_vo'
I2
tp951
a(S'w'
I6
tp952
a(S'p2_vo'
I2
tp953
a(S'w'
I2193
tp954
a(S'p1_vo'
I3
tp955
a(S'w'
I7
tp956
a(S'p2_vo'
I3
tp957
a(S'w'
I2190
tp958
a(S'p1_vo'
I2
tp959
a(S'w'
I6
tp960
a(S'p2_vo'
I2
tp961
a(S'w'
I7
tp962
a(S'ch_no'
I1
tp963
a(S'ch_tr'
I1
tp964
a(S'ch_p2'
I1
tp965
a(S'ch_p1'
I1
tp966
a(S'ch_no'
I1
tp967
a(S'ch_tr'
I1
tp968
a(S'ch_p2'
I1
tp969
a(S'ch_p1'
I1
tp970
a(S'w'
I6
tp971
a(S'tr_ll'
I1
tp972
a(S'tr_th'
I2
tp973
a(S'w'
I1
tp974
a(S'tr_tl'
I59
tp975
a(S'w'
I2180
tp976
a(S'p1_vo'
I3
tp977
a(S'w'
I7
tp978
a(S'p2_vo'
I3
tp979
a(S'w'
I2188
tp980
a(S'p1_vo'
I2
tp981
a(S'w'
I6
tp982
a(S'p2_vo'
I2
tp983
a(S'w'
I2193
tp984
a(S'p1_vo'
I3
tp985
a(S'w'
I7
tp986
a(S'p2_vo'
I3
tp987
a(S'w'
I2190
tp988
a(S'p1_vo'
I2
tp989
a(S'w'
I6
tp990
a(S'p2_vo'
I2
tp991
a(S'w'
I2193
tp992
a(S'p1_vo'
I3
tp993
a(S'w'
I7
tp994
a(S'p2_vo'
I3
tp995
a(S'w'
I735
tp996
a(S'ch_no'
I1
tp997
a(S'ch_tr'
I1
tp998
a(S'ch_p2'
I1
tp999
a(S'ch_p1'
I1
tp1000
a(S'w'
I1
tp1001
a(S'ch_no'
I1
tp1002
a(S'ch_tr'
I1
tp1003
a(S'ch_p2'
I1
tp1004
a(S'ch_p1'
I1
tp1005
a(S'w'
I5
tp1006
a(S'tr_ll'
I1
tp1007
a(S'w'
I1450
tp1008
a(S'p1_vo'
I2
tp1009
a(S'w'
I6
tp1010
a(S'p2_vo'
I2
tp1011
a(S'w'
I2191
tp1012
a(S'p1_vo'
I3
tp1013
a(S'w'
I7
tp1014
a(S'p2_vo'
I3
tp1015
a(S'w'
I2190
tp1016
a(S'p1_vo'
I2
tp1017
a(S'w'
I6
tp1018
a(S'p2_vo'
I2
tp1019
a(S'w'
I6
tp1020
a(S'tr_lr'
I32
tp1021
a(S'w'
I3
tp1022
a(S'tr_ll'
I1
tp1023
a(S'tr_th'
I1
tp1024
a(S'w'
I1
tp1025
a(S'tr_tl'
I224
tp1026
a(S'w'
I2183
tp1027
a(S'p1_vo'
I3
tp1028
a(S'w'
I7
tp1029
a(S'p2_vo'
I3
tp1030
a(S'w'
I2190
tp1031
a(S'p1_vo'
I2
tp1032
a(S'w'
I6
tp1033
a(S'p2_vo'
I2
tp1034
a(S'w'
I1483
tp1035
a(S'tr_ll'
I1
tp1036
a(S'w'
I8
tp1037
a(S'no_vo'
I12
tp1038
a(S'w'
I2
tp1039
a(S'no_ll'
I1
tp1040
a(S'w'
I1
tp1041
a(S'no_np'
I2
tp1042
a(S'w'
I699
tp1043
a(S'p1_vo'
I3
tp1044
a(S'w'
I7
tp1045
a(S'p2_vo'
I3
tp1046
a(S'w'
I8
tp1047
a(S'no_vo'
I0
tp1048
a(S'w'
I2181
tp1049
a(S'p1_vo'
I2
tp1050
a(S'w'
I6
tp1051
a(S'p2_vo'
I2
tp1052
a(S'w'
I2193
tp1053
a(S'p1_vo'
I3
tp1054
a(S'w'
I7
tp1055
a(S'p2_vo'
I3
tp1056
a(S'w'
I747
tp1057
a(S'tr_lr'
I22
tp1058
a(S'w'
I4
tp1059
a(S'tr_ll'
I1
tp1060
a(S'w'
I1
tp1061
a(S'tr_tl'
I252
tp1062
a(S'w'
I7
tp1063
a(S'no_vo'
I14
tp1064
a(S'w'
I2
tp1065
a(S'no_ll'
I1
tp1066
a(S'w'
I1
tp1067
a(S'no_np'
I6
tp1068
a(S'w'
I708
tp1069
a(S'no_vo'
I9
tp1070
a(S'w'
I2
tp1071
a(S'no_ll'
I1
tp1072
a(S'w'
I2
tp1073
a(S'no_np'
I5
tp1074
a(S'w'
I716
tp1075
a(S'p1_vo'
I2
tp1076
a(S'w'
I6
tp1077
a(S'p2_vo'
I2
tp1078
a(S'w'
I7
tp1079
a(S'no_vo'
I6
tp1080
a(S'w'
I2
tp1081
a(S'no_ll'
I1
tp1082
a(S'w'
I2
tp1083
a(S'no_np'
I7
tp1084
a(S'w'
I729
tp1085
a(S'no_vo'
I0
tp1086
a(S'w'
I1453
tp1087
a(S'p1_vo'
I3
tp1088
a(S'w'
I7
tp1089
a(S'p2_vo'
I3
tp1090
a(S'w'
I2190
tp1091
a(S'p1_vo'
I2
tp1092
a(S'w'
I6
tp1093
a(S'p2_vo'
I2
tp1094
a(S'w'
I18
tp1095
a(S'tr_ll'
I1
tp1096
a(S'w'
I1
tp1097
a(S'tr_tl'
I224
tp1098
a(S'w'
I7
tp1099
a(S'no_vo'
I12
tp1100
a(S'w'
I2
tp1101
a(S'no_ll'
I1
tp1102
a(S'w'
I1
tp1103
a(S'no_np'
I2
tp1104
a(S'w'
I710
tp1105
a(S'no_vo'
I0
tp1106
a(S'w'
I1453
tp1107
a(S'p1_vo'
I3
tp1108
a(S'w'
I7
tp1109
a(S'p2_vo'
I3
tp1110
a(S'w'
I2190
tp1111
a(S'p1_vo'
I2
tp1112
a(S'w'
I6
tp1113
a(S'p2_vo'
I2
tp1114
a(S'w'
I1473
tp1115
a(S'tr_ll'
I1
tp1116
a(S'w'
I1
tp1117
a(S'tr_tl'
I197
tp1118
a(S'w'
I719
tp1119
a(S'p1_vo'
I3
tp1120
a(S'w'
I8
tp1121
a(S'p2_vo'
I3
tp1122
a(S'w'
I723
tp1123
a(S'p1_vo'
I2
tp1124
a(S'w'
I5
tp1125
a(S'p2_vo'
I2
tp1126
a(S'w'
I727
tp1127
a(S'p1_vo'
I1
tp1128
a(S'w'
I5
tp1129
a(S'p2_vo'
I1
tp1130
a(S'w'
I728
tp1131
a(S'p1_vo'
I0
tp1132
a(S'w'
I5
tp1133
a(S'p2_vo'
I0
tp1134
a(S'w'
I2929
tp1135
a(S'p1_vo'
I6
tp1136
a(S'w'
I6
tp1137
a(S'p1_tl'
I170
tp1138
a(S'w'
I11
tp1139
a(S'p2_vo'
I6
tp1140
a(S'w'
I6
tp1141
a(S'w'
I10
tp1142
a(S'tr_ll'
I1
tp1143
a(S'w'
I1
tp1144
a(S'tr_tl'
I125
tp1145
a(S'w'
I696
tp1146
a(S'p1_vo'
I5
tp1147
a(S'w'
I6
tp1148
a(S'p2_vo'
I5
tp1149
a(S'w'
I727
tp1150
a(S'p1_vo'
I4
tp1151
a(S'w'
I6
tp1152
a(S'p2_vo'
I4
tp1153
a(S'w'
I726
tp1154
a(S'p1_vo'
I3
tp1155
a(S'w'
I6
tp1156
a(S'p2_vo'
I3
tp1157
a(S'w'
I2192
tp1158
a(S'p1_vo'
I2
tp1159
a(S'w'
I6
tp1160
a(S'p2_vo'
I2
tp1161
a(S'w'
I1462
tp1162
a(S'p1_vo'
I6
tp1163
a(S'w'
I6
tp1164
a(S'p1_tl'
I161
tp1165
a(S'w'
I11
tp1166
a(S'p2_vo'
I6
tp1167
a(S'w'
I6
tp1168
a(S'p2_tl'
I190
tp1169
a(S'w'
I707
tp1170
a(S'p1_vo'
I5
tp1171
a(S'w'
I6
tp1172
a(S'p2_vo'
I5
tp1173
a(S'w'
I726
tp1174
a(S'p1_vo'
I4
tp1175
a(S'w'
I6
tp1176
a(S'p2_vo'
I4
tp1177
a(S'w'
I727
tp1178
a(S'p1_vo'
I3
tp1179
a(S'w'
I6
tp1180
a(S'p2_vo'
I3
tp1181
a(S'w'
I2192
tp1182
a(S'p1_vo'
I2
tp1183
a(S'w'
I6
tp1184
a(S'p2_vo'
I2
tp1185
a(S'w'
I1463
tp1186
a(S'p1_vo'
I6
tp1187
a(S'w'
I6
tp1188
a(S'p1_tl'
I170
tp1189
a(S'w'
I11
tp1190
a(S'p2_vo'
I6
tp1191
a(S'w'
I6
tp1192
a(S'p2_tl'
I213
tp1193
a(S'w'
I8
tp1194
a(S'ch_no'
I1
tp1195
a(S'ch_tr'
I1
tp1196
a(S'ch_p2'
I1
tp1197
a(S'ch_p1'
I1
tp1198
a(S'ch_no'
I1
tp1199
a(S'ch_tr'
I1
tp1200
a(S'ch_p2'
I1
tp1201
a(S'ch_p1'
I1
tp1202
a(S'w'
I6
tp1203
a(S'tr_ll'
I1
tp1204
a(S'tr_th'
I2
tp1205
a(S'w'
I1
tp1206
a(S'tr_tl'
I59
tp1207
a(S'w'
I692
tp1208
a(S'p1_vo'
I5
tp1209
a(S'w'
I6
tp1210
a(S'p2_vo'
I5
tp1211
a(S'w'
I726
tp1212
a(S'p1_vo'
I4
tp1213
a(S'w'
I6
tp1214
a(S'p2_vo'
I4
tp1215
a(S'w'
I727
tp1216
a(S'p1_vo'
I3
tp1217
a(S'w'
I6
tp1218
a(S'p2_vo'
I3
tp1219
a(S'w'
I2191
tp1220
a(S'p1_vo'
I2
tp1221
a(S'w'
I6
tp1222
a(S'p2_vo'
I2
tp1223
a(S'w'
I2192
tp1224
a(S'p1_vo'
I3
tp1225
a(S'w'
I7
tp1226
a(S'p2_vo'
I3
tp1227
a(S'w'
I2190
tp1228
a(S'p1_vo'
I2
tp1229
a(S'w'
I6
tp1230
a(S'p2_vo'
I2
tp1231
a(S'w'
I2193
tp1232
a(S'p1_vo'
I3
tp1233
a(S'w'
I7
tp1234
a(S'p2_vo'
I3
tp1235
a(S'w'
I736
tp1236
a(S'ch_no'
I1
tp1237
a(S'ch_tr'
I1
tp1238
a(S'ch_p2'
I1
tp1239
a(S'ch_p1'
I1
tp1240
a(S'w'
I1
tp1241
a(S'ch_no'
I1
tp1242
a(S'ch_tr'
I1
tp1243
a(S'ch_p2'
I1
tp1244
a(S'ch_p1'
I1
tp1245
a(S'w'
I6
tp1246
a(S'tr_ll'
I1
tp1247
a(S'w'
I1448
tp1248
a(S'p1_vo'
I2
tp1249
a(S'w'
I6
tp1250
a(S'p2_vo'
I2
tp1251
a(S'w'
I2192
tp1252
a(S'p1_vo'
I3
tp1253
a(S'w'
I7
tp1254
a(S'p2_vo'
I3
tp1255
a(S'w'
I2197
tp1256
a(S'p1_vo'
I6
tp1257
a(S'w'
I6
tp1258
a(S'p1_tl'
I191
tp1259
a(S'w'
I15
tp1260
a(S'p2_vo'
I6
tp1261
a(S'w'
I5
tp1262
a(S'p2_tl'
I240
tp1263
a(S'w'
I699
tp1264
a(S'p1_vo'
I5
tp1265
a(S'w'
I6
tp1266
a(S'p2_vo'
I5
tp1267
a(S'w'
I727
tp1268
a(S'p1_vo'
I4
tp1269
a(S'w'
I6
tp1270
a(S'p2_vo'
I4
tp1271
a(S'w'
I726
tp1272
a(S'p1_vo'
I3
tp1273
a(S'w'
I6
tp1274
a(S'p2_vo'
I3
tp1275
a(S'w'
I2192
tp1276
a(S'p1_vo'
I2
tp1277
a(S'w'
I6
tp1278
a(S'p2_vo'
I2
tp1279
a(S'w'
I1483
tp1280
a(S'tr_lr'
I32
tp1281
a(S'w'
I4
tp1282
a(S'tr_ll'
I1
tp1283
a(S'tr_th'
I1
tp1284
a(S'w'
I1
tp1285
a(S'tr_tl'
I29
tp1286
a(S'w'
I7
tp1287
a(S'no_vo'
I14
tp1288
a(S'w'
I2
tp1289
a(S'no_ll'
I1
tp1290
a(S'w'
I2
tp1291
a(S'no_np'
I6
tp1292
a(S'w'
I694
tp1293
a(S'p1_vo'
I3
tp1294
a(S'w'
I7
tp1295
a(S'p2_vo'
I3
tp1296
a(S'w'
I8
tp1297
a(S'no_vo'
I9
tp1298
a(S'w'
I2
tp1299
a(S'no_ll'
I1
tp1300
a(S'w'
I1
tp1301
a(S'no_np'
I5
tp1302
a(S'w'
I726
tp1303
a(S'no_vo'
I6
tp1304
a(S'w'
I2
tp1305
a(S'no_ll'
I1
tp1306
a(S'w'
I2
tp1307
a(S'no_np'
I7
tp1308
a(S'w'
I729
tp1309
a(S'no_vo'
I0
tp1310
a(S'w'
I720
tp1311
a(S'p1_vo'
I2
tp1312
a(S'w'
I6
tp1313
a(S'p2_vo'
I2
tp1314
a(S'w'
I2192
tp1315
a(S'p1_vo'
I3
tp1316
a(S'w'
I7
tp1317
a(S'p2_vo'
I3
tp1318
a(S'w'
I2190
tp1319
a(S'p1_vo'
I2
tp1320
a(S'w'
I6
tp1321
a(S'p2_vo'
I2
tp1322
a(S'w'
I2193
tp1323
a(S'p1_vo'
I3
tp1324
a(S'w'
I7
tp1325
a(S'p2_vo'
I3
tp1326
a(S'w'
I2190
tp1327
a(S'p1_vo'
I2
tp1328
a(S'w'
I6
tp1329
a(S'p2_vo'
I2
tp1330
a(S'w'
I7
tp1331
a(S'ch_no'
I1
tp1332
a(S'ch_tr'
I1
tp1333
a(S'ch_p2'
I1
tp1334
a(S'ch_p1'
I1
tp1335
a(S'ch_no'
I1
tp1336
a(S'ch_tr'
I1
tp1337
a(S'ch_p2'
I1
tp1338
a(S'ch_p1'
I1
tp1339
a(S'w'
I6
tp1340
a(S'tr_ll'
I1
tp1341
a(S'tr_th'
I2
tp1342
a(S'w'
I1
tp1343
a(S'tr_tl'
I59
tp1344
a(S'w'
I2180
tp1345
a(S'p1_vo'
I3
tp1346
a(S'w'
I7
tp1347
a(S'p2_vo'
I3
tp1348
a(S'w'
I2189
tp1349
a(S'p1_vo'
I2
tp1350
a(S'w'
I6
tp1351
a(S'p2_vo'
I2
tp1352
a(S'w'
I2192
tp1353
a(S'p1_vo'
I3
tp1354
a(S'w'
I7
tp1355
a(S'p2_vo'
I3
tp1356
a(S'w'
I2190
tp1357
a(S'p1_vo'
I2
tp1358
a(S'w'
I6
tp1359
a(S'p2_vo'
I2
tp1360
a(S'w'
I2193
tp1361
a(S'p1_vo'
I3
tp1362
a(S'w'
I7
tp1363
a(S'p2_vo'
I3
tp1364
a(S'w'
I736
tp1365
a(S'ch_no'
I1
tp1366
a(S'ch_tr'
I1
tp1367
a(S'ch_p2'
I1
tp1368
a(S'ch_p1'
I1
tp1369
a(S'w'
I1
tp1370
a(S'ch_no'
I1
tp1371
a(S'ch_tr'
I1
tp1372
a(S'ch_p2'
I1
tp1373
a(S'ch_p1'
I1
tp1374
a(S'w'
I6
tp1375
a(S'tr_ll'
I1
tp1376
a(S'tr_th'
I1
tp1377
a(S'w'
I1
tp1378
a(S'tr_tl'
I224
tp1379
a(S'w'
I1447
tp1380
a(S'p1_vo'
I2
tp1381
a(S'w'
I6
tp1382
a(S'p2_vo'
I2
tp1383
a(S'w'
I2192
tp1384
a(S'p1_vo'
I3
tp1385
a(S'w'
I7
tp1386
a(S'p2_vo'
I3
tp1387
a(S'w'
I2189
tp1388
a(S'p1_vo'
I2
tp1389
a(S'w'
I6
tp1390
a(S'p2_vo'
I2
tp1391
a(S'w'
I2193
tp1392
a(S'p1_vo'
I3
tp1393
a(S'w'
I7
tp1394
a(S'p2_vo'
I3
tp1395
a(S'w'
I2190
tp1396
a(S'p1_vo'
I2
tp1397
a(S'w'
I6
tp1398
a(S'p2_vo'
I2
tp1399
a(S'w'
I1485
tp1400
a(S'tr_ll'
I1
tp1401
a(S'tr_th'
I0
tp1402
a(S'w'
I1
tp1403
a(S'tr_tl'
I240
tp1404
a(S'w'
I7
tp1405
a(S'no_vo'
I12
tp1406
a(S'w'
I2
tp1407
a(S'no_ll'
I1
tp1408
a(S'w'
I1
tp1409
a(S'no_np'
I2
tp1410
a(S'w'
I697
tp1411
a(S'p1_vo'
I3
tp1412
a(S'w'
I7
tp1413
a(S'p2_vo'
I3
tp1414
a(S'w'
I8
tp1415
a(S'no_vo'
I0
tp1416
a(S'w'
I2182
tp1417
a(S'p1_vo'
I2
tp1418
a(S'w'
I6
tp1419
a(S'p2_vo'
I2
tp1420
a(S'w'
I2192
tp1421
a(S'p1_vo'
I3
tp1422
a(S'w'
I7
tp1423
a(S'p2_vo'
I3
tp1424
a(S'w'
I740
tp1425
a(S'tr_ll'
I1
tp1426
a(S'tr_th'
I1
tp1427
a(S'w'
I1
tp1428
a(S'tr_tl'
I224
tp1429
a(S'w'
I1449
tp1430
a(S'p1_vo'
I2
tp1431
a(S'w'
I6
tp1432
a(S'p2_vo'
I2
tp1433
a(S'w'
I2193
tp1434
a(S'p1_vo'
I3
tp1435
a(S'w'
I7
tp1436
a(S'p2_vo'
I3
tp1437
a(S'w'
I2190
tp1438
a(S'p1_vo'
I2
tp1439
a(S'w'
I6
tp1440
a(S'p2_vo'
I2
tp1441
a(S'w'
I20
tp1442
a(S'tr_ll'
I1
tp1443
a(S'w'
I1
tp1444
a(S'tr_tl'
I171
tp1445
a(S'w'
I7
tp1446
a(S'no_vo'
I14
tp1447
a(S'w'
I2
tp1448
a(S'no_ll'
I1
tp1449
a(S'w'
I1
tp1450
a(S'no_np'
I6
tp1451
a(S'w'
I708
tp1452
a(S'no_vo'
I9
tp1453
a(S'w'
I2
tp1454
a(S'no_ll'
I1
tp1455
a(S'w'
I2
tp1456
a(S'no_np'
I5
tp1457
a(S'w'
I729
tp1458
a(S'no_vo'
I6
tp1459
a(S'w'
I2
tp1460
a(S'no_ll'
I1
tp1461
a(S'w'
I2
tp1462
a(S'no_np'
I7
tp1463
a(S'w'
I717
tp1464
a(S'p1_vo'
I3
tp1465
a(S'w'
I8
tp1466
a(S'p2_vo'
I3
tp1467
a(S'w'
I7
tp1468
a(S'no_vo'
I0
tp1469
a(S'w'
I721
tp1470
a(S'p2_vo'
I2
tp1471
a(S'w'
I733
tp1472
a(S'p2_vo'
I1
tp1473
a(S'w'
I727
tp1474
a(S'p1_vo'
I2
tp1475
a(S'w'
I5
tp1476
a(S'p2_vo'
I0
tp1477
a(S'w'
I1470
tp1478
a(S'p2_vo'
I6
tp1479
a(S'w'
I6
tp1480
a(S'p2_tl'
I254
tp1481
a(S'w'
I19
tp1482
a(S'tr_ll'
I1
tp1483
a(S'w'
I8
tp1484
a(S'no_vo'
I12
tp1485
a(S'w'
I2
tp1486
a(S'no_ll'
I1
tp1487
a(S'w'
I1
tp1488
a(S'no_np'
I2
tp1489
a(S'w'
I688
tp1490
a(S'p1_vo'
I3
tp1491
a(S'w'
I6
tp1492
a(S'p2_vo'
I5
tp1493
a(S'w'
I8
tp1494
a(S'no_vo'
I0
tp1495
a(S'w'
I724
tp1496
a(S'p2_vo'
I4
tp1497
a(S'w'
I732
tp1498
a(S'p2_vo'
I3
tp1499
a(S'w'
I727
tp1500
a(S'p1_vo'
I2
tp1501
a(S'w'
I1471
tp1502
a(S'p2_vo'
I2
tp1503
a(S'w'
I728
tp1504
a(S'p1_vo'
I3
tp1505
a(S'w'
I740
tp1506
a(S'p2_vo'
I6
tp1507
a(S'w'
I6
tp1508
a(S'p2_tl'
I240
tp1509
a(S'w'
I22
tp1510
a(S'tr_ll'
I1
tp1511
a(S'tr_th'
I0
tp1512
a(S'w'
I1
tp1513
a(S'tr_tl'
I213
tp1514
a(S'w'
I7
tp1515
a(S'no_vo'
I12
tp1516
a(S'w'
I2
tp1517
a(S'no_ll'
I1
tp1518
a(S'w'
I1
tp1519
a(S'w'
I691
tp1520
a(S'p2_vo'
I5
tp1521
a(S'w'
I7
tp1522
a(S'no_vo'
I0
tp1523
a(S'w'
I720
tp1524
a(S'p1_vo'
I2
tp1525
a(S'w'
I6
tp1526
a(S'p2_vo'
I4
tp1527
a(S'w'
I732
tp1528
a(S'p2_vo'
I3
tp1529
a(S'w'
I1460
tp1530
a(S'p1_vo'
I3
tp1531
a(S'w'
I731
tp1532
a(S'p1_vo'
I2
tp1533
a(S'w'
I6
tp1534
a(S'p2_vo'
I2
tp1535
a(S'w'
I727
tp1536
a(S'p1_vo'
I1
tp1537
a(S'w'
I732
tp1538
a(S'p1_vo'
I0
tp1539
a(S'w'
I11
tp1540
a(S'p2_vo'
I6
tp1541
a(S'w'
I6
tp1542
a(S'p2_tl'
I213
tp1543
a(S'w'
I720
tp1544
a(S'p2_vo'
I5
tp1545
a(S'w'
I731
tp1546
a(S'p2_vo'
I4
tp1547
a(S'w'
I733
tp1548
a(S'p2_vo'
I3
tp1549
a(S'w'
I2198
tp1550
a(S'p2_vo'
I2
tp1551
a(S'w'
I1485
tp1552
a(S'p1_vo'
I3
tp1553
a(S'w'
I6
tp1554
a(S'p1_tl'
I241
tp1555
a(S'w'
I31
tp1556
a(S'p2_vo'
I3
tp1557
a(S'w'
I6
tp1558
a(S'p2_tl'
I240
tp1559
a(S'w'
I12
tp1560
a(S'ch_no'
I1
tp1561
a(S'ch_tr'
I1
tp1562
a(S'ch_p2'
I1
tp1563
a(S'ch_p1'
I1
tp1564
a(S'w'
I1
tp1565
a(S'ch_no'
I1
tp1566
a(S'ch_tr'
I1
tp1567
a(S'ch_p2'
I1
tp1568
a(S'ch_p1'
I1
tp1569
a(S'w'
I2
tp1570
a(S'tr_lr'
I23
tp1571
a(S'w'
I4
tp1572
a(S'tr_ll'
I1
tp1573
a(S'tr_th'
I2
tp1574
a(S'w'
I1
tp1575
a(S'tr_tl'
I59
tp1576
a(S'w'
I10903
tp1577
a(S'p1_vo'
I2
tp1578
a(S'w'
I5
tp1579
a(S'p2_vo'
I2
tp1580
a(S'w'
I740
tp1581
a(S'p1_vo'
I3
tp1582
a(S'w'
I5
tp1583
a(S'p1_ll'
I1
tp1584
a(S'p1_th'
I2
tp1585
a(S'w'
I1
tp1586
a(S'p1_tl'
I251
tp1587
a(S'w'
I18
tp1588
a(S'p2_vo'
I3
tp1589
a(S'w'
I5
tp1590
a(S'p2_ll'
I1
tp1591
a(S'p2_th'
I2
tp1592
a(S'w'
I2
tp1593
a(S'p2_tl'
I250
tp1594
a(S'w'
I5
tp1595
a(S'ch_no'
I1
tp1596
a(S'ch_tr'
I1
tp1597
a(S'ch_p2'
I1
tp1598
a(S'ch_p1'
I1
tp1599
a(S'w'
I1
tp1600
a(S'ch_no'
I1
tp1601
a(S'ch_tr'
I1
tp1602
a(S'ch_p2'
I1
tp1603
a(S'ch_p1'
I1
tp1604
a(S'w'
I3
tp1605
a(S'w'
I3
tp1606
a(S'tr_ll'
I1
tp1607
a(S'w'
I1
tp1608
a(S'w'
I5823
tp1609
a(S'p1_ll'
I1
tp1610
a(S'p1_th'
I1
tp1611
a(S'w'
I2
tp1612
a(S'p1_tl'
I126
tp1613
a(S'w'
I24
tp1614
a(S'p2_ll'
I1
tp1615
a(S'p2_th'
I1
tp1616
a(S'w'
I1
tp1617
a(S'p2_tl'
I125
tp1618
a(S'w'
I5827
tp1619
a(S'w'
I1
tp1620
a(S'w'
I6
tp1621
a(S'tr_ll'
I1
tp1622
a(S'tr_th'
I1
tp1623
a(S'w'
I1
tp1624
a(S'tr_tl'
I224
tp1625
a(S'w'
I7
tp1626
a(S'no_vo'
I14
tp1627
a(S'w'
I2
tp1628
a(S'no_ll'
I1
tp1629
a(S'w'
I1
tp1630
a(S'no_np'
I6
tp1631
a(S'w'
I711
tp1632
a(S'no_vo'
I9
tp1633
a(S'w'
I2
tp1634
a(S'no_ll'
I1
tp1635
a(S'w'
I2
tp1636
a(S'no_np'
I5
tp1637
a(S'w'
I729
tp1638
a(S'no_vo'
I6
tp1639
a(S'w'
I2
tp1640
a(S'no_ll'
I1
tp1641
a(S'w'
I2
tp1642
a(S'no_np'
I7
tp1643
a(S'w'
I728
tp1644
a(S'no_vo'
I0
tp1645
a(S'w'
I2923
tp1646
a(S'p1_vo'
I2
tp1647
a(S'w'
I5
tp1648
a(S'p2_vo'
I2
tp1649
a(S'w'
I735
tp1650
a(S'tr_ll'
I1
tp1651
a(S'w'
I1
tp1652
a(S'tr_tl'
I252
tp1653
a(S'w'
I5863
tp1654
a(S'p1_vo'
I3
tp1655
a(S'w'
I6
tp1656
a(S'p1_tl'
I148
tp1657
a(S'w'
I17
tp1658
a(S'p2_vo'
I3
tp1659
a(S'w'
I6
tp1660
a(S'p2_tl'
I147
tp1661
a(S'w'
I19
tp1662
a(S'tr_ll'
I1
tp1663
a(S'tr_th'
I2
tp1664
a(S'w'
I1
tp1665
a(S'tr_tl'
I59
tp1666
a(S'w'
I7
tp1667
a(S'no_vo'
I12
tp1668
a(S'w'
I2
tp1669
a(S'no_ll'
I1
tp1670
a(S'w'
I1
tp1671
a(S'no_np'
I2
tp1672
a(S'w'
I671
tp1673
a(S'no_vo'
I0
tp1674
a(S'w'
I5140
tp1675
a(S'tr_ll'
I1
tp1676
a(S'w'
I2
tp1677
a(S'tr_tl'
I250
tp1678
a(S'w'
I6
tp1679
a(S'no_vo'
I12
tp1680
a(S'w'
I3
tp1681
a(S'no_ll'
I1
tp1682
a(S'w'
I1
tp1683
a(S'w'
I708
tp1684
a(S'no_vo'
I0
tp1685
a(S'w'
I4388
tp1686
a(S'p1_vo'
I2
tp1687
a(S'w'
I5
tp1688
a(S'p2_vo'
I2
tp1689
a(S'w'
I747
tp1690
a(S'tr_ll'
I1
tp1691
a(S'w'
I1
tp1692
a(S'tr_tl'
I59
tp1693
a(S'w'
I7
tp1694
a(S'no_vo'
I12
tp1695
a(S'w'
I2
tp1696
a(S'no_ll'
I1
tp1697
a(S'w'
I1
tp1698
a(S'w'
I710
tp1699
a(S'no_vo'
I0
tp1700
a(S'w'
I5132
tp1701
a(S'p1_vo'
I3
tp1702
a(S'w'
I6
tp1703
a(S'p1_tl'
I172
tp1704
a(S'w'
I17
tp1705
a(S'p2_vo'
I3
tp1706
a(S'w'
I6
tp1707
a(S'p2_tl'
I171
tp1708
a(S'w'
I17
tp1709
a(S'tr_lr'
I0
tp1710
a(S'w'
I7
tp1711
a(S'no_vo'
I12
tp1712
a(S'w'
I2
tp1713
a(S'no_ll'
I1
tp1714
a(S'w'
I1
tp1715
a(S'w'
I673
tp1716
a(S'no_vo'
I0
tp1717
a(S'w'
I5126
tp1718
a(S'ch_no'
I1
tp1719
a(S'ch_tr'
I1
tp1720
a(S'ch_p2'
I1
tp1721
a(S'ch_p1'
I1
tp1722
a(S'w'
I1
tp1723
a(S'ch_no'
I1
tp1724
a(S'ch_tr'
I1
tp1725
a(S'ch_p2'
I1
tp1726
a(S'ch_p1'
I1
tp1727
a(S'w'
I2
tp1728
a(S'tr_lr'
I23
tp1729
a(S'w'
I3
tp1730
a(S'tr_ll'
I1
tp1731
a(S'w'
I5117
tp1732
a(S'p1_vo'
I2
tp1733
a(S'w'
I5
tp1734
a(S'p2_vo'
I2
tp1735
a(S'w'
I6600
tp1736
a(S'p1_vo'
I3
tp1737
a(S'w'
I6
tp1738
a(S'p1_tl'
I225
tp1739
a(S'w'
I18
tp1740
a(S'p2_vo'
I3
tp1741
a(S'w'
I5
tp1742
a(S'p2_tl'
I224
tp1743
a(S'w'
I21
tp1744
a(S'tr_ll'
I1
tp1745
a(S'tr_th'
I1
tp1746
a(S'w'
I2
tp1747
a(S'tr_tl'
I29
tp1748
a(S'w'
I6
tp1749
a(S'no_vo'
I14
tp1750
a(S'w'
I3
tp1751
a(S'no_ll'
I1
tp1752
a(S'w'
I1
tp1753
a(S'no_np'
I6
tp1754
a(S'w'
I667
tp1755
a(S'no_vo'
I9
tp1756
a(S'w'
I2
tp1757
a(S'no_ll'
I1
tp1758
a(S'w'
I2
tp1759
a(S'no_np'
I5
tp1760
a(S'w'
I728
tp1761
a(S'no_vo'
I6
tp1762
a(S'w'
I2
tp1763
a(S'no_ll'
I1
tp1764
a(S'w'
I2
tp1765
a(S'no_np'
I7
tp1766
a(S'w'
I729
tp1767
a(S'no_vo'
I0
tp1768
a(S'w'
I8783
tp1769
a(S'p1_vo'
I2
tp1770
a(S'w'
I5
tp1771
a(S'p2_vo'
I2
tp1772
a(S'w'
I738
tp1773
a(S'p1_vo'
I3
tp1774
a(S'w'
I5
tp1775
a(S'p1_ll'
I1
tp1776
a(S'p1_th'
I2
tp1777
a(S'w'
I2
tp1778
a(S'p1_tl'
I60
tp1779
a(S'w'
I16
tp1780
a(S'p2_vo'
I3
tp1781
a(S'w'
I5
tp1782
a(S'p2_ll'
I1
tp1783
a(S'p2_th'
I2
tp1784
a(S'w'
I1
tp1785
a(S'p2_tl'
I59
tp1786
a(S'w'
I21
tp1787
a(S'tr_ll'
I1
tp1788
a(S'w'
I1
tp1789
a(S'tr_tl'
I224
tp1790
a(S'w'
I7
tp1791
a(S'no_vo'
I12
tp1792
a(S'w'
I2
tp1793
a(S'no_ll'
I1
tp1794
a(S'w'
I1
tp1795
a(S'no_np'
I2
tp1796
a(S'w'
I669
tp1797
a(S'no_vo'
I0
tp1798
a(S'w'
I5135
tp1799
a(S'p1_ll'
I1
tp1800
a(S'p1_th'
I1
tp1801
a(S'w'
I2
tp1802
a(S'p1_tl'
I253
tp1803
a(S'w'
I21
tp1804
a(S'p2_ll'
I1
tp1805
a(S'p2_th'
I1
tp1806
a(S'w'
I1
tp1807
a(S'p2_tl'
I252
tp1808
a(S'w'
I8
tp1809
a(S'tr_ll'
I1
tp1810
a(S'tr_th'
I2
tp1811
a(S'w'
I2
tp1812
a(S'tr_tl'
I59
tp1813
a(S'w'
I5823
tp1814
a(S'p1_vo'
I1
tp1815
a(S'w'
I6
tp1816
a(S'p1_tl'
I30
tp1817
a(S'w'
I17
tp1818
a(S'p2_du'
I1
tp1819
a(S'p2_vo'
I6
tp1820
a(S'w'
I5
tp1821
a(S'p2_ll'
I1
tp1822
a(S'p2_th'
I2
tp1823
a(S'w'
I1
tp1824
a(S'p2_tl'
I250
tp1825
a(S'w'
I8
tp1826
a(S'ch_no'
I1
tp1827
a(S'ch_tr'
I1
tp1828
a(S'ch_p2'
I1
tp1829
a(S'ch_p1'
I1
tp1830
a(S'w'
I1
tp1831
a(S'ch_no'
I1
tp1832
a(S'ch_tr'
I1
tp1833
a(S'ch_p2'
I1
tp1834
a(S'ch_p1'
I1
tp1835
a(S'w'
I6
tp1836
a(S'tr_ll'
I1
tp1837
a(S'tr_th'
I1
tp1838
a(S'w'
I1
tp1839
a(S'tr_tl'
I125
tp1840
a(S'w'
I679
tp1841
a(S'p1_vo'
I2
tp1842
a(S'w'
I6
tp1843
a(S'p2_vo'
I5
tp1844
a(S'w'
I726
tp1845
a(S'p1_vo'
I4
tp1846
a(S'w'
I6
tp1847
a(S'p2_vo'
I4
tp1848
a(S'w'
I727
tp1849
a(S'p1_vo'
I5
tp1850
a(S'w'
I6
tp1851
a(S'p2_vo'
I3
tp1852
a(S'w'
I726
tp1853
a(S'p1_vo'
I4
tp1854
a(S'w'
I732
tp1855
a(S'p1_vo'
I2
tp1856
a(S'w'
I737
tp1857
a(S'p2_vo'
I2
tp1858
a(S'w'
I2198
tp1859
a(S'p2_vo'
I3
tp1860
a(S'w'
I2197
tp1861
a(S'p2_vo'
I2
tp1862
a(S'w'
I2199
tp1863
a(S'p2_vo'
I3
tp1864
a(S'w'
I736
tp1865
a(S'p2_vo'
I6
tp1866
a(S'w'
I5
tp1867
a(S'w'
I6
tp1868
a(S'ch_no'
I1
tp1869
a(S'ch_tr'
I1
tp1870
a(S'ch_p2'
I1
tp1871
a(S'ch_p1'
I1
tp1872
a(S'w'
I1
tp1873
a(S'ch_no'
I1
tp1874
a(S'ch_tr'
I1
tp1875
a(S'ch_p2'
I1
tp1876
a(S'ch_p1'
I1
tp1877
a(S'w'
I6
tp1878
a(S'tr_ll'
I1
tp1879
a(S'w'
I712
tp1880
a(S'p2_vo'
I5
tp1881
a(S'w'
I732
tp1882
a(S'p2_vo'
I4
tp1883
a(S'w'
I732
tp1884
a(S'p2_vo'
I3
tp1885
a(S'w'
I2197
tp1886
a(S'p2_vo'
I2
tp1887
a(S'w'
I1465
tp1888
a(S'p1_vo'
I1
tp1889
a(S'w'
I5
tp1890
a(S'p1_tl'
I47
tp1891
a(S'w'
I724
tp1892
a(S'p1_vo'
I2
tp1893
a(S'w'
I7
tp1894
a(S'p2_vo'
I3
tp1895
a(S'w'
I726
tp1896
a(S'p1_vo'
I4
tp1897
a(S'w'
I733
tp1898
a(S'p1_vo'
I5
tp1899
a(S'w'
I732
tp1900
a(S'p1_vo'
I4
tp1901
a(S'w'
I6
tp1902
a(S'p2_vo'
I2
tp1903
a(S'w'
I727
tp1904
a(S'p1_vo'
I2
tp1905
a(S'w'
I1470
tp1906
a(S'p2_vo'
I3
tp1907
a(S'w'
I738
tp1908
a(S'p2_vo'
I6
tp1909
a(S'w'
I5
tp1910
a(S'p2_ll'
I1
tp1911
a(S'p2_th'
I1
tp1912
a(S'w'
I1
tp1913
a(S'p2_tl'
I125
tp1914
a(S'w'
I22
tp1915
a(S'tr_ll'
I1
tp1916
a(S'tr_th'
I0
tp1917
a(S'w'
I1
tp1918
a(S'tr_tl'
I190
tp1919
a(S'w'
I7
tp1920
a(S'no_vo'
I14
tp1921
a(S'w'
I2
tp1922
a(S'no_ll'
I1
tp1923
a(S'w'
I1
tp1924
a(S'no_np'
I6
tp1925
a(S'w'
I686
tp1926
a(S'p2_vo'
I5
tp1927
a(S'w'
I8
tp1928
a(S'no_vo'
I9
tp1929
a(S'w'
I2
tp1930
a(S'no_ll'
I1
tp1931
a(S'w'
I1
tp1932
a(S'no_np'
I5
tp1933
a(S'w'
I722
tp1934
a(S'p2_vo'
I4
tp1935
a(S'w'
I8
tp1936
a(S'no_vo'
I6
tp1937
a(S'w'
I2
tp1938
a(S'no_ll'
I1
tp1939
a(S'w'
I1
tp1940
a(S'no_np'
I7
tp1941
a(S'w'
I721
tp1942
a(S'p2_vo'
I3
tp1943
a(S'w'
I8
tp1944
a(S'no_vo'
I0
tp1945
a(S'w'
I2190
tp1946
a(S'p2_vo'
I2
tp1947
a(S'w'
I2199
tp1948
a(S'p2_vo'
I3
tp1949
a(S'w'
I2197
tp1950
a(S'p2_vo'
I2
tp1951
a(S'w'
I2200
tp1952
a(S'p2_vo'
I3
tp1953
a(S'w'
I730
tp1954
a(S'p1_vo'
I1
tp1955
a(S'w'
I5
tp1956
a(S'p1_ll'
I1
tp1957
a(S'p1_th'
I0
tp1958
a(S'w'
I1
tp1959
a(S'p1_tl'
I255
tp1960
a(S'w'
I13
tp1961
a(S'p2_vo'
I6
tp1962
a(S'w'
I5
tp1963
a(S'p2_ll'
I1
tp1964
a(S'p2_th'
I2
tp1965
a(S'w'
I1
tp1966
a(S'p2_tl'
I250
tp1967
a(S'w'
I21
tp1968
a(S'tr_ll'
I1
tp1969
a(S'tr_th'
I1
tp1970
a(S'w'
I1
tp1971
a(S'tr_tl'
I125
tp1972
a(S'w'
I7
tp1973
a(S'no_vo'
I12
tp1974
a(S'w'
I3
tp1975
a(S'no_ll'
I1
tp1976
a(S'w'
I1
tp1977
a(S'no_np'
I2
tp1978
a(S'w'
I672
tp1979
a(S'p1_vo'
I2
tp1980
a(S'w'
I6
tp1981
a(S'p2_vo'
I5
tp1982
a(S'w'
I7
tp1983
a(S'no_vo'
I0
tp1984
a(S'w'
I719
tp1985
a(S'p1_vo'
I4
tp1986
a(S'w'
I6
tp1987
a(S'p2_vo'
I4
tp1988
a(S'w'
I727
tp1989
a(S'p1_vo'
I5
tp1990
a(S'w'
I6
tp1991
a(S'p2_vo'
I3
tp1992
a(S'w'
I727
tp1993
a(S'p1_vo'
I4
tp1994
a(S'w'
I732
tp1995
a(S'p1_vo'
I2
tp1996
a(S'w'
I737
tp1997
a(S'p2_vo'
I2
tp1998
a(S'w'
I1469
tp1999
a(S'p2_vo'
I6
tp2000
a(S'w'
I5
tp2001
a(S'w'
I19
tp2002
a(S'tr_ll'
I1
tp2003
a(S'w'
I8
tp2004
a(S'no_vo'
I12
tp2005
a(S'w'
I2
tp2006
a(S'no_ll'
I1
tp2007
a(S'w'
I1
tp2008
a(S'w'
I693
tp2009
a(S'p2_vo'
I5
tp2010
a(S'w'
I8
tp2011
a(S'no_vo'
I0
tp2012
a(S'w'
I724
tp2013
a(S'p2_vo'
I4
tp2014
a(S'w'
I733
tp2015
a(S'p2_vo'
I3
tp2016
a(S'w'
I2198
tp2017
a(S'p2_vo'
I2
tp2018
a(S'w'
I1470
tp2019
a(S'p2_vo'
I6
tp2020
a(S'w'
I5
tp2021
a(S'p2_tl'
I59
tp2022
a(S'w'
I6
tp2023
a(S'ch_no'
I1
tp2024
a(S'ch_tr'
I1
tp2025
a(S'ch_p2'
I1
tp2026
a(S'ch_p1'
I1
tp2027
a(S'ch_no'
I1
tp2028
a(S'ch_tr'
I1
tp2029
a(S'ch_p2'
I1
tp2030
a(S'ch_p1'
I1
tp2031
a(S'w'
I6
tp2032
a(S'tr_ll'
I1
tp2033
a(S'w'
I2
tp2034
a(S'tr_tl'
I171
tp2035
a(S'w'
I710
tp2036
a(S'p2_vo'
I5
tp2037
a(S'w'
I733
tp2038
a(S'p2_vo'
I4
tp2039
a(S'w'
I732
tp2040
a(S'p2_vo'
I3
tp2041
a(S'w'
I2196
tp2042
a(S'p2_vo'
I2
tp2043
a(S'w'
I1467
tp2044
a(S'p1_vo'
I1
tp2045
a(S'w'
I6
tp2046
a(S'p1_tl'
I214
tp2047
a(S'w'
I12
tp2048
a(S'p2_vo'
I6
tp2049
a(S'w'
I5
tp2050
a(S'p2_tl'
I27
tp2051
a(S'w'
I19
tp2052
a(S'tr_ll'
I1
tp2053
a(S'w'
I1
tp2054
a(S'tr_tl'
I147
tp2055
a(S'w'
I7
tp2056
a(S'no_vo'
I12
tp2057
a(S'w'
I2
tp2058
a(S'no_ll'
I1
tp2059
a(S'w'
I1
tp2060
a(S'w'
I675
tp2061
a(S'p1_vo'
I2
tp2062
a(S'w'
I6
tp2063
a(S'p2_vo'
I5
tp2064
a(S'w'
I7
tp2065
a(S'no_vo'
I0
tp2066
a(S'w'
I720
tp2067
a(S'p1_vo'
I4
tp2068
a(S'w'
I6
tp2069
a(S'p2_vo'
I4
tp2070
a(S'w'
I726
tp2071
a(S'p1_vo'
I5
tp2072
a(S'w'
I6
tp2073
a(S'p2_vo'
I3
tp2074
a(S'w'
I727
tp2075
a(S'p1_vo'
I4
tp2076
a(S'w'
I733
tp2077
a(S'p1_vo'
I2
tp2078
a(S'w'
I736
tp2079
a(S'p2_vo'
I2
tp2080
a(S'w'
I1469
tp2081
a(S'p2_vo'
I6
tp2082
a(S'w'
I5
tp2083
a(S'p2_ll'
I1
tp2084
a(S'p2_th'
I1
tp2085
a(S'w'
I1
tp2086
a(S'p2_tl'
I252
tp2087
a(S'w'
I6
tp2088
a(S'ch_no'
I1
tp2089
a(S'ch_tr'
I1
tp2090
a(S'ch_p2'
I1
tp2091
a(S'ch_p1'
I1
tp2092
a(S'w'
I1
tp2093
a(S'ch_no'
I1
tp2094
a(S'ch_tr'
I1
tp2095
a(S'ch_p2'
I1
tp2096
a(S'ch_p1'
I1
tp2097
a(S'w'
I6
tp2098
a(S'tr_ll'
I1
tp2099
a(S'w'
I1
tp2100
a(S'tr_tl'
I125
tp2101
a(S'w'
I710
tp2102
a(S'p2_vo'
I5
tp2103
a(S'w'
I733
tp2104
a(S'p2_vo'
I4
tp2105
a(S'w'
I731
tp2106
a(S'p2_vo'
I3
tp2107
a(S'w'
I2197
tp2108
a(S'p2_vo'
I2
tp2109
a(S'w'
I2199
tp2110
a(S'p2_vo'
I3
tp2111
a(S'w'
I2197
tp2112
a(S'p2_vo'
I2
tp2113
a(S'w'
I2200
tp2114
a(S'p2_vo'
I3
tp2115
a(S'w'
I729
tp2116
a(S'p1_vo'
I1
tp2117
a(S'w'
I6
tp2118
a(S'p1_tl'
I180
tp2119
a(S'w'
I14
tp2120
a(S'p2_vo'
I6
tp2121
a(S'w'
I5
tp2122
a(S'p2_tl'
I125
tp2123
a(S'w'
I22
tp2124
a(S'tr_ll'
I1
tp2125
a(S'tr_th'
I0
tp2126
a(S'w'
I1
tp2127
a(S'tr_tl'
I190
tp2128
a(S'w'
I7
tp2129
a(S'no_vo'
I14
tp2130
a(S'w'
I2
tp2131
a(S'no_ll'
I1
tp2132
a(S'w'
I1
tp2133
a(S'no_np'
I6
tp2134
a(S'w'
I673
tp2135
a(S'p1_vo'
I2
tp2136
a(S'w'
I6
tp2137
a(S'p2_vo'
I5
tp2138
a(S'w'
I7
tp2139
a(S'no_vo'
I9
tp2140
a(S'w'
I2
tp2141
a(S'no_ll'
I1
tp2142
a(S'w'
I2
tp2143
a(S'no_np'
I5
tp2144
a(S'w'
I715
tp2145
a(S'p1_vo'
I4
tp2146
a(S'w'
I6
tp2147
a(S'p2_vo'
I4
tp2148
a(S'w'
I7
tp2149
a(S'no_vo'
I6
tp2150
a(S'w'
I2
tp2151
a(S'no_ll'
I1
tp2152
a(S'w'
I2
tp2153
a(S'no_np'
I7
tp2154
a(S'w'
I716
tp2155
a(S'p1_vo'
I5
tp2156
a(S'w'
I6
tp2157
a(S'p2_vo'
I3
tp2158
a(S'w'
I7
tp2159
a(S'no_vo'
I0
tp2160
a(S'w'
I720
tp2161
a(S'p1_vo'
I4
tp2162
a(S'w'
I732
tp2163
a(S'p1_vo'
I2
tp2164
a(S'w'
I737
tp2165
a(S'p2_vo'
I2
tp2166
a(S'w'
I2198
tp2167
a(S'p2_vo'
I3
tp2168
a(S'w'
I2196
tp2169
a(S'p2_vo'
I2
tp2170
a(S'w'
I2200
tp2171
a(S'p2_vo'
I3
tp2172
a(S'w'
I730
tp2173
a(S'p1_vo'
I1
tp2174
a(S'w'
I6
tp2175
a(S'p1_tl'
I152
tp2176
a(S'w'
I14
tp2177
a(S'p2_vo'
I6
tp2178
a(S'w'
I4
tp2179
a(S'p2_ll'
I1
tp2180
a(S'p2_th'
I2
tp2181
a(S'w'
I2
tp2182
a(S'p2_tl'
I250
tp2183
a(S'w'
I21
tp2184
a(S'tr_ll'
I1
tp2185
a(S'tr_th'
I1
tp2186
a(S'w'
I1
tp2187
a(S'tr_tl'
I125
tp2188
a(S'w'
I7
tp2189
a(S'no_vo'
I12
tp2190
a(S'w'
I2
tp2191
a(S'no_ll'
I1
tp2192
a(S'w'
I1
tp2193
a(S'no_np'
I2
tp2194
a(S'w'
I672
tp2195
a(S'p1_vo'
I2
tp2196
a(S'w'
I6
tp2197
a(S'p2_vo'
I5
tp2198
a(S'w'
I7
tp2199
a(S'no_vo'
I0
tp2200
a(S'w'
I720
tp2201
a(S'p1_vo'
I4
tp2202
a(S'w'
I6
tp2203
a(S'p2_vo'
I4
tp2204
a(S'w'
I727
tp2205
a(S'p1_vo'
I5
tp2206
a(S'w'
I6
tp2207
a(S'p2_vo'
I3
tp2208
a(S'w'
I726
tp2209
a(S'p1_vo'
I4
tp2210
a(S'w'
I733
tp2211
a(S'p1_vo'
I2
tp2212
a(S'w'
I736
tp2213
a(S'p2_vo'
I2
tp2214
a(S'w'
I2198
tp2215
a(S'p2_vo'
I3
tp2216
a(S'w'
I2197
tp2217
a(S'p2_vo'
I2
tp2218
a(S'w'
I2200
tp2219
a(S'p2_vo'
I3
tp2220
a(S'w'
I750
tp2221
a(S'p1_vo'
I3
tp2222
a(S'w'
I5
tp2223
a(S'p1_tl'
I241
tp2224
a(S'w'
I30
tp2225
a(S'p2_du'
I3
tp2226
a(S'w'
I5
tp2227
a(S'p2_ll'
I1
tp2228
a(S'p2_th'
I0
tp2229
a(S'w'
I2
tp2230
a(S'p2_tl'
I240
tp2231
a(S'w'
I13
tp2232
a(S'ch_no'
I1
tp2233
a(S'ch_tr'
I1
tp2234
a(S'ch_p2'
I1
tp2235
a(S'ch_p1'
I1
tp2236
a(S'w'
I1
tp2237
a(S'ch_no'
I1
tp2238
a(S'ch_tr'
I1
tp2239
a(S'ch_p2'
I1
tp2240
a(S'ch_p1'
I1
tp2241
a(S'w'
I5
tp2242
a(S'tr_ll'
I1
tp2243
a(S'tr_th'
I2
tp2244
a(S'w'
I2
tp2245
a(S'tr_tl'
I59
tp2246
a(S'w'
I10902
tp2247
a(S'p1_vo'
I2
tp2248
a(S'w'
I5
tp2249
a(S'p2_vo'
I2
tp2250
a(S'w'
I740
tp2251
a(S'p1_vo'
I3
tp2252
a(S'w'
I5
tp2253
a(S'p1_ll'
I1
tp2254
a(S'p1_th'
I2
tp2255
a(S'w'
I1
tp2256
a(S'p1_tl'
I251
tp2257
a(S'w'
I18
tp2258
a(S'p2_vo'
I3
tp2259
a(S'w'
I5
tp2260
a(S'p2_ll'
I1
tp2261
a(S'p2_th'
I2
tp2262
a(S'w'
I2
tp2263
a(S'p2_tl'
I250
tp2264
a(S'w'
I5
tp2265
a(S'ch_no'
I1
tp2266
a(S'ch_tr'
I1
tp2267
a(S'ch_p2'
I1
tp2268
a(S'ch_p1'
I1
tp2269
a(S'w'
I1
tp2270
a(S'ch_no'
I1
tp2271
a(S'ch_tr'
I1
tp2272
a(S'ch_p2'
I1
tp2273
a(S'ch_p1'
I1
tp2274
a(S'w'
I6
tp2275
a(S'tr_ll'
I1
tp2276
a(S'w'
I5824
tp2277
a(S'p1_ll'
I1
tp2278
a(S'p1_th'
I1
tp2279
a(S'w'
I2
tp2280
a(S'p1_tl'
I126
tp2281
a(S'w'
I24
tp2282
a(S'p2_ll'
I1
tp2283
a(S'p2_th'
I1
tp2284
a(S'w'
I1
tp2285
a(S'p2_tl'
I125
tp2286
a(S'w'
I5835
tp2287
a(S'tr_ll'
I1
tp2288
a(S'tr_th'
I1
tp2289
a(S'w'
I1
tp2290
a(S'tr_tl'
I224
tp2291
a(S'w'
I7
tp2292
a(S'no_vo'
I14
tp2293
a(S'w'
I2
tp2294
a(S'no_ll'
I1
tp2295
a(S'w'
I1
tp2296
a(S'no_np'
I6
tp2297
a(S'w'
I710
tp2298
a(S'no_vo'
I9
tp2299
a(S'w'
I2
tp2300
a(S'no_ll'
I1
tp2301
a(S'w'
I2
tp2302
a(S'no_np'
I5
tp2303
a(S'w'
I729
tp2304
a(S'no_vo'
I6
tp2305
a(S'w'
I2
tp2306
a(S'no_ll'
I1
tp2307
a(S'w'
I2
tp2308
a(S'no_np'
I7
tp2309
a(S'w'
I729
tp2310
a(S'no_vo'
I0
tp2311
a(S'w'
I2922
tp2312
a(S'p1_vo'
I2
tp2313
a(S'w'
I5
tp2314
a(S'p2_vo'
I2
tp2315
a(S'w'
I736
tp2316
a(S'tr_ll'
I1
tp2317
a(S'w'
I1
tp2318
a(S'tr_tl'
I252
tp2319
a(S'w'
I5862
tp2320
a(S'p1_vo'
I3
tp2321
a(S'w'
I6
tp2322
a(S'p1_tl'
I148
tp2323
a(S'w'
I17
tp2324
a(S'p2_vo'
I3
tp2325
a(S'w'
I6
tp2326
a(S'p2_tl'
I147
tp2327
a(S'w'
I19
tp2328
a(S'tr_ll'
I1
tp2329
a(S'tr_th'
I2
tp2330
a(S'w'
I1
tp2331
a(S'tr_tl'
I59
tp2332
a(S'w'
I7
tp2333
a(S'no_vo'
I12
tp2334
a(S'w'
I2
tp2335
a(S'no_ll'
I1
tp2336
a(S'w'
I1
tp2337
a(S'no_np'
I2
tp2338
a(S'w'
I671
tp2339
a(S'no_vo'
I0
tp2340
a(S'w'
I5140
tp2341
a(S'tr_ll'
I1
tp2342
a(S'w'
I2
tp2343
a(S'tr_tl'
I250
tp2344
a(S'w'
I6
tp2345
a(S'no_vo'
I12
tp2346
a(S'w'
I3
tp2347
a(S'no_ll'
I1
tp2348
a(S'w'
I1
tp2349
a(S'w'
I709
tp2350
a(S'no_vo'
I0
tp2351
a(S'w'
I4387
tp2352
a(S'p1_vo'
I2
tp2353
a(S'w'
I5
tp2354
a(S'p2_vo'
I2
tp2355
a(S'w'
I747
tp2356
a(S'tr_ll'
I1
tp2357
a(S'w'
I1
tp2358
a(S'tr_tl'
I59
tp2359
a(S'w'
I7
tp2360
a(S'no_vo'
I12
tp2361
a(S'w'
I2
tp2362
a(S'no_ll'
I1
tp2363
a(S'w'
I1
tp2364
a(S'w'
I711
tp2365
a(S'no_vo'
I0
tp2366
a(S'w'
I5131
tp2367
a(S'p1_vo'
I3
tp2368
a(S'w'
I6
tp2369
a(S'p1_tl'
I172
tp2370
a(S'w'
I17
tp2371
a(S'p2_vo'
I3
tp2372
a(S'w'
I6
tp2373
a(S'p2_tl'
I171
tp2374
a(S'w'
I17
tp2375
a(S'tr_lr'
I0
tp2376
a(S'w'
I7
tp2377
a(S'no_vo'
I12
tp2378
a(S'w'
I2
tp2379
a(S'no_ll'
I1
tp2380
a(S'w'
I1
tp2381
a(S'w'
I673
tp2382
a(S'no_vo'
I0
tp2383
a(S'w'
I5127
tp2384
a(S'ch_no'
I1
tp2385
a(S'ch_tr'
I1
tp2386
a(S'ch_p2'
I1
tp2387
a(S'ch_p1'
I1
tp2388
a(S'w'
I1
tp2389
a(S'ch_no'
I1
tp2390
a(S'ch_tr'
I1
tp2391
a(S'ch_p2'
I1
tp2392
a(S'ch_p1'
I1
tp2393
a(S'w'
I2
tp2394
a(S'tr_lr'
I23
tp2395
a(S'w'
I3
tp2396
a(S'tr_ll'
I1
tp2397
a(S'w'
I5116
tp2398
a(S'p1_vo'
I2
tp2399
a(S'w'
I5
tp2400
a(S'p2_vo'
I2
tp2401
a(S'w'
I6600
tp2402
a(S'p1_vo'
I3
tp2403
a(S'w'
I6
tp2404
a(S'p1_tl'
I225
tp2405
a(S'w'
I18
tp2406
a(S'p2_vo'
I3
tp2407
a(S'w'
I5
tp2408
a(S'p2_tl'
I224
tp2409
a(S'w'
I21
tp2410
a(S'tr_ll'
I1
tp2411
a(S'tr_th'
I1
tp2412
a(S'w'
I2
tp2413
a(S'tr_tl'
I29
tp2414
a(S'w'
I6
tp2415
a(S'no_vo'
I14
tp2416
a(S'w'
I3
tp2417
a(S'no_ll'
I1
tp2418
a(S'w'
I1
tp2419
a(S'no_np'
I6
tp2420
a(S'w'
I667
tp2421
a(S'no_vo'
I9
tp2422
a(S'w'
I2
tp2423
a(S'no_ll'
I1
tp2424
a(S'w'
I2
tp2425
a(S'no_np'
I5
tp2426
a(S'w'
I728
tp2427
a(S'no_vo'
I6
tp2428
a(S'w'
I2
tp2429
a(S'no_ll'
I1
tp2430
a(S'w'
I2
tp2431
a(S'no_np'
I7
tp2432
a(S'w'
I729
tp2433
a(S'no_vo'
I0
tp2434
a(S'w'
I8783
tp2435
a(S'p1_vo'
I2
tp2436
a(S'w'
I5
tp2437
a(S'p2_vo'
I2
tp2438
a(S'w'
I738
tp2439
a(S'p1_vo'
I3
tp2440
a(S'w'
I5
tp2441
a(S'p1_ll'
I1
tp2442
a(S'p1_th'
I2
tp2443
a(S'w'
I2
tp2444
a(S'p1_tl'
I60
tp2445
a(S'w'
I16
tp2446
a(S'p2_vo'
I3
tp2447
a(S'w'
I5
tp2448
a(S'p2_ll'
I1
tp2449
a(S'p2_th'
I2
tp2450
a(S'w'
I1
tp2451
a(S'p2_tl'
I59
tp2452
a(S'w'
I21
tp2453
a(S'tr_ll'
I1
tp2454
a(S'w'
I1
tp2455
a(S'tr_tl'
I224
tp2456
a(S'w'
I7
tp2457
a(S'no_vo'
I12
tp2458
a(S'w'
I2
tp2459
a(S'no_ll'
I1
tp2460
a(S'w'
I1
tp2461
a(S'no_np'
I2
tp2462
a(S'w'
I670
tp2463
a(S'no_vo'
I0
tp2464
a(S'w'
I5135
tp2465
a(S'p1_ll'
I1
tp2466
a(S'p1_th'
I1
tp2467
a(S'w'
I2
tp2468
a(S'p1_tl'
I253
tp2469
a(S'w'
I21
tp2470
a(S'p2_ll'
I1
tp2471
a(S'p2_th'
I1
tp2472
a(S'w'
I1
tp2473
a(S'p2_tl'
I252
tp2474
a(S'w'
I8
tp2475
a(S'tr_ll'
I1
tp2476
a(S'tr_th'
I2
tp2477
a(S'w'
I2
tp2478
a(S'tr_tl'
I59
tp2479
a(S'w'
I5823
tp2480
a(S'p1_vo'
I1
tp2481
a(S'w'
I6
tp2482
a(S'p1_tl'
I30
tp2483
a(S'w'
I17
tp2484
a(S'p2_du'
I1
tp2485
a(S'p2_vo'
I6
tp2486
a(S'w'
I5
tp2487
a(S'p2_ll'
I1
tp2488
a(S'p2_th'
I2
tp2489
a(S'w'
I1
tp2490
a(S'p2_tl'
I250
tp2491
a(S'w'
I8
tp2492
a(S'ch_no'
I1
tp2493
a(S'ch_tr'
I1
tp2494
a(S'ch_p2'
I1
tp2495
a(S'ch_p1'
I1
tp2496
a(S'w'
I1
tp2497
a(S'ch_no'
I1
tp2498
a(S'ch_tr'
I1
tp2499
a(S'ch_p2'
I1
tp2500
a(S'ch_p1'
I1
tp2501
a(S'w'
I6
tp2502
a(S'tr_ll'
I1
tp2503
a(S'tr_th'
I1
tp2504
a(S'w'
I1
tp2505
a(S'tr_tl'
I125
tp2506
a(S'w'
I678
tp2507
a(S'p1_vo'
I2
tp2508
a(S'w'
I6
tp2509
a(S'p2_vo'
I5
tp2510
a(S'w'
I727
tp2511
a(S'p1_vo'
I4
tp2512
a(S'w'
I6
tp2513
a(S'p2_vo'
I4
tp2514
a(S'w'
I726
tp2515
a(S'p1_vo'
I5
tp2516
a(S'w'
I6
tp2517
a(S'p2_vo'
I3
tp2518
a(S'w'
I726
tp2519
a(S'p1_vo'
I4
tp2520
a(S'w'
I733
tp2521
a(S'p1_vo'
I2
tp2522
a(S'w'
I736
tp2523
a(S'p2_vo'
I2
tp2524
a(S'w'
I2198
tp2525
a(S'p2_vo'
I3
tp2526
a(S'w'
I2197
tp2527
a(S'p2_vo'
I2
tp2528
a(S'w'
I2200
tp2529
a(S'p2_vo'
I3
tp2530
a(S'w'
I735
tp2531
a(S'p2_vo'
I6
tp2532
a(S'w'
I5
tp2533
a(S'w'
I6
tp2534
a(S'ch_no'
I1
tp2535
a(S'ch_tr'
I1
tp2536
a(S'ch_p2'
I1
tp2537
a(S'ch_p1'
I1
tp2538
a(S'w'
I1
tp2539
a(S'ch_no'
I1
tp2540
a(S'ch_tr'
I1
tp2541
a(S'ch_p2'
I1
tp2542
a(S'ch_p1'
I1
tp2543
a(S'w'
I6
tp2544
a(S'tr_ll'
I1
tp2545
a(S'w'
I712
tp2546
a(S'p2_vo'
I5
tp2547
a(S'w'
I732
tp2548
a(S'p2_vo'
I4
tp2549
a(S'w'
I732
tp2550
a(S'p2_vo'
I3
tp2551
a(S'w'
I2197
tp2552
a(S'p2_vo'
I2
tp2553
a(S'w'
I1465
tp2554
a(S'p1_vo'
I1
tp2555
a(S'w'
I5
tp2556
a(S'p1_tl'
I47
tp2557
a(S'w'
I725
tp2558
a(S'p1_vo'
I2
tp2559
a(S'w'
I7
tp2560
a(S'p2_vo'
I3
tp2561
a(S'w'
I725
tp2562
a(S'p1_vo'
I4
tp2563
a(S'w'
I733
tp2564
a(S'p1_vo'
I5
tp2565
a(S'w'
I732
tp2566
a(S'p1_vo'
I4
tp2567
a(S'w'
I6
tp2568
a(S'p2_vo'
I2
tp2569
a(S'w'
I727
tp2570
a(S'p1_vo'
I2
tp2571
a(S'w'
I1470
tp2572
a(S'p2_vo'
I3
tp2573
a(S'w'
I738
tp2574
a(S'p2_vo'
I6
tp2575
a(S'w'
I5
tp2576
a(S'p2_ll'
I1
tp2577
a(S'p2_th'
I1
tp2578
a(S'w'
I1
tp2579
a(S'p2_tl'
I125
tp2580
a(S'w'
I22
tp2581
a(S'tr_ll'
I1
tp2582
a(S'tr_th'
I0
tp2583
a(S'w'
I1
tp2584
a(S'tr_tl'
I190
tp2585
a(S'w'
I7
tp2586
a(S'no_vo'
I14
tp2587
a(S'w'
I2
tp2588
a(S'no_ll'
I1
tp2589
a(S'w'
I1
tp2590
a(S'no_np'
I6
tp2591
a(S'w'
I686
tp2592
a(S'p2_vo'
I5
tp2593
a(S'w'
I8
tp2594
a(S'no_vo'
I9
tp2595
a(S'w'
I2
tp2596
a(S'no_ll'
I1
tp2597
a(S'w'
I1
tp2598
a(S'no_np'
I5
tp2599
a(S'w'
I722
tp2600
a(S'p2_vo'
I4
tp2601
a(S'w'
I8
tp2602
a(S'no_vo'
I6
tp2603
a(S'w'
I2
tp2604
a(S'no_ll'
I1
tp2605
a(S'w'
I1
tp2606
a(S'no_np'
I7
tp2607
a(S'w'
I722
tp2608
a(S'p2_vo'
I3
tp2609
a(S'w'
I8
tp2610
a(S'no_vo'
I0
tp2611
a(S'w'
I2189
tp2612
a(S'p2_vo'
I2
tp2613
a(S'w'
I2199
tp2614
a(S'p2_vo'
I3
tp2615
a(S'w'
I2197
tp2616
a(S'p2_vo'
I2
tp2617
a(S'w'
I2200
tp2618
a(S'p2_vo'
I3
tp2619
a(S'w'
I731
tp2620
a(S'p1_vo'
I1
tp2621
a(S'w'
I5
tp2622
a(S'p1_ll'
I1
tp2623
a(S'p1_th'
I0
tp2624
a(S'w'
I1
tp2625
a(S'p1_tl'
I255
tp2626
a(S'w'
I14
tp2627
a(S'p2_vo'
I6
tp2628
a(S'w'
I4
tp2629
a(S'p2_ll'
I1
tp2630
a(S'p2_th'
I2
tp2631
a(S'w'
I1
tp2632
a(S'p2_tl'
I250
tp2633
a(S'w'
I21
tp2634
a(S'tr_ll'
I1
tp2635
a(S'tr_th'
I1
tp2636
a(S'w'
I1
tp2637
a(S'tr_tl'
I125
tp2638
a(S'w'
I7
tp2639
a(S'no_vo'
I12
tp2640
a(S'w'
I3
tp2641
a(S'no_ll'
I1
tp2642
a(S'w'
I1
tp2643
a(S'no_np'
I2
tp2644
a(S'w'
I671
tp2645
a(S'p1_vo'
I2
tp2646
a(S'w'
I6
tp2647
a(S'p2_vo'
I5
tp2648
a(S'w'
I7
tp2649
a(S'no_vo'
I0
tp2650
a(S'w'
I720
tp2651
a(S'p1_vo'
I4
tp2652
a(S'w'
I6
tp2653
a(S'p2_vo'
I4
tp2654
a(S'w'
I726
tp2655
a(S'p1_vo'
I5
tp2656
a(S'w'
I6
tp2657
a(S'p2_vo'
I3
tp2658
a(S'w'
I727
tp2659
a(S'p1_vo'
I4
tp2660
a(S'w'
I733
tp2661
a(S'p1_vo'
I2
tp2662
a(S'w'
I736
tp2663
a(S'p2_vo'
I2
tp2664
a(S'w'
I1469
tp2665
a(S'p2_vo'
I6
tp2666
a(S'w'
I5
tp2667
a(S'w'
I19
tp2668
a(S'tr_ll'
I1
tp2669
a(S'w'
I8
tp2670
a(S'no_vo'
I12
tp2671
a(S'w'
I2
tp2672
a(S'no_ll'
I1
tp2673
a(S'w'
I2
tp2674
a(S'w'
I692
tp2675
a(S'p2_vo'
I5
tp2676
a(S'w'
I8
tp2677
a(S'no_vo'
I0
tp2678
a(S'w'
I725
tp2679
a(S'p2_vo'
I4
tp2680
a(S'w'
I732
tp2681
a(S'p2_vo'
I3
tp2682
a(S'w'
I2198
tp2683
a(S'p2_vo'
I2
tp2684
a(S'w'
I1470
tp2685
a(S'p2_vo'
I6
tp2686
a(S'w'
I5
tp2687
a(S'p2_tl'
I59
tp2688
a(S'w'
I6
tp2689
a(S'ch_no'
I1
tp2690
a(S'ch_tr'
I1
tp2691
a(S'ch_p2'
I1
tp2692
a(S'ch_p1'
I1
tp2693
a(S'ch_no'
I1
tp2694
a(S'ch_tr'
I1
tp2695
a(S'ch_p2'
I1
tp2696
a(S'ch_p1'
I1
tp2697
a(S'w'
I6
tp2698
a(S'tr_ll'
I1
tp2699
a(S'w'
I2
tp2700
a(S'tr_tl'
I171
tp2701
a(S'w'
I711
tp2702
a(S'p2_vo'
I5
tp2703
a(S'w'
I732
tp2704
a(S'p2_vo'
I4
tp2705
a(S'w'
I732
tp2706
a(S'p2_vo'
I3
tp2707
a(S'w'
I2197
tp2708
a(S'p2_vo'
I2
tp2709
a(S'w'
I1466
tp2710
a(S'p1_vo'
I1
tp2711
a(S'w'
I6
tp2712
a(S'p1_tl'
I214
tp2713
a(S'w'
I12
tp2714
a(S'p2_vo'
I6
tp2715
a(S'w'
I5
tp2716
a(S'p2_tl'
I27
tp2717
a(S'w'
I19
tp2718
a(S'tr_ll'
I1
tp2719
a(S'w'
I1
tp2720
a(S'tr_tl'
I147
tp2721
a(S'w'
I7
tp2722
a(S'no_vo'
I12
tp2723
a(S'w'
I2
tp2724
a(S'no_ll'
I1
tp2725
a(S'w'
I1
tp2726
a(S'w'
I676
tp2727
a(S'p1_vo'
I2
tp2728
a(S'w'
I6
tp2729
a(S'p2_vo'
I5
tp2730
a(S'w'
I7
tp2731
a(S'no_vo'
I0
tp2732
a(S'w'
I719
tp2733
a(S'p1_vo'
I4
tp2734
a(S'w'
I6
tp2735
a(S'p2_vo'
I4
tp2736
a(S'w'
I727
tp2737
a(S'p1_vo'
I5
tp2738
a(S'w'
I6
tp2739
a(S'p2_vo'
I3
tp2740
a(S'w'
I726
tp2741
a(S'p1_vo'
I4
tp2742
a(S'w'
I733
tp2743
a(S'p1_vo'
I2
tp2744
a(S'w'
I737
tp2745
a(S'p2_vo'
I2
tp2746
a(S'w'
I1469
tp2747
a(S'p2_vo'
I6
tp2748
a(S'w'
I5
tp2749
a(S'p2_ll'
I1
tp2750
a(S'p2_th'
I1
tp2751
a(S'w'
I1
tp2752
a(S'p2_tl'
I252
tp2753
a(S'w'
I6
tp2754
a(S'ch_no'
I1
tp2755
a(S'ch_tr'
I1
tp2756
a(S'ch_p2'
I1
tp2757
a(S'ch_p1'
I1
tp2758
a(S'w'
I1
tp2759
a(S'ch_no'
I1
tp2760
a(S'ch_tr'
I1
tp2761
a(S'ch_p2'
I1
tp2762
a(S'ch_p1'
I1
tp2763
a(S'w'
I6
tp2764
a(S'tr_ll'
I1
tp2765
a(S'w'
I1
tp2766
a(S'tr_tl'
I125
tp2767
a(S'w'
I709
tp2768
a(S'p2_vo'
I5
tp2769
a(S'w'
I733
tp2770
a(S'p2_vo'
I4
tp2771
a(S'w'
I732
tp2772
a(S'p2_vo'
I3
tp2773
a(S'w'
I2196
tp2774
a(S'p2_vo'
I2
tp2775
a(S'w'
I2199
tp2776
a(S'p2_vo'
I3
tp2777
a(S'w'
I2197
tp2778
a(S'p2_vo'
I2
tp2779
a(S'w'
I2200
tp2780
a(S'p2_vo'
I3
tp2781
a(S'w'
I729
tp2782
a(S'p1_vo'
I1
tp2783
a(S'w'
I6
tp2784
a(S'p1_tl'
I180
tp2785
a(S'w'
I14
tp2786
a(S'p2_vo'
I6
tp2787
a(S'w'
I5
tp2788
a(S'p2_tl'
I125
tp2789
a(S'w'
I22
tp2790
a(S'tr_ll'
I1
tp2791
a(S'tr_th'
I0
tp2792
a(S'w'
I1
tp2793
a(S'tr_tl'
I190
tp2794
a(S'w'
I7
tp2795
a(S'no_vo'
I14
tp2796
a(S'w'
I2
tp2797
a(S'no_ll'
I1
tp2798
a(S'w'
I1
tp2799
a(S'no_np'
I6
tp2800
a(S'w'
I673
tp2801
a(S'p1_vo'
I2
tp2802
a(S'w'
I6
tp2803
a(S'p2_vo'
I5
tp2804
a(S'w'
I7
tp2805
a(S'no_vo'
I9
tp2806
a(S'w'
I2
tp2807
a(S'no_ll'
I1
tp2808
a(S'w'
I2
tp2809
a(S'no_np'
I5
tp2810
a(S'w'
I716
tp2811
a(S'p1_vo'
I4
tp2812
a(S'w'
I6
tp2813
a(S'p2_vo'
I4
tp2814
a(S'w'
I7
tp2815
a(S'no_vo'
I6
tp2816
a(S'w'
I2
tp2817
a(S'no_ll'
I1
tp2818
a(S'w'
I2
tp2819
a(S'no_np'
I7
tp2820
a(S'w'
I715
tp2821
a(S'p1_vo'
I5
tp2822
a(S'w'
I6
tp2823
a(S'p2_vo'
I3
tp2824
a(S'w'
I7
tp2825
a(S'no_vo'
I0
tp2826
a(S'w'
I720
tp2827
a(S'p1_vo'
I4
tp2828
a(S'w'
I732
tp2829
a(S'p1_vo'
I2
tp2830
a(S'w'
I737
tp2831
a(S'p2_vo'
I2
tp2832
a(S'w'
I2198
tp2833
a(S'p2_vo'
I3
tp2834
a(S'w'
I2197
tp2835
a(S'p2_vo'
I2
tp2836
a(S'w'
I2199
tp2837
a(S'p2_vo'
I3
tp2838
a(S'w'
I730
tp2839
a(S'p1_vo'
I1
tp2840
a(S'w'
I6
tp2841
a(S'p1_tl'
I152
tp2842
a(S'w'
I14
tp2843
a(S'p2_vo'
I6
tp2844
a(S'w'
I4
tp2845
a(S'p2_ll'
I1
tp2846
a(S'p2_th'
I2
tp2847
a(S'w'
I2
tp2848
a(S'p2_tl'
I250
tp2849
a(S'w'
I21
tp2850
a(S'tr_ll'
I1
tp2851
a(S'tr_th'
I1
tp2852
a(S'w'
I1
tp2853
a(S'tr_tl'
I125
tp2854
a(S'w'
I7
tp2855
a(S'no_vo'
I12
tp2856
a(S'w'
I2
tp2857
a(S'no_ll'
I1
tp2858
a(S'w'
I1
tp2859
a(S'no_np'
I2
tp2860
a(S'w'
I673
tp2861
a(S'p1_vo'
I2
tp2862
a(S'w'
I6
tp2863
a(S'p2_vo'
I5
tp2864
a(S'w'
I7
tp2865
a(S'no_vo'
I0
tp2866
a(S'w'
I719
tp2867
a(S'p1_vo'
I4
tp2868
a(S'w'
I6
tp2869
a(S'p2_vo'
I4
tp2870
a(S'w'
I727
tp2871
a(S'p1_vo'
I5
tp2872
a(S'w'
I6
tp2873
a(S'p2_vo'
I3
tp2874
a(S'w'
I726
tp2875
a(S'p1_vo'
I4
tp2876
a(S'w'
I733
tp2877
a(S'p1_vo'
I2
tp2878
a(S'w'
I737
tp2879
a(S'p2_vo'
I2
tp2880
a(S'w'
I2197
tp2881
a(S'p2_vo'
I3
tp2882
a(S'w'
I2197
tp2883
a(S'p2_vo'
I2
tp2884
a(S'w'
I2200
tp2885
a(S'p2_vo'
I3
tp2886
a(S'w'
I743
tp2887
a(S'p1_du'
I2
tp2888
a(S'p1_vo'
I4
tp2889
a(S'w'
I7
tp2890
a(S'p1_tl'
I128
tp2891
a(S'w'
I16
tp2892
a(S'p2_vo'
I6
tp2893
a(S'w'
I5
tp2894
a(S'p2_tl'
I92
tp2895
a(S'w'
I12
tp2896
a(S'ch_no'
I1
tp2897
a(S'ch_tr'
I1
tp2898
a(S'ch_p2'
I1
tp2899
a(S'ch_p1'
I1
tp2900
a(S'w'
I1
tp2901
a(S'ch_no'
I1
tp2902
a(S'ch_tr'
I1
tp2903
a(S'ch_p2'
I1
tp2904
a(S'ch_p1'
I1
tp2905
a(S'w'
I2
tp2906
a(S'tr_lr'
I19
tp2907
a(S'w'
I3
tp2908
a(S'tr_ll'
I1
tp2909
a(S'tr_th'
I2
tp2910
a(S'w'
I1
tp2911
a(S'tr_tl'
I92
tp2912
a(S'w'
I674
tp2913
a(S'p2_vo'
I5
tp2914
a(S'w'
I733
tp2915
a(S'p2_vo'
I4
tp2916
a(S'w'
I733
tp2917
a(S'p2_vo'
I3
tp2918
a(S'w'
I1460
tp2919
a(S'p1_vo'
I3
tp2920
a(S'w'
I736
tp2921
a(S'p2_vo'
I2
tp2922
a(S'w'
I1471
tp2923
a(S'p2_vo'
I6
tp2924
a(S'w'
I4
tp2925
a(S'w'
I19
tp2926
a(S'tr_ll'
I1
tp2927
a(S'w'
I8
tp2928
a(S'no_vo'
I14
tp2929
a(S'w'
I3
tp2930
a(S'no_ll'
I1
tp2931
a(S'w'
I1
tp2932
a(S'no_np'
I6
tp2933
a(S'w'
I692
tp2934
a(S'p2_vo'
I5
tp2935
a(S'w'
I7
tp2936
a(S'no_vo'
I9
tp2937
a(S'w'
I2
tp2938
a(S'no_ll'
I1
tp2939
a(S'w'
I2
tp2940
a(S'no_np'
I5
tp2941
a(S'w'
I718
tp2942
a(S'p1_vo'
I2
tp2943
a(S'w'
I6
tp2944
a(S'p2_vo'
I4
tp2945
a(S'w'
I8
tp2946
a(S'no_vo'
I6
tp2947
a(S'w'
I2
tp2948
a(S'no_ll'
I1
tp2949
a(S'w'
I1
tp2950
a(S'no_np'
I7
tp2951
a(S'w'
I719
tp2952
a(S'p2_vo'
I3
tp2953
a(S'w'
I7
tp2954
a(S'no_vo'
I0
tp2955
a(S'w'
I2191
tp2956
a(S'p2_vo'
I2
tp2957
a(S'w'
I729
tp2958
a(S'p1_vo'
I1
tp2959
a(S'w'
I741
tp2960
a(S'p2_vo'
I6
tp2961
a(S'w'
I4
tp2962
a(S'w'
I19
tp2963
a(S'tr_ll'
I1
tp2964
a(S'w'
I8
tp2965
a(S'no_vo'
I12
tp2966
a(S'w'
I2
tp2967
a(S'no_ll'
I1
tp2968
a(S'w'
I2
tp2969
a(S'no_np'
I2
tp2970
a(S'w'
I693
tp2971
a(S'p2_vo'
I5
tp2972
a(S'w'
I7
tp2973
a(S'no_vo'
I0
tp2974
a(S'w'
I726
tp2975
a(S'p2_vo'
I4
tp2976
a(S'w'
I732
tp2977
a(S'p2_vo'
I3
tp2978
a(S'w'
I729
tp2979
a(S'p1_vo'
I0
tp2980
a(S'w'
I1469
tp2981
a(S'p2_vo'
I2
tp2982
a(S'w'
I1466
tp2983
a(S'p1_vo'
I4
tp2984
a(S'w'
I7
tp2985
a(S'p1_tl'
I191
tp2986
a(S'w'
I11
tp2987
a(S'p2_vo'
I6
tp2988
a(S'w'
I5
tp2989
a(S'w'
I19
tp2990
a(S'tr_ll'
I1
tp2991
a(S'w'
I8
tp2992
a(S'no_vo'
I14
tp2993
a(S'w'
I2
tp2994
a(S'no_ll'
I1
tp2995
a(S'w'
I1
tp2996
a(S'no_np'
I6
tp2997
a(S'w'
I679
tp2998
a(S'p2_vo'
I5
tp2999
a(S'w'
I7
tp3000
a(S'no_vo'
I9
tp3001
a(S'w'
I2
tp3002
a(S'no_ll'
I1
tp3003
a(S'w'
I2
tp3004
a(S'no_np'
I5
tp3005
a(S'w'
I721
tp3006
a(S'p2_vo'
I4
tp3007
a(S'w'
I7
tp3008
a(S'no_vo'
I6
tp3009
a(S'w'
I2
tp3010
a(S'no_ll'
I1
tp3011
a(S'w'
I2
tp3012
a(S'no_np'
I7
tp3013
a(S'w'
I722
tp3014
a(S'p2_vo'
I3
tp3015
a(S'w'
I7
tp3016
a(S'no_vo'
I0
tp3017
a(S'w'
I1454
tp3018
a(S'p1_vo'
I3
tp3019
a(S'w'
I737
tp3020
a(S'p2_vo'
I2
tp3021
a(S'w'
I1472
tp3022
a(S'p2_vo'
I6
tp3023
a(S'w'
I5
tp3024
a(S'p2_ll'
I1
tp3025
a(S'p2_th'
I0
tp3026
a(S'w'
I2
tp3027
a(S'p2_tl'
I190
tp3028
a(S'w'
I19
tp3029
a(S'tr_lr'
I53
tp3030
a(S'w'
I4
tp3031
a(S'tr_ll'
I1
tp3032
a(S'tr_th'
I1
tp3033
a(S'w'
I1
tp3034
a(S'tr_tl'
I252
tp3035
a(S'w'
I7
tp3036
a(S'no_vo'
I14
tp3037
a(S'w'
I2
tp3038
a(S'no_ll'
I1
tp3039
a(S'w'
I1
tp3040
a(S'no_np'
I6
tp3041
a(S'w'
I685
tp3042
a(S'p2_vo'
I5
tp3043
a(S'w'
I7
tp3044
a(S'no_vo'
I9
tp3045
a(S'w'
I2
tp3046
a(S'no_ll'
I1
tp3047
a(S'w'
I2
tp3048
a(S'no_np'
I5
tp3049
a(S'w'
I717
tp3050
a(S'p1_vo'
I2
tp3051
a(S'w'
I6
tp3052
a(S'p2_vo'
I4
tp3053
a(S'w'
I8
tp3054
a(S'no_vo'
I6
tp3055
a(S'w'
I2
tp3056
a(S'no_ll'
I1
tp3057
a(S'w'
I1
tp3058
a(S'no_np'
I7
tp3059
a(S'w'
I720
tp3060
a(S'p2_vo'
I3
tp3061
a(S'w'
I7
tp3062
a(S'no_vo'
I0
tp3063
a(S'w'
I2191
tp3064
a(S'p2_vo'
I2
tp3065
a(S'w'
I728
tp3066
a(S'p1_vo'
I1
tp3067
a(S'w'
I738
tp3068
a(S'p1_vo'
I4
tp3069
a(S'w'
I6
tp3070
a(S'p1_tl'
I152
tp3071
a(S'w'
I726
tp3072
a(S'p2_vo'
I3
tp3073
a(S'w'
I2197
tp3074
a(S'p2_vo'
I2
tp3075
a(S'w'
I729
tp3076
a(S'p1_vo'
I3
tp3077
a(S'w'
I1470
tp3078
a(S'p2_vo'
I3
tp3079
a(S'w'
I733
tp3080
a(S'p1_vo'
I4
tp3081
a(S'w'
I6
tp3082
a(S'p1_tl'
I128
tp3083
a(S'w'
I25
tp3084
a(S'tr_ll'
I1
tp3085
a(S'tr_th'
I2
tp3086
a(S'w'
I1
tp3087
a(S'tr_tl'
I250
tp3088
a(S'w'
I7
tp3089
a(S'no_vo'
I12
tp3090
a(S'w'
I2
tp3091
a(S'no_ll'
I1
tp3092
a(S'w'
I1
tp3093
a(S'no_np'
I2
tp3094
a(S'w'
I696
tp3095
a(S'no_vo'
I0
tp3096
a(S'w'
I726
tp3097
a(S'p2_vo'
I2
tp3098
a(S'w'
I2194
tp3099
a(S'p1_vo'
I3
tp3100
a(S'w'
I7
tp3101
a(S'p2_vo'
I3
tp3102
a(S'w'
I2197
tp3103
a(S'p1_vo'
I4
tp3104
a(S'w'
I6
tp3105
a(S'p1_tl'
I107
tp3106
a(S'w'
I7
tp3107
a(S'p2_vo'
I2
tp3108
a(S'w'
I18
tp3109
a(S'tr_ll'
I1
tp3110
a(S'w'
I1
tp3111
a(S'tr_tl'
I92
tp3112
a(S'w'
I7
tp3113
a(S'no_vo'
I12
tp3114
a(S'w'
I2
tp3115
a(S'no_ll'
I1
tp3116
a(S'w'
I1
tp3117
a(S'w'
I695
tp3118
a(S'no_vo'
I0
tp3119
a(S'w'
I1459
tp3120
a(S'p2_vo'
I3
tp3121
a(S'w'
I731
tp3122
a(S'p2_vo'
I2
tp3123
a(S'w'
I729
tp3124
a(S'p1_vo'
I3
tp3125
a(S'w'
I5
tp3126
a(S'p2_vo'
I1
tp3127
a(S'w'
I731
tp3128
a(S'p2_vo'
I0
tp3129
a(S'w'
I1470
tp3130
a(S'p1_vo'
I4
tp3131
a(S'w'
I6
tp3132
a(S'p1_tl'
I121
tp3133
a(S'w'
I13
tp3134
a(S'p2_vo'
I6
tp3135
a(S'w'
I4
tp3136
a(S'p2_ll'
I1
tp3137
a(S'p2_th'
I2
tp3138
a(S'w'
I2
tp3139
a(S'p2_tl'
I59
tp3140
a(S'w'
I9
tp3141
a(S'ch_no'
I1
tp3142
a(S'ch_tr'
I1
tp3143
a(S'ch_p2'
I1
tp3144
a(S'ch_p1'
I1
tp3145
a(S'w'
I1
tp3146
a(S'ch_no'
I1
tp3147
a(S'ch_tr'
I1
tp3148
a(S'ch_p2'
I1
tp3149
a(S'ch_p1'
I1
tp3150
a(S'w'
I2
tp3151
a(S'tr_lr'
I16
tp3152
a(S'w'
I4
tp3153
a(S'tr_ll'
I1
tp3154
a(S'w'
I1
tp3155
a(S'tr_tl'
I59
tp3156
a(S'w'
I688
tp3157
a(S'p2_vo'
I5
tp3158
a(S'w'
I732
tp3159
a(S'p2_vo'
I4
tp3160
a(S'w'
I733
tp3161
a(S'p2_vo'
I3
tp3162
a(S'w'
I1460
tp3163
a(S'p1_vo'
I3
tp3164
a(S'w'
I737
tp3165
a(S'p2_vo'
I2
tp3166
a(S'w'
I1470
tp3167
a(S'p2_vo'
I6
tp3168
a(S'w'
I4
tp3169
a(S'w'
I19
tp3170
a(S'tr_ll'
I1
tp3171
a(S'w'
I8
tp3172
a(S'no_vo'
I14
tp3173
a(S'w'
I2
tp3174
a(S'no_ll'
I1
tp3175
a(S'w'
I2
tp3176
a(S'no_np'
I6
tp3177
a(S'w'
I693
tp3178
a(S'p2_vo'
I5
tp3179
a(S'w'
I7
tp3180
a(S'no_vo'
I9
tp3181
a(S'w'
I2
tp3182
a(S'no_ll'
I1
tp3183
a(S'w'
I2
tp3184
a(S'no_np'
I5
tp3185
a(S'w'
I717
tp3186
a(S'p1_vo'
I2
tp3187
a(S'w'
I6
tp3188
a(S'p2_vo'
I4
tp3189
a(S'w'
I8
tp3190
a(S'no_vo'
I6
tp3191
a(S'w'
I2
tp3192
a(S'no_ll'
I1
tp3193
a(S'w'
I1
tp3194
a(S'no_np'
I7
tp3195
a(S'w'
I720
tp3196
a(S'p2_vo'
I3
tp3197
a(S'w'
I7
tp3198
a(S'no_vo'
I0
tp3199
a(S'w'
I2191
tp3200
a(S'p2_vo'
I2
tp3201
a(S'w'
I728
tp3202
a(S'p1_vo'
I1
tp3203
a(S'w'
I742
tp3204
a(S'p2_vo'
I6
tp3205
a(S'w'
I4
tp3206
a(S'w'
I19
tp3207
a(S'tr_ll'
I1
tp3208
a(S'w'
I8
tp3209
a(S'no_vo'
I12
tp3210
a(S'w'
I2
tp3211
a(S'no_ll'
I1
tp3212
a(S'w'
I2
tp3213
a(S'no_np'
I2
tp3214
a(S'w'
I693
tp3215
a(S'p2_vo'
I5
tp3216
a(S'w'
I7
tp3217
a(S'no_vo'
I0
tp3218
a(S'w'
I725
tp3219
a(S'p2_vo'
I4
tp3220
a(S'w'
I733
tp3221
a(S'p2_vo'
I3
tp3222
a(S'w'
I728
tp3223
a(S'p1_vo'
I0
tp3224
a(S'w'
I1470
tp3225
a(S'p2_vo'
I2
tp3226
a(S'w'
I1470
tp3227
a(S'p2_vo'
I6
tp3228
a(S'w'
I4
tp3229
a(S'w'
I19
tp3230
a(S'tr_ll'
I1
tp3231
a(S'w'
I8
tp3232
a(S'no_vo'
I14
tp3233
a(S'w'
I2
tp3234
a(S'no_ll'
I1
tp3235
a(S'w'
I2
tp3236
a(S'no_np'
I6
tp3237
a(S'w'
I692
tp3238
a(S'p2_vo'
I5
tp3239
a(S'w'
I8
tp3240
a(S'no_vo'
I9
tp3241
a(S'w'
I2
tp3242
a(S'no_ll'
I1
tp3243
a(S'w'
I1
tp3244
a(S'no_np'
I5
tp3245
a(S'w'
I721
tp3246
a(S'p2_vo'
I4
tp3247
a(S'w'
I8
tp3248
a(S'no_vo'
I6
tp3249
a(S'w'
I2
tp3250
a(S'no_ll'
I1
tp3251
a(S'w'
I1
tp3252
a(S'no_np'
I7
tp3253
a(S'w'
I722
tp3254
a(S'p2_vo'
I3
tp3255
a(S'w'
I8
tp3256
a(S'no_vo'
I0
tp3257
a(S'w'
I2189
tp3258
a(S'p2_vo'
I2
tp3259
a(S'w'
I1468
tp3260
a(S'p1_vo'
I4
tp3261
a(S'w'
I6
tp3262
a(S'p1_tl'
I191
tp3263
a(S'w'
I13
tp3264
a(S'p2_vo'
I6
tp3265
a(S'w'
I5
tp3266
a(S'p2_ll'
I1
tp3267
a(S'p2_th'
I1
tp3268
a(S'w'
I1
tp3269
a(S'p2_tl'
I224
tp3270
a(S'w'
I20
tp3271
a(S'tr_lr'
I64
tp3272
a(S'w'
I3
tp3273
a(S'tr_ll'
I1
tp3274
a(S'tr_th'
I1
tp3275
a(S'w'
I2
tp3276
a(S'tr_tl'
I29
tp3277
a(S'w'
I6
tp3278
a(S'no_vo'
I14
tp3279
a(S'w'
I3
tp3280
a(S'no_ll'
I1
tp3281
a(S'w'
I1
tp3282
a(S'no_np'
I6
tp3283
a(S'w'
I671
tp3284
a(S'p2_vo'
I5
tp3285
a(S'w'
I7
tp3286
a(S'no_vo'
I9
tp3287
a(S'w'
I2
tp3288
a(S'no_ll'
I1
tp3289
a(S'w'
I2
tp3290
a(S'no_np'
I5
tp3291
a(S'w'
I722
tp3292
a(S'p2_vo'
I4
tp3293
a(S'w'
I7
tp3294
a(S'no_vo'
I6
tp3295
a(S'w'
I2
tp3296
a(S'no_ll'
I1
tp3297
a(S'w'
I2
tp3298
a(S'no_np'
I7
tp3299
a(S'w'
I721
tp3300
a(S'p2_vo'
I3
tp3301
a(S'w'
I7
tp3302
a(S'no_vo'
I0
tp3303
a(S'w'
I1455
tp3304
a(S'p1_vo'
I3
tp3305
a(S'w'
I736
tp3306
a(S'p2_vo'
I2
tp3307
a(S'w'
I1466
tp3308
a(S'p1_vo'
I4
tp3309
a(S'w'
I6
tp3310
a(S'p1_tl'
I143
tp3311
a(S'w'
I13
tp3312
a(S'p2_vo'
I6
tp3313
a(S'w'
I6
tp3314
a(S'p2_tl'
I125
tp3315
a(S'w'
I707
tp3316
a(S'p2_vo'
I5
tp3317
a(S'w'
I733
tp3318
a(S'p2_vo'
I4
tp3319
a(S'w'
I732
tp3320
a(S'p2_vo'
I3
tp3321
a(S'w'
I1461
tp3322
a(S'p1_vo'
I3
tp3323
a(S'w'
I737
tp3324
a(S'p2_vo'
I2
tp3325
a(S'w'
I1466
tp3326
a(S'p1_vo'
I4
tp3327
a(S'w'
I6
tp3328
a(S'p1_tl'
I121
tp3329
a(S'w'
I12
tp3330
a(S'p2_vo'
I6
tp3331
a(S'w'
I5
tp3332
a(S'p2_tl'
I29
tp3333
a(S'w'
I19
tp3334
a(S'tr_ll'
I1
tp3335
a(S'w'
I8
tp3336
a(S'no_vo'
I14
tp3337
a(S'w'
I3
tp3338
a(S'no_ll'
I1
tp3339
a(S'w'
I1
tp3340
a(S'no_np'
I6
tp3341
a(S'w'
I678
tp3342
a(S'p2_vo'
I5
tp3343
a(S'w'
I7
tp3344
a(S'no_vo'
I9
tp3345
a(S'w'
I2
tp3346
a(S'no_ll'
I1
tp3347
a(S'w'
I2
tp3348
a(S'no_np'
I5
tp3349
a(S'w'
I721
tp3350
a(S'p2_vo'
I4
tp3351
a(S'w'
I7
tp3352
a(S'no_vo'
I6
tp3353
a(S'w'
I2
tp3354
a(S'no_ll'
I1
tp3355
a(S'w'
I2
tp3356
a(S'no_np'
I7
tp3357
a(S'w'
I722
tp3358
a(S'p2_vo'
I3
tp3359
a(S'w'
I7
tp3360
a(S'no_vo'
I0
tp3361
a(S'w'
I1454
tp3362
a(S'p1_vo'
I3
tp3363
a(S'w'
I737
tp3364
a(S'p2_vo'
I2
tp3365
a(S'w'
I1468
tp3366
a(S'p1_vo'
I4
tp3367
a(S'w'
I6
tp3368
a(S'p1_tl'
I96
tp3369
a(S'w'
I12
tp3370
a(S'p2_vo'
I6
tp3371
a(S'w'
I5
tp3372
a(S'p2_ll'
I1
tp3373
a(S'p2_th'
I0
tp3374
a(S'w'
I1
tp3375
a(S'p2_tl'
I240
tp3376
a(S'w'
I17
tp3377
a(S'tr_lr'
I0
tp3378
a(S'w'
I7
tp3379
a(S'no_vo'
I14
tp3380
a(S'w'
I2
tp3381
a(S'no_ll'
I1
tp3382
a(S'w'
I2
tp3383
a(S'no_np'
I6
tp3384
a(S'w'
I678
tp3385
a(S'p2_vo'
I5
tp3386
a(S'w'
I7
tp3387
a(S'no_vo'
I9
tp3388
a(S'w'
I2
tp3389
a(S'no_ll'
I1
tp3390
a(S'w'
I1
tp3391
a(S'no_np'
I5
tp3392
a(S'w'
I722
tp3393
a(S'p2_vo'
I4
tp3394
a(S'w'
I7
tp3395
a(S'no_vo'
I6
tp3396
a(S'w'
I2
tp3397
a(S'no_ll'
I1
tp3398
a(S'w'
I1
tp3399
a(S'no_np'
I7
tp3400
a(S'w'
I723
tp3401
a(S'p2_vo'
I3
tp3402
a(S'w'
I7
tp3403
a(S'no_vo'
I0
tp3404
a(S'w'
I1454
tp3405
a(S'p1_vo'
I3
tp3406
a(S'w'
I737
tp3407
a(S'p2_vo'
I2
tp3408
a(S'w'
I1467
tp3409
a(S'p1_vo'
I4
tp3410
a(S'w'
I6
tp3411
a(S'p1_tl'
I107
tp3412
a(S'w'
I14
tp3413
a(S'p2_vo'
I6
tp3414
a(S'w'
I4
tp3415
a(S'p2_ll'
I1
tp3416
a(S'p2_th'
I1
tp3417
a(S'w'
I1
tp3418
a(S'p2_tl'
I252
tp3419
a(S'w'
I10
tp3420
a(S'ch_no'
I1
tp3421
a(S'ch_tr'
I1
tp3422
a(S'ch_p2'
I1
tp3423
a(S'ch_p1'
I1
tp3424
a(S'w'
I1
tp3425
a(S'ch_no'
I1
tp3426
a(S'ch_tr'
I1
tp3427
a(S'ch_p2'
I1
tp3428
a(S'ch_p1'
I1
tp3429
a(S'w'
I2
tp3430
a(S'tr_lr'
I16
tp3431
a(S'w'
I3
tp3432
a(S'tr_ll'
I1
tp3433
a(S'w'
I1
tp3434
a(S'tr_tl'
I252
tp3435
a(S'w'
I689
tp3436
a(S'p2_vo'
I5
tp3437
a(S'w'
I733
tp3438
a(S'p2_vo'
I4
tp3439
a(S'w'
I733
tp3440
a(S'p2_vo'
I3
tp3441
a(S'w'
I1460
tp3442
a(S'p1_vo'
I3
tp3443
a(S'w'
I736
tp3444
a(S'p2_vo'
I2
tp3445
a(S'w'
I1471
tp3446
a(S'p2_vo'
I6
tp3447
a(S'w'
I4
tp3448
a(S'w'
I19
tp3449
a(S'tr_ll'
I1
tp3450
a(S'w'
I8
tp3451
a(S'no_vo'
I14
tp3452
a(S'w'
I2
tp3453
a(S'no_ll'
I1
tp3454
a(S'w'
I2
tp3455
a(S'no_np'
I6
tp3456
a(S'w'
I692
tp3457
a(S'p2_vo'
I5
tp3458
a(S'w'
I7
tp3459
a(S'no_vo'
I9
tp3460
a(S'w'
I2
tp3461
a(S'no_ll'
I1
tp3462
a(S'w'
I2
tp3463
a(S'no_np'
I5
tp3464
a(S'w'
I718
tp3465
a(S'p1_vo'
I2
tp3466
a(S'w'
I6
tp3467
a(S'p2_vo'
I4
tp3468
a(S'w'
I8
tp3469
a(S'no_vo'
I6
tp3470
a(S'w'
I2
tp3471
a(S'no_ll'
I1
tp3472
a(S'w'
I1
tp3473
a(S'no_np'
I7
tp3474
a(S'w'
I719
tp3475
a(S'p2_vo'
I3
tp3476
a(S'w'
I7
tp3477
a(S'no_vo'
I0
tp3478
a(S'w'
I2191
tp3479
a(S'p2_vo'
I2
tp3480
a(S'w'
I729
tp3481
a(S'p1_vo'
I1
tp3482
a(S'w'
I742
tp3483
a(S'p2_vo'
I6
tp3484
a(S'w'
I4
tp3485
a(S'w'
I19
tp3486
a(S'tr_ll'
I1
tp3487
a(S'w'
I8
tp3488
a(S'no_vo'
I12
tp3489
a(S'w'
I2
tp3490
a(S'no_ll'
I1
tp3491
a(S'w'
I2
tp3492
a(S'no_np'
I2
tp3493
a(S'w'
I692
tp3494
a(S'p2_vo'
I5
tp3495
a(S'w'
I7
tp3496
a(S'no_vo'
I0
tp3497
a(S'w'
I726
tp3498
a(S'p2_vo'
I4
tp3499
a(S'w'
I732
tp3500
a(S'p2_vo'
I3
tp3501
a(S'w'
I729
tp3502
a(S'p1_vo'
I0
tp3503
a(S'w'
I1469
tp3504
a(S'p2_vo'
I2
tp3505
a(S'w'
I1468
tp3506
a(S'p1_vo'
I4
tp3507
a(S'w'
I6
tp3508
a(S'p1_tl'
I161
tp3509
a(S'w'
I12
tp3510
a(S'p2_vo'
I6
tp3511
a(S'w'
I5
tp3512
a(S'w'
I18
tp3513
a(S'tr_ll'
I1
tp3514
a(S'w'
I8
tp3515
a(S'no_vo'
I14
tp3516
a(S'w'
I3
tp3517
a(S'no_ll'
I1
tp3518
a(S'w'
I1
tp3519
a(S'no_np'
I6
tp3520
a(S'w'
I677
tp3521
a(S'p2_vo'
I5
tp3522
a(S'w'
I7
tp3523
a(S'no_vo'
I9
tp3524
a(S'w'
I2
tp3525
a(S'no_ll'
I1
tp3526
a(S'w'
I2
tp3527
a(S'no_np'
I5
tp3528
a(S'w'
I722
tp3529
a(S'p2_vo'
I4
tp3530
a(S'w'
I7
tp3531
a(S'no_vo'
I6
tp3532
a(S'w'
I2
tp3533
a(S'no_ll'
I1
tp3534
a(S'w'
I2
tp3535
a(S'no_np'
I7
tp3536
a(S'w'
I721
tp3537
a(S'p2_vo'
I3
tp3538
a(S'w'
I7
tp3539
a(S'no_vo'
I0
tp3540
a(S'w'
I1454
tp3541
a(S'p1_vo'
I3
tp3542
a(S'w'
I737
tp3543
a(S'p2_vo'
I2
tp3544
a(S'w'
I1472
tp3545
a(S'p2_vo'
I6
tp3546
a(S'w'
I5
tp3547
a(S'p2_ll'
I1
tp3548
a(S'p2_th'
I0
tp3549
a(S'w'
I2
tp3550
a(S'p2_tl'
I213
tp3551
a(S'w'
I19
tp3552
a(S'tr_lr'
I48
tp3553
a(S'w'
I4
tp3554
a(S'tr_ll'
I1
tp3555
a(S'tr_th'
I0
tp3556
a(S'w'
I1
tp3557
a(S'tr_tl'
I254
tp3558
a(S'w'
I7
tp3559
a(S'no_vo'
I14
tp3560
a(S'w'
I2
tp3561
a(S'no_ll'
I1
tp3562
a(S'w'
I2
tp3563
a(S'no_np'
I6
tp3564
a(S'w'
I684
tp3565
a(S'p2_vo'
I5
tp3566
a(S'w'
I7
tp3567
a(S'no_vo'
I9
tp3568
a(S'w'
I2
tp3569
a(S'no_ll'
I1
tp3570
a(S'w'
I2
tp3571
a(S'no_np'
I5
tp3572
a(S'w'
I717
tp3573
a(S'p1_vo'
I2
tp3574
a(S'w'
I6
tp3575
a(S'p2_vo'
I4
tp3576
a(S'w'
I8
tp3577
a(S'no_vo'
I6
tp3578
a(S'w'
I2
tp3579
a(S'no_ll'
I1
tp3580
a(S'w'
I1
tp3581
a(S'no_np'
I7
tp3582
a(S'w'
I720
tp3583
a(S'p2_vo'
I3
tp3584
a(S'w'
I7
tp3585
a(S'no_vo'
I0
tp3586
a(S'w'
I2191
tp3587
a(S'p2_vo'
I2
tp3588
a(S'w'
I728
tp3589
a(S'p1_vo'
I1
tp3590
a(S'w'
I738
tp3591
a(S'p1_vo'
I4
tp3592
a(S'w'
I6
tp3593
a(S'p1_tl'
I128
tp3594
a(S'w'
I727
tp3595
a(S'p2_vo'
I3
tp3596
a(S'w'
I2196
tp3597
a(S'p2_vo'
I2
tp3598
a(S'w'
I729
tp3599
a(S'p1_vo'
I3
tp3600
a(S'w'
I1470
tp3601
a(S'p2_vo'
I3
tp3602
a(S'w'
I735
tp3603
a(S'p1_vo'
I4
tp3604
a(S'w'
I6
tp3605
a(S'p1_tl'
I107
tp3606
a(S'w'
I26
tp3607
a(S'tr_ll'
I1
tp3608
a(S'tr_th'
I1
tp3609
a(S'w'
I1
tp3610
a(S'tr_tl'
I64
tp3611
a(S'w'
I7
tp3612
a(S'no_vo'
I12
tp3613
a(S'w'
I2
tp3614
a(S'no_ll'
I1
tp3615
a(S'w'
I1
tp3616
a(S'no_np'
I2
tp3617
a(S'w'
I693
tp3618
a(S'no_vo'
I0
tp3619
a(S'w'
I726
tp3620
a(S'p2_vo'
I2
tp3621
a(S'w'
I2194
tp3622
a(S'p1_vo'
I3
tp3623
a(S'w'
I7
tp3624
a(S'p2_vo'
I3
tp3625
a(S'w'
I2196
tp3626
a(S'p1_vo'
I4
tp3627
a(S'w'
I7
tp3628
a(S'p1_tl'
I81
tp3629
a(S'w'
I6
tp3630
a(S'p2_vo'
I2
tp3631
a(S'w'
I19
tp3632
a(S'tr_ll'
I1
tp3633
a(S'w'
I8
tp3634
a(S'no_vo'
I12
tp3635
a(S'w'
I2
tp3636
a(S'no_ll'
I1
tp3637
a(S'w'
I1
tp3638
a(S'w'
I695
tp3639
a(S'no_vo'
I0
tp3640
a(S'w'
I1459
tp3641
a(S'p2_vo'
I3
tp3642
a(S'w'
I731
tp3643
a(S'p2_vo'
I2
tp3644
a(S'w'
I730
tp3645
a(S'p1_vo'
I3
tp3646
a(S'w'
I5
tp3647
a(S'p2_vo'
I1
tp3648
a(S'w'
I730
tp3649
a(S'p2_vo'
I0
tp3650
a(S'w'
I1468
tp3651
a(S'p1_vo'
I4
tp3652
a(S'w'
I7
tp3653
a(S'p1_tl'
I90
tp3654
a(S'w'
I13
tp3655
a(S'p2_vo'
I6
tp3656
a(S'w'
I4
tp3657
a(S'p2_ll'
I1
tp3658
a(S'p2_th'
I1
tp3659
a(S'w'
I2
tp3660
a(S'p2_tl'
I224
tp3661
a(S'w'
I9
tp3662
a(S'ch_no'
I1
tp3663
a(S'ch_tr'
I1
tp3664
a(S'ch_p2'
I1
tp3665
a(S'ch_p1'
I1
tp3666
a(S'w'
I1
tp3667
a(S'ch_no'
I1
tp3668
a(S'ch_tr'
I1
tp3669
a(S'ch_p2'
I1
tp3670
a(S'ch_p1'
I1
tp3671
a(S'w'
I2
tp3672
a(S'tr_lr'
I16
tp3673
a(S'w'
I4
tp3674
a(S'tr_ll'
I1
tp3675
a(S'w'
I690
tp3676
a(S'p2_vo'
I5
tp3677
a(S'w'
I733
tp3678
a(S'p2_vo'
I4
tp3679
a(S'w'
I732
tp3680
a(S'p2_vo'
I3
tp3681
a(S'w'
I1460
tp3682
a(S'p1_vo'
I3
tp3683
a(S'w'
I737
tp3684
a(S'p2_vo'
I2
tp3685
a(S'w'
I1470
tp3686
a(S'p2_vo'
I6
tp3687
a(S'w'
I4
tp3688
a(S'w'
I21
tp3689
a(S'tr_ll'
I1
tp3690
a(S'w'
I1
tp3691
a(S'tr_tl'
I224
tp3692
a(S'w'
I7
tp3693
a(S'no_vo'
I14
tp3694
a(S'w'
I2
tp3695
a(S'no_ll'
I1
tp3696
a(S'w'
I1
tp3697
a(S'no_np'
I6
tp3698
a(S'w'
I692
tp3699
a(S'p2_vo'
I5
tp3700
a(S'w'
I7
tp3701
a(S'no_vo'
I9
tp3702
a(S'w'
I2
tp3703
a(S'no_ll'
I1
tp3704
a(S'w'
I2
tp3705
a(S'no_np'
I5
tp3706
a(S'w'
I717
tp3707
a(S'p1_vo'
I2
tp3708
a(S'w'
I6
tp3709
a(S'p2_vo'
I4
tp3710
a(S'w'
I8
tp3711
a(S'no_vo'
I6
tp3712
a(S'w'
I2
tp3713
a(S'no_ll'
I1
tp3714
a(S'w'
I1
tp3715
a(S'no_np'
I7
tp3716
a(S'w'
I720
tp3717
a(S'p2_vo'
I3
tp3718
a(S'w'
I7
tp3719
a(S'no_vo'
I0
tp3720
a(S'w'
I2191
tp3721
a(S'p2_vo'
I2
tp3722
a(S'w'
I728
tp3723
a(S'p1_vo'
I1
tp3724
a(S'w'
I742
tp3725
a(S'p2_vo'
I6
tp3726
a(S'w'
I4
tp3727
a(S'w'
I19
tp3728
a(S'tr_ll'
I1
tp3729
a(S'w'
I8
tp3730
a(S'no_vo'
I12
tp3731
a(S'w'
I2
tp3732
a(S'no_ll'
I1
tp3733
a(S'w'
I2
tp3734
a(S'no_np'
I2
tp3735
a(S'w'
I693
tp3736
a(S'p2_vo'
I5
tp3737
a(S'w'
I7
tp3738
a(S'no_vo'
I0
tp3739
a(S'w'
I725
tp3740
a(S'p2_vo'
I4
tp3741
a(S'w'
I733
tp3742
a(S'p2_vo'
I3
tp3743
a(S'w'
I729
tp3744
a(S'p1_vo'
I0
tp3745
a(S'w'
I1469
tp3746
a(S'p2_vo'
I2
tp3747
a(S'w'
I1470
tp3748
a(S'p2_vo'
I6
tp3749
a(S'w'
I4
tp3750
a(S'w'
I19
tp3751
a(S'tr_ll'
I1
tp3752
a(S'w'
I8
tp3753
a(S'no_vo'
I14
tp3754
a(S'w'
I2
tp3755
a(S'no_ll'
I1
tp3756
a(S'w'
I2
tp3757
a(S'no_np'
I6
tp3758
a(S'w'
I693
tp3759
a(S'p2_vo'
I5
tp3760
a(S'w'
I8
tp3761
a(S'no_vo'
I9
tp3762
a(S'w'
I2
tp3763
a(S'no_ll'
I1
tp3764
a(S'w'
I1
tp3765
a(S'no_np'
I5
tp3766
a(S'w'
I720
tp3767
a(S'p2_vo'
I4
tp3768
a(S'w'
I8
tp3769
a(S'no_vo'
I6
tp3770
a(S'w'
I2
tp3771
a(S'no_ll'
I1
tp3772
a(S'w'
I1
tp3773
a(S'no_np'
I7
tp3774
a(S'w'
I722
tp3775
a(S'p2_vo'
I3
tp3776
a(S'w'
I8
tp3777
a(S'no_vo'
I0
tp3778
a(S'w'
I2190
tp3779
a(S'p2_vo'
I2
tp3780
a(S'w'
I1468
tp3781
a(S'p1_vo'
I4
tp3782
a(S'w'
I7
tp3783
a(S'p1_tl'
I96
tp3784
a(S'w'
I13
tp3785
a(S'p2_vo'
I6
tp3786
a(S'w'
I5
tp3787
a(S'p2_ll'
I1
tp3788
a(S'p2_th'
I0
tp3789
a(S'w'
I1
tp3790
a(S'p2_tl'
I240
tp3791
a(S'w'
I19
tp3792
a(S'tr_lr'
I48
tp3793
a(S'w'
I4
tp3794
a(S'tr_ll'
I1
tp3795
a(S'tr_th'
I0
tp3796
a(S'w'
I1
tp3797
a(S'tr_tl'
I240
tp3798
a(S'w'
I7
tp3799
a(S'no_vo'
I14
tp3800
a(S'w'
I2
tp3801
a(S'no_ll'
I1
tp3802
a(S'w'
I1
tp3803
a(S'no_np'
I6
tp3804
a(S'w'
I670
tp3805
a(S'p2_vo'
I5
tp3806
a(S'w'
I7
tp3807
a(S'no_vo'
I9
tp3808
a(S'w'
I2
tp3809
a(S'no_ll'
I1
tp3810
a(S'w'
I2
tp3811
a(S'no_np'
I5
tp3812
a(S'w'
I722
tp3813
a(S'p2_vo'
I4
tp3814
a(S'w'
I7
tp3815
a(S'no_vo'
I6
tp3816
a(S'w'
I2
tp3817
a(S'no_ll'
I1
tp3818
a(S'w'
I2
tp3819
a(S'no_np'
I7
tp3820
a(S'w'
I722
tp3821
a(S'p2_vo'
I3
tp3822
a(S'w'
I7
tp3823
a(S'no_vo'
I0
tp3824
a(S'w'
I1454
tp3825
a(S'p1_vo'
I3
tp3826
a(S'w'
I736
tp3827
a(S'p2_vo'
I2
tp3828
a(S'w'
I1472
tp3829
a(S'p2_vo'
I6
tp3830
a(S'w'
I6
tp3831
a(S'p2_tl'
I190
tp3832
a(S'w'
I19
tp3833
a(S'tr_ll'
I1
tp3834
a(S'w'
I1
tp3835
a(S'tr_tl'
I254
tp3836
a(S'w'
I7
tp3837
a(S'no_vo'
I14
tp3838
a(S'w'
I2
tp3839
a(S'no_ll'
I1
tp3840
a(S'w'
I2
tp3841
a(S'no_np'
I6
tp3842
a(S'w'
I689
tp3843
a(S'p2_vo'
I5
tp3844
a(S'w'
I7
tp3845
a(S'no_vo'
I9
tp3846
a(S'w'
I2
tp3847
a(S'no_ll'
I1
tp3848
a(S'w'
I2
tp3849
a(S'no_np'
I5
tp3850
a(S'w'
I718
tp3851
a(S'p1_vo'
I2
tp3852
a(S'w'
I6
tp3853
a(S'p2_vo'
I4
tp3854
a(S'w'
I8
tp3855
a(S'no_vo'
I6
tp3856
a(S'w'
I2
tp3857
a(S'no_ll'
I1
tp3858
a(S'w'
I1
tp3859
a(S'no_np'
I7
tp3860
a(S'w'
I719
tp3861
a(S'p2_vo'
I3
tp3862
a(S'w'
I7
tp3863
a(S'no_vo'
I0
tp3864
a(S'w'
I2191
tp3865
a(S'p2_vo'
I2
tp3866
a(S'w'
I729
tp3867
a(S'p1_vo'
I1
tp3868
a(S'w'
I741
tp3869
a(S'p2_vo'
I6
tp3870
a(S'w'
I5
tp3871
a(S'p2_tl'
I160
tp3872
a(S'w'
I20
tp3873
a(S'tr_ll'
I1
tp3874
a(S'w'
I8
tp3875
a(S'no_vo'
I14
tp3876
a(S'w'
I2
tp3877
a(S'no_ll'
I1
tp3878
a(S'w'
I1
tp3879
a(S'no_np'
I6
tp3880
a(S'w'
I692
tp3881
a(S'p2_vo'
I5
tp3882
a(S'w'
I7
tp3883
a(S'no_vo'
I9
tp3884
a(S'w'
I2
tp3885
a(S'no_ll'
I1
tp3886
a(S'w'
I2
tp3887
a(S'no_np'
I5
tp3888
a(S'w'
I722
tp3889
a(S'p2_vo'
I4
tp3890
a(S'w'
I7
tp3891
a(S'no_vo'
I6
tp3892
a(S'w'
I2
tp3893
a(S'no_ll'
I1
tp3894
a(S'w'
I2
tp3895
a(S'no_np'
I7
tp3896
a(S'w'
I721
tp3897
a(S'p2_vo'
I3
tp3898
a(S'w'
I7
tp3899
a(S'no_vo'
I0
tp3900
a(S'w'
I722
tp3901
a(S'p1_vo'
I0
tp3902
a(S'w'
I1469
tp3903
a(S'p2_vo'
I2
tp3904
a(S'w'
I1470
tp3905
a(S'p2_vo'
I6
tp3906
a(S'w'
I5
tp3907
a(S'p2_tl'
I120
tp3908
a(S'w'
I20
tp3909
a(S'tr_ll'
I1
tp3910
a(S'w'
I1
tp3911
a(S'tr_tl'
I240
tp3912
a(S'w'
I7
tp3913
a(S'no_vo'
I14
tp3914
a(S'w'
I2
tp3915
a(S'no_ll'
I1
tp3916
a(S'w'
I1
tp3917
a(S'no_np'
I6
tp3918
a(S'w'
I692
tp3919
a(S'p2_vo'
I5
tp3920
a(S'w'
I8
tp3921
a(S'no_vo'
I9
tp3922
a(S'w'
I2
tp3923
a(S'no_ll'
I1
tp3924
a(S'w'
I1
tp3925
a(S'no_np'
I5
tp3926
a(S'w'
I720
tp3927
a(S'p2_vo'
I4
tp3928
a(S'w'
I8
tp3929
a(S'no_vo'
I6
tp3930
a(S'w'
I2
tp3931
a(S'no_ll'
I1
tp3932
a(S'w'
I1
tp3933
a(S'no_np'
I7
tp3934
a(S'w'
I722
tp3935
a(S'p2_vo'
I3
tp3936
a(S'w'
I8
tp3937
a(S'no_vo'
I0
tp3938
a(S'w'
I2190
tp3939
a(S'p2_vo'
I2
tp3940
a(S'w'
I1468
tp3941
a(S'p1_vo'
I4
tp3942
a(S'w'
I6
tp3943
a(S'w'
I14
tp3944
a(S'p2_vo'
I6
tp3945
a(S'w'
I6
tp3946
a(S'p2_tl'
I226
tp3947
a(S'w'
I9
tp3948
a(S'ch_no'
I1
tp3949
a(S'ch_tr'
I1
tp3950
a(S'ch_p2'
I1
tp3951
a(S'ch_p1'
I1
tp3952
a(S'w'
I1
tp3953
a(S'ch_no'
I1
tp3954
a(S'ch_tr'
I1
tp3955
a(S'ch_p2'
I1
tp3956
a(S'ch_p1'
I1
tp3957
a(S'w'
I2
tp3958
a(S'tr_lr'
I19
tp3959
a(S'w'
I3
tp3960
a(S'tr_ll'
I1
tp3961
a(S'tr_th'
I1
tp3962
a(S'w'
I1
tp3963
a(S'tr_tl'
I197
tp3964
a(S'w'
I690
tp3965
a(S'p2_vo'
I5
tp3966
a(S'w'
I732
tp3967
a(S'p2_vo'
I4
tp3968
a(S'w'
I733
tp3969
a(S'p2_vo'
I3
tp3970
a(S'w'
I1460
tp3971
a(S'p1_vo'
I3
tp3972
a(S'w'
I737
tp3973
a(S'p2_vo'
I2
tp3974
a(S'w'
I1483
tp3975
a(S'tr_ll'
I1
tp3976
a(S'w'
I8
tp3977
a(S'no_vo'
I14
tp3978
a(S'w'
I2
tp3979
a(S'no_ll'
I1
tp3980
a(S'w'
I1
tp3981
a(S'no_np'
I6
tp3982
a(S'w'
I704
tp3983
a(S'p2_vo'
I3
tp3984
a(S'w'
I8
tp3985
a(S'no_vo'
I9
tp3986
a(S'w'
I2
tp3987
a(S'no_ll'
I1
tp3988
a(S'w'
I1
tp3989
a(S'no_np'
I5
tp3990
a(S'w'
I717
tp3991
a(S'p1_vo'
I2
tp3992
a(S'w'
I14
tp3993
a(S'no_vo'
I6
tp3994
a(S'w'
I2
tp3995
a(S'no_ll'
I1
tp3996
a(S'w'
I1
tp3997
a(S'no_np'
I7
tp3998
a(S'w'
I727
tp3999
a(S'no_vo'
I0
tp4000
a(S'w'
I725
tp4001
a(S'p2_vo'
I2
tp4002
a(S'w'
I2194
tp4003
a(S'p1_vo'
I1
tp4004
a(S'w'
I7
tp4005
a(S'p2_vo'
I3
tp4006
a(S'w'
I748
tp4007
a(S'tr_ll'
I1
tp4008
a(S'w'
I8
tp4009
a(S'no_vo'
I12
tp4010
a(S'w'
I2
tp4011
a(S'no_ll'
I1
tp4012
a(S'w'
I1
tp4013
a(S'no_np'
I2
tp4014
a(S'w'
I710
tp4015
a(S'no_vo'
I0
tp4016
a(S'w'
I726
tp4017
a(S'p2_vo'
I2
tp4018
a(S'w'
I1461
tp4019
a(S'p1_vo'
I0
tp4020
a(S'w'
I738
tp4021
a(S'p2_vo'
I3
tp4022
a(S'w'
I730
tp4023
a(S'p2_vo'
I2
tp4024
a(S'w'
I733
tp4025
a(S'p2_vo'
I1
tp4026
a(S'w'
I736
tp4027
a(S'p1_vo'
I4
tp4028
a(S'w'
I6
tp4029
a(S'p1_tl'
I143
tp4030
a(S'w'
I13
tp4031
a(S'p2_vo'
I6
tp4032
a(S'w'
I5
tp4033
a(S'p2_ll'
I1
tp4034
a(S'p2_th'
I1
tp4035
a(S'w'
I2
tp4036
a(S'p2_tl'
I125
tp4037
a(S'w'
I18
tp4038
a(S'tr_ll'
I1
tp4039
a(S'w'
I8
tp4040
a(S'no_vo'
I14
tp4041
a(S'w'
I3
tp4042
a(S'no_ll'
I1
tp4043
a(S'w'
I1
tp4044
a(S'no_np'
I6
tp4045
a(S'w'
I674
tp4046
a(S'p2_vo'
I5
tp4047
a(S'w'
I7
tp4048
a(S'no_vo'
I9
tp4049
a(S'w'
I2
tp4050
a(S'no_ll'
I1
tp4051
a(S'w'
I2
tp4052
a(S'no_np'
I5
tp4053
a(S'w'
I722
tp4054
a(S'p2_vo'
I4
tp4055
a(S'w'
I7
tp4056
a(S'no_vo'
I6
tp4057
a(S'w'
I2
tp4058
a(S'no_ll'
I1
tp4059
a(S'w'
I2
tp4060
a(S'no_np'
I7
tp4061
a(S'w'
I721
tp4062
a(S'p2_vo'
I3
tp4063
a(S'w'
I7
tp4064
a(S'no_vo'
I0
tp4065
a(S'w'
I1454
tp4066
a(S'p1_vo'
I3
tp4067
a(S'w'
I737
tp4068
a(S'p2_vo'
I2
tp4069
a(S'w'
I1483
tp4070
a(S'tr_lr'
I48
tp4071
a(S'w'
I4
tp4072
a(S'tr_ll'
I1
tp4073
a(S'tr_th'
I0
tp4074
a(S'w'
I1
tp4075
a(S'tr_tl'
I226
tp4076
a(S'w'
I7
tp4077
a(S'no_vo'
I14
tp4078
a(S'w'
I2
tp4079
a(S'no_ll'
I1
tp4080
a(S'w'
I2
tp4081
a(S'no_np'
I6
tp4082
a(S'w'
I700
tp4083
a(S'p2_vo'
I3
tp4084
a(S'w'
I8
tp4085
a(S'no_vo'
I9
tp4086
a(S'w'
I2
tp4087
a(S'no_ll'
I1
tp4088
a(S'w'
I1
tp4089
a(S'no_np'
I5
tp4090
a(S'w'
I717
tp4091
a(S'p1_vo'
I2
tp4092
a(S'w'
I14
tp4093
a(S'no_vo'
I6
tp4094
a(S'w'
I2
tp4095
a(S'no_ll'
I1
tp4096
a(S'w'
I1
tp4097
a(S'no_np'
I7
tp4098
a(S'w'
I726
tp4099
a(S'no_vo'
I0
tp4100
a(S'w'
I726
tp4101
a(S'p2_vo'
I2
tp4102
a(S'w'
I2194
tp4103
a(S'p1_vo'
I1
tp4104
a(S'w'
I7
tp4105
a(S'p2_vo'
I3
tp4106
a(S'w'
I730
tp4107
a(S'p1_vo'
I4
tp4108
a(S'w'
I6
tp4109
a(S'p1_tl'
I114
tp4110
a(S'w'
I1458
tp4111
a(S'p2_vo'
I2
tp4112
a(S'w'
I2194
tp4113
a(S'p1_vo'
I3
tp4114
a(S'w'
I7
tp4115
a(S'p2_vo'
I3
tp4116
a(S'w'
I2198
tp4117
a(S'p1_vo'
I4
tp4118
a(S'w'
I6
tp4119
a(S'p1_tl'
I96
tp4120
a(S'w'
I7
tp4121
a(S'p2_vo'
I2
tp4122
a(S'w'
I20
tp4123
a(S'tr_ll'
I1
tp4124
a(S'tr_th'
I1
tp4125
a(S'w'
I1
tp4126
a(S'tr_tl'
I197
tp4127
a(S'w'
I7
tp4128
a(S'no_vo'
I12
tp4129
a(S'w'
I2
tp4130
a(S'no_ll'
I1
tp4131
a(S'w'
I1
tp4132
a(S'no_np'
I2
tp4133
a(S'w'
I693
tp4134
a(S'no_vo'
I0
tp4135
a(S'w'
I1459
tp4136
a(S'p2_vo'
I3
tp4137
a(S'w'
I1460
tp4138
a(S'p1_vo'
I3
tp4139
a(S'w'
I737
tp4140
a(S'p2_vo'
I2
tp4141
a(S'w'
I1466
tp4142
a(S'p1_vo'
I4
tp4143
a(S'w'
I7
tp4144
a(S'p1_tl'
I72
tp4145
a(S'w'
I25
tp4146
a(S'tr_ll'
I1
tp4147
a(S'w'
I8
tp4148
a(S'no_vo'
I12
tp4149
a(S'w'
I2
tp4150
a(S'no_ll'
I1
tp4151
a(S'w'
I1
tp4152
a(S'w'
I689
tp4153
a(S'p2_vo'
I3
tp4154
a(S'w'
I8
tp4155
a(S'no_vo'
I0
tp4156
a(S'w'
I723
tp4157
a(S'p2_vo'
I2
tp4158
a(S'w'
I733
tp4159
a(S'p2_vo'
I1
tp4160
a(S'w'
I732
tp4161
a(S'p2_vo'
I0
tp4162
a(S'w'
I730
tp4163
a(S'p1_vo'
I3
tp4164
a(S'w'
I2204
tp4165
a(S'p1_vo'
I4
tp4166
a(S'w'
I7
tp4167
a(S'p1_tl'
I81
tp4168
a(S'w'
I14
tp4169
a(S'p2_vo'
I6
tp4170
a(S'w'
I5
tp4171
a(S'p2_ll'
I1
tp4172
a(S'p2_th'
I0
tp4173
a(S'w'
I2
tp4174
a(S'p2_tl'
I213
tp4175
a(S'w'
I9
tp4176
a(S'ch_no'
I1
tp4177
a(S'ch_tr'
I1
tp4178
a(S'ch_p2'
I1
tp4179
a(S'ch_p1'
I1
tp4180
a(S'w'
I1
tp4181
a(S'ch_no'
I1
tp4182
a(S'ch_tr'
I1
tp4183
a(S'ch_p2'
I1
tp4184
a(S'ch_p1'
I1
tp4185
a(S'w'
I2
tp4186
a(S'tr_lr'
I16
tp4187
a(S'w'
I3
tp4188
a(S'tr_ll'
I1
tp4189
a(S'w'
I688
tp4190
a(S'p2_vo'
I5
tp4191
a(S'w'
I733
tp4192
a(S'p2_vo'
I4
tp4193
a(S'w'
I732
tp4194
a(S'p2_vo'
I3
tp4195
a(S'w'
I1461
tp4196
a(S'p1_vo'
I3
tp4197
a(S'w'
I736
tp4198
a(S'p2_vo'
I2
tp4199
a(S'w'
I1485
tp4200
a(S'tr_ll'
I1
tp4201
a(S'w'
I1
tp4202
a(S'tr_tl'
I171
tp4203
a(S'w'
I7
tp4204
a(S'no_vo'
I14
tp4205
a(S'w'
I2
tp4206
a(S'no_ll'
I1
tp4207
a(S'w'
I1
tp4208
a(S'no_np'
I6
tp4209
a(S'w'
I703
tp4210
a(S'p2_vo'
I3
tp4211
a(S'w'
I8
tp4212
a(S'no_vo'
I9
tp4213
a(S'w'
I2
tp4214
a(S'no_ll'
I1
tp4215
a(S'w'
I1
tp4216
a(S'no_np'
I5
tp4217
a(S'w'
I717
tp4218
a(S'p1_vo'
I2
tp4219
a(S'w'
I14
tp4220
a(S'no_vo'
I6
tp4221
a(S'w'
I2
tp4222
a(S'no_ll'
I1
tp4223
a(S'w'
I1
tp4224
a(S'no_np'
I7
tp4225
a(S'w'
I726
tp4226
a(S'no_vo'
I0
tp4227
a(S'w'
I726
tp4228
a(S'p2_vo'
I2
tp4229
a(S'w'
I2194
tp4230
a(S'p1_vo'
I1
tp4231
a(S'w'
I7
tp4232
a(S'p2_vo'
I3
tp4233
a(S'w'
I747
tp4234
a(S'tr_ll'
I1
tp4235
a(S'w'
I8
tp4236
a(S'no_vo'
I12
tp4237
a(S'w'
I3
tp4238
a(S'no_ll'
I1
tp4239
a(S'w'
I1
tp4240
a(S'no_np'
I2
tp4241
a(S'w'
I710
tp4242
a(S'no_vo'
I0
tp4243
a(S'w'
I725
tp4244
a(S'p2_vo'
I2
tp4245
a(S'w'
I1462
tp4246
a(S'p1_vo'
I0
tp4247
a(S'w'
I737
tp4248
a(S'p2_vo'
I3
tp4249
a(S'w'
I2197
tp4250
a(S'p2_vo'
I2
tp4251
a(S'w'
I18
tp4252
a(S'tr_ll'
I1
tp4253
a(S'w'
I8
tp4254
a(S'no_vo'
I14
tp4255
a(S'w'
I3
tp4256
a(S'no_ll'
I1
tp4257
a(S'w'
I1
tp4258
a(S'no_np'
I6
tp4259
a(S'w'
I711
tp4260
a(S'no_vo'
I9
tp4261
a(S'w'
I2
tp4262
a(S'no_ll'
I1
tp4263
a(S'w'
I1
tp4264
a(S'no_np'
I5
tp4265
a(S'w'
I728
tp4266
a(S'no_vo'
I6
tp4267
a(S'w'
I2
tp4268
a(S'no_ll'
I1
tp4269
a(S'w'
I1
tp4270
a(S'no_np'
I7
tp4271
a(S'w'
I724
tp4272
a(S'p2_vo'
I3
tp4273
a(S'w'
I7
tp4274
a(S'no_vo'
I0
tp4275
a(S'w'
I722
tp4276
a(S'p2_vo'
I2
tp4277
a(S'w'
I733
tp4278
a(S'p2_vo'
I1
tp4279
a(S'w'
I733
tp4280
a(S'p2_vo'
I0
tp4281
a(S'w'
I1469
tp4282
a(S'p1_vo'
I4
tp4283
a(S'w'
I7
tp4284
a(S'p1_tl'
I90
tp4285
a(S'w'
I14
tp4286
a(S'p2_vo'
I6
tp4287
a(S'w'
I5
tp4288
a(S'p2_ll'
I1
tp4289
a(S'p2_th'
I1
tp4290
a(S'w'
I1
tp4291
a(S'p2_tl'
I29
tp4292
a(S'w'
I20
tp4293
a(S'tr_lr'
I48
tp4294
a(S'w'
I3
tp4295
a(S'tr_ll'
I1
tp4296
a(S'w'
I8
tp4297
a(S'no_vo'
I14
tp4298
a(S'w'
I3
tp4299
a(S'no_ll'
I1
tp4300
a(S'w'
I1
tp4301
a(S'no_np'
I6
tp4302
a(S'w'
I668
tp4303
a(S'p2_vo'
I5
tp4304
a(S'w'
I7
tp4305
a(S'no_vo'
I9
tp4306
a(S'w'
I2
tp4307
a(S'no_ll'
I1
tp4308
a(S'w'
I2
tp4309
a(S'no_np'
I5
tp4310
a(S'w'
I722
tp4311
a(S'p2_vo'
I4
tp4312
a(S'w'
I7
tp4313
a(S'no_vo'
I6
tp4314
a(S'w'
I2
tp4315
a(S'no_ll'
I1
tp4316
a(S'w'
I2
tp4317
a(S'no_np'
I7
tp4318
a(S'w'
I722
tp4319
a(S'p2_vo'
I3
tp4320
a(S'w'
I7
tp4321
a(S'no_vo'
I0
tp4322
a(S'w'
I1454
tp4323
a(S'p1_vo'
I3
tp4324
a(S'w'
I736
tp4325
a(S'p2_vo'
I2
tp4326
a(S'w'
I2199
tp4327
a(S'p2_vo'
I3
tp4328
a(S'w'
I728
tp4329
a(S'p1_vo'
I2
tp4330
a(S'w'
I1469
tp4331
a(S'p2_vo'
I2
tp4332
a(S'w'
I2194
tp4333
a(S'p1_vo'
I1
tp4334
a(S'w'
I7
tp4335
a(S'p2_vo'
I3
tp4336
a(S'w'
I749
tp4337
a(S'tr_ll'
I1
tp4338
a(S'tr_th'
I2
tp4339
a(S'w'
I2
tp4340
a(S'tr_tl'
I59
tp4341
a(S'w'
I6
tp4342
a(S'no_vo'
I14
tp4343
a(S'w'
I3
tp4344
a(S'no_ll'
I1
tp4345
a(S'w'
I1
tp4346
a(S'no_np'
I6
tp4347
a(S'w'
I708
tp4348
a(S'no_vo'
I9
tp4349
a(S'w'
I2
tp4350
a(S'no_ll'
I1
tp4351
a(S'w'
I2
tp4352
a(S'no_np'
I5
tp4353
a(S'w'
I722
tp4354
a(S'p2_vo'
I2
tp4355
a(S'w'
I7
tp4356
a(S'no_vo'
I6
tp4357
a(S'w'
I2
tp4358
a(S'no_ll'
I1
tp4359
a(S'w'
I2
tp4360
a(S'no_np'
I7
tp4361
a(S'w'
I728
tp4362
a(S'no_vo'
I0
tp4363
a(S'w'
I722
tp4364
a(S'p1_vo'
I0
tp4365
a(S'w'
I738
tp4366
a(S'p2_vo'
I3
tp4367
a(S'w'
I2196
tp4368
a(S'p2_vo'
I2
tp4369
a(S'w'
I16
tp4370
a(S'tr_lr'
I0
tp4371
a(S'w'
I7
tp4372
a(S'no_vo'
I14
tp4373
a(S'w'
I2
tp4374
a(S'no_ll'
I1
tp4375
a(S'w'
I1
tp4376
a(S'no_np'
I6
tp4377
a(S'w'
I715
tp4378
a(S'no_vo'
I9
tp4379
a(S'w'
I2
tp4380
a(S'no_ll'
I1
tp4381
a(S'w'
I1
tp4382
a(S'no_np'
I5
tp4383
a(S'w'
I728
tp4384
a(S'no_vo'
I6
tp4385
a(S'w'
I3
tp4386
a(S'no_ll'
I1
tp4387
a(S'w'
I1
tp4388
a(S'no_np'
I7
tp4389
a(S'w'
I723
tp4390
a(S'p2_vo'
I3
tp4391
a(S'w'
I7
tp4392
a(S'no_vo'
I0
tp4393
a(S'w'
I723
tp4394
a(S'p2_vo'
I2
tp4395
a(S'w'
I732
tp4396
a(S'p2_vo'
I1
tp4397
a(S'w'
I733
tp4398
a(S'p2_vo'
I0
tp4399
a(S'w'
I1469
tp4400
a(S'p1_vo'
I4
tp4401
a(S'w'
I7
tp4402
a(S'p1_tl'
I72
tp4403
a(S'w'
I13
tp4404
a(S'p2_vo'
I6
tp4405
a(S'w'
I5
tp4406
a(S'p2_tl'
I83
tp4407
a(S'w'
I10
tp4408
a(S'ch_no'
I1
tp4409
a(S'ch_tr'
I1
tp4410
a(S'ch_p2'
I1
tp4411
a(S'ch_p1'
I1
tp4412
a(S'w'
I1
tp4413
a(S'ch_no'
I1
tp4414
a(S'ch_tr'
I1
tp4415
a(S'ch_p2'
I1
tp4416
a(S'ch_p1'
I1
tp4417
a(S'w'
I2
tp4418
a(S'tr_lr'
I16
tp4419
a(S'w'
I3
tp4420
a(S'tr_ll'
I1
tp4421
a(S'tr_th'
I1
tp4422
a(S'w'
I2
tp4423
a(S'tr_tl'
I147
tp4424
a(S'w'
I689
tp4425
a(S'p2_vo'
I5
tp4426
a(S'w'
I732
tp4427
a(S'p2_vo'
I4
tp4428
a(S'w'
I733
tp4429
a(S'p2_vo'
I3
tp4430
a(S'w'
I1460
tp4431
a(S'p1_vo'
I3
tp4432
a(S'w'
I737
tp4433
a(S'p2_vo'
I2
tp4434
a(S'w'
I1483
tp4435
a(S'tr_ll'
I1
tp4436
a(S'w'
I8
tp4437
a(S'no_vo'
I14
tp4438
a(S'w'
I3
tp4439
a(S'no_ll'
I1
tp4440
a(S'w'
I1
tp4441
a(S'no_np'
I6
tp4442
a(S'w'
I704
tp4443
a(S'p2_vo'
I3
tp4444
a(S'w'
I8
tp4445
a(S'no_vo'
I9
tp4446
a(S'w'
I2
tp4447
a(S'no_ll'
I1
tp4448
a(S'w'
I1
tp4449
a(S'no_np'
I5
tp4450
a(S'w'
I716
tp4451
a(S'p1_vo'
I2
tp4452
a(S'w'
I14
tp4453
a(S'no_vo'
I6
tp4454
a(S'w'
I2
tp4455
a(S'no_ll'
I1
tp4456
a(S'w'
I1
tp4457
a(S'no_np'
I7
tp4458
a(S'w'
I727
tp4459
a(S'no_vo'
I0
tp4460
a(S'w'
I725
tp4461
a(S'p2_vo'
I2
tp4462
a(S'w'
I2194
tp4463
a(S'p1_vo'
I1
tp4464
a(S'w'
I7
tp4465
a(S'p2_vo'
I3
tp4466
a(S'w'
I748
tp4467
a(S'tr_ll'
I1
tp4468
a(S'w'
I8
tp4469
a(S'no_vo'
I12
tp4470
a(S'w'
I3
tp4471
a(S'no_ll'
I1
tp4472
a(S'w'
I1
tp4473
a(S'no_np'
I2
tp4474
a(S'w'
I709
tp4475
a(S'no_vo'
I0
tp4476
a(S'w'
I726
tp4477
a(S'p2_vo'
I2
tp4478
a(S'w'
I1461
tp4479
a(S'p1_vo'
I0
tp4480
a(S'w'
I738
tp4481
a(S'p2_vo'
I3
tp4482
a(S'w'
I2197
tp4483
a(S'p2_vo'
I2
tp4484
a(S'w'
I18
tp4485
a(S'tr_ll'
I1
tp4486
a(S'w'
I8
tp4487
a(S'no_vo'
I14
tp4488
a(S'w'
I3
tp4489
a(S'no_ll'
I1
tp4490
a(S'w'
I1
tp4491
a(S'no_np'
I6
tp4492
a(S'w'
I710
tp4493
a(S'no_vo'
I9
tp4494
a(S'w'
I2
tp4495
a(S'no_ll'
I1
tp4496
a(S'w'
I1
tp4497
a(S'no_np'
I5
tp4498
a(S'w'
I729
tp4499
a(S'no_vo'
I6
tp4500
a(S'w'
I2
tp4501
a(S'no_ll'
I1
tp4502
a(S'w'
I1
tp4503
a(S'no_np'
I7
tp4504
a(S'w'
I722
tp4505
a(S'p2_vo'
I3
tp4506
a(S'w'
I8
tp4507
a(S'no_vo'
I0
tp4508
a(S'w'
I2189
tp4509
a(S'p2_vo'
I2
tp4510
a(S'w'
I1483
tp4511
a(S'tr_lr'
I24
tp4512
a(S'w'
I4
tp4513
a(S'tr_ll'
I1
tp4514
a(S'w'
I1
tp4515
a(S'tr_tl'
I252
tp4516
a(S'w'
I7
tp4517
a(S'no_vo'
I14
tp4518
a(S'w'
I2
tp4519
a(S'no_ll'
I1
tp4520
a(S'w'
I1
tp4521
a(S'no_np'
I6
tp4522
a(S'w'
I702
tp4523
a(S'p2_vo'
I3
tp4524
a(S'w'
I7
tp4525
a(S'no_vo'
I9
tp4526
a(S'w'
I2
tp4527
a(S'no_ll'
I1
tp4528
a(S'w'
I2
tp4529
a(S'no_np'
I5
tp4530
a(S'w'
I719
tp4531
a(S'p2_vo'
I2
tp4532
a(S'w'
I8
tp4533
a(S'no_vo'
I6
tp4534
a(S'w'
I2
tp4535
a(S'no_ll'
I1
tp4536
a(S'w'
I1
tp4537
a(S'no_np'
I7
tp4538
a(S'w'
I721
tp4539
a(S'p2_vo'
I1
tp4540
a(S'w'
I8
tp4541
a(S'no_vo'
I0
tp4542
a(S'w'
I725
tp4543
a(S'p2_vo'
I0
tp4544
a(S'w'
I2933
tp4545
a(S'p1_vo'
I4
tp4546
a(S'w'
I7
tp4547
a(S'p1_tl'
I101
tp4548
a(S'w'
I11
tp4549
a(S'p2_vo'
I6
tp4550
a(S'w'
I6
tp4551
a(S'w'
I8
tp4552
a(S'tr_ll'
I1
tp4553
a(S'w'
I1
tp4554
a(S'tr_tl'
I197
tp4555
a(S'w'
I699
tp4556
a(S'p2_vo'
I5
tp4557
a(S'w'
I732
tp4558
a(S'p2_vo'
I4
tp4559
a(S'w'
I733
tp4560
a(S'p2_vo'
I3
tp4561
a(S'w'
I1461
tp4562
a(S'p1_vo'
I3
tp4563
a(S'w'
I737
tp4564
a(S'p2_vo'
I2
tp4565
a(S'w'
I1466
tp4566
a(S'p1_vo'
I4
tp4567
a(S'w'
I7
tp4568
a(S'p1_tl'
I85
tp4569
a(S'w'
I11
tp4570
a(S'p2_vo'
I6
tp4571
a(S'w'
I6
tp4572
a(S'w'
I20
tp4573
a(S'tr_ll'
I1
tp4574
a(S'w'
I2
tp4575
a(S'tr_tl'
I147
tp4576
a(S'w'
I6
tp4577
a(S'no_vo'
I12
tp4578
a(S'w'
I3
tp4579
a(S'no_ll'
I1
tp4580
a(S'w'
I1
tp4581
a(S'no_np'
I2
tp4582
a(S'w'
I676
tp4583
a(S'p2_vo'
I5
tp4584
a(S'w'
I7
tp4585
a(S'no_vo'
I0
tp4586
a(S'w'
I725
tp4587
a(S'p2_vo'
I4
tp4588
a(S'w'
I733
tp4589
a(S'p2_vo'
I3
tp4590
a(S'w'
I1461
tp4591
a(S'p1_vo'
I3
tp4592
a(S'w'
I737
tp4593
a(S'p2_vo'
I2
tp4594
a(S'w'
I1466
tp4595
a(S'p1_vo'
I4
tp4596
a(S'w'
I7
tp4597
a(S'p1_tl'
I72
tp4598
a(S'w'
I11
tp4599
a(S'p2_vo'
I6
tp4600
a(S'w'
I6
tp4601
a(S'w'
I20
tp4602
a(S'tr_ll'
I1
tp4603
a(S'w'
I1
tp4604
a(S'tr_tl'
I252
tp4605
a(S'w'
I7
tp4606
a(S'no_vo'
I12
tp4607
a(S'w'
I2
tp4608
a(S'no_ll'
I1
tp4609
a(S'w'
I1
tp4610
a(S'w'
I677
tp4611
a(S'p2_vo'
I5
tp4612
a(S'w'
I7
tp4613
a(S'no_vo'
I0
tp4614
a(S'w'
I725
tp4615
a(S'p2_vo'
I4
tp4616
a(S'w'
I733
tp4617
a(S'p2_vo'
I3
tp4618
a(S'w'
I1461
tp4619
a(S'p1_vo'
I3
tp4620
a(S'w'
I737
tp4621
a(S'p2_vo'
I2
tp4622
a(S'w'
I1470
tp4623
a(S'p1_vo'
I4
tp4624
a(S'w'
I6
tp4625
a(S'p1_tl'
I152
tp4626
a(S'w'
I12
tp4627
a(S'p2_vo'
I6
tp4628
a(S'w'
I5
tp4629
a(S'p2_tl'
I46
tp4630
a(S'w'
I6
tp4631
a(S'ch_no'
I1
tp4632
a(S'ch_tr'
I1
tp4633
a(S'ch_p2'
I1
tp4634
a(S'ch_p1'
I1
tp4635
a(S'w'
I1
tp4636
a(S'ch_no'
I1
tp4637
a(S'ch_tr'
I1
tp4638
a(S'ch_p2'
I1
tp4639
a(S'ch_p1'
I1
tp4640
a(S'w'
I8
tp4641
a(S'tr_ll'
I1
tp4642
a(S'w'
I1
tp4643
a(S'tr_tl'
I125
tp4644
a(S'w'
I689
tp4645
a(S'p2_vo'
I5
tp4646
a(S'w'
I733
tp4647
a(S'p2_vo'
I4
tp4648
a(S'w'
I733
tp4649
a(S'p2_vo'
I3
tp4650
a(S'w'
I1460
tp4651
a(S'p1_vo'
I3
tp4652
a(S'w'
I736
tp4653
a(S'p2_vo'
I2
tp4654
a(S'w'
I1467
tp4655
a(S'p1_vo'
I4
tp4656
a(S'w'
I6
tp4657
a(S'p1_tl'
I128
tp4658
a(S'w'
I12
tp4659
a(S'p2_vo'
I6
tp4660
a(S'w'
I5
tp4661
a(S'p2_ll'
I1
tp4662
a(S'p2_th'
I0
tp4663
a(S'w'
I1
tp4664
a(S'p2_tl'
I254
tp4665
a(S'w'
I21
tp4666
a(S'tr_ll'
I1
tp4667
a(S'tr_th'
I0
tp4668
a(S'w'
I2
tp4669
a(S'tr_tl'
I190
tp4670
a(S'w'
I6
tp4671
a(S'no_vo'
I12
tp4672
a(S'w'
I3
tp4673
a(S'no_ll'
I1
tp4674
a(S'w'
I1
tp4675
a(S'w'
I674
tp4676
a(S'p2_vo'
I5
tp4677
a(S'w'
I7
tp4678
a(S'no_vo'
I0
tp4679
a(S'w'
I726
tp4680
a(S'p2_vo'
I4
tp4681
a(S'w'
I732
tp4682
a(S'p2_vo'
I3
tp4683
a(S'w'
I1462
tp4684
a(S'p1_vo'
I3
tp4685
a(S'w'
I736
tp4686
a(S'p2_vo'
I2
tp4687
a(S'w'
I1468
tp4688
a(S'p1_vo'
I4
tp4689
a(S'w'
I6
tp4690
a(S'p1_tl'
I107
tp4691
a(S'w'
I13
tp4692
a(S'p2_vo'
I6
tp4693
a(S'w'
I7
tp4694
a(S'p2_tl'
I106
tp4695
a(S'w'
I10
tp4696
a(S'tr_ll'
I1
tp4697
a(S'w'
I1
tp4698
a(S'tr_tl'
I213
tp4699
a(S'w'
I693
tp4700
a(S'p2_vo'
I5
tp4701
a(S'w'
I733
tp4702
a(S'p2_vo'
I4
tp4703
a(S'w'
I732
tp4704
a(S'p2_vo'
I3
tp4705
a(S'w'
I1461
tp4706
a(S'p1_vo'
I3
tp4707
a(S'w'
I737
tp4708
a(S'p2_vo'
I2
tp4709
a(S'w'
I1468
tp4710
a(S'p1_vo'
I4
tp4711
a(S'w'
I6
tp4712
a(S'p1_tl'
I180
tp4713
a(S'w'
I13
tp4714
a(S'p2_vo'
I6
tp4715
a(S'w'
I6
tp4716
a(S'p2_tl'
I179
tp4717
a(S'w'
I19
tp4718
a(S'tr_ll'
I1
tp4719
a(S'w'
I2
tp4720
a(S'tr_tl'
I201
tp4721
a(S'w'
I6
tp4722
a(S'no_vo'
I12
tp4723
a(S'w'
I3
tp4724
a(S'no_ll'
I1
tp4725
a(S'w'
I1
tp4726
a(S'w'
I674
tp4727
a(S'p2_vo'
I5
tp4728
a(S'w'
I7
tp4729
a(S'no_vo'
I0
tp4730
a(S'w'
I725
tp4731
a(S'p2_vo'
I4
tp4732
a(S'w'
I733
tp4733
a(S'p2_vo'
I3
tp4734
a(S'w'
I1461
tp4735
a(S'p1_vo'
I3
tp4736
a(S'w'
I737
tp4737
a(S'p2_vo'
I2
tp4738
a(S'w'
I1466
tp4739
a(S'p1_vo'
I4
tp4740
a(S'w'
I6
tp4741
a(S'p1_tl'
I152
tp4742
a(S'w'
I12
tp4743
a(S'p2_vo'
I6
tp4744
a(S'w'
I6
tp4745
a(S'p2_tl'
I151
tp4746
a(S'w'
I19
tp4747
a(S'tr_ll'
I1
tp4748
a(S'w'
I1
tp4749
a(S'tr_tl'
I190
tp4750
a(S'w'
I7
tp4751
a(S'no_vo'
I12
tp4752
a(S'w'
I3
tp4753
a(S'no_ll'
I1
tp4754
a(S'w'
I1
tp4755
a(S'w'
I677
tp4756
a(S'p2_vo'
I5
tp4757
a(S'w'
I7
tp4758
a(S'no_vo'
I0
tp4759
a(S'w'
I725
tp4760
a(S'p2_vo'
I4
tp4761
a(S'w'
I733
tp4762
a(S'p2_vo'
I3
tp4763
a(S'w'
I1461
tp4764
a(S'p1_vo'
I3
tp4765
a(S'w'
I737
tp4766
a(S'p2_vo'
I2
tp4767
a(S'w'
I1466
tp4768
a(S'p1_vo'
I4
tp4769
a(S'w'
I6
tp4770
a(S'p1_tl'
I128
tp4771
a(S'w'
I12
tp4772
a(S'p2_vo'
I6
tp4773
a(S'w'
I6
tp4774
a(S'p2_tl'
I127
tp4775
a(S'w'
I20
tp4776
a(S'tr_ll'
I1
tp4777
a(S'tr_th'
I1
tp4778
a(S'w'
I2
tp4779
a(S'tr_tl'
I29
tp4780
a(S'w'
I6
tp4781
a(S'no_vo'
I14
tp4782
a(S'w'
I3
tp4783
a(S'no_ll'
I1
tp4784
a(S'w'
I1
tp4785
a(S'no_np'
I6
tp4786
a(S'w'
I675
tp4787
a(S'p2_vo'
I5
tp4788
a(S'w'
I7
tp4789
a(S'no_vo'
I9
tp4790
a(S'w'
I2
tp4791
a(S'no_ll'
I1
tp4792
a(S'w'
I2
tp4793
a(S'no_np'
I5
tp4794
a(S'w'
I722
tp4795
a(S'p2_vo'
I4
tp4796
a(S'w'
I7
tp4797
a(S'no_vo'
I6
tp4798
a(S'w'
I2
tp4799
a(S'no_ll'
I1
tp4800
a(S'w'
I2
tp4801
a(S'no_np'
I7
tp4802
a(S'w'
I722
tp4803
a(S'p2_vo'
I3
tp4804
a(S'w'
I7
tp4805
a(S'no_vo'
I0
tp4806
a(S'w'
I1454
tp4807
a(S'p1_vo'
I3
tp4808
a(S'w'
I736
tp4809
a(S'p2_vo'
I2
tp4810
a(S'w'
I1467
tp4811
a(S'p1_vo'
I4
tp4812
a(S'w'
I6
tp4813
a(S'p1_tl'
I214
tp4814
a(S'w'
I12
tp4815
a(S'p2_vo'
I6
tp4816
a(S'w'
I6
tp4817
a(S'p2_tl'
I213
tp4818
a(S'w'
I19
tp4819
a(S'tr_ll'
I1
tp4820
a(S'w'
I1
tp4821
a(S'tr_tl'
I13
tp4822
a(S'w'
I7
tp4823
a(S'no_vo'
I12
tp4824
a(S'w'
I2
tp4825
a(S'no_ll'
I1
tp4826
a(S'w'
I1
tp4827
a(S'no_np'
I2
tp4828
a(S'w'
I677
tp4829
a(S'p2_vo'
I5
tp4830
a(S'w'
I7
tp4831
a(S'no_vo'
I0
tp4832
a(S'w'
I726
tp4833
a(S'p2_vo'
I4
tp4834
a(S'w'
I732
tp4835
a(S'p2_vo'
I3
tp4836
a(S'w'
I1462
tp4837
a(S'p1_vo'
I3
tp4838
a(S'w'
I736
tp4839
a(S'p2_vo'
I2
tp4840
a(S'w'
I1467
tp4841
a(S'p1_vo'
I4
tp4842
a(S'w'
I6
tp4843
a(S'p1_tl'
I180
tp4844
a(S'w'
I12
tp4845
a(S'p2_vo'
I6
tp4846
a(S'w'
I6
tp4847
a(S'p2_tl'
I179
tp4848
a(S'w'
I19
tp4849
a(S'tr_ll'
I1
tp4850
a(S'w'
I1
tp4851
a(S'tr_tl'
I125
tp4852
a(S'w'
I7
tp4853
a(S'no_vo'
I12
tp4854
a(S'w'
I2
tp4855
a(S'no_ll'
I1
tp4856
a(S'w'
I1
tp4857
a(S'w'
I677
tp4858
a(S'p2_vo'
I5
tp4859
a(S'w'
I7
tp4860
a(S'no_vo'
I0
tp4861
a(S'w'
I726
tp4862
a(S'p2_vo'
I4
tp4863
a(S'w'
I732
tp4864
a(S'p2_vo'
I3
tp4865
a(S'w'
I1462
tp4866
a(S'p1_vo'
I3
tp4867
a(S'w'
I736
tp4868
a(S'p2_vo'
I2
tp4869
a(S'w'
I1476
tp4870
a(S'p1_du'
I1
tp4871
a(S'p1_vo'
I1
tp4872
a(S'w'
I6
tp4873
a(S'p1_tl'
I143
tp4874
a(S'w'
I13
tp4875
a(S'p2_vo'
I6
tp4876
a(S'w'
I4
tp4877
a(S'p2_ll'
I1
tp4878
a(S'p2_th'
I1
tp4879
a(S'w'
I2
tp4880
a(S'p2_tl'
I29
tp4881
a(S'w'
I14
tp4882
a(S'ch_no'
I1
tp4883
a(S'ch_tr'
I1
tp4884
a(S'ch_p2'
I1
tp4885
a(S'ch_p1'
I1
tp4886
a(S'ch_no'
I1
tp4887
a(S'ch_tr'
I1
tp4888
a(S'ch_p2'
I1
tp4889
a(S'ch_p1'
I1
tp4890
a(S'w'
I3
tp4891
a(S'tr_lr'
I48
tp4892
a(S'w'
I4
tp4893
a(S'tr_ll'
I1
tp4894
a(S'tr_th'
I2
tp4895
a(S'w'
I1
tp4896
a(S'tr_tl'
I59
tp4897
a(S'w'
I673
tp4898
a(S'p1_vo'
I2
tp4899
a(S'w'
I6
tp4900
a(S'p2_vo'
I5
tp4901
a(S'w'
I727
tp4902
a(S'p1_vo'
I4
tp4903
a(S'w'
I6
tp4904
a(S'p2_vo'
I4
tp4905
a(S'w'
I726
tp4906
a(S'p1_vo'
I5
tp4907
a(S'w'
I6
tp4908
a(S'p2_vo'
I3
tp4909
a(S'w'
I726
tp4910
a(S'p1_vo'
I4
tp4911
a(S'w'
I732
tp4912
a(S'p1_vo'
I2
tp4913
a(S'w'
I737
tp4914
a(S'p2_vo'
I2
tp4915
a(S'w'
I1471
tp4916
a(S'p2_vo'
I6
tp4917
a(S'w'
I4
tp4918
a(S'p2_ll'
I1
tp4919
a(S'p2_th'
I2
tp4920
a(S'w'
I2
tp4921
a(S'p2_tl'
I59
tp4922
a(S'w'
I720
tp4923
a(S'p2_vo'
I5
tp4924
a(S'w'
I732
tp4925
a(S'p2_vo'
I4
tp4926
a(S'w'
I733
tp4927
a(S'p2_vo'
I3
tp4928
a(S'w'
I2198
tp4929
a(S'p2_vo'
I2
tp4930
a(S'w'
I1470
tp4931
a(S'p2_vo'
I6
tp4932
a(S'w'
I5
tp4933
a(S'w'
I723
tp4934
a(S'p2_vo'
I5
tp4935
a(S'w'
I732
tp4936
a(S'p2_vo'
I4
tp4937
a(S'w'
I733
tp4938
a(S'p2_vo'
I3
tp4939
a(S'w'
I2194
tp4940
a(S'p1_vo'
I1
tp4941
a(S'w'
I6
tp4942
a(S'p2_vo'
I2
tp4943
a(S'w'
I726
tp4944
a(S'p1_vo'
I0
tp4945
a(S'w'
I738
tp4946
a(S'p1_vo'
I1
tp4947
a(S'w'
I6
tp4948
a(S'p1_tl'
I161
tp4949
a(S'w'
I14
tp4950
a(S'p2_vo'
I6
tp4951
a(S'w'
I4
tp4952
a(S'p2_ll'
I1
tp4953
a(S'p2_th'
I1
tp4954
a(S'w'
I2
tp4955
a(S'p2_tl'
I64
tp4956
a(S'w'
I6
tp4957
a(S'ch_no'
I1
tp4958
a(S'ch_tr'
I1
tp4959
a(S'ch_p2'
I1
tp4960
a(S'ch_p1'
I1
tp4961
a(S'w'
I1
tp4962
a(S'ch_no'
I1
tp4963
a(S'ch_tr'
I1
tp4964
a(S'ch_p2'
I1
tp4965
a(S'ch_p1'
I1
tp4966
a(S'w'
I6
tp4967
a(S'tr_ll'
I1
tp4968
a(S'tr_th'
I1
tp4969
a(S'w'
I1
tp4970
a(S'tr_tl'
I252
tp4971
a(S'w'
I689
tp4972
a(S'p1_vo'
I2
tp4973
a(S'w'
I6
tp4974
a(S'p2_vo'
I5
tp4975
a(S'w'
I727
tp4976
a(S'p1_vo'
I4
tp4977
a(S'w'
I6
tp4978
a(S'p2_vo'
I4
tp4979
a(S'w'
I727
tp4980
a(S'p1_vo'
I5
tp4981
a(S'w'
I6
tp4982
a(S'p2_vo'
I3
tp4983
a(S'w'
I725
tp4984
a(S'p1_vo'
I4
tp4985
a(S'w'
I733
tp4986
a(S'p1_vo'
I2
tp4987
a(S'w'
I736
tp4988
a(S'p2_vo'
I2
tp4989
a(S'w'
I1472
tp4990
a(S'p2_vo'
I6
tp4991
a(S'w'
I4
tp4992
a(S'p2_ll'
I1
tp4993
a(S'p2_th'
I2
tp4994
a(S'w'
I2
tp4995
a(S'p2_tl'
I128
tp4996
a(S'w'
I719
tp4997
a(S'p2_vo'
I5
tp4998
a(S'w'
I733
tp4999
a(S'p2_vo'
I4
tp5000
a(S'w'
I732
tp5001
a(S'p2_vo'
I3
tp5002
a(S'w'
I2198
tp5003
a(S'p2_vo'
I2
tp5004
a(S'w'
I1470
tp5005
a(S'p2_vo'
I6
tp5006
a(S'w'
I5
tp5007
a(S'w'
I723
tp5008
a(S'p2_vo'
I5
tp5009
a(S'w'
I733
tp5010
a(S'p2_vo'
I4
tp5011
a(S'w'
I732
tp5012
a(S'p2_vo'
I3
tp5013
a(S'w'
I2194
tp5014
a(S'p1_vo'
I1
tp5015
a(S'w'
I6
tp5016
a(S'p2_vo'
I2
tp5017
a(S'w'
I727
tp5018
a(S'p1_vo'
I0
tp5019
a(S'w'
I740
tp5020
a(S'p1_vo'
I1
tp5021
a(S'w'
I6
tp5022
a(S'p1_tl'
I191
tp5023
a(S'w'
I16
tp5024
a(S'p2_vo'
I6
tp5025
a(S'w'
I5
tp5026
a(S'p2_ll'
I1
tp5027
a(S'p2_th'
I0
tp5028
a(S'w'
I2
tp5029
a(S'p2_tl'
I240
tp5030
a(S'w'
I6
tp5031
a(S'ch_no'
I1
tp5032
a(S'ch_tr'
I1
tp5033
a(S'ch_p2'
I1
tp5034
a(S'ch_p1'
I1
tp5035
a(S'ch_no'
I1
tp5036
a(S'ch_tr'
I1
tp5037
a(S'ch_p2'
I1
tp5038
a(S'ch_p1'
I1
tp5039
a(S'w'
I8
tp5040
a(S'tr_lh'
I1
tp5041
a(S'tr_lr'
I16
tp5042
a(S'w'
I3
tp5043
a(S'tr_ll'
I1
tp5044
a(S'w'
I1
tp5045
a(S'tr_tl'
I224
tp5046
a(S'w'
I680
tp5047
a(S'p1_vo'
I2
tp5048
a(S'w'
I6
tp5049
a(S'p2_vo'
I5
tp5050
a(S'w'
I726
tp5051
a(S'p1_vo'
I4
tp5052
a(S'w'
I6
tp5053
a(S'p2_vo'
I4
tp5054
a(S'w'
I727
tp5055
a(S'p1_vo'
I5
tp5056
a(S'w'
I6
tp5057
a(S'p2_vo'
I3
tp5058
a(S'w'
I726
tp5059
a(S'p1_vo'
I4
tp5060
a(S'w'
I732
tp5061
a(S'p1_vo'
I2
tp5062
a(S'w'
I737
tp5063
a(S'p2_vo'
I2
tp5064
a(S'w'
I2198
tp5065
a(S'p2_vo'
I3
tp5066
a(S'w'
I2196
tp5067
a(S'p2_vo'
I2
tp5068
a(S'w'
I2199
tp5069
a(S'p2_vo'
I3
tp5070
a(S'w'
I2197
tp5071
a(S'p2_vo'
I2
tp5072
a(S'w'
I2199
tp5073
a(S'p2_vo'
I3
tp5074
a(S'w'
I2197
tp5075
a(S'p2_vo'
I2
tp5076
a(S'w'
I2199
tp5077
a(S'p2_vo'
I3
tp5078
a(S'w'
I2196
tp5079
a(S'p2_vo'
I2
tp5080
a(S'w'
I1475
tp5081
a(S'ch_no'
I1
tp5082
a(S'ch_tr'
I1
tp5083
a(S'ch_p2'
I1
tp5084
a(S'ch_p1'
I1
tp5085
a(S'w'
I1
tp5086
a(S'ch_no'
I1
tp5087
a(S'ch_tr'
I1
tp5088
a(S'ch_p2'
I1
tp5089
a(S'ch_p1'
I1
tp5090
a(S'w'
I2
tp5091
a(S'tr_lh'
I0
tp5092
a(S'tr_lr'
I25
tp5093
a(S'w'
I4
tp5094
a(S'tr_ll'
I1
tp5095
a(S'tr_th'
I0
tp5096
a(S'w'
I1
tp5097
a(S'tr_tl'
I240
tp5098
a(S'w'
I718
tp5099
a(S'p2_vo'
I3
tp5100
a(S'w'
I2195
tp5101
a(S'p2_vo'
I2
tp5102
a(S'w'
I2199
tp5103
a(S'p2_vo'
I3
tp5104
a(S'w'
I736
tp5105
a(S'ch_no'
I1
tp5106
a(S'ch_tr'
I1
tp5107
a(S'ch_p2'
I1
tp5108
a(S'ch_p1'
I1
tp5109
a(S'w'
I1
tp5110
a(S'ch_no'
I1
tp5111
a(S'ch_tr'
I1
tp5112
a(S'ch_p2'
I1
tp5113
a(S'ch_p1'
I1
tp5114
a(S'w'
I6
tp5115
a(S'tr_ll'
I1
tp5116
a(S'w'
I1
tp5117
a(S'tr_tl'
I254
tp5118
a(S'w'
I1455
tp5119
a(S'p2_vo'
I2
tp5120
a(S'w'
I2196
tp5121
a(S'p2_vo'
I3
tp5122
a(S'w'
I2197
tp5123
a(S'p2_vo'
I2
tp5124
a(S'w'
I19
tp5125
a(S'tr_ll'
I1
tp5126
a(S'w'
I1
tp5127
a(S'tr_tl'
I240
tp5128
a(S'w'
I7
tp5129
a(S'no_vo'
I14
tp5130
a(S'w'
I2
tp5131
a(S'no_ll'
I1
tp5132
a(S'w'
I1
tp5133
a(S'no_np'
I6
tp5134
a(S'w'
I711
tp5135
a(S'no_vo'
I9
tp5136
a(S'w'
I2
tp5137
a(S'no_ll'
I1
tp5138
a(S'w'
I1
tp5139
a(S'no_np'
I5
tp5140
a(S'w'
I729
tp5141
a(S'no_vo'
I6
tp5142
a(S'w'
I2
tp5143
a(S'no_ll'
I1
tp5144
a(S'w'
I1
tp5145
a(S'no_np'
I7
tp5146
a(S'w'
I723
tp5147
a(S'p2_vo'
I3
tp5148
a(S'w'
I8
tp5149
a(S'no_vo'
I0
tp5150
a(S'w'
I2189
tp5151
a(S'p2_vo'
I2
tp5152
a(S'w'
I1484
tp5153
a(S'tr_ll'
I1
tp5154
a(S'tr_th'
I1
tp5155
a(S'w'
I1
tp5156
a(S'tr_tl'
I64
tp5157
a(S'w'
I7
tp5158
a(S'no_vo'
I14
tp5159
a(S'w'
I2
tp5160
a(S'no_ll'
I1
tp5161
a(S'w'
I1
tp5162
a(S'no_np'
I6
tp5163
a(S'w'
I704
tp5164
a(S'p2_vo'
I3
tp5165
a(S'w'
I8
tp5166
a(S'no_vo'
I9
tp5167
a(S'w'
I2
tp5168
a(S'no_ll'
I1
tp5169
a(S'w'
I1
tp5170
a(S'no_np'
I5
tp5171
a(S'w'
I728
tp5172
a(S'no_vo'
I6
tp5173
a(S'w'
I2
tp5174
a(S'no_ll'
I1
tp5175
a(S'w'
I1
tp5176
a(S'no_np'
I7
tp5177
a(S'w'
I730
tp5178
a(S'no_vo'
I0
tp5179
a(S'w'
I724
tp5180
a(S'p2_vo'
I2
tp5181
a(S'w'
I2200
tp5182
a(S'p2_vo'
I3
tp5183
a(S'w'
I730
tp5184
a(S'p2_vo'
I2
tp5185
a(S'w'
I19
tp5186
a(S'tr_ll'
I1
tp5187
a(S'w'
I8
tp5188
a(S'no_vo'
I12
tp5189
a(S'w'
I2
tp5190
a(S'no_ll'
I1
tp5191
a(S'w'
I2
tp5192
a(S'no_np'
I2
tp5193
a(S'w'
I701
tp5194
a(S'p2_vo'
I1
tp5195
a(S'w'
I8
tp5196
a(S'no_vo'
I0
tp5197
a(S'w'
I725
tp5198
a(S'p2_vo'
I0
tp5199
a(S'w'
I730
tp5200
a(S'p1_vo'
I1
tp5201
a(S'w'
I732
tp5202
a(S'p1_vo'
I0
tp5203
a(S'w'
I2950
tp5204
a(S'tr_ll'
I1
tp5205
a(S'w'
I1
tp5206
a(S'tr_tl'
I224
tp5207
a(S'w'
I7
tp5208
a(S'no_vo'
I14
tp5209
a(S'w'
I2
tp5210
a(S'no_ll'
I1
tp5211
a(S'w'
I2
tp5212
a(S'no_np'
I6
tp5213
a(S'w'
I708
tp5214
a(S'no_vo'
I9
tp5215
a(S'w'
I2
tp5216
a(S'no_ll'
I1
tp5217
a(S'w'
I1
tp5218
a(S'no_np'
I5
tp5219
a(S'w'
I730
tp5220
a(S'no_vo'
I6
tp5221
a(S'w'
I2
tp5222
a(S'no_ll'
I1
tp5223
a(S'w'
I1
tp5224
a(S'no_np'
I7
tp5225
a(S'w'
I729
tp5226
a(S'no_vo'
I0
tp5227
a(S'w'
I3661
tp5228
a(S'p1_vo'
I1
tp5229
a(S'w'
I6
tp5230
a(S'p1_tl'
I214
tp5231
a(S'w'
I13
tp5232
a(S'p2_vo'
I6
tp5233
a(S'w'
I5
tp5234
a(S'p2_ll'
I1
tp5235
a(S'p2_th'
I1
tp5236
a(S'w'
I1
tp5237
a(S'p2_tl'
I29
tp5238
a(S'w'
I14
tp5239
a(S'ch_no'
I1
tp5240
a(S'ch_tr'
I1
tp5241
a(S'ch_p2'
I1
tp5242
a(S'ch_p1'
I1
tp5243
a(S'w'
I1
tp5244
a(S'ch_no'
I1
tp5245
a(S'ch_tr'
I1
tp5246
a(S'ch_p2'
I1
tp5247
a(S'ch_p1'
I1
tp5248
a(S'w'
I2
tp5249
a(S'tr_lr'
I48
tp5250
a(S'w'
I4
tp5251
a(S'tr_ll'
I1
tp5252
a(S'w'
I1
tp5253
a(S'tr_tl'
I171
tp5254
a(S'w'
I683
tp5255
a(S'p1_vo'
I2
tp5256
a(S'w'
I6
tp5257
a(S'p2_vo'
I5
tp5258
a(S'w'
I727
tp5259
a(S'p1_vo'
I4
tp5260
a(S'w'
I6
tp5261
a(S'p2_vo'
I4
tp5262
a(S'w'
I726
tp5263
a(S'p1_vo'
I5
tp5264
a(S'w'
I6
tp5265
a(S'p2_vo'
I3
tp5266
a(S'w'
I726
tp5267
a(S'p1_vo'
I4
tp5268
a(S'w'
I732
tp5269
a(S'p1_vo'
I2
tp5270
a(S'w'
I737
tp5271
a(S'p2_vo'
I2
tp5272
a(S'w'
I1466
tp5273
a(S'p1_vo'
I1
tp5274
a(S'w'
I5
tp5275
a(S'p1_ll'
I1
tp5276
a(S'p1_th'
I1
tp5277
a(S'w'
I2
tp5278
a(S'p1_tl'
I172
tp5279
a(S'w'
I13
tp5280
a(S'p2_vo'
I6
tp5281
a(S'w'
I4
tp5282
a(S'p2_ll'
I1
tp5283
a(S'p2_th'
I2
tp5284
a(S'w'
I2
tp5285
a(S'p2_tl'
I59
tp5286
a(S'w'
I702
tp5287
a(S'p1_vo'
I2
tp5288
a(S'w'
I6
tp5289
a(S'p2_vo'
I5
tp5290
a(S'w'
I726
tp5291
a(S'p1_vo'
I4
tp5292
a(S'w'
I6
tp5293
a(S'p2_vo'
I4
tp5294
a(S'w'
I727
tp5295
a(S'p1_vo'
I5
tp5296
a(S'w'
I6
tp5297
a(S'p2_vo'
I3
tp5298
a(S'w'
I727
tp5299
a(S'p1_vo'
I4
tp5300
a(S'w'
I732
tp5301
a(S'p1_vo'
I2
tp5302
a(S'w'
I737
tp5303
a(S'p2_vo'
I2
tp5304
a(S'w'
I1465
tp5305
a(S'p1_vo'
I1
tp5306
a(S'w'
I5
tp5307
a(S'w'
I12
tp5308
a(S'p2_vo'
I6
tp5309
a(S'w'
I5
tp5310
a(S'w'
I707
tp5311
a(S'p1_vo'
I2
tp5312
a(S'w'
I6
tp5313
a(S'p2_vo'
I5
tp5314
a(S'w'
I726
tp5315
a(S'p1_vo'
I4
tp5316
a(S'w'
I6
tp5317
a(S'p2_vo'
I4
tp5318
a(S'w'
I727
tp5319
a(S'p1_vo'
I5
tp5320
a(S'w'
I6
tp5321
a(S'p2_vo'
I3
tp5322
a(S'w'
I727
tp5323
a(S'p1_vo'
I4
tp5324
a(S'w'
I732
tp5325
a(S'p1_vo'
I2
tp5326
a(S'w'
I737
tp5327
a(S'p2_vo'
I2
tp5328
a(S'w'
I1465
tp5329
a(S'p1_vo'
I1
tp5330
a(S'w'
I5
tp5331
a(S'p1_tl'
I47
tp5332
a(S'w'
I13
tp5333
a(S'p2_vo'
I6
tp5334
a(S'w'
I5
tp5335
a(S'p2_ll'
I1
tp5336
a(S'p2_th'
I1
tp5337
a(S'w'
I2
tp5338
a(S'p2_tl'
I125
tp5339
a(S'w'
I6
tp5340
a(S'ch_no'
I1
tp5341
a(S'ch_tr'
I1
tp5342
a(S'ch_p2'
I1
tp5343
a(S'ch_p1'
I1
tp5344
a(S'ch_no'
I1
tp5345
a(S'ch_tr'
I1
tp5346
a(S'ch_p2'
I1
tp5347
a(S'ch_p1'
I1
tp5348
a(S'w'
I7
tp5349
a(S'tr_ll'
I1
tp5350
a(S'w'
I1
tp5351
a(S'tr_tl'
I125
tp5352
a(S'w'
I691
tp5353
a(S'p1_vo'
I2
tp5354
a(S'w'
I6
tp5355
a(S'p2_vo'
I5
tp5356
a(S'w'
I726
tp5357
a(S'p1_vo'
I4
tp5358
a(S'w'
I6
tp5359
a(S'p2_vo'
I4
tp5360
a(S'w'
I727
tp5361
a(S'p1_vo'
I5
tp5362
a(S'w'
I6
tp5363
a(S'p2_vo'
I3
tp5364
a(S'w'
I725
tp5365
a(S'p1_vo'
I4
tp5366
a(S'w'
I733
tp5367
a(S'p1_vo'
I2
tp5368
a(S'w'
I737
tp5369
a(S'p2_vo'
I2
tp5370
a(S'w'
I1466
tp5371
a(S'p1_vo'
I1
tp5372
a(S'w'
I5
tp5373
a(S'p1_ll'
I1
tp5374
a(S'p1_th'
I2
tp5375
a(S'w'
I1
tp5376
a(S'p1_tl'
I93
tp5377
a(S'w'
I14
tp5378
a(S'p2_vo'
I6
tp5379
a(S'w'
I4
tp5380
a(S'p2_ll'
I1
tp5381
a(S'p2_th'
I2
tp5382
a(S'w'
I1
tp5383
a(S'p2_tl'
I250
tp5384
a(S'w'
I702
tp5385
a(S'p1_vo'
I2
tp5386
a(S'w'
I6
tp5387
a(S'p2_vo'
I5
tp5388
a(S'w'
I727
tp5389
a(S'p1_vo'
I4
tp5390
a(S'w'
I6
tp5391
a(S'p2_vo'
I4
tp5392
a(S'w'
I727
tp5393
a(S'p1_vo'
I5
tp5394
a(S'w'
I6
tp5395
a(S'p2_vo'
I3
tp5396
a(S'w'
I726
tp5397
a(S'p1_vo'
I4
tp5398
a(S'w'
I733
tp5399
a(S'p1_vo'
I2
tp5400
a(S'w'
I736
tp5401
a(S'p2_vo'
I2
tp5402
a(S'w'
I1466
tp5403
a(S'p1_vo'
I1
tp5404
a(S'w'
I5
tp5405
a(S'w'
I11
tp5406
a(S'p2_vo'
I6
tp5407
a(S'w'
I5
tp5408
a(S'w'
I707
tp5409
a(S'p1_vo'
I2
tp5410
a(S'w'
I6
tp5411
a(S'p2_vo'
I5
tp5412
a(S'w'
I727
tp5413
a(S'p1_vo'
I4
tp5414
a(S'w'
I6
tp5415
a(S'p2_vo'
I4
tp5416
a(S'w'
I726
tp5417
a(S'p1_vo'
I5
tp5418
a(S'w'
I6
tp5419
a(S'p2_vo'
I3
tp5420
a(S'w'
I727
tp5421
a(S'p1_vo'
I4
tp5422
a(S'w'
I733
tp5423
a(S'p1_vo'
I2
tp5424
a(S'w'
I736
tp5425
a(S'p2_vo'
I2
tp5426
a(S'w'
I1469
tp5427
a(S'p1_vo'
I1
tp5428
a(S'w'
I5
tp5429
a(S'p1_ll'
I1
tp5430
a(S'p1_th'
I1
tp5431
a(S'w'
I2
tp5432
a(S'p1_tl'
I30
tp5433
a(S'w'
I16
tp5434
a(S'p2_vo'
I6
tp5435
a(S'w'
I5
tp5436
a(S'p2_ll'
I1
tp5437
a(S'p2_th'
I1
tp5438
a(S'w'
I2
tp5439
a(S'p2_tl'
I125
tp5440
a(S'w'
I6
tp5441
a(S'ch_no'
I1
tp5442
a(S'ch_tr'
I1
tp5443
a(S'ch_p2'
I1
tp5444
a(S'ch_p1'
I1
tp5445
a(S'ch_no'
I1
tp5446
a(S'ch_tr'
I1
tp5447
a(S'ch_p2'
I1
tp5448
a(S'ch_p1'
I1
tp5449
a(S'w'
I7
tp5450
a(S'tr_ll'
I1
tp5451
a(S'w'
I2
tp5452
a(S'tr_tl'
I29
tp5453
a(S'w'
I681
tp5454
a(S'p1_vo'
I2
tp5455
a(S'w'
I6
tp5456
a(S'p2_vo'
I5
tp5457
a(S'w'
I727
tp5458
a(S'p1_vo'
I4
tp5459
a(S'w'
I6
tp5460
a(S'p2_vo'
I4
tp5461
a(S'w'
I726
tp5462
a(S'p1_vo'
I5
tp5463
a(S'w'
I6
tp5464
a(S'p2_vo'
I3
tp5465
a(S'w'
I726
tp5466
a(S'p1_vo'
I4
tp5467
a(S'w'
I732
tp5468
a(S'p1_vo'
I2
tp5469
a(S'w'
I737
tp5470
a(S'p2_vo'
I2
tp5471
a(S'w'
I2198
tp5472
a(S'p2_vo'
I3
tp5473
a(S'w'
I2197
tp5474
a(S'p2_vo'
I2
tp5475
a(S'w'
I2198
tp5476
a(S'p2_vo'
I3
tp5477
a(S'w'
I2197
tp5478
a(S'p2_vo'
I2
tp5479
a(S'w'
I2199
tp5480
a(S'p2_vo'
I3
tp5481
a(S'w'
I2197
tp5482
a(S'p2_vo'
I2
tp5483
a(S'w'
I2199
tp5484
a(S'p2_vo'
I3
tp5485
a(S'w'
I2196
tp5486
a(S'p2_vo'
I2
tp5487
a(S'w'
I1473
tp5488
a(S'ch_no'
I1
tp5489
a(S'ch_tr'
I1
tp5490
a(S'ch_p2'
I1
tp5491
a(S'ch_p1'
I1
tp5492
a(S'w'
I1
tp5493
a(S'ch_no'
I1
tp5494
a(S'ch_tr'
I1
tp5495
a(S'ch_p2'
I1
tp5496
a(S'ch_p1'
I1
tp5497
a(S'w'
I2
tp5498
a(S'tr_lr'
I19
tp5499
a(S'w'
I4
tp5500
a(S'tr_ll'
I1
tp5501
a(S'w'
I721
tp5502
a(S'p2_vo'
I3
tp5503
a(S'w'
I2195
tp5504
a(S'p2_vo'
I2
tp5505
a(S'w'
I2199
tp5506
a(S'p2_vo'
I3
tp5507
a(S'w'
I737
tp5508
a(S'ch_no'
I1
tp5509
a(S'ch_tr'
I1
tp5510
a(S'ch_p2'
I1
tp5511
a(S'ch_p1'
I1
tp5512
a(S'w'
I1
tp5513
a(S'ch_no'
I1
tp5514
a(S'ch_tr'
I1
tp5515
a(S'ch_p2'
I1
tp5516
a(S'ch_p1'
I1
tp5517
a(S'w'
I6
tp5518
a(S'tr_ll'
I1
tp5519
a(S'w'
I1455
tp5520
a(S'p2_vo'
I2
tp5521
a(S'w'
I2197
tp5522
a(S'p2_vo'
I3
tp5523
a(S'w'
I2196
tp5524
a(S'p2_vo'
I2
tp5525
a(S'w'
I23
tp5526
a(S'tr_ll'
I1
tp5527
a(S'w'
I8
tp5528
a(S'no_vo'
I14
tp5529
a(S'w'
I2
tp5530
a(S'no_ll'
I1
tp5531
a(S'w'
I1
tp5532
a(S'no_np'
I6
tp5533
a(S'w'
I707
tp5534
a(S'no_vo'
I9
tp5535
a(S'w'
I2
tp5536
a(S'no_ll'
I1
tp5537
a(S'w'
I1
tp5538
a(S'no_np'
I5
tp5539
a(S'w'
I730
tp5540
a(S'no_vo'
I6
tp5541
a(S'w'
I2
tp5542
a(S'no_ll'
I1
tp5543
a(S'w'
I1
tp5544
a(S'no_np'
I7
tp5545
a(S'w'
I722
tp5546
a(S'p2_vo'
I3
tp5547
a(S'w'
I8
tp5548
a(S'no_vo'
I0
tp5549
a(S'w'
I2189
tp5550
a(S'p2_vo'
I2
tp5551
a(S'w'
I1475
tp5552
a(S'tr_ll'
I1
tp5553
a(S'tr_th'
I2
tp5554
a(S'w'
I1
tp5555
a(S'tr_tl'
I59
tp5556
a(S'w'
I723
tp5557
a(S'p2_vo'
I3
tp5558
a(S'w'
I2197
tp5559
a(S'p2_vo'
I2
tp5560
a(S'w'
I2199
tp5561
a(S'p2_vo'
I3
tp5562
a(S'w'
I730
tp5563
a(S'p2_vo'
I2
tp5564
a(S'w'
I733
tp5565
a(S'p2_vo'
I1
tp5566
a(S'w'
I732
tp5567
a(S'p2_vo'
I0
tp5568
a(S'w'
I730
tp5569
a(S'p1_vo'
I1
tp5570
a(S'w'
I732
tp5571
a(S'p1_vo'
I0
tp5572
a(S'w'
I2938
tp5573
a(S'tr_ll'
I1
tp5574
a(S'w'
I5859
tp5575
a(S'p1_vo'
I1
tp5576
a(S'w'
I6
tp5577
a(S'w'
I13
tp5578
a(S'p2_vo'
I6
tp5579
a(S'w'
I5
tp5580
a(S'w'
I14
tp5581
a(S'ch_no'
I1
tp5582
a(S'ch_tr'
I1
tp5583
a(S'ch_p2'
I1
tp5584
a(S'ch_p1'
I1
tp5585
a(S'w'
I1
tp5586
a(S'ch_no'
I1
tp5587
a(S'ch_tr'
I1
tp5588
a(S'ch_p2'
I1
tp5589
a(S'ch_p1'
I1
tp5590
a(S'w'
I3
tp5591
a(S'tr_lr'
I48
tp5592
a(S'w'
I3
tp5593
a(S'tr_ll'
I1
tp5594
a(S'w'
I684
tp5595
a(S'p1_vo'
I2
tp5596
a(S'w'
I6
tp5597
a(S'p2_vo'
I5
tp5598
a(S'w'
I727
tp5599
a(S'p1_vo'
I4
tp5600
a(S'w'
I6
tp5601
a(S'p2_vo'
I4
tp5602
a(S'w'
I726
tp5603
a(S'p1_vo'
I5
tp5604
a(S'w'
I6
tp5605
a(S'p2_vo'
I3
tp5606
a(S'w'
I726
tp5607
a(S'p1_vo'
I4
tp5608
a(S'w'
I733
tp5609
a(S'p1_vo'
I2
tp5610
a(S'w'
I736
tp5611
a(S'p2_vo'
I2
tp5612
a(S'w'
I1471
tp5613
a(S'p2_vo'
I6
tp5614
a(S'w'
I4
tp5615
a(S'p2_ll'
I1
tp5616
a(S'p2_th'
I2
tp5617
a(S'w'
I2
tp5618
a(S'p2_tl'
I59
tp5619
a(S'w'
I720
tp5620
a(S'p2_vo'
I5
tp5621
a(S'w'
I733
tp5622
a(S'p2_vo'
I4
tp5623
a(S'w'
I732
tp5624
a(S'p2_vo'
I3
tp5625
a(S'w'
I2198
tp5626
a(S'p2_vo'
I2
tp5627
a(S'w'
I1470
tp5628
a(S'p2_vo'
I6
tp5629
a(S'w'
I5
tp5630
a(S'w'
I723
tp5631
a(S'p2_vo'
I5
tp5632
a(S'w'
I732
tp5633
a(S'p2_vo'
I4
tp5634
a(S'w'
I733
tp5635
a(S'p2_vo'
I3
tp5636
a(S'w'
I2194
tp5637
a(S'p1_vo'
I1
tp5638
a(S'w'
I6
tp5639
a(S'p2_vo'
I2
tp5640
a(S'w'
I726
tp5641
a(S'p1_vo'
I0
tp5642
a(S'w'
I738
tp5643
a(S'p1_vo'
I1
tp5644
a(S'w'
I6
tp5645
a(S'p1_tl'
I65
tp5646
a(S'w'
I13
tp5647
a(S'p2_vo'
I6
tp5648
a(S'w'
I5
tp5649
a(S'p2_ll'
I1
tp5650
a(S'p2_th'
I1
tp5651
a(S'w'
I1
tp5652
a(S'p2_tl'
I171
tp5653
a(S'w'
I6
tp5654
a(S'ch_no'
I1
tp5655
a(S'ch_tr'
I1
tp5656
a(S'ch_p2'
I1
tp5657
a(S'ch_p1'
I1
tp5658
a(S'w'
I1
tp5659
a(S'ch_no'
I1
tp5660
a(S'ch_tr'
I1
tp5661
a(S'ch_p2'
I1
tp5662
a(S'ch_p1'
I1
tp5663
a(S'w'
I6
tp5664
a(S'tr_ll'
I1
tp5665
a(S'tr_th'
I1
tp5666
a(S'w'
I1
tp5667
a(S'tr_tl'
I252
tp5668
a(S'w'
I691
tp5669
a(S'p1_vo'
I2
tp5670
a(S'w'
I6
tp5671
a(S'p2_vo'
I5
tp5672
a(S'w'
I726
tp5673
a(S'p1_vo'
I4
tp5674
a(S'w'
I6
tp5675
a(S'p2_vo'
I4
tp5676
a(S'w'
I727
tp5677
a(S'p1_vo'
I5
tp5678
a(S'w'
I6
tp5679
a(S'p2_vo'
I3
tp5680
a(S'w'
I725
tp5681
a(S'p1_vo'
I4
tp5682
a(S'w'
I733
tp5683
a(S'p1_vo'
I2
tp5684
a(S'w'
I737
tp5685
a(S'p2_vo'
I2
tp5686
a(S'w'
I1471
tp5687
a(S'p2_vo'
I6
tp5688
a(S'w'
I4
tp5689
a(S'p2_ll'
I1
tp5690
a(S'p2_th'
I2
tp5691
a(S'w'
I2
tp5692
a(S'p2_tl'
I128
tp5693
a(S'w'
I720
tp5694
a(S'p2_vo'
I5
tp5695
a(S'w'
I732
tp5696
a(S'p2_vo'
I4
tp5697
a(S'w'
I733
tp5698
a(S'p2_vo'
I3
tp5699
a(S'w'
I2198
tp5700
a(S'p2_vo'
I2
tp5701
a(S'w'
I1470
tp5702
a(S'p2_vo'
I6
tp5703
a(S'w'
I5
tp5704
a(S'w'
I722
tp5705
a(S'p2_vo'
I5
tp5706
a(S'w'
I733
tp5707
a(S'p2_vo'
I4
tp5708
a(S'w'
I733
tp5709
a(S'p2_vo'
I3
tp5710
a(S'w'
I2193
tp5711
a(S'p1_vo'
I1
tp5712
a(S'w'
I6
tp5713
a(S'p2_vo'
I2
tp5714
a(S'w'
I727
tp5715
a(S'p1_vo'
I0
tp5716
a(S'w'
I741
tp5717
a(S'p1_vo'
I1
tp5718
a(S'w'
I5
tp5719
a(S'p1_tl'
I126
tp5720
a(S'w'
I17
tp5721
a(S'p2_vo'
I6
tp5722
a(S'w'
I4
tp5723
a(S'p2_ll'
I1
tp5724
a(S'p2_th'
I1
tp5725
a(S'w'
I2
tp5726
a(S'p2_tl'
I224
tp5727
a(S'w'
I6
tp5728
a(S'ch_no'
I1
tp5729
a(S'ch_tr'
I1
tp5730
a(S'ch_p2'
I1
tp5731
a(S'ch_p1'
I1
tp5732
a(S'ch_no'
I1
tp5733
a(S'ch_tr'
I1
tp5734
a(S'ch_p2'
I1
tp5735
a(S'ch_p1'
I1
tp5736
a(S'w'
I8
tp5737
a(S'tr_ll'
I1
tp5738
a(S'w'
I2
tp5739
a(S'tr_tl'
I224
tp5740
a(S'w'
I682
tp5741
a(S'p1_vo'
I2
tp5742
a(S'w'
I6
tp5743
a(S'p2_vo'
I5
tp5744
a(S'w'
I727
tp5745
a(S'p1_vo'
I4
tp5746
a(S'w'
I6
tp5747
a(S'p2_vo'
I4
tp5748
a(S'w'
I726
tp5749
a(S'p1_vo'
I5
tp5750
a(S'w'
I6
tp5751
a(S'p2_vo'
I3
tp5752
a(S'w'
I726
tp5753
a(S'p1_vo'
I4
tp5754
a(S'w'
I733
tp5755
a(S'p1_vo'
I2
tp5756
a(S'w'
I736
tp5757
a(S'p2_vo'
I2
tp5758
a(S'w'
I1472
tp5759
a(S'tr_ll'
I1
tp5760
a(S'w'
I726
tp5761
a(S'p2_vo'
I3
tp5762
a(S'w'
I2197
tp5763
a(S'p2_vo'
I2
tp5764
a(S'w'
I2199
tp5765
a(S'p2_vo'
I3
tp5766
a(S'w'
I739
tp5767
a(S'tr_ll'
I1
tp5768
a(S'w'
I1457
tp5769
a(S'p2_vo'
I2
tp5770
a(S'w'
I2199
tp5771
a(S'p2_vo'
I3
tp5772
a(S'w'
I2197
tp5773
a(S'p2_vo'
I2
tp5774
a(S'w'
I8
tp5775
a(S'tr_ll'
I1
tp5776
a(S'w'
I2191
tp5777
a(S'p2_vo'
I3
tp5778
a(S'w'
I2197
tp5779
a(S'p2_vo'
I2
tp5780
a(S'w'
I1472
tp5781
a(S'ch_no'
I1
tp5782
a(S'ch_tr'
I1
tp5783
a(S'ch_p2'
I1
tp5784
a(S'ch_p1'
I1
tp5785
a(S'w'
I1
tp5786
a(S'ch_no'
I1
tp5787
a(S'ch_tr'
I1
tp5788
a(S'ch_p2'
I1
tp5789
a(S'ch_p1'
I1
tp5790
a(S'w'
I2
tp5791
a(S'tr_lr'
I19
tp5792
a(S'w'
I3
tp5793
a(S'tr_ll'
I1
tp5794
a(S'w'
I722
tp5795
a(S'p2_vo'
I3
tp5796
a(S'w'
I2195
tp5797
a(S'p2_vo'
I2
tp5798
a(S'w'
I2199
tp5799
a(S'p2_vo'
I3
tp5800
a(S'w'
I737
tp5801
a(S'ch_no'
I1
tp5802
a(S'ch_tr'
I1
tp5803
a(S'ch_p2'
I1
tp5804
a(S'ch_p1'
I1
tp5805
a(S'w'
I1
tp5806
a(S'ch_no'
I1
tp5807
a(S'ch_tr'
I1
tp5808
a(S'ch_p2'
I1
tp5809
a(S'ch_p1'
I1
tp5810
a(S'w'
I6
tp5811
a(S'tr_ll'
I1
tp5812
a(S'w'
I1455
tp5813
a(S'p2_vo'
I2
tp5814
a(S'w'
I2197
tp5815
a(S'p2_vo'
I3
tp5816
a(S'w'
I2196
tp5817
a(S'p2_vo'
I2
tp5818
a(S'w'
I20
tp5819
a(S'tr_ll'
I1
tp5820
a(S'tr_th'
I0
tp5821
a(S'w'
I1
tp5822
a(S'tr_tl'
I240
tp5823
a(S'w'
I7
tp5824
a(S'no_vo'
I14
tp5825
a(S'w'
I3
tp5826
a(S'no_ll'
I1
tp5827
a(S'w'
I1
tp5828
a(S'no_np'
I6
tp5829
a(S'w'
I709
tp5830
a(S'no_vo'
I9
tp5831
a(S'w'
I2
tp5832
a(S'no_ll'
I1
tp5833
a(S'w'
I1
tp5834
a(S'no_np'
I5
tp5835
a(S'w'
I730
tp5836
a(S'no_vo'
I6
tp5837
a(S'w'
I2
tp5838
a(S'no_ll'
I1
tp5839
a(S'w'
I1
tp5840
a(S'no_np'
I7
tp5841
a(S'w'
I722
tp5842
a(S'p2_vo'
I3
tp5843
a(S'w'
I8
tp5844
a(S'no_vo'
I0
tp5845
a(S'w'
I2189
tp5846
a(S'p2_vo'
I2
tp5847
a(S'w'
I1485
tp5848
a(S'tr_ll'
I1
tp5849
a(S'tr_th'
I1
tp5850
a(S'w'
I1
tp5851
a(S'tr_tl'
I224
tp5852
a(S'w'
I7
tp5853
a(S'no_vo'
I14
tp5854
a(S'w'
I2
tp5855
a(S'no_ll'
I1
tp5856
a(S'w'
I1
tp5857
a(S'no_np'
I6
tp5858
a(S'w'
I703
tp5859
a(S'p2_vo'
I3
tp5860
a(S'w'
I8
tp5861
a(S'no_vo'
I9
tp5862
a(S'w'
I2
tp5863
a(S'no_ll'
I1
tp5864
a(S'w'
I1
tp5865
a(S'no_np'
I5
tp5866
a(S'w'
I728
tp5867
a(S'no_vo'
I6
tp5868
a(S'w'
I2
tp5869
a(S'no_ll'
I1
tp5870
a(S'w'
I1
tp5871
a(S'no_np'
I7
tp5872
a(S'w'
I730
tp5873
a(S'no_vo'
I0
tp5874
a(S'w'
I725
tp5875
a(S'p2_vo'
I2
tp5876
a(S'w'
I2200
tp5877
a(S'p2_vo'
I3
tp5878
a(S'w'
I729
tp5879
a(S'p2_vo'
I2
tp5880
a(S'w'
I17
tp5881
a(S'tr_lr'
I0
tp5882
a(S'w'
I7
tp5883
a(S'no_vo'
I12
tp5884
a(S'w'
I2
tp5885
a(S'no_ll'
I1
tp5886
a(S'w'
I1
tp5887
a(S'no_np'
I2
tp5888
a(S'w'
I706
tp5889
a(S'p2_vo'
I1
tp5890
a(S'w'
I8
tp5891
a(S'no_vo'
I0
tp5892
a(S'w'
I724
tp5893
a(S'p2_vo'
I0
tp5894
a(S'w'
I730
tp5895
a(S'p1_vo'
I1
tp5896
a(S'w'
I733
tp5897
a(S'p1_vo'
I0
tp5898
a(S'w'
I2944
tp5899
a(S'tr_lr'
I19
tp5900
a(S'w'
I4
tp5901
a(S'tr_ll'
I1
tp5902
a(S'w'
I8
tp5903
a(S'no_vo'
I14
tp5904
a(S'w'
I2
tp5905
a(S'no_ll'
I1
tp5906
a(S'w'
I1
tp5907
a(S'no_np'
I6
tp5908
a(S'w'
I711
tp5909
a(S'no_vo'
I9
tp5910
a(S'w'
I2
tp5911
a(S'no_ll'
I1
tp5912
a(S'w'
I1
tp5913
a(S'no_np'
I5
tp5914
a(S'w'
I729
tp5915
a(S'no_vo'
I6
tp5916
a(S'w'
I2
tp5917
a(S'no_ll'
I1
tp5918
a(S'w'
I1
tp5919
a(S'no_np'
I7
tp5920
a(S'w'
I730
tp5921
a(S'no_vo'
I0
tp5922
a(S'w'
I3661
tp5923
a(S'p1_vo'
I1
tp5924
a(S'w'
I6
tp5925
a(S'p1_tl'
I172
tp5926
a(S'w'
I12
tp5927
a(S'p2_vo'
I6
tp5928
a(S'w'
I5
tp5929
a(S'p2_tl'
I252
tp5930
a(S'w'
I14
tp5931
a(S'ch_no'
I1
tp5932
a(S'ch_tr'
I1
tp5933
a(S'ch_p2'
I1
tp5934
a(S'ch_p1'
I1
tp5935
a(S'ch_no'
I1
tp5936
a(S'ch_tr'
I1
tp5937
a(S'ch_p2'
I1
tp5938
a(S'ch_p1'
I1
tp5939
a(S'w'
I3
tp5940
a(S'tr_lr'
I48
tp5941
a(S'w'
I4
tp5942
a(S'tr_ll'
I1
tp5943
a(S'w'
I1
tp5944
a(S'tr_tl'
I171
tp5945
a(S'w'
I684
tp5946
a(S'p1_vo'
I2
tp5947
a(S'w'
I6
tp5948
a(S'p2_vo'
I5
tp5949
a(S'w'
I727
tp5950
a(S'p1_vo'
I4
tp5951
a(S'w'
I6
tp5952
a(S'p2_vo'
I4
tp5953
a(S'w'
I727
tp5954
a(S'p1_vo'
I5
tp5955
a(S'w'
I6
tp5956
a(S'p2_vo'
I3
tp5957
a(S'w'
I725
tp5958
a(S'p1_vo'
I4
tp5959
a(S'w'
I733
tp5960
a(S'p1_vo'
I2
tp5961
a(S'w'
I736
tp5962
a(S'p2_vo'
I2
tp5963
a(S'w'
I2198
tp5964
a(S'p2_vo'
I3
tp5965
a(S'w'
I2197
tp5966
a(S'p2_vo'
I2
tp5967
a(S'w'
I2199
tp5968
a(S'p2_vo'
I3
tp5969
a(S'w'
I2197
tp5970
a(S'p2_vo'
I2
tp5971
a(S'w'
I2199
tp5972
a(S'p2_vo'
I3
tp5973
a(S'w'
I727
tp5974
a(S'p1_vo'
I1
tp5975
a(S'w'
I5
tp5976
a(S'p2_vo'
I2
tp5977
a(S'w'
I728
tp5978
a(S'p1_vo'
I0
tp5979
a(S'w'
I5
tp5980
a(S'p2_vo'
I1
tp5981
a(S'w'
I734
tp5982
a(S'p1_vo'
I1
tp5983
a(S'w'
I5
tp5984
a(S'p1_ll'
I1
tp5985
a(S'p1_th'
I2
tp5986
a(S'w'
I1
tp5987
a(S'p1_tl'
I93
tp5988
a(S'w'
I12
tp5989
a(S'p2_vo'
I6
tp5990
a(S'w'
I5
tp5991
a(S'p2_ll'
I1
tp5992
a(S'p2_th'
I2
tp5993
a(S'w'
I1
tp5994
a(S'p2_tl'
I250
tp5995
a(S'w'
I6
tp5996
a(S'ch_no'
I1
tp5997
a(S'ch_tr'
I1
tp5998
a(S'ch_p2'
I1
tp5999
a(S'ch_p1'
I1
tp6000
a(S'w'
I1
tp6001
a(S'ch_no'
I1
tp6002
a(S'ch_tr'
I1
tp6003
a(S'ch_p2'
I1
tp6004
a(S'ch_p1'
I1
tp6005
a(S'w'
I7
tp6006
a(S'tr_ll'
I1
tp6007
a(S'w'
I1
tp6008
a(S'tr_tl'
I125
tp6009
a(S'w'
I689
tp6010
a(S'p1_vo'
I2
tp6011
a(S'w'
I6
tp6012
a(S'p2_vo'
I5
tp6013
a(S'w'
I726
tp6014
a(S'p1_vo'
I4
tp6015
a(S'w'
I6
tp6016
a(S'p2_vo'
I4
tp6017
a(S'w'
I727
tp6018
a(S'p1_vo'
I5
tp6019
a(S'w'
I6
tp6020
a(S'p2_vo'
I3
tp6021
a(S'w'
I726
tp6022
a(S'p1_vo'
I4
tp6023
a(S'w'
I732
tp6024
a(S'p1_vo'
I2
tp6025
a(S'w'
I737
tp6026
a(S'p2_vo'
I2
tp6027
a(S'w'
I2198
tp6028
a(S'p2_vo'
I3
tp6029
a(S'w'
I2196
tp6030
a(S'p2_vo'
I2
tp6031
a(S'w'
I2199
tp6032
a(S'p2_vo'
I3
tp6033
a(S'w'
I2197
tp6034
a(S'p2_vo'
I2
tp6035
a(S'w'
I2200
tp6036
a(S'p2_vo'
I3
tp6037
a(S'w'
I726
tp6038
a(S'p1_vo'
I1
tp6039
a(S'w'
I5
tp6040
a(S'p2_vo'
I2
tp6041
a(S'w'
I728
tp6042
a(S'p1_vo'
I0
tp6043
a(S'w'
I5
tp6044
a(S'p2_vo'
I1
tp6045
a(S'w'
I736
tp6046
a(S'p1_vo'
I1
tp6047
a(S'w'
I5
tp6048
a(S'p1_tl'
I60
tp6049
a(S'w'
I13
tp6050
a(S'p2_vo'
I6
tp6051
a(S'w'
I5
tp6052
a(S'w'
I6
tp6053
a(S'ch_no'
I1
tp6054
a(S'ch_tr'
I1
tp6055
a(S'ch_p2'
I1
tp6056
a(S'ch_p1'
I1
tp6057
a(S'w'
I1
tp6058
a(S'ch_no'
I1
tp6059
a(S'ch_tr'
I1
tp6060
a(S'ch_p2'
I1
tp6061
a(S'ch_p1'
I1
tp6062
a(S'w'
I7
tp6063
a(S'tr_ll'
I1
tp6064
a(S'w'
I1
tp6065
a(S'tr_tl'
I29
tp6066
a(S'w'
I688
tp6067
a(S'p1_vo'
I2
tp6068
a(S'w'
I6
tp6069
a(S'p2_vo'
I5
tp6070
a(S'w'
I727
tp6071
a(S'p1_vo'
I4
tp6072
a(S'w'
I6
tp6073
a(S'p2_vo'
I4
tp6074
a(S'w'
I726
tp6075
a(S'p1_vo'
I5
tp6076
a(S'w'
I6
tp6077
a(S'p2_vo'
I3
tp6078
a(S'w'
I726
tp6079
a(S'p1_vo'
I4
tp6080
a(S'w'
I733
tp6081
a(S'p1_vo'
I2
tp6082
a(S'w'
I736
tp6083
a(S'p2_vo'
I2
tp6084
a(S'w'
I2198
tp6085
a(S'p2_vo'
I3
tp6086
a(S'w'
I2197
tp6087
a(S'p2_vo'
I2
tp6088
a(S'w'
I2199
tp6089
a(S'p2_vo'
I3
tp6090
a(S'w'
I2197
tp6091
a(S'p2_vo'
I2
tp6092
a(S'w'
I2198
tp6093
a(S'p2_vo'
I3
tp6094
a(S'w'
I2197
tp6095
a(S'p2_vo'
I2
tp6096
a(S'w'
I2199
tp6097
a(S'p2_vo'
I3
tp6098
a(S'w'
I2197
tp6099
a(S'p2_vo'
I2
tp6100
a(S'w'
I1472
tp6101
a(S'ch_no'
I1
tp6102
a(S'ch_tr'
I1
tp6103
a(S'ch_p2'
I1
tp6104
a(S'ch_p1'
I1
tp6105
a(S'w'
I1
tp6106
a(S'ch_no'
I1
tp6107
a(S'ch_tr'
I1
tp6108
a(S'ch_p2'
I1
tp6109
a(S'ch_p1'
I1
tp6110
a(S'w'
I2
tp6111
a(S'tr_lr'
I19
tp6112
a(S'w'
I4
tp6113
a(S'tr_ll'
I1
tp6114
a(S'w'
I722
tp6115
a(S'p2_vo'
I3
tp6116
a(S'w'
I2194
tp6117
a(S'p2_vo'
I2
tp6118
a(S'w'
I2200
tp6119
a(S'p2_vo'
I3
tp6120
a(S'w'
I730
tp6121
a(S'p2_vo'
I2
tp6122
a(S'w'
I6
tp6123
a(S'ch_no'
I1
tp6124
a(S'ch_tr'
I1
tp6125
a(S'ch_p2'
I1
tp6126
a(S'ch_p1'
I1
tp6127
a(S'w'
I1
tp6128
a(S'ch_no'
I1
tp6129
a(S'ch_tr'
I1
tp6130
a(S'ch_p2'
I1
tp6131
a(S'ch_p1'
I1
tp6132
a(S'w'
I5
tp6133
a(S'tr_ll'
I1
tp6134
a(S'w'
I722
tp6135
a(S'p2_vo'
I1
tp6136
a(S'w'
I733
tp6137
a(S'p2_vo'
I0
tp6138
a(S'w'
I4400
tp6139
a(S'p2_vo'
I6
tp6140
a(S'w'
I5
tp6141
a(S'w'
I23
tp6142
a(S'tr_ll'
I1
tp6143
a(S'w'
I1
tp6144
a(S'tr_tl'
I125
tp6145
a(S'w'
I7
tp6146
a(S'no_vo'
I14
tp6147
a(S'w'
I3
tp6148
a(S'no_ll'
I1
tp6149
a(S'w'
I1
tp6150
a(S'no_np'
I6
tp6151
a(S'w'
I687
tp6152
a(S'p2_vo'
I5
tp6153
a(S'w'
I8
tp6154
a(S'no_vo'
I9
tp6155
a(S'w'
I2
tp6156
a(S'no_ll'
I1
tp6157
a(S'w'
I1
tp6158
a(S'no_np'
I5
tp6159
a(S'w'
I722
tp6160
a(S'p2_vo'
I4
tp6161
a(S'w'
I8
tp6162
a(S'no_vo'
I6
tp6163
a(S'w'
I2
tp6164
a(S'no_ll'
I1
tp6165
a(S'w'
I1
tp6166
a(S'no_np'
I7
tp6167
a(S'w'
I721
tp6168
a(S'p2_vo'
I3
tp6169
a(S'w'
I8
tp6170
a(S'no_vo'
I0
tp6171
a(S'w'
I2190
tp6172
a(S'p2_vo'
I2
tp6173
a(S'w'
I1470
tp6174
a(S'p2_vo'
I6
tp6175
a(S'w'
I5
tp6176
a(S'w'
I19
tp6177
a(S'tr_ll'
I1
tp6178
a(S'w'
I8
tp6179
a(S'no_vo'
I14
tp6180
a(S'w'
I2
tp6181
a(S'no_ll'
I1
tp6182
a(S'w'
I1
tp6183
a(S'no_np'
I6
tp6184
a(S'w'
I693
tp6185
a(S'p2_vo'
I5
tp6186
a(S'w'
I8
tp6187
a(S'no_vo'
I9
tp6188
a(S'w'
I2
tp6189
a(S'no_ll'
I1
tp6190
a(S'w'
I1
tp6191
a(S'no_np'
I5
tp6192
a(S'w'
I722
tp6193
a(S'p2_vo'
I4
tp6194
a(S'w'
I8
tp6195
a(S'no_vo'
I6
tp6196
a(S'w'
I2
tp6197
a(S'no_ll'
I1
tp6198
a(S'w'
I1
tp6199
a(S'no_np'
I7
tp6200
a(S'w'
I721
tp6201
a(S'p2_vo'
I3
tp6202
a(S'w'
I8
tp6203
a(S'no_vo'
I0
tp6204
a(S'w'
I2190
tp6205
a(S'p2_vo'
I2
tp6206
a(S'w'
I1470
tp6207
a(S'p2_vo'
I6
tp6208
a(S'w'
I5
tp6209
a(S'w'
I19
tp6210
a(S'tr_ll'
I1
tp6211
a(S'w'
I8
tp6212
a(S'no_vo'
I14
tp6213
a(S'w'
I2
tp6214
a(S'no_ll'
I1
tp6215
a(S'w'
I2
tp6216
a(S'no_np'
I6
tp6217
a(S'w'
I692
tp6218
a(S'p2_vo'
I5
tp6219
a(S'w'
I8
tp6220
a(S'no_vo'
I9
tp6221
a(S'w'
I2
tp6222
a(S'no_ll'
I1
tp6223
a(S'w'
I1
tp6224
a(S'no_np'
I5
tp6225
a(S'w'
I721
tp6226
a(S'p2_vo'
I4
tp6227
a(S'w'
I8
tp6228
a(S'no_vo'
I6
tp6229
a(S'w'
I2
tp6230
a(S'no_ll'
I1
tp6231
a(S'w'
I1
tp6232
a(S'no_np'
I7
tp6233
a(S'w'
I718
tp6234
a(S'p1_vo'
I1
tp6235
a(S'w'
I6
tp6236
a(S'p2_vo'
I3
tp6237
a(S'w'
I7
tp6238
a(S'no_vo'
I0
tp6239
a(S'w'
I720
tp6240
a(S'p1_vo'
I0
tp6241
a(S'w'
I1468
tp6242
a(S'p2_vo'
I2
tp6243
a(S'w'
I1470
tp6244
a(S'p2_vo'
I6
tp6245
a(S'w'
I5
tp6246
a(S'w'
I19
tp6247
a(S'tr_ll'
I1
tp6248
a(S'w'
I8
tp6249
a(S'no_vo'
I14
tp6250
a(S'w'
I2
tp6251
a(S'no_ll'
I1
tp6252
a(S'w'
I1
tp6253
a(S'no_np'
I6
tp6254
a(S'w'
I693
tp6255
a(S'p2_vo'
I5
tp6256
a(S'w'
I8
tp6257
a(S'no_vo'
I9
tp6258
a(S'w'
I2
tp6259
a(S'no_ll'
I1
tp6260
a(S'w'
I1
tp6261
a(S'no_np'
I5
tp6262
a(S'w'
I721
tp6263
a(S'p2_vo'
I4
tp6264
a(S'w'
I8
tp6265
a(S'no_vo'
I6
tp6266
a(S'w'
I2
tp6267
a(S'no_ll'
I1
tp6268
a(S'w'
I1
tp6269
a(S'no_np'
I7
tp6270
a(S'w'
I722
tp6271
a(S'p2_vo'
I3
tp6272
a(S'w'
I8
tp6273
a(S'no_vo'
I0
tp6274
a(S'w'
I2190
tp6275
a(S'p2_vo'
I2
tp6276
a(S'w'
I1488
tp6277
a(S'p1_du'
I3
tp6278
a(S'p1_vo'
I3
tp6279
a(S'w'
I6
tp6280
a(S'p1_ll'
I1
tp6281
a(S'p1_th'
I0
tp6282
a(S'w'
I1
tp6283
a(S'p1_tl'
I241
tp6284
a(S'w'
I30
tp6285
a(S'p2_du'
I3
tp6286
a(S'p2_vo'
I3
tp6287
a(S'w'
I5
tp6288
a(S'p2_ll'
I1
tp6289
a(S'p2_th'
I0
tp6290
a(S'w'
I2
tp6291
a(S'p2_tl'
I240
tp6292
a(S'w'
I13
tp6293
a(S'ch_no'
I1
tp6294
a(S'ch_tr'
I1
tp6295
a(S'ch_p2'
I1
tp6296
a(S'ch_p1'
I1
tp6297
a(S'w'
I1
tp6298
a(S'ch_no'
I1
tp6299
a(S'ch_tr'
I1
tp6300
a(S'ch_p2'
I1
tp6301
a(S'ch_p1'
I1
tp6302
a(S'w'
I2
tp6303
a(S'tr_lr'
I23
tp6304
a(S'w'
I4
tp6305
a(S'tr_ll'
I1
tp6306
a(S'tr_th'
I2
tp6307
a(S'w'
I1
tp6308
a(S'tr_tl'
I59
tp6309
a(S'w'
I1387
tp6310
a.