(lp1
(S'clock'
p2
I1789772
tp3
a(S'ch_no'
I0
tp4
a(S'ch_tr'
I0
tp5
a(S'ch_p2'
I0
tp6
a(S'ch_p1'
I0
tp7
a(S'w'
I21
tp8
a(S'ch_no'
I0
tp9
a(S'ch_tr'
I0
tp10
a(S'ch_p2'
I0
tp11
a(S'ch_p1'
I1
tp12
a(S'w'
I2
tp13
a(S'p1_vo'
I15
tp14
a(S'p1_tl'
I142
tp15
a(S'w'
I1
tp16
a(S'p1_ll'
I1
tp17
a(S'w'
I11
tp18
a(S'ch_no'
I0
tp19
a(S'ch_tr'
I1
tp20
a(S'ch_p2'
I0
tp21
a(S'ch_p1'
I1
tp22
a(S'w'
I1
tp23
a(S'tr_lr'
I32
tp24
a(S'w'
I1
tp25
a(S'tr_tl'
I29
tp26
a(S'tr_ll'
I1
tp27
a(S'tr_th'
I1
tp28
a(S'w'
I707
tp29
a(S'p1_tl'
I143
tp30
a(S'w'
I734
tp31
a(S'w'
I734
tp32
a(S'p1_tl'
I142
tp33
a(S'w'
I734
tp34
a(S'w'
I733
tp35
a(S'p1_tl'
I141
tp36
a(S'w'
I734
tp37
a(S'w'
I735
tp38
a(S'p1_tl'
I142
tp39
a(S'w'
I734
tp40
a(S'w'
I734
tp41
a(S'p1_tl'
I143
tp42
a(S'w'
I732
tp43
a(S'w'
I734
tp44
a(S'p1_tl'
I142
tp45
a(S'w'
I734
tp46
a(S'w'
I17
tp47
a(S'tr_tl'
I58
tp48
a(S'tr_ll'
I1
tp49
a(S'tr_th'
I2
tp50
a(S'w'
I717
tp51
a(S'p1_tl'
I141
tp52
a(S'w'
I734
tp53
a(S'w'
I733
tp54
a(S'p1_tl'
I142
tp55
a(S'w'
I734
tp56
a(S'w'
I734
tp57
a(S'p1_tl'
I143
tp58
a(S'w'
I734
tp59
a(S'w'
I734
tp60
a(S'p1_tl'
I142
tp61
a(S'w'
I733
tp62
a(S'w'
I734
tp63
a(S'p1_tl'
I141
tp64
a(S'w'
I734
tp65
a(S'w'
I734
tp66
a(S'p1_tl'
I142
tp67
a(S'w'
I734
tp68
a(S'w'
I17
tp69
a(S'tr_tl'
I29
tp70
a(S'w'
I1
tp71
a(S'tr_ll'
I1
tp72
a(S'tr_th'
I1
tp73
a(S'w'
I716
tp74
a(S'p1_tl'
I143
tp75
a(S'w'
I733
tp76
a(S'w'
I734
tp77
a(S'p1_tl'
I142
tp78
a(S'w'
I734
tp79
a(S'w'
I733
tp80
a(S'p1_tl'
I141
tp81
a(S'w'
I734
tp82
a(S'w'
I734
tp83
a(S'p1_tl'
I142
tp84
a(S'w'
I735
tp85
a(S'w'
I734
tp86
a(S'p1_tl'
I143
tp87
a(S'w'
I732
tp88
a(S'w'
I734
tp89
a(S'p1_tl'
I142
tp90
a(S'w'
I734
tp91
a(S'w'
I11
tp92
a(S'w'
I1
tp93
a(S'p1_ll'
I1
tp94
a(S'w'
I13
tp95
a(S'tr_tl'
I58
tp96
a(S'tr_ll'
I1
tp97
a(S'tr_th'
I2
tp98
a(S'w'
I709
tp99
a(S'p1_tl'
I141
tp100
a(S'w'
I734
tp101
a(S'w'
I733
tp102
a(S'p1_tl'
I142
tp103
a(S'w'
I734
tp104
a(S'w'
I734
tp105
a(S'p1_tl'
I143
tp106
a(S'w'
I734
tp107
a(S'w'
I734
tp108
a(S'p1_tl'
I142
tp109
a(S'w'
I733
tp110
a(S'w'
I734
tp111
a(S'p1_tl'
I141
tp112
a(S'w'
I734
tp113
a(S'w'
I734
tp114
a(S'p1_tl'
I142
tp115
a(S'w'
I734
tp116
a(S'w'
I11
tp117
a(S'p1_tl'
I151
tp118
a(S'w'
I1
tp119
a(S'p1_ll'
I1
tp120
a(S'w'
I13
tp121
a(S'tr_tl'
I46
tp122
a(S'w'
I1
tp123
a(S'tr_ll'
I1
tp124
a(S'tr_th'
I1
tp125
a(S'w'
I708
tp126
a(S'p1_tl'
I152
tp127
a(S'w'
I734
tp128
a(S'w'
I733
tp129
a(S'p1_tl'
I151
tp130
a(S'w'
I734
tp131
a(S'w'
I733
tp132
a(S'p1_tl'
I150
tp133
a(S'w'
I734
tp134
a(S'w'
I734
tp135
a(S'p1_tl'
I151
tp136
a(S'w'
I734
tp137
a(S'w'
I735
tp138
a(S'p1_tl'
I152
tp139
a(S'w'
I732
tp140
a(S'w'
I734
tp141
a(S'p1_tl'
I151
tp142
a(S'w'
I734
tp143
a(S'w'
I17
tp144
a(S'tr_tl'
I92
tp145
a(S'tr_ll'
I1
tp146
a(S'tr_th'
I2
tp147
a(S'w'
I717
tp148
a(S'p1_tl'
I150
tp149
a(S'w'
I734
tp150
a(S'w'
I733
tp151
a(S'p1_tl'
I151
tp152
a(S'w'
I734
tp153
a(S'w'
I734
tp154
a(S'p1_tl'
I152
tp155
a(S'w'
I734
tp156
a(S'w'
I734
tp157
a(S'p1_tl'
I151
tp158
a(S'w'
I733
tp159
a(S'w'
I734
tp160
a(S'p1_tl'
I150
tp161
a(S'w'
I734
tp162
a(S'w'
I734
tp163
a(S'p1_tl'
I151
tp164
a(S'w'
I734
tp165
a(S'w'
I17
tp166
a(S'tr_tl'
I46
tp167
a(S'w'
I1
tp168
a(S'tr_ll'
I1
tp169
a(S'tr_th'
I1
tp170
a(S'w'
I716
tp171
a(S'p1_tl'
I152
tp172
a(S'w'
I734
tp173
a(S'w'
I734
tp174
a(S'p1_tl'
I151
tp175
a(S'w'
I733
tp176
a(S'w'
I733
tp177
a(S'p1_tl'
I150
tp178
a(S'w'
I734
tp179
a(S'w'
I734
tp180
a(S'p1_tl'
I151
tp181
a(S'w'
I734
tp182
a(S'w'
I734
tp183
a(S'p1_tl'
I152
tp184
a(S'w'
I733
tp185
a(S'w'
I734
tp186
a(S'p1_tl'
I151
tp187
a(S'w'
I734
tp188
a(S'w'
I11
tp189
a(S'w'
I1
tp190
a(S'p1_ll'
I1
tp191
a(S'w'
I13
tp192
a(S'tr_tl'
I92
tp193
a(S'tr_ll'
I1
tp194
a(S'tr_th'
I2
tp195
a(S'w'
I709
tp196
a(S'p1_tl'
I150
tp197
a(S'w'
I734
tp198
a(S'w'
I733
tp199
a(S'p1_tl'
I151
tp200
a(S'w'
I734
tp201
a(S'w'
I734
tp202
a(S'p1_tl'
I152
tp203
a(S'w'
I734
tp204
a(S'w'
I734
tp205
a(S'p1_tl'
I151
tp206
a(S'w'
I733
tp207
a(S'w'
I734
tp208
a(S'p1_tl'
I150
tp209
a(S'w'
I734
tp210
a(S'w'
I734
tp211
a(S'p1_tl'
I151
tp212
a(S'w'
I734
tp213
a(S'w'
I11
tp214
a(S'p1_tl'
I127
tp215
a(S'w'
I1
tp216
a(S'p1_ll'
I1
tp217
a(S'w'
I13
tp218
a(S'tr_tl'
I64
tp219
a(S'w'
I1
tp220
a(S'tr_ll'
I1
tp221
a(S'tr_th'
I1
tp222
a(S'w'
I707
tp223
a(S'p1_tl'
I128
tp224
a(S'w'
I735
tp225
a(S'w'
I734
tp226
a(S'p1_tl'
I127
tp227
a(S'w'
I734
tp228
a(S'w'
I732
tp229
a(S'p1_tl'
I126
tp230
a(S'w'
I734
tp231
a(S'w'
I734
tp232
a(S'p1_tl'
I127
tp233
a(S'w'
I734
tp234
a(S'w'
I734
tp235
a(S'p1_tl'
I128
tp236
a(S'w'
I733
tp237
a(S'w'
I734
tp238
a(S'p1_tl'
I127
tp239
a(S'w'
I734
tp240
a(S'w'
I17
tp241
a(S'tr_tl'
I128
tp242
a(S'tr_ll'
I1
tp243
a(S'tr_th'
I2
tp244
a(S'w'
I717
tp245
a(S'p1_tl'
I126
tp246
a(S'w'
I734
tp247
a(S'w'
I733
tp248
a(S'p1_tl'
I127
tp249
a(S'w'
I734
tp250
a(S'w'
I734
tp251
a(S'p1_tl'
I128
tp252
a(S'w'
I734
tp253
a(S'w'
I734
tp254
a(S'p1_tl'
I127
tp255
a(S'w'
I734
tp256
a(S'w'
I733
tp257
a(S'p1_tl'
I126
tp258
a(S'w'
I734
tp259
a(S'w'
I734
tp260
a(S'p1_tl'
I127
tp261
a(S'w'
I734
tp262
a(S'w'
I17
tp263
a(S'tr_tl'
I64
tp264
a(S'w'
I1
tp265
a(S'tr_ll'
I1
tp266
a(S'tr_th'
I1
tp267
a(S'w'
I715
tp268
a(S'p1_tl'
I128
tp269
a(S'w'
I734
tp270
a(S'w'
I735
tp271
a(S'p1_tl'
I127
tp272
a(S'w'
I734
tp273
a(S'w'
I732
tp274
a(S'p1_tl'
I126
tp275
a(S'w'
I734
tp276
a(S'w'
I734
tp277
a(S'p1_tl'
I127
tp278
a(S'w'
I734
tp279
a(S'w'
I734
tp280
a(S'p1_tl'
I128
tp281
a(S'w'
I733
tp282
a(S'w'
I734
tp283
a(S'p1_tl'
I127
tp284
a(S'w'
I734
tp285
a(S'w'
I11
tp286
a(S'w'
I1
tp287
a(S'p1_ll'
I1
tp288
a(S'w'
I13
tp289
a(S'tr_tl'
I128
tp290
a(S'tr_ll'
I1
tp291
a(S'tr_th'
I2
tp292
a(S'w'
I709
tp293
a(S'p1_tl'
I126
tp294
a(S'w'
I734
tp295
a(S'w'
I733
tp296
a(S'p1_tl'
I127
tp297
a(S'w'
I734
tp298
a(S'w'
I734
tp299
a(S'p1_tl'
I128
tp300
a(S'w'
I734
tp301
a(S'w'
I734
tp302
a(S'p1_tl'
I127
tp303
a(S'w'
I734
tp304
a(S'w'
I734
tp305
a(S'p1_tl'
I126
tp306
a(S'w'
I733
tp307
a(S'w'
I734
tp308
a(S'p1_tl'
I127
tp309
a(S'w'
I734
tp310
a(S'w'
I11
tp311
a(S'p1_tl'
I134
tp312
a(S'w'
I1
tp313
a(S'p1_ll'
I1
tp314
a(S'w'
I13
tp315
a(S'tr_tl'
I83
tp316
a(S'w'
I1
tp317
a(S'tr_ll'
I1
tp318
a(S'tr_th'
I1
tp319
a(S'w'
I707
tp320
a(S'p1_tl'
I135
tp321
a(S'w'
I734
tp322
a(S'w'
I734
tp323
a(S'p1_tl'
I134
tp324
a(S'w'
I735
tp325
a(S'w'
I732
tp326
a(S'p1_tl'
I133
tp327
a(S'w'
I734
tp328
a(S'w'
I734
tp329
a(S'p1_tl'
I134
tp330
a(S'w'
I734
tp331
a(S'w'
I734
tp332
a(S'p1_tl'
I135
tp333
a(S'w'
I733
tp334
a(S'w'
I734
tp335
a(S'p1_tl'
I134
tp336
a(S'w'
I734
tp337
a(S'w'
I17
tp338
a(S'tr_tl'
I166
tp339
a(S'tr_ll'
I1
tp340
a(S'tr_th'
I2
tp341
a(S'w'
I717
tp342
a(S'p1_tl'
I133
tp343
a(S'w'
I734
tp344
a(S'w'
I733
tp345
a(S'p1_tl'
I134
tp346
a(S'w'
I734
tp347
a(S'w'
I734
tp348
a(S'p1_tl'
I135
tp349
a(S'w'
I734
tp350
a(S'w'
I734
tp351
a(S'p1_tl'
I134
tp352
a(S'w'
I734
tp353
a(S'w'
I734
tp354
a(S'p1_tl'
I133
tp355
a(S'w'
I734
tp356
a(S'w'
I733
tp357
a(S'p1_tl'
I134
tp358
a(S'w'
I734
tp359
a(S'w'
I17
tp360
a(S'tr_tl'
I83
tp361
a(S'w'
I1
tp362
a(S'tr_ll'
I1
tp363
a(S'tr_th'
I1
tp364
a(S'w'
I715
tp365
a(S'p1_tl'
I135
tp366
a(S'w'
I734
tp367
a(S'w'
I734
tp368
a(S'p1_tl'
I134
tp369
a(S'w'
I734
tp370
a(S'w'
I733
tp371
a(S'p1_tl'
I133
tp372
a(S'w'
I734
tp373
a(S'w'
I734
tp374
a(S'p1_tl'
I134
tp375
a(S'w'
I734
tp376
a(S'w'
I734
tp377
a(S'p1_tl'
I135
tp378
a(S'w'
I733
tp379
a(S'w'
I734
tp380
a(S'p1_tl'
I134
tp381
a(S'w'
I734
tp382
a(S'w'
I11
tp383
a(S'w'
I1
tp384
a(S'p1_ll'
I1
tp385
a(S'w'
I13
tp386
a(S'tr_tl'
I166
tp387
a(S'tr_ll'
I1
tp388
a(S'tr_th'
I2
tp389
a(S'w'
I709
tp390
a(S'p1_tl'
I133
tp391
a(S'w'
I734
tp392
a(S'w'
I733
tp393
a(S'p1_tl'
I134
tp394
a(S'w'
I734
tp395
a(S'w'
I734
tp396
a(S'p1_tl'
I135
tp397
a(S'w'
I734
tp398
a(S'w'
I734
tp399
a(S'p1_tl'
I134
tp400
a(S'w'
I733
tp401
a(S'w'
I735
tp402
a(S'p1_tl'
I133
tp403
a(S'w'
I734
tp404
a(S'w'
I734
tp405
a(S'p1_tl'
I134
tp406
a(S'w'
I734
tp407
a(S'w'
I12
tp408
a(S'p1_tl'
I113
tp409
a(S'p1_ll'
I1
tp410
a(S'w'
I13
tp411
a(S'tr_tl'
I207
tp412
a(S'w'
I1
tp413
a(S'tr_ll'
I1
tp414
a(S'w'
I706
tp415
a(S'p1_tl'
I114
tp416
a(S'w'
I734
tp417
a(S'w'
I734
tp418
a(S'p1_tl'
I113
tp419
a(S'w'
I734
tp420
a(S'w'
I733
tp421
a(S'p1_tl'
I112
tp422
a(S'w'
I734
tp423
a(S'w'
I734
tp424
a(S'p1_tl'
I113
tp425
a(S'w'
I734
tp426
a(S'w'
I734
tp427
a(S'p1_tl'
I114
tp428
a(S'w'
I733
tp429
a(S'w'
I734
tp430
a(S'p1_tl'
I113
tp431
a(S'w'
I734
tp432
a(S'w'
I11
tp433
a(S'p1_tl'
I120
tp434
a(S'w'
I1
tp435
a(S'p1_ll'
I1
tp436
a(S'w'
I13
tp437
a(S'tr_ll'
I1
tp438
a(S'w'
I709
tp439
a(S'p1_tl'
I119
tp440
a(S'w'
I734
tp441
a(S'w'
I734
tp442
a(S'p1_tl'
I120
tp443
a(S'w'
I733
tp444
a(S'w'
I734
tp445
a(S'p1_tl'
I121
tp446
a(S'w'
I734
tp447
a(S'w'
I734
tp448
a(S'p1_tl'
I120
tp449
a(S'w'
I733
tp450
a(S'w'
I734
tp451
a(S'p1_tl'
I119
tp452
a(S'w'
I735
tp453
a(S'w'
I734
tp454
a(S'p1_tl'
I120
tp455
a(S'w'
I734
tp456
a(S'w'
I12
tp457
a(S'p1_tl'
I113
tp458
a(S'w'
I1
tp459
a(S'p1_ll'
I1
tp460
a(S'w'
I14
tp461
a(S'tr_ll'
I1
tp462
a(S'w'
I705
tp463
a(S'p1_tl'
I114
tp464
a(S'w'
I734
tp465
a(S'w'
I734
tp466
a(S'p1_tl'
I113
tp467
a(S'w'
I734
tp468
a(S'w'
I733
tp469
a(S'p1_tl'
I112
tp470
a(S'w'
I734
tp471
a(S'w'
I734
tp472
a(S'p1_tl'
I113
tp473
a(S'w'
I734
tp474
a(S'w'
I734
tp475
a(S'p1_tl'
I114
tp476
a(S'w'
I733
tp477
a(S'w'
I734
tp478
a(S'p1_tl'
I113
tp479
a(S'w'
I734
tp480
a(S'w'
I11
tp481
a(S'p1_tl'
I120
tp482
a(S'w'
I1
tp483
a(S'p1_ll'
I1
tp484
a(S'w'
I9
tp485
a(S'ch_no'
I0
tp486
a(S'ch_tr'
I0
tp487
a(S'ch_p2'
I0
tp488
a(S'ch_p1'
I1
tp489
a(S'w'
I713
tp490
a(S'p1_tl'
I119
tp491
a(S'w'
I734
tp492
a(S'w'
I734
tp493
a(S'p1_tl'
I120
tp494
a(S'w'
I734
tp495
a(S'w'
I733
tp496
a(S'p1_tl'
I121
tp497
a(S'w'
I734
tp498
a(S'w'
I734
tp499
a(S'p1_tl'
I120
tp500
a(S'w'
I733
tp501
a(S'w'
I734
tp502
a(S'p1_tl'
I119
tp503
a(S'w'
I734
tp504
a(S'w'
I735
tp505
a(S'p1_tl'
I120
tp506
a(S'w'
I734
tp507
a(S'w'
I12
tp508
a(S'p1_tl'
I113
tp509
a(S'w'
I1
tp510
a(S'p1_ll'
I1
tp511
a(S'w'
I12
tp512
a(S'ch_no'
I0
tp513
a(S'ch_tr'
I1
tp514
a(S'ch_p2'
I0
tp515
a(S'ch_p1'
I1
tp516
a(S'w'
I2
tp517
a(S'tr_ll'
I1
tp518
a(S'w'
I705
tp519
a(S'p1_tl'
I114
tp520
a(S'w'
I734
tp521
a(S'w'
I734
tp522
a(S'p1_tl'
I113
tp523
a(S'w'
I734
tp524
a(S'w'
I733
tp525
a(S'p1_tl'
I112
tp526
a(S'w'
I734
tp527
a(S'w'
I734
tp528
a(S'p1_tl'
I113
tp529
a(S'w'
I734
tp530
a(S'w'
I734
tp531
a(S'p1_tl'
I114
tp532
a(S'w'
I733
tp533
a(S'w'
I734
tp534
a(S'p1_tl'
I113
tp535
a(S'w'
I734
tp536
a(S'w'
I11
tp537
a(S'p1_tl'
I120
tp538
a(S'w'
I1
tp539
a(S'p1_ll'
I1
tp540
a(S'w'
I13
tp541
a(S'tr_ll'
I1
tp542
a(S'w'
I709
tp543
a(S'p1_tl'
I119
tp544
a(S'w'
I734
tp545
a(S'w'
I734
tp546
a(S'p1_tl'
I120
tp547
a(S'w'
I734
tp548
a(S'w'
I734
tp549
a(S'p1_tl'
I121
tp550
a(S'w'
I733
tp551
a(S'w'
I734
tp552
a(S'p1_tl'
I120
tp553
a(S'w'
I733
tp554
a(S'w'
I734
tp555
a(S'p1_tl'
I119
tp556
a(S'w'
I734
tp557
a(S'w'
I734
tp558
a(S'p1_tl'
I120
tp559
a(S'w'
I734
tp560
a(S'w'
I13
tp561
a(S'p1_tl'
I113
tp562
a(S'w'
I1
tp563
a(S'p1_ll'
I1
tp564
a(S'w'
I10
tp565
a(S'ch_no'
I0
tp566
a(S'ch_tr'
I0
tp567
a(S'ch_p2'
I0
tp568
a(S'ch_p1'
I1
tp569
a(S'w'
I709
tp570
a(S'p1_tl'
I114
tp571
a(S'w'
I734
tp572
a(S'w'
I734
tp573
a(S'p1_tl'
I113
tp574
a(S'w'
I734
tp575
a(S'w'
I733
tp576
a(S'p1_tl'
I112
tp577
a(S'w'
I734
tp578
a(S'w'
I734
tp579
a(S'p1_tl'
I113
tp580
a(S'w'
I734
tp581
a(S'w'
I734
tp582
a(S'p1_tl'
I114
tp583
a(S'w'
I733
tp584
a(S'w'
I734
tp585
a(S'p1_tl'
I113
tp586
a(S'w'
I734
tp587
a(S'w'
I11
tp588
a(S'p1_tl'
I120
tp589
a(S'w'
I1
tp590
a(S'p1_ll'
I1
tp591
a(S'w'
I11
tp592
a(S'ch_no'
I0
tp593
a(S'ch_tr'
I1
tp594
a(S'ch_p2'
I0
tp595
a(S'ch_p1'
I1
tp596
a(S'w'
I2
tp597
a(S'tr_ll'
I1
tp598
a(S'w'
I709
tp599
a(S'p1_tl'
I119
tp600
a(S'w'
I734
tp601
a(S'w'
I733
tp602
a(S'p1_tl'
I120
tp603
a(S'w'
I735
tp604
a(S'w'
I734
tp605
a(S'p1_tl'
I121
tp606
a(S'w'
I734
tp607
a(S'w'
I734
tp608
a(S'p1_tl'
I120
tp609
a(S'w'
I732
tp610
a(S'w'
I734
tp611
a(S'p1_tl'
I119
tp612
a(S'w'
I734
tp613
a(S'w'
I734
tp614
a(S'p1_tl'
I120
tp615
a(S'w'
I734
tp616
a(S'w'
I14
tp617
a(S'p1_tl'
I106
tp618
a(S'p1_ll'
I1
tp619
a(S'w'
I10
tp620
a(S'ch_no'
I0
tp621
a(S'ch_tr'
I0
tp622
a(S'ch_p2'
I0
tp623
a(S'ch_p1'
I1
tp624
a(S'w'
I709
tp625
a(S'p1_tl'
I107
tp626
a(S'w'
I734
tp627
a(S'w'
I734
tp628
a(S'p1_tl'
I106
tp629
a(S'w'
I734
tp630
a(S'w'
I733
tp631
a(S'p1_tl'
I105
tp632
a(S'w'
I734
tp633
a(S'w'
I734
tp634
a(S'p1_tl'
I106
tp635
a(S'w'
I734
tp636
a(S'w'
I734
tp637
a(S'p1_tl'
I107
tp638
a(S'w'
I734
tp639
a(S'w'
I733
tp640
a(S'p1_tl'
I106
tp641
a(S'w'
I734
tp642
a(S'w'
I11
tp643
a(S'p1_tl'
I113
tp644
a(S'w'
I1
tp645
a(S'p1_ll'
I1
tp646
a(S'w'
I11
tp647
a(S'ch_no'
I0
tp648
a(S'ch_tr'
I1
tp649
a(S'ch_p2'
I0
tp650
a(S'ch_p1'
I1
tp651
a(S'w'
I2
tp652
a(S'tr_ll'
I1
tp653
a(S'w'
I709
tp654
a(S'p1_tl'
I112
tp655
a(S'w'
I734
tp656
a(S'w'
I733
tp657
a(S'p1_tl'
I113
tp658
a(S'w'
I734
tp659
a(S'w'
I735
tp660
a(S'p1_tl'
I114
tp661
a(S'w'
I734
tp662
a(S'w'
I734
tp663
a(S'p1_tl'
I113
tp664
a(S'w'
I732
tp665
a(S'w'
I734
tp666
a(S'p1_tl'
I112
tp667
a(S'w'
I734
tp668
a(S'w'
I734
tp669
a(S'p1_tl'
I113
tp670
a(S'w'
I734
tp671
a(S'w'
I11
tp672
a(S'p1_tl'
I106
tp673
a(S'w'
I1
tp674
a(S'p1_ll'
I1
tp675
a(S'w'
I14
tp676
a(S'tr_ll'
I1
tp677
a(S'w'
I707
tp678
a(S'p1_tl'
I107
tp679
a(S'w'
I734
tp680
a(S'w'
I734
tp681
a(S'p1_tl'
I106
tp682
a(S'w'
I734
tp683
a(S'w'
I733
tp684
a(S'p1_tl'
I105
tp685
a(S'w'
I734
tp686
a(S'w'
I734
tp687
a(S'p1_tl'
I106
tp688
a(S'w'
I734
tp689
a(S'w'
I734
tp690
a(S'p1_tl'
I107
tp691
a(S'w'
I734
tp692
a(S'w'
I734
tp693
a(S'p1_tl'
I106
tp694
a(S'w'
I733
tp695
a(S'w'
I11
tp696
a(S'p1_tl'
I113
tp697
a(S'w'
I1
tp698
a(S'p1_ll'
I1
tp699
a(S'w'
I13
tp700
a(S'tr_ll'
I1
tp701
a(S'w'
I709
tp702
a(S'p1_tl'
I112
tp703
a(S'w'
I734
tp704
a(S'w'
I733
tp705
a(S'p1_tl'
I113
tp706
a(S'w'
I734
tp707
a(S'w'
I734
tp708
a(S'p1_tl'
I114
tp709
a(S'w'
I735
tp710
a(S'w'
I734
tp711
a(S'p1_tl'
I113
tp712
a(S'w'
I732
tp713
a(S'w'
I734
tp714
a(S'p1_tl'
I112
tp715
a(S'w'
I734
tp716
a(S'w'
I734
tp717
a(S'p1_tl'
I113
tp718
a(S'w'
I734
tp719
a(S'w'
I11
tp720
a(S'p1_tl'
I95
tp721
a(S'w'
I1
tp722
a(S'p1_ll'
I1
tp723
a(S'w'
I10
tp724
a(S'ch_no'
I0
tp725
a(S'ch_tr'
I0
tp726
a(S'ch_p2'
I0
tp727
a(S'ch_p1'
I1
tp728
a(S'w'
I711
tp729
a(S'p1_tl'
I96
tp730
a(S'w'
I734
tp731
a(S'w'
I734
tp732
a(S'p1_tl'
I95
tp733
a(S'w'
I734
tp734
a(S'w'
I733
tp735
a(S'p1_tl'
I94
tp736
a(S'w'
I734
tp737
a(S'w'
I734
tp738
a(S'p1_tl'
I95
tp739
a(S'w'
I734
tp740
a(S'w'
I734
tp741
a(S'p1_tl'
I96
tp742
a(S'w'
I734
tp743
a(S'w'
I734
tp744
a(S'p1_tl'
I95
tp745
a(S'w'
I734
tp746
a(S'w'
I10
tp747
a(S'p1_tl'
I100
tp748
a(S'w'
I1
tp749
a(S'p1_ll'
I1
tp750
a(S'w'
I12
tp751
a(S'ch_no'
I0
tp752
a(S'ch_tr'
I1
tp753
a(S'ch_p2'
I0
tp754
a(S'ch_p1'
I1
tp755
a(S'w'
I2
tp756
a(S'tr_ll'
I1
tp757
a(S'w'
I709
tp758
a(S'p1_tl'
I99
tp759
a(S'w'
I733
tp760
a(S'w'
I733
tp761
a(S'p1_tl'
I100
tp762
a(S'w'
I734
tp763
a(S'w'
I734
tp764
a(S'p1_tl'
I101
tp765
a(S'w'
I734
tp766
a(S'w'
I734
tp767
a(S'p1_tl'
I100
tp768
a(S'w'
I733
tp769
a(S'w'
I734
tp770
a(S'p1_tl'
I99
tp771
a(S'w'
I734
tp772
a(S'w'
I734
tp773
a(S'p1_tl'
I100
tp774
a(S'w'
I734
tp775
a(S'w'
I11
tp776
a(S'p1_tl'
I95
tp777
a(S'w'
I1
tp778
a(S'p1_ll'
I1
tp779
a(S'w'
I14
tp780
a(S'tr_ll'
I1
tp781
a(S'w'
I707
tp782
a(S'p1_tl'
I96
tp783
a(S'w'
I734
tp784
a(S'w'
I734
tp785
a(S'p1_tl'
I95
tp786
a(S'w'
I734
tp787
a(S'w'
I733
tp788
a(S'p1_tl'
I94
tp789
a(S'w'
I734
tp790
a(S'w'
I734
tp791
a(S'p1_tl'
I95
tp792
a(S'w'
I734
tp793
a(S'w'
I734
tp794
a(S'p1_tl'
I96
tp795
a(S'w'
I733
tp796
a(S'w'
I735
tp797
a(S'p1_tl'
I95
tp798
a(S'w'
I734
tp799
a(S'w'
I10
tp800
a(S'p1_tl'
I100
tp801
a(S'w'
I1
tp802
a(S'p1_ll'
I1
tp803
a(S'w'
I10
tp804
a(S'ch_no'
I0
tp805
a(S'ch_tr'
I0
tp806
a(S'ch_p2'
I0
tp807
a(S'ch_p1'
I1
tp808
a(S'w'
I713
tp809
a(S'p1_tl'
I99
tp810
a(S'w'
I734
tp811
a(S'w'
I732
tp812
a(S'p1_tl'
I100
tp813
a(S'w'
I734
tp814
a(S'w'
I734
tp815
a(S'p1_tl'
I101
tp816
a(S'w'
I734
tp817
a(S'w'
I734
tp818
a(S'p1_tl'
I100
tp819
a(S'w'
I733
tp820
a(S'w'
I734
tp821
a(S'p1_tl'
I99
tp822
a(S'w'
I734
tp823
a(S'w'
I734
tp824
a(S'p1_tl'
I100
tp825
a(S'w'
I734
tp826
a(S'w'
I17
tp827
a(S'p1_tl'
I142
tp828
a(S'p1_ll'
I1
tp829
a(S'w'
I15
tp830
a(S'ch_no'
I0
tp831
a(S'ch_tr'
I1
tp832
a(S'ch_p2'
I0
tp833
a(S'ch_p1'
I1
tp834
a(S'w'
I1
tp835
a.