(lp1
(S'clock'
p2
I1789772
tp3
a(S'ch_no'
I0
tp4
a(S'ch_tr'
I0
tp5
a(S'ch_p2'
I0
tp6
a(S'ch_p1'
I0
tp7
a(S'w'
I17
tp8
a(S'ch_no'
I0
tp9
a(S'ch_tr'
I0
tp10
a(S'ch_p2'
I0
tp11
a(S'ch_p1'
I1
tp12
a(S'w'
I1
tp13
a(S'p1_du'
I1
tp14
a(S'p1_vo'
I15
tp15
a(S'p1_tl'
I142
tp16
a(S'w'
I1
tp17
a(S'p1_ll'
I1
tp18
a(S'w'
I731
tp19
a(S'p2_du'
I1
tp20
a(S'p2_vo'
I15
tp21
a(S'w'
I6
tp22
a(S'tr_lr'
I127
tp23
a(S'w'
I8069
tp24
a(S'p1_tl'
I160
tp25
a(S'w'
I1
tp26
a(S'p1_ll'
I1
tp27
a(S'w'
I8805
tp28
a(S'p1_tl'
I190
tp29
a(S'w'
I1
tp30
a(S'p1_ll'
I1
tp31
a(S'w'
I8803
tp32
a(S'p1_tl'
I226
tp33
a(S'w'
I1
tp34
a(S'p1_ll'
I1
tp35
a(S'w'
I8805
tp36
a(S'p1_tl'
I29
tp37
a(S'w'
I1
tp38
a(S'p1_ll'
I1
tp39
a(S'p1_th'
I1
tp40
a(S'w'
I8804
tp41
a(S'p1_tl'
I64
tp42
a(S'w'
I1
tp43
a(S'p1_ll'
I1
tp44
a(S'w'
I8805
tp45
a(S'p1_tl'
I103
tp46
a(S'w'
I1
tp47
a(S'p1_ll'
I1
tp48
a(S'w'
I8804
tp49
a(S'p1_tl'
I125
tp50
a(S'w'
I1
tp51
a(S'p1_ll'
I1
tp52
a(S'w'
I8805
tp53
a(S'w'
I1
tp54
a(S'p1_ll'
I1
tp55
a(S'w'
I12
tp56
a(S'ch_no'
I0
tp57
a(S'ch_tr'
I0
tp58
a(S'ch_p2'
I1
tp59
a(S'ch_p1'
I1
tp60
a(S'w'
I1
tp61
a(S'w'
I1
tp62
a(S'p2_tl'
I128
tp63
a(S'p2_ll'
I1
tp64
a(S'p2_th'
I2
tp65
a(S'w'
I12
tp66
a(S'ch_no'
I0
tp67
a(S'ch_tr'
I1
tp68
a(S'ch_p2'
I1
tp69
a(S'ch_p1'
I1
tp70
a(S'w'
I1
tp71
a(S'tr_tl'
I197
tp72
a(S'w'
I1
tp73
a(S'tr_ll'
I1
tp74
a(S'tr_th'
I1
tp75
a(S'w'
I26387
tp76
a(S'p1_tl'
I171
tp77
a(S'w'
I1
tp78
a(S'p1_ll'
I1
tp79
a(S'w'
I14
tp80
a(S'p2_tl'
I207
tp81
a(S'p2_ll'
I1
tp82
a(S'w'
I16
tp83
a(S'tr_tl'
I171
tp84
a(S'tr_ll'
I1
tp85
a(S'w'
I8775
tp86
a(S'w'
I1
tp87
a(S'p1_ll'
I1
tp88
a(S'w'
I14
tp89
a(S'p2_ll'
I1
tp90
a(S'w'
I17
tp91
a(S'tr_ll'
I1
tp92
a(S'w'
I8790
tp93
a(S'tr_ll'
I1
tp94
a(S'w'
I8806
tp95
a(S'tr_ll'
I1
tp96
a(S'w'
I8805
tp97
a(S'tr_ll'
I1
tp98
a(S'w'
I8784
tp99
a(S'ch_no'
I0
tp100
a(S'ch_tr'
I1
tp101
a(S'ch_p2'
I1
tp102
a(S'ch_p1'
I0
tp103
a(S'w'
I9
tp104
a(S'ch_no'
I0
tp105
a(S'ch_tr'
I1
tp106
a(S'ch_p2'
I0
tp107
a(S'ch_p1'
I0
tp108
a(S'w'
I10
tp109
a(S'ch_no'
I0
tp110
a(S'ch_tr'
I0
tp111
a(S'ch_p2'
I0
tp112
a(S'ch_p1'
I0
tp113
a(S'w'
I36231
tp114
a.