(lp1
(S'clock'
p2
I1789772
tp3
a(S'p1_lh'
I1
tp4
a(S'p1_cv'
I1
tp5
a(S'p1_sp'
I3
tp6
a(S'p2_lh'
I1
tp7
a(S'p2_cv'
I1
tp8
a(S'p2_sp'
I3
tp9
a(S'no_lh'
I1
tp10
a(S'no_cv'
I1
tp11
a(S'ch_no'
I1
tp12
a(S'ch_tr'
I1
tp13
a(S'ch_p2'
I1
tp14
a(S'ch_p1'
I1
tp15
a(S'fc_mo'
I1
tp16
a(S'p1_sp'
I0
tp17
a(S'w'
I5
tp18
a(S'p1_vo'
I11
tp19
a(S'w'
I4
tp20
a(S'p1_tl'
I106
tp21
a(S'w'
I1
tp22
a(S'p1_ll'
I1
tp23
a(S'w'
I9
tp24
a(S'p2_sp'
I0
tp25
a(S'w'
I5
tp26
a(S'p2_vo'
I3
tp27
a(S'w'
I1
tp28
a(S'p2_vo'
I0
tp29
a(S'w'
I15
tp30
a(S'tr_lh'
I1
tp31
a(S'tr_lr'
I63
tp32
a(S'w'
I1
tp33
a(S'tr_lh'
I0
tp34
a(S'tr_lr'
I0
tp35
a(S'w'
I687
tp36
a(S'p1_vo'
I10
tp37
a(S'w'
I734
tp38
a(S'p1_vo'
I9
tp39
a(S'w'
I734
tp40
a(S'p1_vo'
I8
tp41
a(S'w'
I734
tp42
a(S'p1_vo'
I7
tp43
a(S'w'
I734
tp44
a(S'p1_vo'
I6
tp45
a(S'w'
I733
tp46
a(S'p1_vo'
I5
tp47
a(S'w'
I739
tp48
a(S'p1_vo'
I11
tp49
a(S'w'
I3
tp50
a(S'p1_tl'
I120
tp51
a(S'w'
I726
tp52
a(S'p1_vo'
I10
tp53
a(S'w'
I734
tp54
a(S'p1_vo'
I9
tp55
a(S'w'
I734
tp56
a(S'p1_vo'
I8
tp57
a(S'w'
I733
tp58
a(S'p1_vo'
I7
tp59
a(S'w'
I734
tp60
a(S'p1_vo'
I6
tp61
a(S'w'
I734
tp62
a(S'p1_vo'
I5
tp63
a(S'w'
I738
tp64
a(S'p1_vo'
I11
tp65
a(S'w'
I4
tp66
a(S'p1_tl'
I142
tp67
a(S'w'
I14
tp68
a(S'p2_vo'
I3
tp69
a(S'w'
I4
tp70
a(S'p2_tl'
I107
tp71
a(S'w'
I1
tp72
a(S'p2_ll'
I1
tp73
a(S'w'
I707
tp74
a(S'p1_vo'
I10
tp75
a(S'w'
I5
tp76
a(S'p2_vo'
I2
tp77
a(S'w'
I728
tp78
a(S'p1_vo'
I9
tp79
a(S'w'
I734
tp80
a(S'p1_vo'
I8
tp81
a(S'w'
I734
tp82
a(S'p1_vo'
I7
tp83
a(S'w'
I734
tp84
a(S'p1_vo'
I6
tp85
a(S'w'
I734
tp86
a(S'p1_vo'
I5
tp87
a(S'w'
I739
tp88
a(S'p1_vo'
I11
tp89
a(S'w'
I3
tp90
a(S'p1_tl'
I160
tp91
a(S'w'
I11
tp92
a(S'p2_vo'
I3
tp93
a(S'w'
I4
tp94
a(S'p2_tl'
I121
tp95
a(S'w'
I710
tp96
a(S'p1_vo'
I10
tp97
a(S'w'
I5
tp98
a(S'p2_vo'
I2
tp99
a(S'w'
I729
tp100
a(S'p1_vo'
I9
tp101
a(S'w'
I734
tp102
a(S'p1_vo'
I8
tp103
a(S'w'
I734
tp104
a(S'p1_vo'
I7
tp105
a(S'w'
I733
tp106
a(S'p1_vo'
I6
tp107
a(S'w'
I734
tp108
a(S'p1_vo'
I5
tp109
a(S'w'
I734
tp110
a(S'p1_vo'
I4
tp111
a(S'w'
I9
tp112
a(S'p2_vo'
I3
tp113
a(S'w'
I4
tp114
a(S'p2_tl'
I143
tp115
a(S'w'
I721
tp116
a(S'p1_vo'
I3
tp117
a(S'w'
I5
tp118
a(S'p2_vo'
I2
tp119
a(S'w'
I729
tp120
a(S'p1_vo'
I2
tp121
a(S'w'
I3678
tp122
a(S'p2_vo'
I3
tp123
a(S'w'
I4
tp124
a(S'p2_tl'
I161
tp125
a(S'w'
I725
tp126
a(S'p2_vo'
I2
tp127
a(S'w'
I14676
tp128
a(S'p1_vo'
I11
tp129
a(S'w'
I4
tp130
a(S'p1_tl'
I213
tp131
a(S'w'
I725
tp132
a(S'p1_vo'
I10
tp133
a(S'w'
I734
tp134
a(S'p1_vo'
I9
tp135
a(S'w'
I734
tp136
a(S'p1_vo'
I8
tp137
a(S'w'
I734
tp138
a(S'p1_vo'
I7
tp139
a(S'w'
I734
tp140
a(S'p1_vo'
I6
tp141
a(S'w'
I733
tp142
a(S'p1_vo'
I5
tp143
a(S'w'
I739
tp144
a(S'p1_vo'
I11
tp145
a(S'w'
I3
tp146
a(S'p1_tl'
I240
tp147
a(S'w'
I726
tp148
a(S'p1_vo'
I10
tp149
a(S'w'
I734
tp150
a(S'p1_vo'
I9
tp151
a(S'w'
I733
tp152
a(S'p1_vo'
I8
tp153
a(S'w'
I734
tp154
a(S'p1_vo'
I7
tp155
a(S'w'
I734
tp156
a(S'p1_vo'
I6
tp157
a(S'w'
I734
tp158
a(S'p1_vo'
I5
tp159
a(S'w'
I738
tp160
a(S'p1_vo'
I11
tp161
a(S'w'
I3
tp162
a(S'p1_tl'
I29
tp163
a(S'w'
I1
tp164
a(S'p1_ll'
I1
tp165
a(S'p1_th'
I1
tp166
a(S'w'
I10
tp167
a(S'p2_vo'
I3
tp168
a(S'w'
I4
tp169
a(S'p2_tl'
I214
tp170
a(S'w'
I711
tp171
a(S'p1_vo'
I10
tp172
a(S'w'
I6
tp173
a(S'p2_vo'
I2
tp174
a(S'w'
I728
tp175
a(S'p1_vo'
I9
tp176
a(S'w'
I734
tp177
a(S'p1_vo'
I8
tp178
a(S'w'
I734
tp179
a(S'p1_vo'
I7
tp180
a(S'w'
I734
tp181
a(S'p1_vo'
I6
tp182
a(S'w'
I734
tp183
a(S'p1_vo'
I5
tp184
a(S'w'
I739
tp185
a(S'p1_vo'
I11
tp186
a(S'w'
I3
tp187
a(S'p1_tl'
I64
tp188
a(S'w'
I11
tp189
a(S'p2_vo'
I3
tp190
a(S'w'
I3
tp191
a(S'p2_tl'
I241
tp192
a(S'w'
I711
tp193
a(S'p1_vo'
I10
tp194
a(S'w'
I5
tp195
a(S'p2_vo'
I2
tp196
a(S'w'
I729
tp197
a(S'p1_vo'
I9
tp198
a(S'w'
I734
tp199
a(S'p1_vo'
I8
tp200
a(S'w'
I734
tp201
a(S'p1_vo'
I7
tp202
a(S'w'
I733
tp203
a(S'p1_vo'
I6
tp204
a(S'w'
I734
tp205
a(S'p1_vo'
I5
tp206
a(S'w'
I734
tp207
a(S'p1_vo'
I4
tp208
a(S'w'
I9
tp209
a(S'p2_vo'
I3
tp210
a(S'w'
I3
tp211
a(S'p2_tl'
I30
tp212
a(S'w'
I2
tp213
a(S'p2_ll'
I1
tp214
a(S'p2_th'
I1
tp215
a(S'w'
I720
tp216
a(S'p1_vo'
I3
tp217
a(S'w'
I5
tp218
a(S'p2_vo'
I2
tp219
a(S'w'
I729
tp220
a(S'p1_vo'
I2
tp221
a(S'w'
I3678
tp222
a(S'p2_vo'
I3
tp223
a(S'w'
I3
tp224
a(S'p2_tl'
I65
tp225
a(S'w'
I726
tp226
a(S'p2_vo'
I2
tp227
a(S'w'
I14676
tp228
a(S'p1_vo'
I11
tp229
a(S'w'
I3
tp230
a(S'p1_tl'
I171
tp231
a(S'w'
I15
tp232
a(S'tr_lh'
I1
tp233
a(S'tr_lr'
I63
tp234
a(S'tr_lh'
I0
tp235
a(S'tr_lr'
I0
tp236
a(S'w'
I711
tp237
a(S'p1_vo'
I10
tp238
a(S'w'
I734
tp239
a(S'p1_vo'
I9
tp240
a(S'w'
I734
tp241
a(S'p1_vo'
I8
tp242
a(S'w'
I734
tp243
a(S'p1_vo'
I7
tp244
a(S'w'
I733
tp245
a(S'p1_vo'
I6
tp246
a(S'w'
I734
tp247
a(S'p1_vo'
I5
tp248
a(S'w'
I741
tp249
a(S'p1_vo'
I11
tp250
a(S'w'
I3
tp251
a(S'p1_tl'
I224
tp252
a(S'w'
I724
tp253
a(S'p1_vo'
I10
tp254
a(S'w'
I734
tp255
a(S'p1_vo'
I9
tp256
a(S'w'
I733
tp257
a(S'p1_vo'
I8
tp258
a(S'w'
I734
tp259
a(S'p1_vo'
I7
tp260
a(S'w'
I734
tp261
a(S'p1_vo'
I6
tp262
a(S'w'
I734
tp263
a(S'p1_vo'
I5
tp264
a(S'w'
I738
tp265
a(S'p1_vo'
I11
tp266
a(S'w'
I2
tp267
a(S'p1_tl'
I59
tp268
a(S'w'
I1
tp269
a(S'p1_ll'
I1
tp270
a(S'p1_th'
I2
tp271
a(S'w'
I11
tp272
a(S'p2_vo'
I3
tp273
a(S'w'
I3
tp274
a(S'p2_tl'
I172
tp275
a(S'w'
I712
tp276
a(S'p1_vo'
I10
tp277
a(S'w'
I5
tp278
a(S'p2_vo'
I2
tp279
a(S'w'
I729
tp280
a(S'p1_vo'
I9
tp281
a(S'w'
I734
tp282
a(S'p1_vo'
I8
tp283
a(S'w'
I734
tp284
a(S'p1_vo'
I7
tp285
a(S'w'
I734
tp286
a(S'p1_vo'
I6
tp287
a(S'w'
I733
tp288
a(S'p1_vo'
I5
tp289
a(S'w'
I739
tp290
a(S'p1_vo'
I11
tp291
a(S'w'
I3
tp292
a(S'p1_tl'
I128
tp293
a(S'w'
I14
tp294
a(S'p2_vo'
I3
tp295
a(S'w'
I2
tp296
a(S'p2_tl'
I225
tp297
a(S'w'
I11
tp298
a(S'tr_lh'
I1
tp299
a(S'tr_lr'
I63
tp300
a(S'w'
I2
tp301
a(S'tr_tl'
I171
tp302
a(S'w'
I1
tp303
a(S'tr_ll'
I1
tp304
a(S'tr_th'
I1
tp305
a(S'w'
I696
tp306
a(S'p1_vo'
I10
tp307
a(S'w'
I5
tp308
a(S'p2_vo'
I2
tp309
a(S'w'
I729
tp310
a(S'p1_vo'
I9
tp311
a(S'w'
I734
tp312
a(S'p1_vo'
I8
tp313
a(S'w'
I733
tp314
a(S'p1_vo'
I7
tp315
a(S'w'
I734
tp316
a(S'p1_vo'
I6
tp317
a(S'w'
I9
tp318
a(S'tr_lh'
I0
tp319
a(S'tr_lr'
I0
tp320
a(S'w'
I725
tp321
a(S'p1_vo'
I5
tp322
a(S'w'
I734
tp323
a(S'p1_vo'
I4
tp324
a(S'w'
I743
tp325
a(S'p1_du'
I1
tp326
a(S'p1_vo'
I11
tp327
a(S'w'
I3
tp328
a(S'p1_tl'
I103
tp329
a(S'w'
I1
tp330
a(S'p1_ll'
I1
tp331
a(S'p1_th'
I1
tp332
a(S'w'
I8
tp333
a(S'p2_sn'
I1
tp334
a(S'p2_ss'
I7
tp335
a(S'w'
I6
tp336
a(S'p2_du'
I1
tp337
a(S'p2_vo'
I11
tp338
a(S'w'
I3
tp339
a(S'p2_tl'
I172
tp340
a(S'w'
I1
tp341
a(S'p2_ll'
I1
tp342
a(S'w'
I9
tp343
a(S'tr_lh'
I1
tp344
a(S'tr_lr'
I63
tp345
a(S'w'
I3
tp346
a(S'w'
I1
tp347
a(S'tr_ll'
I1
tp348
a(S'w'
I689
tp349
a(S'p1_vo'
I10
tp350
a(S'w'
I5
tp351
a(S'p2_vo'
I10
tp352
a(S'w'
I729
tp353
a(S'p1_vo'
I9
tp354
a(S'w'
I5
tp355
a(S'p2_vo'
I9
tp356
a(S'w'
I729
tp357
a(S'p1_vo'
I8
tp358
a(S'w'
I5
tp359
a(S'p2_vo'
I8
tp360
a(S'w'
I729
tp361
a(S'p1_vo'
I7
tp362
a(S'w'
I5
tp363
a(S'p2_vo'
I7
tp364
a(S'w'
I729
tp365
a(S'p1_vo'
I6
tp366
a(S'w'
I5
tp367
a(S'p2_vo'
I6
tp368
a(S'w'
I728
tp369
a(S'p1_vo'
I5
tp370
a(S'w'
I6
tp371
a(S'p2_vo'
I5
tp372
a(S'w'
I728
tp373
a(S'p1_vo'
I4
tp374
a(S'w'
I5
tp375
a(S'p2_vo'
I4
tp376
a(S'w'
I729
tp377
a(S'p1_vo'
I3
tp378
a(S'w'
I5
tp379
a(S'p2_vo'
I3
tp380
a(S'w'
I729
tp381
a(S'p1_vo'
I2
tp382
a(S'w'
I8813
tp383
a(S'tr_lh'
I0
tp384
a(S'tr_lr'
I0
tp385
a(S'w'
I2205
tp386
a(S'tr_lh'
I1
tp387
a(S'tr_lr'
I63
tp388
a(S'w'
I4
tp389
a(S'tr_ll'
I1
tp390
a(S'w'
I723
tp391
a(S'p2_vo'
I2
tp392
a(S'w'
I734
tp393
a(S'p2_vo'
I1
tp394
a(S'w'
I734
tp395
a(S'p2_vo'
I0
tp396
a(S'w'
I1471
tp397
a(S'tr_lh'
I0
tp398
a(S'tr_lr'
I0
tp399
a(S'w'
I2203
tp400
a(S'w'
I5
tp401
a(S'p2_du'
I2
tp402
a(S'p2_vo'
I10
tp403
a(S'w'
I2
tp404
a(S'p2_tl'
I175
tp405
a(S'w'
I1
tp406
a(S'p2_ll'
I1
tp407
a(S'p2_th'
I6
tp408
a(S'w'
I9
tp409
a(S'tr_lh'
I1
tp410
a(S'tr_lr'
I63
tp411
a(S'w'
I4
tp412
a(S'tr_ll'
I1
tp413
a(S'w'
I707
tp414
a(S'p2_vo'
I9
tp415
a(S'w'
I734
tp416
a(S'p2_vo'
I8
tp417
a(S'w'
I734
tp418
a(S'p2_vo'
I7
tp419
a(S'w'
I734
tp420
a(S'p2_vo'
I6
tp421
a(S'w'
I734
tp422
a(S'p2_vo'
I5
tp423
a(S'w'
I733
tp424
a(S'p2_vo'
I4
tp425
a(S'w'
I5140
tp426
a(S'tr_lh'
I0
tp427
a(S'tr_lr'
I0
tp428
a(S'w'
I2203
tp429
a(S'p2_vo'
I10
tp430
a(S'w'
I2
tp431
a(S'p2_tl'
I119
tp432
a(S'w'
I1
tp433
a(S'p2_ll'
I1
tp434
a(S'p2_th'
I4
tp435
a(S'w'
I9
tp436
a(S'tr_lh'
I1
tp437
a(S'tr_lr'
I63
tp438
a(S'w'
I3
tp439
a(S'tr_ll'
I1
tp440
a(S'w'
I714
tp441
a(S'p2_vo'
I9
tp442
a(S'w'
I734
tp443
a(S'p2_vo'
I8
tp444
a(S'w'
I734
tp445
a(S'p2_vo'
I7
tp446
a(S'w'
I734
tp447
a(S'p2_vo'
I6
tp448
a(S'w'
I733
tp449
a(S'p2_vo'
I5
tp450
a(S'w'
I734
tp451
a(S'p2_vo'
I4
tp452
a(S'w'
I5140
tp453
a(S'tr_lh'
I0
tp454
a(S'tr_lr'
I0
tp455
a(S'w'
I2204
tp456
a(S'p2_vo'
I10
tp457
a(S'w'
I2
tp458
a(S'p2_tl'
I88
tp459
a(S'w'
I1
tp460
a(S'p2_ll'
I1
tp461
a(S'p2_th'
I3
tp462
a(S'w'
I9
tp463
a(S'tr_lh'
I1
tp464
a(S'tr_lr'
I63
tp465
a(S'w'
I4
tp466
a(S'tr_ll'
I1
tp467
a(S'w'
I712
tp468
a(S'p2_vo'
I9
tp469
a(S'w'
I734
tp470
a(S'p2_vo'
I8
tp471
a(S'w'
I734
tp472
a(S'p2_vo'
I7
tp473
a(S'w'
I733
tp474
a(S'p2_vo'
I6
tp475
a(S'w'
I734
tp476
a(S'p2_vo'
I5
tp477
a(S'w'
I734
tp478
a(S'p2_vo'
I4
tp479
a(S'w'
I13938
tp480
a(S'p1_vo'
I1
tp481
a(S'w'
I734
tp482
a(S'p1_vo'
I0
tp483
a(S'w'
I2209
tp484
a(S'tr_lh'
I0
tp485
a(S'tr_lr'
I0
tp486
a(S'w'
I2193
tp487
a(S'w'
I7
tp488
a(S'p1_vo'
I11
tp489
a(S'w'
I1
tp490
a(S'p1_du'
I0
tp491
a(S'p1_vo'
I0
tp492
a(S'w'
I13
tp493
a(S'p2_vo'
I10
tp494
a(S'w'
I2
tp495
a(S'p2_tl'
I175
tp496
a(S'w'
I1
tp497
a(S'p2_ll'
I1
tp498
a(S'p2_th'
I6
tp499
a(S'w'
I14
tp500
a(S'tr_lh'
I1
tp501
a(S'tr_lr'
I63
tp502
a(S'w'
I3
tp503
a(S'tr_ll'
I1
tp504
a(S'w'
I697
tp505
a(S'p2_vo'
I9
tp506
a(S'w'
I733
tp507
a(S'p2_vo'
I8
tp508
a(S'w'
I734
tp509
a(S'p2_vo'
I7
tp510
a(S'w'
I734
tp511
a(S'p2_vo'
I6
tp512
a(S'w'
I734
tp513
a(S'p2_vo'
I5
tp514
a(S'w'
I734
tp515
a(S'p2_vo'
I4
tp516
a(S'w'
I11010
tp517
a(S'tr_lh'
I0
tp518
a(S'tr_lr'
I0
tp519
a(S'w'
I2202
tp520
a(S'p2_vo'
I10
tp521
a(S'w'
I3
tp522
a(S'w'
I1
tp523
a(S'p2_ll'
I1
tp524
a(S'w'
I8
tp525
a(S'tr_lh'
I1
tp526
a(S'tr_lr'
I63
tp527
a(S'w'
I4
tp528
a(S'tr_ll'
I1
tp529
a(S'w'
I714
tp530
a(S'p2_vo'
I9
tp531
a(S'w'
I734
tp532
a(S'p2_vo'
I8
tp533
a(S'w'
I733
tp534
a(S'p2_vo'
I7
tp535
a(S'w'
I734
tp536
a(S'p2_vo'
I6
tp537
a(S'w'
I734
tp538
a(S'p2_vo'
I5
tp539
a(S'w'
I4
tp540
a(S'tr_lh'
I0
tp541
a(S'tr_lr'
I0
tp542
a(S'w'
I730
tp543
a(S'p2_vo'
I4
tp544
a(S'w'
I1472
tp545
a(S'p2_vo'
I10
tp546
a(S'w'
I2
tp547
a(S'w'
I2
tp548
a(S'p2_ll'
I1
tp549
a(S'w'
I8
tp550
a(S'tr_lh'
I1
tp551
a(S'tr_lr'
I63
tp552
a(S'w'
I4
tp553
a(S'tr_ll'
I1
tp554
a(S'w'
I713
tp555
a(S'p2_vo'
I9
tp556
a(S'w'
I734
tp557
a(S'p2_vo'
I8
tp558
a(S'w'
I734
tp559
a(S'p2_vo'
I7
tp560
a(S'w'
I734
tp561
a(S'p2_vo'
I6
tp562
a(S'w'
I733
tp563
a(S'p2_vo'
I5
tp564
a(S'w'
I734
tp565
a(S'p2_vo'
I4
tp566
a(S'w'
I5140
tp567
a(S'tr_lh'
I0
tp568
a(S'tr_lr'
I0
tp569
a(S'w'
I2203
tp570
a(S'p2_vo'
I10
tp571
a(S'w'
I2
tp572
a(S'p2_tl'
I119
tp573
a(S'w'
I1
tp574
a(S'p2_ll'
I1
tp575
a(S'p2_th'
I4
tp576
a(S'w'
I9
tp577
a(S'tr_lh'
I1
tp578
a(S'tr_lr'
I63
tp579
a(S'w'
I3
tp580
a(S'tr_ll'
I1
tp581
a(S'w'
I714
tp582
a(S'p2_vo'
I9
tp583
a(S'w'
I734
tp584
a(S'p2_vo'
I8
tp585
a(S'w'
I734
tp586
a(S'p2_vo'
I7
tp587
a(S'w'
I734
tp588
a(S'p2_vo'
I6
tp589
a(S'w'
I733
tp590
a(S'p2_vo'
I5
tp591
a(S'w'
I734
tp592
a(S'p2_vo'
I4
tp593
a(S'w'
I5140
tp594
a(S'tr_lh'
I0
tp595
a(S'tr_lr'
I0
tp596
a(S'w'
I2203
tp597
a(S'p2_vo'
I10
tp598
a(S'w'
I2
tp599
a(S'p2_tl'
I88
tp600
a(S'w'
I2
tp601
a(S'p2_ll'
I1
tp602
a(S'p2_th'
I3
tp603
a(S'w'
I9
tp604
a(S'tr_lh'
I1
tp605
a(S'tr_lr'
I63
tp606
a(S'w'
I3
tp607
a(S'tr_ll'
I1
tp608
a(S'w'
I713
tp609
a(S'p2_vo'
I9
tp610
a(S'w'
I734
tp611
a(S'p2_vo'
I8
tp612
a(S'w'
I734
tp613
a(S'p2_vo'
I7
tp614
a(S'w'
I733
tp615
a(S'p2_vo'
I6
tp616
a(S'w'
I734
tp617
a(S'p2_vo'
I5
tp618
a(S'w'
I734
tp619
a(S'p2_vo'
I4
tp620
a(S'w'
I7343
tp621
a(S'p2_vo'
I10
tp622
a(S'w'
I2
tp623
a(S'p2_tl'
I119
tp624
a(S'w'
I1
tp625
a(S'p2_ll'
I1
tp626
a(S'p2_th'
I4
tp627
a(S'w'
I726
tp628
a(S'p2_vo'
I9
tp629
a(S'w'
I734
tp630
a(S'p2_vo'
I8
tp631
a(S'w'
I733
tp632
a(S'p2_vo'
I7
tp633
a(S'w'
I734
tp634
a(S'p2_vo'
I6
tp635
a(S'w'
I734
tp636
a(S'p2_vo'
I5
tp637
a(S'w'
I734
tp638
a(S'p2_vo'
I4
tp639
a(S'w'
I5140
tp640
a(S'tr_lh'
I0
tp641
a(S'tr_lr'
I0
tp642
a(S'w'
I2201
tp643
a(S'p1_du'
I1
tp644
a(S'p1_vo'
I11
tp645
a(S'w'
I3
tp646
a(S'p1_tl'
I125
tp647
a(S'w'
I15
tp648
a(S'p2_du'
I1
tp649
a(S'p2_vo'
I11
tp650
a(S'w'
I2
tp651
a(S'p2_tl'
I225
tp652
a(S'w'
I1
tp653
a(S'p2_ll'
I1
tp654
a(S'p2_th'
I1
tp655
a(S'w'
I14
tp656
a(S'tr_lh'
I1
tp657
a(S'tr_lr'
I63
tp658
a(S'w'
I4
tp659
a(S'tr_ll'
I1
tp660
a(S'w'
I688
tp661
a(S'p1_vo'
I10
tp662
a(S'w'
I5
tp663
a(S'p2_vo'
I10
tp664
a(S'w'
I729
tp665
a(S'p1_vo'
I9
tp666
a(S'w'
I5
tp667
a(S'p2_vo'
I9
tp668
a(S'w'
I729
tp669
a(S'p1_vo'
I8
tp670
a(S'w'
I5
tp671
a(S'p2_vo'
I8
tp672
a(S'w'
I729
tp673
a(S'p1_vo'
I7
tp674
a(S'w'
I5
tp675
a(S'p2_vo'
I7
tp676
a(S'w'
I729
tp677
a(S'p1_vo'
I6
tp678
a(S'w'
I5
tp679
a(S'p2_vo'
I6
tp680
a(S'w'
I728
tp681
a(S'p1_vo'
I5
tp682
a(S'w'
I5
tp683
a(S'p2_vo'
I5
tp684
a(S'w'
I729
tp685
a(S'p1_vo'
I4
tp686
a(S'w'
I5
tp687
a(S'p2_vo'
I4
tp688
a(S'w'
I729
tp689
a(S'p1_vo'
I3
tp690
a(S'w'
I5
tp691
a(S'p2_vo'
I3
tp692
a(S'w'
I729
tp693
a(S'p1_vo'
I2
tp694
a(S'w'
I8813
tp695
a(S'tr_lh'
I0
tp696
a(S'tr_lr'
I0
tp697
a(S'w'
I2205
tp698
a(S'tr_lh'
I1
tp699
a(S'tr_lr'
I63
tp700
a(S'w'
I4
tp701
a(S'tr_ll'
I1
tp702
a(S'w'
I723
tp703
a(S'p2_vo'
I2
tp704
a(S'w'
I734
tp705
a(S'p2_vo'
I1
tp706
a(S'w'
I733
tp707
a(S'p2_vo'
I0
tp708
a(S'w'
I1472
tp709
a(S'tr_lh'
I0
tp710
a(S'tr_lr'
I0
tp711
a(S'w'
I2208
tp712
a(S'p2_du'
I2
tp713
a(S'p2_vo'
I10
tp714
a(S'w'
I2
tp715
a(S'p2_tl'
I175
tp716
a(S'w'
I1
tp717
a(S'p2_ll'
I1
tp718
a(S'p2_th'
I6
tp719
a(S'w'
I9
tp720
a(S'tr_lh'
I1
tp721
a(S'tr_lr'
I63
tp722
a(S'w'
I4
tp723
a(S'tr_ll'
I1
tp724
a(S'w'
I707
tp725
a(S'p2_vo'
I9
tp726
a(S'w'
I734
tp727
a(S'p2_vo'
I8
tp728
a(S'w'
I734
tp729
a(S'p2_vo'
I7
tp730
a(S'w'
I734
tp731
a(S'p2_vo'
I6
tp732
a(S'w'
I733
tp733
a(S'p2_vo'
I5
tp734
a(S'w'
I734
tp735
a(S'p2_vo'
I4
tp736
a(S'w'
I5140
tp737
a(S'tr_lh'
I0
tp738
a(S'tr_lr'
I0
tp739
a(S'w'
I2203
tp740
a(S'p2_vo'
I10
tp741
a(S'w'
I2
tp742
a(S'p2_tl'
I119
tp743
a(S'w'
I1
tp744
a(S'p2_ll'
I1
tp745
a(S'p2_th'
I4
tp746
a(S'w'
I9
tp747
a(S'tr_lh'
I1
tp748
a(S'tr_lr'
I63
tp749
a(S'w'
I3
tp750
a(S'tr_ll'
I1
tp751
a(S'w'
I714
tp752
a(S'p2_vo'
I9
tp753
a(S'w'
I734
tp754
a(S'p2_vo'
I8
tp755
a(S'w'
I734
tp756
a(S'p2_vo'
I7
tp757
a(S'w'
I734
tp758
a(S'p2_vo'
I6
tp759
a(S'w'
I733
tp760
a(S'p2_vo'
I5
tp761
a(S'w'
I734
tp762
a(S'p2_vo'
I4
tp763
a(S'w'
I5140
tp764
a(S'tr_lh'
I0
tp765
a(S'tr_lr'
I0
tp766
a(S'w'
I2203
tp767
a(S'p2_vo'
I10
tp768
a(S'w'
I3
tp769
a(S'p2_tl'
I88
tp770
a(S'w'
I1
tp771
a(S'p2_ll'
I1
tp772
a(S'p2_th'
I3
tp773
a(S'w'
I9
tp774
a(S'tr_lh'
I1
tp775
a(S'tr_lr'
I63
tp776
a(S'w'
I4
tp777
a(S'tr_ll'
I1
tp778
a(S'w'
I712
tp779
a(S'p2_vo'
I9
tp780
a(S'w'
I734
tp781
a(S'p2_vo'
I8
tp782
a(S'w'
I733
tp783
a(S'p2_vo'
I7
tp784
a(S'w'
I734
tp785
a(S'p2_vo'
I6
tp786
a(S'w'
I734
tp787
a(S'p2_vo'
I5
tp788
a(S'w'
I734
tp789
a(S'p2_vo'
I4
tp790
a(S'w'
I13938
tp791
a(S'p1_vo'
I1
tp792
a(S'w'
I734
tp793
a(S'p1_vo'
I0
tp794
a(S'w'
I2209
tp795
a(S'tr_lh'
I0
tp796
a(S'tr_lr'
I0
tp797
a(S'w'
I2200
tp798
a(S'p1_vo'
I11
tp799
a(S'w'
I3
tp800
a(S'p1_tl'
I64
tp801
a(S'w'
I17
tp802
a(S'p2_du'
I1
tp803
a(S'p2_vo'
I11
tp804
a(S'w'
I3
tp805
a(S'p2_tl'
I126
tp806
a(S'w'
I1
tp807
a(S'p2_ll'
I1
tp808
a(S'p2_th'
I1
tp809
a(S'w'
I14
tp810
a(S'tr_lh'
I1
tp811
a(S'tr_lr'
I63
tp812
a(S'w'
I4
tp813
a(S'tr_ll'
I1
tp814
a(S'w'
I685
tp815
a(S'p1_vo'
I10
tp816
a(S'w'
I5
tp817
a(S'p2_vo'
I10
tp818
a(S'w'
I729
tp819
a(S'p1_vo'
I9
tp820
a(S'w'
I5
tp821
a(S'p2_vo'
I9
tp822
a(S'w'
I729
tp823
a(S'p1_vo'
I8
tp824
a(S'w'
I5
tp825
a(S'p2_vo'
I8
tp826
a(S'w'
I729
tp827
a(S'p1_vo'
I7
tp828
a(S'w'
I5
tp829
a(S'p2_vo'
I7
tp830
a(S'w'
I728
tp831
a(S'p1_vo'
I6
tp832
a(S'w'
I6
tp833
a(S'p2_vo'
I6
tp834
a(S'w'
I728
tp835
a(S'p1_vo'
I5
tp836
a(S'w'
I5
tp837
a(S'p2_vo'
I5
tp838
a(S'w'
I729
tp839
a(S'p1_vo'
I4
tp840
a(S'w'
I5
tp841
a(S'p2_vo'
I4
tp842
a(S'w'
I729
tp843
a(S'p1_vo'
I3
tp844
a(S'w'
I5
tp845
a(S'p2_vo'
I3
tp846
a(S'w'
I729
tp847
a(S'p1_vo'
I2
tp848
a(S'w'
I8813
tp849
a(S'tr_lh'
I0
tp850
a(S'tr_lr'
I0
tp851
a(S'w'
I2205
tp852
a(S'tr_lh'
I1
tp853
a(S'tr_lr'
I63
tp854
a(S'w'
I4
tp855
a(S'tr_ll'
I1
tp856
a(S'w'
I723
tp857
a(S'p2_vo'
I2
tp858
a(S'w'
I734
tp859
a(S'p2_vo'
I1
tp860
a(S'w'
I733
tp861
a(S'p2_vo'
I0
tp862
a(S'w'
I1472
tp863
a(S'tr_lh'
I0
tp864
a(S'tr_lr'
I0
tp865
a(S'w'
I2208
tp866
a(S'p2_du'
I2
tp867
a(S'p2_vo'
I10
tp868
a(S'w'
I2
tp869
a(S'p2_tl'
I175
tp870
a(S'w'
I1
tp871
a(S'p2_ll'
I1
tp872
a(S'p2_th'
I6
tp873
a(S'w'
I9
tp874
a(S'tr_lh'
I1
tp875
a(S'tr_lr'
I63
tp876
a(S'w'
I4
tp877
a(S'tr_ll'
I1
tp878
a(S'w'
I707
tp879
a(S'p2_vo'
I9
tp880
a(S'w'
I734
tp881
a(S'p2_vo'
I8
tp882
a(S'w'
I734
tp883
a(S'p2_vo'
I7
tp884
a(S'w'
I734
tp885
a(S'p2_vo'
I6
tp886
a(S'w'
I733
tp887
a(S'p2_vo'
I5
tp888
a(S'w'
I734
tp889
a(S'p2_vo'
I4
tp890
a(S'w'
I5140
tp891
a(S'tr_lh'
I0
tp892
a(S'tr_lr'
I0
tp893
a(S'w'
I2203
tp894
a(S'p2_vo'
I10
tp895
a(S'w'
I2
tp896
a(S'p2_tl'
I119
tp897
a(S'w'
I1
tp898
a(S'p2_ll'
I1
tp899
a(S'p2_th'
I4
tp900
a(S'w'
I9
tp901
a(S'tr_lh'
I1
tp902
a(S'tr_lr'
I63
tp903
a(S'w'
I3
tp904
a(S'tr_ll'
I1
tp905
a(S'w'
I714
tp906
a(S'p2_vo'
I9
tp907
a(S'w'
I734
tp908
a(S'p2_vo'
I8
tp909
a(S'w'
I734
tp910
a(S'p2_vo'
I7
tp911
a(S'w'
I733
tp912
a(S'p2_vo'
I6
tp913
a(S'w'
I734
tp914
a(S'p2_vo'
I5
tp915
a(S'w'
I734
tp916
a(S'p2_vo'
I4
tp917
a(S'w'
I5140
tp918
a(S'tr_lh'
I0
tp919
a(S'tr_lr'
I0
tp920
a(S'w'
I2203
tp921
a(S'p2_vo'
I10
tp922
a(S'w'
I3
tp923
a(S'p2_tl'
I88
tp924
a(S'w'
I1
tp925
a(S'p2_ll'
I1
tp926
a(S'p2_th'
I3
tp927
a(S'w'
I9
tp928
a(S'tr_lh'
I1
tp929
a(S'tr_lr'
I63
tp930
a(S'w'
I4
tp931
a(S'tr_ll'
I1
tp932
a(S'w'
I712
tp933
a(S'p2_vo'
I9
tp934
a(S'w'
I734
tp935
a(S'p2_vo'
I8
tp936
a(S'w'
I733
tp937
a(S'p2_vo'
I7
tp938
a(S'w'
I734
tp939
a(S'p2_vo'
I6
tp940
a(S'w'
I734
tp941
a(S'p2_vo'
I5
tp942
a(S'w'
I734
tp943
a(S'p2_vo'
I4
tp944
a(S'w'
I13938
tp945
a(S'p1_vo'
I1
tp946
a(S'w'
I734
tp947
a(S'p1_vo'
I0
tp948
a(S'w'
I2209
tp949
a(S'tr_lh'
I0
tp950
a(S'tr_lr'
I0
tp951
a(S'w'
I2207
tp952
a(S'p1_vo'
I11
tp953
a(S'w'
I3
tp954
a(S'p1_tl'
I103
tp955
a(S'w'
I22
tp956
a.