(lp1
(S'clock'
p2
I1789772
tp3
a(S'p1_du'
I2
tp4
a(S'p1_lh'
I1
tp5
a(S'p1_cv'
I1
tp6
a(S'p1_vo'
I6
tp7
a(S'p1_sn'
I1
tp8
a(S'p1_tl'
I28
tp9
a(S'p1_ll'
I1
tp10
a(S'p1_th'
I1
tp11
a(S'p2_lh'
I1
tp12
a(S'p2_cv'
I1
tp13
a(S'p2_sn'
I1
tp14
a(S'p2_tl'
I31
tp15
a(S'p2_ll'
I1
tp16
a(S'tr_lh'
I1
tp17
a(S'tr_lr'
I127
tp18
a(S'tr_tl'
I84
tp19
a(S'tr_ll'
I1
tp20
a(S'no_lh'
I1
tp21
a(S'no_cv'
I1
tp22
a(S'no_np'
I12
tp23
a(S'no_ll'
I1
tp24
a(S'ch_no'
I1
tp25
a(S'ch_tr'
I1
tp26
a(S'ch_p2'
I1
tp27
a(S'ch_p1'
I1
tp28
a(S'fc_mo'
I0
tp29
a(S'tr_tl'
I94
tp30
a(S'tr_ll'
I1
tp31
a(S'w'
I13
tp32
a(S'p1_du'
I0
tp33
a(S'p1_vo'
I0
tp34
a(S'w'
I5865
tp35
a(S'p1_du'
I2
tp36
a(S'p1_vo'
I6
tp37
a(S'w'
I2
tp38
a(S'p1_tl'
I63
tp39
a(S'p1_ll'
I1
tp40
a(S'w'
I7344
tp41
a(S'p1_tl'
I12
tp42
a(S'p1_ll'
I1
tp43
a(S'w'
I6604
tp44
a(S'p1_tl'
I201
tp45
a(S'w'
I1
tp46
a(S'p1_ll'
I1
tp47
a(S'p1_th'
I0
tp48
a(S'w'
I6578
tp49
a(S'tr_tl'
I84
tp50
a(S'w'
I1
tp51
a(S'tr_ll'
I1
tp52
a(S'w'
I5
tp53
a(S'p1_du'
I0
tp54
a(S'p1_vo'
I0
tp55
a(S'w'
I5866
tp56
a(S'p1_du'
I2
tp57
a(S'p1_vo'
I6
tp58
a(S'w'
I2
tp59
a(S'p1_tl'
I63
tp60
a(S'w'
I1
tp61
a(S'p1_ll'
I1
tp62
a(S'p1_th'
I1
tp63
a(S'w'
I7335
tp64
a(S'p1_tl'
I12
tp65
a(S'p1_ll'
I1
tp66
a(S'w'
I6604
tp67
a(S'p1_tl'
I201
tp68
a(S'w'
I1
tp69
a(S'p1_ll'
I1
tp70
a(S'p1_th'
I0
tp71
a(S'w'
I6602
tp72
a(S'tr_tl'
I94
tp73
a(S'tr_ll'
I1
tp74
a(S'w'
I11
tp75
a(S'p1_du'
I0
tp76
a(S'p1_vo'
I0
tp77
a(S'w'
I5861
tp78
a(S'p1_du'
I2
tp79
a(S'p1_vo'
I6
tp80
a(S'w'
I2
tp81
a(S'p1_tl'
I63
tp82
a(S'p1_ll'
I1
tp83
a(S'p1_th'
I1
tp84
a(S'w'
I7336
tp85
a(S'p1_tl'
I12
tp86
a(S'p1_ll'
I1
tp87
a(S'w'
I6604
tp88
a(S'p1_tl'
I201
tp89
a(S'w'
I1
tp90
a(S'p1_ll'
I1
tp91
a(S'p1_th'
I0
tp92
a(S'w'
I6602
tp93
a(S'tr_tl'
I84
tp94
a(S'tr_ll'
I1
tp95
a(S'w'
I6
tp96
a(S'p1_du'
I0
tp97
a(S'p1_vo'
I0
tp98
a(S'w'
I5866
tp99
a(S'p1_du'
I2
tp100
a(S'p1_vo'
I6
tp101
a(S'w'
I2
tp102
a(S'p1_tl'
I63
tp103
a(S'p1_ll'
I1
tp104
a(S'p1_th'
I1
tp105
a(S'w'
I7336
tp106
a(S'p1_tl'
I12
tp107
a(S'p1_ll'
I1
tp108
a(S'w'
I6604
tp109
a(S'p1_tl'
I201
tp110
a(S'p1_ll'
I1
tp111
a(S'p1_th'
I0
tp112
a(S'w'
I6603
tp113
a(S'tr_tl'
I70
tp114
a(S'tr_ll'
I1
tp115
a(S'w'
I10
tp116
a(S'p1_du'
I0
tp117
a(S'p1_vo'
I0
tp118
a(S'w'
I5862
tp119
a(S'p1_du'
I2
tp120
a(S'p1_vo'
I6
tp121
a(S'w'
I2
tp122
a(S'p1_tl'
I63
tp123
a(S'p1_ll'
I1
tp124
a(S'p1_th'
I1
tp125
a(S'w'
I7336
tp126
a(S'p1_tl'
I12
tp127
a(S'p1_ll'
I1
tp128
a(S'w'
I6604
tp129
a(S'p1_tl'
I201
tp130
a(S'p1_ll'
I1
tp131
a(S'p1_th'
I0
tp132
a(S'w'
I6603
tp133
a(S'tr_tl'
I84
tp134
a(S'tr_ll'
I1
tp135
a(S'w'
I6
tp136
a(S'p1_du'
I0
tp137
a(S'p1_vo'
I0
tp138
a(S'w'
I5866
tp139
a(S'p1_du'
I2
tp140
a(S'p1_vo'
I6
tp141
a(S'w'
I2
tp142
a(S'p1_tl'
I63
tp143
a(S'p1_ll'
I1
tp144
a(S'p1_th'
I1
tp145
a(S'w'
I7336
tp146
a(S'p1_tl'
I12
tp147
a(S'p1_ll'
I1
tp148
a(S'w'
I6604
tp149
a(S'p1_tl'
I201
tp150
a(S'p1_ll'
I1
tp151
a(S'p1_th'
I0
tp152
a(S'w'
I6603
tp153
a(S'tr_tl'
I94
tp154
a(S'tr_ll'
I1
tp155
a(S'w'
I10
tp156
a(S'p1_du'
I0
tp157
a(S'p1_vo'
I0
tp158
a(S'w'
I5861
tp159
a(S'p1_du'
I2
tp160
a(S'p1_vo'
I6
tp161
a(S'w'
I3
tp162
a(S'p1_tl'
I63
tp163
a(S'p1_ll'
I1
tp164
a(S'p1_th'
I1
tp165
a(S'w'
I7335
tp166
a(S'p1_tl'
I12
tp167
a(S'w'
I1
tp168
a(S'p1_ll'
I1
tp169
a(S'w'
I6604
tp170
a(S'p1_tl'
I201
tp171
a(S'p1_ll'
I1
tp172
a(S'p1_th'
I0
tp173
a(S'w'
I6602
tp174
a(S'tr_tl'
I84
tp175
a(S'w'
I1
tp176
a(S'tr_ll'
I1
tp177
a(S'w'
I5
tp178
a(S'p1_du'
I0
tp179
a(S'p1_vo'
I0
tp180
a(S'w'
I5866
tp181
a(S'p1_du'
I2
tp182
a(S'p1_vo'
I6
tp183
a(S'w'
I2
tp184
a(S'p1_tl'
I63
tp185
a(S'w'
I1
tp186
a(S'p1_ll'
I1
tp187
a(S'p1_th'
I1
tp188
a(S'w'
I7334
tp189
a(S'tr_tl'
I94
tp190
a(S'tr_ll'
I1
tp191
a(S'w'
I6
tp192
a(S'p1_tl'
I12
tp193
a(S'p1_ll'
I1
tp194
a(S'w'
I6600
tp195
a(S'p1_tl'
I201
tp196
a(S'p1_ll'
I1
tp197
a(S'p1_th'
I0
tp198
a(S'w'
I6602
tp199
a(S'tr_tl'
I100
tp200
a(S'w'
I1
tp201
a(S'tr_ll'
I1
tp202
a(S'w'
I10
tp203
a(S'p1_du'
I0
tp204
a(S'p1_vo'
I0
tp205
a(S'w'
I5861
tp206
a(S'p1_du'
I2
tp207
a(S'p1_vo'
I6
tp208
a(S'w'
I2
tp209
a(S'p1_tl'
I82
tp210
a(S'w'
I1
tp211
a(S'p1_ll'
I1
tp212
a(S'p1_th'
I1
tp213
a(S'w'
I7335
tp214
a(S'p1_tl'
I28
tp215
a(S'p1_ll'
I1
tp216
a(S'w'
I6604
tp217
a(S'p1_tl'
I239
tp218
a(S'w'
I1
tp219
a(S'p1_ll'
I1
tp220
a(S'p1_th'
I0
tp221
a(S'w'
I6602
tp222
a(S'tr_tl'
I112
tp223
a(S'tr_ll'
I1
tp224
a(S'w'
I11
tp225
a(S'p1_du'
I0
tp226
a(S'p1_vo'
I0
tp227
a(S'w'
I5861
tp228
a(S'p1_du'
I2
tp229
a(S'p1_vo'
I6
tp230
a(S'w'
I2
tp231
a(S'p1_tl'
I82
tp232
a(S'p1_ll'
I1
tp233
a(S'p1_th'
I1
tp234
a(S'w'
I7335
tp235
a(S'tr_tl'
I100
tp236
a(S'tr_ll'
I1
tp237
a(S'w'
I5
tp238
a(S'p1_tl'
I28
tp239
a(S'w'
I1
tp240
a(S'p1_ll'
I1
tp241
a(S'w'
I6613
tp242
a(S'p1_tl'
I239
tp243
a(S'p1_ll'
I1
tp244
a(S'p1_th'
I0
tp245
a(S'w'
I6589
tp246
a(S'tr_tl'
I84
tp247
a(S'tr_ll'
I1
tp248
a(S'w'
I10
tp249
a(S'p1_du'
I0
tp250
a(S'p1_vo'
I0
tp251
a(S'w'
I5862
tp252
a(S'p1_du'
I2
tp253
a(S'p1_vo'
I6
tp254
a(S'w'
I2
tp255
a(S'p1_tl'
I63
tp256
a(S'p1_ll'
I1
tp257
a(S'p1_th'
I1
tp258
a(S'w'
I7334
tp259
a(S'tr_tl'
I94
tp260
a(S'w'
I1
tp261
a(S'tr_ll'
I1
tp262
a(S'w'
I5
tp263
a(S'p1_tl'
I12
tp264
a(S'w'
I1
tp265
a(S'p1_ll'
I1
tp266
a(S'w'
I6599
tp267
a(S'p1_tl'
I225
tp268
a(S'p1_ll'
I1
tp269
a(S'p1_th'
I0
tp270
a(S'w'
I6603
tp271
a(S'tr_tl'
I100
tp272
a(S'tr_ll'
I1
tp273
a(S'w'
I10
tp274
a(S'p1_du'
I0
tp275
a(S'p1_vo'
I0
tp276
a(S'w'
I5862
tp277
a(S'p1_du'
I2
tp278
a(S'p1_vo'
I6
tp279
a(S'w'
I2
tp280
a(S'p1_tl'
I63
tp281
a(S'p1_ll'
I1
tp282
a(S'p1_th'
I1
tp283
a(S'w'
I7334
tp284
a(S'tr_tl'
I112
tp285
a(S'tr_ll'
I1
tp286
a(S'w'
I6
tp287
a(S'p1_tl'
I12
tp288
a(S'p1_ll'
I1
tp289
a(S'w'
I6600
tp290
a(S'p1_tl'
I225
tp291
a(S'p1_ll'
I1
tp292
a(S'p1_th'
I0
tp293
a(S'w'
I6603
tp294
a(S'tr_tl'
I119
tp295
a(S'tr_ll'
I1
tp296
a(S'w'
I10
tp297
a(S'p1_du'
I0
tp298
a(S'p1_vo'
I0
tp299
a(S'w'
I5861
tp300
a(S'p1_du'
I2
tp301
a(S'p1_vo'
I6
tp302
a(S'w'
I3
tp303
a(S'p1_tl'
I196
tp304
a(S'p1_ll'
I1
tp305
a(S'p1_th'
I1
tp306
a(S'w'
I7336
tp307
a(S'p1_tl'
I124
tp308
a(S'p1_ll'
I1
tp309
a(S'w'
I6604
tp310
a(S'p1_tl'
I45
tp311
a(S'p1_ll'
I1
tp312
a(S'w'
I6603
tp313
a(S'tr_tl'
I134
tp314
a(S'tr_ll'
I1
tp315
a(S'w'
I10
tp316
a(S'p1_du'
I0
tp317
a(S'p1_vo'
I0
tp318
a(S'w'
I5861
tp319
a(S'p1_du'
I2
tp320
a(S'p1_vo'
I6
tp321
a(S'w'
I3
tp322
a(S'p1_tl'
I196
tp323
a(S'p1_ll'
I1
tp324
a(S'w'
I7334
tp325
a(S'tr_tl'
I119
tp326
a(S'tr_ll'
I1
tp327
a(S'w'
I6
tp328
a(S'p1_tl'
I124
tp329
a(S'p1_ll'
I1
tp330
a(S'w'
I6600
tp331
a(S'p1_tl'
I45
tp332
a(S'p1_ll'
I1
tp333
a(S'w'
I6602
tp334
a(S'tr_tl'
I100
tp335
a(S'w'
I1
tp336
a(S'tr_ll'
I1
tp337
a(S'w'
I10
tp338
a(S'p1_du'
I0
tp339
a(S'p1_vo'
I0
tp340
a(S'w'
I5861
tp341
a(S'p1_du'
I2
tp342
a(S'p1_vo'
I6
tp343
a(S'w'
I2
tp344
a(S'p1_tl'
I196
tp345
a(S'w'
I1
tp346
a(S'p1_ll'
I1
tp347
a(S'w'
I7335
tp348
a(S'p1_tl'
I124
tp349
a(S'p1_ll'
I1
tp350
a(S'w'
I6605
tp351
a(S'p1_tl'
I45
tp352
a(S'p1_ll'
I1
tp353
a(S'w'
I6602
tp354
a(S'tr_tl'
I150
tp355
a(S'tr_ll'
I1
tp356
a(S'w'
I11
tp357
a(S'p1_du'
I0
tp358
a(S'p1_vo'
I0
tp359
a(S'w'
I5861
tp360
a(S'p1_du'
I2
tp361
a(S'p1_vo'
I6
tp362
a(S'w'
I2
tp363
a(S'p1_tl'
I196
tp364
a(S'p1_ll'
I1
tp365
a(S'w'
I7336
tp366
a(S'p1_tl'
I124
tp367
a(S'p1_ll'
I1
tp368
a(S'w'
I6604
tp369
a(S'p1_tl'
I45
tp370
a(S'w'
I1
tp371
a(S'p1_ll'
I1
tp372
a(S'w'
I6602
tp373
a(S'tr_lh'
I0
tp374
a(S'tr_lr'
I48
tp375
a(S'w'
I8
tp376
a(S'tr_tl'
I106
tp377
a(S'tr_ll'
I1
tp378
a(S'w'
I11
tp379
a(S'p1_tl'
I82
tp380
a(S'p1_ll'
I1
tp381
a(S'w'
I3650
tp382
a(S'tr_tl'
I119
tp383
a(S'tr_ll'
I1
tp384
a(S'w'
I4
tp385
a(S'p1_tl'
I45
tp386
a(S'w'
I1
tp387
a(S'p1_ll'
I1
tp388
a(S'w'
I2930
tp389
a(S'tr_tl'
I106
tp390
a(S'w'
I1
tp391
a(S'tr_ll'
I1
tp392
a(S'w'
I4
tp393
a(S'p1_tl'
I82
tp394
a(S'p1_ll'
I1
tp395
a(S'w'
I3664
tp396
a(S'tr_tl'
I119
tp397
a(S'w'
I1
tp398
a(S'tr_ll'
I1
tp399
a(S'w'
I4
tp400
a(S'p1_tl'
I45
tp401
a(S'p1_ll'
I1
tp402
a(S'w'
I2931
tp403
a(S'tr_tl'
I106
tp404
a(S'tr_ll'
I1
tp405
a(S'w'
I4
tp406
a(S'p1_tl'
I82
tp407
a(S'p1_ll'
I1
tp408
a(S'w'
I3665
tp409
a(S'tr_tl'
I119
tp410
a(S'tr_ll'
I1
tp411
a(S'w'
I4
tp412
a(S'p1_tl'
I45
tp413
a(S'p1_ll'
I1
tp414
a(S'w'
I2931
tp415
a(S'tr_tl'
I106
tp416
a(S'tr_ll'
I1
tp417
a(S'w'
I4
tp418
a(S'p1_tl'
I82
tp419
a(S'p1_ll'
I1
tp420
a(S'w'
I3665
tp421
a(S'tr_tl'
I119
tp422
a(S'tr_ll'
I1
tp423
a(S'w'
I4
tp424
a(S'p1_tl'
I45
tp425
a(S'p1_ll'
I1
tp426
a(S'w'
I2953
tp427
a(S'tr_tl'
I106
tp428
a(S'w'
I1
tp429
a(S'tr_ll'
I1
tp430
a(S'w'
I12
tp431
a(S'p1_tl'
I82
tp432
a(S'p1_ll'
I1
tp433
a(S'w'
I3648
tp434
a(S'tr_tl'
I119
tp435
a(S'tr_ll'
I1
tp436
a(S'w'
I4
tp437
a(S'p1_tl'
I45
tp438
a(S'p1_ll'
I1
tp439
a(S'w'
I2917
tp440
a(S'tr_tl'
I106
tp441
a(S'tr_ll'
I1
tp442
a(S'w'
I4
tp443
a(S'p1_tl'
I82
tp444
a(S'w'
I1
tp445
a(S'p1_ll'
I1
tp446
a(S'w'
I3664
tp447
a(S'tr_tl'
I119
tp448
a(S'tr_ll'
I1
tp449
a(S'w'
I4
tp450
a(S'p1_tl'
I45
tp451
a(S'w'
I1
tp452
a(S'p1_ll'
I1
tp453
a(S'w'
I2930
tp454
a(S'tr_tl'
I106
tp455
a(S'w'
I1
tp456
a(S'tr_ll'
I1
tp457
a(S'w'
I4
tp458
a(S'p1_tl'
I82
tp459
a(S'p1_ll'
I1
tp460
a(S'w'
I3664
tp461
a(S'tr_tl'
I119
tp462
a(S'w'
I1
tp463
a(S'tr_ll'
I1
tp464
a(S'w'
I4
tp465
a(S'p1_tl'
I45
tp466
a(S'p1_ll'
I1
tp467
a(S'w'
I2931
tp468
a(S'tr_tl'
I106
tp469
a(S'tr_ll'
I1
tp470
a(S'w'
I4
tp471
a(S'p1_tl'
I82
tp472
a(S'p1_ll'
I1
tp473
a(S'w'
I3665
tp474
a(S'tr_tl'
I119
tp475
a(S'tr_ll'
I1
tp476
a(S'w'
I4
tp477
a(S'p1_tl'
I45
tp478
a(S'p1_ll'
I1
tp479
a(S'w'
I2934
tp480
a(S'tr_tl'
I106
tp481
a(S'tr_ll'
I1
tp482
a(S'w'
I9
tp483
a(S'p1_tl'
I82
tp484
a(S'p1_ll'
I1
tp485
a(S'w'
I13198
tp486
a(S'p1_du'
I0
tp487
a(S'p1_vo'
I0
tp488
a(S'w'
I39629
tp489
a(S'tr_tl'
I112
tp490
a(S'tr_ll'
I1
tp491
a(S'w'
I4
tp492
a(S'p1_du'
I2
tp493
a(S'p1_vo'
I6
tp494
a(S'w'
I8
tp495
a(S'p1_tl'
I103
tp496
a(S'p1_ll'
I1
tp497
a(S'w'
I3652
tp498
a(S'tr_tl'
I126
tp499
a(S'tr_ll'
I1
tp500
a(S'w'
I4
tp501
a(S'p1_tl'
I63
tp502
a(S'p1_ll'
I1
tp503
a(S'w'
I2931
tp504
a(S'tr_tl'
I112
tp505
a(S'tr_ll'
I1
tp506
a(S'w'
I4
tp507
a(S'p1_tl'
I103
tp508
a(S'p1_ll'
I1
tp509
a(S'w'
I3665
tp510
a(S'tr_tl'
I126
tp511
a(S'tr_ll'
I1
tp512
a(S'w'
I4
tp513
a(S'p1_tl'
I63
tp514
a(S'p1_ll'
I1
tp515
a(S'w'
I2931
tp516
a(S'tr_tl'
I112
tp517
a(S'tr_ll'
I1
tp518
a(S'w'
I4
tp519
a(S'p1_tl'
I103
tp520
a(S'p1_ll'
I1
tp521
a(S'w'
I3665
tp522
a(S'tr_tl'
I126
tp523
a(S'tr_ll'
I1
tp524
a(S'w'
I4
tp525
a(S'p1_tl'
I63
tp526
a(S'p1_ll'
I1
tp527
a(S'w'
I2931
tp528
a(S'tr_tl'
I112
tp529
a(S'tr_ll'
I1
tp530
a(S'w'
I4
tp531
a(S'p1_tl'
I103
tp532
a(S'w'
I1
tp533
a(S'p1_ll'
I1
tp534
a(S'w'
I3664
tp535
a(S'tr_tl'
I126
tp536
a(S'tr_ll'
I1
tp537
a(S'w'
I4
tp538
a(S'p1_tl'
I63
tp539
a(S'w'
I1
tp540
a(S'p1_ll'
I1
tp541
a(S'w'
I2939
tp542
a(S'tr_tl'
I112
tp543
a(S'tr_ll'
I1
tp544
a(S'w'
I13
tp545
a(S'p1_tl'
I103
tp546
a(S'p1_ll'
I1
tp547
a(S'w'
I3647
tp548
a(S'tr_tl'
I126
tp549
a(S'w'
I1
tp550
a(S'tr_ll'
I1
tp551
a(S'w'
I4
tp552
a(S'p1_tl'
I63
tp553
a(S'p1_ll'
I1
tp554
a(S'w'
I2931
tp555
a(S'tr_tl'
I112
tp556
a(S'tr_ll'
I1
tp557
a(S'w'
I4
tp558
a(S'p1_tl'
I103
tp559
a(S'p1_ll'
I1
tp560
a(S'w'
I3665
tp561
a(S'tr_tl'
I126
tp562
a(S'tr_ll'
I1
tp563
a(S'w'
I4
tp564
a(S'p1_tl'
I63
tp565
a(S'p1_ll'
I1
tp566
a(S'w'
I2931
tp567
a(S'tr_tl'
I112
tp568
a(S'tr_ll'
I1
tp569
a(S'w'
I4
tp570
a(S'p1_tl'
I103
tp571
a(S'p1_ll'
I1
tp572
a(S'w'
I3665
tp573
a(S'tr_tl'
I126
tp574
a(S'tr_ll'
I1
tp575
a(S'w'
I4
tp576
a(S'p1_tl'
I63
tp577
a(S'p1_ll'
I1
tp578
a(S'w'
I2931
tp579
a(S'tr_tl'
I112
tp580
a(S'tr_ll'
I1
tp581
a(S'w'
I4
tp582
a(S'p1_tl'
I103
tp583
a(S'w'
I1
tp584
a(S'p1_ll'
I1
tp585
a(S'w'
I3664
tp586
a(S'tr_tl'
I126
tp587
a(S'tr_ll'
I1
tp588
a(S'w'
I4
tp589
a(S'p1_tl'
I63
tp590
a(S'w'
I1
tp591
a(S'p1_ll'
I1
tp592
a(S'w'
I2933
tp593
a(S'tr_tl'
I112
tp594
a(S'tr_ll'
I1
tp595
a(S'w'
I9
tp596
a(S'p1_tl'
I103
tp597
a(S'p1_ll'
I1
tp598
a(S'w'
I13198
tp599
a(S'p1_du'
I0
tp600
a(S'p1_vo'
I0
tp601
a(S'w'
I39627
tp602
a(S'tr_lh'
I1
tp603
a(S'tr_lr'
I127
tp604
a(S'w'
I2
tp605
a(S'tr_tl'
I94
tp606
a(S'tr_ll'
I1
tp607
a(S'w'
I5867
tp608
a.