(lp1
(S'clock'
p2
I1789772
tp3
a(S'p1_du'
I2
tp4
a(S'p1_vo'
I15
tp5
a(S'p1_sn'
I1
tp6
a(S'p1_tl'
I239
tp7
a(S'p1_ll'
I1
tp8
a(S'p2_lh'
I1
tp9
a(S'p2_cv'
I1
tp10
a(S'p2_sn'
I1
tp11
a(S'p2_tl'
I31
tp12
a(S'p2_ll'
I1
tp13
a(S'tr_lh'
I1
tp14
a(S'tr_lr'
I127
tp15
a(S'tr_tl'
I28
tp16
a(S'tr_ll'
I1
tp17
a(S'tr_th'
I1
tp18
a(S'no_lh'
I1
tp19
a(S'no_cv'
I1
tp20
a(S'ch_no'
I1
tp21
a(S'ch_tr'
I1
tp22
a(S'ch_p2'
I1
tp23
a(S'ch_p1'
I1
tp24
a(S'fc_mo'
I0
tp25
a(S'tr_lh'
I0
tp26
a(S'tr_lr'
I96
tp27
a(S'w'
I3
tp28
a(S'tr_tl'
I251
tp29
a(S'tr_ll'
I1
tp30
a(S'w'
I17
tp31
a(S'p1_tl'
I251
tp32
a(S'p1_ll'
I1
tp33
a(S'p1_th'
I1
tp34
a(S'w'
I10251
tp35
a(S'p1_tl'
I169
tp36
a(S'w'
I1
tp37
a(S'p1_ll'
I1
tp38
a(S'p1_th'
I0
tp39
a(S'w'
I10295
tp40
a(S'p1_tl'
I189
tp41
a(S'p1_ll'
I1
tp42
a(S'w'
I10983
tp43
a(S'p1_tl'
I169
tp44
a(S'p1_ll'
I1
tp45
a(S'w'
I10273
tp46
a(S'p1_tl'
I213
tp47
a(S'p1_ll'
I1
tp48
a(S'w'
I10273
tp49
a(S'p1_tl'
I169
tp50
a(S'w'
I1
tp51
a(S'p1_ll'
I1
tp52
a(S'w'
I10273
tp53
a(S'p1_tl'
I225
tp54
a(S'p1_ll'
I1
tp55
a(S'w'
I11007
tp56
a(S'p1_tl'
I169
tp57
a(S'p1_ll'
I1
tp58
a(S'w'
I10271
tp59
a(S'tr_tl'
I253
tp60
a(S'w'
I1
tp61
a(S'tr_ll'
I1
tp62
a(S'tr_th'
I0
tp63
a(S'w'
I4
tp64
a(S'p1_tl'
I253
tp65
a(S'p1_ll'
I1
tp66
a(S'w'
I10269
tp67
a(S'tr_tl'
I251
tp68
a(S'tr_ll'
I1
tp69
a(S'tr_th'
I1
tp70
a(S'w'
I11007
tp71
a(S'tr_tl'
I171
tp72
a(S'tr_ll'
I1
tp73
a(S'w'
I10273
tp74
a(S'tr_tl'
I82
tp75
a(S'tr_ll'
I1
tp76
a(S'w'
I10273
tp77
a(S'tr_tl'
I253
tp78
a(S'tr_ll'
I1
tp79
a(S'tr_th'
I0
tp80
a(S'w'
I10273
tp81
a(S'tr_tl'
I28
tp82
a(S'w'
I1
tp83
a(S'tr_ll'
I1
tp84
a(S'tr_th'
I1
tp85
a(S'w'
I11006
tp86
a(S'tr_tl'
I63
tp87
a(S'w'
I1
tp88
a(S'tr_ll'
I1
tp89
a(S'w'
I10273
tp90
a(S'tr_tl'
I82
tp91
a(S'tr_ll'
I1
tp92
a(S'w'
I10273
tp93
a(S'tr_tl'
I124
tp94
a(S'tr_ll'
I1
tp95
a(S'w'
I4
tp96
a(S'p1_tl'
I249
tp97
a(S'p1_ll'
I1
tp98
a(S'p1_th'
I2
tp99
a(S'w'
I11003
tp100
a(S'tr_tl'
I189
tp101
a(S'tr_ll'
I1
tp102
a(S'tr_th'
I0
tp103
a(S'w'
I4
tp104
a(S'p1_tl'
I159
tp105
a(S'p1_ll'
I1
tp106
a(S'p1_th'
I0
tp107
a(S'w'
I10269
tp108
a(S'tr_tl'
I213
tp109
a(S'tr_ll'
I1
tp110
a(S'w'
I4
tp111
a(S'p1_tl'
I169
tp112
a(S'w'
I1
tp113
a(S'p1_ll'
I1
tp114
a(S'w'
I10268
tp115
a(S'tr_tl'
I189
tp116
a(S'tr_ll'
I1
tp117
a(S'w'
I5
tp118
a(S'p1_tl'
I159
tp119
a(S'p1_ll'
I1
tp120
a(S'w'
I10268
tp121
a(S'tr_tl'
I225
tp122
a(S'w'
I1
tp123
a(S'tr_ll'
I1
tp124
a(S'w'
I4
tp125
a(S'p1_tl'
I189
tp126
a(S'p1_ll'
I1
tp127
a(S'w'
I11002
tp128
a(S'tr_tl'
I189
tp129
a(S'w'
I1
tp130
a(S'tr_ll'
I1
tp131
a(S'w'
I4
tp132
a(S'p1_tl'
I159
tp133
a(S'p1_ll'
I1
tp134
a(S'w'
I10269
tp135
a(S'tr_tl'
I253
tp136
a(S'tr_ll'
I1
tp137
a(S'w'
I4
tp138
a(S'p1_tl'
I213
tp139
a(S'p1_ll'
I1
tp140
a(S'w'
I10269
tp141
a(S'tr_tl'
I189
tp142
a(S'tr_ll'
I1
tp143
a(S'w'
I4
tp144
a(S'p1_tl'
I159
tp145
a(S'p1_ll'
I1
tp146
a(S'w'
I11003
tp147
a(S'tr_tl'
I12
tp148
a(S'tr_ll'
I1
tp149
a(S'tr_th'
I1
tp150
a(S'w'
I4
tp151
a(S'p1_tl'
I225
tp152
a(S'p1_ll'
I1
tp153
a(S'w'
I10269
tp154
a(S'tr_tl'
I82
tp155
a(S'tr_ll'
I1
tp156
a(S'w'
I10273
tp157
a(S'tr_tl'
I12
tp158
a(S'w'
I1
tp159
a(S'tr_ll'
I1
tp160
a(S'w'
I10273
tp161
a(S'tr_tl'
I225
tp162
a(S'tr_ll'
I1
tp163
a(S'tr_th'
I0
tp164
a(S'w'
I11007
tp165
a(S'tr_tl'
I169
tp166
a(S'tr_ll'
I1
tp167
a(S'w'
I10273
tp168
a(S'tr_tl'
I82
tp169
a(S'tr_ll'
I1
tp170
a(S'tr_th'
I1
tp171
a(S'w'
I10273
tp172
a(S'tr_tl'
I45
tp173
a(S'tr_ll'
I1
tp174
a(S'w'
I11007
tp175
a(S'tr_tl'
I12
tp176
a(S'tr_ll'
I1
tp177
a(S'w'
I10273
tp178
a(S'tr_tl'
I253
tp179
a(S'w'
I1
tp180
a(S'tr_ll'
I1
tp181
a(S'tr_th'
I0
tp182
a(S'w'
I4
tp183
a(S'p1_tl'
I251
tp184
a(S'p1_ll'
I1
tp185
a(S'p1_th'
I1
tp186
a(S'w'
I10269
tp187
a(S'tr_tl'
I169
tp188
a(S'tr_ll'
I1
tp189
a(S'w'
I4
tp190
a(S'p1_tl'
I142
tp191
a(S'p1_ll'
I1
tp192
a(S'p1_th'
I0
tp193
a(S'w'
I10269
tp194
a(S'tr_tl'
I189
tp195
a(S'tr_ll'
I1
tp196
a(S'w'
I4
tp197
a(S'p1_tl'
I159
tp198
a(S'p1_ll'
I1
tp199
a(S'w'
I11003
tp200
a(S'tr_tl'
I169
tp201
a(S'tr_ll'
I1
tp202
a(S'w'
I4
tp203
a(S'p1_tl'
I142
tp204
a(S'p1_ll'
I1
tp205
a(S'w'
I10269
tp206
a(S'tr_tl'
I201
tp207
a(S'tr_ll'
I1
tp208
a(S'w'
I4
tp209
a(S'p1_tl'
I169
tp210
a(S'p1_ll'
I1
tp211
a(S'w'
I10269
tp212
a(S'tr_tl'
I169
tp213
a(S'tr_ll'
I1
tp214
a(S'w'
I5
tp215
a(S'p1_tl'
I142
tp216
a(S'p1_ll'
I1
tp217
a(S'w'
I11002
tp218
a(S'tr_tl'
I253
tp219
a(S'tr_ll'
I1
tp220
a(S'w'
I5
tp221
a(S'p1_tl'
I201
tp222
a(S'p1_ll'
I1
tp223
a(S'w'
I10268
tp224
a(S'tr_tl'
I169
tp225
a(S'w'
I1
tp226
a(S'tr_ll'
I1
tp227
a(S'w'
I4
tp228
a(S'p1_tl'
I142
tp229
a(S'p1_ll'
I1
tp230
a(S'w'
I10269
tp231
a(S'tr_tl'
I189
tp232
a(S'tr_ll'
I1
tp233
a(S'w'
I4
tp234
a(S'p1_tl'
I159
tp235
a(S'p1_ll'
I1
tp236
a(S'w'
I10269
tp237
a(S'tr_tl'
I253
tp238
a(S'tr_ll'
I1
tp239
a(S'w'
I11007
tp240
a(S'tr_tl'
I169
tp241
a(S'tr_ll'
I1
tp242
a(S'w'
I4
tp243
a(S'p1_tl'
I142
tp244
a(S'p1_ll'
I1
tp245
a(S'w'
I10269
tp246
a(S'tr_tl'
I253
tp247
a(S'tr_ll'
I1
tp248
a(S'w'
I10273
tp249
a(S'tr_tl'
I159
tp250
a(S'w'
I1
tp251
a(S'tr_ll'
I1
tp252
a(S'w'
I4
tp253
a(S'p1_tl'
I126
tp254
a(S'p1_ll'
I1
tp255
a(S'w'
I11002
tp256
a(S'tr_tl'
I253
tp257
a(S'w'
I1
tp258
a(S'tr_ll'
I1
tp259
a(S'w'
I10273
tp260
a(S'tr_tl'
I169
tp261
a(S'tr_ll'
I1
tp262
a(S'w'
I4
tp263
a(S'p1_tl'
I142
tp264
a(S'p1_ll'
I1
tp265
a(S'w'
I10269
tp266
a(S'tr_tl'
I189
tp267
a(S'tr_ll'
I1
tp268
a(S'w'
I4
tp269
a(S'p1_tl'
I159
tp270
a(S'p1_ll'
I1
tp271
a(S'w'
I10269
tp272
a(S'tr_tl'
I213
tp273
a(S'tr_ll'
I1
tp274
a(S'w'
I4
tp275
a(S'p1_tl'
I169
tp276
a(S'w'
I1
tp277
a(S'p1_ll'
I1
tp278
a(S'w'
I11002
tp279
a(S'tr_tl'
I28
tp280
a(S'tr_ll'
I1
tp281
a(S'tr_th'
I1
tp282
a(S'w'
I10273
tp283
a(S'tr_tl'
I169
tp284
a(S'tr_ll'
I1
tp285
a(S'tr_th'
I0
tp286
a(S'w'
I5
tp287
a(S'p1_tl'
I213
tp288
a(S'p1_ll'
I1
tp289
a(S'w'
I10268
tp290
a(S'tr_tl'
I28
tp291
a(S'w'
I1
tp292
a(S'tr_ll'
I1
tp293
a(S'tr_th'
I1
tp294
a(S'w'
I4
tp295
a(S'p1_tl'
I169
tp296
a(S'p1_ll'
I1
tp297
a(S'w'
I11003
tp298
a(S'tr_tl'
I225
tp299
a(S'tr_ll'
I1
tp300
a(S'tr_th'
I0
tp301
a(S'w'
I4
tp302
a(S'p1_tl'
I189
tp303
a(S'p1_ll'
I1
tp304
a(S'w'
I10269
tp305
a(S'tr_tl'
I159
tp306
a(S'tr_ll'
I1
tp307
a(S'w'
I10273
tp308
a(S'tr_tl'
I253
tp309
a(S'tr_ll'
I1
tp310
a(S'w'
I4
tp311
a(S'p1_tl'
I179
tp312
a(S'w'
I1
tp313
a(S'p1_ll'
I1
tp314
a(S'w'
I10268
tp315
a(S'tr_tl'
I150
tp316
a(S'tr_ll'
I1
tp317
a(S'w'
I11007
tp318
a(S'tr_tl'
I134
tp319
a(S'tr_ll'
I1
tp320
a(S'w'
I4
tp321
a(S'p1_tl'
I169
tp322
a(S'w'
I1
tp323
a(S'p1_ll'
I1
tp324
a(S'w'
I10268
tp325
a(S'tr_tl'
I82
tp326
a(S'w'
I1
tp327
a(S'tr_ll'
I1
tp328
a(S'tr_th'
I1
tp329
a(S'w'
I10273
tp330
a(S'tr_tl'
I12
tp331
a(S'tr_ll'
I1
tp332
a(S'w'
I11007
tp333
a(S'tr_tl'
I225
tp334
a(S'tr_ll'
I1
tp335
a(S'tr_th'
I0
tp336
a(S'w'
I10273
tp337
a(S'tr_tl'
I169
tp338
a(S'tr_ll'
I1
tp339
a(S'w'
I10273
tp340
a(S'tr_tl'
I189
tp341
a(S'tr_ll'
I1
tp342
a(S'w'
I10273
tp343
a(S'tr_tl'
I213
tp344
a(S'w'
I1
tp345
a(S'tr_ll'
I1
tp346
a(S'w'
I11006
tp347
a(S'tr_tl'
I225
tp348
a(S'w'
I1
tp349
a(S'tr_ll'
I1
tp350
a(S'w'
I10274
tp351
a(S'tr_lr'
I24
tp352
a(S'w'
I4
tp353
a(S'tr_tl'
I251
tp354
a(S'w'
I1
tp355
a(S'tr_ll'
I1
tp356
a(S'tr_th'
I1
tp357
a(S'w'
I5
tp358
a(S'p1_vo'
I2
tp359
a(S'w'
I5
tp360
a(S'p1_tl'
I251
tp361
a(S'p1_ll'
I1
tp362
a(S'p1_th'
I1
tp363
a(S'w'
I10257
tp364
a(S'tr_tl'
I213
tp365
a(S'tr_ll'
I1
tp366
a(S'tr_th'
I0
tp367
a(S'w'
I4
tp368
a(S'p1_tl'
I126
tp369
a(S'p1_ll'
I1
tp370
a(S'p1_th'
I0
tp371
a(S'w'
I5132
tp372
a(S'tr_tl'
I225
tp373
a(S'w'
I1
tp374
a(S'tr_ll'
I1
tp375
a(S'w'
I4
tp376
a(S'p1_tl'
I134
tp377
a(S'p1_ll'
I1
tp378
a(S'w'
I5866
tp379
a(S'tr_tl'
I213
tp380
a(S'tr_ll'
I1
tp381
a(S'w'
I4
tp382
a(S'p1_tl'
I126
tp383
a(S'p1_ll'
I1
tp384
a(S'w'
I10269
tp385
a(S'tr_ll'
I1
tp386
a(S'w'
I4
tp387
a(S'p1_tl'
I169
tp388
a(S'w'
I1
tp389
a(S'p1_ll'
I1
tp390
a(S'w'
I5132
tp391
a(S'tr_tl'
I225
tp392
a(S'tr_ll'
I1
tp393
a(S'w'
I4
tp394
a(S'p1_tl'
I179
tp395
a(S'p1_ll'
I1
tp396
a(S'w'
I5132
tp397
a(S'tr_tl'
I213
tp398
a(S'tr_ll'
I1
tp399
a(S'w'
I5
tp400
a(S'p1_tl'
I169
tp401
a(S'p1_ll'
I1
tp402
a(S'w'
I10268
tp403
a(S'tr_tl'
I169
tp404
a(S'w'
I1
tp405
a(S'tr_ll'
I1
tp406
a(S'w'
I4
tp407
a(S'p1_tl'
I213
tp408
a(S'p1_ll'
I1
tp409
a(S'w'
I5866
tp410
a(S'tr_tl'
I179
tp411
a(S'tr_ll'
I1
tp412
a(S'w'
I4
tp413
a(S'p1_tl'
I225
tp414
a(S'p1_ll'
I1
tp415
a(S'w'
I5132
tp416
a(S'tr_tl'
I169
tp417
a(S'w'
I1
tp418
a(S'tr_ll'
I1
tp419
a(S'w'
I4
tp420
a(S'p1_tl'
I213
tp421
a(S'p1_ll'
I1
tp422
a(S'w'
I10269
tp423
a(S'tr_tl'
I213
tp424
a(S'tr_ll'
I1
tp425
a(S'w'
I4
tp426
a(S'p1_tl'
I253
tp427
a(S'p1_ll'
I1
tp428
a(S'w'
I10269
tp429
a(S'tr_tl'
I58
tp430
a(S'tr_ll'
I1
tp431
a(S'tr_th'
I2
tp432
a(S'w'
I6
tp433
a(S'p1_tl'
I58
tp434
a(S'p1_ll'
I1
tp435
a(S'p1_th'
I2
tp436
a(S'w'
I11001
tp437
a(S'tr_tl'
I213
tp438
a(S'tr_ll'
I1
tp439
a(S'tr_th'
I0
tp440
a(S'w'
I4
tp441
a(S'p1_tl'
I126
tp442
a(S'w'
I1
tp443
a(S'p1_ll'
I1
tp444
a(S'p1_th'
I0
tp445
a(S'w'
I5132
tp446
a(S'tr_tl'
I225
tp447
a(S'tr_ll'
I1
tp448
a(S'w'
I4
tp449
a(S'p1_tl'
I134
tp450
a(S'p1_ll'
I1
tp451
a(S'w'
I5132
tp452
a(S'tr_tl'
I213
tp453
a(S'tr_ll'
I1
tp454
a(S'w'
I4
tp455
a(S'p1_tl'
I126
tp456
a(S'w'
I1
tp457
a(S'p1_ll'
I1
tp458
a(S'w'
I10269
tp459
a(S'tr_ll'
I1
tp460
a(S'w'
I4
tp461
a(S'p1_tl'
I169
tp462
a(S'p1_ll'
I1
tp463
a(S'w'
I5132
tp464
a(S'tr_tl'
I225
tp465
a(S'tr_ll'
I1
tp466
a(S'w'
I4
tp467
a(S'p1_tl'
I179
tp468
a(S'w'
I1
tp469
a(S'p1_ll'
I1
tp470
a(S'w'
I5132
tp471
a(S'tr_tl'
I45
tp472
a(S'tr_ll'
I1
tp473
a(S'tr_th'
I1
tp474
a(S'w'
I4
tp475
a(S'p1_tl'
I169
tp476
a(S'p1_ll'
I1
tp477
a(S'w'
I11003
tp478
a(S'tr_tl'
I169
tp479
a(S'tr_ll'
I1
tp480
a(S'tr_th'
I0
tp481
a(S'w'
I4
tp482
a(S'p1_tl'
I213
tp483
a(S'p1_ll'
I1
tp484
a(S'w'
I5132
tp485
a(S'tr_tl'
I179
tp486
a(S'w'
I1
tp487
a(S'tr_ll'
I1
tp488
a(S'w'
I4
tp489
a(S'p1_tl'
I225
tp490
a(S'p1_ll'
I1
tp491
a(S'w'
I5132
tp492
a(S'tr_tl'
I169
tp493
a(S'tr_ll'
I1
tp494
a(S'w'
I4
tp495
a(S'p1_tl'
I213
tp496
a(S'p1_ll'
I1
tp497
a(S'w'
I10269
tp498
a(S'tr_tl'
I213
tp499
a(S'tr_ll'
I1
tp500
a(S'w'
I4
tp501
a(S'p1_tl'
I253
tp502
a(S'w'
I1
tp503
a(S'p1_ll'
I1
tp504
a(S'w'
I11002
tp505
a(S'tr_lh'
I1
tp506
a(S'tr_lr'
I127
tp507
a(S'w'
I2
tp508
a(S'tr_tl'
I63
tp509
a(S'w'
I1
tp510
a(S'tr_ll'
I1
tp511
a(S'tr_th'
I1
tp512
a(S'w'
I5
tp513
a(S'p1_vo'
I7
tp514
a(S'w'
I4
tp515
a(S'p1_tl'
I225
tp516
a(S'w'
I1
tp517
a(S'p1_ll'
I1
tp518
a(S'w'
I10262
tp519
a(S'p1_tl'
I28
tp520
a(S'p1_ll'
I1
tp521
a(S'p1_th'
I1
tp522
a(S'w'
I10272
tp523
a(S'tr_tl'
I82
tp524
a(S'tr_ll'
I1
tp525
a(S'w'
I4
tp526
a(S'p1_tl'
I213
tp527
a(S'p1_ll'
I1
tp528
a(S'p1_th'
I0
tp529
a(S'w'
I10270
tp530
a(S'p1_tl'
I28
tp531
a(S'p1_ll'
I1
tp532
a(S'p1_th'
I1
tp533
a(S'w'
I11006
tp534
a(S'tr_tl'
I124
tp535
a(S'tr_ll'
I1
tp536
a(S'w'
I4
tp537
a(S'p1_tl'
I159
tp538
a(S'p1_ll'
I1
tp539
a(S'p1_th'
I0
tp540
a(S'w'
I10271
tp541
a(S'p1_tl'
I253
tp542
a(S'p1_ll'
I1
tp543
a(S'w'
I10271
tp544
a(S'tr_tl'
I103
tp545
a(S'tr_ll'
I1
tp546
a(S'w'
I5
tp547
a(S'p1_tl'
I213
tp548
a(S'p1_ll'
I1
tp549
a(S'w'
I11004
tp550
a(S'p1_tl'
I253
tp551
a(S'p1_ll'
I1
tp552
a(S'w'
I10271
tp553
a(S'tr_tl'
I82
tp554
a(S'w'
I1
tp555
a(S'tr_ll'
I1
tp556
a(S'w'
I4
tp557
a(S'p1_tl'
I169
tp558
a(S'p1_ll'
I1
tp559
a(S'w'
I10270
tp560
a(S'p1_tl'
I82
tp561
a(S'p1_ll'
I1
tp562
a(S'p1_th'
I1
tp563
a(S'w'
I10273
tp564
a(S'p1_tl'
I12
tp565
a(S'w'
I1
tp566
a(S'p1_ll'
I1
tp567
a(S'w'
I11006
tp568
a(S'p1_tl'
I225
tp569
a(S'w'
I1
tp570
a(S'p1_ll'
I1
tp571
a(S'p1_th'
I0
tp572
a(S'w'
I10271
tp573
a(S'tr_tl'
I253
tp574
a(S'tr_ll'
I1
tp575
a(S'tr_th'
I0
tp576
a(S'w'
I4
tp577
a(S'p1_tl'
I169
tp578
a(S'w'
I1
tp579
a(S'p1_ll'
I1
tp580
a(S'w'
I10270
tp581
a(S'p1_tl'
I28
tp582
a(S'p1_ll'
I1
tp583
a(S'p1_th'
I1
tp584
a(S'w'
I11007
tp585
a(S'p1_tl'
I201
tp586
a(S'p1_ll'
I1
tp587
a(S'p1_th'
I0
tp588
a(S'w'
I10273
tp589
a(S'p1_tl'
I169
tp590
a(S'p1_ll'
I1
tp591
a(S'w'
I10272
tp592
a(S'tr_lh'
I0
tp593
a(S'tr_lr'
I24
tp594
a(S'w'
I2
tp595
a(S'tr_tl'
I124
tp596
a(S'tr_ll'
I1
tp597
a(S'tr_th'
I1
tp598
a(S'w'
I4
tp599
a(S'p1_vo'
I2
tp600
a(S'w'
I5
tp601
a(S'p1_tl'
I249
tp602
a(S'p1_ll'
I1
tp603
a(S'p1_th'
I2
tp604
a(S'w'
I10262
tp605
a(S'tr_tl'
I159
tp606
a(S'tr_ll'
I1
tp607
a(S'tr_th'
I0
tp608
a(S'w'
I4
tp609
a(S'p1_tl'
I126
tp610
a(S'w'
I1
tp611
a(S'p1_ll'
I1
tp612
a(S'p1_th'
I0
tp613
a(S'w'
I5866
tp614
a(S'tr_tl'
I169
tp615
a(S'tr_ll'
I1
tp616
a(S'w'
I4
tp617
a(S'p1_tl'
I134
tp618
a(S'p1_ll'
I1
tp619
a(S'w'
I5132
tp620
a(S'tr_tl'
I159
tp621
a(S'tr_ll'
I1
tp622
a(S'w'
I4
tp623
a(S'p1_tl'
I126
tp624
a(S'w'
I1
tp625
a(S'p1_ll'
I1
tp626
a(S'w'
I10268
tp627
a(S'tr_tl'
I189
tp628
a(S'w'
I1
tp629
a(S'tr_ll'
I1
tp630
a(S'w'
I4
tp631
a(S'p1_tl'
I159
tp632
a(S'p1_ll'
I1
tp633
a(S'w'
I5132
tp634
a(S'tr_tl'
I201
tp635
a(S'tr_ll'
I1
tp636
a(S'w'
I4
tp637
a(S'p1_tl'
I169
tp638
a(S'p1_ll'
I1
tp639
a(S'w'
I5133
tp640
a(S'tr_tl'
I189
tp641
a(S'tr_ll'
I1
tp642
a(S'w'
I4
tp643
a(S'p1_tl'
I159
tp644
a(S'p1_ll'
I1
tp645
a(S'w'
I11003
tp646
a(S'tr_tl'
I159
tp647
a(S'tr_ll'
I1
tp648
a(S'w'
I4
tp649
a(S'p1_tl'
I189
tp650
a(S'p1_ll'
I1
tp651
a(S'w'
I5132
tp652
a(S'tr_tl'
I169
tp653
a(S'tr_ll'
I1
tp654
a(S'w'
I4
tp655
a(S'p1_tl'
I201
tp656
a(S'w'
I1
tp657
a(S'p1_ll'
I1
tp658
a(S'w'
I5132
tp659
a(S'tr_tl'
I159
tp660
a(S'tr_ll'
I1
tp661
a(S'w'
I4
tp662
a(S'p1_tl'
I189
tp663
a(S'p1_ll'
I1
tp664
a(S'w'
I10269
tp665
a(S'tr_tl'
I189
tp666
a(S'tr_ll'
I1
tp667
a(S'w'
I4
tp668
a(S'p1_tl'
I253
tp669
a(S'p1_ll'
I1
tp670
a(S'w'
I10269
tp671
a(S'tr_tl'
I171
tp672
a(S'tr_ll'
I1
tp673
a(S'tr_th'
I1
tp674
a(S'w'
I6
tp675
a(S'p1_tl'
I86
tp676
a(S'p1_ll'
I1
tp677
a(S'p1_th'
I3
tp678
a(S'w'
I11001
tp679
a(S'tr_tl'
I159
tp680
a(S'tr_ll'
I1
tp681
a(S'tr_th'
I0
tp682
a(S'w'
I5
tp683
a(S'p1_tl'
I126
tp684
a(S'p1_ll'
I1
tp685
a(S'p1_th'
I0
tp686
a(S'w'
I5132
tp687
a(S'tr_tl'
I169
tp688
a(S'tr_ll'
I1
tp689
a(S'w'
I4
tp690
a(S'p1_tl'
I134
tp691
a(S'p1_ll'
I1
tp692
a(S'w'
I5132
tp693
a(S'tr_tl'
I159
tp694
a(S'w'
I1
tp695
a(S'tr_ll'
I1
tp696
a(S'w'
I4
tp697
a(S'p1_tl'
I126
tp698
a(S'p1_ll'
I1
tp699
a(S'w'
I10269
tp700
a(S'tr_tl'
I189
tp701
a(S'tr_ll'
I1
tp702
a(S'w'
I4
tp703
a(S'p1_tl'
I159
tp704
a(S'p1_ll'
I1
tp705
a(S'w'
I5132
tp706
a(S'tr_tl'
I201
tp707
a(S'w'
I1
tp708
a(S'tr_ll'
I1
tp709
a(S'w'
I4
tp710
a(S'p1_tl'
I169
tp711
a(S'p1_ll'
I1
tp712
a(S'w'
I5866
tp713
a(S'tr_tl'
I196
tp714
a(S'tr_ll'
I1
tp715
a(S'tr_th'
I1
tp716
a(S'w'
I4
tp717
a(S'p1_tl'
I159
tp718
a(S'p1_ll'
I1
tp719
a(S'w'
I10269
tp720
a(S'tr_tl'
I159
tp721
a(S'tr_ll'
I1
tp722
a(S'tr_th'
I0
tp723
a(S'w'
I4
tp724
a(S'p1_tl'
I189
tp725
a(S'p1_ll'
I1
tp726
a(S'w'
I5133
tp727
a(S'tr_tl'
I169
tp728
a(S'tr_ll'
I1
tp729
a(S'w'
I4
tp730
a(S'p1_tl'
I201
tp731
a(S'p1_ll'
I1
tp732
a(S'w'
I5132
tp733
a(S'tr_tl'
I159
tp734
a(S'tr_ll'
I1
tp735
a(S'w'
I4
tp736
a(S'p1_tl'
I189
tp737
a(S'w'
I1
tp738
a(S'p1_ll'
I1
tp739
a(S'w'
I10268
tp740
a(S'tr_tl'
I189
tp741
a(S'w'
I1
tp742
a(S'tr_ll'
I1
tp743
a(S'w'
I4
tp744
a(S'p1_tl'
I253
tp745
a(S'p1_ll'
I1
tp746
a(S'w'
I11002
tp747
a(S'tr_lh'
I1
tp748
a(S'tr_lr'
I127
tp749
a(S'w'
I2
tp750
a(S'tr_tl'
I63
tp751
a(S'w'
I1
tp752
a(S'tr_ll'
I1
tp753
a(S'tr_th'
I1
tp754
a(S'w'
I5
tp755
a(S'p1_vo'
I7
tp756
a(S'w'
I5
tp757
a(S'p1_tl'
I225
tp758
a(S'p1_ll'
I1
tp759
a(S'w'
I10262
tp760
a(S'p1_tl'
I28
tp761
a(S'p1_ll'
I1
tp762
a(S'p1_th'
I1
tp763
a(S'w'
I10272
tp764
a(S'tr_tl'
I82
tp765
a(S'tr_ll'
I1
tp766
a(S'w'
I4
tp767
a(S'p1_tl'
I213
tp768
a(S'p1_ll'
I1
tp769
a(S'p1_th'
I0
tp770
a(S'w'
I11004
tp771
a(S'p1_tl'
I28
tp772
a(S'w'
I1
tp773
a(S'p1_ll'
I1
tp774
a(S'p1_th'
I1
tp775
a(S'w'
I10271
tp776
a(S'tr_tl'
I124
tp777
a(S'tr_ll'
I1
tp778
a(S'w'
I4
tp779
a(S'p1_tl'
I159
tp780
a(S'w'
I1
tp781
a(S'p1_ll'
I1
tp782
a(S'p1_th'
I0
tp783
a(S'w'
I10270
tp784
a(S'p1_tl'
I253
tp785
a(S'p1_ll'
I1
tp786
a(S'w'
I10273
tp787
a(S'p1_tl'
I213
tp788
a(S'p1_ll'
I1
tp789
a(S'w'
I11007
tp790
a(S'p1_tl'
I159
tp791
a(S'p1_ll'
I1
tp792
a(S'w'
I10274
tp793
a(S'tr_tl'
I82
tp794
a(S'tr_ll'
I1
tp795
a(S'w'
I4
tp796
a(S'p1_tl'
I169
tp797
a(S'w'
I1
tp798
a(S'p1_ll'
I1
tp799
a(S'w'
I10266
tp800
a(S'tr_tl'
I159
tp801
a(S'tr_ll'
I1
tp802
a(S'tr_th'
I0
tp803
a(S'w'
I4
tp804
a(S'p1_tl'
I253
tp805
a(S'w'
I1
tp806
a(S'p1_ll'
I1
tp807
a(S'w'
I11002
tp808
a(S'tr_tl'
I169
tp809
a(S'tr_ll'
I1
tp810
a(S'w'
I4
tp811
a(S'p1_tl'
I12
tp812
a(S'w'
I1
tp813
a(S'p1_ll'
I1
tp814
a(S'p1_th'
I1
tp815
a(S'w'
I10268
tp816
a(S'tr_tl'
I189
tp817
a(S'tr_ll'
I1
tp818
a(S'w'
I5
tp819
a(S'p1_tl'
I63
tp820
a(S'p1_ll'
I1
tp821
a(S'w'
I10268
tp822
a(S'tr_tl'
I213
tp823
a(S'w'
I1
tp824
a(S'tr_ll'
I1
tp825
a(S'w'
I4
tp826
a(S'p1_tl'
I82
tp827
a(S'p1_ll'
I1
tp828
a(S'w'
I10269
tp829
a(S'tr_tl'
I225
tp830
a(S'tr_ll'
I1
tp831
a(S'w'
I4
tp832
a(S'p1_tl'
I124
tp833
a(S'p1_ll'
I1
tp834
a(S'w'
I11003
tp835
a(S'tr_tl'
I253
tp836
a(S'tr_ll'
I1
tp837
a(S'w'
I4
tp838
a(S'p1_tl'
I171
tp839
a(S'p1_ll'
I1
tp840
a(S'w'
I10269
tp841
a(S'tr_tl'
I12
tp842
a(S'tr_ll'
I1
tp843
a(S'tr_th'
I1
tp844
a(S'w'
I4
tp845
a(S'p1_tl'
I196
tp846
a(S'p1_ll'
I1
tp847
a(S'w'
I10278
tp848
a(S'tr_lh'
I0
tp849
a(S'tr_lr'
I96
tp850
a(S'w'
I2
tp851
a(S'tr_tl'
I251
tp852
a(S'tr_ll'
I1
tp853
a(S'w'
I9
tp854
a(S'p1_vo'
I15
tp855
a(S'w'
I7
tp856
a.