(lp1
(S'clock'
p2
I1789772
tp3
a(S'p1_du'
I2
tp4
a(S'p1_vo'
I15
tp5
a(S'p1_sn'
I1
tp6
a(S'p1_tl'
I142
tp7
a(S'p1_ll'
I1
tp8
a(S'p2_lh'
I1
tp9
a(S'p2_cv'
I1
tp10
a(S'p2_sn'
I1
tp11
a(S'p2_tl'
I31
tp12
a(S'p2_ll'
I1
tp13
a(S'tr_lr'
I96
tp14
a(S'tr_tl'
I169
tp15
a(S'tr_ll'
I1
tp16
a(S'no_lh'
I1
tp17
a(S'no_cv'
I1
tp18
a(S'no_np'
I14
tp19
a(S'no_ll'
I1
tp20
a(S'ch_no'
I1
tp21
a(S'ch_tr'
I1
tp22
a(S'ch_p2'
I1
tp23
a(S'ch_p1'
I1
tp24
a(S'fc_mo'
I0
tp25
a(S'tr_lh'
I1
tp26
a(S'tr_lr'
I127
tp27
a(S'w'
I3
tp28
a(S'tr_tl'
I142
tp29
a(S'tr_ll'
I1
tp30
a(S'w'
I9
tp31
a(S'p1_du'
I0
tp32
a(S'p1_lh'
I1
tp33
a(S'p1_cv'
I1
tp34
a(S'p1_vo'
I0
tp35
a(S'w'
I22001
tp36
a(S'tr_tl'
I126
tp37
a(S'tr_ll'
I1
tp38
a(S'w'
I2199
tp39
a(S'tr_tl'
I112
tp40
a(S'tr_ll'
I1
tp41
a(S'w'
I2935
tp42
a(S'tr_tl'
I106
tp43
a(S'w'
I1
tp44
a(S'tr_ll'
I1
tp45
a(S'w'
I2935
tp46
a(S'tr_tl'
I94
tp47
a(S'tr_ll'
I1
tp48
a(S'w'
I2935
tp49
a(S'tr_tl'
I84
tp50
a(S'tr_ll'
I1
tp51
a(S'w'
I2201
tp52
a(S'tr_tl'
I79
tp53
a(S'tr_ll'
I1
tp54
a(S'w'
I2935
tp55
a(S'tr_tl'
I70
tp56
a(S'w'
I1
tp57
a(S'tr_ll'
I1
tp58
a(S'w'
I2935
tp59
a(S'tr_tl'
I63
tp60
a(S'tr_ll'
I1
tp61
a(S'w'
I2935
tp62
a(S'tr_tl'
I56
tp63
a(S'tr_ll'
I1
tp64
a(S'w'
I2201
tp65
a(S'tr_tl'
I52
tp66
a(S'tr_ll'
I1
tp67
a(S'w'
I2935
tp68
a(S'tr_tl'
I47
tp69
a(S'w'
I1
tp70
a(S'tr_ll'
I1
tp71
a(S'w'
I2935
tp72
a(S'tr_tl'
I41
tp73
a(S'tr_ll'
I1
tp74
a(S'w'
I2935
tp75
a(S'tr_tl'
I39
tp76
a(S'tr_ll'
I1
tp77
a(S'w'
I2203
tp78
a(S'tr_lh'
I0
tp79
a(S'tr_lr'
I32
tp80
a(S'w'
I2
tp81
a(S'tr_tl'
I35
tp82
a(S'tr_ll'
I1
tp83
a(S'w'
I16140
tp84
a(S'tr_ll'
I1
tp85
a(S'w'
I14676
tp86
a(S'tr_ll'
I1
tp87
a(S'w'
I14676
tp88
a(S'tr_lh'
I1
tp89
a(S'tr_lr'
I127
tp90
a(S'w'
I4
tp91
a(S'tr_ll'
I1
tp92
a(S'w'
I1463
tp93
a(S'tr_tl'
I31
tp94
a(S'w'
I1
tp95
a(S'tr_ll'
I1
tp96
a(S'w'
I2201
tp97
a(S'tr_tl'
I35
tp98
a(S'tr_ll'
I1
tp99
a(S'w'
I1467
tp100
a(S'tr_tl'
I31
tp101
a(S'w'
I1
tp102
a(S'tr_ll'
I1
tp103
a(S'w'
I2201
tp104
a(S'tr_tl'
I35
tp105
a(S'tr_ll'
I1
tp106
a(S'w'
I1468
tp107
a(S'tr_tl'
I31
tp108
a(S'tr_ll'
I1
tp109
a(S'w'
I2201
tp110
a(S'tr_tl'
I35
tp111
a(S'tr_ll'
I1
tp112
a(S'w'
I1467
tp113
a(S'tr_tl'
I31
tp114
a(S'w'
I1
tp115
a(S'tr_ll'
I1
tp116
a(S'w'
I2201
tp117
a(S'tr_tl'
I35
tp118
a(S'tr_ll'
I1
tp119
a(S'w'
I1467
tp120
a(S'tr_tl'
I31
tp121
a(S'w'
I1
tp122
a(S'tr_ll'
I1
tp123
a(S'w'
I2201
tp124
a(S'tr_tl'
I35
tp125
a(S'tr_ll'
I1
tp126
a(S'w'
I1468
tp127
a(S'tr_tl'
I31
tp128
a(S'tr_ll'
I1
tp129
a(S'w'
I2201
tp130
a(S'tr_tl'
I35
tp131
a(S'tr_ll'
I1
tp132
a(S'w'
I1468
tp133
a(S'tr_tl'
I31
tp134
a(S'tr_ll'
I1
tp135
a(S'w'
I2201
tp136
a(S'tr_tl'
I35
tp137
a(S'tr_ll'
I1
tp138
a(S'w'
I1468
tp139
a(S'tr_tl'
I31
tp140
a(S'tr_ll'
I1
tp141
a(S'w'
I2201
tp142
a(S'tr_tl'
I35
tp143
a(S'tr_ll'
I1
tp144
a(S'w'
I1468
tp145
a(S'tr_tl'
I31
tp146
a(S'tr_ll'
I1
tp147
a(S'w'
I2203
tp148
a(S'tr_tl'
I35
tp149
a(S'tr_ll'
I1
tp150
a(S'w'
I11739
tp151
a(S'tr_tl'
I39
tp152
a(S'tr_ll'
I1
tp153
a(S'w'
I11741
tp154
a(S'tr_tl'
I47
tp155
a(S'tr_ll'
I1
tp156
a(S'w'
I7338
tp157
a(S'tr_tl'
I56
tp158
a(S'tr_ll'
I1
tp159
a(S'w'
I7338
tp160
a(S'tr_tl'
I63
tp161
a(S'tr_ll'
I1
tp162
a(S'w'
I7338
tp163
a(S'tr_tl'
I70
tp164
a(S'tr_ll'
I1
tp165
a(S'w'
I44028
tp166
a(S'tr_lh'
I0
tp167
a(S'tr_lr'
I0
tp168
a(S'w'
I1
tp169
a.