(lp1
(S'clock'
p2
I1789772
tp3
a(S'p1_du'
I2
tp4
a(S'p1_vo'
I1
tp5
a(S'p1_sn'
I1
tp6
a(S'p1_tl'
I239
tp7
a(S'p1_ll'
I1
tp8
a(S'p2_lh'
I1
tp9
a(S'p2_cv'
I1
tp10
a(S'p2_sn'
I1
tp11
a(S'p2_tl'
I31
tp12
a(S'p2_ll'
I1
tp13
a(S'tr_lh'
I1
tp14
a(S'tr_lr'
I127
tp15
a(S'tr_tl'
I94
tp16
a(S'tr_ll'
I1
tp17
a(S'no_lh'
I1
tp18
a(S'no_cv'
I1
tp19
a(S'no_np'
I12
tp20
a(S'no_ll'
I1
tp21
a(S'ch_no'
I1
tp22
a(S'ch_tr'
I1
tp23
a(S'ch_p2'
I1
tp24
a(S'ch_p1'
I1
tp25
a(S'fc_mo'
I0
tp26
a(S'tr_lh'
I0
tp27
a(S'tr_lr'
I48
tp28
a(S'w'
I7
tp29
a(S'tr_tl'
I171
tp30
a(S'w'
I1
tp31
a(S'tr_ll'
I1
tp32
a(S'tr_th'
I1
tp33
a(S'w'
I9
tp34
a(S'p1_du'
I1
tp35
a(S'p1_vo'
I15
tp36
a(S'w'
I8
tp37
a(S'p1_tl'
I171
tp38
a(S'p1_ll'
I1
tp39
a(S'p1_th'
I1
tp40
a(S'w'
I1443
tp41
a(S'tr_tl'
I82
tp42
a(S'tr_ll'
I1
tp43
a(S'w'
I4
tp44
a(S'p1_tl'
I82
tp45
a(S'p1_ll'
I1
tp46
a(S'w'
I1468
tp47
a(S'tr_tl'
I28
tp48
a(S'tr_ll'
I1
tp49
a(S'w'
I4
tp50
a(S'p1_tl'
I28
tp51
a(S'p1_ll'
I1
tp52
a(S'w'
I1463
tp53
a(S'tr_tl'
I239
tp54
a(S'w'
I1
tp55
a(S'tr_ll'
I1
tp56
a(S'tr_th'
I0
tp57
a(S'w'
I4
tp58
a(S'p1_tl'
I239
tp59
a(S'p1_ll'
I1
tp60
a(S'p1_th'
I0
tp61
a(S'w'
I1463
tp62
a(S'tr_tl'
I201
tp63
a(S'tr_ll'
I1
tp64
a(S'w'
I4
tp65
a(S'p1_tl'
I201
tp66
a(S'p1_ll'
I1
tp67
a(S'w'
I1464
tp68
a(S'tr_tl'
I169
tp69
a(S'tr_ll'
I1
tp70
a(S'w'
I4
tp71
a(S'p1_tl'
I169
tp72
a(S'p1_ll'
I1
tp73
a(S'w'
I729
tp74
a(S'tr_tl'
I142
tp75
a(S'tr_ll'
I1
tp76
a(S'w'
I5
tp77
a(S'p1_tl'
I142
tp78
a(S'p1_ll'
I1
tp79
a(S'w'
I1463
tp80
a(S'tr_tl'
I119
tp81
a(S'tr_ll'
I1
tp82
a(S'w'
I4
tp83
a(S'p1_tl'
I119
tp84
a(S'p1_ll'
I1
tp85
a(S'w'
I1464
tp86
a(S'tr_tl'
I100
tp87
a(S'tr_ll'
I1
tp88
a(S'w'
I4
tp89
a(S'p1_tl'
I100
tp90
a(S'p1_ll'
I1
tp91
a(S'w'
I1463
tp92
a(S'tr_tl'
I119
tp93
a(S'tr_ll'
I1
tp94
a(S'w'
I4
tp95
a(S'p1_tl'
I119
tp96
a(S'w'
I1
tp97
a(S'p1_ll'
I1
tp98
a(S'w'
I1463
tp99
a(S'tr_tl'
I142
tp100
a(S'tr_ll'
I1
tp101
a(S'w'
I4
tp102
a(S'p1_tl'
I142
tp103
a(S'p1_ll'
I1
tp104
a(S'w'
I1463
tp105
a(S'tr_tl'
I169
tp106
a(S'w'
I1
tp107
a(S'tr_ll'
I1
tp108
a(S'w'
I4
tp109
a(S'p1_tl'
I169
tp110
a(S'p1_ll'
I1
tp111
a(S'w'
I1463
tp112
a(S'tr_tl'
I213
tp113
a(S'tr_ll'
I1
tp114
a(S'w'
I4
tp115
a(S'p1_tl'
I213
tp116
a(S'p1_ll'
I1
tp117
a(S'w'
I1464
tp118
a(S'tr_tl'
I239
tp119
a(S'tr_ll'
I1
tp120
a(S'w'
I4
tp121
a(S'p1_tl'
I239
tp122
a(S'p1_ll'
I1
tp123
a(S'w'
I729
tp124
a(S'tr_tl'
I28
tp125
a(S'w'
I1
tp126
a(S'tr_ll'
I1
tp127
a(S'tr_th'
I1
tp128
a(S'w'
I4
tp129
a(S'p1_tl'
I28
tp130
a(S'p1_ll'
I1
tp131
a(S'p1_th'
I1
tp132
a(S'w'
I1463
tp133
a(S'tr_tl'
I82
tp134
a(S'tr_ll'
I1
tp135
a(S'w'
I4
tp136
a(S'p1_tl'
I82
tp137
a(S'p1_ll'
I1
tp138
a(S'w'
I1472
tp139
a(S'tr_tl'
I171
tp140
a(S'tr_ll'
I1
tp141
a(S'w'
I13
tp142
a(S'p1_tl'
I171
tp143
a(S'p1_ll'
I1
tp144
a(S'w'
I1446
tp145
a(S'tr_tl'
I82
tp146
a(S'tr_ll'
I1
tp147
a(S'w'
I4
tp148
a(S'p1_tl'
I82
tp149
a(S'w'
I1
tp150
a(S'p1_ll'
I1
tp151
a(S'w'
I1463
tp152
a(S'tr_tl'
I28
tp153
a(S'tr_ll'
I1
tp154
a(S'w'
I4
tp155
a(S'p1_tl'
I28
tp156
a(S'p1_ll'
I1
tp157
a(S'w'
I1463
tp158
a(S'tr_tl'
I239
tp159
a(S'w'
I1
tp160
a(S'tr_ll'
I1
tp161
a(S'tr_th'
I0
tp162
a(S'w'
I4
tp163
a(S'p1_tl'
I239
tp164
a(S'p1_ll'
I1
tp165
a(S'p1_th'
I0
tp166
a(S'w'
I1463
tp167
a(S'tr_tl'
I201
tp168
a(S'tr_ll'
I1
tp169
a(S'w'
I4
tp170
a(S'p1_tl'
I201
tp171
a(S'p1_ll'
I1
tp172
a(S'w'
I1464
tp173
a(S'tr_tl'
I169
tp174
a(S'tr_ll'
I1
tp175
a(S'w'
I4
tp176
a(S'p1_tl'
I169
tp177
a(S'p1_ll'
I1
tp178
a(S'w'
I729
tp179
a(S'tr_tl'
I142
tp180
a(S'w'
I1
tp181
a(S'tr_ll'
I1
tp182
a(S'w'
I4
tp183
a(S'p1_tl'
I142
tp184
a(S'p1_ll'
I1
tp185
a(S'w'
I1463
tp186
a(S'tr_tl'
I119
tp187
a(S'tr_ll'
I1
tp188
a(S'w'
I4
tp189
a(S'p1_tl'
I119
tp190
a(S'w'
I1
tp191
a(S'p1_ll'
I1
tp192
a(S'w'
I1463
tp193
a(S'tr_tl'
I100
tp194
a(S'tr_ll'
I1
tp195
a(S'w'
I4
tp196
a(S'p1_tl'
I100
tp197
a(S'p1_ll'
I1
tp198
a(S'w'
I1463
tp199
a(S'tr_tl'
I119
tp200
a(S'tr_ll'
I1
tp201
a(S'w'
I4
tp202
a(S'p1_tl'
I119
tp203
a(S'w'
I1
tp204
a(S'p1_ll'
I1
tp205
a(S'w'
I1463
tp206
a(S'tr_tl'
I142
tp207
a(S'tr_ll'
I1
tp208
a(S'w'
I4
tp209
a(S'p1_tl'
I142
tp210
a(S'p1_ll'
I1
tp211
a(S'w'
I1463
tp212
a(S'tr_tl'
I169
tp213
a(S'w'
I1
tp214
a(S'tr_ll'
I1
tp215
a(S'w'
I4
tp216
a(S'p1_tl'
I169
tp217
a(S'p1_ll'
I1
tp218
a(S'w'
I1463
tp219
a(S'tr_tl'
I213
tp220
a(S'tr_ll'
I1
tp221
a(S'w'
I4
tp222
a(S'p1_tl'
I213
tp223
a(S'w'
I1
tp224
a(S'p1_ll'
I1
tp225
a(S'w'
I1463
tp226
a(S'tr_tl'
I239
tp227
a(S'tr_ll'
I1
tp228
a(S'w'
I4
tp229
a(S'p1_tl'
I239
tp230
a(S'p1_ll'
I1
tp231
a(S'w'
I729
tp232
a(S'tr_tl'
I28
tp233
a(S'w'
I1
tp234
a(S'tr_ll'
I1
tp235
a(S'tr_th'
I1
tp236
a(S'w'
I4
tp237
a(S'p1_tl'
I28
tp238
a(S'p1_ll'
I1
tp239
a(S'p1_th'
I1
tp240
a(S'w'
I1463
tp241
a(S'tr_tl'
I82
tp242
a(S'tr_ll'
I1
tp243
a(S'w'
I4
tp244
a(S'p1_tl'
I82
tp245
a(S'p1_ll'
I1
tp246
a(S'w'
I1467
tp247
a(S'tr_tl'
I171
tp248
a(S'tr_ll'
I1
tp249
a(S'w'
I10
tp250
a(S'p1_tl'
I171
tp251
a(S'p1_ll'
I1
tp252
a(S'w'
I33008
tp253
a(S'tr_ll'
I1
tp254
a(S'w'
I5
tp255
a(S'w'
I1
tp256
a(S'p1_ll'
I1
tp257
a(S'w'
I5864
tp258
a(S'tr_tl'
I147
tp259
a(S'tr_ll'
I1
tp260
a(S'w'
I6
tp261
a(S'p1_tl'
I147
tp262
a(S'p1_ll'
I1
tp263
a(S'w'
I5131
tp264
a(S'tr_tl'
I124
tp265
a(S'tr_ll'
I1
tp266
a(S'w'
I6
tp267
a(S'p1_tl'
I124
tp268
a(S'p1_ll'
I1
tp269
a(S'w'
I5864
tp270
a(S'tr_tl'
I82
tp271
a(S'tr_ll'
I1
tp272
a(S'w'
I6
tp273
a(S'p1_tl'
I82
tp274
a(S'p1_ll'
I1
tp275
a(S'w'
I5131
tp276
a(S'tr_lr'
I16
tp277
a(S'w'
I4
tp278
a(S'tr_tl'
I63
tp279
a(S'tr_ll'
I1
tp280
a(S'w'
I6
tp281
a(S'p1_lh'
I1
tp282
a(S'p1_cv'
I1
tp283
a(S'w'
I2
tp284
a(S'p1_tl'
I63
tp285
a(S'p1_ll'
I1
tp286
a(S'w'
I5858
tp287
a(S'tr_tl'
I12
tp288
a(S'tr_ll'
I1
tp289
a(S'w'
I5137
tp290
a(S'tr_tl'
I213
tp291
a(S'tr_ll'
I1
tp292
a(S'tr_th'
I0
tp293
a(S'w'
I11008
tp294
a(S'p1_lh'
I0
tp295
a(S'p1_cv'
I0
tp296
a(S'w'
I11006
tp297
a(S'tr_tl'
I189
tp298
a(S'tr_ll'
I1
tp299
a(S'w'
I3670
tp300
a(S'p1_lh'
I1
tp301
a(S'p1_cv'
I1
tp302
a(S'w'
I2
tp303
a(S'p1_tl'
I28
tp304
a(S'w'
I1
tp305
a(S'p1_ll'
I1
tp306
a(S'w'
I2200
tp307
a(S'p1_tl'
I12
tp308
a(S'w'
I1
tp309
a(S'p1_ll'
I1
tp310
a(S'w'
I1465
tp311
a(S'p1_tl'
I253
tp312
a(S'p1_ll'
I1
tp313
a(S'p1_th'
I0
tp314
a(S'w'
I2202
tp315
a(S'p1_tl'
I239
tp316
a(S'p1_ll'
I1
tp317
a(S'w'
I1466
tp318
a(S'tr_tl'
I63
tp319
a(S'tr_ll'
I1
tp320
a(S'tr_th'
I1
tp321
a(S'w'
I4
tp322
a(S'p1_tl'
I225
tp323
a(S'p1_ll'
I1
tp324
a(S'w'
I5866
tp325
a(S'tr_tl'
I12
tp326
a(S'tr_ll'
I1
tp327
a(S'w'
I5137
tp328
a(S'tr_tl'
I225
tp329
a(S'tr_ll'
I1
tp330
a(S'tr_th'
I0
tp331
a(S'w'
I11008
tp332
a(S'p1_lh'
I0
tp333
a(S'p1_cv'
I0
tp334
a(S'w'
I11006
tp335
a(S'tr_tl'
I189
tp336
a(S'tr_ll'
I1
tp337
a(S'w'
I3673
tp338
a(S'p1_lh'
I1
tp339
a(S'p1_cv'
I1
tp340
a(S'w'
I3
tp341
a(S'p1_tl'
I45
tp342
a(S'p1_ll'
I1
tp343
a(S'p1_th'
I1
tp344
a(S'w'
I2197
tp345
a(S'p1_tl'
I28
tp346
a(S'w'
I1
tp347
a(S'p1_ll'
I1
tp348
a(S'w'
I1465
tp349
a(S'p1_tl'
I12
tp350
a(S'w'
I1
tp351
a(S'p1_ll'
I1
tp352
a(S'w'
I2201
tp353
a(S'p1_tl'
I253
tp354
a(S'p1_ll'
I1
tp355
a(S'p1_th'
I0
tp356
a(S'w'
I1466
tp357
a(S'tr_tl'
I28
tp358
a(S'tr_ll'
I1
tp359
a(S'tr_th'
I1
tp360
a(S'w'
I4
tp361
a(S'p1_tl'
I239
tp362
a(S'p1_ll'
I1
tp363
a(S'w'
I5866
tp364
a(S'tr_tl'
I239
tp365
a(S'tr_ll'
I1
tp366
a(S'tr_th'
I0
tp367
a(S'w'
I5137
tp368
a(S'tr_tl'
I201
tp369
a(S'tr_ll'
I1
tp370
a(S'w'
I11008
tp371
a(S'p1_lh'
I0
tp372
a(S'p1_cv'
I0
tp373
a(S'w'
I11006
tp374
a(S'tr_tl'
I169
tp375
a(S'tr_ll'
I1
tp376
a(S'w'
I3672
tp377
a(S'p1_lh'
I1
tp378
a(S'p1_cv'
I1
tp379
a(S'w'
I2
tp380
a(S'p1_tl'
I63
tp381
a(S'p1_ll'
I1
tp382
a(S'p1_th'
I1
tp383
a(S'w'
I2199
tp384
a(S'p1_tl'
I45
tp385
a(S'w'
I1
tp386
a(S'p1_ll'
I1
tp387
a(S'w'
I1465
tp388
a(S'p1_tl'
I28
tp389
a(S'w'
I1
tp390
a(S'p1_ll'
I1
tp391
a(S'w'
I2201
tp392
a(S'p1_tl'
I12
tp393
a(S'p1_ll'
I1
tp394
a(S'w'
I1466
tp395
a(S'tr_tl'
I103
tp396
a(S'tr_ll'
I1
tp397
a(S'tr_th'
I1
tp398
a(S'w'
I4
tp399
a(S'p1_tl'
I253
tp400
a(S'w'
I1
tp401
a(S'p1_ll'
I1
tp402
a(S'p1_th'
I0
tp403
a(S'w'
I5865
tp404
a(S'tr_tl'
I45
tp405
a(S'w'
I1
tp406
a(S'tr_ll'
I1
tp407
a(S'w'
I5136
tp408
a(S'tr_tl'
I253
tp409
a(S'tr_ll'
I1
tp410
a(S'tr_th'
I0
tp411
a(S'w'
I11008
tp412
a(S'p1_lh'
I0
tp413
a(S'p1_cv'
I0
tp414
a(S'w'
I11006
tp415
a(S'tr_tl'
I213
tp416
a(S'tr_ll'
I1
tp417
a(S'w'
I3670
tp418
a(S'p1_lh'
I1
tp419
a(S'p1_cv'
I1
tp420
a(S'w'
I3
tp421
a(S'p1_tl'
I12
tp422
a(S'p1_ll'
I1
tp423
a(S'p1_th'
I1
tp424
a(S'w'
I2201
tp425
a(S'p1_tl'
I253
tp426
a(S'p1_ll'
I1
tp427
a(S'p1_th'
I0
tp428
a(S'w'
I1465
tp429
a(S'p1_tl'
I239
tp430
a(S'w'
I1
tp431
a(S'p1_ll'
I1
tp432
a(S'w'
I2201
tp433
a(S'p1_tl'
I225
tp434
a(S'p1_ll'
I1
tp435
a(S'w'
I1466
tp436
a(S'tr_tl'
I253
tp437
a(S'tr_ll'
I1
tp438
a(S'w'
I4
tp439
a(S'p1_tl'
I213
tp440
a(S'w'
I1
tp441
a(S'p1_ll'
I1
tp442
a(S'w'
I5865
tp443
a(S'tr_tl'
I213
tp444
a(S'w'
I1
tp445
a(S'tr_ll'
I1
tp446
a(S'w'
I5136
tp447
a(S'tr_tl'
I179
tp448
a(S'tr_ll'
I1
tp449
a(S'w'
I11008
tp450
a(S'p1_lh'
I0
tp451
a(S'p1_cv'
I0
tp452
a(S'w'
I11006
tp453
a(S'tr_tl'
I142
tp454
a(S'tr_ll'
I1
tp455
a(S'w'
I3674
tp456
a(S'p1_lh'
I1
tp457
a(S'p1_cv'
I1
tp458
a(S'w'
I2
tp459
a(S'p1_tl'
I45
tp460
a(S'p1_ll'
I1
tp461
a(S'p1_th'
I1
tp462
a(S'w'
I2198
tp463
a(S'p1_tl'
I28
tp464
a(S'p1_ll'
I1
tp465
a(S'w'
I1466
tp466
a(S'p1_tl'
I12
tp467
a(S'p1_ll'
I1
tp468
a(S'w'
I2201
tp469
a(S'p1_tl'
I253
tp470
a(S'p1_ll'
I1
tp471
a(S'p1_th'
I0
tp472
a(S'w'
I1466
tp473
a(S'tr_tl'
I103
tp474
a(S'tr_ll'
I1
tp475
a(S'tr_th'
I1
tp476
a(S'w'
I4
tp477
a(S'p1_tl'
I239
tp478
a(S'w'
I1
tp479
a(S'p1_ll'
I1
tp480
a(S'w'
I5866
tp481
a(S'tr_tl'
I28
tp482
a(S'tr_ll'
I1
tp483
a(S'w'
I5136
tp484
a(S'tr_tl'
I201
tp485
a(S'tr_ll'
I1
tp486
a(S'tr_th'
I0
tp487
a(S'w'
I11009
tp488
a(S'p1_lh'
I0
tp489
a(S'p1_cv'
I0
tp490
a(S'w'
I11005
tp491
a(S'tr_tl'
I169
tp492
a(S'tr_ll'
I1
tp493
a(S'w'
I3675
tp494
a(S'p1_lh'
I1
tp495
a(S'p1_cv'
I1
tp496
a(S'w'
I2
tp497
a(S'p1_tl'
I45
tp498
a(S'w'
I1
tp499
a(S'p1_ll'
I1
tp500
a(S'p1_th'
I1
tp501
a(S'w'
I2196
tp502
a(S'p1_tl'
I28
tp503
a(S'p1_ll'
I1
tp504
a(S'w'
I1466
tp505
a(S'p1_tl'
I12
tp506
a(S'p1_ll'
I1
tp507
a(S'w'
I2201
tp508
a(S'p1_tl'
I253
tp509
a(S'p1_ll'
I1
tp510
a(S'p1_th'
I0
tp511
a(S'w'
I1466
tp512
a(S'tr_tl'
I45
tp513
a(S'tr_ll'
I1
tp514
a(S'tr_th'
I1
tp515
a(S'w'
I5
tp516
a(S'p1_tl'
I239
tp517
a(S'p1_ll'
I1
tp518
a(S'w'
I5866
tp519
a(S'tr_tl'
I239
tp520
a(S'tr_ll'
I1
tp521
a(S'tr_th'
I0
tp522
a(S'w'
I5136
tp523
a(S'tr_tl'
I189
tp524
a(S'tr_ll'
I1
tp525
a(S'w'
I11009
tp526
a(S'p1_lh'
I0
tp527
a(S'p1_cv'
I0
tp528
a(S'w'
I11005
tp529
a(S'tr_tl'
I150
tp530
a(S'tr_ll'
I1
tp531
a(S'w'
I3672
tp532
a(S'p1_lh'
I1
tp533
a(S'p1_cv'
I1
tp534
a(S'w'
I3
tp535
a(S'p1_tl'
I63
tp536
a(S'p1_ll'
I1
tp537
a(S'p1_th'
I1
tp538
a(S'w'
I2199
tp539
a(S'p1_tl'
I45
tp540
a(S'p1_ll'
I1
tp541
a(S'w'
I1466
tp542
a(S'p1_tl'
I28
tp543
a(S'p1_ll'
I1
tp544
a(S'w'
I2201
tp545
a(S'p1_tl'
I12
tp546
a(S'p1_ll'
I1
tp547
a(S'w'
I1466
tp548
a(S'tr_tl'
I124
tp549
a(S'w'
I1
tp550
a(S'tr_ll'
I1
tp551
a(S'tr_th'
I1
tp552
a(S'w'
I4
tp553
a(S'p1_tl'
I253
tp554
a(S'p1_ll'
I1
tp555
a(S'p1_th'
I0
tp556
a(S'w'
I5866
tp557
a(S'tr_tl'
I45
tp558
a(S'tr_ll'
I1
tp559
a(S'w'
I5136
tp560
a(S'tr_tl'
I253
tp561
a(S'w'
I1
tp562
a(S'tr_ll'
I1
tp563
a(S'tr_th'
I0
tp564
a(S'w'
I11008
tp565
a(S'p1_lh'
I0
tp566
a(S'p1_cv'
I0
tp567
a(S'w'
I11005
tp568
a(S'tr_tl'
I189
tp569
a(S'w'
I1
tp570
a(S'tr_ll'
I1
tp571
a(S'w'
I3670
tp572
a(S'p1_lh'
I1
tp573
a(S'p1_cv'
I1
tp574
a(S'w'
I2
tp575
a(S'p1_tl'
I103
tp576
a(S'p1_ll'
I1
tp577
a(S'p1_th'
I1
tp578
a(S'w'
I2201
tp579
a(S'p1_tl'
I82
tp580
a(S'p1_ll'
I1
tp581
a(S'w'
I1466
tp582
a(S'p1_tl'
I63
tp583
a(S'p1_ll'
I1
tp584
a(S'w'
I2201
tp585
a(S'p1_tl'
I45
tp586
a(S'p1_ll'
I1
tp587
a(S'w'
I1466
tp588
a(S'tr_tl'
I28
tp589
a(S'w'
I1
tp590
a(S'tr_ll'
I1
tp591
a(S'tr_th'
I1
tp592
a(S'w'
I4
tp593
a(S'p1_tl'
I28
tp594
a(S'p1_ll'
I1
tp595
a(S'w'
I5866
tp596
a(S'tr_tl'
I239
tp597
a(S'tr_ll'
I1
tp598
a(S'tr_th'
I0
tp599
a(S'w'
I5136
tp600
a(S'tr_tl'
I189
tp601
a(S'w'
I1
tp602
a(S'tr_ll'
I1
tp603
a(S'w'
I11008
tp604
a(S'p1_lh'
I0
tp605
a(S'p1_cv'
I0
tp606
a(S'w'
I11005
tp607
a(S'tr_tl'
I169
tp608
a(S'w'
I1
tp609
a(S'tr_ll'
I1
tp610
a(S'w'
I3670
tp611
a(S'p1_lh'
I1
tp612
a(S'p1_cv'
I1
tp613
a(S'w'
I2
tp614
a(S'p1_tl'
I201
tp615
a(S'p1_ll'
I1
tp616
a(S'p1_th'
I0
tp617
a(S'w'
I2201
tp618
a(S'p1_tl'
I189
tp619
a(S'p1_ll'
I1
tp620
a(S'w'
I1466
tp621
a(S'p1_tl'
I179
tp622
a(S'p1_ll'
I1
tp623
a(S'w'
I2201
tp624
a(S'p1_tl'
I169
tp625
a(S'w'
I1
tp626
a(S'p1_ll'
I1
tp627
a(S'w'
I1465
tp628
a(S'tr_tl'
I28
tp629
a(S'w'
I1
tp630
a(S'tr_ll'
I1
tp631
a(S'tr_th'
I1
tp632
a(S'w'
I4
tp633
a(S'p1_tl'
I159
tp634
a(S'p1_ll'
I1
tp635
a(S'w'
I5866
tp636
a(S'tr_tl'
I225
tp637
a(S'tr_ll'
I1
tp638
a(S'tr_th'
I0
tp639
a(S'w'
I5136
tp640
a(S'tr_tl'
I189
tp641
a(S'w'
I1
tp642
a(S'tr_ll'
I1
tp643
a(S'w'
I11008
tp644
a(S'p1_lh'
I0
tp645
a(S'p1_cv'
I0
tp646
a(S'w'
I11006
tp647
a(S'tr_tl'
I159
tp648
a(S'tr_ll'
I1
tp649
a(S'w'
I3670
tp650
a(S'p1_lh'
I1
tp651
a(S'p1_cv'
I1
tp652
a(S'w'
I2
tp653
a(S'p1_tl'
I213
tp654
a(S'p1_ll'
I1
tp655
a(S'w'
I2201
tp656
a(S'p1_tl'
I201
tp657
a(S'p1_ll'
I1
tp658
a(S'w'
I1466
tp659
a(S'p1_tl'
I189
tp660
a(S'p1_ll'
I1
tp661
a(S'w'
I2201
tp662
a(S'p1_tl'
I179
tp663
a(S'w'
I1
tp664
a(S'p1_ll'
I1
tp665
a(S'w'
I1466
tp666
a(S'tr_tl'
I171
tp667
a(S'tr_ll'
I1
tp668
a(S'tr_th'
I1
tp669
a(S'w'
I4
tp670
a(S'p1_tl'
I169
tp671
a(S'p1_ll'
I1
tp672
a(S'w'
I5866
tp673
a(S'tr_tl'
I28
tp674
a(S'tr_ll'
I1
tp675
a(S'w'
I5137
tp676
a(S'tr_tl'
I239
tp677
a(S'tr_ll'
I1
tp678
a(S'tr_th'
I0
tp679
a(S'w'
I11008
tp680
a(S'p1_lh'
I0
tp681
a(S'p1_cv'
I0
tp682
a(S'w'
I11006
tp683
a(S'tr_tl'
I201
tp684
a(S'tr_ll'
I1
tp685
a(S'w'
I3670
tp686
a(S'p1_lh'
I1
tp687
a(S'p1_cv'
I1
tp688
a(S'w'
I2
tp689
a(S'p1_tl'
I225
tp690
a(S'p1_ll'
I1
tp691
a(S'w'
I2201
tp692
a(S'p1_tl'
I213
tp693
a(S'p1_ll'
I1
tp694
a(S'w'
I1466
tp695
a(S'p1_tl'
I201
tp696
a(S'p1_ll'
I1
tp697
a(S'w'
I2201
tp698
a(S'p1_tl'
I189
tp699
a(S'w'
I1
tp700
a(S'p1_ll'
I1
tp701
a(S'w'
I1466
tp702
a(S'tr_tl'
I63
tp703
a(S'tr_ll'
I1
tp704
a(S'tr_th'
I1
tp705
a(S'w'
I4
tp706
a(S'p1_tl'
I179
tp707
a(S'p1_ll'
I1
tp708
a(S'w'
I5866
tp709
a(S'tr_tl'
I45
tp710
a(S'tr_ll'
I1
tp711
a(S'w'
I5137
tp712
a(S'tr_tl'
I253
tp713
a(S'tr_ll'
I1
tp714
a(S'tr_th'
I0
tp715
a(S'w'
I11008
tp716
a(S'p1_lh'
I0
tp717
a(S'p1_cv'
I0
tp718
a(S'w'
I11006
tp719
a(S'tr_tl'
I213
tp720
a(S'tr_ll'
I1
tp721
a(S'w'
I3670
tp722
a(S'p1_lh'
I1
tp723
a(S'p1_cv'
I1
tp724
a(S'w'
I2
tp725
a(S'p1_tl'
I225
tp726
a(S'w'
I1
tp727
a(S'p1_ll'
I1
tp728
a(S'w'
I2200
tp729
a(S'p1_tl'
I213
tp730
a(S'w'
I1
tp731
a(S'p1_ll'
I1
tp732
a(S'w'
I1465
tp733
a(S'p1_tl'
I201
tp734
a(S'p1_ll'
I1
tp735
a(S'w'
I2202
tp736
a(S'p1_tl'
I189
tp737
a(S'p1_ll'
I1
tp738
a(S'w'
I1466
tp739
a(S'tr_tl'
I223
tp740
a(S'tr_ll'
I1
tp741
a(S'tr_th'
I1
tp742
a(S'w'
I4
tp743
a(S'p1_tl'
I179
tp744
a(S'p1_ll'
I1
tp745
a(S'w'
I5866
tp746
a(S'tr_tl'
I63
tp747
a(S'tr_ll'
I1
tp748
a(S'w'
I5137
tp749
a(S'tr_tl'
I12
tp750
a(S'tr_ll'
I1
tp751
a(S'w'
I11008
tp752
a(S'p1_lh'
I0
tp753
a(S'p1_cv'
I0
tp754
a(S'w'
I11006
tp755
a(S'tr_tl'
I179
tp756
a(S'tr_ll'
I1
tp757
a(S'tr_th'
I0
tp758
a(S'w'
I3670
tp759
a(S'p1_lh'
I1
tp760
a(S'p1_cv'
I1
tp761
a(S'w'
I2
tp762
a(S'p1_tl'
I239
tp763
a(S'w'
I1
tp764
a(S'p1_ll'
I1
tp765
a(S'w'
I2200
tp766
a(S'p1_tl'
I225
tp767
a(S'w'
I1
tp768
a(S'p1_ll'
I1
tp769
a(S'w'
I1465
tp770
a(S'p1_tl'
I213
tp771
a(S'w'
I1
tp772
a(S'p1_ll'
I1
tp773
a(S'w'
I2201
tp774
a(S'p1_tl'
I201
tp775
a(S'p1_ll'
I1
tp776
a(S'w'
I1466
tp777
a(S'tr_tl'
I223
tp778
a(S'tr_ll'
I1
tp779
a(S'tr_th'
I1
tp780
a(S'w'
I4
tp781
a(S'p1_tl'
I189
tp782
a(S'p1_ll'
I1
tp783
a(S'w'
I5866
tp784
a(S'tr_tl'
I63
tp785
a(S'tr_ll'
I1
tp786
a(S'w'
I5137
tp787
a(S'tr_tl'
I12
tp788
a(S'tr_ll'
I1
tp789
a(S'w'
I11008
tp790
a(S'p1_lh'
I0
tp791
a(S'p1_cv'
I0
tp792
a(S'w'
I11006
tp793
a(S'tr_tl'
I189
tp794
a(S'tr_ll'
I1
tp795
a(S'tr_th'
I0
tp796
a(S'w'
I3670
tp797
a(S'p1_lh'
I1
tp798
a(S'p1_cv'
I1
tp799
a(S'w'
I3
tp800
a(S'p1_tl'
I253
tp801
a(S'p1_ll'
I1
tp802
a(S'w'
I2200
tp803
a(S'p1_tl'
I239
tp804
a(S'w'
I1
tp805
a(S'p1_ll'
I1
tp806
a(S'w'
I1465
tp807
a(S'p1_tl'
I225
tp808
a(S'w'
I1
tp809
a(S'p1_ll'
I1
tp810
a(S'w'
I2201
tp811
a(S'p1_tl'
I213
tp812
a(S'p1_ll'
I1
tp813
a(S'w'
I1466
tp814
a(S'tr_tl'
I251
tp815
a(S'tr_ll'
I1
tp816
a(S'tr_th'
I1
tp817
a(S'w'
I4
tp818
a(S'p1_tl'
I201
tp819
a(S'p1_ll'
I1
tp820
a(S'w'
I5866
tp821
a(S'tr_tl'
I82
tp822
a(S'w'
I1
tp823
a(S'tr_ll'
I1
tp824
a(S'w'
I5136
tp825
a(S'tr_tl'
I28
tp826
a(S'tr_ll'
I1
tp827
a(S'w'
I11008
tp828
a(S'p1_lh'
I0
tp829
a(S'p1_cv'
I0
tp830
a(S'w'
I11006
tp831
a(S'tr_tl'
I239
tp832
a(S'tr_ll'
I1
tp833
a(S'tr_th'
I0
tp834
a(S'w'
I3670
tp835
a(S'p1_lh'
I1
tp836
a(S'p1_cv'
I1
tp837
a(S'w'
I3
tp838
a(S'p1_tl'
I239
tp839
a(S'p1_ll'
I1
tp840
a(S'w'
I2201
tp841
a(S'p1_tl'
I225
tp842
a(S'p1_ll'
I1
tp843
a(S'w'
I1466
tp844
a(S'p1_tl'
I213
tp845
a(S'p1_ll'
I1
tp846
a(S'w'
I2201
tp847
a(S'p1_tl'
I201
tp848
a(S'p1_ll'
I1
tp849
a(S'w'
I1466
tp850
a(S'tr_tl'
I124
tp851
a(S'tr_ll'
I1
tp852
a(S'tr_th'
I1
tp853
a(S'w'
I4
tp854
a(S'p1_tl'
I189
tp855
a(S'w'
I1
tp856
a(S'p1_ll'
I1
tp857
a(S'w'
I5865
tp858
a(S'tr_tl'
I45
tp859
a(S'w'
I1
tp860
a(S'tr_ll'
I1
tp861
a(S'w'
I5136
tp862
a(S'tr_tl'
I253
tp863
a(S'tr_ll'
I1
tp864
a(S'tr_th'
I0
tp865
a(S'w'
I11008
tp866
a(S'p1_lh'
I0
tp867
a(S'p1_cv'
I0
tp868
a(S'w'
I11006
tp869
a(S'tr_tl'
I189
tp870
a(S'tr_ll'
I1
tp871
a(S'w'
I3671
tp872
a(S'p1_tl'
I179
tp873
a(S'p1_ll'
I1
tp874
a(S'w'
I2203
tp875
a(S'p1_tl'
I169
tp876
a(S'p1_ll'
I1
tp877
a(S'w'
I1466
tp878
a(S'p1_tl'
I159
tp879
a(S'p1_ll'
I1
tp880
a(S'w'
I2201
tp881
a(S'p1_tl'
I150
tp882
a(S'p1_ll'
I1
tp883
a(S'w'
I1468
tp884
a(S'tr_tl'
I119
tp885
a(S'w'
I1
tp886
a(S'tr_ll'
I1
tp887
a(S'w'
I6
tp888
a(S'p1_tl'
I142
tp889
a(S'p1_ll'
I1
tp890
a(S'w'
I7329
tp891
a(S'tr_tl'
I142
tp892
a(S'tr_ll'
I1
tp893
a(S'w'
I4
tp894
a(S'p1_tl'
I189
tp895
a(S'w'
I1
tp896
a(S'p1_ll'
I1
tp897
a(S'w'
I7333
tp898
a(S'tr_tl'
I119
tp899
a(S'tr_ll'
I1
tp900
a(S'w'
I4
tp901
a(S'p1_tl'
I142
tp902
a(S'w'
I1
tp903
a(S'p1_ll'
I1
tp904
a(S'w'
I7333
tp905
a(S'tr_tl'
I126
tp906
a(S'tr_ll'
I1
tp907
a(S'w'
I4
tp908
a(S'p1_tl'
I150
tp909
a(S'w'
I1
tp910
a(S'p1_ll'
I1
tp911
a(S'w'
I7333
tp912
a(S'tr_tl'
I150
tp913
a(S'tr_ll'
I1
tp914
a(S'w'
I4
tp915
a(S'p1_tl'
I179
tp916
a(S'w'
I1
tp917
a(S'p1_ll'
I1
tp918
a(S'w'
I7333
tp919
a(S'tr_tl'
I126
tp920
a(S'tr_ll'
I1
tp921
a(S'w'
I4
tp922
a(S'p1_tl'
I150
tp923
a(S'w'
I1
tp924
a(S'p1_ll'
I1
tp925
a(S'w'
I7333
tp926
a(S'tr_tl'
I134
tp927
a(S'tr_ll'
I1
tp928
a(S'w'
I4
tp929
a(S'p1_tl'
I159
tp930
a(S'w'
I1
tp931
a(S'p1_ll'
I1
tp932
a(S'w'
I7333
tp933
a(S'tr_tl'
I159
tp934
a(S'tr_ll'
I1
tp935
a(S'w'
I5
tp936
a(S'p1_tl'
I189
tp937
a(S'p1_ll'
I1
tp938
a(S'w'
I7333
tp939
a(S'tr_tl'
I134
tp940
a(S'tr_ll'
I1
tp941
a(S'w'
I5
tp942
a(S'p1_tl'
I159
tp943
a(S'p1_ll'
I1
tp944
a(S'w'
I7333
tp945
a(S'tr_tl'
I142
tp946
a(S'tr_ll'
I1
tp947
a(S'w'
I5
tp948
a(S'p1_tl'
I169
tp949
a(S'p1_ll'
I1
tp950
a(S'w'
I7333
tp951
a(S'tr_tl'
I169
tp952
a(S'tr_ll'
I1
tp953
a(S'w'
I5
tp954
a(S'p1_tl'
I201
tp955
a(S'p1_ll'
I1
tp956
a(S'w'
I7333
tp957
a(S'tr_tl'
I142
tp958
a(S'tr_ll'
I1
tp959
a(S'w'
I5
tp960
a(S'p1_tl'
I169
tp961
a(S'p1_ll'
I1
tp962
a(S'w'
I7333
tp963
a(S'tr_tl'
I150
tp964
a(S'tr_ll'
I1
tp965
a(S'w'
I5
tp966
a(S'p1_tl'
I179
tp967
a(S'p1_ll'
I1
tp968
a(S'w'
I7333
tp969
a(S'tr_tl'
I126
tp970
a(S'w'
I1
tp971
a(S'tr_ll'
I1
tp972
a(S'w'
I4
tp973
a(S'p1_tl'
I213
tp974
a(S'p1_ll'
I1
tp975
a(S'w'
I7333
tp976
a(S'tr_tl'
I150
tp977
a(S'w'
I1
tp978
a(S'tr_ll'
I1
tp979
a(S'w'
I4
tp980
a(S'p1_tl'
I253
tp981
a(S'p1_ll'
I1
tp982
a(S'w'
I7333
tp983
a(S'tr_tl'
I179
tp984
a(S'w'
I1
tp985
a(S'tr_ll'
I1
tp986
a(S'w'
I4
tp987
a(S'p1_tl'
I45
tp988
a(S'p1_ll'
I1
tp989
a(S'p1_th'
I1
tp990
a(S'w'
I7333
tp991
a(S'tr_tl'
I213
tp992
a(S'w'
I1
tp993
a(S'tr_ll'
I1
tp994
a(S'w'
I4
tp995
a(S'p1_tl'
I103
tp996
a(S'p1_ll'
I1
tp997
a(S'w'
I7333
tp998
a(S'tr_tl'
I253
tp999
a(S'w'
I1
tp1000
a(S'tr_ll'
I1
tp1001
a(S'w'
I4
tp1002
a(S'p1_tl'
I171
tp1003
a(S'p1_ll'
I1
tp1004
a(S'w'
I7333
tp1005
a(S'tr_tl'
I239
tp1006
a(S'w'
I1
tp1007
a(S'tr_ll'
I1
tp1008
a(S'w'
I4
tp1009
a(S'p1_tl'
I147
tp1010
a(S'p1_ll'
I1
tp1011
a(S'w'
I7333
tp1012
a(S'tr_tl'
I147
tp1013
a(S'w'
I1
tp1014
a(S'tr_ll'
I1
tp1015
a(S'tr_th'
I1
tp1016
a(S'w'
I4
tp1017
a(S'p1_tl'
I166
tp1018
a(S'p1_ll'
I1
tp1019
a(S'p1_th'
I2
tp1020
a(S'w'
I7333
tp1021
a(S'tr_tl'
I82
tp1022
a(S'w'
I1
tp1023
a(S'tr_ll'
I1
tp1024
a(S'w'
I4
tp1025
a(S'p1_tl'
I58
tp1026
a(S'p1_ll'
I1
tp1027
a(S'w'
I7333
tp1028
a(S'tr_tl'
I28
tp1029
a(S'w'
I1
tp1030
a(S'tr_ll'
I1
tp1031
a(S'w'
I4
tp1032
a(S'p1_tl'
I223
tp1033
a(S'p1_ll'
I1
tp1034
a(S'p1_th'
I1
tp1035
a(S'w'
I7333
tp1036
a(S'tr_tl'
I239
tp1037
a(S'w'
I1
tp1038
a(S'tr_ll'
I1
tp1039
a(S'tr_th'
I0
tp1040
a(S'w'
I4
tp1041
a(S'p1_tl'
I147
tp1042
a(S'p1_ll'
I1
tp1043
a(S'w'
I7333
tp1044
a(S'tr_tl'
I201
tp1045
a(S'w'
I1
tp1046
a(S'tr_ll'
I1
tp1047
a(S'w'
I4
tp1048
a(S'p1_tl'
I82
tp1049
a(S'p1_ll'
I1
tp1050
a(S'w'
I7339
tp1051
a.