(lp1
(S'clock'
p2
I1789772
tp3
a(S'p1_du'
I2
tp4
a(S'p1_lh'
I1
tp5
a(S'p1_cv'
I1
tp6
a(S'p1_vo'
I6
tp7
a(S'p1_sn'
I1
tp8
a(S'p1_tl'
I26
tp9
a(S'p1_ll'
I1
tp10
a(S'p1_th'
I2
tp11
a(S'p2_lh'
I1
tp12
a(S'p2_cv'
I1
tp13
a(S'p2_sn'
I1
tp14
a(S'p2_tl'
I31
tp15
a(S'p2_ll'
I1
tp16
a(S'tr_lh'
I1
tp17
a(S'tr_lr'
I127
tp18
a(S'tr_tl'
I169
tp19
a(S'tr_ll'
I1
tp20
a(S'no_lh'
I1
tp21
a(S'no_cv'
I1
tp22
a(S'no_np'
I12
tp23
a(S'no_ll'
I1
tp24
a(S'ch_no'
I1
tp25
a(S'ch_tr'
I1
tp26
a(S'ch_p2'
I1
tp27
a(S'ch_p1'
I1
tp28
a(S'fc_mo'
I0
tp29
a(S'tr_tl'
I225
tp30
a(S'w'
I1
tp31
a(S'tr_ll'
I1
tp32
a(S'w'
I12
tp33
a(S'p1_du'
I0
tp34
a(S'p1_vo'
I0
tp35
a(S'w'
I7318
tp36
a(S'p1_du'
I2
tp37
a(S'p1_vo'
I6
tp38
a(S'w'
I2
tp39
a(S'p1_tl'
I249
tp40
a(S'p1_ll'
I1
tp41
a(S'w'
I10295
tp42
a(S'p1_tl'
I128
tp43
a(S'p1_ll'
I1
tp44
a(S'w'
I8782
tp45
a(S'p1_tl'
I223
tp46
a(S'p1_ll'
I1
tp47
a(S'p1_th'
I1
tp48
a(S'w'
I8804
tp49
a(S'tr_tl'
I201
tp50
a(S'tr_ll'
I1
tp51
a(S'w'
I6
tp52
a(S'p1_du'
I0
tp53
a(S'p1_vo'
I0
tp54
a(S'w'
I7333
tp55
a(S'p1_du'
I2
tp56
a(S'p1_vo'
I6
tp57
a(S'w'
I2
tp58
a(S'p1_tl'
I249
tp59
a(S'w'
I1
tp60
a(S'p1_ll'
I1
tp61
a(S'p1_th'
I2
tp62
a(S'w'
I10270
tp63
a(S'p1_tl'
I128
tp64
a(S'w'
I1
tp65
a(S'p1_ll'
I1
tp66
a(S'w'
I8819
tp67
a(S'p1_tl'
I223
tp68
a(S'p1_ll'
I1
tp69
a(S'p1_th'
I1
tp70
a(S'w'
I8790
tp71
a(S'tr_tl'
I225
tp72
a(S'tr_ll'
I1
tp73
a(S'w'
I11
tp74
a(S'p1_du'
I0
tp75
a(S'p1_vo'
I0
tp76
a(S'w'
I7329
tp77
a(S'p1_du'
I2
tp78
a(S'p1_vo'
I6
tp79
a(S'w'
I2
tp80
a(S'p1_tl'
I249
tp81
a(S'p1_ll'
I1
tp82
a(S'p1_th'
I2
tp83
a(S'w'
I10271
tp84
a(S'p1_tl'
I128
tp85
a(S'p1_ll'
I1
tp86
a(S'w'
I8806
tp87
a(S'p1_tl'
I223
tp88
a(S'p1_ll'
I1
tp89
a(S'p1_th'
I1
tp90
a(S'w'
I8804
tp91
a(S'tr_tl'
I201
tp92
a(S'tr_ll'
I1
tp93
a(S'w'
I5
tp94
a(S'p1_du'
I0
tp95
a(S'p1_vo'
I0
tp96
a(S'w'
I7334
tp97
a(S'p1_du'
I2
tp98
a(S'p1_vo'
I6
tp99
a(S'w'
I2
tp100
a(S'p1_tl'
I249
tp101
a(S'p1_ll'
I1
tp102
a(S'p1_th'
I2
tp103
a(S'w'
I10271
tp104
a(S'p1_tl'
I128
tp105
a(S'w'
I1
tp106
a(S'p1_ll'
I1
tp107
a(S'w'
I8805
tp108
a(S'p1_tl'
I223
tp109
a(S'p1_ll'
I1
tp110
a(S'p1_th'
I1
tp111
a(S'w'
I8804
tp112
a(S'tr_tl'
I169
tp113
a(S'tr_ll'
I1
tp114
a(S'w'
I10
tp115
a(S'p1_du'
I0
tp116
a(S'p1_vo'
I0
tp117
a(S'w'
I7330
tp118
a(S'p1_du'
I2
tp119
a(S'p1_vo'
I6
tp120
a(S'w'
I2
tp121
a(S'p1_tl'
I249
tp122
a(S'p1_ll'
I1
tp123
a(S'p1_th'
I2
tp124
a(S'w'
I10271
tp125
a(S'p1_tl'
I128
tp126
a(S'p1_ll'
I1
tp127
a(S'w'
I8805
tp128
a(S'p1_tl'
I223
tp129
a(S'w'
I1
tp130
a(S'p1_ll'
I1
tp131
a(S'p1_th'
I1
tp132
a(S'w'
I8804
tp133
a(S'tr_tl'
I201
tp134
a(S'tr_ll'
I1
tp135
a(S'w'
I5
tp136
a(S'p1_du'
I0
tp137
a(S'p1_vo'
I0
tp138
a(S'w'
I7334
tp139
a(S'p1_du'
I2
tp140
a(S'p1_vo'
I6
tp141
a(S'w'
I2
tp142
a(S'p1_tl'
I249
tp143
a(S'p1_ll'
I1
tp144
a(S'p1_th'
I2
tp145
a(S'w'
I10271
tp146
a(S'p1_tl'
I128
tp147
a(S'w'
I1
tp148
a(S'p1_ll'
I1
tp149
a(S'w'
I8805
tp150
a(S'p1_tl'
I223
tp151
a(S'p1_ll'
I1
tp152
a(S'p1_th'
I1
tp153
a(S'w'
I8804
tp154
a(S'tr_tl'
I225
tp155
a(S'tr_ll'
I1
tp156
a(S'w'
I10
tp157
a(S'p1_du'
I0
tp158
a(S'p1_vo'
I0
tp159
a(S'w'
I7329
tp160
a(S'p1_du'
I2
tp161
a(S'p1_vo'
I6
tp162
a(S'w'
I3
tp163
a(S'p1_tl'
I249
tp164
a(S'p1_ll'
I1
tp165
a(S'p1_th'
I2
tp166
a(S'w'
I10271
tp167
a(S'p1_tl'
I128
tp168
a(S'p1_ll'
I1
tp169
a(S'w'
I8805
tp170
a(S'p1_tl'
I223
tp171
a(S'w'
I1
tp172
a(S'p1_ll'
I1
tp173
a(S'p1_th'
I1
tp174
a(S'w'
I8803
tp175
a(S'tr_tl'
I201
tp176
a(S'w'
I1
tp177
a(S'tr_ll'
I1
tp178
a(S'w'
I5
tp179
a(S'p1_du'
I0
tp180
a(S'p1_vo'
I0
tp181
a(S'w'
I7333
tp182
a(S'p1_du'
I2
tp183
a(S'p1_vo'
I6
tp184
a(S'w'
I3
tp185
a(S'p1_tl'
I249
tp186
a(S'p1_ll'
I1
tp187
a(S'p1_th'
I2
tp188
a(S'w'
I10270
tp189
a(S'tr_tl'
I225
tp190
a(S'tr_ll'
I1
tp191
a(S'w'
I6
tp192
a(S'p1_tl'
I128
tp193
a(S'p1_ll'
I1
tp194
a(S'w'
I8801
tp195
a(S'p1_tl'
I223
tp196
a(S'p1_ll'
I1
tp197
a(S'p1_th'
I1
tp198
a(S'w'
I8804
tp199
a(S'tr_tl'
I239
tp200
a(S'tr_ll'
I1
tp201
a(S'w'
I10
tp202
a(S'p1_du'
I0
tp203
a(S'p1_vo'
I0
tp204
a(S'w'
I7329
tp205
a(S'p1_du'
I2
tp206
a(S'p1_vo'
I6
tp207
a(S'w'
I3
tp208
a(S'p1_tl'
I38
tp209
a(S'p1_ll'
I1
tp210
a(S'p1_th'
I3
tp211
a(S'w'
I10271
tp212
a(S'p1_tl'
I166
tp213
a(S'p1_ll'
I1
tp214
a(S'p1_th'
I2
tp215
a(S'w'
I8805
tp216
a(S'p1_tl'
I58
tp217
a(S'w'
I1
tp218
a(S'p1_ll'
I1
tp219
a(S'w'
I8803
tp220
a(S'tr_tl'
I12
tp221
a(S'w'
I1
tp222
a(S'tr_ll'
I1
tp223
a(S'tr_th'
I1
tp224
a(S'w'
I10
tp225
a(S'p1_du'
I0
tp226
a(S'p1_vo'
I0
tp227
a(S'w'
I7329
tp228
a(S'p1_du'
I2
tp229
a(S'p1_vo'
I6
tp230
a(S'w'
I2
tp231
a(S'p1_tl'
I38
tp232
a(S'p1_ll'
I1
tp233
a(S'p1_th'
I3
tp234
a(S'w'
I10270
tp235
a(S'tr_tl'
I239
tp236
a(S'tr_ll'
I1
tp237
a(S'tr_th'
I0
tp238
a(S'w'
I6
tp239
a(S'p1_tl'
I166
tp240
a(S'p1_ll'
I1
tp241
a(S'p1_th'
I2
tp242
a(S'w'
I8801
tp243
a(S'p1_tl'
I58
tp244
a(S'p1_ll'
I1
tp245
a(S'w'
I8804
tp246
a(S'tr_tl'
I201
tp247
a(S'tr_ll'
I1
tp248
a(S'w'
I10
tp249
a(S'p1_du'
I0
tp250
a(S'p1_vo'
I0
tp251
a(S'w'
I7329
tp252
a(S'p1_du'
I2
tp253
a(S'p1_vo'
I6
tp254
a(S'w'
I3
tp255
a(S'p1_tl'
I249
tp256
a(S'p1_ll'
I1
tp257
a(S'w'
I10269
tp258
a(S'tr_tl'
I225
tp259
a(S'tr_ll'
I1
tp260
a(S'w'
I6
tp261
a(S'p1_tl'
I128
tp262
a(S'p1_ll'
I1
tp263
a(S'w'
I8801
tp264
a(S'p1_tl'
I26
tp265
a(S'p1_ll'
I1
tp266
a(S'w'
I8804
tp267
a(S'tr_tl'
I239
tp268
a(S'w'
I1
tp269
a(S'tr_ll'
I1
tp270
a(S'w'
I10
tp271
a(S'p1_du'
I0
tp272
a(S'p1_vo'
I0
tp273
a(S'w'
I7329
tp274
a(S'p1_du'
I2
tp275
a(S'p1_vo'
I6
tp276
a(S'w'
I2
tp277
a(S'p1_tl'
I249
tp278
a(S'p1_ll'
I1
tp279
a(S'w'
I10270
tp280
a(S'tr_tl'
I12
tp281
a(S'tr_ll'
I1
tp282
a(S'tr_th'
I1
tp283
a(S'w'
I6
tp284
a(S'p1_tl'
I128
tp285
a(S'p1_ll'
I1
tp286
a(S'w'
I8801
tp287
a(S'p1_tl'
I26
tp288
a(S'p1_ll'
I1
tp289
a(S'w'
I8804
tp290
a(S'tr_tl'
I28
tp291
a(S'tr_ll'
I1
tp292
a(S'w'
I10
tp293
a(S'p1_du'
I0
tp294
a(S'p1_vo'
I0
tp295
a(S'w'
I7329
tp296
a(S'p1_du'
I2
tp297
a(S'p1_vo'
I6
tp298
a(S'w'
I3
tp299
a(S'p1_tl'
I52
tp300
a(S'p1_ll'
I1
tp301
a(S'p1_th'
I4
tp302
a(S'w'
I10271
tp303
a(S'p1_tl'
I137
tp304
a(S'p1_ll'
I1
tp305
a(S'p1_th'
I3
tp306
a(S'w'
I8819
tp307
a(S'p1_tl'
I206
tp308
a(S'p1_ll'
I1
tp309
a(S'p1_th'
I2
tp310
a(S'w'
I8790
tp311
a(S'tr_tl'
I63
tp312
a(S'w'
I1
tp313
a(S'tr_ll'
I1
tp314
a(S'w'
I10
tp315
a(S'p1_du'
I0
tp316
a(S'p1_vo'
I0
tp317
a(S'w'
I7329
tp318
a(S'p1_du'
I2
tp319
a(S'p1_vo'
I6
tp320
a(S'w'
I2
tp321
a(S'p1_tl'
I52
tp322
a(S'p1_ll'
I1
tp323
a(S'p1_th'
I4
tp324
a(S'w'
I10270
tp325
a(S'tr_tl'
I28
tp326
a(S'tr_ll'
I1
tp327
a(S'w'
I5
tp328
a(S'p1_tl'
I137
tp329
a(S'w'
I1
tp330
a(S'p1_ll'
I1
tp331
a(S'p1_th'
I3
tp332
a(S'w'
I8801
tp333
a(S'p1_tl'
I206
tp334
a(S'p1_ll'
I1
tp335
a(S'p1_th'
I2
tp336
a(S'w'
I8804
tp337
a(S'tr_tl'
I239
tp338
a(S'tr_ll'
I1
tp339
a(S'tr_th'
I0
tp340
a(S'w'
I10
tp341
a(S'p1_du'
I0
tp342
a(S'p1_vo'
I0
tp343
a(S'w'
I7329
tp344
a(S'p1_du'
I2
tp345
a(S'p1_vo'
I6
tp346
a(S'w'
I2
tp347
a(S'p1_tl'
I52
tp348
a(S'w'
I1
tp349
a(S'p1_ll'
I1
tp350
a(S'p1_th'
I4
tp351
a(S'w'
I10271
tp352
a(S'p1_tl'
I137
tp353
a(S'p1_ll'
I1
tp354
a(S'p1_th'
I3
tp355
a(S'w'
I8805
tp356
a(S'p1_tl'
I206
tp357
a(S'p1_ll'
I1
tp358
a(S'p1_th'
I2
tp359
a(S'w'
I8804
tp360
a(S'tr_tl'
I103
tp361
a(S'tr_ll'
I1
tp362
a(S'tr_th'
I1
tp363
a(S'w'
I11
tp364
a(S'p1_du'
I0
tp365
a(S'p1_vo'
I0
tp366
a(S'w'
I7329
tp367
a(S'p1_du'
I2
tp368
a(S'p1_vo'
I6
tp369
a(S'w'
I2
tp370
a(S'p1_tl'
I52
tp371
a(S'p1_ll'
I1
tp372
a(S'p1_th'
I4
tp373
a(S'w'
I10271
tp374
a(S'p1_tl'
I137
tp375
a(S'p1_ll'
I1
tp376
a(S'p1_th'
I3
tp377
a(S'w'
I8806
tp378
a(S'p1_tl'
I206
tp379
a(S'p1_ll'
I1
tp380
a(S'p1_th'
I2
tp381
a(S'w'
I8804
tp382
a(S'tr_lh'
I0
tp383
a(S'tr_lr'
I48
tp384
a(S'w'
I7
tp385
a(S'tr_tl'
I253
tp386
a(S'w'
I1
tp387
a(S'tr_ll'
I1
tp388
a(S'tr_th'
I0
tp389
a(S'w'
I11
tp390
a(S'p1_tl'
I38
tp391
a(S'p1_ll'
I1
tp392
a(S'p1_th'
I3
tp393
a(S'w'
I4384
tp394
a(S'tr_tl'
I28
tp395
a(S'tr_ll'
I1
tp396
a(S'tr_th'
I1
tp397
a(S'w'
I4
tp398
a(S'p1_tl'
I206
tp399
a(S'p1_ll'
I1
tp400
a(S'p1_th'
I2
tp401
a(S'w'
I4398
tp402
a(S'tr_tl'
I253
tp403
a(S'w'
I1
tp404
a(S'tr_ll'
I1
tp405
a(S'tr_th'
I0
tp406
a(S'w'
I4
tp407
a(S'p1_tl'
I38
tp408
a(S'p1_ll'
I1
tp409
a(S'p1_th'
I3
tp410
a(S'w'
I4398
tp411
a(S'tr_tl'
I28
tp412
a(S'tr_ll'
I1
tp413
a(S'tr_th'
I1
tp414
a(S'w'
I5
tp415
a(S'p1_tl'
I206
tp416
a(S'p1_ll'
I1
tp417
a(S'p1_th'
I2
tp418
a(S'w'
I4398
tp419
a(S'tr_tl'
I253
tp420
a(S'tr_ll'
I1
tp421
a(S'tr_th'
I0
tp422
a(S'w'
I4
tp423
a(S'p1_tl'
I38
tp424
a(S'w'
I1
tp425
a(S'p1_ll'
I1
tp426
a(S'p1_th'
I3
tp427
a(S'w'
I4398
tp428
a(S'tr_tl'
I28
tp429
a(S'tr_ll'
I1
tp430
a(S'tr_th'
I1
tp431
a(S'w'
I4
tp432
a(S'p1_tl'
I206
tp433
a(S'p1_ll'
I1
tp434
a(S'p1_th'
I2
tp435
a(S'w'
I4399
tp436
a(S'tr_tl'
I253
tp437
a(S'tr_ll'
I1
tp438
a(S'tr_th'
I0
tp439
a(S'w'
I4
tp440
a(S'p1_tl'
I38
tp441
a(S'p1_ll'
I1
tp442
a(S'p1_th'
I3
tp443
a(S'w'
I4398
tp444
a(S'tr_tl'
I28
tp445
a(S'w'
I1
tp446
a(S'tr_ll'
I1
tp447
a(S'tr_th'
I1
tp448
a(S'w'
I4
tp449
a(S'p1_tl'
I206
tp450
a(S'p1_ll'
I1
tp451
a(S'p1_th'
I2
tp452
a(S'w'
I4407
tp453
a(S'tr_tl'
I253
tp454
a(S'tr_ll'
I1
tp455
a(S'tr_th'
I0
tp456
a(S'w'
I12
tp457
a(S'p1_tl'
I38
tp458
a(S'w'
I1
tp459
a(S'p1_ll'
I1
tp460
a(S'p1_th'
I3
tp461
a(S'w'
I4381
tp462
a(S'tr_tl'
I28
tp463
a(S'tr_ll'
I1
tp464
a(S'tr_th'
I1
tp465
a(S'w'
I4
tp466
a(S'p1_tl'
I206
tp467
a(S'w'
I1
tp468
a(S'p1_ll'
I1
tp469
a(S'p1_th'
I2
tp470
a(S'w'
I4398
tp471
a(S'tr_tl'
I253
tp472
a(S'tr_ll'
I1
tp473
a(S'tr_th'
I0
tp474
a(S'w'
I4
tp475
a(S'p1_tl'
I38
tp476
a(S'p1_ll'
I1
tp477
a(S'p1_th'
I3
tp478
a(S'w'
I4399
tp479
a(S'tr_tl'
I28
tp480
a(S'tr_ll'
I1
tp481
a(S'tr_th'
I1
tp482
a(S'w'
I4
tp483
a(S'p1_tl'
I206
tp484
a(S'p1_ll'
I1
tp485
a(S'p1_th'
I2
tp486
a(S'w'
I4398
tp487
a(S'tr_tl'
I253
tp488
a(S'w'
I1
tp489
a(S'tr_ll'
I1
tp490
a(S'tr_th'
I0
tp491
a(S'w'
I4
tp492
a(S'p1_tl'
I38
tp493
a(S'p1_ll'
I1
tp494
a(S'p1_th'
I3
tp495
a(S'w'
I4398
tp496
a(S'tr_tl'
I28
tp497
a(S'tr_ll'
I1
tp498
a(S'tr_th'
I1
tp499
a(S'w'
I5
tp500
a(S'p1_tl'
I206
tp501
a(S'p1_ll'
I1
tp502
a(S'p1_th'
I2
tp503
a(S'w'
I4398
tp504
a(S'tr_tl'
I253
tp505
a(S'tr_ll'
I1
tp506
a(S'tr_th'
I0
tp507
a(S'w'
I4
tp508
a(S'p1_tl'
I38
tp509
a(S'w'
I1
tp510
a(S'p1_ll'
I1
tp511
a(S'p1_th'
I3
tp512
a(S'w'
I4398
tp513
a(S'tr_tl'
I28
tp514
a(S'tr_ll'
I1
tp515
a(S'tr_th'
I1
tp516
a(S'w'
I4
tp517
a(S'p1_tl'
I206
tp518
a(S'p1_ll'
I1
tp519
a(S'p1_th'
I2
tp520
a(S'w'
I4402
tp521
a(S'tr_tl'
I253
tp522
a(S'tr_ll'
I1
tp523
a(S'tr_th'
I0
tp524
a(S'w'
I9
tp525
a(S'p1_tl'
I38
tp526
a(S'p1_ll'
I1
tp527
a(S'p1_th'
I3
tp528
a(S'w'
I17600
tp529
a(S'p1_du'
I0
tp530
a(S'p1_vo'
I0
tp531
a(S'w'
I52838
tp532
a(S'tr_tl'
I12
tp533
a(S'tr_ll'
I1
tp534
a(S'tr_th'
I1
tp535
a(S'w'
I4
tp536
a(S'p1_du'
I2
tp537
a(S'p1_vo'
I6
tp538
a(S'w'
I8
tp539
a(S'p1_tl'
I86
tp540
a(S'p1_ll'
I1
tp541
a(S'w'
I4385
tp542
a(S'tr_tl'
I45
tp543
a(S'w'
I1
tp544
a(S'tr_ll'
I1
tp545
a(S'w'
I4
tp546
a(S'p1_tl'
I249
tp547
a(S'p1_ll'
I1
tp548
a(S'p1_th'
I2
tp549
a(S'w'
I4398
tp550
a(S'tr_tl'
I12
tp551
a(S'tr_ll'
I1
tp552
a(S'w'
I5
tp553
a(S'p1_tl'
I86
tp554
a(S'p1_ll'
I1
tp555
a(S'p1_th'
I3
tp556
a(S'w'
I4398
tp557
a(S'tr_tl'
I45
tp558
a(S'tr_ll'
I1
tp559
a(S'w'
I4
tp560
a(S'p1_tl'
I249
tp561
a(S'w'
I1
tp562
a(S'p1_ll'
I1
tp563
a(S'p1_th'
I2
tp564
a(S'w'
I4398
tp565
a(S'tr_tl'
I12
tp566
a(S'tr_ll'
I1
tp567
a(S'w'
I4
tp568
a(S'p1_tl'
I86
tp569
a(S'p1_ll'
I1
tp570
a(S'p1_th'
I3
tp571
a(S'w'
I4399
tp572
a(S'tr_tl'
I45
tp573
a(S'tr_ll'
I1
tp574
a(S'w'
I4
tp575
a(S'p1_tl'
I249
tp576
a(S'p1_ll'
I1
tp577
a(S'p1_th'
I2
tp578
a(S'w'
I4398
tp579
a(S'tr_tl'
I12
tp580
a(S'w'
I1
tp581
a(S'tr_ll'
I1
tp582
a(S'w'
I4
tp583
a(S'p1_tl'
I86
tp584
a(S'p1_ll'
I1
tp585
a(S'p1_th'
I3
tp586
a(S'w'
I4398
tp587
a(S'tr_tl'
I45
tp588
a(S'tr_ll'
I1
tp589
a(S'w'
I5
tp590
a(S'p1_tl'
I249
tp591
a(S'p1_ll'
I1
tp592
a(S'p1_th'
I2
tp593
a(S'w'
I4407
tp594
a(S'tr_tl'
I12
tp595
a(S'tr_ll'
I1
tp596
a(S'w'
I12
tp597
a(S'p1_tl'
I86
tp598
a(S'w'
I1
tp599
a(S'p1_ll'
I1
tp600
a(S'p1_th'
I3
tp601
a(S'w'
I4381
tp602
a(S'tr_tl'
I45
tp603
a(S'tr_ll'
I1
tp604
a(S'w'
I4
tp605
a(S'p1_tl'
I249
tp606
a(S'p1_ll'
I1
tp607
a(S'p1_th'
I2
tp608
a(S'w'
I4399
tp609
a(S'tr_tl'
I12
tp610
a(S'tr_ll'
I1
tp611
a(S'w'
I4
tp612
a(S'p1_tl'
I86
tp613
a(S'p1_ll'
I1
tp614
a(S'p1_th'
I3
tp615
a(S'w'
I4399
tp616
a(S'tr_tl'
I45
tp617
a(S'tr_ll'
I1
tp618
a(S'w'
I4
tp619
a(S'p1_tl'
I249
tp620
a(S'p1_ll'
I1
tp621
a(S'p1_th'
I2
tp622
a(S'w'
I4398
tp623
a(S'tr_tl'
I12
tp624
a(S'w'
I1
tp625
a(S'tr_ll'
I1
tp626
a(S'w'
I4
tp627
a(S'p1_tl'
I86
tp628
a(S'p1_ll'
I1
tp629
a(S'p1_th'
I3
tp630
a(S'w'
I4398
tp631
a(S'tr_tl'
I45
tp632
a(S'tr_ll'
I1
tp633
a(S'w'
I4
tp634
a(S'p1_tl'
I249
tp635
a(S'w'
I1
tp636
a(S'p1_ll'
I1
tp637
a(S'p1_th'
I2
tp638
a(S'w'
I4398
tp639
a(S'tr_tl'
I12
tp640
a(S'tr_ll'
I1
tp641
a(S'w'
I4
tp642
a(S'p1_tl'
I86
tp643
a(S'p1_ll'
I1
tp644
a(S'p1_th'
I3
tp645
a(S'w'
I4399
tp646
a(S'tr_tl'
I45
tp647
a(S'tr_ll'
I1
tp648
a(S'w'
I4
tp649
a(S'p1_tl'
I249
tp650
a(S'p1_ll'
I1
tp651
a(S'p1_th'
I2
tp652
a(S'w'
I4402
tp653
a(S'tr_tl'
I12
tp654
a(S'tr_ll'
I1
tp655
a(S'w'
I9
tp656
a(S'p1_tl'
I86
tp657
a(S'p1_ll'
I1
tp658
a(S'p1_th'
I3
tp659
a(S'w'
I17600
tp660
a(S'p1_du'
I0
tp661
a(S'p1_vo'
I0
tp662
a(S'w'
I52836
tp663
a(S'tr_lh'
I1
tp664
a(S'tr_lr'
I127
tp665
a(S'w'
I2
tp666
a(S'tr_tl'
I225
tp667
a(S'tr_ll'
I1
tp668
a(S'tr_th'
I0
tp669
a(S'w'
I7334
tp670
a.