(lp1
(S'clock'
p2
I1789772
tp3
a(S'p1_du'
I2
tp4
a(S'p1_lh'
I1
tp5
a(S'p1_cv'
I1
tp6
a(S'p1_vo'
I8
tp7
a(S'p1_sn'
I1
tp8
a(S'p1_tl'
I225
tp9
a(S'p1_ll'
I1
tp10
a(S'p2_lh'
I1
tp11
a(S'p2_cv'
I1
tp12
a(S'p2_vo'
I2
tp13
a(S'p2_sn'
I1
tp14
a(S'p2_tl'
I124
tp15
a(S'p2_ll'
I1
tp16
a(S'p2_th'
I1
tp17
a(S'tr_tl'
I58
tp18
a(S'tr_ll'
I1
tp19
a(S'tr_th'
I2
tp20
a(S'no_lh'
I1
tp21
a(S'no_cv'
I1
tp22
a(S'no_np'
I2
tp23
a(S'no_ll'
I1
tp24
a(S'ch_no'
I1
tp25
a(S'ch_tr'
I1
tp26
a(S'ch_p2'
I1
tp27
a(S'ch_p1'
I1
tp28
a(S'fc_mo'
I0
tp29
a(S'p1_du'
I0
tp30
a(S'p1_vo'
I0
tp31
a(S'w'
I4
tp32
a(S'p2_vo'
I0
tp33
a(S'w'
I1
tp34
a(S'tr_tl'
I142
tp35
a(S'tr_ll'
I1
tp36
a(S'tr_th'
I0
tp37
a(S'w'
I1
tp38
a(S'tr_lh'
I1
tp39
a(S'tr_lr'
I126
tp40
a(S'w'
I2175
tp41
a(S'p1_tl'
I28
tp42
a(S'p1_ll'
I1
tp43
a(S'p1_th'
I1
tp44
a(S'w'
I5
tp45
a(S'p1_du'
I2
tp46
a(S'p1_vo'
I10
tp47
a(S'w'
I728
tp48
a(S'p1_vo'
I15
tp49
a(S'w'
I728
tp50
a(S'p1_vo'
I13
tp51
a(S'w'
I739
tp52
a(S'p1_vo'
I12
tp53
a(S'w'
I733
tp54
a(S'p1_du'
I0
tp55
a(S'p1_vo'
I2
tp56
a(S'w'
I8081
tp57
a(S'tr_tl'
I126
tp58
a(S'tr_ll'
I1
tp59
a(S'w'
I2199
tp60
a(S'p2_tl'
I253
tp61
a(S'p2_ll'
I1
tp62
a(S'p2_th'
I0
tp63
a(S'w'
I5
tp64
a(S'p2_du'
I2
tp65
a(S'p2_vo'
I10
tp66
a(S'w'
I728
tp67
a(S'p2_vo'
I15
tp68
a(S'w'
I728
tp69
a(S'p2_vo'
I13
tp70
a(S'w'
I739
tp71
a(S'p2_vo'
I12
tp72
a(S'w'
I733
tp73
a(S'p2_du'
I0
tp74
a(S'p2_vo'
I2
tp75
a(S'w'
I8076
tp76
a(S'tr_tl'
I70
tp77
a(S'w'
I1
tp78
a(S'tr_ll'
I1
tp79
a(S'w'
I2193
tp80
a(S'p1_tl'
I142
tp81
a(S'p1_ll'
I1
tp82
a(S'p1_th'
I0
tp83
a(S'w'
I5
tp84
a(S'p1_du'
I2
tp85
a(S'p1_vo'
I10
tp86
a(S'w'
I729
tp87
a(S'p1_vo'
I15
tp88
a(S'w'
I728
tp89
a(S'p1_vo'
I13
tp90
a(S'w'
I739
tp91
a(S'p1_vo'
I12
tp92
a(S'w'
I733
tp93
a(S'p1_du'
I0
tp94
a(S'p1_vo'
I2
tp95
a(S'w'
I8082
tp96
a(S'tr_tl'
I84
tp97
a(S'tr_ll'
I1
tp98
a(S'w'
I2197
tp99
a(S'p2_tl'
I169
tp100
a(S'p2_ll'
I1
tp101
a(S'w'
I5
tp102
a(S'p2_du'
I2
tp103
a(S'p2_vo'
I10
tp104
a(S'w'
I729
tp105
a(S'p2_vo'
I15
tp106
a(S'w'
I727
tp107
a(S'p2_vo'
I13
tp108
a(S'w'
I740
tp109
a(S'p2_vo'
I12
tp110
a(S'w'
I733
tp111
a(S'p2_du'
I0
tp112
a(S'p2_vo'
I2
tp113
a(S'w'
I27890
tp114
a(S'tr_lh'
I0
tp115
a(S'tr_lr'
I0
tp116
a(S'w'
I8804
tp117
a(S'p1_vo'
I0
tp118
a(S'w'
I4
tp119
a(S'p2_vo'
I0
tp120
a(S'w'
I1
tp121
a.