(lp1
(S'clock'
p2
I1789772
tp3
a(S'p1_lh'
I1
tp4
a(S'p1_cv'
I1
tp5
a(S'p1_sn'
I1
tp6
a(S'p1_tl'
I169
tp7
a(S'p1_ll'
I1
tp8
a(S'p2_lh'
I1
tp9
a(S'p2_cv'
I1
tp10
a(S'p2_sn'
I1
tp11
a(S'p2_tl'
I142
tp12
a(S'p2_ll'
I1
tp13
a(S'tr_lh'
I1
tp14
a(S'tr_lr'
I126
tp15
a(S'tr_tl'
I142
tp16
a(S'tr_ll'
I1
tp17
a(S'no_lh'
I1
tp18
a(S'no_cv'
I1
tp19
a(S'no_np'
I2
tp20
a(S'no_ll'
I1
tp21
a(S'ch_no'
I1
tp22
a(S'ch_tr'
I1
tp23
a(S'ch_p2'
I1
tp24
a(S'ch_p1'
I1
tp25
a(S'fc_mo'
I0
tp26
a(S'p1_tl'
I28
tp27
a(S'p1_ll'
I1
tp28
a(S'p1_th'
I1
tp29
a(S'w'
I5
tp30
a(S'p1_du'
I2
tp31
a(S'p1_vo'
I10
tp32
a(S'w'
I727
tp33
a(S'p1_vo'
I15
tp34
a(S'w'
I728
tp35
a(S'p1_vo'
I13
tp36
a(S'w'
I740
tp37
a(S'p1_vo'
I12
tp38
a(S'w'
I733
tp39
a(S'p1_du'
I0
tp40
a(S'p1_vo'
I2
tp41
a(S'w'
I8080
tp42
a(S'tr_tl'
I126
tp43
a(S'w'
I1
tp44
a(S'tr_ll'
I1
tp45
a(S'w'
I2199
tp46
a(S'p2_tl'
I253
tp47
a(S'p2_ll'
I1
tp48
a(S'w'
I5
tp49
a(S'p2_du'
I2
tp50
a(S'p2_vo'
I10
tp51
a(S'w'
I727
tp52
a(S'p2_vo'
I15
tp53
a(S'w'
I728
tp54
a(S'p2_vo'
I13
tp55
a(S'w'
I740
tp56
a(S'p2_vo'
I12
tp57
a(S'w'
I733
tp58
a(S'p2_du'
I0
tp59
a(S'p2_vo'
I2
tp60
a(S'w'
I8076
tp61
a(S'tr_tl'
I70
tp62
a(S'tr_ll'
I1
tp63
a(S'w'
I2194
tp64
a(S'p1_tl'
I142
tp65
a(S'p1_ll'
I1
tp66
a(S'p1_th'
I0
tp67
a(S'w'
I5
tp68
a(S'p1_du'
I2
tp69
a(S'p1_vo'
I10
tp70
a(S'w'
I728
tp71
a(S'p1_vo'
I15
tp72
a(S'w'
I728
tp73
a(S'p1_vo'
I13
tp74
a(S'w'
I740
tp75
a(S'p1_vo'
I12
tp76
a(S'w'
I733
tp77
a(S'p1_du'
I0
tp78
a(S'p1_vo'
I2
tp79
a(S'w'
I8082
tp80
a(S'tr_tl'
I84
tp81
a(S'tr_ll'
I1
tp82
a(S'w'
I2197
tp83
a(S'p2_tl'
I169
tp84
a(S'p2_ll'
I1
tp85
a(S'w'
I5
tp86
a(S'p2_du'
I2
tp87
a(S'p2_vo'
I10
tp88
a(S'w'
I728
tp89
a(S'p2_vo'
I15
tp90
a(S'w'
I728
tp91
a(S'p2_vo'
I13
tp92
a(S'w'
I740
tp93
a(S'p2_vo'
I12
tp94
a(S'w'
I733
tp95
a(S'p2_du'
I0
tp96
a(S'p2_vo'
I2
tp97
a(S'w'
I27889
tp98
a(S'tr_lh'
I0
tp99
a(S'tr_lr'
I0
tp100
a(S'w'
I6599
tp101
a(S'p1_tl'
I28
tp102
a(S'p1_ll'
I1
tp103
a(S'p1_th'
I1
tp104
a(S'w'
I5
tp105
a(S'p1_du'
I2
tp106
a(S'p1_vo'
I6
tp107
a(S'w'
I1453
tp108
a(S'p1_vo'
I5
tp109
a(S'w'
I1474
tp110
a(S'p1_vo'
I4
tp111
a(S'w'
I10272
tp112
a(S'p1_tl'
I253
tp113
a(S'w'
I1
tp114
a(S'p1_ll'
I1
tp115
a(S'p1_th'
I0
tp116
a(S'w'
I5
tp117
a(S'p1_vo'
I6
tp118
a(S'w'
I1456
tp119
a(S'p1_vo'
I5
tp120
a(S'w'
I1474
tp121
a(S'p1_vo'
I4
tp122
a(S'w'
I10273
tp123
a(S'p1_tl'
I142
tp124
a(S'p1_ll'
I1
tp125
a(S'w'
I5
tp126
a(S'p1_vo'
I6
tp127
a(S'w'
I1457
tp128
a(S'p1_vo'
I5
tp129
a(S'w'
I1473
tp130
a(S'p1_vo'
I4
tp131
a(S'w'
I10275
tp132
a(S'p1_tl'
I169
tp133
a(S'p1_ll'
I1
tp134
a(S'w'
I5
tp135
a(S'p1_vo'
I6
tp136
a(S'w'
I1455
tp137
a(S'p1_vo'
I5
tp138
a(S'w'
I1474
tp139
a(S'p1_vo'
I4
tp140
a(S'w'
I30085
tp141
a(S'p1_du'
I0
tp142
a(S'p1_vo'
I2
tp143
a(S'w'
I6614
tp144
a(S'tr_tl'
I142
tp145
a(S'w'
I1
tp146
a(S'tr_ll'
I1
tp147
a(S'w'
I1
tp148
a(S'tr_lh'
I1
tp149
a(S'tr_lr'
I126
tp150
a(S'w'
I2198
tp151
a(S'p1_tl'
I28
tp152
a(S'p1_ll'
I1
tp153
a(S'p1_th'
I1
tp154
a(S'w'
I5
tp155
a(S'p1_du'
I2
tp156
a(S'p1_vo'
I10
tp157
a(S'w'
I722
tp158
a(S'p1_vo'
I15
tp159
a(S'w'
I728
tp160
a(S'p1_vo'
I13
tp161
a(S'w'
I739
tp162
a(S'p1_vo'
I12
tp163
a(S'w'
I734
tp164
a(S'p1_du'
I0
tp165
a(S'p1_vo'
I2
tp166
a(S'w'
I14684
tp167
a(S'tr_tl'
I70
tp168
a(S'tr_ll'
I1
tp169
a(S'w'
I2198
tp170
a(S'p2_tl'
I142
tp171
a(S'p2_ll'
I1
tp172
a(S'w'
I5
tp173
a(S'p2_du'
I2
tp174
a(S'p2_vo'
I10
tp175
a(S'w'
I729
tp176
a(S'p2_vo'
I15
tp177
a(S'w'
I728
tp178
a(S'p2_vo'
I13
tp179
a(S'w'
I739
tp180
a(S'p2_vo'
I12
tp181
a(S'w'
I733
tp182
a(S'p2_du'
I0
tp183
a(S'p2_vo'
I2
tp184
a(S'w'
I14682
tp185
a(S'tr_tl'
I84
tp186
a(S'tr_ll'
I1
tp187
a(S'w'
I2197
tp188
a(S'p1_tl'
I169
tp189
a(S'p1_ll'
I1
tp190
a(S'p1_th'
I0
tp191
a(S'w'
I5
tp192
a(S'p1_du'
I2
tp193
a(S'p1_vo'
I10
tp194
a(S'w'
I724
tp195
a(S'p1_vo'
I15
tp196
a(S'w'
I728
tp197
a(S'p1_vo'
I13
tp198
a(S'w'
I740
tp199
a(S'p1_vo'
I12
tp200
a(S'w'
I733
tp201
a(S'p1_du'
I0
tp202
a(S'p1_vo'
I2
tp203
a(S'w'
I27894
tp204
a(S'tr_lh'
I0
tp205
a(S'tr_lr'
I0
tp206
a(S'w'
I6598
tp207
a(S'p1_tl'
I28
tp208
a(S'p1_ll'
I1
tp209
a(S'p1_th'
I1
tp210
a(S'w'
I5
tp211
a(S'p1_du'
I2
tp212
a(S'p1_vo'
I6
tp213
a(S'w'
I1453
tp214
a(S'p1_vo'
I5
tp215
a(S'w'
I1474
tp216
a(S'p1_vo'
I4
tp217
a(S'w'
I16876
tp218
a(S'p1_tl'
I142
tp219
a(S'w'
I1
tp220
a(S'p1_ll'
I1
tp221
a(S'p1_th'
I0
tp222
a(S'w'
I5
tp223
a(S'p1_vo'
I6
tp224
a(S'w'
I1457
tp225
a(S'p1_vo'
I5
tp226
a(S'w'
I1473
tp227
a(S'p1_vo'
I4
tp228
a(S'w'
I16879
tp229
a(S'p1_tl'
I169
tp230
a(S'p1_ll'
I1
tp231
a(S'w'
I5
tp232
a(S'p1_vo'
I6
tp233
a(S'w'
I1455
tp234
a(S'p1_vo'
I5
tp235
a(S'w'
I1474
tp236
a(S'p1_vo'
I4
tp237
a(S'w'
I30085
tp238
a(S'p1_du'
I0
tp239
a(S'p1_vo'
I2
tp240
a(S'w'
I6608
tp241
a(S'p1_vo'
I0
tp242
a(S'w'
I2206
tp243
a(S'p2_vo'
I0
tp244
a(S'w'
I1
tp245
a.