(lp1
(S'clock'
p2
I1789772
tp3
a(S'p1_lh'
I1
tp4
a(S'p1_cv'
I1
tp5
a(S'p1_sn'
I1
tp6
a(S'p1_tl'
I173
tp7
a(S'p1_ll'
I1
tp8
a(S'p1_th'
I6
tp9
a(S'p2_lh'
I1
tp10
a(S'p2_cv'
I1
tp11
a(S'p2_sn'
I1
tp12
a(S'p2_tl'
I173
tp13
a(S'p2_ll'
I1
tp14
a(S'p2_th'
I6
tp15
a(S'tr_tl'
I70
tp16
a(S'tr_ll'
I1
tp17
a(S'no_lh'
I1
tp18
a(S'no_cv'
I1
tp19
a(S'no_ll'
I1
tp20
a(S'ch_no'
I1
tp21
a(S'ch_tr'
I1
tp22
a(S'ch_p2'
I1
tp23
a(S'ch_p1'
I1
tp24
a(S'fc_mo'
I1
tp25
a(S'p1_ll'
I1
tp26
a(S'w'
I7
tp27
a(S'p2_tl'
I63
tp28
a(S'w'
I1
tp29
a(S'p2_ll'
I1
tp30
a(S'p2_th'
I0
tp31
a(S'w'
I5
tp32
a(S'p2_du'
I1
tp33
a(S'p2_vo'
I15
tp34
a(S'w'
I3
tp35
a(S'tr_tl'
I173
tp36
a(S'tr_ll'
I1
tp37
a(S'tr_th'
I6
tp38
a(S'w'
I2
tp39
a(S'no_ll'
I1
tp40
a(S'w'
I427
tp41
a(S'p2_vo'
I14
tp42
a(S'w'
I1474
tp43
a(S'p2_vo'
I13
tp44
a(S'w'
I1461
tp45
a(S'p2_vo'
I12
tp46
a(S'w'
I1468
tp47
a(S'p2_vo'
I11
tp48
a(S'w'
I1477
tp49
a(S'p1_tl'
I63
tp50
a(S'p1_ll'
I1
tp51
a(S'p1_th'
I0
tp52
a(S'w'
I5
tp53
a(S'p1_du'
I1
tp54
a(S'p1_vo'
I15
tp55
a(S'w'
I7
tp56
a(S'p2_vo'
I10
tp57
a(S'w'
I707
tp58
a(S'p1_vo'
I14
tp59
a(S'w'
I740
tp60
a(S'p2_vo'
I9
tp61
a(S'w'
I734
tp62
a(S'p1_vo'
I13
tp63
a(S'w'
I734
tp64
a(S'p2_vo'
I8
tp65
a(S'w'
I727
tp66
a(S'p1_vo'
I12
tp67
a(S'w'
I747
tp68
a(S'p2_vo'
I7
tp69
a(S'w'
I721
tp70
a(S'p1_vo'
I11
tp71
a(S'w'
I740
tp72
a(S'p2_vo'
I6
tp73
a(S'w'
I742
tp74
a(S'p1_vo'
I10
tp75
a(S'w'
I3
tp76
a(S'p2_tl'
I79
tp77
a(S'p2_ll'
I1
tp78
a(S'w'
I5
tp79
a(S'p2_vo'
I15
tp80
a(S'w'
I717
tp81
a(S'p2_vo'
I14
tp82
a(S'w'
I728
tp83
a(S'p1_vo'
I9
tp84
a(S'w'
I747
tp85
a(S'p2_vo'
I13
tp86
a(S'w'
I720
tp87
a(S'p1_vo'
I8
tp88
a(S'w'
I741
tp89
a(S'p2_vo'
I12
tp90
a(S'w'
I734
tp91
a(S'p1_vo'
I7
tp92
a(S'w'
I733
tp93
a(S'p2_vo'
I11
tp94
a(S'w'
I728
tp95
a(S'p1_vo'
I6
tp96
a(S'w'
I744
tp97
a(S'p1_tl'
I79
tp98
a(S'p1_ll'
I1
tp99
a(S'w'
I6
tp100
a(S'p1_vo'
I15
tp101
a(S'w'
I6
tp102
a(S'p2_vo'
I10
tp103
a(S'w'
I711
tp104
a(S'p1_vo'
I14
tp105
a(S'w'
I740
tp106
a(S'p2_vo'
I9
tp107
a(S'w'
I734
tp108
a(S'p1_vo'
I13
tp109
a(S'w'
I734
tp110
a(S'p2_vo'
I8
tp111
a(S'w'
I727
tp112
a(S'p1_vo'
I12
tp113
a(S'w'
I752
tp114
a(S'p2_tl'
I94
tp115
a(S'p2_ll'
I1
tp116
a(S'w'
I5
tp117
a(S'p2_vo'
I15
tp118
a(S'w'
I711
tp119
a(S'p1_vo'
I11
tp120
a(S'w'
I6
tp121
a(S'p2_vo'
I14
tp122
a(S'w'
I1468
tp123
a(S'p1_vo'
I10
tp124
a(S'w'
I7
tp125
a(S'p2_vo'
I13
tp126
a(S'w'
I1454
tp127
a(S'p1_vo'
I9
tp128
a(S'w'
I7
tp129
a(S'p2_vo'
I12
tp130
a(S'w'
I1461
tp131
a(S'p1_vo'
I8
tp132
a(S'w'
I6
tp133
a(S'p2_vo'
I11
tp134
a(S'w'
I1472
tp135
a(S'p1_tl'
I94
tp136
a(S'p1_ll'
I1
tp137
a(S'w'
I6
tp138
a(S'p1_vo'
I15
tp139
a(S'w'
I6
tp140
a(S'p2_vo'
I10
tp141
a(S'w'
I711
tp142
a(S'p1_vo'
I14
tp143
a(S'w'
I740
tp144
a(S'p2_vo'
I9
tp145
a(S'w'
I742
tp146
a(S'p1_vo'
I13
tp147
a(S'w'
I4
tp148
a(S'p2_tl'
I112
tp149
a(S'p2_ll'
I1
tp150
a(S'w'
I5
tp151
a(S'p2_vo'
I15
tp152
a(S'w'
I717
tp153
a(S'p2_vo'
I14
tp154
a(S'w'
I727
tp155
a(S'p1_vo'
I12
tp156
a(S'w'
I747
tp157
a(S'p2_vo'
I13
tp158
a(S'w'
I721
tp159
a(S'p1_vo'
I11
tp160
a(S'w'
I740
tp161
a(S'p2_vo'
I12
tp162
a(S'w'
I734
tp163
a(S'p1_vo'
I10
tp164
a(S'w'
I734
tp165
a(S'p2_vo'
I11
tp166
a(S'w'
I727
tp167
a(S'p1_vo'
I9
tp168
a(S'w'
I753
tp169
a(S'p1_tl'
I112
tp170
a(S'p1_ll'
I1
tp171
a(S'w'
I5
tp172
a(S'p1_vo'
I15
tp173
a(S'w'
I4
tp174
a(S'p2_tl'
I79
tp175
a(S'p2_ll'
I1
tp176
a(S'w'
I5
tp177
a(S'p2_vo'
I15
tp178
a(S'w'
I701
tp179
a(S'p1_vo'
I14
tp180
a(S'w'
I6
tp181
a(S'p2_vo'
I14
tp182
a(S'w'
I1461
tp183
a(S'p1_vo'
I13
tp184
a(S'w'
I7
tp185
a(S'p2_vo'
I13
tp186
a(S'w'
I1468
tp187
a(S'p1_vo'
I12
tp188
a(S'w'
I6
tp189
a(S'p2_vo'
I12
tp190
a(S'w'
I1473
tp191
a(S'p1_tl'
I79
tp192
a(S'p1_ll'
I1
tp193
a(S'w'
I5
tp194
a(S'p1_vo'
I15
tp195
a(S'w'
I3
tp196
a(S'p2_tl'
I94
tp197
a(S'w'
I1
tp198
a(S'p2_ll'
I1
tp199
a(S'w'
I5
tp200
a(S'p2_vo'
I15
tp201
a(S'w'
I701
tp202
a(S'p1_vo'
I14
tp203
a(S'w'
I7
tp204
a(S'p2_vo'
I14
tp205
a(S'w'
I1468
tp206
a(S'p1_vo'
I13
tp207
a(S'w'
I6
tp208
a(S'p2_vo'
I13
tp209
a(S'w'
I1461
tp210
a(S'p1_vo'
I12
tp211
a(S'w'
I7
tp212
a(S'p2_vo'
I12
tp213
a(S'w'
I1454
tp214
a(S'p1_vo'
I11
tp215
a(S'w'
I7
tp216
a(S'p2_vo'
I11
tp217
a(S'w'
I743
tp218
a(S'p1_tl'
I94
tp219
a(S'w'
I1
tp220
a(S'p1_ll'
I1
tp221
a(S'w'
I5
tp222
a(S'p1_vo'
I15
tp223
a(S'w'
I3
tp224
a(S'p2_tl'
I112
tp225
a(S'p2_ll'
I1
tp226
a(S'w'
I5
tp227
a(S'p2_vo'
I15
tp228
a(S'w'
I704
tp229
a(S'p1_vo'
I14
tp230
a(S'w'
I6
tp231
a(S'p2_vo'
I14
tp232
a(S'w'
I1461
tp233
a(S'p1_vo'
I13
tp234
a(S'w'
I7
tp235
a(S'p2_vo'
I13
tp236
a(S'w'
I1468
tp237
a(S'p1_vo'
I12
tp238
a(S'w'
I6
tp239
a(S'p2_vo'
I12
tp240
a(S'w'
I1471
tp241
a(S'p1_tl'
I112
tp242
a(S'p1_ll'
I1
tp243
a(S'w'
I5
tp244
a(S'p1_vo'
I15
tp245
a(S'w'
I4
tp246
a(S'p2_tl'
I126
tp247
a(S'p2_ll'
I1
tp248
a(S'w'
I5
tp249
a(S'p2_vo'
I15
tp250
a(S'w'
I703
tp251
a(S'p1_vo'
I14
tp252
a(S'w'
I7
tp253
a(S'p2_vo'
I14
tp254
a(S'w'
I1468
tp255
a(S'p1_vo'
I13
tp256
a(S'w'
I6
tp257
a(S'p2_vo'
I13
tp258
a(S'w'
I1461
tp259
a(S'p1_vo'
I12
tp260
a(S'w'
I7
tp261
a(S'p2_vo'
I12
tp262
a(S'w'
I1454
tp263
a(S'p1_vo'
I11
tp264
a(S'w'
I7
tp265
a(S'p2_vo'
I11
tp266
a(S'w'
I745
tp267
a(S'p1_tl'
I126
tp268
a(S'p1_ll'
I1
tp269
a(S'w'
I5
tp270
a(S'p1_vo'
I15
tp271
a(S'w'
I4
tp272
a(S'p2_tl'
I94
tp273
a(S'p2_ll'
I1
tp274
a(S'w'
I5
tp275
a(S'p2_vo'
I15
tp276
a(S'w'
I702
tp277
a(S'p1_vo'
I14
tp278
a(S'w'
I6
tp279
a(S'p2_vo'
I14
tp280
a(S'w'
I1461
tp281
a(S'p1_vo'
I13
tp282
a(S'w'
I7
tp283
a(S'p2_vo'
I13
tp284
a(S'w'
I1461
tp285
a(S'p1_vo'
I12
tp286
a(S'w'
I7
tp287
a(S'p2_vo'
I12
tp288
a(S'w'
I745
tp289
a(S'p1_tl'
I94
tp290
a(S'p1_ll'
I1
tp291
a(S'w'
I5
tp292
a(S'p1_vo'
I15
tp293
a(S'w'
I4
tp294
a(S'p2_tl'
I112
tp295
a(S'p2_ll'
I1
tp296
a(S'w'
I5
tp297
a(S'p2_vo'
I15
tp298
a(S'w'
I702
tp299
a(S'p1_vo'
I14
tp300
a(S'w'
I6
tp301
a(S'p2_vo'
I14
tp302
a(S'w'
I1461
tp303
a(S'p1_vo'
I13
tp304
a(S'w'
I7
tp305
a(S'p2_vo'
I13
tp306
a(S'w'
I1467
tp307
a(S'p1_vo'
I12
tp308
a(S'w'
I7
tp309
a(S'p2_vo'
I12
tp310
a(S'w'
I1471
tp311
a(S'p1_tl'
I112
tp312
a(S'p1_ll'
I1
tp313
a(S'w'
I5
tp314
a(S'p1_vo'
I15
tp315
a(S'w'
I4
tp316
a(S'p2_tl'
I126
tp317
a(S'p2_ll'
I1
tp318
a(S'w'
I5
tp319
a(S'p2_vo'
I15
tp320
a(S'w'
I703
tp321
a(S'p1_vo'
I14
tp322
a(S'w'
I7
tp323
a(S'p2_vo'
I14
tp324
a(S'w'
I1461
tp325
a(S'p1_vo'
I13
tp326
a(S'w'
I6
tp327
a(S'p2_vo'
I13
tp328
a(S'w'
I1461
tp329
a(S'p1_vo'
I12
tp330
a(S'w'
I7
tp331
a(S'p2_vo'
I12
tp332
a(S'w'
I744
tp333
a(S'p1_tl'
I126
tp334
a(S'p1_ll'
I1
tp335
a(S'w'
I5
tp336
a(S'p1_vo'
I15
tp337
a(S'w'
I3
tp338
a(S'p2_tl'
I159
tp339
a(S'w'
I1
tp340
a(S'p2_ll'
I1
tp341
a(S'w'
I5
tp342
a(S'p2_vo'
I15
tp343
a(S'w'
I703
tp344
a(S'p1_vo'
I14
tp345
a(S'w'
I7
tp346
a(S'p2_vo'
I14
tp347
a(S'w'
I1461
tp348
a(S'p1_vo'
I13
tp349
a(S'w'
I6
tp350
a(S'p2_vo'
I13
tp351
a(S'w'
I1461
tp352
a(S'p1_vo'
I12
tp353
a(S'w'
I7
tp354
a(S'p2_vo'
I12
tp355
a(S'w'
I1479
tp356
a(S'p1_tl'
I159
tp357
a(S'p1_ll'
I1
tp358
a(S'w'
I5
tp359
a(S'p1_vo'
I15
tp360
a(S'w'
I4
tp361
a(S'p2_tl'
I126
tp362
a(S'p2_ll'
I1
tp363
a(S'w'
I5
tp364
a(S'p2_vo'
I15
tp365
a(S'w'
I702
tp366
a(S'p1_vo'
I14
tp367
a(S'w'
I6
tp368
a(S'p2_vo'
I14
tp369
a(S'w'
I1468
tp370
a(S'p1_vo'
I13
tp371
a(S'w'
I7
tp372
a(S'p2_vo'
I13
tp373
a(S'w'
I1472
tp374
a(S'p1_tl'
I126
tp375
a(S'p1_ll'
I1
tp376
a(S'w'
I5
tp377
a(S'p1_vo'
I15
tp378
a(S'w'
I4
tp379
a(S'p2_tl'
I159
tp380
a(S'p2_ll'
I1
tp381
a(S'w'
I5
tp382
a(S'p2_vo'
I15
tp383
a(S'w'
I702
tp384
a(S'p1_vo'
I14
tp385
a(S'w'
I6
tp386
a(S'p2_vo'
I14
tp387
a(S'w'
I1461
tp388
a(S'p1_vo'
I13
tp389
a(S'w'
I7
tp390
a(S'p2_vo'
I13
tp391
a(S'w'
I1461
tp392
a(S'p1_vo'
I12
tp393
a(S'w'
I6
tp394
a(S'p2_vo'
I12
tp395
a(S'w'
I744
tp396
a(S'p1_tl'
I159
tp397
a(S'p1_ll'
I1
tp398
a(S'w'
I5
tp399
a(S'p1_vo'
I15
tp400
a(S'w'
I4
tp401
a(S'p2_tl'
I189
tp402
a(S'p2_ll'
I1
tp403
a(S'w'
I5
tp404
a(S'p2_vo'
I15
tp405
a(S'w'
I703
tp406
a(S'p1_vo'
I14
tp407
a(S'w'
I7
tp408
a(S'p2_vo'
I14
tp409
a(S'w'
I1461
tp410
a(S'p1_vo'
I13
tp411
a(S'w'
I7
tp412
a(S'p2_vo'
I13
tp413
a(S'w'
I1461
tp414
a(S'p1_vo'
I12
tp415
a(S'w'
I6
tp416
a(S'p2_vo'
I12
tp417
a(S'w'
I744
tp418
a(S'p1_tl'
I189
tp419
a(S'p1_ll'
I1
tp420
a(S'w'
I5
tp421
a(S'p1_vo'
I15
tp422
a(S'w'
I4
tp423
a(S'p2_tl'
I225
tp424
a(S'p2_ll'
I1
tp425
a(S'w'
I5
tp426
a(S'p2_vo'
I15
tp427
a(S'w'
I710
tp428
a(S'p1_vo'
I14
tp429
a(S'w'
I7
tp430
a(S'p2_vo'
I14
tp431
a(S'w'
I1461
tp432
a(S'p1_vo'
I13
tp433
a(S'w'
I6
tp434
a(S'p2_vo'
I13
tp435
a(S'w'
I1473
tp436
a(S'p1_tl'
I225
tp437
a(S'p1_ll'
I1
tp438
a(S'w'
I5
tp439
a(S'p1_vo'
I15
tp440
a(S'w'
I3
tp441
a(S'p2_tl'
I159
tp442
a(S'w'
I1
tp443
a(S'p2_ll'
I1
tp444
a(S'w'
I5
tp445
a(S'p2_vo'
I15
tp446
a(S'w'
I701
tp447
a(S'p1_vo'
I14
tp448
a(S'w'
I7
tp449
a(S'p2_vo'
I14
tp450
a(S'w'
I1461
tp451
a(S'p1_vo'
I13
tp452
a(S'w'
I6
tp453
a(S'p2_vo'
I13
tp454
a(S'w'
I1479
tp455
a(S'p1_tl'
I159
tp456
a(S'w'
I1
tp457
a(S'p1_ll'
I1
tp458
a(S'w'
I5
tp459
a(S'p1_vo'
I15
tp460
a(S'w'
I3
tp461
a(S'p2_tl'
I189
tp462
a(S'w'
I1
tp463
a(S'p2_ll'
I1
tp464
a(S'w'
I5
tp465
a(S'p2_vo'
I15
tp466
a(S'w'
I701
tp467
a(S'p1_vo'
I14
tp468
a(S'w'
I7
tp469
a(S'p2_vo'
I14
tp470
a(S'w'
I1461
tp471
a(S'p1_vo'
I13
tp472
a(S'w'
I6
tp473
a(S'p2_vo'
I13
tp474
a(S'w'
I1478
tp475
a(S'p1_tl'
I189
tp476
a(S'p1_ll'
I1
tp477
a(S'w'
I5
tp478
a(S'p1_vo'
I15
tp479
a(S'w'
I4
tp480
a(S'p2_tl'
I225
tp481
a(S'p2_ll'
I1
tp482
a(S'w'
I5
tp483
a(S'p2_vo'
I15
tp484
a(S'w'
I703
tp485
a(S'p1_vo'
I14
tp486
a(S'w'
I7
tp487
a(S'p2_vo'
I14
tp488
a(S'w'
I1461
tp489
a(S'p1_vo'
I13
tp490
a(S'w'
I6
tp491
a(S'p2_vo'
I13
tp492
a(S'w'
I1478
tp493
a(S'p1_tl'
I225
tp494
a(S'p1_ll'
I1
tp495
a(S'w'
I5
tp496
a(S'p1_vo'
I15
tp497
a(S'w'
I4
tp498
a(S'p2_tl'
I253
tp499
a(S'p2_ll'
I1
tp500
a(S'w'
I5
tp501
a(S'p2_vo'
I15
tp502
a(S'w'
I703
tp503
a(S'p1_vo'
I14
tp504
a(S'w'
I7
tp505
a(S'p2_vo'
I14
tp506
a(S'w'
I1461
tp507
a(S'p1_vo'
I13
tp508
a(S'w'
I6
tp509
a(S'p2_vo'
I13
tp510
a(S'w'
I1480
tp511
a(S'p1_tl'
I253
tp512
a(S'p1_ll'
I1
tp513
a(S'w'
I5
tp514
a(S'p1_vo'
I15
tp515
a(S'w'
I3
tp516
a(S'p2_tl'
I189
tp517
a(S'w'
I1
tp518
a(S'p2_ll'
I1
tp519
a(S'w'
I5
tp520
a(S'p2_vo'
I15
tp521
a(S'w'
I701
tp522
a(S'p1_vo'
I14
tp523
a(S'w'
I7
tp524
a(S'p2_vo'
I14
tp525
a(S'w'
I1468
tp526
a(S'p1_vo'
I13
tp527
a(S'w'
I6
tp528
a(S'p2_vo'
I13
tp529
a(S'w'
I1473
tp530
a(S'p1_tl'
I189
tp531
a(S'p1_ll'
I1
tp532
a(S'w'
I5
tp533
a(S'p1_vo'
I15
tp534
a(S'w'
I3
tp535
a(S'p2_tl'
I225
tp536
a(S'w'
I1
tp537
a(S'p2_ll'
I1
tp538
a(S'w'
I5
tp539
a(S'p2_vo'
I15
tp540
a(S'w'
I708
tp541
a(S'p1_vo'
I14
tp542
a(S'w'
I6
tp543
a(S'p2_vo'
I14
tp544
a(S'w'
I1462
tp545
a(S'p1_vo'
I13
tp546
a(S'w'
I6
tp547
a(S'p2_vo'
I13
tp548
a(S'w'
I737
tp549
a(S'p1_tl'
I225
tp550
a(S'p1_ll'
I1
tp551
a(S'w'
I5
tp552
a(S'p1_vo'
I15
tp553
a(S'w'
I4
tp554
a(S'p2_tl'
I253
tp555
a(S'p2_ll'
I1
tp556
a(S'w'
I5
tp557
a(S'p2_vo'
I15
tp558
a(S'w'
I704
tp559
a(S'p1_vo'
I14
tp560
a(S'w'
I6
tp561
a(S'p2_vo'
I14
tp562
a(S'w'
I1468
tp563
a(S'p1_vo'
I13
tp564
a(S'w'
I6
tp565
a(S'p2_vo'
I13
tp566
a(S'w'
I1471
tp567
a(S'p1_tl'
I253
tp568
a(S'p1_ll'
I1
tp569
a(S'w'
I5
tp570
a(S'p1_vo'
I15
tp571
a(S'w'
I4
tp572
a(S'p2_tl'
I63
tp573
a(S'p2_ll'
I1
tp574
a(S'p2_th'
I1
tp575
a(S'w'
I5
tp576
a(S'p2_vo'
I15
tp577
a(S'w'
I710
tp578
a(S'p1_vo'
I14
tp579
a(S'w'
I7
tp580
a(S'p2_vo'
I14
tp581
a(S'w'
I1461
tp582
a(S'p1_vo'
I13
tp583
a(S'w'
I6
tp584
a(S'p2_vo'
I13
tp585
a(S'w'
I739
tp586
a(S'p1_tl'
I63
tp587
a(S'p1_ll'
I1
tp588
a(S'p1_th'
I1
tp589
a(S'w'
I5
tp590
a(S'p1_vo'
I15
tp591
a(S'w'
I4
tp592
a(S'p2_tl'
I253
tp593
a(S'p2_ll'
I1
tp594
a(S'p2_th'
I0
tp595
a(S'w'
I5
tp596
a(S'p2_vo'
I15
tp597
a(S'w'
I702
tp598
a(S'p1_vo'
I14
tp599
a(S'w'
I6
tp600
a(S'p2_vo'
I14
tp601
a(S'w'
I1468
tp602
a(S'p1_vo'
I13
tp603
a(S'w'
I7
tp604
a(S'p2_vo'
I13
tp605
a(S'w'
I738
tp606
a(S'p1_tl'
I253
tp607
a(S'p1_ll'
I1
tp608
a(S'p1_th'
I0
tp609
a(S'w'
I5
tp610
a(S'p1_vo'
I15
tp611
a(S'w'
I4
tp612
a(S'p2_tl'
I63
tp613
a(S'p2_ll'
I1
tp614
a(S'p2_th'
I1
tp615
a(S'w'
I5
tp616
a(S'p2_vo'
I15
tp617
a(S'w'
I702
tp618
a(S'p1_vo'
I14
tp619
a(S'w'
I6
tp620
a(S'p2_vo'
I14
tp621
a(S'w'
I1468
tp622
a(S'p1_vo'
I13
tp623
a(S'w'
I7
tp624
a(S'p2_vo'
I13
tp625
a(S'w'
I737
tp626
a(S'p1_tl'
I63
tp627
a(S'p1_ll'
I1
tp628
a(S'p1_th'
I1
tp629
a(S'w'
I5
tp630
a(S'p1_vo'
I15
tp631
a(S'w'
I3
tp632
a(S'p2_tl'
I124
tp633
a(S'w'
I1
tp634
a(S'p2_ll'
I1
tp635
a(S'w'
I5
tp636
a(S'p2_vo'
I15
tp637
a(S'w'
I703
tp638
a(S'p1_vo'
I14
tp639
a(S'w'
I7
tp640
a(S'p2_vo'
I14
tp641
a(S'w'
I1467
tp642
a(S'p1_vo'
I13
tp643
a(S'w'
I7
tp644
a(S'p2_vo'
I13
tp645
a(S'w'
I1471
tp646
a(S'p1_tl'
I124
tp647
a(S'p1_ll'
I1
tp648
a(S'w'
I5
tp649
a(S'p1_vo'
I15
tp650
a(S'w'
I3
tp651
a(S'p2_tl'
I196
tp652
a(S'w'
I1
tp653
a(S'p2_ll'
I1
tp654
a(S'w'
I5
tp655
a(S'p2_vo'
I15
tp656
a(S'w'
I710
tp657
a(S'p1_vo'
I14
tp658
a(S'w'
I6
tp659
a(S'p2_vo'
I14
tp660
a(S'w'
I1455
tp661
a(S'p1_vo'
I13
tp662
a(S'w'
I6
tp663
a(S'p2_vo'
I13
tp664
a(S'w'
I745
tp665
a(S'p1_tl'
I196
tp666
a(S'w'
I1
tp667
a(S'p1_ll'
I1
tp668
a(S'w'
I5
tp669
a(S'p1_vo'
I15
tp670
a(S'w'
I3
tp671
a(S'p2_tl'
I63
tp672
a(S'p2_ll'
I1
tp673
a(S'w'
I6
tp674
a(S'p2_vo'
I15
tp675
a(S'w'
I708
tp676
a(S'p1_vo'
I14
tp677
a(S'w'
I7
tp678
a(S'p2_vo'
I14
tp679
a(S'w'
I1472
tp680
a(S'p1_tl'
I63
tp681
a(S'p1_ll'
I1
tp682
a(S'w'
I5
tp683
a(S'p1_vo'
I15
tp684
a(S'w'
I4
tp685
a(S'p2_tl'
I124
tp686
a(S'p2_ll'
I1
tp687
a(S'w'
I5
tp688
a(S'p2_vo'
I15
tp689
a(S'w'
I702
tp690
a(S'p1_vo'
I14
tp691
a(S'w'
I6
tp692
a(S'p2_vo'
I14
tp693
a(S'w'
I1468
tp694
a(S'p1_vo'
I13
tp695
a(S'w'
I7
tp696
a(S'p2_vo'
I13
tp697
a(S'w'
I736
tp698
a(S'p1_tl'
I124
tp699
a(S'w'
I1
tp700
a(S'p1_ll'
I1
tp701
a(S'w'
I5
tp702
a(S'p1_vo'
I15
tp703
a(S'w'
I3
tp704
a(S'p2_tl'
I196
tp705
a(S'p2_ll'
I1
tp706
a(S'w'
I6
tp707
a(S'p2_vo'
I15
tp708
a(S'w'
I710
tp709
a(S'p1_vo'
I14
tp710
a(S'w'
I6
tp711
a(S'p2_vo'
I14
tp712
a(S'w'
I1461
tp713
a(S'p1_vo'
I13
tp714
a(S'w'
I7
tp715
a(S'p2_vo'
I13
tp716
a(S'w'
I737
tp717
a(S'p1_tl'
I196
tp718
a(S'p1_ll'
I1
tp719
a(S'w'
I5
tp720
a(S'p1_vo'
I15
tp721
a(S'w'
I3
tp722
a(S'p2_tl'
I251
tp723
a(S'w'
I1
tp724
a(S'p2_ll'
I1
tp725
a(S'w'
I5
tp726
a(S'p2_vo'
I15
tp727
a(S'w'
I710
tp728
a(S'p1_vo'
I14
tp729
a(S'w'
I6
tp730
a(S'p2_vo'
I14
tp731
a(S'w'
I1455
tp732
a(S'p1_vo'
I13
tp733
a(S'w'
I6
tp734
a(S'p2_vo'
I13
tp735
a(S'w'
I746
tp736
a(S'p1_tl'
I251
tp737
a(S'p1_ll'
I1
tp738
a(S'w'
I5
tp739
a(S'p1_vo'
I15
tp740
a(S'w'
I3
tp741
a(S'p2_tl'
I124
tp742
a(S'w'
I1
tp743
a(S'p2_ll'
I1
tp744
a(S'w'
I5
tp745
a(S'p2_vo'
I15
tp746
a(S'w'
I708
tp747
a(S'p1_vo'
I14
tp748
a(S'w'
I7
tp749
a(S'p2_vo'
I14
tp750
a(S'w'
I1472
tp751
a(S'p1_tl'
I124
tp752
a(S'p1_ll'
I1
tp753
a(S'w'
I5
tp754
a(S'p1_vo'
I15
tp755
a(S'w'
I4
tp756
a(S'p2_tl'
I196
tp757
a(S'p2_ll'
I1
tp758
a(S'w'
I5
tp759
a(S'p2_vo'
I15
tp760
a(S'w'
I709
tp761
a(S'p1_vo'
I14
tp762
a(S'w'
I6
tp763
a(S'p2_vo'
I14
tp764
a(S'w'
I1461
tp765
a(S'p1_vo'
I13
tp766
a(S'w'
I7
tp767
a(S'p2_vo'
I13
tp768
a(S'w'
I736
tp769
a(S'p1_tl'
I196
tp770
a(S'w'
I1
tp771
a(S'p1_ll'
I1
tp772
a(S'w'
I5
tp773
a(S'p1_vo'
I15
tp774
a(S'w'
I3
tp775
a(S'p2_tl'
I251
tp776
a(S'p2_ll'
I1
tp777
a(S'w'
I5
tp778
a(S'p2_vo'
I15
tp779
a(S'w'
I711
tp780
a(S'p1_vo'
I14
tp781
a(S'w'
I6
tp782
a(S'p2_vo'
I14
tp783
a(S'w'
I1471
tp784
a(S'p1_tl'
I251
tp785
a(S'p1_ll'
I1
tp786
a(S'w'
I5
tp787
a(S'p1_vo'
I15
tp788
a(S'w'
I4
tp789
a(S'p2_tl'
I128
tp790
a(S'p2_ll'
I1
tp791
a(S'p2_th'
I2
tp792
a(S'w'
I5
tp793
a(S'p2_vo'
I15
tp794
a(S'w'
I710
tp795
a(S'p1_vo'
I14
tp796
a(S'w'
I7
tp797
a(S'p2_vo'
I14
tp798
a(S'w'
I1454
tp799
a(S'p1_vo'
I13
tp800
a(S'w'
I6
tp801
a(S'p2_vo'
I13
tp802
a(S'w'
I746
tp803
a(S'p1_tl'
I128
tp804
a(S'p1_ll'
I1
tp805
a(S'p1_th'
I2
tp806
a(S'w'
I5
tp807
a(S'p1_vo'
I15
tp808
a(S'w'
I4
tp809
a(S'p2_tl'
I116
tp810
a(S'p2_ll'
I1
tp811
a(S'p2_th'
I4
tp812
a(S'w'
I5
tp813
a(S'p2_vo'
I15
tp814
a(S'w'
I708
tp815
a(S'p1_vo'
I14
tp816
a(S'w'
I7
tp817
a(S'p2_vo'
I14
tp818
a(S'w'
I1472
tp819
a(S'p1_tl'
I116
tp820
a(S'p1_ll'
I1
tp821
a(S'p1_th'
I4
tp822
a(S'w'
I6
tp823
a(S'p1_vo'
I15
tp824
a(S'w'
I3
tp825
a(S'p2_tl'
I249
tp826
a(S'p2_ll'
I1
tp827
a(S'p2_th'
I2
tp828
a(S'w'
I5
tp829
a(S'p2_vo'
I15
tp830
a(S'w'
I709
tp831
a(S'p1_vo'
I14
tp832
a(S'w'
I6
tp833
a(S'p2_vo'
I14
tp834
a(S'w'
I1471
tp835
a(S'p1_tl'
I249
tp836
a(S'p1_ll'
I1
tp837
a(S'p1_th'
I2
tp838
a(S'w'
I5
tp839
a(S'p1_vo'
I15
tp840
a(S'w'
I4
tp841
a(S'p2_tl'
I128
tp842
a(S'p2_ll'
I1
tp843
a(S'w'
I5
tp844
a(S'p2_vo'
I15
tp845
a(S'w'
I710
tp846
a(S'p1_vo'
I14
tp847
a(S'w'
I7
tp848
a(S'p2_vo'
I14
tp849
a(S'w'
I1470
tp850
a(S'p1_tl'
I128
tp851
a(S'w'
I1
tp852
a(S'p1_ll'
I1
tp853
a(S'w'
I5
tp854
a(S'p1_vo'
I15
tp855
a(S'w'
I3
tp856
a(S'p2_tl'
I251
tp857
a(S'p2_ll'
I1
tp858
a(S'p2_th'
I1
tp859
a(S'w'
I5
tp860
a(S'p2_vo'
I15
tp861
a(S'w'
I711
tp862
a(S'p1_vo'
I14
tp863
a(S'w'
I6
tp864
a(S'p2_vo'
I14
tp865
a(S'w'
I1455
tp866
a(S'p1_vo'
I13
tp867
a(S'w'
I6
tp868
a(S'p2_vo'
I13
tp869
a(S'w'
I744
tp870
a(S'p1_tl'
I251
tp871
a(S'p1_ll'
I1
tp872
a(S'p1_th'
I1
tp873
a(S'w'
I5
tp874
a(S'p1_vo'
I15
tp875
a(S'w'
I3
tp876
a(S'p2_tl'
I196
tp877
a(S'p2_ll'
I1
tp878
a(S'w'
I6
tp879
a(S'p2_vo'
I15
tp880
a(S'w'
I710
tp881
a(S'p1_vo'
I14
tp882
a(S'w'
I6
tp883
a(S'p2_vo'
I14
tp884
a(S'w'
I1471
tp885
a(S'p1_tl'
I196
tp886
a(S'p1_ll'
I1
tp887
a(S'w'
I5
tp888
a(S'p1_vo'
I15
tp889
a(S'w'
I4
tp890
a(S'p2_tl'
I124
tp891
a(S'p2_ll'
I1
tp892
a(S'w'
I5
tp893
a(S'p2_vo'
I15
tp894
a(S'w'
I710
tp895
a(S'p1_vo'
I14
tp896
a(S'w'
I7
tp897
a(S'p2_vo'
I14
tp898
a(S'w'
I1470
tp899
a(S'p1_tl'
I124
tp900
a(S'w'
I1
tp901
a(S'p1_ll'
I1
tp902
a(S'w'
I5
tp903
a(S'p1_vo'
I15
tp904
a(S'w'
I3
tp905
a(S'p2_tl'
I196
tp906
a(S'p2_ll'
I1
tp907
a(S'w'
I5
tp908
a(S'p2_vo'
I15
tp909
a(S'w'
I711
tp910
a(S'p1_vo'
I14
tp911
a(S'w'
I6
tp912
a(S'p2_vo'
I14
tp913
a(S'w'
I1471
tp914
a(S'p1_tl'
I196
tp915
a(S'p1_ll'
I1
tp916
a(S'w'
I5
tp917
a(S'p1_vo'
I15
tp918
a(S'w'
I4
tp919
a(S'p2_tl'
I124
tp920
a(S'p2_ll'
I1
tp921
a(S'w'
I5
tp922
a(S'p2_vo'
I15
tp923
a(S'w'
I710
tp924
a(S'p1_vo'
I14
tp925
a(S'w'
I6
tp926
a(S'p2_vo'
I14
tp927
a(S'w'
I1471
tp928
a(S'p1_tl'
I124
tp929
a(S'p1_ll'
I1
tp930
a(S'w'
I5
tp931
a(S'p1_vo'
I15
tp932
a(S'w'
I4
tp933
a(S'p2_tl'
I63
tp934
a(S'p2_ll'
I1
tp935
a(S'w'
I5
tp936
a(S'p2_vo'
I15
tp937
a(S'w'
I710
tp938
a(S'p1_vo'
I14
tp939
a(S'w'
I7
tp940
a(S'p2_vo'
I14
tp941
a(S'w'
I1461
tp942
a(S'p1_vo'
I13
tp943
a(S'w'
I6
tp944
a(S'p2_vo'
I13
tp945
a(S'w'
I737
tp946
a(S'p1_tl'
I63
tp947
a(S'w'
I1
tp948
a(S'p1_ll'
I1
tp949
a(S'w'
I5
tp950
a(S'p1_vo'
I15
tp951
a(S'w'
I3
tp952
a(S'p2_tl'
I253
tp953
a(S'p2_ll'
I1
tp954
a(S'p2_th'
I0
tp955
a(S'w'
I5
tp956
a(S'p2_vo'
I15
tp957
a(S'w'
I711
tp958
a(S'p1_vo'
I14
tp959
a(S'w'
I6
tp960
a(S'p2_vo'
I14
tp961
a(S'w'
I1471
tp962
a(S'p1_tl'
I253
tp963
a(S'p1_ll'
I1
tp964
a(S'p1_th'
I0
tp965
a(S'w'
I5
tp966
a(S'p1_vo'
I15
tp967
a(S'w'
I4
tp968
a(S'p2_tl'
I225
tp969
a(S'p2_ll'
I1
tp970
a(S'w'
I5
tp971
a(S'p2_vo'
I15
tp972
a(S'w'
I710
tp973
a(S'p1_vo'
I14
tp974
a(S'w'
I6
tp975
a(S'p2_vo'
I14
tp976
a(S'w'
I1471
tp977
a(S'p1_tl'
I225
tp978
a(S'p1_ll'
I1
tp979
a(S'w'
I6
tp980
a(S'p1_vo'
I15
tp981
a(S'w'
I3
tp982
a(S'p2_tl'
I189
tp983
a(S'p2_ll'
I1
tp984
a(S'w'
I5
tp985
a(S'p2_vo'
I15
tp986
a(S'w'
I710
tp987
a(S'p1_vo'
I14
tp988
a(S'w'
I7
tp989
a(S'p2_vo'
I14
tp990
a(S'w'
I1471
tp991
a(S'p1_tl'
I189
tp992
a(S'p1_ll'
I1
tp993
a(S'w'
I5
tp994
a(S'p1_vo'
I15
tp995
a(S'w'
I3
tp996
a(S'p2_tl'
I225
tp997
a(S'w'
I1
tp998
a(S'p2_ll'
I1
tp999
a(S'w'
I5
tp1000
a(S'p2_vo'
I15
tp1001
a(S'w'
I710
tp1002
a(S'p1_vo'
I14
tp1003
a(S'w'
I6
tp1004
a(S'p2_vo'
I14
tp1005
a(S'w'
I1471
tp1006
a(S'p1_tl'
I225
tp1007
a(S'p1_ll'
I1
tp1008
a(S'w'
I5
tp1009
a(S'p1_vo'
I15
tp1010
a(S'w'
I4
tp1011
a(S'p2_tl'
I189
tp1012
a(S'p2_ll'
I1
tp1013
a(S'w'
I5
tp1014
a(S'p2_vo'
I15
tp1015
a(S'w'
I704
tp1016
a(S'p1_vo'
I14
tp1017
a(S'w'
I6
tp1018
a(S'p2_vo'
I14
tp1019
a(S'w'
I1468
tp1020
a(S'p1_vo'
I13
tp1021
a(S'w'
I6
tp1022
a(S'p2_vo'
I13
tp1023
a(S'w'
I737
tp1024
a(S'p1_tl'
I189
tp1025
a(S'p1_ll'
I1
tp1026
a(S'w'
I5
tp1027
a(S'p1_vo'
I15
tp1028
a(S'w'
I4
tp1029
a(S'p2_tl'
I159
tp1030
a(S'p2_ll'
I1
tp1031
a(S'w'
I5
tp1032
a(S'p2_vo'
I15
tp1033
a(S'w'
I710
tp1034
a(S'p1_vo'
I14
tp1035
a(S'w'
I7
tp1036
a(S'p2_vo'
I14
tp1037
a(S'w'
I1471
tp1038
a(S'p1_tl'
I159
tp1039
a(S'p1_ll'
I1
tp1040
a(S'w'
I5
tp1041
a(S'p1_vo'
I15
tp1042
a(S'w'
I3
tp1043
a(S'p2_tl'
I126
tp1044
a(S'w'
I1
tp1045
a(S'p2_ll'
I1
tp1046
a(S'w'
I5
tp1047
a(S'p2_vo'
I15
tp1048
a(S'w'
I710
tp1049
a(S'p1_vo'
I14
tp1050
a(S'w'
I6
tp1051
a(S'p2_vo'
I14
tp1052
a(S'w'
I1471
tp1053
a(S'p1_tl'
I126
tp1054
a(S'p1_ll'
I1
tp1055
a(S'w'
I5
tp1056
a(S'p1_vo'
I15
tp1057
a(S'w'
I4
tp1058
a(S'p2_tl'
I112
tp1059
a(S'p2_ll'
I1
tp1060
a(S'w'
I5
tp1061
a(S'p2_vo'
I15
tp1062
a(S'w'
I710
tp1063
a(S'p1_vo'
I14
tp1064
a(S'w'
I7
tp1065
a(S'p2_vo'
I14
tp1066
a(S'w'
I1470
tp1067
a(S'p1_tl'
I112
tp1068
a(S'w'
I1
tp1069
a(S'p1_ll'
I1
tp1070
a(S'w'
I5
tp1071
a(S'p1_vo'
I15
tp1072
a(S'w'
I3
tp1073
a(S'p2_tl'
I189
tp1074
a(S'p2_ll'
I1
tp1075
a(S'w'
I5
tp1076
a(S'p2_vo'
I15
tp1077
a(S'w'
I711
tp1078
a(S'p1_vo'
I14
tp1079
a(S'w'
I6
tp1080
a(S'p2_vo'
I14
tp1081
a(S'w'
I1454
tp1082
a(S'p1_vo'
I13
tp1083
a(S'w'
I7
tp1084
a(S'p2_vo'
I13
tp1085
a(S'w'
I745
tp1086
a(S'p1_tl'
I189
tp1087
a(S'p1_ll'
I1
tp1088
a(S'w'
I5
tp1089
a(S'p1_vo'
I15
tp1090
a(S'w'
I4
tp1091
a(S'p2_tl'
I70
tp1092
a(S'p2_ll'
I1
tp1093
a(S'w'
I5
tp1094
a(S'p2_vo'
I15
tp1095
a(S'w'
I709
tp1096
a(S'p1_vo'
I14
tp1097
a(S'w'
I6
tp1098
a(S'p2_vo'
I14
tp1099
a(S'w'
I1466
tp1100
a(S'p1_tl'
I70
tp1101
a(S'p1_ll'
I1
tp1102
a(S'w'
I5
tp1103
a(S'p1_vo'
I15
tp1104
a(S'w'
I6
tp1105
a(S'p2_vo'
I13
tp1106
a(S'w'
I718
tp1107
a(S'p1_vo'
I14
tp1108
a(S'w'
I741
tp1109
a(S'p2_vo'
I12
tp1110
a(S'w'
I727
tp1111
a(S'p1_vo'
I13
tp1112
a(S'w'
I740
tp1113
a(S'p2_vo'
I11
tp1114
a(S'w'
I727
tp1115
a(S'p1_vo'
I12
tp1116
a(S'w'
I741
tp1117
a(S'p2_vo'
I10
tp1118
a(S'w'
I727
tp1119
a(S'p1_vo'
I11
tp1120
a(S'w'
I740
tp1121
a(S'p2_vo'
I9
tp1122
a(S'w'
I728
tp1123
a(S'p1_vo'
I10
tp1124
a(S'w'
I740
tp1125
a(S'p2_vo'
I8
tp1126
a(S'w'
I721
tp1127
a(S'p1_vo'
I9
tp1128
a(S'w'
I747
tp1129
a(S'p2_vo'
I7
tp1130
a(S'w'
I727
tp1131
a(S'p1_vo'
I8
tp1132
a(S'w'
I740
tp1133
a(S'p2_vo'
I6
tp1134
a(S'w'
I727
tp1135
a(S'p1_vo'
I7
tp1136
a(S'w'
I741
tp1137
a(S'p2_vo'
I5
tp1138
a(S'w'
I727
tp1139
a(S'p1_vo'
I6
tp1140
a(S'w'
I1468
tp1141
a(S'p1_vo'
I5
tp1142
a(S'w'
I7340
tp1143
a(S'p1_vo'
I3
tp1144
a(S'w'
I7
tp1145
a(S'p2_vo'
I3
tp1146
a(S'w'
I11734
tp1147
a(S'p1_vo'
I2
tp1148
a(S'w'
I7
tp1149
a(S'p2_vo'
I2
tp1150
a(S'w'
I2205
tp1151
a(S'p2_du'
I0
tp1152
a(S'p2_vo'
I0
tp1153
a(S'w'
I2193
tp1154
a(S'p1_du'
I0
tp1155
a(S'p1_vo'
I0
tp1156
a(S'w'
I1
tp1157
a.