(lp1
(S'clock'
p2
I1789772
tp3
a(S'p1_lh'
I1
tp4
a(S'p1_cv'
I1
tp5
a(S'p1_vo'
I15
tp6
a(S'p1_sn'
I1
tp7
a(S'p1_tl'
I106
tp8
a(S'p1_ll'
I1
tp9
a(S'p2_lh'
I1
tp10
a(S'p2_cv'
I1
tp11
a(S'p2_vo'
I15
tp12
a(S'p2_sn'
I1
tp13
a(S'p2_tl'
I169
tp14
a(S'p2_ll'
I1
tp15
a(S'tr_lh'
I1
tp16
a(S'tr_lr'
I126
tp17
a(S'tr_tl'
I142
tp18
a(S'tr_ll'
I1
tp19
a(S'no_lh'
I1
tp20
a(S'no_cv'
I1
tp21
a(S'no_ll'
I1
tp22
a(S'ch_no'
I1
tp23
a(S'ch_tr'
I1
tp24
a(S'ch_p2'
I1
tp25
a(S'ch_p1'
I1
tp26
a(S'fc_mo'
I1
tp27
a(S'p1_tl'
I79
tp28
a(S'w'
I1
tp29
a(S'p1_ll'
I1
tp30
a(S'w'
I5
tp31
a(S'p1_du'
I2
tp32
a(S'p1_vo'
I6
tp33
a(S'w'
I3
tp34
a(S'p2_tl'
I126
tp35
a(S'p2_ll'
I1
tp36
a(S'w'
I5
tp37
a(S'p2_du'
I2
tp38
a(S'p2_vo'
I6
tp39
a(S'w'
I4
tp40
a(S'tr_tl'
I173
tp41
a(S'tr_ll'
I1
tp42
a(S'tr_th'
I6
tp43
a(S'tr_lh'
I0
tp44
a(S'tr_lr'
I0
tp45
a(S'w'
I2
tp46
a(S'no_ll'
I1
tp47
a(S'w'
I422
tp48
a(S'p1_vo'
I8
tp49
a(S'w'
I6
tp50
a(S'p2_vo'
I8
tp51
a(S'w'
I727
tp52
a(S'p1_vo'
I10
tp53
a(S'w'
I7
tp54
a(S'p2_vo'
I10
tp55
a(S'w'
I727
tp56
a(S'p1_vo'
I12
tp57
a(S'w'
I7
tp58
a(S'p2_vo'
I12
tp59
a(S'w'
I739
tp60
a(S'p1_tl'
I84
tp61
a(S'p1_ll'
I1
tp62
a(S'w'
I5
tp63
a(S'p1_vo'
I6
tp64
a(S'w'
I4
tp65
a(S'p2_tl'
I134
tp66
a(S'p2_ll'
I1
tp67
a(S'w'
I5
tp68
a(S'p2_vo'
I6
tp69
a(S'w'
I708
tp70
a(S'p1_vo'
I8
tp71
a(S'w'
I6
tp72
a(S'p2_vo'
I8
tp73
a(S'w'
I727
tp74
a(S'p1_vo'
I10
tp75
a(S'w'
I7
tp76
a(S'p2_vo'
I10
tp77
a(S'w'
I727
tp78
a(S'p1_vo'
I12
tp79
a(S'w'
I7
tp80
a(S'p2_vo'
I12
tp81
a(S'w'
I739
tp82
a(S'p1_tl'
I89
tp83
a(S'p1_ll'
I1
tp84
a(S'w'
I5
tp85
a(S'p1_vo'
I6
tp86
a(S'w'
I4
tp87
a(S'p2_tl'
I142
tp88
a(S'p2_ll'
I1
tp89
a(S'w'
I5
tp90
a(S'p2_vo'
I6
tp91
a(S'w'
I708
tp92
a(S'p1_vo'
I8
tp93
a(S'w'
I6
tp94
a(S'p2_vo'
I8
tp95
a(S'w'
I727
tp96
a(S'p1_vo'
I10
tp97
a(S'w'
I7
tp98
a(S'p2_vo'
I10
tp99
a(S'w'
I727
tp100
a(S'p1_vo'
I12
tp101
a(S'w'
I7
tp102
a(S'p2_vo'
I12
tp103
a(S'w'
I739
tp104
a(S'p1_tl'
I94
tp105
a(S'w'
I1
tp106
a(S'p1_ll'
I1
tp107
a(S'w'
I5
tp108
a(S'p1_vo'
I6
tp109
a(S'w'
I3
tp110
a(S'p2_tl'
I150
tp111
a(S'p2_ll'
I1
tp112
a(S'w'
I5
tp113
a(S'p2_vo'
I6
tp114
a(S'w'
I708
tp115
a(S'p1_vo'
I8
tp116
a(S'w'
I6
tp117
a(S'p2_vo'
I8
tp118
a(S'w'
I728
tp119
a(S'p1_vo'
I10
tp120
a(S'w'
I6
tp121
a(S'p2_vo'
I10
tp122
a(S'w'
I728
tp123
a(S'p1_vo'
I12
tp124
a(S'w'
I6
tp125
a(S'p2_vo'
I12
tp126
a(S'w'
I739
tp127
a(S'p1_tl'
I100
tp128
a(S'w'
I1
tp129
a(S'p1_ll'
I1
tp130
a(S'w'
I5
tp131
a(S'p1_vo'
I6
tp132
a(S'w'
I3
tp133
a(S'p2_tl'
I159
tp134
a(S'p2_ll'
I1
tp135
a(S'w'
I6
tp136
a(S'p2_vo'
I6
tp137
a(S'w'
I707
tp138
a(S'p1_vo'
I8
tp139
a(S'w'
I7
tp140
a(S'p2_vo'
I8
tp141
a(S'w'
I727
tp142
a(S'p1_vo'
I10
tp143
a(S'w'
I6
tp144
a(S'p2_vo'
I10
tp145
a(S'w'
I728
tp146
a(S'p1_vo'
I12
tp147
a(S'w'
I6
tp148
a(S'p2_vo'
I12
tp149
a(S'w'
I740
tp150
a(S'p1_tl'
I106
tp151
a(S'p1_ll'
I1
tp152
a(S'w'
I5
tp153
a(S'p1_vo'
I6
tp154
a(S'w'
I3
tp155
a(S'p2_tl'
I169
tp156
a(S'w'
I1
tp157
a(S'p2_ll'
I1
tp158
a(S'w'
I5
tp159
a(S'p2_vo'
I6
tp160
a(S'w'
I707
tp161
a(S'p1_vo'
I8
tp162
a(S'w'
I7
tp163
a(S'p2_vo'
I8
tp164
a(S'w'
I727
tp165
a(S'p1_vo'
I10
tp166
a(S'w'
I7
tp167
a(S'p2_vo'
I10
tp168
a(S'w'
I727
tp169
a(S'p1_vo'
I12
tp170
a(S'w'
I6
tp171
a(S'p2_vo'
I12
tp172
a(S'w'
I742
tp173
a(S'p1_tl'
I112
tp174
a(S'p1_ll'
I1
tp175
a(S'w'
I5
tp176
a(S'p1_vo'
I6
tp177
a(S'w'
I3
tp178
a(S'p2_tl'
I179
tp179
a(S'w'
I1
tp180
a(S'p2_ll'
I1
tp181
a(S'w'
I5
tp182
a(S'p2_vo'
I6
tp183
a(S'w'
I706
tp184
a(S'p1_vo'
I8
tp185
a(S'w'
I6
tp186
a(S'p2_vo'
I8
tp187
a(S'w'
I721
tp188
a(S'p1_vo'
I10
tp189
a(S'w'
I6
tp190
a(S'p2_vo'
I10
tp191
a(S'w'
I734
tp192
a(S'p1_vo'
I12
tp193
a(S'w'
I7
tp194
a(S'p2_vo'
I12
tp195
a(S'w'
I727
tp196
a(S'p1_vo'
I14
tp197
a(S'w'
I6
tp198
a(S'p2_vo'
I14
tp199
a(S'w'
I740
tp200
a(S'p1_tl'
I119
tp201
a(S'p1_ll'
I1
tp202
a(S'w'
I5
tp203
a(S'p1_vo'
I6
tp204
a(S'w'
I4
tp205
a(S'p2_tl'
I189
tp206
a(S'p2_ll'
I1
tp207
a(S'w'
I5
tp208
a(S'p2_vo'
I6
tp209
a(S'w'
I708
tp210
a(S'p1_vo'
I8
tp211
a(S'w'
I6
tp212
a(S'p2_vo'
I8
tp213
a(S'w'
I727
tp214
a(S'p1_vo'
I10
tp215
a(S'w'
I7
tp216
a(S'p2_vo'
I10
tp217
a(S'w'
I727
tp218
a(S'p1_vo'
I12
tp219
a(S'w'
I7
tp220
a(S'p2_vo'
I12
tp221
a(S'w'
I720
tp222
a(S'p1_vo'
I14
tp223
a(S'w'
I7
tp224
a(S'p2_vo'
I14
tp225
a(S'w'
I746
tp226
a(S'p1_tl'
I126
tp227
a(S'p1_ll'
I1
tp228
a(S'w'
I5
tp229
a(S'p1_vo'
I6
tp230
a(S'w'
I4
tp231
a(S'p2_tl'
I201
tp232
a(S'p2_ll'
I1
tp233
a(S'w'
I5
tp234
a(S'p2_vo'
I6
tp235
a(S'w'
I707
tp236
a(S'p1_vo'
I8
tp237
a(S'w'
I7
tp238
a(S'p2_vo'
I8
tp239
a(S'w'
I727
tp240
a(S'p1_vo'
I10
tp241
a(S'w'
I7
tp242
a(S'p2_vo'
I10
tp243
a(S'w'
I727
tp244
a(S'p1_vo'
I12
tp245
a(S'w'
I7
tp246
a(S'p2_vo'
I12
tp247
a(S'w'
I741
tp248
a(S'p1_tl'
I134
tp249
a(S'p1_ll'
I1
tp250
a(S'w'
I5
tp251
a(S'p1_vo'
I6
tp252
a(S'w'
I3
tp253
a(S'p2_tl'
I213
tp254
a(S'w'
I1
tp255
a(S'p2_ll'
I1
tp256
a(S'w'
I5
tp257
a(S'p2_vo'
I6
tp258
a(S'w'
I706
tp259
a(S'p1_vo'
I8
tp260
a(S'w'
I6
tp261
a(S'p2_vo'
I8
tp262
a(S'w'
I721
tp263
a(S'p1_vo'
I10
tp264
a(S'w'
I6
tp265
a(S'p2_vo'
I10
tp266
a(S'w'
I734
tp267
a(S'p1_vo'
I12
tp268
a(S'w'
I7
tp269
a(S'p2_vo'
I12
tp270
a(S'w'
I727
tp271
a(S'p1_vo'
I14
tp272
a(S'w'
I7
tp273
a(S'p2_vo'
I14
tp274
a(S'w'
I739
tp275
a(S'p1_tl'
I142
tp276
a(S'p1_ll'
I1
tp277
a(S'w'
I5
tp278
a(S'p1_vo'
I6
tp279
a(S'w'
I4
tp280
a(S'p2_tl'
I225
tp281
a(S'p2_ll'
I1
tp282
a(S'w'
I5
tp283
a(S'p2_vo'
I6
tp284
a(S'w'
I708
tp285
a(S'p1_vo'
I8
tp286
a(S'w'
I6
tp287
a(S'p2_vo'
I8
tp288
a(S'w'
I721
tp289
a(S'p1_vo'
I10
tp290
a(S'w'
I6
tp291
a(S'p2_vo'
I10
tp292
a(S'w'
I734
tp293
a(S'p1_vo'
I12
tp294
a(S'w'
I7
tp295
a(S'p2_vo'
I12
tp296
a(S'w'
I727
tp297
a(S'p1_vo'
I14
tp298
a(S'w'
I7
tp299
a(S'p2_vo'
I14
tp300
a(S'w'
I739
tp301
a(S'p1_tl'
I150
tp302
a(S'p1_ll'
I1
tp303
a(S'w'
I5
tp304
a(S'p1_vo'
I6
tp305
a(S'w'
I4
tp306
a(S'p2_tl'
I239
tp307
a(S'p2_ll'
I1
tp308
a(S'w'
I5
tp309
a(S'p2_vo'
I6
tp310
a(S'w'
I708
tp311
a(S'p1_vo'
I8
tp312
a(S'w'
I6
tp313
a(S'p2_vo'
I8
tp314
a(S'w'
I721
tp315
a(S'p1_vo'
I10
tp316
a(S'w'
I6
tp317
a(S'p2_vo'
I10
tp318
a(S'w'
I734
tp319
a(S'p1_vo'
I12
tp320
a(S'w'
I7
tp321
a(S'p2_vo'
I12
tp322
a(S'w'
I727
tp323
a(S'p1_vo'
I14
tp324
a(S'w'
I7
tp325
a(S'p2_vo'
I14
tp326
a(S'w'
I741
tp327
a(S'p1_tl'
I159
tp328
a(S'p1_ll'
I1
tp329
a(S'w'
I5
tp330
a(S'p1_vo'
I6
tp331
a(S'w'
I4
tp332
a(S'p2_tl'
I253
tp333
a(S'p2_ll'
I1
tp334
a(S'w'
I5
tp335
a(S'p2_vo'
I6
tp336
a(S'w'
I706
tp337
a(S'p1_vo'
I8
tp338
a(S'w'
I6
tp339
a(S'p2_vo'
I8
tp340
a(S'w'
I721
tp341
a(S'p1_vo'
I10
tp342
a(S'w'
I6
tp343
a(S'p2_vo'
I10
tp344
a(S'w'
I734
tp345
a(S'p1_vo'
I12
tp346
a(S'w'
I7
tp347
a(S'p2_vo'
I12
tp348
a(S'w'
I727
tp349
a(S'p1_vo'
I14
tp350
a(S'w'
I7
tp351
a(S'p2_vo'
I14
tp352
a(S'w'
I1475
tp353
a(S'p1_tl'
I169
tp354
a(S'p1_ll'
I1
tp355
a(S'w'
I5
tp356
a(S'p1_vo'
I6
tp357
a(S'w'
I3
tp358
a(S'p2_tl'
I12
tp359
a(S'w'
I1
tp360
a(S'p2_ll'
I1
tp361
a(S'p2_th'
I1
tp362
a(S'w'
I5
tp363
a(S'p2_vo'
I6
tp364
a(S'w'
I706
tp365
a(S'p1_vo'
I8
tp366
a(S'w'
I6
tp367
a(S'p2_vo'
I8
tp368
a(S'w'
I727
tp369
a(S'p1_vo'
I10
tp370
a(S'w'
I7
tp371
a(S'p2_vo'
I10
tp372
a(S'w'
I720
tp373
a(S'p1_vo'
I12
tp374
a(S'w'
I7
tp375
a(S'p2_vo'
I12
tp376
a(S'w'
I734
tp377
a(S'p1_vo'
I14
tp378
a(S'w'
I6
tp379
a(S'p2_vo'
I14
tp380
a(S'w'
I742
tp381
a(S'p1_tl'
I179
tp382
a(S'p1_ll'
I1
tp383
a(S'w'
I5
tp384
a(S'p1_vo'
I6
tp385
a(S'w'
I3
tp386
a(S'p2_tl'
I28
tp387
a(S'w'
I1
tp388
a(S'p2_ll'
I1
tp389
a(S'w'
I5
tp390
a(S'p2_vo'
I6
tp391
a(S'w'
I699
tp392
a(S'p1_vo'
I8
tp393
a(S'w'
I6
tp394
a(S'p2_vo'
I8
tp395
a(S'w'
I734
tp396
a(S'p1_vo'
I10
tp397
a(S'w'
I7
tp398
a(S'p2_vo'
I10
tp399
a(S'w'
I727
tp400
a(S'p1_vo'
I12
tp401
a(S'w'
I7
tp402
a(S'p2_vo'
I12
tp403
a(S'w'
I727
tp404
a(S'p1_vo'
I14
tp405
a(S'w'
I6
tp406
a(S'p2_vo'
I14
tp407
a(S'w'
I1475
tp408
a(S'p1_tl'
I189
tp409
a(S'w'
I1
tp410
a(S'p1_ll'
I1
tp411
a(S'w'
I5
tp412
a(S'p1_vo'
I6
tp413
a(S'w'
I3
tp414
a(S'p2_tl'
I45
tp415
a(S'p2_ll'
I1
tp416
a(S'w'
I6
tp417
a(S'p2_vo'
I6
tp418
a(S'w'
I705
tp419
a(S'p1_vo'
I8
tp420
a(S'w'
I7
tp421
a(S'p2_vo'
I8
tp422
a(S'w'
I720
tp423
a(S'p1_vo'
I10
tp424
a(S'w'
I7
tp425
a(S'p2_vo'
I10
tp426
a(S'w'
I734
tp427
a(S'p1_vo'
I12
tp428
a(S'w'
I7
tp429
a(S'p2_vo'
I12
tp430
a(S'w'
I727
tp431
a(S'p1_vo'
I14
tp432
a(S'w'
I6
tp433
a(S'p2_vo'
I14
tp434
a(S'w'
I1475
tp435
a(S'p1_tl'
I201
tp436
a(S'w'
I1
tp437
a(S'p1_ll'
I1
tp438
a(S'w'
I5
tp439
a(S'p1_vo'
I6
tp440
a(S'w'
I3
tp441
a(S'p2_tl'
I63
tp442
a(S'p2_ll'
I1
tp443
a(S'w'
I5
tp444
a(S'p2_vo'
I6
tp445
a(S'w'
I706
tp446
a(S'p1_vo'
I8
tp447
a(S'w'
I7
tp448
a(S'p2_vo'
I8
tp449
a(S'w'
I720
tp450
a(S'p1_vo'
I10
tp451
a(S'w'
I7
tp452
a(S'p2_vo'
I10
tp453
a(S'w'
I734
tp454
a(S'p1_vo'
I12
tp455
a(S'w'
I6
tp456
a(S'p2_vo'
I12
tp457
a(S'w'
I721
tp458
a(S'p1_vo'
I14
tp459
a(S'w'
I6
tp460
a(S'p2_vo'
I14
tp461
a(S'w'
I1482
tp462
a(S'p1_tl'
I213
tp463
a(S'p1_ll'
I1
tp464
a(S'w'
I5
tp465
a(S'p1_vo'
I6
tp466
a(S'w'
I4
tp467
a(S'p2_tl'
I82
tp468
a(S'p2_ll'
I1
tp469
a(S'w'
I5
tp470
a(S'p2_vo'
I6
tp471
a(S'w'
I699
tp472
a(S'p1_vo'
I8
tp473
a(S'w'
I7
tp474
a(S'p2_vo'
I8
tp475
a(S'w'
I734
tp476
a(S'p1_vo'
I10
tp477
a(S'w'
I6
tp478
a(S'p2_vo'
I10
tp479
a(S'w'
I727
tp480
a(S'p1_vo'
I12
tp481
a(S'w'
I7
tp482
a(S'p2_vo'
I12
tp483
a(S'w'
I721
tp484
a(S'p1_vo'
I14
tp485
a(S'w'
I6
tp486
a(S'p2_vo'
I14
tp487
a(S'w'
I1461
tp488
a(S'p1_vo'
I13
tp489
a(S'w'
I7
tp490
a(S'p2_vo'
I13
tp491
a(S'w'
I748
tp492
a(S'p1_tl'
I225
tp493
a(S'p1_ll'
I1
tp494
a(S'w'
I5
tp495
a(S'p1_vo'
I6
tp496
a(S'w'
I3
tp497
a(S'p2_tl'
I103
tp498
a(S'w'
I1
tp499
a(S'p2_ll'
I1
tp500
a(S'w'
I5
tp501
a(S'p2_vo'
I6
tp502
a(S'w'
I706
tp503
a(S'p1_vo'
I8
tp504
a(S'w'
I6
tp505
a(S'p2_vo'
I8
tp506
a(S'w'
I721
tp507
a(S'p1_vo'
I10
tp508
a(S'w'
I6
tp509
a(S'p2_vo'
I10
tp510
a(S'w'
I734
tp511
a(S'p1_vo'
I12
tp512
a(S'w'
I7
tp513
a(S'p2_vo'
I12
tp514
a(S'w'
I727
tp515
a(S'p1_vo'
I14
tp516
a(S'w'
I6
tp517
a(S'p2_vo'
I14
tp518
a(S'w'
I1475
tp519
a(S'p1_tl'
I239
tp520
a(S'w'
I1
tp521
a(S'p1_ll'
I1
tp522
a(S'w'
I5
tp523
a(S'p1_vo'
I6
tp524
a(S'w'
I3
tp525
a(S'p2_tl'
I124
tp526
a(S'p2_ll'
I1
tp527
a(S'w'
I5
tp528
a(S'p2_vo'
I6
tp529
a(S'w'
I700
tp530
a(S'p1_vo'
I8
tp531
a(S'w'
I6
tp532
a(S'p2_vo'
I8
tp533
a(S'w'
I734
tp534
a(S'p1_vo'
I10
tp535
a(S'w'
I7
tp536
a(S'p2_vo'
I10
tp537
a(S'w'
I720
tp538
a(S'p1_vo'
I12
tp539
a(S'w'
I7
tp540
a(S'p2_vo'
I12
tp541
a(S'w'
I734
tp542
a(S'p1_vo'
I14
tp543
a(S'w'
I6
tp544
a(S'p2_vo'
I14
tp545
a(S'w'
I1461
tp546
a(S'p1_vo'
I13
tp547
a(S'w'
I7
tp548
a(S'p2_vo'
I13
tp549
a(S'w'
I1454
tp550
a(S'p1_vo'
I12
tp551
a(S'w'
I7
tp552
a(S'p2_vo'
I12
tp553
a(S'w'
I748
tp554
a(S'p1_tl'
I253
tp555
a(S'p1_ll'
I1
tp556
a(S'w'
I5
tp557
a(S'p1_vo'
I6
tp558
a(S'w'
I3
tp559
a(S'p2_tl'
I147
tp560
a(S'w'
I1
tp561
a(S'p2_ll'
I1
tp562
a(S'w'
I5
tp563
a(S'p2_vo'
I6
tp564
a(S'w'
I699
tp565
a(S'p1_vo'
I8
tp566
a(S'w'
I6
tp567
a(S'p2_vo'
I8
tp568
a(S'w'
I734
tp569
a(S'p1_vo'
I10
tp570
a(S'w'
I7
tp571
a(S'p2_vo'
I10
tp572
a(S'w'
I720
tp573
a(S'p1_vo'
I12
tp574
a(S'w'
I7
tp575
a(S'p2_vo'
I12
tp576
a(S'w'
I727
tp577
a(S'p1_vo'
I14
tp578
a(S'w'
I7
tp579
a(S'p2_vo'
I14
tp580
a(S'w'
I1461
tp581
a(S'p1_vo'
I13
tp582
a(S'w'
I6
tp583
a(S'p2_vo'
I13
tp584
a(S'w'
I1468
tp585
a(S'p1_vo'
I12
tp586
a(S'w'
I7
tp587
a(S'p2_vo'
I12
tp588
a(S'w'
I2209
tp589
a(S'p1_tl'
I12
tp590
a(S'p1_ll'
I1
tp591
a(S'p1_th'
I1
tp592
a(S'w'
I5
tp593
a(S'p1_vo'
I6
tp594
a(S'w'
I3
tp595
a(S'p2_tl'
I171
tp596
a(S'w'
I1
tp597
a(S'p2_ll'
I1
tp598
a(S'w'
I5
tp599
a(S'p2_vo'
I6
tp600
a(S'w'
I699
tp601
a(S'p1_vo'
I8
tp602
a(S'w'
I6
tp603
a(S'p2_vo'
I8
tp604
a(S'w'
I727
tp605
a(S'p1_vo'
I10
tp606
a(S'w'
I7
tp607
a(S'p2_vo'
I10
tp608
a(S'w'
I727
tp609
a(S'p1_vo'
I12
tp610
a(S'w'
I7
tp611
a(S'p2_vo'
I12
tp612
a(S'w'
I734
tp613
a(S'p1_vo'
I14
tp614
a(S'w'
I6
tp615
a(S'p2_vo'
I14
tp616
a(S'w'
I1455
tp617
a(S'p1_vo'
I13
tp618
a(S'w'
I6
tp619
a(S'p2_vo'
I13
tp620
a(S'w'
I1468
tp621
a(S'p1_vo'
I12
tp622
a(S'w'
I6
tp623
a(S'p2_vo'
I12
tp624
a(S'w'
I2195
tp625
a(S'p1_vo'
I11
tp626
a(S'w'
I7
tp627
a(S'p2_vo'
I11
tp628
a(S'w'
I2188
tp629
a(S'p1_vo'
I10
tp630
a(S'w'
I7
tp631
a(S'p2_vo'
I10
tp632
a(S'w'
I748
tp633
a(S'p1_tl'
I28
tp634
a(S'p1_ll'
I1
tp635
a(S'w'
I5
tp636
a(S'p1_vo'
I6
tp637
a(S'w'
I3
tp638
a(S'p2_tl'
I196
tp639
a(S'w'
I1
tp640
a(S'p2_ll'
I1
tp641
a(S'w'
I5
tp642
a(S'p2_vo'
I6
tp643
a(S'w'
I699
tp644
a(S'p1_vo'
I8
tp645
a(S'w'
I6
tp646
a(S'p2_vo'
I8
tp647
a(S'w'
I727
tp648
a(S'p1_vo'
I10
tp649
a(S'w'
I7
tp650
a(S'p2_vo'
I10
tp651
a(S'w'
I727
tp652
a(S'p1_vo'
I12
tp653
a(S'w'
I7
tp654
a(S'p2_vo'
I12
tp655
a(S'w'
I727
tp656
a(S'p1_vo'
I14
tp657
a(S'w'
I6
tp658
a(S'p2_vo'
I14
tp659
a(S'w'
I1462
tp660
a(S'p1_vo'
I13
tp661
a(S'w'
I6
tp662
a(S'p2_vo'
I13
tp663
a(S'w'
I1461
tp664
a(S'p1_vo'
I12
tp665
a(S'w'
I7
tp666
a(S'p2_vo'
I12
tp667
a(S'w'
I2195
tp668
a(S'p1_vo'
I11
tp669
a(S'w'
I6
tp670
a(S'p2_vo'
I11
tp671
a(S'w'
I2195
tp672
a(S'p1_vo'
I10
tp673
a(S'w'
I6
tp674
a(S'p2_vo'
I10
tp675
a(S'w'
I2196
tp676
a(S'p1_vo'
I9
tp677
a(S'w'
I6
tp678
a(S'p2_vo'
I9
tp679
a(S'w'
I2216
tp680
a(S'p1_tl'
I45
tp681
a(S'p1_ll'
I1
tp682
a(S'w'
I5
tp683
a(S'p1_vo'
I6
tp684
a(S'w'
I3
tp685
a(S'p2_tl'
I223
tp686
a(S'w'
I1
tp687
a(S'p2_ll'
I1
tp688
a(S'w'
I5
tp689
a(S'p2_vo'
I6
tp690
a(S'w'
I699
tp691
a(S'p1_vo'
I8
tp692
a(S'w'
I6
tp693
a(S'p2_vo'
I8
tp694
a(S'w'
I727
tp695
a(S'p1_vo'
I10
tp696
a(S'w'
I7
tp697
a(S'p2_vo'
I10
tp698
a(S'w'
I727
tp699
a(S'p1_vo'
I12
tp700
a(S'w'
I7
tp701
a(S'p2_vo'
I12
tp702
a(S'w'
I727
tp703
a(S'p1_vo'
I14
tp704
a(S'w'
I7
tp705
a(S'p2_vo'
I14
tp706
a(S'w'
I1461
tp707
a(S'p1_vo'
I13
tp708
a(S'w'
I6
tp709
a(S'p2_vo'
I13
tp710
a(S'w'
I1461
tp711
a(S'p1_vo'
I12
tp712
a(S'w'
I7
tp713
a(S'p2_vo'
I12
tp714
a(S'w'
I2195
tp715
a(S'p1_vo'
I11
tp716
a(S'w'
I6
tp717
a(S'p2_vo'
I11
tp718
a(S'w'
I2195
tp719
a(S'p1_vo'
I10
tp720
a(S'w'
I7
tp721
a(S'p2_vo'
I10
tp722
a(S'w'
I2195
tp723
a(S'p1_vo'
I9
tp724
a(S'w'
I6
tp725
a(S'p2_vo'
I9
tp726
a(S'w'
I2195
tp727
a(S'p1_vo'
I8
tp728
a(S'w'
I6
tp729
a(S'p2_vo'
I8
tp730
a(S'w'
I7376
tp731
a(S'p1_tl'
I171
tp732
a(S'p1_ll'
I1
tp733
a(S'w'
I5
tp734
a(S'p1_vo'
I6
tp735
a(S'w'
I4
tp736
a(S'p2_ll'
I1
tp737
a(S'w'
I5
tp738
a(S'p2_vo'
I6
tp739
a(S'w'
I3
tp740
a(S'tr_tl'
I159
tp741
a(S'w'
I1
tp742
a(S'tr_ll'
I1
tp743
a(S'tr_th'
I0
tp744
a(S'tr_lh'
I1
tp745
a(S'tr_lr'
I126
tp746
a(S'w'
I672
tp747
a(S'p1_vo'
I8
tp748
a(S'w'
I6
tp749
a(S'p2_vo'
I8
tp750
a(S'w'
I734
tp751
a(S'p1_vo'
I10
tp752
a(S'w'
I7
tp753
a(S'p2_vo'
I10
tp754
a(S'w'
I720
tp755
a(S'p1_vo'
I11
tp756
a(S'w'
I7
tp757
a(S'p2_vo'
I11
tp758
a(S'w'
I2195
tp759
a(S'p1_vo'
I10
tp760
a(S'w'
I6
tp761
a(S'p2_vo'
I10
tp762
a(S'w'
I2202
tp763
a(S'p1_vo'
I9
tp764
a(S'w'
I6
tp765
a(S'p2_vo'
I9
tp766
a(S'w'
I2189
tp767
a(S'p1_vo'
I8
tp768
a(S'w'
I6
tp769
a(S'p2_vo'
I8
tp770
a(S'w'
I2202
tp771
a(S'p1_vo'
I7
tp772
a(S'w'
I6
tp773
a(S'p2_vo'
I7
tp774
a(S'w'
I2188
tp775
a(S'p1_vo'
I6
tp776
a(S'w'
I7
tp777
a(S'p2_vo'
I6
tp778
a(S'w'
I2195
tp779
a(S'p1_vo'
I5
tp780
a(S'w'
I6
tp781
a(S'p2_vo'
I5
tp782
a(S'w'
I22760
tp783
a(S'p2_tl'
I26
tp784
a(S'p2_ll'
I1
tp785
a(S'p2_th'
I2
tp786
a(S'w'
I5
tp787
a(S'p2_vo'
I6
tp788
a(S'w'
I718
tp789
a(S'p2_vo'
I8
tp790
a(S'w'
I740
tp791
a(S'p2_vo'
I10
tp792
a(S'w'
I727
tp793
a(S'p2_vo'
I11
tp794
a(S'w'
I2208
tp795
a(S'p2_vo'
I10
tp796
a(S'w'
I2195
tp797
a(S'p2_vo'
I9
tp798
a(S'w'
I2201
tp799
a(S'p2_vo'
I8
tp800
a(S'w'
I2208
tp801
a(S'p2_vo'
I7
tp802
a(S'w'
I2195
tp803
a(S'p2_vo'
I6
tp804
a(S'w'
I2208
tp805
a(S'p2_vo'
I5
tp806
a(S'w'
I22020
tp807
a(S'p1_tl'
I63
tp808
a(S'w'
I1
tp809
a(S'p1_ll'
I1
tp810
a(S'w'
I5
tp811
a(S'p1_vo'
I6
tp812
a(S'w'
I10
tp813
a(S'tr_tl'
I106
tp814
a(S'tr_ll'
I1
tp815
a(S'w'
I698
tp816
a(S'p1_vo'
I8
tp817
a(S'w'
I741
tp818
a(S'p1_vo'
I10
tp819
a(S'w'
I727
tp820
a(S'p1_vo'
I11
tp821
a(S'w'
I2201
tp822
a(S'p1_vo'
I10
tp823
a(S'w'
I2208
tp824
a(S'p1_vo'
I9
tp825
a(S'w'
I2195
tp826
a(S'p1_vo'
I8
tp827
a(S'w'
I2208
tp828
a(S'p1_vo'
I7
tp829
a(S'w'
I2195
tp830
a(S'p1_vo'
I6
tp831
a(S'w'
I2201
tp832
a(S'p1_vo'
I5
tp833
a(S'w'
I22758
tp834
a(S'p1_tl'
I103
tp835
a(S'p1_ll'
I1
tp836
a(S'w'
I5
tp837
a(S'p1_vo'
I6
tp838
a(S'w'
I719
tp839
a(S'p1_vo'
I8
tp840
a(S'w'
I740
tp841
a(S'p1_vo'
I10
tp842
a(S'w'
I728
tp843
a(S'p1_vo'
I11
tp844
a(S'w'
I2208
tp845
a(S'p1_vo'
I10
tp846
a(S'w'
I2194
tp847
a(S'p1_vo'
I9
tp848
a(S'w'
I2208
tp849
a(S'p1_vo'
I8
tp850
a(S'w'
I2202
tp851
a(S'p1_vo'
I7
tp852
a(S'w'
I2195
tp853
a(S'p1_vo'
I6
tp854
a(S'w'
I2208
tp855
a(S'p1_vo'
I5
tp856
a(S'w'
I11726
tp857
a(S'ch_no'
I1
tp858
a(S'ch_tr'
I1
tp859
a(S'ch_p2'
I1
tp860
a(S'ch_p1'
I1
tp861
a(S'w'
I8
tp862
a(S'w'
I7
tp863
a(S'w'
I2
tp864
a(S'w'
I5
tp865
a(S'w'
I10254
tp866
a(S'w'
I26
tp867
a(S'p1_tl'
I124
tp868
a(S'p1_ll'
I1
tp869
a(S'w'
I5
tp870
a(S'p1_vo'
I6
tp871
a(S'w'
I11
tp872
a(S'tr_tl'
I112
tp873
a(S'tr_ll'
I1
tp874
a(S'w'
I697
tp875
a(S'p1_vo'
I8
tp876
a(S'w'
I740
tp877
a(S'p1_vo'
I10
tp878
a(S'w'
I728
tp879
a(S'p1_vo'
I11
tp880
a(S'w'
I2208
tp881
a(S'p1_vo'
I10
tp882
a(S'w'
I2201
tp883
a(S'p1_vo'
I9
tp884
a(S'w'
I2195
tp885
a(S'p1_vo'
I8
tp886
a(S'w'
I2208
tp887
a(S'p1_vo'
I7
tp888
a(S'w'
I2195
tp889
a(S'p1_vo'
I6
tp890
a(S'w'
I2207
tp891
a(S'p1_vo'
I5
tp892
a(S'w'
I22004
tp893
a(S'w'
I22
tp894
a(S'p2_tl'
I128
tp895
a(S'p2_ll'
I1
tp896
a(S'w'
I6
tp897
a(S'p2_vo'
I6
tp898
a(S'w'
I717
tp899
a(S'p2_vo'
I8
tp900
a(S'w'
I733
tp901
a(S'p2_vo'
I10
tp902
a(S'w'
I741
tp903
a(S'p2_vo'
I11
tp904
a(S'w'
I2195
tp905
a(S'p2_vo'
I10
tp906
a(S'w'
I2208
tp907
a(S'p2_vo'
I9
tp908
a(S'w'
I2195
tp909
a(S'p2_vo'
I8
tp910
a(S'w'
I2208
tp911
a(S'p2_vo'
I7
tp912
a(S'w'
I2201
tp913
a(S'p2_vo'
I6
tp914
a(S'w'
I2195
tp915
a(S'p2_vo'
I5
tp916
a(S'w'
I3679
tp917
a(S'p2_tl'
I58
tp918
a(S'p2_ll'
I1
tp919
a(S'w'
I5
tp920
a(S'p2_vo'
I6
tp921
a(S'w'
I719
tp922
a(S'p2_vo'
I8
tp923
a(S'w'
I740
tp924
a(S'p2_vo'
I10
tp925
a(S'w'
I727
tp926
a(S'p2_vo'
I11
tp927
a(S'w'
I2202
tp928
a(S'p2_vo'
I10
tp929
a(S'w'
I2208
tp930
a(S'p2_vo'
I9
tp931
a(S'w'
I2194
tp932
a(S'p2_vo'
I8
tp933
a(S'w'
I2208
tp934
a(S'p2_vo'
I7
tp935
a(S'w'
I2195
tp936
a(S'p2_vo'
I6
tp937
a(S'w'
I2202
tp938
a(S'p2_vo'
I5
tp939
a(S'w'
I3680
tp940
a(S'p2_tl'
I26
tp941
a(S'p2_ll'
I1
tp942
a(S'w'
I5
tp943
a(S'p2_vo'
I6
tp944
a(S'w'
I717
tp945
a(S'p2_vo'
I8
tp946
a(S'w'
I741
tp947
a(S'p2_vo'
I10
tp948
a(S'w'
I727
tp949
a(S'p2_vo'
I11
tp950
a(S'w'
I2208
tp951
a(S'p2_vo'
I10
tp952
a(S'w'
I2195
tp953
a(S'p2_vo'
I9
tp954
a(S'w'
I2201
tp955
a(S'p2_vo'
I8
tp956
a(S'w'
I2208
tp957
a(S'p2_vo'
I7
tp958
a(S'w'
I2195
tp959
a(S'p2_vo'
I6
tp960
a(S'w'
I2208
tp961
a(S'p2_vo'
I5
tp962
a(S'w'
I22028
tp963
a(S'p2_tl'
I196
tp964
a(S'p2_ll'
I1
tp965
a(S'p2_th'
I1
tp966
a(S'w'
I5
tp967
a(S'p2_vo'
I6
tp968
a(S'w'
I3
tp969
a(S'tr_tl'
I142
tp970
a(S'w'
I1
tp971
a(S'tr_ll'
I1
tp972
a(S'w'
I704
tp973
a(S'p2_vo'
I8
tp974
a(S'w'
I741
tp975
a(S'p2_vo'
I10
tp976
a(S'w'
I727
tp977
a(S'p2_vo'
I11
tp978
a(S'w'
I2201
tp979
a(S'p2_vo'
I10
tp980
a(S'w'
I2208
tp981
a(S'p2_vo'
I9
tp982
a(S'w'
I2195
tp983
a(S'p2_vo'
I8
tp984
a(S'w'
I2208
tp985
a(S'p2_vo'
I7
tp986
a(S'w'
I1480
tp987
a(S'tr_tl'
I134
tp988
a(S'tr_ll'
I1
tp989
a(S'w'
I715
tp990
a(S'p2_vo'
I6
tp991
a(S'w'
I2201
tp992
a(S'p2_vo'
I5
tp993
a(S'w'
I10293
tp994
a(S'tr_tl'
I126
tp995
a(S'tr_ll'
I1
tp996
a(S'w'
I12473
tp997
a(S'p1_tl'
I147
tp998
a(S'p1_ll'
I1
tp999
a(S'w'
I6
tp1000
a(S'p1_vo'
I6
tp1001
a(S'w'
I5
tp1002
a(S'p2_du'
I0
tp1003
a(S'p2_vo'
I0
tp1004
a(S'w'
I3
tp1005
a(S'tr_tl'
I119
tp1006
a(S'tr_ll'
I1
tp1007
a(S'w'
I695
tp1008
a(S'p1_vo'
I8
tp1009
a(S'w'
I740
tp1010
a(S'p1_vo'
I10
tp1011
a(S'w'
I728
tp1012
a(S'p1_vo'
I11
tp1013
a(S'w'
I2208
tp1014
a(S'p1_vo'
I10
tp1015
a(S'w'
I2194
tp1016
a(S'p1_vo'
I9
tp1017
a(S'w'
I2202
tp1018
a(S'p1_vo'
I8
tp1019
a(S'w'
I2208
tp1020
a(S'p1_vo'
I7
tp1021
a(S'w'
I2195
tp1022
a(S'p1_vo'
I6
tp1023
a(S'w'
I2208
tp1024
a(S'p1_vo'
I5
tp1025
a(S'w'
I22025
tp1026
a(S'p2_tl'
I128
tp1027
a(S'w'
I1
tp1028
a(S'p2_ll'
I1
tp1029
a(S'p2_th'
I2
tp1030
a(S'w'
I5
tp1031
a(S'p2_du'
I2
tp1032
a(S'p2_vo'
I6
tp1033
a(S'w'
I717
tp1034
a(S'p2_vo'
I8
tp1035
a(S'w'
I740
tp1036
a(S'p2_vo'
I10
tp1037
a(S'w'
I727
tp1038
a(S'p2_vo'
I11
tp1039
a(S'w'
I2202
tp1040
a(S'p2_vo'
I10
tp1041
a(S'w'
I2208
tp1042
a(S'p2_vo'
I9
tp1043
a(S'w'
I2195
tp1044
a(S'p2_vo'
I8
tp1045
a(S'w'
I2208
tp1046
a(S'p2_vo'
I7
tp1047
a(S'w'
I2194
tp1048
a(S'p2_vo'
I6
tp1049
a(S'w'
I2202
tp1050
a(S'p2_vo'
I5
tp1051
a(S'w'
I3679
tp1052
a(S'p2_tl'
I58
tp1053
a(S'p2_ll'
I1
tp1054
a(S'w'
I5
tp1055
a(S'p2_vo'
I6
tp1056
a(S'w'
I719
tp1057
a(S'p2_vo'
I8
tp1058
a(S'w'
I740
tp1059
a(S'p2_vo'
I10
tp1060
a(S'w'
I727
tp1061
a(S'p2_vo'
I11
tp1062
a(S'w'
I2208
tp1063
a(S'p2_vo'
I10
tp1064
a(S'w'
I2195
tp1065
a(S'p2_vo'
I9
tp1066
a(S'w'
I2202
tp1067
a(S'p2_vo'
I8
tp1068
a(S'w'
I2208
tp1069
a(S'p2_vo'
I7
tp1070
a(S'w'
I2194
tp1071
a(S'p2_vo'
I6
tp1072
a(S'w'
I2208
tp1073
a(S'p2_vo'
I5
tp1074
a(S'w'
I3674
tp1075
a(S'p2_tl'
I26
tp1076
a(S'p2_ll'
I1
tp1077
a(S'w'
I5
tp1078
a(S'p2_vo'
I6
tp1079
a(S'w'
I717
tp1080
a(S'p2_vo'
I8
tp1081
a(S'w'
I741
tp1082
a(S'p2_vo'
I10
tp1083
a(S'w'
I727
tp1084
a(S'p2_vo'
I11
tp1085
a(S'w'
I2208
tp1086
a(S'p2_vo'
I10
tp1087
a(S'w'
I2195
tp1088
a(S'p2_vo'
I9
tp1089
a(S'w'
I2208
tp1090
a(S'p2_vo'
I8
tp1091
a(S'w'
I2201
tp1092
a(S'p2_vo'
I7
tp1093
a(S'w'
I2195
tp1094
a(S'p2_vo'
I6
tp1095
a(S'w'
I2208
tp1096
a(S'p2_vo'
I5
tp1097
a(S'w'
I22019
tp1098
a(S'p2_tl'
I58
tp1099
a(S'p2_ll'
I1
tp1100
a(S'w'
I5
tp1101
a(S'p2_vo'
I6
tp1102
a(S'w'
I717
tp1103
a(S'p2_vo'
I8
tp1104
a(S'w'
I741
tp1105
a(S'p2_vo'
I10
tp1106
a(S'w'
I727
tp1107
a(S'p2_vo'
I11
tp1108
a(S'w'
I2208
tp1109
a(S'p2_vo'
I10
tp1110
a(S'w'
I2201
tp1111
a(S'p2_vo'
I9
tp1112
a(S'w'
I2195
tp1113
a(S'p2_vo'
I8
tp1114
a(S'w'
I2208
tp1115
a(S'p2_vo'
I7
tp1116
a(S'w'
I2195
tp1117
a(S'p2_vo'
I6
tp1118
a(S'w'
I2208
tp1119
a(S'p2_vo'
I5
tp1120
a(S'w'
I3672
tp1121
a(S'p2_tl'
I128
tp1122
a(S'w'
I1
tp1123
a(S'p2_ll'
I1
tp1124
a(S'w'
I5
tp1125
a(S'p2_vo'
I6
tp1126
a(S'w'
I718
tp1127
a(S'p2_vo'
I8
tp1128
a(S'w'
I741
tp1129
a(S'p2_vo'
I10
tp1130
a(S'w'
I727
tp1131
a(S'p2_vo'
I11
tp1132
a(S'w'
I2208
tp1133
a(S'p2_vo'
I10
tp1134
a(S'w'
I2195
tp1135
a(S'p2_vo'
I9
tp1136
a(S'w'
I2201
tp1137
a(S'p2_vo'
I8
tp1138
a(S'w'
I2208
tp1139
a(S'p2_vo'
I7
tp1140
a(S'w'
I2195
tp1141
a(S'p2_vo'
I6
tp1142
a(S'w'
I2208
tp1143
a(S'p2_vo'
I5
tp1144
a(S'w'
I2953
tp1145
a(S'p2_tl'
I166
tp1146
a(S'w'
I1
tp1147
a(S'p2_ll'
I1
tp1148
a(S'w'
I5
tp1149
a(S'p2_vo'
I6
tp1150
a(S'w'
I703
tp1151
a(S'p2_vo'
I8
tp1152
a(S'w'
I734
tp1153
a(S'p2_vo'
I10
tp1154
a(S'w'
I740
tp1155
a(S'p2_vo'
I11
tp1156
a(S'w'
I2195
tp1157
a(S'p2_vo'
I10
tp1158
a(S'w'
I2208
tp1159
a(S'p2_vo'
I9
tp1160
a(S'w'
I2195
tp1161
a(S'p2_vo'
I8
tp1162
a(S'w'
I2208
tp1163
a(S'p2_vo'
I7
tp1164
a(S'w'
I2201
tp1165
a(S'p2_vo'
I6
tp1166
a(S'w'
I2195
tp1167
a(S'p2_vo'
I5
tp1168
a(S'w'
I22751
tp1169
a(S'p1_tl'
I171
tp1170
a(S'p1_ll'
I1
tp1171
a(S'w'
I5
tp1172
a(S'p1_vo'
I6
tp1173
a(S'w'
I719
tp1174
a(S'p1_vo'
I8
tp1175
a(S'w'
I740
tp1176
a(S'p1_vo'
I10
tp1177
a(S'w'
I728
tp1178
a(S'p1_vo'
I11
tp1179
a(S'w'
I2208
tp1180
a(S'p1_vo'
I10
tp1181
a(S'w'
I2194
tp1182
a(S'p1_vo'
I9
tp1183
a(S'w'
I2202
tp1184
a(S'p1_vo'
I8
tp1185
a(S'w'
I2208
tp1186
a(S'p1_vo'
I7
tp1187
a(S'w'
I2195
tp1188
a(S'p1_vo'
I6
tp1189
a(S'w'
I2208
tp1190
a(S'p1_vo'
I5
tp1191
a(S'w'
I22017
tp1192
a(S'p1_tl'
I28
tp1193
a(S'p1_ll'
I1
tp1194
a(S'w'
I5
tp1195
a(S'p1_vo'
I6
tp1196
a(S'w'
I719
tp1197
a(S'p1_vo'
I8
tp1198
a(S'w'
I740
tp1199
a(S'p1_vo'
I10
tp1200
a(S'w'
I728
tp1201
a(S'p1_vo'
I11
tp1202
a(S'w'
I2201
tp1203
a(S'p1_vo'
I10
tp1204
a(S'w'
I2208
tp1205
a(S'p1_vo'
I9
tp1206
a(S'w'
I2195
tp1207
a(S'p1_vo'
I8
tp1208
a(S'w'
I2208
tp1209
a(S'p1_vo'
I7
tp1210
a(S'w'
I2194
tp1211
a(S'p1_vo'
I6
tp1212
a(S'w'
I2202
tp1213
a(S'p1_vo'
I5
tp1214
a(S'w'
I22757
tp1215
a(S'p1_tl'
I171
tp1216
a(S'p1_ll'
I1
tp1217
a(S'w'
I6
tp1218
a(S'p1_vo'
I6
tp1219
a(S'w'
I719
tp1220
a(S'p1_vo'
I8
tp1221
a(S'w'
I740
tp1222
a(S'p1_vo'
I10
tp1223
a(S'w'
I727
tp1224
a(S'p1_vo'
I11
tp1225
a(S'w'
I2208
tp1226
a(S'p1_vo'
I10
tp1227
a(S'w'
I2195
tp1228
a(S'p1_vo'
I9
tp1229
a(S'w'
I2201
tp1230
a(S'p1_vo'
I8
tp1231
a(S'w'
I2208
tp1232
a(S'p1_vo'
I7
tp1233
a(S'w'
I2195
tp1234
a(S'p1_vo'
I6
tp1235
a(S'w'
I2208
tp1236
a(S'p1_vo'
I5
tp1237
a(S'w'
I22035
tp1238
a(S'p1_tl'
I124
tp1239
a(S'p1_ll'
I1
tp1240
a(S'w'
I5
tp1241
a(S'p1_vo'
I6
tp1242
a(S'w'
I4
tp1243
a(S'p2_tl'
I26
tp1244
a(S'p2_ll'
I1
tp1245
a(S'w'
I5
tp1246
a(S'p2_vo'
I6
tp1247
a(S'w'
I3
tp1248
a(S'tr_tl'
I112
tp1249
a(S'w'
I1
tp1250
a(S'tr_ll'
I1
tp1251
a(S'w'
I688
tp1252
a(S'p1_vo'
I8
tp1253
a(S'w'
I7
tp1254
a(S'p2_vo'
I8
tp1255
a(S'w'
I734
tp1256
a(S'p1_vo'
I10
tp1257
a(S'w'
I6
tp1258
a(S'p2_vo'
I10
tp1259
a(S'w'
I721
tp1260
a(S'p1_vo'
I11
tp1261
a(S'w'
I6
tp1262
a(S'p2_vo'
I11
tp1263
a(S'w'
I2195
tp1264
a(S'p1_vo'
I10
tp1265
a(S'w'
I7
tp1266
a(S'p2_vo'
I10
tp1267
a(S'w'
I2201
tp1268
a(S'p1_vo'
I9
tp1269
a(S'w'
I7
tp1270
a(S'p2_vo'
I9
tp1271
a(S'w'
I2188
tp1272
a(S'p1_vo'
I8
tp1273
a(S'w'
I7
tp1274
a(S'p2_vo'
I8
tp1275
a(S'w'
I2201
tp1276
a(S'p1_vo'
I7
tp1277
a(S'w'
I7
tp1278
a(S'p2_vo'
I7
tp1279
a(S'w'
I2188
tp1280
a(S'p1_vo'
I6
tp1281
a(S'w'
I7
tp1282
a(S'p2_vo'
I6
tp1283
a(S'w'
I2194
tp1284
a(S'p1_vo'
I5
tp1285
a(S'w'
I7
tp1286
a(S'p2_vo'
I5
tp1287
a(S'w'
I22752
tp1288
a(S'p1_tl'
I63
tp1289
a(S'p1_ll'
I1
tp1290
a(S'w'
I5
tp1291
a(S'p1_vo'
I6
tp1292
a(S'w'
I718
tp1293
a(S'p1_vo'
I8
tp1294
a(S'w'
I740
tp1295
a(S'p1_vo'
I10
tp1296
a(S'w'
I728
tp1297
a(S'p1_vo'
I11
tp1298
a(S'w'
I2208
tp1299
a(S'p1_vo'
I10
tp1300
a(S'w'
I2194
tp1301
a(S'p1_vo'
I9
tp1302
a(S'w'
I2208
tp1303
a(S'p1_vo'
I8
tp1304
a(S'w'
I2202
tp1305
a(S'p1_vo'
I7
tp1306
a(S'w'
I2195
tp1307
a(S'p1_vo'
I6
tp1308
a(S'w'
I2208
tp1309
a(S'p1_vo'
I5
tp1310
a(S'w'
I22034
tp1311
a(S'tr_tl'
I66
tp1312
a(S'tr_ll'
I1
tp1313
a(S'w'
I37415
tp1314
a(S'p2_tl'
I196
tp1315
a(S'w'
I1
tp1316
a(S'p2_ll'
I1
tp1317
a(S'p2_th'
I1
tp1318
a(S'w'
I5
tp1319
a(S'p2_vo'
I6
tp1320
a(S'w'
I717
tp1321
a(S'p2_vo'
I8
tp1322
a(S'w'
I734
tp1323
a(S'p2_vo'
I10
tp1324
a(S'w'
I740
tp1325
a(S'p2_vo'
I11
tp1326
a(S'w'
I2195
tp1327
a(S'p2_vo'
I10
tp1328
a(S'w'
I2208
tp1329
a(S'p2_vo'
I9
tp1330
a(S'w'
I2195
tp1331
a(S'p2_vo'
I8
tp1332
a(S'w'
I2208
tp1333
a(S'p2_vo'
I7
tp1334
a(S'w'
I2201
tp1335
a(S'p2_vo'
I6
tp1336
a(S'w'
I2195
tp1337
a(S'p2_vo'
I5
tp1338
a(S'w'
I22775
tp1339
a(S'tr_tl'
I70
tp1340
a(S'tr_ll'
I1
tp1341
a(S'w'
I37400
tp1342
a(S'p1_tl'
I124
tp1343
a(S'p1_ll'
I1
tp1344
a(S'w'
I6
tp1345
a(S'p1_vo'
I6
tp1346
a(S'w'
I717
tp1347
a(S'p1_vo'
I8
tp1348
a(S'w'
I741
tp1349
a(S'p1_vo'
I10
tp1350
a(S'w'
I727
tp1351
a(S'p1_vo'
I11
tp1352
a(S'w'
I2201
tp1353
a(S'p1_vo'
I10
tp1354
a(S'w'
I2208
tp1355
a(S'p1_vo'
I9
tp1356
a(S'w'
I2195
tp1357
a(S'p1_vo'
I8
tp1358
a(S'w'
I2208
tp1359
a(S'p1_vo'
I7
tp1360
a(S'w'
I2195
tp1361
a(S'p1_vo'
I6
tp1362
a(S'w'
I2201
tp1363
a(S'p1_vo'
I5
tp1364
a(S'w'
I3679
tp1365
a(S'p1_tl'
I82
tp1366
a(S'p1_ll'
I1
tp1367
a(S'w'
I5
tp1368
a(S'p1_vo'
I6
tp1369
a(S'w'
I719
tp1370
a(S'p1_vo'
I8
tp1371
a(S'w'
I741
tp1372
a(S'p1_vo'
I10
tp1373
a(S'w'
I727
tp1374
a(S'p1_vo'
I11
tp1375
a(S'w'
I2208
tp1376
a(S'p1_vo'
I10
tp1377
a(S'w'
I2201
tp1378
a(S'p1_vo'
I9
tp1379
a(S'w'
I2195
tp1380
a(S'p1_vo'
I8
tp1381
a(S'w'
I2208
tp1382
a(S'p1_vo'
I7
tp1383
a(S'w'
I2195
tp1384
a(S'p1_vo'
I6
tp1385
a(S'w'
I2208
tp1386
a(S'p1_vo'
I5
tp1387
a(S'w'
I3673
tp1388
a(S'p1_tl'
I63
tp1389
a(S'p1_ll'
I1
tp1390
a(S'w'
I5
tp1391
a(S'p1_vo'
I6
tp1392
a(S'w'
I718
tp1393
a(S'p1_vo'
I8
tp1394
a(S'w'
I740
tp1395
a(S'p1_vo'
I10
tp1396
a(S'w'
I728
tp1397
a(S'p1_vo'
I11
tp1398
a(S'w'
I2208
tp1399
a(S'p1_vo'
I10
tp1400
a(S'w'
I2195
tp1401
a(S'p1_vo'
I9
tp1402
a(S'w'
I2201
tp1403
a(S'p1_vo'
I8
tp1404
a(S'w'
I2208
tp1405
a(S'p1_vo'
I7
tp1406
a(S'w'
I2195
tp1407
a(S'p1_vo'
I6
tp1408
a(S'w'
I2208
tp1409
a(S'p1_vo'
I5
tp1410
a(S'w'
I22027
tp1411
a(S'p1_tl'
I12
tp1412
a(S'p1_ll'
I1
tp1413
a(S'w'
I5
tp1414
a(S'p1_vo'
I6
tp1415
a(S'w'
I11
tp1416
a(S'tr_tl'
I94
tp1417
a(S'tr_ll'
I1
tp1418
a(S'w'
I698
tp1419
a(S'p1_vo'
I8
tp1420
a(S'w'
I740
tp1421
a(S'p1_vo'
I10
tp1422
a(S'w'
I728
tp1423
a(S'p1_vo'
I11
tp1424
a(S'w'
I2201
tp1425
a(S'p1_vo'
I10
tp1426
a(S'w'
I2208
tp1427
a(S'p1_vo'
I9
tp1428
a(S'w'
I2195
tp1429
a(S'p1_vo'
I8
tp1430
a(S'w'
I2208
tp1431
a(S'p1_vo'
I7
tp1432
a(S'w'
I1487
tp1433
a(S'tr_tl'
I84
tp1434
a(S'tr_ll'
I1
tp1435
a(S'w'
I708
tp1436
a(S'p1_vo'
I6
tp1437
a(S'w'
I2201
tp1438
a(S'p1_vo'
I5
tp1439
a(S'w'
I9566
tp1440
a(S'tr_tl'
I79
tp1441
a(S'tr_ll'
I1
tp1442
a(S'w'
I13209
tp1443
a(S'p1_tl'
I28
tp1444
a(S'w'
I1
tp1445
a(S'p1_ll'
I1
tp1446
a(S'w'
I5
tp1447
a(S'p1_vo'
I6
tp1448
a(S'w'
I5
tp1449
a(S'p2_du'
I0
tp1450
a(S'p2_vo'
I0
tp1451
a(S'w'
I3
tp1452
a(S'tr_tl'
I84
tp1453
a(S'w'
I1
tp1454
a(S'tr_ll'
I1
tp1455
a(S'w'
I692
tp1456
a(S'p1_vo'
I8
tp1457
a(S'w'
I740
tp1458
a(S'p1_vo'
I10
tp1459
a(S'w'
I727
tp1460
a(S'p1_vo'
I11
tp1461
a(S'w'
I2208
tp1462
a(S'p1_vo'
I10
tp1463
a(S'w'
I2195
tp1464
a(S'p1_vo'
I9
tp1465
a(S'w'
I2208
tp1466
a(S'p1_vo'
I8
tp1467
a(S'w'
I2201
tp1468
a(S'p1_vo'
I7
tp1469
a(S'w'
I2195
tp1470
a(S'p1_vo'
I6
tp1471
a(S'w'
I2208
tp1472
a(S'p1_vo'
I5
tp1473
a(S'w'
I22026
tp1474
a(S'p2_tl'
I223
tp1475
a(S'p2_ll'
I1
tp1476
a(S'w'
I5
tp1477
a(S'p2_du'
I2
tp1478
a(S'p2_vo'
I6
tp1479
a(S'w'
I717
tp1480
a(S'p2_vo'
I8
tp1481
a(S'w'
I741
tp1482
a(S'p2_vo'
I10
tp1483
a(S'w'
I727
tp1484
a(S'p2_vo'
I11
tp1485
a(S'w'
I2208
tp1486
a(S'p2_vo'
I10
tp1487
a(S'w'
I2201
tp1488
a(S'p2_vo'
I9
tp1489
a(S'w'
I2195
tp1490
a(S'p2_vo'
I8
tp1491
a(S'w'
I2208
tp1492
a(S'p2_vo'
I7
tp1493
a(S'w'
I2195
tp1494
a(S'p2_vo'
I6
tp1495
a(S'w'
I2208
tp1496
a(S'p2_vo'
I5
tp1497
a(S'w'
I3673
tp1498
a(S'p2_tl'
I171
tp1499
a(S'p2_ll'
I1
tp1500
a(S'w'
I5
tp1501
a(S'p2_vo'
I6
tp1502
a(S'w'
I718
tp1503
a(S'p2_vo'
I8
tp1504
a(S'w'
I741
tp1505
a(S'p2_vo'
I10
tp1506
a(S'w'
I727
tp1507
a(S'p2_vo'
I11
tp1508
a(S'w'
I2208
tp1509
a(S'p2_vo'
I10
tp1510
a(S'w'
I2195
tp1511
a(S'p2_vo'
I9
tp1512
a(S'w'
I2201
tp1513
a(S'p2_vo'
I8
tp1514
a(S'w'
I2208
tp1515
a(S'p2_vo'
I7
tp1516
a(S'w'
I2195
tp1517
a(S'p2_vo'
I6
tp1518
a(S'w'
I2208
tp1519
a(S'p2_vo'
I5
tp1520
a(S'w'
I2940
tp1521
a(S'p2_tl'
I147
tp1522
a(S'p2_ll'
I1
tp1523
a(S'w'
I5
tp1524
a(S'p2_vo'
I6
tp1525
a(S'w'
I717
tp1526
a(S'p2_vo'
I8
tp1527
a(S'w'
I734
tp1528
a(S'p2_vo'
I10
tp1529
a(S'w'
I740
tp1530
a(S'p2_vo'
I11
tp1531
a(S'w'
I2195
tp1532
a(S'p2_vo'
I10
tp1533
a(S'w'
I2208
tp1534
a(S'p2_vo'
I9
tp1535
a(S'w'
I2195
tp1536
a(S'p2_vo'
I8
tp1537
a(S'w'
I2208
tp1538
a(S'p2_vo'
I7
tp1539
a(S'w'
I2201
tp1540
a(S'p2_vo'
I6
tp1541
a(S'w'
I2195
tp1542
a(S'p2_vo'
I5
tp1543
a(S'w'
I22768
tp1544
a(S'p2_tl'
I171
tp1545
a(S'w'
I1
tp1546
a(S'p2_ll'
I1
tp1547
a(S'w'
I5
tp1548
a(S'p2_vo'
I6
tp1549
a(S'w'
I3
tp1550
a(S'tr_tl'
I142
tp1551
a(S'tr_ll'
I1
tp1552
a(S'w'
I705
tp1553
a(S'p2_vo'
I8
tp1554
a(S'w'
I740
tp1555
a(S'p2_vo'
I10
tp1556
a(S'w'
I728
tp1557
a(S'p2_vo'
I11
tp1558
a(S'w'
I2208
tp1559
a(S'p2_vo'
I10
tp1560
a(S'w'
I2194
tp1561
a(S'p2_vo'
I9
tp1562
a(S'w'
I2202
tp1563
a(S'p2_vo'
I8
tp1564
a(S'w'
I2208
tp1565
a(S'p2_vo'
I7
tp1566
a(S'w'
I2195
tp1567
a(S'p2_vo'
I6
tp1568
a(S'w'
I2208
tp1569
a(S'p2_vo'
I5
tp1570
a(S'w'
I3681
tp1571
a(S'tr_tl'
I134
tp1572
a(S'w'
I1
tp1573
a(S'tr_ll'
I1
tp1574
a(S'w'
I18346
tp1575
a(S'p1_tl'
I82
tp1576
a(S'p1_ll'
I1
tp1577
a(S'w'
I5
tp1578
a(S'p1_vo'
I6
tp1579
a(S'w'
I3
tp1580
a(S'p2_tl'
I103
tp1581
a(S'w'
I1
tp1582
a(S'p2_ll'
I1
tp1583
a(S'w'
I5
tp1584
a(S'p2_vo'
I6
tp1585
a(S'w'
I3
tp1586
a(S'tr_tl'
I119
tp1587
a(S'tr_ll'
I1
tp1588
a(S'w'
I689
tp1589
a(S'p1_vo'
I8
tp1590
a(S'w'
I6
tp1591
a(S'p2_vo'
I8
tp1592
a(S'w'
I734
tp1593
a(S'p1_vo'
I10
tp1594
a(S'w'
I7
tp1595
a(S'p2_vo'
I10
tp1596
a(S'w'
I720
tp1597
a(S'p1_vo'
I11
tp1598
a(S'w'
I7
tp1599
a(S'p2_vo'
I11
tp1600
a(S'w'
I2195
tp1601
a(S'p1_vo'
I10
tp1602
a(S'w'
I6
tp1603
a(S'p2_vo'
I10
tp1604
a(S'w'
I2202
tp1605
a(S'p1_vo'
I9
tp1606
a(S'w'
I6
tp1607
a(S'p2_vo'
I9
tp1608
a(S'w'
I2189
tp1609
a(S'p1_vo'
I8
tp1610
a(S'w'
I6
tp1611
a(S'p2_vo'
I8
tp1612
a(S'w'
I2202
tp1613
a(S'p1_vo'
I7
tp1614
a(S'w'
I6
tp1615
a(S'p2_vo'
I7
tp1616
a(S'w'
I2189
tp1617
a(S'p1_vo'
I6
tp1618
a(S'w'
I6
tp1619
a(S'p2_vo'
I6
tp1620
a(S'w'
I2195
tp1621
a(S'p1_vo'
I5
tp1622
a(S'w'
I6
tp1623
a(S'p2_vo'
I5
tp1624
a(S'w'
I3680
tp1625
a(S'p2_tl'
I147
tp1626
a(S'p2_ll'
I1
tp1627
a(S'w'
I5
tp1628
a(S'p2_vo'
I6
tp1629
a(S'w'
I719
tp1630
a(S'p2_vo'
I8
tp1631
a(S'w'
I740
tp1632
a(S'p2_vo'
I10
tp1633
a(S'w'
I727
tp1634
a(S'p2_vo'
I11
tp1635
a(S'w'
I2208
tp1636
a(S'p2_vo'
I10
tp1637
a(S'w'
I2202
tp1638
a(S'p2_vo'
I9
tp1639
a(S'w'
I2195
tp1640
a(S'p2_vo'
I8
tp1641
a(S'w'
I2208
tp1642
a(S'p2_vo'
I7
tp1643
a(S'w'
I2194
tp1644
a(S'p2_vo'
I6
tp1645
a(S'w'
I2208
tp1646
a(S'p2_vo'
I5
tp1647
a(S'w'
I3673
tp1648
a(S'p2_tl'
I171
tp1649
a(S'p2_ll'
I1
tp1650
a(S'w'
I5
tp1651
a(S'p2_vo'
I6
tp1652
a(S'w'
I719
tp1653
a(S'p2_vo'
I8
tp1654
a(S'w'
I740
tp1655
a(S'p2_vo'
I10
tp1656
a(S'w'
I727
tp1657
a(S'p2_vo'
I11
tp1658
a(S'w'
I2208
tp1659
a(S'p2_vo'
I10
tp1660
a(S'w'
I2195
tp1661
a(S'p2_vo'
I9
tp1662
a(S'w'
I2201
tp1663
a(S'p2_vo'
I8
tp1664
a(S'w'
I2208
tp1665
a(S'p2_vo'
I7
tp1666
a(S'w'
I2195
tp1667
a(S'p2_vo'
I6
tp1668
a(S'w'
I2208
tp1669
a(S'p2_vo'
I5
tp1670
a(S'w'
I2939
tp1671
a(S'p2_tl'
I223
tp1672
a(S'p2_ll'
I1
tp1673
a(S'w'
I5
tp1674
a(S'p2_vo'
I6
tp1675
a(S'w'
I719
tp1676
a(S'p2_vo'
I8
tp1677
a(S'w'
I733
tp1678
a(S'p2_vo'
I10
tp1679
a(S'w'
I741
tp1680
a(S'p2_vo'
I11
tp1681
a(S'w'
I2195
tp1682
a(S'p2_vo'
I10
tp1683
a(S'w'
I2208
tp1684
a(S'p2_vo'
I9
tp1685
a(S'w'
I2194
tp1686
a(S'p2_vo'
I8
tp1687
a(S'w'
I2208
tp1688
a(S'p2_vo'
I7
tp1689
a(S'w'
I2202
tp1690
a(S'p2_vo'
I6
tp1691
a(S'w'
I2195
tp1692
a(S'p2_vo'
I5
tp1693
a(S'w'
I3689
tp1694
a(S'p2_tl'
I26
tp1695
a(S'p2_ll'
I1
tp1696
a(S'p2_th'
I2
tp1697
a(S'w'
I5
tp1698
a(S'p2_vo'
I6
tp1699
a(S'w'
I4
tp1700
a(S'tr_tl'
I106
tp1701
a(S'tr_ll'
I1
tp1702
a(S'w'
I704
tp1703
a(S'p2_vo'
I8
tp1704
a(S'w'
I741
tp1705
a(S'p2_vo'
I10
tp1706
a(S'w'
I727
tp1707
a(S'p2_vo'
I11
tp1708
a(S'w'
I2202
tp1709
a(S'p2_vo'
I10
tp1710
a(S'w'
I2207
tp1711
a(S'p2_vo'
I9
tp1712
a(S'w'
I2195
tp1713
a(S'p2_vo'
I8
tp1714
a(S'w'
I2208
tp1715
a(S'p2_vo'
I7
tp1716
a(S'w'
I2195
tp1717
a(S'p2_vo'
I6
tp1718
a(S'w'
I2201
tp1719
a(S'p2_vo'
I5
tp1720
a(S'w'
I22758
tp1721
a(S'p2_tl'
I58
tp1722
a(S'w'
I1
tp1723
a(S'p2_ll'
I1
tp1724
a(S'w'
I5
tp1725
a(S'p2_vo'
I6
tp1726
a(S'w'
I718
tp1727
a(S'p2_vo'
I8
tp1728
a(S'w'
I741
tp1729
a(S'p2_vo'
I10
tp1730
a(S'w'
I727
tp1731
a(S'p2_vo'
I11
tp1732
a(S'w'
I2208
tp1733
a(S'p2_vo'
I10
tp1734
a(S'w'
I2194
tp1735
a(S'p2_vo'
I9
tp1736
a(S'w'
I2208
tp1737
a(S'p2_vo'
I8
tp1738
a(S'w'
I2202
tp1739
a(S'p2_vo'
I7
tp1740
a(S'w'
I2195
tp1741
a(S'p2_vo'
I6
tp1742
a(S'w'
I2208
tp1743
a(S'p2_vo'
I5
tp1744
a(S'w'
I22029
tp1745
a(S'p1_tl'
I239
tp1746
a(S'p1_ll'
I1
tp1747
a(S'p1_th'
I0
tp1748
a(S'w'
I5
tp1749
a(S'p1_vo'
I6
tp1750
a(S'w'
I4
tp1751
a(S'p2_tl'
I128
tp1752
a(S'p2_ll'
I1
tp1753
a(S'w'
I5
tp1754
a(S'p2_vo'
I6
tp1755
a(S'w'
I3
tp1756
a(S'tr_tl'
I100
tp1757
a(S'w'
I1
tp1758
a(S'tr_ll'
I1
tp1759
a(S'w'
I687
tp1760
a(S'p1_vo'
I8
tp1761
a(S'w'
I6
tp1762
a(S'p2_vo'
I8
tp1763
a(S'w'
I734
tp1764
a(S'p1_vo'
I10
tp1765
a(S'w'
I7
tp1766
a(S'p2_vo'
I10
tp1767
a(S'w'
I721
tp1768
a(S'p1_vo'
I11
tp1769
a(S'w'
I6
tp1770
a(S'p2_vo'
I11
tp1771
a(S'w'
I2202
tp1772
a(S'p1_vo'
I10
tp1773
a(S'w'
I6
tp1774
a(S'p2_vo'
I10
tp1775
a(S'w'
I2195
tp1776
a(S'p1_vo'
I9
tp1777
a(S'w'
I7
tp1778
a(S'p2_vo'
I9
tp1779
a(S'w'
I2188
tp1780
a(S'p1_vo'
I8
tp1781
a(S'w'
I6
tp1782
a(S'p2_vo'
I8
tp1783
a(S'w'
I2202
tp1784
a(S'p1_vo'
I7
tp1785
a(S'w'
I6
tp1786
a(S'p2_vo'
I7
tp1787
a(S'w'
I2189
tp1788
a(S'p1_vo'
I6
tp1789
a(S'w'
I6
tp1790
a(S'p2_vo'
I6
tp1791
a(S'w'
I2202
tp1792
a(S'p1_vo'
I5
tp1793
a(S'w'
I6
tp1794
a(S'p2_vo'
I5
tp1795
a(S'w'
I3675
tp1796
a(S'p1_tl'
I253
tp1797
a(S'p1_ll'
I1
tp1798
a(S'w'
I5
tp1799
a(S'p1_vo'
I6
tp1800
a(S'w'
I10
tp1801
a(S'tr_tl'
I106
tp1802
a(S'w'
I1
tp1803
a(S'tr_ll'
I1
tp1804
a(S'w'
I699
tp1805
a(S'p1_vo'
I8
tp1806
a(S'w'
I740
tp1807
a(S'p1_vo'
I10
tp1808
a(S'w'
I727
tp1809
a(S'p1_vo'
I11
tp1810
a(S'w'
I2208
tp1811
a(S'p1_vo'
I10
tp1812
a(S'w'
I2195
tp1813
a(S'p1_vo'
I9
tp1814
a(S'w'
I2202
tp1815
a(S'p1_vo'
I8
tp1816
a(S'w'
I2208
tp1817
a(S'p1_vo'
I7
tp1818
a(S'w'
I2195
tp1819
a(S'p1_vo'
I6
tp1820
a(S'w'
I2207
tp1821
a(S'p1_vo'
I5
tp1822
a(S'w'
I2955
tp1823
a(S'p1_tl'
I239
tp1824
a(S'w'
I1
tp1825
a(S'p1_ll'
I1
tp1826
a(S'w'
I5
tp1827
a(S'p1_vo'
I6
tp1828
a(S'w'
I3
tp1829
a(S'p2_ll'
I1
tp1830
a(S'w'
I6
tp1831
a(S'p2_vo'
I6
tp1832
a(S'w'
I3
tp1833
a(S'tr_tl'
I100
tp1834
a(S'tr_ll'
I1
tp1835
a(S'w'
I690
tp1836
a(S'p1_vo'
I8
tp1837
a(S'w'
I6
tp1838
a(S'p2_vo'
I8
tp1839
a(S'w'
I728
tp1840
a(S'p1_vo'
I10
tp1841
a(S'w'
I6
tp1842
a(S'p2_vo'
I10
tp1843
a(S'w'
I734
tp1844
a(S'p1_vo'
I11
tp1845
a(S'w'
I7
tp1846
a(S'p2_vo'
I11
tp1847
a(S'w'
I2188
tp1848
a(S'p1_vo'
I10
tp1849
a(S'w'
I6
tp1850
a(S'p2_vo'
I10
tp1851
a(S'w'
I2202
tp1852
a(S'p1_vo'
I9
tp1853
a(S'w'
I6
tp1854
a(S'p2_vo'
I9
tp1855
a(S'w'
I2189
tp1856
a(S'p1_vo'
I8
tp1857
a(S'w'
I6
tp1858
a(S'p2_vo'
I8
tp1859
a(S'w'
I2202
tp1860
a(S'p1_vo'
I7
tp1861
a(S'w'
I6
tp1862
a(S'p2_vo'
I7
tp1863
a(S'w'
I2195
tp1864
a(S'p1_vo'
I6
tp1865
a(S'w'
I7
tp1866
a(S'p2_vo'
I6
tp1867
a(S'w'
I2188
tp1868
a(S'p1_vo'
I5
tp1869
a(S'w'
I6
tp1870
a(S'p2_vo'
I5
tp1871
a(S'w'
I3681
tp1872
a(S'p1_tl'
I213
tp1873
a(S'w'
I1
tp1874
a(S'p1_ll'
I1
tp1875
a(S'w'
I5
tp1876
a(S'p1_vo'
I6
tp1877
a(S'w'
I10
tp1878
a(S'tr_tl'
I89
tp1879
a(S'tr_ll'
I1
tp1880
a(S'w'
I700
tp1881
a(S'p1_vo'
I8
tp1882
a(S'w'
I740
tp1883
a(S'p1_vo'
I10
tp1884
a(S'w'
I727
tp1885
a(S'p1_vo'
I11
tp1886
a(S'w'
I2202
tp1887
a(S'p1_vo'
I10
tp1888
a(S'w'
I2208
tp1889
a(S'p1_vo'
I9
tp1890
a(S'w'
I2194
tp1891
a(S'p1_vo'
I8
tp1892
a(S'w'
I2208
tp1893
a(S'p1_vo'
I7
tp1894
a(S'w'
I2195
tp1895
a(S'p1_vo'
I6
tp1896
a(S'w'
I2202
tp1897
a(S'p1_vo'
I5
tp1898
a(S'w'
I3690
tp1899
a(S'p1_tl'
I201
tp1900
a(S'p1_ll'
I1
tp1901
a(S'w'
I5
tp1902
a(S'p1_vo'
I6
tp1903
a(S'w'
I10
tp1904
a(S'tr_tl'
I79
tp1905
a(S'w'
I1
tp1906
a(S'tr_ll'
I1
tp1907
a(S'w'
I696
tp1908
a(S'p1_vo'
I8
tp1909
a(S'w'
I741
tp1910
a(S'p1_vo'
I10
tp1911
a(S'w'
I727
tp1912
a(S'p1_vo'
I11
tp1913
a(S'w'
I2208
tp1914
a(S'p1_vo'
I10
tp1915
a(S'w'
I2195
tp1916
a(S'p1_vo'
I9
tp1917
a(S'w'
I2201
tp1918
a(S'p1_vo'
I8
tp1919
a(S'w'
I2208
tp1920
a(S'p1_vo'
I7
tp1921
a(S'w'
I2195
tp1922
a(S'p1_vo'
I6
tp1923
a(S'w'
I2208
tp1924
a(S'p1_vo'
I5
tp1925
a(S'w'
I22036
tp1926
a(S'p1_tl'
I213
tp1927
a(S'w'
I1
tp1928
a(S'p1_ll'
I1
tp1929
a(S'w'
I5
tp1930
a(S'p1_vo'
I6
tp1931
a(S'w'
I3
tp1932
a(S'p2_ll'
I1
tp1933
a(S'w'
I5
tp1934
a(S'p2_vo'
I6
tp1935
a(S'w'
I4
tp1936
a(S'tr_tl'
I89
tp1937
a(S'tr_ll'
I1
tp1938
a(S'w'
I687
tp1939
a(S'p1_vo'
I8
tp1940
a(S'w'
I7
tp1941
a(S'p2_vo'
I8
tp1942
a(S'w'
I734
tp1943
a(S'p1_vo'
I10
tp1944
a(S'w'
I6
tp1945
a(S'p2_vo'
I10
tp1946
a(S'w'
I721
tp1947
a(S'p1_vo'
I11
tp1948
a(S'w'
I7
tp1949
a(S'p2_vo'
I11
tp1950
a(S'w'
I2194
tp1951
a(S'p1_vo'
I10
tp1952
a(S'w'
I7
tp1953
a(S'p2_vo'
I10
tp1954
a(S'w'
I2201
tp1955
a(S'p1_vo'
I9
tp1956
a(S'w'
I7
tp1957
a(S'p2_vo'
I9
tp1958
a(S'w'
I2188
tp1959
a(S'p1_vo'
I8
tp1960
a(S'w'
I7
tp1961
a(S'p2_vo'
I8
tp1962
a(S'w'
I2201
tp1963
a(S'p1_vo'
I7
tp1964
a(S'w'
I7
tp1965
a(S'p2_vo'
I7
tp1966
a(S'w'
I2188
tp1967
a(S'p1_vo'
I6
tp1968
a(S'w'
I7
tp1969
a(S'p2_vo'
I6
tp1970
a(S'w'
I2194
tp1971
a(S'p1_vo'
I5
tp1972
a(S'w'
I7
tp1973
a(S'p2_vo'
I5
tp1974
a(S'w'
I3681
tp1975
a(S'p1_tl'
I239
tp1976
a(S'p1_ll'
I1
tp1977
a(S'w'
I5
tp1978
a(S'p1_vo'
I6
tp1979
a(S'w'
I11
tp1980
a(S'tr_tl'
I100
tp1981
a(S'tr_ll'
I1
tp1982
a(S'w'
I699
tp1983
a(S'p1_vo'
I8
tp1984
a(S'w'
I741
tp1985
a(S'p1_vo'
I10
tp1986
a(S'w'
I727
tp1987
a(S'p1_vo'
I11
tp1988
a(S'w'
I2208
tp1989
a(S'p1_vo'
I10
tp1990
a(S'w'
I2201
tp1991
a(S'p1_vo'
I9
tp1992
a(S'w'
I2195
tp1993
a(S'p1_vo'
I8
tp1994
a(S'w'
I2208
tp1995
a(S'p1_vo'
I7
tp1996
a(S'w'
I2195
tp1997
a(S'p1_vo'
I6
tp1998
a(S'w'
I2208
tp1999
a(S'p1_vo'
I5
tp2000
a(S'w'
I3690
tp2001
a(S'p1_tl'
I12
tp2002
a(S'p1_ll'
I1
tp2003
a(S'p1_th'
I1
tp2004
a(S'w'
I5
tp2005
a(S'p1_vo'
I6
tp2006
a(S'w'
I4
tp2007
a(S'p2_ll'
I1
tp2008
a(S'w'
I5
tp2009
a(S'p2_vo'
I6
tp2010
a(S'w'
I3
tp2011
a(S'tr_tl'
I106
tp2012
a(S'w'
I1
tp2013
a(S'tr_ll'
I1
tp2014
a(S'w'
I688
tp2015
a(S'p1_vo'
I8
tp2016
a(S'w'
I7
tp2017
a(S'p2_vo'
I8
tp2018
a(S'w'
I733
tp2019
a(S'p1_vo'
I10
tp2020
a(S'w'
I7
tp2021
a(S'p2_vo'
I10
tp2022
a(S'w'
I721
tp2023
a(S'p1_vo'
I11
tp2024
a(S'w'
I6
tp2025
a(S'p2_vo'
I11
tp2026
a(S'w'
I2202
tp2027
a(S'p1_vo'
I10
tp2028
a(S'w'
I6
tp2029
a(S'p2_vo'
I10
tp2030
a(S'w'
I2188
tp2031
a(S'p1_vo'
I9
tp2032
a(S'w'
I7
tp2033
a(S'p2_vo'
I9
tp2034
a(S'w'
I2195
tp2035
a(S'p1_vo'
I8
tp2036
a(S'w'
I6
tp2037
a(S'p2_vo'
I8
tp2038
a(S'w'
I2202
tp2039
a(S'p1_vo'
I7
tp2040
a(S'w'
I6
tp2041
a(S'p2_vo'
I7
tp2042
a(S'w'
I2189
tp2043
a(S'p1_vo'
I6
tp2044
a(S'w'
I6
tp2045
a(S'p2_vo'
I6
tp2046
a(S'w'
I2202
tp2047
a(S'p1_vo'
I5
tp2048
a(S'w'
I6
tp2049
a(S'p2_vo'
I5
tp2050
a(S'w'
I2941
tp2051
a(S'p1_tl'
I28
tp2052
a(S'p1_ll'
I1
tp2053
a(S'w'
I5
tp2054
a(S'p1_vo'
I6
tp2055
a(S'w'
I11
tp2056
a(S'tr_tl'
I119
tp2057
a(S'tr_ll'
I1
tp2058
a(S'w'
I699
tp2059
a(S'p1_vo'
I8
tp2060
a(S'w'
I734
tp2061
a(S'p1_vo'
I10
tp2062
a(S'w'
I740
tp2063
a(S'p1_vo'
I11
tp2064
a(S'w'
I2195
tp2065
a(S'p1_vo'
I10
tp2066
a(S'w'
I2208
tp2067
a(S'p1_vo'
I9
tp2068
a(S'w'
I2195
tp2069
a(S'p1_vo'
I8
tp2070
a(S'w'
I2208
tp2071
a(S'p1_vo'
I7
tp2072
a(S'w'
I2201
tp2073
a(S'p1_vo'
I6
tp2074
a(S'w'
I2195
tp2075
a(S'p1_vo'
I5
tp2076
a(S'w'
I3696
tp2077
a(S'p1_tl'
I12
tp2078
a(S'p1_ll'
I1
tp2079
a(S'w'
I5
tp2080
a(S'p1_vo'
I6
tp2081
a(S'w'
I3
tp2082
a(S'w'
I1
tp2083
a(S'p2_ll'
I1
tp2084
a(S'w'
I5
tp2085
a(S'p2_vo'
I6
tp2086
a(S'w'
I3
tp2087
a(S'tr_tl'
I106
tp2088
a(S'tr_ll'
I1
tp2089
a(S'w'
I690
tp2090
a(S'p1_vo'
I8
tp2091
a(S'w'
I7
tp2092
a(S'p2_vo'
I8
tp2093
a(S'w'
I733
tp2094
a(S'p1_vo'
I10
tp2095
a(S'w'
I7
tp2096
a(S'p2_vo'
I10
tp2097
a(S'w'
I721
tp2098
a(S'p1_vo'
I11
tp2099
a(S'w'
I6
tp2100
a(S'p2_vo'
I11
tp2101
a(S'w'
I2195
tp2102
a(S'p1_vo'
I10
tp2103
a(S'w'
I6
tp2104
a(S'p2_vo'
I10
tp2105
a(S'w'
I2202
tp2106
a(S'p1_vo'
I9
tp2107
a(S'w'
I6
tp2108
a(S'p2_vo'
I9
tp2109
a(S'w'
I2189
tp2110
a(S'p1_vo'
I8
tp2111
a(S'w'
I6
tp2112
a(S'p2_vo'
I8
tp2113
a(S'w'
I2202
tp2114
a(S'p1_vo'
I7
tp2115
a(S'w'
I6
tp2116
a(S'p2_vo'
I7
tp2117
a(S'w'
I2189
tp2118
a(S'p1_vo'
I6
tp2119
a(S'w'
I6
tp2120
a(S'p2_vo'
I6
tp2121
a(S'w'
I2195
tp2122
a(S'p1_vo'
I5
tp2123
a(S'w'
I7
tp2124
a(S'p2_vo'
I5
tp2125
a(S'w'
I3681
tp2126
a(S'p1_tl'
I239
tp2127
a(S'p1_ll'
I1
tp2128
a(S'p1_th'
I0
tp2129
a(S'w'
I5
tp2130
a(S'p1_vo'
I6
tp2131
a(S'w'
I10
tp2132
a(S'tr_tl'
I100
tp2133
a(S'w'
I1
tp2134
a(S'tr_ll'
I1
tp2135
a(S'w'
I699
tp2136
a(S'p1_vo'
I8
tp2137
a(S'w'
I740
tp2138
a(S'p1_vo'
I10
tp2139
a(S'w'
I727
tp2140
a(S'p1_vo'
I11
tp2141
a(S'w'
I2208
tp2142
a(S'p1_vo'
I10
tp2143
a(S'w'
I2195
tp2144
a(S'p1_vo'
I9
tp2145
a(S'w'
I2202
tp2146
a(S'p1_vo'
I8
tp2147
a(S'w'
I2208
tp2148
a(S'p1_vo'
I7
tp2149
a(S'w'
I2194
tp2150
a(S'p1_vo'
I6
tp2151
a(S'w'
I2208
tp2152
a(S'p1_vo'
I5
tp2153
a(S'w'
I3684
tp2154
a(S'p1_tl'
I213
tp2155
a(S'p1_ll'
I1
tp2156
a(S'w'
I5
tp2157
a(S'p1_vo'
I6
tp2158
a(S'w'
I11
tp2159
a(S'tr_tl'
I89
tp2160
a(S'tr_ll'
I1
tp2161
a(S'w'
I697
tp2162
a(S'p1_vo'
I8
tp2163
a(S'w'
I740
tp2164
a(S'p1_vo'
I10
tp2165
a(S'w'
I727
tp2166
a(S'p1_vo'
I11
tp2167
a(S'w'
I2208
tp2168
a(S'p1_vo'
I10
tp2169
a(S'w'
I2195
tp2170
a(S'p1_vo'
I9
tp2171
a(S'w'
I2208
tp2172
a(S'p1_vo'
I8
tp2173
a(S'w'
I2201
tp2174
a(S'p1_vo'
I7
tp2175
a(S'w'
I2195
tp2176
a(S'p1_vo'
I6
tp2177
a(S'w'
I2208
tp2178
a(S'p1_vo'
I5
tp2179
a(S'w'
I22036
tp2180
a(S'p1_tl'
I239
tp2181
a(S'w'
I1
tp2182
a(S'p1_ll'
I1
tp2183
a(S'w'
I5
tp2184
a(S'p1_vo'
I6
tp2185
a(S'w'
I3
tp2186
a(S'p2_ll'
I1
tp2187
a(S'w'
I6
tp2188
a(S'p2_vo'
I6
tp2189
a(S'w'
I3
tp2190
a(S'tr_tl'
I100
tp2191
a(S'tr_ll'
I1
tp2192
a(S'w'
I687
tp2193
a(S'p1_vo'
I8
tp2194
a(S'w'
I7
tp2195
a(S'p2_vo'
I8
tp2196
a(S'w'
I734
tp2197
a(S'p1_vo'
I10
tp2198
a(S'w'
I6
tp2199
a(S'p2_vo'
I10
tp2200
a(S'w'
I721
tp2201
a(S'p1_vo'
I11
tp2202
a(S'w'
I7
tp2203
a(S'p2_vo'
I11
tp2204
a(S'w'
I2201
tp2205
a(S'p1_vo'
I10
tp2206
a(S'w'
I7
tp2207
a(S'p2_vo'
I10
tp2208
a(S'w'
I2195
tp2209
a(S'p1_vo'
I9
tp2210
a(S'w'
I6
tp2211
a(S'p2_vo'
I9
tp2212
a(S'w'
I2188
tp2213
a(S'p1_vo'
I8
tp2214
a(S'w'
I7
tp2215
a(S'p2_vo'
I8
tp2216
a(S'w'
I2201
tp2217
a(S'p1_vo'
I7
tp2218
a(S'w'
I7
tp2219
a(S'p2_vo'
I7
tp2220
a(S'w'
I2188
tp2221
a(S'p1_vo'
I6
tp2222
a(S'w'
I7
tp2223
a(S'p2_vo'
I6
tp2224
a(S'w'
I2201
tp2225
a(S'p1_vo'
I5
tp2226
a(S'w'
I7
tp2227
a(S'p2_vo'
I5
tp2228
a(S'w'
I3674
tp2229
a(S'p1_tl'
I253
tp2230
a(S'w'
I1
tp2231
a(S'p1_ll'
I1
tp2232
a(S'w'
I5
tp2233
a(S'p1_vo'
I6
tp2234
a(S'w'
I10
tp2235
a(S'tr_tl'
I106
tp2236
a(S'tr_ll'
I1
tp2237
a(S'w'
I699
tp2238
a(S'p1_vo'
I8
tp2239
a(S'w'
I741
tp2240
a(S'p1_vo'
I10
tp2241
a(S'w'
I727
tp2242
a(S'p1_vo'
I11
tp2243
a(S'w'
I2208
tp2244
a(S'p1_vo'
I10
tp2245
a(S'w'
I2195
tp2246
a(S'p1_vo'
I9
tp2247
a(S'w'
I2201
tp2248
a(S'p1_vo'
I8
tp2249
a(S'w'
I2208
tp2250
a(S'p1_vo'
I7
tp2251
a(S'w'
I2195
tp2252
a(S'p1_vo'
I6
tp2253
a(S'w'
I2208
tp2254
a(S'p1_vo'
I5
tp2255
a(S'w'
I2956
tp2256
a(S'p1_tl'
I239
tp2257
a(S'p1_ll'
I1
tp2258
a(S'w'
I6
tp2259
a(S'p1_vo'
I6
tp2260
a(S'w'
I3
tp2261
a(S'p2_ll'
I1
tp2262
a(S'w'
I5
tp2263
a(S'p2_vo'
I6
tp2264
a(S'w'
I4
tp2265
a(S'tr_tl'
I100
tp2266
a(S'tr_ll'
I1
tp2267
a(S'w'
I688
tp2268
a(S'p1_vo'
I8
tp2269
a(S'w'
I7
tp2270
a(S'p2_vo'
I8
tp2271
a(S'w'
I727
tp2272
a(S'p1_vo'
I10
tp2273
a(S'w'
I7
tp2274
a(S'p2_vo'
I10
tp2275
a(S'w'
I734
tp2276
a(S'p1_vo'
I11
tp2277
a(S'w'
I6
tp2278
a(S'p2_vo'
I11
tp2279
a(S'w'
I2188
tp2280
a(S'p1_vo'
I10
tp2281
a(S'w'
I7
tp2282
a(S'p2_vo'
I10
tp2283
a(S'w'
I2201
tp2284
a(S'p1_vo'
I9
tp2285
a(S'w'
I7
tp2286
a(S'p2_vo'
I9
tp2287
a(S'w'
I2188
tp2288
a(S'p1_vo'
I8
tp2289
a(S'w'
I7
tp2290
a(S'p2_vo'
I8
tp2291
a(S'w'
I2201
tp2292
a(S'p1_vo'
I7
tp2293
a(S'w'
I7
tp2294
a(S'p2_vo'
I7
tp2295
a(S'w'
I2195
tp2296
a(S'p1_vo'
I6
tp2297
a(S'w'
I6
tp2298
a(S'p2_vo'
I6
tp2299
a(S'w'
I2188
tp2300
a(S'p1_vo'
I5
tp2301
a(S'w'
I7
tp2302
a(S'p2_vo'
I5
tp2303
a(S'w'
I3681
tp2304
a(S'p1_tl'
I213
tp2305
a(S'p1_ll'
I1
tp2306
a(S'w'
I6
tp2307
a(S'p1_vo'
I6
tp2308
a(S'w'
I10
tp2309
a(S'tr_tl'
I89
tp2310
a(S'tr_ll'
I1
tp2311
a(S'w'
I699
tp2312
a(S'p1_vo'
I8
tp2313
a(S'w'
I741
tp2314
a(S'p1_vo'
I10
tp2315
a(S'w'
I727
tp2316
a(S'p1_vo'
I11
tp2317
a(S'w'
I2201
tp2318
a(S'p1_vo'
I10
tp2319
a(S'w'
I2208
tp2320
a(S'p1_vo'
I9
tp2321
a(S'w'
I2195
tp2322
a(S'p1_vo'
I8
tp2323
a(S'w'
I2208
tp2324
a(S'p1_vo'
I7
tp2325
a(S'w'
I2195
tp2326
a(S'p1_vo'
I6
tp2327
a(S'w'
I2201
tp2328
a(S'p1_vo'
I5
tp2329
a(S'w'
I3688
tp2330
a(S'p1_tl'
I201
tp2331
a(S'p1_ll'
I1
tp2332
a(S'w'
I5
tp2333
a(S'p1_vo'
I6
tp2334
a(S'w'
I11
tp2335
a(S'tr_tl'
I79
tp2336
a(S'tr_ll'
I1
tp2337
a(S'w'
I699
tp2338
a(S'p1_vo'
I8
tp2339
a(S'w'
I740
tp2340
a(S'p1_vo'
I10
tp2341
a(S'w'
I728
tp2342
a(S'p1_vo'
I11
tp2343
a(S'w'
I2208
tp2344
a(S'p1_vo'
I10
tp2345
a(S'w'
I2195
tp2346
a(S'p1_vo'
I9
tp2347
a(S'w'
I2201
tp2348
a(S'p1_vo'
I8
tp2349
a(S'w'
I2208
tp2350
a(S'p1_vo'
I7
tp2351
a(S'w'
I2195
tp2352
a(S'p1_vo'
I6
tp2353
a(S'w'
I2208
tp2354
a(S'p1_vo'
I5
tp2355
a(S'w'
I3681
tp2356
a(S'p1_tl'
I179
tp2357
a(S'p1_ll'
I1
tp2358
a(S'w'
I5
tp2359
a(S'p1_vo'
I6
tp2360
a(S'w'
I10
tp2361
a(S'tr_tl'
I70
tp2362
a(S'w'
I1
tp2363
a(S'tr_ll'
I1
tp2364
a(S'w'
I699
tp2365
a(S'p1_vo'
I8
tp2366
a(S'w'
I740
tp2367
a(S'p1_vo'
I10
tp2368
a(S'w'
I727
tp2369
a(S'p1_vo'
I11
tp2370
a(S'w'
I2208
tp2371
a(S'p1_vo'
I10
tp2372
a(S'w'
I2195
tp2373
a(S'p1_vo'
I9
tp2374
a(S'w'
I2208
tp2375
a(S'p1_vo'
I8
tp2376
a(S'w'
I2202
tp2377
a(S'p1_vo'
I7
tp2378
a(S'w'
I2194
tp2379
a(S'p1_vo'
I6
tp2380
a(S'w'
I2208
tp2381
a(S'p1_vo'
I5
tp2382
a(S'w'
I2956
tp2383
a(S'p1_tl'
I142
tp2384
a(S'p1_ll'
I1
tp2385
a(S'w'
I5
tp2386
a(S'p1_vo'
I6
tp2387
a(S'w'
I3
tp2388
a(S'p2_tl'
I147
tp2389
a(S'w'
I1
tp2390
a(S'p2_ll'
I1
tp2391
a(S'p2_th'
I1
tp2392
a(S'w'
I5
tp2393
a(S'p2_vo'
I6
tp2394
a(S'w'
I3
tp2395
a(S'tr_tl'
I59
tp2396
a(S'tr_ll'
I1
tp2397
a(S'w'
I690
tp2398
a(S'p1_vo'
I8
tp2399
a(S'w'
I7
tp2400
a(S'p2_vo'
I8
tp2401
a(S'w'
I733
tp2402
a(S'p1_vo'
I10
tp2403
a(S'w'
I7
tp2404
a(S'p2_vo'
I10
tp2405
a(S'w'
I720
tp2406
a(S'p1_vo'
I11
tp2407
a(S'w'
I7
tp2408
a(S'p2_vo'
I11
tp2409
a(S'w'
I2195
tp2410
a(S'p1_vo'
I10
tp2411
a(S'w'
I6
tp2412
a(S'p2_vo'
I10
tp2413
a(S'w'
I2202
tp2414
a(S'p1_vo'
I9
tp2415
a(S'w'
I6
tp2416
a(S'p2_vo'
I9
tp2417
a(S'w'
I2189
tp2418
a(S'p1_vo'
I8
tp2419
a(S'w'
I6
tp2420
a(S'p2_vo'
I8
tp2421
a(S'w'
I2202
tp2422
a(S'p1_vo'
I7
tp2423
a(S'w'
I6
tp2424
a(S'p2_vo'
I7
tp2425
a(S'w'
I2189
tp2426
a(S'p1_vo'
I6
tp2427
a(S'w'
I6
tp2428
a(S'p2_vo'
I6
tp2429
a(S'w'
I2195
tp2430
a(S'p1_vo'
I5
tp2431
a(S'w'
I7
tp2432
a(S'p2_vo'
I5
tp2433
a(S'w'
I3681
tp2434
a(S'p1_tl'
I159
tp2435
a(S'p1_ll'
I1
tp2436
a(S'w'
I5
tp2437
a(S'p1_vo'
I6
tp2438
a(S'w'
I10
tp2439
a(S'tr_tl'
I66
tp2440
a(S'w'
I1
tp2441
a(S'tr_ll'
I1
tp2442
a(S'w'
I699
tp2443
a(S'p1_vo'
I8
tp2444
a(S'w'
I740
tp2445
a(S'p1_vo'
I10
tp2446
a(S'w'
I727
tp2447
a(S'p1_vo'
I11
tp2448
a(S'w'
I2208
tp2449
a(S'p1_vo'
I10
tp2450
a(S'w'
I2202
tp2451
a(S'p1_vo'
I9
tp2452
a(S'w'
I2195
tp2453
a(S'p1_vo'
I8
tp2454
a(S'w'
I2208
tp2455
a(S'p1_vo'
I7
tp2456
a(S'w'
I2194
tp2457
a(S'p1_vo'
I6
tp2458
a(S'w'
I2208
tp2459
a(S'p1_vo'
I5
tp2460
a(S'w'
I3688
tp2461
a(S'p1_tl'
I169
tp2462
a(S'p1_ll'
I1
tp2463
a(S'w'
I6
tp2464
a(S'p1_vo'
I6
tp2465
a(S'w'
I3
tp2466
a(S'p2_tl'
I223
tp2467
a(S'p2_ll'
I1
tp2468
a(S'w'
I5
tp2469
a(S'p2_vo'
I6
tp2470
a(S'w'
I4
tp2471
a(S'tr_tl'
I70
tp2472
a(S'tr_ll'
I1
tp2473
a(S'w'
I691
tp2474
a(S'p1_vo'
I8
tp2475
a(S'w'
I6
tp2476
a(S'p2_vo'
I8
tp2477
a(S'w'
I734
tp2478
a(S'p1_vo'
I10
tp2479
a(S'w'
I7
tp2480
a(S'p2_vo'
I10
tp2481
a(S'w'
I720
tp2482
a(S'p1_vo'
I11
tp2483
a(S'w'
I7
tp2484
a(S'p2_vo'
I11
tp2485
a(S'w'
I2201
tp2486
a(S'p1_vo'
I10
tp2487
a(S'w'
I7
tp2488
a(S'p2_vo'
I10
tp2489
a(S'w'
I2188
tp2490
a(S'p1_vo'
I9
tp2491
a(S'w'
I7
tp2492
a(S'p2_vo'
I9
tp2493
a(S'w'
I2194
tp2494
a(S'p1_vo'
I8
tp2495
a(S'w'
I7
tp2496
a(S'p2_vo'
I8
tp2497
a(S'w'
I2201
tp2498
a(S'p1_vo'
I7
tp2499
a(S'w'
I7
tp2500
a(S'p2_vo'
I7
tp2501
a(S'w'
I2188
tp2502
a(S'p1_vo'
I6
tp2503
a(S'w'
I7
tp2504
a(S'p2_vo'
I6
tp2505
a(S'w'
I2201
tp2506
a(S'p1_vo'
I5
tp2507
a(S'w'
I7
tp2508
a(S'p2_vo'
I5
tp2509
a(S'w'
I2940
tp2510
a(S'p1_tl'
I159
tp2511
a(S'w'
I1
tp2512
a(S'p1_ll'
I1
tp2513
a(S'w'
I5
tp2514
a(S'p1_vo'
I6
tp2515
a(S'w'
I10
tp2516
a(S'tr_tl'
I66
tp2517
a(S'tr_ll'
I1
tp2518
a(S'w'
I700
tp2519
a(S'p1_vo'
I8
tp2520
a(S'w'
I733
tp2521
a(S'p1_vo'
I10
tp2522
a(S'w'
I741
tp2523
a(S'p1_vo'
I11
tp2524
a(S'w'
I2195
tp2525
a(S'p1_vo'
I10
tp2526
a(S'w'
I2208
tp2527
a(S'p1_vo'
I9
tp2528
a(S'w'
I2194
tp2529
a(S'p1_vo'
I8
tp2530
a(S'w'
I2208
tp2531
a(S'p1_vo'
I7
tp2532
a(S'w'
I2202
tp2533
a(S'p1_vo'
I6
tp2534
a(S'w'
I2195
tp2535
a(S'p1_vo'
I5
tp2536
a(S'w'
I3696
tp2537
a(S'p1_ll'
I1
tp2538
a(S'w'
I6
tp2539
a(S'p1_vo'
I6
tp2540
a(S'w'
I5
tp2541
a(S'p2_du'
I0
tp2542
a(S'p2_vo'
I0
tp2543
a(S'w'
I3
tp2544
a(S'tr_ll'
I1
tp2545
a(S'w'
I692
tp2546
a(S'p1_vo'
I8
tp2547
a(S'w'
I741
tp2548
a(S'p1_vo'
I10
tp2549
a(S'w'
I727
tp2550
a(S'p1_vo'
I11
tp2551
a(S'w'
I2202
tp2552
a(S'p1_vo'
I10
tp2553
a(S'w'
I2207
tp2554
a(S'p1_vo'
I9
tp2555
a(S'w'
I2195
tp2556
a(S'p1_vo'
I8
tp2557
a(S'w'
I2208
tp2558
a(S'p1_vo'
I7
tp2559
a(S'w'
I2195
tp2560
a(S'p1_vo'
I6
tp2561
a(S'w'
I2202
tp2562
a(S'p1_vo'
I5
tp2563
a(S'w'
I3686
tp2564
a(S'p2_tl'
I86
tp2565
a(S'p2_ll'
I1
tp2566
a(S'p2_th'
I3
tp2567
a(S'w'
I5
tp2568
a(S'p2_du'
I2
tp2569
a(S'p2_vo'
I6
tp2570
a(S'w'
I718
tp2571
a(S'p2_vo'
I8
tp2572
a(S'w'
I741
tp2573
a(S'p2_vo'
I10
tp2574
a(S'w'
I727
tp2575
a(S'p2_vo'
I11
tp2576
a(S'w'
I2208
tp2577
a(S'p2_vo'
I10
tp2578
a(S'w'
I2195
tp2579
a(S'p2_vo'
I9
tp2580
a(S'w'
I2201
tp2581
a(S'p2_vo'
I8
tp2582
a(S'w'
I2208
tp2583
a(S'p2_vo'
I7
tp2584
a(S'w'
I2195
tp2585
a(S'p2_vo'
I6
tp2586
a(S'w'
I2208
tp2587
a(S'p2_vo'
I5
tp2588
a(S'w'
I3672
tp2589
a(S'p2_tl'
I171
tp2590
a(S'w'
I1
tp2591
a(S'p2_ll'
I1
tp2592
a(S'p2_th'
I1
tp2593
a(S'w'
I5
tp2594
a(S'p2_vo'
I6
tp2595
a(S'w'
I718
tp2596
a(S'p2_vo'
I8
tp2597
a(S'w'
I740
tp2598
a(S'p2_vo'
I10
tp2599
a(S'w'
I728
tp2600
a(S'p2_vo'
I11
tp2601
a(S'w'
I2208
tp2602
a(S'p2_vo'
I10
tp2603
a(S'w'
I2195
tp2604
a(S'p2_vo'
I9
tp2605
a(S'w'
I2208
tp2606
a(S'p2_vo'
I8
tp2607
a(S'w'
I2201
tp2608
a(S'p2_vo'
I7
tp2609
a(S'w'
I2195
tp2610
a(S'p2_vo'
I6
tp2611
a(S'w'
I2208
tp2612
a(S'p2_vo'
I5
tp2613
a(S'w'
I2938
tp2614
a(S'p2_tl'
I147
tp2615
a(S'w'
I1
tp2616
a(S'p2_ll'
I1
tp2617
a(S'w'
I5
tp2618
a(S'p2_vo'
I6
tp2619
a(S'w'
I718
tp2620
a(S'p2_vo'
I8
tp2621
a(S'w'
I741
tp2622
a(S'p2_vo'
I10
tp2623
a(S'w'
I727
tp2624
a(S'p2_vo'
I11
tp2625
a(S'w'
I2201
tp2626
a(S'p2_vo'
I10
tp2627
a(S'w'
I2208
tp2628
a(S'p2_vo'
I9
tp2629
a(S'w'
I2195
tp2630
a(S'p2_vo'
I8
tp2631
a(S'w'
I2208
tp2632
a(S'p2_vo'
I7
tp2633
a(S'w'
I2195
tp2634
a(S'p2_vo'
I6
tp2635
a(S'w'
I2201
tp2636
a(S'p2_vo'
I5
tp2637
a(S'w'
I3688
tp2638
a(S'p2_tl'
I171
tp2639
a(S'w'
I1
tp2640
a(S'p2_ll'
I1
tp2641
a(S'w'
I5
tp2642
a(S'p2_vo'
I6
tp2643
a(S'w'
I3
tp2644
a(S'tr_tl'
I70
tp2645
a(S'tr_ll'
I1
tp2646
a(S'w'
I706
tp2647
a(S'p2_vo'
I8
tp2648
a(S'w'
I740
tp2649
a(S'p2_vo'
I10
tp2650
a(S'w'
I728
tp2651
a(S'p2_vo'
I11
tp2652
a(S'w'
I2208
tp2653
a(S'p2_vo'
I10
tp2654
a(S'w'
I2201
tp2655
a(S'p2_vo'
I9
tp2656
a(S'w'
I2195
tp2657
a(S'p2_vo'
I8
tp2658
a(S'w'
I2208
tp2659
a(S'p2_vo'
I7
tp2660
a(S'w'
I2195
tp2661
a(S'p2_vo'
I6
tp2662
a(S'w'
I2208
tp2663
a(S'p2_vo'
I5
tp2664
a(S'w'
I3672
tp2665
a(S'p2_tl'
I223
tp2666
a(S'p2_ll'
I1
tp2667
a(S'w'
I6
tp2668
a(S'p2_vo'
I6
tp2669
a(S'w'
I718
tp2670
a(S'p2_vo'
I8
tp2671
a(S'w'
I740
tp2672
a(S'p2_vo'
I10
tp2673
a(S'w'
I727
tp2674
a(S'p2_vo'
I11
tp2675
a(S'w'
I2208
tp2676
a(S'p2_vo'
I10
tp2677
a(S'w'
I2195
tp2678
a(S'p2_vo'
I9
tp2679
a(S'w'
I2202
tp2680
a(S'p2_vo'
I8
tp2681
a(S'w'
I2208
tp2682
a(S'p2_vo'
I7
tp2683
a(S'w'
I2195
tp2684
a(S'p2_vo'
I6
tp2685
a(S'w'
I2208
tp2686
a(S'p2_vo'
I5
tp2687
a(S'w'
I2938
tp2688
a(S'p1_tl'
I169
tp2689
a(S'w'
I1
tp2690
a(S'p1_ll'
I1
tp2691
a(S'w'
I5
tp2692
a(S'p1_vo'
I6
tp2693
a(S'w'
I3
tp2694
a(S'p2_tl'
I26
tp2695
a(S'p2_ll'
I1
tp2696
a(S'p2_th'
I2
tp2697
a(S'w'
I6
tp2698
a(S'p2_vo'
I6
tp2699
a(S'w'
I702
tp2700
a(S'p1_vo'
I8
tp2701
a(S'w'
I6
tp2702
a(S'p2_vo'
I8
tp2703
a(S'w'
I728
tp2704
a(S'p1_vo'
I10
tp2705
a(S'w'
I6
tp2706
a(S'p2_vo'
I10
tp2707
a(S'w'
I734
tp2708
a(S'p1_vo'
I11
tp2709
a(S'w'
I7
tp2710
a(S'p2_vo'
I11
tp2711
a(S'w'
I2188
tp2712
a(S'p1_vo'
I10
tp2713
a(S'w'
I6
tp2714
a(S'p2_vo'
I10
tp2715
a(S'w'
I2202
tp2716
a(S'p1_vo'
I9
tp2717
a(S'w'
I6
tp2718
a(S'p2_vo'
I9
tp2719
a(S'w'
I2189
tp2720
a(S'p1_vo'
I8
tp2721
a(S'w'
I6
tp2722
a(S'p2_vo'
I8
tp2723
a(S'w'
I2202
tp2724
a(S'p1_vo'
I7
tp2725
a(S'w'
I6
tp2726
a(S'p2_vo'
I7
tp2727
a(S'w'
I2195
tp2728
a(S'p1_vo'
I6
tp2729
a(S'w'
I7
tp2730
a(S'p2_vo'
I6
tp2731
a(S'w'
I2188
tp2732
a(S'p1_vo'
I5
tp2733
a(S'w'
I6
tp2734
a(S'p2_vo'
I5
tp2735
a(S'w'
I3680
tp2736
a(S'p2_tl'
I58
tp2737
a(S'p2_ll'
I1
tp2738
a(S'w'
I5
tp2739
a(S'p2_vo'
I6
tp2740
a(S'w'
I719
tp2741
a(S'p2_vo'
I8
tp2742
a(S'w'
I740
tp2743
a(S'p2_vo'
I10
tp2744
a(S'w'
I727
tp2745
a(S'p2_vo'
I11
tp2746
a(S'w'
I2202
tp2747
a(S'p2_vo'
I10
tp2748
a(S'w'
I2208
tp2749
a(S'p2_vo'
I9
tp2750
a(S'w'
I2195
tp2751
a(S'p2_vo'
I8
tp2752
a(S'w'
I2208
tp2753
a(S'p2_vo'
I7
tp2754
a(S'w'
I2194
tp2755
a(S'p2_vo'
I6
tp2756
a(S'w'
I2202
tp2757
a(S'p2_vo'
I5
tp2758
a(S'w'
I3710
tp2759
a(S'p1_tl'
I171
tp2760
a(S'p1_ll'
I1
tp2761
a(S'p1_th'
I1
tp2762
a(S'w'
I5
tp2763
a(S'p1_vo'
I6
tp2764
a(S'w'
I4
tp2765
a(S'p2_tl'
I223
tp2766
a(S'p2_ll'
I1
tp2767
a(S'p2_th'
I1
tp2768
a(S'w'
I5
tp2769
a(S'p2_vo'
I6
tp2770
a(S'w'
I3
tp2771
a(S'tr_tl'
I159
tp2772
a(S'w'
I1
tp2773
a(S'tr_ll'
I1
tp2774
a(S'w'
I668
tp2775
a(S'p1_vo'
I8
tp2776
a(S'w'
I6
tp2777
a(S'p2_vo'
I8
tp2778
a(S'w'
I734
tp2779
a(S'p1_vo'
I10
tp2780
a(S'w'
I6
tp2781
a(S'p2_vo'
I10
tp2782
a(S'w'
I721
tp2783
a(S'p1_vo'
I11
tp2784
a(S'w'
I7
tp2785
a(S'p2_vo'
I11
tp2786
a(S'w'
I2201
tp2787
a(S'p1_vo'
I10
tp2788
a(S'w'
I7
tp2789
a(S'p2_vo'
I10
tp2790
a(S'w'
I2188
tp2791
a(S'p1_vo'
I9
tp2792
a(S'w'
I7
tp2793
a(S'p2_vo'
I9
tp2794
a(S'w'
I2194
tp2795
a(S'p1_vo'
I8
tp2796
a(S'w'
I7
tp2797
a(S'p2_vo'
I8
tp2798
a(S'w'
I2201
tp2799
a(S'p1_vo'
I7
tp2800
a(S'w'
I7
tp2801
a(S'p2_vo'
I7
tp2802
a(S'w'
I2188
tp2803
a(S'p1_vo'
I6
tp2804
a(S'w'
I7
tp2805
a(S'p2_vo'
I6
tp2806
a(S'w'
I2201
tp2807
a(S'p1_vo'
I5
tp2808
a(S'w'
I7
tp2809
a(S'p2_vo'
I5
tp2810
a(S'w'
I22019
tp2811
a(S'p2_tl'
I26
tp2812
a(S'p2_ll'
I1
tp2813
a(S'p2_th'
I2
tp2814
a(S'w'
I5
tp2815
a(S'p2_vo'
I6
tp2816
a(S'w'
I717
tp2817
a(S'p2_vo'
I8
tp2818
a(S'w'
I741
tp2819
a(S'p2_vo'
I10
tp2820
a(S'w'
I727
tp2821
a(S'p2_vo'
I11
tp2822
a(S'w'
I2201
tp2823
a(S'p2_vo'
I10
tp2824
a(S'w'
I2208
tp2825
a(S'p2_vo'
I9
tp2826
a(S'w'
I2195
tp2827
a(S'p2_vo'
I8
tp2828
a(S'w'
I2208
tp2829
a(S'p2_vo'
I7
tp2830
a(S'w'
I2195
tp2831
a(S'p2_vo'
I6
tp2832
a(S'w'
I2201
tp2833
a(S'p2_vo'
I5
tp2834
a(S'w'
I22761
tp2835
a(S'p1_tl'
I63
tp2836
a(S'p1_ll'
I1
tp2837
a(S'w'
I6
tp2838
a(S'p1_vo'
I6
tp2839
a(S'w'
I10
tp2840
a(S'tr_tl'
I106
tp2841
a(S'tr_ll'
I1
tp2842
a(S'w'
I698
tp2843
a(S'p1_vo'
I8
tp2844
a(S'w'
I741
tp2845
a(S'p1_vo'
I10
tp2846
a(S'w'
I727
tp2847
a(S'p1_vo'
I11
tp2848
a(S'w'
I2208
tp2849
a(S'p1_vo'
I10
tp2850
a(S'w'
I2195
tp2851
a(S'p1_vo'
I9
tp2852
a(S'w'
I2201
tp2853
a(S'p1_vo'
I8
tp2854
a(S'w'
I2208
tp2855
a(S'p1_vo'
I7
tp2856
a(S'w'
I2195
tp2857
a(S'p1_vo'
I6
tp2858
a(S'w'
I2208
tp2859
a(S'p1_vo'
I5
tp2860
a(S'w'
I22017
tp2861
a(S'p1_tl'
I103
tp2862
a(S'p1_ll'
I1
tp2863
a(S'w'
I5
tp2864
a(S'p1_vo'
I6
tp2865
a(S'w'
I719
tp2866
a(S'p1_vo'
I8
tp2867
a(S'w'
I740
tp2868
a(S'p1_vo'
I10
tp2869
a(S'w'
I728
tp2870
a(S'p1_vo'
I11
tp2871
a(S'w'
I2201
tp2872
a(S'p1_vo'
I10
tp2873
a(S'w'
I2208
tp2874
a(S'p1_vo'
I9
tp2875
a(S'w'
I2195
tp2876
a(S'p1_vo'
I8
tp2877
a(S'w'
I2208
tp2878
a(S'p1_vo'
I7
tp2879
a(S'w'
I2195
tp2880
a(S'p1_vo'
I6
tp2881
a(S'w'
I2201
tp2882
a(S'p1_vo'
I5
tp2883
a(S'w'
I12466
tp2884
a.