(lp1
(S'clock'
p2
I1789772
tp3
a(S'p1_lh'
I1
tp4
a(S'p1_cv'
I1
tp5
a(S'p1_vo'
I15
tp6
a(S'p1_sn'
I1
tp7
a(S'p1_tl'
I106
tp8
a(S'p1_ll'
I1
tp9
a(S'p2_lh'
I1
tp10
a(S'p2_cv'
I1
tp11
a(S'p2_vo'
I15
tp12
a(S'p2_sn'
I1
tp13
a(S'p2_tl'
I169
tp14
a(S'p2_ll'
I1
tp15
a(S'tr_lh'
I1
tp16
a(S'tr_lr'
I126
tp17
a(S'tr_tl'
I142
tp18
a(S'tr_ll'
I1
tp19
a(S'no_lh'
I1
tp20
a(S'no_cv'
I1
tp21
a(S'no_ll'
I1
tp22
a(S'ch_no'
I1
tp23
a(S'ch_tr'
I1
tp24
a(S'ch_p2'
I1
tp25
a(S'ch_p1'
I1
tp26
a(S'fc_mo'
I1
tp27
a(S'p1_tl'
I94
tp28
a(S'p1_ll'
I1
tp29
a(S'w'
I5
tp30
a(S'p1_du'
I2
tp31
a(S'p1_vo'
I10
tp32
a(S'w'
I3
tp33
a(S'p2_tl'
I150
tp34
a(S'w'
I1
tp35
a(S'p2_ll'
I1
tp36
a(S'w'
I5
tp37
a(S'p2_du'
I2
tp38
a(S'p2_vo'
I10
tp39
a(S'w'
I3
tp40
a(S'tr_tl'
I173
tp41
a(S'tr_ll'
I1
tp42
a(S'tr_th'
I6
tp43
a(S'w'
I1
tp44
a(S'tr_lh'
I0
tp45
a(S'tr_lr'
I0
tp46
a(S'w'
I1
tp47
a(S'no_ll'
I1
tp48
a(S'w'
I422
tp49
a(S'p1_vo'
I15
tp50
a(S'w'
I6
tp51
a(S'p2_vo'
I15
tp52
a(S'w'
I728
tp53
a(S'p1_vo'
I13
tp54
a(S'w'
I7
tp55
a(S'p2_vo'
I13
tp56
a(S'w'
I726
tp57
a(S'p1_vo'
I12
tp58
a(S'w'
I7
tp59
a(S'p2_vo'
I12
tp60
a(S'w'
I1461
tp61
a(S'p1_vo'
I11
tp62
a(S'w'
I6
tp63
a(S'p2_vo'
I11
tp64
a(S'w'
I1461
tp65
a(S'p1_vo'
I10
tp66
a(S'w'
I7
tp67
a(S'p2_vo'
I10
tp68
a(S'w'
I2195
tp69
a(S'p1_vo'
I9
tp70
a(S'w'
I6
tp71
a(S'p2_vo'
I9
tp72
a(S'w'
I2195
tp73
a(S'p1_vo'
I8
tp74
a(S'w'
I6
tp75
a(S'p2_vo'
I8
tp76
a(S'w'
I1472
tp77
a(S'p1_tl'
I100
tp78
a(S'p1_ll'
I1
tp79
a(S'w'
I5
tp80
a(S'p1_vo'
I10
tp81
a(S'w'
I3
tp82
a(S'p2_tl'
I159
tp83
a(S'w'
I1
tp84
a(S'p2_ll'
I1
tp85
a(S'w'
I5
tp86
a(S'p2_vo'
I10
tp87
a(S'w'
I709
tp88
a(S'p1_vo'
I15
tp89
a(S'w'
I7
tp90
a(S'p2_vo'
I15
tp91
a(S'w'
I728
tp92
a(S'p1_vo'
I13
tp93
a(S'w'
I7
tp94
a(S'p2_vo'
I13
tp95
a(S'w'
I726
tp96
a(S'p1_vo'
I12
tp97
a(S'w'
I6
tp98
a(S'p2_vo'
I12
tp99
a(S'w'
I1462
tp100
a(S'p1_vo'
I11
tp101
a(S'w'
I6
tp102
a(S'p2_vo'
I11
tp103
a(S'w'
I1461
tp104
a(S'p1_vo'
I10
tp105
a(S'w'
I7
tp106
a(S'p2_vo'
I10
tp107
a(S'w'
I2195
tp108
a(S'p1_vo'
I9
tp109
a(S'w'
I6
tp110
a(S'p2_vo'
I9
tp111
a(S'w'
I2195
tp112
a(S'p1_vo'
I8
tp113
a(S'w'
I6
tp114
a(S'p2_vo'
I8
tp115
a(S'w'
I1472
tp116
a(S'p1_tl'
I106
tp117
a(S'p1_ll'
I1
tp118
a(S'w'
I5
tp119
a(S'p1_vo'
I10
tp120
a(S'w'
I3
tp121
a(S'p2_tl'
I169
tp122
a(S'w'
I1
tp123
a(S'p2_ll'
I1
tp124
a(S'w'
I5
tp125
a(S'p2_vo'
I10
tp126
a(S'w'
I709
tp127
a(S'p1_vo'
I15
tp128
a(S'w'
I7
tp129
a(S'p2_vo'
I15
tp130
a(S'w'
I728
tp131
a(S'p1_vo'
I13
tp132
a(S'w'
I7
tp133
a(S'p2_vo'
I13
tp134
a(S'w'
I726
tp135
a(S'p1_vo'
I12
tp136
a(S'w'
I6
tp137
a(S'p2_vo'
I12
tp138
a(S'w'
I1462
tp139
a(S'p1_vo'
I11
tp140
a(S'w'
I6
tp141
a(S'p2_vo'
I11
tp142
a(S'w'
I1461
tp143
a(S'p1_vo'
I10
tp144
a(S'w'
I7
tp145
a(S'p2_vo'
I10
tp146
a(S'w'
I2195
tp147
a(S'p1_vo'
I9
tp148
a(S'w'
I6
tp149
a(S'p2_vo'
I9
tp150
a(S'w'
I2195
tp151
a(S'p1_vo'
I8
tp152
a(S'w'
I7
tp153
a(S'p2_vo'
I8
tp154
a(S'w'
I1471
tp155
a(S'p1_tl'
I112
tp156
a(S'p1_ll'
I1
tp157
a(S'w'
I5
tp158
a(S'p1_vo'
I10
tp159
a(S'w'
I4
tp160
a(S'p2_tl'
I189
tp161
a(S'p2_ll'
I1
tp162
a(S'w'
I5
tp163
a(S'p2_vo'
I10
tp164
a(S'w'
I709
tp165
a(S'p1_vo'
I15
tp166
a(S'w'
I7
tp167
a(S'p2_vo'
I15
tp168
a(S'w'
I728
tp169
a(S'p1_vo'
I13
tp170
a(S'w'
I7
tp171
a(S'p2_vo'
I13
tp172
a(S'w'
I726
tp173
a(S'p1_vo'
I12
tp174
a(S'w'
I7
tp175
a(S'p2_vo'
I12
tp176
a(S'w'
I1461
tp177
a(S'p1_vo'
I11
tp178
a(S'w'
I6
tp179
a(S'p2_vo'
I11
tp180
a(S'w'
I1461
tp181
a(S'p1_vo'
I10
tp182
a(S'w'
I7
tp183
a(S'p2_vo'
I10
tp184
a(S'w'
I2195
tp185
a(S'p1_vo'
I9
tp186
a(S'w'
I6
tp187
a(S'p2_vo'
I9
tp188
a(S'w'
I2195
tp189
a(S'p1_vo'
I8
tp190
a(S'w'
I7
tp191
a(S'p2_vo'
I8
tp192
a(S'w'
I1472
tp193
a(S'p1_tl'
I126
tp194
a(S'p1_ll'
I1
tp195
a(S'w'
I5
tp196
a(S'p1_vo'
I10
tp197
a(S'w'
I3
tp198
a(S'p2_tl'
I213
tp199
a(S'w'
I1
tp200
a(S'p2_ll'
I1
tp201
a(S'w'
I5
tp202
a(S'p2_vo'
I10
tp203
a(S'w'
I709
tp204
a(S'p1_vo'
I15
tp205
a(S'w'
I6
tp206
a(S'p2_vo'
I15
tp207
a(S'w'
I728
tp208
a(S'p1_vo'
I13
tp209
a(S'w'
I7
tp210
a(S'p2_vo'
I13
tp211
a(S'w'
I726
tp212
a(S'p1_vo'
I12
tp213
a(S'w'
I7
tp214
a(S'p2_vo'
I12
tp215
a(S'w'
I1462
tp216
a(S'p1_du'
I0
tp217
a(S'p1_vo'
I2
tp218
a(S'w'
I5
tp219
a(S'p2_du'
I0
tp220
a(S'p2_vo'
I2
tp221
a(S'w'
I7342
tp222
a(S'p1_tl'
I189
tp223
a(S'p1_ll'
I1
tp224
a(S'w'
I5
tp225
a(S'p1_du'
I2
tp226
a(S'p1_vo'
I10
tp227
a(S'w'
I4
tp228
a(S'p2_tl'
I45
tp229
a(S'p2_ll'
I1
tp230
a(S'p2_th'
I1
tp231
a(S'w'
I5
tp232
a(S'p2_du'
I2
tp233
a(S'p2_vo'
I10
tp234
a(S'w'
I710
tp235
a(S'p1_vo'
I15
tp236
a(S'w'
I6
tp237
a(S'p2_vo'
I15
tp238
a(S'w'
I728
tp239
a(S'p1_vo'
I13
tp240
a(S'w'
I7
tp241
a(S'p2_vo'
I13
tp242
a(S'w'
I726
tp243
a(S'p1_vo'
I12
tp244
a(S'w'
I7
tp245
a(S'p2_vo'
I12
tp246
a(S'w'
I1462
tp247
a(S'p1_du'
I0
tp248
a(S'p1_vo'
I2
tp249
a(S'w'
I5
tp250
a(S'p2_du'
I0
tp251
a(S'p2_vo'
I2
tp252
a(S'w'
I7344
tp253
a(S'p1_tl'
I94
tp254
a(S'p1_ll'
I1
tp255
a(S'w'
I5
tp256
a(S'p1_du'
I2
tp257
a(S'p1_vo'
I10
tp258
a(S'w'
I3
tp259
a(S'p2_tl'
I150
tp260
a(S'w'
I1
tp261
a(S'p2_ll'
I1
tp262
a(S'p2_th'
I0
tp263
a(S'w'
I5
tp264
a(S'p2_du'
I2
tp265
a(S'p2_vo'
I10
tp266
a(S'w'
I708
tp267
a(S'p1_vo'
I15
tp268
a(S'w'
I6
tp269
a(S'p2_vo'
I15
tp270
a(S'w'
I728
tp271
a(S'p1_vo'
I13
tp272
a(S'w'
I7
tp273
a(S'p2_vo'
I13
tp274
a(S'w'
I727
tp275
a(S'p1_vo'
I12
tp276
a(S'w'
I6
tp277
a(S'p2_vo'
I12
tp278
a(S'w'
I1461
tp279
a(S'p1_vo'
I11
tp280
a(S'w'
I7
tp281
a(S'p2_vo'
I11
tp282
a(S'w'
I1461
tp283
a(S'p1_vo'
I10
tp284
a(S'w'
I6
tp285
a(S'p2_vo'
I10
tp286
a(S'w'
I2195
tp287
a(S'p1_vo'
I9
tp288
a(S'w'
I7
tp289
a(S'p2_vo'
I9
tp290
a(S'w'
I2194
tp291
a(S'p1_vo'
I8
tp292
a(S'w'
I7
tp293
a(S'p2_vo'
I8
tp294
a(S'w'
I2929
tp295
a(S'p1_vo'
I9
tp296
a(S'w'
I6
tp297
a(S'p2_vo'
I9
tp298
a(S'w'
I727
tp299
a(S'p1_vo'
I10
tp300
a(S'w'
I7
tp301
a(S'p2_vo'
I10
tp302
a(S'w'
I721
tp303
a(S'p1_vo'
I11
tp304
a(S'w'
I6
tp305
a(S'p2_vo'
I11
tp306
a(S'w'
I734
tp307
a(S'p1_vo'
I12
tp308
a(S'w'
I7
tp309
a(S'p2_vo'
I12
tp310
a(S'w'
I1461
tp311
a(S'p1_vo'
I11
tp312
a(S'w'
I6
tp313
a(S'p2_vo'
I11
tp314
a(S'w'
I727
tp315
a(S'p1_vo'
I10
tp316
a(S'w'
I7
tp317
a(S'p2_vo'
I10
tp318
a(S'w'
I721
tp319
a(S'p1_vo'
I9
tp320
a(S'w'
I6
tp321
a(S'p2_vo'
I9
tp322
a(S'w'
I2936
tp323
a(S'p1_vo'
I8
tp324
a(S'w'
I6
tp325
a(S'p2_vo'
I8
tp326
a(S'w'
I1462
tp327
a(S'p1_du'
I0
tp328
a(S'p1_vo'
I2
tp329
a(S'w'
I5
tp330
a(S'p2_du'
I0
tp331
a(S'p2_vo'
I2
tp332
a(S'w'
I11012
tp333
a(S'p1_vo'
I0
tp334
a(S'w'
I5
tp335
a(S'p2_vo'
I0
tp336
a(S'w'
I1
tp337
a.