(lp1
(S'clock'
p2
I1789772
tp3
a(S'p1_lh'
I1
tp4
a(S'p1_cv'
I1
tp5
a(S'p1_sn'
I1
tp6
a(S'p1_tl'
I70
tp7
a(S'p1_ll'
I1
tp8
a(S'p2_lh'
I1
tp9
a(S'p2_cv'
I1
tp10
a(S'p2_sn'
I1
tp11
a(S'p2_tl'
I70
tp12
a(S'p2_ll'
I1
tp13
a(S'tr_tl'
I173
tp14
a(S'tr_ll'
I1
tp15
a(S'tr_th'
I6
tp16
a(S'no_lh'
I1
tp17
a(S'no_cv'
I1
tp18
a(S'no_ll'
I1
tp19
a(S'ch_no'
I1
tp20
a(S'ch_tr'
I1
tp21
a(S'ch_p2'
I1
tp22
a(S'ch_p1'
I1
tp23
a(S'fc_mo'
I1
tp24
a(S'p1_tl'
I86
tp25
a(S'w'
I1
tp26
a(S'p1_ll'
I1
tp27
a(S'p1_th'
I3
tp28
a(S'w'
I5
tp29
a(S'p1_du'
I1
tp30
a(S'p1_vo'
I15
tp31
a(S'w'
I3
tp32
a(S'p2_tl'
I173
tp33
a(S'p2_ll'
I1
tp34
a(S'p2_th'
I6
tp35
a(S'w'
I8
tp36
a(S'tr_ll'
I1
tp37
a(S'w'
I2
tp38
a(S'no_ll'
I1
tp39
a(S'w'
I418
tp40
a(S'p1_vo'
I14
tp41
a(S'w'
I1468
tp42
a(S'p1_vo'
I13
tp43
a(S'w'
I1474
tp44
a(S'p1_vo'
I12
tp45
a(S'w'
I1467
tp46
a(S'p1_vo'
I11
tp47
a(S'w'
I1462
tp48
a(S'p1_vo'
I10
tp49
a(S'w'
I1467
tp50
a(S'p1_vo'
I9
tp51
a(S'w'
I1468
tp52
a(S'p1_vo'
I8
tp53
a(S'w'
I1474
tp54
a(S'p1_vo'
I7
tp55
a(S'w'
I1467
tp56
a(S'p1_vo'
I6
tp57
a(S'w'
I1462
tp58
a(S'p1_vo'
I5
tp59
a(S'w'
I2219
tp60
a(S'p2_tl'
I58
tp61
a(S'p2_ll'
I1
tp62
a(S'p2_th'
I2
tp63
a(S'w'
I5
tp64
a(S'p2_du'
I1
tp65
a(S'p2_vo'
I15
tp66
a(S'w'
I718
tp67
a(S'p2_vo'
I14
tp68
a(S'w'
I1474
tp69
a(S'p2_vo'
I13
tp70
a(S'w'
I1467
tp71
a(S'p2_vo'
I12
tp72
a(S'w'
I1462
tp73
a(S'p2_vo'
I11
tp74
a(S'w'
I1467
tp75
a(S'p2_vo'
I10
tp76
a(S'w'
I1468
tp77
a(S'p2_vo'
I9
tp78
a(S'w'
I1474
tp79
a(S'p2_vo'
I8
tp80
a(S'w'
I1467
tp81
a(S'p2_vo'
I7
tp82
a(S'w'
I1462
tp83
a(S'p2_vo'
I6
tp84
a(S'w'
I1467
tp85
a(S'p2_vo'
I5
tp86
a(S'w'
I737
tp87
a(S'p1_tl'
I196
tp88
a(S'w'
I1
tp89
a(S'p1_ll'
I1
tp90
a(S'p1_th'
I1
tp91
a(S'w'
I5
tp92
a(S'p1_vo'
I15
tp93
a(S'w'
I718
tp94
a(S'p1_vo'
I14
tp95
a(S'w'
I1474
tp96
a(S'p1_vo'
I13
tp97
a(S'w'
I1467
tp98
a(S'p1_vo'
I12
tp99
a(S'w'
I1462
tp100
a(S'p1_vo'
I11
tp101
a(S'w'
I1467
tp102
a(S'p1_vo'
I10
tp103
a(S'w'
I1468
tp104
a(S'p1_vo'
I9
tp105
a(S'w'
I1474
tp106
a(S'p1_vo'
I8
tp107
a(S'w'
I1467
tp108
a(S'p1_vo'
I7
tp109
a(S'w'
I1462
tp110
a(S'p1_vo'
I6
tp111
a(S'w'
I751
tp112
a(S'p2_tl'
I82
tp113
a(S'p2_ll'
I1
tp114
a(S'p2_th'
I1
tp115
a(S'w'
I5
tp116
a(S'p2_vo'
I15
tp117
a(S'w'
I711
tp118
a(S'p1_vo'
I5
tp119
a(S'w'
I7
tp120
a(S'p2_vo'
I14
tp121
a(S'w'
I1468
tp122
a(S'p2_vo'
I13
tp123
a(S'w'
I1474
tp124
a(S'p2_vo'
I12
tp125
a(S'w'
I1467
tp126
a(S'p2_vo'
I11
tp127
a(S'w'
I1462
tp128
a(S'p2_vo'
I10
tp129
a(S'w'
I1467
tp130
a(S'p2_vo'
I9
tp131
a(S'w'
I1468
tp132
a(S'p2_vo'
I8
tp133
a(S'w'
I1471
tp134
a(S'p1_tl'
I249
tp135
a(S'p1_ll'
I1
tp136
a(S'p1_th'
I2
tp137
a(S'w'
I5
tp138
a(S'p1_vo'
I15
tp139
a(S'w'
I7
tp140
a(S'p2_vo'
I7
tp141
a(S'w'
I711
tp142
a(S'p1_vo'
I14
tp143
a(S'w'
I747
tp144
a(S'p2_vo'
I6
tp145
a(S'w'
I721
tp146
a(S'p1_vo'
I13
tp147
a(S'w'
I740
tp148
a(S'p2_vo'
I5
tp149
a(S'w'
I734
tp150
a(S'p1_vo'
I12
tp151
a(S'w'
I1467
tp152
a(S'p1_vo'
I11
tp153
a(S'w'
I1462
tp154
a(S'p1_vo'
I10
tp155
a(S'w'
I1467
tp156
a(S'p1_vo'
I9
tp157
a(S'w'
I752
tp158
a(S'p2_tl'
I251
tp159
a(S'p2_ll'
I1
tp160
a(S'w'
I5
tp161
a(S'p2_vo'
I15
tp162
a(S'w'
I711
tp163
a(S'p1_vo'
I8
tp164
a(S'w'
I7
tp165
a(S'p2_vo'
I14
tp166
a(S'w'
I1467
tp167
a(S'p1_vo'
I7
tp168
a(S'w'
I6
tp169
a(S'p2_vo'
I13
tp170
a(S'w'
I1461
tp171
a(S'p1_vo'
I6
tp172
a(S'w'
I7
tp173
a(S'p2_vo'
I12
tp174
a(S'w'
I1455
tp175
a(S'p1_vo'
I5
tp176
a(S'w'
I6
tp177
a(S'p2_vo'
I11
tp178
a(S'w'
I1468
tp179
a(S'p2_vo'
I10
tp180
a(S'w'
I738
tp181
a(S'p1_tl'
I171
tp182
a(S'p1_ll'
I1
tp183
a(S'p1_th'
I1
tp184
a(S'w'
I5
tp185
a(S'p1_vo'
I15
tp186
a(S'w'
I718
tp187
a(S'p1_vo'
I14
tp188
a(S'w'
I7
tp189
a(S'p2_vo'
I9
tp190
a(S'w'
I1467
tp191
a(S'p1_vo'
I13
tp192
a(S'w'
I6
tp193
a(S'p2_vo'
I8
tp194
a(S'w'
I1462
tp195
a(S'p1_vo'
I12
tp196
a(S'w'
I6
tp197
a(S'p2_vo'
I7
tp198
a(S'w'
I1455
tp199
a(S'p1_vo'
I11
tp200
a(S'w'
I6
tp201
a(S'p2_vo'
I6
tp202
a(S'w'
I745
tp203
a(S'p2_tl'
I63
tp204
a(S'p2_ll'
I1
tp205
a(S'w'
I6
tp206
a(S'p2_vo'
I15
tp207
a(S'w'
I710
tp208
a(S'p1_vo'
I10
tp209
a(S'w'
I7
tp210
a(S'p2_vo'
I14
tp211
a(S'w'
I1461
tp212
a(S'p1_vo'
I9
tp213
a(S'w'
I7
tp214
a(S'p2_vo'
I13
tp215
a(S'w'
I1467
tp216
a(S'p1_vo'
I8
tp217
a(S'w'
I6
tp218
a(S'p2_vo'
I12
tp219
a(S'w'
I1466
tp220
a(S'p1_tl'
I166
tp221
a(S'p1_ll'
I1
tp222
a(S'p1_th'
I2
tp223
a(S'w'
I5
tp224
a(S'p1_vo'
I15
tp225
a(S'w'
I7
tp226
a(S'p2_vo'
I11
tp227
a(S'w'
I711
tp228
a(S'p1_vo'
I14
tp229
a(S'w'
I747
tp230
a(S'p2_vo'
I10
tp231
a(S'w'
I721
tp232
a(S'p1_vo'
I13
tp233
a(S'w'
I746
tp234
a(S'p2_vo'
I9
tp235
a(S'w'
I721
tp236
a(S'p1_vo'
I12
tp237
a(S'w'
I741
tp238
a(S'p2_vo'
I8
tp239
a(S'w'
I740
tp240
a(S'p1_vo'
I11
tp241
a(S'w'
I3
tp242
a(S'p2_tl'
I196
tp243
a(S'p2_ll'
I1
tp244
a(S'w'
I6
tp245
a(S'p2_vo'
I15
tp246
a(S'w'
I718
tp247
a(S'p2_vo'
I14
tp248
a(S'w'
I734
tp249
a(S'p1_vo'
I10
tp250
a(S'w'
I734
tp251
a(S'p2_vo'
I13
tp252
a(S'w'
I733
tp253
a(S'p1_vo'
I9
tp254
a(S'w'
I734
tp255
a(S'p2_vo'
I12
tp256
a(S'w'
I737
tp257
a(S'p1_tl'
I124
tp258
a(S'p1_ll'
I1
tp259
a(S'p1_th'
I1
tp260
a(S'w'
I5
tp261
a(S'p1_vo'
I15
tp262
a(S'w'
I719
tp263
a(S'p1_vo'
I14
tp264
a(S'w'
I7
tp265
a(S'p2_vo'
I11
tp266
a(S'w'
I1461
tp267
a(S'p1_vo'
I13
tp268
a(S'w'
I7
tp269
a(S'p2_vo'
I10
tp270
a(S'w'
I1461
tp271
a(S'p1_vo'
I12
tp272
a(S'w'
I6
tp273
a(S'p2_vo'
I9
tp274
a(S'w'
I744
tp275
a(S'p2_tl'
I28
tp276
a(S'p2_ll'
I1
tp277
a(S'w'
I5
tp278
a(S'p2_vo'
I15
tp279
a(S'w'
I712
tp280
a(S'p1_vo'
I11
tp281
a(S'w'
I7
tp282
a(S'p2_vo'
I14
tp283
a(S'w'
I1467
tp284
a(S'p1_vo'
I10
tp285
a(S'w'
I7
tp286
a(S'p2_vo'
I13
tp287
a(S'w'
I1461
tp288
a(S'p1_vo'
I9
tp289
a(S'w'
I6
tp290
a(S'p2_vo'
I12
tp291
a(S'w'
I1466
tp292
a(S'p1_tl'
I128
tp293
a(S'p1_ll'
I1
tp294
a(S'p1_th'
I2
tp295
a(S'w'
I5
tp296
a(S'p1_vo'
I15
tp297
a(S'w'
I7
tp298
a(S'p2_vo'
I11
tp299
a(S'w'
I711
tp300
a(S'p1_vo'
I14
tp301
a(S'w'
I746
tp302
a(S'p2_vo'
I10
tp303
a(S'w'
I722
tp304
a(S'p1_vo'
I13
tp305
a(S'w'
I746
tp306
a(S'p2_vo'
I9
tp307
a(S'w'
I721
tp308
a(S'p1_vo'
I12
tp309
a(S'w'
I750
tp310
a(S'p2_tl'
I171
tp311
a(S'w'
I1
tp312
a(S'p2_ll'
I1
tp313
a(S'w'
I5
tp314
a(S'p2_vo'
I15
tp315
a(S'w'
I718
tp316
a(S'p1_vo'
I11
tp317
a(S'w'
I7
tp318
a(S'p2_vo'
I14
tp319
a(S'w'
I1461
tp320
a(S'p1_vo'
I10
tp321
a(S'w'
I6
tp322
a(S'p2_vo'
I13
tp323
a(S'w'
I1464
tp324
a(S'p1_tl'
I82
tp325
a(S'p1_ll'
I1
tp326
a(S'p1_th'
I1
tp327
a(S'w'
I6
tp328
a(S'p1_vo'
I15
tp329
a(S'w'
I6
tp330
a(S'p2_vo'
I12
tp331
a(S'w'
I713
tp332
a(S'p1_vo'
I14
tp333
a(S'w'
I746
tp334
a(S'p2_vo'
I11
tp335
a(S'w'
I721
tp336
a(S'p1_vo'
I13
tp337
a(S'w'
I747
tp338
a(S'p2_vo'
I10
tp339
a(S'w'
I721
tp340
a(S'p1_vo'
I12
tp341
a(S'w'
I750
tp342
a(S'p2_tl'
I253
tp343
a(S'p2_ll'
I1
tp344
a(S'p2_th'
I0
tp345
a(S'w'
I5
tp346
a(S'p2_vo'
I15
tp347
a(S'w'
I712
tp348
a(S'p1_vo'
I11
tp349
a(S'w'
I7
tp350
a(S'p2_vo'
I14
tp351
a(S'w'
I1461
tp352
a(S'p1_vo'
I10
tp353
a(S'w'
I7
tp354
a(S'p2_vo'
I13
tp355
a(S'w'
I1472
tp356
a(S'p1_tl'
I116
tp357
a(S'p1_ll'
I1
tp358
a(S'p1_th'
I4
tp359
a(S'w'
I5
tp360
a(S'p1_vo'
I15
tp361
a(S'w'
I6
tp362
a(S'p2_vo'
I12
tp363
a(S'w'
I712
tp364
a(S'p1_vo'
I14
tp365
a(S'w'
I746
tp366
a(S'p2_vo'
I11
tp367
a(S'w'
I721
tp368
a(S'p1_vo'
I13
tp369
a(S'w'
I747
tp370
a(S'p2_vo'
I10
tp371
a(S'w'
I734
tp372
a(S'p1_vo'
I12
tp373
a(S'w'
I3
tp374
a(S'p2_tl'
I249
tp375
a(S'p2_ll'
I1
tp376
a(S'p2_th'
I2
tp377
a(S'w'
I5
tp378
a(S'p2_vo'
I15
tp379
a(S'w'
I719
tp380
a(S'p2_vo'
I14
tp381
a(S'w'
I734
tp382
a(S'p1_vo'
I11
tp383
a(S'w'
I734
tp384
a(S'p2_vo'
I13
tp385
a(S'w'
I733
tp386
a(S'p1_vo'
I10
tp387
a(S'w'
I737
tp388
a(S'p1_tl'
I58
tp389
a(S'p1_ll'
I1
tp390
a(S'p1_th'
I2
tp391
a(S'w'
I5
tp392
a(S'p1_vo'
I15
tp393
a(S'w'
I7
tp394
a(S'p2_vo'
I12
tp395
a(S'w'
I713
tp396
a(S'p1_vo'
I14
tp397
a(S'w'
I746
tp398
a(S'p2_vo'
I11
tp399
a(S'w'
I721
tp400
a(S'p1_vo'
I13
tp401
a(S'w'
I747
tp402
a(S'p2_vo'
I10
tp403
a(S'w'
I734
tp404
a(S'p1_vo'
I12
tp405
a(S'w'
I3
tp406
a(S'p2_tl'
I171
tp407
a(S'p2_ll'
I1
tp408
a(S'p2_th'
I1
tp409
a(S'w'
I5
tp410
a(S'p2_vo'
I15
tp411
a(S'w'
I719
tp412
a(S'p2_vo'
I14
tp413
a(S'w'
I734
tp414
a(S'p1_vo'
I11
tp415
a(S'w'
I734
tp416
a(S'p2_vo'
I13
tp417
a(S'w'
I733
tp418
a(S'p1_vo'
I10
tp419
a(S'w'
I739
tp420
a(S'p1_tl'
I82
tp421
a(S'p1_ll'
I1
tp422
a(S'p1_th'
I1
tp423
a(S'w'
I5
tp424
a(S'p1_vo'
I15
tp425
a(S'w'
I6
tp426
a(S'p2_vo'
I12
tp427
a(S'w'
I712
tp428
a(S'p1_vo'
I14
tp429
a(S'w'
I746
tp430
a(S'p2_vo'
I11
tp431
a(S'w'
I727
tp432
a(S'p1_vo'
I13
tp433
a(S'w'
I735
tp434
a(S'p2_vo'
I10
tp435
a(S'w'
I740
tp436
a(S'p1_vo'
I12
tp437
a(S'w'
I3
tp438
a(S'p2_tl'
I253
tp439
a(S'p2_ll'
I1
tp440
a(S'p2_th'
I0
tp441
a(S'w'
I5
tp442
a(S'p2_vo'
I15
tp443
a(S'w'
I725
tp444
a(S'p2_vo'
I14
tp445
a(S'w'
I721
tp446
a(S'p1_vo'
I11
tp447
a(S'w'
I747
tp448
a(S'p2_vo'
I13
tp449
a(S'w'
I730
tp450
a(S'p1_tl'
I213
tp451
a(S'w'
I1
tp452
a(S'p1_ll'
I1
tp453
a(S'p1_th'
I0
tp454
a(S'w'
I5
tp455
a(S'p1_vo'
I15
tp456
a(S'w'
I719
tp457
a(S'p1_vo'
I14
tp458
a(S'w'
I6
tp459
a(S'p2_vo'
I12
tp460
a(S'w'
I1468
tp461
a(S'p1_vo'
I13
tp462
a(S'w'
I6
tp463
a(S'p2_vo'
I11
tp464
a(S'w'
I1468
tp465
a(S'p1_vo'
I12
tp466
a(S'w'
I3
tp467
a(S'p2_tl'
I159
tp468
a(S'w'
I1
tp469
a(S'p2_ll'
I1
tp470
a(S'w'
I5
tp471
a(S'p2_vo'
I15
tp472
a(S'w'
I725
tp473
a(S'p2_vo'
I14
tp474
a(S'w'
I721
tp475
a(S'p1_vo'
I11
tp476
a(S'w'
I746
tp477
a(S'p2_vo'
I13
tp478
a(S'w'
I732
tp479
a(S'p1_tl'
I126
tp480
a(S'p1_ll'
I1
tp481
a(S'w'
I6
tp482
a(S'p1_vo'
I15
tp483
a(S'w'
I717
tp484
a(S'p1_vo'
I14
tp485
a(S'w'
I7
tp486
a(S'p2_vo'
I12
tp487
a(S'w'
I1461
tp488
a(S'p1_vo'
I13
tp489
a(S'w'
I6
tp490
a(S'p2_vo'
I11
tp491
a(S'w'
I1474
tp492
a(S'p1_vo'
I12
tp493
a(S'w'
I3
tp494
a(S'p2_tl'
I106
tp495
a(S'w'
I1
tp496
a(S'p2_ll'
I1
tp497
a(S'w'
I5
tp498
a(S'p2_vo'
I15
tp499
a(S'w'
I718
tp500
a(S'p2_vo'
I14
tp501
a(S'w'
I734
tp502
a(S'p1_vo'
I11
tp503
a(S'w'
I734
tp504
a(S'p2_vo'
I13
tp505
a(S'w'
I734
tp506
a(S'p1_vo'
I10
tp507
a(S'w'
I736
tp508
a(S'p1_tl'
I79
tp509
a(S'w'
I1
tp510
a(S'p1_ll'
I1
tp511
a(S'w'
I5
tp512
a(S'p1_vo'
I15
tp513
a(S'w'
I6
tp514
a(S'p2_vo'
I12
tp515
a(S'w'
I713
tp516
a(S'p1_vo'
I14
tp517
a(S'w'
I747
tp518
a(S'p2_vo'
I11
tp519
a(S'w'
I721
tp520
a(S'p1_vo'
I13
tp521
a(S'w'
I746
tp522
a(S'p2_vo'
I10
tp523
a(S'w'
I734
tp524
a(S'p1_vo'
I12
tp525
a(S'w'
I4
tp526
a(S'p2_tl'
I84
tp527
a(S'p2_ll'
I1
tp528
a(S'w'
I5
tp529
a(S'p2_vo'
I15
tp530
a(S'w'
I718
tp531
a(S'p2_vo'
I14
tp532
a(S'w'
I734
tp533
a(S'p1_vo'
I11
tp534
a(S'w'
I734
tp535
a(S'p2_vo'
I13
tp536
a(S'w'
I734
tp537
a(S'p1_vo'
I10
tp538
a(S'w'
I738
tp539
a(S'p1_tl'
I112
tp540
a(S'p1_ll'
I1
tp541
a(S'w'
I6
tp542
a(S'p1_vo'
I15
tp543
a(S'w'
I6
tp544
a(S'p2_vo'
I12
tp545
a(S'w'
I711
tp546
a(S'p1_vo'
I14
tp547
a(S'w'
I747
tp548
a(S'p2_vo'
I11
tp549
a(S'w'
I721
tp550
a(S'p1_vo'
I13
tp551
a(S'w'
I746
tp552
a(S'p2_vo'
I10
tp553
a(S'w'
I721
tp554
a(S'p1_vo'
I12
tp555
a(S'w'
I750
tp556
a(S'p2_tl'
I142
tp557
a(S'w'
I1
tp558
a(S'p2_ll'
I1
tp559
a(S'w'
I5
tp560
a(S'p2_vo'
I15
tp561
a(S'w'
I712
tp562
a(S'p1_vo'
I11
tp563
a(S'w'
I6
tp564
a(S'p2_vo'
I14
tp565
a(S'w'
I1461
tp566
a(S'p1_vo'
I10
tp567
a(S'w'
I7
tp568
a(S'p2_vo'
I13
tp569
a(S'w'
I1461
tp570
a(S'p1_vo'
I9
tp571
a(S'w'
I6
tp572
a(S'p2_vo'
I12
tp573
a(S'w'
I737
tp574
a(S'p1_tl'
I169
tp575
a(S'p1_ll'
I1
tp576
a(S'w'
I5
tp577
a(S'p1_vo'
I15
tp578
a(S'w'
I720
tp579
a(S'p1_vo'
I14
tp580
a(S'w'
I6
tp581
a(S'p2_vo'
I11
tp582
a(S'w'
I1467
tp583
a(S'p1_vo'
I13
tp584
a(S'w'
I7
tp585
a(S'p2_vo'
I10
tp586
a(S'w'
I1468
tp587
a(S'p1_vo'
I12
tp588
a(S'w'
I3
tp589
a(S'p2_tl'
I225
tp590
a(S'p2_ll'
I1
tp591
a(S'w'
I5
tp592
a(S'p2_vo'
I15
tp593
a(S'w'
I719
tp594
a(S'p2_vo'
I14
tp595
a(S'w'
I734
tp596
a(S'p1_vo'
I11
tp597
a(S'w'
I734
tp598
a(S'p2_vo'
I13
tp599
a(S'w'
I733
tp600
a(S'p1_vo'
I10
tp601
a(S'w'
I734
tp602
a(S'p2_vo'
I12
tp603
a(S'w'
I739
tp604
a(S'p1_tl'
I28
tp605
a(S'p1_ll'
I1
tp606
a(S'p1_th'
I1
tp607
a(S'w'
I5
tp608
a(S'p1_vo'
I15
tp609
a(S'w'
I718
tp610
a(S'p1_vo'
I14
tp611
a(S'w'
I6
tp612
a(S'p2_vo'
I11
tp613
a(S'w'
I1461
tp614
a(S'p1_vo'
I13
tp615
a(S'w'
I7
tp616
a(S'p2_vo'
I10
tp617
a(S'w'
I1461
tp618
a(S'p1_vo'
I12
tp619
a(S'w'
I6
tp620
a(S'p2_vo'
I9
tp621
a(S'w'
I744
tp622
a(S'p2_tl'
I82
tp623
a(S'p2_ll'
I1
tp624
a(S'p2_th'
I1
tp625
a(S'w'
I5
tp626
a(S'p2_vo'
I15
tp627
a(S'w'
I712
tp628
a(S'p1_vo'
I11
tp629
a(S'w'
I7
tp630
a(S'p2_vo'
I14
tp631
a(S'w'
I1461
tp632
a(S'p1_vo'
I10
tp633
a(S'w'
I6
tp634
a(S'p2_vo'
I13
tp635
a(S'w'
I1468
tp636
a(S'p1_vo'
I9
tp637
a(S'w'
I6
tp638
a(S'p2_vo'
I12
tp639
a(S'w'
I1464
tp640
a(S'p1_tl'
I196
tp641
a(S'w'
I1
tp642
a(S'p1_ll'
I1
tp643
a(S'w'
I5
tp644
a(S'p1_vo'
I15
tp645
a(S'w'
I6
tp646
a(S'p2_vo'
I11
tp647
a(S'w'
I713
tp648
a(S'p1_vo'
I14
tp649
a(S'w'
I747
tp650
a(S'p2_vo'
I10
tp651
a(S'w'
I720
tp652
a(S'p1_vo'
I13
tp653
a(S'w'
I747
tp654
a(S'p2_vo'
I9
tp655
a(S'w'
I721
tp656
a(S'p1_vo'
I12
tp657
a(S'w'
I750
tp658
a(S'p2_tl'
I58
tp659
a(S'p2_ll'
I1
tp660
a(S'p2_th'
I2
tp661
a(S'w'
I6
tp662
a(S'p2_vo'
I15
tp663
a(S'w'
I712
tp664
a(S'p1_vo'
I11
tp665
a(S'w'
I6
tp666
a(S'p2_vo'
I14
tp667
a(S'w'
I1461
tp668
a(S'p1_vo'
I10
tp669
a(S'w'
I7
tp670
a(S'p2_vo'
I13
tp671
a(S'w'
I1461
tp672
a(S'p1_vo'
I9
tp673
a(S'w'
I6
tp674
a(S'p2_vo'
I12
tp675
a(S'w'
I1472
tp676
a(S'p1_tl'
I86
tp677
a(S'p1_ll'
I1
tp678
a(S'p1_th'
I3
tp679
a(S'w'
I5
tp680
a(S'p1_vo'
I15
tp681
a(S'w'
I7
tp682
a(S'p2_vo'
I11
tp683
a(S'w'
I711
tp684
a(S'p1_vo'
I14
tp685
a(S'w'
I747
tp686
a(S'p2_vo'
I10
tp687
a(S'w'
I721
tp688
a(S'p1_vo'
I13
tp689
a(S'w'
I746
tp690
a(S'p2_vo'
I9
tp691
a(S'w'
I721
tp692
a(S'p1_vo'
I12
tp693
a(S'w'
I753
tp694
a(S'p2_du'
I0
tp695
a(S'p2_vo'
I0
tp696
a(S'w'
I715
tp697
a(S'p1_vo'
I11
tp698
a(S'w'
I1468
tp699
a(S'p1_vo'
I10
tp700
a(S'w'
I1467
tp701
a(S'p1_vo'
I9
tp702
a(S'w'
I1468
tp703
a(S'p1_vo'
I8
tp704
a(S'w'
I1474
tp705
a(S'p1_vo'
I7
tp706
a(S'w'
I1467
tp707
a(S'p1_vo'
I6
tp708
a(S'w'
I1468
tp709
a(S'p1_vo'
I5
tp710
a(S'w'
I7334
tp711
a(S'p1_vo'
I3
tp712
a(S'w'
I11747
tp713
a(S'p1_vo'
I2
tp714
a(S'w'
I11735
tp715
a(S'p1_vo'
I1
tp716
a(S'w'
I11747
tp717
a(S'p1_vo'
I0
tp718
a(S'w'
I37426
tp719
a(S'p1_du'
I0
tp720
a(S'w'
I1
tp721
a.