(lp1
(S'clock'
p2
I1789772
tp3
a(S'p1_du'
I2
tp4
a(S'p1_lh'
I1
tp5
a(S'p1_cv'
I1
tp6
a(S'p1_vo'
I11
tp7
a(S'p1_se'
I1
tp8
a(S'p1_sn'
I1
tp9
a(S'p1_tl'
I89
tp10
a(S'p1_ll'
I1
tp11
a(S'p1_th'
I3
tp12
a(S'p2_du'
I2
tp13
a(S'p2_lh'
I1
tp14
a(S'p2_cv'
I1
tp15
a(S'p2_vo'
I6
tp16
a(S'p2_se'
I1
tp17
a(S'p2_sn'
I1
tp18
a(S'p2_tl'
I124
tp19
a(S'p2_ll'
I1
tp20
a(S'p2_th'
I1
tp21
a(S'tr_lh'
I1
tp22
a(S'tr_tl'
I179
tp23
a(S'tr_ll'
I1
tp24
a(S'no_lh'
I1
tp25
a(S'no_cv'
I1
tp26
a(S'no_np'
I2
tp27
a(S'no_ll'
I1
tp28
a(S'ch_no'
I1
tp29
a(S'ch_tr'
I1
tp30
a(S'ch_p2'
I1
tp31
a(S'ch_p1'
I1
tp32
a(S'fc_mo'
I1
tp33
a(S'p1_tl'
I94
tp34
a(S'p1_ll'
I1
tp35
a(S'p1_th'
I0
tp36
a(S'w'
I7
tp37
a(S'p1_vo'
I10
tp38
a(S'w'
I5
tp39
a(S'p2_tl'
I150
tp40
a(S'w'
I1
tp41
a(S'p2_ll'
I1
tp42
a(S'p2_th'
I0
tp43
a(S'w'
I6
tp44
a(S'p2_vo'
I10
tp45
a(S'w'
I670
tp46
a(S'p1_vo'
I15
tp47
a(S'w'
I10
tp48
a(S'p2_vo'
I15
tp49
a(S'w'
I724
tp50
a(S'p1_vo'
I13
tp51
a(S'w'
I11
tp52
a(S'p2_vo'
I13
tp53
a(S'w'
I722
tp54
a(S'p1_vo'
I12
tp55
a(S'w'
I10
tp56
a(S'p2_vo'
I12
tp57
a(S'w'
I1475
tp58
a(S'p1_vo'
I11
tp59
a(S'w'
I10
tp60
a(S'p2_vo'
I11
tp61
a(S'w'
I1458
tp62
a(S'p1_vo'
I10
tp63
a(S'w'
I9
tp64
a(S'p2_vo'
I10
tp65
a(S'w'
I2192
tp66
a(S'p1_vo'
I9
tp67
a(S'w'
I10
tp68
a(S'p2_vo'
I9
tp69
a(S'w'
I2191
tp70
a(S'p1_vo'
I8
tp71
a(S'w'
I10
tp72
a(S'p2_vo'
I8
tp73
a(S'w'
I1468
tp74
a(S'p1_tl'
I100
tp75
a(S'p1_ll'
I1
tp76
a(S'w'
I7
tp77
a(S'p1_vo'
I10
tp78
a(S'w'
I5
tp79
a(S'p2_tl'
I159
tp80
a(S'p2_ll'
I1
tp81
a(S'w'
I7
tp82
a(S'p2_vo'
I10
tp83
a(S'w'
I705
tp84
a(S'p1_vo'
I15
tp85
a(S'w'
I10
tp86
a(S'p2_vo'
I15
tp87
a(S'w'
I724
tp88
a(S'p1_vo'
I13
tp89
a(S'w'
I11
tp90
a(S'p2_vo'
I13
tp91
a(S'w'
I722
tp92
a(S'p1_vo'
I12
tp93
a(S'w'
I10
tp94
a(S'p2_vo'
I12
tp95
a(S'w'
I1458
tp96
a(S'p1_vo'
I11
tp97
a(S'w'
I10
tp98
a(S'p2_vo'
I11
tp99
a(S'w'
I1458
tp100
a(S'p1_vo'
I10
tp101
a(S'w'
I9
tp102
a(S'p2_vo'
I10
tp103
a(S'w'
I2192
tp104
a(S'p1_vo'
I9
tp105
a(S'w'
I10
tp106
a(S'p2_vo'
I9
tp107
a(S'w'
I2191
tp108
a(S'p1_vo'
I8
tp109
a(S'w'
I10
tp110
a(S'p2_vo'
I8
tp111
a(S'w'
I1468
tp112
a(S'p1_tl'
I106
tp113
a(S'p1_ll'
I1
tp114
a(S'w'
I7
tp115
a(S'p1_vo'
I10
tp116
a(S'w'
I5
tp117
a(S'p2_tl'
I169
tp118
a(S'p2_ll'
I1
tp119
a(S'w'
I7
tp120
a(S'p2_vo'
I10
tp121
a(S'w'
I705
tp122
a(S'p1_vo'
I15
tp123
a(S'w'
I10
tp124
a(S'p2_vo'
I15
tp125
a(S'w'
I724
tp126
a(S'p1_vo'
I13
tp127
a(S'w'
I11
tp128
a(S'p2_vo'
I13
tp129
a(S'w'
I722
tp130
a(S'p1_vo'
I12
tp131
a(S'w'
I10
tp132
a(S'p2_vo'
I12
tp133
a(S'w'
I1458
tp134
a(S'p1_vo'
I11
tp135
a(S'w'
I10
tp136
a(S'p2_vo'
I11
tp137
a(S'w'
I1458
tp138
a(S'p1_vo'
I10
tp139
a(S'w'
I9
tp140
a(S'p2_vo'
I10
tp141
a(S'w'
I2192
tp142
a(S'p1_vo'
I9
tp143
a(S'w'
I10
tp144
a(S'p2_vo'
I9
tp145
a(S'w'
I2192
tp146
a(S'p1_vo'
I8
tp147
a(S'w'
I9
tp148
a(S'p2_vo'
I8
tp149
a(S'w'
I1468
tp150
a(S'p1_tl'
I112
tp151
a(S'p1_ll'
I1
tp152
a(S'w'
I7
tp153
a(S'p1_vo'
I10
tp154
a(S'w'
I5
tp155
a(S'p2_tl'
I189
tp156
a(S'p2_ll'
I1
tp157
a(S'w'
I7
tp158
a(S'p2_vo'
I10
tp159
a(S'w'
I705
tp160
a(S'p1_vo'
I15
tp161
a(S'w'
I10
tp162
a(S'p2_vo'
I15
tp163
a(S'w'
I724
tp164
a(S'p1_vo'
I13
tp165
a(S'w'
I11
tp166
a(S'p2_vo'
I13
tp167
a(S'w'
I722
tp168
a(S'p1_vo'
I12
tp169
a(S'w'
I10
tp170
a(S'p2_vo'
I12
tp171
a(S'w'
I1458
tp172
a(S'p1_vo'
I11
tp173
a(S'w'
I10
tp174
a(S'p2_vo'
I11
tp175
a(S'w'
I1458
tp176
a(S'p1_vo'
I10
tp177
a(S'w'
I9
tp178
a(S'p2_vo'
I10
tp179
a(S'w'
I2192
tp180
a(S'p1_vo'
I9
tp181
a(S'w'
I10
tp182
a(S'p2_vo'
I9
tp183
a(S'w'
I2192
tp184
a(S'p1_vo'
I8
tp185
a(S'w'
I9
tp186
a(S'p2_vo'
I8
tp187
a(S'w'
I1470
tp188
a(S'p1_tl'
I126
tp189
a(S'p1_ll'
I1
tp190
a(S'w'
I7
tp191
a(S'p1_vo'
I10
tp192
a(S'w'
I5
tp193
a(S'p2_tl'
I213
tp194
a(S'p2_ll'
I1
tp195
a(S'w'
I7
tp196
a(S'p2_vo'
I10
tp197
a(S'w'
I704
tp198
a(S'p1_vo'
I15
tp199
a(S'w'
I10
tp200
a(S'p2_vo'
I15
tp201
a(S'w'
I724
tp202
a(S'p1_vo'
I13
tp203
a(S'w'
I11
tp204
a(S'p2_vo'
I13
tp205
a(S'w'
I722
tp206
a(S'p1_vo'
I12
tp207
a(S'w'
I10
tp208
a(S'p2_vo'
I12
tp209
a(S'w'
I1457
tp210
a(S'p1_vo'
I2
tp211
a(S'w'
I9
tp212
a(S'p2_vo'
I2
tp213
a(S'w'
I7339
tp214
a(S'p1_tl'
I189
tp215
a(S'p1_ll'
I1
tp216
a(S'w'
I7
tp217
a(S'p1_vo'
I10
tp218
a(S'w'
I6
tp219
a(S'p2_tl'
I45
tp220
a(S'p2_ll'
I1
tp221
a(S'p2_th'
I1
tp222
a(S'w'
I7
tp223
a(S'p2_vo'
I10
tp224
a(S'w'
I705
tp225
a(S'p1_vo'
I15
tp226
a(S'w'
I10
tp227
a(S'p2_vo'
I15
tp228
a(S'w'
I724
tp229
a(S'p1_vo'
I13
tp230
a(S'w'
I11
tp231
a(S'p2_vo'
I13
tp232
a(S'w'
I722
tp233
a(S'p1_vo'
I12
tp234
a(S'w'
I10
tp235
a(S'p2_vo'
I12
tp236
a(S'w'
I1457
tp237
a(S'p1_vo'
I2
tp238
a(S'w'
I9
tp239
a(S'p2_vo'
I2
tp240
a(S'w'
I7343
tp241
a(S'p1_tl'
I94
tp242
a(S'p1_ll'
I1
tp243
a(S'w'
I7
tp244
a(S'p1_vo'
I10
tp245
a(S'w'
I6
tp246
a(S'p2_tl'
I150
tp247
a(S'p2_ll'
I1
tp248
a(S'p2_th'
I0
tp249
a(S'w'
I7
tp250
a(S'p2_vo'
I10
tp251
a(S'w'
I701
tp252
a(S'p1_vo'
I15
tp253
a(S'w'
I10
tp254
a(S'p2_vo'
I15
tp255
a(S'w'
I724
tp256
a(S'p1_vo'
I13
tp257
a(S'w'
I11
tp258
a(S'p2_vo'
I13
tp259
a(S'w'
I723
tp260
a(S'p1_vo'
I12
tp261
a(S'w'
I10
tp262
a(S'p2_vo'
I12
tp263
a(S'w'
I1457
tp264
a(S'p1_vo'
I11
tp265
a(S'w'
I10
tp266
a(S'p2_vo'
I11
tp267
a(S'w'
I1458
tp268
a(S'p1_vo'
I10
tp269
a(S'w'
I10
tp270
a(S'p2_vo'
I10
tp271
a(S'w'
I2191
tp272
a(S'p1_vo'
I9
tp273
a(S'w'
I10
tp274
a(S'p2_vo'
I9
tp275
a(S'w'
I2192
tp276
a(S'p1_vo'
I8
tp277
a(S'w'
I10
tp278
a(S'p2_vo'
I8
tp279
a(S'w'
I2925
tp280
a(S'p1_vo'
I9
tp281
a(S'w'
I10
tp282
a(S'p2_vo'
I9
tp283
a(S'w'
I724
tp284
a(S'p1_vo'
I10
tp285
a(S'w'
I10
tp286
a(S'p2_vo'
I10
tp287
a(S'w'
I717
tp288
a(S'p1_vo'
I11
tp289
a(S'w'
I10
tp290
a(S'p2_vo'
I11
tp291
a(S'w'
I730
tp292
a(S'p1_vo'
I12
tp293
a(S'w'
I10
tp294
a(S'p2_vo'
I12
tp295
a(S'w'
I1458
tp296
a(S'p1_vo'
I11
tp297
a(S'w'
I10
tp298
a(S'p2_vo'
I11
tp299
a(S'w'
I724
tp300
a(S'p1_vo'
I10
tp301
a(S'w'
I10
tp302
a(S'p2_vo'
I10
tp303
a(S'w'
I717
tp304
a(S'p1_vo'
I9
tp305
a(S'w'
I10
tp306
a(S'p2_vo'
I9
tp307
a(S'w'
I2932
tp308
a(S'p1_vo'
I8
tp309
a(S'w'
I10
tp310
a(S'p2_vo'
I8
tp311
a(S'w'
I1456
tp312
a(S'p1_vo'
I2
tp313
a(S'w'
I9
tp314
a(S'p2_vo'
I2
tp315
a(S'w'
I10997
tp316
a(S'p1_vo'
I0
tp317
a(S'w'
I11
tp318
a(S'p2_vo'
I0
tp319
a(S'w'
I1
tp320
a.