(lp1
(S'clock'
p2
I1789772
tp3
a(S'p1_du'
I2
tp4
a(S'p1_lh'
I1
tp5
a(S'p1_cv'
I1
tp6
a(S'p1_se'
I1
tp7
a(S'p1_sn'
I1
tp8
a(S'p1_tl'
I70
tp9
a(S'p1_ll'
I1
tp10
a(S'p2_du'
I2
tp11
a(S'p2_lh'
I1
tp12
a(S'p2_cv'
I1
tp13
a(S'p2_se'
I1
tp14
a(S'p2_sn'
I1
tp15
a(S'p2_tl'
I94
tp16
a(S'p2_ll'
I1
tp17
a(S'tr_lh'
I1
tp18
a(S'tr_tl'
I79
tp19
a(S'tr_ll'
I1
tp20
a(S'no_lh'
I1
tp21
a(S'no_cv'
I1
tp22
a(S'ch_no'
I1
tp23
a(S'ch_tr'
I1
tp24
a(S'ch_p2'
I1
tp25
a(S'ch_p1'
I1
tp26
a(S'fc_mo'
I1
tp27
a(S'p1_tl'
I213
tp28
a(S'p1_ll'
I1
tp29
a(S'w'
I8
tp30
a(S'p1_vo'
I15
tp31
a(S'w'
I5
tp32
a(S'p2_tl'
I253
tp33
a(S'p2_ll'
I1
tp34
a(S'w'
I8
tp35
a(S'p2_vo'
I15
tp36
a(S'w'
I2134
tp37
a(S'p1_vo'
I2
tp38
a(S'w'
I8
tp39
a(S'p2_vo'
I2
tp40
a(S'w'
I3671
tp41
a(S'p1_tl'
I225
tp42
a(S'p1_ll'
I1
tp43
a(S'w'
I7
tp44
a(S'p1_vo'
I15
tp45
a(S'w'
I6
tp46
a(S'p2_tl'
I12
tp47
a(S'p2_ll'
I1
tp48
a(S'p2_th'
I1
tp49
a(S'w'
I7
tp50
a(S'p2_vo'
I15
tp51
a(S'w'
I2171
tp52
a(S'p1_vo'
I2
tp53
a(S'w'
I9
tp54
a(S'p2_vo'
I2
tp55
a(S'w'
I3670
tp56
a(S'p1_tl'
I189
tp57
a(S'p1_ll'
I1
tp58
a(S'w'
I8
tp59
a(S'p1_vo'
I15
tp60
a(S'w'
I5
tp61
a(S'p2_tl'
I239
tp62
a(S'p2_ll'
I1
tp63
a(S'p2_th'
I0
tp64
a(S'w'
I8
tp65
a(S'p2_vo'
I15
tp66
a(S'w'
I2171
tp67
a(S'p1_vo'
I2
tp68
a(S'w'
I8
tp69
a(S'p2_vo'
I2
tp70
a(S'w'
I3670
tp71
a(S'p1_tl'
I213
tp72
a(S'w'
I1
tp73
a(S'p1_ll'
I1
tp74
a(S'w'
I7
tp75
a(S'p1_vo'
I15
tp76
a(S'w'
I5
tp77
a(S'p2_tl'
I253
tp78
a(S'w'
I1
tp79
a(S'p2_ll'
I1
tp80
a(S'w'
I7
tp81
a(S'p2_vo'
I15
tp82
a(S'w'
I2171
tp83
a(S'p1_vo'
I2
tp84
a(S'w'
I9
tp85
a(S'p2_vo'
I2
tp86
a(S'w'
I3670
tp87
a(S'p1_tl'
I225
tp88
a(S'p1_ll'
I1
tp89
a(S'w'
I8
tp90
a(S'p1_vo'
I15
tp91
a(S'w'
I5
tp92
a(S'p2_tl'
I12
tp93
a(S'p2_ll'
I1
tp94
a(S'p2_th'
I1
tp95
a(S'w'
I8
tp96
a(S'p2_vo'
I15
tp97
a(S'w'
I2170
tp98
a(S'p1_vo'
I2
tp99
a(S'w'
I9
tp100
a(S'p2_vo'
I2
tp101
a(S'w'
I3670
tp102
a(S'p1_tl'
I189
tp103
a(S'p1_ll'
I1
tp104
a(S'w'
I8
tp105
a(S'p1_vo'
I15
tp106
a(S'w'
I5
tp107
a(S'p2_tl'
I239
tp108
a(S'p2_ll'
I1
tp109
a(S'p2_th'
I0
tp110
a(S'w'
I8
tp111
a(S'p2_vo'
I15
tp112
a(S'w'
I2171
tp113
a(S'p1_vo'
I2
tp114
a(S'w'
I8
tp115
a(S'p2_vo'
I2
tp116
a(S'w'
I3675
tp117
a(S'p1_tl'
I213
tp118
a(S'p1_ll'
I1
tp119
a(S'w'
I7
tp120
a(S'p1_vo'
I15
tp121
a(S'w'
I6
tp122
a(S'p2_tl'
I253
tp123
a(S'p2_ll'
I1
tp124
a(S'w'
I7
tp125
a(S'p2_vo'
I15
tp126
a(S'w'
I2901
tp127
a(S'p1_vo'
I14
tp128
a(S'w'
I10
tp129
a(S'p2_vo'
I14
tp130
a(S'w'
I2191
tp131
a(S'p1_vo'
I13
tp132
a(S'w'
I10
tp133
a(S'p2_vo'
I13
tp134
a(S'w'
I1458
tp135
a(S'p1_vo'
I12
tp136
a(S'w'
I10
tp137
a(S'p2_vo'
I12
tp138
a(S'w'
I724
tp139
a(S'p1_vo'
I11
tp140
a(S'w'
I9
tp141
a(S'p2_vo'
I11
tp142
a(S'w'
I724
tp143
a(S'p1_vo'
I10
tp144
a(S'w'
I10
tp145
a(S'p2_vo'
I10
tp146
a(S'w'
I1458
tp147
a(S'p1_vo'
I9
tp148
a(S'w'
I10
tp149
a(S'p2_vo'
I9
tp150
a(S'w'
I2191
tp151
a(S'p1_vo'
I8
tp152
a(S'w'
I10
tp153
a(S'p2_vo'
I8
tp154
a(S'w'
I3659
tp155
a(S'p1_vo'
I7
tp156
a(S'w'
I10
tp157
a(S'p2_vo'
I7
tp158
a(S'w'
I2206
tp159
a(S'p1_tl'
I126
tp160
a(S'p1_ll'
I1
tp161
a(S'w'
I7
tp162
a(S'p1_vo'
I15
tp163
a(S'w'
I6
tp164
a(S'p2_tl'
I159
tp165
a(S'p2_ll'
I1
tp166
a(S'w'
I7
tp167
a(S'p2_vo'
I15
tp168
a(S'w'
I2167
tp169
a(S'p1_vo'
I2
tp170
a(S'w'
I9
tp171
a(S'p2_vo'
I2
tp172
a(S'w'
I3670
tp173
a(S'p1_tl'
I119
tp174
a(S'p1_ll'
I1
tp175
a(S'w'
I8
tp176
a(S'p1_vo'
I15
tp177
a(S'w'
I5
tp178
a(S'p2_tl'
I142
tp179
a(S'w'
I1
tp180
a(S'p2_ll'
I1
tp181
a(S'w'
I7
tp182
a(S'p2_vo'
I15
tp183
a(S'w'
I2171
tp184
a(S'p1_vo'
I2
tp185
a(S'w'
I8
tp186
a(S'p2_vo'
I2
tp187
a(S'w'
I3671
tp188
a(S'p1_tl'
I112
tp189
a(S'p1_ll'
I1
tp190
a(S'w'
I7
tp191
a(S'p1_vo'
I15
tp192
a(S'w'
I6
tp193
a(S'p2_tl'
I134
tp194
a(S'p2_ll'
I1
tp195
a(S'w'
I7
tp196
a(S'p2_vo'
I15
tp197
a(S'w'
I2171
tp198
a(S'p1_vo'
I2
tp199
a(S'w'
I9
tp200
a(S'p2_vo'
I2
tp201
a(S'w'
I3681
tp202
a(S'p1_tl'
I106
tp203
a(S'w'
I1
tp204
a(S'p1_ll'
I1
tp205
a(S'w'
I6
tp206
a(S'p1_du'
I1
tp207
a(S'p1_vo'
I15
tp208
a(S'w'
I5
tp209
a(S'p2_tl'
I126
tp210
a(S'w'
I1
tp211
a(S'p2_ll'
I1
tp212
a(S'w'
I6
tp213
a(S'p2_du'
I1
tp214
a(S'p2_vo'
I15
tp215
a(S'w'
I694
tp216
a(S'p1_vo'
I12
tp217
a(S'w'
I10
tp218
a(S'p2_vo'
I12
tp219
a(S'w'
I724
tp220
a(S'p1_vo'
I9
tp221
a(S'w'
I9
tp222
a(S'p2_vo'
I9
tp223
a(S'w'
I724
tp224
a(S'p1_vo'
I7
tp225
a(S'w'
I10
tp226
a(S'p2_vo'
I7
tp227
a(S'w'
I724
tp228
a(S'p1_vo'
I5
tp229
a(S'w'
I10
tp230
a(S'p2_vo'
I5
tp231
a(S'w'
I724
tp232
a(S'p1_vo'
I4
tp233
a(S'w'
I10
tp234
a(S'p2_vo'
I4
tp235
a(S'w'
I724
tp236
a(S'p1_vo'
I3
tp237
a(S'w'
I10
tp238
a(S'p2_vo'
I3
tp239
a(S'w'
I724
tp240
a(S'p1_vo'
I2
tp241
a(S'w'
I9
tp242
a(S'p2_vo'
I2
tp243
a(S'w'
I724
tp244
a(S'p1_vo'
I1
tp245
a(S'w'
I10
tp246
a(S'p2_vo'
I1
tp247
a(S'w'
I724
tp248
a(S'p1_vo'
I8
tp249
a(S'w'
I10
tp250
a(S'p2_vo'
I8
tp251
a(S'w'
I724
tp252
a(S'p1_vo'
I6
tp253
a(S'w'
I10
tp254
a(S'p2_vo'
I6
tp255
a(S'w'
I724
tp256
a(S'p1_vo'
I5
tp257
a(S'w'
I10
tp258
a(S'p2_vo'
I5
tp259
a(S'w'
I724
tp260
a(S'p1_vo'
I4
tp261
a(S'w'
I9
tp262
a(S'p2_vo'
I4
tp263
a(S'w'
I725
tp264
a(S'p1_vo'
I3
tp265
a(S'w'
I9
tp266
a(S'p2_vo'
I3
tp267
a(S'w'
I724
tp268
a(S'p1_vo'
I2
tp269
a(S'w'
I10
tp270
a(S'p2_vo'
I2
tp271
a(S'w'
I1458
tp272
a(S'p1_vo'
I1
tp273
a(S'w'
I10
tp274
a(S'p2_vo'
I1
tp275
a(S'w'
I1458
tp276
a(S'p1_vo'
I5
tp277
a(S'w'
I9
tp278
a(S'p2_vo'
I5
tp279
a(S'w'
I724
tp280
a(S'p1_vo'
I4
tp281
a(S'w'
I10
tp282
a(S'p2_vo'
I4
tp283
a(S'w'
I724
tp284
a(S'p1_vo'
I3
tp285
a(S'w'
I10
tp286
a(S'p2_vo'
I3
tp287
a(S'w'
I1458
tp288
a(S'p1_vo'
I2
tp289
a(S'w'
I10
tp290
a(S'p2_vo'
I2
tp291
a(S'w'
I1457
tp292
a(S'p1_vo'
I1
tp293
a(S'w'
I10
tp294
a(S'p2_vo'
I1
tp295
a(S'w'
I2192
tp296
a(S'p1_vo'
I3
tp297
a(S'w'
I10
tp298
a(S'p2_vo'
I3
tp299
a(S'w'
I724
tp300
a(S'p1_vo'
I2
tp301
a(S'w'
I9
tp302
a(S'p2_vo'
I2
tp303
a(S'w'
I2192
tp304
a(S'p1_vo'
I1
tp305
a(S'w'
I10
tp306
a(S'p2_vo'
I1
tp307
a(S'w'
I2926
tp308
a(S'p1_vo'
I3
tp309
a(S'w'
I10
tp310
a(S'p2_vo'
I3
tp311
a(S'w'
I723
tp312
a(S'p1_vo'
I2
tp313
a(S'w'
I10
tp314
a(S'p2_vo'
I2
tp315
a(S'w'
I2191
tp316
a(S'p1_vo'
I1
tp317
a(S'w'
I10
tp318
a(S'p2_vo'
I1
tp319
a(S'w'
I2926
tp320
a(S'p1_vo'
I3
tp321
a(S'w'
I11
tp322
a(S'p2_vo'
I3
tp323
a(S'w'
I722
tp324
a(S'p1_vo'
I2
tp325
a(S'w'
I10
tp326
a(S'p2_vo'
I2
tp327
a(S'w'
I2192
tp328
a(S'p1_vo'
I1
tp329
a(S'w'
I10
tp330
a(S'p2_vo'
I1
tp331
a(S'w'
I719
tp332
a(S'p1_du'
I2
tp333
a(S'p1_vo'
I0
tp334
a(S'w'
I13
tp335
a(S'p2_du'
I2
tp336
a(S'p2_vo'
I0
tp337
a(S'w'
I1
tp338
a.