(lp1
(S'clock'
p2
I1789772
tp3
a(S'p1_du'
I2
tp4
a(S'p1_lh'
I1
tp5
a(S'p1_cv'
I1
tp6
a(S'p1_se'
I1
tp7
a(S'p1_sn'
I1
tp8
a(S'p1_tl'
I142
tp9
a(S'p1_ll'
I1
tp10
a(S'p2_du'
I2
tp11
a(S'p2_lh'
I1
tp12
a(S'p2_cv'
I1
tp13
a(S'p2_se'
I1
tp14
a(S'p2_sn'
I1
tp15
a(S'p2_tl'
I239
tp16
a(S'p2_ll'
I1
tp17
a(S'tr_lh'
I1
tp18
a(S'tr_tl'
I82
tp19
a(S'tr_ll'
I1
tp20
a(S'tr_th'
I1
tp21
a(S'no_lh'
I1
tp22
a(S'no_cv'
I1
tp23
a(S'ch_no'
I1
tp24
a(S'ch_tr'
I1
tp25
a(S'ch_p2'
I1
tp26
a(S'ch_p1'
I1
tp27
a(S'fc_mo'
I1
tp28
a(S'p1_tl'
I169
tp29
a(S'p1_ll'
I1
tp30
a(S'w'
I10
tp31
a(S'p1_vo'
I10
tp32
a(S'w'
I5
tp33
a(S'p2_tl'
I213
tp34
a(S'p2_ll'
I1
tp35
a(S'w'
I10
tp36
a(S'p2_vo'
I12
tp37
a(S'w'
I5
tp38
a(S'tr_tl'
I171
tp39
a(S'tr_ll'
I1
tp40
a(S'w'
I2
tp41
a(S'tr_lr'
I63
tp42
a(S'w'
I2825
tp43
a(S'p1_vo'
I9
tp44
a(S'w'
I12
tp45
a(S'p2_vo'
I11
tp46
a(S'w'
I2196
tp47
a(S'p1_vo'
I8
tp48
a(S'w'
I12
tp49
a(S'p2_vo'
I10
tp50
a(S'w'
I2210
tp51
a(S'p2_vo'
I9
tp52
a(S'w'
I5
tp53
a(S'tr_tl'
I124
tp54
a(S'tr_ll'
I1
tp55
a(S'w'
I2169
tp56
a(S'p1_vo'
I7
tp57
a(S'w'
I2208
tp58
a(S'p1_vo'
I6
tp59
a(S'w'
I12
tp60
a(S'p2_vo'
I8
tp61
a(S'w'
I3676
tp62
a(S'tr_tl'
I82
tp63
a(S'w'
I1
tp64
a(S'tr_ll'
I1
tp65
a(S'w'
I708
tp66
a(S'p1_vo'
I4
tp67
a(S'w'
I12
tp68
a(S'p2_vo'
I5
tp69
a(S'w'
I2923
tp70
a(S'p1_vo'
I3
tp71
a(S'w'
I13
tp72
a(S'p2_vo'
I4
tp73
a(S'w'
I2941
tp74
a(S'p2_vo'
I3
tp75
a(S'w'
I1474
tp76
a(S'tr_tl'
I63
tp77
a(S'tr_ll'
I1
tp78
a(S'w'
I1449
tp79
a(S'p1_vo'
I2
tp80
a(S'w'
I2929
tp81
a(S'p1_vo'
I1
tp82
a(S'w'
I12
tp83
a(S'p2_vo'
I2
tp84
a(S'w'
I2935
tp85
a(S'p2_vo'
I1
tp86
a(S'w'
I747
tp87
a(S'p1_tl'
I169
tp88
a(S'p1_ll'
I1
tp89
a(S'w'
I10
tp90
a(S'p1_vo'
I10
tp91
a(S'w'
I5
tp92
a(S'p2_tl'
I239
tp93
a(S'p2_ll'
I1
tp94
a(S'w'
I10
tp95
a(S'p2_vo'
I12
tp96
a(S'w'
I5
tp97
a(S'tr_tl'
I28
tp98
a(S'tr_ll'
I1
tp99
a(S'w'
I2879
tp100
a(S'p1_vo'
I9
tp101
a(S'w'
I12
tp102
a(S'p2_vo'
I11
tp103
a(S'w'
I2197
tp104
a(S'p1_vo'
I8
tp105
a(S'w'
I12
tp106
a(S'p2_vo'
I10
tp107
a(S'w'
I5
tp108
a(S'tr_lr'
I0
tp109
a(S'w'
I2189
tp110
a(S'p2_vo'
I9
tp111
a(S'w'
I2196
tp112
a(S'p1_vo'
I7
tp113
a(S'w'
I2202
tp114
a(S'p1_vo'
I6
tp115
a(S'w'
I12
tp116
a(S'p2_vo'
I8
tp117
a(S'w'
I4399
tp118
a(S'p1_vo'
I4
tp119
a(S'w'
I13
tp120
a(S'p2_vo'
I5
tp121
a(S'w'
I5
tp122
a(S'tr_tl'
I171
tp123
a(S'tr_ll'
I1
tp124
a(S'w'
I3
tp125
a(S'tr_lr'
I63
tp126
a(S'w'
I2899
tp127
a(S'p1_vo'
I3
tp128
a(S'w'
I13
tp129
a(S'p2_vo'
I4
tp130
a(S'w'
I2207
tp131
a(S'tr_lr'
I0
tp132
a(S'w'
I728
tp133
a(S'p2_vo'
I3
tp134
a(S'w'
I2929
tp135
a(S'p1_vo'
I2
tp136
a(S'w'
I2936
tp137
a(S'p1_vo'
I1
tp138
a(S'w'
I12
tp139
a(S'p2_vo'
I2
tp140
a(S'w'
I2929
tp141
a(S'p2_vo'
I1
tp142
a(S'w'
I745
tp143
a(S'p1_tl'
I159
tp144
a(S'p1_ll'
I1
tp145
a(S'w'
I10
tp146
a(S'p1_vo'
I10
tp147
a(S'w'
I5
tp148
a(S'p2_tl'
I253
tp149
a(S'p2_ll'
I1
tp150
a(S'w'
I10
tp151
a(S'p2_vo'
I12
tp152
a(S'w'
I5
tp153
a(S'tr_tl'
I213
tp154
a(S'tr_ll'
I1
tp155
a(S'tr_th'
I0
tp156
a(S'w'
I2
tp157
a(S'tr_lr'
I63
tp158
a(S'w'
I2886
tp159
a(S'p1_vo'
I9
tp160
a(S'w'
I12
tp161
a(S'p2_vo'
I11
tp162
a(S'w'
I2189
tp163
a(S'p1_vo'
I8
tp164
a(S'w'
I12
tp165
a(S'p2_vo'
I10
tp166
a(S'w'
I2195
tp167
a(S'p2_vo'
I9
tp168
a(S'w'
I2196
tp169
a(S'p1_vo'
I7
tp170
a(S'w'
I2194
tp171
a(S'p1_vo'
I6
tp172
a(S'w'
I12
tp173
a(S'p2_vo'
I8
tp174
a(S'w'
I4409
tp175
a(S'p1_vo'
I4
tp176
a(S'w'
I12
tp177
a(S'p2_vo'
I5
tp178
a(S'w'
I5
tp179
a(S'tr_tl'
I225
tp180
a(S'tr_ll'
I1
tp181
a(S'w'
I2907
tp182
a(S'p1_vo'
I3
tp183
a(S'w'
I13
tp184
a(S'p2_vo'
I4
tp185
a(S'w'
I2929
tp186
a(S'p2_vo'
I3
tp187
a(S'w'
I2216
tp188
a(S'tr_tl'
I253
tp189
a(S'tr_ll'
I1
tp190
a(S'w'
I706
tp191
a(S'p1_vo'
I2
tp192
a(S'w'
I2942
tp193
a(S'p1_vo'
I1
tp194
a(S'w'
I13
tp195
a(S'p2_vo'
I2
tp196
a(S'w'
I1466
tp197
a(S'tr_lr'
I0
tp198
a(S'w'
I1469
tp199
a(S'p2_vo'
I1
tp200
a(S'w'
I1474
tp201
a(S'p1_tl'
I159
tp202
a(S'p1_ll'
I1
tp203
a(S'w'
I9
tp204
a(S'p1_vo'
I10
tp205
a(S'w'
I6
tp206
a(S'p2_tl'
I253
tp207
a(S'p2_ll'
I1
tp208
a(S'w'
I9
tp209
a(S'p2_vo'
I12
tp210
a(S'w'
I6
tp211
a(S'tr_tl'
I28
tp212
a(S'tr_ll'
I1
tp213
a(S'tr_th'
I1
tp214
a(S'w'
I2
tp215
a(S'tr_lr'
I63
tp216
a(S'w'
I2877
tp217
a(S'p1_vo'
I9
tp218
a(S'w'
I12
tp219
a(S'p2_vo'
I11
tp220
a(S'w'
I2196
tp221
a(S'p1_vo'
I8
tp222
a(S'w'
I12
tp223
a(S'p2_vo'
I10
tp224
a(S'w'
I2212
tp225
a(S'p2_vo'
I9
tp226
a(S'w'
I5
tp227
a(S'tr_tl'
I253
tp228
a(S'tr_ll'
I1
tp229
a(S'tr_th'
I0
tp230
a(S'w'
I2167
tp231
a(S'p1_vo'
I7
tp232
a(S'w'
I2209
tp233
a(S'p1_vo'
I6
tp234
a(S'w'
I12
tp235
a(S'p2_vo'
I8
tp236
a(S'w'
I1472
tp237
a(S'tr_lr'
I0
tp238
a(S'w'
I2205
tp239
a(S'tr_tl'
I63
tp240
a(S'w'
I1
tp241
a(S'tr_ll'
I1
tp242
a(S'tr_th'
I1
tp243
a(S'w'
I2
tp244
a(S'tr_lr'
I63
tp245
a(S'w'
I704
tp246
a(S'p1_vo'
I4
tp247
a(S'w'
I13
tp248
a(S'p2_vo'
I5
tp249
a(S'w'
I2922
tp250
a(S'p1_vo'
I3
tp251
a(S'w'
I13
tp252
a(S'p2_vo'
I4
tp253
a(S'w'
I2941
tp254
a(S'p2_vo'
I3
tp255
a(S'w'
I1476
tp256
a(S'tr_tl'
I28
tp257
a(S'tr_ll'
I1
tp258
a(S'w'
I1447
tp259
a(S'p1_vo'
I2
tp260
a(S'w'
I2935
tp261
a(S'p1_vo'
I1
tp262
a(S'w'
I13
tp263
a(S'p2_vo'
I2
tp264
a(S'w'
I735
tp265
a(S'tr_lr'
I0
tp266
a(S'w'
I2194
tp267
a(S'p2_vo'
I1
tp268
a(S'w'
I746
tp269
a(S'p1_tl'
I169
tp270
a(S'p1_ll'
I1
tp271
a(S'w'
I10
tp272
a(S'p1_vo'
I10
tp273
a(S'w'
I5
tp274
a(S'p2_tl'
I12
tp275
a(S'p2_ll'
I1
tp276
a(S'p2_th'
I1
tp277
a(S'w'
I10
tp278
a(S'p2_vo'
I12
tp279
a(S'w'
I5
tp280
a(S'tr_tl'
I82
tp281
a(S'tr_ll'
I1
tp282
a(S'w'
I3
tp283
a(S'tr_lr'
I63
tp284
a(S'w'
I2883
tp285
a(S'p1_vo'
I9
tp286
a(S'w'
I12
tp287
a(S'p2_vo'
I11
tp288
a(S'w'
I2190
tp289
a(S'p1_vo'
I8
tp290
a(S'w'
I12
tp291
a(S'p2_vo'
I10
tp292
a(S'w'
I2194
tp293
a(S'p2_vo'
I9
tp294
a(S'w'
I751
tp295
a(S'tr_tl'
I45
tp296
a(S'tr_ll'
I1
tp297
a(S'w'
I1446
tp298
a(S'p1_vo'
I7
tp299
a(S'w'
I2201
tp300
a(S'p1_vo'
I6
tp301
a(S'w'
I12
tp302
a(S'p2_vo'
I8
tp303
a(S'w'
I1472
tp304
a(S'tr_lr'
I0
tp305
a(S'w'
I2928
tp306
a(S'p1_vo'
I4
tp307
a(S'w'
I12
tp308
a(S'p2_vo'
I5
tp309
a(S'w'
I5
tp310
a(S'tr_tl'
I12
tp311
a(S'tr_ll'
I1
tp312
a(S'w'
I3
tp313
a(S'tr_lr'
I63
tp314
a(S'w'
I2900
tp315
a(S'p1_vo'
I3
tp316
a(S'w'
I12
tp317
a(S'p2_vo'
I4
tp318
a(S'w'
I2207
tp319
a(S'tr_lr'
I0
tp320
a(S'w'
I728
tp321
a(S'p2_vo'
I3
tp322
a(S'w'
I2215
tp323
a(S'tr_tl'
I253
tp324
a(S'tr_ll'
I1
tp325
a(S'tr_th'
I0
tp326
a(S'w'
I3
tp327
a(S'tr_lr'
I63
tp328
a(S'w'
I712
tp329
a(S'p1_vo'
I2
tp330
a(S'w'
I2935
tp331
a(S'p1_vo'
I1
tp332
a(S'w'
I13
tp333
a(S'p2_vo'
I2
tp334
a(S'w'
I1465
tp335
a(S'tr_lr'
I0
tp336
a(S'w'
I1470
tp337
a(S'p2_vo'
I1
tp338
a(S'w'
I737
tp339
a(S'p1_vo'
I0
tp340
a(S'w'
I6
tp341
a(S'p2_vo'
I0
tp342
a(S'w'
I5
tp343
a(S'tr_tl'
I225
tp344
a(S'tr_ll'
I1
tp345
a(S'w'
I3
tp346
a(S'tr_lr'
I63
tp347
a(S'w'
I5844
tp348
a(S'tr_lr'
I0
tp349
a(S'w'
I2210
tp350
a(S'tr_tl'
I201
tp351
a(S'tr_ll'
I1
tp352
a(S'w'
I2
tp353
a(S'tr_lr'
I63
tp354
a(S'w'
I5131
tp355
a(S'tr_lr'
I0
tp356
a(S'w'
I2938
tp357
a(S'tr_tl'
I179
tp358
a(S'tr_ll'
I1
tp359
a(S'w'
I3
tp360
a(S'tr_lr'
I63
tp361
a(S'w'
I5126
tp362
a(S'tr_lr'
I0
tp363
a(S'w'
I2943
tp364
a(S'tr_tl'
I169
tp365
a(S'tr_ll'
I1
tp366
a(S'w'
I2
tp367
a(S'tr_lr'
I63
tp368
a(S'w'
I5126
tp369
a(S'tr_lr'
I0
tp370
a(S'w'
I2960
tp371
a(S'p1_tl'
I179
tp372
a(S'p1_ll'
I1
tp373
a(S'w'
I10
tp374
a(S'p1_vo'
I10
tp375
a(S'w'
I5
tp376
a(S'p2_tl'
I225
tp377
a(S'p2_ll'
I1
tp378
a(S'p2_th'
I0
tp379
a(S'w'
I10
tp380
a(S'p2_vo'
I12
tp381
a(S'w'
I5
tp382
a(S'tr_tl'
I150
tp383
a(S'tr_ll'
I1
tp384
a(S'w'
I3
tp385
a(S'tr_lr'
I63
tp386
a(S'w'
I2874
tp387
a(S'p1_vo'
I9
tp388
a(S'w'
I12
tp389
a(S'p2_vo'
I11
tp390
a(S'w'
I2183
tp391
a(S'p1_vo'
I8
tp392
a(S'w'
I12
tp393
a(S'p2_vo'
I10
tp394
a(S'w'
I2208
tp395
a(S'p2_vo'
I9
tp396
a(S'w'
I1472
tp397
a(S'tr_lr'
I0
tp398
a(S'w'
I2912
tp399
a(S'p1_vo'
I4
tp400
a(S'w'
I13
tp401
a(S'p2_vo'
I5
tp402
a(S'w'
I2923
tp403
a(S'p1_vo'
I3
tp404
a(S'w'
I12
tp405
a(S'p2_vo'
I4
tp406
a(S'w'
I2935
tp407
a(S'p2_vo'
I3
tp408
a(S'w'
I744
tp409
a(S'p1_tl'
I179
tp410
a(S'p1_ll'
I1
tp411
a(S'w'
I10
tp412
a(S'p1_vo'
I10
tp413
a(S'w'
I5
tp414
a(S'p2_tl'
I225
tp415
a(S'p2_ll'
I1
tp416
a(S'w'
I10
tp417
a(S'p2_vo'
I12
tp418
a(S'w'
I5
tp419
a(S'tr_ll'
I1
tp420
a(S'w'
I2
tp421
a(S'tr_lr'
I63
tp422
a(S'w'
I2880
tp423
a(S'p1_vo'
I9
tp424
a(S'w'
I12
tp425
a(S'p2_vo'
I11
tp426
a(S'w'
I2197
tp427
a(S'p1_vo'
I8
tp428
a(S'w'
I12
tp429
a(S'p2_vo'
I10
tp430
a(S'w'
I2194
tp431
a(S'p2_vo'
I9
tp432
a(S'w'
I2202
tp433
a(S'p1_vo'
I5
tp434
a(S'w'
I12
tp435
a(S'p2_vo'
I6
tp436
a(S'w'
I6
tp437
a(S'tr_lr'
I0
tp438
a(S'w'
I2912
tp439
a(S'p1_vo'
I4
tp440
a(S'w'
I12
tp441
a(S'p2_vo'
I5
tp442
a(S'w'
I2916
tp443
a(S'p1_vo'
I3
tp444
a(S'w'
I13
tp445
a(S'p2_vo'
I4
tp446
a(S'w'
I2935
tp447
a(S'p2_vo'
I3
tp448
a(S'w'
I751
tp449
a(S'p1_tl'
I179
tp450
a(S'p1_ll'
I1
tp451
a(S'w'
I10
tp452
a(S'p1_vo'
I10
tp453
a(S'w'
I5
tp454
a(S'p2_tl'
I225
tp455
a(S'p2_ll'
I1
tp456
a(S'w'
I10
tp457
a(S'p2_vo'
I12
tp458
a(S'w'
I5
tp459
a(S'tr_ll'
I1
tp460
a(S'w'
I3
tp461
a(S'tr_lr'
I63
tp462
a(S'w'
I2879
tp463
a(S'p1_vo'
I9
tp464
a(S'w'
I12
tp465
a(S'p2_vo'
I11
tp466
a(S'w'
I2182
tp467
a(S'p1_vo'
I8
tp468
a(S'w'
I12
tp469
a(S'p2_vo'
I10
tp470
a(S'w'
I2202
tp471
a(S'p2_vo'
I9
tp472
a(S'w'
I2196
tp473
a(S'p1_vo'
I7
tp474
a(S'w'
I2195
tp475
a(S'p1_vo'
I6
tp476
a(S'w'
I12
tp477
a(S'p2_vo'
I8
tp478
a(S'w'
I2208
tp479
a(S'p2_vo'
I7
tp480
a(S'w'
I2182
tp481
a(S'p1_vo'
I5
tp482
a(S'w'
I12
tp483
a(S'p2_vo'
I6
tp484
a(S'w'
I27903
tp485
a(S'tr_lr'
I0
tp486
a(S'w'
I2912
tp487
a(S'p1_vo'
I4
tp488
a(S'w'
I13
tp489
a(S'p2_vo'
I5
tp490
a(S'w'
I2916
tp491
a(S'p1_vo'
I3
tp492
a(S'w'
I12
tp493
a(S'p2_vo'
I4
tp494
a(S'w'
I2936
tp495
a(S'p2_vo'
I3
tp496
a(S'w'
I2922
tp497
a(S'p1_vo'
I2
tp498
a(S'w'
I2935
tp499
a(S'p1_vo'
I1
tp500
a(S'w'
I13
tp501
a(S'p2_vo'
I2
tp502
a(S'w'
I2942
tp503
a(S'p2_vo'
I1
tp504
a(S'w'
I2922
tp505
a(S'p1_vo'
I0
tp506
a(S'w'
I13
tp507
a(S'p2_vo'
I0
tp508
a(S'w'
I1
tp509
a.