(lp1
(S'clock'
p2
I1789772
tp3
a(S'p1_du'
I2
tp4
a(S'p1_lh'
I1
tp5
a(S'p1_cv'
I1
tp6
a(S'p1_se'
I1
tp7
a(S'p1_sn'
I1
tp8
a(S'p1_tl'
I106
tp9
a(S'p1_ll'
I1
tp10
a(S'p2_du'
I2
tp11
a(S'p2_lh'
I1
tp12
a(S'p2_cv'
I1
tp13
a(S'p2_se'
I1
tp14
a(S'p2_sn'
I1
tp15
a(S'p2_tl'
I126
tp16
a(S'p2_ll'
I1
tp17
a(S'tr_lh'
I1
tp18
a(S'tr_tl'
I79
tp19
a(S'tr_ll'
I1
tp20
a(S'no_lh'
I1
tp21
a(S'no_cv'
I1
tp22
a(S'ch_no'
I1
tp23
a(S'ch_tr'
I1
tp24
a(S'ch_p2'
I1
tp25
a(S'ch_p1'
I1
tp26
a(S'fc_mo'
I1
tp27
a(S'p1_tl'
I169
tp28
a(S'p1_ll'
I1
tp29
a(S'w'
I7
tp30
a(S'p1_vo'
I15
tp31
a(S'w'
I16
tp32
a(S'p2_tl'
I213
tp33
a(S'p2_ll'
I1
tp34
a(S'w'
I8
tp35
a(S'p2_vo'
I15
tp36
a(S'w'
I5
tp37
a(S'tr_tl'
I126
tp38
a(S'tr_ll'
I1
tp39
a(S'w'
I3
tp40
a(S'tr_lr'
I63
tp41
a(S'w'
I2819
tp42
a(S'p1_vo'
I14
tp43
a(S'w'
I10
tp44
a(S'p2_vo'
I14
tp45
a(S'w'
I2204
tp46
a(S'p1_vo'
I13
tp47
a(S'w'
I9
tp48
a(S'p2_vo'
I2
tp49
a(S'w'
I6
tp50
a(S'tr_lr'
I0
tp51
a(S'w'
I1440
tp52
a(S'p1_vo'
I12
tp53
a(S'w'
I746
tp54
a(S'p1_vo'
I11
tp55
a(S'w'
I733
tp56
a(S'p1_vo'
I10
tp57
a(S'w'
I1468
tp58
a(S'p1_vo'
I9
tp59
a(S'w'
I1481
tp60
a(S'p1_tl'
I126
tp61
a(S'w'
I1
tp62
a(S'p1_ll'
I1
tp63
a(S'w'
I7
tp64
a(S'p1_vo'
I15
tp65
a(S'w'
I2902
tp66
a(S'p1_vo'
I14
tp67
a(S'w'
I2213
tp68
a(S'p1_vo'
I2
tp69
a(S'w'
I2214
tp70
a(S'p2_tl'
I213
tp71
a(S'w'
I734
tp72
a(S'p2_tl'
I213
tp73
a(S'w'
I734
tp74
a(S'p2_tl'
I212
tp75
a(S'w'
I734
tp76
a(S'p2_tl'
I212
tp77
a(S'w'
I722
tp78
a(S'p2_tl'
I210
tp79
a(S'w'
I761
tp80
a(S'p1_tl'
I142
tp81
a(S'p1_ll'
I1
tp82
a(S'w'
I7
tp83
a(S'p1_vo'
I15
tp84
a(S'w'
I16
tp85
a(S'p2_tl'
I213
tp86
a(S'p2_ll'
I1
tp87
a(S'w'
I8
tp88
a(S'p2_vo'
I15
tp89
a(S'w'
I5
tp90
a(S'tr_tl'
I169
tp91
a(S'tr_ll'
I1
tp92
a(S'w'
I3
tp93
a(S'tr_lr'
I63
tp94
a(S'w'
I2856
tp95
a(S'p1_vo'
I14
tp96
a(S'w'
I10
tp97
a(S'p2_vo'
I14
tp98
a(S'w'
I2204
tp99
a(S'p1_vo'
I2
tp100
a(S'w'
I9
tp101
a(S'p2_vo'
I2
tp102
a(S'w'
I5
tp103
a(S'tr_lr'
I0
tp104
a(S'w'
I5868
tp105
a(S'p1_tl'
I213
tp106
a(S'p1_ll'
I1
tp107
a(S'w'
I7
tp108
a(S'p1_vo'
I15
tp109
a(S'w'
I2904
tp110
a(S'p1_vo'
I14
tp111
a(S'w'
I2213
tp112
a(S'p1_vo'
I2
tp113
a(S'w'
I2214
tp114
a(S'p2_tl'
I213
tp115
a(S'w'
I734
tp116
a(S'p2_tl'
I213
tp117
a(S'w'
I734
tp118
a(S'p2_tl'
I212
tp119
a(S'w'
I734
tp120
a(S'p2_tl'
I212
tp121
a(S'w'
I722
tp122
a(S'p2_tl'
I210
tp123
a(S'w'
I768
tp124
a(S'p1_tl'
I169
tp125
a(S'p1_ll'
I1
tp126
a(S'w'
I8
tp127
a(S'p1_vo'
I15
tp128
a(S'w'
I15
tp129
a(S'p2_tl'
I253
tp130
a(S'p2_ll'
I1
tp131
a(S'w'
I8
tp132
a(S'p2_vo'
I15
tp133
a(S'w'
I5
tp134
a(S'tr_tl'
I150
tp135
a(S'tr_ll'
I1
tp136
a(S'w'
I2
tp137
a(S'tr_lr'
I63
tp138
a(S'w'
I2850
tp139
a(S'p1_vo'
I14
tp140
a(S'w'
I10
tp141
a(S'p2_vo'
I14
tp142
a(S'w'
I2203
tp143
a(S'p1_vo'
I13
tp144
a(S'w'
I10
tp145
a(S'p2_vo'
I13
tp146
a(S'w'
I1446
tp147
a(S'p1_vo'
I12
tp148
a(S'w'
I10
tp149
a(S'p2_vo'
I12
tp150
a(S'w'
I735
tp151
a(S'p1_vo'
I11
tp152
a(S'w'
I11
tp153
a(S'p2_vo'
I11
tp154
a(S'w'
I723
tp155
a(S'p1_vo'
I10
tp156
a(S'w'
I11
tp157
a(S'p2_vo'
I10
tp158
a(S'w'
I1457
tp159
a(S'p1_vo'
I9
tp160
a(S'w'
I10
tp161
a(S'p2_vo'
I9
tp162
a(S'w'
I2191
tp163
a(S'p1_vo'
I8
tp164
a(S'w'
I11
tp165
a(S'p2_vo'
I8
tp166
a(S'w'
I3658
tp167
a(S'p1_vo'
I7
tp168
a(S'w'
I11
tp169
a(S'p2_vo'
I7
tp170
a(S'w'
I2927
tp171
a(S'p1_tl'
I169
tp172
a(S'w'
I17
tp173
a(S'p2_tl'
I253
tp174
a(S'w'
I717
tp175
a(S'p1_tl'
I169
tp176
a(S'w'
I17
tp177
a(S'p2_tl'
I253
tp178
a(S'w'
I718
tp179
a(S'p1_tl'
I168
tp180
a(S'w'
I17
tp181
a(S'p2_tl'
I252
tp182
a(S'w'
I716
tp183
a(S'p1_tl'
I168
tp184
a(S'w'
I18
tp185
a(S'p2_tl'
I252
tp186
a(S'w'
I704
tp187
a(S'p1_tl'
I167
tp188
a(S'w'
I18
tp189
a(S'p2_tl'
I250
tp190
a(S'w'
I757
tp191
a(S'p1_tl'
I213
tp192
a(S'p1_ll'
I1
tp193
a(S'w'
I7
tp194
a(S'p1_vo'
I15
tp195
a(S'w'
I8
tp196
a(S'p2_vo'
I0
tp197
a(S'w'
I6
tp198
a(S'tr_lr'
I0
tp199
a(S'w'
I2870
tp200
a(S'p1_vo'
I14
tp201
a(S'w'
I2212
tp202
a(S'p1_vo'
I2
tp203
a(S'w'
I5883
tp204
a(S'p1_tl'
I253
tp205
a(S'w'
I1
tp206
a(S'p1_ll'
I1
tp207
a(S'w'
I7
tp208
a(S'p1_vo'
I15
tp209
a(S'w'
I2904
tp210
a(S'p1_vo'
I14
tp211
a(S'w'
I2212
tp212
a(S'p1_vo'
I2
tp213
a(S'w'
I5922
tp214
a(S'p1_tl'
I189
tp215
a(S'p1_ll'
I1
tp216
a(S'w'
I7
tp217
a(S'p1_vo'
I15
tp218
a(S'w'
I16
tp219
a(S'p2_tl'
I225
tp220
a(S'p2_ll'
I1
tp221
a(S'w'
I8
tp222
a(S'p2_vo'
I15
tp223
a(S'w'
I2842
tp224
a(S'p1_vo'
I14
tp225
a(S'w'
I11
tp226
a(S'p2_vo'
I14
tp227
a(S'w'
I2203
tp228
a(S'p1_vo'
I13
tp229
a(S'w'
I11
tp230
a(S'p2_vo'
I13
tp231
a(S'w'
I1444
tp232
a(S'p1_vo'
I12
tp233
a(S'w'
I11
tp234
a(S'p2_vo'
I12
tp235
a(S'w'
I735
tp236
a(S'p1_vo'
I11
tp237
a(S'w'
I11
tp238
a(S'p2_vo'
I11
tp239
a(S'w'
I723
tp240
a(S'p1_vo'
I10
tp241
a(S'w'
I11
tp242
a(S'p2_vo'
I10
tp243
a(S'w'
I1457
tp244
a(S'p1_vo'
I9
tp245
a(S'w'
I10
tp246
a(S'p2_vo'
I9
tp247
a(S'w'
I1478
tp248
a(S'tr_tl'
I28
tp249
a(S'tr_ll'
I1
tp250
a(S'tr_th'
I1
tp251
a(S'w'
I3
tp252
a(S'tr_lr'
I63
tp253
a(S'w'
I711
tp254
a(S'p1_vo'
I8
tp255
a(S'w'
I10
tp256
a(S'p2_vo'
I8
tp257
a(S'w'
I3659
tp258
a(S'p1_vo'
I7
tp259
a(S'w'
I10
tp260
a(S'p2_vo'
I7
tp261
a(S'w'
I1466
tp262
a(S'tr_lr'
I0
tp263
a(S'w'
I1461
tp264
a(S'p1_tl'
I189
tp265
a(S'w'
I17
tp266
a(S'p2_tl'
I225
tp267
a(S'w'
I717
tp268
a(S'p1_tl'
I189
tp269
a(S'w'
I17
tp270
a(S'p2_tl'
I225
tp271
a(S'w'
I718
tp272
a(S'p1_tl'
I188
tp273
a(S'w'
I17
tp274
a(S'p2_tl'
I224
tp275
a(S'w'
I716
tp276
a(S'p1_tl'
I188
tp277
a(S'w'
I18
tp278
a(S'p2_tl'
I224
tp279
a(S'w'
I703
tp280
a(S'p1_tl'
I187
tp281
a(S'w'
I18
tp282
a(S'p2_tl'
I222
tp283
a(S'w'
I738
tp284
a(S'p1_tl'
I187
tp285
a(S'w'
I7
tp286
a(S'p1_vo'
I6
tp287
a(S'w'
I14
tp288
a(S'p2_tl'
I222
tp289
a(S'w'
I7
tp290
a(S'p2_vo'
I6
tp291
a(S'w'
I5
tp292
a(S'tr_tl'
I225
tp293
a(S'tr_ll'
I1
tp294
a(S'tr_th'
I0
tp295
a(S'w'
I3
tp296
a(S'tr_lr'
I63
tp297
a(S'w'
I689
tp298
a(S'p1_tl'
I187
tp299
a(S'w'
I22
tp300
a(S'p2_tl'
I222
tp301
a(S'w'
I711
tp302
a(S'p1_tl'
I189
tp303
a(S'w'
I21
tp304
a(S'p2_tl'
I225
tp305
a(S'w'
I713
tp306
a(S'p1_tl'
I189
tp307
a(S'w'
I21
tp308
a(S'p2_tl'
I225
tp309
a(S'w'
I700
tp310
a(S'p1_tl'
I190
tp311
a(S'w'
I22
tp312
a(S'p2_tl'
I226
tp313
a(S'w'
I725
tp314
a(S'p1_tl'
I190
tp315
a(S'w'
I22
tp316
a(S'p2_tl'
I226
tp317
a(S'w'
I712
tp318
a(S'p1_tl'
I191
tp319
a(S'w'
I22
tp320
a(S'p2_tl'
I228
tp321
a(S'w'
I712
tp322
a(S'p1_tl'
I191
tp323
a(S'w'
I22
tp324
a(S'p2_tl'
I228
tp325
a(S'w'
I712
tp326
a(S'p1_tl'
I191
tp327
a(S'w'
I22
tp328
a(S'p2_tl'
I228
tp329
a(S'w'
I13
tp330
a(S'tr_lr'
I0
tp331
a(S'w'
I685
tp332
a(S'p1_tl'
I189
tp333
a(S'w'
I22
tp334
a(S'p2_tl'
I225
tp335
a(S'w'
I724
tp336
a(S'p1_tl'
I189
tp337
a(S'w'
I22
tp338
a(S'p2_tl'
I225
tp339
a(S'w'
I713
tp340
a(S'p1_tl'
I188
tp341
a(S'w'
I22
tp342
a(S'p2_tl'
I224
tp343
a(S'w'
I712
tp344
a(S'p1_tl'
I188
tp345
a(S'w'
I21
tp346
a(S'p2_tl'
I224
tp347
a(S'w'
I712
tp348
a(S'p1_tl'
I187
tp349
a(S'w'
I22
tp350
a(S'p2_tl'
I222
tp351
a(S'w'
I699
tp352
a(S'p1_tl'
I187
tp353
a(S'w'
I22
tp354
a(S'p2_tl'
I222
tp355
a(S'w'
I734
tp356
a(S'p1_tl'
I187
tp357
a(S'w'
I22
tp358
a(S'p2_tl'
I222
tp359
a(S'w'
I12
tp360
a(S'tr_tl'
I189
tp361
a(S'tr_ll'
I1
tp362
a(S'w'
I3
tp363
a(S'tr_lr'
I63
tp364
a(S'w'
I687
tp365
a(S'p1_tl'
I189
tp366
a(S'w'
I22
tp367
a(S'p2_tl'
I225
tp368
a(S'w'
I712
tp369
a(S'p1_tl'
I189
tp370
a(S'w'
I21
tp371
a(S'p2_tl'
I225
tp372
a(S'w'
I714
tp373
a(S'p1_tl'
I190
tp374
a(S'w'
I22
tp375
a(S'p2_tl'
I226
tp376
a(S'w'
I698
tp377
a(S'p1_tl'
I190
tp378
a(S'w'
I22
tp379
a(S'p2_tl'
I226
tp380
a(S'w'
I725
tp381
a(S'p1_tl'
I191
tp382
a(S'w'
I22
tp383
a(S'p2_tl'
I228
tp384
a(S'w'
I712
tp385
a(S'p1_tl'
I191
tp386
a(S'w'
I22
tp387
a(S'p2_tl'
I228
tp388
a(S'w'
I712
tp389
a(S'p1_tl'
I191
tp390
a(S'w'
I22
tp391
a(S'p2_tl'
I228
tp392
a(S'w'
I712
tp393
a(S'p1_tl'
I189
tp394
a(S'w'
I22
tp395
a(S'p2_tl'
I225
tp396
a(S'w'
I13
tp397
a(S'tr_lr'
I0
tp398
a(S'w'
I685
tp399
a(S'p1_tl'
I189
tp400
a(S'w'
I21
tp401
a(S'p2_tl'
I225
tp402
a(S'w'
I726
tp403
a(S'p1_tl'
I188
tp404
a(S'w'
I22
tp405
a(S'p2_tl'
I224
tp406
a(S'w'
I712
tp407
a(S'p1_tl'
I188
tp408
a(S'w'
I22
tp409
a(S'p2_tl'
I224
tp410
a(S'w'
I712
tp411
a(S'p1_tl'
I187
tp412
a(S'w'
I22
tp413
a(S'p2_tl'
I222
tp414
a(S'w'
I711
tp415
a(S'p1_tl'
I187
tp416
a(S'w'
I22
tp417
a(S'p2_tl'
I222
tp418
a(S'w'
I699
tp419
a(S'p1_tl'
I187
tp420
a(S'w'
I22
tp421
a(S'p2_tl'
I222
tp422
a(S'w'
I733
tp423
a(S'p1_tl'
I189
tp424
a(S'w'
I21
tp425
a(S'p2_tl'
I225
tp426
a(S'w'
I13
tp427
a(S'tr_tl'
I142
tp428
a(S'tr_ll'
I1
tp429
a(S'w'
I3
tp430
a(S'tr_lr'
I63
tp431
a(S'w'
I688
tp432
a(S'p1_tl'
I189
tp433
a(S'w'
I22
tp434
a(S'p2_tl'
I225
tp435
a(S'w'
I713
tp436
a(S'p1_tl'
I190
tp437
a(S'w'
I22
tp438
a(S'p2_tl'
I226
tp439
a(S'w'
I712
tp440
a(S'p1_tl'
I190
tp441
a(S'w'
I22
tp442
a(S'p2_tl'
I226
tp443
a(S'w'
I698
tp444
a(S'p1_tl'
I191
tp445
a(S'w'
I22
tp446
a(S'p2_tl'
I228
tp447
a(S'w'
I741
tp448
a(S'p1_tl'
I191
tp449
a(S'w'
I8
tp450
a(S'p1_vo'
I5
tp451
a(S'w'
I14
tp452
a(S'p2_tl'
I228
tp453
a(S'w'
I8
tp454
a(S'p2_vo'
I5
tp455
a(S'w'
I688
tp456
a(S'p1_tl'
I191
tp457
a(S'w'
I21
tp458
a(S'p2_tl'
I228
tp459
a(S'w'
I712
tp460
a(S'p1_tl'
I189
tp461
a(S'w'
I8
tp462
a(S'p1_vo'
I4
tp463
a(S'w'
I14
tp464
a(S'p2_tl'
I225
tp465
a(S'w'
I8
tp466
a(S'p2_vo'
I4
tp467
a(S'w'
I704
tp468
a(S'p1_tl'
I189
tp469
a(S'w'
I21
tp470
a(S'p2_tl'
I225
tp471
a(S'w'
I13
tp472
a(S'tr_lr'
I0
tp473
a(S'w'
I687
tp474
a(S'p1_tl'
I188
tp475
a(S'w'
I8
tp476
a(S'p1_vo'
I3
tp477
a(S'w'
I14
tp478
a(S'p2_tl'
I224
tp479
a(S'w'
I8
tp480
a(S'p2_vo'
I3
tp481
a(S'w'
I717
tp482
a(S'p1_tl'
I188
tp483
a(S'w'
I21
tp484
a(S'p2_tl'
I224
tp485
a(S'w'
I712
tp486
a(S'p1_tl'
I187
tp487
a(S'w'
I8
tp488
a(S'p1_vo'
I2
tp489
a(S'w'
I14
tp490
a(S'p2_tl'
I222
tp491
a(S'w'
I8
tp492
a(S'p2_vo'
I2
tp493
a(S'w'
I704
tp494
a(S'p1_tl'
I187
tp495
a(S'w'
I22
tp496
a(S'p2_tl'
I222
tp497
a(S'w'
I712
tp498
a(S'p1_tl'
I187
tp499
a(S'w'
I7
tp500
a(S'p1_vo'
I1
tp501
a(S'w'
I15
tp502
a(S'p2_tl'
I222
tp503
a(S'w'
I7
tp504
a(S'p2_vo'
I1
tp505
a(S'w'
I692
tp506
a(S'p1_tl'
I189
tp507
a(S'w'
I21
tp508
a(S'p2_tl'
I225
tp509
a(S'w'
I716
tp510
a(S'p1_vo'
I0
tp511
a(S'w'
I13
tp512
a(S'p2_vo'
I0
tp513
a(S'w'
I1
tp514
a.