(lp1
(S'clock'
p2
I1789772
tp3
a(S'p1_du'
I2
tp4
a(S'p1_lh'
I1
tp5
a(S'p1_cv'
I1
tp6
a(S'p1_se'
I1
tp7
a(S'p1_sn'
I1
tp8
a(S'p1_tl'
I94
tp9
a(S'p1_ll'
I1
tp10
a(S'p2_du'
I2
tp11
a(S'p2_lh'
I1
tp12
a(S'p2_cv'
I1
tp13
a(S'p2_se'
I1
tp14
a(S'p2_sn'
I1
tp15
a(S'p2_tl'
I150
tp16
a(S'p2_ll'
I1
tp17
a(S'tr_lh'
I1
tp18
a(S'tr_tl'
I179
tp19
a(S'tr_ll'
I1
tp20
a(S'no_lh'
I1
tp21
a(S'no_cv'
I1
tp22
a(S'no_np'
I2
tp23
a(S'no_ll'
I1
tp24
a(S'ch_no'
I1
tp25
a(S'ch_tr'
I1
tp26
a(S'ch_p2'
I1
tp27
a(S'ch_p1'
I1
tp28
a(S'fc_mo'
I1
tp29
a(S'p1_tl'
I82
tp30
a(S'w'
I1
tp31
a(S'p1_ll'
I1
tp32
a(S'p1_th'
I1
tp33
a(S'w'
I7
tp34
a(S'p1_vo'
I6
tp35
a(S'w'
I10
tp36
a(S'tr_tl'
I82
tp37
a(S'w'
I1
tp38
a(S'tr_ll'
I1
tp39
a(S'tr_th'
I1
tp40
a(S'w'
I2
tp41
a(S'tr_lr'
I63
tp42
a(S'w'
I1403
tp43
a(S'p1_vo'
I5
tp44
a(S'w'
I1461
tp45
a(S'p1_vo'
I4
tp46
a(S'w'
I19097
tp47
a(S'p1_tl'
I28
tp48
a(S'p1_ll'
I1
tp49
a(S'w'
I7
tp50
a(S'p1_vo'
I6
tp51
a(S'w'
I10
tp52
a(S'tr_tl'
I28
tp53
a(S'tr_ll'
I1
tp54
a(S'w'
I1439
tp55
a(S'p1_vo'
I5
tp56
a(S'w'
I1461
tp57
a(S'p1_vo'
I4
tp58
a(S'w'
I19097
tp59
a(S'p1_tl'
I213
tp60
a(S'p1_ll'
I1
tp61
a(S'p1_th'
I0
tp62
a(S'w'
I7
tp63
a(S'p1_vo'
I6
tp64
a(S'w'
I10
tp65
a(S'tr_tl'
I213
tp66
a(S'tr_ll'
I1
tp67
a(S'tr_th'
I0
tp68
a(S'w'
I1439
tp69
a(S'p1_vo'
I5
tp70
a(S'w'
I1461
tp71
a(S'p1_vo'
I4
tp72
a(S'w'
I19099
tp73
a(S'p1_tl'
I169
tp74
a(S'p1_ll'
I1
tp75
a(S'w'
I7
tp76
a(S'p1_vo'
I6
tp77
a(S'w'
I11
tp78
a(S'tr_tl'
I169
tp79
a(S'tr_ll'
I1
tp80
a(S'w'
I1436
tp81
a(S'p1_vo'
I5
tp82
a(S'w'
I1461
tp83
a(S'p1_vo'
I4
tp84
a(S'w'
I13225
tp85
a(S'p1_tl'
I63
tp86
a(S'w'
I1
tp87
a(S'p1_ll'
I1
tp88
a(S'p1_th'
I1
tp89
a(S'w'
I6
tp90
a(S'p1_vo'
I8
tp91
a(S'w'
I710
tp92
a(S'p1_vo'
I9
tp93
a(S'w'
I734
tp94
a(S'p1_vo'
I10
tp95
a(S'w'
I749
tp96
a(S'p1_vo'
I11
tp97
a(S'w'
I5
tp98
a(S'p2_tl'
I253
tp99
a(S'p2_ll'
I1
tp100
a(S'w'
I7
tp101
a(S'p2_vo'
I8
tp102
a(S'w'
I706
tp103
a(S'p1_vo'
I12
tp104
a(S'w'
I10
tp105
a(S'p2_vo'
I9
tp106
a(S'w'
I731
tp107
a(S'p1_vo'
I13
tp108
a(S'w'
I10
tp109
a(S'p2_vo'
I10
tp110
a(S'w'
I717
tp111
a(S'p1_du'
I1
tp112
a(S'p1_vo'
I14
tp113
a(S'w'
I10
tp114
a(S'p2_vo'
I11
tp115
a(S'w'
I724
tp116
a(S'p1_vo'
I13
tp117
a(S'w'
I10
tp118
a(S'p2_vo'
I12
tp119
a(S'w'
I741
tp120
a(S'p1_vo'
I12
tp121
a(S'w'
I10
tp122
a(S'p2_vo'
I13
tp123
a(S'w'
I5
tp124
a(S'tr_tl'
I106
tp125
a(S'tr_ll'
I1
tp126
a(S'w'
I701
tp127
a(S'p1_vo'
I11
tp128
a(S'w'
I10
tp129
a(S'p2_du'
I1
tp130
a(S'p2_vo'
I14
tp131
a(S'w'
I741
tp132
a(S'p2_vo'
I13
tp133
a(S'w'
I717
tp134
a(S'p1_vo'
I10
tp135
a(S'w'
I10
tp136
a(S'p2_vo'
I12
tp137
a(S'w'
I724
tp138
a(S'p1_vo'
I9
tp139
a(S'w'
I10
tp140
a(S'p2_vo'
I11
tp141
a(S'w'
I730
tp142
a(S'p1_vo'
I8
tp143
a(S'w'
I737
tp144
a(S'p2_vo'
I10
tp145
a(S'w'
I731
tp146
a(S'p1_vo'
I9
tp147
a(S'w'
I10
tp148
a(S'p2_vo'
I9
tp149
a(S'w'
I717
tp150
a(S'p1_vo'
I10
tp151
a(S'w'
I10
tp152
a(S'p2_vo'
I8
tp153
a(S'w'
I724
tp154
a(S'p1_vo'
I11
tp155
a(S'w'
I751
tp156
a(S'p2_vo'
I9
tp157
a(S'w'
I716
tp158
a(S'p1_vo'
I10
tp159
a(S'w'
I10
tp160
a(S'p2_vo'
I10
tp161
a(S'w'
I731
tp162
a(S'p1_vo'
I9
tp163
a(S'w'
I10
tp164
a(S'p2_vo'
I11
tp165
a(S'w'
I717
tp166
a(S'p1_vo'
I8
tp167
a(S'w'
I744
tp168
a(S'p2_vo'
I10
tp169
a(S'w'
I730
tp170
a(S'p1_vo'
I9
tp171
a(S'w'
I10
tp172
a(S'p2_vo'
I9
tp173
a(S'w'
I717
tp174
a(S'p1_vo'
I10
tp175
a(S'w'
I10
tp176
a(S'p2_vo'
I8
tp177
a(S'w'
I731
tp178
a(S'p1_vo'
I11
tp179
a(S'w'
I737
tp180
a(S'p2_vo'
I9
tp181
a(S'w'
I724
tp182
a(S'p1_vo'
I10
tp183
a(S'w'
I10
tp184
a(S'p2_vo'
I10
tp185
a(S'w'
I730
tp186
a(S'p1_vo'
I9
tp187
a(S'w'
I10
tp188
a(S'p2_vo'
I11
tp189
a(S'w'
I717
tp190
a(S'p1_vo'
I8
tp191
a(S'w'
I751
tp192
a(S'p2_vo'
I10
tp193
a(S'w'
I717
tp194
a(S'p1_vo'
I9
tp195
a(S'w'
I10
tp196
a(S'p2_vo'
I9
tp197
a(S'w'
I724
tp198
a(S'p1_vo'
I10
tp199
a(S'w'
I10
tp200
a(S'p2_vo'
I8
tp201
a(S'w'
I730
tp202
a(S'p1_vo'
I11
tp203
a(S'w'
I738
tp204
a(S'p2_vo'
I9
tp205
a(S'w'
I730
tp206
a(S'p1_vo'
I10
tp207
a(S'w'
I10
tp208
a(S'p2_vo'
I10
tp209
a(S'w'
I717
tp210
a(S'p1_vo'
I9
tp211
a(S'w'
I10
tp212
a(S'p2_vo'
I11
tp213
a(S'w'
I724
tp214
a(S'p1_vo'
I8
tp215
a(S'w'
I750
tp216
a(S'p2_vo'
I10
tp217
a(S'w'
I717
tp218
a(S'p1_vo'
I9
tp219
a(S'w'
I10
tp220
a(S'p2_vo'
I9
tp221
a(S'w'
I731
tp222
a(S'p1_vo'
I10
tp223
a(S'w'
I10
tp224
a(S'p2_vo'
I8
tp225
a(S'w'
I717
tp226
a(S'p1_vo'
I11
tp227
a(S'w'
I744
tp228
a(S'p2_vo'
I9
tp229
a(S'w'
I730
tp230
a(S'p1_vo'
I10
tp231
a(S'w'
I10
tp232
a(S'p2_vo'
I10
tp233
a(S'w'
I717
tp234
a(S'p1_vo'
I9
tp235
a(S'w'
I10
tp236
a(S'p2_vo'
I11
tp237
a(S'w'
I731
tp238
a(S'p1_vo'
I8
tp239
a(S'w'
I737
tp240
a(S'p2_vo'
I10
tp241
a(S'w'
I724
tp242
a(S'p1_vo'
I9
tp243
a(S'w'
I10
tp244
a(S'p2_vo'
I9
tp245
a(S'w'
I730
tp246
a(S'p1_vo'
I10
tp247
a(S'w'
I10
tp248
a(S'p2_vo'
I8
tp249
a(S'w'
I717
tp250
a(S'p1_vo'
I11
tp251
a(S'w'
I752
tp252
a(S'p2_vo'
I9
tp253
a(S'w'
I716
tp254
a(S'p1_vo'
I10
tp255
a(S'w'
I10
tp256
a(S'p2_vo'
I10
tp257
a(S'w'
I724
tp258
a(S'p1_vo'
I9
tp259
a(S'w'
I10
tp260
a(S'p2_vo'
I11
tp261
a(S'w'
I730
tp262
a(S'p1_vo'
I8
tp263
a(S'w'
I737
tp264
a(S'p2_vo'
I10
tp265
a(S'w'
I731
tp266
a(S'p1_vo'
I9
tp267
a(S'w'
I10
tp268
a(S'p2_vo'
I9
tp269
a(S'w'
I717
tp270
a(S'p1_vo'
I10
tp271
a(S'w'
I10
tp272
a(S'p2_vo'
I8
tp273
a(S'w'
I724
tp274
a(S'p1_vo'
I11
tp275
a(S'w'
I751
tp276
a(S'p2_vo'
I9
tp277
a(S'w'
I716
tp278
a(S'p1_vo'
I10
tp279
a(S'w'
I10
tp280
a(S'p2_vo'
I10
tp281
a(S'w'
I731
tp282
a(S'p1_vo'
I9
tp283
a(S'w'
I10
tp284
a(S'p2_vo'
I11
tp285
a(S'w'
I717
tp286
a(S'p1_vo'
I8
tp287
a(S'w'
I744
tp288
a(S'p2_vo'
I10
tp289
a(S'w'
I730
tp290
a(S'p1_vo'
I9
tp291
a(S'w'
I10
tp292
a(S'p2_vo'
I9
tp293
a(S'w'
I717
tp294
a(S'p1_vo'
I10
tp295
a(S'w'
I10
tp296
a(S'p2_vo'
I8
tp297
a(S'w'
I737
tp298
a(S'p1_tl'
I124
tp299
a(S'w'
I1
tp300
a(S'p1_ll'
I1
tp301
a(S'w'
I6
tp302
a(S'p1_du'
I2
tp303
a(S'p1_vo'
I8
tp304
a(S'w'
I714
tp305
a(S'p1_vo'
I9
tp306
a(S'w'
I10
tp307
a(S'p2_vo'
I9
tp308
a(S'w'
I724
tp309
a(S'p1_vo'
I10
tp310
a(S'w'
I10
tp311
a(S'p2_vo'
I10
tp312
a(S'w'
I730
tp313
a(S'p1_vo'
I11
tp314
a(S'w'
I10
tp315
a(S'p2_vo'
I11
tp316
a(S'w'
I717
tp317
a(S'p1_vo'
I12
tp318
a(S'w'
I741
tp319
a(S'p1_vo'
I13
tp320
a(S'w'
I10
tp321
a(S'p2_vo'
I10
tp322
a(S'w'
I717
tp323
a(S'p1_du'
I1
tp324
a(S'p1_vo'
I14
tp325
a(S'w'
I10
tp326
a(S'p2_vo'
I9
tp327
a(S'w'
I724
tp328
a(S'p1_vo'
I13
tp329
a(S'w'
I10
tp330
a(S'p2_vo'
I8
tp331
a(S'w'
I730
tp332
a(S'p1_vo'
I12
tp333
a(S'w'
I727
tp334
a(S'p1_vo'
I11
tp335
a(S'w'
I10
tp336
a(S'p2_vo'
I9
tp337
a(S'w'
I741
tp338
a(S'p2_vo'
I10
tp339
a(S'w'
I717
tp340
a(S'p1_vo'
I10
tp341
a(S'w'
I10
tp342
a(S'p2_vo'
I11
tp343
a(S'w'
I724
tp344
a(S'p1_vo'
I9
tp345
a(S'w'
I740
tp346
a(S'p1_vo'
I8
tp347
a(S'w'
I10
tp348
a(S'p2_vo'
I10
tp349
a(S'w'
I727
tp350
a(S'p2_vo'
I9
tp351
a(S'w'
I731
tp352
a(S'p1_vo'
I9
tp353
a(S'w'
I10
tp354
a(S'p2_vo'
I8
tp355
a(S'w'
I717
tp356
a(S'p1_vo'
I10
tp357
a(S'w'
I734
tp358
a(S'p1_vo'
I11
tp359
a(S'w'
I10
tp360
a(S'p2_vo'
I9
tp361
a(S'w'
I741
tp362
a(S'p2_vo'
I10
tp363
a(S'w'
I716
tp364
a(S'p1_vo'
I10
tp365
a(S'w'
I10
tp366
a(S'p2_vo'
I11
tp367
a(S'w'
I731
tp368
a(S'p1_vo'
I9
tp369
a(S'w'
I727
tp370
a(S'p1_vo'
I8
tp371
a(S'w'
I10
tp372
a(S'p2_vo'
I10
tp373
a(S'w'
I734
tp374
a(S'p2_vo'
I9
tp375
a(S'w'
I730
tp376
a(S'p1_vo'
I9
tp377
a(S'w'
I10
tp378
a(S'p2_vo'
I8
tp379
a(S'w'
I717
tp380
a(S'p1_vo'
I10
tp381
a(S'w'
I741
tp382
a(S'p1_vo'
I11
tp383
a(S'w'
I10
tp384
a(S'p2_vo'
I9
tp385
a(S'w'
I728
tp386
a(S'p2_vo'
I10
tp387
a(S'w'
I723
tp388
a(S'p1_vo'
I10
tp389
a(S'w'
I10
tp390
a(S'p2_vo'
I11
tp391
a(S'w'
I730
tp392
a(S'p1_vo'
I9
tp393
a(S'w'
I727
tp394
a(S'p1_vo'
I8
tp395
a(S'w'
I10
tp396
a(S'p2_vo'
I10
tp397
a(S'w'
I741
tp398
a(S'p2_vo'
I9
tp399
a(S'w'
I717
tp400
a(S'p1_vo'
I9
tp401
a(S'w'
I10
tp402
a(S'p2_vo'
I8
tp403
a(S'w'
I724
tp404
a(S'p1_vo'
I10
tp405
a(S'w'
I740
tp406
a(S'p1_vo'
I11
tp407
a(S'w'
I10
tp408
a(S'p2_vo'
I9
tp409
a(S'w'
I728
tp410
a(S'p2_vo'
I10
tp411
a(S'w'
I730
tp412
a(S'p1_vo'
I10
tp413
a(S'w'
I10
tp414
a(S'p2_vo'
I11
tp415
a(S'w'
I717
tp416
a(S'p1_vo'
I9
tp417
a(S'w'
I734
tp418
a(S'p1_vo'
I8
tp419
a(S'w'
I10
tp420
a(S'p2_vo'
I10
tp421
a(S'w'
I740
tp422
a(S'p2_vo'
I9
tp423
a(S'w'
I717
tp424
a(S'p1_vo'
I9
tp425
a(S'w'
I10
tp426
a(S'p2_vo'
I8
tp427
a(S'w'
I731
tp428
a(S'p1_vo'
I10
tp429
a(S'w'
I727
tp430
a(S'p1_vo'
I11
tp431
a(S'w'
I10
tp432
a(S'p2_vo'
I9
tp433
a(S'w'
I734
tp434
a(S'p2_vo'
I10
tp435
a(S'w'
I730
tp436
a(S'p1_vo'
I10
tp437
a(S'w'
I10
tp438
a(S'p2_vo'
I11
tp439
a(S'w'
I717
tp440
a(S'p1_vo'
I9
tp441
a(S'w'
I741
tp442
a(S'p1_vo'
I8
tp443
a(S'w'
I10
tp444
a(S'p2_vo'
I10
tp445
a(S'w'
I727
tp446
a(S'p2_vo'
I9
tp447
a(S'w'
I724
tp448
a(S'p1_vo'
I9
tp449
a(S'w'
I10
tp450
a(S'p2_vo'
I8
tp451
a(S'w'
I730
tp452
a(S'p1_vo'
I10
tp453
a(S'w'
I727
tp454
a(S'p1_vo'
I11
tp455
a(S'w'
I10
tp456
a(S'p2_vo'
I9
tp457
a(S'w'
I742
tp458
a(S'p2_vo'
I10
tp459
a(S'w'
I716
tp460
a(S'p1_vo'
I10
tp461
a(S'w'
I10
tp462
a(S'p2_vo'
I11
tp463
a(S'w'
I724
tp464
a(S'p1_vo'
I9
tp465
a(S'w'
I740
tp466
a(S'p1_vo'
I8
tp467
a(S'w'
I10
tp468
a(S'p2_vo'
I10
tp469
a(S'w'
I727
tp470
a(S'p2_vo'
I9
tp471
a(S'w'
I737
tp472
a(S'p1_tl'
I82
tp473
a(S'w'
I1
tp474
a(S'p1_ll'
I1
tp475
a(S'w'
I6
tp476
a(S'p1_du'
I2
tp477
a(S'w'
I11
tp478
a(S'p2_vo'
I8
tp479
a(S'w'
I703
tp480
a(S'p1_vo'
I9
tp481
a(S'w'
I734
tp482
a(S'p1_vo'
I10
tp483
a(S'w'
I10
tp484
a(S'p2_vo'
I9
tp485
a(S'w'
I741
tp486
a(S'p1_vo'
I11
tp487
a(S'w'
I5
tp488
a(S'p2_tl'
I28
tp489
a(S'p2_ll'
I1
tp490
a(S'p2_th'
I1
tp491
a(S'w'
I7
tp492
a(S'p2_du'
I2
tp493
a(S'p2_vo'
I8
tp494
a(S'w'
I705
tp495
a(S'p1_vo'
I12
tp496
a(S'w'
I10
tp497
a(S'p2_vo'
I9
tp498
a(S'w'
I730
tp499
a(S'p1_vo'
I13
tp500
a(S'w'
I10
tp501
a(S'p2_vo'
I10
tp502
a(S'w'
I717
tp503
a(S'p1_du'
I1
tp504
a(S'p1_vo'
I14
tp505
a(S'w'
I10
tp506
a(S'p2_vo'
I11
tp507
a(S'w'
I724
tp508
a(S'p1_vo'
I13
tp509
a(S'w'
I10
tp510
a(S'p2_vo'
I12
tp511
a(S'w'
I731
tp512
a(S'p1_vo'
I12
tp513
a(S'w'
I10
tp514
a(S'p2_vo'
I13
tp515
a(S'w'
I717
tp516
a(S'p1_vo'
I11
tp517
a(S'w'
I10
tp518
a(S'p2_du'
I1
tp519
a(S'p2_vo'
I14
tp520
a(S'w'
I740
tp521
a(S'p2_vo'
I13
tp522
a(S'w'
I717
tp523
a(S'p1_vo'
I10
tp524
a(S'w'
I10
tp525
a(S'p2_vo'
I12
tp526
a(S'w'
I724
tp527
a(S'p1_vo'
I9
tp528
a(S'w'
I10
tp529
a(S'p2_vo'
I11
tp530
a(S'w'
I731
tp531
a(S'p1_vo'
I8
tp532
a(S'w'
I737
tp533
a(S'p2_vo'
I10
tp534
a(S'w'
I731
tp535
a(S'p1_vo'
I9
tp536
a(S'w'
I10
tp537
a(S'p2_vo'
I9
tp538
a(S'w'
I716
tp539
a(S'p1_vo'
I10
tp540
a(S'w'
I10
tp541
a(S'p2_vo'
I8
tp542
a(S'w'
I724
tp543
a(S'p1_vo'
I11
tp544
a(S'w'
I752
tp545
a(S'p2_vo'
I9
tp546
a(S'w'
I716
tp547
a(S'p1_vo'
I10
tp548
a(S'w'
I10
tp549
a(S'p2_vo'
I10
tp550
a(S'w'
I730
tp551
a(S'p1_vo'
I9
tp552
a(S'w'
I11
tp553
a(S'p2_vo'
I11
tp554
a(S'w'
I716
tp555
a(S'p1_vo'
I8
tp556
a(S'w'
I744
tp557
a(S'p2_vo'
I10
tp558
a(S'w'
I731
tp559
a(S'p1_vo'
I9
tp560
a(S'w'
I10
tp561
a(S'p2_vo'
I9
tp562
a(S'w'
I717
tp563
a(S'p1_vo'
I10
tp564
a(S'w'
I10
tp565
a(S'p2_vo'
I8
tp566
a(S'w'
I731
tp567
a(S'p1_vo'
I11
tp568
a(S'w'
I737
tp569
a(S'p2_vo'
I9
tp570
a(S'w'
I723
tp571
a(S'p1_vo'
I10
tp572
a(S'w'
I10
tp573
a(S'p2_vo'
I10
tp574
a(S'w'
I731
tp575
a(S'p1_vo'
I9
tp576
a(S'w'
I10
tp577
a(S'p2_vo'
I11
tp578
a(S'w'
I717
tp579
a(S'p1_vo'
I8
tp580
a(S'w'
I751
tp581
a(S'p2_vo'
I10
tp582
a(S'w'
I716
tp583
a(S'p1_vo'
I9
tp584
a(S'w'
I10
tp585
a(S'p2_vo'
I9
tp586
a(S'w'
I724
tp587
a(S'p1_vo'
I10
tp588
a(S'w'
I10
tp589
a(S'p2_vo'
I8
tp590
a(S'w'
I731
tp591
a(S'p1_vo'
I11
tp592
a(S'w'
I737
tp593
a(S'p2_vo'
I9
tp594
a(S'w'
I731
tp595
a(S'p1_vo'
I10
tp596
a(S'w'
I10
tp597
a(S'p2_vo'
I10
tp598
a(S'w'
I716
tp599
a(S'p1_vo'
I9
tp600
a(S'w'
I10
tp601
a(S'p2_vo'
I11
tp602
a(S'w'
I724
tp603
a(S'p1_vo'
I8
tp604
a(S'w'
I751
tp605
a(S'p2_vo'
I10
tp606
a(S'w'
I717
tp607
a(S'p1_vo'
I9
tp608
a(S'w'
I10
tp609
a(S'p2_vo'
I9
tp610
a(S'w'
I731
tp611
a(S'p1_vo'
I10
tp612
a(S'w'
I10
tp613
a(S'p2_vo'
I8
tp614
a(S'w'
I716
tp615
a(S'p1_vo'
I11
tp616
a(S'w'
I745
tp617
a(S'p2_vo'
I9
tp618
a(S'w'
I730
tp619
a(S'p1_vo'
I10
tp620
a(S'w'
I10
tp621
a(S'p2_vo'
I10
tp622
a(S'w'
I717
tp623
a(S'p1_vo'
I9
tp624
a(S'w'
I10
tp625
a(S'p2_vo'
I11
tp626
a(S'w'
I731
tp627
a(S'p1_vo'
I8
tp628
a(S'w'
I736
tp629
a(S'p2_vo'
I10
tp630
a(S'w'
I724
tp631
a(S'p1_vo'
I9
tp632
a(S'w'
I10
tp633
a(S'p2_vo'
I9
tp634
a(S'w'
I731
tp635
a(S'p1_vo'
I10
tp636
a(S'w'
I10
tp637
a(S'p2_vo'
I8
tp638
a(S'w'
I717
tp639
a(S'p1_vo'
I11
tp640
a(S'w'
I751
tp641
a(S'p2_vo'
I9
tp642
a(S'w'
I716
tp643
a(S'p1_vo'
I10
tp644
a(S'w'
I10
tp645
a(S'p2_vo'
I10
tp646
a(S'w'
I724
tp647
a(S'p1_vo'
I9
tp648
a(S'w'
I10
tp649
a(S'p2_vo'
I11
tp650
a(S'w'
I731
tp651
a(S'p1_vo'
I8
tp652
a(S'w'
I737
tp653
a(S'p2_vo'
I10
tp654
a(S'w'
I731
tp655
a(S'p1_vo'
I9
tp656
a(S'w'
I10
tp657
a(S'p2_vo'
I9
tp658
a(S'w'
I716
tp659
a(S'p1_vo'
I10
tp660
a(S'w'
I10
tp661
a(S'p2_vo'
I8
tp662
a(S'w'
I724
tp663
a(S'p1_vo'
I11
tp664
a(S'w'
I752
tp665
a(S'p2_vo'
I9
tp666
a(S'w'
I716
tp667
a(S'p1_vo'
I10
tp668
a(S'w'
I10
tp669
a(S'p2_vo'
I10
tp670
a(S'w'
I731
tp671
a(S'p1_vo'
I9
tp672
a(S'w'
I10
tp673
a(S'p2_vo'
I11
tp674
a(S'w'
I716
tp675
a(S'p1_vo'
I8
tp676
a(S'w'
I744
tp677
a(S'p2_vo'
I10
tp678
a(S'w'
I731
tp679
a(S'p1_vo'
I9
tp680
a(S'w'
I10
tp681
a(S'p2_vo'
I9
tp682
a(S'w'
I717
tp683
a(S'p1_vo'
I10
tp684
a(S'w'
I10
tp685
a(S'p2_vo'
I8
tp686
a(S'w'
I731
tp687
a(S'p1_vo'
I11
tp688
a(S'w'
I737
tp689
a(S'p2_vo'
I9
tp690
a(S'w'
I723
tp691
a(S'p1_vo'
I10
tp692
a(S'w'
I10
tp693
a(S'p2_vo'
I10
tp694
a(S'w'
I731
tp695
a(S'p1_vo'
I9
tp696
a(S'w'
I10
tp697
a(S'p2_vo'
I11
tp698
a(S'w'
I717
tp699
a(S'p1_vo'
I8
tp700
a(S'w'
I751
tp701
a(S'p2_vo'
I10
tp702
a(S'w'
I716
tp703
a(S'p1_vo'
I9
tp704
a(S'w'
I10
tp705
a(S'p2_vo'
I9
tp706
a(S'w'
I724
tp707
a(S'p1_vo'
I10
tp708
a(S'w'
I10
tp709
a(S'p2_vo'
I8
tp710
a(S'w'
I731
tp711
a(S'p1_vo'
I11
tp712
a(S'w'
I737
tp713
a(S'p2_vo'
I9
tp714
a(S'w'
I731
tp715
a(S'p1_vo'
I10
tp716
a(S'w'
I10
tp717
a(S'p2_vo'
I10
tp718
a(S'w'
I716
tp719
a(S'p1_vo'
I9
tp720
a(S'w'
I10
tp721
a(S'p2_vo'
I11
tp722
a(S'w'
I724
tp723
a(S'p1_vo'
I8
tp724
a(S'w'
I751
tp725
a(S'p2_vo'
I10
tp726
a(S'w'
I717
tp727
a(S'p1_vo'
I9
tp728
a(S'w'
I10
tp729
a(S'p2_vo'
I9
tp730
a(S'w'
I731
tp731
a(S'p1_vo'
I10
tp732
a(S'w'
I10
tp733
a(S'p2_vo'
I8
tp734
a(S'w'
I716
tp735
a(S'p1_vo'
I11
tp736
a(S'w'
I745
tp737
a(S'p2_vo'
I9
tp738
a(S'w'
I730
tp739
a(S'p1_vo'
I10
tp740
a(S'w'
I10
tp741
a(S'p2_vo'
I10
tp742
a(S'w'
I717
tp743
a(S'p1_vo'
I9
tp744
a(S'w'
I10
tp745
a(S'p2_vo'
I11
tp746
a(S'w'
I731
tp747
a(S'p1_vo'
I8
tp748
a(S'w'
I736
tp749
a(S'p2_vo'
I10
tp750
a(S'w'
I724
tp751
a(S'p1_vo'
I9
tp752
a(S'w'
I10
tp753
a(S'p2_vo'
I9
tp754
a(S'w'
I731
tp755
a(S'p1_vo'
I10
tp756
a(S'w'
I10
tp757
a(S'p2_vo'
I8
tp758
a(S'w'
I717
tp759
a(S'p1_vo'
I11
tp760
a(S'w'
I751
tp761
a(S'p2_vo'
I9
tp762
a(S'w'
I716
tp763
a(S'p1_vo'
I10
tp764
a(S'w'
I10
tp765
a(S'p2_vo'
I10
tp766
a(S'w'
I724
tp767
a(S'p1_vo'
I9
tp768
a(S'w'
I10
tp769
a(S'p2_vo'
I11
tp770
a(S'w'
I731
tp771
a(S'p1_vo'
I8
tp772
a(S'w'
I737
tp773
a(S'p2_vo'
I10
tp774
a(S'w'
I731
tp775
a(S'p1_vo'
I9
tp776
a(S'w'
I10
tp777
a(S'p2_vo'
I9
tp778
a(S'w'
I716
tp779
a(S'p1_vo'
I10
tp780
a(S'w'
I10
tp781
a(S'p2_vo'
I8
tp782
a(S'w'
I724
tp783
a(S'p1_vo'
I11
tp784
a(S'w'
I752
tp785
a(S'p2_vo'
I9
tp786
a(S'w'
I716
tp787
a(S'p1_vo'
I10
tp788
a(S'w'
I10
tp789
a(S'p2_vo'
I10
tp790
a(S'w'
I731
tp791
a(S'p1_vo'
I9
tp792
a(S'w'
I10
tp793
a(S'p2_vo'
I11
tp794
a(S'w'
I716
tp795
a(S'p1_vo'
I8
tp796
a(S'w'
I744
tp797
a(S'p2_vo'
I10
tp798
a(S'w'
I731
tp799
a(S'p1_vo'
I9
tp800
a(S'w'
I10
tp801
a(S'p2_vo'
I9
tp802
a(S'w'
I717
tp803
a(S'p1_vo'
I10
tp804
a(S'w'
I10
tp805
a(S'p2_vo'
I8
tp806
a(S'w'
I731
tp807
a(S'p1_vo'
I11
tp808
a(S'w'
I737
tp809
a(S'p2_vo'
I9
tp810
a(S'w'
I723
tp811
a(S'p1_vo'
I10
tp812
a(S'w'
I10
tp813
a(S'p2_vo'
I10
tp814
a(S'w'
I731
tp815
a(S'p1_vo'
I9
tp816
a(S'w'
I10
tp817
a(S'p2_vo'
I11
tp818
a(S'w'
I717
tp819
a(S'p1_vo'
I8
tp820
a(S'w'
I751
tp821
a(S'p2_vo'
I10
tp822
a(S'w'
I716
tp823
a(S'p1_vo'
I9
tp824
a(S'w'
I10
tp825
a(S'p2_vo'
I9
tp826
a(S'w'
I724
tp827
a(S'p1_vo'
I10
tp828
a(S'w'
I10
tp829
a(S'p2_vo'
I8
tp830
a(S'w'
I731
tp831
a(S'p1_vo'
I11
tp832
a(S'w'
I737
tp833
a(S'p2_vo'
I9
tp834
a(S'w'
I731
tp835
a(S'p1_vo'
I10
tp836
a(S'w'
I10
tp837
a(S'p2_vo'
I10
tp838
a(S'w'
I716
tp839
a(S'p1_vo'
I9
tp840
a(S'w'
I10
tp841
a(S'p2_vo'
I11
tp842
a(S'w'
I724
tp843
a(S'p1_vo'
I8
tp844
a(S'w'
I751
tp845
a(S'p2_vo'
I10
tp846
a(S'w'
I717
tp847
a(S'p1_vo'
I9
tp848
a(S'w'
I10
tp849
a(S'p2_vo'
I9
tp850
a(S'w'
I731
tp851
a(S'p1_vo'
I10
tp852
a(S'w'
I10
tp853
a(S'p2_vo'
I8
tp854
a(S'w'
I716
tp855
a(S'p1_vo'
I11
tp856
a(S'w'
I745
tp857
a(S'p2_vo'
I9
tp858
a(S'w'
I730
tp859
a(S'p1_vo'
I10
tp860
a(S'w'
I10
tp861
a(S'p2_vo'
I10
tp862
a(S'w'
I717
tp863
a(S'p1_vo'
I9
tp864
a(S'w'
I10
tp865
a(S'p2_vo'
I11
tp866
a(S'w'
I731
tp867
a(S'p1_vo'
I8
tp868
a(S'w'
I736
tp869
a(S'p2_vo'
I10
tp870
a(S'w'
I724
tp871
a(S'p1_vo'
I9
tp872
a(S'w'
I10
tp873
a(S'p2_vo'
I9
tp874
a(S'w'
I731
tp875
a(S'p1_vo'
I10
tp876
a(S'w'
I10
tp877
a(S'p2_vo'
I8
tp878
a(S'w'
I717
tp879
a(S'p1_vo'
I11
tp880
a(S'w'
I751
tp881
a(S'p2_vo'
I9
tp882
a(S'w'
I716
tp883
a(S'p1_vo'
I10
tp884
a(S'w'
I10
tp885
a(S'p2_vo'
I10
tp886
a(S'w'
I724
tp887
a(S'p1_vo'
I9
tp888
a(S'w'
I10
tp889
a(S'p2_vo'
I11
tp890
a(S'w'
I731
tp891
a(S'p1_vo'
I8
tp892
a(S'w'
I737
tp893
a(S'p2_vo'
I10
tp894
a(S'w'
I731
tp895
a(S'p1_vo'
I9
tp896
a(S'w'
I10
tp897
a(S'p2_vo'
I9
tp898
a(S'w'
I716
tp899
a(S'p1_vo'
I10
tp900
a(S'w'
I10
tp901
a(S'p2_vo'
I8
tp902
a(S'w'
I724
tp903
a(S'p1_vo'
I11
tp904
a(S'w'
I752
tp905
a(S'p2_vo'
I9
tp906
a(S'w'
I716
tp907
a(S'p1_vo'
I10
tp908
a(S'w'
I10
tp909
a(S'p2_vo'
I10
tp910
a(S'w'
I731
tp911
a(S'p1_vo'
I9
tp912
a(S'w'
I10
tp913
a(S'p2_vo'
I11
tp914
a(S'w'
I716
tp915
a(S'p1_vo'
I8
tp916
a(S'w'
I744
tp917
a(S'p2_vo'
I10
tp918
a(S'w'
I731
tp919
a(S'p1_vo'
I9
tp920
a(S'w'
I10
tp921
a(S'p2_vo'
I9
tp922
a(S'w'
I717
tp923
a(S'p1_vo'
I10
tp924
a(S'w'
I10
tp925
a(S'p2_vo'
I8
tp926
a(S'w'
I731
tp927
a(S'p1_vo'
I11
tp928
a(S'w'
I737
tp929
a(S'p2_vo'
I9
tp930
a(S'w'
I723
tp931
a(S'p1_vo'
I10
tp932
a(S'w'
I10
tp933
a(S'p2_vo'
I10
tp934
a(S'w'
I731
tp935
a(S'p1_vo'
I9
tp936
a(S'w'
I10
tp937
a(S'p2_vo'
I11
tp938
a(S'w'
I717
tp939
a(S'p1_vo'
I8
tp940
a(S'w'
I751
tp941
a(S'p2_vo'
I10
tp942
a(S'w'
I716
tp943
a(S'p1_vo'
I9
tp944
a(S'w'
I10
tp945
a(S'p2_vo'
I9
tp946
a(S'w'
I724
tp947
a(S'p1_vo'
I10
tp948
a(S'w'
I10
tp949
a(S'p2_vo'
I8
tp950
a(S'w'
I731
tp951
a(S'p1_vo'
I11
tp952
a(S'w'
I737
tp953
a(S'p2_vo'
I9
tp954
a(S'w'
I731
tp955
a(S'p1_vo'
I10
tp956
a(S'w'
I10
tp957
a(S'p2_vo'
I10
tp958
a(S'w'
I716
tp959
a(S'p1_vo'
I9
tp960
a(S'w'
I10
tp961
a(S'p2_vo'
I11
tp962
a(S'w'
I724
tp963
a(S'p1_vo'
I8
tp964
a(S'w'
I743
tp965
a(S'tr_lr'
I0
tp966
a(S'w'
I10
tp967
a(S'p1_du'
I2
tp968
a(S'p1_vo'
I2
tp969
a(S'w'
I9
tp970
a(S'p2_du'
I2
tp971
a(S'p2_vo'
I2
tp972
a(S'w'
I21990
tp973
a(S'p1_vo'
I0
tp974
a(S'w'
I12
tp975
a(S'p2_vo'
I0
tp976
a(S'w'
I1
tp977
a.