(lp1
(S'clock'
p2
I1789773
tp3
a(S'w'
I1
tp4
a(S'p1_sn'
I1
tp5
a(S'p2_sn'
I1
tp6
a(S'ch_no'
I1
tp7
a(S'ch_tr'
I1
tp8
a(S'ch_p2'
I1
tp9
a(S'ch_p1'
I1
tp10
a(S'w'
I39
tp11
a(S'p1_lh'
I1
tp12
a(S'p1_cv'
I1
tp13
a(S'w'
I29
tp14
a(S'p2_lh'
I1
tp15
a(S'p2_cv'
I1
tp16
a(S'w'
I37
tp17
a(S'w'
I1
tp18
a(S'tr_ll'
I0
tp19
a(S'w'
I4
tp20
a(S'no_lh'
I1
tp21
a(S'no_cv'
I1
tp22
a(S'w'
I632
tp23
a(S'p1_du'
I2
tp24
a(S'p1_vo'
I10
tp25
a(S'w'
I3
tp26
a(S'p1_tl'
I127
tp27
a(S'w'
I1
tp28
a(S'p1_ll'
I1
tp29
a(S'w'
I14
tp30
a(S'tr_lh'
I1
tp31
a(S'tr_lr'
I1
tp32
a(S'w'
I3
tp33
a(S'tr_tl'
I201
tp34
a(S'w'
I1
tp35
a(S'tr_ll'
I1
tp36
a(S'w'
I715
tp37
a(S'w'
I734
tp38
a(S'w'
I734
tp39
a(S'w'
I733
tp40
a(S'w'
I734
tp41
a(S'w'
I734
tp42
a(S'w'
I734
tp43
a(S'w'
I14
tp44
a(S'w'
I4
tp45
a(S'w'
I4
tp46
a(S'w'
I701
tp47
a(S'ch_no'
I1
tp48
a(S'ch_tr'
I1
tp49
a(S'ch_p2'
I1
tp50
a(S'ch_p1'
I1
tp51
a(S'w'
I8
tp52
a(S'w'
I3
tp53
a(S'w'
I39
tp54
a(S'w'
I694
tp55
a(S'w'
I9
tp56
a(S'p2_du'
I2
tp57
a(S'p2_vo'
I6
tp58
a(S'w'
I4
tp59
a(S'p2_tl'
I127
tp60
a(S'p2_ll'
I1
tp61
a(S'w'
I721
tp62
a(S'w'
I13
tp63
a(S'w'
I728
tp64
a(S'p1_du'
I0
tp65
a(S'p1_vo'
I0
tp66
a(S'w'
I12
tp67
a(S'w'
I712
tp68
a(S'p1_du'
I2
tp69
a(S'p1_vo'
I10
tp70
a(S'w'
I3
tp71
a(S'p1_tl'
I169
tp72
a(S'w'
I1
tp73
a(S'p1_ll'
I1
tp74
a(S'w'
I12
tp75
a(S'w'
I721
tp76
a(S'w'
I13
tp77
a(S'w'
I720
tp78
a(S'w'
I13
tp79
a(S'w'
I721
tp80
a(S'w'
I13
tp81
a(S'w'
I721
tp82
a(S'w'
I13
tp83
a(S'w'
I721
tp84
a(S'w'
I13
tp85
a(S'w'
I721
tp86
a(S'w'
I13
tp87
a(S'w'
I720
tp88
a(S'w'
I13
tp89
a(S'w'
I721
tp90
a(S'w'
I19
tp91
a(S'p2_du'
I0
tp92
a(S'p2_vo'
I0
tp93
a(S'w'
I715
tp94
a(S'w'
I9
tp95
a(S'p2_du'
I2
tp96
a(S'p2_vo'
I6
tp97
a(S'w'
I4
tp98
a(S'p2_tl'
I169
tp99
a(S'p2_ll'
I1
tp100
a(S'w'
I721
tp101
a(S'w'
I13
tp102
a(S'w'
I728
tp103
a(S'p1_du'
I0
tp104
a(S'p1_vo'
I0
tp105
a(S'w'
I12
tp106
a(S'w'
I711
tp107
a(S'p1_du'
I2
tp108
a(S'p1_vo'
I10
tp109
a(S'w'
I3
tp110
a(S'p1_tl'
I134
tp111
a(S'w'
I1
tp112
a(S'p1_ll'
I1
tp113
a(S'w'
I12
tp114
a(S'w'
I721
tp115
a(S'w'
I13
tp116
a(S'w'
I721
tp117
a(S'w'
I13
tp118
a(S'w'
I721
tp119
a(S'w'
I13
tp120
a(S'w'
I720
tp121
a(S'w'
I13
tp122
a(S'w'
I721
tp123
a(S'w'
I13
tp124
a(S'w'
I721
tp125
a(S'w'
I13
tp126
a(S'w'
I721
tp127
a(S'w'
I13
tp128
a(S'w'
I721
tp129
a(S'w'
I19
tp130
a(S'p2_du'
I0
tp131
a(S'p2_vo'
I0
tp132
a(S'w'
I714
tp133
a(S'w'
I9
tp134
a(S'p2_du'
I2
tp135
a(S'p2_vo'
I6
tp136
a(S'w'
I4
tp137
a(S'p2_tl'
I134
tp138
a(S'p2_ll'
I1
tp139
a(S'w'
I721
tp140
a(S'w'
I13
tp141
a(S'w'
I728
tp142
a(S'p1_du'
I0
tp143
a(S'p1_vo'
I0
tp144
a(S'w'
I12
tp145
a(S'w'
I20
tp146
a(S'tr_lh'
I0
tp147
a(S'tr_lr'
I0
tp148
a(S'w'
I1
tp149
a(S'tr_tl'
I0
tp150
a(S'tr_ll'
I0
tp151
a(S'w'
I691
tp152
a(S'p1_du'
I2
tp153
a(S'p1_vo'
I10
tp154
a(S'w'
I3
tp155
a(S'p1_tl'
I127
tp156
a(S'w'
I1
tp157
a(S'p1_ll'
I1
tp158
a(S'w'
I12
tp159
a(S'w'
I8
tp160
a(S'tr_lh'
I1
tp161
a(S'tr_lr'
I1
tp162
a(S'w'
I3
tp163
a(S'tr_tl'
I190
tp164
a(S'w'
I1
tp165
a(S'tr_ll'
I1
tp166
a(S'w'
I709
tp167
a(S'w'
I13
tp168
a(S'w'
I720
tp169
a(S'w'
I13
tp170
a(S'w'
I721
tp171
a(S'w'
I13
tp172
a(S'w'
I721
tp173
a(S'w'
I13
tp174
a(S'w'
I721
tp175
a(S'w'
I13
tp176
a(S'w'
I721
tp177
a(S'w'
I13
tp178
a(S'w'
I720
tp179
a(S'w'
I13
tp180
a(S'w'
I721
tp181
a(S'w'
I19
tp182
a(S'p2_du'
I0
tp183
a(S'p2_vo'
I0
tp184
a(S'w'
I715
tp185
a(S'w'
I9
tp186
a(S'p2_du'
I2
tp187
a(S'p2_vo'
I6
tp188
a(S'w'
I4
tp189
a(S'p2_tl'
I127
tp190
a(S'p2_ll'
I1
tp191
a(S'w'
I721
tp192
a(S'w'
I13
tp193
a(S'w'
I728
tp194
a(S'p1_du'
I0
tp195
a(S'p1_vo'
I0
tp196
a(S'w'
I12
tp197
a(S'w'
I711
tp198
a(S'p1_du'
I2
tp199
a(S'p1_vo'
I10
tp200
a(S'w'
I3
tp201
a(S'p1_tl'
I169
tp202
a(S'w'
I1
tp203
a(S'p1_ll'
I1
tp204
a(S'w'
I12
tp205
a(S'w'
I721
tp206
a(S'w'
I13
tp207
a(S'w'
I721
tp208
a(S'w'
I13
tp209
a(S'w'
I721
tp210
a(S'w'
I13
tp211
a(S'w'
I720
tp212
a(S'w'
I13
tp213
a(S'w'
I721
tp214
a(S'w'
I13
tp215
a(S'w'
I721
tp216
a(S'w'
I13
tp217
a(S'w'
I721
tp218
a(S'w'
I13
tp219
a(S'w'
I721
tp220
a(S'w'
I19
tp221
a(S'p2_du'
I0
tp222
a(S'p2_vo'
I0
tp223
a(S'w'
I714
tp224
a(S'w'
I9
tp225
a(S'p2_du'
I2
tp226
a(S'p2_vo'
I6
tp227
a(S'w'
I4
tp228
a(S'p2_tl'
I169
tp229
a(S'p2_ll'
I1
tp230
a(S'w'
I721
tp231
a(S'w'
I13
tp232
a(S'w'
I728
tp233
a(S'p1_du'
I0
tp234
a(S'p1_vo'
I0
tp235
a(S'w'
I12
tp236
a(S'w'
I712
tp237
a(S'p1_du'
I2
tp238
a(S'p1_vo'
I10
tp239
a(S'w'
I3
tp240
a(S'p1_tl'
I134
tp241
a(S'w'
I1
tp242
a(S'p1_ll'
I1
tp243
a(S'w'
I12
tp244
a(S'w'
I721
tp245
a(S'w'
I13
tp246
a(S'w'
I720
tp247
a(S'w'
I13
tp248
a(S'w'
I721
tp249
a(S'w'
I13
tp250
a(S'w'
I721
tp251
a(S'w'
I13
tp252
a(S'w'
I721
tp253
a(S'w'
I13
tp254
a(S'w'
I721
tp255
a(S'w'
I13
tp256
a(S'w'
I720
tp257
a(S'w'
I13
tp258
a(S'w'
I721
tp259
a(S'w'
I19
tp260
a(S'p2_du'
I0
tp261
a(S'p2_vo'
I0
tp262
a(S'w'
I715
tp263
a(S'w'
I9
tp264
a(S'p2_du'
I2
tp265
a(S'p2_vo'
I6
tp266
a(S'w'
I4
tp267
a(S'p2_tl'
I134
tp268
a(S'p2_ll'
I1
tp269
a(S'w'
I721
tp270
a(S'w'
I13
tp271
a(S'w'
I728
tp272
a(S'p1_du'
I0
tp273
a(S'p1_vo'
I0
tp274
a(S'w'
I12
tp275
a(S'w'
I711
tp276
a(S'p1_du'
I2
tp277
a(S'p1_vo'
I10
tp278
a(S'w'
I3
tp279
a(S'p1_tl'
I127
tp280
a(S'w'
I1
tp281
a(S'p1_ll'
I1
tp282
a(S'w'
I12
tp283
a(S'w'
I721
tp284
a(S'w'
I13
tp285
a(S'w'
I721
tp286
a(S'w'
I13
tp287
a(S'w'
I721
tp288
a(S'w'
I13
tp289
a(S'w'
I720
tp290
a(S'w'
I13
tp291
a(S'w'
I721
tp292
a(S'w'
I13
tp293
a(S'w'
I721
tp294
a(S'w'
I13
tp295
a(S'w'
I721
tp296
a(S'w'
I13
tp297
a(S'w'
I721
tp298
a(S'w'
I19
tp299
a(S'p2_du'
I0
tp300
a(S'p2_vo'
I0
tp301
a(S'w'
I714
tp302
a(S'w'
I9
tp303
a(S'p2_du'
I2
tp304
a(S'p2_vo'
I6
tp305
a(S'w'
I4
tp306
a(S'p2_tl'
I127
tp307
a(S'p2_ll'
I1
tp308
a(S'w'
I721
tp309
a(S'w'
I13
tp310
a(S'w'
I728
tp311
a(S'p1_du'
I0
tp312
a(S'p1_vo'
I0
tp313
a(S'w'
I12
tp314
a(S'w'
I712
tp315
a(S'p1_du'
I2
tp316
a(S'p1_vo'
I10
tp317
a(S'w'
I3
tp318
a(S'p1_tl'
I169
tp319
a(S'w'
I1
tp320
a(S'p1_ll'
I1
tp321
a(S'w'
I12
tp322
a(S'w'
I721
tp323
a(S'w'
I13
tp324
a(S'w'
I720
tp325
a(S'w'
I13
tp326
a(S'w'
I721
tp327
a(S'w'
I13
tp328
a(S'w'
I721
tp329
a(S'w'
I13
tp330
a(S'w'
I721
tp331
a(S'w'
I13
tp332
a(S'w'
I721
tp333
a(S'w'
I13
tp334
a(S'w'
I720
tp335
a(S'w'
I13
tp336
a(S'w'
I721
tp337
a(S'w'
I19
tp338
a(S'p2_du'
I0
tp339
a(S'p2_vo'
I0
tp340
a(S'w'
I715
tp341
a(S'w'
I9
tp342
a(S'p2_du'
I2
tp343
a(S'p2_vo'
I6
tp344
a(S'w'
I4
tp345
a(S'p2_tl'
I169
tp346
a(S'p2_ll'
I1
tp347
a(S'w'
I721
tp348
a(S'w'
I13
tp349
a(S'w'
I748
tp350
a(S'p1_du'
I0
tp351
a(S'p1_vo'
I0
tp352
a(S'w'
I12
tp353
a(S'w'
I22
tp354
a(S'tr_lh'
I0
tp355
a(S'tr_lr'
I0
tp356
a(S'tr_tl'
I0
tp357
a(S'tr_ll'
I0
tp358
a(S'w'
I669
tp359
a(S'p1_du'
I2
tp360
a(S'p1_vo'
I10
tp361
a(S'w'
I3
tp362
a(S'p1_tl'
I127
tp363
a(S'w'
I1
tp364
a(S'p1_ll'
I1
tp365
a(S'w'
I12
tp366
a(S'w'
I8
tp367
a(S'tr_lh'
I1
tp368
a(S'tr_lr'
I1
tp369
a(S'w'
I3
tp370
a(S'tr_tl'
I169
tp371
a(S'w'
I1
tp372
a(S'tr_ll'
I1
tp373
a(S'w'
I709
tp374
a(S'w'
I13
tp375
a(S'w'
I721
tp376
a(S'w'
I13
tp377
a(S'w'
I721
tp378
a(S'w'
I13
tp379
a(S'w'
I720
tp380
a(S'w'
I13
tp381
a(S'w'
I721
tp382
a(S'w'
I13
tp383
a(S'w'
I721
tp384
a(S'w'
I13
tp385
a(S'w'
I721
tp386
a(S'w'
I13
tp387
a(S'w'
I721
tp388
a(S'w'
I39
tp389
a(S'p2_du'
I0
tp390
a(S'p2_vo'
I0
tp391
a(S'w'
I694
tp392
a(S'w'
I9
tp393
a(S'p2_du'
I2
tp394
a(S'p2_vo'
I6
tp395
a(S'w'
I4
tp396
a(S'p2_tl'
I127
tp397
a(S'p2_ll'
I1
tp398
a(S'w'
I721
tp399
a(S'w'
I13
tp400
a(S'w'
I728
tp401
a(S'p1_du'
I0
tp402
a(S'p1_vo'
I0
tp403
a(S'w'
I12
tp404
a(S'w'
I712
tp405
a(S'p1_du'
I2
tp406
a(S'p1_vo'
I10
tp407
a(S'w'
I3
tp408
a(S'p1_tl'
I169
tp409
a(S'w'
I1
tp410
a(S'p1_ll'
I1
tp411
a(S'w'
I12
tp412
a(S'w'
I721
tp413
a(S'w'
I13
tp414
a(S'w'
I720
tp415
a(S'w'
I13
tp416
a(S'w'
I721
tp417
a(S'w'
I13
tp418
a(S'w'
I721
tp419
a(S'w'
I13
tp420
a(S'w'
I721
tp421
a(S'w'
I13
tp422
a(S'w'
I721
tp423
a(S'w'
I13
tp424
a(S'w'
I720
tp425
a(S'w'
I13
tp426
a(S'w'
I721
tp427
a(S'w'
I19
tp428
a(S'p2_du'
I0
tp429
a(S'p2_vo'
I0
tp430
a(S'w'
I715
tp431
a(S'w'
I9
tp432
a(S'p2_du'
I2
tp433
a(S'p2_vo'
I6
tp434
a(S'w'
I4
tp435
a(S'p2_tl'
I169
tp436
a(S'p2_ll'
I1
tp437
a(S'w'
I721
tp438
a(S'w'
I13
tp439
a(S'w'
I728
tp440
a(S'p1_du'
I0
tp441
a(S'p1_vo'
I0
tp442
a(S'w'
I12
tp443
a(S'w'
I711
tp444
a(S'p1_du'
I2
tp445
a(S'p1_vo'
I10
tp446
a(S'w'
I3
tp447
a(S'p1_tl'
I134
tp448
a(S'w'
I1
tp449
a(S'p1_ll'
I1
tp450
a(S'w'
I12
tp451
a(S'w'
I721
tp452
a(S'w'
I13
tp453
a(S'w'
I721
tp454
a(S'w'
I13
tp455
a(S'w'
I721
tp456
a(S'w'
I13
tp457
a(S'w'
I720
tp458
a(S'w'
I13
tp459
a(S'w'
I721
tp460
a(S'w'
I13
tp461
a(S'w'
I721
tp462
a(S'w'
I13
tp463
a(S'w'
I721
tp464
a(S'w'
I13
tp465
a(S'w'
I721
tp466
a(S'w'
I19
tp467
a(S'p2_du'
I0
tp468
a(S'p2_vo'
I0
tp469
a(S'w'
I714
tp470
a(S'w'
I9
tp471
a(S'p2_du'
I2
tp472
a(S'p2_vo'
I6
tp473
a(S'w'
I4
tp474
a(S'p2_tl'
I134
tp475
a(S'p2_ll'
I1
tp476
a(S'w'
I721
tp477
a(S'w'
I13
tp478
a(S'w'
I728
tp479
a(S'p1_du'
I0
tp480
a(S'p1_vo'
I0
tp481
a(S'w'
I12
tp482
a(S'w'
I20
tp483
a(S'tr_lh'
I0
tp484
a(S'tr_lr'
I0
tp485
a(S'w'
I1
tp486
a(S'tr_tl'
I0
tp487
a(S'tr_ll'
I0
tp488
a(S'w'
I691
tp489
a(S'p1_du'
I2
tp490
a(S'p1_vo'
I10
tp491
a(S'w'
I3
tp492
a(S'p1_tl'
I127
tp493
a(S'w'
I1
tp494
a(S'p1_ll'
I1
tp495
a(S'w'
I12
tp496
a(S'w'
I8
tp497
a(S'tr_lh'
I1
tp498
a(S'tr_lr'
I1
tp499
a(S'w'
I3
tp500
a(S'tr_tl'
I190
tp501
a(S'w'
I1
tp502
a(S'tr_ll'
I1
tp503
a(S'w'
I709
tp504
a(S'w'
I13
tp505
a(S'w'
I720
tp506
a(S'w'
I13
tp507
a(S'w'
I721
tp508
a(S'w'
I13
tp509
a(S'w'
I721
tp510
a(S'w'
I13
tp511
a(S'w'
I721
tp512
a(S'w'
I13
tp513
a(S'w'
I721
tp514
a(S'w'
I13
tp515
a(S'w'
I720
tp516
a(S'w'
I13
tp517
a(S'w'
I721
tp518
a(S'w'
I19
tp519
a(S'p2_du'
I0
tp520
a(S'p2_vo'
I0
tp521
a(S'w'
I715
tp522
a(S'w'
I9
tp523
a(S'p2_du'
I2
tp524
a(S'p2_vo'
I6
tp525
a(S'w'
I4
tp526
a(S'p2_tl'
I127
tp527
a(S'p2_ll'
I1
tp528
a(S'w'
I721
tp529
a(S'w'
I13
tp530
a(S'w'
I728
tp531
a(S'p1_du'
I0
tp532
a(S'p1_vo'
I0
tp533
a(S'w'
I12
tp534
a(S'w'
I711
tp535
a(S'p1_du'
I2
tp536
a(S'p1_vo'
I10
tp537
a(S'w'
I3
tp538
a(S'p1_tl'
I169
tp539
a(S'w'
I1
tp540
a(S'p1_ll'
I1
tp541
a(S'w'
I12
tp542
a(S'w'
I721
tp543
a(S'w'
I13
tp544
a(S'w'
I721
tp545
a(S'w'
I13
tp546
a(S'w'
I721
tp547
a(S'w'
I13
tp548
a(S'w'
I720
tp549
a(S'w'
I13
tp550
a(S'w'
I721
tp551
a(S'w'
I13
tp552
a(S'w'
I721
tp553
a(S'w'
I13
tp554
a(S'w'
I721
tp555
a(S'w'
I13
tp556
a(S'w'
I721
tp557
a(S'w'
I19
tp558
a(S'p2_du'
I0
tp559
a(S'p2_vo'
I0
tp560
a(S'w'
I714
tp561
a(S'w'
I9
tp562
a(S'p2_du'
I2
tp563
a(S'p2_vo'
I6
tp564
a(S'w'
I4
tp565
a(S'p2_tl'
I169
tp566
a(S'p2_ll'
I1
tp567
a(S'w'
I721
tp568
a(S'w'
I13
tp569
a(S'w'
I728
tp570
a(S'p1_du'
I0
tp571
a(S'p1_vo'
I0
tp572
a(S'w'
I12
tp573
a(S'w'
I712
tp574
a(S'p1_du'
I2
tp575
a(S'p1_vo'
I10
tp576
a(S'w'
I3
tp577
a(S'p1_tl'
I134
tp578
a(S'w'
I1
tp579
a(S'p1_ll'
I1
tp580
a(S'w'
I12
tp581
a(S'w'
I721
tp582
a(S'w'
I13
tp583
a(S'w'
I720
tp584
a(S'w'
I13
tp585
a(S'w'
I721
tp586
a(S'w'
I13
tp587
a(S'w'
I721
tp588
a(S'w'
I13
tp589
a(S'w'
I721
tp590
a(S'w'
I13
tp591
a(S'w'
I721
tp592
a(S'w'
I13
tp593
a(S'w'
I720
tp594
a(S'w'
I13
tp595
a(S'w'
I721
tp596
a(S'w'
I19
tp597
a(S'p2_du'
I0
tp598
a(S'p2_vo'
I0
tp599
a(S'w'
I715
tp600
a(S'w'
I9
tp601
a(S'p2_du'
I2
tp602
a(S'p2_vo'
I6
tp603
a(S'w'
I4
tp604
a(S'p2_tl'
I134
tp605
a(S'p2_ll'
I1
tp606
a(S'w'
I721
tp607
a(S'w'
I13
tp608
a(S'w'
I728
tp609
a(S'p1_du'
I0
tp610
a(S'p1_vo'
I0
tp611
a(S'w'
I12
tp612
a(S'w'
I711
tp613
a(S'p1_du'
I2
tp614
a(S'p1_vo'
I10
tp615
a(S'w'
I3
tp616
a(S'p1_tl'
I127
tp617
a(S'w'
I1
tp618
a(S'p1_ll'
I1
tp619
a(S'w'
I12
tp620
a(S'w'
I721
tp621
a(S'w'
I13
tp622
a(S'w'
I721
tp623
a(S'w'
I13
tp624
a(S'w'
I721
tp625
a(S'w'
I13
tp626
a(S'w'
I720
tp627
a(S'w'
I13
tp628
a(S'w'
I721
tp629
a(S'w'
I13
tp630
a(S'w'
I721
tp631
a(S'w'
I13
tp632
a(S'w'
I721
tp633
a(S'w'
I13
tp634
a(S'w'
I721
tp635
a(S'w'
I19
tp636
a(S'p2_du'
I0
tp637
a(S'p2_vo'
I0
tp638
a(S'w'
I714
tp639
a(S'w'
I9
tp640
a(S'p2_du'
I2
tp641
a(S'p2_vo'
I6
tp642
a(S'w'
I4
tp643
a(S'p2_tl'
I127
tp644
a(S'p2_ll'
I1
tp645
a(S'w'
I721
tp646
a(S'w'
I13
tp647
a(S'w'
I728
tp648
a(S'p1_du'
I0
tp649
a(S'p1_vo'
I0
tp650
a(S'w'
I12
tp651
a(S'w'
I712
tp652
a(S'p1_du'
I2
tp653
a(S'p1_vo'
I10
tp654
a(S'w'
I3
tp655
a(S'p1_tl'
I169
tp656
a(S'w'
I1
tp657
a(S'p1_ll'
I1
tp658
a(S'w'
I12
tp659
a(S'w'
I721
tp660
a(S'w'
I13
tp661
a(S'w'
I720
tp662
a(S'w'
I13
tp663
a(S'w'
I721
tp664
a(S'w'
I13
tp665
a(S'w'
I721
tp666
a(S'w'
I13
tp667
a(S'w'
I721
tp668
a(S'w'
I13
tp669
a(S'w'
I721
tp670
a(S'w'
I13
tp671
a(S'w'
I720
tp672
a(S'w'
I13
tp673
a(S'w'
I721
tp674
a(S'w'
I19
tp675
a(S'p2_du'
I0
tp676
a(S'p2_vo'
I0
tp677
a(S'w'
I715
tp678
a(S'w'
I9
tp679
a(S'p2_du'
I2
tp680
a(S'p2_vo'
I6
tp681
a(S'w'
I4
tp682
a(S'p2_tl'
I169
tp683
a(S'p2_ll'
I1
tp684
a(S'w'
I721
tp685
a(S'w'
I13
tp686
a(S'w'
I748
tp687
a(S'p1_du'
I0
tp688
a(S'p1_vo'
I0
tp689
a(S'w'
I12
tp690
a(S'w'
I31
tp691
a(S'tr_lh'
I0
tp692
a(S'tr_lr'
I0
tp693
a(S'tr_tl'
I0
tp694
a(S'tr_ll'
I0
tp695
a(S'w'
I660
tp696
a(S'p1_du'
I2
tp697
a(S'p1_vo'
I10
tp698
a(S'w'
I3
tp699
a(S'p1_tl'
I127
tp700
a(S'w'
I1
tp701
a(S'p1_ll'
I1
tp702
a(S'w'
I12
tp703
a(S'w'
I8
tp704
a(S'tr_lh'
I1
tp705
a(S'tr_lr'
I1
tp706
a(S'w'
I3
tp707
a(S'tr_tl'
I201
tp708
a(S'w'
I1
tp709
a(S'tr_ll'
I1
tp710
a(S'w'
I709
tp711
a(S'w'
I13
tp712
a(S'w'
I721
tp713
a(S'w'
I13
tp714
a(S'w'
I721
tp715
a(S'w'
I13
tp716
a(S'w'
I720
tp717
a(S'w'
I13
tp718
a(S'w'
I721
tp719
a(S'w'
I13
tp720
a(S'w'
I721
tp721
a(S'w'
I13
tp722
a(S'w'
I721
tp723
a(S'w'
I13
tp724
a(S'w'
I8
tp725
a.