(lp1
(S'clock'
p2
I1789773
tp3
a(S'w'
I1
tp4
a(S'p1_sn'
I1
tp5
a(S'p2_sn'
I1
tp6
a(S'ch_no'
I1
tp7
a(S'ch_tr'
I1
tp8
a(S'ch_p2'
I1
tp9
a(S'ch_p1'
I1
tp10
a(S'w'
I33
tp11
a(S'p1_lh'
I1
tp12
a(S'p1_cv'
I1
tp13
a(S'w'
I33
tp14
a(S'p2_lh'
I1
tp15
a(S'p2_cv'
I1
tp16
a(S'w'
I36
tp17
a(S'w'
I1
tp18
a(S'tr_ll'
I0
tp19
a(S'w'
I4
tp20
a(S'no_lh'
I1
tp21
a(S'no_cv'
I1
tp22
a(S'w'
I635
tp23
a(S'p1_vo'
I15
tp24
a(S'w'
I3
tp25
a(S'p1_tl'
I134
tp26
a(S'w'
I1
tp27
a(S'p1_ll'
I1
tp28
a(S'w'
I9
tp29
a(S'p2_vo'
I12
tp30
a(S'w'
I3
tp31
a(S'p2_tl'
I226
tp32
a(S'w'
I1
tp33
a(S'p2_ll'
I1
tp34
a(S'w'
I8
tp35
a(S'tr_lr'
I32
tp36
a(S'w'
I3
tp37
a(S'tr_tl'
I83
tp38
a(S'tr_ll'
I1
tp39
a(S'tr_th'
I1
tp40
a(S'w'
I709
tp41
a(S'w'
I13
tp42
a(S'w'
I721
tp43
a(S'w'
I13
tp44
a(S'w'
I721
tp45
a(S'w'
I13
tp46
a(S'w'
I720
tp47
a(S'w'
I13
tp48
a(S'w'
I721
tp49
a(S'w'
I13
tp50
a(S'w'
I721
tp51
a(S'w'
I13
tp52
a(S'w'
I721
tp53
a(S'w'
I13
tp54
a(S'w'
I721
tp55
a(S'w'
I13
tp56
a(S'w'
I725
tp57
a(S'p1_vo'
I0
tp58
a(S'w'
I17
tp59
a(S'p2_vo'
I0
tp60
a(S'w'
I2940
tp61
a(S'tr_lr'
I0
tp62
a(S'w'
I1
tp63
a(S'tr_tl'
I0
tp64
a(S'tr_ll'
I0
tp65
a(S'tr_th'
I0
tp66
a(S'w'
I4
tp67
a(S'tr_lr'
I32
tp68
a(S'w'
I4
tp69
a(S'tr_tl'
I157
tp70
a(S'w'
I1
tp71
a(S'tr_ll'
I1
tp72
a(S'w'
I709
tp73
a(S'tr_tl'
I172
tp74
a(S'w'
I734
tp75
a(S'tr_tl'
I187
tp76
a(S'w'
I9
tp77
a(S'tr_tl'
I202
tp78
a(S'w'
I725
tp79
a(S'tr_tl'
I217
tp80
a(S'w'
I734
tp81
a(S'tr_tl'
I232
tp82
a(S'w'
I9
tp83
a(S'tr_tl'
I247
tp84
a(S'w'
I725
tp85
a(S'tr_tl'
I6
tp86
a(S'w'
I1
tp87
a(S'tr_ll'
I1
tp88
a(S'tr_th'
I1
tp89
a(S'w'
I732
tp90
a(S'tr_tl'
I21
tp91
a(S'w'
I15
tp92
a(S'tr_lr'
I0
tp93
a(S'tr_tl'
I0
tp94
a(S'w'
I1
tp95
a(S'tr_ll'
I0
tp96
a(S'tr_th'
I0
tp97
a(S'w'
I714
tp98
a(S'tr_lr'
I32
tp99
a(S'w'
I4
tp100
a(S'tr_tl'
I184
tp101
a(S'w'
I1
tp102
a(S'tr_ll'
I1
tp103
a(S'w'
I733
tp104
a(S'tr_tl'
I199
tp105
a(S'w'
I734
tp106
a(S'tr_tl'
I214
tp107
a(S'w'
I734
tp108
a(S'tr_tl'
I229
tp109
a(S'w'
I733
tp110
a(S'tr_tl'
I244
tp111
a(S'w'
I734
tp112
a(S'tr_tl'
I3
tp113
a(S'w'
I1
tp114
a(S'tr_ll'
I1
tp115
a(S'tr_th'
I1
tp116
a(S'w'
I733
tp117
a(S'tr_tl'
I18
tp118
a(S'w'
I734
tp119
a(S'tr_tl'
I33
tp120
a(S'w'
I733
tp121
a(S'tr_tl'
I48
tp122
a(S'w'
I781
tp123
a(S'tr_lr'
I0
tp124
a(S'tr_tl'
I0
tp125
a(S'tr_ll'
I0
tp126
a(S'tr_th'
I0
tp127
a(S'w'
I672
tp128
a(S'p1_vo'
I15
tp129
a(S'w'
I3
tp130
a(S'p1_tl'
I147
tp131
a(S'w'
I1
tp132
a(S'p1_ll'
I1
tp133
a(S'p1_th'
I1
tp134
a(S'w'
I9
tp135
a(S'p2_vo'
I12
tp136
a(S'w'
I3
tp137
a(S'p2_tl'
I59
tp138
a(S'w'
I1
tp139
a(S'p2_ll'
I1
tp140
a(S'p2_th'
I2
tp141
a(S'w'
I7
tp142
a(S'tr_lh'
I1
tp143
a(S'tr_lr'
I1
tp144
a(S'w'
I4
tp145
a(S'tr_tl'
I60
tp146
a(S'tr_ll'
I1
tp147
a(S'w'
I709
tp148
a(S'w'
I13
tp149
a(S'w'
I721
tp150
a(S'w'
I13
tp151
a(S'w'
I720
tp152
a(S'w'
I13
tp153
a(S'w'
I721
tp154
a(S'w'
I13
tp155
a(S'w'
I721
tp156
a(S'w'
I13
tp157
a(S'w'
I721
tp158
a(S'w'
I13
tp159
a(S'w'
I721
tp160
a(S'w'
I13
tp161
a(S'w'
I720
tp162
a(S'w'
I13
tp163
a(S'w'
I721
tp164
a(S'w'
I13
tp165
a(S'w'
I721
tp166
a(S'w'
I13
tp167
a(S'w'
I721
tp168
a(S'w'
I13
tp169
a(S'w'
I721
tp170
a(S'w'
I13
tp171
a(S'w'
I720
tp172
a(S'w'
I13
tp173
a(S'w'
I721
tp174
a(S'w'
I13
tp175
a(S'w'
I721
tp176
a(S'w'
I13
tp177
a(S'w'
I721
tp178
a(S'w'
I13
tp179
a(S'w'
I721
tp180
a(S'w'
I13
tp181
a(S'w'
I720
tp182
a(S'w'
I13
tp183
a(S'w'
I730
tp184
a(S'p1_vo'
I0
tp185
a(S'w'
I21
tp186
a(S'p2_vo'
I0
tp187
a(S'w'
I21
tp188
a(S'tr_lh'
I0
tp189
a(S'tr_lr'
I0
tp190
a(S'w'
I1
tp191
a(S'tr_tl'
I0
tp192
a(S'tr_ll'
I0
tp193
a(S'w'
I679
tp194
a(S'p1_vo'
I15
tp195
a(S'w'
I3
tp196
a(S'p1_tl'
I125
tp197
a(S'w'
I1
tp198
a(S'p1_ll'
I1
tp199
a(S'w'
I9
tp200
a(S'p2_vo'
I12
tp201
a(S'w'
I3
tp202
a(S'p2_tl'
I26
tp203
a(S'w'
I1
tp204
a(S'p2_ll'
I1
tp205
a(S'w'
I7
tp206
a(S'tr_lh'
I1
tp207
a(S'tr_lr'
I1
tp208
a(S'w'
I4
tp209
a(S'tr_tl'
I56
tp210
a(S'tr_ll'
I1
tp211
a(S'w'
I709
tp212
a(S'w'
I13
tp213
a(S'w'
I720
tp214
a(S'w'
I13
tp215
a(S'w'
I721
tp216
a(S'w'
I13
tp217
a(S'w'
I721
tp218
a(S'w'
I13
tp219
a(S'w'
I721
tp220
a(S'w'
I13
tp221
a(S'w'
I721
tp222
a(S'w'
I13
tp223
a(S'w'
I720
tp224
a(S'w'
I13
tp225
a(S'w'
I721
tp226
a(S'w'
I13
tp227
a(S'w'
I721
tp228
a(S'w'
I13
tp229
a(S'w'
I721
tp230
a(S'w'
I13
tp231
a(S'w'
I721
tp232
a(S'w'
I13
tp233
a(S'w'
I720
tp234
a(S'w'
I13
tp235
a(S'w'
I721
tp236
a(S'w'
I13
tp237
a(S'w'
I721
tp238
a(S'w'
I13
tp239
a(S'w'
I721
tp240
a(S'w'
I13
tp241
a(S'w'
I721
tp242
a(S'w'
I13
tp243
a(S'w'
I720
tp244
a(S'w'
I13
tp245
a(S'w'
I721
tp246
a(S'w'
I13
tp247
a(S'w'
I1460
tp248
a(S'p1_tl'
I127
tp249
a(S'w'
I16
tp250
a(S'p2_tl'
I28
tp251
a(S'w'
I16
tp252
a(S'tr_tl'
I58
tp253
a(S'w'
I701
tp254
a(S'p1_tl'
I125
tp255
a(S'w'
I17
tp256
a(S'p2_tl'
I26
tp257
a(S'w'
I15
tp258
a(S'tr_tl'
I56
tp259
a(S'w'
I702
tp260
a(S'p1_tl'
I123
tp261
a(S'w'
I17
tp262
a(S'p2_tl'
I24
tp263
a(S'w'
I16
tp264
a(S'tr_tl'
I54
tp265
a(S'w'
I700
tp266
a(S'p1_tl'
I125
tp267
a(S'w'
I16
tp268
a(S'p2_tl'
I26
tp269
a(S'w'
I16
tp270
a(S'tr_tl'
I56
tp271
a(S'w'
I703
tp272
a(S'p1_tl'
I127
tp273
a(S'w'
I16
tp274
a(S'p2_tl'
I28
tp275
a(S'w'
I16
tp276
a(S'tr_tl'
I58
tp277
a(S'w'
I701
tp278
a(S'p1_tl'
I125
tp279
a(S'w'
I17
tp280
a(S'p2_tl'
I26
tp281
a(S'w'
I15
tp282
a(S'tr_tl'
I56
tp283
a(S'w'
I702
tp284
a(S'p1_tl'
I123
tp285
a(S'w'
I17
tp286
a(S'p2_tl'
I24
tp287
a(S'w'
I16
tp288
a(S'tr_tl'
I54
tp289
a(S'w'
I700
tp290
a(S'p1_tl'
I125
tp291
a(S'w'
I16
tp292
a(S'p2_tl'
I26
tp293
a(S'w'
I16
tp294
a(S'tr_tl'
I56
tp295
a(S'w'
I703
tp296
a(S'p1_tl'
I127
tp297
a(S'w'
I16
tp298
a(S'p2_tl'
I28
tp299
a(S'w'
I16
tp300
a(S'tr_tl'
I58
tp301
a(S'w'
I702
tp302
a(S'p1_tl'
I125
tp303
a(S'w'
I16
tp304
a(S'p2_tl'
I26
tp305
a(S'w'
I15
tp306
a(S'tr_tl'
I56
tp307
a(S'w'
I703
tp308
a(S'p1_tl'
I123
tp309
a(S'w'
I17
tp310
a(S'p2_tl'
I24
tp311
a(S'w'
I16
tp312
a(S'tr_tl'
I54
tp313
a(S'w'
I699
tp314
a(S'p1_tl'
I125
tp315
a(S'w'
I16
tp316
a(S'p2_tl'
I26
tp317
a(S'w'
I16
tp318
a(S'tr_tl'
I56
tp319
a(S'w'
I703
tp320
a(S'p1_tl'
I127
tp321
a(S'w'
I16
tp322
a(S'p2_tl'
I28
tp323
a(S'w'
I16
tp324
a(S'tr_tl'
I58
tp325
a(S'w'
I702
tp326
a(S'p1_tl'
I125
tp327
a(S'w'
I16
tp328
a(S'p2_tl'
I26
tp329
a(S'w'
I15
tp330
a(S'tr_tl'
I56
tp331
a(S'w'
I703
tp332
a(S'p1_tl'
I123
tp333
a(S'w'
I17
tp334
a(S'p2_tl'
I24
tp335
a(S'w'
I16
tp336
a(S'tr_tl'
I54
tp337
a(S'w'
I700
tp338
a(S'p1_tl'
I125
tp339
a(S'w'
I16
tp340
a(S'p2_tl'
I26
tp341
a(S'w'
I16
tp342
a(S'tr_tl'
I56
tp343
a(S'w'
I702
tp344
a(S'p1_tl'
I127
tp345
a(S'w'
I16
tp346
a(S'p2_tl'
I28
tp347
a(S'w'
I16
tp348
a(S'tr_tl'
I58
tp349
a(S'w'
I701
tp350
a(S'p1_tl'
I125
tp351
a(S'w'
I17
tp352
a(S'p2_tl'
I26
tp353
a(S'w'
I15
tp354
a(S'tr_tl'
I56
tp355
a(S'w'
I703
tp356
a(S'p1_tl'
I123
tp357
a(S'w'
I17
tp358
a(S'p2_tl'
I24
tp359
a(S'w'
I16
tp360
a(S'tr_tl'
I54
tp361
a(S'w'
I695
tp362
a(S'p1_vo'
I0
tp363
a(S'w'
I10
tp364
a(S'p2_vo'
I0
tp365
a(S'w'
I11
tp366
a(S'tr_lh'
I0
tp367
a(S'tr_lr'
I0
tp368
a(S'tr_tl'
I0
tp369
a(S'w'
I1
tp370
a(S'tr_ll'
I0
tp371
a(S'w'
I714
tp372
a(S'tr_ll'
I0
tp373
a(S'w'
I733
tp374
a(S'tr_ll'
I0
tp375
a(S'w'
I734
tp376
a(S'tr_ll'
I0
tp377
a(S'w'
I734
tp378
a(S'tr_ll'
I0
tp379
a(S'w'
I734
tp380
a(S'tr_ll'
I0
tp381
a(S'w'
I734
tp382
a(S'tr_ll'
I0
tp383
a(S'w'
I544
tp384
a.