(lp1
(S'clock'
p2
I1789772
tp3
a(S'ch_no'
I1
tp4
a(S'ch_tr'
I1
tp5
a(S'ch_p2'
I1
tp6
a(S'ch_p1'
I1
tp7
a(S'p1_du'
I1
tp8
a(S'p1_lh'
I1
tp9
a(S'p1_cv'
I1
tp10
a(S'p2_du'
I1
tp11
a(S'p2_lh'
I1
tp12
a(S'p2_cv'
I1
tp13
a(S'tr_lr'
I112
tp14
a(S'w'
I840
tp15
a(S'p1_du'
I0
tp16
a(S'p1_lh'
I0
tp17
a(S'p1_cv'
I0
tp18
a(S'p1_vo'
I6
tp19
a(S'w'
I1
tp20
a(S'p1_sp'
I1
tp21
a(S'p1_sn'
I1
tp22
a(S'p1_ss'
I7
tp23
a(S'p1_tl'
I83
tp24
a(S'w'
I1
tp25
a(S'p1_ll'
I10
tp26
a(S'p1_th'
I1
tp27
a(S'w'
I11006
tp28
a(S'w'
I1
tp29
a(S'p1_ll'
I10
tp30
a(S'w'
I22013
tp31
a(S'p1_tl'
I13
tp32
a(S'w'
I1
tp33
a(S'p1_ll'
I10
tp34
a(S'w'
I22013
tp35
a(S'p1_tl'
I226
tp36
a(S'w'
I1
tp37
a(S'p1_ll'
I10
tp38
a(S'p1_th'
I0
tp39
a(S'w'
I22012
tp40
a(S'p1_tl'
I201
tp41
a(S'w'
I1
tp42
a(S'p1_ll'
I10
tp43
a(S'w'
I11006
tp44
a(S'p1_tl'
I190
tp45
a(S'w'
I1
tp46
a(S'p1_ll'
I10
tp47
a(S'w'
I11006
tp48
a(S'p1_tl'
I201
tp49
a(S'w'
I1
tp50
a(S'p1_ll'
I10
tp51
a(S'w'
I11006
tp52
a(S'p1_tl'
I226
tp53
a(S'w'
I1
tp54
a(S'p1_ll'
I10
tp55
a(S'w'
I11006
tp56
a(S'p1_tl'
I240
tp57
a(S'w'
I1
tp58
a(S'p1_ll'
I10
tp59
a(S'w'
I11006
tp60
a(S'p1_tl'
I226
tp61
a(S'w'
I1
tp62
a(S'p1_ll'
I10
tp63
a(S'w'
I33019
tp64
a(S'p1_tl'
I83
tp65
a(S'w'
I1
tp66
a(S'p1_ll'
I10
tp67
a(S'p1_th'
I1
tp68
a(S'w'
I11006
tp69
a(S'w'
I1
tp70
a(S'p1_ll'
I10
tp71
a(S'w'
I11006
tp72
a(S'w'
I1
tp73
a(S'p1_ll'
I10
tp74
a(S'w'
I22013
tp75
a(S'p1_tl'
I13
tp76
a(S'w'
I1
tp77
a(S'p1_ll'
I10
tp78
a(S'w'
I22013
tp79
a(S'p1_tl'
I226
tp80
a(S'w'
I1
tp81
a(S'p1_ll'
I10
tp82
a(S'p1_th'
I0
tp83
a(S'w'
I22012
tp84
a(S'p1_tl'
I201
tp85
a(S'w'
I1
tp86
a(S'p1_ll'
I10
tp87
a(S'w'
I11006
tp88
a(S'p1_tl'
I190
tp89
a(S'w'
I1
tp90
a(S'p1_ll'
I10
tp91
a(S'w'
I11006
tp92
a(S'p1_tl'
I201
tp93
a(S'w'
I1
tp94
a(S'p1_ll'
I10
tp95
a(S'w'
I11006
tp96
a(S'p1_tl'
I226
tp97
a(S'w'
I1
tp98
a(S'p1_ll'
I10
tp99
a(S'w'
I11006
tp100
a(S'p1_tl'
I13
tp101
a(S'w'
I1
tp102
a(S'p1_ll'
I10
tp103
a(S'p1_th'
I1
tp104
a(S'w'
I11006
tp105
a(S'p1_tl'
I83
tp106
a(S'w'
I1
tp107
a(S'p1_ll'
I10
tp108
a(S'w'
I44026
tp109
a(S'w'
I1
tp110
a(S'p1_ll'
I10
tp111
a(S'w'
I11006
tp112
a(S'w'
I1
tp113
a(S'p1_ll'
I10
tp114
a(S'w'
I22013
tp115
a(S'p1_tl'
I13
tp116
a(S'w'
I1
tp117
a(S'p1_ll'
I10
tp118
a(S'w'
I22013
tp119
a(S'p1_tl'
I226
tp120
a(S'w'
I1
tp121
a(S'p1_ll'
I10
tp122
a(S'p1_th'
I0
tp123
a(S'w'
I22012
tp124
a(S'p1_tl'
I201
tp125
a(S'w'
I1
tp126
a(S'p1_ll'
I10
tp127
a(S'w'
I11006
tp128
a(S'p1_tl'
I190
tp129
a(S'w'
I1
tp130
a(S'p1_ll'
I10
tp131
a(S'w'
I11006
tp132
a(S'p1_tl'
I201
tp133
a(S'w'
I1
tp134
a(S'p1_ll'
I10
tp135
a(S'w'
I11006
tp136
a(S'p1_tl'
I226
tp137
a(S'w'
I1
tp138
a(S'p1_ll'
I10
tp139
a(S'w'
I11006
tp140
a(S'p1_tl'
I240
tp141
a(S'w'
I1
tp142
a(S'p1_ll'
I10
tp143
a(S'w'
I11006
tp144
a(S'p1_tl'
I226
tp145
a(S'w'
I1
tp146
a(S'p1_ll'
I10
tp147
a(S'w'
I33019
tp148
a(S'p1_tl'
I83
tp149
a(S'w'
I1
tp150
a(S'p1_ll'
I10
tp151
a(S'p1_th'
I1
tp152
a(S'w'
I11006
tp153
a(S'w'
I1
tp154
a(S'p1_ll'
I10
tp155
a(S'w'
I11006
tp156
a(S'w'
I1
tp157
a(S'p1_ll'
I10
tp158
a(S'w'
I22013
tp159
a(S'p1_tl'
I13
tp160
a(S'w'
I1
tp161
a(S'p1_ll'
I10
tp162
a(S'w'
I22013
tp163
a(S'p1_tl'
I226
tp164
a(S'w'
I1
tp165
a(S'p1_ll'
I10
tp166
a(S'p1_th'
I0
tp167
a(S'w'
I22012
tp168
a(S'p1_tl'
I201
tp169
a(S'w'
I1
tp170
a(S'p1_ll'
I10
tp171
a(S'w'
I11006
tp172
a(S'p1_tl'
I190
tp173
a(S'w'
I1
tp174
a(S'p1_ll'
I10
tp175
a(S'w'
I11006
tp176
a(S'p1_tl'
I201
tp177
a(S'w'
I1
tp178
a(S'p1_ll'
I10
tp179
a(S'w'
I11006
tp180
a(S'p1_tl'
I226
tp181
a(S'w'
I1
tp182
a(S'p1_ll'
I10
tp183
a(S'w'
I11006
tp184
a(S'p1_tl'
I13
tp185
a(S'w'
I1
tp186
a(S'p1_ll'
I10
tp187
a(S'p1_th'
I1
tp188
a(S'w'
I11006
tp189
a(S'p1_tl'
I83
tp190
a(S'w'
I1
tp191
a(S'p1_ll'
I10
tp192
a(S'w'
I22013
tp193
a(S'p1_tl'
I147
tp194
a(S'w'
I1
tp195
a(S'p1_ll'
I10
tp196
a(S'w'
I7336
tp197
a(S'p1_tl'
I83
tp198
a(S'w'
I1
tp199
a(S'p1_ll'
I10
tp200
a(S'w'
I7337
tp201
a(S'p1_tl'
I46
tp202
a(S'w'
I1
tp203
a(S'p1_ll'
I10
tp204
a(S'w'
I7337
tp205
a(S'p1_tl'
I29
tp206
a(S'w'
I1
tp207
a(S'p1_ll'
I10
tp208
a(S'w'
I16876
tp209
a(S'p1_tl'
I13
tp210
a(S'w'
I1
tp211
a(S'p1_ll'
I10
tp212
a(S'w'
I5870
tp213
a(S'p1_tl'
I29
tp214
a(S'w'
I1
tp215
a(S'p1_ll'
I10
tp216
a(S'w'
I16876
tp217
a(S'p1_tl'
I13
tp218
a(S'w'
I1
tp219
a(S'p1_ll'
I10
tp220
a(S'w'
I5869
tp221
a(S'p1_tl'
I226
tp222
a(S'w'
I1
tp223
a(S'p1_ll'
I10
tp224
a(S'p1_th'
I0
tp225
a(S'w'
I16877
tp226
a(S'p1_tl'
I254
tp227
a(S'w'
I1
tp228
a(S'p1_ll'
I10
tp229
a(S'w'
I5869
tp230
a(S'p1_tl'
I13
tp231
a(S'w'
I1
tp232
a(S'p1_ll'
I10
tp233
a(S'p1_th'
I1
tp234
a(S'w'
I16876
tp235
a(S'p1_tl'
I83
tp236
a(S'w'
I1
tp237
a(S'p1_ll'
I10
tp238
a(S'w'
I5869
tp239
a(S'p1_tl'
I13
tp240
a(S'w'
I1
tp241
a(S'p1_ll'
I10
tp242
a(S'w'
I16877
tp243
a(S'p1_tl'
I254
tp244
a(S'w'
I1
tp245
a(S'p1_ll'
I10
tp246
a(S'p1_th'
I0
tp247
a(S'w'
I5869
tp248
a(S'p1_tl'
I13
tp249
a(S'w'
I1
tp250
a(S'p1_ll'
I10
tp251
a(S'p1_th'
I1
tp252
a(S'w'
I16876
tp253
a(S'p1_tl'
I226
tp254
a(S'w'
I1
tp255
a(S'p1_ll'
I10
tp256
a(S'p1_th'
I0
tp257
a(S'w'
I5869
tp258
a(S'w'
I1
tp259
a(S'p1_ll'
I10
tp260
a(S'w'
I16877
tp261
a(S'w'
I1
tp262
a(S'p1_ll'
I10
tp263
a(S'w'
I5869
tp264
a(S'w'
I1
tp265
a(S'p1_ll'
I10
tp266
a(S'w'
I7337
tp267
a(S'p1_tl'
I201
tp268
a(S'w'
I1
tp269
a(S'p1_ll'
I10
tp270
a(S'w'
I7337
tp271
a(S'p1_tl'
I179
tp272
a(S'w'
I1
tp273
a(S'p1_ll'
I10
tp274
a(S'w'
I7337
tp275
a(S'p1_tl'
I169
tp276
a(S'w'
I1
tp277
a(S'p1_ll'
I10
tp278
a(S'w'
I22013
tp279
a(S'p1_tl'
I134
tp280
a(S'w'
I1
tp281
a(S'p1_ll'
I10
tp282
a(S'w'
I22012
tp283
a(S'p1_tl'
I127
tp284
a(S'w'
I1
tp285
a(S'p1_ll'
I10
tp286
a(S'w'
I14675
tp287
a(S'p1_tl'
I134
tp288
a(S'w'
I1
tp289
a(S'p1_ll'
I10
tp290
a(S'w'
I7337
tp291
a(S'p1_tl'
I169
tp292
a(S'w'
I1
tp293
a(S'p1_ll'
I10
tp294
a(S'w'
I14675
tp295
a(S'p1_tl'
I226
tp296
a(S'w'
I1
tp297
a(S'p1_ll'
I10
tp298
a(S'w'
I7337
tp299
a(S'p1_tl'
I169
tp300
a(S'w'
I1
tp301
a(S'p1_ll'
I10
tp302
a(S'w'
I7337
tp303
a(S'p1_tl'
I190
tp304
a(S'w'
I1
tp305
a(S'p1_ll'
I10
tp306
a(S'w'
I7337
tp307
a(S'p1_tl'
I226
tp308
a(S'w'
I1
tp309
a(S'p1_ll'
I10
tp310
a(S'w'
I7337
tp311
a(S'p1_tl'
I179
tp312
a(S'w'
I1
tp313
a(S'p1_ll'
I10
tp314
a(S'w'
I14673
tp315
a(S'p1_du'
I1
tp316
a(S'p1_lh'
I1
tp317
a(S'p1_cv'
I1
tp318
a(S'p1_vo'
I15
tp319
a(S'w'
I1
tp320
a(S'p1_tl'
I169
tp321
a(S'w'
I1
tp322
a(S'p1_ll'
I10
tp323
a(S'w'
I7336
tp324
a(S'p1_vo'
I10
tp325
a(S'w'
I1
tp326
a(S'w'
I1
tp327
a(S'p1_ll'
I10
tp328
a(S'w'
I22012
tp329
a(S'p1_vo'
I5
tp330
a(S'w'
I1
tp331
a(S'w'
I1
tp332
a(S'p1_ll'
I10
tp333
a(S'w'
I22012
tp334
a(S'p1_vo'
I1
tp335
a(S'w'
I1
tp336
a(S'w'
I1
tp337
a(S'p1_ll'
I10
tp338
a(S'w'
I22012
tp339
a.