(lp1
(S'clock'
p2
I1789772
tp3
a(S'fc_mo'
I1
tp4
a(S'w'
I10
tp5
a(S'p1_cv'
I1
tp6
a(S'w'
I1
tp7
a(S'p1_se'
I1
tp8
a(S'p1_sn'
I1
tp9
a(S'p1_ss'
I7
tp10
a(S'w'
I3
tp11
a(S'p2_cv'
I1
tp12
a(S'p2_sp'
I7
tp13
a(S'p2_sn'
I1
tp14
a(S'p2_ss'
I7
tp15
a(S'w'
I2
tp16
a(S'tr_lr'
I48
tp17
a(S'w'
I1
tp18
a(S'tr_tl'
I171
tp19
a(S'tr_ll'
I1
tp20
a(S'tr_th'
I1
tp21
a(S'w'
I11730
tp22
a(S'p1_tl'
I171
tp23
a(S'p1_ll'
I1
tp24
a(S'p1_th'
I1
tp25
a(S'w'
I1
tp26
a(S'p1_cv'
I0
tp27
a(S'p1_vo'
I5
tp28
a(S'w'
I3
tp29
a(S'p2_tl'
I82
tp30
a(S'p2_ll'
I1
tp31
a(S'p2_th'
I1
tp32
a(S'w'
I1
tp33
a(S'p2_du'
I2
tp34
a(S'p2_cv'
I0
tp35
a(S'p2_vo'
I4
tp36
a(S'w'
I3
tp37
a(S'tr_tl'
I28
tp38
a(S'tr_ll'
I1
tp39
a(S'w'
I3
tp40
a(S'no_np'
I2
tp41
a(S'no_ll'
I1
tp42
a(S'w'
I5860
tp43
a(S'p1_cv'
I1
tp44
a(S'p1_vo'
I0
tp45
a(S'w'
I4
tp46
a(S'p2_du'
I0
tp47
a(S'p2_cv'
I1
tp48
a(S'p2_vo'
I0
tp49
a(S'w'
I5866
tp50
a(S'p1_tl'
I82
tp51
a(S'p1_ll'
I1
tp52
a(S'w'
I1
tp53
a(S'p1_cv'
I0
tp54
a(S'p1_vo'
I5
tp55
a(S'w'
I3
tp56
a(S'p2_tl'
I28
tp57
a(S'p2_ll'
I1
tp58
a(S'w'
I1
tp59
a(S'p2_du'
I2
tp60
a(S'p2_cv'
I0
tp61
a(S'p2_vo'
I4
tp62
a(S'w'
I3
tp63
a(S'tr_tl'
I171
tp64
a(S'tr_ll'
I1
tp65
a(S'w'
I5862
tp66
a(S'p1_cv'
I1
tp67
a(S'p1_vo'
I0
tp68
a(S'w'
I4
tp69
a(S'p2_du'
I0
tp70
a(S'p2_cv'
I1
tp71
a(S'p2_vo'
I0
tp72
a(S'w'
I5867
tp73
a(S'p1_tl'
I28
tp74
a(S'p1_ll'
I1
tp75
a(S'w'
I1
tp76
a(S'p1_cv'
I0
tp77
a(S'p1_vo'
I5
tp78
a(S'w'
I3
tp79
a(S'p2_tl'
I212
tp80
a(S'p2_ll'
I1
tp81
a(S'p2_th'
I0
tp82
a(S'w'
I1
tp83
a(S'p2_du'
I2
tp84
a(S'p2_cv'
I0
tp85
a(S'p2_vo'
I4
tp86
a(S'w'
I3
tp87
a(S'tr_tl'
I28
tp88
a(S'tr_ll'
I1
tp89
a(S'w'
I3
tp90
a(S'no_ll'
I1
tp91
a(S'w'
I5859
tp92
a(S'p1_cv'
I1
tp93
a(S'p1_vo'
I0
tp94
a(S'w'
I4
tp95
a(S'p2_du'
I0
tp96
a(S'p2_cv'
I1
tp97
a(S'p2_vo'
I0
tp98
a(S'w'
I5866
tp99
a(S'p1_tl'
I171
tp100
a(S'p1_ll'
I1
tp101
a(S'w'
I1
tp102
a(S'p1_cv'
I0
tp103
a(S'p1_vo'
I5
tp104
a(S'w'
I3
tp105
a(S'p2_tl'
I82
tp106
a(S'p2_ll'
I1
tp107
a(S'p2_th'
I1
tp108
a(S'w'
I1
tp109
a(S'p2_du'
I2
tp110
a(S'p2_cv'
I0
tp111
a(S'p2_vo'
I4
tp112
a(S'w'
I3
tp113
a(S'tr_tl'
I171
tp114
a(S'tr_ll'
I1
tp115
a(S'w'
I5863
tp116
a(S'p1_tl'
I82
tp117
a(S'p1_ll'
I1
tp118
a(S'w'
I4
tp119
a(S'p2_tl'
I28
tp120
a(S'p2_ll'
I1
tp121
a(S'w'
I5866
tp122
a(S'p1_cv'
I1
tp123
a(S'p1_vo'
I0
tp124
a(S'w'
I4
tp125
a(S'p2_du'
I0
tp126
a(S'p2_cv'
I1
tp127
a(S'p2_vo'
I0
tp128
a(S'w'
I3
tp129
a(S'tr_tl'
I28
tp130
a(S'tr_ll'
I1
tp131
a(S'w'
I3
tp132
a(S'no_ll'
I1
tp133
a(S'w'
I5860
tp134
a(S'p1_tl'
I28
tp135
a(S'p1_ll'
I1
tp136
a(S'w'
I1
tp137
a(S'p1_cv'
I0
tp138
a(S'p1_vo'
I5
tp139
a(S'w'
I3
tp140
a(S'p2_tl'
I212
tp141
a(S'p2_ll'
I1
tp142
a(S'p2_th'
I0
tp143
a(S'w'
I1
tp144
a(S'p2_du'
I2
tp145
a(S'p2_cv'
I0
tp146
a(S'p2_vo'
I7
tp147
a(S'w'
I5867
tp148
a(S'tr_tl'
I171
tp149
a(S'w'
I1
tp150
a(S'tr_ll'
I1
tp151
a(S'w'
I11738
tp152
a(S'p1_cv'
I1
tp153
a(S'p1_vo'
I0
tp154
a(S'w'
I4
tp155
a(S'p2_du'
I0
tp156
a(S'p2_cv'
I1
tp157
a(S'p2_vo'
I0
tp158
a(S'w'
I3
tp159
a(S'tr_tl'
I28
tp160
a(S'tr_ll'
I1
tp161
a(S'w'
I3
tp162
a(S'no_ll'
I1
tp163
a(S'w'
I11732
tp164
a(S'tr_tl'
I82
tp165
a(S'w'
I1
tp166
a(S'tr_ll'
I1
tp167
a(S'w'
I11739
tp168
a(S'p1_tl'
I82
tp169
a(S'p1_ll'
I1
tp170
a(S'w'
I1
tp171
a(S'p1_cv'
I0
tp172
a(S'p1_vo'
I5
tp173
a(S'w'
I3
tp174
a(S'p2_tl'
I12
tp175
a(S'p2_ll'
I1
tp176
a(S'p2_th'
I1
tp177
a(S'w'
I1
tp178
a(S'p2_du'
I2
tp179
a(S'p2_cv'
I0
tp180
a(S'p2_vo'
I4
tp181
a(S'w'
I3
tp182
a(S'tr_tl'
I225
tp183
a(S'tr_ll'
I1
tp184
a(S'tr_th'
I0
tp185
a(S'w'
I3
tp186
a(S'no_ll'
I1
tp187
a(S'w'
I5859
tp188
a(S'p1_cv'
I1
tp189
a(S'p1_vo'
I0
tp190
a(S'w'
I4
tp191
a(S'p2_du'
I0
tp192
a(S'p2_cv'
I1
tp193
a(S'p2_vo'
I0
tp194
a(S'w'
I5866
tp195
a(S'p1_tl'
I12
tp196
a(S'p1_ll'
I1
tp197
a(S'w'
I1
tp198
a(S'p1_cv'
I0
tp199
a(S'p1_vo'
I5
tp200
a(S'w'
I3
tp201
a(S'p2_tl'
I225
tp202
a(S'p2_ll'
I1
tp203
a(S'p2_th'
I0
tp204
a(S'w'
I1
tp205
a(S'p2_du'
I2
tp206
a(S'p2_cv'
I0
tp207
a(S'p2_vo'
I4
tp208
a(S'w'
I3
tp209
a(S'tr_tl'
I82
tp210
a(S'tr_ll'
I1
tp211
a(S'tr_th'
I1
tp212
a(S'w'
I5863
tp213
a(S'p1_cv'
I1
tp214
a(S'p1_vo'
I0
tp215
a(S'w'
I4
tp216
a(S'p2_du'
I0
tp217
a(S'p2_cv'
I1
tp218
a(S'p2_vo'
I0
tp219
a(S'w'
I5866
tp220
a(S'p1_tl'
I225
tp221
a(S'p1_ll'
I1
tp222
a(S'p1_th'
I0
tp223
a(S'w'
I1
tp224
a(S'p1_cv'
I0
tp225
a(S'p1_vo'
I5
tp226
a(S'w'
I3
tp227
a(S'p2_tl'
I168
tp228
a(S'p2_ll'
I1
tp229
a(S'w'
I1
tp230
a(S'p2_du'
I2
tp231
a(S'p2_cv'
I0
tp232
a(S'p2_vo'
I4
tp233
a(S'w'
I3
tp234
a(S'tr_tl'
I225
tp235
a(S'tr_ll'
I1
tp236
a(S'tr_th'
I0
tp237
a(S'w'
I3
tp238
a(S'no_ll'
I1
tp239
a(S'w'
I5859
tp240
a(S'p1_cv'
I1
tp241
a(S'p1_vo'
I0
tp242
a(S'w'
I4
tp243
a(S'p2_du'
I0
tp244
a(S'p2_cv'
I1
tp245
a(S'p2_vo'
I0
tp246
a(S'w'
I5867
tp247
a(S'p1_tl'
I82
tp248
a(S'p1_ll'
I1
tp249
a(S'p1_th'
I1
tp250
a(S'w'
I1
tp251
a(S'p1_cv'
I0
tp252
a(S'p1_vo'
I5
tp253
a(S'w'
I3
tp254
a(S'p2_tl'
I12
tp255
a(S'p2_ll'
I1
tp256
a(S'p2_th'
I1
tp257
a(S'w'
I1
tp258
a(S'p2_du'
I2
tp259
a(S'p2_cv'
I0
tp260
a(S'p2_vo'
I4
tp261
a(S'w'
I3
tp262
a(S'tr_tl'
I82
tp263
a(S'tr_ll'
I1
tp264
a(S'tr_th'
I1
tp265
a(S'w'
I5862
tp266
a(S'p1_tl'
I12
tp267
a(S'p1_ll'
I1
tp268
a(S'w'
I4
tp269
a(S'p2_tl'
I225
tp270
a(S'p2_ll'
I1
tp271
a(S'p2_th'
I0
tp272
a(S'w'
I5866
tp273
a(S'p1_cv'
I1
tp274
a(S'p1_vo'
I0
tp275
a(S'w'
I4
tp276
a(S'p2_du'
I0
tp277
a(S'p2_cv'
I1
tp278
a(S'p2_vo'
I0
tp279
a(S'w'
I3
tp280
a(S'tr_tl'
I225
tp281
a(S'tr_ll'
I1
tp282
a(S'tr_th'
I0
tp283
a(S'w'
I3
tp284
a(S'no_ll'
I1
tp285
a(S'w'
I5861
tp286
a(S'p1_tl'
I225
tp287
a(S'p1_ll'
I1
tp288
a(S'p1_th'
I0
tp289
a(S'w'
I1
tp290
a(S'p1_cv'
I0
tp291
a(S'p1_vo'
I5
tp292
a(S'w'
I3
tp293
a(S'p2_tl'
I168
tp294
a(S'p2_ll'
I1
tp295
a(S'w'
I1
tp296
a(S'p2_du'
I2
tp297
a(S'p2_cv'
I0
tp298
a(S'p2_vo'
I7
tp299
a(S'w'
I5866
tp300
a(S'tr_tl'
I82
tp301
a(S'w'
I1
tp302
a(S'tr_ll'
I1
tp303
a(S'tr_th'
I1
tp304
a(S'w'
I11739
tp305
a(S'p1_cv'
I1
tp306
a(S'p1_vo'
I0
tp307
a(S'w'
I4
tp308
a(S'p2_du'
I0
tp309
a(S'p2_cv'
I1
tp310
a(S'p2_vo'
I0
tp311
a(S'w'
I3
tp312
a(S'tr_tl'
I225
tp313
a(S'tr_ll'
I1
tp314
a(S'tr_th'
I0
tp315
a(S'w'
I3
tp316
a(S'no_ll'
I1
tp317
a(S'w'
I11731
tp318
a(S'tr_tl'
I124
tp319
a(S'w'
I1
tp320
a(S'tr_ll'
I1
tp321
a(S'tr_th'
I1
tp322
a(S'w'
I2
tp323
a(S'no_ll'
I1
tp324
a(S'w'
I11737
tp325
a(S'p1_tl'
I253
tp326
a(S'p1_ll'
I1
tp327
a(S'w'
I1
tp328
a(S'p1_cv'
I0
tp329
a(S'p1_vo'
I5
tp330
a(S'w'
I3
tp331
a(S'p2_tl'
I189
tp332
a(S'p2_ll'
I1
tp333
a(S'w'
I1
tp334
a(S'p2_du'
I2
tp335
a(S'p2_cv'
I0
tp336
a(S'p2_vo'
I2
tp337
a(S'w'
I3
tp338
a(S'tr_tl'
I253
tp339
a(S'tr_ll'
I1
tp340
a(S'tr_th'
I0
tp341
a(S'w'
I3661
tp342
a(S'p1_cv'
I1
tp343
a(S'p1_vo'
I0
tp344
a(S'w'
I4
tp345
a(S'p2_du'
I0
tp346
a(S'p2_cv'
I1
tp347
a(S'p2_vo'
I0
tp348
a(S'w'
I3665
tp349
a(S'p1_tl'
I253
tp350
a(S'p1_ll'
I1
tp351
a(S'w'
I1
tp352
a(S'p1_cv'
I0
tp353
a(S'p1_vo'
I5
tp354
a(S'w'
I3
tp355
a(S'p2_tl'
I212
tp356
a(S'p2_ll'
I1
tp357
a(S'w'
I1
tp358
a(S'p2_du'
I2
tp359
a(S'p2_cv'
I0
tp360
a(S'p2_vo'
I2
tp361
a(S'w'
I4398
tp362
a(S'p1_tl'
I253
tp363
a(S'p1_ll'
I1
tp364
a(S'w'
I4
tp365
a(S'p2_tl'
I189
tp366
a(S'p2_ll'
I1
tp367
a(S'w'
I3664
tp368
a(S'p1_cv'
I1
tp369
a(S'p1_vo'
I0
tp370
a(S'w'
I4
tp371
a(S'p2_du'
I0
tp372
a(S'p2_cv'
I1
tp373
a(S'p2_vo'
I0
tp374
a(S'w'
I3665
tp375
a(S'p1_tl'
I253
tp376
a(S'p1_ll'
I1
tp377
a(S'w'
I1
tp378
a(S'p1_cv'
I0
tp379
a(S'p1_vo'
I5
tp380
a(S'w'
I3
tp381
a(S'p2_tl'
I212
tp382
a(S'p2_ll'
I1
tp383
a(S'w'
I1
tp384
a(S'p2_du'
I2
tp385
a(S'p2_cv'
I0
tp386
a(S'p2_vo'
I2
tp387
a(S'w'
I4398
tp388
a(S'p1_tl'
I63
tp389
a(S'p1_ll'
I1
tp390
a(S'p1_th'
I1
tp391
a(S'w'
I4
tp392
a(S'p2_tl'
I253
tp393
a(S'p2_ll'
I1
tp394
a(S'w'
I4
tp395
a(S'tr_tl'
I124
tp396
a(S'tr_ll'
I1
tp397
a(S'tr_th'
I1
tp398
a(S'w'
I3
tp399
a(S'no_ll'
I1
tp400
a(S'w'
I3658
tp401
a(S'p1_cv'
I1
tp402
a(S'p1_vo'
I0
tp403
a(S'w'
I4
tp404
a(S'p2_du'
I0
tp405
a(S'p2_cv'
I1
tp406
a(S'p2_vo'
I0
tp407
a(S'w'
I3665
tp408
a(S'p1_tl'
I63
tp409
a(S'p1_ll'
I1
tp410
a(S'w'
I1
tp411
a(S'p1_cv'
I0
tp412
a(S'p1_vo'
I5
tp413
a(S'w'
I3
tp414
a(S'p2_tl'
I28
tp415
a(S'p2_ll'
I1
tp416
a(S'p2_th'
I1
tp417
a(S'w'
I1
tp418
a(S'p2_du'
I2
tp419
a(S'p2_cv'
I0
tp420
a(S'p2_vo'
I2
tp421
a(S'w'
I4398
tp422
a(S'p1_tl'
I124
tp423
a(S'p1_ll'
I1
tp424
a(S'w'
I4
tp425
a(S'p2_tl'
I63
tp426
a(S'p2_ll'
I1
tp427
a(S'w'
I1
tp428
a(S'p2_vo'
I7
tp429
a(S'w'
I3
tp430
a(S'tr_tl'
I28
tp431
a(S'tr_ll'
I1
tp432
a(S'w'
I3
tp433
a(S'no_ll'
I1
tp434
a(S'w'
I11730
tp435
a(S'p1_tl'
I124
tp436
a(S'p1_ll'
I1
tp437
a(S'w'
I4
tp438
a(S'p2_ll'
I1
tp439
a(S'w'
I1
tp440
a(S'p2_vo'
I2
tp441
a(S'w'
I3663
tp442
a(S'p1_cv'
I1
tp443
a(S'p1_vo'
I0
tp444
a(S'w'
I4
tp445
a(S'p2_du'
I0
tp446
a(S'p2_cv'
I1
tp447
a(S'p2_vo'
I0
tp448
a(S'w'
I3665
tp449
a(S'p1_tl'
I171
tp450
a(S'p1_ll'
I1
tp451
a(S'w'
I1
tp452
a(S'p1_cv'
I0
tp453
a(S'p1_vo'
I5
tp454
a(S'w'
I3
tp455
a(S'p2_tl'
I82
tp456
a(S'p2_ll'
I1
tp457
a(S'w'
I1
tp458
a(S'p2_du'
I2
tp459
a(S'p2_cv'
I0
tp460
a(S'p2_vo'
I2
tp461
a(S'w'
I4398
tp462
a(S'p1_tl'
I223
tp463
a(S'p1_ll'
I1
tp464
a(S'w'
I4
tp465
a(S'p2_tl'
I103
tp466
a(S'p2_ll'
I1
tp467
a(S'w'
I1
tp468
a(S'p2_vo'
I4
tp469
a(S'w'
I3
tp470
a(S'tr_tl'
I63
tp471
a(S'tr_ll'
I1
tp472
a(S'w'
I3
tp473
a(S'no_np'
I0
tp474
a(S'no_ll'
I1
tp475
a(S'w'
I5860
tp476
a(S'p1_tl'
I196
tp477
a(S'p1_ll'
I1
tp478
a(S'w'
I4
tp479
a(S'p2_tl'
I124
tp480
a(S'p2_ll'
I1
tp481
a(S'w'
I1
tp482
a(S'p2_vo'
I7
tp483
a(S'w'
I3
tp484
a(S'no_np'
I2
tp485
a(S'no_ll'
I1
tp486
a(S'w'
I17603
tp487
a(S'p1_tl'
I58
tp488
a(S'p1_ll'
I1
tp489
a(S'p1_th'
I2
tp490
a(S'w'
I4
tp491
a(S'p2_tl'
I171
tp492
a(S'p2_ll'
I1
tp493
a(S'w'
I1
tp494
a(S'p2_vo'
I4
tp495
a(S'w'
I2
tp496
a(S'tr_lr'
I28
tp497
a(S'w'
I1
tp498
a(S'tr_tl'
I82
tp499
a(S'tr_ll'
I1
tp500
a(S'w'
I5862
tp501
a(S'p1_tl'
I171
tp502
a(S'p1_ll'
I1
tp503
a(S'p1_th'
I1
tp504
a(S'w'
I4
tp505
a(S'p2_tl'
I82
tp506
a(S'p2_ll'
I1
tp507
a(S'w'
I1
tp508
a(S'p2_vo'
I7
tp509
a(S'w'
I2
tp510
a(S'tr_lr'
I48
tp511
a(S'w'
I1
tp512
a(S'tr_tl'
I28
tp513
a(S'tr_ll'
I1
tp514
a(S'w'
I3
tp515
a(S'no_ll'
I1
tp516
a(S'w'
I11730
tp517
a(S'p1_tl'
I171
tp518
a(S'p1_ll'
I1
tp519
a(S'w'
I4
tp520
a(S'p2_tl'
I63
tp521
a(S'p2_ll'
I1
tp522
a(S'w'
I4
tp523
a(S'tr_tl'
I253
tp524
a(S'tr_ll'
I1
tp525
a(S'tr_th'
I0
tp526
a(S'w'
I3
tp527
a(S'no_ll'
I1
tp528
a(S'w'
I11729
tp529
a(S'p1_tl'
I124
tp530
a(S'p1_ll'
I1
tp531
a(S'w'
I4
tp532
a(S'p2_tl'
I45
tp533
a(S'p2_ll'
I1
tp534
a(S'w'
I4
tp535
a(S'tr_ll'
I1
tp536
a(S'w'
I3
tp537
a(S'no_ll'
I1
tp538
a(S'w'
I11730
tp539
a(S'p1_tl'
I63
tp540
a(S'p1_ll'
I1
tp541
a(S'w'
I4
tp542
a(S'p2_tl'
I28
tp543
a(S'p2_ll'
I1
tp544
a(S'w'
I1
tp545
a(S'p2_vo'
I4
tp546
a(S'w'
I2
tp547
a(S'tr_lr'
I28
tp548
a(S'w'
I1
tp549
a(S'tr_tl'
I189
tp550
a(S'tr_ll'
I1
tp551
a(S'w'
I3
tp552
a(S'no_ll'
I1
tp553
a(S'w'
I5859
tp554
a(S'p1_tl'
I82
tp555
a(S'p1_ll'
I1
tp556
a(S'w'
I4
tp557
a(S'p2_tl'
I212
tp558
a(S'p2_ll'
I1
tp559
a(S'p2_th'
I0
tp560
a(S'w'
I1
tp561
a(S'p2_vo'
I7
tp562
a(S'w'
I2
tp563
a(S'tr_lr'
I48
tp564
a(S'w'
I1
tp565
a(S'tr_tl'
I28
tp566
a(S'tr_ll'
I1
tp567
a(S'tr_th'
I1
tp568
a(S'w'
I3
tp569
a(S'no_np'
I0
tp570
a(S'no_ll'
I1
tp571
a(S'w'
I2925
tp572
a(S'no_ll'
I1
tp573
a(S'w'
I2936
tp574
a(S'no_ll'
I1
tp575
a(S'w'
I2935
tp576
a(S'no_ll'
I1
tp577
a(S'w'
I2935
tp578
a(S'no_np'
I2
tp579
a(S'no_ll'
I1
tp580
a(S'w'
I11739
tp581
a(S'p1_tl'
I171
tp582
a(S'p1_ll'
I1
tp583
a(S'w'
I3
tp584
a(S'p1_du'
I2
tp585
a(S'p1_cv'
I1
tp586
a(S'p1_vo'
I0
tp587
a(S'w'
I42011
tp588
a.