(lp1
(S'clock'
p2
I1789772
tp3
a(S'fc_mo'
I1
tp4
a(S'w'
I10
tp5
a(S'p1_tl'
I238
tp6
a(S'w'
I1
tp7
a(S'p1_ll'
I1
tp8
a(S'p1_vo'
I5
tp9
a(S'w'
I1
tp10
a(S'p1_sp'
I7
tp11
a(S'p1_sn'
I1
tp12
a(S'p1_ss'
I7
tp13
a(S'w'
I2
tp14
a(S'p2_tl'
I63
tp15
a(S'p2_ll'
I1
tp16
a(S'p2_th'
I1
tp17
a(S'w'
I1
tp18
a(S'p2_du'
I2
tp19
a(S'p2_vo'
I2
tp20
a(S'p2_sp'
I7
tp21
a(S'p2_sn'
I1
tp22
a(S'p2_ss'
I7
tp23
a(S'w'
I3
tp24
a(S'tr_lr'
I36
tp25
a(S'tr_tl'
I28
tp26
a(S'w'
I1
tp27
a(S'tr_ll'
I1
tp28
a(S'tr_th'
I1
tp29
a(S'w'
I3657
tp30
a(S'p2_tl'
I28
tp31
a(S'p2_ll'
I1
tp32
a(S'w'
I3669
tp33
a(S'p2_tl'
I63
tp34
a(S'p2_ll'
I1
tp35
a(S'w'
I4
tp36
a(S'tr_tl'
I253
tp37
a(S'tr_ll'
I1
tp38
a(S'tr_th'
I0
tp39
a(S'w'
I3665
tp40
a(S'p2_tl'
I28
tp41
a(S'p2_ll'
I1
tp42
a(S'w'
I3669
tp43
a(S'p2_tl'
I63
tp44
a(S'p2_ll'
I1
tp45
a(S'w'
I4
tp46
a(S'tr_tl'
I238
tp47
a(S'tr_ll'
I1
tp48
a(S'w'
I3665
tp49
a(S'p2_tl'
I28
tp50
a(S'p2_ll'
I1
tp51
a(S'w'
I3668
tp52
a(S'p1_tl'
I212
tp53
a(S'p1_ll'
I1
tp54
a(S'w'
I4
tp55
a(S'p2_ll'
I1
tp56
a(S'w'
I4
tp57
a(S'tr_tl'
I28
tp58
a(S'tr_ll'
I1
tp59
a(S'tr_th'
I1
tp60
a(S'w'
I3662
tp61
a(S'p2_tl'
I253
tp62
a(S'p2_ll'
I1
tp63
a(S'p2_th'
I0
tp64
a(S'w'
I3669
tp65
a(S'p2_tl'
I28
tp66
a(S'p2_ll'
I1
tp67
a(S'p2_th'
I1
tp68
a(S'w'
I4
tp69
a(S'tr_tl'
I253
tp70
a(S'tr_ll'
I1
tp71
a(S'tr_th'
I0
tp72
a(S'w'
I3665
tp73
a(S'p2_tl'
I253
tp74
a(S'p2_ll'
I1
tp75
a(S'p2_th'
I0
tp76
a(S'w'
I3669
tp77
a(S'p2_tl'
I28
tp78
a(S'p2_ll'
I1
tp79
a(S'p2_th'
I1
tp80
a(S'w'
I4
tp81
a(S'tr_tl'
I238
tp82
a(S'tr_ll'
I1
tp83
a(S'w'
I3665
tp84
a(S'p2_tl'
I253
tp85
a(S'p2_ll'
I1
tp86
a(S'p2_th'
I0
tp87
a(S'w'
I3668
tp88
a(S'p1_tl'
I189
tp89
a(S'p1_ll'
I1
tp90
a(S'w'
I4
tp91
a(S'p2_ll'
I1
tp92
a(S'w'
I4
tp93
a(S'tr_tl'
I28
tp94
a(S'tr_ll'
I1
tp95
a(S'tr_th'
I1
tp96
a(S'w'
I3662
tp97
a(S'p2_tl'
I238
tp98
a(S'p2_ll'
I1
tp99
a(S'w'
I3669
tp100
a(S'p2_tl'
I253
tp101
a(S'p2_ll'
I1
tp102
a(S'w'
I4
tp103
a(S'tr_tl'
I253
tp104
a(S'tr_ll'
I1
tp105
a(S'tr_th'
I0
tp106
a(S'w'
I3665
tp107
a(S'p2_tl'
I238
tp108
a(S'p2_ll'
I1
tp109
a(S'w'
I3669
tp110
a(S'p2_tl'
I253
tp111
a(S'p2_ll'
I1
tp112
a(S'w'
I4
tp113
a(S'tr_tl'
I238
tp114
a(S'tr_ll'
I1
tp115
a(S'w'
I3665
tp116
a(S'p2_tl'
I238
tp117
a(S'p2_ll'
I1
tp118
a(S'w'
I3668
tp119
a(S'p1_tl'
I159
tp120
a(S'p1_ll'
I1
tp121
a(S'w'
I4
tp122
a(S'p2_tl'
I212
tp123
a(S'p2_ll'
I1
tp124
a(S'w'
I1
tp125
a(S'p2_vo'
I4
tp126
a(S'w'
I3
tp127
a(S'tr_tl'
I28
tp128
a(S'tr_ll'
I1
tp129
a(S'tr_th'
I1
tp130
a(S'w'
I7330
tp131
a(S'p1_tl'
I168
tp132
a(S'p1_ll'
I1
tp133
a(S'w'
I4
tp134
a(S'p2_tl'
I225
tp135
a(S'p2_ll'
I1
tp136
a(S'w'
I4
tp137
a(S'tr_tl'
I253
tp138
a(S'tr_ll'
I1
tp139
a(S'tr_th'
I0
tp140
a(S'w'
I7330
tp141
a(S'p1_tl'
I212
tp142
a(S'p1_ll'
I1
tp143
a(S'w'
I4
tp144
a(S'p2_tl'
I28
tp145
a(S'p2_ll'
I1
tp146
a(S'p2_th'
I1
tp147
a(S'w'
I4
tp148
a(S'tr_tl'
I238
tp149
a(S'tr_ll'
I1
tp150
a(S'w'
I7330
tp151
a(S'p1_tl'
I189
tp152
a(S'p1_ll'
I1
tp153
a(S'w'
I4
tp154
a(S'p2_tl'
I253
tp155
a(S'p2_ll'
I1
tp156
a(S'p2_th'
I0
tp157
a(S'w'
I1
tp158
a(S'p2_vo'
I7
tp159
a(S'w'
I3
tp160
a(S'tr_tl'
I28
tp161
a(S'tr_ll'
I1
tp162
a(S'tr_th'
I1
tp163
a(S'w'
I7330
tp164
a(S'tr_tl'
I253
tp165
a(S'tr_ll'
I1
tp166
a(S'tr_th'
I0
tp167
a(S'w'
I7338
tp168
a(S'tr_tl'
I238
tp169
a(S'tr_ll'
I1
tp170
a(S'w'
I7337
tp171
a(S'p1_tl'
I141
tp172
a(S'p1_ll'
I1
tp173
a(S'w'
I4
tp174
a(S'p2_tl'
I225
tp175
a(S'p2_ll'
I1
tp176
a(S'w'
I4
tp177
a(S'tr_tl'
I28
tp178
a(S'tr_ll'
I1
tp179
a(S'tr_th'
I1
tp180
a(S'w'
I7331
tp181
a(S'tr_tl'
I253
tp182
a(S'tr_ll'
I1
tp183
a(S'tr_th'
I0
tp184
a(S'w'
I7338
tp185
a(S'tr_tl'
I238
tp186
a(S'tr_ll'
I1
tp187
a(S'w'
I7337
tp188
a(S'p1_tl'
I159
tp189
a(S'p1_ll'
I1
tp190
a(S'w'
I4
tp191
a(S'p2_tl'
I212
tp192
a(S'p2_ll'
I1
tp193
a(S'w'
I1
tp194
a(S'p2_vo'
I4
tp195
a(S'w'
I3
tp196
a(S'tr_tl'
I28
tp197
a(S'tr_ll'
I1
tp198
a(S'tr_th'
I1
tp199
a(S'w'
I7330
tp200
a(S'p1_tl'
I141
tp201
a(S'p1_ll'
I1
tp202
a(S'w'
I4
tp203
a(S'p2_tl'
I189
tp204
a(S'p2_ll'
I1
tp205
a(S'w'
I4
tp206
a(S'tr_tl'
I253
tp207
a(S'tr_ll'
I1
tp208
a(S'tr_th'
I0
tp209
a(S'w'
I7330
tp210
a(S'p1_tl'
I126
tp211
a(S'p1_ll'
I1
tp212
a(S'w'
I4
tp213
a(S'p2_tl'
I168
tp214
a(S'p2_ll'
I1
tp215
a(S'w'
I4
tp216
a(S'tr_tl'
I238
tp217
a(S'tr_ll'
I1
tp218
a(S'w'
I7330
tp219
a(S'p1_tl'
I159
tp220
a(S'p1_ll'
I1
tp221
a(S'w'
I4
tp222
a(S'p2_tl'
I212
tp223
a(S'p2_ll'
I1
tp224
a(S'w'
I1
tp225
a(S'p2_vo'
I7
tp226
a(S'w'
I3
tp227
a(S'tr_tl'
I28
tp228
a(S'tr_ll'
I1
tp229
a(S'tr_th'
I1
tp230
a(S'w'
I7331
tp231
a(S'tr_tl'
I253
tp232
a(S'tr_ll'
I1
tp233
a(S'tr_th'
I0
tp234
a(S'w'
I7338
tp235
a(S'tr_tl'
I238
tp236
a(S'tr_ll'
I1
tp237
a(S'w'
I7337
tp238
a(S'p1_tl'
I168
tp239
a(S'p1_ll'
I1
tp240
a(S'w'
I4
tp241
a(S'p2_tl'
I225
tp242
a(S'p2_ll'
I1
tp243
a(S'w'
I1
tp244
a(S'p2_vo'
I4
tp245
a(S'w'
I3
tp246
a(S'tr_tl'
I28
tp247
a(S'tr_ll'
I1
tp248
a(S'tr_th'
I1
tp249
a(S'w'
I7329
tp250
a(S'p1_tl'
I159
tp251
a(S'p1_ll'
I1
tp252
a(S'w'
I4
tp253
a(S'p2_tl'
I212
tp254
a(S'p2_ll'
I1
tp255
a(S'w'
I4
tp256
a(S'tr_tl'
I253
tp257
a(S'tr_ll'
I1
tp258
a(S'tr_th'
I0
tp259
a(S'w'
I7330
tp260
a(S'p1_tl'
I141
tp261
a(S'p1_ll'
I1
tp262
a(S'w'
I4
tp263
a(S'p2_tl'
I189
tp264
a(S'p2_ll'
I1
tp265
a(S'w'
I4
tp266
a(S'tr_tl'
I238
tp267
a(S'tr_ll'
I1
tp268
a(S'w'
I7330
tp269
a(S'p1_tl'
I189
tp270
a(S'p1_ll'
I1
tp271
a(S'w'
I4
tp272
a(S'p2_tl'
I238
tp273
a(S'p2_ll'
I1
tp274
a(S'w'
I1
tp275
a(S'p2_vo'
I7
tp276
a(S'w'
I3
tp277
a(S'tr_tl'
I28
tp278
a(S'tr_ll'
I1
tp279
a(S'tr_th'
I1
tp280
a(S'w'
I7331
tp281
a(S'tr_tl'
I253
tp282
a(S'tr_ll'
I1
tp283
a(S'tr_th'
I0
tp284
a(S'w'
I7338
tp285
a(S'tr_tl'
I238
tp286
a(S'tr_ll'
I1
tp287
a(S'w'
I7337
tp288
a(S'p1_tl'
I168
tp289
a(S'p1_ll'
I1
tp290
a(S'w'
I4
tp291
a(S'p2_tl'
I28
tp292
a(S'p2_ll'
I1
tp293
a(S'p2_th'
I1
tp294
a(S'w'
I3
tp295
a(S'tr_lr'
I48
tp296
a(S'w'
I1
tp297
a(S'tr_tl'
I28
tp298
a(S'tr_ll'
I1
tp299
a(S'tr_th'
I1
tp300
a(S'w'
I22006
tp301
a(S'p1_tl'
I26
tp302
a(S'p1_ll'
I1
tp303
a(S'p1_th'
I2
tp304
a(S'w'
I4
tp305
a(S'p2_tl'
I63
tp306
a(S'p2_ll'
I1
tp307
a(S'w'
I1
tp308
a(S'p2_vo'
I4
tp309
a(S'w'
I2
tp310
a(S'tr_lr'
I36
tp311
a(S'w'
I1
tp312
a(S'tr_tl'
I238
tp313
a(S'tr_ll'
I1
tp314
a(S'tr_th'
I0
tp315
a(S'w'
I3661
tp316
a(S'p1_tl'
I171
tp317
a(S'p1_ll'
I1
tp318
a(S'p1_th'
I1
tp319
a(S'w'
I3669
tp320
a(S'p1_tl'
I26
tp321
a(S'p1_ll'
I1
tp322
a(S'p1_th'
I2
tp323
a(S'w'
I4
tp324
a(S'p2_ll'
I1
tp325
a(S'w'
I4
tp326
a(S'tr_ll'
I1
tp327
a(S'w'
I3661
tp328
a(S'p1_tl'
I171
tp329
a(S'p1_ll'
I1
tp330
a(S'p1_th'
I1
tp331
a(S'w'
I3669
tp332
a(S'p1_tl'
I26
tp333
a(S'p1_ll'
I1
tp334
a(S'p1_th'
I2
tp335
a(S'w'
I4
tp336
a(S'p2_ll'
I1
tp337
a(S'w'
I4
tp338
a(S'tr_ll'
I1
tp339
a(S'w'
I3661
tp340
a(S'p1_tl'
I171
tp341
a(S'p1_ll'
I1
tp342
a(S'p1_th'
I1
tp343
a(S'w'
I3669
tp344
a(S'p1_ll'
I1
tp345
a(S'w'
I4
tp346
a(S'p2_tl'
I28
tp347
a(S'p2_ll'
I1
tp348
a(S'w'
I1
tp349
a(S'p2_vo'
I7
tp350
a(S'w'
I3
tp351
a(S'tr_tl'
I28
tp352
a(S'tr_ll'
I1
tp353
a(S'tr_th'
I1
tp354
a(S'w'
I7330
tp355
a(S'tr_ll'
I1
tp356
a(S'w'
I7338
tp357
a(S'tr_ll'
I1
tp358
a(S'w'
I7337
tp359
a(S'p1_ll'
I1
tp360
a(S'w'
I4
tp361
a(S'p2_ll'
I1
tp362
a(S'w'
I4
tp363
a(S'tr_ll'
I1
tp364
a(S'w'
I7331
tp365
a(S'tr_ll'
I1
tp366
a(S'w'
I7338
tp367
a(S'tr_ll'
I1
tp368
a(S'w'
I7337
tp369
a(S'p1_tl'
I124
tp370
a(S'p1_ll'
I1
tp371
a(S'w'
I4
tp372
a(S'p2_tl'
I253
tp373
a(S'p2_ll'
I1
tp374
a(S'p2_th'
I0
tp375
a(S'w'
I4
tp376
a(S'tr_tl'
I253
tp377
a(S'tr_ll'
I1
tp378
a(S'tr_th'
I0
tp379
a(S'w'
I7331
tp380
a(S'tr_ll'
I1
tp381
a(S'w'
I7338
tp382
a(S'tr_ll'
I1
tp383
a(S'w'
I7337
tp384
a(S'p1_tl'
I28
tp385
a(S'p1_ll'
I1
tp386
a(S'w'
I2
tp387
a(S'p1_du'
I2
tp388
a(S'p1_cv'
I1
tp389
a(S'p1_vo'
I0
tp390
a(S'w'
I48665
tp391
a.