(lp1
(S'clock'
p2
I1789772
tp3
a(S'p1_du'
I1
tp4
a(S'p1_lh'
I1
tp5
a(S'p1_cv'
I1
tp6
a(S'p2_du'
I1
tp7
a(S'p2_lh'
I1
tp8
a(S'p2_cv'
I1
tp9
a(S'tr_lr'
I112
tp10
a(S'w'
I777
tp11
a(S'p1_sp'
I7
tp12
a(S'p1_sn'
I1
tp13
a(S'p1_ss'
I7
tp14
a(S'p1_tl'
I249
tp15
a(S'w'
I1
tp16
a(S'p1_ll'
I11
tp17
a(S'p1_th'
I3
tp18
a(S'w'
I226
tp19
a(S'p2_du'
I2
tp20
a(S'p2_lh'
I0
tp21
a(S'p2_cv'
I0
tp22
a(S'p2_vo'
I15
tp23
a(S'w'
I1
tp24
a(S'p2_sp'
I7
tp25
a(S'p2_sn'
I1
tp26
a(S'p2_tl'
I103
tp27
a(S'w'
I1
tp28
a(S'p2_ll'
I10
tp29
a(S'p2_th'
I1
tp30
a(S'w'
I4
tp31
a(S'tr_lh'
I1
tp32
a(S'tr_lr'
I47
tp33
a(S'w'
I1
tp34
a(S'w'
I1
tp35
a(S'tr_tl'
I190
tp36
a(S'tr_ll'
I16
tp37
a(S'w'
I565
tp38
a(S'p1_du'
I2
tp39
a(S'p1_lh'
I0
tp40
a(S'p1_cv'
I0
tp41
a(S'p1_vo'
I15
tp42
a(S'w'
I1
tp43
a(S'p1_sp'
I4
tp44
a(S'p1_sn'
I0
tp45
a(S'p1_tl'
I13
tp46
a(S'w'
I1
tp47
a(S'p1_ll'
I4
tp48
a(S'p1_th'
I1
tp49
a(S'w'
I5869
tp50
a(S'p1_tl'
I179
tp51
a(S'w'
I1
tp52
a(S'p1_ll'
I4
tp53
a(S'p1_th'
I0
tp54
a(S'w'
I162
tp55
a(S'p2_tl'
I240
tp56
a(S'w'
I1
tp57
a(S'p2_ll'
I10
tp58
a(S'p2_th'
I0
tp59
a(S'w'
I5
tp60
a(S'tr_tl'
I127
tp61
a(S'w'
I1
tp62
a(S'tr_ll'
I16
tp63
a(S'w'
I7168
tp64
a(S'p1_tl'
I134
tp65
a(S'w'
I1
tp66
a(S'p1_ll'
I4
tp67
a(S'w'
I162
tp68
a(S'p2_tl'
I179
tp69
a(S'w'
I1
tp70
a(S'p2_ll'
I10
tp71
a(S'w'
I5
tp72
a(S'tr_tl'
I95
tp73
a(S'w'
I1
tp74
a(S'tr_ll'
I16
tp75
a(S'w'
I7168
tp76
a(S'p1_tl'
I226
tp77
a(S'w'
I1
tp78
a(S'p1_ll'
I4
tp79
a(S'w'
I162
tp80
a(S'p2_tl'
I46
tp81
a(S'w'
I1
tp82
a(S'p2_ll'
I10
tp83
a(S'p2_th'
I1
tp84
a(S'w'
I5
tp85
a(S'tr_tl'
I160
tp86
a(S'w'
I1
tp87
a(S'tr_ll'
I16
tp88
a(S'w'
I6434
tp89
a(S'p1_tl'
I151
tp90
a(S'w'
I1
tp91
a(S'p1_ll'
I4
tp92
a(S'w'
I162
tp93
a(S'p2_tl'
I201
tp94
a(S'w'
I1
tp95
a(S'p2_ll'
I10
tp96
a(S'p2_th'
I0
tp97
a(S'w'
I5
tp98
a(S'tr_tl'
I106
tp99
a(S'w'
I1
tp100
a(S'tr_ll'
I16
tp101
a(S'w'
I7168
tp102
a(S'p1_tl'
I113
tp103
a(S'w'
I1
tp104
a(S'p1_ll'
I4
tp105
a(S'w'
I162
tp106
a(S'p2_tl'
I151
tp107
a(S'w'
I1
tp108
a(S'p2_ll'
I10
tp109
a(S'w'
I5
tp110
a(S'tr_tl'
I80
tp111
a(S'w'
I1
tp112
a(S'tr_ll'
I16
tp113
a(S'w'
I7168
tp114
a(S'p1_tl'
I190
tp115
a(S'w'
I1
tp116
a(S'p1_ll'
I4
tp117
a(S'w'
I162
tp118
a(S'p2_tl'
I254
tp119
a(S'w'
I1
tp120
a(S'p2_ll'
I10
tp121
a(S'w'
I5
tp122
a(S'tr_tl'
I134
tp123
a(S'w'
I1
tp124
a(S'tr_ll'
I16
tp125
a(S'w'
I6434
tp126
a(S'p1_tl'
I127
tp127
a(S'w'
I1
tp128
a(S'p1_ll'
I4
tp129
a(S'w'
I162
tp130
a(S'p2_tl'
I169
tp131
a(S'w'
I1
tp132
a(S'p2_ll'
I10
tp133
a(S'w'
I5
tp134
a(S'tr_tl'
I89
tp135
a(S'w'
I1
tp136
a(S'tr_ll'
I16
tp137
a(S'w'
I7168
tp138
a(S'p1_tl'
I95
tp139
a(S'w'
I1
tp140
a(S'p1_ll'
I4
tp141
a(S'w'
I162
tp142
a(S'p2_tl'
I127
tp143
a(S'w'
I1
tp144
a(S'p2_ll'
I10
tp145
a(S'w'
I5
tp146
a(S'tr_tl'
I67
tp147
a(S'w'
I1
tp148
a(S'tr_ll'
I16
tp149
a(S'w'
I7168
tp150
a(S'p1_tl'
I160
tp151
a(S'w'
I1
tp152
a(S'p1_ll'
I4
tp153
a(S'w'
I162
tp154
a(S'p2_tl'
I213
tp155
a(S'w'
I1
tp156
a(S'p2_ll'
I10
tp157
a(S'w'
I5
tp158
a(S'tr_tl'
I113
tp159
a(S'w'
I1
tp160
a(S'tr_ll'
I16
tp161
a(S'w'
I6434
tp162
a(S'p1_tl'
I106
tp163
a(S'w'
I1
tp164
a(S'p1_ll'
I4
tp165
a(S'w'
I162
tp166
a(S'p2_tl'
I142
tp167
a(S'w'
I1
tp168
a(S'p2_ll'
I10
tp169
a(S'w'
I5
tp170
a(S'tr_tl'
I75
tp171
a(S'w'
I1
tp172
a(S'tr_ll'
I16
tp173
a(S'w'
I7168
tp174
a(S'p1_tl'
I80
tp175
a(S'w'
I1
tp176
a(S'p1_ll'
I4
tp177
a(S'w'
I162
tp178
a(S'p2_tl'
I106
tp179
a(S'w'
I1
tp180
a(S'p2_ll'
I10
tp181
a(S'w'
I5
tp182
a(S'tr_tl'
I56
tp183
a(S'w'
I1
tp184
a(S'tr_ll'
I16
tp185
a(S'w'
I7168
tp186
a(S'p1_tl'
I71
tp187
a(S'w'
I1
tp188
a(S'p1_ll'
I4
tp189
a(S'w'
I162
tp190
a(S'p2_tl'
I95
tp191
a(S'w'
I1
tp192
a(S'p2_ll'
I10
tp193
a(S'w'
I5
tp194
a(S'tr_tl'
I50
tp195
a(S'w'
I1
tp196
a(S'tr_ll'
I16
tp197
a(S'w'
I4967
tp198
a(S'w'
I1
tp199
a(S'p1_ll'
I4
tp200
a(S'w'
I162
tp201
a(S'w'
I1
tp202
a(S'p2_ll'
I10
tp203
a(S'w'
I6
tp204
a(S'tr_ll'
I16
tp205
a(S'w'
I4966
tp206
a(S'w'
I1
tp207
a(S'p1_ll'
I4
tp208
a(S'w'
I162
tp209
a(S'w'
I1
tp210
a(S'p2_ll'
I10
tp211
a(S'w'
I6
tp212
a(S'tr_ll'
I16
tp213
a(S'w'
I10837
tp214
a(S'p1_tl'
I0
tp215
a(S'w'
I1
tp216
a(S'p1_ll'
I4
tp217
a(S'w'
I162
tp218
a(S'p2_tl'
I0
tp219
a(S'w'
I1
tp220
a(S'p2_ll'
I10
tp221
a(S'w'
I5
tp222
a(S'tr_tl'
I0
tp223
a(S'w'
I1
tp224
a(S'tr_ll'
I16
tp225
a(S'w'
I5700
tp226
a(S'p1_tl'
I84
tp227
a(S'w'
I1
tp228
a(S'p1_ll'
I4
tp229
a(S'w'
I162
tp230
a(S'p2_tl'
I113
tp231
a(S'w'
I1
tp232
a(S'p2_ll'
I10
tp233
a(S'w'
I5
tp234
a(S'tr_tl'
I60
tp235
a(S'w'
I1
tp236
a(S'tr_ll'
I16
tp237
a(S'w'
I15240
tp238
a(S'p1_tl'
I80
tp239
a(S'w'
I1
tp240
a(S'p1_ll'
I4
tp241
a(S'w'
I162
tp242
a(S'p2_tl'
I106
tp243
a(S'w'
I1
tp244
a(S'p2_ll'
I10
tp245
a(S'w'
I5
tp246
a(S'tr_tl'
I56
tp247
a(S'w'
I1
tp248
a(S'tr_ll'
I16
tp249
a(S'w'
I15240
tp250
a(S'p1_tl'
I75
tp251
a(S'w'
I1
tp252
a(S'p1_ll'
I4
tp253
a(S'w'
I162
tp254
a(S'p2_tl'
I100
tp255
a(S'w'
I1
tp256
a(S'p2_ll'
I10
tp257
a(S'w'
I5
tp258
a(S'tr_tl'
I53
tp259
a(S'w'
I1
tp260
a(S'tr_ll'
I16
tp261
a(S'w'
I5700
tp262
a(S'p1_tl'
I71
tp263
a(S'w'
I1
tp264
a(S'p1_ll'
I4
tp265
a(S'w'
I162
tp266
a(S'p2_tl'
I95
tp267
a(S'w'
I1
tp268
a(S'p2_ll'
I10
tp269
a(S'w'
I5
tp270
a(S'tr_tl'
I50
tp271
a(S'w'
I1
tp272
a(S'tr_ll'
I16
tp273
a(S'w'
I21110
tp274
a(S'p1_tl'
I190
tp275
a(S'w'
I1
tp276
a(S'p1_ll'
I4
tp277
a(S'w'
I162
tp278
a(S'p2_tl'
I0
tp279
a(S'w'
I1
tp280
a(S'p2_ll'
I10
tp281
a(S'w'
I5
tp282
a(S'tr_tl'
I0
tp283
a(S'w'
I1
tp284
a(S'tr_ll'
I16
tp285
a(S'w'
I4964
tp286
a(S'w'
I1
tp287
a(S'p1_tl'
I151
tp288
a(S'w'
I1
tp289
a(S'p1_ll'
I4
tp290
a(S'w'
I5135
tp291
a(S'p1_tl'
I75
tp292
a(S'w'
I1
tp293
a(S'p1_ll'
I4
tp294
a(S'w'
I5136
tp295
a(S'p1_tl'
I100
tp296
a(S'w'
I1
tp297
a(S'p1_ll'
I4
tp298
a(S'w'
I5135
tp299
a(S'p1_tl'
I190
tp300
a(S'w'
I1
tp301
a(S'p1_ll'
I4
tp302
a(S'w'
I5136
tp303
a(S'p1_tl'
I151
tp304
a(S'w'
I1
tp305
a(S'p1_ll'
I4
tp306
a(S'w'
I5135
tp307
a(S'p1_tl'
I75
tp308
a(S'w'
I1
tp309
a(S'p1_ll'
I4
tp310
a(S'w'
I5136
tp311
a(S'p1_tl'
I100
tp312
a(S'w'
I1
tp313
a(S'p1_ll'
I4
tp314
a(S'w'
I5135
tp315
a(S'p1_tl'
I125
tp316
a(S'w'
I1
tp317
a(S'p1_ll'
I4
tp318
a(S'p1_th'
I1
tp319
a(S'w'
I5136
tp320
a(S'p1_tl'
I46
tp321
a(S'w'
I1
tp322
a(S'p1_ll'
I4
tp323
a(S'w'
I5135
tp324
a(S'p1_tl'
I151
tp325
a(S'w'
I1
tp326
a(S'p1_ll'
I4
tp327
a(S'p1_th'
I0
tp328
a(S'w'
I5136
tp329
a(S'p1_tl'
I201
tp330
a(S'w'
I1
tp331
a(S'p1_ll'
I4
tp332
a(S'w'
I5135
tp333
a(S'p1_tl'
I125
tp334
a(S'w'
I1
tp335
a(S'p1_ll'
I4
tp336
a(S'p1_th'
I1
tp337
a(S'w'
I5136
tp338
a(S'p1_tl'
I46
tp339
a(S'w'
I1
tp340
a(S'p1_ll'
I4
tp341
a(S'w'
I5136
tp342
a(S'p1_tl'
I151
tp343
a(S'w'
I1
tp344
a(S'p1_ll'
I4
tp345
a(S'p1_th'
I0
tp346
a(S'w'
I5135
tp347
a(S'p1_tl'
I201
tp348
a(S'w'
I1
tp349
a(S'p1_ll'
I4
tp350
a(S'w'
I5136
tp351
a(S'p1_tl'
I190
tp352
a(S'w'
I1
tp353
a(S'p1_ll'
I4
tp354
a(S'w'
I5135
tp355
a(S'p1_tl'
I151
tp356
a(S'w'
I1
tp357
a(S'p1_ll'
I4
tp358
a(S'w'
I5136
tp359
a(S'p1_tl'
I75
tp360
a(S'w'
I1
tp361
a(S'p1_ll'
I4
tp362
a(S'w'
I5135
tp363
a(S'p1_tl'
I100
tp364
a(S'w'
I1
tp365
a(S'p1_ll'
I4
tp366
a(S'w'
I5136
tp367
a(S'p1_tl'
I190
tp368
a(S'w'
I1
tp369
a(S'p1_ll'
I4
tp370
a(S'w'
I5135
tp371
a(S'p1_tl'
I151
tp372
a(S'w'
I1
tp373
a(S'p1_ll'
I4
tp374
a(S'w'
I5136
tp375
a(S'p1_tl'
I75
tp376
a(S'w'
I1
tp377
a(S'p1_ll'
I4
tp378
a(S'w'
I5135
tp379
a(S'p1_tl'
I100
tp380
a(S'w'
I1
tp381
a(S'p1_ll'
I4
tp382
a(S'w'
I5136
tp383
a(S'p1_tl'
I125
tp384
a(S'w'
I1
tp385
a(S'p1_ll'
I4
tp386
a(S'p1_th'
I1
tp387
a(S'w'
I5136
tp388
a(S'p1_tl'
I46
tp389
a(S'w'
I1
tp390
a(S'p1_ll'
I4
tp391
a(S'w'
I5135
tp392
a(S'p1_tl'
I151
tp393
a(S'w'
I1
tp394
a(S'p1_ll'
I4
tp395
a(S'p1_th'
I0
tp396
a(S'w'
I5136
tp397
a(S'p1_tl'
I201
tp398
a(S'w'
I1
tp399
a(S'p1_ll'
I4
tp400
a(S'w'
I5135
tp401
a(S'p1_tl'
I125
tp402
a(S'w'
I1
tp403
a(S'p1_ll'
I4
tp404
a(S'p1_th'
I1
tp405
a(S'w'
I5136
tp406
a(S'p1_tl'
I46
tp407
a(S'w'
I1
tp408
a(S'p1_ll'
I4
tp409
a(S'w'
I5135
tp410
a(S'p1_tl'
I151
tp411
a(S'w'
I1
tp412
a(S'p1_ll'
I4
tp413
a(S'p1_th'
I0
tp414
a(S'w'
I5136
tp415
a(S'p1_tl'
I201
tp416
a(S'w'
I1
tp417
a(S'p1_ll'
I4
tp418
a(S'w'
I5135
tp419
a(S'w'
I1
tp420
a(S'p1_ll'
I4
tp421
a(S'w'
I5136
tp422
a(S'p1_tl'
I160
tp423
a(S'w'
I1
tp424
a(S'p1_ll'
I4
tp425
a(S'w'
I5135
tp426
a(S'p1_tl'
I80
tp427
a(S'w'
I1
tp428
a(S'p1_ll'
I4
tp429
a(S'w'
I5136
tp430
a(S'p1_tl'
I106
tp431
a(S'w'
I1
tp432
a(S'p1_ll'
I4
tp433
a(S'w'
I5135
tp434
a(S'p1_tl'
I201
tp435
a(S'w'
I1
tp436
a(S'p1_ll'
I4
tp437
a(S'w'
I5136
tp438
a(S'p1_tl'
I160
tp439
a(S'w'
I1
tp440
a(S'p1_ll'
I4
tp441
a(S'w'
I5136
tp442
a(S'p1_tl'
I80
tp443
a(S'w'
I1
tp444
a(S'p1_ll'
I4
tp445
a(S'w'
I5135
tp446
a(S'p1_tl'
I106
tp447
a(S'w'
I1
tp448
a(S'p1_ll'
I4
tp449
a(S'w'
I5136
tp450
a(S'p1_tl'
I147
tp451
a(S'w'
I1
tp452
a(S'p1_ll'
I4
tp453
a(S'p1_th'
I1
tp454
a(S'w'
I5135
tp455
a(S'p1_tl'
I64
tp456
a(S'w'
I1
tp457
a(S'p1_ll'
I4
tp458
a(S'w'
I5136
tp459
a(S'p1_tl'
I160
tp460
a(S'w'
I1
tp461
a(S'p1_ll'
I4
tp462
a(S'p1_th'
I0
tp463
a(S'w'
I5135
tp464
a(S'p1_tl'
I213
tp465
a(S'w'
I1
tp466
a(S'p1_ll'
I4
tp467
a(S'w'
I5136
tp468
a(S'p1_tl'
I147
tp469
a(S'w'
I1
tp470
a(S'p1_ll'
I4
tp471
a(S'p1_th'
I1
tp472
a(S'w'
I5135
tp473
a(S'p1_tl'
I160
tp474
a(S'w'
I1
tp475
a(S'p1_ll'
I4
tp476
a(S'p1_th'
I0
tp477
a(S'w'
I5136
tp478
a(S'p1_tl'
I80
tp479
a(S'w'
I1
tp480
a(S'p1_ll'
I4
tp481
a(S'w'
I5135
tp482
a(S'p1_tl'
I213
tp483
a(S'w'
I1
tp484
a(S'p1_ll'
I4
tp485
a(S'w'
I5136
tp486
a(S'p1_tl'
I201
tp487
a(S'w'
I1
tp488
a(S'p1_ll'
I4
tp489
a(S'w'
I5135
tp490
a(S'p1_tl'
I160
tp491
a(S'w'
I1
tp492
a(S'p1_ll'
I4
tp493
a(S'w'
I5136
tp494
a(S'p1_tl'
I80
tp495
a(S'w'
I1
tp496
a(S'p1_ll'
I4
tp497
a(S'w'
I5136
tp498
a(S'p1_tl'
I106
tp499
a(S'w'
I1
tp500
a(S'p1_ll'
I4
tp501
a(S'w'
I5135
tp502
a(S'p1_tl'
I201
tp503
a(S'w'
I1
tp504
a(S'p1_ll'
I4
tp505
a(S'w'
I5136
tp506
a(S'p1_tl'
I160
tp507
a(S'w'
I1
tp508
a(S'p1_ll'
I4
tp509
a(S'w'
I5135
tp510
a(S'p1_tl'
I80
tp511
a(S'w'
I1
tp512
a(S'p1_ll'
I4
tp513
a(S'w'
I5136
tp514
a(S'p1_tl'
I106
tp515
a(S'w'
I1
tp516
a(S'p1_ll'
I4
tp517
a(S'w'
I5135
tp518
a(S'p1_tl'
I147
tp519
a(S'w'
I1
tp520
a(S'p1_ll'
I4
tp521
a(S'p1_th'
I1
tp522
a(S'w'
I5136
tp523
a(S'p1_tl'
I64
tp524
a(S'w'
I1
tp525
a(S'p1_ll'
I4
tp526
a(S'w'
I5135
tp527
a(S'p1_tl'
I160
tp528
a(S'w'
I1
tp529
a(S'p1_ll'
I4
tp530
a(S'p1_th'
I0
tp531
a(S'w'
I5136
tp532
a(S'p1_tl'
I213
tp533
a(S'w'
I1
tp534
a(S'p1_ll'
I4
tp535
a(S'w'
I5135
tp536
a(S'p1_tl'
I147
tp537
a(S'w'
I1
tp538
a(S'p1_ll'
I4
tp539
a(S'p1_th'
I1
tp540
a(S'w'
I5136
tp541
a(S'p1_tl'
I160
tp542
a(S'w'
I1
tp543
a(S'p1_ll'
I4
tp544
a(S'p1_th'
I0
tp545
a(S'w'
I5136
tp546
a(S'p1_tl'
I80
tp547
a(S'w'
I1
tp548
a(S'p1_ll'
I4
tp549
a(S'w'
I5135
tp550
a(S'p1_tl'
I213
tp551
a(S'w'
I1
tp552
a(S'p1_ll'
I4
tp553
a(S'w'
I5136
tp554
a(S'w'
I1
tp555
a(S'p1_ll'
I4
tp556
a(S'w'
I5135
tp557
a(S'p1_tl'
I169
tp558
a(S'w'
I1
tp559
a(S'p1_ll'
I4
tp560
a(S'w'
I5136
tp561
a(S'p1_tl'
I84
tp562
a(S'w'
I1
tp563
a(S'p1_ll'
I4
tp564
a(S'w'
I5135
tp565
a(S'p1_tl'
I113
tp566
a(S'w'
I1
tp567
a(S'p1_ll'
I4
tp568
a(S'w'
I5136
tp569
a(S'p1_tl'
I213
tp570
a(S'w'
I1
tp571
a(S'p1_ll'
I4
tp572
a(S'w'
I5135
tp573
a(S'p1_tl'
I169
tp574
a(S'w'
I1
tp575
a(S'p1_ll'
I4
tp576
a(S'w'
I5136
tp577
a(S'p1_tl'
I84
tp578
a(S'w'
I1
tp579
a(S'p1_ll'
I4
tp580
a(S'w'
I5135
tp581
a(S'p1_tl'
I113
tp582
a(S'w'
I1
tp583
a(S'p1_ll'
I4
tp584
a(S'w'
I5136
tp585
a(S'p1_tl'
I171
tp586
a(S'w'
I1
tp587
a(S'p1_ll'
I4
tp588
a(S'p1_th'
I1
tp589
a(S'w'
I5135
tp590
a(S'p1_tl'
I83
tp591
a(S'w'
I1
tp592
a(S'p1_ll'
I4
tp593
a(S'w'
I5136
tp594
a(S'p1_tl'
I169
tp595
a(S'w'
I1
tp596
a(S'p1_ll'
I4
tp597
a(S'p1_th'
I0
tp598
a(S'w'
I5136
tp599
a(S'p1_tl'
I226
tp600
a(S'w'
I1
tp601
a(S'p1_ll'
I4
tp602
a(S'w'
I5135
tp603
a(S'p1_tl'
I171
tp604
a(S'w'
I1
tp605
a(S'p1_ll'
I4
tp606
a(S'p1_th'
I1
tp607
a(S'w'
I5136
tp608
a(S'p1_tl'
I83
tp609
a(S'w'
I1
tp610
a(S'p1_ll'
I4
tp611
a(S'w'
I5135
tp612
a(S'p1_tl'
I169
tp613
a(S'w'
I1
tp614
a(S'p1_ll'
I4
tp615
a(S'p1_th'
I0
tp616
a(S'w'
I5136
tp617
a(S'p1_tl'
I226
tp618
a(S'w'
I1
tp619
a(S'p1_ll'
I4
tp620
a(S'w'
I5135
tp621
a(S'p1_tl'
I213
tp622
a(S'w'
I1
tp623
a(S'p1_ll'
I4
tp624
a(S'w'
I5136
tp625
a(S'p1_tl'
I169
tp626
a(S'w'
I1
tp627
a(S'p1_ll'
I4
tp628
a(S'w'
I5135
tp629
a(S'p1_tl'
I84
tp630
a(S'w'
I1
tp631
a(S'p1_ll'
I4
tp632
a(S'w'
I5136
tp633
a(S'p1_tl'
I113
tp634
a(S'w'
I1
tp635
a(S'p1_ll'
I4
tp636
a(S'w'
I5135
tp637
a(S'p1_tl'
I213
tp638
a(S'w'
I1
tp639
a(S'p1_ll'
I4
tp640
a(S'w'
I5136
tp641
a(S'p1_tl'
I169
tp642
a(S'w'
I1
tp643
a(S'p1_ll'
I4
tp644
a(S'w'
I5136
tp645
a(S'p1_tl'
I84
tp646
a(S'w'
I1
tp647
a(S'p1_ll'
I4
tp648
a(S'w'
I5135
tp649
a(S'p1_tl'
I113
tp650
a(S'w'
I1
tp651
a(S'p1_ll'
I4
tp652
a(S'w'
I5136
tp653
a(S'p1_tl'
I171
tp654
a(S'w'
I1
tp655
a(S'p1_ll'
I4
tp656
a(S'p1_th'
I1
tp657
a(S'w'
I5135
tp658
a(S'p1_tl'
I83
tp659
a(S'w'
I1
tp660
a(S'p1_ll'
I4
tp661
a(S'w'
I5136
tp662
a(S'p1_tl'
I169
tp663
a(S'w'
I1
tp664
a(S'p1_ll'
I4
tp665
a(S'p1_th'
I0
tp666
a(S'w'
I5135
tp667
a(S'p1_tl'
I226
tp668
a(S'w'
I1
tp669
a(S'p1_ll'
I4
tp670
a(S'w'
I5136
tp671
a(S'p1_tl'
I171
tp672
a(S'w'
I1
tp673
a(S'p1_ll'
I4
tp674
a(S'p1_th'
I1
tp675
a(S'w'
I5135
tp676
a(S'p1_tl'
I83
tp677
a(S'w'
I1
tp678
a(S'p1_ll'
I4
tp679
a(S'w'
I5136
tp680
a(S'p1_tl'
I169
tp681
a(S'w'
I1
tp682
a(S'p1_ll'
I4
tp683
a(S'p1_th'
I0
tp684
a(S'w'
I5135
tp685
a(S'p1_tl'
I226
tp686
a(S'w'
I1
tp687
a(S'p1_ll'
I4
tp688
a(S'w'
I5136
tp689
a(S'p1_tl'
I240
tp690
a(S'w'
I1
tp691
a(S'p1_ll'
I4
tp692
a(S'w'
I5135
tp693
a(S'p1_tl'
I190
tp694
a(S'w'
I1
tp695
a(S'p1_ll'
I4
tp696
a(S'w'
I5136
tp697
a(S'p1_tl'
I95
tp698
a(S'w'
I1
tp699
a(S'p1_ll'
I4
tp700
a(S'w'
I5136
tp701
a(S'p1_tl'
I127
tp702
a(S'w'
I1
tp703
a(S'p1_ll'
I4
tp704
a(S'w'
I5135
tp705
a(S'p1_tl'
I240
tp706
a(S'w'
I1
tp707
a(S'p1_ll'
I4
tp708
a(S'w'
I5136
tp709
a(S'p1_tl'
I190
tp710
a(S'w'
I1
tp711
a(S'p1_ll'
I4
tp712
a(S'w'
I5135
tp713
a(S'p1_tl'
I95
tp714
a(S'w'
I1
tp715
a(S'p1_ll'
I4
tp716
a(S'w'
I5136
tp717
a(S'p1_tl'
I127
tp718
a(S'w'
I1
tp719
a(S'p1_ll'
I4
tp720
a(S'w'
I5135
tp721
a(S'p1_tl'
I224
tp722
a(S'w'
I1
tp723
a(S'p1_ll'
I4
tp724
a(S'p1_th'
I1
tp725
a(S'w'
I5136
tp726
a(S'p1_tl'
I125
tp727
a(S'w'
I1
tp728
a(S'p1_ll'
I4
tp729
a(S'w'
I5135
tp730
a(S'p1_tl'
I190
tp731
a(S'w'
I1
tp732
a(S'p1_ll'
I4
tp733
a(S'p1_th'
I0
tp734
a(S'w'
I5136
tp735
a(S'p1_tl'
I254
tp736
a(S'w'
I1
tp737
a(S'p1_ll'
I4
tp738
a(S'w'
I5135
tp739
a(S'p1_tl'
I224
tp740
a(S'w'
I1
tp741
a(S'p1_ll'
I4
tp742
a(S'p1_th'
I1
tp743
a(S'w'
I5136
tp744
a(S'p1_tl'
I125
tp745
a(S'w'
I1
tp746
a(S'p1_ll'
I4
tp747
a(S'w'
I5136
tp748
a(S'p1_tl'
I190
tp749
a(S'w'
I1
tp750
a(S'p1_ll'
I4
tp751
a(S'p1_th'
I0
tp752
a(S'w'
I5135
tp753
a(S'p1_tl'
I254
tp754
a(S'w'
I1
tp755
a(S'p1_ll'
I4
tp756
a(S'w'
I5136
tp757
a(S'p1_tl'
I240
tp758
a(S'w'
I1
tp759
a(S'p1_ll'
I4
tp760
a(S'w'
I5135
tp761
a(S'p1_tl'
I190
tp762
a(S'w'
I1
tp763
a(S'p1_ll'
I4
tp764
a(S'w'
I5136
tp765
a(S'p1_tl'
I95
tp766
a(S'w'
I1
tp767
a(S'p1_ll'
I4
tp768
a(S'w'
I5135
tp769
a(S'p1_tl'
I127
tp770
a(S'w'
I1
tp771
a(S'p1_ll'
I4
tp772
a(S'w'
I5136
tp773
a(S'p1_tl'
I240
tp774
a(S'w'
I1
tp775
a(S'p1_ll'
I4
tp776
a(S'w'
I5135
tp777
a(S'p1_tl'
I190
tp778
a(S'w'
I1
tp779
a(S'p1_ll'
I4
tp780
a(S'w'
I5136
tp781
a(S'p1_tl'
I95
tp782
a(S'w'
I1
tp783
a(S'p1_ll'
I4
tp784
a(S'w'
I5135
tp785
a(S'p1_tl'
I127
tp786
a(S'w'
I1
tp787
a(S'p1_ll'
I4
tp788
a(S'w'
I5136
tp789
a(S'p1_tl'
I224
tp790
a(S'w'
I1
tp791
a(S'p1_ll'
I4
tp792
a(S'p1_th'
I1
tp793
a(S'w'
I5135
tp794
a(S'p1_tl'
I125
tp795
a(S'w'
I1
tp796
a(S'p1_ll'
I4
tp797
a(S'w'
I5136
tp798
a(S'p1_tl'
I190
tp799
a(S'w'
I1
tp800
a(S'p1_ll'
I4
tp801
a(S'p1_th'
I0
tp802
a(S'w'
I5136
tp803
a(S'p1_tl'
I254
tp804
a(S'w'
I1
tp805
a(S'p1_ll'
I4
tp806
a(S'w'
I5135
tp807
a(S'p1_tl'
I224
tp808
a(S'w'
I1
tp809
a(S'p1_ll'
I4
tp810
a(S'p1_th'
I1
tp811
a(S'w'
I5136
tp812
a(S'p1_tl'
I125
tp813
a(S'w'
I1
tp814
a(S'p1_ll'
I4
tp815
a(S'w'
I5135
tp816
a(S'p1_tl'
I190
tp817
a(S'w'
I1
tp818
a(S'p1_ll'
I4
tp819
a(S'p1_th'
I0
tp820
a(S'w'
I5136
tp821
a(S'p1_tl'
I254
tp822
a(S'w'
I1
tp823
a(S'p1_ll'
I4
tp824
a(S'w'
I5135
tp825
a(S'p1_tl'
I190
tp826
a(S'w'
I1
tp827
a(S'p1_ll'
I4
tp828
a(S'w'
I5135
tp829
a.