(lp1
(S'clock'
p2
I1789772
tp3
a(S'ch_no'
I1
tp4
a(S'ch_tr'
I1
tp5
a(S'ch_p2'
I1
tp6
a(S'ch_p1'
I1
tp7
a(S'w'
I1
tp8
a(S'fc_mo'
I1
tp9
a(S'w'
I2
tp10
a(S'p1_lh'
I1
tp11
a(S'p1_cv'
I1
tp12
a(S'p1_vo'
I15
tp13
a(S'w'
I2
tp14
a(S'p1_sp'
I7
tp15
a(S'p1_sn'
I1
tp16
a(S'p1_ss'
I7
tp17
a(S'w'
I2
tp18
a(S'p2_lh'
I1
tp19
a(S'p2_cv'
I1
tp20
a(S'p2_vo'
I15
tp21
a(S'w'
I2
tp22
a(S'p2_sp'
I7
tp23
a(S'p2_sn'
I1
tp24
a(S'p2_ss'
I7
tp25
a(S'w'
I2
tp26
a(S'tr_lh'
I1
tp27
a(S'tr_lr'
I127
tp28
a(S'w'
I2
tp29
a(S'tr_ll'
I0
tp30
a(S'w'
I1
tp31
a(S'p2_ll'
I0
tp32
a(S'w'
I1
tp33
a(S'p1_ll'
I0
tp34
a(S'w'
I2
tp35
a(S'p1_tl'
I45
tp36
a(S'p1_ll'
I0
tp37
a(S'p1_th'
I1
tp38
a(S'w'
I2
tp39
a(S'p2_tl'
I147
tp40
a(S'p2_ll'
I0
tp41
a(S'p2_th'
I1
tp42
a(S'w'
I2
tp43
a(S'tr_tl'
I103
tp44
a(S'tr_ll'
I0
tp45
a(S'tr_th'
I1
tp46
a(S'w'
I714
tp47
a(S'fc_mo'
I1
tp48
a(S'w'
I734
tp49
a(S'fc_mo'
I1
tp50
a(S'w'
I734
tp51
a(S'fc_mo'
I1
tp52
a(S'w'
I734
tp53
a(S'fc_mo'
I1
tp54
a(S'w'
I733
tp55
a(S'fc_mo'
I1
tp56
a(S'w'
I734
tp57
a(S'fc_mo'
I1
tp58
a(S'w'
I1
tp59
a(S'p1_tl'
I0
tp60
a(S'w'
I1
tp61
a(S'p1_ll'
I0
tp62
a(S'p1_th'
I0
tp63
a(S'w'
I1
tp64
a(S'p2_tl'
I0
tp65
a(S'w'
I1
tp66
a(S'p2_ll'
I0
tp67
a(S'p2_th'
I0
tp68
a(S'w'
I730
tp69
a(S'fc_mo'
I1
tp70
a(S'w'
I734
tp71
a(S'fc_mo'
I1
tp72
a(S'w'
I1
tp73
a(S'p1_tl'
I45
tp74
a(S'w'
I1
tp75
a(S'p1_ll'
I0
tp76
a(S'p1_th'
I1
tp77
a(S'w'
I1
tp78
a(S'p2_tl'
I147
tp79
a(S'w'
I1
tp80
a(S'p2_ll'
I0
tp81
a(S'p2_th'
I1
tp82
a(S'w'
I730
tp83
a(S'fc_mo'
I1
tp84
a(S'w'
I733
tp85
a(S'fc_mo'
I1
tp86
a(S'w'
I734
tp87
a(S'fc_mo'
I1
tp88
a(S'w'
I734
tp89
a(S'fc_mo'
I1
tp90
a(S'w'
I734
tp91
a(S'fc_mo'
I1
tp92
a(S'w'
I734
tp93
a(S'fc_mo'
I1
tp94
a(S'w'
I1
tp95
a(S'tr_tl'
I0
tp96
a(S'w'
I1
tp97
a(S'tr_ll'
I0
tp98
a(S'tr_th'
I0
tp99
a(S'p2_tl'
I0
tp100
a(S'w'
I1
tp101
a(S'p2_ll'
I0
tp102
a(S'p2_th'
I0
tp103
a(S'p1_tl'
I0
tp104
a(S'p1_ll'
I0
tp105
a(S'p1_th'
I0
tp106
a(S'w'
I730
tp107
a(S'fc_mo'
I1
tp108
a(S'w'
I734
tp109
a(S'fc_mo'
I1
tp110
a(S'w'
I1
tp111
a(S'p1_tl'
I45
tp112
a(S'w'
I1
tp113
a(S'p1_ll'
I0
tp114
a(S'p1_th'
I1
tp115
a(S'w'
I1
tp116
a(S'p2_tl'
I147
tp117
a(S'w'
I1
tp118
a(S'p2_ll'
I0
tp119
a(S'p2_th'
I1
tp120
a(S'w'
I1
tp121
a(S'tr_tl'
I103
tp122
a(S'w'
I1
tp123
a(S'tr_ll'
I0
tp124
a(S'tr_th'
I1
tp125
a(S'w'
I728
tp126
a(S'fc_mo'
I1
tp127
a(S'w'
I734
tp128
a(S'fc_mo'
I1
tp129
a(S'w'
I734
tp130
a(S'fc_mo'
I1
tp131
a(S'w'
I733
tp132
a(S'fc_mo'
I1
tp133
a(S'w'
I734
tp134
a(S'fc_mo'
I1
tp135
a(S'w'
I734
tp136
a(S'fc_mo'
I1
tp137
a(S'w'
I1
tp138
a(S'p1_tl'
I0
tp139
a(S'w'
I1
tp140
a(S'p1_ll'
I0
tp141
a(S'p1_th'
I0
tp142
a(S'w'
I1
tp143
a(S'p2_tl'
I0
tp144
a(S'w'
I1
tp145
a(S'p2_ll'
I0
tp146
a(S'p2_th'
I0
tp147
a(S'w'
I730
tp148
a(S'fc_mo'
I1
tp149
a(S'w'
I734
tp150
a(S'fc_mo'
I1
tp151
a(S'w'
I1
tp152
a(S'p1_tl'
I12
tp153
a(S'w'
I1
tp154
a(S'p1_ll'
I0
tp155
a(S'p1_th'
I1
tp156
a(S'w'
I1
tp157
a(S'p2_tl'
I63
tp158
a(S'w'
I1
tp159
a(S'p2_ll'
I0
tp160
a(S'p2_th'
I1
tp161
a(S'w'
I1
tp162
a(S'tr_tl'
I147
tp163
a(S'w'
I728
tp164
a(S'fc_mo'
I1
tp165
a(S'w'
I734
tp166
a(S'fc_mo'
I1
tp167
a(S'w'
I734
tp168
a(S'fc_mo'
I1
tp169
a(S'w'
I734
tp170
a(S'fc_mo'
I1
tp171
a(S'w'
I733
tp172
a(S'fc_mo'
I1
tp173
a(S'w'
I734
tp174
a(S'fc_mo'
I1
tp175
a(S'w'
I734
tp176
a(S'fc_mo'
I1
tp177
a(S'w'
I734
tp178
a(S'fc_mo'
I1
tp179
a(S'w'
I734
tp180
a(S'fc_mo'
I1
tp181
a(S'w'
I733
tp182
a(S'fc_mo'
I1
tp183
a(S'w'
I734
tp184
a(S'fc_mo'
I1
tp185
a(S'w'
I734
tp186
a(S'fc_mo'
I1
tp187
a(S'w'
I734
tp188
a(S'fc_mo'
I1
tp189
a(S'w'
I734
tp190
a(S'fc_mo'
I1
tp191
a(S'w'
I733
tp192
a(S'fc_mo'
I1
tp193
a(S'w'
I734
tp194
a(S'fc_mo'
I1
tp195
a(S'w'
I734
tp196
a(S'fc_mo'
I1
tp197
a(S'w'
I734
tp198
a(S'fc_mo'
I1
tp199
a(S'w'
I734
tp200
a(S'fc_mo'
I1
tp201
a(S'w'
I733
tp202
a(S'fc_mo'
I1
tp203
a(S'w'
I734
tp204
a(S'fc_mo'
I1
tp205
a(S'w'
I734
tp206
a(S'fc_mo'
I1
tp207
a(S'w'
I1
tp208
a(S'p1_tl'
I0
tp209
a(S'w'
I1
tp210
a(S'p1_ll'
I0
tp211
a(S'p1_th'
I0
tp212
a(S'w'
I1
tp213
a(S'p2_tl'
I0
tp214
a(S'w'
I1
tp215
a(S'p2_ll'
I0
tp216
a(S'p2_th'
I0
tp217
a(S'w'
I730
tp218
a(S'fc_mo'
I1
tp219
a(S'w'
I734
tp220
a(S'fc_mo'
I1
tp221
a(S'w'
I1
tp222
a(S'p1_tl'
I63
tp223
a(S'w'
I1
tp224
a(S'p1_ll'
I0
tp225
a(S'p1_th'
I1
tp226
a(S'w'
I1
tp227
a(S'p2_tl'
I103
tp228
a(S'w'
I1
tp229
a(S'p2_ll'
I0
tp230
a(S'p2_th'
I1
tp231
a(S'w'
I729
tp232
a(S'fc_mo'
I1
tp233
a(S'w'
I734
tp234
a(S'fc_mo'
I1
tp235
a(S'w'
I734
tp236
a(S'fc_mo'
I1
tp237
a(S'w'
I734
tp238
a(S'fc_mo'
I1
tp239
a(S'w'
I733
tp240
a(S'fc_mo'
I1
tp241
a(S'w'
I734
tp242
a(S'fc_mo'
I1
tp243
a(S'w'
I734
tp244
a(S'fc_mo'
I1
tp245
a(S'w'
I734
tp246
a(S'fc_mo'
I1
tp247
a(S'w'
I734
tp248
a(S'fc_mo'
I1
tp249
a(S'w'
I733
tp250
a(S'fc_mo'
I1
tp251
a(S'w'
I734
tp252
a(S'fc_mo'
I1
tp253
a(S'w'
I734
tp254
a(S'fc_mo'
I1
tp255
a(S'w'
I734
tp256
a(S'fc_mo'
I1
tp257
a(S'w'
I734
tp258
a(S'fc_mo'
I1
tp259
a(S'w'
I1
tp260
a(S'p1_tl'
I0
tp261
a(S'w'
I1
tp262
a(S'p1_ll'
I0
tp263
a(S'p1_th'
I0
tp264
a(S'w'
I1
tp265
a(S'p2_tl'
I0
tp266
a(S'w'
I1
tp267
a(S'p2_ll'
I0
tp268
a(S'p2_th'
I0
tp269
a(S'w'
I729
tp270
a(S'fc_mo'
I1
tp271
a(S'w'
I734
tp272
a(S'fc_mo'
I1
tp273
a(S'w'
I1
tp274
a(S'p1_tl'
I238
tp275
a(S'w'
I2
tp276
a(S'p2_tl'
I171
tp277
a(S'p2_ll'
I0
tp278
a(S'p2_th'
I1
tp279
a(S'w'
I731
tp280
a(S'fc_mo'
I1
tp281
a(S'w'
I734
tp282
a(S'fc_mo'
I1
tp283
a(S'w'
I734
tp284
a(S'fc_mo'
I1
tp285
a(S'w'
I733
tp286
a(S'fc_mo'
I1
tp287
a(S'w'
I734
tp288
a(S'fc_mo'
I1
tp289
a(S'w'
I734
tp290
a(S'fc_mo'
I1
tp291
a(S'w'
I1
tp292
a(S'p1_tl'
I0
tp293
a(S'w'
I2
tp294
a(S'p2_tl'
I0
tp295
a(S'p2_ll'
I0
tp296
a(S'p2_th'
I0
tp297
a(S'w'
I731
tp298
a(S'fc_mo'
I1
tp299
a(S'w'
I734
tp300
a(S'fc_mo'
I1
tp301
a(S'w'
I1
tp302
a(S'p1_tl'
I12
tp303
a(S'w'
I1
tp304
a(S'p1_ll'
I0
tp305
a(S'p1_th'
I1
tp306
a(S'w'
I1
tp307
a(S'p2_tl'
I63
tp308
a(S'w'
I1
tp309
a(S'p2_ll'
I0
tp310
a(S'p2_th'
I1
tp311
a(S'w'
I1
tp312
a(S'tr_tl'
I171
tp313
a(S'w'
I728
tp314
a(S'fc_mo'
I1
tp315
a(S'w'
I734
tp316
a(S'fc_mo'
I1
tp317
a(S'w'
I734
tp318
a(S'fc_mo'
I1
tp319
a(S'w'
I734
tp320
a(S'fc_mo'
I1
tp321
a(S'w'
I733
tp322
a(S'fc_mo'
I1
tp323
a(S'w'
I734
tp324
a(S'fc_mo'
I1
tp325
a(S'w'
I734
tp326
a(S'fc_mo'
I1
tp327
a(S'w'
I734
tp328
a(S'fc_mo'
I1
tp329
a(S'w'
I734
tp330
a(S'fc_mo'
I1
tp331
a(S'w'
I733
tp332
a(S'fc_mo'
I1
tp333
a(S'w'
I734
tp334
a(S'fc_mo'
I1
tp335
a(S'w'
I734
tp336
a(S'fc_mo'
I1
tp337
a(S'w'
I734
tp338
a(S'fc_mo'
I1
tp339
a(S'w'
I734
tp340
a(S'fc_mo'
I1
tp341
a(S'w'
I733
tp342
a(S'fc_mo'
I1
tp343
a(S'w'
I734
tp344
a(S'fc_mo'
I1
tp345
a(S'w'
I734
tp346
a(S'fc_mo'
I1
tp347
a(S'w'
I734
tp348
a(S'fc_mo'
I1
tp349
a(S'w'
I734
tp350
a(S'fc_mo'
I1
tp351
a(S'w'
I733
tp352
a(S'fc_mo'
I1
tp353
a(S'w'
I734
tp354
a(S'fc_mo'
I1
tp355
a(S'w'
I734
tp356
a(S'fc_mo'
I1
tp357
a(S'w'
I1
tp358
a(S'tr_tl'
I0
tp359
a(S'w'
I1
tp360
a(S'tr_ll'
I0
tp361
a(S'tr_th'
I0
tp362
a(S'p2_tl'
I0
tp363
a(S'p2_ll'
I0
tp364
a(S'p2_th'
I0
tp365
a(S'w'
I1
tp366
a(S'p1_tl'
I0
tp367
a(S'p1_ll'
I0
tp368
a(S'p1_th'
I0
tp369
a(S'w'
I731
tp370
a(S'fc_mo'
I1
tp371
a(S'w'
I734
tp372
a(S'fc_mo'
I1
tp373
a(S'w'
I1
tp374
a(S'p1_tl'
I63
tp375
a(S'w'
I1
tp376
a(S'p1_ll'
I0
tp377
a(S'p1_th'
I1
tp378
a(S'w'
I1
tp379
a(S'p2_tl'
I103
tp380
a(S'w'
I1
tp381
a(S'p2_ll'
I0
tp382
a(S'p2_th'
I1
tp383
a(S'w'
I1
tp384
a(S'tr_tl'
I171
tp385
a(S'w'
I1
tp386
a(S'tr_ll'
I0
tp387
a(S'tr_th'
I1
tp388
a(S'w'
I727
tp389
a(S'fc_mo'
I1
tp390
a(S'w'
I734
tp391
a(S'fc_mo'
I1
tp392
a(S'w'
I734
tp393
a(S'fc_mo'
I1
tp394
a(S'w'
I734
tp395
a(S'fc_mo'
I1
tp396
a(S'w'
I733
tp397
a(S'fc_mo'
I1
tp398
a(S'w'
I734
tp399
a(S'fc_mo'
I1
tp400
a(S'w'
I734
tp401
a(S'fc_mo'
I1
tp402
a(S'w'
I734
tp403
a(S'fc_mo'
I1
tp404
a(S'w'
I734
tp405
a(S'fc_mo'
I1
tp406
a(S'w'
I733
tp407
a(S'fc_mo'
I1
tp408
a(S'w'
I734
tp409
a(S'fc_mo'
I1
tp410
a(S'w'
I734
tp411
a(S'fc_mo'
I1
tp412
a(S'w'
I734
tp413
a(S'fc_mo'
I1
tp414
a(S'w'
I734
tp415
a(S'fc_mo'
I1
tp416
a(S'w'
I1
tp417
a(S'tr_tl'
I0
tp418
a(S'w'
I1
tp419
a(S'tr_ll'
I0
tp420
a(S'tr_th'
I0
tp421
a(S'p2_tl'
I0
tp422
a(S'p2_ll'
I0
tp423
a(S'p2_th'
I0
tp424
a(S'w'
I1
tp425
a(S'p1_tl'
I0
tp426
a(S'p1_ll'
I0
tp427
a(S'p1_th'
I0
tp428
a(S'w'
I730
tp429
a(S'fc_mo'
I1
tp430
a(S'w'
I734
tp431
a(S'fc_mo'
I1
tp432
a(S'w'
I1
tp433
a(S'p1_tl'
I45
tp434
a(S'w'
I1
tp435
a(S'p1_ll'
I0
tp436
a(S'p1_th'
I1
tp437
a(S'w'
I1
tp438
a(S'p2_tl'
I103
tp439
a(S'w'
I1
tp440
a(S'p2_ll'
I0
tp441
a(S'p2_th'
I1
tp442
a(S'w'
I1
tp443
a(S'tr_tl'
I171
tp444
a(S'w'
I1
tp445
a(S'tr_ll'
I0
tp446
a(S'tr_th'
I1
tp447
a(S'w'
I728
tp448
a(S'fc_mo'
I1
tp449
a(S'w'
I734
tp450
a(S'fc_mo'
I1
tp451
a(S'w'
I734
tp452
a(S'fc_mo'
I1
tp453
a(S'w'
I733
tp454
a(S'fc_mo'
I1
tp455
a(S'w'
I734
tp456
a(S'fc_mo'
I1
tp457
a(S'w'
I734
tp458
a(S'fc_mo'
I1
tp459
a(S'w'
I1
tp460
a(S'tr_tl'
I0
tp461
a(S'w'
I1
tp462
a(S'tr_ll'
I0
tp463
a(S'tr_th'
I0
tp464
a(S'p2_tl'
I0
tp465
a(S'p2_ll'
I0
tp466
a(S'p2_th'
I0
tp467
a(S'w'
I1
tp468
a(S'p1_tl'
I0
tp469
a(S'p1_ll'
I0
tp470
a(S'p1_th'
I0
tp471
a(S'w'
I731
tp472
a(S'fc_mo'
I1
tp473
a(S'w'
I734
tp474
a(S'fc_mo'
I1
tp475
a(S'w'
I1
tp476
a(S'p1_tl'
I12
tp477
a(S'w'
I1
tp478
a(S'p1_ll'
I0
tp479
a(S'p1_th'
I1
tp480
a(S'w'
I1
tp481
a(S'p2_tl'
I63
tp482
a(S'w'
I1
tp483
a(S'p2_ll'
I0
tp484
a(S'p2_th'
I1
tp485
a(S'w'
I1
tp486
a(S'tr_tl'
I45
tp487
a(S'w'
I1
tp488
a(S'tr_ll'
I0
tp489
a(S'tr_th'
I1
tp490
a(S'w'
I727
tp491
a(S'fc_mo'
I1
tp492
a(S'w'
I734
tp493
a(S'fc_mo'
I1
tp494
a(S'w'
I734
tp495
a(S'fc_mo'
I1
tp496
a(S'w'
I734
tp497
a(S'fc_mo'
I1
tp498
a(S'w'
I733
tp499
a(S'fc_mo'
I1
tp500
a(S'w'
I734
tp501
a(S'fc_mo'
I1
tp502
a(S'w'
I1
tp503
a(S'tr_tl'
I0
tp504
a(S'w'
I1
tp505
a(S'tr_ll'
I0
tp506
a(S'tr_th'
I0
tp507
a(S'p2_tl'
I0
tp508
a(S'p2_ll'
I0
tp509
a(S'p2_th'
I0
tp510
a(S'w'
I1
tp511
a(S'p1_tl'
I0
tp512
a(S'p1_ll'
I0
tp513
a(S'p1_th'
I0
tp514
a(S'w'
I731
tp515
a(S'fc_mo'
I1
tp516
a(S'w'
I734
tp517
a(S'fc_mo'
I1
tp518
a(S'w'
I1
tp519
a(S'p1_tl'
I238
tp520
a(S'w'
I1
tp521
a(S'p1_ll'
I0
tp522
a(S'w'
I1
tp523
a(S'p2_tl'
I12
tp524
a(S'w'
I1
tp525
a(S'p2_ll'
I0
tp526
a(S'p2_th'
I1
tp527
a(S'w'
I1
tp528
a(S'tr_tl'
I45
tp529
a(S'w'
I1
tp530
a(S'tr_ll'
I0
tp531
a(S'tr_th'
I1
tp532
a(S'w'
I728
tp533
a(S'fc_mo'
I1
tp534
a(S'w'
I733
tp535
a(S'fc_mo'
I1
tp536
a(S'w'
I734
tp537
a(S'fc_mo'
I1
tp538
a(S'w'
I734
tp539
a(S'fc_mo'
I1
tp540
a(S'w'
I734
tp541
a(S'fc_mo'
I1
tp542
a(S'w'
I734
tp543
a(S'fc_mo'
I1
tp544
a(S'w'
I1
tp545
a(S'tr_tl'
I0
tp546
a(S'w'
I1
tp547
a(S'tr_ll'
I0
tp548
a(S'tr_th'
I0
tp549
a(S'p2_tl'
I0
tp550
a(S'p2_ll'
I0
tp551
a(S'p2_th'
I0
tp552
a(S'w'
I1
tp553
a(S'p1_tl'
I0
tp554
a(S'p1_ll'
I0
tp555
a(S'w'
I730
tp556
a(S'fc_mo'
I1
tp557
a(S'w'
I734
tp558
a(S'fc_mo'
I1
tp559
a(S'w'
I1
tp560
a(S'p1_tl'
I225
tp561
a(S'w'
I1
tp562
a(S'p1_ll'
I0
tp563
a(S'w'
I1
tp564
a(S'p2_tl'
I238
tp565
a(S'w'
I1
tp566
a(S'p2_ll'
I0
tp567
a(S'w'
I1
tp568
a(S'tr_tl'
I45
tp569
a(S'w'
I1
tp570
a(S'tr_ll'
I0
tp571
a(S'tr_th'
I1
tp572
a(S'w'
I728
tp573
a(S'fc_mo'
I1
tp574
a(S'w'
I734
tp575
a(S'fc_mo'
I1
tp576
a(S'w'
I734
tp577
a(S'fc_mo'
I1
tp578
a(S'w'
I733
tp579
a(S'fc_mo'
I1
tp580
a(S'w'
I734
tp581
a(S'fc_mo'
I1
tp582
a(S'w'
I734
tp583
a(S'fc_mo'
I1
tp584
a(S'w'
I1
tp585
a(S'tr_tl'
I0
tp586
a(S'w'
I1
tp587
a(S'tr_ll'
I0
tp588
a(S'tr_th'
I0
tp589
a(S'p2_tl'
I0
tp590
a(S'p2_ll'
I0
tp591
a(S'w'
I1
tp592
a(S'p1_tl'
I0
tp593
a(S'p1_ll'
I0
tp594
a(S'w'
I731
tp595
a(S'fc_mo'
I1
tp596
a(S'w'
I734
tp597
a(S'fc_mo'
I1
tp598
a(S'w'
I1
tp599
a(S'p1_tl'
I212
tp600
a(S'w'
I1
tp601
a(S'p1_ll'
I0
tp602
a(S'w'
I1
tp603
a(S'p2_tl'
I82
tp604
a(S'w'
I1
tp605
a(S'p2_ll'
I0
tp606
a(S'p2_th'
I1
tp607
a(S'w'
I1
tp608
a(S'tr_tl'
I63
tp609
a(S'w'
I1
tp610
a(S'tr_ll'
I0
tp611
a(S'tr_th'
I1
tp612
a(S'w'
I727
tp613
a(S'fc_mo'
I1
tp614
a(S'w'
I734
tp615
a(S'fc_mo'
I1
tp616
a(S'w'
I734
tp617
a(S'fc_mo'
I1
tp618
a(S'w'
I734
tp619
a(S'fc_mo'
I1
tp620
a(S'w'
I733
tp621
a(S'fc_mo'
I1
tp622
a(S'w'
I734
tp623
a(S'fc_mo'
I1
tp624
a(S'w'
I734
tp625
a(S'fc_mo'
I1
tp626
a(S'w'
I734
tp627
a(S'fc_mo'
I1
tp628
a(S'w'
I734
tp629
a(S'fc_mo'
I1
tp630
a(S'w'
I733
tp631
a(S'fc_mo'
I1
tp632
a(S'w'
I734
tp633
a(S'fc_mo'
I1
tp634
a(S'w'
I734
tp635
a(S'fc_mo'
I1
tp636
a(S'w'
I734
tp637
a(S'fc_mo'
I1
tp638
a(S'w'
I734
tp639
a(S'fc_mo'
I1
tp640
a(S'w'
I733
tp641
a(S'fc_mo'
I1
tp642
a(S'w'
I734
tp643
a(S'fc_mo'
I1
tp644
a(S'w'
I734
tp645
a(S'fc_mo'
I1
tp646
a(S'w'
I734
tp647
a(S'fc_mo'
I1
tp648
a(S'w'
I734
tp649
a(S'fc_mo'
I1
tp650
a(S'w'
I733
tp651
a(S'fc_mo'
I1
tp652
a(S'w'
I734
tp653
a(S'fc_mo'
I1
tp654
a(S'w'
I734
tp655
a(S'fc_mo'
I1
tp656
a(S'w'
I734
tp657
a(S'fc_mo'
I1
tp658
a(S'w'
I734
tp659
a(S'fc_mo'
I1
tp660
a(S'w'
I733
tp661
a(S'fc_mo'
I1
tp662
a(S'w'
I734
tp663
a(S'fc_mo'
I1
tp664
a(S'w'
I734
tp665
a(S'fc_mo'
I1
tp666
a(S'w'
I734
tp667
a(S'fc_mo'
I1
tp668
a(S'w'
I733
tp669
a(S'fc_mo'
I1
tp670
a(S'w'
I734
tp671
a(S'fc_mo'
I1
tp672
a(S'w'
I734
tp673
a(S'fc_mo'
I1
tp674
a(S'w'
I734
tp675
a(S'fc_mo'
I1
tp676
a(S'w'
I734
tp677
a(S'fc_mo'
I1
tp678
a(S'w'
I733
tp679
a(S'fc_mo'
I1
tp680
a(S'w'
I734
tp681
a(S'fc_mo'
I1
tp682
a(S'w'
I734
tp683
a(S'fc_mo'
I1
tp684
a(S'w'
I734
tp685
a(S'fc_mo'
I1
tp686
a(S'w'
I734
tp687
a(S'fc_mo'
I1
tp688
a(S'w'
I733
tp689
a(S'fc_mo'
I1
tp690
a(S'w'
I734
tp691
a(S'fc_mo'
I1
tp692
a(S'w'
I734
tp693
a(S'fc_mo'
I1
tp694
a(S'w'
I734
tp695
a(S'fc_mo'
I1
tp696
a(S'w'
I734
tp697
a(S'fc_mo'
I1
tp698
a(S'w'
I733
tp699
a(S'fc_mo'
I1
tp700
a(S'w'
I734
tp701
a(S'fc_mo'
I1
tp702
a(S'w'
I734
tp703
a(S'fc_mo'
I1
tp704
a(S'w'
I734
tp705
a(S'fc_mo'
I1
tp706
a(S'w'
I734
tp707
a(S'fc_mo'
I1
tp708
a(S'w'
I733
tp709
a(S'fc_mo'
I1
tp710
a(S'w'
I734
tp711
a(S'fc_mo'
I1
tp712
a(S'w'
I734
tp713
a(S'fc_mo'
I1
tp714
a(S'w'
I734
tp715
a(S'fc_mo'
I1
tp716
a(S'w'
I733
tp717
a(S'fc_mo'
I1
tp718
a(S'w'
I734
tp719
a(S'fc_mo'
I1
tp720
a(S'w'
I734
tp721
a(S'fc_mo'
I1
tp722
a(S'w'
I734
tp723
a(S'fc_mo'
I1
tp724
a(S'w'
I734
tp725
a(S'fc_mo'
I1
tp726
a(S'w'
I733
tp727
a(S'fc_mo'
I1
tp728
a(S'w'
I1
tp729
a(S'tr_tl'
I0
tp730
a(S'w'
I1
tp731
a(S'tr_ll'
I0
tp732
a(S'tr_th'
I0
tp733
a(S'p2_tl'
I0
tp734
a(S'p2_ll'
I0
tp735
a(S'p2_th'
I0
tp736
a(S'w'
I1
tp737
a(S'p1_tl'
I0
tp738
a(S'p1_ll'
I0
tp739
a(S'w'
I731
tp740
a(S'fc_mo'
I1
tp741
a(S'w'
I734
tp742
a(S'fc_mo'
I1
tp743
a(S'w'
I734
tp744
a(S'fc_mo'
I1
tp745
a(S'w'
I734
tp746
a(S'fc_mo'
I1
tp747
a(S'w'
I733
tp748
a(S'fc_mo'
I1
tp749
a(S'w'
I734
tp750
a(S'fc_mo'
I1
tp751
a(S'w'
I734
tp752
a(S'fc_mo'
I1
tp753
a(S'w'
I734
tp754
a(S'fc_mo'
I1
tp755
a(S'w'
I734
tp756
a(S'fc_mo'
I1
tp757
a(S'w'
I733
tp758
a(S'fc_mo'
I1
tp759
a(S'w'
I734
tp760
a(S'fc_mo'
I1
tp761
a(S'w'
I734
tp762
a(S'fc_mo'
I1
tp763
a(S'w'
I734
tp764
a(S'fc_mo'
I1
tp765
a(S'w'
I734
tp766
a(S'fc_mo'
I1
tp767
a(S'w'
I733
tp768
a(S'fc_mo'
I1
tp769
a(S'w'
I734
tp770
a(S'fc_mo'
I1
tp771
a(S'w'
I734
tp772
a(S'fc_mo'
I1
tp773
a(S'w'
I734
tp774
a(S'fc_mo'
I1
tp775
a(S'w'
I733
tp776
a(S'fc_mo'
I1
tp777
a(S'w'
I734
tp778
a(S'fc_mo'
I1
tp779
a(S'w'
I734
tp780
a(S'fc_mo'
I1
tp781
a(S'w'
I734
tp782
a(S'fc_mo'
I1
tp783
a(S'w'
I734
tp784
a(S'fc_mo'
I1
tp785
a(S'w'
I733
tp786
a(S'fc_mo'
I1
tp787
a(S'w'
I734
tp788
a(S'fc_mo'
I1
tp789
a(S'w'
I734
tp790
a(S'fc_mo'
I1
tp791
a(S'w'
I734
tp792
a(S'fc_mo'
I1
tp793
a(S'w'
I734
tp794
a(S'fc_mo'
I1
tp795
a(S'w'
I733
tp796
a(S'fc_mo'
I1
tp797
a(S'w'
I734
tp798
a(S'fc_mo'
I1
tp799
a(S'w'
I734
tp800
a(S'fc_mo'
I1
tp801
a(S'w'
I734
tp802
a(S'fc_mo'
I1
tp803
a(S'w'
I734
tp804
a(S'fc_mo'
I1
tp805
a(S'w'
I733
tp806
a(S'fc_mo'
I1
tp807
a(S'w'
I734
tp808
a(S'fc_mo'
I1
tp809
a(S'w'
I734
tp810
a(S'fc_mo'
I1
tp811
a(S'w'
I734
tp812
a(S'fc_mo'
I1
tp813
a(S'w'
I734
tp814
a(S'fc_mo'
I1
tp815
a(S'w'
I733
tp816
a(S'fc_mo'
I1
tp817
a(S'w'
I734
tp818
a(S'fc_mo'
I1
tp819
a(S'w'
I734
tp820
a(S'fc_mo'
I1
tp821
a(S'w'
I734
tp822
a(S'fc_mo'
I1
tp823
a(S'w'
I733
tp824
a(S'fc_mo'
I1
tp825
a(S'w'
I734
tp826
a(S'fc_mo'
I1
tp827
a(S'w'
I734
tp828
a(S'fc_mo'
I1
tp829
a(S'w'
I734
tp830
a(S'fc_mo'
I1
tp831
a(S'w'
I734
tp832
a(S'fc_mo'
I1
tp833
a(S'w'
I733
tp834
a(S'fc_mo'
I1
tp835
a(S'w'
I734
tp836
a(S'fc_mo'
I1
tp837
a(S'w'
I734
tp838
a(S'fc_mo'
I1
tp839
a(S'w'
I734
tp840
a(S'fc_mo'
I1
tp841
a(S'w'
I734
tp842
a(S'fc_mo'
I1
tp843
a(S'w'
I733
tp844
a(S'fc_mo'
I1
tp845
a(S'w'
I734
tp846
a(S'fc_mo'
I1
tp847
a(S'w'
I734
tp848
a(S'fc_mo'
I1
tp849
a(S'w'
I734
tp850
a(S'fc_mo'
I1
tp851
a(S'w'
I734
tp852
a(S'fc_mo'
I1
tp853
a(S'w'
I733
tp854
a(S'fc_mo'
I1
tp855
a(S'w'
I734
tp856
a(S'fc_mo'
I1
tp857
a(S'w'
I734
tp858
a(S'fc_mo'
I1
tp859
a(S'w'
I734
tp860
a(S'fc_mo'
I1
tp861
a(S'w'
I734
tp862
a(S'fc_mo'
I1
tp863
a(S'w'
I733
tp864
a(S'fc_mo'
I1
tp865
a(S'w'
I734
tp866
a(S'fc_mo'
I1
tp867
a(S'w'
I394
tp868
a.