(lp1
(S'clock'
p2
I1789773
tp3
a(S'ch_no'
I1
tp4
a(S'ch_tr'
I1
tp5
a(S'ch_p2'
I1
tp6
a(S'ch_p1'
I1
tp7
a(S'w'
I1
tp8
a(S'fc_mo'
I1
tp9
a(S'w'
I118
tp10
a(S'no_ll'
I0
tp11
a(S'w'
I1
tp12
a(S'no_np'
I9
tp13
a(S'w'
I1
tp14
a(S'w'
I1
tp15
a(S'no_lh'
I1
tp16
a(S'no_vo'
I1
tp17
a(S'w'
I1
tp18
a(S'tr_ll'
I4
tp19
a(S'tr_th'
I2
tp20
a(S'w'
I1
tp21
a(S'tr_tl'
I59
tp22
a(S'w'
I1
tp23
a(S'tr_lh'
I1
tp24
a(S'tr_lr'
I127
tp25
a(S'w'
I1
tp26
a(S'p2_ll'
I4
tp27
a(S'p2_th'
I1
tp28
a(S'w'
I1
tp29
a(S'p2_tl'
I123
tp30
a(S'w'
I1
tp31
a(S'p2_sp'
I7
tp32
a(S'p2_sn'
I1
tp33
a(S'p2_ss'
I7
tp34
a(S'w'
I1
tp35
a(S'p2_du'
I2
tp36
a(S'p2_lh'
I1
tp37
a(S'p2_cv'
I1
tp38
a(S'p2_vo'
I11
tp39
a(S'w'
I1
tp40
a(S'p1_ll'
I4
tp41
a(S'p1_th'
I1
tp42
a(S'w'
I1
tp43
a(S'p1_tl'
I125
tp44
a(S'w'
I1
tp45
a(S'p1_sp'
I7
tp46
a(S'p1_sn'
I1
tp47
a(S'p1_ss'
I7
tp48
a(S'w'
I1
tp49
a(S'p1_du'
I1
tp50
a(S'p1_lh'
I1
tp51
a(S'p1_cv'
I1
tp52
a(S'p1_vo'
I13
tp53
a(S'w'
I1387
tp54
a(S'no_cv'
I1
tp55
a(S'no_vo'
I0
tp56
a(S'w'
I2194
tp57
a(S'ch_no'
I1
tp58
a(S'ch_tr'
I1
tp59
a(S'ch_p2'
I0
tp60
a(S'ch_p1'
I0
tp61
a(S'w'
I11
tp62
a(S'p2_ll'
I0
tp63
a(S'p2_th'
I0
tp64
a(S'w'
I1
tp65
a(S'p2_tl'
I0
tp66
a(S'w'
I2
tp67
a(S'p1_ll'
I0
tp68
a(S'p1_th'
I0
tp69
a(S'w'
I1
tp70
a(S'p1_tl'
I0
tp71
a(S'w'
I3685
tp72
a(S'ch_no'
I1
tp73
a(S'ch_tr'
I1
tp74
a(S'ch_p2'
I1
tp75
a(S'ch_p1'
I1
tp76
a(S'w'
I6
tp77
a(S'no_ll'
I0
tp78
a(S'w'
I1
tp79
a(S'no_np'
I2
tp80
a(S'w'
I1
tp81
a(S'no_cv'
I0
tp82
a(S'w'
I4
tp83
a(S'p2_ll'
I4
tp84
a(S'p2_th'
I1
tp85
a(S'w'
I1
tp86
a(S'p2_tl'
I27
tp87
a(S'w'
I2
tp88
a(S'p1_ll'
I4
tp89
a(S'p1_th'
I1
tp90
a(S'w'
I1
tp91
a(S'p1_tl'
I29
tp92
a(S'w'
I643
tp93
a(S'fc_mo'
I1
tp94
a(S'w'
I51
tp95
a(S'no_cv'
I1
tp96
a(S'w'
I2928
tp97
a(S'ch_no'
I1
tp98
a(S'ch_tr'
I1
tp99
a(S'ch_p2'
I0
tp100
a(S'ch_p1'
I0
tp101
a(S'w'
I11
tp102
a(S'p2_ll'
I0
tp103
a(S'p2_th'
I0
tp104
a(S'w'
I1
tp105
a(S'p2_tl'
I0
tp106
a(S'w'
I2
tp107
a(S'p1_ll'
I0
tp108
a(S'p1_th'
I0
tp109
a(S'w'
I1
tp110
a(S'p1_tl'
I0
tp111
a(S'w'
I3681
tp112
a(S'ch_no'
I1
tp113
a(S'ch_tr'
I1
tp114
a(S'ch_p2'
I1
tp115
a(S'ch_p1'
I1
tp116
a(S'w'
I6
tp117
a(S'no_ll'
I0
tp118
a(S'w'
I2
tp119
a(S'no_cv'
I0
tp120
a(S'w'
I4
tp121
a(S'p2_ll'
I4
tp122
a(S'w'
I1
tp123
a(S'p2_tl'
I211
tp124
a(S'w'
I2
tp125
a(S'p1_ll'
I4
tp126
a(S'w'
I1
tp127
a(S'p1_tl'
I213
tp128
a(S'w'
I698
tp129
a(S'no_cv'
I1
tp130
a(S'w'
I2928
tp131
a(S'ch_no'
I1
tp132
a(S'ch_tr'
I1
tp133
a(S'ch_p2'
I0
tp134
a(S'ch_p1'
I0
tp135
a(S'w'
I11
tp136
a(S'p2_ll'
I0
tp137
a(S'w'
I1
tp138
a(S'p2_tl'
I0
tp139
a(S'w'
I2
tp140
a(S'p1_ll'
I0
tp141
a(S'w'
I1
tp142
a(S'p1_tl'
I0
tp143
a(S'w'
I3688
tp144
a(S'ch_no'
I1
tp145
a(S'ch_tr'
I1
tp146
a(S'ch_p2'
I1
tp147
a(S'ch_p1'
I1
tp148
a(S'w'
I7
tp149
a(S'no_ll'
I0
tp150
a(S'no_np'
I9
tp151
a(S'w'
I2
tp152
a(S'no_cv'
I0
tp153
a(S'no_vo'
I1
tp154
a(S'w'
I4
tp155
a(S'p2_ll'
I4
tp156
a(S'w'
I1
tp157
a(S'p2_tl'
I224
tp158
a(S'w'
I2
tp159
a(S'p1_ll'
I4
tp160
a(S'w'
I1
tp161
a(S'p1_tl'
I226
tp162
a(S'w'
I1424
tp163
a(S'no_cv'
I1
tp164
a(S'no_vo'
I0
tp165
a(S'w'
I5890
tp166
a(S'no_ll'
I0
tp167
a(S'w'
I1
tp168
a(S'no_np'
I2
tp169
a(S'w'
I2
tp170
a(S'no_cv'
I0
tp171
a(S'w'
I711
tp172
a(S'no_cv'
I1
tp173
a(S'w'
I6623
tp174
a(S'no_ll'
I0
tp175
a(S'w'
I3
tp176
a(S'no_cv'
I0
tp177
a(S'w'
I712
tp178
a(S'no_cv'
I1
tp179
a(S'w'
I2194
tp180
a(S'ch_no'
I1
tp181
a(S'ch_tr'
I1
tp182
a(S'ch_p2'
I0
tp183
a(S'ch_p1'
I0
tp184
a(S'w'
I11
tp185
a(S'p2_ll'
I0
tp186
a(S'w'
I1
tp187
a(S'p2_tl'
I0
tp188
a(S'w'
I2
tp189
a(S'p1_ll'
I0
tp190
a(S'w'
I1
tp191
a(S'p1_tl'
I0
tp192
a(S'w'
I4418
tp193
a(S'ch_no'
I1
tp194
a(S'ch_tr'
I1
tp195
a(S'ch_p2'
I1
tp196
a(S'ch_p1'
I1
tp197
a(S'w'
I6
tp198
a(S'no_ll'
I0
tp199
a(S'w'
I1
tp200
a(S'no_np'
I7
tp201
a(S'w'
I2
tp202
a(S'no_cv'
I0
tp203
a(S'no_vo'
I2
tp204
a(S'w'
I3
tp205
a(S'p2_ll'
I4
tp206
a(S'p2_th'
I1
tp207
a(S'w'
I1
tp208
a(S'p2_tl'
I27
tp209
a(S'w'
I2
tp210
a(S'p1_ll'
I4
tp211
a(S'p1_th'
I1
tp212
a(S'w'
I1
tp213
a(S'p1_tl'
I29
tp214
a(S'w'
I7316
tp215
a(S'no_ll'
I1
tp216
a(S'w'
I1
tp217
a(S'no_np'
I2
tp218
a(S'w'
I2
tp219
a(S'no_vo'
I0
tp220
a(S'w'
I714
tp221
a(S'no_cv'
I1
tp222
a(S'w'
I2194
tp223
a(S'ch_no'
I1
tp224
a(S'ch_tr'
I1
tp225
a(S'ch_p2'
I0
tp226
a(S'ch_p1'
I0
tp227
a(S'w'
I11
tp228
a(S'p2_ll'
I0
tp229
a(S'p2_th'
I0
tp230
a(S'w'
I1
tp231
a(S'p2_tl'
I0
tp232
a(S'w'
I2
tp233
a(S'p1_ll'
I0
tp234
a(S'p1_th'
I0
tp235
a(S'w'
I1
tp236
a(S'p1_tl'
I0
tp237
a(S'w'
I4451
tp238
a(S'ch_no'
I1
tp239
a(S'ch_tr'
I1
tp240
a(S'ch_p2'
I1
tp241
a(S'ch_p1'
I1
tp242
a(S'w'
I6
tp243
a(S'no_ll'
I1
tp244
a(S'w'
I1
tp245
a(S'no_np'
I9
tp246
a(S'w'
I1
tp247
a(S'no_cv'
I0
tp248
a(S'no_vo'
I1
tp249
a(S'w'
I1
tp250
a(S'tr_ll'
I8
tp251
a(S'tr_th'
I1
tp252
a(S'w'
I1
tp253
a(S'tr_tl'
I64
tp254
a(S'w'
I2
tp255
a(S'p2_ll'
I4
tp256
a(S'w'
I1
tp257
a(S'p2_tl'
I252
tp258
a(S'w'
I2
tp259
a(S'p1_ll'
I4
tp260
a(S'w'
I1
tp261
a(S'p1_tl'
I254
tp262
a(S'w'
I1395
tp263
a(S'no_cv'
I1
tp264
a(S'no_vo'
I0
tp265
a(S'w'
I2195
tp266
a(S'ch_no'
I1
tp267
a(S'ch_tr'
I1
tp268
a(S'ch_p2'
I0
tp269
a(S'ch_p1'
I0
tp270
a(S'w'
I11
tp271
a(S'p2_ll'
I0
tp272
a(S'w'
I1
tp273
a(S'p2_tl'
I0
tp274
a(S'w'
I2
tp275
a(S'p1_ll'
I0
tp276
a(S'w'
I1
tp277
a(S'p1_tl'
I0
tp278
a(S'w'
I3685
tp279
a(S'ch_no'
I1
tp280
a(S'ch_tr'
I1
tp281
a(S'ch_p2'
I1
tp282
a(S'ch_p1'
I1
tp283
a(S'w'
I6
tp284
a(S'no_ll'
I1
tp285
a(S'w'
I1
tp286
a(S'no_np'
I2
tp287
a(S'w'
I1
tp288
a(S'no_cv'
I0
tp289
a(S'w'
I4
tp290
a(S'p2_ll'
I4
tp291
a(S'p2_th'
I1
tp292
a(S'w'
I1
tp293
a(S'p2_tl'
I62
tp294
a(S'w'
I2
tp295
a(S'p1_ll'
I4
tp296
a(S'p1_th'
I1
tp297
a(S'w'
I1
tp298
a(S'p1_tl'
I64
tp299
a(S'w'
I694
tp300
a(S'no_cv'
I1
tp301
a(S'w'
I2928
tp302
a(S'ch_no'
I1
tp303
a(S'ch_tr'
I1
tp304
a(S'ch_p2'
I0
tp305
a(S'ch_p1'
I0
tp306
a(S'w'
I11
tp307
a(S'p2_ll'
I0
tp308
a(S'p2_th'
I0
tp309
a(S'w'
I1
tp310
a(S'p2_tl'
I0
tp311
a(S'w'
I2
tp312
a(S'p1_ll'
I0
tp313
a(S'p1_th'
I0
tp314
a(S'w'
I1
tp315
a(S'p1_tl'
I0
tp316
a(S'w'
I3681
tp317
a(S'ch_no'
I1
tp318
a(S'ch_tr'
I1
tp319
a(S'ch_p2'
I1
tp320
a(S'ch_p1'
I1
tp321
a(S'w'
I6
tp322
a(S'no_ll'
I1
tp323
a(S'w'
I3
tp324
a(S'no_cv'
I0
tp325
a(S'w'
I3
tp326
a(S'p2_ll'
I4
tp327
a(S'w'
I1
tp328
a(S'p2_tl'
I238
tp329
a(S'w'
I2
tp330
a(S'p1_ll'
I4
tp331
a(S'w'
I1
tp332
a(S'p1_tl'
I240
tp333
a(S'w'
I697
tp334
a(S'no_cv'
I1
tp335
a(S'w'
I2929
tp336
a(S'ch_no'
I1
tp337
a(S'ch_tr'
I1
tp338
a(S'ch_p2'
I0
tp339
a(S'ch_p1'
I0
tp340
a(S'w'
I11
tp341
a(S'p2_ll'
I0
tp342
a(S'w'
I1
tp343
a(S'p2_tl'
I0
tp344
a(S'w'
I2
tp345
a(S'p1_ll'
I0
tp346
a(S'w'
I1
tp347
a(S'p1_tl'
I0
tp348
a(S'w'
I3688
tp349
a(S'ch_no'
I1
tp350
a(S'ch_tr'
I1
tp351
a(S'ch_p2'
I1
tp352
a(S'ch_p1'
I1
tp353
a(S'w'
I6
tp354
a(S'no_ll'
I1
tp355
a(S'w'
I1
tp356
a(S'no_np'
I9
tp357
a(S'w'
I2
tp358
a(S'no_cv'
I0
tp359
a(S'no_vo'
I1
tp360
a(S'w'
I4
tp361
a(S'p2_ll'
I4
tp362
a(S'p2_tl'
I252
tp363
a(S'w'
I3
tp364
a(S'p1_ll'
I4
tp365
a(S'w'
I1
tp366
a(S'p1_tl'
I254
tp367
a(S'w'
I1423
tp368
a(S'no_cv'
I1
tp369
a(S'no_vo'
I0
tp370
a(S'w'
I5891
tp371
a(S'no_ll'
I1
tp372
a(S'w'
I1
tp373
a(S'no_np'
I2
tp374
a(S'w'
I2
tp375
a(S'no_cv'
I0
tp376
a(S'w'
I710
tp377
a(S'no_cv'
I1
tp378
a(S'w'
I6623
tp379
a(S'no_ll'
I1
tp380
a(S'w'
I2
tp381
a(S'no_cv'
I0
tp382
a(S'w'
I713
tp383
a(S'no_cv'
I1
tp384
a(S'w'
I2195
tp385
a(S'ch_no'
I1
tp386
a(S'ch_tr'
I1
tp387
a(S'ch_p2'
I0
tp388
a(S'ch_p1'
I0
tp389
a(S'w'
I11
tp390
a(S'p2_ll'
I0
tp391
a(S'w'
I1
tp392
a(S'p2_tl'
I0
tp393
a(S'w'
I2
tp394
a(S'p1_ll'
I0
tp395
a(S'w'
I1
tp396
a(S'p1_tl'
I0
tp397
a(S'w'
I4417
tp398
a(S'ch_no'
I1
tp399
a(S'ch_tr'
I1
tp400
a(S'ch_p2'
I1
tp401
a(S'ch_p1'
I1
tp402
a(S'w'
I6
tp403
a(S'no_ll'
I1
tp404
a(S'w'
I1
tp405
a(S'no_np'
I7
tp406
a(S'w'
I2
tp407
a(S'no_cv'
I0
tp408
a(S'no_vo'
I2
tp409
a(S'w'
I3
tp410
a(S'p2_ll'
I4
tp411
a(S'p2_th'
I1
tp412
a(S'w'
I1
tp413
a(S'p2_tl'
I62
tp414
a(S'w'
I2
tp415
a(S'p1_ll'
I4
tp416
a(S'p1_th'
I1
tp417
a(S'w'
I1
tp418
a(S'p1_tl'
I64
tp419
a(S'w'
I7316
tp420
a(S'no_ll'
I2
tp421
a(S'w'
I1
tp422
a(S'no_np'
I2
tp423
a(S'w'
I2
tp424
a(S'no_vo'
I0
tp425
a(S'w'
I714
tp426
a(S'no_cv'
I1
tp427
a(S'w'
I2194
tp428
a(S'ch_no'
I1
tp429
a(S'ch_tr'
I1
tp430
a(S'ch_p2'
I0
tp431
a(S'ch_p1'
I0
tp432
a(S'w'
I11
tp433
a(S'p2_ll'
I0
tp434
a(S'p2_th'
I0
tp435
a(S'w'
I1
tp436
a(S'p2_tl'
I0
tp437
a(S'w'
I2
tp438
a(S'p1_ll'
I0
tp439
a(S'p1_th'
I0
tp440
a(S'w'
I1
tp441
a(S'p1_tl'
I0
tp442
a(S'w'
I4457
tp443
a(S'ch_no'
I1
tp444
a(S'ch_tr'
I1
tp445
a(S'ch_p2'
I1
tp446
a(S'ch_p1'
I1
tp447
a(S'w'
I6
tp448
a(S'no_ll'
I2
tp449
a(S'w'
I1
tp450
a(S'no_np'
I9
tp451
a(S'w'
I2
tp452
a(S'no_cv'
I0
tp453
a(S'no_vo'
I1
tp454
a(S'tr_ll'
I12
tp455
a(S'tr_th'
I0
tp456
a(S'w'
I1
tp457
a(S'tr_tl'
I240
tp458
a(S'w'
I3
tp459
a(S'p2_ll'
I4
tp460
a(S'p2_th'
I1
tp461
a(S'p2_tl'
I27
tp462
a(S'w'
I3
tp463
a(S'p1_ll'
I4
tp464
a(S'p1_th'
I1
tp465
a(S'w'
I1
tp466
a(S'p1_tl'
I29
tp467
a(S'w'
I1389
tp468
a(S'no_cv'
I1
tp469
a(S'no_vo'
I0
tp470
a(S'w'
I2194
tp471
a(S'ch_no'
I1
tp472
a(S'ch_tr'
I1
tp473
a(S'ch_p2'
I0
tp474
a(S'ch_p1'
I0
tp475
a(S'w'
I11
tp476
a(S'p2_ll'
I0
tp477
a(S'p2_th'
I0
tp478
a(S'w'
I1
tp479
a(S'p2_tl'
I0
tp480
a(S'w'
I2
tp481
a(S'p1_ll'
I0
tp482
a(S'p1_th'
I0
tp483
a(S'w'
I1
tp484
a(S'p1_tl'
I0
tp485
a(S'w'
I3685
tp486
a(S'ch_no'
I1
tp487
a(S'ch_tr'
I1
tp488
a(S'ch_p2'
I1
tp489
a(S'ch_p1'
I1
tp490
a(S'w'
I6
tp491
a(S'no_ll'
I2
tp492
a(S'w'
I1
tp493
a(S'no_np'
I2
tp494
a(S'w'
I1
tp495
a(S'no_cv'
I0
tp496
a(S'w'
I4
tp497
a(S'p2_ll'
I4
tp498
a(S'p2_th'
I1
tp499
a(S'w'
I1
tp500
a(S'p2_tl'
I101
tp501
a(S'w'
I2
tp502
a(S'p1_ll'
I4
tp503
a(S'p1_th'
I1
tp504
a(S'w'
I1
tp505
a(S'p1_tl'
I103
tp506
a(S'w'
I694
tp507
a(S'no_cv'
I1
tp508
a(S'w'
I2928
tp509
a(S'ch_no'
I1
tp510
a(S'ch_tr'
I1
tp511
a(S'ch_p2'
I0
tp512
a(S'ch_p1'
I0
tp513
a(S'w'
I11
tp514
a(S'p2_ll'
I0
tp515
a(S'p2_th'
I0
tp516
a(S'w'
I1
tp517
a(S'p2_tl'
I0
tp518
a(S'w'
I2
tp519
a(S'p1_ll'
I0
tp520
a(S'p1_th'
I0
tp521
a(S'w'
I1
tp522
a(S'p1_tl'
I0
tp523
a(S'w'
I3681
tp524
a(S'ch_no'
I1
tp525
a(S'ch_tr'
I1
tp526
a(S'ch_p2'
I1
tp527
a(S'ch_p1'
I1
tp528
a(S'w'
I6
tp529
a(S'no_ll'
I2
tp530
a(S'w'
I2
tp531
a(S'no_cv'
I0
tp532
a(S'w'
I4
tp533
a(S'p2_ll'
I4
tp534
a(S'p2_th'
I1
tp535
a(S'w'
I1
tp536
a(S'p2_tl'
I27
tp537
a(S'w'
I2
tp538
a(S'p1_ll'
I4
tp539
a(S'p1_th'
I1
tp540
a(S'w'
I1
tp541
a(S'p1_tl'
I29
tp542
a(S'w'
I698
tp543
a(S'no_cv'
I1
tp544
a(S'w'
I2928
tp545
a(S'ch_no'
I1
tp546
a(S'ch_tr'
I1
tp547
a(S'ch_p2'
I0
tp548
a(S'ch_p1'
I0
tp549
a(S'w'
I11
tp550
a(S'p2_ll'
I0
tp551
a(S'p2_th'
I0
tp552
a(S'w'
I1
tp553
a(S'p2_tl'
I0
tp554
a(S'w'
I2
tp555
a(S'p1_ll'
I0
tp556
a(S'p1_th'
I0
tp557
a(S'w'
I1
tp558
a(S'p1_tl'
I0
tp559
a(S'w'
I3688
tp560
a(S'ch_no'
I1
tp561
a(S'ch_tr'
I1
tp562
a(S'ch_p2'
I1
tp563
a(S'ch_p1'
I1
tp564
a(S'w'
I7
tp565
a(S'no_ll'
I2
tp566
a(S'w'
I1
tp567
a(S'no_np'
I9
tp568
a(S'w'
I1
tp569
a(S'no_cv'
I0
tp570
a(S'no_vo'
I1
tp571
a(S'w'
I4
tp572
a(S'p2_ll'
I4
tp573
a(S'w'
I1
tp574
a(S'p2_tl'
I238
tp575
a(S'w'
I2
tp576
a(S'p1_ll'
I4
tp577
a(S'w'
I1
tp578
a(S'p1_tl'
I240
tp579
a(S'w'
I1424
tp580
a(S'no_cv'
I1
tp581
a(S'no_vo'
I0
tp582
a(S'w'
I5890
tp583
a(S'no_ll'
I2
tp584
a(S'w'
I1
tp585
a(S'no_np'
I2
tp586
a(S'w'
I2
tp587
a(S'no_cv'
I0
tp588
a(S'w'
I711
tp589
a(S'no_cv'
I1
tp590
a(S'w'
I1460
tp591
a(S'ch_no'
I1
tp592
a(S'ch_tr'
I1
tp593
a(S'ch_p2'
I0
tp594
a(S'ch_p1'
I0
tp595
a(S'w'
I11
tp596
a(S'p2_ll'
I0
tp597
a(S'w'
I1
tp598
a(S'p2_tl'
I0
tp599
a(S'w'
I2
tp600
a(S'p1_ll'
I0
tp601
a(S'w'
I1
tp602
a(S'p1_tl'
I0
tp603
a(S'w'
I5153
tp604
a(S'ch_no'
I1
tp605
a(S'ch_tr'
I1
tp606
a(S'ch_p2'
I1
tp607
a(S'ch_p1'
I1
tp608
a(S'w'
I7
tp609
a(S'no_ll'
I2
tp610
a(S'w'
I2
tp611
a(S'no_cv'
I0
tp612
a(S'w'
I4
tp613
a(S'p2_ll'
I4
tp614
a(S'w'
I1
tp615
a(S'p2_tl'
I252
tp616
a(S'w'
I2
tp617
a(S'p1_ll'
I4
tp618
a(S'w'
I1
tp619
a(S'p1_tl'
I254
tp620
a(S'w'
I693
tp621
a(S'no_cv'
I1
tp622
a(S'w'
I6622
tp623
a(S'no_ll'
I2
tp624
a(S'w'
I1
tp625
a(S'no_np'
I7
tp626
a(S'w'
I1
tp627
a(S'no_cv'
I0
tp628
a(S'no_vo'
I2
tp629
a(S'w'
I2174
tp630
a(S'ch_no'
I1
tp631
a(S'ch_tr'
I1
tp632
a(S'ch_p2'
I0
tp633
a(S'ch_p1'
I0
tp634
a(S'w'
I11
tp635
a(S'p2_ll'
I0
tp636
a(S'w'
I1
tp637
a(S'p2_tl'
I0
tp638
a(S'w'
I2
tp639
a(S'p1_ll'
I0
tp640
a(S'w'
I1
tp641
a(S'p1_tl'
I0
tp642
a(S'w'
I5155
tp643
a(S'ch_no'
I1
tp644
a(S'ch_tr'
I1
tp645
a(S'ch_p2'
I1
tp646
a(S'ch_p1'
I1
tp647
a(S'w'
I7
tp648
a(S'no_ll'
I3
tp649
a(S'w'
I1
tp650
a(S'no_np'
I2
tp651
a(S'w'
I1
tp652
a(S'no_vo'
I0
tp653
a(S'w'
I4
tp654
a(S'p2_ll'
I4
tp655
a(S'p2_th'
I1
tp656
a(S'w'
I1
tp657
a(S'p2_tl'
I27
tp658
a(S'w'
I2
tp659
a(S'p1_ll'
I4
tp660
a(S'p1_th'
I1
tp661
a(S'w'
I1
tp662
a(S'p1_tl'
I29
tp663
a(S'w'
I690
tp664
a(S'no_cv'
I1
tp665
a(S'w'
I2929
tp666
a(S'ch_no'
I1
tp667
a(S'ch_tr'
I1
tp668
a(S'ch_p2'
I0
tp669
a(S'ch_p1'
I0
tp670
a(S'w'
I11
tp671
a(S'p2_ll'
I0
tp672
a(S'p2_th'
I0
tp673
a(S'w'
I1
tp674
a(S'p2_tl'
I0
tp675
a(S'w'
I3
tp676
a(S'p1_ll'
I0
tp677
a(S'p1_th'
I0
tp678
a(S'p1_tl'
I0
tp679
a(S'w'
I3720
tp680
a(S'ch_no'
I1
tp681
a(S'ch_tr'
I1
tp682
a(S'ch_p2'
I1
tp683
a(S'ch_p1'
I1
tp684
a(S'w'
I6
tp685
a(S'no_ll'
I3
tp686
a(S'w'
I1
tp687
a(S'no_np'
I9
tp688
a(S'w'
I2
tp689
a(S'no_cv'
I0
tp690
a(S'no_vo'
I1
tp691
a(S'w'
I1
tp692
a(S'tr_ll'
I16
tp693
a(S'tr_tl'
I254
tp694
a(S'w'
I3
tp695
a(S'p2_ll'
I4
tp696
a(S'p2_th'
I1
tp697
a(S'w'
I1
tp698
a(S'p2_tl'
I27
tp699
a(S'w'
I2
tp700
a(S'p1_ll'
I4
tp701
a(S'p1_th'
I1
tp702
a(S'w'
I1
tp703
a(S'p1_tl'
I29
tp704
a(S'w'
I1391
tp705
a(S'no_cv'
I1
tp706
a(S'no_vo'
I0
tp707
a(S'w'
I2194
tp708
a(S'ch_no'
I1
tp709
a(S'ch_tr'
I1
tp710
a(S'ch_p2'
I0
tp711
a(S'ch_p1'
I0
tp712
a(S'w'
I11
tp713
a(S'p2_ll'
I0
tp714
a(S'p2_th'
I0
tp715
a(S'w'
I1
tp716
a(S'p2_tl'
I0
tp717
a(S'w'
I3
tp718
a(S'p1_ll'
I0
tp719
a(S'p1_th'
I0
tp720
a(S'p1_tl'
I0
tp721
a(S'w'
I3688
tp722
a(S'ch_no'
I1
tp723
a(S'ch_tr'
I1
tp724
a(S'ch_p2'
I1
tp725
a(S'ch_p1'
I1
tp726
a(S'w'
I6
tp727
a(S'no_ll'
I3
tp728
a(S'w'
I1
tp729
a(S'no_np'
I2
tp730
a(S'w'
I1
tp731
a(S'no_cv'
I0
tp732
a(S'w'
I4
tp733
a(S'p2_ll'
I4
tp734
a(S'p2_th'
I1
tp735
a(S'w'
I1
tp736
a(S'p2_tl'
I44
tp737
a(S'w'
I2
tp738
a(S'p1_ll'
I4
tp739
a(S'p1_th'
I1
tp740
a(S'w'
I1
tp741
a(S'p1_tl'
I46
tp742
a(S'w'
I691
tp743
a(S'no_cv'
I1
tp744
a(S'w'
I2928
tp745
a(S'ch_no'
I1
tp746
a(S'ch_tr'
I1
tp747
a(S'ch_p2'
I0
tp748
a(S'ch_p1'
I0
tp749
a(S'w'
I11
tp750
a(S'p2_ll'
I0
tp751
a(S'p2_th'
I0
tp752
a(S'w'
I1
tp753
a(S'p2_tl'
I0
tp754
a(S'w'
I2
tp755
a(S'p1_ll'
I0
tp756
a(S'p1_th'
I0
tp757
a(S'w'
I1
tp758
a(S'p1_tl'
I0
tp759
a(S'w'
I3681
tp760
a(S'ch_no'
I1
tp761
a(S'ch_tr'
I1
tp762
a(S'ch_p2'
I1
tp763
a(S'ch_p1'
I1
tp764
a(S'w'
I6
tp765
a(S'no_ll'
I3
tp766
a(S'w'
I2
tp767
a(S'no_cv'
I0
tp768
a(S'w'
I4
tp769
a(S'p2_ll'
I4
tp770
a(S'p2_th'
I1
tp771
a(S'w'
I1
tp772
a(S'p2_tl'
I81
tp773
a(S'w'
I2
tp774
a(S'p1_ll'
I4
tp775
a(S'p1_th'
I1
tp776
a(S'w'
I1
tp777
a(S'p1_tl'
I83
tp778
a(S'w'
I698
tp779
a(S'no_cv'
I1
tp780
a(S'w'
I2928
tp781
a(S'ch_no'
I1
tp782
a(S'ch_tr'
I1
tp783
a(S'ch_p2'
I0
tp784
a(S'ch_p1'
I0
tp785
a(S'w'
I11
tp786
a(S'p2_ll'
I0
tp787
a(S'p2_th'
I0
tp788
a(S'w'
I1
tp789
a(S'p2_tl'
I0
tp790
a(S'w'
I2
tp791
a(S'p1_ll'
I0
tp792
a(S'p1_th'
I0
tp793
a(S'w'
I1
tp794
a(S'p1_tl'
I0
tp795
a(S'w'
I3688
tp796
a(S'ch_no'
I1
tp797
a(S'ch_tr'
I1
tp798
a(S'ch_p2'
I1
tp799
a(S'ch_p1'
I1
tp800
a(S'w'
I7
tp801
a(S'no_ll'
I3
tp802
a(S'w'
I1
tp803
a(S'no_np'
I9
tp804
a(S'w'
I1
tp805
a(S'no_cv'
I0
tp806
a(S'no_vo'
I1
tp807
a(S'w'
I4
tp808
a(S'p2_ll'
I4
tp809
a(S'p2_th'
I1
tp810
a(S'w'
I1
tp811
a(S'p2_tl'
I44
tp812
a(S'w'
I2
tp813
a(S'p1_ll'
I4
tp814
a(S'p1_th'
I1
tp815
a(S'w'
I1
tp816
a(S'p1_tl'
I46
tp817
a(S'w'
I1424
tp818
a(S'no_cv'
I1
tp819
a(S'no_vo'
I0
tp820
a(S'w'
I5887
tp821
a(S'no_ll'
I3
tp822
a(S'w'
I1
tp823
a(S'no_np'
I2
tp824
a(S'w'
I1
tp825
a(S'no_cv'
I0
tp826
a(S'w'
I715
tp827
a(S'no_cv'
I1
tp828
a(S'w'
I6627
tp829
a(S'no_ll'
I3
tp830
a(S'w'
I1
tp831
a(S'no_np'
I7
tp832
a(S'w'
I1
tp833
a(S'no_cv'
I0
tp834
a(S'no_vo'
I2
tp835
a(S'w'
I2903
tp836
a(S'ch_no'
I1
tp837
a(S'ch_tr'
I1
tp838
a(S'ch_p2'
I0
tp839
a(S'ch_p1'
I0
tp840
a(S'w'
I11
tp841
a(S'p2_ll'
I0
tp842
a(S'p2_th'
I0
tp843
a(S'w'
I1
tp844
a(S'p2_tl'
I0
tp845
a(S'w'
I2
tp846
a(S'p1_ll'
I0
tp847
a(S'p1_th'
I0
tp848
a(S'w'
I1
tp849
a(S'p1_tl'
I0
tp850
a(S'w'
I4418
tp851
a(S'ch_no'
I1
tp852
a(S'ch_tr'
I1
tp853
a(S'ch_p2'
I1
tp854
a(S'ch_p1'
I1
tp855
a(S'w'
I6
tp856
a(S'no_ll'
I3
tp857
a(S'w'
I6
tp858
a(S'p2_ll'
I4
tp859
a(S'p2_th'
I1
tp860
a(S'p2_tl'
I123
tp861
a(S'w'
I3
tp862
a(S'p1_ll'
I4
tp863
a(S'p1_th'
I1
tp864
a(S'w'
I1
tp865
a(S'p1_tl'
I125
tp866
a(S'w'
I7317
tp867
a(S'no_ll'
I4
tp868
a(S'w'
I2910
tp869
a(S'ch_no'
I1
tp870
a(S'ch_tr'
I1
tp871
a(S'ch_p2'
I0
tp872
a(S'ch_p1'
I0
tp873
a(S'w'
I11
tp874
a(S'p2_ll'
I0
tp875
a(S'p2_th'
I0
tp876
a(S'w'
I1
tp877
a(S'p2_tl'
I0
tp878
a(S'w'
I2
tp879
a(S'p1_ll'
I0
tp880
a(S'p1_th'
I0
tp881
a(S'w'
I1
tp882
a(S'p1_tl'
I0
tp883
a(S'w'
I4474
tp884
a(S'ch_no'
I1
tp885
a(S'ch_tr'
I1
tp886
a(S'ch_p2'
I1
tp887
a(S'ch_p1'
I1
tp888
a(S'w'
I6
tp889
a(S'no_ll'
I4
tp890
a(S'w'
I1
tp891
a(S'no_np'
I9
tp892
a(S'w'
I2
tp893
a(S'no_vo'
I1
tp894
a(S'w'
I1
tp895
a(S'tr_ll'
I20
tp896
a(S'tr_th'
I2
tp897
a(S'w'
I1
tp898
a(S'tr_tl'
I59
tp899
a(S'w'
I2
tp900
a(S'p2_ll'
I4
tp901
a(S'p2_th'
I1
tp902
a(S'w'
I1
tp903
a(S'p2_tl'
I123
tp904
a(S'w'
I2
tp905
a(S'p1_ll'
I4
tp906
a(S'p1_th'
I1
tp907
a(S'w'
I1
tp908
a(S'p1_tl'
I125
tp909
a(S'w'
I1371
tp910
a(S'no_cv'
I1
tp911
a(S'no_vo'
I0
tp912
a(S'w'
I2195
tp913
a(S'ch_no'
I1
tp914
a(S'ch_tr'
I1
tp915
a(S'ch_p2'
I0
tp916
a(S'ch_p1'
I0
tp917
a(S'w'
I11
tp918
a(S'p2_ll'
I0
tp919
a(S'p2_th'
I0
tp920
a(S'w'
I1
tp921
a(S'p2_tl'
I0
tp922
a(S'w'
I2
tp923
a(S'p1_ll'
I0
tp924
a(S'p1_th'
I0
tp925
a(S'w'
I1
tp926
a(S'p1_tl'
I0
tp927
a(S'w'
I3638
tp928
a.