(lp1
(S'clock'
p2
I1789772
tp3
a(S'p1_lh'
I1
tp4
a(S'p1_cv'
I1
tp5
a(S'p1_vo'
I15
tp6
a(S'p1_tl'
I142
tp7
a(S'p1_ll'
I1
tp8
a(S'p2_lh'
I1
tp9
a(S'p2_cv'
I1
tp10
a(S'p2_vo'
I15
tp11
a(S'p2_tl'
I171
tp12
a(S'p2_ll'
I1
tp13
a(S'p2_th'
I1
tp14
a(S'tr_lr'
I13
tp15
a(S'tr_tl'
I142
tp16
a(S'tr_ll'
I1
tp17
a(S'no_lh'
I1
tp18
a(S'no_cv'
I1
tp19
a(S'no_vo'
I6
tp20
a(S'no_np'
I4
tp21
a(S'no_ll'
I1
tp22
a(S'ch_no'
I1
tp23
a(S'ch_tr'
I1
tp24
a(S'ch_p2'
I1
tp25
a(S'ch_p1'
I1
tp26
a(S'fc_mo'
I1
tp27
a(S'ch_no'
I0
tp28
a(S'ch_tr'
I0
tp29
a(S'ch_p2'
I1
tp30
a(S'ch_p1'
I0
tp31
a(S'w'
I1
tp32
a(S'p2_lh'
I0
tp33
a(S'p2_cv'
I0
tp34
a(S'p2_vo'
I0
tp35
a(S'w'
I1
tp36
a(S'p2_tl'
I174
tp37
a(S'w'
I1
tp38
a(S'p2_ll'
I1
tp39
a(S'p2_th'
I6
tp40
a(S'w'
I18
tp41
a(S'ch_no'
I0
tp42
a(S'ch_tr'
I0
tp43
a(S'ch_p2'
I1
tp44
a(S'ch_p1'
I1
tp45
a(S'w'
I5
tp46
a(S'p1_du'
I2
tp47
a(S'p1_vo'
I0
tp48
a(S'p1_tl'
I71
tp49
a(S'w'
I1
tp50
a(S'p1_ll'
I1
tp51
a(S'w'
I461
tp52
a(S'p1_vo'
I3
tp53
a(S'w'
I734
tp54
a(S'p1_vo'
I6
tp55
a(S'w'
I734
tp56
a(S'p1_vo'
I9
tp57
a(S'w'
I734
tp58
a(S'p1_vo'
I12
tp59
a(S'w'
I734
tp60
a(S'p1_vo'
I15
tp61
a(S'w'
I5139
tp62
a(S'p1_vo'
I14
tp63
a(S'w'
I8812
tp64
a(S'p1_vo'
I0
tp65
a(S'w'
I1
tp66
a(S'p1_tl'
I106
tp67
a(S'p1_ll'
I1
tp68
a(S'w'
I723
tp69
a(S'p1_vo'
I3
tp70
a(S'w'
I734
tp71
a(S'p1_vo'
I5
tp72
a(S'w'
I734
tp73
a(S'p1_vo'
I8
tp74
a(S'w'
I734
tp75
a(S'p1_vo'
I10
tp76
a(S'w'
I734
tp77
a(S'p1_vo'
I13
tp78
a(S'w'
I745
tp79
a(S'p1_vo'
I0
tp80
a(S'p1_tl'
I71
tp81
a(S'w'
I1
tp82
a(S'p1_ll'
I1
tp83
a(S'w'
I721
tp84
a(S'p1_vo'
I3
tp85
a(S'w'
I728
tp86
a(S'w'
I6
tp87
a(S'p1_vo'
I5
tp88
a(S'w'
I717
tp89
a(S'w'
I17
tp90
a(S'p1_vo'
I8
tp91
a(S'w'
I733
tp92
a(S'p1_vo'
I10
tp93
a(S'w'
I735
tp94
a(S'p1_vo'
I13
tp95
a(S'w'
I736
tp96
a(S'p1_vo'
I12
tp97
a(S'w'
I8806
tp98
a(S'p1_vo'
I11
tp99
a(S'w'
I4403
tp100
a(S'ch_no'
I0
tp101
a(S'ch_tr'
I0
tp102
a(S'ch_p2'
I1
tp103
a(S'ch_p1'
I1
tp104
a(S'w'
I5
tp105
a(S'p1_vo'
I0
tp106
a(S'p1_tl'
I106
tp107
a(S'w'
I1
tp108
a(S'p1_ll'
I1
tp109
a(S'w'
I724
tp110
a(S'p1_vo'
I2
tp111
a(S'w'
I734
tp112
a(S'p1_vo'
I4
tp113
a(S'w'
I734
tp114
a(S'p1_vo'
I7
tp115
a(S'w'
I734
tp116
a(S'p1_vo'
I9
tp117
a(S'w'
I734
tp118
a(S'p1_vo'
I11
tp119
a(S'w'
I746
tp120
a(S'p1_vo'
I0
tp121
a(S'p1_tl'
I71
tp122
a(S'w'
I1
tp123
a(S'p1_ll'
I1
tp124
a(S'w'
I720
tp125
a(S'p1_vo'
I2
tp126
a(S'w'
I734
tp127
a(S'p1_vo'
I4
tp128
a(S'w'
I734
tp129
a(S'p1_vo'
I6
tp130
a(S'w'
I733
tp131
a(S'p1_vo'
I8
tp132
a(S'w'
I735
tp133
a(S'p1_vo'
I10
tp134
a(S'w'
I5139
tp135
a(S'p1_vo'
I9
tp136
a(S'w'
I8812
tp137
a(S'p1_vo'
I0
tp138
a(S'w'
I1
tp139
a(S'p1_tl'
I106
tp140
a(S'p1_ll'
I1
tp141
a(S'w'
I723
tp142
a(S'p1_vo'
I2
tp143
a(S'w'
I734
tp144
a(S'p1_vo'
I3
tp145
a(S'w'
I734
tp146
a(S'p1_vo'
I5
tp147
a(S'w'
I734
tp148
a(S'p1_vo'
I6
tp149
a(S'w'
I734
tp150
a(S'p1_vo'
I8
tp151
a(S'w'
I745
tp152
a(S'p1_vo'
I0
tp153
a(S'p1_tl'
I71
tp154
a(S'w'
I1
tp155
a(S'p1_ll'
I1
tp156
a(S'w'
I721
tp157
a(S'p1_vo'
I2
tp158
a(S'w'
I734
tp159
a(S'p1_vo'
I3
tp160
a(S'w'
I734
tp161
a(S'p1_vo'
I5
tp162
a(S'w'
I734
tp163
a(S'p1_vo'
I6
tp164
a(S'w'
I734
tp165
a(S'p1_vo'
I8
tp166
a(S'w'
I736
tp167
a(S'p1_vo'
I7
tp168
a(S'w'
I8806
tp169
a(S'p1_vo'
I6
tp170
a(S'w'
I4408
tp171
a(S'p1_vo'
I0
tp172
a(S'p1_tl'
I106
tp173
a(S'w'
I1
tp174
a(S'p1_ll'
I1
tp175
a(S'w'
I724
tp176
a(S'p1_vo'
I1
tp177
a(S'w'
I734
tp178
a(S'p1_vo'
I2
tp179
a(S'w'
I734
tp180
a(S'p1_vo'
I4
tp181
a(S'w'
I734
tp182
a(S'p1_vo'
I5
tp183
a(S'w'
I734
tp184
a(S'p1_vo'
I6
tp185
a(S'w'
I746
tp186
a(S'p1_vo'
I0
tp187
a(S'p1_tl'
I71
tp188
a(S'w'
I1
tp189
a(S'p1_ll'
I1
tp190
a(S'w'
I720
tp191
a(S'p1_vo'
I1
tp192
a(S'w'
I734
tp193
a(S'p1_vo'
I2
tp194
a(S'w'
I734
tp195
a(S'p1_vo'
I3
tp196
a(S'w'
I734
tp197
a(S'p1_vo'
I4
tp198
a(S'w'
I734
tp199
a(S'p1_vo'
I5
tp200
a(S'w'
I5139
tp201
a(S'p1_vo'
I4
tp202
a(S'w'
I8812
tp203
a(S'p1_vo'
I0
tp204
a(S'w'
I1
tp205
a(S'p1_tl'
I106
tp206
a(S'p1_ll'
I1
tp207
a(S'w'
I723
tp208
a(S'p1_vo'
I1
tp209
a(S'w'
I1468
tp210
a(S'p1_vo'
I2
tp211
a(S'w'
I1468
tp212
a(S'p1_vo'
I3
tp213
a(S'w'
I745
tp214
a(S'p1_vo'
I0
tp215
a(S'p1_tl'
I71
tp216
a(S'w'
I1
tp217
a(S'p1_ll'
I1
tp218
a(S'w'
I721
tp219
a(S'p1_vo'
I1
tp220
a(S'w'
I1468
tp221
a(S'p1_vo'
I2
tp222
a(S'w'
I1468
tp223
a(S'p1_vo'
I3
tp224
a(S'w'
I736
tp225
a(S'p1_vo'
I2
tp226
a(S'w'
I8806
tp227
a(S'p1_vo'
I1
tp228
a(S'w'
I4408
tp229
a(S'p1_vo'
I0
tp230
a(S'w'
I1
tp231
a(S'p1_tl'
I106
tp232
a(S'p1_ll'
I1
tp233
a(S'w'
I2192
tp234
a(S'p1_vo'
I1
tp235
a(S'w'
I2214
tp236
a(S'p1_vo'
I0
tp237
a(S'p1_tl'
I71
tp238
a(S'w'
I1
tp239
a(S'p1_ll'
I1
tp240
a(S'w'
I17606
tp241
a(S'p1_tl'
I106
tp242
a(S'w'
I1
tp243
a(S'p1_ll'
I1
tp244
a(S'w'
I4405
tp245
a(S'p1_tl'
I71
tp246
a(S'w'
I1
tp247
a(S'p1_ll'
I1
tp248
a(S'w'
I17607
tp249
a(S'p1_tl'
I106
tp250
a(S'w'
I1
tp251
a(S'p1_ll'
I1
tp252
a(S'w'
I4405
tp253
a(S'p1_tl'
I71
tp254
a(S'w'
I1
tp255
a(S'p1_ll'
I1
tp256
a(S'w'
I11718
tp257
a(S'p2_ll'
I1
tp258
a(S'w'
I5889
tp259
a(S'p1_tl'
I106
tp260
a(S'w'
I1
tp261
a(S'p1_ll'
I1
tp262
a(S'w'
I4405
tp263
a(S'p1_tl'
I71
tp264
a(S'w'
I1
tp265
a(S'p1_ll'
I1
tp266
a(S'w'
I17608
tp267
a(S'p1_tl'
I106
tp268
a(S'p1_ll'
I1
tp269
a(S'w'
I4405
tp270
a(S'p1_tl'
I71
tp271
a(S'w'
I1
tp272
a(S'p1_ll'
I1
tp273
a(S'w'
I17608
tp274
a(S'p1_tl'
I106
tp275
a(S'p1_ll'
I1
tp276
a(S'w'
I4405
tp277
a(S'p1_tl'
I71
tp278
a(S'w'
I1
tp279
a(S'p1_ll'
I1
tp280
a(S'w'
I17608
tp281
a(S'p1_tl'
I106
tp282
a(S'p1_ll'
I1
tp283
a(S'w'
I4405
tp284
a(S'p1_tl'
I71
tp285
a(S'w'
I1
tp286
a(S'p1_ll'
I1
tp287
a(S'w'
I17608
tp288
a(S'p1_tl'
I106
tp289
a(S'p1_ll'
I1
tp290
a(S'w'
I4405
tp291
a(S'p1_tl'
I71
tp292
a(S'w'
I1
tp293
a(S'p1_ll'
I1
tp294
a(S'w'
I17608
tp295
a(S'p1_tl'
I106
tp296
a(S'p1_ll'
I1
tp297
a(S'w'
I4405
tp298
a(S'p1_tl'
I71
tp299
a(S'w'
I1
tp300
a(S'p1_ll'
I1
tp301
a(S'w'
I17608
tp302
a(S'p1_tl'
I106
tp303
a(S'p1_ll'
I1
tp304
a(S'w'
I4406
tp305
a(S'p1_tl'
I71
tp306
a(S'p1_ll'
I1
tp307
a(S'w'
I17608
tp308
a(S'p1_tl'
I106
tp309
a(S'p1_ll'
I1
tp310
a(S'w'
I4413
tp311
a(S'p1_tl'
I71
tp312
a(S'w'
I1
tp313
a(S'p1_ll'
I1
tp314
a(S'w'
I713
tp315
a(S'p1_vo'
I3
tp316
a(S'w'
I734
tp317
a(S'p1_vo'
I6
tp318
a(S'w'
I734
tp319
a(S'p1_vo'
I9
tp320
a(S'w'
I734
tp321
a(S'p1_vo'
I12
tp322
a(S'w'
I734
tp323
a(S'p1_vo'
I15
tp324
a(S'w'
I5140
tp325
a(S'p1_vo'
I14
tp326
a(S'w'
I8812
tp327
a(S'p1_vo'
I0
tp328
a(S'p1_tl'
I106
tp329
a(S'w'
I1
tp330
a(S'p1_ll'
I1
tp331
a(S'w'
I723
tp332
a(S'p1_vo'
I3
tp333
a(S'w'
I734
tp334
a(S'p1_vo'
I5
tp335
a(S'w'
I734
tp336
a(S'p1_vo'
I8
tp337
a(S'w'
I733
tp338
a(S'p1_vo'
I10
tp339
a(S'w'
I735
tp340
a(S'p1_vo'
I13
tp341
a(S'w'
I744
tp342
a(S'p1_vo'
I0
tp343
a(S'w'
I1
tp344
a(S'p1_tl'
I71
tp345
a(S'w'
I1
tp346
a(S'p1_ll'
I1
tp347
a(S'w'
I720
tp348
a(S'p1_vo'
I3
tp349
a(S'w'
I724
tp350
a(S'w'
I1
tp351
a(S'p2_ll'
I1
tp352
a(S'w'
I10
tp353
a.