(lp1
(S'clock'
p2
I1789772
tp3
a(S'p1_du'
I1
tp4
a(S'p1_lh'
I1
tp5
a(S'p1_cv'
I1
tp6
a(S'p1_tl'
I127
tp7
a(S'p1_ll'
I1
tp8
a(S'p2_du'
I1
tp9
a(S'p2_vo'
I15
tp10
a(S'p2_tl'
I84
tp11
a(S'p2_ll'
I1
tp12
a(S'tr_lr'
I16
tp13
a(S'tr_tl'
I190
tp14
a(S'tr_ll'
I1
tp15
a(S'no_np'
I4
tp16
a(S'no_ll'
I1
tp17
a(S'ch_no'
I0
tp18
a(S'ch_tr'
I0
tp19
a(S'ch_p2'
I0
tp20
a(S'ch_p1'
I0
tp21
a(S'fc_mo'
I0
tp22
a(S'ch_no'
I0
tp23
a(S'ch_tr'
I0
tp24
a(S'ch_p2'
I0
tp25
a(S'ch_p1'
I1
tp26
a(S'w'
I5
tp27
a(S'p1_du'
I2
tp28
a(S'p1_vo'
I15
tp29
a(S'p1_tl'
I64
tp30
a(S'w'
I1
tp31
a(S'p1_ll'
I1
tp32
a(S'p1_th'
I1
tp33
a(S'w'
I13
tp34
a(S'ch_no'
I0
tp35
a(S'ch_tr'
I0
tp36
a(S'ch_p2'
I1
tp37
a(S'ch_p1'
I1
tp38
a(S'w'
I5
tp39
a(S'p2_du'
I2
tp40
a(S'p2_lh'
I1
tp41
a(S'p2_cv'
I1
tp42
a(S'p2_vo'
I0
tp43
a(S'p2_tl'
I160
tp44
a(S'w'
I1
tp45
a(S'p2_ll'
I1
tp46
a(S'w'
I14
tp47
a(S'ch_no'
I0
tp48
a(S'ch_tr'
I1
tp49
a(S'ch_p2'
I1
tp50
a(S'ch_p1'
I1
tp51
a(S'w'
I1
tp52
a(S'tr_lr'
I112
tp53
a(S'tr_tl'
I160
tp54
a(S'w'
I1
tp55
a(S'tr_ll'
I1
tp56
a(S'w'
I742
tp57
a(S'p1_vo'
I10
tp58
a(S'w'
I13
tp59
a(S'p2_vo'
I1
tp60
a(S'w'
I721
tp61
a(S'p1_vo'
I15
tp62
a(S'w'
I733
tp63
a(S'p1_vo'
I10
tp64
a(S'w'
I14
tp65
a(S'p2_vo'
I2
tp66
a(S'w'
I720
tp67
a(S'p1_vo'
I7
tp68
a(S'w'
I14
tp69
a(S'p2_vo'
I3
tp70
a(S'w'
I721
tp71
a(S'p1_vo'
I6
tp72
a(S'w'
I733
tp73
a(S'p1_vo'
I5
tp74
a(S'w'
I14
tp75
a(S'p2_vo'
I4
tp76
a(S'w'
I720
tp77
a(S'p1_vo'
I4
tp78
a(S'w'
I14
tp79
a(S'p2_vo'
I5
tp80
a(S'w'
I720
tp81
a(S'p1_vo'
I2
tp82
a(S'w'
I1475
tp83
a(S'p1_vo'
I15
tp84
a(S'p1_tl'
I226
tp85
a(S'w'
I1
tp86
a(S'p1_ll'
I1
tp87
a(S'p1_th'
I0
tp88
a(S'w'
I30
tp89
a(S'tr_tl'
I113
tp90
a(S'tr_ll'
I1
tp91
a(S'w'
I695
tp92
a(S'p1_vo'
I10
tp93
a(S'w'
I734
tp94
a(S'p1_vo'
I15
tp95
a(S'w'
I734
tp96
a(S'p1_vo'
I10
tp97
a(S'w'
I733
tp98
a(S'p1_vo'
I7
tp99
a(S'w'
I736
tp100
a(S'p1_vo'
I6
tp101
a(S'w'
I732
tp102
a(S'p1_vo'
I5
tp103
a(S'w'
I734
tp104
a(S'p1_vo'
I4
tp105
a(S'w'
I734
tp106
a(S'p1_vo'
I2
tp107
a(S'w'
I1475
tp108
a(S'p1_vo'
I15
tp109
a(S'w'
I1
tp110
a(S'p1_tl'
I201
tp111
a(S'p1_ll'
I1
tp112
a(S'w'
I31
tp113
a(S'tr_tl'
I100
tp114
a(S'tr_ll'
I1
tp115
a(S'w'
I694
tp116
a(S'p1_vo'
I10
tp117
a(S'w'
I734
tp118
a(S'p1_vo'
I15
tp119
a(S'w'
I734
tp120
a(S'p1_vo'
I10
tp121
a(S'w'
I733
tp122
a(S'p1_vo'
I7
tp123
a(S'w'
I736
tp124
a(S'p1_vo'
I6
tp125
a(S'w'
I732
tp126
a(S'p1_vo'
I5
tp127
a(S'w'
I734
tp128
a(S'p1_vo'
I4
tp129
a(S'w'
I734
tp130
a(S'p1_vo'
I2
tp131
a(S'w'
I1475
tp132
a(S'p1_vo'
I15
tp133
a(S'w'
I1
tp134
a(S'p1_tl'
I179
tp135
a(S'p1_ll'
I1
tp136
a(S'w'
I31
tp137
a(S'tr_tl'
I89
tp138
a(S'tr_ll'
I1
tp139
a(S'w'
I694
tp140
a(S'p1_vo'
I10
tp141
a(S'w'
I734
tp142
a(S'p1_vo'
I15
tp143
a(S'w'
I734
tp144
a(S'p1_vo'
I10
tp145
a(S'w'
I733
tp146
a(S'p1_vo'
I7
tp147
a(S'w'
I736
tp148
a(S'p1_vo'
I6
tp149
a(S'w'
I732
tp150
a(S'p1_vo'
I5
tp151
a(S'w'
I734
tp152
a(S'p1_vo'
I4
tp153
a(S'w'
I734
tp154
a(S'p1_vo'
I2
tp155
a(S'w'
I1475
tp156
a(S'p1_vo'
I15
tp157
a(S'p1_tl'
I29
tp158
a(S'w'
I1
tp159
a(S'p1_ll'
I1
tp160
a(S'p1_th'
I1
tp161
a(S'w'
I21
tp162
a(S'p2_vo'
I0
tp163
a(S'w'
I1
tp164
a(S'p2_tl'
I142
tp165
a(S'p2_ll'
I1
tp166
a(S'w'
I15
tp167
a(S'tr_tl'
I142
tp168
a(S'w'
I1
tp169
a(S'tr_ll'
I1
tp170
a(S'w'
I687
tp171
a(S'p1_vo'
I10
tp172
a(S'w'
I13
tp173
a(S'p2_vo'
I1
tp174
a(S'w'
I721
tp175
a(S'p1_vo'
I15
tp176
a(S'w'
I734
tp177
a(S'p1_vo'
I10
tp178
a(S'w'
I13
tp179
a(S'p2_vo'
I2
tp180
a(S'w'
I720
tp181
a(S'p1_vo'
I7
tp182
a(S'w'
I14
tp183
a(S'p2_vo'
I3
tp184
a(S'w'
I722
tp185
a(S'p1_vo'
I6
tp186
a(S'w'
I732
tp187
a(S'p1_vo'
I5
tp188
a(S'w'
I14
tp189
a(S'p2_vo'
I4
tp190
a(S'w'
I720
tp191
a(S'p1_vo'
I4
tp192
a(S'w'
I14
tp193
a(S'p2_vo'
I5
tp194
a(S'w'
I720
tp195
a(S'p1_vo'
I2
tp196
a(S'w'
I1475
tp197
a(S'p1_vo'
I15
tp198
a(S'p1_tl'
I226
tp199
a(S'w'
I1
tp200
a(S'p1_ll'
I1
tp201
a(S'p1_th'
I0
tp202
a(S'w'
I30
tp203
a(S'tr_tl'
I113
tp204
a(S'w'
I1
tp205
a(S'tr_ll'
I1
tp206
a(S'w'
I694
tp207
a(S'p1_vo'
I10
tp208
a(S'w'
I734
tp209
a(S'p1_vo'
I15
tp210
a(S'w'
I734
tp211
a(S'p1_vo'
I10
tp212
a(S'w'
I733
tp213
a(S'p1_vo'
I7
tp214
a(S'w'
I736
tp215
a(S'p1_vo'
I6
tp216
a(S'w'
I732
tp217
a(S'p1_vo'
I5
tp218
a(S'w'
I734
tp219
a(S'p1_vo'
I4
tp220
a(S'w'
I734
tp221
a(S'p1_vo'
I2
tp222
a(S'w'
I1475
tp223
a(S'p1_vo'
I15
tp224
a(S'w'
I1
tp225
a(S'p1_tl'
I201
tp226
a(S'p1_ll'
I1
tp227
a(S'w'
I31
tp228
a(S'tr_tl'
I100
tp229
a(S'tr_ll'
I1
tp230
a(S'w'
I694
tp231
a(S'p1_vo'
I10
tp232
a(S'w'
I734
tp233
a(S'p1_vo'
I15
tp234
a(S'w'
I733
tp235
a(S'p1_vo'
I10
tp236
a(S'w'
I734
tp237
a(S'p1_vo'
I7
tp238
a(S'w'
I735
tp239
a(S'p1_vo'
I6
tp240
a(S'w'
I733
tp241
a(S'p1_vo'
I5
tp242
a(S'w'
I734
tp243
a(S'p1_vo'
I4
tp244
a(S'w'
I734
tp245
a(S'p1_vo'
I2
tp246
a(S'w'
I1475
tp247
a(S'p1_vo'
I15
tp248
a(S'w'
I1
tp249
a(S'p1_tl'
I179
tp250
a(S'p1_ll'
I1
tp251
a(S'w'
I31
tp252
a(S'tr_tl'
I89
tp253
a(S'tr_ll'
I1
tp254
a(S'w'
I694
tp255
a(S'p1_vo'
I10
tp256
a(S'w'
I734
tp257
a(S'p1_vo'
I15
tp258
a(S'w'
I733
tp259
a(S'p1_vo'
I10
tp260
a(S'w'
I734
tp261
a(S'p1_vo'
I7
tp262
a(S'w'
I735
tp263
a(S'p1_vo'
I6
tp264
a(S'w'
I734
tp265
a(S'p1_vo'
I5
tp266
a(S'w'
I739
tp267
a(S'p1_vo'
I4
tp268
a(S'w'
I728
tp269
a(S'p1_vo'
I2
tp270
a(S'w'
I1475
tp271
a(S'p1_vo'
I15
tp272
a(S'p1_tl'
I254
tp273
a(S'w'
I1
tp274
a(S'p1_ll'
I1
tp275
a(S'w'
I21
tp276
a(S'p2_vo'
I0
tp277
a(S'w'
I1
tp278
a(S'p2_tl'
I127
tp279
a(S'w'
I1
tp280
a(S'p2_ll'
I1
tp281
a(S'w'
I14
tp282
a(S'tr_tl'
I127
tp283
a(S'w'
I1
tp284
a(S'tr_ll'
I1
tp285
a(S'w'
I687
tp286
a(S'p1_vo'
I10
tp287
a(S'w'
I13
tp288
a(S'p2_vo'
I1
tp289
a(S'w'
I721
tp290
a(S'p1_vo'
I15
tp291
a(S'w'
I734
tp292
a(S'p1_vo'
I10
tp293
a(S'w'
I13
tp294
a(S'p2_vo'
I2
tp295
a(S'w'
I720
tp296
a(S'p1_vo'
I7
tp297
a(S'w'
I14
tp298
a(S'p2_vo'
I3
tp299
a(S'w'
I722
tp300
a(S'p1_vo'
I6
tp301
a(S'w'
I732
tp302
a(S'p1_vo'
I5
tp303
a(S'w'
I14
tp304
a(S'p2_vo'
I4
tp305
a(S'w'
I720
tp306
a(S'p1_vo'
I4
tp307
a(S'w'
I14
tp308
a(S'p2_vo'
I5
tp309
a(S'w'
I720
tp310
a(S'p1_vo'
I2
tp311
a(S'w'
I1475
tp312
a(S'p1_vo'
I15
tp313
a(S'p1_tl'
I226
tp314
a(S'w'
I1
tp315
a(S'p1_ll'
I1
tp316
a(S'w'
I30
tp317
a(S'tr_tl'
I113
tp318
a(S'tr_ll'
I1
tp319
a(S'w'
I695
tp320
a(S'p1_vo'
I10
tp321
a(S'w'
I735
tp322
a(S'p1_vo'
I15
tp323
a(S'w'
I739
tp324
a(S'p1_vo'
I10
tp325
a(S'w'
I727
tp326
a(S'p1_vo'
I7
tp327
a(S'w'
I736
tp328
a(S'p1_vo'
I6
tp329
a(S'w'
I732
tp330
a(S'p1_vo'
I5
tp331
a(S'w'
I734
tp332
a(S'p1_vo'
I4
tp333
a(S'w'
I734
tp334
a(S'p1_vo'
I2
tp335
a(S'w'
I1475
tp336
a(S'p1_vo'
I15
tp337
a(S'w'
I1
tp338
a(S'p1_tl'
I201
tp339
a(S'p1_ll'
I1
tp340
a(S'w'
I31
tp341
a(S'tr_tl'
I100
tp342
a(S'tr_ll'
I1
tp343
a(S'w'
I694
tp344
a(S'p1_vo'
I10
tp345
a(S'w'
I734
tp346
a(S'p1_vo'
I15
tp347
a(S'w'
I734
tp348
a(S'p1_vo'
I10
tp349
a(S'w'
I733
tp350
a(S'p1_vo'
I7
tp351
a(S'w'
I736
tp352
a(S'p1_vo'
I6
tp353
a(S'w'
I732
tp354
a(S'p1_vo'
I5
tp355
a(S'w'
I734
tp356
a(S'p1_vo'
I4
tp357
a(S'w'
I735
tp358
a(S'p1_vo'
I2
tp359
a(S'w'
I1474
tp360
a(S'p1_vo'
I15
tp361
a(S'w'
I1
tp362
a(S'p1_tl'
I179
tp363
a(S'p1_ll'
I1
tp364
a(S'w'
I31
tp365
a(S'tr_tl'
I89
tp366
a(S'tr_ll'
I1
tp367
a(S'w'
I694
tp368
a(S'p1_vo'
I10
tp369
a(S'w'
I734
tp370
a(S'p1_vo'
I15
tp371
a(S'w'
I734
tp372
a(S'p1_vo'
I10
tp373
a(S'w'
I733
tp374
a(S'p1_vo'
I7
tp375
a(S'w'
I736
tp376
a(S'p1_vo'
I6
tp377
a(S'w'
I732
tp378
a(S'p1_vo'
I5
tp379
a(S'w'
I734
tp380
a(S'p1_vo'
I4
tp381
a(S'w'
I734
tp382
a(S'p1_vo'
I2
tp383
a(S'w'
I1479
tp384
a(S'p1_vo'
I0
tp385
a(S'p1_tl'
I113
tp386
a(S'w'
I1
tp387
a(S'p1_ll'
I1
tp388
a(S'w'
I29
tp389
a(S'p2_vo'
I15
tp390
a(S'p2_se'
I1
tp391
a(S'p2_sn'
I1
tp392
a(S'p2_ss'
I4
tp393
a(S'w'
I1
tp394
a(S'p2_tl'
I120
tp395
a(S'p2_ll'
I1
tp396
a(S'w'
I15
tp397
a(S'tr_tl'
I80
tp398
a(S'w'
I1
tp399
a(S'tr_ll'
I1
tp400
a(S'w'
I675
tp401
a(S'p1_vo'
I2
tp402
a(S'w'
I734
tp403
a(S'p1_vo'
I4
tp404
a(S'w'
I13
tp405
a(S'p2_vo'
I7
tp406
a(S'w'
I721
tp407
a(S'p1_vo'
I6
tp408
a(S'w'
I13
tp409
a(S'p2_vo'
I5
tp410
a(S'w'
I722
tp411
a(S'p1_vo'
I8
tp412
a(S'w'
I14
tp413
a(S'p2_vo'
I2
tp414
a(S'w'
I728
tp415
a(S'p1_vo'
I9
tp416
a(S'w'
I724
tp417
a(S'p1_vo'
I11
tp418
a(S'w'
I734
tp419
a(S'p1_vo'
I13
tp420
a(S'w'
I734
tp421
a(S'p1_vo'
I14
tp422
a(S'w'
I1471
tp423
a(S'p1_vo'
I13
tp424
a(S'w'
I16
tp425
a(S'ch_no'
I0
tp426
a(S'ch_tr'
I1
tp427
a(S'ch_p2'
I0
tp428
a(S'ch_p1'
I1
tp429
a(S'w'
I1467
tp430
a(S'tr_tl'
I81
tp431
a(S'w'
I1467
tp432
a(S'tr_tl'
I80
tp433
a(S'w'
I719
tp434
a(S'p1_vo'
I12
tp435
a(S'w'
I749
tp436
a(S'tr_tl'
I79
tp437
a(S'w'
I1467
tp438
a(S'tr_tl'
I80
tp439
a(S'w'
I1454
tp440
a(S'p1_vo'
I11
tp441
a(S'w'
I22
tp442
a(S'ch_no'
I0
tp443
a(S'ch_tr'
I1
tp444
a(S'ch_p2'
I1
tp445
a(S'ch_p1'
I1
tp446
a(S'w'
I4
tp447
a(S'p2_vo'
I11
tp448
a(S'w'
I1
tp449
a(S'p2_tl'
I120
tp450
a(S'p2_ll'
I1
tp451
a(S'w'
I4
tp452
a(S'tr_tl'
I81
tp453
a(S'w'
I1446
tp454
a(S'p2_vo'
I5
tp455
a(S'w'
I4
tp456
a(S'tr_tl'
I80
tp457
a(S'w'
I730
tp458
a(S'p2_vo'
I4
tp459
a(S'w'
I734
tp460
a(S'p2_vo'
I1
tp461
a(S'w'
I4
tp462
a(S'tr_tl'
I79
tp463
a(S'w'
I719
tp464
a(S'p1_vo'
I10
tp465
a(S'w'
I749
tp466
a(S'tr_tl'
I80
tp467
a(S'w'
I1468
tp468
a(S'tr_tl'
I81
tp469
a(S'w'
I1452
tp470
a(S'p1_vo'
I9
tp471
a(S'w'
I16
tp472
a(S'ch_no'
I0
tp473
a(S'ch_tr'
I1
tp474
a(S'ch_p2'
I0
tp475
a(S'ch_p1'
I1
tp476
a(S'w'
I4
tp477
a(S'tr_tl'
I80
tp478
a(S'w'
I1463
tp479
a(S'tr_tl'
I79
tp480
a(S'w'
I1467
tp481
a(S'tr_tl'
I80
tp482
a(S'w'
I719
tp483
a(S'p1_vo'
I8
tp484
a(S'w'
I762
tp485
a(S'tr_tl'
I81
tp486
a(S'w'
I1508
tp487
a(S'tr_tl'
I80
tp488
a(S'w'
I1472
tp489
a(S'p1_vo'
I7
tp490
a(S'w'
I21
tp491
a(S'ch_no'
I0
tp492
a(S'ch_tr'
I1
tp493
a(S'ch_p2'
I1
tp494
a(S'ch_p1'
I1
tp495
a(S'w'
I5
tp496
a(S'p2_vo'
I7
tp497
a(S'p2_tl'
I120
tp498
a(S'w'
I1
tp499
a(S'p2_ll'
I1
tp500
a(S'w'
I4
tp501
a(S'tr_tl'
I79
tp502
a(S'w'
I6
tp503
a(S'ch_no'
I0
tp504
a(S'ch_tr'
I0
tp505
a(S'ch_p2'
I1
tp506
a(S'ch_p1'
I1
tp507
a(S'w'
I1427
tp508
a(S'p2_vo'
I3
tp509
a(S'w'
I734
tp510
a(S'p2_vo'
I2
tp511
a(S'w'
I735
tp512
a(S'p2_vo'
I1
tp513
a(S'w'
I724
tp514
a(S'p1_vo'
I6
tp515
a(S'w'
I3667
tp516
a(S'p1_vo'
I5
tp517
a(S'w'
I16
tp518
a(S'ch_no'
I0
tp519
a(S'ch_tr'
I0
tp520
a(S'ch_p2'
I0
tp521
a(S'ch_p1'
I1
tp522
a(S'w'
I3645
tp523
a(S'p1_vo'
I4
tp524
a(S'w'
I3668
tp525
a(S'ch_no'
I0
tp526
a(S'ch_tr'
I0
tp527
a(S'ch_p2'
I0
tp528
a(S'ch_p1'
I0
tp529
a(S'w'
I21
tp530
a(S'ch_no'
I0
tp531
a(S'ch_tr'
I0
tp532
a(S'ch_p2'
I1
tp533
a(S'ch_p1'
I0
tp534
a(S'w'
I5
tp535
a(S'p2_vo'
I3
tp536
a(S'p2_tl'
I120
tp537
a(S'w'
I1
tp538
a(S'p2_ll'
I1
tp539
a(S'w'
I1440
tp540
a(S'p2_vo'
I1
tp541
a(S'w'
I1468
tp542
a(S'p2_vo'
I0
tp543
a(S'w'
I4405
tp544
a(S'ch_no'
I0
tp545
a(S'ch_tr'
I0
tp546
a(S'ch_p2'
I0
tp547
a(S'ch_p1'
I0
tp548
a(S'w'
I7342
tp549
a(S'ch_no'
I0
tp550
a(S'ch_tr'
I0
tp551
a(S'ch_p2'
I1
tp552
a(S'ch_p1'
I0
tp553
a(S'w'
I4
tp554
a(S'p2_vo'
I1
tp555
a(S'w'
I1
tp556
a(S'p2_tl'
I120
tp557
a(S'w'
I1
tp558
a(S'p2_ll'
I1
tp559
a(S'w'
I1455
tp560
a(S'p2_vo'
I0
tp561
a(S'w'
I5872
tp562
a(S'ch_no'
I0
tp563
a(S'ch_tr'
I0
tp564
a(S'ch_p2'
I0
tp565
a(S'ch_p1'
I0
tp566
a(S'w'
I7343
tp567
a(S'ch_no'
I0
tp568
a(S'ch_tr'
I0
tp569
a(S'ch_p2'
I1
tp570
a(S'ch_p1'
I0
tp571
a(S'w'
I4
tp572
a(S'p2_vo'
I1
tp573
a(S'w'
I1
tp574
a(S'p2_tl'
I120
tp575
a(S'w'
I1
tp576
a(S'p2_ll'
I1
tp577
a(S'w'
I1455
tp578
a(S'p2_vo'
I0
tp579
a(S'w'
I5872
tp580
a(S'ch_no'
I0
tp581
a(S'ch_tr'
I0
tp582
a(S'ch_p2'
I0
tp583
a(S'ch_p1'
I0
tp584
a(S'w'
I1
tp585
a.