(lp1
(S'clock'
p2
I1789772
tp3
a(S'p1_du'
I1
tp4
a(S'p1_lh'
I1
tp5
a(S'p1_cv'
I1
tp6
a(S'p1_vo'
I7
tp7
a(S'p1_tl'
I192
tp8
a(S'p1_ll'
I1
tp9
a(S'p2_du'
I1
tp10
a(S'p2_vo'
I15
tp11
a(S'p2_tl'
I106
tp12
a(S'p2_ll'
I1
tp13
a(S'tr_lr'
I16
tp14
a(S'tr_tl'
I190
tp15
a(S'tr_ll'
I1
tp16
a(S'no_np'
I4
tp17
a(S'no_ll'
I1
tp18
a(S'ch_no'
I0
tp19
a(S'ch_tr'
I0
tp20
a(S'ch_p2'
I0
tp21
a(S'ch_p1'
I0
tp22
a(S'fc_mo'
I0
tp23
a(S'ch_no'
I0
tp24
a(S'ch_tr'
I0
tp25
a(S'ch_p2'
I0
tp26
a(S'ch_p1'
I1
tp27
a(S'w'
I1
tp28
a(S'p1_lh'
I0
tp29
a(S'p1_cv'
I0
tp30
a(S'p1_vo'
I0
tp31
a(S'w'
I1
tp32
a(S'p1_tl'
I29
tp33
a(S'w'
I1
tp34
a(S'p1_ll'
I1
tp35
a(S'p1_th'
I1
tp36
a(S'w'
I13
tp37
a(S'ch_no'
I0
tp38
a(S'ch_tr'
I0
tp39
a(S'ch_p2'
I1
tp40
a(S'ch_p1'
I1
tp41
a(S'w'
I1
tp42
a(S'p2_vo'
I0
tp43
a(S'w'
I1
tp44
a(S'p2_tl'
I29
tp45
a(S'w'
I1
tp46
a(S'p2_ll'
I1
tp47
a(S'p2_th'
I1
tp48
a(S'w'
I11
tp49
a(S'ch_no'
I0
tp50
a(S'ch_tr'
I1
tp51
a(S'ch_p2'
I1
tp52
a(S'ch_p1'
I1
tp53
a(S'w'
I1
tp54
a(S'tr_lr'
I24
tp55
a(S'tr_tl'
I29
tp56
a(S'w'
I1
tp57
a(S'tr_ll'
I1
tp58
a(S'tr_th'
I1
tp59
a(S'w'
I9
tp60
a(S'ch_no'
I1
tp61
a(S'ch_tr'
I1
tp62
a(S'ch_p2'
I1
tp63
a(S'ch_p1'
I1
tp64
a(S'w'
I2
tp65
a(S'no_np'
I1
tp66
a(S'w'
I1
tp67
a(S'no_ll'
I1
tp68
a(S'w'
I687
tp69
a(S'p1_tl'
I30
tp70
a(S'w'
I7
tp71
a(S'p2_tl'
I30
tp72
a(S'w'
I727
tp73
a(S'w'
I7
tp74
a(S'w'
I726
tp75
a(S'w'
I8
tp76
a(S'w'
I726
tp77
a(S'p1_tl'
I29
tp78
a(S'w'
I8
tp79
a(S'w'
I726
tp80
a(S'w'
I9
tp81
a(S'w'
I725
tp82
a(S'w'
I8
tp83
a(S'w'
I726
tp84
a(S'w'
I7
tp85
a(S'w'
I726
tp86
a(S'p1_tl'
I28
tp87
a(S'w'
I8
tp88
a(S'w'
I726
tp89
a(S'w'
I8
tp90
a(S'w'
I726
tp91
a(S'w'
I11
tp92
a(S'p1_tl'
I29
tp93
a(S'w'
I1
tp94
a(S'p1_ll'
I1
tp95
a(S'w'
I4
tp96
a(S'w'
I12
tp97
a(S'p2_tl'
I29
tp98
a(S'p2_ll'
I1
tp99
a(S'w'
I15
tp100
a(S'tr_ll'
I1
tp101
a(S'w'
I13
tp102
a(S'no_ll'
I1
tp103
a(S'w'
I678
tp104
a(S'p1_tl'
I28
tp105
a(S'w'
I8
tp106
a(S'p2_tl'
I30
tp107
a(S'w'
I726
tp108
a(S'p1_tl'
I29
tp109
a(S'w'
I7
tp110
a(S'w'
I726
tp111
a(S'w'
I8
tp112
a(S'w'
I726
tp113
a(S'w'
I8
tp114
a(S'w'
I726
tp115
a(S'w'
I9
tp116
a(S'w'
I725
tp117
a(S'p1_tl'
I30
tp118
a(S'w'
I8
tp119
a(S'w'
I726
tp120
a(S'w'
I7
tp121
a(S'w'
I726
tp122
a(S'w'
I8
tp123
a(S'w'
I726
tp124
a(S'w'
I8
tp125
a(S'w'
I726
tp126
a(S'p1_tl'
I29
tp127
a(S'w'
I11
tp128
a(S'p1_tl'
I226
tp129
a(S'w'
I1
tp130
a(S'p1_ll'
I1
tp131
a(S'p1_th'
I0
tp132
a(S'w'
I4
tp133
a(S'w'
I12
tp134
a(S'p2_tl'
I226
tp135
a(S'p2_ll'
I1
tp136
a(S'p2_th'
I0
tp137
a(S'w'
I14
tp138
a(S'tr_tl'
I226
tp139
a(S'w'
I1
tp140
a(S'tr_ll'
I1
tp141
a(S'tr_th'
I0
tp142
a(S'w'
I13
tp143
a(S'no_np'
I10
tp144
a(S'no_ll'
I1
tp145
a(S'w'
I678
tp146
a(S'w'
I8
tp147
a(S'p2_tl'
I227
tp148
a(S'w'
I726
tp149
a(S'w'
I7
tp150
a(S'w'
I726
tp151
a(S'w'
I8
tp152
a(S'w'
I726
tp153
a(S'p1_tl'
I225
tp154
a(S'w'
I8
tp155
a(S'w'
I726
tp156
a(S'w'
I9
tp157
a(S'w'
I725
tp158
a(S'w'
I8
tp159
a(S'w'
I726
tp160
a(S'w'
I7
tp161
a(S'w'
I726
tp162
a(S'p1_tl'
I226
tp163
a(S'w'
I8
tp164
a(S'w'
I726
tp165
a(S'w'
I8
tp166
a(S'w'
I726
tp167
a(S'w'
I11
tp168
a(S'w'
I1
tp169
a(S'p1_ll'
I1
tp170
a(S'w'
I4
tp171
a(S'w'
I12
tp172
a(S'p2_tl'
I226
tp173
a(S'p2_ll'
I1
tp174
a(S'w'
I15
tp175
a(S'tr_ll'
I1
tp176
a(S'w'
I13
tp177
a(S'no_ll'
I1
tp178
a(S'w'
I678
tp179
a(S'w'
I4
tp180
a(S'w'
I4
tp181
a(S'p2_tl'
I227
tp182
a(S'w'
I3
tp183
a(S'w'
I7
tp184
a(S'w'
I6
tp185
a(S'w'
I710
tp186
a(S'p1_tl'
I227
tp187
a(S'w'
I7
tp188
a(S'w'
I726
tp189
a(S'w'
I8
tp190
a(S'w'
I726
tp191
a(S'w'
I8
tp192
a(S'w'
I726
tp193
a(S'w'
I9
tp194
a(S'w'
I725
tp195
a(S'p1_tl'
I226
tp196
a(S'w'
I8
tp197
a(S'w'
I726
tp198
a(S'w'
I7
tp199
a(S'w'
I726
tp200
a(S'w'
I8
tp201
a(S'w'
I726
tp202
a(S'w'
I8
tp203
a(S'w'
I726
tp204
a(S'p1_tl'
I225
tp205
a(S'w'
I10
tp206
a(S'ch_no'
I1
tp207
a(S'ch_tr'
I1
tp208
a(S'ch_p2'
I1
tp209
a(S'ch_p1'
I1
tp210
a(S'w'
I2
tp211
a(S'p1_tl'
I190
tp212
a(S'w'
I1
tp213
a(S'p1_ll'
I1
tp214
a(S'w'
I3
tp215
a(S'w'
I12
tp216
a(S'p2_tl'
I190
tp217
a(S'w'
I1
tp218
a(S'p2_ll'
I1
tp219
a(S'w'
I14
tp220
a(S'tr_tl'
I190
tp221
a(S'w'
I1
tp222
a(S'tr_ll'
I1
tp223
a(S'w'
I13
tp224
a(S'no_np'
I1
tp225
a(S'no_ll'
I1
tp226
a(S'w'
I677
tp227
a(S'p1_tl'
I189
tp228
a(S'w'
I8
tp229
a(S'p2_tl'
I191
tp230
a(S'w'
I726
tp231
a(S'w'
I7
tp232
a(S'w'
I726
tp233
a(S'w'
I8
tp234
a(S'w'
I726
tp235
a(S'p1_tl'
I190
tp236
a(S'w'
I8
tp237
a(S'w'
I726
tp238
a(S'w'
I9
tp239
a(S'w'
I725
tp240
a(S'w'
I8
tp241
a(S'w'
I726
tp242
a(S'w'
I7
tp243
a(S'w'
I726
tp244
a(S'p1_tl'
I191
tp245
a(S'w'
I8
tp246
a(S'w'
I726
tp247
a(S'w'
I8
tp248
a(S'w'
I726
tp249
a(S'w'
I12
tp250
a(S'p1_tl'
I190
tp251
a(S'w'
I1
tp252
a(S'p1_ll'
I1
tp253
a(S'w'
I3
tp254
a(S'w'
I12
tp255
a(S'p2_tl'
I190
tp256
a(S'w'
I1
tp257
a(S'p2_ll'
I1
tp258
a(S'w'
I15
tp259
a(S'tr_ll'
I1
tp260
a(S'w'
I13
tp261
a(S'no_ll'
I1
tp262
a(S'w'
I677
tp263
a(S'p1_tl'
I191
tp264
a(S'w'
I8
tp265
a(S'p2_tl'
I191
tp266
a(S'w'
I726
tp267
a(S'p1_tl'
I190
tp268
a(S'w'
I7
tp269
a(S'w'
I727
tp270
a(S'w'
I7
tp271
a(S'w'
I726
tp272
a(S'w'
I8
tp273
a(S'w'
I726
tp274
a(S'w'
I9
tp275
a(S'w'
I725
tp276
a(S'p1_tl'
I189
tp277
a(S'w'
I8
tp278
a(S'w'
I726
tp279
a(S'w'
I7
tp280
a(S'w'
I727
tp281
a(S'w'
I7
tp282
a(S'w'
I726
tp283
a(S'w'
I8
tp284
a(S'w'
I692
tp285
a(S'p1_tl'
I190
tp286
a(S'w'
I11
tp287
a(S'p1_tl'
I226
tp288
a(S'w'
I1
tp289
a(S'p1_ll'
I1
tp290
a(S'w'
I4
tp291
a(S'w'
I12
tp292
a(S'p2_tl'
I226
tp293
a(S'p2_ll'
I1
tp294
a(S'w'
I14
tp295
a(S'tr_tl'
I226
tp296
a(S'w'
I1
tp297
a(S'tr_ll'
I1
tp298
a(S'w'
I13
tp299
a(S'no_np'
I10
tp300
a(S'no_ll'
I1
tp301
a(S'w'
I732
tp302
a(S'w'
I8
tp303
a(S'p2_tl'
I227
tp304
a(S'w'
I732
tp305
a(S'w'
I8
tp306
a(S'w'
I736
tp307
a(S'w'
I8
tp308
a(S'w'
I729
tp309
a(S'p1_tl'
I227
tp310
a(S'w'
I8
tp311
a(S'w'
I734
tp312
a(S'w'
I9
tp313
a(S'w'
I25
tp314
a(S'no_np'
I1
tp315
a(S'no_ll'
I1
tp316
a(S'w'
I677
tp317
a(S'w'
I8
tp318
a(S'w'
I727
tp319
a(S'w'
I7
tp320
a(S'w'
I726
tp321
a(S'p1_tl'
I226
tp322
a(S'w'
I8
tp323
a(S'w'
I729
tp324
a(S'w'
I7
tp325
a(S'w'
I724
tp326
a(S'w'
I11
tp327
a(S'w'
I1
tp328
a(S'p1_ll'
I1
tp329
a(S'w'
I4
tp330
a(S'w'
I11
tp331
a(S'p2_tl'
I226
tp332
a(S'w'
I1
tp333
a(S'p2_ll'
I1
tp334
a(S'w'
I15
tp335
a(S'tr_ll'
I1
tp336
a(S'w'
I14
tp337
a(S'w'
I1
tp338
a(S'no_ll'
I1
tp339
a(S'w'
I676
tp340
a(S'w'
I8
tp341
a(S'p2_tl'
I227
tp342
a(S'w'
I725
tp343
a(S'p1_tl'
I225
tp344
a(S'w'
I8
tp345
a(S'w'
I729
tp346
a(S'w'
I8
tp347
a(S'w'
I723
tp348
a(S'w'
I8
tp349
a(S'w'
I729
tp350
a(S'w'
I9
tp351
a(S'w'
I725
tp352
a(S'p1_tl'
I226
tp353
a(S'w'
I7
tp354
a(S'w'
I723
tp355
a(S'w'
I8
tp356
a(S'w'
I728
tp357
a(S'w'
I8
tp358
a(S'w'
I727
tp359
a(S'w'
I7
tp360
a(S'w'
I726
tp361
a(S'p1_tl'
I227
tp362
a(S'w'
I11
tp363
a(S'p1_tl'
I64
tp364
a(S'w'
I1
tp365
a(S'p1_ll'
I1
tp366
a(S'p1_th'
I1
tp367
a(S'w'
I4
tp368
a(S'w'
I11
tp369
a(S'p2_tl'
I64
tp370
a(S'w'
I1
tp371
a(S'p2_ll'
I1
tp372
a(S'p2_th'
I1
tp373
a(S'w'
I14
tp374
a(S'tr_tl'
I64
tp375
a(S'w'
I1
tp376
a(S'tr_ll'
I1
tp377
a(S'tr_th'
I1
tp378
a(S'w'
I12
tp379
a(S'w'
I1
tp380
a(S'no_ll'
I1
tp381
a(S'w'
I679
tp382
a(S'p1_tl'
I65
tp383
a(S'w'
I8
tp384
a(S'p2_tl'
I65
tp385
a(S'w'
I725
tp386
a(S'w'
I8
tp387
a(S'w'
I726
tp388
a(S'w'
I8
tp389
a(S'w'
I726
tp390
a(S'p1_tl'
I64
tp391
a(S'w'
I7
tp392
a(S'w'
I727
tp393
a(S'w'
I9
tp394
a(S'w'
I724
tp395
a(S'w'
I8
tp396
a(S'w'
I727
tp397
a(S'w'
I7
tp398
a(S'w'
I726
tp399
a(S'p1_tl'
I63
tp400
a(S'w'
I8
tp401
a(S'w'
I726
tp402
a(S'w'
I8
tp403
a(S'w'
I726
tp404
a(S'w'
I11
tp405
a(S'p1_tl'
I64
tp406
a(S'w'
I1
tp407
a(S'p1_ll'
I1
tp408
a(S'w'
I3
tp409
a(S'w'
I12
tp410
a(S'p2_tl'
I64
tp411
a(S'w'
I1
tp412
a(S'p2_ll'
I1
tp413
a(S'w'
I14
tp414
a(S'tr_ll'
I1
tp415
a(S'w'
I13
tp416
a(S'no_np'
I10
tp417
a(S'w'
I1
tp418
a(S'no_ll'
I1
tp419
a(S'w'
I675
tp420
a(S'p1_tl'
I63
tp421
a(S'w'
I7
tp422
a(S'p2_tl'
I65
tp423
a(S'w'
I726
tp424
a(S'p1_tl'
I64
tp425
a(S'w'
I8
tp426
a(S'w'
I726
tp427
a(S'w'
I8
tp428
a(S'w'
I726
tp429
a(S'w'
I7
tp430
a(S'w'
I727
tp431
a(S'w'
I9
tp432
a(S'w'
I724
tp433
a(S'p1_tl'
I65
tp434
a(S'w'
I8
tp435
a(S'w'
I726
tp436
a(S'w'
I8
tp437
a(S'w'
I725
tp438
a(S'w'
I8
tp439
a(S'w'
I726
tp440
a(S'w'
I8
tp441
a(S'w'
I726
tp442
a(S'p1_tl'
I64
tp443
a(S'w'
I11
tp444
a(S'p1_tl'
I254
tp445
a(S'w'
I1
tp446
a(S'p1_ll'
I1
tp447
a(S'p1_th'
I0
tp448
a(S'w'
I4
tp449
a(S'w'
I11
tp450
a(S'p2_tl'
I254
tp451
a(S'w'
I1
tp452
a(S'p2_ll'
I1
tp453
a(S'p2_th'
I0
tp454
a(S'w'
I14
tp455
a(S'tr_tl'
I254
tp456
a(S'w'
I1
tp457
a(S'tr_ll'
I1
tp458
a(S'tr_th'
I0
tp459
a(S'w'
I13
tp460
a(S'no_ll'
I1
tp461
a(S'w'
I678
tp462
a(S'p1_tl'
I253
tp463
a(S'w'
I8
tp464
a(S'w'
I725
tp465
a(S'w'
I8
tp466
a(S'w'
I727
tp467
a(S'w'
I7
tp468
a(S'w'
I726
tp469
a(S'p1_tl'
I252
tp470
a(S'w'
I8
tp471
a(S'w'
I726
tp472
a(S'w'
I9
tp473
a(S'w'
I724
tp474
a(S'w'
I8
tp475
a(S'w'
I730
tp476
a(S'w'
I8
tp477
a(S'w'
I725
tp478
a(S'p1_tl'
I253
tp479
a(S'w'
I8
tp480
a(S'w'
I727
tp481
a(S'w'
I7
tp482
a(S'w'
I726
tp483
a(S'w'
I11
tp484
a(S'p1_tl'
I254
tp485
a(S'w'
I1
tp486
a(S'p1_ll'
I1
tp487
a(S'w'
I4
tp488
a(S'w'
I11
tp489
a(S'w'
I1
tp490
a(S'p2_ll'
I1
tp491
a(S'w'
I15
tp492
a(S'tr_ll'
I1
tp493
a(S'w'
I13
tp494
a(S'no_np'
I1
tp495
a(S'no_ll'
I1
tp496
a(S'w'
I678
tp497
a(S'p1_tl'
I253
tp498
a(S'w'
I8
tp499
a(S'w'
I725
tp500
a(S'p1_tl'
I254
tp501
a(S'w'
I8
tp502
a(S'w'
I727
tp503
a(S'w'
I8
tp504
a(S'w'
I725
tp505
a(S'w'
I8
tp506
a(S'w'
I726
tp507
a(S'w'
I9
tp508
a(S'w'
I725
tp509
a(S'p1_tl'
I253
tp510
a(S'w'
I7
tp511
a(S'w'
I727
tp512
a(S'w'
I8
tp513
a(S'w'
I725
tp514
a(S'w'
I8
tp515
a(S'w'
I727
tp516
a(S'w'
I7
tp517
a(S'w'
I726
tp518
a(S'p1_tl'
I252
tp519
a(S'w'
I12
tp520
a(S'p1_tl'
I213
tp521
a(S'p1_ll'
I1
tp522
a(S'w'
I4
tp523
a(S'w'
I12
tp524
a(S'p2_tl'
I213
tp525
a(S'w'
I1
tp526
a(S'p2_ll'
I1
tp527
a(S'w'
I14
tp528
a(S'tr_tl'
I213
tp529
a(S'w'
I1
tp530
a(S'tr_ll'
I1
tp531
a(S'w'
I13
tp532
a(S'no_ll'
I1
tp533
a(S'w'
I681
tp534
a(S'p1_tl'
I212
tp535
a(S'w'
I8
tp536
a(S'p2_tl'
I214
tp537
a(S'w'
I723
tp538
a(S'w'
I7
tp539
a(S'w'
I727
tp540
a(S'w'
I8
tp541
a(S'w'
I735
tp542
a(S'p1_tl'
I213
tp543
a(S'w'
I8
tp544
a(S'w'
I730
tp545
a(S'w'
I9
tp546
a(S'w'
I732
tp547
a(S'w'
I8
tp548
a(S'w'
I705
tp549
a(S'w'
I8
tp550
a(S'w'
I725
tp551
a(S'p1_tl'
I214
tp552
a(S'w'
I8
tp553
a(S'w'
I727
tp554
a(S'w'
I8
tp555
a(S'w'
I727
tp556
a(S'w'
I12
tp557
a(S'p1_tl'
I213
tp558
a(S'w'
I1
tp559
a(S'p1_ll'
I1
tp560
a(S'w'
I4
tp561
a(S'w'
I12
tp562
a(S'p2_tl'
I213
tp563
a(S'p2_ll'
I1
tp564
a(S'w'
I15
tp565
a(S'tr_ll'
I1
tp566
a(S'w'
I13
tp567
a(S'no_np'
I10
tp568
a(S'w'
I1
tp569
a(S'no_ll'
I1
tp570
a(S'w'
I674
tp571
a(S'p1_tl'
I214
tp572
a(S'w'
I8
tp573
a(S'p2_tl'
I214
tp574
a(S'w'
I725
tp575
a(S'p1_tl'
I213
tp576
a(S'w'
I8
tp577
a(S'w'
I727
tp578
a(S'w'
I7
tp579
a(S'w'
I728
tp580
a(S'w'
I8
tp581
a(S'w'
I724
tp582
a(S'w'
I9
tp583
a(S'w'
I26
tp584
a(S'no_np'
I1
tp585
a(S'no_ll'
I1
tp586
a(S'w'
I699
tp587
a(S'p1_tl'
I212
tp588
a(S'w'
I7
tp589
a(S'w'
I724
tp590
a(S'w'
I8
tp591
a(S'w'
I722
tp592
a(S'w'
I7
tp593
a(S'w'
I729
tp594
a(S'w'
I8
tp595
a(S'w'
I726
tp596
a(S'p1_tl'
I213
tp597
a(S'w'
I11
tp598
a(S'p1_tl'
I254
tp599
a(S'w'
I1
tp600
a(S'p1_ll'
I1
tp601
a(S'w'
I4
tp602
a(S'w'
I11
tp603
a(S'p2_tl'
I254
tp604
a(S'w'
I1
tp605
a(S'p2_ll'
I1
tp606
a(S'w'
I14
tp607
a(S'tr_tl'
I254
tp608
a(S'w'
I1
tp609
a(S'tr_ll'
I1
tp610
a(S'w'
I15
tp611
a(S'no_ll'
I1
tp612
a(S'w'
I676
tp613
a(S'p1_tl'
I253
tp614
a(S'w'
I8
tp615
a(S'w'
I725
tp616
a(S'w'
I8
tp617
a(S'w'
I727
tp618
a(S'w'
I7
tp619
a(S'w'
I726
tp620
a(S'p1_tl'
I254
tp621
a(S'w'
I8
tp622
a(S'w'
I727
tp623
a(S'w'
I9
tp624
a(S'w'
I724
tp625
a(S'w'
I8
tp626
a(S'w'
I726
tp627
a(S'w'
I8
tp628
a(S'w'
I725
tp629
a(S'p1_tl'
I253
tp630
a(S'w'
I8
tp631
a(S'w'
I727
tp632
a(S'w'
I8
tp633
a(S'w'
I725
tp634
a(S'w'
I12
tp635
a(S'p1_tl'
I254
tp636
a(S'p1_ll'
I1
tp637
a(S'w'
I4
tp638
a(S'w'
I12
tp639
a(S'w'
I1
tp640
a(S'p2_ll'
I1
tp641
a(S'w'
I14
tp642
a(S'tr_ll'
I1
tp643
a(S'w'
I13
tp644
a(S'w'
I1
tp645
a(S'no_ll'
I1
tp646
a(S'w'
I677
tp647
a(S'p1_tl'
I253
tp648
a(S'w'
I8
tp649
a(S'w'
I726
tp650
a(S'p1_tl'
I252
tp651
a(S'w'
I7
tp652
a(S'w'
I730
tp653
a(S'w'
I8
tp654
a(S'w'
I725
tp655
a(S'w'
I8
tp656
a(S'w'
I727
tp657
a(S'w'
I9
tp658
a(S'w'
I724
tp659
a(S'p1_tl'
I253
tp660
a(S'w'
I8
tp661
a(S'w'
I726
tp662
a(S'w'
I8
tp663
a(S'w'
I726
tp664
a(S'w'
I7
tp665
a(S'w'
I727
tp666
a(S'w'
I8
tp667
a(S'w'
I725
tp668
a(S'p1_tl'
I254
tp669
a(S'w'
I12
tp670
a(S'p1_tl'
I171
tp671
a(S'p1_ll'
I1
tp672
a(S'p1_th'
I1
tp673
a(S'w'
I4
tp674
a(S'w'
I12
tp675
a(S'p2_tl'
I171
tp676
a(S'p2_ll'
I1
tp677
a(S'p2_th'
I1
tp678
a(S'w'
I14
tp679
a(S'tr_tl'
I171
tp680
a(S'w'
I1
tp681
a(S'tr_ll'
I1
tp682
a(S'tr_th'
I1
tp683
a(S'w'
I13
tp684
a(S'no_np'
I10
tp685
a(S'no_ll'
I1
tp686
a(S'w'
I679
tp687
a(S'p1_tl'
I172
tp688
a(S'w'
I7
tp689
a(S'p2_tl'
I172
tp690
a(S'w'
I725
tp691
a(S'w'
I8
tp692
a(S'w'
I727
tp693
a(S'w'
I7
tp694
a(S'w'
I726
tp695
a(S'p1_tl'
I171
tp696
a(S'w'
I8
tp697
a(S'w'
I726
tp698
a(S'w'
I9
tp699
a(S'w'
I725
tp700
a(S'w'
I7
tp701
a(S'w'
I727
tp702
a(S'w'
I8
tp703
a(S'w'
I725
tp704
a(S'p1_tl'
I170
tp705
a(S'w'
I8
tp706
a(S'w'
I724
tp707
a(S'w'
I7
tp708
a(S'w'
I726
tp709
a(S'w'
I11
tp710
a(S'p1_tl'
I171
tp711
a(S'w'
I1
tp712
a(S'p1_ll'
I1
tp713
a(S'w'
I4
tp714
a(S'w'
I11
tp715
a(S'p2_tl'
I171
tp716
a(S'w'
I1
tp717
a(S'p2_ll'
I1
tp718
a(S'w'
I15
tp719
a(S'tr_ll'
I1
tp720
a(S'w'
I12
tp721
a(S'w'
I1
tp722
a(S'no_ll'
I1
tp723
a(S'w'
I678
tp724
a(S'p1_tl'
I170
tp725
a(S'w'
I8
tp726
a(S'p2_tl'
I172
tp727
a(S'w'
I725
tp728
a(S'p1_tl'
I171
tp729
a(S'w'
I8
tp730
a(S'w'
I727
tp731
a(S'w'
I7
tp732
a(S'w'
I726
tp733
a(S'w'
I8
tp734
a(S'w'
I726
tp735
a(S'w'
I9
tp736
a(S'w'
I725
tp737
a(S'p1_tl'
I172
tp738
a(S'w'
I7
tp739
a(S'w'
I728
tp740
a(S'w'
I7
tp741
a(S'w'
I726
tp742
a(S'w'
I7
tp743
a(S'w'
I727
tp744
a(S'w'
I8
tp745
a(S'w'
I725
tp746
a(S'p1_tl'
I171
tp747
a(S'w'
I12
tp748
a(S'p1_tl'
I83
tp749
a(S'p1_ll'
I1
tp750
a(S'w'
I4
tp751
a(S'w'
I12
tp752
a(S'p2_tl'
I83
tp753
a(S'p2_ll'
I1
tp754
a(S'w'
I14
tp755
a(S'tr_tl'
I83
tp756
a(S'w'
I1
tp757
a(S'tr_ll'
I1
tp758
a(S'w'
I13
tp759
a(S'no_np'
I1
tp760
a(S'no_ll'
I1
tp761
a(S'w'
I678
tp762
a(S'w'
I8
tp763
a(S'p2_tl'
I84
tp764
a(S'w'
I726
tp765
a(S'w'
I7
tp766
a(S'w'
I727
tp767
a(S'w'
I8
tp768
a(S'w'
I725
tp769
a(S'p1_tl'
I82
tp770
a(S'w'
I8
tp771
a(S'w'
I730
tp772
a(S'w'
I9
tp773
a(S'w'
I724
tp774
a(S'w'
I8
tp775
a(S'w'
I726
tp776
a(S'w'
I8
tp777
a(S'w'
I726
tp778
a(S'p1_tl'
I83
tp779
a(S'w'
I7
tp780
a(S'w'
I727
tp781
a(S'w'
I8
tp782
a(S'w'
I725
tp783
a(S'w'
I12
tp784
a(S'p1_ll'
I1
tp785
a(S'w'
I4
tp786
a(S'w'
I12
tp787
a(S'p2_tl'
I83
tp788
a(S'p2_ll'
I1
tp789
a(S'w'
I15
tp790
a(S'tr_ll'
I1
tp791
a(S'w'
I13
tp792
a(S'no_ll'
I1
tp793
a(S'w'
I679
tp794
a(S'w'
I7
tp795
a(S'p2_tl'
I84
tp796
a(S'w'
I726
tp797
a(S'p1_tl'
I84
tp798
a(S'w'
I8
tp799
a(S'w'
I726
tp800
a(S'w'
I7
tp801
a(S'w'
I726
tp802
a(S'w'
I7
tp803
a(S'w'
I727
tp804
a(S'w'
I9
tp805
a(S'w'
I724
tp806
a(S'p1_tl'
I83
tp807
a(S'w'
I8
tp808
a(S'w'
I727
tp809
a(S'w'
I7
tp810
a(S'w'
I726
tp811
a(S'w'
I8
tp812
a(S'w'
I726
tp813
a(S'w'
I8
tp814
a(S'w'
I726
tp815
a(S'p1_tl'
I82
tp816
a(S'w'
I11
tp817
a(S'p1_tl'
I29
tp818
a(S'w'
I1
tp819
a(S'p1_ll'
I1
tp820
a(S'w'
I4
tp821
a(S'w'
I11
tp822
a(S'p2_tl'
I29
tp823
a(S'w'
I1
tp824
a(S'p2_ll'
I1
tp825
a(S'w'
I14
tp826
a(S'tr_tl'
I29
tp827
a(S'tr_ll'
I1
tp828
a(S'w'
I13
tp829
a(S'no_np'
I10
tp830
a(S'w'
I1
tp831
a(S'no_ll'
I1
tp832
a(S'w'
I675
tp833
a(S'p1_tl'
I28
tp834
a(S'w'
I7
tp835
a(S'p2_tl'
I30
tp836
a(S'w'
I726
tp837
a(S'w'
I8
tp838
a(S'w'
I726
tp839
a(S'w'
I8
tp840
a(S'w'
I726
tp841
a(S'p1_tl'
I29
tp842
a(S'w'
I7
tp843
a(S'w'
I727
tp844
a(S'w'
I9
tp845
a(S'w'
I25
tp846
a(S'no_np'
I1
tp847
a(S'w'
I1
tp848
a(S'no_ll'
I1
tp849
a(S'w'
I698
tp850
a(S'w'
I8
tp851
a(S'w'
I727
tp852
a(S'w'
I7
tp853
a(S'w'
I726
tp854
a(S'p1_tl'
I30
tp855
a(S'w'
I8
tp856
a(S'w'
I727
tp857
a(S'w'
I8
tp858
a(S'w'
I725
tp859
a(S'w'
I12
tp860
a(S'p1_tl'
I29
tp861
a(S'p1_ll'
I1
tp862
a(S'w'
I4
tp863
a(S'w'
I12
tp864
a(S'p2_tl'
I29
tp865
a(S'p2_ll'
I1
tp866
a(S'w'
I15
tp867
a(S'tr_ll'
I1
tp868
a(S'w'
I15
tp869
a(S'no_ll'
I1
tp870
a(S'w'
I677
tp871
a(S'p1_tl'
I30
tp872
a(S'w'
I7
tp873
a(S'p2_tl'
I30
tp874
a(S'w'
I726
tp875
a(S'p1_tl'
I29
tp876
a(S'w'
I7
tp877
a(S'w'
I727
tp878
a(S'w'
I8
tp879
a(S'w'
I725
tp880
a(S'w'
I8
tp881
a(S'w'
I727
tp882
a(S'w'
I9
tp883
a(S'w'
I724
tp884
a(S'p1_tl'
I28
tp885
a(S'w'
I8
tp886
a(S'w'
I729
tp887
a(S'w'
I8
tp888
a(S'w'
I726
tp889
a(S'w'
I7
tp890
a(S'w'
I727
tp891
a(S'w'
I8
tp892
a(S'w'
I725
tp893
a(S'p1_tl'
I29
tp894
a(S'w'
I12
tp895
a(S'p1_tl'
I254
tp896
a(S'p1_ll'
I1
tp897
a(S'p1_th'
I0
tp898
a(S'w'
I4
tp899
a(S'w'
I12
tp900
a(S'p2_tl'
I254
tp901
a(S'w'
I1
tp902
a(S'p2_ll'
I1
tp903
a(S'p2_th'
I0
tp904
a(S'w'
I14
tp905
a(S'tr_tl'
I254
tp906
a(S'w'
I1
tp907
a(S'tr_ll'
I1
tp908
a(S'tr_th'
I0
tp909
a(S'w'
I12
tp910
a(S'w'
I1
tp911
a(S'no_ll'
I1
tp912
a(S'w'
I678
tp913
a(S'p1_tl'
I253
tp914
a(S'w'
I7
tp915
a(S'w'
I726
tp916
a(S'w'
I8
tp917
a(S'w'
I726
tp918
a(S'w'
I8
tp919
a(S'w'
I726
tp920
a(S'p1_tl'
I254
tp921
a(S'w'
I7
tp922
a(S'w'
I727
tp923
a(S'w'
I9
tp924
a(S'w'
I724
tp925
a(S'w'
I8
tp926
a(S'w'
I726
tp927
a(S'w'
I8
tp928
a(S'w'
I726
tp929
a(S'p1_tl'
I253
tp930
a(S'w'
I7
tp931
a(S'w'
I727
tp932
a(S'w'
I8
tp933
a(S'w'
I725
tp934
a(S'w'
I12
tp935
a(S'p1_tl'
I254
tp936
a(S'p1_ll'
I1
tp937
a(S'w'
I4
tp938
a(S'w'
I12
tp939
a(S'w'
I1
tp940
a(S'p2_ll'
I1
tp941
a(S'w'
I15
tp942
a(S'tr_ll'
I1
tp943
a(S'w'
I12
tp944
a(S'no_np'
I10
tp945
a(S'w'
I1
tp946
a(S'no_ll'
I1
tp947
a(S'w'
I678
tp948
a(S'p1_tl'
I253
tp949
a(S'w'
I7
tp950
a(S'w'
I726
tp951
a(S'p1_tl'
I252
tp952
a(S'w'
I8
tp953
a(S'w'
I723
tp954
a(S'w'
I8
tp955
a(S'w'
I725
tp956
a(S'w'
I8
tp957
a(S'w'
I727
tp958
a(S'w'
I9
tp959
a(S'w'
I724
tp960
a(S'p1_tl'
I253
tp961
a(S'w'
I8
tp962
a(S'w'
I726
tp963
a(S'w'
I8
tp964
a(S'w'
I726
tp965
a(S'w'
I7
tp966
a(S'w'
I727
tp967
a(S'w'
I8
tp968
a(S'w'
I725
tp969
a(S'p1_tl'
I254
tp970
a(S'w'
I8
tp971
a(S'ch_no'
I1
tp972
a(S'ch_tr'
I1
tp973
a(S'ch_p2'
I1
tp974
a(S'ch_p1'
I0
tp975
a(S'w'
I4
tp976
a(S'w'
I7
tp977
a(S'ch_no'
I1
tp978
a(S'ch_tr'
I1
tp979
a(S'ch_p2'
I0
tp980
a(S'ch_p1'
I0
tp981
a(S'w'
I11
tp982
a(S'ch_no'
I1
tp983
a(S'ch_tr'
I0
tp984
a(S'ch_p2'
I0
tp985
a(S'ch_p1'
I0
tp986
a(S'w'
I13
tp987
a(S'no_ll'
I1
tp988
a(S'w'
I692
tp989
a(S'w'
I8
tp990
a(S'w'
I725
tp991
a(S'w'
I8
tp992
a(S'w'
I726
tp993
a(S'w'
I8
tp994
a(S'w'
I725
tp995
a(S'p1_tl'
I253
tp996
a(S'w'
I8
tp997
a(S'w'
I727
tp998
a(S'w'
I9
tp999
a(S'w'
I724
tp1000
a(S'w'
I8
tp1001
a(S'w'
I730
tp1002
a(S'w'
I8
tp1003
a(S'w'
I723
tp1004
a(S'p1_tl'
I252
tp1005
a(S'w'
I8
tp1006
a(S'w'
I726
tp1007
a(S'w'
I8
tp1008
a(S'w'
I735
tp1009
a(S'w'
I10
tp1010
a(S'ch_no'
I1
tp1011
a(S'ch_tr'
I0
tp1012
a(S'ch_p2'
I0
tp1013
a(S'ch_p1'
I1
tp1014
a(S'w'
I2
tp1015
a(S'p1_tl'
I240
tp1016
a(S'p1_ll'
I1
tp1017
a(S'w'
I4
tp1018
a(S'w'
I10
tp1019
a(S'ch_no'
I1
tp1020
a(S'ch_tr'
I0
tp1021
a(S'ch_p2'
I1
tp1022
a(S'ch_p1'
I1
tp1023
a(S'w'
I2
tp1024
a(S'p2_tl'
I240
tp1025
a(S'w'
I1
tp1026
a(S'p2_ll'
I1
tp1027
a(S'w'
I12
tp1028
a(S'ch_no'
I1
tp1029
a(S'ch_tr'
I1
tp1030
a(S'ch_p2'
I1
tp1031
a(S'ch_p1'
I1
tp1032
a(S'w'
I2
tp1033
a(S'tr_tl'
I240
tp1034
a(S'tr_ll'
I1
tp1035
a(S'w'
I13
tp1036
a(S'no_np'
I1
tp1037
a(S'w'
I1
tp1038
a(S'no_ll'
I1
tp1039
a(S'w'
I681
tp1040
a(S'p1_tl'
I239
tp1041
a(S'w'
I8
tp1042
a(S'p2_tl'
I241
tp1043
a(S'w'
I733
tp1044
a(S'p1_tl'
I240
tp1045
a(S'w'
I8
tp1046
a(S'w'
I705
tp1047
a(S'w'
I8
tp1048
a(S'w'
I725
tp1049
a(S'w'
I8
tp1050
a(S'w'
I727
tp1051
a(S'w'
I9
tp1052
a(S'w'
I727
tp1053
a(S'p1_tl'
I241
tp1054
a(S'w'
I7
tp1055
a(S'w'
I725
tp1056
a(S'w'
I7
tp1057
a(S'w'
I726
tp1058
a(S'w'
I7
tp1059
a(S'w'
I727
tp1060
a(S'w'
I8
tp1061
a(S'w'
I728
tp1062
a(S'p1_tl'
I240
tp1063
a(S'w'
I11
tp1064
a(S'w'
I1
tp1065
a(S'p1_ll'
I1
tp1066
a(S'w'
I4
tp1067
a(S'w'
I11
tp1068
a(S'p2_tl'
I240
tp1069
a(S'w'
I1
tp1070
a(S'p2_ll'
I1
tp1071
a(S'w'
I15
tp1072
a(S'tr_ll'
I1
tp1073
a(S'w'
I12
tp1074
a(S'w'
I1
tp1075
a(S'no_ll'
I1
tp1076
a(S'w'
I676
tp1077
a(S'w'
I7
tp1078
a(S'p2_tl'
I241
tp1079
a(S'w'
I726
tp1080
a(S'w'
I8
tp1081
a(S'w'
I729
tp1082
a(S'w'
I8
tp1083
a(S'w'
I722
tp1084
a(S'p1_tl'
I239
tp1085
a(S'w'
I8
tp1086
a(S'w'
I729
tp1087
a(S'w'
I9
tp1088
a(S'w'
I724
tp1089
a(S'w'
I8
tp1090
a(S'w'
I727
tp1091
a(S'w'
I7
tp1092
a(S'w'
I726
tp1093
a(S'p1_tl'
I240
tp1094
a(S'w'
I8
tp1095
a(S'w'
I726
tp1096
a(S'w'
I8
tp1097
a(S'w'
I725
tp1098
a(S'w'
I12
tp1099
a(S'w'
I1
tp1100
a(S'p1_ll'
I1
tp1101
a(S'w'
I3
tp1102
a(S'w'
I12
tp1103
a(S'p2_tl'
I240
tp1104
a(S'w'
I1
tp1105
a(S'p2_ll'
I1
tp1106
a(S'w'
I14
tp1107
a(S'tr_ll'
I1
tp1108
a(S'w'
I13
tp1109
a(S'no_np'
I10
tp1110
a(S'w'
I1
tp1111
a(S'no_ll'
I1
tp1112
a(S'w'
I678
tp1113
a(S'w'
I7
tp1114
a(S'p2_tl'
I241
tp1115
a(S'w'
I726
tp1116
a(S'p1_tl'
I241
tp1117
a(S'w'
I8
tp1118
a(S'w'
I727
tp1119
a(S'w'
I7
tp1120
a(S'w'
I726
tp1121
a(S'w'
I7
tp1122
a(S'w'
I727
tp1123
a(S'w'
I9
tp1124
a(S'w'
I25
tp1125
a(S'no_np'
I1
tp1126
a(S'w'
I1
tp1127
a(S'no_ll'
I1
tp1128
a(S'w'
I698
tp1129
a(S'p1_tl'
I240
tp1130
a(S'w'
I8
tp1131
a(S'w'
I727
tp1132
a(S'w'
I7
tp1133
a(S'w'
I726
tp1134
a(S'w'
I8
tp1135
a(S'w'
I723
tp1136
a(S'w'
I8
tp1137
a(S'w'
I725
tp1138
a(S'p1_tl'
I239
tp1139
a(S'w'
I12
tp1140
a(S'p1_tl'
I240
tp1141
a(S'p1_ll'
I1
tp1142
a(S'w'
I4
tp1143
a(S'w'
I12
tp1144
a(S'p2_tl'
I240
tp1145
a(S'w'
I1
tp1146
a(S'p2_ll'
I1
tp1147
a(S'w'
I14
tp1148
a(S'tr_ll'
I1
tp1149
a(S'w'
I15
tp1150
a(S'w'
I1
tp1151
a(S'no_ll'
I1
tp1152
a(S'w'
I676
tp1153
a(S'p1_tl'
I239
tp1154
a(S'w'
I7
tp1155
a(S'p2_tl'
I241
tp1156
a(S'w'
I726
tp1157
a(S'w'
I8
tp1158
a(S'w'
I726
tp1159
a(S'w'
I8
tp1160
a(S'w'
I726
tp1161
a(S'p1_tl'
I240
tp1162
a(S'w'
I7
tp1163
a(S'w'
I727
tp1164
a(S'w'
I9
tp1165
a(S'w'
I724
tp1166
a(S'w'
I8
tp1167
a(S'w'
I726
tp1168
a(S'w'
I8
tp1169
a(S'w'
I726
tp1170
a(S'p1_tl'
I241
tp1171
a(S'w'
I7
tp1172
a(S'w'
I727
tp1173
a(S'w'
I7
tp1174
a(S'w'
I726
tp1175
a(S'w'
I9
tp1176
a(S'w'
I25
tp1177
a(S'w'
I1
tp1178
a(S'no_ll'
I1
tp1179
a(S'w'
I699
tp1180
a(S'w'
I8
tp1181
a(S'w'
I725
tp1182
a(S'p1_tl'
I240
tp1183
a(S'w'
I8
tp1184
a(S'w'
I726
tp1185
a(S'w'
I8
tp1186
a(S'w'
I726
tp1187
a(S'w'
I7
tp1188
a(S'w'
I730
tp1189
a(S'w'
I9
tp1190
a(S'w'
I725
tp1191
a(S'p1_tl'
I239
tp1192
a(S'w'
I7
tp1193
a(S'w'
I727
tp1194
a(S'w'
I8
tp1195
a(S'w'
I725
tp1196
a(S'w'
I8
tp1197
a(S'w'
I726
tp1198
a(S'w'
I8
tp1199
a(S'w'
I726
tp1200
a(S'p1_tl'
I240
tp1201
a(S'w'
I15
tp1202
a(S'p1_lh'
I1
tp1203
a(S'p1_cv'
I1
tp1204
a(S'p1_vo'
I15
tp1205
a(S'p1_se'
I1
tp1206
a(S'p1_sp'
I4
tp1207
a(S'p1_sn'
I1
tp1208
a(S'p1_ss'
I4
tp1209
a(S'p1_tl'
I106
tp1210
a(S'w'
I1
tp1211
a(S'p1_ll'
I1
tp1212
a(S'w'
I4
tp1213
a(S'w'
I15
tp1214
a(S'p2_lh'
I1
tp1215
a(S'p2_cv'
I1
tp1216
a(S'p2_vo'
I15
tp1217
a(S'p2_se'
I1
tp1218
a(S'p2_sp'
I4
tp1219
a(S'p2_sn'
I1
tp1220
a(S'p2_ss'
I4
tp1221
a(S'w'
I1
tp1222
a(S'p2_tl'
I106
tp1223
a(S'p2_ll'
I1
tp1224
a(S'w'
I18
tp1225
a(S'tr_tl'
I106
tp1226
a(S'w'
I1
tp1227
a(S'tr_ll'
I1
tp1228
a(S'w'
I12
tp1229
a(S'no_np'
I10
tp1230
a(S'w'
I1
tp1231
a(S'no_ll'
I1
tp1232
a(S'w'
I666
tp1233
a(S'p1_tl'
I106
tp1234
a(S'w'
I8
tp1235
a(S'p2_tl'
I107
tp1236
a(S'w'
I725
tp1237
a(S'p1_tl'
I106
tp1238
a(S'w'
I8
tp1239
a(S'p2_tl'
I107
tp1240
a(S'w'
I727
tp1241
a(S'p1_tl'
I106
tp1242
a(S'w'
I7
tp1243
a(S'p2_tl'
I107
tp1244
a(S'w'
I726
tp1245
a(S'p1_tl'
I107
tp1246
a(S'w'
I8
tp1247
a(S'p2_tl'
I107
tp1248
a(S'w'
I727
tp1249
a(S'p1_tl'
I107
tp1250
a(S'w'
I9
tp1251
a(S'p2_tl'
I107
tp1252
a(S'w'
I724
tp1253
a(S'p1_tl'
I107
tp1254
a(S'w'
I8
tp1255
a(S'p2_tl'
I107
tp1256
a(S'w'
I727
tp1257
a(S'p1_tl'
I107
tp1258
a(S'w'
I7
tp1259
a(S'p2_tl'
I107
tp1260
a(S'w'
I726
tp1261
a(S'p1_tl'
I106
tp1262
a(S'w'
I8
tp1263
a(S'p2_tl'
I107
tp1264
a(S'w'
I726
tp1265
a(S'p1_tl'
I106
tp1266
a(S'w'
I8
tp1267
a(S'p2_tl'
I107
tp1268
a(S'w'
I725
tp1269
a(S'p1_tl'
I106
tp1270
a(S'w'
I9
tp1271
a(S'p2_tl'
I107
tp1272
a(S'w'
I26
tp1273
a(S'w'
I1
tp1274
a(S'no_ll'
I1
tp1275
a(S'w'
I696
tp1276
a(S'p1_tl'
I106
tp1277
a(S'w'
I7
tp1278
a(S'p2_tl'
I107
tp1279
a(S'w'
I726
tp1280
a(S'p1_tl'
I105
tp1281
a(S'w'
I8
tp1282
a(S'p2_tl'
I107
tp1283
a(S'w'
I726
tp1284
a(S'p1_tl'
I105
tp1285
a(S'w'
I8
tp1286
a(S'p2_tl'
I107
tp1287
a(S'w'
I726
tp1288
a(S'p1_tl'
I105
tp1289
a(S'w'
I7
tp1290
a(S'p2_tl'
I107
tp1291
a(S'w'
I727
tp1292
a(S'p1_tl'
I105
tp1293
a(S'w'
I9
tp1294
a(S'p2_tl'
I107
tp1295
a(S'w'
I724
tp1296
a(S'p1_tl'
I106
tp1297
a(S'w'
I8
tp1298
a(S'p2_tl'
I107
tp1299
a(S'w'
I727
tp1300
a(S'p1_tl'
I106
tp1301
a(S'w'
I7
tp1302
a(S'p2_tl'
I107
tp1303
a(S'w'
I726
tp1304
a(S'p1_tl'
I106
tp1305
a(S'w'
I7
tp1306
a(S'p2_tl'
I107
tp1307
a(S'w'
I727
tp1308
a(S'p1_tl'
I106
tp1309
a(S'w'
I8
tp1310
a(S'p2_tl'
I107
tp1311
a(S'w'
I725
tp1312
a(S'p1_tl'
I107
tp1313
a(S'w'
I19
tp1314
a(S'p1_lh'
I0
tp1315
a(S'p1_cv'
I0
tp1316
a(S'p1_vo'
I0
tp1317
a(S'w'
I1
tp1318
a(S'p1_se'
I0
tp1319
a(S'p1_sp'
I0
tp1320
a(S'p1_sn'
I0
tp1321
a(S'p1_ss'
I0
tp1322
a(S'p1_tl'
I29
tp1323
a(S'w'
I1
tp1324
a(S'p1_ll'
I1
tp1325
a(S'p1_th'
I1
tp1326
a(S'w'
I4
tp1327
a(S'p2_tl'
I107
tp1328
a(S'w'
I19
tp1329
a(S'p2_lh'
I0
tp1330
a(S'p2_cv'
I0
tp1331
a(S'p2_vo'
I0
tp1332
a(S'p2_se'
I0
tp1333
a(S'p2_sp'
I0
tp1334
a(S'p2_sn'
I0
tp1335
a(S'p2_ss'
I0
tp1336
a(S'p2_tl'
I29
tp1337
a(S'w'
I1
tp1338
a(S'p2_ll'
I1
tp1339
a(S'p2_th'
I1
tp1340
a(S'w'
I19
tp1341
a(S'tr_tl'
I29
tp1342
a(S'w'
I1
tp1343
a(S'tr_ll'
I1
tp1344
a(S'tr_th'
I1
tp1345
a(S'w'
I12
tp1346
a(S'no_np'
I1
tp1347
a(S'w'
I1
tp1348
a(S'no_ll'
I1
tp1349
a(S'w'
I657
tp1350
a(S'p1_tl'
I30
tp1351
a(S'w'
I7
tp1352
a(S'p2_tl'
I30
tp1353
a(S'w'
I726
tp1354
a(S'w'
I7
tp1355
a(S'w'
I727
tp1356
a(S'w'
I8
tp1357
a(S'w'
I725
tp1358
a(S'p1_tl'
I29
tp1359
a(S'w'
I8
tp1360
a(S'w'
I726
tp1361
a(S'w'
I9
tp1362
a(S'w'
I725
tp1363
a(S'w'
I7
tp1364
a(S'w'
I730
tp1365
a(S'w'
I8
tp1366
a(S'w'
I726
tp1367
a(S'p1_tl'
I28
tp1368
a(S'w'
I7
tp1369
a(S'w'
I727
tp1370
a(S'w'
I8
tp1371
a(S'w'
I725
tp1372
a(S'w'
I11
tp1373
a(S'p1_tl'
I29
tp1374
a(S'w'
I1
tp1375
a(S'p1_ll'
I1
tp1376
a(S'w'
I4
tp1377
a(S'w'
I12
tp1378
a(S'p2_tl'
I29
tp1379
a(S'p2_ll'
I1
tp1380
a(S'w'
I15
tp1381
a(S'tr_ll'
I1
tp1382
a(S'w'
I13
tp1383
a(S'no_ll'
I1
tp1384
a(S'w'
I678
tp1385
a(S'p1_tl'
I28
tp1386
a(S'w'
I8
tp1387
a(S'p2_tl'
I30
tp1388
a(S'w'
I726
tp1389
a(S'p1_tl'
I29
tp1390
a(S'w'
I7
tp1391
a(S'w'
I727
tp1392
a(S'w'
I8
tp1393
a(S'w'
I725
tp1394
a(S'w'
I8
tp1395
a(S'w'
I727
tp1396
a(S'w'
I9
tp1397
a(S'w'
I724
tp1398
a(S'p1_tl'
I30
tp1399
a(S'w'
I8
tp1400
a(S'w'
I727
tp1401
a(S'w'
I8
tp1402
a(S'w'
I725
tp1403
a(S'w'
I8
tp1404
a(S'w'
I727
tp1405
a(S'w'
I7
tp1406
a(S'w'
I726
tp1407
a(S'p1_tl'
I29
tp1408
a(S'w'
I11
tp1409
a(S'p1_tl'
I226
tp1410
a(S'w'
I1
tp1411
a(S'p1_ll'
I1
tp1412
a(S'p1_th'
I0
tp1413
a(S'w'
I4
tp1414
a(S'w'
I11
tp1415
a(S'p2_tl'
I226
tp1416
a(S'w'
I1
tp1417
a(S'p2_ll'
I1
tp1418
a(S'p2_th'
I0
tp1419
a(S'w'
I14
tp1420
a(S'tr_tl'
I226
tp1421
a(S'w'
I1
tp1422
a(S'tr_ll'
I1
tp1423
a(S'tr_th'
I0
tp1424
a(S'w'
I12
tp1425
a(S'no_np'
I10
tp1426
a(S'w'
I1
tp1427
a(S'no_ll'
I1
tp1428
a(S'w'
I678
tp1429
a(S'w'
I8
tp1430
a(S'p2_tl'
I227
tp1431
a(S'w'
I726
tp1432
a(S'w'
I7
tp1433
a(S'w'
I724
tp1434
a(S'w'
I7
tp1435
a(S'w'
I726
tp1436
a(S'p1_tl'
I225
tp1437
a(S'w'
I8
tp1438
a(S'w'
I726
tp1439
a(S'w'
I9
tp1440
a(S'w'
I25
tp1441
a(S'no_np'
I1
tp1442
a(S'w'
I1
tp1443
a(S'no_ll'
I1
tp1444
a(S'w'
I699
tp1445
a(S'w'
I7
tp1446
a(S'w'
I727
tp1447
a(S'w'
I8
tp1448
a(S'w'
I725
tp1449
a(S'p1_tl'
I226
tp1450
a(S'w'
I8
tp1451
a(S'w'
I727
tp1452
a(S'w'
I7
tp1453
a(S'w'
I726
tp1454
a(S'w'
I11
tp1455
a(S'w'
I1
tp1456
a(S'p1_ll'
I1
tp1457
a(S'w'
I4
tp1458
a(S'w'
I11
tp1459
a(S'p2_tl'
I226
tp1460
a(S'w'
I1
tp1461
a(S'p2_ll'
I1
tp1462
a(S'w'
I15
tp1463
a(S'tr_ll'
I1
tp1464
a(S'w'
I15
tp1465
a.