(lp1
(S'clock'
p2
I1789772
tp3
a(S'p1_lh'
I1
tp4
a(S'p1_cv'
I1
tp5
a(S'p1_vo'
I15
tp6
a(S'p1_tl'
I142
tp7
a(S'p1_ll'
I1
tp8
a(S'p2_lh'
I1
tp9
a(S'p2_cv'
I1
tp10
a(S'p2_vo'
I15
tp11
a(S'p2_tl'
I171
tp12
a(S'p2_ll'
I1
tp13
a(S'p2_th'
I1
tp14
a(S'tr_lr'
I13
tp15
a(S'tr_tl'
I142
tp16
a(S'tr_ll'
I1
tp17
a(S'no_lh'
I1
tp18
a(S'no_cv'
I1
tp19
a(S'no_vo'
I6
tp20
a(S'no_np'
I4
tp21
a(S'no_ll'
I1
tp22
a(S'ch_no'
I1
tp23
a(S'ch_tr'
I1
tp24
a(S'ch_p2'
I1
tp25
a(S'ch_p1'
I1
tp26
a(S'fc_mo'
I1
tp27
a(S'ch_no'
I0
tp28
a(S'ch_tr'
I0
tp29
a(S'ch_p2'
I0
tp30
a(S'ch_p1'
I1
tp31
a(S'w'
I5
tp32
a(S'p1_du'
I2
tp33
a(S'p1_vo'
I0
tp34
a(S'p1_tl'
I29
tp35
a(S'w'
I1
tp36
a(S'p1_ll'
I1
tp37
a(S'p1_th'
I1
tp38
a(S'w'
I13
tp39
a(S'ch_no'
I0
tp40
a(S'ch_tr'
I0
tp41
a(S'ch_p2'
I1
tp42
a(S'ch_p1'
I1
tp43
a(S'w'
I4
tp44
a(S'p2_du'
I1
tp45
a(S'p2_vo'
I0
tp46
a(S'p2_tl'
I58
tp47
a(S'w'
I1
tp48
a(S'p2_ll'
I1
tp49
a(S'p2_th'
I2
tp50
a(S'w'
I455
tp51
a(S'p1_vo'
I5
tp52
a(S'w'
I14
tp53
a(S'p2_vo'
I5
tp54
a(S'w'
I721
tp55
a(S'p1_vo'
I10
tp56
a(S'w'
I13
tp57
a(S'p2_vo'
I10
tp58
a(S'w'
I721
tp59
a(S'p1_vo'
I15
tp60
a(S'w'
I14
tp61
a(S'p2_vo'
I15
tp62
a(S'w'
I5129
tp63
a(S'p1_vo'
I0
tp64
a(S'w'
I1
tp65
a(S'p1_tl'
I13
tp66
a(S'p1_ll'
I1
tp67
a(S'w'
I725
tp68
a(S'p1_vo'
I5
tp69
a(S'w'
I734
tp70
a(S'p1_vo'
I10
tp71
a(S'w'
I734
tp72
a(S'p1_vo'
I15
tp73
a(S'w'
I5145
tp74
a(S'p1_vo'
I0
tp75
a(S'p1_tl'
I213
tp76
a(S'w'
I1
tp77
a(S'p1_ll'
I1
tp78
a(S'p1_th'
I0
tp79
a(S'w'
I21
tp80
a(S'p2_vo'
I0
tp81
a(S'p2_tl'
I171
tp82
a(S'w'
I1
tp83
a(S'p2_ll'
I1
tp84
a(S'p2_th'
I1
tp85
a(S'w'
I702
tp86
a(S'p1_vo'
I5
tp87
a(S'w'
I14
tp88
a(S'p2_vo'
I5
tp89
a(S'w'
I720
tp90
a(S'p1_vo'
I10
tp91
a(S'w'
I14
tp92
a(S'p2_vo'
I10
tp93
a(S'w'
I720
tp94
a(S'p1_vo'
I15
tp95
a(S'w'
I14
tp96
a(S'p2_vo'
I15
tp97
a(S'w'
I5130
tp98
a(S'p1_vo'
I0
tp99
a(S'w'
I1
tp100
a(S'p1_tl'
I240
tp101
a(S'p1_ll'
I1
tp102
a(S'w'
I725
tp103
a(S'p1_vo'
I5
tp104
a(S'w'
I734
tp105
a(S'p1_vo'
I10
tp106
a(S'w'
I734
tp107
a(S'p1_vo'
I15
tp108
a(S'w'
I5144
tp109
a(S'p1_vo'
I0
tp110
a(S'w'
I1
tp111
a(S'p1_tl'
I29
tp112
a(S'p1_ll'
I1
tp113
a(S'p1_th'
I1
tp114
a(S'w'
I21
tp115
a(S'p2_vo'
I0
tp116
a(S'p2_tl'
I58
tp117
a(S'w'
I1
tp118
a(S'p2_ll'
I1
tp119
a(S'p2_th'
I2
tp120
a(S'w'
I703
tp121
a(S'p1_vo'
I5
tp122
a(S'w'
I14
tp123
a(S'p2_vo'
I5
tp124
a(S'w'
I720
tp125
a(S'p1_vo'
I10
tp126
a(S'w'
I14
tp127
a(S'p2_vo'
I10
tp128
a(S'w'
I721
tp129
a(S'p1_vo'
I15
tp130
a(S'w'
I14
tp131
a(S'p2_vo'
I15
tp132
a(S'w'
I5129
tp133
a(S'p1_vo'
I0
tp134
a(S'w'
I1
tp135
a(S'p1_tl'
I64
tp136
a(S'p1_ll'
I1
tp137
a(S'w'
I725
tp138
a(S'p1_vo'
I5
tp139
a(S'w'
I734
tp140
a(S'p1_vo'
I10
tp141
a(S'w'
I735
tp142
a(S'p1_vo'
I15
tp143
a(S'w'
I5146
tp144
a(S'p1_vo'
I0
tp145
a(S'p1_tl'
I29
tp146
a(S'w'
I1
tp147
a(S'p1_ll'
I1
tp148
a(S'w'
I21
tp149
a(S'p2_vo'
I0
tp150
a(S'p2_tl'
I171
tp151
a(S'w'
I1
tp152
a(S'p2_ll'
I1
tp153
a(S'p2_th'
I1
tp154
a(S'w'
I700
tp155
a(S'p1_vo'
I5
tp156
a(S'w'
I14
tp157
a(S'p2_vo'
I5
tp158
a(S'w'
I720
tp159
a(S'p1_vo'
I10
tp160
a(S'w'
I14
tp161
a(S'p2_vo'
I10
tp162
a(S'w'
I720
tp163
a(S'p1_vo'
I15
tp164
a(S'w'
I14
tp165
a(S'p2_vo'
I15
tp166
a(S'w'
I5847
tp167
a(S'w'
I734
tp168
a(S'p1_tl'
I30
tp169
a(S'w'
I734
tp170
a(S'p1_tl'
I31
tp171
a(S'w'
I733
tp172
a(S'p1_tl'
I30
tp173
a(S'w'
I734
tp174
a(S'p1_tl'
I29
tp175
a(S'w'
I734
tp176
a(S'p1_tl'
I28
tp177
a(S'w'
I734
tp178
a(S'p1_tl'
I27
tp179
a(S'w'
I734
tp180
a(S'p1_tl'
I28
tp181
a(S'w'
I734
tp182
a(S'p1_tl'
I29
tp183
a(S'w'
I733
tp184
a(S'p1_tl'
I30
tp185
a(S'w'
I734
tp186
a(S'p1_tl'
I31
tp187
a(S'w'
I734
tp188
a(S'p1_tl'
I30
tp189
a(S'w'
I734
tp190
a(S'p1_tl'
I29
tp191
a(S'w'
I733
tp192
a(S'p1_tl'
I28
tp193
a(S'w'
I734
tp194
a(S'p1_tl'
I27
tp195
a(S'w'
I734
tp196
a(S'p1_tl'
I28
tp197
a(S'w'
I734
tp198
a(S'p1_tl'
I29
tp199
a(S'w'
I734
tp200
a(S'p1_tl'
I30
tp201
a(S'w'
I734
tp202
a(S'p1_tl'
I31
tp203
a(S'w'
I733
tp204
a(S'p1_tl'
I30
tp205
a(S'w'
I734
tp206
a(S'p1_tl'
I29
tp207
a(S'w'
I734
tp208
a(S'p1_tl'
I28
tp209
a(S'w'
I734
tp210
a(S'p1_tl'
I27
tp211
a(S'w'
I733
tp212
a(S'p1_tl'
I28
tp213
a(S'w'
I734
tp214
a(S'p1_tl'
I29
tp215
a(S'w'
I734
tp216
a(S'p1_tl'
I30
tp217
a(S'w'
I734
tp218
a(S'p1_tl'
I31
tp219
a(S'w'
I734
tp220
a(S'p1_tl'
I30
tp221
a(S'w'
I734
tp222
a(S'p1_tl'
I29
tp223
a(S'w'
I733
tp224
a(S'p1_tl'
I28
tp225
a(S'w'
I11
tp226
a(S'ch_no'
I0
tp227
a(S'ch_tr'
I0
tp228
a(S'ch_p2'
I1
tp229
a(S'ch_p1'
I0
tp230
a(S'w'
I14
tp231
a(S'ch_no'
I0
tp232
a(S'ch_tr'
I0
tp233
a(S'ch_p2'
I0
tp234
a(S'ch_p1'
I0
tp235
a(S'w'
I717
tp236
a(S'p1_du'
I0
tp237
a(S'p1_lh'
I0
tp238
a(S'p1_cv'
I0
tp239
a(S'p1_vo'
I0
tp240
a(S'w'
I1
tp241
a.