(lp1
(S'clock'
p2
I1789772
tp3
a(S'w'
I52
tp4
a(S'no_ll'
I0
tp5
a(S'w'
I11
tp6
a(S'p1_du'
I1
tp7
a(S'p1_lh'
I1
tp8
a(S'p1_cv'
I1
tp9
a(S'p1_vo'
I6
tp10
a(S'p1_sp'
I7
tp11
a(S'p1_sn'
I1
tp12
a(S'p1_ss'
I7
tp13
a(S'p1_tl'
I142
tp14
a(S'w'
I1
tp15
a(S'p1_ll'
I0
tp16
a(S'w'
I8
tp17
a(S'p2_du'
I2
tp18
a(S'p2_lh'
I1
tp19
a(S'p2_cv'
I1
tp20
a(S'p2_vo'
I3
tp21
a(S'p2_sp'
I7
tp22
a(S'p2_sn'
I1
tp23
a(S'p2_ss'
I7
tp24
a(S'p2_tl'
I213
tp25
a(S'w'
I1
tp26
a(S'p2_ll'
I0
tp27
a(S'w'
I8
tp28
a(S'tr_lh'
I1
tp29
a(S'tr_lr'
I127
tp30
a(S'tr_tl'
I169
tp31
a(S'w'
I1
tp32
a(S'tr_ll'
I0
tp33
a(S'w'
I6
tp34
a(S'no_np'
I11
tp35
a(S'no_lh'
I1
tp36
a(S'no_cv'
I1
tp37
a(S'no_vo'
I8
tp38
a(S'w'
I663
tp39
a(S'p2_vo'
I6
tp40
a(S'w'
I14
tp41
a(S'w'
I732
tp42
a(S'w'
I734
tp43
a(S'w'
I734
tp44
a(S'no_vo'
I0
tp45
a(S'w'
I718
tp46
a(S'p1_vo'
I0
tp47
a(S'w'
I6
tp48
a(S'p2_vo'
I0
tp49
a(S'w'
I7
tp50
a(S'tr_lh'
I0
tp51
a(S'tr_lr'
I0
tp52
a(S'w'
I5
tp53
a(S'w'
I728
tp54
a(S'w'
I734
tp55
a(S'w'
I734
tp56
a(S'w'
I734
tp57
a(S'w'
I736
tp58
a(S'w'
I731
tp59
a(S'w'
I734
tp60
a(S'w'
I734
tp61
a(S'w'
I734
tp62
a(S'w'
I736
tp63
a(S'w'
I731
tp64
a(S'w'
I734
tp65
a(S'w'
I734
tp66
a(S'w'
I734
tp67
a(S'w'
I736
tp68
a(S'p1_vo'
I6
tp69
a(S'w'
I1
tp70
a(S'w'
I1
tp71
a(S'p1_ll'
I0
tp72
a(S'w'
I7
tp73
a(S'p2_vo'
I3
tp74
a(S'w'
I1
tp75
a(S'w'
I1
tp76
a(S'p2_ll'
I0
tp77
a(S'w'
I11
tp78
a(S'w'
I700
tp79
a(S'p2_vo'
I6
tp80
a(S'w'
I12
tp81
a(S'w'
I732
tp82
a(S'w'
I734
tp83
a(S'w'
I734
tp84
a(S'w'
I736
tp85
a(S'w'
I731
tp86
a(S'w'
I734
tp87
a(S'w'
I734
tp88
a(S'w'
I733
tp89
a(S'w'
I737
tp90
a(S'w'
I731
tp91
a(S'w'
I734
tp92
a(S'w'
I716
tp93
a(S'p1_vo'
I0
tp94
a(S'w'
I6
tp95
a(S'p2_vo'
I0
tp96
a(S'w'
I11
tp97
a(S'w'
I733
tp98
a(S'w'
I737
tp99
a(S'p1_vo'
I6
tp100
a(S'w'
I1
tp101
a(S'w'
I1
tp102
a(S'p1_ll'
I0
tp103
a(S'w'
I7
tp104
a(S'p2_vo'
I3
tp105
a(S'w'
I1
tp106
a(S'w'
I1
tp107
a(S'p2_ll'
I0
tp108
a(S'w'
I11
tp109
a(S'w'
I700
tp110
a(S'p2_vo'
I6
tp111
a(S'w'
I12
tp112
a(S'w'
I732
tp113
a(S'w'
I716
tp114
a(S'p1_vo'
I0
tp115
a(S'w'
I6
tp116
a(S'p2_vo'
I0
tp117
a(S'w'
I11
tp118
a(S'w'
I733
tp119
a(S'w'
I735
tp120
a(S'no_ll'
I0
tp121
a(S'w'
I11
tp122
a(S'p1_vo'
I6
tp123
a(S'w'
I1
tp124
a(S'p1_ll'
I0
tp125
a(S'w'
I8
tp126
a(S'p2_vo'
I3
tp127
a(S'w'
I1
tp128
a(S'p2_ll'
I0
tp129
a(S'w'
I7
tp130
a(S'tr_lh'
I1
tp131
a(S'tr_lr'
I127
tp132
a(S'w'
I1
tp133
a(S'tr_ll'
I0
tp134
a(S'w'
I6
tp135
a(S'no_vo'
I8
tp136
a(S'w'
I689
tp137
a(S'p2_vo'
I6
tp138
a(S'w'
I14
tp139
a(S'w'
I732
tp140
a(S'w'
I734
tp141
a(S'w'
I733
tp142
a(S'no_vo'
I0
tp143
a(S'w'
I719
tp144
a(S'p1_vo'
I0
tp145
a(S'w'
I6
tp146
a(S'p2_vo'
I0
tp147
a(S'w'
I7
tp148
a(S'tr_lh'
I0
tp149
a(S'tr_lr'
I0
tp150
a(S'w'
I5
tp151
a(S'w'
I728
tp152
a(S'w'
I734
tp153
a(S'w'
I734
tp154
a(S'w'
I733
tp155
a(S'w'
I737
tp156
a(S'w'
I731
tp157
a(S'w'
I734
tp158
a(S'w'
I733
tp159
a(S'w'
I734
tp160
a(S'w'
I737
tp161
a(S'w'
I731
tp162
a(S'w'
I734
tp163
a(S'w'
I733
tp164
a(S'w'
I734
tp165
a(S'w'
I737
tp166
a(S'w'
I731
tp167
a(S'w'
I734
tp168
a(S'w'
I733
tp169
a(S'w'
I734
tp170
a(S'w'
I737
tp171
a(S'w'
I731
tp172
a(S'w'
I734
tp173
a(S'w'
I733
tp174
a(S'w'
I734
tp175
a(S'w'
I737
tp176
a(S'w'
I731
tp177
a(S'w'
I734
tp178
a(S'w'
I733
tp179
a(S'w'
I734
tp180
a(S'w'
I737
tp181
a(S'w'
I731
tp182
a(S'w'
I733
tp183
a(S'w'
I734
tp184
a(S'w'
I734
tp185
a(S'w'
I732
tp186
a(S'no_ll'
I0
tp187
a(S'w'
I11
tp188
a(S'p1_vo'
I6
tp189
a(S'p1_tl'
I106
tp190
a(S'w'
I1
tp191
a(S'p1_ll'
I0
tp192
a(S'w'
I8
tp193
a(S'p2_vo'
I3
tp194
a(S'p2_tl'
I169
tp195
a(S'w'
I1
tp196
a(S'p2_ll'
I0
tp197
a(S'w'
I7
tp198
a(S'tr_lh'
I1
tp199
a(S'tr_lr'
I127
tp200
a(S'w'
I1
tp201
a(S'tr_ll'
I0
tp202
a(S'w'
I6
tp203
a(S'no_vo'
I8
tp204
a(S'w'
I692
tp205
a(S'p2_vo'
I6
tp206
a(S'w'
I14
tp207
a(S'w'
I731
tp208
a(S'w'
I734
tp209
a(S'w'
I734
tp210
a(S'no_vo'
I0
tp211
a(S'w'
I719
tp212
a(S'p1_vo'
I0
tp213
a(S'w'
I6
tp214
a(S'p2_vo'
I0
tp215
a(S'w'
I7
tp216
a(S'tr_lh'
I0
tp217
a(S'tr_lr'
I0
tp218
a(S'w'
I5
tp219
a(S'w'
I728
tp220
a(S'w'
I733
tp221
a(S'w'
I734
tp222
a(S'w'
I734
tp223
a(S'w'
I737
tp224
a(S'w'
I731
tp225
a(S'w'
I733
tp226
a(S'w'
I734
tp227
a(S'w'
I734
tp228
a(S'w'
I737
tp229
a(S'w'
I731
tp230
a(S'w'
I733
tp231
a(S'w'
I734
tp232
a(S'w'
I734
tp233
a(S'w'
I736
tp234
a(S'no_ll'
I0
tp235
a(S'w'
I10
tp236
a(S'p1_vo'
I6
tp237
a(S'w'
I1
tp238
a(S'w'
I1
tp239
a(S'p1_ll'
I0
tp240
a(S'w'
I7
tp241
a(S'p2_vo'
I3
tp242
a(S'w'
I1
tp243
a(S'w'
I1
tp244
a(S'p2_ll'
I0
tp245
a(S'w'
I7
tp246
a(S'tr_lh'
I1
tp247
a(S'tr_lr'
I127
tp248
a(S'tr_ll'
I0
tp249
a(S'w'
I7
tp250
a(S'no_vo'
I8
tp251
a(S'w'
I687
tp252
a(S'p2_vo'
I6
tp253
a(S'w'
I14
tp254
a(S'w'
I732
tp255
a(S'w'
I734
tp256
a(S'w'
I734
tp257
a(S'no_vo'
I0
tp258
a(S'w'
I732
tp259
a(S'tr_lh'
I0
tp260
a(S'tr_lr'
I0
tp261
a(S'w'
I6
tp262
a(S'w'
I727
tp263
a(S'w'
I734
tp264
a(S'w'
I734
tp265
a(S'w'
I734
tp266
a(S'w'
I737
tp267
a(S'w'
I730
tp268
a(S'w'
I734
tp269
a(S'w'
I716
tp270
a(S'p1_vo'
I0
tp271
a(S'w'
I6
tp272
a(S'p2_vo'
I0
tp273
a(S'w'
I11
tp274
a(S'w'
I734
tp275
a(S'w'
I738
tp276
a(S'p1_vo'
I6
tp277
a(S'w'
I1
tp278
a(S'p1_ll'
I0
tp279
a(S'w'
I8
tp280
a(S'p2_vo'
I3
tp281
a(S'w'
I1
tp282
a(S'p2_ll'
I0
tp283
a(S'w'
I11
tp284
a(S'w'
I699
tp285
a(S'p2_vo'
I6
tp286
a(S'w'
I12
tp287
a(S'w'
I732
tp288
a(S'w'
I716
tp289
a(S'p1_vo'
I0
tp290
a(S'w'
I6
tp291
a(S'p2_vo'
I0
tp292
a(S'w'
I11
tp293
a(S'w'
I734
tp294
a(S'w'
I736
tp295
a(S'no_ll'
I0
tp296
a(S'w'
I10
tp297
a(S'p1_vo'
I6
tp298
a(S'w'
I1
tp299
a(S'w'
I1
tp300
a(S'p1_ll'
I0
tp301
a(S'w'
I7
tp302
a(S'p2_vo'
I3
tp303
a(S'w'
I1
tp304
a(S'w'
I1
tp305
a(S'p2_ll'
I0
tp306
a(S'w'
I7
tp307
a(S'tr_lh'
I1
tp308
a(S'tr_lr'
I127
tp309
a(S'tr_ll'
I0
tp310
a(S'w'
I7
tp311
a(S'no_vo'
I8
tp312
a(S'w'
I687
tp313
a(S'p2_vo'
I6
tp314
a(S'w'
I14
tp315
a(S'w'
I732
tp316
a(S'w'
I734
tp317
a(S'w'
I734
tp318
a(S'no_vo'
I0
tp319
a(S'w'
I718
tp320
a(S'p1_vo'
I0
tp321
a(S'w'
I6
tp322
a(S'p2_vo'
I0
tp323
a(S'w'
I7
tp324
a(S'tr_lh'
I0
tp325
a(S'tr_lr'
I0
tp326
a(S'w'
I5
tp327
a(S'w'
I728
tp328
a(S'w'
I734
tp329
a(S'w'
I734
tp330
a(S'w'
I734
tp331
a(S'w'
I736
tp332
a(S'w'
I731
tp333
a(S'w'
I734
tp334
a(S'w'
I734
tp335
a(S'w'
I734
tp336
a(S'w'
I736
tp337
a(S'w'
I731
tp338
a(S'w'
I734
tp339
a(S'w'
I734
tp340
a(S'w'
I734
tp341
a(S'w'
I736
tp342
a(S'w'
I731
tp343
a(S'w'
I734
tp344
a(S'w'
I734
tp345
a(S'w'
I734
tp346
a(S'w'
I736
tp347
a(S'w'
I731
tp348
a(S'w'
I734
tp349
a(S'w'
I734
tp350
a(S'w'
I733
tp351
a(S'w'
I737
tp352
a(S'w'
I731
tp353
a(S'w'
I734
tp354
a(S'w'
I734
tp355
a(S'w'
I733
tp356
a(S'w'
I737
tp357
a(S'w'
I731
tp358
a(S'w'
I734
tp359
a(S'w'
I734
tp360
a(S'w'
I733
tp361
a(S'w'
I755
tp362
a(S'no_ll'
I0
tp363
a(S'w'
I11
tp364
a(S'p1_vo'
I6
tp365
a(S'p1_tl'
I142
tp366
a(S'w'
I1
tp367
a(S'p1_ll'
I0
tp368
a(S'w'
I8
tp369
a(S'p2_vo'
I3
tp370
a(S'p2_tl'
I213
tp371
a(S'w'
I1
tp372
a(S'p2_ll'
I0
tp373
a(S'w'
I8
tp374
a(S'tr_lh'
I1
tp375
a(S'tr_lr'
I127
tp376
a(S'w'
I1
tp377
a(S'tr_ll'
I0
tp378
a(S'w'
I6
tp379
a(S'no_vo'
I8
tp380
a(S'w'
I668
tp381
a(S'p2_vo'
I6
tp382
a(S'w'
I14
tp383
a(S'w'
I732
tp384
a(S'w'
I734
tp385
a(S'w'
I733
tp386
a(S'no_vo'
I0
tp387
a(S'w'
I719
tp388
a(S'p1_vo'
I0
tp389
a(S'w'
I6
tp390
a(S'p2_vo'
I0
tp391
a(S'w'
I7
tp392
a(S'tr_lh'
I0
tp393
a(S'tr_lr'
I0
tp394
a(S'w'
I5
tp395
a(S'w'
I728
tp396
a(S'w'
I734
tp397
a(S'w'
I734
tp398
a(S'w'
I733
tp399
a(S'w'
I737
tp400
a(S'w'
I731
tp401
a(S'w'
I734
tp402
a(S'w'
I733
tp403
a(S'w'
I734
tp404
a(S'w'
I737
tp405
a(S'w'
I731
tp406
a(S'w'
I734
tp407
a(S'w'
I733
tp408
a(S'w'
I734
tp409
a(S'w'
I737
tp410
a(S'p1_vo'
I6
tp411
a(S'w'
I1
tp412
a(S'w'
I1
tp413
a(S'p1_ll'
I0
tp414
a(S'w'
I7
tp415
a(S'p2_vo'
I3
tp416
a(S'w'
I1
tp417
a(S'w'
I1
tp418
a(S'p2_ll'
I0
tp419
a(S'w'
I11
tp420
a(S'w'
I700
tp421
a(S'p2_vo'
I6
tp422
a(S'w'
I12
tp423
a(S'w'
I732
tp424
a(S'w'
I733
tp425
a(S'w'
I734
tp426
a(S'w'
I737
tp427
a(S'w'
I731
tp428
a(S'w'
I734
tp429
a(S'w'
I733
tp430
a(S'w'
I734
tp431
a(S'w'
I737
tp432
a(S'w'
I731
tp433
a(S'w'
I734
tp434
a(S'w'
I715
tp435
a(S'p1_vo'
I0
tp436
a(S'w'
I6
tp437
a(S'p2_vo'
I0
tp438
a(S'w'
I11
tp439
a(S'w'
I734
tp440
a(S'w'
I737
tp441
a(S'p1_vo'
I6
tp442
a(S'w'
I1
tp443
a(S'w'
I1
tp444
a(S'p1_ll'
I0
tp445
a(S'w'
I7
tp446
a(S'p2_vo'
I3
tp447
a(S'w'
I1
tp448
a(S'w'
I1
tp449
a(S'p2_ll'
I0
tp450
a(S'w'
I11
tp451
a(S'w'
I700
tp452
a(S'p2_vo'
I6
tp453
a(S'w'
I12
tp454
a(S'w'
I731
tp455
a(S'w'
I716
tp456
a(S'p1_vo'
I0
tp457
a(S'w'
I6
tp458
a(S'p2_vo'
I0
tp459
a(S'w'
I11
tp460
a(S'w'
I734
tp461
a(S'w'
I735
tp462
a(S'no_ll'
I0
tp463
a(S'w'
I11
tp464
a(S'p1_vo'
I6
tp465
a(S'w'
I1
tp466
a(S'p1_ll'
I0
tp467
a(S'w'
I8
tp468
a(S'p2_vo'
I3
tp469
a(S'w'
I1
tp470
a(S'p2_ll'
I0
tp471
a(S'w'
I7
tp472
a(S'tr_lh'
I1
tp473
a(S'tr_lr'
I127
tp474
a(S'w'
I1
tp475
a(S'tr_ll'
I0
tp476
a(S'w'
I6
tp477
a(S'no_vo'
I8
tp478
a(S'w'
I689
tp479
a(S'p2_vo'
I6
tp480
a(S'w'
I14
tp481
a(S'w'
I731
tp482
a(S'w'
I734
tp483
a(S'w'
I734
tp484
a(S'no_vo'
I0
tp485
a(S'w'
I719
tp486
a(S'p1_vo'
I0
tp487
a(S'w'
I6
tp488
a(S'p2_vo'
I0
tp489
a(S'w'
I7
tp490
a(S'tr_lh'
I0
tp491
a(S'tr_lr'
I0
tp492
a(S'w'
I5
tp493
a(S'w'
I728
tp494
a(S'w'
I733
tp495
a(S'w'
I734
tp496
a(S'w'
I734
tp497
a(S'w'
I737
tp498
a(S'w'
I731
tp499
a(S'w'
I733
tp500
a(S'w'
I734
tp501
a(S'w'
I734
tp502
a(S'w'
I737
tp503
a(S'w'
I731
tp504
a(S'w'
I733
tp505
a(S'w'
I734
tp506
a(S'w'
I734
tp507
a(S'w'
I737
tp508
a(S'w'
I730
tp509
a(S'w'
I734
tp510
a(S'w'
I734
tp511
a(S'w'
I734
tp512
a(S'w'
I737
tp513
a(S'w'
I730
tp514
a(S'w'
I734
tp515
a(S'w'
I734
tp516
a(S'w'
I734
tp517
a(S'w'
I737
tp518
a(S'w'
I730
tp519
a(S'w'
I734
tp520
a(S'w'
I734
tp521
a(S'w'
I734
tp522
a(S'w'
I737
tp523
a(S'w'
I730
tp524
a(S'w'
I734
tp525
a(S'w'
I734
tp526
a(S'w'
I734
tp527
a(S'w'
I732
tp528
a(S'no_ll'
I0
tp529
a(S'w'
I11
tp530
a(S'p1_vo'
I6
tp531
a(S'p1_tl'
I106
tp532
a(S'w'
I1
tp533
a(S'p1_ll'
I0
tp534
a(S'w'
I8
tp535
a(S'p2_vo'
I3
tp536
a(S'p2_tl'
I169
tp537
a(S'w'
I1
tp538
a(S'p2_ll'
I0
tp539
a(S'w'
I7
tp540
a(S'tr_lh'
I1
tp541
a(S'tr_lr'
I127
tp542
a(S'w'
I1
tp543
a(S'tr_ll'
I0
tp544
a(S'w'
I6
tp545
a(S'no_vo'
I8
tp546
a(S'w'
I691
tp547
a(S'p2_vo'
I6
tp548
a(S'w'
I14
tp549
a(S'w'
I732
tp550
a(S'w'
I734
tp551
a(S'w'
I734
tp552
a(S'no_vo'
I0
tp553
a(S'w'
I718
tp554
a(S'p1_vo'
I0
tp555
a(S'w'
I6
tp556
a(S'p2_vo'
I0
tp557
a(S'w'
I7
tp558
a(S'tr_lh'
I0
tp559
a(S'tr_lr'
I0
tp560
a(S'w'
I5
tp561
a(S'w'
I728
tp562
a(S'w'
I734
tp563
a(S'w'
I734
tp564
a(S'w'
I734
tp565
a(S'w'
I736
tp566
a(S'w'
I731
tp567
a(S'w'
I734
tp568
a(S'w'
I734
tp569
a(S'w'
I734
tp570
a(S'w'
I736
tp571
a(S'w'
I731
tp572
a(S'w'
I734
tp573
a(S'w'
I734
tp574
a(S'w'
I734
tp575
a(S'w'
I735
tp576
a(S'no_ll'
I0
tp577
a(S'w'
I10
tp578
a(S'p1_vo'
I6
tp579
a(S'w'
I1
tp580
a(S'w'
I1
tp581
a(S'p1_ll'
I0
tp582
a(S'w'
I7
tp583
a(S'p2_vo'
I3
tp584
a(S'w'
I1
tp585
a(S'w'
I1
tp586
a(S'p2_ll'
I0
tp587
a(S'w'
I7
tp588
a(S'tr_lh'
I1
tp589
a(S'tr_lr'
I127
tp590
a(S'tr_ll'
I0
tp591
a(S'w'
I7
tp592
a(S'no_vo'
I8
tp593
a(S'w'
I688
tp594
a(S'p2_vo'
I6
tp595
a(S'w'
I14
tp596
a(S'w'
I732
tp597
a(S'w'
I734
tp598
a(S'w'
I734
tp599
a(S'no_vo'
I0
tp600
a(S'w'
I731
tp601
a(S'tr_lh'
I0
tp602
a(S'tr_lr'
I0
tp603
a(S'w'
I6
tp604
a(S'w'
I728
tp605
a(S'w'
I734
tp606
a(S'w'
I734
tp607
a(S'w'
I733
tp608
a(S'w'
I737
tp609
a(S'w'
I731
tp610
a(S'w'
I734
tp611
a(S'w'
I716
tp612
a(S'p1_vo'
I0
tp613
a(S'w'
I6
tp614
a(S'p2_vo'
I0
tp615
a(S'w'
I11
tp616
a(S'w'
I733
tp617
a(S'w'
I738
tp618
a(S'p1_vo'
I6
tp619
a(S'w'
I1
tp620
a(S'p1_ll'
I0
tp621
a(S'w'
I8
tp622
a(S'p2_vo'
I3
tp623
a(S'w'
I1
tp624
a(S'p2_ll'
I0
tp625
a(S'w'
I11
tp626
a(S'w'
I700
tp627
a(S'p2_vo'
I6
tp628
a(S'w'
I12
tp629
a(S'w'
I732
tp630
a(S'w'
I716
tp631
a(S'p1_vo'
I0
tp632
a(S'w'
I6
tp633
a(S'p2_vo'
I0
tp634
a(S'w'
I11
tp635
a(S'w'
I733
tp636
a(S'w'
I736
tp637
a(S'no_ll'
I0
tp638
a(S'w'
I10
tp639
a(S'p1_vo'
I6
tp640
a(S'w'
I1
tp641
a(S'w'
I1
tp642
a(S'p1_ll'
I0
tp643
a(S'w'
I7
tp644
a(S'p2_vo'
I3
tp645
a(S'w'
I1
tp646
a(S'w'
I1
tp647
a(S'p2_ll'
I0
tp648
a(S'w'
I7
tp649
a(S'tr_lh'
I1
tp650
a(S'tr_lr'
I127
tp651
a(S'tr_ll'
I0
tp652
a(S'w'
I7
tp653
a(S'no_vo'
I8
tp654
a(S'w'
I688
tp655
a(S'p2_vo'
I6
tp656
a(S'w'
I14
tp657
a(S'w'
I732
tp658
a(S'w'
I734
tp659
a(S'w'
I733
tp660
a(S'no_vo'
I0
tp661
a(S'w'
I719
tp662
a(S'p1_vo'
I0
tp663
a(S'w'
I6
tp664
a(S'p2_vo'
I0
tp665
a(S'w'
I7
tp666
a(S'tr_lh'
I0
tp667
a(S'tr_lr'
I0
tp668
a(S'w'
I5
tp669
a(S'w'
I728
tp670
a(S'w'
I734
tp671
a(S'w'
I734
tp672
a(S'w'
I733
tp673
a(S'w'
I737
tp674
a(S'w'
I731
tp675
a(S'w'
I734
tp676
a(S'w'
I733
tp677
a(S'w'
I734
tp678
a(S'w'
I737
tp679
a(S'w'
I731
tp680
a(S'w'
I734
tp681
a(S'w'
I733
tp682
a(S'w'
I734
tp683
a(S'w'
I737
tp684
a(S'w'
I731
tp685
a(S'w'
I734
tp686
a(S'w'
I733
tp687
a(S'w'
I734
tp688
a(S'w'
I737
tp689
a(S'w'
I731
tp690
a(S'w'
I734
tp691
a(S'w'
I733
tp692
a(S'w'
I734
tp693
a(S'w'
I737
tp694
a(S'w'
I731
tp695
a(S'w'
I734
tp696
a(S'w'
I733
tp697
a(S'w'
I734
tp698
a(S'w'
I737
tp699
a(S'w'
I731
tp700
a(S'w'
I733
tp701
a(S'w'
I734
tp702
a(S'w'
I734
tp703
a(S'w'
I719
tp704
a(S'p1_du'
I0
tp705
a(S'w'
I5
tp706
a(S'p2_du'
I0
tp707
a(S'w'
I8
tp708
a(S'w'
I16042
tp709
a.