(lp1
(S'clock'
p2
I1789772
tp3
a(S'p1_cv'
I1
tp4
a(S'p2_cv'
I1
tp5
a(S'tr_lr'
I16
tp6
a(S'no_cv'
I1
tp7
a(S'ch_no'
I1
tp8
a(S'ch_tr'
I1
tp9
a(S'ch_p2'
I1
tp10
a(S'ch_p1'
I1
tp11
a(S'w'
I7
tp12
a(S'tr_lr'
I0
tp13
a(S'w'
I4
tp14
a(S'no_cv'
I0
tp15
a(S'no_vo'
I1
tp16
a(S'w'
I1
tp17
a(S'no_ll'
I1
tp18
a(S'no_np'
I2
tp19
a(S'w'
I4
tp20
a(S'p2_cv'
I0
tp21
a(S'p2_vo'
I6
tp22
a(S'w'
I1
tp23
a(S'p2_se'
I1
tp24
a(S'p2_sn'
I1
tp25
a(S'p2_ll'
I1
tp26
a(S'p2_th'
I4
tp27
a(S'p2_tl'
I53
tp28
a(S'w'
I10264
tp29
a(S'tr_lr'
I32
tp30
a(S'w'
I1
tp31
a(S'tr_ll'
I1
tp32
a(S'tr_tl'
I179
tp33
a(S'w'
I4
tp34
a(S'no_ll'
I1
tp35
a(S'w'
I1
tp36
a(S'no_np'
I4
tp37
a(S'w'
I6
tp38
a(S'p1_du'
I1
tp39
a(S'p1_cv'
I0
tp40
a(S'p1_vo'
I15
tp41
a(S'p1_se'
I1
tp42
a(S'p1_sn'
I1
tp43
a(S'p1_ll'
I1
tp44
a(S'p1_tl'
I106
tp45
a(S'w'
I5127
tp46
a(S'p2_ll'
I1
tp47
a(S'p2_th'
I5
tp48
a(S'p2_tl'
I1
tp49
a(S'w'
I5134
tp50
a(S'tr_lr'
I0
tp51
a(S'w'
I4
tp52
a(S'no_ll'
I1
tp53
a(S'no_np'
I2
tp54
a(S'w'
I6
tp55
a(S'p1_du'
I0
tp56
a(S'p1_cv'
I1
tp57
a(S'p1_vo'
I0
tp58
a(S'w'
I10263
tp59
a(S'tr_lr'
I32
tp60
a(S'w'
I1
tp61
a(S'tr_ll'
I1
tp62
a(S'w'
I4
tp63
a(S'no_ll'
I1
tp64
a(S'w'
I1
tp65
a(S'no_np'
I4
tp66
a(S'w'
I4
tp67
a(S'p2_ll'
I1
tp68
a(S'p2_tl'
I158
tp69
a(S'w'
I5
tp70
a(S'p1_du'
I1
tp71
a(S'p1_cv'
I0
tp72
a(S'p1_vo'
I15
tp73
a(S'p1_ll'
I1
tp74
a(S'w'
I1
tp75
a(S'p1_tl'
I106
tp76
a(S'w'
I10257
tp77
a(S'tr_lr'
I0
tp78
a(S'w'
I4
tp79
a(S'no_ll'
I1
tp80
a(S'w'
I5
tp81
a(S'p2_ll'
I1
tp82
a(S'p2_th'
I3
tp83
a(S'p2_tl'
I192
tp84
a(S'w'
I4
tp85
a(S'p1_du'
I0
tp86
a(S'p1_cv'
I1
tp87
a(S'p1_vo'
I0
tp88
a(S'w'
I10260
tp89
a(S'tr_lr'
I32
tp90
a(S'w'
I1
tp91
a(S'tr_ll'
I1
tp92
a(S'tr_tl'
I160
tp93
a(S'w'
I4
tp94
a(S'no_ll'
I1
tp95
a(S'w'
I1
tp96
a(S'no_np'
I6
tp97
a(S'w'
I6
tp98
a(S'p1_du'
I1
tp99
a(S'p1_cv'
I0
tp100
a(S'p1_vo'
I15
tp101
a(S'p1_ll'
I1
tp102
a(S'p1_tl'
I95
tp103
a(S'w'
I5127
tp104
a(S'p2_ll'
I1
tp105
a(S'p2_tl'
I87
tp106
a(S'w'
I5134
tp107
a(S'tr_lr'
I0
tp108
a(S'w'
I4
tp109
a(S'no_ll'
I1
tp110
a(S'no_np'
I4
tp111
a(S'w'
I6
tp112
a(S'p1_du'
I0
tp113
a(S'p1_cv'
I1
tp114
a(S'p1_vo'
I0
tp115
a(S'w'
I10263
tp116
a(S'tr_lr'
I32
tp117
a(S'w'
I1
tp118
a(S'tr_ll'
I1
tp119
a(S'w'
I4
tp120
a(S'no_ll'
I1
tp121
a(S'w'
I1
tp122
a(S'no_np'
I6
tp123
a(S'w'
I4
tp124
a(S'p2_ll'
I1
tp125
a(S'p2_th'
I2
tp126
a(S'p2_tl'
I250
tp127
a(S'w'
I5
tp128
a(S'p1_du'
I1
tp129
a(S'p1_cv'
I0
tp130
a(S'p1_vo'
I15
tp131
a(S'p1_ll'
I1
tp132
a(S'w'
I1
tp133
a(S'p1_tl'
I95
tp134
a(S'w'
I10257
tp135
a(S'tr_ll'
I1
tp136
a(S'tr_tl'
I142
tp137
a(S'w'
I5
tp138
a(S'no_ll'
I1
tp139
a(S'no_np'
I4
tp140
a(S'w'
I5
tp141
a(S'p2_ll'
I1
tp142
a(S'p2_tl'
I207
tp143
a(S'w'
I5
tp144
a(S'p1_ll'
I1
tp145
a(S'p1_tl'
I89
tp146
a(S'w'
I5122
tp147
a(S'tr_lr'
I0
tp148
a(S'w'
I4
tp149
a(S'no_cv'
I1
tp150
a(S'no_vo'
I0
tp151
a(S'w'
I4
tp152
a(S'p2_cv'
I1
tp153
a(S'p2_vo'
I0
tp154
a(S'w'
I4
tp155
a(S'p1_du'
I0
tp156
a(S'p1_cv'
I1
tp157
a(S'p1_vo'
I0
tp158
a(S'w'
I5124
tp159
a(S'tr_lr'
I32
tp160
a(S'w'
I1
tp161
a(S'tr_ll'
I1
tp162
a(S'w'
I4
tp163
a(S'no_cv'
I0
tp164
a(S'no_vo'
I1
tp165
a(S'w'
I1
tp166
a(S'no_ll'
I1
tp167
a(S'no_np'
I6
tp168
a(S'w'
I5
tp169
a(S'p2_cv'
I0
tp170
a(S'p2_vo'
I6
tp171
a(S'p2_ll'
I1
tp172
a(S'p2_tl'
I207
tp173
a(S'w'
I5
tp174
a(S'p1_du'
I1
tp175
a(S'p1_cv'
I0
tp176
a(S'p1_vo'
I15
tp177
a(S'p1_ll'
I1
tp178
a(S'w'
I1
tp179
a(S'p1_tl'
I89
tp180
a(S'w'
I5120
tp181
a(S'tr_lr'
I0
tp182
a(S'w'
I4
tp183
a(S'no_cv'
I1
tp184
a(S'no_vo'
I0
tp185
a(S'w'
I4
tp186
a(S'p2_cv'
I1
tp187
a(S'p2_vo'
I0
tp188
a(S'w'
I4
tp189
a(S'p1_du'
I0
tp190
a(S'p1_cv'
I1
tp191
a(S'p1_vo'
I0
tp192
a(S'w'
I10261
tp193
a(S'tr_lr'
I32
tp194
a(S'w'
I1
tp195
a(S'tr_ll'
I1
tp196
a(S'w'
I4
tp197
a(S'no_cv'
I0
tp198
a(S'no_vo'
I1
tp199
a(S'w'
I1
tp200
a(S'no_ll'
I1
tp201
a(S'w'
I5
tp202
a(S'p2_cv'
I0
tp203
a(S'p2_vo'
I6
tp204
a(S'p2_ll'
I1
tp205
a(S'p2_tl'
I207
tp206
a(S'w'
I5
tp207
a(S'p1_du'
I1
tp208
a(S'p1_cv'
I0
tp209
a(S'p1_vo'
I15
tp210
a(S'p1_ll'
I1
tp211
a(S'w'
I1
tp212
a(S'p1_tl'
I89
tp213
a(S'w'
I10256
tp214
a(S'tr_lr'
I0
tp215
a(S'w'
I4
tp216
a(S'no_cv'
I1
tp217
a(S'no_vo'
I0
tp218
a(S'w'
I4
tp219
a(S'p2_cv'
I1
tp220
a(S'p2_vo'
I0
tp221
a(S'w'
I4
tp222
a(S'p1_du'
I0
tp223
a(S'p1_cv'
I1
tp224
a(S'p1_vo'
I0
tp225
a(S'w'
I5125
tp226
a(S'tr_lr'
I32
tp227
a(S'w'
I1
tp228
a(S'tr_ll'
I1
tp229
a(S'w'
I4
tp230
a(S'no_cv'
I0
tp231
a(S'no_vo'
I1
tp232
a(S'w'
I1
tp233
a(S'no_ll'
I1
tp234
a(S'w'
I5
tp235
a(S'p2_cv'
I0
tp236
a(S'p2_vo'
I6
tp237
a(S'p2_ll'
I1
tp238
a(S'p2_tl'
I207
tp239
a(S'w'
I5
tp240
a(S'p1_du'
I1
tp241
a(S'p1_cv'
I0
tp242
a(S'p1_vo'
I15
tp243
a(S'p1_ll'
I1
tp244
a(S'p1_tl'
I89
tp245
a(S'w'
I10257
tp246
a(S'tr_ll'
I1
tp247
a(S'tr_tl'
I160
tp248
a(S'w'
I6
tp249
a(S'no_vo'
I2
tp250
a(S'w'
I1
tp251
a(S'no_ll'
I1
tp252
a(S'no_np'
I8
tp253
a(S'w'
I4
tp254
a(S'p2_ll'
I1
tp255
a(S'p2_th'
I3
tp256
a(S'w'
I1
tp257
a(S'p2_tl'
I192
tp258
a(S'w'
I4
tp259
a(S'p1_ll'
I1
tp260
a(S'p1_tl'
I240
tp261
a(S'w'
I5120
tp262
a(S'tr_ll'
I1
tp263
a(S'w'
I5
tp264
a(S'no_ll'
I1
tp265
a(S'w'
I5
tp266
a(S'p2_ll'
I1
tp267
a(S'p2_tl'
I192
tp268
a(S'w'
I5
tp269
a(S'p1_ll'
I1
tp270
a(S'p1_tl'
I213
tp271
a(S'w'
I5122
tp272
a(S'tr_lr'
I0
tp273
a(S'w'
I4
tp274
a(S'no_cv'
I1
tp275
a(S'no_vo'
I0
tp276
a(S'w'
I6
tp277
a(S'p1_ll'
I1
tp278
a(S'p1_tl'
I179
tp279
a(S'w'
I5126
tp280
a(S'tr_lr'
I32
tp281
a(S'w'
I1
tp282
a(S'tr_ll'
I1
tp283
a(S'w'
I4
tp284
a(S'no_cv'
I0
tp285
a(S'no_vo'
I2
tp286
a(S'w'
I1
tp287
a(S'no_ll'
I1
tp288
a(S'w'
I5
tp289
a(S'p2_ll'
I1
tp290
a(S'p2_tl'
I192
tp291
a(S'w'
I4
tp292
a(S'p1_ll'
I1
tp293
a(S'w'
I1
tp294
a(S'p1_tl'
I240
tp295
a(S'w'
I5121
tp296
a(S'tr_ll'
I1
tp297
a(S'w'
I5
tp298
a(S'no_ll'
I1
tp299
a(S'w'
I5
tp300
a(S'p2_ll'
I1
tp301
a(S'p2_tl'
I192
tp302
a(S'w'
I5
tp303
a(S'p1_ll'
I1
tp304
a(S'p1_tl'
I213
tp305
a(S'w'
I5126
tp306
a(S'p1_ll'
I1
tp307
a(S'p1_tl'
I179
tp308
a(S'w'
I5131
tp309
a(S'tr_lr'
I0
tp310
a(S'w'
I6
tp311
a(S'no_vo'
I1
tp312
a(S'no_ll'
I1
tp313
a(S'no_np'
I6
tp314
a(S'w'
I7
tp315
a(S'p2_ll'
I1
tp316
a(S'p2_th'
I2
tp317
a(S'p2_tl'
I207
tp318
a(S'w'
I5
tp319
a(S'p1_ll'
I1
tp320
a(S'p1_tl'
I160
tp321
a(S'w'
I10257
tp322
a(S'no_ll'
I1
tp323
a(S'no_np'
I2
tp324
a(S'w'
I5136
tp325
a(S'no_ll'
I1
tp326
a(S'no_np'
I4
tp327
a(S'w'
I5
tp328
a(S'p2_ll'
I1
tp329
a(S'p2_th'
I3
tp330
a(S'p2_tl'
I87
tp331
a(S'w'
I5135
tp332
a(S'p1_ll'
I1
tp333
a(S'p1_tl'
I142
tp334
a(S'w'
I5134
tp335
a(S'no_ll'
I1
tp336
a(S'no_np'
I2
tp337
a(S'w'
I5
tp338
a(S'p1_du'
I0
tp339
a(S'p1_cv'
I1
tp340
a(S'p1_vo'
I0
tp341
a(S'w'
I5131
tp342
a(S'no_ll'
I1
tp343
a(S'no_np'
I4
tp344
a(S'w'
I5
tp345
a(S'p2_ll'
I1
tp346
a(S'p2_tl'
I192
tp347
a(S'w'
I10268
tp348
a(S'no_ll'
I1
tp349
a(S'no_np'
I6
tp350
a(S'w'
I5
tp351
a(S'p2_ll'
I1
tp352
a(S'p2_th'
I2
tp353
a(S'p2_tl'
I207
tp354
a(S'w'
I4
tp355
a(S'p1_du'
I1
tp356
a(S'p1_cv'
I0
tp357
a(S'p1_vo'
I15
tp358
a(S'w'
I1
tp359
a(S'p1_ll'
I1
tp360
a(S'p1_tl'
I179
tp361
a(S'w'
I10263
tp362
a(S'no_ll'
I1
tp363
a(S'no_np'
I2
tp364
a(S'w'
I5138
tp365
a(S'no_vo'
I2
tp366
a(S'no_ll'
I1
tp367
a(S'w'
I1
tp368
a(S'no_np'
I8
tp369
a(S'w'
I4
tp370
a(S'p2_ll'
I1
tp371
a(S'p2_th'
I3
tp372
a(S'p2_tl'
I87
tp373
a(S'w'
I5
tp374
a(S'p1_ll'
I1
tp375
a(S'p1_tl'
I160
tp376
a(S'w'
I5125
tp377
a(S'no_ll'
I1
tp378
a(S'w'
I10273
tp379
a(S'no_ll'
I1
tp380
a(S'w'
I5
tp381
a(S'p2_ll'
I1
tp382
a(S'p2_tl'
I192
tp383
a(S'w'
I4
tp384
a(S'p1_ll'
I1
tp385
a(S'w'
I1
tp386
a(S'p1_tl'
I179
tp387
a(S'w'
I10267
tp388
a(S'no_vo'
I1
tp389
a(S'no_ll'
I1
tp390
a(S'no_np'
I6
tp391
a(S'w'
I5
tp392
a(S'p2_ll'
I1
tp393
a(S'p2_tl'
I87
tp394
a(S'w'
I5
tp395
a(S'p1_ll'
I1
tp396
a(S'p1_tl'
I160
tp397
a(S'w'
I723
tp398
a(S'p1_ll'
I1
tp399
a(S'p1_tl'
I142
tp400
a(S'w'
I9537
tp401
a(S'no_ll'
I1
tp402
a(S'no_np'
I2
tp403
a(S'w'
I5136
tp404
a(S'no_ll'
I1
tp405
a(S'no_np'
I4
tp406
a(S'w'
I5
tp407
a(S'p2_ll'
I1
tp408
a(S'p2_tl'
I87
tp409
a(S'w'
I4
tp410
a(S'p1_ll'
I1
tp411
a(S'w'
I1
tp412
a(S'p1_tl'
I160
tp413
a(S'w'
I5129
tp414
a(S'p1_du'
I0
tp415
a(S'p1_cv'
I1
tp416
a(S'p1_vo'
I0
tp417
a(S'w'
I5134
tp418
a(S'no_ll'
I1
tp419
a(S'no_np'
I2
tp420
a(S'w'
I5137
tp421
a(S'no_ll'
I1
tp422
a(S'no_np'
I4
tp423
a(S'w'
I5
tp424
a(S'p2_ll'
I1
tp425
a(S'p2_th'
I4
tp426
a(S'p2_tl'
I117
tp427
a(S'w'
I4
tp428
a(S'p1_du'
I1
tp429
a(S'p1_cv'
I0
tp430
a(S'p1_vo'
I15
tp431
a(S'w'
I1
tp432
a(S'p1_ll'
I1
tp433
a(S'p1_tl'
I179
tp434
a(S'w'
I10263
tp435
a(S'no_ll'
I1
tp436
a(S'no_np'
I6
tp437
a(S'w'
I5
tp438
a(S'p2_ll'
I1
tp439
a(S'p2_th'
I3
tp440
a(S'p2_tl'
I87
tp441
a(S'w'
I10268
tp442
a(S'no_ll'
I1
tp443
a(S'no_np'
I2
tp444
a(S'w'
I5137
tp445
a(S'no_vo'
I2
tp446
a(S'no_ll'
I1
tp447
a(S'w'
I1
tp448
a(S'no_np'
I8
tp449
a(S'w'
I4
tp450
a(S'p2_ll'
I1
tp451
a(S'p2_tl'
I87
tp452
a(S'w'
I5131
tp453
a(S'no_ll'
I1
tp454
a(S'w'
I10273
tp455
a(S'no_ll'
I1
tp456
a(S'w'
I5
tp457
a(S'p2_ll'
I1
tp458
a(S'p2_th'
I4
tp459
a(S'p2_tl'
I117
tp460
a(S'w'
I4
tp461
a(S'p1_ll'
I1
tp462
a(S'w'
I1
tp463
a(S'p1_tl'
I213
tp464
a(S'w'
I10266
tp465
a(S'no_vo'
I1
tp466
a(S'no_ll'
I1
tp467
a(S'no_np'
I6
tp468
a(S'w'
I7
tp469
a(S'p2_ll'
I1
tp470
a(S'p2_tl'
I53
tp471
a(S'w'
I5
tp472
a(S'p1_ll'
I1
tp473
a(S'p1_tl'
I179
tp474
a(S'w'
I10258
tp475
a(S'no_ll'
I1
tp476
a(S'no_np'
I2
tp477
a(S'w'
I5137
tp478
a(S'no_ll'
I1
tp479
a(S'no_np'
I4
tp480
a(S'w'
I5
tp481
a(S'p2_ll'
I1
tp482
a(S'p2_th'
I5
tp483
a(S'p2_tl'
I1
tp484
a(S'w'
I4
tp485
a(S'p1_ll'
I1
tp486
a(S'w'
I1
tp487
a(S'p1_tl'
I213
tp488
a(S'w'
I5128
tp489
a(S'p1_du'
I0
tp490
a(S'p1_cv'
I1
tp491
a(S'p1_vo'
I0
tp492
a(S'w'
I5135
tp493
a(S'no_ll'
I1
tp494
a(S'no_np'
I2
tp495
a(S'w'
I5136
tp496
a(S'no_ll'
I1
tp497
a(S'no_np'
I4
tp498
a(S'w'
I5
tp499
a(S'p2_ll'
I1
tp500
a(S'p2_tl'
I158
tp501
a(S'w'
I10268
tp502
a(S'no_ll'
I1
tp503
a(S'no_np'
I6
tp504
a(S'w'
I5
tp505
a(S'p2_ll'
I1
tp506
a(S'p2_th'
I4
tp507
a(S'p2_tl'
I53
tp508
a(S'w'
I10269
tp509
a(S'no_ll'
I1
tp510
a(S'no_np'
I2
tp511
a(S'w'
I6
tp512
a(S'p1_du'
I1
tp513
a(S'p1_cv'
I0
tp514
a(S'p1_vo'
I15
tp515
a(S'w'
I1
tp516
a(S'p1_ll'
I1
tp517
a(S'p1_tl'
I142
tp518
a(S'w'
I5130
tp519
a(S'no_vo'
I2
tp520
a(S'no_ll'
I1
tp521
a(S'w'
I1
tp522
a(S'no_np'
I8
tp523
a(S'w'
I4
tp524
a(S'p2_ll'
I1
tp525
a(S'p2_th'
I5
tp526
a(S'p2_tl'
I1
tp527
a(S'w'
I5131
tp528
a(S'no_ll'
I1
tp529
a(S'w'
I6
tp530
a(S'p1_ll'
I1
tp531
a(S'p1_tl'
I120
tp532
a(S'w'
I5132
tp533
a(S'p1_du'
I0
tp534
a(S'p1_cv'
I1
tp535
a(S'p1_vo'
I0
tp536
a(S'w'
I5135
tp537
a(S'no_ll'
I1
tp538
a(S'w'
I5
tp539
a(S'p2_ll'
I1
tp540
a(S'p2_tl'
I158
tp541
a(S'w'
I4
tp542
a(S'p1_du'
I1
tp543
a(S'p1_cv'
I0
tp544
a(S'p1_vo'
I15
tp545
a(S'w'
I1
tp546
a(S'p1_ll'
I1
tp547
a(S'p1_tl'
I120
tp548
a(S'w'
I5128
tp549
a(S'p1_du'
I0
tp550
a(S'p1_cv'
I1
tp551
a(S'p1_vo'
I0
tp552
a(S'w'
I5138
tp553
a(S'no_vo'
I1
tp554
a(S'no_ll'
I1
tp555
a(S'no_np'
I6
tp556
a(S'w'
I5
tp557
a(S'p2_ll'
I1
tp558
a(S'p2_th'
I3
tp559
a(S'p2_tl'
I192
tp560
a(S'w'
I5
tp561
a(S'p1_du'
I1
tp562
a(S'p1_cv'
I0
tp563
a(S'p1_vo'
I15
tp564
a(S'p1_ll'
I1
tp565
a(S'p1_tl'
I106
tp566
a(S'w'
I10260
tp567
a(S'no_ll'
I1
tp568
a(S'no_np'
I2
tp569
a(S'w'
I5136
tp570
a(S'no_ll'
I1
tp571
a(S'no_np'
I4
tp572
a(S'w'
I5
tp573
a(S'p2_ll'
I1
tp574
a(S'p2_th'
I4
tp575
a(S'p2_tl'
I117
tp576
a(S'w'
I10269
tp577
a(S'no_ll'
I1
tp578
a(S'no_np'
I2
tp579
a(S'w'
I5136
tp580
a(S'no_ll'
I1
tp581
a(S'no_np'
I4
tp582
a(S'w'
I5
tp583
a(S'p2_ll'
I1
tp584
a(S'p2_th'
I5
tp585
a(S'p2_tl'
I1
tp586
a(S'w'
I10268
tp587
a(S'no_ll'
I1
tp588
a(S'no_np'
I6
tp589
a(S'w'
I5
tp590
a(S'p2_ll'
I1
tp591
a(S'p2_th'
I3
tp592
a(S'p2_tl'
I192
tp593
a(S'w'
I10268
tp594
a(S'no_ll'
I1
tp595
a(S'no_np'
I2
tp596
a(S'w'
I5
tp597
a(S'p2_ll'
I1
tp598
a(S'p2_tl'
I192
tp599
a(S'w'
I4
tp600
a(S'p1_ll'
I1
tp601
a(S'w'
I1
tp602
a(S'p1_tl'
I89
tp603
a(S'w'
I5128
tp604
a(S'no_vo'
I2
tp605
a(S'no_ll'
I1
tp606
a(S'w'
I1
tp607
a(S'no_np'
I8
tp608
a(S'w'
I5
tp609
a(S'p1_du'
I0
tp610
a(S'p1_cv'
I1
tp611
a(S'p1_vo'
I0
tp612
a(S'w'
I5129
tp613
a(S'no_ll'
I1
tp614
a(S'w'
I5
tp615
a(S'p2_ll'
I1
tp616
a(S'p2_tl'
I87
tp617
a(S'w'
I4
tp618
a(S'p1_du'
I1
tp619
a(S'p1_cv'
I0
tp620
a(S'p1_vo'
I15
tp621
a(S'w'
I1
tp622
a(S'p1_ll'
I1
tp623
a(S'p1_tl'
I80
tp624
a(S'w'
I5130
tp625
a(S'p1_ll'
I1
tp626
a(S'p1_tl'
I106
tp627
a(S'w'
I5133
tp628
a(S'no_ll'
I1
tp629
a(S'w'
I5
tp630
a(S'p2_ll'
I1
tp631
a(S'p2_th'
I2
tp632
a(S'p2_tl'
I250
tp633
a(S'w'
I4
tp634
a(S'p1_du'
I0
tp635
a(S'p1_cv'
I1
tp636
a(S'p1_vo'
I0
tp637
a(S'w'
I10267
tp638
a(S'no_vo'
I1
tp639
a(S'no_ll'
I1
tp640
a(S'no_np'
I6
tp641
a(S'w'
I5
tp642
a(S'p2_ll'
I1
tp643
a(S'p2_tl'
I207
tp644
a(S'w'
I5
tp645
a(S'p1_du'
I1
tp646
a(S'p1_cv'
I0
tp647
a(S'p1_vo'
I15
tp648
a(S'p1_ll'
I1
tp649
a(S'p1_tl'
I80
tp650
a(S'w'
I10261
tp651
a(S'no_ll'
I1
tp652
a(S'no_np'
I2
tp653
a(S'w'
I6
tp654
a(S'p1_ll'
I1
tp655
a(S'p1_tl'
I71
tp656
a(S'w'
I5130
tp657
a(S'no_ll'
I1
tp658
a(S'no_np'
I4
tp659
a(S'w'
I5
tp660
a(S'p2_ll'
I1
tp661
a(S'p2_th'
I3
tp662
a(S'p2_tl'
I87
tp663
a(S'w'
I4
tp664
a(S'p1_ll'
I1
tp665
a(S'w'
I1
tp666
a(S'p1_tl'
I106
tp667
a(S'w'
I10263
tp668
a(S'no_ll'
I1
tp669
a(S'no_np'
I2
tp670
a(S'w'
I5137
tp671
a(S'no_ll'
I1
tp672
a(S'no_np'
I4
tp673
a(S'w'
I5
tp674
a(S'p2_ll'
I1
tp675
a(S'p2_tl'
I192
tp676
a(S'w'
I4
tp677
a(S'p1_du'
I0
tp678
a(S'p1_cv'
I1
tp679
a(S'p1_vo'
I0
tp680
a(S'w'
I10264
tp681
a(S'no_ll'
I1
tp682
a(S'no_np'
I6
tp683
a(S'w'
I5
tp684
a(S'p2_ll'
I1
tp685
a(S'p2_th'
I2
tp686
a(S'p2_tl'
I207
tp687
a(S'w'
I10268
tp688
a(S'no_ll'
I1
tp689
a(S'no_np'
I2
tp690
a(S'w'
I6
tp691
a(S'p1_du'
I1
tp692
a(S'p1_cv'
I0
tp693
a(S'p1_vo'
I15
tp694
a(S'w'
I1
tp695
a(S'p1_ll'
I1
tp696
a(S'p1_tl'
I60
tp697
a(S'w'
I5130
tp698
a(S'no_vo'
I2
tp699
a(S'no_ll'
I1
tp700
a(S'w'
I1
tp701
a(S'no_np'
I8
tp702
a(S'w'
I4
tp703
a(S'p2_ll'
I1
tp704
a(S'p2_th'
I3
tp705
a(S'p2_tl'
I87
tp706
a(S'w'
I4
tp707
a(S'p1_du'
I0
tp708
a(S'p1_cv'
I1
tp709
a(S'p1_vo'
I0
tp710
a(S'w'
I5127
tp711
a(S'no_ll'
I1
tp712
a(S'w'
I6
tp713
a(S'p1_du'
I1
tp714
a(S'p1_cv'
I0
tp715
a(S'p1_vo'
I15
tp716
a(S'p1_ll'
I1
tp717
a(S'w'
I1
tp718
a(S'p1_tl'
I60
tp719
a(S'w'
I5132
tp720
a(S'p1_du'
I0
tp721
a(S'p1_cv'
I1
tp722
a(S'p1_vo'
I0
tp723
a(S'w'
I5134
tp724
a(S'no_ll'
I1
tp725
a(S'w'
I5
tp726
a(S'p2_ll'
I1
tp727
a(S'p2_tl'
I192
tp728
a(S'w'
I4
tp729
a(S'p1_du'
I1
tp730
a(S'p1_cv'
I0
tp731
a(S'p1_vo'
I15
tp732
a(S'w'
I1
tp733
a(S'p1_ll'
I1
tp734
a(S'p1_tl'
I60
tp735
a(S'w'
I5129
tp736
a(S'p1_du'
I0
tp737
a(S'p1_cv'
I1
tp738
a(S'p1_vo'
I0
tp739
a(S'w'
I5137
tp740
a(S'no_vo'
I1
tp741
a(S'no_ll'
I1
tp742
a(S'no_np'
I6
tp743
a(S'w'
I5
tp744
a(S'p2_ll'
I1
tp745
a(S'p2_tl'
I87
tp746
a(S'w'
I5
tp747
a(S'p1_du'
I1
tp748
a(S'p1_cv'
I0
tp749
a(S'p1_vo'
I15
tp750
a(S'p1_ll'
I1
tp751
a(S'p1_tl'
I60
tp752
a(S'w'
I724
tp753
a(S'p1_ll'
I1
tp754
a(S'p1_tl'
I53
tp755
a(S'w'
I9536
tp756
a(S'no_ll'
I1
tp757
a(S'no_np'
I2
tp758
a(S'w'
I5137
tp759
a(S'no_ll'
I1
tp760
a(S'no_np'
I4
tp761
a(S'w'
I5
tp762
a(S'p2_ll'
I1
tp763
a(S'p2_tl'
I87
tp764
a(S'w'
I4
tp765
a(S'p1_ll'
I1
tp766
a(S'w'
I1
tp767
a(S'p1_tl'
I60
tp768
a(S'w'
I5129
tp769
a(S'p1_ll'
I1
tp770
a(S'p1_tl'
I71
tp771
a(S'w'
I5134
tp772
a(S'no_ll'
I1
tp773
a(S'no_np'
I2
tp774
a(S'w'
I6
tp775
a(S'p1_ll'
I1
tp776
a(S'p1_tl'
I80
tp777
a(S'w'
I5130
tp778
a(S'no_ll'
I1
tp779
a(S'no_np'
I4
tp780
a(S'w'
I5
tp781
a(S'p2_ll'
I1
tp782
a(S'p2_th'
I4
tp783
a(S'p2_tl'
I117
tp784
a(S'w'
I4
tp785
a(S'p1_ll'
I1
tp786
a(S'w'
I1
tp787
a(S'p1_tl'
I80
tp788
a(S'w'
I727
tp789
a(S'p1_ll'
I1
tp790
a(S'p1_tl'
I75
tp791
a(S'w'
I4403
tp792
a(S'p1_ll'
I1
tp793
a(S'p1_tl'
I71
tp794
a(S'w'
I5133
tp795
a(S'no_ll'
I1
tp796
a(S'no_np'
I6
tp797
a(S'w'
I5
tp798
a(S'p2_ll'
I1
tp799
a(S'p2_th'
I3
tp800
a(S'p2_tl'
I87
tp801
a(S'w'
I10269
tp802
a(S'no_ll'
I1
tp803
a(S'no_np'
I2
tp804
a(S'w'
I5137
tp805
a(S'no_vo'
I2
tp806
a(S'no_ll'
I1
tp807
a(S'w'
I1
tp808
a(S'no_np'
I8
tp809
a(S'w'
I4
tp810
a(S'p2_ll'
I1
tp811
a(S'p2_tl'
I87
tp812
a(S'w'
I5131
tp813
a(S'no_ll'
I1
tp814
a(S'w'
I5
tp815
a(S'p1_du'
I0
tp816
a(S'p1_cv'
I1
tp817
a(S'p1_vo'
I0
tp818
a(S'w'
I10268
tp819
a(S'no_ll'
I1
tp820
a(S'w'
I5
tp821
a(S'p2_ll'
I1
tp822
a(S'p2_th'
I4
tp823
a(S'p2_tl'
I117
tp824
a(S'w'
I4
tp825
a(S'p1_du'
I1
tp826
a(S'p1_cv'
I0
tp827
a(S'p1_vo'
I15
tp828
a(S'w'
I1
tp829
a(S'p1_ll'
I1
tp830
a(S'p1_tl'
I89
tp831
a(S'w'
I10266
tp832
a(S'no_vo'
I1
tp833
a(S'no_ll'
I1
tp834
a(S'no_np'
I6
tp835
a(S'w'
I6
tp836
a(S'p2_ll'
I1
tp837
a(S'p2_tl'
I53
tp838
a(S'w'
I5
tp839
a(S'p1_ll'
I1
tp840
a(S'p1_tl'
I80
tp841
a(S'w'
I10259
tp842
a(S'no_ll'
I1
tp843
a(S'no_np'
I2
tp844
a(S'w'
I5136
tp845
a(S'no_ll'
I1
tp846
a(S'no_np'
I4
tp847
a(S'w'
I5
tp848
a(S'p2_ll'
I1
tp849
a(S'p2_th'
I5
tp850
a(S'p2_tl'
I1
tp851
a(S'w'
I4
tp852
a(S'p1_ll'
I1
tp853
a(S'w'
I1
tp854
a(S'p1_tl'
I89
tp855
a(S'w'
I10264
tp856
a(S'no_ll'
I1
tp857
a(S'no_np'
I2
tp858
a(S'w'
I5136
tp859
a(S'no_ll'
I1
tp860
a(S'no_np'
I4
tp861
a(S'w'
I5
tp862
a(S'p2_ll'
I1
tp863
a(S'p2_tl'
I158
tp864
a(S'w'
I10268
tp865
a(S'no_ll'
I1
tp866
a(S'no_np'
I6
tp867
a(S'w'
I5
tp868
a(S'p2_ll'
I1
tp869
a(S'p2_th'
I3
tp870
a(S'p2_tl'
I192
tp871
a(S'w'
I4
tp872
a(S'p1_du'
I0
tp873
a(S'p1_cv'
I1
tp874
a(S'p1_vo'
I0
tp875
a(S'w'
I10264
tp876
a(S'no_ll'
I1
tp877
a(S'no_np'
I2
tp878
a(S'w'
I6
tp879
a(S'p1_du'
I1
tp880
a(S'p1_cv'
I0
tp881
a(S'p1_vo'
I15
tp882
a(S'w'
I1
tp883
a(S'p1_ll'
I1
tp884
a(S'p1_tl'
I120
tp885
a(S'w'
I5131
tp886
a(S'no_vo'
I2
tp887
a(S'no_ll'
I1
tp888
a(S'w'
I1
tp889
a(S'no_np'
I8
tp890
a(S'w'
I4
tp891
a(S'p2_ll'
I1
tp892
a(S'p2_tl'
I87
tp893
a(S'w'
I4
tp894
a(S'p1_du'
I0
tp895
a(S'p1_cv'
I1
tp896
a(S'p1_vo'
I0
tp897
a(S'w'
I5126
tp898
a(S'no_ll'
I1
tp899
a(S'w'
I6
tp900
a(S'p1_du'
I1
tp901
a(S'p1_cv'
I0
tp902
a(S'p1_vo'
I15
tp903
a(S'p1_ll'
I1
tp904
a(S'w'
I1
tp905
a(S'p1_tl'
I106
tp906
a(S'w'
I5132
tp907
a(S'p1_du'
I0
tp908
a(S'p1_cv'
I1
tp909
a(S'p1_vo'
I0
tp910
a(S'w'
I5134
tp911
a(S'no_ll'
I1
tp912
a(S'w'
I5
tp913
a(S'p2_ll'
I1
tp914
a(S'p2_th'
I2
tp915
a(S'p2_tl'
I250
tp916
a(S'w'
I4
tp917
a(S'p1_du'
I1
tp918
a(S'p1_cv'
I0
tp919
a(S'p1_vo'
I15
tp920
a(S'w'
I1
tp921
a(S'p1_ll'
I1
tp922
a(S'p1_tl'
I89
tp923
a(S'w'
I5129
tp924
a(S'p1_du'
I0
tp925
a(S'p1_cv'
I1
tp926
a(S'p1_vo'
I0
tp927
a(S'w'
I5136
tp928
a(S'no_vo'
I1
tp929
a(S'w'
I1
tp930
a(S'no_ll'
I1
tp931
a(S'no_np'
I6
tp932
a(S'w'
I4
tp933
a(S'p2_ll'
I1
tp934
a(S'p2_th'
I5
tp935
a(S'w'
I1
tp936
a(S'p2_tl'
I158
tp937
a(S'w'
I4
tp938
a(S'p1_du'
I1
tp939
a(S'p1_cv'
I0
tp940
a(S'p1_vo'
I15
tp941
a(S'w'
I1
tp942
a(S'p1_ll'
I1
tp943
a(S'p1_tl'
I89
tp944
a(S'w'
I724
tp945
a(S'p1_ll'
I1
tp946
a(S'p1_tl'
I75
tp947
a(S'w'
I4399
tp948
a(S'no_cv'
I1
tp949
a(S'no_vo'
I0
tp950
a(S'w'
I4
tp951
a(S'p2_cv'
I1
tp952
a(S'p2_vo'
I0
tp953
a(S'w'
I4
tp954
a(S'p1_du'
I0
tp955
a(S'p1_cv'
I1
tp956
a(S'p1_vo'
I0
tp957
a(S'w'
I5130
tp958
a(S'no_cv'
I0
tp959
a(S'no_vo'
I1
tp960
a(S'no_ll'
I1
tp961
a(S'w'
I5
tp962
a(S'p2_cv'
I0
tp963
a(S'p2_vo'
I6
tp964
a(S'p2_ll'
I1
tp965
a(S'w'
I1
tp966
a(S'p2_tl'
I158
tp967
a(S'w'
I4
tp968
a(S'p1_du'
I1
tp969
a(S'p1_cv'
I0
tp970
a(S'p1_vo'
I15
tp971
a(S'w'
I1
tp972
a(S'p1_ll'
I1
tp973
a(S'p1_tl'
I80
tp974
a(S'w'
I5124
tp975
a(S'no_cv'
I1
tp976
a(S'no_vo'
I0
tp977
a(S'w'
I4
tp978
a(S'p2_cv'
I1
tp979
a(S'p2_vo'
I0
tp980
a(S'w'
I4
tp981
a(S'p1_du'
I0
tp982
a(S'p1_cv'
I1
tp983
a(S'p1_vo'
I0
tp984
a(S'w'
I5133
tp985
a(S'p1_du'
I1
tp986
a(S'p1_cv'
I0
tp987
a(S'p1_vo'
I15
tp988
a(S'p1_ll'
I1
tp989
a(S'p1_tl'
I89
tp990
a(S'w'
I5133
tp991
a(S'no_cv'
I0
tp992
a(S'no_vo'
I1
tp993
a(S'no_ll'
I1
tp994
a(S'no_np'
I8
tp995
a(S'w'
I5
tp996
a(S'p2_cv'
I0
tp997
a(S'p2_vo'
I6
tp998
a(S'p2_ll'
I1
tp999
a(S'w'
I1
tp1000
a(S'p2_tl'
I158
tp1001
a(S'w'
I4
tp1002
a(S'p1_ll'
I1
tp1003
a(S'p1_tl'
I106
tp1004
a(S'w'
I15400
tp1005
a(S'no_ll'
I1
tp1006
a(S'no_np'
I6
tp1007
a(S'w'
I5
tp1008
a(S'p2_ll'
I1
tp1009
a(S'p2_tl'
I158
tp1010
a(S'w'
I4
tp1011
a(S'p1_ll'
I1
tp1012
a(S'w'
I1
tp1013
a(S'p1_tl'
I89
tp1014
a(S'w'
I5125
tp1015
a(S'no_cv'
I1
tp1016
a(S'no_vo'
I0
tp1017
a(S'w'
I4
tp1018
a(S'p2_cv'
I1
tp1019
a(S'p2_vo'
I0
tp1020
a(S'w'
I4
tp1021
a(S'p1_du'
I0
tp1022
a(S'p1_cv'
I1
tp1023
a(S'p1_vo'
I0
tp1024
a(S'w'
I10267
tp1025
a(S'no_cv'
I0
tp1026
a(S'no_vo'
I1
tp1027
a(S'no_ll'
I1
tp1028
a(S'w'
I1
tp1029
a(S'no_np'
I8
tp1030
a(S'w'
I4
tp1031
a(S'p2_cv'
I0
tp1032
a(S'p2_vo'
I6
tp1033
a(S'w'
I1
tp1034
a(S'p2_ll'
I1
tp1035
a(S'p2_th'
I2
tp1036
a(S'p2_tl'
I207
tp1037
a(S'w'
I5130
tp1038
a(S'no_ll'
I1
tp1039
a(S'w'
I5
tp1040
a(S'p2_ll'
I1
tp1041
a(S'p2_tl'
I250
tp1042
a(S'w'
I10268
tp1043
a(S'no_ll'
I1
tp1044
a(S'w'
I5
tp1045
a(S'p2_ll'
I1
tp1046
a(S'p2_th'
I3
tp1047
a(S'p2_tl'
I87
tp1048
a(S'w'
I5133
tp1049
a(S'p2_cv'
I1
tp1050
a(S'p2_vo'
I0
tp1051
a(S'w'
I5135
tp1052
a(S'no_cv'
I1
tp1053
a(S'no_vo'
I0
tp1054
a(S'w'
I6
tp1055
a(S'p2_cv'
I0
tp1056
a(S'p2_vo'
I1
tp1057
a(S'p2_ll'
I1
tp1058
a(S'w'
I1
tp1059
a(S'p2_tl'
I87
tp1060
a(S'w'
I6
tp1061
a(S'p1_du'
I1
tp1062
a(S'p1_cv'
I0
tp1063
a(S'p1_vo'
I15
tp1064
a(S'w'
I1
tp1065
a(S'p1_ll'
I1
tp1066
a(S'p1_tl'
I142
tp1067
a(S'w'
I5126
tp1068
a(S'p1_ll'
I1
tp1069
a(S'p1_tl'
I151
tp1070
a(S'w'
I5134
tp1071
a(S'p2_ll'
I1
tp1072
a(S'p2_th'
I1
tp1073
a(S'p2_tl'
I171
tp1074
a(S'w'
I5
tp1075
a(S'p1_ll'
I1
tp1076
a(S'p1_tl'
I142
tp1077
a(S'w'
I5134
tp1078
a(S'p1_ll'
I1
tp1079
a(S'p1_tl'
I151
tp1080
a(S'w'
I5133
tp1081
a(S'no_cv'
I0
tp1082
a(S'no_vo'
I2
tp1083
a(S'no_ll'
I1
tp1084
a(S'no_nl'
I1
tp1085
a(S'no_np'
I9
tp1086
a(S'w'
I7
tp1087
a(S'p2_du'
I2
tp1088
a(S'p2_vo'
I2
tp1089
a(S'p2_sn'
I0
tp1090
a(S'p2_ss'
I4
tp1091
a(S'w'
I1
tp1092
a(S'p2_ll'
I1
tp1093
a(S'p2_tl'
I64
tp1094
a(S'w'
I5
tp1095
a(S'p1_ll'
I1
tp1096
a(S'p1_tl'
I142
tp1097
a(S'w'
I721
tp1098
a(S'no_ll'
I1
tp1099
a(S'no_nl'
I0
tp1100
a(S'no_np'
I0
tp1101
a(S'w'
I4405
tp1102
a(S'p1_du'
I0
tp1103
a(S'p1_cv'
I1
tp1104
a(S'p1_vo'
I0
tp1105
a(S'w'
I5134
tp1106
a(S'no_ll'
I1
tp1107
a(S'no_nl'
I1
tp1108
a(S'no_np'
I9
tp1109
a(S'w'
I5
tp1110
a(S'p2_ll'
I1
tp1111
a(S'p2_tl'
I64
tp1112
a(S'w'
I6
tp1113
a(S'p1_du'
I1
tp1114
a(S'p1_cv'
I0
tp1115
a(S'p1_vo'
I15
tp1116
a(S'w'
I1
tp1117
a(S'p1_ll'
I1
tp1118
a(S'p1_tl'
I142
tp1119
a(S'w'
I722
tp1120
a(S'no_ll'
I1
tp1121
a(S'no_nl'
I0
tp1122
a(S'no_np'
I0
tp1123
a(S'w'
I4406
tp1124
a(S'p1_ll'
I1
tp1125
a(S'p1_tl'
I151
tp1126
a(S'w'
I5134
tp1127
a(S'no_cv'
I1
tp1128
a(S'no_vo'
I0
tp1129
a(S'w'
I9
tp1130
a(S'p2_du'
I0
tp1131
a(S'p2_vo'
I1
tp1132
a(S'p2_sn'
I1
tp1133
a(S'p2_ss'
I0
tp1134
a(S'p2_ll'
I1
tp1135
a(S'p2_th'
I3
tp1136
a(S'p2_tl'
I87
tp1137
a(S'w'
I5
tp1138
a(S'p1_ll'
I1
tp1139
a(S'p1_tl'
I142
tp1140
a(S'w'
I5125
tp1141
a(S'p1_ll'
I1
tp1142
a(S'p1_tl'
I151
tp1143
a(S'w'
I5135
tp1144
a(S'p2_ll'
I1
tp1145
a(S'p2_th'
I1
tp1146
a(S'p2_tl'
I171
tp1147
a(S'w'
I5
tp1148
a(S'p1_ll'
I1
tp1149
a(S'p1_tl'
I142
tp1150
a(S'w'
I5132
tp1151
a(S'p1_du'
I0
tp1152
a(S'p1_cv'
I1
tp1153
a(S'p1_vo'
I0
tp1154
a(S'w'
I5135
tp1155
a(S'no_cv'
I0
tp1156
a(S'no_vo'
I2
tp1157
a(S'no_ll'
I1
tp1158
a(S'no_nl'
I1
tp1159
a(S'no_np'
I9
tp1160
a(S'w'
I7
tp1161
a(S'p2_du'
I2
tp1162
a(S'p2_vo'
I2
tp1163
a(S'p2_sn'
I0
tp1164
a(S'p2_ss'
I4
tp1165
a(S'w'
I1
tp1166
a(S'p2_ll'
I1
tp1167
a(S'p2_tl'
I64
tp1168
a(S'w'
I6
tp1169
a(S'p1_du'
I1
tp1170
a(S'p1_cv'
I0
tp1171
a(S'p1_vo'
I15
tp1172
a(S'w'
I1
tp1173
a(S'p1_ll'
I1
tp1174
a(S'p1_tl'
I142
tp1175
a(S'w'
I718
tp1176
a(S'no_ll'
I1
tp1177
a(S'no_nl'
I0
tp1178
a(S'no_np'
I0
tp1179
a(S'w'
I4406
tp1180
a(S'p1_ll'
I1
tp1181
a(S'p1_tl'
I151
tp1182
a(S'w'
I5134
tp1183
a(S'no_ll'
I1
tp1184
a(S'no_nl'
I1
tp1185
a(S'no_np'
I9
tp1186
a(S'w'
I5
tp1187
a(S'p2_ll'
I1
tp1188
a(S'p2_tl'
I64
tp1189
a(S'w'
I4
tp1190
a(S'p1_ll'
I1
tp1191
a(S'w'
I1
tp1192
a(S'p1_tl'
I142
tp1193
a(S'w'
I723
tp1194
a(S'no_ll'
I1
tp1195
a(S'no_nl'
I0
tp1196
a(S'no_np'
I0
tp1197
a(S'w'
I4406
tp1198
a(S'p1_ll'
I1
tp1199
a(S'p1_tl'
I151
tp1200
a(S'w'
I5135
tp1201
a(S'no_cv'
I1
tp1202
a(S'no_vo'
I0
tp1203
a(S'w'
I8
tp1204
a(S'p2_du'
I0
tp1205
a(S'p2_vo'
I1
tp1206
a(S'p2_sn'
I1
tp1207
a(S'p2_ss'
I0
tp1208
a(S'p2_ll'
I1
tp1209
a(S'p2_th'
I5
tp1210
a(S'w'
I1
tp1211
a(S'p2_tl'
I1
tp1212
a(S'w'
I4
tp1213
a(S'p1_ll'
I1
tp1214
a(S'p1_tl'
I142
tp1215
a(S'w'
I5124
tp1216
a(S'p1_du'
I0
tp1217
a(S'p1_cv'
I1
tp1218
a(S'p1_vo'
I0
tp1219
a(S'w'
I5136
tp1220
a(S'p2_ll'
I1
tp1221
a(S'p2_th'
I2
tp1222
a(S'p2_tl'
I128
tp1223
a(S'w'
I8
tp1224
a(S'p1_du'
I1
tp1225
a(S'p1_cv'
I0
tp1226
a(S'p1_vo'
I15
tp1227
a(S'w'
I1
tp1228
a(S'p1_ll'
I1
tp1229
a(S'p1_tl'
I160
tp1230
a(S'w'
I5128
tp1231
a(S'p1_du'
I0
tp1232
a(S'p1_cv'
I1
tp1233
a(S'p1_vo'
I0
tp1234
a(S'w'
I5135
tp1235
a(S'no_cv'
I0
tp1236
a(S'no_vo'
I2
tp1237
a(S'no_ll'
I1
tp1238
a(S'no_nl'
I1
tp1239
a(S'no_np'
I9
tp1240
a(S'w'
I7
tp1241
a(S'p2_du'
I2
tp1242
a(S'p2_vo'
I2
tp1243
a(S'p2_sn'
I0
tp1244
a(S'p2_ss'
I4
tp1245
a(S'w'
I1
tp1246
a(S'p2_ll'
I1
tp1247
a(S'p2_th'
I1
tp1248
a(S'p2_tl'
I64
tp1249
a(S'w'
I4
tp1250
a(S'p1_du'
I1
tp1251
a(S'p1_cv'
I0
tp1252
a(S'p1_vo'
I15
tp1253
a(S'w'
I1
tp1254
a(S'p1_ll'
I1
tp1255
a(S'p1_tl'
I169
tp1256
a(S'w'
I721
tp1257
a(S'no_ll'
I1
tp1258
a(S'no_nl'
I0
tp1259
a(S'no_np'
I0
tp1260
a(S'w'
I4405
tp1261
a(S'p1_ll'
I1
tp1262
a(S'p1_tl'
I201
tp1263
a(S'w'
I5134
tp1264
a(S'no_ll'
I1
tp1265
a(S'no_nl'
I1
tp1266
a(S'no_np'
I9
tp1267
a(S'w'
I5
tp1268
a(S'p2_ll'
I1
tp1269
a(S'p2_tl'
I64
tp1270
a(S'w'
I729
tp1271
a(S'no_ll'
I1
tp1272
a(S'no_nl'
I0
tp1273
a(S'no_np'
I0
tp1274
a(S'w'
I9539
tp1275
a(S'no_cv'
I1
tp1276
a(S'no_vo'
I0
tp1277
a(S'w'
I7
tp1278
a(S'p2_du'
I0
tp1279
a(S'p2_vo'
I1
tp1280
a(S'p2_sn'
I1
tp1281
a(S'p2_ss'
I0
tp1282
a(S'w'
I1
tp1283
a(S'p2_ll'
I1
tp1284
a(S'p2_th'
I5
tp1285
a(S'p2_tl'
I1
tp1286
a(S'w'
I4
tp1287
a(S'p1_ll'
I1
tp1288
a(S'w'
I1
tp1289
a(S'p1_tl'
I213
tp1290
a(S'w'
I5127
tp1291
a(S'p1_ll'
I1
tp1292
a(S'p1_tl'
I240
tp1293
a(S'w'
I5134
tp1294
a(S'p2_ll'
I1
tp1295
a(S'p2_th'
I2
tp1296
a(S'p2_tl'
I128
tp1297
a(S'w'
I5
tp1298
a(S'p1_ll'
I1
tp1299
a(S'p1_th'
I1
tp1300
a(S'p1_tl'
I13
tp1301
a(S'w'
I5133
tp1302
a(S'p1_du'
I0
tp1303
a(S'p1_cv'
I1
tp1304
a(S'p1_vo'
I0
tp1305
a(S'w'
I5134
tp1306
a(S'no_cv'
I0
tp1307
a(S'no_vo'
I2
tp1308
a(S'no_ll'
I1
tp1309
a(S'no_nl'
I1
tp1310
a(S'no_np'
I9
tp1311
a(S'w'
I7
tp1312
a(S'p2_du'
I2
tp1313
a(S'p2_vo'
I2
tp1314
a(S'p2_sn'
I0
tp1315
a(S'p2_ss'
I4
tp1316
a(S'w'
I1
tp1317
a(S'p2_ll'
I1
tp1318
a(S'p2_th'
I1
tp1319
a(S'p2_tl'
I64
tp1320
a(S'w'
I4
tp1321
a(S'p1_du'
I1
tp1322
a(S'p1_cv'
I0
tp1323
a(S'p1_vo'
I15
tp1324
a(S'w'
I1
tp1325
a(S'p1_ll'
I1
tp1326
a(S'p1_tl'
I64
tp1327
a(S'w'
I721
tp1328
a(S'no_ll'
I1
tp1329
a(S'no_nl'
I0
tp1330
a(S'no_np'
I0
tp1331
a(S'w'
I9539
tp1332
a(S'no_ll'
I1
tp1333
a(S'no_nl'
I1
tp1334
a(S'no_np'
I9
tp1335
a(S'w'
I6
tp1336
a(S'p2_vo'
I1
tp1337
a(S'p2_ll'
I1
tp1338
a(S'p2_th'
I0
tp1339
a(S'p2_tl'
I240
tp1340
a(S'w'
I728
tp1341
a(S'no_ll'
I1
tp1342
a(S'no_nl'
I0
tp1343
a(S'no_np'
I0
tp1344
a(S'w'
I4403
tp1345
a(S'no_ll'
I1
tp1346
a(S'no_nl'
I1
tp1347
a(S'no_np'
I9
tp1348
a(S'w'
I5
tp1349
a(S'p2_ll'
I1
tp1350
a(S'p2_tl'
I240
tp1351
a(S'w'
I729
tp1352
a(S'no_ll'
I1
tp1353
a(S'no_nl'
I0
tp1354
a(S'no_np'
I0
tp1355
a(S'w'
I4403
tp1356
a(S'no_cv'
I1
tp1357
a(S'no_vo'
I0
tp1358
a(S'w'
I9
tp1359
a(S'p2_du'
I0
tp1360
a(S'p2_sn'
I1
tp1361
a(S'p2_ss'
I0
tp1362
a(S'p2_ll'
I1
tp1363
a(S'p2_th'
I3
tp1364
a(S'p2_tl'
I87
tp1365
a(S'w'
I5
tp1366
a(S'p1_ll'
I1
tp1367
a(S'p1_th'
I0
tp1368
a(S'p1_tl'
I142
tp1369
a(S'w'
I5125
tp1370
a(S'p1_ll'
I1
tp1371
a(S'p1_tl'
I151
tp1372
a(S'w'
I5135
tp1373
a(S'p2_ll'
I1
tp1374
a(S'p2_th'
I1
tp1375
a(S'p2_tl'
I171
tp1376
a(S'w'
I5
tp1377
a(S'p1_ll'
I1
tp1378
a(S'p1_tl'
I142
tp1379
a(S'w'
I5133
tp1380
a(S'p1_ll'
I1
tp1381
a(S'p1_tl'
I151
tp1382
a(S'w'
I5134
tp1383
a(S'no_cv'
I0
tp1384
a(S'no_vo'
I2
tp1385
a(S'no_ll'
I1
tp1386
a(S'no_nl'
I1
tp1387
a(S'no_np'
I9
tp1388
a(S'w'
I7
tp1389
a(S'p2_du'
I2
tp1390
a(S'p2_vo'
I2
tp1391
a(S'p2_sn'
I0
tp1392
a(S'p2_ss'
I4
tp1393
a(S'w'
I1
tp1394
a(S'p2_ll'
I1
tp1395
a(S'p2_tl'
I64
tp1396
a(S'w'
I5
tp1397
a(S'p1_ll'
I1
tp1398
a(S'p1_tl'
I142
tp1399
a(S'w'
I720
tp1400
a(S'no_ll'
I1
tp1401
a(S'no_nl'
I0
tp1402
a(S'no_np'
I0
tp1403
a(S'w'
I4405
tp1404
a(S'p1_du'
I0
tp1405
a(S'p1_cv'
I1
tp1406
a(S'p1_vo'
I0
tp1407
a(S'w'
I5135
tp1408
a(S'no_ll'
I1
tp1409
a(S'no_nl'
I1
tp1410
a(S'no_np'
I9
tp1411
a(S'w'
I5
tp1412
a(S'p2_ll'
I1
tp1413
a(S'p2_tl'
I64
tp1414
a(S'w'
I6
tp1415
a(S'p1_du'
I1
tp1416
a(S'p1_cv'
I0
tp1417
a(S'p1_vo'
I15
tp1418
a(S'w'
I1
tp1419
a(S'p1_ll'
I1
tp1420
a(S'p1_tl'
I142
tp1421
a(S'w'
I721
tp1422
a(S'no_ll'
I1
tp1423
a(S'no_nl'
I0
tp1424
a(S'no_np'
I0
tp1425
a(S'w'
I4406
tp1426
a(S'p1_ll'
I1
tp1427
a(S'p1_tl'
I151
tp1428
a(S'w'
I5135
tp1429
a(S'no_cv'
I1
tp1430
a(S'no_vo'
I0
tp1431
a(S'w'
I9
tp1432
a(S'p2_du'
I0
tp1433
a(S'p2_vo'
I1
tp1434
a(S'p2_sn'
I1
tp1435
a(S'p2_ss'
I0
tp1436
a(S'p2_ll'
I1
tp1437
a(S'p2_th'
I3
tp1438
a(S'p2_tl'
I87
tp1439
a(S'w'
I5
tp1440
a(S'p1_ll'
I1
tp1441
a(S'p1_tl'
I142
tp1442
a(S'w'
I5124
tp1443
a(S'p1_ll'
I1
tp1444
a(S'p1_tl'
I151
tp1445
a(S'w'
I5135
tp1446
a(S'p2_ll'
I1
tp1447
a(S'p2_th'
I1
tp1448
a(S'p2_tl'
I171
tp1449
a(S'w'
I5
tp1450
a(S'p1_ll'
I1
tp1451
a(S'p1_tl'
I142
tp1452
a(S'w'
I5132
tp1453
a(S'p1_du'
I0
tp1454
a(S'p1_cv'
I1
tp1455
a(S'p1_vo'
I0
tp1456
a(S'w'
I5135
tp1457
a(S'no_cv'
I0
tp1458
a(S'no_vo'
I2
tp1459
a(S'no_ll'
I1
tp1460
a(S'no_nl'
I1
tp1461
a(S'no_np'
I9
tp1462
a(S'w'
I7
tp1463
a(S'p2_du'
I2
tp1464
a(S'p2_vo'
I2
tp1465
a(S'p2_sn'
I0
tp1466
a(S'p2_ss'
I4
tp1467
a(S'w'
I1
tp1468
a(S'p2_ll'
I1
tp1469
a(S'p2_tl'
I64
tp1470
a(S'w'
I6
tp1471
a(S'p1_du'
I1
tp1472
a(S'p1_cv'
I0
tp1473
a(S'p1_vo'
I15
tp1474
a(S'w'
I1
tp1475
a(S'p1_ll'
I1
tp1476
a(S'p1_tl'
I142
tp1477
a(S'w'
I719
tp1478
a(S'no_ll'
I1
tp1479
a(S'no_nl'
I0
tp1480
a(S'no_np'
I0
tp1481
a(S'w'
I4405
tp1482
a(S'p1_ll'
I1
tp1483
a(S'p1_tl'
I151
tp1484
a(S'w'
I5134
tp1485
a(S'no_ll'
I1
tp1486
a(S'no_nl'
I1
tp1487
a(S'no_np'
I9
tp1488
a(S'w'
I5
tp1489
a(S'p2_ll'
I1
tp1490
a(S'p2_tl'
I64
tp1491
a(S'w'
I4
tp1492
a(S'p1_ll'
I1
tp1493
a(S'w'
I1
tp1494
a(S'p1_tl'
I142
tp1495
a(S'w'
I724
tp1496
a(S'no_ll'
I1
tp1497
a(S'no_nl'
I0
tp1498
a(S'no_np'
I0
tp1499
a(S'w'
I4406
tp1500
a(S'p1_ll'
I1
tp1501
a(S'p1_tl'
I151
tp1502
a(S'w'
I5134
tp1503
a(S'no_cv'
I1
tp1504
a(S'no_vo'
I0
tp1505
a(S'w'
I8
tp1506
a(S'p2_du'
I0
tp1507
a(S'p2_vo'
I1
tp1508
a(S'p2_sn'
I1
tp1509
a(S'p2_ss'
I0
tp1510
a(S'p2_ll'
I1
tp1511
a(S'p2_th'
I5
tp1512
a(S'w'
I1
tp1513
a(S'p2_tl'
I1
tp1514
a(S'w'
I4
tp1515
a(S'p1_ll'
I1
tp1516
a(S'p1_tl'
I142
tp1517
a(S'w'
I5125
tp1518
a(S'p1_du'
I0
tp1519
a(S'p1_cv'
I1
tp1520
a(S'p1_vo'
I0
tp1521
a(S'w'
I5135
tp1522
a(S'p2_ll'
I1
tp1523
a(S'p2_th'
I2
tp1524
a(S'p2_tl'
I128
tp1525
a(S'w'
I7
tp1526
a(S'p1_du'
I1
tp1527
a(S'p1_cv'
I0
tp1528
a(S'p1_vo'
I15
tp1529
a(S'w'
I1
tp1530
a(S'p1_ll'
I1
tp1531
a(S'p1_tl'
I120
tp1532
a(S'w'
I5130
tp1533
a(S'p1_du'
I0
tp1534
a(S'p1_cv'
I1
tp1535
a(S'p1_vo'
I0
tp1536
a(S'w'
I5134
tp1537
a(S'no_cv'
I0
tp1538
a(S'no_vo'
I2
tp1539
a(S'no_ll'
I1
tp1540
a(S'no_nl'
I1
tp1541
a(S'no_np'
I9
tp1542
a(S'w'
I7
tp1543
a(S'p2_du'
I2
tp1544
a(S'p2_vo'
I2
tp1545
a(S'p2_sn'
I0
tp1546
a(S'p2_ss'
I4
tp1547
a(S'w'
I1
tp1548
a(S'p2_ll'
I1
tp1549
a(S'p2_th'
I1
tp1550
a(S'p2_tl'
I64
tp1551
a(S'w'
I4
tp1552
a(S'p1_du'
I1
tp1553
a(S'p1_cv'
I0
tp1554
a(S'p1_vo'
I15
tp1555
a(S'w'
I1
tp1556
a(S'p1_ll'
I1
tp1557
a(S'p1_tl'
I106
tp1558
a(S'w'
I721
tp1559
a(S'no_ll'
I1
tp1560
a(S'no_nl'
I0
tp1561
a(S'no_np'
I0
tp1562
a(S'w'
I4406
tp1563
a(S'p1_ll'
I1
tp1564
a(S'p1_tl'
I100
tp1565
a(S'w'
I5133
tp1566
a(S'no_ll'
I1
tp1567
a(S'no_nl'
I1
tp1568
a(S'no_np'
I9
tp1569
a(S'w'
I5
tp1570
a(S'p2_ll'
I1
tp1571
a(S'p2_tl'
I64
tp1572
a(S'w'
I4
tp1573
a(S'p1_du'
I0
tp1574
a(S'p1_cv'
I1
tp1575
a(S'p1_vo'
I0
tp1576
a(S'w'
I725
tp1577
a(S'no_ll'
I1
tp1578
a(S'no_nl'
I0
tp1579
a(S'no_np'
I0
tp1580
a(S'w'
I9539
tp1581
a(S'no_cv'
I1
tp1582
a(S'no_vo'
I0
tp1583
a(S'w'
I7
tp1584
a(S'p2_du'
I0
tp1585
a(S'p2_vo'
I1
tp1586
a(S'p2_sn'
I1
tp1587
a(S'p2_ss'
I0
tp1588
a(S'w'
I1
tp1589
a(S'p2_ll'
I1
tp1590
a(S'p2_th'
I5
tp1591
a(S'p2_tl'
I1
tp1592
a(S'w'
I4
tp1593
a(S'p1_du'
I1
tp1594
a(S'p1_cv'
I0
tp1595
a(S'p1_vo'
I15
tp1596
a(S'w'
I1
tp1597
a(S'p1_ll'
I1
tp1598
a(S'p1_tl'
I106
tp1599
a(S'w'
I10262
tp1600
a(S'p2_ll'
I1
tp1601
a(S'p2_th'
I2
tp1602
a(S'p2_tl'
I128
tp1603
a(S'w'
I10272
tp1604
a(S'no_cv'
I0
tp1605
a(S'no_vo'
I2
tp1606
a(S'no_ll'
I1
tp1607
a(S'no_nl'
I1
tp1608
a(S'no_np'
I9
tp1609
a(S'w'
I7
tp1610
a(S'p2_du'
I2
tp1611
a(S'p2_vo'
I2
tp1612
a(S'p2_sn'
I0
tp1613
a(S'p2_ss'
I4
tp1614
a(S'w'
I1
tp1615
a(S'p2_ll'
I1
tp1616
a(S'p2_th'
I1
tp1617
a(S'p2_tl'
I64
tp1618
a(S'w'
I725
tp1619
a(S'no_ll'
I1
tp1620
a(S'no_nl'
I0
tp1621
a(S'no_np'
I0
tp1622
a(S'w'
I9540
tp1623
a(S'no_ll'
I1
tp1624
a(S'no_nl'
I1
tp1625
a(S'no_np'
I9
tp1626
a(S'w'
I6
tp1627
a(S'p2_vo'
I1
tp1628
a(S'p2_ll'
I1
tp1629
a(S'p2_th'
I0
tp1630
a(S'p2_tl'
I240
tp1631
a(S'w'
I5
tp1632
a(S'p1_ll'
I1
tp1633
a(S'p1_tl'
I151
tp1634
a(S'w'
I722
tp1635
a(S'no_ll'
I1
tp1636
a(S'no_nl'
I0
tp1637
a(S'no_np'
I0
tp1638
a(S'w'
I4403
tp1639
a(S'no_ll'
I1
tp1640
a(S'no_nl'
I1
tp1641
a(S'no_np'
I9
tp1642
a(S'w'
I5
tp1643
a(S'p2_ll'
I1
tp1644
a(S'p2_tl'
I240
tp1645
a(S'w'
I729
tp1646
a(S'no_ll'
I1
tp1647
a(S'no_nl'
I0
tp1648
a(S'no_np'
I0
tp1649
a(S'w'
I4404
tp1650
a(S'no_cv'
I1
tp1651
a(S'no_vo'
I0
tp1652
a(S'w'
I9
tp1653
a(S'p2_du'
I0
tp1654
a(S'p2_sn'
I1
tp1655
a(S'p2_ss'
I0
tp1656
a(S'p2_ll'
I1
tp1657
a(S'p2_th'
I3
tp1658
a(S'p2_tl'
I87
tp1659
a(S'w'
I5
tp1660
a(S'p1_ll'
I1
tp1661
a(S'p1_tl'
I142
tp1662
a(S'w'
I5124
tp1663
a(S'p1_ll'
I1
tp1664
a(S'p1_tl'
I151
tp1665
a(S'w'
I5135
tp1666
a(S'p2_ll'
I1
tp1667
a(S'p2_th'
I1
tp1668
a(S'p2_tl'
I171
tp1669
a(S'w'
I5
tp1670
a(S'p1_ll'
I1
tp1671
a(S'p1_tl'
I142
tp1672
a(S'w'
I5133
tp1673
a(S'p1_ll'
I1
tp1674
a(S'p1_tl'
I151
tp1675
a(S'w'
I5134
tp1676
a(S'no_cv'
I0
tp1677
a(S'no_vo'
I2
tp1678
a(S'no_ll'
I1
tp1679
a(S'no_nl'
I1
tp1680
a(S'no_np'
I9
tp1681
a(S'w'
I7
tp1682
a(S'p2_du'
I2
tp1683
a(S'p2_vo'
I2
tp1684
a(S'p2_sn'
I0
tp1685
a(S'p2_ss'
I4
tp1686
a(S'w'
I1
tp1687
a(S'p2_ll'
I1
tp1688
a(S'p2_tl'
I64
tp1689
a(S'w'
I5
tp1690
a(S'p1_ll'
I1
tp1691
a(S'p1_tl'
I142
tp1692
a(S'w'
I721
tp1693
a(S'no_ll'
I1
tp1694
a(S'no_nl'
I0
tp1695
a(S'no_np'
I0
tp1696
a(S'w'
I4404
tp1697
a(S'p1_du'
I0
tp1698
a(S'p1_cv'
I1
tp1699
a(S'p1_vo'
I0
tp1700
a(S'w'
I5135
tp1701
a(S'no_ll'
I1
tp1702
a(S'no_nl'
I1
tp1703
a(S'no_np'
I9
tp1704
a(S'w'
I5
tp1705
a(S'p2_ll'
I1
tp1706
a(S'p2_tl'
I64
tp1707
a(S'w'
I6
tp1708
a(S'p1_du'
I1
tp1709
a(S'p1_cv'
I0
tp1710
a(S'p1_vo'
I15
tp1711
a(S'w'
I1
tp1712
a(S'p1_ll'
I1
tp1713
a(S'p1_tl'
I142
tp1714
a(S'w'
I722
tp1715
a(S'no_ll'
I1
tp1716
a(S'no_nl'
I0
tp1717
a(S'no_np'
I0
tp1718
a(S'w'
I4406
tp1719
a(S'p1_ll'
I1
tp1720
a(S'p1_tl'
I151
tp1721
a(S'w'
I5134
tp1722
a(S'no_cv'
I1
tp1723
a(S'no_vo'
I0
tp1724
a(S'w'
I9
tp1725
a(S'p2_du'
I0
tp1726
a(S'p2_vo'
I1
tp1727
a(S'p2_sn'
I1
tp1728
a(S'p2_ss'
I0
tp1729
a(S'p2_ll'
I1
tp1730
a(S'p2_th'
I3
tp1731
a(S'p2_tl'
I87
tp1732
a(S'w'
I5
tp1733
a(S'p1_ll'
I1
tp1734
a(S'p1_tl'
I142
tp1735
a(S'w'
I5125
tp1736
a(S'p1_ll'
I1
tp1737
a(S'p1_tl'
I151
tp1738
a(S'w'
I5134
tp1739
a(S'p2_ll'
I1
tp1740
a(S'p2_th'
I1
tp1741
a(S'p2_tl'
I171
tp1742
a(S'w'
I5
tp1743
a(S'p1_ll'
I1
tp1744
a(S'p1_tl'
I142
tp1745
a(S'w'
I5133
tp1746
a(S'p1_du'
I0
tp1747
a(S'p1_cv'
I1
tp1748
a(S'p1_vo'
I0
tp1749
a(S'w'
I5134
tp1750
a(S'no_cv'
I0
tp1751
a(S'no_vo'
I2
tp1752
a(S'no_ll'
I1
tp1753
a(S'no_nl'
I1
tp1754
a(S'no_np'
I9
tp1755
a(S'w'
I7
tp1756
a(S'p2_du'
I2
tp1757
a(S'p2_vo'
I2
tp1758
a(S'p2_sn'
I0
tp1759
a(S'p2_ss'
I4
tp1760
a(S'w'
I1
tp1761
a(S'p2_ll'
I1
tp1762
a(S'p2_tl'
I64
tp1763
a(S'w'
I6
tp1764
a(S'p1_du'
I1
tp1765
a(S'p1_cv'
I0
tp1766
a(S'p1_vo'
I15
tp1767
a(S'w'
I1
tp1768
a(S'p1_ll'
I1
tp1769
a(S'p1_tl'
I142
tp1770
a(S'w'
I719
tp1771
a(S'no_ll'
I1
tp1772
a(S'no_nl'
I0
tp1773
a(S'no_np'
I0
tp1774
a(S'w'
I4406
tp1775
a(S'p1_ll'
I1
tp1776
a(S'p1_tl'
I151
tp1777
a(S'w'
I5133
tp1778
a(S'no_ll'
I1
tp1779
a(S'no_nl'
I1
tp1780
a(S'no_np'
I9
tp1781
a(S'w'
I5
tp1782
a(S'p2_ll'
I1
tp1783
a(S'p2_tl'
I64
tp1784
a(S'w'
I4
tp1785
a(S'p1_ll'
I1
tp1786
a(S'w'
I1
tp1787
a(S'p1_tl'
I142
tp1788
a(S'w'
I724
tp1789
a(S'no_ll'
I1
tp1790
a(S'no_nl'
I0
tp1791
a(S'no_np'
I0
tp1792
a(S'w'
I4406
tp1793
a(S'p1_ll'
I1
tp1794
a(S'p1_tl'
I151
tp1795
a(S'w'
I5134
tp1796
a(S'no_cv'
I1
tp1797
a(S'no_vo'
I0
tp1798
a(S'w'
I8
tp1799
a(S'p2_du'
I0
tp1800
a(S'p2_vo'
I1
tp1801
a(S'p2_sn'
I1
tp1802
a(S'p2_ss'
I0
tp1803
a(S'p2_ll'
I1
tp1804
a(S'p2_th'
I5
tp1805
a(S'w'
I1
tp1806
a(S'p2_tl'
I1
tp1807
a(S'w'
I4
tp1808
a(S'p1_ll'
I1
tp1809
a(S'p1_tl'
I142
tp1810
a(S'w'
I5125
tp1811
a(S'p1_du'
I0
tp1812
a(S'p1_cv'
I1
tp1813
a(S'p1_vo'
I0
tp1814
a(S'w'
I5136
tp1815
a(S'p2_ll'
I1
tp1816
a(S'p2_th'
I2
tp1817
a(S'p2_tl'
I128
tp1818
a(S'w'
I6
tp1819
a(S'p1_du'
I1
tp1820
a(S'p1_cv'
I0
tp1821
a(S'p1_vo'
I15
tp1822
a(S'w'
I1
tp1823
a(S'p1_ll'
I1
tp1824
a(S'p1_tl'
I160
tp1825
a(S'w'
I5130
tp1826
a(S'p1_du'
I0
tp1827
a(S'p1_cv'
I1
tp1828
a(S'p1_vo'
I0
tp1829
a(S'w'
I5135
tp1830
a(S'no_cv'
I0
tp1831
a(S'no_vo'
I2
tp1832
a(S'no_ll'
I1
tp1833
a(S'no_nl'
I1
tp1834
a(S'no_np'
I9
tp1835
a(S'w'
I7
tp1836
a(S'p2_du'
I2
tp1837
a(S'p2_vo'
I2
tp1838
a(S'p2_sn'
I0
tp1839
a(S'p2_ss'
I4
tp1840
a(S'w'
I1
tp1841
a(S'p2_ll'
I1
tp1842
a(S'p2_th'
I1
tp1843
a(S'p2_tl'
I64
tp1844
a(S'w'
I4
tp1845
a(S'p1_du'
I1
tp1846
a(S'p1_cv'
I0
tp1847
a(S'p1_vo'
I15
tp1848
a(S'w'
I1
tp1849
a(S'p1_ll'
I1
tp1850
a(S'p1_tl'
I169
tp1851
a(S'w'
I720
tp1852
a(S'no_ll'
I1
tp1853
a(S'no_nl'
I0
tp1854
a(S'no_np'
I0
tp1855
a(S'w'
I4406
tp1856
a(S'p1_ll'
I1
tp1857
a(S'p1_tl'
I201
tp1858
a(S'w'
I5134
tp1859
a(S'no_ll'
I1
tp1860
a(S'no_nl'
I1
tp1861
a(S'no_np'
I9
tp1862
a(S'w'
I5
tp1863
a(S'p2_ll'
I1
tp1864
a(S'p2_tl'
I64
tp1865
a(S'w'
I728
tp1866
a(S'no_ll'
I1
tp1867
a(S'no_nl'
I0
tp1868
a(S'no_np'
I0
tp1869
a(S'w'
I9540
tp1870
a(S'no_cv'
I1
tp1871
a(S'no_vo'
I0
tp1872
a(S'w'
I7
tp1873
a(S'p2_du'
I0
tp1874
a(S'p2_vo'
I1
tp1875
a(S'p2_sn'
I1
tp1876
a(S'p2_ss'
I0
tp1877
a(S'w'
I1
tp1878
a(S'p2_ll'
I1
tp1879
a(S'p2_th'
I5
tp1880
a(S'p2_tl'
I1
tp1881
a(S'w'
I4
tp1882
a(S'p1_ll'
I1
tp1883
a(S'w'
I1
tp1884
a(S'p1_tl'
I213
tp1885
a(S'w'
I5126
tp1886
a(S'p1_ll'
I1
tp1887
a(S'p1_tl'
I240
tp1888
a(S'w'
I5135
tp1889
a(S'p2_ll'
I1
tp1890
a(S'p2_th'
I2
tp1891
a(S'p2_tl'
I128
tp1892
a(S'w'
I5
tp1893
a(S'p1_ll'
I1
tp1894
a(S'p1_th'
I1
tp1895
a(S'p1_tl'
I13
tp1896
a(S'w'
I5132
tp1897
a(S'p1_du'
I0
tp1898
a(S'p1_cv'
I1
tp1899
a(S'p1_vo'
I0
tp1900
a(S'w'
I5135
tp1901
a(S'no_cv'
I0
tp1902
a(S'no_vo'
I2
tp1903
a(S'no_ll'
I1
tp1904
a(S'no_nl'
I1
tp1905
a(S'no_np'
I9
tp1906
a(S'w'
I7
tp1907
a(S'p2_du'
I2
tp1908
a(S'p2_vo'
I2
tp1909
a(S'p2_sn'
I0
tp1910
a(S'p2_ss'
I4
tp1911
a(S'w'
I1
tp1912
a(S'p2_ll'
I1
tp1913
a(S'p2_th'
I1
tp1914
a(S'p2_tl'
I64
tp1915
a(S'w'
I4
tp1916
a(S'p1_du'
I1
tp1917
a(S'p1_cv'
I0
tp1918
a(S'p1_vo'
I15
tp1919
a(S'w'
I1
tp1920
a(S'p1_ll'
I1
tp1921
a(S'p1_tl'
I64
tp1922
a(S'w'
I721
tp1923
a(S'no_ll'
I1
tp1924
a(S'no_nl'
I0
tp1925
a(S'no_np'
I0
tp1926
a(S'w'
I9539
tp1927
a(S'no_ll'
I1
tp1928
a(S'no_nl'
I1
tp1929
a(S'no_np'
I9
tp1930
a(S'w'
I6
tp1931
a(S'p2_vo'
I1
tp1932
a(S'p2_ll'
I1
tp1933
a(S'p2_th'
I0
tp1934
a(S'p2_tl'
I240
tp1935
a(S'w'
I728
tp1936
a(S'no_ll'
I1
tp1937
a(S'no_nl'
I0
tp1938
a(S'no_np'
I0
tp1939
a(S'w'
I4403
tp1940
a(S'no_ll'
I1
tp1941
a(S'no_nl'
I1
tp1942
a(S'no_np'
I9
tp1943
a(S'w'
I5
tp1944
a(S'p2_ll'
I1
tp1945
a(S'p2_tl'
I240
tp1946
a(S'w'
I728
tp1947
a(S'no_ll'
I1
tp1948
a(S'no_nl'
I0
tp1949
a(S'no_np'
I0
tp1950
a(S'w'
I4403
tp1951
a(S'no_cv'
I1
tp1952
a(S'no_vo'
I0
tp1953
a(S'w'
I8
tp1954
a(S'p2_du'
I0
tp1955
a(S'w'
I1
tp1956
a(S'p2_sn'
I1
tp1957
a(S'p2_ss'
I0
tp1958
a(S'p2_ll'
I1
tp1959
a(S'p2_th'
I4
tp1960
a(S'p2_tl'
I53
tp1961
a(S'w'
I5
tp1962
a(S'p1_ll'
I1
tp1963
a(S'p1_tl'
I103
tp1964
a(S'w'
I5126
tp1965
a(S'p1_ll'
I1
tp1966
a(S'p1_tl'
I64
tp1967
a(S'w'
I5134
tp1968
a(S'p2_ll'
I1
tp1969
a(S'p2_th'
I2
tp1970
a(S'p2_tl'
I26
tp1971
a(S'w'
I5
tp1972
a(S'p1_ll'
I1
tp1973
a(S'p1_tl'
I29
tp1974
a(S'w'
I5134
tp1975
a(S'p1_ll'
I1
tp1976
a(S'p1_tl'
I64
tp1977
a(S'w'
I5134
tp1978
a(S'no_cv'
I0
tp1979
a(S'no_vo'
I1
tp1980
a(S'no_ll'
I1
tp1981
a(S'w'
I1
tp1982
a(S'no_np'
I4
tp1983
a(S'w'
I4
tp1984
a(S'p2_cv'
I1
tp1985
a(S'p2_vo'
I0
tp1986
a(S'w'
I4
tp1987
a(S'p1_ll'
I1
tp1988
a(S'p1_tl'
I29
tp1989
a(S'w'
I5130
tp1990
a(S'p1_ll'
I1
tp1991
a(S'p1_tl'
I13
tp1992
a(S'w'
I5133
tp1993
a(S'no_ll'
I1
tp1994
a(S'w'
I6
tp1995
a(S'p1_ll'
I1
tp1996
a(S'p1_tl'
I29
tp1997
a(S'w'
I5134
tp1998
a(S'p1_ll'
I1
tp1999
a(S'p1_tl'
I13
tp2000
a(S'w'
I5132
tp2001
a(S'no_cv'
I1
tp2002
a(S'no_vo'
I0
tp2003
a(S'w'
I5
tp2004
a(S'p2_cv'
I0
tp2005
a(S'p2_vo'
I1
tp2006
a(S'p2_ll'
I1
tp2007
a(S'p2_th'
I3
tp2008
a(S'p2_tl'
I192
tp2009
a(S'w'
I5
tp2010
a(S'p1_ll'
I1
tp2011
a(S'p1_th'
I0
tp2012
a(S'p1_tl'
I240
tp2013
a(S'w'
I5131
tp2014
a(S'p1_ll'
I1
tp2015
a(S'p1_th'
I1
tp2016
a(S'p1_tl'
I13
tp2017
a(S'w'
I5135
tp2018
a(S'p2_ll'
I1
tp2019
a(S'p2_th'
I1
tp2020
a(S'p2_tl'
I224
tp2021
a(S'w'
I5
tp2022
a(S'p1_ll'
I1
tp2023
a(S'p1_th'
I0
tp2024
a(S'p1_tl'
I240
tp2025
a(S'w'
I5133
tp2026
a(S'p1_ll'
I1
tp2027
a(S'p1_tl'
I213
tp2028
a(S'w'
I5134
tp2029
a(S'no_cv'
I0
tp2030
a(S'no_vo'
I1
tp2031
a(S'no_ll'
I1
tp2032
a(S'no_nl'
I1
tp2033
a(S'no_np'
I9
tp2034
a(S'w'
I7
tp2035
a(S'p2_du'
I2
tp2036
a(S'p2_vo'
I2
tp2037
a(S'p2_sn'
I0
tp2038
a(S'p2_ss'
I4
tp2039
a(S'w'
I1
tp2040
a(S'p2_ll'
I1
tp2041
a(S'p2_th'
I0
tp2042
a(S'p2_tl'
I201
tp2043
a(S'w'
I5
tp2044
a(S'p1_ll'
I1
tp2045
a(S'p1_tl'
I240
tp2046
a(S'w'
I720
tp2047
a(S'no_ll'
I1
tp2048
a(S'no_nl'
I0
tp2049
a(S'no_np'
I0
tp2050
a(S'w'
I4406
tp2051
a(S'p1_ll'
I1
tp2052
a(S'p1_tl'
I213
tp2053
a(S'w'
I5134
tp2054
a(S'no_ll'
I1
tp2055
a(S'no_nl'
I1
tp2056
a(S'no_np'
I9
tp2057
a(S'w'
I5
tp2058
a(S'p2_ll'
I1
tp2059
a(S'p2_tl'
I201
tp2060
a(S'w'
I4
tp2061
a(S'p1_ll'
I1
tp2062
a(S'w'
I1
tp2063
a(S'p1_tl'
I190
tp2064
a(S'w'
I723
tp2065
a(S'no_ll'
I1
tp2066
a(S'no_nl'
I0
tp2067
a(S'no_np'
I0
tp2068
a(S'w'
I4406
tp2069
a(S'p1_ll'
I1
tp2070
a(S'p1_tl'
I160
tp2071
a(S'w'
I5135
tp2072
a(S'no_ll'
I1
tp2073
a(S'w'
I1
tp2074
a(S'no_np'
I8
tp2075
a(S'w'
I6
tp2076
a(S'p2_du'
I0
tp2077
a(S'p2_vo'
I6
tp2078
a(S'w'
I1
tp2079
a(S'p2_sn'
I1
tp2080
a(S'p2_ss'
I0
tp2081
a(S'p2_ll'
I1
tp2082
a(S'p2_th'
I5
tp2083
a(S'p2_tl'
I158
tp2084
a(S'w'
I5
tp2085
a(S'p1_ll'
I1
tp2086
a(S'p1_tl'
I179
tp2087
a(S'w'
I5121
tp2088
a(S'no_cv'
I1
tp2089
a(S'no_vo'
I0
tp2090
a(S'w'
I4
tp2091
a(S'p2_cv'
I1
tp2092
a(S'p2_vo'
I0
tp2093
a(S'w'
I4
tp2094
a(S'p1_du'
I0
tp2095
a(S'p1_cv'
I1
tp2096
a(S'p1_vo'
I0
tp2097
a(S'w'
I5130
tp2098
a(S'no_cv'
I0
tp2099
a(S'no_vo'
I1
tp2100
a(S'no_ll'
I1
tp2101
a(S'w'
I5
tp2102
a(S'p2_cv'
I0
tp2103
a(S'p2_vo'
I6
tp2104
a(S'p2_ll'
I1
tp2105
a(S'w'
I1
tp2106
a(S'p2_tl'
I158
tp2107
a(S'w'
I4
tp2108
a(S'p1_du'
I1
tp2109
a(S'p1_cv'
I0
tp2110
a(S'p1_vo'
I15
tp2111
a(S'w'
I1
tp2112
a(S'p1_ll'
I1
tp2113
a(S'p1_tl'
I179
tp2114
a(S'w'
I5124
tp2115
a(S'no_cv'
I1
tp2116
a(S'no_vo'
I0
tp2117
a(S'w'
I4
tp2118
a(S'p2_cv'
I1
tp2119
a(S'p2_vo'
I0
tp2120
a(S'w'
I4
tp2121
a(S'p1_du'
I0
tp2122
a(S'p1_cv'
I1
tp2123
a(S'p1_vo'
I0
tp2124
a(S'w'
I10266
tp2125
a(S'no_cv'
I0
tp2126
a(S'no_vo'
I1
tp2127
a(S'no_ll'
I1
tp2128
a(S'w'
I5
tp2129
a(S'p2_cv'
I0
tp2130
a(S'p2_vo'
I6
tp2131
a(S'p2_ll'
I1
tp2132
a(S'w'
I1
tp2133
a(S'p2_tl'
I158
tp2134
a(S'w'
I4
tp2135
a(S'p1_du'
I1
tp2136
a(S'p1_cv'
I0
tp2137
a(S'p1_vo'
I15
tp2138
a(S'w'
I1
tp2139
a(S'p1_ll'
I1
tp2140
a(S'p1_tl'
I190
tp2141
a(S'w'
I10262
tp2142
a(S'no_cv'
I1
tp2143
a(S'no_vo'
I0
tp2144
a(S'w'
I4
tp2145
a(S'p2_cv'
I1
tp2146
a(S'p2_vo'
I0
tp2147
a(S'w'
I5133
tp2148
a(S'no_cv'
I0
tp2149
a(S'no_vo'
I1
tp2150
a(S'no_ll'
I1
tp2151
a(S'w'
I5
tp2152
a(S'p2_cv'
I0
tp2153
a(S'p2_vo'
I6
tp2154
a(S'p2_ll'
I1
tp2155
a(S'w'
I1
tp2156
a(S'p2_tl'
I158
tp2157
a(S'w'
I4
tp2158
a(S'p1_ll'
I1
tp2159
a(S'p1_tl'
I179
tp2160
a(S'w'
I5126
tp2161
a(S'no_cv'
I1
tp2162
a(S'no_vo'
I0
tp2163
a(S'w'
I4
tp2164
a(S'p2_cv'
I1
tp2165
a(S'p2_vo'
I0
tp2166
a(S'w'
I4
tp2167
a(S'p1_du'
I0
tp2168
a(S'p1_cv'
I1
tp2169
a(S'p1_vo'
I0
tp2170
a(S'w'
I5130
tp2171
a(S'no_cv'
I0
tp2172
a(S'no_vo'
I2
tp2173
a(S'no_ll'
I1
tp2174
a(S'w'
I1
tp2175
a(S'w'
I4
tp2176
a(S'p2_cv'
I0
tp2177
a(S'p2_vo'
I6
tp2178
a(S'w'
I1
tp2179
a(S'p2_ll'
I1
tp2180
a(S'p2_th'
I3
tp2181
a(S'p2_tl'
I192
tp2182
a(S'w'
I6
tp2183
a(S'p1_du'
I1
tp2184
a(S'p1_cv'
I0
tp2185
a(S'p1_vo'
I15
tp2186
a(S'w'
I1
tp2187
a(S'p1_ll'
I1
tp2188
a(S'p1_tl'
I240
tp2189
a(S'w'
I5123
tp2190
a(S'no_ll'
I1
tp2191
a(S'w'
I5
tp2192
a(S'p2_ll'
I1
tp2193
a(S'p2_tl'
I192
tp2194
a(S'w'
I4
tp2195
a(S'p1_ll'
I1
tp2196
a(S'w'
I1
tp2197
a(S'p1_tl'
I213
tp2198
a(S'w'
I5126
tp2199
a(S'no_ll'
I1
tp2200
a(S'w'
I4
tp2201
a(S'p2_cv'
I1
tp2202
a(S'p2_vo'
I0
tp2203
a(S'w'
I5
tp2204
a(S'p1_ll'
I1
tp2205
a(S'p1_tl'
I179
tp2206
a(S'w'
I5128
tp2207
a(S'no_ll'
I1
tp2208
a(S'w'
I6
tp2209
a(S'p1_ll'
I1
tp2210
a(S'p1_tl'
I240
tp2211
a(S'w'
I5130
tp2212
a(S'no_ll'
I1
tp2213
a(S'w'
I4
tp2214
a(S'p2_cv'
I0
tp2215
a(S'p2_vo'
I6
tp2216
a(S'w'
I1
tp2217
a(S'p2_ll'
I1
tp2218
a(S'p2_tl'
I192
tp2219
a(S'w'
I5
tp2220
a(S'p1_ll'
I1
tp2221
a(S'p1_tl'
I213
tp2222
a(S'w'
I5127
tp2223
a(S'no_ll'
I1
tp2224
a(S'w'
I5
tp2225
a(S'p2_ll'
I1
tp2226
a(S'p2_tl'
I192
tp2227
a(S'w'
I4
tp2228
a(S'p1_ll'
I1
tp2229
a(S'w'
I1
tp2230
a(S'p1_tl'
I179
tp2231
a(S'w'
I5129
tp2232
a.