(lp1
(S'clock'
p2
I1789772
tp3
a(S'p1_cv'
I1
tp4
a(S'p2_cv'
I1
tp5
a(S'tr_lr'
I16
tp6
a(S'no_cv'
I1
tp7
a(S'ch_no'
I1
tp8
a(S'ch_tr'
I1
tp9
a(S'ch_p2'
I1
tp10
a(S'ch_p1'
I1
tp11
a(S'w'
I6
tp12
a(S'tr_lr'
I127
tp13
a(S'w'
I1
tp14
a(S'tr_ll'
I1
tp15
a(S'tr_th'
I1
tp16
a(S'tr_tl'
I103
tp17
a(S'w'
I5
tp18
a(S'no_cv'
I0
tp19
a(S'no_vo'
I1
tp20
a(S'w'
I1
tp21
a(S'no_ll'
I1
tp22
a(S'no_np'
I2
tp23
a(S'w'
I5
tp24
a(S'p2_du'
I3
tp25
a(S'p2_cv'
I0
tp26
a(S'p2_vo'
I5
tp27
a(S'p2_se'
I1
tp28
a(S'p2_sn'
I1
tp29
a(S'p2_ll'
I1
tp30
a(S'p2_th'
I1
tp31
a(S'p2_tl'
I103
tp32
a(S'w'
I5
tp33
a(S'p1_cv'
I0
tp34
a(S'p1_vo'
I2
tp35
a(S'p1_se'
I1
tp36
a(S'p1_sn'
I1
tp37
a(S'p1_ll'
I1
tp38
a(S'p1_th'
I1
tp39
a(S'w'
I1
tp40
a(S'p1_tl'
I103
tp41
a(S'w'
I5857
tp42
a(S'p2_ll'
I1
tp43
a(S'p2_tl'
I224
tp44
a(S'w'
I5
tp45
a(S'p1_ll'
I1
tp46
a(S'p1_tl'
I224
tp47
a(S'w'
I5865
tp48
a(S'p2_ll'
I1
tp49
a(S'p2_tl'
I171
tp50
a(S'w'
I5
tp51
a(S'p1_ll'
I1
tp52
a(S'p1_tl'
I171
tp53
a(S'w'
I5863
tp54
a(S'tr_ll'
I1
tp55
a(S'tr_tl'
I224
tp56
a(S'w'
I5
tp57
a(S'no_ll'
I1
tp58
a(S'w'
I5
tp59
a(S'p2_ll'
I1
tp60
a(S'p2_tl'
I103
tp61
a(S'w'
I5
tp62
a(S'p1_ll'
I1
tp63
a(S'p1_tl'
I103
tp64
a(S'w'
I5857
tp65
a(S'no_ll'
I1
tp66
a(S'w'
I5871
tp67
a(S'p2_ll'
I1
tp68
a(S'p2_tl'
I224
tp69
a(S'w'
I5
tp70
a(S'p1_ll'
I1
tp71
a(S'p1_tl'
I224
tp72
a(S'w'
I5863
tp73
a(S'tr_ll'
I1
tp74
a(S'tr_tl'
I171
tp75
a(S'w'
I5
tp76
a(S'no_ll'
I1
tp77
a(S'no_np'
I4
tp78
a(S'w'
I5
tp79
a(S'p2_ll'
I1
tp80
a(S'p2_tl'
I171
tp81
a(S'w'
I5
tp82
a(S'p1_ll'
I1
tp83
a(S'p1_tl'
I171
tp84
a(S'w'
I5858
tp85
a(S'p2_ll'
I1
tp86
a(S'p2_tl'
I224
tp87
a(S'w'
I5
tp88
a(S'p1_ll'
I1
tp89
a(S'p1_tl'
I224
tp90
a(S'w'
I5862
tp91
a(S'tr_ll'
I1
tp92
a(S'tr_tl'
I83
tp93
a(S'w'
I5
tp94
a(S'no_ll'
I1
tp95
a(S'no_np'
I2
tp96
a(S'w'
I5
tp97
a(S'p2_ll'
I1
tp98
a(S'p2_tl'
I83
tp99
a(S'w'
I5
tp100
a(S'p1_ll'
I1
tp101
a(S'p1_tl'
I83
tp102
a(S'w'
I5859
tp103
a(S'p2_ll'
I1
tp104
a(S'p2_tl'
I224
tp105
a(S'w'
I5
tp106
a(S'p1_ll'
I1
tp107
a(S'p1_tl'
I224
tp108
a(S'w'
I5865
tp109
a(S'p2_ll'
I1
tp110
a(S'p2_tl'
I171
tp111
a(S'w'
I5
tp112
a(S'p1_ll'
I1
tp113
a(S'p1_tl'
I171
tp114
a(S'w'
I5862
tp115
a(S'tr_ll'
I1
tp116
a(S'tr_tl'
I224
tp117
a(S'w'
I5
tp118
a(S'no_ll'
I1
tp119
a(S'w'
I5
tp120
a(S'p2_ll'
I1
tp121
a(S'p2_tl'
I83
tp122
a(S'w'
I5
tp123
a(S'p1_ll'
I1
tp124
a(S'p1_tl'
I83
tp125
a(S'w'
I5858
tp126
a(S'no_ll'
I1
tp127
a(S'w'
I5871
tp128
a(S'p2_ll'
I1
tp129
a(S'p2_tl'
I224
tp130
a(S'w'
I5
tp131
a(S'p1_ll'
I1
tp132
a(S'p1_tl'
I224
tp133
a(S'w'
I5862
tp134
a(S'tr_ll'
I1
tp135
a(S'tr_tl'
I171
tp136
a(S'w'
I5
tp137
a(S'no_ll'
I1
tp138
a(S'w'
I5
tp139
a(S'p2_ll'
I1
tp140
a(S'p2_tl'
I171
tp141
a(S'w'
I5
tp142
a(S'p1_ll'
I1
tp143
a(S'p1_tl'
I171
tp144
a(S'w'
I5858
tp145
a(S'no_ll'
I1
tp146
a(S'w'
I4
tp147
a(S'p2_ll'
I1
tp148
a(S'w'
I1
tp149
a(S'p2_tl'
I224
tp150
a(S'w'
I4
tp151
a(S'p1_ll'
I1
tp152
a(S'p1_tl'
I224
tp153
a(S'w'
I5859
tp154
a(S'tr_ll'
I1
tp155
a(S'tr_tl'
I64
tp156
a(S'w'
I5
tp157
a(S'no_ll'
I1
tp158
a(S'w'
I5
tp159
a(S'p2_ll'
I1
tp160
a(S'p2_tl'
I64
tp161
a(S'w'
I5
tp162
a(S'p1_ll'
I1
tp163
a(S'p1_tl'
I64
tp164
a(S'w'
I5854
tp165
a(S'tr_lr'
I0
tp166
a(S'w'
I7
tp167
a(S'p2_ll'
I1
tp168
a(S'p2_tl'
I224
tp169
a(S'w'
I4
tp170
a(S'p1_ll'
I1
tp171
a(S'w'
I1
tp172
a(S'p1_tl'
I224
tp173
a(S'w'
I5859
tp174
a(S'tr_lr'
I127
tp175
a(S'w'
I1
tp176
a(S'tr_ll'
I1
tp177
a(S'w'
I5
tp178
a(S'no_ll'
I1
tp179
a(S'w'
I1
tp180
a(S'no_np'
I4
tp181
a(S'w'
I4
tp182
a(S'p2_ll'
I1
tp183
a(S'p2_tl'
I171
tp184
a(S'w'
I5
tp185
a(S'p1_ll'
I1
tp186
a(S'p1_tl'
I171
tp187
a(S'w'
I5854
tp188
a(S'tr_lr'
I0
tp189
a(S'w'
I7
tp190
a(S'p2_ll'
I1
tp191
a(S'p2_tl'
I64
tp192
a(S'w'
I4
tp193
a(S'p1_ll'
I1
tp194
a(S'w'
I1
tp195
a(S'p1_tl'
I64
tp196
a(S'w'
I5858
tp197
a(S'tr_lr'
I127
tp198
a(S'w'
I1
tp199
a(S'tr_ll'
I1
tp200
a(S'tr_th'
I0
tp201
a(S'tr_tl'
I240
tp202
a(S'w'
I5
tp203
a(S'no_ll'
I1
tp204
a(S'w'
I1
tp205
a(S'no_np'
I2
tp206
a(S'w'
I4
tp207
a(S'p2_ll'
I1
tp208
a(S'p2_tl'
I29
tp209
a(S'w'
I5
tp210
a(S'p1_ll'
I1
tp211
a(S'p1_tl'
I29
tp212
a(S'w'
I5856
tp213
a(S'tr_ll'
I1
tp214
a(S'w'
I5
tp215
a(S'no_ll'
I1
tp216
a(S'no_np'
I4
tp217
a(S'w'
I5
tp218
a(S'p2_ll'
I1
tp219
a(S'p2_tl'
I224
tp220
a(S'w'
I5
tp221
a(S'p1_ll'
I1
tp222
a(S'p1_tl'
I224
tp223
a(S'w'
I5854
tp224
a(S'tr_lr'
I0
tp225
a(S'w'
I7
tp226
a(S'p2_ll'
I1
tp227
a(S'p2_tl'
I171
tp228
a(S'w'
I4
tp229
a(S'p1_ll'
I1
tp230
a(S'w'
I1
tp231
a(S'p1_tl'
I171
tp232
a(S'w'
I5862
tp233
a(S'p2_ll'
I1
tp234
a(S'p2_tl'
I29
tp235
a(S'w'
I5
tp236
a(S'p1_ll'
I1
tp237
a(S'p1_tl'
I29
tp238
a(S'w'
I5862
tp239
a(S'tr_lr'
I127
tp240
a(S'w'
I1
tp241
a(S'tr_ll'
I1
tp242
a(S'tr_th'
I1
tp243
a(S'tr_tl'
I103
tp244
a(S'w'
I5
tp245
a(S'no_ll'
I1
tp246
a(S'w'
I1
tp247
a(S'no_np'
I2
tp248
a(S'w'
I4
tp249
a(S'p2_ll'
I1
tp250
a(S'p2_tl'
I103
tp251
a(S'w'
I5
tp252
a(S'p1_ll'
I1
tp253
a(S'p1_tl'
I103
tp254
a(S'w'
I5854
tp255
a(S'tr_lr'
I0
tp256
a(S'w'
I6
tp257
a(S'p2_du'
I0
tp258
a(S'p2_cv'
I1
tp259
a(S'p2_vo'
I0
tp260
a(S'w'
I4
tp261
a(S'p1_cv'
I1
tp262
a(S'p1_vo'
I0
tp263
a(S'w'
I17601
tp264
a(S'tr_lr'
I127
tp265
a(S'w'
I1
tp266
a(S'tr_ll'
I1
tp267
a(S'tr_th'
I0
tp268
a(S'tr_tl'
I179
tp269
a(S'w'
I5
tp270
a(S'no_ll'
I1
tp271
a(S'w'
I1
tp272
a(S'no_np'
I4
tp273
a(S'w'
I4
tp274
a(S'p2_du'
I3
tp275
a(S'p2_cv'
I0
tp276
a(S'p2_vo'
I5
tp277
a(S'w'
I1
tp278
a(S'p2_ll'
I1
tp279
a(S'p2_th'
I0
tp280
a(S'p2_tl'
I179
tp281
a(S'w'
I4
tp282
a(S'p1_cv'
I0
tp283
a(S'p1_vo'
I2
tp284
a(S'w'
I1
tp285
a(S'p1_ll'
I1
tp286
a(S'p1_th'
I0
tp287
a(S'p1_tl'
I179
tp288
a(S'w'
I23463
tp289
a(S'tr_lr'
I0
tp290
a(S'w'
I4
tp291
a(S'no_cv'
I1
tp292
a(S'no_vo'
I0
tp293
a(S'w'
I4
tp294
a(S'p2_du'
I0
tp295
a(S'p2_cv'
I1
tp296
a(S'p2_vo'
I0
tp297
a(S'w'
I3
tp298
a(S'p1_cv'
I1
tp299
a(S'p1_vo'
I0
tp300
a(S'w'
I42533
tp301
a.