(lp1
(S'clock'
p2
I1789772
tp3
a(S'p1_cv'
I1
tp4
a(S'p2_cv'
I1
tp5
a(S'tr_lr'
I16
tp6
a(S'no_cv'
I1
tp7
a(S'ch_no'
I1
tp8
a(S'ch_tr'
I1
tp9
a(S'ch_p2'
I1
tp10
a(S'ch_p1'
I1
tp11
a(S'w'
I8
tp12
a(S'w'
I4
tp13
a(S'p1_du'
I2
tp14
a(S'p1_cv'
I0
tp15
a(S'p1_vo'
I15
tp16
a(S'p1_se'
I1
tp17
a(S'p1_sp'
I7
tp18
a(S'p1_sn'
I1
tp19
a(S'p1_ss'
I2
tp20
a(S'w'
I1
tp21
a(S'p1_ll'
I1
tp22
a(S'p1_th'
I2
tp23
a(S'p1_tl'
I128
tp24
a(S'w'
I729
tp25
a(S'p2_du'
I3
tp26
a(S'p2_cv'
I0
tp27
a(S'p2_vo'
I15
tp28
a(S'p2_se'
I1
tp29
a(S'p2_sp'
I7
tp30
a(S'p2_sn'
I1
tp31
a(S'p2_ss'
I2
tp32
a(S'w'
I1
tp33
a(S'p2_ll'
I1
tp34
a(S'p2_th'
I2
tp35
a(S'p2_tl'
I128
tp36
a(S'w'
I46229
tp37
a(S'p1_du'
I0
tp38
a(S'p1_cv'
I1
tp39
a(S'p1_vo'
I0
tp40
a(S'w'
I732
tp41
a(S'p2_du'
I0
tp42
a(S'p2_cv'
I1
tp43
a(S'p2_vo'
I0
tp44
a(S'w'
I38312
tp45
a.