(lp1
(S'clock'
p2
I1789772
tp3
a(S'ch_no'
I1
tp4
a(S'ch_tr'
I1
tp5
a(S'ch_p2'
I1
tp6
a(S'ch_p1'
I1
tp7
a(S'p1_lh'
I1
tp8
a(S'p1_cv'
I1
tp9
a(S'p2_lh'
I1
tp10
a(S'p2_cv'
I1
tp11
a(S'no_lh'
I1
tp12
a(S'no_cv'
I1
tp13
a(S'p1_du'
I2
tp14
a(S'p1_vo'
I12
tp15
a(S'p1_du'
I0
tp16
a(S'p1_vo'
I0
tp17
a(S'p2_du'
I2
tp18
a(S'p2_vo'
I13
tp19
a(S'p2_du'
I0
tp20
a(S'p2_vo'
I0
tp21
a(S'tr_lr'
I55
tp22
a(S'tr_tl'
I92
tp23
a(S'tr_ll'
I1
tp24
a(S'tr_th'
I5
tp25
a(S'no_lh'
I0
tp26
a(S'no_cv'
I0
tp27
a(S'no_vo'
I1
tp28
a(S'no_lh'
I1
tp29
a(S'no_cv'
I1
tp30
a(S'no_vo'
I0
tp31
a(S'w'
I2943
tp32
a(S'p1_tl'
I254
tp33
a(S'p1_ll'
I0
tp34
a(S'w'
I7
tp35
a(S'p2_tl'
I213
tp36
a(S'p2_ll'
I0
tp37
a(S'w'
I7
tp38
a(S'tr_tl'
I171
tp39
a(S'tr_ll'
I0
tp40
a(S'tr_th'
I1
tp41
a(S'w'
I6
tp42
a(S'no_np'
I1
tp43
a(S'no_ll'
I1
tp44
a(S'w'
I710
tp45
a(S'p1_du'
I2
tp46
a(S'p1_vo'
I12
tp47
a(S'w'
I5
tp48
a(S'p2_du'
I2
tp49
a(S'p2_vo'
I13
tp50
a(S'w'
I8
tp51
a(S'no_lh'
I0
tp52
a(S'no_cv'
I0
tp53
a(S'no_vo'
I1
tp54
a(S'w'
I1455
tp55
a(S'p1_vo'
I13
tp56
a(S'w'
I5
tp57
a(S'p2_vo'
I11
tp58
a(S'w'
I1463
tp59
a(S'p1_vo'
I12
tp60
a(S'w'
I5
tp61
a(S'p2_vo'
I10
tp62
a(S'w'
I1462
tp63
a(S'p1_vo'
I9
tp64
a(S'w'
I5
tp65
a(S'p2_vo'
I9
tp66
a(S'w'
I1463
tp67
a(S'p1_vo'
I7
tp68
a(S'w'
I5
tp69
a(S'p2_vo'
I8
tp70
a(S'w'
I732
tp71
a(S'p1_tl'
I83
tp72
a(S'p1_ll'
I0
tp73
a(S'p1_th'
I1
tp74
a(S'w'
I7
tp75
a(S'p2_tl'
I29
tp76
a(S'p2_ll'
I0
tp77
a(S'p2_th'
I1
tp78
a(S'w'
I7
tp79
a(S'tr_ll'
I0
tp80
a(S'w'
I4
tp81
a(S'no_np'
I3
tp82
a(S'no_ll'
I1
tp83
a(S'w'
I712
tp84
a(S'p1_vo'
I12
tp85
a(S'w'
I5
tp86
a(S'p2_vo'
I13
tp87
a(S'w'
I1463
tp88
a(S'p1_vo'
I13
tp89
a(S'w'
I5
tp90
a(S'p2_vo'
I11
tp91
a(S'w'
I1463
tp92
a(S'p1_vo'
I12
tp93
a(S'w'
I5
tp94
a(S'p2_vo'
I10
tp95
a(S'w'
I1462
tp96
a(S'p1_vo'
I9
tp97
a(S'w'
I5
tp98
a(S'p2_vo'
I9
tp99
a(S'w'
I1463
tp100
a(S'p1_vo'
I7
tp101
a(S'w'
I5
tp102
a(S'p2_vo'
I8
tp103
a(S'w'
I732
tp104
a(S'p1_tl'
I46
tp105
a(S'p1_ll'
I0
tp106
a(S'w'
I7
tp107
a(S'p2_tl'
I254
tp108
a(S'p2_ll'
I0
tp109
a(S'p2_th'
I0
tp110
a(S'w'
I7
tp111
a(S'tr_tl'
I83
tp112
a(S'tr_ll'
I0
tp113
a(S'w'
I4
tp114
a(S'no_np'
I1
tp115
a(S'no_ll'
I1
tp116
a(S'w'
I712
tp117
a(S'p1_vo'
I12
tp118
a(S'w'
I5
tp119
a(S'p2_vo'
I13
tp120
a(S'w'
I1463
tp121
a(S'p1_vo'
I13
tp122
a(S'w'
I5
tp123
a(S'p2_vo'
I11
tp124
a(S'w'
I1462
tp125
a(S'p1_vo'
I12
tp126
a(S'w'
I5
tp127
a(S'p2_vo'
I10
tp128
a(S'w'
I1463
tp129
a(S'p1_vo'
I9
tp130
a(S'w'
I5
tp131
a(S'p2_vo'
I9
tp132
a(S'w'
I1463
tp133
a(S'p1_vo'
I7
tp134
a(S'w'
I5
tp135
a(S'p2_vo'
I8
tp136
a(S'w'
I731
tp137
a(S'p1_tl'
I254
tp138
a(S'p1_ll'
I0
tp139
a(S'p1_th'
I0
tp140
a(S'w'
I7
tp141
a(S'p2_tl'
I213
tp142
a(S'p2_ll'
I0
tp143
a(S'w'
I7
tp144
a(S'tr_tl'
I29
tp145
a(S'tr_ll'
I0
tp146
a(S'w'
I4
tp147
a(S'no_np'
I4
tp148
a(S'no_ll'
I1
tp149
a(S'w'
I713
tp150
a(S'p1_vo'
I12
tp151
a(S'w'
I5
tp152
a(S'p2_vo'
I13
tp153
a(S'w'
I1463
tp154
a(S'p1_vo'
I13
tp155
a(S'w'
I5
tp156
a(S'p2_vo'
I11
tp157
a(S'w'
I1462
tp158
a(S'p1_vo'
I12
tp159
a(S'w'
I5
tp160
a(S'p2_vo'
I10
tp161
a(S'w'
I1463
tp162
a(S'p1_vo'
I9
tp163
a(S'w'
I5
tp164
a(S'p2_vo'
I9
tp165
a(S'w'
I1463
tp166
a(S'p1_vo'
I7
tp167
a(S'w'
I5
tp168
a(S'p2_vo'
I8
tp169
a(S'w'
I733
tp170
a(S'tr_tl'
I171
tp171
a(S'tr_ll'
I0
tp172
a(S'w'
I6
tp173
a(S'no_np'
I1
tp174
a(S'no_ll'
I1
tp175
a(S'w'
I723
tp176
a(S'p1_vo'
I5
tp177
a(S'w'
I5
tp178
a(S'p2_vo'
I6
tp179
a(S'w'
I6602
tp180
a(S'p1_tl'
I83
tp181
a(S'p1_ll'
I0
tp182
a(S'p1_th'
I1
tp183
a(S'w'
I6
tp184
a(S'p2_tl'
I29
tp185
a(S'w'
I1
tp186
a(S'p2_ll'
I0
tp187
a(S'p2_th'
I1
tp188
a(S'w'
I6
tp189
a(S'tr_ll'
I0
tp190
a(S'w'
I4
tp191
a(S'no_np'
I3
tp192
a(S'w'
I1
tp193
a(S'no_ll'
I1
tp194
a(S'w'
I713
tp195
a(S'p1_vo'
I12
tp196
a(S'w'
I5
tp197
a(S'p2_vo'
I13
tp198
a(S'w'
I1463
tp199
a(S'p1_vo'
I13
tp200
a(S'w'
I5
tp201
a(S'p2_vo'
I11
tp202
a(S'w'
I1462
tp203
a(S'p1_vo'
I12
tp204
a(S'w'
I5
tp205
a(S'p2_vo'
I10
tp206
a(S'w'
I1463
tp207
a(S'p1_vo'
I9
tp208
a(S'w'
I5
tp209
a(S'p2_vo'
I9
tp210
a(S'w'
I1462
tp211
a(S'p1_vo'
I7
tp212
a(S'w'
I5
tp213
a(S'p2_vo'
I8
tp214
a(S'w'
I732
tp215
a(S'p1_tl'
I29
tp216
a(S'p1_ll'
I0
tp217
a(S'w'
I7
tp218
a(S'p2_tl'
I254
tp219
a(S'p2_ll'
I0
tp220
a(S'p2_th'
I0
tp221
a(S'w'
I7
tp222
a(S'tr_tl'
I83
tp223
a(S'tr_ll'
I0
tp224
a(S'w'
I4
tp225
a(S'no_np'
I1
tp226
a(S'no_ll'
I1
tp227
a(S'w'
I713
tp228
a(S'p1_vo'
I12
tp229
a(S'w'
I5
tp230
a(S'p2_vo'
I13
tp231
a(S'w'
I1463
tp232
a(S'p1_vo'
I13
tp233
a(S'w'
I5
tp234
a(S'p2_vo'
I11
tp235
a(S'w'
I1462
tp236
a(S'p1_vo'
I12
tp237
a(S'w'
I5
tp238
a(S'p2_vo'
I10
tp239
a(S'w'
I1463
tp240
a(S'p1_vo'
I9
tp241
a(S'w'
I5
tp242
a(S'p2_vo'
I9
tp243
a(S'w'
I1462
tp244
a(S'p1_vo'
I7
tp245
a(S'w'
I5
tp246
a(S'p2_vo'
I8
tp247
a(S'w'
I734
tp248
a(S'tr_tl'
I29
tp249
a(S'tr_ll'
I0
tp250
a(S'w'
I4
tp251
a(S'no_np'
I4
tp252
a(S'no_ll'
I1
tp253
a(S'w'
I725
tp254
a(S'p1_vo'
I5
tp255
a(S'w'
I5
tp256
a(S'p2_vo'
I6
tp257
a(S'w'
I6602
tp258
a(S'p1_tl'
I225
tp259
a(S'p1_ll'
I0
tp260
a(S'p1_th'
I0
tp261
a(S'w'
I7
tp262
a(S'p2_tl'
I190
tp263
a(S'p2_ll'
I0
tp264
a(S'w'
I7
tp265
a(S'tr_tl'
I125
tp266
a(S'tr_ll'
I0
tp267
a(S'w'
I6
tp268
a(S'no_np'
I1
tp269
a(S'no_ll'
I1
tp270
a(S'w'
I711
tp271
a(S'p1_vo'
I12
tp272
a(S'w'
I5
tp273
a(S'p2_vo'
I13
tp274
a(S'w'
I1462
tp275
a(S'p1_vo'
I13
tp276
a(S'w'
I5
tp277
a(S'p2_vo'
I11
tp278
a(S'w'
I1463
tp279
a(S'p1_vo'
I12
tp280
a(S'w'
I5
tp281
a(S'p2_vo'
I10
tp282
a(S'w'
I1463
tp283
a(S'p1_vo'
I9
tp284
a(S'w'
I5
tp285
a(S'p2_vo'
I9
tp286
a(S'w'
I1462
tp287
a(S'p1_vo'
I7
tp288
a(S'w'
I5
tp289
a(S'p2_vo'
I8
tp290
a(S'w'
I732
tp291
a(S'p1_tl'
I254
tp292
a(S'p1_ll'
I0
tp293
a(S'w'
I7
tp294
a(S'p2_tl'
I213
tp295
a(S'w'
I1
tp296
a(S'p2_ll'
I0
tp297
a(S'w'
I6
tp298
a(S'tr_ll'
I0
tp299
a(S'w'
I4
tp300
a(S'no_np'
I3
tp301
a(S'no_ll'
I1
tp302
a(S'w'
I713
tp303
a(S'p1_vo'
I12
tp304
a(S'w'
I5
tp305
a(S'p2_vo'
I13
tp306
a(S'w'
I1462
tp307
a(S'p1_vo'
I13
tp308
a(S'w'
I5
tp309
a(S'p2_vo'
I11
tp310
a(S'w'
I1463
tp311
a(S'p1_vo'
I12
tp312
a(S'w'
I5
tp313
a(S'p2_vo'
I10
tp314
a(S'w'
I1462
tp315
a(S'p1_vo'
I9
tp316
a(S'w'
I5
tp317
a(S'p2_vo'
I9
tp318
a(S'w'
I1463
tp319
a(S'p1_vo'
I7
tp320
a(S'w'
I5
tp321
a(S'p2_vo'
I8
tp322
a(S'w'
I732
tp323
a(S'p1_tl'
I46
tp324
a(S'p1_ll'
I0
tp325
a(S'p1_th'
I1
tp326
a(S'w'
I7
tp327
a(S'p2_tl'
I254
tp328
a(S'p2_ll'
I0
tp329
a(S'w'
I7
tp330
a(S'tr_tl'
I46
tp331
a(S'tr_ll'
I0
tp332
a(S'w'
I4
tp333
a(S'no_np'
I1
tp334
a(S'no_ll'
I1
tp335
a(S'w'
I713
tp336
a(S'p1_vo'
I12
tp337
a(S'w'
I5
tp338
a(S'p2_vo'
I13
tp339
a(S'w'
I1462
tp340
a(S'p1_vo'
I13
tp341
a(S'w'
I5
tp342
a(S'p2_vo'
I11
tp343
a(S'w'
I1463
tp344
a(S'p1_vo'
I12
tp345
a(S'w'
I5
tp346
a(S'p2_vo'
I10
tp347
a(S'w'
I1462
tp348
a(S'p1_vo'
I9
tp349
a(S'w'
I5
tp350
a(S'p2_vo'
I9
tp351
a(S'w'
I1463
tp352
a(S'p1_vo'
I7
tp353
a(S'w'
I5
tp354
a(S'p2_vo'
I8
tp355
a(S'w'
I732
tp356
a(S'p1_tl'
I225
tp357
a(S'p1_ll'
I0
tp358
a(S'p1_th'
I0
tp359
a(S'w'
I7
tp360
a(S'p2_tl'
I190
tp361
a(S'p2_ll'
I0
tp362
a(S'w'
I7
tp363
a(S'tr_tl'
I254
tp364
a(S'tr_ll'
I0
tp365
a(S'tr_th'
I0
tp366
a(S'w'
I4
tp367
a(S'no_np'
I4
tp368
a(S'no_ll'
I1
tp369
a(S'w'
I713
tp370
a(S'p1_vo'
I12
tp371
a(S'w'
I5
tp372
a(S'p2_vo'
I13
tp373
a(S'w'
I1462
tp374
a(S'p1_vo'
I13
tp375
a(S'w'
I5
tp376
a(S'p2_vo'
I11
tp377
a(S'w'
I1463
tp378
a(S'p1_vo'
I12
tp379
a(S'w'
I5
tp380
a(S'p2_vo'
I10
tp381
a(S'w'
I1462
tp382
a(S'p1_vo'
I9
tp383
a(S'w'
I5
tp384
a(S'p2_vo'
I9
tp385
a(S'w'
I1463
tp386
a(S'p1_vo'
I7
tp387
a(S'w'
I5
tp388
a(S'p2_vo'
I8
tp389
a(S'w'
I734
tp390
a(S'tr_tl'
I125
tp391
a(S'tr_ll'
I0
tp392
a(S'tr_th'
I1
tp393
a(S'w'
I6
tp394
a(S'no_np'
I1
tp395
a(S'no_ll'
I1
tp396
a(S'w'
I722
tp397
a(S'p1_vo'
I5
tp398
a(S'w'
I5
tp399
a(S'p2_vo'
I6
tp400
a(S'w'
I6603
tp401
a(S'p1_tl'
I254
tp402
a(S'p1_ll'
I0
tp403
a(S'w'
I7
tp404
a(S'p2_tl'
I213
tp405
a(S'p2_ll'
I0
tp406
a(S'w'
I7
tp407
a(S'tr_ll'
I0
tp408
a(S'w'
I4
tp409
a(S'no_np'
I3
tp410
a(S'no_ll'
I1
tp411
a(S'w'
I712
tp412
a(S'p1_vo'
I12
tp413
a(S'w'
I5
tp414
a(S'p2_vo'
I13
tp415
a(S'w'
I1463
tp416
a(S'p1_vo'
I13
tp417
a(S'w'
I5
tp418
a(S'p2_vo'
I11
tp419
a(S'w'
I1463
tp420
a(S'p1_vo'
I12
tp421
a(S'w'
I5
tp422
a(S'p2_vo'
I10
tp423
a(S'w'
I1462
tp424
a(S'p1_vo'
I9
tp425
a(S'w'
I5
tp426
a(S'p2_vo'
I9
tp427
a(S'w'
I1463
tp428
a(S'p1_vo'
I7
tp429
a(S'w'
I5
tp430
a(S'p2_vo'
I8
tp431
a(S'w'
I732
tp432
a(S'p1_tl'
I29
tp433
a(S'p1_ll'
I0
tp434
a(S'p1_th'
I1
tp435
a(S'w'
I7
tp436
a(S'p2_tl'
I254
tp437
a(S'p2_ll'
I0
tp438
a(S'w'
I7
tp439
a(S'tr_tl'
I46
tp440
a(S'tr_ll'
I0
tp441
a(S'w'
I4
tp442
a(S'no_np'
I1
tp443
a(S'no_ll'
I1
tp444
a(S'w'
I712
tp445
a(S'p1_vo'
I12
tp446
a(S'w'
I5
tp447
a(S'p2_vo'
I13
tp448
a(S'w'
I1463
tp449
a(S'p1_vo'
I13
tp450
a(S'w'
I5
tp451
a(S'p2_vo'
I11
tp452
a(S'w'
I1462
tp453
a(S'p1_vo'
I12
tp454
a(S'w'
I5
tp455
a(S'p2_vo'
I10
tp456
a(S'w'
I1463
tp457
a(S'p1_vo'
I9
tp458
a(S'w'
I5
tp459
a(S'p2_vo'
I9
tp460
a(S'w'
I1463
tp461
a(S'p1_vo'
I7
tp462
a(S'w'
I5
tp463
a(S'p2_vo'
I8
tp464
a(S'w'
I733
tp465
a(S'tr_tl'
I254
tp466
a(S'tr_ll'
I0
tp467
a(S'tr_th'
I0
tp468
a(S'w'
I4
tp469
a(S'no_np'
I4
tp470
a(S'no_ll'
I1
tp471
a(S'w'
I725
tp472
a(S'p1_vo'
I5
tp473
a(S'w'
I5
tp474
a(S'p2_vo'
I6
tp475
a(S'w'
I6602
tp476
a(S'p1_tl'
I213
tp477
a(S'p1_ll'
I0
tp478
a(S'p1_th'
I0
tp479
a(S'w'
I7
tp480
a(S'p2_tl'
I179
tp481
a(S'p2_ll'
I0
tp482
a(S'w'
I7
tp483
a(S'tr_tl'
I103
tp484
a(S'tr_ll'
I0
tp485
a(S'tr_th'
I1
tp486
a(S'w'
I6
tp487
a(S'no_np'
I1
tp488
a(S'no_ll'
I1
tp489
a(S'w'
I711
tp490
a(S'p1_vo'
I12
tp491
a(S'w'
I5
tp492
a(S'p2_vo'
I13
tp493
a(S'w'
I1463
tp494
a(S'p1_vo'
I13
tp495
a(S'w'
I5
tp496
a(S'p2_vo'
I11
tp497
a(S'w'
I1462
tp498
a(S'p1_vo'
I12
tp499
a(S'w'
I5
tp500
a(S'p2_vo'
I10
tp501
a(S'w'
I1463
tp502
a(S'p1_vo'
I9
tp503
a(S'w'
I5
tp504
a(S'p2_vo'
I9
tp505
a(S'w'
I1462
tp506
a(S'p1_vo'
I7
tp507
a(S'w'
I5
tp508
a(S'p2_vo'
I8
tp509
a(S'w'
I732
tp510
a(S'w'
I1
tp511
a(S'p1_ll'
I0
tp512
a(S'w'
I7
tp513
a(S'p2_ll'
I0
tp514
a(S'w'
I7
tp515
a(S'tr_ll'
I0
tp516
a(S'w'
I4
tp517
a(S'no_np'
I3
tp518
a(S'no_ll'
I1
tp519
a(S'w'
I712
tp520
a(S'p1_vo'
I12
tp521
a(S'w'
I5
tp522
a(S'p2_vo'
I13
tp523
a(S'w'
I1463
tp524
a(S'p1_vo'
I13
tp525
a(S'w'
I5
tp526
a(S'p2_vo'
I11
tp527
a(S'w'
I1462
tp528
a(S'p1_vo'
I12
tp529
a(S'w'
I5
tp530
a(S'p2_vo'
I10
tp531
a(S'w'
I1463
tp532
a(S'p1_vo'
I9
tp533
a(S'w'
I5
tp534
a(S'p2_vo'
I9
tp535
a(S'w'
I1462
tp536
a(S'p1_vo'
I7
tp537
a(S'w'
I5
tp538
a(S'p2_vo'
I8
tp539
a(S'w'
I732
tp540
a(S'p1_ll'
I0
tp541
a(S'w'
I8
tp542
a(S'p2_ll'
I0
tp543
a(S'w'
I5
tp544
a(S'no_np'
I1
tp545
a(S'no_ll'
I1
tp546
a(S'w'
I718
tp547
a(S'p1_vo'
I12
tp548
a(S'w'
I5
tp549
a(S'p2_vo'
I13
tp550
a(S'w'
I1463
tp551
a(S'p1_vo'
I13
tp552
a(S'w'
I5
tp553
a(S'p2_vo'
I11
tp554
a(S'w'
I1462
tp555
a(S'p1_vo'
I12
tp556
a(S'w'
I5
tp557
a(S'p2_vo'
I10
tp558
a(S'w'
I1463
tp559
a(S'p1_vo'
I9
tp560
a(S'w'
I5
tp561
a(S'p2_vo'
I9
tp562
a(S'w'
I1462
tp563
a(S'p1_vo'
I7
tp564
a(S'w'
I5
tp565
a(S'p2_vo'
I8
tp566
a(S'w'
I732
tp567
a(S'no_np'
I4
tp568
a(S'w'
I1
tp569
a(S'no_ll'
I1
tp570
a(S'w'
I730
tp571
a(S'p1_vo'
I5
tp572
a(S'w'
I5
tp573
a(S'p2_vo'
I6
tp574
a(S'w'
I6602
tp575
a(S'p1_tl'
I225
tp576
a(S'p1_ll'
I0
tp577
a(S'w'
I7
tp578
a(S'p2_tl'
I190
tp579
a(S'p2_ll'
I0
tp580
a(S'w'
I7
tp581
a(S'tr_tl'
I125
tp582
a(S'tr_ll'
I0
tp583
a(S'w'
I6
tp584
a(S'no_np'
I1
tp585
a(S'no_ll'
I1
tp586
a(S'w'
I711
tp587
a(S'p1_vo'
I12
tp588
a(S'w'
I5
tp589
a(S'p2_vo'
I13
tp590
a(S'w'
I1462
tp591
a(S'p1_vo'
I13
tp592
a(S'w'
I5
tp593
a(S'p2_vo'
I11
tp594
a(S'w'
I1463
tp595
a(S'p1_vo'
I12
tp596
a(S'w'
I5
tp597
a(S'p2_vo'
I10
tp598
a(S'w'
I1463
tp599
a(S'p1_vo'
I9
tp600
a(S'w'
I5
tp601
a(S'p2_vo'
I9
tp602
a(S'w'
I1462
tp603
a(S'p1_vo'
I7
tp604
a(S'w'
I5
tp605
a(S'p2_vo'
I8
tp606
a(S'w'
I734
tp607
a(S'tr_ll'
I0
tp608
a(S'w'
I4
tp609
a(S'no_np'
I3
tp610
a(S'no_ll'
I1
tp611
a(S'w'
I725
tp612
a(S'p1_vo'
I5
tp613
a(S'w'
I5
tp614
a(S'p2_vo'
I6
tp615
a(S'w'
I6602
tp616
a(S'p1_ll'
I0
tp617
a(S'w'
I7
tp618
a(S'p2_ll'
I0
tp619
a(S'w'
I5
tp620
a(S'no_np'
I1
tp621
a(S'no_ll'
I1
tp622
a(S'w'
I719
tp623
a(S'p1_vo'
I12
tp624
a(S'w'
I5
tp625
a(S'p2_vo'
I13
tp626
a(S'w'
I1462
tp627
a(S'p1_vo'
I13
tp628
a(S'w'
I5
tp629
a(S'p2_vo'
I11
tp630
a(S'w'
I1463
tp631
a(S'p1_vo'
I12
tp632
a(S'w'
I5
tp633
a(S'p2_vo'
I10
tp634
a(S'w'
I1462
tp635
a(S'p1_vo'
I9
tp636
a(S'w'
I5
tp637
a(S'p2_vo'
I9
tp638
a(S'w'
I1463
tp639
a(S'p1_vo'
I7
tp640
a(S'w'
I5
tp641
a(S'p2_vo'
I8
tp642
a(S'w'
I732
tp643
a(S'p1_tl'
I29
tp644
a(S'p1_ll'
I0
tp645
a(S'p1_th'
I1
tp646
a(S'w'
I7
tp647
a(S'p2_tl'
I213
tp648
a(S'p2_ll'
I0
tp649
a(S'w'
I7
tp650
a(S'tr_tl'
I171
tp651
a(S'tr_ll'
I0
tp652
a(S'w'
I4
tp653
a(S'no_np'
I4
tp654
a(S'no_ll'
I1
tp655
a(S'w'
I713
tp656
a(S'p1_vo'
I12
tp657
a(S'w'
I5
tp658
a(S'p2_vo'
I13
tp659
a(S'w'
I1462
tp660
a(S'p1_vo'
I13
tp661
a(S'w'
I5
tp662
a(S'p2_vo'
I11
tp663
a(S'w'
I1463
tp664
a(S'p1_vo'
I12
tp665
a(S'w'
I5
tp666
a(S'p2_vo'
I10
tp667
a(S'w'
I1462
tp668
a(S'p1_vo'
I9
tp669
a(S'w'
I5
tp670
a(S'p2_vo'
I9
tp671
a(S'w'
I1463
tp672
a(S'p1_vo'
I7
tp673
a(S'w'
I5
tp674
a(S'p2_vo'
I8
tp675
a(S'w'
I734
tp676
a(S'no_np'
I3
tp677
a(S'w'
I1
tp678
a(S'no_ll'
I1
tp679
a(S'w'
I727
tp680
a(S'p1_vo'
I5
tp681
a(S'w'
I5
tp682
a(S'p2_vo'
I6
tp683
a(S'w'
I2934
tp684
a(S'no_ll'
I1
tp685
a(S'w'
I3669
tp686
a(S'no_ll'
I1
tp687
a(S'w'
I3669
tp688
a(S'no_ll'
I1
tp689
a(S'w'
I3669
tp690
a(S'no_np'
I4
tp691
a(S'no_ll'
I1
tp692
a(S'w'
I7337
tp693
a(S'no_ll'
I1
tp694
a(S'w'
I7338
tp695
a(S'no_ll'
I1
tp696
a(S'w'
I7335
tp697
a(S'p1_du'
I0
tp698
a(S'p1_vo'
I0
tp699
a(S'w'
I4
tp700
a(S'p2_du'
I0
tp701
a(S'p2_vo'
I0
tp702
a(S'w'
I4
tp703
a(S'tr_lr'
I48
tp704
a(S'w'
I7332
tp705
a(S'no_lh'
I1
tp706
a(S'no_cv'
I1
tp707
a(S'no_vo'
I0
tp708
a(S'w'
I58521
tp709
a.