(lp1
(S'clock'
p2
I1789772
tp3
a(S'ch_no'
I1
tp4
a(S'ch_tr'
I1
tp5
a(S'ch_p2'
I1
tp6
a(S'ch_p1'
I1
tp7
a(S'p1_lh'
I1
tp8
a(S'p1_cv'
I1
tp9
a(S'p2_lh'
I1
tp10
a(S'p2_cv'
I1
tp11
a(S'no_lh'
I1
tp12
a(S'no_cv'
I1
tp13
a(S'p1_du'
I2
tp14
a(S'p1_vo'
I12
tp15
a(S'p1_du'
I0
tp16
a(S'p1_vo'
I0
tp17
a(S'p2_du'
I2
tp18
a(S'p2_vo'
I14
tp19
a(S'p2_du'
I0
tp20
a(S'p2_vo'
I0
tp21
a(S'tr_lr'
I55
tp22
a(S'tr_tl'
I92
tp23
a(S'tr_ll'
I1
tp24
a(S'tr_th'
I5
tp25
a(S'no_lh'
I0
tp26
a(S'no_cv'
I0
tp27
a(S'no_vo'
I1
tp28
a(S'no_lh'
I1
tp29
a(S'no_cv'
I1
tp30
a(S'no_vo'
I0
tp31
a(S'w'
I3676
tp32
a(S'p1_tl'
I127
tp33
a(S'p1_ll'
I0
tp34
a(S'w'
I7
tp35
a(S'p2_tl'
I169
tp36
a(S'p2_ll'
I0
tp37
a(S'w'
I7
tp38
a(S'tr_tl'
I171
tp39
a(S'tr_ll'
I0
tp40
a(S'tr_th'
I1
tp41
a(S'w'
I6
tp42
a(S'no_np'
I3
tp43
a(S'no_ll'
I1
tp44
a(S'w'
I711
tp45
a(S'p1_du'
I2
tp46
a(S'p1_vo'
I12
tp47
a(S'w'
I5
tp48
a(S'p2_du'
I2
tp49
a(S'p2_vo'
I14
tp50
a(S'w'
I8
tp51
a(S'no_lh'
I0
tp52
a(S'no_cv'
I0
tp53
a(S'no_vo'
I1
tp54
a(S'w'
I1455
tp55
a(S'p1_vo'
I10
tp56
a(S'w'
I5
tp57
a(S'p2_vo'
I13
tp58
a(S'w'
I1462
tp59
a(S'p1_vo'
I9
tp60
a(S'w'
I5
tp61
a(S'p2_vo'
I10
tp62
a(S'w'
I1463
tp63
a(S'p1_vo'
I8
tp64
a(S'w'
I5
tp65
a(S'p2_vo'
I9
tp66
a(S'w'
I1463
tp67
a(S'p1_vo'
I7
tp68
a(S'w'
I5
tp69
a(S'p2_vo'
I8
tp70
a(S'w'
I1462
tp71
a(S'p1_vo'
I5
tp72
a(S'w'
I5
tp73
a(S'p2_vo'
I6
tp74
a(S'w'
I5135
tp75
a(S'p1_tl'
I160
tp76
a(S'p1_ll'
I0
tp77
a(S'w'
I7
tp78
a(S'p2_tl'
I213
tp79
a(S'p2_ll'
I0
tp80
a(S'w'
I7
tp81
a(S'tr_ll'
I0
tp82
a(S'w'
I4
tp83
a(S'no_np'
I2
tp84
a(S'no_ll'
I1
tp85
a(S'w'
I713
tp86
a(S'p1_vo'
I12
tp87
a(S'w'
I5
tp88
a(S'p2_vo'
I14
tp89
a(S'w'
I1462
tp90
a(S'p1_vo'
I10
tp91
a(S'w'
I5
tp92
a(S'p2_vo'
I13
tp93
a(S'w'
I1463
tp94
a(S'p1_vo'
I9
tp95
a(S'w'
I5
tp96
a(S'p2_vo'
I10
tp97
a(S'w'
I731
tp98
a(S'p1_tl'
I120
tp99
a(S'w'
I1
tp100
a(S'p1_ll'
I0
tp101
a(S'w'
I7
tp102
a(S'p2_tl'
I160
tp103
a(S'p2_ll'
I0
tp104
a(S'w'
I6
tp105
a(S'tr_tl'
I125
tp106
a(S'w'
I1
tp107
a(S'tr_ll'
I0
tp108
a(S'w'
I6
tp109
a(S'no_np'
I3
tp110
a(S'no_ll'
I1
tp111
a(S'w'
I710
tp112
a(S'p1_vo'
I12
tp113
a(S'w'
I5
tp114
a(S'p2_vo'
I14
tp115
a(S'w'
I1463
tp116
a(S'p1_vo'
I10
tp117
a(S'w'
I5
tp118
a(S'p2_vo'
I13
tp119
a(S'w'
I1462
tp120
a(S'p1_vo'
I9
tp121
a(S'w'
I5
tp122
a(S'p2_vo'
I10
tp123
a(S'w'
I1463
tp124
a(S'p1_vo'
I8
tp125
a(S'w'
I5
tp126
a(S'p2_vo'
I9
tp127
a(S'w'
I1463
tp128
a(S'p1_vo'
I7
tp129
a(S'w'
I5
tp130
a(S'p2_vo'
I8
tp131
a(S'w'
I1462
tp132
a(S'p1_vo'
I5
tp133
a(S'w'
I5
tp134
a(S'p2_vo'
I6
tp135
a(S'w'
I5135
tp136
a(S'p1_tl'
I142
tp137
a(S'p1_ll'
I0
tp138
a(S'w'
I7
tp139
a(S'p2_tl'
I190
tp140
a(S'p2_ll'
I0
tp141
a(S'w'
I7
tp142
a(S'tr_ll'
I0
tp143
a(S'w'
I4
tp144
a(S'no_np'
I2
tp145
a(S'no_ll'
I1
tp146
a(S'w'
I713
tp147
a(S'p1_vo'
I12
tp148
a(S'w'
I5
tp149
a(S'p2_vo'
I14
tp150
a(S'w'
I1462
tp151
a(S'p1_vo'
I10
tp152
a(S'w'
I5
tp153
a(S'p2_vo'
I13
tp154
a(S'w'
I1463
tp155
a(S'p1_vo'
I9
tp156
a(S'w'
I5
tp157
a(S'p2_vo'
I10
tp158
a(S'w'
I732
tp159
a(S'p1_tl'
I106
tp160
a(S'p1_ll'
I0
tp161
a(S'w'
I7
tp162
a(S'p2_tl'
I142
tp163
a(S'p2_ll'
I0
tp164
a(S'w'
I7
tp165
a(S'tr_tl'
I83
tp166
a(S'tr_ll'
I0
tp167
a(S'w'
I6
tp168
a(S'no_np'
I3
tp169
a(S'no_ll'
I1
tp170
a(S'w'
I710
tp171
a(S'p1_vo'
I12
tp172
a(S'w'
I5
tp173
a(S'p2_vo'
I14
tp174
a(S'w'
I1463
tp175
a(S'p1_vo'
I10
tp176
a(S'w'
I5
tp177
a(S'p2_vo'
I13
tp178
a(S'w'
I1462
tp179
a(S'p1_vo'
I9
tp180
a(S'w'
I5
tp181
a(S'p2_vo'
I10
tp182
a(S'w'
I1463
tp183
a(S'p1_vo'
I8
tp184
a(S'w'
I5
tp185
a(S'p2_vo'
I9
tp186
a(S'w'
I1463
tp187
a(S'p1_vo'
I7
tp188
a(S'w'
I5
tp189
a(S'p2_vo'
I8
tp190
a(S'w'
I1462
tp191
a(S'p1_vo'
I5
tp192
a(S'w'
I5
tp193
a(S'p2_vo'
I6
tp194
a(S'w'
I5135
tp195
a(S'p1_tl'
I127
tp196
a(S'p1_ll'
I0
tp197
a(S'w'
I7
tp198
a(S'p2_tl'
I169
tp199
a(S'p2_ll'
I0
tp200
a(S'w'
I7
tp201
a(S'tr_ll'
I0
tp202
a(S'w'
I4
tp203
a(S'no_np'
I2
tp204
a(S'no_ll'
I1
tp205
a(S'w'
I713
tp206
a(S'p1_vo'
I12
tp207
a(S'w'
I5
tp208
a(S'p2_vo'
I14
tp209
a(S'w'
I1462
tp210
a(S'p1_vo'
I10
tp211
a(S'w'
I5
tp212
a(S'p2_vo'
I13
tp213
a(S'w'
I1463
tp214
a(S'p1_vo'
I9
tp215
a(S'w'
I5
tp216
a(S'p2_vo'
I10
tp217
a(S'w'
I732
tp218
a(S'p1_tl'
I95
tp219
a(S'p1_ll'
I0
tp220
a(S'w'
I7
tp221
a(S'p2_tl'
I127
tp222
a(S'p2_ll'
I0
tp223
a(S'w'
I7
tp224
a(S'tr_tl'
I64
tp225
a(S'tr_ll'
I0
tp226
a(S'w'
I6
tp227
a(S'no_np'
I3
tp228
a(S'no_ll'
I1
tp229
a(S'w'
I710
tp230
a(S'p1_vo'
I12
tp231
a(S'w'
I5
tp232
a(S'p2_vo'
I14
tp233
a(S'w'
I1463
tp234
a(S'p1_vo'
I10
tp235
a(S'w'
I5
tp236
a(S'p2_vo'
I13
tp237
a(S'w'
I1462
tp238
a(S'p1_vo'
I9
tp239
a(S'w'
I5
tp240
a(S'p2_vo'
I10
tp241
a(S'w'
I1463
tp242
a(S'p1_vo'
I8
tp243
a(S'w'
I5
tp244
a(S'p2_vo'
I9
tp245
a(S'w'
I1463
tp246
a(S'p1_vo'
I7
tp247
a(S'w'
I5
tp248
a(S'p2_vo'
I8
tp249
a(S'w'
I1462
tp250
a(S'p1_vo'
I5
tp251
a(S'w'
I5
tp252
a(S'p2_vo'
I6
tp253
a(S'w'
I5135
tp254
a(S'p1_tl'
I120
tp255
a(S'p1_ll'
I0
tp256
a(S'w'
I7
tp257
a(S'p2_tl'
I160
tp258
a(S'p2_ll'
I0
tp259
a(S'w'
I7
tp260
a(S'tr_ll'
I0
tp261
a(S'w'
I4
tp262
a(S'no_np'
I2
tp263
a(S'no_ll'
I1
tp264
a(S'w'
I713
tp265
a(S'p1_vo'
I12
tp266
a(S'w'
I5
tp267
a(S'p2_vo'
I14
tp268
a(S'w'
I1462
tp269
a(S'p1_vo'
I10
tp270
a(S'w'
I5
tp271
a(S'p2_vo'
I13
tp272
a(S'w'
I1463
tp273
a(S'p1_vo'
I9
tp274
a(S'w'
I5
tp275
a(S'p2_vo'
I10
tp276
a(S'w'
I732
tp277
a(S'p1_tl'
I84
tp278
a(S'p1_ll'
I0
tp279
a(S'w'
I7
tp280
a(S'p2_tl'
I112
tp281
a(S'p2_ll'
I0
tp282
a(S'w'
I7
tp283
a(S'tr_tl'
I29
tp284
a(S'tr_ll'
I0
tp285
a(S'w'
I6
tp286
a(S'no_np'
I3
tp287
a(S'no_ll'
I1
tp288
a(S'w'
I710
tp289
a(S'p1_vo'
I12
tp290
a(S'w'
I5
tp291
a(S'p2_vo'
I14
tp292
a(S'w'
I1463
tp293
a(S'p1_vo'
I10
tp294
a(S'w'
I5
tp295
a(S'p2_vo'
I13
tp296
a(S'w'
I1462
tp297
a(S'p1_vo'
I9
tp298
a(S'w'
I5
tp299
a(S'p2_vo'
I10
tp300
a(S'w'
I1463
tp301
a(S'p1_vo'
I8
tp302
a(S'w'
I5
tp303
a(S'p2_vo'
I9
tp304
a(S'w'
I1463
tp305
a(S'p1_vo'
I7
tp306
a(S'w'
I5
tp307
a(S'p2_vo'
I8
tp308
a(S'w'
I1462
tp309
a(S'p1_vo'
I5
tp310
a(S'w'
I5
tp311
a(S'p2_vo'
I6
tp312
a(S'w'
I732
tp313
a(S'no_np'
I2
tp314
a(S'w'
I1
tp315
a(S'no_ll'
I1
tp316
a(S'w'
I8804
tp317
a(S'no_ll'
I1
tp318
a(S'w'
I8806
tp319
a(S'no_ll'
I1
tp320
a(S'w'
I8805
tp321
a(S'no_np'
I3
tp322
a(S'no_ll'
I1
tp323
a(S'w'
I8806
tp324
a(S'p1_tl'
I106
tp325
a(S'w'
I1
tp326
a(S'p1_ll'
I0
tp327
a(S'w'
I7
tp328
a(S'p2_tl'
I142
tp329
a(S'p2_ll'
I0
tp330
a(S'w'
I6
tp331
a(S'tr_ll'
I0
tp332
a(S'w'
I5
tp333
a(S'no_np'
I5
tp334
a(S'no_ll'
I1
tp335
a(S'w'
I712
tp336
a(S'p1_vo'
I12
tp337
a(S'w'
I5
tp338
a(S'p2_vo'
I14
tp339
a(S'w'
I1462
tp340
a(S'p1_vo'
I10
tp341
a(S'w'
I5
tp342
a(S'p2_vo'
I13
tp343
a(S'w'
I1463
tp344
a(S'p1_vo'
I9
tp345
a(S'w'
I5
tp346
a(S'p2_vo'
I10
tp347
a(S'w'
I1463
tp348
a(S'p1_vo'
I8
tp349
a(S'w'
I5
tp350
a(S'p2_vo'
I9
tp351
a(S'w'
I1462
tp352
a(S'p1_vo'
I7
tp353
a(S'w'
I5
tp354
a(S'p2_vo'
I8
tp355
a(S'w'
I1463
tp356
a(S'p1_vo'
I5
tp357
a(S'w'
I5
tp358
a(S'p2_vo'
I6
tp359
a(S'w'
I732
tp360
a(S'p1_tl'
I95
tp361
a(S'p1_ll'
I0
tp362
a(S'w'
I7
tp363
a(S'p2_tl'
I127
tp364
a(S'p2_ll'
I0
tp365
a(S'w'
I7
tp366
a(S'tr_ll'
I0
tp367
a(S'w'
I4
tp368
a(S'no_ll'
I1
tp369
a(S'w'
I712
tp370
a(S'p1_vo'
I12
tp371
a(S'w'
I5
tp372
a(S'p2_vo'
I14
tp373
a(S'w'
I1463
tp374
a(S'p1_vo'
I10
tp375
a(S'w'
I5
tp376
a(S'p2_vo'
I13
tp377
a(S'w'
I1462
tp378
a(S'p1_vo'
I9
tp379
a(S'w'
I5
tp380
a(S'p2_vo'
I10
tp381
a(S'w'
I1463
tp382
a(S'p1_vo'
I8
tp383
a(S'w'
I5
tp384
a(S'p2_vo'
I9
tp385
a(S'w'
I1463
tp386
a(S'p1_vo'
I7
tp387
a(S'w'
I5
tp388
a(S'p2_vo'
I8
tp389
a(S'w'
I1462
tp390
a(S'p1_vo'
I5
tp391
a(S'w'
I5
tp392
a(S'p2_vo'
I6
tp393
a(S'w'
I733
tp394
a(S'p1_tl'
I84
tp395
a(S'p1_ll'
I0
tp396
a(S'w'
I7
tp397
a(S'p2_tl'
I112
tp398
a(S'p2_ll'
I0
tp399
a(S'w'
I7
tp400
a(S'tr_ll'
I0
tp401
a(S'w'
I4
tp402
a(S'no_ll'
I1
tp403
a(S'w'
I712
tp404
a(S'p1_vo'
I12
tp405
a(S'w'
I5
tp406
a(S'p2_vo'
I14
tp407
a(S'w'
I1462
tp408
a(S'p1_vo'
I10
tp409
a(S'w'
I5
tp410
a(S'p2_vo'
I13
tp411
a(S'w'
I1463
tp412
a(S'p1_vo'
I9
tp413
a(S'w'
I5
tp414
a(S'p2_vo'
I10
tp415
a(S'w'
I1463
tp416
a(S'p1_vo'
I8
tp417
a(S'w'
I5
tp418
a(S'p2_vo'
I9
tp419
a(S'w'
I1462
tp420
a(S'p1_vo'
I7
tp421
a(S'w'
I5
tp422
a(S'p2_vo'
I8
tp423
a(S'w'
I1463
tp424
a(S'p1_vo'
I5
tp425
a(S'w'
I5
tp426
a(S'p2_vo'
I6
tp427
a(S'w'
I732
tp428
a(S'p1_tl'
I80
tp429
a(S'p1_ll'
I0
tp430
a(S'w'
I7
tp431
a(S'p2_tl'
I106
tp432
a(S'w'
I1
tp433
a(S'p2_ll'
I0
tp434
a(S'w'
I6
tp435
a(S'tr_tl'
I213
tp436
a(S'w'
I1
tp437
a(S'tr_ll'
I0
tp438
a(S'tr_th'
I0
tp439
a(S'w'
I4
tp440
a(S'no_np'
I4
tp441
a(S'no_ll'
I1
tp442
a(S'w'
I711
tp443
a(S'p1_vo'
I12
tp444
a(S'w'
I5
tp445
a(S'p2_vo'
I14
tp446
a(S'w'
I1463
tp447
a(S'p1_vo'
I10
tp448
a(S'w'
I5
tp449
a(S'p2_vo'
I13
tp450
a(S'w'
I1462
tp451
a(S'p1_vo'
I9
tp452
a(S'w'
I5
tp453
a(S'p2_vo'
I10
tp454
a(S'w'
I732
tp455
a(S'no_np'
I3
tp456
a(S'w'
I1
tp457
a(S'no_ll'
I1
tp458
a(S'w'
I730
tp459
a(S'p1_vo'
I8
tp460
a(S'w'
I5
tp461
a(S'p2_vo'
I9
tp462
a(S'w'
I1463
tp463
a(S'p1_vo'
I7
tp464
a(S'w'
I5
tp465
a(S'p2_vo'
I8
tp466
a(S'w'
I1462
tp467
a(S'p1_vo'
I5
tp468
a(S'w'
I5
tp469
a(S'p2_vo'
I6
tp470
a(S'w'
I732
tp471
a(S'w'
I1
tp472
a(S'no_ll'
I1
tp473
a(S'w'
I4402
tp474
a(S'no_ll'
I1
tp475
a(S'w'
I4402
tp476
a(S'no_np'
I4
tp477
a(S'no_ll'
I1
tp478
a(S'w'
I4403
tp479
a(S'no_np'
I3
tp480
a(S'no_ll'
I1
tp481
a(S'w'
I4403
tp482
a(S'no_ll'
I1
tp483
a(S'w'
I4403
tp484
a(S'no_ll'
I1
tp485
a(S'w'
I4402
tp486
a(S'no_ll'
I1
tp487
a(S'w'
I17608
tp488
a(S'p1_du'
I0
tp489
a(S'p1_vo'
I0
tp490
a(S'w'
I4
tp491
a(S'p2_du'
I0
tp492
a(S'p2_vo'
I0
tp493
a(S'w'
I4
tp494
a(S'tr_lr'
I48
tp495
a(S'w'
I4
tp496
a(S'no_lh'
I1
tp497
a(S'no_cv'
I1
tp498
a(S'no_vo'
I0
tp499
a(S'w'
I57570
tp500
a.