(lp1
(S'clock'
p2
I1789773
tp3
a(S'fc_mo'
I1
tp4
a(S'ch_no'
I1
tp5
a(S'ch_tr'
I0
tp6
a(S'ch_p2'
I1
tp7
a(S'ch_p1'
I1
tp8
a(S'ch_no'
I1
tp9
a(S'ch_tr'
I1
tp10
a(S'ch_p2'
I1
tp11
a(S'ch_p1'
I1
tp12
a(S'p1_lh'
I1
tp13
a(S'p1_cv'
I1
tp14
a(S'p2_lh'
I1
tp15
a(S'p2_cv'
I1
tp16
a(S'no_lh'
I1
tp17
a(S'no_cv'
I1
tp18
a(S'p1_sp'
I7
tp19
a(S'p1_sn'
I1
tp20
a(S'p1_ss'
I7
tp21
a(S'p2_sp'
I7
tp22
a(S'p2_sn'
I1
tp23
a(S'p2_ss'
I7
tp24
a(S'ch_no'
I1
tp25
a(S'ch_tr'
I0
tp26
a(S'ch_p2'
I1
tp27
a(S'ch_p1'
I1
tp28
a(S'ch_no'
I1
tp29
a(S'ch_tr'
I1
tp30
a(S'ch_p2'
I1
tp31
a(S'ch_p1'
I1
tp32
a(S'w'
I22
tp33
a(S'p1_vo'
I13
tp34
a(S'w'
I8
tp35
a(S'p1_ll'
I1
tp36
a(S'w'
I2
tp37
a(S'p1_tl'
I190
tp38
a(S'w'
I22
tp39
a(S'p2_vo'
I10
tp40
a(S'w'
I8
tp41
a(S'p2_ll'
I1
tp42
a(S'w'
I2
tp43
a(S'p2_tl'
I226
tp44
a(S'w'
I679
tp45
a(S'p1_vo'
I5
tp46
a(S'w'
I10
tp47
a(S'p2_vo'
I6
tp48
a(S'w'
I724
tp49
a(S'p1_vo'
I4
tp50
a(S'w'
I10
tp51
a(S'p2_vo'
I5
tp52
a(S'w'
I727
tp53
a(S'p2_vo'
I4
tp54
a(S'w'
I731
tp55
a(S'p1_vo'
I3
tp56
a(S'w'
I1471
tp57
a(S'p2_vo'
I0
tp58
a(S'w'
I730
tp59
a(S'p1_vo'
I2
tp60
a(S'w'
I2935
tp61
a(S'p1_vo'
I1
tp62
a(S'w'
I742
tp63
a(S'p2_vo'
I10
tp64
a(S'w'
I8
tp65
a(S'p2_ll'
I1
tp66
a(S'p2_th'
I1
tp67
a(S'w'
I2
tp68
a(S'p2_tl'
I29
tp69
a(S'w'
I719
tp70
a(S'p2_vo'
I6
tp71
a(S'w'
I731
tp72
a(S'p1_vo'
I0
tp73
a(S'w'
I10
tp74
a(S'p2_vo'
I5
tp75
a(S'w'
I726
tp76
a(S'p2_vo'
I4
tp77
a(S'w'
I732
tp78
a(S'p1_vo'
I1
tp79
a(S'w'
I1474
tp80
a(S'p1_vo'
I13
tp81
a(S'w'
I9
tp82
a(S'p1_tl'
I254
tp83
a(S'w'
I11
tp84
a(S'p2_vo'
I0
tp85
a(S'w'
I707
tp86
a(S'p1_vo'
I5
tp87
a(S'w'
I733
tp88
a(S'p1_vo'
I4
tp89
a(S'w'
I1468
tp90
a(S'p1_vo'
I3
tp91
a(S'w'
I1474
tp92
a(S'p1_vo'
I13
tp93
a(S'w'
I8
tp94
a(S'p1_tl'
I226
tp95
a(S'w'
I15
tp96
a(S'p2_vo'
I10
tp97
a(S'w'
I9
tp98
a(S'p2_tl'
I125
tp99
a(S'w'
I695
tp100
a(S'p1_vo'
I5
tp101
a(S'w'
I10
tp102
a(S'p2_vo'
I6
tp103
a(S'w'
I724
tp104
a(S'p1_vo'
I4
tp105
a(S'w'
I10
tp106
a(S'p2_vo'
I5
tp107
a(S'w'
I727
tp108
a(S'p2_vo'
I4
tp109
a(S'w'
I731
tp110
a(S'p1_vo'
I3
tp111
a(S'w'
I1471
tp112
a(S'p2_vo'
I0
tp113
a(S'w'
I730
tp114
a(S'p1_vo'
I2
tp115
a(S'w'
I2935
tp116
a(S'p1_vo'
I1
tp117
a(S'w'
I742
tp118
a(S'p2_vo'
I10
tp119
a(S'w'
I8
tp120
a(S'p2_tl'
I171
tp121
a(S'w'
I721
tp122
a(S'p2_vo'
I6
tp123
a(S'w'
I731
tp124
a(S'p1_vo'
I0
tp125
a(S'w'
I10
tp126
a(S'p2_vo'
I5
tp127
a(S'w'
I726
tp128
a(S'p2_vo'
I4
tp129
a(S'w'
I732
tp130
a(S'p1_vo'
I1
tp131
a(S'w'
I1474
tp132
a(S'p1_vo'
I13
tp133
a(S'w'
I9
tp134
a(S'p1_tl'
I169
tp135
a(S'w'
I11
tp136
a(S'p2_vo'
I0
tp137
a(S'w'
I707
tp138
a(S'p1_vo'
I5
tp139
a(S'w'
I733
tp140
a(S'p1_vo'
I4
tp141
a(S'w'
I1468
tp142
a(S'p1_vo'
I3
tp143
a(S'w'
I1476
tp144
a(S'p1_vo'
I13
tp145
a(S'w'
I9
tp146
a(S'p1_tl'
I226
tp147
a(S'w'
I15
tp148
a(S'p2_vo'
I10
tp149
a(S'w'
I8
tp150
a(S'p2_tl'
I125
tp151
a(S'w'
I693
tp152
a(S'p1_vo'
I5
tp153
a(S'w'
I10
tp154
a(S'p2_vo'
I6
tp155
a(S'w'
I724
tp156
a(S'p1_vo'
I4
tp157
a(S'w'
I10
tp158
a(S'p2_vo'
I5
tp159
a(S'w'
I727
tp160
a(S'p2_vo'
I4
tp161
a(S'w'
I731
tp162
a(S'p1_vo'
I3
tp163
a(S'w'
I1471
tp164
a(S'p2_vo'
I0
tp165
a(S'w'
I730
tp166
a(S'p1_vo'
I2
tp167
a(S'w'
I2935
tp168
a(S'p1_vo'
I1
tp169
a(S'w'
I742
tp170
a(S'p2_vo'
I10
tp171
a(S'w'
I8
tp172
a(S'p2_tl'
I83
tp173
a(S'w'
I721
tp174
a(S'p2_vo'
I6
tp175
a(S'w'
I731
tp176
a(S'p1_vo'
I0
tp177
a(S'w'
I10
tp178
a(S'p2_vo'
I5
tp179
a(S'w'
I726
tp180
a(S'p2_vo'
I4
tp181
a(S'w'
I732
tp182
a(S'p1_vo'
I1
tp183
a(S'w'
I1472
tp184
a(S'p1_vo'
I13
tp185
a(S'w'
I8
tp186
a(S'p1_ll'
I1
tp187
a(S'p1_th'
I1
tp188
a(S'w'
I2
tp189
a(S'p1_tl'
I29
tp190
a(S'w'
I11
tp191
a(S'p2_vo'
I0
tp192
a(S'w'
I708
tp193
a(S'p1_vo'
I5
tp194
a(S'w'
I733
tp195
a(S'p1_vo'
I4
tp196
a(S'w'
I1468
tp197
a(S'p1_vo'
I3
tp198
a(S'w'
I1474
tp199
a(S'p1_vo'
I13
tp200
a(S'w'
I8
tp201
a(S'p1_tl'
I83
tp202
a(S'w'
I15
tp203
a(S'p2_vo'
I10
tp204
a(S'w'
I9
tp205
a(S'p2_tl'
I171
tp206
a(S'w'
I695
tp207
a(S'p1_vo'
I5
tp208
a(S'w'
I10
tp209
a(S'p2_vo'
I6
tp210
a(S'w'
I724
tp211
a(S'p1_vo'
I4
tp212
a(S'w'
I10
tp213
a(S'p2_vo'
I5
tp214
a(S'w'
I727
tp215
a(S'p2_vo'
I4
tp216
a(S'w'
I731
tp217
a(S'p1_vo'
I3
tp218
a(S'w'
I1471
tp219
a(S'p2_vo'
I0
tp220
a(S'w'
I730
tp221
a(S'p1_vo'
I2
tp222
a(S'w'
I2935
tp223
a(S'p1_vo'
I1
tp224
a(S'w'
I744
tp225
a(S'p2_vo'
I10
tp226
a(S'w'
I8
tp227
a(S'p2_tl'
I197
tp228
a(S'w'
I719
tp229
a(S'p2_vo'
I6
tp230
a(S'w'
I731
tp231
a(S'p1_vo'
I0
tp232
a(S'w'
I10
tp233
a(S'p2_vo'
I5
tp234
a(S'w'
I726
tp235
a(S'p2_vo'
I4
tp236
a(S'w'
I732
tp237
a(S'p1_vo'
I1
tp238
a(S'w'
I1472
tp239
a(S'p1_vo'
I13
tp240
a(S'w'
I9
tp241
a(S'p1_tl'
I125
tp242
a(S'w'
I10
tp243
a(S'p2_vo'
I0
tp244
a(S'w'
I710
tp245
a(S'p1_vo'
I5
tp246
a(S'w'
I733
tp247
a(S'p1_vo'
I4
tp248
a(S'w'
I1468
tp249
a(S'p1_vo'
I3
tp250
a(S'w'
I1473
tp251
a(S'p1_vo'
I13
tp252
a(S'w'
I9
tp253
a(S'p1_tl'
I64
tp254
a(S'w'
I18
tp255
a(S'p2_vo'
I10
tp256
a(S'w'
I8
tp257
a(S'p2_tl'
I103
tp258
a(S'w'
I693
tp259
a(S'p1_vo'
I5
tp260
a(S'w'
I10
tp261
a(S'p2_vo'
I6
tp262
a(S'w'
I724
tp263
a(S'p1_vo'
I4
tp264
a(S'w'
I10
tp265
a(S'p2_vo'
I5
tp266
a(S'w'
I727
tp267
a(S'p2_vo'
I4
tp268
a(S'w'
I731
tp269
a(S'p1_vo'
I3
tp270
a(S'w'
I2201
tp271
a(S'p1_vo'
I2
tp272
a(S'w'
I10
tp273
a(S'p2_vo'
I0
tp274
a(S'w'
I2194
tp275
a(S'p2_vo'
I1
tp276
a(S'w'
I731
tp277
a(S'p1_vo'
I1
tp278
a(S'w'
I739
tp279
a(S'p1_vo'
I13
tp280
a(S'w'
I9
tp281
a(S'w'
I15
tp282
a(S'p2_vo'
I10
tp283
a(S'w'
I9
tp284
a(S'w'
I696
tp285
a(S'p1_vo'
I5
tp286
a(S'w'
I10
tp287
a(S'p2_vo'
I6
tp288
a(S'w'
I724
tp289
a(S'p1_vo'
I4
tp290
a(S'w'
I10
tp291
a(S'p2_vo'
I5
tp292
a(S'w'
I726
tp293
a(S'p2_vo'
I4
tp294
a(S'w'
I731
tp295
a(S'p1_vo'
I3
tp296
a(S'w'
I2202
tp297
a(S'p1_vo'
I2
tp298
a(S'w'
I10
tp299
a(S'p2_vo'
I0
tp300
a(S'w'
I2194
tp301
a(S'p2_vo'
I1
tp302
a(S'w'
I731
tp303
a(S'p1_vo'
I1
tp304
a(S'w'
I735
tp305
a(S'p1_vo'
I0
tp306
a(S'w'
I12
tp307
a(S'p2_vo'
I0
tp308
a(S'w'
I8799
tp309
a(S'p1_vo'
I13
tp310
a(S'w'
I8
tp311
a(S'w'
I17
tp312
a(S'p2_vo'
I10
tp313
a(S'w'
I8
tp314
a(S'p2_tl'
I125
tp315
a(S'w'
I694
tp316
a(S'p1_vo'
I5
tp317
a(S'w'
I10
tp318
a(S'p2_vo'
I6
tp319
a(S'w'
I724
tp320
a(S'p1_vo'
I4
tp321
a(S'w'
I10
tp322
a(S'p2_vo'
I5
tp323
a(S'w'
I726
tp324
a(S'p2_vo'
I4
tp325
a(S'w'
I731
tp326
a(S'p1_vo'
I3
tp327
a(S'w'
I2202
tp328
a(S'p1_vo'
I2
tp329
a(S'w'
I10
tp330
a(S'p2_vo'
I0
tp331
a(S'w'
I2194
tp332
a(S'p2_vo'
I1
tp333
a(S'w'
I731
tp334
a(S'p1_vo'
I1
tp335
a(S'w'
I2201
tp336
a(S'p1_vo'
I0
tp337
a(S'w'
I1469
tp338
a(S'p1_vo'
I1
tp339
a(S'w'
I14673
tp340
a(S'p1_vo'
I0
tp341
a(S'w'
I8
tp342
a(S'p2_vo'
I0
tp343
a(S'w'
I44643
tp344
a.