(lp1
(S'clock'
p2
I1789772
tp3
a(S'p1_lh'
I1
tp4
a(S'p1_cv'
I1
tp5
a(S'p1_sp'
I7
tp6
a(S'p1_sn'
I1
tp7
a(S'p1_ss'
I7
tp8
a(S'p1_ll'
I0
tp9
a(S'p2_lh'
I1
tp10
a(S'p2_cv'
I1
tp11
a(S'p2_sp'
I7
tp12
a(S'p2_sn'
I1
tp13
a(S'p2_ss'
I7
tp14
a(S'p2_ll'
I0
tp15
a(S'tr_lr'
I48
tp16
a(S'tr_ll'
I0
tp17
a(S'no_lh'
I1
tp18
a(S'no_cv'
I1
tp19
a(S'ch_no'
I1
tp20
a(S'ch_tr'
I1
tp21
a(S'ch_p2'
I1
tp22
a(S'ch_p1'
I1
tp23
a(S'fc_mo'
I1
tp24
a(S'p1_du'
I1
tp25
a(S'p1_vo'
I3
tp26
a(S'p1_tl'
I170
tp27
a(S'p1_ll'
I0
tp28
a(S'w'
I1
tp29
a(S'p2_vo'
I2
tp30
a(S'p2_tl'
I254
tp31
a(S'w'
I1
tp32
a(S'p2_ll'
I0
tp33
a(S'tr_lh'
I1
tp34
a(S'tr_lr'
I15
tp35
a(S'tr_tl'
I202
tp36
a(S'w'
I1
tp37
a(S'tr_ll'
I0
tp38
a(S'w'
I731
tp39
a(S'p1_vo'
I14
tp40
a(S'p2_vo'
I11
tp41
a(S'w'
I734
tp42
a(S'p1_vo'
I13
tp43
a(S'p2_vo'
I10
tp44
a(S'w'
I733
tp45
a(S'p1_vo'
I12
tp46
a(S'w'
I1
tp47
a(S'p2_vo'
I9
tp48
a(S'w'
I733
tp49
a(S'p1_vo'
I11
tp50
a(S'w'
I1
tp51
a(S'p2_vo'
I8
tp52
a(S'w'
I733
tp53
a(S'p1_vo'
I10
tp54
a(S'w'
I1
tp55
a(S'p2_vo'
I7
tp56
a(S'w'
I733
tp57
a(S'p1_vo'
I9
tp58
a(S'p2_vo'
I6
tp59
a(S'w'
I734
tp60
a(S'p1_vo'
I8
tp61
a(S'p2_vo'
I5
tp62
a(S'w'
I733
tp63
a(S'p1_vo'
I9
tp64
a(S'w'
I1
tp65
a(S'p2_vo'
I4
tp66
a(S'w'
I733
tp67
a(S'p1_vo'
I10
tp68
a(S'w'
I1
tp69
a(S'p2_vo'
I5
tp70
a(S'w'
I733
tp71
a(S'p1_vo'
I11
tp72
a(S'w'
I1
tp73
a(S'p2_vo'
I6
tp74
a(S'w'
I733
tp75
a(S'p1_vo'
I12
tp76
a(S'p2_vo'
I7
tp77
a(S'w'
I734
tp78
a(S'p1_vo'
I11
tp79
a(S'p2_vo'
I8
tp80
a(S'w'
I733
tp81
a(S'p1_vo'
I10
tp82
a(S'w'
I1
tp83
a(S'p2_vo'
I7
tp84
a(S'w'
I733
tp85
a(S'p1_vo'
I9
tp86
a(S'w'
I1
tp87
a(S'p2_vo'
I6
tp88
a(S'w'
I733
tp89
a(S'p1_vo'
I8
tp90
a(S'w'
I1
tp91
a(S'p2_vo'
I5
tp92
a(S'w'
I733
tp93
a(S'p1_vo'
I7
tp94
a(S'p2_vo'
I4
tp95
a(S'w'
I734
tp96
a(S'p1_vo'
I6
tp97
a(S'p2_vo'
I5
tp98
a(S'w'
I733
tp99
a(S'p1_vo'
I15
tp100
a(S'w'
I1
tp101
a(S'p1_tl'
I190
tp102
a(S'p1_ll'
I0
tp103
a(S'w'
I1
tp104
a(S'p2_vo'
I6
tp105
a(S'w'
I732
tp106
a(S'p1_vo'
I14
tp107
a(S'w'
I1
tp108
a(S'p2_vo'
I7
tp109
a(S'w'
I733
tp110
a(S'p1_vo'
I13
tp111
a(S'w'
I1
tp112
a(S'p2_vo'
I8
tp113
a(S'w'
I733
tp114
a(S'p1_vo'
I12
tp115
a(S'p2_vo'
I7
tp116
a(S'w'
I734
tp117
a(S'p1_vo'
I11
tp118
a(S'p2_vo'
I6
tp119
a(S'w'
I733
tp120
a(S'p1_vo'
I10
tp121
a(S'w'
I1
tp122
a(S'p2_vo'
I5
tp123
a(S'w'
I733
tp124
a(S'p1_vo'
I9
tp125
a(S'w'
I1
tp126
a(S'p2_vo'
I4
tp127
a(S'w'
I733
tp128
a(S'p1_vo'
I8
tp129
a(S'w'
I1
tp130
a(S'p2_vo'
I5
tp131
a(S'w'
I733
tp132
a(S'p1_vo'
I9
tp133
a(S'p2_vo'
I6
tp134
a(S'w'
I734
tp135
a(S'p1_vo'
I10
tp136
a(S'p2_vo'
I7
tp137
a(S'w'
I733
tp138
a(S'p1_vo'
I11
tp139
a(S'w'
I1
tp140
a(S'p2_vo'
I8
tp141
a(S'w'
I733
tp142
a(S'p1_vo'
I12
tp143
a(S'w'
I1
tp144
a(S'p2_vo'
I9
tp145
a(S'w'
I733
tp146
a(S'p1_vo'
I11
tp147
a(S'w'
I1
tp148
a(S'p2_vo'
I10
tp149
a(S'w'
I733
tp150
a(S'p1_vo'
I10
tp151
a(S'p2_vo'
I11
tp152
a(S'w'
I734
tp153
a(S'p1_vo'
I9
tp154
a(S'w'
I733
tp155
a(S'p1_vo'
I8
tp156
a(S'w'
I734
tp157
a(S'p1_vo'
I7
tp158
a(S'w'
I734
tp159
a(S'p1_vo'
I6
tp160
a(S'w'
I734
tp161
a(S'p1_vo'
I15
tp162
a(S'p1_tl'
I202
tp163
a(S'p1_ll'
I0
tp164
a(S'w'
I2
tp165
a(S'tr_tl'
I170
tp166
a(S'tr_ll'
I0
tp167
a(S'w'
I732
tp168
a(S'p1_vo'
I14
tp169
a(S'w'
I733
tp170
a(S'p1_vo'
I13
tp171
a(S'w'
I734
tp172
a(S'p1_vo'
I12
tp173
a(S'w'
I734
tp174
a(S'p1_vo'
I11
tp175
a(S'w'
I734
tp176
a(S'p1_vo'
I10
tp177
a(S'w'
I734
tp178
a(S'p1_vo'
I9
tp179
a(S'w'
I733
tp180
a(S'p1_vo'
I8
tp181
a(S'w'
I734
tp182
a(S'p1_vo'
I9
tp183
a(S'w'
I734
tp184
a(S'p1_vo'
I10
tp185
a(S'w'
I734
tp186
a(S'p1_vo'
I11
tp187
a(S'w'
I734
tp188
a(S'p1_vo'
I12
tp189
a(S'w'
I733
tp190
a(S'p1_vo'
I11
tp191
a(S'w'
I734
tp192
a(S'p1_vo'
I10
tp193
a(S'w'
I734
tp194
a(S'p1_vo'
I9
tp195
a(S'w'
I734
tp196
a(S'p1_vo'
I8
tp197
a(S'w'
I734
tp198
a(S'p1_vo'
I7
tp199
a(S'w'
I733
tp200
a(S'p1_vo'
I6
tp201
a(S'w'
I734
tp202
a(S'p1_vo'
I15
tp203
a(S'w'
I1
tp204
a(S'p1_tl'
I170
tp205
a(S'p1_ll'
I0
tp206
a(S'w'
I733
tp207
a(S'p1_vo'
I14
tp208
a(S'w'
I734
tp209
a(S'p1_vo'
I13
tp210
a(S'w'
I734
tp211
a(S'p1_vo'
I12
tp212
a(S'w'
I733
tp213
a(S'p1_vo'
I11
tp214
a(S'w'
I734
tp215
a(S'p1_vo'
I10
tp216
a(S'w'
I734
tp217
a(S'p1_vo'
I9
tp218
a(S'w'
I734
tp219
a(S'p1_vo'
I8
tp220
a(S'w'
I734
tp221
a(S'p1_vo'
I9
tp222
a(S'w'
I733
tp223
a(S'p1_vo'
I10
tp224
a(S'w'
I734
tp225
a(S'p1_vo'
I11
tp226
a(S'w'
I734
tp227
a(S'p1_vo'
I12
tp228
a(S'w'
I734
tp229
a(S'p1_vo'
I11
tp230
a(S'w'
I734
tp231
a(S'p1_vo'
I10
tp232
a(S'w'
I733
tp233
a(S'p1_vo'
I9
tp234
a(S'w'
I734
tp235
a(S'p1_vo'
I8
tp236
a(S'w'
I734
tp237
a(S'p1_vo'
I7
tp238
a(S'w'
I734
tp239
a(S'p1_vo'
I6
tp240
a(S'w'
I734
tp241
a(S'p1_vo'
I15
tp242
a(S'p1_tl'
I190
tp243
a(S'p1_ll'
I0
tp244
a(S'w'
I1
tp245
a(S'p2_vo'
I12
tp246
a(S'p2_tl'
I29
tp247
a(S'p2_ll'
I0
tp248
a(S'p2_th'
I1
tp249
a(S'w'
I1
tp250
a(S'tr_tl'
I226
tp251
a(S'tr_ll'
I0
tp252
a(S'w'
I731
tp253
a(S'p1_vo'
I14
tp254
a(S'w'
I1
tp255
a(S'p2_vo'
I11
tp256
a(S'w'
I733
tp257
a(S'p1_vo'
I13
tp258
a(S'w'
I1
tp259
a(S'p2_vo'
I10
tp260
a(S'w'
I733
tp261
a(S'p1_vo'
I12
tp262
a(S'w'
I1
tp263
a(S'p2_vo'
I9
tp264
a(S'w'
I733
tp265
a(S'p1_vo'
I11
tp266
a(S'w'
I1
tp267
a(S'p2_vo'
I8
tp268
a(S'w'
I733
tp269
a(S'p1_vo'
I10
tp270
a(S'p2_vo'
I7
tp271
a(S'w'
I733
tp272
a(S'p1_vo'
I9
tp273
a(S'w'
I1
tp274
a(S'p2_vo'
I6
tp275
a(S'w'
I733
tp276
a(S'p1_vo'
I8
tp277
a(S'w'
I1
tp278
a(S'p2_vo'
I5
tp279
a(S'w'
I733
tp280
a(S'p1_vo'
I9
tp281
a(S'w'
I1
tp282
a(S'p2_vo'
I4
tp283
a(S'w'
I733
tp284
a(S'p1_vo'
I10
tp285
a(S'w'
I1
tp286
a(S'p2_vo'
I5
tp287
a(S'w'
I733
tp288
a(S'p1_vo'
I11
tp289
a(S'p2_vo'
I6
tp290
a(S'w'
I733
tp291
a(S'p1_vo'
I12
tp292
a(S'w'
I1
tp293
a(S'p2_vo'
I7
tp294
a(S'w'
I733
tp295
a(S'p1_vo'
I11
tp296
a(S'w'
I1
tp297
a(S'p2_vo'
I8
tp298
a(S'w'
I733
tp299
a(S'p1_vo'
I10
tp300
a(S'w'
I1
tp301
a(S'p2_vo'
I7
tp302
a(S'w'
I733
tp303
a(S'p1_vo'
I9
tp304
a(S'w'
I1
tp305
a(S'p2_vo'
I6
tp306
a(S'w'
I733
tp307
a(S'p1_vo'
I8
tp308
a(S'p2_vo'
I5
tp309
a(S'w'
I733
tp310
a(S'p1_vo'
I7
tp311
a(S'w'
I1
tp312
a(S'p2_vo'
I4
tp313
a(S'w'
I733
tp314
a(S'p1_vo'
I6
tp315
a(S'w'
I1
tp316
a(S'p2_vo'
I5
tp317
a(S'w'
I733
tp318
a(S'p1_vo'
I15
tp319
a(S'p1_tl'
I202
tp320
a(S'w'
I1
tp321
a(S'p1_ll'
I0
tp322
a(S'p2_vo'
I6
tp323
a(S'w'
I733
tp324
a(S'p1_vo'
I14
tp325
a(S'w'
I1
tp326
a(S'p2_vo'
I7
tp327
a(S'w'
I733
tp328
a(S'p1_vo'
I13
tp329
a(S'p2_vo'
I8
tp330
a(S'w'
I734
tp331
a(S'p1_vo'
I12
tp332
a(S'p2_vo'
I7
tp333
a(S'w'
I733
tp334
a(S'p1_vo'
I11
tp335
a(S'w'
I1
tp336
a(S'p2_vo'
I6
tp337
a(S'w'
I733
tp338
a(S'p1_vo'
I10
tp339
a(S'w'
I1
tp340
a(S'p2_vo'
I5
tp341
a(S'w'
I733
tp342
a(S'p1_vo'
I9
tp343
a(S'w'
I1
tp344
a(S'p2_vo'
I4
tp345
a(S'w'
I733
tp346
a(S'p1_vo'
I8
tp347
a(S'p2_vo'
I5
tp348
a(S'w'
I734
tp349
a(S'p1_vo'
I9
tp350
a(S'p2_vo'
I6
tp351
a(S'w'
I733
tp352
a(S'p1_vo'
I10
tp353
a(S'w'
I1
tp354
a(S'p2_vo'
I7
tp355
a(S'w'
I733
tp356
a(S'p1_vo'
I11
tp357
a(S'w'
I1
tp358
a(S'p2_vo'
I8
tp359
a(S'w'
I733
tp360
a(S'p1_vo'
I12
tp361
a(S'w'
I1
tp362
a(S'p2_vo'
I9
tp363
a(S'w'
I733
tp364
a(S'p1_vo'
I11
tp365
a(S'p2_vo'
I10
tp366
a(S'w'
I733
tp367
a(S'p1_vo'
I10
tp368
a(S'w'
I1
tp369
a(S'p2_vo'
I11
tp370
a(S'w'
I733
tp371
a(S'p1_vo'
I9
tp372
a(S'w'
I734
tp373
a(S'p1_vo'
I8
tp374
a(S'w'
I734
tp375
a(S'p1_vo'
I7
tp376
a(S'w'
I734
tp377
a(S'p1_vo'
I6
tp378
a(S'w'
I734
tp379
a(S'p1_vo'
I15
tp380
a(S'p1_tl'
I226
tp381
a(S'p1_ll'
I0
tp382
a(S'w'
I1
tp383
a(S'tr_tl'
I190
tp384
a(S'w'
I1
tp385
a(S'tr_ll'
I0
tp386
a(S'w'
I731
tp387
a(S'p1_vo'
I14
tp388
a(S'w'
I734
tp389
a(S'p1_vo'
I13
tp390
a(S'w'
I734
tp391
a(S'p1_vo'
I12
tp392
a(S'w'
I734
tp393
a(S'p1_vo'
I11
tp394
a(S'w'
I734
tp395
a(S'p1_vo'
I10
tp396
a(S'w'
I733
tp397
a(S'p1_vo'
I9
tp398
a(S'w'
I734
tp399
a(S'p1_vo'
I8
tp400
a(S'w'
I734
tp401
a(S'p1_vo'
I9
tp402
a(S'w'
I734
tp403
a(S'p1_vo'
I10
tp404
a(S'w'
I734
tp405
a(S'p1_vo'
I11
tp406
a(S'w'
I733
tp407
a(S'p1_vo'
I12
tp408
a(S'w'
I734
tp409
a(S'p1_vo'
I11
tp410
a(S'w'
I734
tp411
a(S'p1_vo'
I10
tp412
a(S'w'
I734
tp413
a(S'p1_vo'
I9
tp414
a(S'w'
I734
tp415
a(S'p1_vo'
I8
tp416
a(S'w'
I733
tp417
a(S'p1_vo'
I7
tp418
a(S'w'
I734
tp419
a(S'p1_vo'
I6
tp420
a(S'w'
I734
tp421
a(S'p1_vo'
I15
tp422
a(S'p1_tl'
I190
tp423
a(S'p1_ll'
I0
tp424
a(S'w'
I734
tp425
a(S'p1_vo'
I14
tp426
a(S'w'
I734
tp427
a(S'p1_vo'
I13
tp428
a(S'w'
I733
tp429
a(S'p1_vo'
I12
tp430
a(S'w'
I734
tp431
a(S'p1_vo'
I11
tp432
a(S'w'
I734
tp433
a(S'p1_vo'
I10
tp434
a(S'w'
I734
tp435
a(S'p1_vo'
I9
tp436
a(S'w'
I734
tp437
a(S'p1_vo'
I8
tp438
a(S'w'
I733
tp439
a(S'p1_vo'
I9
tp440
a(S'w'
I734
tp441
a(S'p1_vo'
I10
tp442
a(S'w'
I734
tp443
a(S'p1_vo'
I11
tp444
a(S'w'
I734
tp445
a(S'p1_vo'
I12
tp446
a(S'w'
I734
tp447
a(S'p1_vo'
I11
tp448
a(S'w'
I733
tp449
a(S'p1_vo'
I10
tp450
a(S'w'
I734
tp451
a(S'p1_vo'
I9
tp452
a(S'w'
I734
tp453
a(S'p1_vo'
I8
tp454
a(S'w'
I734
tp455
a(S'p1_vo'
I7
tp456
a(S'w'
I734
tp457
a(S'p1_vo'
I6
tp458
a(S'w'
I733
tp459
a(S'p1_vo'
I12
tp460
a(S'w'
I1
tp461
a(S'p1_tl'
I254
tp462
a(S'p1_ll'
I0
tp463
a(S'w'
I1
tp464
a(S'p2_vo'
I12
tp465
a(S'p2_tl'
I171
tp466
a(S'p2_ll'
I0
tp467
a(S'w'
I1
tp468
a(S'tr_tl'
I64
tp469
a(S'tr_ll'
I0
tp470
a(S'tr_th'
I1
tp471
a(S'w'
I731
tp472
a(S'p1_vo'
I11
tp473
a(S'w'
I1
tp474
a(S'p2_vo'
I11
tp475
a(S'w'
I733
tp476
a(S'p1_vo'
I10
tp477
a(S'w'
I1
tp478
a(S'p2_vo'
I10
tp479
a(S'w'
I733
tp480
a(S'p1_vo'
I9
tp481
a(S'p2_vo'
I9
tp482
a(S'w'
I734
tp483
a(S'p1_vo'
I8
tp484
a(S'p2_vo'
I8
tp485
a(S'w'
I733
tp486
a(S'p1_vo'
I7
tp487
a(S'w'
I1
tp488
a(S'p2_vo'
I7
tp489
a(S'w'
I733
tp490
a(S'p1_vo'
I6
tp491
a(S'w'
I1
tp492
a(S'p2_vo'
I6
tp493
a(S'w'
I733
tp494
a(S'p1_vo'
I5
tp495
a(S'w'
I1
tp496
a(S'p2_vo'
I5
tp497
a(S'w'
I733
tp498
a(S'p1_vo'
I4
tp499
a(S'p2_vo'
I4
tp500
a(S'w'
I734
tp501
a(S'p1_vo'
I5
tp502
a(S'p2_vo'
I5
tp503
a(S'w'
I733
tp504
a(S'p1_vo'
I6
tp505
a(S'w'
I1
tp506
a(S'p2_vo'
I6
tp507
a(S'w'
I733
tp508
a(S'p1_vo'
I7
tp509
a(S'w'
I1
tp510
a(S'p2_vo'
I7
tp511
a(S'w'
I733
tp512
a(S'p1_vo'
I8
tp513
a(S'w'
I1
tp514
a(S'p2_vo'
I8
tp515
a(S'w'
I733
tp516
a(S'p1_vo'
I7
tp517
a(S'p2_vo'
I7
tp518
a(S'w'
I734
tp519
a(S'p1_vo'
I6
tp520
a(S'p2_vo'
I6
tp521
a(S'w'
I733
tp522
a(S'p1_vo'
I5
tp523
a(S'w'
I1
tp524
a(S'p2_vo'
I5
tp525
a(S'w'
I733
tp526
a(S'p1_vo'
I4
tp527
a(S'w'
I1
tp528
a(S'p2_vo'
I4
tp529
a(S'w'
I733
tp530
a(S'p1_vo'
I5
tp531
a(S'w'
I1
tp532
a(S'p2_vo'
I5
tp533
a(S'w'
I733
tp534
a(S'p1_vo'
I6
tp535
a(S'w'
I1
tp536
a(S'p2_vo'
I6
tp537
a(S'w'
I733
tp538
a(S'p1_vo'
I7
tp539
a(S'p2_vo'
I7
tp540
a(S'w'
I733
tp541
a(S'p1_vo'
I8
tp542
a(S'w'
I1
tp543
a(S'p2_vo'
I8
tp544
a(S'w'
I733
tp545
a(S'p1_vo'
I7
tp546
a(S'w'
I1
tp547
a(S'p2_vo'
I7
tp548
a(S'w'
I733
tp549
a(S'p1_vo'
I6
tp550
a(S'w'
I1
tp551
a(S'p2_vo'
I6
tp552
a(S'w'
I733
tp553
a(S'p1_vo'
I5
tp554
a(S'w'
I1
tp555
a(S'p2_vo'
I5
tp556
a(S'w'
I733
tp557
a(S'p1_vo'
I4
tp558
a(S'p2_vo'
I4
tp559
a(S'w'
I733
tp560
a(S'p1_vo'
I5
tp561
a(S'w'
I1
tp562
a(S'p2_vo'
I5
tp563
a(S'w'
I733
tp564
a(S'p1_vo'
I6
tp565
a(S'w'
I1
tp566
a(S'p2_vo'
I6
tp567
a(S'w'
I733
tp568
a(S'p1_vo'
I7
tp569
a(S'w'
I1
tp570
a(S'p2_vo'
I7
tp571
a(S'w'
I733
tp572
a(S'p1_vo'
I8
tp573
a(S'w'
I1
tp574
a(S'p2_vo'
I8
tp575
a(S'w'
I733
tp576
a(S'p1_vo'
I9
tp577
a(S'p2_vo'
I9
tp578
a(S'w'
I733
tp579
a(S'p1_vo'
I10
tp580
a(S'w'
I1
tp581
a(S'p2_vo'
I10
tp582
a(S'w'
I733
tp583
a(S'p1_vo'
I11
tp584
a(S'w'
I1
tp585
a(S'p2_vo'
I11
tp586
a(S'w'
I6603
tp587
a(S'p1_vo'
I12
tp588
a(S'w'
I1
tp589
a(S'p1_tl'
I226
tp590
a(S'p1_ll'
I0
tp591
a(S'w'
I1
tp592
a(S'p2_vo'
I12
tp593
a(S'p2_tl'
I125
tp594
a(S'p2_ll'
I0
tp595
a(S'w'
I1
tp596
a(S'tr_tl'
I29
tp597
a(S'tr_ll'
I0
tp598
a(S'w'
I731
tp599
a(S'p1_vo'
I11
tp600
a(S'w'
I1
tp601
a(S'p2_vo'
I11
tp602
a(S'w'
I733
tp603
a(S'p1_vo'
I10
tp604
a(S'w'
I1
tp605
a(S'p2_vo'
I10
tp606
a(S'w'
I733
tp607
a(S'p1_vo'
I9
tp608
a(S'w'
I1
tp609
a(S'p2_vo'
I9
tp610
a(S'w'
I733
tp611
a(S'p1_vo'
I8
tp612
a(S'p2_vo'
I8
tp613
a(S'w'
I733
tp614
a(S'p1_vo'
I7
tp615
a(S'w'
I1
tp616
a(S'p2_vo'
I7
tp617
a(S'w'
I733
tp618
a(S'p1_vo'
I6
tp619
a(S'w'
I1
tp620
a(S'p2_vo'
I6
tp621
a(S'w'
I733
tp622
a(S'p1_vo'
I5
tp623
a(S'w'
I1
tp624
a(S'p2_vo'
I5
tp625
a(S'w'
I733
tp626
a(S'p1_vo'
I4
tp627
a(S'w'
I1
tp628
a(S'p2_vo'
I4
tp629
a(S'w'
I733
tp630
a(S'p1_vo'
I5
tp631
a(S'p2_vo'
I5
tp632
a(S'w'
I733
tp633
a(S'p1_vo'
I6
tp634
a(S'w'
I1
tp635
a(S'p2_vo'
I6
tp636
a(S'w'
I733
tp637
a(S'p1_vo'
I7
tp638
a(S'w'
I1
tp639
a(S'p2_vo'
I7
tp640
a(S'w'
I733
tp641
a(S'p1_vo'
I8
tp642
a(S'w'
I1
tp643
a(S'p2_vo'
I8
tp644
a(S'w'
I733
tp645
a(S'p1_vo'
I7
tp646
a(S'w'
I1
tp647
a(S'p2_vo'
I7
tp648
a(S'w'
I733
tp649
a(S'p1_vo'
I6
tp650
a(S'p2_vo'
I6
tp651
a(S'w'
I733
tp652
a(S'p1_vo'
I5
tp653
a(S'w'
I1
tp654
a(S'p2_vo'
I5
tp655
a(S'w'
I733
tp656
a(S'p1_vo'
I4
tp657
a(S'w'
I1
tp658
a(S'p2_vo'
I4
tp659
a(S'w'
I733
tp660
a(S'p1_vo'
I5
tp661
a(S'w'
I1
tp662
a(S'p2_vo'
I5
tp663
a(S'w'
I733
tp664
a(S'p1_vo'
I6
tp665
a(S'w'
I1
tp666
a(S'p2_vo'
I6
tp667
a(S'w'
I733
tp668
a(S'p1_vo'
I7
tp669
a(S'p2_vo'
I7
tp670
a(S'w'
I733
tp671
a(S'p1_vo'
I8
tp672
a(S'w'
I1
tp673
a(S'p2_vo'
I8
tp674
a(S'w'
I733
tp675
a(S'p1_vo'
I7
tp676
a(S'w'
I1
tp677
a(S'p2_vo'
I7
tp678
a(S'w'
I733
tp679
a(S'p1_vo'
I6
tp680
a(S'w'
I1
tp681
a(S'p2_vo'
I6
tp682
a(S'w'
I733
tp683
a(S'p1_vo'
I5
tp684
a(S'w'
I1
tp685
a(S'p2_vo'
I5
tp686
a(S'w'
I733
tp687
a(S'p1_vo'
I4
tp688
a(S'p2_vo'
I4
tp689
a(S'w'
I734
tp690
a(S'p1_vo'
I5
tp691
a(S'p2_vo'
I5
tp692
a(S'w'
I733
tp693
a(S'p1_vo'
I6
tp694
a(S'w'
I1
tp695
a(S'p2_vo'
I6
tp696
a(S'w'
I733
tp697
a(S'p1_vo'
I7
tp698
a(S'w'
I1
tp699
a(S'p2_vo'
I7
tp700
a(S'w'
I733
tp701
a(S'p1_vo'
I8
tp702
a(S'w'
I1
tp703
a(S'p2_vo'
I8
tp704
a(S'w'
I733
tp705
a(S'p1_vo'
I9
tp706
a(S'p2_vo'
I9
tp707
a(S'w'
I734
tp708
a(S'p1_vo'
I10
tp709
a(S'p2_vo'
I10
tp710
a(S'w'
I733
tp711
a(S'p1_vo'
I11
tp712
a(S'w'
I1
tp713
a(S'p2_vo'
I11
tp714
a(S'w'
I12474
tp715
a(S'p1_vo'
I12
tp716
a(S'p1_tl'
I202
tp717
a(S'p1_ll'
I0
tp718
a(S'w'
I1
tp719
a(S'p2_vo'
I12
tp720
a(S'p2_tl'
I83
tp721
a(S'w'
I1
tp722
a(S'p2_ll'
I0
tp723
a(S'tr_tl'
I254
tp724
a(S'tr_ll'
I0
tp725
a(S'tr_th'
I0
tp726
a(S'w'
I732
tp727
a(S'p1_vo'
I11
tp728
a(S'p2_vo'
I11
tp729
a(S'w'
I734
tp730
a(S'p1_vo'
I10
tp731
a(S'p2_vo'
I10
tp732
a(S'w'
I733
tp733
a(S'p1_vo'
I9
tp734
a(S'w'
I1
tp735
a(S'p2_vo'
I9
tp736
a(S'w'
I733
tp737
a(S'p1_vo'
I8
tp738
a(S'w'
I1
tp739
a(S'p2_vo'
I8
tp740
a(S'w'
I733
tp741
a(S'p1_vo'
I7
tp742
a(S'w'
I1
tp743
a(S'p2_vo'
I7
tp744
a(S'w'
I733
tp745
a(S'p1_vo'
I6
tp746
a(S'p2_vo'
I6
tp747
a(S'w'
I734
tp748
a(S'p1_vo'
I5
tp749
a(S'p2_vo'
I5
tp750
a(S'w'
I733
tp751
a(S'p1_vo'
I4
tp752
a(S'w'
I1
tp753
a(S'p2_vo'
I4
tp754
a(S'w'
I733
tp755
a(S'p1_vo'
I5
tp756
a(S'w'
I1
tp757
a(S'p2_vo'
I5
tp758
a(S'w'
I733
tp759
a(S'p1_vo'
I6
tp760
a(S'w'
I1
tp761
a(S'p2_vo'
I6
tp762
a(S'w'
I733
tp763
a(S'p1_vo'
I7
tp764
a(S'p2_vo'
I7
tp765
a(S'w'
I734
tp766
a(S'p1_vo'
I8
tp767
a(S'p2_vo'
I8
tp768
a(S'w'
I733
tp769
a(S'p1_vo'
I7
tp770
a(S'w'
I1
tp771
a(S'p2_vo'
I7
tp772
a(S'w'
I733
tp773
a(S'p1_vo'
I6
tp774
a(S'w'
I1
tp775
a(S'p2_vo'
I6
tp776
a(S'w'
I733
tp777
a(S'p1_vo'
I5
tp778
a(S'w'
I1
tp779
a(S'p2_vo'
I5
tp780
a(S'w'
I733
tp781
a(S'p1_vo'
I4
tp782
a(S'p2_vo'
I4
tp783
a(S'w'
I734
tp784
a(S'p1_vo'
I5
tp785
a(S'p2_vo'
I5
tp786
a(S'w'
I733
tp787
a(S'p1_vo'
I6
tp788
a(S'w'
I1
tp789
a(S'p2_vo'
I6
tp790
a(S'w'
I733
tp791
a(S'p1_vo'
I7
tp792
a(S'w'
I1
tp793
a(S'p2_vo'
I7
tp794
a(S'w'
I733
tp795
a(S'p1_vo'
I8
tp796
a(S'w'
I1
tp797
a(S'p2_vo'
I8
tp798
a(S'w'
I733
tp799
a(S'p1_vo'
I7
tp800
a(S'p2_vo'
I7
tp801
a(S'w'
I734
tp802
a(S'p1_vo'
I6
tp803
a(S'p2_vo'
I6
tp804
a(S'w'
I733
tp805
a(S'p1_vo'
I5
tp806
a(S'w'
I1
tp807
a(S'p2_vo'
I5
tp808
a(S'w'
I733
tp809
a(S'p1_vo'
I4
tp810
a(S'w'
I1
tp811
a(S'p2_vo'
I4
tp812
a(S'w'
I733
tp813
a(S'p1_vo'
I5
tp814
a(S'w'
I1
tp815
a(S'p2_vo'
I5
tp816
a(S'w'
I733
tp817
a(S'p1_vo'
I6
tp818
a(S'p2_vo'
I6
tp819
a(S'w'
I734
tp820
a(S'p1_vo'
I7
tp821
a(S'p2_vo'
I7
tp822
a(S'w'
I733
tp823
a(S'p1_vo'
I8
tp824
a(S'w'
I1
tp825
a(S'p2_vo'
I8
tp826
a(S'w'
I733
tp827
a(S'p1_vo'
I9
tp828
a(S'w'
I1
tp829
a(S'p2_vo'
I9
tp830
a(S'w'
I733
tp831
a(S'p1_vo'
I10
tp832
a(S'w'
I1
tp833
a(S'p2_vo'
I10
tp834
a(S'w'
I733
tp835
a(S'p1_vo'
I11
tp836
a(S'p2_vo'
I11
tp837
a(S'w'
I30085
tp838
a(S'p1_vo'
I0
tp839
a(S'w'
I1
tp840
a(S'p2_du'
I1
tp841
a(S'p2_vo'
I0
tp842
a(S'tr_lh'
I0
tp843
a(S'tr_lr'
I112
tp844
a(S'w'
I4644
tp845
a.