(lp1
(S'clock'
p2
I1789772
tp3
a(S'p1_lh'
I1
tp4
a(S'p1_cv'
I1
tp5
a(S'p1_sn'
I1
tp6
a(S'p1_tl'
I58
tp7
a(S'p1_ll'
I0
tp8
a(S'p1_th'
I2
tp9
a(S'p2_lh'
I1
tp10
a(S'p2_cv'
I1
tp11
a(S'p2_sn'
I1
tp12
a(S'p2_tl'
I250
tp13
a(S'p2_ll'
I0
tp14
a(S'p2_th'
I2
tp15
a(S'tr_lh'
I1
tp16
a(S'no_lh'
I1
tp17
a(S'no_cv'
I1
tp18
a(S'ch_no'
I1
tp19
a(S'ch_tr'
I1
tp20
a(S'ch_p2'
I1
tp21
a(S'ch_p1'
I1
tp22
a(S'fc_mo'
I1
tp23
a(S'ch_no'
I0
tp24
a(S'ch_tr'
I0
tp25
a(S'ch_p2'
I0
tp26
a(S'ch_p1'
I0
tp27
a(S'w'
I742
tp28
a(S'ch_no'
I1
tp29
a(S'ch_tr'
I1
tp30
a(S'ch_p2'
I1
tp31
a(S'ch_p1'
I1
tp32
a(S'w'
I1
tp33
a(S'p1_du'
I1
tp34
a(S'p1_vo'
I15
tp35
a(S'w'
I1
tp36
a(S'p1_tl'
I251
tp37
a(S'p1_ll'
I0
tp38
a(S'p1_th'
I1
tp39
a(S'w'
I2
tp40
a(S'p2_du'
I1
tp41
a(S'p2_vo'
I12
tp42
a(S'p2_tl'
I85
tp43
a(S'w'
I1
tp44
a(S'p2_ll'
I0
tp45
a(S'p2_th'
I3
tp46
a(S'w'
I1441
tp47
a(S'p1_vo'
I14
tp48
a(S'w'
I2
tp49
a(S'p2_vo'
I11
tp50
a(S'w'
I1477
tp51
a(S'p1_vo'
I15
tp52
a(S'w'
I1
tp53
a(S'p1_tl'
I170
tp54
a(S'p1_ll'
I0
tp55
a(S'w'
I1
tp56
a(S'p2_vo'
I12
tp57
a(S'w'
I1
tp58
a(S'p2_tl'
I128
tp59
a(S'w'
I1
tp60
a(S'p2_ll'
I0
tp61
a(S'p2_th'
I2
tp62
a(S'w'
I1452
tp63
a(S'p1_vo'
I14
tp64
a(S'w'
I2
tp65
a(S'p2_vo'
I11
tp66
a(S'w'
I742
tp67
a(S'p1_vo'
I15
tp68
a(S'w'
I1
tp69
a(S'p1_tl'
I63
tp70
a(S'p1_ll'
I0
tp71
a(S'w'
I2
tp72
a(S'p2_vo'
I12
tp73
a(S'p2_tl'
I251
tp74
a(S'w'
I1
tp75
a(S'p2_ll'
I0
tp76
a(S'p2_th'
I1
tp77
a(S'w'
I1454
tp78
a(S'p1_vo'
I14
tp79
a(S'w'
I2
tp80
a(S'p2_vo'
I11
tp81
a(S'w'
I1477
tp82
a(S'p1_vo'
I15
tp83
a(S'p1_tl'
I253
tp84
a(S'w'
I1
tp85
a(S'p1_ll'
I0
tp86
a(S'p1_th'
I0
tp87
a(S'w'
I1
tp88
a(S'p2_vo'
I12
tp89
a(S'w'
I1
tp90
a(S'p2_tl'
I170
tp91
a(S'p2_ll'
I0
tp92
a(S'w'
I1453
tp93
a(S'p1_vo'
I14
tp94
a(S'w'
I2
tp95
a(S'p2_vo'
I11
tp96
a(S'w'
I764
tp97
a(S'p1_vo'
I15
tp98
a(S'w'
I1
tp99
a(S'p1_tl'
I213
tp100
a(S'p1_ll'
I0
tp101
a(S'w'
I1
tp102
a(S'p2_vo'
I12
tp103
a(S'w'
I1
tp104
a(S'p2_tl'
I63
tp105
a(S'p2_ll'
I0
tp106
a(S'w'
I2
tp107
a(S'tr_lr'
I112
tp108
a(S'tr_tl'
I253
tp109
a(S'w'
I1
tp110
a(S'tr_ll'
I0
tp111
a(S'w'
I699
tp112
a(S'p1_vo'
I6
tp113
a(S'w'
I1
tp114
a(S'p2_vo'
I4
tp115
a(S'w'
I727
tp116
a(S'p1_vo'
I8
tp117
a(S'w'
I2
tp118
a(S'p2_vo'
I6
tp119
a(S'w'
I737
tp120
a(S'p1_vo'
I9
tp121
a(S'w'
I2
tp122
a(S'p2_vo'
I7
tp123
a(S'w'
I732
tp124
a(S'p1_vo'
I10
tp125
a(S'w'
I2
tp126
a(S'p2_vo'
I8
tp127
a(S'w'
I732
tp128
a(S'p1_vo'
I11
tp129
a(S'w'
I734
tp130
a(S'p1_vo'
I12
tp131
a(S'w'
I1
tp132
a(S'p2_vo'
I9
tp133
a(S'w'
I732
tp134
a(S'p1_vo'
I13
tp135
a(S'w'
I2
tp136
a(S'p2_vo'
I10
tp137
a(S'w'
I732
tp138
a(S'p1_vo'
I14
tp139
a(S'w'
I2
tp140
a(S'p2_vo'
I11
tp141
a(S'w'
I726
tp142
a(S'p1_vo'
I15
tp143
a(S'w'
I2
tp144
a(S'p2_vo'
I12
tp145
a(S'w'
I1472
tp146
a(S'p1_vo'
I14
tp147
a(S'w'
I1
tp148
a(S'p2_vo'
I11
tp149
a(S'w'
I1466
tp150
a(S'p1_vo'
I13
tp151
a(S'w'
I2
tp152
a(S'p2_vo'
I10
tp153
a(S'w'
I1472
tp154
a(S'p1_vo'
I14
tp155
a(S'w'
I1
tp156
a(S'p1_tl'
I212
tp157
a(S'w'
I1
tp158
a(S'p2_vo'
I11
tp159
a(S'w'
I1
tp160
a(S'p2_tl'
I62
tp161
a(S'w'
I1
tp162
a(S'tr_lr'
I118
tp163
a(S'w'
I1452
tp164
a(S'p1_vo'
I15
tp165
a(S'w'
I2
tp166
a(S'p2_vo'
I12
tp167
a(S'w'
I1477
tp168
a(S'p1_vo'
I14
tp169
a(S'w'
I1
tp170
a(S'p1_tl'
I213
tp171
a(S'w'
I1
tp172
a(S'p2_vo'
I11
tp173
a(S'w'
I1
tp174
a(S'p2_tl'
I63
tp175
a(S'w'
I1
tp176
a(S'tr_lr'
I112
tp177
a(S'w'
I1458
tp178
a(S'p1_vo'
I13
tp179
a(S'w'
I1
tp180
a(S'p2_vo'
I10
tp181
a(S'w'
I1476
tp182
a(S'p1_vo'
I14
tp183
a(S'w'
I1
tp184
a(S'p1_tl'
I212
tp185
a(S'w'
I1
tp186
a(S'p2_vo'
I11
tp187
a(S'w'
I1
tp188
a(S'p2_tl'
I62
tp189
a(S'w'
I1
tp190
a(S'tr_lr'
I115
tp191
a(S'w'
I1454
tp192
a(S'p1_vo'
I15
tp193
a(S'w'
I2
tp194
a(S'p2_vo'
I12
tp195
a(S'w'
I1472
tp196
a(S'p1_vo'
I14
tp197
a(S'p1_tl'
I213
tp198
a(S'w'
I2
tp199
a(S'p2_vo'
I11
tp200
a(S'p2_tl'
I63
tp201
a(S'w'
I2
tp202
a(S'tr_lr'
I112
tp203
a(S'w'
I746
tp204
a(S'p1_vo'
I15
tp205
a(S'w'
I1
tp206
a(S'p1_ll'
I0
tp207
a(S'w'
I1
tp208
a(S'p2_vo'
I12
tp209
a(S'w'
I1
tp210
a(S'p2_tl'
I253
tp211
a(S'w'
I1
tp212
a(S'p2_ll'
I0
tp213
a(S'p2_th'
I0
tp214
a(S'w'
I1
tp215
a(S'tr_tl'
I213
tp216
a(S'w'
I1
tp217
a(S'tr_ll'
I0
tp218
a(S'w'
I705
tp219
a(S'p1_vo'
I6
tp220
a(S'w'
I2
tp221
a(S'p2_vo'
I4
tp222
a(S'w'
I732
tp223
a(S'p1_vo'
I8
tp224
a(S'w'
I2
tp225
a(S'p2_vo'
I6
tp226
a(S'w'
I732
tp227
a(S'p1_vo'
I9
tp228
a(S'w'
I1
tp229
a(S'p2_vo'
I7
tp230
a(S'w'
I727
tp231
a(S'p1_vo'
I10
tp232
a(S'w'
I2
tp233
a(S'p2_vo'
I8
tp234
a(S'w'
I734
tp235
a(S'p1_vo'
I0
tp236
a(S'w'
I2
tp237
a(S'p2_vo'
I0
tp238
a(S'w'
I2
tp239
a(S'tr_lr'
I0
tp240
a(S'w'
I2958
tp241
a(S'p1_vo'
I15
tp242
a(S'w'
I1
tp243
a(S'p1_ll'
I0
tp244
a(S'w'
I2
tp245
a(S'p2_vo'
I12
tp246
a(S'p2_tl'
I28
tp247
a(S'w'
I1
tp248
a(S'p2_ll'
I0
tp249
a(S'p2_th'
I1
tp250
a(S'w'
I1
tp251
a(S'tr_lr'
I112
tp252
a(S'w'
I1
tp253
a(S'tr_tl'
I239
tp254
a(S'tr_ll'
I0
tp255
a(S'w'
I704
tp256
a(S'p1_vo'
I6
tp257
a(S'w'
I2
tp258
a(S'p2_vo'
I4
tp259
a(S'w'
I726
tp260
a(S'p1_vo'
I8
tp261
a(S'w'
I2
tp262
a(S'p2_vo'
I6
tp263
a(S'w'
I738
tp264
a(S'p1_vo'
I9
tp265
a(S'w'
I2
tp266
a(S'p2_vo'
I7
tp267
a(S'w'
I732
tp268
a(S'p1_vo'
I10
tp269
a(S'w'
I1
tp270
a(S'p2_vo'
I8
tp271
a(S'w'
I729
tp272
a(S'p1_vo'
I0
tp273
a(S'w'
I2
tp274
a(S'p2_vo'
I0
tp275
a(S'w'
I2
tp276
a(S'tr_lr'
I0
tp277
a(S'w'
I3691
tp278
a(S'p1_vo'
I15
tp279
a(S'w'
I1
tp280
a(S'p1_ll'
I0
tp281
a(S'w'
I1
tp282
a(S'p2_vo'
I12
tp283
a(S'w'
I1
tp284
a(S'p2_tl'
I63
tp285
a(S'w'
I1
tp286
a(S'p2_ll'
I0
tp287
a(S'w'
I1
tp288
a(S'tr_lr'
I112
tp289
a(S'tr_tl'
I253
tp290
a(S'w'
I1
tp291
a(S'tr_ll'
I0
tp292
a(S'w'
I705
tp293
a(S'p1_vo'
I6
tp294
a(S'w'
I2
tp295
a(S'p2_vo'
I4
tp296
a(S'w'
I732
tp297
a(S'p1_vo'
I8
tp298
a(S'w'
I2
tp299
a(S'p2_vo'
I6
tp300
a(S'w'
I732
tp301
a(S'p1_vo'
I9
tp302
a(S'w'
I2
tp303
a(S'p2_vo'
I7
tp304
a(S'w'
I726
tp305
a(S'p1_vo'
I10
tp306
a(S'w'
I2
tp307
a(S'p2_vo'
I8
tp308
a(S'w'
I734
tp309
a(S'p1_vo'
I0
tp310
a(S'w'
I2
tp311
a(S'p2_vo'
I0
tp312
a(S'w'
I2
tp313
a(S'tr_lr'
I0
tp314
a(S'w'
I2957
tp315
a(S'p1_vo'
I15
tp316
a(S'w'
I1
tp317
a(S'p1_tl'
I201
tp318
a(S'p1_ll'
I0
tp319
a(S'w'
I1
tp320
a(S'p2_vo'
I12
tp321
a(S'w'
I1
tp322
a(S'w'
I1
tp323
a(S'p2_ll'
I0
tp324
a(S'w'
I1
tp325
a(S'tr_lr'
I112
tp326
a(S'w'
I1
tp327
a(S'tr_tl'
I12
tp328
a(S'tr_ll'
I0
tp329
a(S'tr_th'
I1
tp330
a(S'w'
I700
tp331
a(S'p1_vo'
I6
tp332
a(S'w'
I2
tp333
a(S'p2_vo'
I4
tp334
a(S'w'
I737
tp335
a(S'p1_vo'
I8
tp336
a(S'w'
I2
tp337
a(S'p2_vo'
I6
tp338
a(S'w'
I732
tp339
a(S'p1_vo'
I9
tp340
a(S'w'
I2
tp341
a(S'p2_vo'
I7
tp342
a(S'w'
I732
tp343
a(S'p1_vo'
I10
tp344
a(S'w'
I2
tp345
a(S'p2_vo'
I8
tp346
a(S'w'
I732
tp347
a(S'p1_vo'
I11
tp348
a(S'w'
I728
tp349
a(S'p1_vo'
I12
tp350
a(S'w'
I2
tp351
a(S'p2_vo'
I9
tp352
a(S'w'
I737
tp353
a(S'p1_vo'
I13
tp354
a(S'w'
I2
tp355
a(S'p2_vo'
I10
tp356
a(S'w'
I732
tp357
a(S'p1_vo'
I14
tp358
a(S'w'
I2
tp359
a(S'p2_vo'
I11
tp360
a(S'w'
I732
tp361
a(S'p1_vo'
I15
tp362
a(S'w'
I2
tp363
a(S'p2_vo'
I12
tp364
a(S'w'
I1460
tp365
a(S'p1_vo'
I14
tp366
a(S'w'
I2
tp367
a(S'p2_vo'
I11
tp368
a(S'w'
I1471
tp369
a(S'p1_vo'
I13
tp370
a(S'w'
I2
tp371
a(S'p2_vo'
I10
tp372
a(S'w'
I1472
tp373
a(S'p1_vo'
I14
tp374
a(S'w'
I1
tp375
a(S'p1_tl'
I200
tp376
a(S'w'
I1
tp377
a(S'p2_vo'
I11
tp378
a(S'w'
I1
tp379
a(S'p2_tl'
I62
tp380
a(S'w'
I1
tp381
a(S'tr_lr'
I113
tp382
a(S'w'
I1457
tp383
a(S'p1_vo'
I15
tp384
a(S'w'
I2
tp385
a(S'p2_vo'
I12
tp386
a(S'w'
I1472
tp387
a(S'p1_vo'
I14
tp388
a(S'w'
I1
tp389
a(S'p1_tl'
I201
tp390
a(S'w'
I1
tp391
a(S'p2_vo'
I11
tp392
a(S'w'
I1
tp393
a(S'p2_tl'
I63
tp394
a(S'w'
I1
tp395
a(S'tr_lr'
I112
tp396
a(S'w'
I1452
tp397
a(S'p1_vo'
I13
tp398
a(S'w'
I2
tp399
a(S'p2_vo'
I10
tp400
a(S'w'
I1481
tp401
a(S'p1_vo'
I14
tp402
a(S'p1_tl'
I200
tp403
a(S'w'
I2
tp404
a(S'p2_vo'
I11
tp405
a(S'p2_tl'
I62
tp406
a(S'w'
I1456
tp407
a(S'p1_vo'
I15
tp408
a(S'w'
I2
tp409
a(S'p2_vo'
I12
tp410
a(S'w'
I1471
tp411
a(S'p1_vo'
I14
tp412
a(S'w'
I1
tp413
a(S'p1_tl'
I201
tp414
a(S'w'
I1
tp415
a(S'p2_vo'
I11
tp416
a(S'w'
I1
tp417
a(S'p2_tl'
I63
tp418
a(S'w'
I1459
tp419
a(S'p1_vo'
I13
tp420
a(S'w'
I2
tp421
a(S'p2_vo'
I10
tp422
a(S'w'
I754
tp423
a(S'p1_vo'
I15
tp424
a(S'w'
I1
tp425
a(S'p1_tl'
I179
tp426
a(S'p1_ll'
I0
tp427
a(S'w'
I2
tp428
a(S'p2_vo'
I12
tp429
a(S'p2_tl'
I28
tp430
a(S'w'
I1
tp431
a(S'p2_ll'
I0
tp432
a(S'w'
I2
tp433
a(S'tr_tl'
I239
tp434
a(S'tr_ll'
I0
tp435
a(S'tr_th'
I0
tp436
a(S'w'
I700
tp437
a(S'p1_vo'
I6
tp438
a(S'w'
I2
tp439
a(S'p2_vo'
I4
tp440
a(S'w'
I737
tp441
a(S'p1_vo'
I8
tp442
a(S'w'
I2
tp443
a(S'p2_vo'
I6
tp444
a(S'w'
I732
tp445
a(S'p1_vo'
I9
tp446
a(S'w'
I2
tp447
a(S'p2_vo'
I7
tp448
a(S'w'
I732
tp449
a(S'p1_vo'
I10
tp450
a(S'w'
I2
tp451
a(S'p2_vo'
I8
tp452
a(S'w'
I726
tp453
a(S'p1_vo'
I11
tp454
a(S'w'
I740
tp455
a(S'p1_vo'
I12
tp456
a(S'w'
I1
tp457
a(S'p2_vo'
I9
tp458
a(S'w'
I732
tp459
a(S'p1_vo'
I13
tp460
a(S'w'
I2
tp461
a(S'p2_vo'
I10
tp462
a(S'w'
I732
tp463
a(S'p1_vo'
I14
tp464
a(S'w'
I2
tp465
a(S'p2_vo'
I11
tp466
a(S'w'
I726
tp467
a(S'p1_vo'
I15
tp468
a(S'w'
I2
tp469
a(S'p2_vo'
I12
tp470
a(S'w'
I1472
tp471
a(S'p1_vo'
I14
tp472
a(S'w'
I1
tp473
a(S'p2_vo'
I11
tp474
a(S'w'
I1460
tp475
a(S'p1_vo'
I13
tp476
a(S'w'
I2
tp477
a(S'p2_vo'
I10
tp478
a(S'w'
I1478
tp479
a(S'p1_vo'
I14
tp480
a(S'w'
I1
tp481
a(S'p1_tl'
I178
tp482
a(S'w'
I1
tp483
a(S'p2_vo'
I11
tp484
a(S'w'
I1
tp485
a(S'p2_tl'
I27
tp486
a(S'w'
I1453
tp487
a(S'p1_vo'
I15
tp488
a(S'w'
I2
tp489
a(S'p2_vo'
I12
tp490
a(S'w'
I1477
tp491
a(S'p1_vo'
I14
tp492
a(S'w'
I1
tp493
a(S'p1_tl'
I179
tp494
a(S'w'
I1
tp495
a(S'p2_vo'
I11
tp496
a(S'w'
I1
tp497
a(S'p2_tl'
I28
tp498
a(S'w'
I1459
tp499
a(S'p1_vo'
I13
tp500
a(S'w'
I1
tp501
a(S'p2_vo'
I10
tp502
a(S'w'
I1476
tp503
a(S'p1_vo'
I14
tp504
a(S'p1_tl'
I178
tp505
a(S'w'
I2
tp506
a(S'p2_vo'
I11
tp507
a(S'w'
I1
tp508
a(S'p2_tl'
I27
tp509
a(S'w'
I1
tp510
a(S'tr_lr'
I116
tp511
a(S'w'
I1454
tp512
a(S'p1_vo'
I15
tp513
a(S'w'
I2
tp514
a(S'p2_vo'
I12
tp515
a(S'w'
I1471
tp516
a(S'p1_vo'
I14
tp517
a(S'w'
I1
tp518
a(S'p1_tl'
I179
tp519
a(S'w'
I1
tp520
a(S'p2_vo'
I11
tp521
a(S'w'
I1
tp522
a(S'p2_tl'
I28
tp523
a(S'w'
I1
tp524
a(S'tr_lr'
I112
tp525
a(S'w'
I1458
tp526
a(S'p1_vo'
I13
tp527
a(S'w'
I2
tp528
a(S'p2_vo'
I10
tp529
a(S'w'
I1475
tp530
a(S'p1_vo'
I14
tp531
a(S'w'
I1
tp532
a(S'p1_tl'
I178
tp533
a(S'w'
I1
tp534
a(S'p2_vo'
I11
tp535
a(S'w'
I1
tp536
a(S'p2_tl'
I27
tp537
a(S'w'
I1
tp538
a(S'tr_lr'
I119
tp539
a(S'w'
I743
tp540
a(S'p1_vo'
I15
tp541
a(S'w'
I1
tp542
a(S'p1_tl'
I159
tp543
a(S'p1_ll'
I0
tp544
a(S'w'
I1
tp545
a(S'p2_vo'
I12
tp546
a(S'w'
I1
tp547
a(S'p2_tl'
I253
tp548
a(S'p2_ll'
I0
tp549
a(S'p2_th'
I0
tp550
a(S'w'
I1
tp551
a(S'tr_lr'
I112
tp552
a(S'w'
I1
tp553
a(S'tr_tl'
I63
tp554
a(S'w'
I1
tp555
a(S'tr_ll'
I0
tp556
a(S'tr_th'
I1
tp557
a(S'w'
I705
tp558
a(S'p1_vo'
I6
tp559
a(S'w'
I2
tp560
a(S'p2_vo'
I4
tp561
a(S'w'
I726
tp562
a(S'p1_vo'
I8
tp563
a(S'w'
I2
tp564
a(S'p2_vo'
I6
tp565
a(S'w'
I738
tp566
a(S'p1_vo'
I9
tp567
a(S'w'
I2
tp568
a(S'p2_vo'
I7
tp569
a(S'w'
I732
tp570
a(S'p1_vo'
I10
tp571
a(S'w'
I1
tp572
a(S'p2_vo'
I8
tp573
a(S'w'
I732
tp574
a(S'p1_vo'
I11
tp575
a(S'w'
I728
tp576
a(S'p1_vo'
I12
tp577
a(S'w'
I2
tp578
a(S'p2_vo'
I9
tp579
a(S'w'
I738
tp580
a(S'p1_vo'
I13
tp581
a(S'w'
I2
tp582
a(S'p2_vo'
I10
tp583
a(S'w'
I732
tp584
a(S'p1_vo'
I14
tp585
a(S'w'
I2
tp586
a(S'p2_vo'
I11
tp587
a(S'w'
I726
tp588
a(S'p1_vo'
I15
tp589
a(S'w'
I2
tp590
a(S'p2_vo'
I12
tp591
a(S'w'
I1471
tp592
a(S'p1_vo'
I14
tp593
a(S'w'
I2
tp594
a(S'p2_vo'
I11
tp595
a(S'w'
I1460
tp596
a(S'p1_vo'
I13
tp597
a(S'w'
I2
tp598
a(S'p2_vo'
I10
tp599
a(S'w'
I1478
tp600
a(S'p1_vo'
I14
tp601
a(S'w'
I1
tp602
a(S'p1_tl'
I158
tp603
a(S'w'
I1
tp604
a(S'p2_vo'
I11
tp605
a(S'w'
I1
tp606
a(S'p2_tl'
I252
tp607
a(S'w'
I1
tp608
a(S'tr_lr'
I118
tp609
a(S'w'
I1451
tp610
a(S'p1_vo'
I15
tp611
a(S'w'
I2
tp612
a(S'p2_vo'
I12
tp613
a(S'w'
I1478
tp614
a(S'p1_vo'
I14
tp615
a(S'p1_tl'
I159
tp616
a(S'w'
I2
tp617
a(S'p2_vo'
I11
tp618
a(S'p2_tl'
I253
tp619
a(S'w'
I2
tp620
a(S'tr_lr'
I112
tp621
a(S'w'
I1452
tp622
a(S'p1_vo'
I13
tp623
a(S'w'
I1
tp624
a(S'p2_vo'
I10
tp625
a(S'w'
I1481
tp626
a(S'p1_vo'
I14
tp627
a(S'w'
I1
tp628
a(S'p1_tl'
I158
tp629
a(S'w'
I1
tp630
a(S'p2_vo'
I11
tp631
a(S'w'
I1
tp632
a(S'p2_tl'
I252
tp633
a(S'w'
I1455
tp634
a(S'p1_vo'
I15
tp635
a(S'w'
I2
tp636
a(S'p2_vo'
I12
tp637
a(S'w'
I1472
tp638
a(S'p1_vo'
I14
tp639
a(S'w'
I1
tp640
a(S'p1_tl'
I159
tp641
a(S'w'
I1
tp642
a(S'p2_vo'
I11
tp643
a(S'w'
I1
tp644
a(S'p2_tl'
I253
tp645
a(S'w'
I1459
tp646
a(S'p1_vo'
I13
tp647
a(S'w'
I1
tp648
a(S'p2_vo'
I10
tp649
a(S'w'
I1476
tp650
a(S'p1_vo'
I14
tp651
a(S'p1_tl'
I158
tp652
a(S'w'
I2
tp653
a(S'p2_vo'
I11
tp654
a(S'w'
I1
tp655
a(S'p2_tl'
I252
tp656
a(S'w'
I1
tp657
a(S'tr_lr'
I116
tp658
a(S'w'
I1454
tp659
a(S'p1_vo'
I15
tp660
a(S'w'
I2
tp661
a(S'p2_vo'
I12
tp662
a(S'w'
I1472
tp663
a(S'p1_vo'
I14
tp664
a(S'p1_tl'
I159
tp665
a(S'w'
I2
tp666
a(S'p2_vo'
I11
tp667
a(S'p2_tl'
I253
tp668
a(S'w'
I2
tp669
a(S'tr_lr'
I112
tp670
a(S'w'
I1457
tp671
a(S'p1_vo'
I13
tp672
a(S'w'
I2
tp673
a(S'p2_vo'
I10
tp674
a(S'w'
I1470
tp675
a(S'p1_vo'
I14
tp676
a(S'p1_tl'
I158
tp677
a(S'w'
I2
tp678
a(S'p2_vo'
I11
tp679
a(S'p2_tl'
I252
tp680
a(S'w'
I2
tp681
a(S'tr_lr'
I116
tp682
a(S'w'
I1459
tp683
a(S'p1_vo'
I15
tp684
a(S'w'
I2
tp685
a(S'p2_vo'
I12
tp686
a(S'w'
I1466
tp687
a(S'p1_vo'
I14
tp688
a(S'w'
I1
tp689
a(S'p1_tl'
I159
tp690
a(S'w'
I1
tp691
a(S'p2_vo'
I11
tp692
a(S'w'
I1
tp693
a(S'p2_tl'
I253
tp694
a(S'w'
I1
tp695
a(S'tr_lr'
I112
tp696
a(S'w'
I1463
tp697
a(S'p1_vo'
I13
tp698
a(S'w'
I2
tp699
a(S'p2_vo'
I10
tp700
a(S'w'
I1470
tp701
a(S'p1_vo'
I14
tp702
a(S'w'
I1
tp703
a(S'p1_tl'
I158
tp704
a(S'w'
I1
tp705
a(S'p2_vo'
I11
tp706
a(S'w'
I1
tp707
a(S'p2_tl'
I252
tp708
a(S'w'
I1
tp709
a(S'tr_lr'
I120
tp710
a(S'w'
I1460
tp711
a(S'p1_vo'
I15
tp712
a(S'w'
I1
tp713
a(S'p2_vo'
I12
tp714
a(S'w'
I1467
tp715
a(S'p1_vo'
I14
tp716
a(S'p1_tl'
I159
tp717
a(S'w'
I2
tp718
a(S'p2_vo'
I11
tp719
a(S'p2_tl'
I253
tp720
a(S'w'
I2
tp721
a(S'tr_lr'
I112
tp722
a(S'w'
I1463
tp723
a(S'p1_vo'
I13
tp724
a(S'w'
I2
tp725
a(S'p2_vo'
I10
tp726
a(S'w'
I1475
tp727
a(S'p1_vo'
I14
tp728
a(S'w'
I1
tp729
a(S'p1_tl'
I158
tp730
a(S'w'
I1
tp731
a(S'p2_vo'
I11
tp732
a(S'w'
I1
tp733
a(S'p2_tl'
I252
tp734
a(S'w'
I1
tp735
a(S'tr_lr'
I114
tp736
a(S'w'
I1454
tp737
a(S'p1_vo'
I15
tp738
a(S'w'
I2
tp739
a(S'p2_vo'
I12
tp740
a(S'w'
I1472
tp741
a(S'p1_vo'
I14
tp742
a(S'p1_tl'
I159
tp743
a(S'w'
I2
tp744
a(S'p2_vo'
I11
tp745
a(S'p2_tl'
I253
tp746
a(S'w'
I2
tp747
a(S'tr_lr'
I113
tp748
a(S'w'
I1457
tp749
a(S'p1_vo'
I13
tp750
a(S'w'
I2
tp751
a(S'p2_vo'
I10
tp752
a(S'w'
I1476
tp753
a(S'p1_vo'
I14
tp754
a(S'p1_tl'
I158
tp755
a(S'w'
I2
tp756
a(S'p2_vo'
I11
tp757
a(S'p2_tl'
I252
tp758
a(S'w'
I2
tp759
a(S'tr_lr'
I118
tp760
a(S'w'
I1455
tp761
a(S'p1_vo'
I15
tp762
a(S'w'
I2
tp763
a(S'p2_vo'
I12
tp764
a(S'w'
I2
tp765
a(S'tr_lh'
I0
tp766
a(S'tr_lr'
I0
tp767
a(S'w'
I1461
tp768
a(S'p1_vo'
I14
tp769
a(S'w'
I2
tp770
a(S'p2_vo'
I11
tp771
a(S'p2_tl'
I253
tp772
a(S'w'
I1458
tp773
a(S'p1_vo'
I11
tp774
a(S'w'
I2
tp775
a(S'p2_vo'
I8
tp776
a(S'w'
I1472
tp777
a(S'p2_tl'
I252
tp778
a(S'w'
I733
tp779
a(S'p1_vo'
I9
tp780
a(S'w'
I2
tp781
a(S'p2_vo'
I7
tp782
a(S'w'
I2201
tp783
a(S'p1_vo'
I7
tp784
a(S'w'
I2
tp785
a(S'p2_vo'
I5
tp786
a(S'w'
I1
tp787
a(S'p2_tl'
I253
tp788
a(S'w'
I2197
tp789
a(S'p1_vo'
I5
tp790
a(S'w'
I2
tp791
a(S'p2_vo'
I4
tp792
a(S'w'
I732
tp793
a(S'p2_tl'
I252
tp794
a(S'w'
I1462
tp795
a(S'p1_vo'
I3
tp796
a(S'w'
I2
tp797
a(S'p2_vo'
I2
tp798
a(S'w'
I1470
tp799
a(S'p2_tl'
I253
tp800
a(S'w'
I729
tp801
a(S'p1_vo'
I1
tp802
a(S'w'
I2
tp803
a(S'p2_vo'
I0
tp804
a(S'w'
I2208
tp805
a(S'p1_vo'
I0
tp806
a(S'w'
I1
tp807
a.