(lp1
(S'clock'
p2
I1789772
tp3
a(S'p1_lh'
I1
tp4
a(S'p1_cv'
I1
tp5
a(S'p1_se'
I1
tp6
a(S'p1_sp'
I4
tp7
a(S'p1_ss'
I4
tp8
a(S'p1_tl'
I31
tp9
a(S'p1_ll'
I0
tp10
a(S'p2_lh'
I1
tp11
a(S'p2_cv'
I1
tp12
a(S'p2_se'
I1
tp13
a(S'p2_sp'
I6
tp14
a(S'p2_ss'
I4
tp15
a(S'p2_tl'
I31
tp16
a(S'p2_ll'
I0
tp17
a(S'tr_lh'
I1
tp18
a(S'tr_ll'
I0
tp19
a(S'no_lh'
I1
tp20
a(S'no_cv'
I1
tp21
a(S'no_np'
I3
tp22
a(S'no_ll'
I0
tp23
a(S'ch_no'
I1
tp24
a(S'ch_tr'
I1
tp25
a(S'ch_p2'
I1
tp26
a(S'ch_p1'
I1
tp27
a(S'fc_mo'
I0
tp28
a(S'p1_du'
I1
tp29
a(S'p1_vo'
I10
tp30
a(S'p1_se'
I0
tp31
a(S'p1_sp'
I0
tp32
a(S'p1_sn'
I1
tp33
a(S'p1_ss'
I0
tp34
a(S'p1_tl'
I170
tp35
a(S'w'
I1
tp36
a(S'p1_ll'
I0
tp37
a(S'p1_th'
I1
tp38
a(S'w'
I1
tp39
a(S'p2_vo'
I12
tp40
a(S'p2_se'
I0
tp41
a(S'p2_sp'
I0
tp42
a(S'p2_sn'
I1
tp43
a(S'p2_ss'
I0
tp44
a(S'p2_tl'
I213
tp45
a(S'p2_ll'
I0
tp46
a(S'w'
I1
tp47
a(S'tr_lr'
I127
tp48
a(S'tr_tl'
I170
tp49
a(S'tr_ll'
I0
tp50
a(S'tr_th'
I1
tp51
a(S'w'
I705
tp52
a(S'ch_no'
I1
tp53
a(S'ch_tr'
I1
tp54
a(S'ch_p2'
I1
tp55
a(S'ch_p1'
I1
tp56
a(S'w'
I2
tp57
a(S'w'
I1
tp58
a(S'w'
I741
tp59
a(S'p1_vo'
I9
tp60
a(S'w'
I1
tp61
a(S'p2_vo'
I11
tp62
a(S'w'
I741
tp63
a(S'w'
I1
tp64
a(S'w'
I741
tp65
a(S'p1_vo'
I8
tp66
a(S'w'
I1
tp67
a(S'p2_vo'
I10
tp68
a(S'w'
I1
tp69
a(S'w'
I741
tp70
a(S'w'
I1
tp71
a(S'w'
I758
tp72
a(S'p1_vo'
I10
tp73
a(S'p1_tl'
I147
tp74
a(S'w'
I1
tp75
a(S'p1_ll'
I0
tp76
a(S'w'
I1
tp77
a(S'p2_vo'
I12
tp78
a(S'p2_tl'
I225
tp79
a(S'p2_ll'
I0
tp80
a(S'w'
I723
tp81
a(S'w'
I1
tp82
a(S'w'
I741
tp83
a(S'p1_vo'
I9
tp84
a(S'w'
I1
tp85
a(S'p2_vo'
I11
tp86
a(S'w'
I742
tp87
a(S'w'
I1
tp88
a(S'w'
I740
tp89
a(S'p1_vo'
I8
tp90
a(S'w'
I1
tp91
a(S'p2_vo'
I10
tp92
a(S'w'
I1
tp93
a(S'w'
I741
tp94
a(S'w'
I1
tp95
a(S'w'
I762
tp96
a(S'p1_vo'
I10
tp97
a(S'w'
I1
tp98
a(S'p1_tl'
I103
tp99
a(S'p1_ll'
I0
tp100
a(S'w'
I1
tp101
a(S'p2_vo'
I12
tp102
a(S'p2_tl'
I239
tp103
a(S'p2_ll'
I0
tp104
a(S'w'
I1
tp105
a(S'tr_tl'
I147
tp106
a(S'w'
I1
tp107
a(S'tr_ll'
I0
tp108
a(S'w'
I717
tp109
a(S'w'
I1
tp110
a(S'w'
I741
tp111
a(S'p1_vo'
I9
tp112
a(S'w'
I1
tp113
a(S'p2_vo'
I11
tp114
a(S'w'
I1
tp115
a(S'w'
I741
tp116
a(S'w'
I1
tp117
a(S'w'
I741
tp118
a(S'p1_vo'
I8
tp119
a(S'w'
I1
tp120
a(S'p2_vo'
I10
tp121
a(S'w'
I741
tp122
a(S'w'
I1
tp123
a(S'w'
I757
tp124
a(S'p1_vo'
I10
tp125
a(S'w'
I1
tp126
a(S'p1_tl'
I82
tp127
a(S'p1_ll'
I0
tp128
a(S'w'
I1
tp129
a(S'p2_vo'
I12
tp130
a(S'p2_tl'
I253
tp131
a(S'w'
I1
tp132
a(S'p2_ll'
I0
tp133
a(S'w'
I724
tp134
a(S'w'
I1
tp135
a(S'w'
I740
tp136
a(S'p1_vo'
I9
tp137
a(S'w'
I1
tp138
a(S'w'
I1
tp139
a(S'p2_vo'
I11
tp140
a(S'w'
I741
tp141
a(S'w'
I1
tp142
a(S'w'
I741
tp143
a(S'p1_vo'
I8
tp144
a(S'w'
I1
tp145
a(S'p2_vo'
I10
tp146
a(S'w'
I741
tp147
a(S'w'
I1
tp148
a(S'w'
I764
tp149
a(S'p1_vo'
I10
tp150
a(S'p1_tl'
I170
tp151
a(S'p1_ll'
I0
tp152
a(S'w'
I1
tp153
a(S'p2_vo'
I12
tp154
a(S'w'
I1
tp155
a(S'p2_tl'
I213
tp156
a(S'p2_ll'
I0
tp157
a(S'w'
I1
tp158
a(S'tr_tl'
I170
tp159
a(S'tr_ll'
I0
tp160
a(S'w'
I717
tp161
a(S'w'
I1
tp162
a(S'w'
I741
tp163
a(S'p1_vo'
I9
tp164
a(S'w'
I1
tp165
a(S'p2_vo'
I11
tp166
a(S'w'
I741
tp167
a(S'w'
I1
tp168
a(S'w'
I741
tp169
a(S'p1_vo'
I8
tp170
a(S'w'
I1
tp171
a(S'p2_vo'
I10
tp172
a(S'w'
I741
tp173
a(S'w'
I2
tp174
a(S'w'
I758
tp175
a(S'p1_vo'
I10
tp176
a(S'p1_tl'
I147
tp177
a(S'w'
I1
tp178
a(S'p1_ll'
I0
tp179
a(S'w'
I1
tp180
a(S'p2_vo'
I12
tp181
a(S'p2_tl'
I225
tp182
a(S'p2_ll'
I0
tp183
a(S'w'
I76
tp184
a(S'w'
I1
tp185
a(S'w'
I768
tp186
a(S'p1_vo'
I9
tp187
a(S'w'
I1
tp188
a(S'w'
I1
tp189
a(S'p2_vo'
I11
tp190
a(S'w'
I733
tp191
a(S'w'
I1
tp192
a(S'w'
I707
tp193
a(S'p1_vo'
I8
tp194
a(S'w'
I1
tp195
a(S'p2_vo'
I10
tp196
a(S'w'
I1
tp197
a(S'w'
I703
tp198
a(S'w'
I1
tp199
a(S'w'
I754
tp200
a(S'p1_vo'
I10
tp201
a(S'p1_tl'
I103
tp202
a(S'w'
I1
tp203
a(S'p1_ll'
I0
tp204
a(S'w'
I1
tp205
a(S'p2_vo'
I12
tp206
a(S'p2_tl'
I239
tp207
a(S'p2_ll'
I0
tp208
a(S'w'
I1
tp209
a(S'tr_tl'
I147
tp210
a(S'tr_ll'
I0
tp211
a(S'w'
I710
tp212
a(S'w'
I1
tp213
a(S'w'
I732
tp214
a(S'p1_vo'
I9
tp215
a(S'w'
I1
tp216
a(S'p2_vo'
I11
tp217
a(S'w'
I1
tp218
a(S'w'
I732
tp219
a(S'w'
I2
tp220
a(S'w'
I732
tp221
a(S'p1_vo'
I8
tp222
a(S'w'
I1
tp223
a(S'p2_vo'
I10
tp224
a(S'w'
I733
tp225
a(S'w'
I1
tp226
a(S'w'
I749
tp227
a(S'p1_vo'
I10
tp228
a(S'p1_tl'
I82
tp229
a(S'p1_ll'
I0
tp230
a(S'w'
I1
tp231
a(S'p2_vo'
I12
tp232
a(S'w'
I1
tp233
a(S'p2_tl'
I253
tp234
a(S'p2_ll'
I0
tp235
a(S'w'
I716
tp236
a(S'w'
I1
tp237
a(S'w'
I732
tp238
a(S'p1_vo'
I9
tp239
a(S'w'
I1
tp240
a(S'p2_vo'
I11
tp241
a(S'w'
I1
tp242
a(S'w'
I732
tp243
a(S'w'
I1
tp244
a(S'w'
I733
tp245
a(S'p1_vo'
I8
tp246
a(S'w'
I1
tp247
a(S'p2_vo'
I10
tp248
a(S'w'
I733
tp249
a(S'w'
I1
tp250
a(S'w'
I755
tp251
a(S'p1_vo'
I10
tp252
a(S'p1_tl'
I103
tp253
a(S'p1_ll'
I0
tp254
a(S'w'
I1
tp255
a(S'p2_vo'
I12
tp256
a(S'w'
I1
tp257
a(S'p2_tl'
I179
tp258
a(S'p2_ll'
I0
tp259
a(S'w'
I1
tp260
a(S'tr_tl'
I103
tp261
a(S'tr_ll'
I0
tp262
a(S'w'
I708
tp263
a(S'w'
I2
tp264
a(S'w'
I732
tp265
a(S'p1_vo'
I9
tp266
a(S'w'
I1
tp267
a(S'p2_vo'
I11
tp268
a(S'w'
I733
tp269
a(S'w'
I1
tp270
a(S'w'
I732
tp271
a(S'p1_vo'
I8
tp272
a(S'w'
I1
tp273
a(S'p2_vo'
I10
tp274
a(S'w'
I1
tp275
a(S'w'
I733
tp276
a(S'w'
I1
tp277
a(S'w'
I748
tp278
a(S'p1_vo'
I10
tp279
a(S'w'
I1
tp280
a(S'p1_tl'
I82
tp281
a(S'p1_ll'
I0
tp282
a(S'w'
I1
tp283
a(S'p2_vo'
I12
tp284
a(S'p2_tl'
I190
tp285
a(S'w'
I1
tp286
a(S'p2_ll'
I0
tp287
a(S'w'
I715
tp288
a(S'w'
I1
tp289
a(S'w'
I733
tp290
a(S'p1_vo'
I9
tp291
a(S'w'
I1
tp292
a(S'p2_vo'
I11
tp293
a(S'w'
I733
tp294
a(S'w'
I1
tp295
a(S'w'
I732
tp296
a(S'p1_vo'
I8
tp297
a(S'w'
I1
tp298
a(S'p2_vo'
I10
tp299
a(S'w'
I1
tp300
a(S'w'
I732
tp301
a(S'w'
I1
tp302
a(S'w'
I754
tp303
a(S'p1_vo'
I10
tp304
a(S'w'
I1
tp305
a(S'p1_tl'
I45
tp306
a(S'p1_ll'
I0
tp307
a(S'w'
I1
tp308
a(S'p2_vo'
I12
tp309
a(S'p2_tl'
I201
tp310
a(S'p2_ll'
I0
tp311
a(S'w'
I1
tp312
a(S'tr_tl'
I82
tp313
a(S'w'
I1
tp314
a(S'tr_ll'
I0
tp315
a(S'w'
I709
tp316
a(S'w'
I1
tp317
a(S'w'
I732
tp318
a(S'p1_vo'
I9
tp319
a(S'w'
I1
tp320
a(S'w'
I1
tp321
a(S'p2_vo'
I11
tp322
a(S'w'
I733
tp323
a(S'w'
I1
tp324
a(S'w'
I732
tp325
a(S'p1_vo'
I8
tp326
a(S'w'
I1
tp327
a(S'p2_vo'
I10
tp328
a(S'w'
I733
tp329
a(S'w'
I1
tp330
a(S'w'
I749
tp331
a(S'p1_vo'
I10
tp332
a(S'p1_tl'
I28
tp333
a(S'w'
I1
tp334
a(S'p1_ll'
I0
tp335
a(S'w'
I1
tp336
a(S'p2_vo'
I12
tp337
a(S'p2_tl'
I213
tp338
a(S'p2_ll'
I0
tp339
a(S'w'
I716
tp340
a(S'w'
I1
tp341
a(S'w'
I732
tp342
a(S'p1_vo'
I9
tp343
a(S'w'
I1
tp344
a(S'p2_vo'
I11
tp345
a(S'w'
I1
tp346
a(S'w'
I732
tp347
a(S'w'
I2
tp348
a(S'w'
I732
tp349
a(S'p1_vo'
I8
tp350
a(S'w'
I1
tp351
a(S'p2_vo'
I10
tp352
a(S'w'
I733
tp353
a(S'w'
I1
tp354
a(S'w'
I754
tp355
a(S'p1_vo'
I10
tp356
a(S'p1_tl'
I103
tp357
a(S'p1_ll'
I0
tp358
a(S'w'
I1
tp359
a(S'p2_vo'
I12
tp360
a(S'w'
I1
tp361
a(S'p2_tl'
I179
tp362
a(S'p2_ll'
I0
tp363
a(S'w'
I1
tp364
a(S'tr_tl'
I103
tp365
a(S'tr_ll'
I0
tp366
a(S'w'
I710
tp367
a(S'w'
I1
tp368
a(S'w'
I732
tp369
a(S'p1_vo'
I9
tp370
a(S'w'
I1
tp371
a(S'p2_vo'
I11
tp372
a(S'w'
I1
tp373
a(S'w'
I732
tp374
a(S'w'
I1
tp375
a(S'w'
I733
tp376
a(S'p1_vo'
I8
tp377
a(S'w'
I1
tp378
a(S'p2_vo'
I10
tp379
a(S'w'
I733
tp380
a(S'w'
I1
tp381
a(S'w'
I749
tp382
a(S'p1_vo'
I10
tp383
a(S'p1_tl'
I82
tp384
a(S'p1_ll'
I0
tp385
a(S'w'
I1
tp386
a(S'p2_vo'
I12
tp387
a(S'w'
I1
tp388
a(S'p2_tl'
I190
tp389
a(S'p2_ll'
I0
tp390
a(S'w'
I716
tp391
a(S'w'
I1
tp392
a(S'w'
I732
tp393
a(S'p1_vo'
I9
tp394
a(S'w'
I1
tp395
a(S'p2_vo'
I11
tp396
a(S'w'
I733
tp397
a(S'w'
I1
tp398
a(S'w'
I732
tp399
a(S'p1_vo'
I8
tp400
a(S'w'
I1
tp401
a(S'w'
I1
tp402
a(S'p2_vo'
I10
tp403
a(S'w'
I733
tp404
a(S'w'
I1
tp405
a(S'w'
I754
tp406
a(S'p1_vo'
I10
tp407
a(S'p1_tl'
I45
tp408
a(S'p1_ll'
I0
tp409
a(S'w'
I1
tp410
a(S'p2_vo'
I12
tp411
a(S'w'
I1
tp412
a(S'p2_tl'
I201
tp413
a(S'p2_ll'
I0
tp414
a(S'w'
I1
tp415
a(S'tr_tl'
I82
tp416
a(S'tr_ll'
I0
tp417
a(S'w'
I709
tp418
a(S'w'
I1
tp419
a(S'w'
I733
tp420
a(S'p1_vo'
I9
tp421
a(S'w'
I1
tp422
a(S'p2_vo'
I11
tp423
a(S'w'
I733
tp424
a(S'w'
I1
tp425
a(S'w'
I732
tp426
a(S'p1_vo'
I8
tp427
a(S'w'
I1
tp428
a(S'p2_vo'
I10
tp429
a(S'w'
I1
tp430
a(S'w'
I732
tp431
a(S'w'
I2
tp432
a(S'w'
I748
tp433
a(S'p1_vo'
I10
tp434
a(S'w'
I1
tp435
a(S'p1_tl'
I28
tp436
a(S'p1_ll'
I0
tp437
a(S'w'
I1
tp438
a(S'p2_vo'
I12
tp439
a(S'p2_tl'
I213
tp440
a(S'p2_ll'
I0
tp441
a(S'w'
I716
tp442
a(S'w'
I1
tp443
a(S'w'
I733
tp444
a(S'p1_vo'
I9
tp445
a(S'w'
I1
tp446
a(S'p2_vo'
I11
tp447
a(S'w'
I733
tp448
a(S'w'
I1
tp449
a(S'w'
I732
tp450
a(S'p1_vo'
I8
tp451
a(S'w'
I1
tp452
a(S'p2_vo'
I10
tp453
a(S'w'
I1
tp454
a(S'w'
I732
tp455
a(S'w'
I1
tp456
a(S'w'
I754
tp457
a(S'p1_vo'
I10
tp458
a(S'w'
I1
tp459
a(S'p1_tl'
I45
tp460
a(S'p1_ll'
I0
tp461
a(S'w'
I1
tp462
a(S'p2_vo'
I12
tp463
a(S'p2_tl'
I150
tp464
a(S'p2_ll'
I0
tp465
a(S'w'
I1
tp466
a(S'tr_tl'
I45
tp467
a(S'w'
I1
tp468
a(S'tr_ll'
I0
tp469
a(S'w'
I709
tp470
a(S'w'
I1
tp471
a(S'w'
I732
tp472
a(S'p1_vo'
I9
tp473
a(S'w'
I1
tp474
a(S'p2_vo'
I11
tp475
a(S'w'
I1
tp476
a(S'w'
I733
tp477
a(S'w'
I1
tp478
a(S'w'
I732
tp479
a(S'p1_vo'
I8
tp480
a(S'w'
I1
tp481
a(S'p2_vo'
I10
tp482
a(S'w'
I733
tp483
a(S'w'
I1
tp484
a(S'w'
I749
tp485
a(S'p1_vo'
I10
tp486
a(S'p1_tl'
I28
tp487
a(S'p1_ll'
I0
tp488
a(S'w'
I1
tp489
a(S'p2_vo'
I12
tp490
a(S'w'
I1
tp491
a(S'p2_tl'
I159
tp492
a(S'p2_ll'
I0
tp493
a(S'w'
I716
tp494
a(S'w'
I1
tp495
a(S'w'
I732
tp496
a(S'p1_vo'
I9
tp497
a(S'w'
I1
tp498
a(S'p2_vo'
I11
tp499
a(S'w'
I1
tp500
a(S'w'
I732
tp501
a(S'w'
I1
tp502
a(S'w'
I733
tp503
a(S'p1_vo'
I8
tp504
a(S'w'
I1
tp505
a(S'p2_vo'
I10
tp506
a(S'w'
I733
tp507
a(S'w'
I1
tp508
a(S'w'
I754
tp509
a(S'p1_vo'
I10
tp510
a(S'p1_tl'
I253
tp511
a(S'p1_ll'
I0
tp512
a(S'p1_th'
I0
tp513
a(S'w'
I1
tp514
a(S'p2_vo'
I12
tp515
a(S'w'
I1
tp516
a(S'p2_tl'
I169
tp517
a(S'p2_ll'
I0
tp518
a(S'w'
I1
tp519
a(S'tr_tl'
I28
tp520
a(S'tr_ll'
I0
tp521
a(S'w'
I710
tp522
a(S'w'
I1
tp523
a(S'w'
I732
tp524
a(S'p1_vo'
I9
tp525
a(S'w'
I1
tp526
a(S'p2_vo'
I11
tp527
a(S'w'
I733
tp528
a(S'w'
I1
tp529
a(S'w'
I732
tp530
a(S'p1_vo'
I8
tp531
a(S'w'
I1
tp532
a(S'w'
I1
tp533
a(S'p2_vo'
I10
tp534
a(S'w'
I733
tp535
a(S'w'
I1
tp536
a(S'w'
I748
tp537
a(S'p1_vo'
I10
tp538
a(S'w'
I1
tp539
a(S'p1_tl'
I239
tp540
a(S'p1_ll'
I0
tp541
a(S'w'
I1
tp542
a(S'p2_vo'
I12
tp543
a(S'p2_tl'
I179
tp544
a(S'w'
I1
tp545
a(S'p2_ll'
I0
tp546
a(S'w'
I715
tp547
a(S'w'
I1
tp548
a(S'w'
I733
tp549
a(S'p1_vo'
I9
tp550
a(S'w'
I1
tp551
a(S'p2_vo'
I11
tp552
a(S'w'
I733
tp553
a(S'w'
I1
tp554
a(S'w'
I732
tp555
a(S'p1_vo'
I8
tp556
a(S'w'
I1
tp557
a(S'p2_vo'
I10
tp558
a(S'w'
I1
tp559
a(S'w'
I732
tp560
a(S'w'
I2
tp561
a(S'w'
I753
tp562
a(S'p1_vo'
I10
tp563
a(S'w'
I1
tp564
a(S'p1_tl'
I45
tp565
a(S'p1_ll'
I0
tp566
a(S'p1_th'
I1
tp567
a(S'w'
I1
tp568
a(S'p2_vo'
I12
tp569
a(S'p2_tl'
I150
tp570
a(S'w'
I1
tp571
a(S'p2_ll'
I0
tp572
a(S'w'
I1
tp573
a(S'tr_tl'
I45
tp574
a(S'tr_ll'
I0
tp575
a(S'w'
I709
tp576
a(S'w'
I1
tp577
a(S'w'
I733
tp578
a(S'p1_vo'
I9
tp579
a(S'w'
I1
tp580
a(S'p2_vo'
I11
tp581
a(S'w'
I733
tp582
a(S'w'
I1
tp583
a(S'w'
I732
tp584
a(S'p1_vo'
I8
tp585
a(S'w'
I1
tp586
a(S'p2_vo'
I10
tp587
a(S'w'
I1
tp588
a(S'w'
I732
tp589
a(S'w'
I1
tp590
a(S'w'
I749
tp591
a(S'p1_vo'
I10
tp592
a(S'p1_tl'
I28
tp593
a(S'w'
I1
tp594
a(S'p1_ll'
I0
tp595
a(S'w'
I1
tp596
a(S'p2_vo'
I12
tp597
a(S'p2_tl'
I159
tp598
a(S'p2_ll'
I0
tp599
a(S'w'
I716
tp600
a(S'w'
I1
tp601
a(S'w'
I732
tp602
a(S'p1_vo'
I9
tp603
a(S'w'
I1
tp604
a(S'w'
I1
tp605
a(S'p2_vo'
I11
tp606
a(S'w'
I733
tp607
a(S'w'
I1
tp608
a(S'w'
I732
tp609
a(S'p1_vo'
I8
tp610
a(S'w'
I1
tp611
a(S'p2_vo'
I10
tp612
a(S'w'
I733
tp613
a(S'w'
I1
tp614
a(S'w'
I754
tp615
a(S'p1_vo'
I10
tp616
a(S'p1_tl'
I253
tp617
a(S'w'
I1
tp618
a(S'p1_ll'
I0
tp619
a(S'p1_th'
I0
tp620
a(S'w'
I1
tp621
a(S'p2_vo'
I12
tp622
a(S'p2_tl'
I169
tp623
a(S'p2_ll'
I0
tp624
a(S'w'
I1
tp625
a(S'tr_tl'
I28
tp626
a(S'tr_ll'
I0
tp627
a(S'w'
I710
tp628
a(S'w'
I1
tp629
a(S'w'
I732
tp630
a(S'p1_vo'
I9
tp631
a(S'w'
I1
tp632
a(S'p2_vo'
I11
tp633
a(S'w'
I1
tp634
a(S'w'
I732
tp635
a(S'w'
I1
tp636
a(S'w'
I733
tp637
a(S'p1_vo'
I8
tp638
a(S'w'
I1
tp639
a(S'p2_vo'
I10
tp640
a(S'w'
I733
tp641
a(S'w'
I1
tp642
a(S'w'
I749
tp643
a(S'p1_vo'
I10
tp644
a(S'p1_tl'
I239
tp645
a(S'p1_ll'
I0
tp646
a(S'w'
I1
tp647
a(S'p2_vo'
I12
tp648
a(S'w'
I1
tp649
a(S'p2_tl'
I179
tp650
a(S'p2_ll'
I0
tp651
a(S'w'
I716
tp652
a(S'w'
I1
tp653
a(S'w'
I732
tp654
a(S'p1_vo'
I9
tp655
a(S'w'
I1
tp656
a(S'p2_vo'
I11
tp657
a(S'w'
I1
tp658
a(S'w'
I732
tp659
a(S'w'
I1
tp660
a(S'w'
I732
tp661
a(S'p1_vo'
I8
tp662
a(S'w'
I1
tp663
a(S'w'
I1
tp664
a(S'p2_vo'
I10
tp665
a(S'w'
I733
tp666
a(S'w'
I1
tp667
a(S'w'
I754
tp668
a(S'p1_vo'
I10
tp669
a(S'p1_tl'
I253
tp670
a(S'p1_ll'
I0
tp671
a(S'w'
I1
tp672
a(S'p2_vo'
I12
tp673
a(S'w'
I1
tp674
a(S'p2_tl'
I126
tp675
a(S'p2_ll'
I0
tp676
a(S'w'
I1
tp677
a(S'tr_tl'
I253
tp678
a(S'tr_ll'
I0
tp679
a(S'tr_th'
I0
tp680
a(S'w'
I709
tp681
a(S'w'
I1
tp682
a(S'w'
I733
tp683
a(S'p1_vo'
I9
tp684
a(S'w'
I1
tp685
a(S'p2_vo'
I11
tp686
a(S'w'
I733
tp687
a(S'w'
I1
tp688
a(S'w'
I732
tp689
a(S'p1_vo'
I8
tp690
a(S'w'
I1
tp691
a(S'p2_vo'
I10
tp692
a(S'w'
I1
tp693
a(S'w'
I733
tp694
a(S'w'
I1
tp695
a(S'w'
I748
tp696
a(S'p1_vo'
I10
tp697
a(S'w'
I1
tp698
a(S'p1_tl'
I239
tp699
a(S'p1_ll'
I0
tp700
a(S'w'
I1
tp701
a(S'p2_vo'
I12
tp702
a(S'p2_tl'
I134
tp703
a(S'w'
I1
tp704
a(S'p2_ll'
I0
tp705
a(S'w'
I715
tp706
a(S'w'
I1
tp707
a(S'w'
I733
tp708
a(S'p1_vo'
I9
tp709
a(S'w'
I1
tp710
a(S'p2_vo'
I11
tp711
a(S'w'
I733
tp712
a(S'w'
I1
tp713
a(S'w'
I732
tp714
a(S'p1_vo'
I8
tp715
a(S'w'
I1
tp716
a(S'p2_vo'
I10
tp717
a(S'w'
I1
tp718
a(S'w'
I732
tp719
a(S'w'
I1
tp720
a(S'w'
I755
tp721
a(S'p1_vo'
I10
tp722
a(S'w'
I1
tp723
a(S'p1_tl'
I213
tp724
a(S'p1_ll'
I0
tp725
a(S'w'
I1
tp726
a(S'p2_vo'
I12
tp727
a(S'p2_tl'
I142
tp728
a(S'w'
I1
tp729
a(S'p2_ll'
I0
tp730
a(S'w'
I1
tp731
a(S'tr_tl'
I239
tp732
a(S'tr_ll'
I0
tp733
a(S'w'
I708
tp734
a(S'w'
I1
tp735
a(S'w'
I732
tp736
a(S'p1_vo'
I9
tp737
a(S'w'
I1
tp738
a(S'w'
I1
tp739
a(S'p2_vo'
I11
tp740
a(S'w'
I733
tp741
a(S'w'
I1
tp742
a(S'w'
I732
tp743
a(S'p1_vo'
I8
tp744
a(S'w'
I1
tp745
a(S'p2_vo'
I10
tp746
a(S'w'
I733
tp747
a(S'w'
I1
tp748
a(S'w'
I749
tp749
a(S'p1_vo'
I10
tp750
a(S'p1_tl'
I201
tp751
a(S'w'
I1
tp752
a(S'p1_ll'
I0
tp753
a(S'w'
I1
tp754
a(S'p2_vo'
I12
tp755
a(S'p2_tl'
I150
tp756
a(S'p2_ll'
I0
tp757
a(S'w'
I716
tp758
a(S'w'
I1
tp759
a(S'w'
I732
tp760
a(S'p1_vo'
I9
tp761
a(S'w'
I1
tp762
a(S'p2_vo'
I11
tp763
a(S'w'
I1
tp764
a(S'w'
I732
tp765
a(S'w'
I2
tp766
a(S'w'
I732
tp767
a(S'p1_vo'
I8
tp768
a(S'w'
I1
tp769
a(S'p2_vo'
I10
tp770
a(S'w'
I733
tp771
a(S'w'
I1
tp772
a(S'w'
I755
tp773
a(S'p1_vo'
I10
tp774
a(S'p1_tl'
I253
tp775
a(S'w'
I1
tp776
a(S'p1_ll'
I0
tp777
a(S'w'
I1
tp778
a(S'p2_vo'
I12
tp779
a(S'p2_tl'
I126
tp780
a(S'p2_ll'
I0
tp781
a(S'w'
I1
tp782
a(S'tr_tl'
I253
tp783
a(S'tr_ll'
I0
tp784
a(S'w'
I709
tp785
a(S'w'
I1
tp786
a(S'w'
I732
tp787
a(S'p1_vo'
I9
tp788
a(S'w'
I1
tp789
a(S'p2_vo'
I11
tp790
a(S'w'
I1
tp791
a(S'w'
I732
tp792
a(S'w'
I1
tp793
a(S'w'
I733
tp794
a(S'p1_vo'
I8
tp795
a(S'w'
I1
tp796
a(S'p2_vo'
I10
tp797
a(S'w'
I733
tp798
a(S'w'
I1
tp799
a(S'w'
I749
tp800
a(S'p1_vo'
I10
tp801
a(S'p1_tl'
I239
tp802
a(S'p1_ll'
I0
tp803
a(S'w'
I1
tp804
a(S'p2_vo'
I12
tp805
a(S'w'
I1
tp806
a(S'p2_tl'
I134
tp807
a(S'p2_ll'
I0
tp808
a(S'w'
I715
tp809
a(S'w'
I2
tp810
a(S'w'
I732
tp811
a(S'p1_vo'
I9
tp812
a(S'w'
I1
tp813
a(S'p2_vo'
I11
tp814
a(S'w'
I733
tp815
a(S'w'
I1
tp816
a(S'w'
I732
tp817
a(S'p1_vo'
I8
tp818
a(S'w'
I1
tp819
a(S'p2_vo'
I10
tp820
a(S'w'
I1
tp821
a(S'w'
I733
tp822
a(S'w'
I1
tp823
a(S'w'
I755
tp824
a(S'p1_vo'
I10
tp825
a(S'p1_tl'
I213
tp826
a(S'p1_ll'
I0
tp827
a(S'w'
I1
tp828
a(S'p2_vo'
I12
tp829
a(S'w'
I1
tp830
a(S'p2_tl'
I142
tp831
a(S'p2_ll'
I0
tp832
a(S'w'
I1
tp833
a(S'tr_tl'
I239
tp834
a(S'tr_ll'
I0
tp835
a(S'w'
I708
tp836
a(S'w'
I1
tp837
a(S'w'
I733
tp838
a(S'p1_vo'
I9
tp839
a(S'w'
I1
tp840
a(S'p2_vo'
I11
tp841
a(S'w'
I733
tp842
a(S'w'
I1
tp843
a(S'w'
I732
tp844
a(S'p1_vo'
I8
tp845
a(S'w'
I1
tp846
a(S'p2_vo'
I10
tp847
a(S'w'
I1
tp848
a(S'w'
I732
tp849
a(S'w'
I2
tp850
a(S'w'
I748
tp851
a(S'p1_vo'
I10
tp852
a(S'w'
I1
tp853
a(S'p1_tl'
I201
tp854
a(S'p1_ll'
I0
tp855
a(S'w'
I1
tp856
a(S'p2_vo'
I12
tp857
a(S'p2_tl'
I150
tp858
a(S'w'
I1
tp859
a(S'p2_ll'
I0
tp860
a(S'w'
I715
tp861
a(S'w'
I1
tp862
a(S'w'
I732
tp863
a(S'p1_vo'
I9
tp864
a(S'w'
I1
tp865
a(S'w'
I1
tp866
a(S'p2_vo'
I11
tp867
a(S'w'
I733
tp868
a(S'w'
I1
tp869
a(S'w'
I732
tp870
a(S'p1_vo'
I8
tp871
a(S'w'
I1
tp872
a(S'p2_vo'
I10
tp873
a(S'w'
I733
tp874
a(S'w'
I1
tp875
a(S'w'
I762
tp876
a(S'p1_vo'
I10
tp877
a(S'p1_tl'
I170
tp878
a(S'p1_ll'
I0
tp879
a(S'p1_th'
I1
tp880
a(S'w'
I1
tp881
a(S'p2_vo'
I12
tp882
a(S'w'
I1
tp883
a(S'p2_tl'
I213
tp884
a(S'p2_ll'
I0
tp885
a(S'w'
I1
tp886
a(S'tr_tl'
I170
tp887
a(S'tr_ll'
I0
tp888
a(S'tr_th'
I1
tp889
a(S'w'
I702
tp890
a(S'w'
I1
tp891
a(S'w'
I732
tp892
a(S'p1_vo'
I9
tp893
a(S'w'
I1
tp894
a(S'p2_vo'
I11
tp895
a(S'w'
I1
tp896
a(S'w'
I733
tp897
a(S'w'
I1
tp898
a(S'w'
I732
tp899
a(S'p1_vo'
I8
tp900
a(S'w'
I1
tp901
a(S'p2_vo'
I10
tp902
a(S'w'
I733
tp903
a(S'w'
I1
tp904
a(S'w'
I750
tp905
a(S'p1_vo'
I10
tp906
a(S'p1_tl'
I147
tp907
a(S'w'
I1
tp908
a(S'p1_ll'
I0
tp909
a(S'w'
I1
tp910
a(S'p2_vo'
I12
tp911
a(S'p2_tl'
I225
tp912
a(S'p2_ll'
I0
tp913
a(S'w'
I715
tp914
a(S'w'
I1
tp915
a(S'w'
I732
tp916
a(S'p1_vo'
I9
tp917
a(S'w'
I1
tp918
a(S'p2_vo'
I11
tp919
a(S'w'
I1
tp920
a(S'w'
I732
tp921
a(S'w'
I1
tp922
a(S'w'
I733
tp923
a(S'p1_vo'
I8
tp924
a(S'w'
I1
tp925
a(S'p2_vo'
I10
tp926
a(S'w'
I733
tp927
a(S'w'
I1
tp928
a(S'w'
I754
tp929
a(S'p1_vo'
I10
tp930
a(S'p1_tl'
I103
tp931
a(S'p1_ll'
I0
tp932
a(S'w'
I1
tp933
a(S'p2_vo'
I12
tp934
a(S'w'
I1
tp935
a(S'p2_tl'
I239
tp936
a(S'p2_ll'
I0
tp937
a(S'w'
I1
tp938
a(S'tr_tl'
I147
tp939
a(S'tr_ll'
I0
tp940
a(S'w'
I709
tp941
a(S'w'
I2
tp942
a(S'w'
I732
tp943
a(S'p1_vo'
I9
tp944
a(S'w'
I1
tp945
a(S'p2_vo'
I11
tp946
a(S'w'
I733
tp947
a(S'w'
I1
tp948
a(S'w'
I732
tp949
a(S'p1_vo'
I8
tp950
a(S'w'
I1
tp951
a(S'p2_vo'
I10
tp952
a(S'w'
I1
tp953
a(S'w'
I733
tp954
a(S'w'
I1
tp955
a(S'w'
I749
tp956
a(S'p1_vo'
I10
tp957
a(S'p1_tl'
I82
tp958
a(S'p1_ll'
I0
tp959
a(S'w'
I1
tp960
a(S'p2_vo'
I12
tp961
a(S'w'
I1
tp962
a(S'p2_tl'
I253
tp963
a(S'p2_ll'
I0
tp964
a(S'w'
I715
tp965
a(S'w'
I1
tp966
a(S'w'
I733
tp967
a(S'p1_vo'
I9
tp968
a(S'w'
I1
tp969
a(S'p2_vo'
I11
tp970
a(S'w'
I733
tp971
a(S'w'
I1
tp972
a(S'w'
I732
tp973
a(S'p1_vo'
I8
tp974
a(S'w'
I1
tp975
a(S'p2_vo'
I10
tp976
a(S'w'
I1
tp977
a(S'w'
I732
tp978
a(S'w'
I1
tp979
a(S'w'
I756
tp980
a(S'p1_vo'
I10
tp981
a(S'p1_tl'
I170
tp982
a(S'p1_ll'
I0
tp983
a(S'w'
I1
tp984
a(S'p2_vo'
I12
tp985
a(S'w'
I1
tp986
a(S'p2_tl'
I213
tp987
a(S'p2_ll'
I0
tp988
a(S'w'
I1
tp989
a(S'tr_tl'
I170
tp990
a(S'tr_ll'
I0
tp991
a(S'w'
I708
tp992
a(S'w'
I1
tp993
a(S'w'
I733
tp994
a(S'p1_vo'
I9
tp995
a(S'w'
I1
tp996
a(S'p2_vo'
I11
tp997
a(S'w'
I733
tp998
a(S'w'
I1
tp999
a(S'w'
I732
tp1000
a(S'p1_vo'
I8
tp1001
a(S'w'
I1
tp1002
a(S'p2_vo'
I10
tp1003
a(S'w'
I1
tp1004
a(S'w'
I732
tp1005
a(S'w'
I1
tp1006
a(S'w'
I750
tp1007
a(S'p1_vo'
I10
tp1008
a(S'w'
I1
tp1009
a(S'p1_tl'
I147
tp1010
a(S'p1_ll'
I0
tp1011
a(S'w'
I1
tp1012
a(S'p2_vo'
I12
tp1013
a(S'p2_tl'
I225
tp1014
a(S'p2_ll'
I0
tp1015
a(S'w'
I715
tp1016
a(S'w'
I1
tp1017
a(S'w'
I732
tp1018
a(S'p1_vo'
I9
tp1019
a(S'w'
I1
tp1020
a(S'p2_vo'
I11
tp1021
a(S'w'
I1
tp1022
a(S'w'
I732
tp1023
a(S'w'
I2
tp1024
a(S'w'
I732
tp1025
a(S'p1_vo'
I8
tp1026
a(S'w'
I1
tp1027
a(S'p2_vo'
I10
tp1028
a(S'w'
I733
tp1029
a(S'w'
I1
tp1030
a(S'w'
I754
tp1031
a(S'p1_vo'
I10
tp1032
a(S'p1_tl'
I103
tp1033
a(S'w'
I1
tp1034
a(S'p1_ll'
I0
tp1035
a(S'w'
I1
tp1036
a(S'p2_vo'
I12
tp1037
a(S'p2_tl'
I239
tp1038
a(S'p2_ll'
I0
tp1039
a(S'w'
I1
tp1040
a(S'tr_tl'
I147
tp1041
a(S'tr_ll'
I0
tp1042
a(S'w'
I710
tp1043
a(S'w'
I1
tp1044
a(S'w'
I732
tp1045
a(S'p1_vo'
I9
tp1046
a(S'w'
I1
tp1047
a(S'p2_vo'
I11
tp1048
a(S'w'
I1
tp1049
a(S'w'
I732
tp1050
a(S'w'
I1
tp1051
a(S'w'
I733
tp1052
a(S'p1_vo'
I8
tp1053
a(S'w'
I1
tp1054
a(S'p2_vo'
I10
tp1055
a(S'w'
I733
tp1056
a(S'w'
I1
tp1057
a(S'w'
I749
tp1058
a(S'p1_vo'
I10
tp1059
a(S'p1_tl'
I82
tp1060
a(S'p1_ll'
I0
tp1061
a(S'w'
I1
tp1062
a(S'p2_vo'
I12
tp1063
a(S'w'
I1
tp1064
a(S'p2_tl'
I253
tp1065
a(S'p2_ll'
I0
tp1066
a(S'w'
I716
tp1067
a(S'w'
I1
tp1068
a(S'w'
I732
tp1069
a(S'p1_vo'
I9
tp1070
a(S'w'
I1
tp1071
a(S'p2_vo'
I11
tp1072
a(S'w'
I733
tp1073
a(S'w'
I1
tp1074
a(S'w'
I732
tp1075
a(S'p1_vo'
I8
tp1076
a(S'w'
I1
tp1077
a(S'w'
I1
tp1078
a(S'p2_vo'
I10
tp1079
a(S'w'
I733
tp1080
a(S'w'
I1
tp1081
a(S'w'
I755
tp1082
a(S'p1_vo'
I10
tp1083
a(S'p1_tl'
I103
tp1084
a(S'p1_ll'
I0
tp1085
a(S'w'
I1
tp1086
a(S'p2_vo'
I12
tp1087
a(S'w'
I1
tp1088
a(S'p2_tl'
I179
tp1089
a(S'p2_ll'
I0
tp1090
a(S'w'
I1
tp1091
a(S'tr_tl'
I103
tp1092
a(S'tr_ll'
I0
tp1093
a(S'w'
I708
tp1094
a(S'w'
I1
tp1095
a(S'w'
I733
tp1096
a(S'p1_vo'
I9
tp1097
a(S'w'
I1
tp1098
a(S'p2_vo'
I11
tp1099
a(S'w'
I733
tp1100
a(S'w'
I1
tp1101
a(S'w'
I732
tp1102
a(S'p1_vo'
I8
tp1103
a(S'w'
I1
tp1104
a(S'p2_vo'
I10
tp1105
a(S'w'
I1
tp1106
a(S'w'
I732
tp1107
a(S'w'
I2
tp1108
a(S'w'
I748
tp1109
a(S'p1_vo'
I10
tp1110
a(S'w'
I1
tp1111
a(S'p1_tl'
I82
tp1112
a(S'p1_ll'
I0
tp1113
a(S'w'
I1
tp1114
a(S'p2_vo'
I12
tp1115
a(S'p2_tl'
I190
tp1116
a(S'p2_ll'
I0
tp1117
a(S'w'
I716
tp1118
a(S'w'
I1
tp1119
a(S'w'
I733
tp1120
a(S'p1_vo'
I9
tp1121
a(S'w'
I1
tp1122
a(S'p2_vo'
I11
tp1123
a(S'w'
I733
tp1124
a(S'w'
I1
tp1125
a(S'w'
I732
tp1126
a(S'p1_vo'
I8
tp1127
a(S'w'
I1
tp1128
a(S'p2_vo'
I10
tp1129
a(S'w'
I1
tp1130
a(S'w'
I732
tp1131
a(S'w'
I1
tp1132
a(S'w'
I754
tp1133
a(S'p1_vo'
I10
tp1134
a(S'w'
I1
tp1135
a(S'p1_tl'
I45
tp1136
a(S'p1_ll'
I0
tp1137
a(S'w'
I1
tp1138
a(S'p2_vo'
I12
tp1139
a(S'p2_tl'
I201
tp1140
a(S'p2_ll'
I0
tp1141
a(S'w'
I1
tp1142
a(S'tr_tl'
I82
tp1143
a(S'w'
I1
tp1144
a(S'tr_ll'
I0
tp1145
a(S'w'
I709
tp1146
a(S'w'
I1
tp1147
a(S'w'
I732
tp1148
a(S'p1_vo'
I9
tp1149
a(S'w'
I1
tp1150
a(S'p2_vo'
I11
tp1151
a(S'w'
I1
tp1152
a(S'w'
I733
tp1153
a(S'w'
I1
tp1154
a(S'w'
I732
tp1155
a(S'p1_vo'
I8
tp1156
a(S'w'
I1
tp1157
a(S'p2_vo'
I10
tp1158
a(S'w'
I733
tp1159
a(S'w'
I1
tp1160
a(S'w'
I749
tp1161
a(S'p1_vo'
I10
tp1162
a(S'p1_tl'
I28
tp1163
a(S'p1_ll'
I0
tp1164
a(S'w'
I1
tp1165
a(S'p2_vo'
I12
tp1166
a(S'w'
I1
tp1167
a(S'p2_tl'
I213
tp1168
a(S'p2_ll'
I0
tp1169
a(S'w'
I716
tp1170
a(S'w'
I1
tp1171
a(S'w'
I732
tp1172
a(S'p1_vo'
I9
tp1173
a(S'w'
I1
tp1174
a(S'p2_vo'
I11
tp1175
a(S'w'
I1
tp1176
a(S'w'
I732
tp1177
a(S'w'
I1
tp1178
a(S'w'
I733
tp1179
a(S'p1_vo'
I8
tp1180
a(S'w'
I1
tp1181
a(S'p2_vo'
I10
tp1182
a(S'w'
I733
tp1183
a(S'w'
I1
tp1184
a(S'w'
I754
tp1185
a(S'p1_vo'
I10
tp1186
a(S'p1_tl'
I103
tp1187
a(S'p1_ll'
I0
tp1188
a(S'w'
I1
tp1189
a(S'p2_vo'
I12
tp1190
a(S'w'
I1
tp1191
a(S'p2_tl'
I179
tp1192
a(S'p2_ll'
I0
tp1193
a(S'w'
I1
tp1194
a(S'tr_tl'
I103
tp1195
a(S'tr_ll'
I0
tp1196
a(S'w'
I710
tp1197
a(S'w'
I1
tp1198
a(S'w'
I732
tp1199
a(S'p1_vo'
I9
tp1200
a(S'w'
I1
tp1201
a(S'p2_vo'
I11
tp1202
a(S'w'
I733
tp1203
a(S'w'
I1
tp1204
a(S'w'
I732
tp1205
a(S'p1_vo'
I8
tp1206
a(S'w'
I1
tp1207
a(S'w'
I1
tp1208
a(S'p2_vo'
I10
tp1209
a(S'w'
I733
tp1210
a(S'w'
I1
tp1211
a(S'w'
I748
tp1212
a(S'p1_vo'
I10
tp1213
a(S'w'
I1
tp1214
a(S'p1_tl'
I82
tp1215
a(S'p1_ll'
I0
tp1216
a(S'w'
I1
tp1217
a(S'p2_vo'
I12
tp1218
a(S'p2_tl'
I190
tp1219
a(S'w'
I1
tp1220
a(S'p2_ll'
I0
tp1221
a(S'w'
I715
tp1222
a(S'w'
I2
tp1223
a(S'w'
I732
tp1224
a(S'p1_vo'
I9
tp1225
a(S'w'
I1
tp1226
a(S'p2_vo'
I11
tp1227
a(S'w'
I733
tp1228
a(S'w'
I1
tp1229
a(S'w'
I732
tp1230
a(S'p1_vo'
I8
tp1231
a(S'w'
I1
tp1232
a(S'p2_vo'
I10
tp1233
a(S'w'
I1
tp1234
a(S'w'
I732
tp1235
a(S'w'
I2
tp1236
a(S'w'
I753
tp1237
a(S'p1_vo'
I10
tp1238
a(S'w'
I1
tp1239
a(S'p1_tl'
I45
tp1240
a(S'p1_ll'
I0
tp1241
a(S'w'
I1
tp1242
a(S'p2_vo'
I12
tp1243
a(S'p2_tl'
I201
tp1244
a(S'w'
I1
tp1245
a(S'p2_ll'
I0
tp1246
a(S'w'
I1
tp1247
a(S'tr_tl'
I82
tp1248
a(S'tr_ll'
I0
tp1249
a(S'w'
I709
tp1250
a(S'w'
I1
tp1251
a(S'w'
I733
tp1252
a(S'p1_vo'
I9
tp1253
a(S'w'
I1
tp1254
a(S'p2_vo'
I11
tp1255
a(S'w'
I733
tp1256
a(S'w'
I1
tp1257
a(S'w'
I732
tp1258
a(S'p1_vo'
I8
tp1259
a(S'w'
I1
tp1260
a(S'p2_vo'
I10
tp1261
a(S'w'
I1
tp1262
a(S'w'
I732
tp1263
a(S'w'
I1
tp1264
a(S'w'
I749
tp1265
a(S'p1_vo'
I10
tp1266
a(S'p1_tl'
I28
tp1267
a(S'w'
I1
tp1268
a(S'p1_ll'
I0
tp1269
a(S'w'
I1
tp1270
a(S'p2_vo'
I12
tp1271
a(S'p2_tl'
I213
tp1272
a(S'p2_ll'
I0
tp1273
a(S'w'
I716
tp1274
a(S'w'
I1
tp1275
a(S'w'
I732
tp1276
a(S'p1_vo'
I9
tp1277
a(S'w'
I1
tp1278
a(S'w'
I1
tp1279
a(S'p2_vo'
I11
tp1280
a(S'w'
I733
tp1281
a(S'w'
I1
tp1282
a(S'w'
I732
tp1283
a(S'p1_vo'
I8
tp1284
a(S'w'
I1
tp1285
a(S'p2_vo'
I10
tp1286
a(S'w'
I733
tp1287
a(S'w'
I1
tp1288
a(S'w'
I754
tp1289
a(S'p1_vo'
I10
tp1290
a(S'p1_tl'
I45
tp1291
a(S'w'
I1
tp1292
a(S'p1_ll'
I0
tp1293
a(S'w'
I1
tp1294
a(S'p2_vo'
I12
tp1295
a(S'p2_tl'
I150
tp1296
a(S'p2_ll'
I0
tp1297
a(S'w'
I1
tp1298
a(S'tr_tl'
I45
tp1299
a(S'tr_ll'
I0
tp1300
a(S'w'
I710
tp1301
a(S'w'
I1
tp1302
a(S'w'
I732
tp1303
a(S'p1_vo'
I9
tp1304
a(S'w'
I1
tp1305
a(S'p2_vo'
I11
tp1306
a(S'w'
I1
tp1307
a(S'w'
I732
tp1308
a(S'w'
I1
tp1309
a(S'w'
I733
tp1310
a(S'p1_vo'
I8
tp1311
a(S'w'
I1
tp1312
a(S'p2_vo'
I10
tp1313
a(S'w'
I733
tp1314
a(S'w'
I1
tp1315
a(S'w'
I749
tp1316
a(S'p1_vo'
I10
tp1317
a(S'p1_tl'
I28
tp1318
a(S'p1_ll'
I0
tp1319
a(S'w'
I1
tp1320
a(S'p2_vo'
I12
tp1321
a(S'w'
I1
tp1322
a(S'p2_tl'
I159
tp1323
a(S'p2_ll'
I0
tp1324
a(S'w'
I716
tp1325
a(S'w'
I1
tp1326
a(S'w'
I732
tp1327
a(S'p1_vo'
I9
tp1328
a(S'w'
I1
tp1329
a(S'p2_vo'
I11
tp1330
a(S'w'
I1
tp1331
a(S'w'
I732
tp1332
a(S'w'
I1
tp1333
a(S'w'
I732
tp1334
a(S'p1_vo'
I8
tp1335
a(S'w'
I1
tp1336
a(S'w'
I1
tp1337
a(S'p2_vo'
I10
tp1338
a(S'w'
I733
tp1339
a(S'w'
I1
tp1340
a(S'w'
I754
tp1341
a(S'p1_vo'
I10
tp1342
a(S'p1_tl'
I253
tp1343
a(S'p1_ll'
I0
tp1344
a(S'p1_th'
I0
tp1345
a(S'w'
I1
tp1346
a(S'p2_vo'
I12
tp1347
a(S'w'
I1
tp1348
a(S'p2_tl'
I169
tp1349
a(S'p2_ll'
I0
tp1350
a(S'w'
I1
tp1351
a(S'tr_tl'
I28
tp1352
a(S'tr_ll'
I0
tp1353
a(S'w'
I709
tp1354
a(S'w'
I2
tp1355
a(S'w'
I732
tp1356
a(S'p1_vo'
I9
tp1357
a(S'w'
I1
tp1358
a(S'p2_vo'
I11
tp1359
a(S'w'
I733
tp1360
a(S'w'
I1
tp1361
a(S'w'
I732
tp1362
a(S'p1_vo'
I8
tp1363
a(S'w'
I1
tp1364
a(S'p2_vo'
I10
tp1365
a(S'w'
I1
tp1366
a(S'w'
I733
tp1367
a(S'w'
I1
tp1368
a(S'w'
I748
tp1369
a(S'p1_vo'
I10
tp1370
a(S'w'
I1
tp1371
a(S'p1_tl'
I239
tp1372
a(S'p1_ll'
I0
tp1373
a(S'w'
I1
tp1374
a(S'p2_vo'
I12
tp1375
a(S'p2_tl'
I179
tp1376
a(S'w'
I1
tp1377
a(S'p2_ll'
I0
tp1378
a(S'w'
I715
tp1379
a(S'w'
I1
tp1380
a(S'w'
I733
tp1381
a(S'p1_vo'
I9
tp1382
a(S'w'
I1
tp1383
a(S'p2_vo'
I11
tp1384
a(S'w'
I733
tp1385
a(S'w'
I1
tp1386
a(S'w'
I732
tp1387
a(S'p1_vo'
I8
tp1388
a(S'w'
I1
tp1389
a(S'p2_vo'
I10
tp1390
a(S'w'
I1
tp1391
a(S'w'
I732
tp1392
a(S'w'
I1
tp1393
a(S'w'
I754
tp1394
a(S'p1_vo'
I10
tp1395
a(S'w'
I1
tp1396
a(S'p1_tl'
I45
tp1397
a(S'p1_ll'
I0
tp1398
a(S'p1_th'
I1
tp1399
a(S'w'
I1
tp1400
a(S'p2_vo'
I12
tp1401
a(S'p2_tl'
I150
tp1402
a(S'p2_ll'
I0
tp1403
a(S'w'
I1
tp1404
a(S'tr_tl'
I45
tp1405
a(S'w'
I1
tp1406
a(S'tr_ll'
I0
tp1407
a(S'w'
I709
tp1408
a(S'w'
I1
tp1409
a(S'w'
I732
tp1410
a(S'p1_vo'
I9
tp1411
a(S'w'
I1
tp1412
a(S'w'
I1
tp1413
a(S'p2_vo'
I11
tp1414
a(S'w'
I733
tp1415
a(S'w'
I1
tp1416
a(S'w'
I732
tp1417
a(S'p1_vo'
I8
tp1418
a(S'w'
I1
tp1419
a(S'p2_vo'
I10
tp1420
a(S'w'
I733
tp1421
a(S'w'
I1
tp1422
a(S'w'
I749
tp1423
a(S'p1_vo'
I10
tp1424
a(S'p1_tl'
I28
tp1425
a(S'w'
I1
tp1426
a(S'p1_ll'
I0
tp1427
a(S'w'
I1
tp1428
a(S'p2_vo'
I12
tp1429
a(S'p2_tl'
I159
tp1430
a(S'p2_ll'
I0
tp1431
a(S'w'
I716
tp1432
a(S'w'
I1
tp1433
a(S'w'
I732
tp1434
a(S'p1_vo'
I9
tp1435
a(S'w'
I1
tp1436
a(S'p2_vo'
I11
tp1437
a(S'w'
I1
tp1438
a(S'w'
I732
tp1439
a(S'w'
I2
tp1440
a(S'w'
I732
tp1441
a(S'p1_vo'
I8
tp1442
a(S'w'
I1
tp1443
a(S'p2_vo'
I10
tp1444
a(S'w'
I733
tp1445
a(S'w'
I1
tp1446
a(S'w'
I754
tp1447
a(S'p1_vo'
I10
tp1448
a(S'p1_tl'
I253
tp1449
a(S'p1_ll'
I0
tp1450
a(S'p1_th'
I0
tp1451
a(S'w'
I1
tp1452
a(S'p2_vo'
I12
tp1453
a(S'w'
I1
tp1454
a(S'p2_tl'
I169
tp1455
a(S'p2_ll'
I0
tp1456
a(S'w'
I1
tp1457
a(S'tr_tl'
I28
tp1458
a(S'tr_ll'
I0
tp1459
a(S'w'
I710
tp1460
a(S'w'
I1
tp1461
a(S'w'
I732
tp1462
a(S'p1_vo'
I9
tp1463
a(S'w'
I1
tp1464
a(S'p2_vo'
I11
tp1465
a(S'w'
I1
tp1466
a(S'w'
I732
tp1467
a(S'w'
I1
tp1468
a(S'w'
I733
tp1469
a(S'p1_vo'
I8
tp1470
a(S'w'
I1
tp1471
a(S'p2_vo'
I10
tp1472
a(S'w'
I733
tp1473
a(S'w'
I1
tp1474
a(S'w'
I749
tp1475
a(S'p1_vo'
I10
tp1476
a(S'p1_tl'
I239
tp1477
a(S'p1_ll'
I0
tp1478
a(S'w'
I1
tp1479
a(S'p2_vo'
I12
tp1480
a(S'w'
I1
tp1481
a(S'p2_tl'
I179
tp1482
a(S'p2_ll'
I0
tp1483
a(S'w'
I715
tp1484
a(S'w'
I2
tp1485
a(S'w'
I732
tp1486
a(S'p1_vo'
I9
tp1487
a(S'w'
I1
tp1488
a(S'p2_vo'
I11
tp1489
a(S'w'
I733
tp1490
a(S'w'
I1
tp1491
a(S'w'
I732
tp1492
a(S'p1_vo'
I8
tp1493
a(S'w'
I1
tp1494
a(S'p2_vo'
I10
tp1495
a(S'w'
I1
tp1496
a(S'w'
I733
tp1497
a(S'w'
I1
tp1498
a(S'w'
I753
tp1499
a(S'p1_vo'
I10
tp1500
a(S'w'
I1
tp1501
a(S'p1_tl'
I253
tp1502
a(S'p1_ll'
I0
tp1503
a(S'w'
I1
tp1504
a(S'p2_vo'
I12
tp1505
a(S'p2_tl'
I126
tp1506
a(S'w'
I1
tp1507
a(S'p2_ll'
I0
tp1508
a(S'w'
I1
tp1509
a(S'tr_tl'
I253
tp1510
a(S'tr_ll'
I0
tp1511
a(S'tr_th'
I0
tp1512
a(S'w'
I709
tp1513
a(S'w'
I1
tp1514
a(S'w'
I733
tp1515
a(S'p1_vo'
I9
tp1516
a(S'w'
I1
tp1517
a(S'p2_vo'
I11
tp1518
a(S'w'
I733
tp1519
a(S'w'
I1
tp1520
a(S'w'
I732
tp1521
a(S'p1_vo'
I8
tp1522
a(S'w'
I1
tp1523
a(S'p2_vo'
I10
tp1524
a(S'w'
I1
tp1525
a(S'w'
I732
tp1526
a(S'w'
I2
tp1527
a(S'w'
I748
tp1528
a(S'p1_vo'
I10
tp1529
a(S'w'
I1
tp1530
a(S'p1_tl'
I239
tp1531
a(S'p1_ll'
I0
tp1532
a(S'w'
I1
tp1533
a(S'p2_vo'
I12
tp1534
a(S'p2_tl'
I134
tp1535
a(S'w'
I1
tp1536
a(S'p2_ll'
I0
tp1537
a(S'w'
I715
tp1538
a(S'w'
I1
tp1539
a(S'w'
I732
tp1540
a(S'p1_vo'
I9
tp1541
a(S'w'
I1
tp1542
a(S'w'
I1
tp1543
a(S'p2_vo'
I11
tp1544
a(S'w'
I733
tp1545
a(S'w'
I1
tp1546
a(S'w'
I732
tp1547
a(S'p1_vo'
I8
tp1548
a(S'w'
I1
tp1549
a(S'p2_vo'
I10
tp1550
a(S'w'
I1
tp1551
a(S'w'
I732
tp1552
a(S'w'
I1
tp1553
a(S'w'
I755
tp1554
a(S'p1_vo'
I10
tp1555
a(S'w'
I1
tp1556
a(S'p1_tl'
I213
tp1557
a(S'p1_ll'
I0
tp1558
a(S'w'
I1
tp1559
a(S'p2_vo'
I12
tp1560
a(S'p2_tl'
I142
tp1561
a(S'p2_ll'
I0
tp1562
a(S'w'
I2
tp1563
a(S'tr_tl'
I239
tp1564
a(S'tr_ll'
I0
tp1565
a(S'w'
I708
tp1566
a(S'w'
I1
tp1567
a(S'w'
I732
tp1568
a(S'p1_vo'
I9
tp1569
a(S'w'
I1
tp1570
a(S'p2_vo'
I11
tp1571
a(S'w'
I1
tp1572
a(S'w'
I732
tp1573
a(S'w'
I2
tp1574
a(S'w'
I732
tp1575
a(S'p1_vo'
I8
tp1576
a(S'w'
I1
tp1577
a(S'p2_vo'
I10
tp1578
a(S'w'
I733
tp1579
a(S'w'
I1
tp1580
a(S'w'
I749
tp1581
a(S'p1_vo'
I10
tp1582
a(S'p1_tl'
I201
tp1583
a(S'w'
I1
tp1584
a(S'p1_ll'
I0
tp1585
a(S'w'
I1
tp1586
a(S'p2_vo'
I12
tp1587
a(S'p2_tl'
I150
tp1588
a(S'p2_ll'
I0
tp1589
a(S'w'
I716
tp1590
a(S'w'
I1
tp1591
a(S'w'
I732
tp1592
a(S'p1_vo'
I9
tp1593
a(S'w'
I1
tp1594
a(S'p2_vo'
I11
tp1595
a(S'w'
I1
tp1596
a(S'w'
I732
tp1597
a(S'w'
I1
tp1598
a(S'w'
I733
tp1599
a(S'p1_vo'
I8
tp1600
a(S'w'
I1
tp1601
a(S'p2_vo'
I10
tp1602
a(S'w'
I733
tp1603
a(S'w'
I1
tp1604
a(S'w'
I755
tp1605
a(S'p1_vo'
I10
tp1606
a(S'p1_tl'
I253
tp1607
a(S'p1_ll'
I0
tp1608
a(S'w'
I2
tp1609
a(S'p2_vo'
I12
tp1610
a(S'p2_tl'
I126
tp1611
a(S'p2_ll'
I0
tp1612
a(S'w'
I1
tp1613
a(S'tr_tl'
I253
tp1614
a(S'tr_ll'
I0
tp1615
a(S'w'
I709
tp1616
a(S'w'
I1
tp1617
a(S'w'
I732
tp1618
a(S'p1_vo'
I9
tp1619
a(S'w'
I1
tp1620
a(S'p2_vo'
I11
tp1621
a(S'w'
I733
tp1622
a(S'w'
I1
tp1623
a(S'w'
I732
tp1624
a(S'p1_vo'
I8
tp1625
a(S'w'
I1
tp1626
a(S'w'
I1
tp1627
a(S'p2_vo'
I10
tp1628
a(S'w'
I733
tp1629
a(S'w'
I1
tp1630
a(S'w'
I749
tp1631
a(S'p1_vo'
I10
tp1632
a(S'p1_tl'
I239
tp1633
a(S'p1_ll'
I0
tp1634
a(S'w'
I1
tp1635
a(S'p2_vo'
I12
tp1636
a(S'w'
I1
tp1637
a(S'p2_tl'
I134
tp1638
a(S'p2_ll'
I0
tp1639
a(S'w'
I715
tp1640
a(S'w'
I1
tp1641
a(S'w'
I733
tp1642
a(S'p1_vo'
I9
tp1643
a(S'w'
I1
tp1644
a(S'p2_vo'
I11
tp1645
a(S'w'
I733
tp1646
a(S'w'
I1
tp1647
a(S'w'
I732
tp1648
a(S'p1_vo'
I8
tp1649
a(S'w'
I1
tp1650
a(S'p2_vo'
I10
tp1651
a(S'w'
I1
tp1652
a(S'w'
I732
tp1653
a(S'w'
I2
tp1654
a(S'w'
I755
tp1655
a(S'p1_vo'
I10
tp1656
a(S'p1_tl'
I213
tp1657
a(S'p1_ll'
I0
tp1658
a(S'w'
I1
tp1659
a(S'p2_vo'
I12
tp1660
a(S'p2_tl'
I142
tp1661
a(S'w'
I1
tp1662
a(S'p2_ll'
I0
tp1663
a(S'w'
I1
tp1664
a(S'tr_tl'
I239
tp1665
a(S'tr_ll'
I0
tp1666
a(S'w'
I708
tp1667
a(S'w'
I1
tp1668
a(S'w'
I733
tp1669
a(S'p1_vo'
I9
tp1670
a(S'w'
I1
tp1671
a(S'p2_vo'
I11
tp1672
a(S'w'
I733
tp1673
a(S'w'
I1
tp1674
a(S'w'
I732
tp1675
a(S'p1_vo'
I8
tp1676
a(S'w'
I1
tp1677
a(S'p2_vo'
I10
tp1678
a(S'w'
I1
tp1679
a(S'w'
I732
tp1680
a(S'w'
I1
tp1681
a(S'w'
I749
tp1682
a(S'p1_vo'
I10
tp1683
a(S'w'
I1
tp1684
a(S'p1_tl'
I201
tp1685
a(S'p1_ll'
I0
tp1686
a(S'w'
I1
tp1687
a(S'p2_vo'
I12
tp1688
a(S'p2_tl'
I150
tp1689
a(S'p2_ll'
I0
tp1690
a(S'w'
I716
tp1691
a(S'w'
I1
tp1692
a(S'w'
I732
tp1693
a(S'p1_vo'
I9
tp1694
a(S'w'
I1
tp1695
a(S'p2_vo'
I11
tp1696
a(S'w'
I1
tp1697
a(S'w'
I733
tp1698
a(S'w'
I1
tp1699
a(S'w'
I732
tp1700
a(S'p1_vo'
I8
tp1701
a(S'w'
I1
tp1702
a(S'p2_vo'
I10
tp1703
a(S'w'
I733
tp1704
a(S'w'
I1
tp1705
a(S'w'
I766
tp1706
a(S'p1_vo'
I10
tp1707
a(S'p1_tl'
I170
tp1708
a(S'p1_ll'
I0
tp1709
a(S'p1_th'
I1
tp1710
a(S'w'
I1
tp1711
a(S'p2_vo'
I6
tp1712
a(S'w'
I1
tp1713
a(S'p2_tl'
I213
tp1714
a(S'p2_ll'
I0
tp1715
a(S'w'
I1
tp1716
a(S'tr_tl'
I170
tp1717
a(S'tr_ll'
I0
tp1718
a(S'tr_th'
I1
tp1719
a(S'w'
I698
tp1720
a(S'p2_vo'
I8
tp1721
a(S'w'
I1
tp1722
a(S'w'
I740
tp1723
a(S'p1_vo'
I9
tp1724
a(S'w'
I1
tp1725
a(S'w'
I1
tp1726
a(S'p2_vo'
I6
tp1727
a(S'p2_tl'
I159
tp1728
a(S'p2_ll'
I0
tp1729
a(S'w'
I724
tp1730
a(S'w'
I1
tp1731
a(S'p2_vo'
I8
tp1732
a(S'w'
I741
tp1733
a(S'p1_vo'
I8
tp1734
a(S'w'
I1
tp1735
a(S'p2_vo'
I6
tp1736
a(S'w'
I1
tp1737
a(S'p2_tl'
I142
tp1738
a(S'p2_ll'
I0
tp1739
a(S'w'
I724
tp1740
a(S'w'
I1
tp1741
a(S'p2_vo'
I8
tp1742
a(S'w'
I751
tp1743
a(S'p1_vo'
I10
tp1744
a(S'p1_tl'
I147
tp1745
a(S'p1_ll'
I0
tp1746
a(S'w'
I1
tp1747
a(S'p2_vo'
I6
tp1748
a(S'w'
I1
tp1749
a(S'p2_tl'
I106
tp1750
a(S'p2_ll'
I0
tp1751
a(S'w'
I714
tp1752
a(S'p2_vo'
I8
tp1753
a(S'w'
I1
tp1754
a(S'w'
I732
tp1755
a(S'p1_vo'
I9
tp1756
a(S'w'
I1
tp1757
a(S'p2_vo'
I10
tp1758
a(S'w'
I733
tp1759
a(S'w'
I1
tp1760
a(S'p2_vo'
I12
tp1761
a(S'w'
I733
tp1762
a(S'p1_vo'
I8
tp1763
a(S'w'
I1
tp1764
a(S'p2_vo'
I14
tp1765
a(S'w'
I735
tp1766
a(S'w'
I1
tp1767
a(S'w'
I747
tp1768
a(S'p1_vo'
I10
tp1769
a(S'w'
I1
tp1770
a(S'p1_tl'
I103
tp1771
a(S'p1_ll'
I0
tp1772
a(S'w'
I1
tp1773
a(S'w'
I1
tp1774
a(S'tr_tl'
I147
tp1775
a(S'tr_ll'
I0
tp1776
a(S'w'
I716
tp1777
a(S'w'
I1
tp1778
a(S'p2_vo'
I13
tp1779
a(S'w'
I732
tp1780
a(S'p1_vo'
I9
tp1781
a(S'w'
I1
tp1782
a(S'w'
I1
tp1783
a(S'w'
I733
tp1784
a(S'w'
I1
tp1785
a(S'p2_vo'
I14
tp1786
a(S'w'
I732
tp1787
a(S'p1_vo'
I8
tp1788
a(S'w'
I1
tp1789
a(S'w'
I733
tp1790
a(S'w'
I1
tp1791
a(S'p2_vo'
I13
tp1792
a(S'w'
I1
tp1793
a(S'w'
I740
tp1794
a(S'p1_vo'
I10
tp1795
a(S'p1_tl'
I82
tp1796
a(S'p1_ll'
I0
tp1797
a(S'w'
I1
tp1798
a(S'w'
I725
tp1799
a(S'w'
I1
tp1800
a(S'p2_vo'
I14
tp1801
a(S'w'
I1
tp1802
a(S'w'
I731
tp1803
a(S'p1_vo'
I9
tp1804
a(S'w'
I1
tp1805
a(S'w'
I734
tp1806
a(S'p2_vo'
I13
tp1807
a(S'w'
I1
tp1808
a(S'w'
I732
tp1809
a(S'p1_vo'
I8
tp1810
a(S'w'
I1
tp1811
a(S'w'
I734
tp1812
a(S'p2_vo'
I14
tp1813
a(S'w'
I1
tp1814
a(S'w'
I745
tp1815
a(S'p1_vo'
I10
tp1816
a(S'p1_tl'
I170
tp1817
a(S'p1_ll'
I0
tp1818
a(S'w'
I1
tp1819
a(S'w'
I1
tp1820
a(S'tr_tl'
I170
tp1821
a(S'tr_ll'
I0
tp1822
a(S'w'
I719
tp1823
a(S'w'
I1
tp1824
a(S'p2_vo'
I13
tp1825
a(S'w'
I732
tp1826
a(S'p1_vo'
I9
tp1827
a(S'w'
I1
tp1828
a(S'w'
I734
tp1829
a(S'w'
I1
tp1830
a(S'p2_vo'
I14
tp1831
a(S'w'
I731
tp1832
a(S'p1_vo'
I8
tp1833
a(S'w'
I1
tp1834
a(S'w'
I1
tp1835
a(S'w'
I733
tp1836
a(S'w'
I1
tp1837
a(S'p2_vo'
I13
tp1838
a(S'w'
I742
tp1839
a(S'p1_vo'
I10
tp1840
a(S'p1_tl'
I147
tp1841
a(S'p1_ll'
I0
tp1842
a(S'w'
I1
tp1843
a(S'p2_vo'
I12
tp1844
a(S'w'
I1
tp1845
a(S'p2_tl'
I105
tp1846
a(S'w'
I723
tp1847
a(S'w'
I1
tp1848
a(S'p2_vo'
I13
tp1849
a(S'w'
I732
tp1850
a(S'p1_vo'
I9
tp1851
a(S'w'
I1
tp1852
a(S'w'
I733
tp1853
a(S'w'
I1
tp1854
a(S'p2_vo'
I12
tp1855
a(S'w'
I732
tp1856
a(S'p1_vo'
I8
tp1857
a(S'w'
I2
tp1858
a(S'w'
I733
tp1859
a(S'w'
I1
tp1860
a(S'p2_vo'
I13
tp1861
a(S'w'
I746
tp1862
a(S'p1_vo'
I10
tp1863
a(S'w'
I1
tp1864
a(S'p1_tl'
I103
tp1865
a(S'p1_ll'
I0
tp1866
a(S'w'
I1
tp1867
a(S'p2_tl'
I106
tp1868
a(S'w'
I1
tp1869
a(S'tr_tl'
I147
tp1870
a(S'tr_ll'
I0
tp1871
a(S'w'
I718
tp1872
a(S'p2_vo'
I12
tp1873
a(S'w'
I1
tp1874
a(S'w'
I731
tp1875
a(S'p1_vo'
I9
tp1876
a(S'w'
I1
tp1877
a(S'w'
I1
tp1878
a(S'w'
I733
tp1879
a(S'w'
I1
tp1880
a(S'p2_vo'
I13
tp1881
a(S'w'
I1
tp1882
a(S'w'
I731
tp1883
a(S'p1_vo'
I8
tp1884
a(S'w'
I1
tp1885
a(S'w'
I734
tp1886
a(S'p2_vo'
I12
tp1887
a(S'w'
I1
tp1888
a(S'w'
I741
tp1889
a(S'p1_vo'
I10
tp1890
a(S'w'
I1
tp1891
a(S'p1_tl'
I82
tp1892
a(S'p1_ll'
I0
tp1893
a(S'w'
I1
tp1894
a(S'p2_tl'
I105
tp1895
a(S'w'
I724
tp1896
a(S'p2_vo'
I13
tp1897
a(S'w'
I1
tp1898
a(S'w'
I731
tp1899
a(S'p1_vo'
I9
tp1900
a(S'w'
I1
tp1901
a(S'w'
I1
tp1902
a(S'w'
I733
tp1903
a(S'w'
I1
tp1904
a(S'p2_vo'
I12
tp1905
a(S'w'
I732
tp1906
a(S'p1_vo'
I8
tp1907
a(S'w'
I1
tp1908
a(S'w'
I734
tp1909
a(S'w'
I1
tp1910
a(S'p2_vo'
I13
tp1911
a(S'w'
I746
tp1912
a(S'p1_vo'
I10
tp1913
a(S'p1_tl'
I103
tp1914
a(S'w'
I1
tp1915
a(S'p1_ll'
I0
tp1916
a(S'w'
I1
tp1917
a(S'p2_tl'
I106
tp1918
a(S'w'
I1
tp1919
a(S'tr_tl'
I103
tp1920
a(S'tr_ll'
I0
tp1921
a(S'w'
I717
tp1922
a(S'w'
I1
tp1923
a(S'p2_vo'
I12
tp1924
a(S'w'
I732
tp1925
a(S'p1_vo'
I9
tp1926
a(S'w'
I1
tp1927
a(S'p2_vo'
I11
tp1928
a(S'w'
I1
tp1929
a(S'w'
I733
tp1930
a(S'w'
I1
tp1931
a(S'p2_vo'
I12
tp1932
a(S'w'
I732
tp1933
a(S'p1_vo'
I8
tp1934
a(S'w'
I1
tp1935
a(S'w'
I733
tp1936
a(S'w'
I1
tp1937
a(S'p2_vo'
I11
tp1938
a(S'w'
I742
tp1939
a(S'p1_vo'
I10
tp1940
a(S'p1_tl'
I82
tp1941
a(S'w'
I1
tp1942
a(S'p1_ll'
I0
tp1943
a(S'w'
I1
tp1944
a(S'p2_tl'
I105
tp1945
a(S'w'
I723
tp1946
a(S'w'
I1
tp1947
a(S'p2_vo'
I12
tp1948
a(S'w'
I732
tp1949
a(S'p1_vo'
I9
tp1950
a(S'w'
I1
tp1951
a(S'w'
I734
tp1952
a(S'p2_vo'
I11
tp1953
a(S'w'
I1
tp1954
a(S'w'
I731
tp1955
a(S'p1_vo'
I8
tp1956
a(S'w'
I1
tp1957
a(S'w'
I1
tp1958
a(S'w'
I733
tp1959
a(S'w'
I1
tp1960
a(S'p2_vo'
I12
tp1961
a(S'w'
I1
tp1962
a(S'w'
I746
tp1963
a(S'p1_vo'
I10
tp1964
a(S'p1_tl'
I45
tp1965
a(S'p1_ll'
I0
tp1966
a(S'w'
I1
tp1967
a(S'p2_tl'
I106
tp1968
a(S'w'
I1
tp1969
a(S'tr_tl'
I82
tp1970
a(S'w'
I1
tp1971
a(S'tr_ll'
I0
tp1972
a(S'w'
I717
tp1973
a(S'w'
I1
tp1974
a(S'p2_vo'
I11
tp1975
a(S'w'
I732
tp1976
a(S'p1_vo'
I9
tp1977
a(S'w'
I1
tp1978
a(S'w'
I735
tp1979
a(S'w'
I1
tp1980
a(S'w'
I730
tp1981
a(S'p1_vo'
I8
tp1982
a(S'w'
I1
tp1983
a(S'w'
I734
tp1984
a(S'w'
I1
tp1985
a(S'p2_vo'
I8
tp1986
a(S'w'
I741
tp1987
a(S'p1_vo'
I10
tp1988
a(S'w'
I1
tp1989
a(S'p1_tl'
I28
tp1990
a(S'p1_ll'
I0
tp1991
a(S'w'
I1
tp1992
a(S'p2_tl'
I105
tp1993
a(S'w'
I724
tp1994
a(S'w'
I1
tp1995
a(S'p2_vo'
I10
tp1996
a(S'w'
I731
tp1997
a(S'p1_vo'
I9
tp1998
a(S'w'
I1
tp1999
a(S'w'
I1
tp2000
a(S'w'
I734
tp2001
a(S'p2_vo'
I8
tp2002
a(S'w'
I1
tp2003
a(S'w'
I731
tp2004
a(S'p1_vo'
I8
tp2005
a(S'w'
I1
tp2006
a(S'w'
I734
tp2007
a(S'w'
I1
tp2008
a(S'p2_vo'
I5
tp2009
a(S'w'
I746
tp2010
a(S'p1_vo'
I10
tp2011
a(S'p1_tl'
I103
tp2012
a(S'w'
I1
tp2013
a(S'p1_ll'
I0
tp2014
a(S'w'
I1
tp2015
a(S'p2_tl'
I106
tp2016
a(S'w'
I1
tp2017
a(S'tr_tl'
I103
tp2018
a(S'tr_ll'
I0
tp2019
a(S'w'
I718
tp2020
a(S'p2_vo'
I7
tp2021
a(S'w'
I1
tp2022
a(S'w'
I731
tp2023
a(S'p1_vo'
I9
tp2024
a(S'w'
I2
tp2025
a(S'w'
I734
tp2026
a(S'p2_vo'
I5
tp2027
a(S'w'
I1
tp2028
a(S'w'
I731
tp2029
a(S'p1_vo'
I8
tp2030
a(S'w'
I1
tp2031
a(S'w'
I734
tp2032
a(S'w'
I1
tp2033
a(S'p2_vo'
I2
tp2034
a(S'w'
I741
tp2035
a(S'p1_vo'
I10
tp2036
a(S'p1_tl'
I82
tp2037
a(S'w'
I1
tp2038
a(S'p1_ll'
I0
tp2039
a(S'w'
I1
tp2040
a(S'p2_tl'
I105
tp2041
a(S'w'
I723
tp2042
a(S'w'
I1
tp2043
a(S'p2_vo'
I4
tp2044
a(S'w'
I1
tp2045
a(S'w'
I731
tp2046
a(S'p1_vo'
I9
tp2047
a(S'w'
I1
tp2048
a(S'w'
I734
tp2049
a(S'w'
I1
tp2050
a(S'p2_vo'
I2
tp2051
a(S'w'
I731
tp2052
a(S'p1_vo'
I8
tp2053
a(S'w'
I1
tp2054
a(S'w'
I1
tp2055
a(S'w'
I734
tp2056
a(S'p2_vo'
I0
tp2057
a(S'w'
I1
tp2058
a(S'w'
I753
tp2059
a(S'p1_vo'
I10
tp2060
a(S'p1_tl'
I45
tp2061
a(S'p1_ll'
I0
tp2062
a(S'w'
I1
tp2063
a(S'p2_vo'
I6
tp2064
a(S'w'
I1
tp2065
a(S'p2_tl'
I213
tp2066
a(S'p2_ll'
I0
tp2067
a(S'w'
I1
tp2068
a(S'tr_tl'
I82
tp2069
a(S'tr_ll'
I0
tp2070
a(S'w'
I708
tp2071
a(S'w'
I1
tp2072
a(S'p2_vo'
I8
tp2073
a(S'w'
I733
tp2074
a(S'p1_vo'
I9
tp2075
a(S'w'
I1
tp2076
a(S'p2_vo'
I10
tp2077
a(S'w'
I733
tp2078
a(S'p2_vo'
I12
tp2079
a(S'w'
I1
tp2080
a(S'w'
I740
tp2081
a(S'p1_vo'
I8
tp2082
a(S'w'
I1
tp2083
a(S'p2_vo'
I6
tp2084
a(S'w'
I1
tp2085
a(S'p2_tl'
I159
tp2086
a(S'p2_ll'
I0
tp2087
a(S'w'
I724
tp2088
a(S'w'
I1
tp2089
a(S'p2_vo'
I8
tp2090
a(S'w'
I741
tp2091
a(S'p1_vo'
I10
tp2092
a(S'p1_tl'
I28
tp2093
a(S'w'
I1
tp2094
a(S'p1_ll'
I0
tp2095
a(S'p2_vo'
I10
tp2096
a(S'w'
I1
tp2097
a(S'w'
I724
tp2098
a(S'w'
I1
tp2099
a(S'p2_vo'
I12
tp2100
a(S'w'
I740
tp2101
a(S'p1_vo'
I9
tp2102
a(S'w'
I1
tp2103
a(S'w'
I1
tp2104
a(S'p2_vo'
I6
tp2105
a(S'p2_tl'
I142
tp2106
a(S'p2_ll'
I0
tp2107
a(S'w'
I725
tp2108
a(S'p2_vo'
I8
tp2109
a(S'w'
I1
tp2110
a(S'w'
I732
tp2111
a(S'p1_vo'
I8
tp2112
a(S'w'
I1
tp2113
a(S'p2_vo'
I10
tp2114
a(S'w'
I733
tp2115
a(S'w'
I1
tp2116
a(S'p2_vo'
I12
tp2117
a(S'w'
I755
tp2118
a(S'p1_vo'
I10
tp2119
a(S'w'
I1
tp2120
a(S'p1_tl'
I45
tp2121
a(S'p1_ll'
I0
tp2122
a(S'w'
I1
tp2123
a(S'p2_vo'
I6
tp2124
a(S'p2_tl'
I106
tp2125
a(S'p2_ll'
I0
tp2126
a(S'w'
I1
tp2127
a(S'tr_tl'
I45
tp2128
a(S'w'
I1
tp2129
a(S'tr_ll'
I0
tp2130
a(S'w'
I708
tp2131
a(S'p2_vo'
I8
tp2132
a(S'w'
I1
tp2133
a(S'w'
I732
tp2134
a(S'p1_vo'
I9
tp2135
a(S'w'
I1
tp2136
a(S'p2_vo'
I10
tp2137
a(S'w'
I1
tp2138
a(S'w'
I732
tp2139
a(S'w'
I1
tp2140
a(S'p2_vo'
I12
tp2141
a(S'w'
I733
tp2142
a(S'p1_vo'
I8
tp2143
a(S'w'
I1
tp2144
a(S'p2_vo'
I14
tp2145
a(S'w'
I736
tp2146
a(S'w'
I1
tp2147
a(S'w'
I735
tp2148
a(S'p1_vo'
I10
tp2149
a(S'p1_tl'
I28
tp2150
a(S'p1_ll'
I0
tp2151
a(S'w'
I1
tp2152
a(S'p2_vo'
I0
tp2153
a(S'w'
I722
tp2154
a(S'w'
I1
tp2155
a(S'w'
I732
tp2156
a(S'p1_vo'
I9
tp2157
a(S'w'
I1
tp2158
a(S'w'
I1
tp2159
a(S'w'
I732
tp2160
a(S'w'
I2
tp2161
a(S'w'
I732
tp2162
a(S'p1_vo'
I8
tp2163
a(S'w'
I1
tp2164
a(S'w'
I733
tp2165
a(S'w'
I1
tp2166
a(S'w'
I746
tp2167
a(S'p1_vo'
I10
tp2168
a(S'p1_tl'
I253
tp2169
a(S'p1_ll'
I0
tp2170
a(S'p1_th'
I0
tp2171
a(S'w'
I2
tp2172
a(S'tr_tl'
I28
tp2173
a(S'w'
I1
tp2174
a(S'tr_ll'
I0
tp2175
a(S'w'
I718
tp2176
a(S'w'
I1
tp2177
a(S'w'
I732
tp2178
a(S'p1_vo'
I9
tp2179
a(S'w'
I1
tp2180
a(S'w'
I733
tp2181
a(S'w'
I1
tp2182
a(S'w'
I733
tp2183
a(S'p1_vo'
I8
tp2184
a(S'w'
I1
tp2185
a(S'w'
I733
tp2186
a(S'w'
I1
tp2187
a(S'w'
I756
tp2188
a(S'p1_vo'
I10
tp2189
a(S'p1_tl'
I239
tp2190
a(S'p1_ll'
I0
tp2191
a(S'w'
I1
tp2192
a(S'p2_vo'
I6
tp2193
a(S'w'
I1
tp2194
a(S'p2_tl'
I142
tp2195
a(S'p2_ll'
I0
tp2196
a(S'w'
I714
tp2197
a(S'w'
I1
tp2198
a(S'p2_vo'
I8
tp2199
a(S'w'
I733
tp2200
a(S'p1_vo'
I9
tp2201
a(S'w'
I1
tp2202
a(S'p2_vo'
I10
tp2203
a(S'w'
I733
tp2204
a(S'p2_vo'
I12
tp2205
a(S'w'
I1
tp2206
a(S'w'
I732
tp2207
a(S'p1_vo'
I8
tp2208
a(S'w'
I1
tp2209
a(S'w'
I1
tp2210
a(S'p2_vo'
I14
tp2211
a(S'w'
I735
tp2212
a(S'w'
I1
tp2213
a(S'w'
I752
tp2214
a(S'p1_vo'
I10
tp2215
a(S'w'
I1
tp2216
a(S'p1_tl'
I45
tp2217
a(S'p1_ll'
I0
tp2218
a(S'p1_th'
I1
tp2219
a(S'w'
I1
tp2220
a(S'p2_vo'
I6
tp2221
a(S'p2_tl'
I106
tp2222
a(S'w'
I1
tp2223
a(S'p2_ll'
I0
tp2224
a(S'w'
I1
tp2225
a(S'tr_tl'
I45
tp2226
a(S'tr_ll'
I0
tp2227
a(S'w'
I708
tp2228
a(S'w'
I1
tp2229
a(S'p2_vo'
I8
tp2230
a(S'w'
I732
tp2231
a(S'p1_vo'
I9
tp2232
a(S'w'
I1
tp2233
a(S'p2_vo'
I10
tp2234
a(S'w'
I1
tp2235
a(S'w'
I733
tp2236
a(S'p2_vo'
I12
tp2237
a(S'w'
I1
tp2238
a(S'w'
I732
tp2239
a(S'p1_vo'
I8
tp2240
a(S'w'
I1
tp2241
a(S'p2_vo'
I14
tp2242
a(S'w'
I1
tp2243
a(S'w'
I735
tp2244
a(S'w'
I1
tp2245
a(S'w'
I739
tp2246
a(S'p1_vo'
I10
tp2247
a(S'w'
I1
tp2248
a(S'p1_tl'
I28
tp2249
a(S'p1_ll'
I0
tp2250
a(S'w'
I1
tp2251
a(S'w'
I725
tp2252
a(S'p2_vo'
I13
tp2253
a(S'w'
I1
tp2254
a(S'w'
I731
tp2255
a(S'p1_vo'
I9
tp2256
a(S'w'
I1
tp2257
a(S'w'
I1
tp2258
a(S'w'
I734
tp2259
a(S'p2_vo'
I14
tp2260
a(S'w'
I1
tp2261
a(S'w'
I731
tp2262
a(S'p1_vo'
I8
tp2263
a(S'w'
I2
tp2264
a(S'w'
I733
tp2265
a(S'w'
I1
tp2266
a(S'p2_vo'
I13
tp2267
a(S'w'
I745
tp2268
a(S'p1_vo'
I10
tp2269
a(S'p1_tl'
I253
tp2270
a(S'w'
I1
tp2271
a(S'p1_ll'
I0
tp2272
a(S'p1_th'
I0
tp2273
a(S'w'
I1
tp2274
a(S'w'
I1
tp2275
a(S'tr_tl'
I28
tp2276
a(S'tr_ll'
I0
tp2277
a(S'w'
I719
tp2278
a(S'w'
I1
tp2279
a(S'p2_vo'
I14
tp2280
a(S'w'
I731
tp2281
a(S'p1_vo'
I9
tp2282
a(S'w'
I1
tp2283
a(S'w'
I1
tp2284
a(S'w'
I733
tp2285
a(S'w'
I1
tp2286
a(S'p2_vo'
I13
tp2287
a(S'w'
I732
tp2288
a(S'p1_vo'
I8
tp2289
a(S'w'
I1
tp2290
a(S'w'
I734
tp2291
a(S'w'
I1
tp2292
a(S'p2_vo'
I14
tp2293
a(S'w'
I740
tp2294
a(S'p1_vo'
I10
tp2295
a(S'p1_tl'
I239
tp2296
a(S'p1_ll'
I0
tp2297
a(S'w'
I2
tp2298
a(S'w'
I724
tp2299
a(S'w'
I1
tp2300
a(S'p2_vo'
I13
tp2301
a(S'w'
I732
tp2302
a(S'p1_vo'
I9
tp2303
a(S'w'
I2
tp2304
a(S'w'
I733
tp2305
a(S'w'
I1
tp2306
a(S'p2_vo'
I14
tp2307
a(S'w'
I732
tp2308
a(S'p1_vo'
I8
tp2309
a(S'w'
I1
tp2310
a(S'w'
I733
tp2311
a(S'w'
I1
tp2312
a(S'p2_vo'
I13
tp2313
a(S'w'
I1
tp2314
a(S'w'
I746
tp2315
a(S'p1_vo'
I10
tp2316
a(S'w'
I1
tp2317
a(S'p1_tl'
I253
tp2318
a(S'p1_ll'
I0
tp2319
a(S'w'
I1
tp2320
a(S'p2_vo'
I12
tp2321
a(S'p2_tl'
I105
tp2322
a(S'w'
I1
tp2323
a(S'tr_tl'
I253
tp2324
a(S'tr_ll'
I0
tp2325
a(S'tr_th'
I0
tp2326
a(S'w'
I717
tp2327
a(S'w'
I1
tp2328
a(S'p2_vo'
I13
tp2329
a(S'w'
I1
tp2330
a(S'w'
I731
tp2331
a(S'p1_vo'
I9
tp2332
a(S'w'
I1
tp2333
a(S'w'
I734
tp2334
a(S'p2_vo'
I12
tp2335
a(S'w'
I1
tp2336
a(S'w'
I731
tp2337
a(S'p1_vo'
I8
tp2338
a(S'w'
I1
tp2339
a(S'w'
I1
tp2340
a(S'w'
I734
tp2341
a(S'p2_vo'
I13
tp2342
a(S'w'
I1
tp2343
a(S'w'
I741
tp2344
a(S'p1_vo'
I10
tp2345
a(S'p1_tl'
I239
tp2346
a(S'p1_ll'
I0
tp2347
a(S'w'
I2
tp2348
a(S'p2_tl'
I106
tp2349
a(S'w'
I723
tp2350
a(S'w'
I1
tp2351
a(S'p2_vo'
I12
tp2352
a(S'w'
I732
tp2353
a(S'p1_vo'
I9
tp2354
a(S'w'
I1
tp2355
a(S'w'
I734
tp2356
a(S'w'
I1
tp2357
a(S'p2_vo'
I13
tp2358
a(S'w'
I731
tp2359
a(S'p1_vo'
I8
tp2360
a(S'w'
I1
tp2361
a(S'w'
I1
tp2362
a(S'w'
I733
tp2363
a(S'w'
I1
tp2364
a(S'p2_vo'
I12
tp2365
a(S'w'
I748
tp2366
a(S'p1_vo'
I10
tp2367
a(S'p1_tl'
I213
tp2368
a(S'w'
I1
tp2369
a(S'p1_ll'
I0
tp2370
a(S'w'
I1
tp2371
a(S'p2_tl'
I105
tp2372
a(S'w'
I1
tp2373
a(S'tr_tl'
I239
tp2374
a(S'tr_ll'
I0
tp2375
a(S'w'
I716
tp2376
a(S'w'
I1
tp2377
a(S'p2_vo'
I13
tp2378
a(S'w'
I732
tp2379
a(S'p1_vo'
I9
tp2380
a(S'w'
I1
tp2381
a(S'w'
I733
tp2382
a(S'w'
I1
tp2383
a(S'p2_vo'
I12
tp2384
a(S'w'
I732
tp2385
a(S'p1_vo'
I8
tp2386
a(S'w'
I2
tp2387
a(S'w'
I733
tp2388
a(S'w'
I1
tp2389
a(S'p2_vo'
I13
tp2390
a(S'w'
I741
tp2391
a(S'p1_vo'
I10
tp2392
a(S'w'
I1
tp2393
a(S'p1_tl'
I201
tp2394
a(S'p1_ll'
I0
tp2395
a(S'w'
I1
tp2396
a(S'p2_tl'
I106
tp2397
a(S'w'
I724
tp2398
a(S'p2_vo'
I12
tp2399
a(S'w'
I1
tp2400
a(S'w'
I732
tp2401
a(S'p1_vo'
I9
tp2402
a(S'w'
I1
tp2403
a(S'p2_vo'
I11
tp2404
a(S'w'
I733
tp2405
a(S'w'
I1
tp2406
a(S'p2_vo'
I12
tp2407
a(S'w'
I1
tp2408
a(S'w'
I731
tp2409
a(S'p1_vo'
I8
tp2410
a(S'w'
I1
tp2411
a(S'w'
I734
tp2412
a(S'p2_vo'
I11
tp2413
a(S'w'
I1
tp2414
a(S'w'
I748
tp2415
a(S'p1_vo'
I10
tp2416
a(S'p1_tl'
I253
tp2417
a(S'p1_ll'
I0
tp2418
a(S'w'
I1
tp2419
a(S'p2_tl'
I105
tp2420
a(S'w'
I1
tp2421
a(S'tr_tl'
I253
tp2422
a(S'w'
I1
tp2423
a(S'tr_ll'
I0
tp2424
a(S'w'
I716
tp2425
a(S'p2_vo'
I12
tp2426
a(S'w'
I1
tp2427
a(S'w'
I731
tp2428
a(S'p1_vo'
I9
tp2429
a(S'w'
I1
tp2430
a(S'w'
I1
tp2431
a(S'w'
I733
tp2432
a(S'w'
I1
tp2433
a(S'p2_vo'
I11
tp2434
a(S'w'
I732
tp2435
a(S'p1_vo'
I8
tp2436
a(S'w'
I1
tp2437
a(S'w'
I735
tp2438
a(S'p2_vo'
I12
tp2439
a(S'w'
I1
tp2440
a(S'w'
I740
tp2441
a(S'p1_vo'
I10
tp2442
a(S'w'
I1
tp2443
a(S'p1_tl'
I239
tp2444
a(S'p1_ll'
I0
tp2445
a(S'w'
I1
tp2446
a(S'p2_vo'
I11
tp2447
a(S'p2_tl'
I106
tp2448
a(S'w'
I723
tp2449
a(S'w'
I1
tp2450
a(S'p2_vo'
I9
tp2451
a(S'w'
I732
tp2452
a(S'p1_vo'
I9
tp2453
a(S'w'
I1
tp2454
a(S'p2_vo'
I8
tp2455
a(S'w'
I1
tp2456
a(S'w'
I733
tp2457
a(S'p2_vo'
I11
tp2458
a(S'w'
I1
tp2459
a(S'w'
I732
tp2460
a(S'p1_vo'
I8
tp2461
a(S'w'
I1
tp2462
a(S'p2_vo'
I10
tp2463
a(S'w'
I733
tp2464
a(S'w'
I1
tp2465
a(S'p2_vo'
I9
tp2466
a(S'w'
I1
tp2467
a(S'w'
I747
tp2468
a(S'p1_vo'
I10
tp2469
a(S'w'
I1
tp2470
a(S'p1_tl'
I213
tp2471
a(S'p1_ll'
I0
tp2472
a(S'w'
I1
tp2473
a(S'p2_vo'
I8
tp2474
a(S'p2_tl'
I105
tp2475
a(S'w'
I1
tp2476
a(S'tr_tl'
I239
tp2477
a(S'tr_ll'
I0
tp2478
a(S'w'
I716
tp2479
a(S'p2_vo'
I6
tp2480
a(S'w'
I1
tp2481
a(S'w'
I732
tp2482
a(S'p1_vo'
I9
tp2483
a(S'w'
I1
tp2484
a(S'p2_vo'
I5
tp2485
a(S'w'
I733
tp2486
a(S'w'
I1
tp2487
a(S'p2_vo'
I8
tp2488
a(S'w'
I733
tp2489
a(S'p1_vo'
I8
tp2490
a(S'w'
I1
tp2491
a(S'p2_vo'
I7
tp2492
a(S'w'
I733
tp2493
a(S'w'
I1
tp2494
a(S'p2_vo'
I6
tp2495
a(S'w'
I742
tp2496
a(S'p1_vo'
I10
tp2497
a(S'p1_tl'
I201
tp2498
a(S'p1_ll'
I0
tp2499
a(S'w'
I1
tp2500
a(S'p2_vo'
I5
tp2501
a(S'w'
I1
tp2502
a(S'p2_tl'
I106
tp2503
a(S'w'
I723
tp2504
a(S'p2_vo'
I3
tp2505
a(S'w'
I1
tp2506
a(S'w'
I732
tp2507
a(S'p1_vo'
I9
tp2508
a(S'w'
I1
tp2509
a(S'p2_vo'
I2
tp2510
a(S'w'
I733
tp2511
a(S'w'
I1
tp2512
a(S'p2_vo'
I5
tp2513
a(S'w'
I732
tp2514
a(S'p1_vo'
I8
tp2515
a(S'w'
I1
tp2516
a(S'p2_vo'
I4
tp2517
a(S'w'
I1
tp2518
a(S'w'
I733
tp2519
a(S'w'
I1
tp2520
a(S'p2_vo'
I3
tp2521
a(S'w'
I759
tp2522
a(S'p1_vo'
I10
tp2523
a(S'w'
I1
tp2524
a(S'p1_tl'
I170
tp2525
a(S'p1_ll'
I0
tp2526
a(S'p1_th'
I1
tp2527
a(S'w'
I1
tp2528
a(S'p2_vo'
I6
tp2529
a(S'p2_tl'
I213
tp2530
a(S'p2_ll'
I0
tp2531
a(S'w'
I1
tp2532
a(S'tr_tl'
I170
tp2533
a(S'w'
I1
tp2534
a(S'tr_ll'
I0
tp2535
a(S'tr_th'
I1
tp2536
a(S'w'
I702
tp2537
a(S'p2_vo'
I8
tp2538
a(S'w'
I1
tp2539
a(S'w'
I740
tp2540
a(S'p1_vo'
I9
tp2541
a(S'w'
I1
tp2542
a(S'p2_vo'
I6
tp2543
a(S'w'
I1
tp2544
a(S'p2_tl'
I159
tp2545
a(S'p2_ll'
I0
tp2546
a(S'w'
I724
tp2547
a(S'w'
I1
tp2548
a(S'p2_vo'
I8
tp2549
a(S'w'
I741
tp2550
a(S'p1_vo'
I8
tp2551
a(S'w'
I1
tp2552
a(S'p2_vo'
I6
tp2553
a(S'p2_tl'
I142
tp2554
a(S'w'
I1
tp2555
a(S'p2_ll'
I0
tp2556
a(S'w'
I724
tp2557
a(S'p2_vo'
I8
tp2558
a(S'w'
I1
tp2559
a(S'w'
I751
tp2560
a(S'p1_vo'
I10
tp2561
a(S'p1_tl'
I147
tp2562
a(S'p1_ll'
I0
tp2563
a(S'w'
I1
tp2564
a(S'p2_vo'
I6
tp2565
a(S'w'
I1
tp2566
a(S'p2_tl'
I106
tp2567
a(S'p2_ll'
I0
tp2568
a(S'w'
I713
tp2569
a(S'w'
I1
tp2570
a(S'p2_vo'
I8
tp2571
a(S'w'
I1
tp2572
a(S'w'
I732
tp2573
a(S'p1_vo'
I9
tp2574
a(S'w'
I1
tp2575
a(S'p2_vo'
I10
tp2576
a(S'w'
I733
tp2577
a(S'w'
I1
tp2578
a(S'p2_vo'
I12
tp2579
a(S'w'
I733
tp2580
a(S'p1_vo'
I8
tp2581
a(S'w'
I1
tp2582
a(S'p2_vo'
I14
tp2583
a(S'w'
I735
tp2584
a(S'w'
I1
tp2585
a(S'w'
I747
tp2586
a(S'p1_vo'
I10
tp2587
a(S'w'
I1
tp2588
a(S'p1_tl'
I103
tp2589
a(S'p1_ll'
I0
tp2590
a(S'w'
I1
tp2591
a(S'w'
I1
tp2592
a(S'tr_tl'
I147
tp2593
a(S'tr_ll'
I0
tp2594
a(S'w'
I716
tp2595
a(S'w'
I1
tp2596
a(S'p2_vo'
I13
tp2597
a(S'w'
I732
tp2598
a(S'p1_vo'
I9
tp2599
a(S'w'
I2
tp2600
a(S'w'
I733
tp2601
a(S'w'
I1
tp2602
a(S'p2_vo'
I14
tp2603
a(S'w'
I732
tp2604
a(S'p1_vo'
I8
tp2605
a(S'w'
I1
tp2606
a(S'w'
I733
tp2607
a(S'w'
I1
tp2608
a(S'p2_vo'
I13
tp2609
a(S'w'
I740
tp2610
a(S'p1_vo'
I10
tp2611
a(S'w'
I1
tp2612
a(S'p1_tl'
I82
tp2613
a(S'p1_ll'
I0
tp2614
a(S'w'
I1
tp2615
a(S'w'
I725
tp2616
a(S'w'
I1
tp2617
a(S'p2_vo'
I14
tp2618
a(S'w'
I732
tp2619
a(S'p1_vo'
I9
tp2620
a(S'w'
I1
tp2621
a(S'w'
I734
tp2622
a(S'p2_vo'
I13
tp2623
a(S'w'
I1
tp2624
a(S'w'
I731
tp2625
a(S'p1_vo'
I8
tp2626
a(S'w'
I1
tp2627
a(S'w'
I1
tp2628
a(S'w'
I733
tp2629
a(S'w'
I1
tp2630
a(S'p2_vo'
I14
tp2631
a(S'w'
I1
tp2632
a(S'w'
I744
tp2633
a(S'p1_vo'
I10
tp2634
a(S'w'
I1
tp2635
a(S'p1_tl'
I170
tp2636
a(S'p1_ll'
I0
tp2637
a(S'w'
I1
tp2638
a(S'w'
I1
tp2639
a(S'tr_tl'
I170
tp2640
a(S'tr_ll'
I0
tp2641
a(S'w'
I719
tp2642
a(S'p2_vo'
I13
tp2643
a(S'w'
I1
tp2644
a(S'w'
I732
tp2645
a(S'p1_vo'
I9
tp2646
a(S'w'
I1
tp2647
a(S'w'
I734
tp2648
a(S'p2_vo'
I14
tp2649
a(S'w'
I1
tp2650
a(S'w'
I731
tp2651
a(S'p1_vo'
I8
tp2652
a(S'w'
I1
tp2653
a(S'w'
I1
tp2654
a(S'w'
I733
tp2655
a(S'w'
I1
tp2656
a(S'p2_vo'
I13
tp2657
a(S'w'
I742
tp2658
a(S'p1_vo'
I10
tp2659
a(S'p1_tl'
I147
tp2660
a(S'p1_ll'
I0
tp2661
a(S'w'
I1
tp2662
a(S'p2_vo'
I12
tp2663
a(S'w'
I1
tp2664
a(S'p2_tl'
I105
tp2665
a(S'w'
I723
tp2666
a(S'w'
I1
tp2667
a(S'p2_vo'
I13
tp2668
a(S'w'
I731
tp2669
a(S'p1_vo'
I9
tp2670
a(S'w'
I1
tp2671
a(S'w'
I1
tp2672
a(S'w'
I733
tp2673
a(S'w'
I1
tp2674
a(S'p2_vo'
I12
tp2675
a(S'w'
I732
tp2676
a(S'p1_vo'
I8
tp2677
a(S'w'
I1
tp2678
a(S'w'
I734
tp2679
a(S'w'
I1
tp2680
a(S'p2_vo'
I13
tp2681
a(S'w'
I746
tp2682
a(S'p1_vo'
I10
tp2683
a(S'w'
I1
tp2684
a(S'p1_tl'
I103
tp2685
a(S'p1_ll'
I0
tp2686
a(S'w'
I1
tp2687
a(S'p2_tl'
I106
tp2688
a(S'w'
I1
tp2689
a(S'tr_tl'
I147
tp2690
a(S'tr_ll'
I0
tp2691
a(S'w'
I717
tp2692
a(S'w'
I1
tp2693
a(S'p2_vo'
I12
tp2694
a(S'w'
I1
tp2695
a(S'w'
I731
tp2696
a(S'p1_vo'
I9
tp2697
a(S'w'
I1
tp2698
a(S'w'
I1
tp2699
a(S'w'
I733
tp2700
a(S'w'
I1
tp2701
a(S'p2_vo'
I13
tp2702
a(S'w'
I732
tp2703
a(S'p1_vo'
I8
tp2704
a(S'w'
I1
tp2705
a(S'w'
I734
tp2706
a(S'p2_vo'
I12
tp2707
a(S'w'
I1
tp2708
a(S'w'
I741
tp2709
a(S'p1_vo'
I10
tp2710
a(S'w'
I1
tp2711
a(S'p1_tl'
I82
tp2712
a(S'p1_ll'
I0
tp2713
a(S'w'
I1
tp2714
a(S'p2_tl'
I105
tp2715
a(S'w'
I724
tp2716
a(S'p2_vo'
I13
tp2717
a(S'w'
I1
tp2718
a(S'w'
I731
tp2719
a(S'p1_vo'
I9
tp2720
a(S'w'
I2
tp2721
a(S'w'
I733
tp2722
a(S'w'
I1
tp2723
a(S'p2_vo'
I12
tp2724
a(S'w'
I732
tp2725
a(S'p1_vo'
I8
tp2726
a(S'w'
I1
tp2727
a(S'w'
I734
tp2728
a(S'p2_vo'
I13
tp2729
a(S'w'
I1
tp2730
a(S'w'
I746
tp2731
a(S'p1_vo'
I10
tp2732
a(S'p1_tl'
I103
tp2733
a(S'p1_ll'
I0
tp2734
a(S'w'
I2
tp2735
a(S'p2_tl'
I106
tp2736
a(S'w'
I1
tp2737
a(S'tr_tl'
I103
tp2738
a(S'tr_ll'
I0
tp2739
a(S'w'
I717
tp2740
a(S'w'
I1
tp2741
a(S'p2_vo'
I12
tp2742
a(S'w'
I732
tp2743
a(S'p1_vo'
I9
tp2744
a(S'w'
I1
tp2745
a(S'p2_vo'
I11
tp2746
a(S'w'
I1
tp2747
a(S'w'
I733
tp2748
a(S'w'
I1
tp2749
a(S'p2_vo'
I12
tp2750
a(S'w'
I731
tp2751
a(S'p1_vo'
I8
tp2752
a(S'w'
I1
tp2753
a(S'w'
I1
tp2754
a(S'w'
I733
tp2755
a(S'w'
I1
tp2756
a(S'p2_vo'
I11
tp2757
a(S'w'
I742
tp2758
a(S'p1_vo'
I10
tp2759
a(S'p1_tl'
I82
tp2760
a(S'p1_ll'
I0
tp2761
a(S'w'
I2
tp2762
a(S'p2_tl'
I105
tp2763
a(S'w'
I723
tp2764
a(S'w'
I1
tp2765
a(S'p2_vo'
I12
tp2766
a(S'w'
I732
tp2767
a(S'p1_vo'
I9
tp2768
a(S'w'
I1
tp2769
a(S'w'
I733
tp2770
a(S'w'
I1
tp2771
a(S'p2_vo'
I11
tp2772
a(S'w'
I1
tp2773
a(S'w'
I731
tp2774
a(S'p1_vo'
I8
tp2775
a(S'w'
I1
tp2776
a(S'w'
I1
tp2777
a(S'w'
I733
tp2778
a(S'w'
I1
tp2779
a(S'p2_vo'
I12
tp2780
a(S'w'
I747
tp2781
a(S'p1_vo'
I10
tp2782
a(S'p1_tl'
I45
tp2783
a(S'p1_ll'
I0
tp2784
a(S'w'
I1
tp2785
a(S'p2_tl'
I106
tp2786
a(S'w'
I1
tp2787
a(S'tr_tl'
I82
tp2788
a(S'tr_ll'
I0
tp2789
a(S'w'
I718
tp2790
a(S'p2_vo'
I11
tp2791
a(S'w'
I1
tp2792
a(S'w'
I731
tp2793
a(S'p1_vo'
I9
tp2794
a(S'w'
I1
tp2795
a(S'w'
I1
tp2796
a(S'w'
I735
tp2797
a(S'w'
I1
tp2798
a(S'w'
I730
tp2799
a(S'p1_vo'
I8
tp2800
a(S'w'
I1
tp2801
a(S'w'
I734
tp2802
a(S'w'
I1
tp2803
a(S'p2_vo'
I8
tp2804
a(S'w'
I741
tp2805
a(S'p1_vo'
I10
tp2806
a(S'w'
I1
tp2807
a(S'p1_tl'
I28
tp2808
a(S'p1_ll'
I0
tp2809
a(S'w'
I1
tp2810
a(S'p2_tl'
I105
tp2811
a(S'w'
I724
tp2812
a(S'p2_vo'
I10
tp2813
a(S'w'
I1
tp2814
a(S'w'
I731
tp2815
a(S'p1_vo'
I9
tp2816
a(S'w'
I1
tp2817
a(S'w'
I1
tp2818
a(S'w'
I734
tp2819
a(S'p2_vo'
I8
tp2820
a(S'w'
I1
tp2821
a(S'w'
I731
tp2822
a(S'p1_vo'
I8
tp2823
a(S'w'
I1
tp2824
a(S'w'
I734
tp2825
a(S'w'
I1
tp2826
a(S'p2_vo'
I5
tp2827
a(S'w'
I746
tp2828
a(S'p1_vo'
I10
tp2829
a(S'p1_tl'
I103
tp2830
a(S'p1_ll'
I0
tp2831
a(S'w'
I2
tp2832
a(S'p2_tl'
I106
tp2833
a(S'w'
I1
tp2834
a(S'tr_tl'
I103
tp2835
a(S'tr_ll'
I0
tp2836
a(S'w'
I717
tp2837
a(S'w'
I1
tp2838
a(S'p2_vo'
I7
tp2839
a(S'w'
I1
tp2840
a(S'w'
I731
tp2841
a(S'p1_vo'
I9
tp2842
a(S'w'
I1
tp2843
a(S'w'
I734
tp2844
a(S'w'
I1
tp2845
a(S'p2_vo'
I5
tp2846
a(S'w'
I1
tp2847
a(S'w'
I730
tp2848
a(S'p1_vo'
I8
tp2849
a(S'w'
I1
tp2850
a(S'w'
I1
tp2851
a(S'w'
I734
tp2852
a(S'p2_vo'
I2
tp2853
a(S'w'
I1
tp2854
a(S'w'
I741
tp2855
a(S'p1_vo'
I10
tp2856
a(S'p1_tl'
I82
tp2857
a(S'p1_ll'
I0
tp2858
a(S'w'
I2
tp2859
a(S'p2_tl'
I105
tp2860
a(S'w'
I723
tp2861
a(S'w'
I1
tp2862
a(S'p2_vo'
I4
tp2863
a(S'w'
I732
tp2864
a(S'p1_vo'
I9
tp2865
a(S'w'
I1
tp2866
a(S'w'
I734
tp2867
a(S'w'
I1
tp2868
a(S'p2_vo'
I2
tp2869
a(S'w'
I731
tp2870
a(S'p1_vo'
I8
tp2871
a(S'w'
I1
tp2872
a(S'w'
I1
tp2873
a(S'w'
I733
tp2874
a(S'w'
I1
tp2875
a(S'p2_vo'
I0
tp2876
a(S'w'
I1
tp2877
a(S'w'
I752
tp2878
a(S'p1_vo'
I10
tp2879
a(S'w'
I1
tp2880
a(S'p1_tl'
I45
tp2881
a(S'p1_ll'
I0
tp2882
a(S'w'
I1
tp2883
a(S'p2_vo'
I6
tp2884
a(S'p2_tl'
I213
tp2885
a(S'w'
I1
tp2886
a(S'p2_ll'
I0
tp2887
a(S'w'
I1
tp2888
a(S'tr_tl'
I82
tp2889
a(S'tr_ll'
I0
tp2890
a(S'w'
I708
tp2891
a(S'w'
I1
tp2892
a(S'p2_vo'
I8
tp2893
a(S'w'
I732
tp2894
a(S'p1_vo'
I9
tp2895
a(S'w'
I1
tp2896
a(S'w'
I1
tp2897
a(S'p2_vo'
I10
tp2898
a(S'w'
I733
tp2899
a(S'p2_vo'
I12
tp2900
a(S'w'
I1
tp2901
a(S'w'
I740
tp2902
a(S'p1_vo'
I8
tp2903
a(S'w'
I1
tp2904
a(S'p2_vo'
I6
tp2905
a(S'w'
I1
tp2906
a(S'p2_tl'
I159
tp2907
a(S'p2_ll'
I0
tp2908
a(S'w'
I724
tp2909
a(S'w'
I1
tp2910
a(S'p2_vo'
I8
tp2911
a(S'w'
I741
tp2912
a(S'p1_vo'
I10
tp2913
a(S'p1_tl'
I28
tp2914
a(S'p1_ll'
I0
tp2915
a(S'w'
I1
tp2916
a(S'p2_vo'
I10
tp2917
a(S'w'
I1
tp2918
a(S'w'
I724
tp2919
a(S'p2_vo'
I12
tp2920
a(S'w'
I1
tp2921
a(S'w'
I740
tp2922
a(S'p1_vo'
I9
tp2923
a(S'w'
I1
tp2924
a(S'w'
I1
tp2925
a(S'p2_vo'
I6
tp2926
a(S'p2_tl'
I142
tp2927
a(S'p2_ll'
I0
tp2928
a(S'w'
I724
tp2929
a(S'w'
I1
tp2930
a(S'p2_vo'
I8
tp2931
a(S'w'
I1
tp2932
a(S'w'
I732
tp2933
a(S'p1_vo'
I8
tp2934
a(S'w'
I1
tp2935
a(S'p2_vo'
I10
tp2936
a(S'w'
I733
tp2937
a(S'w'
I1
tp2938
a(S'p2_vo'
I12
tp2939
a(S'w'
I755
tp2940
a(S'p1_vo'
I10
tp2941
a(S'p1_tl'
I45
tp2942
a(S'w'
I1
tp2943
a(S'p1_ll'
I0
tp2944
a(S'w'
I1
tp2945
a(S'p2_vo'
I6
tp2946
a(S'p2_tl'
I106
tp2947
a(S'p2_ll'
I0
tp2948
a(S'w'
I1
tp2949
a(S'tr_tl'
I45
tp2950
a(S'tr_ll'
I0
tp2951
a(S'w'
I709
tp2952
a(S'p2_vo'
I8
tp2953
a(S'w'
I1
tp2954
a(S'w'
I732
tp2955
a(S'p1_vo'
I9
tp2956
a(S'w'
I1
tp2957
a(S'p2_vo'
I10
tp2958
a(S'w'
I1
tp2959
a(S'w'
I732
tp2960
a(S'w'
I1
tp2961
a(S'p2_vo'
I12
tp2962
a(S'w'
I733
tp2963
a(S'p1_vo'
I8
tp2964
a(S'w'
I1
tp2965
a(S'p2_vo'
I14
tp2966
a(S'w'
I736
tp2967
a(S'w'
I1
tp2968
a(S'w'
I735
tp2969
a(S'p1_vo'
I10
tp2970
a(S'p1_tl'
I28
tp2971
a(S'p1_ll'
I0
tp2972
a(S'w'
I1
tp2973
a(S'p2_vo'
I0
tp2974
a(S'w'
I722
tp2975
a(S'w'
I1
tp2976
a(S'w'
I732
tp2977
a(S'p1_vo'
I9
tp2978
a(S'w'
I2
tp2979
a(S'w'
I732
tp2980
a(S'w'
I1
tp2981
a(S'w'
I733
tp2982
a(S'p1_vo'
I8
tp2983
a(S'w'
I1
tp2984
a(S'w'
I733
tp2985
a(S'w'
I1
tp2986
a(S'w'
I746
tp2987
a(S'p1_vo'
I10
tp2988
a(S'p1_tl'
I253
tp2989
a(S'p1_ll'
I0
tp2990
a(S'p1_th'
I0
tp2991
a(S'w'
I1
tp2992
a(S'w'
I1
tp2993
a(S'tr_tl'
I28
tp2994
a(S'w'
I1
tp2995
a(S'tr_ll'
I0
tp2996
a(S'w'
I717
tp2997
a(S'w'
I2
tp2998
a(S'w'
I732
tp2999
a(S'p1_vo'
I9
tp3000
a(S'w'
I1
tp3001
a(S'w'
I733
tp3002
a(S'w'
I1
tp3003
a(S'w'
I732
tp3004
a(S'p1_vo'
I8
tp3005
a(S'w'
I1
tp3006
a(S'w'
I1
tp3007
a(S'w'
I733
tp3008
a(S'w'
I1
tp3009
a(S'w'
I755
tp3010
a(S'p1_vo'
I10
tp3011
a(S'w'
I1
tp3012
a(S'p1_tl'
I239
tp3013
a(S'p1_ll'
I0
tp3014
a(S'w'
I1
tp3015
a(S'p2_vo'
I6
tp3016
a(S'p2_tl'
I142
tp3017
a(S'w'
I1
tp3018
a(S'p2_ll'
I0
tp3019
a(S'w'
I714
tp3020
a(S'w'
I1
tp3021
a(S'p2_vo'
I8
tp3022
a(S'w'
I732
tp3023
a(S'p1_vo'
I9
tp3024
a(S'w'
I1
tp3025
a(S'w'
I1
tp3026
a(S'p2_vo'
I10
tp3027
a(S'w'
I733
tp3028
a(S'p2_vo'
I12
tp3029
a(S'w'
I1
tp3030
a(S'w'
I732
tp3031
a(S'p1_vo'
I8
tp3032
a(S'w'
I1
tp3033
a(S'p2_vo'
I14
tp3034
a(S'w'
I1
tp3035
a(S'w'
I735
tp3036
a(S'w'
I1
tp3037
a(S'w'
I752
tp3038
a(S'p1_vo'
I10
tp3039
a(S'w'
I1
tp3040
a(S'p1_tl'
I45
tp3041
a(S'p1_ll'
I0
tp3042
a(S'p1_th'
I1
tp3043
a(S'w'
I1
tp3044
a(S'p2_vo'
I6
tp3045
a(S'p2_tl'
I106
tp3046
a(S'p2_ll'
I0
tp3047
a(S'w'
I2
tp3048
a(S'tr_tl'
I45
tp3049
a(S'tr_ll'
I0
tp3050
a(S'w'
I708
tp3051
a(S'w'
I1
tp3052
a(S'p2_vo'
I8
tp3053
a(S'w'
I732
tp3054
a(S'p1_vo'
I9
tp3055
a(S'w'
I1
tp3056
a(S'p2_vo'
I10
tp3057
a(S'w'
I1
tp3058
a(S'w'
I732
tp3059
a(S'w'
I1
tp3060
a(S'p2_vo'
I12
tp3061
a(S'w'
I1
tp3062
a(S'w'
I732
tp3063
a(S'p1_vo'
I8
tp3064
a(S'w'
I1
tp3065
a(S'p2_vo'
I14
tp3066
a(S'w'
I1
tp3067
a(S'w'
I735
tp3068
a(S'w'
I1
tp3069
a(S'w'
I739
tp3070
a(S'p1_vo'
I10
tp3071
a(S'p1_tl'
I28
tp3072
a(S'w'
I1
tp3073
a(S'p1_ll'
I0
tp3074
a(S'w'
I1
tp3075
a(S'w'
I725
tp3076
a(S'p2_vo'
I13
tp3077
a(S'w'
I1
tp3078
a(S'w'
I731
tp3079
a(S'p1_vo'
I9
tp3080
a(S'w'
I1
tp3081
a(S'w'
I1
tp3082
a(S'w'
I733
tp3083
a(S'w'
I1
tp3084
a(S'p2_vo'
I14
tp3085
a(S'w'
I1
tp3086
a(S'w'
I731
tp3087
a(S'p1_vo'
I8
tp3088
a(S'w'
I1
tp3089
a(S'w'
I734
tp3090
a(S'p2_vo'
I13
tp3091
a(S'w'
I1
tp3092
a(S'w'
I745
tp3093
a(S'p1_vo'
I10
tp3094
a(S'p1_tl'
I253
tp3095
a(S'w'
I1
tp3096
a(S'p1_ll'
I0
tp3097
a(S'p1_th'
I0
tp3098
a(S'w'
I1
tp3099
a(S'w'
I1
tp3100
a(S'tr_tl'
I28
tp3101
a(S'tr_ll'
I0
tp3102
a(S'w'
I719
tp3103
a(S'p2_vo'
I14
tp3104
a(S'w'
I1
tp3105
a(S'w'
I731
tp3106
a(S'p1_vo'
I9
tp3107
a(S'w'
I1
tp3108
a(S'w'
I1
tp3109
a(S'w'
I733
tp3110
a(S'w'
I1
tp3111
a(S'p2_vo'
I13
tp3112
a(S'w'
I732
tp3113
a(S'p1_vo'
I8
tp3114
a(S'w'
I1
tp3115
a(S'w'
I734
tp3116
a(S'w'
I1
tp3117
a(S'p2_vo'
I14
tp3118
a(S'w'
I740
tp3119
a(S'p1_vo'
I10
tp3120
a(S'p1_tl'
I239
tp3121
a(S'p1_ll'
I0
tp3122
a(S'w'
I1
tp3123
a(S'w'
I725
tp3124
a(S'w'
I1
tp3125
a(S'p2_vo'
I13
tp3126
a(S'w'
I732
tp3127
a(S'p1_vo'
I9
tp3128
a(S'w'
I2
tp3129
a(S'w'
I733
tp3130
a(S'w'
I1
tp3131
a(S'p2_vo'
I14
tp3132
a(S'w'
I732
tp3133
a(S'p1_vo'
I8
tp3134
a(S'w'
I1
tp3135
a(S'w'
I733
tp3136
a(S'w'
I1
tp3137
a(S'p2_vo'
I13
tp3138
a(S'w'
I747
tp3139
a(S'p1_vo'
I10
tp3140
a(S'w'
I1
tp3141
a(S'p1_tl'
I253
tp3142
a(S'p1_ll'
I0
tp3143
a(S'w'
I1
tp3144
a(S'p2_vo'
I12
tp3145
a(S'p2_tl'
I105
tp3146
a(S'w'
I1
tp3147
a(S'tr_tl'
I253
tp3148
a(S'tr_ll'
I0
tp3149
a(S'tr_th'
I0
tp3150
a(S'w'
I717
tp3151
a(S'w'
I1
tp3152
a(S'p2_vo'
I13
tp3153
a(S'w'
I732
tp3154
a(S'p1_vo'
I9
tp3155
a(S'w'
I1
tp3156
a(S'w'
I734
tp3157
a(S'p2_vo'
I12
tp3158
a(S'w'
I1
tp3159
a(S'w'
I731
tp3160
a(S'p1_vo'
I8
tp3161
a(S'w'
I1
tp3162
a(S'w'
I1
tp3163
a(S'w'
I733
tp3164
a(S'w'
I1
tp3165
a(S'p2_vo'
I13
tp3166
a(S'w'
I1
tp3167
a(S'w'
I741
tp3168
a(S'p1_vo'
I10
tp3169
a(S'p1_tl'
I239
tp3170
a(S'p1_ll'
I0
tp3171
a(S'w'
I1
tp3172
a(S'p2_tl'
I106
tp3173
a(S'w'
I724
tp3174
a(S'w'
I1
tp3175
a(S'p2_vo'
I12
tp3176
a(S'w'
I732
tp3177
a(S'p1_vo'
I9
tp3178
a(S'w'
I1
tp3179
a(S'w'
I734
tp3180
a(S'p2_vo'
I13
tp3181
a(S'w'
I1
tp3182
a(S'w'
I731
tp3183
a(S'p1_vo'
I8
tp3184
a(S'w'
I1
tp3185
a(S'w'
I1
tp3186
a(S'w'
I733
tp3187
a(S'w'
I1
tp3188
a(S'p2_vo'
I12
tp3189
a(S'w'
I748
tp3190
a(S'p1_vo'
I10
tp3191
a(S'p1_tl'
I213
tp3192
a(S'w'
I1
tp3193
a(S'p1_ll'
I0
tp3194
a(S'w'
I1
tp3195
a(S'p2_tl'
I105
tp3196
a(S'w'
I1
tp3197
a(S'tr_tl'
I239
tp3198
a(S'tr_ll'
I0
tp3199
a(S'w'
I716
tp3200
a(S'w'
I1
tp3201
a(S'p2_vo'
I13
tp3202
a(S'w'
I731
tp3203
a(S'p1_vo'
I9
tp3204
a(S'w'
I1
tp3205
a(S'w'
I1
tp3206
a(S'w'
I733
tp3207
a(S'w'
I1
tp3208
a(S'p2_vo'
I12
tp3209
a(S'w'
I732
tp3210
a(S'p1_vo'
I8
tp3211
a(S'w'
I1
tp3212
a(S'w'
I734
tp3213
a(S'w'
I1
tp3214
a(S'p2_vo'
I13
tp3215
a(S'w'
I741
tp3216
a(S'p1_vo'
I10
tp3217
a(S'w'
I1
tp3218
a(S'p1_tl'
I201
tp3219
a(S'p1_ll'
I0
tp3220
a(S'w'
I1
tp3221
a(S'p2_tl'
I106
tp3222
a(S'w'
I723
tp3223
a(S'w'
I1
tp3224
a(S'p2_vo'
I12
tp3225
a(S'w'
I733
tp3226
a(S'p1_vo'
I9
tp3227
a(S'w'
I1
tp3228
a(S'p2_vo'
I11
tp3229
a(S'w'
I733
tp3230
a(S'w'
I1
tp3231
a(S'p2_vo'
I12
tp3232
a(S'w'
I732
tp3233
a(S'p1_vo'
I8
tp3234
a(S'w'
I1
tp3235
a(S'w'
I734
tp3236
a(S'p2_vo'
I11
tp3237
a(S'w'
I1
tp3238
a(S'w'
I748
tp3239
a(S'p1_vo'
I10
tp3240
a(S'p1_tl'
I253
tp3241
a(S'p1_ll'
I0
tp3242
a(S'w'
I1
tp3243
a(S'p2_tl'
I105
tp3244
a(S'w'
I1
tp3245
a(S'tr_tl'
I253
tp3246
a(S'tr_ll'
I0
tp3247
a(S'w'
I717
tp3248
a(S'p2_vo'
I12
tp3249
a(S'w'
I1
tp3250
a(S'w'
I731
tp3251
a(S'p1_vo'
I9
tp3252
a(S'w'
I2
tp3253
a(S'w'
I733
tp3254
a(S'w'
I1
tp3255
a(S'p2_vo'
I11
tp3256
a(S'w'
I732
tp3257
a(S'p1_vo'
I8
tp3258
a(S'w'
I1
tp3259
a(S'w'
I734
tp3260
a(S'w'
I1
tp3261
a(S'p2_vo'
I12
tp3262
a(S'w'
I1
tp3263
a(S'w'
I740
tp3264
a(S'p1_vo'
I10
tp3265
a(S'p1_tl'
I239
tp3266
a(S'w'
I1
tp3267
a(S'p1_ll'
I0
tp3268
a(S'p2_vo'
I11
tp3269
a(S'w'
I1
tp3270
a(S'p2_tl'
I106
tp3271
a(S'w'
I723
tp3272
a(S'w'
I1
tp3273
a(S'p2_vo'
I9
tp3274
a(S'w'
I732
tp3275
a(S'p1_vo'
I9
tp3276
a(S'w'
I1
tp3277
a(S'p2_vo'
I8
tp3278
a(S'w'
I1
tp3279
a(S'w'
I732
tp3280
a(S'w'
I1
tp3281
a(S'p2_vo'
I11
tp3282
a(S'w'
I1
tp3283
a(S'w'
I732
tp3284
a(S'p1_vo'
I8
tp3285
a(S'w'
I1
tp3286
a(S'p2_vo'
I10
tp3287
a(S'w'
I733
tp3288
a(S'w'
I1
tp3289
a(S'p2_vo'
I9
tp3290
a(S'w'
I748
tp3291
a(S'p1_vo'
I10
tp3292
a(S'w'
I1
tp3293
a(S'p1_tl'
I213
tp3294
a(S'p1_ll'
I0
tp3295
a(S'w'
I1
tp3296
a(S'p2_vo'
I8
tp3297
a(S'p2_tl'
I105
tp3298
a(S'w'
I1
tp3299
a(S'tr_tl'
I239
tp3300
a(S'tr_ll'
I0
tp3301
a(S'w'
I716
tp3302
a(S'p2_vo'
I6
tp3303
a(S'w'
I1
tp3304
a(S'w'
I732
tp3305
a(S'p1_vo'
I9
tp3306
a(S'w'
I1
tp3307
a(S'p2_vo'
I5
tp3308
a(S'w'
I733
tp3309
a(S'w'
I1
tp3310
a(S'p2_vo'
I8
tp3311
a(S'w'
I732
tp3312
a(S'p1_vo'
I8
tp3313
a(S'w'
I1
tp3314
a(S'w'
I1
tp3315
a(S'p2_vo'
I7
tp3316
a(S'w'
I733
tp3317
a(S'w'
I1
tp3318
a(S'p2_vo'
I6
tp3319
a(S'w'
I742
tp3320
a(S'p1_vo'
I10
tp3321
a(S'p1_tl'
I201
tp3322
a(S'p1_ll'
I0
tp3323
a(S'w'
I1
tp3324
a(S'p2_vo'
I5
tp3325
a(S'p2_tl'
I106
tp3326
a(S'w'
I723
tp3327
a(S'w'
I1
tp3328
a(S'p2_vo'
I3
tp3329
a(S'w'
I1
tp3330
a(S'w'
I732
tp3331
a(S'p1_vo'
I9
tp3332
a(S'w'
I1
tp3333
a(S'p2_vo'
I2
tp3334
a(S'w'
I733
tp3335
a(S'w'
I1
tp3336
a(S'p2_vo'
I5
tp3337
a(S'w'
I732
tp3338
a(S'p1_vo'
I8
tp3339
a(S'w'
I1
tp3340
a(S'p2_vo'
I4
tp3341
a(S'w'
I1
tp3342
a(S'w'
I733
tp3343
a(S'w'
I1
tp3344
a(S'p2_vo'
I3
tp3345
a(S'w'
I765
tp3346
a(S'p1_vo'
I10
tp3347
a(S'p1_tl'
I170
tp3348
a(S'w'
I1
tp3349
a(S'p1_ll'
I0
tp3350
a(S'p1_th'
I1
tp3351
a(S'w'
I1
tp3352
a(S'p2_vo'
I12
tp3353
a(S'p2_tl'
I213
tp3354
a(S'p2_ll'
I0
tp3355
a(S'w'
I1
tp3356
a.