(lp1
(S'clock'
p2
I1789772
tp3
a(S'ch_no'
I1
tp4
a(S'ch_tr'
I1
tp5
a(S'ch_p2'
I1
tp6
a(S'ch_p1'
I1
tp7
a(S'w'
I59
tp8
a(S'p1_ll'
I16
tp9
a(S'w'
I2
tp10
a(S'p1_tl'
I246
tp11
a(S'w'
I2
tp12
a(S'w'
I2
tp13
a(S'p1_lh'
I1
tp14
a(S'p1_cv'
I1
tp15
a(S'p1_vo'
I4
tp16
a(S'w'
I60
tp17
a(S'p2_ll'
I16
tp18
a(S'w'
I1
tp19
a(S'p2_tl'
I185
tp20
a(S'w'
I2
tp21
a(S'w'
I2
tp22
a(S'p2_lh'
I1
tp23
a(S'p2_cv'
I1
tp24
a(S'p2_vo'
I4
tp25
a(S'w'
I23
tp26
a(S'tr_lr'
I16
tp27
a(S'w'
I4
tp28
a(S'tr_ll'
I16
tp29
a(S'tr_th'
I1
tp30
a(S'w'
I2
tp31
a(S'tr_tl'
I171
tp32
a(S'w'
I33
tp33
a(S'ch_no'
I1
tp34
a(S'ch_tr'
I1
tp35
a(S'ch_p2'
I1
tp36
a(S'ch_p1'
I1
tp37
a(S'w'
I6
tp38
a(S'no_lh'
I1
tp39
a(S'no_cv'
I1
tp40
a(S'no_vo'
I5
tp41
a(S'no_np'
I7
tp42
a(S'no_ll'
I0
tp43
a(S'w'
I552
tp44
a(S'p1_tl'
I244
tp45
a(S'w'
I4
tp46
a(S'p1_vo'
I6
tp47
a(S'w'
I14
tp48
a(S'p2_tl'
I183
tp49
a(S'w'
I4
tp50
a(S'p2_vo'
I6
tp51
a(S'w'
I7
tp52
a(S'no_vo'
I2
tp53
a(S'no_np'
I3
tp54
a(S'no_ll'
I0
tp55
a(S'w'
I704
tp56
a(S'p1_tl'
I242
tp57
a(S'w'
I4
tp58
a(S'p1_vo'
I7
tp59
a(S'w'
I14
tp60
a(S'p2_tl'
I181
tp61
a(S'w'
I4
tp62
a(S'p2_vo'
I7
tp63
a(S'w'
I8
tp64
a(S'no_vo'
I0
tp65
a(S'w'
I702
tp66
a(S'p1_tl'
I241
tp67
a(S'w'
I16
tp68
a(S'p2_tl'
I180
tp69
a(S'w'
I720
tp70
a(S'p1_tl'
I240
tp71
a(S'w'
I4
tp72
a(S'p1_vo'
I6
tp73
a(S'w'
I14
tp74
a(S'p2_tl'
I179
tp75
a(S'w'
I4
tp76
a(S'p2_vo'
I6
tp77
a(S'w'
I707
tp78
a(S'w'
I14
tp79
a(S'w'
I722
tp80
a(S'w'
I4
tp81
a(S'p1_vo'
I5
tp82
a(S'w'
I12
tp83
a(S'w'
I4
tp84
a(S'p2_vo'
I5
tp85
a(S'w'
I734
tp86
a(S'p1_ll'
I16
tp87
a(S'w'
I1
tp88
a(S'p1_tl'
I246
tp89
a(S'w'
I4
tp90
a(S'p1_vo'
I4
tp91
a(S'w'
I34
tp92
a(S'p2_ll'
I16
tp93
a(S'w'
I1
tp94
a(S'p2_tl'
I185
tp95
a(S'w'
I4
tp96
a(S'p2_vo'
I4
tp97
a(S'w'
I23
tp98
a(S'tr_ll'
I16
tp99
a(S'w'
I649
tp100
a(S'p1_tl'
I244
tp101
a(S'w'
I4
tp102
a(S'p1_vo'
I6
tp103
a(S'w'
I14
tp104
a(S'p2_tl'
I183
tp105
a(S'w'
I4
tp106
a(S'p2_vo'
I6
tp107
a(S'w'
I712
tp108
a(S'p1_tl'
I242
tp109
a(S'w'
I4
tp110
a(S'p1_vo'
I7
tp111
a(S'w'
I14
tp112
a(S'p2_tl'
I181
tp113
a(S'w'
I4
tp114
a(S'p2_vo'
I7
tp115
a(S'w'
I709
tp116
a(S'p1_tl'
I241
tp117
a(S'w'
I16
tp118
a(S'p2_tl'
I180
tp119
a(S'w'
I720
tp120
a(S'p1_tl'
I240
tp121
a(S'w'
I4
tp122
a(S'p1_vo'
I6
tp123
a(S'w'
I14
tp124
a(S'p2_tl'
I179
tp125
a(S'w'
I4
tp126
a(S'p2_vo'
I6
tp127
a(S'w'
I708
tp128
a(S'w'
I14
tp129
a(S'w'
I722
tp130
a(S'w'
I4
tp131
a(S'p1_vo'
I5
tp132
a(S'w'
I12
tp133
a(S'w'
I4
tp134
a(S'p2_vo'
I5
tp135
a(S'w'
I734
tp136
a(S'p1_ll'
I16
tp137
a(S'w'
I1
tp138
a(S'p1_tl'
I246
tp139
a(S'w'
I4
tp140
a(S'p1_vo'
I4
tp141
a(S'w'
I34
tp142
a(S'p2_ll'
I16
tp143
a(S'w'
I1
tp144
a(S'p2_tl'
I185
tp145
a(S'w'
I4
tp146
a(S'p2_vo'
I4
tp147
a(S'w'
I23
tp148
a(S'tr_ll'
I16
tp149
a(S'w'
I35
tp150
a(S'no_vo'
I5
tp151
a(S'w'
I1
tp152
a(S'no_np'
I7
tp153
a(S'no_ll'
I0
tp154
a(S'w'
I612
tp155
a(S'p1_tl'
I244
tp156
a(S'w'
I4
tp157
a(S'p1_vo'
I6
tp158
a(S'w'
I14
tp159
a(S'p2_tl'
I183
tp160
a(S'w'
I4
tp161
a(S'p2_vo'
I6
tp162
a(S'w'
I7
tp163
a(S'no_vo'
I2
tp164
a(S'no_np'
I3
tp165
a(S'no_ll'
I0
tp166
a(S'w'
I705
tp167
a(S'p1_tl'
I242
tp168
a(S'w'
I4
tp169
a(S'p1_vo'
I7
tp170
a(S'w'
I14
tp171
a(S'p2_tl'
I181
tp172
a(S'w'
I4
tp173
a(S'p2_vo'
I7
tp174
a(S'w'
I8
tp175
a(S'no_vo'
I0
tp176
a(S'w'
I702
tp177
a(S'p1_tl'
I241
tp178
a(S'w'
I16
tp179
a(S'p2_tl'
I180
tp180
a(S'w'
I720
tp181
a(S'p1_tl'
I240
tp182
a(S'w'
I4
tp183
a(S'p1_vo'
I6
tp184
a(S'w'
I14
tp185
a(S'p2_tl'
I179
tp186
a(S'w'
I4
tp187
a(S'p2_vo'
I6
tp188
a(S'w'
I708
tp189
a(S'w'
I14
tp190
a(S'w'
I721
tp191
a(S'w'
I4
tp192
a(S'p1_vo'
I5
tp193
a(S'w'
I12
tp194
a(S'w'
I4
tp195
a(S'p2_vo'
I5
tp196
a(S'w'
I736
tp197
a(S'p1_ll'
I16
tp198
a(S'w'
I2
tp199
a(S'p1_tl'
I219
tp200
a(S'w'
I4
tp201
a(S'p1_vo'
I4
tp202
a(S'w'
I33
tp203
a(S'p2_ll'
I16
tp204
a(S'w'
I2
tp205
a(S'p2_tl'
I166
tp206
a(S'w'
I3
tp207
a(S'p2_vo'
I4
tp208
a(S'w'
I24
tp209
a(S'tr_ll'
I16
tp210
a(S'w'
I35
tp211
a(S'no_vo'
I5
tp212
a(S'no_np'
I7
tp213
a(S'no_ll'
I0
tp214
a(S'w'
I611
tp215
a(S'p1_tl'
I217
tp216
a(S'w'
I4
tp217
a(S'p1_vo'
I6
tp218
a(S'w'
I14
tp219
a(S'p2_tl'
I164
tp220
a(S'w'
I4
tp221
a(S'p2_vo'
I6
tp222
a(S'w'
I7
tp223
a(S'no_vo'
I2
tp224
a(S'no_np'
I3
tp225
a(S'no_ll'
I0
tp226
a(S'w'
I705
tp227
a(S'p1_tl'
I215
tp228
a(S'w'
I4
tp229
a(S'p1_vo'
I7
tp230
a(S'w'
I14
tp231
a(S'p2_tl'
I162
tp232
a(S'w'
I4
tp233
a(S'p2_vo'
I7
tp234
a(S'w'
I8
tp235
a(S'no_vo'
I0
tp236
a(S'w'
I702
tp237
a(S'p1_tl'
I214
tp238
a(S'w'
I16
tp239
a(S'p2_tl'
I161
tp240
a(S'w'
I719
tp241
a(S'p1_tl'
I213
tp242
a(S'w'
I4
tp243
a(S'p1_vo'
I6
tp244
a(S'w'
I14
tp245
a(S'p2_tl'
I160
tp246
a(S'w'
I4
tp247
a(S'p2_vo'
I6
tp248
a(S'w'
I708
tp249
a(S'w'
I14
tp250
a(S'w'
I722
tp251
a(S'w'
I4
tp252
a(S'p1_vo'
I5
tp253
a(S'w'
I12
tp254
a(S'w'
I4
tp255
a(S'p2_vo'
I5
tp256
a(S'w'
I732
tp257
a(S'p1_ll'
I16
tp258
a(S'w'
I2
tp259
a(S'p1_tl'
I246
tp260
a(S'w'
I4
tp261
a(S'p1_vo'
I2
tp262
a(S'w'
I32
tp263
a(S'p2_ll'
I16
tp264
a(S'w'
I2
tp265
a(S'p2_tl'
I185
tp266
a(S'w'
I4
tp267
a(S'p2_vo'
I2
tp268
a(S'w'
I23
tp269
a(S'tr_ll'
I16
tp270
a(S'w'
I30
tp271
a(S'ch_no'
I1
tp272
a(S'ch_tr'
I1
tp273
a(S'ch_p2'
I1
tp274
a(S'ch_p1'
I1
tp275
a(S'w'
I1
tp276
a(S'ch_no'
I1
tp277
a(S'ch_tr'
I1
tp278
a(S'ch_p2'
I1
tp279
a(S'ch_p1'
I1
tp280
a(S'w'
I6
tp281
a(S'no_vo'
I5
tp282
a(S'no_np'
I7
tp283
a(S'no_ll'
I0
tp284
a(S'w'
I613
tp285
a(S'p1_tl'
I244
tp286
a(S'w'
I18
tp287
a(S'p2_tl'
I183
tp288
a(S'w'
I11
tp289
a(S'no_vo'
I2
tp290
a(S'no_np'
I3
tp291
a(S'no_ll'
I0
tp292
a(S'w'
I706
tp293
a(S'p1_tl'
I242
tp294
a(S'w'
I17
tp295
a(S'p2_tl'
I181
tp296
a(S'w'
I12
tp297
a(S'no_vo'
I0
tp298
a(S'w'
I703
tp299
a(S'p1_tl'
I241
tp300
a(S'w'
I15
tp301
a(S'p2_tl'
I180
tp302
a(S'w'
I721
tp303
a(S'p1_tl'
I240
tp304
a(S'w'
I17
tp305
a(S'p2_tl'
I179
tp306
a(S'w'
I715
tp307
a(S'w'
I15
tp308
a(S'w'
I720
tp309
a(S'w'
I17
tp310
a(S'w'
I736
tp311
a(S'p1_ll'
I16
tp312
a(S'w'
I1
tp313
a(S'p1_tl'
I219
tp314
a(S'w'
I4
tp315
a(S'p1_vo'
I4
tp316
a(S'w'
I34
tp317
a(S'p2_ll'
I16
tp318
a(S'w'
I1
tp319
a(S'p2_tl'
I166
tp320
a(S'w'
I4
tp321
a(S'p2_vo'
I4
tp322
a(S'w'
I23
tp323
a(S'tr_ll'
I16
tp324
a(S'w'
I16
tp325
a(S'ch_no'
I1
tp326
a(S'ch_tr'
I1
tp327
a(S'ch_p2'
I1
tp328
a(S'ch_p1'
I1
tp329
a(S'w'
I1
tp330
a(S'ch_no'
I1
tp331
a(S'ch_tr'
I1
tp332
a(S'ch_p2'
I1
tp333
a(S'ch_p1'
I1
tp334
a(S'w'
I632
tp335
a(S'p1_tl'
I217
tp336
a(S'w'
I4
tp337
a(S'p1_vo'
I6
tp338
a(S'w'
I14
tp339
a(S'p2_tl'
I164
tp340
a(S'w'
I3
tp341
a(S'p2_vo'
I6
tp342
a(S'w'
I713
tp343
a(S'p1_tl'
I215
tp344
a(S'w'
I4
tp345
a(S'p1_vo'
I7
tp346
a(S'w'
I14
tp347
a(S'p2_tl'
I162
tp348
a(S'w'
I4
tp349
a(S'p2_vo'
I7
tp350
a(S'w'
I710
tp351
a(S'p1_tl'
I214
tp352
a(S'w'
I16
tp353
a(S'p2_tl'
I161
tp354
a(S'w'
I719
tp355
a(S'p1_tl'
I213
tp356
a(S'w'
I4
tp357
a(S'p1_vo'
I6
tp358
a(S'w'
I14
tp359
a(S'p2_tl'
I160
tp360
a(S'w'
I4
tp361
a(S'p2_vo'
I6
tp362
a(S'w'
I708
tp363
a(S'w'
I14
tp364
a(S'w'
I722
tp365
a(S'w'
I4
tp366
a(S'p1_vo'
I5
tp367
a(S'w'
I12
tp368
a(S'w'
I4
tp369
a(S'p2_vo'
I5
tp370
a(S'w'
I732
tp371
a(S'p1_ll'
I16
tp372
a(S'w'
I2
tp373
a(S'p1_tl'
I219
tp374
a(S'w'
I4
tp375
a(S'p1_vo'
I2
tp376
a(S'w'
I32
tp377
a(S'p2_ll'
I16
tp378
a(S'w'
I1
tp379
a(S'p2_tl'
I166
tp380
a(S'w'
I4
tp381
a(S'p2_vo'
I2
tp382
a(S'w'
I24
tp383
a(S'tr_ll'
I16
tp384
a(S'w'
I35
tp385
a(S'no_vo'
I5
tp386
a(S'no_np'
I7
tp387
a(S'no_ll'
I0
tp388
a(S'w'
I614
tp389
a(S'p1_tl'
I217
tp390
a(S'w'
I17
tp391
a(S'p2_tl'
I164
tp392
a(S'w'
I11
tp393
a(S'no_vo'
I2
tp394
a(S'w'
I1
tp395
a(S'no_np'
I3
tp396
a(S'no_ll'
I0
tp397
a(S'w'
I705
tp398
a(S'p1_tl'
I215
tp399
a(S'w'
I17
tp400
a(S'p2_tl'
I162
tp401
a(S'w'
I11
tp402
a(S'no_vo'
I0
tp403
a(S'w'
I702
tp404
a(S'p1_tl'
I214
tp405
a(S'w'
I15
tp406
a(S'p2_tl'
I161
tp407
a(S'w'
I721
tp408
a(S'p1_tl'
I213
tp409
a(S'w'
I17
tp410
a(S'p2_tl'
I160
tp411
a(S'w'
I715
tp412
a(S'w'
I15
tp413
a(S'w'
I721
tp414
a(S'w'
I17
tp415
a(S'w'
I735
tp416
a(S'p1_ll'
I16
tp417
a(S'w'
I2
tp418
a(S'p1_tl'
I219
tp419
a(S'w'
I4
tp420
a(S'p1_vo'
I4
tp421
a(S'w'
I33
tp422
a(S'p2_ll'
I16
tp423
a(S'w'
I2
tp424
a(S'p2_tl'
I166
tp425
a(S'w'
I3
tp426
a(S'p2_vo'
I4
tp427
a(S'w'
I23
tp428
a(S'tr_ll'
I16
tp429
a(S'w'
I36
tp430
a(S'no_vo'
I5
tp431
a(S'no_np'
I7
tp432
a(S'no_ll'
I0
tp433
a(S'w'
I613
tp434
a(S'p1_tl'
I217
tp435
a(S'w'
I4
tp436
a(S'p1_vo'
I6
tp437
a(S'w'
I14
tp438
a(S'p2_tl'
I164
tp439
a(S'w'
I4
tp440
a(S'p2_vo'
I6
tp441
a(S'w'
I7
tp442
a(S'no_vo'
I2
tp443
a(S'no_np'
I3
tp444
a(S'no_ll'
I0
tp445
a(S'w'
I705
tp446
a(S'p1_tl'
I215
tp447
a(S'w'
I4
tp448
a(S'p1_vo'
I7
tp449
a(S'w'
I14
tp450
a(S'p2_tl'
I162
tp451
a(S'w'
I4
tp452
a(S'p2_vo'
I7
tp453
a(S'w'
I8
tp454
a(S'no_vo'
I0
tp455
a(S'w'
I702
tp456
a(S'p1_tl'
I214
tp457
a(S'w'
I16
tp458
a(S'p2_tl'
I161
tp459
a(S'w'
I719
tp460
a(S'p1_tl'
I213
tp461
a(S'w'
I4
tp462
a(S'p1_vo'
I6
tp463
a(S'w'
I14
tp464
a(S'p2_tl'
I160
tp465
a(S'w'
I4
tp466
a(S'p2_vo'
I6
tp467
a(S'w'
I708
tp468
a(S'w'
I14
tp469
a(S'w'
I722
tp470
a(S'w'
I4
tp471
a(S'p1_vo'
I5
tp472
a(S'w'
I12
tp473
a(S'w'
I4
tp474
a(S'p2_vo'
I5
tp475
a(S'w'
I736
tp476
a(S'p1_ll'
I16
tp477
a(S'p1_th'
I1
tp478
a(S'w'
I1
tp479
a(S'p1_tl'
I35
tp480
a(S'w'
I4
tp481
a(S'p1_vo'
I4
tp482
a(S'w'
I34
tp483
a(S'p2_ll'
I16
tp484
a(S'w'
I1
tp485
a(S'p2_tl'
I219
tp486
a(S'w'
I4
tp487
a(S'p2_vo'
I4
tp488
a(S'w'
I23
tp489
a(S'tr_ll'
I16
tp490
a(S'w'
I33
tp491
a(S'ch_no'
I1
tp492
a(S'ch_tr'
I1
tp493
a(S'ch_p2'
I1
tp494
a(S'ch_p1'
I1
tp495
a(S'w'
I1
tp496
a(S'ch_no'
I1
tp497
a(S'ch_tr'
I1
tp498
a(S'ch_p2'
I1
tp499
a(S'ch_p1'
I1
tp500
a(S'w'
I6
tp501
a(S'no_vo'
I5
tp502
a(S'no_np'
I7
tp503
a(S'no_ll'
I0
tp504
a(S'w'
I608
tp505
a(S'p1_tl'
I33
tp506
a(S'w'
I4
tp507
a(S'p1_vo'
I6
tp508
a(S'w'
I14
tp509
a(S'p2_tl'
I217
tp510
a(S'w'
I3
tp511
a(S'p2_vo'
I6
tp512
a(S'w'
I7
tp513
a(S'no_vo'
I2
tp514
a(S'w'
I1
tp515
a(S'no_np'
I3
tp516
a(S'no_ll'
I0
tp517
a(S'w'
I703
tp518
a(S'p1_tl'
I31
tp519
a(S'w'
I4
tp520
a(S'p1_vo'
I7
tp521
a(S'w'
I14
tp522
a(S'p2_tl'
I215
tp523
a(S'w'
I4
tp524
a(S'p2_vo'
I7
tp525
a(S'w'
I7
tp526
a(S'no_vo'
I0
tp527
a(S'w'
I703
tp528
a(S'p1_tl'
I30
tp529
a(S'w'
I16
tp530
a(S'p2_tl'
I214
tp531
a(S'w'
I720
tp532
a(S'p1_tl'
I29
tp533
a(S'w'
I4
tp534
a(S'p1_vo'
I6
tp535
a(S'w'
I14
tp536
a(S'p2_tl'
I213
tp537
a(S'w'
I4
tp538
a(S'p2_vo'
I6
tp539
a(S'w'
I708
tp540
a(S'w'
I14
tp541
a(S'w'
I722
tp542
a(S'w'
I4
tp543
a(S'p1_vo'
I5
tp544
a(S'w'
I12
tp545
a(S'w'
I4
tp546
a(S'p2_vo'
I5
tp547
a(S'w'
I732
tp548
a(S'p1_ll'
I16
tp549
a(S'w'
I2
tp550
a(S'p1_tl'
I35
tp551
a(S'w'
I4
tp552
a(S'p1_vo'
I4
tp553
a(S'w'
I33
tp554
a(S'p2_ll'
I16
tp555
a(S'w'
I2
tp556
a(S'p2_tl'
I219
tp557
a(S'w'
I4
tp558
a(S'p2_vo'
I4
tp559
a(S'w'
I23
tp560
a(S'tr_ll'
I16
tp561
a(S'w'
I649
tp562
a(S'p1_tl'
I33
tp563
a(S'w'
I4
tp564
a(S'p1_vo'
I6
tp565
a(S'w'
I14
tp566
a(S'p2_tl'
I217
tp567
a(S'w'
I4
tp568
a(S'p2_vo'
I6
tp569
a(S'w'
I712
tp570
a(S'p1_tl'
I31
tp571
a(S'w'
I4
tp572
a(S'p1_vo'
I7
tp573
a(S'w'
I14
tp574
a(S'p2_tl'
I215
tp575
a(S'w'
I4
tp576
a(S'p2_vo'
I7
tp577
a(S'w'
I710
tp578
a(S'p1_tl'
I30
tp579
a(S'w'
I16
tp580
a(S'p2_tl'
I214
tp581
a(S'w'
I720
tp582
a(S'p1_tl'
I29
tp583
a(S'w'
I4
tp584
a(S'p1_vo'
I6
tp585
a(S'w'
I14
tp586
a(S'p2_tl'
I213
tp587
a(S'w'
I4
tp588
a(S'p2_vo'
I6
tp589
a(S'w'
I707
tp590
a(S'w'
I14
tp591
a(S'w'
I722
tp592
a(S'w'
I4
tp593
a(S'p1_vo'
I5
tp594
a(S'w'
I12
tp595
a(S'w'
I4
tp596
a(S'p2_vo'
I5
tp597
a(S'w'
I733
tp598
a(S'p1_ll'
I16
tp599
a(S'w'
I2
tp600
a(S'p1_tl'
I35
tp601
a(S'w'
I4
tp602
a(S'p1_vo'
I4
tp603
a(S'w'
I33
tp604
a(S'p2_ll'
I16
tp605
a(S'w'
I2
tp606
a(S'p2_tl'
I219
tp607
a(S'w'
I4
tp608
a(S'p2_vo'
I4
tp609
a(S'w'
I23
tp610
a(S'tr_ll'
I16
tp611
a(S'w'
I35
tp612
a(S'no_vo'
I5
tp613
a(S'no_np'
I7
tp614
a(S'w'
I1
tp615
a(S'no_ll'
I0
tp616
a(S'w'
I613
tp617
a(S'p1_tl'
I33
tp618
a(S'w'
I4
tp619
a(S'p1_vo'
I6
tp620
a(S'w'
I14
tp621
a(S'p2_tl'
I217
tp622
a(S'w'
I4
tp623
a(S'p2_vo'
I6
tp624
a(S'w'
I7
tp625
a(S'no_vo'
I2
tp626
a(S'no_np'
I3
tp627
a(S'no_ll'
I0
tp628
a(S'w'
I705
tp629
a(S'p1_tl'
I31
tp630
a(S'w'
I4
tp631
a(S'p1_vo'
I7
tp632
a(S'w'
I14
tp633
a(S'p2_tl'
I215
tp634
a(S'w'
I4
tp635
a(S'p2_vo'
I7
tp636
a(S'w'
I7
tp637
a(S'no_vo'
I0
tp638
a(S'w'
I702
tp639
a(S'p1_tl'
I30
tp640
a(S'w'
I16
tp641
a(S'p2_tl'
I214
tp642
a(S'w'
I720
tp643
a(S'p1_tl'
I29
tp644
a(S'w'
I4
tp645
a(S'p1_vo'
I6
tp646
a(S'w'
I14
tp647
a(S'p2_tl'
I213
tp648
a(S'w'
I4
tp649
a(S'p2_vo'
I6
tp650
a(S'w'
I708
tp651
a(S'w'
I14
tp652
a(S'w'
I722
tp653
a(S'w'
I4
tp654
a(S'p1_vo'
I5
tp655
a(S'w'
I12
tp656
a(S'w'
I4
tp657
a(S'p2_vo'
I5
tp658
a(S'w'
I733
tp659
a(S'p1_ll'
I16
tp660
a(S'p1_th'
I0
tp661
a(S'w'
I1
tp662
a(S'p1_tl'
I246
tp663
a(S'w'
I4
tp664
a(S'p1_vo'
I4
tp665
a(S'w'
I34
tp666
a(S'p2_ll'
I16
tp667
a(S'w'
I1
tp668
a(S'p2_tl'
I185
tp669
a(S'w'
I4
tp670
a(S'p2_vo'
I4
tp671
a(S'w'
I23
tp672
a(S'tr_ll'
I16
tp673
a(S'w'
I35
tp674
a(S'no_vo'
I5
tp675
a(S'w'
I1
tp676
a(S'no_np'
I7
tp677
a(S'no_ll'
I0
tp678
a(S'w'
I613
tp679
a(S'p1_tl'
I244
tp680
a(S'w'
I4
tp681
a(S'p1_vo'
I6
tp682
a(S'w'
I14
tp683
a(S'p2_tl'
I183
tp684
a(S'w'
I4
tp685
a(S'p2_vo'
I6
tp686
a(S'w'
I7
tp687
a(S'no_vo'
I2
tp688
a(S'no_np'
I3
tp689
a(S'no_ll'
I0
tp690
a(S'w'
I705
tp691
a(S'p1_tl'
I242
tp692
a(S'w'
I4
tp693
a(S'p1_vo'
I7
tp694
a(S'w'
I14
tp695
a(S'p2_tl'
I181
tp696
a(S'w'
I4
tp697
a(S'p2_vo'
I7
tp698
a(S'w'
I8
tp699
a(S'no_vo'
I0
tp700
a(S'w'
I702
tp701
a(S'p1_tl'
I241
tp702
a(S'w'
I16
tp703
a(S'p2_tl'
I180
tp704
a(S'w'
I720
tp705
a(S'p1_tl'
I240
tp706
a(S'w'
I4
tp707
a(S'p1_vo'
I6
tp708
a(S'w'
I14
tp709
a(S'p2_tl'
I179
tp710
a(S'w'
I4
tp711
a(S'p2_vo'
I6
tp712
a(S'w'
I707
tp713
a(S'w'
I14
tp714
a(S'w'
I722
tp715
a(S'w'
I4
tp716
a(S'p1_vo'
I5
tp717
a(S'w'
I12
tp718
a(S'w'
I4
tp719
a(S'p2_vo'
I5
tp720
a(S'w'
I732
tp721
a(S'p1_ll'
I16
tp722
a(S'p1_th'
I1
tp723
a(S'w'
I2
tp724
a(S'p1_tl'
I35
tp725
a(S'w'
I4
tp726
a(S'p1_vo'
I2
tp727
a(S'w'
I32
tp728
a(S'p2_ll'
I16
tp729
a(S'w'
I1
tp730
a(S'p2_tl'
I219
tp731
a(S'w'
I4
tp732
a(S'p2_vo'
I2
tp733
a(S'w'
I23
tp734
a(S'tr_ll'
I16
tp735
a(S'w'
I31
tp736
a(S'ch_no'
I1
tp737
a(S'ch_tr'
I1
tp738
a(S'ch_p2'
I1
tp739
a(S'ch_p1'
I1
tp740
a(S'w'
I1
tp741
a(S'ch_no'
I1
tp742
a(S'ch_tr'
I1
tp743
a(S'ch_p2'
I1
tp744
a(S'ch_p1'
I1
tp745
a(S'w'
I5
tp746
a(S'no_vo'
I5
tp747
a(S'w'
I1
tp748
a(S'no_np'
I7
tp749
a(S'no_ll'
I0
tp750
a(S'w'
I614
tp751
a(S'p1_tl'
I33
tp752
a(S'w'
I18
tp753
a(S'p2_tl'
I217
tp754
a(S'w'
I11
tp755
a(S'no_vo'
I2
tp756
a(S'no_np'
I3
tp757
a(S'no_ll'
I0
tp758
a(S'w'
I706
tp759
a(S'p1_tl'
I31
tp760
a(S'w'
I17
tp761
a(S'p2_tl'
I215
tp762
a(S'w'
I12
tp763
a(S'no_vo'
I0
tp764
a(S'w'
I701
tp765
a(S'p1_tl'
I30
tp766
a(S'w'
I16
tp767
a(S'p2_tl'
I214
tp768
a(S'w'
I721
tp769
a(S'p1_tl'
I29
tp770
a(S'w'
I17
tp771
a(S'p2_tl'
I213
tp772
a(S'w'
I715
tp773
a(S'w'
I15
tp774
a(S'w'
I721
tp775
a(S'w'
I17
tp776
a(S'w'
I735
tp777
a(S'p1_ll'
I16
tp778
a(S'w'
I2
tp779
a(S'p1_tl'
I35
tp780
a(S'w'
I4
tp781
a(S'p1_vo'
I4
tp782
a(S'w'
I33
tp783
a(S'p2_ll'
I16
tp784
a(S'w'
I2
tp785
a(S'p2_tl'
I219
tp786
a(S'w'
I3
tp787
a(S'p2_vo'
I4
tp788
a(S'w'
I24
tp789
a(S'tr_ll'
I16
tp790
a(S'w'
I15
tp791
a(S'ch_no'
I1
tp792
a(S'ch_tr'
I1
tp793
a(S'ch_p2'
I1
tp794
a(S'ch_p1'
I1
tp795
a(S'w'
I1
tp796
a(S'ch_no'
I1
tp797
a(S'ch_tr'
I1
tp798
a(S'ch_p2'
I1
tp799
a(S'ch_p1'
I1
tp800
a(S'w'
I631
tp801
a(S'p1_tl'
I33
tp802
a(S'w'
I4
tp803
a(S'p1_vo'
I6
tp804
a(S'w'
I14
tp805
a(S'p2_tl'
I217
tp806
a(S'w'
I4
tp807
a(S'p2_vo'
I6
tp808
a(S'w'
I712
tp809
a(S'p1_tl'
I31
tp810
a(S'w'
I4
tp811
a(S'p1_vo'
I7
tp812
a(S'w'
I15
tp813
a(S'p2_tl'
I215
tp814
a(S'w'
I3
tp815
a(S'p2_vo'
I7
tp816
a(S'w'
I710
tp817
a(S'p1_tl'
I30
tp818
a(S'w'
I17
tp819
a(S'p2_tl'
I214
tp820
a(S'w'
I719
tp821
a(S'p1_tl'
I29
tp822
a(S'w'
I4
tp823
a(S'p1_vo'
I6
tp824
a(S'w'
I15
tp825
a(S'p2_tl'
I213
tp826
a(S'w'
I3
tp827
a(S'p2_vo'
I6
tp828
a(S'w'
I708
tp829
a(S'w'
I15
tp830
a(S'w'
I720
tp831
a(S'w'
I5
tp832
a(S'p1_vo'
I5
tp833
a(S'w'
I12
tp834
a(S'w'
I3
tp835
a(S'p2_vo'
I5
tp836
a(S'w'
I733
tp837
a(S'p1_ll'
I16
tp838
a(S'p1_th'
I0
tp839
a(S'w'
I1
tp840
a(S'p1_tl'
I246
tp841
a(S'w'
I5
tp842
a(S'p1_vo'
I2
tp843
a(S'w'
I32
tp844
a(S'p2_ll'
I16
tp845
a(S'w'
I1
tp846
a(S'p2_tl'
I185
tp847
a(S'w'
I4
tp848
a(S'p2_vo'
I2
tp849
a(S'w'
I23
tp850
a(S'tr_ll'
I16
tp851
a(S'w'
I36
tp852
a(S'no_vo'
I5
tp853
a(S'no_np'
I7
tp854
a(S'no_ll'
I0
tp855
a(S'w'
I614
tp856
a(S'p1_tl'
I244
tp857
a(S'w'
I18
tp858
a(S'p2_tl'
I183
tp859
a(S'w'
I11
tp860
a(S'no_vo'
I2
tp861
a(S'no_np'
I3
tp862
a(S'no_ll'
I0
tp863
a(S'w'
I706
tp864
a(S'p1_tl'
I242
tp865
a(S'w'
I17
tp866
a(S'p2_tl'
I181
tp867
a(S'w'
I11
tp868
a(S'no_vo'
I0
tp869
a(S'w'
I701
tp870
a(S'p1_tl'
I241
tp871
a(S'w'
I15
tp872
a(S'p2_tl'
I180
tp873
a(S'w'
I721
tp874
a(S'p1_tl'
I240
tp875
a(S'w'
I17
tp876
a(S'p2_tl'
I179
tp877
a(S'w'
I715
tp878
a(S'w'
I15
tp879
a(S'w'
I721
tp880
a(S'w'
I17
tp881
a(S'w'
I735
tp882
a(S'p1_ll'
I16
tp883
a(S'p1_th'
I1
tp884
a(S'w'
I2
tp885
a(S'p1_tl'
I35
tp886
a(S'w'
I4
tp887
a(S'p1_vo'
I4
tp888
a(S'w'
I33
tp889
a(S'p2_ll'
I16
tp890
a(S'w'
I2
tp891
a(S'p2_tl'
I219
tp892
a(S'w'
I4
tp893
a(S'p2_vo'
I4
tp894
a(S'w'
I23
tp895
a(S'tr_ll'
I16
tp896
a(S'w'
I35
tp897
a(S'no_vo'
I5
tp898
a(S'no_np'
I7
tp899
a(S'w'
I1
tp900
a(S'no_ll'
I0
tp901
a(S'w'
I612
tp902
a(S'p1_tl'
I33
tp903
a(S'w'
I4
tp904
a(S'p1_vo'
I6
tp905
a(S'w'
I14
tp906
a(S'p2_tl'
I217
tp907
a(S'w'
I4
tp908
a(S'p2_vo'
I6
tp909
a(S'w'
I7
tp910
a(S'no_vo'
I2
tp911
a(S'no_np'
I3
tp912
a(S'no_ll'
I0
tp913
a(S'w'
I705
tp914
a(S'p1_tl'
I31
tp915
a(S'w'
I4
tp916
a(S'p1_vo'
I7
tp917
a(S'w'
I14
tp918
a(S'p2_tl'
I215
tp919
a(S'w'
I4
tp920
a(S'p2_vo'
I7
tp921
a(S'w'
I7
tp922
a(S'no_vo'
I0
tp923
a(S'w'
I703
tp924
a(S'p1_tl'
I30
tp925
a(S'w'
I16
tp926
a(S'p2_tl'
I214
tp927
a(S'w'
I720
tp928
a(S'p1_tl'
I29
tp929
a(S'w'
I4
tp930
a(S'p1_vo'
I6
tp931
a(S'w'
I14
tp932
a(S'p2_tl'
I213
tp933
a(S'w'
I4
tp934
a(S'p2_vo'
I6
tp935
a(S'w'
I708
tp936
a(S'w'
I14
tp937
a(S'w'
I721
tp938
a(S'w'
I4
tp939
a(S'p1_vo'
I5
tp940
a(S'w'
I12
tp941
a(S'w'
I4
tp942
a(S'p2_vo'
I5
tp943
a(S'w'
I736
tp944
a(S'p1_ll'
I16
tp945
a(S'p1_th'
I0
tp946
a(S'w'
I2
tp947
a(S'p1_tl'
I246
tp948
a(S'w'
I3
tp949
a(S'p1_vo'
I4
tp950
a(S'w'
I36
tp951
a(S'p2_ll'
I16
tp952
a(S'w'
I2
tp953
a(S'p2_tl'
I185
tp954
a(S'w'
I3
tp955
a(S'p2_vo'
I4
tp956
a(S'w'
I24
tp957
a(S'tr_ll'
I16
tp958
a(S'w'
I32
tp959
a(S'ch_no'
I1
tp960
a(S'ch_tr'
I1
tp961
a(S'ch_p2'
I1
tp962
a(S'ch_p1'
I1
tp963
a(S'w'
I1
tp964
a(S'ch_no'
I1
tp965
a(S'ch_tr'
I1
tp966
a(S'ch_p2'
I1
tp967
a(S'ch_p1'
I1
tp968
a(S'w'
I6
tp969
a(S'no_vo'
I5
tp970
a(S'no_np'
I7
tp971
a(S'no_ll'
I0
tp972
a(S'w'
I606
tp973
a(S'p1_tl'
I244
tp974
a(S'w'
I4
tp975
a(S'p1_vo'
I6
tp976
a(S'w'
I14
tp977
a(S'p2_tl'
I183
tp978
a(S'w'
I4
tp979
a(S'p2_vo'
I6
tp980
a(S'w'
I7
tp981
a(S'no_vo'
I2
tp982
a(S'no_np'
I3
tp983
a(S'no_ll'
I0
tp984
a(S'w'
I704
tp985
a(S'p1_tl'
I242
tp986
a(S'w'
I4
tp987
a(S'p1_vo'
I7
tp988
a(S'w'
I14
tp989
a(S'p2_tl'
I181
tp990
a(S'w'
I4
tp991
a(S'p2_vo'
I7
tp992
a(S'w'
I8
tp993
a(S'no_vo'
I0
tp994
a(S'w'
I702
tp995
a(S'p1_tl'
I241
tp996
a(S'w'
I16
tp997
a(S'p2_tl'
I180
tp998
a(S'w'
I719
tp999
a(S'p1_tl'
I240
tp1000
a(S'w'
I4
tp1001
a(S'p1_vo'
I6
tp1002
a(S'w'
I14
tp1003
a(S'p2_tl'
I179
tp1004
a(S'w'
I4
tp1005
a(S'p2_vo'
I6
tp1006
a(S'w'
I708
tp1007
a(S'w'
I14
tp1008
a(S'w'
I722
tp1009
a(S'w'
I4
tp1010
a(S'p1_vo'
I5
tp1011
a(S'w'
I12
tp1012
a(S'w'
I4
tp1013
a(S'p2_vo'
I5
tp1014
a(S'w'
I734
tp1015
a(S'p1_ll'
I16
tp1016
a(S'w'
I1
tp1017
a(S'p1_tl'
I246
tp1018
a(S'w'
I4
tp1019
a(S'p1_vo'
I4
tp1020
a(S'w'
I34
tp1021
a(S'p2_ll'
I16
tp1022
a(S'w'
I1
tp1023
a(S'p2_tl'
I185
tp1024
a(S'w'
I4
tp1025
a(S'p2_vo'
I4
tp1026
a(S'w'
I23
tp1027
a(S'tr_ll'
I16
tp1028
a(S'w'
I649
tp1029
a(S'p1_tl'
I244
tp1030
a(S'w'
I4
tp1031
a(S'p1_vo'
I6
tp1032
a(S'w'
I14
tp1033
a(S'p2_tl'
I183
tp1034
a(S'w'
I4
tp1035
a(S'p2_vo'
I6
tp1036
a(S'w'
I711
tp1037
a(S'p1_tl'
I242
tp1038
a(S'w'
I4
tp1039
a(S'p1_vo'
I7
tp1040
a(S'w'
I14
tp1041
a(S'p2_tl'
I181
tp1042
a(S'w'
I4
tp1043
a(S'p2_vo'
I7
tp1044
a(S'w'
I710
tp1045
a(S'p1_tl'
I241
tp1046
a(S'w'
I16
tp1047
a(S'p2_tl'
I180
tp1048
a(S'w'
I720
tp1049
a(S'p1_tl'
I240
tp1050
a(S'w'
I4
tp1051
a(S'p1_vo'
I6
tp1052
a(S'w'
I14
tp1053
a(S'p2_tl'
I179
tp1054
a(S'w'
I4
tp1055
a(S'p2_vo'
I6
tp1056
a(S'w'
I708
tp1057
a(S'w'
I14
tp1058
a(S'w'
I721
tp1059
a(S'w'
I4
tp1060
a(S'p1_vo'
I5
tp1061
a(S'w'
I12
tp1062
a(S'w'
I4
tp1063
a(S'p2_vo'
I5
tp1064
a(S'w'
I734
tp1065
a(S'p1_ll'
I16
tp1066
a(S'w'
I1
tp1067
a(S'p1_tl'
I246
tp1068
a(S'w'
I4
tp1069
a(S'p1_vo'
I4
tp1070
a(S'w'
I34
tp1071
a(S'p2_ll'
I16
tp1072
a(S'w'
I1
tp1073
a(S'p2_tl'
I185
tp1074
a(S'w'
I4
tp1075
a(S'p2_vo'
I4
tp1076
a(S'w'
I23
tp1077
a(S'tr_ll'
I16
tp1078
a(S'w'
I35
tp1079
a(S'no_vo'
I5
tp1080
a(S'w'
I1
tp1081
a(S'no_np'
I7
tp1082
a(S'no_ll'
I0
tp1083
a(S'w'
I613
tp1084
a(S'p1_tl'
I244
tp1085
a(S'w'
I4
tp1086
a(S'p1_vo'
I6
tp1087
a(S'w'
I14
tp1088
a(S'p2_tl'
I183
tp1089
a(S'w'
I4
tp1090
a(S'p2_vo'
I6
tp1091
a(S'w'
I7
tp1092
a(S'no_vo'
I2
tp1093
a(S'no_np'
I3
tp1094
a(S'no_ll'
I0
tp1095
a(S'w'
I705
tp1096
a(S'p1_tl'
I242
tp1097
a(S'w'
I4
tp1098
a(S'p1_vo'
I7
tp1099
a(S'w'
I14
tp1100
a(S'p2_tl'
I181
tp1101
a(S'w'
I4
tp1102
a(S'p2_vo'
I7
tp1103
a(S'w'
I8
tp1104
a(S'no_vo'
I0
tp1105
a(S'w'
I702
tp1106
a(S'p1_tl'
I241
tp1107
a(S'w'
I16
tp1108
a(S'p2_tl'
I180
tp1109
a(S'w'
I719
tp1110
a(S'p1_tl'
I240
tp1111
a(S'w'
I4
tp1112
a(S'p1_vo'
I6
tp1113
a(S'w'
I14
tp1114
a(S'p2_tl'
I179
tp1115
a(S'w'
I4
tp1116
a(S'p2_vo'
I6
tp1117
a(S'w'
I708
tp1118
a(S'w'
I14
tp1119
a(S'w'
I722
tp1120
a(S'w'
I4
tp1121
a(S'p1_vo'
I5
tp1122
a(S'w'
I12
tp1123
a(S'w'
I4
tp1124
a(S'p2_vo'
I5
tp1125
a(S'w'
I736
tp1126
a(S'p1_ll'
I16
tp1127
a(S'w'
I2
tp1128
a(S'p1_tl'
I219
tp1129
a(S'w'
I4
tp1130
a(S'p1_vo'
I4
tp1131
a(S'w'
I33
tp1132
a(S'p2_ll'
I16
tp1133
a(S'w'
I2
tp1134
a(S'p2_tl'
I166
tp1135
a(S'w'
I3
tp1136
a(S'p2_vo'
I4
tp1137
a(S'w'
I24
tp1138
a(S'tr_ll'
I16
tp1139
a(S'w'
I35
tp1140
a(S'no_vo'
I5
tp1141
a(S'no_np'
I7
tp1142
a(S'no_ll'
I0
tp1143
a(S'w'
I611
tp1144
a(S'p1_tl'
I217
tp1145
a(S'w'
I4
tp1146
a(S'p1_vo'
I6
tp1147
a(S'w'
I14
tp1148
a(S'p2_tl'
I164
tp1149
a(S'w'
I4
tp1150
a(S'p2_vo'
I6
tp1151
a(S'w'
I7
tp1152
a(S'no_vo'
I2
tp1153
a(S'no_np'
I3
tp1154
a(S'no_ll'
I0
tp1155
a(S'w'
I704
tp1156
a(S'p1_tl'
I215
tp1157
a(S'w'
I4
tp1158
a(S'p1_vo'
I7
tp1159
a(S'w'
I14
tp1160
a(S'p2_tl'
I162
tp1161
a(S'w'
I4
tp1162
a(S'p2_vo'
I7
tp1163
a(S'w'
I8
tp1164
a(S'no_vo'
I0
tp1165
a(S'w'
I702
tp1166
a(S'p1_tl'
I214
tp1167
a(S'w'
I16
tp1168
a(S'p2_tl'
I161
tp1169
a(S'w'
I720
tp1170
a(S'p1_tl'
I213
tp1171
a(S'w'
I4
tp1172
a(S'p1_vo'
I6
tp1173
a(S'w'
I14
tp1174
a(S'p2_tl'
I160
tp1175
a(S'w'
I4
tp1176
a(S'p2_vo'
I6
tp1177
a(S'w'
I708
tp1178
a(S'w'
I14
tp1179
a(S'w'
I722
tp1180
a(S'w'
I4
tp1181
a(S'p1_vo'
I5
tp1182
a(S'w'
I12
tp1183
a(S'w'
I4
tp1184
a(S'p2_vo'
I5
tp1185
a(S'w'
I731
tp1186
a(S'p1_ll'
I16
tp1187
a(S'w'
I2
tp1188
a(S'p1_tl'
I246
tp1189
a(S'w'
I4
tp1190
a(S'p1_vo'
I2
tp1191
a(S'w'
I32
tp1192
a(S'p2_ll'
I16
tp1193
a(S'w'
I2
tp1194
a(S'p2_tl'
I185
tp1195
a(S'w'
I4
tp1196
a(S'p2_vo'
I2
tp1197
a(S'w'
I23
tp1198
a(S'tr_ll'
I16
tp1199
a(S'w'
I30
tp1200
a(S'ch_no'
I1
tp1201
a(S'ch_tr'
I1
tp1202
a(S'ch_p2'
I1
tp1203
a(S'ch_p1'
I1
tp1204
a(S'w'
I1
tp1205
a(S'ch_no'
I1
tp1206
a(S'ch_tr'
I1
tp1207
a(S'ch_p2'
I1
tp1208
a(S'ch_p1'
I1
tp1209
a(S'w'
I6
tp1210
a(S'no_vo'
I5
tp1211
a(S'no_np'
I7
tp1212
a(S'no_ll'
I0
tp1213
a(S'w'
I614
tp1214
a(S'p1_tl'
I244
tp1215
a(S'w'
I18
tp1216
a(S'p2_tl'
I183
tp1217
a(S'w'
I11
tp1218
a(S'no_vo'
I2
tp1219
a(S'no_np'
I3
tp1220
a(S'no_ll'
I0
tp1221
a(S'w'
I706
tp1222
a(S'p1_tl'
I242
tp1223
a(S'w'
I17
tp1224
a(S'p2_tl'
I181
tp1225
a(S'w'
I12
tp1226
a(S'no_vo'
I0
tp1227
a(S'w'
I703
tp1228
a(S'p1_tl'
I241
tp1229
a(S'w'
I15
tp1230
a(S'p2_tl'
I180
tp1231
a(S'w'
I721
tp1232
a(S'p1_tl'
I240
tp1233
a(S'w'
I17
tp1234
a(S'p2_tl'
I179
tp1235
a(S'w'
I714
tp1236
a(S'w'
I15
tp1237
a(S'w'
I721
tp1238
a(S'w'
I17
tp1239
a(S'w'
I736
tp1240
a(S'p1_ll'
I16
tp1241
a(S'w'
I1
tp1242
a(S'p1_tl'
I219
tp1243
a(S'w'
I4
tp1244
a(S'p1_vo'
I4
tp1245
a(S'w'
I34
tp1246
a(S'p2_ll'
I16
tp1247
a(S'w'
I1
tp1248
a(S'p2_tl'
I166
tp1249
a(S'w'
I4
tp1250
a(S'p2_vo'
I4
tp1251
a(S'w'
I23
tp1252
a(S'tr_ll'
I16
tp1253
a(S'w'
I16
tp1254
a(S'ch_no'
I1
tp1255
a(S'ch_tr'
I1
tp1256
a(S'ch_p2'
I1
tp1257
a(S'ch_p1'
I1
tp1258
a(S'w'
I1
tp1259
a(S'ch_no'
I1
tp1260
a(S'ch_tr'
I1
tp1261
a(S'ch_p2'
I1
tp1262
a(S'ch_p1'
I1
tp1263
a(S'w'
I632
tp1264
a(S'p1_tl'
I217
tp1265
a(S'w'
I4
tp1266
a(S'p1_vo'
I6
tp1267
a(S'w'
I14
tp1268
a(S'p2_tl'
I164
tp1269
a(S'w'
I3
tp1270
a(S'p2_vo'
I6
tp1271
a(S'w'
I712
tp1272
a(S'p1_tl'
I215
tp1273
a(S'w'
I4
tp1274
a(S'p1_vo'
I7
tp1275
a(S'w'
I14
tp1276
a(S'p2_tl'
I162
tp1277
a(S'w'
I4
tp1278
a(S'p2_vo'
I7
tp1279
a(S'w'
I710
tp1280
a(S'p1_tl'
I214
tp1281
a(S'w'
I16
tp1282
a(S'p2_tl'
I161
tp1283
a(S'w'
I720
tp1284
a(S'p1_tl'
I213
tp1285
a(S'w'
I4
tp1286
a(S'p1_vo'
I6
tp1287
a(S'w'
I14
tp1288
a(S'p2_tl'
I160
tp1289
a(S'w'
I4
tp1290
a(S'p2_vo'
I6
tp1291
a(S'w'
I708
tp1292
a(S'w'
I14
tp1293
a(S'w'
I722
tp1294
a(S'w'
I4
tp1295
a(S'p1_vo'
I5
tp1296
a(S'w'
I12
tp1297
a(S'w'
I4
tp1298
a(S'p2_vo'
I5
tp1299
a(S'w'
I731
tp1300
a(S'p1_ll'
I16
tp1301
a(S'w'
I2
tp1302
a(S'p1_tl'
I219
tp1303
a(S'w'
I4
tp1304
a(S'p1_vo'
I2
tp1305
a(S'w'
I32
tp1306
a(S'p2_ll'
I16
tp1307
a(S'w'
I1
tp1308
a(S'p2_tl'
I166
tp1309
a(S'w'
I4
tp1310
a(S'p2_vo'
I2
tp1311
a(S'w'
I24
tp1312
a(S'tr_ll'
I16
tp1313
a(S'w'
I35
tp1314
a(S'no_vo'
I5
tp1315
a(S'no_np'
I7
tp1316
a(S'no_ll'
I0
tp1317
a(S'w'
I614
tp1318
a(S'p1_tl'
I217
tp1319
a(S'w'
I18
tp1320
a(S'p2_tl'
I164
tp1321
a(S'w'
I11
tp1322
a(S'no_vo'
I2
tp1323
a(S'no_np'
I3
tp1324
a(S'no_ll'
I0
tp1325
a(S'w'
I706
tp1326
a(S'p1_tl'
I215
tp1327
a(S'w'
I17
tp1328
a(S'p2_tl'
I162
tp1329
a(S'w'
I11
tp1330
a(S'no_vo'
I0
tp1331
a(S'w'
I702
tp1332
a(S'p1_tl'
I214
tp1333
a(S'w'
I15
tp1334
a(S'p2_tl'
I161
tp1335
a(S'w'
I721
tp1336
a(S'p1_tl'
I213
tp1337
a(S'w'
I17
tp1338
a(S'p2_tl'
I160
tp1339
a(S'w'
I714
tp1340
a(S'w'
I15
tp1341
a(S'w'
I721
tp1342
a(S'w'
I17
tp1343
a(S'w'
I736
tp1344
a(S'p1_ll'
I16
tp1345
a(S'w'
I2
tp1346
a(S'p1_tl'
I219
tp1347
a(S'w'
I4
tp1348
a(S'p1_vo'
I4
tp1349
a(S'w'
I33
tp1350
a(S'p2_ll'
I16
tp1351
a(S'w'
I2
tp1352
a(S'p2_tl'
I166
tp1353
a(S'w'
I3
tp1354
a(S'p2_vo'
I4
tp1355
a(S'w'
I23
tp1356
a(S'tr_ll'
I16
tp1357
a(S'w'
I36
tp1358
a(S'no_vo'
I5
tp1359
a(S'no_np'
I7
tp1360
a(S'no_ll'
I0
tp1361
a(S'w'
I613
tp1362
a(S'p1_tl'
I217
tp1363
a(S'w'
I4
tp1364
a(S'p1_vo'
I6
tp1365
a(S'w'
I14
tp1366
a(S'p2_tl'
I164
tp1367
a(S'w'
I4
tp1368
a(S'p2_vo'
I6
tp1369
a(S'w'
I7
tp1370
a(S'no_vo'
I2
tp1371
a(S'no_np'
I3
tp1372
a(S'no_ll'
I0
tp1373
a(S'w'
I705
tp1374
a(S'p1_tl'
I215
tp1375
a(S'w'
I4
tp1376
a(S'p1_vo'
I7
tp1377
a(S'w'
I14
tp1378
a(S'p2_tl'
I162
tp1379
a(S'w'
I4
tp1380
a(S'p2_vo'
I7
tp1381
a(S'w'
I8
tp1382
a(S'no_vo'
I0
tp1383
a(S'w'
I701
tp1384
a(S'p1_tl'
I214
tp1385
a(S'w'
I16
tp1386
a(S'p2_tl'
I161
tp1387
a(S'w'
I720
tp1388
a(S'p1_tl'
I213
tp1389
a(S'w'
I4
tp1390
a(S'p1_vo'
I6
tp1391
a(S'w'
I14
tp1392
a(S'p2_tl'
I160
tp1393
a(S'w'
I4
tp1394
a(S'p2_vo'
I6
tp1395
a(S'w'
I708
tp1396
a(S'w'
I14
tp1397
a(S'w'
I722
tp1398
a(S'w'
I4
tp1399
a(S'p1_vo'
I5
tp1400
a(S'w'
I12
tp1401
a(S'w'
I4
tp1402
a(S'p2_vo'
I5
tp1403
a(S'w'
I736
tp1404
a(S'p1_ll'
I16
tp1405
a(S'p1_th'
I1
tp1406
a(S'w'
I1
tp1407
a(S'p1_tl'
I35
tp1408
a(S'w'
I4
tp1409
a(S'p1_vo'
I4
tp1410
a(S'w'
I34
tp1411
a(S'p2_ll'
I16
tp1412
a(S'w'
I1
tp1413
a(S'p2_tl'
I219
tp1414
a(S'w'
I4
tp1415
a(S'p2_vo'
I4
tp1416
a(S'w'
I23
tp1417
a(S'tr_ll'
I16
tp1418
a(S'w'
I32
tp1419
a(S'ch_no'
I1
tp1420
a(S'ch_tr'
I1
tp1421
a(S'ch_p2'
I1
tp1422
a(S'ch_p1'
I1
tp1423
a(S'ch_no'
I1
tp1424
a(S'ch_tr'
I1
tp1425
a(S'ch_p2'
I1
tp1426
a(S'ch_p1'
I1
tp1427
a(S'w'
I6
tp1428
a(S'no_vo'
I5
tp1429
a(S'w'
I1
tp1430
a(S'no_np'
I7
tp1431
a(S'no_ll'
I0
tp1432
a(S'w'
I608
tp1433
a(S'p1_tl'
I33
tp1434
a(S'w'
I4
tp1435
a(S'p1_vo'
I6
tp1436
a(S'w'
I14
tp1437
a(S'p2_tl'
I217
tp1438
a(S'w'
I4
tp1439
a(S'p2_vo'
I6
tp1440
a(S'w'
I7
tp1441
a(S'no_vo'
I2
tp1442
a(S'no_np'
I3
tp1443
a(S'w'
I1
tp1444
a(S'no_ll'
I0
tp1445
a(S'w'
I704
tp1446
a(S'p1_tl'
I31
tp1447
a(S'w'
I5
tp1448
a(S'p1_vo'
I7
tp1449
a(S'w'
I14
tp1450
a(S'p2_tl'
I215
tp1451
a(S'w'
I3
tp1452
a(S'p2_vo'
I7
tp1453
a(S'w'
I8
tp1454
a(S'no_vo'
I0
tp1455
a(S'w'
I702
tp1456
a(S'p1_tl'
I30
tp1457
a(S'w'
I17
tp1458
a(S'p2_tl'
I214
tp1459
a(S'w'
I720
tp1460
a(S'p1_tl'
I29
tp1461
a(S'w'
I4
tp1462
a(S'p1_vo'
I6
tp1463
a(S'w'
I14
tp1464
a(S'p2_tl'
I213
tp1465
a(S'w'
I3
tp1466
a(S'p2_vo'
I6
tp1467
a(S'w'
I707
tp1468
a(S'w'
I15
tp1469
a(S'w'
I721
tp1470
a(S'w'
I4
tp1471
a(S'p1_vo'
I5
tp1472
a(S'w'
I13
tp1473
a(S'w'
I3
tp1474
a(S'p2_vo'
I5
tp1475
a(S'w'
I734
tp1476
a(S'p1_ll'
I16
tp1477
a(S'w'
I2
tp1478
a(S'p1_tl'
I35
tp1479
a(S'w'
I4
tp1480
a(S'p1_vo'
I4
tp1481
a(S'w'
I33
tp1482
a(S'p2_ll'
I16
tp1483
a(S'w'
I2
tp1484
a(S'p2_tl'
I219
tp1485
a(S'w'
I3
tp1486
a(S'p2_vo'
I4
tp1487
a(S'w'
I24
tp1488
a(S'tr_ll'
I16
tp1489
a(S'w'
I15
tp1490
a(S'ch_no'
I1
tp1491
a(S'ch_tr'
I1
tp1492
a(S'ch_p2'
I1
tp1493
a(S'ch_p1'
I1
tp1494
a(S'w'
I1
tp1495
a(S'ch_no'
I1
tp1496
a(S'ch_tr'
I1
tp1497
a(S'ch_p2'
I1
tp1498
a(S'ch_p1'
I1
tp1499
a(S'w'
I632
tp1500
a(S'p1_tl'
I33
tp1501
a(S'w'
I4
tp1502
a(S'p1_vo'
I6
tp1503
a(S'w'
I14
tp1504
a(S'p2_tl'
I217
tp1505
a(S'w'
I4
tp1506
a(S'p2_vo'
I6
tp1507
a(S'w'
I713
tp1508
a(S'p1_tl'
I31
tp1509
a(S'w'
I3
tp1510
a(S'p1_vo'
I7
tp1511
a(S'w'
I15
tp1512
a(S'p2_tl'
I215
tp1513
a(S'w'
I3
tp1514
a(S'p2_vo'
I7
tp1515
a(S'w'
I709
tp1516
a(S'p1_tl'
I30
tp1517
a(S'w'
I17
tp1518
a(S'p2_tl'
I214
tp1519
a(S'w'
I719
tp1520
a(S'p1_tl'
I29
tp1521
a(S'w'
I4
tp1522
a(S'p1_vo'
I6
tp1523
a(S'w'
I15
tp1524
a(S'p2_tl'
I213
tp1525
a(S'w'
I3
tp1526
a(S'p2_vo'
I6
tp1527
a(S'w'
I708
tp1528
a(S'w'
I15
tp1529
a(S'w'
I721
tp1530
a(S'w'
I4
tp1531
a(S'p1_vo'
I5
tp1532
a(S'w'
I13
tp1533
a(S'w'
I3
tp1534
a(S'p2_vo'
I5
tp1535
a(S'w'
I734
tp1536
a(S'p1_ll'
I16
tp1537
a(S'p1_th'
I0
tp1538
a(S'w'
I2
tp1539
a(S'p1_tl'
I246
tp1540
a(S'w'
I4
tp1541
a(S'p1_vo'
I4
tp1542
a(S'w'
I33
tp1543
a(S'p2_ll'
I16
tp1544
a(S'w'
I2
tp1545
a(S'p2_tl'
I185
tp1546
a(S'w'
I4
tp1547
a(S'p2_vo'
I4
tp1548
a(S'w'
I23
tp1549
a(S'tr_ll'
I16
tp1550
a(S'w'
I30
tp1551
a(S'ch_no'
I1
tp1552
a(S'ch_tr'
I1
tp1553
a(S'ch_p2'
I1
tp1554
a(S'ch_p1'
I1
tp1555
a(S'w'
I1
tp1556
a(S'ch_no'
I1
tp1557
a(S'ch_tr'
I1
tp1558
a(S'ch_p2'
I1
tp1559
a(S'ch_p1'
I1
tp1560
a(S'w'
I6
tp1561
a(S'no_vo'
I5
tp1562
a(S'no_np'
I7
tp1563
a(S'no_ll'
I0
tp1564
a(S'w'
I611
tp1565
a(S'p1_tl'
I244
tp1566
a(S'w'
I4
tp1567
a(S'p1_vo'
I6
tp1568
a(S'w'
I14
tp1569
a(S'p2_tl'
I183
tp1570
a(S'w'
I3
tp1571
a(S'p2_vo'
I6
tp1572
a(S'w'
I7
tp1573
a(S'no_vo'
I2
tp1574
a(S'w'
I1
tp1575
a(S'no_np'
I3
tp1576
a(S'no_ll'
I0
tp1577
a(S'w'
I705
tp1578
a(S'p1_tl'
I242
tp1579
a(S'w'
I4
tp1580
a(S'p1_vo'
I7
tp1581
a(S'w'
I14
tp1582
a(S'p2_tl'
I181
tp1583
a(S'w'
I4
tp1584
a(S'p2_vo'
I7
tp1585
a(S'w'
I7
tp1586
a(S'no_vo'
I0
tp1587
a(S'w'
I703
tp1588
a(S'p1_tl'
I241
tp1589
a(S'w'
I16
tp1590
a(S'p2_tl'
I180
tp1591
a(S'w'
I720
tp1592
a(S'p1_tl'
I240
tp1593
a(S'w'
I4
tp1594
a(S'p1_vo'
I6
tp1595
a(S'w'
I14
tp1596
a(S'p2_tl'
I179
tp1597
a(S'w'
I4
tp1598
a(S'p2_vo'
I6
tp1599
a(S'w'
I708
tp1600
a(S'w'
I14
tp1601
a(S'w'
I721
tp1602
a(S'w'
I4
tp1603
a(S'p1_vo'
I5
tp1604
a(S'w'
I12
tp1605
a(S'w'
I4
tp1606
a(S'p2_vo'
I5
tp1607
a(S'w'
I736
tp1608
a(S'p1_ll'
I16
tp1609
a(S'w'
I2
tp1610
a(S'p1_tl'
I166
tp1611
a(S'w'
I4
tp1612
a(S'p1_vo'
I4
tp1613
a(S'w'
I33
tp1614
a(S'p2_ll'
I16
tp1615
a(S'w'
I2
tp1616
a(S'p2_tl'
I126
tp1617
a(S'w'
I3
tp1618
a(S'p2_vo'
I4
tp1619
a(S'w'
I24
tp1620
a(S'tr_ll'
I16
tp1621
a(S'w'
I15
tp1622
a(S'ch_no'
I1
tp1623
a(S'ch_tr'
I1
tp1624
a(S'ch_p2'
I1
tp1625
a(S'ch_p1'
I1
tp1626
a(S'w'
I1
tp1627
a(S'ch_no'
I1
tp1628
a(S'ch_tr'
I1
tp1629
a(S'ch_p2'
I1
tp1630
a(S'ch_p1'
I1
tp1631
a(S'w'
I630
tp1632
a(S'p1_tl'
I164
tp1633
a(S'w'
I4
tp1634
a(S'p1_vo'
I6
tp1635
a(S'w'
I14
tp1636
a(S'p2_tl'
I124
tp1637
a(S'w'
I3
tp1638
a(S'p2_vo'
I6
tp1639
a(S'w'
I713
tp1640
a(S'p1_tl'
I162
tp1641
a(S'w'
I4
tp1642
a(S'p1_vo'
I7
tp1643
a(S'w'
I14
tp1644
a(S'p2_tl'
I122
tp1645
a(S'w'
I4
tp1646
a(S'p2_vo'
I7
tp1647
a(S'w'
I710
tp1648
a(S'p1_tl'
I161
tp1649
a(S'w'
I16
tp1650
a(S'p2_tl'
I121
tp1651
a(S'w'
I719
tp1652
a(S'p1_tl'
I160
tp1653
a(S'w'
I4
tp1654
a(S'p1_vo'
I6
tp1655
a(S'w'
I14
tp1656
a(S'p2_tl'
I120
tp1657
a(S'w'
I4
tp1658
a(S'p2_vo'
I6
tp1659
a(S'w'
I708
tp1660
a(S'w'
I14
tp1661
a(S'w'
I722
tp1662
a(S'w'
I4
tp1663
a(S'p1_vo'
I5
tp1664
a(S'w'
I12
tp1665
a(S'w'
I4
tp1666
a(S'p2_vo'
I5
tp1667
a(S'w'
I732
tp1668
a(S'p1_ll'
I16
tp1669
a(S'p1_th'
I1
tp1670
a(S'w'
I2
tp1671
a(S'p1_tl'
I35
tp1672
a(S'w'
I4
tp1673
a(S'p1_vo'
I2
tp1674
a(S'w'
I32
tp1675
a(S'p2_ll'
I16
tp1676
a(S'w'
I1
tp1677
a(S'p2_tl'
I219
tp1678
a(S'w'
I4
tp1679
a(S'p2_vo'
I2
tp1680
a(S'w'
I22
tp1681
a(S'tr_ll'
I16
tp1682
a(S'tr_th'
I0
tp1683
a(S'w'
I2
tp1684
a(S'tr_tl'
I0
tp1685
a(S'w'
I648
tp1686
a(S'p1_tl'
I33
tp1687
a(S'w'
I18
tp1688
a(S'p2_tl'
I217
tp1689
a(S'w'
I717
tp1690
a(S'p1_tl'
I31
tp1691
a(S'w'
I17
tp1692
a(S'p2_tl'
I215
tp1693
a(S'w'
I713
tp1694
a(S'p1_tl'
I30
tp1695
a(S'w'
I15
tp1696
a(S'p2_tl'
I214
tp1697
a(S'w'
I721
tp1698
a(S'p1_tl'
I29
tp1699
a(S'w'
I17
tp1700
a(S'p2_tl'
I213
tp1701
a(S'w'
I715
tp1702
a(S'w'
I15
tp1703
a(S'w'
I720
tp1704
a(S'w'
I17
tp1705
a(S'w'
I736
tp1706
a(S'p1_ll'
I16
tp1707
a(S'p1_th'
I0
tp1708
a(S'w'
I2
tp1709
a(S'p1_tl'
I196
tp1710
a(S'w'
I4
tp1711
a(S'p1_vo'
I4
tp1712
a(S'w'
I33
tp1713
a(S'p2_ll'
I16
tp1714
a(S'w'
I2
tp1715
a(S'p2_tl'
I148
tp1716
a(S'w'
I3
tp1717
a(S'p2_vo'
I4
tp1718
a(S'w'
I21
tp1719
a(S'tr_lh'
I1
tp1720
a(S'tr_lr'
I8
tp1721
a(S'w'
I4
tp1722
a(S'tr_ll'
I16
tp1723
a(S'tr_th'
I2
tp1724
a(S'w'
I1
tp1725
a(S'tr_tl'
I58
tp1726
a(S'w'
I15
tp1727
a(S'ch_no'
I1
tp1728
a(S'ch_tr'
I1
tp1729
a(S'ch_p2'
I1
tp1730
a(S'ch_p1'
I1
tp1731
a(S'w'
I1
tp1732
a(S'ch_no'
I1
tp1733
a(S'ch_tr'
I1
tp1734
a(S'ch_p2'
I1
tp1735
a(S'ch_p1'
I1
tp1736
a(S'w'
I632
tp1737
a(S'p1_tl'
I194
tp1738
a(S'w'
I4
tp1739
a(S'p1_vo'
I6
tp1740
a(S'w'
I14
tp1741
a(S'p2_tl'
I146
tp1742
a(S'w'
I3
tp1743
a(S'p2_vo'
I6
tp1744
a(S'w'
I713
tp1745
a(S'p1_tl'
I192
tp1746
a(S'w'
I4
tp1747
a(S'p1_vo'
I7
tp1748
a(S'w'
I14
tp1749
a(S'p2_tl'
I144
tp1750
a(S'w'
I4
tp1751
a(S'p2_vo'
I7
tp1752
a(S'w'
I710
tp1753
a(S'p1_tl'
I191
tp1754
a(S'w'
I16
tp1755
a(S'p2_tl'
I143
tp1756
a(S'w'
I719
tp1757
a(S'p1_tl'
I190
tp1758
a(S'w'
I4
tp1759
a(S'p1_vo'
I6
tp1760
a(S'w'
I14
tp1761
a(S'p2_tl'
I142
tp1762
a(S'w'
I4
tp1763
a(S'p2_vo'
I6
tp1764
a(S'w'
I708
tp1765
a(S'w'
I14
tp1766
a(S'w'
I722
tp1767
a(S'w'
I4
tp1768
a(S'p1_vo'
I5
tp1769
a(S'w'
I12
tp1770
a(S'w'
I4
tp1771
a(S'p2_vo'
I5
tp1772
a(S'w'
I716
tp1773
a(S'p1_tl'
I189
tp1774
a(S'w'
I4
tp1775
a(S'p1_vo'
I4
tp1776
a(S'w'
I15
tp1777
a(S'p2_tl'
I141
tp1778
a(S'w'
I3
tp1779
a(S'p2_vo'
I4
tp1780
a(S'w'
I710
tp1781
a(S'w'
I4
tp1782
a(S'p1_vo'
I3
tp1783
a(S'w'
I13
tp1784
a(S'w'
I3
tp1785
a(S'p2_vo'
I3
tp1786
a(S'w'
I715
tp1787
a(S'p1_tl'
I188
tp1788
a(S'w'
I18
tp1789
a(S'p2_tl'
I140
tp1790
a(S'w'
I710
tp1791
a(S'w'
I14
tp1792
a(S'w'
I722
tp1793
a(S'p1_tl'
I189
tp1794
a(S'w'
I16
tp1795
a(S'p2_tl'
I141
tp1796
a(S'w'
I716
tp1797
a(S'w'
I14
tp1798
a(S'w'
I722
tp1799
a(S'p1_tl'
I190
tp1800
a(S'w'
I16
tp1801
a(S'p2_tl'
I142
tp1802
a(S'w'
I720
tp1803
a(S'p1_tl'
I191
tp1804
a(S'w'
I18
tp1805
a(S'p2_tl'
I143
tp1806
a(S'w'
I713
tp1807
a(S'p1_tl'
I192
tp1808
a(S'w'
I16
tp1809
a(S'p2_tl'
I144
tp1810
a(S'w'
I718
tp1811
a(S'p1_tl'
I191
tp1812
a(S'w'
I15
tp1813
a(S'p2_tl'
I143
tp1814
a(S'w'
I719
tp1815
a(S'p1_tl'
I190
tp1816
a(S'w'
I16
tp1817
a(S'p2_tl'
I142
tp1818
a(S'w'
I717
tp1819
a(S'p1_tl'
I189
tp1820
a(S'w'
I16
tp1821
a(S'p2_tl'
I141
tp1822
a(S'w'
I718
tp1823
a(S'p1_tl'
I188
tp1824
a(S'w'
I16
tp1825
a(S'p2_tl'
I140
tp1826
a(S'w'
I718
tp1827
a(S'p1_tl'
I189
tp1828
a(S'w'
I16
tp1829
a(S'p2_tl'
I141
tp1830
a(S'w'
I718
tp1831
a(S'p1_tl'
I190
tp1832
a(S'w'
I16
tp1833
a(S'p2_tl'
I142
tp1834
a(S'w'
I720
tp1835
a(S'p1_tl'
I191
tp1836
a(S'w'
I19
tp1837
a(S'p2_tl'
I143
tp1838
a(S'w'
I712
tp1839
a(S'p1_tl'
I192
tp1840
a(S'w'
I16
tp1841
a(S'p2_tl'
I144
tp1842
a(S'w'
I718
tp1843
a(S'p1_tl'
I191
tp1844
a(S'w'
I16
tp1845
a(S'p2_tl'
I143
tp1846
a(S'w'
I718
tp1847
a(S'p1_tl'
I190
tp1848
a(S'w'
I16
tp1849
a(S'p2_tl'
I142
tp1850
a(S'w'
I718
tp1851
a(S'p1_tl'
I189
tp1852
a(S'w'
I16
tp1853
a(S'p2_tl'
I141
tp1854
a(S'w'
I718
tp1855
a(S'p1_tl'
I188
tp1856
a(S'w'
I16
tp1857
a(S'p2_tl'
I140
tp1858
a(S'w'
I717
tp1859
a(S'p1_tl'
I189
tp1860
a(S'w'
I16
tp1861
a(S'p2_tl'
I141
tp1862
a(S'w'
I718
tp1863
a(S'p1_tl'
I190
tp1864
a(S'w'
I16
tp1865
a(S'p2_tl'
I142
tp1866
a(S'w'
I720
tp1867
a(S'p1_tl'
I191
tp1868
a(S'w'
I19
tp1869
a(S'p2_tl'
I143
tp1870
a(S'w'
I713
tp1871
a(S'p1_tl'
I192
tp1872
a(S'w'
I16
tp1873
a(S'p2_tl'
I144
tp1874
a(S'w'
I718
tp1875
a(S'p1_tl'
I191
tp1876
a(S'w'
I16
tp1877
a(S'p2_tl'
I143
tp1878
a(S'w'
I717
tp1879
a(S'p1_tl'
I190
tp1880
a(S'w'
I16
tp1881
a(S'p2_tl'
I142
tp1882
a(S'w'
I719
tp1883
a(S'p1_tl'
I189
tp1884
a(S'w'
I4
tp1885
a(S'p1_vo'
I2
tp1886
a(S'w'
I12
tp1887
a(S'p2_tl'
I141
tp1888
a(S'w'
I4
tp1889
a(S'p2_vo'
I2
tp1890
a(S'w'
I731
tp1891
a(S'p1_ll'
I16
tp1892
a(S'w'
I2
tp1893
a(S'p1_tl'
I191
tp1894
a(S'w'
I36
tp1895
a(S'p2_ll'
I16
tp1896
a(S'w'
I2
tp1897
a(S'p2_tl'
I143
tp1898
a(S'w'
I10
tp1899
a(S'tr_lh'
I0
tp1900
a(S'tr_lr'
I48
tp1901
a(S'w'
I667
tp1902
a(S'p1_tl'
I192
tp1903
a(S'w'
I17
tp1904
a(S'p2_tl'
I144
tp1905
a(S'w'
I717
tp1906
a(S'p1_tl'
I191
tp1907
a(S'w'
I17
tp1908
a(S'p2_tl'
I143
tp1909
a(S'w'
I714
tp1910
a(S'p1_tl'
I190
tp1911
a(S'w'
I15
tp1912
a(S'p2_tl'
I142
tp1913
a(S'w'
I721
tp1914
a(S'p1_tl'
I189
tp1915
a(S'w'
I17
tp1916
a(S'p2_tl'
I141
tp1917
a(S'w'
I715
tp1918
a(S'p1_tl'
I188
tp1919
a(S'w'
I15
tp1920
a(S'p2_tl'
I140
tp1921
a(S'w'
I721
tp1922
a(S'p1_tl'
I189
tp1923
a(S'w'
I17
tp1924
a(S'p2_tl'
I141
tp1925
a(S'w'
I716
tp1926
a(S'p1_tl'
I190
tp1927
a(S'w'
I17
tp1928
a(S'p2_tl'
I142
tp1929
a(S'w'
I717
tp1930
a(S'p1_tl'
I191
tp1931
a(S'w'
I17
tp1932
a(S'p2_tl'
I143
tp1933
a(S'w'
I716
tp1934
a(S'p1_tl'
I192
tp1935
a(S'w'
I17
tp1936
a(S'p2_tl'
I144
tp1937
a(S'w'
I716
tp1938
a(S'p1_tl'
I191
tp1939
a(S'w'
I14
tp1940
a(S'p2_tl'
I143
tp1941
a(S'w'
I720
tp1942
a(S'p1_tl'
I190
tp1943
a(S'w'
I14
tp1944
a(S'p2_tl'
I142
tp1945
a(S'w'
I719
tp1946
a(S'p1_tl'
I189
tp1947
a(S'w'
I14
tp1948
a(S'p2_tl'
I141
tp1949
a(S'w'
I720
tp1950
a(S'p1_tl'
I188
tp1951
a(S'w'
I14
tp1952
a(S'p2_tl'
I140
tp1953
a(S'w'
I720
tp1954
a(S'p1_tl'
I189
tp1955
a(S'w'
I14
tp1956
a(S'p2_tl'
I141
tp1957
a(S'w'
I720
tp1958
a(S'p1_tl'
I190
tp1959
a(S'w'
I14
tp1960
a(S'p2_tl'
I142
tp1961
a(S'w'
I720
tp1962
a(S'p1_tl'
I191
tp1963
a(S'w'
I14
tp1964
a(S'p2_tl'
I143
tp1965
a(S'w'
I719
tp1966
a(S'p1_tl'
I192
tp1967
a(S'w'
I14
tp1968
a(S'p2_tl'
I144
tp1969
a(S'w'
I720
tp1970
a(S'p1_tl'
I191
tp1971
a(S'w'
I14
tp1972
a(S'p2_tl'
I143
tp1973
a(S'w'
I720
tp1974
a(S'p1_tl'
I190
tp1975
a(S'w'
I14
tp1976
a(S'p2_tl'
I142
tp1977
a(S'w'
I720
tp1978
a(S'p1_tl'
I189
tp1979
a(S'w'
I14
tp1980
a(S'p2_tl'
I141
tp1981
a(S'w'
I720
tp1982
a(S'p1_tl'
I0
tp1983
a(S'w'
I14
tp1984
a(S'p2_tl'
I0
tp1985
a(S'w'
I719
tp1986
a(S'w'
I14
tp1987
a(S'w'
I720
tp1988
a(S'w'
I14
tp1989
a(S'w'
I720
tp1990
a(S'w'
I14
tp1991
a(S'w'
I720
tp1992
a(S'w'
I14
tp1993
a(S'w'
I720
tp1994
a(S'w'
I14
tp1995
a(S'w'
I719
tp1996
a(S'w'
I14
tp1997
a(S'w'
I713
tp1998
a(S'p1_vo'
I0
tp1999
a(S'w'
I4
tp2000
a(S'p2_vo'
I0
tp2001
a.