(lp1
(S'clock'
p2
I1789772
tp3
a(S'p1_cv'
I1
tp4
a(S'p2_cv'
I1
tp5
a(S'no_cv'
I1
tp6
a(S'ch_no'
I1
tp7
a(S'ch_tr'
I1
tp8
a(S'ch_p2'
I1
tp9
a(S'ch_p1'
I1
tp10
a(S'fc_mo'
I1
tp11
a(S'tr_ll'
I3
tp12
a(S'w'
I740
tp13
a(S'p1_sp'
I1
tp14
a(S'p1_sn'
I1
tp15
a(S'p1_ss'
I5
tp16
a(S'w'
I1
tp17
a(S'p1_tl'
I171
tp18
a(S'p1_ll'
I2
tp19
a(S'p1_th'
I1
tp20
a(S'w'
I5
tp21
a(S'w'
I3
tp22
a(S'p1_du'
I3
tp23
a(S'p1_lh'
I1
tp24
a(S'p1_vo'
I3
tp25
a(S'w'
I12
tp26
a(S'p2_sp'
I1
tp27
a(S'p2_sn'
I1
tp28
a(S'p2_ss'
I5
tp29
a(S'p2_tl'
I238
tp30
a(S'w'
I1
tp31
a(S'p2_ll'
I2
tp32
a(S'w'
I4
tp33
a(S'w'
I3
tp34
a(S'p2_du'
I3
tp35
a(S'p2_lh'
I1
tp36
a(S'p2_vo'
I3
tp37
a(S'w'
I699
tp38
a(S'p1_vo'
I4
tp39
a(S'w'
I6
tp40
a(S'p2_vo'
I4
tp41
a(S'w'
I1461
tp42
a(S'p1_vo'
I5
tp43
a(S'w'
I6
tp44
a(S'p2_vo'
I5
tp45
a(S'w'
I2196
tp46
a(S'p1_vo'
I6
tp47
a(S'w'
I6
tp48
a(S'p2_vo'
I6
tp49
a(S'w'
I727
tp50
a(S'w'
I7
tp51
a(S'w'
I2195
tp52
a(S'p1_vo'
I7
tp53
a(S'w'
I6
tp54
a(S'p2_vo'
I7
tp55
a(S'w'
I2196
tp56
a(S'p1_tl'
I147
tp57
a(S'p1_ll'
I2
tp58
a(S'w'
I5
tp59
a(S'w'
I3
tp60
a(S'p1_vo'
I3
tp61
a(S'w'
I7
tp62
a(S'p2_tl'
I12
tp63
a(S'p2_ll'
I2
tp64
a(S'p2_th'
I1
tp65
a(S'w'
I5
tp66
a(S'w'
I3
tp67
a(S'p2_vo'
I3
tp68
a(S'w'
I710
tp69
a(S'p1_vo'
I4
tp70
a(S'w'
I6
tp71
a(S'p2_vo'
I4
tp72
a(S'w'
I1462
tp73
a(S'p1_vo'
I5
tp74
a(S'w'
I6
tp75
a(S'p2_vo'
I5
tp76
a(S'w'
I2195
tp77
a(S'p1_vo'
I6
tp78
a(S'w'
I6
tp79
a(S'p2_vo'
I6
tp80
a(S'w'
I727
tp81
a(S'w'
I7
tp82
a(S'w'
I2195
tp83
a(S'p1_vo'
I7
tp84
a(S'w'
I6
tp85
a(S'p2_vo'
I7
tp86
a(S'w'
I2195
tp87
a(S'p1_tl'
I148
tp88
a(S'w'
I7
tp89
a(S'p2_tl'
I13
tp90
a(S'w'
I728
tp91
a(S'p1_tl'
I103
tp92
a(S'p1_ll'
I2
tp93
a(S'w'
I5
tp94
a(S'w'
I3
tp95
a(S'p1_vo'
I3
tp96
a(S'w'
I7
tp97
a(S'p2_tl'
I189
tp98
a(S'p2_ll'
I2
tp99
a(S'p2_th'
I0
tp100
a(S'w'
I5
tp101
a(S'w'
I3
tp102
a(S'p2_vo'
I3
tp103
a(S'w'
I710
tp104
a(S'p1_vo'
I4
tp105
a(S'w'
I6
tp106
a(S'p2_vo'
I4
tp107
a(S'w'
I1462
tp108
a(S'p1_vo'
I5
tp109
a(S'w'
I6
tp110
a(S'p2_vo'
I5
tp111
a(S'w'
I2195
tp112
a(S'p1_vo'
I6
tp113
a(S'w'
I6
tp114
a(S'p2_vo'
I6
tp115
a(S'w'
I727
tp116
a(S'w'
I7
tp117
a(S'w'
I2196
tp118
a(S'p1_vo'
I7
tp119
a(S'w'
I5
tp120
a(S'p2_vo'
I7
tp121
a(S'w'
I2195
tp122
a(S'p1_tl'
I104
tp123
a(S'w'
I7
tp124
a(S'p2_tl'
I190
tp125
a(S'w'
I728
tp126
a(S'p1_tl'
I63
tp127
a(S'w'
I1
tp128
a(S'p1_ll'
I2
tp129
a(S'w'
I4
tp130
a(S'w'
I4
tp131
a(S'p1_vo'
I3
tp132
a(S'w'
I6
tp133
a(S'p2_tl'
I28
tp134
a(S'p2_ll'
I2
tp135
a(S'p2_th'
I1
tp136
a(S'w'
I5
tp137
a(S'w'
I3
tp138
a(S'p2_vo'
I3
tp139
a(S'w'
I711
tp140
a(S'p1_vo'
I4
tp141
a(S'w'
I5
tp142
a(S'p2_vo'
I4
tp143
a(S'w'
I1462
tp144
a(S'p1_vo'
I5
tp145
a(S'w'
I6
tp146
a(S'p2_vo'
I5
tp147
a(S'w'
I2196
tp148
a(S'p1_vo'
I6
tp149
a(S'w'
I5
tp150
a(S'p2_vo'
I6
tp151
a(S'w'
I728
tp152
a(S'w'
I7
tp153
a(S'w'
I2195
tp154
a(S'p1_vo'
I7
tp155
a(S'w'
I6
tp156
a(S'p2_vo'
I7
tp157
a(S'w'
I2203
tp158
a(S'p1_tl'
I171
tp159
a(S'w'
I1
tp160
a(S'p1_ll'
I2
tp161
a(S'w'
I5
tp162
a(S'w'
I3
tp163
a(S'p1_vo'
I3
tp164
a(S'w'
I14
tp165
a(S'p2_tl'
I238
tp166
a(S'p2_ll'
I2
tp167
a(S'p2_th'
I0
tp168
a(S'w'
I5
tp169
a(S'w'
I3
tp170
a(S'p2_vo'
I3
tp171
a(S'w'
I695
tp172
a(S'p1_vo'
I4
tp173
a(S'w'
I6
tp174
a(S'p2_vo'
I4
tp175
a(S'w'
I1462
tp176
a(S'p1_vo'
I5
tp177
a(S'w'
I5
tp178
a(S'p2_vo'
I5
tp179
a(S'w'
I2196
tp180
a(S'p1_vo'
I6
tp181
a(S'w'
I6
tp182
a(S'p2_vo'
I6
tp183
a(S'w'
I727
tp184
a(S'w'
I7
tp185
a(S'w'
I2195
tp186
a(S'p1_vo'
I7
tp187
a(S'w'
I6
tp188
a(S'p2_vo'
I7
tp189
a(S'w'
I2195
tp190
a(S'p1_tl'
I172
tp191
a(S'w'
I7
tp192
a(S'p2_tl'
I239
tp193
a(S'w'
I728
tp194
a(S'p1_tl'
I147
tp195
a(S'p1_ll'
I2
tp196
a(S'w'
I5
tp197
a(S'w'
I3
tp198
a(S'p1_vo'
I3
tp199
a(S'w'
I7
tp200
a(S'p2_tl'
I12
tp201
a(S'p2_ll'
I2
tp202
a(S'p2_th'
I1
tp203
a(S'w'
I5
tp204
a(S'w'
I3
tp205
a(S'p2_vo'
I3
tp206
a(S'w'
I710
tp207
a(S'p1_vo'
I4
tp208
a(S'w'
I6
tp209
a(S'p2_vo'
I4
tp210
a(S'w'
I1462
tp211
a(S'p1_vo'
I5
tp212
a(S'w'
I6
tp213
a(S'p2_vo'
I5
tp214
a(S'w'
I2195
tp215
a(S'p1_vo'
I6
tp216
a(S'w'
I6
tp217
a(S'p2_vo'
I6
tp218
a(S'w'
I727
tp219
a(S'w'
I7
tp220
a(S'w'
I2195
tp221
a(S'p1_vo'
I7
tp222
a(S'w'
I6
tp223
a(S'p2_vo'
I7
tp224
a(S'w'
I2195
tp225
a(S'p1_tl'
I148
tp226
a(S'w'
I7
tp227
a(S'p2_tl'
I13
tp228
a(S'w'
I728
tp229
a(S'p1_tl'
I103
tp230
a(S'p1_ll'
I2
tp231
a(S'w'
I5
tp232
a(S'w'
I3
tp233
a(S'p1_vo'
I3
tp234
a(S'w'
I7
tp235
a(S'p2_tl'
I189
tp236
a(S'p2_ll'
I2
tp237
a(S'p2_th'
I0
tp238
a(S'w'
I5
tp239
a(S'w'
I3
tp240
a(S'p2_vo'
I3
tp241
a(S'w'
I710
tp242
a(S'p1_vo'
I4
tp243
a(S'w'
I6
tp244
a(S'p2_vo'
I4
tp245
a(S'w'
I1462
tp246
a(S'p1_vo'
I5
tp247
a(S'w'
I6
tp248
a(S'p2_vo'
I5
tp249
a(S'w'
I2195
tp250
a(S'p1_vo'
I6
tp251
a(S'w'
I6
tp252
a(S'p2_vo'
I6
tp253
a(S'w'
I728
tp254
a(S'w'
I7
tp255
a(S'w'
I2195
tp256
a(S'p1_vo'
I7
tp257
a(S'w'
I6
tp258
a(S'p2_vo'
I7
tp259
a(S'w'
I2194
tp260
a(S'p1_tl'
I104
tp261
a(S'w'
I7
tp262
a(S'p2_tl'
I190
tp263
a(S'w'
I728
tp264
a(S'p1_tl'
I63
tp265
a(S'w'
I1
tp266
a(S'p1_ll'
I2
tp267
a(S'w'
I5
tp268
a(S'w'
I3
tp269
a(S'p1_vo'
I3
tp270
a(S'w'
I6
tp271
a(S'p2_tl'
I28
tp272
a(S'p2_ll'
I2
tp273
a(S'p2_th'
I1
tp274
a(S'w'
I5
tp275
a(S'w'
I3
tp276
a(S'p2_vo'
I3
tp277
a(S'w'
I711
tp278
a(S'p1_vo'
I4
tp279
a(S'w'
I5
tp280
a(S'p2_vo'
I4
tp281
a(S'w'
I1462
tp282
a(S'p1_vo'
I5
tp283
a(S'w'
I6
tp284
a(S'p2_vo'
I5
tp285
a(S'w'
I2196
tp286
a(S'p1_vo'
I6
tp287
a(S'w'
I6
tp288
a(S'p2_vo'
I6
tp289
a(S'w'
I727
tp290
a(S'w'
I7
tp291
a(S'w'
I2195
tp292
a(S'p1_vo'
I7
tp293
a(S'w'
I6
tp294
a(S'p2_vo'
I7
tp295
a(S'w'
I2204
tp296
a(S'p1_tl'
I171
tp297
a(S'p1_ll'
I2
tp298
a(S'w'
I5
tp299
a(S'w'
I3
tp300
a(S'p1_vo'
I3
tp301
a(S'w'
I14
tp302
a(S'p2_tl'
I238
tp303
a(S'p2_ll'
I2
tp304
a(S'p2_th'
I0
tp305
a(S'w'
I5
tp306
a(S'w'
I3
tp307
a(S'p2_vo'
I3
tp308
a(S'w'
I695
tp309
a(S'p1_vo'
I4
tp310
a(S'w'
I6
tp311
a(S'p2_vo'
I4
tp312
a(S'w'
I1462
tp313
a(S'p1_vo'
I5
tp314
a(S'w'
I6
tp315
a(S'p2_vo'
I5
tp316
a(S'w'
I2195
tp317
a(S'p1_vo'
I6
tp318
a(S'w'
I6
tp319
a(S'p2_vo'
I6
tp320
a(S'w'
I727
tp321
a(S'w'
I7
tp322
a(S'w'
I2195
tp323
a(S'p1_vo'
I7
tp324
a(S'w'
I6
tp325
a(S'p2_vo'
I7
tp326
a(S'w'
I2195
tp327
a(S'p1_tl'
I172
tp328
a(S'w'
I7
tp329
a(S'p2_tl'
I239
tp330
a(S'w'
I728
tp331
a(S'p1_tl'
I147
tp332
a(S'p1_ll'
I2
tp333
a(S'w'
I5
tp334
a(S'w'
I3
tp335
a(S'p1_vo'
I3
tp336
a(S'w'
I7
tp337
a(S'p2_tl'
I12
tp338
a(S'p2_ll'
I2
tp339
a(S'p2_th'
I1
tp340
a(S'w'
I5
tp341
a(S'w'
I3
tp342
a(S'p2_vo'
I3
tp343
a(S'w'
I710
tp344
a(S'p1_vo'
I4
tp345
a(S'w'
I6
tp346
a(S'p2_vo'
I4
tp347
a(S'w'
I1462
tp348
a(S'p1_vo'
I5
tp349
a(S'w'
I6
tp350
a(S'p2_vo'
I5
tp351
a(S'w'
I2195
tp352
a(S'p1_vo'
I6
tp353
a(S'w'
I6
tp354
a(S'p2_vo'
I6
tp355
a(S'w'
I727
tp356
a(S'w'
I7
tp357
a(S'w'
I2195
tp358
a(S'p1_vo'
I7
tp359
a(S'w'
I6
tp360
a(S'p2_vo'
I7
tp361
a(S'w'
I2195
tp362
a(S'p1_tl'
I148
tp363
a(S'w'
I7
tp364
a(S'p2_tl'
I13
tp365
a(S'w'
I728
tp366
a(S'p1_tl'
I103
tp367
a(S'w'
I1
tp368
a(S'p1_ll'
I2
tp369
a(S'w'
I4
tp370
a(S'w'
I3
tp371
a(S'p1_vo'
I3
tp372
a(S'w'
I7
tp373
a(S'p2_tl'
I189
tp374
a(S'p2_ll'
I2
tp375
a(S'p2_th'
I0
tp376
a(S'w'
I5
tp377
a(S'w'
I3
tp378
a(S'p2_vo'
I3
tp379
a(S'w'
I710
tp380
a(S'p1_vo'
I4
tp381
a(S'w'
I6
tp382
a(S'p2_vo'
I4
tp383
a(S'w'
I1462
tp384
a(S'p1_vo'
I5
tp385
a(S'w'
I6
tp386
a(S'p2_vo'
I5
tp387
a(S'w'
I2195
tp388
a(S'p1_vo'
I6
tp389
a(S'w'
I6
tp390
a(S'p2_vo'
I6
tp391
a(S'w'
I728
tp392
a(S'w'
I7
tp393
a(S'w'
I2195
tp394
a(S'p1_vo'
I7
tp395
a(S'w'
I6
tp396
a(S'p2_vo'
I7
tp397
a(S'w'
I2196
tp398
a(S'p1_tl'
I63
tp399
a(S'p1_ll'
I2
tp400
a(S'w'
I5
tp401
a(S'w'
I3
tp402
a(S'p1_vo'
I3
tp403
a(S'w'
I6
tp404
a(S'p2_tl'
I28
tp405
a(S'w'
I1
tp406
a(S'p2_ll'
I2
tp407
a(S'p2_th'
I1
tp408
a(S'w'
I4
tp409
a(S'w'
I3
tp410
a(S'p2_vo'
I3
tp411
a(S'w'
I711
tp412
a(S'p1_vo'
I4
tp413
a(S'w'
I6
tp414
a(S'p2_vo'
I4
tp415
a(S'w'
I1462
tp416
a(S'p1_vo'
I5
tp417
a(S'w'
I5
tp418
a(S'p2_vo'
I5
tp419
a(S'w'
I2196
tp420
a(S'p1_vo'
I6
tp421
a(S'w'
I6
tp422
a(S'p2_vo'
I6
tp423
a(S'w'
I727
tp424
a(S'w'
I7
tp425
a(S'w'
I2195
tp426
a(S'p1_vo'
I7
tp427
a(S'w'
I6
tp428
a(S'p2_vo'
I7
tp429
a(S'w'
I2195
tp430
a(S'p1_tl'
I64
tp431
a(S'w'
I7
tp432
a(S'p2_tl'
I29
tp433
a(S'w'
I736
tp434
a(S'p1_tl'
I171
tp435
a(S'p1_ll'
I2
tp436
a(S'w'
I5
tp437
a(S'w'
I3
tp438
a(S'p1_vo'
I3
tp439
a(S'w'
I14
tp440
a(S'p2_tl'
I238
tp441
a(S'p2_ll'
I2
tp442
a(S'p2_th'
I0
tp443
a(S'w'
I5
tp444
a(S'w'
I3
tp445
a(S'p2_vo'
I3
tp446
a(S'w'
I695
tp447
a(S'p1_vo'
I4
tp448
a(S'w'
I6
tp449
a(S'p2_vo'
I4
tp450
a(S'w'
I1462
tp451
a(S'p1_vo'
I5
tp452
a(S'w'
I6
tp453
a(S'p2_vo'
I5
tp454
a(S'w'
I2195
tp455
a(S'p1_vo'
I6
tp456
a(S'w'
I6
tp457
a(S'p2_vo'
I6
tp458
a(S'w'
I727
tp459
a(S'w'
I7
tp460
a(S'w'
I2195
tp461
a(S'p1_vo'
I7
tp462
a(S'w'
I6
tp463
a(S'p2_vo'
I7
tp464
a(S'w'
I2195
tp465
a(S'p1_tl'
I172
tp466
a(S'w'
I7
tp467
a(S'p2_tl'
I239
tp468
a(S'w'
I728
tp469
a(S'p1_tl'
I147
tp470
a(S'p1_ll'
I2
tp471
a(S'w'
I5
tp472
a(S'w'
I3
tp473
a(S'p1_vo'
I3
tp474
a(S'w'
I7
tp475
a(S'p2_tl'
I12
tp476
a(S'p2_ll'
I2
tp477
a(S'p2_th'
I1
tp478
a(S'w'
I5
tp479
a(S'w'
I3
tp480
a(S'p2_vo'
I3
tp481
a(S'w'
I710
tp482
a(S'p1_vo'
I4
tp483
a(S'w'
I6
tp484
a(S'p2_vo'
I4
tp485
a(S'w'
I1462
tp486
a(S'p1_vo'
I5
tp487
a(S'w'
I6
tp488
a(S'p2_vo'
I5
tp489
a(S'w'
I2195
tp490
a(S'p1_vo'
I6
tp491
a(S'w'
I6
tp492
a(S'p2_vo'
I6
tp493
a(S'w'
I728
tp494
a(S'w'
I7
tp495
a(S'w'
I2195
tp496
a(S'p1_vo'
I7
tp497
a(S'w'
I5
tp498
a(S'p2_vo'
I7
tp499
a(S'w'
I2195
tp500
a(S'p1_tl'
I148
tp501
a(S'w'
I7
tp502
a(S'p2_tl'
I13
tp503
a(S'w'
I728
tp504
a(S'p1_tl'
I103
tp505
a(S'w'
I1
tp506
a(S'p1_ll'
I2
tp507
a(S'w'
I5
tp508
a(S'w'
I3
tp509
a(S'p1_vo'
I3
tp510
a(S'w'
I6
tp511
a(S'p2_tl'
I189
tp512
a(S'p2_ll'
I2
tp513
a(S'p2_th'
I0
tp514
a(S'w'
I5
tp515
a(S'w'
I3
tp516
a(S'p2_vo'
I3
tp517
a(S'w'
I711
tp518
a(S'p1_vo'
I4
tp519
a(S'w'
I5
tp520
a(S'p2_vo'
I4
tp521
a(S'w'
I1462
tp522
a(S'p1_vo'
I5
tp523
a(S'w'
I6
tp524
a(S'p2_vo'
I5
tp525
a(S'w'
I2196
tp526
a(S'p1_vo'
I6
tp527
a(S'w'
I5
tp528
a(S'p2_vo'
I6
tp529
a(S'w'
I728
tp530
a(S'w'
I7
tp531
a(S'w'
I2195
tp532
a(S'p1_vo'
I7
tp533
a(S'w'
I6
tp534
a(S'p2_vo'
I7
tp535
a(S'w'
I2196
tp536
a(S'p1_tl'
I63
tp537
a(S'p1_ll'
I2
tp538
a(S'w'
I5
tp539
a(S'w'
I3
tp540
a(S'p1_vo'
I3
tp541
a(S'w'
I7
tp542
a(S'p2_tl'
I28
tp543
a(S'p2_ll'
I2
tp544
a(S'p2_th'
I1
tp545
a(S'w'
I4
tp546
a(S'w'
I3
tp547
a(S'p2_vo'
I3
tp548
a(S'w'
I711
tp549
a(S'p1_vo'
I4
tp550
a(S'w'
I6
tp551
a(S'p2_vo'
I4
tp552
a(S'w'
I1462
tp553
a(S'p1_vo'
I5
tp554
a(S'w'
I5
tp555
a(S'p2_vo'
I5
tp556
a(S'w'
I2196
tp557
a(S'p1_vo'
I6
tp558
a(S'w'
I6
tp559
a(S'p2_vo'
I6
tp560
a(S'w'
I727
tp561
a(S'w'
I7
tp562
a(S'w'
I2195
tp563
a(S'p1_vo'
I7
tp564
a(S'w'
I6
tp565
a(S'p2_vo'
I7
tp566
a(S'w'
I2195
tp567
a(S'p1_tl'
I64
tp568
a(S'w'
I7
tp569
a(S'p2_tl'
I29
tp570
a(S'w'
I736
tp571
a(S'p1_tl'
I171
tp572
a(S'p1_ll'
I2
tp573
a(S'w'
I5
tp574
a(S'w'
I3
tp575
a(S'p1_vo'
I3
tp576
a(S'w'
I14
tp577
a(S'p2_tl'
I238
tp578
a(S'p2_ll'
I2
tp579
a(S'p2_th'
I0
tp580
a(S'w'
I5
tp581
a(S'w'
I3
tp582
a(S'p2_vo'
I3
tp583
a(S'w'
I695
tp584
a(S'p1_vo'
I4
tp585
a(S'w'
I6
tp586
a(S'p2_vo'
I4
tp587
a(S'w'
I1462
tp588
a(S'p1_vo'
I5
tp589
a(S'w'
I6
tp590
a(S'p2_vo'
I5
tp591
a(S'w'
I2195
tp592
a(S'p1_vo'
I6
tp593
a(S'w'
I6
tp594
a(S'p2_vo'
I6
tp595
a(S'w'
I727
tp596
a(S'w'
I7
tp597
a(S'w'
I2195
tp598
a(S'p1_vo'
I7
tp599
a(S'w'
I6
tp600
a(S'p2_vo'
I7
tp601
a(S'w'
I2195
tp602
a(S'p1_tl'
I172
tp603
a(S'w'
I7
tp604
a(S'p2_tl'
I239
tp605
a(S'w'
I728
tp606
a(S'p1_tl'
I147
tp607
a(S'w'
I1
tp608
a(S'p1_ll'
I2
tp609
a(S'w'
I4
tp610
a(S'w'
I3
tp611
a(S'p1_vo'
I3
tp612
a(S'w'
I7
tp613
a(S'p2_tl'
I12
tp614
a(S'p2_ll'
I2
tp615
a(S'p2_th'
I1
tp616
a(S'w'
I5
tp617
a(S'w'
I3
tp618
a(S'p2_vo'
I3
tp619
a(S'w'
I710
tp620
a(S'p1_vo'
I4
tp621
a(S'w'
I6
tp622
a(S'p2_vo'
I4
tp623
a(S'w'
I1462
tp624
a(S'p1_vo'
I5
tp625
a(S'w'
I6
tp626
a(S'p2_vo'
I5
tp627
a(S'w'
I2195
tp628
a(S'p1_vo'
I6
tp629
a(S'w'
I6
tp630
a(S'p2_vo'
I6
tp631
a(S'w'
I728
tp632
a(S'w'
I7
tp633
a(S'w'
I2195
tp634
a(S'p1_vo'
I7
tp635
a(S'w'
I5
tp636
a(S'p2_vo'
I7
tp637
a(S'w'
I2197
tp638
a(S'p1_tl'
I103
tp639
a(S'p1_ll'
I2
tp640
a(S'w'
I5
tp641
a(S'w'
I3
tp642
a(S'p1_vo'
I3
tp643
a(S'w'
I6
tp644
a(S'p2_tl'
I189
tp645
a(S'w'
I1
tp646
a(S'p2_ll'
I2
tp647
a(S'p2_th'
I0
tp648
a(S'w'
I4
tp649
a(S'w'
I3
tp650
a(S'p2_vo'
I3
tp651
a(S'w'
I711
tp652
a(S'p1_vo'
I4
tp653
a(S'w'
I6
tp654
a(S'p2_vo'
I4
tp655
a(S'w'
I1461
tp656
a(S'p1_vo'
I5
tp657
a(S'w'
I6
tp658
a(S'p2_vo'
I5
tp659
a(S'w'
I2196
tp660
a(S'p1_vo'
I6
tp661
a(S'w'
I6
tp662
a(S'p2_vo'
I6
tp663
a(S'w'
I727
tp664
a(S'w'
I7
tp665
a(S'w'
I2195
tp666
a(S'p1_vo'
I7
tp667
a(S'w'
I6
tp668
a(S'p2_vo'
I7
tp669
a(S'w'
I2195
tp670
a(S'p1_tl'
I104
tp671
a(S'w'
I7
tp672
a(S'p2_tl'
I190
tp673
a(S'w'
I728
tp674
a(S'p1_tl'
I63
tp675
a(S'p1_ll'
I2
tp676
a(S'w'
I5
tp677
a(S'w'
I3
tp678
a(S'p1_vo'
I3
tp679
a(S'w'
I7
tp680
a(S'p2_tl'
I28
tp681
a(S'p2_ll'
I2
tp682
a(S'p2_th'
I1
tp683
a(S'w'
I5
tp684
a(S'w'
I2
tp685
a(S'p2_vo'
I3
tp686
a(S'w'
I711
tp687
a(S'p1_vo'
I4
tp688
a(S'w'
I6
tp689
a(S'p2_vo'
I4
tp690
a(S'w'
I1462
tp691
a(S'p1_vo'
I5
tp692
a(S'w'
I6
tp693
a(S'p2_vo'
I5
tp694
a(S'w'
I2195
tp695
a(S'p1_vo'
I6
tp696
a(S'w'
I6
tp697
a(S'p2_vo'
I6
tp698
a(S'w'
I727
tp699
a(S'w'
I7
tp700
a(S'w'
I2195
tp701
a(S'p1_vo'
I7
tp702
a(S'w'
I6
tp703
a(S'p2_vo'
I7
tp704
a(S'w'
I2195
tp705
a(S'p1_tl'
I64
tp706
a(S'w'
I7
tp707
a(S'p2_tl'
I29
tp708
a(S'w'
I736
tp709
a(S'p1_tl'
I171
tp710
a(S'p1_ll'
I2
tp711
a(S'w'
I5
tp712
a(S'w'
I3
tp713
a(S'p1_vo'
I3
tp714
a(S'w'
I14
tp715
a(S'p2_tl'
I238
tp716
a(S'p2_ll'
I2
tp717
a(S'p2_th'
I0
tp718
a(S'w'
I5
tp719
a(S'w'
I3
tp720
a(S'p2_vo'
I3
tp721
a(S'w'
I695
tp722
a(S'p1_vo'
I4
tp723
a(S'w'
I6
tp724
a(S'p2_vo'
I4
tp725
a(S'w'
I1462
tp726
a(S'p1_vo'
I5
tp727
a(S'w'
I6
tp728
a(S'p2_vo'
I5
tp729
a(S'w'
I2195
tp730
a(S'p1_vo'
I6
tp731
a(S'w'
I6
tp732
a(S'p2_vo'
I6
tp733
a(S'w'
I727
tp734
a(S'w'
I7
tp735
a(S'w'
I2195
tp736
a(S'p1_vo'
I7
tp737
a(S'w'
I6
tp738
a(S'p2_vo'
I7
tp739
a(S'w'
I2195
tp740
a(S'p1_tl'
I172
tp741
a(S'w'
I7
tp742
a(S'p2_tl'
I239
tp743
a(S'w'
I728
tp744
a(S'p1_tl'
I147
tp745
a(S'w'
I1
tp746
a(S'p1_ll'
I2
tp747
a(S'w'
I4
tp748
a(S'w'
I4
tp749
a(S'p1_vo'
I3
tp750
a(S'w'
I6
tp751
a(S'p2_tl'
I12
tp752
a(S'p2_ll'
I2
tp753
a(S'p2_th'
I1
tp754
a(S'w'
I5
tp755
a(S'w'
I3
tp756
a(S'p2_vo'
I3
tp757
a(S'w'
I711
tp758
a(S'p1_vo'
I4
tp759
a(S'w'
I5
tp760
a(S'p2_vo'
I4
tp761
a(S'w'
I1462
tp762
a(S'p1_vo'
I5
tp763
a(S'w'
I6
tp764
a(S'p2_vo'
I5
tp765
a(S'w'
I2196
tp766
a(S'p1_vo'
I6
tp767
a(S'w'
I5
tp768
a(S'p2_vo'
I6
tp769
a(S'w'
I728
tp770
a(S'w'
I7
tp771
a(S'w'
I2195
tp772
a(S'p1_vo'
I7
tp773
a(S'w'
I6
tp774
a(S'p2_vo'
I7
tp775
a(S'w'
I2196
tp776
a(S'p1_tl'
I103
tp777
a(S'p1_ll'
I2
tp778
a(S'w'
I5
tp779
a(S'w'
I3
tp780
a(S'p1_vo'
I3
tp781
a(S'w'
I6
tp782
a(S'p2_tl'
I189
tp783
a(S'w'
I1
tp784
a(S'p2_ll'
I2
tp785
a(S'p2_th'
I0
tp786
a(S'w'
I4
tp787
a(S'w'
I3
tp788
a(S'p2_vo'
I3
tp789
a(S'w'
I711
tp790
a(S'p1_vo'
I4
tp791
a(S'w'
I6
tp792
a(S'p2_vo'
I4
tp793
a(S'w'
I1462
tp794
a(S'p1_vo'
I5
tp795
a(S'w'
I5
tp796
a(S'p2_vo'
I5
tp797
a(S'w'
I2196
tp798
a(S'p1_vo'
I6
tp799
a(S'w'
I6
tp800
a(S'p2_vo'
I6
tp801
a(S'w'
I727
tp802
a(S'w'
I7
tp803
a(S'w'
I2195
tp804
a(S'p1_vo'
I7
tp805
a(S'w'
I6
tp806
a(S'p2_vo'
I7
tp807
a(S'w'
I2195
tp808
a(S'p1_tl'
I104
tp809
a(S'w'
I7
tp810
a(S'p2_tl'
I190
tp811
a(S'w'
I728
tp812
a(S'p1_tl'
I63
tp813
a(S'p1_ll'
I2
tp814
a(S'w'
I5
tp815
a(S'w'
I3
tp816
a(S'p1_vo'
I3
tp817
a(S'w'
I7
tp818
a(S'p2_tl'
I28
tp819
a(S'p2_ll'
I2
tp820
a(S'p2_th'
I1
tp821
a(S'w'
I5
tp822
a(S'w'
I3
tp823
a(S'p2_vo'
I3
tp824
a(S'w'
I710
tp825
a(S'p1_vo'
I4
tp826
a(S'w'
I6
tp827
a(S'p2_vo'
I4
tp828
a(S'w'
I1462
tp829
a(S'p1_vo'
I5
tp830
a(S'w'
I6
tp831
a(S'p2_vo'
I5
tp832
a(S'w'
I2195
tp833
a(S'p1_vo'
I6
tp834
a(S'w'
I6
tp835
a(S'p2_vo'
I6
tp836
a(S'w'
I727
tp837
a(S'w'
I7
tp838
a(S'w'
I2195
tp839
a(S'p1_vo'
I7
tp840
a(S'w'
I6
tp841
a(S'p2_vo'
I7
tp842
a(S'w'
I2195
tp843
a(S'p1_tl'
I64
tp844
a(S'w'
I7
tp845
a(S'p2_tl'
I29
tp846
a(S'w'
I736
tp847
a(S'p1_tl'
I171
tp848
a(S'p1_ll'
I2
tp849
a(S'w'
I5
tp850
a(S'w'
I3
tp851
a(S'p1_vo'
I3
tp852
a(S'w'
I14
tp853
a(S'p2_tl'
I238
tp854
a(S'p2_ll'
I2
tp855
a(S'p2_th'
I0
tp856
a(S'w'
I5
tp857
a(S'w'
I3
tp858
a(S'p2_vo'
I3
tp859
a(S'w'
I695
tp860
a(S'p1_vo'
I4
tp861
a(S'w'
I6
tp862
a(S'p2_vo'
I4
tp863
a(S'w'
I1462
tp864
a(S'p1_vo'
I5
tp865
a(S'w'
I6
tp866
a(S'p2_vo'
I5
tp867
a(S'w'
I2195
tp868
a(S'p1_vo'
I6
tp869
a(S'w'
I6
tp870
a(S'p2_vo'
I6
tp871
a(S'w'
I727
tp872
a(S'w'
I7
tp873
a(S'w'
I2196
tp874
a(S'p1_vo'
I7
tp875
a(S'w'
I5
tp876
a(S'p2_vo'
I7
tp877
a(S'w'
I2197
tp878
a(S'p1_tl'
I147
tp879
a(S'p1_ll'
I2
tp880
a(S'w'
I5
tp881
a(S'w'
I3
tp882
a(S'p1_vo'
I3
tp883
a(S'w'
I6
tp884
a(S'p2_tl'
I12
tp885
a(S'w'
I1
tp886
a(S'p2_ll'
I2
tp887
a(S'p2_th'
I1
tp888
a(S'w'
I4
tp889
a(S'w'
I3
tp890
a(S'p2_vo'
I3
tp891
a(S'w'
I711
tp892
a(S'p1_vo'
I4
tp893
a(S'w'
I6
tp894
a(S'p2_vo'
I4
tp895
a(S'w'
I1461
tp896
a(S'p1_vo'
I5
tp897
a(S'w'
I6
tp898
a(S'p2_vo'
I5
tp899
a(S'w'
I2196
tp900
a(S'p1_vo'
I6
tp901
a(S'w'
I6
tp902
a(S'p2_vo'
I6
tp903
a(S'w'
I727
tp904
a(S'w'
I7
tp905
a(S'w'
I2195
tp906
a(S'p1_vo'
I7
tp907
a(S'w'
I6
tp908
a(S'p2_vo'
I7
tp909
a(S'w'
I2195
tp910
a(S'p1_tl'
I148
tp911
a(S'w'
I7
tp912
a(S'p2_tl'
I13
tp913
a(S'w'
I728
tp914
a(S'p1_tl'
I103
tp915
a(S'p1_ll'
I2
tp916
a(S'w'
I5
tp917
a(S'w'
I3
tp918
a(S'p1_vo'
I3
tp919
a(S'w'
I7
tp920
a(S'p2_tl'
I189
tp921
a(S'p2_ll'
I2
tp922
a(S'p2_th'
I0
tp923
a(S'w'
I4
tp924
a(S'w'
I3
tp925
a(S'p2_vo'
I3
tp926
a(S'w'
I711
tp927
a(S'p1_vo'
I4
tp928
a(S'w'
I6
tp929
a(S'p2_vo'
I4
tp930
a(S'w'
I1462
tp931
a(S'p1_vo'
I5
tp932
a(S'w'
I5
tp933
a(S'p2_vo'
I5
tp934
a(S'w'
I2196
tp935
a(S'p1_vo'
I6
tp936
a(S'w'
I6
tp937
a(S'p2_vo'
I6
tp938
a(S'w'
I727
tp939
a(S'w'
I7
tp940
a(S'w'
I2195
tp941
a(S'p1_vo'
I7
tp942
a(S'w'
I6
tp943
a(S'p2_vo'
I7
tp944
a(S'w'
I2195
tp945
a(S'p1_tl'
I104
tp946
a(S'w'
I7
tp947
a(S'p2_tl'
I190
tp948
a(S'w'
I728
tp949
a(S'p1_tl'
I63
tp950
a(S'p1_ll'
I2
tp951
a(S'w'
I5
tp952
a(S'w'
I3
tp953
a(S'p1_vo'
I3
tp954
a(S'w'
I7
tp955
a(S'p2_tl'
I28
tp956
a(S'p2_ll'
I2
tp957
a(S'p2_th'
I1
tp958
a(S'w'
I5
tp959
a(S'w'
I3
tp960
a(S'p2_vo'
I3
tp961
a(S'w'
I710
tp962
a(S'p1_vo'
I4
tp963
a(S'w'
I6
tp964
a(S'p2_vo'
I4
tp965
a(S'w'
I1462
tp966
a(S'p1_vo'
I5
tp967
a(S'w'
I6
tp968
a(S'p2_vo'
I5
tp969
a(S'w'
I2195
tp970
a(S'p1_vo'
I6
tp971
a(S'w'
I6
tp972
a(S'p2_vo'
I6
tp973
a(S'w'
I727
tp974
a(S'w'
I7
tp975
a(S'w'
I2195
tp976
a(S'p1_vo'
I7
tp977
a(S'w'
I6
tp978
a(S'p2_vo'
I7
tp979
a(S'w'
I2195
tp980
a(S'p1_tl'
I64
tp981
a(S'w'
I7
tp982
a(S'p2_tl'
I29
tp983
a(S'w'
I736
tp984
a.