(lp1
(S'clock'
p2
I1789772
tp3
a(S'p1_cv'
I1
tp4
a(S'p2_cv'
I1
tp5
a(S'no_cv'
I1
tp6
a(S'ch_no'
I1
tp7
a(S'ch_tr'
I1
tp8
a(S'ch_p2'
I1
tp9
a(S'ch_p1'
I1
tp10
a(S'fc_mo'
I1
tp11
a(S'tr_ll'
I3
tp12
a(S'w'
I741
tp13
a(S'p1_sp'
I1
tp14
a(S'p1_sn'
I1
tp15
a(S'p1_ss'
I5
tp16
a(S'p1_tl'
I12
tp17
a(S'p1_ll'
I2
tp18
a(S'p1_th'
I1
tp19
a(S'w'
I5
tp20
a(S'w'
I3
tp21
a(S'p1_du'
I3
tp22
a(S'p1_lh'
I1
tp23
a(S'p1_vo'
I3
tp24
a(S'w'
I13
tp25
a(S'p2_sp'
I1
tp26
a(S'p2_sn'
I1
tp27
a(S'p2_ss'
I5
tp28
a(S'p2_tl'
I178
tp29
a(S'p2_ll'
I2
tp30
a(S'w'
I5
tp31
a(S'w'
I3
tp32
a(S'p2_du'
I3
tp33
a(S'p2_lh'
I1
tp34
a(S'p2_vo'
I3
tp35
a(S'w'
I698
tp36
a(S'p1_vo'
I4
tp37
a(S'w'
I6
tp38
a(S'p2_vo'
I4
tp39
a(S'w'
I1462
tp40
a(S'p1_vo'
I5
tp41
a(S'w'
I6
tp42
a(S'p2_vo'
I5
tp43
a(S'w'
I2195
tp44
a(S'p1_vo'
I6
tp45
a(S'w'
I6
tp46
a(S'p2_vo'
I6
tp47
a(S'w'
I727
tp48
a(S'w'
I7
tp49
a(S'w'
I2195
tp50
a(S'p1_vo'
I7
tp51
a(S'w'
I6
tp52
a(S'p2_vo'
I7
tp53
a(S'w'
I2195
tp54
a(S'p1_tl'
I13
tp55
a(S'w'
I7
tp56
a(S'p2_tl'
I179
tp57
a(S'w'
I727
tp58
a(S'p1_tl'
I12
tp59
a(S'w'
I3
tp60
a(S'p1_vo'
I8
tp61
a(S'w'
I5
tp62
a(S'p2_tl'
I178
tp63
a(S'w'
I3
tp64
a(S'p2_vo'
I8
tp65
a(S'w'
I2190
tp66
a(S'p1_tl'
I13
tp67
a(S'w'
I7
tp68
a(S'p2_tl'
I179
tp69
a(S'w'
I727
tp70
a(S'p1_tl'
I12
tp71
a(S'w'
I7
tp72
a(S'p2_tl'
I178
tp73
a(S'w'
I1461
tp74
a(S'p1_tl'
I11
tp75
a(S'w'
I7
tp76
a(S'p2_tl'
I177
tp77
a(S'w'
I727
tp78
a(S'p1_tl'
I12
tp79
a(S'w'
I7
tp80
a(S'p2_tl'
I178
tp81
a(S'w'
I2195
tp82
a(S'p1_vo'
I7
tp83
a(S'w'
I5
tp84
a(S'p2_vo'
I7
tp85
a(S'w'
I728
tp86
a(S'p1_tl'
I13
tp87
a(S'w'
I7
tp88
a(S'p2_tl'
I179
tp89
a(S'w'
I1460
tp90
a(S'p1_tl'
I12
tp91
a(S'w'
I7
tp92
a(S'p2_tl'
I178
tp93
a(S'w'
I2929
tp94
a(S'p1_tl'
I11
tp95
a(S'w'
I7
tp96
a(S'p2_tl'
I177
tp97
a(S'w'
I732
tp98
a(S'p2_tl'
I133
tp99
a(S'w'
I1
tp100
a(S'p2_ll'
I2
tp101
a(S'w'
I4
tp102
a(S'w'
I3
tp103
a(S'p2_vo'
I3
tp104
a(S'w'
I720
tp105
a(S'p1_tl'
I13
tp106
a(S'w'
I8
tp107
a(S'p2_vo'
I4
tp108
a(S'w'
I727
tp109
a(S'p1_vo'
I6
tp110
a(S'w'
I733
tp111
a(S'p1_tl'
I14
tp112
a(S'w'
I7
tp113
a(S'p2_vo'
I5
tp114
a(S'w'
I726
tp115
a(S'p1_tl'
I13
tp116
a(S'w'
I734
tp117
a(S'p1_tl'
I12
tp118
a(S'w'
I734
tp119
a(S'p1_tl'
I11
tp120
a(S'w'
I8
tp121
a(S'p2_vo'
I6
tp122
a(S'w'
I731
tp123
a(S'w'
I729
tp124
a(S'p1_tl'
I10
tp125
a(S'w'
I733
tp126
a(S'p1_tl'
I11
tp127
a(S'w'
I734
tp128
a(S'p1_tl'
I12
tp129
a(S'w'
I8
tp130
a(S'p2_vo'
I7
tp131
a(S'w'
I726
tp132
a(S'p1_tl'
I13
tp133
a(S'w'
I1468
tp134
a(S'p1_tl'
I14
tp135
a(S'w'
I7
tp136
a(S'p2_tl'
I134
tp137
a(S'w'
I727
tp138
a(S'p1_tl'
I13
tp139
a(S'w'
I7
tp140
a(S'p2_tl'
I133
tp141
a(S'w'
I3
tp142
a(S'p2_vo'
I8
tp143
a(S'w'
I723
tp144
a(S'p1_tl'
I12
tp145
a(S'w'
I734
tp146
a(S'p1_tl'
I11
tp147
a(S'w'
I739
tp148
a(S'p2_tl'
I134
tp149
a(S'w'
I729
tp150
a(S'p1_tl'
I10
tp151
a(S'w'
I7
tp152
a(S'p2_tl'
I133
tp153
a(S'w'
I727
tp154
a(S'p1_tl'
I11
tp155
a(S'w'
I733
tp156
a(S'p1_tl'
I12
tp157
a(S'w'
I7
tp158
a(S'p2_tl'
I132
tp159
a(S'w'
I727
tp160
a(S'p1_tl'
I13
tp161
a(S'w'
I7
tp162
a(S'p2_tl'
I133
tp163
a(S'w'
I728
tp164
a(S'p1_vo'
I4
tp165
a(S'w'
I733
tp166
a(S'p1_tl'
I14
tp167
a(S'w'
I3
tp168
a(S'p1_vo'
I3
tp169
a(S'w'
I731
tp170
a(S'p1_tl'
I13
tp171
a(S'w'
I7
tp172
a(S'p2_vo'
I7
tp173
a(S'w'
I726
tp174
a(S'p1_tl'
I12
tp175
a(S'w'
I7
tp176
a(S'p2_tl'
I134
tp177
a(S'w'
I727
tp178
a(S'p1_tl'
I11
tp179
a(S'w'
I738
tp180
a(S'p2_tl'
I133
tp181
a(S'w'
I730
tp182
a(S'p1_tl'
I10
tp183
a(S'w'
I734
tp184
a(S'p1_tl'
I11
tp185
a(S'w'
I733
tp186
a(S'p1_tl'
I12
tp187
a(S'w'
I734
tp188
a(S'p1_tl'
I13
tp189
a(S'w'
I7
tp190
a(S'p2_tl'
I132
tp191
a(S'w'
I728
tp192
a(S'p1_tl'
I200
tp193
a(S'w'
I1
tp194
a(S'p1_ll'
I2
tp195
a(S'p1_th'
I0
tp196
a(S'w'
I4
tp197
a(S'w'
I12
tp198
a(S'p2_tl'
I141
tp199
a(S'p2_ll'
I2
tp200
a(S'w'
I4
tp201
a(S'w'
I3
tp202
a(S'p2_vo'
I3
tp203
a(S'w'
I709
tp204
a(S'p1_vo'
I4
tp205
a(S'w'
I6
tp206
a(S'p2_vo'
I4
tp207
a(S'w'
I1462
tp208
a(S'p1_vo'
I5
tp209
a(S'w'
I6
tp210
a(S'p2_vo'
I5
tp211
a(S'w'
I2195
tp212
a(S'p1_vo'
I6
tp213
a(S'w'
I6
tp214
a(S'p2_vo'
I6
tp215
a(S'w'
I728
tp216
a(S'w'
I7
tp217
a(S'w'
I2195
tp218
a(S'p1_vo'
I7
tp219
a(S'w'
I6
tp220
a(S'p2_vo'
I7
tp221
a(S'w'
I2194
tp222
a(S'p1_tl'
I201
tp223
a(S'w'
I7
tp224
a(S'p2_tl'
I142
tp225
a(S'w'
I727
tp226
a(S'p1_tl'
I200
tp227
a(S'w'
I3
tp228
a(S'p1_vo'
I8
tp229
a(S'w'
I5
tp230
a(S'p2_tl'
I141
tp231
a(S'w'
I3
tp232
a(S'p2_vo'
I8
tp233
a(S'w'
I1463
tp234
a(S'p2_tl'
I159
tp235
a(S'p2_ll'
I2
tp236
a(S'w'
I5
tp237
a(S'w'
I3
tp238
a(S'p2_vo'
I3
tp239
a(S'w'
I720
tp240
a(S'p1_tl'
I201
tp241
a(S'w'
I7
tp242
a(S'p2_vo'
I4
tp243
a(S'w'
I726
tp244
a(S'p1_tl'
I200
tp245
a(S'w'
I740
tp246
a(S'p2_vo'
I5
tp247
a(S'w'
I728
tp248
a(S'p1_tl'
I199
tp249
a(S'w'
I734
tp250
a(S'p1_tl'
I200
tp251
a(S'w'
I739
tp252
a(S'p2_vo'
I6
tp253
a(S'w'
I733
tp254
a(S'w'
I730
tp255
a(S'p1_vo'
I7
tp256
a(S'w'
I733
tp257
a(S'p1_tl'
I201
tp258
a(S'w'
I739
tp259
a(S'p2_vo'
I7
tp260
a(S'w'
I729
tp261
a(S'p1_tl'
I200
tp262
a(S'w'
I1472
tp263
a(S'p2_tl'
I160
tp264
a(S'w'
I734
tp265
a(S'p2_tl'
I159
tp266
a(S'w'
I3
tp267
a(S'p2_vo'
I8
tp268
a(S'w'
I726
tp269
a(S'p1_tl'
I199
tp270
a(S'w'
I740
tp271
a(S'p2_tl'
I178
tp272
a(S'p2_ll'
I2
tp273
a(S'w'
I5
tp274
a(S'w'
I2
tp275
a(S'p2_vo'
I3
tp276
a(S'w'
I720
tp277
a(S'p1_tl'
I201
tp278
a(S'w'
I8
tp279
a(S'p2_vo'
I4
tp280
a(S'w'
I727
tp281
a(S'p1_vo'
I6
tp282
a(S'w'
I733
tp283
a(S'p1_tl'
I202
tp284
a(S'w'
I8
tp285
a(S'p2_vo'
I5
tp286
a(S'w'
I726
tp287
a(S'p1_tl'
I201
tp288
a(S'w'
I734
tp289
a(S'p1_tl'
I200
tp290
a(S'w'
I733
tp291
a(S'p1_tl'
I199
tp292
a(S'w'
I8
tp293
a(S'p2_vo'
I6
tp294
a(S'w'
I731
tp295
a(S'w'
I729
tp296
a(S'p1_tl'
I198
tp297
a(S'w'
I734
tp298
a(S'p1_tl'
I199
tp299
a(S'w'
I734
tp300
a(S'p1_tl'
I200
tp301
a(S'w'
I7
tp302
a(S'p2_vo'
I7
tp303
a(S'w'
I726
tp304
a(S'p1_tl'
I201
tp305
a(S'w'
I1468
tp306
a(S'p1_tl'
I202
tp307
a(S'w'
I7
tp308
a(S'p2_tl'
I179
tp309
a(S'w'
I727
tp310
a(S'p1_tl'
I201
tp311
a(S'w'
I7
tp312
a(S'p2_tl'
I178
tp313
a(S'w'
I3
tp314
a(S'p2_vo'
I8
tp315
a(S'w'
I724
tp316
a(S'p1_tl'
I200
tp317
a(S'w'
I733
tp318
a(S'p1_tl'
I199
tp319
a(S'w'
I9
tp320
a(S'p2_tl'
I200
tp321
a(S'p2_ll'
I2
tp322
a(S'w'
I5
tp323
a(S'w'
I3
tp324
a(S'p2_vo'
I3
tp325
a(S'w'
I723
tp326
a(S'p2_vo'
I4
tp327
a(S'w'
I728
tp328
a(S'p1_tl'
I198
tp329
a(S'w'
I734
tp330
a(S'p1_tl'
I199
tp331
a(S'w'
I8
tp332
a(S'p2_vo'
I5
tp333
a(S'w'
I726
tp334
a(S'p1_tl'
I200
tp335
a(S'w'
I733
tp336
a(S'p1_tl'
I201
tp337
a(S'w'
I735
tp338
a(S'p1_vo'
I4
tp339
a(S'w'
I6
tp340
a(S'p2_vo'
I6
tp341
a(S'w'
I727
tp342
a(S'p1_tl'
I202
tp343
a(S'w'
I3
tp344
a(S'p1_vo'
I3
tp345
a(S'w'
I5
tp346
a(S'w'
I726
tp347
a(S'p1_tl'
I201
tp348
a(S'w'
I734
tp349
a(S'p1_tl'
I200
tp350
a(S'w'
I733
tp351
a(S'p1_tl'
I199
tp352
a(S'w'
I8
tp353
a(S'p2_vo'
I7
tp354
a(S'w'
I1460
tp355
a(S'p1_tl'
I198
tp356
a(S'w'
I734
tp357
a(S'p1_tl'
I199
tp358
a(S'w'
I7
tp359
a(S'p2_tl'
I201
tp360
a(S'w'
I727
tp361
a(S'p1_tl'
I200
tp362
a(S'w'
I6
tp363
a(S'p2_tl'
I200
tp364
a(S'w'
I3
tp365
a(S'p2_vo'
I8
tp366
a(S'w'
I724
tp367
a(S'p1_tl'
I201
tp368
a(S'w'
I736
tp369
a(S'p1_tl'
I178
tp370
a(S'p1_ll'
I2
tp371
a(S'w'
I5
tp372
a(S'w'
I11
tp373
a(S'p2_tl'
I212
tp374
a(S'p2_ll'
I2
tp375
a(S'w'
I5
tp376
a(S'w'
I3
tp377
a(S'p2_vo'
I3
tp378
a(S'w'
I709
tp379
a(S'p1_vo'
I4
tp380
a(S'w'
I6
tp381
a(S'p2_vo'
I4
tp382
a(S'w'
I1461
tp383
a(S'p1_vo'
I5
tp384
a(S'w'
I6
tp385
a(S'p2_vo'
I5
tp386
a(S'w'
I2196
tp387
a(S'p1_vo'
I6
tp388
a(S'w'
I6
tp389
a(S'p2_vo'
I6
tp390
a(S'w'
I727
tp391
a(S'w'
I7
tp392
a(S'w'
I2195
tp393
a(S'p1_vo'
I7
tp394
a(S'w'
I6
tp395
a(S'p2_vo'
I7
tp396
a(S'w'
I2195
tp397
a(S'p1_tl'
I179
tp398
a(S'w'
I7
tp399
a(S'p2_tl'
I213
tp400
a(S'w'
I726
tp401
a(S'p1_tl'
I178
tp402
a(S'w'
I3
tp403
a(S'p1_vo'
I8
tp404
a(S'w'
I6
tp405
a(S'p2_tl'
I212
tp406
a(S'w'
I3
tp407
a(S'p2_vo'
I8
tp408
a(S'w'
I2190
tp409
a(S'p1_tl'
I179
tp410
a(S'w'
I7
tp411
a(S'p2_tl'
I213
tp412
a(S'w'
I727
tp413
a(S'p1_tl'
I178
tp414
a(S'w'
I7
tp415
a(S'p2_tl'
I212
tp416
a(S'w'
I1460
tp417
a(S'p1_tl'
I177
tp418
a(S'w'
I7
tp419
a(S'p2_tl'
I211
tp420
a(S'w'
I727
tp421
a(S'p1_tl'
I178
tp422
a(S'w'
I7
tp423
a(S'p2_tl'
I212
tp424
a(S'w'
I2195
tp425
a(S'p1_vo'
I7
tp426
a(S'w'
I6
tp427
a(S'p2_vo'
I7
tp428
a(S'w'
I727
tp429
a(S'p1_tl'
I179
tp430
a(S'w'
I7
tp431
a(S'p2_tl'
I213
tp432
a(S'w'
I1461
tp433
a(S'p1_tl'
I178
tp434
a(S'w'
I7
tp435
a(S'p2_tl'
I212
tp436
a(S'w'
I2928
tp437
a(S'p1_tl'
I177
tp438
a(S'w'
I7
tp439
a(S'p2_tl'
I211
tp440
a(S'w'
I1461
tp441
a(S'p1_tl'
I179
tp442
a(S'w'
I7
tp443
a(S'p2_tl'
I213
tp444
a(S'w'
I727
tp445
a(S'p1_vo'
I6
tp446
a(S'w'
I6
tp447
a(S'p2_vo'
I6
tp448
a(S'w'
I727
tp449
a(S'p1_tl'
I180
tp450
a(S'w'
I7
tp451
a(S'p2_tl'
I214
tp452
a(S'w'
I727
tp453
a(S'p1_tl'
I179
tp454
a(S'w'
I7
tp455
a(S'p2_tl'
I213
tp456
a(S'w'
I727
tp457
a(S'p1_tl'
I178
tp458
a(S'w'
I7
tp459
a(S'p2_tl'
I212
tp460
a(S'w'
I727
tp461
a(S'p1_tl'
I177
tp462
a(S'w'
I7
tp463
a(S'p2_tl'
I211
tp464
a(S'w'
I1460
tp465
a(S'p1_tl'
I176
tp466
a(S'w'
I7
tp467
a(S'p2_tl'
I210
tp468
a(S'w'
I727
tp469
a(S'p1_tl'
I177
tp470
a(S'w'
I7
tp471
a(S'p2_tl'
I211
tp472
a(S'w'
I727
tp473
a(S'p1_tl'
I178
tp474
a(S'w'
I7
tp475
a(S'p2_tl'
I212
tp476
a(S'w'
I727
tp477
a(S'p1_tl'
I179
tp478
a(S'w'
I7
tp479
a(S'p2_tl'
I213
tp480
a(S'w'
I1460
tp481
a(S'p1_tl'
I180
tp482
a(S'w'
I7
tp483
a(S'p2_tl'
I214
tp484
a(S'w'
I727
tp485
a(S'p1_tl'
I179
tp486
a(S'w'
I7
tp487
a(S'p2_tl'
I213
tp488
a(S'w'
I727
tp489
a(S'p1_tl'
I178
tp490
a(S'w'
I7
tp491
a(S'p2_tl'
I212
tp492
a(S'w'
I727
tp493
a(S'p1_tl'
I177
tp494
a(S'w'
I7
tp495
a(S'p2_tl'
I211
tp496
a(S'w'
I1460
tp497
a(S'p1_tl'
I176
tp498
a(S'w'
I7
tp499
a(S'p2_tl'
I210
tp500
a(S'w'
I727
tp501
a(S'p1_tl'
I177
tp502
a(S'w'
I7
tp503
a(S'p2_tl'
I211
tp504
a(S'w'
I727
tp505
a(S'p1_tl'
I178
tp506
a(S'w'
I7
tp507
a(S'p2_tl'
I212
tp508
a(S'w'
I727
tp509
a(S'p1_tl'
I179
tp510
a(S'w'
I7
tp511
a(S'p2_tl'
I213
tp512
a(S'w'
I727
tp513
a(S'p1_vo'
I4
tp514
a(S'w'
I6
tp515
a(S'p2_vo'
I4
tp516
a(S'w'
I727
tp517
a(S'p1_tl'
I180
tp518
a(S'w'
I3
tp519
a(S'p1_vo'
I3
tp520
a(S'w'
I6
tp521
a(S'p2_tl'
I214
tp522
a(S'w'
I3
tp523
a(S'p2_vo'
I3
tp524
a(S'w'
I722
tp525
a(S'p1_tl'
I179
tp526
a(S'w'
I7
tp527
a(S'p2_tl'
I213
tp528
a(S'w'
I727
tp529
a(S'p1_tl'
I178
tp530
a(S'w'
I7
tp531
a(S'p2_tl'
I212
tp532
a(S'w'
I727
tp533
a(S'p1_tl'
I177
tp534
a(S'w'
I6
tp535
a(S'p2_tl'
I211
tp536
a(S'w'
I1461
tp537
a(S'p1_tl'
I176
tp538
a(S'w'
I7
tp539
a(S'p2_tl'
I210
tp540
a(S'w'
I727
tp541
a(S'p1_tl'
I177
tp542
a(S'w'
I7
tp543
a(S'p2_tl'
I211
tp544
a(S'w'
I727
tp545
a(S'p1_tl'
I178
tp546
a(S'w'
I7
tp547
a(S'p2_tl'
I212
tp548
a(S'w'
I727
tp549
a(S'p1_tl'
I179
tp550
a(S'w'
I6
tp551
a(S'p2_tl'
I213
tp552
a(S'w'
I729
tp553
a(S'p1_tl'
I103
tp554
a(S'p1_ll'
I2
tp555
a(S'p1_th'
I1
tp556
a(S'w'
I5
tp557
a(S'w'
I11
tp558
a(S'p2_tl'
I238
tp559
a(S'p2_ll'
I2
tp560
a(S'w'
I5
tp561
a(S'w'
I712
tp562
a(S'p1_vo'
I4
tp563
a(S'w'
I6
tp564
a(S'p2_vo'
I4
tp565
a(S'w'
I1462
tp566
a(S'p1_vo'
I5
tp567
a(S'w'
I5
tp568
a(S'p2_vo'
I5
tp569
a(S'w'
I2196
tp570
a(S'p1_vo'
I6
tp571
a(S'w'
I6
tp572
a(S'p2_vo'
I6
tp573
a(S'w'
I727
tp574
a(S'w'
I7
tp575
a(S'w'
I2195
tp576
a(S'p1_vo'
I7
tp577
a(S'w'
I6
tp578
a(S'p2_vo'
I7
tp579
a(S'w'
I2195
tp580
a(S'p1_tl'
I104
tp581
a(S'w'
I7
tp582
a(S'p2_tl'
I239
tp583
a(S'w'
I727
tp584
a(S'p1_tl'
I103
tp585
a(S'w'
I3
tp586
a(S'p1_vo'
I8
tp587
a(S'w'
I5
tp588
a(S'p2_tl'
I238
tp589
a(S'w'
I3
tp590
a(S'p2_vo'
I8
tp591
a(S'w'
I2190
tp592
a(S'p1_tl'
I104
tp593
a(S'w'
I7
tp594
a(S'p2_tl'
I239
tp595
a(S'w'
I727
tp596
a(S'p1_tl'
I103
tp597
a(S'w'
I7
tp598
a(S'p2_tl'
I238
tp599
a(S'w'
I1461
tp600
a(S'p1_tl'
I102
tp601
a(S'w'
I7
tp602
a(S'p2_tl'
I237
tp603
a(S'w'
I726
tp604
a(S'p1_tl'
I103
tp605
a(S'w'
I7
tp606
a(S'p2_tl'
I238
tp607
a(S'w'
I2195
tp608
a(S'p1_vo'
I7
tp609
a(S'w'
I6
tp610
a(S'p2_vo'
I7
tp611
a(S'w'
I728
tp612
a(S'p1_tl'
I104
tp613
a(S'w'
I7
tp614
a(S'p2_tl'
I239
tp615
a(S'w'
I1460
tp616
a(S'p1_tl'
I103
tp617
a(S'w'
I7
tp618
a(S'p2_tl'
I238
tp619
a(S'w'
I2928
tp620
a(S'p1_tl'
I102
tp621
a(S'w'
I7
tp622
a(S'p2_tl'
I237
tp623
a(S'w'
I733
tp624
a(S'p2_tl'
I12
tp625
a(S'p2_ll'
I2
tp626
a(S'p2_th'
I1
tp627
a(S'w'
I5
tp628
a(S'w'
I3
tp629
a(S'p2_vo'
I3
tp630
a(S'w'
I720
tp631
a(S'p1_tl'
I104
tp632
a(S'w'
I8
tp633
a(S'p2_vo'
I4
tp634
a(S'w'
I726
tp635
a(S'p1_vo'
I6
tp636
a(S'w'
I734
tp637
a(S'p1_tl'
I105
tp638
a(S'w'
I7
tp639
a(S'p2_vo'
I5
tp640
a(S'w'
I726
tp641
a(S'p1_tl'
I104
tp642
a(S'w'
I734
tp643
a(S'p1_tl'
I103
tp644
a(S'w'
I734
tp645
a(S'p1_tl'
I102
tp646
a(S'w'
I8
tp647
a(S'p2_vo'
I6
tp648
a(S'w'
I730
tp649
a(S'w'
I730
tp650
a(S'p1_tl'
I101
tp651
a(S'w'
I733
tp652
a(S'p1_tl'
I102
tp653
a(S'w'
I734
tp654
a(S'p1_tl'
I103
tp655
a(S'w'
I8
tp656
a(S'p2_vo'
I7
tp657
a(S'w'
I726
tp658
a(S'p1_tl'
I104
tp659
a(S'w'
I1468
tp660
a(S'p1_tl'
I105
tp661
a(S'w'
I7
tp662
a(S'p2_tl'
I13
tp663
a(S'w'
I726
tp664
a(S'p1_tl'
I104
tp665
a(S'w'
I7
tp666
a(S'p2_tl'
I12
tp667
a(S'w'
I3
tp668
a(S'p2_vo'
I8
tp669
a(S'w'
I724
tp670
a(S'p1_tl'
I103
tp671
a(S'w'
I734
tp672
a(S'p1_tl'
I102
tp673
a(S'w'
I738
tp674
a(S'p2_tl'
I13
tp675
a(S'w'
I730
tp676
a(S'p1_tl'
I101
tp677
a(S'w'
I7
tp678
a(S'p2_tl'
I12
tp679
a(S'w'
I726
tp680
a(S'p1_tl'
I102
tp681
a(S'w'
I734
tp682
a(S'p1_tl'
I103
tp683
a(S'w'
I7
tp684
a(S'p2_tl'
I11
tp685
a(S'w'
I727
tp686
a(S'p1_tl'
I104
tp687
a(S'w'
I7
tp688
a(S'p2_tl'
I12
tp689
a(S'w'
I728
tp690
a(S'p1_vo'
I4
tp691
a(S'w'
I733
tp692
a(S'p1_tl'
I105
tp693
a(S'w'
I3
tp694
a(S'p1_vo'
I3
tp695
a(S'w'
I730
tp696
a(S'p1_tl'
I104
tp697
a(S'w'
I8
tp698
a(S'p2_vo'
I7
tp699
a(S'w'
I726
tp700
a(S'p1_tl'
I103
tp701
a(S'w'
I7
tp702
a(S'p2_tl'
I13
tp703
a(S'w'
I727
tp704
a(S'p1_tl'
I102
tp705
a(S'w'
I738
tp706
a(S'p2_tl'
I12
tp707
a(S'w'
I730
tp708
a(S'p1_tl'
I101
tp709
a(S'w'
I733
tp710
a(S'p1_tl'
I102
tp711
a(S'w'
I734
tp712
a(S'p1_tl'
I103
tp713
a(S'w'
I734
tp714
a(S'p1_tl'
I104
tp715
a(S'w'
I7
tp716
a(S'p2_tl'
I11
tp717
a(S'w'
I731
tp718
a(S'p1_tl'
I200
tp719
a(S'p1_ll'
I2
tp720
a(S'p1_th'
I0
tp721
a(S'w'
I5
tp722
a(S'w'
I12
tp723
a(S'p2_tl'
I12
tp724
a(S'p2_ll'
I2
tp725
a(S'w'
I5
tp726
a(S'w'
I3
tp727
a(S'p2_vo'
I3
tp728
a(S'w'
I705
tp729
a(S'p1_vo'
I4
tp730
a(S'w'
I6
tp731
a(S'p2_vo'
I4
tp732
a(S'w'
I1462
tp733
a(S'p1_vo'
I5
tp734
a(S'w'
I6
tp735
a(S'p2_vo'
I5
tp736
a(S'w'
I2195
tp737
a(S'p1_vo'
I6
tp738
a(S'w'
I6
tp739
a(S'p2_vo'
I6
tp740
a(S'w'
I727
tp741
a(S'w'
I7
tp742
a(S'w'
I2196
tp743
a(S'p1_vo'
I7
tp744
a(S'w'
I5
tp745
a(S'p2_vo'
I7
tp746
a(S'w'
I2195
tp747
a(S'p1_tl'
I201
tp748
a(S'w'
I7
tp749
a(S'p2_tl'
I13
tp750
a(S'w'
I727
tp751
a(S'p1_tl'
I200
tp752
a(S'w'
I3
tp753
a(S'p1_vo'
I8
tp754
a(S'w'
I5
tp755
a(S'p2_tl'
I12
tp756
a(S'w'
I3
tp757
a(S'p2_vo'
I8
tp758
a(S'w'
I2190
tp759
a(S'p1_tl'
I201
tp760
a(S'w'
I7
tp761
a(S'p2_tl'
I13
tp762
a(S'w'
I727
tp763
a(S'p1_tl'
I200
tp764
a(S'w'
I7
tp765
a(S'p2_tl'
I12
tp766
a(S'w'
I1461
tp767
a(S'p1_tl'
I199
tp768
a(S'w'
I7
tp769
a(S'p2_tl'
I11
tp770
a(S'w'
I727
tp771
a(S'p1_tl'
I200
tp772
a(S'w'
I7
tp773
a(S'p2_tl'
I12
tp774
a(S'w'
I2195
tp775
a(S'p1_vo'
I7
tp776
a(S'w'
I6
tp777
a(S'p2_vo'
I7
tp778
a(S'w'
I727
tp779
a(S'p1_tl'
I201
tp780
a(S'w'
I7
tp781
a(S'p2_tl'
I13
tp782
a(S'w'
I1460
tp783
a(S'p1_tl'
I200
tp784
a(S'w'
I7
tp785
a(S'p2_tl'
I12
tp786
a(S'w'
I2929
tp787
a(S'p1_tl'
I199
tp788
a(S'w'
I7
tp789
a(S'p2_tl'
I11
tp790
a(S'w'
I1460
tp791
a(S'p1_tl'
I201
tp792
a(S'w'
I7
tp793
a(S'p2_tl'
I13
tp794
a(S'w'
I728
tp795
a(S'p1_vo'
I6
tp796
a(S'w'
I6
tp797
a(S'p2_vo'
I6
tp798
a(S'w'
I727
tp799
a(S'p1_tl'
I202
tp800
a(S'w'
I7
tp801
a(S'p2_tl'
I14
tp802
a(S'w'
I727
tp803
a(S'p1_tl'
I201
tp804
a(S'w'
I7
tp805
a(S'p2_tl'
I13
tp806
a(S'w'
I726
tp807
a(S'p1_tl'
I200
tp808
a(S'w'
I7
tp809
a(S'p2_tl'
I12
tp810
a(S'w'
I727
tp811
a(S'p1_tl'
I199
tp812
a(S'w'
I7
tp813
a(S'p2_tl'
I11
tp814
a(S'w'
I1461
tp815
a(S'p1_tl'
I198
tp816
a(S'w'
I7
tp817
a(S'p2_tl'
I10
tp818
a(S'w'
I727
tp819
a(S'p1_tl'
I199
tp820
a(S'w'
I7
tp821
a(S'p2_tl'
I11
tp822
a(S'w'
I726
tp823
a(S'p1_tl'
I200
tp824
a(S'w'
I7
tp825
a(S'p2_tl'
I12
tp826
a(S'w'
I727
tp827
a(S'p1_tl'
I201
tp828
a(S'w'
I7
tp829
a(S'p2_tl'
I13
tp830
a(S'w'
I1461
tp831
a(S'p1_tl'
I202
tp832
a(S'w'
I7
tp833
a(S'p2_tl'
I14
tp834
a(S'w'
I727
tp835
a(S'p1_tl'
I201
tp836
a(S'w'
I7
tp837
a(S'p2_tl'
I13
tp838
a(S'w'
I727
tp839
a(S'p1_tl'
I200
tp840
a(S'w'
I7
tp841
a(S'p2_tl'
I12
tp842
a(S'w'
I726
tp843
a(S'p1_tl'
I199
tp844
a(S'w'
I7
tp845
a(S'p2_tl'
I11
tp846
a(S'w'
I1461
tp847
a(S'p1_tl'
I198
tp848
a(S'w'
I7
tp849
a(S'p2_tl'
I10
tp850
a(S'w'
I727
tp851
a(S'p1_tl'
I199
tp852
a(S'w'
I7
tp853
a(S'p2_tl'
I11
tp854
a(S'w'
I727
tp855
a(S'p1_tl'
I200
tp856
a(S'w'
I7
tp857
a(S'p2_tl'
I12
tp858
a(S'w'
I726
tp859
a(S'p1_tl'
I201
tp860
a(S'w'
I7
tp861
a(S'p2_tl'
I13
tp862
a(S'w'
I728
tp863
a(S'p1_vo'
I4
tp864
a(S'w'
I6
tp865
a(S'p2_vo'
I4
tp866
a(S'w'
I727
tp867
a(S'p1_tl'
I202
tp868
a(S'w'
I3
tp869
a(S'p1_vo'
I3
tp870
a(S'w'
I5
tp871
a(S'p2_tl'
I14
tp872
a(S'w'
I3
tp873
a(S'p2_vo'
I3
tp874
a(S'w'
I723
tp875
a(S'p1_tl'
I201
tp876
a(S'w'
I7
tp877
a(S'p2_tl'
I13
tp878
a(S'w'
I727
tp879
a(S'p1_tl'
I200
tp880
a(S'w'
I6
tp881
a(S'p2_tl'
I12
tp882
a(S'w'
I727
tp883
a(S'p1_tl'
I199
tp884
a(S'w'
I7
tp885
a(S'p2_tl'
I11
tp886
a(S'w'
I1461
tp887
a(S'p1_tl'
I198
tp888
a(S'w'
I7
tp889
a(S'p2_tl'
I10
tp890
a(S'w'
I727
tp891
a(S'p1_tl'
I199
tp892
a(S'w'
I6
tp893
a(S'p2_tl'
I11
tp894
a(S'w'
I728
tp895
a(S'p1_tl'
I200
tp896
a(S'w'
I6
tp897
a(S'p2_tl'
I12
tp898
a(S'w'
I727
tp899
a(S'p1_tl'
I201
tp900
a(S'w'
I7
tp901
a(S'p2_tl'
I13
tp902
a(S'w'
I1461
tp903
a(S'p1_tl'
I202
tp904
a(S'w'
I7
tp905
a(S'p2_tl'
I14
tp906
a(S'w'
I727
tp907
a(S'p1_tl'
I201
tp908
a(S'w'
I6
tp909
a(S'p2_tl'
I13
tp910
a(S'w'
I728
tp911
a(S'p1_tl'
I200
tp912
a(S'w'
I6
tp913
a(S'p2_tl'
I12
tp914
a(S'w'
I727
tp915
a(S'p1_tl'
I199
tp916
a(S'w'
I7
tp917
a(S'p2_tl'
I11
tp918
a(S'w'
I1461
tp919
a(S'p1_tl'
I198
tp920
a(S'w'
I7
tp921
a(S'p2_tl'
I10
tp922
a(S'w'
I727
tp923
a(S'p1_tl'
I199
tp924
a(S'w'
I7
tp925
a(S'p2_tl'
I11
tp926
a(S'w'
I727
tp927
a(S'p1_tl'
I200
tp928
a(S'w'
I6
tp929
a(S'p2_tl'
I12
tp930
a(S'w'
I1461
tp931
a(S'p1_tl'
I201
tp932
a(S'w'
I7
tp933
a(S'p2_tl'
I13
tp934
a(S'w'
I1461
tp935
a(S'p1_tl'
I200
tp936
a(S'w'
I7
tp937
a(S'p2_tl'
I12
tp938
a(S'w'
I2194
tp939
a(S'p1_tl'
I199
tp940
a(S'w'
I7
tp941
a(S'p2_tl'
I11
tp942
a(S'w'
I1461
tp943
a(S'p1_tl'
I200
tp944
a(S'w'
I7
tp945
a(S'p2_tl'
I12
tp946
a(S'w'
I2194
tp947
a(S'p1_tl'
I201
tp948
a(S'w'
I7
tp949
a(S'p2_tl'
I13
tp950
a(S'w'
I730
tp951
a(S'p1_tl'
I212
tp952
a(S'p1_ll'
I2
tp953
a(S'w'
I5
tp954
a(S'w'
I726
tp955
a(S'p1_vo'
I4
tp956
a(S'w'
I6
tp957
a(S'p2_tl'
I12
tp958
a(S'w'
I1462
tp959
a(S'p1_vo'
I5
tp960
a(S'w'
I738
tp961
a(S'p2_tl'
I11
tp962
a(S'w'
I1463
tp963
a(S'p1_vo'
I6
tp964
a(S'w'
I6
tp965
a(S'p2_tl'
I12
tp966
a(S'w'
I728
tp967
a(S'w'
I1472
tp968
a(S'p2_tl'
I13
tp969
a(S'w'
I730
tp970
a(S'p1_vo'
I7
tp971
a(S'w'
I5
tp972
a(S'p2_tl'
I12
tp973
a(S'w'
I2195
tp974
a(S'p1_tl'
I213
tp975
a(S'w'
I734
tp976
a(S'p1_tl'
I212
tp977
a(S'w'
I3
tp978
a(S'p1_vo'
I8
tp979
a(S'w'
I5
tp980
a(S'p2_tl'
I11
tp981
a(S'w'
I731
tp982
a(S'p2_tl'
I12
tp983
a(S'w'
I1463
tp984
a(S'p1_tl'
I213
tp985
a(S'w'
I733
tp986
a(S'p1_tl'
I212
tp987
a(S'w'
I739
tp988
a(S'p2_tl'
I13
tp989
a(S'w'
I729
tp990
a(S'p1_tl'
I211
tp991
a(S'w'
I7
tp992
a(S'p2_tl'
I12
tp993
a(S'w'
I727
tp994
a(S'p1_tl'
I212
tp995
a(S'w'
I2202
tp996
a(S'p1_vo'
I7
tp997
a(S'w'
I5
tp998
a(S'p2_tl'
I11
tp999
a(S'w'
I728
tp1000
a(S'p1_tl'
I213
tp1001
a(S'w'
I7
tp1002
a(S'p2_tl'
I12
tp1003
a(S'w'
I1461
tp1004
a(S'p1_tl'
I212
tp1005
a(S'w'
I1472
tp1006
a(S'p2_tl'
I13
tp1007
a(S'w'
I734
tp1008
a(S'p2_tl'
I12
tp1009
a(S'w'
I729
tp1010
a(S'p1_tl'
I211
tp1011
a(S'w'
I1467
tp1012
a(S'p1_tl'
I213
tp1013
a(S'w'
I735
tp1014
a(S'p1_vo'
I6
tp1015
a(S'w'
I5
tp1016
a(S'p2_tl'
I11
tp1017
a(S'w'
I728
tp1018
a(S'p1_tl'
I214
tp1019
a(S'w'
I7
tp1020
a(S'p2_tl'
I12
tp1021
a(S'w'
I727
tp1022
a(S'p1_tl'
I213
tp1023
a(S'w'
I734
tp1024
a(S'p1_tl'
I212
tp1025
a(S'w'
I733
tp1026
a(S'p1_tl'
I211
tp1027
a(S'w'
I739
tp1028
a(S'p2_tl'
I13
tp1029
a(S'w'
I729
tp1030
a(S'p1_tl'
I210
tp1031
a(S'w'
I7
tp1032
a(S'p2_tl'
I12
tp1033
a(S'w'
I727
tp1034
a(S'p1_tl'
I211
tp1035
a(S'w'
I735
tp1036
a(S'p1_tl'
I238
tp1037
a(S'p1_ll'
I2
tp1038
a(S'w'
I5
tp1039
a(S'w'
I3
tp1040
a(S'p1_vo'
I3
tp1041
a(S'w'
I725
tp1042
a(S'p1_vo'
I4
tp1043
a(S'w'
I738
tp1044
a(S'p2_tl'
I11
tp1045
a(S'w'
I730
tp1046
a(S'p1_vo'
I5
tp1047
a(S'w'
I5
tp1048
a(S'p2_tl'
I12
tp1049
a(S'w'
I2196
tp1050
a(S'p1_vo'
I6
tp1051
a(S'w'
I733
tp1052
a(S'w'
I7
tp1053
a(S'p2_tl'
I13
tp1054
a(S'w'
I732
tp1055
a(S'p2_tl'
I12
tp1056
a(S'w'
I1463
tp1057
a(S'p1_vo'
I7
tp1058
a(S'w'
I1472
tp1059
a(S'p2_tl'
I11
tp1060
a(S'w'
I729
tp1061
a(S'p1_tl'
I239
tp1062
a(S'w'
I7
tp1063
a(S'p2_tl'
I12
tp1064
a(S'w'
I727
tp1065
a(S'p1_tl'
I238
tp1066
a(S'w'
I3
tp1067
a(S'p1_vo'
I8
tp1068
a(S'w'
I2198
tp1069
a(S'p1_tl'
I239
tp1070
a(S'w'
I7
tp1071
a(S'p2_tl'
I13
tp1072
a(S'w'
I727
tp1073
a(S'p1_tl'
I238
tp1074
a(S'w'
I7
tp1075
a(S'p2_tl'
I12
tp1076
a(S'w'
I1461
tp1077
a(S'p1_tl'
I237
tp1078
a(S'w'
I733
tp1079
a(S'p1_tl'
I238
tp1080
a(S'w'
I739
tp1081
a(S'p2_tl'
I11
tp1082
a(S'w'
I734
tp1083
a(S'p2_tl'
I12
tp1084
a(S'w'
I730
tp1085
a(S'p1_vo'
I7
tp1086
a(S'w'
I733
tp1087
a(S'p1_tl'
I239
tp1088
a(S'w'
I1467
tp1089
a(S'p1_tl'
I238
tp1090
a(S'w'
I7
tp1091
a(S'p2_tl'
I13
tp1092
a(S'w'
I732
tp1093
a(S'p2_tl'
I12
tp1094
a(S'w'
I2196
tp1095
a(S'p1_tl'
I237
tp1096
a(S'w'
I739
tp1097
a(S'p2_tl'
I11
tp1098
a(S'w'
I729
tp1099
a(S'p1_tl'
I239
tp1100
a(S'w'
I7
tp1101
a(S'p2_tl'
I12
tp1102
a(S'w'
I728
tp1103
a(S'p1_vo'
I6
tp1104
a(S'w'
I733
tp1105
a(S'p1_tl'
I240
tp1106
a(S'w'
I733
tp1107
a(S'p1_tl'
I239
tp1108
a(S'w'
I734
tp1109
a(S'p1_tl'
I238
tp1110
a(S'w'
I7
tp1111
a(S'p2_tl'
I13
tp1112
a(S'w'
I727
tp1113
a(S'p1_tl'
I237
tp1114
a(S'w'
I7
tp1115
a(S'p2_tl'
I12
tp1116
a(S'w'
I1461
tp1117
a(S'p1_tl'
I236
tp1118
a(S'w'
I733
tp1119
a(S'p1_tl'
I237
tp1120
a(S'w'
I734
tp1121
a(S'p1_tl'
I238
tp1122
a(S'w'
I7
tp1123
a(S'p2_tl'
I11
tp1124
a(S'w'
I730
tp1125
a(S'p1_tl'
I212
tp1126
a(S'p1_ll'
I2
tp1127
a(S'w'
I5
tp1128
a(S'w'
I3
tp1129
a(S'p1_vo'
I3
tp1130
a(S'w'
I7
tp1131
a(S'p2_tl'
I12
tp1132
a(S'p2_ll'
I2
tp1133
a(S'w'
I5
tp1134
a(S'w'
I712
tp1135
a(S'p1_vo'
I4
tp1136
a(S'w'
I5
tp1137
a(S'p2_vo'
I4
tp1138
a(S'w'
I1462
tp1139
a(S'p1_vo'
I5
tp1140
a(S'w'
I6
tp1141
a(S'p2_vo'
I5
tp1142
a(S'w'
I2196
tp1143
a(S'p1_vo'
I6
tp1144
a(S'w'
I5
tp1145
a(S'p2_vo'
I6
tp1146
a(S'w'
I728
tp1147
a(S'w'
I7
tp1148
a(S'w'
I2195
tp1149
a(S'p1_vo'
I7
tp1150
a(S'w'
I6
tp1151
a(S'p2_vo'
I7
tp1152
a(S'w'
I2195
tp1153
a(S'p1_tl'
I213
tp1154
a(S'w'
I7
tp1155
a(S'p2_tl'
I13
tp1156
a(S'w'
I726
tp1157
a(S'p1_tl'
I212
tp1158
a(S'w'
I3
tp1159
a(S'p1_vo'
I8
tp1160
a(S'w'
I6
tp1161
a(S'p2_tl'
I12
tp1162
a(S'w'
I2
tp1163
a(S'p2_vo'
I8
tp1164
a(S'w'
I2191
tp1165
a(S'p1_tl'
I213
tp1166
a(S'w'
I7
tp1167
a(S'p2_tl'
I13
tp1168
a(S'w'
I727
tp1169
a(S'p1_tl'
I212
tp1170
a(S'w'
I6
tp1171
a(S'p2_tl'
I12
tp1172
a(S'w'
I1461
tp1173
a(S'p1_tl'
I211
tp1174
a(S'w'
I7
tp1175
a(S'p2_tl'
I11
tp1176
a(S'w'
I727
tp1177
a(S'p1_tl'
I212
tp1178
a(S'w'
I7
tp1179
a(S'p2_tl'
I12
tp1180
a(S'w'
I2195
tp1181
a(S'p1_vo'
I7
tp1182
a(S'w'
I6
tp1183
a(S'p2_vo'
I7
tp1184
a(S'w'
I727
tp1185
a(S'p1_tl'
I213
tp1186
a(S'w'
I7
tp1187
a(S'p2_tl'
I13
tp1188
a(S'w'
I1461
tp1189
a(S'p1_tl'
I212
tp1190
a(S'w'
I7
tp1191
a(S'p2_tl'
I12
tp1192
a(S'w'
I2928
tp1193
a(S'p1_tl'
I211
tp1194
a(S'w'
I7
tp1195
a(S'p2_tl'
I11
tp1196
a(S'w'
I1461
tp1197
a(S'p1_tl'
I213
tp1198
a(S'w'
I7
tp1199
a(S'p2_tl'
I13
tp1200
a(S'w'
I727
tp1201
a(S'p1_vo'
I6
tp1202
a(S'w'
I6
tp1203
a(S'p2_vo'
I6
tp1204
a(S'w'
I727
tp1205
a(S'p1_tl'
I214
tp1206
a(S'w'
I7
tp1207
a(S'p2_tl'
I14
tp1208
a(S'w'
I727
tp1209
a(S'p1_tl'
I213
tp1210
a(S'w'
I7
tp1211
a(S'p2_tl'
I13
tp1212
a(S'w'
I727
tp1213
a(S'p1_tl'
I212
tp1214
a(S'w'
I7
tp1215
a(S'p2_tl'
I12
tp1216
a(S'w'
I727
tp1217
a(S'p1_tl'
I211
tp1218
a(S'w'
I7
tp1219
a(S'p2_tl'
I11
tp1220
a(S'w'
I1460
tp1221
a(S'p1_tl'
I210
tp1222
a(S'w'
I7
tp1223
a(S'p2_tl'
I10
tp1224
a(S'w'
I727
tp1225
a(S'p1_tl'
I211
tp1226
a(S'w'
I7
tp1227
a(S'p2_tl'
I11
tp1228
a(S'w'
I727
tp1229
a(S'p1_tl'
I212
tp1230
a(S'w'
I7
tp1231
a(S'p2_tl'
I12
tp1232
a(S'w'
I727
tp1233
a(S'p1_tl'
I213
tp1234
a(S'w'
I7
tp1235
a(S'p2_tl'
I13
tp1236
a(S'w'
I1460
tp1237
a(S'p1_tl'
I214
tp1238
a(S'w'
I7
tp1239
a(S'p2_tl'
I14
tp1240
a(S'w'
I727
tp1241
a(S'p1_tl'
I213
tp1242
a(S'w'
I7
tp1243
a(S'p2_tl'
I13
tp1244
a(S'w'
I727
tp1245
a(S'p1_tl'
I212
tp1246
a(S'w'
I7
tp1247
a(S'p2_tl'
I12
tp1248
a(S'w'
I727
tp1249
a(S'p1_tl'
I211
tp1250
a(S'w'
I7
tp1251
a(S'p2_tl'
I11
tp1252
a(S'w'
I1460
tp1253
a(S'p1_tl'
I210
tp1254
a(S'w'
I7
tp1255
a(S'p2_tl'
I10
tp1256
a(S'w'
I727
tp1257
a(S'p1_tl'
I211
tp1258
a(S'w'
I7
tp1259
a(S'p2_tl'
I11
tp1260
a(S'w'
I727
tp1261
a(S'p1_tl'
I212
tp1262
a(S'w'
I7
tp1263
a(S'p2_tl'
I12
tp1264
a(S'w'
I727
tp1265
a(S'p1_tl'
I213
tp1266
a(S'w'
I7
tp1267
a(S'p2_tl'
I13
tp1268
a(S'w'
I727
tp1269
a(S'p1_vo'
I4
tp1270
a(S'w'
I6
tp1271
a(S'p2_vo'
I4
tp1272
a(S'w'
I727
tp1273
a(S'p1_tl'
I214
tp1274
a(S'w'
I3
tp1275
a(S'p1_vo'
I3
tp1276
a(S'w'
I5
tp1277
a(S'p2_tl'
I14
tp1278
a(S'w'
I3
tp1279
a(S'p2_vo'
I3
tp1280
a(S'w'
I723
tp1281
a(S'p1_tl'
I213
tp1282
a(S'w'
I7
tp1283
a(S'p2_tl'
I13
tp1284
a(S'w'
I727
tp1285
a(S'p1_tl'
I212
tp1286
a(S'w'
I7
tp1287
a(S'p2_tl'
I12
tp1288
a(S'w'
I727
tp1289
a(S'p1_tl'
I211
tp1290
a(S'w'
I6
tp1291
a(S'p2_tl'
I11
tp1292
a(S'w'
I1461
tp1293
a(S'p1_tl'
I210
tp1294
a(S'w'
I7
tp1295
a(S'p2_tl'
I10
tp1296
a(S'w'
I727
tp1297
a(S'p1_tl'
I211
tp1298
a(S'w'
I7
tp1299
a(S'p2_tl'
I11
tp1300
a(S'w'
I727
tp1301
a(S'p1_tl'
I212
tp1302
a(S'w'
I7
tp1303
a(S'p2_tl'
I12
tp1304
a(S'w'
I727
tp1305
a(S'p1_tl'
I213
tp1306
a(S'w'
I6
tp1307
a(S'p2_tl'
I13
tp1308
a(S'w'
I1461
tp1309
a(S'p1_tl'
I214
tp1310
a(S'w'
I7
tp1311
a(S'p2_tl'
I14
tp1312
a(S'w'
I727
tp1313
a(S'p1_tl'
I213
tp1314
a(S'w'
I7
tp1315
a(S'p2_tl'
I13
tp1316
a(S'w'
I727
tp1317
a(S'p1_tl'
I212
tp1318
a(S'w'
I7
tp1319
a(S'p2_tl'
I12
tp1320
a(S'w'
I727
tp1321
a(S'p1_tl'
I211
tp1322
a(S'w'
I6
tp1323
a(S'p2_tl'
I11
tp1324
a(S'w'
I1461
tp1325
a(S'p1_tl'
I210
tp1326
a(S'w'
I7
tp1327
a(S'p2_tl'
I10
tp1328
a(S'w'
I727
tp1329
a(S'p1_tl'
I211
tp1330
a(S'w'
I7
tp1331
a(S'p2_tl'
I11
tp1332
a(S'w'
I727
tp1333
a(S'p1_tl'
I212
tp1334
a(S'w'
I7
tp1335
a(S'p2_tl'
I12
tp1336
a(S'w'
I1460
tp1337
a(S'p1_tl'
I213
tp1338
a(S'w'
I7
tp1339
a(S'p2_tl'
I13
tp1340
a(S'w'
I1461
tp1341
a(S'p1_tl'
I212
tp1342
a(S'w'
I7
tp1343
a(S'p2_tl'
I12
tp1344
a(S'w'
I2194
tp1345
a(S'p1_tl'
I211
tp1346
a(S'w'
I7
tp1347
a(S'p2_tl'
I11
tp1348
a(S'w'
I1461
tp1349
a(S'p1_tl'
I212
tp1350
a(S'w'
I7
tp1351
a(S'p2_tl'
I12
tp1352
a(S'w'
I2194
tp1353
a(S'p1_tl'
I213
tp1354
a(S'w'
I7
tp1355
a(S'p2_tl'
I13
tp1356
a(S'w'
I1461
tp1357
a(S'p1_tl'
I212
tp1358
a(S'w'
I7
tp1359
a(S'p2_tl'
I12
tp1360
a(S'w'
I2194
tp1361
a(S'p1_tl'
I211
tp1362
a(S'w'
I7
tp1363
a(S'p2_tl'
I11
tp1364
a(S'w'
I1461
tp1365
a(S'p1_tl'
I212
tp1366
a(S'w'
I7
tp1367
a(S'p2_tl'
I12
tp1368
a(S'w'
I2194
tp1369
a(S'p1_tl'
I213
tp1370
a(S'w'
I7
tp1371
a(S'p2_tl'
I13
tp1372
a(S'w'
I727
tp1373
a(S'p1_tl'
I212
tp1374
a(S'w'
I7
tp1375
a(S'p2_tl'
I12
tp1376
a(S'w'
I2928
tp1377
a(S'p1_tl'
I211
tp1378
a(S'w'
I7
tp1379
a(S'p2_tl'
I11
tp1380
a(S'w'
I727
tp1381
a(S'p1_tl'
I212
tp1382
a(S'w'
I7
tp1383
a(S'p2_tl'
I12
tp1384
a(S'w'
I2928
tp1385
a(S'p1_tl'
I213
tp1386
a(S'w'
I7
tp1387
a(S'p2_tl'
I13
tp1388
a(S'w'
I727
tp1389
a(S'p1_tl'
I212
tp1390
a(S'w'
I7
tp1391
a(S'p2_tl'
I12
tp1392
a(S'w'
I2928
tp1393
a(S'p1_tl'
I211
tp1394
a(S'w'
I7
tp1395
a(S'p2_tl'
I11
tp1396
a(S'w'
I727
tp1397
a(S'p1_tl'
I212
tp1398
a(S'w'
I7
tp1399
a(S'p2_tl'
I12
tp1400
a(S'w'
I2928
tp1401
a(S'p1_tl'
I213
tp1402
a(S'w'
I7
tp1403
a(S'p2_tl'
I13
tp1404
a(S'w'
I727
tp1405
a(S'p1_tl'
I212
tp1406
a(S'w'
I7
tp1407
a(S'p2_tl'
I12
tp1408
a(S'w'
I2928
tp1409
a(S'p1_tl'
I211
tp1410
a(S'w'
I7
tp1411
a(S'p2_tl'
I11
tp1412
a(S'w'
I727
tp1413
a(S'p1_tl'
I212
tp1414
a(S'w'
I7
tp1415
a(S'p2_tl'
I12
tp1416
a(S'w'
I2928
tp1417
a(S'p1_tl'
I213
tp1418
a(S'w'
I7
tp1419
a(S'p2_tl'
I13
tp1420
a(S'w'
I727
tp1421
a(S'p1_tl'
I212
tp1422
a(S'w'
I7
tp1423
a(S'p2_tl'
I12
tp1424
a(S'w'
I2928
tp1425
a(S'p1_tl'
I211
tp1426
a(S'w'
I7
tp1427
a(S'p2_tl'
I11
tp1428
a(S'w'
I727
tp1429
a(S'p1_tl'
I212
tp1430
a(S'w'
I7
tp1431
a(S'p2_tl'
I12
tp1432
a(S'w'
I2928
tp1433
a(S'p1_tl'
I213
tp1434
a(S'w'
I7
tp1435
a(S'p2_tl'
I13
tp1436
a(S'w'
I727
tp1437
a(S'p1_tl'
I212
tp1438
a(S'w'
I7
tp1439
a(S'p2_tl'
I12
tp1440
a(S'w'
I2929
tp1441
a(S'p1_tl'
I211
tp1442
a(S'w'
I6
tp1443
a(S'p2_tl'
I11
tp1444
a(S'w'
I727
tp1445
a(S'p1_tl'
I212
tp1446
a(S'w'
I7
tp1447
a(S'p2_tl'
I12
tp1448
a(S'w'
I2929
tp1449
a(S'p1_tl'
I213
tp1450
a(S'w'
I6
tp1451
a(S'p2_tl'
I13
tp1452
a(S'w'
I727
tp1453
a(S'p1_tl'
I212
tp1454
a(S'w'
I7
tp1455
a(S'p2_tl'
I12
tp1456
a(S'w'
I2929
tp1457
a(S'p1_tl'
I211
tp1458
a(S'w'
I6
tp1459
a(S'p2_tl'
I11
tp1460
a(S'w'
I727
tp1461
a(S'p1_tl'
I212
tp1462
a(S'w'
I7
tp1463
a(S'p2_tl'
I12
tp1464
a(S'w'
I2929
tp1465
a(S'p1_tl'
I213
tp1466
a(S'w'
I6
tp1467
a(S'p2_tl'
I13
tp1468
a(S'w'
I727
tp1469
a(S'p1_tl'
I212
tp1470
a(S'w'
I7
tp1471
a(S'p2_tl'
I12
tp1472
a(S'w'
I2929
tp1473
a(S'p1_tl'
I211
tp1474
a(S'w'
I6
tp1475
a(S'p2_tl'
I11
tp1476
a(S'w'
I727
tp1477
a(S'p1_tl'
I212
tp1478
a(S'w'
I7
tp1479
a(S'p2_tl'
I12
tp1480
a(S'w'
I2929
tp1481
a(S'p1_tl'
I213
tp1482
a(S'w'
I6
tp1483
a(S'p2_tl'
I13
tp1484
a(S'w'
I727
tp1485
a(S'p1_tl'
I212
tp1486
a(S'w'
I7
tp1487
a(S'p2_tl'
I12
tp1488
a(S'w'
I2929
tp1489
a(S'p1_tl'
I211
tp1490
a(S'w'
I6
tp1491
a(S'p2_tl'
I11
tp1492
a(S'w'
I727
tp1493
a(S'p1_tl'
I212
tp1494
a(S'w'
I7
tp1495
a(S'p2_tl'
I12
tp1496
a(S'w'
I730
tp1497
a(S'p1_du'
I0
tp1498
a(S'p1_lh'
I0
tp1499
a(S'p1_vo'
I0
tp1500
a(S'w'
I9
tp1501
a(S'p2_tl'
I26
tp1502
a(S'p2_ll'
I2
tp1503
a(S'p2_th'
I2
tp1504
a(S'w'
I5
tp1505
a(S'w'
I3
tp1506
a(S'w'
I718
tp1507
a(S'p2_vo'
I4
tp1508
a(S'w'
I1467
tp1509
a(S'p2_vo'
I5
tp1510
a(S'w'
I2202
tp1511
a(S'p2_vo'
I6
tp1512
a(S'w'
I733
tp1513
a(S'w'
I2202
tp1514
a(S'p2_vo'
I7
tp1515
a(S'w'
I2201
tp1516
a(S'p2_tl'
I27
tp1517
a(S'w'
I733
tp1518
a(S'p2_tl'
I26
tp1519
a(S'w'
I3
tp1520
a(S'p2_vo'
I8
tp1521
a(S'w'
I2199
tp1522
a(S'p2_tl'
I27
tp1523
a(S'w'
I734
tp1524
a(S'p2_tl'
I26
tp1525
a(S'w'
I1467
tp1526
a(S'p2_tl'
I25
tp1527
a(S'w'
I734
tp1528
a(S'p2_tl'
I26
tp1529
a(S'w'
I2202
tp1530
a(S'p2_vo'
I7
tp1531
a(S'w'
I733
tp1532
a(S'p2_tl'
I27
tp1533
a(S'w'
I1468
tp1534
a(S'p2_tl'
I26
tp1535
a(S'w'
I2935
tp1536
a(S'p2_tl'
I25
tp1537
a(S'w'
I1468
tp1538
a(S'p2_tl'
I27
tp1539
a(S'w'
I734
tp1540
a(S'p2_vo'
I6
tp1541
a(S'w'
I731
tp1542
a(S'w'
I1
tp1543
a(S'p1_tl'
I103
tp1544
a(S'p1_ll'
I2
tp1545
a(S'p1_th'
I1
tp1546
a(S'w'
I5
tp1547
a(S'w'
I3
tp1548
a(S'p1_du'
I3
tp1549
a(S'p1_lh'
I1
tp1550
a(S'p1_vo'
I3
tp1551
a(S'w'
I5
tp1552
a(S'p2_tl'
I28
tp1553
a(S'w'
I720
tp1554
a(S'p1_vo'
I4
tp1555
a(S'w'
I5
tp1556
a(S'p2_tl'
I27
tp1557
a(S'w'
I732
tp1558
a(S'p2_tl'
I26
tp1559
a(S'w'
I730
tp1560
a(S'p1_vo'
I5
tp1561
a(S'w'
I5
tp1562
a(S'p2_tl'
I25
tp1563
a(S'w'
I1467
tp1564
a(S'p2_tl'
I24
tp1565
a(S'w'
I730
tp1566
a(S'p1_vo'
I6
tp1567
a(S'w'
I5
tp1568
a(S'p2_tl'
I25
tp1569
a(S'w'
I728
tp1570
a(S'w'
I7
tp1571
a(S'p2_tl'
I26
tp1572
a(S'w'
I731
tp1573
a(S'p2_tl'
I27
tp1574
a(S'w'
I1464
tp1575
a(S'p1_vo'
I7
tp1576
a(S'w'
I5
tp1577
a(S'p2_tl'
I28
tp1578
a(S'w'
I733
tp1579
a(S'p2_tl'
I27
tp1580
a(S'w'
I733
tp1581
a(S'p2_tl'
I26
tp1582
a(S'w'
I730
tp1583
a(S'p1_tl'
I104
tp1584
a(S'w'
I7
tp1585
a(S'p2_tl'
I25
tp1586
a(S'w'
I726
tp1587
a(S'p1_tl'
I103
tp1588
a(S'w'
I3
tp1589
a(S'p1_vo'
I8
tp1590
a(S'w'
I736
tp1591
a(S'p2_tl'
I24
tp1592
a(S'w'
I734
tp1593
a(S'p2_tl'
I25
tp1594
a(S'w'
I729
tp1595
a(S'p1_tl'
I104
tp1596
a(S'w'
I7
tp1597
a(S'p2_tl'
I26
tp1598
a(S'w'
I727
tp1599
a(S'p1_tl'
I103
tp1600
a(S'w'
I7
tp1601
a(S'p2_tl'
I27
tp1602
a(S'w'
I732
tp1603
a(S'p2_vo'
I4
tp1604
a(S'w'
I728
tp1605
a(S'p1_tl'
I102
tp1606
a(S'w'
I7
tp1607
a(S'p2_tl'
I28
tp1608
a(S'w'
I3
tp1609
a(S'p2_vo'
I3
tp1610
a(S'w'
I724
tp1611
a(S'p1_tl'
I103
tp1612
a(S'w'
I7
tp1613
a(S'p2_tl'
I27
tp1614
a(S'w'
I731
tp1615
a(S'p2_tl'
I26
tp1616
a(S'w'
I734
tp1617
a(S'p2_tl'
I25
tp1618
a(S'w'
I730
tp1619
a(S'p1_vo'
I7
tp1620
a(S'w'
I733
tp1621
a(S'p1_tl'
I104
tp1622
a(S'w'
I7
tp1623
a(S'p2_tl'
I24
tp1624
a(S'w'
I732
tp1625
a(S'p2_tl'
I25
tp1626
a(S'w'
I729
tp1627
a(S'p1_tl'
I103
tp1628
a(S'w'
I7
tp1629
a(S'p2_tl'
I26
tp1630
a(S'w'
I731
tp1631
a(S'p2_tl'
I27
tp1632
a(S'w'
I1468
tp1633
a(S'p2_tl'
I28
tp1634
a(S'w'
I729
tp1635
a(S'p1_tl'
I102
tp1636
a(S'w'
I7
tp1637
a(S'p2_tl'
I27
tp1638
a(S'w'
I731
tp1639
a(S'p2_tl'
I26
tp1640
a(S'w'
I730
tp1641
a(S'p1_tl'
I104
tp1642
a(S'w'
I7
tp1643
a(S'p2_tl'
I25
tp1644
a(S'w'
I727
tp1645
a(S'p1_vo'
I6
tp1646
a(S'w'
I735
tp1647
a(S'p1_tl'
I12
tp1648
a(S'p1_ll'
I2
tp1649
a(S'w'
I5
tp1650
a(S'w'
I3
tp1651
a(S'p1_vo'
I3
tp1652
a(S'w'
I5
tp1653
a(S'p2_tl'
I24
tp1654
a(S'w'
I720
tp1655
a(S'p1_vo'
I4
tp1656
a(S'w'
I5
tp1657
a(S'p2_tl'
I25
tp1658
a(S'w'
I732
tp1659
a(S'p2_tl'
I26
tp1660
a(S'w'
I730
tp1661
a(S'p1_vo'
I5
tp1662
a(S'w'
I738
tp1663
a(S'p2_tl'
I27
tp1664
a(S'w'
I1464
tp1665
a(S'p1_vo'
I6
tp1666
a(S'w'
I5
tp1667
a(S'p2_tl'
I26
tp1668
a(S'w'
I728
tp1669
a(S'w'
I1472
tp1670
a(S'p2_tl'
I25
tp1671
a(S'w'
I730
tp1672
a(S'p1_vo'
I7
tp1673
a(S'w'
I738
tp1674
a(S'p2_tl'
I26
tp1675
a(S'w'
I1463
tp1676
a(S'p1_tl'
I13
tp1677
a(S'w'
I733
tp1678
a(S'p1_tl'
I12
tp1679
a(S'w'
I4
tp1680
a(S'p1_vo'
I8
tp1681
a(S'w'
I5
tp1682
a(S'p2_tl'
I27
tp1683
a(S'w'
I1464
tp1684
a(S'p2_tl'
I26
tp1685
a(S'w'
I729
tp1686
a(S'p1_tl'
I13
tp1687
a(S'w'
I734
tp1688
a(S'p1_tl'
I12
tp1689
a(S'w'
I738
tp1690
a(S'p2_tl'
I25
tp1691
a(S'w'
I729
tp1692
a(S'p1_tl'
I11
tp1693
a(S'w'
I734
tp1694
a(S'p1_tl'
I12
tp1695
a(S'w'
I7
tp1696
a(S'p2_tl'
I26
tp1697
a(S'w'
I2195
tp1698
a(S'p1_vo'
I7
tp1699
a(S'w'
I5
tp1700
a(S'p2_tl'
I27
tp1701
a(S'w'
I728
tp1702
a(S'p1_tl'
I13
tp1703
a(S'w'
I7
tp1704
a(S'p2_tl'
I26
tp1705
a(S'w'
I1461
tp1706
a(S'p1_tl'
I12
tp1707
a(S'w'
I1472
tp1708
a(S'p2_tl'
I25
tp1709
a(S'w'
I734
tp1710
a(S'p2_tl'
I26
tp1711
a(S'w'
I729
tp1712
a(S'p1_tl'
I11
tp1713
a(S'w'
I1468
tp1714
a(S'p1_tl'
I13
tp1715
a(S'w'
I734
tp1716
a(S'p1_vo'
I6
tp1717
a(S'w'
I5
tp1718
a(S'p2_tl'
I27
tp1719
a(S'w'
I730
tp1720
a(S'p1_tl'
I103
tp1721
a(S'p1_ll'
I2
tp1722
a(S'w'
I5
tp1723
a(S'w'
I3
tp1724
a(S'p1_vo'
I3
tp1725
a(S'w'
I5
tp1726
a(S'p2_tl'
I26
tp1727
a(S'w'
I720
tp1728
a(S'p1_vo'
I4
tp1729
a(S'w'
I1467
tp1730
a(S'p1_vo'
I5
tp1731
a(S'w'
I738
tp1732
a(S'p2_tl'
I25
tp1733
a(S'w'
I734
tp1734
a(S'p2_tl'
I26
tp1735
a(S'w'
I730
tp1736
a(S'p1_vo'
I6
tp1737
a(S'w'
I733
tp1738
a(S'w'
I1472
tp1739
a(S'p2_tl'
I27
tp1740
a(S'w'
I730
tp1741
a(S'p1_vo'
I7
tp1742
a(S'w'
I5
tp1743
a(S'p2_tl'
I26
tp1744
a(S'w'
I2196
tp1745
a(S'p1_tl'
I104
tp1746
a(S'w'
I733
tp1747
a(S'p1_tl'
I103
tp1748
a(S'w'
I4
tp1749
a(S'p1_vo'
I8
tp1750
a(S'w'
I5
tp1751
a(S'p2_tl'
I25
tp1752
a(S'w'
I730
tp1753
a(S'p2_tl'
I26
tp1754
a(S'w'
I1463
tp1755
a(S'p1_tl'
I104
tp1756
a(S'w'
I734
tp1757
a(S'p1_tl'
I103
tp1758
a(S'w'
I738
tp1759
a(S'p2_tl'
I27
tp1760
a(S'w'
I729
tp1761
a(S'p1_tl'
I102
tp1762
a(S'w'
I7
tp1763
a(S'p2_tl'
I26
tp1764
a(S'w'
I727
tp1765
a(S'p1_tl'
I103
tp1766
a(S'w'
I2202
tp1767
a(S'p1_vo'
I7
tp1768
a(S'w'
I5
tp1769
a(S'p2_tl'
I25
tp1770
a(S'w'
I728
tp1771
a(S'p1_tl'
I104
tp1772
a(S'w'
I7
tp1773
a(S'p2_tl'
I26
tp1774
a(S'w'
I1461
tp1775
a(S'p1_tl'
I103
tp1776
a(S'w'
I1472
tp1777
a(S'p2_tl'
I27
tp1778
a(S'w'
I734
tp1779
a(S'p2_tl'
I26
tp1780
a(S'w'
I729
tp1781
a(S'p1_tl'
I102
tp1782
a(S'w'
I1468
tp1783
a(S'p1_tl'
I104
tp1784
a(S'w'
I735
tp1785
a(S'p1_du'
I0
tp1786
a(S'p1_lh'
I0
tp1787
a(S'p1_vo'
I0
tp1788
a(S'w'
I7
tp1789
a.