(lp1
(S'clock'
p2
I1789772
tp3
a(S'p1_cv'
I1
tp4
a(S'p2_cv'
I1
tp5
a(S'no_cv'
I1
tp6
a(S'no_ll'
I0
tp7
a(S'ch_no'
I1
tp8
a(S'ch_tr'
I1
tp9
a(S'ch_p2'
I1
tp10
a(S'ch_p1'
I1
tp11
a(S'fc_mo'
I1
tp12
a(S'tr_ll'
I3
tp13
a(S'w'
I743
tp14
a(S'p1_tl'
I171
tp15
a(S'p1_ll'
I4
tp16
a(S'p1_th'
I1
tp17
a(S'w'
I5
tp18
a(S'w'
I3
tp19
a(S'p1_du'
I2
tp20
a(S'p1_lh'
I1
tp21
a(S'p1_vo'
I3
tp22
a(S'w'
I13
tp23
a(S'p2_tl'
I238
tp24
a(S'p2_ll'
I4
tp25
a(S'w'
I5
tp26
a(S'w'
I3
tp27
a(S'p2_du'
I2
tp28
a(S'p2_lh'
I1
tp29
a(S'p2_vo'
I3
tp30
a(S'w'
I698
tp31
a(S'p1_vo'
I4
tp32
a(S'w'
I6
tp33
a(S'p2_vo'
I4
tp34
a(S'w'
I728
tp35
a(S'p1_vo'
I5
tp36
a(S'w'
I6
tp37
a(S'p2_vo'
I5
tp38
a(S'w'
I728
tp39
a(S'p1_vo'
I6
tp40
a(S'w'
I5
tp41
a(S'p2_vo'
I6
tp42
a(S'w'
I1462
tp43
a(S'p1_vo'
I7
tp44
a(S'w'
I6
tp45
a(S'p2_vo'
I7
tp46
a(S'w'
I728
tp47
a(S'p1_vo'
I6
tp48
a(S'w'
I6
tp49
a(S'p2_vo'
I6
tp50
a(S'w'
I727
tp51
a(S'w'
I7
tp52
a(S'w'
I3663
tp53
a(S'p1_vo'
I5
tp54
a(S'w'
I6
tp55
a(S'p2_vo'
I5
tp56
a(S'w'
I728
tp57
a(S'p1_tl'
I147
tp58
a(S'p1_ll'
I4
tp59
a(S'w'
I6
tp60
a(S'w'
I3
tp61
a(S'p1_vo'
I3
tp62
a(S'w'
I6
tp63
a(S'p2_tl'
I12
tp64
a(S'p2_ll'
I4
tp65
a(S'p2_th'
I1
tp66
a(S'w'
I5
tp67
a(S'w'
I3
tp68
a(S'p2_vo'
I3
tp69
a(S'w'
I710
tp70
a(S'p1_vo'
I4
tp71
a(S'w'
I6
tp72
a(S'p2_vo'
I4
tp73
a(S'w'
I728
tp74
a(S'p1_vo'
I5
tp75
a(S'w'
I6
tp76
a(S'p2_vo'
I5
tp77
a(S'w'
I728
tp78
a(S'p1_vo'
I6
tp79
a(S'w'
I6
tp80
a(S'p2_vo'
I6
tp81
a(S'w'
I1462
tp82
a(S'p1_vo'
I7
tp83
a(S'w'
I5
tp84
a(S'p2_vo'
I7
tp85
a(S'w'
I728
tp86
a(S'p1_vo'
I6
tp87
a(S'w'
I6
tp88
a(S'p2_vo'
I6
tp89
a(S'w'
I727
tp90
a(S'w'
I8
tp91
a(S'w'
I3662
tp92
a(S'p1_vo'
I5
tp93
a(S'w'
I6
tp94
a(S'p2_vo'
I5
tp95
a(S'w'
I727
tp96
a(S'p1_tl'
I148
tp97
a(S'w'
I3
tp98
a(S'p1_vo'
I4
tp99
a(S'w'
I6
tp100
a(S'p2_tl'
I13
tp101
a(S'w'
I3
tp102
a(S'p2_vo'
I4
tp103
a(S'w'
I723
tp104
a(S'p1_tl'
I103
tp105
a(S'p1_ll'
I4
tp106
a(S'w'
I6
tp107
a(S'w'
I3
tp108
a(S'p1_vo'
I3
tp109
a(S'w'
I6
tp110
a(S'p2_tl'
I189
tp111
a(S'w'
I1
tp112
a(S'p2_ll'
I4
tp113
a(S'p2_th'
I0
tp114
a(S'w'
I4
tp115
a(S'w'
I3
tp116
a(S'p2_vo'
I3
tp117
a(S'w'
I711
tp118
a(S'p1_vo'
I4
tp119
a(S'w'
I5
tp120
a(S'p2_vo'
I4
tp121
a(S'w'
I728
tp122
a(S'p1_vo'
I5
tp123
a(S'w'
I6
tp124
a(S'p2_vo'
I5
tp125
a(S'w'
I728
tp126
a(S'p1_vo'
I6
tp127
a(S'w'
I6
tp128
a(S'p2_vo'
I6
tp129
a(S'w'
I1462
tp130
a(S'p1_vo'
I7
tp131
a(S'w'
I6
tp132
a(S'p2_vo'
I7
tp133
a(S'w'
I728
tp134
a(S'p1_vo'
I6
tp135
a(S'w'
I5
tp136
a(S'p2_vo'
I6
tp137
a(S'w'
I728
tp138
a(S'w'
I7
tp139
a(S'w'
I3662
tp140
a(S'p1_vo'
I5
tp141
a(S'w'
I6
tp142
a(S'p2_vo'
I5
tp143
a(S'w'
I727
tp144
a(S'p1_tl'
I104
tp145
a(S'w'
I4
tp146
a(S'p1_vo'
I4
tp147
a(S'w'
I5
tp148
a(S'p2_tl'
I190
tp149
a(S'w'
I3
tp150
a(S'p2_vo'
I4
tp151
a(S'w'
I724
tp152
a(S'p1_tl'
I63
tp153
a(S'p1_ll'
I4
tp154
a(S'w'
I5
tp155
a(S'w'
I3
tp156
a(S'p1_vo'
I3
tp157
a(S'w'
I7
tp158
a(S'p2_tl'
I28
tp159
a(S'p2_ll'
I4
tp160
a(S'p2_th'
I1
tp161
a(S'w'
I5
tp162
a(S'w'
I3
tp163
a(S'p2_vo'
I3
tp164
a(S'w'
I710
tp165
a(S'p1_vo'
I4
tp166
a(S'w'
I6
tp167
a(S'p2_vo'
I4
tp168
a(S'w'
I728
tp169
a(S'p1_vo'
I5
tp170
a(S'w'
I5
tp171
a(S'p2_vo'
I5
tp172
a(S'w'
I728
tp173
a(S'p1_vo'
I6
tp174
a(S'w'
I6
tp175
a(S'p2_vo'
I6
tp176
a(S'w'
I1462
tp177
a(S'p1_vo'
I7
tp178
a(S'w'
I6
tp179
a(S'p2_vo'
I7
tp180
a(S'w'
I728
tp181
a(S'p1_vo'
I6
tp182
a(S'w'
I6
tp183
a(S'p2_vo'
I6
tp184
a(S'w'
I727
tp185
a(S'w'
I7
tp186
a(S'w'
I3663
tp187
a(S'p1_vo'
I5
tp188
a(S'w'
I5
tp189
a(S'p2_vo'
I5
tp190
a(S'w'
I737
tp191
a(S'p1_tl'
I171
tp192
a(S'p1_ll'
I4
tp193
a(S'w'
I5
tp194
a(S'w'
I3
tp195
a(S'p1_vo'
I3
tp196
a(S'w'
I14
tp197
a(S'p2_tl'
I238
tp198
a(S'w'
I1
tp199
a(S'p2_ll'
I4
tp200
a(S'p2_th'
I0
tp201
a(S'w'
I4
tp202
a(S'w'
I3
tp203
a(S'p2_vo'
I3
tp204
a(S'w'
I695
tp205
a(S'p1_vo'
I4
tp206
a(S'w'
I6
tp207
a(S'p2_vo'
I4
tp208
a(S'w'
I728
tp209
a(S'p1_vo'
I5
tp210
a(S'w'
I6
tp211
a(S'p2_vo'
I5
tp212
a(S'w'
I728
tp213
a(S'p1_vo'
I6
tp214
a(S'w'
I6
tp215
a(S'p2_vo'
I6
tp216
a(S'w'
I1461
tp217
a(S'p1_vo'
I7
tp218
a(S'w'
I6
tp219
a(S'p2_vo'
I7
tp220
a(S'w'
I728
tp221
a(S'p1_vo'
I6
tp222
a(S'w'
I6
tp223
a(S'p2_vo'
I6
tp224
a(S'w'
I727
tp225
a(S'w'
I8
tp226
a(S'w'
I3662
tp227
a(S'p1_vo'
I5
tp228
a(S'w'
I6
tp229
a(S'p2_vo'
I5
tp230
a(S'w'
I727
tp231
a(S'p1_tl'
I172
tp232
a(S'w'
I3
tp233
a(S'p1_vo'
I4
tp234
a(S'w'
I5
tp235
a(S'p2_tl'
I239
tp236
a(S'w'
I3
tp237
a(S'p2_vo'
I4
tp238
a(S'w'
I724
tp239
a(S'p1_tl'
I147
tp240
a(S'p1_ll'
I4
tp241
a(S'w'
I6
tp242
a(S'w'
I3
tp243
a(S'p1_vo'
I3
tp244
a(S'w'
I6
tp245
a(S'p2_tl'
I12
tp246
a(S'p2_ll'
I4
tp247
a(S'p2_th'
I1
tp248
a(S'w'
I5
tp249
a(S'w'
I3
tp250
a(S'p2_vo'
I3
tp251
a(S'w'
I710
tp252
a(S'p1_vo'
I4
tp253
a(S'w'
I6
tp254
a(S'p2_vo'
I4
tp255
a(S'w'
I728
tp256
a(S'p1_vo'
I5
tp257
a(S'w'
I6
tp258
a(S'p2_vo'
I5
tp259
a(S'w'
I728
tp260
a(S'p1_vo'
I6
tp261
a(S'w'
I6
tp262
a(S'p2_vo'
I6
tp263
a(S'w'
I1462
tp264
a(S'p1_vo'
I7
tp265
a(S'w'
I5
tp266
a(S'p2_vo'
I7
tp267
a(S'w'
I728
tp268
a(S'p1_vo'
I6
tp269
a(S'w'
I6
tp270
a(S'p2_vo'
I6
tp271
a(S'w'
I728
tp272
a(S'w'
I7
tp273
a(S'w'
I3662
tp274
a(S'p1_vo'
I5
tp275
a(S'w'
I6
tp276
a(S'p2_vo'
I5
tp277
a(S'w'
I727
tp278
a(S'p1_tl'
I148
tp279
a(S'w'
I4
tp280
a(S'p1_vo'
I4
tp281
a(S'w'
I5
tp282
a(S'p2_tl'
I13
tp283
a(S'w'
I3
tp284
a(S'p2_vo'
I4
tp285
a(S'w'
I723
tp286
a(S'p1_tl'
I103
tp287
a(S'w'
I1
tp288
a(S'p1_ll'
I4
tp289
a(S'w'
I5
tp290
a(S'w'
I3
tp291
a(S'p1_vo'
I3
tp292
a(S'w'
I6
tp293
a(S'p2_tl'
I189
tp294
a(S'w'
I1
tp295
a(S'p2_ll'
I4
tp296
a(S'p2_th'
I0
tp297
a(S'w'
I5
tp298
a(S'w'
I2
tp299
a(S'p2_vo'
I3
tp300
a(S'w'
I711
tp301
a(S'p1_vo'
I4
tp302
a(S'w'
I6
tp303
a(S'p2_vo'
I4
tp304
a(S'w'
I727
tp305
a(S'p1_vo'
I5
tp306
a(S'w'
I6
tp307
a(S'p2_vo'
I5
tp308
a(S'w'
I728
tp309
a(S'p1_vo'
I6
tp310
a(S'w'
I6
tp311
a(S'p2_vo'
I6
tp312
a(S'w'
I1462
tp313
a(S'p1_vo'
I7
tp314
a(S'w'
I6
tp315
a(S'p2_vo'
I7
tp316
a(S'w'
I728
tp317
a(S'p1_vo'
I6
tp318
a(S'w'
I5
tp319
a(S'p2_vo'
I6
tp320
a(S'w'
I728
tp321
a(S'w'
I7
tp322
a(S'w'
I3662
tp323
a(S'p1_vo'
I5
tp324
a(S'w'
I6
tp325
a(S'p2_vo'
I5
tp326
a(S'w'
I728
tp327
a(S'p1_tl'
I104
tp328
a(S'w'
I3
tp329
a(S'p1_vo'
I4
tp330
a(S'w'
I5
tp331
a(S'p2_tl'
I190
tp332
a(S'w'
I3
tp333
a(S'p2_vo'
I4
tp334
a(S'w'
I724
tp335
a(S'p1_tl'
I63
tp336
a(S'p1_ll'
I4
tp337
a(S'w'
I5
tp338
a(S'w'
I3
tp339
a(S'p1_vo'
I3
tp340
a(S'w'
I7
tp341
a(S'p2_tl'
I28
tp342
a(S'p2_ll'
I4
tp343
a(S'p2_th'
I1
tp344
a(S'w'
I5
tp345
a(S'w'
I3
tp346
a(S'p2_vo'
I3
tp347
a(S'w'
I710
tp348
a(S'p1_vo'
I4
tp349
a(S'w'
I6
tp350
a(S'p2_vo'
I4
tp351
a(S'w'
I728
tp352
a(S'p1_vo'
I5
tp353
a(S'w'
I6
tp354
a(S'p2_vo'
I5
tp355
a(S'w'
I727
tp356
a(S'p1_vo'
I6
tp357
a(S'w'
I6
tp358
a(S'p2_vo'
I6
tp359
a(S'w'
I1462
tp360
a(S'p1_vo'
I7
tp361
a(S'w'
I6
tp362
a(S'p2_vo'
I7
tp363
a(S'w'
I728
tp364
a(S'p1_vo'
I6
tp365
a(S'w'
I6
tp366
a(S'p2_vo'
I6
tp367
a(S'w'
I727
tp368
a(S'w'
I7
tp369
a(S'w'
I3663
tp370
a(S'p1_vo'
I5
tp371
a(S'w'
I6
tp372
a(S'p2_vo'
I5
tp373
a(S'w'
I736
tp374
a(S'p1_tl'
I171
tp375
a(S'p1_ll'
I4
tp376
a(S'w'
I5
tp377
a(S'w'
I3
tp378
a(S'p1_vo'
I3
tp379
a(S'w'
I14
tp380
a(S'p2_tl'
I238
tp381
a(S'w'
I1
tp382
a(S'p2_ll'
I4
tp383
a(S'p2_th'
I0
tp384
a(S'w'
I4
tp385
a(S'w'
I3
tp386
a(S'p2_vo'
I3
tp387
a(S'w'
I695
tp388
a(S'p1_vo'
I4
tp389
a(S'w'
I6
tp390
a(S'p2_vo'
I4
tp391
a(S'w'
I728
tp392
a(S'p1_vo'
I5
tp393
a(S'w'
I6
tp394
a(S'p2_vo'
I5
tp395
a(S'w'
I728
tp396
a(S'p1_vo'
I6
tp397
a(S'w'
I6
tp398
a(S'p2_vo'
I6
tp399
a(S'w'
I1462
tp400
a(S'p1_vo'
I7
tp401
a(S'w'
I5
tp402
a(S'p2_vo'
I7
tp403
a(S'w'
I728
tp404
a(S'p1_vo'
I6
tp405
a(S'w'
I6
tp406
a(S'p2_vo'
I6
tp407
a(S'w'
I727
tp408
a(S'w'
I8
tp409
a(S'w'
I3662
tp410
a(S'p1_vo'
I5
tp411
a(S'w'
I6
tp412
a(S'p2_vo'
I5
tp413
a(S'w'
I727
tp414
a(S'p1_tl'
I172
tp415
a(S'w'
I3
tp416
a(S'p1_vo'
I4
tp417
a(S'w'
I6
tp418
a(S'p2_tl'
I239
tp419
a(S'w'
I3
tp420
a(S'p2_vo'
I4
tp421
a(S'w'
I723
tp422
a(S'p1_tl'
I147
tp423
a(S'p1_ll'
I4
tp424
a(S'w'
I6
tp425
a(S'w'
I3
tp426
a(S'p1_vo'
I3
tp427
a(S'w'
I6
tp428
a(S'p2_tl'
I12
tp429
a(S'w'
I1
tp430
a(S'p2_ll'
I4
tp431
a(S'p2_th'
I1
tp432
a(S'w'
I4
tp433
a(S'w'
I3
tp434
a(S'p2_vo'
I3
tp435
a(S'w'
I711
tp436
a(S'p1_vo'
I4
tp437
a(S'w'
I5
tp438
a(S'p2_vo'
I4
tp439
a(S'w'
I728
tp440
a(S'p1_vo'
I5
tp441
a(S'w'
I6
tp442
a(S'p2_vo'
I5
tp443
a(S'w'
I728
tp444
a(S'p1_vo'
I6
tp445
a(S'w'
I6
tp446
a(S'p2_vo'
I6
tp447
a(S'w'
I1462
tp448
a(S'p1_vo'
I7
tp449
a(S'w'
I6
tp450
a(S'p2_vo'
I7
tp451
a(S'w'
I728
tp452
a(S'p1_vo'
I6
tp453
a(S'w'
I5
tp454
a(S'p2_vo'
I6
tp455
a(S'w'
I728
tp456
a(S'w'
I7
tp457
a(S'w'
I3662
tp458
a(S'p1_vo'
I5
tp459
a(S'w'
I6
tp460
a(S'p2_vo'
I5
tp461
a(S'w'
I727
tp462
a(S'p1_tl'
I148
tp463
a(S'w'
I4
tp464
a(S'p1_vo'
I4
tp465
a(S'w'
I5
tp466
a(S'p2_tl'
I13
tp467
a(S'w'
I3
tp468
a(S'p2_vo'
I4
tp469
a(S'w'
I723
tp470
a(S'p1_tl'
I103
tp471
a(S'w'
I1
tp472
a(S'p1_ll'
I4
tp473
a(S'w'
I5
tp474
a(S'w'
I3
tp475
a(S'p1_vo'
I3
tp476
a(S'w'
I7
tp477
a(S'p2_tl'
I189
tp478
a(S'p2_ll'
I4
tp479
a(S'p2_th'
I0
tp480
a(S'w'
I5
tp481
a(S'w'
I3
tp482
a(S'p2_vo'
I3
tp483
a(S'w'
I710
tp484
a(S'p1_vo'
I4
tp485
a(S'w'
I6
tp486
a(S'p2_vo'
I4
tp487
a(S'w'
I728
tp488
a(S'p1_vo'
I5
tp489
a(S'w'
I5
tp490
a(S'p2_vo'
I5
tp491
a(S'w'
I728
tp492
a(S'p1_vo'
I6
tp493
a(S'w'
I6
tp494
a(S'p2_vo'
I6
tp495
a(S'w'
I1462
tp496
a(S'p1_vo'
I7
tp497
a(S'w'
I6
tp498
a(S'p2_vo'
I7
tp499
a(S'w'
I728
tp500
a(S'p1_vo'
I6
tp501
a(S'w'
I6
tp502
a(S'p2_vo'
I6
tp503
a(S'w'
I727
tp504
a(S'w'
I7
tp505
a(S'w'
I3663
tp506
a(S'p1_vo'
I5
tp507
a(S'w'
I5
tp508
a(S'p2_vo'
I5
tp509
a(S'w'
I729
tp510
a(S'p1_tl'
I63
tp511
a(S'p1_ll'
I4
tp512
a(S'w'
I5
tp513
a(S'w'
I4
tp514
a(S'p1_vo'
I3
tp515
a(S'w'
I6
tp516
a(S'p2_tl'
I28
tp517
a(S'p2_ll'
I4
tp518
a(S'p2_th'
I1
tp519
a(S'w'
I5
tp520
a(S'w'
I3
tp521
a(S'p2_vo'
I3
tp522
a(S'w'
I710
tp523
a(S'p1_vo'
I4
tp524
a(S'w'
I6
tp525
a(S'p2_vo'
I4
tp526
a(S'w'
I728
tp527
a(S'p1_vo'
I5
tp528
a(S'w'
I6
tp529
a(S'p2_vo'
I5
tp530
a(S'w'
I728
tp531
a(S'p1_vo'
I6
tp532
a(S'w'
I6
tp533
a(S'p2_vo'
I6
tp534
a(S'w'
I1461
tp535
a(S'p1_vo'
I7
tp536
a(S'w'
I6
tp537
a(S'p2_vo'
I7
tp538
a(S'w'
I728
tp539
a(S'p1_vo'
I6
tp540
a(S'w'
I6
tp541
a(S'p2_vo'
I6
tp542
a(S'w'
I727
tp543
a(S'w'
I7
tp544
a(S'w'
I3663
tp545
a(S'p1_vo'
I5
tp546
a(S'w'
I6
tp547
a(S'p2_vo'
I5
tp548
a(S'w'
I727
tp549
a(S'p1_tl'
I64
tp550
a(S'w'
I3
tp551
a(S'p1_vo'
I4
tp552
a(S'w'
I5
tp553
a(S'p2_tl'
I29
tp554
a(S'w'
I3
tp555
a(S'p2_vo'
I4
tp556
a(S'w'
I732
tp557
a(S'p1_tl'
I171
tp558
a(S'p1_ll'
I4
tp559
a(S'w'
I5
tp560
a(S'w'
I3
tp561
a(S'p1_vo'
I3
tp562
a(S'w'
I14
tp563
a(S'p2_tl'
I238
tp564
a(S'w'
I1
tp565
a(S'p2_ll'
I4
tp566
a(S'p2_th'
I0
tp567
a(S'w'
I5
tp568
a(S'w'
I3
tp569
a(S'p2_vo'
I3
tp570
a(S'w'
I694
tp571
a(S'p1_vo'
I4
tp572
a(S'w'
I6
tp573
a(S'p2_vo'
I4
tp574
a(S'w'
I728
tp575
a(S'p1_vo'
I5
tp576
a(S'w'
I6
tp577
a(S'p2_vo'
I5
tp578
a(S'w'
I728
tp579
a(S'p1_vo'
I6
tp580
a(S'w'
I6
tp581
a(S'p2_vo'
I6
tp582
a(S'w'
I1462
tp583
a(S'p1_vo'
I7
tp584
a(S'w'
I5
tp585
a(S'p2_vo'
I7
tp586
a(S'w'
I728
tp587
a(S'p1_vo'
I6
tp588
a(S'w'
I6
tp589
a(S'p2_vo'
I6
tp590
a(S'w'
I728
tp591
a(S'w'
I7
tp592
a(S'w'
I3662
tp593
a(S'p1_vo'
I5
tp594
a(S'w'
I6
tp595
a(S'p2_vo'
I5
tp596
a(S'w'
I727
tp597
a(S'p1_tl'
I172
tp598
a(S'w'
I3
tp599
a(S'p1_vo'
I4
tp600
a(S'w'
I6
tp601
a(S'p2_tl'
I239
tp602
a(S'w'
I3
tp603
a(S'p2_vo'
I4
tp604
a(S'w'
I723
tp605
a(S'p1_tl'
I147
tp606
a(S'w'
I1
tp607
a(S'p1_ll'
I4
tp608
a(S'w'
I5
tp609
a(S'w'
I3
tp610
a(S'p1_vo'
I3
tp611
a(S'w'
I6
tp612
a(S'p2_tl'
I12
tp613
a(S'w'
I1
tp614
a(S'p2_ll'
I4
tp615
a(S'p2_th'
I1
tp616
a(S'w'
I5
tp617
a(S'w'
I2
tp618
a(S'p2_vo'
I3
tp619
a(S'w'
I711
tp620
a(S'p1_vo'
I4
tp621
a(S'w'
I5
tp622
a(S'p2_vo'
I4
tp623
a(S'w'
I728
tp624
a(S'p1_vo'
I5
tp625
a(S'w'
I6
tp626
a(S'p2_vo'
I5
tp627
a(S'w'
I728
tp628
a(S'p1_vo'
I6
tp629
a(S'w'
I6
tp630
a(S'p2_vo'
I6
tp631
a(S'w'
I1462
tp632
a(S'p1_vo'
I7
tp633
a(S'w'
I6
tp634
a(S'p2_vo'
I7
tp635
a(S'w'
I728
tp636
a(S'p1_vo'
I6
tp637
a(S'w'
I5
tp638
a(S'p2_vo'
I6
tp639
a(S'w'
I728
tp640
a(S'w'
I7
tp641
a(S'w'
I3662
tp642
a(S'p1_vo'
I5
tp643
a(S'w'
I6
tp644
a(S'p2_vo'
I5
tp645
a(S'w'
I728
tp646
a(S'p1_tl'
I148
tp647
a(S'w'
I3
tp648
a(S'p1_vo'
I4
tp649
a(S'w'
I5
tp650
a(S'p2_tl'
I13
tp651
a(S'w'
I3
tp652
a(S'p2_vo'
I4
tp653
a(S'w'
I723
tp654
a(S'p1_tl'
I103
tp655
a(S'w'
I1
tp656
a(S'p1_ll'
I4
tp657
a(S'w'
I5
tp658
a(S'w'
I3
tp659
a(S'p1_vo'
I3
tp660
a(S'w'
I7
tp661
a(S'p2_tl'
I189
tp662
a(S'p2_ll'
I4
tp663
a(S'p2_th'
I0
tp664
a(S'w'
I5
tp665
a(S'w'
I3
tp666
a(S'p2_vo'
I3
tp667
a(S'w'
I710
tp668
a(S'p1_vo'
I4
tp669
a(S'w'
I6
tp670
a(S'p2_vo'
I4
tp671
a(S'w'
I728
tp672
a(S'p1_vo'
I5
tp673
a(S'w'
I5
tp674
a(S'p2_vo'
I5
tp675
a(S'w'
I728
tp676
a(S'p1_vo'
I6
tp677
a(S'w'
I6
tp678
a(S'p2_vo'
I6
tp679
a(S'w'
I1462
tp680
a(S'p1_vo'
I7
tp681
a(S'w'
I6
tp682
a(S'p2_vo'
I7
tp683
a(S'w'
I728
tp684
a(S'p1_vo'
I6
tp685
a(S'w'
I6
tp686
a(S'p2_vo'
I6
tp687
a(S'w'
I727
tp688
a(S'w'
I7
tp689
a(S'w'
I3663
tp690
a(S'p1_vo'
I5
tp691
a(S'w'
I6
tp692
a(S'p2_vo'
I5
tp693
a(S'w'
I728
tp694
a(S'p1_tl'
I63
tp695
a(S'p1_ll'
I4
tp696
a(S'w'
I5
tp697
a(S'w'
I4
tp698
a(S'p1_vo'
I3
tp699
a(S'w'
I6
tp700
a(S'p2_tl'
I28
tp701
a(S'p2_ll'
I4
tp702
a(S'p2_th'
I1
tp703
a(S'w'
I5
tp704
a(S'w'
I3
tp705
a(S'p2_vo'
I3
tp706
a(S'w'
I710
tp707
a(S'p1_vo'
I4
tp708
a(S'w'
I6
tp709
a(S'p2_vo'
I4
tp710
a(S'w'
I728
tp711
a(S'p1_vo'
I5
tp712
a(S'w'
I6
tp713
a(S'p2_vo'
I5
tp714
a(S'w'
I728
tp715
a(S'p1_vo'
I6
tp716
a(S'w'
I6
tp717
a(S'p2_vo'
I6
tp718
a(S'w'
I1461
tp719
a(S'p1_vo'
I7
tp720
a(S'w'
I6
tp721
a(S'p2_vo'
I7
tp722
a(S'w'
I728
tp723
a(S'p1_vo'
I6
tp724
a(S'w'
I6
tp725
a(S'p2_vo'
I6
tp726
a(S'w'
I727
tp727
a(S'w'
I8
tp728
a(S'w'
I3662
tp729
a(S'p1_vo'
I5
tp730
a(S'w'
I6
tp731
a(S'p2_vo'
I5
tp732
a(S'w'
I727
tp733
a(S'p1_tl'
I64
tp734
a(S'w'
I3
tp735
a(S'p1_vo'
I4
tp736
a(S'w'
I5
tp737
a(S'p2_tl'
I29
tp738
a(S'w'
I3
tp739
a(S'p2_vo'
I4
tp740
a(S'w'
I732
tp741
a(S'p1_tl'
I171
tp742
a(S'p1_ll'
I4
tp743
a(S'w'
I5
tp744
a(S'w'
I3
tp745
a(S'p1_vo'
I3
tp746
a(S'w'
I15
tp747
a(S'p2_tl'
I238
tp748
a(S'p2_ll'
I4
tp749
a(S'p2_th'
I0
tp750
a(S'w'
I5
tp751
a(S'w'
I3
tp752
a(S'p2_vo'
I3
tp753
a(S'w'
I694
tp754
a(S'p1_vo'
I4
tp755
a(S'w'
I6
tp756
a(S'p2_vo'
I4
tp757
a(S'w'
I728
tp758
a(S'p1_vo'
I5
tp759
a(S'w'
I6
tp760
a(S'p2_vo'
I5
tp761
a(S'w'
I728
tp762
a(S'p1_vo'
I6
tp763
a(S'w'
I6
tp764
a(S'p2_vo'
I6
tp765
a(S'w'
I1462
tp766
a(S'p1_vo'
I7
tp767
a(S'w'
I5
tp768
a(S'p2_vo'
I7
tp769
a(S'w'
I728
tp770
a(S'p1_vo'
I6
tp771
a(S'w'
I6
tp772
a(S'p2_vo'
I6
tp773
a(S'w'
I728
tp774
a(S'w'
I7
tp775
a(S'w'
I3662
tp776
a(S'p1_vo'
I5
tp777
a(S'w'
I6
tp778
a(S'p2_vo'
I5
tp779
a(S'w'
I727
tp780
a(S'p1_tl'
I172
tp781
a(S'w'
I4
tp782
a(S'p1_vo'
I4
tp783
a(S'w'
I5
tp784
a(S'p2_tl'
I239
tp785
a(S'w'
I3
tp786
a(S'p2_vo'
I4
tp787
a(S'w'
I723
tp788
a(S'p1_tl'
I147
tp789
a(S'w'
I1
tp790
a(S'p1_ll'
I4
tp791
a(S'w'
I5
tp792
a(S'w'
I3
tp793
a(S'p1_vo'
I3
tp794
a(S'w'
I7
tp795
a(S'p2_tl'
I12
tp796
a(S'p2_ll'
I4
tp797
a(S'p2_th'
I1
tp798
a(S'w'
I5
tp799
a(S'w'
I3
tp800
a(S'p2_vo'
I3
tp801
a(S'w'
I710
tp802
a(S'p1_vo'
I4
tp803
a(S'w'
I6
tp804
a(S'p2_vo'
I4
tp805
a(S'w'
I728
tp806
a(S'p1_vo'
I5
tp807
a(S'w'
I5
tp808
a(S'p2_vo'
I5
tp809
a(S'w'
I728
tp810
a(S'p1_vo'
I6
tp811
a(S'w'
I6
tp812
a(S'p2_vo'
I6
tp813
a(S'w'
I1462
tp814
a(S'p1_vo'
I7
tp815
a(S'w'
I6
tp816
a(S'p2_vo'
I7
tp817
a(S'w'
I728
tp818
a(S'p1_vo'
I6
tp819
a(S'w'
I6
tp820
a(S'p2_vo'
I6
tp821
a(S'w'
I727
tp822
a(S'w'
I7
tp823
a(S'w'
I3662
tp824
a(S'p1_vo'
I5
tp825
a(S'w'
I6
tp826
a(S'p2_vo'
I5
tp827
a(S'w'
I729
tp828
a(S'p1_tl'
I103
tp829
a(S'p1_ll'
I4
tp830
a(S'w'
I5
tp831
a(S'w'
I3
tp832
a(S'p1_vo'
I3
tp833
a(S'w'
I7
tp834
a(S'p2_tl'
I189
tp835
a(S'p2_ll'
I4
tp836
a(S'p2_th'
I0
tp837
a(S'w'
I5
tp838
a(S'w'
I3
tp839
a(S'p2_vo'
I3
tp840
a(S'w'
I710
tp841
a(S'p1_vo'
I4
tp842
a(S'w'
I6
tp843
a(S'p2_vo'
I4
tp844
a(S'w'
I728
tp845
a(S'p1_vo'
I5
tp846
a(S'w'
I6
tp847
a(S'p2_vo'
I5
tp848
a(S'w'
I728
tp849
a(S'p1_vo'
I6
tp850
a(S'w'
I6
tp851
a(S'p2_vo'
I6
tp852
a(S'w'
I1461
tp853
a(S'p1_vo'
I7
tp854
a(S'w'
I6
tp855
a(S'p2_vo'
I7
tp856
a(S'w'
I728
tp857
a(S'p1_vo'
I6
tp858
a(S'w'
I6
tp859
a(S'p2_vo'
I6
tp860
a(S'w'
I727
tp861
a(S'w'
I7
tp862
a(S'w'
I3663
tp863
a(S'p1_vo'
I5
tp864
a(S'w'
I6
tp865
a(S'p2_vo'
I5
tp866
a(S'w'
I727
tp867
a(S'p1_tl'
I104
tp868
a(S'w'
I3
tp869
a(S'p1_vo'
I4
tp870
a(S'w'
I5
tp871
a(S'p2_tl'
I190
tp872
a(S'w'
I3
tp873
a(S'p2_vo'
I4
tp874
a(S'w'
I724
tp875
a(S'p1_tl'
I63
tp876
a(S'p1_ll'
I4
tp877
a(S'w'
I5
tp878
a(S'w'
I4
tp879
a(S'p1_vo'
I3
tp880
a(S'w'
I6
tp881
a(S'p2_tl'
I28
tp882
a(S'p2_ll'
I4
tp883
a(S'p2_th'
I1
tp884
a(S'w'
I5
tp885
a(S'w'
I3
tp886
a(S'p2_vo'
I3
tp887
a(S'w'
I710
tp888
a(S'p1_vo'
I4
tp889
a(S'w'
I6
tp890
a(S'p2_vo'
I4
tp891
a(S'w'
I728
tp892
a(S'p1_vo'
I5
tp893
a(S'w'
I6
tp894
a(S'p2_vo'
I5
tp895
a(S'w'
I728
tp896
a(S'p1_vo'
I6
tp897
a(S'w'
I6
tp898
a(S'p2_vo'
I6
tp899
a(S'w'
I1462
tp900
a(S'p1_vo'
I7
tp901
a(S'w'
I5
tp902
a(S'p2_vo'
I7
tp903
a(S'w'
I728
tp904
a(S'p1_vo'
I6
tp905
a(S'w'
I6
tp906
a(S'p2_vo'
I6
tp907
a(S'w'
I727
tp908
a(S'w'
I8
tp909
a(S'w'
I3662
tp910
a(S'p1_vo'
I5
tp911
a(S'w'
I6
tp912
a(S'p2_vo'
I5
tp913
a(S'w'
I727
tp914
a(S'p1_tl'
I64
tp915
a(S'w'
I3
tp916
a(S'p1_vo'
I4
tp917
a(S'w'
I6
tp918
a(S'p2_tl'
I29
tp919
a(S'w'
I3
tp920
a(S'p2_vo'
I4
tp921
a(S'w'
I731
tp922
a(S'p1_tl'
I171
tp923
a(S'p1_ll'
I4
tp924
a(S'w'
I5
tp925
a(S'w'
I4
tp926
a(S'p1_vo'
I3
tp927
a(S'w'
I14
tp928
a(S'p2_tl'
I238
tp929
a(S'p2_ll'
I4
tp930
a(S'p2_th'
I0
tp931
a(S'w'
I5
tp932
a(S'w'
I3
tp933
a(S'p2_vo'
I3
tp934
a(S'w'
I695
tp935
a(S'p1_vo'
I4
tp936
a(S'w'
I5
tp937
a(S'p2_vo'
I4
tp938
a(S'w'
I728
tp939
a(S'p1_vo'
I5
tp940
a(S'w'
I6
tp941
a(S'p2_vo'
I5
tp942
a(S'w'
I728
tp943
a(S'p1_vo'
I6
tp944
a(S'w'
I6
tp945
a(S'p2_vo'
I6
tp946
a(S'w'
I1462
tp947
a(S'p1_vo'
I7
tp948
a(S'w'
I6
tp949
a(S'p2_vo'
I7
tp950
a(S'w'
I728
tp951
a(S'p1_vo'
I6
tp952
a(S'w'
I5
tp953
a(S'p2_vo'
I6
tp954
a(S'w'
I728
tp955
a(S'w'
I7
tp956
a(S'w'
I3662
tp957
a(S'p1_vo'
I5
tp958
a(S'w'
I6
tp959
a(S'p2_vo'
I5
tp960
a(S'w'
I728
tp961
a(S'p1_tl'
I172
tp962
a(S'w'
I3
tp963
a(S'p1_vo'
I4
tp964
a(S'w'
I5
tp965
a(S'p2_tl'
I239
tp966
a(S'w'
I3
tp967
a(S'p2_vo'
I4
tp968
a(S'w'
I723
tp969
a(S'p1_tl'
I147
tp970
a(S'w'
I1
tp971
a(S'p1_ll'
I4
tp972
a(S'w'
I5
tp973
a(S'w'
I3
tp974
a(S'p1_vo'
I3
tp975
a(S'w'
I7
tp976
a(S'p2_tl'
I12
tp977
a(S'p2_ll'
I4
tp978
a(S'p2_th'
I1
tp979
a(S'w'
I5
tp980
a(S'w'
I3
tp981
a(S'p2_vo'
I3
tp982
a(S'w'
I710
tp983
a(S'p1_vo'
I4
tp984
a(S'w'
I6
tp985
a(S'p2_vo'
I4
tp986
a(S'w'
I728
tp987
a(S'p1_vo'
I5
tp988
a(S'w'
I5
tp989
a(S'p2_vo'
I5
tp990
a(S'w'
I728
tp991
a(S'p1_vo'
I6
tp992
a(S'w'
I6
tp993
a(S'p2_vo'
I6
tp994
a(S'w'
I1462
tp995
a(S'p1_vo'
I7
tp996
a(S'w'
I6
tp997
a(S'p2_vo'
I7
tp998
a(S'w'
I728
tp999
a(S'p1_vo'
I6
tp1000
a(S'w'
I6
tp1001
a(S'p2_vo'
I6
tp1002
a(S'w'
I727
tp1003
a(S'w'
I7
tp1004
a(S'w'
I3663
tp1005
a(S'p1_vo'
I5
tp1006
a(S'w'
I5
tp1007
a(S'p2_vo'
I5
tp1008
a(S'w'
I729
tp1009
a(S'p1_tl'
I103
tp1010
a(S'p1_ll'
I4
tp1011
a(S'w'
I5
tp1012
a(S'w'
I3
tp1013
a(S'p1_vo'
I3
tp1014
a(S'w'
I7
tp1015
a(S'p2_tl'
I189
tp1016
a(S'p2_ll'
I4
tp1017
a(S'p2_th'
I0
tp1018
a(S'w'
I5
tp1019
a(S'w'
I3
tp1020
a(S'p2_vo'
I3
tp1021
a(S'w'
I710
tp1022
a(S'p1_vo'
I4
tp1023
a(S'w'
I6
tp1024
a(S'p2_vo'
I4
tp1025
a(S'w'
I728
tp1026
a(S'p1_vo'
I5
tp1027
a(S'w'
I6
tp1028
a(S'p2_vo'
I5
tp1029
a(S'w'
I728
tp1030
a(S'p1_vo'
I6
tp1031
a(S'w'
I6
tp1032
a(S'p2_vo'
I6
tp1033
a(S'w'
I1461
tp1034
a(S'p1_vo'
I7
tp1035
a(S'w'
I6
tp1036
a(S'p2_vo'
I7
tp1037
a(S'w'
I728
tp1038
a(S'p1_vo'
I6
tp1039
a(S'w'
I6
tp1040
a(S'p2_vo'
I6
tp1041
a(S'w'
I727
tp1042
a(S'w'
I7
tp1043
a(S'w'
I3663
tp1044
a(S'p1_vo'
I5
tp1045
a(S'w'
I6
tp1046
a(S'p2_vo'
I5
tp1047
a(S'w'
I727
tp1048
a(S'p1_tl'
I104
tp1049
a(S'w'
I3
tp1050
a(S'p1_vo'
I4
tp1051
a(S'w'
I5
tp1052
a(S'p2_tl'
I190
tp1053
a(S'w'
I3
tp1054
a(S'p2_vo'
I4
tp1055
a(S'w'
I724
tp1056
a(S'p1_tl'
I63
tp1057
a(S'p1_ll'
I4
tp1058
a(S'w'
I6
tp1059
a(S'w'
I3
tp1060
a(S'p1_vo'
I3
tp1061
a(S'w'
I6
tp1062
a(S'p2_tl'
I28
tp1063
a(S'p2_ll'
I4
tp1064
a(S'p2_th'
I1
tp1065
a(S'w'
I5
tp1066
a(S'w'
I3
tp1067
a(S'p2_vo'
I3
tp1068
a(S'w'
I710
tp1069
a(S'p1_vo'
I4
tp1070
a(S'w'
I6
tp1071
a(S'p2_vo'
I4
tp1072
a(S'w'
I728
tp1073
a(S'p1_vo'
I5
tp1074
a(S'w'
I6
tp1075
a(S'p2_vo'
I5
tp1076
a(S'w'
I728
tp1077
a(S'p1_vo'
I6
tp1078
a(S'w'
I6
tp1079
a(S'p2_vo'
I6
tp1080
a(S'w'
I1462
tp1081
a(S'p1_vo'
I7
tp1082
a(S'w'
I5
tp1083
a(S'p2_vo'
I7
tp1084
a(S'w'
I728
tp1085
a(S'p1_vo'
I6
tp1086
a(S'w'
I6
tp1087
a(S'p2_vo'
I6
tp1088
a(S'w'
I728
tp1089
a(S'w'
I7
tp1090
a(S'w'
I3662
tp1091
a(S'p1_vo'
I5
tp1092
a(S'w'
I6
tp1093
a(S'p2_vo'
I5
tp1094
a(S'w'
I727
tp1095
a(S'p1_tl'
I64
tp1096
a(S'w'
I4
tp1097
a(S'p1_vo'
I4
tp1098
a(S'w'
I5
tp1099
a(S'p2_tl'
I29
tp1100
a(S'w'
I3
tp1101
a(S'p2_vo'
I4
tp1102
a(S'w'
I731
tp1103
a(S'p1_tl'
I171
tp1104
a(S'p1_ll'
I4
tp1105
a(S'w'
I5
tp1106
a(S'w'
I4
tp1107
a(S'p1_vo'
I3
tp1108
a(S'w'
I14
tp1109
a(S'p2_tl'
I238
tp1110
a(S'p2_ll'
I4
tp1111
a(S'p2_th'
I0
tp1112
a(S'w'
I5
tp1113
a(S'w'
I3
tp1114
a(S'p2_vo'
I3
tp1115
a(S'w'
I695
tp1116
a(S'p1_vo'
I4
tp1117
a(S'w'
I5
tp1118
a(S'p2_vo'
I4
tp1119
a(S'w'
I728
tp1120
a(S'p1_vo'
I5
tp1121
a(S'w'
I6
tp1122
a(S'p2_vo'
I5
tp1123
a(S'w'
I728
tp1124
a(S'p1_vo'
I6
tp1125
a(S'w'
I6
tp1126
a(S'p2_vo'
I6
tp1127
a(S'w'
I1462
tp1128
a(S'p1_vo'
I7
tp1129
a(S'w'
I6
tp1130
a(S'p2_vo'
I7
tp1131
a(S'w'
I728
tp1132
a(S'p1_vo'
I6
tp1133
a(S'w'
I5
tp1134
a(S'p2_vo'
I6
tp1135
a(S'w'
I728
tp1136
a(S'w'
I7
tp1137
a(S'w'
I3662
tp1138
a(S'p1_vo'
I5
tp1139
a(S'w'
I6
tp1140
a(S'p2_vo'
I5
tp1141
a(S'w'
I729
tp1142
a(S'p1_tl'
I147
tp1143
a(S'p1_ll'
I4
tp1144
a(S'w'
I5
tp1145
a(S'w'
I3
tp1146
a(S'p1_vo'
I3
tp1147
a(S'w'
I7
tp1148
a(S'p2_tl'
I12
tp1149
a(S'p2_ll'
I4
tp1150
a(S'p2_th'
I1
tp1151
a(S'w'
I5
tp1152
a(S'w'
I3
tp1153
a(S'p2_vo'
I3
tp1154
a(S'w'
I710
tp1155
a(S'p1_vo'
I4
tp1156
a(S'w'
I6
tp1157
a(S'p2_vo'
I4
tp1158
a(S'w'
I728
tp1159
a(S'p1_vo'
I5
tp1160
a(S'w'
I6
tp1161
a(S'p2_vo'
I5
tp1162
a(S'w'
I728
tp1163
a(S'p1_vo'
I6
tp1164
a(S'w'
I5
tp1165
a(S'p2_vo'
I6
tp1166
a(S'w'
I1462
tp1167
a(S'p1_vo'
I7
tp1168
a(S'w'
I6
tp1169
a(S'p2_vo'
I7
tp1170
a(S'w'
I728
tp1171
a(S'p1_vo'
I6
tp1172
a(S'w'
I6
tp1173
a(S'p2_vo'
I6
tp1174
a(S'w'
I727
tp1175
a(S'w'
I7
tp1176
a(S'w'
I3663
tp1177
a(S'p1_vo'
I5
tp1178
a(S'w'
I6
tp1179
a(S'p2_vo'
I5
tp1180
a(S'w'
I727
tp1181
a(S'p1_tl'
I148
tp1182
a(S'w'
I3
tp1183
a(S'p1_vo'
I4
tp1184
a(S'w'
I5
tp1185
a(S'p2_tl'
I13
tp1186
a(S'w'
I3
tp1187
a(S'p2_vo'
I4
tp1188
a(S'w'
I724
tp1189
a(S'p1_tl'
I103
tp1190
a(S'p1_ll'
I4
tp1191
a(S'w'
I5
tp1192
a(S'w'
I4
tp1193
a(S'p1_vo'
I3
tp1194
a(S'w'
I6
tp1195
a(S'p2_tl'
I189
tp1196
a(S'p2_ll'
I4
tp1197
a(S'p2_th'
I0
tp1198
a(S'w'
I5
tp1199
a(S'w'
I3
tp1200
a(S'p2_vo'
I3
tp1201
a(S'w'
I710
tp1202
a(S'p1_vo'
I4
tp1203
a(S'w'
I6
tp1204
a(S'p2_vo'
I4
tp1205
a(S'w'
I728
tp1206
a(S'p1_vo'
I5
tp1207
a(S'w'
I6
tp1208
a(S'p2_vo'
I5
tp1209
a(S'w'
I728
tp1210
a(S'p1_vo'
I6
tp1211
a(S'w'
I6
tp1212
a(S'p2_vo'
I6
tp1213
a(S'w'
I1461
tp1214
a(S'p1_vo'
I7
tp1215
a(S'w'
I6
tp1216
a(S'p2_vo'
I7
tp1217
a(S'w'
I728
tp1218
a(S'p1_vo'
I6
tp1219
a(S'w'
I6
tp1220
a(S'p2_vo'
I6
tp1221
a(S'w'
I727
tp1222
a(S'w'
I8
tp1223
a(S'w'
I3662
tp1224
a(S'p1_vo'
I5
tp1225
a(S'w'
I6
tp1226
a(S'p2_vo'
I5
tp1227
a(S'w'
I727
tp1228
a(S'p1_tl'
I104
tp1229
a(S'w'
I3
tp1230
a(S'p1_vo'
I4
tp1231
a(S'w'
I6
tp1232
a(S'p2_tl'
I190
tp1233
a(S'w'
I2
tp1234
a(S'p2_vo'
I4
tp1235
a(S'w'
I724
tp1236
a(S'p1_tl'
I63
tp1237
a(S'p1_ll'
I4
tp1238
a(S'w'
I6
tp1239
a(S'w'
I3
tp1240
a(S'p1_vo'
I3
tp1241
a(S'w'
I6
tp1242
a(S'p2_tl'
I28
tp1243
a(S'p2_ll'
I4
tp1244
a(S'p2_th'
I1
tp1245
a(S'w'
I5
tp1246
a(S'w'
I3
tp1247
a(S'p2_vo'
I3
tp1248
a(S'w'
I710
tp1249
a(S'p1_vo'
I4
tp1250
a(S'w'
I6
tp1251
a(S'p2_vo'
I4
tp1252
a(S'w'
I728
tp1253
a(S'p1_vo'
I5
tp1254
a(S'w'
I6
tp1255
a(S'p2_vo'
I5
tp1256
a(S'w'
I728
tp1257
a(S'p1_vo'
I6
tp1258
a(S'w'
I6
tp1259
a(S'p2_vo'
I6
tp1260
a(S'w'
I1462
tp1261
a(S'p1_vo'
I7
tp1262
a(S'w'
I5
tp1263
a(S'p2_vo'
I7
tp1264
a(S'w'
I728
tp1265
a(S'p1_vo'
I6
tp1266
a(S'w'
I6
tp1267
a(S'p2_vo'
I6
tp1268
a(S'w'
I728
tp1269
a(S'w'
I7
tp1270
a(S'w'
I3662
tp1271
a(S'p1_vo'
I5
tp1272
a(S'w'
I6
tp1273
a(S'p2_vo'
I5
tp1274
a(S'w'
I727
tp1275
a(S'p1_tl'
I64
tp1276
a(S'w'
I4
tp1277
a(S'p1_vo'
I4
tp1278
a(S'w'
I5
tp1279
a(S'p2_tl'
I29
tp1280
a(S'w'
I3
tp1281
a(S'p2_vo'
I4
tp1282
a(S'w'
I731
tp1283
a.