(lp1
(S'clock'
p2
I1789772
tp3
a(S'p1_cv'
I1
tp4
a(S'p2_cv'
I1
tp5
a(S'no_cv'
I1
tp6
a(S'no_ll'
I0
tp7
a(S'ch_no'
I1
tp8
a(S'ch_tr'
I1
tp9
a(S'ch_p2'
I1
tp10
a(S'ch_p1'
I1
tp11
a(S'fc_mo'
I1
tp12
a(S'tr_ll'
I3
tp13
a(S'w'
I743
tp14
a(S'p1_sp'
I7
tp15
a(S'p1_ss'
I7
tp16
a(S'p1_tl'
I12
tp17
a(S'p1_ll'
I0
tp18
a(S'p1_th'
I1
tp19
a(S'w'
I6
tp20
a(S'w'
I3
tp21
a(S'p1_lh'
I1
tp22
a(S'p1_vo'
I3
tp23
a(S'w'
I12
tp24
a(S'p2_sp'
I7
tp25
a(S'p2_ss'
I7
tp26
a(S'p2_tl'
I178
tp27
a(S'w'
I1
tp28
a(S'p2_ll'
I0
tp29
a(S'w'
I4
tp30
a(S'w'
I3
tp31
a(S'p2_lh'
I1
tp32
a(S'p2_vo'
I3
tp33
a(S'w'
I1432
tp34
a(S'p1_vo'
I6
tp35
a(S'w'
I6
tp36
a(S'p2_vo'
I6
tp37
a(S'w'
I3662
tp38
a(S'w'
I8
tp39
a(S'w'
I3662
tp40
a(S'p1_vo'
I5
tp41
a(S'w'
I6
tp42
a(S'p2_vo'
I5
tp43
a(S'w'
I727
tp44
a(S'p1_tl'
I13
tp45
a(S'w'
I7
tp46
a(S'p2_tl'
I179
tp47
a(S'w'
I727
tp48
a(S'p1_tl'
I12
tp49
a(S'w'
I7
tp50
a(S'p2_tl'
I178
tp51
a(S'w'
I2194
tp52
a(S'p1_tl'
I13
tp53
a(S'w'
I8
tp54
a(S'p2_tl'
I179
tp55
a(S'w'
I726
tp56
a(S'p1_tl'
I12
tp57
a(S'w'
I7
tp58
a(S'p2_tl'
I178
tp59
a(S'w'
I1461
tp60
a(S'p1_tl'
I11
tp61
a(S'w'
I3
tp62
a(S'p1_vo'
I4
tp63
a(S'w'
I5
tp64
a(S'p2_tl'
I177
tp65
a(S'w'
I3
tp66
a(S'p2_vo'
I4
tp67
a(S'w'
I723
tp68
a(S'p1_tl'
I12
tp69
a(S'w'
I7
tp70
a(S'p2_tl'
I178
tp71
a(S'w'
I2928
tp72
a(S'p1_tl'
I13
tp73
a(S'w'
I7
tp74
a(S'p2_tl'
I179
tp75
a(S'w'
I1460
tp76
a(S'p1_tl'
I12
tp77
a(S'w'
I8
tp78
a(S'p2_tl'
I178
tp79
a(S'w'
I2928
tp80
a(S'p1_tl'
I11
tp81
a(S'w'
I7
tp82
a(S'p2_tl'
I177
tp83
a(S'w'
I732
tp84
a(S'p2_tl'
I133
tp85
a(S'w'
I1
tp86
a(S'p2_ll'
I0
tp87
a(S'w'
I4
tp88
a(S'w'
I3
tp89
a(S'p2_vo'
I3
tp90
a(S'w'
I720
tp91
a(S'p1_tl'
I13
tp92
a(S'w'
I739
tp93
a(S'p2_vo'
I6
tp94
a(S'w'
I729
tp95
a(S'p1_tl'
I14
tp96
a(S'w'
I734
tp97
a(S'p1_tl'
I13
tp98
a(S'w'
I733
tp99
a(S'p1_tl'
I12
tp100
a(S'w'
I734
tp101
a(S'p1_tl'
I11
tp102
a(S'w'
I739
tp103
a(S'w'
I729
tp104
a(S'p1_tl'
I10
tp105
a(S'w'
I3
tp106
a(S'p1_vo'
I3
tp107
a(S'w'
I731
tp108
a(S'p1_tl'
I11
tp109
a(S'w'
I733
tp110
a(S'p1_tl'
I12
tp111
a(S'w'
I734
tp112
a(S'p1_tl'
I13
tp113
a(S'w'
I739
tp114
a(S'p2_vo'
I5
tp115
a(S'w'
I729
tp116
a(S'p1_tl'
I14
tp117
a(S'w'
I7
tp118
a(S'p2_tl'
I134
tp119
a(S'w'
I727
tp120
a(S'p1_tl'
I13
tp121
a(S'w'
I7
tp122
a(S'p2_tl'
I133
tp123
a(S'w'
I726
tp124
a(S'p1_tl'
I12
tp125
a(S'w'
I734
tp126
a(S'p1_tl'
I11
tp127
a(S'w'
I739
tp128
a(S'p2_tl'
I134
tp129
a(S'w'
I729
tp130
a(S'p1_tl'
I10
tp131
a(S'w'
I8
tp132
a(S'p2_tl'
I133
tp133
a(S'w'
I726
tp134
a(S'p1_tl'
I11
tp135
a(S'w'
I733
tp136
a(S'p1_tl'
I12
tp137
a(S'w'
I8
tp138
a(S'p2_tl'
I132
tp139
a(S'w'
I3
tp140
a(S'p2_vo'
I4
tp141
a(S'w'
I723
tp142
a(S'p1_tl'
I13
tp143
a(S'w'
I7
tp144
a(S'p2_tl'
I133
tp145
a(S'w'
I1461
tp146
a(S'p1_tl'
I14
tp147
a(S'w'
I734
tp148
a(S'p1_tl'
I13
tp149
a(S'w'
I733
tp150
a(S'p1_tl'
I12
tp151
a(S'w'
I8
tp152
a(S'p2_tl'
I134
tp153
a(S'w'
I726
tp154
a(S'p1_tl'
I11
tp155
a(S'w'
I3
tp156
a(S'p1_vo'
I2
tp157
a(S'w'
I736
tp158
a(S'p2_tl'
I133
tp159
a(S'w'
I729
tp160
a(S'p1_tl'
I10
tp161
a(S'w'
I734
tp162
a(S'p1_tl'
I11
tp163
a(S'w'
I733
tp164
a(S'p1_tl'
I12
tp165
a(S'w'
I734
tp166
a(S'p1_tl'
I13
tp167
a(S'w'
I7
tp168
a(S'p2_tl'
I132
tp169
a(S'w'
I728
tp170
a(S'p1_tl'
I200
tp171
a(S'p1_ll'
I0
tp172
a(S'p1_th'
I0
tp173
a(S'w'
I6
tp174
a(S'w'
I3
tp175
a(S'p1_vo'
I3
tp176
a(S'w'
I8
tp177
a(S'p2_tl'
I141
tp178
a(S'p2_ll'
I0
tp179
a(S'w'
I5
tp180
a(S'w'
I3
tp181
a(S'p2_vo'
I3
tp182
a(S'w'
I1442
tp183
a(S'p1_vo'
I6
tp184
a(S'w'
I6
tp185
a(S'p2_vo'
I6
tp186
a(S'w'
I3663
tp187
a(S'w'
I7
tp188
a(S'w'
I3662
tp189
a(S'p1_vo'
I5
tp190
a(S'w'
I6
tp191
a(S'p2_vo'
I5
tp192
a(S'w'
I728
tp193
a(S'p1_tl'
I201
tp194
a(S'w'
I7
tp195
a(S'p2_tl'
I142
tp196
a(S'w'
I726
tp197
a(S'p1_tl'
I200
tp198
a(S'w'
I7
tp199
a(S'p2_tl'
I141
tp200
a(S'w'
I1467
tp201
a(S'p2_tl'
I159
tp202
a(S'p2_ll'
I0
tp203
a(S'w'
I5
tp204
a(S'w'
I3
tp205
a(S'p2_vo'
I3
tp206
a(S'w'
I720
tp207
a(S'p1_tl'
I201
tp208
a(S'w'
I733
tp209
a(S'p1_tl'
I200
tp210
a(S'w'
I8
tp211
a(S'p2_vo'
I6
tp212
a(S'w'
I1460
tp213
a(S'p1_tl'
I199
tp214
a(S'w'
I3
tp215
a(S'p1_vo'
I4
tp216
a(S'w'
I731
tp217
a(S'p1_tl'
I200
tp218
a(S'w'
I1472
tp219
a(S'w'
I1463
tp220
a(S'p1_tl'
I201
tp221
a(S'w'
I1468
tp222
a(S'p1_tl'
I200
tp223
a(S'w'
I739
tp224
a(S'p2_vo'
I5
tp225
a(S'w'
I733
tp226
a(S'p2_tl'
I160
tp227
a(S'w'
I734
tp228
a(S'p2_tl'
I159
tp229
a(S'w'
I729
tp230
a(S'p1_tl'
I199
tp231
a(S'w'
I740
tp232
a(S'p2_tl'
I178
tp233
a(S'p2_ll'
I0
tp234
a(S'w'
I5
tp235
a(S'w'
I3
tp236
a(S'p2_vo'
I3
tp237
a(S'w'
I720
tp238
a(S'p1_tl'
I201
tp239
a(S'w'
I739
tp240
a(S'p2_vo'
I6
tp241
a(S'w'
I728
tp242
a(S'p1_tl'
I202
tp243
a(S'w'
I734
tp244
a(S'p1_tl'
I201
tp245
a(S'w'
I734
tp246
a(S'p1_tl'
I200
tp247
a(S'w'
I734
tp248
a(S'p1_tl'
I199
tp249
a(S'w'
I738
tp250
a(S'w'
I729
tp251
a(S'p1_tl'
I198
tp252
a(S'w'
I3
tp253
a(S'p1_vo'
I3
tp254
a(S'w'
I731
tp255
a(S'p1_tl'
I199
tp256
a(S'w'
I734
tp257
a(S'p1_tl'
I200
tp258
a(S'w'
I734
tp259
a(S'p1_tl'
I201
tp260
a(S'w'
I739
tp261
a(S'p2_vo'
I5
tp262
a(S'w'
I728
tp263
a(S'p1_tl'
I202
tp264
a(S'w'
I7
tp265
a(S'p2_tl'
I179
tp266
a(S'w'
I727
tp267
a(S'p1_tl'
I201
tp268
a(S'w'
I7
tp269
a(S'p2_tl'
I178
tp270
a(S'w'
I727
tp271
a(S'p1_tl'
I200
tp272
a(S'w'
I734
tp273
a(S'p1_tl'
I199
tp274
a(S'w'
I8
tp275
a(S'p2_tl'
I200
tp276
a(S'p2_ll'
I0
tp277
a(S'w'
I5
tp278
a(S'w'
I3
tp279
a(S'p2_vo'
I3
tp280
a(S'w'
I1451
tp281
a(S'p1_tl'
I198
tp282
a(S'w'
I9
tp283
a(S'p2_vo'
I6
tp284
a(S'w'
I725
tp285
a(S'p1_tl'
I199
tp286
a(S'w'
I734
tp287
a(S'p1_tl'
I200
tp288
a(S'w'
I734
tp289
a(S'p1_tl'
I201
tp290
a(S'w'
I1467
tp291
a(S'p1_tl'
I202
tp292
a(S'w'
I7
tp293
a(S'w'
I727
tp294
a(S'p1_tl'
I201
tp295
a(S'w'
I734
tp296
a(S'p1_tl'
I200
tp297
a(S'w'
I734
tp298
a(S'p1_tl'
I199
tp299
a(S'w'
I3
tp300
a(S'p1_vo'
I2
tp301
a(S'w'
I1464
tp302
a(S'p1_tl'
I198
tp303
a(S'w'
I8
tp304
a(S'p2_vo'
I5
tp305
a(S'w'
I726
tp306
a(S'p1_tl'
I199
tp307
a(S'w'
I7
tp308
a(S'p2_tl'
I201
tp309
a(S'w'
I727
tp310
a(S'p1_tl'
I200
tp311
a(S'w'
I7
tp312
a(S'p2_tl'
I200
tp313
a(S'w'
I727
tp314
a(S'p1_tl'
I201
tp315
a(S'w'
I735
tp316
a(S'p1_tl'
I178
tp317
a(S'p1_ll'
I0
tp318
a(S'w'
I5
tp319
a(S'w'
I3
tp320
a(S'p1_vo'
I3
tp321
a(S'w'
I8
tp322
a(S'p2_tl'
I212
tp323
a(S'p2_ll'
I0
tp324
a(S'w'
I5
tp325
a(S'w'
I3
tp326
a(S'p2_vo'
I3
tp327
a(S'w'
I1443
tp328
a(S'p1_vo'
I6
tp329
a(S'w'
I6
tp330
a(S'p2_vo'
I6
tp331
a(S'w'
I3662
tp332
a(S'w'
I7
tp333
a(S'w'
I3663
tp334
a(S'p1_vo'
I5
tp335
a(S'w'
I6
tp336
a(S'p2_vo'
I5
tp337
a(S'w'
I727
tp338
a(S'p1_tl'
I179
tp339
a(S'w'
I7
tp340
a(S'p2_tl'
I213
tp341
a(S'w'
I727
tp342
a(S'p1_tl'
I178
tp343
a(S'w'
I7
tp344
a(S'p2_tl'
I212
tp345
a(S'w'
I2194
tp346
a(S'p1_tl'
I179
tp347
a(S'w'
I7
tp348
a(S'p2_tl'
I213
tp349
a(S'w'
I727
tp350
a(S'p1_tl'
I178
tp351
a(S'w'
I7
tp352
a(S'p2_tl'
I212
tp353
a(S'w'
I1460
tp354
a(S'p1_tl'
I177
tp355
a(S'w'
I4
tp356
a(S'p1_vo'
I4
tp357
a(S'w'
I5
tp358
a(S'p2_tl'
I211
tp359
a(S'w'
I3
tp360
a(S'p2_vo'
I4
tp361
a(S'w'
I722
tp362
a(S'p1_tl'
I178
tp363
a(S'w'
I7
tp364
a(S'p2_tl'
I212
tp365
a(S'w'
I2928
tp366
a(S'p1_tl'
I179
tp367
a(S'w'
I8
tp368
a(S'p2_tl'
I213
tp369
a(S'w'
I1460
tp370
a(S'p1_tl'
I178
tp371
a(S'w'
I7
tp372
a(S'p2_tl'
I212
tp373
a(S'w'
I2928
tp374
a(S'p1_tl'
I177
tp375
a(S'w'
I7
tp376
a(S'p2_tl'
I211
tp377
a(S'w'
I1461
tp378
a(S'p1_tl'
I179
tp379
a(S'w'
I7
tp380
a(S'p2_tl'
I213
tp381
a(S'w'
I1460
tp382
a(S'p1_tl'
I180
tp383
a(S'w'
I8
tp384
a(S'p2_tl'
I214
tp385
a(S'w'
I726
tp386
a(S'p1_tl'
I179
tp387
a(S'w'
I7
tp388
a(S'p2_tl'
I213
tp389
a(S'w'
I727
tp390
a(S'p1_tl'
I178
tp391
a(S'w'
I7
tp392
a(S'p2_tl'
I212
tp393
a(S'w'
I727
tp394
a(S'p1_tl'
I177
tp395
a(S'w'
I7
tp396
a(S'p2_tl'
I211
tp397
a(S'w'
I1460
tp398
a(S'p1_tl'
I176
tp399
a(S'w'
I4
tp400
a(S'p1_vo'
I3
tp401
a(S'w'
I5
tp402
a(S'p2_tl'
I210
tp403
a(S'w'
I3
tp404
a(S'p2_vo'
I3
tp405
a(S'w'
I722
tp406
a(S'p1_tl'
I177
tp407
a(S'w'
I7
tp408
a(S'p2_tl'
I211
tp409
a(S'w'
I727
tp410
a(S'p1_tl'
I178
tp411
a(S'w'
I7
tp412
a(S'p2_tl'
I212
tp413
a(S'w'
I727
tp414
a(S'p1_tl'
I179
tp415
a(S'w'
I7
tp416
a(S'p2_tl'
I213
tp417
a(S'w'
I1460
tp418
a(S'p1_tl'
I180
tp419
a(S'w'
I8
tp420
a(S'p2_tl'
I214
tp421
a(S'w'
I726
tp422
a(S'p1_tl'
I179
tp423
a(S'w'
I7
tp424
a(S'p2_tl'
I213
tp425
a(S'w'
I727
tp426
a(S'p1_tl'
I178
tp427
a(S'w'
I7
tp428
a(S'p2_tl'
I212
tp429
a(S'w'
I727
tp430
a(S'p1_tl'
I177
tp431
a(S'w'
I7
tp432
a(S'p2_tl'
I211
tp433
a(S'w'
I1460
tp434
a(S'p1_tl'
I176
tp435
a(S'w'
I9
tp436
a(S'p2_tl'
I210
tp437
a(S'w'
I725
tp438
a(S'p1_tl'
I177
tp439
a(S'w'
I7
tp440
a(S'p2_tl'
I211
tp441
a(S'w'
I727
tp442
a(S'p1_tl'
I178
tp443
a(S'w'
I7
tp444
a(S'p2_tl'
I212
tp445
a(S'w'
I727
tp446
a(S'p1_tl'
I179
tp447
a(S'w'
I7
tp448
a(S'p2_tl'
I213
tp449
a(S'w'
I1460
tp450
a(S'p1_tl'
I180
tp451
a(S'w'
I8
tp452
a(S'p2_tl'
I214
tp453
a(S'w'
I726
tp454
a(S'p1_tl'
I179
tp455
a(S'w'
I7
tp456
a(S'p2_tl'
I213
tp457
a(S'w'
I727
tp458
a(S'p1_tl'
I178
tp459
a(S'w'
I7
tp460
a(S'p2_tl'
I212
tp461
a(S'w'
I727
tp462
a(S'p1_tl'
I177
tp463
a(S'w'
I3
tp464
a(S'p1_vo'
I2
tp465
a(S'w'
I5
tp466
a(S'p2_tl'
I211
tp467
a(S'w'
I3
tp468
a(S'p2_vo'
I2
tp469
a(S'w'
I1456
tp470
a(S'p1_tl'
I176
tp471
a(S'w'
I8
tp472
a(S'p2_tl'
I210
tp473
a(S'w'
I726
tp474
a(S'p1_tl'
I177
tp475
a(S'w'
I7
tp476
a(S'p2_tl'
I211
tp477
a(S'w'
I727
tp478
a(S'p1_tl'
I178
tp479
a(S'w'
I7
tp480
a(S'p2_tl'
I212
tp481
a(S'w'
I727
tp482
a(S'p1_tl'
I179
tp483
a(S'w'
I7
tp484
a(S'p2_tl'
I213
tp485
a(S'w'
I728
tp486
a(S'p1_tl'
I103
tp487
a(S'p1_ll'
I0
tp488
a(S'p1_th'
I1
tp489
a(S'w'
I5
tp490
a(S'w'
I3
tp491
a(S'p1_vo'
I3
tp492
a(S'w'
I8
tp493
a(S'p2_tl'
I238
tp494
a(S'w'
I1
tp495
a(S'p2_ll'
I0
tp496
a(S'w'
I4
tp497
a(S'w'
I3
tp498
a(S'p2_vo'
I3
tp499
a(S'w'
I1443
tp500
a(S'p1_vo'
I6
tp501
a(S'w'
I6
tp502
a(S'p2_vo'
I6
tp503
a(S'w'
I3662
tp504
a(S'w'
I7
tp505
a(S'w'
I3663
tp506
a(S'p1_vo'
I5
tp507
a(S'w'
I6
tp508
a(S'p2_vo'
I5
tp509
a(S'w'
I727
tp510
a(S'p1_tl'
I104
tp511
a(S'w'
I7
tp512
a(S'p2_tl'
I239
tp513
a(S'w'
I727
tp514
a(S'p1_tl'
I103
tp515
a(S'w'
I7
tp516
a(S'p2_tl'
I238
tp517
a(S'w'
I2194
tp518
a(S'p1_tl'
I104
tp519
a(S'w'
I7
tp520
a(S'p2_tl'
I239
tp521
a(S'w'
I727
tp522
a(S'p1_tl'
I103
tp523
a(S'w'
I7
tp524
a(S'p2_tl'
I238
tp525
a(S'w'
I1461
tp526
a(S'p1_tl'
I102
tp527
a(S'w'
I3
tp528
a(S'p1_vo'
I4
tp529
a(S'w'
I5
tp530
a(S'p2_tl'
I237
tp531
a(S'w'
I3
tp532
a(S'p2_vo'
I4
tp533
a(S'w'
I723
tp534
a(S'p1_tl'
I103
tp535
a(S'w'
I7
tp536
a(S'p2_tl'
I238
tp537
a(S'w'
I2928
tp538
a(S'p1_tl'
I104
tp539
a(S'w'
I7
tp540
a(S'p2_tl'
I239
tp541
a(S'w'
I1460
tp542
a(S'p1_tl'
I103
tp543
a(S'w'
I7
tp544
a(S'p2_tl'
I238
tp545
a(S'w'
I2929
tp546
a(S'p1_tl'
I102
tp547
a(S'w'
I7
tp548
a(S'p2_tl'
I237
tp549
a(S'w'
I732
tp550
a(S'p2_tl'
I12
tp551
a(S'w'
I1
tp552
a(S'p2_ll'
I0
tp553
a(S'p2_th'
I1
tp554
a(S'w'
I4
tp555
a(S'w'
I3
tp556
a(S'p2_vo'
I3
tp557
a(S'w'
I720
tp558
a(S'p1_tl'
I104
tp559
a(S'w'
I739
tp560
a(S'p2_vo'
I6
tp561
a(S'w'
I729
tp562
a(S'p1_tl'
I105
tp563
a(S'w'
I734
tp564
a(S'p1_tl'
I104
tp565
a(S'w'
I733
tp566
a(S'p1_tl'
I103
tp567
a(S'w'
I734
tp568
a(S'p1_tl'
I102
tp569
a(S'w'
I739
tp570
a(S'w'
I729
tp571
a(S'p1_tl'
I101
tp572
a(S'w'
I3
tp573
a(S'p1_vo'
I3
tp574
a(S'w'
I731
tp575
a(S'p1_tl'
I102
tp576
a(S'w'
I733
tp577
a(S'p1_tl'
I103
tp578
a(S'w'
I734
tp579
a(S'p1_tl'
I104
tp580
a(S'w'
I739
tp581
a(S'p2_vo'
I5
tp582
a(S'w'
I729
tp583
a(S'p1_tl'
I105
tp584
a(S'w'
I7
tp585
a(S'p2_tl'
I13
tp586
a(S'w'
I727
tp587
a(S'p1_tl'
I104
tp588
a(S'w'
I7
tp589
a(S'p2_tl'
I12
tp590
a(S'w'
I726
tp591
a(S'p1_tl'
I103
tp592
a(S'w'
I734
tp593
a(S'p1_tl'
I102
tp594
a(S'w'
I739
tp595
a(S'p2_tl'
I13
tp596
a(S'w'
I729
tp597
a(S'p1_tl'
I101
tp598
a(S'w'
I8
tp599
a(S'p2_tl'
I12
tp600
a(S'w'
I725
tp601
a(S'p1_tl'
I102
tp602
a(S'w'
I734
tp603
a(S'p1_tl'
I103
tp604
a(S'w'
I7
tp605
a(S'p2_tl'
I11
tp606
a(S'w'
I3
tp607
a(S'p2_vo'
I4
tp608
a(S'w'
I724
tp609
a(S'p1_tl'
I104
tp610
a(S'w'
I7
tp611
a(S'p2_tl'
I12
tp612
a(S'w'
I1461
tp613
a(S'p1_tl'
I105
tp614
a(S'w'
I734
tp615
a(S'p1_tl'
I104
tp616
a(S'w'
I733
tp617
a(S'p1_tl'
I103
tp618
a(S'w'
I7
tp619
a(S'p2_tl'
I13
tp620
a(S'w'
I727
tp621
a(S'p1_tl'
I102
tp622
a(S'w'
I3
tp623
a(S'p1_vo'
I2
tp624
a(S'w'
I736
tp625
a(S'p2_tl'
I12
tp626
a(S'w'
I729
tp627
a(S'p1_tl'
I101
tp628
a(S'w'
I734
tp629
a(S'p1_tl'
I102
tp630
a(S'w'
I733
tp631
a(S'p1_tl'
I103
tp632
a(S'w'
I734
tp633
a(S'p1_tl'
I104
tp634
a(S'w'
I7
tp635
a(S'p2_tl'
I11
tp636
a(S'w'
I730
tp637
a(S'p1_tl'
I200
tp638
a(S'w'
I1
tp639
a(S'p1_ll'
I0
tp640
a(S'p1_th'
I0
tp641
a(S'w'
I5
tp642
a(S'w'
I3
tp643
a(S'p1_vo'
I3
tp644
a(S'w'
I9
tp645
a(S'p2_tl'
I12
tp646
a(S'p2_ll'
I0
tp647
a(S'w'
I5
tp648
a(S'w'
I3
tp649
a(S'p2_vo'
I3
tp650
a(S'w'
I1439
tp651
a(S'p1_vo'
I6
tp652
a(S'w'
I6
tp653
a(S'p2_vo'
I6
tp654
a(S'w'
I3663
tp655
a(S'w'
I7
tp656
a(S'w'
I3662
tp657
a(S'p1_vo'
I5
tp658
a(S'w'
I6
tp659
a(S'p2_vo'
I5
tp660
a(S'w'
I727
tp661
a(S'p1_tl'
I201
tp662
a(S'w'
I8
tp663
a(S'p2_tl'
I13
tp664
a(S'w'
I726
tp665
a(S'p1_tl'
I200
tp666
a(S'w'
I7
tp667
a(S'p2_tl'
I12
tp668
a(S'w'
I2195
tp669
a(S'p1_tl'
I201
tp670
a(S'w'
I7
tp671
a(S'p2_tl'
I13
tp672
a(S'w'
I726
tp673
a(S'p1_tl'
I200
tp674
a(S'w'
I7
tp675
a(S'p2_tl'
I12
tp676
a(S'w'
I1461
tp677
a(S'p1_tl'
I199
tp678
a(S'w'
I3
tp679
a(S'p1_vo'
I4
tp680
a(S'w'
I5
tp681
a(S'p2_tl'
I11
tp682
a(S'w'
I3
tp683
a(S'p2_vo'
I4
tp684
a(S'w'
I723
tp685
a(S'p1_tl'
I200
tp686
a(S'w'
I7
tp687
a(S'p2_tl'
I12
tp688
a(S'w'
I2928
tp689
a(S'p1_tl'
I201
tp690
a(S'w'
I7
tp691
a(S'p2_tl'
I13
tp692
a(S'w'
I1461
tp693
a(S'p1_tl'
I200
tp694
a(S'w'
I7
tp695
a(S'p2_tl'
I12
tp696
a(S'w'
I2928
tp697
a(S'p1_tl'
I199
tp698
a(S'w'
I7
tp699
a(S'p2_tl'
I11
tp700
a(S'w'
I1460
tp701
a(S'p1_tl'
I201
tp702
a(S'w'
I8
tp703
a(S'p2_tl'
I13
tp704
a(S'w'
I1460
tp705
a(S'p1_tl'
I202
tp706
a(S'w'
I7
tp707
a(S'p2_tl'
I14
tp708
a(S'w'
I727
tp709
a(S'p1_tl'
I201
tp710
a(S'w'
I7
tp711
a(S'p2_tl'
I13
tp712
a(S'w'
I727
tp713
a(S'p1_tl'
I200
tp714
a(S'w'
I7
tp715
a(S'p2_tl'
I12
tp716
a(S'w'
I726
tp717
a(S'p1_tl'
I199
tp718
a(S'w'
I8
tp719
a(S'p2_tl'
I11
tp720
a(S'w'
I1460
tp721
a(S'p1_tl'
I198
tp722
a(S'w'
I3
tp723
a(S'p1_vo'
I3
tp724
a(S'w'
I5
tp725
a(S'p2_tl'
I10
tp726
a(S'w'
I3
tp727
a(S'p2_vo'
I3
tp728
a(S'w'
I723
tp729
a(S'p1_tl'
I199
tp730
a(S'w'
I7
tp731
a(S'p2_tl'
I11
tp732
a(S'w'
I727
tp733
a(S'p1_tl'
I200
tp734
a(S'w'
I7
tp735
a(S'p2_tl'
I12
tp736
a(S'w'
I726
tp737
a(S'p1_tl'
I201
tp738
a(S'w'
I8
tp739
a(S'p2_tl'
I13
tp740
a(S'w'
I1460
tp741
a(S'p1_tl'
I202
tp742
a(S'w'
I7
tp743
a(S'p2_tl'
I14
tp744
a(S'w'
I727
tp745
a(S'p1_tl'
I201
tp746
a(S'w'
I7
tp747
a(S'p2_tl'
I13
tp748
a(S'w'
I727
tp749
a(S'p1_tl'
I200
tp750
a(S'w'
I7
tp751
a(S'p2_tl'
I12
tp752
a(S'w'
I726
tp753
a(S'p1_tl'
I199
tp754
a(S'w'
I8
tp755
a(S'p2_tl'
I11
tp756
a(S'w'
I1460
tp757
a(S'p1_tl'
I198
tp758
a(S'w'
I8
tp759
a(S'p2_tl'
I10
tp760
a(S'w'
I726
tp761
a(S'p1_tl'
I199
tp762
a(S'w'
I7
tp763
a(S'p2_tl'
I11
tp764
a(S'w'
I727
tp765
a(S'p1_tl'
I200
tp766
a(S'w'
I7
tp767
a(S'p2_tl'
I12
tp768
a(S'w'
I726
tp769
a(S'p1_tl'
I201
tp770
a(S'w'
I8
tp771
a(S'p2_tl'
I13
tp772
a(S'w'
I1460
tp773
a(S'p1_tl'
I202
tp774
a(S'w'
I7
tp775
a(S'p2_tl'
I14
tp776
a(S'w'
I727
tp777
a(S'p1_tl'
I201
tp778
a(S'w'
I7
tp779
a(S'p2_tl'
I13
tp780
a(S'w'
I727
tp781
a(S'p1_tl'
I200
tp782
a(S'w'
I7
tp783
a(S'p2_tl'
I12
tp784
a(S'w'
I726
tp785
a(S'p1_tl'
I199
tp786
a(S'w'
I4
tp787
a(S'p1_vo'
I2
tp788
a(S'w'
I5
tp789
a(S'p2_tl'
I11
tp790
a(S'w'
I3
tp791
a(S'p2_vo'
I2
tp792
a(S'w'
I1456
tp793
a(S'p1_tl'
I198
tp794
a(S'w'
I7
tp795
a(S'p2_tl'
I10
tp796
a(S'w'
I727
tp797
a(S'p1_tl'
I199
tp798
a(S'w'
I7
tp799
a(S'p2_tl'
I11
tp800
a(S'w'
I727
tp801
a(S'p1_tl'
I200
tp802
a(S'w'
I7
tp803
a(S'p2_tl'
I12
tp804
a(S'w'
I726
tp805
a(S'p1_tl'
I201
tp806
a(S'w'
I8
tp807
a(S'p2_tl'
I13
tp808
a(S'w'
I1460
tp809
a(S'p1_tl'
I202
tp810
a(S'w'
I7
tp811
a(S'p2_tl'
I14
tp812
a(S'w'
I727
tp813
a(S'p1_tl'
I201
tp814
a(S'w'
I7
tp815
a(S'p2_tl'
I13
tp816
a(S'w'
I727
tp817
a(S'p1_tl'
I200
tp818
a(S'w'
I7
tp819
a(S'p2_tl'
I12
tp820
a(S'w'
I726
tp821
a(S'p1_tl'
I199
tp822
a(S'w'
I4
tp823
a(S'p1_vo'
I1
tp824
a(S'w'
I5
tp825
a(S'p2_tl'
I11
tp826
a(S'w'
I3
tp827
a(S'p2_vo'
I1
tp828
a(S'w'
I1456
tp829
a(S'p1_tl'
I198
tp830
a(S'w'
I7
tp831
a(S'p2_tl'
I10
tp832
a(S'w'
I727
tp833
a(S'p1_tl'
I199
tp834
a(S'w'
I7
tp835
a(S'p2_tl'
I11
tp836
a(S'w'
I727
tp837
a(S'p1_tl'
I200
tp838
a(S'w'
I7
tp839
a(S'p2_tl'
I12
tp840
a(S'w'
I1460
tp841
a(S'p1_tl'
I201
tp842
a(S'w'
I7
tp843
a(S'p2_tl'
I13
tp844
a(S'w'
I1461
tp845
a(S'p1_tl'
I200
tp846
a(S'w'
I7
tp847
a(S'p2_tl'
I12
tp848
a(S'w'
I2194
tp849
a(S'p1_tl'
I199
tp850
a(S'w'
I7
tp851
a(S'p2_tl'
I11
tp852
a(S'w'
I1461
tp853
a(S'p1_tl'
I200
tp854
a(S'w'
I7
tp855
a(S'p2_tl'
I12
tp856
a(S'w'
I2194
tp857
a(S'p1_tl'
I201
tp858
a(S'w'
I7
tp859
a(S'p2_tl'
I13
tp860
a(S'w'
I730
tp861
a(S'p1_tl'
I212
tp862
a(S'p1_ll'
I0
tp863
a(S'w'
I5
tp864
a(S'w'
I3
tp865
a(S'p1_vo'
I3
tp866
a(S'w'
I728
tp867
a(S'p2_tl'
I12
tp868
a(S'w'
I729
tp869
a(S'p1_vo'
I6
tp870
a(S'w'
I1472
tp871
a(S'p2_tl'
I11
tp872
a(S'w'
I1468
tp873
a(S'p2_tl'
I12
tp874
a(S'w'
I729
tp875
a(S'w'
I1472
tp876
a(S'p2_tl'
I13
tp877
a(S'w'
I3
tp878
a(S'p2_vo'
I0
tp879
a(S'w'
I731
tp880
a(S'p2_tl'
I12
tp881
a(S'w'
I1463
tp882
a(S'p1_vo'
I5
tp883
a(S'w'
I733
tp884
a(S'p1_tl'
I213
tp885
a(S'w'
I734
tp886
a(S'p1_tl'
I212
tp887
a(S'w'
I7
tp888
a(S'p2_tl'
I11
tp889
a(S'w'
I732
tp890
a(S'p2_tl'
I12
tp891
a(S'w'
I1463
tp892
a(S'p1_tl'
I213
tp893
a(S'w'
I733
tp894
a(S'p1_tl'
I212
tp895
a(S'w'
I739
tp896
a(S'p2_tl'
I13
tp897
a(S'w'
I729
tp898
a(S'p1_tl'
I211
tp899
a(S'w'
I3
tp900
a(S'p1_vo'
I4
tp901
a(S'w'
I5
tp902
a(S'p2_tl'
I12
tp903
a(S'w'
I726
tp904
a(S'p1_tl'
I212
tp905
a(S'w'
I2206
tp906
a(S'p2_tl'
I11
tp907
a(S'w'
I729
tp908
a(S'p1_tl'
I213
tp909
a(S'w'
I7
tp910
a(S'p2_tl'
I12
tp911
a(S'w'
I1461
tp912
a(S'p1_tl'
I212
tp913
a(S'w'
I1472
tp914
a(S'p2_tl'
I13
tp915
a(S'w'
I734
tp916
a(S'p2_tl'
I12
tp917
a(S'w'
I729
tp918
a(S'p1_tl'
I211
tp919
a(S'w'
I1468
tp920
a(S'p1_tl'
I213
tp921
a(S'w'
I738
tp922
a(S'p2_tl'
I11
tp923
a(S'w'
I729
tp924
a(S'p1_tl'
I214
tp925
a(S'w'
I7
tp926
a(S'p2_tl'
I12
tp927
a(S'w'
I727
tp928
a(S'p1_tl'
I213
tp929
a(S'w'
I734
tp930
a(S'p1_tl'
I212
tp931
a(S'w'
I734
tp932
a(S'p1_tl'
I211
tp933
a(S'w'
I738
tp934
a(S'p2_tl'
I13
tp935
a(S'w'
I729
tp936
a(S'p1_tl'
I210
tp937
a(S'w'
I3
tp938
a(S'p1_vo'
I3
tp939
a(S'w'
I5
tp940
a(S'p2_tl'
I12
tp941
a(S'w'
I726
tp942
a(S'p1_tl'
I211
tp943
a(S'w'
I735
tp944
a(S'p1_tl'
I238
tp945
a(S'p1_ll'
I0
tp946
a(S'w'
I5
tp947
a(S'w'
I1462
tp948
a(S'p1_vo'
I6
tp949
a(S'w'
I5
tp950
a(S'p2_tl'
I11
tp951
a(S'w'
I733
tp952
a(S'p2_tl'
I12
tp953
a(S'w'
I2930
tp954
a(S'w'
I8
tp955
a(S'p2_tl'
I13
tp956
a(S'w'
I731
tp957
a(S'p2_tl'
I12
tp958
a(S'w'
I2931
tp959
a(S'p1_vo'
I5
tp960
a(S'w'
I5
tp961
a(S'p2_tl'
I11
tp962
a(S'w'
I728
tp963
a(S'p1_tl'
I239
tp964
a(S'w'
I7
tp965
a(S'p2_tl'
I12
tp966
a(S'w'
I727
tp967
a(S'p1_tl'
I238
tp968
a(S'w'
I2201
tp969
a(S'p1_tl'
I239
tp970
a(S'w'
I7
tp971
a(S'p2_tl'
I13
tp972
a(S'w'
I727
tp973
a(S'p1_tl'
I238
tp974
a(S'w'
I7
tp975
a(S'p2_tl'
I12
tp976
a(S'w'
I1461
tp977
a(S'p1_tl'
I237
tp978
a(S'w'
I3
tp979
a(S'p1_vo'
I4
tp980
a(S'w'
I731
tp981
a(S'p1_tl'
I238
tp982
a(S'w'
I738
tp983
a(S'p2_tl'
I11
tp984
a(S'w'
I734
tp985
a(S'p2_tl'
I12
tp986
a(S'w'
I1463
tp987
a(S'p1_tl'
I239
tp988
a(S'w'
I1467
tp989
a(S'p1_tl'
I238
tp990
a(S'w'
I7
tp991
a(S'p2_tl'
I13
tp992
a(S'w'
I732
tp993
a(S'p2_tl'
I12
tp994
a(S'w'
I2197
tp995
a(S'p1_tl'
I237
tp996
a(S'w'
I738
tp997
a(S'p2_tl'
I11
tp998
a(S'w'
I729
tp999
a(S'p1_tl'
I239
tp1000
a(S'w'
I7
tp1001
a(S'p2_tl'
I12
tp1002
a(S'w'
I1461
tp1003
a(S'p1_tl'
I240
tp1004
a(S'w'
I734
tp1005
a(S'p1_tl'
I239
tp1006
a(S'w'
I733
tp1007
a(S'p1_tl'
I238
tp1008
a(S'w'
I8
tp1009
a(S'p2_tl'
I13
tp1010
a(S'w'
I726
tp1011
a(S'p1_tl'
I237
tp1012
a(S'w'
I7
tp1013
a(S'p2_tl'
I12
tp1014
a(S'w'
I1461
tp1015
a(S'p1_tl'
I236
tp1016
a(S'w'
I3
tp1017
a(S'p1_vo'
I3
tp1018
a(S'w'
I731
tp1019
a(S'p1_tl'
I237
tp1020
a(S'w'
I733
tp1021
a(S'p1_tl'
I238
tp1022
a(S'w'
I8
tp1023
a(S'p2_tl'
I11
tp1024
a(S'w'
I729
tp1025
a(S'p1_tl'
I212
tp1026
a(S'p1_ll'
I0
tp1027
a(S'w'
I5
tp1028
a(S'w'
I10
tp1029
a(S'p2_tl'
I12
tp1030
a(S'p2_ll'
I0
tp1031
a(S'w'
I5
tp1032
a(S'w'
I3
tp1033
a(S'p2_vo'
I3
tp1034
a(S'w'
I1443
tp1035
a(S'p1_vo'
I6
tp1036
a(S'w'
I5
tp1037
a(S'p2_vo'
I6
tp1038
a(S'w'
I3663
tp1039
a(S'w'
I7
tp1040
a(S'w'
I3662
tp1041
a(S'p1_vo'
I5
tp1042
a(S'w'
I6
tp1043
a(S'p2_vo'
I5
tp1044
a(S'w'
I728
tp1045
a(S'p1_tl'
I213
tp1046
a(S'w'
I7
tp1047
a(S'p2_tl'
I13
tp1048
a(S'w'
I726
tp1049
a(S'p1_tl'
I212
tp1050
a(S'w'
I8
tp1051
a(S'p2_tl'
I12
tp1052
a(S'w'
I2194
tp1053
a(S'p1_tl'
I213
tp1054
a(S'w'
I7
tp1055
a(S'p2_tl'
I13
tp1056
a(S'w'
I727
tp1057
a(S'p1_tl'
I212
tp1058
a(S'w'
I7
tp1059
a(S'p2_tl'
I12
tp1060
a(S'w'
I1460
tp1061
a(S'p1_tl'
I211
tp1062
a(S'w'
I3
tp1063
a(S'p1_vo'
I4
tp1064
a(S'w'
I6
tp1065
a(S'p2_tl'
I11
tp1066
a(S'w'
I3
tp1067
a(S'p2_vo'
I4
tp1068
a(S'w'
I722
tp1069
a(S'p1_tl'
I212
tp1070
a(S'w'
I7
tp1071
a(S'p2_tl'
I12
tp1072
a(S'w'
I2928
tp1073
a(S'p1_tl'
I213
tp1074
a(S'w'
I7
tp1075
a(S'p2_tl'
I13
tp1076
a(S'w'
I1461
tp1077
a(S'p1_tl'
I212
tp1078
a(S'w'
I7
tp1079
a(S'p2_tl'
I12
tp1080
a(S'w'
I2928
tp1081
a(S'p1_tl'
I211
tp1082
a(S'w'
I7
tp1083
a(S'p2_tl'
I11
tp1084
a(S'w'
I1461
tp1085
a(S'p1_tl'
I213
tp1086
a(S'w'
I7
tp1087
a(S'p2_tl'
I13
tp1088
a(S'w'
I1460
tp1089
a(S'p1_tl'
I214
tp1090
a(S'w'
I7
tp1091
a(S'p2_tl'
I14
tp1092
a(S'w'
I727
tp1093
a(S'p1_tl'
I213
tp1094
a(S'w'
I7
tp1095
a(S'p2_tl'
I13
tp1096
a(S'w'
I727
tp1097
a(S'p1_tl'
I212
tp1098
a(S'w'
I7
tp1099
a(S'p2_tl'
I12
tp1100
a(S'w'
I727
tp1101
a(S'p1_tl'
I211
tp1102
a(S'w'
I7
tp1103
a(S'p2_tl'
I11
tp1104
a(S'w'
I1460
tp1105
a(S'p1_tl'
I210
tp1106
a(S'w'
I3
tp1107
a(S'p1_vo'
I3
tp1108
a(S'w'
I6
tp1109
a(S'p2_tl'
I10
tp1110
a(S'w'
I3
tp1111
a(S'p2_vo'
I3
tp1112
a(S'w'
I722
tp1113
a(S'p1_tl'
I211
tp1114
a(S'w'
I7
tp1115
a(S'p2_tl'
I11
tp1116
a(S'w'
I727
tp1117
a(S'p1_tl'
I212
tp1118
a(S'w'
I7
tp1119
a(S'p2_tl'
I12
tp1120
a(S'w'
I727
tp1121
a(S'p1_tl'
I213
tp1122
a(S'w'
I7
tp1123
a(S'p2_tl'
I13
tp1124
a(S'w'
I1460
tp1125
a(S'p1_tl'
I214
tp1126
a(S'w'
I7
tp1127
a(S'p2_tl'
I14
tp1128
a(S'w'
I727
tp1129
a(S'p1_tl'
I213
tp1130
a(S'w'
I7
tp1131
a(S'p2_tl'
I13
tp1132
a(S'w'
I727
tp1133
a(S'p1_tl'
I212
tp1134
a(S'w'
I7
tp1135
a(S'p2_tl'
I12
tp1136
a(S'w'
I727
tp1137
a(S'p1_tl'
I211
tp1138
a(S'w'
I7
tp1139
a(S'p2_tl'
I11
tp1140
a(S'w'
I1460
tp1141
a(S'p1_tl'
I210
tp1142
a(S'w'
I9
tp1143
a(S'p2_tl'
I10
tp1144
a(S'w'
I725
tp1145
a(S'p1_tl'
I211
tp1146
a(S'w'
I7
tp1147
a(S'p2_tl'
I11
tp1148
a(S'w'
I727
tp1149
a(S'p1_tl'
I212
tp1150
a(S'w'
I7
tp1151
a(S'p2_tl'
I12
tp1152
a(S'w'
I727
tp1153
a(S'p1_tl'
I213
tp1154
a(S'w'
I7
tp1155
a(S'p2_tl'
I13
tp1156
a(S'w'
I1460
tp1157
a(S'p1_tl'
I214
tp1158
a(S'w'
I7
tp1159
a(S'p2_tl'
I14
tp1160
a(S'w'
I727
tp1161
a(S'p1_tl'
I213
tp1162
a(S'w'
I7
tp1163
a(S'p2_tl'
I13
tp1164
a(S'w'
I727
tp1165
a(S'p1_tl'
I212
tp1166
a(S'w'
I7
tp1167
a(S'p2_tl'
I12
tp1168
a(S'w'
I727
tp1169
a(S'p1_tl'
I211
tp1170
a(S'w'
I3
tp1171
a(S'p1_vo'
I2
tp1172
a(S'w'
I5
tp1173
a(S'p2_tl'
I11
tp1174
a(S'w'
I3
tp1175
a(S'p2_vo'
I2
tp1176
a(S'w'
I1456
tp1177
a(S'p1_tl'
I210
tp1178
a(S'w'
I7
tp1179
a(S'p2_tl'
I10
tp1180
a(S'w'
I727
tp1181
a(S'p1_tl'
I211
tp1182
a(S'w'
I7
tp1183
a(S'p2_tl'
I11
tp1184
a(S'w'
I727
tp1185
a(S'p1_tl'
I212
tp1186
a(S'w'
I7
tp1187
a(S'p2_tl'
I12
tp1188
a(S'w'
I727
tp1189
a(S'p1_tl'
I213
tp1190
a(S'w'
I7
tp1191
a(S'p2_tl'
I13
tp1192
a(S'w'
I1460
tp1193
a(S'p1_tl'
I214
tp1194
a(S'w'
I7
tp1195
a(S'p2_tl'
I14
tp1196
a(S'w'
I727
tp1197
a(S'p1_tl'
I213
tp1198
a(S'w'
I7
tp1199
a(S'p2_tl'
I13
tp1200
a(S'w'
I727
tp1201
a(S'p1_tl'
I212
tp1202
a(S'w'
I7
tp1203
a(S'p2_tl'
I12
tp1204
a(S'w'
I727
tp1205
a(S'p1_tl'
I211
tp1206
a(S'w'
I3
tp1207
a(S'p1_vo'
I1
tp1208
a(S'w'
I5
tp1209
a(S'p2_tl'
I11
tp1210
a(S'w'
I3
tp1211
a(S'p2_vo'
I1
tp1212
a(S'w'
I1456
tp1213
a(S'p1_tl'
I210
tp1214
a(S'w'
I7
tp1215
a(S'p2_tl'
I10
tp1216
a(S'w'
I727
tp1217
a(S'p1_tl'
I211
tp1218
a(S'w'
I7
tp1219
a(S'p2_tl'
I11
tp1220
a(S'w'
I727
tp1221
a(S'p1_tl'
I212
tp1222
a(S'w'
I7
tp1223
a(S'p2_tl'
I12
tp1224
a(S'w'
I1461
tp1225
a(S'p1_tl'
I213
tp1226
a(S'w'
I7
tp1227
a(S'p2_tl'
I13
tp1228
a(S'w'
I1460
tp1229
a(S'p1_tl'
I212
tp1230
a(S'w'
I7
tp1231
a(S'p2_tl'
I12
tp1232
a(S'w'
I2194
tp1233
a(S'p1_tl'
I211
tp1234
a(S'w'
I8
tp1235
a(S'p2_tl'
I11
tp1236
a(S'w'
I1460
tp1237
a(S'p1_tl'
I212
tp1238
a(S'w'
I7
tp1239
a(S'p2_tl'
I12
tp1240
a(S'w'
I2194
tp1241
a(S'p1_tl'
I213
tp1242
a(S'w'
I8
tp1243
a(S'p2_tl'
I13
tp1244
a(S'w'
I1460
tp1245
a(S'p1_tl'
I212
tp1246
a(S'w'
I7
tp1247
a(S'p2_tl'
I12
tp1248
a(S'w'
I2195
tp1249
a(S'p1_tl'
I211
tp1250
a(S'w'
I7
tp1251
a(S'p2_tl'
I11
tp1252
a(S'w'
I1460
tp1253
a(S'p1_tl'
I212
tp1254
a(S'w'
I7
tp1255
a(S'p2_tl'
I12
tp1256
a(S'w'
I2195
tp1257
a(S'p1_tl'
I213
tp1258
a(S'w'
I3
tp1259
a(S'p1_vo'
I0
tp1260
a(S'w'
I5
tp1261
a(S'p2_tl'
I13
tp1262
a(S'w'
I3
tp1263
a(S'p2_vo'
I0
tp1264
a(S'w'
I722
tp1265
a(S'p1_tl'
I212
tp1266
a(S'w'
I7
tp1267
a(S'p2_tl'
I12
tp1268
a(S'w'
I2929
tp1269
a(S'p1_tl'
I211
tp1270
a(S'w'
I6
tp1271
a(S'p2_tl'
I11
tp1272
a(S'w'
I727
tp1273
a(S'p1_tl'
I212
tp1274
a(S'w'
I7
tp1275
a(S'p2_tl'
I12
tp1276
a(S'w'
I2929
tp1277
a(S'p1_tl'
I213
tp1278
a(S'w'
I6
tp1279
a(S'p2_tl'
I13
tp1280
a(S'w'
I727
tp1281
a(S'p1_tl'
I212
tp1282
a(S'w'
I7
tp1283
a(S'p2_tl'
I12
tp1284
a(S'w'
I2929
tp1285
a(S'p1_tl'
I211
tp1286
a(S'w'
I7
tp1287
a(S'p2_tl'
I11
tp1288
a(S'w'
I726
tp1289
a(S'p1_tl'
I212
tp1290
a(S'w'
I7
tp1291
a(S'p2_tl'
I12
tp1292
a(S'w'
I2929
tp1293
a(S'p1_tl'
I213
tp1294
a(S'w'
I6
tp1295
a(S'p2_tl'
I13
tp1296
a(S'w'
I727
tp1297
a(S'p1_tl'
I212
tp1298
a(S'w'
I7
tp1299
a(S'p2_tl'
I12
tp1300
a(S'w'
I2929
tp1301
a(S'p1_tl'
I211
tp1302
a(S'w'
I7
tp1303
a(S'p2_tl'
I11
tp1304
a(S'w'
I726
tp1305
a(S'p1_tl'
I212
tp1306
a(S'w'
I7
tp1307
a(S'p2_tl'
I12
tp1308
a(S'w'
I2929
tp1309
a(S'p1_tl'
I213
tp1310
a(S'w'
I6
tp1311
a(S'p2_tl'
I13
tp1312
a(S'w'
I727
tp1313
a(S'p1_tl'
I212
tp1314
a(S'w'
I7
tp1315
a(S'p2_tl'
I12
tp1316
a(S'w'
I2929
tp1317
a(S'p1_tl'
I211
tp1318
a(S'w'
I7
tp1319
a(S'p2_tl'
I11
tp1320
a(S'w'
I726
tp1321
a(S'p1_tl'
I212
tp1322
a(S'w'
I7
tp1323
a(S'p2_tl'
I12
tp1324
a(S'w'
I2929
tp1325
a(S'p1_tl'
I213
tp1326
a(S'w'
I7
tp1327
a(S'p2_tl'
I13
tp1328
a(S'w'
I726
tp1329
a(S'p1_tl'
I212
tp1330
a(S'w'
I7
tp1331
a(S'p2_tl'
I12
tp1332
a(S'w'
I2929
tp1333
a(S'p1_tl'
I211
tp1334
a(S'w'
I7
tp1335
a(S'p2_tl'
I11
tp1336
a(S'w'
I726
tp1337
a(S'p1_tl'
I212
tp1338
a(S'w'
I7
tp1339
a(S'p2_tl'
I12
tp1340
a(S'w'
I2929
tp1341
a(S'p1_tl'
I213
tp1342
a(S'w'
I7
tp1343
a(S'p2_tl'
I13
tp1344
a(S'w'
I726
tp1345
a(S'p1_tl'
I212
tp1346
a(S'w'
I7
tp1347
a(S'p2_tl'
I12
tp1348
a(S'w'
I2929
tp1349
a(S'p1_tl'
I211
tp1350
a(S'w'
I7
tp1351
a(S'p2_tl'
I11
tp1352
a(S'w'
I726
tp1353
a(S'p1_tl'
I212
tp1354
a(S'w'
I7
tp1355
a(S'p2_tl'
I12
tp1356
a(S'w'
I2929
tp1357
a(S'p1_tl'
I213
tp1358
a(S'w'
I7
tp1359
a(S'p2_tl'
I13
tp1360
a(S'w'
I726
tp1361
a(S'p1_tl'
I212
tp1362
a(S'w'
I7
tp1363
a(S'p2_tl'
I12
tp1364
a(S'w'
I2929
tp1365
a(S'p1_tl'
I211
tp1366
a(S'w'
I7
tp1367
a(S'p2_tl'
I11
tp1368
a(S'w'
I726
tp1369
a(S'p1_tl'
I212
tp1370
a(S'w'
I7
tp1371
a(S'p2_tl'
I12
tp1372
a(S'w'
I2929
tp1373
a(S'p1_tl'
I213
tp1374
a(S'w'
I7
tp1375
a(S'p2_tl'
I13
tp1376
a(S'w'
I726
tp1377
a(S'p1_tl'
I212
tp1378
a(S'w'
I7
tp1379
a(S'p2_tl'
I12
tp1380
a(S'w'
I2929
tp1381
a(S'p1_tl'
I211
tp1382
a(S'w'
I7
tp1383
a(S'p2_tl'
I11
tp1384
a(S'w'
I726
tp1385
a(S'p1_tl'
I212
tp1386
a(S'w'
I7
tp1387
a(S'p2_tl'
I12
tp1388
a(S'w'
I730
tp1389
a(S'p1_lh'
I0
tp1390
a(S'w'
I9
tp1391
a(S'p2_tl'
I26
tp1392
a(S'p2_ll'
I0
tp1393
a(S'p2_th'
I2
tp1394
a(S'w'
I5
tp1395
a(S'w'
I3
tp1396
a(S'p2_vo'
I3
tp1397
a(S'w'
I1451
tp1398
a(S'p2_vo'
I6
tp1399
a(S'w'
I3669
tp1400
a(S'w'
I3670
tp1401
a(S'p2_vo'
I5
tp1402
a(S'w'
I733
tp1403
a(S'p2_tl'
I27
tp1404
a(S'w'
I733
tp1405
a(S'p2_tl'
I26
tp1406
a(S'w'
I2202
tp1407
a(S'p2_tl'
I27
tp1408
a(S'w'
I734
tp1409
a(S'p2_tl'
I26
tp1410
a(S'w'
I1467
tp1411
a(S'p2_tl'
I25
tp1412
a(S'w'
I3
tp1413
a(S'p2_vo'
I4
tp1414
a(S'w'
I731
tp1415
a(S'p2_tl'
I26
tp1416
a(S'w'
I2935
tp1417
a(S'p2_tl'
I27
tp1418
a(S'w'
I1468
tp1419
a(S'p2_tl'
I26
tp1420
a(S'w'
I2935
tp1421
a(S'p2_tl'
I25
tp1422
a(S'w'
I1468
tp1423
a(S'p2_tl'
I27
tp1424
a(S'w'
I1465
tp1425
a(S'w'
I1
tp1426
a(S'p1_tl'
I103
tp1427
a(S'p1_ll'
I0
tp1428
a(S'p1_th'
I1
tp1429
a(S'w'
I5
tp1430
a(S'w'
I3
tp1431
a(S'p1_lh'
I1
tp1432
a(S'p1_vo'
I3
tp1433
a(S'w'
I5
tp1434
a(S'p2_tl'
I28
tp1435
a(S'w'
I724
tp1436
a(S'p2_tl'
I27
tp1437
a(S'w'
I730
tp1438
a(S'p1_vo'
I6
tp1439
a(S'w'
I5
tp1440
a(S'p2_tl'
I26
tp1441
a(S'w'
I732
tp1442
a(S'p2_tl'
I25
tp1443
a(S'w'
I1468
tp1444
a(S'p2_tl'
I24
tp1445
a(S'w'
I3
tp1446
a(S'p2_vo'
I3
tp1447
a(S'w'
I731
tp1448
a(S'p2_tl'
I25
tp1449
a(S'w'
I729
tp1450
a(S'w'
I7
tp1451
a(S'p2_tl'
I26
tp1452
a(S'w'
I731
tp1453
a(S'p2_tl'
I27
tp1454
a(S'w'
I1468
tp1455
a(S'p2_tl'
I28
tp1456
a(S'w'
I734
tp1457
a(S'p2_tl'
I27
tp1458
a(S'w'
I730
tp1459
a(S'p1_vo'
I5
tp1460
a(S'w'
I5
tp1461
a(S'p2_tl'
I26
tp1462
a(S'w'
I728
tp1463
a(S'p1_tl'
I104
tp1464
a(S'w'
I7
tp1465
a(S'p2_tl'
I25
tp1466
a(S'w'
I727
tp1467
a(S'p1_tl'
I103
tp1468
a(S'w'
I738
tp1469
a(S'p2_tl'
I24
tp1470
a(S'w'
I734
tp1471
a(S'p2_tl'
I25
tp1472
a(S'w'
I729
tp1473
a(S'p1_tl'
I104
tp1474
a(S'w'
I7
tp1475
a(S'p2_tl'
I26
tp1476
a(S'w'
I727
tp1477
a(S'p1_tl'
I103
tp1478
a(S'w'
I7
tp1479
a(S'p2_tl'
I27
tp1480
a(S'w'
I1460
tp1481
a(S'p1_tl'
I102
tp1482
a(S'w'
I4
tp1483
a(S'p1_vo'
I4
tp1484
a(S'w'
I5
tp1485
a(S'p2_tl'
I28
tp1486
a(S'w'
I725
tp1487
a(S'p1_tl'
I103
tp1488
a(S'w'
I7
tp1489
a(S'p2_tl'
I27
tp1490
a(S'w'
I732
tp1491
a(S'p2_tl'
I26
tp1492
a(S'w'
I733
tp1493
a(S'p2_tl'
I25
tp1494
a(S'w'
I3
tp1495
a(S'p2_vo'
I2
tp1496
a(S'w'
I1460
tp1497
a(S'p1_tl'
I104
tp1498
a(S'w'
I7
tp1499
a(S'p2_tl'
I24
tp1500
a(S'w'
I732
tp1501
a(S'p2_tl'
I25
tp1502
a(S'w'
I729
tp1503
a(S'p1_tl'
I103
tp1504
a(S'w'
I7
tp1505
a(S'p2_tl'
I26
tp1506
a(S'w'
I731
tp1507
a(S'p2_tl'
I27
tp1508
a(S'w'
I1468
tp1509
a(S'p2_tl'
I28
tp1510
a(S'w'
I729
tp1511
a(S'p1_tl'
I102
tp1512
a(S'w'
I7
tp1513
a(S'p2_tl'
I27
tp1514
a(S'w'
I732
tp1515
a(S'p2_tl'
I26
tp1516
a(S'w'
I729
tp1517
a(S'p1_tl'
I104
tp1518
a(S'w'
I7
tp1519
a(S'p2_tl'
I25
tp1520
a(S'w'
I3
tp1521
a(S'p2_vo'
I1
tp1522
a(S'w'
I1459
tp1523
a(S'p1_tl'
I12
tp1524
a(S'p1_ll'
I0
tp1525
a(S'w'
I5
tp1526
a(S'w'
I3
tp1527
a(S'p1_vo'
I3
tp1528
a(S'w'
I5
tp1529
a(S'p2_tl'
I24
tp1530
a(S'w'
I724
tp1531
a(S'p2_tl'
I25
tp1532
a(S'w'
I730
tp1533
a(S'p1_vo'
I6
tp1534
a(S'w'
I5
tp1535
a(S'p2_tl'
I26
tp1536
a(S'w'
I1466
tp1537
a(S'p2_tl'
I27
tp1538
a(S'w'
I1468
tp1539
a(S'p2_tl'
I26
tp1540
a(S'w'
I729
tp1541
a(S'w'
I1472
tp1542
a(S'p2_tl'
I25
tp1543
a(S'w'
I1468
tp1544
a(S'p2_tl'
I26
tp1545
a(S'w'
I730
tp1546
a(S'p1_vo'
I5
tp1547
a(S'w'
I733
tp1548
a(S'p1_tl'
I13
tp1549
a(S'w'
I734
tp1550
a(S'p1_tl'
I12
tp1551
a(S'w'
I7
tp1552
a(S'p2_tl'
I27
tp1553
a(S'w'
I1465
tp1554
a(S'p2_tl'
I26
tp1555
a(S'w'
I729
tp1556
a(S'p1_tl'
I13
tp1557
a(S'w'
I734
tp1558
a(S'p1_tl'
I12
tp1559
a(S'w'
I738
tp1560
a(S'p2_tl'
I25
tp1561
a(S'w'
I729
tp1562
a(S'p1_tl'
I11
tp1563
a(S'w'
I4
tp1564
a(S'p1_vo'
I4
tp1565
a(S'w'
I730
tp1566
a(S'p1_tl'
I12
tp1567
a(S'w'
I7
tp1568
a(S'p2_tl'
I26
tp1569
a(S'w'
I2199
tp1570
a(S'p2_tl'
I27
tp1571
a(S'w'
I3
tp1572
a(S'p2_vo'
I0
tp1573
a(S'w'
I726
tp1574
a(S'p1_tl'
I13
tp1575
a(S'w'
I8
tp1576
a(S'p2_tl'
I26
tp1577
a(S'w'
I1460
tp1578
a(S'p1_tl'
I12
tp1579
a(S'w'
I1472
tp1580
a(S'p2_tl'
I25
tp1581
a(S'w'
I734
tp1582
a(S'p2_tl'
I26
tp1583
a(S'w'
I729
tp1584
a(S'p1_tl'
I11
tp1585
a(S'w'
I1468
tp1586
a(S'p1_tl'
I13
tp1587
a(S'w'
I738
tp1588
a(S'p2_tl'
I27
tp1589
a(S'w'
I731
tp1590
a(S'p1_tl'
I103
tp1591
a(S'p1_ll'
I0
tp1592
a(S'w'
I5
tp1593
a(S'w'
I3
tp1594
a(S'p1_vo'
I3
tp1595
a(S'w'
I5
tp1596
a(S'p2_tl'
I26
tp1597
a(S'w'
I1454
tp1598
a(S'p1_vo'
I6
tp1599
a(S'w'
I1471
tp1600
a(S'p2_tl'
I25
tp1601
a(S'w'
I734
tp1602
a(S'p2_tl'
I26
tp1603
a(S'w'
I1463
tp1604
a(S'w'
I1472
tp1605
a(S'p2_tl'
I27
tp1606
a(S'w'
I734
tp1607
a(S'p2_tl'
I26
tp1608
a(S'w'
I1464
tp1609
a(S'p1_vo'
I5
tp1610
a(S'w'
I733
tp1611
a(S'p1_tl'
I104
tp1612
a(S'w'
I734
tp1613
a(S'p1_tl'
I103
tp1614
a(S'w'
I7
tp1615
a(S'p2_tl'
I25
tp1616
a(S'w'
I731
tp1617
a(S'p2_tl'
I26
tp1618
a(S'w'
I1463
tp1619
a(S'p1_tl'
I104
tp1620
a(S'w'
I734
tp1621
a(S'p1_tl'
I103
tp1622
a(S'w'
I738
tp1623
a(S'p2_tl'
I27
tp1624
a(S'w'
I729
tp1625
a(S'p1_tl'
I102
tp1626
a(S'w'
I4
tp1627
a(S'p1_vo'
I4
tp1628
a(S'w'
I5
tp1629
a(S'p2_tl'
I26
tp1630
a(S'w'
I725
tp1631
a(S'p1_tl'
I103
tp1632
a(S'w'
I2206
tp1633
a(S'p2_tl'
I25
tp1634
a(S'w'
I729
tp1635
a(S'p1_tl'
I104
tp1636
a(S'w'
I8
tp1637
a(S'p2_tl'
I26
tp1638
a(S'w'
I1460
tp1639
a(S'p1_tl'
I103
tp1640
a(S'w'
I1472
tp1641
a(S'p2_tl'
I27
tp1642
a(S'w'
I734
tp1643
a(S'p2_tl'
I26
tp1644
a(S'w'
I729
tp1645
a(S'p1_tl'
I102
tp1646
a(S'w'
I1468
tp1647
a(S'p1_tl'
I104
tp1648
a(S'w'
I735
tp1649
a(S'p1_lh'
I0
tp1650
a(S'p1_vo'
I0
tp1651
a(S'w'
I7
tp1652
a(S'p2_tl'
I25
tp1653
a(S'w'
I730
tp1654
a.