(lp1
(S'clock'
p2
I1789772
tp3
a(S'p1_cv'
I1
tp4
a(S'p2_cv'
I1
tp5
a(S'no_cv'
I1
tp6
a(S'no_ll'
I0
tp7
a(S'ch_no'
I1
tp8
a(S'ch_tr'
I1
tp9
a(S'ch_p2'
I1
tp10
a(S'ch_p1'
I1
tp11
a(S'fc_mo'
I1
tp12
a(S'tr_ll'
I3
tp13
a(S'w'
I743
tp14
a(S'w'
I1
tp15
a(S'p1_tl'
I26
tp16
a(S'p1_ll'
I0
tp17
a(S'p1_th'
I2
tp18
a(S'w'
I5
tp19
a(S'w'
I3
tp20
a(S'p1_du'
I2
tp21
a(S'p1_lh'
I1
tp22
a(S'p1_vo'
I5
tp23
a(S'w'
I13
tp24
a(S'p2_tl'
I223
tp25
a(S'p2_ll'
I0
tp26
a(S'p2_th'
I1
tp27
a(S'w'
I5
tp28
a(S'w'
I3
tp29
a(S'p2_du'
I2
tp30
a(S'p2_lh'
I1
tp31
a(S'p2_vo'
I5
tp32
a(S'w'
I2899
tp33
a(S'p1_vo'
I6
tp34
a(S'w'
I6
tp35
a(S'p2_vo'
I6
tp36
a(S'w'
I2195
tp37
a(S'w'
I7
tp38
a(S'w'
I727
tp39
a(S'p1_vo'
I7
tp40
a(S'w'
I6
tp41
a(S'p2_vo'
I7
tp42
a(S'w'
I3663
tp43
a(S'p1_tl'
I27
tp44
a(S'w'
I7
tp45
a(S'p2_tl'
I224
tp46
a(S'w'
I726
tp47
a(S'p1_tl'
I26
tp48
a(S'w'
I8
tp49
a(S'p2_tl'
I223
tp50
a(S'w'
I2194
tp51
a(S'p1_tl'
I27
tp52
a(S'w'
I7
tp53
a(S'p2_tl'
I224
tp54
a(S'w'
I727
tp55
a(S'p1_tl'
I26
tp56
a(S'w'
I7
tp57
a(S'p2_tl'
I223
tp58
a(S'w'
I1460
tp59
a(S'p1_tl'
I25
tp60
a(S'w'
I7
tp61
a(S'p2_tl'
I222
tp62
a(S'w'
I727
tp63
a(S'p1_tl'
I26
tp64
a(S'w'
I7
tp65
a(S'p2_tl'
I223
tp66
a(S'w'
I2928
tp67
a(S'p1_tl'
I27
tp68
a(S'w'
I7
tp69
a(S'p2_tl'
I224
tp70
a(S'w'
I1461
tp71
a(S'p1_tl'
I26
tp72
a(S'w'
I7
tp73
a(S'p2_tl'
I223
tp74
a(S'w'
I2928
tp75
a(S'p1_tl'
I25
tp76
a(S'w'
I7
tp77
a(S'p2_tl'
I222
tp78
a(S'w'
I728
tp79
a(S'p1_vo'
I6
tp80
a(S'w'
I5
tp81
a(S'p2_vo'
I6
tp82
a(S'w'
I728
tp83
a(S'p1_tl'
I27
tp84
a(S'w'
I7
tp85
a(S'p2_tl'
I224
tp86
a(S'w'
I1460
tp87
a(S'p1_tl'
I28
tp88
a(S'w'
I7
tp89
a(S'p2_tl'
I225
tp90
a(S'w'
I727
tp91
a(S'p1_tl'
I27
tp92
a(S'w'
I7
tp93
a(S'p2_tl'
I224
tp94
a(S'w'
I727
tp95
a(S'p1_tl'
I26
tp96
a(S'w'
I7
tp97
a(S'p2_tl'
I223
tp98
a(S'w'
I729
tp99
a(S'p1_tl'
I58
tp100
a(S'w'
I1
tp101
a(S'p1_ll'
I0
tp102
a(S'w'
I5
tp103
a(S'w'
I3
tp104
a(S'p1_vo'
I5
tp105
a(S'w'
I8
tp106
a(S'p2_tl'
I207
tp107
a(S'p2_ll'
I0
tp108
a(S'p2_th'
I2
tp109
a(S'w'
I5
tp110
a(S'w'
I3
tp111
a(S'p2_vo'
I5
tp112
a(S'w'
I2909
tp113
a(S'p1_vo'
I6
tp114
a(S'w'
I5
tp115
a(S'p2_vo'
I6
tp116
a(S'w'
I2195
tp117
a(S'w'
I7
tp118
a(S'w'
I728
tp119
a(S'p1_vo'
I7
tp120
a(S'w'
I6
tp121
a(S'p2_vo'
I7
tp122
a(S'w'
I3662
tp123
a(S'p1_tl'
I59
tp124
a(S'w'
I7
tp125
a(S'p2_tl'
I208
tp126
a(S'w'
I727
tp127
a(S'p1_tl'
I58
tp128
a(S'w'
I7
tp129
a(S'p2_tl'
I207
tp130
a(S'w'
I2194
tp131
a(S'p1_tl'
I59
tp132
a(S'w'
I7
tp133
a(S'p2_tl'
I208
tp134
a(S'w'
I727
tp135
a(S'p1_tl'
I58
tp136
a(S'w'
I7
tp137
a(S'p2_tl'
I207
tp138
a(S'w'
I1461
tp139
a(S'p1_tl'
I57
tp140
a(S'w'
I7
tp141
a(S'p2_tl'
I206
tp142
a(S'w'
I727
tp143
a(S'p1_tl'
I58
tp144
a(S'w'
I7
tp145
a(S'p2_tl'
I207
tp146
a(S'w'
I2928
tp147
a(S'p1_tl'
I59
tp148
a(S'w'
I7
tp149
a(S'p2_tl'
I208
tp150
a(S'w'
I1460
tp151
a(S'p1_tl'
I58
tp152
a(S'w'
I7
tp153
a(S'p2_tl'
I207
tp154
a(S'w'
I2929
tp155
a(S'p1_tl'
I57
tp156
a(S'w'
I7
tp157
a(S'p2_tl'
I206
tp158
a(S'w'
I727
tp159
a(S'p1_vo'
I6
tp160
a(S'w'
I6
tp161
a(S'p2_vo'
I6
tp162
a(S'w'
I727
tp163
a(S'p1_tl'
I59
tp164
a(S'w'
I7
tp165
a(S'p2_tl'
I208
tp166
a(S'w'
I1461
tp167
a(S'p1_tl'
I60
tp168
a(S'w'
I7
tp169
a(S'p2_tl'
I209
tp170
a(S'w'
I727
tp171
a(S'p1_tl'
I59
tp172
a(S'w'
I7
tp173
a(S'p2_tl'
I208
tp174
a(S'w'
I726
tp175
a(S'p1_tl'
I58
tp176
a(S'w'
I7
tp177
a(S'p2_tl'
I207
tp178
a(S'w'
I727
tp179
a(S'p1_tl'
I57
tp180
a(S'w'
I7
tp181
a(S'p2_tl'
I206
tp182
a(S'w'
I1461
tp183
a(S'p1_tl'
I56
tp184
a(S'w'
I7
tp185
a(S'p2_tl'
I205
tp186
a(S'w'
I727
tp187
a(S'p1_tl'
I57
tp188
a(S'w'
I7
tp189
a(S'p2_tl'
I206
tp190
a(S'w'
I726
tp191
a(S'p1_tl'
I58
tp192
a(S'w'
I8
tp193
a(S'p2_tl'
I207
tp194
a(S'w'
I726
tp195
a(S'p1_tl'
I59
tp196
a(S'w'
I7
tp197
a(S'p2_tl'
I208
tp198
a(S'w'
I1461
tp199
a(S'p1_tl'
I60
tp200
a(S'w'
I7
tp201
a(S'p2_tl'
I209
tp202
a(S'w'
I727
tp203
a(S'p1_tl'
I59
tp204
a(S'w'
I7
tp205
a(S'p2_tl'
I208
tp206
a(S'w'
I726
tp207
a(S'p1_tl'
I58
tp208
a(S'w'
I7
tp209
a(S'p2_tl'
I207
tp210
a(S'w'
I727
tp211
a(S'p1_tl'
I57
tp212
a(S'w'
I7
tp213
a(S'p2_tl'
I206
tp214
a(S'w'
I1461
tp215
a(S'p1_tl'
I56
tp216
a(S'w'
I7
tp217
a(S'p2_tl'
I205
tp218
a(S'w'
I727
tp219
a(S'p1_tl'
I57
tp220
a(S'w'
I7
tp221
a(S'p2_tl'
I206
tp222
a(S'w'
I726
tp223
a(S'p1_tl'
I58
tp224
a(S'w'
I8
tp225
a(S'p2_tl'
I207
tp226
a(S'w'
I726
tp227
a(S'p1_tl'
I59
tp228
a(S'w'
I7
tp229
a(S'p2_tl'
I208
tp230
a(S'w'
I1461
tp231
a(S'p1_tl'
I60
tp232
a(S'w'
I7
tp233
a(S'p2_tl'
I209
tp234
a(S'w'
I727
tp235
a(S'p1_tl'
I59
tp236
a(S'w'
I7
tp237
a(S'p2_tl'
I208
tp238
a(S'w'
I726
tp239
a(S'p1_tl'
I58
tp240
a(S'w'
I8
tp241
a(S'p2_tl'
I207
tp242
a(S'w'
I726
tp243
a(S'p1_tl'
I57
tp244
a(S'w'
I7
tp245
a(S'p2_tl'
I206
tp246
a(S'w'
I1461
tp247
a(S'p1_tl'
I56
tp248
a(S'w'
I7
tp249
a(S'p2_tl'
I205
tp250
a(S'w'
I727
tp251
a(S'p1_tl'
I57
tp252
a(S'w'
I7
tp253
a(S'p2_tl'
I206
tp254
a(S'w'
I726
tp255
a(S'p1_tl'
I58
tp256
a(S'w'
I8
tp257
a(S'p2_tl'
I207
tp258
a(S'w'
I726
tp259
a(S'p1_tl'
I59
tp260
a(S'w'
I7
tp261
a(S'p2_tl'
I208
tp262
a(S'w'
I1461
tp263
a(S'p1_tl'
I60
tp264
a(S'w'
I7
tp265
a(S'p2_tl'
I209
tp266
a(S'w'
I727
tp267
a(S'p1_tl'
I59
tp268
a(S'w'
I7
tp269
a(S'p2_tl'
I208
tp270
a(S'w'
I726
tp271
a(S'p1_tl'
I58
tp272
a(S'w'
I8
tp273
a(S'p2_tl'
I207
tp274
a(S'w'
I726
tp275
a(S'p1_tl'
I57
tp276
a(S'w'
I7
tp277
a(S'p2_tl'
I206
tp278
a(S'w'
I1461
tp279
a(S'p1_tl'
I56
tp280
a(S'w'
I7
tp281
a(S'p2_tl'
I205
tp282
a(S'w'
I727
tp283
a(S'p1_tl'
I57
tp284
a(S'w'
I7
tp285
a(S'p2_tl'
I206
tp286
a(S'w'
I726
tp287
a(S'p1_tl'
I58
tp288
a(S'w'
I8
tp289
a(S'p2_tl'
I207
tp290
a(S'w'
I1460
tp291
a(S'p1_tl'
I59
tp292
a(S'w'
I7
tp293
a(S'p2_tl'
I208
tp294
a(S'w'
I1461
tp295
a(S'p1_tl'
I58
tp296
a(S'w'
I7
tp297
a(S'p2_tl'
I207
tp298
a(S'w'
I725
tp299
a(S'p1_du'
I0
tp300
a(S'p1_lh'
I0
tp301
a(S'p1_vo'
I0
tp302
a(S'w'
I6
tp303
a(S'p2_du'
I0
tp304
a(S'p2_lh'
I0
tp305
a(S'p2_vo'
I0
tp306
a(S'w'
I1
tp307
a.