(lp1
(S'clock'
p2
I1789772
tp3
a(S'fc_mo'
I0
tp4
a(S'ch_no'
I0
tp5
a(S'ch_tr'
I0
tp6
a(S'ch_p2'
I0
tp7
a(S'ch_p1'
I0
tp8
a(S'w'
I2
tp9
a(S'ch_no'
I0
tp10
a(S'ch_tr'
I0
tp11
a(S'ch_p2'
I0
tp12
a(S'ch_p1'
I0
tp13
a(S'w'
I37
tp14
a(S'ch_no'
I1
tp15
a(S'ch_tr'
I1
tp16
a(S'ch_p2'
I1
tp17
a(S'ch_p1'
I0
tp18
a(S'w'
I5
tp19
a(S'p2_du'
I1
tp20
a(S'p2_lh'
I1
tp21
a(S'p2_cv'
I1
tp22
a(S'p2_vo'
I8
tp23
a(S'p2_sn'
I1
tp24
a(S'w'
I3
tp25
a(S'p2_tl'
I68
tp26
a(S'w'
I1
tp27
a(S'p2_ll'
I0
tp28
a(S'p2_th'
I2
tp29
a(S'w'
I3
tp30
a(S'tr_lh'
I1
tp31
a(S'tr_lr'
I31
tp32
a(S'w'
I1
tp33
a(S'w'
I3
tp34
a(S'tr_tl'
I132
tp35
a(S'tr_ll'
I0
tp36
a(S'tr_th'
I1
tp37
a(S'w'
I4
tp38
a(S'no_lh'
I1
tp39
a(S'no_cv'
I1
tp40
a(S'no_vo'
I9
tp41
a(S'w'
I1
tp42
a(S'no_np'
I4
tp43
a(S'w'
I1
tp44
a(S'no_ll'
I0
tp45
a(S'w'
I621
tp46
a(S'p2_du'
I3
tp47
a(S'p2_vo'
I13
tp48
a(S'w'
I733
tp49
a(S'p2_tl'
I63
tp50
a(S'w'
I5
tp51
a(S'tr_tl'
I126
tp52
a(S'w'
I731
tp53
a(S'tr_tl'
I124
tp54
a(S'w'
I734
tp55
a(S'p2_tl'
I58
tp56
a(S'w'
I7
tp57
a(S'no_vo'
I8
tp58
a(S'w'
I2926
tp59
a(S'ch_no'
I1
tp60
a(S'ch_tr'
I1
tp61
a(S'ch_p2'
I1
tp62
a(S'ch_p1'
I0
tp63
a(S'w'
I4
tp64
a(S'p2_vo'
I12
tp65
a(S'w'
I4
tp66
a(S'p2_tl'
I59
tp67
a(S'w'
I5
tp68
a(S'tr_tl'
I127
tp69
a(S'w'
I4
tp70
a(S'no_vo'
I7
tp71
a(S'w'
I1451
tp72
a(S'p2_vo'
I11
tp73
a(S'w'
I4
tp74
a(S'p2_tl'
I68
tp75
a(S'w'
I6
tp76
a(S'tr_tl'
I132
tp77
a(S'w'
I1461
tp78
a(S'p2_vo'
I10
tp79
a(S'w'
I4
tp80
a(S'p2_tl'
I63
tp81
a(S'w'
I5
tp82
a(S'tr_tl'
I126
tp83
a(S'w'
I4
tp84
a(S'no_vo'
I6
tp85
a(S'w'
I719
tp86
a(S'tr_tl'
I124
tp87
a(S'w'
I732
tp88
a(S'p2_vo'
I8
tp89
a(S'w'
I4
tp90
a(S'p2_tl'
I58
tp91
a(S'w'
I1492
tp92
a(S'ch_no'
I1
tp93
a(S'ch_tr'
I1
tp94
a(S'ch_p2'
I1
tp95
a(S'ch_p1'
I1
tp96
a(S'w'
I2
tp97
a(S'p1_du'
I1
tp98
a(S'p1_lh'
I1
tp99
a(S'p1_cv'
I1
tp100
a(S'p1_vo'
I6
tp101
a(S'w'
I1
tp102
a(S'p1_sn'
I1
tp103
a(S'w'
I3
tp104
a(S'p1_tl'
I70
tp105
a(S'w'
I1
tp106
a(S'p1_ll'
I0
tp107
a(S'p1_th'
I2
tp108
a(S'w'
I9
tp109
a(S'no_vo'
I5
tp110
a(S'w'
I692
tp111
a(S'p1_du'
I3
tp112
a(S'p1_vo'
I11
tp113
a(S'w'
I4
tp114
a(S'p2_vo'
I7
tp115
a(S'w'
I726
tp116
a(S'p1_tl'
I65
tp117
a(S'w'
I5
tp118
a(S'p2_tl'
I59
tp119
a(S'w'
I6
tp120
a(S'tr_tl'
I127
tp121
a(S'w'
I1463
tp122
a(S'p1_tl'
I60
tp123
a(S'w'
I3
tp124
a(S'p2_vo'
I6
tp125
a(S'w'
I4
tp126
a(S'p2_tl'
I68
tp127
a(S'w'
I6
tp128
a(S'tr_tl'
I132
tp129
a(S'w'
I3
tp130
a(S'no_vo'
I4
tp131
a(S'w'
I1447
tp132
a(S'p2_tl'
I63
tp133
a(S'w'
I6
tp134
a(S'tr_tl'
I126
tp135
a(S'w'
I729
tp136
a(S'p2_vo'
I5
tp137
a(S'w'
I6
tp138
a(S'tr_tl'
I124
tp139
a(S'w'
I732
tp140
a(S'p1_vo'
I10
tp141
a(S'w'
I3
tp142
a(S'p1_tl'
I61
tp143
a(S'w'
I4
tp144
a(S'p2_vo'
I4
tp145
a(S'w'
I3
tp146
a(S'p2_tl'
I58
tp147
a(S'w'
I7
tp148
a(S'no_vo'
I3
tp149
a(S'w'
I713
tp150
a(S'p2_vo'
I3
tp151
a(S'w'
I733
tp152
a(S'ch_no'
I1
tp153
a(S'ch_tr'
I0
tp154
a(S'ch_p2'
I1
tp155
a(S'ch_p1'
I1
tp156
a(S'w'
I3
tp157
a(S'p1_vo'
I9
tp158
a(S'w'
I3
tp159
a(S'p1_tl'
I70
tp160
a(S'w'
I4
tp161
a(S'p2_vo'
I2
tp162
a(S'w'
I724
tp163
a(S'p2_vo'
I6
tp164
a(S'w'
I738
tp165
a(S'ch_no'
I1
tp166
a(S'ch_tr'
I0
tp167
a(S'ch_p2'
I1
tp168
a(S'ch_p1'
I1
tp169
a(S'w'
I31
tp170
a(S'ch_no'
I1
tp171
a(S'ch_tr'
I1
tp172
a(S'ch_p2'
I1
tp173
a(S'ch_p1'
I1
tp174
a(S'w'
I3
tp175
a(S'p1_vo'
I8
tp176
a(S'w'
I3
tp177
a(S'p1_tl'
I65
tp178
a(S'w'
I4
tp179
a(S'p2_du'
I1
tp180
a(S'p2_vo'
I8
tp181
a(S'w'
I4
tp182
a(S'p2_tl'
I206
tp183
a(S'p2_ll'
I0
tp184
a(S'p2_th'
I1
tp185
a(S'w'
I7
tp186
a(S'tr_tl'
I132
tp187
a(S'tr_ll'
I0
tp188
a(S'w'
I4
tp189
a(S'no_vo'
I9
tp190
a(S'w'
I1
tp191
a(S'no_np'
I2
tp192
a(S'w'
I1
tp193
a(S'no_ll'
I0
tp194
a(S'w'
I672
tp195
a(S'p2_du'
I3
tp196
a(S'p2_vo'
I13
tp197
a(S'w'
I731
tp198
a(S'p1_vo'
I6
tp199
a(S'w'
I4
tp200
a(S'p1_tl'
I60
tp201
a(S'w'
I6
tp202
a(S'p2_tl'
I201
tp203
a(S'w'
I5
tp204
a(S'tr_tl'
I126
tp205
a(S'w'
I726
tp206
a(S'tr_tl'
I124
tp207
a(S'w'
I4
tp208
a(S'no_vo'
I8
tp209
a(S'w'
I724
tp210
a(S'p2_tl'
I196
tp211
a(S'w'
I732
tp212
a(S'p1_vo'
I5
tp213
a(S'w'
I736
tp214
a(S'p1_tl'
I61
tp215
a(S'w'
I9
tp216
a(S'no_vo'
I7
tp217
a(S'w'
I717
tp218
a(S'ch_no'
I1
tp219
a(S'ch_tr'
I1
tp220
a(S'ch_p2'
I1
tp221
a(S'ch_p1'
I1
tp222
a(S'w'
I744
tp223
a(S'p1_vo'
I4
tp224
a(S'w'
I3
tp225
a(S'p1_tl'
I70
tp226
a(S'w'
I4
tp227
a(S'p2_vo'
I12
tp228
a(S'w'
I3
tp229
a(S'p2_tl'
I197
tp230
a(S'w'
I6
tp231
a(S'tr_tl'
I127
tp232
a(S'w'
I722
tp233
a(S'no_vo'
I6
tp234
a(S'w'
I728
tp235
a(S'p1_tl'
I65
tp236
a(S'w'
I4
tp237
a(S'p2_vo'
I11
tp238
a(S'w'
I3
tp239
a(S'p2_tl'
I206
tp240
a(S'w'
I6
tp241
a(S'tr_tl'
I132
tp242
a(S'w'
I718
tp243
a(S'p1_vo'
I3
tp244
a(S'w'
I741
tp245
a(S'p1_vo'
I2
tp246
a(S'w'
I3
tp247
a(S'p1_tl'
I60
tp248
a(S'w'
I4
tp249
a(S'p2_vo'
I10
tp250
a(S'w'
I4
tp251
a(S'p2_tl'
I201
tp252
a(S'w'
I5
tp253
a(S'tr_tl'
I126
tp254
a(S'w'
I4
tp255
a(S'no_vo'
I5
tp256
a(S'w'
I707
tp257
a(S'p1_vo'
I1
tp258
a(S'w'
I9
tp259
a(S'tr_tl'
I124
tp260
a(S'w'
I724
tp261
a(S'ch_no'
I1
tp262
a(S'ch_tr'
I1
tp263
a(S'ch_p2'
I1
tp264
a(S'ch_p1'
I0
tp265
a(S'w'
I5
tp266
a(S'p2_vo'
I8
tp267
a(S'w'
I4
tp268
a(S'p2_tl'
I196
tp269
a(S'w'
I726
tp270
a(S'ch_no'
I1
tp271
a(S'ch_tr'
I1
tp272
a(S'ch_p2'
I1
tp273
a(S'ch_p1'
I1
tp274
a(S'w'
I3
tp275
a(S'p1_vo'
I4
tp276
a(S'w'
I1
tp277
a(S'p1_ll'
I0
tp278
a(S'w'
I9
tp279
a(S'no_vo'
I4
tp280
a(S'w'
I730
tp281
a(S'p1_du'
I1
tp282
a(S'p1_vo'
I6
tp283
a(S'w'
I4
tp284
a(S'p1_tl'
I208
tp285
a(S'p1_ll'
I0
tp286
a(S'p1_th'
I1
tp287
a(S'w'
I723
tp288
a(S'p1_du'
I3
tp289
a(S'p1_vo'
I11
tp290
a(S'w'
I4
tp291
a(S'p2_vo'
I7
tp292
a(S'w'
I729
tp293
a(S'p1_tl'
I203
tp294
a(S'w'
I6
tp295
a(S'p2_tl'
I197
tp296
a(S'w'
I6
tp297
a(S'tr_tl'
I127
tp298
a(S'w'
I3
tp299
a(S'no_vo'
I3
tp300
a(S'w'
I1453
tp301
a(S'p1_tl'
I198
tp302
a(S'w'
I4
tp303
a(S'p2_vo'
I6
tp304
a(S'w'
I3
tp305
a(S'p2_tl'
I206
tp306
a(S'w'
I6
tp307
a(S'tr_tl'
I132
tp308
a(S'w'
I726
tp309
a(S'no_vo'
I2
tp310
a(S'w'
I728
tp311
a(S'p2_tl'
I201
tp312
a(S'w'
I5
tp313
a(S'tr_tl'
I126
tp314
a(S'w'
I730
tp315
a(S'p2_vo'
I5
tp316
a(S'w'
I6
tp317
a(S'tr_tl'
I124
tp318
a(S'w'
I731
tp319
a(S'p1_vo'
I10
tp320
a(S'w'
I4
tp321
a(S'p1_tl'
I199
tp322
a(S'w'
I4
tp323
a(S'p2_vo'
I4
tp324
a(S'w'
I3
tp325
a(S'p2_tl'
I196
tp326
a(S'w'
I6
tp327
a(S'no_vo'
I1
tp328
a(S'w'
I713
tp329
a(S'p2_vo'
I3
tp330
a(S'w'
I734
tp331
a(S'ch_no'
I1
tp332
a(S'ch_tr'
I0
tp333
a(S'ch_p2'
I1
tp334
a(S'ch_p1'
I1
tp335
a(S'w'
I3
tp336
a(S'p1_vo'
I9
tp337
a(S'w'
I3
tp338
a(S'p1_tl'
I208
tp339
a(S'w'
I4
tp340
a(S'p2_vo'
I2
tp341
a(S'w'
I720
tp342
a(S'ch_no'
I0
tp343
a(S'ch_tr'
I0
tp344
a(S'ch_p2'
I1
tp345
a(S'ch_p1'
I1
tp346
a(S'w'
I5
tp347
a(S'p2_vo'
I6
tp348
a(S'w'
I736
tp349
a(S'ch_no'
I0
tp350
a(S'ch_tr'
I0
tp351
a(S'ch_p2'
I1
tp352
a(S'ch_p1'
I1
tp353
a(S'w'
I29
tp354
a(S'ch_no'
I1
tp355
a(S'ch_tr'
I1
tp356
a(S'ch_p2'
I1
tp357
a(S'ch_p1'
I1
tp358
a(S'w'
I3
tp359
a(S'p1_vo'
I8
tp360
a(S'w'
I3
tp361
a(S'p1_tl'
I203
tp362
a(S'w'
I4
tp363
a(S'p2_du'
I1
tp364
a(S'p2_vo'
I8
tp365
a(S'w'
I4
tp366
a(S'p2_tl'
I36
tp367
a(S'p2_ll'
I0
tp368
a(S'p2_th'
I2
tp369
a(S'w'
I7
tp370
a(S'tr_tl'
I111
tp371
a(S'w'
I1
tp372
a(S'tr_ll'
I0
tp373
a(S'w'
I3
tp374
a(S'no_vo'
I9
tp375
a(S'w'
I2
tp376
a(S'no_ll'
I0
tp377
a(S'w'
I674
tp378
a(S'p2_du'
I3
tp379
a(S'p2_vo'
I13
tp380
a(S'w'
I732
tp381
a(S'p1_vo'
I6
tp382
a(S'w'
I3
tp383
a(S'p1_tl'
I198
tp384
a(S'w'
I6
tp385
a(S'p2_tl'
I31
tp386
a(S'w'
I6
tp387
a(S'tr_tl'
I105
tp388
a(S'w'
I726
tp389
a(S'tr_tl'
I103
tp390
a(S'w'
I4
tp391
a(S'no_vo'
I8
tp392
a(S'w'
I724
tp393
a(S'p2_tl'
I26
tp394
a(S'w'
I732
tp395
a(S'p1_vo'
I5
tp396
a(S'w'
I736
tp397
a(S'p1_tl'
I199
tp398
a(S'w'
I9
tp399
a(S'no_vo'
I7
tp400
a(S'w'
I1458
tp401
a(S'ch_no'
I1
tp402
a(S'ch_tr'
I1
tp403
a(S'ch_p2'
I1
tp404
a(S'ch_p1'
I1
tp405
a(S'w'
I2
tp406
a(S'p1_vo'
I4
tp407
a(S'w'
I4
tp408
a(S'p1_tl'
I208
tp409
a(S'w'
I3
tp410
a(S'p2_vo'
I12
tp411
a(S'w'
I4
tp412
a(S'p2_tl'
I27
tp413
a(S'w'
I5
tp414
a(S'tr_tl'
I106
tp415
a(S'w'
I722
tp416
a(S'no_vo'
I6
tp417
a(S'w'
I728
tp418
a(S'p1_tl'
I203
tp419
a(S'w'
I4
tp420
a(S'p2_vo'
I11
tp421
a(S'w'
I3
tp422
a(S'p2_tl'
I36
tp423
a(S'w'
I6
tp424
a(S'tr_tl'
I111
tp425
a(S'w'
I718
tp426
a(S'p1_vo'
I3
tp427
a(S'w'
I742
tp428
a(S'p1_vo'
I2
tp429
a(S'w'
I3
tp430
a(S'p1_tl'
I198
tp431
a(S'w'
I4
tp432
a(S'p2_vo'
I10
tp433
a(S'w'
I3
tp434
a(S'p2_tl'
I31
tp435
a(S'w'
I6
tp436
a(S'tr_tl'
I105
tp437
a(S'w'
I3
tp438
a(S'no_vo'
I5
tp439
a(S'w'
I707
tp440
a(S'p1_vo'
I1
tp441
a(S'w'
I9
tp442
a(S'tr_tl'
I103
tp443
a(S'w'
I724
tp444
a(S'ch_no'
I1
tp445
a(S'ch_tr'
I1
tp446
a(S'ch_p2'
I1
tp447
a(S'ch_p1'
I0
tp448
a(S'w'
I6
tp449
a(S'p2_vo'
I8
tp450
a(S'w'
I3
tp451
a(S'p2_tl'
I26
tp452
a(S'w'
I727
tp453
a(S'ch_no'
I1
tp454
a(S'ch_tr'
I1
tp455
a(S'ch_p2'
I1
tp456
a(S'ch_p1'
I1
tp457
a(S'w'
I2
tp458
a(S'p1_vo'
I4
tp459
a(S'w'
I2
tp460
a(S'p1_ll'
I0
tp461
a(S'w'
I9
tp462
a(S'no_vo'
I4
tp463
a(S'w'
I730
tp464
a(S'p1_du'
I1
tp465
a(S'p1_vo'
I6
tp466
a(S'w'
I3
tp467
a(S'p1_tl'
I38
tp468
a(S'w'
I1
tp469
a(S'p1_ll'
I0
tp470
a(S'p1_th'
I2
tp471
a(S'w'
I723
tp472
a(S'p1_du'
I3
tp473
a(S'p1_vo'
I11
tp474
a(S'w'
I4
tp475
a(S'p2_vo'
I7
tp476
a(S'w'
I729
tp477
a(S'p1_tl'
I33
tp478
a(S'w'
I6
tp479
a(S'p2_tl'
I27
tp480
a(S'w'
I5
tp481
a(S'tr_tl'
I106
tp482
a(S'w'
I4
tp483
a(S'no_vo'
I3
tp484
a(S'w'
I1452
tp485
a(S'p1_tl'
I28
tp486
a(S'w'
I4
tp487
a(S'p2_vo'
I6
tp488
a(S'w'
I3
tp489
a(S'p2_tl'
I36
tp490
a(S'w'
I6
tp491
a(S'tr_tl'
I111
tp492
a(S'w'
I727
tp493
a(S'no_vo'
I2
tp494
a(S'w'
I727
tp495
a(S'p2_tl'
I31
tp496
a(S'w'
I6
tp497
a(S'tr_tl'
I105
tp498
a(S'w'
I729
tp499
a(S'p2_vo'
I5
tp500
a(S'w'
I6
tp501
a(S'tr_tl'
I103
tp502
a(S'w'
I732
tp503
a(S'p1_vo'
I10
tp504
a(S'w'
I3
tp505
a(S'p1_tl'
I29
tp506
a(S'w'
I4
tp507
a(S'p2_vo'
I4
tp508
a(S'w'
I3
tp509
a(S'p2_tl'
I26
tp510
a(S'w'
I7
tp511
a(S'no_vo'
I1
tp512
a(S'w'
I712
tp513
a(S'p2_vo'
I3
tp514
a(S'w'
I734
tp515
a(S'ch_no'
I1
tp516
a(S'ch_tr'
I0
tp517
a(S'ch_p2'
I1
tp518
a(S'ch_p1'
I1
tp519
a(S'w'
I3
tp520
a(S'p1_vo'
I9
tp521
a(S'w'
I3
tp522
a(S'p1_tl'
I38
tp523
a(S'w'
I4
tp524
a(S'p2_vo'
I2
tp525
a(S'w'
I720
tp526
a(S'ch_no'
I0
tp527
a(S'ch_tr'
I0
tp528
a(S'ch_p2'
I1
tp529
a(S'ch_p1'
I1
tp530
a(S'w'
I6
tp531
a(S'p2_vo'
I6
tp532
a(S'w'
I741
tp533
a(S'ch_no'
I0
tp534
a(S'ch_tr'
I0
tp535
a(S'ch_p2'
I1
tp536
a(S'ch_p1'
I1
tp537
a(S'w'
I35
tp538
a(S'ch_no'
I1
tp539
a(S'ch_tr'
I1
tp540
a(S'ch_p2'
I1
tp541
a(S'ch_p1'
I1
tp542
a(S'w'
I2
tp543
a(S'p1_vo'
I8
tp544
a(S'w'
I4
tp545
a(S'p1_tl'
I33
tp546
a(S'w'
I3
tp547
a(S'p2_du'
I1
tp548
a(S'p2_vo'
I8
tp549
a(S'w'
I4
tp550
a(S'p2_tl'
I68
tp551
a(S'w'
I1
tp552
a(S'p2_ll'
I0
tp553
a(S'w'
I6
tp554
a(S'tr_tl'
I132
tp555
a(S'w'
I1
tp556
a(S'tr_ll'
I0
tp557
a(S'w'
I3
tp558
a(S'no_vo'
I9
tp559
a(S'w'
I2
tp560
a(S'no_np'
I4
tp561
a(S'no_ll'
I0
tp562
a(S'w'
I664
tp563
a(S'p2_du'
I3
tp564
a(S'p2_vo'
I13
tp565
a(S'w'
I731
tp566
a(S'p1_vo'
I6
tp567
a(S'w'
I4
tp568
a(S'p1_tl'
I28
tp569
a(S'w'
I5
tp570
a(S'p2_tl'
I63
tp571
a(S'w'
I6
tp572
a(S'tr_tl'
I126
tp573
a(S'w'
I723
tp574
a(S'tr_tl'
I124
tp575
a(S'w'
I734
tp576
a(S'p2_tl'
I58
tp577
a(S'w'
I7
tp578
a(S'no_vo'
I8
tp579
a(S'w'
I722
tp580
a(S'p1_vo'
I5
tp581
a(S'w'
I733
tp582
a(S'p1_tl'
I29
tp583
a(S'w'
I1473
tp584
a(S'ch_no'
I1
tp585
a(S'ch_tr'
I1
tp586
a(S'ch_p2'
I1
tp587
a(S'ch_p1'
I1
tp588
a(S'w'
I3
tp589
a(S'p1_vo'
I4
tp590
a(S'w'
I3
tp591
a(S'p1_tl'
I38
tp592
a(S'w'
I4
tp593
a(S'p2_vo'
I12
tp594
a(S'w'
I3
tp595
a(S'p2_tl'
I59
tp596
a(S'w'
I6
tp597
a(S'tr_tl'
I127
tp598
a(S'w'
I4
tp599
a(S'no_vo'
I7
tp600
a(S'w'
I1443
tp601
a(S'p1_tl'
I33
tp602
a(S'w'
I3
tp603
a(S'p2_vo'
I11
tp604
a(S'w'
I4
tp605
a(S'p2_tl'
I68
tp606
a(S'w'
I6
tp607
a(S'tr_tl'
I132
tp608
a(S'w'
I718
tp609
a(S'p1_vo'
I3
tp610
a(S'w'
I741
tp611
a(S'p1_vo'
I2
tp612
a(S'w'
I3
tp613
a(S'p1_tl'
I28
tp614
a(S'w'
I4
tp615
a(S'p2_vo'
I10
tp616
a(S'w'
I3
tp617
a(S'p2_tl'
I63
tp618
a(S'w'
I6
tp619
a(S'tr_tl'
I126
tp620
a(S'w'
I4
tp621
a(S'no_vo'
I6
tp622
a(S'w'
I707
tp623
a(S'p1_vo'
I1
tp624
a(S'w'
I9
tp625
a(S'tr_tl'
I124
tp626
a(S'w'
I724
tp627
a(S'ch_no'
I1
tp628
a(S'ch_tr'
I1
tp629
a(S'ch_p2'
I1
tp630
a(S'ch_p1'
I0
tp631
a(S'w'
I5
tp632
a(S'p2_vo'
I8
tp633
a(S'w'
I4
tp634
a(S'p2_tl'
I58
tp635
a(S'w'
I723
tp636
a(S'ch_no'
I1
tp637
a(S'ch_tr'
I1
tp638
a(S'ch_p2'
I1
tp639
a(S'ch_p1'
I1
tp640
a(S'w'
I3
tp641
a(S'p1_vo'
I4
tp642
a(S'w'
I1
tp643
a(S'p1_ll'
I0
tp644
a(S'w'
I748
tp645
a(S'p1_du'
I1
tp646
a(S'p1_vo'
I6
tp647
a(S'w'
I4
tp648
a(S'p1_tl'
I70
tp649
a(S'p1_ll'
I0
tp650
a(S'w'
I9
tp651
a(S'no_vo'
I5
tp652
a(S'w'
I708
tp653
a(S'p1_du'
I3
tp654
a(S'p1_vo'
I11
tp655
a(S'w'
I4
tp656
a(S'p2_vo'
I7
tp657
a(S'w'
I726
tp658
a(S'p1_tl'
I65
tp659
a(S'w'
I6
tp660
a(S'p2_tl'
I59
tp661
a(S'w'
I5
tp662
a(S'tr_tl'
I127
tp663
a(S'w'
I1463
tp664
a(S'p1_tl'
I60
tp665
a(S'w'
I4
tp666
a(S'p2_vo'
I6
tp667
a(S'w'
I3
tp668
a(S'p2_tl'
I68
tp669
a(S'w'
I6
tp670
a(S'tr_tl'
I132
tp671
a(S'w'
I4
tp672
a(S'no_vo'
I4
tp673
a(S'w'
I1447
tp674
a(S'p2_tl'
I63
tp675
a(S'w'
I5
tp676
a(S'tr_tl'
I126
tp677
a(S'w'
I729
tp678
a(S'p2_vo'
I5
tp679
a(S'w'
I7
tp680
a(S'tr_tl'
I124
tp681
a(S'w'
I731
tp682
a(S'p1_vo'
I10
tp683
a(S'w'
I4
tp684
a(S'p1_tl'
I61
tp685
a(S'w'
I3
tp686
a(S'p2_vo'
I4
tp687
a(S'w'
I4
tp688
a(S'p2_tl'
I58
tp689
a(S'w'
I6
tp690
a(S'no_vo'
I3
tp691
a(S'w'
I713
tp692
a(S'p2_vo'
I3
tp693
a(S'w'
I734
tp694
a(S'ch_no'
I1
tp695
a(S'ch_tr'
I0
tp696
a(S'ch_p2'
I1
tp697
a(S'ch_p1'
I1
tp698
a(S'w'
I2
tp699
a(S'p1_vo'
I9
tp700
a(S'w'
I4
tp701
a(S'p1_tl'
I70
tp702
a(S'w'
I3
tp703
a(S'p2_vo'
I2
tp704
a(S'w'
I724
tp705
a(S'p2_vo'
I6
tp706
a(S'w'
I738
tp707
a(S'ch_no'
I1
tp708
a(S'ch_tr'
I0
tp709
a(S'ch_p2'
I1
tp710
a(S'ch_p1'
I1
tp711
a(S'w'
I31
tp712
a(S'ch_no'
I1
tp713
a(S'ch_tr'
I1
tp714
a(S'ch_p2'
I1
tp715
a(S'ch_p1'
I1
tp716
a(S'w'
I3
tp717
a(S'p1_vo'
I8
tp718
a(S'w'
I3
tp719
a(S'p1_tl'
I65
tp720
a(S'w'
I4
tp721
a(S'p2_du'
I1
tp722
a(S'p2_vo'
I8
tp723
a(S'w'
I4
tp724
a(S'p2_tl'
I206
tp725
a(S'p2_ll'
I0
tp726
a(S'p2_th'
I1
tp727
a(S'w'
I7
tp728
a(S'tr_tl'
I132
tp729
a(S'w'
I1
tp730
a(S'tr_ll'
I0
tp731
a(S'w'
I3
tp732
a(S'no_vo'
I9
tp733
a(S'w'
I2
tp734
a(S'no_np'
I2
tp735
a(S'no_ll'
I0
tp736
a(S'w'
I672
tp737
a(S'p2_du'
I3
tp738
a(S'p2_vo'
I13
tp739
a(S'w'
I732
tp740
a(S'p1_vo'
I6
tp741
a(S'w'
I3
tp742
a(S'p1_tl'
I60
tp743
a(S'w'
I6
tp744
a(S'p2_tl'
I201
tp745
a(S'w'
I6
tp746
a(S'tr_tl'
I126
tp747
a(S'w'
I726
tp748
a(S'tr_tl'
I124
tp749
a(S'w'
I3
tp750
a(S'no_vo'
I8
tp751
a(S'w'
I724
tp752
a(S'p2_tl'
I196
tp753
a(S'w'
I732
tp754
a(S'p1_vo'
I5
tp755
a(S'w'
I737
tp756
a(S'p1_tl'
I61
tp757
a(S'w'
I9
tp758
a(S'no_vo'
I7
tp759
a(S'w'
I716
tp760
a(S'ch_no'
I1
tp761
a(S'ch_tr'
I1
tp762
a(S'ch_p2'
I1
tp763
a(S'ch_p1'
I1
tp764
a(S'w'
I744
tp765
a(S'p1_vo'
I4
tp766
a(S'w'
I3
tp767
a(S'p1_tl'
I70
tp768
a(S'w'
I4
tp769
a(S'p2_vo'
I12
tp770
a(S'w'
I3
tp771
a(S'p2_tl'
I197
tp772
a(S'w'
I6
tp773
a(S'tr_tl'
I127
tp774
a(S'w'
I722
tp775
a(S'no_vo'
I6
tp776
a(S'w'
I728
tp777
a(S'p1_tl'
I65
tp778
a(S'w'
I4
tp779
a(S'p2_vo'
I11
tp780
a(S'w'
I3
tp781
a(S'p2_tl'
I206
tp782
a(S'w'
I6
tp783
a(S'tr_tl'
I132
tp784
a(S'w'
I718
tp785
a(S'p1_vo'
I3
tp786
a(S'w'
I741
tp787
a(S'p1_vo'
I2
tp788
a(S'w'
I4
tp789
a(S'p1_tl'
I60
tp790
a(S'w'
I3
tp791
a(S'p2_vo'
I10
tp792
a(S'w'
I4
tp793
a(S'p2_tl'
I201
tp794
a(S'w'
I6
tp795
a(S'tr_tl'
I126
tp796
a(S'w'
I3
tp797
a(S'no_vo'
I5
tp798
a(S'w'
I707
tp799
a(S'p1_vo'
I1
tp800
a(S'w'
I9
tp801
a(S'tr_tl'
I124
tp802
a(S'w'
I724
tp803
a(S'ch_no'
I1
tp804
a(S'ch_tr'
I1
tp805
a(S'ch_p2'
I1
tp806
a(S'ch_p1'
I0
tp807
a(S'w'
I6
tp808
a(S'p2_vo'
I8
tp809
a(S'w'
I3
tp810
a(S'p2_tl'
I196
tp811
a(S'w'
I727
tp812
a(S'ch_no'
I1
tp813
a(S'ch_tr'
I1
tp814
a(S'ch_p2'
I1
tp815
a(S'ch_p1'
I1
tp816
a(S'w'
I2
tp817
a(S'p1_vo'
I4
tp818
a(S'w'
I2
tp819
a(S'p1_ll'
I0
tp820
a(S'w'
I9
tp821
a(S'no_vo'
I4
tp822
a(S'w'
I730
tp823
a(S'p1_du'
I1
tp824
a(S'p1_vo'
I6
tp825
a(S'w'
I3
tp826
a(S'p1_tl'
I208
tp827
a(S'w'
I1
tp828
a(S'p1_ll'
I0
tp829
a(S'p1_th'
I1
tp830
a(S'w'
I722
tp831
a(S'p1_du'
I3
tp832
a(S'p1_vo'
I11
tp833
a(S'w'
I5
tp834
a(S'p2_vo'
I7
tp835
a(S'w'
I729
tp836
a(S'p1_tl'
I203
tp837
a(S'w'
I5
tp838
a(S'p2_tl'
I197
tp839
a(S'w'
I6
tp840
a(S'tr_tl'
I127
tp841
a(S'w'
I4
tp842
a(S'no_vo'
I3
tp843
a(S'w'
I1452
tp844
a(S'p1_tl'
I198
tp845
a(S'w'
I4
tp846
a(S'p2_vo'
I6
tp847
a(S'w'
I3
tp848
a(S'p2_tl'
I206
tp849
a(S'w'
I6
tp850
a(S'tr_tl'
I132
tp851
a(S'w'
I727
tp852
a(S'no_vo'
I2
tp853
a(S'w'
I727
tp854
a(S'p2_tl'
I201
tp855
a(S'w'
I6
tp856
a(S'tr_tl'
I126
tp857
a(S'w'
I729
tp858
a(S'p2_vo'
I5
tp859
a(S'w'
I6
tp860
a(S'tr_tl'
I124
tp861
a(S'w'
I732
tp862
a(S'p1_vo'
I10
tp863
a(S'w'
I3
tp864
a(S'p1_tl'
I199
tp865
a(S'w'
I4
tp866
a(S'p2_vo'
I4
tp867
a(S'w'
I3
tp868
a(S'p2_tl'
I196
tp869
a(S'w'
I7
tp870
a(S'no_vo'
I1
tp871
a(S'w'
I712
tp872
a(S'p2_vo'
I3
tp873
a(S'w'
I734
tp874
a(S'ch_no'
I1
tp875
a(S'ch_tr'
I0
tp876
a(S'ch_p2'
I1
tp877
a(S'ch_p1'
I1
tp878
a(S'w'
I3
tp879
a(S'p1_vo'
I9
tp880
a(S'w'
I3
tp881
a(S'p1_tl'
I208
tp882
a(S'w'
I4
tp883
a(S'p2_vo'
I2
tp884
a(S'w'
I720
tp885
a(S'ch_no'
I0
tp886
a(S'ch_tr'
I0
tp887
a(S'ch_p2'
I1
tp888
a(S'ch_p1'
I1
tp889
a(S'w'
I6
tp890
a(S'p2_vo'
I6
tp891
a(S'w'
I736
tp892
a(S'ch_no'
I0
tp893
a(S'ch_tr'
I0
tp894
a(S'ch_p2'
I1
tp895
a(S'ch_p1'
I1
tp896
a(S'w'
I29
tp897
a(S'ch_no'
I1
tp898
a(S'ch_tr'
I1
tp899
a(S'ch_p2'
I1
tp900
a(S'ch_p1'
I1
tp901
a(S'w'
I2
tp902
a(S'p1_vo'
I8
tp903
a(S'w'
I4
tp904
a(S'p1_tl'
I203
tp905
a(S'w'
I3
tp906
a(S'p2_du'
I1
tp907
a(S'p2_vo'
I8
tp908
a(S'w'
I4
tp909
a(S'p2_tl'
I36
tp910
a(S'w'
I1
tp911
a(S'p2_ll'
I0
tp912
a(S'p2_th'
I2
tp913
a(S'w'
I6
tp914
a(S'tr_tl'
I111
tp915
a(S'w'
I1
tp916
a(S'tr_ll'
I0
tp917
a(S'w'
I3
tp918
a(S'no_vo'
I9
tp919
a(S'w'
I2
tp920
a(S'no_ll'
I0
tp921
a(S'w'
I675
tp922
a(S'p2_du'
I3
tp923
a(S'p2_vo'
I13
tp924
a(S'w'
I731
tp925
a(S'p1_vo'
I6
tp926
a(S'w'
I4
tp927
a(S'p1_tl'
I198
tp928
a(S'w'
I5
tp929
a(S'p2_tl'
I31
tp930
a(S'w'
I6
tp931
a(S'tr_tl'
I105
tp932
a(S'w'
I726
tp933
a(S'tr_tl'
I103
tp934
a(S'w'
I4
tp935
a(S'no_vo'
I8
tp936
a(S'w'
I724
tp937
a(S'p2_tl'
I26
tp938
a(S'w'
I732
tp939
a(S'p1_vo'
I5
tp940
a(S'w'
I736
tp941
a(S'p1_tl'
I199
tp942
a(S'w'
I9
tp943
a(S'no_vo'
I7
tp944
a(S'w'
I717
tp945
a(S'ch_no'
I1
tp946
a(S'ch_tr'
I1
tp947
a(S'ch_p2'
I1
tp948
a(S'ch_p1'
I1
tp949
a(S'w'
I743
tp950
a(S'p1_vo'
I4
tp951
a(S'w'
I4
tp952
a(S'p1_tl'
I208
tp953
a(S'w'
I3
tp954
a(S'p2_vo'
I12
tp955
a(S'w'
I4
tp956
a(S'p2_tl'
I27
tp957
a(S'w'
I5
tp958
a(S'tr_tl'
I106
tp959
a(S'w'
I722
tp960
a(S'no_vo'
I6
tp961
a(S'w'
I729
tp962
a(S'p1_tl'
I203
tp963
a(S'w'
I3
tp964
a(S'p2_vo'
I11
tp965
a(S'w'
I4
tp966
a(S'p2_tl'
I36
tp967
a(S'w'
I5
tp968
a(S'tr_tl'
I111
tp969
a(S'w'
I719
tp970
a(S'p1_vo'
I3
tp971
a(S'w'
I741
tp972
a(S'p1_vo'
I2
tp973
a(S'w'
I3
tp974
a(S'p1_tl'
I198
tp975
a(S'w'
I4
tp976
a(S'p2_vo'
I10
tp977
a(S'w'
I3
tp978
a(S'p2_tl'
I31
tp979
a(S'w'
I6
tp980
a(S'tr_tl'
I105
tp981
a(S'w'
I4
tp982
a(S'no_vo'
I5
tp983
a(S'w'
I707
tp984
a(S'p1_vo'
I1
tp985
a(S'w'
I8
tp986
a(S'tr_tl'
I103
tp987
a(S'w'
I725
tp988
a(S'ch_no'
I1
tp989
a(S'ch_tr'
I1
tp990
a(S'ch_p2'
I1
tp991
a(S'ch_p1'
I0
tp992
a(S'w'
I5
tp993
a(S'p2_vo'
I8
tp994
a(S'w'
I3
tp995
a(S'p2_tl'
I26
tp996
a(S'w'
I727
tp997
a(S'ch_no'
I1
tp998
a(S'ch_tr'
I1
tp999
a(S'ch_p2'
I1
tp1000
a(S'ch_p1'
I1
tp1001
a(S'w'
I3
tp1002
a(S'p1_vo'
I4
tp1003
a(S'w'
I1
tp1004
a(S'p1_ll'
I0
tp1005
a(S'w'
I9
tp1006
a(S'no_vo'
I4
tp1007
a(S'w'
I730
tp1008
a(S'p1_du'
I1
tp1009
a(S'p1_vo'
I6
tp1010
a(S'w'
I4
tp1011
a(S'p1_tl'
I38
tp1012
a(S'p1_ll'
I0
tp1013
a(S'p1_th'
I2
tp1014
a(S'w'
I723
tp1015
a(S'p1_du'
I3
tp1016
a(S'p1_vo'
I11
tp1017
a(S'w'
I4
tp1018
a(S'p2_vo'
I7
tp1019
a(S'w'
I729
tp1020
a(S'p1_tl'
I33
tp1021
a(S'w'
I6
tp1022
a(S'p2_tl'
I27
tp1023
a(S'w'
I6
tp1024
a(S'tr_tl'
I106
tp1025
a(S'w'
I3
tp1026
a(S'no_vo'
I3
tp1027
a(S'w'
I1453
tp1028
a(S'p1_tl'
I28
tp1029
a(S'w'
I3
tp1030
a(S'p2_vo'
I6
tp1031
a(S'w'
I4
tp1032
a(S'p2_tl'
I36
tp1033
a(S'w'
I5
tp1034
a(S'tr_tl'
I111
tp1035
a(S'w'
I727
tp1036
a(S'no_vo'
I2
tp1037
a(S'w'
I728
tp1038
a(S'p2_tl'
I31
tp1039
a(S'w'
I5
tp1040
a(S'tr_tl'
I105
tp1041
a(S'w'
I729
tp1042
a(S'p2_vo'
I5
tp1043
a(S'w'
I7
tp1044
a(S'tr_tl'
I103
tp1045
a(S'w'
I731
tp1046
a(S'p1_vo'
I10
tp1047
a(S'w'
I4
tp1048
a(S'p1_tl'
I29
tp1049
a(S'w'
I3
tp1050
a(S'p2_vo'
I4
tp1051
a(S'w'
I4
tp1052
a(S'p2_tl'
I26
tp1053
a(S'w'
I6
tp1054
a(S'no_vo'
I1
tp1055
a(S'w'
I713
tp1056
a(S'p2_vo'
I3
tp1057
a(S'w'
I734
tp1058
a(S'ch_no'
I1
tp1059
a(S'ch_tr'
I0
tp1060
a(S'ch_p2'
I1
tp1061
a(S'ch_p1'
I1
tp1062
a(S'w'
I2
tp1063
a(S'p1_vo'
I9
tp1064
a(S'w'
I4
tp1065
a(S'p1_tl'
I38
tp1066
a(S'w'
I3
tp1067
a(S'p2_vo'
I2
tp1068
a(S'w'
I721
tp1069
a(S'ch_no'
I0
tp1070
a(S'ch_tr'
I0
tp1071
a(S'ch_p2'
I1
tp1072
a(S'ch_p1'
I1
tp1073
a(S'w'
I5
tp1074
a(S'p2_vo'
I6
tp1075
a(S'w'
I750
tp1076
a(S'ch_no'
I0
tp1077
a(S'ch_tr'
I0
tp1078
a(S'ch_p2'
I1
tp1079
a(S'ch_p1'
I1
tp1080
a(S'w'
I21
tp1081
a(S'ch_no'
I1
tp1082
a(S'ch_tr'
I0
tp1083
a(S'ch_p2'
I1
tp1084
a(S'ch_p1'
I1
tp1085
a(S'w'
I1
tp1086
a(S'no_lh'
I0
tp1087
a(S'no_cv'
I0
tp1088
a(S'no_np'
I3
tp1089
a(S'no_ll'
I3
tp1090
a(S'w'
I9
tp1091
a(S'ch_no'
I1
tp1092
a(S'ch_tr'
I1
tp1093
a(S'ch_p2'
I1
tp1094
a(S'ch_p1'
I1
tp1095
a(S'w'
I2
tp1096
a(S'p1_vo'
I8
tp1097
a(S'w'
I4
tp1098
a(S'p1_tl'
I33
tp1099
a(S'w'
I3
tp1100
a(S'p2_du'
I1
tp1101
a(S'p2_vo'
I15
tp1102
a(S'w'
I4
tp1103
a(S'p2_tl'
I138
tp1104
a(S'w'
I1
tp1105
a(S'p2_ll'
I0
tp1106
a(S'w'
I6
tp1107
a(S'tr_tl'
I179
tp1108
a(S'w'
I1
tp1109
a(S'tr_ll'
I0
tp1110
a(S'w'
I663
tp1111
a(S'p2_du'
I3
tp1112
a(S'p2_vo'
I14
tp1113
a(S'w'
I732
tp1114
a(S'p1_vo'
I6
tp1115
a(S'w'
I3
tp1116
a(S'p1_tl'
I28
tp1117
a(S'w'
I6
tp1118
a(S'p2_tl'
I133
tp1119
a(S'w'
I6
tp1120
a(S'tr_tl'
I173
tp1121
a(S'w'
I723
tp1122
a(S'tr_tl'
I171
tp1123
a(S'w'
I732
tp1124
a(S'p2_vo'
I13
tp1125
a(S'w'
I3
tp1126
a(S'p2_tl'
I128
tp1127
a(S'w'
I731
tp1128
a(S'p1_vo'
I5
tp1129
a(S'w'
I4
tp1130
a(S'p2_vo'
I12
tp1131
a(S'w'
I729
tp1132
a(S'p1_tl'
I29
tp1133
a(S'w'
I3
tp1134
a(S'p2_vo'
I11
tp1135
a(S'w'
I731
tp1136
a(S'p2_vo'
I10
tp1137
a(S'w'
I733
tp1138
a(S'ch_no'
I1
tp1139
a(S'ch_tr'
I1
tp1140
a(S'ch_p2'
I1
tp1141
a(S'ch_p1'
I1
tp1142
a(S'w'
I2
tp1143
a(S'p1_vo'
I4
tp1144
a(S'w'
I4
tp1145
a(S'p1_tl'
I38
tp1146
a(S'w'
I3
tp1147
a(S'p2_vo'
I9
tp1148
a(S'w'
I4
tp1149
a(S'p2_tl'
I129
tp1150
a(S'w'
I5
tp1151
a(S'tr_tl'
I174
tp1152
a(S'w'
I1450
tp1153
a(S'p1_tl'
I33
tp1154
a(S'w'
I4
tp1155
a(S'p2_vo'
I8
tp1156
a(S'w'
I3
tp1157
a(S'p2_tl'
I138
tp1158
a(S'w'
I6
tp1159
a(S'tr_tl'
I179
tp1160
a(S'w'
I718
tp1161
a(S'p1_vo'
I3
tp1162
a(S'w'
I738
tp1163
a(S'ch_no'
I1
tp1164
a(S'ch_tr'
I0
tp1165
a(S'ch_p2'
I1
tp1166
a(S'ch_p1'
I1
tp1167
a(S'w'
I2
tp1168
a(S'p1_vo'
I2
tp1169
a(S'w'
I4
tp1170
a(S'p1_tl'
I28
tp1171
a(S'w'
I3
tp1172
a(S'p2_vo'
I7
tp1173
a(S'w'
I4
tp1174
a(S'p2_tl'
I133
tp1175
a(S'w'
I5
tp1176
a(S'tr_tl'
I173
tp1177
a(S'w'
I712
tp1178
a(S'p1_vo'
I1
tp1179
a(S'w'
I9
tp1180
a(S'tr_tl'
I171
tp1181
a(S'w'
I731
tp1182
a(S'ch_no'
I1
tp1183
a(S'ch_tr'
I0
tp1184
a(S'ch_p2'
I1
tp1185
a(S'ch_p1'
I1
tp1186
a(S'w'
I17
tp1187
a(S'w'
I1
tp1188
a(S'no_ll'
I3
tp1189
a(S'w'
I8
tp1190
a(S'ch_no'
I1
tp1191
a(S'ch_tr'
I1
tp1192
a(S'ch_p2'
I1
tp1193
a(S'ch_p1'
I0
tp1194
a(S'w'
I6
tp1195
a(S'p2_du'
I1
tp1196
a(S'p2_vo'
I15
tp1197
a(S'w'
I3
tp1198
a(S'p2_tl'
I138
tp1199
a(S'w'
I1
tp1200
a(S'p2_ll'
I0
tp1201
a(S'w'
I6
tp1202
a(S'tr_tl'
I179
tp1203
a(S'w'
I1
tp1204
a(S'tr_ll'
I0
tp1205
a(S'w'
I686
tp1206
a(S'ch_no'
I1
tp1207
a(S'ch_tr'
I1
tp1208
a(S'ch_p2'
I1
tp1209
a(S'ch_p1'
I1
tp1210
a(S'w'
I2
tp1211
a(S'p1_vo'
I4
tp1212
a(S'w'
I2
tp1213
a(S'p1_ll'
I0
tp1214
a(S'w'
I3
tp1215
a(S'p2_du'
I3
tp1216
a(S'p2_vo'
I14
tp1217
a(S'w'
I743
tp1218
a(S'p1_du'
I1
tp1219
a(S'p1_vo'
I13
tp1220
a(S'w'
I4
tp1221
a(S'p1_tl'
I140
tp1222
a(S'p1_ll'
I0
tp1223
a(S'w'
I6
tp1224
a(S'p2_tl'
I133
tp1225
a(S'w'
I5
tp1226
a(S'tr_tl'
I173
tp1227
a(S'w'
I702
tp1228
a(S'p1_du'
I3
tp1229
a(S'p1_vo'
I12
tp1230
a(S'w'
I8
tp1231
a(S'tr_tl'
I171
tp1232
a(S'w'
I728
tp1233
a(S'p1_tl'
I135
tp1234
a(S'w'
I3
tp1235
a(S'p2_vo'
I13
tp1236
a(S'w'
I4
tp1237
a(S'p2_tl'
I128
tp1238
a(S'w'
I727
tp1239
a(S'p2_vo'
I12
tp1240
a(S'w'
I734
tp1241
a(S'p1_vo'
I11
tp1242
a(S'w'
I3
tp1243
a(S'p1_tl'
I130
tp1244
a(S'w'
I4
tp1245
a(S'p2_vo'
I11
tp1246
a(S'w'
I724
tp1247
a(S'ch_no'
I1
tp1248
a(S'ch_tr'
I1
tp1249
a(S'ch_p2'
I1
tp1250
a(S'ch_p1'
I1
tp1251
a(S'w'
I3
tp1252
a(S'p1_vo'
I10
tp1253
a(S'w'
I4
tp1254
a(S'p2_vo'
I10
tp1255
a(S'w'
I730
tp1256
a(S'p1_vo'
I9
tp1257
a(S'w'
I4
tp1258
a(S'p2_vo'
I9
tp1259
a(S'w'
I4
tp1260
a(S'p2_tl'
I129
tp1261
a(S'w'
I5
tp1262
a(S'tr_tl'
I174
tp1263
a(S'w'
I717
tp1264
a(S'p1_vo'
I8
tp1265
a(S'w'
I738
tp1266
a(S'p1_vo'
I7
tp1267
a(S'w'
I3
tp1268
a(S'p1_tl'
I131
tp1269
a(S'w'
I4
tp1270
a(S'p2_vo'
I8
tp1271
a(S'w'
I3
tp1272
a(S'p2_tl'
I138
tp1273
a(S'w'
I6
tp1274
a(S'tr_tl'
I179
tp1275
a(S'w'
I1451
tp1276
a(S'ch_no'
I1
tp1277
a(S'ch_tr'
I0
tp1278
a(S'ch_p2'
I1
tp1279
a(S'ch_p1'
I1
tp1280
a(S'w'
I2
tp1281
a(S'p1_vo'
I6
tp1282
a(S'w'
I4
tp1283
a(S'p1_tl'
I140
tp1284
a(S'w'
I4
tp1285
a(S'p2_vo'
I7
tp1286
a(S'w'
I3
tp1287
a(S'p2_tl'
I133
tp1288
a(S'w'
I6
tp1289
a(S'tr_tl'
I173
tp1290
a(S'w'
I716
tp1291
a(S'tr_tl'
I171
tp1292
a(S'w'
I748
tp1293
a(S'ch_no'
I1
tp1294
a(S'ch_tr'
I0
tp1295
a(S'ch_p2'
I1
tp1296
a(S'ch_p1'
I1
tp1297
a(S'w'
I35
tp1298
a(S'ch_no'
I1
tp1299
a(S'ch_tr'
I1
tp1300
a(S'ch_p2'
I1
tp1301
a(S'ch_p1'
I1
tp1302
a(S'w'
I3
tp1303
a(S'p1_vo'
I5
tp1304
a(S'w'
I3
tp1305
a(S'p1_tl'
I135
tp1306
a(S'w'
I4
tp1307
a(S'p2_du'
I1
tp1308
a(S'p2_vo'
I15
tp1309
a(S'w'
I4
tp1310
a(S'p2_tl'
I68
tp1311
a(S'p2_ll'
I0
tp1312
a(S'w'
I7
tp1313
a(S'tr_tl'
I132
tp1314
a(S'w'
I1
tp1315
a(S'tr_ll'
I0
tp1316
a(S'w'
I3
tp1317
a(S'no_lh'
I1
tp1318
a(S'no_cv'
I1
tp1319
a(S'no_vo'
I9
tp1320
a(S'w'
I2
tp1321
a(S'no_ll'
I0
tp1322
a(S'w'
I1398
tp1323
a(S'p1_du'
I1
tp1324
a(S'p1_vo'
I13
tp1325
a(S'w'
I4
tp1326
a(S'p1_tl'
I140
tp1327
a(S'p1_ll'
I0
tp1328
a(S'w'
I6
tp1329
a(S'p2_tl'
I63
tp1330
a(S'w'
I5
tp1331
a(S'tr_tl'
I126
tp1332
a(S'w'
I712
tp1333
a(S'p1_du'
I3
tp1334
a(S'p1_vo'
I12
tp1335
a(S'w'
I4
tp1336
a(S'p2_du'
I3
tp1337
a(S'p2_vo'
I14
tp1338
a(S'w'
I6
tp1339
a(S'tr_tl'
I124
tp1340
a(S'w'
I722
tp1341
a(S'p1_tl'
I135
tp1342
a(S'w'
I6
tp1343
a(S'p2_tl'
I58
tp1344
a(S'w'
I7
tp1345
a(S'no_vo'
I8
tp1346
a(S'w'
I1453
tp1347
a(S'p1_vo'
I11
tp1348
a(S'w'
I3
tp1349
a(S'p1_tl'
I130
tp1350
a(S'w'
I730
tp1351
a(S'p1_vo'
I10
tp1352
a(S'w'
I736
tp1353
a(S'ch_no'
I1
tp1354
a(S'ch_tr'
I1
tp1355
a(S'ch_p2'
I1
tp1356
a(S'ch_p1'
I1
tp1357
a(S'w'
I2
tp1358
a(S'p1_vo'
I9
tp1359
a(S'w'
I6
tp1360
a(S'p2_tl'
I59
tp1361
a(S'w'
I6
tp1362
a(S'tr_tl'
I127
tp1363
a(S'w'
I4
tp1364
a(S'no_vo'
I7
tp1365
a(S'w'
I714
tp1366
a(S'p1_vo'
I8
tp1367
a(S'w'
I735
tp1368
a(S'p1_vo'
I7
tp1369
a(S'w'
I3
tp1370
a(S'p1_tl'
I131
tp1371
a(S'w'
I6
tp1372
a(S'p2_tl'
I68
tp1373
a(S'w'
I5
tp1374
a(S'tr_tl'
I132
tp1375
a(S'w'
I1456
tp1376
a(S'p1_vo'
I6
tp1377
a(S'w'
I4
tp1378
a(S'p1_tl'
I140
tp1379
a(S'w'
I6
tp1380
a(S'p2_tl'
I63
tp1381
a(S'w'
I5
tp1382
a(S'tr_tl'
I126
tp1383
a(S'w'
I4
tp1384
a(S'no_vo'
I6
tp1385
a(S'w'
I716
tp1386
a(S'tr_tl'
I124
tp1387
a(S'w'
I729
tp1388
a(S'p1_vo'
I5
tp1389
a(S'w'
I4
tp1390
a(S'p1_tl'
I135
tp1391
a(S'w'
I6
tp1392
a(S'p2_tl'
I58
tp1393
a(S'w'
I1478
tp1394
a(S'p1_du'
I1
tp1395
a(S'p1_vo'
I13
tp1396
a(S'w'
I3
tp1397
a(S'p1_tl'
I70
tp1398
a(S'w'
I1
tp1399
a(S'p1_ll'
I0
tp1400
a(S'w'
I9
tp1401
a(S'no_vo'
I5
tp1402
a(S'w'
I1434
tp1403
a(S'p1_tl'
I65
tp1404
a(S'w'
I5
tp1405
a(S'p2_tl'
I59
tp1406
a(S'w'
I6
tp1407
a(S'tr_tl'
I127
tp1408
a(S'w'
I726
tp1409
a(S'p1_du'
I3
tp1410
a(S'p1_vo'
I12
tp1411
a(S'w'
I4
tp1412
a(S'p2_vo'
I13
tp1413
a(S'w'
I730
tp1414
a(S'p1_tl'
I60
tp1415
a(S'w'
I5
tp1416
a(S'p2_tl'
I68
tp1417
a(S'w'
I6
tp1418
a(S'tr_tl'
I132
tp1419
a(S'w'
I4
tp1420
a(S'no_vo'
I4
tp1421
a(S'w'
I1451
tp1422
a(S'p2_tl'
I63
tp1423
a(S'w'
I6
tp1424
a(S'tr_tl'
I126
tp1425
a(S'w'
I731
tp1426
a(S'tr_tl'
I124
tp1427
a(S'w'
I735
tp1428
a(S'p1_tl'
I61
tp1429
a(S'w'
I4
tp1430
a(S'p2_vo'
I12
tp1431
a(S'w'
I3
tp1432
a(S'p2_tl'
I58
tp1433
a(S'w'
I6
tp1434
a(S'no_vo'
I3
tp1435
a(S'w'
I1448
tp1436
a(S'p1_tl'
I70
tp1437
a(S'w'
I1471
tp1438
a(S'p1_tl'
I65
tp1439
a(S'w'
I6
tp1440
a(S'p2_tl'
I59
tp1441
a(S'w'
I5
tp1442
a(S'tr_tl'
I127
tp1443
a(S'w'
I4
tp1444
a(S'no_vo'
I2
tp1445
a(S'w'
I719
tp1446
a(S'p2_vo'
I11
tp1447
a(S'w'
I730
tp1448
a(S'p1_tl'
I60
tp1449
a(S'w'
I6
tp1450
a(S'p2_tl'
I68
tp1451
a(S'w'
I6
tp1452
a(S'tr_tl'
I132
tp1453
a(S'w'
I1462
tp1454
a(S'p2_tl'
I63
tp1455
a(S'w'
I5
tp1456
a(S'tr_tl'
I126
tp1457
a(S'w'
I4
tp1458
a(S'no_vo'
I1
tp1459
a(S'w'
I724
tp1460
a(S'tr_tl'
I124
tp1461
a(S'w'
I732
tp1462
a(S'p1_tl'
I61
tp1463
a(S'w'
I3
tp1464
a(S'p2_vo'
I9
tp1465
a(S'w'
I4
tp1466
a(S'p2_tl'
I58
tp1467
a(S'w'
I724
tp1468
a(S'p1_vo'
I11
tp1469
a(S'w'
I730
tp1470
a(S'ch_no'
I0
tp1471
a(S'ch_tr'
I1
tp1472
a(S'ch_p2'
I1
tp1473
a(S'ch_p1'
I1
tp1474
a(S'w'
I5
tp1475
a(S'p1_tl'
I70
tp1476
a(S'w'
I1466
tp1477
a(S'p1_tl'
I65
tp1478
a(S'w'
I5
tp1479
a(S'p2_tl'
I59
tp1480
a(S'w'
I6
tp1481
a(S'tr_tl'
I127
tp1482
a(S'w'
I726
tp1483
a(S'p2_vo'
I8
tp1484
a(S'w'
I733
tp1485
a(S'p1_vo'
I10
tp1486
a(S'w'
I4
tp1487
a(S'p1_tl'
I60
tp1488
a(S'w'
I6
tp1489
a(S'p2_tl'
I68
tp1490
a(S'w'
I5
tp1491
a(S'tr_tl'
I132
tp1492
a(S'w'
I1452
tp1493
a(S'p2_tl'
I63
tp1494
a(S'w'
I6
tp1495
a(S'tr_tl'
I126
tp1496
a(S'w'
I731
tp1497
a(S'tr_tl'
I124
tp1498
a(S'w'
I733
tp1499
a(S'p1_tl'
I61
tp1500
a(S'w'
I4
tp1501
a(S'p2_vo'
I7
tp1502
a(S'w'
I3
tp1503
a(S'p2_tl'
I58
tp1504
a(S'w'
I723
tp1505
a(S'p1_vo'
I9
tp1506
a(S'w'
I732
tp1507
a(S'p1_tl'
I70
tp1508
a(S'w'
I1471
tp1509
a(S'p1_tl'
I65
tp1510
a(S'w'
I5
tp1511
a(S'p2_tl'
I59
tp1512
a(S'w'
I6
tp1513
a(S'tr_tl'
I127
tp1514
a(S'w'
I724
tp1515
a(S'p2_vo'
I6
tp1516
a(S'w'
I731
tp1517
a(S'p1_vo'
I7
tp1518
a(S'w'
I4
tp1519
a(S'p1_tl'
I60
tp1520
a(S'w'
I5
tp1521
a(S'p2_tl'
I68
tp1522
a(S'w'
I6
tp1523
a(S'tr_tl'
I132
tp1524
a(S'w'
I1456
tp1525
a(S'p2_tl'
I63
tp1526
a(S'w'
I6
tp1527
a(S'tr_tl'
I126
tp1528
a(S'w'
I729
tp1529
a(S'tr_tl'
I124
tp1530
a(S'w'
I731
tp1531
a(S'p1_tl'
I61
tp1532
a(S'w'
I4
tp1533
a(S'p2_vo'
I5
tp1534
a(S'w'
I3
tp1535
a(S'p2_tl'
I58
tp1536
a(S'w'
I725
tp1537
a(S'p1_vo'
I6
tp1538
a(S'w'
I738
tp1539
a(S'ch_no'
I0
tp1540
a(S'ch_tr'
I0
tp1541
a(S'ch_p2'
I1
tp1542
a(S'ch_p1'
I1
tp1543
a(S'w'
I5
tp1544
a(S'p1_tl'
I70
tp1545
a(S'w'
I1457
tp1546
a(S'p1_tl'
I65
tp1547
a(S'w'
I6
tp1548
a(S'p2_tl'
I59
tp1549
a(S'w'
I731
tp1550
a(S'p2_vo'
I4
tp1551
a(S'w'
I734
tp1552
a(S'p1_vo'
I5
tp1553
a(S'w'
I3
tp1554
a(S'p1_tl'
I60
tp1555
a(S'w'
I6
tp1556
a(S'p2_tl'
I68
tp1557
a(S'w'
I1458
tp1558
a(S'p2_tl'
I63
tp1559
a(S'w'
I1468
tp1560
a(S'p1_tl'
I61
tp1561
a(S'w'
I4
tp1562
a(S'p2_vo'
I3
tp1563
a(S'w'
I3
tp1564
a(S'p2_tl'
I58
tp1565
a(S'w'
I724
tp1566
a(S'p1_vo'
I4
tp1567
a(S'w'
I733
tp1568
a(S'p1_tl'
I70
tp1569
a(S'w'
I1468
tp1570
a(S'p1_tl'
I65
tp1571
a(S'w'
I6
tp1572
a(S'p2_tl'
I59
tp1573
a(S'w'
I731
tp1574
a(S'p2_vo'
I2
tp1575
a(S'w'
I732
tp1576
a(S'p1_vo'
I3
tp1577
a(S'w'
I3
tp1578
a(S'p1_tl'
I60
tp1579
a(S'w'
I6
tp1580
a(S'p2_tl'
I68
tp1581
a(S'w'
I1460
tp1582
a(S'p2_tl'
I63
tp1583
a(S'w'
I1468
tp1584
a(S'p1_tl'
I61
tp1585
a(S'w'
I4
tp1586
a(S'p2_vo'
I4
tp1587
a(S'w'
I3
tp1588
a(S'p2_tl'
I58
tp1589
a(S'w'
I724
tp1590
a(S'p1_vo'
I2
tp1591
a(S'w'
I733
tp1592
a(S'p1_tl'
I70
tp1593
a(S'w'
I1468
tp1594
a(S'p1_tl'
I65
tp1595
a(S'w'
I6
tp1596
a(S'p2_tl'
I59
tp1597
a(S'w'
I1463
tp1598
a(S'p1_vo'
I1
tp1599
a(S'w'
I3
tp1600
a(S'p1_tl'
I60
tp1601
a(S'w'
I6
tp1602
a(S'p2_tl'
I68
tp1603
a(S'w'
I1461
tp1604
a(S'p2_vo'
I2
tp1605
a(S'w'
I3
tp1606
a(S'p2_tl'
I63
tp1607
a(S'w'
I1475
tp1608
a(S'ch_no'
I0
tp1609
a(S'ch_tr'
I0
tp1610
a(S'ch_p2'
I1
tp1611
a(S'ch_p1'
I1
tp1612
a(S'w'
I35
tp1613
a(S'ch_no'
I1
tp1614
a(S'ch_tr'
I1
tp1615
a(S'ch_p2'
I1
tp1616
a(S'ch_p1'
I1
tp1617
a(S'w'
I5
tp1618
a(S'p1_tl'
I61
tp1619
a(S'w'
I4
tp1620
a(S'p2_du'
I1
tp1621
a(S'p2_vo'
I15
tp1622
a(S'w'
I3
tp1623
a(S'p2_tl'
I138
tp1624
a(S'w'
I1
tp1625
a(S'p2_ll'
I0
tp1626
a(S'w'
I6
tp1627
a(S'tr_tl'
I179
tp1628
a(S'w'
I1
tp1629
a(S'tr_ll'
I0
tp1630
a(S'w'
I4
tp1631
a(S'no_vo'
I9
tp1632
a(S'w'
I1
tp1633
a(S'no_np'
I7
tp1634
a(S'w'
I1
tp1635
a(S'no_ll'
I0
tp1636
a(S'w'
I659
tp1637
a(S'ch_no'
I1
tp1638
a(S'ch_tr'
I1
tp1639
a(S'ch_p2'
I1
tp1640
a(S'ch_p1'
I0
tp1641
a(S'w'
I6
tp1642
a(S'p2_du'
I3
tp1643
a(S'p2_vo'
I14
tp1644
a(S'w'
I731
tp1645
a(S'p1_tl'
I70
tp1646
a(S'w'
I6
tp1647
a(S'p2_tl'
I133
tp1648
a(S'w'
I6
tp1649
a(S'tr_tl'
I173
tp1650
a(S'w'
I3
tp1651
a(S'no_vo'
I5
tp1652
a(S'w'
I724
tp1653
a(S'tr_tl'
I171
tp1654
a(S'w'
I4
tp1655
a(S'no_vo'
I3
tp1656
a(S'w'
I725
tp1657
a(S'p1_tl'
I65
tp1658
a(S'w'
I3
tp1659
a(S'p2_vo'
I13
tp1660
a(S'w'
I4
tp1661
a(S'p2_tl'
I128
tp1662
a(S'w'
I730
tp1663
a(S'p2_vo'
I12
tp1664
a(S'w'
I7
tp1665
a(S'no_vo'
I2
tp1666
a(S'w'
I722
tp1667
a(S'ch_no'
I1
tp1668
a(S'ch_tr'
I1
tp1669
a(S'ch_p2'
I1
tp1670
a(S'ch_p1'
I1
tp1671
a(S'w'
I3
tp1672
a(S'p1_vo'
I2
tp1673
a(S'w'
I4
tp1674
a(S'p1_tl'
I60
tp1675
a(S'p1_ll'
I0
tp1676
a(S'w'
I4
tp1677
a(S'p2_vo'
I11
tp1678
a(S'w'
I728
tp1679
a(S'p2_vo'
I10
tp1680
a(S'w'
I7
tp1681
a(S'no_vo'
I1
tp1682
a(S'w'
I719
tp1683
a(S'ch_no'
I1
tp1684
a(S'ch_tr'
I1
tp1685
a(S'ch_p2'
I1
tp1686
a(S'ch_p1'
I1
tp1687
a(S'w'
I5
tp1688
a(S'p2_vo'
I9
tp1689
a(S'w'
I3
tp1690
a(S'p2_tl'
I129
tp1691
a(S'w'
I6
tp1692
a(S'tr_tl'
I174
tp1693
a(S'w'
I717
tp1694
a(S'ch_no'
I0
tp1695
a(S'ch_tr'
I1
tp1696
a(S'ch_p2'
I1
tp1697
a(S'ch_p1'
I1
tp1698
a(S'w'
I741
tp1699
a(S'p1_tl'
I61
tp1700
a(S'w'
I3
tp1701
a(S'p2_vo'
I8
tp1702
a(S'w'
I4
tp1703
a(S'p2_tl'
I138
tp1704
a(S'w'
I5
tp1705
a(S'tr_tl'
I179
tp1706
a(S'w'
I1453
tp1707
a(S'ch_no'
I0
tp1708
a(S'ch_tr'
I0
tp1709
a(S'ch_p2'
I1
tp1710
a(S'ch_p1'
I1
tp1711
a(S'w'
I4
tp1712
a(S'p1_tl'
I70
tp1713
a(S'w'
I4
tp1714
a(S'p2_vo'
I7
tp1715
a(S'w'
I3
tp1716
a(S'p2_tl'
I133
tp1717
a(S'w'
I6
tp1718
a(S'tr_tl'
I173
tp1719
a(S'w'
I721
tp1720
a(S'tr_tl'
I171
tp1721
a(S'w'
I735
tp1722
a(S'ch_no'
I0
tp1723
a(S'ch_tr'
I0
tp1724
a(S'ch_p2'
I1
tp1725
a(S'ch_p1'
I1
tp1726
a(S'w'
I29
tp1727
a(S'ch_no'
I1
tp1728
a(S'ch_tr'
I1
tp1729
a(S'ch_p2'
I1
tp1730
a(S'ch_p1'
I0
tp1731
a(S'w'
I4
tp1732
a(S'p1_tl'
I65
tp1733
a(S'w'
I4
tp1734
a(S'p2_du'
I1
tp1735
a(S'p2_vo'
I15
tp1736
a(S'w'
I4
tp1737
a(S'p2_tl'
I138
tp1738
a(S'p2_ll'
I0
tp1739
a(S'w'
I7
tp1740
a(S'tr_tl'
I179
tp1741
a(S'w'
I1
tp1742
a(S'tr_ll'
I0
tp1743
a(S'w'
I3
tp1744
a(S'no_vo'
I9
tp1745
a(S'w'
I2
tp1746
a(S'no_ll'
I0
tp1747
a(S'w'
I677
tp1748
a(S'p2_du'
I3
tp1749
a(S'p2_vo'
I14
tp1750
a(S'w'
I747
tp1751
a(S'ch_no'
I1
tp1752
a(S'ch_tr'
I1
tp1753
a(S'ch_p2'
I1
tp1754
a(S'ch_p1'
I1
tp1755
a(S'w'
I3
tp1756
a(S'p1_du'
I1
tp1757
a(S'p1_vo'
I13
tp1758
a(S'w'
I4
tp1759
a(S'p1_tl'
I140
tp1760
a(S'p1_ll'
I0
tp1761
a(S'w'
I6
tp1762
a(S'p2_tl'
I133
tp1763
a(S'w'
I6
tp1764
a(S'tr_tl'
I173
tp1765
a(S'w'
I3
tp1766
a(S'no_vo'
I5
tp1767
a(S'w'
I699
tp1768
a(S'p1_du'
I3
tp1769
a(S'p1_vo'
I12
tp1770
a(S'w'
I9
tp1771
a(S'tr_tl'
I171
tp1772
a(S'w'
I4
tp1773
a(S'no_vo'
I3
tp1774
a(S'w'
I720
tp1775
a(S'p1_tl'
I135
tp1776
a(S'w'
I4
tp1777
a(S'p2_vo'
I13
tp1778
a(S'w'
I3
tp1779
a(S'p2_tl'
I128
tp1780
a(S'w'
I730
tp1781
a(S'p2_vo'
I12
tp1782
a(S'w'
I7
tp1783
a(S'no_vo'
I2
tp1784
a(S'w'
I725
tp1785
a(S'p1_vo'
I11
tp1786
a(S'w'
I3
tp1787
a(S'p1_tl'
I130
tp1788
a(S'w'
I4
tp1789
a(S'p2_vo'
I11
tp1790
a(S'w'
I730
tp1791
a(S'p1_vo'
I10
tp1792
a(S'w'
I4
tp1793
a(S'p2_vo'
I10
tp1794
a(S'w'
I7
tp1795
a(S'no_vo'
I1
tp1796
a(S'w'
I717
tp1797
a(S'ch_no'
I1
tp1798
a(S'ch_tr'
I1
tp1799
a(S'ch_p2'
I1
tp1800
a(S'ch_p1'
I1
tp1801
a(S'w'
I3
tp1802
a(S'p1_vo'
I9
tp1803
a(S'w'
I4
tp1804
a(S'p2_vo'
I9
tp1805
a(S'w'
I3
tp1806
a(S'p2_tl'
I129
tp1807
a(S'w'
I6
tp1808
a(S'tr_tl'
I174
tp1809
a(S'w'
I716
tp1810
a(S'ch_no'
I0
tp1811
a(S'ch_tr'
I1
tp1812
a(S'ch_p2'
I1
tp1813
a(S'ch_p1'
I1
tp1814
a(S'w'
I3
tp1815
a(S'p1_vo'
I8
tp1816
a(S'w'
I735
tp1817
a(S'p1_vo'
I7
tp1818
a(S'w'
I4
tp1819
a(S'p1_tl'
I131
tp1820
a(S'w'
I3
tp1821
a(S'p2_vo'
I8
tp1822
a(S'w'
I4
tp1823
a(S'p2_tl'
I138
tp1824
a(S'w'
I5
tp1825
a(S'tr_tl'
I179
tp1826
a(S'w'
I1451
tp1827
a(S'ch_no'
I0
tp1828
a(S'ch_tr'
I0
tp1829
a(S'ch_p2'
I1
tp1830
a(S'ch_p1'
I1
tp1831
a(S'w'
I3
tp1832
a(S'p1_vo'
I6
tp1833
a(S'w'
I3
tp1834
a(S'p1_tl'
I140
tp1835
a(S'w'
I4
tp1836
a(S'p2_vo'
I7
tp1837
a(S'w'
I3
tp1838
a(S'p2_tl'
I133
tp1839
a(S'w'
I6
tp1840
a(S'tr_tl'
I173
tp1841
a(S'w'
I716
tp1842
a(S'tr_tl'
I171
tp1843
a(S'w'
I736
tp1844
a(S'ch_no'
I0
tp1845
a(S'ch_tr'
I0
tp1846
a(S'ch_p2'
I1
tp1847
a(S'ch_p1'
I1
tp1848
a(S'w'
I29
tp1849
a(S'ch_no'
I1
tp1850
a(S'ch_tr'
I1
tp1851
a(S'ch_p2'
I1
tp1852
a(S'ch_p1'
I1
tp1853
a(S'w'
I3
tp1854
a(S'p1_vo'
I5
tp1855
a(S'w'
I3
tp1856
a(S'p1_tl'
I135
tp1857
a(S'w'
I4
tp1858
a(S'p2_du'
I1
tp1859
a(S'p2_vo'
I15
tp1860
a(S'w'
I4
tp1861
a(S'p2_tl'
I138
tp1862
a(S'p2_ll'
I0
tp1863
a(S'w'
I7
tp1864
a(S'tr_tl'
I179
tp1865
a(S'w'
I1
tp1866
a(S'tr_ll'
I0
tp1867
a(S'w'
I3
tp1868
a(S'no_vo'
I9
tp1869
a(S'w'
I1
tp1870
a(S'w'
I1
tp1871
a(S'no_ll'
I0
tp1872
a(S'w'
I674
tp1873
a(S'p2_du'
I3
tp1874
a(S'p2_vo'
I14
tp1875
a(S'w'
I745
tp1876
a(S'p1_du'
I1
tp1877
a(S'p1_vo'
I13
tp1878
a(S'w'
I4
tp1879
a(S'p1_tl'
I140
tp1880
a(S'p1_ll'
I0
tp1881
a(S'w'
I6
tp1882
a(S'p2_tl'
I133
tp1883
a(S'w'
I6
tp1884
a(S'tr_tl'
I173
tp1885
a(S'w'
I3
tp1886
a(S'no_vo'
I5
tp1887
a(S'w'
I705
tp1888
a(S'p1_du'
I3
tp1889
a(S'p1_vo'
I12
tp1890
a(S'w'
I8
tp1891
a(S'tr_tl'
I171
tp1892
a(S'w'
I4
tp1893
a(S'no_vo'
I3
tp1894
a(S'w'
I720
tp1895
a(S'p1_tl'
I135
tp1896
a(S'w'
I4
tp1897
a(S'p2_vo'
I13
tp1898
a(S'w'
I3
tp1899
a(S'p2_tl'
I128
tp1900
a(S'w'
I731
tp1901
a(S'p2_vo'
I12
tp1902
a(S'w'
I7
tp1903
a(S'no_vo'
I2
tp1904
a(S'w'
I724
tp1905
a(S'p1_vo'
I11
tp1906
a(S'w'
I3
tp1907
a(S'p1_tl'
I130
tp1908
a(S'w'
I4
tp1909
a(S'p2_vo'
I11
tp1910
a(S'w'
I727
tp1911
a(S'ch_no'
I1
tp1912
a(S'ch_tr'
I1
tp1913
a(S'ch_p2'
I1
tp1914
a(S'ch_p1'
I1
tp1915
a(S'w'
I3
tp1916
a(S'p1_vo'
I10
tp1917
a(S'w'
I4
tp1918
a(S'p2_vo'
I10
tp1919
a(S'w'
I7
tp1920
a(S'no_vo'
I1
tp1921
a(S'w'
I720
tp1922
a(S'p1_vo'
I9
tp1923
a(S'w'
I4
tp1924
a(S'p2_vo'
I9
tp1925
a(S'w'
I3
tp1926
a(S'p2_tl'
I129
tp1927
a(S'w'
I6
tp1928
a(S'tr_tl'
I174
tp1929
a(S'w'
I716
tp1930
a(S'ch_no'
I0
tp1931
a(S'ch_tr'
I1
tp1932
a(S'ch_p2'
I1
tp1933
a(S'ch_p1'
I1
tp1934
a(S'w'
I3
tp1935
a(S'p1_vo'
I8
tp1936
a(S'w'
I735
tp1937
a(S'p1_vo'
I7
tp1938
a(S'w'
I4
tp1939
a(S'p1_tl'
I131
tp1940
a(S'w'
I3
tp1941
a(S'p2_vo'
I8
tp1942
a(S'w'
I4
tp1943
a(S'p2_tl'
I138
tp1944
a(S'w'
I5
tp1945
a(S'tr_tl'
I179
tp1946
a(S'w'
I1451
tp1947
a(S'ch_no'
I0
tp1948
a(S'ch_tr'
I0
tp1949
a(S'ch_p2'
I1
tp1950
a(S'ch_p1'
I1
tp1951
a(S'w'
I3
tp1952
a(S'p1_vo'
I6
tp1953
a(S'w'
I3
tp1954
a(S'p1_tl'
I140
tp1955
a(S'w'
I4
tp1956
a(S'p2_vo'
I7
tp1957
a(S'w'
I3
tp1958
a(S'p2_tl'
I133
tp1959
a(S'w'
I6
tp1960
a(S'tr_tl'
I173
tp1961
a(S'w'
I716
tp1962
a(S'tr_tl'
I171
tp1963
a(S'w'
I748
tp1964
a(S'ch_no'
I0
tp1965
a(S'ch_tr'
I0
tp1966
a(S'ch_p2'
I1
tp1967
a(S'ch_p1'
I1
tp1968
a(S'w'
I35
tp1969
a(S'ch_no'
I1
tp1970
a(S'ch_tr'
I1
tp1971
a(S'ch_p2'
I1
tp1972
a(S'ch_p1'
I1
tp1973
a(S'w'
I3
tp1974
a(S'p1_vo'
I5
tp1975
a(S'w'
I3
tp1976
a(S'p1_tl'
I135
tp1977
a(S'w'
I4
tp1978
a(S'p2_du'
I1
tp1979
a(S'p2_vo'
I15
tp1980
a(S'w'
I4
tp1981
a(S'p2_tl'
I68
tp1982
a(S'w'
I1
tp1983
a(S'p2_ll'
I0
tp1984
a(S'w'
I6
tp1985
a(S'tr_tl'
I132
tp1986
a(S'w'
I1
tp1987
a(S'tr_ll'
I0
tp1988
a(S'w'
I3
tp1989
a(S'no_vo'
I15
tp1990
a(S'w'
I2
tp1991
a(S'no_np'
I5
tp1992
a(S'no_ll'
I0
tp1993
a(S'w'
I1398
tp1994
a(S'p1_du'
I1
tp1995
a(S'p1_vo'
I13
tp1996
a(S'w'
I4
tp1997
a(S'p1_tl'
I140
tp1998
a(S'p1_ll'
I0
tp1999
a(S'w'
I6
tp2000
a(S'p2_tl'
I63
tp2001
a(S'w'
I6
tp2002
a(S'tr_tl'
I126
tp2003
a(S'w'
I711
tp2004
a(S'p1_du'
I3
tp2005
a(S'p1_vo'
I12
tp2006
a(S'w'
I4
tp2007
a(S'p2_du'
I3
tp2008
a(S'p2_vo'
I14
tp2009
a(S'w'
I6
tp2010
a(S'tr_tl'
I124
tp2011
a(S'w'
I723
tp2012
a(S'p1_tl'
I135
tp2013
a(S'w'
I5
tp2014
a(S'p2_tl'
I58
tp2015
a(S'w'
I7
tp2016
a(S'no_vo'
I14
tp2017
a(S'w'
I1453
tp2018
a(S'p1_vo'
I11
tp2019
a(S'w'
I3
tp2020
a(S'p1_tl'
I130
tp2021
a(S'w'
I730
tp2022
a(S'p1_vo'
I10
tp2023
a(S'w'
I736
tp2024
a(S'ch_no'
I1
tp2025
a(S'ch_tr'
I1
tp2026
a(S'ch_p2'
I1
tp2027
a(S'ch_p1'
I1
tp2028
a(S'w'
I2
tp2029
a(S'p1_vo'
I9
tp2030
a(S'w'
I6
tp2031
a(S'p2_tl'
I59
tp2032
a(S'w'
I6
tp2033
a(S'tr_tl'
I127
tp2034
a(S'w'
I4
tp2035
a(S'no_vo'
I13
tp2036
a(S'w'
I714
tp2037
a(S'p1_vo'
I8
tp2038
a(S'w'
I735
tp2039
a(S'p1_vo'
I7
tp2040
a(S'w'
I3
tp2041
a(S'p1_tl'
I131
tp2042
a(S'w'
I6
tp2043
a(S'p2_tl'
I68
tp2044
a(S'w'
I5
tp2045
a(S'tr_tl'
I132
tp2046
a(S'w'
I1456
tp2047
a(S'p1_vo'
I6
tp2048
a(S'w'
I4
tp2049
a(S'p1_tl'
I140
tp2050
a(S'w'
I6
tp2051
a(S'p2_tl'
I63
tp2052
a(S'w'
I5
tp2053
a(S'tr_tl'
I126
tp2054
a(S'w'
I4
tp2055
a(S'no_vo'
I12
tp2056
a(S'w'
I716
tp2057
a(S'tr_tl'
I124
tp2058
a(S'w'
I729
tp2059
a(S'p1_vo'
I5
tp2060
a(S'w'
I4
tp2061
a(S'p1_tl'
I135
tp2062
a(S'w'
I6
tp2063
a(S'p2_tl'
I58
tp2064
a(S'w'
I1476
tp2065
a(S'p1_du'
I1
tp2066
a(S'p1_vo'
I13
tp2067
a(S'w'
I3
tp2068
a(S'p1_tl'
I70
tp2069
a(S'w'
I1
tp2070
a(S'p1_ll'
I0
tp2071
a(S'w'
I9
tp2072
a(S'no_vo'
I11
tp2073
a(S'w'
I1436
tp2074
a(S'p1_tl'
I65
tp2075
a(S'w'
I5
tp2076
a(S'p2_tl'
I59
tp2077
a(S'w'
I6
tp2078
a(S'tr_tl'
I127
tp2079
a(S'w'
I726
tp2080
a(S'p1_du'
I3
tp2081
a(S'p1_vo'
I12
tp2082
a(S'w'
I4
tp2083
a(S'p2_vo'
I13
tp2084
a(S'w'
I730
tp2085
a(S'p1_tl'
I60
tp2086
a(S'w'
I5
tp2087
a(S'p2_tl'
I68
tp2088
a(S'w'
I6
tp2089
a(S'tr_tl'
I132
tp2090
a(S'w'
I4
tp2091
a(S'no_vo'
I10
tp2092
a(S'w'
I1451
tp2093
a(S'p2_tl'
I63
tp2094
a(S'w'
I6
tp2095
a(S'tr_tl'
I126
tp2096
a(S'w'
I731
tp2097
a(S'tr_tl'
I124
tp2098
a(S'w'
I735
tp2099
a(S'p1_tl'
I61
tp2100
a(S'w'
I4
tp2101
a(S'p2_vo'
I12
tp2102
a(S'w'
I3
tp2103
a(S'p2_tl'
I58
tp2104
a(S'w'
I6
tp2105
a(S'no_vo'
I9
tp2106
a(S'w'
I1448
tp2107
a(S'p1_tl'
I70
tp2108
a(S'w'
I1471
tp2109
a(S'p1_tl'
I65
tp2110
a(S'w'
I6
tp2111
a(S'p2_tl'
I59
tp2112
a(S'w'
I5
tp2113
a(S'tr_tl'
I127
tp2114
a(S'w'
I4
tp2115
a(S'no_vo'
I8
tp2116
a(S'w'
I719
tp2117
a(S'p2_vo'
I11
tp2118
a(S'w'
I730
tp2119
a(S'p1_tl'
I60
tp2120
a(S'w'
I6
tp2121
a(S'p2_tl'
I68
tp2122
a(S'w'
I6
tp2123
a(S'tr_tl'
I132
tp2124
a(S'w'
I1462
tp2125
a(S'p2_tl'
I63
tp2126
a(S'w'
I5
tp2127
a(S'tr_tl'
I126
tp2128
a(S'w'
I4
tp2129
a(S'no_vo'
I7
tp2130
a(S'w'
I724
tp2131
a(S'tr_tl'
I124
tp2132
a(S'w'
I732
tp2133
a(S'p1_tl'
I61
tp2134
a(S'w'
I3
tp2135
a(S'p2_vo'
I9
tp2136
a(S'w'
I4
tp2137
a(S'p2_tl'
I58
tp2138
a(S'w'
I724
tp2139
a(S'p1_vo'
I11
tp2140
a(S'w'
I736
tp2141
a(S'p1_tl'
I70
tp2142
a(S'w'
I9
tp2143
a(S'no_vo'
I6
tp2144
a(S'w'
I1456
tp2145
a(S'p1_tl'
I65
tp2146
a(S'w'
I5
tp2147
a(S'p2_tl'
I59
tp2148
a(S'w'
I6
tp2149
a(S'tr_tl'
I127
tp2150
a(S'w'
I726
tp2151
a(S'p2_vo'
I8
tp2152
a(S'w'
I735
tp2153
a(S'p1_vo'
I10
tp2154
a(S'w'
I3
tp2155
a(S'p1_tl'
I60
tp2156
a(S'w'
I6
tp2157
a(S'p2_tl'
I68
tp2158
a(S'w'
I6
tp2159
a(S'tr_tl'
I132
tp2160
a(S'w'
I3
tp2161
a(S'no_vo'
I5
tp2162
a(S'w'
I1447
tp2163
a(S'p2_tl'
I63
tp2164
a(S'w'
I6
tp2165
a(S'tr_tl'
I126
tp2166
a(S'w'
I731
tp2167
a(S'tr_tl'
I124
tp2168
a(S'w'
I735
tp2169
a(S'p1_tl'
I61
tp2170
a(S'w'
I4
tp2171
a(S'p2_vo'
I7
tp2172
a(S'w'
I3
tp2173
a(S'p2_tl'
I58
tp2174
a(S'w'
I6
tp2175
a(S'no_vo'
I4
tp2176
a(S'w'
I715
tp2177
a(S'p1_vo'
I9
tp2178
a(S'w'
I733
tp2179
a(S'p1_tl'
I70
tp2180
a(S'w'
I1471
tp2181
a(S'p1_tl'
I65
tp2182
a(S'w'
I6
tp2183
a(S'p2_tl'
I59
tp2184
a(S'w'
I5
tp2185
a(S'tr_tl'
I127
tp2186
a(S'w'
I4
tp2187
a(S'no_vo'
I3
tp2188
a(S'w'
I719
tp2189
a(S'p2_vo'
I6
tp2190
a(S'w'
I732
tp2191
a(S'p1_vo'
I7
tp2192
a(S'w'
I3
tp2193
a(S'p1_tl'
I60
tp2194
a(S'w'
I6
tp2195
a(S'p2_tl'
I68
tp2196
a(S'w'
I5
tp2197
a(S'tr_tl'
I132
tp2198
a(S'w'
I1458
tp2199
a(S'p2_tl'
I63
tp2200
a(S'w'
I5
tp2201
a(S'tr_tl'
I126
tp2202
a(S'w'
I4
tp2203
a(S'no_vo'
I2
tp2204
a(S'w'
I724
tp2205
a(S'tr_tl'
I124
tp2206
a(S'w'
I732
tp2207
a(S'p1_tl'
I61
tp2208
a(S'w'
I3
tp2209
a(S'p2_vo'
I5
tp2210
a(S'w'
I4
tp2211
a(S'p2_tl'
I58
tp2212
a(S'w'
I724
tp2213
a(S'p1_vo'
I6
tp2214
a(S'w'
I736
tp2215
a(S'p1_tl'
I70
tp2216
a(S'w'
I9
tp2217
a(S'no_vo'
I1
tp2218
a(S'w'
I1456
tp2219
a(S'p1_tl'
I65
tp2220
a(S'w'
I5
tp2221
a(S'p2_tl'
I59
tp2222
a(S'w'
I6
tp2223
a(S'tr_tl'
I127
tp2224
a(S'w'
I726
tp2225
a(S'p2_vo'
I4
tp2226
a(S'w'
I731
tp2227
a(S'ch_no'
I0
tp2228
a(S'ch_tr'
I1
tp2229
a(S'ch_p2'
I1
tp2230
a(S'ch_p1'
I1
tp2231
a(S'w'
I3
tp2232
a(S'p1_vo'
I5
tp2233
a(S'w'
I3
tp2234
a(S'p1_tl'
I60
tp2235
a(S'w'
I6
tp2236
a(S'p2_tl'
I68
tp2237
a(S'w'
I5
tp2238
a(S'tr_tl'
I132
tp2239
a(S'w'
I1452
tp2240
a(S'p2_tl'
I63
tp2241
a(S'w'
I6
tp2242
a(S'tr_tl'
I126
tp2243
a(S'w'
I731
tp2244
a(S'tr_tl'
I124
tp2245
a(S'w'
I731
tp2246
a(S'p1_tl'
I61
tp2247
a(S'w'
I4
tp2248
a(S'p2_vo'
I3
tp2249
a(S'w'
I3
tp2250
a(S'p2_tl'
I58
tp2251
a(S'w'
I725
tp2252
a(S'p1_vo'
I4
tp2253
a(S'w'
I732
tp2254
a(S'p1_tl'
I70
tp2255
a(S'w'
I1469
tp2256
a(S'p1_tl'
I65
tp2257
a(S'w'
I5
tp2258
a(S'p2_tl'
I59
tp2259
a(S'w'
I6
tp2260
a(S'tr_tl'
I127
tp2261
a(S'w'
I726
tp2262
a(S'p2_vo'
I2
tp2263
a(S'w'
I736
tp2264
a(S'ch_no'
I0
tp2265
a(S'ch_tr'
I0
tp2266
a(S'ch_p2'
I1
tp2267
a(S'ch_p1'
I1
tp2268
a(S'w'
I2
tp2269
a(S'p1_vo'
I3
tp2270
a(S'w'
I4
tp2271
a(S'p1_tl'
I60
tp2272
a(S'w'
I5
tp2273
a(S'p2_tl'
I68
tp2274
a(S'w'
I1451
tp2275
a(S'p2_tl'
I63
tp2276
a(S'w'
I1468
tp2277
a(S'p1_tl'
I61
tp2278
a(S'w'
I4
tp2279
a(S'p2_vo'
I4
tp2280
a(S'w'
I3
tp2281
a(S'p2_tl'
I58
tp2282
a(S'w'
I725
tp2283
a(S'p1_vo'
I2
tp2284
a(S'w'
I732
tp2285
a(S'p1_tl'
I70
tp2286
a(S'w'
I1468
tp2287
a(S'p1_tl'
I65
tp2288
a(S'w'
I6
tp2289
a(S'p2_tl'
I59
tp2290
a(S'w'
I1463
tp2291
a(S'p1_vo'
I1
tp2292
a(S'w'
I3
tp2293
a(S'p1_tl'
I60
tp2294
a(S'w'
I6
tp2295
a(S'p2_tl'
I68
tp2296
a(S'w'
I1461
tp2297
a(S'p2_vo'
I2
tp2298
a(S'w'
I4
tp2299
a(S'p2_tl'
I63
tp2300
a(S'w'
I1460
tp2301
a(S'p1_tl'
I61
tp2302
a(S'w'
I6
tp2303
a(S'p2_tl'
I58
tp2304
a(S'w'
I725
tp2305
a(S'ch_no'
I0
tp2306
a(S'ch_tr'
I0
tp2307
a(S'ch_p2'
I1
tp2308
a(S'ch_p1'
I0
tp2309
a(S'w'
I736
tp2310
a(S'p1_tl'
I70
tp2311
a(S'w'
I1471
tp2312
a(S'p1_tl'
I65
tp2313
a(S'w'
I4
tp2314
a(S'p2_vo'
I1
tp2315
a(S'w'
I3
tp2316
a(S'p2_tl'
I59
tp2317
a(S'w'
I1457
tp2318
a(S'ch_no'
I0
tp2319
a(S'ch_tr'
I0
tp2320
a(S'ch_p2'
I1
tp2321
a(S'ch_p1'
I1
tp2322
a(S'w'
I3
tp2323
a(S'p1_vo'
I2
tp2324
a(S'w'
I3
tp2325
a(S'p1_tl'
I60
tp2326
a(S'w'
I1
tp2327
a(S'p1_ll'
I0
tp2328
a(S'w'
I5
tp2329
a(S'p2_tl'
I68
tp2330
a(S'w'
I1459
tp2331
a(S'p2_tl'
I63
tp2332
a(S'w'
I1462
tp2333
a(S'ch_no'
I0
tp2334
a(S'ch_tr'
I0
tp2335
a(S'ch_p2'
I0
tp2336
a(S'ch_p1'
I1
tp2337
a(S'w'
I5
tp2338
a(S'p1_tl'
I61
tp2339
a(S'w'
I6
tp2340
a(S'p2_tl'
I58
tp2341
a(S'w'
I1459
tp2342
a(S'p1_tl'
I70
tp2343
a(S'w'
I1465
tp2344
a(S'ch_no'
I0
tp2345
a(S'ch_tr'
I0
tp2346
a(S'ch_p2'
I0
tp2347
a(S'ch_p1'
I0
tp2348
a(S'w'
I1
tp2349
a.