(lp1
(S'clock'
p2
I1789772
tp3
a(S'ch_no'
I1
tp4
a(S'ch_tr'
I1
tp5
a(S'ch_p2'
I1
tp6
a(S'ch_p1'
I1
tp7
a(S'fc_mo'
I1
tp8
a(S'p1_du'
I3
tp9
a(S'p1_lh'
I1
tp10
a(S'p1_cv'
I1
tp11
a(S'p1_vo'
I15
tp12
a(S'w'
I1
tp13
a(S'p1_tl'
I126
tp14
a(S'p1_sp'
I7
tp15
a(S'p1_sn'
I1
tp16
a(S'p1_ss'
I7
tp17
a(S'p1_ll'
I1
tp18
a(S'w'
I18
tp19
a(S'p2_du'
I3
tp20
a(S'p2_lh'
I1
tp21
a(S'p2_cv'
I1
tp22
a(S'p2_vo'
I15
tp23
a(S'w'
I1
tp24
a(S'p2_tl'
I168
tp25
a(S'p2_sp'
I7
tp26
a(S'p2_sn'
I1
tp27
a(S'p2_ss'
I7
tp28
a(S'p2_ll'
I1
tp29
a(S'w'
I19
tp30
a(S'tr_lh'
I1
tp31
a(S'tr_lr'
I15
tp32
a(S'tr_tl'
I254
tp33
a(S'w'
I1
tp34
a(S'tr_ll'
I1
tp35
a(S'w'
I5
tp36
a(S'no_cv'
I1
tp37
a(S'w'
I670
tp38
a(S'fc_mo'
I1
tp39
a(S'w'
I8
tp40
a(S'w'
I5
tp41
a(S'w'
I8
tp42
a(S'tr_lr'
I12
tp43
a(S'tr_tl'
I253
tp44
a(S'w'
I713
tp45
a(S'fc_mo'
I1
tp46
a(S'w'
I8
tp47
a(S'w'
I5
tp48
a(S'w'
I8
tp49
a(S'tr_lr'
I7
tp50
a(S'tr_tl'
I254
tp51
a(S'w'
I713
tp52
a(S'fc_mo'
I1
tp53
a(S'w'
I7
tp54
a(S'w'
I6
tp55
a(S'w'
I6
tp56
a(S'tr_tl'
I253
tp57
a(S'w'
I714
tp58
a(S'fc_mo'
I1
tp59
a(S'w'
I8
tp60
a(S'w'
I6
tp61
a(S'w'
I6
tp62
a(S'tr_tl'
I254
tp63
a(S'w'
I714
tp64
a(S'fc_mo'
I1
tp65
a(S'w'
I8
tp66
a(S'w'
I6
tp67
a(S'w'
I6
tp68
a(S'tr_tl'
I253
tp69
a(S'w'
I714
tp70
a(S'fc_mo'
I1
tp71
a(S'w'
I10
tp72
a(S'p1_vo'
I0
tp73
a(S'p1_tl'
I28
tp74
a(S'w'
I8
tp75
a(S'p2_vo'
I0
tp76
a(S'w'
I1
tp77
a(S'p2_tl'
I28
tp78
a(S'w'
I8
tp79
a(S'tr_lr'
I0
tp80
a(S'w'
I1
tp81
a(S'tr_tl'
I104
tp82
a(S'w'
I706
tp83
a(S'fc_mo'
I1
tp84
a(S'w'
I734
tp85
a(S'fc_mo'
I1
tp86
a(S'w'
I733
tp87
a(S'fc_mo'
I1
tp88
a(S'w'
I734
tp89
a(S'fc_mo'
I1
tp90
a(S'w'
I734
tp91
a(S'fc_mo'
I1
tp92
a(S'w'
I734
tp93
a(S'fc_mo'
I1
tp94
a(S'w'
I734
tp95
a(S'fc_mo'
I1
tp96
a(S'w'
I733
tp97
a(S'fc_mo'
I1
tp98
a(S'w'
I734
tp99
a(S'fc_mo'
I1
tp100
a(S'w'
I734
tp101
a(S'fc_mo'
I1
tp102
a(S'w'
I734
tp103
a(S'fc_mo'
I1
tp104
a(S'w'
I734
tp105
a(S'fc_mo'
I1
tp106
a(S'w'
I11
tp107
a(S'p1_vo'
I15
tp108
a(S'w'
I1
tp109
a(S'p1_tl'
I126
tp110
a(S'p1_ll'
I1
tp111
a(S'w'
I11
tp112
a(S'p2_vo'
I15
tp113
a(S'p2_tl'
I168
tp114
a(S'w'
I1
tp115
a(S'p2_ll'
I1
tp116
a(S'w'
I11
tp117
a(S'tr_lr'
I15
tp118
a(S'tr_tl'
I253
tp119
a(S'w'
I1
tp120
a(S'tr_ll'
I1
tp121
a(S'w'
I697
tp122
a(S'fc_mo'
I1
tp123
a(S'w'
I8
tp124
a(S'w'
I6
tp125
a(S'w'
I7
tp126
a(S'tr_lr'
I12
tp127
a(S'w'
I1
tp128
a(S'tr_tl'
I254
tp129
a(S'w'
I712
tp130
a(S'fc_mo'
I1
tp131
a(S'w'
I8
tp132
a(S'w'
I6
tp133
a(S'w'
I7
tp134
a(S'tr_lr'
I7
tp135
a(S'tr_tl'
I253
tp136
a(S'w'
I713
tp137
a(S'fc_mo'
I1
tp138
a(S'w'
I8
tp139
a(S'w'
I5
tp140
a(S'w'
I7
tp141
a(S'tr_tl'
I254
tp142
a(S'w'
I714
tp143
a(S'fc_mo'
I1
tp144
a(S'w'
I8
tp145
a(S'w'
I5
tp146
a(S'w'
I6
tp147
a(S'tr_tl'
I253
tp148
a(S'w'
I715
tp149
a(S'fc_mo'
I1
tp150
a(S'w'
I7
tp151
a(S'w'
I6
tp152
a(S'w'
I6
tp153
a(S'tr_tl'
I254
tp154
a(S'w'
I714
tp155
a(S'fc_mo'
I1
tp156
a(S'w'
I12
tp157
a(S'w'
I1
tp158
a(S'p1_ll'
I1
tp159
a(S'w'
I11
tp160
a(S'w'
I1
tp161
a(S'p2_ll'
I1
tp162
a(S'w'
I10
tp163
a(S'tr_lr'
I15
tp164
a(S'w'
I1
tp165
a(S'tr_tl'
I253
tp166
a(S'tr_ll'
I1
tp167
a(S'w'
I698
tp168
a(S'fc_mo'
I1
tp169
a(S'w'
I8
tp170
a(S'w'
I6
tp171
a(S'w'
I6
tp172
a(S'tr_tl'
I254
tp173
a(S'w'
I714
tp174
a(S'fc_mo'
I1
tp175
a(S'w'
I8
tp176
a(S'w'
I6
tp177
a(S'w'
I7
tp178
a(S'tr_lr'
I14
tp179
a(S'tr_tl'
I253
tp180
a(S'w'
I713
tp181
a(S'fc_mo'
I1
tp182
a(S'w'
I8
tp183
a(S'w'
I5
tp184
a(S'w'
I6
tp185
a(S'tr_tl'
I254
tp186
a(S'w'
I715
tp187
a(S'fc_mo'
I1
tp188
a(S'w'
I7
tp189
a(S'w'
I6
tp190
a(S'w'
I8
tp191
a(S'tr_tl'
I253
tp192
a(S'w'
I712
tp193
a(S'fc_mo'
I1
tp194
a(S'w'
I8
tp195
a(S'w'
I6
tp196
a(S'w'
I6
tp197
a(S'tr_tl'
I254
tp198
a(S'w'
I714
tp199
a(S'fc_mo'
I1
tp200
a(S'w'
I8
tp201
a(S'w'
I6
tp202
a(S'w'
I7
tp203
a(S'tr_lr'
I13
tp204
a(S'tr_tl'
I253
tp205
a(S'w'
I713
tp206
a(S'fc_mo'
I1
tp207
a(S'w'
I8
tp208
a(S'w'
I6
tp209
a(S'w'
I6
tp210
a(S'tr_tl'
I254
tp211
a(S'w'
I714
tp212
a(S'fc_mo'
I1
tp213
a(S'w'
I8
tp214
a(S'w'
I5
tp215
a(S'w'
I8
tp216
a(S'tr_tl'
I253
tp217
a(S'w'
I713
tp218
a(S'fc_mo'
I1
tp219
a(S'w'
I7
tp220
a(S'w'
I6
tp221
a(S'w'
I6
tp222
a(S'tr_tl'
I254
tp223
a(S'w'
I715
tp224
a(S'fc_mo'
I1
tp225
a(S'w'
I7
tp226
a(S'w'
I6
tp227
a(S'w'
I7
tp228
a(S'tr_lr'
I12
tp229
a(S'w'
I1
tp230
a(S'tr_tl'
I253
tp231
a(S'w'
I712
tp232
a(S'fc_mo'
I1
tp233
a(S'w'
I8
tp234
a(S'w'
I6
tp235
a(S'w'
I6
tp236
a(S'tr_tl'
I254
tp237
a(S'w'
I714
tp238
a(S'fc_mo'
I1
tp239
a(S'w'
I8
tp240
a(S'w'
I5
tp241
a(S'w'
I8
tp242
a(S'tr_tl'
I253
tp243
a(S'w'
I713
tp244
a(S'fc_mo'
I1
tp245
a(S'w'
I8
tp246
a(S'w'
I5
tp247
a(S'w'
I6
tp248
a(S'tr_tl'
I254
tp249
a(S'w'
I715
tp250
a(S'fc_mo'
I1
tp251
a(S'w'
I7
tp252
a(S'w'
I6
tp253
a(S'w'
I8
tp254
a(S'tr_lr'
I11
tp255
a(S'tr_tl'
I253
tp256
a(S'w'
I712
tp257
a(S'fc_mo'
I1
tp258
a(S'w'
I8
tp259
a(S'w'
I6
tp260
a(S'w'
I6
tp261
a(S'tr_tl'
I254
tp262
a(S'w'
I714
tp263
a(S'fc_mo'
I1
tp264
a(S'w'
I8
tp265
a(S'w'
I6
tp266
a(S'w'
I7
tp267
a(S'tr_tl'
I253
tp268
a(S'w'
I713
tp269
a(S'fc_mo'
I1
tp270
a(S'w'
I8
tp271
a(S'w'
I5
tp272
a(S'w'
I6
tp273
a(S'tr_tl'
I254
tp274
a(S'w'
I715
tp275
a(S'fc_mo'
I1
tp276
a(S'w'
I8
tp277
a(S'w'
I5
tp278
a(S'w'
I8
tp279
a(S'tr_lr'
I10
tp280
a(S'tr_tl'
I253
tp281
a(S'w'
I713
tp282
a(S'fc_mo'
I1
tp283
a(S'w'
I7
tp284
a(S'w'
I6
tp285
a(S'w'
I6
tp286
a(S'tr_tl'
I254
tp287
a(S'w'
I714
tp288
a(S'fc_mo'
I1
tp289
a(S'w'
I8
tp290
a(S'w'
I6
tp291
a(S'w'
I8
tp292
a(S'tr_tl'
I253
tp293
a(S'w'
I712
tp294
a(S'fc_mo'
I1
tp295
a(S'w'
I8
tp296
a(S'w'
I6
tp297
a(S'w'
I6
tp298
a(S'tr_tl'
I254
tp299
a(S'w'
I714
tp300
a(S'fc_mo'
I1
tp301
a(S'w'
I8
tp302
a(S'w'
I6
tp303
a(S'w'
I7
tp304
a(S'tr_lr'
I9
tp305
a(S'tr_tl'
I253
tp306
a(S'w'
I713
tp307
a(S'fc_mo'
I1
tp308
a(S'w'
I8
tp309
a(S'w'
I5
tp310
a(S'w'
I6
tp311
a(S'tr_tl'
I254
tp312
a(S'w'
I715
tp313
a(S'fc_mo'
I1
tp314
a(S'w'
I7
tp315
a(S'w'
I6
tp316
a(S'w'
I8
tp317
a(S'tr_tl'
I253
tp318
a(S'w'
I713
tp319
a(S'fc_mo'
I1
tp320
a(S'w'
I7
tp321
a(S'w'
I6
tp322
a(S'w'
I6
tp323
a(S'tr_tl'
I254
tp324
a(S'w'
I714
tp325
a(S'fc_mo'
I1
tp326
a(S'w'
I8
tp327
a(S'w'
I6
tp328
a(S'w'
I7
tp329
a(S'tr_lr'
I8
tp330
a(S'tr_tl'
I253
tp331
a(S'w'
I713
tp332
a(S'fc_mo'
I1
tp333
a(S'w'
I8
tp334
a(S'w'
I6
tp335
a(S'w'
I6
tp336
a(S'tr_tl'
I254
tp337
a(S'w'
I714
tp338
a(S'fc_mo'
I1
tp339
a(S'w'
I8
tp340
a(S'w'
I5
tp341
a(S'w'
I8
tp342
a(S'tr_lr'
I7
tp343
a(S'tr_tl'
I253
tp344
a(S'w'
I713
tp345
a(S'fc_mo'
I1
tp346
a(S'w'
I7
tp347
a(S'w'
I6
tp348
a(S'w'
I6
tp349
a(S'tr_tl'
I254
tp350
a(S'w'
I714
tp351
a(S'fc_mo'
I1
tp352
a(S'w'
I8
tp353
a(S'w'
I6
tp354
a(S'w'
I6
tp355
a(S'tr_tl'
I253
tp356
a(S'w'
I714
tp357
a(S'fc_mo'
I1
tp358
a(S'w'
I8
tp359
a(S'w'
I6
tp360
a(S'w'
I6
tp361
a(S'tr_tl'
I254
tp362
a(S'w'
I714
tp363
a(S'fc_mo'
I1
tp364
a(S'w'
I8
tp365
a(S'w'
I6
tp366
a(S'w'
I6
tp367
a(S'tr_tl'
I253
tp368
a(S'w'
I714
tp369
a(S'fc_mo'
I1
tp370
a(S'w'
I8
tp371
a(S'w'
I5
tp372
a(S'w'
I6
tp373
a(S'tr_tl'
I254
tp374
a(S'w'
I715
tp375
a(S'fc_mo'
I1
tp376
a(S'w'
I8
tp377
a(S'w'
I5
tp378
a(S'w'
I6
tp379
a(S'tr_tl'
I253
tp380
a(S'w'
I715
tp381
a(S'fc_mo'
I1
tp382
a(S'w'
I7
tp383
a(S'w'
I6
tp384
a(S'w'
I6
tp385
a(S'tr_tl'
I254
tp386
a(S'w'
I714
tp387
a(S'fc_mo'
I1
tp388
a(S'w'
I8
tp389
a(S'w'
I6
tp390
a(S'w'
I6
tp391
a(S'tr_tl'
I253
tp392
a(S'w'
I714
tp393
a(S'fc_mo'
I1
tp394
a(S'w'
I8
tp395
a(S'w'
I6
tp396
a(S'w'
I6
tp397
a(S'tr_tl'
I254
tp398
a(S'w'
I714
tp399
a(S'fc_mo'
I1
tp400
a(S'w'
I8
tp401
a(S'w'
I5
tp402
a(S'w'
I6
tp403
a(S'tr_tl'
I253
tp404
a(S'w'
I715
tp405
a(S'fc_mo'
I1
tp406
a(S'w'
I7
tp407
a(S'w'
I6
tp408
a(S'w'
I6
tp409
a(S'tr_tl'
I254
tp410
a(S'w'
I714
tp411
a(S'fc_mo'
I1
tp412
a(S'w'
I8
tp413
a(S'w'
I6
tp414
a(S'w'
I6
tp415
a(S'tr_tl'
I253
tp416
a(S'w'
I714
tp417
a(S'fc_mo'
I1
tp418
a(S'w'
I8
tp419
a(S'w'
I6
tp420
a(S'w'
I6
tp421
a(S'tr_tl'
I254
tp422
a(S'w'
I714
tp423
a(S'fc_mo'
I1
tp424
a(S'w'
I8
tp425
a(S'w'
I6
tp426
a(S'w'
I6
tp427
a(S'tr_tl'
I253
tp428
a(S'w'
I714
tp429
a(S'fc_mo'
I1
tp430
a(S'w'
I8
tp431
a(S'w'
I5
tp432
a(S'w'
I6
tp433
a(S'tr_tl'
I254
tp434
a(S'w'
I715
tp435
a(S'fc_mo'
I1
tp436
a(S'w'
I7
tp437
a(S'w'
I6
tp438
a(S'w'
I6
tp439
a(S'tr_tl'
I253
tp440
a(S'w'
I715
tp441
a(S'fc_mo'
I1
tp442
a(S'w'
I7
tp443
a(S'w'
I6
tp444
a(S'w'
I6
tp445
a(S'tr_tl'
I254
tp446
a(S'w'
I714
tp447
a(S'fc_mo'
I1
tp448
a(S'w'
I8
tp449
a(S'w'
I6
tp450
a(S'w'
I6
tp451
a(S'tr_tl'
I253
tp452
a(S'w'
I714
tp453
a(S'fc_mo'
I1
tp454
a(S'w'
I8
tp455
a(S'w'
I5
tp456
a(S'w'
I7
tp457
a(S'tr_tl'
I254
tp458
a(S'w'
I714
tp459
a(S'fc_mo'
I1
tp460
a(S'w'
I10
tp461
a(S'p1_vo'
I0
tp462
a(S'p1_tl'
I28
tp463
a(S'w'
I8
tp464
a(S'p2_vo'
I0
tp465
a(S'p2_tl'
I28
tp466
a(S'w'
I9
tp467
a(S'tr_lr'
I0
tp468
a(S'tr_tl'
I103
tp469
a(S'w'
I707
tp470
a(S'fc_mo'
I1
tp471
a(S'w'
I734
tp472
a(S'fc_mo'
I1
tp473
a(S'w'
I733
tp474
a(S'fc_mo'
I1
tp475
a(S'w'
I734
tp476
a(S'fc_mo'
I1
tp477
a(S'w'
I734
tp478
a(S'fc_mo'
I1
tp479
a(S'w'
I734
tp480
a(S'fc_mo'
I1
tp481
a(S'w'
I734
tp482
a(S'fc_mo'
I1
tp483
a(S'w'
I733
tp484
a(S'fc_mo'
I1
tp485
a(S'w'
I734
tp486
a(S'fc_mo'
I1
tp487
a(S'w'
I734
tp488
a(S'fc_mo'
I1
tp489
a(S'w'
I734
tp490
a(S'fc_mo'
I1
tp491
a(S'w'
I733
tp492
a(S'fc_mo'
I1
tp493
a(S'w'
I734
tp494
a(S'fc_mo'
I1
tp495
a(S'w'
I734
tp496
a(S'fc_mo'
I1
tp497
a(S'w'
I734
tp498
a(S'fc_mo'
I1
tp499
a(S'w'
I734
tp500
a(S'fc_mo'
I1
tp501
a(S'w'
I734
tp502
a(S'fc_mo'
I1
tp503
a(S'w'
I733
tp504
a(S'fc_mo'
I1
tp505
a(S'w'
I734
tp506
a(S'fc_mo'
I1
tp507
a(S'w'
I734
tp508
a(S'fc_mo'
I1
tp509
a(S'w'
I734
tp510
a(S'fc_mo'
I1
tp511
a(S'w'
I734
tp512
a(S'fc_mo'
I1
tp513
a(S'w'
I733
tp514
a(S'fc_mo'
I1
tp515
a(S'w'
I734
tp516
a(S'fc_mo'
I1
tp517
a(S'w'
I12
tp518
a(S'p1_vo'
I15
tp519
a(S'p1_tl'
I126
tp520
a(S'w'
I1
tp521
a(S'p1_ll'
I1
tp522
a(S'w'
I10
tp523
a(S'p2_vo'
I15
tp524
a(S'p2_tl'
I168
tp525
a(S'w'
I1
tp526
a(S'p2_ll'
I1
tp527
a(S'w'
I11
tp528
a(S'tr_lr'
I15
tp529
a(S'tr_tl'
I83
tp530
a(S'w'
I1
tp531
a(S'tr_ll'
I1
tp532
a(S'tr_th'
I1
tp533
a(S'w'
I698
tp534
a(S'fc_mo'
I1
tp535
a(S'w'
I8
tp536
a(S'w'
I5
tp537
a(S'w'
I8
tp538
a(S'tr_lr'
I14
tp539
a(S'tr_tl'
I82
tp540
a(S'w'
I713
tp541
a(S'fc_mo'
I1
tp542
a(S'w'
I8
tp543
a(S'w'
I5
tp544
a(S'w'
I8
tp545
a(S'tr_lr'
I12
tp546
a(S'tr_tl'
I83
tp547
a(S'w'
I713
tp548
a(S'fc_mo'
I1
tp549
a(S'w'
I7
tp550
a(S'w'
I6
tp551
a(S'w'
I8
tp552
a(S'tr_lr'
I10
tp553
a(S'tr_tl'
I82
tp554
a(S'w'
I712
tp555
a(S'fc_mo'
I1
tp556
a(S'w'
I8
tp557
a(S'w'
I6
tp558
a(S'w'
I7
tp559
a(S'tr_lr'
I7
tp560
a(S'w'
I1
tp561
a(S'tr_tl'
I83
tp562
a(S'w'
I712
tp563
a(S'fc_mo'
I1
tp564
a(S'w'
I8
tp565
a(S'w'
I6
tp566
a(S'w'
I6
tp567
a(S'tr_tl'
I82
tp568
a(S'w'
I714
tp569
a(S'fc_mo'
I1
tp570
a(S'w'
I8
tp571
a(S'w'
I5
tp572
a(S'w'
I7
tp573
a(S'tr_tl'
I83
tp574
a(S'w'
I714
tp575
a(S'fc_mo'
I1
tp576
a(S'w'
I8
tp577
a(S'w'
I5
tp578
a(S'w'
I6
tp579
a(S'tr_tl'
I82
tp580
a(S'w'
I715
tp581
a(S'fc_mo'
I1
tp582
a(S'w'
I11
tp583
a(S'p1_tl'
I141
tp584
a(S'w'
I1
tp585
a(S'p1_ll'
I1
tp586
a(S'w'
I11
tp587
a(S'p2_tl'
I189
tp588
a(S'w'
I1
tp589
a(S'p2_ll'
I1
tp590
a(S'w'
I11
tp591
a(S'tr_lr'
I15
tp592
a(S'tr_tl'
I83
tp593
a(S'w'
I1
tp594
a(S'tr_ll'
I1
tp595
a(S'w'
I697
tp596
a(S'fc_mo'
I1
tp597
a(S'w'
I8
tp598
a(S'w'
I6
tp599
a(S'w'
I7
tp600
a(S'tr_lr'
I14
tp601
a(S'tr_tl'
I82
tp602
a(S'w'
I713
tp603
a(S'fc_mo'
I1
tp604
a(S'w'
I8
tp605
a(S'w'
I6
tp606
a(S'w'
I7
tp607
a(S'tr_lr'
I12
tp608
a(S'tr_tl'
I83
tp609
a(S'w'
I713
tp610
a(S'fc_mo'
I1
tp611
a(S'w'
I8
tp612
a(S'w'
I5
tp613
a(S'w'
I8
tp614
a(S'tr_lr'
I10
tp615
a(S'tr_tl'
I82
tp616
a(S'w'
I713
tp617
a(S'fc_mo'
I1
tp618
a(S'w'
I8
tp619
a(S'w'
I5
tp620
a(S'w'
I8
tp621
a(S'tr_lr'
I7
tp622
a(S'tr_tl'
I83
tp623
a(S'w'
I713
tp624
a(S'fc_mo'
I1
tp625
a(S'w'
I7
tp626
a(S'w'
I6
tp627
a(S'w'
I6
tp628
a(S'tr_tl'
I82
tp629
a(S'w'
I714
tp630
a(S'fc_mo'
I1
tp631
a(S'w'
I8
tp632
a(S'w'
I6
tp633
a(S'w'
I6
tp634
a(S'tr_tl'
I83
tp635
a(S'w'
I714
tp636
a(S'fc_mo'
I1
tp637
a(S'w'
I8
tp638
a(S'w'
I6
tp639
a(S'w'
I6
tp640
a(S'tr_tl'
I82
tp641
a(S'w'
I714
tp642
a(S'fc_mo'
I1
tp643
a(S'w'
I12
tp644
a(S'p1_tl'
I168
tp645
a(S'w'
I1
tp646
a(S'p1_ll'
I1
tp647
a(S'w'
I10
tp648
a(S'p2_tl'
I225
tp649
a(S'w'
I1
tp650
a(S'p2_ll'
I1
tp651
a(S'w'
I11
tp652
a(S'tr_lr'
I15
tp653
a(S'tr_tl'
I83
tp654
a(S'w'
I1
tp655
a(S'tr_ll'
I1
tp656
a(S'w'
I698
tp657
a(S'fc_mo'
I1
tp658
a(S'w'
I8
tp659
a(S'w'
I5
tp660
a(S'w'
I8
tp661
a(S'tr_lr'
I14
tp662
a(S'tr_tl'
I82
tp663
a(S'w'
I713
tp664
a(S'fc_mo'
I1
tp665
a(S'w'
I7
tp666
a(S'w'
I6
tp667
a(S'w'
I8
tp668
a(S'tr_lr'
I12
tp669
a(S'tr_tl'
I83
tp670
a(S'w'
I712
tp671
a(S'fc_mo'
I1
tp672
a(S'w'
I8
tp673
a(S'w'
I6
tp674
a(S'w'
I7
tp675
a(S'tr_lr'
I10
tp676
a(S'w'
I1
tp677
a(S'tr_tl'
I82
tp678
a(S'w'
I712
tp679
a(S'fc_mo'
I1
tp680
a(S'w'
I8
tp681
a(S'w'
I6
tp682
a(S'w'
I7
tp683
a(S'tr_lr'
I7
tp684
a(S'tr_tl'
I83
tp685
a(S'w'
I713
tp686
a(S'fc_mo'
I1
tp687
a(S'w'
I8
tp688
a(S'w'
I5
tp689
a(S'w'
I6
tp690
a(S'tr_tl'
I82
tp691
a(S'w'
I715
tp692
a(S'fc_mo'
I1
tp693
a(S'w'
I8
tp694
a(S'w'
I5
tp695
a(S'w'
I6
tp696
a(S'tr_tl'
I83
tp697
a(S'w'
I715
tp698
a(S'fc_mo'
I1
tp699
a(S'w'
I7
tp700
a(S'w'
I6
tp701
a(S'w'
I6
tp702
a(S'tr_tl'
I82
tp703
a(S'w'
I714
tp704
a(S'fc_mo'
I1
tp705
a(S'w'
I12
tp706
a(S'p1_tl'
I189
tp707
a(S'w'
I1
tp708
a(S'p1_ll'
I1
tp709
a(S'w'
I11
tp710
a(S'p2_tl'
I253
tp711
a(S'p2_ll'
I1
tp712
a(S'w'
I11
tp713
a(S'tr_lr'
I15
tp714
a(S'w'
I1
tp715
a(S'tr_tl'
I83
tp716
a(S'tr_ll'
I1
tp717
a(S'w'
I698
tp718
a(S'fc_mo'
I1
tp719
a(S'w'
I8
tp720
a(S'w'
I6
tp721
a(S'w'
I7
tp722
a(S'tr_lr'
I14
tp723
a(S'tr_tl'
I82
tp724
a(S'w'
I713
tp725
a(S'fc_mo'
I1
tp726
a(S'w'
I8
tp727
a(S'w'
I5
tp728
a(S'w'
I8
tp729
a(S'tr_lr'
I12
tp730
a(S'tr_tl'
I83
tp731
a(S'w'
I713
tp732
a(S'fc_mo'
I1
tp733
a(S'w'
I8
tp734
a(S'w'
I5
tp735
a(S'w'
I8
tp736
a(S'tr_lr'
I10
tp737
a(S'tr_tl'
I82
tp738
a(S'w'
I713
tp739
a(S'fc_mo'
I1
tp740
a(S'w'
I7
tp741
a(S'w'
I6
tp742
a(S'w'
I8
tp743
a(S'tr_lr'
I7
tp744
a(S'tr_tl'
I83
tp745
a(S'w'
I712
tp746
a(S'fc_mo'
I1
tp747
a(S'w'
I8
tp748
a(S'w'
I6
tp749
a(S'w'
I6
tp750
a(S'tr_tl'
I82
tp751
a(S'w'
I714
tp752
a(S'fc_mo'
I1
tp753
a(S'w'
I8
tp754
a(S'w'
I6
tp755
a(S'w'
I6
tp756
a(S'tr_tl'
I83
tp757
a(S'w'
I714
tp758
a(S'fc_mo'
I1
tp759
a(S'w'
I8
tp760
a(S'w'
I5
tp761
a(S'w'
I6
tp762
a(S'tr_tl'
I82
tp763
a(S'w'
I715
tp764
a(S'fc_mo'
I1
tp765
a(S'w'
I12
tp766
a(S'p1_tl'
I168
tp767
a(S'p1_ll'
I1
tp768
a(S'w'
I11
tp769
a(S'p2_tl'
I225
tp770
a(S'w'
I1
tp771
a(S'p2_ll'
I1
tp772
a(S'w'
I11
tp773
a(S'tr_lr'
I15
tp774
a(S'tr_tl'
I83
tp775
a(S'w'
I1
tp776
a(S'tr_ll'
I1
tp777
a(S'w'
I698
tp778
a(S'fc_mo'
I1
tp779
a(S'w'
I7
tp780
a(S'w'
I6
tp781
a(S'w'
I8
tp782
a(S'tr_lr'
I14
tp783
a(S'tr_tl'
I82
tp784
a(S'w'
I713
tp785
a(S'fc_mo'
I1
tp786
a(S'w'
I7
tp787
a(S'w'
I6
tp788
a(S'w'
I8
tp789
a(S'tr_lr'
I12
tp790
a(S'tr_tl'
I83
tp791
a(S'w'
I712
tp792
a(S'fc_mo'
I1
tp793
a(S'w'
I8
tp794
a(S'w'
I6
tp795
a(S'w'
I7
tp796
a(S'tr_lr'
I10
tp797
a(S'tr_tl'
I82
tp798
a(S'w'
I713
tp799
a(S'fc_mo'
I1
tp800
a(S'w'
I8
tp801
a(S'w'
I5
tp802
a(S'w'
I8
tp803
a(S'tr_lr'
I7
tp804
a(S'tr_tl'
I83
tp805
a(S'w'
I713
tp806
a(S'fc_mo'
I1
tp807
a(S'w'
I8
tp808
a(S'w'
I5
tp809
a(S'w'
I6
tp810
a(S'tr_tl'
I82
tp811
a(S'w'
I715
tp812
a(S'fc_mo'
I1
tp813
a(S'w'
I7
tp814
a(S'w'
I6
tp815
a(S'w'
I6
tp816
a(S'tr_tl'
I83
tp817
a(S'w'
I714
tp818
a(S'fc_mo'
I1
tp819
a(S'w'
I8
tp820
a(S'w'
I6
tp821
a(S'w'
I6
tp822
a(S'tr_tl'
I82
tp823
a(S'w'
I714
tp824
a(S'fc_mo'
I1
tp825
a(S'w'
I12
tp826
a(S'p1_tl'
I141
tp827
a(S'w'
I1
tp828
a(S'p1_ll'
I1
tp829
a(S'w'
I11
tp830
a(S'p2_tl'
I189
tp831
a(S'p2_ll'
I1
tp832
a(S'w'
I11
tp833
a(S'tr_lr'
I15
tp834
a(S'tr_tl'
I83
tp835
a(S'w'
I1
tp836
a(S'tr_ll'
I1
tp837
a(S'w'
I698
tp838
a(S'fc_mo'
I1
tp839
a(S'w'
I8
tp840
a(S'w'
I5
tp841
a(S'w'
I8
tp842
a(S'tr_lr'
I14
tp843
a(S'tr_tl'
I82
tp844
a(S'w'
I713
tp845
a(S'fc_mo'
I1
tp846
a(S'w'
I8
tp847
a(S'w'
I5
tp848
a(S'w'
I8
tp849
a(S'tr_lr'
I12
tp850
a(S'tr_tl'
I83
tp851
a(S'w'
I713
tp852
a(S'fc_mo'
I1
tp853
a(S'w'
I7
tp854
a(S'w'
I6
tp855
a(S'w'
I8
tp856
a(S'tr_lr'
I10
tp857
a(S'tr_tl'
I82
tp858
a(S'w'
I712
tp859
a(S'fc_mo'
I1
tp860
a(S'w'
I8
tp861
a(S'w'
I6
tp862
a(S'w'
I7
tp863
a(S'tr_lr'
I7
tp864
a(S'w'
I1
tp865
a(S'tr_tl'
I83
tp866
a(S'w'
I712
tp867
a(S'fc_mo'
I1
tp868
a(S'w'
I8
tp869
a(S'w'
I6
tp870
a(S'w'
I6
tp871
a(S'tr_tl'
I82
tp872
a(S'w'
I714
tp873
a(S'fc_mo'
I1
tp874
a(S'w'
I8
tp875
a(S'w'
I5
tp876
a(S'w'
I7
tp877
a(S'tr_tl'
I83
tp878
a(S'w'
I714
tp879
a(S'fc_mo'
I1
tp880
a(S'w'
I8
tp881
a(S'w'
I5
tp882
a(S'w'
I6
tp883
a(S'tr_tl'
I82
tp884
a(S'w'
I715
tp885
a(S'fc_mo'
I1
tp886
a(S'w'
I12
tp887
a(S'p1_tl'
I126
tp888
a(S'p1_ll'
I1
tp889
a(S'w'
I11
tp890
a(S'p2_tl'
I168
tp891
a(S'w'
I1
tp892
a(S'p2_ll'
I1
tp893
a(S'w'
I11
tp894
a(S'tr_lr'
I15
tp895
a(S'tr_tl'
I29
tp896
a(S'w'
I1
tp897
a(S'tr_ll'
I1
tp898
a(S'w'
I697
tp899
a(S'fc_mo'
I1
tp900
a(S'w'
I8
tp901
a(S'w'
I6
tp902
a(S'w'
I7
tp903
a(S'tr_lr'
I14
tp904
a(S'w'
I1
tp905
a(S'tr_tl'
I28
tp906
a(S'w'
I712
tp907
a(S'fc_mo'
I1
tp908
a(S'w'
I8
tp909
a(S'w'
I6
tp910
a(S'w'
I7
tp911
a(S'tr_lr'
I12
tp912
a(S'w'
I1
tp913
a(S'tr_tl'
I29
tp914
a(S'w'
I712
tp915
a(S'fc_mo'
I1
tp916
a(S'w'
I8
tp917
a(S'w'
I5
tp918
a(S'w'
I8
tp919
a(S'tr_lr'
I10
tp920
a(S'tr_tl'
I28
tp921
a(S'w'
I713
tp922
a(S'fc_mo'
I1
tp923
a(S'w'
I8
tp924
a(S'w'
I5
tp925
a(S'w'
I8
tp926
a(S'tr_lr'
I7
tp927
a(S'tr_tl'
I29
tp928
a(S'w'
I713
tp929
a(S'fc_mo'
I1
tp930
a(S'w'
I7
tp931
a(S'w'
I6
tp932
a(S'w'
I6
tp933
a(S'tr_tl'
I28
tp934
a(S'w'
I714
tp935
a(S'fc_mo'
I1
tp936
a(S'w'
I8
tp937
a(S'w'
I6
tp938
a(S'w'
I6
tp939
a(S'tr_tl'
I29
tp940
a(S'w'
I714
tp941
a(S'fc_mo'
I1
tp942
a(S'w'
I8
tp943
a(S'w'
I6
tp944
a(S'w'
I6
tp945
a(S'tr_tl'
I28
tp946
a(S'w'
I714
tp947
a(S'fc_mo'
I1
tp948
a(S'w'
I12
tp949
a(S'p1_tl'
I141
tp950
a(S'w'
I1
tp951
a(S'p1_ll'
I1
tp952
a(S'w'
I10
tp953
a(S'p2_tl'
I189
tp954
a(S'w'
I1
tp955
a(S'p2_ll'
I1
tp956
a(S'w'
I11
tp957
a(S'tr_lr'
I15
tp958
a(S'tr_tl'
I29
tp959
a(S'w'
I1
tp960
a(S'tr_ll'
I1
tp961
a(S'w'
I698
tp962
a(S'fc_mo'
I1
tp963
a(S'w'
I8
tp964
a(S'w'
I5
tp965
a(S'w'
I8
tp966
a(S'tr_lr'
I14
tp967
a(S'tr_tl'
I28
tp968
a(S'w'
I713
tp969
a(S'fc_mo'
I1
tp970
a(S'w'
I7
tp971
a(S'w'
I6
tp972
a(S'w'
I8
tp973
a(S'tr_lr'
I12
tp974
a(S'tr_tl'
I29
tp975
a(S'w'
I712
tp976
a(S'fc_mo'
I1
tp977
a(S'w'
I8
tp978
a(S'w'
I6
tp979
a(S'w'
I7
tp980
a(S'tr_lr'
I10
tp981
a(S'w'
I1
tp982
a(S'tr_tl'
I28
tp983
a(S'w'
I712
tp984
a(S'fc_mo'
I1
tp985
a(S'w'
I8
tp986
a(S'w'
I6
tp987
a(S'w'
I7
tp988
a(S'tr_lr'
I7
tp989
a(S'tr_tl'
I29
tp990
a(S'w'
I713
tp991
a(S'fc_mo'
I1
tp992
a(S'w'
I8
tp993
a(S'w'
I5
tp994
a(S'w'
I7
tp995
a(S'tr_tl'
I28
tp996
a(S'w'
I714
tp997
a(S'fc_mo'
I1
tp998
a(S'w'
I8
tp999
a(S'w'
I5
tp1000
a(S'w'
I6
tp1001
a(S'tr_tl'
I29
tp1002
a(S'w'
I715
tp1003
a(S'fc_mo'
I1
tp1004
a(S'w'
I7
tp1005
a(S'w'
I6
tp1006
a(S'w'
I6
tp1007
a(S'tr_tl'
I28
tp1008
a(S'w'
I714
tp1009
a(S'fc_mo'
I1
tp1010
a(S'w'
I12
tp1011
a(S'p1_tl'
I126
tp1012
a(S'w'
I1
tp1013
a(S'p1_ll'
I1
tp1014
a(S'w'
I11
tp1015
a(S'p2_tl'
I168
tp1016
a(S'p2_ll'
I1
tp1017
a(S'w'
I11
tp1018
a(S'tr_lr'
I15
tp1019
a(S'w'
I1
tp1020
a(S'tr_tl'
I29
tp1021
a(S'tr_ll'
I1
tp1022
a(S'w'
I698
tp1023
a(S'fc_mo'
I1
tp1024
a(S'w'
I8
tp1025
a(S'w'
I6
tp1026
a(S'w'
I7
tp1027
a(S'tr_lr'
I14
tp1028
a(S'tr_tl'
I28
tp1029
a(S'w'
I713
tp1030
a(S'fc_mo'
I1
tp1031
a(S'w'
I8
tp1032
a(S'w'
I6
tp1033
a(S'w'
I7
tp1034
a(S'tr_lr'
I12
tp1035
a(S'tr_tl'
I29
tp1036
a(S'w'
I713
tp1037
a(S'fc_mo'
I1
tp1038
a(S'w'
I8
tp1039
a(S'w'
I5
tp1040
a(S'w'
I8
tp1041
a(S'tr_lr'
I10
tp1042
a(S'tr_tl'
I28
tp1043
a(S'w'
I713
tp1044
a(S'fc_mo'
I1
tp1045
a(S'w'
I7
tp1046
a(S'w'
I6
tp1047
a(S'w'
I8
tp1048
a(S'tr_lr'
I7
tp1049
a(S'tr_tl'
I29
tp1050
a(S'w'
I713
tp1051
a(S'fc_mo'
I1
tp1052
a(S'w'
I7
tp1053
a(S'w'
I6
tp1054
a(S'w'
I6
tp1055
a(S'tr_tl'
I28
tp1056
a(S'w'
I714
tp1057
a(S'fc_mo'
I1
tp1058
a(S'w'
I8
tp1059
a(S'w'
I6
tp1060
a(S'w'
I6
tp1061
a(S'tr_tl'
I29
tp1062
a(S'w'
I714
tp1063
a(S'fc_mo'
I1
tp1064
a(S'w'
I8
tp1065
a(S'w'
I5
tp1066
a(S'w'
I7
tp1067
a(S'tr_tl'
I28
tp1068
a(S'w'
I714
tp1069
a(S'fc_mo'
I1
tp1070
a(S'w'
I12
tp1071
a(S'p1_tl'
I105
tp1072
a(S'w'
I1
tp1073
a(S'p1_ll'
I1
tp1074
a(S'w'
I10
tp1075
a(S'p2_tl'
I141
tp1076
a(S'w'
I1
tp1077
a(S'p2_ll'
I1
tp1078
a(S'w'
I11
tp1079
a(S'tr_lr'
I15
tp1080
a(S'tr_tl'
I29
tp1081
a(S'w'
I1
tp1082
a(S'tr_ll'
I1
tp1083
a(S'w'
I698
tp1084
a(S'fc_mo'
I1
tp1085
a(S'w'
I7
tp1086
a(S'w'
I6
tp1087
a(S'w'
I8
tp1088
a(S'tr_lr'
I14
tp1089
a(S'tr_tl'
I28
tp1090
a(S'w'
I713
tp1091
a(S'fc_mo'
I1
tp1092
a(S'w'
I7
tp1093
a(S'w'
I6
tp1094
a(S'w'
I7
tp1095
a(S'tr_lr'
I12
tp1096
a(S'w'
I1
tp1097
a(S'tr_tl'
I29
tp1098
a(S'w'
I712
tp1099
a(S'fc_mo'
I1
tp1100
a(S'w'
I8
tp1101
a(S'w'
I6
tp1102
a(S'w'
I7
tp1103
a(S'tr_lr'
I10
tp1104
a(S'tr_tl'
I28
tp1105
a(S'w'
I713
tp1106
a(S'fc_mo'
I1
tp1107
a(S'w'
I8
tp1108
a(S'w'
I6
tp1109
a(S'w'
I7
tp1110
a(S'tr_lr'
I7
tp1111
a(S'tr_tl'
I29
tp1112
a(S'w'
I713
tp1113
a(S'fc_mo'
I1
tp1114
a(S'w'
I8
tp1115
a(S'w'
I5
tp1116
a(S'w'
I6
tp1117
a(S'tr_tl'
I28
tp1118
a(S'w'
I715
tp1119
a(S'fc_mo'
I1
tp1120
a(S'w'
I7
tp1121
a(S'w'
I6
tp1122
a(S'w'
I6
tp1123
a(S'tr_tl'
I29
tp1124
a(S'w'
I714
tp1125
a(S'fc_mo'
I1
tp1126
a(S'w'
I8
tp1127
a(S'w'
I6
tp1128
a(S'w'
I6
tp1129
a(S'tr_tl'
I28
tp1130
a(S'w'
I714
tp1131
a(S'fc_mo'
I1
tp1132
a(S'w'
I12
tp1133
a(S'p1_tl'
I126
tp1134
a(S'w'
I1
tp1135
a(S'p1_ll'
I1
tp1136
a(S'w'
I11
tp1137
a(S'p2_tl'
I168
tp1138
a(S'p2_ll'
I1
tp1139
a(S'w'
I11
tp1140
a(S'tr_lr'
I15
tp1141
a(S'tr_tl'
I29
tp1142
a(S'w'
I1
tp1143
a(S'tr_ll'
I1
tp1144
a(S'w'
I698
tp1145
a(S'fc_mo'
I1
tp1146
a(S'w'
I8
tp1147
a(S'w'
I5
tp1148
a(S'w'
I8
tp1149
a(S'tr_lr'
I14
tp1150
a(S'tr_tl'
I28
tp1151
a(S'w'
I713
tp1152
a(S'fc_mo'
I1
tp1153
a(S'w'
I8
tp1154
a(S'w'
I5
tp1155
a(S'w'
I8
tp1156
a(S'tr_lr'
I12
tp1157
a(S'tr_tl'
I29
tp1158
a(S'w'
I713
tp1159
a(S'fc_mo'
I1
tp1160
a(S'w'
I7
tp1161
a(S'w'
I6
tp1162
a(S'w'
I8
tp1163
a(S'tr_lr'
I10
tp1164
a(S'tr_tl'
I28
tp1165
a(S'w'
I712
tp1166
a(S'fc_mo'
I1
tp1167
a(S'w'
I8
tp1168
a(S'w'
I6
tp1169
a(S'w'
I7
tp1170
a(S'tr_lr'
I7
tp1171
a(S'w'
I1
tp1172
a(S'tr_tl'
I29
tp1173
a(S'w'
I712
tp1174
a(S'fc_mo'
I1
tp1175
a(S'w'
I8
tp1176
a(S'w'
I6
tp1177
a(S'w'
I6
tp1178
a(S'tr_tl'
I28
tp1179
a(S'w'
I714
tp1180
a(S'fc_mo'
I1
tp1181
a(S'w'
I8
tp1182
a(S'w'
I5
tp1183
a(S'w'
I7
tp1184
a(S'tr_tl'
I29
tp1185
a(S'w'
I714
tp1186
a(S'fc_mo'
I1
tp1187
a(S'w'
I8
tp1188
a(S'w'
I5
tp1189
a(S'w'
I6
tp1190
a(S'tr_tl'
I28
tp1191
a(S'w'
I715
tp1192
a(S'fc_mo'
I1
tp1193
a(S'w'
I12
tp1194
a(S'p1_tl'
I141
tp1195
a(S'p1_ll'
I1
tp1196
a(S'w'
I11
tp1197
a(S'p2_tl'
I189
tp1198
a(S'w'
I1
tp1199
a(S'p2_ll'
I1
tp1200
a(S'w'
I11
tp1201
a(S'tr_lr'
I15
tp1202
a(S'tr_tl'
I29
tp1203
a(S'w'
I1
tp1204
a(S'tr_ll'
I1
tp1205
a(S'w'
I698
tp1206
a(S'fc_mo'
I1
tp1207
a(S'w'
I7
tp1208
a(S'w'
I6
tp1209
a(S'w'
I7
tp1210
a(S'tr_lr'
I14
tp1211
a(S'w'
I1
tp1212
a(S'tr_tl'
I28
tp1213
a(S'w'
I712
tp1214
a(S'fc_mo'
I1
tp1215
a(S'w'
I8
tp1216
a(S'w'
I6
tp1217
a(S'w'
I7
tp1218
a(S'tr_lr'
I12
tp1219
a(S'w'
I1
tp1220
a(S'tr_tl'
I29
tp1221
a(S'w'
I712
tp1222
a(S'fc_mo'
I1
tp1223
a(S'w'
I8
tp1224
a(S'w'
I5
tp1225
a(S'w'
I8
tp1226
a(S'tr_lr'
I10
tp1227
a(S'tr_tl'
I28
tp1228
a(S'w'
I713
tp1229
a(S'fc_mo'
I1
tp1230
a(S'w'
I8
tp1231
a(S'w'
I5
tp1232
a(S'w'
I8
tp1233
a(S'tr_lr'
I7
tp1234
a(S'tr_tl'
I29
tp1235
a(S'w'
I713
tp1236
a(S'fc_mo'
I1
tp1237
a(S'w'
I7
tp1238
a(S'w'
I6
tp1239
a(S'w'
I6
tp1240
a(S'tr_tl'
I28
tp1241
a(S'w'
I714
tp1242
a(S'fc_mo'
I1
tp1243
a(S'w'
I8
tp1244
a(S'w'
I6
tp1245
a(S'w'
I6
tp1246
a(S'tr_tl'
I29
tp1247
a(S'w'
I714
tp1248
a(S'fc_mo'
I1
tp1249
a(S'w'
I8
tp1250
a(S'w'
I6
tp1251
a(S'w'
I6
tp1252
a(S'tr_tl'
I28
tp1253
a(S'w'
I714
tp1254
a(S'fc_mo'
I1
tp1255
a(S'w'
I12
tp1256
a(S'p1_tl'
I126
tp1257
a(S'w'
I1
tp1258
a(S'p1_ll'
I1
tp1259
a(S'w'
I10
tp1260
a(S'p2_tl'
I168
tp1261
a(S'w'
I1
tp1262
a(S'p2_ll'
I1
tp1263
a(S'w'
I11
tp1264
a(S'tr_lr'
I15
tp1265
a(S'tr_tl'
I254
tp1266
a(S'w'
I1
tp1267
a(S'tr_ll'
I1
tp1268
a(S'tr_th'
I0
tp1269
a(S'w'
I698
tp1270
a(S'fc_mo'
I1
tp1271
a(S'w'
I8
tp1272
a(S'w'
I5
tp1273
a(S'w'
I8
tp1274
a(S'tr_lr'
I14
tp1275
a(S'tr_tl'
I253
tp1276
a(S'w'
I713
tp1277
a(S'fc_mo'
I1
tp1278
a(S'w'
I7
tp1279
a(S'w'
I6
tp1280
a(S'w'
I8
tp1281
a(S'tr_lr'
I12
tp1282
a(S'tr_tl'
I254
tp1283
a(S'w'
I713
tp1284
a(S'fc_mo'
I1
tp1285
a(S'w'
I7
tp1286
a(S'w'
I6
tp1287
a(S'w'
I8
tp1288
a(S'tr_lr'
I10
tp1289
a(S'tr_tl'
I253
tp1290
a(S'w'
I712
tp1291
a(S'fc_mo'
I1
tp1292
a(S'w'
I8
tp1293
a(S'w'
I6
tp1294
a(S'w'
I7
tp1295
a(S'tr_lr'
I7
tp1296
a(S'tr_tl'
I254
tp1297
a(S'w'
I713
tp1298
a(S'fc_mo'
I1
tp1299
a(S'w'
I8
tp1300
a(S'w'
I5
tp1301
a(S'w'
I7
tp1302
a(S'tr_tl'
I253
tp1303
a(S'w'
I714
tp1304
a(S'fc_mo'
I1
tp1305
a(S'w'
I8
tp1306
a(S'w'
I5
tp1307
a(S'w'
I6
tp1308
a(S'tr_tl'
I254
tp1309
a(S'w'
I715
tp1310
a(S'fc_mo'
I1
tp1311
a(S'w'
I7
tp1312
a(S'w'
I6
tp1313
a(S'w'
I6
tp1314
a(S'tr_tl'
I253
tp1315
a(S'w'
I714
tp1316
a(S'fc_mo'
I1
tp1317
a(S'w'
I12
tp1318
a(S'p1_tl'
I141
tp1319
a(S'w'
I1
tp1320
a(S'p1_ll'
I1
tp1321
a(S'w'
I11
tp1322
a(S'p2_tl'
I189
tp1323
a(S'w'
I1
tp1324
a(S'p2_ll'
I1
tp1325
a(S'w'
I10
tp1326
a(S'tr_lr'
I15
tp1327
a(S'w'
I1
tp1328
a(S'tr_tl'
I254
tp1329
a(S'tr_ll'
I1
tp1330
a(S'w'
I698
tp1331
a(S'fc_mo'
I1
tp1332
a(S'w'
I8
tp1333
a(S'w'
I6
tp1334
a(S'w'
I7
tp1335
a(S'tr_lr'
I14
tp1336
a(S'tr_tl'
I253
tp1337
a(S'w'
I713
tp1338
a(S'fc_mo'
I1
tp1339
a(S'w'
I8
tp1340
a(S'w'
I6
tp1341
a(S'w'
I7
tp1342
a(S'tr_lr'
I12
tp1343
a(S'tr_tl'
I254
tp1344
a(S'w'
I713
tp1345
a(S'fc_mo'
I1
tp1346
a(S'w'
I8
tp1347
a(S'w'
I5
tp1348
a(S'w'
I8
tp1349
a(S'tr_lr'
I10
tp1350
a(S'tr_tl'
I253
tp1351
a(S'w'
I713
tp1352
a(S'fc_mo'
I1
tp1353
a(S'w'
I7
tp1354
a(S'w'
I6
tp1355
a(S'w'
I8
tp1356
a(S'tr_lr'
I7
tp1357
a(S'tr_tl'
I254
tp1358
a(S'w'
I712
tp1359
a(S'fc_mo'
I1
tp1360
a(S'w'
I8
tp1361
a(S'w'
I6
tp1362
a(S'w'
I6
tp1363
a(S'tr_tl'
I253
tp1364
a(S'w'
I714
tp1365
a(S'fc_mo'
I1
tp1366
a(S'w'
I8
tp1367
a(S'w'
I6
tp1368
a(S'w'
I6
tp1369
a(S'tr_tl'
I254
tp1370
a(S'w'
I714
tp1371
a(S'fc_mo'
I1
tp1372
a(S'w'
I8
tp1373
a(S'w'
I6
tp1374
a(S'w'
I6
tp1375
a(S'tr_tl'
I253
tp1376
a(S'w'
I714
tp1377
a(S'fc_mo'
I1
tp1378
a(S'w'
I12
tp1379
a(S'p1_tl'
I168
tp1380
a(S'w'
I1
tp1381
a(S'p1_ll'
I1
tp1382
a(S'w'
I10
tp1383
a(S'p2_tl'
I225
tp1384
a(S'w'
I1
tp1385
a(S'p2_ll'
I1
tp1386
a(S'w'
I11
tp1387
a(S'tr_lr'
I15
tp1388
a(S'tr_tl'
I254
tp1389
a(S'w'
I1
tp1390
a(S'tr_ll'
I1
tp1391
a(S'w'
I698
tp1392
a(S'fc_mo'
I1
tp1393
a(S'w'
I7
tp1394
a(S'w'
I6
tp1395
a(S'w'
I8
tp1396
a(S'tr_lr'
I14
tp1397
a(S'tr_tl'
I253
tp1398
a(S'w'
I713
tp1399
a(S'fc_mo'
I1
tp1400
a(S'w'
I7
tp1401
a(S'w'
I6
tp1402
a(S'w'
I8
tp1403
a(S'tr_lr'
I12
tp1404
a(S'tr_tl'
I254
tp1405
a(S'w'
I712
tp1406
a(S'fc_mo'
I1
tp1407
a(S'w'
I8
tp1408
a(S'w'
I6
tp1409
a(S'w'
I7
tp1410
a(S'tr_lr'
I10
tp1411
a(S'w'
I1
tp1412
a(S'tr_tl'
I253
tp1413
a(S'w'
I712
tp1414
a(S'fc_mo'
I1
tp1415
a(S'w'
I8
tp1416
a(S'w'
I5
tp1417
a(S'w'
I8
tp1418
a(S'tr_lr'
I7
tp1419
a(S'tr_tl'
I254
tp1420
a(S'w'
I713
tp1421
a(S'fc_mo'
I1
tp1422
a(S'w'
I8
tp1423
a(S'w'
I5
tp1424
a(S'w'
I6
tp1425
a(S'tr_tl'
I253
tp1426
a(S'w'
I715
tp1427
a(S'fc_mo'
I1
tp1428
a(S'w'
I7
tp1429
a(S'w'
I6
tp1430
a(S'w'
I6
tp1431
a(S'tr_tl'
I254
tp1432
a(S'w'
I715
tp1433
a(S'fc_mo'
I1
tp1434
a(S'w'
I7
tp1435
a(S'w'
I6
tp1436
a(S'w'
I6
tp1437
a(S'tr_tl'
I253
tp1438
a(S'w'
I714
tp1439
a(S'fc_mo'
I1
tp1440
a(S'w'
I12
tp1441
a(S'p1_tl'
I189
tp1442
a(S'w'
I1
tp1443
a(S'p1_ll'
I1
tp1444
a(S'w'
I11
tp1445
a(S'p2_tl'
I253
tp1446
a(S'p2_ll'
I1
tp1447
a(S'w'
I11
tp1448
a(S'tr_lr'
I15
tp1449
a(S'w'
I1
tp1450
a(S'tr_tl'
I254
tp1451
a(S'tr_ll'
I1
tp1452
a(S'w'
I698
tp1453
a(S'fc_mo'
I1
tp1454
a(S'w'
I8
tp1455
a(S'w'
I5
tp1456
a(S'w'
I8
tp1457
a(S'tr_lr'
I14
tp1458
a(S'tr_tl'
I253
tp1459
a(S'w'
I713
tp1460
a(S'fc_mo'
I1
tp1461
a(S'w'
I8
tp1462
a(S'w'
I5
tp1463
a(S'w'
I8
tp1464
a(S'tr_lr'
I12
tp1465
a(S'tr_tl'
I254
tp1466
a(S'w'
I713
tp1467
a(S'fc_mo'
I1
tp1468
a(S'w'
I7
tp1469
a(S'w'
I6
tp1470
a(S'w'
I8
tp1471
a(S'tr_lr'
I10
tp1472
a(S'tr_tl'
I253
tp1473
a(S'w'
I713
tp1474
a(S'fc_mo'
I1
tp1475
a(S'w'
I7
tp1476
a(S'w'
I6
tp1477
a(S'w'
I8
tp1478
a(S'tr_lr'
I7
tp1479
a(S'tr_tl'
I254
tp1480
a(S'w'
I712
tp1481
a(S'fc_mo'
I1
tp1482
a(S'w'
I8
tp1483
a(S'w'
I6
tp1484
a(S'w'
I6
tp1485
a(S'tr_tl'
I253
tp1486
a(S'w'
I714
tp1487
a(S'fc_mo'
I1
tp1488
a(S'w'
I8
tp1489
a(S'w'
I6
tp1490
a(S'w'
I6
tp1491
a(S'tr_tl'
I254
tp1492
a(S'w'
I714
tp1493
a(S'fc_mo'
I1
tp1494
a(S'w'
I8
tp1495
a(S'w'
I5
tp1496
a(S'w'
I7
tp1497
a(S'tr_tl'
I253
tp1498
a(S'w'
I714
tp1499
a(S'fc_mo'
I1
tp1500
a(S'w'
I12
tp1501
a(S'p1_tl'
I168
tp1502
a(S'p1_ll'
I1
tp1503
a(S'w'
I11
tp1504
a(S'p2_tl'
I225
tp1505
a(S'w'
I1
tp1506
a(S'p2_ll'
I1
tp1507
a(S'w'
I11
tp1508
a(S'tr_lr'
I15
tp1509
a(S'tr_tl'
I254
tp1510
a(S'w'
I1
tp1511
a(S'tr_ll'
I1
tp1512
a(S'w'
I698
tp1513
a(S'fc_mo'
I1
tp1514
a(S'w'
I7
tp1515
a(S'w'
I6
tp1516
a(S'w'
I7
tp1517
a(S'tr_lr'
I14
tp1518
a(S'w'
I1
tp1519
a(S'tr_tl'
I253
tp1520
a(S'w'
I712
tp1521
a(S'fc_mo'
I1
tp1522
a(S'w'
I8
tp1523
a(S'w'
I6
tp1524
a(S'w'
I7
tp1525
a(S'tr_lr'
I12
tp1526
a(S'w'
I1
tp1527
a(S'tr_tl'
I254
tp1528
a(S'w'
I712
tp1529
a(S'fc_mo'
I1
tp1530
a(S'w'
I8
tp1531
a(S'w'
I5
tp1532
a(S'w'
I8
tp1533
a(S'tr_lr'
I10
tp1534
a(S'tr_tl'
I253
tp1535
a(S'w'
I713
tp1536
a(S'fc_mo'
I1
tp1537
a(S'w'
I8
tp1538
a(S'w'
I5
tp1539
a(S'w'
I8
tp1540
a(S'tr_lr'
I7
tp1541
a(S'tr_tl'
I254
tp1542
a(S'w'
I713
tp1543
a(S'fc_mo'
I1
tp1544
a(S'w'
I8
tp1545
a(S'w'
I5
tp1546
a(S'w'
I6
tp1547
a(S'tr_tl'
I253
tp1548
a(S'w'
I715
tp1549
a(S'fc_mo'
I1
tp1550
a(S'w'
I7
tp1551
a(S'w'
I6
tp1552
a(S'w'
I6
tp1553
a(S'tr_tl'
I254
tp1554
a(S'w'
I714
tp1555
a(S'fc_mo'
I1
tp1556
a(S'w'
I8
tp1557
a(S'w'
I6
tp1558
a(S'w'
I6
tp1559
a(S'tr_tl'
I253
tp1560
a(S'w'
I714
tp1561
a(S'fc_mo'
I1
tp1562
a(S'w'
I12
tp1563
a(S'p1_tl'
I141
tp1564
a(S'w'
I1
tp1565
a(S'p1_ll'
I1
tp1566
a(S'w'
I10
tp1567
a(S'p2_tl'
I189
tp1568
a(S'w'
I1
tp1569
a(S'p2_ll'
I1
tp1570
a(S'w'
I11
tp1571
a(S'tr_lr'
I15
tp1572
a(S'tr_tl'
I254
tp1573
a(S'w'
I1
tp1574
a(S'tr_ll'
I1
tp1575
a(S'w'
I698
tp1576
a(S'fc_mo'
I1
tp1577
a(S'w'
I8
tp1578
a(S'w'
I5
tp1579
a(S'w'
I8
tp1580
a(S'tr_lr'
I14
tp1581
a(S'tr_tl'
I253
tp1582
a(S'w'
I713
tp1583
a(S'fc_mo'
I1
tp1584
a(S'w'
I8
tp1585
a(S'w'
I5
tp1586
a(S'w'
I8
tp1587
a(S'tr_lr'
I12
tp1588
a(S'tr_tl'
I254
tp1589
a(S'w'
I713
tp1590
a(S'fc_mo'
I1
tp1591
a(S'w'
I7
tp1592
a(S'w'
I6
tp1593
a(S'w'
I8
tp1594
a(S'tr_lr'
I10
tp1595
a(S'tr_tl'
I253
tp1596
a(S'w'
I712
tp1597
a(S'fc_mo'
I1
tp1598
a(S'w'
I8
tp1599
a(S'w'
I6
tp1600
a(S'w'
I7
tp1601
a(S'tr_lr'
I7
tp1602
a(S'w'
I1
tp1603
a(S'tr_tl'
I254
tp1604
a(S'w'
I712
tp1605
a(S'fc_mo'
I1
tp1606
a(S'w'
I8
tp1607
a(S'w'
I6
tp1608
a(S'w'
I6
tp1609
a(S'tr_tl'
I253
tp1610
a(S'w'
I714
tp1611
a(S'fc_mo'
I1
tp1612
a(S'w'
I8
tp1613
a(S'w'
I5
tp1614
a(S'w'
I6
tp1615
a(S'tr_tl'
I254
tp1616
a(S'w'
I715
tp1617
a(S'fc_mo'
I1
tp1618
a(S'w'
I8
tp1619
a(S'w'
I5
tp1620
a(S'w'
I6
tp1621
a(S'tr_tl'
I253
tp1622
a(S'w'
I715
tp1623
a(S'fc_mo'
I1
tp1624
a(S'w'
I12
tp1625
a(S'p1_tl'
I126
tp1626
a(S'p1_ll'
I1
tp1627
a(S'w'
I11
tp1628
a(S'p2_tl'
I168
tp1629
a(S'w'
I1
tp1630
a(S'p2_ll'
I1
tp1631
a(S'w'
I11
tp1632
a(S'tr_lr'
I15
tp1633
a(S'tr_tl'
I254
tp1634
a(S'w'
I1
tp1635
a(S'tr_ll'
I1
tp1636
a(S'w'
I697
tp1637
a(S'fc_mo'
I1
tp1638
a(S'w'
I8
tp1639
a(S'w'
I6
tp1640
a(S'w'
I7
tp1641
a(S'tr_lr'
I14
tp1642
a(S'tr_tl'
I253
tp1643
a(S'w'
I713
tp1644
a(S'fc_mo'
I1
tp1645
a(S'w'
I8
tp1646
a(S'w'
I6
tp1647
a(S'w'
I7
tp1648
a(S'tr_lr'
I13
tp1649
a(S'tr_tl'
I254
tp1650
a(S'w'
I713
tp1651
a(S'fc_mo'
I1
tp1652
a(S'w'
I8
tp1653
a(S'w'
I5
tp1654
a(S'w'
I8
tp1655
a(S'tr_lr'
I11
tp1656
a(S'tr_tl'
I253
tp1657
a(S'w'
I713
tp1658
a(S'fc_mo'
I1
tp1659
a(S'w'
I8
tp1660
a(S'w'
I5
tp1661
a(S'w'
I8
tp1662
a(S'tr_lr'
I10
tp1663
a(S'tr_tl'
I254
tp1664
a(S'w'
I713
tp1665
a(S'fc_mo'
I1
tp1666
a(S'w'
I7
tp1667
a(S'w'
I6
tp1668
a(S'w'
I8
tp1669
a(S'tr_lr'
I9
tp1670
a(S'tr_tl'
I253
tp1671
a(S'w'
I712
tp1672
a(S'fc_mo'
I1
tp1673
a(S'w'
I8
tp1674
a(S'w'
I6
tp1675
a(S'w'
I7
tp1676
a(S'tr_lr'
I7
tp1677
a(S'w'
I1
tp1678
a(S'tr_tl'
I254
tp1679
a(S'w'
I712
tp1680
a(S'fc_mo'
I1
tp1681
a(S'w'
I8
tp1682
a(S'w'
I5
tp1683
a(S'w'
I7
tp1684
a(S'tr_tl'
I253
tp1685
a(S'w'
I714
tp1686
a(S'fc_mo'
I1
tp1687
a(S'w'
I8
tp1688
a(S'w'
I5
tp1689
a(S'w'
I6
tp1690
a(S'tr_tl'
I254
tp1691
a(S'w'
I715
tp1692
a(S'fc_mo'
I1
tp1693
a(S'w'
I7
tp1694
a(S'w'
I6
tp1695
a(S'w'
I6
tp1696
a(S'tr_tl'
I253
tp1697
a(S'w'
I715
tp1698
a(S'fc_mo'
I1
tp1699
a(S'w'
I7
tp1700
a(S'w'
I6
tp1701
a(S'w'
I6
tp1702
a(S'tr_tl'
I254
tp1703
a(S'w'
I714
tp1704
a(S'fc_mo'
I1
tp1705
a(S'w'
I8
tp1706
a(S'w'
I6
tp1707
a(S'w'
I6
tp1708
a(S'tr_tl'
I253
tp1709
a(S'w'
I714
tp1710
a(S'fc_mo'
I1
tp1711
a(S'w'
I10
tp1712
a(S'p1_vo'
I0
tp1713
a(S'p1_tl'
I28
tp1714
a(S'w'
I9
tp1715
a(S'p2_vo'
I0
tp1716
a(S'p2_tl'
I28
tp1717
a(S'w'
I9
tp1718
a(S'tr_lr'
I0
tp1719
a(S'tr_tl'
I104
tp1720
a(S'w'
I706
tp1721
a(S'fc_mo'
I1
tp1722
a(S'w'
I734
tp1723
a(S'fc_mo'
I1
tp1724
a(S'w'
I734
tp1725
a(S'fc_mo'
I1
tp1726
a(S'w'
I733
tp1727
a(S'fc_mo'
I1
tp1728
a(S'w'
I734
tp1729
a(S'fc_mo'
I1
tp1730
a(S'w'
I734
tp1731
a(S'fc_mo'
I1
tp1732
a(S'w'
I734
tp1733
a(S'fc_mo'
I1
tp1734
a(S'w'
I734
tp1735
a(S'fc_mo'
I1
tp1736
a(S'w'
I733
tp1737
a(S'fc_mo'
I1
tp1738
a(S'w'
I734
tp1739
a(S'fc_mo'
I1
tp1740
a(S'w'
I734
tp1741
a(S'fc_mo'
I1
tp1742
a(S'w'
I734
tp1743
a(S'fc_mo'
I1
tp1744
a(S'w'
I12
tp1745
a(S'p1_vo'
I15
tp1746
a(S'p1_tl'
I126
tp1747
a(S'p1_ll'
I1
tp1748
a(S'w'
I11
tp1749
a(S'p2_vo'
I15
tp1750
a(S'p2_tl'
I168
tp1751
a(S'w'
I1
tp1752
a(S'p2_ll'
I1
tp1753
a(S'w'
I11
tp1754
a(S'tr_lr'
I15
tp1755
a(S'tr_tl'
I253
tp1756
a(S'w'
I1
tp1757
a(S'tr_ll'
I1
tp1758
a(S'w'
I698
tp1759
a(S'fc_mo'
I1
tp1760
a(S'w'
I7
tp1761
a(S'w'
I6
tp1762
a(S'w'
I8
tp1763
a(S'tr_lr'
I14
tp1764
a(S'tr_tl'
I254
tp1765
a(S'w'
I712
tp1766
a(S'fc_mo'
I1
tp1767
a(S'w'
I8
tp1768
a(S'w'
I6
tp1769
a(S'w'
I7
tp1770
a(S'tr_lr'
I12
tp1771
a(S'w'
I1
tp1772
a(S'tr_tl'
I253
tp1773
a(S'w'
I712
tp1774
a(S'fc_mo'
I1
tp1775
a(S'w'
I8
tp1776
a(S'w'
I6
tp1777
a(S'w'
I7
tp1778
a(S'tr_lr'
I10
tp1779
a(S'tr_tl'
I254
tp1780
a(S'w'
I713
tp1781
a(S'fc_mo'
I1
tp1782
a(S'w'
I8
tp1783
a(S'w'
I5
tp1784
a(S'w'
I8
tp1785
a(S'tr_lr'
I7
tp1786
a(S'tr_tl'
I253
tp1787
a(S'w'
I713
tp1788
a(S'fc_mo'
I1
tp1789
a(S'w'
I8
tp1790
a(S'w'
I5
tp1791
a(S'w'
I6
tp1792
a(S'tr_tl'
I254
tp1793
a(S'w'
I715
tp1794
a(S'fc_mo'
I1
tp1795
a(S'w'
I7
tp1796
a(S'w'
I6
tp1797
a(S'w'
I6
tp1798
a(S'tr_tl'
I253
tp1799
a(S'w'
I714
tp1800
a(S'fc_mo'
I1
tp1801
a(S'w'
I8
tp1802
a(S'w'
I6
tp1803
a(S'w'
I6
tp1804
a(S'tr_tl'
I254
tp1805
a(S'w'
I714
tp1806
a(S'fc_mo'
I1
tp1807
a(S'w'
I12
tp1808
a(S'w'
I1
tp1809
a(S'p1_ll'
I1
tp1810
a(S'w'
I11
tp1811
a(S'p2_ll'
I1
tp1812
a(S'w'
I11
tp1813
a(S'tr_lr'
I15
tp1814
a(S'tr_tl'
I253
tp1815
a(S'w'
I1
tp1816
a(S'tr_ll'
I1
tp1817
a(S'w'
I698
tp1818
a(S'fc_mo'
I1
tp1819
a(S'w'
I8
tp1820
a(S'w'
I5
tp1821
a(S'w'
I8
tp1822
a(S'tr_lr'
I14
tp1823
a(S'tr_tl'
I254
tp1824
a(S'w'
I713
tp1825
a(S'fc_mo'
I1
tp1826
a(S'w'
I8
tp1827
a(S'w'
I5
tp1828
a(S'w'
I8
tp1829
a(S'tr_lr'
I12
tp1830
a(S'tr_tl'
I253
tp1831
a(S'w'
I713
tp1832
a(S'fc_mo'
I1
tp1833
a(S'w'
I7
tp1834
a(S'w'
I6
tp1835
a(S'w'
I8
tp1836
a(S'tr_lr'
I10
tp1837
a(S'tr_tl'
I254
tp1838
a(S'w'
I712
tp1839
a(S'fc_mo'
I1
tp1840
a(S'w'
I8
tp1841
a(S'w'
I6
tp1842
a(S'w'
I7
tp1843
a(S'tr_lr'
I7
tp1844
a(S'w'
I1
tp1845
a(S'tr_tl'
I253
tp1846
a(S'w'
I712
tp1847
a(S'fc_mo'
I1
tp1848
a(S'w'
I8
tp1849
a(S'w'
I6
tp1850
a(S'w'
I6
tp1851
a(S'tr_tl'
I254
tp1852
a(S'w'
I714
tp1853
a(S'fc_mo'
I1
tp1854
a(S'w'
I8
tp1855
a(S'w'
I5
tp1856
a(S'w'
I7
tp1857
a(S'tr_tl'
I253
tp1858
a(S'w'
I714
tp1859
a(S'fc_mo'
I1
tp1860
a(S'w'
I8
tp1861
a(S'w'
I5
tp1862
a(S'w'
I6
tp1863
a(S'tr_tl'
I254
tp1864
a(S'w'
I715
tp1865
a(S'fc_mo'
I1
tp1866
a(S'w'
I12
tp1867
a(S'p1_ll'
I1
tp1868
a(S'w'
I11
tp1869
a(S'w'
I1
tp1870
a(S'p2_ll'
I1
tp1871
a(S'w'
I11
tp1872
a(S'tr_lr'
I15
tp1873
a(S'tr_tl'
I253
tp1874
a(S'w'
I1
tp1875
a(S'tr_ll'
I1
tp1876
a(S'w'
I697
tp1877
a(S'fc_mo'
I1
tp1878
a(S'w'
I8
tp1879
a(S'w'
I6
tp1880
a(S'w'
I7
tp1881
a(S'tr_lr'
I14
tp1882
a(S'w'
I1
tp1883
a(S'tr_tl'
I254
tp1884
a(S'w'
I712
tp1885
a(S'fc_mo'
I1
tp1886
a(S'w'
I8
tp1887
a(S'w'
I6
tp1888
a(S'w'
I7
tp1889
a(S'tr_lr'
I12
tp1890
a(S'tr_tl'
I253
tp1891
a(S'w'
I713
tp1892
a(S'fc_mo'
I1
tp1893
a(S'w'
I8
tp1894
a(S'w'
I5
tp1895
a(S'w'
I8
tp1896
a(S'tr_lr'
I10
tp1897
a(S'tr_tl'
I254
tp1898
a(S'w'
I713
tp1899
a(S'fc_mo'
I1
tp1900
a(S'w'
I8
tp1901
a(S'w'
I5
tp1902
a(S'w'
I8
tp1903
a(S'tr_lr'
I7
tp1904
a(S'tr_tl'
I253
tp1905
a(S'w'
I713
tp1906
a(S'fc_mo'
I1
tp1907
a(S'w'
I7
tp1908
a(S'w'
I6
tp1909
a(S'w'
I6
tp1910
a(S'tr_tl'
I254
tp1911
a(S'w'
I714
tp1912
a(S'fc_mo'
I1
tp1913
a(S'w'
I8
tp1914
a(S'w'
I6
tp1915
a(S'w'
I6
tp1916
a(S'tr_tl'
I253
tp1917
a(S'w'
I714
tp1918
a(S'fc_mo'
I1
tp1919
a(S'w'
I8
tp1920
a(S'w'
I6
tp1921
a(S'w'
I6
tp1922
a(S'tr_tl'
I254
tp1923
a(S'w'
I714
tp1924
a(S'fc_mo'
I1
tp1925
a(S'w'
I12
tp1926
a(S'w'
I1
tp1927
a(S'p1_ll'
I1
tp1928
a(S'w'
I10
tp1929
a(S'w'
I1
tp1930
a(S'p2_ll'
I1
tp1931
a(S'w'
I11
tp1932
a(S'tr_lr'
I15
tp1933
a(S'tr_tl'
I253
tp1934
a(S'w'
I1
tp1935
a(S'tr_ll'
I1
tp1936
a(S'w'
I698
tp1937
a(S'fc_mo'
I1
tp1938
a(S'w'
I8
tp1939
a(S'w'
I5
tp1940
a(S'w'
I6
tp1941
a(S'tr_tl'
I254
tp1942
a(S'w'
I715
tp1943
a(S'fc_mo'
I1
tp1944
a(S'w'
I7
tp1945
a(S'w'
I6
tp1946
a(S'w'
I8
tp1947
a(S'tr_lr'
I14
tp1948
a(S'tr_tl'
I253
tp1949
a(S'w'
I712
tp1950
a(S'fc_mo'
I1
tp1951
a(S'w'
I8
tp1952
a(S'w'
I6
tp1953
a(S'w'
I6
tp1954
a(S'tr_tl'
I254
tp1955
a(S'w'
I714
tp1956
a(S'fc_mo'
I1
tp1957
a(S'w'
I8
tp1958
a(S'w'
I6
tp1959
a(S'w'
I7
tp1960
a(S'tr_tl'
I253
tp1961
a(S'w'
I713
tp1962
a(S'fc_mo'
I1
tp1963
a(S'w'
I8
tp1964
a(S'w'
I5
tp1965
a(S'w'
I6
tp1966
a(S'tr_tl'
I254
tp1967
a(S'w'
I715
tp1968
a(S'fc_mo'
I1
tp1969
a(S'w'
I8
tp1970
a(S'w'
I5
tp1971
a(S'w'
I8
tp1972
a(S'tr_lr'
I13
tp1973
a(S'tr_tl'
I253
tp1974
a(S'w'
I713
tp1975
a(S'fc_mo'
I1
tp1976
a(S'w'
I7
tp1977
a(S'w'
I6
tp1978
a(S'w'
I6
tp1979
a(S'tr_tl'
I254
tp1980
a(S'w'
I714
tp1981
a(S'fc_mo'
I1
tp1982
a(S'w'
I8
tp1983
a(S'w'
I6
tp1984
a(S'w'
I8
tp1985
a(S'tr_tl'
I253
tp1986
a(S'w'
I712
tp1987
a(S'fc_mo'
I1
tp1988
a(S'w'
I8
tp1989
a(S'w'
I6
tp1990
a(S'w'
I6
tp1991
a(S'tr_tl'
I254
tp1992
a(S'w'
I714
tp1993
a(S'fc_mo'
I1
tp1994
a(S'w'
I8
tp1995
a(S'w'
I6
tp1996
a(S'w'
I7
tp1997
a(S'tr_lr'
I12
tp1998
a(S'tr_tl'
I253
tp1999
a(S'w'
I713
tp2000
a(S'fc_mo'
I1
tp2001
a(S'w'
I8
tp2002
a(S'w'
I5
tp2003
a(S'w'
I6
tp2004
a(S'tr_tl'
I254
tp2005
a(S'w'
I715
tp2006
a(S'fc_mo'
I1
tp2007
a(S'w'
I7
tp2008
a(S'w'
I6
tp2009
a(S'w'
I8
tp2010
a(S'tr_tl'
I253
tp2011
a(S'w'
I713
tp2012
a(S'fc_mo'
I1
tp2013
a(S'w'
I7
tp2014
a(S'w'
I6
tp2015
a(S'w'
I6
tp2016
a(S'tr_tl'
I254
tp2017
a(S'w'
I714
tp2018
a(S'fc_mo'
I1
tp2019
a(S'w'
I8
tp2020
a(S'w'
I6
tp2021
a(S'w'
I7
tp2022
a(S'tr_lr'
I11
tp2023
a(S'tr_tl'
I253
tp2024
a(S'w'
I713
tp2025
a(S'fc_mo'
I1
tp2026
a(S'w'
I8
tp2027
a(S'w'
I5
tp2028
a(S'w'
I6
tp2029
a(S'tr_tl'
I254
tp2030
a(S'w'
I715
tp2031
a(S'fc_mo'
I1
tp2032
a(S'w'
I8
tp2033
a(S'w'
I5
tp2034
a(S'w'
I8
tp2035
a(S'tr_tl'
I253
tp2036
a(S'w'
I713
tp2037
a(S'fc_mo'
I1
tp2038
a(S'w'
I7
tp2039
a(S'w'
I6
tp2040
a(S'w'
I6
tp2041
a(S'tr_tl'
I254
tp2042
a(S'w'
I715
tp2043
a(S'fc_mo'
I1
tp2044
a(S'w'
I7
tp2045
a(S'w'
I6
tp2046
a(S'w'
I8
tp2047
a(S'tr_lr'
I10
tp2048
a(S'tr_tl'
I253
tp2049
a(S'w'
I712
tp2050
a(S'fc_mo'
I1
tp2051
a(S'w'
I8
tp2052
a(S'w'
I6
tp2053
a(S'w'
I6
tp2054
a(S'tr_tl'
I254
tp2055
a(S'w'
I714
tp2056
a(S'fc_mo'
I1
tp2057
a(S'w'
I8
tp2058
a(S'w'
I6
tp2059
a(S'w'
I7
tp2060
a(S'tr_tl'
I253
tp2061
a(S'w'
I713
tp2062
a(S'fc_mo'
I1
tp2063
a(S'w'
I8
tp2064
a(S'w'
I5
tp2065
a(S'w'
I6
tp2066
a(S'tr_tl'
I254
tp2067
a(S'w'
I715
tp2068
a(S'fc_mo'
I1
tp2069
a(S'w'
I7
tp2070
a(S'w'
I6
tp2071
a(S'w'
I8
tp2072
a(S'tr_lr'
I9
tp2073
a(S'tr_tl'
I253
tp2074
a(S'w'
I712
tp2075
a(S'fc_mo'
I1
tp2076
a(S'w'
I8
tp2077
a(S'w'
I6
tp2078
a(S'w'
I6
tp2079
a(S'tr_tl'
I254
tp2080
a(S'w'
I714
tp2081
a(S'fc_mo'
I1
tp2082
a(S'w'
I8
tp2083
a(S'w'
I6
tp2084
a(S'w'
I7
tp2085
a(S'tr_tl'
I253
tp2086
a(S'w'
I713
tp2087
a(S'fc_mo'
I1
tp2088
a(S'w'
I8
tp2089
a(S'w'
I6
tp2090
a(S'w'
I6
tp2091
a(S'tr_tl'
I254
tp2092
a(S'w'
I714
tp2093
a(S'fc_mo'
I1
tp2094
a(S'w'
I8
tp2095
a(S'w'
I5
tp2096
a(S'w'
I8
tp2097
a(S'tr_lr'
I8
tp2098
a(S'tr_tl'
I253
tp2099
a(S'w'
I713
tp2100
a(S'fc_mo'
I1
tp2101
a(S'w'
I7
tp2102
a(S'w'
I6
tp2103
a(S'w'
I6
tp2104
a(S'tr_tl'
I254
tp2105
a(S'w'
I715
tp2106
a(S'fc_mo'
I1
tp2107
a(S'w'
I7
tp2108
a(S'w'
I6
tp2109
a(S'w'
I7
tp2110
a(S'tr_lr'
I7
tp2111
a(S'w'
I1
tp2112
a(S'tr_tl'
I253
tp2113
a(S'w'
I712
tp2114
a(S'fc_mo'
I1
tp2115
a(S'w'
I8
tp2116
a(S'w'
I6
tp2117
a(S'w'
I6
tp2118
a(S'tr_tl'
I254
tp2119
a(S'w'
I714
tp2120
a(S'fc_mo'
I1
tp2121
a(S'w'
I8
tp2122
a(S'w'
I5
tp2123
a(S'w'
I7
tp2124
a(S'tr_tl'
I253
tp2125
a(S'w'
I714
tp2126
a(S'fc_mo'
I1
tp2127
a(S'w'
I8
tp2128
a(S'w'
I5
tp2129
a(S'w'
I6
tp2130
a(S'tr_tl'
I254
tp2131
a(S'w'
I715
tp2132
a(S'fc_mo'
I1
tp2133
a(S'w'
I7
tp2134
a(S'w'
I6
tp2135
a(S'w'
I6
tp2136
a(S'tr_tl'
I253
tp2137
a(S'w'
I714
tp2138
a(S'fc_mo'
I1
tp2139
a(S'w'
I8
tp2140
a(S'w'
I6
tp2141
a(S'w'
I6
tp2142
a(S'tr_tl'
I254
tp2143
a(S'w'
I714
tp2144
a(S'fc_mo'
I1
tp2145
a(S'w'
I8
tp2146
a(S'w'
I6
tp2147
a(S'w'
I6
tp2148
a(S'tr_tl'
I253
tp2149
a(S'w'
I714
tp2150
a(S'fc_mo'
I1
tp2151
a(S'w'
I8
tp2152
a(S'w'
I5
tp2153
a(S'w'
I7
tp2154
a(S'tr_tl'
I254
tp2155
a(S'w'
I714
tp2156
a(S'fc_mo'
I1
tp2157
a(S'w'
I8
tp2158
a(S'w'
I5
tp2159
a(S'w'
I6
tp2160
a(S'tr_tl'
I253
tp2161
a(S'w'
I715
tp2162
a(S'fc_mo'
I1
tp2163
a(S'w'
I7
tp2164
a(S'w'
I6
tp2165
a(S'w'
I6
tp2166
a(S'tr_tl'
I254
tp2167
a(S'w'
I715
tp2168
a(S'fc_mo'
I1
tp2169
a(S'w'
I7
tp2170
a(S'w'
I6
tp2171
a(S'w'
I6
tp2172
a(S'tr_tl'
I253
tp2173
a(S'w'
I714
tp2174
a(S'fc_mo'
I1
tp2175
a(S'w'
I8
tp2176
a(S'w'
I6
tp2177
a(S'w'
I6
tp2178
a(S'tr_tl'
I254
tp2179
a(S'w'
I714
tp2180
a(S'fc_mo'
I1
tp2181
a(S'w'
I8
tp2182
a(S'w'
I6
tp2183
a(S'w'
I6
tp2184
a(S'tr_tl'
I253
tp2185
a(S'w'
I714
tp2186
a(S'fc_mo'
I1
tp2187
a(S'w'
I8
tp2188
a(S'w'
I5
tp2189
a(S'w'
I6
tp2190
a(S'tr_tl'
I254
tp2191
a(S'w'
I715
tp2192
a(S'fc_mo'
I1
tp2193
a(S'w'
I8
tp2194
a(S'w'
I5
tp2195
a(S'w'
I6
tp2196
a(S'tr_tl'
I253
tp2197
a(S'w'
I715
tp2198
a(S'fc_mo'
I1
tp2199
a(S'w'
I7
tp2200
a(S'w'
I6
tp2201
a(S'w'
I6
tp2202
a(S'tr_tl'
I254
tp2203
a(S'w'
I714
tp2204
a(S'fc_mo'
I1
tp2205
a(S'w'
I8
tp2206
a(S'w'
I6
tp2207
a(S'w'
I6
tp2208
a(S'tr_tl'
I253
tp2209
a(S'w'
I714
tp2210
a(S'fc_mo'
I1
tp2211
a(S'w'
I8
tp2212
a(S'w'
I5
tp2213
a(S'w'
I7
tp2214
a(S'tr_tl'
I254
tp2215
a(S'w'
I714
tp2216
a(S'fc_mo'
I1
tp2217
a(S'w'
I8
tp2218
a(S'w'
I5
tp2219
a(S'w'
I6
tp2220
a(S'tr_tl'
I253
tp2221
a(S'w'
I715
tp2222
a(S'fc_mo'
I1
tp2223
a(S'w'
I7
tp2224
a(S'w'
I6
tp2225
a(S'w'
I6
tp2226
a(S'tr_tl'
I254
tp2227
a(S'w'
I715
tp2228
a(S'fc_mo'
I1
tp2229
a(S'w'
I7
tp2230
a(S'p1_du'
I2
tp2231
a(S'p1_lh'
I0
tp2232
a(S'p1_vo'
I0
tp2233
a(S'w'
I6
tp2234
a(S'p2_du'
I2
tp2235
a(S'p2_lh'
I0
tp2236
a(S'p2_vo'
I0
tp2237
a(S'w'
I6
tp2238
a(S'tr_lh'
I0
tp2239
a(S'tr_lr'
I0
tp2240
a(S'w'
I1
tp2241
a.