(lp1
(S'clock'
p2
I1789772
tp3
a(S'ch_no'
I1
tp4
a(S'ch_tr'
I1
tp5
a(S'ch_p2'
I1
tp6
a(S'ch_p1'
I1
tp7
a(S'fc_mo'
I1
tp8
a(S'w'
I68
tp9
a(S'ch_no'
I1
tp10
a(S'ch_tr'
I0
tp11
a(S'ch_p2'
I1
tp12
a(S'ch_p1'
I1
tp13
a(S'p1_du'
I3
tp14
a(S'p1_lh'
I1
tp15
a(S'p1_cv'
I1
tp16
a(S'p2_du'
I3
tp17
a(S'p2_lh'
I1
tp18
a(S'p2_cv'
I1
tp19
a(S'w'
I1
tp20
a(S'tr_lh'
I1
tp21
a(S'tr_lr'
I112
tp22
a(S'no_lh'
I1
tp23
a(S'no_cv'
I1
tp24
a(S'w'
I69
tp25
a(S'p1_ll'
I0
tp26
a(S'p1_th'
I1
tp27
a(S'w'
I1
tp28
a(S'p1_du'
I0
tp29
a(S'p1_vo'
I12
tp30
a(S'w'
I1
tp31
a(S'w'
I34
tp32
a(S'p2_ll'
I0
tp33
a(S'w'
I1
tp34
a(S'p2_tl'
I152
tp35
a(S'w'
I1
tp36
a(S'p2_du'
I0
tp37
a(S'p2_vo'
I12
tp38
a(S'w'
I37
tp39
a(S'tr_ll'
I0
tp40
a(S'tr_th'
I1
tp41
a(S'tr_tl'
I67
tp42
a(S'w'
I1
tp43
a(S'tr_lh'
I0
tp44
a(S'tr_lr'
I63
tp45
a(S'tr_lh'
I1
tp46
a(S'tr_lr'
I127
tp47
a(S'w'
I265
tp48
a(S'ch_no'
I1
tp49
a(S'ch_tr'
I1
tp50
a(S'ch_p2'
I1
tp51
a(S'ch_p1'
I1
tp52
a(S'w'
I87
tp53
a(S'tr_ll'
I0
tp54
a(S'w'
I1
tp55
a(S'w'
I646
tp56
a(S'ch_no'
I1
tp57
a(S'ch_tr'
I1
tp58
a(S'ch_p2'
I1
tp59
a(S'ch_p1'
I1
tp60
a(S'fc_mo'
I1
tp61
a(S'w'
I26
tp62
a(S'p1_vo'
I11
tp63
a(S'w'
I32
tp64
a(S'p2_vo'
I11
tp65
a(S'w'
I31
tp66
a(S'tr_ll'
I0
tp67
a(S'w'
I1
tp68
a(S'tr_lh'
I0
tp69
a(S'tr_lr'
I62
tp70
a(S'w'
I1
tp71
a(S'tr_lh'
I1
tp72
a(S'tr_lr'
I127
tp73
a(S'w'
I730
tp74
a(S'tr_ll'
I0
tp75
a(S'w'
I672
tp76
a(S'p1_vo'
I10
tp77
a(S'w'
I32
tp78
a(S'p2_vo'
I10
tp79
a(S'w'
I32
tp80
a(S'tr_ll'
I0
tp81
a(S'w'
I1
tp82
a(S'tr_lh'
I0
tp83
a(S'tr_lr'
I61
tp84
a(S'w'
I1
tp85
a(S'tr_lh'
I1
tp86
a(S'tr_lr'
I127
tp87
a(S'w'
I729
tp88
a(S'tr_ll'
I0
tp89
a(S'w'
I675
tp90
a(S'p1_ll'
I0
tp91
a(S'p1_th'
I0
tp92
a(S'p1_tl'
I242
tp93
a(S'w'
I1
tp94
a(S'p1_vo'
I12
tp95
a(S'w'
I34
tp96
a(S'p2_ll'
I0
tp97
a(S'p2_tl'
I121
tp98
a(S'w'
I1
tp99
a(S'p2_vo'
I12
tp100
a(S'w'
I34
tp101
a(S'tr_ll'
I0
tp102
a(S'tr_tl'
I48
tp103
a(S'w'
I1
tp104
a(S'tr_lh'
I0
tp105
a(S'tr_lr'
I63
tp106
a(S'w'
I1
tp107
a(S'tr_lh'
I1
tp108
a(S'tr_lr'
I127
tp109
a(S'w'
I721
tp110
a(S'tr_ll'
I0
tp111
a(S'w'
I673
tp112
a(S'p1_vo'
I11
tp113
a(S'w'
I31
tp114
a(S'p2_vo'
I11
tp115
a(S'w'
I32
tp116
a(S'tr_ll'
I0
tp117
a(S'w'
I1
tp118
a(S'tr_lh'
I0
tp119
a(S'tr_lr'
I62
tp120
a(S'w'
I1
tp121
a(S'tr_lh'
I1
tp122
a(S'tr_lr'
I127
tp123
a(S'w'
I730
tp124
a(S'tr_ll'
I0
tp125
a(S'w'
I672
tp126
a(S'p1_vo'
I10
tp127
a(S'w'
I32
tp128
a(S'p2_vo'
I10
tp129
a(S'w'
I32
tp130
a(S'tr_ll'
I0
tp131
a(S'w'
I1
tp132
a(S'tr_lh'
I0
tp133
a(S'tr_lr'
I61
tp134
a(S'tr_lh'
I1
tp135
a(S'tr_lr'
I127
tp136
a(S'w'
I730
tp137
a(S'tr_ll'
I0
tp138
a(S'w'
I675
tp139
a(S'p1_ll'
I0
tp140
a(S'p1_tl'
I228
tp141
a(S'w'
I1
tp142
a(S'p1_vo'
I12
tp143
a(S'w'
I34
tp144
a(S'p2_ll'
I0
tp145
a(S'p2_tl'
I108
tp146
a(S'w'
I1
tp147
a(S'p2_vo'
I12
tp148
a(S'w'
I31
tp149
a(S'tr_tl'
I0
tp150
a(S'tr_ll'
I0
tp151
a(S'tr_th'
I0
tp152
a(S'w'
I1
tp153
a(S'tr_lh'
I0
tp154
a(S'tr_lr'
I48
tp155
a(S'ch_no'
I1
tp156
a(S'ch_tr'
I0
tp157
a(S'ch_p2'
I1
tp158
a(S'ch_p1'
I1
tp159
a(S'w'
I638
tp160
a(S'ch_no'
I1
tp161
a(S'ch_tr'
I1
tp162
a(S'ch_p2'
I1
tp163
a(S'ch_p1'
I1
tp164
a(S'w'
I84
tp165
a(S'tr_ll'
I0
tp166
a(S'w'
I675
tp167
a(S'p1_vo'
I11
tp168
a(S'w'
I32
tp169
a(S'p2_vo'
I11
tp170
a(S'w'
I28
tp171
a(S'tr_ll'
I0
tp172
a(S'w'
I732
tp173
a(S'tr_ll'
I0
tp174
a(S'w'
I676
tp175
a(S'p1_vo'
I10
tp176
a(S'w'
I32
tp177
a(S'p2_vo'
I10
tp178
a(S'w'
I28
tp179
a(S'tr_ll'
I0
tp180
a(S'w'
I732
tp181
a(S'tr_ll'
I0
tp182
a(S'w'
I677
tp183
a(S'p1_ll'
I0
tp184
a(S'w'
I1
tp185
a(S'p1_tl'
I215
tp186
a(S'w'
I1
tp187
a(S'p1_vo'
I12
tp188
a(S'w'
I34
tp189
a(S'p2_ll'
I0
tp190
a(S'p2_tl'
I85
tp191
a(S'w'
I1
tp192
a(S'p2_vo'
I12
tp193
a(S'w'
I36
tp194
a(S'tr_ll'
I0
tp195
a(S'tr_th'
I1
tp196
a(S'w'
I1
tp197
a(S'tr_tl'
I67
tp198
a(S'w'
I1
tp199
a(S'tr_lr'
I63
tp200
a(S'tr_lh'
I1
tp201
a(S'tr_lr'
I127
tp202
a(S'w'
I719
tp203
a(S'tr_ll'
I0
tp204
a(S'w'
I672
tp205
a(S'p1_vo'
I11
tp206
a(S'w'
I32
tp207
a(S'p2_vo'
I11
tp208
a(S'w'
I31
tp209
a(S'tr_ll'
I0
tp210
a(S'w'
I2
tp211
a(S'tr_lh'
I0
tp212
a(S'tr_lr'
I62
tp213
a(S'tr_lh'
I1
tp214
a(S'tr_lr'
I127
tp215
a(S'w'
I730
tp216
a(S'tr_ll'
I0
tp217
a(S'w'
I673
tp218
a(S'p1_vo'
I10
tp219
a(S'w'
I32
tp220
a(S'p2_vo'
I10
tp221
a(S'w'
I31
tp222
a(S'tr_ll'
I0
tp223
a(S'w'
I1
tp224
a(S'tr_lh'
I0
tp225
a(S'tr_lr'
I61
tp226
a(S'w'
I1
tp227
a(S'tr_lh'
I1
tp228
a(S'tr_lr'
I127
tp229
a(S'w'
I730
tp230
a(S'tr_ll'
I0
tp231
a(S'w'
I674
tp232
a(S'p1_ll'
I0
tp233
a(S'p1_tl'
I203
tp234
a(S'w'
I1
tp235
a(S'p1_vo'
I12
tp236
a(S'w'
I32
tp237
a(S'p2_vo'
I9
tp238
a(S'w'
I34
tp239
a(S'tr_ll'
I0
tp240
a(S'tr_tl'
I48
tp241
a(S'w'
I1
tp242
a(S'tr_lh'
I0
tp243
a(S'tr_lr'
I63
tp244
a(S'w'
I1
tp245
a(S'tr_lh'
I1
tp246
a(S'tr_lr'
I127
tp247
a(S'w'
I724
tp248
a(S'tr_ll'
I0
tp249
a(S'w'
I673
tp250
a(S'p1_vo'
I11
tp251
a(S'w'
I32
tp252
a(S'p2_vo'
I7
tp253
a(S'w'
I31
tp254
a(S'tr_ll'
I0
tp255
a(S'w'
I1
tp256
a(S'tr_lh'
I0
tp257
a(S'tr_lr'
I62
tp258
a(S'w'
I1
tp259
a(S'tr_lh'
I1
tp260
a(S'tr_lr'
I127
tp261
a(S'w'
I730
tp262
a(S'tr_ll'
I0
tp263
a(S'w'
I672
tp264
a(S'p1_vo'
I10
tp265
a(S'w'
I32
tp266
a(S'p2_vo'
I5
tp267
a(S'w'
I32
tp268
a(S'tr_ll'
I0
tp269
a(S'w'
I1
tp270
a(S'tr_lh'
I0
tp271
a(S'tr_lr'
I61
tp272
a(S'w'
I1
tp273
a(S'tr_lh'
I1
tp274
a(S'tr_lr'
I127
tp275
a(S'w'
I730
tp276
a(S'tr_ll'
I0
tp277
a(S'w'
I674
tp278
a(S'p1_ll'
I0
tp279
a(S'p1_tl'
I215
tp280
a(S'w'
I1
tp281
a(S'p1_vo'
I12
tp282
a(S'w'
I63
tp283
a(S'tr_tl'
I0
tp284
a(S'w'
I1
tp285
a(S'tr_ll'
I0
tp286
a(S'tr_th'
I0
tp287
a(S'tr_lh'
I0
tp288
a(S'tr_lr'
I48
tp289
a(S'w'
I1
tp290
a(S'ch_no'
I1
tp291
a(S'ch_tr'
I0
tp292
a(S'ch_p2'
I1
tp293
a(S'ch_p1'
I1
tp294
a(S'w'
I640
tp295
a(S'ch_no'
I1
tp296
a(S'ch_tr'
I1
tp297
a(S'ch_p2'
I1
tp298
a(S'ch_p1'
I1
tp299
a(S'w'
I86
tp300
a(S'tr_ll'
I0
tp301
a(S'w'
I674
tp302
a(S'p1_vo'
I11
tp303
a(S'w'
I60
tp304
a(S'tr_ll'
I0
tp305
a(S'w'
I733
tp306
a(S'tr_ll'
I0
tp307
a(S'w'
I674
tp308
a(S'p1_vo'
I10
tp309
a(S'w'
I61
tp310
a(S'tr_ll'
I0
tp311
a(S'w'
I733
tp312
a(S'tr_ll'
I0
tp313
a(S'w'
I676
tp314
a(S'p1_ll'
I0
tp315
a(S'p1_tl'
I228
tp316
a(S'w'
I1
tp317
a(S'p1_vo'
I12
tp318
a(S'w'
I69
tp319
a(S'tr_ll'
I0
tp320
a(S'tr_th'
I1
tp321
a(S'tr_tl'
I67
tp322
a(S'w'
I1
tp323
a(S'tr_lr'
I63
tp324
a(S'tr_lh'
I1
tp325
a(S'tr_lr'
I127
tp326
a(S'w'
I723
tp327
a(S'tr_ll'
I0
tp328
a(S'w'
I671
tp329
a(S'p1_vo'
I11
tp330
a(S'w'
I64
tp331
a(S'tr_ll'
I0
tp332
a(S'w'
I1
tp333
a(S'tr_lh'
I0
tp334
a(S'tr_lr'
I62
tp335
a(S'w'
I1
tp336
a(S'tr_lh'
I1
tp337
a(S'tr_lr'
I127
tp338
a(S'w'
I731
tp339
a(S'tr_ll'
I0
tp340
a(S'w'
I671
tp341
a(S'p1_vo'
I10
tp342
a(S'w'
I64
tp343
a(S'tr_ll'
I0
tp344
a(S'w'
I1
tp345
a(S'tr_lh'
I0
tp346
a(S'tr_lr'
I61
tp347
a(S'w'
I1
tp348
a(S'tr_lh'
I1
tp349
a(S'tr_lr'
I127
tp350
a(S'w'
I730
tp351
a(S'tr_ll'
I0
tp352
a(S'w'
I674
tp353
a(S'p1_ll'
I0
tp354
a(S'p1_tl'
I242
tp355
a(S'w'
I1
tp356
a(S'p1_vo'
I12
tp357
a(S'w'
I66
tp358
a(S'tr_ll'
I0
tp359
a(S'tr_tl'
I48
tp360
a(S'w'
I1
tp361
a(S'tr_lh'
I0
tp362
a(S'tr_lr'
I63
tp363
a(S'w'
I1
tp364
a(S'tr_lh'
I1
tp365
a(S'tr_lr'
I127
tp366
a(S'w'
I725
tp367
a(S'tr_ll'
I0
tp368
a(S'w'
I671
tp369
a(S'p1_vo'
I11
tp370
a(S'w'
I64
tp371
a(S'tr_ll'
I0
tp372
a(S'w'
I1
tp373
a(S'tr_lh'
I0
tp374
a(S'tr_lr'
I62
tp375
a(S'w'
I1
tp376
a(S'tr_lh'
I1
tp377
a(S'tr_lr'
I127
tp378
a(S'w'
I730
tp379
a(S'tr_ll'
I0
tp380
a(S'w'
I672
tp381
a(S'p1_vo'
I10
tp382
a(S'w'
I64
tp383
a(S'tr_ll'
I0
tp384
a(S'w'
I1
tp385
a(S'tr_lh'
I0
tp386
a(S'tr_lr'
I61
tp387
a(S'tr_lh'
I1
tp388
a(S'tr_lr'
I127
tp389
a(S'w'
I731
tp390
a(S'tr_ll'
I0
tp391
a(S'w'
I673
tp392
a(S'p1_ll'
I0
tp393
a(S'p1_th'
I1
tp394
a(S'w'
I1
tp395
a(S'p1_tl'
I0
tp396
a(S'w'
I1
tp397
a(S'p1_vo'
I12
tp398
a(S'w'
I62
tp399
a(S'tr_tl'
I0
tp400
a(S'w'
I1
tp401
a(S'tr_ll'
I0
tp402
a(S'tr_th'
I0
tp403
a(S'tr_lh'
I0
tp404
a(S'tr_lr'
I48
tp405
a(S'w'
I1
tp406
a(S'ch_no'
I1
tp407
a(S'ch_tr'
I0
tp408
a(S'ch_p2'
I1
tp409
a(S'ch_p1'
I1
tp410
a(S'w'
I640
tp411
a(S'ch_no'
I1
tp412
a(S'ch_tr'
I1
tp413
a(S'ch_p2'
I1
tp414
a(S'ch_p1'
I1
tp415
a(S'w'
I86
tp416
a(S'tr_ll'
I0
tp417
a(S'w'
I674
tp418
a(S'p1_vo'
I11
tp419
a(S'w'
I60
tp420
a(S'tr_ll'
I0
tp421
a(S'w'
I733
tp422
a(S'tr_ll'
I0
tp423
a(S'w'
I675
tp424
a(S'p1_vo'
I10
tp425
a(S'w'
I60
tp426
a(S'tr_ll'
I0
tp427
a(S'w'
I733
tp428
a(S'tr_ll'
I0
tp429
a(S'w'
I676
tp430
a(S'p1_ll'
I0
tp431
a(S'p1_th'
I0
tp432
a(S'p1_tl'
I242
tp433
a(S'w'
I1
tp434
a(S'p1_vo'
I12
tp435
a(S'w'
I32
tp436
a(S'p2_vo'
I0
tp437
a(S'w'
I36
tp438
a(S'tr_ll'
I0
tp439
a(S'tr_th'
I1
tp440
a(S'tr_tl'
I67
tp441
a(S'w'
I1
tp442
a(S'tr_lr'
I63
tp443
a(S'w'
I1
tp444
a(S'tr_lh'
I1
tp445
a(S'tr_lr'
I127
tp446
a(S'w'
I719
tp447
a(S'tr_ll'
I0
tp448
a(S'w'
I676
tp449
a(S'p1_vo'
I11
tp450
a(S'w'
I60
tp451
a(S'tr_ll'
I0
tp452
a(S'w'
I1
tp453
a(S'tr_lh'
I0
tp454
a(S'tr_lr'
I62
tp455
a(S'tr_lh'
I1
tp456
a(S'tr_lr'
I127
tp457
a(S'w'
I731
tp458
a(S'tr_ll'
I0
tp459
a(S'w'
I676
tp460
a(S'p1_vo'
I10
tp461
a(S'w'
I59
tp462
a(S'tr_ll'
I0
tp463
a(S'w'
I1
tp464
a(S'tr_lh'
I0
tp465
a(S'tr_lr'
I61
tp466
a(S'w'
I1
tp467
a(S'tr_lh'
I1
tp468
a(S'tr_lr'
I127
tp469
a(S'w'
I731
tp470
a(S'tr_ll'
I0
tp471
a(S'w'
I677
tp472
a(S'p1_ll'
I0
tp473
a(S'p1_tl'
I228
tp474
a(S'w'
I1
tp475
a(S'p1_vo'
I12
tp476
a(S'w'
I34
tp477
a(S'p2_ll'
I0
tp478
a(S'p2_tl'
I91
tp479
a(S'w'
I1
tp480
a(S'p2_vo'
I12
tp481
a(S'w'
I34
tp482
a(S'tr_ll'
I0
tp483
a(S'tr_tl'
I48
tp484
a(S'w'
I1
tp485
a(S'tr_lh'
I0
tp486
a(S'tr_lr'
I63
tp487
a(S'w'
I1
tp488
a(S'tr_lh'
I1
tp489
a(S'tr_lr'
I127
tp490
a(S'w'
I721
tp491
a(S'tr_ll'
I0
tp492
a(S'w'
I673
tp493
a(S'p1_vo'
I11
tp494
a(S'w'
I32
tp495
a(S'p2_vo'
I11
tp496
a(S'w'
I32
tp497
a(S'tr_ll'
I0
tp498
a(S'w'
I1
tp499
a(S'tr_lh'
I0
tp500
a(S'tr_lr'
I62
tp501
a(S'w'
I1
tp502
a(S'tr_lh'
I1
tp503
a(S'tr_lr'
I127
tp504
a(S'w'
I729
tp505
a(S'tr_ll'
I0
tp506
a(S'w'
I672
tp507
a(S'p1_vo'
I10
tp508
a(S'w'
I32
tp509
a(S'p2_vo'
I10
tp510
a(S'w'
I32
tp511
a(S'tr_ll'
I0
tp512
a(S'w'
I1
tp513
a(S'tr_lh'
I0
tp514
a(S'tr_lr'
I61
tp515
a(S'w'
I1
tp516
a(S'tr_lh'
I1
tp517
a(S'tr_lr'
I127
tp518
a(S'w'
I729
tp519
a(S'tr_ll'
I0
tp520
a(S'w'
I675
tp521
a(S'p1_ll'
I0
tp522
a(S'p1_tl'
I215
tp523
a(S'w'
I1
tp524
a(S'p1_vo'
I12
tp525
a(S'w'
I34
tp526
a(S'p2_ll'
I0
tp527
a(S'p2_tl'
I96
tp528
a(S'w'
I1
tp529
a(S'p2_vo'
I12
tp530
a(S'w'
I31
tp531
a(S'tr_tl'
I0
tp532
a(S'tr_ll'
I0
tp533
a(S'tr_th'
I0
tp534
a(S'w'
I1
tp535
a(S'tr_lh'
I0
tp536
a(S'tr_lr'
I48
tp537
a(S'ch_no'
I1
tp538
a(S'ch_tr'
I0
tp539
a(S'ch_p2'
I1
tp540
a(S'ch_p1'
I1
tp541
a(S'w'
I638
tp542
a(S'ch_no'
I1
tp543
a(S'ch_tr'
I1
tp544
a(S'ch_p2'
I1
tp545
a(S'ch_p1'
I1
tp546
a(S'w'
I84
tp547
a(S'tr_ll'
I0
tp548
a(S'w'
I676
tp549
a(S'p1_vo'
I11
tp550
a(S'w'
I31
tp551
a(S'p2_vo'
I11
tp552
a(S'w'
I29
tp553
a(S'tr_ll'
I0
tp554
a(S'w'
I732
tp555
a(S'tr_ll'
I0
tp556
a(S'w'
I675
tp557
a(S'p1_vo'
I10
tp558
a(S'w'
I32
tp559
a(S'p2_vo'
I10
tp560
a(S'w'
I28
tp561
a(S'tr_ll'
I0
tp562
a(S'w'
I732
tp563
a(S'tr_ll'
I0
tp564
a(S'w'
I678
tp565
a(S'p1_ll'
I0
tp566
a(S'p1_tl'
I203
tp567
a(S'w'
I1
tp568
a(S'p1_vo'
I12
tp569
a(S'w'
I34
tp570
a(S'p2_ll'
I0
tp571
a(S'p2_tl'
I102
tp572
a(S'w'
I1
tp573
a(S'p2_vo'
I12
tp574
a(S'w'
I38
tp575
a(S'tr_ll'
I0
tp576
a(S'tr_tl'
I242
tp577
a(S'w'
I1
tp578
a(S'tr_lr'
I63
tp579
a(S'w'
I1
tp580
a(S'tr_lh'
I1
tp581
a(S'tr_lr'
I127
tp582
a(S'w'
I717
tp583
a(S'tr_ll'
I0
tp584
a(S'w'
I672
tp585
a(S'p1_vo'
I11
tp586
a(S'w'
I32
tp587
a(S'p2_vo'
I11
tp588
a(S'w'
I32
tp589
a(S'tr_ll'
I0
tp590
a(S'w'
I1
tp591
a(S'tr_lh'
I0
tp592
a(S'tr_lr'
I62
tp593
a(S'w'
I1
tp594
a(S'tr_lh'
I1
tp595
a(S'tr_lr'
I127
tp596
a(S'w'
I729
tp597
a(S'tr_ll'
I0
tp598
a(S'w'
I673
tp599
a(S'p1_vo'
I10
tp600
a(S'w'
I32
tp601
a(S'p2_vo'
I10
tp602
a(S'w'
I31
tp603
a(S'tr_ll'
I0
tp604
a(S'w'
I2
tp605
a(S'tr_lh'
I0
tp606
a(S'tr_lr'
I61
tp607
a(S'tr_lh'
I1
tp608
a(S'tr_lr'
I127
tp609
a(S'w'
I730
tp610
a(S'tr_ll'
I0
tp611
a(S'w'
I674
tp612
a(S'p1_ll'
I0
tp613
a(S'w'
I1
tp614
a(S'p1_tl'
I215
tp615
a(S'w'
I1
tp616
a(S'p1_vo'
I12
tp617
a(S'w'
I34
tp618
a(S'p2_ll'
I0
tp619
a(S'p2_tl'
I108
tp620
a(S'w'
I1
tp621
a(S'p2_vo'
I12
tp622
a(S'w'
I34
tp623
a(S'tr_ll'
I0
tp624
a(S'tr_tl'
I228
tp625
a(S'w'
I1
tp626
a(S'tr_lh'
I0
tp627
a(S'tr_lr'
I63
tp628
a(S'tr_lh'
I1
tp629
a(S'tr_lr'
I127
tp630
a(S'w'
I722
tp631
a(S'tr_ll'
I0
tp632
a(S'w'
I672
tp633
a(S'p1_vo'
I11
tp634
a(S'w'
I32
tp635
a(S'p2_vo'
I11
tp636
a(S'w'
I31
tp637
a(S'tr_ll'
I0
tp638
a(S'w'
I2
tp639
a(S'tr_lh'
I0
tp640
a(S'tr_lr'
I62
tp641
a(S'tr_lh'
I1
tp642
a(S'tr_lr'
I127
tp643
a(S'w'
I730
tp644
a(S'tr_ll'
I0
tp645
a(S'w'
I673
tp646
a(S'p1_vo'
I10
tp647
a(S'w'
I32
tp648
a(S'p2_vo'
I10
tp649
a(S'w'
I31
tp650
a(S'tr_ll'
I0
tp651
a(S'w'
I1
tp652
a(S'tr_lh'
I0
tp653
a(S'tr_lr'
I61
tp654
a(S'w'
I1
tp655
a(S'tr_lh'
I1
tp656
a(S'tr_lr'
I127
tp657
a(S'w'
I730
tp658
a(S'tr_ll'
I0
tp659
a(S'w'
I674
tp660
a(S'p1_ll'
I0
tp661
a(S'w'
I1
tp662
a(S'p1_tl'
I228
tp663
a(S'p1_vo'
I12
tp664
a(S'w'
I34
tp665
a(S'p2_ll'
I0
tp666
a(S'w'
I1
tp667
a(S'p2_tl'
I114
tp668
a(S'w'
I1
tp669
a(S'p2_vo'
I12
tp670
a(S'w'
I33
tp671
a(S'tr_ll'
I0
tp672
a(S'w'
I1
tp673
a(S'tr_tl'
I242
tp674
a(S'w'
I1
tp675
a(S'tr_lh'
I0
tp676
a(S'tr_lr'
I63
tp677
a(S'tr_lh'
I1
tp678
a(S'tr_lr'
I127
tp679
a(S'w'
I721
tp680
a(S'tr_ll'
I0
tp681
a(S'w'
I673
tp682
a(S'p1_vo'
I11
tp683
a(S'w'
I32
tp684
a(S'p2_vo'
I11
tp685
a(S'w'
I31
tp686
a(S'tr_ll'
I0
tp687
a(S'w'
I2
tp688
a(S'tr_lh'
I0
tp689
a(S'tr_lr'
I62
tp690
a(S'tr_lh'
I1
tp691
a(S'tr_lr'
I127
tp692
a(S'w'
I730
tp693
a(S'tr_ll'
I0
tp694
a(S'w'
I673
tp695
a(S'p1_vo'
I10
tp696
a(S'w'
I32
tp697
a(S'p2_vo'
I10
tp698
a(S'w'
I31
tp699
a(S'tr_ll'
I0
tp700
a(S'w'
I1
tp701
a(S'tr_lh'
I0
tp702
a(S'tr_lr'
I61
tp703
a(S'w'
I1
tp704
a(S'tr_lh'
I1
tp705
a(S'tr_lr'
I127
tp706
a(S'w'
I730
tp707
a(S'tr_ll'
I0
tp708
a(S'w'
I674
tp709
a(S'p1_ll'
I0
tp710
a(S'p1_tl'
I242
tp711
a(S'w'
I1
tp712
a(S'p1_vo'
I12
tp713
a(S'w'
I34
tp714
a(S'p2_ll'
I0
tp715
a(S'p2_tl'
I121
tp716
a(S'w'
I1
tp717
a(S'p2_vo'
I12
tp718
a(S'w'
I34
tp719
a(S'tr_ll'
I0
tp720
a(S'tr_tl'
I228
tp721
a(S'w'
I1
tp722
a(S'tr_lh'
I0
tp723
a(S'tr_lr'
I63
tp724
a(S'w'
I1
tp725
a(S'tr_lh'
I1
tp726
a(S'tr_lr'
I127
tp727
a(S'w'
I721
tp728
a(S'tr_ll'
I0
tp729
a(S'w'
I673
tp730
a(S'p1_vo'
I11
tp731
a(S'w'
I32
tp732
a(S'p2_vo'
I11
tp733
a(S'w'
I31
tp734
a(S'tr_ll'
I0
tp735
a(S'w'
I1
tp736
a(S'tr_lh'
I0
tp737
a(S'tr_lr'
I62
tp738
a(S'w'
I1
tp739
a(S'tr_lh'
I1
tp740
a(S'tr_lr'
I127
tp741
a(S'w'
I730
tp742
a(S'tr_ll'
I0
tp743
a(S'w'
I673
tp744
a(S'p1_vo'
I10
tp745
a(S'w'
I32
tp746
a(S'p2_vo'
I10
tp747
a(S'w'
I31
tp748
a(S'tr_ll'
I0
tp749
a(S'w'
I2
tp750
a(S'tr_lh'
I0
tp751
a(S'tr_lr'
I61
tp752
a(S'tr_lh'
I1
tp753
a(S'tr_lr'
I127
tp754
a(S'w'
I730
tp755
a(S'tr_ll'
I0
tp756
a(S'w'
I674
tp757
a(S'p1_ll'
I0
tp758
a(S'p1_tl'
I228
tp759
a(S'w'
I1
tp760
a(S'p1_vo'
I12
tp761
a(S'w'
I34
tp762
a(S'p2_ll'
I0
tp763
a(S'p2_tl'
I152
tp764
a(S'w'
I1
tp765
a(S'p2_vo'
I12
tp766
a(S'w'
I37
tp767
a(S'tr_ll'
I0
tp768
a(S'tr_th'
I1
tp769
a(S'tr_tl'
I67
tp770
a(S'w'
I1
tp771
a(S'tr_lh'
I0
tp772
a(S'tr_lr'
I63
tp773
a(S'w'
I1
tp774
a(S'tr_lh'
I1
tp775
a(S'tr_lr'
I127
tp776
a(S'w'
I718
tp777
a(S'tr_ll'
I0
tp778
a(S'w'
I672
tp779
a(S'p1_vo'
I11
tp780
a(S'w'
I32
tp781
a(S'p2_vo'
I11
tp782
a(S'w'
I32
tp783
a(S'tr_ll'
I0
tp784
a(S'w'
I1
tp785
a(S'tr_lh'
I0
tp786
a(S'tr_lr'
I62
tp787
a(S'w'
I1
tp788
a(S'tr_lh'
I1
tp789
a(S'tr_lr'
I127
tp790
a(S'w'
I730
tp791
a(S'tr_ll'
I0
tp792
a(S'w'
I672
tp793
a(S'p1_vo'
I10
tp794
a(S'w'
I32
tp795
a(S'p2_vo'
I10
tp796
a(S'w'
I32
tp797
a(S'tr_ll'
I0
tp798
a(S'w'
I1
tp799
a(S'tr_lh'
I0
tp800
a(S'tr_lr'
I61
tp801
a(S'tr_lh'
I1
tp802
a(S'tr_lr'
I127
tp803
a(S'w'
I730
tp804
a(S'tr_ll'
I0
tp805
a(S'w'
I675
tp806
a(S'p1_ll'
I0
tp807
a(S'p1_tl'
I215
tp808
a(S'w'
I1
tp809
a(S'p1_vo'
I12
tp810
a(S'w'
I34
tp811
a(S'p2_ll'
I0
tp812
a(S'p2_tl'
I121
tp813
a(S'w'
I1
tp814
a(S'p2_vo'
I12
tp815
a(S'w'
I34
tp816
a(S'tr_ll'
I0
tp817
a(S'tr_tl'
I48
tp818
a(S'w'
I1
tp819
a(S'tr_lh'
I0
tp820
a(S'tr_lr'
I63
tp821
a(S'w'
I1
tp822
a(S'tr_lh'
I1
tp823
a(S'tr_lr'
I127
tp824
a(S'w'
I721
tp825
a(S'tr_ll'
I0
tp826
a(S'w'
I672
tp827
a(S'p1_vo'
I11
tp828
a(S'w'
I32
tp829
a(S'p2_vo'
I11
tp830
a(S'w'
I32
tp831
a(S'tr_ll'
I0
tp832
a(S'w'
I1
tp833
a(S'tr_lh'
I0
tp834
a(S'tr_lr'
I62
tp835
a(S'w'
I1
tp836
a(S'tr_lh'
I1
tp837
a(S'tr_lr'
I127
tp838
a(S'w'
I729
tp839
a(S'tr_ll'
I0
tp840
a(S'w'
I673
tp841
a(S'p1_vo'
I10
tp842
a(S'w'
I32
tp843
a(S'p2_vo'
I10
tp844
a(S'w'
I31
tp845
a(S'tr_ll'
I0
tp846
a(S'w'
I2
tp847
a(S'tr_lh'
I0
tp848
a(S'tr_lr'
I61
tp849
a(S'tr_lh'
I1
tp850
a(S'tr_lr'
I127
tp851
a(S'w'
I730
tp852
a(S'tr_ll'
I0
tp853
a(S'w'
I674
tp854
a(S'p1_ll'
I0
tp855
a(S'w'
I1
tp856
a(S'p1_tl'
I203
tp857
a(S'w'
I1
tp858
a(S'p1_vo'
I12
tp859
a(S'w'
I34
tp860
a(S'p2_ll'
I0
tp861
a(S'p2_tl'
I108
tp862
a(S'w'
I1
tp863
a(S'p2_vo'
I12
tp864
a(S'w'
I31
tp865
a(S'tr_tl'
I0
tp866
a(S'tr_ll'
I0
tp867
a(S'tr_th'
I0
tp868
a(S'tr_lh'
I0
tp869
a(S'tr_lr'
I48
tp870
a(S'w'
I1
tp871
a(S'ch_no'
I1
tp872
a(S'ch_tr'
I0
tp873
a(S'ch_p2'
I1
tp874
a(S'ch_p1'
I1
tp875
a(S'w'
I637
tp876
a(S'ch_no'
I1
tp877
a(S'ch_tr'
I1
tp878
a(S'ch_p2'
I1
tp879
a(S'ch_p1'
I1
tp880
a(S'w'
I85
tp881
a(S'tr_ll'
I0
tp882
a(S'w'
I675
tp883
a(S'p1_vo'
I11
tp884
a(S'w'
I32
tp885
a(S'p2_vo'
I11
tp886
a(S'w'
I28
tp887
a(S'tr_ll'
I0
tp888
a(S'w'
I732
tp889
a(S'tr_ll'
I0
tp890
a(S'w'
I676
tp891
a(S'p1_vo'
I10
tp892
a(S'w'
I32
tp893
a(S'p2_vo'
I10
tp894
a(S'w'
I28
tp895
a(S'tr_ll'
I0
tp896
a(S'w'
I732
tp897
a(S'tr_ll'
I0
tp898
a(S'w'
I677
tp899
a(S'p1_ll'
I0
tp900
a(S'w'
I1
tp901
a(S'p1_tl'
I192
tp902
a(S'w'
I1
tp903
a(S'p1_vo'
I12
tp904
a(S'w'
I34
tp905
a(S'p2_ll'
I0
tp906
a(S'p2_tl'
I85
tp907
a(S'w'
I1
tp908
a(S'p2_vo'
I12
tp909
a(S'w'
I36
tp910
a(S'tr_ll'
I0
tp911
a(S'tr_th'
I1
tp912
a(S'w'
I1
tp913
a(S'tr_tl'
I67
tp914
a(S'w'
I1
tp915
a(S'tr_lr'
I63
tp916
a(S'tr_lh'
I1
tp917
a(S'tr_lr'
I127
tp918
a(S'w'
I718
tp919
a(S'tr_ll'
I0
tp920
a(S'w'
I673
tp921
a(S'p1_vo'
I11
tp922
a(S'w'
I32
tp923
a(S'p2_vo'
I11
tp924
a(S'w'
I31
tp925
a(S'tr_ll'
I0
tp926
a(S'w'
I2
tp927
a(S'tr_lh'
I0
tp928
a(S'tr_lr'
I62
tp929
a(S'tr_lh'
I1
tp930
a(S'tr_lr'
I127
tp931
a(S'w'
I730
tp932
a(S'tr_ll'
I0
tp933
a(S'w'
I673
tp934
a(S'p1_vo'
I10
tp935
a(S'w'
I32
tp936
a(S'p2_vo'
I10
tp937
a(S'w'
I31
tp938
a(S'tr_ll'
I0
tp939
a(S'w'
I1
tp940
a(S'tr_lh'
I0
tp941
a(S'tr_lr'
I61
tp942
a(S'w'
I1
tp943
a(S'tr_lh'
I1
tp944
a(S'tr_lr'
I127
tp945
a(S'w'
I730
tp946
a(S'tr_ll'
I0
tp947
a(S'w'
I674
tp948
a(S'p1_ll'
I0
tp949
a(S'p1_tl'
I181
tp950
a(S'w'
I1
tp951
a(S'p1_vo'
I12
tp952
a(S'w'
I32
tp953
a(S'p2_vo'
I9
tp954
a(S'w'
I34
tp955
a(S'tr_ll'
I0
tp956
a(S'tr_tl'
I48
tp957
a(S'w'
I1
tp958
a(S'tr_lh'
I0
tp959
a(S'tr_lr'
I63
tp960
a(S'w'
I1
tp961
a(S'tr_lh'
I1
tp962
a(S'tr_lr'
I127
tp963
a(S'w'
I724
tp964
a(S'tr_ll'
I0
tp965
a(S'w'
I673
tp966
a(S'p1_vo'
I11
tp967
a(S'w'
I32
tp968
a(S'p2_vo'
I7
tp969
a(S'w'
I31
tp970
a(S'tr_ll'
I0
tp971
a(S'w'
I1
tp972
a(S'tr_lh'
I0
tp973
a(S'tr_lr'
I62
tp974
a(S'w'
I1
tp975
a(S'tr_lh'
I1
tp976
a(S'tr_lr'
I127
tp977
a(S'w'
I730
tp978
a(S'tr_ll'
I0
tp979
a(S'w'
I672
tp980
a(S'p1_vo'
I10
tp981
a(S'w'
I32
tp982
a(S'p2_vo'
I5
tp983
a(S'w'
I32
tp984
a(S'tr_ll'
I0
tp985
a(S'w'
I1
tp986
a(S'tr_lh'
I0
tp987
a(S'tr_lr'
I61
tp988
a(S'w'
I1
tp989
a(S'tr_lh'
I1
tp990
a(S'tr_lr'
I127
tp991
a(S'w'
I729
tp992
a(S'tr_ll'
I0
tp993
a(S'w'
I675
tp994
a(S'p1_ll'
I0
tp995
a(S'p1_tl'
I192
tp996
a(S'w'
I1
tp997
a(S'p1_vo'
I12
tp998
a(S'w'
I34
tp999
a(S'p2_ll'
I0
tp1000
a(S'w'
I1
tp1001
a(S'p2_tl'
I76
tp1002
a(S'w'
I1
tp1003
a(S'p2_vo'
I12
tp1004
a(S'w'
I30
tp1005
a(S'tr_tl'
I0
tp1006
a(S'tr_ll'
I0
tp1007
a(S'tr_th'
I0
tp1008
a(S'w'
I1
tp1009
a(S'tr_lh'
I0
tp1010
a(S'tr_lr'
I48
tp1011
a(S'w'
I1
tp1012
a(S'ch_no'
I1
tp1013
a(S'ch_tr'
I0
tp1014
a(S'ch_p2'
I1
tp1015
a(S'ch_p1'
I1
tp1016
a(S'w'
I637
tp1017
a(S'ch_no'
I1
tp1018
a(S'ch_tr'
I1
tp1019
a(S'ch_p2'
I1
tp1020
a(S'ch_p1'
I1
tp1021
a(S'w'
I84
tp1022
a(S'tr_ll'
I0
tp1023
a(S'w'
I676
tp1024
a(S'p1_vo'
I11
tp1025
a(S'w'
I31
tp1026
a(S'p2_vo'
I11
tp1027
a(S'w'
I29
tp1028
a(S'tr_ll'
I0
tp1029
a(S'w'
I732
tp1030
a(S'tr_ll'
I0
tp1031
a(S'w'
I675
tp1032
a(S'p1_vo'
I10
tp1033
a(S'w'
I32
tp1034
a(S'p2_vo'
I10
tp1035
a(S'w'
I28
tp1036
a(S'tr_ll'
I0
tp1037
a(S'w'
I732
tp1038
a(S'tr_ll'
I0
tp1039
a(S'w'
I678
tp1040
a(S'p1_ll'
I0
tp1041
a(S'p1_tl'
I203
tp1042
a(S'w'
I1
tp1043
a(S'p1_vo'
I12
tp1044
a(S'w'
I32
tp1045
a(S'p2_vo'
I9
tp1046
a(S'w'
I36
tp1047
a(S'tr_ll'
I0
tp1048
a(S'tr_th'
I1
tp1049
a(S'w'
I1
tp1050
a(S'tr_tl'
I67
tp1051
a(S'w'
I1
tp1052
a(S'tr_lr'
I63
tp1053
a(S'tr_lh'
I1
tp1054
a(S'tr_lr'
I127
tp1055
a(S'w'
I722
tp1056
a(S'tr_ll'
I0
tp1057
a(S'w'
I672
tp1058
a(S'p1_vo'
I11
tp1059
a(S'w'
I32
tp1060
a(S'p2_vo'
I7
tp1061
a(S'w'
I32
tp1062
a(S'tr_ll'
I0
tp1063
a(S'w'
I1
tp1064
a(S'tr_lh'
I0
tp1065
a(S'tr_lr'
I62
tp1066
a(S'w'
I1
tp1067
a(S'tr_lh'
I1
tp1068
a(S'tr_lr'
I127
tp1069
a(S'w'
I729
tp1070
a(S'tr_ll'
I0
tp1071
a(S'w'
I673
tp1072
a(S'p1_vo'
I10
tp1073
a(S'w'
I32
tp1074
a(S'p2_vo'
I5
tp1075
a(S'w'
I31
tp1076
a(S'tr_ll'
I0
tp1077
a(S'w'
I2
tp1078
a(S'tr_lh'
I0
tp1079
a(S'tr_lr'
I61
tp1080
a(S'tr_lh'
I1
tp1081
a(S'tr_lr'
I127
tp1082
a(S'w'
I730
tp1083
a(S'tr_ll'
I0
tp1084
a(S'w'
I675
tp1085
a(S'p1_ll'
I0
tp1086
a(S'p1_tl'
I215
tp1087
a(S'w'
I1
tp1088
a(S'p1_vo'
I12
tp1089
a(S'w'
I34
tp1090
a(S'p2_ll'
I0
tp1091
a(S'p2_tl'
I81
tp1092
a(S'w'
I1
tp1093
a(S'p2_vo'
I12
tp1094
a(S'w'
I34
tp1095
a(S'tr_ll'
I0
tp1096
a(S'tr_tl'
I48
tp1097
a(S'w'
I1
tp1098
a(S'tr_lh'
I0
tp1099
a(S'tr_lr'
I63
tp1100
a(S'w'
I1
tp1101
a(S'tr_lh'
I1
tp1102
a(S'tr_lr'
I127
tp1103
a(S'w'
I721
tp1104
a(S'tr_ll'
I0
tp1105
a(S'w'
I672
tp1106
a(S'p1_vo'
I11
tp1107
a(S'w'
I32
tp1108
a(S'p2_vo'
I11
tp1109
a(S'w'
I32
tp1110
a(S'tr_ll'
I0
tp1111
a(S'w'
I1
tp1112
a(S'tr_lh'
I0
tp1113
a(S'tr_lr'
I62
tp1114
a(S'tr_lh'
I1
tp1115
a(S'tr_lr'
I127
tp1116
a(S'w'
I730
tp1117
a(S'tr_ll'
I0
tp1118
a(S'w'
I673
tp1119
a(S'p1_vo'
I10
tp1120
a(S'w'
I32
tp1121
a(S'p2_vo'
I10
tp1122
a(S'w'
I31
tp1123
a(S'tr_ll'
I0
tp1124
a(S'w'
I2
tp1125
a(S'tr_lh'
I0
tp1126
a(S'tr_lr'
I61
tp1127
a(S'tr_lh'
I1
tp1128
a(S'tr_lr'
I127
tp1129
a(S'w'
I730
tp1130
a(S'tr_ll'
I0
tp1131
a(S'w'
I674
tp1132
a(S'p1_ll'
I0
tp1133
a(S'w'
I1
tp1134
a(S'p1_tl'
I203
tp1135
a(S'w'
I1
tp1136
a(S'p1_vo'
I12
tp1137
a(S'w'
I31
tp1138
a(S'p2_vo'
I9
tp1139
a(S'w'
I31
tp1140
a(S'tr_tl'
I0
tp1141
a(S'tr_ll'
I0
tp1142
a(S'tr_th'
I0
tp1143
a(S'w'
I1
tp1144
a(S'tr_lh'
I0
tp1145
a(S'tr_lr'
I48
tp1146
a(S'w'
I1
tp1147
a(S'ch_no'
I1
tp1148
a(S'ch_tr'
I0
tp1149
a(S'ch_p2'
I1
tp1150
a(S'ch_p1'
I1
tp1151
a(S'w'
I640
tp1152
a(S'ch_no'
I1
tp1153
a(S'ch_tr'
I1
tp1154
a(S'ch_p2'
I1
tp1155
a(S'ch_p1'
I1
tp1156
a(S'w'
I85
tp1157
a(S'tr_ll'
I0
tp1158
a(S'w'
I675
tp1159
a(S'p1_vo'
I11
tp1160
a(S'w'
I32
tp1161
a(S'p2_vo'
I7
tp1162
a(S'w'
I28
tp1163
a(S'tr_ll'
I0
tp1164
a(S'w'
I732
tp1165
a(S'tr_ll'
I0
tp1166
a(S'w'
I676
tp1167
a(S'p1_vo'
I10
tp1168
a(S'w'
I32
tp1169
a(S'p2_vo'
I5
tp1170
a(S'w'
I28
tp1171
a(S'tr_ll'
I0
tp1172
a(S'w'
I732
tp1173
a(S'tr_ll'
I0
tp1174
a(S'w'
I677
tp1175
a(S'p1_ll'
I0
tp1176
a(S'p1_tl'
I192
tp1177
a(S'w'
I1
tp1178
a(S'p1_vo'
I12
tp1179
a(S'w'
I34
tp1180
a(S'p2_ll'
I0
tp1181
a(S'w'
I1
tp1182
a(S'p2_tl'
I85
tp1183
a(S'p2_vo'
I12
tp1184
a(S'w'
I37
tp1185
a(S'tr_ll'
I0
tp1186
a(S'tr_th'
I1
tp1187
a(S'tr_tl'
I67
tp1188
a(S'w'
I1
tp1189
a(S'tr_lr'
I63
tp1190
a(S'w'
I1
tp1191
a(S'tr_lh'
I1
tp1192
a(S'tr_lr'
I127
tp1193
a(S'w'
I718
tp1194
a(S'tr_ll'
I0
tp1195
a(S'w'
I673
tp1196
a(S'p1_vo'
I11
tp1197
a(S'w'
I32
tp1198
a(S'p2_vo'
I11
tp1199
a(S'w'
I31
tp1200
a(S'tr_ll'
I0
tp1201
a(S'w'
I1
tp1202
a(S'tr_lh'
I0
tp1203
a(S'tr_lr'
I62
tp1204
a(S'w'
I1
tp1205
a(S'tr_lh'
I1
tp1206
a(S'tr_lr'
I127
tp1207
a(S'w'
I730
tp1208
a(S'tr_ll'
I0
tp1209
a(S'w'
I672
tp1210
a(S'p1_vo'
I10
tp1211
a(S'w'
I32
tp1212
a(S'p2_vo'
I10
tp1213
a(S'w'
I32
tp1214
a(S'tr_ll'
I0
tp1215
a(S'w'
I1
tp1216
a(S'tr_lh'
I0
tp1217
a(S'tr_lr'
I61
tp1218
a(S'w'
I1
tp1219
a(S'tr_lh'
I1
tp1220
a(S'tr_lr'
I127
tp1221
a(S'w'
I730
tp1222
a(S'tr_ll'
I0
tp1223
a(S'w'
I674
tp1224
a(S'p1_ll'
I0
tp1225
a(S'p1_tl'
I181
tp1226
a(S'w'
I1
tp1227
a(S'p1_vo'
I12
tp1228
a(S'w'
I32
tp1229
a(S'p2_vo'
I9
tp1230
a(S'w'
I34
tp1231
a(S'tr_ll'
I0
tp1232
a(S'tr_tl'
I48
tp1233
a(S'w'
I1
tp1234
a(S'tr_lh'
I0
tp1235
a(S'tr_lr'
I63
tp1236
a(S'w'
I1
tp1237
a(S'tr_lh'
I1
tp1238
a(S'tr_lr'
I127
tp1239
a(S'w'
I724
tp1240
a(S'tr_ll'
I0
tp1241
a(S'w'
I673
tp1242
a(S'p1_vo'
I11
tp1243
a(S'w'
I32
tp1244
a(S'p2_vo'
I7
tp1245
a(S'w'
I32
tp1246
a(S'tr_ll'
I0
tp1247
a(S'w'
I1
tp1248
a(S'tr_lh'
I0
tp1249
a(S'tr_lr'
I62
tp1250
a(S'w'
I1
tp1251
a(S'tr_lh'
I1
tp1252
a(S'tr_lr'
I127
tp1253
a(S'w'
I729
tp1254
a(S'tr_ll'
I0
tp1255
a(S'w'
I672
tp1256
a(S'p1_vo'
I10
tp1257
a(S'w'
I32
tp1258
a(S'p2_vo'
I5
tp1259
a(S'w'
I32
tp1260
a(S'tr_ll'
I0
tp1261
a(S'w'
I1
tp1262
a(S'tr_lh'
I0
tp1263
a(S'tr_lr'
I61
tp1264
a(S'tr_lh'
I1
tp1265
a(S'tr_lr'
I127
tp1266
a(S'w'
I730
tp1267
a(S'tr_ll'
I0
tp1268
a(S'w'
I675
tp1269
a(S'p1_ll'
I0
tp1270
a(S'p1_tl'
I171
tp1271
a(S'w'
I1
tp1272
a(S'p1_vo'
I12
tp1273
a(S'w'
I34
tp1274
a(S'p2_ll'
I0
tp1275
a(S'p2_tl'
I91
tp1276
a(S'w'
I1
tp1277
a(S'p2_vo'
I12
tp1278
a(S'w'
I31
tp1279
a(S'tr_tl'
I0
tp1280
a(S'tr_ll'
I0
tp1281
a(S'tr_th'
I0
tp1282
a(S'w'
I1
tp1283
a(S'tr_lh'
I0
tp1284
a(S'tr_lr'
I48
tp1285
a(S'w'
I1
tp1286
a(S'ch_no'
I1
tp1287
a(S'ch_tr'
I0
tp1288
a(S'ch_p2'
I1
tp1289
a(S'ch_p1'
I1
tp1290
a(S'w'
I637
tp1291
a(S'ch_no'
I1
tp1292
a(S'ch_tr'
I1
tp1293
a(S'ch_p2'
I1
tp1294
a(S'ch_p1'
I1
tp1295
a(S'w'
I84
tp1296
a(S'tr_ll'
I0
tp1297
a(S'w'
I675
tp1298
a(S'p1_vo'
I11
tp1299
a(S'w'
I32
tp1300
a(S'p2_vo'
I11
tp1301
a(S'w'
I28
tp1302
a(S'tr_ll'
I0
tp1303
a(S'w'
I733
tp1304
a(S'tr_ll'
I0
tp1305
a(S'w'
I675
tp1306
a(S'p1_vo'
I10
tp1307
a(S'w'
I32
tp1308
a(S'p2_vo'
I10
tp1309
a(S'w'
I28
tp1310
a(S'tr_ll'
I0
tp1311
a(S'w'
I732
tp1312
a(S'tr_ll'
I0
tp1313
a(S'w'
I678
tp1314
a(S'p1_ll'
I0
tp1315
a(S'p1_tl'
I161
tp1316
a(S'w'
I1
tp1317
a(S'p1_vo'
I12
tp1318
a(S'w'
I34
tp1319
a(S'p2_ll'
I0
tp1320
a(S'p2_tl'
I96
tp1321
a(S'w'
I1
tp1322
a(S'p2_vo'
I12
tp1323
a(S'w'
I38
tp1324
a(S'tr_ll'
I0
tp1325
a(S'tr_tl'
I215
tp1326
a(S'w'
I1
tp1327
a(S'tr_lr'
I63
tp1328
a(S'w'
I1
tp1329
a(S'tr_lh'
I1
tp1330
a(S'tr_lr'
I127
tp1331
a(S'w'
I717
tp1332
a(S'tr_ll'
I0
tp1333
a(S'w'
I672
tp1334
a(S'p1_vo'
I11
tp1335
a(S'w'
I32
tp1336
a(S'p2_vo'
I11
tp1337
a(S'w'
I32
tp1338
a(S'tr_ll'
I0
tp1339
a(S'w'
I1
tp1340
a(S'tr_lh'
I0
tp1341
a(S'tr_lr'
I62
tp1342
a(S'w'
I1
tp1343
a(S'tr_lh'
I1
tp1344
a(S'tr_lr'
I127
tp1345
a(S'w'
I729
tp1346
a(S'tr_ll'
I0
tp1347
a(S'w'
I673
tp1348
a(S'p1_vo'
I10
tp1349
a(S'w'
I32
tp1350
a(S'p2_vo'
I10
tp1351
a(S'w'
I31
tp1352
a(S'tr_ll'
I0
tp1353
a(S'w'
I1
tp1354
a(S'tr_lh'
I0
tp1355
a(S'tr_lr'
I61
tp1356
a(S'w'
I1
tp1357
a(S'tr_lh'
I1
tp1358
a(S'tr_lr'
I127
tp1359
a(S'w'
I730
tp1360
a(S'tr_ll'
I0
tp1361
a(S'w'
I674
tp1362
a(S'p1_ll'
I0
tp1363
a(S'w'
I1
tp1364
a(S'p1_tl'
I171
tp1365
a(S'w'
I1
tp1366
a(S'p1_vo'
I12
tp1367
a(S'w'
I34
tp1368
a(S'p2_ll'
I0
tp1369
a(S'p2_tl'
I102
tp1370
a(S'w'
I1
tp1371
a(S'p2_vo'
I12
tp1372
a(S'w'
I34
tp1373
a(S'tr_ll'
I0
tp1374
a(S'tr_tl'
I203
tp1375
a(S'w'
I1
tp1376
a(S'tr_lh'
I0
tp1377
a(S'tr_lr'
I63
tp1378
a(S'tr_lh'
I1
tp1379
a(S'tr_lr'
I127
tp1380
a(S'w'
I721
tp1381
a(S'tr_ll'
I0
tp1382
a(S'w'
I673
tp1383
a(S'p1_vo'
I11
tp1384
a(S'w'
I32
tp1385
a(S'p2_vo'
I11
tp1386
a(S'w'
I31
tp1387
a(S'tr_ll'
I0
tp1388
a(S'w'
I2
tp1389
a(S'tr_lh'
I0
tp1390
a(S'tr_lr'
I62
tp1391
a(S'tr_lh'
I1
tp1392
a(S'tr_lr'
I127
tp1393
a(S'w'
I730
tp1394
a(S'tr_ll'
I0
tp1395
a(S'w'
I673
tp1396
a(S'p1_vo'
I10
tp1397
a(S'w'
I32
tp1398
a(S'p2_vo'
I10
tp1399
a(S'w'
I31
tp1400
a(S'tr_ll'
I0
tp1401
a(S'w'
I1
tp1402
a(S'tr_lh'
I0
tp1403
a(S'tr_lr'
I61
tp1404
a(S'w'
I1
tp1405
a(S'tr_lh'
I1
tp1406
a(S'tr_lr'
I127
tp1407
a(S'w'
I730
tp1408
a(S'tr_ll'
I0
tp1409
a(S'w'
I674
tp1410
a(S'p1_ll'
I0
tp1411
a(S'w'
I1
tp1412
a(S'p1_tl'
I181
tp1413
a(S'p1_vo'
I12
tp1414
a(S'w'
I34
tp1415
a(S'p2_ll'
I0
tp1416
a(S'w'
I1
tp1417
a(S'p2_tl'
I108
tp1418
a(S'w'
I1
tp1419
a(S'p2_vo'
I12
tp1420
a(S'w'
I34
tp1421
a(S'tr_ll'
I0
tp1422
a(S'tr_tl'
I242
tp1423
a(S'w'
I1
tp1424
a(S'tr_lh'
I0
tp1425
a(S'tr_lr'
I63
tp1426
a(S'tr_lh'
I1
tp1427
a(S'tr_lr'
I127
tp1428
a(S'w'
I721
tp1429
a(S'tr_ll'
I0
tp1430
a(S'w'
I673
tp1431
a(S'p1_vo'
I11
tp1432
a(S'w'
I32
tp1433
a(S'p2_vo'
I11
tp1434
a(S'w'
I31
tp1435
a(S'tr_ll'
I0
tp1436
a(S'w'
I1
tp1437
a(S'tr_lh'
I0
tp1438
a(S'tr_lr'
I62
tp1439
a(S'w'
I1
tp1440
a(S'tr_lh'
I1
tp1441
a(S'tr_lr'
I127
tp1442
a(S'w'
I730
tp1443
a(S'tr_ll'
I0
tp1444
a(S'w'
I672
tp1445
a(S'p1_vo'
I10
tp1446
a(S'w'
I32
tp1447
a(S'p2_vo'
I10
tp1448
a(S'w'
I32
tp1449
a(S'tr_ll'
I0
tp1450
a(S'w'
I1
tp1451
a(S'tr_lh'
I0
tp1452
a(S'tr_lr'
I61
tp1453
a(S'w'
I1
tp1454
a(S'tr_lh'
I1
tp1455
a(S'tr_lr'
I127
tp1456
a(S'w'
I729
tp1457
a(S'tr_ll'
I0
tp1458
a(S'w'
I675
tp1459
a(S'p1_ll'
I0
tp1460
a(S'p1_tl'
I192
tp1461
a(S'w'
I1
tp1462
a(S'p1_vo'
I12
tp1463
a(S'w'
I32
tp1464
a(S'p2_vo'
I9
tp1465
a(S'w'
I34
tp1466
a(S'tr_ll'
I0
tp1467
a(S'tr_tl'
I215
tp1468
a(S'w'
I1
tp1469
a(S'tr_lh'
I0
tp1470
a(S'tr_lr'
I63
tp1471
a(S'w'
I1
tp1472
a(S'tr_lh'
I1
tp1473
a(S'tr_lr'
I127
tp1474
a(S'w'
I724
tp1475
a(S'tr_ll'
I0
tp1476
a(S'w'
I673
tp1477
a(S'p1_vo'
I11
tp1478
a(S'w'
I32
tp1479
a(S'p2_vo'
I7
tp1480
a(S'w'
I31
tp1481
a(S'tr_ll'
I0
tp1482
a(S'w'
I1
tp1483
a(S'tr_lh'
I0
tp1484
a(S'tr_lr'
I62
tp1485
a(S'w'
I1
tp1486
a(S'tr_lh'
I1
tp1487
a(S'tr_lr'
I127
tp1488
a(S'w'
I730
tp1489
a(S'tr_ll'
I0
tp1490
a(S'w'
I673
tp1491
a(S'p1_vo'
I10
tp1492
a(S'w'
I32
tp1493
a(S'p2_vo'
I5
tp1494
a(S'w'
I31
tp1495
a(S'tr_ll'
I0
tp1496
a(S'w'
I2
tp1497
a(S'tr_lh'
I0
tp1498
a(S'tr_lr'
I61
tp1499
a(S'tr_lh'
I1
tp1500
a(S'tr_lr'
I127
tp1501
a(S'w'
I729
tp1502
a(S'tr_ll'
I0
tp1503
a(S'w'
I678
tp1504
a(S'p1_ll'
I0
tp1505
a(S'p1_th'
I1
tp1506
a(S'p1_tl'
I0
tp1507
a(S'w'
I1
tp1508
a(S'p1_vo'
I12
tp1509
a(S'w'
I37
tp1510
a(S'p2_ll'
I0
tp1511
a(S'w'
I1
tp1512
a(S'p2_tl'
I152
tp1513
a(S'w'
I1
tp1514
a(S'p2_vo'
I12
tp1515
a(S'w'
I38
tp1516
a(S'tr_ll'
I0
tp1517
a(S'tr_th'
I1
tp1518
a(S'w'
I1
tp1519
a(S'tr_tl'
I67
tp1520
a(S'tr_lh'
I0
tp1521
a(S'tr_lr'
I63
tp1522
a(S'w'
I1
tp1523
a(S'tr_lh'
I1
tp1524
a(S'tr_lr'
I127
tp1525
a(S'w'
I710
tp1526
a.