(lp1
(S'clock'
p2
I1789772
tp3
a(S'p1_du'
I2
tp4
a(S'p1_cv'
I1
tp5
a(S'p2_du'
I2
tp6
a(S'p2_cv'
I1
tp7
a(S'no_cv'
I1
tp8
a(S'ch_no'
I1
tp9
a(S'ch_tr'
I1
tp10
a(S'ch_p2'
I1
tp11
a(S'ch_p1'
I1
tp12
a(S'fc_mo'
I1
tp13
a(S'p1_du'
I1
tp14
a(S'p1_lh'
I1
tp15
a(S'p1_vo'
I12
tp16
a(S'p1_tl'
I63
tp17
a(S'p1_sp'
I7
tp18
a(S'p1_sn'
I1
tp19
a(S'p1_ss'
I7
tp20
a(S'w'
I1
tp21
a(S'p1_ll'
I0
tp22
a(S'p1_th'
I1
tp23
a(S'w'
I19
tp24
a(S'p2_du'
I1
tp25
a(S'p2_lh'
I1
tp26
a(S'p2_vo'
I12
tp27
a(S'p2_tl'
I171
tp28
a(S'p2_sp'
I7
tp29
a(S'p2_sn'
I1
tp30
a(S'p2_ss'
I7
tp31
a(S'p2_ll'
I0
tp32
a(S'p2_th'
I1
tp33
a(S'w'
I17
tp34
a(S'tr_lh'
I1
tp35
a(S'tr_lr'
I124
tp36
a(S'tr_tl'
I45
tp37
a(S'tr_ll'
I0
tp38
a(S'tr_th'
I1
tp39
a(S'w'
I5
tp40
a(S'no_lh'
I1
tp41
a(S'w'
I683
tp42
a(S'w'
I9
tp43
a(S'w'
I713
tp44
a(S'w'
I9
tp45
a(S'w'
I737
tp46
a(S'w'
I9
tp47
a(S'w'
I730
tp48
a(S'p1_vo'
I10
tp49
a(S'w'
I9
tp50
a(S'p2_vo'
I10
tp51
a(S'w'
I8
tp52
a(S'tr_lr'
I122
tp53
a(S'w'
I711
tp54
a(S'p1_vo'
I9
tp55
a(S'w'
I1
tp56
a(S'w'
I8
tp57
a(S'p2_vo'
I9
tp58
a(S'w'
I1
tp59
a(S'w'
I6
tp60
a(S'tr_lr'
I121
tp61
a(S'w'
I731
tp62
a(S'p1_vo'
I8
tp63
a(S'w'
I9
tp64
a(S'p2_vo'
I8
tp65
a(S'w'
I1
tp66
a(S'w'
I7
tp67
a(S'tr_lr'
I120
tp68
a(S'w'
I709
tp69
a(S'p1_vo'
I12
tp70
a(S'p1_tl'
I82
tp71
a(S'w'
I1
tp72
a(S'p1_ll'
I0
tp73
a(S'w'
I13
tp74
a(S'p2_vo'
I12
tp75
a(S'p2_tl'
I196
tp76
a(S'p2_ll'
I0
tp77
a(S'w'
I11
tp78
a(S'tr_lr'
I124
tp79
a(S'tr_tl'
I63
tp80
a(S'w'
I1
tp81
a(S'tr_ll'
I0
tp82
a(S'w'
I703
tp83
a(S'w'
I9
tp84
a(S'w'
I725
tp85
a(S'w'
I10
tp86
a(S'w'
I711
tp87
a(S'w'
I9
tp88
a(S'w'
I738
tp89
a(S'p1_vo'
I10
tp90
a(S'w'
I9
tp91
a(S'p2_vo'
I10
tp92
a(S'w'
I8
tp93
a(S'tr_lr'
I122
tp94
a(S'w'
I718
tp95
a(S'p1_vo'
I9
tp96
a(S'w'
I9
tp97
a(S'p2_vo'
I9
tp98
a(S'w'
I1
tp99
a(S'w'
I6
tp100
a(S'tr_lr'
I121
tp101
a(S'w'
I716
tp102
a(S'p1_vo'
I8
tp103
a(S'w'
I10
tp104
a(S'p2_vo'
I8
tp105
a(S'w'
I7
tp106
a(S'tr_lr'
I120
tp107
a(S'w'
I733
tp108
a(S'p1_vo'
I12
tp109
a(S'p1_tl'
I103
tp110
a(S'w'
I1
tp111
a(S'p1_ll'
I0
tp112
a(S'w'
I12
tp113
a(S'p2_vo'
I12
tp114
a(S'w'
I1
tp115
a(S'p2_tl'
I223
tp116
a(S'p2_ll'
I0
tp117
a(S'w'
I11
tp118
a(S'tr_lr'
I124
tp119
a(S'tr_tl'
I82
tp120
a(S'tr_ll'
I0
tp121
a(S'w'
I694
tp122
a(S'w'
I9
tp123
a(S'w'
I724
tp124
a(S'w'
I9
tp125
a(S'w'
I724
tp126
a(S'w'
I9
tp127
a(S'w'
I712
tp128
a(S'p1_vo'
I10
tp129
a(S'w'
I1
tp130
a(S'w'
I9
tp131
a(S'p2_vo'
I10
tp132
a(S'w'
I7
tp133
a(S'tr_lr'
I122
tp134
a(S'w'
I730
tp135
a(S'p1_vo'
I9
tp136
a(S'w'
I9
tp137
a(S'p2_vo'
I9
tp138
a(S'w'
I7
tp139
a(S'tr_lr'
I121
tp140
a(S'w'
I722
tp141
a(S'p1_vo'
I8
tp142
a(S'w'
I1
tp143
a(S'w'
I9
tp144
a(S'p2_vo'
I8
tp145
a(S'w'
I7
tp146
a(S'tr_lr'
I120
tp147
a(S'w'
I716
tp148
a(S'p1_vo'
I12
tp149
a(S'w'
I1
tp150
a(S'p1_tl'
I124
tp151
a(S'p1_ll'
I0
tp152
a(S'w'
I13
tp153
a(S'p2_vo'
I12
tp154
a(S'p2_tl'
I252
tp155
a(S'p2_ll'
I0
tp156
a(S'w'
I11
tp157
a(S'tr_lr'
I124
tp158
a(S'tr_tl'
I103
tp159
a(S'w'
I1
tp160
a(S'tr_ll'
I0
tp161
a(S'w'
I716
tp162
a(S'w'
I10
tp163
a(S'w'
I714
tp164
a(S'w'
I9
tp165
a(S'w'
I723
tp166
a(S'w'
I9
tp167
a(S'w'
I725
tp168
a(S'p1_vo'
I10
tp169
a(S'w'
I9
tp170
a(S'p2_vo'
I10
tp171
a(S'w'
I1
tp172
a(S'w'
I7
tp173
a(S'tr_lr'
I122
tp174
a(S'w'
I703
tp175
a(S'p1_vo'
I9
tp176
a(S'w'
I1
tp177
a(S'w'
I8
tp178
a(S'p2_vo'
I9
tp179
a(S'w'
I1
tp180
a(S'w'
I6
tp181
a(S'tr_lr'
I121
tp182
a(S'w'
I731
tp183
a(S'p1_vo'
I8
tp184
a(S'w'
I1
tp185
a(S'w'
I9
tp186
a(S'p2_vo'
I8
tp187
a(S'w'
I7
tp188
a(S'tr_lr'
I120
tp189
a(S'w'
I723
tp190
a(S'p1_vo'
I12
tp191
a(S'p1_tl'
I147
tp192
a(S'w'
I1
tp193
a(S'p1_ll'
I0
tp194
a(S'w'
I13
tp195
a(S'p2_vo'
I12
tp196
a(S'p2_tl'
I26
tp197
a(S'p2_ll'
I0
tp198
a(S'p2_th'
I2
tp199
a(S'w'
I11
tp200
a(S'tr_lr'
I124
tp201
a(S'tr_tl'
I124
tp202
a(S'w'
I1
tp203
a(S'tr_ll'
I0
tp204
a(S'w'
I702
tp205
a(S'w'
I9
tp206
a(S'w'
I737
tp207
a(S'w'
I10
tp208
a(S'w'
I712
tp209
a(S'w'
I9
tp210
a(S'w'
I724
tp211
a(S'p1_vo'
I10
tp212
a(S'w'
I1
tp213
a(S'w'
I9
tp214
a(S'p2_vo'
I10
tp215
a(S'w'
I7
tp216
a(S'tr_lr'
I122
tp217
a(S'w'
I717
tp218
a(S'p1_vo'
I9
tp219
a(S'w'
I9
tp220
a(S'p2_vo'
I9
tp221
a(S'w'
I7
tp222
a(S'tr_lr'
I121
tp223
a(S'w'
I705
tp224
a(S'p1_vo'
I8
tp225
a(S'w'
I10
tp226
a(S'p2_vo'
I8
tp227
a(S'w'
I7
tp228
a(S'tr_lr'
I120
tp229
a(S'w'
I734
tp230
a(S'p1_vo'
I12
tp231
a(S'p1_tl'
I171
tp232
a(S'p1_ll'
I0
tp233
a(S'w'
I13
tp234
a(S'p2_vo'
I12
tp235
a(S'p2_tl'
I60
tp236
a(S'w'
I1
tp237
a(S'p2_ll'
I0
tp238
a(S'w'
I10
tp239
a(S'tr_lr'
I124
tp240
a(S'tr_tl'
I147
tp241
a(S'w'
I1
tp242
a(S'tr_ll'
I0
tp243
a(S'w'
I709
tp244
a(S'w'
I9
tp245
a(S'w'
I721
tp246
a(S'w'
I9
tp247
a(S'w'
I736
tp248
a(S'w'
I9
tp249
a(S'w'
I714
tp250
a(S'p1_vo'
I10
tp251
a(S'w'
I10
tp252
a(S'p2_vo'
I10
tp253
a(S'w'
I7
tp254
a(S'tr_lr'
I122
tp255
a(S'w'
I715
tp256
a(S'p1_vo'
I9
tp257
a(S'w'
I1
tp258
a(S'w'
I8
tp259
a(S'p2_vo'
I9
tp260
a(S'w'
I1
tp261
a(S'w'
I6
tp262
a(S'tr_lr'
I121
tp263
a(S'w'
I719
tp264
a(S'p1_vo'
I8
tp265
a(S'w'
I9
tp266
a(S'p2_vo'
I8
tp267
a(S'w'
I8
tp268
a(S'tr_lr'
I120
tp269
a(S'w'
I708
tp270
a(S'p1_vo'
I12
tp271
a(S'p1_tl'
I196
tp272
a(S'w'
I1
tp273
a(S'p1_ll'
I0
tp274
a(S'w'
I14
tp275
a(S'p2_vo'
I12
tp276
a(S'p2_tl'
I92
tp277
a(S'p2_ll'
I0
tp278
a(S'w'
I12
tp279
a(S'tr_lr'
I124
tp280
a(S'tr_tl'
I171
tp281
a(S'tr_ll'
I0
tp282
a(S'w'
I715
tp283
a(S'w'
I9
tp284
a(S'w'
I728
tp285
a(S'w'
I9
tp286
a(S'w'
I722
tp287
a(S'w'
I9
tp288
a(S'w'
I737
tp289
a(S'p1_vo'
I10
tp290
a(S'w'
I9
tp291
a(S'p2_vo'
I10
tp292
a(S'w'
I1
tp293
a(S'w'
I7
tp294
a(S'tr_lr'
I122
tp295
a(S'w'
I705
tp296
a(S'p1_vo'
I9
tp297
a(S'w'
I9
tp298
a(S'p2_vo'
I9
tp299
a(S'w'
I7
tp300
a(S'tr_lr'
I121
tp301
a(S'w'
I717
tp302
a(S'p1_vo'
I8
tp303
a(S'w'
I10
tp304
a(S'p2_vo'
I8
tp305
a(S'w'
I7
tp306
a(S'tr_lr'
I120
tp307
a(S'w'
I717
tp308
a(S'p1_vo'
I7
tp309
a(S'w'
I10
tp310
a(S'p2_vo'
I7
tp311
a(S'w'
I7
tp312
a(S'tr_lr'
I119
tp313
a(S'w'
I704
tp314
a(S'w'
I9
tp315
a(S'w'
I738
tp316
a(S'w'
I9
tp317
a(S'w'
I729
tp318
a(S'p1_vo'
I6
tp319
a(S'w'
I9
tp320
a(S'p2_vo'
I6
tp321
a(S'w'
I6
tp322
a(S'tr_lr'
I118
tp323
a(S'w'
I714
tp324
a(S'w'
I10
tp325
a(S'w'
I736
tp326
a(S'p1_vo'
I7
tp327
a(S'w'
I1
tp328
a(S'w'
I9
tp329
a(S'p2_vo'
I7
tp330
a(S'w'
I7
tp331
a(S'tr_lr'
I119
tp332
a(S'w'
I706
tp333
a(S'w'
I9
tp334
a(S'w'
I724
tp335
a(S'p1_vo'
I8
tp336
a(S'w'
I9
tp337
a(S'p2_vo'
I8
tp338
a(S'w'
I8
tp339
a(S'tr_lr'
I120
tp340
a(S'w'
I716
tp341
a(S'w'
I9
tp342
a(S'w'
I713
tp343
a(S'p1_vo'
I7
tp344
a(S'w'
I10
tp345
a(S'p2_vo'
I7
tp346
a(S'w'
I7
tp347
a(S'tr_lr'
I119
tp348
a(S'w'
I729
tp349
a(S'w'
I9
tp350
a(S'w'
I727
tp351
a(S'p1_vo'
I6
tp352
a(S'w'
I10
tp353
a(S'p2_vo'
I6
tp354
a(S'w'
I7
tp355
a(S'tr_lr'
I118
tp356
a(S'w'
I715
tp357
a(S'w'
I9
tp358
a(S'w'
I736
tp359
a(S'p1_vo'
I7
tp360
a(S'w'
I1
tp361
a(S'w'
I8
tp362
a(S'p2_vo'
I7
tp363
a(S'w'
I1
tp364
a(S'w'
I6
tp365
a(S'tr_lr'
I119
tp366
a(S'w'
I707
tp367
a(S'w'
I10
tp368
a(S'w'
I723
tp369
a(S'p1_vo'
I8
tp370
a(S'w'
I9
tp371
a(S'p2_vo'
I8
tp372
a(S'w'
I7
tp373
a(S'tr_lr'
I120
tp374
a(S'w'
I718
tp375
a(S'w'
I10
tp376
a(S'w'
I711
tp377
a(S'p1_vo'
I7
tp378
a(S'w'
I10
tp379
a(S'p2_vo'
I7
tp380
a(S'w'
I6
tp381
a(S'tr_lr'
I119
tp382
a(S'w'
I731
tp383
a(S'w'
I9
tp384
a(S'w'
I729
tp385
a(S'p1_vo'
I6
tp386
a(S'w'
I9
tp387
a(S'p2_vo'
I6
tp388
a(S'w'
I1
tp389
a(S'w'
I7
tp390
a(S'tr_lr'
I118
tp391
a(S'w'
I712
tp392
a(S'w'
I9
tp393
a(S'w'
I737
tp394
a(S'p1_vo'
I7
tp395
a(S'w'
I10
tp396
a(S'p2_vo'
I7
tp397
a(S'w'
I7
tp398
a(S'tr_lr'
I119
tp399
a(S'w'
I705
tp400
a(S'w'
I10
tp401
a(S'w'
I724
tp402
a(S'p1_vo'
I8
tp403
a(S'w'
I9
tp404
a(S'p2_vo'
I8
tp405
a(S'w'
I7
tp406
a(S'tr_lr'
I120
tp407
a(S'w'
I717
tp408
a(S'w'
I9
tp409
a(S'w'
I713
tp410
a(S'p1_vo'
I7
tp411
a(S'w'
I10
tp412
a(S'p2_vo'
I7
tp413
a(S'w'
I7
tp414
a(S'tr_lr'
I119
tp415
a(S'w'
I729
tp416
a(S'w'
I10
tp417
a(S'w'
I726
tp418
a(S'p1_vo'
I6
tp419
a(S'w'
I9
tp420
a(S'p2_vo'
I6
tp421
a(S'w'
I7
tp422
a(S'tr_lr'
I118
tp423
a(S'w'
I716
tp424
a(S'w'
I9
tp425
a(S'w'
I736
tp426
a(S'p1_vo'
I7
tp427
a(S'w'
I9
tp428
a(S'p2_vo'
I7
tp429
a(S'w'
I7
tp430
a(S'tr_lr'
I119
tp431
a(S'w'
I707
tp432
a(S'w'
I10
tp433
a(S'w'
I722
tp434
a(S'p1_vo'
I8
tp435
a(S'w'
I1
tp436
a(S'w'
I8
tp437
a(S'p2_vo'
I8
tp438
a(S'w'
I1
tp439
a(S'w'
I6
tp440
a(S'tr_lr'
I120
tp441
a(S'w'
I719
tp442
a(S'w'
I9
tp443
a(S'w'
I712
tp444
a(S'p1_vo'
I7
tp445
a(S'w'
I10
tp446
a(S'p2_vo'
I7
tp447
a(S'w'
I8
tp448
a(S'tr_lr'
I119
tp449
a(S'w'
I728
tp450
a(S'w'
I9
tp451
a(S'w'
I730
tp452
a(S'p1_vo'
I6
tp453
a(S'w'
I9
tp454
a(S'p2_vo'
I6
tp455
a(S'w'
I8
tp456
a(S'tr_lr'
I118
tp457
a(S'w'
I712
tp458
a(S'w'
I9
tp459
a(S'w'
I737
tp460
a(S'p1_vo'
I7
tp461
a(S'w'
I10
tp462
a(S'p2_vo'
I7
tp463
a(S'w'
I7
tp464
a(S'tr_lr'
I119
tp465
a(S'w'
I705
tp466
a(S'w'
I9
tp467
a(S'w'
I724
tp468
a(S'p1_vo'
I8
tp469
a(S'w'
I1
tp470
a(S'w'
I9
tp471
a(S'p2_vo'
I8
tp472
a(S'w'
I7
tp473
a(S'tr_lr'
I120
tp474
a(S'w'
I717
tp475
a(S'w'
I10
tp476
a(S'w'
I711
tp477
a(S'p1_vo'
I7
tp478
a(S'w'
I10
tp479
a(S'p2_vo'
I7
tp480
a(S'w'
I7
tp481
a(S'tr_lr'
I119
tp482
a(S'w'
I730
tp483
a(S'w'
I9
tp484
a(S'w'
I726
tp485
a(S'p1_vo'
I6
tp486
a(S'w'
I1
tp487
a(S'w'
I8
tp488
a(S'p2_vo'
I6
tp489
a(S'w'
I1
tp490
a(S'w'
I6
tp491
a(S'tr_lr'
I118
tp492
a(S'w'
I717
tp493
a(S'w'
I9
tp494
a(S'w'
I736
tp495
a(S'p1_vo'
I7
tp496
a(S'w'
I9
tp497
a(S'p2_vo'
I7
tp498
a(S'w'
I7
tp499
a(S'tr_lr'
I119
tp500
a(S'w'
I707
tp501
a(S'w'
I10
tp502
a(S'w'
I723
tp503
a(S'p1_vo'
I8
tp504
a(S'w'
I9
tp505
a(S'p2_vo'
I8
tp506
a(S'w'
I8
tp507
a(S'tr_lr'
I120
tp508
a(S'w'
I716
tp509
a(S'w'
I9
tp510
a(S'w'
I713
tp511
a(S'p1_vo'
I7
tp512
a(S'w'
I10
tp513
a(S'p2_vo'
I7
tp514
a(S'w'
I7
tp515
a(S'tr_lr'
I119
tp516
a(S'w'
I729
tp517
a(S'w'
I9
tp518
a(S'w'
I729
tp519
a(S'p1_vo'
I6
tp520
a(S'w'
I1
tp521
a(S'w'
I9
tp522
a(S'p2_vo'
I6
tp523
a(S'w'
I7
tp524
a(S'tr_lr'
I118
tp525
a(S'w'
I712
tp526
a(S'w'
I9
tp527
a(S'w'
I738
tp528
a(S'p1_vo'
I7
tp529
a(S'w'
I9
tp530
a(S'p2_vo'
I7
tp531
a(S'w'
I1
tp532
a(S'w'
I7
tp533
a(S'tr_lr'
I119
tp534
a(S'w'
I706
tp535
a(S'w'
I9
tp536
a(S'w'
I723
tp537
a(S'p1_vo'
I8
tp538
a(S'w'
I9
tp539
a(S'p2_vo'
I8
tp540
a(S'w'
I7
tp541
a(S'tr_lr'
I120
tp542
a(S'w'
I718
tp543
a(S'w'
I10
tp544
a(S'w'
I711
tp545
a(S'p1_vo'
I7
tp546
a(S'w'
I10
tp547
a(S'p2_vo'
I7
tp548
a(S'w'
I7
tp549
a(S'tr_lr'
I119
tp550
a(S'w'
I730
tp551
a(S'w'
I9
tp552
a(S'w'
I727
tp553
a(S'p1_vo'
I6
tp554
a(S'w'
I9
tp555
a(S'p2_vo'
I6
tp556
a(S'w'
I8
tp557
a(S'tr_lr'
I118
tp558
a(S'w'
I714
tp559
a(S'w'
I9
tp560
a(S'w'
I737
tp561
a(S'p1_vo'
I7
tp562
a(S'w'
I10
tp563
a(S'p2_vo'
I7
tp564
a(S'w'
I7
tp565
a(S'tr_lr'
I119
tp566
a(S'w'
I706
tp567
a(S'w'
I9
tp568
a(S'w'
I724
tp569
a(S'p1_vo'
I8
tp570
a(S'w'
I9
tp571
a(S'p2_vo'
I8
tp572
a(S'w'
I7
tp573
a(S'tr_lr'
I120
tp574
a(S'w'
I717
tp575
a(S'w'
I9
tp576
a(S'w'
I713
tp577
a(S'p1_vo'
I7
tp578
a(S'w'
I10
tp579
a(S'p2_vo'
I7
tp580
a(S'w'
I7
tp581
a(S'tr_lr'
I119
tp582
a(S'w'
I729
tp583
a(S'w'
I10
tp584
a(S'w'
I728
tp585
a(S'p1_vo'
I6
tp586
a(S'w'
I9
tp587
a(S'p2_vo'
I6
tp588
a(S'w'
I7
tp589
a(S'tr_lr'
I118
tp590
a(S'w'
I714
tp591
a(S'w'
I9
tp592
a(S'w'
I736
tp593
a(S'p1_vo'
I7
tp594
a(S'w'
I9
tp595
a(S'p2_vo'
I7
tp596
a(S'w'
I7
tp597
a(S'tr_lr'
I119
tp598
a(S'w'
I707
tp599
a(S'w'
I10
tp600
a(S'w'
I722
tp601
a(S'p1_vo'
I8
tp602
a(S'w'
I1
tp603
a(S'w'
I9
tp604
a(S'p2_vo'
I8
tp605
a(S'w'
I6
tp606
a(S'tr_lr'
I120
tp607
a(S'w'
I719
tp608
a(S'w'
I9
tp609
a(S'w'
I712
tp610
a(S'p1_vo'
I7
tp611
a(S'w'
I10
tp612
a(S'p2_vo'
I7
tp613
a(S'w'
I1
tp614
a(S'w'
I7
tp615
a(S'tr_lr'
I119
tp616
a(S'w'
I728
tp617
a(S'w'
I9
tp618
a(S'w'
I727
tp619
a(S'p1_vo'
I6
tp620
a(S'w'
I1
tp621
a(S'w'
I9
tp622
a(S'p2_vo'
I6
tp623
a(S'w'
I7
tp624
a(S'tr_lr'
I118
tp625
a(S'w'
I715
tp626
a(S'w'
I9
tp627
a(S'w'
I733
tp628
a(S'p1_du'
I0
tp629
a(S'p1_vo'
I0
tp630
a(S'w'
I7
tp631
a(S'p2_du'
I0
tp632
a(S'p2_vo'
I0
tp633
a(S'w'
I6
tp634
a(S'tr_lh'
I0
tp635
a(S'tr_lr'
I0
tp636
a(S'w'
I392
tp637
a.