(lp1
(S'clock'
p2
I1789772
tp3
a(S'p1_du'
I2
tp4
a(S'p1_cv'
I1
tp5
a(S'p2_du'
I2
tp6
a(S'p2_cv'
I1
tp7
a(S'no_cv'
I1
tp8
a(S'ch_no'
I1
tp9
a(S'ch_tr'
I1
tp10
a(S'ch_p2'
I1
tp11
a(S'ch_p1'
I1
tp12
a(S'fc_mo'
I1
tp13
a(S'p1_du'
I1
tp14
a(S'p1_cv'
I0
tp15
a(S'p1_vo'
I2
tp16
a(S'w'
I1
tp17
a(S'p1_tl'
I82
tp18
a(S'p1_ll'
I14
tp19
a(S'p1_th'
I1
tp20
a(S'w'
I3
tp21
a(S'p2_du'
I1
tp22
a(S'p2_cv'
I0
tp23
a(S'p2_vo'
I2
tp24
a(S'w'
I1
tp25
a(S'p2_tl'
I252
tp26
a(S'p2_ll'
I14
tp27
a(S'p2_th'
I1
tp28
a(S'w'
I3
tp29
a(S'no_lh'
I1
tp30
a(S'no_vo'
I15
tp31
a(S'w'
I1
tp32
a(S'no_np'
I12
tp33
a(S'w'
I1
tp34
a(S'no_ll'
I0
tp35
a(S'w'
I2188
tp36
a(S'no_vo'
I0
tp37
a(S'no_np'
I0
tp38
a(S'w'
I2932
tp39
a(S'p1_tl'
I168
tp40
a(S'w'
I1
tp41
a(S'p1_ll'
I14
tp42
a(S'p1_th'
I0
tp43
a(S'w'
I3
tp44
a(S'p2_tl'
I253
tp45
a(S'p2_ll'
I14
tp46
a(S'p2_th'
I0
tp47
a(S'w'
I733
tp48
a(S'no_vo'
I15
tp49
a(S'no_np'
I12
tp50
a(S'w'
I2201
tp51
a(S'no_vo'
I0
tp52
a(S'w'
I1
tp53
a(S'no_np'
I0
tp54
a(S'w'
I2198
tp55
a(S'p1_vo'
I5
tp56
a(S'w'
I1
tp57
a(S'p1_tl'
I178
tp58
a(S'p1_ll'
I14
tp59
a(S'w'
I2
tp60
a(S'p2_vo'
I5
tp61
a(S'w'
I2
tp62
a(S'p2_tl'
I12
tp63
a(S'p2_ll'
I14
tp64
a(S'p2_th'
I1
tp65
a(S'w'
I1465
tp66
a(S'no_vo'
I15
tp67
a(S'w'
I1
tp68
a(S'no_np'
I12
tp69
a(S'w'
I2935
tp70
a(S'no_vo'
I0
tp71
a(S'w'
I13939
tp72
a(S'p1_du'
I0
tp73
a(S'p1_lh'
I1
tp74
a(S'p1_cv'
I1
tp75
a(S'p1_vo'
I0
tp76
a(S'w'
I2
tp77
a(S'p2_du'
I0
tp78
a(S'p2_lh'
I1
tp79
a(S'p2_cv'
I1
tp80
a(S'p2_vo'
I0
tp81
a(S'w'
I1
tp82
a.