(lp1
(S'clock'
p2
I1789772
tp3
a(S'p1_du'
I2
tp4
a(S'p1_cv'
I1
tp5
a(S'p2_du'
I2
tp6
a(S'p2_cv'
I1
tp7
a(S'no_cv'
I1
tp8
a(S'ch_no'
I1
tp9
a(S'ch_tr'
I1
tp10
a(S'ch_p2'
I1
tp11
a(S'ch_p1'
I1
tp12
a(S'fc_mo'
I1
tp13
a(S'p1_lh'
I1
tp14
a(S'p1_vo'
I9
tp15
a(S'p1_tl'
I45
tp16
a(S'p1_sp'
I7
tp17
a(S'p1_sn'
I1
tp18
a(S'p1_ss'
I7
tp19
a(S'w'
I1
tp20
a(S'p1_ll'
I0
tp21
a(S'p1_th'
I1
tp22
a(S'w'
I17
tp23
a(S'p2_lh'
I1
tp24
a(S'p2_vo'
I9
tp25
a(S'p2_tl'
I103
tp26
a(S'p2_sp'
I7
tp27
a(S'p2_sn'
I1
tp28
a(S'p2_ss'
I7
tp29
a(S'p2_ll'
I0
tp30
a(S'p2_th'
I1
tp31
a(S'w'
I12
tp32
a(S'tr_lh'
I1
tp33
a(S'tr_lr'
I57
tp34
a(S'tr_tl'
I225
tp35
a(S'w'
I1
tp36
a(S'tr_ll'
I0
tp37
a(S'w'
I4
tp38
a(S'no_lh'
I1
tp39
a(S'w'
I688
tp40
a(S'p1_vo'
I13
tp41
a(S'w'
I9
tp42
a(S'p2_vo'
I13
tp43
a(S'w'
I7
tp44
a(S'tr_lr'
I61
tp45
a(S'w'
I708
tp46
a(S'p1_du'
I1
tp47
a(S'p1_vo'
I15
tp48
a(S'w'
I9
tp49
a(S'p2_du'
I1
tp50
a(S'p2_vo'
I15
tp51
a(S'w'
I7
tp52
a(S'tr_lr'
I127
tp53
a(S'w'
I728
tp54
a(S'w'
I10
tp55
a(S'w'
I724
tp56
a(S'w'
I9
tp57
a(S'w'
I725
tp58
a(S'p1_vo'
I14
tp59
a(S'w'
I9
tp60
a(S'p2_vo'
I14
tp61
a(S'w'
I7
tp62
a(S'tr_lr'
I126
tp63
a(S'w'
I730
tp64
a(S'p1_vo'
I3
tp65
a(S'w'
I10
tp66
a(S'p2_vo'
I3
tp67
a(S'w'
I8
tp68
a(S'tr_lr'
I0
tp69
a(S'w'
I705
tp70
a(S'w'
I10
tp71
a(S'w'
I723
tp72
a(S'w'
I9
tp73
a(S'w'
I724
tp74
a(S'w'
I10
tp75
a(S'w'
I716
tp76
a(S'w'
I10
tp77
a(S'w'
I732
tp78
a(S'w'
I9
tp79
a(S'w'
I725
tp80
a(S'w'
I10
tp81
a(S'w'
I724
tp82
a(S'w'
I10
tp83
a(S'w'
I736
tp84
a(S'w'
I10
tp85
a(S'w'
I712
tp86
a(S'w'
I10
tp87
a(S'w'
I723
tp88
a(S'w'
I10
tp89
a(S'w'
I724
tp90
a(S'w'
I10
tp91
a(S'w'
I713
tp92
a(S'w'
I10
tp93
a(S'w'
I734
tp94
a(S'w'
I10
tp95
a(S'w'
I729
tp96
a(S'p1_du'
I2
tp97
a(S'p1_vo'
I9
tp98
a(S'p1_ll'
I0
tp99
a(S'w'
I13
tp100
a(S'p2_du'
I2
tp101
a(S'p2_vo'
I9
tp102
a(S'w'
I1
tp103
a(S'p2_ll'
I0
tp104
a(S'w'
I11
tp105
a(S'tr_lr'
I57
tp106
a(S'tr_ll'
I0
tp107
a(S'w'
I703
tp108
a(S'p1_vo'
I13
tp109
a(S'w'
I1
tp110
a(S'w'
I9
tp111
a(S'p2_vo'
I13
tp112
a(S'w'
I7
tp113
a(S'tr_lr'
I61
tp114
a(S'w'
I729
tp115
a(S'p1_du'
I1
tp116
a(S'p1_vo'
I15
tp117
a(S'w'
I9
tp118
a(S'p2_du'
I1
tp119
a(S'p2_vo'
I15
tp120
a(S'w'
I7
tp121
a(S'tr_lr'
I127
tp122
a(S'w'
I707
tp123
a(S'w'
I10
tp124
a(S'w'
I723
tp125
a(S'p1_vo'
I3
tp126
a(S'w'
I1
tp127
a(S'w'
I9
tp128
a(S'p2_vo'
I3
tp129
a(S'w'
I1
tp130
a(S'w'
I7
tp131
a(S'tr_lr'
I0
tp132
a(S'w'
I716
tp133
a(S'w'
I10
tp134
a(S'w'
I716
tp135
a(S'w'
I10
tp136
a(S'w'
I736
tp137
a(S'p1_du'
I2
tp138
a(S'p1_vo'
I9
tp139
a(S'w'
I1
tp140
a(S'p1_ll'
I0
tp141
a(S'w'
I13
tp142
a(S'p2_du'
I2
tp143
a(S'p2_vo'
I9
tp144
a(S'w'
I1
tp145
a(S'p2_ll'
I0
tp146
a(S'w'
I10
tp147
a(S'tr_lr'
I57
tp148
a(S'w'
I1
tp149
a(S'tr_ll'
I0
tp150
a(S'w'
I703
tp151
a(S'p1_vo'
I13
tp152
a(S'w'
I9
tp153
a(S'p2_vo'
I13
tp154
a(S'w'
I1
tp155
a(S'w'
I7
tp156
a(S'tr_lr'
I61
tp157
a(S'w'
I717
tp158
a(S'p1_du'
I1
tp159
a(S'p1_vo'
I15
tp160
a(S'w'
I9
tp161
a(S'p2_du'
I1
tp162
a(S'p2_vo'
I15
tp163
a(S'w'
I8
tp164
a(S'tr_lr'
I127
tp165
a(S'w'
I729
tp166
a(S'w'
I10
tp167
a(S'w'
I713
tp168
a(S'w'
I9
tp169
a(S'w'
I723
tp170
a(S'p1_vo'
I14
tp171
a(S'w'
I10
tp172
a(S'p2_vo'
I14
tp173
a(S'w'
I7
tp174
a(S'tr_lr'
I126
tp175
a(S'w'
I716
tp176
a(S'p1_vo'
I13
tp177
a(S'w'
I1
tp178
a(S'w'
I9
tp179
a(S'p2_vo'
I13
tp180
a(S'w'
I6
tp181
a(S'tr_lr'
I125
tp182
a(S'w'
I708
tp183
a(S'p1_vo'
I12
tp184
a(S'w'
I10
tp185
a(S'p2_vo'
I12
tp186
a(S'w'
I7
tp187
a(S'tr_lr'
I124
tp188
a(S'w'
I728
tp189
a(S'p1_vo'
I11
tp190
a(S'w'
I9
tp191
a(S'p2_vo'
I11
tp192
a(S'w'
I7
tp193
a(S'tr_lr'
I123
tp194
a(S'w'
I717
tp195
a(S'p1_vo'
I10
tp196
a(S'w'
I1
tp197
a(S'w'
I9
tp198
a(S'p2_vo'
I10
tp199
a(S'w'
I7
tp200
a(S'tr_lr'
I122
tp201
a(S'w'
I717
tp202
a(S'p1_vo'
I9
tp203
a(S'w'
I10
tp204
a(S'p2_vo'
I9
tp205
a(S'w'
I7
tp206
a(S'tr_lr'
I121
tp207
a(S'w'
I729
tp208
a(S'w'
I10
tp209
a(S'w'
I713
tp210
a(S'p1_vo'
I3
tp211
a(S'w'
I1
tp212
a(S'w'
I10
tp213
a(S'p2_vo'
I3
tp214
a(S'w'
I7
tp215
a(S'tr_lr'
I0
tp216
a(S'w'
I719
tp217
a(S'p1_du'
I2
tp218
a(S'p1_vo'
I9
tp219
a(S'w'
I1
tp220
a(S'p1_ll'
I0
tp221
a(S'w'
I13
tp222
a(S'p2_du'
I2
tp223
a(S'p2_vo'
I9
tp224
a(S'w'
I1
tp225
a(S'p2_ll'
I0
tp226
a(S'w'
I10
tp227
a(S'tr_lr'
I57
tp228
a(S'tr_tl'
I238
tp229
a(S'w'
I1
tp230
a(S'tr_ll'
I0
tp231
a(S'w'
I703
tp232
a(S'p1_vo'
I13
tp233
a(S'w'
I1
tp234
a(S'w'
I9
tp235
a(S'p2_vo'
I13
tp236
a(S'w'
I7
tp237
a(S'tr_lr'
I61
tp238
a(S'w'
I709
tp239
a(S'p1_du'
I1
tp240
a(S'p1_vo'
I15
tp241
a(S'w'
I9
tp242
a(S'p2_du'
I1
tp243
a(S'p2_vo'
I15
tp244
a(S'w'
I1
tp245
a(S'w'
I7
tp246
a(S'tr_lr'
I127
tp247
a(S'w'
I725
tp248
a(S'w'
I9
tp249
a(S'w'
I725
tp250
a(S'w'
I10
tp251
a(S'w'
I724
tp252
a(S'p1_vo'
I14
tp253
a(S'w'
I9
tp254
a(S'p2_vo'
I14
tp255
a(S'w'
I7
tp256
a(S'tr_lr'
I126
tp257
a(S'w'
I730
tp258
a(S'p1_vo'
I3
tp259
a(S'w'
I10
tp260
a(S'p2_vo'
I3
tp261
a(S'w'
I1
tp262
a(S'w'
I7
tp263
a(S'tr_lr'
I0
tp264
a(S'w'
I705
tp265
a(S'w'
I10
tp266
a(S'w'
I723
tp267
a(S'w'
I10
tp268
a(S'w'
I723
tp269
a(S'w'
I10
tp270
a(S'w'
I714
tp271
a(S'w'
I10
tp272
a(S'w'
I734
tp273
a(S'w'
I10
tp274
a(S'w'
I724
tp275
a(S'w'
I10
tp276
a(S'w'
I727
tp277
a(S'p1_du'
I2
tp278
a(S'p1_vo'
I9
tp279
a(S'p1_tl'
I12
tp280
a(S'w'
I1
tp281
a(S'p1_ll'
I0
tp282
a(S'w'
I13
tp283
a(S'p2_du'
I2
tp284
a(S'p2_vo'
I9
tp285
a(S'p2_ll'
I0
tp286
a(S'w'
I11
tp287
a(S'tr_lr'
I57
tp288
a(S'w'
I1
tp289
a(S'tr_ll'
I0
tp290
a(S'w'
I716
tp291
a(S'p1_vo'
I13
tp292
a(S'w'
I9
tp293
a(S'p2_vo'
I13
tp294
a(S'w'
I7
tp295
a(S'tr_lr'
I61
tp296
a(S'w'
I707
tp297
a(S'p1_du'
I1
tp298
a(S'p1_vo'
I15
tp299
a(S'w'
I9
tp300
a(S'p2_du'
I1
tp301
a(S'p2_vo'
I15
tp302
a(S'w'
I8
tp303
a(S'tr_lr'
I127
tp304
a(S'w'
I716
tp305
a(S'w'
I9
tp306
a(S'w'
I724
tp307
a(S'w'
I10
tp308
a(S'w'
I716
tp309
a(S'p1_vo'
I14
tp310
a(S'w'
I9
tp311
a(S'p2_vo'
I14
tp312
a(S'w'
I8
tp313
a(S'tr_lr'
I126
tp314
a(S'w'
I725
tp315
a(S'p1_vo'
I3
tp316
a(S'w'
I1
tp317
a(S'w'
I9
tp318
a(S'p2_vo'
I3
tp319
a(S'w'
I1
tp320
a(S'w'
I7
tp321
a(S'tr_lr'
I0
tp322
a(S'w'
I716
tp323
a(S'w'
I10
tp324
a(S'w'
I724
tp325
a(S'w'
I10
tp326
a(S'w'
I736
tp327
a(S'w'
I10
tp328
a(S'w'
I713
tp329
a(S'w'
I10
tp330
a(S'w'
I722
tp331
a(S'w'
I10
tp332
a(S'w'
I724
tp333
a(S'w'
I10
tp334
a(S'w'
I714
tp335
a(S'w'
I9
tp336
a(S'w'
I738
tp337
a(S'p1_du'
I2
tp338
a(S'p1_vo'
I9
tp339
a(S'p1_tl'
I225
tp340
a(S'w'
I1
tp341
a(S'p1_ll'
I0
tp342
a(S'p1_th'
I0
tp343
a(S'w'
I13
tp344
a(S'p2_du'
I2
tp345
a(S'p2_vo'
I9
tp346
a(S'w'
I1
tp347
a(S'p2_ll'
I0
tp348
a(S'w'
I10
tp349
a(S'tr_lr'
I57
tp350
a(S'w'
I1
tp351
a(S'tr_ll'
I0
tp352
a(S'w'
I704
tp353
a(S'p1_vo'
I13
tp354
a(S'w'
I10
tp355
a(S'p2_vo'
I13
tp356
a(S'w'
I7
tp357
a(S'tr_lr'
I61
tp358
a(S'w'
I717
tp359
a(S'p1_du'
I1
tp360
a(S'p1_vo'
I15
tp361
a(S'w'
I9
tp362
a(S'p2_du'
I1
tp363
a(S'p2_vo'
I15
tp364
a(S'w'
I8
tp365
a(S'tr_lr'
I127
tp366
a(S'w'
I729
tp367
a(S'w'
I10
tp368
a(S'w'
I713
tp369
a(S'w'
I9
tp370
a(S'w'
I724
tp371
a(S'p1_vo'
I3
tp372
a(S'w'
I10
tp373
a(S'p2_vo'
I3
tp374
a(S'w'
I7
tp375
a(S'tr_lr'
I0
tp376
a(S'w'
I717
tp377
a(S'w'
I10
tp378
a(S'w'
I715
tp379
a(S'w'
I10
tp380
a(S'w'
I732
tp381
a(S'w'
I10
tp382
a(S'w'
I724
tp383
a(S'w'
I10
tp384
a(S'w'
I724
tp385
a(S'w'
I10
tp386
a(S'w'
I736
tp387
a(S'w'
I10
tp388
a(S'w'
I713
tp389
a(S'w'
I10
tp390
a(S'w'
I726
tp391
a(S'p1_du'
I2
tp392
a(S'p1_vo'
I9
tp393
a(S'p1_tl'
I200
tp394
a(S'p1_ll'
I0
tp395
a(S'w'
I13
tp396
a(S'p2_du'
I2
tp397
a(S'p2_vo'
I9
tp398
a(S'w'
I1
tp399
a(S'p2_ll'
I0
tp400
a(S'w'
I11
tp401
a(S'tr_lr'
I57
tp402
a(S'tr_tl'
I12
tp403
a(S'tr_ll'
I0
tp404
a(S'tr_th'
I1
tp405
a(S'w'
I704
tp406
a(S'p1_vo'
I13
tp407
a(S'w'
I1
tp408
a(S'w'
I9
tp409
a(S'p2_vo'
I13
tp410
a(S'w'
I7
tp411
a(S'tr_lr'
I61
tp412
a(S'w'
I707
tp413
a(S'p1_du'
I1
tp414
a(S'p1_vo'
I15
tp415
a(S'w'
I9
tp416
a(S'p2_du'
I1
tp417
a(S'p2_vo'
I15
tp418
a(S'w'
I8
tp419
a(S'tr_lr'
I127
tp420
a(S'w'
I727
tp421
a(S'w'
I10
tp422
a(S'w'
I724
tp423
a(S'w'
I10
tp424
a(S'w'
I724
tp425
a(S'p1_vo'
I3
tp426
a(S'w'
I10
tp427
a(S'p2_vo'
I3
tp428
a(S'w'
I1
tp429
a(S'w'
I7
tp430
a(S'tr_lr'
I0
tp431
a(S'w'
I728
tp432
a(S'w'
I10
tp433
a(S'w'
I713
tp434
a(S'w'
I10
tp435
a(S'w'
I723
tp436
a(S'w'
I10
tp437
a(S'w'
I724
tp438
a(S'w'
I10
tp439
a(S'w'
I715
tp440
a(S'w'
I10
tp441
a(S'w'
I732
tp442
a(S'w'
I10
tp443
a(S'w'
I724
tp444
a(S'w'
I10
tp445
a(S'w'
I727
tp446
a(S'p1_du'
I2
tp447
a(S'p1_vo'
I9
tp448
a(S'p1_tl'
I225
tp449
a(S'w'
I1
tp450
a(S'p1_ll'
I0
tp451
a(S'w'
I13
tp452
a(S'p2_du'
I2
tp453
a(S'p2_vo'
I9
tp454
a(S'w'
I1
tp455
a(S'p2_ll'
I0
tp456
a(S'w'
I10
tp457
a(S'tr_lr'
I57
tp458
a(S'w'
I1
tp459
a(S'tr_ll'
I0
tp460
a(S'w'
I716
tp461
a(S'p1_vo'
I13
tp462
a(S'w'
I10
tp463
a(S'p2_vo'
I13
tp464
a(S'w'
I7
tp465
a(S'tr_lr'
I61
tp466
a(S'w'
I706
tp467
a(S'p1_du'
I1
tp468
a(S'p1_vo'
I15
tp469
a(S'w'
I9
tp470
a(S'p2_du'
I1
tp471
a(S'p2_vo'
I15
tp472
a(S'w'
I8
tp473
a(S'tr_lr'
I127
tp474
a(S'w'
I716
tp475
a(S'w'
I9
tp476
a(S'w'
I724
tp477
a(S'w'
I9
tp478
a(S'w'
I715
tp479
a(S'p1_vo'
I14
tp480
a(S'w'
I9
tp481
a(S'p2_vo'
I14
tp482
a(S'w'
I7
tp483
a(S'tr_lr'
I126
tp484
a(S'w'
I728
tp485
a(S'p1_vo'
I3
tp486
a(S'w'
I1
tp487
a(S'w'
I10
tp488
a(S'p2_vo'
I3
tp489
a(S'w'
I7
tp490
a(S'tr_lr'
I0
tp491
a(S'w'
I716
tp492
a(S'w'
I10
tp493
a(S'w'
I724
tp494
a(S'w'
I10
tp495
a(S'w'
I736
tp496
a(S'w'
I10
tp497
a(S'w'
I713
tp498
a(S'w'
I10
tp499
a(S'w'
I723
tp500
a(S'w'
I10
tp501
a(S'w'
I723
tp502
a(S'w'
I10
tp503
a(S'w'
I719
tp504
a(S'p1_du'
I2
tp505
a(S'p1_vo'
I9
tp506
a(S'p1_tl'
I12
tp507
a(S'w'
I1
tp508
a(S'p1_ll'
I0
tp509
a(S'p1_th'
I1
tp510
a(S'w'
I13
tp511
a(S'p2_du'
I2
tp512
a(S'p2_vo'
I9
tp513
a(S'w'
I1
tp514
a(S'p2_ll'
I0
tp515
a(S'w'
I10
tp516
a(S'tr_lr'
I57
tp517
a(S'w'
I1
tp518
a(S'tr_ll'
I0
tp519
a(S'w'
I712
tp520
a(S'p1_vo'
I13
tp521
a(S'w'
I9
tp522
a(S'p2_vo'
I13
tp523
a(S'w'
I7
tp524
a(S'tr_lr'
I61
tp525
a(S'w'
I718
tp526
a(S'p1_du'
I1
tp527
a(S'p1_vo'
I15
tp528
a(S'w'
I10
tp529
a(S'p2_du'
I1
tp530
a(S'p2_vo'
I15
tp531
a(S'w'
I7
tp532
a(S'tr_lr'
I127
tp533
a(S'w'
I717
tp534
a(S'w'
I10
tp535
a(S'w'
I736
tp536
a(S'w'
I10
tp537
a(S'w'
I712
tp538
a(S'p1_vo'
I14
tp539
a(S'w'
I1
tp540
a(S'w'
I9
tp541
a(S'p2_vo'
I14
tp542
a(S'w'
I7
tp543
a(S'tr_lr'
I126
tp544
a(S'w'
I717
tp545
a(S'p1_vo'
I3
tp546
a(S'w'
I10
tp547
a(S'p2_vo'
I3
tp548
a(S'w'
I7
tp549
a(S'tr_lr'
I0
tp550
a(S'w'
I717
tp551
a(S'w'
I10
tp552
a(S'w'
I713
tp553
a(S'w'
I10
tp554
a(S'w'
I734
tp555
a(S'w'
I10
tp556
a(S'w'
I724
tp557
a(S'w'
I10
tp558
a(S'w'
I724
tp559
a(S'w'
I10
tp560
a(S'w'
I736
tp561
a(S'w'
I9
tp562
a(S'w'
I714
tp563
a(S'w'
I10
tp564
a(S'w'
I726
tp565
a(S'p1_du'
I2
tp566
a(S'p1_vo'
I9
tp567
a(S'p1_tl'
I45
tp568
a(S'p1_ll'
I0
tp569
a(S'w'
I13
tp570
a(S'p2_du'
I2
tp571
a(S'p2_vo'
I9
tp572
a(S'w'
I1
tp573
a(S'p2_ll'
I0
tp574
a(S'w'
I11
tp575
a(S'tr_lr'
I57
tp576
a(S'tr_tl'
I45
tp577
a(S'tr_ll'
I0
tp578
a(S'w'
I705
tp579
a(S'p1_vo'
I13
tp580
a(S'w'
I9
tp581
a(S'p2_vo'
I13
tp582
a(S'w'
I7
tp583
a(S'tr_lr'
I61
tp584
a(S'w'
I709
tp585
a(S'p1_du'
I1
tp586
a(S'p1_vo'
I15
tp587
a(S'w'
I9
tp588
a(S'p2_du'
I1
tp589
a(S'p2_vo'
I15
tp590
a(S'w'
I1
tp591
a(S'w'
I7
tp592
a(S'tr_lr'
I127
tp593
a(S'w'
I725
tp594
a(S'w'
I10
tp595
a(S'w'
I724
tp596
a(S'w'
I10
tp597
a(S'w'
I724
tp598
a(S'p1_vo'
I3
tp599
a(S'w'
I1
tp600
a(S'w'
I9
tp601
a(S'p2_vo'
I3
tp602
a(S'w'
I1
tp603
a(S'w'
I7
tp604
a(S'tr_lr'
I0
tp605
a(S'w'
I728
tp606
a(S'w'
I10
tp607
a(S'w'
I713
tp608
a(S'w'
I10
tp609
a(S'w'
I723
tp610
a(S'w'
I10
tp611
a(S'w'
I723
tp612
a(S'w'
I10
tp613
a(S'w'
I714
tp614
a(S'w'
I10
tp615
a(S'w'
I734
tp616
a(S'w'
I10
tp617
a(S'w'
I724
tp618
a(S'w'
I10
tp619
a(S'w'
I727
tp620
a(S'p1_du'
I2
tp621
a(S'p1_vo'
I9
tp622
a(S'p1_tl'
I12
tp623
a(S'w'
I1
tp624
a(S'p1_ll'
I0
tp625
a(S'w'
I13
tp626
a(S'p2_du'
I2
tp627
a(S'p2_vo'
I9
tp628
a(S'w'
I1
tp629
a(S'p2_ll'
I0
tp630
a(S'w'
I10
tp631
a(S'tr_lr'
I57
tp632
a(S'w'
I1
tp633
a(S'tr_ll'
I0
tp634
a(S'w'
I716
tp635
a(S'p1_vo'
I13
tp636
a(S'w'
I10
tp637
a(S'p2_vo'
I13
tp638
a(S'w'
I7
tp639
a(S'tr_lr'
I61
tp640
a(S'w'
I706
tp641
a(S'p1_du'
I1
tp642
a(S'p1_vo'
I15
tp643
a(S'w'
I9
tp644
a(S'p2_du'
I1
tp645
a(S'p2_vo'
I15
tp646
a(S'w'
I8
tp647
a(S'tr_lr'
I127
tp648
a(S'w'
I716
tp649
a(S'w'
I9
tp650
a(S'w'
I724
tp651
a(S'w'
I10
tp652
a(S'w'
I716
tp653
a(S'p1_vo'
I3
tp654
a(S'w'
I1
tp655
a(S'w'
I10
tp656
a(S'p2_vo'
I3
tp657
a(S'w'
I7
tp658
a(S'tr_lr'
I0
tp659
a(S'w'
I724
tp660
a(S'w'
I10
tp661
a(S'w'
I724
tp662
a(S'w'
I10
tp663
a(S'w'
I724
tp664
a(S'w'
I10
tp665
a(S'w'
I736
tp666
a(S'w'
I10
tp667
a(S'w'
I713
tp668
a(S'w'
I10
tp669
a(S'w'
I723
tp670
a(S'w'
I10
tp671
a(S'w'
I723
tp672
a(S'w'
I10
tp673
a(S'w'
I717
tp674
a(S'p1_du'
I2
tp675
a(S'p1_vo'
I9
tp676
a(S'p1_tl'
I225
tp677
a(S'w'
I1
tp678
a(S'p1_ll'
I0
tp679
a(S'p1_th'
I0
tp680
a(S'w'
I13
tp681
a(S'p2_du'
I2
tp682
a(S'p2_vo'
I9
tp683
a(S'w'
I1
tp684
a(S'p2_ll'
I0
tp685
a(S'w'
I10
tp686
a(S'tr_lr'
I57
tp687
a(S'w'
I1
tp688
a(S'tr_ll'
I0
tp689
a(S'w'
I714
tp690
a(S'p1_vo'
I13
tp691
a(S'w'
I1
tp692
a(S'w'
I9
tp693
a(S'p2_vo'
I13
tp694
a(S'w'
I7
tp695
a(S'tr_lr'
I61
tp696
a(S'w'
I717
tp697
a(S'p1_du'
I1
tp698
a(S'p1_vo'
I15
tp699
a(S'w'
I10
tp700
a(S'p2_du'
I1
tp701
a(S'p2_vo'
I15
tp702
a(S'w'
I7
tp703
a(S'tr_lr'
I127
tp704
a(S'w'
I717
tp705
a(S'w'
I10
tp706
a(S'w'
I736
tp707
a(S'w'
I9
tp708
a(S'w'
I714
tp709
a(S'p1_vo'
I14
tp710
a(S'w'
I9
tp711
a(S'p2_vo'
I14
tp712
a(S'w'
I8
tp713
a(S'tr_lr'
I126
tp714
a(S'w'
I716
tp715
a(S'p1_vo'
I3
tp716
a(S'w'
I10
tp717
a(S'p2_vo'
I3
tp718
a(S'w'
I7
tp719
a(S'tr_lr'
I0
tp720
a(S'w'
I717
tp721
a(S'w'
I10
tp722
a(S'w'
I715
tp723
a(S'w'
I10
tp724
a(S'w'
I732
tp725
a(S'w'
I10
tp726
a(S'w'
I724
tp727
a(S'w'
I10
tp728
a(S'w'
I724
tp729
a(S'w'
I10
tp730
a(S'w'
I736
tp731
a(S'w'
I10
tp732
a(S'w'
I717
tp733
a(S'p1_du'
I2
tp734
a(S'p1_vo'
I9
tp735
a(S'p1_tl'
I200
tp736
a(S'w'
I1
tp737
a(S'p1_ll'
I0
tp738
a(S'w'
I13
tp739
a(S'p2_du'
I2
tp740
a(S'p2_vo'
I9
tp741
a(S'p2_tl'
I12
tp742
a(S'w'
I1
tp743
a(S'p2_ll'
I0
tp744
a(S'w'
I10
tp745
a(S'tr_lr'
I57
tp746
a(S'tr_tl'
I82
tp747
a(S'w'
I1
tp748
a(S'tr_ll'
I0
tp749
a(S'w'
I702
tp750
a(S'p1_vo'
I13
tp751
a(S'w'
I9
tp752
a(S'p2_vo'
I13
tp753
a(S'w'
I1
tp754
a(S'w'
I7
tp755
a(S'tr_lr'
I61
tp756
a(S'w'
I716
tp757
a(S'p1_du'
I1
tp758
a(S'p1_vo'
I15
tp759
a(S'w'
I9
tp760
a(S'p2_du'
I1
tp761
a(S'p2_vo'
I15
tp762
a(S'w'
I7
tp763
a(S'tr_lr'
I127
tp764
a(S'w'
I708
tp765
a(S'w'
I10
tp766
a(S'w'
I734
tp767
a(S'w'
I10
tp768
a(S'w'
I724
tp769
a(S'p1_vo'
I14
tp770
a(S'w'
I9
tp771
a(S'p2_vo'
I14
tp772
a(S'w'
I1
tp773
a(S'w'
I7
tp774
a(S'tr_lr'
I126
tp775
a(S'w'
I717
tp776
a(S'p1_vo'
I13
tp777
a(S'w'
I9
tp778
a(S'p2_vo'
I13
tp779
a(S'w'
I1
tp780
a(S'w'
I7
tp781
a(S'tr_lr'
I125
tp782
a(S'w'
I729
tp783
a(S'p1_vo'
I12
tp784
a(S'w'
I9
tp785
a(S'p2_vo'
I12
tp786
a(S'w'
I1
tp787
a(S'w'
I7
tp788
a(S'tr_lr'
I124
tp789
a(S'w'
I706
tp790
a(S'p1_vo'
I3
tp791
a(S'w'
I10
tp792
a(S'p2_vo'
I3
tp793
a(S'w'
I8
tp794
a(S'tr_lr'
I0
tp795
a(S'w'
I715
tp796
a(S'w'
I10
tp797
a(S'w'
I724
tp798
a(S'w'
I10
tp799
a(S'w'
I715
tp800
a(S'w'
I10
tp801
a(S'w'
I732
tp802
a(S'w'
I10
tp803
a(S'w'
I724
tp804
a(S'w'
I10
tp805
a(S'w'
I724
tp806
a(S'w'
I10
tp807
a(S'w'
I736
tp808
a(S'w'
I10
tp809
a(S'w'
I713
tp810
a(S'w'
I10
tp811
a(S'w'
I722
tp812
a(S'w'
I10
tp813
a(S'w'
I724
tp814
a(S'w'
I10
tp815
a(S'w'
I713
tp816
a(S'w'
I10
tp817
a(S'w'
I739
tp818
a(S'p1_du'
I2
tp819
a(S'p1_vo'
I9
tp820
a(S'w'
I1
tp821
a(S'p1_ll'
I0
tp822
a(S'w'
I13
tp823
a(S'p2_du'
I2
tp824
a(S'p2_vo'
I9
tp825
a(S'w'
I1
tp826
a(S'p2_ll'
I0
tp827
a(S'w'
I10
tp828
a(S'tr_lr'
I57
tp829
a(S'w'
I1
tp830
a(S'tr_ll'
I0
tp831
a(S'w'
I703
tp832
a(S'p1_vo'
I13
tp833
a(S'w'
I9
tp834
a(S'p2_vo'
I13
tp835
a(S'w'
I1
tp836
a(S'w'
I7
tp837
a(S'tr_lr'
I61
tp838
a(S'w'
I717
tp839
a(S'p1_du'
I1
tp840
a(S'p1_vo'
I15
tp841
a(S'w'
I9
tp842
a(S'p2_du'
I1
tp843
a(S'p2_vo'
I15
tp844
a(S'w'
I7
tp845
a(S'tr_lr'
I127
tp846
a(S'w'
I729
tp847
a(S'w'
I10
tp848
a(S'w'
I714
tp849
a(S'p1_vo'
I3
tp850
a(S'w'
I10
tp851
a(S'p2_vo'
I3
tp852
a(S'w'
I7
tp853
a(S'tr_lr'
I0
tp854
a(S'w'
I716
tp855
a(S'w'
I10
tp856
a(S'w'
I723
tp857
a(S'w'
I10
tp858
a(S'w'
I720
tp859
a(S'p1_du'
I2
tp860
a(S'p1_vo'
I9
tp861
a(S'w'
I1
tp862
a(S'p1_ll'
I0
tp863
a(S'w'
I13
tp864
a(S'p2_du'
I2
tp865
a(S'p2_vo'
I9
tp866
a(S'w'
I1
tp867
a(S'p2_ll'
I0
tp868
a(S'w'
I10
tp869
a(S'tr_lr'
I57
tp870
a(S'w'
I1
tp871
a(S'tr_ll'
I0
tp872
a(S'w'
I711
tp873
a(S'p1_vo'
I13
tp874
a(S'w'
I1
tp875
a(S'w'
I9
tp876
a(S'p2_vo'
I13
tp877
a(S'w'
I7
tp878
a(S'tr_lr'
I61
tp879
a(S'w'
I717
tp880
a(S'p1_du'
I1
tp881
a(S'p1_vo'
I15
tp882
a(S'w'
I10
tp883
a(S'p2_du'
I1
tp884
a(S'p2_vo'
I15
tp885
a(S'w'
I7
tp886
a(S'tr_lr'
I127
tp887
a(S'w'
I717
tp888
a(S'w'
I10
tp889
a(S'w'
I736
tp890
a(S'w'
I10
tp891
a(S'w'
I713
tp892
a(S'p1_vo'
I14
tp893
a(S'w'
I9
tp894
a(S'p2_vo'
I14
tp895
a(S'w'
I8
tp896
a(S'tr_lr'
I126
tp897
a(S'w'
I715
tp898
a(S'p1_vo'
I13
tp899
a(S'w'
I1
tp900
a(S'w'
I9
tp901
a(S'p2_vo'
I13
tp902
a(S'w'
I7
tp903
a(S'tr_lr'
I125
tp904
a(S'w'
I717
tp905
a(S'p1_vo'
I12
tp906
a(S'w'
I9
tp907
a(S'p2_vo'
I12
tp908
a(S'w'
I7
tp909
a(S'tr_lr'
I124
tp910
a(S'w'
I708
tp911
a(S'p1_vo'
I11
tp912
a(S'w'
I9
tp913
a(S'p2_vo'
I11
tp914
a(S'w'
I7
tp915
a(S'tr_lr'
I123
tp916
a(S'w'
I728
tp917
a(S'p1_vo'
I10
tp918
a(S'w'
I9
tp919
a(S'p2_vo'
I10
tp920
a(S'w'
I1
tp921
a(S'w'
I7
tp922
a(S'tr_lr'
I122
tp923
a(S'w'
I717
tp924
a(S'p1_vo'
I9
tp925
a(S'w'
I9
tp926
a(S'p2_vo'
I9
tp927
a(S'w'
I8
tp928
a(S'tr_lr'
I121
tp929
a(S'w'
I717
tp930
a(S'w'
I9
tp931
a(S'w'
I737
tp932
a(S'p1_vo'
I3
tp933
a(S'w'
I10
tp934
a(S'p2_vo'
I3
tp935
a(S'w'
I8
tp936
a(S'tr_lr'
I0
tp937
a(S'w'
I709
tp938
a(S'p1_du'
I2
tp939
a(S'p1_vo'
I9
tp940
a(S'p1_ll'
I0
tp941
a(S'w'
I14
tp942
a(S'p2_du'
I2
tp943
a(S'p2_vo'
I9
tp944
a(S'p2_tl'
I45
tp945
a(S'p2_ll'
I0
tp946
a(S'w'
I11
tp947
a(S'tr_lr'
I57
tp948
a(S'tr_tl'
I103
tp949
a(S'tr_ll'
I0
tp950
a(S'w'
I703
tp951
a(S'p1_vo'
I13
tp952
a(S'w'
I9
tp953
a(S'p2_vo'
I13
tp954
a(S'w'
I1
tp955
a(S'w'
I7
tp956
a(S'tr_lr'
I61
tp957
a(S'w'
I717
tp958
a(S'p1_du'
I1
tp959
a(S'p1_vo'
I15
tp960
a(S'w'
I9
tp961
a(S'p2_du'
I1
tp962
a(S'p2_vo'
I15
tp963
a(S'w'
I8
tp964
a(S'tr_lr'
I127
tp965
a(S'w'
I708
tp966
a(S'w'
I10
tp967
a(S'w'
I732
tp968
a(S'w'
I9
tp969
a(S'w'
I725
tp970
a(S'p1_vo'
I14
tp971
a(S'w'
I10
tp972
a(S'p2_vo'
I14
tp973
a(S'w'
I7
tp974
a(S'tr_lr'
I126
tp975
a(S'w'
I717
tp976
a(S'p1_vo'
I3
tp977
a(S'w'
I1
tp978
a(S'w'
I10
tp979
a(S'p2_vo'
I3
tp980
a(S'w'
I7
tp981
a(S'tr_lr'
I0
tp982
a(S'w'
I729
tp983
a(S'w'
I10
tp984
a(S'w'
I712
tp985
a(S'w'
I10
tp986
a(S'w'
I723
tp987
a(S'w'
I10
tp988
a(S'w'
I724
tp989
a(S'w'
I10
tp990
a(S'w'
I713
tp991
a(S'w'
I10
tp992
a(S'w'
I734
tp993
a(S'w'
I10
tp994
a(S'w'
I727
tp995
a(S'p1_du'
I2
tp996
a(S'p1_vo'
I9
tp997
a(S'w'
I1
tp998
a(S'p1_tl'
I178
tp999
a(S'p1_ll'
I0
tp1000
a(S'w'
I13
tp1001
a(S'p2_du'
I2
tp1002
a(S'p2_vo'
I9
tp1003
a(S'w'
I1
tp1004
a(S'p2_ll'
I0
tp1005
a(S'w'
I10
tp1006
a(S'tr_lr'
I57
tp1007
a(S'w'
I1
tp1008
a(S'tr_ll'
I0
tp1009
a(S'w'
I704
tp1010
a(S'p1_vo'
I13
tp1011
a(S'w'
I10
tp1012
a(S'p2_vo'
I13
tp1013
a(S'w'
I7
tp1014
a(S'tr_lr'
I61
tp1015
a(S'w'
I729
tp1016
a(S'p1_du'
I1
tp1017
a(S'p1_vo'
I15
tp1018
a(S'w'
I9
tp1019
a(S'p2_du'
I1
tp1020
a(S'p2_vo'
I15
tp1021
a(S'w'
I7
tp1022
a(S'tr_lr'
I127
tp1023
a(S'w'
I707
tp1024
a(S'w'
I10
tp1025
a(S'w'
I723
tp1026
a(S'w'
I9
tp1027
a(S'w'
I724
tp1028
a(S'p1_vo'
I14
tp1029
a(S'w'
I1
tp1030
a(S'w'
I9
tp1031
a(S'p2_vo'
I14
tp1032
a(S'w'
I7
tp1033
a(S'tr_lr'
I126
tp1034
a(S'w'
I710
tp1035
a(S'p1_vo'
I3
tp1036
a(S'w'
I10
tp1037
a(S'p2_vo'
I3
tp1038
a(S'w'
I7
tp1039
a(S'tr_lr'
I0
tp1040
a(S'w'
I725
tp1041
a(S'w'
I10
tp1042
a(S'w'
I724
tp1043
a(S'w'
I9
tp1044
a(S'w'
I724
tp1045
a(S'w'
I10
tp1046
a(S'w'
I736
tp1047
a(S'w'
I10
tp1048
a(S'w'
I713
tp1049
a(S'w'
I10
tp1050
a(S'w'
I723
tp1051
a(S'w'
I10
tp1052
a(S'w'
I723
tp1053
a(S'w'
I10
tp1054
a(S'w'
I717
tp1055
a(S'p1_du'
I2
tp1056
a(S'p1_vo'
I9
tp1057
a(S'p1_tl'
I150
tp1058
a(S'w'
I1
tp1059
a(S'p1_ll'
I0
tp1060
a(S'w'
I13
tp1061
a(S'p2_du'
I2
tp1062
a(S'p2_vo'
I9
tp1063
a(S'w'
I1
tp1064
a(S'p2_ll'
I0
tp1065
a(S'w'
I10
tp1066
a(S'tr_lr'
I57
tp1067
a(S'w'
I1
tp1068
a(S'tr_ll'
I0
tp1069
a(S'w'
I715
tp1070
a(S'p1_vo'
I13
tp1071
a(S'w'
I9
tp1072
a(S'p2_vo'
I13
tp1073
a(S'w'
I7
tp1074
a(S'tr_lr'
I61
tp1075
a(S'w'
I717
tp1076
a(S'p1_du'
I1
tp1077
a(S'p1_vo'
I15
tp1078
a(S'w'
I10
tp1079
a(S'p2_du'
I1
tp1080
a(S'p2_vo'
I15
tp1081
a(S'w'
I7
tp1082
a(S'tr_lr'
I127
tp1083
a(S'w'
I717
tp1084
a(S'w'
I10
tp1085
a(S'w'
I736
tp1086
a(S'w'
I10
tp1087
a(S'w'
I713
tp1088
a(S'p1_vo'
I3
tp1089
a(S'w'
I1
tp1090
a(S'w'
I9
tp1091
a(S'p2_vo'
I3
tp1092
a(S'w'
I1
tp1093
a(S'w'
I7
tp1094
a(S'tr_lr'
I0
tp1095
a(S'w'
I715
tp1096
a(S'w'
I10
tp1097
a(S'w'
I724
tp1098
a(S'w'
I10
tp1099
a(S'w'
I715
tp1100
a(S'w'
I10
tp1101
a(S'w'
I732
tp1102
a(S'w'
I10
tp1103
a(S'w'
I724
tp1104
a(S'w'
I10
tp1105
a(S'w'
I724
tp1106
a(S'w'
I10
tp1107
a(S'w'
I736
tp1108
a(S'w'
I10
tp1109
a(S'w'
I716
tp1110
a(S'p1_du'
I2
tp1111
a(S'p1_vo'
I9
tp1112
a(S'p1_tl'
I133
tp1113
a(S'w'
I1
tp1114
a(S'p1_ll'
I0
tp1115
a(S'w'
I13
tp1116
a(S'p2_du'
I2
tp1117
a(S'p2_vo'
I9
tp1118
a(S'p2_tl'
I225
tp1119
a(S'w'
I1
tp1120
a(S'p2_ll'
I0
tp1121
a(S'p2_th'
I0
tp1122
a(S'w'
I10
tp1123
a(S'tr_lr'
I57
tp1124
a(S'tr_tl'
I147
tp1125
a(S'w'
I1
tp1126
a(S'tr_ll'
I0
tp1127
a(S'w'
I703
tp1128
a(S'p1_vo'
I13
tp1129
a(S'w'
I9
tp1130
a(S'p2_vo'
I13
tp1131
a(S'w'
I1
tp1132
a(S'w'
I7
tp1133
a(S'tr_lr'
I61
tp1134
a(S'w'
I717
tp1135
a(S'p1_du'
I1
tp1136
a(S'p1_vo'
I15
tp1137
a(S'w'
I9
tp1138
a(S'p2_du'
I1
tp1139
a(S'p2_vo'
I15
tp1140
a(S'w'
I8
tp1141
a(S'tr_lr'
I127
tp1142
a(S'w'
I706
tp1143
a(S'w'
I10
tp1144
a(S'w'
I735
tp1145
a(S'w'
I9
tp1146
a(S'w'
I725
tp1147
a(S'p1_vo'
I3
tp1148
a(S'w'
I10
tp1149
a(S'p2_vo'
I3
tp1150
a(S'w'
I7
tp1151
a(S'tr_lr'
I0
tp1152
a(S'w'
I717
tp1153
a(S'w'
I10
tp1154
a(S'w'
I735
tp1155
a(S'w'
I10
tp1156
a(S'w'
I713
tp1157
a(S'w'
I10
tp1158
a(S'w'
I723
tp1159
a(S'w'
I10
tp1160
a(S'w'
I724
tp1161
a(S'w'
I10
tp1162
a(S'w'
I715
tp1163
a(S'w'
I10
tp1164
a(S'w'
I732
tp1165
a(S'w'
I10
tp1166
a(S'w'
I727
tp1167
a(S'p1_du'
I2
tp1168
a(S'p1_vo'
I9
tp1169
a(S'w'
I1
tp1170
a(S'p1_tl'
I150
tp1171
a(S'p1_ll'
I0
tp1172
a(S'w'
I13
tp1173
a(S'p2_du'
I2
tp1174
a(S'p2_vo'
I9
tp1175
a(S'w'
I1
tp1176
a(S'p2_ll'
I0
tp1177
a(S'w'
I11
tp1178
a(S'tr_lr'
I57
tp1179
a(S'tr_ll'
I0
tp1180
a(S'w'
I704
tp1181
a(S'p1_vo'
I13
tp1182
a(S'w'
I1
tp1183
a(S'w'
I9
tp1184
a(S'p2_vo'
I13
tp1185
a(S'w'
I7
tp1186
a(S'tr_lr'
I61
tp1187
a(S'w'
I729
tp1188
a(S'p1_du'
I1
tp1189
a(S'p1_vo'
I15
tp1190
a(S'w'
I1
tp1191
a(S'w'
I9
tp1192
a(S'p2_du'
I1
tp1193
a(S'p2_vo'
I15
tp1194
a(S'w'
I7
tp1195
a(S'tr_lr'
I127
tp1196
a(S'w'
I706
tp1197
a(S'w'
I10
tp1198
a(S'w'
I723
tp1199
a(S'w'
I9
tp1200
a(S'w'
I724
tp1201
a(S'p1_vo'
I14
tp1202
a(S'w'
I9
tp1203
a(S'p2_vo'
I14
tp1204
a(S'w'
I7
tp1205
a(S'tr_lr'
I126
tp1206
a(S'w'
I708
tp1207
a(S'p1_vo'
I3
tp1208
a(S'w'
I1
tp1209
a(S'w'
I9
tp1210
a(S'p2_vo'
I3
tp1211
a(S'w'
I1
tp1212
a(S'w'
I7
tp1213
a(S'tr_lr'
I0
tp1214
a(S'w'
I727
tp1215
a(S'w'
I10
tp1216
a(S'w'
I724
tp1217
a(S'w'
I10
tp1218
a(S'w'
I723
tp1219
a(S'w'
I10
tp1220
a(S'w'
I737
tp1221
a(S'w'
I9
tp1222
a(S'w'
I713
tp1223
a(S'w'
I10
tp1224
a(S'w'
I723
tp1225
a(S'w'
I10
tp1226
a(S'w'
I727
tp1227
a(S'p1_du'
I2
tp1228
a(S'p1_vo'
I9
tp1229
a(S'p1_tl'
I133
tp1230
a(S'w'
I1
tp1231
a(S'p1_ll'
I0
tp1232
a(S'w'
I13
tp1233
a(S'p2_du'
I2
tp1234
a(S'p2_vo'
I9
tp1235
a(S'w'
I1
tp1236
a(S'p2_ll'
I0
tp1237
a(S'w'
I10
tp1238
a(S'tr_lr'
I57
tp1239
a(S'w'
I1
tp1240
a(S'tr_ll'
I0
tp1241
a(S'w'
I696
tp1242
a(S'p1_vo'
I13
tp1243
a(S'w'
I9
tp1244
a(S'p2_vo'
I13
tp1245
a(S'w'
I7
tp1246
a(S'tr_lr'
I61
tp1247
a(S'w'
I725
tp1248
a(S'p1_du'
I1
tp1249
a(S'p1_vo'
I15
tp1250
a(S'w'
I9
tp1251
a(S'p2_du'
I1
tp1252
a(S'p2_vo'
I15
tp1253
a(S'w'
I7
tp1254
a(S'tr_lr'
I127
tp1255
a(S'w'
I719
tp1256
a(S'w'
I9
tp1257
a(S'w'
I724
tp1258
a(S'w'
I10
tp1259
a(S'w'
I736
tp1260
a(S'p1_vo'
I14
tp1261
a(S'w'
I10
tp1262
a(S'p2_vo'
I14
tp1263
a(S'w'
I7
tp1264
a(S'tr_lr'
I126
tp1265
a(S'w'
I706
tp1266
a(S'p1_vo'
I3
tp1267
a(S'w'
I1
tp1268
a(S'w'
I9
tp1269
a(S'p2_vo'
I3
tp1270
a(S'w'
I1
tp1271
a(S'w'
I7
tp1272
a(S'tr_lr'
I0
tp1273
a(S'w'
I715
tp1274
a(S'w'
I10
tp1275
a(S'w'
I724
tp1276
a(S'w'
I10
tp1277
a(S'w'
I713
tp1278
a(S'w'
I10
tp1279
a(S'w'
I735
tp1280
a(S'w'
I10
tp1281
a(S'w'
I723
tp1282
a(S'w'
I10
tp1283
a(S'w'
I724
tp1284
a(S'w'
I10
tp1285
a(S'w'
I736
tp1286
a(S'w'
I10
tp1287
a(S'w'
I716
tp1288
a(S'p1_du'
I2
tp1289
a(S'p1_vo'
I9
tp1290
a(S'p1_tl'
I112
tp1291
a(S'w'
I1
tp1292
a(S'p1_ll'
I0
tp1293
a(S'w'
I13
tp1294
a(S'p2_du'
I2
tp1295
a(S'p2_vo'
I9
tp1296
a(S'p2_tl'
I168
tp1297
a(S'w'
I1
tp1298
a(S'p2_ll'
I0
tp1299
a(S'w'
I10
tp1300
a(S'tr_lr'
I57
tp1301
a(S'w'
I1
tp1302
a(S'tr_ll'
I0
tp1303
a(S'w'
I703
tp1304
a(S'p1_vo'
I13
tp1305
a(S'w'
I10
tp1306
a(S'p2_vo'
I13
tp1307
a(S'w'
I7
tp1308
a(S'tr_lr'
I61
tp1309
a(S'w'
I717
tp1310
a(S'p1_du'
I1
tp1311
a(S'p1_vo'
I15
tp1312
a(S'w'
I9
tp1313
a(S'p2_du'
I1
tp1314
a(S'p2_vo'
I15
tp1315
a(S'w'
I1
tp1316
a(S'w'
I7
tp1317
a(S'tr_lr'
I127
tp1318
a(S'w'
I708
tp1319
a(S'w'
I10
tp1320
a(S'w'
I733
tp1321
a(S'w'
I9
tp1322
a(S'w'
I725
tp1323
a(S'p1_vo'
I3
tp1324
a(S'w'
I10
tp1325
a(S'p2_vo'
I3
tp1326
a(S'w'
I7
tp1327
a(S'tr_lr'
I0
tp1328
a(S'w'
I717
tp1329
a(S'w'
I10
tp1330
a(S'w'
I736
tp1331
a(S'w'
I10
tp1332
a(S'w'
I712
tp1333
a(S'w'
I10
tp1334
a(S'w'
I723
tp1335
a(S'w'
I10
tp1336
a(S'w'
I724
tp1337
a(S'w'
I9
tp1338
a(S'w'
I714
tp1339
a(S'w'
I10
tp1340
a(S'w'
I734
tp1341
a(S'w'
I10
tp1342
a(S'w'
I727
tp1343
a(S'p1_du'
I2
tp1344
a(S'p1_vo'
I9
tp1345
a(S'w'
I1
tp1346
a(S'p1_tl'
I133
tp1347
a(S'p1_ll'
I0
tp1348
a(S'w'
I13
tp1349
a(S'p2_du'
I2
tp1350
a(S'p2_vo'
I9
tp1351
a(S'w'
I1
tp1352
a(S'p2_ll'
I0
tp1353
a(S'w'
I11
tp1354
a(S'tr_lr'
I57
tp1355
a(S'tr_ll'
I0
tp1356
a(S'w'
I704
tp1357
a(S'p1_vo'
I13
tp1358
a(S'w'
I1
tp1359
a(S'w'
I9
tp1360
a(S'p2_vo'
I13
tp1361
a(S'w'
I7
tp1362
a(S'tr_lr'
I61
tp1363
a(S'w'
I729
tp1364
a(S'p1_du'
I1
tp1365
a(S'p1_vo'
I15
tp1366
a(S'w'
I1
tp1367
a(S'w'
I9
tp1368
a(S'p2_du'
I1
tp1369
a(S'p2_vo'
I15
tp1370
a(S'w'
I7
tp1371
a(S'tr_lr'
I127
tp1372
a(S'w'
I706
tp1373
a(S'w'
I10
tp1374
a(S'w'
I723
tp1375
a(S'w'
I10
tp1376
a(S'w'
I724
tp1377
a(S'p1_vo'
I3
tp1378
a(S'w'
I10
tp1379
a(S'p2_vo'
I3
tp1380
a(S'w'
I1
tp1381
a(S'w'
I7
tp1382
a(S'tr_lr'
I0
tp1383
a(S'w'
I708
tp1384
a(S'w'
I10
tp1385
a(S'w'
I731
tp1386
a(S'w'
I10
tp1387
a(S'w'
I725
tp1388
a(S'w'
I10
tp1389
a(S'w'
I723
tp1390
a(S'w'
I10
tp1391
a(S'w'
I737
tp1392
a(S'w'
I10
tp1393
a(S'w'
I712
tp1394
a(S'w'
I10
tp1395
a(S'w'
I723
tp1396
a(S'w'
I10
tp1397
a(S'w'
I727
tp1398
a(S'p1_du'
I2
tp1399
a(S'p1_vo'
I9
tp1400
a(S'p1_tl'
I112
tp1401
a(S'w'
I1
tp1402
a(S'p1_ll'
I0
tp1403
a(S'w'
I13
tp1404
a(S'p2_du'
I2
tp1405
a(S'p2_vo'
I9
tp1406
a(S'w'
I1
tp1407
a(S'p2_ll'
I0
tp1408
a(S'w'
I10
tp1409
a(S'tr_lr'
I57
tp1410
a(S'w'
I1
tp1411
a(S'tr_ll'
I0
tp1412
a(S'w'
I693
tp1413
a(S'p1_vo'
I13
tp1414
a(S'w'
I10
tp1415
a(S'p2_vo'
I13
tp1416
a(S'w'
I7
tp1417
a(S'tr_lr'
I61
tp1418
a(S'w'
I728
tp1419
a(S'p1_du'
I1
tp1420
a(S'p1_vo'
I15
tp1421
a(S'w'
I9
tp1422
a(S'p2_du'
I1
tp1423
a(S'p2_vo'
I15
tp1424
a(S'w'
I8
tp1425
a(S'tr_lr'
I127
tp1426
a(S'w'
I717
tp1427
a(S'w'
I9
tp1428
a(S'w'
I724
tp1429
a(S'w'
I10
tp1430
a(S'w'
I736
tp1431
a(S'p1_vo'
I14
tp1432
a(S'w'
I9
tp1433
a(S'p2_vo'
I14
tp1434
a(S'w'
I7
tp1435
a(S'tr_lr'
I126
tp1436
a(S'w'
I707
tp1437
a(S'p1_vo'
I3
tp1438
a(S'w'
I1
tp1439
a(S'w'
I10
tp1440
a(S'p2_vo'
I3
tp1441
a(S'w'
I7
tp1442
a(S'tr_lr'
I0
tp1443
a(S'w'
I715
tp1444
a(S'w'
I10
tp1445
a(S'w'
I724
tp1446
a(S'w'
I10
tp1447
a(S'w'
I716
tp1448
a(S'w'
I10
tp1449
a(S'w'
I732
tp1450
a(S'w'
I10
tp1451
a(S'w'
I724
tp1452
a(S'w'
I10
tp1453
a(S'w'
I723
tp1454
a(S'w'
I10
tp1455
a(S'w'
I741
tp1456
a(S'p1_du'
I2
tp1457
a(S'p1_vo'
I9
tp1458
a(S'p1_tl'
I88
tp1459
a(S'p1_ll'
I0
tp1460
a(S'w'
I14
tp1461
a(S'p2_du'
I2
tp1462
a(S'p2_vo'
I9
tp1463
a(S'p2_tl'
I150
tp1464
a(S'p2_ll'
I0
tp1465
a(S'w'
I11
tp1466
a(S'tr_lr'
I57
tp1467
a(S'tr_tl'
I196
tp1468
a(S'tr_ll'
I0
tp1469
a(S'w'
I692
tp1470
a(S'p1_vo'
I13
tp1471
a(S'w'
I10
tp1472
a(S'p2_vo'
I13
tp1473
a(S'w'
I7
tp1474
a(S'tr_lr'
I61
tp1475
a(S'w'
I716
tp1476
a(S'p1_du'
I1
tp1477
a(S'p1_vo'
I15
tp1478
a(S'w'
I10
tp1479
a(S'p2_du'
I1
tp1480
a(S'p2_vo'
I15
tp1481
a(S'w'
I7
tp1482
a(S'tr_lr'
I127
tp1483
a(S'w'
I717
tp1484
a(S'w'
I9
tp1485
a(S'w'
I714
tp1486
a(S'w'
I10
tp1487
a(S'w'
I734
tp1488
a(S'p1_vo'
I14
tp1489
a(S'w'
I1
tp1490
a(S'w'
I9
tp1491
a(S'p2_vo'
I14
tp1492
a(S'w'
I7
tp1493
a(S'tr_lr'
I126
tp1494
a(S'w'
I717
tp1495
a(S'p1_vo'
I13
tp1496
a(S'w'
I10
tp1497
a(S'p2_vo'
I13
tp1498
a(S'w'
I7
tp1499
a(S'tr_lr'
I125
tp1500
a(S'w'
I718
tp1501
a(S'p1_vo'
I3
tp1502
a(S'w'
I10
tp1503
a(S'p2_vo'
I3
tp1504
a(S'w'
I7
tp1505
a(S'tr_lr'
I0
tp1506
a(S'w'
I729
tp1507
a(S'w'
I10
tp1508
a(S'w'
I712
tp1509
a(S'w'
I10
tp1510
a(S'w'
I723
tp1511
a(S'w'
I10
tp1512
a(S'w'
I724
tp1513
a(S'w'
I10
tp1514
a(S'w'
I715
tp1515
a(S'w'
I10
tp1516
a(S'w'
I732
tp1517
a(S'w'
I10
tp1518
a(S'w'
I724
tp1519
a(S'w'
I10
tp1520
a(S'w'
I724
tp1521
a(S'w'
I10
tp1522
a(S'w'
I736
tp1523
a(S'w'
I10
tp1524
a(S'w'
I713
tp1525
a(S'w'
I10
tp1526
a(S'w'
I722
tp1527
a(S'w'
I10
tp1528
a(S'w'
I724
tp1529
a(S'w'
I10
tp1530
a(S'w'
I718
tp1531
a(S'p1_du'
I2
tp1532
a(S'p1_vo'
I9
tp1533
a(S'w'
I1
tp1534
a(S'p1_ll'
I0
tp1535
a(S'w'
I13
tp1536
a(S'p2_du'
I2
tp1537
a(S'p2_vo'
I9
tp1538
a(S'w'
I1
tp1539
a(S'p2_ll'
I0
tp1540
a(S'w'
I10
tp1541
a(S'tr_lr'
I57
tp1542
a(S'w'
I1
tp1543
a(S'tr_ll'
I0
tp1544
a(S'w'
I713
tp1545
a(S'p1_vo'
I13
tp1546
a(S'w'
I10
tp1547
a(S'p2_vo'
I13
tp1548
a(S'w'
I7
tp1549
a(S'tr_lr'
I61
tp1550
a(S'w'
I717
tp1551
a(S'p1_du'
I1
tp1552
a(S'p1_vo'
I15
tp1553
a(S'w'
I10
tp1554
a(S'p2_du'
I1
tp1555
a(S'p2_vo'
I15
tp1556
a(S'w'
I7
tp1557
a(S'tr_lr'
I127
tp1558
a(S'w'
I717
tp1559
a(S'p1_vo'
I3
tp1560
a(S'w'
I1
tp1561
a(S'w'
I10
tp1562
a(S'p2_vo'
I3
tp1563
a(S'w'
I7
tp1564
a(S'tr_lr'
I0
tp1565
a(S'w'
I728
tp1566
a(S'w'
I10
tp1567
a(S'w'
I713
tp1568
a(S'w'
I10
tp1569
a(S'w'
I723
tp1570
a(S'w'
I10
tp1571
a(S'w'
I728
tp1572
a(S'p1_du'
I2
tp1573
a(S'p1_vo'
I9
tp1574
a(S'w'
I1
tp1575
a(S'p1_ll'
I0
tp1576
a(S'w'
I13
tp1577
a(S'p2_du'
I2
tp1578
a(S'p2_vo'
I9
tp1579
a(S'w'
I1
tp1580
a(S'p2_ll'
I0
tp1581
a(S'w'
I10
tp1582
a(S'tr_lr'
I57
tp1583
a(S'w'
I1
tp1584
a(S'tr_ll'
I0
tp1585
a(S'w'
I695
tp1586
a(S'p1_vo'
I13
tp1587
a(S'w'
I9
tp1588
a(S'p2_vo'
I13
tp1589
a(S'w'
I8
tp1590
a(S'tr_lr'
I61
tp1591
a(S'w'
I725
tp1592
a(S'p1_du'
I1
tp1593
a(S'p1_vo'
I15
tp1594
a(S'w'
I9
tp1595
a(S'p2_du'
I1
tp1596
a(S'p2_vo'
I15
tp1597
a(S'w'
I8
tp1598
a(S'tr_lr'
I127
tp1599
a(S'w'
I717
tp1600
a(S'w'
I9
tp1601
a(S'w'
I724
tp1602
a(S'w'
I10
tp1603
a(S'w'
I736
tp1604
a(S'p1_vo'
I14
tp1605
a(S'w'
I1
tp1606
a(S'w'
I9
tp1607
a(S'p2_vo'
I14
tp1608
a(S'w'
I7
tp1609
a(S'tr_lr'
I126
tp1610
a(S'w'
I706
tp1611
a(S'p1_vo'
I13
tp1612
a(S'w'
I10
tp1613
a(S'p2_vo'
I13
tp1614
a(S'w'
I7
tp1615
a(S'tr_lr'
I125
tp1616
a(S'w'
I716
tp1617
a(S'p1_vo'
I12
tp1618
a(S'w'
I9
tp1619
a(S'p2_vo'
I12
tp1620
a(S'w'
I8
tp1621
a(S'tr_lr'
I124
tp1622
a(S'w'
I716
tp1623
a(S'p1_vo'
I11
tp1624
a(S'w'
I9
tp1625
a(S'p2_vo'
I11
tp1626
a(S'w'
I7
tp1627
a(S'tr_lr'
I123
tp1628
a(S'w'
I708
tp1629
a(S'p1_vo'
I10
tp1630
a(S'w'
I9
tp1631
a(S'p2_vo'
I10
tp1632
a(S'w'
I8
tp1633
a(S'tr_lr'
I122
tp1634
a(S'w'
I727
tp1635
a(S'p1_vo'
I9
tp1636
a(S'w'
I10
tp1637
a(S'p2_vo'
I9
tp1638
a(S'w'
I7
tp1639
a(S'tr_lr'
I121
tp1640
a(S'w'
I717
tp1641
a(S'w'
I10
tp1642
a(S'w'
I724
tp1643
a(S'w'
I9
tp1644
a(S'w'
I737
tp1645
a(S'w'
I10
tp1646
a(S'w'
I712
tp1647
a(S'p1_vo'
I10
tp1648
a(S'w'
I1
tp1649
a(S'w'
I9
tp1650
a(S'p2_vo'
I10
tp1651
a(S'w'
I7
tp1652
a(S'tr_lr'
I122
tp1653
a(S'w'
I716
tp1654
a(S'w'
I10
tp1655
a(S'w'
I724
tp1656
a(S'w'
I10
tp1657
a(S'w'
I716
tp1658
a(S'w'
I9
tp1659
a(S'w'
I732
tp1660
a(S'p1_vo'
I11
tp1661
a(S'w'
I9
tp1662
a(S'p2_vo'
I11
tp1663
a(S'w'
I7
tp1664
a(S'tr_lr'
I123
tp1665
a(S'w'
I718
tp1666
a(S'w'
I10
tp1667
a(S'w'
I724
tp1668
a(S'w'
I10
tp1669
a(S'w'
I736
tp1670
a(S'w'
I10
tp1671
a(S'w'
I713
tp1672
a(S'p1_vo'
I12
tp1673
a(S'w'
I9
tp1674
a(S'p2_vo'
I12
tp1675
a(S'w'
I1
tp1676
a(S'w'
I7
tp1677
a(S'tr_lr'
I124
tp1678
a(S'w'
I716
tp1679
a(S'w'
I9
tp1680
a(S'w'
I725
tp1681
a(S'w'
I9
tp1682
a(S'w'
I714
tp1683
a(S'w'
I9
tp1684
a(S'w'
I735
tp1685
a(S'p1_vo'
I13
tp1686
a(S'w'
I10
tp1687
a(S'p2_vo'
I13
tp1688
a(S'w'
I7
tp1689
a(S'tr_lr'
I125
tp1690
a(S'w'
I717
tp1691
a(S'w'
I10
tp1692
a(S'w'
I724
tp1693
a(S'w'
I9
tp1694
a(S'w'
I736
tp1695
a(S'w'
I9
tp1696
a(S'w'
I714
tp1697
a(S'p1_vo'
I14
tp1698
a(S'w'
I10
tp1699
a(S'p2_vo'
I14
tp1700
a(S'w'
I7
tp1701
a(S'tr_lr'
I126
tp1702
a(S'w'
I716
tp1703
a(S'w'
I10
tp1704
a(S'w'
I724
tp1705
a(S'w'
I10
tp1706
a(S'w'
I715
tp1707
a(S'w'
I10
tp1708
a(S'w'
I732
tp1709
a(S'p1_vo'
I15
tp1710
a(S'w'
I1
tp1711
a(S'w'
I9
tp1712
a(S'p2_vo'
I15
tp1713
a(S'w'
I7
tp1714
a(S'tr_lr'
I127
tp1715
a(S'w'
I717
tp1716
a(S'w'
I10
tp1717
a(S'w'
I724
tp1718
a(S'w'
I10
tp1719
a(S'w'
I736
tp1720
a(S'w'
I10
tp1721
a(S'w'
I713
tp1722
a(S'w'
I9
tp1723
a(S'w'
I723
tp1724
a(S'p1_vo'
I14
tp1725
a(S'w'
I1
tp1726
a(S'w'
I9
tp1727
a(S'p2_vo'
I14
tp1728
a(S'w'
I7
tp1729
a(S'tr_lr'
I126
tp1730
a(S'w'
I717
tp1731
a(S'p1_vo'
I13
tp1732
a(S'w'
I9
tp1733
a(S'p2_vo'
I13
tp1734
a(S'w'
I7
tp1735
a(S'tr_lr'
I125
tp1736
a(S'w'
I707
tp1737
a(S'p1_vo'
I12
tp1738
a(S'w'
I1
tp1739
a(S'w'
I9
tp1740
a(S'p2_vo'
I12
tp1741
a(S'w'
I7
tp1742
a(S'tr_lr'
I124
tp1743
a(S'w'
I728
tp1744
a(S'p1_vo'
I13
tp1745
a(S'w'
I9
tp1746
a(S'p2_vo'
I13
tp1747
a(S'w'
I1
tp1748
a(S'w'
I7
tp1749
a(S'tr_lr'
I125
tp1750
a(S'w'
I717
tp1751
a(S'p1_vo'
I14
tp1752
a(S'w'
I9
tp1753
a(S'p2_vo'
I14
tp1754
a(S'w'
I8
tp1755
a(S'tr_lr'
I126
tp1756
a(S'w'
I716
tp1757
a(S'p1_vo'
I15
tp1758
a(S'w'
I1
tp1759
a(S'w'
I9
tp1760
a(S'p2_vo'
I15
tp1761
a(S'w'
I7
tp1762
a(S'tr_lr'
I127
tp1763
a(S'w'
I730
tp1764
a(S'p1_vo'
I14
tp1765
a(S'w'
I10
tp1766
a(S'p2_vo'
I14
tp1767
a(S'w'
I8
tp1768
a(S'tr_lr'
I126
tp1769
a(S'w'
I704
tp1770
a(S'p1_vo'
I13
tp1771
a(S'w'
I10
tp1772
a(S'p2_vo'
I13
tp1773
a(S'w'
I7
tp1774
a(S'tr_lr'
I125
tp1775
a(S'w'
I716
tp1776
a(S'p1_vo'
I12
tp1777
a(S'w'
I9
tp1778
a(S'p2_vo'
I12
tp1779
a(S'w'
I1
tp1780
a(S'w'
I7
tp1781
a(S'tr_lr'
I124
tp1782
a(S'w'
I717
tp1783
a(S'p1_vo'
I13
tp1784
a(S'w'
I9
tp1785
a(S'p2_vo'
I13
tp1786
a(S'w'
I8
tp1787
a(S'tr_lr'
I125
tp1788
a(S'w'
I708
tp1789
a(S'p1_vo'
I14
tp1790
a(S'w'
I10
tp1791
a(S'p2_vo'
I14
tp1792
a(S'w'
I7
tp1793
a(S'tr_lr'
I126
tp1794
a(S'w'
I725
tp1795
a(S'p1_vo'
I15
tp1796
a(S'w'
I9
tp1797
a(S'p2_vo'
I15
tp1798
a(S'w'
I7
tp1799
a(S'tr_lr'
I127
tp1800
a(S'w'
I719
tp1801
a(S'p1_vo'
I14
tp1802
a(S'w'
I10
tp1803
a(S'p2_vo'
I14
tp1804
a(S'w'
I7
tp1805
a(S'tr_lr'
I126
tp1806
a(S'w'
I716
tp1807
a(S'p1_vo'
I13
tp1808
a(S'w'
I9
tp1809
a(S'p2_vo'
I13
tp1810
a(S'w'
I1
tp1811
a(S'w'
I7
tp1812
a(S'tr_lr'
I125
tp1813
a(S'w'
I729
tp1814
a(S'p1_vo'
I12
tp1815
a(S'w'
I9
tp1816
a(S'p2_vo'
I12
tp1817
a(S'w'
I1
tp1818
a(S'w'
I7
tp1819
a(S'tr_lr'
I124
tp1820
a(S'w'
I705
tp1821
a(S'p1_vo'
I13
tp1822
a(S'w'
I1
tp1823
a(S'w'
I9
tp1824
a(S'p2_vo'
I13
tp1825
a(S'w'
I7
tp1826
a(S'tr_lr'
I125
tp1827
a(S'w'
I716
tp1828
a(S'p1_vo'
I14
tp1829
a(S'w'
I10
tp1830
a(S'p2_vo'
I14
tp1831
a(S'w'
I7
tp1832
a(S'tr_lr'
I126
tp1833
a(S'w'
I717
tp1834
a(S'p1_vo'
I15
tp1835
a(S'w'
I10
tp1836
a(S'p2_vo'
I15
tp1837
a(S'w'
I7
tp1838
a(S'tr_lr'
I127
tp1839
a(S'w'
I707
tp1840
a(S'p1_vo'
I14
tp1841
a(S'w'
I10
tp1842
a(S'p2_vo'
I14
tp1843
a(S'w'
I7
tp1844
a(S'tr_lr'
I126
tp1845
a(S'w'
I727
tp1846
a(S'p1_vo'
I13
tp1847
a(S'w'
I9
tp1848
a(S'p2_vo'
I13
tp1849
a(S'w'
I8
tp1850
a(S'tr_lr'
I125
tp1851
a(S'w'
I716
tp1852
a(S'p1_vo'
I12
tp1853
a(S'w'
I1
tp1854
a(S'w'
I9
tp1855
a(S'p2_vo'
I12
tp1856
a(S'w'
I7
tp1857
a(S'tr_lr'
I124
tp1858
a(S'w'
I717
tp1859
a(S'p1_vo'
I13
tp1860
a(S'w'
I10
tp1861
a(S'p2_vo'
I13
tp1862
a(S'w'
I7
tp1863
a(S'tr_lr'
I125
tp1864
a(S'w'
I729
tp1865
a(S'p1_vo'
I14
tp1866
a(S'w'
I9
tp1867
a(S'p2_vo'
I14
tp1868
a(S'w'
I7
tp1869
a(S'tr_lr'
I126
tp1870
a(S'w'
I707
tp1871
a(S'p1_vo'
I15
tp1872
a(S'w'
I9
tp1873
a(S'p2_vo'
I15
tp1874
a(S'w'
I1
tp1875
a(S'w'
I7
tp1876
a(S'tr_lr'
I127
tp1877
a(S'w'
I716
tp1878
a(S'p1_vo'
I14
tp1879
a(S'w'
I10
tp1880
a(S'p2_vo'
I14
tp1881
a(S'w'
I1
tp1882
a(S'w'
I7
tp1883
a(S'tr_lr'
I126
tp1884
a(S'w'
I715
tp1885
a(S'p1_vo'
I13
tp1886
a(S'w'
I1
tp1887
a(S'w'
I9
tp1888
a(S'p2_vo'
I13
tp1889
a(S'w'
I7
tp1890
a(S'tr_lr'
I125
tp1891
a(S'w'
I709
tp1892
a(S'p1_vo'
I12
tp1893
a(S'w'
I9
tp1894
a(S'p2_vo'
I12
tp1895
a(S'w'
I1
tp1896
a(S'w'
I7
tp1897
a(S'tr_lr'
I124
tp1898
a(S'w'
I725
tp1899
a(S'p1_vo'
I13
tp1900
a(S'w'
I10
tp1901
a(S'p2_vo'
I13
tp1902
a(S'w'
I7
tp1903
a(S'tr_lr'
I125
tp1904
a(S'w'
I717
tp1905
a(S'p1_vo'
I14
tp1906
a(S'w'
I9
tp1907
a(S'p2_vo'
I14
tp1908
a(S'w'
I1
tp1909
a(S'w'
I7
tp1910
a(S'tr_lr'
I126
tp1911
a(S'w'
I717
tp1912
a(S'p1_vo'
I15
tp1913
a(S'w'
I9
tp1914
a(S'p2_vo'
I15
tp1915
a(S'w'
I8
tp1916
a(S'tr_lr'
I127
tp1917
a(S'w'
I729
tp1918
a(S'p1_vo'
I14
tp1919
a(S'w'
I1
tp1920
a(S'w'
I9
tp1921
a(S'p2_vo'
I14
tp1922
a(S'w'
I1
tp1923
a(S'w'
I7
tp1924
a(S'tr_lr'
I126
tp1925
a(S'w'
I704
tp1926
a(S'p1_vo'
I13
tp1927
a(S'w'
I10
tp1928
a(S'p2_vo'
I13
tp1929
a(S'w'
I7
tp1930
a(S'tr_lr'
I125
tp1931
a(S'w'
I716
tp1932
a(S'p1_vo'
I12
tp1933
a(S'w'
I10
tp1934
a(S'p2_vo'
I12
tp1935
a(S'w'
I7
tp1936
a(S'tr_lr'
I124
tp1937
a(S'w'
I716
tp1938
a(S'p1_vo'
I13
tp1939
a(S'w'
I1
tp1940
a(S'w'
I8
tp1941
a(S'p2_vo'
I13
tp1942
a(S'w'
I1
tp1943
a(S'w'
I6
tp1944
a(S'tr_lr'
I125
tp1945
a(S'w'
I708
tp1946
a(S'p1_vo'
I14
tp1947
a(S'w'
I10
tp1948
a(S'p2_vo'
I14
tp1949
a(S'w'
I7
tp1950
a(S'tr_lr'
I126
tp1951
a(S'w'
I727
tp1952
a(S'p1_vo'
I15
tp1953
a(S'w'
I1
tp1954
a(S'w'
I9
tp1955
a(S'p2_vo'
I15
tp1956
a(S'w'
I7
tp1957
a(S'tr_lr'
I127
tp1958
a(S'w'
I718
tp1959
a(S'p1_vo'
I14
tp1960
a(S'w'
I10
tp1961
a(S'p2_vo'
I14
tp1962
a(S'w'
I7
tp1963
a(S'tr_lr'
I126
tp1964
a(S'w'
I716
tp1965
a(S'p1_vo'
I13
tp1966
a(S'w'
I10
tp1967
a(S'p2_vo'
I13
tp1968
a(S'w'
I7
tp1969
a(S'tr_lr'
I125
tp1970
a(S'w'
I729
tp1971
a(S'p1_vo'
I12
tp1972
a(S'w'
I10
tp1973
a(S'p2_vo'
I12
tp1974
a(S'w'
I7
tp1975
a(S'tr_lr'
I124
tp1976
a(S'w'
I706
tp1977
a(S'p1_vo'
I13
tp1978
a(S'w'
I9
tp1979
a(S'p2_vo'
I13
tp1980
a(S'w'
I8
tp1981
a(S'tr_lr'
I125
tp1982
a(S'w'
I715
tp1983
a(S'p1_vo'
I14
tp1984
a(S'w'
I1
tp1985
a(S'w'
I9
tp1986
a(S'p2_vo'
I14
tp1987
a(S'w'
I7
tp1988
a(S'tr_lr'
I126
tp1989
a(S'w'
I717
tp1990
a(S'p1_vo'
I15
tp1991
a(S'w'
I10
tp1992
a(S'p2_vo'
I15
tp1993
a(S'w'
I7
tp1994
a(S'tr_lr'
I127
tp1995
a(S'w'
I709
tp1996
a(S'p1_vo'
I14
tp1997
a(S'w'
I1
tp1998
a(S'w'
I9
tp1999
a(S'p2_vo'
I14
tp2000
a(S'w'
I1
tp2001
a(S'w'
I7
tp2002
a(S'tr_lr'
I126
tp2003
a(S'w'
I723
tp2004
a(S'p1_vo'
I13
tp2005
a(S'w'
I1
tp2006
a(S'w'
I9
tp2007
a(S'p2_vo'
I13
tp2008
a(S'w'
I6
tp2009
a(S'tr_lr'
I125
tp2010
a(S'w'
I719
tp2011
a(S'p1_vo'
I12
tp2012
a(S'w'
I9
tp2013
a(S'p2_vo'
I12
tp2014
a(S'w'
I8
tp2015
a(S'tr_lr'
I124
tp2016
a(S'w'
I716
tp2017
a(S'p1_vo'
I13
tp2018
a(S'w'
I1
tp2019
a(S'w'
I9
tp2020
a(S'p2_vo'
I13
tp2021
a(S'w'
I7
tp2022
a(S'tr_lr'
I125
tp2023
a(S'w'
I729
tp2024
a(S'p1_vo'
I14
tp2025
a(S'w'
I1
tp2026
a(S'w'
I9
tp2027
a(S'p2_vo'
I14
tp2028
a(S'w'
I7
tp2029
a(S'tr_lr'
I126
tp2030
a(S'w'
I706
tp2031
a(S'p1_vo'
I15
tp2032
a(S'w'
I10
tp2033
a(S'p2_vo'
I15
tp2034
a(S'w'
I7
tp2035
a(S'tr_lr'
I127
tp2036
a(S'w'
I716
tp2037
a(S'p1_vo'
I14
tp2038
a(S'w'
I1
tp2039
a(S'w'
I10
tp2040
a(S'p2_vo'
I14
tp2041
a(S'w'
I7
tp2042
a(S'tr_lr'
I126
tp2043
a(S'w'
I716
tp2044
a(S'p1_vo'
I13
tp2045
a(S'w'
I9
tp2046
a(S'p2_vo'
I13
tp2047
a(S'w'
I8
tp2048
a(S'tr_lr'
I125
tp2049
a(S'w'
I706
tp2050
a(S'p1_vo'
I12
tp2051
a(S'w'
I9
tp2052
a(S'p2_vo'
I12
tp2053
a(S'w'
I1
tp2054
a(S'w'
I7
tp2055
a(S'tr_lr'
I124
tp2056
a(S'w'
I727
tp2057
a(S'p1_vo'
I13
tp2058
a(S'w'
I10
tp2059
a(S'p2_vo'
I13
tp2060
a(S'w'
I7
tp2061
a(S'tr_lr'
I125
tp2062
a(S'w'
I717
tp2063
a(S'p1_vo'
I14
tp2064
a(S'w'
I10
tp2065
a(S'p2_vo'
I14
tp2066
a(S'w'
I7
tp2067
a(S'tr_lr'
I126
tp2068
a(S'w'
I717
tp2069
a(S'p1_vo'
I15
tp2070
a(S'w'
I9
tp2071
a(S'p2_vo'
I15
tp2072
a(S'w'
I1
tp2073
a(S'w'
I7
tp2074
a(S'tr_lr'
I127
tp2075
a(S'w'
I729
tp2076
a(S'p1_vo'
I14
tp2077
a(S'w'
I10
tp2078
a(S'p2_vo'
I14
tp2079
a(S'w'
I7
tp2080
a(S'tr_lr'
I126
tp2081
a(S'w'
I705
tp2082
a(S'p1_vo'
I13
tp2083
a(S'w'
I1
tp2084
a(S'w'
I9
tp2085
a(S'p2_vo'
I13
tp2086
a(S'w'
I7
tp2087
a(S'tr_lr'
I125
tp2088
a(S'w'
I716
tp2089
a(S'p1_vo'
I12
tp2090
a(S'w'
I10
tp2091
a(S'p2_vo'
I12
tp2092
a(S'w'
I7
tp2093
a(S'tr_lr'
I124
tp2094
a(S'w'
I717
tp2095
a(S'p1_vo'
I13
tp2096
a(S'w'
I10
tp2097
a(S'p2_vo'
I13
tp2098
a(S'w'
I7
tp2099
a(S'tr_lr'
I125
tp2100
a(S'w'
I709
tp2101
a(S'p1_vo'
I14
tp2102
a(S'w'
I9
tp2103
a(S'p2_vo'
I14
tp2104
a(S'w'
I8
tp2105
a(S'tr_lr'
I126
tp2106
a(S'w'
I725
tp2107
a(S'p1_vo'
I15
tp2108
a(S'w'
I9
tp2109
a(S'p2_vo'
I15
tp2110
a(S'w'
I8
tp2111
a(S'tr_lr'
I127
tp2112
a(S'w'
I717
tp2113
a(S'p1_vo'
I14
tp2114
a(S'w'
I10
tp2115
a(S'p2_vo'
I14
tp2116
a(S'w'
I8
tp2117
a(S'tr_lr'
I126
tp2118
a(S'w'
I715
tp2119
a(S'p1_vo'
I13
tp2120
a(S'w'
I10
tp2121
a(S'p2_vo'
I13
tp2122
a(S'w'
I7
tp2123
a(S'tr_lr'
I125
tp2124
a(S'w'
I729
tp2125
a(S'p1_vo'
I12
tp2126
a(S'w'
I1
tp2127
a(S'w'
I9
tp2128
a(S'p2_vo'
I12
tp2129
a(S'w'
I7
tp2130
a(S'tr_lr'
I124
tp2131
a(S'w'
I706
tp2132
a(S'p1_vo'
I13
tp2133
a(S'w'
I9
tp2134
a(S'p2_vo'
I13
tp2135
a(S'w'
I1
tp2136
a(S'w'
I7
tp2137
a(S'tr_lr'
I125
tp2138
a(S'w'
I716
tp2139
a(S'p1_vo'
I14
tp2140
a(S'w'
I9
tp2141
a(S'p2_vo'
I14
tp2142
a(S'w'
I8
tp2143
a(S'tr_lr'
I126
tp2144
a(S'w'
I716
tp2145
a(S'p1_vo'
I15
tp2146
a(S'w'
I9
tp2147
a(S'p2_vo'
I15
tp2148
a(S'w'
I7
tp2149
a(S'tr_lr'
I127
tp2150
a(S'w'
I708
tp2151
a(S'p1_vo'
I14
tp2152
a(S'w'
I10
tp2153
a(S'p2_vo'
I14
tp2154
a(S'w'
I1
tp2155
a(S'w'
I7
tp2156
a(S'tr_lr'
I126
tp2157
a(S'w'
I726
tp2158
a(S'p1_vo'
I13
tp2159
a(S'w'
I10
tp2160
a(S'p2_vo'
I13
tp2161
a(S'w'
I7
tp2162
a(S'tr_lr'
I125
tp2163
a(S'w'
I717
tp2164
a(S'p1_vo'
I12
tp2165
a(S'w'
I9
tp2166
a(S'p2_vo'
I12
tp2167
a(S'w'
I1
tp2168
a(S'w'
I7
tp2169
a(S'tr_lr'
I124
tp2170
a(S'w'
I717
tp2171
a(S'p1_vo'
I13
tp2172
a(S'w'
I9
tp2173
a(S'p2_vo'
I13
tp2174
a(S'w'
I8
tp2175
a(S'tr_lr'
I125
tp2176
a(S'w'
I729
tp2177
a(S'p1_vo'
I14
tp2178
a(S'w'
I9
tp2179
a(S'p2_vo'
I14
tp2180
a(S'w'
I1
tp2181
a(S'w'
I7
tp2182
a(S'tr_lr'
I126
tp2183
a(S'w'
I705
tp2184
a(S'p1_vo'
I15
tp2185
a(S'w'
I1
tp2186
a(S'w'
I9
tp2187
a(S'p2_vo'
I15
tp2188
a(S'w'
I7
tp2189
a(S'tr_lr'
I127
tp2190
a(S'w'
I717
tp2191
a(S'p1_vo'
I14
tp2192
a(S'w'
I10
tp2193
a(S'p2_vo'
I14
tp2194
a(S'w'
I7
tp2195
a(S'tr_lr'
I126
tp2196
a(S'w'
I716
tp2197
a(S'p1_vo'
I13
tp2198
a(S'w'
I9
tp2199
a(S'p2_vo'
I13
tp2200
a(S'w'
I1
tp2201
a(S'w'
I7
tp2202
a(S'tr_lr'
I125
tp2203
a(S'w'
I708
tp2204
a(S'p1_vo'
I12
tp2205
a(S'w'
I1
tp2206
a(S'w'
I9
tp2207
a(S'p2_vo'
I12
tp2208
a(S'w'
I7
tp2209
a(S'tr_lr'
I124
tp2210
a(S'w'
I725
tp2211
a(S'p1_vo'
I13
tp2212
a(S'w'
I9
tp2213
a(S'p2_vo'
I13
tp2214
a(S'w'
I7
tp2215
a(S'tr_lr'
I125
tp2216
a(S'w'
I718
tp2217
a(S'p1_vo'
I14
tp2218
a(S'w'
I10
tp2219
a(S'p2_vo'
I14
tp2220
a(S'w'
I7
tp2221
a(S'tr_lr'
I126
tp2222
a(S'w'
I717
tp2223
a(S'p1_vo'
I15
tp2224
a(S'w'
I10
tp2225
a(S'p2_vo'
I15
tp2226
a(S'w'
I7
tp2227
a(S'tr_lr'
I127
tp2228
a(S'w'
I730
tp2229
a(S'p1_vo'
I14
tp2230
a(S'w'
I10
tp2231
a(S'p2_vo'
I14
tp2232
a(S'w'
I7
tp2233
a(S'tr_lr'
I126
tp2234
a(S'w'
I705
tp2235
a(S'p1_vo'
I13
tp2236
a(S'w'
I9
tp2237
a(S'p2_vo'
I13
tp2238
a(S'w'
I8
tp2239
a(S'tr_lr'
I125
tp2240
a(S'w'
I715
tp2241
a(S'p1_vo'
I12
tp2242
a(S'w'
I1
tp2243
a(S'w'
I9
tp2244
a(S'p2_vo'
I12
tp2245
a(S'w'
I7
tp2246
a(S'tr_lr'
I124
tp2247
a(S'w'
I717
tp2248
a(S'p1_vo'
I13
tp2249
a(S'w'
I10
tp2250
a(S'p2_vo'
I13
tp2251
a(S'w'
I7
tp2252
a(S'tr_lr'
I125
tp2253
a(S'w'
I707
tp2254
a(S'p1_vo'
I14
tp2255
a(S'w'
I9
tp2256
a(S'p2_vo'
I14
tp2257
a(S'w'
I8
tp2258
a(S'tr_lr'
I126
tp2259
a(S'w'
I727
tp2260
a(S'p1_vo'
I15
tp2261
a(S'w'
I9
tp2262
a(S'p2_vo'
I15
tp2263
a(S'w'
I1
tp2264
a(S'w'
I7
tp2265
a(S'tr_lr'
I127
tp2266
a(S'w'
I717
tp2267
a(S'p1_vo'
I14
tp2268
a(S'w'
I10
tp2269
a(S'p2_vo'
I14
tp2270
a(S'w'
I1
tp2271
a(S'w'
I7
tp2272
a(S'tr_lr'
I126
tp2273
a(S'w'
I715
tp2274
a(S'p1_vo'
I13
tp2275
a(S'w'
I1
tp2276
a(S'w'
I9
tp2277
a(S'p2_vo'
I13
tp2278
a(S'w'
I7
tp2279
a(S'tr_lr'
I125
tp2280
a(S'w'
I729
tp2281
a(S'p1_vo'
I12
tp2282
a(S'w'
I9
tp2283
a(S'p2_vo'
I12
tp2284
a(S'w'
I7
tp2285
a(S'tr_lr'
I124
tp2286
a(S'w'
I707
tp2287
a(S'p1_vo'
I13
tp2288
a(S'w'
I10
tp2289
a(S'p2_vo'
I13
tp2290
a(S'w'
I7
tp2291
a(S'tr_lr'
I125
tp2292
a(S'w'
I716
tp2293
a(S'p1_vo'
I14
tp2294
a(S'w'
I9
tp2295
a(S'p2_vo'
I14
tp2296
a(S'w'
I1
tp2297
a(S'w'
I7
tp2298
a(S'tr_lr'
I126
tp2299
a(S'w'
I717
tp2300
a(S'p1_vo'
I15
tp2301
a(S'w'
I9
tp2302
a(S'p2_vo'
I15
tp2303
a(S'w'
I8
tp2304
a(S'tr_lr'
I127
tp2305
a(S'w'
I709
tp2306
a(S'p1_vo'
I14
tp2307
a(S'w'
I10
tp2308
a(S'p2_vo'
I14
tp2309
a(S'w'
I7
tp2310
a(S'tr_lr'
I126
tp2311
a(S'w'
I724
tp2312
a(S'p1_vo'
I13
tp2313
a(S'w'
I1
tp2314
a(S'w'
I9
tp2315
a(S'p2_vo'
I13
tp2316
a(S'w'
I7
tp2317
a(S'tr_lr'
I125
tp2318
a(S'w'
I717
tp2319
a(S'p1_vo'
I12
tp2320
a(S'w'
I10
tp2321
a(S'p2_vo'
I12
tp2322
a(S'w'
I7
tp2323
a(S'tr_lr'
I124
tp2324
a(S'w'
I717
tp2325
a(S'p1_vo'
I3
tp2326
a(S'w'
I1
tp2327
a(S'w'
I10
tp2328
a(S'p2_vo'
I3
tp2329
a(S'w'
I7
tp2330
a(S'tr_lr'
I0
tp2331
a(S'w'
I729
tp2332
a(S'w'
I10
tp2333
a(S'w'
I712
tp2334
a(S'w'
I10
tp2335
a(S'w'
I724
tp2336
a(S'w'
I10
tp2337
a(S'w'
I722
tp2338
a(S'w'
I10
tp2339
a(S'w'
I714
tp2340
a(S'w'
I10
tp2341
a(S'w'
I734
tp2342
a(S'w'
I10
tp2343
a(S'w'
I724
tp2344
a(S'w'
I10
tp2345
a(S'w'
I724
tp2346
a(S'w'
I10
tp2347
a(S'w'
I737
tp2348
a(S'w'
I10
tp2349
a(S'w'
I712
tp2350
a(S'w'
I10
tp2351
a(S'w'
I722
tp2352
a(S'w'
I10
tp2353
a(S'w'
I724
tp2354
a(S'w'
I10
tp2355
a(S'w'
I716
tp2356
a(S'w'
I10
tp2357
a(S'w'
I731
tp2358
a(S'w'
I10
tp2359
a(S'w'
I725
tp2360
a(S'w'
I11
tp2361
a(S'w'
I722
tp2362
a(S'w'
I10
tp2363
a(S'w'
I736
tp2364
a(S'w'
I10
tp2365
a(S'w'
I713
tp2366
a(S'w'
I10
tp2367
a(S'w'
I723
tp2368
a(S'w'
I10
tp2369
a(S'w'
I724
tp2370
a(S'w'
I10
tp2371
a(S'w'
I713
tp2372
a(S'w'
I11
tp2373
a(S'w'
I733
tp2374
a(S'w'
I10
tp2375
a(S'w'
I724
tp2376
a(S'w'
I10
tp2377
a(S'w'
I724
tp2378
a(S'w'
I10
tp2379
a(S'w'
I736
tp2380
a(S'w'
I9
tp2381
a(S'w'
I713
tp2382
a(S'w'
I10
tp2383
a(S'w'
I724
tp2384
a(S'w'
I10
tp2385
a(S'w'
I723
tp2386
a(S'w'
I10
tp2387
a(S'w'
I715
tp2388
a(S'w'
I11
tp2389
a(S'w'
I732
tp2390
a(S'w'
I10
tp2391
a(S'w'
I723
tp2392
a(S'w'
I10
tp2393
a(S'w'
I724
tp2394
a(S'w'
I10
tp2395
a(S'w'
I737
tp2396
a(S'w'
I11
tp2397
a(S'w'
I711
tp2398
a(S'w'
I10
tp2399
a(S'w'
I718
tp2400
a(S'p1_du'
I0
tp2401
a(S'p1_vo'
I0
tp2402
a(S'w'
I6
tp2403
a(S'p2_du'
I0
tp2404
a(S'p2_vo'
I0
tp2405
a(S'w'
I6
tp2406
a(S'tr_lh'
I0
tp2407
a(S'w'
I1
tp2408
a.