(lp1
(S'clock'
p2
I1789772
tp3
a(S'p1_du'
I2
tp4
a(S'p1_cv'
I1
tp5
a(S'p2_du'
I2
tp6
a(S'p2_cv'
I1
tp7
a(S'no_cv'
I1
tp8
a(S'ch_no'
I1
tp9
a(S'ch_tr'
I1
tp10
a(S'ch_p2'
I1
tp11
a(S'ch_p1'
I1
tp12
a(S'fc_mo'
I1
tp13
a(S'p1_du'
I0
tp14
a(S'p1_lh'
I1
tp15
a(S'p1_vo'
I13
tp16
a(S'p1_tl'
I99
tp17
a(S'w'
I1
tp18
a(S'p1_sp'
I7
tp19
a(S'p1_sn'
I1
tp20
a(S'p1_ss'
I7
tp21
a(S'p1_ll'
I0
tp22
a(S'w'
I15
tp23
a(S'p2_du'
I0
tp24
a(S'p2_lh'
I1
tp25
a(S'p2_vo'
I13
tp26
a(S'p2_tl'
I178
tp27
a(S'w'
I1
tp28
a(S'p2_sp'
I7
tp29
a(S'p2_sn'
I1
tp30
a(S'p2_ss'
I7
tp31
a(S'p2_ll'
I0
tp32
a(S'w'
I10
tp33
a(S'no_lh'
I1
tp34
a(S'w'
I697
tp35
a(S'w'
I9
tp36
a(S'w'
I726
tp37
a(S'w'
I9
tp38
a(S'w'
I716
tp39
a(S'w'
I10
tp40
a(S'w'
I732
tp41
a(S'p1_vo'
I11
tp42
a(S'w'
I10
tp43
a(S'p2_vo'
I11
tp44
a(S'w'
I728
tp45
a(S'p1_vo'
I13
tp46
a(S'p1_tl'
I79
tp47
a(S'p1_ll'
I0
tp48
a(S'w'
I13
tp49
a(S'p2_vo'
I13
tp50
a(S'p2_tl'
I141
tp51
a(S'w'
I1
tp52
a(S'p2_ll'
I0
tp53
a(S'w'
I716
tp54
a(S'w'
I9
tp55
a(S'w'
I737
tp56
a(S'w'
I9
tp57
a(S'w'
I713
tp58
a(S'w'
I10
tp59
a(S'w'
I727
tp60
a(S'p1_tl'
I62
tp61
a(S'p1_ll'
I0
tp62
a(S'w'
I13
tp63
a(S'p2_tl'
I105
tp64
a(S'w'
I1
tp65
a(S'p2_ll'
I0
tp66
a(S'w'
I716
tp67
a(S'w'
I10
tp68
a(S'w'
I713
tp69
a(S'w'
I10
tp70
a(S'w'
I735
tp71
a(S'w'
I9
tp72
a(S'w'
I728
tp73
a(S'p1_tl'
I52
tp74
a(S'w'
I1
tp75
a(S'p1_ll'
I0
tp76
a(S'w'
I13
tp77
a(S'p2_tl'
I99
tp78
a(S'p2_ll'
I0
tp79
a(S'w'
I716
tp80
a(S'w'
I10
tp81
a(S'w'
I736
tp82
a(S'w'
I10
tp83
a(S'w'
I713
tp84
a(S'w'
I9
tp85
a(S'w'
I727
tp86
a(S'p1_tl'
I62
tp87
a(S'w'
I1
tp88
a(S'p1_ll'
I0
tp89
a(S'w'
I13
tp90
a(S'p2_tl'
I105
tp91
a(S'p2_ll'
I0
tp92
a(S'w'
I716
tp93
a(S'w'
I10
tp94
a(S'w'
I716
tp95
a(S'w'
I10
tp96
a(S'w'
I732
tp97
a(S'w'
I10
tp98
a(S'w'
I728
tp99
a(S'p1_tl'
I79
tp100
a(S'p1_ll'
I0
tp101
a(S'w'
I13
tp102
a(S'p2_tl'
I141
tp103
a(S'w'
I1
tp104
a(S'p2_ll'
I0
tp105
a(S'w'
I716
tp106
a(S'w'
I9
tp107
a(S'w'
I737
tp108
a(S'w'
I9
tp109
a(S'w'
I713
tp110
a(S'w'
I10
tp111
a(S'w'
I727
tp112
a(S'p1_tl'
I99
tp113
a(S'p1_ll'
I0
tp114
a(S'w'
I13
tp115
a(S'p2_tl'
I178
tp116
a(S'w'
I1
tp117
a(S'p2_ll'
I0
tp118
a(S'w'
I716
tp119
a(S'w'
I9
tp120
a(S'w'
I714
tp121
a(S'w'
I10
tp122
a(S'w'
I734
tp123
a(S'w'
I10
tp124
a(S'w'
I728
tp125
a(S'p1_tl'
I79
tp126
a(S'w'
I1
tp127
a(S'p1_ll'
I0
tp128
a(S'w'
I12
tp129
a(S'p2_tl'
I141
tp130
a(S'w'
I1
tp131
a(S'p2_ll'
I0
tp132
a(S'w'
I716
tp133
a(S'w'
I10
tp134
a(S'w'
I736
tp135
a(S'w'
I10
tp136
a(S'w'
I713
tp137
a(S'w'
I9
tp138
a(S'w'
I727
tp139
a(S'p1_tl'
I62
tp140
a(S'w'
I1
tp141
a(S'p1_ll'
I0
tp142
a(S'w'
I13
tp143
a(S'p2_tl'
I105
tp144
a(S'p2_ll'
I0
tp145
a(S'w'
I716
tp146
a(S'w'
I10
tp147
a(S'w'
I716
tp148
a(S'w'
I9
tp149
a(S'w'
I733
tp150
a(S'w'
I9
tp151
a(S'w'
I728
tp152
a(S'p1_tl'
I52
tp153
a(S'w'
I1
tp154
a(S'p1_ll'
I0
tp155
a(S'w'
I13
tp156
a(S'p2_tl'
I99
tp157
a(S'p2_ll'
I0
tp158
a(S'w'
I716
tp159
a(S'w'
I10
tp160
a(S'w'
I737
tp161
a(S'w'
I9
tp162
a(S'w'
I713
tp163
a(S'w'
I10
tp164
a(S'w'
I727
tp165
a(S'p1_tl'
I49
tp166
a(S'p1_ll'
I0
tp167
a(S'w'
I13
tp168
a(S'p2_tl'
I79
tp169
a(S'w'
I1
tp170
a(S'p2_ll'
I0
tp171
a(S'w'
I716
tp172
a(S'w'
I9
tp173
a(S'w'
I714
tp174
a(S'w'
I10
tp175
a(S'w'
I734
tp176
a(S'w'
I10
tp177
a(S'w'
I728
tp178
a(S'p1_tl'
I39
tp179
a(S'p1_ll'
I0
tp180
a(S'w'
I13
tp181
a(S'p2_tl'
I62
tp182
a(S'w'
I1
tp183
a(S'p2_ll'
I0
tp184
a(S'w'
I716
tp185
a(S'w'
I9
tp186
a(S'w'
I737
tp187
a(S'w'
I10
tp188
a(S'w'
I713
tp189
a(S'w'
I9
tp190
a(S'w'
I728
tp191
a(S'p1_tl'
I30
tp192
a(S'p1_ll'
I0
tp193
a(S'w'
I14
tp194
a(S'p2_tl'
I52
tp195
a(S'p2_ll'
I0
tp196
a(S'w'
I715
tp197
a(S'w'
I10
tp198
a(S'w'
I716
tp199
a(S'w'
I9
tp200
a(S'w'
I733
tp201
a(S'w'
I9
tp202
a(S'w'
I724
tp203
a(S'p1_vo'
I11
tp204
a(S'w'
I1
tp205
a(S'w'
I9
tp206
a(S'p2_vo'
I11
tp207
a(S'w'
I724
tp208
a(S'p1_vo'
I10
tp209
a(S'w'
I10
tp210
a(S'p2_vo'
I10
tp211
a(S'w'
I732
tp212
a(S'p1_vo'
I0
tp213
a(S'w'
I7
tp214
a(S'p2_vo'
I0
tp215
a(S'w'
I1
tp216
a.