(lp1
(S'clock'
p2
I1789773
tp3
a(S'ch_no'
I1
tp4
a(S'ch_tr'
I1
tp5
a(S'ch_p2'
I1
tp6
a(S'ch_p1'
I1
tp7
a(S'w'
I17
tp8
a(S'no_vo'
I1
tp9
a(S'w'
I1
tp10
a(S'no_ll'
I1
tp11
a(S'no_np'
I4
tp12
a(S'w'
I13
tp13
a(S'tr_lr'
I16
tp14
a(S'w'
I1
tp15
a(S'tr_ll'
I1
tp16
a(S'tr_th'
I1
tp17
a(S'tr_tl'
I29
tp18
a(S'w'
I14
tp19
a(S'p2_du'
I2
tp20
a(S'p2_vo'
I1
tp21
a(S'w'
I1
tp22
a(S'p2_se'
I1
tp23
a(S'p2_ss'
I4
tp24
a(S'p2_ll'
I1
tp25
a(S'p2_th'
I2
tp26
a(S'p2_tl'
I92
tp27
a(S'w'
I13
tp28
a(S'p1_du'
I3
tp29
a(S'p1_cv'
I1
tp30
a(S'p1_vo'
I15
tp31
a(S'p1_se'
I1
tp32
a(S'p1_sn'
I1
tp33
a(S'w'
I1
tp34
a(S'p1_ll'
I1
tp35
a(S'p1_th'
I1
tp36
a(S'p1_tl'
I171
tp37
a(S'w'
I686
tp38
a(S'no_ll'
I1
tp39
a(S'no_np'
I0
tp40
a(S'w'
I5
tp41
a(S'tr_tl'
I30
tp42
a(S'w'
I6
tp43
a(S'p2_tl'
I93
tp44
a(S'w'
I4
tp45
a(S'p1_vo'
I14
tp46
a(S'w'
I720
tp47
a(S'tr_tl'
I29
tp48
a(S'w'
I4
tp49
a(S'p2_tl'
I93
tp50
a(S'w'
I6
tp51
a(S'p2_vo'
I2
tp52
a(S'p2_sn'
I1
tp53
a(S'p2_ss'
I0
tp54
a(S'p2_ll'
I1
tp55
a(S'p2_th'
I3
tp56
a(S'w'
I1
tp57
a(S'p2_tl'
I249
tp58
a(S'w'
I4
tp59
a(S'p1_vo'
I13
tp60
a(S'w'
I719
tp61
a(S'tr_tl'
I28
tp62
a(S'w'
I6
tp63
a(S'p2_tl'
I249
tp64
a(S'w'
I4
tp65
a(S'p1_vo'
I12
tp66
a(S'w'
I8
tp67
a(S'p1_vo'
I4
tp68
a(S'w'
I1
tp69
a(S'p1_tl'
I171
tp70
a(S'w'
I715
tp71
a(S'tr_tl'
I29
tp72
a(S'w'
I4
tp73
a(S'p2_tl'
I249
tp74
a(S'w'
I729
tp75
a(S'tr_tl'
I30
tp76
a(S'w'
I6
tp77
a(S'p2_tl'
I248
tp78
a(S'w'
I5
tp79
a(S'p1_vo'
I3
tp80
a(S'w'
I723
tp81
a(S'tr_tl'
I29
tp82
a(S'w'
I4
tp83
a(S'tr_ll'
I1
tp84
a(S'tr_tl'
I46
tp85
a(S'w'
I4
tp86
a(S'p2_tl'
I248
tp87
a(S'w'
I11
tp88
a(S'p1_vo'
I15
tp89
a(S'w'
I1
tp90
a(S'p1_ll'
I1
tp91
a(S'p1_tl'
I197
tp92
a(S'w'
I714
tp93
a(S'tr_tl'
I45
tp94
a(S'w'
I6
tp95
a(S'p2_tl'
I249
tp96
a(S'w'
I4
tp97
a(S'p1_vo'
I14
tp98
a(S'w'
I724
tp99
a(S'tr_tl'
I46
tp100
a(S'w'
I4
tp101
a(S'p2_tl'
I249
tp102
a(S'w'
I4
tp103
a(S'p1_vo'
I13
tp104
a(S'w'
I726
tp105
a(S'tr_tl'
I47
tp106
a(S'w'
I6
tp107
a(S'p2_tl'
I250
tp108
a(S'w'
I4
tp109
a(S'p1_vo'
I12
tp110
a(S'w'
I8
tp111
a(S'p1_vo'
I4
tp112
a(S'w'
I1
tp113
a(S'p1_tl'
I197
tp114
a(S'w'
I714
tp115
a(S'tr_tl'
I46
tp116
a(S'w'
I4
tp117
a(S'p2_tl'
I250
tp118
a(S'w'
I730
tp119
a(S'tr_tl'
I45
tp120
a(S'w'
I6
tp121
a(S'p2_tl'
I249
tp122
a(S'w'
I4
tp123
a(S'p1_vo'
I3
tp124
a(S'w'
I722
tp125
a(S'no_cv'
I1
tp126
a(S'no_vo'
I0
tp127
a(S'w'
I5
tp128
a(S'tr_tl'
I46
tp129
a(S'w'
I4
tp130
a(S'tr_ll'
I1
tp131
a(S'tr_tl'
I83
tp132
a(S'w'
I4
tp133
a(S'p2_tl'
I249
tp134
a(S'w'
I3
tp135
a(S'p2_du'
I0
tp136
a(S'p2_cv'
I1
tp137
a(S'p2_vo'
I0
tp138
a(S'p2_se'
I0
tp139
a(S'p2_sn'
I0
tp140
a(S'w'
I1
tp141
a(S'p2_tl'
I0
tp142
a(S'w'
I11
tp143
a(S'p1_vo'
I15
tp144
a(S'p1_ll'
I1
tp145
a(S'p1_tl'
I252
tp146
a(S'w'
I708
tp147
a(S'tr_tl'
I84
tp148
a(S'w'
I6
tp149
a(S'p2_tl'
I248
tp150
a(S'w'
I5
tp151
a(S'p1_vo'
I14
tp152
a(S'w'
I723
tp153
a(S'tr_tl'
I83
tp154
a(S'w'
I4
tp155
a(S'w'
I4
tp156
a(S'p1_vo'
I13
tp157
a(S'w'
I725
tp158
a(S'tr_tl'
I82
tp159
a(S'w'
I6
tp160
a(S'p2_tl'
I249
tp161
a(S'w'
I4
tp162
a(S'p1_vo'
I12
tp163
a(S'w'
I8
tp164
a(S'p1_vo'
I4
tp165
a(S'w'
I1
tp166
a(S'p1_tl'
I252
tp167
a(S'w'
I715
tp168
a(S'tr_tl'
I83
tp169
a(S'w'
I4
tp170
a(S'w'
I730
tp171
a(S'tr_tl'
I84
tp172
a(S'w'
I6
tp173
a(S'p2_tl'
I250
tp174
a(S'w'
I4
tp175
a(S'p1_vo'
I3
tp176
a(S'w'
I724
tp177
a(S'tr_tl'
I83
tp178
a(S'w'
I6
tp179
a(S'tr_ll'
I1
tp180
a(S'w'
I4
tp181
a(S'w'
I13
tp182
a(S'p1_vo'
I15
tp183
a(S'p1_ll'
I1
tp184
a(S'w'
I1
tp185
a(S'p1_tl'
I252
tp186
a(S'w'
I710
tp187
a(S'tr_tl'
I82
tp188
a(S'w'
I6
tp189
a(S'p2_tl'
I249
tp190
a(S'w'
I4
tp191
a(S'p1_vo'
I14
tp192
a(S'w'
I723
tp193
a(S'tr_tl'
I83
tp194
a(S'w'
I4
tp195
a(S'w'
I4
tp196
a(S'p1_vo'
I13
tp197
a(S'w'
I726
tp198
a(S'tr_tl'
I84
tp199
a(S'w'
I6
tp200
a(S'p2_tl'
I248
tp201
a(S'w'
I5
tp202
a(S'p1_vo'
I12
tp203
a(S'w'
I7
tp204
a(S'p1_vo'
I4
tp205
a(S'w'
I1
tp206
a(S'p1_tl'
I252
tp207
a(S'w'
I715
tp208
a(S'tr_tl'
I83
tp209
a(S'w'
I4
tp210
a(S'w'
I730
tp211
a(S'tr_tl'
I82
tp212
a(S'w'
I6
tp213
a(S'p2_tl'
I249
tp214
a(S'w'
I4
tp215
a(S'p1_vo'
I3
tp216
a(S'w'
I724
tp217
a(S'tr_tl'
I83
tp218
a(S'w'
I5
tp219
a(S'tr_ll'
I1
tp220
a(S'w'
I5
tp221
a(S'w'
I12
tp222
a(S'p1_vo'
I15
tp223
a(S'w'
I1
tp224
a(S'p1_ll'
I1
tp225
a(S'p1_tl'
I252
tp226
a(S'w'
I710
tp227
a(S'tr_tl'
I84
tp228
a(S'w'
I6
tp229
a(S'p2_tl'
I250
tp230
a(S'w'
I4
tp231
a(S'p1_vo'
I14
tp232
a(S'w'
I724
tp233
a(S'tr_tl'
I83
tp234
a(S'w'
I4
tp235
a(S'w'
I4
tp236
a(S'p1_vo'
I13
tp237
a(S'w'
I726
tp238
a(S'tr_tl'
I82
tp239
a(S'w'
I6
tp240
a(S'p2_tl'
I249
tp241
a(S'w'
I4
tp242
a(S'p1_vo'
I12
tp243
a(S'w'
I8
tp244
a(S'p1_vo'
I4
tp245
a(S'w'
I1
tp246
a(S'p1_tl'
I252
tp247
a(S'w'
I715
tp248
a(S'tr_tl'
I83
tp249
a(S'w'
I4
tp250
a(S'w'
I729
tp251
a(S'tr_tl'
I84
tp252
a(S'w'
I6
tp253
a(S'p2_tl'
I248
tp254
a(S'w'
I5
tp255
a(S'p1_vo'
I3
tp256
a(S'w'
I723
tp257
a(S'tr_tl'
I83
tp258
a(S'w'
I6
tp259
a(S'tr_ll'
I1
tp260
a(S'w'
I4
tp261
a(S'w'
I13
tp262
a(S'p1_vo'
I15
tp263
a(S'p1_ll'
I1
tp264
a(S'p1_tl'
I252
tp265
a(S'w'
I711
tp266
a(S'tr_tl'
I82
tp267
a(S'w'
I6
tp268
a(S'p2_tl'
I249
tp269
a(S'w'
I4
tp270
a(S'p1_vo'
I14
tp271
a(S'w'
I724
tp272
a(S'tr_tl'
I83
tp273
a(S'w'
I4
tp274
a(S'w'
I4
tp275
a(S'p1_vo'
I13
tp276
a(S'w'
I726
tp277
a(S'tr_tl'
I84
tp278
a(S'w'
I6
tp279
a(S'p2_tl'
I250
tp280
a(S'w'
I4
tp281
a(S'p1_vo'
I12
tp282
a(S'w'
I8
tp283
a(S'p1_vo'
I4
tp284
a(S'w'
I1
tp285
a(S'p1_tl'
I252
tp286
a(S'w'
I714
tp287
a(S'tr_tl'
I83
tp288
a(S'w'
I4
tp289
a(S'w'
I730
tp290
a(S'tr_tl'
I82
tp291
a(S'w'
I6
tp292
a(S'p2_tl'
I249
tp293
a(S'w'
I4
tp294
a(S'p1_vo'
I3
tp295
a(S'w'
I724
tp296
a(S'tr_tl'
I83
tp297
a(S'w'
I5
tp298
a(S'tr_ll'
I1
tp299
a(S'w'
I5
tp300
a(S'w'
I12
tp301
a(S'p1_vo'
I15
tp302
a(S'w'
I1
tp303
a(S'p1_ll'
I1
tp304
a(S'p1_tl'
I252
tp305
a(S'w'
I711
tp306
a(S'tr_tl'
I84
tp307
a(S'w'
I6
tp308
a(S'p2_tl'
I248
tp309
a(S'w'
I5
tp310
a(S'p1_vo'
I14
tp311
a(S'w'
I723
tp312
a(S'tr_tl'
I83
tp313
a(S'w'
I4
tp314
a(S'w'
I4
tp315
a(S'p1_vo'
I13
tp316
a(S'w'
I725
tp317
a(S'tr_tl'
I82
tp318
a(S'w'
I6
tp319
a(S'p2_tl'
I249
tp320
a(S'w'
I4
tp321
a(S'p1_vo'
I12
tp322
a(S'w'
I8
tp323
a(S'p1_vo'
I4
tp324
a(S'w'
I1
tp325
a(S'p1_tl'
I252
tp326
a(S'w'
I715
tp327
a(S'tr_tl'
I83
tp328
a(S'w'
I4
tp329
a(S'w'
I730
tp330
a(S'tr_tl'
I84
tp331
a(S'w'
I6
tp332
a(S'p2_tl'
I250
tp333
a(S'w'
I4
tp334
a(S'p1_vo'
I3
tp335
a(S'w'
I724
tp336
a(S'tr_tl'
I83
tp337
a(S'w'
I6
tp338
a(S'tr_ll'
I1
tp339
a(S'w'
I4
tp340
a(S'w'
I13
tp341
a(S'p1_vo'
I15
tp342
a(S'p1_ll'
I1
tp343
a(S'p1_tl'
I252
tp344
a(S'w'
I711
tp345
a(S'tr_tl'
I82
tp346
a(S'w'
I6
tp347
a(S'p2_tl'
I249
tp348
a(S'w'
I4
tp349
a(S'p1_vo'
I14
tp350
a(S'w'
I723
tp351
a(S'tr_tl'
I83
tp352
a(S'w'
I4
tp353
a(S'w'
I4
tp354
a(S'p1_vo'
I13
tp355
a(S'w'
I726
tp356
a(S'tr_tl'
I84
tp357
a(S'w'
I6
tp358
a(S'p2_tl'
I248
tp359
a(S'w'
I5
tp360
a(S'p1_vo'
I12
tp361
a(S'w'
I7
tp362
a(S'p1_vo'
I4
tp363
a(S'w'
I1
tp364
a(S'p1_tl'
I252
tp365
a(S'w'
I715
tp366
a(S'tr_tl'
I83
tp367
a(S'w'
I4
tp368
a(S'w'
I730
tp369
a(S'tr_tl'
I82
tp370
a(S'w'
I6
tp371
a(S'p2_tl'
I249
tp372
a(S'w'
I4
tp373
a(S'p1_vo'
I3
tp374
a(S'w'
I725
tp375
a(S'no_cv'
I0
tp376
a(S'no_vo'
I1
tp377
a(S'w'
I1
tp378
a(S'no_ll'
I1
tp379
a(S'no_np'
I4
tp380
a(S'w'
I5
tp381
a(S'tr_tl'
I83
tp382
a(S'w'
I11
tp383
a(S'tr_ll'
I1
tp384
a(S'tr_tl'
I29
tp385
a(S'w'
I4
tp386
a(S'w'
I10
tp387
a(S'p2_du'
I2
tp388
a(S'p2_cv'
I0
tp389
a(S'p2_vo'
I1
tp390
a(S'p2_se'
I1
tp391
a(S'p2_ss'
I4
tp392
a(S'w'
I1
tp393
a(S'p2_ll'
I1
tp394
a(S'p2_th'
I2
tp395
a(S'p2_tl'
I92
tp396
a(S'w'
I14
tp397
a(S'p1_vo'
I15
tp398
a(S'w'
I1
tp399
a(S'p1_ll'
I1
tp400
a(S'p1_tl'
I171
tp401
a(S'w'
I684
tp402
a(S'no_ll'
I1
tp403
a(S'no_np'
I0
tp404
a(S'w'
I5
tp405
a(S'tr_tl'
I30
tp406
a(S'w'
I6
tp407
a(S'p2_tl'
I93
tp408
a(S'w'
I4
tp409
a(S'p1_vo'
I14
tp410
a(S'w'
I720
tp411
a(S'tr_tl'
I29
tp412
a(S'w'
I4
tp413
a(S'p2_tl'
I93
tp414
a(S'w'
I6
tp415
a(S'p2_vo'
I2
tp416
a(S'p2_sn'
I1
tp417
a(S'p2_ss'
I0
tp418
a(S'p2_ll'
I1
tp419
a(S'p2_th'
I3
tp420
a(S'w'
I1
tp421
a(S'p2_tl'
I249
tp422
a(S'w'
I4
tp423
a(S'p1_vo'
I13
tp424
a(S'w'
I719
tp425
a(S'tr_tl'
I28
tp426
a(S'w'
I6
tp427
a(S'p2_tl'
I249
tp428
a(S'w'
I4
tp429
a(S'p1_vo'
I12
tp430
a(S'w'
I8
tp431
a(S'p1_vo'
I4
tp432
a(S'w'
I1
tp433
a(S'p1_tl'
I171
tp434
a(S'w'
I715
tp435
a(S'tr_tl'
I29
tp436
a(S'w'
I4
tp437
a(S'p2_tl'
I249
tp438
a(S'w'
I729
tp439
a(S'tr_tl'
I30
tp440
a(S'w'
I6
tp441
a(S'p2_tl'
I248
tp442
a(S'w'
I5
tp443
a(S'p1_vo'
I3
tp444
a(S'w'
I723
tp445
a(S'tr_tl'
I29
tp446
a(S'w'
I4
tp447
a(S'tr_ll'
I1
tp448
a(S'tr_tl'
I46
tp449
a(S'w'
I4
tp450
a(S'p2_tl'
I248
tp451
a(S'w'
I11
tp452
a(S'p1_vo'
I15
tp453
a(S'w'
I1
tp454
a(S'p1_ll'
I1
tp455
a(S'p1_tl'
I197
tp456
a(S'w'
I714
tp457
a(S'tr_tl'
I45
tp458
a(S'w'
I6
tp459
a(S'p2_tl'
I249
tp460
a(S'w'
I4
tp461
a(S'p1_vo'
I14
tp462
a(S'w'
I724
tp463
a(S'tr_tl'
I46
tp464
a(S'w'
I4
tp465
a(S'p2_tl'
I249
tp466
a(S'w'
I4
tp467
a(S'p1_vo'
I13
tp468
a(S'w'
I726
tp469
a(S'tr_tl'
I47
tp470
a(S'w'
I6
tp471
a(S'p2_tl'
I250
tp472
a(S'w'
I4
tp473
a(S'p1_vo'
I12
tp474
a(S'w'
I8
tp475
a(S'p1_vo'
I4
tp476
a(S'w'
I1
tp477
a(S'p1_tl'
I197
tp478
a(S'w'
I714
tp479
a(S'tr_tl'
I46
tp480
a(S'w'
I4
tp481
a(S'p2_tl'
I250
tp482
a(S'w'
I730
tp483
a(S'tr_tl'
I45
tp484
a(S'w'
I6
tp485
a(S'p2_tl'
I249
tp486
a(S'w'
I4
tp487
a(S'p1_vo'
I3
tp488
a(S'w'
I722
tp489
a(S'no_cv'
I1
tp490
a(S'no_vo'
I0
tp491
a(S'w'
I5
tp492
a(S'tr_tl'
I46
tp493
a(S'w'
I4
tp494
a(S'tr_ll'
I1
tp495
a(S'tr_tl'
I83
tp496
a(S'w'
I4
tp497
a(S'p2_tl'
I249
tp498
a(S'w'
I3
tp499
a(S'p2_du'
I0
tp500
a(S'p2_cv'
I1
tp501
a(S'p2_vo'
I0
tp502
a(S'p2_se'
I0
tp503
a(S'p2_sn'
I0
tp504
a(S'w'
I1
tp505
a(S'p2_tl'
I0
tp506
a(S'w'
I11
tp507
a(S'p1_vo'
I15
tp508
a(S'p1_ll'
I1
tp509
a(S'p1_tl'
I252
tp510
a(S'w'
I708
tp511
a(S'tr_tl'
I84
tp512
a(S'w'
I6
tp513
a(S'p2_tl'
I248
tp514
a(S'w'
I5
tp515
a(S'p1_vo'
I14
tp516
a(S'w'
I723
tp517
a(S'tr_tl'
I83
tp518
a(S'w'
I4
tp519
a(S'w'
I4
tp520
a(S'p1_vo'
I13
tp521
a(S'w'
I725
tp522
a(S'tr_tl'
I82
tp523
a(S'w'
I6
tp524
a(S'p2_tl'
I249
tp525
a(S'w'
I4
tp526
a(S'p1_vo'
I12
tp527
a(S'w'
I8
tp528
a(S'p1_vo'
I4
tp529
a(S'w'
I1
tp530
a(S'p1_tl'
I252
tp531
a(S'w'
I715
tp532
a(S'tr_tl'
I83
tp533
a(S'w'
I4
tp534
a(S'w'
I730
tp535
a(S'tr_tl'
I84
tp536
a(S'w'
I6
tp537
a(S'p2_tl'
I250
tp538
a(S'w'
I4
tp539
a(S'p1_vo'
I3
tp540
a(S'w'
I724
tp541
a(S'tr_tl'
I83
tp542
a(S'w'
I6
tp543
a(S'tr_ll'
I1
tp544
a(S'w'
I4
tp545
a(S'w'
I13
tp546
a(S'p1_vo'
I15
tp547
a(S'p1_ll'
I1
tp548
a(S'w'
I1
tp549
a(S'p1_tl'
I252
tp550
a(S'w'
I710
tp551
a(S'tr_tl'
I82
tp552
a(S'w'
I6
tp553
a(S'p2_tl'
I249
tp554
a(S'w'
I4
tp555
a(S'p1_vo'
I14
tp556
a(S'w'
I723
tp557
a(S'tr_tl'
I83
tp558
a(S'w'
I4
tp559
a(S'w'
I4
tp560
a(S'p1_vo'
I13
tp561
a(S'w'
I726
tp562
a(S'tr_tl'
I84
tp563
a(S'w'
I6
tp564
a(S'p2_tl'
I248
tp565
a(S'w'
I5
tp566
a(S'p1_vo'
I12
tp567
a(S'w'
I7
tp568
a(S'p1_vo'
I4
tp569
a(S'w'
I1
tp570
a(S'p1_tl'
I252
tp571
a(S'w'
I715
tp572
a(S'tr_tl'
I83
tp573
a(S'w'
I4
tp574
a(S'w'
I730
tp575
a(S'tr_tl'
I82
tp576
a(S'w'
I6
tp577
a(S'p2_tl'
I249
tp578
a(S'w'
I4
tp579
a(S'p1_vo'
I3
tp580
a(S'w'
I724
tp581
a(S'tr_tl'
I83
tp582
a(S'w'
I5
tp583
a(S'tr_ll'
I1
tp584
a(S'w'
I5
tp585
a(S'w'
I12
tp586
a(S'p1_vo'
I15
tp587
a(S'w'
I1
tp588
a(S'p1_ll'
I1
tp589
a(S'p1_tl'
I252
tp590
a(S'w'
I710
tp591
a(S'tr_tl'
I84
tp592
a(S'w'
I6
tp593
a(S'p2_tl'
I250
tp594
a(S'w'
I4
tp595
a(S'p1_vo'
I14
tp596
a(S'w'
I724
tp597
a(S'tr_tl'
I83
tp598
a(S'w'
I4
tp599
a(S'w'
I4
tp600
a(S'p1_vo'
I13
tp601
a(S'w'
I726
tp602
a(S'tr_tl'
I82
tp603
a(S'w'
I6
tp604
a(S'p2_tl'
I249
tp605
a(S'w'
I4
tp606
a(S'p1_vo'
I12
tp607
a(S'w'
I8
tp608
a(S'p1_vo'
I4
tp609
a(S'w'
I1
tp610
a(S'p1_tl'
I252
tp611
a(S'w'
I715
tp612
a(S'tr_tl'
I83
tp613
a(S'w'
I4
tp614
a(S'w'
I729
tp615
a(S'tr_tl'
I84
tp616
a(S'w'
I6
tp617
a(S'p2_tl'
I248
tp618
a(S'w'
I5
tp619
a(S'p1_vo'
I3
tp620
a(S'w'
I723
tp621
a(S'tr_tl'
I83
tp622
a(S'w'
I6
tp623
a(S'tr_ll'
I1
tp624
a(S'w'
I4
tp625
a(S'w'
I13
tp626
a(S'p1_vo'
I15
tp627
a(S'p1_ll'
I1
tp628
a(S'p1_tl'
I252
tp629
a(S'w'
I711
tp630
a(S'tr_tl'
I82
tp631
a(S'w'
I6
tp632
a(S'p2_tl'
I249
tp633
a(S'w'
I4
tp634
a(S'p1_vo'
I14
tp635
a(S'w'
I724
tp636
a(S'tr_tl'
I83
tp637
a(S'w'
I4
tp638
a(S'w'
I4
tp639
a(S'p1_vo'
I13
tp640
a(S'w'
I726
tp641
a(S'tr_tl'
I84
tp642
a(S'w'
I6
tp643
a(S'p2_tl'
I250
tp644
a(S'w'
I4
tp645
a(S'p1_vo'
I12
tp646
a(S'w'
I8
tp647
a(S'p1_vo'
I4
tp648
a(S'w'
I1
tp649
a(S'p1_tl'
I252
tp650
a(S'w'
I714
tp651
a(S'tr_tl'
I83
tp652
a(S'w'
I4
tp653
a(S'w'
I730
tp654
a(S'tr_tl'
I82
tp655
a(S'w'
I6
tp656
a(S'p2_tl'
I249
tp657
a(S'w'
I4
tp658
a(S'p1_vo'
I3
tp659
a(S'w'
I724
tp660
a(S'tr_tl'
I83
tp661
a(S'w'
I5
tp662
a(S'tr_ll'
I1
tp663
a(S'w'
I5
tp664
a(S'w'
I12
tp665
a(S'p1_vo'
I15
tp666
a(S'w'
I1
tp667
a(S'p1_ll'
I1
tp668
a(S'p1_tl'
I252
tp669
a(S'w'
I711
tp670
a(S'tr_tl'
I84
tp671
a(S'w'
I6
tp672
a(S'p2_tl'
I248
tp673
a(S'w'
I5
tp674
a(S'p1_vo'
I14
tp675
a(S'w'
I723
tp676
a(S'tr_tl'
I83
tp677
a(S'w'
I4
tp678
a(S'w'
I4
tp679
a(S'p1_vo'
I13
tp680
a(S'w'
I725
tp681
a(S'tr_tl'
I82
tp682
a(S'w'
I6
tp683
a(S'p2_tl'
I249
tp684
a(S'w'
I4
tp685
a(S'p1_vo'
I12
tp686
a(S'w'
I8
tp687
a(S'p1_vo'
I4
tp688
a(S'w'
I1
tp689
a(S'p1_tl'
I252
tp690
a(S'w'
I715
tp691
a(S'tr_tl'
I83
tp692
a(S'w'
I4
tp693
a(S'w'
I730
tp694
a(S'tr_tl'
I84
tp695
a(S'w'
I6
tp696
a(S'p2_tl'
I250
tp697
a(S'w'
I4
tp698
a(S'p1_vo'
I3
tp699
a(S'w'
I724
tp700
a(S'tr_tl'
I83
tp701
a(S'w'
I6
tp702
a(S'tr_ll'
I1
tp703
a(S'w'
I4
tp704
a(S'w'
I13
tp705
a(S'p1_vo'
I15
tp706
a(S'p1_ll'
I1
tp707
a(S'p1_tl'
I252
tp708
a(S'w'
I711
tp709
a(S'tr_tl'
I82
tp710
a(S'w'
I6
tp711
a(S'p2_tl'
I249
tp712
a(S'w'
I4
tp713
a(S'p1_vo'
I14
tp714
a(S'w'
I723
tp715
a(S'tr_tl'
I83
tp716
a(S'w'
I4
tp717
a(S'w'
I4
tp718
a(S'p1_vo'
I13
tp719
a(S'w'
I726
tp720
a(S'tr_tl'
I84
tp721
a(S'w'
I6
tp722
a(S'p2_tl'
I248
tp723
a(S'w'
I5
tp724
a(S'p1_vo'
I12
tp725
a(S'w'
I7
tp726
a(S'p1_vo'
I4
tp727
a(S'w'
I1
tp728
a(S'p1_tl'
I252
tp729
a(S'w'
I715
tp730
a(S'tr_tl'
I83
tp731
a(S'w'
I4
tp732
a(S'w'
I730
tp733
a(S'tr_tl'
I82
tp734
a(S'w'
I6
tp735
a(S'p2_tl'
I249
tp736
a(S'w'
I4
tp737
a(S'p1_vo'
I3
tp738
a(S'w'
I725
tp739
a(S'no_cv'
I0
tp740
a(S'no_vo'
I1
tp741
a(S'w'
I1
tp742
a(S'no_ll'
I1
tp743
a(S'no_np'
I4
tp744
a(S'w'
I5
tp745
a(S'tr_tl'
I83
tp746
a(S'w'
I11
tp747
a(S'tr_ll'
I1
tp748
a(S'tr_tl'
I29
tp749
a(S'w'
I4
tp750
a(S'w'
I10
tp751
a(S'p2_du'
I2
tp752
a(S'p2_cv'
I0
tp753
a(S'p2_vo'
I1
tp754
a(S'p2_se'
I1
tp755
a(S'p2_ss'
I4
tp756
a(S'p2_ll'
I1
tp757
a(S'p2_th'
I2
tp758
a(S'w'
I1
tp759
a(S'p2_tl'
I92
tp760
a(S'w'
I14
tp761
a(S'p1_vo'
I15
tp762
a(S'p1_ll'
I1
tp763
a(S'w'
I1
tp764
a(S'p1_tl'
I171
tp765
a(S'w'
I684
tp766
a(S'no_ll'
I1
tp767
a(S'no_np'
I0
tp768
a(S'w'
I5
tp769
a(S'tr_tl'
I30
tp770
a(S'w'
I6
tp771
a(S'p2_tl'
I93
tp772
a(S'w'
I4
tp773
a(S'p1_vo'
I14
tp774
a(S'w'
I720
tp775
a(S'tr_tl'
I29
tp776
a(S'w'
I4
tp777
a(S'p2_tl'
I93
tp778
a(S'w'
I6
tp779
a(S'p2_vo'
I2
tp780
a(S'p2_sn'
I1
tp781
a(S'p2_ss'
I0
tp782
a(S'p2_ll'
I1
tp783
a(S'p2_th'
I3
tp784
a(S'w'
I1
tp785
a(S'p2_tl'
I249
tp786
a(S'w'
I4
tp787
a(S'p1_vo'
I13
tp788
a(S'w'
I719
tp789
a(S'tr_tl'
I28
tp790
a(S'w'
I6
tp791
a(S'p2_tl'
I249
tp792
a(S'w'
I4
tp793
a(S'p1_vo'
I12
tp794
a(S'w'
I8
tp795
a(S'p1_vo'
I4
tp796
a(S'w'
I1
tp797
a(S'p1_tl'
I171
tp798
a(S'w'
I715
tp799
a(S'tr_tl'
I29
tp800
a(S'w'
I4
tp801
a(S'p2_tl'
I249
tp802
a(S'w'
I729
tp803
a(S'tr_tl'
I30
tp804
a(S'w'
I6
tp805
a(S'p2_tl'
I248
tp806
a(S'w'
I5
tp807
a(S'p1_vo'
I3
tp808
a(S'w'
I723
tp809
a(S'tr_tl'
I29
tp810
a(S'w'
I4
tp811
a(S'tr_ll'
I1
tp812
a(S'tr_tl'
I46
tp813
a(S'w'
I4
tp814
a(S'p2_tl'
I248
tp815
a(S'w'
I11
tp816
a(S'p1_vo'
I15
tp817
a(S'w'
I1
tp818
a(S'p1_ll'
I1
tp819
a(S'p1_tl'
I197
tp820
a(S'w'
I714
tp821
a(S'tr_tl'
I45
tp822
a(S'w'
I6
tp823
a(S'p2_tl'
I249
tp824
a(S'w'
I4
tp825
a(S'p1_vo'
I14
tp826
a(S'w'
I724
tp827
a(S'tr_tl'
I46
tp828
a(S'w'
I4
tp829
a(S'p2_tl'
I249
tp830
a(S'w'
I4
tp831
a(S'p1_vo'
I13
tp832
a(S'w'
I726
tp833
a(S'tr_tl'
I47
tp834
a(S'w'
I6
tp835
a(S'p2_tl'
I250
tp836
a(S'w'
I4
tp837
a(S'p1_vo'
I12
tp838
a(S'w'
I8
tp839
a(S'p1_vo'
I4
tp840
a(S'w'
I1
tp841
a(S'p1_tl'
I197
tp842
a(S'w'
I714
tp843
a(S'tr_tl'
I46
tp844
a(S'w'
I4
tp845
a(S'p2_tl'
I250
tp846
a(S'w'
I730
tp847
a(S'tr_tl'
I45
tp848
a(S'w'
I6
tp849
a(S'p2_tl'
I249
tp850
a(S'w'
I4
tp851
a(S'p1_vo'
I3
tp852
a(S'w'
I722
tp853
a(S'no_cv'
I1
tp854
a(S'no_vo'
I0
tp855
a(S'w'
I5
tp856
a(S'tr_tl'
I46
tp857
a(S'w'
I4
tp858
a(S'tr_ll'
I1
tp859
a(S'tr_tl'
I83
tp860
a(S'w'
I4
tp861
a(S'p2_tl'
I249
tp862
a(S'w'
I3
tp863
a(S'p2_du'
I0
tp864
a(S'p2_cv'
I1
tp865
a(S'p2_vo'
I0
tp866
a(S'p2_se'
I0
tp867
a(S'p2_sn'
I0
tp868
a(S'w'
I1
tp869
a(S'p2_tl'
I0
tp870
a(S'w'
I11
tp871
a(S'p1_vo'
I15
tp872
a(S'p1_ll'
I1
tp873
a(S'p1_tl'
I252
tp874
a(S'w'
I708
tp875
a(S'tr_tl'
I84
tp876
a(S'w'
I6
tp877
a(S'p2_tl'
I248
tp878
a(S'w'
I5
tp879
a(S'p1_vo'
I14
tp880
a(S'w'
I723
tp881
a(S'tr_tl'
I83
tp882
a(S'w'
I4
tp883
a(S'w'
I4
tp884
a(S'p1_vo'
I13
tp885
a(S'w'
I725
tp886
a(S'tr_tl'
I82
tp887
a(S'w'
I6
tp888
a(S'p2_tl'
I249
tp889
a(S'w'
I4
tp890
a(S'p1_vo'
I12
tp891
a(S'w'
I8
tp892
a(S'p1_vo'
I4
tp893
a(S'w'
I1
tp894
a(S'p1_tl'
I252
tp895
a(S'w'
I715
tp896
a(S'tr_tl'
I83
tp897
a(S'w'
I4
tp898
a(S'w'
I730
tp899
a(S'tr_tl'
I84
tp900
a(S'w'
I6
tp901
a(S'p2_tl'
I250
tp902
a(S'w'
I4
tp903
a(S'p1_vo'
I3
tp904
a(S'w'
I724
tp905
a(S'tr_tl'
I83
tp906
a(S'w'
I6
tp907
a(S'tr_ll'
I1
tp908
a(S'w'
I4
tp909
a(S'w'
I13
tp910
a(S'p1_vo'
I15
tp911
a(S'p1_ll'
I1
tp912
a(S'w'
I1
tp913
a(S'p1_tl'
I252
tp914
a(S'w'
I710
tp915
a(S'tr_tl'
I82
tp916
a(S'w'
I6
tp917
a(S'p2_tl'
I249
tp918
a(S'w'
I4
tp919
a(S'p1_vo'
I14
tp920
a(S'w'
I723
tp921
a(S'tr_tl'
I83
tp922
a(S'w'
I4
tp923
a(S'w'
I4
tp924
a(S'p1_vo'
I13
tp925
a(S'w'
I726
tp926
a(S'tr_tl'
I84
tp927
a(S'w'
I6
tp928
a(S'p2_tl'
I248
tp929
a(S'w'
I5
tp930
a(S'p1_vo'
I12
tp931
a(S'w'
I7
tp932
a(S'p1_vo'
I4
tp933
a(S'w'
I1
tp934
a(S'p1_tl'
I252
tp935
a(S'w'
I715
tp936
a(S'tr_tl'
I83
tp937
a(S'w'
I4
tp938
a(S'w'
I730
tp939
a(S'tr_tl'
I82
tp940
a(S'w'
I6
tp941
a(S'p2_tl'
I249
tp942
a(S'w'
I4
tp943
a(S'p1_vo'
I3
tp944
a(S'w'
I724
tp945
a(S'tr_tl'
I83
tp946
a(S'w'
I5
tp947
a(S'tr_ll'
I1
tp948
a(S'w'
I5
tp949
a(S'w'
I12
tp950
a(S'p1_vo'
I15
tp951
a(S'w'
I1
tp952
a(S'p1_ll'
I1
tp953
a(S'p1_tl'
I252
tp954
a(S'w'
I710
tp955
a(S'tr_tl'
I84
tp956
a(S'w'
I6
tp957
a(S'p2_tl'
I250
tp958
a(S'w'
I4
tp959
a(S'p1_vo'
I14
tp960
a(S'w'
I724
tp961
a(S'tr_tl'
I83
tp962
a(S'w'
I4
tp963
a(S'w'
I4
tp964
a(S'p1_vo'
I13
tp965
a(S'w'
I726
tp966
a(S'tr_tl'
I82
tp967
a(S'w'
I6
tp968
a(S'p2_tl'
I249
tp969
a(S'w'
I4
tp970
a(S'p1_vo'
I12
tp971
a(S'w'
I8
tp972
a(S'p1_vo'
I4
tp973
a(S'w'
I1
tp974
a(S'p1_tl'
I252
tp975
a(S'w'
I715
tp976
a(S'tr_tl'
I83
tp977
a(S'w'
I4
tp978
a(S'w'
I729
tp979
a(S'tr_tl'
I84
tp980
a(S'w'
I6
tp981
a(S'p2_tl'
I248
tp982
a(S'w'
I5
tp983
a(S'p1_vo'
I3
tp984
a(S'w'
I723
tp985
a(S'tr_tl'
I83
tp986
a(S'w'
I6
tp987
a(S'tr_ll'
I1
tp988
a(S'w'
I4
tp989
a(S'w'
I13
tp990
a(S'p1_vo'
I15
tp991
a(S'p1_ll'
I1
tp992
a(S'p1_tl'
I252
tp993
a(S'w'
I711
tp994
a(S'tr_tl'
I82
tp995
a(S'w'
I6
tp996
a(S'p2_tl'
I249
tp997
a(S'w'
I4
tp998
a(S'p1_vo'
I14
tp999
a(S'w'
I724
tp1000
a(S'tr_tl'
I83
tp1001
a(S'w'
I4
tp1002
a(S'w'
I4
tp1003
a(S'p1_vo'
I13
tp1004
a(S'w'
I726
tp1005
a(S'tr_tl'
I84
tp1006
a(S'w'
I6
tp1007
a(S'p2_tl'
I250
tp1008
a(S'w'
I4
tp1009
a(S'p1_vo'
I12
tp1010
a(S'w'
I8
tp1011
a(S'p1_vo'
I4
tp1012
a(S'w'
I1
tp1013
a(S'p1_tl'
I252
tp1014
a(S'w'
I714
tp1015
a(S'tr_tl'
I83
tp1016
a(S'w'
I4
tp1017
a(S'w'
I730
tp1018
a(S'tr_tl'
I82
tp1019
a(S'w'
I6
tp1020
a(S'p2_tl'
I249
tp1021
a(S'w'
I4
tp1022
a(S'p1_vo'
I3
tp1023
a(S'w'
I724
tp1024
a(S'tr_tl'
I83
tp1025
a(S'w'
I5
tp1026
a(S'tr_ll'
I1
tp1027
a(S'w'
I5
tp1028
a(S'w'
I12
tp1029
a(S'p1_vo'
I15
tp1030
a(S'w'
I1
tp1031
a(S'p1_ll'
I1
tp1032
a(S'p1_tl'
I252
tp1033
a(S'w'
I711
tp1034
a(S'tr_tl'
I84
tp1035
a(S'w'
I6
tp1036
a(S'p2_tl'
I248
tp1037
a(S'w'
I5
tp1038
a(S'p1_vo'
I14
tp1039
a(S'w'
I723
tp1040
a(S'tr_tl'
I83
tp1041
a(S'w'
I4
tp1042
a(S'w'
I4
tp1043
a(S'p1_vo'
I13
tp1044
a(S'w'
I725
tp1045
a(S'tr_tl'
I82
tp1046
a(S'w'
I6
tp1047
a(S'p2_tl'
I249
tp1048
a(S'w'
I4
tp1049
a(S'p1_vo'
I12
tp1050
a(S'w'
I8
tp1051
a(S'p1_vo'
I4
tp1052
a(S'w'
I1
tp1053
a(S'p1_tl'
I252
tp1054
a(S'w'
I715
tp1055
a(S'tr_tl'
I83
tp1056
a(S'w'
I4
tp1057
a(S'w'
I730
tp1058
a(S'tr_tl'
I84
tp1059
a(S'w'
I6
tp1060
a(S'p2_tl'
I250
tp1061
a(S'w'
I4
tp1062
a(S'p1_vo'
I3
tp1063
a(S'w'
I724
tp1064
a(S'tr_tl'
I83
tp1065
a(S'w'
I6
tp1066
a(S'tr_ll'
I1
tp1067
a(S'w'
I4
tp1068
a(S'w'
I13
tp1069
a(S'p1_vo'
I15
tp1070
a(S'p1_ll'
I1
tp1071
a(S'p1_tl'
I252
tp1072
a(S'w'
I711
tp1073
a(S'tr_tl'
I82
tp1074
a(S'w'
I6
tp1075
a(S'p2_tl'
I249
tp1076
a(S'w'
I4
tp1077
a(S'p1_vo'
I14
tp1078
a(S'w'
I723
tp1079
a(S'tr_tl'
I83
tp1080
a(S'w'
I4
tp1081
a(S'w'
I4
tp1082
a(S'p1_vo'
I13
tp1083
a(S'w'
I726
tp1084
a(S'tr_tl'
I84
tp1085
a(S'w'
I6
tp1086
a(S'p2_tl'
I248
tp1087
a(S'w'
I5
tp1088
a(S'p1_vo'
I12
tp1089
a(S'w'
I7
tp1090
a(S'p1_vo'
I4
tp1091
a(S'w'
I1
tp1092
a(S'p1_tl'
I252
tp1093
a(S'w'
I715
tp1094
a(S'tr_tl'
I83
tp1095
a(S'w'
I4
tp1096
a(S'w'
I730
tp1097
a(S'tr_tl'
I82
tp1098
a(S'w'
I6
tp1099
a(S'p2_tl'
I249
tp1100
a(S'w'
I4
tp1101
a(S'p1_vo'
I3
tp1102
a(S'w'
I724
tp1103
a(S'no_cv'
I0
tp1104
a(S'no_vo'
I1
tp1105
a(S'no_ll'
I1
tp1106
a(S'w'
I1
tp1107
a(S'no_np'
I4
tp1108
a(S'w'
I5
tp1109
a(S'tr_tl'
I83
tp1110
a(S'w'
I7
tp1111
a(S'tr_lh'
I1
tp1112
a(S'tr_lr'
I127
tp1113
a(S'tr_ll'
I1
tp1114
a(S'tr_th'
I0
tp1115
a(S'w'
I1
tp1116
a(S'tr_tl'
I254
tp1117
a(S'w'
I4
tp1118
a(S'w'
I6
tp1119
a(S'p2_du'
I2
tp1120
a(S'p2_cv'
I0
tp1121
a(S'p2_vo'
I1
tp1122
a(S'p2_se'
I1
tp1123
a(S'p2_sn'
I1
tp1124
a(S'p2_ll'
I1
tp1125
a(S'p2_th'
I2
tp1126
a(S'w'
I1
tp1127
a(S'p2_tl'
I92
tp1128
a(S'w'
I13
tp1129
a(S'p1_vo'
I15
tp1130
a(S'w'
I1
tp1131
a(S'p1_ll'
I1
tp1132
a(S'p1_tl'
I103
tp1133
a(S'w'
I693
tp1134
a(S'no_ll'
I1
tp1135
a(S'no_np'
I0
tp1136
a(S'w'
I5
tp1137
a(S'tr_tl'
I255
tp1138
a(S'w'
I6
tp1139
a(S'p2_tl'
I93
tp1140
a(S'w'
I4
tp1141
a(S'p1_vo'
I14
tp1142
a(S'w'
I720
tp1143
a(S'tr_tl'
I254
tp1144
a(S'w'
I4
tp1145
a(S'p2_tl'
I93
tp1146
a(S'w'
I5
tp1147
a(S'p2_vo'
I2
tp1148
a(S'p2_ll'
I1
tp1149
a(S'p2_th'
I5
tp1150
a(S'w'
I1
tp1151
a(S'p2_tl'
I77
tp1152
a(S'w'
I4
tp1153
a(S'p1_vo'
I13
tp1154
a(S'w'
I720
tp1155
a(S'tr_tl'
I253
tp1156
a(S'w'
I6
tp1157
a(S'p2_tl'
I77
tp1158
a(S'w'
I4
tp1159
a(S'p1_vo'
I12
tp1160
a(S'w'
I8
tp1161
a(S'p1_vo'
I4
tp1162
a(S'w'
I1
tp1163
a(S'p1_tl'
I103
tp1164
a(S'w'
I715
tp1165
a(S'tr_tl'
I254
tp1166
a(S'w'
I4
tp1167
a(S'p2_tl'
I77
tp1168
a(S'w'
I729
tp1169
a(S'tr_tl'
I255
tp1170
a(S'w'
I6
tp1171
a(S'p2_tl'
I76
tp1172
a(S'w'
I728
tp1173
a(S'tr_tl'
I254
tp1174
a(S'w'
I4
tp1175
a(S'p2_tl'
I76
tp1176
a(S'w'
I730
tp1177
a(S'tr_tl'
I253
tp1178
a(S'w'
I6
tp1179
a(S'p2_tl'
I77
tp1180
a(S'w'
I728
tp1181
a(S'tr_tl'
I254
tp1182
a(S'w'
I4
tp1183
a(S'p2_tl'
I77
tp1184
a(S'w'
I4
tp1185
a(S'p1_vo'
I3
tp1186
a(S'w'
I726
tp1187
a(S'tr_tl'
I255
tp1188
a(S'w'
I6
tp1189
a(S'p2_tl'
I78
tp1190
a(S'w'
I727
tp1191
a(S'tr_tl'
I254
tp1192
a(S'w'
I4
tp1193
a(S'p2_tl'
I78
tp1194
a(S'w'
I730
tp1195
a(S'tr_tl'
I253
tp1196
a(S'w'
I6
tp1197
a(S'p2_tl'
I77
tp1198
a(S'w'
I728
tp1199
a(S'tr_tl'
I254
tp1200
a(S'w'
I4
tp1201
a(S'p2_tl'
I77
tp1202
a(S'w'
I730
tp1203
a(S'tr_tl'
I255
tp1204
a(S'w'
I6
tp1205
a(S'p2_tl'
I76
tp1206
a(S'w'
I5
tp1207
a(S'p1_vo'
I2
tp1208
a(S'w'
I723
tp1209
a(S'tr_tl'
I254
tp1210
a(S'w'
I4
tp1211
a(S'p2_tl'
I76
tp1212
a(S'w'
I729
tp1213
a(S'tr_tl'
I253
tp1214
a(S'w'
I6
tp1215
a(S'p2_tl'
I77
tp1216
a(S'w'
I728
tp1217
a(S'tr_tl'
I254
tp1218
a(S'w'
I4
tp1219
a(S'p2_tl'
I77
tp1220
a(S'w'
I730
tp1221
a(S'tr_tl'
I255
tp1222
a(S'w'
I6
tp1223
a(S'p2_tl'
I78
tp1224
a(S'w'
I727
tp1225
a(S'no_ll'
I1
tp1226
a(S'no_np'
I4
tp1227
a(S'w'
I5
tp1228
a(S'tr_tl'
I254
tp1229
a(S'w'
I4
tp1230
a(S'tr_ll'
I1
tp1231
a(S'tr_tl'
I226
tp1232
a(S'w'
I4
tp1233
a(S'p2_tl'
I78
tp1234
a(S'w'
I5
tp1235
a(S'p2_vo'
I1
tp1236
a(S'w'
I1
tp1237
a(S'p2_ll'
I1
tp1238
a(S'p2_th'
I2
tp1239
a(S'p2_tl'
I92
tp1240
a(S'w'
I4
tp1241
a(S'p1_vo'
I1
tp1242
a(S'w'
I8
tp1243
a(S'p1_vo'
I15
tp1244
a(S'w'
I1
tp1245
a(S'p1_ll'
I1
tp1246
a(S'p1_tl'
I83
tp1247
a(S'w'
I702
tp1248
a(S'no_ll'
I1
tp1249
a(S'no_np'
I0
tp1250
a(S'w'
I5
tp1251
a(S'tr_tl'
I225
tp1252
a(S'w'
I6
tp1253
a(S'p2_tl'
I92
tp1254
a(S'w'
I5
tp1255
a(S'p1_vo'
I14
tp1256
a(S'w'
I718
tp1257
a(S'tr_tl'
I226
tp1258
a(S'w'
I4
tp1259
a(S'p2_tl'
I92
tp1260
a(S'w'
I4
tp1261
a(S'p2_vo'
I2
tp1262
a(S'w'
I1
tp1263
a(S'p2_ll'
I1
tp1264
a(S'p2_th'
I5
tp1265
a(S'p2_tl'
I77
tp1266
a(S'w'
I5
tp1267
a(S'p1_vo'
I13
tp1268
a(S'w'
I720
tp1269
a(S'tr_tl'
I227
tp1270
a(S'w'
I6
tp1271
a(S'p2_tl'
I76
tp1272
a(S'w'
I5
tp1273
a(S'p1_vo'
I12
tp1274
a(S'w'
I7
tp1275
a(S'p1_vo'
I4
tp1276
a(S'w'
I1
tp1277
a(S'p1_tl'
I83
tp1278
a(S'w'
I715
tp1279
a(S'tr_tl'
I226
tp1280
a(S'w'
I4
tp1281
a(S'p2_tl'
I76
tp1282
a(S'w'
I730
tp1283
a(S'tr_tl'
I225
tp1284
a(S'w'
I6
tp1285
a(S'p2_tl'
I77
tp1286
a(S'w'
I728
tp1287
a(S'tr_tl'
I226
tp1288
a(S'w'
I4
tp1289
a(S'p2_tl'
I77
tp1290
a(S'w'
I729
tp1291
a(S'tr_tl'
I227
tp1292
a(S'w'
I6
tp1293
a(S'p2_tl'
I78
tp1294
a(S'w'
I728
tp1295
a(S'tr_tl'
I226
tp1296
a(S'w'
I4
tp1297
a(S'p2_tl'
I78
tp1298
a(S'w'
I4
tp1299
a(S'p1_vo'
I3
tp1300
a(S'w'
I726
tp1301
a(S'tr_tl'
I225
tp1302
a(S'w'
I6
tp1303
a(S'p2_tl'
I77
tp1304
a(S'w'
I728
tp1305
a(S'tr_tl'
I226
tp1306
a(S'w'
I4
tp1307
a(S'p2_tl'
I77
tp1308
a(S'w'
I729
tp1309
a(S'tr_tl'
I227
tp1310
a(S'w'
I6
tp1311
a(S'p2_tl'
I76
tp1312
a(S'w'
I728
tp1313
a(S'tr_tl'
I226
tp1314
a(S'w'
I4
tp1315
a(S'p2_tl'
I76
tp1316
a(S'w'
I730
tp1317
a(S'tr_tl'
I225
tp1318
a(S'w'
I6
tp1319
a(S'p2_tl'
I77
tp1320
a(S'w'
I4
tp1321
a(S'p1_vo'
I2
tp1322
a(S'w'
I724
tp1323
a(S'tr_tl'
I226
tp1324
a(S'w'
I4
tp1325
a(S'p2_tl'
I77
tp1326
a(S'w'
I730
tp1327
a(S'tr_tl'
I227
tp1328
a(S'w'
I6
tp1329
a(S'p2_tl'
I78
tp1330
a(S'w'
I727
tp1331
a(S'tr_tl'
I226
tp1332
a(S'w'
I4
tp1333
a(S'p2_tl'
I78
tp1334
a(S'w'
I730
tp1335
a(S'tr_tl'
I225
tp1336
a(S'w'
I6
tp1337
a(S'p2_tl'
I77
tp1338
a(S'w'
I727
tp1339
a(S'no_ll'
I1
tp1340
a(S'no_np'
I4
tp1341
a(S'w'
I5
tp1342
a(S'tr_tl'
I226
tp1343
a(S'w'
I4
tp1344
a(S'tr_ll'
I1
tp1345
a(S'tr_tl'
I254
tp1346
a(S'w'
I4
tp1347
a(S'p2_tl'
I77
tp1348
a(S'w'
I5
tp1349
a(S'p2_vo'
I1
tp1350
a(S'p2_ll'
I1
tp1351
a(S'p2_th'
I2
tp1352
a(S'w'
I1
tp1353
a(S'p2_tl'
I92
tp1354
a(S'w'
I4
tp1355
a(S'p1_vo'
I1
tp1356
a(S'w'
I8
tp1357
a(S'p1_vo'
I15
tp1358
a(S'w'
I1
tp1359
a(S'p1_ll'
I1
tp1360
a(S'p1_tl'
I103
tp1361
a(S'w'
I702
tp1362
a(S'no_ll'
I1
tp1363
a(S'no_np'
I0
tp1364
a(S'w'
I5
tp1365
a(S'tr_tl'
I255
tp1366
a(S'w'
I6
tp1367
a(S'p2_tl'
I91
tp1368
a(S'w'
I5
tp1369
a(S'p1_vo'
I14
tp1370
a(S'w'
I719
tp1371
a(S'tr_tl'
I254
tp1372
a(S'w'
I4
tp1373
a(S'p2_tl'
I91
tp1374
a(S'w'
I5
tp1375
a(S'p2_vo'
I2
tp1376
a(S'p2_ll'
I1
tp1377
a(S'p2_th'
I5
tp1378
a(S'w'
I1
tp1379
a(S'p2_tl'
I77
tp1380
a(S'w'
I4
tp1381
a(S'p1_vo'
I13
tp1382
a(S'w'
I719
tp1383
a(S'tr_tl'
I253
tp1384
a(S'w'
I6
tp1385
a(S'p2_tl'
I77
tp1386
a(S'w'
I4
tp1387
a(S'p1_vo'
I12
tp1388
a(S'w'
I8
tp1389
a(S'p1_vo'
I4
tp1390
a(S'w'
I1
tp1391
a(S'p1_tl'
I103
tp1392
a(S'w'
I715
tp1393
a(S'tr_tl'
I254
tp1394
a(S'w'
I4
tp1395
a(S'p2_tl'
I77
tp1396
a(S'w'
I730
tp1397
a(S'tr_tl'
I255
tp1398
a(S'w'
I6
tp1399
a(S'p2_tl'
I78
tp1400
a(S'w'
I728
tp1401
a(S'tr_tl'
I254
tp1402
a(S'w'
I4
tp1403
a(S'p2_tl'
I78
tp1404
a(S'w'
I4
tp1405
a(S'p1_vo'
I3
tp1406
a(S'w'
I726
tp1407
a(S'tr_tl'
I253
tp1408
a(S'w'
I6
tp1409
a(S'p2_tl'
I77
tp1410
a(S'w'
I727
tp1411
a(S'tr_tl'
I254
tp1412
a(S'w'
I4
tp1413
a(S'p2_tl'
I77
tp1414
a(S'w'
I730
tp1415
a(S'tr_tl'
I255
tp1416
a(S'w'
I6
tp1417
a(S'p2_tl'
I76
tp1418
a(S'w'
I5
tp1419
a(S'p1_vo'
I2
tp1420
a(S'w'
I723
tp1421
a(S'tr_tl'
I254
tp1422
a(S'w'
I4
tp1423
a(S'p2_tl'
I76
tp1424
a(S'w'
I730
tp1425
a(S'tr_tl'
I253
tp1426
a(S'w'
I6
tp1427
a(S'p2_tl'
I77
tp1428
a(S'w'
I728
tp1429
a(S'no_vo'
I15
tp1430
a(S'no_ll'
I1
tp1431
a(S'w'
I1
tp1432
a(S'no_np'
I4
tp1433
a(S'w'
I5
tp1434
a(S'tr_tl'
I254
tp1435
a(S'w'
I3
tp1436
a(S'tr_ll'
I1
tp1437
a(S'w'
I1
tp1438
a(S'tr_tl'
I226
tp1439
a(S'w'
I4
tp1440
a(S'p2_tl'
I77
tp1441
a(S'w'
I4
tp1442
a(S'p2_vo'
I1
tp1443
a(S'w'
I1
tp1444
a(S'p2_ll'
I1
tp1445
a(S'p2_th'
I2
tp1446
a(S'p2_tl'
I92
tp1447
a(S'w'
I5
tp1448
a(S'p1_vo'
I1
tp1449
a(S'w'
I9
tp1450
a(S'p1_vo'
I15
tp1451
a(S'p1_ll'
I1
tp1452
a(S'w'
I1
tp1453
a(S'p1_tl'
I83
tp1454
a(S'w'
I698
tp1455
a(S'no_ll'
I1
tp1456
a(S'no_np'
I2
tp1457
a(S'w'
I5
tp1458
a(S'tr_tl'
I227
tp1459
a(S'w'
I6
tp1460
a(S'p2_tl'
I93
tp1461
a(S'w'
I724
tp1462
a(S'tr_tl'
I226
tp1463
a(S'w'
I4
tp1464
a(S'p2_tl'
I93
tp1465
a(S'w'
I7
tp1466
a(S'p2_cv'
I1
tp1467
a(S'p2_vo'
I15
tp1468
a(S'p2_ll'
I1
tp1469
a(S'p2_th'
I5
tp1470
a(S'w'
I1
tp1471
a(S'p2_tl'
I77
tp1472
a(S'w'
I5
tp1473
a(S'p1_vo'
I14
tp1474
a(S'w'
I717
tp1475
a(S'tr_tl'
I225
tp1476
a(S'w'
I18
tp1477
a(S'p1_vo'
I9
tp1478
a(S'p1_tl'
I83
tp1479
a(S'w'
I716
tp1480
a(S'tr_tl'
I226
tp1481
a(S'w'
I8
tp1482
a(S'p1_tl'
I84
tp1483
a(S'w'
I725
tp1484
a(S'tr_tl'
I227
tp1485
a(S'w'
I7
tp1486
a(S'p1_tl'
I84
tp1487
a(S'w'
I727
tp1488
a(S'tr_tl'
I226
tp1489
a(S'w'
I8
tp1490
a(S'p1_tl'
I83
tp1491
a(S'w'
I726
tp1492
a(S'tr_tl'
I225
tp1493
a(S'w'
I7
tp1494
a(S'p1_tl'
I83
tp1495
a(S'w'
I727
tp1496
a(S'tr_tl'
I226
tp1497
a(S'w'
I9
tp1498
a(S'p1_tl'
I82
tp1499
a(S'w'
I725
tp1500
a(S'tr_tl'
I227
tp1501
a(S'w'
I7
tp1502
a(S'p1_tl'
I82
tp1503
a(S'w'
I726
tp1504
a(S'tr_tl'
I226
tp1505
a(S'w'
I8
tp1506
a(S'p1_tl'
I83
tp1507
a(S'w'
I726
tp1508
a(S'tr_tl'
I225
tp1509
a(S'w'
I7
tp1510
a(S'p1_tl'
I83
tp1511
a(S'w'
I727
tp1512
a(S'tr_tl'
I226
tp1513
a(S'w'
I8
tp1514
a(S'p1_tl'
I84
tp1515
a(S'w'
I726
tp1516
a(S'tr_tl'
I227
tp1517
a(S'w'
I7
tp1518
a(S'p1_tl'
I84
tp1519
a(S'w'
I727
tp1520
a(S'tr_tl'
I226
tp1521
a(S'w'
I8
tp1522
a(S'p1_tl'
I83
tp1523
a(S'w'
I725
tp1524
a(S'tr_tl'
I225
tp1525
a(S'w'
I7
tp1526
a(S'p1_tl'
I83
tp1527
a(S'w'
I727
tp1528
a(S'tr_tl'
I226
tp1529
a(S'w'
I9
tp1530
a(S'p1_tl'
I82
tp1531
a(S'w'
I725
tp1532
a(S'tr_tl'
I227
tp1533
a(S'w'
I7
tp1534
a(S'p1_tl'
I82
tp1535
a(S'w'
I727
tp1536
a(S'tr_tl'
I226
tp1537
a(S'w'
I5
tp1538
a(S'p2_vo'
I14
tp1539
a(S'w'
I4
tp1540
a(S'p1_tl'
I83
tp1541
a(S'w'
I725
tp1542
a(S'tr_tl'
I225
tp1543
a(S'w'
I7
tp1544
a(S'p1_tl'
I83
tp1545
a(S'w'
I726
tp1546
a(S'tr_tl'
I226
tp1547
a(S'w'
I8
tp1548
a(S'p1_tl'
I84
tp1549
a(S'w'
I726
tp1550
a(S'tr_tl'
I227
tp1551
a(S'w'
I7
tp1552
a(S'p1_tl'
I84
tp1553
a(S'w'
I727
tp1554
a(S'tr_tl'
I226
tp1555
a(S'w'
I8
tp1556
a(S'p1_tl'
I83
tp1557
a(S'w'
I726
tp1558
a(S'tr_tl'
I225
tp1559
a(S'w'
I7
tp1560
a(S'p1_tl'
I83
tp1561
a(S'w'
I727
tp1562
a(S'tr_tl'
I226
tp1563
a(S'w'
I9
tp1564
a(S'p1_tl'
I82
tp1565
a(S'w'
I724
tp1566
a(S'tr_tl'
I227
tp1567
a(S'w'
I7
tp1568
a(S'p1_tl'
I82
tp1569
a(S'w'
I727
tp1570
a(S'tr_tl'
I226
tp1571
a(S'w'
I8
tp1572
a(S'p1_tl'
I83
tp1573
a(S'w'
I726
tp1574
a(S'tr_tl'
I225
tp1575
a(S'w'
I7
tp1576
a(S'p1_tl'
I83
tp1577
a(S'w'
I6
tp1578
a(S'p1_vo'
I5
tp1579
a(S'w'
I1
tp1580
a(S'p1_tl'
I84
tp1581
a(S'w'
I720
tp1582
a(S'tr_tl'
I226
tp1583
a(S'w'
I8
tp1584
a(S'p1_tl'
I85
tp1585
a(S'w'
I725
tp1586
a(S'tr_tl'
I227
tp1587
a(S'w'
I7
tp1588
a(S'p1_tl'
I85
tp1589
a(S'w'
I727
tp1590
a(S'tr_tl'
I226
tp1591
a(S'w'
I8
tp1592
a(S'p1_tl'
I84
tp1593
a(S'w'
I726
tp1594
a(S'tr_tl'
I225
tp1595
a(S'w'
I7
tp1596
a(S'p1_tl'
I84
tp1597
a(S'w'
I727
tp1598
a(S'tr_tl'
I226
tp1599
a(S'w'
I9
tp1600
a(S'p1_tl'
I83
tp1601
a(S'w'
I725
tp1602
a(S'tr_tl'
I227
tp1603
a(S'w'
I7
tp1604
a(S'p1_tl'
I83
tp1605
a(S'w'
I726
tp1606
a(S'tr_tl'
I226
tp1607
a(S'w'
I5
tp1608
a(S'p2_vo'
I13
tp1609
a(S'w'
I4
tp1610
a(S'p1_tl'
I84
tp1611
a(S'w'
I725
tp1612
a(S'tr_tl'
I225
tp1613
a(S'w'
I7
tp1614
a(S'p1_tl'
I84
tp1615
a(S'w'
I727
tp1616
a(S'tr_tl'
I226
tp1617
a(S'w'
I8
tp1618
a(S'p1_tl'
I85
tp1619
a(S'w'
I726
tp1620
a(S'tr_tl'
I227
tp1621
a(S'w'
I7
tp1622
a(S'p1_tl'
I85
tp1623
a(S'w'
I727
tp1624
a(S'tr_tl'
I226
tp1625
a(S'w'
I8
tp1626
a(S'p1_tl'
I84
tp1627
a(S'w'
I725
tp1628
a(S'tr_tl'
I225
tp1629
a(S'w'
I7
tp1630
a(S'p1_tl'
I84
tp1631
a(S'w'
I727
tp1632
a(S'tr_tl'
I226
tp1633
a(S'w'
I9
tp1634
a(S'p1_tl'
I83
tp1635
a(S'w'
I725
tp1636
a(S'tr_tl'
I227
tp1637
a(S'w'
I7
tp1638
a(S'p1_tl'
I83
tp1639
a(S'w'
I727
tp1640
a(S'tr_tl'
I226
tp1641
a(S'w'
I8
tp1642
a(S'p1_tl'
I84
tp1643
a(S'w'
I726
tp1644
a(S'tr_tl'
I225
tp1645
a(S'w'
I7
tp1646
a(S'p1_tl'
I84
tp1647
a(S'w'
I726
tp1648
a(S'tr_tl'
I226
tp1649
a(S'w'
I8
tp1650
a(S'p1_tl'
I85
tp1651
a(S'w'
I726
tp1652
a(S'tr_tl'
I227
tp1653
a(S'w'
I7
tp1654
a(S'p1_tl'
I85
tp1655
a(S'w'
I727
tp1656
a(S'tr_tl'
I226
tp1657
a(S'w'
I8
tp1658
a(S'p1_tl'
I84
tp1659
a(S'w'
I726
tp1660
a(S'tr_tl'
I225
tp1661
a(S'w'
I7
tp1662
a(S'p1_tl'
I84
tp1663
a(S'w'
I727
tp1664
a(S'tr_tl'
I226
tp1665
a(S'w'
I9
tp1666
a(S'p1_tl'
I83
tp1667
a(S'w'
I724
tp1668
a(S'tr_tl'
I227
tp1669
a(S'w'
I7
tp1670
a(S'p1_tl'
I83
tp1671
a(S'w'
I727
tp1672
a(S'tr_tl'
I226
tp1673
a(S'w'
I5
tp1674
a(S'p2_vo'
I12
tp1675
a(S'w'
I4
tp1676
a(S'p1_tl'
I84
tp1677
a(S'w'
I725
tp1678
a(S'tr_tl'
I225
tp1679
a(S'w'
I7
tp1680
a(S'p1_tl'
I84
tp1681
a(S'w'
I6
tp1682
a(S'p1_vo'
I2
tp1683
a(S'w'
I1
tp1684
a(S'p1_tl'
I85
tp1685
a(S'w'
I720
tp1686
a(S'tr_tl'
I226
tp1687
a(S'w'
I8
tp1688
a(S'p1_tl'
I86
tp1689
a(S'w'
I725
tp1690
a(S'tr_tl'
I227
tp1691
a(S'w'
I7
tp1692
a(S'p1_tl'
I86
tp1693
a(S'w'
I727
tp1694
a(S'tr_tl'
I226
tp1695
a(S'w'
I8
tp1696
a(S'p1_tl'
I85
tp1697
a(S'w'
I726
tp1698
a(S'tr_tl'
I225
tp1699
a(S'w'
I7
tp1700
a(S'p1_tl'
I85
tp1701
a(S'w'
I727
tp1702
a(S'tr_tl'
I226
tp1703
a(S'w'
I9
tp1704
a(S'p1_tl'
I84
tp1705
a(S'w'
I725
tp1706
a(S'tr_tl'
I227
tp1707
a(S'w'
I7
tp1708
a(S'p1_tl'
I84
tp1709
a(S'w'
I726
tp1710
a(S'tr_tl'
I226
tp1711
a(S'w'
I8
tp1712
a(S'p1_tl'
I85
tp1713
a(S'w'
I726
tp1714
a(S'tr_tl'
I225
tp1715
a(S'w'
I7
tp1716
a(S'p1_tl'
I85
tp1717
a(S'w'
I727
tp1718
a(S'tr_tl'
I226
tp1719
a(S'w'
I8
tp1720
a(S'p1_tl'
I86
tp1721
a(S'w'
I726
tp1722
a(S'tr_tl'
I227
tp1723
a(S'w'
I7
tp1724
a(S'p1_tl'
I86
tp1725
a(S'w'
I727
tp1726
a(S'tr_tl'
I226
tp1727
a(S'w'
I8
tp1728
a(S'p1_tl'
I85
tp1729
a(S'w'
I725
tp1730
a(S'tr_tl'
I225
tp1731
a(S'w'
I7
tp1732
a(S'p1_tl'
I85
tp1733
a(S'w'
I727
tp1734
a(S'tr_tl'
I226
tp1735
a(S'w'
I9
tp1736
a(S'p1_tl'
I84
tp1737
a(S'w'
I725
tp1738
a(S'tr_tl'
I227
tp1739
a(S'w'
I7
tp1740
a(S'p1_tl'
I84
tp1741
a(S'w'
I727
tp1742
a(S'tr_tl'
I226
tp1743
a(S'w'
I5
tp1744
a(S'p2_vo'
I11
tp1745
a(S'w'
I4
tp1746
a(S'p1_tl'
I85
tp1747
a(S'w'
I725
tp1748
a(S'tr_tl'
I225
tp1749
a(S'w'
I7
tp1750
a(S'p1_tl'
I85
tp1751
a(S'w'
I726
tp1752
a(S'tr_tl'
I226
tp1753
a(S'w'
I8
tp1754
a(S'p1_tl'
I86
tp1755
a(S'w'
I726
tp1756
a(S'tr_tl'
I227
tp1757
a(S'w'
I7
tp1758
a(S'p1_tl'
I86
tp1759
a(S'w'
I727
tp1760
a(S'tr_tl'
I226
tp1761
a(S'w'
I8
tp1762
a(S'p1_tl'
I85
tp1763
a(S'w'
I726
tp1764
a(S'tr_tl'
I225
tp1765
a(S'w'
I7
tp1766
a(S'p1_tl'
I85
tp1767
a(S'w'
I725
tp1768
a(S'no_cv'
I1
tp1769
a(S'no_vo'
I0
tp1770
a(S'no_np'
I0
tp1771
a(S'w'
I5
tp1772
a(S'tr_tl'
I226
tp1773
a(S'w'
I3
tp1774
a(S'tr_lh'
I0
tp1775
a(S'tr_lr'
I0
tp1776
a(S'w'
I9
tp1777
a(S'p2_du'
I0
tp1778
a(S'p2_vo'
I0
tp1779
a(S'p2_se'
I0
tp1780
a(S'p2_sn'
I0
tp1781
a(S'p2_tl'
I0
tp1782
a(S'w'
I6
tp1783
a(S'p1_tl'
I84
tp1784
a(S'w'
I6
tp1785
a(S'p1_du'
I0
tp1786
a(S'p1_vo'
I0
tp1787
a(S'p1_se'
I0
tp1788
a(S'p1_sn'
I0
tp1789
a(S'p1_tl'
I0
tp1790
a(S'w'
I146
tp1791
a.