(lp1
(S'clock'
p2
I1789773
tp3
a(S'ch_no'
I1
tp4
a(S'ch_tr'
I1
tp5
a(S'ch_p2'
I1
tp6
a(S'ch_p1'
I1
tp7
a(S'w'
I17
tp8
a(S'no_vo'
I1
tp9
a(S'w'
I1
tp10
a(S'no_ll'
I1
tp11
a(S'no_np'
I4
tp12
a(S'w'
I11
tp13
a(S'tr_lr'
I16
tp14
a(S'w'
I1
tp15
a(S'tr_ll'
I1
tp16
a(S'tr_th'
I1
tp17
a(S'tr_tl'
I125
tp18
a(S'w'
I12
tp19
a(S'p2_du'
I2
tp20
a(S'p2_vo'
I2
tp21
a(S'p2_se'
I1
tp22
a(S'p2_ss'
I4
tp23
a(S'w'
I1
tp24
a(S'p2_ll'
I1
tp25
a(S'p2_th'
I2
tp26
a(S'p2_tl'
I92
tp27
a(S'w'
I13
tp28
a(S'p1_du'
I2
tp29
a(S'p1_vo'
I1
tp30
a(S'p1_se'
I1
tp31
a(S'p1_sn'
I1
tp32
a(S'w'
I1
tp33
a(S'p1_ll'
I1
tp34
a(S'p1_th'
I2
tp35
a(S'p1_tl'
I58
tp36
a(S'w'
I690
tp37
a(S'no_ll'
I1
tp38
a(S'no_np'
I0
tp39
a(S'w'
I10
tp40
a(S'p1_tl'
I59
tp41
a(S'w'
I730
tp42
a(S'p2_sn'
I1
tp43
a(S'p2_ss'
I0
tp44
a(S'w'
I1
tp45
a(S'p2_ll'
I1
tp46
a(S'p2_th'
I3
tp47
a(S'p2_tl'
I249
tp48
a(S'w'
I5
tp49
a(S'p1_tl'
I58
tp50
a(S'w'
I728
tp51
a(S'p1_tl'
I57
tp52
a(S'w'
I734
tp53
a(S'p1_tl'
I58
tp54
a(S'w'
I733
tp55
a(S'p1_tl'
I59
tp56
a(S'w'
I728
tp57
a(S'no_ll'
I1
tp58
a(S'no_np'
I4
tp59
a(S'w'
I7
tp60
a(S'tr_ll'
I1
tp61
a(S'tr_tl'
I103
tp62
a(S'w'
I8
tp63
a(S'p2_sn'
I0
tp64
a(S'p2_ss'
I4
tp65
a(S'p2_ll'
I1
tp66
a(S'p2_th'
I2
tp67
a(S'p2_tl'
I92
tp68
a(S'w'
I5
tp69
a(S'p1_tl'
I58
tp70
a(S'w'
I4
tp71
a(S'p1_ll'
I1
tp72
a(S'p1_tl'
I26
tp73
a(S'w'
I710
tp74
a(S'no_ll'
I1
tp75
a(S'no_np'
I0
tp76
a(S'w'
I11
tp77
a(S'p1_tl'
I25
tp78
a(S'w'
I729
tp79
a(S'p2_sn'
I1
tp80
a(S'p2_ss'
I0
tp81
a(S'w'
I1
tp82
a(S'p2_ll'
I1
tp83
a(S'p2_th'
I4
tp84
a(S'p2_tl'
I117
tp85
a(S'w'
I5
tp86
a(S'p1_tl'
I26
tp87
a(S'w'
I728
tp88
a(S'p1_tl'
I27
tp89
a(S'w'
I733
tp90
a(S'p1_tl'
I26
tp91
a(S'w'
I734
tp92
a(S'p1_tl'
I25
tp93
a(S'w'
I728
tp94
a(S'no_ll'
I1
tp95
a(S'no_nl'
I1
tp96
a(S'no_np'
I9
tp97
a(S'w'
I7
tp98
a(S'tr_ll'
I1
tp99
a(S'tr_tl'
I83
tp100
a(S'w'
I6
tp101
a(S'p2_ll'
I1
tp102
a(S'p2_th'
I1
tp103
a(S'w'
I1
tp104
a(S'p2_tl'
I197
tp105
a(S'w'
I4
tp106
a(S'p1_tl'
I26
tp107
a(S'w'
I4
tp108
a(S'p1_ll'
I1
tp109
a(S'p1_th'
I1
tp110
a(S'w'
I1
tp111
a(S'p1_tl'
I252
tp112
a(S'w'
I711
tp113
a(S'no_ll'
I1
tp114
a(S'no_nl'
I0
tp115
a(S'no_np'
I4
tp116
a(S'w'
I10
tp117
a(S'p1_tl'
I253
tp118
a(S'w'
I729
tp119
a(S'p2_ll'
I1
tp120
a(S'p2_th'
I3
tp121
a(S'p2_tl'
I249
tp122
a(S'w'
I5
tp123
a(S'p1_tl'
I252
tp124
a(S'w'
I729
tp125
a(S'p1_tl'
I251
tp126
a(S'w'
I734
tp127
a(S'p1_tl'
I252
tp128
a(S'w'
I734
tp129
a(S'p1_tl'
I253
tp130
a(S'w'
I730
tp131
a(S'tr_ll'
I1
tp132
a(S'w'
I7
tp133
a(S'p2_ll'
I1
tp134
a(S'w'
I1
tp135
a(S'p2_tl'
I249
tp136
a(S'w'
I4
tp137
a(S'p1_tl'
I252
tp138
a(S'w'
I4
tp139
a(S'p1_ll'
I1
tp140
a(S'w'
I1
tp141
a(S'p1_tl'
I252
tp142
a(S'w'
I721
tp143
a(S'p1_tl'
I251
tp144
a(S'w'
I733
tp145
a(S'p1_tl'
I252
tp146
a(S'w'
I734
tp147
a(S'p1_tl'
I253
tp148
a(S'w'
I734
tp149
a(S'p1_tl'
I252
tp150
a(S'w'
I734
tp151
a(S'p1_tl'
I251
tp152
a(S'w'
I728
tp153
a(S'no_ll'
I1
tp154
a(S'w'
I7
tp155
a(S'tr_ll'
I1
tp156
a(S'w'
I9
tp157
a(S'p2_sn'
I0
tp158
a(S'p2_ss'
I4
tp159
a(S'w'
I1
tp160
a(S'p2_ll'
I1
tp161
a(S'p2_th'
I2
tp162
a(S'p2_tl'
I92
tp163
a(S'w'
I5
tp164
a(S'p1_tl'
I252
tp165
a(S'w'
I4
tp166
a(S'p1_ll'
I1
tp167
a(S'p1_tl'
I252
tp168
a(S'w'
I707
tp169
a(S'no_ll'
I1
tp170
a(S'no_np'
I0
tp171
a(S'w'
I10
tp172
a(S'p1_tl'
I253
tp173
a(S'w'
I730
tp174
a(S'p2_sn'
I1
tp175
a(S'p2_ss'
I0
tp176
a(S'w'
I1
tp177
a(S'p2_ll'
I1
tp178
a(S'p2_th'
I3
tp179
a(S'p2_tl'
I249
tp180
a(S'w'
I5
tp181
a(S'p1_tl'
I252
tp182
a(S'w'
I728
tp183
a(S'p1_tl'
I251
tp184
a(S'w'
I734
tp185
a(S'p1_tl'
I252
tp186
a(S'w'
I733
tp187
a(S'p1_tl'
I253
tp188
a(S'w'
I728
tp189
a(S'no_ll'
I1
tp190
a(S'no_np'
I4
tp191
a(S'w'
I7
tp192
a(S'tr_ll'
I1
tp193
a(S'w'
I8
tp194
a(S'p2_sn'
I0
tp195
a(S'p2_ss'
I4
tp196
a(S'p2_ll'
I1
tp197
a(S'p2_th'
I2
tp198
a(S'p2_tl'
I92
tp199
a(S'w'
I5
tp200
a(S'p1_tl'
I252
tp201
a(S'w'
I4
tp202
a(S'p1_ll'
I1
tp203
a(S'p1_tl'
I252
tp204
a(S'w'
I710
tp205
a(S'no_ll'
I1
tp206
a(S'no_np'
I0
tp207
a(S'w'
I11
tp208
a(S'p1_tl'
I251
tp209
a(S'w'
I729
tp210
a(S'p2_sn'
I1
tp211
a(S'p2_ss'
I0
tp212
a(S'w'
I1
tp213
a(S'p2_ll'
I1
tp214
a(S'p2_th'
I4
tp215
a(S'p2_tl'
I117
tp216
a(S'w'
I5
tp217
a(S'p1_tl'
I252
tp218
a(S'w'
I728
tp219
a(S'p1_tl'
I253
tp220
a(S'w'
I733
tp221
a(S'p1_tl'
I252
tp222
a(S'w'
I734
tp223
a(S'p1_tl'
I251
tp224
a(S'w'
I728
tp225
a(S'no_ll'
I1
tp226
a(S'no_nl'
I1
tp227
a(S'no_np'
I9
tp228
a(S'w'
I7
tp229
a(S'tr_ll'
I1
tp230
a(S'w'
I6
tp231
a(S'p2_ll'
I1
tp232
a(S'p2_th'
I1
tp233
a(S'w'
I1
tp234
a(S'p2_tl'
I197
tp235
a(S'w'
I4
tp236
a(S'p1_tl'
I252
tp237
a(S'w'
I4
tp238
a(S'p1_ll'
I1
tp239
a(S'w'
I1
tp240
a(S'p1_tl'
I252
tp241
a(S'w'
I711
tp242
a(S'no_ll'
I1
tp243
a(S'no_nl'
I0
tp244
a(S'no_np'
I4
tp245
a(S'w'
I10
tp246
a(S'p1_tl'
I253
tp247
a(S'w'
I729
tp248
a(S'p2_ll'
I1
tp249
a(S'p2_th'
I3
tp250
a(S'p2_tl'
I249
tp251
a(S'w'
I5
tp252
a(S'p1_tl'
I252
tp253
a(S'w'
I729
tp254
a(S'p1_tl'
I251
tp255
a(S'w'
I734
tp256
a(S'p1_tl'
I252
tp257
a(S'w'
I734
tp258
a(S'p1_tl'
I253
tp259
a(S'w'
I730
tp260
a(S'tr_ll'
I1
tp261
a(S'w'
I7
tp262
a(S'p2_ll'
I1
tp263
a(S'w'
I1
tp264
a(S'p2_tl'
I249
tp265
a(S'w'
I4
tp266
a(S'p1_tl'
I252
tp267
a(S'w'
I4
tp268
a(S'p1_ll'
I1
tp269
a(S'w'
I1
tp270
a(S'p1_tl'
I252
tp271
a(S'w'
I721
tp272
a(S'p1_tl'
I251
tp273
a(S'w'
I733
tp274
a(S'p1_tl'
I252
tp275
a(S'w'
I734
tp276
a(S'p1_tl'
I253
tp277
a(S'w'
I734
tp278
a(S'p1_tl'
I252
tp279
a(S'w'
I734
tp280
a(S'p1_tl'
I251
tp281
a(S'w'
I728
tp282
a(S'no_ll'
I1
tp283
a(S'w'
I7
tp284
a(S'tr_ll'
I1
tp285
a(S'tr_tl'
I29
tp286
a(S'w'
I9
tp287
a(S'p2_sn'
I0
tp288
a(S'p2_ss'
I4
tp289
a(S'p2_ll'
I1
tp290
a(S'p2_th'
I2
tp291
a(S'w'
I1
tp292
a(S'p2_tl'
I92
tp293
a(S'w'
I4
tp294
a(S'p1_tl'
I252
tp295
a(S'w'
I4
tp296
a(S'p1_ll'
I1
tp297
a(S'p1_tl'
I171
tp298
a(S'w'
I708
tp299
a(S'no_ll'
I1
tp300
a(S'no_np'
I0
tp301
a(S'w'
I10
tp302
a(S'p1_tl'
I172
tp303
a(S'w'
I730
tp304
a(S'p2_sn'
I1
tp305
a(S'p2_ss'
I0
tp306
a(S'w'
I1
tp307
a(S'p2_ll'
I1
tp308
a(S'p2_th'
I3
tp309
a(S'p2_tl'
I249
tp310
a(S'w'
I5
tp311
a(S'p1_tl'
I171
tp312
a(S'w'
I728
tp313
a(S'p1_tl'
I170
tp314
a(S'w'
I734
tp315
a(S'p1_tl'
I171
tp316
a(S'w'
I733
tp317
a(S'p1_tl'
I172
tp318
a(S'w'
I728
tp319
a(S'no_ll'
I1
tp320
a(S'no_np'
I4
tp321
a(S'w'
I10
tp322
a(S'p2_sn'
I0
tp323
a(S'p2_ss'
I4
tp324
a(S'w'
I1
tp325
a(S'p2_ll'
I1
tp326
a(S'p2_th'
I2
tp327
a(S'p2_tl'
I92
tp328
a(S'w'
I5
tp329
a(S'p1_tl'
I171
tp330
a(S'w'
I718
tp331
a(S'no_ll'
I1
tp332
a(S'no_np'
I0
tp333
a(S'w'
I11
tp334
a(S'p1_tl'
I170
tp335
a(S'w'
I729
tp336
a(S'p2_sn'
I1
tp337
a(S'p2_ss'
I0
tp338
a(S'w'
I1
tp339
a(S'p2_ll'
I1
tp340
a(S'p2_th'
I3
tp341
a(S'p2_tl'
I249
tp342
a(S'w'
I5
tp343
a(S'p1_tl'
I171
tp344
a(S'w'
I728
tp345
a(S'p1_tl'
I172
tp346
a(S'w'
I733
tp347
a(S'p1_tl'
I171
tp348
a(S'w'
I734
tp349
a(S'p1_tl'
I170
tp350
a(S'w'
I728
tp351
a(S'no_ll'
I1
tp352
a(S'no_nl'
I1
tp353
a(S'no_np'
I9
tp354
a(S'w'
I7
tp355
a(S'tr_ll'
I1
tp356
a(S'tr_tl'
I83
tp357
a(S'w'
I6
tp358
a(S'p2_ll'
I1
tp359
a(S'p2_th'
I1
tp360
a(S'w'
I1
tp361
a(S'p2_tl'
I197
tp362
a(S'w'
I4
tp363
a(S'p1_tl'
I171
tp364
a(S'w'
I4
tp365
a(S'p1_ll'
I1
tp366
a(S'w'
I1
tp367
a(S'p1_tl'
I252
tp368
a(S'w'
I711
tp369
a(S'no_ll'
I1
tp370
a(S'no_nl'
I0
tp371
a(S'no_np'
I4
tp372
a(S'w'
I10
tp373
a(S'p1_tl'
I253
tp374
a(S'w'
I729
tp375
a(S'p2_ll'
I1
tp376
a(S'p2_th'
I3
tp377
a(S'p2_tl'
I249
tp378
a(S'w'
I5
tp379
a(S'p1_tl'
I252
tp380
a(S'w'
I729
tp381
a(S'p1_tl'
I251
tp382
a(S'w'
I734
tp383
a(S'p1_tl'
I252
tp384
a(S'w'
I734
tp385
a(S'p1_tl'
I253
tp386
a(S'w'
I728
tp387
a(S'no_ll'
I1
tp388
a(S'w'
I8
tp389
a(S'tr_lh'
I1
tp390
a(S'tr_lr'
I127
tp391
a(S'tr_ll'
I1
tp392
a(S'tr_th'
I0
tp393
a(S'tr_tl'
I254
tp394
a(S'w'
I8
tp395
a(S'p2_sn'
I0
tp396
a(S'p2_ss'
I4
tp397
a(S'w'
I1
tp398
a(S'p2_ll'
I1
tp399
a(S'p2_th'
I2
tp400
a(S'p2_tl'
I92
tp401
a(S'w'
I5
tp402
a(S'p1_tl'
I252
tp403
a(S'w'
I7
tp404
a(S'p1_vo'
I15
tp405
a(S'p1_ll'
I1
tp406
a(S'w'
I1
tp407
a(S'p1_tl'
I125
tp408
a(S'w'
I704
tp409
a(S'no_ll'
I1
tp410
a(S'no_np'
I0
tp411
a(S'w'
I11
tp412
a(S'p1_tl'
I126
tp413
a(S'w'
I728
tp414
a(S'p2_sn'
I1
tp415
a(S'p2_ss'
I0
tp416
a(S'w'
I1
tp417
a(S'p2_ll'
I1
tp418
a(S'p2_th'
I3
tp419
a(S'p2_tl'
I249
tp420
a(S'w'
I5
tp421
a(S'p1_tl'
I125
tp422
a(S'w'
I729
tp423
a(S'p1_tl'
I124
tp424
a(S'w'
I733
tp425
a(S'p1_tl'
I125
tp426
a(S'w'
I735
tp427
a(S'p1_tl'
I126
tp428
a(S'w'
I727
tp429
a(S'no_ll'
I1
tp430
a(S'no_np'
I4
tp431
a(S'w'
I10
tp432
a(S'p2_sn'
I0
tp433
a(S'p2_ss'
I4
tp434
a(S'w'
I1
tp435
a(S'p2_ll'
I1
tp436
a(S'p2_th'
I2
tp437
a(S'p2_tl'
I92
tp438
a(S'w'
I5
tp439
a(S'p1_tl'
I125
tp440
a(S'w'
I717
tp441
a(S'no_ll'
I1
tp442
a(S'no_np'
I0
tp443
a(S'w'
I11
tp444
a(S'p1_tl'
I124
tp445
a(S'w'
I729
tp446
a(S'p2_sn'
I1
tp447
a(S'p2_ss'
I0
tp448
a(S'w'
I1
tp449
a(S'p2_ll'
I1
tp450
a(S'p2_th'
I3
tp451
a(S'p2_tl'
I249
tp452
a(S'w'
I5
tp453
a(S'p1_tl'
I125
tp454
a(S'w'
I729
tp455
a(S'p1_tl'
I126
tp456
a(S'w'
I734
tp457
a(S'p1_tl'
I125
tp458
a(S'w'
I733
tp459
a(S'p1_tl'
I124
tp460
a(S'w'
I727
tp461
a(S'no_ll'
I1
tp462
a(S'no_np'
I4
tp463
a(S'w'
I10
tp464
a(S'p2_sn'
I0
tp465
a(S'p2_ss'
I4
tp466
a(S'w'
I1
tp467
a(S'p2_ll'
I1
tp468
a(S'p2_th'
I2
tp469
a(S'p2_tl'
I92
tp470
a(S'w'
I5
tp471
a(S'p1_tl'
I125
tp472
a(S'w'
I718
tp473
a(S'no_ll'
I1
tp474
a(S'no_np'
I0
tp475
a(S'w'
I11
tp476
a(S'p1_tl'
I126
tp477
a(S'w'
I729
tp478
a(S'p2_sn'
I1
tp479
a(S'p2_ss'
I0
tp480
a(S'w'
I1
tp481
a(S'p2_ll'
I1
tp482
a(S'p2_th'
I3
tp483
a(S'p2_tl'
I249
tp484
a(S'w'
I5
tp485
a(S'p1_tl'
I125
tp486
a(S'w'
I729
tp487
a(S'p1_tl'
I124
tp488
a(S'w'
I732
tp489
a(S'p1_tl'
I125
tp490
a(S'w'
I735
tp491
a(S'p1_tl'
I126
tp492
a(S'w'
I727
tp493
a(S'no_ll'
I1
tp494
a(S'no_nl'
I1
tp495
a(S'no_np'
I9
tp496
a(S'w'
I9
tp497
a(S'p2_ll'
I1
tp498
a(S'p2_th'
I1
tp499
a(S'w'
I1
tp500
a(S'p2_tl'
I197
tp501
a(S'w'
I5
tp502
a(S'p1_tl'
I125
tp503
a(S'w'
I719
tp504
a(S'no_ll'
I1
tp505
a(S'no_nl'
I0
tp506
a(S'no_np'
I4
tp507
a(S'w'
I11
tp508
a(S'p1_tl'
I124
tp509
a(S'w'
I728
tp510
a(S'p2_ll'
I1
tp511
a(S'p2_th'
I3
tp512
a(S'p2_tl'
I249
tp513
a(S'w'
I5
tp514
a(S'p1_tl'
I125
tp515
a(S'w'
I730
tp516
a(S'p1_tl'
I126
tp517
a(S'w'
I734
tp518
a(S'p1_tl'
I125
tp519
a(S'w'
I734
tp520
a(S'p1_tl'
I124
tp521
a(S'w'
I732
tp522
a(S'p2_ll'
I1
tp523
a(S'p2_tl'
I249
tp524
a(S'w'
I5
tp525
a(S'p1_tl'
I125
tp526
a(S'w'
I731
tp527
a(S'p1_tl'
I126
tp528
a(S'w'
I733
tp529
a(S'p1_tl'
I125
tp530
a(S'w'
I734
tp531
a(S'p1_tl'
I124
tp532
a(S'w'
I733
tp533
a(S'p1_tl'
I125
tp534
a(S'w'
I735
tp535
a(S'p1_tl'
I126
tp536
a(S'w'
I729
tp537
a(S'no_ll'
I1
tp538
a(S'w'
I7
tp539
a(S'tr_lh'
I0
tp540
a(S'tr_lr'
I16
tp541
a(S'w'
I1
tp542
a(S'tr_ll'
I1
tp543
a(S'tr_th'
I1
tp544
a(S'tr_tl'
I125
tp545
a(S'w'
I10
tp546
a(S'p2_sn'
I0
tp547
a(S'p2_ss'
I4
tp548
a(S'p2_ll'
I1
tp549
a(S'p2_th'
I2
tp550
a(S'p2_tl'
I92
tp551
a(S'w'
I6
tp552
a(S'p1_tl'
I125
tp553
a(S'w'
I7
tp554
a(S'p1_vo'
I1
tp555
a(S'p1_ll'
I1
tp556
a(S'p1_th'
I2
tp557
a(S'w'
I1
tp558
a(S'p1_tl'
I58
tp559
a(S'w'
I699
tp560
a(S'no_ll'
I1
tp561
a(S'no_np'
I0
tp562
a(S'w'
I10
tp563
a(S'p1_tl'
I59
tp564
a(S'w'
I730
tp565
a(S'p2_sn'
I1
tp566
a(S'p2_ss'
I0
tp567
a(S'w'
I1
tp568
a(S'p2_ll'
I1
tp569
a(S'p2_th'
I3
tp570
a(S'p2_tl'
I249
tp571
a(S'w'
I5
tp572
a(S'p1_tl'
I58
tp573
a(S'w'
I728
tp574
a(S'p1_tl'
I57
tp575
a(S'w'
I734
tp576
a(S'p1_tl'
I58
tp577
a(S'w'
I733
tp578
a(S'p1_tl'
I59
tp579
a(S'w'
I728
tp580
a(S'no_ll'
I1
tp581
a(S'no_np'
I4
tp582
a(S'w'
I7
tp583
a(S'tr_ll'
I1
tp584
a(S'tr_tl'
I103
tp585
a(S'w'
I8
tp586
a(S'p2_sn'
I0
tp587
a(S'p2_ss'
I4
tp588
a(S'p2_ll'
I1
tp589
a(S'p2_th'
I2
tp590
a(S'p2_tl'
I92
tp591
a(S'w'
I5
tp592
a(S'p1_tl'
I58
tp593
a(S'w'
I4
tp594
a(S'p1_ll'
I1
tp595
a(S'p1_tl'
I26
tp596
a(S'w'
I710
tp597
a(S'no_ll'
I1
tp598
a(S'no_np'
I0
tp599
a(S'w'
I11
tp600
a(S'p1_tl'
I25
tp601
a(S'w'
I729
tp602
a(S'p2_sn'
I1
tp603
a(S'p2_ss'
I0
tp604
a(S'w'
I1
tp605
a(S'p2_ll'
I1
tp606
a(S'p2_th'
I3
tp607
a(S'p2_tl'
I249
tp608
a(S'w'
I5
tp609
a(S'p1_tl'
I26
tp610
a(S'w'
I728
tp611
a(S'p1_tl'
I27
tp612
a(S'w'
I733
tp613
a(S'p1_tl'
I26
tp614
a(S'w'
I734
tp615
a(S'p1_tl'
I25
tp616
a(S'w'
I728
tp617
a(S'no_ll'
I1
tp618
a(S'no_nl'
I1
tp619
a(S'no_np'
I9
tp620
a(S'w'
I7
tp621
a(S'tr_ll'
I1
tp622
a(S'tr_tl'
I83
tp623
a(S'w'
I6
tp624
a(S'p2_ll'
I1
tp625
a(S'p2_th'
I1
tp626
a(S'w'
I1
tp627
a(S'p2_tl'
I197
tp628
a(S'w'
I4
tp629
a(S'p1_tl'
I26
tp630
a(S'w'
I4
tp631
a(S'p1_ll'
I1
tp632
a(S'p1_th'
I1
tp633
a(S'w'
I1
tp634
a(S'p1_tl'
I252
tp635
a(S'w'
I711
tp636
a(S'no_ll'
I1
tp637
a(S'no_nl'
I0
tp638
a(S'no_np'
I4
tp639
a(S'w'
I10
tp640
a(S'p1_tl'
I253
tp641
a(S'w'
I729
tp642
a(S'p2_ll'
I1
tp643
a(S'p2_th'
I3
tp644
a(S'p2_tl'
I249
tp645
a(S'w'
I5
tp646
a(S'p1_tl'
I252
tp647
a(S'w'
I729
tp648
a(S'p1_tl'
I251
tp649
a(S'w'
I734
tp650
a(S'p1_tl'
I252
tp651
a(S'w'
I734
tp652
a(S'p1_tl'
I253
tp653
a(S'w'
I730
tp654
a(S'tr_ll'
I1
tp655
a(S'w'
I7
tp656
a(S'p2_ll'
I1
tp657
a(S'w'
I1
tp658
a(S'p2_tl'
I249
tp659
a(S'w'
I4
tp660
a(S'p1_tl'
I252
tp661
a(S'w'
I4
tp662
a(S'p1_ll'
I1
tp663
a(S'w'
I1
tp664
a(S'p1_tl'
I252
tp665
a(S'w'
I721
tp666
a(S'p1_tl'
I251
tp667
a(S'w'
I733
tp668
a(S'p1_tl'
I252
tp669
a(S'w'
I734
tp670
a(S'p1_tl'
I253
tp671
a(S'w'
I734
tp672
a(S'p1_tl'
I252
tp673
a(S'w'
I734
tp674
a(S'p1_tl'
I251
tp675
a(S'w'
I728
tp676
a(S'no_ll'
I1
tp677
a(S'w'
I7
tp678
a(S'tr_ll'
I1
tp679
a(S'w'
I9
tp680
a(S'p2_sn'
I0
tp681
a(S'p2_ss'
I4
tp682
a(S'w'
I1
tp683
a(S'p2_ll'
I1
tp684
a(S'p2_th'
I2
tp685
a(S'p2_tl'
I92
tp686
a(S'w'
I5
tp687
a(S'p1_tl'
I252
tp688
a(S'w'
I4
tp689
a(S'p1_ll'
I1
tp690
a(S'p1_tl'
I252
tp691
a(S'w'
I707
tp692
a(S'no_ll'
I1
tp693
a(S'no_np'
I0
tp694
a(S'w'
I10
tp695
a(S'p1_tl'
I253
tp696
a(S'w'
I730
tp697
a(S'p2_sn'
I1
tp698
a(S'p2_ss'
I0
tp699
a(S'w'
I1
tp700
a(S'p2_ll'
I1
tp701
a(S'p2_th'
I3
tp702
a(S'p2_tl'
I249
tp703
a(S'w'
I5
tp704
a(S'p1_tl'
I252
tp705
a(S'w'
I728
tp706
a(S'p1_tl'
I251
tp707
a(S'w'
I734
tp708
a(S'p1_tl'
I252
tp709
a(S'w'
I733
tp710
a(S'p1_tl'
I253
tp711
a(S'w'
I728
tp712
a(S'no_ll'
I1
tp713
a(S'no_np'
I4
tp714
a(S'w'
I7
tp715
a(S'tr_ll'
I1
tp716
a(S'w'
I8
tp717
a(S'p2_sn'
I0
tp718
a(S'p2_ss'
I4
tp719
a(S'p2_ll'
I1
tp720
a(S'p2_th'
I2
tp721
a(S'p2_tl'
I92
tp722
a(S'w'
I5
tp723
a(S'p1_tl'
I252
tp724
a(S'w'
I4
tp725
a(S'p1_ll'
I1
tp726
a(S'p1_tl'
I252
tp727
a(S'w'
I710
tp728
a(S'no_ll'
I1
tp729
a(S'no_np'
I0
tp730
a(S'w'
I11
tp731
a(S'p1_tl'
I251
tp732
a(S'w'
I729
tp733
a(S'p2_sn'
I1
tp734
a(S'p2_ss'
I0
tp735
a(S'w'
I1
tp736
a(S'p2_ll'
I1
tp737
a(S'p2_th'
I3
tp738
a(S'p2_tl'
I249
tp739
a(S'w'
I5
tp740
a(S'p1_tl'
I252
tp741
a(S'w'
I728
tp742
a(S'p1_tl'
I253
tp743
a(S'w'
I733
tp744
a(S'p1_tl'
I252
tp745
a(S'w'
I734
tp746
a(S'p1_tl'
I251
tp747
a(S'w'
I728
tp748
a(S'no_ll'
I1
tp749
a(S'no_nl'
I1
tp750
a(S'no_np'
I9
tp751
a(S'w'
I7
tp752
a(S'tr_ll'
I1
tp753
a(S'w'
I6
tp754
a(S'p2_ll'
I1
tp755
a(S'p2_th'
I1
tp756
a(S'w'
I1
tp757
a(S'p2_tl'
I197
tp758
a(S'w'
I4
tp759
a(S'p1_tl'
I252
tp760
a(S'w'
I4
tp761
a(S'p1_ll'
I1
tp762
a(S'w'
I1
tp763
a(S'p1_tl'
I252
tp764
a(S'w'
I711
tp765
a(S'no_ll'
I1
tp766
a(S'no_nl'
I0
tp767
a(S'no_np'
I4
tp768
a(S'w'
I10
tp769
a(S'p1_tl'
I253
tp770
a(S'w'
I729
tp771
a(S'p2_ll'
I1
tp772
a(S'p2_th'
I3
tp773
a(S'p2_tl'
I249
tp774
a(S'w'
I5
tp775
a(S'p1_tl'
I252
tp776
a(S'w'
I729
tp777
a(S'p1_tl'
I251
tp778
a(S'w'
I734
tp779
a(S'p1_tl'
I252
tp780
a(S'w'
I734
tp781
a(S'p1_tl'
I253
tp782
a(S'w'
I730
tp783
a(S'tr_ll'
I1
tp784
a(S'w'
I7
tp785
a(S'p2_ll'
I1
tp786
a(S'w'
I1
tp787
a(S'p2_tl'
I249
tp788
a(S'w'
I4
tp789
a(S'p1_tl'
I252
tp790
a(S'w'
I4
tp791
a(S'p1_ll'
I1
tp792
a(S'w'
I1
tp793
a(S'p1_tl'
I252
tp794
a(S'w'
I721
tp795
a(S'p1_tl'
I251
tp796
a(S'w'
I733
tp797
a(S'p1_tl'
I252
tp798
a(S'w'
I734
tp799
a(S'p1_tl'
I253
tp800
a(S'w'
I734
tp801
a(S'p1_tl'
I252
tp802
a(S'w'
I734
tp803
a(S'p1_tl'
I251
tp804
a(S'w'
I728
tp805
a(S'no_ll'
I1
tp806
a(S'w'
I7
tp807
a(S'tr_ll'
I1
tp808
a(S'tr_tl'
I29
tp809
a(S'w'
I9
tp810
a(S'p2_sn'
I0
tp811
a(S'p2_ss'
I4
tp812
a(S'p2_ll'
I1
tp813
a(S'p2_th'
I2
tp814
a(S'w'
I1
tp815
a(S'p2_tl'
I92
tp816
a(S'w'
I4
tp817
a(S'p1_tl'
I252
tp818
a(S'w'
I4
tp819
a(S'p1_ll'
I1
tp820
a(S'p1_tl'
I171
tp821
a(S'w'
I708
tp822
a(S'no_ll'
I1
tp823
a(S'no_np'
I0
tp824
a(S'w'
I10
tp825
a(S'p1_tl'
I172
tp826
a(S'w'
I730
tp827
a(S'p2_sn'
I1
tp828
a(S'p2_ss'
I0
tp829
a(S'w'
I1
tp830
a(S'p2_ll'
I1
tp831
a(S'p2_th'
I3
tp832
a(S'p2_tl'
I87
tp833
a(S'w'
I5
tp834
a(S'p1_tl'
I171
tp835
a(S'w'
I728
tp836
a(S'p1_tl'
I170
tp837
a(S'w'
I734
tp838
a(S'p1_tl'
I171
tp839
a(S'w'
I733
tp840
a(S'p1_tl'
I172
tp841
a(S'w'
I728
tp842
a(S'no_ll'
I1
tp843
a(S'no_np'
I4
tp844
a(S'w'
I10
tp845
a(S'p2_sn'
I0
tp846
a(S'p2_ss'
I4
tp847
a(S'w'
I1
tp848
a(S'p2_ll'
I1
tp849
a(S'p2_th'
I2
tp850
a(S'p2_tl'
I92
tp851
a(S'w'
I5
tp852
a(S'p1_tl'
I171
tp853
a(S'w'
I718
tp854
a(S'no_ll'
I1
tp855
a(S'no_np'
I0
tp856
a(S'w'
I11
tp857
a(S'p1_tl'
I170
tp858
a(S'w'
I728
tp859
a(S'p2_du'
I0
tp860
a(S'p2_cv'
I1
tp861
a(S'p2_vo'
I0
tp862
a(S'w'
I1
tp863
a(S'p2_se'
I0
tp864
a(S'p2_ss'
I0
tp865
a(S'p2_tl'
I0
tp866
a(S'w'
I4
tp867
a(S'p1_tl'
I171
tp868
a(S'w'
I730
tp869
a(S'p1_tl'
I172
tp870
a(S'w'
I733
tp871
a(S'p1_tl'
I171
tp872
a(S'w'
I734
tp873
a(S'p1_tl'
I170
tp874
a(S'w'
I728
tp875
a(S'no_ll'
I1
tp876
a(S'no_nl'
I1
tp877
a(S'no_np'
I9
tp878
a(S'w'
I7
tp879
a(S'tr_ll'
I1
tp880
a(S'tr_tl'
I13
tp881
a(S'w'
I6
tp882
a(S'p2_du'
I2
tp883
a(S'p2_cv'
I0
tp884
a(S'p2_vo'
I2
tp885
a(S'p2_se'
I1
tp886
a(S'p2_sn'
I1
tp887
a(S'w'
I1
tp888
a(S'p2_ll'
I1
tp889
a(S'p2_th'
I1
tp890
a(S'p2_tl'
I197
tp891
a(S'w'
I5
tp892
a(S'p1_tl'
I171
tp893
a(S'w'
I4
tp894
a(S'p1_ll'
I1
tp895
a(S'p1_tl'
I197
tp896
a(S'w'
I711
tp897
a(S'no_ll'
I1
tp898
a(S'no_nl'
I0
tp899
a(S'no_np'
I4
tp900
a(S'w'
I10
tp901
a(S'p1_tl'
I198
tp902
a(S'w'
I729
tp903
a(S'p2_ll'
I1
tp904
a(S'p2_th'
I3
tp905
a(S'p2_tl'
I138
tp906
a(S'w'
I5
tp907
a(S'p1_tl'
I197
tp908
a(S'w'
I729
tp909
a(S'p1_tl'
I196
tp910
a(S'w'
I734
tp911
a(S'p1_tl'
I197
tp912
a(S'w'
I734
tp913
a(S'p1_tl'
I198
tp914
a(S'w'
I728
tp915
a(S'no_ll'
I1
tp916
a(S'w'
I10
tp917
a(S'p2_sn'
I0
tp918
a(S'p2_ss'
I4
tp919
a(S'w'
I1
tp920
a(S'p2_ll'
I1
tp921
a(S'p2_th'
I2
tp922
a(S'p2_tl'
I92
tp923
a(S'w'
I5
tp924
a(S'p1_tl'
I197
tp925
a(S'w'
I718
tp926
a(S'no_ll'
I1
tp927
a(S'no_np'
I0
tp928
a(S'w'
I11
tp929
a(S'p1_tl'
I196
tp930
a(S'w'
I727
tp931
a(S'p2_du'
I0
tp932
a(S'p2_cv'
I1
tp933
a(S'p2_vo'
I0
tp934
a(S'w'
I1
tp935
a(S'p2_se'
I0
tp936
a(S'p2_ss'
I0
tp937
a(S'p2_tl'
I0
tp938
a(S'w'
I4
tp939
a(S'p1_tl'
I197
tp940
a(S'w'
I730
tp941
a(S'p1_tl'
I198
tp942
a(S'w'
I734
tp943
a(S'p1_tl'
I197
tp944
a(S'w'
I734
tp945
a(S'p1_tl'
I196
tp946
a(S'w'
I728
tp947
a(S'no_ll'
I1
tp948
a(S'no_np'
I4
tp949
a(S'w'
I7
tp950
a(S'tr_ll'
I1
tp951
a(S'tr_tl'
I125
tp952
a(S'w'
I7
tp953
a(S'p2_du'
I2
tp954
a(S'p2_cv'
I0
tp955
a(S'p2_vo'
I2
tp956
a(S'w'
I1
tp957
a(S'p2_se'
I1
tp958
a(S'p2_ss'
I4
tp959
a(S'p2_ll'
I1
tp960
a(S'p2_tl'
I92
tp961
a(S'w'
I5
tp962
a(S'p1_tl'
I197
tp963
a(S'w'
I4
tp964
a(S'p1_ll'
I1
tp965
a(S'p1_th'
I2
tp966
a(S'p1_tl'
I58
tp967
a(S'w'
I709
tp968
a(S'no_ll'
I1
tp969
a(S'no_np'
I0
tp970
a(S'w'
I10
tp971
a(S'p1_tl'
I59
tp972
a(S'w'
I730
tp973
a(S'p2_sn'
I1
tp974
a(S'p2_ss'
I0
tp975
a(S'w'
I1
tp976
a(S'p2_ll'
I1
tp977
a(S'p2_th'
I4
tp978
a(S'p2_tl'
I117
tp979
a(S'w'
I5
tp980
a(S'p1_tl'
I58
tp981
a(S'w'
I728
tp982
a(S'p1_tl'
I57
tp983
a(S'w'
I734
tp984
a(S'p1_tl'
I58
tp985
a(S'w'
I733
tp986
a(S'p1_tl'
I59
tp987
a(S'w'
I728
tp988
a(S'no_ll'
I1
tp989
a(S'no_np'
I4
tp990
a(S'w'
I10
tp991
a(S'p2_sn'
I0
tp992
a(S'p2_ss'
I4
tp993
a(S'w'
I1
tp994
a(S'p2_ll'
I1
tp995
a(S'p2_th'
I2
tp996
a(S'p2_tl'
I92
tp997
a(S'w'
I5
tp998
a(S'p1_tl'
I58
tp999
a(S'w'
I718
tp1000
a(S'no_ll'
I1
tp1001
a(S'no_np'
I0
tp1002
a(S'w'
I11
tp1003
a(S'p1_tl'
I57
tp1004
a(S'w'
I728
tp1005
a(S'p2_du'
I0
tp1006
a(S'p2_cv'
I1
tp1007
a(S'p2_vo'
I0
tp1008
a(S'w'
I1
tp1009
a(S'p2_se'
I0
tp1010
a(S'p2_ss'
I0
tp1011
a(S'p2_tl'
I0
tp1012
a(S'w'
I4
tp1013
a(S'p1_tl'
I58
tp1014
a(S'w'
I730
tp1015
a(S'p1_tl'
I59
tp1016
a(S'w'
I733
tp1017
a(S'p1_tl'
I58
tp1018
a(S'w'
I734
tp1019
a(S'p1_tl'
I57
tp1020
a(S'w'
I728
tp1021
a(S'no_ll'
I1
tp1022
a(S'no_nl'
I1
tp1023
a(S'no_np'
I9
tp1024
a(S'w'
I7
tp1025
a(S'tr_ll'
I1
tp1026
a(S'tr_tl'
I197
tp1027
a(S'w'
I6
tp1028
a(S'p2_du'
I2
tp1029
a(S'p2_cv'
I0
tp1030
a(S'p2_vo'
I2
tp1031
a(S'p2_se'
I1
tp1032
a(S'p2_sn'
I1
tp1033
a(S'w'
I1
tp1034
a(S'p2_ll'
I1
tp1035
a(S'p2_th'
I1
tp1036
a(S'p2_tl'
I197
tp1037
a(S'w'
I5
tp1038
a(S'p1_tl'
I58
tp1039
a(S'w'
I4
tp1040
a(S'p1_ll'
I1
tp1041
a(S'p1_tl'
I166
tp1042
a(S'w'
I711
tp1043
a(S'no_ll'
I1
tp1044
a(S'no_nl'
I0
tp1045
a(S'no_np'
I4
tp1046
a(S'w'
I10
tp1047
a(S'p1_tl'
I167
tp1048
a(S'w'
I729
tp1049
a(S'p2_ll'
I1
tp1050
a(S'p2_th'
I5
tp1051
a(S'p2_tl'
I77
tp1052
a(S'w'
I5
tp1053
a(S'p1_tl'
I166
tp1054
a(S'w'
I729
tp1055
a(S'p1_tl'
I165
tp1056
a(S'w'
I734
tp1057
a(S'p1_tl'
I166
tp1058
a(S'w'
I734
tp1059
a(S'p1_tl'
I167
tp1060
a(S'w'
I734
tp1061
a(S'p1_tl'
I166
tp1062
a(S'w'
I734
tp1063
a(S'p1_tl'
I165
tp1064
a(S'w'
I733
tp1065
a(S'p1_tl'
I166
tp1066
a(S'w'
I734
tp1067
a(S'p1_tl'
I167
tp1068
a(S'w'
I734
tp1069
a(S'p1_tl'
I166
tp1070
a(S'w'
I734
tp1071
a(S'p1_tl'
I165
tp1072
a(S'w'
I731
tp1073
a(S'no_ll'
I1
tp1074
a(S'w'
I8
tp1075
a(S'tr_ll'
I1
tp1076
a(S'w'
I1
tp1077
a(S'tr_tl'
I125
tp1078
a(S'w'
I9
tp1079
a(S'p2_sn'
I0
tp1080
a(S'p2_ss'
I4
tp1081
a(S'w'
I1
tp1082
a(S'p2_ll'
I1
tp1083
a(S'p2_th'
I2
tp1084
a(S'p2_tl'
I92
tp1085
a(S'w'
I5
tp1086
a(S'p1_tl'
I166
tp1087
a(S'w'
I5
tp1088
a.