(lp1
(S'clock'
p2
I1789773
tp3
a(S'ch_no'
I1
tp4
a(S'ch_tr'
I1
tp5
a(S'ch_p2'
I1
tp6
a(S'ch_p1'
I1
tp7
a(S'w'
I13
tp8
a(S'no_vo'
I1
tp9
a(S'no_ll'
I1
tp10
a(S'no_np'
I2
tp11
a(S'w'
I7
tp12
a(S'tr_lr'
I19
tp13
a(S'tr_ll'
I1
tp14
a(S'tr_th'
I1
tp15
a(S'w'
I1
tp16
a(S'tr_tl'
I46
tp17
a(S'w'
I6
tp18
a(S'p2_du'
I2
tp19
a(S'p2_vo'
I1
tp20
a(S'p2_se'
I1
tp21
a(S'p2_ss'
I4
tp22
a(S'w'
I1
tp23
a(S'p2_ll'
I1
tp24
a(S'p2_th'
I3
tp25
a(S'p2_tl'
I192
tp26
a(S'w'
I6
tp27
a(S'p1_du'
I3
tp28
a(S'p1_vo'
I3
tp29
a(S'p1_sn'
I1
tp30
a(S'w'
I1
tp31
a(S'p1_ll'
I1
tp32
a(S'p1_th'
I3
tp33
a(S'p1_tl'
I138
tp34
a(S'w'
I10254
tp35
a(S'tr_ll'
I1
tp36
a(S'w'
I10
tp37
a(S'p1_ll'
I1
tp38
a(S'w'
I5126
tp39
a(S'tr_ll'
I1
tp40
a(S'w'
I10
tp41
a(S'p1_ll'
I1
tp42
a(S'w'
I5127
tp43
a(S'tr_ll'
I1
tp44
a(S'tr_th'
I0
tp45
a(S'w'
I1
tp46
a(S'tr_tl'
I254
tp47
a(S'w'
I9
tp48
a(S'p1_ll'
I1
tp49
a(S'p1_th'
I2
tp50
a(S'p1_tl'
I250
tp51
a(S'w'
I5126
tp52
a(S'tr_ll'
I1
tp53
a(S'tr_th'
I1
tp54
a(S'w'
I1
tp55
a(S'tr_tl'
I46
tp56
a(S'w'
I9
tp57
a(S'p1_ll'
I1
tp58
a(S'p1_th'
I3
tp59
a(S'p1_tl'
I138
tp60
a(S'w'
I5127
tp61
a(S'tr_ll'
I1
tp62
a(S'w'
I10
tp63
a(S'p1_ll'
I1
tp64
a(S'w'
I5126
tp65
a(S'tr_ll'
I1
tp66
a(S'w'
I10
tp67
a(S'p1_ll'
I1
tp68
a(S'w'
I5125
tp69
a(S'no_ll'
I1
tp70
a(S'w'
I8
tp71
a(S'tr_lh'
I1
tp72
a(S'tr_lr'
I127
tp73
a(S'tr_ll'
I1
tp74
a(S'tr_tl'
I83
tp75
a(S'w'
I10
tp76
a(S'p1_vo'
I10
tp77
a(S'w'
I1
tp78
a(S'p1_ll'
I1
tp79
a(S'p1_tl'
I249
tp80
a(S'w'
I10254
tp81
a(S'no_ll'
I1
tp82
a(S'w'
I7
tp83
a(S'tr_ll'
I1
tp84
a(S'tr_tl'
I64
tp85
a(S'w'
I9
tp86
a(S'p1_ll'
I1
tp87
a(S'p1_tl'
I192
tp88
a(S'w'
I20530
tp89
a(S'no_ll'
I1
tp90
a(S'w'
I9
tp91
a(S'p2_ll'
I1
tp92
a(S'w'
I1
tp93
a(S'p2_tl'
I192
tp94
a(S'w'
I10263
tp95
a(S'no_ll'
I1
tp96
a(S'w'
I8
tp97
a(S'tr_lh'
I0
tp98
a(S'tr_lr'
I19
tp99
a(S'tr_ll'
I1
tp100
a(S'tr_tl'
I46
tp101
a(S'w'
I7
tp102
a(S'p2_ll'
I1
tp103
a(S'p2_tl'
I192
tp104
a(S'w'
I8
tp105
a(S'p1_vo'
I3
tp106
a(S'p1_ll'
I1
tp107
a(S'p1_tl'
I138
tp108
a(S'w'
I10252
tp109
a(S'tr_ll'
I1
tp110
a(S'w'
I10
tp111
a(S'p1_ll'
I1
tp112
a(S'w'
I5127
tp113
a(S'tr_ll'
I1
tp114
a(S'w'
I10
tp115
a(S'p1_ll'
I1
tp116
a(S'w'
I5126
tp117
a(S'tr_ll'
I1
tp118
a(S'tr_th'
I0
tp119
a(S'w'
I1
tp120
a(S'tr_tl'
I254
tp121
a(S'w'
I9
tp122
a(S'p1_ll'
I1
tp123
a(S'p1_th'
I2
tp124
a(S'p1_tl'
I250
tp125
a(S'w'
I5127
tp126
a(S'tr_ll'
I1
tp127
a(S'tr_th'
I1
tp128
a(S'w'
I1
tp129
a(S'tr_tl'
I46
tp130
a(S'w'
I9
tp131
a(S'p1_ll'
I1
tp132
a(S'p1_th'
I3
tp133
a(S'p1_tl'
I138
tp134
a(S'w'
I5126
tp135
a(S'tr_ll'
I1
tp136
a(S'w'
I10
tp137
a(S'p1_ll'
I1
tp138
a(S'w'
I5127
tp139
a(S'tr_ll'
I1
tp140
a(S'w'
I10
tp141
a(S'p1_ll'
I1
tp142
a(S'w'
I5126
tp143
a(S'no_vo'
I2
tp144
a(S'no_ll'
I1
tp145
a(S'w'
I1
tp146
a(S'no_nl'
I1
tp147
a(S'no_np'
I9
tp148
a(S'w'
I7
tp149
a(S'tr_lh'
I1
tp150
a(S'tr_lr'
I127
tp151
a(S'w'
I1
tp152
a(S'tr_ll'
I1
tp153
a(S'tr_th'
I0
tp154
a(S'tr_tl'
I254
tp155
a(S'w'
I6
tp156
a(S'p2_ll'
I1
tp157
a(S'p2_th'
I1
tp158
a(S'w'
I1
tp159
a(S'p2_tl'
I125
tp160
a(S'w'
I7
tp161
a(S'p1_vo'
I10
tp162
a(S'w'
I1
tp163
a(S'p1_ll'
I1
tp164
a(S'p1_th'
I2
tp165
a(S'p1_tl'
I250
tp166
a(S'w'
I708
tp167
a(S'no_ll'
I1
tp168
a(S'no_nl'
I0
tp169
a(S'no_np'
I0
tp170
a(S'w'
I2935
tp171
a(S'no_ll'
I1
tp172
a(S'no_nl'
I1
tp173
a(S'no_np'
I9
tp174
a(S'w'
I9
tp175
a(S'p2_ll'
I1
tp176
a(S'w'
I1
tp177
a(S'p2_tl'
I125
tp178
a(S'w'
I724
tp179
a(S'no_ll'
I1
tp180
a(S'no_nl'
I0
tp181
a(S'no_np'
I0
tp182
a(S'w'
I2935
tp183
a(S'no_ll'
I1
tp184
a(S'no_nl'
I1
tp185
a(S'no_np'
I9
tp186
a(S'w'
I9
tp187
a(S'p2_ll'
I1
tp188
a(S'w'
I1
tp189
a(S'p2_tl'
I125
tp190
a(S'w'
I724
tp191
a(S'no_ll'
I1
tp192
a(S'no_nl'
I0
tp193
a(S'no_np'
I0
tp194
a(S'w'
I2202
tp195
a(S'no_ll'
I1
tp196
a(S'no_nl'
I1
tp197
a(S'no_np'
I9
tp198
a(S'w'
I7
tp199
a(S'tr_ll'
I1
tp200
a(S'tr_tl'
I213
tp201
a(S'w'
I6
tp202
a(S'p2_ll'
I1
tp203
a(S'w'
I1
tp204
a(S'p2_tl'
I197
tp205
a(S'w'
I6
tp206
a(S'p1_ll'
I1
tp207
a(S'p1_tl'
I128
tp208
a(S'w'
I713
tp209
a(S'no_ll'
I1
tp210
a(S'no_nl'
I0
tp211
a(S'no_np'
I0
tp212
a(S'w'
I9542
tp213
a(S'no_ll'
I1
tp214
a(S'no_nl'
I1
tp215
a(S'no_np'
I9
tp216
a(S'w'
I9
tp217
a(S'p2_ll'
I1
tp218
a(S'p2_th'
I2
tp219
a(S'p2_tl'
I26
tp220
a(S'w'
I722
tp221
a(S'no_ll'
I1
tp222
a(S'no_nl'
I0
tp223
a(S'no_np'
I0
tp224
a(S'w'
I2936
tp225
a(S'no_ll'
I1
tp226
a(S'no_nl'
I1
tp227
a(S'no_np'
I9
tp228
a(S'w'
I9
tp229
a(S'p2_ll'
I1
tp230
a(S'w'
I1
tp231
a(S'p2_tl'
I26
tp232
a(S'w'
I723
tp233
a(S'no_ll'
I1
tp234
a(S'no_nl'
I0
tp235
a(S'no_np'
I0
tp236
a(S'w'
I2936
tp237
a(S'no_ll'
I1
tp238
a(S'no_nl'
I1
tp239
a(S'no_np'
I9
tp240
a(S'w'
I9
tp241
a(S'p2_ll'
I1
tp242
a(S'w'
I1
tp243
a(S'p2_tl'
I26
tp244
a(S'w'
I723
tp245
a(S'no_ll'
I1
tp246
a(S'no_nl'
I0
tp247
a(S'no_np'
I0
tp248
a(S'w'
I2202
tp249
a(S'no_ll'
I1
tp250
a(S'no_nl'
I1
tp251
a(S'no_np'
I9
tp252
a(S'w'
I9
tp253
a(S'p2_ll'
I1
tp254
a(S'w'
I1
tp255
a(S'p2_tl'
I166
tp256
a(S'w'
I724
tp257
a(S'no_ll'
I1
tp258
a(S'no_nl'
I0
tp259
a(S'no_np'
I0
tp260
a(S'w'
I9541
tp261
a(S'no_vo'
I0
tp262
a(S'no_ll'
I1
tp263
a(S'w'
I1
tp264
a(S'no_np'
I2
tp265
a(S'w'
I6
tp266
a(S'tr_ll'
I1
tp267
a(S'tr_th'
I1
tp268
a(S'w'
I1
tp269
a(S'tr_tl'
I83
tp270
a(S'w'
I8
tp271
a(S'p2_vo'
I15
tp272
a(S'w'
I1
tp273
a(S'p2_se'
I0
tp274
a(S'p2_sn'
I1
tp275
a(S'p2_ss'
I0
tp276
a(S'p2_ll'
I1
tp277
a(S'p2_th'
I5
tp278
a(S'p2_tl'
I77
tp279
a(S'w'
I7
tp280
a(S'p1_ll'
I1
tp281
a(S'p1_th'
I1
tp282
a(S'p1_tl'
I197
tp283
a(S'w'
I26391
tp284
a(S'no_vo'
I2
tp285
a(S'no_ll'
I1
tp286
a(S'w'
I1
tp287
a(S'w'
I13209
tp288
a(S'tr_ll'
I1
tp289
a(S'w'
I1
tp290
a(S'tr_tl'
I125
tp291
a(S'w'
I9
tp292
a(S'p1_ll'
I1
tp293
a(S'p1_tl'
I252
tp294
a(S'w'
I6594
tp295
a(S'tr_ll'
I1
tp296
a(S'w'
I1
tp297
a(S'tr_tl'
I103
tp298
a(S'w'
I9
tp299
a(S'p1_ll'
I1
tp300
a(S'p1_tl'
I224
tp301
a(S'w'
I6594
tp302
a(S'no_vo'
I0
tp303
a(S'w'
I1
tp304
a(S'no_ll'
I1
tp305
a(S'w'
I9
tp306
a(S'tr_ll'
I1
tp307
a(S'tr_tl'
I83
tp308
a(S'w'
I7
tp309
a(S'p2_ll'
I1
tp310
a(S'w'
I8
tp311
a(S'p1_ll'
I1
tp312
a(S'p1_tl'
I197
tp313
a(S'w'
I26390
tp314
a(S'no_vo'
I2
tp315
a(S'no_ll'
I1
tp316
a(S'w'
I1
tp317
a(S'w'
I13209
tp318
a(S'tr_ll'
I1
tp319
a(S'w'
I1
tp320
a(S'tr_tl'
I125
tp321
a(S'w'
I9
tp322
a(S'p1_ll'
I1
tp323
a(S'p1_tl'
I252
tp324
a(S'w'
I6594
tp325
a(S'tr_ll'
I1
tp326
a(S'w'
I1
tp327
a(S'tr_tl'
I103
tp328
a(S'w'
I9
tp329
a(S'p1_ll'
I1
tp330
a(S'p1_tl'
I224
tp331
a(S'w'
I6594
tp332
a(S'no_vo'
I0
tp333
a(S'w'
I1
tp334
a(S'no_ll'
I1
tp335
a(S'w'
I9
tp336
a(S'tr_ll'
I1
tp337
a(S'tr_tl'
I83
tp338
a(S'w'
I6
tp339
a(S'p2_ll'
I1
tp340
a(S'w'
I1
tp341
a(S'w'
I8
tp342
a(S'p1_ll'
I1
tp343
a(S'p1_tl'
I197
tp344
a(S'w'
I26390
tp345
a(S'no_vo'
I2
tp346
a(S'no_ll'
I1
tp347
a(S'w'
I1
tp348
a(S'w'
I13209
tp349
a(S'tr_ll'
I1
tp350
a(S'w'
I1
tp351
a(S'tr_tl'
I125
tp352
a(S'w'
I9
tp353
a(S'p1_ll'
I1
tp354
a(S'p1_tl'
I252
tp355
a(S'w'
I6594
tp356
a(S'tr_ll'
I1
tp357
a(S'w'
I1
tp358
a(S'tr_tl'
I103
tp359
a(S'w'
I9
tp360
a(S'p1_ll'
I1
tp361
a(S'p1_tl'
I224
tp362
a(S'w'
I6594
tp363
a(S'no_vo'
I0
tp364
a(S'w'
I1
tp365
a(S'no_ll'
I1
tp366
a(S'w'
I9
tp367
a(S'tr_ll'
I1
tp368
a(S'tr_tl'
I83
tp369
a(S'w'
I6
tp370
a(S'p2_ll'
I1
tp371
a(S'w'
I1
tp372
a(S'w'
I8
tp373
a(S'p1_ll'
I1
tp374
a(S'p1_tl'
I197
tp375
a(S'w'
I26390
tp376
a(S'no_vo'
I2
tp377
a(S'no_ll'
I1
tp378
a(S'w'
I1
tp379
a(S'w'
I13209
tp380
a(S'tr_ll'
I1
tp381
a(S'w'
I1
tp382
a(S'tr_tl'
I125
tp383
a(S'w'
I9
tp384
a(S'p1_ll'
I1
tp385
a(S'p1_tl'
I252
tp386
a(S'w'
I6594
tp387
a(S'tr_ll'
I1
tp388
a(S'w'
I1
tp389
a(S'tr_tl'
I103
tp390
a(S'w'
I9
tp391
a(S'p1_ll'
I1
tp392
a(S'p1_tl'
I224
tp393
a(S'w'
I6592
tp394
a(S'no_cv'
I1
tp395
a(S'no_vo'
I0
tp396
a(S'no_np'
I0
tp397
a(S'w'
I8
tp398
a(S'tr_ll'
I1
tp399
a(S'tr_tl'
I83
tp400
a(S'w'
I7
tp401
a(S'p2_ll'
I1
tp402
a(S'w'
I9
tp403
a(S'p1_cv'
I1
tp404
a(S'p1_vo'
I15
tp405
a(S'p1_ll'
I1
tp406
a(S'w'
I1
tp407
a(S'p1_tl'
I197
tp408
a(S'w'
I26398
tp409
a(S'p2_du'
I0
tp410
a(S'p2_cv'
I1
tp411
a(S'p2_vo'
I0
tp412
a(S'p2_sn'
I0
tp413
a(S'p2_tl'
I0
tp414
a(S'w'
I13203
tp415
a(S'no_cv'
I0
tp416
a(S'no_vo'
I1
tp417
a(S'no_ll'
I1
tp418
a(S'w'
I1
tp419
a(S'no_nl'
I1
tp420
a(S'no_np'
I9
tp421
a(S'w'
I6
tp422
a(S'tr_ll'
I1
tp423
a(S'tr_tl'
I103
tp424
a(S'w'
I7
tp425
a(S'p2_du'
I2
tp426
a(S'p2_cv'
I0
tp427
a(S'p2_vo'
I1
tp428
a(S'p2_sn'
I1
tp429
a(S'p2_ll'
I1
tp430
a(S'p2_th'
I3
tp431
a(S'w'
I1
tp432
a(S'p2_tl'
I192
tp433
a(S'w'
I6
tp434
a(S'p1_ll'
I1
tp435
a(S'p1_tl'
I224
tp436
a(S'w'
I711
tp437
a(S'no_ll'
I1
tp438
a(S'no_nl'
I0
tp439
a(S'no_np'
I0
tp440
a(S'w'
I736
tp441
a(S'tr_ll'
I1
tp442
a(S'w'
I1
tp443
a(S'tr_tl'
I125
tp444
a(S'w'
I9
tp445
a(S'p1_ll'
I1
tp446
a(S'p1_tl'
I252
tp447
a(S'w'
I1456
tp448
a(S'no_ll'
I1
tp449
a(S'no_nl'
I1
tp450
a(S'no_np'
I9
tp451
a(S'w'
I7
tp452
a(S'tr_ll'
I1
tp453
a(S'tr_tl'
I147
tp454
a(S'w'
I6
tp455
a(S'p2_ll'
I1
tp456
a(S'w'
I1
tp457
a(S'w'
I6
tp458
a(S'p1_ll'
I1
tp459
a(S'p1_th'
I2
tp460
a(S'p1_tl'
I26
tp461
a(S'w'
I714
tp462
a(S'no_ll'
I1
tp463
a(S'no_nl'
I0
tp464
a(S'no_np'
I0
tp465
a(S'w'
I735
tp466
a(S'tr_ll'
I1
tp467
a(S'w'
I1
tp468
a(S'tr_tl'
I171
tp469
a(S'w'
I9
tp470
a(S'p1_ll'
I1
tp471
a(S'p1_tl'
I58
tp472
a(S'w'
I1456
tp473
a(S'no_ll'
I1
tp474
a(S'no_nl'
I1
tp475
a(S'no_np'
I9
tp476
a(S'w'
I7
tp477
a(S'tr_ll'
I1
tp478
a(S'tr_tl'
I197
tp479
a(S'w'
I6
tp480
a(S'p2_ll'
I1
tp481
a(S'p2_th'
I2
tp482
a(S'w'
I1
tp483
a(S'p2_tl'
I92
tp484
a(S'w'
I6
tp485
a(S'p1_ll'
I1
tp486
a(S'p1_tl'
I92
tp487
a(S'w'
I717
tp488
a(S'no_cv'
I1
tp489
a(S'no_vo'
I7
tp490
a(S'no_ll'
I1
tp491
a(S'w'
I1
tp492
a(S'no_nl'
I0
tp493
a(S'no_np'
I8
tp494
a(S'w'
I727
tp495
a(S'no_vo'
I6
tp496
a(S'w'
I6
tp497
a(S'tr_ll'
I1
tp498
a(S'tr_tl'
I224
tp499
a(S'w'
I9
tp500
a(S'p1_ll'
I1
tp501
a(S'w'
I1
tp502
a(S'p1_tl'
I128
tp503
a(S'w'
I718
tp504
a(S'no_vo'
I5
tp505
a(S'w'
I734
tp506
a(S'no_vo'
I4
tp507
a(S'w'
I6
tp508
a(S'tr_ll'
I1
tp509
a(S'tr_tl'
I252
tp510
a(S'w'
I9
tp511
a(S'p1_ll'
I1
tp512
a(S'w'
I1
tp513
a(S'p1_tl'
I166
tp514
a(S'w'
I718
tp515
a(S'no_vo'
I3
tp516
a(S'w'
I734
tp517
a(S'no_vo'
I2
tp518
a(S'w'
I6
tp519
a(S'tr_ll'
I1
tp520
a(S'tr_th'
I2
tp521
a(S'tr_tl'
I26
tp522
a(S'w'
I9
tp523
a(S'p1_ll'
I1
tp524
a(S'w'
I1
tp525
a(S'p1_tl'
I207
tp526
a(S'w'
I717
tp527
a(S'no_vo'
I1
tp528
a(S'w'
I734
tp529
a(S'no_vo'
I0
tp530
a(S'w'
I4
tp531
a(S'no_np'
I0
tp532
a(S'w'
I6
tp533
a(S'tr_lh'
I0
tp534
a(S'tr_lr'
I0
tp535
a(S'w'
I5
tp536
a(S'p2_du'
I0
tp537
a(S'p2_cv'
I1
tp538
a(S'p2_vo'
I0
tp539
a(S'p2_sn'
I0
tp540
a(S'p2_tl'
I0
tp541
a(S'w'
I5
tp542
a(S'p1_du'
I0
tp543
a(S'p1_vo'
I0
tp544
a(S'p1_sn'
I0
tp545
a(S'p1_tl'
I0
tp546
a(S'w'
I455
tp547
a.