(lp1
(S'clock'
p2
I1789773
tp3
a(S'ch_no'
I1
tp4
a(S'ch_tr'
I1
tp5
a(S'ch_p2'
I1
tp6
a(S'ch_p1'
I1
tp7
a(S'w'
I13
tp8
a(S'no_ll'
I1
tp9
a(S'no_np'
I2
tp10
a(S'w'
I7
tp11
a(S'tr_lr'
I16
tp12
a(S'tr_ll'
I1
tp13
a(S'tr_th'
I2
tp14
a(S'w'
I1
tp15
a(S'tr_tl'
I250
tp16
a(S'w'
I6
tp17
a(S'p2_du'
I1
tp18
a(S'p2_vo'
I2
tp19
a(S'p2_sn'
I1
tp20
a(S'w'
I1
tp21
a(S'p2_ll'
I1
tp22
a(S'p2_th'
I3
tp23
a(S'p2_tl'
I249
tp24
a(S'w'
I6
tp25
a(S'p1_du'
I2
tp26
a(S'p1_vo'
I2
tp27
a(S'p1_sn'
I1
tp28
a(S'w'
I1
tp29
a(S'p1_ll'
I1
tp30
a(S'p1_th'
I2
tp31
a(S'p1_tl'
I58
tp32
a(S'w'
I8784
tp33
a(S'no_ll'
I1
tp34
a(S'w'
I7
tp35
a(S'tr_ll'
I1
tp36
a(S'tr_tl'
I166
tp37
a(S'w'
I6
tp38
a(S'p2_ll'
I1
tp39
a(S'w'
I1
tp40
a(S'w'
I6
tp41
a(S'p1_ll'
I1
tp42
a(S'p1_th'
I1
tp43
a(S'p1_tl'
I252
tp44
a(S'w'
I4388
tp45
a(S'p2_ll'
I1
tp46
a(S'w'
I4399
tp47
a(S'no_vo'
I1
tp48
a(S'no_ll'
I1
tp49
a(S'w'
I1
tp50
a(S'no_nl'
I1
tp51
a(S'no_np'
I9
tp52
a(S'w'
I9
tp53
a(S'p2_ll'
I1
tp54
a(S'w'
I9
tp55
a(S'p1_vo'
I1
tp56
a(S'p1_se'
I1
tp57
a(S'p1_sn'
I0
tp58
a(S'p1_ss'
I4
tp59
a(S'p1_ll'
I1
tp60
a(S'p1_th'
I3
tp61
a(S'p1_tl'
I192
tp62
a(S'w'
I713
tp63
a(S'no_ll'
I1
tp64
a(S'no_nl'
I0
tp65
a(S'no_np'
I0
tp66
a(S'w'
I3674
tp67
a(S'p2_ll'
I1
tp68
a(S'w'
I4398
tp69
a(S'no_ll'
I1
tp70
a(S'no_nl'
I1
tp71
a(S'no_np'
I9
tp72
a(S'w'
I9
tp73
a(S'p2_ll'
I1
tp74
a(S'w'
I1
tp75
a(S'w'
I6
tp76
a(S'p1_ll'
I1
tp77
a(S'p1_th'
I1
tp78
a(S'p1_tl'
I252
tp79
a(S'w'
I721
tp80
a(S'no_cv'
I1
tp81
a(S'no_vo'
I7
tp82
a(S'no_ll'
I1
tp83
a(S'w'
I1
tp84
a(S'no_nl'
I0
tp85
a(S'no_np'
I8
tp86
a(S'w'
I728
tp87
a(S'no_vo'
I6
tp88
a(S'w'
I733
tp89
a(S'no_vo'
I5
tp90
a(S'w'
I734
tp91
a(S'no_vo'
I4
tp92
a(S'w'
I734
tp93
a(S'no_vo'
I3
tp94
a(S'w'
I734
tp95
a(S'no_vo'
I2
tp96
a(S'w'
I9
tp97
a(S'p2_ll'
I1
tp98
a(S'w'
I725
tp99
a(S'no_vo'
I1
tp100
a(S'w'
I733
tp101
a(S'no_vo'
I0
tp102
a(S'w'
I2943
tp103
a(S'no_cv'
I0
tp104
a(S'no_vo'
I1
tp105
a(S'no_ll'
I1
tp106
a(S'w'
I1
tp107
a(S'no_nl'
I1
tp108
a(S'no_np'
I9
tp109
a(S'w'
I11
tp110
a(S'p2_ll'
I1
tp111
a(S'w'
I8
tp112
a(S'p1_ll'
I1
tp113
a(S'p1_th'
I3
tp114
a(S'p1_tl'
I192
tp115
a(S'w'
I708
tp116
a(S'no_ll'
I1
tp117
a(S'no_nl'
I0
tp118
a(S'no_np'
I0
tp119
a(S'w'
I8072
tp120
a(S'no_ll'
I1
tp121
a(S'no_nl'
I1
tp122
a(S'no_np'
I9
tp123
a(S'w'
I9
tp124
a(S'p2_ll'
I1
tp125
a(S'w'
I1
tp126
a(S'w'
I6
tp127
a(S'p1_ll'
I1
tp128
a(S'p1_th'
I1
tp129
a(S'p1_tl'
I252
tp130
a(S'w'
I721
tp131
a(S'no_cv'
I1
tp132
a(S'no_vo'
I7
tp133
a(S'no_ll'
I1
tp134
a(S'w'
I1
tp135
a(S'no_nl'
I0
tp136
a(S'no_np'
I8
tp137
a(S'w'
I728
tp138
a(S'no_vo'
I6
tp139
a(S'w'
I733
tp140
a(S'no_vo'
I5
tp141
a(S'w'
I734
tp142
a(S'no_vo'
I4
tp143
a(S'w'
I734
tp144
a(S'no_vo'
I3
tp145
a(S'w'
I734
tp146
a(S'no_vo'
I2
tp147
a(S'w'
I9
tp148
a(S'p2_ll'
I1
tp149
a(S'w'
I725
tp150
a(S'no_vo'
I1
tp151
a(S'w'
I733
tp152
a(S'no_vo'
I0
tp153
a(S'w'
I2943
tp154
a(S'no_cv'
I0
tp155
a(S'no_vo'
I1
tp156
a(S'no_ll'
I1
tp157
a(S'w'
I1
tp158
a(S'no_nl'
I1
tp159
a(S'no_np'
I9
tp160
a(S'w'
I9
tp161
a(S'p2_ll'
I1
tp162
a(S'w'
I8
tp163
a(S'p1_ll'
I1
tp164
a(S'p1_th'
I3
tp165
a(S'p1_tl'
I192
tp166
a(S'w'
I710
tp167
a(S'no_ll'
I1
tp168
a(S'no_nl'
I0
tp169
a(S'no_np'
I0
tp170
a(S'w'
I3674
tp171
a(S'p2_ll'
I1
tp172
a(S'w'
I4398
tp173
a(S'no_ll'
I1
tp174
a(S'no_nl'
I1
tp175
a(S'no_np'
I9
tp176
a(S'w'
I9
tp177
a(S'p2_ll'
I1
tp178
a(S'w'
I1
tp179
a(S'w'
I6
tp180
a(S'p1_ll'
I1
tp181
a(S'p1_th'
I1
tp182
a(S'p1_tl'
I252
tp183
a(S'w'
I721
tp184
a(S'no_cv'
I1
tp185
a(S'no_vo'
I7
tp186
a(S'no_ll'
I1
tp187
a(S'w'
I1
tp188
a(S'no_nl'
I0
tp189
a(S'no_np'
I8
tp190
a(S'w'
I728
tp191
a(S'no_vo'
I6
tp192
a(S'w'
I733
tp193
a(S'no_vo'
I5
tp194
a(S'w'
I734
tp195
a(S'no_vo'
I4
tp196
a(S'w'
I734
tp197
a(S'no_vo'
I3
tp198
a(S'w'
I734
tp199
a(S'no_vo'
I2
tp200
a(S'w'
I9
tp201
a(S'p2_ll'
I1
tp202
a(S'w'
I725
tp203
a(S'no_vo'
I1
tp204
a(S'w'
I733
tp205
a(S'no_vo'
I0
tp206
a(S'w'
I2945
tp207
a(S'no_cv'
I0
tp208
a(S'w'
I1
tp209
a(S'no_ll'
I1
tp210
a(S'no_np'
I2
tp211
a(S'w'
I6
tp212
a(S'tr_ll'
I1
tp213
a(S'w'
I1
tp214
a(S'tr_tl'
I250
tp215
a(S'w'
I8
tp216
a(S'p2_ll'
I1
tp217
a(S'w'
I12
tp218
a(S'p1_vo'
I2
tp219
a(S'p1_se'
I0
tp220
a(S'p1_sn'
I1
tp221
a(S'p1_ss'
I0
tp222
a(S'p1_ll'
I1
tp223
a(S'p1_th'
I2
tp224
a(S'w'
I1
tp225
a(S'p1_tl'
I58
tp226
a(S'w'
I8769
tp227
a(S'no_ll'
I1
tp228
a(S'w'
I7
tp229
a(S'tr_ll'
I1
tp230
a(S'tr_tl'
I166
tp231
a(S'w'
I6
tp232
a(S'p2_ll'
I1
tp233
a(S'w'
I1
tp234
a(S'w'
I6
tp235
a(S'p1_ll'
I1
tp236
a(S'p1_th'
I1
tp237
a(S'p1_tl'
I252
tp238
a(S'w'
I4388
tp239
a(S'p2_ll'
I1
tp240
a(S'w'
I4399
tp241
a(S'no_vo'
I1
tp242
a(S'no_ll'
I1
tp243
a(S'w'
I1
tp244
a(S'no_nl'
I1
tp245
a(S'no_np'
I9
tp246
a(S'w'
I9
tp247
a(S'p2_ll'
I1
tp248
a(S'w'
I9
tp249
a(S'p1_vo'
I1
tp250
a(S'p1_se'
I1
tp251
a(S'p1_sn'
I0
tp252
a(S'p1_ss'
I4
tp253
a(S'p1_ll'
I1
tp254
a(S'p1_th'
I3
tp255
a(S'p1_tl'
I192
tp256
a(S'w'
I713
tp257
a(S'no_ll'
I1
tp258
a(S'no_nl'
I0
tp259
a(S'no_np'
I0
tp260
a(S'w'
I3674
tp261
a(S'p2_ll'
I1
tp262
a(S'w'
I4398
tp263
a(S'no_ll'
I1
tp264
a(S'no_nl'
I1
tp265
a(S'no_np'
I9
tp266
a(S'w'
I9
tp267
a(S'p2_ll'
I1
tp268
a(S'w'
I1
tp269
a(S'w'
I6
tp270
a(S'p1_ll'
I1
tp271
a(S'p1_th'
I1
tp272
a(S'p1_tl'
I252
tp273
a(S'w'
I721
tp274
a(S'no_cv'
I1
tp275
a(S'no_vo'
I7
tp276
a(S'no_ll'
I1
tp277
a(S'w'
I1
tp278
a(S'no_nl'
I0
tp279
a(S'no_np'
I8
tp280
a(S'w'
I728
tp281
a(S'no_vo'
I6
tp282
a(S'w'
I733
tp283
a(S'no_vo'
I5
tp284
a(S'w'
I734
tp285
a(S'no_vo'
I4
tp286
a(S'w'
I734
tp287
a(S'no_vo'
I3
tp288
a(S'w'
I734
tp289
a(S'no_vo'
I2
tp290
a(S'w'
I9
tp291
a(S'p2_ll'
I1
tp292
a(S'w'
I725
tp293
a(S'no_vo'
I1
tp294
a(S'w'
I733
tp295
a(S'no_vo'
I0
tp296
a(S'w'
I2943
tp297
a(S'no_cv'
I0
tp298
a(S'no_vo'
I1
tp299
a(S'no_ll'
I1
tp300
a(S'w'
I1
tp301
a(S'no_nl'
I1
tp302
a(S'no_np'
I9
tp303
a(S'w'
I11
tp304
a(S'p2_ll'
I1
tp305
a(S'w'
I8
tp306
a(S'p1_ll'
I1
tp307
a(S'p1_th'
I3
tp308
a(S'p1_tl'
I192
tp309
a(S'w'
I708
tp310
a(S'no_ll'
I1
tp311
a(S'no_nl'
I0
tp312
a(S'no_np'
I0
tp313
a(S'w'
I8072
tp314
a(S'no_ll'
I1
tp315
a(S'no_nl'
I1
tp316
a(S'no_np'
I9
tp317
a(S'w'
I9
tp318
a(S'p2_ll'
I1
tp319
a(S'w'
I1
tp320
a(S'w'
I6
tp321
a(S'p1_ll'
I1
tp322
a(S'p1_th'
I1
tp323
a(S'p1_tl'
I252
tp324
a(S'w'
I721
tp325
a(S'no_cv'
I1
tp326
a(S'no_vo'
I7
tp327
a(S'no_ll'
I1
tp328
a(S'w'
I1
tp329
a(S'no_nl'
I0
tp330
a(S'no_np'
I8
tp331
a(S'w'
I728
tp332
a(S'no_vo'
I6
tp333
a(S'w'
I733
tp334
a(S'no_vo'
I5
tp335
a(S'w'
I734
tp336
a(S'no_vo'
I4
tp337
a(S'w'
I734
tp338
a(S'no_vo'
I3
tp339
a(S'w'
I734
tp340
a(S'no_vo'
I2
tp341
a(S'w'
I9
tp342
a(S'p2_ll'
I1
tp343
a(S'w'
I725
tp344
a(S'no_vo'
I1
tp345
a(S'w'
I733
tp346
a(S'no_vo'
I0
tp347
a(S'w'
I2943
tp348
a(S'no_cv'
I0
tp349
a(S'no_vo'
I1
tp350
a(S'no_ll'
I1
tp351
a(S'w'
I1
tp352
a(S'no_nl'
I1
tp353
a(S'no_np'
I9
tp354
a(S'w'
I9
tp355
a(S'p2_ll'
I1
tp356
a(S'w'
I8
tp357
a(S'p1_ll'
I1
tp358
a(S'p1_th'
I3
tp359
a(S'p1_tl'
I192
tp360
a(S'w'
I710
tp361
a(S'no_ll'
I1
tp362
a(S'no_nl'
I0
tp363
a(S'no_np'
I0
tp364
a(S'w'
I3674
tp365
a(S'p2_ll'
I1
tp366
a(S'w'
I4398
tp367
a(S'no_ll'
I1
tp368
a(S'no_nl'
I1
tp369
a(S'no_np'
I9
tp370
a(S'w'
I9
tp371
a(S'p2_ll'
I1
tp372
a(S'w'
I1
tp373
a(S'w'
I6
tp374
a(S'p1_ll'
I1
tp375
a(S'p1_th'
I1
tp376
a(S'p1_tl'
I252
tp377
a(S'w'
I721
tp378
a(S'no_cv'
I1
tp379
a(S'no_vo'
I7
tp380
a(S'no_ll'
I1
tp381
a(S'w'
I1
tp382
a(S'no_nl'
I0
tp383
a(S'no_np'
I8
tp384
a(S'w'
I728
tp385
a(S'no_vo'
I6
tp386
a(S'w'
I733
tp387
a(S'no_vo'
I5
tp388
a(S'w'
I734
tp389
a(S'no_vo'
I4
tp390
a(S'w'
I734
tp391
a(S'no_vo'
I3
tp392
a(S'w'
I734
tp393
a(S'no_vo'
I2
tp394
a(S'w'
I9
tp395
a(S'p2_ll'
I1
tp396
a(S'w'
I725
tp397
a(S'no_vo'
I1
tp398
a(S'w'
I733
tp399
a(S'no_vo'
I0
tp400
a(S'w'
I2944
tp401
a(S'no_cv'
I0
tp402
a(S'w'
I1
tp403
a(S'no_ll'
I1
tp404
a(S'no_np'
I2
tp405
a(S'w'
I8
tp406
a(S'tr_lh'
I1
tp407
a(S'tr_lr'
I127
tp408
a(S'tr_ll'
I1
tp409
a(S'w'
I1
tp410
a(S'tr_tl'
I58
tp411
a(S'w'
I7
tp412
a(S'p2_ll'
I1
tp413
a(S'w'
I1
tp414
a(S'p2_tl'
I87
tp415
a(S'w'
I12
tp416
a(S'p1_cv'
I1
tp417
a(S'p1_vo'
I15
tp418
a(S'p1_se'
I0
tp419
a(S'p1_sn'
I1
tp420
a(S'p1_ss'
I0
tp421
a(S'p1_ll'
I1
tp422
a(S'w'
I1
tp423
a(S'p1_tl'
I171
tp424
a(S'w'
I8770
tp425
a(S'no_ll'
I1
tp426
a(S'w'
I9
tp427
a(S'p2_ll'
I1
tp428
a(S'w'
I4397
tp429
a(S'p2_ll'
I1
tp430
a(S'w'
I4399
tp431
a(S'no_ll'
I1
tp432
a(S'w'
I1
tp433
a(S'w'
I9
tp434
a(S'p2_ll'
I1
tp435
a(S'w'
I4396
tp436
a(S'p2_ll'
I1
tp437
a(S'w'
I4399
tp438
a(S'no_ll'
I1
tp439
a(S'w'
I1
tp440
a(S'w'
I9
tp441
a(S'p2_ll'
I1
tp442
a(S'w'
I4397
tp443
a(S'p2_ll'
I1
tp444
a(S'w'
I4399
tp445
a(S'no_ll'
I1
tp446
a(S'w'
I1
tp447
a(S'w'
I6
tp448
a(S'tr_ll'
I1
tp449
a(S'w'
I1
tp450
a(S'tr_tl'
I92
tp451
a(S'w'
I6
tp452
a(S'p2_ll'
I1
tp453
a(S'w'
I1
tp454
a(S'p2_tl'
I138
tp455
a(S'w'
I6
tp456
a(S'p1_ll'
I1
tp457
a(S'p1_tl'
I197
tp458
a(S'w'
I8784
tp459
a(S'no_ll'
I1
tp460
a(S'w'
I1
tp461
a(S'w'
I9
tp462
a(S'p2_ll'
I1
tp463
a(S'w'
I4397
tp464
a(S'p2_ll'
I1
tp465
a(S'w'
I4399
tp466
a(S'no_ll'
I1
tp467
a(S'w'
I1
tp468
a(S'w'
I9
tp469
a(S'p2_ll'
I1
tp470
a(S'w'
I4396
tp471
a(S'p2_ll'
I1
tp472
a(S'w'
I4399
tp473
a(S'no_ll'
I1
tp474
a(S'w'
I1
tp475
a(S'w'
I9
tp476
a(S'p2_ll'
I1
tp477
a(S'w'
I4397
tp478
a(S'p2_ll'
I1
tp479
a(S'w'
I4400
tp480
a(S'no_vo'
I2
tp481
a(S'no_ll'
I1
tp482
a(S'w'
I1
tp483
a(S'no_np'
I6
tp484
a(S'w'
I6
tp485
a(S'tr_ll'
I1
tp486
a(S'w'
I1
tp487
a(S'tr_tl'
I250
tp488
a(S'w'
I6
tp489
a(S'p2_ll'
I1
tp490
a(S'p2_th'
I4
tp491
a(S'p2_tl'
I117
tp492
a(S'w'
I7
tp493
a(S'p1_ll'
I1
tp494
a(S'p1_th'
I2
tp495
a(S'p1_tl'
I58
tp496
a(S'w'
I8782
tp497
a(S'no_ll'
I1
tp498
a(S'w'
I7
tp499
a(S'tr_ll'
I1
tp500
a(S'tr_tl'
I166
tp501
a(S'w'
I6
tp502
a(S'p2_ll'
I1
tp503
a(S'p2_th'
I3
tp504
a(S'w'
I1
tp505
a(S'p2_tl'
I249
tp506
a(S'w'
I6
tp507
a(S'p1_ll'
I1
tp508
a(S'p1_th'
I1
tp509
a(S'p1_tl'
I252
tp510
a(S'w'
I8784
tp511
a(S'no_cv'
I1
tp512
a(S'no_vo'
I0
tp513
a(S'w'
I1
tp514
a(S'no_np'
I0
tp515
a(S'w'
I5
tp516
a(S'tr_lh'
I0
tp517
a(S'tr_lr'
I0
tp518
a(S'w'
I5
tp519
a(S'p2_du'
I0
tp520
a(S'p2_cv'
I1
tp521
a(S'p2_vo'
I0
tp522
a(S'p2_sn'
I0
tp523
a(S'p2_tl'
I0
tp524
a(S'w'
I5
tp525
a(S'p1_du'
I0
tp526
a(S'p1_vo'
I0
tp527
a(S'w'
I1
tp528
a(S'p1_sn'
I0
tp529
a(S'p1_tl'
I0
tp530
a(S'w'
I39
tp531
a.