(lp1
(S'clock'
p2
I1789773
tp3
a(S'w'
I13
tp4
a(S'p1_tl'
I29
tp5
a(S'p1_ll'
I31
tp6
a(S'p1_th'
I1
tp7
a(S'w'
I3
tp8
a(S'p1_du'
I2
tp9
a(S'p1_lh'
I1
tp10
a(S'p1_cv'
I1
tp11
a(S'p1_vo'
I10
tp12
a(S'w'
I12
tp13
a(S'p2_tl'
I104
tp14
a(S'w'
I1
tp15
a(S'p2_ll'
I31
tp16
a(S'p2_th'
I1
tp17
a(S'w'
I2
tp18
a(S'p2_du'
I2
tp19
a(S'p2_lh'
I1
tp20
a(S'p2_cv'
I1
tp21
a(S'p2_vo'
I10
tp22
a(S'w'
I9
tp23
a(S'tr_tl'
I87
tp24
a(S'tr_ll'
I31
tp25
a(S'tr_th'
I3
tp26
a(S'w'
I2
tp27
a(S'tr_lh'
I1
tp28
a(S'tr_lr'
I127
tp29
a(S'w'
I10
tp30
a(S'no_np'
I14
tp31
a(S'no_ll'
I31
tp32
a(S'w'
I3
tp33
a(S'no_vo'
I9
tp34
a(S'w'
I686
tp35
a(S'no_vo'
I0
tp36
a(S'w'
I732
tp37
a(S'p1_vo'
I9
tp38
a(S'w'
I4
tp39
a(S'p2_vo'
I9
tp40
a(S'w'
I1463
tp41
a(S'p1_vo'
I0
tp42
a(S'w'
I4
tp43
a(S'p2_vo'
I0
tp44
a(S'w'
I2933
tp45
a(S'p1_ll'
I31
tp46
a(S'w'
I2
tp47
a(S'p1_vo'
I10
tp48
a(S'w'
I6
tp49
a(S'p2_ll'
I31
tp50
a(S'w'
I3
tp51
a(S'p2_vo'
I10
tp52
a(S'w'
I5
tp53
a(S'no_np'
I12
tp54
a(S'no_ll'
I31
tp55
a(S'w'
I3
tp56
a(S'no_vo'
I9
tp57
a(S'w'
I716
tp58
a(S'no_vo'
I0
tp59
a(S'w'
I731
tp60
a(S'p1_vo'
I9
tp61
a(S'w'
I4
tp62
a(S'p2_vo'
I9
tp63
a(S'w'
I1463
tp64
a(S'p1_vo'
I0
tp65
a(S'w'
I4
tp66
a(S'p2_vo'
I0
tp67
a(S'w'
I2943
tp68
a(S'no_np'
I10
tp69
a(S'no_ll'
I31
tp70
a(S'w'
I3
tp71
a(S'no_vo'
I9
tp72
a(S'w'
I722
tp73
a(S'no_vo'
I0
tp74
a(S'w'
I5137
tp75
a(S'no_np'
I8
tp76
a(S'no_ll'
I31
tp77
a(S'w'
I3
tp78
a(S'no_vo'
I9
tp79
a(S'w'
I730
tp80
a(S'no_vo'
I0
tp81
a(S'w'
I5137
tp82
a(S'p1_tl'
I104
tp83
a(S'p1_ll'
I31
tp84
a(S'w'
I3
tp85
a(S'p1_vo'
I10
tp86
a(S'w'
I6
tp87
a(S'p2_tl'
I172
tp88
a(S'w'
I1
tp89
a(S'p2_ll'
I31
tp90
a(S'w'
I2
tp91
a(S'p2_vo'
I10
tp92
a(S'w'
I6
tp93
a(S'tr_tl'
I59
tp94
a(S'tr_ll'
I31
tp95
a(S'tr_th'
I2
tp96
a(S'w'
I14
tp97
a(S'no_np'
I14
tp98
a(S'no_ll'
I31
tp99
a(S'w'
I2
tp100
a(S'no_vo'
I9
tp101
a(S'w'
I700
tp102
a(S'no_vo'
I0
tp103
a(S'w'
I731
tp104
a(S'p1_vo'
I9
tp105
a(S'w'
I4
tp106
a(S'p2_vo'
I9
tp107
a(S'w'
I1463
tp108
a(S'p1_vo'
I0
tp109
a(S'w'
I4
tp110
a(S'p2_vo'
I0
tp111
a(S'w'
I2933
tp112
a(S'p1_ll'
I31
tp113
a(S'w'
I2
tp114
a(S'p1_vo'
I10
tp115
a(S'w'
I6
tp116
a(S'p2_ll'
I31
tp117
a(S'w'
I3
tp118
a(S'p2_vo'
I10
tp119
a(S'w'
I5
tp120
a(S'no_np'
I12
tp121
a(S'no_ll'
I31
tp122
a(S'w'
I3
tp123
a(S'no_vo'
I9
tp124
a(S'w'
I716
tp125
a(S'no_vo'
I0
tp126
a(S'w'
I732
tp127
a(S'p1_vo'
I9
tp128
a(S'w'
I4
tp129
a(S'p2_vo'
I9
tp130
a(S'w'
I1462
tp131
a(S'p1_vo'
I0
tp132
a(S'w'
I4
tp133
a(S'p2_vo'
I0
tp134
a(S'w'
I2944
tp135
a(S'no_np'
I10
tp136
a(S'no_ll'
I31
tp137
a(S'w'
I3
tp138
a(S'no_vo'
I9
tp139
a(S'w'
I721
tp140
a(S'no_vo'
I0
tp141
a(S'w'
I5137
tp142
a(S'no_np'
I8
tp143
a(S'no_ll'
I31
tp144
a(S'w'
I3
tp145
a(S'no_vo'
I9
tp146
a(S'w'
I731
tp147
a(S'no_vo'
I0
tp148
a(S'w'
I5136
tp149
a(S'p1_tl'
I64
tp150
a(S'p1_ll'
I31
tp151
a(S'w'
I3
tp152
a(S'p1_vo'
I10
tp153
a(S'w'
I6
tp154
a(S'p2_tl'
I125
tp155
a(S'w'
I1
tp156
a(S'p2_ll'
I31
tp157
a(S'w'
I2
tp158
a(S'p2_vo'
I10
tp159
a(S'w'
I7
tp160
a(S'tr_tl'
I224
tp161
a(S'tr_ll'
I31
tp162
a(S'tr_th'
I1
tp163
a(S'w'
I14
tp164
a(S'no_np'
I14
tp165
a(S'no_ll'
I31
tp166
a(S'w'
I2
tp167
a(S'no_vo'
I9
tp168
a(S'w'
I699
tp169
a(S'no_vo'
I0
tp170
a(S'w'
I732
tp171
a(S'p1_vo'
I9
tp172
a(S'w'
I4
tp173
a(S'p2_vo'
I9
tp174
a(S'w'
I1462
tp175
a(S'p1_vo'
I0
tp176
a(S'w'
I4
tp177
a(S'p2_vo'
I0
tp178
a(S'w'
I2934
tp179
a(S'p1_ll'
I31
tp180
a(S'w'
I2
tp181
a(S'p1_vo'
I10
tp182
a(S'w'
I6
tp183
a(S'p2_ll'
I31
tp184
a(S'w'
I3
tp185
a(S'p2_vo'
I10
tp186
a(S'w'
I5
tp187
a(S'no_np'
I12
tp188
a(S'no_ll'
I31
tp189
a(S'w'
I3
tp190
a(S'no_vo'
I9
tp191
a(S'w'
I715
tp192
a(S'no_vo'
I0
tp193
a(S'w'
I732
tp194
a(S'p1_vo'
I9
tp195
a(S'w'
I4
tp196
a(S'p2_vo'
I9
tp197
a(S'w'
I1463
tp198
a(S'p1_vo'
I0
tp199
a(S'w'
I4
tp200
a(S'p2_vo'
I0
tp201
a(S'w'
I2943
tp202
a(S'no_np'
I10
tp203
a(S'no_ll'
I31
tp204
a(S'w'
I3
tp205
a(S'no_vo'
I9
tp206
a(S'w'
I722
tp207
a(S'no_vo'
I0
tp208
a(S'w'
I5136
tp209
a(S'p1_tl'
I125
tp210
a(S'p1_ll'
I31
tp211
a(S'w'
I3
tp212
a(S'p1_vo'
I10
tp213
a(S'w'
I6
tp214
a(S'p2_tl'
I197
tp215
a(S'w'
I1
tp216
a(S'p2_ll'
I31
tp217
a(S'w'
I2
tp218
a(S'p2_vo'
I10
tp219
a(S'w'
I7
tp220
a(S'tr_tl'
I27
tp221
a(S'tr_ll'
I31
tp222
a(S'tr_th'
I2
tp223
a(S'w'
I7
tp224
a(S'no_np'
I8
tp225
a(S'no_ll'
I31
tp226
a(S'w'
I2
tp227
a(S'no_vo'
I9
tp228
a(S'w'
I706
tp229
a(S'no_vo'
I0
tp230
a(S'w'
I732
tp231
a(S'p1_vo'
I9
tp232
a(S'w'
I4
tp233
a(S'p2_vo'
I9
tp234
a(S'w'
I2197
tp235
a(S'p1_vo'
I8
tp236
a(S'w'
I4
tp237
a(S'p2_vo'
I8
tp238
a(S'w'
I2198
tp239
a(S'p1_vo'
I7
tp240
a(S'w'
I4
tp241
a(S'p2_vo'
I7
tp242
a(S'w'
I12
tp243
a(S'no_np'
I14
tp244
a(S'no_ll'
I31
tp245
a(S'w'
I2
tp246
a(S'no_vo'
I9
tp247
a(S'w'
I717
tp248
a(S'no_vo'
I0
tp249
a(S'w'
I1466
tp250
a(S'p1_vo'
I6
tp251
a(S'w'
I4
tp252
a(S'p2_vo'
I6
tp253
a(S'w'
I2197
tp254
a(S'p1_vo'
I5
tp255
a(S'w'
I4
tp256
a(S'p2_vo'
I5
tp257
a(S'w'
I1466
tp258
a(S'p1_ll'
I31
tp259
a(S'w'
I3
tp260
a(S'p1_vo'
I10
tp261
a(S'w'
I6
tp262
a(S'w'
I1
tp263
a(S'p2_ll'
I31
tp264
a(S'w'
I2
tp265
a(S'p2_vo'
I10
tp266
a(S'w'
I7
tp267
a(S'tr_tl'
I59
tp268
a(S'tr_ll'
I31
tp269
a(S'w'
I7
tp270
a(S'no_np'
I12
tp271
a(S'no_ll'
I31
tp272
a(S'w'
I2
tp273
a(S'no_vo'
I9
tp274
a(S'w'
I706
tp275
a(S'no_vo'
I0
tp276
a(S'w'
I731
tp277
a(S'p1_vo'
I9
tp278
a(S'w'
I4
tp279
a(S'p2_vo'
I9
tp280
a(S'w'
I1463
tp281
a(S'p1_vo'
I0
tp282
a(S'w'
I4
tp283
a(S'p2_vo'
I0
tp284
a(S'w'
I2933
tp285
a(S'p1_ll'
I31
tp286
a(S'w'
I2
tp287
a(S'p1_vo'
I10
tp288
a(S'w'
I6
tp289
a(S'p2_ll'
I31
tp290
a(S'w'
I3
tp291
a(S'p2_vo'
I10
tp292
a(S'w'
I5
tp293
a(S'no_np'
I10
tp294
a(S'no_ll'
I31
tp295
a(S'w'
I3
tp296
a(S'no_vo'
I9
tp297
a(S'w'
I716
tp298
a(S'no_vo'
I0
tp299
a(S'w'
I732
tp300
a(S'p1_vo'
I9
tp301
a(S'w'
I4
tp302
a(S'p2_vo'
I9
tp303
a(S'w'
I1462
tp304
a(S'p1_vo'
I0
tp305
a(S'w'
I4
tp306
a(S'p2_vo'
I0
tp307
a(S'w'
I2944
tp308
a(S'no_np'
I8
tp309
a(S'no_ll'
I31
tp310
a(S'w'
I3
tp311
a(S'no_vo'
I9
tp312
a(S'w'
I721
tp313
a(S'no_vo'
I0
tp314
a(S'w'
I5137
tp315
a(S'p1_tl'
I29
tp316
a(S'p1_ll'
I31
tp317
a(S'w'
I3
tp318
a(S'p1_vo'
I10
tp319
a(S'w'
I6
tp320
a(S'p2_tl'
I104
tp321
a(S'w'
I1
tp322
a(S'p2_ll'
I31
tp323
a(S'w'
I2
tp324
a(S'p2_vo'
I10
tp325
a(S'w'
I7
tp326
a(S'tr_tl'
I87
tp327
a(S'tr_ll'
I31
tp328
a(S'tr_th'
I3
tp329
a(S'w'
I14
tp330
a(S'no_np'
I14
tp331
a(S'no_ll'
I31
tp332
a(S'w'
I2
tp333
a(S'no_vo'
I9
tp334
a(S'w'
I699
tp335
a(S'no_vo'
I0
tp336
a(S'w'
I731
tp337
a(S'p1_vo'
I9
tp338
a(S'w'
I4
tp339
a(S'p2_vo'
I9
tp340
a(S'w'
I1463
tp341
a(S'p1_vo'
I0
tp342
a(S'w'
I4
tp343
a(S'p2_vo'
I0
tp344
a(S'w'
I2933
tp345
a(S'p1_ll'
I31
tp346
a(S'w'
I2
tp347
a(S'p1_vo'
I10
tp348
a(S'w'
I6
tp349
a(S'p2_ll'
I31
tp350
a(S'w'
I3
tp351
a(S'p2_vo'
I10
tp352
a(S'w'
I5
tp353
a(S'no_np'
I12
tp354
a(S'no_ll'
I31
tp355
a(S'w'
I3
tp356
a(S'no_vo'
I9
tp357
a(S'w'
I716
tp358
a(S'no_vo'
I0
tp359
a(S'w'
I732
tp360
a(S'p1_vo'
I9
tp361
a(S'w'
I4
tp362
a(S'p2_vo'
I9
tp363
a(S'w'
I1462
tp364
a(S'p1_vo'
I0
tp365
a(S'w'
I4
tp366
a(S'p2_vo'
I0
tp367
a(S'w'
I2944
tp368
a(S'no_np'
I10
tp369
a(S'no_ll'
I31
tp370
a(S'w'
I3
tp371
a(S'no_vo'
I9
tp372
a(S'w'
I721
tp373
a(S'no_vo'
I0
tp374
a(S'w'
I5137
tp375
a(S'no_np'
I8
tp376
a(S'no_ll'
I31
tp377
a(S'w'
I3
tp378
a(S'no_vo'
I9
tp379
a(S'w'
I731
tp380
a(S'no_vo'
I0
tp381
a(S'w'
I5136
tp382
a(S'p1_tl'
I104
tp383
a(S'p1_ll'
I31
tp384
a(S'w'
I2
tp385
a(S'p1_vo'
I10
tp386
a(S'w'
I7
tp387
a(S'p2_tl'
I172
tp388
a(S'w'
I1
tp389
a(S'p2_ll'
I31
tp390
a(S'w'
I2
tp391
a(S'p2_vo'
I10
tp392
a(S'w'
I6
tp393
a(S'tr_tl'
I59
tp394
a(S'tr_ll'
I31
tp395
a(S'tr_th'
I2
tp396
a(S'w'
I14
tp397
a(S'no_np'
I14
tp398
a(S'no_ll'
I31
tp399
a(S'w'
I2
tp400
a(S'no_vo'
I9
tp401
a(S'w'
I700
tp402
a(S'no_vo'
I0
tp403
a(S'w'
I732
tp404
a(S'p1_vo'
I9
tp405
a(S'w'
I4
tp406
a(S'p2_vo'
I9
tp407
a(S'w'
I1462
tp408
a(S'p1_vo'
I0
tp409
a(S'w'
I4
tp410
a(S'p2_vo'
I0
tp411
a(S'w'
I2934
tp412
a(S'p1_ll'
I31
tp413
a(S'w'
I2
tp414
a(S'p1_vo'
I10
tp415
a(S'w'
I6
tp416
a(S'p2_ll'
I31
tp417
a(S'w'
I3
tp418
a(S'p2_vo'
I10
tp419
a(S'w'
I5
tp420
a(S'no_np'
I12
tp421
a(S'no_ll'
I31
tp422
a(S'w'
I3
tp423
a(S'no_vo'
I9
tp424
a(S'w'
I715
tp425
a(S'no_vo'
I0
tp426
a(S'w'
I732
tp427
a(S'p1_vo'
I9
tp428
a(S'w'
I4
tp429
a(S'p2_vo'
I9
tp430
a(S'w'
I1463
tp431
a(S'p1_vo'
I0
tp432
a(S'w'
I4
tp433
a(S'p2_vo'
I0
tp434
a(S'w'
I2943
tp435
a(S'no_np'
I10
tp436
a(S'no_ll'
I31
tp437
a(S'w'
I3
tp438
a(S'no_vo'
I9
tp439
a(S'w'
I722
tp440
a(S'no_vo'
I0
tp441
a(S'w'
I5136
tp442
a(S'no_np'
I8
tp443
a(S'no_ll'
I31
tp444
a(S'w'
I3
tp445
a(S'no_vo'
I9
tp446
a(S'w'
I731
tp447
a(S'no_vo'
I0
tp448
a(S'w'
I5137
tp449
a(S'p1_tl'
I64
tp450
a(S'p1_ll'
I31
tp451
a(S'w'
I3
tp452
a(S'p1_vo'
I10
tp453
a(S'w'
I6
tp454
a(S'p2_tl'
I125
tp455
a(S'w'
I1
tp456
a(S'p2_ll'
I31
tp457
a(S'w'
I2
tp458
a(S'p2_vo'
I10
tp459
a(S'w'
I7
tp460
a(S'tr_tl'
I172
tp461
a(S'tr_ll'
I31
tp462
a(S'tr_th'
I1
tp463
a(S'w'
I14
tp464
a(S'no_np'
I14
tp465
a(S'no_ll'
I31
tp466
a(S'w'
I2
tp467
a(S'no_vo'
I9
tp468
a(S'w'
I698
tp469
a(S'no_vo'
I0
tp470
a(S'w'
I732
tp471
a(S'p1_vo'
I9
tp472
a(S'w'
I4
tp473
a(S'p2_vo'
I9
tp474
a(S'w'
I1463
tp475
a(S'p1_vo'
I0
tp476
a(S'w'
I4
tp477
a(S'p2_vo'
I0
tp478
a(S'w'
I2933
tp479
a(S'p1_ll'
I31
tp480
a(S'w'
I2
tp481
a(S'p1_vo'
I10
tp482
a(S'w'
I6
tp483
a(S'p2_ll'
I31
tp484
a(S'w'
I3
tp485
a(S'p2_vo'
I10
tp486
a(S'w'
I5
tp487
a(S'no_np'
I12
tp488
a(S'no_ll'
I31
tp489
a(S'w'
I3
tp490
a(S'no_vo'
I9
tp491
a(S'w'
I716
tp492
a(S'no_vo'
I0
tp493
a(S'w'
I731
tp494
a(S'p1_vo'
I9
tp495
a(S'w'
I4
tp496
a(S'p2_vo'
I9
tp497
a(S'w'
I1463
tp498
a(S'p1_vo'
I0
tp499
a(S'w'
I4
tp500
a(S'p2_vo'
I0
tp501
a(S'w'
I2943
tp502
a(S'no_np'
I10
tp503
a(S'no_ll'
I31
tp504
a(S'w'
I3
tp505
a(S'no_vo'
I9
tp506
a(S'w'
I722
tp507
a(S'no_vo'
I0
tp508
a(S'w'
I5137
tp509
a(S'p1_tl'
I13
tp510
a(S'p1_ll'
I31
tp511
a(S'w'
I3
tp512
a(S'p1_vo'
I10
tp513
a(S'w'
I6
tp514
a(S'p2_tl'
I64
tp515
a(S'w'
I1
tp516
a(S'p2_ll'
I31
tp517
a(S'w'
I2
tp518
a(S'p2_vo'
I10
tp519
a(S'w'
I7
tp520
a(S'tr_tl'
I104
tp521
a(S'tr_ll'
I31
tp522
a(S'w'
I7
tp523
a(S'no_np'
I8
tp524
a(S'no_ll'
I31
tp525
a(S'w'
I2
tp526
a(S'no_vo'
I9
tp527
a(S'w'
I705
tp528
a(S'no_vo'
I0
tp529
a(S'w'
I732
tp530
a(S'p1_vo'
I9
tp531
a(S'w'
I4
tp532
a(S'p2_vo'
I9
tp533
a(S'w'
I2197
tp534
a(S'p1_vo'
I8
tp535
a(S'w'
I4
tp536
a(S'p2_vo'
I8
tp537
a(S'w'
I2198
tp538
a(S'p1_vo'
I7
tp539
a(S'w'
I4
tp540
a(S'p2_vo'
I7
tp541
a(S'w'
I12
tp542
a(S'no_np'
I14
tp543
a(S'no_ll'
I31
tp544
a(S'w'
I2
tp545
a(S'no_vo'
I9
tp546
a(S'w'
I718
tp547
a(S'no_vo'
I0
tp548
a(S'w'
I1465
tp549
a(S'p1_vo'
I6
tp550
a(S'w'
I4
tp551
a(S'p2_vo'
I6
tp552
a(S'w'
I2198
tp553
a(S'p1_vo'
I5
tp554
a(S'w'
I4
tp555
a(S'p2_vo'
I5
tp556
a(S'w'
I1465
tp557
a(S'p1_ll'
I31
tp558
a(S'w'
I3
tp559
a(S'p1_vo'
I10
tp560
a(S'w'
I6
tp561
a(S'w'
I1
tp562
a(S'p2_ll'
I31
tp563
a(S'w'
I2
tp564
a(S'p2_vo'
I10
tp565
a(S'w'
I7
tp566
a(S'tr_tl'
I125
tp567
a(S'tr_ll'
I31
tp568
a(S'w'
I7
tp569
a(S'no_np'
I12
tp570
a(S'no_ll'
I31
tp571
a(S'w'
I2
tp572
a(S'no_vo'
I9
tp573
a(S'w'
I706
tp574
a(S'no_vo'
I0
tp575
a(S'w'
I732
tp576
a(S'p1_vo'
I9
tp577
a(S'w'
I4
tp578
a(S'p2_vo'
I9
tp579
a(S'w'
I1462
tp580
a(S'p1_vo'
I0
tp581
a(S'w'
I4
tp582
a(S'p2_vo'
I0
tp583
a(S'w'
I2934
tp584
a(S'p1_ll'
I31
tp585
a(S'w'
I2
tp586
a(S'p1_vo'
I10
tp587
a(S'w'
I6
tp588
a(S'p2_ll'
I31
tp589
a(S'w'
I3
tp590
a(S'p2_vo'
I10
tp591
a(S'w'
I5
tp592
a(S'no_np'
I10
tp593
a(S'no_ll'
I31
tp594
a(S'w'
I3
tp595
a(S'no_vo'
I9
tp596
a(S'w'
I715
tp597
a(S'no_vo'
I0
tp598
a(S'w'
I732
tp599
a(S'p1_vo'
I9
tp600
a(S'w'
I4
tp601
a(S'p2_vo'
I9
tp602
a(S'w'
I1463
tp603
a(S'p1_vo'
I0
tp604
a(S'w'
I4
tp605
a(S'p2_vo'
I0
tp606
a(S'w'
I2943
tp607
a(S'no_np'
I8
tp608
a(S'no_ll'
I31
tp609
a(S'w'
I3
tp610
a(S'no_vo'
I9
tp611
a(S'w'
I722
tp612
a(S'no_vo'
I0
tp613
a(S'w'
I5144
tp614
a.