(lp1
(S'clock'
p2
I1789773
tp3
a(S'w'
I13
tp4
a(S'p1_tl'
I202
tp5
a(S'p1_ll'
I31
tp6
a(S'w'
I3
tp7
a(S'p1_du'
I2
tp8
a(S'p1_lh'
I1
tp9
a(S'p1_cv'
I1
tp10
a(S'p1_vo'
I10
tp11
a(S'w'
I11
tp12
a(S'p2_du'
I2
tp13
a(S'p2_lh'
I1
tp14
a(S'p2_cv'
I1
tp15
a(S'w'
I9
tp16
a(S'tr_tl'
I83
tp17
a(S'tr_ll'
I31
tp18
a(S'tr_th'
I1
tp19
a(S'w'
I2
tp20
a(S'tr_lh'
I1
tp21
a(S'tr_lr'
I127
tp22
a(S'w'
I9
tp23
a(S'w'
I1426
tp24
a(S'p1_vo'
I9
tp25
a(S'w'
I2201
tp26
a(S'p1_vo'
I8
tp27
a(S'w'
I2202
tp28
a(S'p1_vo'
I7
tp29
a(S'w'
I2936
tp30
a(S'p1_tl'
I125
tp31
a(S'p1_ll'
I31
tp32
a(S'p1_th'
I1
tp33
a(S'w'
I2
tp34
a(S'p1_vo'
I10
tp35
a(S'w'
I1465
tp36
a(S'p1_vo'
I9
tp37
a(S'w'
I2201
tp38
a(S'p1_vo'
I8
tp39
a(S'w'
I738
tp40
a(S'w'
I1
tp41
a(S'p2_tl'
I202
tp42
a(S'p2_ll'
I31
tp43
a(S'w'
I2
tp44
a(S'p2_vo'
I6
tp45
a(S'w'
I1460
tp46
a(S'p1_vo'
I7
tp47
a(S'w'
I4
tp48
a(S'p2_vo'
I5
tp49
a(S'w'
I2199
tp50
a(S'p2_vo'
I4
tp51
a(S'w'
I733
tp52
a(S'w'
I1
tp53
a(S'p1_tl'
I46
tp54
a(S'p1_ll'
I31
tp55
a(S'w'
I2
tp56
a(S'p1_vo'
I10
tp57
a(S'w'
I5
tp58
a(S'tr_lr'
I0
tp59
a(S'w'
I1459
tp60
a(S'p1_vo'
I9
tp61
a(S'w'
I4
tp62
a(S'p2_vo'
I3
tp63
a(S'w'
I2197
tp64
a(S'p1_vo'
I8
tp65
a(S'w'
I4
tp66
a(S'p2_vo'
I2
tp67
a(S'w'
I732
tp68
a(S'p2_tl'
I125
tp69
a(S'p2_ll'
I31
tp70
a(S'p2_th'
I1
tp71
a(S'w'
I2
tp72
a(S'p2_vo'
I6
tp73
a(S'w'
I1464
tp74
a(S'p1_vo'
I7
tp75
a(S'w'
I4
tp76
a(S'p2_vo'
I5
tp77
a(S'w'
I2198
tp78
a(S'p2_vo'
I4
tp79
a(S'w'
I734
tp80
a(S'p1_tl'
I254
tp81
a(S'p1_ll'
I31
tp82
a(S'p1_th'
I0
tp83
a(S'w'
I2
tp84
a(S'p1_vo'
I10
tp85
a(S'w'
I1465
tp86
a(S'p1_vo'
I9
tp87
a(S'w'
I4
tp88
a(S'p2_vo'
I3
tp89
a(S'w'
I2197
tp90
a(S'p1_vo'
I8
tp91
a(S'w'
I4
tp92
a(S'p2_vo'
I2
tp93
a(S'w'
I732
tp94
a(S'p2_tl'
I46
tp95
a(S'p2_ll'
I31
tp96
a(S'w'
I2
tp97
a(S'p2_vo'
I6
tp98
a(S'w'
I1463
tp99
a(S'p1_vo'
I7
tp100
a(S'w'
I4
tp101
a(S'p2_vo'
I5
tp102
a(S'w'
I2199
tp103
a(S'p2_vo'
I4
tp104
a(S'w'
I734
tp105
a(S'p1_tl'
I202
tp106
a(S'p1_ll'
I31
tp107
a(S'w'
I2
tp108
a(S'p1_vo'
I10
tp109
a(S'w'
I7
tp110
a(S'tr_ll'
I31
tp111
a(S'w'
I2
tp112
a(S'tr_lr'
I127
tp113
a(S'w'
I1455
tp114
a(S'p1_vo'
I9
tp115
a(S'w'
I4
tp116
a(S'p2_vo'
I3
tp117
a(S'w'
I2197
tp118
a(S'p1_vo'
I8
tp119
a(S'w'
I4
tp120
a(S'p2_vo'
I2
tp121
a(S'w'
I732
tp122
a(S'p2_tl'
I254
tp123
a(S'p2_ll'
I31
tp124
a(S'p2_th'
I0
tp125
a(S'w'
I2
tp126
a(S'p2_vo'
I6
tp127
a(S'w'
I1464
tp128
a(S'p1_vo'
I7
tp129
a(S'w'
I4
tp130
a(S'p2_vo'
I5
tp131
a(S'w'
I2198
tp132
a(S'p2_vo'
I4
tp133
a(S'w'
I734
tp134
a(S'p1_tl'
I190
tp135
a(S'p1_ll'
I31
tp136
a(S'w'
I2
tp137
a(S'p1_vo'
I10
tp138
a(S'w'
I1465
tp139
a(S'p1_vo'
I9
tp140
a(S'w'
I4
tp141
a(S'p2_vo'
I3
tp142
a(S'w'
I2197
tp143
a(S'p1_vo'
I8
tp144
a(S'w'
I4
tp145
a(S'p2_vo'
I2
tp146
a(S'w'
I732
tp147
a(S'p2_tl'
I202
tp148
a(S'p2_ll'
I31
tp149
a(S'w'
I2
tp150
a(S'p2_vo'
I6
tp151
a(S'w'
I1463
tp152
a(S'p1_vo'
I7
tp153
a(S'w'
I4
tp154
a(S'p2_vo'
I5
tp155
a(S'w'
I2199
tp156
a(S'p2_vo'
I4
tp157
a(S'w'
I734
tp158
a(S'p1_tl'
I202
tp159
a(S'p1_ll'
I31
tp160
a(S'w'
I2
tp161
a(S'p1_vo'
I10
tp162
a(S'w'
I5
tp163
a(S'tr_lr'
I0
tp164
a(S'w'
I1459
tp165
a(S'p1_vo'
I9
tp166
a(S'w'
I4
tp167
a(S'p2_vo'
I3
tp168
a(S'w'
I2197
tp169
a(S'p1_vo'
I8
tp170
a(S'w'
I4
tp171
a(S'p2_vo'
I2
tp172
a(S'w'
I732
tp173
a(S'p2_tl'
I190
tp174
a(S'p2_ll'
I31
tp175
a(S'w'
I2
tp176
a(S'p2_vo'
I6
tp177
a(S'w'
I1464
tp178
a(S'p1_vo'
I7
tp179
a(S'w'
I4
tp180
a(S'p2_vo'
I5
tp181
a(S'w'
I2198
tp182
a(S'p2_vo'
I4
tp183
a(S'w'
I734
tp184
a(S'p1_tl'
I254
tp185
a(S'p1_ll'
I31
tp186
a(S'w'
I2
tp187
a(S'p1_vo'
I10
tp188
a(S'w'
I1465
tp189
a(S'p1_vo'
I9
tp190
a(S'w'
I4
tp191
a(S'p2_vo'
I3
tp192
a(S'w'
I2197
tp193
a(S'p1_vo'
I8
tp194
a(S'w'
I4
tp195
a(S'p2_vo'
I2
tp196
a(S'w'
I732
tp197
a(S'p2_tl'
I202
tp198
a(S'p2_ll'
I31
tp199
a(S'w'
I2
tp200
a(S'p2_vo'
I6
tp201
a(S'w'
I1463
tp202
a(S'p1_vo'
I7
tp203
a(S'w'
I4
tp204
a(S'p2_vo'
I5
tp205
a(S'w'
I2199
tp206
a(S'p2_vo'
I4
tp207
a(S'w'
I734
tp208
a(S'p1_tl'
I190
tp209
a(S'p1_ll'
I31
tp210
a(S'w'
I2
tp211
a(S'p1_vo'
I10
tp212
a(S'w'
I7
tp213
a(S'tr_tl'
I104
tp214
a(S'tr_ll'
I31
tp215
a(S'w'
I2
tp216
a(S'tr_lr'
I127
tp217
a(S'w'
I1455
tp218
a(S'p1_vo'
I9
tp219
a(S'w'
I4
tp220
a(S'p2_vo'
I3
tp221
a(S'w'
I2197
tp222
a(S'p1_vo'
I8
tp223
a(S'w'
I4
tp224
a(S'p2_vo'
I2
tp225
a(S'w'
I732
tp226
a(S'p2_tl'
I254
tp227
a(S'p2_ll'
I31
tp228
a(S'w'
I2
tp229
a(S'p2_vo'
I6
tp230
a(S'w'
I1464
tp231
a(S'p1_vo'
I7
tp232
a(S'w'
I4
tp233
a(S'p2_vo'
I5
tp234
a(S'w'
I2198
tp235
a(S'p2_vo'
I4
tp236
a(S'w'
I734
tp237
a(S'p1_tl'
I104
tp238
a(S'p1_ll'
I31
tp239
a(S'p1_th'
I1
tp240
a(S'w'
I2
tp241
a(S'p1_vo'
I10
tp242
a(S'w'
I1465
tp243
a(S'p1_vo'
I9
tp244
a(S'w'
I4
tp245
a(S'p2_vo'
I3
tp246
a(S'w'
I2197
tp247
a(S'p1_vo'
I8
tp248
a(S'w'
I4
tp249
a(S'p2_vo'
I2
tp250
a(S'w'
I732
tp251
a(S'p2_tl'
I190
tp252
a(S'p2_ll'
I31
tp253
a(S'w'
I2
tp254
a(S'p2_vo'
I6
tp255
a(S'w'
I1463
tp256
a(S'p1_vo'
I7
tp257
a(S'w'
I4
tp258
a(S'p2_vo'
I5
tp259
a(S'w'
I2199
tp260
a(S'p2_vo'
I4
tp261
a(S'w'
I734
tp262
a(S'p1_tl'
I29
tp263
a(S'p1_ll'
I31
tp264
a(S'w'
I2
tp265
a(S'p1_vo'
I10
tp266
a(S'w'
I5
tp267
a(S'tr_lr'
I0
tp268
a(S'w'
I1459
tp269
a(S'p1_vo'
I9
tp270
a(S'w'
I4
tp271
a(S'p2_vo'
I3
tp272
a(S'w'
I2197
tp273
a(S'p1_vo'
I8
tp274
a(S'w'
I4
tp275
a(S'p2_vo'
I2
tp276
a(S'w'
I732
tp277
a(S'p2_tl'
I104
tp278
a(S'p2_ll'
I31
tp279
a(S'p2_th'
I1
tp280
a(S'w'
I2
tp281
a(S'p2_vo'
I6
tp282
a(S'w'
I1464
tp283
a(S'p1_vo'
I7
tp284
a(S'w'
I4
tp285
a(S'p2_vo'
I5
tp286
a(S'w'
I2198
tp287
a(S'p2_vo'
I4
tp288
a(S'w'
I734
tp289
a(S'p1_tl'
I240
tp290
a(S'p1_ll'
I31
tp291
a(S'p1_th'
I0
tp292
a(S'w'
I2
tp293
a(S'p1_vo'
I10
tp294
a(S'w'
I1465
tp295
a(S'p1_vo'
I9
tp296
a(S'w'
I4
tp297
a(S'p2_vo'
I3
tp298
a(S'w'
I2197
tp299
a(S'p1_vo'
I8
tp300
a(S'w'
I4
tp301
a(S'p2_vo'
I2
tp302
a(S'w'
I732
tp303
a(S'p2_tl'
I29
tp304
a(S'p2_ll'
I31
tp305
a(S'w'
I2
tp306
a(S'p2_vo'
I6
tp307
a(S'w'
I1463
tp308
a(S'p1_vo'
I7
tp309
a(S'w'
I4
tp310
a(S'p2_vo'
I5
tp311
a(S'w'
I2199
tp312
a(S'p2_vo'
I4
tp313
a(S'w'
I734
tp314
a(S'p1_tl'
I190
tp315
a(S'p1_ll'
I31
tp316
a(S'w'
I2
tp317
a(S'p1_vo'
I10
tp318
a(S'w'
I7
tp319
a(S'tr_ll'
I31
tp320
a(S'w'
I2
tp321
a(S'tr_lr'
I127
tp322
a(S'w'
I1455
tp323
a(S'p1_vo'
I9
tp324
a(S'w'
I4
tp325
a(S'p2_vo'
I3
tp326
a(S'w'
I2197
tp327
a(S'p1_vo'
I8
tp328
a(S'w'
I4
tp329
a(S'p2_vo'
I2
tp330
a(S'w'
I732
tp331
a(S'p2_tl'
I240
tp332
a(S'p2_ll'
I31
tp333
a(S'p2_th'
I0
tp334
a(S'w'
I2
tp335
a(S'p2_vo'
I6
tp336
a(S'w'
I1464
tp337
a(S'p1_vo'
I7
tp338
a(S'w'
I4
tp339
a(S'p2_vo'
I5
tp340
a(S'w'
I2198
tp341
a(S'p2_vo'
I4
tp342
a(S'w'
I734
tp343
a(S'p1_tl'
I240
tp344
a(S'p1_ll'
I31
tp345
a(S'w'
I2
tp346
a(S'p1_vo'
I10
tp347
a(S'w'
I1465
tp348
a(S'p1_vo'
I9
tp349
a(S'w'
I4
tp350
a(S'p2_vo'
I3
tp351
a(S'w'
I2197
tp352
a(S'p1_vo'
I8
tp353
a(S'w'
I4
tp354
a(S'p2_vo'
I2
tp355
a(S'w'
I732
tp356
a(S'p2_tl'
I190
tp357
a(S'p2_ll'
I31
tp358
a(S'w'
I2
tp359
a(S'p2_vo'
I6
tp360
a(S'w'
I1463
tp361
a(S'p1_vo'
I7
tp362
a(S'w'
I4
tp363
a(S'p2_vo'
I5
tp364
a(S'w'
I2199
tp365
a(S'p2_vo'
I4
tp366
a(S'w'
I734
tp367
a(S'p1_tl'
I29
tp368
a(S'p1_ll'
I31
tp369
a(S'p1_th'
I1
tp370
a(S'w'
I2
tp371
a(S'p1_vo'
I10
tp372
a(S'w'
I5
tp373
a(S'tr_lr'
I0
tp374
a(S'w'
I1459
tp375
a(S'p1_vo'
I9
tp376
a(S'w'
I4
tp377
a(S'p2_vo'
I3
tp378
a(S'w'
I2197
tp379
a(S'p1_vo'
I8
tp380
a(S'w'
I4
tp381
a(S'p2_vo'
I2
tp382
a(S'w'
I732
tp383
a(S'p2_tl'
I240
tp384
a(S'p2_ll'
I31
tp385
a(S'w'
I2
tp386
a(S'p2_vo'
I6
tp387
a(S'w'
I1464
tp388
a(S'p1_vo'
I7
tp389
a(S'w'
I4
tp390
a(S'p2_vo'
I5
tp391
a(S'w'
I2198
tp392
a(S'p2_vo'
I4
tp393
a(S'w'
I734
tp394
a(S'p1_tl'
I104
tp395
a(S'p1_ll'
I31
tp396
a(S'w'
I2
tp397
a(S'p1_vo'
I10
tp398
a(S'w'
I1465
tp399
a(S'p1_vo'
I9
tp400
a(S'w'
I4
tp401
a(S'p2_vo'
I3
tp402
a(S'w'
I2197
tp403
a(S'p1_vo'
I8
tp404
a(S'w'
I4
tp405
a(S'p2_vo'
I2
tp406
a(S'w'
I732
tp407
a(S'p2_tl'
I29
tp408
a(S'p2_ll'
I31
tp409
a(S'p2_th'
I1
tp410
a(S'w'
I2
tp411
a(S'p2_vo'
I6
tp412
a(S'w'
I1463
tp413
a(S'p1_vo'
I7
tp414
a(S'w'
I4
tp415
a(S'p2_vo'
I5
tp416
a(S'w'
I2199
tp417
a(S'p2_vo'
I4
tp418
a(S'w'
I737
tp419
a(S'p1_tl'
I202
tp420
a(S'p1_ll'
I31
tp421
a(S'p1_th'
I0
tp422
a(S'w'
I2
tp423
a(S'p1_vo'
I10
tp424
a(S'w'
I12
tp425
a(S'tr_tl'
I83
tp426
a(S'w'
I1
tp427
a(S'tr_ll'
I31
tp428
a(S'w'
I2
tp429
a(S'tr_lr'
I127
tp430
a(S'w'
I1446
tp431
a(S'p1_vo'
I9
tp432
a(S'w'
I4
tp433
a(S'p2_vo'
I3
tp434
a(S'w'
I2197
tp435
a(S'p1_vo'
I8
tp436
a(S'w'
I4
tp437
a(S'p2_vo'
I2
tp438
a(S'w'
I732
tp439
a(S'p2_tl'
I104
tp440
a(S'p2_ll'
I31
tp441
a(S'w'
I2
tp442
a(S'p2_vo'
I6
tp443
a(S'w'
I1464
tp444
a(S'p1_vo'
I7
tp445
a(S'w'
I4
tp446
a(S'p2_vo'
I5
tp447
a(S'w'
I2198
tp448
a(S'p2_vo'
I4
tp449
a(S'w'
I734
tp450
a(S'p1_tl'
I125
tp451
a(S'p1_ll'
I31
tp452
a(S'p1_th'
I1
tp453
a(S'w'
I2
tp454
a(S'p1_vo'
I10
tp455
a(S'w'
I1465
tp456
a(S'p1_vo'
I9
tp457
a(S'w'
I4
tp458
a(S'p2_vo'
I3
tp459
a(S'w'
I2197
tp460
a(S'p1_vo'
I8
tp461
a(S'w'
I4
tp462
a(S'p2_vo'
I2
tp463
a(S'w'
I734
tp464
a.