(lp1
(S'clock'
p2
I1789772
tp3
a(S'ch_no'
I1
tp4
a(S'ch_tr'
I1
tp5
a(S'ch_p2'
I1
tp6
a(S'ch_p1'
I1
tp7
a(S'fc_mo'
I1
tp8
a(S'w'
I32
tp9
a(S'p1_cv'
I1
tp10
a(S'w'
I1
tp11
a(S'p2_cv'
I1
tp12
a(S'w'
I1
tp13
a(S'w'
I1
tp14
a(S'w'
I715
tp15
a(S'p1_du'
I2
tp16
a(S'p1_cv'
I0
tp17
a(S'p1_vo'
I15
tp18
a(S'p1_sp'
I7
tp19
a(S'p1_sn'
I1
tp20
a(S'p1_ss'
I7
tp21
a(S'w'
I1
tp22
a(S'p1_tl'
I169
tp23
a(S'p1_ll'
I17
tp24
a(S'w'
I3
tp25
a(S'p2_du'
I1
tp26
a(S'p2_cv'
I0
tp27
a(S'p2_vo'
I15
tp28
a(S'p2_sp'
I7
tp29
a(S'p2_sn'
I1
tp30
a(S'p2_ss'
I7
tp31
a(S'w'
I1
tp32
a(S'p2_tl'
I200
tp33
a(S'p2_ll'
I17
tp34
a(S'w'
I3
tp35
a(S'tr_lh'
I1
tp36
a(S'tr_lr'
I45
tp37
a(S'w'
I1
tp38
a(S'tr_tl'
I254
tp39
a(S'w'
I1
tp40
a(S'tr_ll'
I1
tp41
a(S'w'
I4394
tp42
a(S'p1_tl'
I200
tp43
a(S'p1_ll'
I17
tp44
a(S'w'
I4
tp45
a(S'p2_tl'
I254
tp46
a(S'p2_ll'
I17
tp47
a(S'w'
I4399
tp48
a(S'p1_tl'
I190
tp49
a(S'p1_ll'
I17
tp50
a(S'w'
I4
tp51
a(S'p2_tl'
I226
tp52
a(S'p2_ll'
I17
tp53
a(S'w'
I4
tp54
a(S'tr_tl'
I169
tp55
a(S'w'
I1
tp56
a(S'tr_ll'
I1
tp57
a(S'w'
I4394
tp58
a(S'p1_tl'
I226
tp59
a(S'p1_ll'
I17
tp60
a(S'w'
I4
tp61
a(S'p2_tl'
I13
tp62
a(S'p2_ll'
I17
tp63
a(S'p2_th'
I1
tp64
a(S'w'
I4398
tp65
a(S'p1_tl'
I200
tp66
a(S'p1_ll'
I17
tp67
a(S'w'
I4
tp68
a(S'p2_tl'
I254
tp69
a(S'p2_ll'
I17
tp70
a(S'p2_th'
I0
tp71
a(S'w'
I4
tp72
a(S'tr_tl'
I127
tp73
a(S'w'
I1
tp74
a(S'tr_ll'
I1
tp75
a(S'w'
I4394
tp76
a(S'p1_tl'
I254
tp77
a(S'p1_ll'
I17
tp78
a(S'w'
I4
tp79
a(S'p2_tl'
I46
tp80
a(S'p2_ll'
I17
tp81
a(S'p2_th'
I1
tp82
a(S'w'
I4399
tp83
a(S'p1_tl'
I226
tp84
a(S'p1_ll'
I17
tp85
a(S'w'
I4
tp86
a(S'p2_tl'
I13
tp87
a(S'p2_ll'
I17
tp88
a(S'w'
I4399
tp89
a(S'p1_tl'
I13
tp90
a(S'p1_ll'
I17
tp91
a(S'p1_th'
I1
tp92
a(S'w'
I4
tp93
a(S'p2_tl'
I83
tp94
a(S'p2_ll'
I17
tp95
a(S'w'
I4
tp96
a(S'tr_tl'
I169
tp97
a(S'w'
I1
tp98
a(S'tr_ll'
I1
tp99
a(S'w'
I4393
tp100
a(S'p1_tl'
I254
tp101
a(S'p1_ll'
I17
tp102
a(S'p1_th'
I0
tp103
a(S'w'
I4
tp104
a(S'p2_tl'
I46
tp105
a(S'p2_ll'
I17
tp106
a(S'w'
I4
tp107
a(S'tr_tl'
I190
tp108
a(S'w'
I1
tp109
a(S'tr_ll'
I1
tp110
a(S'w'
I4394
tp111
a(S'p1_tl'
I83
tp112
a(S'p1_ll'
I17
tp113
a(S'p1_th'
I1
tp114
a(S'w'
I4
tp115
a(S'p2_tl'
I144
tp116
a(S'p2_ll'
I17
tp117
a(S'w'
I4
tp118
a(S'tr_tl'
I200
tp119
a(S'w'
I1
tp120
a(S'tr_ll'
I1
tp121
a(S'w'
I4394
tp122
a(S'p1_tl'
I46
tp123
a(S'p1_ll'
I17
tp124
a(S'w'
I4
tp125
a(S'p2_tl'
I125
tp126
a(S'p2_ll'
I17
tp127
a(S'w'
I4
tp128
a(S'tr_tl'
I226
tp129
a(S'w'
I1
tp130
a(S'tr_ll'
I1
tp131
a(S'w'
I4394
tp132
a(S'p1_tl'
I125
tp133
a(S'p1_ll'
I17
tp134
a(S'w'
I4
tp135
a(S'p2_tl'
I197
tp136
a(S'p2_ll'
I17
tp137
a(S'w'
I4
tp138
a(S'tr_tl'
I254
tp139
a(S'w'
I1
tp140
a(S'tr_ll'
I1
tp141
a(S'w'
I4393
tp142
a(S'p1_tl'
I144
tp143
a(S'p1_ll'
I17
tp144
a(S'w'
I4
tp145
a(S'p2_tl'
I252
tp146
a(S'p2_ll'
I17
tp147
a(S'w'
I4399
tp148
a(S'p1_tl'
I197
tp149
a(S'p1_ll'
I17
tp150
a(S'w'
I4
tp151
a(S'p2_tl'
I27
tp152
a(S'p2_ll'
I17
tp153
a(S'p2_th'
I2
tp154
a(S'w'
I4
tp155
a(S'tr_tl'
I226
tp156
a(S'w'
I1
tp157
a(S'tr_ll'
I1
tp158
a(S'w'
I4394
tp159
a(S'p1_tl'
I252
tp160
a(S'p1_ll'
I17
tp161
a(S'w'
I4
tp162
a(S'p2_tl'
I93
tp163
a(S'p2_ll'
I17
tp164
a(S'w'
I4399
tp165
a(S'p1_tl'
I27
tp166
a(S'p1_ll'
I17
tp167
a(S'p1_th'
I2
tp168
a(S'w'
I4
tp169
a(S'p2_tl'
I167
tp170
a(S'p2_ll'
I17
tp171
a(S'w'
I4398
tp172
a(S'p1_tl'
I252
tp173
a(S'p1_ll'
I17
tp174
a(S'p1_th'
I1
tp175
a(S'w'
I4
tp176
a(S'p2_ll'
I17
tp177
a(S'w'
I4
tp178
a(S'tr_tl'
I200
tp179
a(S'w'
I1
tp180
a(S'tr_ll'
I1
tp181
a(S'w'
I4394
tp182
a(S'p1_tl'
I144
tp183
a(S'p1_ll'
I17
tp184
a(S'w'
I4
tp185
a(S'p2_tl'
I252
tp186
a(S'p2_ll'
I17
tp187
a(S'p2_th'
I1
tp188
a(S'w'
I4399
tp189
a(S'p1_tl'
I197
tp190
a(S'p1_ll'
I17
tp191
a(S'w'
I4
tp192
a(S'p2_tl'
I27
tp193
a(S'p2_ll'
I17
tp194
a(S'p2_th'
I2
tp195
a(S'w'
I4
tp196
a(S'tr_tl'
I190
tp197
a(S'w'
I1
tp198
a(S'tr_ll'
I1
tp199
a(S'w'
I4394
tp200
a(S'p1_tl'
I125
tp201
a(S'p1_ll'
I17
tp202
a(S'w'
I4
tp203
a(S'p2_tl'
I197
tp204
a(S'p2_ll'
I17
tp205
a(S'p2_th'
I1
tp206
a(S'w'
I4398
tp207
a(S'p1_tl'
I144
tp208
a(S'p1_ll'
I17
tp209
a(S'w'
I4
tp210
a(S'p2_tl'
I252
tp211
a(S'p2_ll'
I17
tp212
a(S'w'
I4
tp213
a(S'tr_tl'
I169
tp214
a(S'w'
I1
tp215
a(S'tr_ll'
I1
tp216
a(S'w'
I4394
tp217
a(S'p1_tl'
I83
tp218
a(S'p1_ll'
I17
tp219
a(S'w'
I4
tp220
a(S'p2_tl'
I144
tp221
a(S'p2_ll'
I17
tp222
a(S'w'
I4399
tp223
a(S'p1_tl'
I125
tp224
a(S'p1_ll'
I17
tp225
a(S'w'
I4
tp226
a(S'p2_tl'
I197
tp227
a(S'p2_ll'
I17
tp228
a(S'w'
I4
tp229
a(S'tr_tl'
I151
tp230
a(S'w'
I1
tp231
a(S'tr_ll'
I1
tp232
a(S'w'
I4394
tp233
a(S'p1_tl'
I46
tp234
a(S'p1_ll'
I17
tp235
a(S'w'
I4
tp236
a(S'p2_tl'
I125
tp237
a(S'p2_ll'
I17
tp238
a(S'w'
I4398
tp239
a(S'p1_tl'
I83
tp240
a(S'p1_ll'
I17
tp241
a(S'w'
I4
tp242
a(S'p2_tl'
I144
tp243
a(S'p2_ll'
I17
tp244
a(S'w'
I4
tp245
a(S'tr_tl'
I169
tp246
a(S'w'
I1
tp247
a(S'tr_ll'
I1
tp248
a(S'w'
I4394
tp249
a(S'p1_tl'
I254
tp250
a(S'p1_ll'
I17
tp251
a(S'p1_th'
I0
tp252
a(S'w'
I4
tp253
a(S'p2_tl'
I83
tp254
a(S'p2_ll'
I17
tp255
a(S'w'
I4399
tp256
a(S'p1_tl'
I13
tp257
a(S'p1_ll'
I17
tp258
a(S'p1_th'
I1
tp259
a(S'w'
I4
tp260
a(S'p2_tl'
I125
tp261
a(S'p2_ll'
I17
tp262
a(S'w'
I4
tp263
a(S'tr_tl'
I190
tp264
a(S'w'
I1
tp265
a(S'tr_ll'
I1
tp266
a(S'w'
I4394
tp267
a(S'p1_tl'
I254
tp268
a(S'p1_ll'
I17
tp269
a(S'p1_th'
I0
tp270
a(S'w'
I4
tp271
a(S'p2_tl'
I46
tp272
a(S'p2_ll'
I17
tp273
a(S'w'
I4
tp274
a(S'tr_tl'
I200
tp275
a(S'w'
I1
tp276
a(S'tr_ll'
I1
tp277
a(S'w'
I4393
tp278
a(S'p1_tl'
I226
tp279
a(S'p1_ll'
I17
tp280
a(S'w'
I4
tp281
a(S'p2_tl'
I83
tp282
a(S'p2_ll'
I17
tp283
a(S'w'
I4
tp284
a(S'tr_tl'
I226
tp285
a(S'w'
I1
tp286
a(S'tr_ll'
I1
tp287
a(S'w'
I4394
tp288
a(S'p1_tl'
I83
tp289
a(S'p1_ll'
I17
tp290
a(S'p1_th'
I1
tp291
a(S'w'
I4
tp292
a(S'p2_tl'
I125
tp293
a(S'p2_ll'
I17
tp294
a(S'w'
I4
tp295
a(S'tr_tl'
I13
tp296
a(S'w'
I1
tp297
a(S'tr_ll'
I1
tp298
a(S'tr_th'
I1
tp299
a(S'w'
I4394
tp300
a(S'p1_tl'
I46
tp301
a(S'p1_ll'
I17
tp302
a(S'w'
I4
tp303
a(S'p2_tl'
I144
tp304
a(S'p2_ll'
I17
tp305
a(S'w'
I4
tp306
a(S'tr_tl'
I254
tp307
a(S'w'
I1
tp308
a(S'tr_ll'
I1
tp309
a(S'tr_th'
I0
tp310
a(S'w'
I4394
tp311
a(S'p1_tl'
I13
tp312
a(S'p1_ll'
I17
tp313
a(S'w'
I4
tp314
a(S'p2_tl'
I197
tp315
a(S'p2_ll'
I17
tp316
a(S'w'
I3
tp317
a(S'tr_lh'
I0
tp318
a(S'tr_lr'
I42
tp319
a(S'w'
I1
tp320
a(S'tr_tl'
I226
tp321
a(S'w'
I1
tp322
a(S'tr_ll'
I1
tp323
a(S'w'
I4408
tp324
a(S'p1_du'
I0
tp325
a(S'p1_cv'
I1
tp326
a(S'p1_vo'
I0
tp327
a(S'w'
I1
tp328
a(S'p2_du'
I0
tp329
a(S'p2_cv'
I1
tp330
a(S'p2_vo'
I0
tp331
a(S'w'
I1
tp332
a(S'tr_lr'
I0
tp333
a(S'w'
I37544
tp334
a.