(lp1
(S'clock'
p2
I1789772
tp3
a(S'ch_no'
I1
tp4
a(S'ch_tr'
I1
tp5
a(S'ch_p2'
I1
tp6
a(S'ch_p1'
I1
tp7
a(S'fc_mo'
I1
tp8
a(S'w'
I32
tp9
a(S'p1_cv'
I1
tp10
a(S'w'
I1
tp11
a(S'p2_cv'
I1
tp12
a(S'w'
I1
tp13
a(S'w'
I1
tp14
a(S'w'
I705
tp15
a(S'p1_du'
I1
tp16
a(S'p1_cv'
I0
tp17
a(S'p1_vo'
I15
tp18
a(S'p1_sp'
I7
tp19
a(S'p1_sn'
I1
tp20
a(S'p1_ss'
I7
tp21
a(S'w'
I1
tp22
a(S'p1_tl'
I59
tp23
a(S'p1_ll'
I8
tp24
a(S'p1_th'
I2
tp25
a(S'w'
I4
tp26
a(S'p2_du'
I2
tp27
a(S'p2_lh'
I1
tp28
a(S'w'
I1
tp29
a(S'p2_sp'
I7
tp30
a(S'p2_sn'
I1
tp31
a(S'p2_ss'
I7
tp32
a(S'w'
I1
tp33
a(S'p2_ll'
I8
tp34
a(S'w'
I8801
tp35
a(S'p2_vo'
I8
tp36
a(S'w'
I1
tp37
a(S'p2_tl'
I59
tp38
a(S'w'
I1
tp39
a(S'p2_ll'
I8
tp40
a(S'p2_th'
I2
tp41
a(S'w'
I4400
tp42
a(S'p1_tl'
I171
tp43
a(S'p1_ll'
I8
tp44
a(S'p1_th'
I1
tp45
a(S'w'
I4402
tp46
a(S'p1_tl'
I125
tp47
a(S'p1_ll'
I8
tp48
a(S'w'
I4405
tp49
a(S'p2_tl'
I171
tp50
a(S'w'
I1
tp51
a(S'p2_ll'
I8
tp52
a(S'p2_th'
I1
tp53
a(S'w'
I4402
tp54
a(S'p2_tl'
I125
tp55
a(S'w'
I1
tp56
a(S'p2_ll'
I8
tp57
a(S'w'
I4400
tp58
a(S'p1_tl'
I64
tp59
a(S'p1_ll'
I8
tp60
a(S'w'
I4402
tp61
a(S'p1_tl'
I83
tp62
a(S'p1_ll'
I8
tp63
a(S'w'
I4405
tp64
a(S'p2_tl'
I64
tp65
a(S'w'
I1
tp66
a(S'p2_ll'
I8
tp67
a(S'w'
I4402
tp68
a(S'p2_tl'
I83
tp69
a(S'w'
I1
tp70
a(S'p2_ll'
I8
tp71
a(S'w'
I4400
tp72
a(S'p1_tl'
I171
tp73
a(S'p1_ll'
I8
tp74
a(S'w'
I4402
tp75
a(S'p1_tl'
I125
tp76
a(S'p1_ll'
I8
tp77
a(S'w'
I4405
tp78
a(S'p2_tl'
I171
tp79
a(S'w'
I1
tp80
a(S'p2_ll'
I8
tp81
a(S'w'
I4402
tp82
a(S'p2_tl'
I125
tp83
a(S'w'
I1
tp84
a(S'p2_ll'
I8
tp85
a(S'w'
I4400
tp86
a(S'p1_tl'
I254
tp87
a(S'p1_ll'
I8
tp88
a(S'p1_th'
I0
tp89
a(S'w'
I4402
tp90
a(S'p1_tl'
I29
tp91
a(S'p1_ll'
I8
tp92
a(S'p1_th'
I1
tp93
a(S'w'
I4405
tp94
a(S'p2_tl'
I254
tp95
a(S'w'
I1
tp96
a(S'p2_ll'
I8
tp97
a(S'p2_th'
I0
tp98
a(S'w'
I4402
tp99
a(S'p2_tl'
I29
tp100
a(S'w'
I1
tp101
a(S'p2_ll'
I8
tp102
a(S'p2_th'
I1
tp103
a(S'w'
I4400
tp104
a(S'p1_tl'
I171
tp105
a(S'p1_ll'
I8
tp106
a(S'w'
I4402
tp107
a(S'p1_tl'
I125
tp108
a(S'p1_ll'
I8
tp109
a(S'w'
I4405
tp110
a(S'p2_tl'
I171
tp111
a(S'w'
I1
tp112
a(S'p2_ll'
I8
tp113
a(S'w'
I4402
tp114
a(S'p2_tl'
I125
tp115
a(S'w'
I1
tp116
a(S'p2_ll'
I8
tp117
a(S'w'
I4400
tp118
a(S'p1_tl'
I64
tp119
a(S'p1_ll'
I8
tp120
a(S'w'
I4402
tp121
a(S'p1_tl'
I83
tp122
a(S'p1_ll'
I8
tp123
a(S'w'
I4405
tp124
a(S'p2_tl'
I64
tp125
a(S'w'
I1
tp126
a(S'p2_ll'
I8
tp127
a(S'w'
I4402
tp128
a(S'p2_tl'
I83
tp129
a(S'w'
I1
tp130
a(S'p2_ll'
I8
tp131
a(S'w'
I4400
tp132
a(S'p1_tl'
I171
tp133
a(S'p1_ll'
I8
tp134
a(S'w'
I4402
tp135
a(S'p1_tl'
I29
tp136
a(S'p1_ll'
I8
tp137
a(S'w'
I4405
tp138
a(S'p2_tl'
I171
tp139
a(S'w'
I1
tp140
a(S'p2_ll'
I8
tp141
a(S'w'
I4402
tp142
a(S'p2_tl'
I29
tp143
a(S'w'
I1
tp144
a(S'p2_ll'
I8
tp145
a(S'w'
I4400
tp146
a(S'p1_tl'
I226
tp147
a(S'p1_ll'
I8
tp148
a(S'p1_th'
I0
tp149
a(S'w'
I4402
tp150
a(S'p1_tl'
I213
tp151
a(S'p1_ll'
I8
tp152
a(S'w'
I4405
tp153
a(S'p2_tl'
I226
tp154
a(S'w'
I1
tp155
a(S'p2_ll'
I8
tp156
a(S'p2_th'
I0
tp157
a(S'w'
I4402
tp158
a(S'p2_tl'
I213
tp159
a(S'w'
I1
tp160
a(S'p2_ll'
I8
tp161
a(S'w'
I4400
tp162
a(S'p1_tl'
I240
tp163
a(S'p1_ll'
I8
tp164
a(S'w'
I4402
tp165
a(S'p1_tl'
I13
tp166
a(S'p1_ll'
I8
tp167
a(S'p1_th'
I1
tp168
a(S'w'
I4405
tp169
a(S'p2_tl'
I240
tp170
a(S'w'
I1
tp171
a(S'p2_ll'
I8
tp172
a(S'w'
I4402
tp173
a(S'p2_tl'
I13
tp174
a(S'w'
I1
tp175
a(S'p2_ll'
I8
tp176
a(S'p2_th'
I1
tp177
a(S'w'
I4400
tp178
a(S'p1_tl'
I29
tp179
a(S'p1_ll'
I8
tp180
a(S'w'
I4402
tp181
a(S'p1_tl'
I64
tp182
a(S'p1_ll'
I8
tp183
a(S'w'
I4405
tp184
a(S'p2_tl'
I29
tp185
a(S'w'
I1
tp186
a(S'p2_ll'
I8
tp187
a(S'w'
I4402
tp188
a(S'p2_tl'
I64
tp189
a(S'w'
I1
tp190
a(S'p2_ll'
I8
tp191
a(S'w'
I4400
tp192
a(S'p1_tl'
I103
tp193
a(S'p1_ll'
I8
tp194
a(S'w'
I4402
tp195
a(S'p1_tl'
I125
tp196
a(S'p1_ll'
I8
tp197
a(S'w'
I4405
tp198
a(S'p2_tl'
I103
tp199
a(S'w'
I1
tp200
a(S'p2_ll'
I8
tp201
a(S'w'
I4402
tp202
a(S'p2_tl'
I125
tp203
a(S'w'
I1
tp204
a(S'p2_ll'
I8
tp205
a(S'w'
I4400
tp206
a(S'p1_tl'
I224
tp207
a(S'p1_ll'
I8
tp208
a(S'w'
I4402
tp209
a(S'p1_tl'
I240
tp210
a(S'p1_ll'
I8
tp211
a(S'p1_th'
I0
tp212
a(S'w'
I4405
tp213
a(S'p2_tl'
I224
tp214
a(S'w'
I1
tp215
a(S'p2_ll'
I8
tp216
a(S'w'
I4402
tp217
a(S'p2_tl'
I240
tp218
a(S'w'
I1
tp219
a(S'p2_ll'
I8
tp220
a(S'p2_th'
I0
tp221
a(S'w'
I4400
tp222
a(S'p1_tl'
I213
tp223
a(S'p1_ll'
I8
tp224
a(S'w'
I4402
tp225
a(S'p1_tl'
I240
tp226
a(S'p1_ll'
I8
tp227
a(S'w'
I4405
tp228
a(S'p2_tl'
I213
tp229
a(S'w'
I1
tp230
a(S'p2_ll'
I8
tp231
a(S'w'
I4402
tp232
a(S'p2_tl'
I240
tp233
a(S'w'
I1
tp234
a(S'p2_ll'
I8
tp235
a(S'w'
I4400
tp236
a(S'p1_tl'
I29
tp237
a(S'p1_ll'
I8
tp238
a(S'p1_th'
I1
tp239
a(S'w'
I4402
tp240
a(S'p1_tl'
I254
tp241
a(S'p1_ll'
I8
tp242
a(S'p1_th'
I0
tp243
a(S'w'
I4405
tp244
a(S'p2_tl'
I29
tp245
a(S'w'
I1
tp246
a(S'p2_ll'
I8
tp247
a(S'p2_th'
I1
tp248
a(S'w'
I1465
tp249
a(S'p1_tl'
I64
tp250
a(S'p1_ll'
I8
tp251
a(S'p1_th'
I1
tp252
a(S'w'
I2937
tp253
a(S'p2_tl'
I254
tp254
a(S'w'
I1
tp255
a(S'p2_ll'
I8
tp256
a(S'p2_th'
I0
tp257
a(S'w'
I2932
tp258
a(S'p1_tl'
I125
tp259
a(S'p1_ll'
I8
tp260
a(S'w'
I2937
tp261
a(S'p2_tl'
I64
tp262
a(S'w'
I1
tp263
a(S'p2_ll'
I8
tp264
a(S'p2_th'
I1
tp265
a(S'w'
I2932
tp266
a(S'p1_tl'
I29
tp267
a(S'p1_ll'
I8
tp268
a(S'w'
I2937
tp269
a(S'p2_tl'
I125
tp270
a(S'w'
I1
tp271
a(S'p2_ll'
I8
tp272
a(S'w'
I2933
tp273
a(S'p1_tl'
I83
tp274
a(S'p1_ll'
I8
tp275
a(S'w'
I2937
tp276
a(S'p2_tl'
I29
tp277
a(S'w'
I1
tp278
a(S'p2_ll'
I8
tp279
a(S'w'
I2931
tp280
a(S'p1_cv'
I1
tp281
a(S'p1_vo'
I11
tp282
a(S'w'
I1
tp283
a(S'p1_tl'
I125
tp284
a(S'p1_ll'
I16
tp285
a(S'w'
I2937
tp286
a(S'p2_tl'
I83
tp287
a(S'w'
I1
tp288
a(S'p2_ll'
I8
tp289
a(S'w'
I2958
tp290
a(S'p1_du'
I0
tp291
a(S'p1_vo'
I0
tp292
a(S'w'
I2910
tp293
a(S'p2_lh'
I0
tp294
a(S'p2_vo'
I11
tp295
a(S'w'
I1
tp296
a(S'p2_tl'
I125
tp297
a(S'w'
I1
tp298
a(S'p2_ll'
I16
tp299
a(S'w'
I5894
tp300
a(S'p2_du'
I0
tp301
a(S'p2_vo'
I0
tp302
a(S'w'
I46571
tp303
a.