(lp1
(S'clock'
p2
I1789772
tp3
a(S'ch_no'
I1
tp4
a(S'ch_tr'
I1
tp5
a(S'ch_p2'
I1
tp6
a(S'ch_p1'
I1
tp7
a(S'fc_mo'
I1
tp8
a(S'w'
I32
tp9
a(S'p1_cv'
I1
tp10
a(S'w'
I1
tp11
a(S'p2_cv'
I1
tp12
a(S'w'
I1
tp13
a(S'w'
I1
tp14
a(S'w'
I719
tp15
a(S'p1_du'
I2
tp16
a(S'p1_cv'
I0
tp17
a(S'p1_vo'
I2
tp18
a(S'w'
I1
tp19
a(S'p1_sp'
I7
tp20
a(S'p1_sn'
I1
tp21
a(S'p1_ss'
I7
tp22
a(S'p1_tl'
I226
tp23
a(S'w'
I1
tp24
a(S'p1_ll'
I31
tp25
a(S'w'
I2
tp26
a(S'p2_du'
I2
tp27
a(S'p2_cv'
I0
tp28
a(S'p2_vo'
I2
tp29
a(S'w'
I1
tp30
a(S'p2_sp'
I7
tp31
a(S'p2_sn'
I1
tp32
a(S'p2_ss'
I7
tp33
a(S'p2_tl'
I29
tp34
a(S'w'
I1
tp35
a(S'p2_ll'
I31
tp36
a(S'p2_th'
I1
tp37
a(S'w'
I2
tp38
a(S'tr_lh'
I1
tp39
a(S'tr_lr'
I126
tp40
a(S'w'
I1
tp41
a(S'w'
I1
tp42
a(S'tr_tl'
I113
tp43
a(S'tr_ll'
I1
tp44
a(S'w'
I14
tp45
a(S'w'
I17588
tp46
a(S'p1_tl'
I29
tp47
a(S'w'
I1
tp48
a(S'p1_ll'
I31
tp49
a(S'p1_th'
I1
tp50
a(S'w'
I3
tp51
a(S'p2_tl'
I83
tp52
a(S'w'
I1
tp53
a(S'p2_ll'
I31
tp54
a(S'w'
I17606
tp55
a(S'p1_tl'
I83
tp56
a(S'w'
I1
tp57
a(S'p1_ll'
I31
tp58
a(S'w'
I3
tp59
a(S'p2_tl'
I171
tp60
a(S'w'
I1
tp61
a(S'p2_ll'
I31
tp62
a(S'w'
I17606
tp63
a(S'p1_tl'
I171
tp64
a(S'w'
I1
tp65
a(S'p1_ll'
I31
tp66
a(S'w'
I3
tp67
a(S'p2_tl'
I197
tp68
a(S'w'
I1
tp69
a(S'p2_ll'
I31
tp70
a(S'w'
I17609
tp71
a(S'tr_ll'
I1
tp72
a(S'w'
I13206
tp73
a(S'p1_tl'
I226
tp74
a(S'w'
I1
tp75
a(S'p1_ll'
I31
tp76
a(S'p1_th'
I0
tp77
a(S'w'
I3
tp78
a(S'p2_tl'
I59
tp79
a(S'w'
I1
tp80
a(S'p2_ll'
I31
tp81
a(S'p2_th'
I2
tp82
a(S'w'
I4397
tp83
a(S'p1_tl'
I29
tp84
a(S'w'
I1
tp85
a(S'p1_ll'
I31
tp86
a(S'p1_th'
I1
tp87
a(S'w'
I3
tp88
a(S'p2_tl'
I83
tp89
a(S'w'
I1
tp90
a(S'p2_ll'
I31
tp91
a(S'p2_th'
I1
tp92
a(S'w'
I13204
tp93
a(S'p1_tl'
I83
tp94
a(S'w'
I1
tp95
a(S'p1_ll'
I31
tp96
a(S'w'
I3
tp97
a(S'p2_tl'
I171
tp98
a(S'w'
I1
tp99
a(S'p2_ll'
I31
tp100
a(S'w'
I4397
tp101
a(S'p1_tl'
I171
tp102
a(S'w'
I1
tp103
a(S'p1_ll'
I31
tp104
a(S'w'
I3
tp105
a(S'p2_tl'
I197
tp106
a(S'w'
I1
tp107
a(S'p2_ll'
I31
tp108
a(S'w'
I4
tp109
a(S'tr_tl'
I142
tp110
a(S'tr_ll'
I1
tp111
a(S'w'
I5862
tp112
a(S'p1_tl'
I83
tp113
a(S'w'
I1
tp114
a(S'p1_ll'
I31
tp115
a(S'w'
I3
tp116
a(S'p2_tl'
I171
tp117
a(S'w'
I1
tp118
a(S'p2_ll'
I31
tp119
a(S'w'
I5865
tp120
a(S'p1_tl'
I29
tp121
a(S'w'
I1
tp122
a(S'p1_ll'
I31
tp123
a(S'w'
I3
tp124
a(S'p2_tl'
I83
tp125
a(S'w'
I1
tp126
a(S'p2_ll'
I31
tp127
a(S'w'
I5865
tp128
a(S'p1_tl'
I103
tp129
a(S'w'
I1
tp130
a(S'p1_ll'
I31
tp131
a(S'w'
I3
tp132
a(S'p2_tl'
I171
tp133
a(S'w'
I1
tp134
a(S'p2_ll'
I31
tp135
a(S'w'
I4
tp136
a(S'tr_tl'
I113
tp137
a(S'tr_ll'
I1
tp138
a(S'w'
I5862
tp139
a(S'p1_tl'
I46
tp140
a(S'w'
I1
tp141
a(S'p1_ll'
I31
tp142
a(S'w'
I3
tp143
a(S'p2_tl'
I103
tp144
a(S'w'
I1
tp145
a(S'p2_ll'
I31
tp146
a(S'w'
I5865
tp147
a(S'p1_tl'
I254
tp148
a(S'w'
I1
tp149
a(S'p1_ll'
I31
tp150
a(S'p1_th'
I0
tp151
a(S'w'
I3
tp152
a(S'p2_tl'
I64
tp153
a(S'w'
I1
tp154
a(S'p2_ll'
I31
tp155
a(S'w'
I5865
tp156
a(S'p1_tl'
I64
tp157
a(S'w'
I1
tp158
a(S'p1_ll'
I31
tp159
a(S'p1_th'
I1
tp160
a(S'w'
I3
tp161
a(S'p2_tl'
I125
tp162
a(S'w'
I1
tp163
a(S'p2_ll'
I31
tp164
a(S'w'
I4
tp165
a(S'tr_tl'
I127
tp166
a(S'tr_ll'
I1
tp167
a(S'w'
I17602
tp168
a(S'p1_tl'
I254
tp169
a(S'w'
I1
tp170
a(S'p1_ll'
I31
tp171
a(S'p1_th'
I0
tp172
a(S'w'
I3
tp173
a(S'p2_tl'
I64
tp174
a(S'w'
I1
tp175
a(S'p2_ll'
I31
tp176
a(S'w'
I17606
tp177
a(S'p1_tl'
I213
tp178
a(S'w'
I1
tp179
a(S'p1_ll'
I31
tp180
a(S'w'
I3
tp181
a(S'p2_tl'
I254
tp182
a(S'w'
I1
tp183
a(S'p2_ll'
I31
tp184
a(S'p2_th'
I0
tp185
a(S'w'
I17606
tp186
a(S'p1_tl'
I190
tp187
a(S'w'
I1
tp188
a(S'p1_ll'
I31
tp189
a(S'w'
I3
tp190
a(S'p2_tl'
I213
tp191
a(S'w'
I1
tp192
a(S'p2_ll'
I31
tp193
a(S'w'
I17609
tp194
a(S'tr_tl'
I134
tp195
a(S'tr_ll'
I1
tp196
a(S'w'
I13206
tp197
a(S'p1_tl'
I179
tp198
a(S'w'
I1
tp199
a(S'p1_ll'
I31
tp200
a(S'w'
I3
tp201
a(S'w'
I1
tp202
a(S'p2_ll'
I31
tp203
a(S'w'
I4397
tp204
a(S'p1_tl'
I213
tp205
a(S'w'
I1
tp206
a(S'p1_ll'
I31
tp207
a(S'w'
I3
tp208
a(S'p2_tl'
I13
tp209
a(S'w'
I1
tp210
a(S'p2_ll'
I31
tp211
a(S'p2_th'
I1
tp212
a(S'w'
I13204
tp213
a(S'p1_tl'
I13
tp214
a(S'w'
I1
tp215
a(S'p1_ll'
I31
tp216
a(S'p1_th'
I1
tp217
a(S'w'
I3
tp218
a(S'p2_tl'
I64
tp219
a(S'w'
I1
tp220
a(S'p2_ll'
I31
tp221
a(S'w'
I4397
tp222
a(S'p1_tl'
I64
tp223
a(S'w'
I1
tp224
a(S'p1_ll'
I31
tp225
a(S'w'
I3
tp226
a(S'p2_tl'
I83
tp227
a(S'w'
I1
tp228
a(S'p2_ll'
I31
tp229
a(S'w'
I4
tp230
a(S'tr_tl'
I106
tp231
a(S'tr_ll'
I1
tp232
a(S'w'
I5862
tp233
a(S'p1_tl'
I103
tp234
a(S'w'
I1
tp235
a(S'p1_ll'
I31
tp236
a(S'w'
I3
tp237
a(S'p2_tl'
I171
tp238
a(S'w'
I1
tp239
a(S'p2_ll'
I31
tp240
a(S'w'
I5865
tp241
a(S'p1_tl'
I171
tp242
a(S'w'
I1
tp243
a(S'p1_ll'
I31
tp244
a(S'w'
I3
tp245
a(S'p2_tl'
I27
tp246
a(S'w'
I1
tp247
a(S'p2_ll'
I31
tp248
a(S'p2_th'
I2
tp249
a(S'w'
I5865
tp250
a(S'p1_tl'
I13
tp251
a(S'w'
I1
tp252
a(S'p1_ll'
I31
tp253
a(S'w'
I3
tp254
a(S'p2_tl'
I64
tp255
a(S'w'
I1
tp256
a(S'p2_ll'
I31
tp257
a(S'p2_th'
I1
tp258
a(S'w'
I2
tp259
a(S'tr_lh'
I0
tp260
a(S'tr_lr'
I64
tp261
a(S'w'
I2
tp262
a(S'tr_tl'
I95
tp263
a(S'tr_ll'
I1
tp264
a(S'w'
I5862
tp265
a(S'p1_tl'
I103
tp266
a(S'w'
I1
tp267
a(S'p1_ll'
I31
tp268
a(S'w'
I3
tp269
a(S'p2_tl'
I103
tp270
a(S'w'
I1
tp271
a(S'p2_ll'
I31
tp272
a(S'w'
I5865
tp273
a(S'p1_tl'
I213
tp274
a(S'w'
I1
tp275
a(S'p1_ll'
I31
tp276
a(S'p1_th'
I0
tp277
a(S'w'
I3
tp278
a(S'p2_tl'
I27
tp279
a(S'w'
I1
tp280
a(S'p2_ll'
I31
tp281
a(S'p2_th'
I2
tp282
a(S'w'
I5864
tp283
a.