(lp1
(S'clock'
p2
I1789772
tp3
a(S'p1_lh'
I1
tp4
a(S'p1_cv'
I1
tp5
a(S'p1_sp'
I7
tp6
a(S'p1_sn'
I1
tp7
a(S'p1_ss'
I7
tp8
a(S'p2_lh'
I1
tp9
a(S'p2_cv'
I1
tp10
a(S'p2_sp'
I7
tp11
a(S'p2_sn'
I1
tp12
a(S'p2_ss'
I7
tp13
a(S'tr_lr'
I48
tp14
a(S'tr_ll'
I31
tp15
a(S'tr_th'
I7
tp16
a(S'no_lh'
I1
tp17
a(S'no_cv'
I1
tp18
a(S'ch_no'
I1
tp19
a(S'ch_tr'
I1
tp20
a(S'ch_p2'
I1
tp21
a(S'ch_p1'
I1
tp22
a(S'fc_mo'
I1
tp23
a(S'tr_lr'
I0
tp24
a(S'tr_ll'
I31
tp25
a(S'w'
I5
tp26
a(S'tr_lr'
I48
tp27
a(S'w'
I463
tp28
a(S'tr_lh'
I1
tp29
a(S'tr_lr'
I0
tp30
a(S'tr_ll'
I1
tp31
a(S'w'
I6
tp32
a(S'p1_se'
I1
tp33
a(S'p1_sp'
I0
tp34
a(S'p1_ss'
I0
tp35
a(S'w'
I2
tp36
a(S'p1_du'
I2
tp37
a(S'p1_vo'
I7
tp38
a(S'w'
I2
tp39
a(S'p1_ll'
I1
tp40
a(S'p1_th'
I1
tp41
a(S'w'
I1
tp42
a(S'p1_tl'
I83
tp43
a(S'w'
I7
tp44
a(S'p2_se'
I1
tp45
a(S'p2_sp'
I0
tp46
a(S'p2_ss'
I0
tp47
a(S'w'
I1
tp48
a(S'p2_du'
I2
tp49
a(S'p2_vo'
I1
tp50
a(S'w'
I3
tp51
a(S'p2_ll'
I1
tp52
a(S'p2_th'
I1
tp53
a(S'w'
I1
tp54
a(S'p2_tl'
I84
tp55
a(S'w'
I1454
tp56
a(S'p1_vo'
I5
tp57
a(S'w'
I2
tp58
a(S'p1_tl'
I83
tp59
a(S'w'
I1429
tp60
a(S'p1_vo'
I9
tp61
a(S'w'
I3
tp62
a(S'p1_ll'
I1
tp63
a(S'p1_th'
I0
tp64
a(S'w'
I1
tp65
a(S'p1_tl'
I254
tp66
a(S'w'
I1464
tp67
a(S'p1_vo'
I7
tp68
a(S'w'
I2
tp69
a(S'p1_tl'
I254
tp70
a(S'w'
I8
tp71
a(S'p2_vo'
I3
tp72
a(S'w'
I3
tp73
a(S'p2_tl'
I84
tp74
a(S'w'
I1454
tp75
a(S'p1_vo'
I10
tp76
a(S'w'
I3
tp77
a(S'p1_tl'
I226
tp78
a(S'w'
I5
tp79
a(S'p2_vo'
I2
tp80
a(S'w'
I3
tp81
a(S'p2_tl'
I84
tp82
a(S'w'
I1457
tp83
a(S'p1_vo'
I8
tp84
a(S'w'
I3
tp85
a(S'p1_tl'
I226
tp86
a(S'w'
I5
tp87
a(S'p2_vo'
I4
tp88
a(S'w'
I3
tp89
a(S'p2_tl'
I65
tp90
a(S'w'
I1459
tp91
a(S'p1_vo'
I12
tp92
a(S'w'
I3
tp93
a(S'p1_tl'
I170
tp94
a(S'w'
I5
tp95
a(S'p2_vo'
I3
tp96
a(S'w'
I3
tp97
a(S'p2_tl'
I65
tp98
a(S'w'
I1454
tp99
a(S'p1_vo'
I9
tp100
a(S'w'
I3
tp101
a(S'p1_tl'
I170
tp102
a(S'w'
I5
tp103
a(S'p2_vo'
I5
tp104
a(S'w'
I3
tp105
a(S'p2_ll'
I1
tp106
a(S'p2_th'
I0
tp107
a(S'w'
I1
tp108
a(S'p2_tl'
I227
tp109
a(S'w'
I1456
tp110
a(S'p1_vo'
I14
tp111
a(S'w'
I2
tp112
a(S'p1_tl'
I113
tp113
a(S'w'
I6
tp114
a(S'p2_vo'
I4
tp115
a(S'w'
I2
tp116
a(S'p2_tl'
I227
tp117
a(S'w'
I1457
tp118
a(S'p1_vo'
I12
tp119
a(S'w'
I3
tp120
a(S'p1_tl'
I113
tp121
a(S'w'
I8
tp122
a(S'p2_vo'
I5
tp123
a(S'w'
I3
tp124
a(S'p2_tl'
I171
tp125
a(S'w'
I1454
tp126
a(S'p1_vo'
I14
tp127
a(S'w'
I3
tp128
a(S'p1_tl'
I127
tp129
a(S'w'
I5
tp130
a(S'p2_vo'
I4
tp131
a(S'w'
I3
tp132
a(S'p2_tl'
I171
tp133
a(S'w'
I1456
tp134
a(S'p1_vo'
I12
tp135
a(S'w'
I3
tp136
a(S'p1_tl'
I127
tp137
a(S'w'
I5
tp138
a(S'p2_vo'
I6
tp139
a(S'w'
I3
tp140
a(S'p2_tl'
I114
tp141
a(S'w'
I1457
tp142
a(S'p1_vo'
I14
tp143
a(S'w'
I3
tp144
a(S'p1_tl'
I170
tp145
a(S'w'
I5
tp146
a(S'p2_vo'
I5
tp147
a(S'w'
I3
tp148
a(S'p2_tl'
I114
tp149
a(S'w'
I1457
tp150
a(S'p1_vo'
I12
tp151
a(S'w'
I2
tp152
a(S'p1_tl'
I170
tp153
a(S'w'
I6
tp154
a(S'p2_vo'
I6
tp155
a(S'w'
I3
tp156
a(S'p2_tl'
I128
tp157
a(S'w'
I1456
tp158
a(S'p1_vo'
I9
tp159
a(S'w'
I3
tp160
a(S'p1_tl'
I113
tp161
a(S'w'
I5
tp162
a(S'p2_vo'
I5
tp163
a(S'w'
I3
tp164
a(S'p2_tl'
I128
tp165
a(S'w'
I1457
tp166
a(S'p1_vo'
I7
tp167
a(S'w'
I3
tp168
a(S'p1_tl'
I113
tp169
a(S'w'
I5
tp170
a(S'p2_vo'
I6
tp171
a(S'w'
I3
tp172
a(S'p2_tl'
I171
tp173
a(S'w'
I1457
tp174
a(S'p1_vo'
I9
tp175
a(S'w'
I2
tp176
a(S'p1_tl'
I127
tp177
a(S'w'
I6
tp178
a(S'p2_vo'
I5
tp179
a(S'w'
I2
tp180
a(S'p2_tl'
I171
tp181
a(S'w'
I1457
tp182
a(S'p1_vo'
I7
tp183
a(S'w'
I3
tp184
a(S'p1_tl'
I127
tp185
a(S'w'
I5
tp186
a(S'p2_vo'
I4
tp187
a(S'w'
I3
tp188
a(S'p2_tl'
I114
tp189
a(S'w'
I1457
tp190
a(S'p1_vo'
I9
tp191
a(S'w'
I3
tp192
a(S'p1_tl'
I170
tp193
a(S'w'
I5
tp194
a(S'p2_vo'
I3
tp195
a(S'w'
I3
tp196
a(S'p2_tl'
I114
tp197
a(S'w'
I1456
tp198
a(S'p1_vo'
I7
tp199
a(S'w'
I3
tp200
a(S'p1_tl'
I170
tp201
a(S'w'
I5
tp202
a(S'p2_vo'
I4
tp203
a(S'w'
I3
tp204
a(S'p2_tl'
I128
tp205
a(S'w'
I1457
tp206
a(S'p1_vo'
I5
tp207
a(S'w'
I3
tp208
a(S'p1_tl'
I113
tp209
a(S'w'
I5
tp210
a(S'p2_vo'
I3
tp211
a(S'w'
I3
tp212
a(S'p2_tl'
I128
tp213
a(S'w'
I1456
tp214
a(S'p1_vo'
I3
tp215
a(S'w'
I3
tp216
a(S'p1_tl'
I113
tp217
a(S'w'
I5
tp218
a(S'p2_vo'
I4
tp219
a(S'w'
I3
tp220
a(S'p2_tl'
I171
tp221
a(S'w'
I1457
tp222
a(S'p1_vo'
I5
tp223
a(S'w'
I3
tp224
a(S'p1_tl'
I127
tp225
a(S'w'
I5
tp226
a(S'p2_vo'
I3
tp227
a(S'w'
I3
tp228
a(S'p2_tl'
I171
tp229
a(S'w'
I1457
tp230
a(S'p1_vo'
I3
tp231
a(S'w'
I3
tp232
a(S'p1_tl'
I127
tp233
a(S'w'
I5
tp234
a(S'p2_vo'
I2
tp235
a(S'w'
I3
tp236
a(S'p2_tl'
I114
tp237
a(S'w'
I1456
tp238
a(S'p1_vo'
I5
tp239
a(S'w'
I3
tp240
a(S'p1_tl'
I170
tp241
a(S'w'
I5
tp242
a(S'p2_vo'
I1
tp243
a(S'w'
I3
tp244
a(S'p2_tl'
I114
tp245
a(S'w'
I1457
tp246
a(S'p1_vo'
I3
tp247
a(S'w'
I3
tp248
a(S'p1_tl'
I170
tp249
a(S'w'
I5
tp250
a(S'p2_vo'
I2
tp251
a(S'w'
I3
tp252
a(S'p2_tl'
I128
tp253
a(S'w'
I1456
tp254
a(S'p1_vo'
I2
tp255
a(S'w'
I3
tp256
a(S'p1_tl'
I113
tp257
a(S'w'
I6
tp258
a(S'p2_vo'
I1
tp259
a(S'w'
I2
tp260
a(S'p2_tl'
I128
tp261
a(S'w'
I1457
tp262
a(S'p1_vo'
I1
tp263
a(S'w'
I3
tp264
a(S'p1_tl'
I113
tp265
a(S'w'
I8
tp266
a(S'p2_tl'
I171
tp267
a(S'w'
I1457
tp268
a(S'p1_vo'
I2
tp269
a(S'w'
I3
tp270
a(S'p1_tl'
I127
tp271
a(S'w'
I8
tp272
a(S'p2_tl'
I171
tp273
a(S'w'
I1456
tp274
a(S'p1_vo'
I1
tp275
a(S'w'
I3
tp276
a(S'p1_tl'
I127
tp277
a(S'w'
I8
tp278
a(S'p2_tl'
I114
tp279
a(S'w'
I1457
tp280
a(S'p1_vo'
I2
tp281
a(S'w'
I3
tp282
a(S'p1_tl'
I170
tp283
a(S'w'
I8
tp284
a(S'p2_tl'
I114
tp285
a(S'w'
I1457
tp286
a(S'p1_vo'
I1
tp287
a(S'w'
I2
tp288
a(S'p1_tl'
I170
tp289
a(S'w'
I8
tp290
a(S'p2_tl'
I128
tp291
a(S'w'
I1459
tp292
a(S'p1_du'
I0
tp293
a(S'p1_vo'
I0
tp294
a(S'w'
I7
tp295
a(S'p2_tl'
I128
tp296
a(S'w'
I1462
tp297
a(S'p2_tl'
I171
tp298
a(S'w'
I1467
tp299
a(S'p2_du'
I0
tp300
a(S'p2_vo'
I0
tp301
a(S'w'
I10001
tp302
a.