(lp1
(S'clock'
p2
I1789773
tp3
a(S'fc_mo'
I1
tp4
a(S'p1_sp'
I7
tp5
a(S'p1_sn'
I1
tp6
a(S'p1_ss'
I7
tp7
a(S'p2_sp'
I7
tp8
a(S'p2_sn'
I1
tp9
a(S'p2_ss'
I7
tp10
a(S'w'
I48
tp11
a(S'p1_du'
I1
tp12
a(S'p1_lh'
I1
tp13
a(S'p1_cv'
I1
tp14
a(S'p1_vo'
I1
tp15
a(S'w'
I7
tp16
a(S'p1_ll'
I1
tp17
a(S'w'
I2
tp18
a(S'p1_tl'
I126
tp19
a(S'w'
I39
tp20
a(S'p2_lh'
I1
tp21
a(S'p2_cv'
I1
tp22
a(S'p2_vo'
I8
tp23
a(S'w'
I6
tp24
a(S'p2_ll'
I1
tp25
a(S'w'
I3
tp26
a(S'p2_tl'
I127
tp27
a(S'w'
I22
tp28
a(S'tr_lh'
I1
tp29
a(S'tr_lr'
I16
tp30
a(S'w'
I5
tp31
a(S'tr_ll'
I1
tp32
a(S'tr_th'
I1
tp33
a(S'w'
I3
tp34
a(S'tr_tl'
I252
tp35
a(S'w'
I15
tp36
a(S'ch_no'
I1
tp37
a(S'ch_tr'
I1
tp38
a(S'ch_p2'
I1
tp39
a(S'ch_p1'
I1
tp40
a(S'w'
I1
tp41
a(S'ch_no'
I1
tp42
a(S'ch_tr'
I1
tp43
a(S'ch_p2'
I1
tp44
a(S'ch_p1'
I1
tp45
a(S'w'
I600
tp46
a(S'w'
I11
tp47
a(S'p2_vo'
I7
tp48
a(S'w'
I733
tp49
a(S'p2_vo'
I6
tp50
a(S'w'
I731
tp51
a(S'p2_vo'
I5
tp52
a(S'w'
I729
tp53
a(S'p2_vo'
I4
tp54
a(S'w'
I733
tp55
a(S'p2_vo'
I3
tp56
a(S'w'
I7325
tp57
a(S'p2_vo'
I2
tp58
a(S'w'
I3664
tp59
a(S'w'
I29
tp60
a(S'p2_vo'
I8
tp61
a(S'w'
I6
tp62
a(S'p2_tl'
I135
tp63
a(S'w'
I695
tp64
a(S'p1_tl'
I125
tp65
a(S'w'
I13
tp66
a(S'p2_vo'
I7
tp67
a(S'w'
I3
tp68
a(S'tr_lh'
I0
tp69
a(S'tr_lr'
I0
tp70
a(S'w'
I717
tp71
a(S'p1_tl'
I124
tp72
a(S'w'
I19
tp73
a(S'w'
I6
tp74
a(S'p2_vo'
I6
tp75
a(S'w'
I707
tp76
a(S'p1_tl'
I123
tp77
a(S'w'
I17
tp78
a(S'p2_tl'
I134
tp79
a(S'w'
I7
tp80
a(S'p2_vo'
I5
tp81
a(S'w'
I709
tp82
a(S'p1_tl'
I122
tp83
a(S'w'
I17
tp84
a(S'p2_tl'
I133
tp85
a(S'w'
I7
tp86
a(S'p2_vo'
I4
tp87
a(S'w'
I709
tp88
a(S'p1_tl'
I121
tp89
a(S'w'
I21
tp90
a(S'p2_tl'
I132
tp91
a(S'w'
I7
tp92
a(S'p2_vo'
I3
tp93
a(S'w'
I704
tp94
a(S'p1_tl'
I122
tp95
a(S'w'
I16
tp96
a(S'p2_tl'
I131
tp97
a(S'w'
I7
tp98
a(S'p2_vo'
I2
tp99
a(S'w'
I710
tp100
a(S'p1_tl'
I123
tp101
a(S'w'
I25
tp102
a(S'p2_vo'
I8
tp103
a(S'w'
I7
tp104
a(S'p2_tl'
I127
tp105
a(S'w'
I700
tp106
a(S'p1_tl'
I124
tp107
a(S'w'
I12
tp108
a(S'p2_vo'
I7
tp109
a(S'w'
I721
tp110
a(S'p1_tl'
I125
tp111
a(S'w'
I18
tp112
a(S'w'
I6
tp113
a(S'p2_vo'
I6
tp114
a(S'w'
I727
tp115
a(S'p1_tl'
I134
tp116
a(S'w'
I16
tp117
a(S'p2_tl'
I126
tp118
a(S'w'
I7
tp119
a(S'p2_vo'
I5
tp120
a(S'w'
I15
tp121
a(S'tr_lh'
I1
tp122
a(S'tr_lr'
I16
tp123
a(S'w'
I4
tp124
a(S'tr_ll'
I1
tp125
a(S'w'
I3
tp126
a(S'tr_tl'
I83
tp127
a(S'w'
I23
tp128
a(S'no_lh'
I1
tp129
a(S'no_cv'
I1
tp130
a(S'no_vo'
I8
tp131
a(S'w'
I1
tp132
a(S'no_ll'
I1
tp133
a(S'w'
I1
tp134
a(S'no_np'
I2
tp135
a(S'w'
I654
tp136
a(S'p2_tl'
I125
tp137
a(S'w'
I7
tp138
a(S'p2_vo'
I4
tp139
a(S'w'
I15
tp140
a(S'no_vo'
I1
tp141
a(S'w'
I2
tp142
a(S'no_ll'
I1
tp143
a(S'no_np'
I1
tp144
a(S'w'
I701
tp145
a(S'w'
I21
tp146
a(S'p2_tl'
I124
tp147
a(S'w'
I6
tp148
a(S'p2_vo'
I3
tp149
a(S'w'
I18
tp150
a(S'no_vo'
I0
tp151
a(S'w'
I685
tp152
a(S'p1_tl'
I133
tp153
a(S'w'
I31
tp154
a(S'p2_vo'
I8
tp155
a(S'w'
I7
tp156
a(S'p2_tl'
I135
tp157
a(S'w'
I695
tp158
a(S'p1_tl'
I132
tp159
a(S'w'
I13
tp160
a(S'p2_vo'
I7
tp161
a(S'w'
I720
tp162
a(S'p1_tl'
I131
tp163
a(S'w'
I19
tp164
a(S'w'
I6
tp165
a(S'p2_vo'
I6
tp166
a(S'w'
I707
tp167
a(S'p1_tl'
I130
tp168
a(S'w'
I21
tp169
a(S'p2_tl'
I134
tp170
a(S'w'
I7
tp171
a(S'p2_vo'
I5
tp172
a(S'w'
I720
tp173
a(S'p1_tl'
I126
tp174
a(S'w'
I16
tp175
a(S'p2_tl'
I133
tp176
a(S'w'
I6
tp177
a(S'p2_vo'
I4
tp178
a(S'w'
I4
tp179
a(S'tr_lh'
I0
tp180
a(S'tr_lr'
I0
tp181
a(S'w'
I701
tp182
a(S'p2_tl'
I132
tp183
a(S'w'
I7
tp184
a(S'p2_vo'
I3
tp185
a(S'w'
I718
tp186
a(S'w'
I21
tp187
a(S'p2_tl'
I131
tp188
a(S'w'
I6
tp189
a(S'p2_vo'
I2
tp190
a(S'w'
I704
tp191
a(S'p1_tl'
I125
tp192
a(S'w'
I32
tp193
a(S'p2_vo'
I8
tp194
a(S'w'
I7
tp195
a(S'p2_tl'
I160
tp196
a(S'w'
I15
tp197
a(S'tr_lh'
I1
tp198
a(S'tr_lr'
I16
tp199
a(S'w'
I5
tp200
a(S'tr_ll'
I1
tp201
a(S'tr_th'
I0
tp202
a(S'w'
I3
tp203
a(S'tr_tl'
I254
tp204
a(S'w'
I23
tp205
a(S'no_vo'
I12
tp206
a(S'w'
I1
tp207
a(S'no_ll'
I1
tp208
a(S'no_np'
I14
tp209
a(S'w'
I646
tp210
a(S'p1_tl'
I124
tp211
a(S'w'
I13
tp212
a(S'p2_vo'
I7
tp213
a(S'w'
I15
tp214
a(S'no_vo'
I7
tp215
a(S'w'
I2
tp216
a(S'no_ll'
I1
tp217
a(S'no_np'
I6
tp218
a(S'w'
I703
tp219
a(S'p1_tl'
I123
tp220
a(S'w'
I17
tp221
a(S'p2_vo'
I6
tp222
a(S'w'
I15
tp223
a(S'no_vo'
I3
tp224
a(S'w'
I2
tp225
a(S'no_ll'
I1
tp226
a(S'no_np'
I4
tp227
a(S'w'
I713
tp228
a(S'p1_tl'
I134
tp229
a(S'w'
I12
tp230
a(S'p2_vo'
I5
tp231
a(S'w'
I15
tp232
a(S'no_vo'
I4
tp233
a(S'w'
I2
tp234
a(S'no_ll'
I1
tp235
a(S'no_np'
I3
tp236
a(S'w'
I695
tp237
a(S'p2_vo'
I4
tp238
a(S'w'
I15
tp239
a(S'no_vo'
I2
tp240
a(S'w'
I2
tp241
a(S'no_ll'
I1
tp242
a(S'no_np'
I4
tp243
a(S'w'
I712
tp244
a(S'w'
I17
tp245
a(S'p2_vo'
I3
tp246
a(S'w'
I15
tp247
a(S'no_vo'
I1
tp248
a(S'w'
I2
tp249
a(S'no_ll'
I1
tp250
a(S'no_np'
I3
tp251
a(S'w'
I696
tp252
a(S'p1_tl'
I133
tp253
a(S'w'
I30
tp254
a(S'no_ll'
I1
tp255
a(S'no_np'
I2
tp256
a(S'w'
I703
tp257
a(S'p1_tl'
I132
tp258
a(S'w'
I26
tp259
a(S'no_vo'
I0
tp260
a(S'w'
I706
tp261
a(S'p1_tl'
I131
tp262
a(S'w'
I733
tp263
a(S'p1_tl'
I130
tp264
a(S'w'
I749
tp265
a(S'p1_tl'
I159
tp266
a(S'w'
I2914
tp267
a(S'tr_lh'
I0
tp268
a(S'tr_lr'
I0
tp269
a(S'w'
I734
tp270
a(S'p2_vo'
I2
tp271
a(S'w'
I3680
tp272
a(S'p2_vo'
I8
tp273
a(S'w'
I7
tp274
a(S'p2_tl'
I135
tp275
a(S'w'
I15
tp276
a(S'tr_lh'
I1
tp277
a(S'tr_lr'
I16
tp278
a(S'w'
I4
tp279
a(S'tr_ll'
I1
tp280
a(S'tr_th'
I1
tp281
a(S'w'
I3
tp282
a(S'tr_tl'
I83
tp283
a(S'w'
I8
tp284
a(S'ch_no'
I1
tp285
a(S'ch_tr'
I1
tp286
a(S'ch_p2'
I1
tp287
a(S'ch_p1'
I1
tp288
a(S'w'
I1
tp289
a(S'ch_no'
I1
tp290
a(S'ch_tr'
I1
tp291
a(S'ch_p2'
I1
tp292
a(S'ch_p1'
I1
tp293
a(S'w'
I678
tp294
a(S'p2_vo'
I7
tp295
a(S'w'
I739
tp296
a(S'w'
I7
tp297
a(S'p2_vo'
I6
tp298
a(S'w'
I723
tp299
a(S'p2_tl'
I134
tp300
a(S'w'
I6
tp301
a(S'p2_vo'
I5
tp302
a(S'w'
I727
tp303
a(S'p2_tl'
I133
tp304
a(S'w'
I6
tp305
a(S'p2_vo'
I4
tp306
a(S'w'
I727
tp307
a(S'p2_tl'
I132
tp308
a(S'w'
I6
tp309
a(S'p2_vo'
I3
tp310
a(S'w'
I726
tp311
a(S'p2_tl'
I131
tp312
a(S'w'
I6
tp313
a(S'p2_vo'
I2
tp314
a(S'w'
I740
tp315
a(S'p2_vo'
I8
tp316
a(S'w'
I7
tp317
a(S'p2_tl'
I160
tp318
a(S'w'
I4
tp319
a(S'tr_lh'
I0
tp320
a(S'tr_lr'
I0
tp321
a(S'w'
I704
tp322
a(S'p2_vo'
I7
tp323
a(S'w'
I738
tp324
a(S'w'
I6
tp325
a(S'p2_vo'
I6
tp326
a(S'w'
I738
tp327
a(S'w'
I16
tp328
a(S'p2_tl'
I159
tp329
a(S'w'
I7
tp330
a(S'p2_vo'
I5
tp331
a(S'w'
I14
tp332
a(S'tr_lh'
I1
tp333
a(S'tr_lr'
I16
tp334
a(S'w'
I5
tp335
a(S'tr_ll'
I1
tp336
a(S'tr_th'
I0
tp337
a(S'w'
I3
tp338
a(S'tr_tl'
I254
tp339
a(S'w'
I22
tp340
a(S'no_vo'
I8
tp341
a(S'w'
I2
tp342
a(S'no_ll'
I1
tp343
a(S'w'
I655
tp344
a(S'p2_tl'
I158
tp345
a(S'w'
I7
tp346
a(S'p2_vo'
I4
tp347
a(S'w'
I15
tp348
a(S'no_vo'
I1
tp349
a(S'w'
I2
tp350
a(S'no_ll'
I1
tp351
a(S'no_np'
I1
tp352
a(S'w'
I701
tp353
a(S'w'
I21
tp354
a(S'p2_tl'
I157
tp355
a(S'w'
I6
tp356
a(S'p2_vo'
I3
tp357
a(S'w'
I18
tp358
a(S'no_vo'
I0
tp359
a(S'w'
I686
tp360
a(S'p1_tl'
I158
tp361
a(S'w'
I31
tp362
a(S'p2_vo'
I8
tp363
a(S'w'
I7
tp364
a(S'p2_tl'
I170
tp365
a(S'w'
I694
tp366
a(S'p1_tl'
I157
tp367
a(S'w'
I13
tp368
a(S'p2_vo'
I7
tp369
a(S'w'
I720
tp370
a(S'p1_tl'
I156
tp371
a(S'w'
I19
tp372
a(S'w'
I6
tp373
a(S'p2_vo'
I6
tp374
a(S'w'
I707
tp375
a(S'p1_tl'
I155
tp376
a(S'w'
I21
tp377
a(S'p2_tl'
I169
tp378
a(S'w'
I7
tp379
a(S'p2_vo'
I5
tp380
a(S'w'
I720
tp381
a(S'p1_tl'
I169
tp382
a(S'w'
I16
tp383
a(S'p2_tl'
I168
tp384
a(S'w'
I6
tp385
a(S'p2_vo'
I4
tp386
a(S'w'
I4
tp387
a(S'tr_lh'
I0
tp388
a(S'tr_lr'
I0
tp389
a(S'w'
I702
tp390
a(S'p2_tl'
I167
tp391
a(S'w'
I7
tp392
a(S'p2_vo'
I3
tp393
a(S'w'
I717
tp394
a(S'w'
I21
tp395
a(S'p2_tl'
I166
tp396
a(S'w'
I6
tp397
a(S'p2_vo'
I2
tp398
a(S'w'
I704
tp399
a(S'p1_tl'
I168
tp400
a(S'w'
I42
tp401
a(S'p2_vo'
I8
tp402
a(S'w'
I7
tp403
a(S'p2_tl'
I170
tp404
a(S'w'
I19
tp405
a(S'tr_lh'
I1
tp406
a(S'tr_lr'
I16
tp407
a(S'w'
I5
tp408
a(S'tr_ll'
I1
tp409
a(S'tr_th'
I1
tp410
a(S'w'
I3
tp411
a(S'tr_tl'
I252
tp412
a(S'w'
I12
tp413
a(S'ch_no'
I1
tp414
a(S'ch_tr'
I1
tp415
a(S'ch_p2'
I1
tp416
a(S'ch_p1'
I1
tp417
a(S'w'
I1
tp418
a(S'ch_no'
I1
tp419
a(S'ch_tr'
I1
tp420
a(S'ch_p2'
I1
tp421
a(S'ch_p1'
I1
tp422
a(S'w'
I644
tp423
a(S'p1_tl'
I167
tp424
a(S'w'
I13
tp425
a(S'p2_vo'
I7
tp426
a(S'w'
I720
tp427
a(S'p1_tl'
I166
tp428
a(S'w'
I22
tp429
a(S'p2_tl'
I166
tp430
a(S'w'
I7
tp431
a(S'p2_vo'
I6
tp432
a(S'w'
I718
tp433
a(S'p1_tl'
I169
tp434
a(S'w'
I12
tp435
a(S'p2_vo'
I5
tp436
a(S'w'
I711
tp437
a(S'p2_vo'
I4
tp438
a(S'w'
I729
tp439
a(S'w'
I22
tp440
a(S'p2_tl'
I162
tp441
a(S'w'
I7
tp442
a(S'p2_vo'
I3
tp443
a(S'w'
I701
tp444
a(S'p1_tl'
I168
tp445
a(S'w'
I733
tp446
a(S'p1_tl'
I167
tp447
a(S'w'
I18
tp448
a(S'p2_tl'
I158
tp449
a(S'w'
I715
tp450
a(S'p1_tl'
I166
tp451
a(S'w'
I18
tp452
a(S'p2_tl'
I154
tp453
a(S'w'
I714
tp454
a(S'p1_tl'
I165
tp455
a(S'w'
I22
tp456
a(S'p2_tl'
I158
tp457
a(S'w'
I727
tp458
a(S'p1_tl'
I169
tp459
a(S'w'
I17
tp460
a(S'p2_tl'
I162
tp461
a(S'w'
I1444
tp462
a(S'p2_tl'
I166
tp463
a(S'w'
I1461
tp464
a(S'p2_tl'
I170
tp465
a(S'w'
I2197
tp466
a(S'p2_tl'
I174
tp467
a(S'w'
I2202
tp468
a(S'p1_vo'
I6
tp469
a(S'w'
I6
tp470
a(S'p1_ll'
I1
tp471
a(S'p1_th'
I1
tp472
a(S'w'
I2
tp473
a(S'p1_tl'
I83
tp474
a(S'w'
I17
tp475
a(S'p2_tl'
I170
tp476
a(S'w'
I691
tp477
a(S'p1_vo'
I5
tp478
a(S'w'
I10
tp479
a(S'tr_lh'
I0
tp480
a(S'tr_lr'
I0
tp481
a(S'w'
I723
tp482
a(S'p1_vo'
I4
tp483
a(S'w'
I733
tp484
a(S'p1_vo'
I3
tp485
a(S'w'
I16
tp486
a(S'p2_tl'
I166
tp487
a(S'w'
I2195
tp488
a(S'p2_tl'
I170
tp489
a(S'w'
I2184
tp490
a(S'p1_vo'
I2
tp491
a(S'w'
I16
tp492
a(S'p2_tl'
I174
tp493
a(S'w'
I729
tp494
a(S'p1_vo'
I3
tp495
a(S'w'
I7
tp496
a(S'w'
I21
tp497
a(S'tr_lh'
I1
tp498
a(S'tr_lr'
I16
tp499
a(S'w'
I5
tp500
a(S'tr_ll'
I1
tp501
a(S'w'
I3
tp502
a(S'tr_tl'
I83
tp503
a(S'w'
I23
tp504
a(S'no_vo'
I8
tp505
a(S'w'
I1
tp506
a(S'no_ll'
I1
tp507
a(S'no_np'
I2
tp508
a(S'w'
I660
tp509
a(S'p1_vo'
I2
tp510
a(S'w'
I22
tp511
a(S'no_vo'
I1
tp512
a(S'w'
I1
tp513
a(S'no_ll'
I1
tp514
a(S'w'
I1
tp515
a(S'no_np'
I1
tp516
a(S'w'
I709
tp517
a(S'p1_vo'
I1
tp518
a(S'w'
I16
tp519
a(S'p2_tl'
I170
tp520
a(S'w'
I19
tp521
a(S'no_vo'
I0
tp522
a(S'w'
I2175
tp523
a(S'p2_tl'
I166
tp524
a(S'w'
I1458
tp525
a(S'tr_lh'
I0
tp526
a(S'tr_lr'
I0
tp527
a(S'w'
I742
tp528
a(S'p2_tl'
I170
tp529
a(S'w'
I1464
tp530
a(S'p1_vo'
I6
tp531
a(S'w'
I6
tp532
a(S'p1_ll'
I1
tp533
a(S'p1_th'
I0
tp534
a(S'w'
I2
tp535
a(S'p1_tl'
I226
tp536
a(S'w'
I22
tp537
a(S'tr_lh'
I1
tp538
a(S'tr_lr'
I16
tp539
a(S'w'
I5
tp540
a(S'tr_ll'
I1
tp541
a(S'tr_th'
I0
tp542
a(S'w'
I3
tp543
a(S'tr_tl'
I254
tp544
a(S'w'
I22
tp545
a(S'no_vo'
I12
tp546
a(S'w'
I2
tp547
a(S'no_ll'
I1
tp548
a(S'no_np'
I14
tp549
a(S'w'
I657
tp550
a(S'p1_vo'
I5
tp551
a(S'w'
I16
tp552
a(S'p2_tl'
I174
tp553
a(S'w'
I18
tp554
a(S'no_vo'
I7
tp555
a(S'w'
I1
tp556
a(S'no_ll'
I1
tp557
a(S'w'
I1
tp558
a(S'no_np'
I6
tp559
a(S'w'
I697
tp560
a(S'p1_vo'
I4
tp561
a(S'w'
I22
tp562
a(S'no_vo'
I3
tp563
a(S'w'
I1
tp564
a(S'no_ll'
I1
tp565
a(S'w'
I1
tp566
a(S'no_np'
I4
tp567
a(S'w'
I709
tp568
a(S'p1_vo'
I3
tp569
a(S'w'
I22
tp570
a(S'no_vo'
I4
tp571
a(S'w'
I1
tp572
a(S'no_ll'
I1
tp573
a(S'w'
I1
tp574
a(S'no_np'
I3
tp575
a(S'w'
I720
tp576
a(S'p2_tl'
I170
tp577
a(S'w'
I17
tp578
a(S'no_vo'
I2
tp579
a(S'w'
I2
tp580
a(S'no_ll'
I1
tp581
a(S'no_np'
I4
tp582
a(S'w'
I719
tp583
a(S'no_vo'
I1
tp584
a(S'w'
I2
tp585
a(S'no_ll'
I1
tp586
a(S'no_np'
I3
tp587
a(S'w'
I732
tp588
a(S'no_ll'
I1
tp589
a(S'no_np'
I2
tp590
a(S'w'
I726
tp591
a(S'p2_tl'
I166
tp592
a(S'w'
I19
tp593
a(S'no_vo'
I0
tp594
a(S'w'
I1434
tp595
a(S'p1_vo'
I2
tp596
a(S'w'
I745
tp597
a(S'p1_vo'
I3
tp598
a(S'w'
I7
tp599
a(S'w'
I18
tp600
a(S'p2_tl'
I170
tp601
a(S'w'
I695
tp602
a(S'p1_vo'
I2
tp603
a(S'w'
I733
tp604
a(S'p1_vo'
I1
tp605
a(S'w'
I749
tp606
a(S'p2_tl'
I174
tp607
a(S'w'
I721
tp608
a(S'tr_lh'
I0
tp609
a(S'tr_lr'
I0
tp610
a(S'w'
I1472
tp611
a(S'p2_tl'
I170
tp612
a(S'w'
I2202
tp613
a(S'p2_tl'
I166
tp614
a(S'w'
I730
tp615
a(S'p1_vo'
I6
tp616
a(S'w'
I6
tp617
a(S'p1_tl'
I170
tp618
a(S'w'
I12
tp619
a(S'p2_vo'
I2
tp620
a(S'w'
I14
tp621
a(S'tr_lh'
I1
tp622
a(S'tr_lr'
I16
tp623
a(S'w'
I5
tp624
a(S'tr_ll'
I1
tp625
a(S'tr_th'
I1
tp626
a(S'w'
I3
tp627
a(S'tr_tl'
I83
tp628
a(S'w'
I7
tp629
a(S'ch_no'
I1
tp630
a(S'ch_tr'
I1
tp631
a(S'ch_p2'
I1
tp632
a(S'ch_p1'
I1
tp633
a(S'w'
I1
tp634
a(S'ch_no'
I1
tp635
a(S'ch_tr'
I1
tp636
a(S'ch_p2'
I1
tp637
a(S'ch_p1'
I1
tp638
a(S'w'
I673
tp639
a(S'p1_vo'
I5
tp640
a(S'w'
I732
tp641
a(S'p1_vo'
I4
tp642
a(S'w'
I18
tp643
a(S'p2_tl'
I170
tp644
a(S'w'
I714
tp645
a(S'p1_vo'
I3
tp646
a(S'w'
I1477
tp647
a(S'p2_tl'
I174
tp648
a(S'w'
I727
tp649
a(S'p2_vo'
I1
tp650
a(S'w'
I731
tp651
a(S'tr_lh'
I0
tp652
a(S'tr_lr'
I0
tp653
a(S'w'
I740
tp654
a(S'p2_tl'
I170
tp655
a(S'w'
I720
tp656
a(S'p1_vo'
I2
tp657
a(S'w'
I745
tp658
a(S'p1_vo'
I3
tp659
a(S'w'
I7
tp660
a(S'w'
I20
tp661
a(S'tr_lh'
I1
tp662
a(S'tr_lr'
I16
tp663
a(S'w'
I5
tp664
a(S'tr_ll'
I1
tp665
a(S'tr_th'
I0
tp666
a(S'w'
I3
tp667
a(S'tr_tl'
I254
tp668
a(S'w'
I22
tp669
a(S'no_vo'
I8
tp670
a(S'w'
I2
tp671
a(S'no_ll'
I1
tp672
a(S'w'
I662
tp673
a(S'p1_vo'
I2
tp674
a(S'w'
I16
tp675
a(S'p2_tl'
I166
tp676
a(S'w'
I17
tp677
a(S'no_vo'
I1
tp678
a(S'w'
I2
tp679
a(S'no_ll'
I1
tp680
a(S'no_np'
I1
tp681
a(S'w'
I697
tp682
a(S'p1_vo'
I1
tp683
a(S'w'
I10
tp684
a(S'p2_vo'
I0
tp685
a(S'w'
I18
tp686
a(S'no_vo'
I0
tp687
a(S'w'
I1451
tp688
a(S'p2_tl'
I170
tp689
a(S'w'
I2196
tp690
a(S'p2_tl'
I174
tp691
a(S'w'
I4
tp692
a(S'tr_lh'
I0
tp693
a(S'tr_lr'
I0
tp694
a(S'w'
I2210
tp695
a(S'p1_tl'
I169
tp696
a(S'w'
I36
tp697
a(S'p2_vo'
I8
tp698
a(S'w'
I7
tp699
a(S'p2_tl'
I170
tp700
a(S'w'
I23
tp701
a(S'tr_lh'
I1
tp702
a(S'tr_lr'
I16
tp703
a(S'w'
I4
tp704
a(S'tr_ll'
I1
tp705
a(S'tr_th'
I1
tp706
a(S'w'
I3
tp707
a(S'tr_tl'
I252
tp708
a(S'w'
I12
tp709
a(S'ch_no'
I1
tp710
a(S'ch_tr'
I1
tp711
a(S'ch_p2'
I1
tp712
a(S'ch_p1'
I1
tp713
a(S'w'
I1
tp714
a(S'ch_no'
I1
tp715
a(S'ch_tr'
I1
tp716
a(S'ch_p2'
I1
tp717
a(S'ch_p1'
I1
tp718
a(S'w'
I631
tp719
a(S'p2_vo'
I7
tp720
a(S'w'
I732
tp721
a(S'p2_vo'
I6
tp722
a(S'w'
I732
tp723
a(S'p2_vo'
I5
tp724
a(S'w'
I728
tp725
a(S'p2_vo'
I4
tp726
a(S'w'
I733
tp727
a(S'p2_vo'
I3
tp728
a(S'w'
I7325
tp729
a(S'p2_vo'
I2
tp730
a(S'w'
I3664
tp731
a(S'w'
I29
tp732
a(S'p2_vo'
I8
tp733
a(S'w'
I6
tp734
a(S'p2_tl'
I180
tp735
a(S'w'
I696
tp736
a(S'p1_tl'
I168
tp737
a(S'w'
I13
tp738
a(S'p2_vo'
I7
tp739
a(S'w'
I3
tp740
a(S'tr_lh'
I0
tp741
a(S'tr_lr'
I0
tp742
a(S'w'
I716
tp743
a(S'p1_tl'
I167
tp744
a(S'w'
I19
tp745
a(S'w'
I6
tp746
a(S'p2_vo'
I6
tp747
a(S'w'
I708
tp748
a(S'p1_tl'
I166
tp749
a(S'w'
I17
tp750
a(S'p2_tl'
I179
tp751
a(S'w'
I7
tp752
a(S'p2_vo'
I5
tp753
a(S'w'
I708
tp754
a(S'p1_tl'
I165
tp755
a(S'w'
I17
tp756
a(S'p2_tl'
I178
tp757
a(S'w'
I7
tp758
a(S'p2_vo'
I4
tp759
a(S'w'
I709
tp760
a(S'p1_tl'
I164
tp761
a(S'w'
I21
tp762
a(S'p2_tl'
I177
tp763
a(S'w'
I7
tp764
a(S'p2_vo'
I3
tp765
a(S'w'
I705
tp766
a(S'p1_tl'
I165
tp767
a(S'w'
I16
tp768
a(S'p2_tl'
I176
tp769
a(S'w'
I7
tp770
a(S'p2_vo'
I2
tp771
a(S'w'
I709
tp772
a(S'p1_tl'
I166
tp773
a(S'w'
I25
tp774
a(S'p2_vo'
I8
tp775
a(S'w'
I7
tp776
a(S'p2_tl'
I170
tp777
a(S'w'
I701
tp778
a(S'p1_tl'
I167
tp779
a(S'w'
I12
tp780
a(S'p2_vo'
I7
tp781
a(S'w'
I720
tp782
a(S'p1_tl'
I168
tp783
a(S'w'
I18
tp784
a(S'w'
I6
tp785
a(S'p2_vo'
I6
tp786
a(S'w'
I727
tp787
a(S'p1_tl'
I179
tp788
a(S'w'
I16
tp789
a(S'p2_tl'
I169
tp790
a(S'w'
I7
tp791
a(S'p2_vo'
I5
tp792
a(S'w'
I15
tp793
a(S'tr_lh'
I1
tp794
a(S'tr_lr'
I16
tp795
a(S'w'
I4
tp796
a(S'tr_ll'
I1
tp797
a(S'w'
I3
tp798
a(S'tr_tl'
I104
tp799
a(S'w'
I23
tp800
a(S'no_vo'
I8
tp801
a(S'w'
I1
tp802
a(S'no_ll'
I1
tp803
a(S'w'
I1
tp804
a(S'no_np'
I2
tp805
a(S'w'
I655
tp806
a(S'p2_tl'
I168
tp807
a(S'w'
I7
tp808
a(S'p2_vo'
I4
tp809
a(S'w'
I15
tp810
a(S'no_vo'
I1
tp811
a(S'w'
I2
tp812
a(S'no_ll'
I1
tp813
a(S'no_np'
I1
tp814
a(S'w'
I700
tp815
a(S'w'
I21
tp816
a(S'p2_tl'
I167
tp817
a(S'w'
I6
tp818
a(S'p2_vo'
I3
tp819
a(S'w'
I18
tp820
a(S'no_vo'
I0
tp821
a(S'w'
I686
tp822
a(S'p1_tl'
I178
tp823
a(S'w'
I31
tp824
a(S'p2_vo'
I8
tp825
a(S'w'
I7
tp826
a(S'p2_tl'
I180
tp827
a(S'w'
I694
tp828
a(S'p1_tl'
I177
tp829
a(S'w'
I13
tp830
a(S'p2_vo'
I7
tp831
a(S'w'
I720
tp832
a(S'p1_tl'
I176
tp833
a(S'w'
I19
tp834
a(S'w'
I6
tp835
a(S'p2_vo'
I6
tp836
a(S'w'
I708
tp837
a(S'p1_tl'
I175
tp838
a(S'w'
I21
tp839
a(S'p2_tl'
I179
tp840
a(S'w'
I7
tp841
a(S'p2_vo'
I5
tp842
a(S'w'
I719
tp843
a(S'p1_tl'
I169
tp844
a(S'w'
I16
tp845
a(S'p2_tl'
I178
tp846
a(S'w'
I6
tp847
a(S'p2_vo'
I4
tp848
a(S'w'
I4
tp849
a(S'tr_lh'
I0
tp850
a(S'tr_lr'
I0
tp851
a(S'w'
I702
tp852
a(S'p2_tl'
I177
tp853
a(S'w'
I7
tp854
a(S'p2_vo'
I3
tp855
a(S'w'
I717
tp856
a(S'w'
I21
tp857
a(S'p2_tl'
I176
tp858
a(S'w'
I6
tp859
a(S'p2_vo'
I2
tp860
a(S'w'
I704
tp861
a(S'p1_tl'
I168
tp862
a(S'w'
I32
tp863
a(S'p2_vo'
I8
tp864
a(S'w'
I7
tp865
a(S'p2_tl'
I214
tp866
a(S'w'
I15
tp867
a(S'tr_lh'
I1
tp868
a(S'tr_lr'
I16
tp869
a(S'w'
I5
tp870
a(S'tr_ll'
I1
tp871
a(S'tr_th'
I0
tp872
a(S'w'
I3
tp873
a(S'tr_tl'
I226
tp874
a(S'w'
I23
tp875
a(S'no_vo'
I12
tp876
a(S'w'
I1
tp877
a(S'no_ll'
I1
tp878
a(S'no_np'
I14
tp879
a(S'w'
I647
tp880
a(S'p1_tl'
I167
tp881
a(S'w'
I13
tp882
a(S'p2_vo'
I7
tp883
a(S'w'
I15
tp884
a(S'no_vo'
I7
tp885
a(S'w'
I2
tp886
a(S'no_ll'
I1
tp887
a(S'no_np'
I6
tp888
a(S'w'
I702
tp889
a(S'p1_tl'
I166
tp890
a(S'w'
I17
tp891
a(S'p2_vo'
I6
tp892
a(S'w'
I15
tp893
a(S'no_vo'
I3
tp894
a(S'w'
I2
tp895
a(S'no_ll'
I1
tp896
a(S'no_np'
I4
tp897
a(S'w'
I714
tp898
a(S'p1_tl'
I179
tp899
a(S'w'
I12
tp900
a(S'p2_vo'
I5
tp901
a(S'w'
I15
tp902
a(S'no_vo'
I4
tp903
a(S'w'
I2
tp904
a(S'no_ll'
I1
tp905
a(S'no_np'
I3
tp906
a(S'w'
I694
tp907
a(S'p2_vo'
I4
tp908
a(S'w'
I15
tp909
a(S'no_vo'
I2
tp910
a(S'w'
I2
tp911
a(S'no_ll'
I1
tp912
a(S'no_np'
I4
tp913
a(S'w'
I712
tp914
a(S'w'
I17
tp915
a(S'p2_vo'
I3
tp916
a(S'w'
I15
tp917
a(S'no_vo'
I1
tp918
a(S'w'
I2
tp919
a(S'no_ll'
I1
tp920
a(S'no_np'
I3
tp921
a(S'w'
I697
tp922
a(S'p1_tl'
I178
tp923
a(S'w'
I30
tp924
a(S'no_ll'
I1
tp925
a(S'no_np'
I2
tp926
a(S'w'
I702
tp927
a(S'p1_tl'
I177
tp928
a(S'w'
I26
tp929
a(S'no_vo'
I0
tp930
a(S'w'
I707
tp931
a(S'p1_tl'
I176
tp932
a(S'w'
I732
tp933
a(S'p1_tl'
I175
tp934
a(S'w'
I749
tp935
a(S'p1_tl'
I213
tp936
a(S'w'
I2915
tp937
a(S'tr_lh'
I0
tp938
a(S'tr_lr'
I0
tp939
a(S'w'
I733
tp940
a(S'p2_vo'
I2
tp941
a(S'w'
I3680
tp942
a(S'p2_vo'
I8
tp943
a(S'w'
I7
tp944
a(S'p2_tl'
I180
tp945
a(S'w'
I15
tp946
a(S'tr_lh'
I1
tp947
a(S'tr_lr'
I16
tp948
a(S'w'
I4
tp949
a(S'tr_ll'
I1
tp950
a(S'tr_th'
I1
tp951
a(S'w'
I3
tp952
a(S'tr_tl'
I46
tp953
a(S'w'
I8
tp954
a(S'ch_no'
I1
tp955
a(S'ch_tr'
I1
tp956
a(S'ch_p2'
I1
tp957
a(S'ch_p1'
I1
tp958
a(S'w'
I1
tp959
a(S'ch_no'
I1
tp960
a(S'ch_tr'
I1
tp961
a(S'ch_p2'
I1
tp962
a(S'ch_p1'
I1
tp963
a(S'w'
I679
tp964
a(S'p2_vo'
I7
tp965
a(S'w'
I738
tp966
a(S'w'
I7
tp967
a(S'p2_vo'
I6
tp968
a(S'w'
I724
tp969
a(S'p2_tl'
I179
tp970
a(S'w'
I6
tp971
a(S'p2_vo'
I5
tp972
a(S'w'
I727
tp973
a(S'p2_tl'
I178
tp974
a(S'w'
I6
tp975
a(S'p2_vo'
I4
tp976
a(S'w'
I726
tp977
a(S'p2_tl'
I177
tp978
a(S'w'
I6
tp979
a(S'p2_vo'
I3
tp980
a(S'w'
I727
tp981
a(S'p2_tl'
I176
tp982
a(S'w'
I6
tp983
a(S'p2_vo'
I2
tp984
a(S'w'
I739
tp985
a(S'p2_vo'
I8
tp986
a(S'w'
I7
tp987
a(S'p2_tl'
I214
tp988
a(S'w'
I4
tp989
a(S'tr_lh'
I0
tp990
a(S'tr_lr'
I0
tp991
a(S'w'
I704
tp992
a(S'p2_vo'
I7
tp993
a(S'w'
I739
tp994
a(S'w'
I6
tp995
a(S'p2_vo'
I6
tp996
a(S'w'
I737
tp997
a(S'w'
I16
tp998
a(S'p2_tl'
I213
tp999
a(S'w'
I7
tp1000
a(S'p2_vo'
I5
tp1001
a(S'w'
I14
tp1002
a(S'tr_lh'
I1
tp1003
a(S'tr_lr'
I16
tp1004
a(S'w'
I5
tp1005
a(S'tr_ll'
I1
tp1006
a(S'tr_th'
I0
tp1007
a(S'w'
I3
tp1008
a(S'tr_tl'
I226
tp1009
a(S'w'
I22
tp1010
a(S'no_vo'
I8
tp1011
a(S'w'
I2
tp1012
a(S'no_ll'
I1
tp1013
a(S'w'
I656
tp1014
a(S'p2_tl'
I212
tp1015
a(S'w'
I7
tp1016
a(S'p2_vo'
I4
tp1017
a(S'w'
I15
tp1018
a(S'no_vo'
I1
tp1019
a(S'w'
I2
tp1020
a(S'no_ll'
I1
tp1021
a(S'no_np'
I1
tp1022
a(S'w'
I700
tp1023
a(S'w'
I21
tp1024
a(S'p2_tl'
I211
tp1025
a(S'w'
I6
tp1026
a(S'p2_vo'
I3
tp1027
a(S'w'
I18
tp1028
a(S'no_vo'
I0
tp1029
a(S'w'
I686
tp1030
a(S'p1_tl'
I212
tp1031
a(S'w'
I31
tp1032
a(S'p2_vo'
I8
tp1033
a(S'w'
I7
tp1034
a(S'p2_tl'
I226
tp1035
a(S'w'
I695
tp1036
a(S'p1_tl'
I211
tp1037
a(S'w'
I13
tp1038
a(S'p2_vo'
I7
tp1039
a(S'w'
I719
tp1040
a(S'p1_tl'
I210
tp1041
a(S'w'
I19
tp1042
a(S'w'
I6
tp1043
a(S'p2_vo'
I6
tp1044
a(S'w'
I708
tp1045
a(S'p1_tl'
I209
tp1046
a(S'w'
I21
tp1047
a(S'p2_tl'
I225
tp1048
a(S'w'
I7
tp1049
a(S'p2_vo'
I5
tp1050
a(S'w'
I719
tp1051
a(S'p1_tl'
I225
tp1052
a(S'w'
I16
tp1053
a(S'p2_tl'
I224
tp1054
a(S'w'
I6
tp1055
a(S'p2_vo'
I4
tp1056
a(S'w'
I4
tp1057
a(S'tr_lh'
I0
tp1058
a(S'tr_lr'
I0
tp1059
a(S'w'
I702
tp1060
a(S'p2_tl'
I223
tp1061
a(S'w'
I7
tp1062
a(S'p2_vo'
I3
tp1063
a(S'w'
I718
tp1064
a(S'w'
I21
tp1065
a(S'p2_tl'
I222
tp1066
a(S'w'
I6
tp1067
a(S'p2_vo'
I2
tp1068
a(S'w'
I703
tp1069
a(S'p1_tl'
I224
tp1070
a(S'w'
I42
tp1071
a(S'p2_vo'
I8
tp1072
a(S'w'
I7
tp1073
a(S'p2_tl'
I226
tp1074
a(S'w'
I19
tp1075
a(S'tr_lh'
I1
tp1076
a(S'tr_lr'
I16
tp1077
a(S'w'
I5
tp1078
a(S'tr_ll'
I1
tp1079
a(S'tr_th'
I1
tp1080
a(S'w'
I3
tp1081
a(S'tr_tl'
I252
tp1082
a(S'w'
I12
tp1083
a(S'ch_no'
I1
tp1084
a(S'ch_tr'
I1
tp1085
a(S'ch_p2'
I1
tp1086
a(S'ch_p1'
I1
tp1087
a(S'w'
I1
tp1088
a(S'ch_no'
I1
tp1089
a(S'ch_tr'
I1
tp1090
a(S'ch_p2'
I1
tp1091
a(S'ch_p1'
I1
tp1092
a(S'w'
I645
tp1093
a(S'p1_tl'
I223
tp1094
a(S'w'
I13
tp1095
a(S'p2_vo'
I7
tp1096
a(S'w'
I719
tp1097
a(S'p1_tl'
I222
tp1098
a(S'w'
I22
tp1099
a(S'p2_tl'
I222
tp1100
a(S'w'
I7
tp1101
a(S'p2_vo'
I6
tp1102
a(S'w'
I718
tp1103
a(S'p1_tl'
I225
tp1104
a(S'w'
I12
tp1105
a(S'p2_vo'
I5
tp1106
a(S'w'
I712
tp1107
a(S'p2_vo'
I4
tp1108
a(S'w'
I728
tp1109
a(S'w'
I22
tp1110
a(S'p2_tl'
I218
tp1111
a(S'w'
I7
tp1112
a(S'p2_vo'
I3
tp1113
a(S'w'
I702
tp1114
a(S'p1_tl'
I224
tp1115
a(S'w'
I732
tp1116
a(S'p1_tl'
I223
tp1117
a(S'w'
I18
tp1118
a(S'p2_tl'
I214
tp1119
a(S'w'
I715
tp1120
a(S'p1_tl'
I222
tp1121
a(S'w'
I18
tp1122
a(S'p2_tl'
I210
tp1123
a(S'w'
I715
tp1124
a(S'p1_tl'
I221
tp1125
a(S'w'
I22
tp1126
a(S'p2_tl'
I214
tp1127
a(S'w'
I726
tp1128
a(S'p1_tl'
I225
tp1129
a(S'w'
I17
tp1130
a(S'p2_tl'
I218
tp1131
a(S'w'
I1444
tp1132
a(S'p2_tl'
I222
tp1133
a(S'w'
I1462
tp1134
a(S'p2_tl'
I226
tp1135
a(S'w'
I2196
tp1136
a(S'p2_tl'
I230
tp1137
a(S'w'
I2202
tp1138
a(S'p1_vo'
I6
tp1139
a(S'w'
I6
tp1140
a(S'p1_ll'
I1
tp1141
a(S'p1_th'
I1
tp1142
a(S'w'
I2
tp1143
a(S'p1_tl'
I197
tp1144
a(S'w'
I17
tp1145
a(S'p2_tl'
I226
tp1146
a(S'w'
I692
tp1147
a(S'p1_vo'
I5
tp1148
a(S'w'
I10
tp1149
a(S'tr_lh'
I0
tp1150
a(S'tr_lr'
I0
tp1151
a(S'w'
I722
tp1152
a(S'p1_vo'
I4
tp1153
a(S'w'
I733
tp1154
a(S'p1_vo'
I3
tp1155
a(S'w'
I16
tp1156
a(S'p2_tl'
I222
tp1157
a(S'w'
I2196
tp1158
a(S'p2_tl'
I226
tp1159
a(S'w'
I2184
tp1160
a(S'p1_vo'
I2
tp1161
a(S'w'
I16
tp1162
a(S'p2_tl'
I230
tp1163
a(S'w'
I728
tp1164
a(S'p1_vo'
I3
tp1165
a(S'w'
I7
tp1166
a(S'w'
I21
tp1167
a(S'tr_lh'
I1
tp1168
a(S'tr_lr'
I16
tp1169
a(S'w'
I5
tp1170
a(S'tr_ll'
I1
tp1171
a(S'w'
I3
tp1172
a(S'tr_tl'
I104
tp1173
a(S'w'
I23
tp1174
a(S'no_vo'
I8
tp1175
a(S'w'
I1
tp1176
a(S'no_ll'
I1
tp1177
a(S'no_np'
I2
tp1178
a(S'w'
I661
tp1179
a(S'p1_vo'
I2
tp1180
a(S'w'
I22
tp1181
a(S'no_vo'
I1
tp1182
a(S'w'
I1
tp1183
a(S'no_ll'
I1
tp1184
a(S'w'
I1
tp1185
a(S'no_np'
I1
tp1186
a(S'w'
I708
tp1187
a(S'p1_vo'
I1
tp1188
a(S'w'
I16
tp1189
a(S'p2_tl'
I226
tp1190
a(S'w'
I19
tp1191
a(S'no_vo'
I0
tp1192
a(S'w'
I2175
tp1193
a(S'p2_tl'
I222
tp1194
a(S'w'
I1458
tp1195
a(S'tr_lh'
I0
tp1196
a(S'tr_lr'
I0
tp1197
a(S'w'
I742
tp1198
a(S'p2_tl'
I226
tp1199
a(S'w'
I1464
tp1200
a(S'p1_vo'
I6
tp1201
a(S'w'
I6
tp1202
a(S'p1_tl'
I46
tp1203
a(S'w'
I22
tp1204
a(S'tr_lh'
I1
tp1205
a(S'tr_lr'
I16
tp1206
a(S'w'
I4
tp1207
a(S'tr_ll'
I1
tp1208
a(S'tr_th'
I0
tp1209
a(S'w'
I3
tp1210
a(S'tr_tl'
I226
tp1211
a(S'w'
I23
tp1212
a(S'no_vo'
I12
tp1213
a(S'w'
I2
tp1214
a(S'no_ll'
I1
tp1215
a(S'no_np'
I14
tp1216
a(S'w'
I660
tp1217
a(S'p1_vo'
I5
tp1218
a(S'w'
I16
tp1219
a(S'p2_tl'
I230
tp1220
a(S'w'
I18
tp1221
a(S'no_vo'
I7
tp1222
a(S'w'
I1
tp1223
a(S'no_ll'
I1
tp1224
a(S'no_np'
I6
tp1225
a(S'w'
I697
tp1226
a(S'p1_vo'
I4
tp1227
a(S'w'
I22
tp1228
a(S'no_vo'
I3
tp1229
a(S'w'
I1
tp1230
a(S'no_ll'
I1
tp1231
a(S'w'
I1
tp1232
a(S'no_np'
I4
tp1233
a(S'w'
I709
tp1234
a(S'p1_vo'
I3
tp1235
a(S'w'
I22
tp1236
a(S'no_vo'
I4
tp1237
a(S'w'
I1
tp1238
a(S'no_ll'
I1
tp1239
a(S'w'
I1
tp1240
a(S'no_np'
I3
tp1241
a(S'w'
I721
tp1242
a(S'p2_tl'
I226
tp1243
a(S'w'
I17
tp1244
a(S'no_vo'
I2
tp1245
a(S'w'
I2
tp1246
a(S'no_ll'
I1
tp1247
a(S'no_np'
I4
tp1248
a(S'w'
I718
tp1249
a(S'no_vo'
I1
tp1250
a(S'w'
I2
tp1251
a(S'no_ll'
I1
tp1252
a(S'no_np'
I3
tp1253
a(S'w'
I733
tp1254
a(S'no_ll'
I1
tp1255
a(S'no_np'
I2
tp1256
a(S'w'
I725
tp1257
a(S'p2_tl'
I222
tp1258
a(S'w'
I19
tp1259
a(S'no_vo'
I0
tp1260
a(S'w'
I1435
tp1261
a(S'p1_vo'
I2
tp1262
a(S'w'
I744
tp1263
a(S'p1_vo'
I3
tp1264
a(S'w'
I7
tp1265
a(S'w'
I18
tp1266
a(S'p2_tl'
I226
tp1267
a(S'w'
I696
tp1268
a(S'p1_vo'
I2
tp1269
a(S'w'
I733
tp1270
a(S'p1_vo'
I1
tp1271
a(S'w'
I748
tp1272
a(S'p2_tl'
I230
tp1273
a(S'w'
I722
tp1274
a(S'tr_lh'
I0
tp1275
a(S'tr_lr'
I0
tp1276
a(S'w'
I1472
tp1277
a(S'p2_tl'
I226
tp1278
a(S'w'
I2202
tp1279
a(S'p2_tl'
I222
tp1280
a(S'w'
I729
tp1281
a(S'p1_vo'
I6
tp1282
a(S'w'
I6
tp1283
a(S'p1_ll'
I1
tp1284
a(S'p1_th'
I0
tp1285
a(S'w'
I3
tp1286
a(S'p1_tl'
I226
tp1287
a(S'w'
I11
tp1288
a(S'p2_vo'
I2
tp1289
a(S'w'
I14
tp1290
a(S'tr_lh'
I1
tp1291
a(S'tr_lr'
I16
tp1292
a(S'w'
I5
tp1293
a(S'tr_ll'
I1
tp1294
a(S'tr_th'
I1
tp1295
a(S'w'
I3
tp1296
a(S'tr_tl'
I46
tp1297
a(S'w'
I7
tp1298
a(S'ch_no'
I1
tp1299
a(S'ch_tr'
I1
tp1300
a(S'ch_p2'
I1
tp1301
a(S'ch_p1'
I1
tp1302
a(S'w'
I1
tp1303
a(S'ch_no'
I1
tp1304
a(S'ch_tr'
I1
tp1305
a(S'ch_p2'
I1
tp1306
a(S'ch_p1'
I1
tp1307
a(S'w'
I671
tp1308
a(S'p1_vo'
I5
tp1309
a(S'w'
I733
tp1310
a(S'p1_vo'
I4
tp1311
a(S'w'
I18
tp1312
a(S'p2_tl'
I226
tp1313
a(S'w'
I713
tp1314
a(S'p1_vo'
I3
tp1315
a(S'w'
I1477
tp1316
a(S'p2_tl'
I230
tp1317
a(S'w'
I727
tp1318
a(S'p2_vo'
I1
tp1319
a(S'w'
I732
tp1320
a(S'tr_lh'
I0
tp1321
a(S'tr_lr'
I0
tp1322
a(S'w'
I739
tp1323
a(S'p2_tl'
I226
tp1324
a(S'w'
I721
tp1325
a(S'p1_vo'
I2
tp1326
a(S'w'
I744
tp1327
a(S'p1_vo'
I3
tp1328
a(S'w'
I7
tp1329
a(S'w'
I20
tp1330
a(S'tr_lh'
I1
tp1331
a(S'tr_lr'
I16
tp1332
a(S'w'
I5
tp1333
a(S'tr_ll'
I1
tp1334
a(S'tr_th'
I0
tp1335
a(S'w'
I3
tp1336
a(S'tr_tl'
I226
tp1337
a(S'w'
I22
tp1338
a(S'no_vo'
I8
tp1339
a(S'w'
I2
tp1340
a(S'no_ll'
I1
tp1341
a(S'w'
I662
tp1342
a(S'p1_vo'
I2
tp1343
a(S'w'
I16
tp1344
a(S'p2_tl'
I222
tp1345
a(S'w'
I17
tp1346
a(S'no_vo'
I1
tp1347
a(S'w'
I2
tp1348
a(S'no_ll'
I1
tp1349
a(S'no_np'
I1
tp1350
a(S'w'
I698
tp1351
a(S'p1_vo'
I1
tp1352
a(S'w'
I10
tp1353
a(S'p2_vo'
I0
tp1354
a(S'w'
I18
tp1355
a(S'no_vo'
I0
tp1356
a(S'w'
I1451
tp1357
a(S'p2_tl'
I226
tp1358
a(S'w'
I2196
tp1359
a(S'p2_tl'
I230
tp1360
a(S'w'
I4
tp1361
a(S'tr_lh'
I0
tp1362
a(S'tr_lr'
I0
tp1363
a(S'w'
I2204
tp1364
a(S'p1_vo'
I4
tp1365
a(S'w'
I6
tp1366
a(S'p1_ll'
I1
tp1367
a(S'p1_th'
I1
tp1368
a(S'w'
I3
tp1369
a(S'p1_tl'
I125
tp1370
a(S'w'
I34
tp1371
a(S'p2_du'
I2
tp1372
a(S'p2_vo'
I6
tp1373
a(S'w'
I6
tp1374
a(S'p2_ll'
I1
tp1375
a(S'p2_th'
I1
tp1376
a(S'w'
I2
tp1377
a(S'p2_tl'
I64
tp1378
a(S'w'
I23
tp1379
a(S'tr_lh'
I1
tp1380
a(S'tr_lr'
I16
tp1381
a(S'w'
I5
tp1382
a(S'tr_ll'
I1
tp1383
a(S'tr_th'
I1
tp1384
a(S'w'
I3
tp1385
a(S'tr_tl'
I252
tp1386
a(S'w'
I12
tp1387
a(S'ch_no'
I1
tp1388
a(S'ch_tr'
I1
tp1389
a(S'ch_p2'
I1
tp1390
a(S'ch_p1'
I1
tp1391
a(S'w'
I1
tp1392
a(S'ch_no'
I1
tp1393
a(S'ch_tr'
I1
tp1394
a(S'ch_p2'
I1
tp1395
a(S'ch_p1'
I1
tp1396
a(S'w'
I615
tp1397
a(S'p1_vo'
I3
tp1398
a(S'w'
I10
tp1399
a(S'p2_du'
I0
tp1400
a(S'p2_vo'
I5
tp1401
a(S'w'
I724
tp1402
a(S'p1_vo'
I2
tp1403
a(S'w'
I10
tp1404
a(S'p2_vo'
I4
tp1405
a(S'w'
I721
tp1406
a(S'p1_vo'
I1
tp1407
a(S'w'
I10
tp1408
a(S'p2_vo'
I3
tp1409
a(S'w'
I729
tp1410
a(S'p2_vo'
I2
tp1411
a(S'w'
I732
tp1412
a(S'p2_vo'
I1
tp1413
a(S'w'
I7325
tp1414
a(S'p2_du'
I2
tp1415
a(S'w'
I2926
tp1416
a(S'p1_vo'
I0
tp1417
a(S'w'
I745
tp1418
a(S'p1_vo'
I5
tp1419
a(S'w'
I7
tp1420
a(S'p1_tl'
I64
tp1421
a(S'w'
I39
tp1422
a(S'p2_vo'
I6
tp1423
a(S'w'
I6
tp1424
a(S'p2_ll'
I1
tp1425
a(S'p2_th'
I0
tp1426
a(S'w'
I3
tp1427
a(S'p2_tl'
I240
tp1428
a(S'w'
I665
tp1429
a(S'p1_vo'
I4
tp1430
a(S'w'
I11
tp1431
a(S'p2_du'
I0
tp1432
a(S'p2_vo'
I7
tp1433
a(S'w'
I3
tp1434
a(S'tr_lh'
I0
tp1435
a(S'tr_lr'
I0
tp1436
a(S'w'
I719
tp1437
a(S'p1_vo'
I3
tp1438
a(S'w'
I12
tp1439
a(S'p2_vo'
I8
tp1440
a(S'w'
I720
tp1441
a(S'p1_vo'
I2
tp1442
a(S'w'
I11
tp1443
a(S'p2_vo'
I7
tp1444
a(S'w'
I729
tp1445
a(S'p2_vo'
I6
tp1446
a(S'w'
I732
tp1447
a(S'p2_vo'
I5
tp1448
a(S'w'
I733
tp1449
a(S'p2_vo'
I4
tp1450
a(S'w'
I733
tp1451
a(S'p2_vo'
I3
tp1452
a(S'w'
I2204
tp1453
a(S'w'
I17
tp1454
a(S'tr_lh'
I1
tp1455
a(S'tr_lr'
I16
tp1456
a(S'w'
I4
tp1457
a(S'tr_ll'
I1
tp1458
a(S'w'
I3
tp1459
a(S'tr_tl'
I64
tp1460
a(S'w'
I23
tp1461
a(S'no_vo'
I8
tp1462
a(S'w'
I1
tp1463
a(S'no_ll'
I1
tp1464
a(S'w'
I1
tp1465
a(S'no_np'
I2
tp1466
a(S'w'
I688
tp1467
a(S'no_vo'
I1
tp1468
a(S'w'
I2
tp1469
a(S'no_ll'
I1
tp1470
a(S'no_np'
I1
tp1471
a(S'w'
I727
tp1472
a(S'w'
I19
tp1473
a(S'no_vo'
I0
tp1474
a(S'w'
I698
tp1475
a(S'p1_vo'
I1
tp1476
a(S'w'
I17
tp1477
a(S'p2_tl'
I238
tp1478
a(S'w'
I2198
tp1479
a(S'p2_tl'
I240
tp1480
a(S'w'
I722
tp1481
a(S'w'
I6
tp1482
a(S'p2_du'
I2
tp1483
a(S'p2_vo'
I1
tp1484
a(S'w'
I3
tp1485
a(S'tr_lh'
I0
tp1486
a(S'tr_lr'
I0
tp1487
a(S'w'
I1451
tp1488
a(S'p1_vo'
I0
tp1489
a(S'w'
I745
tp1490
a(S'p1_vo'
I5
tp1491
a(S'w'
I7
tp1492
a(S'w'
I25
tp1493
a(S'p2_vo'
I6
tp1494
a(S'w'
I6
tp1495
a(S'p2_tl'
I214
tp1496
a(S'w'
I16
tp1497
a(S'tr_lh'
I1
tp1498
a(S'tr_lr'
I16
tp1499
a(S'w'
I4
tp1500
a(S'tr_ll'
I1
tp1501
a(S'tr_th'
I0
tp1502
a(S'w'
I3
tp1503
a(S'tr_tl'
I240
tp1504
a(S'w'
I23
tp1505
a(S'no_vo'
I12
tp1506
a(S'w'
I2
tp1507
a(S'no_ll'
I1
tp1508
a(S'no_np'
I14
tp1509
a(S'w'
I634
tp1510
a(S'p1_vo'
I4
tp1511
a(S'w'
I11
tp1512
a(S'p2_du'
I0
tp1513
a(S'p2_vo'
I7
tp1514
a(S'w'
I15
tp1515
a(S'no_vo'
I7
tp1516
a(S'w'
I2
tp1517
a(S'no_ll'
I1
tp1518
a(S'no_np'
I6
tp1519
a(S'w'
I705
tp1520
a(S'p1_vo'
I3
tp1521
a(S'w'
I12
tp1522
a(S'p2_vo'
I8
tp1523
a(S'w'
I16
tp1524
a(S'no_vo'
I3
tp1525
a(S'w'
I1
tp1526
a(S'no_ll'
I1
tp1527
a(S'w'
I1
tp1528
a(S'no_np'
I4
tp1529
a(S'w'
I702
tp1530
a(S'p1_vo'
I2
tp1531
a(S'w'
I11
tp1532
a(S'p2_vo'
I7
tp1533
a(S'w'
I15
tp1534
a(S'no_vo'
I4
tp1535
a(S'w'
I2
tp1536
a(S'no_ll'
I1
tp1537
a(S'no_np'
I3
tp1538
a(S'w'
I712
tp1539
a(S'p2_vo'
I6
tp1540
a(S'w'
I16
tp1541
a(S'no_vo'
I2
tp1542
a(S'w'
I1
tp1543
a(S'no_ll'
I1
tp1544
a(S'no_np'
I4
tp1545
a(S'w'
I716
tp1546
a(S'p2_vo'
I5
tp1547
a(S'w'
I16
tp1548
a(S'no_vo'
I1
tp1549
a(S'w'
I1
tp1550
a(S'no_ll'
I1
tp1551
a(S'no_np'
I3
tp1552
a(S'w'
I715
tp1553
a(S'p2_vo'
I4
tp1554
a(S'w'
I17
tp1555
a(S'no_ll'
I1
tp1556
a(S'no_np'
I2
tp1557
a(S'w'
I716
tp1558
a(S'p2_vo'
I3
tp1559
a(S'w'
I18
tp1560
a(S'no_vo'
I0
tp1561
a(S'w'
I2187
tp1562
a(S'w'
I1465
tp1563
a(S'w'
I717
tp1564
a(S'p1_vo'
I1
tp1565
a(S'w'
I17
tp1566
a(S'p2_tl'
I212
tp1567
a(S'w'
I723
tp1568
a(S'tr_lh'
I0
tp1569
a(S'tr_lr'
I0
tp1570
a(S'w'
I1475
tp1571
a(S'p2_tl'
I214
tp1572
a(S'w'
I722
tp1573
a(S'p2_tl'
I240
tp1574
a(S'w'
I6
tp1575
a(S'p2_du'
I2
tp1576
a(S'p2_vo'
I1
tp1577
a(S'w'
I1454
tp1578
a(S'p1_vo'
I0
tp1579
a(S'w'
I745
tp1580
a(S'p1_vo'
I5
tp1581
a(S'w'
I6
tp1582
a(S'p1_ll'
I1
tp1583
a(S'p1_th'
I0
tp1584
a(S'w'
I3
tp1585
a(S'p1_tl'
I240
tp1586
a(S'w'
I24
tp1587
a(S'p2_vo'
I6
tp1588
a(S'w'
I7
tp1589
a(S'p2_tl'
I190
tp1590
a(S'w'
I15
tp1591
a(S'tr_lh'
I1
tp1592
a(S'tr_lr'
I16
tp1593
a(S'w'
I4
tp1594
a(S'tr_ll'
I1
tp1595
a(S'tr_th'
I1
tp1596
a(S'w'
I3
tp1597
a(S'tr_tl'
I64
tp1598
a(S'w'
I8
tp1599
a(S'ch_no'
I1
tp1600
a(S'ch_tr'
I1
tp1601
a(S'ch_p2'
I1
tp1602
a(S'ch_p1'
I1
tp1603
a(S'w'
I1
tp1604
a(S'ch_no'
I1
tp1605
a(S'ch_tr'
I1
tp1606
a(S'ch_p2'
I1
tp1607
a(S'ch_p1'
I1
tp1608
a(S'w'
I649
tp1609
a(S'p1_vo'
I4
tp1610
a(S'w'
I11
tp1611
a(S'p2_du'
I0
tp1612
a(S'p2_vo'
I7
tp1613
a(S'w'
I722
tp1614
a(S'p1_vo'
I3
tp1615
a(S'w'
I13
tp1616
a(S'p2_vo'
I8
tp1617
a(S'w'
I719
tp1618
a(S'p1_vo'
I2
tp1619
a(S'w'
I11
tp1620
a(S'p2_vo'
I7
tp1621
a(S'w'
I729
tp1622
a(S'p2_vo'
I6
tp1623
a(S'w'
I733
tp1624
a(S'p2_vo'
I5
tp1625
a(S'w'
I732
tp1626
a(S'p2_vo'
I4
tp1627
a(S'w'
I733
tp1628
a(S'p2_vo'
I3
tp1629
a(S'w'
I4
tp1630
a(S'tr_lh'
I0
tp1631
a(S'tr_lr'
I0
tp1632
a(S'w'
I2201
tp1633
a(S'w'
I16
tp1634
a(S'tr_lh'
I1
tp1635
a(S'tr_lr'
I16
tp1636
a(S'w'
I5
tp1637
a(S'tr_ll'
I1
tp1638
a(S'tr_th'
I0
tp1639
a(S'w'
I3
tp1640
a(S'tr_tl'
I240
tp1641
a(S'w'
I22
tp1642
a(S'no_vo'
I8
tp1643
a(S'w'
I2
tp1644
a(S'no_ll'
I1
tp1645
a(S'w'
I688
tp1646
a(S'no_vo'
I1
tp1647
a(S'w'
I2
tp1648
a(S'no_ll'
I1
tp1649
a(S'no_np'
I1
tp1650
a(S'w'
I727
tp1651
a(S'w'
I19
tp1652
a(S'no_vo'
I0
tp1653
a(S'w'
I698
tp1654
a(S'p1_vo'
I1
tp1655
a(S'w'
I17
tp1656
a(S'p2_tl'
I188
tp1657
a(S'w'
I2198
tp1658
a(S'p2_tl'
I190
tp1659
a(S'w'
I722
tp1660
a(S'p2_tl'
I214
tp1661
a(S'w'
I6
tp1662
a(S'p2_du'
I2
tp1663
a(S'p2_vo'
I1
tp1664
a(S'w'
I3
tp1665
a(S'tr_lh'
I0
tp1666
a(S'tr_lr'
I0
tp1667
a(S'w'
I1451
tp1668
a(S'p1_vo'
I0
tp1669
a(S'w'
I746
tp1670
a(S'p1_vo'
I5
tp1671
a(S'w'
I6
tp1672
a(S'p1_tl'
I190
tp1673
a(S'w'
I25
tp1674
a(S'p2_vo'
I6
tp1675
a(S'w'
I7
tp1676
a(S'p2_tl'
I160
tp1677
a(S'w'
I19
tp1678
a(S'tr_lh'
I1
tp1679
a(S'tr_lr'
I16
tp1680
a(S'w'
I5
tp1681
a(S'tr_ll'
I1
tp1682
a(S'tr_th'
I1
tp1683
a(S'w'
I3
tp1684
a(S'tr_tl'
I252
tp1685
a(S'w'
I12
tp1686
a(S'ch_no'
I1
tp1687
a(S'ch_tr'
I1
tp1688
a(S'ch_p2'
I1
tp1689
a(S'ch_p1'
I1
tp1690
a(S'w'
I1
tp1691
a(S'ch_no'
I1
tp1692
a(S'ch_tr'
I1
tp1693
a(S'ch_p2'
I1
tp1694
a(S'ch_p1'
I1
tp1695
a(S'w'
I641
tp1696
a(S'p1_vo'
I4
tp1697
a(S'w'
I12
tp1698
a(S'p2_du'
I0
tp1699
a(S'p2_vo'
I7
tp1700
a(S'w'
I721
tp1701
a(S'p1_vo'
I3
tp1702
a(S'w'
I13
tp1703
a(S'p2_vo'
I8
tp1704
a(S'w'
I719
tp1705
a(S'p1_vo'
I2
tp1706
a(S'w'
I11
tp1707
a(S'p2_vo'
I7
tp1708
a(S'w'
I729
tp1709
a(S'p2_vo'
I6
tp1710
a(S'w'
I733
tp1711
a(S'p2_vo'
I5
tp1712
a(S'w'
I732
tp1713
a(S'p2_vo'
I4
tp1714
a(S'w'
I725
tp1715
a(S'p1_vo'
I1
tp1716
a(S'w'
I12
tp1717
a(S'p2_vo'
I3
tp1718
a(S'w'
I2199
tp1719
a(S'p1_vo'
I5
tp1720
a(S'w'
I7
tp1721
a(S'p1_tl'
I240
tp1722
a(S'w'
I19
tp1723
a(S'w'
I694
tp1724
a(S'p1_vo'
I4
tp1725
a(S'w'
I733
tp1726
a(S'p1_vo'
I3
tp1727
a(S'w'
I18
tp1728
a(S'w'
I714
tp1729
a(S'p1_vo'
I2
tp1730
a(S'w'
I16
tp1731
a(S'p2_tl'
I158
tp1732
a(S'w'
I2194
tp1733
a(S'p2_tl'
I160
tp1734
a(S'w'
I720
tp1735
a(S'p1_vo'
I1
tp1736
a(S'w'
I745
tp1737
a(S'p2_tl'
I162
tp1738
a(S'w'
I1466
tp1739
a(S'p1_vo'
I5
tp1740
a(S'w'
I6
tp1741
a(S'p1_ll'
I1
tp1742
a(S'p1_th'
I1
tp1743
a(S'w'
I2
tp1744
a(S'p1_tl'
I64
tp1745
a(S'w'
I712
tp1746
a(S'p1_vo'
I4
tp1747
a(S'w'
I16
tp1748
a(S'p2_tl'
I160
tp1749
a(S'w'
I5
tp1750
a(S'tr_lh'
I0
tp1751
a(S'tr_lr'
I0
tp1752
a(S'w'
I712
tp1753
a(S'p1_vo'
I3
tp1754
a(S'w'
I18
tp1755
a(S'w'
I714
tp1756
a(S'p1_vo'
I2
tp1757
a(S'w'
I16
tp1758
a(S'p2_tl'
I158
tp1759
a(S'w'
I1456
tp1760
a(S'p2_tl'
I160
tp1761
a(S'w'
I6
tp1762
a(S'p2_du'
I2
tp1763
a(S'p2_vo'
I1
tp1764
a(S'w'
I1452
tp1765
a(S'p1_vo'
I1
tp1766
a(S'w'
I2212
tp1767
a(S'p1_vo'
I5
tp1768
a(S'w'
I6
tp1769
a(S'p1_ll'
I1
tp1770
a(S'p1_th'
I0
tp1771
a(S'w'
I2
tp1772
a(S'p1_tl'
I190
tp1773
a(S'w'
I24
tp1774
a(S'p2_vo'
I6
tp1775
a(S'w'
I7
tp1776
a(S'w'
I16
tp1777
a(S'tr_lh'
I1
tp1778
a(S'tr_lr'
I16
tp1779
a(S'w'
I4
tp1780
a(S'tr_ll'
I1
tp1781
a(S'w'
I3
tp1782
a(S'tr_tl'
I64
tp1783
a(S'w'
I23
tp1784
a(S'no_vo'
I8
tp1785
a(S'w'
I1
tp1786
a(S'no_ll'
I1
tp1787
a(S'w'
I1
tp1788
a(S'no_np'
I2
tp1789
a(S'w'
I632
tp1790
a(S'p1_vo'
I4
tp1791
a(S'w'
I10
tp1792
a(S'p2_du'
I0
tp1793
a(S'p2_vo'
I7
tp1794
a(S'w'
I16
tp1795
a(S'no_vo'
I1
tp1796
a(S'w'
I1
tp1797
a(S'no_ll'
I1
tp1798
a(S'w'
I1
tp1799
a(S'no_np'
I1
tp1800
a(S'w'
I705
tp1801
a(S'p1_vo'
I3
tp1802
a(S'w'
I12
tp1803
a(S'p2_vo'
I8
tp1804
a(S'w'
I17
tp1805
a(S'no_vo'
I0
tp1806
a(S'w'
I704
tp1807
a(S'p1_vo'
I2
tp1808
a(S'w'
I11
tp1809
a(S'p2_vo'
I7
tp1810
a(S'w'
I728
tp1811
a(S'p2_vo'
I6
tp1812
a(S'w'
I733
tp1813
a(S'p2_vo'
I5
tp1814
a(S'w'
I732
tp1815
a(S'p2_vo'
I4
tp1816
a(S'w'
I725
tp1817
a(S'p1_vo'
I1
tp1818
a(S'w'
I12
tp1819
a(S'p2_vo'
I3
tp1820
a(S'w'
I3
tp1821
a(S'tr_lh'
I0
tp1822
a(S'tr_lr'
I0
tp1823
a(S'w'
I1456
tp1824
a(S'w'
I6
tp1825
a(S'p2_du'
I2
tp1826
a(S'p2_vo'
I1
tp1827
a(S'w'
I734
tp1828
a(S'p1_vo'
I5
tp1829
a(S'w'
I7
tp1830
a(S'p1_tl'
I214
tp1831
a(S'w'
I24
tp1832
a(S'p2_vo'
I6
tp1833
a(S'w'
I7
tp1834
a(S'p2_tl'
I170
tp1835
a(S'w'
I15
tp1836
a(S'tr_lh'
I1
tp1837
a(S'tr_lr'
I16
tp1838
a(S'w'
I5
tp1839
a(S'tr_ll'
I1
tp1840
a(S'tr_th'
I0
tp1841
a(S'w'
I3
tp1842
a(S'tr_tl'
I240
tp1843
a(S'w'
I23
tp1844
a(S'no_vo'
I12
tp1845
a(S'w'
I1
tp1846
a(S'no_ll'
I1
tp1847
a(S'w'
I1
tp1848
a(S'no_np'
I14
tp1849
a(S'w'
I634
tp1850
a(S'p1_vo'
I4
tp1851
a(S'w'
I11
tp1852
a(S'p2_du'
I0
tp1853
a(S'p2_vo'
I7
tp1854
a(S'w'
I15
tp1855
a(S'no_vo'
I7
tp1856
a(S'w'
I2
tp1857
a(S'no_ll'
I1
tp1858
a(S'no_np'
I6
tp1859
a(S'w'
I705
tp1860
a(S'p1_vo'
I3
tp1861
a(S'w'
I12
tp1862
a(S'p2_vo'
I8
tp1863
a(S'w'
I16
tp1864
a(S'no_vo'
I3
tp1865
a(S'w'
I1
tp1866
a(S'no_ll'
I1
tp1867
a(S'w'
I1
tp1868
a(S'no_np'
I4
tp1869
a(S'w'
I703
tp1870
a(S'p1_vo'
I2
tp1871
a(S'w'
I11
tp1872
a(S'p2_vo'
I7
tp1873
a(S'w'
I15
tp1874
a(S'no_vo'
I4
tp1875
a(S'w'
I2
tp1876
a(S'no_ll'
I1
tp1877
a(S'no_np'
I3
tp1878
a(S'w'
I711
tp1879
a(S'p2_vo'
I6
tp1880
a(S'w'
I16
tp1881
a(S'no_vo'
I2
tp1882
a(S'w'
I1
tp1883
a(S'no_ll'
I1
tp1884
a(S'no_np'
I4
tp1885
a(S'w'
I716
tp1886
a(S'p2_vo'
I5
tp1887
a(S'w'
I16
tp1888
a(S'no_vo'
I1
tp1889
a(S'w'
I1
tp1890
a(S'no_ll'
I1
tp1891
a(S'no_np'
I3
tp1892
a(S'w'
I715
tp1893
a(S'p2_vo'
I4
tp1894
a(S'w'
I17
tp1895
a(S'no_ll'
I1
tp1896
a(S'no_np'
I2
tp1897
a(S'w'
I716
tp1898
a(S'p2_vo'
I3
tp1899
a(S'w'
I18
tp1900
a(S'no_vo'
I0
tp1901
a(S'w'
I2187
tp1902
a(S'w'
I1465
tp1903
a(S'w'
I718
tp1904
a(S'p1_vo'
I1
tp1905
a(S'w'
I17
tp1906
a(S'p2_tl'
I168
tp1907
a(S'w'
I722
tp1908
a(S'tr_lh'
I0
tp1909
a(S'tr_lr'
I0
tp1910
a(S'w'
I1475
tp1911
a(S'p2_tl'
I170
tp1912
a(S'w'
I722
tp1913
a(S'p2_tl'
I160
tp1914
a(S'w'
I6
tp1915
a(S'p2_du'
I2
tp1916
a(S'p2_vo'
I1
tp1917
a(S'w'
I1454
tp1918
a(S'p1_vo'
I0
tp1919
a(S'w'
I746
tp1920
a(S'p1_vo'
I5
tp1921
a(S'w'
I6
tp1922
a(S'p1_tl'
I240
tp1923
a(S'w'
I25
tp1924
a(S'p2_vo'
I6
tp1925
a(S'w'
I7
tp1926
a(S'p2_tl'
I190
tp1927
a(S'w'
I15
tp1928
a(S'tr_lh'
I1
tp1929
a(S'tr_lr'
I16
tp1930
a(S'w'
I4
tp1931
a(S'tr_ll'
I1
tp1932
a(S'tr_th'
I1
tp1933
a(S'w'
I3
tp1934
a(S'tr_tl'
I64
tp1935
a(S'w'
I8
tp1936
a(S'ch_no'
I1
tp1937
a(S'ch_tr'
I1
tp1938
a(S'ch_p2'
I1
tp1939
a(S'ch_p1'
I1
tp1940
a(S'w'
I1
tp1941
a(S'ch_no'
I1
tp1942
a(S'ch_tr'
I1
tp1943
a(S'ch_p2'
I1
tp1944
a(S'ch_p1'
I1
tp1945
a(S'w'
I650
tp1946
a(S'p1_vo'
I4
tp1947
a(S'w'
I12
tp1948
a(S'p2_du'
I0
tp1949
a(S'p2_vo'
I7
tp1950
a(S'w'
I721
tp1951
a(S'p1_vo'
I3
tp1952
a(S'w'
I13
tp1953
a(S'p2_vo'
I8
tp1954
a(S'w'
I720
tp1955
a(S'p1_vo'
I2
tp1956
a(S'w'
I11
tp1957
a(S'p2_vo'
I7
tp1958
a(S'w'
I728
tp1959
a(S'p2_vo'
I6
tp1960
a(S'w'
I733
tp1961
a(S'p2_vo'
I5
tp1962
a(S'w'
I732
tp1963
a(S'p2_vo'
I4
tp1964
a(S'w'
I733
tp1965
a(S'p2_vo'
I3
tp1966
a(S'w'
I4
tp1967
a(S'tr_lh'
I0
tp1968
a(S'tr_lr'
I0
tp1969
a(S'w'
I2201
tp1970
a(S'w'
I16
tp1971
a(S'tr_lh'
I1
tp1972
a(S'tr_lr'
I16
tp1973
a(S'w'
I5
tp1974
a(S'tr_ll'
I1
tp1975
a(S'tr_th'
I0
tp1976
a(S'w'
I3
tp1977
a(S'tr_tl'
I240
tp1978
a(S'w'
I22
tp1979
a(S'no_vo'
I8
tp1980
a(S'w'
I2
tp1981
a(S'no_ll'
I1
tp1982
a(S'w'
I688
tp1983
a(S'no_vo'
I1
tp1984
a(S'w'
I2
tp1985
a(S'no_ll'
I1
tp1986
a(S'no_np'
I1
tp1987
a(S'w'
I727
tp1988
a(S'w'
I19
tp1989
a(S'no_vo'
I0
tp1990
a(S'w'
I699
tp1991
a(S'p1_vo'
I1
tp1992
a(S'w'
I17
tp1993
a(S'p2_tl'
I188
tp1994
a(S'w'
I2197
tp1995
a(S'p2_tl'
I190
tp1996
a(S'w'
I723
tp1997
a(S'tr_lh'
I0
tp1998
a(S'tr_lr'
I0
tp1999
a(S'w'
I739
tp2000
a(S'p2_tl'
I192
tp2001
a(S'w'
I720
tp2002
a(S'p1_vo'
I0
tp2003
a(S'w'
I745
tp2004
a(S'p1_vo'
I5
tp2005
a(S'w'
I7
tp2006
a(S'p1_tl'
I254
tp2007
a(S'w'
I32
tp2008
a(S'tr_lh'
I1
tp2009
a(S'tr_lr'
I16
tp2010
a(S'w'
I5
tp2011
a(S'tr_ll'
I1
tp2012
a(S'tr_th'
I1
tp2013
a(S'w'
I3
tp2014
a(S'tr_tl'
I252
tp2015
a(S'w'
I12
tp2016
a(S'ch_no'
I1
tp2017
a(S'ch_tr'
I1
tp2018
a(S'ch_p2'
I1
tp2019
a(S'ch_p1'
I1
tp2020
a(S'ch_no'
I1
tp2021
a(S'ch_tr'
I1
tp2022
a(S'ch_p2'
I1
tp2023
a(S'ch_p1'
I1
tp2024
a(S'w'
I661
tp2025
a(S'p1_vo'
I4
tp2026
a(S'w'
I17
tp2027
a(S'p2_tl'
I190
tp2028
a(S'w'
I716
tp2029
a(S'p1_vo'
I3
tp2030
a(S'w'
I19
tp2031
a(S'w'
I714
tp2032
a(S'p1_vo'
I2
tp2033
a(S'w'
I16
tp2034
a(S'p2_tl'
I188
tp2035
a(S'w'
I1455
tp2036
a(S'p2_tl'
I190
tp2037
a(S'w'
I6
tp2038
a(S'p2_du'
I2
tp2039
a(S'p2_vo'
I1
tp2040
a(S'w'
I3670
tp2041
a(S'p2_vo'
I6
tp2042
a(S'w'
I7
tp2043
a(S'p2_tl'
I202
tp2044
a(S'w'
I713
tp2045
a(S'p2_du'
I0
tp2046
a(S'p2_vo'
I7
tp2047
a(S'w'
I734
tp2048
a(S'p2_vo'
I8
tp2049
a(S'w'
I732
tp2050
a(S'p2_vo'
I7
tp2051
a(S'w'
I732
tp2052
a(S'p2_vo'
I6
tp2053
a(S'w'
I733
tp2054
a(S'p2_vo'
I5
tp2055
a(S'w'
I732
tp2056
a(S'p2_vo'
I4
tp2057
a(S'w'
I733
tp2058
a(S'p2_vo'
I3
tp2059
a(S'w'
I1457
tp2060
a(S'p1_vo'
I1
tp2061
a(S'w'
I10
tp2062
a(S'p2_tl'
I190
tp2063
a(S'w'
I6
tp2064
a(S'p2_du'
I2
tp2065
a(S'p2_vo'
I1
tp2066
a(S'w'
I724
tp2067
a(S'w'
I25
tp2068
a(S'p2_vo'
I6
tp2069
a(S'w'
I6
tp2070
a(S'p2_tl'
I170
tp2071
a(S'w'
I700
tp2072
a(S'p1_tl'
I253
tp2073
a(S'w'
I12
tp2074
a(S'p2_du'
I0
tp2075
a(S'p2_vo'
I7
tp2076
a(S'w'
I3
tp2077
a(S'tr_lh'
I0
tp2078
a(S'tr_lr'
I0
tp2079
a(S'w'
I718
tp2080
a(S'p1_tl'
I252
tp2081
a(S'w'
I18
tp2082
a(S'p2_vo'
I8
tp2083
a(S'w'
I715
tp2084
a(S'p1_tl'
I251
tp2085
a(S'w'
I12
tp2086
a(S'p2_vo'
I7
tp2087
a(S'w'
I720
tp2088
a(S'p1_tl'
I250
tp2089
a(S'w'
I12
tp2090
a(S'p2_vo'
I6
tp2091
a(S'w'
I721
tp2092
a(S'p1_tl'
I249
tp2093
a(S'w'
I6
tp2094
a(S'p1_vo'
I0
tp2095
a(S'w'
I11
tp2096
a(S'p2_vo'
I5
tp2097
a(S'w'
I715
tp2098
a(S'p1_tl'
I250
tp2099
a(S'w'
I12
tp2100
a(S'p2_vo'
I4
tp2101
a(S'w'
I721
tp2102
a(S'p1_tl'
I251
tp2103
a(S'w'
I12
tp2104
a(S'p2_vo'
I3
tp2105
a(S'w'
I721
tp2106
a(S'p1_tl'
I252
tp2107
a(S'w'
I732
tp2108
a(S'p1_tl'
I253
tp2109
a(S'w'
I10
tp2110
a(S'p2_tl'
I190
tp2111
a(S'w'
I6
tp2112
a(S'p2_du'
I2
tp2113
a(S'p2_vo'
I1
tp2114
a(S'w'
I724
tp2115
a(S'p1_vo'
I5
tp2116
a(S'w'
I6
tp2117
a(S'p1_tl'
I254
tp2118
a(S'w'
I24
tp2119
a(S'p2_vo'
I6
tp2120
a(S'w'
I7
tp2121
a(S'p2_tl'
I160
tp2122
a(S'w'
I16
tp2123
a(S'tr_lh'
I1
tp2124
a(S'tr_lr'
I16
tp2125
a(S'w'
I4
tp2126
a(S'tr_ll'
I1
tp2127
a(S'w'
I3
tp2128
a(S'tr_tl'
I83
tp2129
a(S'w'
I23
tp2130
a(S'no_vo'
I8
tp2131
a(S'w'
I1
tp2132
a(S'no_ll'
I1
tp2133
a(S'w'
I1
tp2134
a(S'no_np'
I2
tp2135
a(S'w'
I636
tp2136
a(S'p1_vo'
I4
tp2137
a(S'w'
I10
tp2138
a(S'p2_du'
I0
tp2139
a(S'p2_vo'
I7
tp2140
a(S'w'
I16
tp2141
a(S'no_vo'
I1
tp2142
a(S'w'
I1
tp2143
a(S'no_ll'
I1
tp2144
a(S'w'
I1
tp2145
a(S'no_np'
I1
tp2146
a(S'w'
I704
tp2147
a(S'p1_vo'
I3
tp2148
a(S'w'
I12
tp2149
a(S'p2_vo'
I8
tp2150
a(S'w'
I17
tp2151
a(S'no_vo'
I0
tp2152
a(S'w'
I704
tp2153
a(S'p1_vo'
I2
tp2154
a(S'w'
I11
tp2155
a(S'p2_vo'
I7
tp2156
a(S'w'
I728
tp2157
a(S'p2_vo'
I6
tp2158
a(S'w'
I733
tp2159
a(S'p2_vo'
I5
tp2160
a(S'w'
I733
tp2161
a(S'p2_vo'
I4
tp2162
a(S'w'
I724
tp2163
a(S'p1_vo'
I1
tp2164
a(S'w'
I12
tp2165
a(S'p2_vo'
I3
tp2166
a(S'w'
I3
tp2167
a(S'tr_lh'
I0
tp2168
a(S'tr_lr'
I0
tp2169
a(S'w'
I1456
tp2170
a(S'p2_tl'
I202
tp2171
a(S'w'
I6
tp2172
a(S'p2_du'
I2
tp2173
a(S'p2_vo'
I1
tp2174
a(S'w'
I736
tp2175
a(S'p1_vo'
I5
tp2176
a(S'w'
I7
tp2177
a(S'p1_tl'
I170
tp2178
a(S'w'
I27
tp2179
a(S'p2_vo'
I6
tp2180
a(S'w'
I7
tp2181
a(S'p2_tl'
I143
tp2182
a(S'w'
I15
tp2183
a(S'tr_lh'
I1
tp2184
a(S'tr_lr'
I16
tp2185
a(S'w'
I5
tp2186
a(S'tr_ll'
I1
tp2187
a(S'tr_th'
I0
tp2188
a(S'w'
I3
tp2189
a(S'tr_tl'
I254
tp2190
a(S'w'
I22
tp2191
a(S'no_vo'
I12
tp2192
a(S'w'
I2
tp2193
a(S'no_ll'
I1
tp2194
a(S'no_np'
I14
tp2195
a(S'w'
I631
tp2196
a(S'p1_vo'
I4
tp2197
a(S'w'
I10
tp2198
a(S'p2_du'
I0
tp2199
a(S'p2_vo'
I7
tp2200
a(S'w'
I16
tp2201
a(S'no_vo'
I7
tp2202
a(S'w'
I1
tp2203
a(S'no_ll'
I1
tp2204
a(S'w'
I1
tp2205
a(S'no_np'
I6
tp2206
a(S'w'
I704
tp2207
a(S'p1_vo'
I3
tp2208
a(S'w'
I12
tp2209
a(S'p2_vo'
I8
tp2210
a(S'w'
I15
tp2211
a(S'no_vo'
I3
tp2212
a(S'w'
I2
tp2213
a(S'no_ll'
I1
tp2214
a(S'no_np'
I4
tp2215
a(S'w'
I704
tp2216
a(S'p1_vo'
I2
tp2217
a(S'w'
I11
tp2218
a(S'p2_vo'
I7
tp2219
a(S'w'
I15
tp2220
a(S'no_vo'
I4
tp2221
a(S'w'
I2
tp2222
a(S'no_ll'
I1
tp2223
a(S'no_np'
I3
tp2224
a(S'w'
I711
tp2225
a(S'p2_vo'
I6
tp2226
a(S'w'
I15
tp2227
a(S'no_vo'
I2
tp2228
a(S'w'
I2
tp2229
a(S'no_ll'
I1
tp2230
a(S'no_np'
I4
tp2231
a(S'w'
I716
tp2232
a(S'p2_vo'
I5
tp2233
a(S'w'
I15
tp2234
a(S'no_vo'
I1
tp2235
a(S'w'
I2
tp2236
a(S'no_ll'
I1
tp2237
a(S'no_np'
I3
tp2238
a(S'w'
I716
tp2239
a(S'p2_vo'
I4
tp2240
a(S'w'
I17
tp2241
a(S'no_ll'
I1
tp2242
a(S'no_np'
I2
tp2243
a(S'w'
I715
tp2244
a(S'p2_vo'
I3
tp2245
a(S'w'
I17
tp2246
a(S'no_vo'
I0
tp2247
a(S'w'
I715
tp2248
a(S'p2_tl'
I170
tp2249
a(S'w'
I6
tp2250
a(S'p2_du'
I2
tp2251
a(S'p2_vo'
I1
tp2252
a(S'w'
I719
tp2253
a(S'p1_vo'
I1
tp2254
a(S'w'
I745
tp2255
a(S'p1_vo'
I5
tp2256
a(S'w'
I6
tp2257
a(S'p1_tl'
I190
tp2258
a(S'w'
I25
tp2259
a(S'p2_vo'
I6
tp2260
a(S'w'
I6
tp2261
a(S'p2_tl'
I160
tp2262
a(S'w'
I685
tp2263
a(S'p1_vo'
I4
tp2264
a(S'w'
I10
tp2265
a(S'p2_du'
I0
tp2266
a(S'p2_vo'
I7
tp2267
a(S'w'
I722
tp2268
a(S'p1_vo'
I3
tp2269
a(S'w'
I12
tp2270
a(S'p2_vo'
I8
tp2271
a(S'w'
I721
tp2272
a(S'p1_vo'
I2
tp2273
a(S'w'
I11
tp2274
a(S'p2_vo'
I7
tp2275
a(S'w'
I728
tp2276
a(S'p2_vo'
I6
tp2277
a(S'w'
I3
tp2278
a(S'tr_lh'
I0
tp2279
a(S'tr_lr'
I0
tp2280
a(S'w'
I730
tp2281
a(S'p2_vo'
I5
tp2282
a(S'w'
I733
tp2283
a(S'p2_vo'
I4
tp2284
a(S'w'
I732
tp2285
a(S'p2_vo'
I3
tp2286
a(S'w'
I732
tp2287
a(S'w'
I6
tp2288
a(S'p2_du'
I2
tp2289
a(S'p2_vo'
I1
tp2290
a(S'w'
I719
tp2291
a(S'p1_vo'
I1
tp2292
a(S'w'
I745
tp2293
a(S'p1_vo'
I5
tp2294
a(S'w'
I7
tp2295
a(S'p1_tl'
I254
tp2296
a(S'w'
I24
tp2297
a(S'p2_vo'
I6
tp2298
a(S'w'
I7
tp2299
a(S'p2_tl'
I170
tp2300
a(S'w'
I15
tp2301
a(S'tr_lh'
I1
tp2302
a(S'tr_lr'
I16
tp2303
a(S'w'
I5
tp2304
a(S'tr_ll'
I1
tp2305
a(S'tr_th'
I1
tp2306
a(S'w'
I2
tp2307
a(S'tr_tl'
I83
tp2308
a(S'w'
I8
tp2309
a(S'ch_no'
I1
tp2310
a(S'ch_tr'
I1
tp2311
a(S'ch_p2'
I1
tp2312
a(S'ch_p1'
I1
tp2313
a(S'w'
I1
tp2314
a(S'ch_no'
I1
tp2315
a(S'ch_tr'
I1
tp2316
a(S'ch_p2'
I1
tp2317
a(S'ch_p1'
I1
tp2318
a(S'w'
I653
tp2319
a(S'p1_vo'
I4
tp2320
a(S'w'
I11
tp2321
a(S'p2_du'
I0
tp2322
a(S'p2_vo'
I7
tp2323
a(S'w'
I721
tp2324
a(S'p1_vo'
I3
tp2325
a(S'w'
I13
tp2326
a(S'p2_vo'
I8
tp2327
a(S'w'
I720
tp2328
a(S'p1_vo'
I2
tp2329
a(S'w'
I11
tp2330
a(S'p2_vo'
I7
tp2331
a(S'w'
I728
tp2332
a(S'p2_vo'
I6
tp2333
a(S'w'
I733
tp2334
a(S'p2_vo'
I5
tp2335
a(S'w'
I733
tp2336
a(S'p2_vo'
I4
tp2337
a(S'w'
I732
tp2338
a(S'p2_vo'
I3
tp2339
a(S'w'
I3
tp2340
a(S'tr_lh'
I0
tp2341
a(S'tr_lr'
I0
tp2342
a(S'w'
I729
tp2343
a(S'p2_tl'
I143
tp2344
a(S'w'
I6
tp2345
a(S'p2_du'
I2
tp2346
a(S'p2_vo'
I1
tp2347
a(S'w'
I719
tp2348
a(S'p1_vo'
I1
tp2349
a(S'w'
I744
tp2350
a(S'p1_vo'
I5
tp2351
a(S'w'
I6
tp2352
a(S'p1_ll'
I1
tp2353
a(S'p1_th'
I1
tp2354
a(S'w'
I3
tp2355
a(S'p1_tl'
I125
tp2356
a(S'w'
I25
tp2357
a(S'p2_vo'
I6
tp2358
a(S'w'
I6
tp2359
a(S'p2_tl'
I190
tp2360
a(S'w'
I15
tp2361
a(S'tr_lh'
I1
tp2362
a(S'tr_lr'
I16
tp2363
a(S'w'
I5
tp2364
a(S'tr_ll'
I1
tp2365
a(S'tr_th'
I0
tp2366
a(S'w'
I3
tp2367
a(S'tr_tl'
I254
tp2368
a(S'w'
I22
tp2369
a(S'no_vo'
I8
tp2370
a(S'w'
I2
tp2371
a(S'no_ll'
I1
tp2372
a(S'w'
I636
tp2373
a(S'p1_vo'
I4
tp2374
a(S'w'
I10
tp2375
a(S'p2_du'
I0
tp2376
a(S'p2_vo'
I7
tp2377
a(S'w'
I16
tp2378
a(S'no_vo'
I1
tp2379
a(S'w'
I1
tp2380
a(S'no_ll'
I1
tp2381
a(S'w'
I1
tp2382
a(S'no_np'
I1
tp2383
a(S'w'
I704
tp2384
a(S'p1_vo'
I3
tp2385
a(S'w'
I12
tp2386
a(S'p2_vo'
I8
tp2387
a(S'w'
I17
tp2388
a(S'no_vo'
I0
tp2389
a(S'w'
I704
tp2390
a(S'p1_vo'
I2
tp2391
a(S'w'
I11
tp2392
a(S'p2_vo'
I7
tp2393
a(S'w'
I728
tp2394
a(S'p2_vo'
I6
tp2395
a(S'w'
I733
tp2396
a(S'p2_vo'
I5
tp2397
a(S'w'
I733
tp2398
a(S'p2_vo'
I4
tp2399
a(S'w'
I732
tp2400
a(S'p2_vo'
I3
tp2401
a(S'w'
I3
tp2402
a(S'tr_lh'
I0
tp2403
a(S'tr_lr'
I0
tp2404
a(S'w'
I729
tp2405
a(S'p2_tl'
I160
tp2406
a(S'w'
I6
tp2407
a(S'p2_du'
I2
tp2408
a(S'p2_vo'
I1
tp2409
a(S'w'
I719
tp2410
a(S'p1_vo'
I1
tp2411
a(S'w'
I745
tp2412
a(S'p1_vo'
I5
tp2413
a(S'w'
I6
tp2414
a(S'p1_tl'
I148
tp2415
a(S'w'
I30
tp2416
a(S'p2_vo'
I6
tp2417
a(S'w'
I7
tp2418
a(S'p2_tl'
I170
tp2419
a(S'w'
I19
tp2420
a(S'tr_lh'
I1
tp2421
a(S'tr_lr'
I16
tp2422
a(S'w'
I5
tp2423
a(S'tr_ll'
I1
tp2424
a(S'tr_th'
I1
tp2425
a(S'w'
I3
tp2426
a(S'tr_tl'
I252
tp2427
a(S'w'
I12
tp2428
a(S'ch_no'
I1
tp2429
a(S'ch_tr'
I1
tp2430
a(S'ch_p2'
I1
tp2431
a(S'ch_p1'
I1
tp2432
a(S'w'
I1
tp2433
a(S'ch_no'
I1
tp2434
a(S'ch_tr'
I1
tp2435
a(S'ch_p2'
I1
tp2436
a(S'ch_p1'
I1
tp2437
a(S'w'
I639
tp2438
a(S'p1_vo'
I4
tp2439
a(S'w'
I20
tp2440
a(S'w'
I6
tp2441
a(S'p2_du'
I0
tp2442
a(S'p2_vo'
I7
tp2443
a(S'w'
I706
tp2444
a(S'p1_vo'
I3
tp2445
a(S'w'
I16
tp2446
a(S'p2_vo'
I8
tp2447
a(S'w'
I717
tp2448
a(S'p1_vo'
I2
tp2449
a(S'w'
I21
tp2450
a(S'w'
I6
tp2451
a(S'p2_vo'
I7
tp2452
a(S'w'
I720
tp2453
a(S'p2_tl'
I168
tp2454
a(S'w'
I6
tp2455
a(S'p2_vo'
I6
tp2456
a(S'w'
I721
tp2457
a(S'p2_vo'
I5
tp2458
a(S'w'
I732
tp2459
a(S'p2_tl'
I170
tp2460
a(S'w'
I6
tp2461
a(S'p2_du'
I2
tp2462
a(S'p2_vo'
I1
tp2463
a(S'w'
I726
tp2464
a(S'w'
I747
tp2465
a(S'p2_vo'
I6
tp2466
a(S'w'
I7
tp2467
a(S'p2_tl'
I190
tp2468
a(S'w'
I718
tp2469
a(S'w'
I6
tp2470
a(S'p2_du'
I0
tp2471
a(S'p2_vo'
I7
tp2472
a(S'w'
I724
tp2473
a(S'p2_vo'
I8
tp2474
a(S'w'
I738
tp2475
a(S'w'
I6
tp2476
a(S'p2_vo'
I7
tp2477
a(S'w'
I724
tp2478
a(S'p2_tl'
I188
tp2479
a(S'w'
I6
tp2480
a(S'p2_vo'
I6
tp2481
a(S'w'
I721
tp2482
a(S'p2_vo'
I5
tp2483
a(S'w'
I731
tp2484
a(S'p2_tl'
I190
tp2485
a(S'w'
I6
tp2486
a(S'p2_du'
I2
tp2487
a(S'p2_vo'
I1
tp2488
a(S'w'
I727
tp2489
a(S'w'
I748
tp2490
a(S'p2_vo'
I6
tp2491
a(S'w'
I7
tp2492
a(S'p2_tl'
I170
tp2493
a(S'w'
I701
tp2494
a(S'p1_vo'
I1
tp2495
a(S'w'
I12
tp2496
a(S'p2_du'
I0
tp2497
a(S'p2_vo'
I7
tp2498
a(S'w'
I730
tp2499
a(S'p2_vo'
I8
tp2500
a(S'w'
I731
tp2501
a(S'p2_vo'
I7
tp2502
a(S'w'
I737
tp2503
a(S'p1_vo'
I5
tp2504
a(S'w'
I6
tp2505
a(S'p1_ll'
I1
tp2506
a(S'p1_th'
I2
tp2507
a(S'w'
I2
tp2508
a(S'p1_tl'
I167
tp2509
a(S'w'
I13
tp2510
a(S'p2_vo'
I6
tp2511
a(S'w'
I701
tp2512
a(S'p1_vo'
I4
tp2513
a(S'w'
I12
tp2514
a(S'p2_vo'
I5
tp2515
a(S'w'
I3
tp2516
a(S'tr_lh'
I0
tp2517
a(S'tr_lr'
I0
tp2518
a(S'w'
I717
tp2519
a(S'p1_vo'
I3
tp2520
a(S'w'
I12
tp2521
a(S'p2_vo'
I4
tp2522
a(S'w'
I721
tp2523
a(S'p1_vo'
I2
tp2524
a(S'w'
I12
tp2525
a(S'p2_vo'
I3
tp2526
a(S'w'
I2932
tp2527
a(S'w'
I1451
tp2528
a(S'p1_vo'
I1
tp2529
a(S'w'
I19
tp2530
a(S'w'
I725
tp2531
a(S'p1_vo'
I3
tp2532
a(S'w'
I7
tp2533
a(S'w'
I18
tp2534
a(S'p2_tl'
I168
tp2535
a(S'w'
I16
tp2536
a(S'tr_lh'
I1
tp2537
a(S'tr_lr'
I16
tp2538
a(S'w'
I5
tp2539
a(S'tr_ll'
I1
tp2540
a(S'w'
I3
tp2541
a(S'tr_tl'
I83
tp2542
a(S'w'
I22
tp2543
a(S'no_vo'
I12
tp2544
a(S'w'
I2
tp2545
a(S'no_ll'
I1
tp2546
a(S'no_np'
I14
tp2547
a(S'w'
I649
tp2548
a(S'p1_vo'
I2
tp2549
a(S'w'
I23
tp2550
a(S'no_vo'
I7
tp2551
a(S'w'
I1
tp2552
a(S'no_ll'
I1
tp2553
a(S'w'
I1
tp2554
a(S'no_np'
I6
tp2555
a(S'w'
I707
tp2556
a(S'p1_vo'
I1
tp2557
a(S'w'
I23
tp2558
a(S'no_vo'
I3
tp2559
a(S'w'
I1
tp2560
a(S'no_ll'
I1
tp2561
a(S'w'
I1
tp2562
a(S'no_np'
I4
tp2563
a(S'w'
I724
tp2564
a(S'p2_tl'
I170
tp2565
a(S'w'
I18
tp2566
a(S'no_vo'
I4
tp2567
a(S'w'
I1
tp2568
a(S'no_ll'
I1
tp2569
a(S'w'
I1
tp2570
a(S'no_np'
I3
tp2571
a(S'w'
I716
tp2572
a(S'no_vo'
I2
tp2573
a(S'w'
I1
tp2574
a(S'no_ll'
I1
tp2575
a(S'w'
I1
tp2576
a(S'no_np'
I4
tp2577
a(S'w'
I724
tp2578
a(S'p2_tl'
I172
tp2579
a(S'w'
I17
tp2580
a(S'no_vo'
I1
tp2581
a(S'w'
I2
tp2582
a(S'no_ll'
I1
tp2583
a(S'no_np'
I3
tp2584
a(S'w'
I721
tp2585
a(S'no_ll'
I1
tp2586
a(S'w'
I1
tp2587
a(S'no_np'
I2
tp2588
a(S'w'
I718
tp2589
a(S'tr_lh'
I0
tp2590
a(S'tr_lr'
I0
tp2591
a(S'w'
I13
tp2592
a(S'no_vo'
I0
tp2593
a(S'w'
I727
tp2594
a(S'p2_tl'
I170
tp2595
a(S'w'
I737
tp2596
a(S'w'
I725
tp2597
a(S'p1_vo'
I6
tp2598
a(S'w'
I6
tp2599
a(S'p1_ll'
I1
tp2600
a(S'p1_th'
I1
tp2601
a(S'w'
I3
tp2602
a(S'p1_tl'
I252
tp2603
a(S'w'
I17
tp2604
a(S'p2_tl'
I168
tp2605
a(S'w'
I17
tp2606
a(S'tr_lh'
I1
tp2607
a(S'tr_lr'
I16
tp2608
a(S'w'
I5
tp2609
a(S'tr_ll'
I1
tp2610
a(S'tr_th'
I0
tp2611
a(S'w'
I2
tp2612
a(S'tr_tl'
I254
tp2613
a(S'w'
I23
tp2614
a(S'no_vo'
I12
tp2615
a(S'w'
I2
tp2616
a(S'no_ll'
I1
tp2617
a(S'no_np'
I14
tp2618
a(S'w'
I647
tp2619
a(S'p1_vo'
I5
tp2620
a(S'w'
I22
tp2621
a(S'no_vo'
I7
tp2622
a(S'w'
I2
tp2623
a(S'no_ll'
I1
tp2624
a(S'no_np'
I6
tp2625
a(S'w'
I708
tp2626
a(S'p1_vo'
I4
tp2627
a(S'w'
I22
tp2628
a(S'no_vo'
I3
tp2629
a(S'w'
I2
tp2630
a(S'no_ll'
I1
tp2631
a(S'no_np'
I4
tp2632
a(S'w'
I709
tp2633
a(S'p1_vo'
I3
tp2634
a(S'w'
I16
tp2635
a(S'p2_tl'
I170
tp2636
a(S'w'
I17
tp2637
a(S'no_vo'
I4
tp2638
a(S'w'
I2
tp2639
a(S'no_ll'
I1
tp2640
a(S'no_np'
I3
tp2641
a(S'w'
I716
tp2642
a(S'no_vo'
I2
tp2643
a(S'w'
I2
tp2644
a(S'no_ll'
I1
tp2645
a(S'no_np'
I4
tp2646
a(S'w'
I724
tp2647
a(S'p2_tl'
I172
tp2648
a(S'w'
I18
tp2649
a(S'no_vo'
I1
tp2650
a(S'w'
I1
tp2651
a(S'no_ll'
I1
tp2652
a(S'w'
I1
tp2653
a(S'no_np'
I3
tp2654
a(S'w'
I721
tp2655
a(S'no_ll'
I1
tp2656
a(S'no_np'
I2
tp2657
a(S'w'
I732
tp2658
a(S'no_vo'
I0
tp2659
a(S'w'
I725
tp2660
a(S'p2_tl'
I170
tp2661
a(S'w'
I720
tp2662
a(S'p1_vo'
I2
tp2663
a(S'w'
I12
tp2664
a(S'w'
I6
tp2665
a(S'p2_du'
I2
tp2666
a(S'p2_vo'
I1
tp2667
a(S'w'
I726
tp2668
a(S'p1_vo'
I3
tp2669
a(S'w'
I7
tp2670
a(S'w'
I32
tp2671
a(S'no_vo'
I8
tp2672
a(S'w'
I1
tp2673
a(S'no_ll'
I1
tp2674
a(S'w'
I1
tp2675
a(S'w'
I681
tp2676
a(S'p1_vo'
I2
tp2677
a(S'w'
I20
tp2678
a(S'no_vo'
I1
tp2679
a(S'w'
I2
tp2680
a(S'no_ll'
I1
tp2681
a(S'no_np'
I1
tp2682
a(S'w'
I710
tp2683
a(S'p1_vo'
I1
tp2684
a(S'w'
I22
tp2685
a(S'no_vo'
I0
tp2686
a(S'w'
I1449
tp2687
a(S'tr_lh'
I0
tp2688
a(S'tr_lr'
I0
tp2689
a(S'w'
I4402
tp2690
a(S'p1_vo'
I6
tp2691
a(S'w'
I7
tp2692
a(S'p1_tl'
I83
tp2693
a(S'w'
I31
tp2694
a(S'p2_du'
I0
tp2695
a(S'p2_vo'
I6
tp2696
a(S'w'
I7
tp2697
a(S'w'
I15
tp2698
a(S'tr_lh'
I1
tp2699
a(S'tr_lr'
I16
tp2700
a(S'w'
I4
tp2701
a(S'tr_ll'
I1
tp2702
a(S'tr_th'
I1
tp2703
a(S'w'
I3
tp2704
a(S'tr_tl'
I83
tp2705
a(S'w'
I23
tp2706
a(S'no_vo'
I12
tp2707
a(S'w'
I1
tp2708
a(S'no_ll'
I1
tp2709
a(S'w'
I1
tp2710
a(S'no_np'
I14
tp2711
a(S'w'
I629
tp2712
a(S'p1_vo'
I5
tp2713
a(S'w'
I10
tp2714
a(S'p2_vo'
I7
tp2715
a(S'w'
I15
tp2716
a(S'no_vo'
I7
tp2717
a(S'w'
I2
tp2718
a(S'no_ll'
I1
tp2719
a(S'no_np'
I6
tp2720
a(S'w'
I705
tp2721
a(S'p1_vo'
I4
tp2722
a(S'w'
I11
tp2723
a(S'p2_vo'
I8
tp2724
a(S'w'
I16
tp2725
a(S'no_vo'
I3
tp2726
a(S'w'
I1
tp2727
a(S'no_ll'
I1
tp2728
a(S'no_np'
I4
tp2729
a(S'w'
I705
tp2730
a(S'p1_vo'
I3
tp2731
a(S'w'
I10
tp2732
a(S'p2_vo'
I7
tp2733
a(S'w'
I15
tp2734
a(S'no_vo'
I4
tp2735
a(S'w'
I2
tp2736
a(S'no_ll'
I1
tp2737
a(S'no_np'
I3
tp2738
a(S'w'
I712
tp2739
a(S'p2_vo'
I6
tp2740
a(S'w'
I15
tp2741
a(S'no_vo'
I2
tp2742
a(S'w'
I2
tp2743
a(S'no_ll'
I1
tp2744
a(S'no_np'
I4
tp2745
a(S'w'
I715
tp2746
a(S'p2_vo'
I5
tp2747
a(S'w'
I15
tp2748
a(S'no_vo'
I1
tp2749
a(S'w'
I2
tp2750
a(S'no_ll'
I1
tp2751
a(S'no_np'
I3
tp2752
a(S'w'
I716
tp2753
a(S'p2_vo'
I4
tp2754
a(S'w'
I17
tp2755
a(S'no_ll'
I1
tp2756
a(S'no_np'
I2
tp2757
a(S'w'
I715
tp2758
a(S'p2_vo'
I3
tp2759
a(S'w'
I4
tp2760
a(S'tr_lh'
I0
tp2761
a(S'tr_lr'
I0
tp2762
a(S'w'
I13
tp2763
a(S'no_vo'
I0
tp2764
a(S'w'
I716
tp2765
a(S'p2_vo'
I2
tp2766
a(S'w'
I726
tp2767
a(S'p1_vo'
I2
tp2768
a(S'w'
I745
tp2769
a(S'p1_vo'
I3
tp2770
a(S'w'
I6
tp2771
a(S'w'
I23
tp2772
a(S'p2_vo'
I6
tp2773
a(S'w'
I6
tp2774
a(S'p2_tl'
I160
tp2775
a(S'w'
I15
tp2776
a(S'tr_lh'
I1
tp2777
a(S'tr_lr'
I16
tp2778
a(S'w'
I5
tp2779
a(S'tr_ll'
I1
tp2780
a(S'tr_th'
I0
tp2781
a(S'w'
I3
tp2782
a(S'tr_tl'
I254
tp2783
a(S'w'
I22
tp2784
a(S'no_vo'
I12
tp2785
a(S'w'
I2
tp2786
a(S'no_ll'
I1
tp2787
a(S'no_np'
I14
tp2788
a(S'w'
I639
tp2789
a(S'p1_vo'
I2
tp2790
a(S'w'
I10
tp2791
a(S'p2_vo'
I7
tp2792
a(S'w'
I15
tp2793
a(S'no_vo'
I7
tp2794
a(S'w'
I2
tp2795
a(S'no_ll'
I1
tp2796
a(S'no_np'
I6
tp2797
a(S'w'
I705
tp2798
a(S'p1_vo'
I1
tp2799
a(S'w'
I11
tp2800
a(S'p2_vo'
I8
tp2801
a(S'w'
I16
tp2802
a(S'no_vo'
I3
tp2803
a(S'w'
I1
tp2804
a(S'no_ll'
I1
tp2805
a(S'no_np'
I4
tp2806
a(S'w'
I715
tp2807
a(S'p2_vo'
I7
tp2808
a(S'w'
I15
tp2809
a(S'no_vo'
I4
tp2810
a(S'w'
I2
tp2811
a(S'no_ll'
I1
tp2812
a(S'no_np'
I3
tp2813
a(S'w'
I712
tp2814
a(S'p2_vo'
I6
tp2815
a(S'w'
I15
tp2816
a(S'no_vo'
I2
tp2817
a(S'w'
I2
tp2818
a(S'no_ll'
I1
tp2819
a(S'no_np'
I4
tp2820
a(S'w'
I715
tp2821
a(S'p2_vo'
I5
tp2822
a(S'w'
I15
tp2823
a(S'no_vo'
I1
tp2824
a(S'w'
I2
tp2825
a(S'no_ll'
I1
tp2826
a(S'no_np'
I3
tp2827
a(S'w'
I716
tp2828
a(S'p2_vo'
I4
tp2829
a(S'w'
I17
tp2830
a(S'no_ll'
I1
tp2831
a(S'no_np'
I2
tp2832
a(S'w'
I715
tp2833
a(S'p2_vo'
I3
tp2834
a(S'w'
I4
tp2835
a(S'tr_lh'
I0
tp2836
a(S'tr_lr'
I0
tp2837
a(S'w'
I13
tp2838
a(S'no_vo'
I0
tp2839
a(S'w'
I716
tp2840
a(S'p2_vo'
I2
tp2841
a(S'w'
I1502
tp2842
a(S'p1_ll'
I1
tp2843
a(S'p1_th'
I0
tp2844
a(S'w'
I2
tp2845
a(S'p1_tl'
I126
tp2846
a(S'w'
I46
tp2847
a(S'p2_vo'
I8
tp2848
a(S'w'
I7
tp2849
a.