(lp1
(S'clock'
p2
I1789773
tp3
a(S'fc_mo'
I1
tp4
a(S'w'
I19
tp5
a(S'p1_sp'
I7
tp6
a(S'p1_sn'
I1
tp7
a(S'p1_ss'
I7
tp8
a(S'w'
I3
tp9
a(S'p1_du'
I2
tp10
a(S'p1_lh'
I1
tp11
a(S'p1_cv'
I1
tp12
a(S'p1_vo'
I12
tp13
a(S'w'
I5
tp14
a(S'p1_ll'
I1
tp15
a(S'p1_th'
I1
tp16
a(S'w'
I3
tp17
a(S'p1_tl'
I224
tp18
a(S'w'
I10
tp19
a(S'p2_sp'
I7
tp20
a(S'p2_sn'
I1
tp21
a(S'p2_ss'
I7
tp22
a(S'w'
I4
tp23
a(S'p2_du'
I2
tp24
a(S'p2_lh'
I1
tp25
a(S'p2_cv'
I1
tp26
a(S'p2_vo'
I9
tp27
a(S'w'
I5
tp28
a(S'p2_ll'
I1
tp29
a(S'p2_th'
I2
tp30
a(S'w'
I3
tp31
a(S'p2_tl'
I129
tp32
a(S'w'
I1436
tp33
a(S'p1_vo'
I10
tp34
a(S'w'
I6
tp35
a(S'w'
I11
tp36
a(S'p2_vo'
I7
tp37
a(S'w'
I6
tp38
a(S'w'
I1445
tp39
a(S'p1_vo'
I12
tp40
a(S'w'
I6
tp41
a(S'p1_tl'
I172
tp42
a(S'w'
I11
tp43
a(S'p2_vo'
I9
tp44
a(S'w'
I6
tp45
a(S'p2_tl'
I58
tp46
a(S'w'
I1444
tp47
a(S'p1_vo'
I10
tp48
a(S'w'
I6
tp49
a(S'w'
I11
tp50
a(S'p2_vo'
I7
tp51
a(S'w'
I6
tp52
a(S'w'
I1445
tp53
a(S'p1_vo'
I12
tp54
a(S'w'
I6
tp55
a(S'p1_tl'
I125
tp56
a(S'w'
I11
tp57
a(S'p2_vo'
I9
tp58
a(S'w'
I5
tp59
a(S'p2_ll'
I1
tp60
a(S'p2_th'
I1
tp61
a(S'w'
I3
tp62
a(S'p2_tl'
I224
tp63
a(S'w'
I1442
tp64
a(S'p1_vo'
I10
tp65
a(S'w'
I6
tp66
a(S'w'
I11
tp67
a(S'p2_vo'
I7
tp68
a(S'w'
I6
tp69
a(S'w'
I1445
tp70
a(S'p1_vo'
I12
tp71
a(S'w'
I6
tp72
a(S'p1_tl'
I64
tp73
a(S'w'
I11
tp74
a(S'p2_vo'
I9
tp75
a(S'w'
I6
tp76
a(S'p2_tl'
I125
tp77
a(S'w'
I1445
tp78
a(S'p1_vo'
I10
tp79
a(S'w'
I6
tp80
a(S'w'
I11
tp81
a(S'p2_vo'
I7
tp82
a(S'w'
I6
tp83
a(S'w'
I1444
tp84
a(S'p1_vo'
I12
tp85
a(S'w'
I5
tp86
a(S'p1_ll'
I1
tp87
a(S'p1_th'
I0
tp88
a(S'w'
I3
tp89
a(S'p1_tl'
I240
tp90
a(S'w'
I11
tp91
a(S'p2_vo'
I9
tp92
a(S'w'
I6
tp93
a(S'p2_tl'
I64
tp94
a(S'w'
I1443
tp95
a(S'p1_vo'
I10
tp96
a(S'w'
I6
tp97
a(S'w'
I11
tp98
a(S'p2_vo'
I7
tp99
a(S'w'
I6
tp100
a(S'w'
I1444
tp101
a(S'p1_vo'
I12
tp102
a(S'w'
I5
tp103
a(S'p1_ll'
I1
tp104
a(S'p1_th'
I1
tp105
a(S'w'
I3
tp106
a(S'p1_tl'
I64
tp107
a(S'w'
I11
tp108
a(S'p2_vo'
I9
tp109
a(S'w'
I6
tp110
a(S'p2_tl'
I125
tp111
a(S'w'
I1443
tp112
a(S'p1_vo'
I10
tp113
a(S'w'
I6
tp114
a(S'w'
I11
tp115
a(S'p2_vo'
I7
tp116
a(S'w'
I6
tp117
a(S'w'
I1445
tp118
a(S'p1_vo'
I12
tp119
a(S'w'
I5
tp120
a(S'p1_ll'
I1
tp121
a(S'p1_th'
I0
tp122
a(S'w'
I3
tp123
a(S'p1_tl'
I240
tp124
a(S'w'
I11
tp125
a(S'p2_vo'
I9
tp126
a(S'w'
I6
tp127
a(S'p2_tl'
I64
tp128
a(S'w'
I1442
tp129
a(S'p1_vo'
I10
tp130
a(S'w'
I6
tp131
a(S'w'
I11
tp132
a(S'p2_vo'
I7
tp133
a(S'w'
I6
tp134
a(S'w'
I1445
tp135
a(S'p1_vo'
I12
tp136
a(S'w'
I6
tp137
a(S'p1_tl'
I214
tp138
a(S'w'
I11
tp139
a(S'p2_vo'
I9
tp140
a(S'w'
I6
tp141
a(S'p2_tl'
I29
tp142
a(S'w'
I1444
tp143
a(S'p1_vo'
I10
tp144
a(S'w'
I6
tp145
a(S'w'
I11
tp146
a(S'p2_vo'
I7
tp147
a(S'w'
I6
tp148
a(S'w'
I1445
tp149
a(S'p1_vo'
I12
tp150
a(S'w'
I6
tp151
a(S'p1_tl'
I190
tp152
a(S'w'
I11
tp153
a(S'p2_vo'
I9
tp154
a(S'w'
I5
tp155
a(S'p2_ll'
I1
tp156
a(S'p2_th'
I0
tp157
a(S'w'
I3
tp158
a(S'p2_tl'
I240
tp159
a(S'w'
I1442
tp160
a(S'p1_vo'
I10
tp161
a(S'w'
I6
tp162
a(S'w'
I11
tp163
a(S'p2_vo'
I7
tp164
a(S'w'
I6
tp165
a(S'w'
I1445
tp166
a(S'p1_vo'
I12
tp167
a(S'w'
I6
tp168
a(S'p1_tl'
I214
tp169
a(S'w'
I11
tp170
a(S'p2_vo'
I9
tp171
a(S'w'
I5
tp172
a(S'p2_ll'
I1
tp173
a(S'p2_th'
I1
tp174
a(S'w'
I3
tp175
a(S'p2_tl'
I29
tp176
a(S'w'
I1443
tp177
a(S'p1_vo'
I10
tp178
a(S'w'
I6
tp179
a(S'w'
I11
tp180
a(S'p2_vo'
I7
tp181
a(S'w'
I6
tp182
a(S'w'
I1444
tp183
a(S'p1_vo'
I12
tp184
a(S'w'
I6
tp185
a(S'p1_tl'
I190
tp186
a(S'w'
I11
tp187
a(S'p2_vo'
I9
tp188
a(S'w'
I5
tp189
a(S'p2_ll'
I1
tp190
a(S'p2_th'
I0
tp191
a(S'w'
I3
tp192
a(S'p2_tl'
I240
tp193
a(S'w'
I1443
tp194
a(S'p1_vo'
I10
tp195
a(S'w'
I6
tp196
a(S'w'
I11
tp197
a(S'p2_vo'
I7
tp198
a(S'w'
I6
tp199
a(S'w'
I1444
tp200
a(S'p1_vo'
I12
tp201
a(S'w'
I6
tp202
a(S'p1_tl'
I160
tp203
a(S'w'
I11
tp204
a(S'p2_vo'
I9
tp205
a(S'w'
I6
tp206
a(S'p2_tl'
I190
tp207
a(S'w'
I1445
tp208
a(S'p1_vo'
I10
tp209
a(S'w'
I6
tp210
a(S'w'
I11
tp211
a(S'p2_vo'
I7
tp212
a(S'w'
I6
tp213
a(S'w'
I1445
tp214
a(S'p1_vo'
I12
tp215
a(S'w'
I6
tp216
a(S'p1_tl'
I119
tp217
a(S'w'
I11
tp218
a(S'p2_vo'
I9
tp219
a(S'w'
I6
tp220
a(S'p2_tl'
I160
tp221
a(S'w'
I1444
tp222
a(S'p1_vo'
I10
tp223
a(S'w'
I6
tp224
a(S'w'
I11
tp225
a(S'p2_vo'
I7
tp226
a(S'w'
I6
tp227
a(S'w'
I1448
tp228
a(S'p1_vo'
I7
tp229
a(S'w'
I6
tp230
a(S'p1_tl'
I190
tp231
a(S'w'
I14
tp232
a(S'p2_vo'
I5
tp233
a(S'w'
I5
tp234
a(S'p2_tl'
I240
tp235
a(S'w'
I2913
tp236
a(S'p1_tl'
I160
tp237
a(S'w'
I17
tp238
a(S'p2_tl'
I190
tp239
a(S'w'
I2918
tp240
a(S'p1_tl'
I119
tp241
a(S'w'
I17
tp242
a(S'p2_tl'
I160
tp243
a(S'w'
I2912
tp244
a(S'p1_vo'
I5
tp245
a(S'w'
I6
tp246
a(S'p1_tl'
I190
tp247
a(S'w'
I11
tp248
a(S'p2_vo'
I3
tp249
a(S'w'
I6
tp250
a(S'p2_tl'
I240
tp251
a(S'w'
I2918
tp252
a(S'p1_tl'
I160
tp253
a(S'w'
I17
tp254
a(S'p2_tl'
I190
tp255
a(S'w'
I2919
tp256
a(S'p1_tl'
I119
tp257
a(S'w'
I17
tp258
a(S'p2_tl'
I160
tp259
a(S'w'
I2912
tp260
a(S'p1_vo'
I3
tp261
a(S'w'
I6
tp262
a(S'p1_tl'
I190
tp263
a(S'w'
I11
tp264
a(S'p2_vo'
I2
tp265
a(S'w'
I6
tp266
a(S'p2_tl'
I240
tp267
a(S'w'
I2918
tp268
a(S'p1_tl'
I160
tp269
a(S'w'
I17
tp270
a(S'p2_tl'
I190
tp271
a(S'w'
I2918
tp272
a(S'p1_tl'
I119
tp273
a(S'w'
I17
tp274
a(S'p2_tl'
I160
tp275
a(S'w'
I2912
tp276
a(S'p1_vo'
I1
tp277
a(S'w'
I6
tp278
a(S'p1_tl'
I190
tp279
a(S'w'
I11
tp280
a(S'p2_vo'
I1
tp281
a(S'w'
I6
tp282
a(S'p2_tl'
I240
tp283
a(S'w'
I2918
tp284
a(S'p1_tl'
I160
tp285
a(S'w'
I17
tp286
a(S'p2_tl'
I190
tp287
a(S'w'
I2919
tp288
a(S'p1_tl'
I119
tp289
a(S'w'
I17
tp290
a(S'p2_tl'
I160
tp291
a(S'w'
I2910
tp292
a(S'p1_du'
I0
tp293
a(S'p1_vo'
I0
tp294
a(S'w'
I9
tp295
a(S'p2_du'
I0
tp296
a(S'p2_vo'
I0
tp297
a(S'w'
I72001
tp298
a.