(lp1
(S'clock'
p2
I1789773
tp3
a(S'fc_mo'
I1
tp4
a(S'p1_sp'
I7
tp5
a(S'p1_sn'
I1
tp6
a(S'p1_ss'
I7
tp7
a(S'p2_sp'
I7
tp8
a(S'p2_sn'
I1
tp9
a(S'p2_ss'
I7
tp10
a(S'w'
I35
tp11
a(S'p1_du'
I2
tp12
a(S'p1_lh'
I1
tp13
a(S'p1_cv'
I1
tp14
a(S'p1_vo'
I2
tp15
a(S'w'
I5
tp16
a(S'p1_ll'
I1
tp17
a(S'p1_th'
I1
tp18
a(S'w'
I3
tp19
a(S'p1_tl'
I251
tp20
a(S'w'
I48
tp21
a(S'p2_du'
I2
tp22
a(S'p2_lh'
I1
tp23
a(S'p2_cv'
I1
tp24
a(S'p2_vo'
I4
tp25
a(S'w'
I5
tp26
a(S'p2_ll'
I1
tp27
a(S'p2_th'
I1
tp28
a(S'w'
I3
tp29
a(S'p2_tl'
I252
tp30
a(S'w'
I8
tp31
a(S'ch_no'
I1
tp32
a(S'ch_tr'
I0
tp33
a(S'ch_p2'
I1
tp34
a(S'ch_p1'
I1
tp35
a(S'ch_no'
I1
tp36
a(S'ch_tr'
I1
tp37
a(S'ch_p2'
I1
tp38
a(S'ch_p1'
I1
tp39
a(S'w'
I643
tp40
a(S'p1_vo'
I1
tp41
a(S'w'
I13
tp42
a(S'p2_vo'
I5
tp43
a(S'w'
I729
tp44
a(S'p2_vo'
I4
tp45
a(S'w'
I734
tp46
a(S'p2_vo'
I3
tp47
a(S'w'
I736
tp48
a(S'p2_vo'
I2
tp49
a(S'w'
I730
tp50
a(S'w'
I6
tp51
a(S'p2_vo'
I1
tp52
a(S'w'
I2189
tp53
a(S'p1_vo'
I0
tp54
a(S'w'
I24
tp55
a(S'p2_vo'
I4
tp56
a(S'w'
I6
tp57
a(S'p2_tl'
I148
tp58
a(S'w'
I712
tp59
a(S'p2_vo'
I5
tp60
a(S'w'
I732
tp61
a(S'p2_vo'
I4
tp62
a(S'w'
I734
tp63
a(S'p2_vo'
I3
tp64
a(S'w'
I750
tp65
a(S'p1_vo'
I2
tp66
a(S'w'
I6
tp67
a(S'w'
I15
tp68
a(S'p2_vo'
I2
tp69
a(S'w'
I691
tp70
a(S'p1_vo'
I1
tp71
a(S'w'
I10
tp72
a(S'w'
I7
tp73
a(S'p2_vo'
I1
tp74
a(S'w'
I2203
tp75
a(S'p2_vo'
I4
tp76
a(S'w'
I5
tp77
a(S'p2_ll'
I1
tp78
a(S'p2_th'
I0
tp79
a(S'w'
I3
tp80
a(S'p2_tl'
I226
tp81
a(S'w'
I706
tp82
a(S'p1_vo'
I0
tp83
a(S'w'
I13
tp84
a(S'p2_vo'
I5
tp85
a(S'w'
I728
tp86
a(S'p2_vo'
I4
tp87
a(S'w'
I734
tp88
a(S'p2_vo'
I3
tp89
a(S'w'
I738
tp90
a(S'p1_vo'
I2
tp91
a(S'w'
I6
tp92
a(S'p1_tl'
I147
tp93
a(S'w'
I14
tp94
a(S'p2_vo'
I2
tp95
a(S'w'
I703
tp96
a(S'p1_vo'
I1
tp97
a(S'w'
I10
tp98
a(S'w'
I7
tp99
a(S'p2_vo'
I1
tp100
a(S'w'
I2204
tp101
a(S'p2_vo'
I4
tp102
a(S'w'
I6
tp103
a(S'p2_tl'
I254
tp104
a(S'w'
I707
tp105
a(S'p1_vo'
I0
tp106
a(S'w'
I13
tp107
a(S'p2_vo'
I5
tp108
a(S'w'
I728
tp109
a(S'p2_vo'
I4
tp110
a(S'w'
I734
tp111
a(S'p2_vo'
I3
tp112
a(S'w'
I738
tp113
a(S'p1_vo'
I2
tp114
a(S'w'
I6
tp115
a(S'p1_ll'
I1
tp116
a(S'p1_th'
I0
tp117
a(S'w'
I3
tp118
a(S'p1_tl'
I225
tp119
a(S'w'
I14
tp120
a(S'p2_vo'
I2
tp121
a(S'w'
I700
tp122
a(S'p1_vo'
I1
tp123
a(S'w'
I10
tp124
a(S'w'
I7
tp125
a(S'p2_vo'
I1
tp126
a(S'w'
I2205
tp127
a(S'p2_vo'
I4
tp128
a(S'w'
I6
tp129
a(S'p2_tl'
I202
tp130
a(S'w'
I707
tp131
a(S'p1_vo'
I0
tp132
a(S'w'
I13
tp133
a(S'p2_vo'
I5
tp134
a(S'w'
I727
tp135
a(S'p2_vo'
I4
tp136
a(S'w'
I734
tp137
a(S'p2_vo'
I3
tp138
a(S'w'
I738
tp139
a(S'p1_vo'
I2
tp140
a(S'w'
I7
tp141
a(S'p1_tl'
I253
tp142
a(S'w'
I14
tp143
a(S'p2_vo'
I2
tp144
a(S'w'
I703
tp145
a(S'p1_vo'
I1
tp146
a(S'w'
I10
tp147
a(S'w'
I7
tp148
a(S'p2_vo'
I1
tp149
a(S'w'
I2203
tp150
a(S'p2_vo'
I4
tp151
a(S'w'
I6
tp152
a(S'p2_tl'
I160
tp153
a(S'w'
I708
tp154
a(S'p1_vo'
I0
tp155
a(S'w'
I13
tp156
a(S'p2_vo'
I5
tp157
a(S'w'
I728
tp158
a(S'p2_vo'
I4
tp159
a(S'w'
I734
tp160
a(S'p2_vo'
I3
tp161
a(S'w'
I738
tp162
a(S'p1_vo'
I2
tp163
a(S'w'
I6
tp164
a(S'p1_tl'
I201
tp165
a(S'w'
I15
tp166
a(S'p2_vo'
I2
tp167
a(S'w'
I702
tp168
a(S'p1_vo'
I1
tp169
a(S'w'
I10
tp170
a(S'w'
I7
tp171
a(S'p2_vo'
I1
tp172
a(S'w'
I2204
tp173
a(S'p2_vo'
I4
tp174
a(S'w'
I6
tp175
a(S'p2_tl'
I113
tp176
a(S'w'
I707
tp177
a(S'p1_vo'
I0
tp178
a(S'w'
I13
tp179
a(S'p2_vo'
I5
tp180
a(S'w'
I728
tp181
a(S'p2_vo'
I4
tp182
a(S'w'
I734
tp183
a(S'p2_vo'
I3
tp184
a(S'w'
I739
tp185
a(S'p1_vo'
I2
tp186
a(S'w'
I6
tp187
a(S'p1_tl'
I159
tp188
a(S'w'
I14
tp189
a(S'p2_vo'
I2
tp190
a(S'w'
I702
tp191
a(S'p1_vo'
I1
tp192
a(S'w'
I10
tp193
a(S'w'
I7
tp194
a(S'p2_vo'
I1
tp195
a(S'w'
I2204
tp196
a(S'p2_vo'
I4
tp197
a(S'w'
I6
tp198
a(S'p2_tl'
I127
tp199
a(S'w'
I708
tp200
a(S'p1_vo'
I0
tp201
a(S'w'
I13
tp202
a(S'p2_vo'
I5
tp203
a(S'w'
I727
tp204
a(S'p2_vo'
I4
tp205
a(S'w'
I734
tp206
a(S'p2_vo'
I3
tp207
a(S'w'
I739
tp208
a(S'p1_vo'
I2
tp209
a(S'w'
I6
tp210
a(S'p1_tl'
I112
tp211
a(S'w'
I14
tp212
a(S'p2_vo'
I2
tp213
a(S'w'
I703
tp214
a(S'p1_vo'
I1
tp215
a(S'w'
I10
tp216
a(S'w'
I7
tp217
a(S'p2_vo'
I1
tp218
a(S'w'
I2204
tp219
a(S'p2_vo'
I4
tp220
a(S'w'
I6
tp221
a(S'p2_tl'
I101
tp222
a(S'w'
I707
tp223
a(S'p1_vo'
I0
tp224
a(S'w'
I13
tp225
a(S'p2_vo'
I5
tp226
a(S'w'
I728
tp227
a(S'p2_vo'
I4
tp228
a(S'w'
I734
tp229
a(S'p2_vo'
I3
tp230
a(S'w'
I738
tp231
a(S'p1_vo'
I2
tp232
a(S'w'
I6
tp233
a(S'p1_tl'
I126
tp234
a(S'w'
I14
tp235
a(S'p2_vo'
I2
tp236
a(S'w'
I703
tp237
a(S'p1_vo'
I1
tp238
a(S'w'
I10
tp239
a(S'w'
I7
tp240
a(S'p2_vo'
I1
tp241
a(S'w'
I2212
tp242
a(S'p2_tl'
I127
tp243
a(S'w'
I705
tp244
a(S'p1_vo'
I0
tp245
a(S'w'
I13
tp246
a(S'p2_vo'
I2
tp247
a(S'w'
I728
tp248
a(S'p2_vo'
I1
tp249
a(S'w'
I1474
tp250
a(S'p1_vo'
I2
tp251
a(S'w'
I6
tp252
a(S'p1_tl'
I100
tp253
a(S'w'
I715
tp254
a(S'p1_vo'
I1
tp255
a(S'w'
I10
tp256
a(S'w'
I2213
tp257
a(S'p2_vo'
I4
tp258
a(S'w'
I6
tp259
a(S'p2_tl'
I160
tp260
a(S'w'
I706
tp261
a(S'p1_vo'
I0
tp262
a(S'w'
I13
tp263
a(S'p2_vo'
I5
tp264
a(S'w'
I727
tp265
a(S'p2_vo'
I4
tp266
a(S'w'
I734
tp267
a(S'p2_vo'
I3
tp268
a(S'w'
I741
tp269
a(S'p1_vo'
I1
tp270
a(S'w'
I6
tp271
a(S'p1_tl'
I126
tp272
a(S'w'
I14
tp273
a(S'p2_vo'
I2
tp274
a(S'w'
I711
tp275
a(S'w'
I7
tp276
a(S'p2_vo'
I1
tp277
a(S'w'
I2210
tp278
a(S'p2_ll'
I1
tp279
a(S'p2_th'
I1
tp280
a(S'w'
I3
tp281
a(S'p2_tl'
I64
tp282
a(S'w'
I705
tp283
a(S'p1_vo'
I0
tp284
a(S'w'
I13
tp285
a(S'p2_vo'
I2
tp286
a(S'w'
I727
tp287
a(S'p2_vo'
I1
tp288
a(S'w'
I1474
tp289
a(S'p1_vo'
I2
tp290
a(S'w'
I6
tp291
a(S'p1_tl'
I159
tp292
a(S'w'
I715
tp293
a(S'p1_vo'
I1
tp294
a(S'w'
I10
tp295
a(S'w'
I2213
tp296
a(S'p2_vo'
I4
tp297
a(S'w'
I5
tp298
a(S'p2_ll'
I1
tp299
a(S'p2_th'
I0
tp300
a(S'w'
I3
tp301
a(S'p2_tl'
I202
tp302
a(S'w'
I703
tp303
a(S'p1_vo'
I0
tp304
a(S'w'
I13
tp305
a(S'p2_vo'
I5
tp306
a(S'w'
I728
tp307
a(S'p2_vo'
I4
tp308
a(S'w'
I734
tp309
a(S'p2_vo'
I3
tp310
a(S'w'
I740
tp311
a(S'p1_vo'
I1
tp312
a(S'w'
I6
tp313
a(S'p1_ll'
I1
tp314
a(S'p1_th'
I1
tp315
a(S'w'
I3
tp316
a(S'p1_tl'
I63
tp317
a(S'w'
I14
tp318
a(S'p2_vo'
I2
tp319
a(S'w'
I708
tp320
a(S'w'
I7
tp321
a(S'p2_vo'
I1
tp322
a(S'w'
I2204
tp323
a(S'p2_vo'
I4
tp324
a(S'w'
I6
tp325
a(S'p2_tl'
I190
tp326
a(S'w'
I709
tp327
a(S'p1_vo'
I0
tp328
a(S'w'
I13
tp329
a(S'p2_vo'
I5
tp330
a(S'w'
I726
tp331
a(S'p2_vo'
I4
tp332
a(S'w'
I734
tp333
a(S'p2_vo'
I3
tp334
a(S'w'
I741
tp335
a(S'p1_vo'
I2
tp336
a(S'w'
I5
tp337
a(S'p1_ll'
I1
tp338
a(S'p1_th'
I0
tp339
a(S'w'
I3
tp340
a(S'p1_tl'
I201
tp341
a(S'w'
I14
tp342
a(S'p2_vo'
I2
tp343
a(S'w'
I699
tp344
a(S'p1_vo'
I1
tp345
a(S'w'
I10
tp346
a(S'w'
I7
tp347
a(S'p2_vo'
I1
tp348
a(S'w'
I2203
tp349
a(S'p2_vo'
I4
tp350
a(S'w'
I6
tp351
a(S'p2_tl'
I202
tp352
a(S'w'
I708
tp353
a(S'p1_vo'
I0
tp354
a(S'w'
I13
tp355
a(S'p2_vo'
I5
tp356
a(S'w'
I728
tp357
a(S'p2_vo'
I4
tp358
a(S'w'
I734
tp359
a(S'p2_vo'
I3
tp360
a(S'w'
I738
tp361
a(S'p1_vo'
I2
tp362
a(S'w'
I6
tp363
a(S'p1_tl'
I189
tp364
a(S'w'
I14
tp365
a(S'p2_vo'
I2
tp366
a(S'w'
I703
tp367
a(S'p1_vo'
I1
tp368
a(S'w'
I10
tp369
a(S'w'
I7
tp370
a(S'p2_vo'
I1
tp371
a(S'w'
I2204
tp372
a(S'p2_vo'
I4
tp373
a(S'w'
I6
tp374
a(S'p2_tl'
I254
tp375
a(S'w'
I707
tp376
a(S'p1_vo'
I0
tp377
a(S'w'
I13
tp378
a(S'p2_vo'
I5
tp379
a(S'w'
I728
tp380
a(S'p2_vo'
I4
tp381
a(S'w'
I734
tp382
a(S'p2_vo'
I3
tp383
a(S'w'
I739
tp384
a(S'p1_vo'
I2
tp385
a(S'w'
I6
tp386
a(S'p1_tl'
I201
tp387
a(S'w'
I14
tp388
a(S'p2_vo'
I2
tp389
a(S'w'
I702
tp390
a(S'p1_vo'
I1
tp391
a(S'w'
I10
tp392
a(S'w'
I7
tp393
a(S'p2_vo'
I1
tp394
a(S'w'
I2209
tp395
a(S'p2_vo'
I4
tp396
a(S'w'
I5
tp397
a(S'p2_ll'
I1
tp398
a(S'p2_th'
I2
tp399
a(S'w'
I3
tp400
a(S'p2_tl'
I58
tp401
a(S'w'
I701
tp402
a(S'p1_vo'
I0
tp403
a(S'w'
I13
tp404
a(S'p2_vo'
I5
tp405
a(S'w'
I727
tp406
a(S'p2_vo'
I4
tp407
a(S'w'
I734
tp408
a(S'p2_vo'
I3
tp409
a(S'w'
I739
tp410
a(S'p1_vo'
I2
tp411
a(S'w'
I6
tp412
a(S'p1_tl'
I253
tp413
a(S'w'
I14
tp414
a(S'p2_vo'
I2
tp415
a(S'w'
I703
tp416
a(S'p1_vo'
I1
tp417
a(S'w'
I10
tp418
a(S'w'
I7
tp419
a(S'p2_vo'
I1
tp420
a(S'w'
I2203
tp421
a(S'p2_vo'
I4
tp422
a(S'w'
I6
tp423
a(S'p2_ll'
I1
tp424
a(S'p2_th'
I1
tp425
a(S'w'
I2
tp426
a(S'p2_tl'
I197
tp427
a(S'w'
I706
tp428
a(S'p1_vo'
I0
tp429
a(S'w'
I13
tp430
a(S'p2_vo'
I5
tp431
a(S'w'
I728
tp432
a(S'p2_vo'
I4
tp433
a(S'w'
I734
tp434
a(S'p2_vo'
I3
tp435
a(S'w'
I743
tp436
a(S'p1_vo'
I2
tp437
a(S'w'
I5
tp438
a(S'p1_ll'
I1
tp439
a(S'p1_th'
I2
tp440
a(S'w'
I3
tp441
a(S'p1_tl'
I57
tp442
a(S'w'
I14
tp443
a(S'p2_vo'
I2
tp444
a(S'w'
I696
tp445
a(S'p1_vo'
I1
tp446
a(S'w'
I10
tp447
a(S'w'
I7
tp448
a(S'p2_vo'
I1
tp449
a(S'w'
I2204
tp450
a(S'p2_vo'
I4
tp451
a(S'w'
I5
tp452
a(S'p2_ll'
I1
tp453
a(S'p2_th'
I0
tp454
a(S'w'
I3
tp455
a(S'p2_tl'
I254
tp456
a(S'w'
I705
tp457
a(S'p1_vo'
I0
tp458
a(S'w'
I13
tp459
a(S'p2_vo'
I5
tp460
a(S'w'
I728
tp461
a(S'p2_vo'
I4
tp462
a(S'w'
I734
tp463
a(S'p2_vo'
I3
tp464
a(S'w'
I739
tp465
a(S'p1_vo'
I2
tp466
a(S'w'
I6
tp467
a(S'p1_ll'
I1
tp468
a(S'p1_th'
I1
tp469
a(S'w'
I2
tp470
a(S'p1_tl'
I196
tp471
a(S'w'
I14
tp472
a(S'p2_vo'
I2
tp473
a(S'w'
I700
tp474
a(S'p1_vo'
I1
tp475
a(S'w'
I10
tp476
a(S'w'
I7
tp477
a(S'p2_vo'
I1
tp478
a(S'w'
I2204
tp479
a(S'p2_vo'
I4
tp480
a(S'w'
I5
tp481
a(S'p2_ll'
I1
tp482
a(S'p2_th'
I1
tp483
a(S'w'
I3
tp484
a(S'p2_tl'
I29
tp485
a(S'w'
I706
tp486
a(S'p1_vo'
I0
tp487
a(S'w'
I13
tp488
a(S'p2_vo'
I5
tp489
a(S'w'
I727
tp490
a(S'p2_vo'
I4
tp491
a(S'w'
I734
tp492
a(S'p2_vo'
I3
tp493
a(S'w'
I738
tp494
a(S'p1_vo'
I2
tp495
a(S'w'
I6
tp496
a(S'p1_ll'
I1
tp497
a(S'p1_th'
I0
tp498
a(S'w'
I3
tp499
a(S'p1_tl'
I253
tp500
a(S'w'
I14
tp501
a(S'p2_vo'
I2
tp502
a(S'w'
I701
tp503
a(S'p1_vo'
I1
tp504
a(S'w'
I10
tp505
a(S'w'
I7
tp506
a(S'p2_vo'
I1
tp507
a(S'w'
I2204
tp508
a(S'p2_vo'
I4
tp509
a(S'w'
I5
tp510
a(S'p2_ll'
I1
tp511
a(S'p2_th'
I0
tp512
a(S'w'
I3
tp513
a(S'p2_tl'
I226
tp514
a(S'w'
I705
tp515
a(S'p1_vo'
I0
tp516
a(S'w'
I13
tp517
a(S'p2_vo'
I5
tp518
a(S'w'
I728
tp519
a(S'p2_vo'
I4
tp520
a(S'w'
I734
tp521
a(S'p2_vo'
I3
tp522
a(S'w'
I738
tp523
a(S'p1_vo'
I2
tp524
a(S'w'
I5
tp525
a(S'p1_ll'
I1
tp526
a(S'p1_th'
I1
tp527
a(S'w'
I3
tp528
a(S'p1_tl'
I28
tp529
a(S'w'
I14
tp530
a(S'p2_vo'
I2
tp531
a(S'w'
I701
tp532
a(S'p1_vo'
I1
tp533
a(S'w'
I10
tp534
a(S'w'
I7
tp535
a(S'p2_vo'
I1
tp536
a(S'w'
I2204
tp537
a(S'p2_vo'
I4
tp538
a(S'w'
I6
tp539
a(S'p2_tl'
I180
tp540
a(S'w'
I707
tp541
a(S'p1_vo'
I0
tp542
a(S'w'
I13
tp543
a(S'p2_vo'
I5
tp544
a(S'w'
I728
tp545
a(S'p2_vo'
I4
tp546
a(S'w'
I734
tp547
a(S'p2_vo'
I3
tp548
a(S'w'
I739
tp549
a(S'p1_vo'
I2
tp550
a(S'w'
I6
tp551
a(S'p1_ll'
I1
tp552
a(S'p1_th'
I0
tp553
a(S'w'
I3
tp554
a(S'p1_tl'
I225
tp555
a(S'w'
I14
tp556
a(S'p2_vo'
I2
tp557
a(S'w'
I699
tp558
a(S'p1_vo'
I1
tp559
a(S'w'
I10
tp560
a(S'w'
I7
tp561
a(S'p2_vo'
I1
tp562
a(S'w'
I2204
tp563
a(S'p2_vo'
I4
tp564
a(S'w'
I6
tp565
a(S'p2_tl'
I127
tp566
a(S'w'
I708
tp567
a(S'p1_vo'
I0
tp568
a(S'w'
I13
tp569
a(S'p2_vo'
I5
tp570
a(S'w'
I727
tp571
a(S'p2_vo'
I4
tp572
a(S'w'
I734
tp573
a(S'p2_vo'
I3
tp574
a(S'w'
I739
tp575
a(S'p1_vo'
I2
tp576
a(S'w'
I6
tp577
a(S'p1_tl'
I179
tp578
a(S'w'
I14
tp579
a(S'p2_vo'
I2
tp580
a(S'w'
I703
tp581
a(S'p1_vo'
I1
tp582
a(S'w'
I10
tp583
a(S'w'
I7
tp584
a(S'p2_vo'
I1
tp585
a(S'w'
I2203
tp586
a(S'p2_vo'
I4
tp587
a(S'w'
I6
tp588
a(S'p2_tl'
I143
tp589
a(S'w'
I708
tp590
a(S'p1_vo'
I0
tp591
a(S'w'
I13
tp592
a(S'p2_vo'
I5
tp593
a(S'w'
I728
tp594
a(S'p2_vo'
I4
tp595
a(S'w'
I734
tp596
a(S'p2_vo'
I3
tp597
a(S'w'
I738
tp598
a(S'p1_vo'
I2
tp599
a(S'w'
I6
tp600
a(S'p1_tl'
I126
tp601
a(S'w'
I14
tp602
a(S'p2_vo'
I2
tp603
a(S'w'
I703
tp604
a(S'p1_vo'
I1
tp605
a(S'w'
I10
tp606
a(S'w'
I7
tp607
a(S'p2_vo'
I1
tp608
a(S'w'
I2205
tp609
a(S'p2_vo'
I4
tp610
a(S'w'
I6
tp611
a(S'p2_tl'
I113
tp612
a(S'w'
I706
tp613
a(S'p1_vo'
I0
tp614
a(S'w'
I13
tp615
a(S'p2_vo'
I5
tp616
a(S'w'
I728
tp617
a(S'p2_vo'
I4
tp618
a(S'w'
I734
tp619
a(S'p2_vo'
I3
tp620
a(S'w'
I739
tp621
a(S'p1_vo'
I2
tp622
a(S'w'
I6
tp623
a(S'p1_tl'
I142
tp624
a(S'w'
I14
tp625
a(S'p2_vo'
I2
tp626
a(S'w'
I702
tp627
a(S'p1_vo'
I1
tp628
a(S'w'
I10
tp629
a(S'w'
I7
tp630
a(S'p2_vo'
I1
tp631
a(S'w'
I2212
tp632
a(S'p2_tl'
I143
tp633
a(S'w'
I706
tp634
a(S'p1_vo'
I0
tp635
a(S'w'
I13
tp636
a(S'p2_vo'
I2
tp637
a(S'w'
I727
tp638
a(S'p2_vo'
I1
tp639
a(S'w'
I1474
tp640
a(S'p1_vo'
I2
tp641
a(S'w'
I6
tp642
a(S'p1_tl'
I112
tp643
a(S'w'
I716
tp644
a(S'p1_vo'
I1
tp645
a(S'w'
I10
tp646
a(S'w'
I2212
tp647
a(S'p2_vo'
I4
tp648
a(S'w'
I6
tp649
a(S'p2_tl'
I180
tp650
a(S'w'
I706
tp651
a(S'p1_vo'
I0
tp652
a(S'w'
I13
tp653
a(S'p2_vo'
I5
tp654
a(S'w'
I728
tp655
a(S'p2_vo'
I4
tp656
a(S'w'
I734
tp657
a(S'p2_vo'
I3
tp658
a(S'w'
I740
tp659
a(S'p1_vo'
I1
tp660
a(S'w'
I6
tp661
a(S'p1_tl'
I142
tp662
a(S'w'
I14
tp663
a(S'p2_vo'
I2
tp664
a(S'w'
I711
tp665
a(S'w'
I7
tp666
a(S'p2_vo'
I1
tp667
a(S'w'
I2211
tp668
a(S'p2_ll'
I1
tp669
a(S'p2_th'
I1
tp670
a(S'w'
I3
tp671
a(S'p2_tl'
I104
tp672
a(S'w'
I704
tp673
a(S'p1_vo'
I0
tp674
a(S'w'
I13
tp675
a(S'p2_vo'
I2
tp676
a(S'w'
I727
tp677
a(S'p2_vo'
I1
tp678
a(S'w'
I1475
tp679
a(S'p1_vo'
I2
tp680
a(S'w'
I6
tp681
a(S'p1_tl'
I179
tp682
a(S'w'
I714
tp683
a(S'p1_vo'
I1
tp684
a(S'w'
I10
tp685
a(S'w'
I2213
tp686
a(S'p2_vo'
I4
tp687
a(S'w'
I5
tp688
a(S'p2_ll'
I1
tp689
a(S'p2_th'
I0
tp690
a(S'w'
I3
tp691
a(S'p2_tl'
I226
tp692
a(S'w'
I704
tp693
a(S'p1_vo'
I0
tp694
a(S'w'
I13
tp695
a(S'p2_vo'
I5
tp696
a(S'w'
I727
tp697
a(S'p2_vo'
I4
tp698
a(S'w'
I734
tp699
a(S'p2_vo'
I3
tp700
a(S'w'
I740
tp701
a(S'p1_vo'
I1
tp702
a(S'w'
I6
tp703
a(S'p1_ll'
I1
tp704
a(S'p1_th'
I1
tp705
a(S'w'
I3
tp706
a(S'p1_tl'
I103
tp707
a(S'w'
I14
tp708
a(S'p2_vo'
I2
tp709
a(S'w'
I709
tp710
a(S'w'
I7
tp711
a(S'p2_vo'
I1
tp712
a(S'w'
I2203
tp713
a(S'p2_vo'
I4
tp714
a(S'w'
I6
tp715
a(S'p2_tl'
I214
tp716
a(S'w'
I709
tp717
a(S'p1_vo'
I0
tp718
a(S'w'
I13
tp719
a(S'p2_vo'
I5
tp720
a(S'w'
I727
tp721
a(S'p2_vo'
I4
tp722
a(S'w'
I734
tp723
a(S'p2_vo'
I3
tp724
a(S'w'
I740
tp725
a(S'p1_vo'
I2
tp726
a(S'w'
I5
tp727
a(S'p1_ll'
I1
tp728
a(S'p1_th'
I0
tp729
a(S'w'
I3
tp730
a(S'p1_tl'
I225
tp731
a(S'w'
I14
tp732
a(S'p2_vo'
I2
tp733
a(S'w'
I699
tp734
a(S'p1_vo'
I1
tp735
a(S'w'
I10
tp736
a(S'w'
I7
tp737
a(S'p2_vo'
I1
tp738
a(S'w'
I2204
tp739
a(S'p2_vo'
I4
tp740
a(S'w'
I6
tp741
a(S'p2_tl'
I226
tp742
a(S'w'
I707
tp743
a(S'p1_vo'
I0
tp744
a(S'w'
I13
tp745
a(S'p2_vo'
I5
tp746
a(S'w'
I728
tp747
a(S'p2_vo'
I4
tp748
a(S'w'
I734
tp749
a(S'p2_vo'
I3
tp750
a(S'w'
I739
tp751
a(S'p1_vo'
I2
tp752
a(S'w'
I6
tp753
a(S'p1_tl'
I213
tp754
a(S'w'
I14
tp755
a(S'p2_vo'
I2
tp756
a(S'w'
I702
tp757
a(S'p1_vo'
I1
tp758
a(S'w'
I10
tp759
a(S'w'
I7
tp760
a(S'p2_vo'
I1
tp761
a(S'w'
I2204
tp762
a(S'p2_vo'
I4
tp763
a(S'w'
I6
tp764
a(S'p2_ll'
I1
tp765
a(S'p2_th'
I1
tp766
a(S'w'
I2
tp767
a(S'p2_tl'
I29
tp768
a(S'w'
I706
tp769
a(S'p1_vo'
I0
tp770
a(S'w'
I13
tp771
a(S'p2_vo'
I5
tp772
a(S'w'
I727
tp773
a(S'p2_vo'
I4
tp774
a(S'w'
I734
tp775
a(S'p2_vo'
I3
tp776
a(S'w'
I739
tp777
a(S'p1_vo'
I2
tp778
a(S'w'
I6
tp779
a(S'p1_tl'
I225
tp780
a(S'w'
I14
tp781
a(S'p2_vo'
I2
tp782
a(S'w'
I703
tp783
a(S'p1_vo'
I1
tp784
a(S'w'
I10
tp785
a(S'w'
I7
tp786
a(S'p2_vo'
I1
tp787
a(S'w'
I2225
tp788
a(S'p2_vo'
I4
tp789
a(S'w'
I6
tp790
a(S'p2_tl'
I252
tp791
a(S'w'
I686
tp792
a(S'p1_vo'
I0
tp793
a(S'w'
I13
tp794
a(S'p2_vo'
I5
tp795
a(S'w'
I728
tp796
a(S'p2_vo'
I4
tp797
a(S'w'
I734
tp798
a(S'p2_vo'
I3
tp799
a(S'w'
I738
tp800
a(S'p1_vo'
I2
tp801
a(S'w'
I6
tp802
a(S'p1_ll'
I1
tp803
a(S'p1_th'
I1
tp804
a(S'w'
I2
tp805
a(S'p1_tl'
I28
tp806
a(S'w'
I14
tp807
a(S'p2_vo'
I2
tp808
a(S'w'
I701
tp809
a(S'p1_vo'
I1
tp810
a(S'w'
I10
tp811
a(S'w'
I7
tp812
a(S'p2_vo'
I1
tp813
a(S'w'
I2204
tp814
a(S'p2_vo'
I4
tp815
a(S'w'
I6
tp816
a(S'p2_tl'
I148
tp817
a(S'w'
I707
tp818
a(S'p1_vo'
I0
tp819
a(S'w'
I13
tp820
a.