(lp1
(S'clock'
p2
I1789773
tp3
a(S'fc_mo'
I1
tp4
a(S'p1_sp'
I7
tp5
a(S'p1_sn'
I1
tp6
a(S'p1_ss'
I7
tp7
a(S'p2_sp'
I7
tp8
a(S'p2_sn'
I1
tp9
a(S'p2_ss'
I7
tp10
a(S'w'
I36
tp11
a(S'p1_lh'
I1
tp12
a(S'p1_cv'
I1
tp13
a(S'p1_vo'
I6
tp14
a(S'w'
I5
tp15
a(S'p1_ll'
I1
tp16
a(S'w'
I3
tp17
a(S'p1_tl'
I214
tp18
a(S'w'
I31
tp19
a(S'p2_du'
I1
tp20
a(S'p2_lh'
I1
tp21
a(S'p2_cv'
I1
tp22
a(S'p2_vo'
I7
tp23
a(S'w'
I5
tp24
a(S'p2_ll'
I1
tp25
a(S'w'
I3
tp26
a(S'p2_tl'
I170
tp27
a(S'w'
I18
tp28
a(S'tr_lh'
I1
tp29
a(S'tr_lr'
I16
tp30
a(S'w'
I4
tp31
a(S'tr_ll'
I1
tp32
a(S'tr_th'
I1
tp33
a(S'w'
I3
tp34
a(S'tr_tl'
I172
tp35
a(S'w'
I15
tp36
a(S'ch_no'
I1
tp37
a(S'ch_tr'
I1
tp38
a(S'ch_p2'
I1
tp39
a(S'ch_p1'
I1
tp40
a(S'w'
I1
tp41
a(S'ch_no'
I1
tp42
a(S'ch_tr'
I1
tp43
a(S'ch_p2'
I1
tp44
a(S'ch_p1'
I1
tp45
a(S'w'
I626
tp46
a(S'p1_du'
I1
tp47
a(S'p1_vo'
I5
tp48
a(S'w'
I10
tp49
a(S'p2_du'
I2
tp50
a(S'p2_vo'
I6
tp51
a(S'w'
I723
tp52
a(S'p1_vo'
I4
tp53
a(S'w'
I10
tp54
a(S'p2_vo'
I5
tp55
a(S'w'
I721
tp56
a(S'p1_vo'
I3
tp57
a(S'w'
I11
tp58
a(S'p2_vo'
I4
tp59
a(S'w'
I729
tp60
a(S'p2_vo'
I3
tp61
a(S'w'
I2923
tp62
a(S'p1_vo'
I2
tp63
a(S'w'
I739
tp64
a(S'p2_vo'
I2
tp65
a(S'w'
I2924
tp66
a(S'p1_vo'
I1
tp67
a(S'w'
I1472
tp68
a(S'p2_vo'
I1
tp69
a(S'w'
I3
tp70
a(S'tr_lh'
I0
tp71
a(S'tr_lr'
I0
tp72
a(S'w'
I735
tp73
a(S'p1_du'
I0
tp74
a(S'p1_vo'
I6
tp75
a(S'w'
I5
tp76
a(S'p1_tl'
I190
tp77
a(S'w'
I22
tp78
a(S'p2_du'
I1
tp79
a(S'p2_vo'
I7
tp80
a(S'w'
I6
tp81
a(S'p2_tl'
I160
tp82
a(S'w'
I14
tp83
a(S'tr_lh'
I1
tp84
a(S'tr_lr'
I16
tp85
a(S'w'
I4
tp86
a(S'tr_ll'
I1
tp87
a(S'w'
I3
tp88
a(S'tr_tl'
I29
tp89
a(S'w'
I23
tp90
a(S'no_lh'
I1
tp91
a(S'no_cv'
I1
tp92
a(S'no_vo'
I8
tp93
a(S'w'
I2
tp94
a(S'no_ll'
I1
tp95
a(S'no_np'
I2
tp96
a(S'w'
I642
tp97
a(S'p1_du'
I1
tp98
a(S'p1_vo'
I5
tp99
a(S'w'
I11
tp100
a(S'p2_du'
I2
tp101
a(S'p2_vo'
I6
tp102
a(S'w'
I15
tp103
a(S'no_vo'
I1
tp104
a(S'w'
I2
tp105
a(S'no_ll'
I1
tp106
a(S'no_np'
I1
tp107
a(S'w'
I704
tp108
a(S'p1_vo'
I4
tp109
a(S'w'
I11
tp110
a(S'p2_vo'
I5
tp111
a(S'w'
I17
tp112
a(S'no_vo'
I0
tp113
a(S'w'
I705
tp114
a(S'p1_vo'
I3
tp115
a(S'w'
I11
tp116
a(S'p2_vo'
I4
tp117
a(S'w'
I722
tp118
a(S'p1_vo'
I2
tp119
a(S'w'
I10
tp120
a(S'p2_vo'
I3
tp121
a(S'w'
I728
tp122
a(S'p2_vo'
I2
tp123
a(S'w'
I2204
tp124
a(S'p1_du'
I0
tp125
a(S'p1_vo'
I6
tp126
a(S'w'
I6
tp127
a(S'p1_tl'
I170
tp128
a(S'w'
I23
tp129
a(S'p2_du'
I1
tp130
a(S'p2_vo'
I7
tp131
a(S'w'
I6
tp132
a(S'p2_tl'
I143
tp133
a(S'w'
I20
tp134
a(S'tr_ll'
I1
tp135
a(S'tr_th'
I0
tp136
a(S'w'
I3
tp137
a(S'tr_tl'
I214
tp138
a(S'w'
I23
tp139
a(S'no_vo'
I12
tp140
a(S'w'
I2
tp141
a(S'no_ll'
I1
tp142
a(S'no_np'
I14
tp143
a(S'w'
I638
tp144
a(S'p1_du'
I1
tp145
a(S'p1_vo'
I5
tp146
a(S'w'
I11
tp147
a(S'p2_du'
I2
tp148
a(S'p2_vo'
I6
tp149
a(S'w'
I15
tp150
a(S'no_vo'
I7
tp151
a(S'w'
I2
tp152
a(S'no_ll'
I1
tp153
a(S'no_np'
I6
tp154
a(S'w'
I704
tp155
a(S'p1_vo'
I4
tp156
a(S'w'
I11
tp157
a(S'p2_vo'
I5
tp158
a(S'w'
I15
tp159
a(S'no_vo'
I3
tp160
a(S'w'
I2
tp161
a(S'no_ll'
I1
tp162
a(S'no_np'
I4
tp163
a(S'w'
I705
tp164
a(S'p1_vo'
I3
tp165
a(S'w'
I11
tp166
a(S'p2_vo'
I4
tp167
a(S'w'
I15
tp168
a(S'no_vo'
I4
tp169
a(S'w'
I2
tp170
a(S'no_ll'
I1
tp171
a(S'no_np'
I3
tp172
a(S'w'
I711
tp173
a(S'p2_vo'
I3
tp174
a(S'w'
I15
tp175
a(S'no_vo'
I2
tp176
a(S'w'
I2
tp177
a(S'no_ll'
I1
tp178
a(S'no_np'
I4
tp179
a(S'w'
I727
tp180
a(S'no_vo'
I1
tp181
a(S'w'
I2
tp182
a(S'no_ll'
I1
tp183
a(S'no_np'
I3
tp184
a(S'w'
I733
tp185
a(S'no_ll'
I1
tp186
a(S'no_np'
I2
tp187
a(S'w'
I732
tp188
a(S'no_vo'
I0
tp189
a(S'w'
I713
tp190
a(S'p1_vo'
I2
tp191
a(S'w'
I33
tp192
a(S'no_vo'
I8
tp193
a(S'w'
I2
tp194
a(S'no_ll'
I1
tp195
a(S'w'
I714
tp196
a(S'no_vo'
I1
tp197
a(S'w'
I2
tp198
a(S'no_ll'
I1
tp199
a(S'no_np'
I1
tp200
a(S'w'
I733
tp201
a(S'no_vo'
I0
tp202
a(S'w'
I2179
tp203
a(S'p1_vo'
I1
tp204
a(S'w'
I738
tp205
a(S'p2_vo'
I2
tp206
a(S'w'
I732
tp207
a(S'tr_lh'
I0
tp208
a(S'tr_lr'
I0
tp209
a(S'w'
I740
tp210
a(S'p1_du'
I0
tp211
a(S'p1_vo'
I6
tp212
a(S'w'
I6
tp213
a(S'p1_tl'
I226
tp214
a(S'w'
I19
tp215
a(S'tr_lh'
I1
tp216
a(S'tr_lr'
I16
tp217
a(S'w'
I5
tp218
a(S'tr_ll'
I1
tp219
a(S'tr_th'
I1
tp220
a(S'w'
I3
tp221
a(S'tr_tl'
I197
tp222
a(S'w'
I687
tp223
a(S'p1_du'
I1
tp224
a(S'p1_vo'
I5
tp225
a(S'w'
I733
tp226
a(S'p1_vo'
I4
tp227
a(S'w'
I732
tp228
a(S'p1_vo'
I3
tp229
a(S'w'
I733
tp230
a(S'p1_vo'
I2
tp231
a(S'w'
I10
tp232
a(S'p2_vo'
I1
tp233
a(S'w'
I2932
tp234
a(S'p1_du'
I0
tp235
a(S'p1_vo'
I6
tp236
a(S'w'
I6
tp237
a(S'p1_tl'
I254
tp238
a(S'w'
I22
tp239
a(S'p2_du'
I1
tp240
a(S'p2_vo'
I7
tp241
a(S'w'
I6
tp242
a(S'p2_tl'
I214
tp243
a(S'w'
I19
tp244
a(S'tr_ll'
I1
tp245
a(S'w'
I3
tp246
a(S'tr_tl'
I252
tp247
a(S'w'
I12
tp248
a(S'ch_no'
I1
tp249
a(S'ch_tr'
I1
tp250
a(S'ch_p2'
I1
tp251
a(S'ch_p1'
I1
tp252
a(S'w'
I1
tp253
a(S'ch_no'
I1
tp254
a(S'ch_tr'
I1
tp255
a(S'ch_p2'
I1
tp256
a(S'ch_p1'
I1
tp257
a(S'w'
I653
tp258
a(S'p1_du'
I1
tp259
a(S'p1_vo'
I5
tp260
a(S'w'
I10
tp261
a(S'p2_du'
I2
tp262
a(S'p2_vo'
I6
tp263
a(S'w'
I723
tp264
a(S'p1_vo'
I4
tp265
a(S'w'
I10
tp266
a(S'p2_vo'
I5
tp267
a(S'w'
I721
tp268
a(S'p1_vo'
I3
tp269
a(S'w'
I11
tp270
a(S'p2_vo'
I4
tp271
a(S'w'
I729
tp272
a(S'p2_vo'
I3
tp273
a(S'w'
I2923
tp274
a(S'p1_vo'
I2
tp275
a(S'w'
I739
tp276
a(S'p2_vo'
I2
tp277
a(S'w'
I2924
tp278
a(S'p1_vo'
I1
tp279
a(S'w'
I1471
tp280
a(S'p2_vo'
I1
tp281
a(S'w'
I3
tp282
a(S'tr_lh'
I0
tp283
a(S'tr_lr'
I0
tp284
a(S'w'
I735
tp285
a(S'p1_du'
I0
tp286
a(S'p1_vo'
I6
tp287
a(S'w'
I6
tp288
a(S'p1_tl'
I226
tp289
a(S'w'
I22
tp290
a(S'p2_du'
I1
tp291
a(S'p2_vo'
I7
tp292
a(S'w'
I6
tp293
a(S'p2_tl'
I190
tp294
a(S'w'
I14
tp295
a(S'tr_lh'
I1
tp296
a(S'tr_lr'
I16
tp297
a(S'w'
I5
tp298
a(S'tr_ll'
I1
tp299
a(S'w'
I3
tp300
a(S'tr_tl'
I83
tp301
a(S'w'
I23
tp302
a(S'no_vo'
I8
tp303
a(S'w'
I1
tp304
a(S'no_ll'
I1
tp305
a(S'no_np'
I2
tp306
a(S'w'
I642
tp307
a(S'p1_du'
I1
tp308
a(S'p1_vo'
I5
tp309
a(S'w'
I11
tp310
a(S'p2_du'
I2
tp311
a(S'p2_vo'
I6
tp312
a(S'w'
I15
tp313
a(S'no_vo'
I1
tp314
a(S'w'
I2
tp315
a(S'no_ll'
I1
tp316
a(S'no_np'
I1
tp317
a(S'w'
I704
tp318
a(S'p1_vo'
I4
tp319
a(S'w'
I11
tp320
a(S'p2_vo'
I5
tp321
a(S'w'
I17
tp322
a(S'no_vo'
I0
tp323
a(S'w'
I705
tp324
a(S'p1_vo'
I3
tp325
a(S'w'
I11
tp326
a(S'p2_vo'
I4
tp327
a(S'w'
I722
tp328
a(S'p1_vo'
I2
tp329
a(S'w'
I10
tp330
a(S'p2_vo'
I3
tp331
a(S'w'
I728
tp332
a(S'p2_vo'
I2
tp333
a(S'w'
I2205
tp334
a(S'p1_du'
I0
tp335
a(S'p1_vo'
I6
tp336
a(S'w'
I6
tp337
a(S'p1_tl'
I214
tp338
a(S'w'
I23
tp339
a(S'p2_du'
I1
tp340
a(S'p2_vo'
I7
tp341
a(S'w'
I6
tp342
a(S'p2_tl'
I170
tp343
a(S'w'
I19
tp344
a(S'tr_ll'
I1
tp345
a(S'tr_th'
I0
tp346
a(S'w'
I3
tp347
a(S'tr_tl'
I254
tp348
a(S'w'
I23
tp349
a(S'no_vo'
I12
tp350
a(S'w'
I1
tp351
a(S'no_ll'
I1
tp352
a(S'no_np'
I14
tp353
a(S'w'
I639
tp354
a(S'p1_du'
I1
tp355
a(S'p1_vo'
I5
tp356
a(S'w'
I11
tp357
a(S'p2_du'
I2
tp358
a(S'p2_vo'
I6
tp359
a(S'w'
I15
tp360
a(S'no_vo'
I7
tp361
a(S'w'
I2
tp362
a(S'no_ll'
I1
tp363
a(S'no_np'
I6
tp364
a(S'w'
I704
tp365
a(S'p1_vo'
I4
tp366
a(S'w'
I11
tp367
a(S'p2_vo'
I5
tp368
a(S'w'
I15
tp369
a(S'no_vo'
I3
tp370
a(S'w'
I2
tp371
a(S'no_ll'
I1
tp372
a(S'no_np'
I4
tp373
a(S'w'
I705
tp374
a(S'p1_vo'
I3
tp375
a(S'w'
I11
tp376
a(S'p2_vo'
I4
tp377
a(S'w'
I15
tp378
a(S'no_vo'
I4
tp379
a(S'w'
I2
tp380
a(S'no_ll'
I1
tp381
a(S'no_np'
I3
tp382
a(S'w'
I711
tp383
a(S'p2_vo'
I3
tp384
a(S'w'
I15
tp385
a(S'no_vo'
I2
tp386
a(S'w'
I2
tp387
a(S'no_ll'
I1
tp388
a(S'no_np'
I4
tp389
a(S'w'
I727
tp390
a(S'no_vo'
I1
tp391
a(S'w'
I2
tp392
a(S'no_ll'
I1
tp393
a(S'no_np'
I3
tp394
a(S'w'
I733
tp395
a(S'no_ll'
I1
tp396
a(S'no_np'
I2
tp397
a(S'w'
I732
tp398
a(S'no_vo'
I0
tp399
a(S'w'
I713
tp400
a(S'p1_vo'
I2
tp401
a(S'w'
I33
tp402
a(S'no_vo'
I8
tp403
a(S'w'
I2
tp404
a(S'no_ll'
I1
tp405
a(S'w'
I714
tp406
a(S'no_vo'
I1
tp407
a(S'w'
I2
tp408
a(S'no_ll'
I1
tp409
a(S'no_np'
I1
tp410
a(S'w'
I733
tp411
a(S'no_vo'
I0
tp412
a(S'w'
I2179
tp413
a(S'p1_vo'
I1
tp414
a(S'w'
I738
tp415
a(S'p2_vo'
I2
tp416
a(S'w'
I732
tp417
a(S'tr_lh'
I0
tp418
a(S'tr_lr'
I0
tp419
a(S'w'
I740
tp420
a(S'p1_du'
I0
tp421
a(S'p1_vo'
I6
tp422
a(S'w'
I5
tp423
a(S'p1_ll'
I1
tp424
a(S'p1_th'
I1
tp425
a(S'w'
I3
tp426
a(S'p1_tl'
I29
tp427
a(S'w'
I19
tp428
a(S'tr_lh'
I1
tp429
a(S'tr_lr'
I16
tp430
a(S'w'
I5
tp431
a(S'tr_ll'
I1
tp432
a(S'tr_th'
I2
tp433
a(S'w'
I3
tp434
a(S'tr_tl'
I58
tp435
a(S'w'
I685
tp436
a(S'p1_du'
I1
tp437
a(S'p1_vo'
I5
tp438
a(S'w'
I733
tp439
a(S'p1_vo'
I4
tp440
a(S'w'
I732
tp441
a(S'p1_vo'
I3
tp442
a(S'w'
I733
tp443
a(S'p1_vo'
I2
tp444
a(S'w'
I10
tp445
a(S'p2_vo'
I1
tp446
a(S'w'
I2933
tp447
a(S'p1_du'
I0
tp448
a(S'p1_vo'
I6
tp449
a(S'w'
I6
tp450
a(S'p1_tl'
I64
tp451
a(S'w'
I22
tp452
a(S'p2_du'
I1
tp453
a(S'p2_vo'
I7
tp454
a(S'w'
I6
tp455
a(S'p2_tl'
I254
tp456
a(S'w'
I20
tp457
a(S'tr_ll'
I1
tp458
a(S'w'
I3
tp459
a(S'tr_tl'
I129
tp460
a(S'w'
I27
tp461
a(S'no_vo'
I12
tp462
a(S'w'
I1
tp463
a(S'no_ll'
I1
tp464
a(S'no_np'
I14
tp465
a(S'w'
I635
tp466
a(S'p1_du'
I1
tp467
a(S'p1_vo'
I5
tp468
a(S'w'
I11
tp469
a(S'p2_du'
I2
tp470
a(S'p2_vo'
I6
tp471
a(S'w'
I15
tp472
a(S'no_vo'
I7
tp473
a(S'w'
I2
tp474
a(S'no_ll'
I1
tp475
a(S'no_np'
I6
tp476
a(S'w'
I705
tp477
a(S'p1_vo'
I4
tp478
a(S'w'
I11
tp479
a(S'p2_vo'
I5
tp480
a(S'w'
I15
tp481
a(S'no_vo'
I3
tp482
a(S'w'
I2
tp483
a(S'no_ll'
I1
tp484
a(S'no_np'
I4
tp485
a(S'w'
I704
tp486
a(S'p1_vo'
I3
tp487
a(S'w'
I11
tp488
a(S'p2_vo'
I4
tp489
a(S'w'
I15
tp490
a(S'no_vo'
I4
tp491
a(S'w'
I2
tp492
a(S'no_ll'
I1
tp493
a(S'no_np'
I3
tp494
a(S'w'
I712
tp495
a(S'p2_vo'
I3
tp496
a(S'w'
I15
tp497
a(S'no_vo'
I2
tp498
a(S'w'
I2
tp499
a(S'no_ll'
I1
tp500
a(S'no_np'
I4
tp501
a(S'w'
I726
tp502
a(S'no_vo'
I1
tp503
a(S'w'
I2
tp504
a(S'no_ll'
I1
tp505
a(S'no_np'
I3
tp506
a(S'w'
I733
tp507
a(S'no_ll'
I1
tp508
a(S'no_np'
I2
tp509
a(S'w'
I733
tp510
a(S'no_vo'
I0
tp511
a(S'w'
I1451
tp512
a(S'p2_vo'
I2
tp513
a(S'w'
I2192
tp514
a(S'p1_vo'
I2
tp515
a(S'w'
I2203
tp516
a(S'p2_vo'
I1
tp517
a(S'w'
I744
tp518
a(S'p2_du'
I1
tp519
a(S'p2_vo'
I7
tp520
a(S'w'
I6
tp521
a(S'p2_tl'
I214
tp522
a(S'w'
I27
tp523
a(S'no_vo'
I8
tp524
a(S'w'
I2
tp525
a(S'no_ll'
I1
tp526
a(S'w'
I681
tp527
a(S'p1_vo'
I1
tp528
a(S'w'
I10
tp529
a(S'p2_du'
I2
tp530
a(S'p2_vo'
I6
tp531
a(S'w'
I16
tp532
a(S'no_vo'
I1
tp533
a(S'w'
I1
tp534
a(S'no_ll'
I1
tp535
a(S'w'
I1
tp536
a(S'no_np'
I1
tp537
a(S'w'
I710
tp538
a(S'p2_vo'
I5
tp539
a(S'w'
I17
tp540
a(S'no_vo'
I0
tp541
a(S'w'
I716
tp542
a(S'p2_vo'
I4
tp543
a(S'w'
I732
tp544
a(S'p2_vo'
I3
tp545
a(S'w'
I733
tp546
a(S'p2_vo'
I2
tp547
a(S'w'
I727
tp548
a(S'p1_vo'
I0
tp549
a(S'w'
I736
tp550
a(S'tr_lh'
I0
tp551
a(S'tr_lr'
I0
tp552
a(S'w'
I740
tp553
a(S'p1_du'
I0
tp554
a(S'p1_vo'
I6
tp555
a(S'w'
I6
tp556
a(S'p1_ll'
I1
tp557
a(S'p1_th'
I0
tp558
a(S'w'
I2
tp559
a(S'p1_tl'
I254
tp560
a(S'w'
I22
tp561
a(S'p2_du'
I1
tp562
a(S'p2_vo'
I7
tp563
a(S'w'
I6
tp564
a(S'p2_tl'
I160
tp565
a(S'w'
I15
tp566
a(S'tr_lh'
I1
tp567
a(S'tr_lr'
I16
tp568
a(S'w'
I4
tp569
a(S'tr_ll'
I1
tp570
a(S'w'
I3
tp571
a(S'tr_tl'
I58
tp572
a(S'w'
I23
tp573
a(S'no_vo'
I12
tp574
a(S'w'
I2
tp575
a(S'no_ll'
I1
tp576
a(S'no_np'
I14
tp577
a(S'w'
I638
tp578
a(S'p1_du'
I1
tp579
a(S'p1_vo'
I5
tp580
a(S'w'
I11
tp581
a(S'p2_du'
I2
tp582
a(S'p2_vo'
I6
tp583
a(S'w'
I15
tp584
a(S'no_vo'
I7
tp585
a(S'w'
I2
tp586
a(S'no_ll'
I1
tp587
a(S'no_np'
I6
tp588
a(S'w'
I705
tp589
a(S'p1_vo'
I4
tp590
a(S'w'
I11
tp591
a(S'p2_vo'
I5
tp592
a(S'w'
I15
tp593
a(S'no_vo'
I3
tp594
a(S'w'
I2
tp595
a(S'no_ll'
I1
tp596
a(S'no_np'
I4
tp597
a(S'w'
I705
tp598
a(S'p1_vo'
I3
tp599
a(S'w'
I11
tp600
a(S'p2_vo'
I4
tp601
a(S'w'
I15
tp602
a(S'no_vo'
I4
tp603
a(S'w'
I2
tp604
a(S'no_ll'
I1
tp605
a(S'no_np'
I3
tp606
a(S'w'
I704
tp607
a(S'p1_vo'
I2
tp608
a(S'w'
I10
tp609
a(S'p2_vo'
I3
tp610
a(S'w'
I16
tp611
a(S'no_vo'
I2
tp612
a(S'w'
I1
tp613
a(S'no_ll'
I1
tp614
a(S'no_np'
I4
tp615
a(S'w'
I712
tp616
a(S'p2_vo'
I2
tp617
a(S'w'
I15
tp618
a(S'no_vo'
I1
tp619
a(S'w'
I2
tp620
a(S'no_ll'
I1
tp621
a(S'no_np'
I3
tp622
a(S'w'
I727
tp623
a(S'no_ll'
I1
tp624
a(S'no_np'
I2
tp625
a(S'w'
I733
tp626
a(S'no_vo'
I0
tp627
a(S'w'
I726
tp628
a(S'p1_du'
I0
tp629
a(S'p1_vo'
I6
tp630
a(S'w'
I6
tp631
a(S'p1_ll'
I1
tp632
a(S'p1_th'
I1
tp633
a(S'w'
I2
tp634
a(S'p1_tl'
I29
tp635
a(S'w'
I22
tp636
a(S'p2_du'
I1
tp637
a(S'p2_vo'
I7
tp638
a(S'w'
I6
tp639
a(S'p2_tl'
I170
tp640
a(S'w'
I27
tp641
a(S'no_vo'
I12
tp642
a(S'w'
I1
tp643
a(S'no_ll'
I1
tp644
a(S'w'
I1
tp645
a(S'no_np'
I14
tp646
a(S'w'
I656
tp647
a(S'p1_du'
I1
tp648
a(S'p1_vo'
I5
tp649
a(S'w'
I11
tp650
a(S'p2_du'
I2
tp651
a(S'p2_vo'
I6
tp652
a(S'w'
I15
tp653
a(S'no_vo'
I7
tp654
a(S'w'
I2
tp655
a(S'no_ll'
I1
tp656
a(S'no_np'
I6
tp657
a(S'w'
I705
tp658
a(S'p1_vo'
I4
tp659
a(S'w'
I11
tp660
a(S'p2_vo'
I5
tp661
a(S'w'
I15
tp662
a(S'no_vo'
I3
tp663
a(S'w'
I2
tp664
a(S'no_ll'
I1
tp665
a(S'no_np'
I4
tp666
a(S'w'
I704
tp667
a(S'p1_vo'
I3
tp668
a(S'w'
I11
tp669
a(S'p2_vo'
I4
tp670
a(S'w'
I15
tp671
a(S'no_vo'
I4
tp672
a(S'w'
I2
tp673
a(S'no_ll'
I1
tp674
a(S'no_np'
I3
tp675
a(S'w'
I705
tp676
a(S'p1_vo'
I2
tp677
a(S'w'
I10
tp678
a(S'p2_vo'
I3
tp679
a(S'w'
I16
tp680
a(S'no_vo'
I2
tp681
a(S'w'
I1
tp682
a(S'no_ll'
I1
tp683
a(S'no_np'
I4
tp684
a(S'w'
I712
tp685
a(S'p2_vo'
I2
tp686
a(S'w'
I15
tp687
a(S'no_vo'
I1
tp688
a(S'w'
I2
tp689
a(S'no_ll'
I1
tp690
a(S'no_np'
I3
tp691
a(S'w'
I727
tp692
a(S'no_ll'
I1
tp693
a(S'no_np'
I2
tp694
a(S'w'
I733
tp695
a(S'no_vo'
I0
tp696
a(S'w'
I726
tp697
a(S'p1_du'
I0
tp698
a(S'p1_vo'
I6
tp699
a(S'w'
I5
tp700
a(S'p1_tl'
I64
tp701
a(S'w'
I22
tp702
a(S'p2_du'
I1
tp703
a(S'p2_vo'
I7
tp704
a(S'w'
I6
tp705
a(S'p2_tl'
I190
tp706
a(S'w'
I27
tp707
a(S'no_vo'
I12
tp708
a(S'w'
I1
tp709
a(S'no_ll'
I1
tp710
a(S'w'
I1
tp711
a(S'no_np'
I14
tp712
a(S'w'
I659
tp713
a(S'p1_du'
I1
tp714
a(S'p1_vo'
I5
tp715
a(S'w'
I11
tp716
a(S'p2_du'
I2
tp717
a(S'p2_vo'
I6
tp718
a(S'w'
I15
tp719
a(S'no_vo'
I7
tp720
a(S'w'
I2
tp721
a(S'no_ll'
I1
tp722
a(S'no_np'
I6
tp723
a(S'w'
I705
tp724
a(S'p1_vo'
I4
tp725
a(S'w'
I11
tp726
a(S'p2_vo'
I5
tp727
a(S'w'
I15
tp728
a(S'no_vo'
I3
tp729
a(S'w'
I2
tp730
a(S'no_ll'
I1
tp731
a(S'no_np'
I4
tp732
a(S'w'
I704
tp733
a(S'p1_vo'
I3
tp734
a(S'w'
I11
tp735
a(S'p2_vo'
I4
tp736
a(S'w'
I15
tp737
a(S'no_vo'
I4
tp738
a(S'w'
I2
tp739
a(S'no_ll'
I1
tp740
a(S'no_np'
I3
tp741
a(S'w'
I705
tp742
a(S'p1_vo'
I2
tp743
a(S'w'
I10
tp744
a(S'p2_vo'
I3
tp745
a(S'w'
I16
tp746
a(S'no_vo'
I2
tp747
a(S'w'
I1
tp748
a(S'no_ll'
I1
tp749
a(S'no_np'
I4
tp750
a(S'w'
I712
tp751
a(S'p2_vo'
I2
tp752
a(S'w'
I15
tp753
a(S'no_vo'
I1
tp754
a(S'w'
I2
tp755
a(S'no_ll'
I1
tp756
a(S'no_np'
I3
tp757
a(S'w'
I727
tp758
a(S'no_ll'
I1
tp759
a(S'no_np'
I2
tp760
a(S'w'
I720
tp761
a(S'tr_lh'
I0
tp762
a(S'tr_lr'
I0
tp763
a(S'w'
I13
tp764
a(S'no_vo'
I0
tp765
a(S'w'
I725
tp766
a(S'p1_du'
I0
tp767
a(S'p1_vo'
I6
tp768
a(S'w'
I6
tp769
a(S'p1_tl'
I83
tp770
a(S'w'
I22
tp771
a(S'p2_du'
I1
tp772
a(S'p2_vo'
I7
tp773
a(S'w'
I6
tp774
a(S'p2_tl'
I214
tp775
a(S'w'
I14
tp776
a(S'tr_lh'
I1
tp777
a(S'tr_lr'
I16
tp778
a(S'w'
I5
tp779
a(S'tr_ll'
I1
tp780
a(S'tr_th'
I1
tp781
a(S'w'
I3
tp782
a(S'tr_tl'
I172
tp783
a(S'w'
I24
tp784
a(S'no_vo'
I12
tp785
a(S'w'
I2
tp786
a(S'no_ll'
I1
tp787
a(S'no_np'
I14
tp788
a(S'w'
I640
tp789
a(S'p1_du'
I1
tp790
a(S'p1_vo'
I5
tp791
a(S'w'
I11
tp792
a(S'p2_du'
I2
tp793
a(S'p2_vo'
I6
tp794
a(S'w'
I15
tp795
a(S'no_vo'
I7
tp796
a(S'w'
I2
tp797
a(S'no_ll'
I1
tp798
a(S'no_np'
I6
tp799
a(S'w'
I705
tp800
a(S'p1_vo'
I4
tp801
a(S'w'
I11
tp802
a(S'p2_vo'
I5
tp803
a(S'w'
I15
tp804
a(S'no_vo'
I3
tp805
a(S'w'
I2
tp806
a(S'no_ll'
I1
tp807
a(S'no_np'
I4
tp808
a(S'w'
I704
tp809
a(S'p1_vo'
I3
tp810
a(S'w'
I11
tp811
a(S'p2_vo'
I4
tp812
a(S'w'
I15
tp813
a(S'no_vo'
I4
tp814
a(S'w'
I2
tp815
a(S'no_ll'
I1
tp816
a(S'no_np'
I3
tp817
a(S'w'
I705
tp818
a(S'p1_vo'
I2
tp819
a(S'w'
I10
tp820
a(S'p2_vo'
I3
tp821
a(S'w'
I16
tp822
a(S'no_vo'
I2
tp823
a(S'w'
I1
tp824
a(S'no_ll'
I1
tp825
a(S'no_np'
I4
tp826
a(S'w'
I711
tp827
a(S'p2_vo'
I2
tp828
a(S'w'
I15
tp829
a(S'no_vo'
I1
tp830
a(S'w'
I2
tp831
a(S'no_ll'
I1
tp832
a(S'no_np'
I3
tp833
a(S'w'
I728
tp834
a(S'no_ll'
I1
tp835
a(S'no_np'
I2
tp836
a(S'w'
I733
tp837
a(S'no_vo'
I0
tp838
a(S'w'
I721
tp839
a(S'p1_du'
I0
tp840
a(S'p1_vo'
I0
tp841
a(S'w'
I18
tp842
a(S'p2_du'
I0
tp843
a(S'p2_vo'
I0
tp844
a(S'w'
I12
tp845
a(S'tr_lh'
I0
tp846
a(S'tr_lr'
I0
tp847
a(S'w'
I11697
tp848
a(S'p1_vo'
I6
tp849
a(S'w'
I5
tp850
a(S'p1_ll'
I1
tp851
a(S'p1_th'
I3
tp852
a(S'w'
I3
tp853
a(S'p1_tl'
I87
tp854
a(S'w'
I22
tp855
a(S'p2_du'
I1
tp856
a(S'p2_vo'
I7
tp857
a(S'w'
I6
tp858
a(S'p2_ll'
I1
tp859
a(S'p2_th'
I1
tp860
a(S'w'
I3
tp861
a(S'p2_tl'
I172
tp862
a(S'w'
I14
tp863
a(S'tr_lh'
I1
tp864
a(S'tr_lr'
I16
tp865
a(S'w'
I5
tp866
a(S'tr_ll'
I1
tp867
a(S'w'
I12
tp868
a(S'ch_no'
I1
tp869
a(S'ch_tr'
I1
tp870
a(S'ch_p2'
I1
tp871
a(S'ch_p1'
I1
tp872
a(S'w'
I1
tp873
a(S'ch_no'
I1
tp874
a(S'ch_tr'
I1
tp875
a(S'ch_p2'
I1
tp876
a(S'ch_p1'
I1
tp877
a(S'w'
I650
tp878
a(S'p1_du'
I1
tp879
a(S'p1_vo'
I5
tp880
a(S'w'
I10
tp881
a(S'p2_du'
I2
tp882
a(S'p2_vo'
I6
tp883
a(S'w'
I723
tp884
a(S'p1_vo'
I4
tp885
a(S'w'
I10
tp886
a(S'p2_vo'
I5
tp887
a(S'w'
I722
tp888
a(S'p1_vo'
I3
tp889
a(S'w'
I11
tp890
a(S'p2_vo'
I4
tp891
a(S'w'
I728
tp892
a(S'p2_vo'
I3
tp893
a(S'w'
I1458
tp894
a(S'p1_vo'
I2
tp895
a(S'w'
I739
tp896
a(S'p2_vo'
I2
tp897
a(S'w'
I2924
tp898
a(S'p1_vo'
I1
tp899
a(S'w'
I740
tp900
a(S'p1_du'
I0
tp901
a(S'p1_vo'
I0
tp902
a(S'w'
I17
tp903
a(S'p2_du'
I0
tp904
a(S'p2_vo'
I0
tp905
a(S'w'
I2173
tp906
a(S'tr_lh'
I0
tp907
a(S'tr_lr'
I0
tp908
a(S'w'
I6629
tp909
a(S'p2_du'
I2
tp910
a(S'p2_vo'
I3
tp911
a(S'w'
I5
tp912
a(S'p2_ll'
I1
tp913
a(S'p2_th'
I0
tp914
a(S'w'
I3
tp915
a(S'p2_tl'
I85
tp916
a(S'w'
I8
tp917
a(S'ch_no'
I1
tp918
a(S'ch_tr'
I0
tp919
a(S'ch_p2'
I1
tp920
a(S'ch_p1'
I1
tp921
a(S'ch_no'
I1
tp922
a(S'ch_tr'
I1
tp923
a(S'ch_p2'
I1
tp924
a(S'ch_p1'
I1
tp925
a(S'w'
I684
tp926
a(S'p2_vo'
I2
tp927
a(S'w'
I732
tp928
a(S'p2_vo'
I1
tp929
a(S'w'
I2197
tp930
a(S'w'
I6
tp931
a(S'w'
I2205
tp932
a(S'p2_vo'
I3
tp933
a(S'w'
I6
tp934
a(S'p2_tl'
I107
tp935
a(S'w'
I715
tp936
a(S'p2_vo'
I2
tp937
a(S'w'
I732
tp938
a(S'p2_vo'
I1
tp939
a(S'w'
I2197
tp940
a(S'p2_tl'
I85
tp941
a(S'w'
I2211
tp942
a(S'p2_vo'
I3
tp943
a(S'w'
I6
tp944
a(S'p2_tl'
I71
tp945
a(S'w'
I714
tp946
a(S'p2_vo'
I2
tp947
a(S'w'
I733
tp948
a(S'p2_vo'
I1
tp949
a(S'w'
I2197
tp950
a(S'p2_tl'
I107
tp951
a(S'w'
I2211
tp952
a(S'p2_vo'
I3
tp953
a(S'w'
I6
tp954
a(S'p2_tl'
I95
tp955
a(S'w'
I714
tp956
a(S'p2_vo'
I2
tp957
a(S'w'
I733
tp958
a(S'p2_vo'
I1
tp959
a(S'w'
I2197
tp960
a(S'p2_tl'
I71
tp961
a(S'w'
I2216
tp962
a(S'p2_vo'
I3
tp963
a(S'w'
I6
tp964
a(S'p2_tl'
I85
tp965
a(S'w'
I709
tp966
a(S'p2_vo'
I2
tp967
a(S'w'
I733
tp968
a(S'p2_vo'
I1
tp969
a(S'w'
I2197
tp970
a(S'p2_tl'
I95
tp971
a(S'w'
I6
tp972
a.