(lp1
(S'clock'
p2
I1789773
tp3
a(S'fc_mo'
I1
tp4
a(S'p1_sp'
I7
tp5
a(S'p1_sn'
I1
tp6
a(S'p1_ss'
I7
tp7
a(S'p2_sp'
I7
tp8
a(S'p2_sn'
I1
tp9
a(S'p2_ss'
I7
tp10
a(S'w'
I46
tp11
a(S'p1_du'
I2
tp12
a(S'p1_lh'
I1
tp13
a(S'p1_cv'
I1
tp14
a(S'p1_vo'
I7
tp15
a(S'w'
I5
tp16
a(S'p1_ll'
I1
tp17
a(S'p1_th'
I1
tp18
a(S'w'
I3
tp19
a(S'p1_tl'
I125
tp20
a(S'w'
I40
tp21
a(S'p2_du'
I2
tp22
a(S'p2_lh'
I1
tp23
a(S'p2_cv'
I1
tp24
a(S'p2_vo'
I7
tp25
a(S'w'
I5
tp26
a(S'p2_ll'
I1
tp27
a(S'w'
I3
tp28
a(S'p2_tl'
I151
tp29
a(S'w'
I25
tp30
a(S'tr_lh'
I1
tp31
a(S'tr_lr'
I16
tp32
a(S'w'
I5
tp33
a(S'tr_ll'
I1
tp34
a(S'tr_th'
I1
tp35
a(S'w'
I3
tp36
a(S'tr_tl'
I125
tp37
a(S'w'
I12
tp38
a(S'ch_no'
I1
tp39
a(S'ch_tr'
I1
tp40
a(S'ch_p2'
I1
tp41
a(S'ch_p1'
I1
tp42
a(S'w'
I1
tp43
a(S'ch_no'
I1
tp44
a(S'ch_tr'
I1
tp45
a(S'ch_p2'
I1
tp46
a(S'ch_p1'
I1
tp47
a(S'w'
I605
tp48
a(S'p1_du'
I0
tp49
a(S'p1_vo'
I6
tp50
a(S'w'
I13
tp51
a(S'p2_du'
I1
tp52
a(S'p2_vo'
I8
tp53
a(S'w'
I721
tp54
a(S'p1_vo'
I5
tp55
a(S'w'
I12
tp56
a(S'p2_vo'
I7
tp57
a(S'w'
I722
tp58
a(S'p1_vo'
I4
tp59
a(S'w'
I12
tp60
a(S'p2_vo'
I6
tp61
a(S'w'
I722
tp62
a(S'p1_vo'
I3
tp63
a(S'w'
I12
tp64
a(S'p2_vo'
I5
tp65
a(S'w'
I722
tp66
a(S'p1_vo'
I2
tp67
a(S'w'
I14
tp68
a(S'p2_vo'
I4
tp69
a(S'w'
I726
tp70
a(S'p2_vo'
I3
tp71
a(S'w'
I4402
tp72
a(S'tr_lh'
I0
tp73
a(S'tr_lr'
I0
tp74
a(S'w'
I726
tp75
a(S'w'
I6
tp76
a(S'p1_vo'
I1
tp77
a(S'w'
I10
tp78
a(S'w'
I6
tp79
a(S'p2_vo'
I1
tp80
a(S'w'
I1447
tp81
a(S'w'
I14
tp82
a(S'w'
I3665
tp83
a(S'p1_du'
I2
tp84
a(S'p1_vo'
I7
tp85
a(S'w'
I6
tp86
a(S'w'
I24
tp87
a(S'p2_du'
I2
tp88
a(S'p2_vo'
I7
tp89
a(S'w'
I6
tp90
a(S'w'
I17
tp91
a(S'tr_lh'
I1
tp92
a(S'tr_lr'
I16
tp93
a(S'w'
I5
tp94
a(S'tr_ll'
I1
tp95
a(S'w'
I12
tp96
a(S'ch_no'
I1
tp97
a(S'ch_tr'
I1
tp98
a(S'ch_p2'
I1
tp99
a(S'ch_p1'
I1
tp100
a(S'w'
I1
tp101
a(S'ch_no'
I1
tp102
a(S'ch_tr'
I1
tp103
a(S'ch_p2'
I1
tp104
a(S'ch_p1'
I1
tp105
a(S'w'
I653
tp106
a(S'p1_du'
I0
tp107
a(S'p1_vo'
I6
tp108
a(S'w'
I13
tp109
a(S'p2_du'
I1
tp110
a(S'p2_vo'
I8
tp111
a(S'w'
I721
tp112
a(S'p1_vo'
I5
tp113
a(S'w'
I12
tp114
a(S'p2_vo'
I7
tp115
a(S'w'
I722
tp116
a(S'p1_vo'
I4
tp117
a(S'w'
I12
tp118
a(S'p2_vo'
I6
tp119
a(S'w'
I722
tp120
a(S'p1_vo'
I3
tp121
a(S'w'
I12
tp122
a(S'p2_vo'
I5
tp123
a(S'w'
I723
tp124
a(S'p1_vo'
I2
tp125
a(S'w'
I13
tp126
a(S'p2_vo'
I4
tp127
a(S'w'
I726
tp128
a(S'p2_vo'
I3
tp129
a(S'w'
I5128
tp130
a(S'w'
I6
tp131
a(S'p1_vo'
I1
tp132
a(S'w'
I10
tp133
a(S'w'
I6
tp134
a(S'p2_vo'
I1
tp135
a(S'w'
I1447
tp136
a(S'w'
I14
tp137
a(S'w'
I1457
tp138
a(S'tr_lh'
I0
tp139
a(S'tr_lr'
I0
tp140
a(S'w'
I2209
tp141
a(S'p1_du'
I2
tp142
a(S'p1_vo'
I3
tp143
a(S'w'
I5
tp144
a(S'w'
I25
tp145
a(S'p2_du'
I2
tp146
a(S'p2_vo'
I4
tp147
a(S'w'
I6
tp148
a(S'p2_tl'
I190
tp149
a(S'w'
I686
tp150
a(S'p1_du'
I0
tp151
a(S'p1_vo'
I2
tp152
a(S'w'
I12
tp153
a(S'p2_du'
I1
tp154
a(S'p2_vo'
I5
tp155
a(S'w'
I722
tp156
a(S'p1_vo'
I1
tp157
a(S'w'
I11
tp158
a(S'p2_vo'
I4
tp159
a(S'w'
I734
tp160
a(S'p2_vo'
I3
tp161
a(S'w'
I733
tp162
a(S'p2_vo'
I2
tp163
a(S'w'
I737
tp164
a(S'p2_vo'
I1
tp165
a(S'w'
I1452
tp166
a(S'w'
I16
tp167
a(S'p2_tl'
I151
tp168
a(S'w'
I2199
tp169
a(S'p1_du'
I2
tp170
a(S'p1_vo'
I7
tp171
a(S'w'
I5
tp172
a(S'p1_ll'
I1
tp173
a(S'p1_th'
I0
tp174
a(S'w'
I3
tp175
a(S'p1_tl'
I254
tp176
a(S'w'
I25
tp177
a(S'p2_du'
I2
tp178
a(S'p2_vo'
I7
tp179
a(S'w'
I6
tp180
a(S'w'
I16
tp181
a(S'tr_lh'
I1
tp182
a(S'tr_lr'
I16
tp183
a(S'w'
I5
tp184
a(S'tr_ll'
I1
tp185
a(S'w'
I11
tp186
a(S'ch_no'
I1
tp187
a(S'ch_tr'
I1
tp188
a(S'ch_p2'
I1
tp189
a(S'ch_p1'
I1
tp190
a(S'w'
I1
tp191
a(S'ch_no'
I1
tp192
a(S'ch_tr'
I1
tp193
a(S'ch_p2'
I1
tp194
a(S'ch_p1'
I1
tp195
a(S'w'
I650
tp196
a(S'p1_du'
I0
tp197
a(S'p1_vo'
I6
tp198
a(S'w'
I13
tp199
a(S'p2_du'
I1
tp200
a(S'p2_vo'
I8
tp201
a(S'w'
I721
tp202
a(S'p1_vo'
I5
tp203
a(S'w'
I12
tp204
a(S'p2_vo'
I7
tp205
a(S'w'
I721
tp206
a(S'p1_vo'
I4
tp207
a(S'w'
I12
tp208
a(S'p2_vo'
I6
tp209
a(S'w'
I722
tp210
a(S'p1_vo'
I3
tp211
a(S'w'
I12
tp212
a(S'p2_vo'
I5
tp213
a(S'w'
I724
tp214
a(S'p1_vo'
I2
tp215
a(S'w'
I13
tp216
a(S'p2_vo'
I4
tp217
a(S'w'
I726
tp218
a(S'p2_vo'
I3
tp219
a(S'w'
I4
tp220
a(S'tr_lh'
I0
tp221
a(S'tr_lr'
I0
tp222
a(S'w'
I721
tp223
a(S'p1_ll'
I1
tp224
a(S'p1_th'
I1
tp225
a(S'w'
I3
tp226
a(S'p1_tl'
I125
tp227
a(S'w'
I6
tp228
a(S'p1_vo'
I1
tp229
a(S'w'
I10
tp230
a(S'p2_tl'
I190
tp231
a(S'w'
I6
tp232
a(S'p2_vo'
I1
tp233
a(S'w'
I2192
tp234
a(S'p1_du'
I2
tp235
a(S'p1_vo'
I7
tp236
a(S'w'
I5
tp237
a(S'p1_tl'
I29
tp238
a(S'w'
I24
tp239
a(S'p2_du'
I2
tp240
a(S'p2_vo'
I7
tp241
a(S'w'
I6
tp242
a(S'p2_tl'
I170
tp243
a(S'w'
I19
tp244
a(S'tr_lh'
I1
tp245
a(S'tr_lr'
I16
tp246
a(S'w'
I5
tp247
a(S'tr_ll'
I1
tp248
a(S'w'
I3
tp249
a(S'tr_tl'
I83
tp250
a(S'w'
I9
tp251
a(S'ch_no'
I1
tp252
a(S'ch_tr'
I1
tp253
a(S'ch_p2'
I1
tp254
a(S'ch_p1'
I1
tp255
a(S'w'
I1
tp256
a(S'ch_no'
I1
tp257
a(S'ch_tr'
I1
tp258
a(S'ch_p2'
I1
tp259
a(S'ch_p1'
I1
tp260
a(S'w'
I649
tp261
a(S'p1_du'
I0
tp262
a(S'p1_vo'
I6
tp263
a(S'w'
I12
tp264
a(S'p2_du'
I1
tp265
a(S'p2_vo'
I8
tp266
a(S'w'
I722
tp267
a(S'p1_vo'
I5
tp268
a(S'w'
I11
tp269
a(S'p2_vo'
I7
tp270
a(S'w'
I722
tp271
a(S'p1_vo'
I4
tp272
a(S'w'
I11
tp273
a(S'p2_vo'
I6
tp274
a(S'w'
I723
tp275
a(S'p1_vo'
I3
tp276
a(S'w'
I11
tp277
a(S'p2_vo'
I5
tp278
a(S'w'
I725
tp279
a(S'p1_vo'
I2
tp280
a(S'w'
I13
tp281
a(S'p2_vo'
I4
tp282
a(S'w'
I726
tp283
a(S'p2_vo'
I3
tp284
a(S'w'
I733
tp285
a(S'p2_tl'
I151
tp286
a(S'w'
I6
tp287
a(S'p2_vo'
I1
tp288
a(S'w'
I2209
tp289
a(S'p2_du'
I2
tp290
a(S'p2_vo'
I7
tp291
a(S'w'
I6
tp292
a(S'p2_tl'
I190
tp293
a(S'w'
I716
tp294
a(S'p2_du'
I1
tp295
a(S'p2_vo'
I8
tp296
a(S'w'
I733
tp297
a(S'p2_vo'
I7
tp298
a(S'w'
I733
tp299
a(S'p2_vo'
I6
tp300
a(S'w'
I734
tp301
a(S'p2_vo'
I5
tp302
a(S'w'
I727
tp303
a(S'w'
I6
tp304
a(S'p1_vo'
I1
tp305
a(S'w'
I12
tp306
a(S'p2_vo'
I4
tp307
a(S'w'
I720
tp308
a(S'p2_vo'
I3
tp309
a(S'w'
I732
tp310
a(S'p2_tl'
I170
tp311
a(S'w'
I6
tp312
a(S'p2_vo'
I1
tp313
a(S'w'
I2202
tp314
a(S'p1_du'
I2
tp315
a(S'p1_vo'
I7
tp316
a(S'w'
I5
tp317
a(S'w'
I24
tp318
a(S'p2_du'
I2
tp319
a(S'p2_vo'
I7
tp320
a(S'w'
I6
tp321
a(S'p2_tl'
I226
tp322
a(S'w'
I13
tp323
a(S'ch_no'
I1
tp324
a(S'ch_tr'
I1
tp325
a(S'ch_p2'
I1
tp326
a(S'ch_p1'
I1
tp327
a(S'w'
I1
tp328
a(S'ch_no'
I1
tp329
a(S'ch_tr'
I1
tp330
a(S'ch_p2'
I1
tp331
a(S'ch_p1'
I1
tp332
a(S'w'
I676
tp333
a(S'p1_du'
I0
tp334
a(S'p1_vo'
I6
tp335
a(S'w'
I13
tp336
a(S'p2_du'
I1
tp337
a(S'p2_vo'
I8
tp338
a(S'w'
I3
tp339
a(S'tr_lh'
I0
tp340
a(S'tr_lr'
I0
tp341
a(S'w'
I717
tp342
a(S'p1_vo'
I5
tp343
a(S'w'
I11
tp344
a(S'p2_vo'
I7
tp345
a(S'w'
I723
tp346
a(S'p1_vo'
I4
tp347
a(S'w'
I11
tp348
a(S'p2_vo'
I6
tp349
a(S'w'
I722
tp350
a(S'p1_vo'
I3
tp351
a(S'w'
I11
tp352
a(S'p2_vo'
I5
tp353
a(S'w'
I724
tp354
a(S'p1_vo'
I2
tp355
a(S'w'
I13
tp356
a(S'p2_vo'
I4
tp357
a(S'w'
I11
tp358
a(S'ch_no'
I1
tp359
a(S'ch_tr'
I1
tp360
a(S'ch_p2'
I1
tp361
a(S'ch_p1'
I1
tp362
a(S'w'
I1
tp363
a(S'ch_no'
I1
tp364
a(S'ch_tr'
I1
tp365
a(S'ch_p2'
I1
tp366
a(S'ch_p1'
I1
tp367
a(S'w'
I716
tp368
a(S'p2_vo'
I3
tp369
a(S'w'
I732
tp370
a(S'p2_tl'
I190
tp371
a(S'w'
I6
tp372
a(S'p2_vo'
I1
tp373
a(S'w'
I721
tp374
a(S'w'
I5
tp375
a(S'p1_vo'
I1
tp376
a(S'w'
I1473
tp377
a(S'p1_du'
I2
tp378
a(S'p1_vo'
I7
tp379
a(S'w'
I6
tp380
a(S'w'
I25
tp381
a(S'p2_du'
I2
tp382
a(S'p2_vo'
I7
tp383
a(S'w'
I6
tp384
a(S'w'
I27
tp385
a(S'tr_lh'
I1
tp386
a(S'tr_lr'
I16
tp387
a(S'w'
I6
tp388
a(S'tr_ll'
I1
tp389
a(S'tr_th'
I2
tp390
a(S'w'
I3
tp391
a(S'tr_tl'
I23
tp392
a(S'w'
I9
tp393
a(S'ch_no'
I1
tp394
a(S'ch_tr'
I1
tp395
a(S'ch_p2'
I1
tp396
a(S'ch_p1'
I1
tp397
a(S'w'
I1
tp398
a(S'ch_no'
I1
tp399
a(S'ch_tr'
I1
tp400
a(S'ch_p2'
I1
tp401
a(S'ch_p1'
I1
tp402
a(S'w'
I643
tp403
a(S'p1_du'
I0
tp404
a(S'p1_vo'
I6
tp405
a(S'w'
I13
tp406
a(S'p2_du'
I1
tp407
a(S'p2_vo'
I8
tp408
a(S'w'
I12
tp409
a(S'tr_tl'
I20
tp410
a(S'w'
I708
tp411
a(S'p1_vo'
I5
tp412
a(S'w'
I12
tp413
a(S'p2_vo'
I7
tp414
a(S'w'
I12
tp415
a(S'tr_tl'
I17
tp416
a(S'w'
I710
tp417
a(S'p1_vo'
I4
tp418
a(S'w'
I11
tp419
a(S'p2_vo'
I6
tp420
a(S'w'
I12
tp421
a(S'tr_tl'
I14
tp422
a(S'w'
I709
tp423
a(S'p1_vo'
I3
tp424
a(S'w'
I12
tp425
a(S'p2_vo'
I5
tp426
a(S'w'
I12
tp427
a(S'tr_tl'
I11
tp428
a(S'w'
I712
tp429
a(S'p1_vo'
I2
tp430
a(S'w'
I13
tp431
a(S'p2_vo'
I4
tp432
a(S'w'
I12
tp433
a(S'tr_tl'
I8
tp434
a(S'w'
I714
tp435
a(S'p2_vo'
I3
tp436
a(S'w'
I13
tp437
a(S'tr_tl'
I5
tp438
a(S'w'
I728
tp439
a(S'tr_tl'
I2
tp440
a(S'w'
I734
tp441
a(S'tr_ll'
I1
tp442
a(S'tr_th'
I1
tp443
a(S'w'
I3
tp444
a(S'tr_tl'
I255
tp445
a(S'w'
I731
tp446
a(S'tr_tl'
I252
tp447
a(S'w'
I2926
tp448
a(S'w'
I6
tp449
a(S'p2_vo'
I1
tp450
a(S'w'
I727
tp451
a(S'tr_lh'
I0
tp452
a(S'tr_lr'
I0
tp453
a(S'w'
I729
tp454
a(S'w'
I6
tp455
a(S'p1_vo'
I1
tp456
a(S'w'
I12
tp457
a(S'w'
I3661
tp458
a(S'p1_du'
I2
tp459
a(S'p1_vo'
I7
tp460
a(S'w'
I5
tp461
a(S'w'
I24
tp462
a(S'p2_du'
I2
tp463
a(S'p2_vo'
I7
tp464
a(S'w'
I6
tp465
a(S'p2_tl'
I170
tp466
a(S'w'
I13
tp467
a(S'tr_lh'
I1
tp468
a(S'tr_lr'
I16
tp469
a(S'w'
I8
tp470
a(S'tr_ll'
I1
tp471
a(S'tr_th'
I0
tp472
a(S'w'
I3
tp473
a(S'tr_tl'
I254
tp474
a(S'w'
I8
tp475
a(S'ch_no'
I1
tp476
a(S'ch_tr'
I1
tp477
a(S'ch_p2'
I1
tp478
a(S'ch_p1'
I1
tp479
a(S'w'
I1
tp480
a(S'ch_no'
I1
tp481
a(S'ch_tr'
I1
tp482
a(S'ch_p2'
I1
tp483
a(S'ch_p1'
I1
tp484
a(S'w'
I656
tp485
a(S'p1_du'
I0
tp486
a(S'p1_vo'
I6
tp487
a(S'w'
I13
tp488
a(S'p2_du'
I1
tp489
a(S'p2_vo'
I8
tp490
a(S'w'
I721
tp491
a(S'p1_vo'
I5
tp492
a(S'w'
I11
tp493
a(S'p2_vo'
I7
tp494
a(S'w'
I723
tp495
a(S'p1_vo'
I4
tp496
a(S'w'
I11
tp497
a(S'p2_vo'
I6
tp498
a(S'w'
I722
tp499
a(S'p1_vo'
I3
tp500
a(S'w'
I11
tp501
a(S'p2_vo'
I5
tp502
a(S'w'
I724
tp503
a(S'p1_vo'
I2
tp504
a(S'w'
I13
tp505
a(S'p2_vo'
I4
tp506
a(S'w'
I725
tp507
a(S'p2_vo'
I3
tp508
a(S'w'
I733
tp509
a(S'p2_tl'
I190
tp510
a(S'w'
I6
tp511
a(S'p2_vo'
I1
tp512
a(S'w'
I4
tp513
a(S'tr_lh'
I0
tp514
a(S'tr_lr'
I0
tp515
a(S'w'
I717
tp516
a(S'w'
I6
tp517
a(S'p1_vo'
I1
tp518
a(S'w'
I1474
tp519
a(S'p1_du'
I2
tp520
a(S'p1_vo'
I7
tp521
a(S'w'
I6
tp522
a(S'p1_tl'
I46
tp523
a(S'w'
I24
tp524
a(S'p2_du'
I2
tp525
a(S'p2_vo'
I7
tp526
a(S'w'
I6
tp527
a(S'w'
I20
tp528
a(S'tr_lh'
I1
tp529
a(S'tr_lr'
I16
tp530
a(S'w'
I5
tp531
a(S'tr_ll'
I1
tp532
a(S'tr_th'
I1
tp533
a(S'w'
I3
tp534
a(S'tr_tl'
I125
tp535
a(S'w'
I10
tp536
a(S'ch_no'
I1
tp537
a(S'ch_tr'
I1
tp538
a(S'ch_p2'
I1
tp539
a(S'ch_p1'
I1
tp540
a(S'w'
I1
tp541
a(S'ch_no'
I1
tp542
a(S'ch_tr'
I1
tp543
a(S'ch_p2'
I1
tp544
a(S'ch_p1'
I1
tp545
a(S'w'
I649
tp546
a(S'p1_du'
I0
tp547
a(S'p1_vo'
I6
tp548
a(S'w'
I13
tp549
a(S'p2_du'
I1
tp550
a(S'p2_vo'
I8
tp551
a(S'w'
I721
tp552
a(S'p1_vo'
I5
tp553
a(S'w'
I12
tp554
a(S'p2_vo'
I7
tp555
a(S'w'
I722
tp556
a(S'p1_vo'
I4
tp557
a(S'w'
I12
tp558
a(S'p2_vo'
I6
tp559
a(S'w'
I722
tp560
a(S'p1_vo'
I3
tp561
a(S'w'
I12
tp562
a(S'p2_vo'
I5
tp563
a(S'w'
I722
tp564
a(S'p1_vo'
I2
tp565
a(S'w'
I14
tp566
a(S'p2_vo'
I4
tp567
a(S'w'
I726
tp568
a(S'p2_vo'
I3
tp569
a(S'w'
I5136
tp570
a(S'w'
I6
tp571
a(S'p2_vo'
I1
tp572
a(S'w'
I3
tp573
a(S'tr_lh'
I0
tp574
a(S'tr_lr'
I0
tp575
a(S'w'
I1452
tp576
a(S'w'
I6
tp577
a(S'p1_vo'
I1
tp578
a(S'w'
I12
tp579
a(S'w'
I3660
tp580
a(S'p1_du'
I2
tp581
a(S'p1_vo'
I7
tp582
a(S'w'
I6
tp583
a(S'p1_tl'
I125
tp584
a(S'w'
I24
tp585
a(S'p2_du'
I2
tp586
a(S'p2_vo'
I7
tp587
a(S'w'
I5
tp588
a(S'w'
I16
tp589
a(S'tr_lh'
I1
tp590
a(S'tr_lr'
I16
tp591
a(S'w'
I5
tp592
a(S'tr_ll'
I1
tp593
a(S'w'
I11
tp594
a(S'ch_no'
I1
tp595
a(S'ch_tr'
I1
tp596
a(S'ch_p2'
I1
tp597
a(S'ch_p1'
I1
tp598
a(S'w'
I1
tp599
a(S'ch_no'
I1
tp600
a(S'ch_tr'
I1
tp601
a(S'ch_p2'
I1
tp602
a(S'ch_p1'
I1
tp603
a(S'w'
I656
tp604
a(S'p1_du'
I0
tp605
a(S'p1_vo'
I6
tp606
a(S'w'
I13
tp607
a(S'p2_du'
I1
tp608
a(S'p2_vo'
I8
tp609
a(S'w'
I721
tp610
a(S'p1_vo'
I5
tp611
a(S'w'
I12
tp612
a(S'p2_vo'
I7
tp613
a(S'w'
I722
tp614
a(S'p1_vo'
I4
tp615
a(S'w'
I12
tp616
a(S'p2_vo'
I6
tp617
a(S'w'
I722
tp618
a(S'p1_vo'
I3
tp619
a(S'w'
I11
tp620
a(S'p2_vo'
I5
tp621
a(S'w'
I724
tp622
a(S'p1_vo'
I2
tp623
a(S'w'
I13
tp624
a(S'p2_vo'
I4
tp625
a(S'w'
I726
tp626
a(S'p2_vo'
I3
tp627
a(S'w'
I733
tp628
a(S'w'
I6
tp629
a(S'p2_vo'
I1
tp630
a(S'w'
I3
tp631
a(S'tr_lh'
I0
tp632
a(S'tr_lr'
I0
tp633
a(S'w'
I718
tp634
a(S'p1_tl'
I46
tp635
a(S'w'
I6
tp636
a(S'p1_vo'
I1
tp637
a(S'w'
I1473
tp638
a(S'p1_du'
I2
tp639
a(S'p1_vo'
I7
tp640
a(S'w'
I6
tp641
a(S'p1_tl'
I252
tp642
a(S'w'
I25
tp643
a(S'p2_du'
I2
tp644
a(S'p2_vo'
I7
tp645
a(S'w'
I5
tp646
a(S'p2_tl'
I254
tp647
a(S'w'
I25
tp648
a(S'tr_lh'
I1
tp649
a(S'tr_lr'
I16
tp650
a(S'w'
I5
tp651
a(S'tr_ll'
I1
tp652
a(S'w'
I3
tp653
a(S'tr_tl'
I252
tp654
a(S'w'
I8
tp655
a(S'ch_no'
I1
tp656
a(S'ch_tr'
I1
tp657
a(S'ch_p2'
I1
tp658
a(S'ch_p1'
I1
tp659
a(S'w'
I1
tp660
a(S'ch_no'
I1
tp661
a(S'ch_tr'
I1
tp662
a(S'ch_p2'
I1
tp663
a(S'ch_p1'
I1
tp664
a(S'w'
I646
tp665
a(S'p1_du'
I0
tp666
a(S'p1_vo'
I6
tp667
a(S'w'
I13
tp668
a(S'p2_du'
I1
tp669
a(S'p2_vo'
I8
tp670
a(S'w'
I721
tp671
a(S'p1_vo'
I5
tp672
a(S'w'
I12
tp673
a(S'p2_vo'
I7
tp674
a(S'w'
I722
tp675
a(S'p1_vo'
I4
tp676
a(S'w'
I12
tp677
a(S'p2_vo'
I6
tp678
a(S'w'
I721
tp679
a(S'p1_vo'
I3
tp680
a(S'w'
I12
tp681
a(S'p2_vo'
I5
tp682
a(S'w'
I724
tp683
a(S'p1_vo'
I2
tp684
a(S'w'
I13
tp685
a(S'p2_vo'
I4
tp686
a(S'w'
I726
tp687
a(S'p2_vo'
I3
tp688
a(S'w'
I5136
tp689
a(S'w'
I6
tp690
a(S'p2_vo'
I1
tp691
a(S'w'
I3
tp692
a(S'tr_lh'
I0
tp693
a(S'tr_lr'
I0
tp694
a(S'w'
I1452
tp695
a(S'w'
I6
tp696
a(S'p1_vo'
I1
tp697
a(S'w'
I12
tp698
a(S'w'
I3659
tp699
a(S'p1_du'
I2
tp700
a(S'p1_vo'
I7
tp701
a(S'w'
I6
tp702
a(S'p1_tl'
I197
tp703
a(S'w'
I23
tp704
a(S'p2_du'
I2
tp705
a(S'p2_vo'
I7
tp706
a(S'w'
I6
tp707
a(S'p2_tl'
I226
tp708
a(S'w'
I16
tp709
a(S'tr_lh'
I1
tp710
a(S'tr_lr'
I16
tp711
a(S'w'
I4
tp712
a(S'tr_ll'
I1
tp713
a(S'w'
I3
tp714
a(S'tr_tl'
I197
tp715
a(S'w'
I8
tp716
a(S'ch_no'
I1
tp717
a(S'ch_tr'
I1
tp718
a(S'ch_p2'
I1
tp719
a(S'ch_p1'
I1
tp720
a(S'w'
I1
tp721
a(S'ch_no'
I1
tp722
a(S'ch_tr'
I1
tp723
a(S'ch_p2'
I1
tp724
a(S'ch_p1'
I1
tp725
a(S'w'
I658
tp726
a(S'p1_du'
I0
tp727
a(S'p1_vo'
I6
tp728
a(S'w'
I13
tp729
a(S'p2_du'
I1
tp730
a(S'p2_vo'
I8
tp731
a(S'w'
I721
tp732
a(S'p1_vo'
I5
tp733
a(S'w'
I12
tp734
a(S'p2_vo'
I7
tp735
a(S'w'
I721
tp736
a(S'p1_vo'
I4
tp737
a(S'w'
I12
tp738
a(S'p2_vo'
I6
tp739
a(S'w'
I722
tp740
a(S'p1_vo'
I3
tp741
a(S'w'
I12
tp742
a(S'p2_vo'
I5
tp743
a(S'w'
I724
tp744
a(S'p1_vo'
I2
tp745
a(S'w'
I13
tp746
a(S'p2_vo'
I4
tp747
a(S'w'
I726
tp748
a(S'p2_vo'
I3
tp749
a(S'w'
I733
tp750
a(S'p2_tl'
I254
tp751
a(S'w'
I6
tp752
a(S'p2_vo'
I1
tp753
a(S'w'
I4
tp754
a(S'tr_lh'
I0
tp755
a(S'tr_lr'
I0
tp756
a(S'w'
I716
tp757
a(S'p1_tl'
I252
tp758
a(S'w'
I6
tp759
a(S'p1_vo'
I1
tp760
a(S'w'
I1477
tp761
a(S'p1_du'
I2
tp762
a(S'p1_vo'
I7
tp763
a(S'w'
I6
tp764
a(S'p1_ll'
I1
tp765
a(S'p1_th'
I2
tp766
a(S'w'
I2
tp767
a(S'p1_tl'
I250
tp768
a(S'w'
I25
tp769
a(S'p2_du'
I2
tp770
a(S'p2_vo'
I7
tp771
a(S'w'
I6
tp772
a(S'p2_tl'
I190
tp773
a(S'w'
I17
tp774
a(S'tr_lh'
I1
tp775
a(S'tr_lr'
I16
tp776
a(S'w'
I5
tp777
a(S'tr_ll'
I1
tp778
a(S'w'
I3
tp779
a(S'tr_tl'
I125
tp780
a(S'w'
I9
tp781
a(S'ch_no'
I1
tp782
a(S'ch_tr'
I1
tp783
a(S'ch_p2'
I1
tp784
a(S'ch_p1'
I1
tp785
a(S'w'
I1
tp786
a(S'ch_no'
I1
tp787
a(S'ch_tr'
I1
tp788
a(S'ch_p2'
I1
tp789
a(S'ch_p1'
I1
tp790
a(S'w'
I647
tp791
a(S'p1_du'
I0
tp792
a(S'p1_vo'
I6
tp793
a(S'w'
I13
tp794
a(S'p2_du'
I1
tp795
a(S'p2_vo'
I8
tp796
a(S'w'
I721
tp797
a(S'p1_vo'
I5
tp798
a(S'w'
I12
tp799
a(S'p2_vo'
I7
tp800
a(S'w'
I721
tp801
a(S'p1_vo'
I4
tp802
a(S'w'
I12
tp803
a(S'p2_vo'
I6
tp804
a(S'w'
I722
tp805
a(S'p1_vo'
I3
tp806
a(S'w'
I12
tp807
a(S'p2_vo'
I5
tp808
a(S'w'
I723
tp809
a(S'p1_vo'
I2
tp810
a(S'w'
I14
tp811
a(S'p2_vo'
I4
tp812
a(S'w'
I726
tp813
a(S'p2_vo'
I3
tp814
a(S'w'
I5127
tp815
a(S'w'
I6
tp816
a(S'p1_vo'
I1
tp817
a(S'w'
I10
tp818
a(S'w'
I6
tp819
a(S'p2_vo'
I1
tp820
a(S'w'
I4
tp821
a(S'tr_lh'
I0
tp822
a(S'tr_lr'
I0
tp823
a(S'w'
I1444
tp824
a(S'w'
I14
tp825
a(S'w'
I3664
tp826
a(S'p1_du'
I2
tp827
a(S'p1_vo'
I7
tp828
a(S'w'
I5
tp829
a(S'p1_ll'
I1
tp830
a(S'p1_th'
I1
tp831
a(S'w'
I3
tp832
a(S'p1_tl'
I252
tp833
a(S'w'
I26
tp834
a(S'p2_du'
I2
tp835
a(S'p2_vo'
I7
tp836
a(S'w'
I6
tp837
a(S'p2_tl'
I254
tp838
a(S'w'
I23
tp839
a(S'tr_lh'
I1
tp840
a(S'tr_lr'
I16
tp841
a(S'w'
I5
tp842
a(S'tr_ll'
I1
tp843
a(S'tr_th'
I0
tp844
a(S'w'
I3
tp845
a(S'tr_tl'
I63
tp846
a(S'w'
I652
tp847
a(S'p1_du'
I0
tp848
a(S'p1_vo'
I6
tp849
a(S'w'
I13
tp850
a(S'p2_du'
I1
tp851
a(S'p2_vo'
I8
tp852
a(S'w'
I720
tp853
a(S'p1_vo'
I5
tp854
a(S'w'
I11
tp855
a(S'p2_vo'
I7
tp856
a(S'w'
I723
tp857
a(S'p1_vo'
I4
tp858
a(S'w'
I11
tp859
a(S'p2_vo'
I6
tp860
a(S'w'
I722
tp861
a(S'p1_ll'
I1
tp862
a(S'p1_th'
I2
tp863
a(S'w'
I2
tp864
a(S'p1_tl'
I250
tp865
a(S'w'
I6
tp866
a(S'p1_vo'
I1
tp867
a(S'w'
I10
tp868
a(S'p2_tl'
I190
tp869
a(S'w'
I6
tp870
a(S'p2_vo'
I1
tp871
a(S'w'
I722
tp872
a(S'p1_du'
I2
tp873
a(S'p1_vo'
I7
tp874
a(S'w'
I5
tp875
a(S'p1_ll'
I1
tp876
a(S'p1_th'
I1
tp877
a(S'w'
I3
tp878
a(S'p1_tl'
I197
tp879
a(S'w'
I23
tp880
a(S'p2_du'
I2
tp881
a(S'p2_vo'
I7
tp882
a(S'w'
I5
tp883
a(S'p2_tl'
I226
tp884
a(S'w'
I17
tp885
a(S'tr_ll'
I1
tp886
a(S'w'
I3
tp887
a(S'tr_tl'
I56
tp888
a(S'w'
I667
tp889
a(S'p1_du'
I0
tp890
a(S'p1_vo'
I6
tp891
a(S'w'
I13
tp892
a(S'p2_du'
I1
tp893
a(S'p2_vo'
I8
tp894
a(S'w'
I720
tp895
a(S'p1_vo'
I5
tp896
a(S'w'
I11
tp897
a(S'p2_vo'
I7
tp898
a(S'w'
I723
tp899
a(S'p1_vo'
I4
tp900
a(S'w'
I11
tp901
a(S'p2_vo'
I6
tp902
a(S'w'
I722
tp903
a(S'p1_ll'
I1
tp904
a(S'p1_th'
I2
tp905
a(S'w'
I2
tp906
a(S'p1_tl'
I250
tp907
a(S'w'
I6
tp908
a(S'p1_vo'
I1
tp909
a(S'w'
I10
tp910
a(S'p2_tl'
I190
tp911
a(S'w'
I6
tp912
a(S'p2_vo'
I1
tp913
a(S'w'
I724
tp914
a(S'p1_du'
I2
tp915
a(S'p1_vo'
I7
tp916
a(S'w'
I5
tp917
a(S'p1_ll'
I1
tp918
a(S'p1_th'
I0
tp919
a(S'w'
I3
tp920
a(S'p1_tl'
I254
tp921
a(S'w'
I24
tp922
a(S'p2_du'
I2
tp923
a(S'p2_vo'
I7
tp924
a(S'w'
I6
tp925
a(S'w'
I19
tp926
a(S'tr_ll'
I1
tp927
a(S'w'
I3
tp928
a(S'tr_tl'
I47
tp929
a(S'w'
I9
tp930
a(S'ch_no'
I1
tp931
a(S'ch_tr'
I1
tp932
a(S'ch_p2'
I1
tp933
a(S'ch_p1'
I1
tp934
a(S'w'
I1
tp935
a(S'ch_no'
I1
tp936
a(S'ch_tr'
I1
tp937
a(S'ch_p2'
I1
tp938
a(S'ch_p1'
I1
tp939
a(S'w'
I653
tp940
a(S'p1_du'
I0
tp941
a(S'p1_vo'
I6
tp942
a(S'w'
I13
tp943
a(S'p2_du'
I1
tp944
a(S'p2_vo'
I8
tp945
a(S'w'
I720
tp946
a(S'p1_vo'
I5
tp947
a(S'w'
I12
tp948
a(S'p2_vo'
I7
tp949
a(S'w'
I722
tp950
a(S'p1_vo'
I4
tp951
a(S'w'
I12
tp952
a(S'p2_vo'
I6
tp953
a(S'w'
I722
tp954
a(S'p1_vo'
I3
tp955
a(S'w'
I12
tp956
a(S'p2_vo'
I5
tp957
a(S'w'
I723
tp958
a(S'p1_vo'
I2
tp959
a(S'w'
I14
tp960
a(S'p2_vo'
I4
tp961
a(S'w'
I725
tp962
a(S'p2_vo'
I3
tp963
a(S'w'
I2944
tp964
a(S'tr_lh'
I0
tp965
a(S'tr_lr'
I0
tp966
a(S'w'
I2184
tp967
a(S'w'
I5
tp968
a(S'p1_vo'
I1
tp969
a(S'w'
I11
tp970
a(S'w'
I5
tp971
a(S'p2_vo'
I1
tp972
a(S'w'
I1448
tp973
a(S'w'
I14
tp974
a(S'w'
I3659
tp975
a(S'p1_vo'
I0
tp976
a(S'w'
I17
tp977
a(S'p2_du'
I0
tp978
a(S'p2_vo'
I0
tp979
a(S'w'
I7333
tp980
a(S'ch_no'
I1
tp981
a(S'ch_tr'
I0
tp982
a(S'ch_p2'
I1
tp983
a(S'ch_p1'
I1
tp984
a(S'ch_no'
I1
tp985
a(S'ch_tr'
I1
tp986
a(S'ch_p2'
I1
tp987
a(S'ch_p1'
I1
tp988
a(S'w'
I64495
tp989
a.