(lp1
(S'clock'
p2
I1789773
tp3
a(S'fc_mo'
I1
tp4
a(S'p1_sp'
I7
tp5
a(S'p1_sn'
I1
tp6
a(S'p1_ss'
I7
tp7
a(S'p2_sp'
I7
tp8
a(S'p2_sn'
I1
tp9
a(S'p2_ss'
I7
tp10
a(S'w'
I18
tp11
a(S'p1_lh'
I1
tp12
a(S'p1_cv'
I1
tp13
a(S'w'
I15
tp14
a(S'p2_du'
I2
tp15
a(S'p2_lh'
I1
tp16
a(S'p2_cv'
I1
tp17
a(S'p2_vo'
I1
tp18
a(S'w'
I5
tp19
a(S'p2_ll'
I1
tp20
a(S'w'
I3
tp21
a(S'p2_tl'
I106
tp22
a(S'w'
I8
tp23
a(S'tr_lh'
I1
tp24
a(S'tr_lr'
I16
tp25
a(S'w'
I5
tp26
a(S'tr_ll'
I1
tp27
a(S'w'
I3
tp28
a(S'tr_tl'
I53
tp29
a(S'w'
I7298
tp30
a(S'p2_du'
I0
tp31
a(S'p2_vo'
I0
tp32
a(S'w'
I10
tp33
a(S'tr_lh'
I0
tp34
a(S'tr_lr'
I0
tp35
a(S'w'
I7330
tp36
a(S'p2_du'
I2
tp37
a(S'p2_vo'
I1
tp38
a(S'w'
I6
tp39
a(S'p2_tl'
I107
tp40
a(S'w'
I7333
tp41
a(S'p2_du'
I0
tp42
a(S'p2_vo'
I0
tp43
a(S'w'
I36696
tp44
a(S'p2_du'
I2
tp45
a(S'p2_vo'
I1
tp46
a(S'w'
I6
tp47
a(S'p2_tl'
I106
tp48
a(S'w'
I11
tp49
a(S'tr_lh'
I1
tp50
a(S'tr_lr'
I16
tp51
a(S'w'
I5
tp52
a(S'tr_ll'
I1
tp53
a(S'w'
I7307
tp54
a(S'p2_du'
I0
tp55
a(S'p2_vo'
I0
tp56
a(S'w'
I10
tp57
a(S'tr_lh'
I0
tp58
a(S'tr_lr'
I0
tp59
a(S'w'
I7330
tp60
a(S'p2_du'
I2
tp61
a(S'p2_vo'
I1
tp62
a(S'w'
I6
tp63
a(S'p2_tl'
I107
tp64
a(S'w'
I7333
tp65
a(S'p2_du'
I0
tp66
a(S'p2_vo'
I0
tp67
a(S'w'
I13204
tp68
a(S'p1_se'
I1
tp69
a(S'p1_sp'
I0
tp70
a(S'p1_ss'
I3
tp71
a(S'w'
I3
tp72
a(S'p1_du'
I2
tp73
a(S'p1_vo'
I1
tp74
a(S'w'
I5
tp75
a(S'p1_ll'
I1
tp76
a(S'p1_th'
I3
tp77
a(S'w'
I3
tp78
a(S'p1_tl'
I0
tp79
a(S'w'
I5865
tp80
a(S'p1_ll'
I1
tp81
a(S'p1_th'
I2
tp82
a(S'w'
I2
tp83
a(S'p1_tl'
I192
tp84
a(S'w'
I5867
tp85
a(S'p1_vo'
I2
tp86
a(S'w'
I5
tp87
a(S'p1_ll'
I1
tp88
a(S'w'
I3
tp89
a(S'p1_tl'
I128
tp90
a(S'w'
I4396
tp91
a(S'p1_ll'
I1
tp92
a(S'w'
I3
tp93
a(S'p1_tl'
I96
tp94
a(S'w'
I4400
tp95
a(S'p1_ll'
I1
tp96
a(S'w'
I3
tp97
a(S'p1_tl'
I64
tp98
a(S'w'
I2932
tp99
a(S'w'
I4
tp100
a(S'p2_du'
I2
tp101
a(S'p2_vo'
I1
tp102
a(S'w'
I6
tp103
a(S'p2_tl'
I106
tp104
a(S'w'
I11
tp105
a(S'tr_lh'
I1
tp106
a(S'tr_lr'
I16
tp107
a(S'w'
I5
tp108
a(S'tr_ll'
I1
tp109
a(S'w'
I3
tp110
a(S'w'
I1439
tp111
a(S'p1_ll'
I1
tp112
a(S'p1_th'
I1
tp113
a(S'w'
I2
tp114
a(S'p1_tl'
I128
tp115
a(S'w'
I4401
tp116
a(S'p1_ll'
I1
tp117
a(S'w'
I3
tp118
a(S'p1_tl'
I96
tp119
a(S'w'
I1459
tp120
a(S'p2_du'
I0
tp121
a(S'p2_vo'
I0
tp122
a(S'w'
I10
tp123
a(S'tr_lh'
I0
tp124
a(S'tr_lr'
I0
tp125
a(S'w'
I2930
tp126
a(S'p1_ll'
I1
tp127
a(S'w'
I3
tp128
a(S'p1_tl'
I64
tp129
a(S'w'
I4395
tp130
a(S'p1_vo'
I1
tp131
a(S'w'
I5
tp132
a(S'p1_ll'
I1
tp133
a(S'w'
I3
tp134
a(S'p1_tl'
I64
tp135
a(S'w'
I11
tp136
a(S'p2_du'
I2
tp137
a(S'p2_vo'
I1
tp138
a(S'w'
I6
tp139
a(S'p2_tl'
I107
tp140
a(S'w'
I4383
tp141
a(S'p1_ll'
I1
tp142
a(S'p1_th'
I0
tp143
a(S'w'
I2
tp144
a(S'p1_tl'
I176
tp145
a(S'w'
I2931
tp146
a(S'p2_du'
I0
tp147
a(S'p2_vo'
I0
tp148
a(S'w'
I1470
tp149
a(S'p1_ll'
I1
tp150
a(S'w'
I3
tp151
a(S'p1_tl'
I144
tp152
a(S'w'
I4399
tp153
a(S'p1_ll'
I1
tp154
a(S'w'
I3
tp155
a(S'p1_tl'
I112
tp156
a(S'w'
I4400
tp157
a(S'p1_ll'
I1
tp158
a(S'w'
I3
tp159
a(S'p1_tl'
I112
tp160
a(S'w'
I4394
tp161
a(S'p1_se'
I0
tp162
a(S'p1_sp'
I7
tp163
a(S'p1_ss'
I7
tp164
a(S'w'
I1
tp165
a(S'p1_du'
I0
tp166
a(S'p1_vo'
I0
tp167
a(S'w'
I22023
tp168
a(S'p2_du'
I2
tp169
a(S'p2_vo'
I1
tp170
a(S'w'
I6
tp171
a(S'p2_tl'
I106
tp172
a(S'w'
I11
tp173
a(S'tr_lh'
I1
tp174
a(S'tr_lr'
I16
tp175
a(S'w'
I5
tp176
a(S'tr_ll'
I1
tp177
a(S'w'
I7306
tp178
a(S'p2_du'
I0
tp179
a(S'p2_vo'
I0
tp180
a(S'w'
I10
tp181
a(S'tr_lh'
I0
tp182
a(S'tr_lr'
I0
tp183
a(S'w'
I7330
tp184
a(S'p2_du'
I2
tp185
a(S'p2_vo'
I1
tp186
a(S'w'
I6
tp187
a(S'p2_tl'
I107
tp188
a(S'w'
I7333
tp189
a(S'p2_du'
I0
tp190
a(S'p2_vo'
I0
tp191
a(S'w'
I36696
tp192
a(S'p2_du'
I2
tp193
a(S'p2_vo'
I1
tp194
a(S'w'
I6
tp195
a(S'p2_tl'
I106
tp196
a(S'w'
I11
tp197
a(S'tr_lh'
I1
tp198
a(S'tr_lr'
I16
tp199
a(S'w'
I5
tp200
a(S'tr_ll'
I1
tp201
a(S'w'
I7307
tp202
a(S'p2_du'
I0
tp203
a(S'p2_vo'
I0
tp204
a(S'w'
I10
tp205
a(S'tr_lh'
I0
tp206
a(S'tr_lr'
I0
tp207
a(S'w'
I7330
tp208
a(S'p2_du'
I2
tp209
a(S'p2_vo'
I1
tp210
a(S'w'
I6
tp211
a(S'p2_tl'
I107
tp212
a(S'w'
I7333
tp213
a(S'p2_du'
I0
tp214
a(S'p2_vo'
I0
tp215
a(S'w'
I36695
tp216
a(S'p2_du'
I2
tp217
a(S'p2_vo'
I1
tp218
a(S'w'
I6
tp219
a(S'p2_tl'
I106
tp220
a(S'w'
I11
tp221
a(S'tr_lh'
I1
tp222
a(S'tr_lr'
I16
tp223
a(S'w'
I5
tp224
a(S'tr_ll'
I1
tp225
a(S'w'
I7307
tp226
a(S'p2_du'
I0
tp227
a(S'p2_vo'
I0
tp228
a(S'w'
I10
tp229
a(S'tr_lh'
I0
tp230
a(S'tr_lr'
I0
tp231
a(S'w'
I7330
tp232
a(S'p2_du'
I2
tp233
a(S'p2_vo'
I1
tp234
a(S'w'
I6
tp235
a(S'p2_tl'
I107
tp236
a(S'w'
I7333
tp237
a(S'p2_du'
I0
tp238
a(S'p2_vo'
I0
tp239
a(S'w'
I26412
tp240
a(S'p1_se'
I1
tp241
a(S'p1_sp'
I0
tp242
a(S'p1_ss'
I3
tp243
a(S'w'
I3
tp244
a(S'p1_du'
I2
tp245
a(S'p1_vo'
I1
tp246
a(S'w'
I5
tp247
a(S'p1_ll'
I1
tp248
a(S'p1_th'
I3
tp249
a(S'w'
I3
tp250
a(S'p1_tl'
I0
tp251
a(S'w'
I5866
tp252
a(S'p1_ll'
I1
tp253
a(S'p1_th'
I2
tp254
a(S'w'
I2
tp255
a(S'p1_tl'
I192
tp256
a(S'w'
I4404
tp257
a(S'p2_du'
I2
tp258
a(S'p2_vo'
I1
tp259
a(S'w'
I6
tp260
a(S'p2_tl'
I106
tp261
a(S'w'
I11
tp262
a(S'tr_lh'
I1
tp263
a(S'tr_lr'
I16
tp264
a(S'w'
I5
tp265
a(S'tr_ll'
I1
tp266
a(S'w'
I1440
tp267
a(S'p1_vo'
I2
tp268
a(S'w'
I5
tp269
a(S'p1_ll'
I1
tp270
a(S'w'
I3
tp271
a(S'p1_tl'
I128
tp272
a(S'w'
I4397
tp273
a(S'p1_ll'
I1
tp274
a(S'w'
I3
tp275
a(S'p1_tl'
I96
tp276
a(S'w'
I1459
tp277
a(S'p2_du'
I0
tp278
a(S'p2_vo'
I0
tp279
a(S'w'
I10
tp280
a(S'tr_lh'
I0
tp281
a(S'tr_lr'
I0
tp282
a(S'w'
I2931
tp283
a(S'p1_ll'
I1
tp284
a(S'w'
I3
tp285
a(S'p1_tl'
I64
tp286
a(S'w'
I4399
tp287
a(S'p1_ll'
I1
tp288
a(S'p1_th'
I1
tp289
a(S'w'
I2
tp290
a(S'p1_tl'
I128
tp291
a(S'w'
I12
tp292
a(S'p2_du'
I2
tp293
a(S'p2_vo'
I1
tp294
a(S'w'
I6
tp295
a(S'p2_tl'
I107
tp296
a(S'w'
I4383
tp297
a(S'p1_ll'
I1
tp298
a(S'w'
I3
tp299
a(S'p1_tl'
I96
tp300
a(S'w'
I2930
tp301
a(S'p2_du'
I0
tp302
a(S'p2_vo'
I0
tp303
a(S'w'
I1470
tp304
a(S'p1_ll'
I1
tp305
a(S'w'
I3
tp306
a(S'p1_tl'
I64
tp307
a(S'w'
I4395
tp308
a(S'p1_vo'
I1
tp309
a(S'w'
I5
tp310
a(S'p1_ll'
I1
tp311
a(S'w'
I3
tp312
a(S'p1_tl'
I64
tp313
a(S'w'
I4399
tp314
a(S'p1_ll'
I1
tp315
a(S'p1_th'
I0
tp316
a(S'w'
I2
tp317
a(S'p1_tl'
I176
tp318
a(S'w'
I4401
tp319
a(S'p1_ll'
I1
tp320
a(S'w'
I3
tp321
a(S'p1_tl'
I144
tp322
a(S'w'
I4400
tp323
a(S'p1_ll'
I1
tp324
a(S'w'
I3
tp325
a(S'p1_tl'
I112
tp326
a(S'w'
I4400
tp327
a(S'p1_ll'
I1
tp328
a(S'w'
I3
tp329
a(S'p1_tl'
I112
tp330
a(S'w'
I4393
tp331
a(S'p1_se'
I0
tp332
a(S'p1_sp'
I7
tp333
a(S'p1_ss'
I7
tp334
a(S'w'
I1
tp335
a(S'p1_du'
I0
tp336
a(S'p1_vo'
I0
tp337
a(S'w'
I8815
tp338
a(S'p2_du'
I2
tp339
a(S'p2_vo'
I1
tp340
a(S'w'
I6
tp341
a(S'p2_tl'
I106
tp342
a(S'w'
I11
tp343
a(S'tr_lh'
I1
tp344
a(S'tr_lr'
I16
tp345
a(S'w'
I5
tp346
a(S'tr_ll'
I1
tp347
a(S'w'
I7307
tp348
a(S'p2_du'
I0
tp349
a(S'p2_vo'
I0
tp350
a(S'w'
I10
tp351
a(S'tr_lh'
I0
tp352
a(S'tr_lr'
I0
tp353
a(S'w'
I7330
tp354
a(S'p2_du'
I2
tp355
a(S'p2_vo'
I1
tp356
a(S'w'
I6
tp357
a(S'p2_tl'
I107
tp358
a(S'w'
I7333
tp359
a(S'p2_du'
I0
tp360
a(S'p2_vo'
I0
tp361
a(S'w'
I36695
tp362
a(S'p2_du'
I2
tp363
a(S'p2_vo'
I1
tp364
a(S'w'
I5
tp365
a(S'p2_tl'
I106
tp366
a(S'w'
I12
tp367
a(S'tr_lh'
I1
tp368
a(S'tr_lr'
I16
tp369
a(S'w'
I5
tp370
a(S'tr_ll'
I1
tp371
a(S'w'
I7307
tp372
a(S'p2_du'
I0
tp373
a(S'p2_vo'
I0
tp374
a(S'w'
I10
tp375
a(S'tr_lh'
I0
tp376
a(S'tr_lr'
I0
tp377
a(S'w'
I7330
tp378
a(S'p2_du'
I2
tp379
a(S'p2_vo'
I1
tp380
a(S'w'
I6
tp381
a(S'p2_tl'
I107
tp382
a(S'w'
I7333
tp383
a(S'p2_du'
I0
tp384
a(S'p2_vo'
I0
tp385
a(S'w'
I36695
tp386
a(S'p2_du'
I2
tp387
a(S'p2_vo'
I1
tp388
a(S'w'
I6
tp389
a(S'p2_tl'
I106
tp390
a(S'w'
I11
tp391
a(S'tr_lh'
I1
tp392
a(S'tr_lr'
I16
tp393
a(S'w'
I5
tp394
a(S'tr_ll'
I1
tp395
a(S'w'
I7307
tp396
a(S'p2_du'
I0
tp397
a(S'p2_vo'
I0
tp398
a(S'w'
I10
tp399
a(S'tr_lh'
I0
tp400
a(S'tr_lr'
I0
tp401
a(S'w'
I7330
tp402
a(S'p2_du'
I2
tp403
a(S'p2_vo'
I1
tp404
a(S'w'
I6
tp405
a(S'p2_tl'
I107
tp406
a(S'w'
I7333
tp407
a(S'p2_du'
I0
tp408
a(S'p2_vo'
I0
tp409
a(S'w'
I36696
tp410
a(S'p2_du'
I2
tp411
a(S'p2_vo'
I1
tp412
a(S'w'
I6
tp413
a(S'p2_tl'
I106
tp414
a(S'w'
I11
tp415
a(S'tr_lh'
I1
tp416
a(S'tr_lr'
I16
tp417
a(S'w'
I5
tp418
a(S'tr_ll'
I1
tp419
a(S'w'
I2903
tp420
a(S'p1_se'
I1
tp421
a(S'p1_sp'
I0
tp422
a(S'p1_ss'
I3
tp423
a(S'w'
I3
tp424
a(S'p1_du'
I2
tp425
a(S'p1_vo'
I1
tp426
a(S'w'
I5
tp427
a(S'p1_ll'
I1
tp428
a(S'p1_th'
I3
tp429
a(S'w'
I3
tp430
a(S'p1_tl'
I0
tp431
a(S'w'
I4393
tp432
a(S'p2_du'
I0
tp433
a(S'p2_vo'
I0
tp434
a(S'w'
I10
tp435
a(S'tr_lh'
I0
tp436
a(S'tr_lr'
I0
tp437
a(S'w'
I1462
tp438
a(S'p1_ll'
I1
tp439
a(S'p1_th'
I2
tp440
a(S'w'
I2
tp441
a(S'p1_tl'
I192
tp442
a(S'w'
I5867
tp443
a(S'p1_vo'
I2
tp444
a(S'w'
I5
tp445
a(S'p1_ll'
I1
tp446
a(S'w'
I3
tp447
a(S'p1_tl'
I128
tp448
a(S'w'
I11
tp449
a(S'p2_du'
I2
tp450
a(S'p2_vo'
I1
tp451
a(S'w'
I6
tp452
a(S'p2_tl'
I107
tp453
a(S'w'
I4379
tp454
a(S'p1_ll'
I1
tp455
a(S'w'
I3
tp456
a(S'p1_tl'
I96
tp457
a(S'w'
I2931
tp458
a(S'p2_du'
I0
tp459
a(S'p2_vo'
I0
tp460
a(S'w'
I1469
tp461
a(S'p1_ll'
I1
tp462
a(S'w'
I3
tp463
a(S'p1_tl'
I64
tp464
a(S'w'
I4400
tp465
a(S'p1_ll'
I1
tp466
a(S'p1_th'
I1
tp467
a(S'w'
I2
tp468
a(S'p1_tl'
I128
tp469
a(S'w'
I4401
tp470
a(S'p1_ll'
I1
tp471
a(S'w'
I3
tp472
a(S'p1_tl'
I96
tp473
a(S'w'
I4399
tp474
a(S'p1_ll'
I1
tp475
a(S'w'
I3
tp476
a(S'p1_tl'
I64
tp477
a(S'w'
I4395
tp478
a(S'p1_vo'
I1
tp479
a(S'w'
I5
tp480
a(S'p1_ll'
I1
tp481
a(S'w'
I3
tp482
a(S'p1_tl'
I64
tp483
a(S'w'
I4400
tp484
a(S'p1_ll'
I1
tp485
a(S'p1_th'
I0
tp486
a(S'w'
I2
tp487
a(S'p1_tl'
I176
tp488
a(S'w'
I4401
tp489
a(S'p1_ll'
I1
tp490
a(S'w'
I3
tp491
a(S'p1_tl'
I144
tp492
a(S'w'
I4399
tp493
a(S'p1_ll'
I1
tp494
a(S'w'
I3
tp495
a(S'p1_tl'
I112
tp496
a(S'w'
I4400
tp497
a(S'p1_ll'
I1
tp498
a(S'w'
I3
tp499
a(S'p1_tl'
I112
tp500
a(S'w'
I17
tp501
a(S'p2_du'
I2
tp502
a(S'p2_vo'
I1
tp503
a(S'w'
I6
tp504
a(S'p2_tl'
I106
tp505
a(S'w'
I11
tp506
a(S'tr_lh'
I1
tp507
a(S'tr_lr'
I16
tp508
a(S'w'
I6
tp509
a(S'tr_ll'
I1
tp510
a(S'w'
I4354
tp511
a(S'p1_se'
I0
tp512
a(S'p1_sp'
I7
tp513
a(S'p1_ss'
I7
tp514
a(S'w'
I1
tp515
a(S'p1_du'
I0
tp516
a(S'p1_vo'
I0
tp517
a(S'w'
I2935
tp518
a(S'p2_du'
I0
tp519
a(S'p2_vo'
I0
tp520
a(S'w'
I10
tp521
a(S'tr_lh'
I0
tp522
a(S'tr_lr'
I0
tp523
a(S'w'
I7330
tp524
a(S'p2_du'
I2
tp525
a(S'p2_vo'
I1
tp526
a(S'w'
I6
tp527
a(S'p2_tl'
I107
tp528
a(S'w'
I7333
tp529
a(S'p2_du'
I0
tp530
a(S'p2_vo'
I0
tp531
a(S'w'
I36695
tp532
a(S'p2_du'
I2
tp533
a(S'p2_vo'
I1
tp534
a(S'w'
I6
tp535
a(S'p2_tl'
I106
tp536
a(S'w'
I11
tp537
a(S'tr_lh'
I1
tp538
a(S'tr_lr'
I16
tp539
a(S'w'
I5
tp540
a(S'tr_ll'
I1
tp541
a(S'w'
I7307
tp542
a(S'p2_du'
I0
tp543
a(S'p2_vo'
I0
tp544
a(S'w'
I10
tp545
a(S'tr_lh'
I0
tp546
a(S'tr_lr'
I0
tp547
a(S'w'
I7330
tp548
a(S'p2_du'
I2
tp549
a(S'p2_vo'
I1
tp550
a(S'w'
I6
tp551
a(S'p2_tl'
I107
tp552
a(S'w'
I7333
tp553
a(S'p2_du'
I0
tp554
a(S'p2_vo'
I0
tp555
a(S'w'
I36696
tp556
a(S'p2_du'
I2
tp557
a(S'p2_vo'
I1
tp558
a(S'w'
I6
tp559
a(S'p2_tl'
I106
tp560
a(S'w'
I11
tp561
a(S'tr_lh'
I1
tp562
a(S'tr_lr'
I16
tp563
a(S'w'
I5
tp564
a(S'tr_ll'
I1
tp565
a(S'w'
I7307
tp566
a(S'p2_du'
I0
tp567
a(S'p2_vo'
I0
tp568
a(S'w'
I10
tp569
a(S'tr_lh'
I0
tp570
a(S'tr_lr'
I0
tp571
a(S'w'
I7330
tp572
a(S'p2_du'
I2
tp573
a(S'p2_vo'
I1
tp574
a(S'w'
I6
tp575
a(S'p2_tl'
I107
tp576
a(S'w'
I7333
tp577
a(S'p2_du'
I0
tp578
a(S'p2_vo'
I0
tp579
a(S'w'
I36695
tp580
a(S'p2_du'
I2
tp581
a(S'p2_vo'
I1
tp582
a(S'w'
I5
tp583
a(S'p2_tl'
I106
tp584
a(S'w'
I12
tp585
a(S'tr_lh'
I1
tp586
a(S'tr_lr'
I16
tp587
a(S'w'
I5
tp588
a(S'tr_ll'
I1
tp589
a(S'w'
I7307
tp590
a(S'p2_du'
I0
tp591
a(S'p2_vo'
I0
tp592
a(S'w'
I10
tp593
a(S'tr_lh'
I0
tp594
a(S'tr_lr'
I0
tp595
a(S'w'
I7330
tp596
a(S'p2_du'
I2
tp597
a(S'p2_vo'
I1
tp598
a(S'w'
I6
tp599
a(S'p2_tl'
I107
tp600
a(S'w'
I1459
tp601
a(S'p1_se'
I1
tp602
a(S'p1_sp'
I0
tp603
a(S'p1_ss'
I3
tp604
a(S'w'
I3
tp605
a(S'p1_du'
I2
tp606
a(S'p1_vo'
I1
tp607
a(S'w'
I5
tp608
a(S'p1_ll'
I1
tp609
a(S'p1_th'
I3
tp610
a(S'w'
I3
tp611
a(S'p1_tl'
I0
tp612
a(S'w'
I5865
tp613
a(S'p1_ll'
I1
tp614
a(S'p1_th'
I2
tp615
a(S'w'
I2
tp616
a(S'p1_tl'
I192
tp617
a(S'w'
I12
tp618
a(S'p2_du'
I0
tp619
a(S'p2_vo'
I0
tp620
a(S'w'
I5854
tp621
a(S'p1_vo'
I2
tp622
a(S'w'
I5
tp623
a(S'p1_ll'
I1
tp624
a(S'w'
I3
tp625
a(S'p1_tl'
I128
tp626
a(S'w'
I4397
tp627
a(S'p1_ll'
I1
tp628
a(S'w'
I3
tp629
a(S'p1_tl'
I96
tp630
a(S'w'
I4400
tp631
a(S'p1_ll'
I1
tp632
a(S'w'
I3
tp633
a(S'p1_tl'
I64
tp634
a(S'w'
I4399
tp635
a(S'p1_ll'
I1
tp636
a(S'p1_th'
I1
tp637
a(S'w'
I2
tp638
a(S'p1_tl'
I128
tp639
a(S'w'
I4401
tp640
a(S'p1_ll'
I1
tp641
a(S'w'
I3
tp642
a(S'p1_tl'
I96
tp643
a(S'w'
I4400
tp644
a(S'p1_ll'
I1
tp645
a(S'w'
I3
tp646
a(S'p1_tl'
I64
tp647
a(S'w'
I4395
tp648
a(S'p1_vo'
I1
tp649
a(S'w'
I5
tp650
a(S'p1_ll'
I1
tp651
a(S'w'
I3
tp652
a(S'p1_tl'
I64
tp653
a(S'w'
I4399
tp654
a(S'p1_ll'
I1
tp655
a(S'p1_th'
I0
tp656
a(S'w'
I2
tp657
a(S'p1_tl'
I176
tp658
a(S'w'
I18
tp659
a(S'p2_du'
I2
tp660
a(S'p2_vo'
I1
tp661
a(S'w'
I6
tp662
a(S'p2_tl'
I106
tp663
a(S'w'
I11
tp664
a(S'tr_lh'
I1
tp665
a(S'tr_lr'
I16
tp666
a(S'w'
I5
tp667
a(S'tr_ll'
I1
tp668
a(S'w'
I4361
tp669
a(S'p1_ll'
I1
tp670
a(S'w'
I3
tp671
a(S'p1_tl'
I144
tp672
a(S'w'
I2927
tp673
a(S'p2_du'
I0
tp674
a(S'p2_vo'
I0
tp675
a(S'w'
I10
tp676
a(S'tr_lh'
I0
tp677
a(S'tr_lr'
I0
tp678
a(S'w'
I1463
tp679
a(S'p1_ll'
I1
tp680
a(S'w'
I3
tp681
a(S'p1_tl'
I112
tp682
a(S'w'
I4400
tp683
a(S'p1_ll'
I1
tp684
a(S'w'
I3
tp685
a(S'p1_tl'
I112
tp686
a(S'w'
I1461
tp687
a(S'p2_du'
I2
tp688
a(S'p2_vo'
I1
tp689
a(S'w'
I6
tp690
a(S'p2_tl'
I107
tp691
a(S'w'
I2926
tp692
a(S'p1_se'
I0
tp693
a(S'p1_sp'
I7
tp694
a(S'p1_ss'
I7
tp695
a(S'w'
I1
tp696
a(S'p1_du'
I0
tp697
a(S'p1_vo'
I0
tp698
a(S'w'
I4406
tp699
a(S'p2_du'
I0
tp700
a(S'p2_vo'
I0
tp701
a(S'w'
I36696
tp702
a(S'p2_du'
I2
tp703
a(S'p2_vo'
I1
tp704
a(S'w'
I6
tp705
a(S'p2_tl'
I106
tp706
a(S'w'
I11
tp707
a(S'tr_lh'
I1
tp708
a(S'tr_lr'
I16
tp709
a(S'w'
I5
tp710
a(S'tr_ll'
I1
tp711
a(S'w'
I7307
tp712
a(S'p2_du'
I0
tp713
a(S'p2_vo'
I0
tp714
a(S'w'
I10
tp715
a(S'tr_lh'
I0
tp716
a(S'tr_lr'
I0
tp717
a(S'w'
I7330
tp718
a(S'p2_du'
I2
tp719
a(S'p2_vo'
I1
tp720
a(S'w'
I6
tp721
a(S'p2_tl'
I107
tp722
a(S'w'
I7333
tp723
a(S'p2_du'
I0
tp724
a(S'p2_vo'
I0
tp725
a(S'w'
I36695
tp726
a(S'p2_du'
I2
tp727
a(S'p2_vo'
I1
tp728
a(S'w'
I6
tp729
a(S'p2_tl'
I106
tp730
a(S'w'
I11
tp731
a(S'tr_lh'
I1
tp732
a(S'tr_lr'
I16
tp733
a(S'w'
I5
tp734
a(S'tr_ll'
I1
tp735
a(S'w'
I7307
tp736
a(S'p2_du'
I0
tp737
a(S'p2_vo'
I0
tp738
a(S'w'
I10
tp739
a(S'tr_lh'
I0
tp740
a(S'tr_lr'
I0
tp741
a(S'w'
I7330
tp742
a(S'p2_du'
I2
tp743
a(S'p2_vo'
I1
tp744
a(S'w'
I6
tp745
a(S'p2_tl'
I107
tp746
a(S'w'
I7333
tp747
a(S'p2_du'
I0
tp748
a(S'p2_vo'
I0
tp749
a(S'w'
I36695
tp750
a(S'p2_du'
I2
tp751
a(S'p2_vo'
I1
tp752
a(S'w'
I6
tp753
a(S'p2_tl'
I106
tp754
a(S'w'
I11
tp755
a(S'tr_lh'
I1
tp756
a(S'tr_lr'
I16
tp757
a(S'w'
I5
tp758
a(S'tr_ll'
I1
tp759
a(S'w'
I7307
tp760
a(S'p2_du'
I0
tp761
a(S'p2_vo'
I0
tp762
a(S'w'
I10
tp763
a(S'tr_lh'
I0
tp764
a(S'tr_lr'
I0
tp765
a(S'w'
I7330
tp766
a(S'p2_du'
I2
tp767
a(S'p2_vo'
I1
tp768
a(S'w'
I6
tp769
a(S'p2_tl'
I107
tp770
a(S'w'
I7333
tp771
a(S'p2_du'
I0
tp772
a(S'p2_vo'
I0
tp773
a(S'w'
I3931
tp774
a.