(lp1
(S'clock'
p2
I1789772
tp3
a(S'p1_ll'
I0
tp4
a(S'p2_ll'
I0
tp5
a(S'tr_ll'
I0
tp6
a(S'no_ll'
I0
tp7
a(S'ch_no'
I1
tp8
a(S'ch_tr'
I1
tp9
a(S'ch_p2'
I1
tp10
a(S'ch_p1'
I1
tp11
a(S'p1_du'
I2
tp12
a(S'p1_lh'
I1
tp13
a(S'p1_cv'
I1
tp14
a(S'p1_vo'
I12
tp15
a(S'tr_lr'
I48
tp16
a(S'w'
I2
tp17
a(S'p1_tl'
I254
tp18
a(S'w'
I1
tp19
a(S'p1_ll'
I1
tp20
a(S'w'
I2
tp21
a(S'tr_tl'
I125
tp22
a(S'w'
I1
tp23
a(S'tr_ll'
I1
tp24
a(S'tr_th'
I1
tp25
a(S'w'
I8804
tp26
a(S'tr_tl'
I113
tp27
a(S'w'
I1
tp28
a(S'tr_ll'
I1
tp29
a(S'tr_th'
I0
tp30
a(S'w'
I8805
tp31
a(S'tr_tl'
I143
tp32
a(S'w'
I1
tp33
a(S'tr_ll'
I1
tp34
a(S'w'
I8804
tp35
a(S'tr_tl'
I127
tp36
a(S'w'
I1
tp37
a(S'tr_ll'
I1
tp38
a(S'w'
I17610
tp39
a(S'tr_tl'
I113
tp40
a(S'w'
I1
tp41
a(S'tr_ll'
I1
tp42
a(S'w'
I8803
tp43
a(S'p1_tl'
I227
tp44
a(S'w'
I1
tp45
a(S'p1_ll'
I1
tp46
a(S'w'
I3
tp47
a(S'tr_tl'
I143
tp48
a(S'w'
I1
tp49
a(S'tr_ll'
I1
tp50
a(S'w'
I8802
tp51
a(S'tr_tl'
I125
tp52
a(S'w'
I1
tp53
a(S'tr_ll'
I1
tp54
a(S'tr_th'
I1
tp55
a(S'w'
I8803
tp56
a(S'p1_tl'
I29
tp57
a(S'w'
I1
tp58
a(S'p1_ll'
I1
tp59
a(S'p1_th'
I1
tp60
a(S'w'
I3
tp61
a(S'tr_tl'
I83
tp62
a(S'w'
I1
tp63
a(S'tr_ll'
I1
tp64
a(S'w'
I8802
tp65
a(S'tr_tl'
I113
tp66
a(S'w'
I1
tp67
a(S'tr_ll'
I1
tp68
a(S'tr_th'
I0
tp69
a(S'w'
I8805
tp70
a(S'tr_tl'
I143
tp71
a(S'w'
I1
tp72
a(S'tr_ll'
I1
tp73
a(S'w'
I8804
tp74
a(S'tr_tl'
I127
tp75
a(S'w'
I1
tp76
a(S'tr_ll'
I1
tp77
a(S'w'
I8803
tp78
a(S'p1_tl'
I83
tp79
a(S'w'
I1
tp80
a(S'p1_ll'
I1
tp81
a(S'w'
I8806
tp82
a(S'tr_tl'
I113
tp83
a(S'w'
I1
tp84
a(S'tr_ll'
I1
tp85
a(S'w'
I8805
tp86
a(S'tr_tl'
I143
tp87
a(S'w'
I1
tp88
a(S'tr_ll'
I1
tp89
a(S'w'
I17608
tp90
a(S'p1_tl'
I254
tp91
a(S'w'
I1
tp92
a(S'p1_ll'
I1
tp93
a(S'p1_th'
I0
tp94
a(S'w'
I5
tp95
a(S'tr_tl'
I125
tp96
a(S'w'
I1
tp97
a(S'tr_ll'
I1
tp98
a(S'tr_th'
I1
tp99
a(S'w'
I8800
tp100
a(S'tr_tl'
I113
tp101
a(S'w'
I1
tp102
a(S'tr_ll'
I1
tp103
a(S'tr_th'
I0
tp104
a(S'w'
I8805
tp105
a(S'tr_tl'
I143
tp106
a(S'w'
I1
tp107
a(S'tr_ll'
I1
tp108
a(S'w'
I8802
tp109
a(S'w'
I1
tp110
a(S'p1_ll'
I1
tp111
a(S'w'
I3
tp112
a(S'tr_tl'
I127
tp113
a(S'w'
I1
tp114
a(S'tr_ll'
I1
tp115
a(S'w'
I17608
tp116
a(S'tr_tl'
I113
tp117
a(S'w'
I1
tp118
a(S'tr_ll'
I1
tp119
a(S'w'
I8803
tp120
a(S'p1_tl'
I227
tp121
a(S'w'
I1
tp122
a(S'p1_ll'
I1
tp123
a(S'w'
I3
tp124
a(S'tr_tl'
I143
tp125
a(S'w'
I1
tp126
a(S'tr_ll'
I1
tp127
a(S'w'
I8802
tp128
a(S'tr_tl'
I125
tp129
a(S'w'
I1
tp130
a(S'tr_ll'
I1
tp131
a(S'tr_th'
I1
tp132
a(S'w'
I8803
tp133
a(S'p1_tl'
I29
tp134
a(S'w'
I1
tp135
a(S'p1_ll'
I1
tp136
a(S'p1_th'
I1
tp137
a(S'w'
I3
tp138
a(S'tr_tl'
I83
tp139
a(S'w'
I1
tp140
a(S'tr_ll'
I1
tp141
a(S'w'
I8802
tp142
a(S'tr_tl'
I113
tp143
a(S'w'
I1
tp144
a(S'tr_ll'
I1
tp145
a(S'tr_th'
I0
tp146
a(S'w'
I8805
tp147
a(S'tr_tl'
I143
tp148
a(S'w'
I1
tp149
a(S'tr_ll'
I1
tp150
a(S'w'
I8804
tp151
a(S'tr_tl'
I127
tp152
a(S'w'
I1
tp153
a(S'tr_ll'
I1
tp154
a(S'w'
I17610
tp155
a(S'tr_tl'
I113
tp156
a(S'w'
I1
tp157
a(S'tr_ll'
I1
tp158
a(S'w'
I8805
tp159
a(S'tr_tl'
I143
tp160
a(S'w'
I1
tp161
a(S'tr_ll'
I1
tp162
a(S'w'
I17610
tp163
a(S'p1_tl'
I254
tp164
a(S'w'
I1
tp165
a(S'p1_ll'
I1
tp166
a(S'p1_th'
I0
tp167
a(S'w'
I5
tp168
a(S'tr_tl'
I125
tp169
a(S'w'
I1
tp170
a(S'tr_ll'
I1
tp171
a(S'tr_th'
I1
tp172
a(S'w'
I8798
tp173
a(S'tr_tl'
I113
tp174
a(S'w'
I1
tp175
a(S'tr_ll'
I1
tp176
a(S'tr_th'
I0
tp177
a(S'w'
I8805
tp178
a(S'tr_tl'
I143
tp179
a(S'w'
I1
tp180
a(S'tr_ll'
I1
tp181
a(S'w'
I8804
tp182
a(S'tr_tl'
I127
tp183
a(S'w'
I1
tp184
a(S'tr_ll'
I1
tp185
a(S'w'
I17610
tp186
a(S'tr_tl'
I113
tp187
a(S'w'
I1
tp188
a(S'tr_ll'
I1
tp189
a(S'w'
I8803
tp190
a(S'p1_tl'
I227
tp191
a(S'w'
I1
tp192
a(S'p1_ll'
I1
tp193
a(S'w'
I3
tp194
a(S'tr_tl'
I143
tp195
a(S'w'
I1
tp196
a(S'tr_ll'
I1
tp197
a(S'w'
I8802
tp198
a(S'tr_tl'
I125
tp199
a(S'w'
I1
tp200
a(S'tr_ll'
I1
tp201
a(S'tr_th'
I1
tp202
a(S'w'
I8802
tp203
a(S'p1_tl'
I29
tp204
a(S'w'
I1
tp205
a(S'p1_ll'
I1
tp206
a(S'p1_th'
I1
tp207
a(S'w'
I3
tp208
a(S'tr_tl'
I83
tp209
a(S'w'
I1
tp210
a(S'tr_ll'
I1
tp211
a(S'w'
I8803
tp212
a(S'tr_tl'
I113
tp213
a(S'w'
I1
tp214
a(S'tr_ll'
I1
tp215
a(S'tr_th'
I0
tp216
a(S'w'
I8804
tp217
a(S'tr_tl'
I143
tp218
a(S'w'
I1
tp219
a(S'tr_ll'
I1
tp220
a(S'w'
I8805
tp221
a(S'tr_tl'
I127
tp222
a(S'w'
I1
tp223
a(S'tr_ll'
I1
tp224
a(S'w'
I8802
tp225
a(S'p1_tl'
I83
tp226
a(S'w'
I1
tp227
a(S'p1_ll'
I1
tp228
a(S'w'
I8807
tp229
a(S'tr_tl'
I113
tp230
a(S'w'
I1
tp231
a(S'tr_ll'
I1
tp232
a(S'w'
I8804
tp233
a(S'tr_tl'
I143
tp234
a(S'w'
I1
tp235
a(S'tr_ll'
I1
tp236
a(S'w'
I17608
tp237
a(S'p1_tl'
I254
tp238
a(S'w'
I1
tp239
a(S'p1_ll'
I1
tp240
a(S'p1_th'
I0
tp241
a(S'w'
I5
tp242
a(S'tr_tl'
I125
tp243
a(S'w'
I1
tp244
a(S'tr_ll'
I1
tp245
a(S'tr_th'
I1
tp246
a(S'w'
I8801
tp247
a(S'tr_tl'
I113
tp248
a(S'w'
I1
tp249
a(S'tr_ll'
I1
tp250
a(S'tr_th'
I0
tp251
a(S'w'
I8804
tp252
a(S'tr_tl'
I143
tp253
a(S'w'
I1
tp254
a(S'tr_ll'
I1
tp255
a(S'w'
I8803
tp256
a(S'w'
I1
tp257
a(S'p1_ll'
I1
tp258
a(S'w'
I3
tp259
a(S'tr_tl'
I127
tp260
a(S'w'
I1
tp261
a(S'tr_ll'
I1
tp262
a(S'w'
I17608
tp263
a(S'tr_tl'
I113
tp264
a(S'w'
I1
tp265
a(S'tr_ll'
I1
tp266
a(S'w'
I8802
tp267
a(S'p1_tl'
I227
tp268
a(S'w'
I1
tp269
a(S'p1_ll'
I1
tp270
a(S'w'
I3
tp271
a(S'tr_tl'
I143
tp272
a(S'w'
I1
tp273
a(S'tr_ll'
I1
tp274
a(S'w'
I8803
tp275
a(S'tr_tl'
I125
tp276
a(S'w'
I1
tp277
a(S'tr_ll'
I1
tp278
a(S'tr_th'
I1
tp279
a(S'w'
I8802
tp280
a(S'p1_tl'
I29
tp281
a(S'w'
I1
tp282
a(S'p1_ll'
I1
tp283
a(S'p1_th'
I1
tp284
a(S'w'
I3
tp285
a(S'tr_tl'
I83
tp286
a(S'w'
I1
tp287
a(S'tr_ll'
I1
tp288
a(S'w'
I8803
tp289
a(S'tr_tl'
I113
tp290
a(S'w'
I1
tp291
a(S'tr_ll'
I1
tp292
a(S'tr_th'
I0
tp293
a(S'w'
I8804
tp294
a(S'tr_tl'
I143
tp295
a(S'w'
I1
tp296
a(S'tr_ll'
I1
tp297
a(S'w'
I8805
tp298
a(S'tr_tl'
I127
tp299
a(S'w'
I1
tp300
a(S'tr_ll'
I1
tp301
a(S'w'
I17610
tp302
a(S'tr_tl'
I113
tp303
a(S'w'
I1
tp304
a(S'tr_ll'
I1
tp305
a(S'w'
I8804
tp306
a(S'tr_tl'
I143
tp307
a(S'w'
I1
tp308
a(S'tr_ll'
I1
tp309
a(S'w'
I17610
tp310
a(S'p1_tl'
I170
tp311
a(S'w'
I1
tp312
a(S'p1_ll'
I1
tp313
a(S'p1_th'
I0
tp314
a(S'w'
I5
tp315
a(S'tr_tl'
I125
tp316
a(S'w'
I1
tp317
a(S'tr_ll'
I1
tp318
a(S'tr_th'
I1
tp319
a(S'w'
I8799
tp320
a(S'tr_tl'
I113
tp321
a(S'w'
I1
tp322
a(S'tr_ll'
I1
tp323
a(S'tr_th'
I0
tp324
a(S'w'
I8804
tp325
a(S'tr_tl'
I143
tp326
a(S'w'
I1
tp327
a(S'tr_ll'
I1
tp328
a(S'w'
I8805
tp329
a(S'tr_tl'
I127
tp330
a(S'w'
I1
tp331
a(S'tr_ll'
I1
tp332
a(S'w'
I17610
tp333
a(S'tr_tl'
I113
tp334
a(S'w'
I1
tp335
a(S'tr_ll'
I1
tp336
a(S'w'
I8802
tp337
a(S'p1_tl'
I190
tp338
a(S'w'
I1
tp339
a(S'p1_ll'
I1
tp340
a(S'w'
I3
tp341
a(S'tr_tl'
I143
tp342
a(S'w'
I1
tp343
a(S'tr_ll'
I1
tp344
a(S'w'
I8803
tp345
a(S'tr_tl'
I125
tp346
a(S'w'
I1
tp347
a(S'tr_ll'
I1
tp348
a(S'tr_th'
I1
tp349
a(S'w'
I8802
tp350
a(S'p1_tl'
I254
tp351
a(S'w'
I1
tp352
a(S'p1_ll'
I1
tp353
a(S'w'
I3
tp354
a(S'tr_tl'
I83
tp355
a(S'w'
I1
tp356
a(S'tr_ll'
I1
tp357
a(S'w'
I8803
tp358
a(S'tr_tl'
I113
tp359
a(S'w'
I1
tp360
a(S'tr_ll'
I1
tp361
a(S'tr_th'
I0
tp362
a(S'w'
I8804
tp363
a(S'tr_tl'
I143
tp364
a(S'w'
I1
tp365
a(S'tr_ll'
I1
tp366
a(S'w'
I8805
tp367
a(S'tr_tl'
I127
tp368
a(S'w'
I1
tp369
a(S'tr_ll'
I1
tp370
a(S'w'
I17610
tp371
a(S'tr_tl'
I113
tp372
a(S'w'
I1
tp373
a(S'tr_ll'
I1
tp374
a(S'w'
I8804
tp375
a(S'tr_tl'
I143
tp376
a(S'w'
I1
tp377
a(S'tr_ll'
I1
tp378
a(S'w'
I17608
tp379
a(S'p1_tl'
I227
tp380
a(S'w'
I1
tp381
a(S'p1_ll'
I1
tp382
a(S'w'
I5
tp383
a(S'tr_tl'
I125
tp384
a(S'w'
I1
tp385
a(S'tr_ll'
I1
tp386
a(S'tr_th'
I1
tp387
a(S'w'
I8801
tp388
a(S'tr_tl'
I113
tp389
a(S'w'
I1
tp390
a(S'tr_ll'
I1
tp391
a(S'tr_th'
I0
tp392
a(S'w'
I8804
tp393
a(S'tr_tl'
I143
tp394
a(S'w'
I1
tp395
a(S'tr_ll'
I1
tp396
a(S'w'
I8805
tp397
a(S'tr_tl'
I127
tp398
a(S'w'
I1
tp399
a(S'tr_ll'
I1
tp400
a(S'w'
I17610
tp401
a(S'tr_tl'
I113
tp402
a(S'w'
I1
tp403
a(S'tr_ll'
I1
tp404
a(S'w'
I8804
tp405
a(S'tr_tl'
I143
tp406
a(S'w'
I1
tp407
a(S'tr_ll'
I1
tp408
a(S'w'
I8805
tp409
a(S'tr_tl'
I125
tp410
a(S'w'
I1
tp411
a(S'tr_ll'
I1
tp412
a(S'tr_th'
I1
tp413
a(S'w'
I8804
tp414
a(S'tr_tl'
I83
tp415
a(S'w'
I1
tp416
a(S'tr_ll'
I1
tp417
a(S'w'
I8805
tp418
a(S'tr_tl'
I113
tp419
a(S'w'
I1
tp420
a(S'tr_ll'
I1
tp421
a(S'tr_th'
I0
tp422
a(S'w'
I8804
tp423
a(S'tr_tl'
I143
tp424
a(S'w'
I1
tp425
a(S'tr_ll'
I1
tp426
a(S'w'
I8805
tp427
a(S'tr_tl'
I127
tp428
a(S'w'
I1
tp429
a(S'tr_ll'
I1
tp430
a(S'w'
I17610
tp431
a(S'tr_tl'
I113
tp432
a(S'w'
I1
tp433
a(S'tr_ll'
I1
tp434
a(S'w'
I8804
tp435
a(S'tr_tl'
I143
tp436
a(S'w'
I1
tp437
a(S'tr_ll'
I1
tp438
a(S'w'
I17610
tp439
a(S'p1_tl'
I170
tp440
a(S'w'
I1
tp441
a(S'p1_ll'
I1
tp442
a(S'w'
I5
tp443
a(S'tr_tl'
I125
tp444
a(S'w'
I1
tp445
a(S'tr_ll'
I1
tp446
a(S'tr_th'
I1
tp447
a(S'w'
I8799
tp448
a(S'tr_tl'
I113
tp449
a(S'w'
I1
tp450
a(S'tr_ll'
I1
tp451
a(S'tr_th'
I0
tp452
a(S'w'
I8804
tp453
a(S'tr_tl'
I143
tp454
a(S'w'
I1
tp455
a(S'tr_ll'
I1
tp456
a(S'w'
I8805
tp457
a(S'tr_tl'
I127
tp458
a(S'w'
I1
tp459
a(S'tr_ll'
I1
tp460
a(S'w'
I17610
tp461
a(S'tr_tl'
I113
tp462
a(S'w'
I1
tp463
a(S'tr_ll'
I1
tp464
a(S'w'
I8802
tp465
a(S'p1_tl'
I190
tp466
a(S'w'
I1
tp467
a(S'p1_ll'
I1
tp468
a(S'w'
I3
tp469
a(S'tr_tl'
I143
tp470
a(S'w'
I1
tp471
a(S'tr_ll'
I1
tp472
a(S'w'
I8803
tp473
a(S'tr_tl'
I125
tp474
a(S'w'
I1
tp475
a(S'tr_ll'
I1
tp476
a(S'tr_th'
I1
tp477
a(S'w'
I8802
tp478
a(S'p1_tl'
I254
tp479
a(S'w'
I1
tp480
a(S'p1_ll'
I1
tp481
a(S'w'
I3
tp482
a(S'tr_tl'
I83
tp483
a(S'w'
I1
tp484
a(S'tr_ll'
I1
tp485
a(S'w'
I8803
tp486
a(S'tr_tl'
I113
tp487
a(S'w'
I1
tp488
a(S'tr_ll'
I1
tp489
a(S'tr_th'
I0
tp490
a(S'w'
I8804
tp491
a(S'tr_tl'
I143
tp492
a(S'w'
I1
tp493
a(S'tr_ll'
I1
tp494
a(S'w'
I8803
tp495
a(S'w'
I1
tp496
a(S'p1_ll'
I1
tp497
a(S'w'
I3
tp498
a(S'tr_tl'
I127
tp499
a(S'w'
I1
tp500
a(S'tr_ll'
I1
tp501
a(S'w'
I17608
tp502
a(S'tr_tl'
I113
tp503
a(S'w'
I1
tp504
a(S'tr_ll'
I1
tp505
a(S'w'
I8802
tp506
a(S'p1_tl'
I190
tp507
a(S'w'
I1
tp508
a(S'p1_ll'
I1
tp509
a(S'w'
I3
tp510
a(S'tr_tl'
I143
tp511
a(S'w'
I1
tp512
a(S'tr_ll'
I1
tp513
a(S'w'
I17606
tp514
a(S'p1_tl'
I227
tp515
a(S'w'
I1
tp516
a(S'p1_ll'
I1
tp517
a(S'w'
I5
tp518
a(S'tr_lr'
I127
tp519
a(S'w'
I1
tp520
a(S'w'
I2
tp521
a(S'tr_tl'
I46
tp522
a(S'w'
I1
tp523
a(S'tr_ll'
I1
tp524
a(S'tr_th'
I1
tp525
a(S'w'
I8798
tp526
a(S'tr_tl'
I127
tp527
a(S'w'
I1
tp528
a(S'tr_ll'
I1
tp529
a(S'tr_th'
I0
tp530
a(S'w'
I8804
tp531
a(S'tr_tl'
I113
tp532
a(S'w'
I1
tp533
a(S'tr_ll'
I1
tp534
a(S'w'
I8805
tp535
a(S'tr_tl'
I84
tp536
a(S'w'
I1
tp537
a(S'tr_ll'
I1
tp538
a(S'w'
I35221
tp539
a(S'tr_tl'
I127
tp540
a(S'w'
I1
tp541
a(S'tr_ll'
I1
tp542
a(S'w'
I4401
tp543
a(S'tr_tl'
I143
tp544
a(S'w'
I1
tp545
a(S'tr_ll'
I1
tp546
a(S'w'
I4400
tp547
a(S'p1_tl'
I170
tp548
a(S'w'
I1
tp549
a(S'p1_ll'
I1
tp550
a(S'w'
I3
tp551
a(S'tr_tl'
I170
tp552
a(S'w'
I1
tp553
a(S'tr_ll'
I1
tp554
a(S'w'
I8803
tp555
a(S'tr_tl'
I125
tp556
a(S'w'
I1
tp557
a(S'tr_ll'
I1
tp558
a(S'tr_th'
I1
tp559
a(S'w'
I8804
tp560
a(S'tr_tl'
I83
tp561
a(S'w'
I1
tp562
a(S'tr_ll'
I1
tp563
a(S'w'
I8805
tp564
a(S'tr_tl'
I29
tp565
a(S'w'
I1
tp566
a(S'tr_ll'
I1
tp567
a(S'w'
I8802
tp568
a(S'p1_tl'
I127
tp569
a(S'w'
I1
tp570
a(S'p1_ll'
I1
tp571
a(S'w'
I3
tp572
a(S'tr_tl'
I254
tp573
a(S'w'
I1
tp574
a(S'tr_ll'
I1
tp575
a(S'tr_th'
I0
tp576
a(S'w'
I8803
tp577
a(S'tr_tl'
I227
tp578
a(S'w'
I1
tp579
a(S'tr_ll'
I1
tp580
a(S'w'
I8804
tp581
a(S'tr_tl'
I190
tp582
a(S'w'
I1
tp583
a(S'tr_ll'
I1
tp584
a(S'w'
I8805
tp585
a(S'tr_tl'
I170
tp586
a(S'w'
I1
tp587
a(S'tr_ll'
I1
tp588
a(S'w'
I8804
tp589
a(S'p1_tl'
I254
tp590
a(S'w'
I1
tp591
a(S'p1_ll'
I1
tp592
a(S'w'
I5
tp593
a(S'tr_lr'
I48
tp594
a(S'w'
I3
tp595
a(S'tr_tl'
I125
tp596
a(S'w'
I1
tp597
a(S'tr_ll'
I1
tp598
a(S'tr_th'
I1
tp599
a(S'w'
I8796
tp600
a(S'tr_tl'
I113
tp601
a(S'w'
I1
tp602
a(S'tr_ll'
I1
tp603
a(S'tr_th'
I0
tp604
a(S'w'
I8804
tp605
a(S'tr_tl'
I143
tp606
a(S'w'
I1
tp607
a(S'tr_ll'
I1
tp608
a(S'w'
I8805
tp609
a(S'tr_tl'
I127
tp610
a(S'w'
I1
tp611
a(S'tr_ll'
I1
tp612
a(S'w'
I17610
tp613
a(S'tr_tl'
I113
tp614
a(S'w'
I1
tp615
a(S'tr_ll'
I1
tp616
a(S'w'
I8802
tp617
a(S'p1_tl'
I227
tp618
a(S'w'
I1
tp619
a(S'p1_ll'
I1
tp620
a(S'w'
I3
tp621
a(S'tr_tl'
I143
tp622
a(S'w'
I1
tp623
a(S'tr_ll'
I1
tp624
a(S'w'
I8803
tp625
a(S'tr_tl'
I125
tp626
a(S'w'
I1
tp627
a(S'tr_ll'
I1
tp628
a(S'tr_th'
I1
tp629
a(S'w'
I8802
tp630
a(S'p1_tl'
I29
tp631
a(S'w'
I1
tp632
a(S'p1_ll'
I1
tp633
a(S'p1_th'
I1
tp634
a(S'w'
I3
tp635
a(S'tr_tl'
I83
tp636
a(S'w'
I1
tp637
a(S'tr_ll'
I1
tp638
a(S'w'
I8803
tp639
a(S'tr_tl'
I113
tp640
a(S'w'
I1
tp641
a(S'tr_ll'
I1
tp642
a(S'tr_th'
I0
tp643
a(S'w'
I8804
tp644
a(S'tr_tl'
I143
tp645
a(S'w'
I1
tp646
a(S'tr_ll'
I1
tp647
a(S'w'
I8805
tp648
a(S'tr_tl'
I127
tp649
a(S'w'
I1
tp650
a(S'tr_ll'
I1
tp651
a(S'w'
I8802
tp652
a(S'p1_tl'
I83
tp653
a(S'w'
I1
tp654
a(S'p1_ll'
I1
tp655
a(S'w'
I8807
tp656
a(S'tr_tl'
I113
tp657
a(S'w'
I1
tp658
a(S'tr_ll'
I1
tp659
a(S'w'
I8804
tp660
a(S'tr_tl'
I143
tp661
a(S'w'
I1
tp662
a(S'tr_ll'
I1
tp663
a(S'w'
I17608
tp664
a(S'p1_tl'
I254
tp665
a(S'w'
I1
tp666
a(S'p1_ll'
I1
tp667
a(S'p1_th'
I0
tp668
a(S'w'
I5
tp669
a(S'tr_tl'
I125
tp670
a(S'w'
I1
tp671
a(S'tr_ll'
I1
tp672
a(S'tr_th'
I1
tp673
a(S'w'
I8801
tp674
a(S'tr_tl'
I113
tp675
a(S'w'
I1
tp676
a(S'tr_ll'
I1
tp677
a(S'tr_th'
I0
tp678
a(S'w'
I8804
tp679
a(S'tr_tl'
I143
tp680
a(S'w'
I1
tp681
a(S'tr_ll'
I1
tp682
a(S'w'
I8803
tp683
a(S'w'
I1
tp684
a(S'p1_ll'
I1
tp685
a(S'w'
I3
tp686
a(S'tr_tl'
I127
tp687
a(S'w'
I1
tp688
a(S'tr_ll'
I1
tp689
a(S'w'
I17608
tp690
a(S'tr_tl'
I113
tp691
a(S'w'
I1
tp692
a(S'tr_ll'
I1
tp693
a(S'w'
I8802
tp694
a(S'p1_tl'
I227
tp695
a(S'w'
I1
tp696
a(S'p1_ll'
I1
tp697
a(S'w'
I3
tp698
a(S'tr_tl'
I143
tp699
a(S'w'
I1
tp700
a(S'tr_ll'
I1
tp701
a(S'w'
I8803
tp702
a(S'tr_tl'
I125
tp703
a(S'w'
I1
tp704
a(S'tr_ll'
I1
tp705
a(S'tr_th'
I1
tp706
a(S'w'
I8802
tp707
a(S'p1_tl'
I29
tp708
a(S'w'
I1
tp709
a(S'p1_ll'
I1
tp710
a(S'p1_th'
I1
tp711
a(S'w'
I3
tp712
a(S'tr_tl'
I83
tp713
a(S'w'
I1
tp714
a(S'tr_ll'
I1
tp715
a(S'w'
I8803
tp716
a(S'tr_tl'
I113
tp717
a(S'w'
I1
tp718
a(S'tr_ll'
I1
tp719
a(S'tr_th'
I0
tp720
a(S'w'
I8804
tp721
a(S'tr_tl'
I143
tp722
a(S'w'
I1
tp723
a(S'tr_ll'
I1
tp724
a(S'w'
I8805
tp725
a(S'tr_tl'
I127
tp726
a(S'w'
I1
tp727
a(S'tr_ll'
I1
tp728
a(S'w'
I17610
tp729
a(S'tr_tl'
I113
tp730
a(S'w'
I1
tp731
a(S'tr_ll'
I1
tp732
a(S'w'
I8804
tp733
a(S'tr_tl'
I143
tp734
a(S'w'
I1
tp735
a(S'tr_ll'
I1
tp736
a(S'w'
I17610
tp737
a(S'p1_tl'
I254
tp738
a(S'w'
I1
tp739
a(S'p1_ll'
I1
tp740
a(S'p1_th'
I0
tp741
a(S'w'
I5
tp742
a(S'tr_tl'
I125
tp743
a(S'w'
I1
tp744
a(S'tr_ll'
I1
tp745
a(S'tr_th'
I1
tp746
a(S'w'
I8799
tp747
a(S'tr_tl'
I113
tp748
a(S'w'
I1
tp749
a(S'tr_ll'
I1
tp750
a(S'tr_th'
I0
tp751
a(S'w'
I8804
tp752
a(S'tr_tl'
I143
tp753
a(S'w'
I1
tp754
a(S'tr_ll'
I1
tp755
a(S'w'
I8805
tp756
a(S'tr_tl'
I127
tp757
a(S'w'
I1
tp758
a(S'tr_ll'
I1
tp759
a(S'w'
I17610
tp760
a(S'tr_tl'
I113
tp761
a(S'w'
I1
tp762
a(S'tr_ll'
I1
tp763
a(S'w'
I8802
tp764
a(S'p1_tl'
I227
tp765
a(S'w'
I1
tp766
a(S'p1_ll'
I1
tp767
a(S'w'
I3
tp768
a(S'tr_tl'
I143
tp769
a(S'w'
I1
tp770
a(S'tr_ll'
I1
tp771
a(S'w'
I8803
tp772
a(S'tr_tl'
I125
tp773
a(S'w'
I1
tp774
a(S'tr_ll'
I1
tp775
a(S'tr_th'
I1
tp776
a(S'w'
I8802
tp777
a(S'p1_tl'
I29
tp778
a(S'w'
I1
tp779
a(S'p1_ll'
I1
tp780
a(S'p1_th'
I1
tp781
a(S'w'
I3
tp782
a(S'tr_tl'
I83
tp783
a(S'w'
I1
tp784
a(S'tr_ll'
I1
tp785
a(S'w'
I8803
tp786
a(S'tr_tl'
I113
tp787
a(S'w'
I1
tp788
a(S'tr_ll'
I1
tp789
a(S'tr_th'
I0
tp790
a(S'w'
I8804
tp791
a(S'tr_tl'
I143
tp792
a(S'w'
I1
tp793
a(S'tr_ll'
I1
tp794
a(S'w'
I8805
tp795
a(S'tr_tl'
I127
tp796
a(S'w'
I1
tp797
a(S'tr_ll'
I1
tp798
a(S'w'
I8802
tp799
a(S'p1_tl'
I83
tp800
a(S'w'
I1
tp801
a(S'p1_ll'
I1
tp802
a(S'w'
I8807
tp803
a(S'tr_tl'
I113
tp804
a(S'w'
I1
tp805
a(S'tr_ll'
I1
tp806
a(S'w'
I8804
tp807
a(S'tr_tl'
I143
tp808
a(S'w'
I1
tp809
a(S'tr_ll'
I1
tp810
a(S'w'
I17608
tp811
a(S'p1_tl'
I254
tp812
a(S'w'
I1
tp813
a(S'p1_ll'
I1
tp814
a(S'p1_th'
I0
tp815
a(S'w'
I5
tp816
a(S'tr_tl'
I125
tp817
a(S'w'
I1
tp818
a(S'tr_ll'
I1
tp819
a(S'tr_th'
I1
tp820
a(S'w'
I8801
tp821
a(S'tr_tl'
I113
tp822
a(S'w'
I1
tp823
a(S'tr_ll'
I1
tp824
a(S'tr_th'
I0
tp825
a(S'w'
I8804
tp826
a(S'tr_tl'
I143
tp827
a(S'w'
I1
tp828
a(S'tr_ll'
I1
tp829
a(S'w'
I8803
tp830
a(S'w'
I1
tp831
a(S'p1_ll'
I1
tp832
a(S'w'
I3
tp833
a(S'tr_tl'
I127
tp834
a(S'w'
I1
tp835
a(S'tr_ll'
I1
tp836
a(S'w'
I17608
tp837
a(S'tr_tl'
I113
tp838
a(S'w'
I1
tp839
a(S'tr_ll'
I1
tp840
a(S'w'
I8802
tp841
a(S'p1_tl'
I227
tp842
a(S'w'
I1
tp843
a(S'p1_ll'
I1
tp844
a(S'w'
I3
tp845
a(S'tr_tl'
I143
tp846
a(S'w'
I1
tp847
a(S'tr_ll'
I1
tp848
a(S'w'
I8803
tp849
a(S'tr_tl'
I125
tp850
a(S'w'
I1
tp851
a(S'tr_ll'
I1
tp852
a(S'tr_th'
I1
tp853
a(S'w'
I8802
tp854
a(S'p1_tl'
I29
tp855
a(S'w'
I1
tp856
a(S'p1_ll'
I1
tp857
a(S'p1_th'
I1
tp858
a(S'w'
I3
tp859
a(S'tr_tl'
I83
tp860
a(S'w'
I1
tp861
a(S'tr_ll'
I1
tp862
a(S'w'
I8803
tp863
a(S'tr_tl'
I113
tp864
a(S'w'
I1
tp865
a(S'tr_ll'
I1
tp866
a(S'tr_th'
I0
tp867
a(S'w'
I8804
tp868
a(S'tr_tl'
I143
tp869
a(S'w'
I1
tp870
a(S'tr_ll'
I1
tp871
a(S'w'
I8805
tp872
a(S'tr_tl'
I127
tp873
a(S'w'
I1
tp874
a(S'tr_ll'
I1
tp875
a(S'w'
I17610
tp876
a(S'tr_tl'
I113
tp877
a(S'w'
I1
tp878
a(S'tr_ll'
I1
tp879
a(S'w'
I8804
tp880
a(S'tr_tl'
I143
tp881
a(S'w'
I1
tp882
a(S'tr_ll'
I1
tp883
a(S'w'
I17610
tp884
a(S'p1_tl'
I170
tp885
a(S'w'
I1
tp886
a(S'p1_ll'
I1
tp887
a(S'p1_th'
I0
tp888
a(S'w'
I5
tp889
a(S'tr_tl'
I125
tp890
a(S'w'
I1
tp891
a(S'tr_ll'
I1
tp892
a(S'tr_th'
I1
tp893
a(S'w'
I8799
tp894
a(S'tr_tl'
I113
tp895
a(S'w'
I1
tp896
a(S'tr_ll'
I1
tp897
a(S'tr_th'
I0
tp898
a(S'w'
I8804
tp899
a(S'tr_tl'
I143
tp900
a(S'w'
I1
tp901
a(S'tr_ll'
I1
tp902
a(S'w'
I8805
tp903
a(S'tr_tl'
I127
tp904
a(S'w'
I1
tp905
a(S'tr_ll'
I1
tp906
a(S'w'
I17610
tp907
a(S'tr_tl'
I113
tp908
a(S'w'
I1
tp909
a(S'tr_ll'
I1
tp910
a(S'w'
I8802
tp911
a(S'p1_tl'
I190
tp912
a(S'w'
I1
tp913
a(S'p1_ll'
I1
tp914
a(S'w'
I3
tp915
a(S'tr_tl'
I143
tp916
a(S'w'
I1
tp917
a(S'tr_ll'
I1
tp918
a(S'w'
I8803
tp919
a(S'tr_tl'
I125
tp920
a(S'w'
I1
tp921
a(S'tr_ll'
I1
tp922
a(S'tr_th'
I1
tp923
a(S'w'
I8802
tp924
a(S'p1_tl'
I254
tp925
a(S'w'
I1
tp926
a(S'p1_ll'
I1
tp927
a(S'w'
I3
tp928
a(S'tr_tl'
I83
tp929
a(S'w'
I1
tp930
a(S'tr_ll'
I1
tp931
a(S'w'
I8803
tp932
a(S'tr_tl'
I113
tp933
a(S'w'
I1
tp934
a(S'tr_ll'
I1
tp935
a(S'tr_th'
I0
tp936
a(S'w'
I8804
tp937
a(S'tr_tl'
I143
tp938
a(S'w'
I1
tp939
a(S'tr_ll'
I1
tp940
a(S'w'
I8805
tp941
a(S'tr_tl'
I127
tp942
a(S'w'
I1
tp943
a(S'tr_ll'
I1
tp944
a(S'w'
I17610
tp945
a(S'tr_tl'
I113
tp946
a(S'w'
I1
tp947
a(S'tr_ll'
I1
tp948
a(S'w'
I8804
tp949
a(S'tr_tl'
I143
tp950
a(S'w'
I1
tp951
a(S'tr_ll'
I1
tp952
a(S'w'
I17608
tp953
a(S'p1_tl'
I227
tp954
a(S'w'
I1
tp955
a(S'p1_ll'
I1
tp956
a(S'w'
I5
tp957
a(S'tr_tl'
I125
tp958
a(S'w'
I1
tp959
a(S'tr_ll'
I1
tp960
a(S'tr_th'
I1
tp961
a(S'w'
I8801
tp962
a(S'tr_tl'
I113
tp963
a(S'w'
I1
tp964
a(S'tr_ll'
I1
tp965
a(S'tr_th'
I0
tp966
a(S'w'
I8804
tp967
a(S'tr_tl'
I143
tp968
a(S'w'
I1
tp969
a(S'tr_ll'
I1
tp970
a(S'w'
I8805
tp971
a(S'tr_tl'
I127
tp972
a(S'w'
I1
tp973
a(S'tr_ll'
I1
tp974
a(S'w'
I17610
tp975
a(S'tr_tl'
I113
tp976
a(S'w'
I1
tp977
a(S'tr_ll'
I1
tp978
a(S'w'
I8804
tp979
a(S'tr_tl'
I143
tp980
a(S'w'
I1
tp981
a(S'tr_ll'
I1
tp982
a(S'w'
I8805
tp983
a(S'tr_tl'
I125
tp984
a(S'w'
I1
tp985
a(S'tr_ll'
I1
tp986
a(S'tr_th'
I1
tp987
a(S'w'
I8804
tp988
a(S'tr_tl'
I83
tp989
a(S'w'
I1
tp990
a(S'tr_ll'
I1
tp991
a(S'w'
I8805
tp992
a(S'tr_tl'
I113
tp993
a(S'w'
I1
tp994
a(S'tr_ll'
I1
tp995
a(S'tr_th'
I0
tp996
a(S'w'
I8804
tp997
a(S'tr_tl'
I143
tp998
a(S'w'
I1
tp999
a(S'tr_ll'
I1
tp1000
a(S'w'
I8805
tp1001
a(S'tr_tl'
I127
tp1002
a(S'w'
I1
tp1003
a(S'tr_ll'
I1
tp1004
a(S'w'
I17610
tp1005
a(S'tr_tl'
I113
tp1006
a(S'w'
I1
tp1007
a(S'tr_ll'
I1
tp1008
a(S'w'
I8804
tp1009
a(S'tr_tl'
I143
tp1010
a(S'w'
I1
tp1011
a(S'tr_ll'
I1
tp1012
a(S'w'
I17610
tp1013
a(S'p1_tl'
I170
tp1014
a(S'w'
I1
tp1015
a(S'p1_ll'
I1
tp1016
a(S'w'
I5
tp1017
a(S'tr_tl'
I125
tp1018
a(S'w'
I1
tp1019
a(S'tr_ll'
I1
tp1020
a(S'tr_th'
I1
tp1021
a(S'w'
I8799
tp1022
a(S'tr_tl'
I113
tp1023
a(S'w'
I1
tp1024
a(S'tr_ll'
I1
tp1025
a(S'tr_th'
I0
tp1026
a(S'w'
I8804
tp1027
a(S'tr_tl'
I143
tp1028
a(S'w'
I1
tp1029
a(S'tr_ll'
I1
tp1030
a(S'w'
I8805
tp1031
a(S'tr_tl'
I127
tp1032
a(S'w'
I1
tp1033
a(S'tr_ll'
I1
tp1034
a(S'w'
I17610
tp1035
a(S'tr_tl'
I113
tp1036
a(S'w'
I1
tp1037
a(S'tr_ll'
I1
tp1038
a(S'w'
I8802
tp1039
a(S'p1_tl'
I190
tp1040
a(S'w'
I1
tp1041
a(S'p1_ll'
I1
tp1042
a(S'w'
I3
tp1043
a(S'tr_tl'
I143
tp1044
a(S'w'
I1
tp1045
a(S'tr_ll'
I1
tp1046
a(S'w'
I8803
tp1047
a(S'tr_tl'
I125
tp1048
a(S'w'
I1
tp1049
a(S'tr_ll'
I1
tp1050
a(S'tr_th'
I1
tp1051
a(S'w'
I8802
tp1052
a(S'p1_tl'
I254
tp1053
a(S'w'
I1
tp1054
a(S'p1_ll'
I1
tp1055
a(S'w'
I3
tp1056
a(S'tr_tl'
I83
tp1057
a(S'w'
I1
tp1058
a(S'tr_ll'
I1
tp1059
a(S'w'
I8803
tp1060
a(S'tr_tl'
I113
tp1061
a(S'w'
I1
tp1062
a(S'tr_ll'
I1
tp1063
a(S'tr_th'
I0
tp1064
a(S'w'
I8804
tp1065
a(S'tr_tl'
I143
tp1066
a(S'w'
I1
tp1067
a(S'tr_ll'
I1
tp1068
a(S'w'
I8803
tp1069
a(S'w'
I1
tp1070
a(S'p1_ll'
I1
tp1071
a(S'w'
I3
tp1072
a(S'tr_tl'
I127
tp1073
a(S'w'
I1
tp1074
a(S'tr_ll'
I1
tp1075
a(S'w'
I17608
tp1076
a(S'tr_tl'
I113
tp1077
a(S'w'
I1
tp1078
a(S'tr_ll'
I1
tp1079
a(S'w'
I8802
tp1080
a(S'p1_tl'
I190
tp1081
a(S'w'
I1
tp1082
a(S'p1_ll'
I1
tp1083
a(S'w'
I3
tp1084
a(S'tr_tl'
I143
tp1085
a(S'w'
I1
tp1086
a(S'tr_ll'
I1
tp1087
a(S'w'
I17606
tp1088
a(S'p1_tl'
I227
tp1089
a(S'w'
I1
tp1090
a(S'p1_ll'
I1
tp1091
a(S'w'
I5
tp1092
a(S'tr_lr'
I127
tp1093
a(S'w'
I3
tp1094
a(S'tr_tl'
I46
tp1095
a(S'w'
I1
tp1096
a(S'tr_ll'
I1
tp1097
a(S'tr_th'
I1
tp1098
a(S'w'
I8798
tp1099
a(S'tr_tl'
I127
tp1100
a(S'w'
I1
tp1101
a(S'tr_ll'
I1
tp1102
a(S'tr_th'
I0
tp1103
a(S'w'
I8804
tp1104
a(S'tr_tl'
I113
tp1105
a(S'w'
I1
tp1106
a(S'tr_ll'
I1
tp1107
a(S'w'
I8805
tp1108
a(S'tr_tl'
I84
tp1109
a(S'w'
I1
tp1110
a(S'tr_ll'
I1
tp1111
a(S'w'
I35221
tp1112
a(S'tr_tl'
I127
tp1113
a(S'w'
I1
tp1114
a(S'tr_ll'
I1
tp1115
a(S'w'
I4401
tp1116
a(S'tr_tl'
I143
tp1117
a(S'w'
I1
tp1118
a(S'tr_ll'
I1
tp1119
a(S'w'
I4400
tp1120
a(S'p1_tl'
I170
tp1121
a(S'w'
I1
tp1122
a(S'p1_ll'
I1
tp1123
a(S'w'
I3
tp1124
a(S'tr_tl'
I170
tp1125
a(S'w'
I1
tp1126
a(S'tr_ll'
I1
tp1127
a(S'w'
I8803
tp1128
a(S'tr_tl'
I125
tp1129
a(S'w'
I1
tp1130
a(S'tr_ll'
I1
tp1131
a(S'tr_th'
I1
tp1132
a(S'w'
I8804
tp1133
a(S'tr_tl'
I83
tp1134
a(S'w'
I1
tp1135
a(S'tr_ll'
I1
tp1136
a(S'w'
I8805
tp1137
a(S'tr_tl'
I29
tp1138
a(S'w'
I1
tp1139
a(S'tr_ll'
I1
tp1140
a(S'w'
I8802
tp1141
a(S'p1_tl'
I127
tp1142
a(S'w'
I1
tp1143
a(S'p1_ll'
I1
tp1144
a(S'w'
I3
tp1145
a(S'tr_tl'
I254
tp1146
a(S'w'
I1
tp1147
a(S'tr_ll'
I1
tp1148
a(S'tr_th'
I0
tp1149
a(S'w'
I8803
tp1150
a(S'tr_tl'
I227
tp1151
a(S'w'
I1
tp1152
a(S'tr_ll'
I1
tp1153
a(S'w'
I8804
tp1154
a(S'tr_tl'
I190
tp1155
a(S'w'
I1
tp1156
a(S'tr_ll'
I1
tp1157
a(S'w'
I8805
tp1158
a(S'tr_tl'
I170
tp1159
a(S'w'
I1
tp1160
a(S'tr_ll'
I1
tp1161
a(S'w'
I8806
tp1162
a(S'p1_du'
I0
tp1163
a(S'p1_lh'
I0
tp1164
a(S'p1_vo'
I7
tp1165
a(S'w'
I1
tp1166
a(S'w'
I2
tp1167
a(S'p1_tl'
I84
tp1168
a(S'w'
I1
tp1169
a(S'p1_ll'
I1
tp1170
a(S'w'
I5
tp1171
a(S'tr_lr'
I28
tp1172
a(S'w'
I3
tp1173
a(S'tr_tl'
I84
tp1174
a(S'w'
I1
tp1175
a(S'tr_ll'
I1
tp1176
a(S'w'
I8789
tp1177
a(S'p1_tl'
I113
tp1178
a(S'w'
I1
tp1179
a(S'p1_ll'
I1
tp1180
a(S'w'
I3
tp1181
a(S'tr_tl'
I113
tp1182
a(S'w'
I1
tp1183
a(S'tr_ll'
I1
tp1184
a(S'w'
I8800
tp1185
a(S'p1_tl'
I94
tp1186
a(S'w'
I1
tp1187
a(S'p1_ll'
I1
tp1188
a(S'w'
I3
tp1189
a(S'tr_tl'
I94
tp1190
a(S'w'
I1
tp1191
a(S'tr_ll'
I1
tp1192
a(S'w'
I8801
tp1193
a(S'p1_tl'
I84
tp1194
a(S'w'
I1
tp1195
a(S'p1_ll'
I1
tp1196
a(S'w'
I3
tp1197
a(S'tr_tl'
I84
tp1198
a(S'w'
I1
tp1199
a(S'tr_ll'
I1
tp1200
a(S'w'
I17606
tp1201
a(S'p1_tl'
I113
tp1202
a(S'w'
I1
tp1203
a(S'p1_ll'
I1
tp1204
a(S'w'
I3
tp1205
a(S'tr_tl'
I113
tp1206
a(S'w'
I1
tp1207
a(S'tr_ll'
I1
tp1208
a(S'w'
I8800
tp1209
a(S'p1_tl'
I94
tp1210
a(S'w'
I1
tp1211
a(S'p1_ll'
I1
tp1212
a(S'w'
I3
tp1213
a(S'tr_tl'
I94
tp1214
a(S'w'
I1
tp1215
a(S'tr_ll'
I1
tp1216
a(S'w'
I8801
tp1217
a(S'p1_tl'
I84
tp1218
a(S'w'
I1
tp1219
a(S'p1_ll'
I1
tp1220
a(S'w'
I3
tp1221
a(S'tr_tl'
I84
tp1222
a(S'w'
I1
tp1223
a(S'tr_ll'
I1
tp1224
a(S'w'
I8800
tp1225
a(S'p1_tl'
I127
tp1226
a(S'w'
I1
tp1227
a(S'p1_ll'
I1
tp1228
a(S'w'
I3
tp1229
a(S'tr_tl'
I127
tp1230
a(S'w'
I1
tp1231
a(S'tr_ll'
I1
tp1232
a(S'w'
I8801
tp1233
a(S'w'
I1
tp1234
a(S'p1_ll'
I1
tp1235
a(S'w'
I4
tp1236
a(S'tr_ll'
I1
tp1237
a(S'w'
I8800
tp1238
a(S'w'
I1
tp1239
a(S'p1_ll'
I1
tp1240
a(S'w'
I4
tp1241
a(S'tr_ll'
I1
tp1242
a(S'w'
I8801
tp1243
a(S'p1_tl'
I113
tp1244
a(S'w'
I1
tp1245
a(S'p1_ll'
I1
tp1246
a(S'w'
I3
tp1247
a(S'tr_tl'
I113
tp1248
a(S'w'
I1
tp1249
a(S'tr_ll'
I1
tp1250
a(S'w'
I8800
tp1251
a(S'p1_tl'
I94
tp1252
a(S'w'
I1
tp1253
a(S'p1_ll'
I1
tp1254
a(S'w'
I3
tp1255
a(S'tr_tl'
I94
tp1256
a(S'w'
I1
tp1257
a(S'tr_ll'
I1
tp1258
a(S'w'
I8801
tp1259
a(S'p1_tl'
I170
tp1260
a(S'w'
I1
tp1261
a(S'p1_ll'
I1
tp1262
a(S'w'
I3
tp1263
a(S'tr_tl'
I170
tp1264
a(S'w'
I1
tp1265
a(S'tr_ll'
I1
tp1266
a(S'w'
I17606
tp1267
a(S'p1_tl'
I127
tp1268
a(S'w'
I1
tp1269
a(S'p1_ll'
I1
tp1270
a(S'w'
I3
tp1271
a(S'tr_tl'
I127
tp1272
a(S'w'
I1
tp1273
a(S'tr_ll'
I1
tp1274
a(S'w'
I4398
tp1275
a(S'p1_tl'
I113
tp1276
a(S'w'
I1
tp1277
a(S'p1_ll'
I1
tp1278
a(S'w'
I3
tp1279
a(S'tr_tl'
I113
tp1280
a(S'w'
I1
tp1281
a(S'tr_ll'
I1
tp1282
a(S'w'
I4397
tp1283
a(S'p1_tl'
I84
tp1284
a(S'w'
I1
tp1285
a(S'p1_ll'
I1
tp1286
a(S'w'
I3
tp1287
a(S'tr_tl'
I84
tp1288
a(S'w'
I1
tp1289
a(S'tr_ll'
I1
tp1290
a(S'w'
I8801
tp1291
a(S'p1_tl'
I113
tp1292
a(S'w'
I1
tp1293
a(S'p1_ll'
I1
tp1294
a(S'w'
I3
tp1295
a(S'tr_tl'
I113
tp1296
a(S'w'
I1
tp1297
a(S'tr_ll'
I1
tp1298
a(S'w'
I8800
tp1299
a(S'p1_tl'
I94
tp1300
a(S'w'
I1
tp1301
a(S'p1_ll'
I1
tp1302
a(S'w'
I3
tp1303
a(S'tr_tl'
I94
tp1304
a(S'w'
I1
tp1305
a(S'tr_ll'
I1
tp1306
a(S'w'
I8801
tp1307
a(S'p1_tl'
I84
tp1308
a(S'w'
I1
tp1309
a(S'p1_ll'
I1
tp1310
a(S'w'
I3
tp1311
a(S'tr_tl'
I84
tp1312
a(S'w'
I1
tp1313
a(S'tr_ll'
I1
tp1314
a(S'w'
I17606
tp1315
a(S'p1_tl'
I127
tp1316
a(S'w'
I1
tp1317
a(S'p1_ll'
I1
tp1318
a(S'w'
I3
tp1319
a(S'tr_tl'
I127
tp1320
a(S'w'
I1
tp1321
a(S'tr_ll'
I1
tp1322
a(S'w'
I17606
tp1323
a(S'w'
I1
tp1324
a(S'p1_ll'
I1
tp1325
a(S'w'
I4
tp1326
a(S'tr_ll'
I1
tp1327
a(S'w'
I17606
tp1328
a(S'w'
I1
tp1329
a(S'p1_ll'
I1
tp1330
a(S'w'
I4
tp1331
a(S'tr_ll'
I1
tp1332
a(S'w'
I8800
tp1333
a(S'w'
I1
tp1334
a(S'p1_ll'
I1
tp1335
a(S'w'
I4
tp1336
a(S'tr_ll'
I1
tp1337
a(S'w'
I8801
tp1338
a(S'p1_tl'
I113
tp1339
a(S'w'
I1
tp1340
a(S'p1_ll'
I1
tp1341
a(S'w'
I3
tp1342
a(S'tr_tl'
I113
tp1343
a(S'w'
I1
tp1344
a(S'tr_ll'
I1
tp1345
a(S'w'
I17606
tp1346
a(S'p1_tl'
I170
tp1347
a(S'w'
I1
tp1348
a(S'p1_ll'
I1
tp1349
a(S'w'
I3
tp1350
a(S'tr_tl'
I170
tp1351
a(S'w'
I1
tp1352
a(S'tr_ll'
I1
tp1353
a(S'w'
I17606
tp1354
a(S'p1_tl'
I113
tp1355
a(S'w'
I1
tp1356
a(S'p1_ll'
I1
tp1357
a(S'w'
I3
tp1358
a(S'tr_tl'
I113
tp1359
a(S'w'
I1
tp1360
a(S'tr_ll'
I1
tp1361
a(S'w'
I4398
tp1362
a(S'p1_tl'
I94
tp1363
a(S'w'
I1
tp1364
a(S'p1_ll'
I1
tp1365
a(S'w'
I3
tp1366
a(S'tr_tl'
I94
tp1367
a(S'w'
I1
tp1368
a(S'tr_ll'
I1
tp1369
a(S'w'
I4397
tp1370
a(S'p1_tl'
I84
tp1371
a(S'w'
I1
tp1372
a(S'p1_ll'
I1
tp1373
a(S'w'
I3
tp1374
a(S'tr_tl'
I84
tp1375
a(S'w'
I1
tp1376
a(S'tr_ll'
I1
tp1377
a(S'w'
I8801
tp1378
a(S'p1_tl'
I113
tp1379
a(S'w'
I1
tp1380
a(S'p1_ll'
I1
tp1381
a(S'w'
I3
tp1382
a(S'tr_tl'
I113
tp1383
a(S'w'
I1
tp1384
a(S'tr_ll'
I1
tp1385
a(S'w'
I8800
tp1386
a(S'p1_tl'
I94
tp1387
a(S'w'
I1
tp1388
a(S'p1_ll'
I1
tp1389
a(S'w'
I3
tp1390
a(S'tr_tl'
I94
tp1391
a(S'w'
I1
tp1392
a(S'tr_ll'
I1
tp1393
a(S'w'
I8801
tp1394
a(S'p1_tl'
I84
tp1395
a(S'w'
I1
tp1396
a(S'p1_ll'
I1
tp1397
a(S'w'
I3
tp1398
a(S'tr_tl'
I84
tp1399
a(S'w'
I1
tp1400
a(S'tr_ll'
I1
tp1401
a(S'w'
I17606
tp1402
a(S'p1_tl'
I113
tp1403
a(S'w'
I1
tp1404
a(S'p1_ll'
I1
tp1405
a(S'w'
I3
tp1406
a(S'tr_tl'
I113
tp1407
a(S'w'
I1
tp1408
a(S'tr_ll'
I1
tp1409
a(S'w'
I8800
tp1410
a(S'p1_tl'
I94
tp1411
a(S'w'
I1
tp1412
a(S'p1_ll'
I1
tp1413
a(S'w'
I3
tp1414
a(S'tr_tl'
I94
tp1415
a(S'w'
I1
tp1416
a(S'tr_ll'
I1
tp1417
a(S'w'
I8801
tp1418
a(S'p1_tl'
I84
tp1419
a(S'w'
I1
tp1420
a(S'p1_ll'
I1
tp1421
a(S'w'
I3
tp1422
a(S'tr_tl'
I84
tp1423
a(S'w'
I1
tp1424
a(S'tr_ll'
I1
tp1425
a(S'w'
I8800
tp1426
a(S'p1_tl'
I127
tp1427
a(S'w'
I1
tp1428
a(S'p1_ll'
I1
tp1429
a(S'w'
I3
tp1430
a(S'tr_tl'
I127
tp1431
a(S'w'
I1
tp1432
a(S'tr_ll'
I1
tp1433
a(S'w'
I8801
tp1434
a(S'w'
I1
tp1435
a(S'p1_ll'
I1
tp1436
a(S'w'
I4
tp1437
a(S'tr_ll'
I1
tp1438
a(S'w'
I8800
tp1439
a(S'w'
I1
tp1440
a(S'p1_ll'
I1
tp1441
a(S'w'
I4
tp1442
a(S'tr_ll'
I1
tp1443
a(S'w'
I8801
tp1444
a(S'p1_tl'
I113
tp1445
a(S'w'
I1
tp1446
a(S'p1_ll'
I1
tp1447
a(S'w'
I3
tp1448
a(S'tr_tl'
I113
tp1449
a(S'w'
I1
tp1450
a(S'tr_ll'
I1
tp1451
a(S'w'
I17606
tp1452
a(S'p1_tl'
I94
tp1453
a(S'w'
I1
tp1454
a(S'p1_ll'
I1
tp1455
a(S'w'
I3
tp1456
a(S'tr_tl'
I94
tp1457
a(S'w'
I1
tp1458
a(S'tr_ll'
I1
tp1459
a(S'w'
I17606
tp1460
a(S'w'
I1
tp1461
a(S'p1_ll'
I1
tp1462
a(S'w'
I4
tp1463
a(S'tr_ll'
I1
tp1464
a(S'w'
I4398
tp1465
a(S'p1_tl'
I89
tp1466
a(S'w'
I1
tp1467
a(S'p1_ll'
I1
tp1468
a(S'w'
I3
tp1469
a(S'tr_tl'
I89
tp1470
a(S'w'
I1
tp1471
a(S'tr_ll'
I1
tp1472
a(S'w'
I4397
tp1473
a(S'p1_tl'
I84
tp1474
a(S'w'
I1
tp1475
a(S'p1_ll'
I1
tp1476
a(S'w'
I3
tp1477
a(S'tr_tl'
I84
tp1478
a(S'w'
I1
tp1479
a(S'tr_ll'
I1
tp1480
a(S'w'
I8801
tp1481
a(S'p1_tl'
I113
tp1482
a(S'w'
I1
tp1483
a(S'p1_ll'
I1
tp1484
a(S'w'
I3
tp1485
a(S'tr_tl'
I113
tp1486
a(S'w'
I1
tp1487
a(S'tr_ll'
I1
tp1488
a(S'w'
I8800
tp1489
a(S'p1_tl'
I94
tp1490
a(S'w'
I1
tp1491
a(S'p1_ll'
I1
tp1492
a(S'w'
I3
tp1493
a(S'tr_tl'
I94
tp1494
a(S'w'
I1
tp1495
a(S'tr_ll'
I1
tp1496
a(S'w'
I8801
tp1497
a(S'p1_tl'
I84
tp1498
a(S'w'
I1
tp1499
a(S'p1_ll'
I1
tp1500
a(S'w'
I3
tp1501
a(S'tr_tl'
I84
tp1502
a(S'w'
I1
tp1503
a(S'tr_ll'
I1
tp1504
a(S'w'
I17606
tp1505
a(S'p1_tl'
I127
tp1506
a(S'w'
I1
tp1507
a(S'p1_ll'
I1
tp1508
a(S'w'
I3
tp1509
a(S'tr_tl'
I127
tp1510
a(S'w'
I1
tp1511
a(S'tr_ll'
I1
tp1512
a(S'w'
I17606
tp1513
a(S'w'
I1
tp1514
a(S'p1_ll'
I1
tp1515
a(S'w'
I4
tp1516
a(S'tr_ll'
I1
tp1517
a(S'w'
I17606
tp1518
a(S'w'
I1
tp1519
a(S'p1_ll'
I1
tp1520
a(S'w'
I4
tp1521
a(S'tr_ll'
I1
tp1522
a(S'w'
I8800
tp1523
a(S'w'
I1
tp1524
a(S'p1_ll'
I1
tp1525
a(S'w'
I4
tp1526
a(S'tr_ll'
I1
tp1527
a(S'w'
I8801
tp1528
a(S'p1_tl'
I113
tp1529
a(S'w'
I1
tp1530
a(S'p1_ll'
I1
tp1531
a(S'w'
I3
tp1532
a(S'tr_tl'
I113
tp1533
a(S'w'
I1
tp1534
a(S'tr_ll'
I1
tp1535
a(S'w'
I8804
tp1536
a(S'p1_du'
I2
tp1537
a(S'p1_lh'
I1
tp1538
a(S'p1_vo'
I12
tp1539
a(S'w'
I3
tp1540
a(S'p1_tl'
I125
tp1541
a(S'w'
I1
tp1542
a(S'p1_ll'
I1
tp1543
a(S'p1_th'
I1
tp1544
a(S'w'
I5
tp1545
a(S'tr_tl'
I1
tp1546
a(S'w'
I1
tp1547
a(S'tr_ll'
I1
tp1548
a(S'w'
I8794
tp1549
a(S'tr_tl'
I170
tp1550
a(S'w'
I1
tp1551
a(S'tr_ll'
I1
tp1552
a(S'w'
I2932
tp1553
a(S'p1_tl'
I83
tp1554
a(S'w'
I1
tp1555
a(S'p1_ll'
I1
tp1556
a(S'w'
I11740
tp1557
a(S'p1_tl'
I29
tp1558
a(S'w'
I1
tp1559
a(S'p1_ll'
I1
tp1560
a(S'w'
I2936
tp1561
a(S'tr_tl'
I180
tp1562
a(S'w'
I1
tp1563
a(S'tr_ll'
I1
tp1564
a(S'w'
I8804
tp1565
a(S'p1_tl'
I254
tp1566
a(S'w'
I1
tp1567
a(S'p1_ll'
I1
tp1568
a(S'p1_th'
I0
tp1569
a(S'w'
I5
tp1570
a(S'tr_lr'
I48
tp1571
a(S'w'
I3
tp1572
a(S'tr_tl'
I125
tp1573
a(S'w'
I1
tp1574
a(S'tr_ll'
I1
tp1575
a(S'tr_th'
I1
tp1576
a(S'w'
I8796
tp1577
a(S'tr_tl'
I113
tp1578
a(S'w'
I1
tp1579
a(S'tr_ll'
I1
tp1580
a(S'tr_th'
I0
tp1581
a(S'w'
I8804
tp1582
a(S'tr_tl'
I143
tp1583
a(S'w'
I1
tp1584
a(S'tr_ll'
I1
tp1585
a(S'w'
I8805
tp1586
a(S'tr_tl'
I127
tp1587
a(S'w'
I1
tp1588
a(S'tr_ll'
I1
tp1589
a(S'w'
I17610
tp1590
a(S'tr_tl'
I113
tp1591
a(S'w'
I1
tp1592
a(S'tr_ll'
I1
tp1593
a(S'w'
I8802
tp1594
a(S'p1_tl'
I227
tp1595
a(S'w'
I1
tp1596
a(S'p1_ll'
I1
tp1597
a(S'w'
I3
tp1598
a(S'tr_tl'
I143
tp1599
a(S'w'
I1
tp1600
a(S'tr_ll'
I1
tp1601
a(S'w'
I8803
tp1602
a(S'tr_tl'
I125
tp1603
a(S'w'
I1
tp1604
a(S'tr_ll'
I1
tp1605
a(S'tr_th'
I1
tp1606
a(S'w'
I8802
tp1607
a(S'p1_tl'
I29
tp1608
a(S'w'
I1
tp1609
a(S'p1_ll'
I1
tp1610
a(S'p1_th'
I1
tp1611
a(S'w'
I3
tp1612
a(S'tr_tl'
I83
tp1613
a(S'w'
I1
tp1614
a(S'tr_ll'
I1
tp1615
a(S'w'
I8803
tp1616
a(S'tr_tl'
I113
tp1617
a(S'w'
I1
tp1618
a(S'tr_ll'
I1
tp1619
a(S'tr_th'
I0
tp1620
a(S'w'
I8804
tp1621
a(S'tr_tl'
I143
tp1622
a(S'w'
I1
tp1623
a(S'tr_ll'
I1
tp1624
a(S'w'
I8805
tp1625
a(S'tr_tl'
I127
tp1626
a(S'w'
I1
tp1627
a(S'tr_ll'
I1
tp1628
a(S'w'
I8802
tp1629
a(S'p1_tl'
I83
tp1630
a(S'w'
I1
tp1631
a(S'p1_ll'
I1
tp1632
a(S'w'
I8807
tp1633
a(S'tr_tl'
I113
tp1634
a(S'w'
I1
tp1635
a(S'tr_ll'
I1
tp1636
a(S'w'
I8804
tp1637
a(S'tr_tl'
I143
tp1638
a(S'w'
I1
tp1639
a(S'tr_ll'
I1
tp1640
a(S'w'
I17608
tp1641
a(S'p1_tl'
I254
tp1642
a(S'w'
I1
tp1643
a(S'p1_ll'
I1
tp1644
a(S'p1_th'
I0
tp1645
a(S'w'
I5
tp1646
a(S'tr_tl'
I125
tp1647
a(S'w'
I1
tp1648
a(S'tr_ll'
I1
tp1649
a(S'tr_th'
I1
tp1650
a(S'w'
I8801
tp1651
a(S'tr_tl'
I113
tp1652
a(S'w'
I1
tp1653
a(S'tr_ll'
I1
tp1654
a(S'tr_th'
I0
tp1655
a(S'w'
I8804
tp1656
a(S'tr_tl'
I143
tp1657
a(S'w'
I1
tp1658
a(S'tr_ll'
I1
tp1659
a(S'w'
I8803
tp1660
a(S'w'
I1
tp1661
a(S'p1_ll'
I1
tp1662
a(S'w'
I3
tp1663
a(S'tr_tl'
I127
tp1664
a(S'w'
I1
tp1665
a(S'tr_ll'
I1
tp1666
a(S'w'
I17608
tp1667
a(S'tr_tl'
I113
tp1668
a(S'w'
I1
tp1669
a(S'tr_ll'
I1
tp1670
a(S'w'
I8802
tp1671
a(S'p1_tl'
I227
tp1672
a(S'w'
I1
tp1673
a(S'p1_ll'
I1
tp1674
a(S'w'
I3
tp1675
a(S'tr_tl'
I143
tp1676
a(S'w'
I1
tp1677
a(S'tr_ll'
I1
tp1678
a(S'w'
I8803
tp1679
a(S'tr_tl'
I125
tp1680
a(S'w'
I1
tp1681
a(S'tr_ll'
I1
tp1682
a(S'tr_th'
I1
tp1683
a(S'w'
I8802
tp1684
a(S'p1_tl'
I29
tp1685
a(S'w'
I1
tp1686
a(S'p1_ll'
I1
tp1687
a(S'p1_th'
I1
tp1688
a(S'w'
I3
tp1689
a(S'tr_tl'
I83
tp1690
a(S'w'
I1
tp1691
a(S'tr_ll'
I1
tp1692
a(S'w'
I8803
tp1693
a(S'tr_tl'
I113
tp1694
a(S'w'
I1
tp1695
a(S'tr_ll'
I1
tp1696
a(S'tr_th'
I0
tp1697
a(S'w'
I8804
tp1698
a(S'tr_tl'
I143
tp1699
a(S'w'
I1
tp1700
a(S'tr_ll'
I1
tp1701
a(S'w'
I8805
tp1702
a(S'tr_tl'
I127
tp1703
a(S'w'
I1
tp1704
a(S'tr_ll'
I1
tp1705
a(S'w'
I17610
tp1706
a(S'tr_tl'
I113
tp1707
a(S'w'
I1
tp1708
a(S'tr_ll'
I1
tp1709
a(S'w'
I8804
tp1710
a(S'tr_tl'
I143
tp1711
a(S'w'
I1
tp1712
a(S'tr_ll'
I1
tp1713
a(S'w'
I17610
tp1714
a(S'p1_tl'
I254
tp1715
a(S'w'
I1
tp1716
a(S'p1_ll'
I1
tp1717
a(S'p1_th'
I0
tp1718
a(S'w'
I5
tp1719
a(S'tr_tl'
I125
tp1720
a(S'w'
I1
tp1721
a(S'tr_ll'
I1
tp1722
a(S'tr_th'
I1
tp1723
a(S'w'
I8799
tp1724
a(S'tr_tl'
I113
tp1725
a(S'w'
I1
tp1726
a(S'tr_ll'
I1
tp1727
a(S'tr_th'
I0
tp1728
a(S'w'
I8804
tp1729
a(S'tr_tl'
I143
tp1730
a(S'w'
I1
tp1731
a(S'tr_ll'
I1
tp1732
a(S'w'
I8805
tp1733
a(S'tr_tl'
I127
tp1734
a(S'w'
I1
tp1735
a(S'tr_ll'
I1
tp1736
a(S'w'
I17610
tp1737
a(S'tr_tl'
I113
tp1738
a(S'w'
I1
tp1739
a(S'tr_ll'
I1
tp1740
a(S'w'
I8802
tp1741
a(S'p1_tl'
I227
tp1742
a(S'w'
I1
tp1743
a(S'p1_ll'
I1
tp1744
a(S'w'
I3
tp1745
a(S'tr_tl'
I143
tp1746
a(S'w'
I1
tp1747
a(S'tr_ll'
I1
tp1748
a(S'w'
I8803
tp1749
a(S'tr_tl'
I125
tp1750
a(S'w'
I1
tp1751
a(S'tr_ll'
I1
tp1752
a(S'tr_th'
I1
tp1753
a(S'w'
I8802
tp1754
a(S'p1_tl'
I29
tp1755
a(S'w'
I1
tp1756
a(S'p1_ll'
I1
tp1757
a(S'p1_th'
I1
tp1758
a(S'w'
I3
tp1759
a(S'tr_tl'
I83
tp1760
a(S'w'
I1
tp1761
a(S'tr_ll'
I1
tp1762
a(S'w'
I8803
tp1763
a(S'tr_tl'
I113
tp1764
a(S'w'
I1
tp1765
a(S'tr_ll'
I1
tp1766
a(S'tr_th'
I0
tp1767
a(S'w'
I8804
tp1768
a(S'tr_tl'
I143
tp1769
a(S'w'
I1
tp1770
a(S'tr_ll'
I1
tp1771
a(S'w'
I8805
tp1772
a(S'tr_tl'
I127
tp1773
a(S'w'
I1
tp1774
a(S'tr_ll'
I1
tp1775
a(S'w'
I8802
tp1776
a(S'p1_tl'
I83
tp1777
a(S'w'
I1
tp1778
a(S'p1_ll'
I1
tp1779
a(S'w'
I8807
tp1780
a(S'tr_tl'
I113
tp1781
a(S'w'
I1
tp1782
a(S'tr_ll'
I1
tp1783
a(S'w'
I8804
tp1784
a(S'tr_tl'
I143
tp1785
a(S'w'
I1
tp1786
a(S'tr_ll'
I1
tp1787
a(S'w'
I17608
tp1788
a(S'p1_tl'
I254
tp1789
a(S'w'
I1
tp1790
a(S'p1_ll'
I1
tp1791
a(S'p1_th'
I0
tp1792
a(S'w'
I5
tp1793
a(S'tr_tl'
I125
tp1794
a(S'w'
I1
tp1795
a(S'tr_ll'
I1
tp1796
a(S'tr_th'
I1
tp1797
a(S'w'
I8801
tp1798
a(S'tr_tl'
I113
tp1799
a(S'w'
I1
tp1800
a(S'tr_ll'
I1
tp1801
a(S'tr_th'
I0
tp1802
a(S'w'
I8804
tp1803
a(S'tr_tl'
I143
tp1804
a(S'w'
I1
tp1805
a(S'tr_ll'
I1
tp1806
a(S'w'
I8803
tp1807
a(S'w'
I1
tp1808
a(S'p1_ll'
I1
tp1809
a(S'w'
I3
tp1810
a(S'tr_tl'
I127
tp1811
a(S'w'
I1
tp1812
a(S'tr_ll'
I1
tp1813
a(S'w'
I17608
tp1814
a(S'tr_tl'
I113
tp1815
a(S'w'
I1
tp1816
a(S'tr_ll'
I1
tp1817
a(S'w'
I8802
tp1818
a(S'p1_tl'
I227
tp1819
a(S'w'
I1
tp1820
a(S'p1_ll'
I1
tp1821
a(S'w'
I3
tp1822
a(S'tr_tl'
I143
tp1823
a(S'w'
I1
tp1824
a(S'tr_ll'
I1
tp1825
a(S'w'
I8803
tp1826
a(S'tr_tl'
I125
tp1827
a(S'w'
I1
tp1828
a(S'tr_ll'
I1
tp1829
a(S'tr_th'
I1
tp1830
a(S'w'
I8802
tp1831
a(S'p1_tl'
I29
tp1832
a(S'w'
I1
tp1833
a(S'p1_ll'
I1
tp1834
a(S'p1_th'
I1
tp1835
a(S'w'
I3
tp1836
a(S'tr_tl'
I83
tp1837
a(S'w'
I1
tp1838
a(S'tr_ll'
I1
tp1839
a(S'w'
I8803
tp1840
a(S'tr_tl'
I113
tp1841
a(S'w'
I1
tp1842
a(S'tr_ll'
I1
tp1843
a(S'tr_th'
I0
tp1844
a(S'w'
I8804
tp1845
a(S'tr_tl'
I143
tp1846
a(S'w'
I1
tp1847
a(S'tr_ll'
I1
tp1848
a(S'w'
I8805
tp1849
a(S'tr_tl'
I127
tp1850
a(S'w'
I1
tp1851
a(S'tr_ll'
I1
tp1852
a(S'w'
I8802
tp1853
a(S'p1_tl'
I190
tp1854
a(S'w'
I1
tp1855
a(S'p1_ll'
I1
tp1856
a(S'p1_th'
I0
tp1857
a(S'w'
I8807
tp1858
a(S'tr_tl'
I113
tp1859
a(S'w'
I1
tp1860
a(S'tr_ll'
I1
tp1861
a(S'w'
I8804
tp1862
a(S'tr_tl'
I143
tp1863
a(S'w'
I1
tp1864
a(S'tr_ll'
I1
tp1865
a(S'w'
I17608
tp1866
a(S'p1_tl'
I170
tp1867
a(S'w'
I1
tp1868
a(S'p1_ll'
I1
tp1869
a(S'w'
I5
tp1870
a(S'tr_tl'
I214
tp1871
a(S'w'
I1
tp1872
a(S'tr_ll'
I1
tp1873
a(S'w'
I8801
tp1874
a(S'tr_tl'
I113
tp1875
a(S'w'
I1
tp1876
a(S'tr_ll'
I1
tp1877
a(S'w'
I8804
tp1878
a(S'tr_tl'
I84
tp1879
a(S'w'
I1
tp1880
a(S'tr_ll'
I1
tp1881
a(S'w'
I8805
tp1882
a(S'tr_tl'
I127
tp1883
a(S'w'
I1
tp1884
a(S'tr_ll'
I1
tp1885
a(S'w'
I17610
tp1886
a(S'tr_tl'
I113
tp1887
a(S'w'
I1
tp1888
a(S'tr_ll'
I1
tp1889
a(S'w'
I8802
tp1890
a(S'p1_tl'
I190
tp1891
a(S'w'
I1
tp1892
a(S'p1_ll'
I1
tp1893
a(S'w'
I3
tp1894
a(S'tr_tl'
I84
tp1895
a(S'w'
I1
tp1896
a(S'tr_ll'
I1
tp1897
a(S'w'
I8803
tp1898
a(S'tr_tl'
I214
tp1899
a(S'w'
I1
tp1900
a(S'tr_ll'
I1
tp1901
a(S'w'
I8802
tp1902
a(S'p1_tl'
I170
tp1903
a(S'w'
I1
tp1904
a(S'p1_ll'
I1
tp1905
a(S'w'
I3
tp1906
a(S'tr_tl'
I227
tp1907
a(S'w'
I1
tp1908
a(S'tr_ll'
I1
tp1909
a(S'w'
I8803
tp1910
a(S'tr_tl'
I113
tp1911
a(S'w'
I1
tp1912
a(S'tr_ll'
I1
tp1913
a(S'w'
I8804
tp1914
a(S'tr_tl'
I94
tp1915
a(S'w'
I1
tp1916
a(S'tr_ll'
I1
tp1917
a(S'w'
I8805
tp1918
a(S'tr_tl'
I127
tp1919
a(S'w'
I1
tp1920
a(S'tr_ll'
I1
tp1921
a(S'w'
I8802
tp1922
a(S'p1_tl'
I143
tp1923
a(S'w'
I1
tp1924
a(S'p1_ll'
I1
tp1925
a(S'w'
I8807
tp1926
a(S'tr_tl'
I113
tp1927
a(S'w'
I1
tp1928
a(S'tr_ll'
I1
tp1929
a(S'w'
I8804
tp1930
a(S'tr_tl'
I94
tp1931
a(S'w'
I1
tp1932
a(S'tr_ll'
I1
tp1933
a(S'w'
I8805
tp1934
a(S'tr_tl'
I227
tp1935
a(S'w'
I1
tp1936
a(S'tr_ll'
I1
tp1937
a(S'w'
I8802
tp1938
a(S'p1_tl'
I190
tp1939
a(S'w'
I1
tp1940
a(S'p1_ll'
I1
tp1941
a(S'w'
I3
tp1942
a(S'tr_tl'
I254
tp1943
a(S'w'
I1
tp1944
a(S'tr_ll'
I1
tp1945
a(S'w'
I8803
tp1946
a(S'tr_tl'
I107
tp1947
a(S'w'
I1
tp1948
a(S'tr_ll'
I1
tp1949
a(S'w'
I8804
tp1950
a(S'tr_tl'
I94
tp1951
a(S'w'
I1
tp1952
a(S'tr_ll'
I1
tp1953
a(S'w'
I8805
tp1954
a(S'tr_tl'
I143
tp1955
a(S'w'
I1
tp1956
a(S'tr_ll'
I1
tp1957
a(S'w'
I17610
tp1958
a(S'tr_tl'
I107
tp1959
a(S'w'
I1
tp1960
a(S'tr_ll'
I1
tp1961
a(S'w'
I8804
tp1962
a(S'tr_tl'
I94
tp1963
a(S'w'
I1
tp1964
a(S'tr_ll'
I1
tp1965
a(S'w'
I8805
tp1966
a(S'tr_tl'
I254
tp1967
a(S'w'
I1
tp1968
a(S'tr_ll'
I1
tp1969
a(S'w'
I8802
tp1970
a(S'p1_tl'
I170
tp1971
a(S'w'
I1
tp1972
a(S'p1_ll'
I1
tp1973
a(S'w'
I3
tp1974
a(S'tr_tl'
I29
tp1975
a(S'w'
I1
tp1976
a(S'tr_ll'
I1
tp1977
a(S'tr_th'
I1
tp1978
a(S'w'
I8803
tp1979
a(S'tr_tl'
I113
tp1980
a(S'w'
I1
tp1981
a(S'tr_ll'
I1
tp1982
a(S'tr_th'
I0
tp1983
a(S'w'
I8804
tp1984
a(S'tr_tl'
I94
tp1985
a(S'w'
I1
tp1986
a(S'tr_ll'
I1
tp1987
a(S'w'
I8805
tp1988
a(S'tr_tl'
I170
tp1989
a(S'w'
I1
tp1990
a(S'tr_ll'
I1
tp1991
a(S'w'
I8804
tp1992
a(S'tr_tl'
I143
tp1993
a(S'w'
I1
tp1994
a(S'tr_ll'
I1
tp1995
a(S'w'
I8805
tp1996
a(S'tr_tl'
I127
tp1997
a(S'w'
I1
tp1998
a(S'tr_ll'
I1
tp1999
a(S'w'
I8804
tp2000
a(S'tr_tl'
I113
tp2001
a(S'w'
I1
tp2002
a(S'tr_ll'
I1
tp2003
a(S'w'
I8805
tp2004
a(S'tr_tl'
I94
tp2005
a(S'w'
I1
tp2006
a(S'tr_ll'
I1
tp2007
a(S'w'
I8802
tp2008
a(S'w'
I1
tp2009
a(S'p1_ll'
I1
tp2010
a(S'w'
I5
tp2011
a(S'tr_tl'
I214
tp2012
a(S'w'
I1
tp2013
a(S'tr_ll'
I1
tp2014
a(S'w'
I8801
tp2015
a(S'tr_tl'
I113
tp2016
a(S'w'
I1
tp2017
a(S'tr_ll'
I1
tp2018
a(S'w'
I8804
tp2019
a(S'tr_tl'
I84
tp2020
a(S'w'
I1
tp2021
a(S'tr_ll'
I1
tp2022
a(S'w'
I8805
tp2023
a(S'tr_tl'
I127
tp2024
a(S'w'
I1
tp2025
a(S'tr_ll'
I1
tp2026
a(S'w'
I17610
tp2027
a(S'tr_tl'
I113
tp2028
a(S'w'
I1
tp2029
a(S'tr_ll'
I1
tp2030
a(S'w'
I8802
tp2031
a(S'p1_tl'
I190
tp2032
a(S'w'
I1
tp2033
a(S'p1_ll'
I1
tp2034
a(S'w'
I3
tp2035
a(S'tr_tl'
I84
tp2036
a(S'w'
I1
tp2037
a(S'tr_ll'
I1
tp2038
a(S'w'
I8803
tp2039
a(S'tr_tl'
I214
tp2040
a(S'w'
I1
tp2041
a(S'tr_ll'
I1
tp2042
a(S'w'
I8802
tp2043
a(S'p1_tl'
I170
tp2044
a(S'w'
I1
tp2045
a(S'p1_ll'
I1
tp2046
a(S'w'
I3
tp2047
a(S'tr_tl'
I227
tp2048
a(S'w'
I1
tp2049
a(S'tr_ll'
I1
tp2050
a(S'w'
I8803
tp2051
a(S'tr_tl'
I113
tp2052
a(S'w'
I1
tp2053
a(S'tr_ll'
I1
tp2054
a(S'w'
I8804
tp2055
a(S'tr_tl'
I94
tp2056
a(S'w'
I1
tp2057
a(S'tr_ll'
I1
tp2058
a(S'w'
I8805
tp2059
a(S'tr_tl'
I127
tp2060
a(S'w'
I1
tp2061
a(S'tr_ll'
I1
tp2062
a(S'w'
I8802
tp2063
a(S'p1_tl'
I143
tp2064
a(S'w'
I1
tp2065
a(S'p1_ll'
I1
tp2066
a(S'w'
I8807
tp2067
a(S'tr_tl'
I113
tp2068
a(S'w'
I1
tp2069
a(S'tr_ll'
I1
tp2070
a(S'w'
I8804
tp2071
a(S'tr_tl'
I94
tp2072
a(S'w'
I1
tp2073
a(S'tr_ll'
I1
tp2074
a(S'w'
I8805
tp2075
a(S'tr_tl'
I227
tp2076
a(S'w'
I1
tp2077
a(S'tr_ll'
I1
tp2078
a(S'w'
I8802
tp2079
a(S'p1_tl'
I190
tp2080
a(S'w'
I1
tp2081
a(S'p1_ll'
I1
tp2082
a(S'w'
I3
tp2083
a(S'tr_tl'
I254
tp2084
a(S'w'
I1
tp2085
a(S'tr_ll'
I1
tp2086
a(S'w'
I8803
tp2087
a(S'tr_tl'
I107
tp2088
a(S'w'
I1
tp2089
a(S'tr_ll'
I1
tp2090
a(S'w'
I8804
tp2091
a(S'tr_tl'
I94
tp2092
a(S'w'
I1
tp2093
a(S'tr_ll'
I1
tp2094
a(S'w'
I8805
tp2095
a(S'tr_tl'
I143
tp2096
a(S'w'
I1
tp2097
a(S'tr_ll'
I1
tp2098
a(S'w'
I17610
tp2099
a(S'tr_tl'
I107
tp2100
a(S'w'
I1
tp2101
a(S'tr_ll'
I1
tp2102
a(S'w'
I8804
tp2103
a(S'tr_tl'
I94
tp2104
a(S'w'
I1
tp2105
a(S'tr_ll'
I1
tp2106
a(S'w'
I8805
tp2107
a(S'tr_tl'
I254
tp2108
a(S'w'
I1
tp2109
a(S'tr_ll'
I1
tp2110
a(S'w'
I8802
tp2111
a(S'p1_tl'
I170
tp2112
a(S'w'
I1
tp2113
a(S'p1_ll'
I1
tp2114
a(S'w'
I3
tp2115
a(S'tr_tl'
I29
tp2116
a(S'w'
I1
tp2117
a(S'tr_ll'
I1
tp2118
a(S'tr_th'
I1
tp2119
a(S'w'
I8803
tp2120
a(S'tr_tl'
I113
tp2121
a(S'w'
I1
tp2122
a(S'tr_ll'
I1
tp2123
a(S'tr_th'
I0
tp2124
a(S'w'
I8804
tp2125
a(S'tr_tl'
I94
tp2126
a(S'w'
I1
tp2127
a(S'tr_ll'
I1
tp2128
a(S'w'
I8805
tp2129
a(S'tr_tl'
I170
tp2130
a(S'w'
I1
tp2131
a(S'tr_ll'
I1
tp2132
a(S'w'
I8802
tp2133
a(S'p1_tl'
I143
tp2134
a(S'w'
I1
tp2135
a(S'p1_ll'
I1
tp2136
a(S'w'
I3
tp2137
a(S'tr_tl'
I143
tp2138
a(S'w'
I1
tp2139
a(S'tr_ll'
I1
tp2140
a(S'w'
I8803
tp2141
a(S'tr_tl'
I127
tp2142
a(S'w'
I1
tp2143
a(S'tr_ll'
I1
tp2144
a(S'w'
I8804
tp2145
a(S'tr_tl'
I113
tp2146
a(S'w'
I1
tp2147
a(S'tr_ll'
I1
tp2148
a(S'w'
I8805
tp2149
a(S'tr_tl'
I94
tp2150
a(S'w'
I1
tp2151
a(S'tr_ll'
I1
tp2152
a(S'w'
I8802
tp2153
a(S'p1_tl'
I113
tp2154
a(S'w'
I1
tp2155
a(S'p1_ll'
I1
tp2156
a(S'w'
I5
tp2157
a(S'tr_lr'
I127
tp2158
a(S'w'
I3
tp2159
a(S'tr_tl'
I214
tp2160
a(S'w'
I1
tp2161
a(S'tr_ll'
I1
tp2162
a(S'w'
I8798
tp2163
a(S'tr_tl'
I113
tp2164
a(S'w'
I1
tp2165
a(S'tr_ll'
I1
tp2166
a(S'w'
I8804
tp2167
a(S'tr_tl'
I84
tp2168
a(S'w'
I1
tp2169
a(S'tr_ll'
I1
tp2170
a(S'w'
I8803
tp2171
a(S'p1_tl'
I127
tp2172
a(S'w'
I1
tp2173
a(S'p1_ll'
I1
tp2174
a(S'w'
I3
tp2175
a(S'tr_tl'
I127
tp2176
a(S'w'
I1
tp2177
a(S'tr_ll'
I1
tp2178
a(S'w'
I8802
tp2179
a(S'tr_tl'
I214
tp2180
a(S'w'
I1
tp2181
a(S'tr_ll'
I1
tp2182
a(S'w'
I8805
tp2183
a(S'tr_tl'
I113
tp2184
a(S'w'
I1
tp2185
a(S'tr_ll'
I1
tp2186
a(S'w'
I8802
tp2187
a(S'p1_tl'
I143
tp2188
a(S'w'
I1
tp2189
a(S'p1_ll'
I1
tp2190
a(S'w'
I3
tp2191
a(S'tr_tl'
I84
tp2192
a(S'w'
I1
tp2193
a(S'tr_ll'
I1
tp2194
a(S'w'
I8803
tp2195
a(S'tr_tl'
I214
tp2196
a(S'w'
I1
tp2197
a(S'tr_ll'
I1
tp2198
a(S'w'
I8802
tp2199
a(S'p1_tl'
I127
tp2200
a(S'w'
I1
tp2201
a(S'p1_ll'
I1
tp2202
a(S'w'
I3
tp2203
a(S'tr_tl'
I202
tp2204
a(S'w'
I1
tp2205
a(S'tr_ll'
I1
tp2206
a(S'w'
I8803
tp2207
a(S'tr_tl'
I113
tp2208
a(S'w'
I1
tp2209
a(S'tr_ll'
I1
tp2210
a(S'w'
I8804
tp2211
a(S'tr_tl'
I84
tp2212
a(S'w'
I1
tp2213
a(S'tr_ll'
I1
tp2214
a(S'w'
I8805
tp2215
a(S'tr_tl'
I127
tp2216
a(S'w'
I1
tp2217
a(S'tr_ll'
I1
tp2218
a(S'w'
I8804
tp2219
a(S'tr_tl'
I202
tp2220
a(S'w'
I1
tp2221
a(S'tr_ll'
I1
tp2222
a(S'w'
I8805
tp2223
a(S'tr_tl'
I113
tp2224
a(S'w'
I1
tp2225
a(S'tr_ll'
I1
tp2226
a(S'w'
I8802
tp2227
a(S'p1_tl'
I94
tp2228
a(S'w'
I1
tp2229
a(S'p1_ll'
I1
tp2230
a(S'w'
I3
tp2231
a(S'tr_tl'
I84
tp2232
a(S'w'
I1
tp2233
a(S'tr_ll'
I1
tp2234
a(S'w'
I8803
tp2235
a(S'tr_tl'
I202
tp2236
a(S'w'
I1
tp2237
a(S'tr_ll'
I1
tp2238
a(S'w'
I8802
tp2239
a(S'p1_tl'
I127
tp2240
a(S'w'
I1
tp2241
a(S'p1_ll'
I1
tp2242
a(S'w'
I3
tp2243
a(S'tr_tl'
I190
tp2244
a(S'w'
I1
tp2245
a(S'tr_ll'
I1
tp2246
a(S'w'
I8803
tp2247
a(S'tr_tl'
I94
tp2248
a(S'w'
I1
tp2249
a(S'tr_ll'
I1
tp2250
a(S'w'
I8804
tp2251
a(S'tr_tl'
I84
tp2252
a(S'w'
I1
tp2253
a(S'tr_ll'
I1
tp2254
a(S'w'
I8805
tp2255
a(S'tr_tl'
I113
tp2256
a(S'w'
I1
tp2257
a(S'tr_ll'
I1
tp2258
a(S'w'
I8804
tp2259
a(S'tr_tl'
I190
tp2260
a(S'w'
I1
tp2261
a(S'tr_ll'
I1
tp2262
a(S'w'
I8805
tp2263
a(S'tr_tl'
I94
tp2264
a(S'w'
I1
tp2265
a(S'tr_ll'
I1
tp2266
a(S'w'
I8804
tp2267
a(S'tr_tl'
I84
tp2268
a(S'w'
I1
tp2269
a(S'tr_ll'
I1
tp2270
a(S'w'
I8805
tp2271
a(S'tr_tl'
I190
tp2272
a(S'w'
I1
tp2273
a(S'tr_ll'
I1
tp2274
a(S'w'
I8802
tp2275
a(S'p1_tl'
I113
tp2276
a(S'w'
I1
tp2277
a(S'p1_ll'
I1
tp2278
a(S'w'
I3
tp2279
a(S'tr_tl'
I170
tp2280
a(S'w'
I1
tp2281
a(S'tr_ll'
I1
tp2282
a(S'w'
I8803
tp2283
a(S'tr_tl'
I94
tp2284
a(S'w'
I1
tp2285
a(S'tr_ll'
I1
tp2286
a(S'w'
I8804
tp2287
a(S'tr_tl'
I84
tp2288
a(S'w'
I1
tp2289
a(S'tr_ll'
I1
tp2290
a(S'w'
I8805
tp2291
a(S'tr_tl'
I113
tp2292
a(S'w'
I1
tp2293
a(S'tr_ll'
I1
tp2294
a(S'w'
I8804
tp2295
a(S'tr_tl'
I170
tp2296
a(S'w'
I1
tp2297
a(S'tr_ll'
I1
tp2298
a(S'w'
I8805
tp2299
a(S'tr_tl'
I94
tp2300
a(S'w'
I1
tp2301
a(S'tr_ll'
I1
tp2302
a(S'w'
I8804
tp2303
a(S'tr_tl'
I84
tp2304
a(S'w'
I1
tp2305
a(S'tr_ll'
I1
tp2306
a(S'w'
I8805
tp2307
a(S'tr_tl'
I170
tp2308
a(S'w'
I1
tp2309
a(S'tr_ll'
I1
tp2310
a(S'w'
I8802
tp2311
a(S'w'
I1
tp2312
a(S'p1_ll'
I1
tp2313
a(S'w'
I3
tp2314
a(S'tr_tl'
I214
tp2315
a(S'w'
I1
tp2316
a(S'tr_ll'
I1
tp2317
a(S'w'
I8803
tp2318
a(S'tr_tl'
I113
tp2319
a(S'w'
I1
tp2320
a(S'tr_ll'
I1
tp2321
a(S'w'
I8804
tp2322
a(S'tr_tl'
I84
tp2323
a(S'w'
I1
tp2324
a(S'tr_ll'
I1
tp2325
a(S'w'
I8803
tp2326
a(S'p1_tl'
I127
tp2327
a(S'w'
I1
tp2328
a(S'p1_ll'
I1
tp2329
a(S'w'
I3
tp2330
a(S'tr_tl'
I127
tp2331
a(S'w'
I1
tp2332
a(S'tr_ll'
I1
tp2333
a(S'w'
I8802
tp2334
a(S'tr_tl'
I214
tp2335
a(S'w'
I1
tp2336
a(S'tr_ll'
I1
tp2337
a(S'w'
I8805
tp2338
a(S'tr_tl'
I113
tp2339
a(S'w'
I1
tp2340
a(S'tr_ll'
I1
tp2341
a(S'w'
I8802
tp2342
a(S'p1_tl'
I143
tp2343
a(S'w'
I1
tp2344
a(S'p1_ll'
I1
tp2345
a(S'w'
I3
tp2346
a(S'tr_tl'
I84
tp2347
a(S'w'
I1
tp2348
a(S'tr_ll'
I1
tp2349
a(S'w'
I8803
tp2350
a(S'tr_tl'
I214
tp2351
a(S'w'
I1
tp2352
a(S'tr_ll'
I1
tp2353
a(S'w'
I8802
tp2354
a(S'p1_tl'
I127
tp2355
a(S'w'
I1
tp2356
a(S'p1_ll'
I1
tp2357
a(S'w'
I3
tp2358
a(S'tr_tl'
I227
tp2359
a(S'w'
I1
tp2360
a(S'tr_ll'
I1
tp2361
a(S'w'
I8803
tp2362
a(S'tr_tl'
I113
tp2363
a(S'w'
I1
tp2364
a(S'tr_ll'
I1
tp2365
a(S'w'
I8804
tp2366
a(S'tr_tl'
I94
tp2367
a(S'w'
I1
tp2368
a(S'tr_ll'
I1
tp2369
a(S'w'
I8805
tp2370
a(S'tr_tl'
I127
tp2371
a(S'w'
I1
tp2372
a(S'tr_ll'
I1
tp2373
a(S'w'
I8804
tp2374
a(S'tr_tl'
I227
tp2375
a(S'w'
I1
tp2376
a(S'tr_ll'
I1
tp2377
a(S'w'
I8805
tp2378
a(S'tr_tl'
I113
tp2379
a(S'w'
I1
tp2380
a(S'tr_ll'
I1
tp2381
a(S'w'
I8802
tp2382
a(S'p1_tl'
I94
tp2383
a(S'w'
I1
tp2384
a(S'p1_ll'
I1
tp2385
a(S'w'
I3
tp2386
a(S'tr_tl'
I94
tp2387
a(S'w'
I1
tp2388
a(S'tr_ll'
I1
tp2389
a(S'w'
I8803
tp2390
a(S'tr_tl'
I227
tp2391
a(S'w'
I1
tp2392
a(S'tr_ll'
I1
tp2393
a(S'w'
I8802
tp2394
a(S'p1_tl'
I113
tp2395
a(S'w'
I1
tp2396
a(S'p1_ll'
I1
tp2397
a(S'w'
I3
tp2398
a(S'tr_tl'
I46
tp2399
a(S'w'
I1
tp2400
a(S'tr_ll'
I1
tp2401
a(S'tr_th'
I1
tp2402
a(S'w'
I8803
tp2403
a(S'tr_tl'
I127
tp2404
a(S'w'
I1
tp2405
a(S'tr_ll'
I1
tp2406
a(S'tr_th'
I0
tp2407
a(S'w'
I8804
tp2408
a(S'tr_tl'
I113
tp2409
a(S'w'
I1
tp2410
a(S'tr_ll'
I1
tp2411
a(S'w'
I8805
tp2412
a(S'tr_tl'
I84
tp2413
a(S'w'
I1
tp2414
a(S'tr_ll'
I1
tp2415
a(S'w'
I35221
tp2416
a(S'tr_tl'
I127
tp2417
a(S'w'
I1
tp2418
a(S'tr_ll'
I1
tp2419
a(S'w'
I4400
tp2420
a(S'tr_tl'
I143
tp2421
a(S'w'
I1
tp2422
a(S'tr_ll'
I1
tp2423
a(S'w'
I4403
tp2424
a(S'tr_tl'
I170
tp2425
a(S'w'
I1
tp2426
a(S'tr_ll'
I1
tp2427
a(S'w'
I8805
tp2428
a(S'tr_tl'
I125
tp2429
a(S'w'
I1
tp2430
a(S'tr_ll'
I1
tp2431
a(S'tr_th'
I1
tp2432
a(S'w'
I8804
tp2433
a(S'tr_tl'
I83
tp2434
a(S'w'
I1
tp2435
a(S'tr_ll'
I1
tp2436
a(S'w'
I8805
tp2437
a(S'tr_tl'
I29
tp2438
a(S'w'
I1
tp2439
a(S'tr_ll'
I1
tp2440
a(S'w'
I8804
tp2441
a(S'tr_tl'
I254
tp2442
a(S'w'
I1
tp2443
a(S'tr_ll'
I1
tp2444
a(S'tr_th'
I0
tp2445
a(S'w'
I8805
tp2446
a(S'tr_tl'
I227
tp2447
a(S'w'
I1
tp2448
a(S'tr_ll'
I1
tp2449
a(S'w'
I8804
tp2450
a(S'tr_tl'
I190
tp2451
a(S'w'
I1
tp2452
a(S'tr_ll'
I1
tp2453
a(S'w'
I8805
tp2454
a(S'tr_tl'
I170
tp2455
a(S'w'
I1
tp2456
a(S'tr_ll'
I1
tp2457
a(S'w'
I8807
tp2458
a(S'p1_tl'
I254
tp2459
a(S'w'
I1
tp2460
a(S'p1_ll'
I1
tp2461
a(S'w'
I10
tp2462
a(S'tr_lr'
I48
tp2463
a(S'w'
I3
tp2464
a.