(lp1
(S'clock'
p2
I1789772
tp3
a(S'p1_lh'
I1
tp4
a(S'p1_cv'
I1
tp5
a(S'p1_sn'
I1
tp6
a(S'p2_lh'
I1
tp7
a(S'p2_cv'
I1
tp8
a(S'p2_sn'
I1
tp9
a(S'no_lh'
I1
tp10
a(S'no_cv'
I1
tp11
a(S'ch_no'
I1
tp12
a(S'ch_tr'
I1
tp13
a(S'ch_p2'
I1
tp14
a(S'ch_p1'
I1
tp15
a(S'p1_vo'
I8
tp16
a(S'w'
I6
tp17
a(S'p1_tl'
I201
tp18
a(S'w'
I2
tp19
a(S'p1_ll'
I1
tp20
a(S'w'
I11
tp21
a(S'p2_du'
I1
tp22
a(S'p2_vo'
I8
tp23
a(S'w'
I5
tp24
a(S'p2_tl'
I64
tp25
a(S'w'
I1
tp26
a(S'p2_ll'
I1
tp27
a(S'p2_th'
I1
tp28
a(S'w'
I9
tp29
a(S'tr_lh'
I1
tp30
a(S'tr_lr'
I127
tp31
a(S'w'
I6
tp32
a(S'tr_tl'
I64
tp33
a(S'w'
I1
tp34
a(S'tr_ll'
I1
tp35
a(S'tr_th'
I1
tp36
a(S'w'
I699
tp37
a(S'w'
I17
tp38
a(S'w'
I716
tp39
a(S'w'
I16
tp40
a(S'w'
I713
tp41
a(S'p1_vo'
I6
tp42
a(S'w'
I6
tp43
a(S'w'
I11
tp44
a(S'p2_vo'
I6
tp45
a(S'w'
I6
tp46
a(S'w'
I10
tp47
a(S'tr_lh'
I0
tp48
a(S'tr_lr'
I0
tp49
a(S'w'
I700
tp50
a(S'p1_vo'
I5
tp51
a(S'w'
I6
tp52
a(S'w'
I28
tp53
a(S'p2_vo'
I5
tp54
a(S'w'
I6
tp55
a(S'w'
I694
tp56
a(S'p1_vo'
I8
tp57
a(S'w'
I6
tp58
a(S'p1_tl'
I13
tp59
a(S'w'
I1
tp60
a(S'p1_ll'
I1
tp61
a(S'p1_th'
I1
tp62
a(S'w'
I11
tp63
a(S'p2_vo'
I8
tp64
a(S'w'
I5
tp65
a(S'p2_tl'
I147
tp66
a(S'w'
I2
tp67
a(S'p2_ll'
I1
tp68
a(S'w'
I9
tp69
a(S'tr_lh'
I1
tp70
a(S'tr_lr'
I127
tp71
a(S'w'
I7
tp72
a(S'tr_ll'
I1
tp73
a(S'w'
I699
tp74
a(S'w'
I17
tp75
a(S'w'
I715
tp76
a(S'w'
I16
tp77
a(S'w'
I714
tp78
a(S'p1_vo'
I6
tp79
a(S'w'
I5
tp80
a(S'w'
I11
tp81
a(S'p2_vo'
I6
tp82
a(S'w'
I5
tp83
a(S'w'
I10
tp84
a(S'tr_lh'
I0
tp85
a(S'tr_lr'
I0
tp86
a(S'w'
I702
tp87
a(S'p1_vo'
I5
tp88
a(S'w'
I6
tp89
a(S'w'
I28
tp90
a(S'p2_vo'
I5
tp91
a(S'w'
I5
tp92
a(S'w'
I695
tp93
a(S'p1_vo'
I8
tp94
a(S'w'
I6
tp95
a(S'p1_tl'
I64
tp96
a(S'w'
I1
tp97
a(S'p1_ll'
I1
tp98
a(S'w'
I11
tp99
a(S'p2_vo'
I8
tp100
a(S'w'
I5
tp101
a(S'p2_tl'
I26
tp102
a(S'w'
I1
tp103
a(S'p2_ll'
I1
tp104
a(S'p2_th'
I2
tp105
a(S'w'
I9
tp106
a(S'tr_lh'
I1
tp107
a(S'tr_lr'
I127
tp108
a(S'w'
I7
tp109
a(S'tr_ll'
I1
tp110
a(S'w'
I700
tp111
a(S'w'
I16
tp112
a(S'w'
I716
tp113
a(S'w'
I16
tp114
a(S'w'
I714
tp115
a(S'p1_vo'
I6
tp116
a(S'w'
I5
tp117
a(S'w'
I28
tp118
a(S'p2_vo'
I6
tp119
a(S'w'
I5
tp120
a(S'w'
I26
tp121
a(S'tr_lh'
I0
tp122
a(S'tr_lr'
I0
tp123
a(S'w'
I670
tp124
a(S'p1_vo'
I8
tp125
a(S'w'
I5
tp126
a(S'p1_tl'
I13
tp127
a(S'w'
I1
tp128
a(S'p1_ll'
I1
tp129
a(S'w'
I11
tp130
a(S'p2_vo'
I8
tp131
a(S'w'
I5
tp132
a(S'p2_tl'
I147
tp133
a(S'w'
I2
tp134
a(S'p2_ll'
I1
tp135
a(S'p2_th'
I1
tp136
a(S'w'
I9
tp137
a(S'tr_lh'
I1
tp138
a(S'tr_lr'
I127
tp139
a(S'w'
I5
tp140
a(S'tr_tl'
I147
tp141
a(S'w'
I2
tp142
a(S'tr_ll'
I1
tp143
a(S'w'
I699
tp144
a(S'w'
I17
tp145
a(S'w'
I716
tp146
a(S'w'
I16
tp147
a(S'w'
I713
tp148
a(S'p1_vo'
I6
tp149
a(S'w'
I5
tp150
a(S'w'
I11
tp151
a(S'p2_vo'
I6
tp152
a(S'w'
I6
tp153
a(S'w'
I9
tp154
a(S'tr_lh'
I0
tp155
a(S'tr_lr'
I0
tp156
a(S'w'
I703
tp157
a(S'p1_vo'
I5
tp158
a(S'w'
I5
tp159
a(S'w'
I28
tp160
a(S'p2_vo'
I5
tp161
a(S'w'
I5
tp162
a(S'w'
I696
tp163
a(S'p1_vo'
I8
tp164
a(S'w'
I5
tp165
a(S'p1_tl'
I201
tp166
a(S'w'
I2
tp167
a(S'p1_ll'
I1
tp168
a(S'p1_th'
I0
tp169
a(S'w'
I11
tp170
a(S'p2_vo'
I8
tp171
a(S'w'
I5
tp172
a(S'p2_tl'
I64
tp173
a(S'w'
I2
tp174
a(S'p2_ll'
I1
tp175
a(S'w'
I9
tp176
a(S'tr_lh'
I1
tp177
a(S'tr_lr'
I127
tp178
a(S'w'
I6
tp179
a(S'tr_ll'
I1
tp180
a(S'w'
I700
tp181
a(S'w'
I17
tp182
a(S'w'
I715
tp183
a(S'w'
I16
tp184
a(S'w'
I713
tp185
a(S'p1_vo'
I6
tp186
a(S'w'
I6
tp187
a(S'w'
I28
tp188
a(S'p2_vo'
I6
tp189
a(S'w'
I5
tp190
a(S'w'
I30
tp191
a(S'tr_lh'
I0
tp192
a(S'tr_lr'
I0
tp193
a(S'w'
I665
tp194
a(S'p1_vo'
I8
tp195
a(S'w'
I6
tp196
a(S'p1_tl'
I160
tp197
a(S'w'
I1
tp198
a(S'p1_ll'
I1
tp199
a(S'w'
I11
tp200
a(S'p2_vo'
I8
tp201
a(S'w'
I5
tp202
a(S'p2_tl'
I13
tp203
a(S'w'
I2
tp204
a(S'p2_ll'
I1
tp205
a(S'w'
I9
tp206
a(S'tr_lh'
I1
tp207
a(S'tr_lr'
I127
tp208
a(S'w'
I7
tp209
a(S'tr_ll'
I1
tp210
a(S'w'
I699
tp211
a(S'w'
I17
tp212
a(S'w'
I715
tp213
a(S'w'
I17
tp214
a(S'w'
I712
tp215
a(S'p1_vo'
I6
tp216
a(S'w'
I6
tp217
a(S'w'
I11
tp218
a(S'p2_vo'
I6
tp219
a(S'w'
I6
tp220
a(S'w'
I9
tp221
a(S'tr_lh'
I0
tp222
a(S'tr_lr'
I0
tp223
a(S'w'
I702
tp224
a(S'p1_vo'
I5
tp225
a(S'w'
I6
tp226
a(S'w'
I31
tp227
a(S'p2_vo'
I5
tp228
a(S'w'
I6
tp229
a(S'w'
I691
tp230
a(S'p1_vo'
I8
tp231
a(S'w'
I6
tp232
a(S'p1_tl'
I179
tp233
a(S'w'
I1
tp234
a(S'p1_ll'
I1
tp235
a(S'w'
I11
tp236
a(S'p2_vo'
I8
tp237
a(S'w'
I5
tp238
a(S'p2_tl'
I171
tp239
a(S'w'
I2
tp240
a(S'p2_ll'
I1
tp241
a(S'w'
I9
tp242
a(S'tr_lh'
I1
tp243
a(S'tr_lr'
I127
tp244
a(S'w'
I5
tp245
a(S'tr_tl'
I13
tp246
a(S'w'
I2
tp247
a(S'tr_ll'
I1
tp248
a(S'w'
I701
tp249
a(S'w'
I17
tp250
a(S'w'
I713
tp251
a(S'w'
I16
tp252
a(S'w'
I718
tp253
a(S'w'
I16
tp254
a(S'w'
I718
tp255
a(S'w'
I16
tp256
a(S'w'
I713
tp257
a(S'p1_vo'
I6
tp258
a(S'w'
I6
tp259
a(S'w'
I14
tp260
a(S'p2_vo'
I6
tp261
a(S'w'
I6
tp262
a(S'w'
I13
tp263
a(S'tr_lh'
I0
tp264
a(S'tr_lr'
I0
tp265
a(S'w'
I694
tp266
a(S'p1_vo'
I5
tp267
a(S'w'
I6
tp268
a(S'w'
I12
tp269
a(S'p2_vo'
I5
tp270
a(S'w'
I5
tp271
a(S'w'
I711
tp272
a(S'p1_vo'
I4
tp273
a(S'w'
I6
tp274
a(S'w'
I11
tp275
a(S'p2_vo'
I4
tp276
a(S'w'
I6
tp277
a(S'w'
I711
tp278
a(S'p1_vo'
I3
tp279
a(S'w'
I6
tp280
a(S'w'
I11
tp281
a(S'p2_vo'
I3
tp282
a(S'w'
I6
tp283
a(S'w'
I711
tp284
a(S'p1_vo'
I1
tp285
a(S'w'
I6
tp286
a(S'w'
I11
tp287
a(S'p2_vo'
I1
tp288
a(S'w'
I5
tp289
a(S'w'
I712
tp290
a(S'p1_vo'
I0
tp291
a(S'w'
I6
tp292
a(S'w'
I11
tp293
a(S'p2_vo'
I0
tp294
a(S'w'
I5
tp295
a(S'w'
I718
tp296
a(S'w'
I16
tp297
a(S'w'
I717
tp298
a(S'w'
I34
tp299
a(S'w'
I694
tp300
a(S'p1_vo'
I8
tp301
a(S'w'
I6
tp302
a(S'p1_tl'
I160
tp303
a(S'w'
I2
tp304
a(S'p1_ll'
I1
tp305
a(S'w'
I11
tp306
a(S'p2_vo'
I8
tp307
a(S'w'
I5
tp308
a(S'p2_tl'
I124
tp309
a(S'w'
I1
tp310
a(S'p2_ll'
I1
tp311
a(S'w'
I9
tp312
a(S'tr_lh'
I1
tp313
a(S'tr_lr'
I127
tp314
a(S'w'
I5
tp315
a(S'tr_tl'
I240
tp316
a(S'w'
I2
tp317
a(S'tr_ll'
I1
tp318
a(S'tr_th'
I0
tp319
a(S'w'
I699
tp320
a(S'w'
I17
tp321
a(S'w'
I716
tp322
a(S'w'
I15
tp323
a(S'w'
I719
tp324
a(S'w'
I15
tp325
a(S'w'
I718
tp326
a(S'w'
I17
tp327
a(S'w'
I712
tp328
a(S'p1_vo'
I6
tp329
a(S'w'
I6
tp330
a(S'w'
I11
tp331
a(S'p2_vo'
I6
tp332
a(S'w'
I6
tp333
a(S'w'
I9
tp334
a(S'tr_lh'
I0
tp335
a(S'tr_lr'
I0
tp336
a(S'w'
I702
tp337
a(S'p1_vo'
I5
tp338
a(S'w'
I6
tp339
a(S'w'
I28
tp340
a(S'p2_vo'
I5
tp341
a(S'w'
I5
tp342
a(S'w'
I695
tp343
a(S'p1_vo'
I8
tp344
a(S'w'
I6
tp345
a(S'p1_tl'
I142
tp346
a(S'w'
I1
tp347
a(S'p1_ll'
I1
tp348
a(S'w'
I11
tp349
a(S'p2_vo'
I8
tp350
a(S'w'
I5
tp351
a(S'p2_tl'
I83
tp352
a(S'w'
I2
tp353
a(S'p2_ll'
I1
tp354
a(S'w'
I9
tp355
a(S'tr_lh'
I1
tp356
a(S'tr_lr'
I127
tp357
a(S'w'
I6
tp358
a(S'tr_tl'
I213
tp359
a(S'w'
I1
tp360
a(S'tr_ll'
I1
tp361
a(S'w'
I699
tp362
a(S'w'
I17
tp363
a(S'w'
I715
tp364
a(S'w'
I16
tp365
a(S'w'
I718
tp366
a(S'w'
I16
tp367
a(S'w'
I718
tp368
a(S'w'
I16
tp369
a(S'w'
I718
tp370
a(S'w'
I15
tp371
a(S'w'
I719
tp372
a(S'w'
I15
tp373
a(S'w'
I718
tp374
a(S'w'
I16
tp375
a(S'w'
I718
tp376
a(S'w'
I16
tp377
a(S'w'
I718
tp378
a(S'w'
I16
tp379
a(S'w'
I718
tp380
a(S'w'
I15
tp381
a(S'w'
I719
tp382
a(S'w'
I15
tp383
a(S'w'
I718
tp384
a(S'w'
I16
tp385
a(S'w'
I720
tp386
a(S'w'
I16
tp387
a(S'w'
I716
tp388
a(S'w'
I16
tp389
a(S'w'
I718
tp390
a(S'w'
I15
tp391
a(S'w'
I719
tp392
a(S'w'
I15
tp393
a(S'w'
I718
tp394
a(S'w'
I16
tp395
a(S'w'
I718
tp396
a(S'w'
I16
tp397
a(S'w'
I718
tp398
a(S'w'
I16
tp399
a(S'w'
I718
tp400
a(S'w'
I15
tp401
a(S'w'
I719
tp402
a(S'w'
I15
tp403
a(S'w'
I718
tp404
a(S'w'
I16
tp405
a(S'w'
I718
tp406
a(S'w'
I16
tp407
a(S'w'
I718
tp408
a(S'w'
I16
tp409
a(S'w'
I718
tp410
a(S'w'
I15
tp411
a(S'w'
I719
tp412
a(S'w'
I15
tp413
a(S'w'
I718
tp414
a(S'w'
I16
tp415
a(S'w'
I718
tp416
a(S'w'
I16
tp417
a(S'w'
I718
tp418
a(S'w'
I16
tp419
a(S'w'
I718
tp420
a(S'w'
I15
tp421
a(S'w'
I719
tp422
a(S'w'
I15
tp423
a(S'w'
I718
tp424
a(S'w'
I16
tp425
a(S'w'
I718
tp426
a(S'w'
I16
tp427
a(S'w'
I718
tp428
a(S'w'
I16
tp429
a(S'w'
I718
tp430
a(S'w'
I15
tp431
a(S'w'
I719
tp432
a(S'w'
I15
tp433
a(S'w'
I718
tp434
a(S'w'
I16
tp435
a(S'w'
I718
tp436
a(S'w'
I16
tp437
a(S'w'
I718
tp438
a(S'w'
I16
tp439
a(S'w'
I713
tp440
a(S'p1_vo'
I6
tp441
a(S'w'
I6
tp442
a(S'w'
I11
tp443
a(S'p2_vo'
I6
tp444
a(S'w'
I5
tp445
a(S'w'
I10
tp446
a(S'tr_lh'
I0
tp447
a(S'tr_lr'
I0
tp448
a(S'w'
I702
tp449
a(S'p1_vo'
I5
tp450
a(S'w'
I6
tp451
a(S'w'
I11
tp452
a(S'p2_vo'
I5
tp453
a(S'w'
I5
tp454
a(S'w'
I711
tp455
a(S'p1_vo'
I4
tp456
a(S'w'
I6
tp457
a(S'w'
I11
tp458
a(S'p2_vo'
I4
tp459
a(S'w'
I6
tp460
a(S'w'
I711
tp461
a(S'p1_vo'
I3
tp462
a(S'w'
I6
tp463
a(S'w'
I11
tp464
a(S'p2_vo'
I3
tp465
a(S'w'
I6
tp466
a(S'w'
I711
tp467
a(S'p1_vo'
I1
tp468
a(S'w'
I6
tp469
a(S'w'
I11
tp470
a(S'p2_vo'
I1
tp471
a(S'w'
I5
tp472
a(S'w'
I714
tp473
a(S'p1_vo'
I0
tp474
a(S'w'
I6
tp475
a(S'w'
I11
tp476
a(S'p2_vo'
I0
tp477
a(S'w'
I5
tp478
a(S'w'
I716
tp479
a(S'w'
I16
tp480
a(S'w'
I718
tp481
a(S'w'
I16
tp482
a(S'w'
I717
tp483
a(S'w'
I17
tp484
a(S'w'
I717
tp485
a(S'w'
I17
tp486
a(S'w'
I717
tp487
a(S'w'
I17
tp488
a(S'w'
I717
tp489
a(S'w'
I16
tp490
a(S'w'
I718
tp491
a(S'w'
I17
tp492
a(S'w'
I725
tp493
a(S'p2_du'
I0
tp494
a(S'w'
I1
tp495
a.