(lp1
(S'clock'
p2
I1789772
tp3
a(S'fc_mo'
I1
tp4
a(S'ch_no'
I0
tp5
a(S'ch_tr'
I0
tp6
a(S'ch_p2'
I0
tp7
a(S'ch_p1'
I0
tp8
a(S'w'
I735
tp9
a(S'ch_no'
I1
tp10
a(S'ch_tr'
I1
tp11
a(S'ch_p2'
I0
tp12
a(S'ch_p1'
I0
tp13
a(S'w'
I4
tp14
a(S'tr_lr'
I19
tp15
a(S'w'
I1
tp16
a(S'tr_tl'
I171
tp17
a(S'tr_ll'
I1
tp18
a(S'tr_th'
I1
tp19
a(S'w'
I1
tp20
a(S'w'
I1
tp21
a(S'no_np'
I9
tp22
a(S'no_ll'
I1
tp23
a(S'w'
I6603
tp24
a(S'no_np'
I2
tp25
a(S'w'
I1
tp26
a(S'no_ll'
I1
tp27
a(S'w'
I6604
tp28
a(S'w'
I1
tp29
a(S'no_ll'
I1
tp30
a(S'w'
I6601
tp31
a(S'tr_lr'
I57
tp32
a(S'w'
I1
tp33
a(S'tr_tl'
I213
tp34
a(S'tr_ll'
I1
tp35
a(S'tr_th'
I0
tp36
a(S'w'
I1
tp37
a(S'no_vo'
I11
tp38
a(S'w'
I1
tp39
a(S'no_ll'
I1
tp40
a(S'w'
I19809
tp41
a(S'tr_lr'
I19
tp42
a(S'w'
I1
tp43
a(S'tr_tl'
I254
tp44
a(S'tr_ll'
I1
tp45
a(S'w'
I1
tp46
a(S'no_vo'
I0
tp47
a(S'w'
I1
tp48
a(S'no_np'
I9
tp49
a(S'no_ll'
I1
tp50
a(S'w'
I6602
tp51
a(S'tr_ll'
I1
tp52
a(S'w'
I2
tp53
a(S'no_np'
I2
tp54
a(S'no_ll'
I1
tp55
a(S'w'
I6602
tp56
a(S'tr_ll'
I1
tp57
a(S'w'
I2
tp58
a(S'no_np'
I9
tp59
a(S'no_ll'
I1
tp60
a(S'w'
I6602
tp61
a(S'tr_tl'
I83
tp62
a(S'tr_ll'
I1
tp63
a(S'tr_th'
I1
tp64
a(S'w'
I2
tp65
a(S'no_np'
I2
tp66
a(S'no_ll'
I1
tp67
a(S'w'
I6604
tp68
a(S'no_np'
I9
tp69
a(S'w'
I1
tp70
a(S'no_ll'
I1
tp71
a(S'w'
I6602
tp72
a(S'tr_tl'
I29
tp73
a(S'tr_ll'
I1
tp74
a(S'w'
I2
tp75
a(S'no_ll'
I1
tp76
a(S'w'
I6602
tp77
a(S'tr_tl'
I171
tp78
a(S'tr_ll'
I1
tp79
a(S'w'
I2
tp80
a(S'no_ll'
I1
tp81
a(S'w'
I6603
tp82
a(S'no_np'
I2
tp83
a(S'w'
I1
tp84
a(S'no_ll'
I1
tp85
a(S'w'
I6603
tp86
a(S'w'
I1
tp87
a(S'no_ll'
I1
tp88
a(S'w'
I6601
tp89
a(S'tr_lr'
I57
tp90
a(S'w'
I1
tp91
a(S'tr_tl'
I213
tp92
a(S'tr_ll'
I1
tp93
a(S'tr_th'
I0
tp94
a(S'w'
I1
tp95
a(S'no_vo'
I11
tp96
a(S'w'
I1
tp97
a(S'no_ll'
I1
tp98
a(S'w'
I19810
tp99
a(S'tr_lr'
I19
tp100
a(S'w'
I1
tp101
a(S'tr_tl'
I254
tp102
a(S'tr_ll'
I1
tp103
a(S'w'
I1
tp104
a(S'no_vo'
I0
tp105
a(S'w'
I1
tp106
a(S'no_np'
I9
tp107
a(S'no_ll'
I1
tp108
a(S'w'
I6602
tp109
a(S'tr_ll'
I1
tp110
a(S'w'
I2
tp111
a(S'no_np'
I2
tp112
a(S'no_ll'
I1
tp113
a(S'w'
I6602
tp114
a(S'tr_ll'
I1
tp115
a(S'w'
I2
tp116
a(S'no_np'
I9
tp117
a(S'no_ll'
I1
tp118
a(S'w'
I6602
tp119
a(S'tr_tl'
I83
tp120
a(S'tr_ll'
I1
tp121
a(S'tr_th'
I1
tp122
a(S'w'
I2
tp123
a(S'no_np'
I2
tp124
a(S'no_ll'
I1
tp125
a(S'w'
I6603
tp126
a(S'no_np'
I9
tp127
a(S'w'
I1
tp128
a(S'no_ll'
I1
tp129
a(S'w'
I6602
tp130
a(S'tr_tl'
I29
tp131
a(S'tr_ll'
I1
tp132
a(S'w'
I2
tp133
a(S'no_ll'
I1
tp134
a(S'w'
I6597
tp135
a(S'ch_no'
I1
tp136
a(S'ch_tr'
I1
tp137
a(S'ch_p2'
I0
tp138
a(S'ch_p1'
I1
tp139
a(S'p1_du'
I3
tp140
a(S'p1_vo'
I1
tp141
a(S'w'
I1
tp142
a(S'p1_sp'
I7
tp143
a(S'p1_sn'
I1
tp144
a(S'p1_tl'
I213
tp145
a(S'w'
I1
tp146
a(S'p1_ll'
I1
tp147
a(S'w'
I3
tp148
a(S'tr_tl'
I171
tp149
a(S'tr_ll'
I1
tp150
a(S'w'
I2
tp151
a(S'w'
I1
tp152
a(S'no_ll'
I1
tp153
a(S'w'
I2927
tp154
a(S'ch_no'
I1
tp155
a(S'ch_tr'
I1
tp156
a(S'ch_p2'
I1
tp157
a(S'ch_p1'
I1
tp158
a(S'w'
I2
tp159
a(S'p2_du'
I3
tp160
a(S'p2_vo'
I1
tp161
a(S'w'
I1
tp162
a(S'p2_sp'
I7
tp163
a(S'p2_sn'
I1
tp164
a(S'p2_tl'
I106
tp165
a(S'p2_ll'
I1
tp166
a(S'w'
I3666
tp167
a(S'p1_vo'
I11
tp168
a(S'w'
I1
tp169
a(S'w'
I1
tp170
a(S'p1_ll'
I1
tp171
a(S'w'
I4
tp172
a(S'w'
I1
tp173
a(S'no_np'
I2
tp174
a(S'no_ll'
I1
tp175
a(S'w'
I2931
tp176
a(S'p2_vo'
I11
tp177
a(S'w'
I1
tp178
a(S'p2_ll'
I1
tp179
a(S'w'
I3672
tp180
a(S'w'
I1
tp181
a(S'no_ll'
I1
tp182
a(S'w'
I6601
tp183
a(S'tr_lr'
I57
tp184
a(S'w'
I1
tp185
a(S'tr_tl'
I213
tp186
a(S'tr_ll'
I1
tp187
a(S'tr_th'
I0
tp188
a(S'w'
I1
tp189
a(S'no_vo'
I11
tp190
a(S'w'
I1
tp191
a(S'no_ll'
I1
tp192
a(S'w'
I19809
tp193
a(S'tr_lr'
I19
tp194
a(S'w'
I1
tp195
a(S'tr_tl'
I254
tp196
a(S'tr_ll'
I1
tp197
a(S'w'
I1
tp198
a(S'no_vo'
I0
tp199
a(S'w'
I1
tp200
a(S'no_np'
I9
tp201
a(S'no_ll'
I1
tp202
a(S'w'
I6602
tp203
a(S'tr_ll'
I1
tp204
a(S'w'
I2
tp205
a(S'no_np'
I2
tp206
a(S'no_ll'
I1
tp207
a(S'w'
I6602
tp208
a(S'tr_ll'
I1
tp209
a(S'w'
I2
tp210
a(S'no_np'
I9
tp211
a(S'no_ll'
I1
tp212
a(S'w'
I6602
tp213
a(S'tr_tl'
I83
tp214
a(S'tr_ll'
I1
tp215
a(S'tr_th'
I1
tp216
a(S'w'
I2
tp217
a(S'no_np'
I2
tp218
a(S'no_ll'
I1
tp219
a(S'w'
I6604
tp220
a(S'no_np'
I9
tp221
a(S'w'
I1
tp222
a(S'no_ll'
I1
tp223
a(S'w'
I6602
tp224
a(S'tr_tl'
I29
tp225
a(S'tr_ll'
I1
tp226
a(S'w'
I2
tp227
a(S'no_ll'
I1
tp228
a(S'w'
I6597
tp229
a(S'p1_vo'
I1
tp230
a(S'w'
I1
tp231
a(S'p1_tl'
I29
tp232
a(S'w'
I1
tp233
a(S'p1_ll'
I1
tp234
a(S'p1_th'
I1
tp235
a(S'w'
I3
tp236
a(S'tr_tl'
I171
tp237
a(S'tr_ll'
I1
tp238
a(S'w'
I2
tp239
a(S'w'
I1
tp240
a(S'no_ll'
I1
tp241
a(S'w'
I2929
tp242
a(S'p2_vo'
I1
tp243
a(S'w'
I1
tp244
a(S'p2_tl'
I142
tp245
a(S'p2_ll'
I1
tp246
a(S'w'
I3666
tp247
a(S'p1_vo'
I11
tp248
a(S'w'
I1
tp249
a(S'w'
I1
tp250
a(S'p1_ll'
I1
tp251
a(S'w'
I5
tp252
a(S'no_np'
I2
tp253
a(S'no_ll'
I1
tp254
a(S'w'
I2930
tp255
a(S'p2_vo'
I11
tp256
a(S'w'
I1
tp257
a(S'p2_ll'
I1
tp258
a(S'w'
I3672
tp259
a(S'w'
I1
tp260
a(S'no_ll'
I1
tp261
a(S'w'
I6601
tp262
a(S'tr_lr'
I57
tp263
a(S'w'
I1
tp264
a(S'tr_tl'
I213
tp265
a(S'tr_ll'
I1
tp266
a(S'tr_th'
I0
tp267
a(S'w'
I1
tp268
a(S'no_vo'
I11
tp269
a(S'w'
I1
tp270
a(S'no_ll'
I1
tp271
a(S'w'
I19810
tp272
a(S'tr_lr'
I19
tp273
a(S'w'
I1
tp274
a(S'tr_tl'
I254
tp275
a(S'tr_ll'
I1
tp276
a(S'w'
I1
tp277
a(S'no_vo'
I0
tp278
a(S'w'
I1
tp279
a(S'no_np'
I9
tp280
a(S'no_ll'
I1
tp281
a(S'w'
I6602
tp282
a(S'tr_ll'
I1
tp283
a(S'w'
I2
tp284
a(S'no_np'
I2
tp285
a(S'no_ll'
I1
tp286
a(S'w'
I6602
tp287
a(S'tr_ll'
I1
tp288
a(S'w'
I2
tp289
a(S'no_np'
I9
tp290
a(S'no_ll'
I1
tp291
a(S'w'
I6602
tp292
a(S'tr_tl'
I83
tp293
a(S'tr_ll'
I1
tp294
a(S'tr_th'
I1
tp295
a(S'w'
I2
tp296
a(S'no_np'
I2
tp297
a(S'no_ll'
I1
tp298
a(S'w'
I6603
tp299
a(S'no_np'
I9
tp300
a(S'w'
I1
tp301
a(S'no_ll'
I1
tp302
a(S'w'
I6602
tp303
a(S'tr_tl'
I29
tp304
a(S'tr_ll'
I1
tp305
a(S'w'
I2
tp306
a(S'no_ll'
I1
tp307
a(S'w'
I6597
tp308
a(S'p1_vo'
I1
tp309
a(S'w'
I1
tp310
a(S'p1_tl'
I240
tp311
a(S'w'
I1
tp312
a(S'p1_ll'
I1
tp313
a(S'p1_th'
I0
tp314
a(S'w'
I3
tp315
a(S'tr_tl'
I224
tp316
a(S'tr_ll'
I1
tp317
a(S'w'
I2
tp318
a(S'w'
I1
tp319
a(S'no_ll'
I1
tp320
a(S'w'
I2929
tp321
a(S'p2_vo'
I1
tp322
a(S'w'
I1
tp323
a(S'p2_tl'
I120
tp324
a(S'p2_ll'
I1
tp325
a(S'w'
I3666
tp326
a(S'p1_vo'
I11
tp327
a(S'w'
I1
tp328
a(S'w'
I1
tp329
a(S'p1_ll'
I1
tp330
a(S'w'
I5
tp331
a(S'no_np'
I2
tp332
a(S'no_ll'
I1
tp333
a(S'w'
I2931
tp334
a(S'p2_vo'
I11
tp335
a(S'w'
I1
tp336
a(S'p2_ll'
I1
tp337
a(S'w'
I3672
tp338
a(S'w'
I1
tp339
a(S'no_ll'
I1
tp340
a(S'w'
I6601
tp341
a(S'tr_lr'
I57
tp342
a(S'w'
I1
tp343
a(S'tr_tl'
I240
tp344
a(S'tr_ll'
I1
tp345
a(S'tr_th'
I0
tp346
a(S'w'
I1
tp347
a(S'no_vo'
I11
tp348
a(S'w'
I1
tp349
a(S'no_ll'
I1
tp350
a(S'w'
I19805
tp351
a(S'p1_vo'
I1
tp352
a(S'w'
I1
tp353
a(S'p1_tl'
I213
tp354
a(S'w'
I1
tp355
a(S'p1_ll'
I1
tp356
a(S'w'
I2
tp357
a(S'tr_lr'
I19
tp358
a(S'w'
I1
tp359
a(S'tr_tl'
I29
tp360
a(S'tr_ll'
I1
tp361
a(S'tr_th'
I1
tp362
a(S'w'
I1
tp363
a(S'no_vo'
I0
tp364
a(S'w'
I1
tp365
a(S'no_np'
I9
tp366
a(S'w'
I1
tp367
a(S'no_ll'
I1
tp368
a(S'w'
I2929
tp369
a(S'p2_vo'
I1
tp370
a(S'w'
I1
tp371
a(S'p2_tl'
I106
tp372
a(S'p2_ll'
I1
tp373
a(S'w'
I3666
tp374
a(S'p1_vo'
I11
tp375
a(S'w'
I1
tp376
a(S'w'
I1
tp377
a(S'p1_ll'
I1
tp378
a(S'w'
I3
tp379
a(S'tr_ll'
I1
tp380
a(S'w'
I2
tp381
a(S'no_np'
I2
tp382
a(S'w'
I1
tp383
a(S'no_ll'
I1
tp384
a(S'w'
I2929
tp385
a(S'p2_vo'
I11
tp386
a(S'w'
I1
tp387
a(S'p2_ll'
I1
tp388
a(S'w'
I3671
tp389
a(S'tr_ll'
I1
tp390
a(S'w'
I2
tp391
a(S'no_np'
I9
tp392
a(S'no_ll'
I1
tp393
a(S'w'
I6602
tp394
a(S'tr_tl'
I125
tp395
a(S'tr_ll'
I1
tp396
a(S'w'
I2
tp397
a(S'no_np'
I2
tp398
a(S'no_ll'
I1
tp399
a(S'w'
I6604
tp400
a(S'no_np'
I9
tp401
a(S'w'
I1
tp402
a(S'no_ll'
I1
tp403
a(S'w'
I6602
tp404
a(S'tr_tl'
I64
tp405
a(S'tr_ll'
I1
tp406
a(S'w'
I2
tp407
a(S'no_ll'
I1
tp408
a(S'w'
I6597
tp409
a(S'p1_vo'
I1
tp410
a(S'w'
I1
tp411
a(S'p1_tl'
I64
tp412
a(S'w'
I1
tp413
a(S'p1_ll'
I1
tp414
a(S'p1_th'
I1
tp415
a(S'w'
I3
tp416
a(S'tr_tl'
I224
tp417
a(S'tr_ll'
I1
tp418
a(S'w'
I2
tp419
a(S'w'
I1
tp420
a(S'no_ll'
I1
tp421
a(S'w'
I2929
tp422
a(S'p2_vo'
I1
tp423
a(S'w'
I1
tp424
a(S'p2_tl'
I160
tp425
a(S'p2_ll'
I1
tp426
a(S'w'
I3666
tp427
a(S'p1_vo'
I11
tp428
a(S'w'
I1
tp429
a(S'w'
I1
tp430
a(S'p1_ll'
I1
tp431
a(S'w'
I5
tp432
a(S'no_np'
I2
tp433
a(S'no_ll'
I1
tp434
a(S'w'
I2930
tp435
a(S'p2_vo'
I11
tp436
a(S'w'
I1
tp437
a(S'p2_ll'
I1
tp438
a(S'w'
I3672
tp439
a(S'w'
I1
tp440
a(S'no_ll'
I1
tp441
a(S'w'
I6601
tp442
a(S'tr_lr'
I57
tp443
a(S'w'
I1
tp444
a(S'tr_tl'
I240
tp445
a(S'tr_ll'
I1
tp446
a(S'tr_th'
I0
tp447
a(S'w'
I1
tp448
a(S'no_vo'
I11
tp449
a(S'w'
I1
tp450
a(S'no_ll'
I1
tp451
a(S'w'
I19810
tp452
a(S'tr_lr'
I19
tp453
a(S'w'
I1
tp454
a(S'tr_tl'
I29
tp455
a(S'tr_ll'
I1
tp456
a(S'tr_th'
I1
tp457
a(S'w'
I1
tp458
a(S'no_vo'
I0
tp459
a(S'w'
I1
tp460
a(S'no_np'
I9
tp461
a(S'no_ll'
I1
tp462
a(S'w'
I6602
tp463
a(S'tr_ll'
I1
tp464
a(S'w'
I2
tp465
a(S'no_np'
I2
tp466
a(S'no_ll'
I1
tp467
a(S'w'
I6602
tp468
a(S'tr_ll'
I1
tp469
a(S'w'
I2
tp470
a(S'no_np'
I9
tp471
a(S'no_ll'
I1
tp472
a(S'w'
I6602
tp473
a(S'tr_tl'
I125
tp474
a(S'tr_ll'
I1
tp475
a(S'w'
I2
tp476
a(S'no_np'
I2
tp477
a(S'no_ll'
I1
tp478
a(S'w'
I6603
tp479
a(S'no_np'
I9
tp480
a(S'w'
I1
tp481
a(S'no_ll'
I1
tp482
a(S'w'
I6602
tp483
a(S'tr_tl'
I64
tp484
a(S'tr_ll'
I1
tp485
a(S'w'
I2
tp486
a(S'no_ll'
I1
tp487
a(S'w'
I6597
tp488
a(S'p1_vo'
I1
tp489
a(S'w'
I1
tp490
a(S'p1_tl'
I213
tp491
a(S'w'
I1
tp492
a(S'p1_ll'
I1
tp493
a(S'p1_th'
I0
tp494
a(S'w'
I3
tp495
a(S'tr_tl'
I13
tp496
a(S'tr_ll'
I1
tp497
a(S'w'
I2
tp498
a(S'w'
I1
tp499
a(S'no_ll'
I1
tp500
a(S'w'
I2929
tp501
a(S'p2_vo'
I1
tp502
a(S'w'
I1
tp503
a(S'p2_tl'
I106
tp504
a(S'p2_ll'
I1
tp505
a(S'w'
I3666
tp506
a(S'p1_vo'
I11
tp507
a(S'w'
I1
tp508
a(S'w'
I1
tp509
a(S'p1_ll'
I1
tp510
a(S'w'
I5
tp511
a(S'no_np'
I2
tp512
a(S'no_ll'
I1
tp513
a(S'w'
I2931
tp514
a(S'p2_vo'
I11
tp515
a(S'w'
I1
tp516
a(S'p2_ll'
I1
tp517
a(S'w'
I3672
tp518
a(S'w'
I1
tp519
a(S'no_ll'
I1
tp520
a(S'w'
I6601
tp521
a(S'tr_lr'
I57
tp522
a(S'w'
I1
tp523
a(S'tr_tl'
I134
tp524
a(S'tr_ll'
I1
tp525
a(S'tr_th'
I0
tp526
a(S'w'
I1
tp527
a(S'no_vo'
I11
tp528
a(S'w'
I1
tp529
a(S'no_ll'
I1
tp530
a(S'w'
I19805
tp531
a(S'p1_vo'
I1
tp532
a(S'w'
I1
tp533
a(S'p1_tl'
I240
tp534
a(S'w'
I1
tp535
a(S'p1_ll'
I1
tp536
a(S'w'
I2
tp537
a(S'tr_lr'
I19
tp538
a(S'w'
I1
tp539
a(S'tr_tl'
I160
tp540
a(S'tr_ll'
I1
tp541
a(S'w'
I1
tp542
a(S'no_vo'
I0
tp543
a(S'w'
I1
tp544
a(S'no_np'
I9
tp545
a(S'w'
I1
tp546
a(S'no_ll'
I1
tp547
a(S'w'
I2929
tp548
a(S'p2_vo'
I1
tp549
a(S'w'
I1
tp550
a(S'p2_tl'
I120
tp551
a(S'p2_ll'
I1
tp552
a(S'w'
I3667
tp553
a(S'w'
I1
tp554
a(S'p1_ll'
I1
tp555
a(S'w'
I3
tp556
a(S'tr_ll'
I1
tp557
a(S'w'
I2
tp558
a(S'no_np'
I2
tp559
a(S'w'
I1
tp560
a(S'no_ll'
I1
tp561
a(S'w'
I2930
tp562
a(S'p2_ll'
I1
tp563
a(S'w'
I3671
tp564
a(S'tr_ll'
I1
tp565
a(S'w'
I2
tp566
a(S'no_np'
I9
tp567
a(S'no_ll'
I1
tp568
a(S'w'
I6598
tp569
a(S'p1_tl'
I29
tp570
a(S'w'
I1
tp571
a(S'p1_ll'
I1
tp572
a(S'p1_th'
I1
tp573
a(S'w'
I3
tp574
a(S'tr_tl'
I213
tp575
a(S'tr_ll'
I1
tp576
a(S'w'
I2
tp577
a(S'no_np'
I2
tp578
a(S'w'
I1
tp579
a(S'no_ll'
I1
tp580
a(S'w'
I2931
tp581
a(S'p2_tl'
I142
tp582
a(S'p2_ll'
I1
tp583
a(S'w'
I3667
tp584
a(S'w'
I1
tp585
a(S'p1_ll'
I1
tp586
a(S'w'
I5
tp587
a(S'no_np'
I9
tp588
a(S'no_ll'
I1
tp589
a(S'w'
I2931
tp590
a(S'p2_ll'
I1
tp591
a(S'w'
I3671
tp592
a(S'tr_tl'
I179
tp593
a(S'tr_ll'
I1
tp594
a(S'w'
I2
tp595
a(S'no_ll'
I1
tp596
a(S'w'
I6598
tp597
a(S'p1_tl'
I64
tp598
a(S'w'
I1
tp599
a(S'p1_ll'
I1
tp600
a(S'w'
I3
tp601
a(S'tr_tl'
I144
tp602
a(S'tr_ll'
I1
tp603
a(S'tr_th'
I1
tp604
a(S'w'
I2
tp605
a(S'w'
I1
tp606
a(S'no_ll'
I1
tp607
a(S'w'
I2930
tp608
a(S'p2_tl'
I160
tp609
a(S'p2_ll'
I1
tp610
a(S'w'
I3667
tp611
a(S'w'
I1
tp612
a(S'p1_ll'
I1
tp613
a(S'w'
I5
tp614
a(S'no_np'
I2
tp615
a(S'no_ll'
I1
tp616
a(S'w'
I2931
tp617
a(S'p2_ll'
I1
tp618
a(S'w'
I3672
tp619
a(S'w'
I1
tp620
a(S'no_ll'
I1
tp621
a(S'w'
I6598
tp622
a(S'p1_tl'
I103
tp623
a(S'w'
I1
tp624
a(S'p1_ll'
I1
tp625
a(S'w'
I2
tp626
a(S'tr_lr'
I57
tp627
a(S'w'
I1
tp628
a(S'tr_tl'
I200
tp629
a(S'tr_ll'
I1
tp630
a(S'tr_th'
I0
tp631
a(S'w'
I1
tp632
a(S'no_vo'
I11
tp633
a(S'w'
I1
tp634
a(S'w'
I1
tp635
a(S'no_ll'
I1
tp636
a(S'w'
I2930
tp637
a(S'p2_tl'
I179
tp638
a(S'p2_ll'
I1
tp639
a(S'w'
I3667
tp640
a(S'w'
I1
tp641
a(S'p1_ll'
I1
tp642
a(S'w'
I2936
tp643
a(S'p2_ll'
I1
tp644
a(S'w'
I10272
tp645
a(S'p1_tl'
I171
tp646
a(S'w'
I1
tp647
a(S'p1_ll'
I1
tp648
a(S'w'
I2
tp649
a(S'tr_lr'
I19
tp650
a(S'w'
I1
tp651
a(S'tr_tl'
I240
tp652
a(S'tr_ll'
I1
tp653
a(S'w'
I1
tp654
a(S'no_vo'
I0
tp655
a(S'w'
I1
tp656
a(S'no_np'
I9
tp657
a(S'w'
I1
tp658
a(S'no_ll'
I1
tp659
a(S'w'
I2930
tp660
a(S'p2_tl'
I213
tp661
a(S'p2_ll'
I1
tp662
a(S'w'
I3667
tp663
a(S'w'
I1
tp664
a(S'p1_ll'
I1
tp665
a(S'w'
I3
tp666
a(S'tr_ll'
I1
tp667
a(S'w'
I2
tp668
a(S'no_np'
I2
tp669
a(S'w'
I1
tp670
a(S'no_ll'
I1
tp671
a(S'w'
I2930
tp672
a(S'p2_ll'
I1
tp673
a(S'w'
I3671
tp674
a(S'tr_ll'
I1
tp675
a(S'w'
I2
tp676
a(S'no_np'
I9
tp677
a(S'no_ll'
I1
tp678
a(S'w'
I6598
tp679
a(S'p1_tl'
I224
tp680
a(S'w'
I1
tp681
a(S'p1_ll'
I1
tp682
a(S'w'
I3
tp683
a(S'tr_tl'
I64
tp684
a(S'tr_ll'
I1
tp685
a(S'tr_th'
I1
tp686
a(S'w'
I2
tp687
a(S'no_np'
I2
tp688
a(S'w'
I1
tp689
a(S'no_ll'
I1
tp690
a(S'w'
I2930
tp691
a(S'p2_tl'
I240
tp692
a(S'p2_ll'
I1
tp693
a(S'w'
I3667
tp694
a(S'w'
I1
tp695
a(S'p1_ll'
I1
tp696
a(S'w'
I5
tp697
a(S'no_np'
I9
tp698
a(S'no_ll'
I1
tp699
a(S'w'
I2931
tp700
a(S'p2_ll'
I1
tp701
a(S'w'
I3671
tp702
a(S'tr_tl'
I13
tp703
a(S'tr_ll'
I1
tp704
a(S'w'
I2
tp705
a(S'no_ll'
I1
tp706
a(S'w'
I6598
tp707
a(S'p1_tl'
I171
tp708
a(S'w'
I1
tp709
a(S'p1_ll'
I1
tp710
a(S'w'
I3
tp711
a(S'tr_tl'
I171
tp712
a(S'tr_ll'
I1
tp713
a(S'w'
I2
tp714
a(S'w'
I1
tp715
a(S'no_ll'
I1
tp716
a(S'w'
I2930
tp717
a(S'p2_tl'
I213
tp718
a(S'p2_ll'
I1
tp719
a(S'w'
I3666
tp720
a(S'p1_vo'
I11
tp721
a(S'w'
I1
tp722
a(S'w'
I1
tp723
a(S'p1_ll'
I1
tp724
a(S'w'
I5
tp725
a(S'no_np'
I2
tp726
a(S'no_ll'
I1
tp727
a(S'w'
I2931
tp728
a(S'p2_vo'
I11
tp729
a(S'w'
I1
tp730
a(S'p2_ll'
I1
tp731
a(S'w'
I3672
tp732
a(S'w'
I1
tp733
a(S'no_ll'
I1
tp734
a(S'w'
I6601
tp735
a(S'tr_lr'
I57
tp736
a(S'w'
I1
tp737
a(S'tr_tl'
I213
tp738
a(S'tr_ll'
I1
tp739
a(S'tr_th'
I0
tp740
a(S'w'
I1
tp741
a(S'no_vo'
I11
tp742
a(S'w'
I1
tp743
a(S'no_ll'
I1
tp744
a(S'w'
I19809
tp745
a(S'tr_lr'
I19
tp746
a(S'w'
I1
tp747
a(S'tr_tl'
I254
tp748
a(S'tr_ll'
I1
tp749
a(S'w'
I1
tp750
a(S'no_vo'
I0
tp751
a(S'w'
I1
tp752
a(S'no_np'
I9
tp753
a(S'no_ll'
I1
tp754
a(S'w'
I6602
tp755
a(S'tr_ll'
I1
tp756
a(S'w'
I2
tp757
a(S'no_np'
I2
tp758
a(S'no_ll'
I1
tp759
a(S'w'
I6602
tp760
a(S'tr_ll'
I1
tp761
a(S'w'
I2
tp762
a(S'no_np'
I9
tp763
a(S'no_ll'
I1
tp764
a(S'w'
I6602
tp765
a(S'tr_tl'
I83
tp766
a(S'tr_ll'
I1
tp767
a(S'tr_th'
I1
tp768
a(S'w'
I2
tp769
a(S'no_np'
I2
tp770
a(S'no_ll'
I1
tp771
a(S'w'
I6604
tp772
a(S'no_np'
I9
tp773
a(S'w'
I1
tp774
a(S'no_ll'
I1
tp775
a(S'w'
I6602
tp776
a(S'tr_tl'
I29
tp777
a(S'tr_ll'
I1
tp778
a(S'w'
I2
tp779
a(S'no_ll'
I1
tp780
a(S'w'
I6597
tp781
a(S'p1_vo'
I1
tp782
a(S'w'
I1
tp783
a(S'p1_tl'
I87
tp784
a(S'w'
I1
tp785
a(S'p1_ll'
I1
tp786
a(S'p1_th'
I3
tp787
a(S'w'
I3
tp788
a(S'tr_tl'
I171
tp789
a(S'tr_ll'
I1
tp790
a(S'w'
I2
tp791
a(S'w'
I1
tp792
a(S'no_ll'
I1
tp793
a(S'w'
I2194
tp794
a(S'p1_tl'
I33
tp795
a(S'w'
I1
tp796
a(S'p1_ll'
I1
tp797
a(S'w'
I734
tp798
a(S'p2_vo'
I1
tp799
a(S'w'
I1
tp800
a(S'p2_tl'
I171
tp801
a(S'p2_ll'
I1
tp802
a(S'p2_th'
I1
tp803
a(S'w'
I1466
tp804
a(S'p1_tl'
I250
tp805
a(S'w'
I1
tp806
a(S'p1_ll'
I1
tp807
a(S'p1_th'
I2
tp808
a(S'w'
I734
tp809
a(S'p2_tl'
I144
tp810
a(S'p2_ll'
I1
tp811
a(S'w'
I1466
tp812
a(S'p1_tl'
I207
tp813
a(S'w'
I1
tp814
a(S'p1_ll'
I1
tp815
a(S'w'
I5
tp816
a(S'no_np'
I2
tp817
a(S'no_ll'
I1
tp818
a(S'w'
I730
tp819
a(S'p2_tl'
I125
tp820
a(S'p2_ll'
I1
tp821
a(S'w'
I1465
tp822
a(S'p1_tl'
I167
tp823
a(S'w'
I1
tp824
a(S'p1_ll'
I1
tp825
a(S'w'
I735
tp826
a(S'p2_tl'
I103
tp827
a(S'p2_ll'
I1
tp828
a(S'w'
I1466
tp829
a(S'p1_tl'
I129
tp830
a(S'w'
I1
tp831
a(S'p1_ll'
I1
tp832
a(S'w'
I734
tp833
a(S'p2_tl'
I83
tp834
a(S'p2_ll'
I1
tp835
a(S'w'
I1466
tp836
a(S'p1_tl'
I93
tp837
a(S'w'
I1
tp838
a(S'p1_ll'
I1
tp839
a(S'w'
I5
tp840
a(S'no_ll'
I1
tp841
a(S'w'
I730
tp842
a(S'p2_tl'
I64
tp843
a(S'p2_ll'
I1
tp844
a(S'w'
I1465
tp845
a(S'p1_tl'
I59
tp846
a(S'w'
I1
tp847
a(S'p1_ll'
I1
tp848
a(S'w'
I735
tp849
a(S'p2_tl'
I46
tp850
a(S'p2_ll'
I1
tp851
a(S'w'
I1466
tp852
a(S'p1_tl'
I27
tp853
a(S'w'
I1
tp854
a(S'p1_ll'
I1
tp855
a(S'w'
I735
tp856
a(S'p2_tl'
I29
tp857
a(S'p2_ll'
I1
tp858
a(S'w'
I1465
tp859
a(S'p1_tl'
I252
tp860
a(S'w'
I1
tp861
a(S'p1_ll'
I1
tp862
a(S'p1_th'
I1
tp863
a(S'w'
I2
tp864
a(S'tr_lr'
I57
tp865
a(S'w'
I1
tp866
a(S'tr_tl'
I213
tp867
a(S'tr_ll'
I1
tp868
a(S'tr_th'
I0
tp869
a(S'w'
I1
tp870
a(S'no_vo'
I11
tp871
a(S'w'
I1
tp872
a(S'w'
I1
tp873
a(S'no_ll'
I1
tp874
a(S'w'
I729
tp875
a(S'p2_tl'
I13
tp876
a(S'p2_ll'
I1
tp877
a(S'w'
I1466
tp878
a(S'p1_tl'
I224
tp879
a(S'w'
I1
tp880
a(S'p1_ll'
I1
tp881
a(S'w'
I734
tp882
a(S'p2_tl'
I254
tp883
a(S'p2_ll'
I1
tp884
a(S'p2_th'
I0
tp885
a(S'w'
I1466
tp886
a(S'p1_tl'
I197
tp887
a(S'w'
I1
tp888
a(S'p1_ll'
I1
tp889
a(S'w'
I735
tp890
a(S'p2_tl'
I240
tp891
a(S'p2_ll'
I1
tp892
a(S'w'
I1465
tp893
a(S'p1_tl'
I171
tp894
a(S'w'
I1
tp895
a(S'p1_ll'
I1
tp896
a(S'w'
I735
tp897
a(S'p2_tl'
I226
tp898
a(S'p2_ll'
I1
tp899
a(S'w'
I1466
tp900
a(S'p1_tl'
I144
tp901
a(S'w'
I1
tp902
a(S'p1_ll'
I1
tp903
a(S'w'
I734
tp904
a(S'p2_tl'
I213
tp905
a(S'p2_ll'
I1
tp906
a(S'w'
I1466
tp907
a(S'p1_tl'
I125
tp908
a(S'w'
I1
tp909
a(S'p1_ll'
I1
tp910
a(S'w'
I735
tp911
a(S'p2_tl'
I200
tp912
a(S'p2_ll'
I1
tp913
a(S'w'
I1465
tp914
a(S'p1_tl'
I103
tp915
a(S'w'
I1
tp916
a(S'p1_ll'
I1
tp917
a(S'w'
I735
tp918
a(S'p2_tl'
I190
tp919
a(S'p2_ll'
I1
tp920
a(S'w'
I1466
tp921
a(S'p1_tl'
I83
tp922
a(S'w'
I1
tp923
a(S'p1_ll'
I1
tp924
a(S'w'
I735
tp925
a(S'p2_tl'
I179
tp926
a(S'p2_ll'
I1
tp927
a(S'w'
I1465
tp928
a(S'p1_tl'
I64
tp929
a(S'w'
I1
tp930
a(S'p1_ll'
I1
tp931
a(S'w'
I735
tp932
a(S'p2_tl'
I169
tp933
a(S'p2_ll'
I1
tp934
a(S'w'
I1465
tp935
a(S'p1_tl'
I46
tp936
a(S'w'
I1
tp937
a(S'p1_ll'
I1
tp938
a(S'w'
I2
tp939
a(S'tr_lr'
I19
tp940
a(S'w'
I1
tp941
a(S'tr_tl'
I254
tp942
a(S'tr_ll'
I1
tp943
a(S'w'
I1
tp944
a(S'no_vo'
I0
tp945
a(S'w'
I1
tp946
a(S'no_np'
I9
tp947
a(S'w'
I1
tp948
a(S'no_ll'
I1
tp949
a(S'w'
I729
tp950
a(S'p2_tl'
I160
tp951
a(S'p2_ll'
I1
tp952
a(S'w'
I1466
tp953
a(S'p1_tl'
I29
tp954
a(S'w'
I1
tp955
a(S'p1_ll'
I1
tp956
a(S'w'
I735
tp957
a(S'p2_tl'
I151
tp958
a(S'p2_ll'
I1
tp959
a(S'w'
I1465
tp960
a(S'p1_tl'
I13
tp961
a(S'w'
I1
tp962
a(S'p1_ll'
I1
tp963
a(S'w'
I735
tp964
a(S'p2_tl'
I142
tp965
a(S'p2_ll'
I1
tp966
a(S'w'
I1466
tp967
a(S'p1_tl'
I254
tp968
a(S'w'
I1
tp969
a(S'p1_ll'
I1
tp970
a(S'p1_th'
I0
tp971
a(S'w'
I3
tp972
a(S'tr_ll'
I1
tp973
a(S'w'
I2
tp974
a(S'no_np'
I2
tp975
a(S'w'
I1
tp976
a(S'no_ll'
I1
tp977
a(S'w'
I728
tp978
a(S'p2_tl'
I134
tp979
a(S'p2_ll'
I1
tp980
a(S'w'
I1466
tp981
a(S'p1_tl'
I240
tp982
a(S'w'
I1
tp983
a(S'p1_ll'
I1
tp984
a(S'w'
I735
tp985
a(S'p2_tl'
I127
tp986
a(S'p2_ll'
I1
tp987
a(S'w'
I1465
tp988
a(S'p1_tl'
I226
tp989
a(S'w'
I1
tp990
a(S'p1_ll'
I1
tp991
a(S'w'
I735
tp992
a(S'p2_tl'
I120
tp993
a(S'p2_ll'
I1
tp994
a(S'w'
I1466
tp995
a(S'p1_tl'
I213
tp996
a(S'w'
I1
tp997
a(S'p1_ll'
I1
tp998
a(S'w'
I3
tp999
a(S'tr_ll'
I1
tp1000
a(S'w'
I2
tp1001
a(S'no_np'
I9
tp1002
a(S'w'
I1
tp1003
a(S'no_ll'
I1
tp1004
a(S'w'
I729
tp1005
a(S'p2_tl'
I113
tp1006
a(S'p2_ll'
I1
tp1007
a(S'w'
I1465
tp1008
a(S'p1_tl'
I200
tp1009
a(S'w'
I1
tp1010
a(S'p1_ll'
I1
tp1011
a(S'w'
I735
tp1012
a(S'p2_tl'
I106
tp1013
a(S'p2_ll'
I1
tp1014
a(S'w'
I1465
tp1015
a(S'p1_tl'
I190
tp1016
a(S'w'
I1
tp1017
a(S'p1_ll'
I1
tp1018
a(S'w'
I735
tp1019
a(S'p2_tl'
I100
tp1020
a(S'p2_ll'
I1
tp1021
a(S'w'
I1466
tp1022
a(S'p1_tl'
I179
tp1023
a(S'w'
I1
tp1024
a(S'p1_ll'
I1
tp1025
a(S'w'
I3
tp1026
a(S'tr_tl'
I83
tp1027
a(S'tr_ll'
I1
tp1028
a(S'tr_th'
I1
tp1029
a(S'w'
I2
tp1030
a(S'no_np'
I2
tp1031
a(S'w'
I1
tp1032
a(S'no_ll'
I1
tp1033
a(S'w'
I729
tp1034
a(S'p2_tl'
I95
tp1035
a(S'p2_ll'
I1
tp1036
a(S'w'
I1465
tp1037
a(S'p1_tl'
I169
tp1038
a(S'w'
I1
tp1039
a(S'p1_ll'
I1
tp1040
a(S'w'
I735
tp1041
a(S'p2_tl'
I89
tp1042
a(S'p2_ll'
I1
tp1043
a(S'w'
I1466
tp1044
a(S'p1_tl'
I160
tp1045
a(S'w'
I1
tp1046
a(S'p1_ll'
I1
tp1047
a(S'w'
I734
tp1048
a(S'p2_tl'
I84
tp1049
a(S'p2_ll'
I1
tp1050
a(S'w'
I1466
tp1051
a(S'p1_tl'
I151
tp1052
a(S'w'
I1
tp1053
a(S'p1_ll'
I1
tp1054
a(S'w'
I5
tp1055
a(S'no_np'
I9
tp1056
a(S'no_ll'
I1
tp1057
a(S'w'
I730
tp1058
a(S'p2_tl'
I80
tp1059
a(S'p2_ll'
I1
tp1060
a(S'w'
I1465
tp1061
a(S'p1_tl'
I142
tp1062
a(S'w'
I1
tp1063
a(S'p1_ll'
I1
tp1064
a(S'w'
I735
tp1065
a(S'p2_tl'
I75
tp1066
a(S'p2_ll'
I1
tp1067
a(S'w'
I1466
tp1068
a(S'p1_tl'
I134
tp1069
a(S'w'
I1
tp1070
a(S'p1_ll'
I1
tp1071
a(S'w'
I735
tp1072
a(S'p2_tl'
I71
tp1073
a(S'p2_ll'
I1
tp1074
a(S'w'
I1465
tp1075
a(S'p1_tl'
I127
tp1076
a(S'w'
I1
tp1077
a(S'p1_ll'
I1
tp1078
a(S'w'
I3
tp1079
a(S'tr_tl'
I29
tp1080
a(S'tr_ll'
I1
tp1081
a(S'w'
I2
tp1082
a(S'w'
I1
tp1083
a(S'no_ll'
I1
tp1084
a(S'w'
I729
tp1085
a(S'p2_tl'
I67
tp1086
a(S'p2_ll'
I1
tp1087
a(S'w'
I1465
tp1088
a(S'p1_tl'
I120
tp1089
a(S'w'
I1
tp1090
a(S'p1_ll'
I1
tp1091
a(S'w'
I735
tp1092
a(S'p2_tl'
I63
tp1093
a(S'p2_ll'
I1
tp1094
a(S'w'
I1466
tp1095
a(S'p1_tl'
I113
tp1096
a(S'w'
I1
tp1097
a(S'p1_ll'
I1
tp1098
a(S'w'
I735
tp1099
a(S'p2_tl'
I60
tp1100
a(S'p2_ll'
I1
tp1101
a(S'w'
I1465
tp1102
a(S'p1_tl'
I213
tp1103
a(S'w'
I1
tp1104
a(S'p1_ll'
I1
tp1105
a(S'w'
I3
tp1106
a(S'tr_tl'
I171
tp1107
a(S'tr_ll'
I1
tp1108
a(S'w'
I2
tp1109
a(S'w'
I1
tp1110
a(S'no_ll'
I1
tp1111
a(S'w'
I729
tp1112
a(S'p2_tl'
I56
tp1113
a(S'p2_ll'
I1
tp1114
a(S'w'
I2198
tp1115
a.