(lp1
(S'clock'
p2
I1789772
tp3
a(S'fc_mo'
I1
tp4
a(S'ch_no'
I0
tp5
a(S'ch_tr'
I0
tp6
a(S'ch_p2'
I0
tp7
a(S'ch_p1'
I0
tp8
a(S'w'
I735
tp9
a(S'ch_no'
I0
tp10
a(S'ch_tr'
I1
tp11
a(S'ch_p2'
I1
tp12
a(S'ch_p1'
I0
tp13
a(S'w'
I2
tp14
a(S'p2_du'
I2
tp15
a(S'p2_vo'
I4
tp16
a(S'w'
I1
tp17
a(S'p2_sp'
I7
tp18
a(S'p2_sn'
I1
tp19
a(S'p2_tl'
I252
tp20
a(S'p2_ll'
I1
tp21
a(S'p2_th'
I1
tp22
a(S'w'
I1
tp23
a(S'tr_lr'
I31
tp24
a(S'w'
I1
tp25
a(S'tr_tl'
I254
tp26
a(S'tr_ll'
I1
tp27
a(S'w'
I729
tp28
a(S'ch_no'
I1
tp29
a(S'ch_tr'
I1
tp30
a(S'ch_p2'
I1
tp31
a(S'ch_p1'
I1
tp32
a(S'p1_du'
I3
tp33
a(S'p1_vo'
I4
tp34
a(S'w'
I1
tp35
a(S'p1_sp'
I7
tp36
a(S'p1_sn'
I1
tp37
a(S'p1_tl'
I249
tp38
a(S'w'
I1
tp39
a(S'p1_ll'
I1
tp40
a(S'p1_th'
I3
tp41
a(S'w'
I4
tp42
a(S'no_vo'
I4
tp43
a(S'w'
I1
tp44
a(S'no_np'
I4
tp45
a(S'no_ll'
I1
tp46
a(S'w'
I15406
tp47
a(S'p2_tl'
I167
tp48
a(S'p2_ll'
I1
tp49
a(S'p2_th'
I2
tp50
a(S'w'
I2
tp51
a(S'tr_tl'
I83
tp52
a(S'tr_ll'
I1
tp53
a(S'tr_th'
I1
tp54
a(S'w'
I730
tp55
a(S'p1_tl'
I78
tp56
a(S'w'
I1
tp57
a(S'p1_ll'
I1
tp58
a(S'p1_th'
I5
tp59
a(S'w'
I4
tp60
a(S'no_vo'
I3
tp61
a(S'w'
I1
tp62
a(S'no_np'
I9
tp63
a(S'no_ll'
I1
tp64
a(S'w'
I15405
tp65
a(S'p2_tl'
I252
tp66
a(S'p2_ll'
I1
tp67
a(S'p2_th'
I1
tp68
a(S'w'
I2
tp69
a(S'tr_tl'
I254
tp70
a(S'tr_ll'
I1
tp71
a(S'tr_th'
I0
tp72
a(S'w'
I730
tp73
a(S'p1_tl'
I249
tp74
a(S'w'
I1
tp75
a(S'p1_ll'
I1
tp76
a(S'p1_th'
I3
tp77
a(S'w'
I4
tp78
a(S'no_vo'
I4
tp79
a(S'w'
I1
tp80
a(S'no_np'
I4
tp81
a(S'no_ll'
I1
tp82
a(S'w'
I15406
tp83
a(S'p2_tl'
I167
tp84
a(S'p2_ll'
I1
tp85
a(S'p2_th'
I2
tp86
a(S'w'
I2
tp87
a(S'tr_tl'
I83
tp88
a(S'tr_ll'
I1
tp89
a(S'tr_th'
I1
tp90
a(S'w'
I729
tp91
a(S'p1_tl'
I78
tp92
a(S'w'
I1
tp93
a(S'p1_ll'
I1
tp94
a(S'p1_th'
I5
tp95
a(S'w'
I4
tp96
a(S'no_vo'
I3
tp97
a(S'w'
I1
tp98
a(S'no_np'
I9
tp99
a(S'no_ll'
I1
tp100
a(S'w'
I15406
tp101
a(S'p2_tl'
I252
tp102
a(S'p2_ll'
I1
tp103
a(S'p2_th'
I1
tp104
a(S'w'
I2
tp105
a(S'tr_tl'
I254
tp106
a(S'tr_ll'
I1
tp107
a(S'tr_th'
I0
tp108
a(S'w'
I730
tp109
a(S'p1_tl'
I249
tp110
a(S'w'
I1
tp111
a(S'p1_ll'
I1
tp112
a(S'p1_th'
I3
tp113
a(S'w'
I4
tp114
a(S'no_vo'
I4
tp115
a(S'w'
I1
tp116
a(S'no_np'
I4
tp117
a(S'no_ll'
I1
tp118
a(S'w'
I15405
tp119
a(S'p2_tl'
I167
tp120
a(S'p2_ll'
I1
tp121
a(S'p2_th'
I2
tp122
a(S'w'
I2
tp123
a(S'tr_tl'
I83
tp124
a(S'tr_ll'
I1
tp125
a(S'tr_th'
I1
tp126
a(S'w'
I730
tp127
a(S'p1_tl'
I78
tp128
a(S'w'
I1
tp129
a(S'p1_ll'
I1
tp130
a(S'p1_th'
I5
tp131
a(S'w'
I4
tp132
a(S'no_vo'
I3
tp133
a(S'w'
I1
tp134
a(S'no_np'
I9
tp135
a(S'no_ll'
I1
tp136
a(S'w'
I15406
tp137
a(S'p2_tl'
I252
tp138
a(S'p2_ll'
I1
tp139
a(S'p2_th'
I1
tp140
a(S'w'
I2
tp141
a(S'tr_tl'
I254
tp142
a(S'tr_ll'
I1
tp143
a(S'tr_th'
I0
tp144
a(S'w'
I730
tp145
a(S'p1_tl'
I249
tp146
a(S'w'
I1
tp147
a(S'p1_ll'
I1
tp148
a(S'p1_th'
I3
tp149
a(S'w'
I4
tp150
a(S'no_vo'
I4
tp151
a(S'w'
I1
tp152
a(S'no_np'
I4
tp153
a(S'no_ll'
I1
tp154
a(S'w'
I15405
tp155
a(S'p2_tl'
I167
tp156
a(S'p2_ll'
I1
tp157
a(S'p2_th'
I2
tp158
a(S'w'
I2
tp159
a(S'tr_tl'
I83
tp160
a(S'tr_ll'
I1
tp161
a(S'tr_th'
I1
tp162
a(S'w'
I730
tp163
a(S'p1_tl'
I78
tp164
a(S'w'
I1
tp165
a(S'p1_ll'
I1
tp166
a(S'p1_th'
I5
tp167
a(S'w'
I4
tp168
a(S'no_vo'
I3
tp169
a(S'w'
I1
tp170
a(S'no_np'
I9
tp171
a(S'no_ll'
I1
tp172
a(S'w'
I15406
tp173
a(S'p2_tl'
I249
tp174
a(S'p2_ll'
I1
tp175
a(S'p2_th'
I3
tp176
a(S'w'
I1
tp177
a(S'tr_lr'
I41
tp178
a(S'w'
I1
tp179
a(S'tr_tl'
I254
tp180
a(S'tr_ll'
I1
tp181
a(S'tr_th'
I0
tp182
a(S'w'
I729
tp183
a(S'p1_tl'
I249
tp184
a(S'w'
I1
tp185
a(S'p1_ll'
I1
tp186
a(S'p1_th'
I3
tp187
a(S'w'
I4
tp188
a(S'no_vo'
I2
tp189
a(S'w'
I1
tp190
a(S'no_np'
I6
tp191
a(S'no_ll'
I1
tp192
a(S'w'
I8071
tp193
a(S'w'
I1
tp194
a(S'no_ll'
I1
tp195
a(S'w'
I7334
tp196
a(S'p2_tl'
I78
tp197
a(S'p2_ll'
I1
tp198
a(S'p2_th'
I5
tp199
a(S'w'
I2
tp200
a(S'tr_tl'
I83
tp201
a(S'tr_ll'
I1
tp202
a(S'tr_th'
I1
tp203
a(S'w'
I730
tp204
a(S'p1_tl'
I78
tp205
a(S'w'
I1
tp206
a(S'p1_ll'
I1
tp207
a(S'p1_th'
I5
tp208
a(S'w'
I5
tp209
a(S'no_ll'
I1
tp210
a(S'w'
I8071
tp211
a(S'w'
I1
tp212
a(S'no_ll'
I1
tp213
a(S'w'
I7333
tp214
a(S'p2_tl'
I244
tp215
a(S'p2_ll'
I1
tp216
a(S'w'
I2
tp217
a(S'tr_tl'
I125
tp218
a(S'tr_ll'
I1
tp219
a(S'w'
I730
tp220
a(S'p1_tl'
I244
tp221
a(S'w'
I1
tp222
a(S'p1_ll'
I1
tp223
a(S'w'
I4
tp224
a(S'no_vo'
I8
tp225
a(S'w'
I1
tp226
a(S'no_np'
I9
tp227
a(S'no_ll'
I1
tp228
a(S'w'
I15406
tp229
a(S'p2_tl'
I118
tp230
a(S'p2_ll'
I1
tp231
a(S'p2_th'
I4
tp232
a(S'w'
I2
tp233
a(S'tr_tl'
I29
tp234
a(S'tr_ll'
I1
tp235
a(S'w'
I730
tp236
a(S'p1_tl'
I118
tp237
a(S'w'
I1
tp238
a(S'p1_ll'
I1
tp239
a(S'p1_th'
I4
tp240
a(S'w'
I15410
tp241
a(S'p2_tl'
I252
tp242
a(S'p2_ll'
I1
tp243
a(S'p2_th'
I1
tp244
a(S'w'
I2
tp245
a(S'tr_tl'
I254
tp246
a(S'tr_ll'
I1
tp247
a(S'tr_th'
I0
tp248
a(S'w'
I730
tp249
a(S'p1_tl'
I249
tp250
a(S'w'
I1
tp251
a(S'p1_ll'
I1
tp252
a(S'p1_th'
I3
tp253
a(S'w'
I4
tp254
a(S'no_vo'
I2
tp255
a(S'w'
I1
tp256
a(S'no_np'
I6
tp257
a(S'no_ll'
I1
tp258
a(S'w'
I8071
tp259
a(S'w'
I1
tp260
a(S'no_ll'
I1
tp261
a(S'w'
I7334
tp262
a(S'p2_tl'
I167
tp263
a(S'p2_ll'
I1
tp264
a(S'p2_th'
I2
tp265
a(S'w'
I2
tp266
a(S'tr_tl'
I83
tp267
a(S'tr_ll'
I1
tp268
a(S'tr_th'
I1
tp269
a(S'w'
I730
tp270
a(S'p1_tl'
I78
tp271
a(S'w'
I1
tp272
a(S'p1_ll'
I1
tp273
a(S'p1_th'
I5
tp274
a(S'w'
I5
tp275
a(S'no_ll'
I1
tp276
a(S'w'
I8070
tp277
a(S'w'
I1
tp278
a(S'no_ll'
I1
tp279
a(S'w'
I7334
tp280
a(S'p2_tl'
I250
tp281
a(S'p2_ll'
I1
tp282
a(S'w'
I2
tp283
a(S'tr_tl'
I125
tp284
a(S'tr_ll'
I1
tp285
a(S'w'
I730
tp286
a(S'p1_tl'
I244
tp287
a(S'w'
I1
tp288
a(S'p1_ll'
I1
tp289
a(S'w'
I4
tp290
a(S'no_vo'
I8
tp291
a(S'w'
I1
tp292
a(S'no_np'
I9
tp293
a(S'no_ll'
I1
tp294
a(S'w'
I15406
tp295
a(S'p2_tl'
I59
tp296
a(S'p2_ll'
I1
tp297
a(S'w'
I2
tp298
a(S'tr_tl'
I29
tp299
a(S'tr_ll'
I1
tp300
a(S'w'
I729
tp301
a(S'p1_tl'
I118
tp302
a(S'w'
I1
tp303
a(S'p1_ll'
I1
tp304
a(S'p1_th'
I4
tp305
a(S'w'
I15411
tp306
a(S'p2_tl'
I254
tp307
a(S'p2_ll'
I1
tp308
a(S'p2_th'
I0
tp309
a(S'w'
I2
tp310
a(S'tr_tl'
I254
tp311
a(S'tr_ll'
I1
tp312
a(S'tr_th'
I0
tp313
a(S'w'
I730
tp314
a(S'p1_tl'
I249
tp315
a(S'w'
I1
tp316
a(S'p1_ll'
I1
tp317
a(S'p1_th'
I3
tp318
a(S'w'
I4
tp319
a(S'no_vo'
I2
tp320
a(S'w'
I1
tp321
a(S'no_np'
I6
tp322
a(S'no_ll'
I1
tp323
a(S'w'
I8070
tp324
a(S'w'
I1
tp325
a(S'no_ll'
I1
tp326
a(S'w'
I7334
tp327
a(S'p2_tl'
I83
tp328
a(S'p2_ll'
I1
tp329
a(S'p2_th'
I1
tp330
a(S'w'
I2
tp331
a(S'tr_tl'
I83
tp332
a(S'tr_ll'
I1
tp333
a(S'tr_th'
I1
tp334
a(S'w'
I730
tp335
a(S'p1_tl'
I78
tp336
a(S'w'
I1
tp337
a(S'p1_ll'
I1
tp338
a(S'p1_th'
I5
tp339
a(S'w'
I5
tp340
a(S'no_ll'
I1
tp341
a(S'w'
I8071
tp342
a(S'w'
I1
tp343
a(S'no_ll'
I1
tp344
a(S'w'
I7334
tp345
a(S'p2_tl'
I125
tp346
a(S'p2_ll'
I1
tp347
a(S'w'
I2
tp348
a(S'tr_tl'
I125
tp349
a(S'tr_ll'
I1
tp350
a(S'w'
I730
tp351
a(S'p1_tl'
I244
tp352
a(S'w'
I1
tp353
a(S'p1_ll'
I1
tp354
a(S'w'
I4
tp355
a(S'no_vo'
I8
tp356
a(S'w'
I1
tp357
a(S'no_np'
I9
tp358
a(S'no_ll'
I1
tp359
a(S'w'
I15405
tp360
a(S'p2_tl'
I29
tp361
a(S'p2_ll'
I1
tp362
a(S'w'
I2
tp363
a(S'tr_tl'
I29
tp364
a(S'tr_ll'
I1
tp365
a(S'w'
I730
tp366
a(S'p1_tl'
I118
tp367
a(S'w'
I1
tp368
a(S'p1_ll'
I1
tp369
a(S'p1_th'
I4
tp370
a(S'w'
I15411
tp371
a(S'p2_tl'
I254
tp372
a(S'p2_ll'
I1
tp373
a(S'p2_th'
I0
tp374
a(S'w'
I2
tp375
a(S'tr_tl'
I254
tp376
a(S'tr_ll'
I1
tp377
a(S'tr_th'
I0
tp378
a(S'w'
I729
tp379
a(S'p1_tl'
I249
tp380
a(S'w'
I1
tp381
a(S'p1_ll'
I1
tp382
a(S'p1_th'
I3
tp383
a(S'w'
I4
tp384
a(S'no_vo'
I2
tp385
a(S'w'
I1
tp386
a(S'no_np'
I6
tp387
a(S'no_ll'
I1
tp388
a(S'w'
I8071
tp389
a(S'w'
I1
tp390
a(S'no_ll'
I1
tp391
a(S'w'
I7334
tp392
a(S'p2_tl'
I83
tp393
a(S'p2_ll'
I1
tp394
a(S'p2_th'
I1
tp395
a(S'w'
I2
tp396
a(S'tr_tl'
I83
tp397
a(S'tr_ll'
I1
tp398
a(S'tr_th'
I1
tp399
a(S'w'
I730
tp400
a(S'p1_tl'
I78
tp401
a(S'w'
I1
tp402
a(S'p1_ll'
I1
tp403
a(S'p1_th'
I5
tp404
a(S'w'
I5
tp405
a(S'no_ll'
I1
tp406
a(S'w'
I8071
tp407
a(S'w'
I1
tp408
a(S'no_ll'
I1
tp409
a(S'w'
I7333
tp410
a(S'p2_tl'
I125
tp411
a(S'p2_ll'
I1
tp412
a(S'w'
I2
tp413
a(S'tr_tl'
I125
tp414
a(S'tr_ll'
I1
tp415
a(S'w'
I730
tp416
a(S'p1_tl'
I244
tp417
a(S'w'
I1
tp418
a(S'p1_ll'
I1
tp419
a(S'w'
I4
tp420
a(S'no_vo'
I8
tp421
a(S'w'
I1
tp422
a(S'no_np'
I9
tp423
a(S'no_ll'
I1
tp424
a(S'w'
I15406
tp425
a(S'p2_tl'
I29
tp426
a(S'p2_ll'
I1
tp427
a(S'w'
I2
tp428
a(S'tr_tl'
I29
tp429
a(S'tr_ll'
I1
tp430
a(S'w'
I730
tp431
a(S'p1_tl'
I118
tp432
a(S'w'
I1
tp433
a(S'p1_ll'
I1
tp434
a(S'p1_th'
I4
tp435
a(S'w'
I12472
tp436
a(S'ch_no'
I1
tp437
a(S'ch_tr'
I1
tp438
a(S'ch_p2'
I1
tp439
a(S'ch_p1'
I1
tp440
a(S'w'
I2937
tp441
a(S'p2_vo'
I15
tp442
a(S'w'
I1
tp443
a(S'p2_tl'
I54
tp444
a(S'p2_ll'
I1
tp445
a(S'p2_th'
I4
tp446
a(S'w'
I1
tp447
a(S'tr_lr'
I127
tp448
a(S'w'
I1
tp449
a(S'tr_tl'
I13
tp450
a(S'tr_ll'
I1
tp451
a(S'w'
I729
tp452
a(S'w'
I1
tp453
a(S'p1_tl'
I249
tp454
a(S'w'
I1
tp455
a(S'p1_ll'
I1
tp456
a(S'p1_th'
I3
tp457
a(S'w'
I4
tp458
a(S'no_vo'
I4
tp459
a(S'w'
I1
tp460
a(S'no_np'
I5
tp461
a(S'no_ll'
I1
tp462
a(S'w'
I15408
tp463
a(S'tr_ll'
I1
tp464
a(S'w'
I729
tp465
a(S'p1_tl'
I78
tp466
a(S'w'
I1
tp467
a(S'p1_ll'
I1
tp468
a(S'p1_th'
I5
tp469
a(S'w'
I4
tp470
a(S'no_vo'
I0
tp471
a(S'w'
I1
tp472
a(S'no_np'
I3
tp473
a(S'no_ll'
I1
tp474
a(S'w'
I4402
tp475
a(S'w'
I1
tp476
a(S'no_ll'
I1
tp477
a(S'w'
I3668
tp478
a(S'w'
I1
tp479
a(S'no_ll'
I1
tp480
a(S'w'
I4402
tp481
a(S'w'
I1
tp482
a(S'no_ll'
I1
tp483
a(S'w'
I2933
tp484
a(S'tr_ll'
I1
tp485
a(S'w'
I730
tp486
a(S'p1_tl'
I244
tp487
a(S'w'
I1
tp488
a(S'p1_ll'
I1
tp489
a(S'w'
I4
tp490
a(S'no_vo'
I2
tp491
a(S'w'
I1
tp492
a(S'no_np'
I9
tp493
a(S'no_ll'
I1
tp494
a(S'w'
I8071
tp495
a(S'w'
I1
tp496
a(S'no_ll'
I1
tp497
a(S'w'
I8065
tp498
a(S'p1_tl'
I118
tp499
a(S'w'
I1
tp500
a(S'p1_ll'
I1
tp501
a(S'p1_th'
I4
tp502
a(S'w'
I5
tp503
a(S'no_np'
I2
tp504
a(S'no_ll'
I1
tp505
a(S'w'
I7333
tp506
a(S'p2_vo'
I0
tp507
a(S'w'
I1
tp508
a(S'p2_tl'
I87
tp509
a(S'p2_ll'
I1
tp510
a(S'p2_th'
I3
tp511
a(S'w'
I1
tp512
a(S'tr_lr'
I16
tp513
a(S'w'
I1
tp514
a(S'tr_tl'
I213
tp515
a(S'tr_ll'
I1
tp516
a(S'tr_th'
I0
tp517
a(S'w'
I735
tp518
a(S'w'
I1
tp519
a(S'no_ll'
I1
tp520
a(S'w'
I3665
tp521
a(S'p2_tl'
I250
tp522
a(S'p2_ll'
I1
tp523
a(S'p2_th'
I2
tp524
a(S'w'
I2
tp525
a(S'tr_tl'
I190
tp526
a(S'tr_ll'
I1
tp527
a(S'w'
I3667
tp528
a(S'p2_tl'
I93
tp529
a(S'p2_ll'
I1
tp530
a(S'w'
I2
tp531
a(S'tr_tl'
I151
tp532
a(S'tr_ll'
I1
tp533
a(S'w'
I730
tp534
a(S'p1_tl'
I249
tp535
a(S'w'
I1
tp536
a(S'p1_ll'
I1
tp537
a(S'p1_th'
I3
tp538
a(S'w'
I4
tp539
a(S'no_vo'
I4
tp540
a(S'w'
I1
tp541
a(S'no_np'
I5
tp542
a(S'no_ll'
I1
tp543
a(S'w'
I3665
tp544
a(S'p2_tl'
I27
tp545
a(S'p2_ll'
I1
tp546
a(S'w'
I2
tp547
a(S'tr_tl'
I134
tp548
a(S'tr_ll'
I1
tp549
a(S'w'
I3666
tp550
a(S'p2_vo'
I15
tp551
a(S'w'
I1
tp552
a(S'p2_ll'
I1
tp553
a(S'w'
I1
tp554
a(S'tr_lr'
I127
tp555
a(S'w'
I1
tp556
a(S'tr_ll'
I1
tp557
a(S'w'
I8801
tp558
a(S'p1_tl'
I78
tp559
a(S'w'
I1
tp560
a(S'p1_ll'
I1
tp561
a(S'p1_th'
I5
tp562
a(S'w'
I4
tp563
a(S'no_vo'
I0
tp564
a(S'w'
I1
tp565
a(S'no_np'
I3
tp566
a(S'no_ll'
I1
tp567
a(S'w'
I4402
tp568
a(S'w'
I1
tp569
a(S'no_ll'
I1
tp570
a(S'w'
I2933
tp571
a(S'tr_ll'
I1
tp572
a(S'w'
I735
tp573
a(S'w'
I1
tp574
a(S'no_ll'
I1
tp575
a(S'w'
I4402
tp576
a(S'w'
I1
tp577
a(S'no_ll'
I1
tp578
a(S'w'
I3663
tp579
a(S'p1_tl'
I244
tp580
a(S'w'
I1
tp581
a(S'p1_ll'
I1
tp582
a(S'w'
I4
tp583
a(S'no_vo'
I2
tp584
a(S'w'
I1
tp585
a(S'no_np'
I9
tp586
a(S'no_ll'
I1
tp587
a(S'w'
I7335
tp588
a(S'tr_ll'
I1
tp589
a(S'w'
I735
tp590
a(S'w'
I1
tp591
a(S'no_ll'
I1
tp592
a(S'w'
I8066
tp593
a(S'p1_tl'
I118
tp594
a(S'w'
I1
tp595
a(S'p1_ll'
I1
tp596
a(S'p1_th'
I4
tp597
a(S'w'
I5
tp598
a(S'no_np'
I2
tp599
a(S'no_ll'
I1
tp600
a(S'w'
I8071
tp601
a(S'w'
I1
tp602
a(S'no_ll'
I1
tp603
a(S'w'
I7334
tp604
a(S'p2_tl'
I87
tp605
a(S'p2_ll'
I1
tp606
a(S'p2_th'
I3
tp607
a(S'w'
I1
tp608
a(S'tr_lr'
I63
tp609
a(S'w'
I1
tp610
a(S'tr_tl'
I213
tp611
a(S'tr_ll'
I1
tp612
a(S'w'
I729
tp613
a(S'p1_tl'
I249
tp614
a(S'w'
I1
tp615
a(S'p1_ll'
I1
tp616
a(S'p1_th'
I3
tp617
a(S'w'
I4
tp618
a(S'no_vo'
I4
tp619
a(S'w'
I1
tp620
a(S'no_np'
I6
tp621
a(S'no_ll'
I1
tp622
a(S'w'
I16138
tp623
a(S'p1_tl'
I78
tp624
a(S'w'
I1
tp625
a(S'p1_ll'
I1
tp626
a(S'p1_th'
I5
tp627
a(S'w'
I7338
tp628
a(S'p2_vo'
I2
tp629
a(S'w'
I1
tp630
a(S'p2_ll'
I1
tp631
a(S'w'
I1
tp632
a(S'tr_lr'
I31
tp633
a(S'w'
I1
tp634
a(S'tr_ll'
I1
tp635
a(S'w'
I734
tp636
a(S'no_vo'
I0
tp637
a(S'w'
I1
tp638
a(S'no_np'
I3
tp639
a(S'w'
I1
tp640
a(S'no_ll'
I1
tp641
a(S'w'
I3664
tp642
a(S'p2_tl'
I250
tp643
a(S'p2_ll'
I1
tp644
a(S'p2_th'
I2
tp645
a(S'w'
I2
tp646
a(S'tr_tl'
I190
tp647
a(S'tr_ll'
I1
tp648
a(S'w'
I735
tp649
a(S'w'
I1
tp650
a(S'no_ll'
I1
tp651
a(S'w'
I2930
tp652
a(S'p2_vo'
I15
tp653
a(S'w'
I1
tp654
a(S'p2_tl'
I192
tp655
a(S'p2_ll'
I1
tp656
a(S'p2_th'
I3
tp657
a(S'w'
I1
tp658
a(S'tr_lr'
I127
tp659
a(S'w'
I1
tp660
a(S'tr_tl'
I240
tp661
a(S'tr_ll'
I1
tp662
a(S'w'
I730
tp663
a(S'p1_tl'
I244
tp664
a(S'w'
I1
tp665
a(S'p1_ll'
I1
tp666
a(S'w'
I4
tp667
a(S'no_vo'
I8
tp668
a(S'w'
I1
tp669
a(S'no_np'
I9
tp670
a(S'no_ll'
I1
tp671
a(S'w'
I15408
tp672
a(S'tr_ll'
I1
tp673
a(S'w'
I730
tp674
a(S'p1_tl'
I118
tp675
a(S'w'
I1
tp676
a(S'p1_ll'
I1
tp677
a(S'p1_th'
I4
tp678
a(S'w'
I15412
tp679
a(S'tr_ll'
I1
tp680
a(S'w'
I730
tp681
a(S'p1_tl'
I249
tp682
a(S'w'
I1
tp683
a(S'p1_ll'
I1
tp684
a(S'p1_th'
I3
tp685
a(S'w'
I4
tp686
a(S'no_vo'
I0
tp687
a(S'w'
I1
tp688
a(S'no_np'
I3
tp689
a(S'no_ll'
I1
tp690
a(S'w'
I4402
tp691
a(S'w'
I1
tp692
a(S'no_ll'
I1
tp693
a(S'w'
I3668
tp694
a(S'w'
I1
tp695
a(S'no_ll'
I1
tp696
a(S'w'
I4402
tp697
a(S'w'
I1
tp698
a(S'no_ll'
I1
tp699
a(S'w'
I2933
tp700
a(S'tr_ll'
I1
tp701
a(S'w'
I729
tp702
a(S'p1_tl'
I78
tp703
a(S'w'
I1
tp704
a(S'p1_ll'
I1
tp705
a(S'p1_th'
I5
tp706
a(S'w'
I4
tp707
a(S'no_vo'
I2
tp708
a(S'w'
I1
tp709
a(S'no_np'
I9
tp710
a(S'no_ll'
I1
tp711
a(S'w'
I8071
tp712
a(S'w'
I1
tp713
a(S'no_ll'
I1
tp714
a(S'w'
I7331
tp715
a(S'ch_no'
I1
tp716
a(S'ch_tr'
I0
tp717
a(S'ch_p2'
I0
tp718
a(S'ch_p1'
I1
tp719
a(S'w'
I735
tp720
a(S'p1_tl'
I244
tp721
a(S'w'
I1
tp722
a(S'p1_ll'
I1
tp723
a(S'w'
I4
tp724
a(S'no_vo'
I0
tp725
a(S'w'
I1
tp726
a(S'no_np'
I3
tp727
a(S'no_ll'
I1
tp728
a(S'w'
I4402
tp729
a(S'w'
I1
tp730
a(S'no_ll'
I1
tp731
a(S'w'
I3668
tp732
a(S'w'
I1
tp733
a(S'no_ll'
I1
tp734
a(S'w'
I4401
tp735
a(S'w'
I1
tp736
a(S'no_ll'
I1
tp737
a(S'w'
I3663
tp738
a(S'p1_tl'
I118
tp739
a(S'w'
I1
tp740
a(S'p1_ll'
I1
tp741
a(S'p1_th'
I4
tp742
a(S'w'
I4
tp743
a(S'no_vo'
I2
tp744
a(S'w'
I1
tp745
a(S'no_np'
I9
tp746
a(S'no_ll'
I1
tp747
a(S'w'
I8071
tp748
a(S'w'
I1
tp749
a(S'no_ll'
I1
tp750
a(S'w'
I7331
tp751
a(S'ch_no'
I1
tp752
a(S'ch_tr'
I1
tp753
a(S'ch_p2'
I1
tp754
a(S'ch_p1'
I1
tp755
a(S'w'
I2
tp756
a(S'p2_vo'
I2
tp757
a(S'w'
I1
tp758
a(S'p2_tl'
I93
tp759
a(S'p2_ll'
I1
tp760
a(S'p2_th'
I2
tp761
a(S'w'
I1
tp762
a(S'tr_lr'
I22
tp763
a(S'w'
I1
tp764
a(S'tr_tl'
I75
tp765
a(S'tr_ll'
I1
tp766
a(S'w'
I730
tp767
a(S'p1_tl'
I249
tp768
a(S'w'
I1
tp769
a(S'p1_ll'
I1
tp770
a(S'p1_th'
I3
tp771
a(S'w'
I4
tp772
a(S'w'
I1
tp773
a(S'no_ll'
I1
tp774
a(S'w'
I7334
tp775
a(S'p2_tl'
I27
tp776
a(S'p2_ll'
I1
tp777
a(S'w'
I2
tp778
a(S'tr_tl'
I67
tp779
a(S'tr_ll'
I1
tp780
a(S'w'
I734
tp781
a(S'no_np'
I3
tp782
a(S'w'
I1
tp783
a(S'no_ll'
I1
tp784
a(S'w'
I7334
tp785
a(S'p2_tl'
I33
tp786
a(S'p2_ll'
I1
tp787
a(S'p2_th'
I3
tp788
a(S'w'
I2
tp789
a(S'tr_tl'
I100
tp790
a(S'tr_ll'
I1
tp791
a(S'w'
I730
tp792
a(S'p1_tl'
I78
tp793
a(S'w'
I1
tp794
a(S'p1_ll'
I1
tp795
a(S'p1_th'
I5
tp796
a(S'w'
I5
tp797
a(S'no_np'
I9
tp798
a(S'no_ll'
I1
tp799
a(S'w'
I7334
tp800
a(S'p2_tl'
I207
tp801
a(S'p2_ll'
I1
tp802
a(S'p2_th'
I2
tp803
a(S'w'
I2
tp804
a(S'tr_tl'
I89
tp805
a(S'tr_ll'
I1
tp806
a(S'w'
I735
tp807
a(S'no_np'
I3
tp808
a(S'w'
I1
tp809
a(S'no_ll'
I1
tp810
a(S'w'
I7331
tp811
a(S'ch_no'
I1
tp812
a(S'ch_tr'
I0
tp813
a(S'ch_p2'
I0
tp814
a(S'ch_p1'
I1
tp815
a(S'w'
I734
tp816
a(S'ch_no'
I0
tp817
a(S'ch_tr'
I0
tp818
a(S'ch_p2'
I0
tp819
a(S'ch_p1'
I1
tp820
a(S'w'
I1
tp821
a(S'p1_tl'
I244
tp822
a(S'w'
I1
tp823
a(S'p1_ll'
I1
tp824
a(S'w'
I16142
tp825
a(S'p1_tl'
I118
tp826
a(S'w'
I1
tp827
a(S'p1_ll'
I1
tp828
a(S'p1_th'
I4
tp829
a(S'w'
I7336
tp830
a(S'ch_no'
I0
tp831
a(S'ch_tr'
I1
tp832
a(S'ch_p2'
I1
tp833
a(S'ch_p1'
I1
tp834
a(S'w'
I3
tp835
a(S'p2_tl'
I171
tp836
a(S'p2_ll'
I1
tp837
a(S'p2_th'
I1
tp838
a(S'w'
I1
tp839
a(S'tr_lr'
I16
tp840
a(S'w'
I1
tp841
a(S'tr_tl'
I53
tp842
a(S'tr_ll'
I1
tp843
a(S'w'
I729
tp844
a(S'ch_no'
I1
tp845
a(S'ch_tr'
I1
tp846
a(S'ch_p2'
I1
tp847
a(S'ch_p1'
I1
tp848
a(S'w'
I5
tp849
a(S'no_vo'
I0
tp850
a(S'w'
I1
tp851
a(S'w'
I1
tp852
a(S'no_ll'
I1
tp853
a(S'w'
I3665
tp854
a(S'p2_tl'
I125
tp855
a(S'p2_ll'
I1
tp856
a(S'w'
I2
tp857
a(S'tr_tl'
I47
tp858
a(S'tr_ll'
I1
tp859
a(S'w'
I734
tp860
a(S'w'
I1
tp861
a(S'no_ll'
I1
tp862
a(S'w'
I2932
tp863
a(S'p2_tl'
I46
tp864
a(S'p2_ll'
I1
tp865
a(S'w'
I2
tp866
a(S'tr_tl'
I37
tp867
a(S'tr_ll'
I1
tp868
a(S'w'
I729
tp869
a(S'p1_tl'
I249
tp870
a(S'w'
I1
tp871
a(S'p1_ll'
I1
tp872
a(S'p1_th'
I3
tp873
a(S'w'
I5
tp874
a(S'no_ll'
I1
tp875
a(S'w'
I3665
tp876
a(S'p2_tl'
I13
tp877
a(S'p2_ll'
I1
tp878
a(S'w'
I2
tp879
a(S'tr_tl'
I33
tp880
a(S'tr_ll'
I1
tp881
a(S'w'
I735
tp882
a(S'w'
I1
tp883
a(S'no_ll'
I1
tp884
a(S'w'
I2928
tp885
a(S'ch_no'
I1
tp886
a(S'ch_tr'
I0
tp887
a(S'ch_p2'
I0
tp888
a(S'ch_p1'
I1
tp889
a(S'w'
I734
tp890
a(S'ch_no'
I0
tp891
a(S'ch_tr'
I0
tp892
a(S'ch_p2'
I0
tp893
a(S'ch_p1'
I1
tp894
a(S'w'
I8073
tp895
a(S'p1_tl'
I78
tp896
a(S'w'
I1
tp897
a(S'p1_ll'
I1
tp898
a(S'p1_th'
I5
tp899
a(S'w'
I16142
tp900
a(S'p1_tl'
I244
tp901
a(S'w'
I1
tp902
a(S'p1_ll'
I1
tp903
a(S'w'
I16142
tp904
a(S'ch_no'
I1
tp905
a(S'ch_tr'
I0
tp906
a(S'ch_p2'
I0
tp907
a(S'ch_p1'
I1
tp908
a(S'w'
I1
tp909
a(S'p1_tl'
I118
tp910
a(S'w'
I1
tp911
a(S'p1_ll'
I1
tp912
a(S'p1_th'
I4
tp913
a(S'w'
I5
tp914
a(S'no_ll'
I1
tp915
a(S'w'
I4401
tp916
a(S'w'
I1
tp917
a(S'no_ll'
I1
tp918
a(S'w'
I3668
tp919
a(S'no_np'
I5
tp920
a(S'w'
I1
tp921
a(S'no_ll'
I1
tp922
a(S'w'
I4402
tp923
a(S'no_np'
I9
tp924
a(S'w'
I1
tp925
a(S'no_ll'
I1
tp926
a(S'w'
I2928
tp927
a(S'ch_no'
I1
tp928
a(S'ch_tr'
I1
tp929
a(S'ch_p2'
I1
tp930
a(S'ch_p1'
I1
tp931
a(S'w'
I2
tp932
a(S'p2_vo'
I15
tp933
a(S'w'
I1
tp934
a(S'p2_ll'
I1
tp935
a(S'w'
I1
tp936
a(S'tr_lr'
I7
tp937
a(S'w'
I1
tp938
a(S'tr_ll'
I1
tp939
a(S'w'
I730
tp940
a(S'p1_tl'
I249
tp941
a(S'w'
I1
tp942
a(S'p1_ll'
I1
tp943
a(S'p1_th'
I3
tp944
a(S'w'
I5
tp945
a(S'no_ll'
I1
tp946
a(S'w'
I2199
tp947
a(S'tr_tl'
I16
tp948
a(S'tr_ll'
I1
tp949
a(S'w'
I2202
tp950
a(S'tr_tl'
I33
tp951
a(S'tr_ll'
I1
tp952
a(S'w'
I2
tp953
a(S'no_ll'
I1
tp954
a(S'w'
I2933
tp955
a(S'tr_tl'
I16
tp956
a(S'tr_ll'
I1
tp957
a(S'w'
I734
tp958
a(S'no_vo'
I2
tp959
a(S'w'
I1
tp960
a(S'no_np'
I3
tp961
a(S'w'
I1
tp962
a(S'no_ll'
I1
tp963
a(S'w'
I1465
tp964
a(S'tr_tl'
I33
tp965
a(S'tr_ll'
I1
tp966
a(S'w'
I2935
tp967
a(S'tr_tl'
I16
tp968
a(S'tr_ll'
I1
tp969
a(S'w'
I2202
tp970
a(S'tr_tl'
I33
tp971
a(S'tr_ll'
I1
tp972
a(S'w'
I1463
tp973
a(S'p1_tl'
I78
tp974
a(S'w'
I1
tp975
a(S'p1_ll'
I1
tp976
a(S'p1_th'
I5
tp977
a(S'w'
I4
tp978
a(S'no_vo'
I0
tp979
a(S'w'
I1
tp980
a(S'no_np'
I9
tp981
a(S'no_ll'
I1
tp982
a(S'w'
I1466
tp983
a(S'tr_tl'
I16
tp984
a(S'tr_ll'
I1
tp985
a(S'w'
I2201
tp986
a(S'tr_tl'
I33
tp987
a(S'tr_ll'
I1
tp988
a(S'w'
I735
tp989
a(S'w'
I1
tp990
a(S'no_ll'
I1
tp991
a(S'w'
I2200
tp992
a(S'tr_tl'
I16
tp993
a(S'tr_ll'
I1
tp994
a(S'w'
I1467
tp995
a(S'no_vo'
I2
tp996
a(S'w'
I1
tp997
a(S'no_np'
I3
tp998
a(S'w'
I1
tp999
a(S'no_ll'
I1
tp1000
a(S'w'
I732
tp1001
a(S'tr_tl'
I33
tp1002
a(S'tr_ll'
I1
tp1003
a(S'w'
I2935
tp1004
a(S'tr_tl'
I16
tp1005
a(S'tr_ll'
I1
tp1006
a(S'w'
I2201
tp1007
a(S'tr_tl'
I33
tp1008
a(S'tr_ll'
I1
tp1009
a(S'w'
I2198
tp1010
a(S'p1_tl'
I244
tp1011
a(S'w'
I1
tp1012
a(S'p1_ll'
I1
tp1013
a(S'w'
I4
tp1014
a(S'no_vo'
I0
tp1015
a(S'w'
I1
tp1016
a(S'no_ll'
I1
tp1017
a(S'w'
I732
tp1018
a(S'tr_tl'
I16
tp1019
a(S'tr_ll'
I1
tp1020
a(S'w'
I2201
tp1021
a(S'tr_tl'
I33
tp1022
a(S'tr_ll'
I1
tp1023
a(S'w'
I1469
tp1024
a(S'w'
I1
tp1025
a(S'no_ll'
I1
tp1026
a(S'w'
I1465
tp1027
a(S'tr_tl'
I16
tp1028
a(S'tr_ll'
I1
tp1029
a(S'w'
I2202
tp1030
a(S'tr_tl'
I33
tp1031
a(S'tr_ll'
I1
tp1032
a(S'w'
I2
tp1033
a(S'no_ll'
I1
tp1034
a(S'w'
I2933
tp1035
a(S'tr_tl'
I16
tp1036
a(S'tr_ll'
I1
tp1037
a(S'w'
I1468
tp1038
a(S'w'
I1
tp1039
a(S'no_ll'
I1
tp1040
a(S'w'
I732
tp1041
a(S'tr_tl'
I33
tp1042
a(S'tr_ll'
I1
tp1043
a(S'w'
I2931
tp1044
a(S'p1_tl'
I118
tp1045
a(S'w'
I1
tp1046
a(S'p1_ll'
I1
tp1047
a(S'p1_th'
I4
tp1048
a(S'w'
I3
tp1049
a(S'tr_tl'
I16
tp1050
a(S'tr_ll'
I1
tp1051
a(S'w'
I2
tp1052
a(S'no_np'
I9
tp1053
a(S'w'
I1
tp1054
a(S'no_ll'
I1
tp1055
a(S'w'
I2199
tp1056
a(S'tr_tl'
I33
tp1057
a(S'tr_ll'
I1
tp1058
a(S'w'
I2202
tp1059
a(S'w'
I1
tp1060
a(S'no_ll'
I1
tp1061
a(S'w'
I732
tp1062
a(S'tr_tl'
I16
tp1063
a(S'tr_ll'
I1
tp1064
a(S'w'
I2198
tp1065
a(S'p2_vo'
I2
tp1066
a(S'w'
I1
tp1067
a(S'p2_tl'
I46
tp1068
a(S'p2_ll'
I1
tp1069
a(S'w'
I1
tp1070
a(S'tr_lr'
I31
tp1071
a(S'w'
I1
tp1072
a(S'tr_tl'
I37
tp1073
a(S'tr_ll'
I1
tp1074
a(S'w'
I734
tp1075
a(S'no_vo'
I2
tp1076
a(S'w'
I1
tp1077
a(S'no_np'
I3
tp1078
a(S'w'
I1
tp1079
a(S'no_ll'
I1
tp1080
a(S'w'
I3665
tp1081
a(S'p2_tl'
I83
tp1082
a(S'p2_ll'
I1
tp1083
a(S'w'
I2
tp1084
a(S'tr_tl'
I42
tp1085
a(S'tr_ll'
I1
tp1086
a(S'w'
I3666
tp1087
a(S'p2_vo'
I15
tp1088
a(S'w'
I1
tp1089
a(S'p2_tl'
I125
tp1090
a(S'p2_ll'
I1
tp1091
a(S'w'
I1
tp1092
a(S'tr_lr'
I7
tp1093
a(S'w'
I1
tp1094
a(S'tr_tl'
I47
tp1095
a(S'tr_ll'
I1
tp1096
a(S'w'
I730
tp1097
a(S'p1_tl'
I249
tp1098
a(S'w'
I1
tp1099
a(S'p1_ll'
I1
tp1100
a(S'p1_th'
I3
tp1101
a(S'w'
I4
tp1102
a(S'no_vo'
I0
tp1103
a(S'w'
I1
tp1104
a(S'no_np'
I9
tp1105
a(S'no_ll'
I1
tp1106
a(S'w'
I2199
tp1107
a(S'tr_tl'
I23
tp1108
a(S'tr_ll'
I1
tp1109
a(S'w'
I2201
tp1110
a(S'tr_tl'
I47
tp1111
a(S'tr_ll'
I1
tp1112
a(S'w'
I2
tp1113
a(S'no_ll'
I1
tp1114
a(S'w'
I2934
tp1115
a(S'tr_tl'
I23
tp1116
a(S'tr_ll'
I1
tp1117
a(S'w'
I733
tp1118
a(S'no_vo'
I2
tp1119
a(S'w'
I1
tp1120
a(S'no_np'
I3
tp1121
a(S'w'
I1
tp1122
a(S'no_ll'
I1
tp1123
a(S'w'
I1466
tp1124
a(S'tr_tl'
I47
tp1125
a(S'tr_ll'
I1
tp1126
a(S'w'
I2935
tp1127
a(S'tr_tl'
I23
tp1128
a(S'tr_ll'
I1
tp1129
a(S'w'
I2202
tp1130
a(S'tr_tl'
I47
tp1131
a(S'tr_ll'
I1
tp1132
a(S'w'
I1463
tp1133
a(S'p1_tl'
I78
tp1134
a(S'w'
I1
tp1135
a(S'p1_ll'
I1
tp1136
a(S'p1_th'
I5
tp1137
a(S'w'
I4
tp1138
a(S'no_vo'
I0
tp1139
a(S'w'
I1
tp1140
a(S'no_np'
I9
tp1141
a(S'no_ll'
I1
tp1142
a(S'w'
I1466
tp1143
a(S'tr_tl'
I23
tp1144
a(S'tr_ll'
I1
tp1145
a(S'w'
I2201
tp1146
a(S'tr_tl'
I47
tp1147
a(S'tr_ll'
I1
tp1148
a(S'w'
I735
tp1149
a(S'w'
I1
tp1150
a(S'no_ll'
I1
tp1151
a(S'w'
I2199
tp1152
a(S'tr_tl'
I23
tp1153
a(S'tr_ll'
I1
tp1154
a(S'w'
I1468
tp1155
a(S'no_vo'
I2
tp1156
a(S'w'
I1
tp1157
a(S'no_np'
I3
tp1158
a(S'w'
I1
tp1159
a(S'no_ll'
I1
tp1160
a(S'w'
I732
tp1161
a(S'tr_tl'
I47
tp1162
a(S'tr_ll'
I1
tp1163
a(S'w'
I2935
tp1164
a(S'tr_tl'
I23
tp1165
a(S'tr_ll'
I1
tp1166
a(S'w'
I2201
tp1167
a(S'tr_tl'
I47
tp1168
a(S'tr_ll'
I1
tp1169
a(S'w'
I2198
tp1170
a(S'p1_tl'
I244
tp1171
a(S'w'
I1
tp1172
a(S'p1_ll'
I1
tp1173
a(S'w'
I4
tp1174
a(S'no_vo'
I0
tp1175
a(S'w'
I1
tp1176
a(S'no_ll'
I1
tp1177
a(S'w'
I731
tp1178
a(S'tr_tl'
I23
tp1179
a(S'tr_ll'
I1
tp1180
a(S'w'
I2202
tp1181
a(S'tr_tl'
I47
tp1182
a(S'tr_ll'
I1
tp1183
a(S'w'
I1468
tp1184
a(S'w'
I1
tp1185
a(S'no_ll'
I1
tp1186
a(S'w'
I1466
tp1187
a(S'tr_tl'
I23
tp1188
a(S'tr_ll'
I1
tp1189
a(S'w'
I2201
tp1190
a(S'tr_tl'
I47
tp1191
a(S'tr_ll'
I1
tp1192
a(S'w'
I2
tp1193
a(S'no_ll'
I1
tp1194
a(S'w'
I2933
tp1195
a(S'tr_tl'
I23
tp1196
a(S'tr_ll'
I1
tp1197
a(S'w'
I1469
tp1198
a(S'w'
I1
tp1199
a(S'no_ll'
I1
tp1200
a(S'w'
I732
tp1201
a(S'tr_tl'
I47
tp1202
a(S'tr_ll'
I1
tp1203
a(S'w'
I2931
tp1204
a(S'p1_tl'
I118
tp1205
a(S'w'
I1
tp1206
a(S'p1_ll'
I1
tp1207
a(S'p1_th'
I4
tp1208
a(S'w'
I3
tp1209
a(S'tr_tl'
I23
tp1210
a(S'tr_ll'
I1
tp1211
a(S'w'
I2
tp1212
a(S'no_np'
I9
tp1213
a(S'w'
I1
tp1214
a(S'no_ll'
I1
tp1215
a(S'w'
I2198
tp1216
a(S'tr_tl'
I47
tp1217
a(S'tr_ll'
I1
tp1218
a(S'w'
I2203
tp1219
a(S'w'
I1
tp1220
a(S'no_ll'
I1
tp1221
a(S'w'
I731
tp1222
a(S'tr_tl'
I23
tp1223
a(S'tr_ll'
I1
tp1224
a(S'w'
I2199
tp1225
a(S'p2_vo'
I2
tp1226
a(S'w'
I1
tp1227
a(S'p2_tl'
I83
tp1228
a(S'p2_ll'
I1
tp1229
a(S'w'
I1
tp1230
a(S'tr_lr'
I31
tp1231
a(S'w'
I1
tp1232
a(S'tr_tl'
I42
tp1233
a(S'tr_ll'
I1
tp1234
a(S'w'
I734
tp1235
a(S'no_vo'
I2
tp1236
a(S'w'
I1
tp1237
a(S'no_np'
I3
tp1238
a(S'w'
I1
tp1239
a(S'no_ll'
I1
tp1240
a(S'w'
I3665
tp1241
a(S'p2_tl'
I240
tp1242
a(S'p2_ll'
I1
tp1243
a(S'p2_th'
I0
tp1244
a(S'w'
I2
tp1245
a(S'tr_tl'
I30
tp1246
a(S'tr_ll'
I1
tp1247
a(S'w'
I728
tp1248
a.