(lp1
(S'clock'
p2
I1789772
tp3
a(S'fc_mo'
I1
tp4
a(S'ch_no'
I0
tp5
a(S'ch_tr'
I0
tp6
a(S'ch_p2'
I0
tp7
a(S'ch_p1'
I0
tp8
a(S'w'
I735
tp9
a(S'ch_no'
I1
tp10
a(S'ch_tr'
I1
tp11
a(S'ch_p2'
I1
tp12
a(S'ch_p1'
I1
tp13
a(S'p1_du'
I3
tp14
a(S'p1_vo'
I1
tp15
a(S'w'
I1
tp16
a(S'p1_sp'
I7
tp17
a(S'p1_sn'
I1
tp18
a(S'p1_tl'
I224
tp19
a(S'w'
I1
tp20
a(S'p1_ll'
I1
tp21
a(S'p1_th'
I1
tp22
a(S'p2_du'
I2
tp23
a(S'p2_vo'
I1
tp24
a(S'w'
I1
tp25
a(S'p2_sp'
I7
tp26
a(S'p2_sn'
I1
tp27
a(S'p2_tl'
I224
tp28
a(S'w'
I1
tp29
a(S'p2_ll'
I1
tp30
a(S'p2_th'
I1
tp31
a(S'w'
I1
tp32
a(S'tr_lr'
I49
tp33
a(S'tr_tl'
I64
tp34
a(S'w'
I1
tp35
a(S'tr_ll'
I1
tp36
a(S'tr_th'
I1
tp37
a(S'w'
I1
tp38
a(S'no_np'
I9
tp39
a(S'w'
I1
tp40
a(S'no_ll'
I1
tp41
a(S'w'
I2932
tp42
a(S'tr_tl'
I160
tp43
a(S'tr_ll'
I1
tp44
a(S'tr_th'
I0
tp45
a(S'w'
I2932
tp46
a(S'p1_tl'
I252
tp47
a(S'w'
I1
tp48
a(S'p1_ll'
I1
tp49
a(S'w'
I1
tp50
a(S'p2_tl'
I197
tp51
a(S'w'
I1
tp52
a(S'p2_ll'
I1
tp53
a(S'w'
I1
tp54
a(S'tr_tl'
I80
tp55
a(S'w'
I1
tp56
a(S'tr_ll'
I1
tp57
a(S'w'
I1
tp58
a(S'w'
I1
tp59
a(S'no_ll'
I1
tp60
a(S'w'
I2932
tp61
a(S'tr_tl'
I160
tp62
a(S'tr_ll'
I1
tp63
a(S'w'
I2931
tp64
a(S'p1_tl'
I27
tp65
a(S'w'
I1
tp66
a(S'p1_ll'
I1
tp67
a(S'p1_th'
I2
tp68
a(S'w'
I1
tp69
a(S'p2_tl'
I171
tp70
a(S'w'
I1
tp71
a(S'p2_ll'
I1
tp72
a(S'w'
I1
tp73
a(S'tr_tl'
I64
tp74
a(S'w'
I1
tp75
a(S'tr_ll'
I1
tp76
a(S'tr_th'
I1
tp77
a(S'w'
I1
tp78
a(S'w'
I1
tp79
a(S'no_ll'
I1
tp80
a(S'w'
I2932
tp81
a(S'tr_tl'
I160
tp82
a(S'tr_ll'
I1
tp83
a(S'tr_th'
I0
tp84
a(S'w'
I2931
tp85
a(S'p1_tl'
I59
tp86
a(S'w'
I1
tp87
a(S'p1_ll'
I1
tp88
a(S'w'
I1
tp89
a(S'p2_tl'
I144
tp90
a(S'w'
I1
tp91
a(S'p2_ll'
I1
tp92
a(S'w'
I1
tp93
a(S'tr_tl'
I80
tp94
a(S'w'
I1
tp95
a(S'tr_ll'
I1
tp96
a(S'w'
I1
tp97
a(S'w'
I1
tp98
a(S'no_ll'
I1
tp99
a(S'w'
I2932
tp100
a(S'tr_tl'
I160
tp101
a(S'tr_ll'
I1
tp102
a(S'w'
I2932
tp103
a(S'p1_tl'
I224
tp104
a(S'w'
I1
tp105
a(S'p1_ll'
I1
tp106
a(S'p1_th'
I1
tp107
a(S'w'
I1
tp108
a(S'p2_tl'
I128
tp109
a(S'w'
I1
tp110
a(S'p2_ll'
I1
tp111
a(S'p2_th'
I7
tp112
a(S'w'
I1
tp113
a(S'tr_tl'
I64
tp114
a(S'w'
I1
tp115
a(S'tr_ll'
I1
tp116
a(S'tr_th'
I1
tp117
a(S'w'
I1
tp118
a(S'no_np'
I2
tp119
a(S'w'
I1
tp120
a(S'no_ll'
I1
tp121
a(S'w'
I2932
tp122
a(S'tr_tl'
I160
tp123
a(S'tr_ll'
I1
tp124
a(S'tr_th'
I0
tp125
a(S'w'
I2931
tp126
a(S'p1_tl'
I252
tp127
a(S'w'
I1
tp128
a(S'p1_ll'
I1
tp129
a(S'w'
I1
tp130
a(S'p2_tl'
I224
tp131
a(S'w'
I1
tp132
a(S'p2_ll'
I1
tp133
a(S'p2_th'
I1
tp134
a(S'w'
I1
tp135
a(S'tr_tl'
I80
tp136
a(S'w'
I1
tp137
a(S'tr_ll'
I1
tp138
a(S'w'
I1
tp139
a(S'no_np'
I9
tp140
a(S'w'
I1
tp141
a(S'no_ll'
I1
tp142
a(S'w'
I2932
tp143
a(S'tr_tl'
I160
tp144
a(S'tr_ll'
I1
tp145
a(S'w'
I2931
tp146
a(S'p1_tl'
I27
tp147
a(S'w'
I1
tp148
a(S'p1_ll'
I1
tp149
a(S'p1_th'
I2
tp150
a(S'w'
I1
tp151
a(S'p2_tl'
I197
tp152
a(S'w'
I1
tp153
a(S'p2_ll'
I1
tp154
a(S'w'
I1
tp155
a(S'tr_tl'
I64
tp156
a(S'w'
I1
tp157
a(S'tr_ll'
I1
tp158
a(S'tr_th'
I1
tp159
a(S'w'
I1
tp160
a(S'w'
I1
tp161
a(S'no_ll'
I1
tp162
a(S'w'
I2932
tp163
a(S'tr_tl'
I160
tp164
a(S'tr_ll'
I1
tp165
a(S'tr_th'
I0
tp166
a(S'w'
I2932
tp167
a(S'p1_tl'
I59
tp168
a(S'w'
I1
tp169
a(S'p1_ll'
I1
tp170
a(S'w'
I1
tp171
a(S'p2_tl'
I171
tp172
a(S'w'
I1
tp173
a(S'p2_ll'
I1
tp174
a(S'w'
I1
tp175
a(S'tr_tl'
I80
tp176
a(S'w'
I1
tp177
a(S'tr_ll'
I1
tp178
a(S'w'
I1
tp179
a(S'w'
I1
tp180
a(S'no_ll'
I1
tp181
a(S'w'
I2932
tp182
a(S'tr_tl'
I160
tp183
a(S'tr_ll'
I1
tp184
a(S'w'
I2931
tp185
a(S'p1_tl'
I224
tp186
a(S'w'
I1
tp187
a(S'p1_ll'
I1
tp188
a(S'p1_th'
I1
tp189
a(S'w'
I1
tp190
a(S'p2_tl'
I144
tp191
a(S'w'
I1
tp192
a(S'p2_ll'
I1
tp193
a(S'w'
I1
tp194
a(S'tr_tl'
I64
tp195
a(S'w'
I1
tp196
a(S'tr_ll'
I1
tp197
a(S'tr_th'
I1
tp198
a(S'w'
I1
tp199
a(S'w'
I1
tp200
a(S'no_ll'
I1
tp201
a(S'w'
I2932
tp202
a(S'tr_tl'
I160
tp203
a(S'tr_ll'
I1
tp204
a(S'tr_th'
I0
tp205
a(S'w'
I2931
tp206
a(S'p1_tl'
I252
tp207
a(S'w'
I1
tp208
a(S'p1_ll'
I1
tp209
a(S'w'
I1
tp210
a(S'p2_tl'
I128
tp211
a(S'w'
I1
tp212
a(S'p2_ll'
I1
tp213
a(S'p2_th'
I7
tp214
a(S'w'
I1
tp215
a(S'tr_tl'
I80
tp216
a(S'w'
I1
tp217
a(S'tr_ll'
I1
tp218
a(S'w'
I1
tp219
a(S'w'
I1
tp220
a(S'no_ll'
I1
tp221
a(S'w'
I2932
tp222
a(S'tr_tl'
I160
tp223
a(S'tr_ll'
I1
tp224
a(S'w'
I2932
tp225
a(S'p1_tl'
I27
tp226
a(S'w'
I1
tp227
a(S'p1_ll'
I1
tp228
a(S'p1_th'
I2
tp229
a(S'w'
I1
tp230
a(S'p2_tl'
I224
tp231
a(S'w'
I1
tp232
a(S'p2_ll'
I1
tp233
a(S'p2_th'
I1
tp234
a(S'w'
I1
tp235
a(S'tr_tl'
I64
tp236
a(S'w'
I1
tp237
a(S'tr_ll'
I1
tp238
a(S'tr_th'
I1
tp239
a(S'w'
I1
tp240
a(S'w'
I1
tp241
a(S'no_ll'
I1
tp242
a(S'w'
I2932
tp243
a(S'tr_tl'
I160
tp244
a(S'tr_ll'
I1
tp245
a(S'tr_th'
I0
tp246
a(S'w'
I2931
tp247
a(S'p1_tl'
I59
tp248
a(S'w'
I1
tp249
a(S'p1_ll'
I1
tp250
a(S'w'
I1
tp251
a(S'p2_tl'
I197
tp252
a(S'w'
I1
tp253
a(S'p2_ll'
I1
tp254
a(S'w'
I1
tp255
a(S'tr_tl'
I80
tp256
a(S'w'
I1
tp257
a(S'tr_ll'
I1
tp258
a(S'w'
I1
tp259
a(S'w'
I1
tp260
a(S'no_ll'
I1
tp261
a(S'w'
I2932
tp262
a(S'tr_tl'
I160
tp263
a(S'tr_ll'
I1
tp264
a(S'w'
I2931
tp265
a(S'p1_tl'
I224
tp266
a(S'w'
I1
tp267
a(S'p1_ll'
I1
tp268
a(S'p1_th'
I1
tp269
a(S'w'
I1
tp270
a(S'p2_tl'
I171
tp271
a(S'w'
I1
tp272
a(S'p2_ll'
I1
tp273
a(S'w'
I1
tp274
a(S'tr_tl'
I64
tp275
a(S'w'
I1
tp276
a(S'tr_ll'
I1
tp277
a(S'tr_th'
I1
tp278
a(S'w'
I1
tp279
a(S'no_np'
I2
tp280
a(S'w'
I1
tp281
a(S'no_ll'
I1
tp282
a(S'w'
I2932
tp283
a(S'tr_tl'
I160
tp284
a(S'tr_ll'
I1
tp285
a(S'tr_th'
I0
tp286
a(S'w'
I2932
tp287
a(S'p1_tl'
I252
tp288
a(S'w'
I1
tp289
a(S'p1_ll'
I1
tp290
a(S'w'
I1
tp291
a(S'p2_tl'
I144
tp292
a(S'w'
I1
tp293
a(S'p2_ll'
I1
tp294
a(S'w'
I1
tp295
a(S'tr_tl'
I80
tp296
a(S'w'
I1
tp297
a(S'tr_ll'
I1
tp298
a(S'w'
I1
tp299
a(S'no_np'
I9
tp300
a(S'w'
I1
tp301
a(S'no_ll'
I1
tp302
a(S'w'
I2932
tp303
a(S'tr_tl'
I160
tp304
a(S'tr_ll'
I1
tp305
a(S'w'
I2931
tp306
a(S'p1_tl'
I27
tp307
a(S'w'
I1
tp308
a(S'p1_ll'
I1
tp309
a(S'p1_th'
I2
tp310
a(S'w'
I1
tp311
a(S'p2_tl'
I128
tp312
a(S'w'
I1
tp313
a(S'p2_ll'
I1
tp314
a(S'p2_th'
I7
tp315
a(S'w'
I1
tp316
a(S'tr_tl'
I64
tp317
a(S'w'
I1
tp318
a(S'tr_ll'
I1
tp319
a(S'tr_th'
I1
tp320
a(S'w'
I1
tp321
a(S'w'
I1
tp322
a(S'no_ll'
I1
tp323
a(S'w'
I2932
tp324
a(S'tr_tl'
I160
tp325
a(S'tr_ll'
I1
tp326
a(S'tr_th'
I0
tp327
a(S'w'
I2931
tp328
a(S'p1_tl'
I59
tp329
a(S'w'
I1
tp330
a(S'p1_ll'
I1
tp331
a(S'w'
I1
tp332
a(S'p2_tl'
I224
tp333
a(S'w'
I1
tp334
a(S'p2_ll'
I1
tp335
a(S'p2_th'
I1
tp336
a(S'w'
I1
tp337
a(S'tr_tl'
I80
tp338
a(S'w'
I1
tp339
a(S'tr_ll'
I1
tp340
a(S'w'
I1
tp341
a(S'w'
I1
tp342
a(S'no_ll'
I1
tp343
a(S'w'
I2932
tp344
a(S'tr_tl'
I160
tp345
a(S'tr_ll'
I1
tp346
a(S'w'
I2932
tp347
a(S'p1_tl'
I224
tp348
a(S'w'
I1
tp349
a(S'p1_ll'
I1
tp350
a(S'p1_th'
I1
tp351
a(S'w'
I1
tp352
a(S'p2_tl'
I197
tp353
a(S'w'
I1
tp354
a(S'p2_ll'
I1
tp355
a(S'w'
I1
tp356
a(S'tr_tl'
I64
tp357
a(S'w'
I1
tp358
a(S'tr_ll'
I1
tp359
a(S'tr_th'
I1
tp360
a(S'w'
I1
tp361
a(S'w'
I1
tp362
a(S'no_ll'
I1
tp363
a(S'w'
I2932
tp364
a(S'tr_tl'
I160
tp365
a(S'tr_ll'
I1
tp366
a(S'tr_th'
I0
tp367
a(S'w'
I2931
tp368
a(S'p1_tl'
I252
tp369
a(S'w'
I1
tp370
a(S'p1_ll'
I1
tp371
a(S'w'
I1
tp372
a(S'p2_tl'
I171
tp373
a(S'w'
I1
tp374
a(S'p2_ll'
I1
tp375
a(S'w'
I1
tp376
a(S'tr_tl'
I80
tp377
a(S'w'
I1
tp378
a(S'tr_ll'
I1
tp379
a(S'w'
I1
tp380
a(S'w'
I1
tp381
a(S'no_ll'
I1
tp382
a(S'w'
I2932
tp383
a(S'tr_tl'
I160
tp384
a(S'tr_ll'
I1
tp385
a(S'w'
I2931
tp386
a(S'p1_tl'
I27
tp387
a(S'w'
I1
tp388
a(S'p1_ll'
I1
tp389
a(S'p1_th'
I2
tp390
a(S'w'
I1
tp391
a(S'p2_tl'
I144
tp392
a(S'w'
I1
tp393
a(S'p2_ll'
I1
tp394
a(S'w'
I1
tp395
a(S'tr_tl'
I64
tp396
a(S'w'
I1
tp397
a(S'tr_ll'
I1
tp398
a(S'tr_th'
I1
tp399
a(S'w'
I1
tp400
a(S'w'
I1
tp401
a(S'no_ll'
I1
tp402
a(S'w'
I2932
tp403
a(S'tr_tl'
I160
tp404
a(S'tr_ll'
I1
tp405
a(S'tr_th'
I0
tp406
a(S'w'
I2932
tp407
a(S'p1_tl'
I59
tp408
a(S'w'
I1
tp409
a(S'p1_ll'
I1
tp410
a(S'w'
I1
tp411
a(S'p2_tl'
I128
tp412
a(S'w'
I1
tp413
a(S'p2_ll'
I1
tp414
a(S'p2_th'
I7
tp415
a(S'w'
I1
tp416
a(S'tr_tl'
I80
tp417
a(S'w'
I1
tp418
a(S'tr_ll'
I1
tp419
a(S'w'
I1
tp420
a(S'w'
I1
tp421
a(S'no_ll'
I1
tp422
a(S'w'
I2932
tp423
a(S'tr_tl'
I160
tp424
a(S'tr_ll'
I1
tp425
a(S'w'
I2931
tp426
a(S'p1_tl'
I224
tp427
a(S'w'
I1
tp428
a(S'p1_ll'
I1
tp429
a(S'p1_th'
I1
tp430
a(S'w'
I1
tp431
a(S'p2_tl'
I224
tp432
a(S'w'
I1
tp433
a(S'p2_ll'
I1
tp434
a(S'p2_th'
I1
tp435
a(S'w'
I1
tp436
a(S'tr_tl'
I64
tp437
a(S'w'
I1
tp438
a(S'tr_ll'
I1
tp439
a(S'tr_th'
I1
tp440
a(S'w'
I1
tp441
a(S'no_np'
I2
tp442
a(S'w'
I1
tp443
a(S'no_ll'
I1
tp444
a(S'w'
I2932
tp445
a(S'tr_tl'
I160
tp446
a(S'tr_ll'
I1
tp447
a(S'tr_th'
I0
tp448
a(S'w'
I2931
tp449
a(S'p1_tl'
I252
tp450
a(S'w'
I1
tp451
a(S'p1_ll'
I1
tp452
a(S'w'
I1
tp453
a(S'p2_tl'
I197
tp454
a(S'w'
I1
tp455
a(S'p2_ll'
I1
tp456
a(S'w'
I1
tp457
a(S'tr_tl'
I80
tp458
a(S'w'
I1
tp459
a(S'tr_ll'
I1
tp460
a(S'w'
I1
tp461
a(S'no_np'
I9
tp462
a(S'w'
I1
tp463
a(S'no_ll'
I1
tp464
a(S'w'
I2932
tp465
a(S'tr_tl'
I160
tp466
a(S'tr_ll'
I1
tp467
a(S'w'
I2932
tp468
a(S'p1_tl'
I27
tp469
a(S'w'
I1
tp470
a(S'p1_ll'
I1
tp471
a(S'p1_th'
I2
tp472
a(S'w'
I1
tp473
a(S'p2_tl'
I171
tp474
a(S'w'
I1
tp475
a(S'p2_ll'
I1
tp476
a(S'w'
I1
tp477
a(S'tr_tl'
I64
tp478
a(S'w'
I1
tp479
a(S'tr_ll'
I1
tp480
a(S'tr_th'
I1
tp481
a(S'w'
I1
tp482
a(S'w'
I1
tp483
a(S'no_ll'
I1
tp484
a(S'w'
I2932
tp485
a(S'tr_tl'
I160
tp486
a(S'tr_ll'
I1
tp487
a(S'tr_th'
I0
tp488
a(S'w'
I2931
tp489
a(S'p1_tl'
I59
tp490
a(S'w'
I1
tp491
a(S'p1_ll'
I1
tp492
a(S'w'
I1
tp493
a(S'p2_tl'
I144
tp494
a(S'w'
I1
tp495
a(S'p2_ll'
I1
tp496
a(S'w'
I1
tp497
a(S'tr_tl'
I80
tp498
a(S'w'
I1
tp499
a(S'tr_ll'
I1
tp500
a(S'w'
I1
tp501
a(S'w'
I1
tp502
a(S'no_ll'
I1
tp503
a(S'w'
I2932
tp504
a(S'tr_tl'
I160
tp505
a(S'tr_ll'
I1
tp506
a(S'w'
I2931
tp507
a(S'p1_tl'
I224
tp508
a(S'w'
I1
tp509
a(S'p1_ll'
I1
tp510
a(S'p1_th'
I1
tp511
a(S'w'
I1
tp512
a(S'p2_tl'
I128
tp513
a(S'w'
I1
tp514
a(S'p2_ll'
I1
tp515
a(S'p2_th'
I7
tp516
a(S'w'
I1
tp517
a(S'tr_tl'
I64
tp518
a(S'w'
I1
tp519
a(S'tr_ll'
I1
tp520
a(S'tr_th'
I1
tp521
a(S'w'
I1
tp522
a(S'w'
I1
tp523
a(S'no_ll'
I1
tp524
a(S'w'
I2932
tp525
a(S'tr_tl'
I160
tp526
a(S'tr_ll'
I1
tp527
a(S'tr_th'
I0
tp528
a(S'w'
I2932
tp529
a(S'p1_tl'
I252
tp530
a(S'w'
I1
tp531
a(S'p1_ll'
I1
tp532
a(S'w'
I1
tp533
a(S'p2_tl'
I224
tp534
a(S'w'
I1
tp535
a(S'p2_ll'
I1
tp536
a(S'p2_th'
I1
tp537
a(S'w'
I1
tp538
a(S'tr_tl'
I80
tp539
a(S'w'
I1
tp540
a(S'tr_ll'
I1
tp541
a(S'w'
I1
tp542
a(S'w'
I1
tp543
a(S'no_ll'
I1
tp544
a(S'w'
I2932
tp545
a(S'tr_tl'
I160
tp546
a(S'tr_ll'
I1
tp547
a(S'w'
I2931
tp548
a(S'p1_tl'
I27
tp549
a(S'w'
I1
tp550
a(S'p1_ll'
I1
tp551
a(S'p1_th'
I2
tp552
a(S'w'
I1
tp553
a(S'p2_tl'
I197
tp554
a(S'w'
I1
tp555
a(S'p2_ll'
I1
tp556
a(S'w'
I1
tp557
a(S'tr_tl'
I64
tp558
a(S'w'
I1
tp559
a(S'tr_ll'
I1
tp560
a(S'tr_th'
I1
tp561
a(S'w'
I1
tp562
a(S'w'
I1
tp563
a(S'no_ll'
I1
tp564
a(S'w'
I2932
tp565
a(S'tr_tl'
I160
tp566
a(S'tr_ll'
I1
tp567
a(S'tr_th'
I0
tp568
a(S'w'
I2931
tp569
a(S'p1_tl'
I59
tp570
a(S'w'
I1
tp571
a(S'p1_ll'
I1
tp572
a(S'w'
I1
tp573
a(S'p2_tl'
I171
tp574
a(S'w'
I1
tp575
a(S'p2_ll'
I1
tp576
a(S'w'
I1
tp577
a(S'tr_tl'
I80
tp578
a(S'w'
I1
tp579
a(S'tr_ll'
I1
tp580
a(S'w'
I1
tp581
a(S'w'
I1
tp582
a(S'no_ll'
I1
tp583
a(S'w'
I2932
tp584
a(S'tr_tl'
I160
tp585
a(S'tr_ll'
I1
tp586
a(S'w'
I2932
tp587
a(S'p1_tl'
I224
tp588
a(S'w'
I1
tp589
a(S'p1_ll'
I1
tp590
a(S'p1_th'
I1
tp591
a(S'w'
I1
tp592
a(S'p2_tl'
I144
tp593
a(S'w'
I1
tp594
a(S'p2_ll'
I1
tp595
a(S'w'
I1
tp596
a(S'tr_tl'
I64
tp597
a(S'w'
I1
tp598
a(S'tr_ll'
I1
tp599
a(S'tr_th'
I1
tp600
a(S'w'
I1
tp601
a(S'no_np'
I2
tp602
a(S'w'
I1
tp603
a(S'no_ll'
I1
tp604
a(S'w'
I2932
tp605
a(S'tr_tl'
I160
tp606
a(S'tr_ll'
I1
tp607
a(S'tr_th'
I0
tp608
a(S'w'
I2931
tp609
a(S'p1_tl'
I252
tp610
a(S'w'
I1
tp611
a(S'p1_ll'
I1
tp612
a(S'w'
I1
tp613
a(S'p2_tl'
I128
tp614
a(S'w'
I1
tp615
a(S'p2_ll'
I1
tp616
a(S'p2_th'
I7
tp617
a(S'w'
I1
tp618
a(S'tr_tl'
I80
tp619
a(S'w'
I1
tp620
a(S'tr_ll'
I1
tp621
a(S'w'
I1
tp622
a(S'no_np'
I9
tp623
a(S'w'
I1
tp624
a(S'no_ll'
I1
tp625
a(S'w'
I2932
tp626
a(S'tr_tl'
I160
tp627
a(S'tr_ll'
I1
tp628
a(S'w'
I2931
tp629
a(S'p1_tl'
I27
tp630
a(S'w'
I1
tp631
a(S'p1_ll'
I1
tp632
a(S'p1_th'
I2
tp633
a(S'w'
I1
tp634
a(S'p2_tl'
I224
tp635
a(S'w'
I1
tp636
a(S'p2_ll'
I1
tp637
a(S'p2_th'
I1
tp638
a(S'w'
I1
tp639
a(S'tr_tl'
I64
tp640
a(S'w'
I1
tp641
a(S'tr_ll'
I1
tp642
a(S'tr_th'
I1
tp643
a(S'w'
I1
tp644
a(S'w'
I1
tp645
a(S'no_ll'
I1
tp646
a(S'w'
I2932
tp647
a(S'tr_tl'
I160
tp648
a(S'tr_ll'
I1
tp649
a(S'tr_th'
I0
tp650
a(S'w'
I2932
tp651
a(S'p1_tl'
I59
tp652
a(S'w'
I1
tp653
a(S'p1_ll'
I1
tp654
a(S'w'
I1
tp655
a(S'p2_tl'
I197
tp656
a(S'w'
I1
tp657
a(S'p2_ll'
I1
tp658
a(S'w'
I1
tp659
a(S'tr_tl'
I80
tp660
a(S'w'
I1
tp661
a(S'tr_ll'
I1
tp662
a(S'w'
I1
tp663
a(S'w'
I1
tp664
a(S'no_ll'
I1
tp665
a(S'w'
I2932
tp666
a(S'tr_tl'
I160
tp667
a(S'tr_ll'
I1
tp668
a(S'w'
I2931
tp669
a(S'p1_tl'
I224
tp670
a(S'w'
I1
tp671
a(S'p1_ll'
I1
tp672
a(S'p1_th'
I1
tp673
a(S'w'
I1
tp674
a(S'p2_tl'
I171
tp675
a(S'w'
I1
tp676
a(S'p2_ll'
I1
tp677
a(S'w'
I1
tp678
a(S'tr_tl'
I64
tp679
a(S'w'
I1
tp680
a(S'tr_ll'
I1
tp681
a(S'tr_th'
I1
tp682
a(S'w'
I1
tp683
a(S'w'
I1
tp684
a(S'no_ll'
I1
tp685
a(S'w'
I2932
tp686
a(S'tr_tl'
I160
tp687
a(S'tr_ll'
I1
tp688
a(S'tr_th'
I0
tp689
a(S'w'
I2931
tp690
a(S'p1_tl'
I252
tp691
a(S'w'
I1
tp692
a(S'p1_ll'
I1
tp693
a(S'w'
I1
tp694
a(S'p2_tl'
I144
tp695
a(S'w'
I1
tp696
a(S'p2_ll'
I1
tp697
a(S'w'
I1
tp698
a(S'tr_tl'
I80
tp699
a(S'w'
I1
tp700
a(S'tr_ll'
I1
tp701
a(S'w'
I1
tp702
a(S'w'
I1
tp703
a(S'no_ll'
I1
tp704
a(S'w'
I2932
tp705
a(S'tr_tl'
I160
tp706
a(S'tr_ll'
I1
tp707
a(S'w'
I2932
tp708
a(S'p1_tl'
I27
tp709
a(S'w'
I1
tp710
a(S'p1_ll'
I1
tp711
a(S'p1_th'
I2
tp712
a(S'w'
I1
tp713
a(S'p2_tl'
I128
tp714
a(S'w'
I1
tp715
a(S'p2_ll'
I1
tp716
a(S'p2_th'
I7
tp717
a(S'w'
I1
tp718
a(S'tr_tl'
I64
tp719
a(S'w'
I1
tp720
a(S'tr_ll'
I1
tp721
a(S'tr_th'
I1
tp722
a(S'w'
I1
tp723
a(S'w'
I1
tp724
a(S'no_ll'
I1
tp725
a(S'w'
I2932
tp726
a(S'tr_tl'
I160
tp727
a(S'tr_ll'
I1
tp728
a(S'tr_th'
I0
tp729
a(S'w'
I2931
tp730
a(S'p1_tl'
I59
tp731
a(S'w'
I1
tp732
a(S'p1_ll'
I1
tp733
a(S'w'
I1
tp734
a(S'p2_tl'
I224
tp735
a(S'w'
I1
tp736
a(S'p2_ll'
I1
tp737
a(S'p2_th'
I1
tp738
a(S'w'
I1
tp739
a(S'tr_tl'
I80
tp740
a(S'w'
I1
tp741
a(S'tr_ll'
I1
tp742
a(S'w'
I1
tp743
a(S'w'
I1
tp744
a(S'no_ll'
I1
tp745
a(S'w'
I2932
tp746
a(S'tr_tl'
I160
tp747
a(S'tr_ll'
I1
tp748
a(S'w'
I2931
tp749
a(S'p1_tl'
I224
tp750
a(S'w'
I1
tp751
a(S'p1_ll'
I1
tp752
a(S'p1_th'
I1
tp753
a(S'w'
I1
tp754
a(S'p2_tl'
I197
tp755
a(S'w'
I1
tp756
a(S'p2_ll'
I1
tp757
a(S'w'
I1
tp758
a(S'tr_tl'
I64
tp759
a(S'w'
I1
tp760
a(S'tr_ll'
I1
tp761
a(S'tr_th'
I1
tp762
a(S'w'
I1
tp763
a(S'no_np'
I2
tp764
a(S'w'
I1
tp765
a(S'no_ll'
I1
tp766
a(S'w'
I2932
tp767
a(S'tr_tl'
I160
tp768
a(S'tr_ll'
I1
tp769
a(S'tr_th'
I0
tp770
a(S'w'
I2932
tp771
a(S'p1_tl'
I252
tp772
a(S'w'
I1
tp773
a(S'p1_ll'
I1
tp774
a(S'w'
I1
tp775
a(S'p2_tl'
I171
tp776
a(S'w'
I1
tp777
a(S'p2_ll'
I1
tp778
a(S'w'
I1
tp779
a(S'tr_tl'
I80
tp780
a(S'w'
I1
tp781
a(S'tr_ll'
I1
tp782
a(S'w'
I1
tp783
a(S'no_np'
I9
tp784
a(S'w'
I1
tp785
a(S'no_ll'
I1
tp786
a(S'w'
I2932
tp787
a(S'tr_tl'
I160
tp788
a(S'tr_ll'
I1
tp789
a(S'w'
I2931
tp790
a(S'p1_tl'
I27
tp791
a(S'w'
I1
tp792
a(S'p1_ll'
I1
tp793
a(S'p1_th'
I2
tp794
a(S'w'
I1
tp795
a(S'p2_tl'
I144
tp796
a(S'w'
I1
tp797
a(S'p2_ll'
I1
tp798
a(S'w'
I1
tp799
a(S'tr_tl'
I64
tp800
a(S'w'
I1
tp801
a(S'tr_ll'
I1
tp802
a(S'tr_th'
I1
tp803
a(S'w'
I1
tp804
a(S'w'
I1
tp805
a(S'no_ll'
I1
tp806
a(S'w'
I2932
tp807
a(S'tr_tl'
I160
tp808
a(S'tr_ll'
I1
tp809
a(S'tr_th'
I0
tp810
a(S'w'
I2931
tp811
a(S'p1_tl'
I59
tp812
a(S'w'
I1
tp813
a(S'p1_ll'
I1
tp814
a(S'w'
I1
tp815
a(S'p2_tl'
I128
tp816
a(S'w'
I1
tp817
a(S'p2_ll'
I1
tp818
a(S'p2_th'
I7
tp819
a(S'w'
I1
tp820
a(S'tr_tl'
I80
tp821
a(S'w'
I1
tp822
a(S'tr_ll'
I1
tp823
a(S'w'
I1
tp824
a(S'w'
I1
tp825
a(S'no_ll'
I1
tp826
a(S'w'
I2932
tp827
a(S'tr_tl'
I160
tp828
a(S'tr_ll'
I1
tp829
a(S'w'
I2931
tp830
a.