(lp1
(S'clock'
p2
I1789772
tp3
a(S'p1_du'
I1
tp4
a(S'p1_vo'
I8
tp5
a(S'p1_ll'
I18
tp6
a(S'p2_du'
I1
tp7
a(S'p2_vo'
I8
tp8
a(S'p2_ll'
I18
tp9
a(S'tr_lr'
I37
tp10
a(S'tr_ll'
I18
tp11
a(S'ch_no'
I1
tp12
a(S'ch_tr'
I1
tp13
a(S'ch_p2'
I1
tp14
a(S'ch_p1'
I1
tp15
a(S'fc_mo'
I1
tp16
a(S'p1_vo'
I15
tp17
a(S'w'
I3
tp18
a(S'p1_tl'
I110
tp19
a(S'w'
I1
tp20
a(S'p1_ll'
I18
tp21
a(S'w'
I19
tp22
a(S'p2_vo'
I15
tp23
a(S'w'
I2
tp24
a(S'w'
I1
tp25
a(S'p2_ll'
I16
tp26
a(S'w'
I19
tp27
a(S'tr_lr'
I79
tp28
a(S'w'
I3
tp29
a(S'tr_ll'
I20
tp30
a(S'w'
I1878
tp31
a(S'p2_tl'
I110
tp32
a(S'w'
I1
tp33
a(S'p2_ll'
I18
tp34
a(S'w'
I2197
tp35
a(S'p1_tl'
I123
tp36
a(S'w'
I2
tp37
a(S'p1_ll'
I18
tp38
a(S'w'
I2202
tp39
a(S'p2_tl'
I123
tp40
a(S'w'
I2
tp41
a(S'p2_ll'
I18
tp42
a(S'w'
I2197
tp43
a(S'p1_tl'
I110
tp44
a(S'w'
I1
tp45
a(S'p1_ll'
I18
tp46
a(S'w'
I14
tp47
a(S'tr_tl'
I55
tp48
a(S'w'
I1
tp49
a(S'tr_ll'
I18
tp50
a(S'w'
I2188
tp51
a(S'p2_tl'
I110
tp52
a(S'w'
I1
tp53
a(S'p2_ll'
I18
tp54
a(S'w'
I2198
tp55
a(S'p1_tl'
I130
tp56
a(S'w'
I1
tp57
a(S'p1_ll'
I18
tp58
a(S'w'
I14
tp59
a(S'tr_tl'
I61
tp60
a(S'w'
I1
tp61
a(S'tr_ll'
I18
tp62
a(S'w'
I2188
tp63
a(S'p2_tl'
I130
tp64
a(S'w'
I1
tp65
a(S'p2_ll'
I18
tp66
a(S'w'
I2198
tp67
a(S'p1_tl'
I110
tp68
a(S'w'
I1
tp69
a(S'p1_ll'
I18
tp70
a(S'w'
I14
tp71
a(S'tr_tl'
I55
tp72
a(S'w'
I1
tp73
a(S'tr_ll'
I18
tp74
a(S'w'
I2188
tp75
a(S'p2_tl'
I110
tp76
a(S'w'
I1
tp77
a(S'p2_ll'
I18
tp78
a(S'w'
I2197
tp79
a(S'p1_tl'
I146
tp80
a(S'w'
I2
tp81
a(S'p1_ll'
I18
tp82
a(S'w'
I13
tp83
a(S'tr_tl'
I65
tp84
a(S'w'
I2
tp85
a(S'tr_ll'
I18
tp86
a(S'w'
I2187
tp87
a(S'p2_tl'
I146
tp88
a(S'w'
I2
tp89
a(S'p2_ll'
I18
tp90
a(S'w'
I2197
tp91
a(S'p1_tl'
I110
tp92
a(S'w'
I2
tp93
a(S'p1_ll'
I18
tp94
a(S'w'
I13
tp95
a(S'tr_tl'
I55
tp96
a(S'w'
I2
tp97
a(S'tr_ll'
I18
tp98
a(S'w'
I2187
tp99
a(S'p2_tl'
I110
tp100
a(S'w'
I2
tp101
a(S'p2_ll'
I18
tp102
a(S'w'
I2197
tp103
a(S'p1_tl'
I164
tp104
a(S'w'
I1
tp105
a(S'p1_ll'
I18
tp106
a(S'w'
I14
tp107
a(S'tr_tl'
I73
tp108
a(S'w'
I1
tp109
a(S'tr_ll'
I18
tp110
a(S'w'
I2188
tp111
a(S'p2_tl'
I164
tp112
a(S'w'
I1
tp113
a(S'p2_ll'
I18
tp114
a(S'w'
I2198
tp115
a(S'p1_tl'
I110
tp116
a(S'w'
I1
tp117
a(S'p1_ll'
I18
tp118
a(S'w'
I14
tp119
a(S'tr_tl'
I55
tp120
a(S'w'
I1
tp121
a(S'tr_ll'
I18
tp122
a(S'w'
I2188
tp123
a(S'p2_tl'
I110
tp124
a(S'w'
I1
tp125
a(S'p2_ll'
I18
tp126
a(S'w'
I2198
tp127
a(S'p1_tl'
I123
tp128
a(S'w'
I1
tp129
a(S'p1_ll'
I18
tp130
a(S'w'
I14
tp131
a(S'tr_tl'
I82
tp132
a(S'w'
I1
tp133
a(S'tr_ll'
I18
tp134
a(S'w'
I2188
tp135
a(S'p2_tl'
I123
tp136
a(S'w'
I1
tp137
a(S'p2_ll'
I18
tp138
a(S'w'
I2197
tp139
a(S'p1_tl'
I110
tp140
a(S'w'
I2
tp141
a(S'p1_ll'
I18
tp142
a(S'w'
I13
tp143
a(S'tr_tl'
I55
tp144
a(S'w'
I2
tp145
a(S'tr_ll'
I18
tp146
a(S'w'
I2188
tp147
a(S'p2_tl'
I110
tp148
a(S'w'
I1
tp149
a(S'p2_ll'
I18
tp150
a(S'w'
I2197
tp151
a(S'p1_tl'
I130
tp152
a(S'w'
I2
tp153
a(S'p1_ll'
I18
tp154
a(S'w'
I13
tp155
a(S'tr_tl'
I61
tp156
a(S'w'
I2
tp157
a(S'tr_ll'
I18
tp158
a(S'w'
I2187
tp159
a(S'p2_tl'
I130
tp160
a(S'w'
I2
tp161
a(S'p2_ll'
I18
tp162
a(S'w'
I2197
tp163
a(S'p1_tl'
I110
tp164
a(S'w'
I1
tp165
a(S'p1_ll'
I18
tp166
a(S'w'
I14
tp167
a(S'tr_tl'
I55
tp168
a(S'w'
I2
tp169
a(S'tr_ll'
I18
tp170
a(S'w'
I2187
tp171
a(S'p2_tl'
I110
tp172
a(S'w'
I2
tp173
a(S'p2_ll'
I18
tp174
a(S'w'
I2197
tp175
a(S'p1_tl'
I146
tp176
a(S'w'
I1
tp177
a(S'p1_ll'
I18
tp178
a(S'w'
I14
tp179
a(S'tr_tl'
I65
tp180
a(S'w'
I1
tp181
a(S'tr_ll'
I18
tp182
a(S'w'
I2188
tp183
a(S'p2_tl'
I146
tp184
a(S'w'
I1
tp185
a(S'p2_ll'
I18
tp186
a(S'w'
I2198
tp187
a(S'p1_tl'
I110
tp188
a(S'w'
I1
tp189
a(S'p1_ll'
I18
tp190
a(S'w'
I14
tp191
a(S'tr_tl'
I55
tp192
a(S'w'
I1
tp193
a(S'tr_ll'
I18
tp194
a(S'w'
I2188
tp195
a(S'p2_tl'
I110
tp196
a(S'w'
I1
tp197
a(S'p2_ll'
I18
tp198
a(S'w'
I2197
tp199
a(S'p1_tl'
I164
tp200
a(S'w'
I2
tp201
a(S'p1_ll'
I18
tp202
a(S'w'
I14
tp203
a(S'tr_tl'
I73
tp204
a(S'w'
I1
tp205
a(S'tr_ll'
I18
tp206
a(S'w'
I2188
tp207
a(S'p2_tl'
I164
tp208
a(S'w'
I1
tp209
a(S'p2_ll'
I18
tp210
a(S'w'
I2197
tp211
a(S'p1_tl'
I110
tp212
a(S'w'
I2
tp213
a(S'p1_ll'
I18
tp214
a(S'w'
I13
tp215
a(S'tr_tl'
I55
tp216
a(S'w'
I2
tp217
a(S'tr_ll'
I18
tp218
a(S'w'
I2187
tp219
a(S'p2_tl'
I110
tp220
a(S'w'
I2
tp221
a(S'p2_ll'
I18
tp222
a(S'w'
I2197
tp223
a(S'p1_tl'
I123
tp224
a(S'w'
I2
tp225
a(S'p1_ll'
I18
tp226
a(S'w'
I13
tp227
a(S'tr_tl'
I82
tp228
a(S'w'
I2
tp229
a(S'tr_ll'
I18
tp230
a(S'w'
I2187
tp231
a(S'p2_tl'
I123
tp232
a(S'w'
I2
tp233
a(S'p2_ll'
I18
tp234
a(S'w'
I2197
tp235
a(S'p1_tl'
I110
tp236
a(S'w'
I1
tp237
a(S'p1_ll'
I18
tp238
a(S'w'
I14
tp239
a(S'tr_tl'
I55
tp240
a(S'w'
I1
tp241
a(S'tr_ll'
I18
tp242
a(S'w'
I2188
tp243
a(S'p2_tl'
I110
tp244
a(S'w'
I1
tp245
a(S'p2_ll'
I18
tp246
a(S'w'
I2198
tp247
a(S'p1_tl'
I146
tp248
a(S'w'
I1
tp249
a(S'p1_ll'
I18
tp250
a(S'w'
I14
tp251
a(S'tr_tl'
I61
tp252
a(S'w'
I1
tp253
a(S'tr_ll'
I18
tp254
a(S'w'
I2188
tp255
a(S'p2_tl'
I146
tp256
a(S'w'
I1
tp257
a(S'p2_ll'
I18
tp258
a(S'w'
I2198
tp259
a(S'p1_tl'
I123
tp260
a(S'w'
I1
tp261
a(S'p1_ll'
I18
tp262
a(S'w'
I14
tp263
a(S'tr_tl'
I55
tp264
a(S'w'
I1
tp265
a(S'tr_ll'
I18
tp266
a(S'w'
I2188
tp267
a(S'p2_tl'
I123
tp268
a(S'w'
I1
tp269
a(S'p2_ll'
I18
tp270
a(S'w'
I2197
tp271
a(S'p1_tl'
I174
tp272
a(S'w'
I2
tp273
a(S'p1_ll'
I18
tp274
a(S'w'
I13
tp275
a(S'tr_tl'
I73
tp276
a(S'w'
I2
tp277
a(S'tr_ll'
I18
tp278
a(S'w'
I2187
tp279
a(S'p2_tl'
I174
tp280
a(S'w'
I2
tp281
a(S'p2_ll'
I18
tp282
a(S'w'
I2197
tp283
a(S'p1_tl'
I146
tp284
a(S'w'
I2
tp285
a(S'p1_ll'
I18
tp286
a(S'w'
I13
tp287
a(S'tr_tl'
I61
tp288
a(S'w'
I2
tp289
a(S'tr_ll'
I18
tp290
a(S'w'
I2187
tp291
a(S'p2_tl'
I146
tp292
a(S'w'
I2
tp293
a(S'p2_ll'
I18
tp294
a(S'w'
I2197
tp295
a(S'p1_tl'
I164
tp296
a(S'w'
I1
tp297
a(S'p1_ll'
I20
tp298
a(S'w'
I14
tp299
a(S'tr_tl'
I87
tp300
a(S'w'
I1
tp301
a(S'tr_ll'
I18
tp302
a(S'w'
I2188
tp303
a(S'p2_tl'
I164
tp304
a(S'w'
I1
tp305
a(S'p2_ll'
I20
tp306
a(S'w'
I2203
tp307
a(S'tr_tl'
I73
tp308
a(S'w'
I1
tp309
a(S'tr_ll'
I18
tp310
a(S'w'
I4396
tp311
a(S'p1_tl'
I0
tp312
a(S'w'
I1
tp313
a(S'p1_ll'
I16
tp314
a(S'w'
I15
tp315
a(S'tr_tl'
I82
tp316
a(S'w'
I1
tp317
a(S'tr_ll'
I20
tp318
a(S'w'
I2186
tp319
a(S'p2_tl'
I0
tp320
a(S'w'
I2
tp321
a(S'p2_ll'
I16
tp322
a(S'w'
I2197
tp323
a(S'p2_du'
I0
tp324
a(S'p2_vo'
I0
tp325
a(S'w'
I4404
tp326
a(S'tr_lr'
I0
tp327
a(S'w'
I9570
tp328
a.