(lp1
(S'clock'
p2
I1789772
tp3
a(S'p1_du'
I1
tp4
a(S'p1_vo'
I8
tp5
a(S'p1_ll'
I18
tp6
a(S'p2_du'
I1
tp7
a(S'p2_vo'
I8
tp8
a(S'p2_ll'
I18
tp9
a(S'tr_lr'
I37
tp10
a(S'tr_ll'
I18
tp11
a(S'ch_no'
I1
tp12
a(S'ch_tr'
I1
tp13
a(S'ch_p2'
I1
tp14
a(S'ch_p1'
I1
tp15
a(S'fc_mo'
I1
tp16
a(S'p1_vo'
I15
tp17
a(S'w'
I1
tp18
a(S'w'
I2
tp19
a(S'p1_tl'
I20
tp20
a(S'w'
I2
tp21
a(S'p1_ll'
I22
tp22
a(S'p1_th'
I1
tp23
a(S'w'
I19
tp24
a(S'p2_vo'
I15
tp25
a(S'w'
I2
tp26
a(S'p2_tl'
I40
tp27
a(S'w'
I2
tp28
a(S'p2_ll'
I22
tp29
a(S'p2_th'
I2
tp30
a(S'w'
I19
tp31
a(S'w'
I3
tp32
a(S'tr_tl'
I20
tp33
a(S'w'
I1
tp34
a(S'tr_ll'
I18
tp35
a(S'tr_th'
I1
tp36
a(S'w'
I7016
tp37
a(S'tr_ll'
I18
tp38
a(S'w'
I7337
tp39
a(S'tr_ll'
I18
tp40
a(S'w'
I7339
tp41
a(S'tr_ll'
I18
tp42
a(S'w'
I7331
tp43
a(S'p1_tl'
I196
tp44
a(S'w'
I1
tp45
a(S'p1_ll'
I22
tp46
a(S'p1_th'
I0
tp47
a(S'w'
I12
tp48
a(S'p2_tl'
I136
tp49
a(S'w'
I1
tp50
a(S'p2_ll'
I22
tp51
a(S'p2_th'
I1
tp52
a(S'w'
I12
tp53
a(S'tr_ll'
I18
tp54
a(S'w'
I7319
tp55
a(S'tr_ll'
I18
tp56
a(S'w'
I7338
tp57
a(S'tr_ll'
I18
tp58
a(S'w'
I7338
tp59
a(S'tr_ll'
I18
tp60
a(S'w'
I7331
tp61
a(S'p1_tl'
I184
tp62
a(S'w'
I2
tp63
a(S'p1_ll'
I22
tp64
a(S'w'
I11
tp65
a(S'p2_tl'
I112
tp66
a(S'w'
I1
tp67
a(S'p2_ll'
I22
tp68
a(S'w'
I12
tp69
a(S'tr_ll'
I18
tp70
a(S'w'
I7319
tp71
a(S'tr_ll'
I18
tp72
a(S'w'
I7338
tp73
a(S'tr_ll'
I18
tp74
a(S'w'
I7338
tp75
a(S'tr_ll'
I18
tp76
a(S'w'
I7331
tp77
a(S'p1_tl'
I4
tp78
a(S'w'
I2
tp79
a(S'p1_ll'
I22
tp80
a(S'p1_th'
I1
tp81
a(S'w'
I11
tp82
a(S'p2_tl'
I8
tp83
a(S'w'
I1
tp84
a(S'p2_ll'
I22
tp85
a(S'p2_th'
I2
tp86
a(S'w'
I13
tp87
a(S'tr_ll'
I18
tp88
a(S'w'
I7318
tp89
a(S'tr_ll'
I18
tp90
a(S'w'
I7338
tp91
a(S'tr_ll'
I18
tp92
a(S'w'
I7338
tp93
a(S'tr_ll'
I18
tp94
a(S'w'
I7331
tp95
a(S'p1_tl'
I20
tp96
a(S'w'
I1
tp97
a(S'p1_ll'
I20
tp98
a(S'w'
I12
tp99
a(S'p2_tl'
I40
tp100
a(S'w'
I1
tp101
a(S'p2_ll'
I20
tp102
a(S'w'
I12
tp103
a(S'tr_ll'
I18
tp104
a(S'w'
I7319
tp105
a(S'tr_ll'
I18
tp106
a(S'w'
I7331
tp107
a(S'p1_tl'
I196
tp108
a(S'w'
I2
tp109
a(S'p1_ll'
I20
tp110
a(S'p1_th'
I0
tp111
a(S'w'
I11
tp112
a(S'p2_tl'
I136
tp113
a(S'w'
I1
tp114
a(S'p2_ll'
I20
tp115
a(S'p2_th'
I1
tp116
a(S'w'
I12
tp117
a(S'tr_ll'
I18
tp118
a(S'w'
I7319
tp119
a(S'tr_ll'
I18
tp120
a(S'w'
I7331
tp121
a(S'p1_tl'
I184
tp122
a(S'w'
I2
tp123
a(S'p1_ll'
I20
tp124
a(S'w'
I11
tp125
a(S'p2_tl'
I112
tp126
a(S'w'
I1
tp127
a(S'p2_ll'
I20
tp128
a(S'w'
I13
tp129
a(S'tr_ll'
I18
tp130
a(S'w'
I7318
tp131
a(S'tr_ll'
I18
tp132
a(S'w'
I7331
tp133
a(S'p1_tl'
I4
tp134
a(S'w'
I2
tp135
a(S'p1_ll'
I20
tp136
a(S'p1_th'
I1
tp137
a(S'w'
I11
tp138
a(S'p2_tl'
I8
tp139
a(S'w'
I1
tp140
a(S'p2_ll'
I20
tp141
a(S'p2_th'
I2
tp142
a(S'w'
I13
tp143
a(S'tr_ll'
I18
tp144
a(S'w'
I7318
tp145
a(S'tr_ll'
I18
tp146
a(S'w'
I7331
tp147
a(S'p1_tl'
I20
tp148
a(S'w'
I2
tp149
a(S'p1_ll'
I20
tp150
a(S'w'
I11
tp151
a(S'p2_tl'
I40
tp152
a(S'w'
I1
tp153
a(S'p2_ll'
I20
tp154
a(S'w'
I13
tp155
a(S'tr_ll'
I18
tp156
a(S'w'
I7318
tp157
a(S'tr_ll'
I18
tp158
a(S'w'
I7331
tp159
a(S'p1_tl'
I196
tp160
a(S'w'
I2
tp161
a(S'p1_ll'
I20
tp162
a(S'p1_th'
I0
tp163
a(S'w'
I11
tp164
a(S'p2_tl'
I136
tp165
a(S'w'
I1
tp166
a(S'p2_ll'
I20
tp167
a(S'p2_th'
I1
tp168
a(S'w'
I13
tp169
a(S'tr_ll'
I18
tp170
a(S'w'
I7318
tp171
a(S'tr_ll'
I18
tp172
a(S'w'
I7331
tp173
a(S'p1_tl'
I184
tp174
a(S'w'
I2
tp175
a(S'p1_ll'
I20
tp176
a(S'w'
I11
tp177
a(S'p2_tl'
I112
tp178
a(S'w'
I1
tp179
a(S'p2_ll'
I20
tp180
a(S'w'
I13
tp181
a(S'tr_ll'
I18
tp182
a(S'w'
I7318
tp183
a(S'tr_ll'
I18
tp184
a(S'w'
I7331
tp185
a(S'p1_tl'
I4
tp186
a(S'w'
I2
tp187
a(S'p1_ll'
I20
tp188
a(S'p1_th'
I1
tp189
a(S'w'
I11
tp190
a(S'p2_tl'
I8
tp191
a(S'w'
I1
tp192
a(S'p2_ll'
I20
tp193
a(S'p2_th'
I2
tp194
a(S'w'
I13
tp195
a(S'tr_ll'
I18
tp196
a(S'w'
I7318
tp197
a(S'tr_ll'
I18
tp198
a(S'w'
I7331
tp199
a(S'p1_tl'
I208
tp200
a(S'w'
I2
tp201
a(S'p1_ll'
I22
tp202
a(S'p1_th'
I0
tp203
a(S'w'
I11
tp204
a(S'p2_tl'
I160
tp205
a(S'w'
I1
tp206
a(S'p2_ll'
I22
tp207
a(S'p2_th'
I1
tp208
a(S'w'
I11
tp209
a(S'tr_tl'
I92
tp210
a(S'w'
I2
tp211
a(S'tr_ll'
I18
tp212
a(S'w'
I7318
tp213
a(S'tr_ll'
I18
tp214
a(S'w'
I7338
tp215
a(S'tr_ll'
I18
tp216
a(S'w'
I7338
tp217
a(S'tr_ll'
I18
tp218
a(S'w'
I7331
tp219
a(S'p1_tl'
I146
tp220
a(S'w'
I2
tp221
a(S'p1_ll'
I22
tp222
a(S'w'
I11
tp223
a(S'p2_tl'
I36
tp224
a(S'w'
I1
tp225
a(S'p2_ll'
I22
tp226
a(S'w'
I13
tp227
a(S'tr_ll'
I18
tp228
a(S'w'
I7318
tp229
a(S'tr_ll'
I18
tp230
a(S'w'
I7338
tp231
a(S'tr_ll'
I18
tp232
a(S'w'
I7338
tp233
a(S'tr_ll'
I18
tp234
a(S'w'
I7331
tp235
a(S'p1_tl'
I138
tp236
a(S'w'
I2
tp237
a(S'p1_ll'
I22
tp238
a(S'w'
I11
tp239
a(S'p2_tl'
I20
tp240
a(S'w'
I1
tp241
a(S'p2_ll'
I22
tp242
a(S'w'
I13
tp243
a(S'tr_ll'
I18
tp244
a(S'w'
I7318
tp245
a(S'tr_ll'
I18
tp246
a(S'w'
I7338
tp247
a(S'tr_ll'
I18
tp248
a(S'w'
I7338
tp249
a(S'tr_ll'
I18
tp250
a(S'w'
I7332
tp251
a(S'p1_tl'
I196
tp252
a(S'w'
I1
tp253
a(S'p1_ll'
I22
tp254
a(S'w'
I11
tp255
a(S'p2_tl'
I136
tp256
a(S'w'
I2
tp257
a(S'p2_ll'
I22
tp258
a(S'w'
I12
tp259
a(S'tr_ll'
I18
tp260
a(S'w'
I7318
tp261
a(S'tr_ll'
I18
tp262
a(S'w'
I7338
tp263
a(S'tr_ll'
I18
tp264
a(S'w'
I7338
tp265
a(S'tr_ll'
I18
tp266
a(S'w'
I7332
tp267
a(S'p1_tl'
I208
tp268
a(S'w'
I1
tp269
a(S'p1_ll'
I20
tp270
a(S'w'
I11
tp271
a(S'p2_tl'
I160
tp272
a(S'w'
I2
tp273
a(S'p2_ll'
I20
tp274
a(S'w'
I12
tp275
a(S'tr_ll'
I18
tp276
a(S'w'
I7318
tp277
a(S'tr_ll'
I18
tp278
a(S'w'
I7331
tp279
a(S'p1_tl'
I146
tp280
a(S'w'
I2
tp281
a(S'p1_ll'
I20
tp282
a(S'w'
I11
tp283
a(S'p2_tl'
I36
tp284
a(S'w'
I2
tp285
a(S'p2_ll'
I20
tp286
a(S'w'
I12
tp287
a(S'tr_ll'
I18
tp288
a(S'w'
I7318
tp289
a(S'tr_ll'
I18
tp290
a(S'w'
I7332
tp291
a(S'p1_tl'
I138
tp292
a(S'w'
I1
tp293
a(S'p1_ll'
I20
tp294
a(S'w'
I11
tp295
a(S'p2_tl'
I20
tp296
a(S'w'
I2
tp297
a(S'p2_ll'
I20
tp298
a(S'w'
I12
tp299
a(S'tr_ll'
I18
tp300
a(S'w'
I7318
tp301
a(S'tr_ll'
I18
tp302
a(S'w'
I7332
tp303
a(S'p1_tl'
I196
tp304
a(S'w'
I1
tp305
a(S'p1_ll'
I20
tp306
a(S'w'
I11
tp307
a(S'p2_tl'
I136
tp308
a(S'w'
I2
tp309
a(S'p2_ll'
I20
tp310
a(S'w'
I12
tp311
a(S'tr_ll'
I18
tp312
a(S'w'
I7318
tp313
a(S'tr_ll'
I18
tp314
a(S'w'
I7332
tp315
a(S'p1_tl'
I208
tp316
a(S'w'
I1
tp317
a(S'p1_ll'
I20
tp318
a(S'w'
I11
tp319
a(S'p2_tl'
I160
tp320
a(S'w'
I2
tp321
a(S'p2_ll'
I20
tp322
a(S'w'
I12
tp323
a(S'tr_ll'
I18
tp324
a(S'w'
I7318
tp325
a(S'tr_ll'
I18
tp326
a(S'w'
I7332
tp327
a(S'p1_tl'
I146
tp328
a(S'w'
I1
tp329
a(S'p1_ll'
I20
tp330
a(S'w'
I11
tp331
a(S'p2_tl'
I36
tp332
a(S'w'
I2
tp333
a(S'p2_ll'
I20
tp334
a(S'w'
I12
tp335
a(S'tr_ll'
I18
tp336
a(S'w'
I7318
tp337
a(S'tr_ll'
I18
tp338
a(S'w'
I7332
tp339
a(S'p1_tl'
I138
tp340
a(S'w'
I1
tp341
a(S'p1_ll'
I20
tp342
a(S'w'
I11
tp343
a(S'p2_tl'
I20
tp344
a(S'w'
I2
tp345
a(S'p2_ll'
I20
tp346
a(S'w'
I12
tp347
a(S'tr_ll'
I18
tp348
a(S'w'
I7318
tp349
a(S'tr_ll'
I18
tp350
a(S'w'
I7332
tp351
a(S'p1_tl'
I196
tp352
a(S'w'
I1
tp353
a(S'p1_ll'
I20
tp354
a(S'w'
I11
tp355
a(S'p2_tl'
I136
tp356
a(S'w'
I2
tp357
a(S'p2_ll'
I20
tp358
a(S'w'
I12
tp359
a(S'tr_ll'
I18
tp360
a(S'w'
I7318
tp361
a(S'tr_ll'
I18
tp362
a(S'w'
I7332
tp363
a(S'p1_tl'
I154
tp364
a(S'w'
I2
tp365
a(S'p1_ll'
I22
tp366
a(S'w'
I12
tp367
a(S'p2_tl'
I236
tp368
a(S'w'
I2
tp369
a(S'p2_ll'
I22
tp370
a(S'w'
I11
tp371
a(S'tr_tl'
I246
tp372
a(S'w'
I2
tp373
a(S'tr_ll'
I18
tp374
a(S'tr_th'
I0
tp375
a(S'w'
I7315
tp376
a(S'tr_ll'
I18
tp377
a(S'w'
I7338
tp378
a(S'tr_ll'
I18
tp379
a(S'w'
I7338
tp380
a(S'tr_ll'
I18
tp381
a(S'w'
I7338
tp382
a(S'tr_ll'
I18
tp383
a(S'w'
I7338
tp384
a(S'tr_ll'
I18
tp385
a(S'w'
I7332
tp386
a(S'p1_tl'
I232
tp387
a(S'w'
I1
tp388
a(S'p1_ll'
I20
tp389
a(S'w'
I11
tp390
a(S'w'
I2
tp391
a(S'p2_ll'
I20
tp392
a(S'w'
I12
tp393
a(S'tr_ll'
I18
tp394
a(S'w'
I7319
tp395
a(S'tr_ll'
I18
tp396
a(S'w'
I7331
tp397
a(S'p1_tl'
I220
tp398
a(S'w'
I1
tp399
a(S'p1_ll'
I20
tp400
a(S'w'
I11
tp401
a(S'w'
I2
tp402
a(S'p2_ll'
I20
tp403
a(S'w'
I12
tp404
a(S'tr_ll'
I18
tp405
a(S'w'
I7319
tp406
a(S'tr_ll'
I18
tp407
a(S'w'
I7331
tp408
a(S'p1_tl'
I208
tp409
a(S'w'
I1
tp410
a(S'p1_ll'
I20
tp411
a(S'w'
I11
tp412
a(S'w'
I2
tp413
a(S'p2_ll'
I20
tp414
a(S'w'
I12
tp415
a(S'tr_ll'
I18
tp416
a(S'w'
I7319
tp417
a(S'tr_ll'
I18
tp418
a(S'w'
I7331
tp419
a(S'p1_tl'
I154
tp420
a(S'w'
I1
tp421
a(S'p1_ll'
I20
tp422
a(S'w'
I12
tp423
a(S'w'
I1
tp424
a(S'p2_ll'
I20
tp425
a(S'w'
I12
tp426
a(S'tr_ll'
I18
tp427
a(S'w'
I7319
tp428
a(S'tr_ll'
I18
tp429
a(S'w'
I7331
tp430
a(S'p1_tl'
I164
tp431
a(S'w'
I1
tp432
a(S'p1_ll'
I20
tp433
a(S'w'
I11
tp434
a(S'w'
I2
tp435
a(S'p2_ll'
I20
tp436
a(S'w'
I12
tp437
a(S'tr_ll'
I18
tp438
a(S'w'
I7319
tp439
a(S'tr_ll'
I18
tp440
a(S'w'
I7332
tp441
a(S'p1_tl'
I174
tp442
a(S'w'
I1
tp443
a(S'p1_ll'
I22
tp444
a(S'w'
I12
tp445
a(S'w'
I2
tp446
a(S'p2_ll'
I22
tp447
a(S'w'
I13
tp448
a(S'tr_ll'
I18
tp449
a(S'w'
I7316
tp450
a(S'tr_ll'
I18
tp451
a(S'w'
I7338
tp452
a(S'tr_ll'
I18
tp453
a(S'w'
I7338
tp454
a(S'tr_ll'
I18
tp455
a(S'w'
I7338
tp456
a(S'tr_ll'
I18
tp457
a(S'w'
I7338
tp458
a(S'tr_ll'
I18
tp459
a(S'w'
I7331
tp460
a(S'p1_tl'
I196
tp461
a(S'w'
I2
tp462
a(S'p1_ll'
I20
tp463
a(S'w'
I11
tp464
a(S'w'
I1
tp465
a(S'p2_ll'
I20
tp466
a(S'w'
I12
tp467
a(S'tr_ll'
I18
tp468
a(S'w'
I7319
tp469
a(S'tr_ll'
I18
tp470
a(S'w'
I7331
tp471
a(S'p1_tl'
I184
tp472
a(S'w'
I2
tp473
a(S'p1_ll'
I22
tp474
a(S'w'
I11
tp475
a(S'p2_tl'
I184
tp476
a(S'w'
I1
tp477
a(S'p2_ll'
I22
tp478
a(S'p2_th'
I2
tp479
a(S'w'
I13
tp480
a(S'tr_ll'
I18
tp481
a(S'w'
I7318
tp482
a(S'tr_ll'
I18
tp483
a(S'w'
I7338
tp484
a(S'tr_ll'
I18
tp485
a(S'w'
I7338
tp486
a(S'tr_ll'
I18
tp487
a(S'w'
I7331
tp488
a(S'p1_tl'
I36
tp489
a(S'w'
I2
tp490
a(S'p1_ll'
I22
tp491
a(S'p1_th'
I1
tp492
a(S'w'
I11
tp493
a(S'p2_tl'
I224
tp494
a(S'w'
I1
tp495
a(S'p2_ll'
I22
tp496
a(S'w'
I13
tp497
a(S'tr_ll'
I18
tp498
a(S'w'
I7318
tp499
a(S'tr_ll'
I18
tp500
a(S'w'
I7338
tp501
a(S'tr_ll'
I18
tp502
a(S'w'
I7338
tp503
a(S'tr_ll'
I18
tp504
a(S'w'
I7331
tp505
a(S'p1_tl'
I20
tp506
a(S'w'
I2
tp507
a(S'p1_ll'
I22
tp508
a(S'w'
I10
tp509
a(S'p2_tl'
I0
tp510
a(S'w'
I1
tp511
a(S'p2_ll'
I20
tp512
a(S'p2_th'
I0
tp513
a(S'w'
I11
tp514
a(S'tr_tl'
I20
tp515
a(S'w'
I1
tp516
a(S'tr_ll'
I18
tp517
a(S'tr_th'
I1
tp518
a(S'w'
I7320
tp519
a(S'tr_ll'
I18
tp520
a(S'w'
I7334
tp521
a(S'p2_tl'
I40
tp522
a(S'w'
I1
tp523
a(S'p2_ll'
I22
tp524
a(S'p2_th'
I2
tp525
a(S'w'
I13
tp526
a(S'tr_ll'
I18
tp527
a(S'w'
I7328
tp528
a(S'tr_ll'
I18
tp529
a(S'w'
I7331
tp530
a(S'p1_tl'
I196
tp531
a(S'w'
I2
tp532
a(S'p1_ll'
I22
tp533
a(S'p1_th'
I0
tp534
a(S'w'
I15
tp535
a(S'tr_ll'
I18
tp536
a(S'w'
I7328
tp537
a(S'tr_ll'
I18
tp538
a(S'w'
I7334
tp539
a(S'p2_tl'
I136
tp540
a(S'w'
I1
tp541
a(S'p2_ll'
I22
tp542
a(S'p2_th'
I1
tp543
a(S'w'
I13
tp544
a(S'tr_ll'
I18
tp545
a(S'w'
I7328
tp546
a(S'tr_ll'
I18
tp547
a(S'w'
I7331
tp548
a(S'p1_tl'
I184
tp549
a(S'w'
I2
tp550
a(S'p1_ll'
I22
tp551
a(S'w'
I15
tp552
a(S'tr_ll'
I18
tp553
a(S'w'
I7328
tp554
a(S'tr_ll'
I18
tp555
a(S'w'
I7334
tp556
a(S'p2_tl'
I112
tp557
a(S'w'
I1
tp558
a(S'p2_ll'
I22
tp559
a(S'w'
I13
tp560
a(S'tr_ll'
I18
tp561
a(S'w'
I7328
tp562
a(S'tr_ll'
I18
tp563
a(S'w'
I7331
tp564
a(S'p1_tl'
I4
tp565
a(S'w'
I2
tp566
a(S'p1_ll'
I22
tp567
a(S'p1_th'
I1
tp568
a(S'w'
I15
tp569
a(S'tr_ll'
I18
tp570
a(S'w'
I7328
tp571
a(S'tr_ll'
I18
tp572
a(S'w'
I7334
tp573
a(S'p2_tl'
I8
tp574
a(S'w'
I2
tp575
a(S'p2_ll'
I20
tp576
a(S'p2_th'
I2
tp577
a(S'w'
I12
tp578
a(S'tr_ll'
I18
tp579
a(S'w'
I7328
tp580
a(S'tr_ll'
I18
tp581
a(S'w'
I7331
tp582
a(S'p1_tl'
I20
tp583
a(S'w'
I2
tp584
a(S'p1_ll'
I20
tp585
a(S'w'
I10
tp586
a(S'p2_tl'
I0
tp587
a(S'w'
I1
tp588
a(S'p2_ll'
I18
tp589
a(S'p2_th'
I0
tp590
a(S'w'
I13
tp591
a(S'tr_ll'
I18
tp592
a(S'w'
I7315
tp593
a(S'p2_tl'
I40
tp594
a(S'w'
I2
tp595
a(S'p2_ll'
I20
tp596
a(S'p2_th'
I2
tp597
a(S'w'
I12
tp598
a(S'tr_ll'
I18
tp599
a(S'w'
I7322
tp600
a(S'p1_tl'
I196
tp601
a(S'w'
I1
tp602
a(S'p1_ll'
I20
tp603
a(S'p1_th'
I0
tp604
a(S'w'
I15
tp605
a(S'tr_ll'
I18
tp606
a(S'w'
I7324
tp607
a(S'p2_tl'
I136
tp608
a(S'w'
I2
tp609
a(S'p2_ll'
I20
tp610
a(S'p2_th'
I1
tp611
a(S'w'
I12
tp612
a(S'tr_ll'
I18
tp613
a(S'w'
I7321
tp614
a(S'p1_tl'
I184
tp615
a(S'w'
I2
tp616
a(S'p1_ll'
I20
tp617
a(S'w'
I15
tp618
a(S'tr_ll'
I18
tp619
a(S'w'
I7324
tp620
a(S'p2_tl'
I112
tp621
a(S'w'
I2
tp622
a(S'p2_ll'
I20
tp623
a(S'w'
I12
tp624
a(S'tr_ll'
I18
tp625
a(S'w'
I7322
tp626
a(S'p1_tl'
I4
tp627
a(S'w'
I1
tp628
a(S'p1_ll'
I20
tp629
a(S'p1_th'
I1
tp630
a(S'w'
I15
tp631
a(S'tr_ll'
I18
tp632
a(S'w'
I7324
tp633
a(S'p2_tl'
I8
tp634
a(S'w'
I2
tp635
a(S'p2_ll'
I20
tp636
a(S'p2_th'
I2
tp637
a(S'w'
I12
tp638
a(S'tr_ll'
I18
tp639
a(S'w'
I7322
tp640
a(S'p1_tl'
I20
tp641
a(S'w'
I1
tp642
a(S'p1_ll'
I20
tp643
a(S'w'
I15
tp644
a(S'tr_ll'
I18
tp645
a(S'w'
I7324
tp646
a(S'p2_tl'
I40
tp647
a(S'w'
I2
tp648
a(S'p2_ll'
I20
tp649
a(S'w'
I12
tp650
a(S'tr_ll'
I18
tp651
a(S'w'
I7322
tp652
a(S'p1_tl'
I196
tp653
a(S'w'
I1
tp654
a(S'p1_ll'
I20
tp655
a(S'p1_th'
I0
tp656
a(S'w'
I15
tp657
a(S'tr_ll'
I18
tp658
a(S'w'
I7324
tp659
a(S'p2_tl'
I136
tp660
a(S'w'
I2
tp661
a(S'p2_ll'
I20
tp662
a(S'p2_th'
I1
tp663
a(S'w'
I12
tp664
a(S'tr_ll'
I18
tp665
a(S'w'
I7322
tp666
a(S'p1_tl'
I184
tp667
a(S'w'
I1
tp668
a(S'p1_ll'
I20
tp669
a(S'w'
I15
tp670
a(S'tr_ll'
I18
tp671
a(S'w'
I7324
tp672
a(S'p2_tl'
I112
tp673
a(S'w'
I2
tp674
a(S'p2_ll'
I20
tp675
a(S'w'
I12
tp676
a(S'tr_ll'
I18
tp677
a(S'w'
I7322
tp678
a(S'p1_tl'
I4
tp679
a(S'w'
I1
tp680
a(S'p1_ll'
I20
tp681
a(S'p1_th'
I1
tp682
a(S'w'
I15
tp683
a(S'tr_ll'
I18
tp684
a(S'w'
I7324
tp685
a(S'p2_tl'
I8
tp686
a(S'w'
I2
tp687
a(S'p2_ll'
I18
tp688
a(S'p2_th'
I2
tp689
a(S'w'
I12
tp690
a(S'tr_ll'
I18
tp691
a(S'w'
I7322
tp692
a(S'p1_tl'
I208
tp693
a(S'w'
I1
tp694
a(S'p1_ll'
I22
tp695
a(S'p1_th'
I0
tp696
a(S'w'
I10
tp697
a(S'p2_tl'
I0
tp698
a(S'w'
I2
tp699
a(S'p2_ll'
I20
tp700
a(S'p2_th'
I0
tp701
a(S'w'
I11
tp702
a(S'tr_tl'
I174
tp703
a(S'w'
I1
tp704
a(S'tr_ll'
I18
tp705
a(S'tr_th'
I0
tp706
a(S'w'
I7319
tp707
a(S'tr_ll'
I18
tp708
a(S'w'
I7334
tp709
a(S'p2_tl'
I160
tp710
a(S'w'
I2
tp711
a(S'p2_ll'
I22
tp712
a(S'p2_th'
I1
tp713
a(S'w'
I12
tp714
a(S'tr_ll'
I18
tp715
a(S'w'
I7328
tp716
a(S'tr_ll'
I18
tp717
a(S'w'
I7332
tp718
a(S'p1_tl'
I146
tp719
a(S'w'
I1
tp720
a(S'p1_ll'
I22
tp721
a(S'w'
I15
tp722
a(S'tr_ll'
I18
tp723
a(S'w'
I7328
tp724
a(S'tr_ll'
I18
tp725
a(S'w'
I7334
tp726
a(S'p2_tl'
I36
tp727
a(S'w'
I2
tp728
a(S'p2_ll'
I22
tp729
a(S'w'
I11
tp730
a(S'tr_tl'
I164
tp731
a(S'w'
I1
tp732
a(S'tr_ll'
I18
tp733
a(S'w'
I7328
tp734
a(S'tr_ll'
I18
tp735
a(S'w'
I7332
tp736
a(S'p1_tl'
I138
tp737
a(S'w'
I1
tp738
a(S'p1_ll'
I22
tp739
a(S'w'
I14
tp740
a(S'tr_tl'
I174
tp741
a(S'w'
I1
tp742
a(S'tr_ll'
I18
tp743
a(S'w'
I7328
tp744
a(S'tr_ll'
I18
tp745
a(S'w'
I7334
tp746
a(S'p2_tl'
I20
tp747
a(S'w'
I2
tp748
a(S'p2_ll'
I22
tp749
a(S'w'
I12
tp750
a(S'tr_ll'
I18
tp751
a(S'w'
I7329
tp752
a(S'tr_ll'
I18
tp753
a(S'w'
I7331
tp754
a(S'p1_tl'
I196
tp755
a(S'w'
I1
tp756
a(S'p1_ll'
I22
tp757
a(S'w'
I15
tp758
a(S'tr_ll'
I18
tp759
a(S'w'
I7329
tp760
a(S'tr_ll'
I18
tp761
a(S'w'
I7334
tp762
a(S'p2_tl'
I136
tp763
a(S'w'
I1
tp764
a(S'p2_ll'
I20
tp765
a(S'w'
I11
tp766
a(S'tr_tl'
I164
tp767
a(S'w'
I1
tp768
a(S'tr_ll'
I18
tp769
a(S'w'
I7329
tp770
a(S'tr_ll'
I18
tp771
a(S'w'
I7331
tp772
a(S'p1_tl'
I208
tp773
a(S'w'
I1
tp774
a(S'p1_ll'
I20
tp775
a(S'w'
I10
tp776
a(S'p2_tl'
I0
tp777
a(S'w'
I2
tp778
a(S'p2_ll'
I18
tp779
a(S'p2_th'
I0
tp780
a(S'w'
I11
tp781
a(S'tr_tl'
I174
tp782
a(S'w'
I1
tp783
a(S'tr_ll'
I18
tp784
a(S'w'
I7316
tp785
a(S'p2_tl'
I160
tp786
a(S'w'
I1
tp787
a(S'p2_ll'
I20
tp788
a(S'p2_th'
I1
tp789
a(S'w'
I13
tp790
a(S'tr_ll'
I18
tp791
a(S'w'
I7321
tp792
a(S'p1_tl'
I146
tp793
a(S'w'
I1
tp794
a(S'p1_ll'
I20
tp795
a(S'w'
I15
tp796
a(S'tr_ll'
I18
tp797
a(S'w'
I7325
tp798
a(S'p2_tl'
I36
tp799
a(S'w'
I1
tp800
a(S'p2_ll'
I20
tp801
a(S'w'
I12
tp802
a(S'tr_ll'
I18
tp803
a(S'w'
I7322
tp804
a(S'p1_tl'
I138
tp805
a(S'w'
I1
tp806
a(S'p1_ll'
I20
tp807
a(S'w'
I16
tp808
a(S'tr_ll'
I18
tp809
a(S'w'
I7324
tp810
a(S'p2_tl'
I20
tp811
a(S'w'
I1
tp812
a(S'p2_ll'
I20
tp813
a(S'w'
I13
tp814
a(S'tr_ll'
I18
tp815
a(S'w'
I7321
tp816
a(S'p1_tl'
I196
tp817
a(S'w'
I2
tp818
a(S'p1_ll'
I20
tp819
a(S'w'
I13
tp820
a(S'tr_tl'
I164
tp821
a(S'w'
I2
tp822
a(S'tr_ll'
I18
tp823
a(S'w'
I7324
tp824
a(S'p2_tl'
I136
tp825
a(S'w'
I1
tp826
a(S'p2_ll'
I20
tp827
a(S'w'
I13
tp828
a(S'tr_ll'
I18
tp829
a(S'w'
I7321
tp830
a(S'p1_tl'
I208
tp831
a(S'w'
I1
tp832
a(S'p1_ll'
I20
tp833
a(S'w'
I14
tp834
a(S'tr_tl'
I174
tp835
a(S'w'
I2
tp836
a(S'tr_ll'
I18
tp837
a(S'w'
I7324
tp838
a(S'p2_tl'
I160
tp839
a(S'w'
I1
tp840
a(S'p2_ll'
I20
tp841
a(S'w'
I13
tp842
a(S'tr_ll'
I18
tp843
a(S'w'
I7321
tp844
a(S'p1_tl'
I146
tp845
a(S'w'
I2
tp846
a(S'p1_ll'
I20
tp847
a(S'w'
I15
tp848
a(S'tr_ll'
I18
tp849
a(S'w'
I7324
tp850
a(S'p2_tl'
I36
tp851
a(S'w'
I1
tp852
a(S'p2_ll'
I20
tp853
a(S'w'
I13
tp854
a(S'tr_ll'
I18
tp855
a(S'w'
I7321
tp856
a(S'p1_tl'
I138
tp857
a(S'w'
I2
tp858
a(S'p1_ll'
I20
tp859
a(S'w'
I15
tp860
a(S'tr_ll'
I18
tp861
a(S'w'
I7324
tp862
a(S'p2_tl'
I20
tp863
a(S'w'
I1
tp864
a(S'p2_ll'
I20
tp865
a(S'w'
I13
tp866
a(S'tr_ll'
I18
tp867
a(S'w'
I7321
tp868
a(S'p1_tl'
I123
tp869
a(S'w'
I2
tp870
a(S'p1_ll'
I20
tp871
a(S'w'
I13
tp872
a(S'tr_tl'
I164
tp873
a(S'w'
I2
tp874
a(S'tr_ll'
I18
tp875
a(S'w'
I7324
tp876
a(S'p2_tl'
I246
tp877
a(S'w'
I1
tp878
a(S'p2_ll'
I18
tp879
a(S'p2_th'
I0
tp880
a(S'w'
I13
tp881
a(S'tr_ll'
I18
tp882
a(S'w'
I7322
tp883
a(S'p1_tl'
I146
tp884
a(S'w'
I1
tp885
a(S'p1_ll'
I22
tp886
a(S'w'
I12
tp887
a(S'p2_tl'
I232
tp888
a(S'w'
I1
tp889
a(S'p2_ll'
I22
tp890
a(S'w'
I11
tp891
a(S'tr_tl'
I232
tp892
a(S'w'
I2
tp893
a(S'tr_ll'
I18
tp894
a(S'w'
I7317
tp895
a(S'tr_ll'
I18
tp896
a(S'w'
I7338
tp897
a(S'tr_ll'
I18
tp898
a(S'w'
I7338
tp899
a(S'tr_ll'
I18
tp900
a(S'w'
I7334
tp901
a(S'w'
I1
tp902
a(S'p2_ll'
I22
tp903
a(S'w'
I13
tp904
a(S'tr_ll'
I18
tp905
a(S'w'
I7328
tp906
a(S'tr_ll'
I18
tp907
a(S'w'
I7331
tp908
a(S'p1_tl'
I138
tp909
a(S'w'
I2
tp910
a(S'p1_ll'
I20
tp911
a(S'w'
I13
tp912
a(S'tr_tl'
I220
tp913
a(S'w'
I2
tp914
a(S'tr_ll'
I18
tp915
a(S'w'
I7328
tp916
a(S'tr_ll'
I18
tp917
a(S'w'
I7331
tp918
a(S'p1_tl'
I154
tp919
a(S'w'
I2
tp920
a(S'p1_ll'
I22
tp921
a(S'w'
I11
tp922
a(S'w'
I1
tp923
a(S'p2_ll'
I22
tp924
a(S'w'
I11
tp925
a(S'tr_tl'
I232
tp926
a(S'w'
I2
tp927
a(S'tr_ll'
I18
tp928
a(S'w'
I7318
tp929
a(S'tr_ll'
I18
tp930
a(S'w'
I7338
tp931
a(S'tr_ll'
I18
tp932
a(S'w'
I7338
tp933
a(S'tr_ll'
I18
tp934
a(S'w'
I7331
tp935
a(S'p1_tl'
I146
tp936
a(S'w'
I2
tp937
a(S'p1_ll'
I22
tp938
a(S'w'
I11
tp939
a(S'w'
I1
tp940
a(S'p2_ll'
I22
tp941
a(S'w'
I13
tp942
a(S'tr_ll'
I18
tp943
a(S'w'
I7318
tp944
a(S'tr_ll'
I18
tp945
a(S'w'
I7337
tp946
a(S'tr_tl'
I220
tp947
a(S'w'
I1
tp948
a(S'tr_ll'
I18
tp949
a(S'w'
I7338
tp950
a(S'tr_ll'
I18
tp951
a(S'w'
I7331
tp952
a(S'p1_tl'
I196
tp953
a(S'w'
I2
tp954
a(S'p1_ll'
I22
tp955
a(S'w'
I11
tp956
a(S'p2_tl'
I20
tp957
a(S'w'
I1
tp958
a(S'p2_ll'
I22
tp959
a(S'p2_th'
I1
tp960
a(S'w'
I11
tp961
a(S'tr_tl'
I138
tp962
a(S'w'
I2
tp963
a(S'tr_ll'
I18
tp964
a(S'w'
I7318
tp965
a(S'tr_ll'
I18
tp966
a(S'w'
I7338
tp967
a(S'tr_ll'
I18
tp968
a(S'w'
I7338
tp969
a(S'tr_ll'
I18
tp970
a(S'w'
I7331
tp971
a(S'p1_tl'
I246
tp972
a(S'w'
I2
tp973
a(S'p1_ll'
I22
tp974
a(S'w'
I11
tp975
a(S'w'
I1
tp976
a(S'p2_ll'
I22
tp977
a(S'w'
I13
tp978
a(S'tr_ll'
I18
tp979
a(S'w'
I7318
tp980
a(S'tr_ll'
I18
tp981
a(S'w'
I7338
tp982
a(S'tr_ll'
I18
tp983
a(S'w'
I7338
tp984
a(S'tr_ll'
I18
tp985
a(S'w'
I7332
tp986
a(S'p1_tl'
I20
tp987
a(S'w'
I1
tp988
a(S'p1_ll'
I22
tp989
a(S'p1_th'
I1
tp990
a(S'w'
I11
tp991
a(S'p2_tl'
I92
tp992
a(S'w'
I2
tp993
a(S'p2_ll'
I22
tp994
a(S'w'
I10
tp995
a(S'tr_tl'
I174
tp996
a(S'w'
I2
tp997
a(S'tr_ll'
I18
tp998
a(S'w'
I7318
tp999
a(S'tr_ll'
I18
tp1000
a(S'w'
I7337
tp1001
a(S'tr_tl'
I154
tp1002
a(S'w'
I1
tp1003
a(S'tr_ll'
I18
tp1004
a(S'w'
I7338
tp1005
a(S'tr_ll'
I18
tp1006
a(S'w'
I7332
tp1007
a(S'p1_tl'
I36
tp1008
a(S'w'
I1
tp1009
a(S'p1_ll'
I22
tp1010
a(S'w'
I11
tp1011
a(S'p2_tl'
I112
tp1012
a(S'w'
I2
tp1013
a(S'p2_ll'
I22
tp1014
a(S'w'
I11
tp1015
a(S'tr_tl'
I146
tp1016
a(S'w'
I1
tp1017
a(S'tr_ll'
I18
tp1018
a(S'w'
I7318
tp1019
a(S'tr_ll'
I18
tp1020
a(S'w'
I7338
tp1021
a(S'tr_ll'
I18
tp1022
a(S'w'
I7338
tp1023
a(S'tr_ll'
I18
tp1024
a(S'w'
I7334
tp1025
a.