(lp1
(S'clock'
p2
I1789772
tp3
a(S'p1_du'
I1
tp4
a(S'p1_vo'
I8
tp5
a(S'p1_ll'
I18
tp6
a(S'p2_du'
I1
tp7
a(S'p2_vo'
I8
tp8
a(S'p2_ll'
I18
tp9
a(S'tr_lr'
I37
tp10
a(S'tr_ll'
I18
tp11
a(S'ch_no'
I1
tp12
a(S'ch_tr'
I1
tp13
a(S'ch_p2'
I1
tp14
a(S'ch_p1'
I1
tp15
a(S'fc_mo'
I1
tp16
a(S'p1_tl'
I138
tp17
a(S'w'
I2
tp18
a(S'p1_ll'
I18
tp19
a(S'w'
I22
tp20
a(S'p2_tl'
I174
tp21
a(S'w'
I1
tp22
a(S'p2_ll'
I18
tp23
a(S'w'
I22
tp24
a(S'tr_tl'
I208
tp25
a(S'w'
I2
tp26
a(S'tr_ll'
I18
tp27
a(S'w'
I5541
tp28
a(S'w'
I1
tp29
a(S'p1_ll'
I18
tp30
a(S'w'
I11
tp31
a(S'w'
I2
tp32
a(S'p2_ll'
I18
tp33
a(S'w'
I12
tp34
a(S'tr_ll'
I18
tp35
a(S'w'
I5844
tp36
a(S'w'
I1
tp37
a(S'p1_ll'
I22
tp38
a(S'w'
I12
tp39
a(S'w'
I1
tp40
a(S'p2_ll'
I22
tp41
a(S'w'
I12
tp42
a(S'tr_ll'
I22
tp43
a(S'w'
I23456
tp44
a(S'p1_tl'
I130
tp45
a(S'w'
I1
tp46
a(S'p1_ll'
I20
tp47
a(S'w'
I11
tp48
a(S'w'
I2
tp49
a(S'p2_ll'
I20
tp50
a(S'w'
I12
tp51
a(S'tr_ll'
I20
tp52
a(S'w'
I11715
tp53
a(S'p1_tl'
I123
tp54
a(S'w'
I1
tp55
a(S'p1_ll'
I20
tp56
a(S'w'
I11
tp57
a(S'w'
I2
tp58
a(S'p2_ll'
I20
tp59
a(S'w'
I10
tp60
a(S'tr_tl'
I174
tp61
a(S'w'
I2
tp62
a(S'tr_ll'
I20
tp63
a(S'w'
I11714
tp64
a(S'p1_tl'
I130
tp65
a(S'w'
I2
tp66
a(S'p1_ll'
I20
tp67
a(S'w'
I11
tp68
a(S'w'
I1
tp69
a(S'p2_ll'
I20
tp70
a(S'w'
I11
tp71
a(S'tr_tl'
I164
tp72
a(S'w'
I2
tp73
a(S'tr_ll'
I20
tp74
a(S'w'
I11714
tp75
a(S'p1_tl'
I138
tp76
a(S'w'
I2
tp77
a(S'p1_ll'
I20
tp78
a(S'w'
I11
tp79
a(S'w'
I1
tp80
a(S'p2_ll'
I20
tp81
a(S'w'
I11
tp82
a(S'tr_tl'
I154
tp83
a(S'w'
I2
tp84
a(S'tr_ll'
I20
tp85
a(S'w'
I11714
tp86
a(S'p1_tl'
I146
tp87
a(S'w'
I1
tp88
a(S'p1_ll'
I20
tp89
a(S'w'
I12
tp90
a(S'w'
I1
tp91
a(S'p2_ll'
I20
tp92
a(S'w'
I11
tp93
a(S'tr_tl'
I146
tp94
a(S'w'
I1
tp95
a(S'tr_ll'
I20
tp96
a(S'w'
I11715
tp97
a(S'p1_tl'
I138
tp98
a(S'w'
I1
tp99
a(S'p1_ll'
I20
tp100
a(S'w'
I11
tp101
a(S'p2_tl'
I184
tp102
a(S'w'
I2
tp103
a(S'p2_ll'
I20
tp104
a(S'w'
I11
tp105
a(S'tr_tl'
I138
tp106
a(S'w'
I1
tp107
a(S'tr_ll'
I20
tp108
a(S'w'
I11713
tp109
a(S'p1_tl'
I0
tp110
a(S'w'
I2
tp111
a(S'p1_ll'
I18
tp112
a(S'w'
I10
tp113
a(S'p2_tl'
I0
tp114
a(S'w'
I1
tp115
a(S'p2_ll'
I18
tp116
a(S'w'
I10
tp117
a(S'tr_tl'
I0
tp118
a(S'w'
I1
tp119
a(S'tr_ll'
I18
tp120
a(S'w'
I5848
tp121
a(S'p1_tl'
I20
tp122
a(S'w'
I2
tp123
a(S'p1_ll'
I18
tp124
a(S'p1_th'
I1
tp125
a(S'w'
I11
tp126
a(S'p2_tl'
I112
tp127
a(S'w'
I1
tp128
a(S'p2_ll'
I18
tp129
a(S'p2_th'
I1
tp130
a(S'w'
I11
tp131
a(S'tr_tl'
I20
tp132
a(S'w'
I1
tp133
a(S'tr_ll'
I18
tp134
a(S'tr_th'
I1
tp135
a(S'w'
I5845
tp136
a(S'w'
I2
tp137
a(S'p1_ll'
I24
tp138
a(S'w'
I12
tp139
a(S'w'
I1
tp140
a(S'p2_ll'
I24
tp141
a(S'w'
I14
tp142
a(S'tr_ll'
I24
tp143
a(S'w'
I30874
tp144
a.