(lp1
(S'clock'
p2
I1789772
tp3
a(S'p1_du'
I1
tp4
a(S'p1_vo'
I8
tp5
a(S'p1_ll'
I18
tp6
a(S'p2_du'
I1
tp7
a(S'p2_vo'
I8
tp8
a(S'p2_ll'
I18
tp9
a(S'tr_lr'
I37
tp10
a(S'tr_ll'
I18
tp11
a(S'ch_no'
I1
tp12
a(S'ch_tr'
I1
tp13
a(S'ch_p2'
I1
tp14
a(S'ch_p1'
I1
tp15
a(S'fc_mo'
I1
tp16
a(S'p1_vo'
I10
tp17
a(S'w'
I2
tp18
a(S'p1_tl'
I2
tp19
a(S'w'
I2
tp20
a(S'p1_ll'
I23
tp21
a(S'w'
I19
tp22
a(S'p2_vo'
I10
tp23
a(S'w'
I3
tp24
a(S'p2_tl'
I184
tp25
a(S'w'
I1
tp26
a(S'p2_ll'
I16
tp27
a(S'p2_th'
I2
tp28
a(S'w'
I19
tp29
a(S'tr_lr'
I74
tp30
a(S'w'
I3
tp31
a(S'tr_tl'
I104
tp32
a(S'w'
I2
tp33
a(S'tr_ll'
I16
tp34
a(S'tr_th'
I2
tp35
a(S'w'
I1872
tp36
a(S'p1_tl'
I3
tp37
a(S'w'
I1
tp38
a(S'p1_ll'
I28
tp39
a(S'w'
I11
tp40
a(S'p2_tl'
I224
tp41
a(S'w'
I2
tp42
a(S'p2_ll'
I16
tp43
a(S'w'
I11
tp44
a(S'tr_tl'
I144
tp45
a(S'w'
I1
tp46
a(S'tr_ll'
I16
tp47
a(S'w'
I2175
tp48
a(S'w'
I2
tp49
a(S'p1_ll'
I18
tp50
a(S'w'
I11
tp51
a(S'p2_tl'
I16
tp52
a(S'w'
I1
tp53
a(S'p2_ll'
I16
tp54
a(S'p2_th'
I3
tp55
a(S'w'
I11
tp56
a(S'tr_tl'
I184
tp57
a(S'w'
I2
tp58
a(S'tr_ll'
I16
tp59
a(S'w'
I2174
tp60
a(S'w'
I2
tp61
a(S'p1_ll'
I24
tp62
a(S'w'
I11
tp63
a(S'p2_tl'
I64
tp64
a(S'w'
I1
tp65
a(S'p2_ll'
I16
tp66
a(S'w'
I11
tp67
a(S'tr_tl'
I224
tp68
a(S'w'
I2
tp69
a(S'tr_ll'
I16
tp70
a(S'w'
I2175
tp71
a(S'w'
I1
tp72
a(S'p1_ll'
I30
tp73
a(S'w'
I11
tp74
a(S'p2_tl'
I112
tp75
a(S'w'
I2
tp76
a(S'p2_ll'
I16
tp77
a(S'w'
I11
tp78
a(S'tr_tl'
I16
tp79
a(S'w'
I1
tp80
a(S'tr_ll'
I16
tp81
a(S'tr_th'
I3
tp82
a(S'w'
I2175
tp83
a(S'w'
I2
tp84
a(S'p1_ll'
I24
tp85
a(S'w'
I11
tp86
a(S'p2_tl'
I64
tp87
a(S'w'
I1
tp88
a(S'p2_ll'
I16
tp89
a(S'w'
I11
tp90
a(S'tr_tl'
I224
tp91
a(S'w'
I1
tp92
a(S'tr_ll'
I16
tp93
a(S'tr_th'
I2
tp94
a(S'w'
I2175
tp95
a(S'w'
I2
tp96
a(S'p1_ll'
I28
tp97
a(S'w'
I11
tp98
a(S'p2_tl'
I224
tp99
a(S'w'
I2
tp100
a(S'p2_ll'
I16
tp101
a(S'p2_th'
I2
tp102
a(S'w'
I10
tp103
a(S'tr_tl'
I144
tp104
a(S'w'
I2
tp105
a(S'tr_ll'
I16
tp106
a(S'w'
I2175
tp107
a(S'w'
I1
tp108
a(S'p1_ll'
I18
tp109
a(S'w'
I11
tp110
a(S'p2_tl'
I16
tp111
a(S'w'
I2
tp112
a(S'p2_ll'
I16
tp113
a(S'p2_th'
I3
tp114
a(S'w'
I11
tp115
a(S'tr_tl'
I184
tp116
a(S'w'
I1
tp117
a(S'tr_ll'
I16
tp118
a(S'w'
I2175
tp119
a(S'w'
I2
tp120
a(S'p1_ll'
I30
tp121
a(S'w'
I11
tp122
a(S'p2_tl'
I112
tp123
a(S'w'
I1
tp124
a(S'p2_ll'
I16
tp125
a(S'w'
I11
tp126
a(S'tr_tl'
I16
tp127
a(S'w'
I2
tp128
a(S'tr_ll'
I16
tp129
a(S'tr_th'
I3
tp130
a(S'w'
I2175
tp131
a(S'p1_tl'
I2
tp132
a(S'w'
I1
tp133
a(S'p1_ll'
I23
tp134
a(S'w'
I11
tp135
a(S'p2_tl'
I184
tp136
a(S'w'
I2
tp137
a(S'p2_ll'
I16
tp138
a(S'p2_th'
I2
tp139
a(S'w'
I11
tp140
a(S'tr_tl'
I104
tp141
a(S'w'
I1
tp142
a(S'tr_ll'
I16
tp143
a(S'tr_th'
I2
tp144
a(S'w'
I2175
tp145
a(S'p1_tl'
I3
tp146
a(S'w'
I2
tp147
a(S'p1_ll'
I28
tp148
a(S'w'
I11
tp149
a(S'p2_tl'
I224
tp150
a(S'w'
I1
tp151
a(S'p2_ll'
I16
tp152
a(S'w'
I11
tp153
a(S'tr_tl'
I144
tp154
a(S'w'
I2
tp155
a(S'tr_ll'
I16
tp156
a(S'w'
I2174
tp157
a(S'w'
I2
tp158
a(S'p1_ll'
I18
tp159
a(S'w'
I11
tp160
a(S'p2_tl'
I16
tp161
a(S'w'
I1
tp162
a(S'p2_ll'
I16
tp163
a(S'p2_th'
I3
tp164
a(S'w'
I11
tp165
a(S'tr_tl'
I184
tp166
a(S'w'
I2
tp167
a(S'tr_ll'
I16
tp168
a(S'w'
I2175
tp169
a(S'w'
I1
tp170
a(S'p1_ll'
I24
tp171
a(S'w'
I11
tp172
a(S'p2_tl'
I64
tp173
a(S'w'
I2
tp174
a(S'p2_ll'
I16
tp175
a(S'w'
I11
tp176
a(S'tr_tl'
I224
tp177
a(S'w'
I1
tp178
a(S'tr_ll'
I16
tp179
a(S'w'
I2175
tp180
a(S'w'
I2
tp181
a(S'p1_ll'
I30
tp182
a(S'w'
I11
tp183
a(S'p2_tl'
I112
tp184
a(S'w'
I1
tp185
a(S'p2_ll'
I16
tp186
a(S'w'
I11
tp187
a(S'tr_tl'
I16
tp188
a(S'w'
I2
tp189
a(S'tr_ll'
I16
tp190
a(S'tr_th'
I3
tp191
a(S'w'
I2175
tp192
a(S'w'
I1
tp193
a(S'p1_ll'
I24
tp194
a(S'w'
I11
tp195
a(S'p2_tl'
I64
tp196
a(S'w'
I2
tp197
a(S'p2_ll'
I16
tp198
a(S'w'
I11
tp199
a(S'tr_tl'
I224
tp200
a(S'w'
I1
tp201
a(S'tr_ll'
I16
tp202
a(S'tr_th'
I2
tp203
a(S'w'
I2175
tp204
a(S'w'
I2
tp205
a(S'p1_ll'
I28
tp206
a(S'w'
I11
tp207
a(S'p2_tl'
I224
tp208
a(S'w'
I1
tp209
a(S'p2_ll'
I16
tp210
a(S'p2_th'
I2
tp211
a(S'w'
I11
tp212
a(S'tr_tl'
I144
tp213
a(S'w'
I2
tp214
a(S'tr_ll'
I16
tp215
a(S'w'
I2175
tp216
a(S'w'
I1
tp217
a(S'p1_ll'
I18
tp218
a(S'w'
I11
tp219
a(S'p2_tl'
I16
tp220
a(S'w'
I2
tp221
a(S'p2_ll'
I16
tp222
a(S'p2_th'
I3
tp223
a(S'w'
I11
tp224
a(S'tr_tl'
I184
tp225
a(S'w'
I1
tp226
a(S'tr_ll'
I16
tp227
a(S'w'
I2175
tp228
a(S'w'
I1
tp229
a(S'p1_ll'
I30
tp230
a(S'w'
I11
tp231
a(S'p2_tl'
I112
tp232
a(S'w'
I2
tp233
a(S'p2_ll'
I16
tp234
a(S'w'
I11
tp235
a(S'tr_tl'
I16
tp236
a(S'w'
I1
tp237
a(S'tr_ll'
I16
tp238
a(S'tr_th'
I3
tp239
a(S'w'
I2175
tp240
a(S'p1_tl'
I2
tp241
a(S'w'
I2
tp242
a(S'p1_ll'
I23
tp243
a(S'w'
I11
tp244
a(S'p2_tl'
I184
tp245
a(S'w'
I1
tp246
a(S'p2_ll'
I16
tp247
a(S'p2_th'
I2
tp248
a(S'w'
I11
tp249
a(S'tr_tl'
I104
tp250
a(S'w'
I2
tp251
a(S'tr_ll'
I16
tp252
a(S'tr_th'
I2
tp253
a(S'w'
I2175
tp254
a(S'p1_tl'
I3
tp255
a(S'w'
I1
tp256
a(S'p1_ll'
I28
tp257
a(S'w'
I11
tp258
a(S'p2_tl'
I224
tp259
a(S'w'
I2
tp260
a(S'p2_ll'
I16
tp261
a(S'w'
I11
tp262
a(S'tr_tl'
I144
tp263
a(S'w'
I1
tp264
a(S'tr_ll'
I16
tp265
a(S'w'
I2175
tp266
a(S'w'
I2
tp267
a(S'p1_ll'
I18
tp268
a(S'w'
I11
tp269
a(S'p2_tl'
I16
tp270
a(S'w'
I1
tp271
a(S'p2_ll'
I16
tp272
a(S'p2_th'
I3
tp273
a(S'w'
I11
tp274
a(S'tr_tl'
I184
tp275
a(S'w'
I2
tp276
a(S'tr_ll'
I16
tp277
a(S'w'
I2175
tp278
a(S'w'
I1
tp279
a(S'p1_ll'
I24
tp280
a(S'w'
I11
tp281
a(S'p2_tl'
I64
tp282
a(S'w'
I2
tp283
a(S'p2_ll'
I16
tp284
a(S'w'
I10
tp285
a(S'tr_tl'
I224
tp286
a(S'w'
I2
tp287
a(S'tr_ll'
I16
tp288
a(S'w'
I2175
tp289
a(S'w'
I1
tp290
a(S'p1_ll'
I30
tp291
a(S'w'
I12
tp292
a(S'p2_tl'
I112
tp293
a(S'w'
I1
tp294
a(S'p2_ll'
I16
tp295
a(S'w'
I11
tp296
a(S'tr_tl'
I16
tp297
a(S'w'
I1
tp298
a(S'tr_ll'
I16
tp299
a(S'tr_th'
I3
tp300
a(S'w'
I2175
tp301
a(S'w'
I2
tp302
a(S'p1_ll'
I24
tp303
a(S'w'
I11
tp304
a(S'p2_tl'
I64
tp305
a(S'w'
I1
tp306
a(S'p2_ll'
I16
tp307
a(S'w'
I11
tp308
a(S'tr_tl'
I224
tp309
a(S'w'
I2
tp310
a(S'tr_ll'
I16
tp311
a(S'tr_th'
I2
tp312
a(S'w'
I2175
tp313
a(S'w'
I1
tp314
a(S'p1_ll'
I28
tp315
a(S'w'
I11
tp316
a(S'p2_tl'
I224
tp317
a(S'w'
I2
tp318
a(S'p2_ll'
I16
tp319
a(S'p2_th'
I2
tp320
a(S'w'
I11
tp321
a(S'tr_tl'
I144
tp322
a(S'w'
I1
tp323
a(S'tr_ll'
I16
tp324
a(S'w'
I2175
tp325
a(S'w'
I2
tp326
a(S'p1_ll'
I18
tp327
a(S'w'
I11
tp328
a(S'p2_tl'
I16
tp329
a(S'w'
I1
tp330
a(S'p2_ll'
I16
tp331
a(S'p2_th'
I3
tp332
a(S'w'
I11
tp333
a(S'tr_tl'
I184
tp334
a(S'w'
I2
tp335
a(S'tr_ll'
I16
tp336
a(S'w'
I2175
tp337
a(S'w'
I1
tp338
a(S'p1_ll'
I30
tp339
a(S'w'
I11
tp340
a(S'p2_tl'
I112
tp341
a(S'w'
I2
tp342
a(S'p2_ll'
I16
tp343
a(S'w'
I10
tp344
a(S'tr_tl'
I16
tp345
a(S'w'
I2
tp346
a(S'tr_ll'
I16
tp347
a(S'tr_th'
I3
tp348
a(S'w'
I2174
tp349
a(S'p1_tl'
I0
tp350
a(S'w'
I1
tp351
a(S'p1_ll'
I16
tp352
a(S'w'
I10
tp353
a(S'p2_tl'
I0
tp354
a(S'w'
I2
tp355
a(S'p2_ll'
I16
tp356
a(S'p2_th'
I0
tp357
a(S'w'
I9
tp358
a(S'tr_tl'
I0
tp359
a(S'w'
I2
tp360
a(S'tr_ll'
I16
tp361
a(S'tr_th'
I0
tp362
a(S'w'
I2175
tp363
a(S'p1_du'
I0
tp364
a(S'p1_vo'
I0
tp365
a(S'w'
I5
tp366
a(S'p2_du'
I0
tp367
a(S'p2_vo'
I0
tp368
a(S'w'
I5
tp369
a(S'tr_lr'
I0
tp370
a(S'w'
I1
tp371
a.