(lp1
(S'clock'
p2
I1789772
tp3
a(S'p1_du'
I1
tp4
a(S'p1_vo'
I8
tp5
a(S'p1_ll'
I18
tp6
a(S'p2_du'
I1
tp7
a(S'p2_vo'
I8
tp8
a(S'p2_ll'
I18
tp9
a(S'tr_lr'
I37
tp10
a(S'tr_ll'
I18
tp11
a(S'ch_no'
I1
tp12
a(S'ch_tr'
I1
tp13
a(S'ch_p2'
I1
tp14
a(S'ch_p1'
I1
tp15
a(S'fc_mo'
I1
tp16
a(S'p1_vo'
I13
tp17
a(S'w'
I3
tp18
a(S'p1_tl'
I116
tp19
a(S'w'
I2
tp20
a(S'p1_ll'
I24
tp21
a(S'w'
I20
tp22
a(S'p2_vo'
I6
tp23
a(S'w'
I3
tp24
a(S'p2_tl'
I232
tp25
a(S'w'
I1
tp26
a(S'p2_ll'
I24
tp27
a(S'w'
I20
tp28
a(S'tr_lr'
I48
tp29
a(S'w'
I3
tp30
a(S'tr_tl'
I232
tp31
a(S'w'
I1
tp32
a(S'tr_ll'
I18
tp33
a(S'w'
I4078
tp34
a(S'tr_ll'
I18
tp35
a(S'w'
I4401
tp36
a(S'tr_tl'
I154
tp37
a(S'w'
I2
tp38
a(S'tr_ll'
I18
tp39
a(S'w'
I4401
tp40
a(S'tr_tl'
I146
tp41
a(S'w'
I2
tp42
a(S'tr_ll'
I18
tp43
a(S'w'
I4401
tp44
a(S'tr_tl'
I196
tp45
a(S'w'
I1
tp46
a(S'tr_ll'
I18
tp47
a(S'w'
I4402
tp48
a(S'tr_tl'
I208
tp49
a(S'w'
I1
tp50
a(S'tr_ll'
I18
tp51
a(S'w'
I4401
tp52
a(S'tr_tl'
I154
tp53
a(S'w'
I2
tp54
a(S'tr_ll'
I18
tp55
a(S'w'
I4401
tp56
a(S'tr_tl'
I196
tp57
a(S'w'
I2
tp58
a(S'tr_ll'
I18
tp59
a(S'w'
I4401
tp60
a(S'tr_tl'
I232
tp61
a(S'w'
I2
tp62
a(S'tr_ll'
I18
tp63
a(S'w'
I4402
tp64
a(S'tr_ll'
I18
tp65
a(S'w'
I4402
tp66
a(S'tr_tl'
I154
tp67
a(S'w'
I1
tp68
a(S'tr_ll'
I18
tp69
a(S'w'
I4402
tp70
a(S'tr_tl'
I146
tp71
a(S'w'
I1
tp72
a(S'tr_ll'
I18
tp73
a(S'w'
I4396
tp74
a(S'w'
I2
tp75
a(S'p1_ll'
I20
tp76
a(S'w'
I11
tp77
a(S'w'
I1
tp78
a(S'p2_ll'
I20
tp79
a(S'w'
I11
tp80
a(S'tr_tl'
I196
tp81
a(S'w'
I2
tp82
a(S'tr_ll'
I18
tp83
a(S'w'
I4381
tp84
a(S'tr_tl'
I208
tp85
a(S'w'
I2
tp86
a(S'tr_ll'
I18
tp87
a(S'w'
I4397
tp88
a(S'p1_tl'
I123
tp89
a(S'w'
I1
tp90
a(S'p1_ll'
I24
tp91
a(S'w'
I12
tp92
a(S'p2_tl'
I246
tp93
a(S'w'
I2
tp94
a(S'p2_ll'
I24
tp95
a(S'w'
I11
tp96
a(S'tr_tl'
I154
tp97
a(S'w'
I2
tp98
a(S'tr_ll'
I18
tp99
a(S'w'
I4379
tp100
a(S'tr_tl'
I196
tp101
a(S'w'
I1
tp102
a(S'tr_ll'
I18
tp103
a(S'w'
I4402
tp104
a(S'tr_tl'
I246
tp105
a(S'w'
I1
tp106
a(S'tr_ll'
I18
tp107
a(S'w'
I4400
tp108
a(S'tr_tl'
I0
tp109
a(S'w'
I2
tp110
a(S'tr_ll'
I18
tp111
a(S'w'
I4402
tp112
a(S'tr_tl'
I164
tp113
a(S'w'
I2
tp114
a(S'tr_ll'
I18
tp115
a(S'w'
I4400
tp116
a(S'tr_tl'
I0
tp117
a(S'w'
I1
tp118
a(S'tr_ll'
I18
tp119
a(S'w'
I4403
tp120
a(S'tr_tl'
I196
tp121
a(S'w'
I1
tp122
a(S'tr_ll'
I18
tp123
a(S'w'
I4400
tp124
a(S'tr_tl'
I0
tp125
a(S'w'
I2
tp126
a(S'tr_ll'
I18
tp127
a(S'w'
I4402
tp128
a(S'tr_tl'
I164
tp129
a(S'w'
I2
tp130
a(S'tr_ll'
I18
tp131
a(S'w'
I4400
tp132
a(S'tr_tl'
I0
tp133
a(S'w'
I1
tp134
a(S'tr_ll'
I18
tp135
a(S'w'
I4403
tp136
a(S'tr_tl'
I246
tp137
a(S'w'
I2
tp138
a(S'tr_ll'
I18
tp139
a(S'w'
I4400
tp140
a(S'tr_tl'
I0
tp141
a(S'w'
I1
tp142
a(S'tr_ll'
I18
tp143
a(S'w'
I4396
tp144
a(S'p1_tl'
I0
tp145
a(S'w'
I2
tp146
a(S'p1_ll'
I20
tp147
a(S'w'
I10
tp148
a(S'p2_tl'
I0
tp149
a(S'w'
I1
tp150
a(S'p2_ll'
I20
tp151
a(S'w'
I11
tp152
a(S'tr_tl'
I164
tp153
a(S'w'
I1
tp154
a(S'tr_ll'
I18
tp155
a(S'w'
I4383
tp156
a(S'tr_tl'
I0
tp157
a(S'w'
I2
tp158
a(S'tr_ll'
I18
tp159
a(S'w'
I4397
tp160
a(S'p1_tl'
I123
tp161
a(S'w'
I2
tp162
a(S'p1_ll'
I20
tp163
a(S'w'
I11
tp164
a(S'p2_tl'
I246
tp165
a(S'w'
I1
tp166
a(S'p2_ll'
I20
tp167
a(S'w'
I11
tp168
a(S'tr_tl'
I208
tp169
a(S'w'
I1
tp170
a(S'tr_ll'
I18
tp171
a(S'w'
I4381
tp172
a(S'tr_tl'
I0
tp173
a(S'w'
I1
tp174
a(S'tr_ll'
I18
tp175
a(S'w'
I4398
tp176
a(S'p1_tl'
I130
tp177
a(S'w'
I1
tp178
a(S'p1_ll'
I20
tp179
a(S'w'
I11
tp180
a(S'p2_tl'
I4
tp181
a(S'w'
I2
tp182
a(S'p2_ll'
I20
tp183
a(S'p2_th'
I1
tp184
a(S'w'
I11
tp185
a(S'tr_tl'
I164
tp186
a(S'w'
I1
tp187
a(S'tr_ll'
I18
tp188
a(S'w'
I4381
tp189
a(S'tr_tl'
I0
tp190
a(S'w'
I1
tp191
a(S'tr_ll'
I18
tp192
a(S'w'
I4396
tp193
a(S'p1_tl'
I0
tp194
a(S'w'
I2
tp195
a(S'p1_ll'
I20
tp196
a(S'w'
I9
tp197
a(S'p2_tl'
I0
tp198
a(S'w'
I2
tp199
a(S'p2_ll'
I20
tp200
a(S'p2_th'
I0
tp201
a(S'w'
I11
tp202
a(S'tr_tl'
I4
tp203
a(S'w'
I1
tp204
a(S'tr_ll'
I18
tp205
a(S'tr_th'
I1
tp206
a(S'w'
I4384
tp207
a(S'tr_tl'
I208
tp208
a(S'w'
I2
tp209
a(S'tr_ll'
I18
tp210
a(S'tr_th'
I0
tp211
a(S'w'
I4396
tp212
a(S'p1_tl'
I130
tp213
a(S'w'
I1
tp214
a(S'p1_ll'
I20
tp215
a(S'w'
I11
tp216
a(S'p2_tl'
I4
tp217
a(S'w'
I2
tp218
a(S'p2_ll'
I20
tp219
a(S'p2_th'
I1
tp220
a(S'w'
I11
tp221
a(S'tr_tl'
I174
tp222
a(S'w'
I1
tp223
a(S'tr_ll'
I18
tp224
a(S'w'
I4382
tp225
a(S'tr_tl'
I208
tp226
a(S'w'
I2
tp227
a(S'tr_ll'
I18
tp228
a(S'w'
I4396
tp229
a(S'p1_tl'
I174
tp230
a(S'w'
I1
tp231
a(S'p1_ll'
I20
tp232
a(S'w'
I11
tp233
a(S'p2_tl'
I92
tp234
a(S'w'
I2
tp235
a(S'p2_ll'
I20
tp236
a(S'w'
I12
tp237
a(S'tr_ll'
I18
tp238
a(S'w'
I4383
tp239
a(S'tr_ll'
I18
tp240
a(S'w'
I4396
tp241
a(S'p1_tl'
I130
tp242
a(S'w'
I2
tp243
a(S'p1_ll'
I20
tp244
a(S'w'
I11
tp245
a(S'p2_tl'
I4
tp246
a(S'w'
I1
tp247
a(S'p2_ll'
I20
tp248
a(S'w'
I11
tp249
a(S'tr_tl'
I174
tp250
a(S'w'
I2
tp251
a(S'tr_ll'
I18
tp252
a(S'w'
I4381
tp253
a(S'tr_tl'
I208
tp254
a(S'w'
I2
tp255
a(S'tr_ll'
I18
tp256
a(S'w'
I4395
tp257
a(S'p1_tl'
I0
tp258
a(S'w'
I1
tp259
a(S'p1_ll'
I20
tp260
a(S'w'
I10
tp261
a(S'p2_tl'
I0
tp262
a(S'w'
I1
tp263
a(S'p2_ll'
I20
tp264
a(S'p2_th'
I0
tp265
a(S'w'
I11
tp266
a(S'tr_tl'
I246
tp267
a(S'w'
I2
tp268
a(S'tr_ll'
I18
tp269
a(S'w'
I4383
tp270
a(S'tr_tl'
I0
tp271
a(S'w'
I1
tp272
a(S'tr_ll'
I18
tp273
a(S'w'
I4397
tp274
a(S'p1_tl'
I123
tp275
a(S'w'
I2
tp276
a(S'p1_ll'
I20
tp277
a(S'w'
I11
tp278
a(S'p2_tl'
I246
tp279
a(S'w'
I1
tp280
a(S'p2_ll'
I20
tp281
a(S'w'
I11
tp282
a(S'tr_tl'
I164
tp283
a(S'w'
I2
tp284
a(S'tr_ll'
I18
tp285
a(S'w'
I4380
tp286
a(S'tr_tl'
I0
tp287
a(S'w'
I2
tp288
a(S'tr_ll'
I18
tp289
a(S'w'
I4397
tp290
a(S'p1_tl'
I196
tp291
a(S'w'
I2
tp292
a(S'p1_ll'
I20
tp293
a(S'w'
I11
tp294
a(S'p2_tl'
I136
tp295
a(S'w'
I1
tp296
a(S'p2_ll'
I20
tp297
a(S'p2_th'
I1
tp298
a(S'w'
I11
tp299
a(S'tr_tl'
I196
tp300
a(S'w'
I1
tp301
a(S'tr_ll'
I18
tp302
a(S'w'
I4381
tp303
a(S'tr_tl'
I0
tp304
a(S'w'
I1
tp305
a(S'tr_ll'
I18
tp306
a(S'w'
I4398
tp307
a(S'p1_tl'
I123
tp308
a(S'w'
I1
tp309
a(S'p1_ll'
I20
tp310
a(S'w'
I11
tp311
a(S'p2_tl'
I246
tp312
a(S'w'
I2
tp313
a(S'p2_ll'
I20
tp314
a(S'p2_th'
I0
tp315
a(S'w'
I11
tp316
a(S'tr_tl'
I164
tp317
a(S'w'
I1
tp318
a(S'tr_ll'
I18
tp319
a(S'w'
I4380
tp320
a(S'tr_tl'
I0
tp321
a(S'w'
I2
tp322
a(S'tr_ll'
I18
tp323
a(S'w'
I4396
tp324
a(S'p1_tl'
I0
tp325
a(S'w'
I2
tp326
a(S'p1_ll'
I20
tp327
a(S'w'
I9
tp328
a(S'p2_tl'
I0
tp329
a(S'w'
I2
tp330
a(S'p2_ll'
I20
tp331
a(S'w'
I11
tp332
a(S'tr_tl'
I232
tp333
a(S'w'
I1
tp334
a(S'tr_ll'
I18
tp335
a(S'w'
I4384
tp336
a(S'tr_tl'
I116
tp337
a(S'w'
I2
tp338
a(S'tr_ll'
I18
tp339
a(S'w'
I4396
tp340
a(S'p1_tl'
I116
tp341
a(S'w'
I1
tp342
a(S'p1_ll'
I20
tp343
a(S'w'
I11
tp344
a(S'p2_tl'
I232
tp345
a(S'w'
I2
tp346
a(S'p2_ll'
I20
tp347
a(S'w'
I11
tp348
a(S'tr_tl'
I196
tp349
a(S'w'
I1
tp350
a(S'tr_ll'
I18
tp351
a(S'w'
I4382
tp352
a(S'tr_tl'
I98
tp353
a(S'w'
I1
tp354
a(S'tr_ll'
I18
tp355
a(S'w'
I4397
tp356
a(S'p1_tl'
I154
tp357
a(S'w'
I1
tp358
a(S'p1_ll'
I20
tp359
a(S'w'
I11
tp360
a(S'p2_tl'
I52
tp361
a(S'w'
I2
tp362
a(S'p2_ll'
I20
tp363
a(S'p2_th'
I1
tp364
a(S'w'
I10
tp365
a(S'tr_tl'
I246
tp366
a(S'w'
I2
tp367
a(S'tr_ll'
I18
tp368
a(S'w'
I4381
tp369
a(S'tr_tl'
I123
tp370
a(S'w'
I2
tp371
a(S'tr_ll'
I18
tp372
a(S'w'
I4396
tp373
a(S'p1_tl'
I116
tp374
a(S'w'
I2
tp375
a(S'p1_ll'
I20
tp376
a(S'w'
I11
tp377
a(S'p2_tl'
I232
tp378
a(S'w'
I1
tp379
a(S'p2_ll'
I20
tp380
a(S'p2_th'
I0
tp381
a(S'w'
I11
tp382
a(S'tr_tl'
I232
tp383
a(S'w'
I2
tp384
a(S'tr_ll'
I18
tp385
a(S'w'
I4381
tp386
a(S'tr_tl'
I116
tp387
a(S'w'
I2
tp388
a(S'tr_ll'
I18
tp389
a(S'w'
I4395
tp390
a(S'p1_tl'
I0
tp391
a(S'w'
I1
tp392
a(S'p1_ll'
I20
tp393
a(S'w'
I10
tp394
a(S'p2_tl'
I0
tp395
a(S'w'
I1
tp396
a(S'p2_ll'
I20
tp397
a(S'w'
I11
tp398
a(S'tr_tl'
I232
tp399
a(S'w'
I2
tp400
a(S'tr_ll'
I18
tp401
a(S'w'
I4384
tp402
a(S'tr_tl'
I116
tp403
a(S'w'
I1
tp404
a(S'tr_ll'
I18
tp405
a(S'w'
I4396
tp406
a(S'p1_tl'
I98
tp407
a(S'w'
I2
tp408
a(S'p1_ll'
I20
tp409
a(S'w'
I11
tp410
a(S'p2_tl'
I52
tp411
a(S'w'
I1
tp412
a(S'p2_ll'
I20
tp413
a(S'p2_th'
I1
tp414
a(S'w'
I13
tp415
a(S'tr_ll'
I20
tp416
a(S'w'
I8779
tp417
a(S'w'
I1
tp418
a(S'p1_ll'
I20
tp419
a(S'w'
I12
tp420
a(S'w'
I1
tp421
a(S'p2_ll'
I20
tp422
a(S'w'
I12
tp423
a(S'tr_ll'
I20
tp424
a(S'w'
I8780
tp425
a(S'w'
I1
tp426
a(S'p1_ll'
I20
tp427
a(S'w'
I11
tp428
a(S'w'
I2
tp429
a(S'p2_ll'
I20
tp430
a(S'w'
I12
tp431
a(S'tr_ll'
I20
tp432
a(S'w'
I8780
tp433
a(S'p1_tl'
I116
tp434
a(S'w'
I1
tp435
a(S'p1_ll'
I24
tp436
a(S'w'
I13
tp437
a(S'p2_tl'
I232
tp438
a(S'w'
I1
tp439
a(S'p2_ll'
I24
tp440
a(S'p2_th'
I0
tp441
a(S'w'
I12
tp442
a(S'tr_tl'
I232
tp443
a(S'w'
I1
tp444
a(S'tr_ll'
I18
tp445
a(S'w'
I4381
tp446
a(S'tr_ll'
I18
tp447
a(S'w'
I4401
tp448
a(S'tr_tl'
I154
tp449
a(S'w'
I1
tp450
a(S'tr_ll'
I18
tp451
a(S'w'
I4402
tp452
a(S'tr_tl'
I146
tp453
a(S'w'
I1
tp454
a(S'tr_ll'
I18
tp455
a(S'w'
I4402
tp456
a(S'tr_tl'
I196
tp457
a(S'w'
I1
tp458
a(S'tr_ll'
I18
tp459
a(S'w'
I4401
tp460
a(S'tr_tl'
I208
tp461
a(S'w'
I2
tp462
a(S'tr_ll'
I18
tp463
a(S'w'
I4401
tp464
a(S'tr_tl'
I154
tp465
a(S'w'
I2
tp466
a(S'tr_ll'
I18
tp467
a(S'w'
I4401
tp468
a(S'tr_tl'
I196
tp469
a(S'w'
I1
tp470
a(S'tr_ll'
I18
tp471
a(S'w'
I4402
tp472
a(S'tr_tl'
I232
tp473
a(S'w'
I1
tp474
a(S'tr_ll'
I18
tp475
a(S'w'
I4403
tp476
a(S'tr_ll'
I18
tp477
a(S'w'
I4402
tp478
a(S'tr_tl'
I154
tp479
a(S'w'
I1
tp480
a(S'tr_ll'
I18
tp481
a(S'w'
I4401
tp482
a(S'tr_tl'
I146
tp483
a(S'w'
I2
tp484
a(S'tr_ll'
I18
tp485
a(S'w'
I4396
tp486
a(S'w'
I1
tp487
a(S'p1_ll'
I20
tp488
a(S'w'
I11
tp489
a(S'w'
I2
tp490
a(S'p2_ll'
I20
tp491
a(S'w'
I11
tp492
a(S'tr_tl'
I196
tp493
a(S'w'
I1
tp494
a(S'tr_ll'
I18
tp495
a(S'w'
I4382
tp496
a(S'tr_tl'
I208
tp497
a(S'w'
I1
tp498
a(S'tr_ll'
I18
tp499
a(S'w'
I4397
tp500
a(S'p1_tl'
I123
tp501
a(S'w'
I2
tp502
a(S'p1_ll'
I24
tp503
a(S'w'
I12
tp504
a(S'p2_tl'
I246
tp505
a(S'w'
I1
tp506
a(S'p2_ll'
I24
tp507
a(S'w'
I12
tp508
a(S'tr_tl'
I154
tp509
a(S'w'
I1
tp510
a(S'tr_ll'
I18
tp511
a(S'w'
I4379
tp512
a(S'tr_tl'
I196
tp513
a(S'w'
I2
tp514
a(S'tr_ll'
I18
tp515
a(S'w'
I4401
tp516
a(S'tr_tl'
I246
tp517
a(S'w'
I2
tp518
a(S'tr_ll'
I18
tp519
a(S'w'
I4400
tp520
a(S'tr_tl'
I0
tp521
a(S'w'
I1
tp522
a(S'tr_ll'
I18
tp523
a(S'w'
I4403
tp524
a(S'tr_tl'
I164
tp525
a(S'w'
I2
tp526
a(S'tr_ll'
I18
tp527
a(S'w'
I4400
tp528
a(S'tr_tl'
I0
tp529
a(S'w'
I1
tp530
a(S'tr_ll'
I18
tp531
a(S'w'
I4403
tp532
a(S'tr_tl'
I196
tp533
a(S'w'
I1
tp534
a(S'tr_ll'
I18
tp535
a(S'w'
I4400
tp536
a(S'tr_tl'
I0
tp537
a(S'w'
I2
tp538
a(S'tr_ll'
I18
tp539
a(S'w'
I4402
tp540
a(S'tr_tl'
I164
tp541
a(S'w'
I2
tp542
a(S'tr_ll'
I18
tp543
a(S'w'
I4400
tp544
a(S'tr_tl'
I0
tp545
a(S'w'
I1
tp546
a(S'tr_ll'
I18
tp547
a(S'w'
I4403
tp548
a(S'tr_tl'
I246
tp549
a(S'w'
I1
tp550
a(S'tr_ll'
I18
tp551
a(S'w'
I4400
tp552
a(S'tr_tl'
I0
tp553
a(S'w'
I2
tp554
a(S'tr_ll'
I18
tp555
a(S'w'
I4396
tp556
a(S'p1_tl'
I0
tp557
a(S'w'
I2
tp558
a(S'p1_ll'
I20
tp559
a(S'w'
I9
tp560
a(S'p2_tl'
I0
tp561
a(S'w'
I2
tp562
a(S'p2_ll'
I20
tp563
a(S'w'
I11
tp564
a(S'tr_tl'
I164
tp565
a(S'w'
I1
tp566
a(S'tr_ll'
I18
tp567
a(S'w'
I4383
tp568
a(S'tr_tl'
I0
tp569
a(S'w'
I2
tp570
a(S'tr_ll'
I18
tp571
a(S'w'
I4397
tp572
a(S'p1_tl'
I123
tp573
a(S'w'
I1
tp574
a(S'p1_ll'
I20
tp575
a(S'w'
I11
tp576
a(S'p2_tl'
I246
tp577
a(S'w'
I2
tp578
a(S'p2_ll'
I20
tp579
a(S'w'
I11
tp580
a(S'tr_tl'
I208
tp581
a(S'w'
I1
tp582
a(S'tr_ll'
I18
tp583
a(S'w'
I4381
tp584
a(S'tr_tl'
I0
tp585
a(S'w'
I1
tp586
a(S'tr_ll'
I18
tp587
a(S'w'
I4398
tp588
a(S'p1_tl'
I130
tp589
a(S'w'
I1
tp590
a(S'p1_ll'
I20
tp591
a(S'w'
I11
tp592
a(S'p2_tl'
I4
tp593
a(S'w'
I2
tp594
a(S'p2_ll'
I20
tp595
a(S'p2_th'
I1
tp596
a(S'w'
I11
tp597
a(S'tr_tl'
I164
tp598
a(S'w'
I1
tp599
a(S'tr_ll'
I18
tp600
a(S'w'
I4380
tp601
a(S'tr_tl'
I0
tp602
a(S'w'
I2
tp603
a(S'tr_ll'
I18
tp604
a(S'w'
I4396
tp605
a(S'p1_tl'
I0
tp606
a(S'w'
I1
tp607
a(S'p1_ll'
I20
tp608
a(S'w'
I10
tp609
a(S'p2_tl'
I0
tp610
a(S'w'
I2
tp611
a(S'p2_ll'
I20
tp612
a(S'p2_th'
I0
tp613
a(S'w'
I11
tp614
a(S'tr_tl'
I4
tp615
a(S'w'
I1
tp616
a(S'tr_ll'
I18
tp617
a(S'tr_th'
I1
tp618
a(S'w'
I4384
tp619
a(S'tr_tl'
I208
tp620
a(S'w'
I2
tp621
a(S'tr_ll'
I18
tp622
a(S'tr_th'
I0
tp623
a(S'w'
I4396
tp624
a(S'p1_tl'
I130
tp625
a(S'w'
I1
tp626
a(S'p1_ll'
I20
tp627
a(S'w'
I11
tp628
a(S'p2_tl'
I4
tp629
a(S'w'
I2
tp630
a(S'p2_ll'
I20
tp631
a(S'p2_th'
I1
tp632
a(S'w'
I11
tp633
a(S'tr_tl'
I174
tp634
a(S'w'
I1
tp635
a(S'tr_ll'
I18
tp636
a(S'w'
I4382
tp637
a(S'tr_tl'
I208
tp638
a(S'w'
I1
tp639
a(S'tr_ll'
I18
tp640
a(S'w'
I4396
tp641
a(S'p1_tl'
I174
tp642
a(S'w'
I2
tp643
a(S'p1_ll'
I20
tp644
a(S'w'
I11
tp645
a(S'p2_tl'
I92
tp646
a(S'w'
I1
tp647
a(S'p2_ll'
I20
tp648
a(S'w'
I13
tp649
a(S'tr_ll'
I18
tp650
a(S'w'
I4383
tp651
a(S'tr_ll'
I18
tp652
a(S'w'
I4396
tp653
a(S'p1_tl'
I130
tp654
a(S'w'
I1
tp655
a(S'p1_ll'
I20
tp656
a(S'w'
I11
tp657
a(S'p2_tl'
I4
tp658
a(S'w'
I2
tp659
a(S'p2_ll'
I20
tp660
a(S'w'
I11
tp661
a(S'tr_tl'
I174
tp662
a(S'w'
I1
tp663
a(S'tr_ll'
I18
tp664
a(S'w'
I4382
tp665
a(S'tr_tl'
I208
tp666
a(S'w'
I1
tp667
a(S'tr_ll'
I18
tp668
a(S'w'
I4395
tp669
a(S'p1_tl'
I0
tp670
a(S'w'
I2
tp671
a(S'p1_ll'
I20
tp672
a(S'w'
I10
tp673
a(S'p2_tl'
I0
tp674
a(S'w'
I1
tp675
a(S'p2_ll'
I20
tp676
a(S'p2_th'
I0
tp677
a(S'w'
I11
tp678
a(S'tr_tl'
I246
tp679
a(S'w'
I2
tp680
a(S'tr_ll'
I18
tp681
a(S'w'
I4382
tp682
a(S'tr_tl'
I0
tp683
a(S'w'
I2
tp684
a(S'tr_ll'
I18
tp685
a(S'w'
I4397
tp686
a(S'p1_tl'
I123
tp687
a(S'w'
I2
tp688
a(S'p1_ll'
I20
tp689
a(S'w'
I11
tp690
a(S'p2_tl'
I246
tp691
a(S'w'
I1
tp692
a(S'p2_ll'
I20
tp693
a(S'w'
I11
tp694
a(S'tr_tl'
I164
tp695
a(S'w'
I2
tp696
a(S'tr_ll'
I18
tp697
a(S'w'
I4380
tp698
a(S'tr_tl'
I0
tp699
a(S'w'
I2
tp700
a(S'tr_ll'
I18
tp701
a(S'w'
I4397
tp702
a(S'p1_tl'
I196
tp703
a(S'w'
I1
tp704
a(S'p1_ll'
I20
tp705
a(S'w'
I11
tp706
a(S'p2_tl'
I136
tp707
a(S'w'
I2
tp708
a(S'p2_ll'
I20
tp709
a(S'p2_th'
I1
tp710
a(S'w'
I11
tp711
a(S'tr_tl'
I196
tp712
a(S'w'
I1
tp713
a(S'tr_ll'
I18
tp714
a(S'w'
I4381
tp715
a(S'tr_tl'
I0
tp716
a(S'w'
I1
tp717
a(S'tr_ll'
I18
tp718
a(S'w'
I4397
tp719
a(S'p1_tl'
I123
tp720
a(S'w'
I2
tp721
a(S'p1_ll'
I20
tp722
a(S'w'
I11
tp723
a(S'p2_tl'
I246
tp724
a(S'w'
I1
tp725
a(S'p2_ll'
I20
tp726
a(S'p2_th'
I0
tp727
a(S'w'
I11
tp728
a(S'tr_tl'
I164
tp729
a(S'w'
I2
tp730
a(S'tr_ll'
I18
tp731
a(S'w'
I4380
tp732
a(S'tr_tl'
I0
tp733
a(S'w'
I2
tp734
a(S'tr_ll'
I18
tp735
a(S'w'
I4396
tp736
a(S'p1_tl'
I0
tp737
a(S'w'
I1
tp738
a(S'p1_ll'
I20
tp739
a(S'w'
I10
tp740
a(S'p2_tl'
I0
tp741
a(S'w'
I2
tp742
a(S'p2_ll'
I20
tp743
a(S'w'
I11
tp744
a(S'tr_tl'
I232
tp745
a(S'w'
I1
tp746
a(S'tr_ll'
I18
tp747
a(S'w'
I4384
tp748
a(S'tr_tl'
I116
tp749
a(S'w'
I1
tp750
a(S'tr_ll'
I18
tp751
a(S'w'
I4397
tp752
a(S'p1_tl'
I116
tp753
a(S'w'
I1
tp754
a(S'p1_ll'
I20
tp755
a(S'w'
I11
tp756
a(S'p2_tl'
I232
tp757
a(S'w'
I2
tp758
a(S'p2_ll'
I20
tp759
a(S'w'
I11
tp760
a(S'tr_tl'
I196
tp761
a(S'w'
I1
tp762
a(S'tr_ll'
I18
tp763
a(S'w'
I4382
tp764
a(S'tr_tl'
I98
tp765
a(S'w'
I1
tp766
a(S'tr_ll'
I18
tp767
a(S'w'
I4396
tp768
a(S'p1_tl'
I154
tp769
a(S'w'
I2
tp770
a(S'p1_ll'
I20
tp771
a(S'w'
I11
tp772
a(S'p2_tl'
I52
tp773
a(S'w'
I1
tp774
a(S'p2_ll'
I20
tp775
a(S'p2_th'
I1
tp776
a(S'w'
I11
tp777
a(S'tr_tl'
I246
tp778
a(S'w'
I2
tp779
a(S'tr_ll'
I18
tp780
a(S'w'
I4381
tp781
a(S'tr_tl'
I123
tp782
a(S'w'
I2
tp783
a(S'tr_ll'
I18
tp784
a(S'w'
I4396
tp785
a(S'p1_tl'
I116
tp786
a(S'w'
I1
tp787
a(S'p1_ll'
I20
tp788
a(S'w'
I11
tp789
a(S'p2_tl'
I232
tp790
a(S'w'
I2
tp791
a(S'p2_ll'
I20
tp792
a(S'p2_th'
I0
tp793
a(S'w'
I11
tp794
a(S'tr_tl'
I232
tp795
a(S'w'
I1
tp796
a(S'tr_ll'
I18
tp797
a(S'w'
I4382
tp798
a(S'tr_tl'
I116
tp799
a(S'w'
I1
tp800
a(S'tr_ll'
I18
tp801
a(S'w'
I4395
tp802
a(S'p1_tl'
I0
tp803
a(S'w'
I2
tp804
a(S'p1_ll'
I20
tp805
a(S'w'
I10
tp806
a(S'p2_tl'
I0
tp807
a(S'w'
I1
tp808
a(S'p2_ll'
I20
tp809
a(S'w'
I11
tp810
a(S'tr_tl'
I232
tp811
a(S'w'
I2
tp812
a(S'tr_ll'
I18
tp813
a(S'w'
I4383
tp814
a(S'tr_tl'
I116
tp815
a(S'w'
I2
tp816
a(S'tr_ll'
I18
tp817
a(S'w'
I4396
tp818
a(S'p1_tl'
I98
tp819
a(S'w'
I2
tp820
a(S'p1_ll'
I20
tp821
a(S'w'
I11
tp822
a(S'p2_tl'
I52
tp823
a(S'w'
I1
tp824
a(S'p2_ll'
I20
tp825
a(S'p2_th'
I1
tp826
a(S'w'
I13
tp827
a(S'tr_ll'
I20
tp828
a(S'w'
I8779
tp829
a(S'w'
I1
tp830
a(S'p1_ll'
I20
tp831
a(S'w'
I11
tp832
a(S'w'
I2
tp833
a(S'p2_ll'
I20
tp834
a(S'w'
I12
tp835
a(S'tr_ll'
I20
tp836
a(S'w'
I8779
tp837
a(S'w'
I2
tp838
a(S'p1_ll'
I20
tp839
a(S'w'
I11
tp840
a(S'w'
I1
tp841
a(S'p2_ll'
I20
tp842
a(S'w'
I13
tp843
a(S'tr_ll'
I20
tp844
a(S'w'
I8786
tp845
a(S'p1_tl'
I104
tp846
a(S'w'
I1
tp847
a(S'p1_ll'
I24
tp848
a(S'w'
I18
tp849
a(S'p2_tl'
I208
tp850
a(S'w'
I1
tp851
a(S'p2_ll'
I24
tp852
a(S'p2_th'
I0
tp853
a(S'w'
I18
tp854
a(S'tr_tl'
I208
tp855
a(S'w'
I1
tp856
a(S'tr_ll'
I18
tp857
a(S'w'
I4364
tp858
a(S'tr_ll'
I18
tp859
a(S'w'
I4401
tp860
a(S'tr_tl'
I138
tp861
a(S'w'
I1
tp862
a(S'tr_ll'
I18
tp863
a(S'w'
I4402
tp864
a(S'tr_tl'
I130
tp865
a(S'w'
I1
tp866
a(S'tr_ll'
I18
tp867
a(S'w'
I4401
tp868
a(S'tr_tl'
I174
tp869
a(S'w'
I2
tp870
a(S'tr_ll'
I18
tp871
a(S'w'
I4401
tp872
a(S'tr_tl'
I184
tp873
a(S'w'
I2
tp874
a(S'tr_ll'
I18
tp875
a(S'w'
I4401
tp876
a(S'tr_tl'
I138
tp877
a(S'w'
I1
tp878
a(S'tr_ll'
I18
tp879
a(S'w'
I4402
tp880
a(S'tr_tl'
I174
tp881
a(S'w'
I1
tp882
a(S'tr_ll'
I18
tp883
a(S'w'
I4402
tp884
a(S'tr_tl'
I208
tp885
a(S'w'
I1
tp886
a(S'tr_ll'
I18
tp887
a(S'w'
I4403
tp888
a(S'tr_ll'
I18
tp889
a(S'w'
I4401
tp890
a(S'tr_tl'
I138
tp891
a(S'w'
I2
tp892
a(S'tr_ll'
I18
tp893
a(S'w'
I4401
tp894
a(S'tr_tl'
I130
tp895
a(S'w'
I2
tp896
a(S'tr_ll'
I18
tp897
a(S'w'
I4396
tp898
a(S'w'
I1
tp899
a(S'p1_ll'
I20
tp900
a(S'w'
I11
tp901
a(S'w'
I2
tp902
a(S'p2_ll'
I20
tp903
a(S'w'
I11
tp904
a(S'tr_tl'
I174
tp905
a(S'w'
I1
tp906
a(S'tr_ll'
I18
tp907
a(S'w'
I4382
tp908
a(S'tr_tl'
I184
tp909
a(S'w'
I1
tp910
a(S'tr_ll'
I18
tp911
a(S'w'
I4397
tp912
a(S'p1_tl'
I92
tp913
a(S'w'
I1
tp914
a(S'p1_ll'
I24
tp915
a(S'w'
I13
tp916
a(S'p2_tl'
I184
tp917
a(S'w'
I1
tp918
a(S'p2_ll'
I24
tp919
a(S'w'
I12
tp920
a(S'tr_tl'
I138
tp921
a(S'w'
I1
tp922
a(S'tr_ll'
I18
tp923
a(S'w'
I4379
tp924
a(S'tr_tl'
I174
tp925
a(S'w'
I2
tp926
a(S'tr_ll'
I18
tp927
a(S'w'
I4401
tp928
a(S'tr_tl'
I220
tp929
a(S'w'
I2
tp930
a(S'tr_ll'
I18
tp931
a(S'w'
I4400
tp932
a(S'tr_tl'
I0
tp933
a(S'w'
I1
tp934
a(S'tr_ll'
I18
tp935
a(S'w'
I4403
tp936
a(S'tr_tl'
I146
tp937
a(S'w'
I1
tp938
a(S'tr_ll'
I18
tp939
a(S'w'
I4400
tp940
a(S'tr_tl'
I0
tp941
a(S'w'
I2
tp942
a(S'tr_ll'
I18
tp943
a(S'w'
I4402
tp944
a(S'tr_tl'
I174
tp945
a(S'w'
I2
tp946
a(S'tr_ll'
I18
tp947
a(S'w'
I4400
tp948
a(S'tr_tl'
I0
tp949
a(S'w'
I1
tp950
a(S'tr_ll'
I18
tp951
a(S'w'
I4403
tp952
a(S'tr_tl'
I146
tp953
a(S'w'
I2
tp954
a(S'tr_ll'
I18
tp955
a(S'w'
I4400
tp956
a(S'tr_tl'
I0
tp957
a(S'w'
I1
tp958
a(S'tr_ll'
I18
tp959
a(S'w'
I4403
tp960
a(S'tr_tl'
I220
tp961
a(S'w'
I1
tp962
a(S'tr_ll'
I18
tp963
a(S'w'
I4400
tp964
a(S'tr_tl'
I0
tp965
a(S'w'
I2
tp966
a(S'tr_ll'
I18
tp967
a(S'w'
I4396
tp968
a(S'p1_tl'
I0
tp969
a(S'w'
I1
tp970
a(S'p1_ll'
I20
tp971
a(S'w'
I10
tp972
a(S'p2_tl'
I0
tp973
a(S'w'
I2
tp974
a(S'p2_ll'
I20
tp975
a(S'w'
I11
tp976
a(S'tr_tl'
I146
tp977
a(S'w'
I1
tp978
a(S'tr_ll'
I18
tp979
a(S'w'
I4383
tp980
a(S'tr_tl'
I0
tp981
a(S'w'
I1
tp982
a(S'tr_ll'
I18
tp983
a(S'w'
I4398
tp984
a(S'p1_tl'
I92
tp985
a(S'w'
I1
tp986
a(S'p1_ll'
I20
tp987
a(S'w'
I11
tp988
a(S'p2_tl'
I184
tp989
a(S'w'
I2
tp990
a(S'p2_ll'
I20
tp991
a(S'w'
I11
tp992
a(S'tr_tl'
I184
tp993
a(S'w'
I1
tp994
a(S'tr_ll'
I18
tp995
a(S'w'
I4380
tp996
a(S'tr_tl'
I0
tp997
a(S'w'
I2
tp998
a(S'tr_ll'
I18
tp999
a(S'w'
I4397
tp1000
a(S'p1_tl'
I87
tp1001
a(S'w'
I2
tp1002
a(S'p1_ll'
I20
tp1003
a(S'w'
I11
tp1004
a(S'p2_tl'
I174
tp1005
a(S'w'
I1
tp1006
a(S'p2_ll'
I20
tp1007
a(S'w'
I11
tp1008
a(S'tr_tl'
I146
tp1009
a(S'w'
I2
tp1010
a(S'tr_ll'
I18
tp1011
a(S'w'
I4380
tp1012
a(S'tr_tl'
I0
tp1013
a(S'w'
I2
tp1014
a(S'tr_ll'
I18
tp1015
a(S'w'
I4397
tp1016
a(S'p1_tl'
I184
tp1017
a(S'w'
I2
tp1018
a(S'p1_ll'
I20
tp1019
a(S'w'
I12
tp1020
a(S'p2_tl'
I52
tp1021
a(S'w'
I2
tp1022
a(S'p2_ll'
I20
tp1023
a(S'p2_th'
I1
tp1024
a(S'w'
I11
tp1025
a(S'tr_tl'
I232
tp1026
a(S'w'
I2
tp1027
a(S'tr_ll'
I18
tp1028
a(S'w'
I4379
tp1029
a(S'tr_tl'
I184
tp1030
a(S'w'
I1
tp1031
a(S'tr_ll'
I18
tp1032
a(S'w'
I4402
tp1033
a(S'tr_tl'
I154
tp1034
a(S'w'
I1
tp1035
a(S'tr_ll'
I18
tp1036
a(S'w'
I4397
tp1037
a(S'p1_tl'
I154
tp1038
a(S'w'
I1
tp1039
a(S'p1_ll'
I20
tp1040
a(S'w'
I13
tp1041
a(S'p2_tl'
I112
tp1042
a(S'w'
I1
tp1043
a(S'p2_ll'
I20
tp1044
a(S'w'
I12
tp1045
a(S'tr_tl'
I184
tp1046
a(S'w'
I1
tp1047
a(S'tr_ll'
I18
tp1048
a(S'w'
I4381
tp1049
a(S'tr_ll'
I18
tp1050
a(S'w'
I4403
tp1051
a(S'tr_ll'
I18
tp1052
a(S'w'
I4396
tp1053
a(S'p1_tl'
I116
tp1054
a(S'w'
I1
tp1055
a(S'p1_ll'
I20
tp1056
a(S'w'
I11
tp1057
a(S'p2_tl'
I208
tp1058
a(S'w'
I2
tp1059
a(S'p2_ll'
I20
tp1060
a(S'w'
I11
tp1061
a(S'tr_tl'
I154
tp1062
a(S'w'
I1
tp1063
a(S'tr_ll'
I18
tp1064
a(S'w'
I4382
tp1065
a(S'tr_tl'
I184
tp1066
a(S'w'
I1
tp1067
a(S'tr_ll'
I18
tp1068
a(S'w'
I4397
tp1069
a(S'p1_tl'
I174
tp1070
a(S'w'
I2
tp1071
a(S'p1_ll'
I20
tp1072
a(S'w'
I12
tp1073
a(S'p2_tl'
I36
tp1074
a(S'w'
I1
tp1075
a(S'p2_ll'
I20
tp1076
a(S'w'
I12
tp1077
a(S'tr_tl'
I220
tp1078
a(S'w'
I1
tp1079
a(S'tr_ll'
I18
tp1080
a(S'w'
I4378
tp1081
a(S'tr_tl'
I0
tp1082
a(S'w'
I2
tp1083
a(S'tr_ll'
I18
tp1084
a(S'w'
I4402
tp1085
a(S'tr_tl'
I146
tp1086
a(S'w'
I2
tp1087
a(S'tr_ll'
I18
tp1088
a(S'w'
I4397
tp1089
a(S'p1_tl'
I146
tp1090
a(S'w'
I1
tp1091
a(S'p1_ll'
I20
tp1092
a(S'w'
I12
tp1093
a(S'p2_tl'
I112
tp1094
a(S'w'
I2
tp1095
a(S'p2_ll'
I20
tp1096
a(S'w'
I10
tp1097
a(S'tr_tl'
I0
tp1098
a(S'w'
I1
tp1099
a(S'tr_ll'
I18
tp1100
a(S'w'
I4381
tp1101
a(S'tr_tl'
I174
tp1102
a(S'w'
I1
tp1103
a(S'tr_ll'
I18
tp1104
a(S'w'
I4400
tp1105
a(S'tr_tl'
I0
tp1106
a(S'w'
I2
tp1107
a(S'tr_ll'
I18
tp1108
a(S'w'
I4397
tp1109
a(S'p1_tl'
I110
tp1110
a(S'w'
I2
tp1111
a(S'p1_ll'
I20
tp1112
a(S'w'
I11
tp1113
a(S'p2_tl'
I184
tp1114
a(S'w'
I1
tp1115
a(S'p2_ll'
I20
tp1116
a(S'w'
I11
tp1117
a(S'tr_tl'
I146
tp1118
a(S'w'
I2
tp1119
a(S'tr_ll'
I18
tp1120
a(S'w'
I4380
tp1121
a(S'tr_tl'
I0
tp1122
a(S'w'
I1
tp1123
a(S'tr_ll'
I18
tp1124
a(S'w'
I4398
tp1125
a(S'p1_tl'
I174
tp1126
a(S'w'
I2
tp1127
a(S'p1_ll'
I20
tp1128
a(S'w'
I12
tp1129
a(S'p2_tl'
I20
tp1130
a(S'w'
I2
tp1131
a(S'p2_ll'
I20
tp1132
a(S'w'
I11
tp1133
a(S'tr_tl'
I208
tp1134
a(S'w'
I2
tp1135
a(S'tr_ll'
I18
tp1136
a(S'w'
I4379
tp1137
a(S'tr_tl'
I104
tp1138
a(S'w'
I1
tp1139
a(S'tr_ll'
I18
tp1140
a(S'w'
I4402
tp1141
a(S'tr_tl'
I174
tp1142
a(S'w'
I1
tp1143
a(S'tr_ll'
I18
tp1144
a(S'w'
I4397
tp1145
a(S'p1_tl'
I138
tp1146
a(S'w'
I1
tp1147
a(S'p1_ll'
I20
tp1148
a(S'w'
I13
tp1149
a(S'p2_tl'
I92
tp1150
a(S'w'
I1
tp1151
a(S'p2_ll'
I20
tp1152
a(S'w'
I12
tp1153
a(S'tr_tl'
I87
tp1154
a(S'w'
I1
tp1155
a(S'tr_ll'
I18
tp1156
a(S'w'
I4379
tp1157
a(S'tr_tl'
I220
tp1158
a(S'w'
I2
tp1159
a(S'tr_ll'
I18
tp1160
a(S'w'
I4401
tp1161
a(S'tr_tl'
I110
tp1162
a(S'w'
I2
tp1163
a(S'tr_ll'
I18
tp1164
a(S'w'
I4396
tp1165
a(S'p1_tl'
I104
tp1166
a(S'w'
I1
tp1167
a(S'p1_ll'
I20
tp1168
a(S'w'
I11
tp1169
a(S'p2_tl'
I160
tp1170
a(S'w'
I2
tp1171
a(S'p2_ll'
I20
tp1172
a(S'w'
I11
tp1173
a(S'tr_tl'
I208
tp1174
a(S'w'
I1
tp1175
a(S'tr_ll'
I18
tp1176
a(S'w'
I4382
tp1177
a(S'tr_tl'
I104
tp1178
a(S'w'
I1
tp1179
a(S'tr_ll'
I18
tp1180
a(S'w'
I4395
tp1181
a(S'p1_tl'
I0
tp1182
a(S'w'
I2
tp1183
a(S'p1_ll'
I20
tp1184
a(S'w'
I9
tp1185
a(S'p2_tl'
I0
tp1186
a(S'w'
I2
tp1187
a(S'p2_ll'
I20
tp1188
a(S'p2_th'
I0
tp1189
a(S'w'
I11
tp1190
a(S'tr_tl'
I208
tp1191
a(S'w'
I1
tp1192
a(S'tr_ll'
I18
tp1193
a(S'w'
I4384
tp1194
a(S'tr_tl'
I104
tp1195
a(S'w'
I2
tp1196
a(S'tr_ll'
I18
tp1197
a(S'w'
I4396
tp1198
a(S'p1_tl'
I87
tp1199
a(S'w'
I1
tp1200
a(S'p1_ll'
I20
tp1201
a(S'w'
I12
tp1202
a(S'p2_tl'
I20
tp1203
a(S'w'
I1
tp1204
a(S'p2_ll'
I20
tp1205
a(S'p2_th'
I1
tp1206
a(S'w'
I12
tp1207
a(S'tr_ll'
I20
tp1208
a(S'w'
I8780
tp1209
a(S'w'
I1
tp1210
a(S'p1_ll'
I20
tp1211
a(S'w'
I11
tp1212
a(S'w'
I2
tp1213
a(S'p2_ll'
I20
tp1214
a(S'w'
I12
tp1215
a(S'tr_ll'
I20
tp1216
a(S'w'
I8779
tp1217
a(S'w'
I2
tp1218
a(S'p1_ll'
I20
tp1219
a(S'w'
I11
tp1220
a(S'w'
I1
tp1221
a(S'p2_ll'
I20
tp1222
a(S'w'
I13
tp1223
a(S'tr_ll'
I20
tp1224
a(S'w'
I8787
tp1225
a.