(lp1
(S'clock'
p2
I1789773
tp3
a(S'fc_mo'
I1
tp4
a(S'ch_no'
I1
tp5
a(S'ch_tr'
I1
tp6
a(S'ch_p2'
I1
tp7
a(S'ch_p1'
I1
tp8
a(S'fc_mo'
I1
tp9
a(S'p1_du'
I3
tp10
a(S'p1_lh'
I1
tp11
a(S'p1_cv'
I1
tp12
a(S'p2_du'
I3
tp13
a(S'p2_lh'
I1
tp14
a(S'p2_cv'
I1
tp15
a(S'no_lh'
I1
tp16
a(S'no_cv'
I1
tp17
a(S'tr_lh'
I1
tp18
a(S'p1_sp'
I7
tp19
a(S'p1_sn'
I1
tp20
a(S'p2_sp'
I7
tp21
a(S'p2_sn'
I1
tp22
a(S'p1_tl'
I240
tp23
a(S'p2_tl'
I240
tp24
a(S'tr_tl'
I240
tp25
a(S'no_nl'
I1
tp26
a(S'p1_ll'
I1
tp27
a(S'p2_ll'
I1
tp28
a(S'tr_ll'
I1
tp29
a(S'no_ll'
I1
tp30
a(S'w'
I78
tp31
a(S'p1_du'
I2
tp32
a(S'p1_vo'
I6
tp33
a(S'w'
I4
tp34
a(S'p1_tl'
I83
tp35
a(S'p1_ll'
I1
tp36
a(S'p1_th'
I1
tp37
a(S'w'
I7
tp38
a(S'p2_du'
I2
tp39
a(S'p2_vo'
I9
tp40
a(S'w'
I3
tp41
a(S'w'
I1
tp42
a(S'p2_tl'
I226
tp43
a(S'p2_ll'
I1
tp44
a(S'w'
I8
tp45
a(S'tr_lr'
I127
tp46
a(S'w'
I1
tp47
a(S'tr_tl'
I83
tp48
a(S'tr_ll'
I1
tp49
a(S'tr_th'
I1
tp50
a(S'w'
I2
tp51
a(S'w'
I5798
tp52
a(S'tr_lr'
I0
tp53
a(S'w'
I5877
tp54
a(S'tr_lr'
I127
tp55
a(S'w'
I1
tp56
a(S'tr_ll'
I1
tp57
a(S'w'
I4396
tp58
a(S'tr_lr'
I0
tp59
a(S'w'
I1477
tp60
a(S'tr_lr'
I127
tp61
a(S'w'
I1
tp62
a(S'tr_ll'
I1
tp63
a(S'w'
I5859
tp64
a(S'tr_lr'
I0
tp65
a(S'w'
I5877
tp66
a(S'tr_lr'
I127
tp67
a(S'w'
I1
tp68
a(S'tr_ll'
I1
tp69
a(S'w'
I4396
tp70
a(S'tr_lr'
I0
tp71
a(S'w'
I1477
tp72
a(S'tr_lr'
I127
tp73
a(S'w'
I1
tp74
a(S'tr_ll'
I1
tp75
a(S'w'
I5859
tp76
a(S'tr_lr'
I0
tp77
a(S'w'
I5877
tp78
a(S'tr_lr'
I127
tp79
a(S'w'
I1
tp80
a(S'tr_ll'
I1
tp81
a(S'w'
I4396
tp82
a(S'tr_lr'
I0
tp83
a(S'w'
I1480
tp84
a(S'p2_tl'
I83
tp85
a(S'p2_ll'
I1
tp86
a(S'p2_th'
I1
tp87
a(S'w'
I8
tp88
a(S'tr_lr'
I127
tp89
a(S'w'
I1
tp90
a(S'tr_ll'
I1
tp91
a(S'w'
I5855
tp92
a(S'p2_tl'
I29
tp93
a(S'w'
I1
tp94
a(S'p2_ll'
I1
tp95
a(S'w'
I3
tp96
a(S'tr_lr'
I0
tp97
a(S'w'
I5868
tp98
a(S'p2_tl'
I226
tp99
a(S'p2_ll'
I1
tp100
a(S'p2_th'
I0
tp101
a(S'w'
I8
tp102
a(S'tr_lr'
I127
tp103
a(S'w'
I2
tp104
a(S'tr_ll'
I1
tp105
a(S'w'
I4385
tp106
a(S'tr_lr'
I0
tp107
a(S'w'
I1479
tp108
a(S'p1_tl'
I226
tp109
a(S'w'
I1
tp110
a(S'p1_ll'
I1
tp111
a(S'p1_th'
I0
tp112
a(S'w'
I10
tp113
a(S'p2_tl'
I190
tp114
a(S'p2_ll'
I1
tp115
a(S'w'
I8
tp116
a(S'tr_lr'
I127
tp117
a(S'w'
I1
tp118
a(S'tr_tl'
I29
tp119
a(S'w'
I1
tp120
a(S'tr_ll'
I1
tp121
a(S'w'
I17573
tp122
a(S'p1_du'
I3
tp123
a(S'p1_vo'
I0
tp124
a(S'w'
I10
tp125
a(S'p2_tl'
I83
tp126
a(S'p2_ll'
I1
tp127
a(S'p2_th'
I1
tp128
a(S'w'
I5864
tp129
a(S'p2_tl'
I226
tp130
a(S'w'
I1
tp131
a(S'p2_ll'
I1
tp132
a(S'p2_th'
I0
tp133
a(S'w'
I5869
tp134
a(S'p2_tl'
I190
tp135
a(S'w'
I1
tp136
a(S'p2_ll'
I1
tp137
a(S'w'
I5876
tp138
a(S'p1_du'
I2
tp139
a(S'p1_vo'
I6
tp140
a(S'w'
I4
tp141
a(S'p1_tl'
I254
tp142
a(S'p1_ll'
I1
tp143
a(S'w'
I11
tp144
a(S'p2_tl'
I214
tp145
a(S'p2_ll'
I1
tp146
a(S'w'
I9
tp147
a(S'tr_tl'
I64
tp148
a(S'tr_ll'
I1
tp149
a(S'w'
I17577
tp150
a(S'p1_du'
I3
tp151
a(S'p1_vo'
I0
tp152
a(S'w'
I10
tp153
a(S'p2_tl'
I64
tp154
a(S'p2_ll'
I1
tp155
a(S'p2_th'
I1
tp156
a(S'w'
I5864
tp157
a(S'p2_tl'
I254
tp158
a(S'w'
I1
tp159
a(S'p2_ll'
I1
tp160
a(S'p2_th'
I0
tp161
a(S'w'
I5869
tp162
a(S'p2_tl'
I214
tp163
a(S'w'
I1
tp164
a(S'p2_ll'
I1
tp165
a(S'w'
I5881
tp166
a(S'p1_du'
I2
tp167
a(S'p1_vo'
I6
tp168
a(S'w'
I4
tp169
a(S'p1_tl'
I29
tp170
a(S'p1_ll'
I1
tp171
a(S'p1_th'
I1
tp172
a(S'w'
I10
tp173
a(S'p2_tl'
I226
tp174
a(S'w'
I1
tp175
a(S'p2_ll'
I1
tp176
a(S'w'
I8
tp177
a(S'tr_tl'
I83
tp178
a(S'w'
I1
tp179
a(S'tr_ll'
I1
tp180
a(S'w'
I5836
tp181
a(S'tr_lr'
I0
tp182
a(S'w'
I5877
tp183
a(S'tr_lr'
I127
tp184
a(S'w'
I1
tp185
a(S'tr_ll'
I1
tp186
a(S'w'
I4396
tp187
a(S'tr_lr'
I0
tp188
a(S'w'
I1477
tp189
a(S'tr_lr'
I127
tp190
a(S'w'
I1
tp191
a(S'tr_ll'
I1
tp192
a(S'w'
I5859
tp193
a(S'tr_lr'
I0
tp194
a(S'w'
I5877
tp195
a(S'tr_lr'
I127
tp196
a(S'w'
I1
tp197
a(S'tr_ll'
I1
tp198
a(S'w'
I4396
tp199
a(S'tr_lr'
I0
tp200
a(S'w'
I1477
tp201
a(S'tr_lr'
I127
tp202
a(S'w'
I1
tp203
a(S'tr_ll'
I1
tp204
a(S'w'
I5859
tp205
a(S'tr_lr'
I0
tp206
a(S'w'
I5877
tp207
a(S'tr_lr'
I127
tp208
a(S'w'
I1
tp209
a(S'tr_ll'
I1
tp210
a(S'w'
I4396
tp211
a(S'tr_lr'
I0
tp212
a(S'w'
I1477
tp213
a(S'tr_lr'
I127
tp214
a(S'w'
I1
tp215
a(S'tr_ll'
I1
tp216
a(S'w'
I5859
tp217
a(S'tr_lr'
I0
tp218
a(S'w'
I5877
tp219
a(S'tr_lr'
I127
tp220
a(S'w'
I1
tp221
a(S'tr_ll'
I1
tp222
a(S'w'
I4396
tp223
a(S'tr_lr'
I0
tp224
a(S'w'
I1475
tp225
a(S'p1_du'
I3
tp226
a(S'p1_vo'
I0
tp227
a(S'w'
I10
tp228
a(S'p2_tl'
I172
tp229
a(S'p2_ll'
I1
tp230
a(S'p2_th'
I1
tp231
a(S'w'
I8
tp232
a(S'tr_lr'
I127
tp233
a(S'w'
I1
tp234
a(S'tr_tl'
I172
tp235
a(S'w'
I1
tp236
a(S'tr_ll'
I1
tp237
a(S'w'
I5846
tp238
a(S'p2_tl'
I83
tp239
a(S'w'
I1
tp240
a(S'p2_ll'
I1
tp241
a(S'w'
I3
tp242
a(S'tr_lr'
I0
tp243
a(S'w'
I5868
tp244
a(S'p2_tl'
I29
tp245
a(S'p2_ll'
I1
tp246
a(S'w'
I8
tp247
a(S'tr_lr'
I127
tp248
a(S'w'
I1
tp249
a(S'tr_ll'
I1
tp250
a(S'w'
I4386
tp251
a(S'tr_lr'
I0
tp252
a(S'w'
I1479
tp253
a(S'p2_tl'
I254
tp254
a(S'w'
I1
tp255
a(S'p2_ll'
I1
tp256
a(S'p2_th'
I0
tp257
a(S'w'
I7
tp258
a(S'tr_lr'
I127
tp259
a(S'w'
I2
tp260
a(S'tr_ll'
I1
tp261
a(S'w'
I5855
tp262
a(S'p2_tl'
I29
tp263
a(S'w'
I1
tp264
a(S'p2_ll'
I1
tp265
a(S'p2_th'
I1
tp266
a(S'w'
I3
tp267
a(S'tr_lr'
I0
tp268
a(S'w'
I5868
tp269
a(S'p2_tl'
I83
tp270
a(S'p2_ll'
I1
tp271
a(S'w'
I8
tp272
a(S'tr_lr'
I127
tp273
a(S'w'
I1
tp274
a(S'tr_ll'
I1
tp275
a(S'w'
I4386
tp276
a(S'tr_lr'
I0
tp277
a(S'w'
I1483
tp278
a(S'p2_tl'
I125
tp279
a(S'p2_ll'
I1
tp280
a(S'w'
I8
tp281
a(S'tr_lr'
I127
tp282
a(S'w'
I1
tp283
a(S'tr_tl'
I125
tp284
a(S'tr_ll'
I1
tp285
a(S'w'
I5852
tp286
a(S'p2_tl'
I46
tp287
a(S'w'
I1
tp288
a(S'p2_ll'
I1
tp289
a(S'w'
I3
tp290
a(S'tr_lr'
I0
tp291
a(S'w'
I5868
tp292
a(S'p2_tl'
I254
tp293
a(S'p2_ll'
I1
tp294
a(S'p2_th'
I0
tp295
a(S'w'
I8
tp296
a(S'tr_lr'
I127
tp297
a(S'w'
I1
tp298
a(S'tr_ll'
I1
tp299
a(S'w'
I4386
tp300
a(S'tr_lr'
I0
tp301
a(S'w'
I1479
tp302
a(S'p2_tl'
I226
tp303
a(S'p2_ll'
I1
tp304
a(S'w'
I8
tp305
a(S'tr_lr'
I127
tp306
a(S'w'
I2
tp307
a(S'tr_ll'
I1
tp308
a(S'w'
I5855
tp309
a(S'p2_tl'
I254
tp310
a(S'w'
I1
tp311
a(S'p2_ll'
I1
tp312
a(S'w'
I3
tp313
a(S'tr_lr'
I0
tp314
a(S'w'
I5868
tp315
a(S'p2_tl'
I46
tp316
a(S'p2_ll'
I1
tp317
a(S'p2_th'
I1
tp318
a(S'w'
I8
tp319
a(S'tr_lr'
I127
tp320
a(S'w'
I2
tp321
a(S'tr_ll'
I1
tp322
a(S'w'
I4385
tp323
a(S'tr_lr'
I0
tp324
a(S'w'
I1489
tp325
a(S'p1_du'
I2
tp326
a(S'p1_vo'
I6
tp327
a(S'w'
I4
tp328
a(S'p1_tl'
I83
tp329
a(S'p1_ll'
I1
tp330
a(S'w'
I10
tp331
a(S'p2_tl'
I226
tp332
a(S'w'
I1
tp333
a(S'p2_ll'
I1
tp334
a(S'p2_th'
I0
tp335
a(S'w'
I8
tp336
a(S'tr_lr'
I127
tp337
a(S'w'
I1
tp338
a(S'tr_tl'
I83
tp339
a(S'tr_ll'
I1
tp340
a(S'w'
I5827
tp341
a(S'tr_lr'
I0
tp342
a(S'w'
I5877
tp343
a(S'tr_lr'
I127
tp344
a(S'w'
I1
tp345
a(S'tr_ll'
I1
tp346
a(S'w'
I4396
tp347
a(S'tr_lr'
I0
tp348
a(S'w'
I1477
tp349
a(S'tr_lr'
I127
tp350
a(S'w'
I1
tp351
a(S'tr_ll'
I1
tp352
a(S'w'
I5859
tp353
a(S'tr_lr'
I0
tp354
a(S'w'
I5877
tp355
a(S'tr_lr'
I127
tp356
a(S'w'
I1
tp357
a(S'tr_ll'
I1
tp358
a(S'w'
I4396
tp359
a(S'tr_lr'
I0
tp360
a(S'w'
I1477
tp361
a(S'tr_lr'
I127
tp362
a(S'w'
I1
tp363
a(S'tr_ll'
I1
tp364
a(S'w'
I5859
tp365
a(S'tr_lr'
I0
tp366
a(S'w'
I5877
tp367
a(S'tr_lr'
I127
tp368
a(S'w'
I1
tp369
a(S'tr_ll'
I1
tp370
a(S'w'
I4396
tp371
a(S'tr_lr'
I0
tp372
a(S'w'
I1480
tp373
a(S'p2_tl'
I83
tp374
a(S'p2_ll'
I1
tp375
a(S'p2_th'
I1
tp376
a(S'w'
I8
tp377
a(S'tr_lr'
I127
tp378
a(S'w'
I1
tp379
a(S'tr_ll'
I1
tp380
a(S'w'
I5855
tp381
a(S'p2_tl'
I29
tp382
a(S'w'
I1
tp383
a(S'p2_ll'
I1
tp384
a(S'w'
I3
tp385
a(S'tr_lr'
I0
tp386
a(S'w'
I5868
tp387
a(S'p2_tl'
I226
tp388
a(S'p2_ll'
I1
tp389
a(S'p2_th'
I0
tp390
a(S'w'
I8
tp391
a(S'tr_lr'
I127
tp392
a(S'w'
I2
tp393
a(S'tr_ll'
I1
tp394
a(S'w'
I4385
tp395
a(S'tr_lr'
I0
tp396
a(S'w'
I1478
tp397
a(S'p1_tl'
I226
tp398
a(S'w'
I1
tp399
a(S'p1_ll'
I1
tp400
a(S'p1_th'
I0
tp401
a(S'w'
I10
tp402
a(S'p2_tl'
I190
tp403
a(S'p2_ll'
I1
tp404
a(S'w'
I8
tp405
a(S'tr_lr'
I127
tp406
a(S'w'
I1
tp407
a(S'tr_tl'
I29
tp408
a(S'w'
I1
tp409
a(S'tr_ll'
I1
tp410
a(S'w'
I17573
tp411
a(S'p1_du'
I3
tp412
a(S'p1_vo'
I0
tp413
a(S'w'
I10
tp414
a(S'p2_tl'
I83
tp415
a(S'p2_ll'
I1
tp416
a(S'p2_th'
I1
tp417
a(S'w'
I5865
tp418
a(S'p2_tl'
I226
tp419
a(S'w'
I1
tp420
a(S'p2_ll'
I1
tp421
a(S'p2_th'
I0
tp422
a(S'w'
I5869
tp423
a(S'p2_tl'
I190
tp424
a(S'w'
I1
tp425
a(S'p2_ll'
I1
tp426
a(S'w'
I5875
tp427
a(S'p1_du'
I2
tp428
a(S'p1_vo'
I6
tp429
a(S'w'
I4
tp430
a(S'p1_tl'
I254
tp431
a(S'p1_ll'
I1
tp432
a(S'w'
I11
tp433
a(S'p2_tl'
I214
tp434
a(S'p2_ll'
I1
tp435
a(S'w'
I9
tp436
a(S'tr_tl'
I64
tp437
a(S'tr_ll'
I1
tp438
a(S'w'
I17577
tp439
a(S'p1_du'
I3
tp440
a(S'p1_vo'
I0
tp441
a(S'w'
I10
tp442
a(S'p2_tl'
I64
tp443
a(S'p2_ll'
I1
tp444
a(S'p2_th'
I1
tp445
a(S'w'
I5865
tp446
a(S'p2_tl'
I254
tp447
a(S'w'
I1
tp448
a(S'p2_ll'
I1
tp449
a(S'p2_th'
I0
tp450
a(S'w'
I5869
tp451
a(S'p2_tl'
I214
tp452
a(S'w'
I1
tp453
a(S'p2_ll'
I1
tp454
a(S'w'
I5880
tp455
a(S'p1_du'
I2
tp456
a(S'p1_vo'
I6
tp457
a(S'w'
I4
tp458
a(S'p1_tl'
I29
tp459
a(S'p1_ll'
I1
tp460
a(S'p1_th'
I1
tp461
a(S'w'
I10
tp462
a(S'p2_tl'
I226
tp463
a(S'w'
I1
tp464
a(S'p2_ll'
I1
tp465
a(S'w'
I8
tp466
a(S'tr_tl'
I83
tp467
a(S'w'
I1
tp468
a(S'tr_ll'
I1
tp469
a(S'w'
I5837
tp470
a(S'tr_lr'
I0
tp471
a(S'w'
I5877
tp472
a(S'tr_lr'
I127
tp473
a(S'w'
I1
tp474
a(S'tr_ll'
I1
tp475
a(S'w'
I4396
tp476
a(S'tr_lr'
I0
tp477
a(S'w'
I1476
tp478
a(S'tr_lr'
I127
tp479
a(S'w'
I1
tp480
a(S'tr_ll'
I1
tp481
a(S'w'
I5860
tp482
a(S'tr_lr'
I0
tp483
a(S'w'
I5877
tp484
a(S'tr_lr'
I127
tp485
a(S'w'
I1
tp486
a(S'tr_ll'
I1
tp487
a(S'w'
I4396
tp488
a(S'tr_lr'
I0
tp489
a(S'w'
I1476
tp490
a(S'tr_lr'
I127
tp491
a(S'w'
I1
tp492
a(S'tr_ll'
I1
tp493
a(S'w'
I5860
tp494
a(S'tr_lr'
I0
tp495
a(S'w'
I5877
tp496
a(S'tr_lr'
I127
tp497
a(S'w'
I1
tp498
a(S'tr_ll'
I1
tp499
a(S'w'
I4396
tp500
a(S'tr_lr'
I0
tp501
a(S'w'
I1476
tp502
a(S'tr_lr'
I127
tp503
a(S'w'
I1
tp504
a(S'tr_ll'
I1
tp505
a(S'w'
I5860
tp506
a(S'tr_lr'
I0
tp507
a(S'w'
I5877
tp508
a(S'tr_lr'
I127
tp509
a(S'w'
I1
tp510
a(S'tr_ll'
I1
tp511
a(S'w'
I4396
tp512
a(S'tr_lr'
I0
tp513
a(S'w'
I1474
tp514
a(S'p1_du'
I3
tp515
a(S'p1_vo'
I0
tp516
a(S'w'
I10
tp517
a(S'p2_tl'
I172
tp518
a(S'p2_ll'
I1
tp519
a(S'p2_th'
I1
tp520
a(S'w'
I8
tp521
a(S'tr_lr'
I127
tp522
a(S'w'
I1
tp523
a(S'tr_tl'
I172
tp524
a(S'w'
I1
tp525
a(S'tr_ll'
I1
tp526
a(S'w'
I5847
tp527
a(S'p2_tl'
I83
tp528
a(S'w'
I1
tp529
a(S'p2_ll'
I1
tp530
a(S'w'
I3
tp531
a(S'tr_lr'
I0
tp532
a(S'w'
I5868
tp533
a(S'p2_tl'
I29
tp534
a(S'p2_ll'
I1
tp535
a(S'w'
I8
tp536
a(S'tr_lr'
I127
tp537
a(S'w'
I2
tp538
a(S'tr_ll'
I1
tp539
a(S'w'
I4385
tp540
a(S'tr_lr'
I0
tp541
a(S'w'
I1478
tp542
a(S'p2_tl'
I254
tp543
a(S'w'
I1
tp544
a(S'p2_ll'
I1
tp545
a(S'p2_th'
I0
tp546
a(S'w'
I7
tp547
a(S'tr_lr'
I127
tp548
a(S'w'
I2
tp549
a(S'tr_ll'
I1
tp550
a(S'w'
I5856
tp551
a(S'p2_tl'
I29
tp552
a(S'w'
I1
tp553
a(S'p2_ll'
I1
tp554
a(S'p2_th'
I1
tp555
a(S'w'
I3
tp556
a(S'tr_lr'
I0
tp557
a(S'w'
I5868
tp558
a(S'p2_tl'
I83
tp559
a(S'p2_ll'
I1
tp560
a(S'w'
I8
tp561
a(S'tr_lr'
I127
tp562
a(S'w'
I2
tp563
a(S'tr_ll'
I1
tp564
a(S'w'
I4385
tp565
a(S'tr_lr'
I0
tp566
a(S'w'
I1482
tp567
a(S'p2_tl'
I125
tp568
a(S'p2_ll'
I1
tp569
a(S'w'
I8
tp570
a(S'tr_lr'
I127
tp571
a(S'w'
I1
tp572
a(S'tr_tl'
I125
tp573
a(S'tr_ll'
I1
tp574
a(S'w'
I5853
tp575
a(S'p2_tl'
I46
tp576
a(S'w'
I1
tp577
a(S'p2_ll'
I1
tp578
a(S'w'
I3
tp579
a(S'tr_lr'
I0
tp580
a(S'w'
I5868
tp581
a(S'p2_tl'
I254
tp582
a(S'p2_ll'
I1
tp583
a(S'p2_th'
I0
tp584
a(S'w'
I8
tp585
a(S'tr_lr'
I127
tp586
a(S'w'
I1
tp587
a(S'tr_ll'
I1
tp588
a(S'w'
I4386
tp589
a(S'tr_lr'
I0
tp590
a(S'w'
I1478
tp591
a(S'p2_tl'
I226
tp592
a(S'p2_ll'
I1
tp593
a(S'w'
I8
tp594
a(S'tr_lr'
I127
tp595
a(S'w'
I2
tp596
a(S'tr_ll'
I1
tp597
a(S'w'
I5856
tp598
a(S'p2_tl'
I254
tp599
a(S'w'
I1
tp600
a(S'p2_ll'
I1
tp601
a(S'w'
I3
tp602
a(S'tr_lr'
I0
tp603
a(S'w'
I5868
tp604
a(S'p2_tl'
I46
tp605
a(S'p2_ll'
I1
tp606
a(S'p2_th'
I1
tp607
a(S'w'
I8
tp608
a(S'tr_lr'
I127
tp609
a(S'w'
I2
tp610
a(S'tr_ll'
I1
tp611
a(S'w'
I4385
tp612
a(S'tr_lr'
I0
tp613
a(S'w'
I1487
tp614
a(S'p1_du'
I2
tp615
a(S'p1_vo'
I6
tp616
a(S'w'
I4
tp617
a(S'p1_tl'
I83
tp618
a(S'p1_ll'
I1
tp619
a(S'w'
I11
tp620
a(S'p2_tl'
I226
tp621
a(S'p2_ll'
I1
tp622
a(S'p2_th'
I0
tp623
a(S'w'
I8
tp624
a(S'tr_lr'
I127
tp625
a(S'w'
I1
tp626
a(S'tr_tl'
I172
tp627
a(S'tr_ll'
I1
tp628
a(S'w'
I5829
tp629
a(S'tr_lr'
I0
tp630
a(S'w'
I5877
tp631
a(S'tr_lr'
I127
tp632
a(S'w'
I1
tp633
a(S'tr_ll'
I1
tp634
a(S'w'
I4396
tp635
a(S'tr_lr'
I0
tp636
a(S'w'
I1476
tp637
a(S'tr_lr'
I127
tp638
a(S'w'
I1
tp639
a(S'tr_ll'
I1
tp640
a(S'w'
I5860
tp641
a(S'tr_lr'
I0
tp642
a(S'w'
I5877
tp643
a(S'tr_lr'
I127
tp644
a(S'w'
I1
tp645
a(S'tr_ll'
I1
tp646
a(S'w'
I4396
tp647
a(S'tr_lr'
I0
tp648
a(S'w'
I1478
tp649
a(S'p2_tl'
I29
tp650
a(S'w'
I1
tp651
a(S'p2_ll'
I1
tp652
a(S'p2_th'
I1
tp653
a(S'w'
I7
tp654
a(S'tr_lr'
I127
tp655
a(S'w'
I2
tp656
a(S'tr_ll'
I1
tp657
a(S'w'
I5849
tp658
a(S'tr_lr'
I0
tp659
a(S'w'
I5877
tp660
a(S'tr_lr'
I127
tp661
a(S'w'
I1
tp662
a(S'tr_ll'
I1
tp663
a(S'w'
I4396
tp664
a(S'tr_lr'
I0
tp665
a(S'w'
I1476
tp666
a(S'tr_lr'
I127
tp667
a(S'w'
I1
tp668
a(S'tr_ll'
I1
tp669
a(S'w'
I5860
tp670
a(S'tr_lr'
I0
tp671
a(S'w'
I5877
tp672
a(S'tr_lr'
I127
tp673
a(S'w'
I1
tp674
a(S'tr_ll'
I1
tp675
a(S'w'
I4396
tp676
a(S'tr_lr'
I0
tp677
a(S'w'
I1482
tp678
a(S'p1_tl'
I125
tp679
a(S'p1_ll'
I1
tp680
a(S'w'
I10
tp681
a(S'p2_tl'
I254
tp682
a(S'w'
I1
tp683
a(S'p2_ll'
I1
tp684
a(S'p2_th'
I0
tp685
a(S'w'
I7
tp686
a(S'tr_lr'
I127
tp687
a(S'w'
I1
tp688
a(S'tr_tl'
I125
tp689
a(S'w'
I1
tp690
a(S'tr_ll'
I1
tp691
a(S'w'
I5835
tp692
a(S'tr_lr'
I0
tp693
a(S'w'
I5877
tp694
a(S'tr_lr'
I127
tp695
a(S'w'
I1
tp696
a(S'tr_ll'
I1
tp697
a(S'w'
I4396
tp698
a(S'tr_lr'
I0
tp699
a(S'w'
I1476
tp700
a(S'tr_lr'
I127
tp701
a(S'w'
I1
tp702
a(S'tr_ll'
I1
tp703
a(S'w'
I5860
tp704
a(S'tr_lr'
I0
tp705
a(S'w'
I5877
tp706
a(S'tr_lr'
I127
tp707
a(S'w'
I1
tp708
a(S'tr_ll'
I1
tp709
a(S'w'
I4396
tp710
a(S'tr_lr'
I0
tp711
a(S'w'
I1478
tp712
a(S'p2_tl'
I46
tp713
a(S'w'
I1
tp714
a(S'p2_ll'
I1
tp715
a(S'p2_th'
I1
tp716
a(S'w'
I7
tp717
a(S'tr_lr'
I127
tp718
a(S'w'
I2
tp719
a(S'tr_ll'
I1
tp720
a(S'w'
I5849
tp721
a(S'tr_lr'
I0
tp722
a(S'w'
I5877
tp723
a(S'tr_lr'
I127
tp724
a(S'w'
I1
tp725
a(S'tr_ll'
I1
tp726
a(S'w'
I4396
tp727
a(S'tr_lr'
I0
tp728
a(S'w'
I1476
tp729
a(S'tr_lr'
I127
tp730
a(S'w'
I1
tp731
a(S'tr_ll'
I1
tp732
a(S'w'
I5860
tp733
a(S'tr_lr'
I0
tp734
a(S'w'
I5877
tp735
a(S'tr_lr'
I127
tp736
a(S'w'
I1
tp737
a(S'tr_ll'
I1
tp738
a(S'w'
I4396
tp739
a(S'tr_lr'
I0
tp740
a(S'w'
I1482
tp741
a(S'p1_tl'
I83
tp742
a(S'p1_ll'
I1
tp743
a(S'w'
I11
tp744
a(S'p2_tl'
I29
tp745
a(S'p2_ll'
I1
tp746
a(S'w'
I8
tp747
a(S'tr_lr'
I127
tp748
a(S'w'
I1
tp749
a(S'tr_tl'
I83
tp750
a(S'tr_ll'
I1
tp751
a(S'w'
I5835
tp752
a(S'tr_lr'
I0
tp753
a(S'w'
I5877
tp754
a(S'tr_lr'
I127
tp755
a(S'w'
I1
tp756
a(S'tr_ll'
I1
tp757
a(S'w'
I4396
tp758
a(S'tr_lr'
I0
tp759
a(S'w'
I1476
tp760
a(S'tr_lr'
I127
tp761
a(S'w'
I1
tp762
a(S'tr_ll'
I1
tp763
a(S'w'
I5860
tp764
a(S'tr_lr'
I0
tp765
a(S'w'
I5877
tp766
a(S'tr_lr'
I127
tp767
a(S'w'
I1
tp768
a(S'tr_ll'
I1
tp769
a(S'w'
I4396
tp770
a(S'tr_lr'
I0
tp771
a(S'w'
I1476
tp772
a(S'tr_lr'
I127
tp773
a(S'w'
I1
tp774
a(S'tr_ll'
I1
tp775
a(S'w'
I5860
tp776
a(S'tr_lr'
I0
tp777
a(S'w'
I5877
tp778
a(S'tr_lr'
I127
tp779
a(S'w'
I1
tp780
a(S'tr_ll'
I1
tp781
a(S'w'
I4396
tp782
a(S'tr_lr'
I0
tp783
a(S'w'
I1476
tp784
a(S'tr_lr'
I127
tp785
a(S'w'
I1
tp786
a(S'tr_ll'
I1
tp787
a(S'w'
I5860
tp788
a(S'tr_lr'
I0
tp789
a(S'w'
I5877
tp790
a(S'tr_lr'
I127
tp791
a(S'w'
I1
tp792
a(S'tr_ll'
I1
tp793
a(S'w'
I4396
tp794
a(S'tr_lr'
I0
tp795
a(S'w'
I1469
tp796
a(S'p1_du'
I3
tp797
a(S'p1_vo'
I0
tp798
a(S'w'
I3
tp799
a(S'p2_du'
I3
tp800
a(S'p2_vo'
I0
tp801
a(S'w'
I8
tp802
a(S'tr_lr'
I127
tp803
a(S'w'
I1
tp804
a(S'tr_ll'
I1
tp805
a(S'w'
I5850
tp806
a(S'tr_lr'
I0
tp807
a(S'w'
I5876
tp808
a(S'tr_lr'
I127
tp809
a(S'w'
I2
tp810
a(S'tr_ll'
I1
tp811
a(S'w'
I4396
tp812
a(S'tr_lr'
I0
tp813
a(S'w'
I1477
tp814
a(S'p2_du'
I2
tp815
a(S'p2_vo'
I9
tp816
a(S'w'
I4
tp817
a(S'p2_tl'
I46
tp818
a(S'p2_ll'
I1
tp819
a(S'w'
I8
tp820
a(S'tr_lr'
I127
tp821
a(S'w'
I1
tp822
a(S'tr_tl'
I125
tp823
a(S'tr_ll'
I1
tp824
a(S'w'
I5850
tp825
a(S'tr_lr'
I0
tp826
a(S'w'
I5877
tp827
a(S'tr_lr'
I127
tp828
a(S'w'
I1
tp829
a(S'tr_ll'
I1
tp830
a(S'w'
I4396
tp831
a(S'tr_lr'
I0
tp832
a(S'w'
I1475
tp833
a(S'p2_tl'
I29
tp834
a(S'p2_ll'
I1
tp835
a(S'w'
I8
tp836
a(S'tr_lr'
I127
tp837
a(S'w'
I1
tp838
a(S'tr_tl'
I172
tp839
a(S'tr_ll'
I1
tp840
a(S'w'
I5853
tp841
a(S'tr_lr'
I0
tp842
a(S'w'
I5877
tp843
a(S'tr_lr'
I127
tp844
a(S'w'
I1
tp845
a(S'tr_ll'
I1
tp846
a(S'w'
I4396
tp847
a(S'tr_lr'
I0
tp848
a(S'w'
I1475
tp849
a(S'p2_tl'
I46
tp850
a(S'p2_ll'
I1
tp851
a(S'w'
I8
tp852
a(S'tr_lr'
I127
tp853
a(S'w'
I1
tp854
a(S'tr_tl'
I197
tp855
a(S'tr_ll'
I1
tp856
a(S'w'
I5853
tp857
a(S'tr_lr'
I0
tp858
a(S'w'
I5877
tp859
a(S'tr_lr'
I127
tp860
a(S'w'
I1
tp861
a(S'tr_ll'
I1
tp862
a(S'w'
I4396
tp863
a(S'tr_lr'
I0
tp864
a(S'w'
I1478
tp865
a(S'p1_du'
I2
tp866
a(S'p1_vo'
I6
tp867
a(S'w'
I4
tp868
a(S'p1_tl'
I172
tp869
a(S'w'
I1
tp870
a(S'p1_ll'
I1
tp871
a(S'w'
I10
tp872
a(S'p2_tl'
I29
tp873
a(S'p2_ll'
I1
tp874
a(S'w'
I8
tp875
a(S'tr_lr'
I127
tp876
a(S'w'
I1
tp877
a(S'tr_tl'
I172
tp878
a(S'w'
I1
tp879
a(S'tr_ll'
I1
tp880
a(S'w'
I5837
tp881
a(S'tr_lr'
I0
tp882
a(S'w'
I5877
tp883
a(S'tr_lr'
I127
tp884
a(S'w'
I1
tp885
a(S'tr_ll'
I1
tp886
a(S'w'
I4396
tp887
a(S'tr_lr'
I0
tp888
a(S'w'
I1476
tp889
a(S'tr_lr'
I127
tp890
a(S'w'
I1
tp891
a(S'tr_ll'
I1
tp892
a(S'w'
I5860
tp893
a(S'tr_lr'
I0
tp894
a(S'w'
I5877
tp895
a(S'tr_lr'
I127
tp896
a(S'w'
I1
tp897
a(S'tr_ll'
I1
tp898
a(S'w'
I4396
tp899
a(S'tr_lr'
I0
tp900
a(S'w'
I1478
tp901
a(S'p2_tl'
I83
tp902
a(S'w'
I1
tp903
a(S'p2_ll'
I1
tp904
a(S'w'
I7
tp905
a(S'tr_lr'
I127
tp906
a(S'w'
I2
tp907
a(S'tr_ll'
I1
tp908
a(S'w'
I5849
tp909
a(S'tr_lr'
I0
tp910
a(S'w'
I5877
tp911
a(S'tr_lr'
I127
tp912
a(S'w'
I1
tp913
a(S'tr_ll'
I1
tp914
a(S'w'
I4396
tp915
a(S'tr_lr'
I0
tp916
a(S'w'
I1476
tp917
a(S'tr_lr'
I127
tp918
a(S'w'
I1
tp919
a(S'tr_ll'
I1
tp920
a(S'w'
I5860
tp921
a(S'tr_lr'
I0
tp922
a(S'w'
I5877
tp923
a(S'tr_lr'
I127
tp924
a(S'w'
I1
tp925
a(S'tr_ll'
I1
tp926
a(S'w'
I4396
tp927
a(S'tr_lr'
I0
tp928
a(S'w'
I1482
tp929
a(S'p1_tl'
I197
tp930
a(S'p1_ll'
I1
tp931
a(S'w'
I10
tp932
a(S'p2_tl'
I46
tp933
a(S'w'
I1
tp934
a(S'p2_ll'
I1
tp935
a(S'w'
I7
tp936
a(S'tr_lr'
I127
tp937
a(S'w'
I1
tp938
a(S'tr_tl'
I125
tp939
a(S'w'
I1
tp940
a(S'tr_ll'
I1
tp941
a(S'w'
I5835
tp942
a(S'tr_lr'
I0
tp943
a(S'w'
I5877
tp944
a(S'tr_lr'
I127
tp945
a(S'w'
I1
tp946
a(S'tr_ll'
I1
tp947
a(S'w'
I4396
tp948
a(S'tr_lr'
I0
tp949
a(S'w'
I1476
tp950
a(S'tr_lr'
I127
tp951
a(S'w'
I1
tp952
a(S'tr_ll'
I1
tp953
a(S'w'
I5860
tp954
a(S'tr_lr'
I0
tp955
a(S'w'
I5877
tp956
a(S'tr_lr'
I127
tp957
a(S'w'
I1
tp958
a(S'tr_ll'
I1
tp959
a(S'w'
I4396
tp960
a(S'tr_lr'
I0
tp961
a(S'w'
I1478
tp962
a(S'p2_tl'
I125
tp963
a(S'w'
I1
tp964
a(S'p2_ll'
I1
tp965
a(S'w'
I7
tp966
a(S'tr_lr'
I127
tp967
a(S'w'
I2
tp968
a(S'tr_ll'
I1
tp969
a(S'w'
I5849
tp970
a(S'tr_lr'
I0
tp971
a(S'w'
I5877
tp972
a(S'tr_lr'
I127
tp973
a(S'w'
I1
tp974
a(S'tr_ll'
I1
tp975
a(S'w'
I4396
tp976
a(S'tr_lr'
I0
tp977
a(S'w'
I1476
tp978
a(S'tr_lr'
I127
tp979
a(S'w'
I1
tp980
a(S'tr_ll'
I1
tp981
a(S'w'
I5860
tp982
a(S'tr_lr'
I0
tp983
a(S'w'
I5877
tp984
a(S'tr_lr'
I127
tp985
a(S'w'
I1
tp986
a(S'tr_ll'
I1
tp987
a(S'w'
I4396
tp988
a(S'tr_lr'
I0
tp989
a(S'w'
I1482
tp990
a(S'p1_tl'
I83
tp991
a(S'p1_ll'
I1
tp992
a(S'w'
I11
tp993
a(S'p2_tl'
I29
tp994
a(S'p2_ll'
I1
tp995
a(S'w'
I8
tp996
a(S'tr_lr'
I127
tp997
a(S'w'
I1
tp998
a(S'tr_tl'
I83
tp999
a(S'tr_ll'
I1
tp1000
a(S'w'
I5835
tp1001
a(S'tr_lr'
I0
tp1002
a(S'w'
I5877
tp1003
a(S'tr_lr'
I127
tp1004
a(S'w'
I1
tp1005
a(S'tr_ll'
I1
tp1006
a(S'w'
I4396
tp1007
a(S'tr_lr'
I0
tp1008
a(S'w'
I1476
tp1009
a(S'tr_lr'
I127
tp1010
a(S'w'
I1
tp1011
a(S'tr_ll'
I1
tp1012
a(S'w'
I5860
tp1013
a(S'tr_lr'
I0
tp1014
a(S'w'
I5877
tp1015
a(S'tr_lr'
I127
tp1016
a(S'w'
I1
tp1017
a(S'tr_ll'
I1
tp1018
a(S'w'
I4396
tp1019
a(S'tr_lr'
I0
tp1020
a(S'w'
I1476
tp1021
a(S'tr_lr'
I127
tp1022
a(S'w'
I1
tp1023
a(S'tr_ll'
I1
tp1024
a(S'w'
I5860
tp1025
a(S'tr_lr'
I0
tp1026
a(S'w'
I5877
tp1027
a(S'tr_lr'
I127
tp1028
a(S'w'
I1
tp1029
a(S'tr_ll'
I1
tp1030
a(S'w'
I4396
tp1031
a(S'tr_lr'
I0
tp1032
a(S'w'
I1476
tp1033
a(S'tr_lr'
I127
tp1034
a(S'w'
I1
tp1035
a(S'tr_ll'
I1
tp1036
a(S'w'
I5860
tp1037
a(S'tr_lr'
I0
tp1038
a(S'w'
I5877
tp1039
a(S'tr_lr'
I127
tp1040
a(S'w'
I1
tp1041
a(S'tr_ll'
I1
tp1042
a(S'w'
I4396
tp1043
a(S'tr_lr'
I0
tp1044
a(S'w'
I1471
tp1045
a(S'p1_du'
I3
tp1046
a(S'p1_vo'
I0
tp1047
a(S'w'
I9
tp1048
a(S'p2_tl'
I172
tp1049
a(S'w'
I1
tp1050
a(S'p2_ll'
I1
tp1051
a(S'w'
I8
tp1052
a(S'tr_lr'
I127
tp1053
a(S'w'
I1
tp1054
a(S'tr_ll'
I1
tp1055
a(S'w'
I5851
tp1056
a(S'p2_tl'
I83
tp1057
a(S'w'
I1
tp1058
a(S'p2_ll'
I1
tp1059
a(S'w'
I3
tp1060
a(S'tr_lr'
I0
tp1061
a(S'w'
I5868
tp1062
a(S'p2_tl'
I29
tp1063
a(S'p2_ll'
I1
tp1064
a(S'w'
I8
tp1065
a(S'tr_lr'
I127
tp1066
a(S'w'
I1
tp1067
a(S'tr_ll'
I1
tp1068
a(S'w'
I4386
tp1069
a(S'tr_lr'
I0
tp1070
a(S'w'
I1478
tp1071
a(S'p2_tl'
I125
tp1072
a(S'p2_ll'
I1
tp1073
a(S'w'
I8
tp1074
a(S'tr_lr'
I127
tp1075
a(S'w'
I1
tp1076
a(S'tr_tl'
I125
tp1077
a(S'tr_ll'
I1
tp1078
a(S'w'
I5857
tp1079
a(S'p2_tl'
I46
tp1080
a(S'w'
I1
tp1081
a(S'p2_ll'
I1
tp1082
a(S'w'
I3
tp1083
a(S'tr_lr'
I0
tp1084
a(S'w'
I5868
tp1085
a(S'p2_tl'
I254
tp1086
a(S'p2_ll'
I1
tp1087
a(S'p2_th'
I0
tp1088
a(S'w'
I8
tp1089
a(S'tr_lr'
I127
tp1090
a(S'w'
I1
tp1091
a(S'tr_ll'
I1
tp1092
a(S'w'
I4386
tp1093
a(S'tr_lr'
I0
tp1094
a(S'w'
I1475
tp1095
a(S'p2_tl'
I83
tp1096
a(S'p2_ll'
I1
tp1097
a(S'p2_th'
I1
tp1098
a(S'w'
I8
tp1099
a(S'tr_lr'
I127
tp1100
a(S'w'
I1
tp1101
a(S'tr_tl'
I172
tp1102
a(S'tr_ll'
I1
tp1103
a(S'w'
I5860
tp1104
a(S'p2_tl'
I29
tp1105
a(S'w'
I1
tp1106
a(S'p2_ll'
I1
tp1107
a(S'w'
I3
tp1108
a(S'tr_lr'
I0
tp1109
a(S'w'
I5868
tp1110
a(S'p2_tl'
I226
tp1111
a(S'p2_ll'
I1
tp1112
a(S'p2_th'
I0
tp1113
a(S'w'
I8
tp1114
a(S'tr_lr'
I127
tp1115
a(S'w'
I1
tp1116
a(S'tr_ll'
I1
tp1117
a(S'w'
I4386
tp1118
a(S'tr_lr'
I0
tp1119
a(S'w'
I1475
tp1120
a(S'p2_tl'
I46
tp1121
a(S'p2_ll'
I1
tp1122
a(S'p2_th'
I1
tp1123
a(S'w'
I8
tp1124
a(S'tr_lr'
I127
tp1125
a(S'w'
I1
tp1126
a(S'tr_tl'
I197
tp1127
a(S'tr_ll'
I1
tp1128
a(S'w'
I5860
tp1129
a(S'p2_tl'
I254
tp1130
a(S'w'
I1
tp1131
a(S'p2_ll'
I1
tp1132
a(S'p2_th'
I0
tp1133
a(S'w'
I3
tp1134
a(S'tr_lr'
I0
tp1135
a(S'w'
I5868
tp1136
a(S'p2_tl'
I214
tp1137
a(S'p2_ll'
I1
tp1138
a(S'w'
I8
tp1139
a(S'tr_lr'
I127
tp1140
a(S'w'
I1
tp1141
a(S'tr_ll'
I1
tp1142
a(S'w'
I4386
tp1143
a(S'tr_lr'
I0
tp1144
a(S'w'
I1484
tp1145
a(S'p2_tl'
I190
tp1146
a(S'p2_ll'
I1
tp1147
a(S'w'
I8
tp1148
a(S'tr_lr'
I127
tp1149
a(S'w'
I1
tp1150
a(S'tr_tl'
I172
tp1151
a(S'w'
I1
tp1152
a(S'tr_ll'
I1
tp1153
a(S'w'
I5843
tp1154
a(S'tr_lr'
I0
tp1155
a(S'w'
I5877
tp1156
a(S'tr_lr'
I127
tp1157
a(S'w'
I1
tp1158
a(S'tr_ll'
I1
tp1159
a(S'w'
I4396
tp1160
a(S'tr_lr'
I0
tp1161
a(S'w'
I1478
tp1162
a(S'p2_tl'
I214
tp1163
a(S'w'
I1
tp1164
a(S'p2_ll'
I1
tp1165
a(S'w'
I7
tp1166
a(S'tr_lr'
I127
tp1167
a(S'w'
I2
tp1168
a(S'tr_ll'
I1
tp1169
a(S'w'
I5849
tp1170
a(S'tr_lr'
I0
tp1171
a(S'w'
I5877
tp1172
a(S'tr_lr'
I127
tp1173
a(S'w'
I1
tp1174
a(S'tr_ll'
I1
tp1175
a(S'w'
I4396
tp1176
a(S'tr_lr'
I0
tp1177
a(S'w'
I1478
tp1178
a(S'p2_tl'
I226
tp1179
a(S'w'
I1
tp1180
a(S'p2_ll'
I1
tp1181
a(S'w'
I7
tp1182
a(S'tr_lr'
I127
tp1183
a(S'w'
I2
tp1184
a(S'tr_ll'
I1
tp1185
a(S'w'
I5849
tp1186
a(S'tr_lr'
I0
tp1187
a(S'w'
I5877
tp1188
a(S'tr_lr'
I127
tp1189
a(S'w'
I1
tp1190
a(S'tr_ll'
I1
tp1191
a(S'w'
I4396
tp1192
a(S'tr_lr'
I0
tp1193
a(S'w'
I1478
tp1194
a(S'p2_tl'
I254
tp1195
a(S'w'
I1
tp1196
a(S'p2_ll'
I1
tp1197
a(S'w'
I7
tp1198
a(S'tr_lr'
I127
tp1199
a(S'w'
I2
tp1200
a(S'tr_ll'
I1
tp1201
a(S'w'
I5849
tp1202
a(S'tr_lr'
I0
tp1203
a(S'w'
I5877
tp1204
a(S'tr_lr'
I127
tp1205
a(S'w'
I1
tp1206
a(S'tr_ll'
I1
tp1207
a(S'w'
I4396
tp1208
a(S'tr_lr'
I0
tp1209
a(S'w'
I1486
tp1210
a(S'p2_tl'
I214
tp1211
a(S'w'
I1
tp1212
a(S'p2_ll'
I1
tp1213
a(S'w'
I8
tp1214
a(S'tr_lr'
I127
tp1215
a(S'w'
I1
tp1216
a(S'tr_tl'
I125
tp1217
a(S'tr_ll'
I1
tp1218
a(S'w'
I5841
tp1219
a(S'tr_lr'
I0
tp1220
a(S'w'
I5877
tp1221
a(S'tr_lr'
I127
tp1222
a(S'w'
I1
tp1223
a(S'tr_ll'
I1
tp1224
a(S'w'
I4396
tp1225
a(S'tr_lr'
I0
tp1226
a(S'w'
I1478
tp1227
a(S'p2_tl'
I226
tp1228
a(S'p2_ll'
I1
tp1229
a(S'w'
I8
tp1230
a(S'tr_lr'
I127
tp1231
a(S'w'
I2
tp1232
a(S'tr_ll'
I1
tp1233
a(S'w'
I5849
tp1234
a(S'tr_lr'
I0
tp1235
a(S'w'
I5877
tp1236
a(S'tr_lr'
I127
tp1237
a(S'w'
I1
tp1238
a(S'tr_ll'
I1
tp1239
a(S'w'
I4396
tp1240
a(S'tr_lr'
I0
tp1241
a(S'w'
I1478
tp1242
a(S'p2_tl'
I254
tp1243
a(S'p2_ll'
I1
tp1244
a(S'w'
I8
tp1245
a(S'tr_lr'
I127
tp1246
a(S'w'
I2
tp1247
a(S'tr_ll'
I1
tp1248
a(S'w'
I5849
tp1249
a(S'tr_lr'
I0
tp1250
a(S'w'
I5877
tp1251
a(S'tr_lr'
I127
tp1252
a(S'w'
I1
tp1253
a(S'tr_ll'
I1
tp1254
a(S'w'
I4396
tp1255
a(S'tr_lr'
I0
tp1256
a(S'w'
I1478
tp1257
a(S'p2_tl'
I46
tp1258
a(S'p2_ll'
I1
tp1259
a(S'p2_th'
I1
tp1260
a(S'w'
I8
tp1261
a(S'tr_lr'
I127
tp1262
a(S'w'
I2
tp1263
a(S'tr_ll'
I1
tp1264
a(S'w'
I5849
tp1265
a(S'tr_lr'
I0
tp1266
a(S'w'
I5877
tp1267
a(S'tr_lr'
I127
tp1268
a(S'w'
I1
tp1269
a(S'tr_ll'
I1
tp1270
a(S'w'
I4396
tp1271
a(S'tr_lr'
I0
tp1272
a(S'w'
I1482
tp1273
a(S'p1_du'
I2
tp1274
a(S'p1_vo'
I6
tp1275
a(S'w'
I3
tp1276
a(S'p1_tl'
I46
tp1277
a(S'w'
I1
tp1278
a(S'p1_ll'
I1
tp1279
a(S'w'
I10
tp1280
a(S'p2_tl'
I254
tp1281
a(S'p2_ll'
I1
tp1282
a(S'p2_th'
I0
tp1283
a(S'w'
I8
tp1284
a(S'tr_lr'
I127
tp1285
a(S'w'
I1
tp1286
a(S'tr_tl'
I83
tp1287
a(S'w'
I1
tp1288
a(S'tr_ll'
I1
tp1289
a(S'w'
I5834
tp1290
a(S'tr_lr'
I0
tp1291
a(S'w'
I5877
tp1292
a(S'tr_lr'
I127
tp1293
a(S'w'
I1
tp1294
a(S'tr_ll'
I1
tp1295
a(S'w'
I4396
tp1296
a(S'tr_lr'
I0
tp1297
a(S'w'
I1476
tp1298
a(S'tr_lr'
I127
tp1299
a(S'w'
I1
tp1300
a(S'tr_ll'
I1
tp1301
a(S'w'
I5860
tp1302
a(S'tr_lr'
I0
tp1303
a(S'w'
I5877
tp1304
a(S'tr_lr'
I127
tp1305
a(S'w'
I1
tp1306
a(S'tr_ll'
I1
tp1307
a(S'w'
I4396
tp1308
a(S'tr_lr'
I0
tp1309
a(S'w'
I1478
tp1310
a(S'p1_tl'
I83
tp1311
a(S'p1_ll'
I1
tp1312
a(S'w'
I11
tp1313
a(S'p2_tl'
I29
tp1314
a(S'p2_ll'
I1
tp1315
a(S'p2_th'
I1
tp1316
a(S'w'
I8
tp1317
a(S'tr_lr'
I127
tp1318
a(S'w'
I1
tp1319
a(S'tr_ll'
I1
tp1320
a(S'w'
I5839
tp1321
a(S'tr_lr'
I0
tp1322
a(S'w'
I5877
tp1323
a(S'tr_lr'
I127
tp1324
a(S'w'
I1
tp1325
a(S'tr_ll'
I1
tp1326
a(S'w'
I4396
tp1327
a(S'tr_lr'
I0
tp1328
a(S'w'
I1476
tp1329
a(S'tr_lr'
I127
tp1330
a(S'w'
I1
tp1331
a(S'tr_ll'
I1
tp1332
a(S'w'
I5860
tp1333
a(S'tr_lr'
I0
tp1334
a(S'w'
I5877
tp1335
a(S'tr_lr'
I127
tp1336
a(S'w'
I1
tp1337
a(S'tr_ll'
I1
tp1338
a(S'w'
I4396
tp1339
a(S'tr_lr'
I0
tp1340
a(S'w'
I1471
tp1341
a(S'p1_du'
I3
tp1342
a(S'p1_vo'
I0
tp1343
a(S'w'
I10
tp1344
a(S'p2_tl'
I190
tp1345
a(S'p2_ll'
I1
tp1346
a(S'p2_th'
I0
tp1347
a(S'w'
I8
tp1348
a(S'tr_lr'
I127
tp1349
a(S'w'
I1
tp1350
a(S'tr_ll'
I1
tp1351
a(S'w'
I5851
tp1352
a(S'p2_tl'
I226
tp1353
a(S'w'
I1
tp1354
a(S'p2_ll'
I1
tp1355
a(S'w'
I3
tp1356
a(S'tr_lr'
I0
tp1357
a(S'w'
I5868
tp1358
a(S'p2_tl'
I29
tp1359
a(S'p2_ll'
I1
tp1360
a(S'p2_th'
I1
tp1361
a(S'w'
I8
tp1362
a(S'tr_lr'
I127
tp1363
a(S'w'
I1
tp1364
a(S'tr_ll'
I1
tp1365
a(S'w'
I4386
tp1366
a(S'tr_lr'
I0
tp1367
a(S'w'
I1478
tp1368
a(S'p2_tl'
I214
tp1369
a(S'p2_ll'
I1
tp1370
a(S'p2_th'
I0
tp1371
a(S'w'
I8
tp1372
a(S'tr_lr'
I127
tp1373
a(S'w'
I1
tp1374
a(S'tr_tl'
I125
tp1375
a(S'tr_ll'
I1
tp1376
a(S'w'
I5857
tp1377
a(S'p2_tl'
I254
tp1378
a(S'w'
I1
tp1379
a(S'p2_ll'
I1
tp1380
a(S'w'
I3
tp1381
a(S'tr_lr'
I0
tp1382
a(S'w'
I5868
tp1383
a(S'p2_tl'
I46
tp1384
a(S'p2_ll'
I1
tp1385
a(S'p2_th'
I1
tp1386
a(S'w'
I8
tp1387
a(S'tr_lr'
I127
tp1388
a(S'w'
I1
tp1389
a(S'tr_ll'
I1
tp1390
a(S'w'
I4386
tp1391
a(S'tr_lr'
I0
tp1392
a(S'w'
I1475
tp1393
a(S'p2_tl'
I226
tp1394
a(S'p2_ll'
I1
tp1395
a(S'p2_th'
I0
tp1396
a(S'w'
I8
tp1397
a(S'tr_lr'
I127
tp1398
a(S'w'
I1
tp1399
a(S'tr_tl'
I172
tp1400
a(S'w'
I1
tp1401
a(S'tr_ll'
I1
tp1402
a(S'w'
I5859
tp1403
a(S'p2_tl'
I29
tp1404
a(S'w'
I1
tp1405
a(S'p2_ll'
I1
tp1406
a(S'p2_th'
I1
tp1407
a(S'w'
I3
tp1408
a(S'tr_lr'
I0
tp1409
a(S'w'
I5868
tp1410
a(S'p2_tl'
I83
tp1411
a(S'p2_ll'
I1
tp1412
a(S'w'
I8
tp1413
a(S'tr_lr'
I127
tp1414
a(S'w'
I1
tp1415
a(S'tr_ll'
I1
tp1416
a(S'w'
I4386
tp1417
a(S'tr_lr'
I0
tp1418
a(S'w'
I1475
tp1419
a(S'p2_tl'
I254
tp1420
a(S'p2_ll'
I1
tp1421
a(S'p2_th'
I0
tp1422
a(S'w'
I8
tp1423
a(S'tr_lr'
I127
tp1424
a(S'w'
I1
tp1425
a(S'tr_tl'
I197
tp1426
a(S'tr_ll'
I1
tp1427
a(S'w'
I5860
tp1428
a(S'p2_tl'
I46
tp1429
a(S'w'
I1
tp1430
a(S'p2_ll'
I1
tp1431
a(S'p2_th'
I1
tp1432
a(S'w'
I3
tp1433
a(S'tr_lr'
I0
tp1434
a(S'w'
I5868
tp1435
a(S'p2_tl'
I125
tp1436
a(S'p2_ll'
I1
tp1437
a(S'w'
I8
tp1438
a(S'tr_lr'
I127
tp1439
a(S'w'
I1
tp1440
a(S'tr_ll'
I1
tp1441
a(S'w'
I4386
tp1442
a(S'tr_lr'
I0
tp1443
a(S'w'
I1488
tp1444
a(S'p2_tl'
I172
tp1445
a(S'w'
I1
tp1446
a(S'p2_ll'
I1
tp1447
a(S'w'
I7
tp1448
a(S'tr_lr'
I127
tp1449
a(S'w'
I1
tp1450
a(S'tr_tl'
I172
tp1451
a(S'w'
I1
tp1452
a(S'tr_ll'
I1
tp1453
a(S'w'
I5839
tp1454
a(S'tr_lr'
I0
tp1455
a(S'w'
I5877
tp1456
a(S'tr_lr'
I127
tp1457
a(S'w'
I1
tp1458
a(S'tr_ll'
I1
tp1459
a(S'w'
I4396
tp1460
a(S'tr_lr'
I0
tp1461
a(S'w'
I1476
tp1462
a(S'tr_lr'
I127
tp1463
a(S'w'
I1
tp1464
a(S'tr_ll'
I1
tp1465
a(S'w'
I5868
tp1466
a(S'p2_ll'
I1
tp1467
a(S'w'
I3
tp1468
a(S'tr_lr'
I0
tp1469
a(S'w'
I5868
tp1470
a(S'p2_tl'
I83
tp1471
a(S'p2_ll'
I1
tp1472
a(S'w'
I8
tp1473
a(S'tr_lr'
I127
tp1474
a(S'w'
I1
tp1475
a(S'tr_ll'
I1
tp1476
a(S'w'
I4386
tp1477
a(S'tr_lr'
I0
tp1478
a(S'w'
I1478
tp1479
a(S'p1_du'
I2
tp1480
a(S'p1_vo'
I6
tp1481
a(S'w'
I4
tp1482
a(S'p1_ll'
I1
tp1483
a(S'w'
I10
tp1484
a(S'p2_tl'
I29
tp1485
a(S'w'
I1
tp1486
a(S'p2_ll'
I1
tp1487
a(S'w'
I7
tp1488
a(S'tr_lr'
I127
tp1489
a(S'w'
I2
tp1490
a(S'tr_ll'
I1
tp1491
a(S'w'
I5838
tp1492
a(S'tr_lr'
I0
tp1493
a(S'w'
I5877
tp1494
a(S'tr_lr'
I127
tp1495
a(S'w'
I1
tp1496
a(S'tr_ll'
I1
tp1497
a(S'w'
I4396
tp1498
a(S'tr_lr'
I0
tp1499
a(S'w'
I1476
tp1500
a(S'tr_lr'
I127
tp1501
a(S'w'
I1
tp1502
a(S'tr_ll'
I1
tp1503
a(S'w'
I5860
tp1504
a(S'tr_lr'
I0
tp1505
a(S'w'
I5877
tp1506
a(S'tr_lr'
I127
tp1507
a(S'w'
I1
tp1508
a(S'tr_ll'
I1
tp1509
a(S'w'
I4396
tp1510
a(S'tr_lr'
I0
tp1511
a(S'w'
I1474
tp1512
a(S'p1_du'
I3
tp1513
a(S'p1_vo'
I0
tp1514
a(S'w'
I10
tp1515
a(S'p2_tl'
I46
tp1516
a(S'p2_ll'
I1
tp1517
a(S'w'
I8
tp1518
a(S'tr_lr'
I127
tp1519
a(S'w'
I1
tp1520
a(S'tr_tl'
I125
tp1521
a(S'tr_ll'
I1
tp1522
a(S'w'
I5841
tp1523
a(S'tr_lr'
I0
tp1524
a(S'w'
I5877
tp1525
a(S'tr_lr'
I127
tp1526
a(S'w'
I1
tp1527
a(S'tr_ll'
I1
tp1528
a(S'w'
I4396
tp1529
a(S'tr_lr'
I0
tp1530
a(S'w'
I1476
tp1531
a(S'tr_lr'
I127
tp1532
a(S'w'
I1
tp1533
a(S'tr_ll'
I1
tp1534
a(S'w'
I5868
tp1535
a(S'p2_tl'
I125
tp1536
a(S'p2_ll'
I1
tp1537
a(S'w'
I3
tp1538
a(S'tr_lr'
I0
tp1539
a(S'w'
I5868
tp1540
a(S'p2_tl'
I46
tp1541
a(S'p2_ll'
I1
tp1542
a(S'w'
I8
tp1543
a(S'tr_lr'
I127
tp1544
a(S'w'
I1
tp1545
a(S'tr_ll'
I1
tp1546
a(S'w'
I4386
tp1547
a(S'tr_lr'
I0
tp1548
a(S'w'
I1478
tp1549
a(S'p1_du'
I2
tp1550
a(S'p1_vo'
I6
tp1551
a(S'w'
I3
tp1552
a(S'p1_tl'
I46
tp1553
a(S'w'
I1
tp1554
a(S'p1_ll'
I1
tp1555
a(S'w'
I10
tp1556
a(S'p2_tl'
I254
tp1557
a(S'p2_ll'
I1
tp1558
a(S'p2_th'
I0
tp1559
a(S'w'
I8
tp1560
a(S'tr_lr'
I127
tp1561
a(S'w'
I2
tp1562
a(S'tr_ll'
I1
tp1563
a(S'w'
I5838
tp1564
a(S'tr_lr'
I0
tp1565
a(S'w'
I5877
tp1566
a(S'tr_lr'
I127
tp1567
a(S'w'
I1
tp1568
a(S'tr_ll'
I1
tp1569
a(S'w'
I4396
tp1570
a(S'tr_lr'
I0
tp1571
a(S'w'
I1476
tp1572
a(S'tr_lr'
I127
tp1573
a(S'w'
I1
tp1574
a(S'tr_ll'
I1
tp1575
a(S'w'
I5860
tp1576
a(S'tr_lr'
I0
tp1577
a(S'w'
I5877
tp1578
a(S'tr_lr'
I127
tp1579
a(S'w'
I1
tp1580
a(S'tr_ll'
I1
tp1581
a(S'w'
I4396
tp1582
a(S'tr_lr'
I0
tp1583
a(S'w'
I1482
tp1584
a(S'p1_tl'
I83
tp1585
a(S'w'
I1
tp1586
a(S'p1_ll'
I1
tp1587
a(S'w'
I10
tp1588
a(S'p2_tl'
I29
tp1589
a(S'p2_ll'
I1
tp1590
a(S'p2_th'
I1
tp1591
a(S'w'
I8
tp1592
a(S'tr_lr'
I127
tp1593
a(S'w'
I1
tp1594
a(S'tr_tl'
I83
tp1595
a(S'w'
I1
tp1596
a(S'tr_ll'
I1
tp1597
a(S'w'
I5834
tp1598
a(S'tr_lr'
I0
tp1599
a(S'w'
I5877
tp1600
a(S'tr_lr'
I127
tp1601
a(S'w'
I1
tp1602
a(S'tr_ll'
I1
tp1603
a(S'w'
I4396
tp1604
a(S'tr_lr'
I0
tp1605
a(S'w'
I1476
tp1606
a(S'tr_lr'
I127
tp1607
a(S'w'
I1
tp1608
a(S'tr_ll'
I1
tp1609
a(S'w'
I5860
tp1610
a(S'tr_lr'
I0
tp1611
a(S'w'
I5877
tp1612
a(S'tr_lr'
I127
tp1613
a(S'w'
I1
tp1614
a(S'tr_ll'
I1
tp1615
a(S'w'
I4396
tp1616
a(S'tr_lr'
I0
tp1617
a(S'w'
I1476
tp1618
a(S'tr_lr'
I127
tp1619
a(S'w'
I1
tp1620
a(S'tr_ll'
I1
tp1621
a(S'w'
I5860
tp1622
a(S'tr_lr'
I0
tp1623
a(S'w'
I5877
tp1624
a(S'tr_lr'
I127
tp1625
a(S'w'
I1
tp1626
a(S'tr_ll'
I1
tp1627
a(S'w'
I4396
tp1628
a(S'tr_lr'
I0
tp1629
a(S'w'
I1476
tp1630
a(S'tr_lr'
I127
tp1631
a(S'w'
I1
tp1632
a(S'tr_ll'
I1
tp1633
a(S'w'
I5860
tp1634
a(S'tr_lr'
I0
tp1635
a(S'w'
I5877
tp1636
a(S'tr_lr'
I127
tp1637
a(S'w'
I1
tp1638
a(S'tr_ll'
I1
tp1639
a(S'w'
I4396
tp1640
a(S'tr_lr'
I0
tp1641
a(S'w'
I1469
tp1642
a(S'p1_du'
I3
tp1643
a(S'p1_vo'
I0
tp1644
a(S'w'
I3
tp1645
a(S'p2_du'
I3
tp1646
a(S'p2_vo'
I0
tp1647
a(S'w'
I8
tp1648
a(S'tr_lr'
I127
tp1649
a(S'w'
I1
tp1650
a(S'tr_ll'
I1
tp1651
a(S'w'
I5850
tp1652
a(S'tr_lr'
I0
tp1653
a(S'w'
I5876
tp1654
a(S'tr_lr'
I127
tp1655
a(S'w'
I2
tp1656
a(S'tr_ll'
I1
tp1657
a(S'w'
I4396
tp1658
a(S'tr_lr'
I0
tp1659
a(S'w'
I1479
tp1660
a(S'tr_lr'
I127
tp1661
a(S'w'
I2
tp1662
a(S'tr_ll'
I1
tp1663
a(S'w'
I4389
tp1664
a(S'tr_lr'
I0
tp1665
a(S'w'
I1477
tp1666
a(S'tr_lr'
I127
tp1667
a(S'w'
I1
tp1668
a(S'tr_ll'
I1
tp1669
a(S'w'
I4392
tp1670
a(S'tr_lr'
I0
tp1671
a(S'w'
I1477
tp1672
a(S'tr_lr'
I127
tp1673
a(S'w'
I1
tp1674
a(S'tr_ll'
I1
tp1675
a(S'w'
I4393
tp1676
a(S'tr_lr'
I0
tp1677
a(S'w'
I1475
tp1678
a(S'tr_lr'
I127
tp1679
a(S'w'
I2
tp1680
a(S'tr_ll'
I1
tp1681
a(S'w'
I11731
tp1682
a(S'tr_lr'
I0
tp1683
a(S'w'
I5875
tp1684
a(S'tr_lr'
I127
tp1685
a(S'w'
I1
tp1686
a(S'tr_tl'
I167
tp1687
a(S'w'
I1
tp1688
a(S'tr_ll'
I1
tp1689
a(S'tr_th'
I2
tp1690
a(S'w'
I1467
tp1691
a(S'tr_tl'
I129
tp1692
a(S'tr_ll'
I1
tp1693
a(S'w'
I1468
tp1694
a(S'tr_tl'
I93
tp1695
a(S'tr_ll'
I1
tp1696
a(S'w'
I1467
tp1697
a(S'tr_tl'
I59
tp1698
a(S'tr_ll'
I1
tp1699
a(S'w'
I1468
tp1700
a(S'tr_tl'
I27
tp1701
a(S'tr_ll'
I1
tp1702
a(S'w'
I1467
tp1703
a(S'tr_tl'
I252
tp1704
a(S'tr_ll'
I1
tp1705
a(S'tr_th'
I1
tp1706
a(S'w'
I1468
tp1707
a(S'tr_tl'
I224
tp1708
a(S'tr_ll'
I1
tp1709
a(S'w'
I1467
tp1710
a(S'tr_tl'
I197
tp1711
a(S'tr_ll'
I1
tp1712
a(S'w'
I1468
tp1713
a(S'tr_tl'
I172
tp1714
a(S'tr_ll'
I1
tp1715
a(S'w'
I1468
tp1716
a(S'tr_tl'
I148
tp1717
a(S'tr_ll'
I1
tp1718
a(S'w'
I1467
tp1719
a(S'tr_tl'
I125
tp1720
a(S'tr_ll'
I1
tp1721
a(S'w'
I1468
tp1722
a(S'tr_tl'
I104
tp1723
a(S'tr_ll'
I1
tp1724
a(S'w'
I1497
tp1725
a.