(lp1
(S'clock'
p2
I1789773
tp3
a(S'fc_mo'
I1
tp4
a(S'ch_no'
I1
tp5
a(S'ch_tr'
I1
tp6
a(S'ch_p2'
I1
tp7
a(S'ch_p1'
I1
tp8
a(S'fc_mo'
I1
tp9
a(S'p1_du'
I3
tp10
a(S'p1_lh'
I1
tp11
a(S'p1_cv'
I1
tp12
a(S'p2_du'
I3
tp13
a(S'p2_lh'
I1
tp14
a(S'p2_cv'
I1
tp15
a(S'no_lh'
I1
tp16
a(S'no_cv'
I1
tp17
a(S'tr_lh'
I1
tp18
a(S'p1_sp'
I7
tp19
a(S'p1_sn'
I1
tp20
a(S'p2_sp'
I7
tp21
a(S'p2_sn'
I1
tp22
a(S'p1_tl'
I240
tp23
a(S'p2_tl'
I240
tp24
a(S'tr_tl'
I240
tp25
a(S'no_nl'
I1
tp26
a(S'p1_ll'
I1
tp27
a(S'p2_ll'
I1
tp28
a(S'tr_ll'
I1
tp29
a(S'no_ll'
I1
tp30
a(S'w'
I58
tp31
a(S'p1_du'
I2
tp32
a(S'p1_vo'
I7
tp33
a(S'w'
I3
tp34
a(S'p1_tl'
I252
tp35
a(S'w'
I1
tp36
a(S'p1_ll'
I1
tp37
a(S'p1_th'
I1
tp38
a(S'w'
I2
tp39
a(S'w'
I7
tp40
a(S'tr_lr'
I127
tp41
a(S'w'
I1
tp42
a(S'tr_tl'
I252
tp43
a(S'w'
I1
tp44
a(S'tr_ll'
I1
tp45
a(S'tr_th'
I1
tp46
a(S'w'
I2
tp47
a(S'w'
I1410
tp48
a(S'p1_vo'
I6
tp49
a(S'w'
I1468
tp50
a(S'p1_vo'
I5
tp51
a(S'w'
I1467
tp52
a(S'p1_vo'
I4
tp53
a(S'w'
I1468
tp54
a(S'p1_vo'
I3
tp55
a(S'w'
I741
tp56
a(S'p1_du'
I3
tp57
a(S'p1_vo'
I0
tp58
a(S'w'
I5
tp59
a(S'tr_lr'
I0
tp60
a(S'w'
I2201
tp61
a(S'p1_du'
I2
tp62
a(S'p1_vo'
I7
tp63
a(S'w'
I4
tp64
a(S'p1_tl'
I172
tp65
a(S'w'
I1
tp66
a(S'p1_ll'
I1
tp67
a(S'w'
I9
tp68
a(S'tr_lr'
I127
tp69
a(S'w'
I1
tp70
a(S'tr_tl'
I172
tp71
a(S'w'
I1
tp72
a(S'tr_ll'
I1
tp73
a(S'w'
I1440
tp74
a(S'p1_vo'
I6
tp75
a(S'w'
I1467
tp76
a(S'p1_vo'
I5
tp77
a(S'w'
I1468
tp78
a(S'p1_vo'
I4
tp79
a(S'w'
I1467
tp80
a(S'p1_vo'
I3
tp81
a(S'w'
I741
tp82
a(S'p1_du'
I3
tp83
a(S'p1_vo'
I0
tp84
a(S'w'
I5
tp85
a(S'tr_lr'
I0
tp86
a(S'w'
I2202
tp87
a(S'p1_du'
I2
tp88
a(S'p1_vo'
I7
tp89
a(S'w'
I4
tp90
a(S'p1_tl'
I197
tp91
a(S'w'
I1
tp92
a(S'p1_ll'
I1
tp93
a(S'w'
I9
tp94
a(S'tr_lr'
I127
tp95
a(S'w'
I1
tp96
a(S'tr_tl'
I197
tp97
a(S'w'
I1
tp98
a(S'tr_ll'
I1
tp99
a(S'w'
I1439
tp100
a(S'p1_vo'
I6
tp101
a(S'w'
I1468
tp102
a(S'p1_vo'
I5
tp103
a(S'w'
I1467
tp104
a(S'p1_vo'
I4
tp105
a(S'w'
I1468
tp106
a(S'p1_vo'
I3
tp107
a(S'w'
I741
tp108
a(S'p1_du'
I3
tp109
a(S'p1_vo'
I0
tp110
a(S'w'
I5
tp111
a(S'tr_lr'
I0
tp112
a(S'w'
I2201
tp113
a(S'p1_du'
I2
tp114
a(S'p1_vo'
I7
tp115
a(S'w'
I4
tp116
a(S'p1_tl'
I172
tp117
a(S'w'
I1
tp118
a(S'p1_ll'
I1
tp119
a(S'w'
I9
tp120
a(S'tr_lr'
I127
tp121
a(S'w'
I1
tp122
a(S'tr_tl'
I172
tp123
a(S'w'
I1
tp124
a(S'tr_ll'
I1
tp125
a(S'w'
I1440
tp126
a(S'p1_vo'
I6
tp127
a(S'w'
I1467
tp128
a(S'p1_vo'
I5
tp129
a(S'w'
I1468
tp130
a(S'p1_vo'
I4
tp131
a(S'w'
I1467
tp132
a(S'p1_vo'
I3
tp133
a(S'w'
I741
tp134
a(S'p1_du'
I3
tp135
a(S'p1_vo'
I0
tp136
a(S'w'
I5
tp137
a(S'tr_lr'
I0
tp138
a(S'w'
I2209
tp139
a.