(lp1
(S'clock'
p2
I1789772
tp3
a(S'w'
I1
tp4
a(S'ch_no'
I1
tp5
a(S'ch_tr'
I1
tp6
a(S'ch_p2'
I1
tp7
a(S'ch_p1'
I1
tp8
a(S'fc_mo'
I1
tp9
a(S'w'
I4
tp10
a(S'p1_du'
I2
tp11
a(S'p1_cv'
I1
tp12
a(S'p2_du'
I2
tp13
a(S'p2_cv'
I1
tp14
a(S'w'
I3
tp15
a(S'p1_tl'
I28
tp16
a(S'p1_ll'
I1
tp17
a(S'p1_th'
I1
tp18
a(S'w'
I1
tp19
a(S'p1_du'
I0
tp20
a(S'p1_cv'
I0
tp21
a(S'p1_vo'
I6
tp22
a(S'p1_sp'
I7
tp23
a(S'p1_sn'
I1
tp24
a(S'p1_ss'
I7
tp25
a(S'w'
I3
tp26
a(S'p2_sp'
I7
tp27
a(S'p2_sn'
I1
tp28
a(S'p2_ss'
I7
tp29
a(S'w'
I2
tp30
a(S'tr_lr'
I64
tp31
a(S'w'
I1
tp32
a(S'tr_tl'
I171
tp33
a(S'tr_ll'
I1
tp34
a(S'tr_th'
I1
tp35
a(S'w'
I11730
tp36
a(S'p1_ll'
I1
tp37
a(S'w'
I5870
tp38
a(S'p1_tl'
I225
tp39
a(S'p1_ll'
I1
tp40
a(S'p1_th'
I0
tp41
a(S'w'
I5870
tp42
a(S'p1_tl'
I212
tp43
a(S'p1_ll'
I1
tp44
a(S'w'
I5
tp45
a(S'tr_tl'
I63
tp46
a(S'tr_ll'
I1
tp47
a(S'w'
I5865
tp48
a(S'p1_tl'
I225
tp49
a(S'p1_ll'
I1
tp50
a(S'w'
I5871
tp51
a(S'p1_tl'
I28
tp52
a(S'p1_ll'
I1
tp53
a(S'p1_th'
I1
tp54
a(S'w'
I5870
tp55
a(S'p1_tl'
I63
tp56
a(S'p1_ll'
I1
tp57
a(S'w'
I5870
tp58
a(S'p1_tl'
I225
tp59
a(S'p1_ll'
I1
tp60
a(S'p1_th'
I0
tp61
a(S'w'
I8
tp62
a(S'tr_tl'
I28
tp63
a(S'tr_ll'
I1
tp64
a(S'w'
I5863
tp65
a(S'p1_tl'
I28
tp66
a(S'p1_ll'
I1
tp67
a(S'p1_th'
I1
tp68
a(S'w'
I5870
tp69
a(S'p1_tl'
I63
tp70
a(S'p1_ll'
I1
tp71
a(S'w'
I5870
tp72
a(S'p1_tl'
I82
tp73
a(S'p1_ll'
I1
tp74
a(S'w'
I5872
tp75
a(S'p1_tl'
I171
tp76
a(S'p1_ll'
I1
tp77
a(S'w'
I1
tp78
a(S'p1_vo'
I9
tp79
a(S'w'
I4
tp80
a(S'tr_tl'
I171
tp81
a(S'tr_ll'
I1
tp82
a(S'w'
I71882
tp83
a.