(lp1
(S'clock'
p2
I1789772
tp3
a(S'fc_mo'
I1
tp4
a(S'p1_lh'
I1
tp5
a(S'p1_cv'
I1
tp6
a(S'p1_sp'
I3
tp7
a(S'p2_lh'
I1
tp8
a(S'p2_cv'
I1
tp9
a(S'p2_sp'
I3
tp10
a(S'no_lh'
I1
tp11
a(S'no_cv'
I1
tp12
a(S'w'
I8
tp13
a(S'p1_vo'
I4
tp14
a(S'w'
I1
tp15
a(S'p1_vo'
I0
tp16
a(S'w'
I8
tp17
a(S'p2_du'
I2
tp18
a(S'p2_vo'
I12
tp19
a(S'p2_du'
I0
tp20
a(S'p2_vo'
I0
tp21
a(S'w'
I8
tp22
a(S'tr_lr'
I74
tp23
a(S'w'
I1
tp24
a(S'tr_lr'
I0
tp25
a(S'w'
I6
tp26
a(S'no_vo'
I3
tp27
a(S'w'
I1
tp28
a(S'no_ll'
I1
tp29
a(S'no_np'
I4
tp30
a(S'w'
I714
tp31
a(S'no_vo'
I10
tp32
a(S'w'
I2
tp33
a(S'no_np'
I8
tp34
a(S'w'
I732
tp35
a(S'no_vo'
I3
tp36
a(S'w'
I2
tp37
a(S'w'
I734
tp38
a(S'no_np'
I4
tp39
a(S'w'
I730
tp40
a(S'no_vo'
I0
tp41
a(S'w'
I32281
tp42
a(S'p1_vo'
I4
tp43
a(S'w'
I4
tp44
a(S'p1_ll'
I1
tp45
a(S'w'
I1
tp46
a(S'p1_tl'
I127
tp47
a(S'w'
I5
tp48
a(S'p2_du'
I2
tp49
a(S'p2_vo'
I12
tp50
a(S'w'
I4
tp51
a(S'p2_ll'
I1
tp52
a(S'p2_tl'
I254
tp53
a(S'w'
I6
tp54
a(S'tr_lr'
I74
tp55
a(S'w'
I3
tp56
a(S'tr_ll'
I1
tp57
a(S'tr_tl'
I254
tp58
a(S'w'
I709
tp59
a(S'p1_vo'
I3
tp60
a(S'w'
I5
tp61
a(S'p2_vo'
I11
tp62
a(S'w'
I729
tp63
a(S'p1_vo'
I2
tp64
a(S'w'
I5
tp65
a(S'p2_vo'
I10
tp66
a(S'w'
I733
tp67
a(S'p2_vo'
I9
tp68
a(S'w'
I734
tp69
a(S'p2_vo'
I8
tp70
a(S'w'
I2931
tp71
a(S'p1_vo'
I1
tp72
a(S'w'
I734
tp73
a(S'p1_vo'
I0
tp74
a(S'w'
I2202
tp75
a(S'p1_vo'
I4
tp76
a(S'w'
I5
tp77
a(S'w'
I728
tp78
a(S'p1_vo'
I3
tp79
a(S'w'
I734
tp80
a(S'p1_vo'
I2
tp81
a(S'w'
I5
tp82
a(S'p2_vo'
I7
tp83
a(S'w'
I732
tp84
a(S'p2_vo'
I6
tp85
a(S'w'
I734
tp86
a(S'p2_vo'
I5
tp87
a(S'w'
I734
tp88
a(S'p2_vo'
I4
tp89
a(S'w'
I734
tp90
a(S'p2_vo'
I3
tp91
a(S'w'
I734
tp92
a(S'p2_vo'
I2
tp93
a(S'w'
I729
tp94
a(S'p1_vo'
I1
tp95
a(S'w'
I5
tp96
a(S'p2_vo'
I1
tp97
a(S'w'
I729
tp98
a(S'p1_vo'
I0
tp99
a(S'w'
I5
tp100
a(S'p2_vo'
I0
tp101
a(S'w'
I2200
tp102
a(S'p1_vo'
I7
tp103
a(S'w'
I5
tp104
a(S'p1_tl'
I63
tp105
a(S'w'
I6
tp106
a(S'p2_vo'
I12
tp107
a(S'w'
I4
tp108
a(S'p2_tl'
I169
tp109
a(S'w'
I8
tp110
a(S'tr_ll'
I1
tp111
a(S'w'
I707
tp112
a(S'p1_vo'
I6
tp113
a(S'w'
I5
tp114
a(S'p2_vo'
I11
tp115
a(S'w'
I729
tp116
a(S'p1_vo'
I5
tp117
a(S'w'
I5
tp118
a(S'p2_vo'
I10
tp119
a(S'w'
I733
tp120
a(S'p2_vo'
I9
tp121
a(S'w'
I734
tp122
a(S'p2_vo'
I8
tp123
a(S'w'
I733
tp124
a(S'p2_vo'
I7
tp125
a(S'w'
I734
tp126
a(S'p2_vo'
I6
tp127
a(S'w'
I734
tp128
a(S'p2_vo'
I5
tp129
a(S'w'
I730
tp130
a(S'p1_vo'
I4
tp131
a(S'w'
I5
tp132
a(S'p2_vo'
I4
tp133
a(S'w'
I729
tp134
a(S'p1_vo'
I3
tp135
a(S'w'
I5
tp136
a(S'p2_vo'
I3
tp137
a(S'w'
I728
tp138
a(S'p1_vo'
I2
tp139
a(S'w'
I5
tp140
a(S'p2_vo'
I2
tp141
a(S'w'
I729
tp142
a(S'p1_vo'
I1
tp143
a(S'w'
I5
tp144
a(S'p2_vo'
I1
tp145
a(S'w'
I732
tp146
a(S'p1_vo'
I4
tp147
a(S'w'
I4
tp148
a(S'p1_tl'
I127
tp149
a(S'w'
I6
tp150
a(S'p2_vo'
I12
tp151
a(S'w'
I5
tp152
a(S'p2_tl'
I190
tp153
a(S'w'
I8
tp154
a(S'tr_ll'
I1
tp155
a(S'tr_th'
I1
tp156
a(S'tr_tl'
I83
tp157
a(S'w'
I708
tp158
a(S'p1_vo'
I3
tp159
a(S'w'
I5
tp160
a(S'p2_vo'
I11
tp161
a(S'w'
I729
tp162
a(S'p1_vo'
I2
tp163
a(S'w'
I5
tp164
a(S'p2_vo'
I10
tp165
a(S'w'
I732
tp166
a(S'p2_vo'
I9
tp167
a(S'w'
I734
tp168
a(S'p2_vo'
I8
tp169
a(S'w'
I2931
tp170
a(S'p1_vo'
I1
tp171
a(S'w'
I734
tp172
a(S'p1_vo'
I0
tp173
a(S'w'
I2206
tp174
a(S'p1_vo'
I4
tp175
a(S'w'
I4
tp176
a(S'w'
I725
tp177
a(S'p1_vo'
I3
tp178
a(S'w'
I734
tp179
a(S'p1_vo'
I2
tp180
a(S'w'
I5
tp181
a(S'p2_vo'
I7
tp182
a(S'w'
I733
tp183
a(S'p2_vo'
I6
tp184
a(S'w'
I734
tp185
a(S'p2_vo'
I5
tp186
a(S'w'
I733
tp187
a(S'p2_vo'
I4
tp188
a(S'w'
I734
tp189
a(S'p2_vo'
I3
tp190
a(S'w'
I734
tp191
a(S'p2_vo'
I2
tp192
a(S'w'
I730
tp193
a(S'p1_vo'
I1
tp194
a(S'w'
I5
tp195
a(S'p2_vo'
I1
tp196
a(S'w'
I729
tp197
a(S'p1_vo'
I0
tp198
a(S'w'
I5
tp199
a(S'p2_vo'
I0
tp200
a(S'w'
I2197
tp201
a(S'p1_vo'
I4
tp202
a(S'w'
I5
tp203
a(S'w'
I5
tp204
a(S'p2_vo'
I12
tp205
a(S'w'
I5
tp206
a(S'p2_tl'
I213
tp207
a(S'w'
I8
tp208
a(S'tr_ll'
I1
tp209
a(S'w'
I710
tp210
a(S'p1_vo'
I3
tp211
a(S'w'
I5
tp212
a(S'p2_vo'
I11
tp213
a(S'w'
I729
tp214
a(S'p1_vo'
I2
tp215
a(S'w'
I5
tp216
a(S'p2_vo'
I10
tp217
a(S'w'
I732
tp218
a(S'p2_vo'
I9
tp219
a(S'w'
I734
tp220
a(S'p2_vo'
I8
tp221
a(S'w'
I734
tp222
a(S'p2_vo'
I7
tp223
a(S'w'
I734
tp224
a(S'p2_vo'
I6
tp225
a(S'w'
I734
tp226
a(S'p2_vo'
I5
tp227
a(S'w'
I729
tp228
a(S'p1_vo'
I1
tp229
a(S'w'
I5
tp230
a(S'p2_vo'
I4
tp231
a(S'w'
I729
tp232
a(S'p1_vo'
I0
tp233
a(S'w'
I5
tp234
a(S'p2_vo'
I3
tp235
a(S'w'
I733
tp236
a(S'p2_vo'
I2
tp237
a(S'w'
I734
tp238
a(S'p2_vo'
I1
tp239
a(S'w'
I733
tp240
a(S'p1_vo'
I7
tp241
a(S'w'
I5
tp242
a(S'p1_tl'
I63
tp243
a(S'w'
I6
tp244
a(S'p2_vo'
I12
tp245
a(S'w'
I4
tp246
a(S'p2_tl'
I226
tp247
a(S'w'
I8
tp248
a(S'tr_ll'
I1
tp249
a(S'w'
I707
tp250
a(S'p1_vo'
I6
tp251
a(S'w'
I5
tp252
a(S'p2_vo'
I11
tp253
a(S'w'
I729
tp254
a(S'p1_vo'
I5
tp255
a(S'w'
I5
tp256
a(S'p2_vo'
I10
tp257
a(S'w'
I733
tp258
a(S'p2_vo'
I9
tp259
a(S'w'
I734
tp260
a(S'p2_vo'
I8
tp261
a(S'w'
I733
tp262
a(S'p2_vo'
I7
tp263
a(S'w'
I734
tp264
a(S'p2_vo'
I6
tp265
a(S'w'
I734
tp266
a(S'p2_vo'
I5
tp267
a(S'w'
I730
tp268
a(S'p1_vo'
I4
tp269
a(S'w'
I5
tp270
a(S'p2_vo'
I4
tp271
a(S'w'
I729
tp272
a(S'p1_vo'
I3
tp273
a(S'w'
I5
tp274
a(S'p2_vo'
I3
tp275
a(S'w'
I728
tp276
a(S'p1_vo'
I2
tp277
a(S'w'
I5
tp278
a(S'p2_vo'
I2
tp279
a(S'w'
I729
tp280
a(S'p1_vo'
I1
tp281
a(S'w'
I5
tp282
a(S'p2_vo'
I1
tp283
a(S'w'
I732
tp284
a(S'p1_vo'
I4
tp285
a(S'w'
I4
tp286
a(S'p1_tl'
I127
tp287
a(S'w'
I6
tp288
a(S'p2_vo'
I12
tp289
a(S'w'
I5
tp290
a(S'p2_tl'
I213
tp291
a(S'w'
I716
tp292
a(S'p1_vo'
I3
tp293
a(S'w'
I5
tp294
a(S'p2_vo'
I11
tp295
a(S'w'
I729
tp296
a(S'p1_vo'
I2
tp297
a(S'w'
I5
tp298
a(S'p2_vo'
I10
tp299
a(S'w'
I732
tp300
a(S'p2_vo'
I9
tp301
a(S'w'
I734
tp302
a(S'p2_vo'
I8
tp303
a(S'w'
I2931
tp304
a(S'p1_vo'
I1
tp305
a(S'w'
I734
tp306
a(S'p1_vo'
I0
tp307
a(S'w'
I2206
tp308
a(S'p1_vo'
I4
tp309
a(S'w'
I4
tp310
a(S'w'
I12
tp311
a(S'tr_ll'
I1
tp312
a(S'tr_tl'
I64
tp313
a(S'w'
I713
tp314
a(S'p1_vo'
I3
tp315
a(S'w'
I734
tp316
a(S'p1_vo'
I2
tp317
a(S'w'
I5
tp318
a(S'p2_vo'
I7
tp319
a(S'w'
I733
tp320
a(S'p2_vo'
I6
tp321
a(S'w'
I734
tp322
a(S'p2_vo'
I5
tp323
a(S'w'
I733
tp324
a(S'p2_vo'
I4
tp325
a(S'w'
I734
tp326
a(S'p2_vo'
I3
tp327
a(S'w'
I734
tp328
a(S'p2_vo'
I2
tp329
a(S'w'
I730
tp330
a(S'p1_vo'
I1
tp331
a(S'w'
I5
tp332
a(S'p2_vo'
I1
tp333
a(S'w'
I729
tp334
a(S'p1_vo'
I0
tp335
a(S'w'
I5
tp336
a(S'p2_vo'
I0
tp337
a(S'w'
I2197
tp338
a(S'p1_vo'
I4
tp339
a(S'w'
I5
tp340
a(S'w'
I5
tp341
a(S'p2_vo'
I12
tp342
a(S'w'
I4
tp343
a(S'p2_tl'
I226
tp344
a(S'w'
I8
tp345
a(S'tr_ll'
I1
tp346
a(S'w'
I1
tp347
a(S'tr_tl'
I83
tp348
a(S'w'
I710
tp349
a(S'p1_vo'
I3
tp350
a(S'w'
I5
tp351
a(S'p2_vo'
I11
tp352
a(S'w'
I729
tp353
a(S'p1_vo'
I2
tp354
a(S'w'
I5
tp355
a(S'p2_vo'
I10
tp356
a(S'w'
I732
tp357
a(S'p2_vo'
I9
tp358
a(S'w'
I734
tp359
a(S'p2_vo'
I8
tp360
a(S'w'
I734
tp361
a(S'p2_vo'
I7
tp362
a(S'w'
I734
tp363
a(S'p2_vo'
I6
tp364
a(S'w'
I734
tp365
a(S'p2_vo'
I5
tp366
a(S'w'
I729
tp367
a(S'p1_vo'
I1
tp368
a(S'w'
I5
tp369
a(S'p2_vo'
I4
tp370
a(S'w'
I729
tp371
a(S'p1_vo'
I0
tp372
a(S'w'
I5
tp373
a(S'p2_vo'
I3
tp374
a(S'w'
I733
tp375
a(S'p2_vo'
I2
tp376
a(S'w'
I734
tp377
a(S'p2_vo'
I1
tp378
a(S'w'
I733
tp379
a(S'p1_vo'
I7
tp380
a(S'w'
I5
tp381
a(S'p1_tl'
I63
tp382
a(S'w'
I5
tp383
a(S'p2_vo'
I12
tp384
a(S'w'
I4
tp385
a(S'p2_tl'
I254
tp386
a(S'w'
I8
tp387
a(S'tr_ll'
I1
tp388
a(S'w'
I1
tp389
a(S'tr_tl'
I125
tp390
a(S'w'
I707
tp391
a(S'p1_vo'
I6
tp392
a(S'w'
I5
tp393
a(S'p2_vo'
I11
tp394
a(S'w'
I729
tp395
a(S'p1_vo'
I5
tp396
a(S'w'
I5
tp397
a(S'p2_vo'
I10
tp398
a(S'w'
I733
tp399
a(S'p2_vo'
I9
tp400
a(S'w'
I734
tp401
a(S'p2_vo'
I8
tp402
a(S'w'
I733
tp403
a(S'p2_vo'
I7
tp404
a(S'w'
I734
tp405
a(S'p2_vo'
I6
tp406
a(S'w'
I734
tp407
a(S'p2_vo'
I5
tp408
a(S'w'
I730
tp409
a(S'p1_vo'
I4
tp410
a(S'w'
I5
tp411
a(S'p2_vo'
I4
tp412
a(S'w'
I729
tp413
a(S'p1_vo'
I3
tp414
a(S'w'
I5
tp415
a(S'p2_vo'
I3
tp416
a(S'w'
I728
tp417
a(S'p1_vo'
I2
tp418
a(S'w'
I5
tp419
a(S'p2_vo'
I2
tp420
a(S'w'
I729
tp421
a(S'p1_vo'
I1
tp422
a(S'w'
I5
tp423
a(S'p2_vo'
I1
tp424
a(S'w'
I732
tp425
a(S'p1_vo'
I4
tp426
a(S'w'
I4
tp427
a(S'p1_tl'
I127
tp428
a(S'w'
I6
tp429
a(S'p2_vo'
I12
tp430
a(S'w'
I4
tp431
a(S'p2_tl'
I226
tp432
a(S'w'
I8
tp433
a(S'tr_ll'
I1
tp434
a(S'w'
I1
tp435
a(S'tr_tl'
I29
tp436
a(S'w'
I708
tp437
a(S'p1_vo'
I3
tp438
a(S'w'
I5
tp439
a(S'p2_vo'
I11
tp440
a(S'w'
I729
tp441
a(S'p1_vo'
I2
tp442
a(S'w'
I5
tp443
a(S'p2_vo'
I10
tp444
a(S'w'
I732
tp445
a(S'p2_vo'
I9
tp446
a(S'w'
I734
tp447
a(S'p2_vo'
I8
tp448
a(S'w'
I2931
tp449
a(S'p1_vo'
I1
tp450
a(S'w'
I734
tp451
a(S'p1_vo'
I0
tp452
a(S'w'
I2206
tp453
a(S'p1_vo'
I4
tp454
a(S'w'
I4
tp455
a(S'w'
I725
tp456
a(S'p1_vo'
I3
tp457
a(S'w'
I734
tp458
a(S'p1_vo'
I2
tp459
a(S'w'
I5
tp460
a(S'p2_vo'
I7
tp461
a(S'w'
I733
tp462
a(S'p2_vo'
I6
tp463
a(S'w'
I734
tp464
a(S'p2_vo'
I5
tp465
a(S'w'
I733
tp466
a(S'p2_vo'
I4
tp467
a(S'w'
I734
tp468
a(S'p2_vo'
I3
tp469
a(S'w'
I734
tp470
a(S'p2_vo'
I2
tp471
a(S'w'
I730
tp472
a(S'p1_vo'
I1
tp473
a(S'w'
I5
tp474
a(S'p2_vo'
I1
tp475
a(S'w'
I729
tp476
a(S'p1_vo'
I0
tp477
a(S'w'
I5
tp478
a(S'p2_vo'
I0
tp479
a(S'w'
I2197
tp480
a(S'p1_vo'
I4
tp481
a(S'w'
I5
tp482
a(S'w'
I5
tp483
a(S'p2_vo'
I12
tp484
a(S'w'
I4
tp485
a(S'p2_tl'
I254
tp486
a(S'w'
I8
tp487
a(S'tr_ll'
I1
tp488
a(S'tr_tl'
I83
tp489
a(S'w'
I711
tp490
a(S'p1_vo'
I3
tp491
a(S'w'
I5
tp492
a(S'p2_vo'
I11
tp493
a(S'w'
I729
tp494
a(S'p1_vo'
I2
tp495
a(S'w'
I5
tp496
a(S'p2_vo'
I10
tp497
a(S'w'
I732
tp498
a(S'p2_vo'
I9
tp499
a(S'w'
I734
tp500
a(S'p2_vo'
I8
tp501
a(S'w'
I734
tp502
a(S'p2_vo'
I7
tp503
a(S'w'
I734
tp504
a(S'p2_vo'
I6
tp505
a(S'w'
I734
tp506
a(S'p2_vo'
I5
tp507
a(S'w'
I729
tp508
a(S'p1_vo'
I1
tp509
a(S'w'
I5
tp510
a(S'p2_vo'
I4
tp511
a(S'w'
I729
tp512
a(S'p1_vo'
I0
tp513
a(S'w'
I5
tp514
a(S'p2_vo'
I3
tp515
a(S'w'
I733
tp516
a(S'p2_vo'
I2
tp517
a(S'w'
I734
tp518
a(S'p2_vo'
I1
tp519
a(S'w'
I733
tp520
a(S'p1_vo'
I7
tp521
a(S'w'
I5
tp522
a(S'p1_tl'
I63
tp523
a(S'w'
I6
tp524
a(S'p2_vo'
I12
tp525
a(S'w'
I3
tp526
a(S'p2_ll'
I1
tp527
a(S'p2_th'
I1
tp528
a(S'p2_tl'
I29
tp529
a(S'w'
I9
tp530
a(S'tr_ll'
I1
tp531
a(S'tr_tl'
I29
tp532
a(S'w'
I707
tp533
a(S'p1_vo'
I6
tp534
a(S'w'
I5
tp535
a(S'p2_vo'
I11
tp536
a(S'w'
I729
tp537
a(S'p1_vo'
I5
tp538
a(S'w'
I5
tp539
a(S'p2_vo'
I10
tp540
a(S'w'
I733
tp541
a(S'p2_vo'
I9
tp542
a(S'w'
I734
tp543
a(S'p2_vo'
I8
tp544
a(S'w'
I2931
tp545
a(S'p1_vo'
I4
tp546
a(S'w'
I734
tp547
a(S'p1_vo'
I3
tp548
a(S'w'
I733
tp549
a(S'p1_vo'
I2
tp550
a(S'w'
I734
tp551
a(S'p1_vo'
I1
tp552
a(S'w'
I737
tp553
a(S'p1_vo'
I4
tp554
a(S'w'
I4
tp555
a(S'p1_tl'
I127
tp556
a(S'w'
I727
tp557
a(S'p1_vo'
I3
tp558
a(S'w'
I734
tp559
a(S'p1_vo'
I2
tp560
a(S'w'
I5
tp561
a(S'p2_vo'
I7
tp562
a(S'w'
I732
tp563
a(S'p2_vo'
I6
tp564
a(S'w'
I734
tp565
a(S'p2_vo'
I5
tp566
a(S'w'
I734
tp567
a(S'p2_vo'
I4
tp568
a(S'w'
I734
tp569
a(S'p2_vo'
I3
tp570
a(S'w'
I734
tp571
a(S'p2_vo'
I2
tp572
a(S'w'
I729
tp573
a(S'p1_vo'
I1
tp574
a(S'w'
I5
tp575
a(S'p2_vo'
I1
tp576
a(S'w'
I729
tp577
a(S'p1_vo'
I0
tp578
a(S'w'
I5
tp579
a(S'p2_vo'
I0
tp580
a(S'w'
I2201
tp581
a(S'p1_vo'
I4
tp582
a(S'w'
I4
tp583
a(S'w'
I6
tp584
a(S'p2_vo'
I12
tp585
a(S'w'
I4
tp586
a(S'p2_ll'
I1
tp587
a(S'p2_th'
I0
tp588
a(S'p2_tl'
I254
tp589
a(S'w'
I8
tp590
a(S'tr_ll'
I1
tp591
a(S'tr_th'
I0
tp592
a(S'tr_tl'
I254
tp593
a(S'w'
I707
tp594
a(S'p1_vo'
I3
tp595
a(S'w'
I5
tp596
a(S'p2_vo'
I11
tp597
a(S'w'
I729
tp598
a(S'p1_vo'
I2
tp599
a(S'w'
I5
tp600
a(S'p2_vo'
I10
tp601
a(S'w'
I733
tp602
a(S'p2_vo'
I9
tp603
a(S'w'
I734
tp604
a(S'p2_vo'
I8
tp605
a(S'w'
I733
tp606
a(S'p2_vo'
I7
tp607
a(S'w'
I734
tp608
a(S'p2_vo'
I6
tp609
a(S'w'
I734
tp610
a(S'p2_vo'
I5
tp611
a(S'w'
I730
tp612
a(S'p1_vo'
I1
tp613
a(S'w'
I5
tp614
a(S'p2_vo'
I4
tp615
a(S'w'
I729
tp616
a(S'p1_vo'
I0
tp617
a(S'w'
I5
tp618
a(S'p2_vo'
I3
tp619
a(S'w'
I732
tp620
a(S'p2_vo'
I2
tp621
a(S'w'
I734
tp622
a(S'p2_vo'
I1
tp623
a(S'w'
I731
tp624
a(S'p1_vo'
I4
tp625
a(S'w'
I5
tp626
a(S'w'
I5
tp627
a(S'p2_vo'
I12
tp628
a(S'w'
I4
tp629
a(S'w'
I719
tp630
a(S'p1_vo'
I3
tp631
a(S'w'
I5
tp632
a(S'p2_vo'
I11
tp633
a(S'w'
I729
tp634
a(S'p1_vo'
I2
tp635
a(S'w'
I5
tp636
a(S'p2_vo'
I10
tp637
a(S'w'
I732
tp638
a(S'p2_vo'
I9
tp639
a(S'w'
I734
tp640
a(S'p2_vo'
I8
tp641
a(S'w'
I734
tp642
a(S'p2_vo'
I7
tp643
a(S'w'
I734
tp644
a(S'p2_vo'
I6
tp645
a(S'w'
I734
tp646
a(S'p2_vo'
I5
tp647
a(S'w'
I729
tp648
a(S'p1_vo'
I1
tp649
a(S'w'
I5
tp650
a(S'p2_vo'
I4
tp651
a(S'w'
I729
tp652
a(S'p1_vo'
I0
tp653
a(S'w'
I5
tp654
a(S'p2_vo'
I3
tp655
a(S'w'
I733
tp656
a(S'p2_vo'
I2
tp657
a(S'w'
I734
tp658
a(S'p2_vo'
I1
tp659
a(S'w'
I733
tp660
a(S'p1_vo'
I7
tp661
a(S'w'
I5
tp662
a(S'p1_tl'
I63
tp663
a(S'w'
I6
tp664
a(S'p2_vo'
I12
tp665
a(S'w'
I4
tp666
a(S'p2_tl'
I169
tp667
a(S'w'
I8
tp668
a(S'tr_ll'
I1
tp669
a(S'w'
I707
tp670
a(S'p1_vo'
I6
tp671
a(S'w'
I5
tp672
a(S'p2_vo'
I11
tp673
a(S'w'
I729
tp674
a(S'p1_vo'
I5
tp675
a(S'w'
I5
tp676
a(S'p2_vo'
I10
tp677
a(S'w'
I733
tp678
a(S'p2_vo'
I9
tp679
a(S'w'
I734
tp680
a(S'p2_vo'
I8
tp681
a(S'w'
I733
tp682
a(S'p2_vo'
I7
tp683
a(S'w'
I734
tp684
a(S'p2_vo'
I6
tp685
a(S'w'
I734
tp686
a(S'p2_vo'
I5
tp687
a(S'w'
I730
tp688
a(S'p1_vo'
I4
tp689
a(S'w'
I5
tp690
a(S'p2_vo'
I4
tp691
a(S'w'
I729
tp692
a(S'p1_vo'
I3
tp693
a(S'w'
I5
tp694
a(S'p2_vo'
I3
tp695
a(S'w'
I728
tp696
a(S'p1_vo'
I2
tp697
a(S'w'
I5
tp698
a(S'p2_vo'
I2
tp699
a(S'w'
I729
tp700
a(S'p1_vo'
I1
tp701
a(S'w'
I5
tp702
a(S'p2_vo'
I1
tp703
a(S'w'
I732
tp704
a(S'p1_vo'
I4
tp705
a(S'w'
I4
tp706
a(S'p1_tl'
I127
tp707
a(S'w'
I6
tp708
a(S'p2_vo'
I12
tp709
a(S'w'
I5
tp710
a(S'p2_tl'
I190
tp711
a(S'w'
I8
tp712
a(S'tr_ll'
I1
tp713
a(S'tr_th'
I1
tp714
a(S'tr_tl'
I83
tp715
a(S'w'
I708
tp716
a(S'p1_vo'
I3
tp717
a(S'w'
I5
tp718
a(S'p2_vo'
I11
tp719
a(S'w'
I729
tp720
a(S'p1_vo'
I2
tp721
a(S'w'
I5
tp722
a(S'p2_vo'
I10
tp723
a(S'w'
I732
tp724
a(S'p2_vo'
I9
tp725
a(S'w'
I734
tp726
a(S'p2_vo'
I8
tp727
a(S'w'
I2931
tp728
a(S'p1_vo'
I1
tp729
a(S'w'
I734
tp730
a(S'p1_vo'
I0
tp731
a(S'w'
I2206
tp732
a(S'p1_vo'
I4
tp733
a(S'w'
I4
tp734
a(S'w'
I12
tp735
a(S'tr_ll'
I1
tp736
a(S'w'
I713
tp737
a(S'p1_vo'
I3
tp738
a(S'w'
I734
tp739
a(S'p1_vo'
I2
tp740
a(S'w'
I5
tp741
a(S'p2_vo'
I7
tp742
a(S'w'
I733
tp743
a(S'p2_vo'
I6
tp744
a(S'w'
I734
tp745
a(S'p2_vo'
I5
tp746
a(S'w'
I733
tp747
a(S'p2_vo'
I4
tp748
a(S'w'
I734
tp749
a(S'p2_vo'
I3
tp750
a(S'w'
I734
tp751
a(S'p2_vo'
I2
tp752
a(S'w'
I730
tp753
a(S'p1_vo'
I1
tp754
a(S'w'
I5
tp755
a(S'p2_vo'
I1
tp756
a(S'w'
I729
tp757
a(S'p1_vo'
I0
tp758
a(S'w'
I5
tp759
a(S'p2_vo'
I0
tp760
a(S'w'
I2197
tp761
a(S'p1_vo'
I4
tp762
a(S'w'
I5
tp763
a(S'w'
I8
tp764
a(S'p2_vo'
I12
tp765
a(S'w'
I5
tp766
a(S'p2_tl'
I142
tp767
a(S'w'
I8
tp768
a(S'tr_ll'
I1
tp769
a(S'w'
I707
tp770
a(S'p1_vo'
I3
tp771
a(S'w'
I5
tp772
a(S'p2_vo'
I11
tp773
a(S'w'
I729
tp774
a(S'p1_vo'
I2
tp775
a(S'w'
I5
tp776
a(S'p2_vo'
I10
tp777
a(S'w'
I732
tp778
a(S'p2_vo'
I9
tp779
a(S'w'
I734
tp780
a(S'p2_vo'
I8
tp781
a(S'w'
I2931
tp782
a(S'p1_vo'
I1
tp783
a(S'w'
I734
tp784
a(S'p1_vo'
I0
tp785
a(S'w'
I2205
tp786
a(S'p1_vo'
I7
tp787
a(S'w'
I5
tp788
a(S'p1_tl'
I63
tp789
a(S'w'
I12
tp790
a(S'tr_ll'
I1
tp791
a(S'tr_tl'
I64
tp792
a(S'w'
I713
tp793
a(S'p1_vo'
I6
tp794
a(S'w'
I734
tp795
a(S'p1_vo'
I5
tp796
a(S'w'
I4403
tp797
a(S'p1_vo'
I4
tp798
a(S'w'
I734
tp799
a(S'p1_vo'
I3
tp800
a(S'w'
I733
tp801
a(S'p1_vo'
I2
tp802
a(S'w'
I734
tp803
a(S'p1_vo'
I1
tp804
a(S'w'
I737
tp805
a(S'p1_vo'
I4
tp806
a(S'w'
I4
tp807
a(S'p1_tl'
I127
tp808
a(S'w'
I727
tp809
a(S'p1_vo'
I3
tp810
a(S'w'
I734
tp811
a(S'p1_vo'
I2
tp812
a(S'w'
I4402
tp813
a(S'p1_vo'
I1
tp814
a(S'w'
I734
tp815
a(S'p1_vo'
I0
tp816
a(S'w'
I2206
tp817
a(S'p1_vo'
I4
tp818
a(S'w'
I4
tp819
a(S'w'
I12
tp820
a(S'tr_ll'
I1
tp821
a(S'w'
I713
tp822
a(S'p1_vo'
I3
tp823
a(S'w'
I734
tp824
a(S'p1_vo'
I2
tp825
a(S'w'
I4403
tp826
a(S'p1_vo'
I1
tp827
a(S'w'
I734
tp828
a(S'p1_vo'
I0
tp829
a(S'w'
I2202
tp830
a(S'p1_vo'
I4
tp831
a(S'w'
I5
tp832
a(S'w'
I11
tp833
a(S'tr_ll'
I1
tp834
a(S'w'
I1
tp835
a(S'tr_tl'
I83
tp836
a(S'w'
I716
tp837
a(S'p1_vo'
I3
tp838
a(S'w'
I734
tp839
a(S'p1_vo'
I2
tp840
a(S'w'
I4402
tp841
a(S'p1_vo'
I1
tp842
a(S'w'
I734
tp843
a(S'p1_vo'
I0
tp844
a(S'w'
I2205
tp845
a(S'p1_vo'
I7
tp846
a(S'w'
I5
tp847
a(S'p1_tl'
I63
tp848
a(S'w'
I12
tp849
a(S'tr_ll'
I1
tp850
a(S'tr_tl'
I125
tp851
a(S'w'
I713
tp852
a(S'p1_vo'
I6
tp853
a(S'w'
I734
tp854
a(S'p1_vo'
I5
tp855
a(S'w'
I4403
tp856
a(S'p1_vo'
I4
tp857
a(S'w'
I734
tp858
a(S'p1_vo'
I3
tp859
a(S'w'
I733
tp860
a(S'p1_vo'
I2
tp861
a(S'w'
I734
tp862
a(S'p1_vo'
I1
tp863
a(S'w'
I737
tp864
a(S'p1_vo'
I4
tp865
a(S'w'
I4
tp866
a(S'p1_tl'
I127
tp867
a(S'w'
I12
tp868
a(S'tr_ll'
I1
tp869
a(S'w'
I1
tp870
a(S'tr_tl'
I29
tp871
a(S'w'
I714
tp872
a(S'p1_vo'
I3
tp873
a(S'w'
I734
tp874
a(S'p1_vo'
I2
tp875
a(S'w'
I4402
tp876
a(S'p1_vo'
I1
tp877
a(S'w'
I734
tp878
a(S'p1_vo'
I0
tp879
a(S'w'
I2206
tp880
a(S'p1_vo'
I4
tp881
a(S'w'
I4
tp882
a(S'w'
I725
tp883
a(S'p1_vo'
I3
tp884
a(S'w'
I734
tp885
a(S'p1_vo'
I2
tp886
a(S'w'
I4403
tp887
a(S'p1_vo'
I1
tp888
a(S'w'
I734
tp889
a(S'p1_vo'
I0
tp890
a(S'w'
I2202
tp891
a(S'p1_vo'
I4
tp892
a(S'w'
I5
tp893
a(S'w'
I11
tp894
a(S'tr_ll'
I1
tp895
a(S'w'
I717
tp896
a(S'p1_vo'
I3
tp897
a(S'w'
I734
tp898
a(S'p1_vo'
I2
tp899
a(S'w'
I4402
tp900
a(S'p1_vo'
I1
tp901
a(S'w'
I734
tp902
a(S'p1_vo'
I0
tp903
a(S'w'
I2205
tp904
a(S'p1_vo'
I7
tp905
a(S'w'
I5
tp906
a(S'p1_tl'
I63
tp907
a(S'w'
I12
tp908
a(S'tr_ll'
I1
tp909
a(S'tr_tl'
I13
tp910
a(S'w'
I713
tp911
a(S'p1_vo'
I6
tp912
a(S'w'
I734
tp913
a(S'p1_vo'
I5
tp914
a(S'w'
I4403
tp915
a(S'p1_vo'
I4
tp916
a(S'w'
I734
tp917
a(S'p1_vo'
I3
tp918
a(S'w'
I733
tp919
a(S'p1_vo'
I2
tp920
a(S'w'
I734
tp921
a(S'p1_vo'
I1
tp922
a(S'w'
I737
tp923
a(S'p1_vo'
I4
tp924
a(S'w'
I4
tp925
a(S'p1_tl'
I127
tp926
a(S'w'
I727
tp927
a(S'p1_vo'
I3
tp928
a(S'w'
I734
tp929
a(S'p1_vo'
I2
tp930
a(S'w'
I5
tp931
a(S'p2_vo'
I7
tp932
a(S'w'
I732
tp933
a(S'p2_vo'
I6
tp934
a(S'w'
I734
tp935
a(S'p2_vo'
I5
tp936
a(S'w'
I734
tp937
a(S'p2_vo'
I4
tp938
a(S'w'
I734
tp939
a(S'p2_vo'
I3
tp940
a(S'w'
I734
tp941
a(S'p2_vo'
I2
tp942
a(S'w'
I729
tp943
a(S'p1_vo'
I1
tp944
a(S'w'
I5
tp945
a(S'p2_vo'
I1
tp946
a(S'w'
I729
tp947
a(S'p1_vo'
I0
tp948
a(S'w'
I5
tp949
a(S'p2_vo'
I0
tp950
a(S'w'
I2202
tp951
a(S'p1_vo'
I3
tp952
a(S'w'
I5
tp953
a(S'w'
I7
tp954
a(S'p2_vo'
I8
tp955
a(S'w'
I4
tp956
a(S'p2_tl'
I254
tp957
a(S'w'
I8
tp958
a(S'tr_ll'
I1
tp959
a(S'tr_th'
I0
tp960
a(S'w'
I1
tp961
a(S'tr_tl'
I254
tp962
a(S'w'
I703
tp963
a(S'p1_vo'
I2
tp964
a(S'w'
I5
tp965
a(S'p2_vo'
I7
tp966
a(S'w'
I729
tp967
a(S'p1_vo'
I1
tp968
a(S'w'
I5
tp969
a(S'p2_vo'
I6
tp970
a(S'w'
I733
tp971
a(S'p2_vo'
I5
tp972
a(S'w'
I734
tp973
a(S'p2_vo'
I4
tp974
a(S'w'
I2931
tp975
a(S'p1_vo'
I0
tp976
a(S'w'
I2936
tp977
a(S'p1_vo'
I3
tp978
a(S'w'
I5
tp979
a(S'w'
I728
tp980
a(S'p1_vo'
I2
tp981
a(S'w'
I734
tp982
a(S'p1_vo'
I1
tp983
a(S'w'
I5
tp984
a(S'p2_vo'
I3
tp985
a(S'w'
I732
tp986
a(S'p2_vo'
I2
tp987
a(S'w'
I734
tp988
a(S'p2_vo'
I1
tp989
a(S'w'
I734
tp990
a(S'p2_vo'
I0
tp991
a(S'w'
I2197
tp992
a(S'p1_vo'
I0
tp993
a(S'w'
I2939
tp994
a(S'p1_vo'
I6
tp995
a(S'w'
I5
tp996
a(S'p1_tl'
I63
tp997
a(S'w'
I6
tp998
a(S'p2_vo'
I8
tp999
a(S'w'
I4
tp1000
a(S'p2_tl'
I169
tp1001
a(S'w'
I8
tp1002
a(S'tr_ll'
I1
tp1003
a(S'w'
I707
tp1004
a(S'p1_vo'
I5
tp1005
a(S'w'
I5
tp1006
a(S'p2_vo'
I7
tp1007
a(S'w'
I729
tp1008
a(S'p1_vo'
I4
tp1009
a(S'w'
I5
tp1010
a(S'p2_vo'
I6
tp1011
a(S'w'
I733
tp1012
a(S'p2_vo'
I5
tp1013
a(S'w'
I734
tp1014
a(S'p2_vo'
I4
tp1015
a(S'w'
I733
tp1016
a(S'p2_vo'
I3
tp1017
a(S'w'
I734
tp1018
a(S'p2_vo'
I2
tp1019
a(S'w'
I734
tp1020
a(S'p2_vo'
I1
tp1021
a(S'w'
I730
tp1022
a(S'p1_vo'
I3
tp1023
a(S'w'
I5
tp1024
a(S'p2_vo'
I0
tp1025
a(S'w'
I729
tp1026
a(S'p1_vo'
I2
tp1027
a(S'w'
I733
tp1028
a(S'p1_vo'
I1
tp1029
a(S'w'
I734
tp1030
a(S'p1_vo'
I0
tp1031
a(S'w'
I737
tp1032
a(S'p1_vo'
I3
tp1033
a(S'w'
I4
tp1034
a(S'p1_tl'
I127
tp1035
a(S'w'
I8
tp1036
a(S'p2_vo'
I5
tp1037
a(S'w'
I4
tp1038
a(S'p2_tl'
I190
tp1039
a(S'w'
I8
tp1040
a(S'tr_ll'
I1
tp1041
a(S'tr_th'
I1
tp1042
a(S'w'
I1
tp1043
a(S'tr_tl'
I83
tp1044
a(S'w'
I706
tp1045
a(S'p1_vo'
I2
tp1046
a(S'w'
I5
tp1047
a(S'p2_vo'
I4
tp1048
a(S'w'
I729
tp1049
a(S'p1_vo'
I1
tp1050
a(S'w'
I5
tp1051
a(S'p2_vo'
I3
tp1052
a(S'w'
I732
tp1053
a(S'p2_vo'
I2
tp1054
a(S'w'
I734
tp1055
a(S'p2_vo'
I1
tp1056
a(S'w'
I2931
tp1057
a(S'p1_vo'
I0
tp1058
a(S'w'
I2938
tp1059
a(S'p1_vo'
I3
tp1060
a(S'w'
I4
tp1061
a(S'w'
I727
tp1062
a(S'p1_vo'
I2
tp1063
a(S'w'
I734
tp1064
a(S'p1_vo'
I1
tp1065
a(S'w'
I5
tp1066
a(S'p2_vo'
I0
tp1067
a(S'w'
I4398
tp1068
a(S'p1_vo'
I0
tp1069
a(S'w'
I2936
tp1070
a(S'p1_vo'
I3
tp1071
a(S'w'
I5
tp1072
a(S'w'
I5
tp1073
a(S'p2_vo'
I5
tp1074
a(S'w'
I5
tp1075
a(S'p2_tl'
I213
tp1076
a(S'w'
I8
tp1077
a(S'tr_ll'
I1
tp1078
a(S'w'
I710
tp1079
a(S'p1_vo'
I2
tp1080
a(S'w'
I5
tp1081
a(S'p2_vo'
I4
tp1082
a(S'w'
I729
tp1083
a(S'p1_vo'
I1
tp1084
a(S'w'
I5
tp1085
a(S'p2_vo'
I3
tp1086
a(S'w'
I732
tp1087
a(S'p2_vo'
I2
tp1088
a(S'w'
I734
tp1089
a(S'p2_vo'
I1
tp1090
a(S'w'
I734
tp1091
a(S'p2_vo'
I0
tp1092
a(S'w'
I2197
tp1093
a(S'p1_vo'
I0
tp1094
a(S'w'
I2938
tp1095
a(S'p1_vo'
I5
tp1096
a(S'w'
I5
tp1097
a(S'p1_tl'
I63
tp1098
a(S'w'
I7
tp1099
a(S'p2_vo'
I3
tp1100
a(S'w'
I4
tp1101
a(S'p2_tl'
I226
tp1102
a(S'w'
I715
tp1103
a(S'p1_vo'
I4
tp1104
a(S'w'
I5
tp1105
a(S'p2_vo'
I2
tp1106
a(S'w'
I729
tp1107
a(S'p1_vo'
I3
tp1108
a(S'w'
I5
tp1109
a(S'p2_vo'
I1
tp1110
a(S'w'
I733
tp1111
a(S'p2_vo'
I0
tp1112
a(S'w'
I3665
tp1113
a(S'p1_vo'
I2
tp1114
a(S'w'
I734
tp1115
a(S'p1_vo'
I1
tp1116
a(S'w'
I733
tp1117
a(S'p1_vo'
I0
tp1118
a(S'w'
I1471
tp1119
a(S'p1_vo'
I3
tp1120
a(S'w'
I4
tp1121
a(S'p1_tl'
I127
tp1122
a(S'w'
I6
tp1123
a(S'p2_vo'
I3
tp1124
a(S'w'
I5
tp1125
a(S'p2_tl'
I213
tp1126
a(S'w'
I3
tp1127
a(S'tr_lr'
I0
tp1128
a(S'w'
I713
tp1129
a(S'p1_vo'
I2
tp1130
a(S'w'
I5
tp1131
a(S'p2_vo'
I2
tp1132
a(S'w'
I729
tp1133
a(S'p1_vo'
I1
tp1134
a(S'w'
I5
tp1135
a(S'p2_vo'
I1
tp1136
a(S'w'
I732
tp1137
a(S'p2_vo'
I0
tp1138
a(S'w'
I3665
tp1139
a(S'p1_vo'
I0
tp1140
a(S'w'
I2936
tp1141
a(S'p1_vo'
I3
tp1142
a(S'w'
I5
tp1143
a(S'w'
I728
tp1144
a(S'p1_vo'
I2
tp1145
a(S'w'
I734
tp1146
a(S'p1_vo'
I1
tp1147
a(S'w'
I4403
tp1148
a(S'p1_vo'
I0
tp1149
a(S'w'
I2936
tp1150
a(S'p1_vo'
I3
tp1151
a(S'w'
I5
tp1152
a(S'w'
I5
tp1153
a(S'p2_vo'
I3
tp1154
a(S'w'
I4
tp1155
a(S'p2_tl'
I226
tp1156
a(S'w'
I719
tp1157
a(S'p1_vo'
I2
tp1158
a(S'w'
I5
tp1159
a(S'p2_vo'
I2
tp1160
a(S'w'
I729
tp1161
a(S'p1_vo'
I1
tp1162
a(S'w'
I5
tp1163
a(S'p2_vo'
I1
tp1164
a(S'w'
I732
tp1165
a(S'p2_vo'
I0
tp1166
a(S'w'
I3665
tp1167
a(S'p1_vo'
I0
tp1168
a(S'w'
I2937
tp1169
a(S'p2_du'
I0
tp1170
a(S'w'
I88509
tp1171
a.