(lp1
(S'clock'
p2
I1789773
tp3
a(S'p1_lh'
I1
tp4
a(S'p1_cv'
I1
tp5
a(S'p2_lh'
I1
tp6
a(S'p2_cv'
I1
tp7
a(S'fc_mo'
I1
tp8
a(S'p1_du'
I2
tp9
a(S'p1_vo'
I5
tp10
a(S'w'
I9
tp11
a(S'p1_ll'
I1
tp12
a(S'w'
I5
tp13
a(S'p1_tl'
I169
tp14
a(S'w'
I16
tp15
a(S'p2_du'
I2
tp16
a(S'p2_vo'
I5
tp17
a(S'w'
I9
tp18
a(S'p2_ll'
I1
tp19
a(S'w'
I6
tp20
a(S'p2_tl'
I213
tp21
a(S'w'
I19
tp22
a(S'w'
I4
tp23
a(S'no_lh'
I1
tp24
a(S'no_cv'
I1
tp25
a(S'w'
I11
tp26
a(S'tr_lr'
I64
tp27
a(S'w'
I8
tp28
a(S'tr_ll'
I1
tp29
a(S'tr_th'
I1
tp30
a(S'w'
I5
tp31
a(S'tr_tl'
I171
tp32
a(S'w'
I16
tp33
a(S'no_vo'
I5
tp34
a(S'w'
I6
tp35
a(S'no_ll'
I1
tp36
a(S'w'
I6
tp37
a(S'no_np'
I6
tp38
a(S'w'
I606
tp39
a(S'p1_vo'
I4
tp40
a(S'w'
I10
tp41
a(S'p2_vo'
I4
tp42
a(S'w'
I723
tp43
a(S'p1_vo'
I3
tp44
a(S'w'
I10
tp45
a(S'p2_vo'
I3
tp46
a(S'w'
I12
tp47
a(S'no_vo'
I3
tp48
a(S'w'
I7
tp49
a(S'w'
I1447
tp50
a(S'no_vo'
I2
tp51
a(S'w'
I7
tp52
a(S'w'
I1458
tp53
a(S'no_vo'
I1
tp54
a(S'w'
I7
tp55
a(S'no_np'
I1
tp56
a(S'w'
I1457
tp57
a(S'no_vo'
I0
tp58
a(S'w'
I2188
tp59
a(S'p1_vo'
I2
tp60
a(S'w'
I10
tp61
a(S'p2_vo'
I2
tp62
a(S'w'
I723
tp63
a(S'p1_vo'
I1
tp64
a(S'w'
I10
tp65
a(S'p2_vo'
I1
tp66
a(S'w'
I722
tp67
a(S'p1_vo'
I0
tp68
a(S'w'
I10
tp69
a(S'p2_vo'
I0
tp70
a(S'w'
I5122
tp71
a(S'p1_vo'
I5
tp72
a(S'w'
I9
tp73
a(S'w'
I13
tp74
a(S'p2_vo'
I5
tp75
a(S'w'
I10
tp76
a(S'w'
I42
tp77
a(S'tr_ll'
I1
tp78
a(S'tr_th'
I2
tp79
a(S'w'
I5
tp80
a(S'tr_tl'
I59
tp81
a(S'w'
I15
tp82
a(S'no_vo'
I5
tp83
a(S'w'
I7
tp84
a(S'no_ll'
I1
tp85
a(S'w'
I5
tp86
a(S'no_np'
I6
tp87
a(S'w'
I623
tp88
a(S'p1_vo'
I4
tp89
a(S'w'
I10
tp90
a(S'p2_vo'
I4
tp91
a(S'w'
I723
tp92
a(S'p1_vo'
I3
tp93
a(S'w'
I10
tp94
a(S'p2_vo'
I3
tp95
a(S'w'
I12
tp96
a(S'no_vo'
I3
tp97
a(S'w'
I7
tp98
a(S'w'
I1447
tp99
a(S'no_vo'
I2
tp100
a(S'w'
I7
tp101
a(S'w'
I1458
tp102
a(S'no_vo'
I1
tp103
a(S'w'
I7
tp104
a(S'no_np'
I1
tp105
a(S'w'
I1457
tp106
a(S'no_vo'
I0
tp107
a(S'w'
I2188
tp108
a(S'p1_vo'
I2
tp109
a(S'w'
I10
tp110
a(S'p2_vo'
I2
tp111
a(S'w'
I723
tp112
a(S'p1_vo'
I1
tp113
a(S'w'
I10
tp114
a(S'p2_vo'
I1
tp115
a(S'w'
I722
tp116
a(S'p1_vo'
I0
tp117
a(S'w'
I10
tp118
a(S'p2_vo'
I0
tp119
a(S'w'
I5124
tp120
a(S'p1_vo'
I5
tp121
a(S'w'
I9
tp122
a(S'p1_tl'
I142
tp123
a(S'w'
I15
tp124
a(S'p2_vo'
I5
tp125
a(S'w'
I10
tp126
a(S'p2_tl'
I169
tp127
a(S'w'
I42
tp128
a(S'tr_ll'
I1
tp129
a(S'tr_th'
I1
tp130
a(S'w'
I5
tp131
a(S'tr_tl'
I171
tp132
a(S'w'
I15
tp133
a(S'no_vo'
I5
tp134
a(S'w'
I7
tp135
a(S'no_ll'
I1
tp136
a(S'w'
I5
tp137
a(S'no_np'
I6
tp138
a(S'w'
I619
tp139
a(S'p1_vo'
I4
tp140
a(S'w'
I10
tp141
a(S'p2_vo'
I4
tp142
a(S'w'
I723
tp143
a(S'p1_vo'
I3
tp144
a(S'w'
I10
tp145
a(S'p2_vo'
I3
tp146
a(S'w'
I12
tp147
a(S'no_vo'
I3
tp148
a(S'w'
I7
tp149
a(S'w'
I1447
tp150
a(S'no_vo'
I2
tp151
a(S'w'
I7
tp152
a(S'w'
I1458
tp153
a(S'no_vo'
I1
tp154
a(S'w'
I7
tp155
a(S'no_np'
I1
tp156
a(S'w'
I1458
tp157
a(S'no_vo'
I0
tp158
a(S'w'
I1492
tp159
a(S'tr_ll'
I1
tp160
a(S'w'
I21
tp161
a(S'no_vo'
I7
tp162
a(S'w'
I6
tp163
a(S'no_ll'
I1
tp164
a(S'w'
I6
tp165
a(S'no_np'
I3
tp166
a(S'w'
I673
tp167
a(S'no_vo'
I3
tp168
a(S'w'
I6
tp169
a(S'no_np'
I1
tp170
a(S'w'
I727
tp171
a(S'no_vo'
I1
tp172
a(S'w'
I7
tp173
a(S'w'
I725
tp174
a(S'no_vo'
I0
tp175
a(S'w'
I1492
tp176
a(S'tr_ll'
I1
tp177
a(S'w'
I21
tp178
a(S'no_vo'
I7
tp179
a(S'w'
I6
tp180
a(S'no_ll'
I1
tp181
a(S'w'
I6
tp182
a(S'no_np'
I3
tp183
a(S'w'
I673
tp184
a(S'no_vo'
I3
tp185
a(S'w'
I6
tp186
a(S'no_np'
I1
tp187
a(S'w'
I727
tp188
a(S'no_vo'
I1
tp189
a(S'w'
I7
tp190
a(S'w'
I725
tp191
a(S'no_vo'
I0
tp192
a(S'w'
I1495
tp193
a(S'tr_ll'
I1
tp194
a(S'tr_th'
I2
tp195
a(S'w'
I5
tp196
a(S'tr_tl'
I59
tp197
a(S'w'
I15
tp198
a(S'no_vo'
I7
tp199
a(S'w'
I7
tp200
a(S'no_ll'
I1
tp201
a(S'w'
I5
tp202
a(S'no_np'
I3
tp203
a(S'w'
I671
tp204
a(S'no_vo'
I3
tp205
a(S'w'
I6
tp206
a(S'no_np'
I1
tp207
a(S'w'
I727
tp208
a(S'no_vo'
I1
tp209
a(S'w'
I7
tp210
a(S'w'
I725
tp211
a(S'no_vo'
I0
tp212
a(S'w'
I3653
tp213
a(S'p1_vo'
I2
tp214
a(S'w'
I10
tp215
a(S'p2_vo'
I2
tp216
a(S'w'
I722
tp217
a(S'p1_vo'
I1
tp218
a(S'w'
I10
tp219
a(S'p2_vo'
I1
tp220
a(S'w'
I726
tp221
a(S'p1_vo'
I5
tp222
a(S'w'
I10
tp223
a(S'p1_tl'
I160
tp224
a(S'w'
I13
tp225
a(S'p2_vo'
I5
tp226
a(S'w'
I10
tp227
a(S'p2_tl'
I190
tp228
a(S'w'
I38
tp229
a(S'tr_ll'
I1
tp230
a(S'w'
I21
tp231
a(S'no_vo'
I7
tp232
a(S'w'
I7
tp233
a(S'no_ll'
I1
tp234
a(S'w'
I5
tp235
a(S'no_np'
I3
tp236
a(S'w'
I625
tp237
a(S'p1_vo'
I4
tp238
a(S'w'
I10
tp239
a(S'p2_vo'
I4
tp240
a(S'w'
I12
tp241
a(S'no_vo'
I3
tp242
a(S'w'
I7
tp243
a(S'no_np'
I1
tp244
a(S'w'
I704
tp245
a(S'p1_vo'
I3
tp246
a(S'w'
I10
tp247
a(S'p2_vo'
I3
tp248
a(S'w'
I12
tp249
a(S'no_vo'
I1
tp250
a(S'w'
I7
tp251
a(S'w'
I704
tp252
a(S'p1_vo'
I2
tp253
a(S'w'
I10
tp254
a(S'p2_vo'
I2
tp255
a(S'w'
I12
tp256
a(S'no_vo'
I0
tp257
a(S'w'
I710
tp258
a(S'p1_vo'
I1
tp259
a(S'w'
I10
tp260
a(S'p2_vo'
I1
tp261
a(S'w'
I725
tp262
a(S'p1_vo'
I5
tp263
a(S'w'
I9
tp264
a(S'p1_tl'
I142
tp265
a(S'w'
I12
tp266
a(S'p2_vo'
I5
tp267
a(S'w'
I10
tp268
a(S'p2_tl'
I169
tp269
a(S'w'
I699
tp270
a(S'p1_vo'
I4
tp271
a(S'w'
I10
tp272
a(S'p2_vo'
I4
tp273
a(S'w'
I723
tp274
a(S'p1_vo'
I3
tp275
a(S'w'
I10
tp276
a(S'p2_vo'
I3
tp277
a(S'w'
I723
tp278
a(S'p1_vo'
I2
tp279
a(S'w'
I10
tp280
a(S'p2_vo'
I2
tp281
a(S'w'
I722
tp282
a(S'p1_vo'
I1
tp283
a(S'w'
I10
tp284
a(S'p2_vo'
I1
tp285
a(S'w'
I727
tp286
a(S'p1_vo'
I5
tp287
a(S'w'
I9
tp288
a(S'p1_tl'
I127
tp289
a(S'w'
I14
tp290
a(S'p2_vo'
I5
tp291
a(S'w'
I10
tp292
a(S'p2_tl'
I160
tp293
a(S'w'
I42
tp294
a(S'tr_ll'
I1
tp295
a(S'tr_th'
I1
tp296
a(S'w'
I5
tp297
a(S'tr_tl'
I171
tp298
a(S'w'
I16
tp299
a(S'no_vo'
I5
tp300
a(S'w'
I6
tp301
a(S'no_ll'
I1
tp302
a(S'w'
I6
tp303
a(S'no_np'
I6
tp304
a(S'w'
I620
tp305
a(S'p1_vo'
I4
tp306
a(S'w'
I10
tp307
a(S'p2_vo'
I4
tp308
a(S'w'
I723
tp309
a(S'p1_vo'
I3
tp310
a(S'w'
I10
tp311
a(S'p2_vo'
I3
tp312
a(S'w'
I12
tp313
a(S'no_vo'
I3
tp314
a(S'w'
I7
tp315
a(S'w'
I1447
tp316
a(S'no_vo'
I2
tp317
a(S'w'
I7
tp318
a(S'w'
I1458
tp319
a(S'no_vo'
I1
tp320
a(S'w'
I7
tp321
a(S'no_np'
I1
tp322
a(S'w'
I1448
tp323
a(S'p1_vo'
I2
tp324
a(S'w'
I10
tp325
a(S'p2_vo'
I2
tp326
a(S'w'
I12
tp327
a(S'no_vo'
I0
tp328
a(S'w'
I710
tp329
a(S'p1_vo'
I1
tp330
a(S'w'
I10
tp331
a(S'p2_vo'
I1
tp332
a(S'w'
I725
tp333
a(S'p1_vo'
I5
tp334
a(S'w'
I10
tp335
a(S'p1_tl'
I142
tp336
a(S'w'
I12
tp337
a(S'p2_vo'
I5
tp338
a(S'w'
I10
tp339
a(S'p2_tl'
I169
tp340
a(S'w'
I698
tp341
a(S'p1_vo'
I4
tp342
a(S'w'
I10
tp343
a(S'p2_vo'
I4
tp344
a(S'w'
I723
tp345
a(S'p1_vo'
I3
tp346
a(S'w'
I10
tp347
a(S'p2_vo'
I3
tp348
a(S'w'
I4386
tp349
a(S'p1_vo'
I2
tp350
a(S'w'
I10
tp351
a(S'p2_vo'
I2
tp352
a(S'w'
I722
tp353
a(S'p1_vo'
I1
tp354
a(S'w'
I10
tp355
a(S'p2_vo'
I1
tp356
a(S'w'
I725
tp357
a(S'p1_vo'
I5
tp358
a(S'w'
I10
tp359
a(S'p1_tl'
I160
tp360
a(S'w'
I12
tp361
a(S'p2_vo'
I5
tp362
a(S'w'
I10
tp363
a(S'p2_tl'
I190
tp364
a(S'w'
I41
tp365
a(S'tr_ll'
I1
tp366
a(S'tr_th'
I2
tp367
a(S'w'
I6
tp368
a(S'tr_tl'
I59
tp369
a(S'w'
I15
tp370
a(S'no_vo'
I5
tp371
a(S'w'
I7
tp372
a(S'no_ll'
I1
tp373
a(S'w'
I5
tp374
a(S'no_np'
I6
tp375
a(S'w'
I624
tp376
a(S'p1_vo'
I4
tp377
a(S'w'
I10
tp378
a(S'p2_vo'
I4
tp379
a(S'w'
I723
tp380
a(S'p1_vo'
I3
tp381
a(S'w'
I10
tp382
a(S'p2_vo'
I3
tp383
a(S'w'
I12
tp384
a(S'no_vo'
I3
tp385
a(S'w'
I7
tp386
a(S'w'
I1447
tp387
a(S'no_vo'
I2
tp388
a(S'w'
I7
tp389
a(S'w'
I1458
tp390
a(S'no_vo'
I1
tp391
a(S'w'
I7
tp392
a(S'no_np'
I1
tp393
a(S'w'
I1448
tp394
a(S'p1_vo'
I2
tp395
a(S'w'
I10
tp396
a(S'p2_vo'
I2
tp397
a(S'w'
I12
tp398
a(S'no_vo'
I0
tp399
a(S'w'
I710
tp400
a(S'p1_vo'
I1
tp401
a(S'w'
I10
tp402
a(S'p2_vo'
I1
tp403
a(S'w'
I725
tp404
a(S'p1_vo'
I5
tp405
a(S'w'
I10
tp406
a(S'p1_tl'
I169
tp407
a(S'w'
I12
tp408
a(S'p2_vo'
I5
tp409
a(S'w'
I10
tp410
a(S'p2_tl'
I213
tp411
a(S'w'
I698
tp412
a(S'p1_vo'
I4
tp413
a(S'w'
I10
tp414
a(S'p2_vo'
I4
tp415
a(S'w'
I723
tp416
a(S'p1_vo'
I3
tp417
a(S'w'
I10
tp418
a(S'p2_vo'
I3
tp419
a(S'w'
I4386
tp420
a(S'p1_vo'
I2
tp421
a(S'w'
I10
tp422
a(S'p2_vo'
I2
tp423
a(S'w'
I722
tp424
a(S'p1_vo'
I1
tp425
a(S'w'
I10
tp426
a(S'p2_vo'
I1
tp427
a(S'w'
I726
tp428
a(S'p1_vo'
I5
tp429
a(S'w'
I9
tp430
a(S'p1_tl'
I160
tp431
a(S'w'
I13
tp432
a(S'p2_vo'
I5
tp433
a(S'w'
I10
tp434
a(S'p2_tl'
I190
tp435
a(S'w'
I42
tp436
a(S'tr_ll'
I1
tp437
a(S'tr_th'
I1
tp438
a(S'w'
I5
tp439
a(S'tr_tl'
I125
tp440
a(S'w'
I15
tp441
a(S'no_vo'
I5
tp442
a(S'w'
I7
tp443
a(S'no_ll'
I1
tp444
a(S'w'
I5
tp445
a(S'no_np'
I6
tp446
a(S'w'
I624
tp447
a(S'p1_vo'
I4
tp448
a(S'w'
I10
tp449
a(S'p2_vo'
I4
tp450
a(S'w'
I722
tp451
a(S'p1_vo'
I3
tp452
a(S'w'
I10
tp453
a(S'p2_vo'
I3
tp454
a(S'w'
I12
tp455
a(S'no_vo'
I3
tp456
a(S'w'
I7
tp457
a(S'w'
I1447
tp458
a(S'no_vo'
I2
tp459
a(S'w'
I7
tp460
a(S'w'
I1459
tp461
a(S'no_vo'
I1
tp462
a(S'w'
I7
tp463
a(S'no_np'
I1
tp464
a(S'w'
I1457
tp465
a(S'no_vo'
I0
tp466
a(S'w'
I1492
tp467
a(S'tr_ll'
I1
tp468
a(S'w'
I21
tp469
a(S'no_vo'
I7
tp470
a(S'w'
I6
tp471
a(S'no_ll'
I1
tp472
a(S'w'
I6
tp473
a(S'no_np'
I3
tp474
a(S'w'
I674
tp475
a(S'no_vo'
I3
tp476
a(S'w'
I6
tp477
a(S'no_np'
I1
tp478
a(S'w'
I726
tp479
a(S'no_vo'
I1
tp480
a(S'w'
I7
tp481
a(S'w'
I725
tp482
a(S'no_vo'
I0
tp483
a(S'w'
I1492
tp484
a(S'tr_ll'
I1
tp485
a(S'w'
I21
tp486
a(S'no_vo'
I7
tp487
a(S'w'
I6
tp488
a(S'no_ll'
I1
tp489
a(S'w'
I6
tp490
a(S'no_np'
I3
tp491
a(S'w'
I674
tp492
a(S'no_vo'
I3
tp493
a(S'w'
I6
tp494
a(S'no_np'
I1
tp495
a(S'w'
I726
tp496
a(S'no_vo'
I1
tp497
a(S'w'
I7
tp498
a(S'w'
I715
tp499
a(S'p1_vo'
I2
tp500
a(S'w'
I10
tp501
a(S'p2_vo'
I2
tp502
a(S'w'
I12
tp503
a(S'no_vo'
I0
tp504
a(S'w'
I710
tp505
a(S'p1_vo'
I1
tp506
a(S'w'
I10
tp507
a(S'p2_vo'
I1
tp508
a(S'w'
I726
tp509
a(S'p1_vo'
I5
tp510
a(S'w'
I9
tp511
a(S'p1_tl'
I190
tp512
a(S'w'
I16
tp513
a(S'p2_vo'
I5
tp514
a(S'w'
I9
tp515
a(S'p2_ll'
I1
tp516
a(S'p2_th'
I1
tp517
a(S'w'
I5
tp518
a(S'p2_tl'
I29
tp519
a(S'w'
I41
tp520
a(S'tr_ll'
I1
tp521
a(S'tr_th'
I2
tp522
a(S'w'
I6
tp523
a(S'tr_tl'
I59
tp524
a(S'w'
I15
tp525
a(S'no_vo'
I5
tp526
a(S'w'
I7
tp527
a(S'no_ll'
I1
tp528
a(S'w'
I5
tp529
a(S'no_np'
I6
tp530
a(S'w'
I617
tp531
a(S'p1_vo'
I4
tp532
a(S'w'
I10
tp533
a(S'p2_vo'
I4
tp534
a(S'w'
I722
tp535
a(S'p1_vo'
I3
tp536
a(S'w'
I10
tp537
a(S'p2_vo'
I3
tp538
a(S'w'
I12
tp539
a(S'no_vo'
I3
tp540
a(S'w'
I7
tp541
a(S'w'
I1447
tp542
a(S'no_vo'
I2
tp543
a(S'w'
I7
tp544
a(S'w'
I1459
tp545
a(S'no_vo'
I1
tp546
a(S'w'
I7
tp547
a(S'no_np'
I1
tp548
a(S'w'
I1457
tp549
a(S'no_vo'
I0
tp550
a(S'w'
I1492
tp551
a(S'tr_ll'
I1
tp552
a(S'w'
I21
tp553
a(S'no_vo'
I7
tp554
a(S'w'
I6
tp555
a(S'no_ll'
I1
tp556
a(S'w'
I6
tp557
a(S'no_np'
I3
tp558
a(S'w'
I674
tp559
a(S'no_vo'
I3
tp560
a(S'w'
I6
tp561
a(S'no_np'
I1
tp562
a(S'w'
I726
tp563
a(S'no_vo'
I1
tp564
a(S'w'
I7
tp565
a(S'w'
I725
tp566
a(S'no_vo'
I0
tp567
a(S'w'
I3653
tp568
a(S'p1_vo'
I2
tp569
a(S'w'
I10
tp570
a(S'p2_vo'
I2
tp571
a(S'w'
I722
tp572
a(S'p1_vo'
I1
tp573
a(S'w'
I10
tp574
a(S'p2_vo'
I1
tp575
a(S'w'
I730
tp576
a(S'p1_vo'
I5
tp577
a(S'w'
I9
tp578
a(S'p1_tl'
I254
tp579
a(S'w'
I15
tp580
a(S'p2_vo'
I5
tp581
a(S'w'
I9
tp582
a(S'p2_tl'
I64
tp583
a(S'w'
I42
tp584
a(S'tr_ll'
I1
tp585
a(S'tr_th'
I1
tp586
a(S'w'
I5
tp587
a(S'tr_tl'
I64
tp588
a(S'w'
I16
tp589
a(S'no_vo'
I5
tp590
a(S'w'
I6
tp591
a(S'no_ll'
I1
tp592
a(S'w'
I6
tp593
a(S'no_np'
I6
tp594
a(S'w'
I618
tp595
a(S'p1_vo'
I4
tp596
a(S'w'
I10
tp597
a(S'p2_vo'
I4
tp598
a(S'w'
I722
tp599
a(S'p1_vo'
I3
tp600
a(S'w'
I10
tp601
a(S'p2_vo'
I3
tp602
a(S'w'
I12
tp603
a(S'no_vo'
I3
tp604
a(S'w'
I7
tp605
a(S'w'
I1447
tp606
a(S'no_vo'
I2
tp607
a(S'w'
I7
tp608
a(S'w'
I1459
tp609
a(S'no_vo'
I1
tp610
a(S'w'
I7
tp611
a(S'no_np'
I1
tp612
a(S'w'
I1457
tp613
a(S'no_vo'
I0
tp614
a(S'w'
I3653
tp615
a(S'p1_vo'
I2
tp616
a(S'w'
I732
tp617
a(S'p1_vo'
I1
tp618
a(S'w'
I10
tp619
a(S'p2_vo'
I2
tp620
a(S'w'
I723
tp621
a(S'p1_vo'
I0
tp622
a(S'w'
I10
tp623
a(S'p2_vo'
I1
tp624
a(S'w'
I727
tp625
a(S'p2_vo'
I0
tp626
a(S'w'
I2928
tp627
a(S'p1_vo'
I5
tp628
a(S'w'
I10
tp629
a(S'w'
I12
tp630
a(S'p2_vo'
I5
tp631
a(S'w'
I9
tp632
a(S'w'
I40
tp633
a(S'tr_ll'
I1
tp634
a(S'w'
I5
tp635
a(S'tr_tl'
I171
tp636
a(S'w'
I16
tp637
a(S'no_vo'
I5
tp638
a(S'w'
I6
tp639
a(S'no_ll'
I1
tp640
a(S'w'
I6
tp641
a(S'no_np'
I6
tp642
a(S'w'
I627
tp643
a(S'p1_vo'
I4
tp644
a(S'w'
I10
tp645
a(S'p2_vo'
I4
tp646
a(S'w'
I722
tp647
a(S'p1_vo'
I3
tp648
a(S'w'
I10
tp649
a(S'p2_vo'
I3
tp650
a(S'w'
I12
tp651
a(S'no_vo'
I3
tp652
a(S'w'
I7
tp653
a(S'w'
I1447
tp654
a(S'no_vo'
I2
tp655
a(S'w'
I7
tp656
a(S'w'
I1459
tp657
a(S'no_vo'
I1
tp658
a(S'w'
I7
tp659
a(S'no_np'
I1
tp660
a(S'w'
I1447
tp661
a(S'p1_vo'
I2
tp662
a(S'w'
I16
tp663
a(S'no_vo'
I0
tp664
a(S'w'
I716
tp665
a(S'p1_vo'
I1
tp666
a(S'w'
I10
tp667
a(S'p2_vo'
I2
tp668
a(S'w'
I723
tp669
a(S'p1_vo'
I0
tp670
a(S'w'
I10
tp671
a(S'p2_vo'
I1
tp672
a(S'w'
I727
tp673
a(S'p2_vo'
I0
tp674
a(S'w'
I2928
tp675
a(S'p1_vo'
I5
tp676
a(S'w'
I9
tp677
a(S'w'
I12
tp678
a(S'p2_vo'
I5
tp679
a(S'w'
I9
tp680
a(S'w'
I701
tp681
a(S'p1_vo'
I4
tp682
a(S'w'
I10
tp683
a(S'p2_vo'
I4
tp684
a(S'w'
I722
tp685
a(S'p1_vo'
I3
tp686
a(S'w'
I10
tp687
a(S'p2_vo'
I3
tp688
a(S'w'
I723
tp689
a(S'p1_vo'
I2
tp690
a(S'w'
I10
tp691
a(S'p2_vo'
I2
tp692
a(S'w'
I723
tp693
a(S'p1_vo'
I1
tp694
a(S'w'
I10
tp695
a(S'p2_vo'
I1
tp696
a(S'w'
I729
tp697
a(S'p1_vo'
I5
tp698
a(S'w'
I9
tp699
a(S'p1_tl'
I160
tp700
a(S'w'
I17
tp701
a(S'p2_vo'
I5
tp702
a(S'w'
I9
tp703
a(S'p2_ll'
I1
tp704
a(S'p2_th'
I0
tp705
a(S'w'
I5
tp706
a(S'p2_tl'
I190
tp707
a(S'w'
I39
tp708
a(S'tr_ll'
I1
tp709
a(S'w'
I6
tp710
a(S'tr_tl'
I64
tp711
a(S'w'
I15
tp712
a(S'no_vo'
I5
tp713
a(S'w'
I7
tp714
a(S'no_ll'
I1
tp715
a(S'w'
I5
tp716
a(S'no_np'
I6
tp717
a(S'w'
I614
tp718
a(S'p1_vo'
I4
tp719
a(S'w'
I10
tp720
a(S'p2_vo'
I4
tp721
a(S'w'
I722
tp722
a(S'p1_vo'
I3
tp723
a(S'w'
I10
tp724
a(S'p2_vo'
I3
tp725
a(S'w'
I12
tp726
a(S'no_vo'
I3
tp727
a(S'w'
I7
tp728
a(S'w'
I1448
tp729
a(S'no_vo'
I2
tp730
a(S'w'
I7
tp731
a(S'w'
I1458
tp732
a(S'no_vo'
I1
tp733
a(S'w'
I7
tp734
a(S'no_np'
I1
tp735
a(S'w'
I1447
tp736
a(S'p1_vo'
I2
tp737
a(S'w'
I10
tp738
a(S'p2_vo'
I2
tp739
a(S'w'
I12
tp740
a(S'no_vo'
I0
tp741
a(S'w'
I711
tp742
a(S'p1_vo'
I1
tp743
a(S'w'
I10
tp744
a(S'p2_vo'
I1
tp745
a(S'w'
I724
tp746
a(S'p1_vo'
I5
tp747
a(S'w'
I10
tp748
a(S'p1_tl'
I169
tp749
a(S'w'
I12
tp750
a(S'p2_vo'
I5
tp751
a(S'w'
I10
tp752
a(S'p2_tl'
I213
tp753
a(S'w'
I38
tp754
a(S'tr_ll'
I1
tp755
a(S'w'
I21
tp756
a(S'no_vo'
I7
tp757
a(S'w'
I7
tp758
a(S'no_ll'
I1
tp759
a(S'w'
I5
tp760
a(S'no_np'
I3
tp761
a(S'w'
I628
tp762
a(S'p1_vo'
I4
tp763
a(S'w'
I10
tp764
a(S'p2_vo'
I4
tp765
a(S'w'
I12
tp766
a(S'no_vo'
I3
tp767
a(S'w'
I7
tp768
a(S'no_np'
I1
tp769
a(S'w'
I703
tp770
a(S'p1_vo'
I3
tp771
a(S'w'
I10
tp772
a(S'p2_vo'
I3
tp773
a(S'w'
I12
tp774
a(S'no_vo'
I1
tp775
a(S'w'
I7
tp776
a(S'w'
I714
tp777
a(S'no_vo'
I0
tp778
a(S'w'
I1492
tp779
a(S'tr_ll'
I1
tp780
a(S'w'
I21
tp781
a(S'no_vo'
I7
tp782
a(S'w'
I6
tp783
a(S'no_ll'
I1
tp784
a(S'w'
I6
tp785
a(S'no_np'
I3
tp786
a(S'w'
I674
tp787
a(S'no_vo'
I3
tp788
a(S'w'
I6
tp789
a(S'no_np'
I1
tp790
a(S'w'
I726
tp791
a(S'no_vo'
I1
tp792
a(S'w'
I7
tp793
a(S'w'
I715
tp794
a(S'p1_vo'
I2
tp795
a(S'w'
I10
tp796
a(S'p2_vo'
I2
tp797
a(S'w'
I12
tp798
a(S'no_vo'
I0
tp799
a(S'w'
I711
tp800
a(S'p1_vo'
I1
tp801
a(S'w'
I10
tp802
a(S'p2_vo'
I1
tp803
a(S'w'
I724
tp804
a(S'p1_vo'
I5
tp805
a(S'w'
I10
tp806
a(S'p1_tl'
I190
tp807
a(S'w'
I15
tp808
a(S'p2_vo'
I5
tp809
a(S'w'
I9
tp810
a(S'p2_tl'
I226
tp811
a(S'w'
I39
tp812
a(S'tr_ll'
I1
tp813
a(S'w'
I6
tp814
a(S'tr_tl'
I46
tp815
a(S'w'
I15
tp816
a(S'no_vo'
I7
tp817
a(S'w'
I7
tp818
a(S'no_ll'
I1
tp819
a(S'w'
I5
tp820
a(S'no_np'
I3
tp821
a(S'w'
I625
tp822
a(S'p1_vo'
I4
tp823
a(S'w'
I10
tp824
a(S'p2_vo'
I4
tp825
a(S'w'
I12
tp826
a(S'no_vo'
I3
tp827
a(S'w'
I7
tp828
a(S'no_np'
I1
tp829
a(S'w'
I703
tp830
a(S'p1_vo'
I3
tp831
a(S'w'
I10
tp832
a(S'p2_vo'
I3
tp833
a(S'w'
I12
tp834
a(S'no_vo'
I1
tp835
a(S'w'
I7
tp836
a(S'w'
I714
tp837
a(S'no_vo'
I0
tp838
a(S'w'
I3653
tp839
a(S'p1_vo'
I2
tp840
a(S'w'
I10
tp841
a(S'p2_vo'
I2
tp842
a(S'w'
I723
tp843
a(S'p1_vo'
I1
tp844
a(S'w'
I10
tp845
a(S'p2_vo'
I1
tp846
a(S'w'
I724
tp847
a(S'p1_vo'
I5
tp848
a(S'w'
I10
tp849
a(S'p1_tl'
I213
tp850
a(S'w'
I12
tp851
a(S'p2_vo'
I5
tp852
a(S'w'
I9
tp853
a(S'p2_tl'
I254
tp854
a(S'w'
I39
tp855
a(S'tr_ll'
I1
tp856
a(S'w'
I21
tp857
a(S'no_vo'
I7
tp858
a(S'w'
I7
tp859
a(S'no_ll'
I1
tp860
a(S'w'
I5
tp861
a(S'no_np'
I3
tp862
a(S'w'
I628
tp863
a(S'p1_vo'
I4
tp864
a(S'w'
I10
tp865
a(S'p2_vo'
I4
tp866
a(S'w'
I12
tp867
a(S'no_vo'
I3
tp868
a(S'w'
I7
tp869
a(S'no_np'
I1
tp870
a(S'w'
I703
tp871
a(S'p1_vo'
I3
tp872
a(S'w'
I10
tp873
a(S'p2_vo'
I3
tp874
a(S'w'
I12
tp875
a(S'no_vo'
I1
tp876
a(S'w'
I7
tp877
a(S'w'
I714
tp878
a(S'no_vo'
I0
tp879
a(S'w'
I3653
tp880
a(S'p1_vo'
I2
tp881
a(S'w'
I10
tp882
a(S'p2_vo'
I2
tp883
a(S'w'
I723
tp884
a(S'p1_vo'
I1
tp885
a(S'w'
I10
tp886
a(S'p2_vo'
I1
tp887
a(S'w'
I726
tp888
a(S'p1_vo'
I5
tp889
a(S'w'
I10
tp890
a(S'p1_tl'
I142
tp891
a(S'w'
I17
tp892
a(S'p2_vo'
I5
tp893
a(S'w'
I9
tp894
a(S'p2_tl'
I190
tp895
a(S'w'
I40
tp896
a(S'tr_ll'
I1
tp897
a(S'w'
I5
tp898
a(S'tr_tl'
I29
tp899
a(S'w'
I16
tp900
a(S'no_vo'
I5
tp901
a(S'w'
I6
tp902
a(S'no_ll'
I1
tp903
a(S'w'
I6
tp904
a(S'no_np'
I6
tp905
a(S'w'
I620
tp906
a(S'p1_vo'
I4
tp907
a(S'w'
I10
tp908
a(S'p2_vo'
I4
tp909
a(S'w'
I722
tp910
a(S'p1_vo'
I3
tp911
a(S'w'
I10
tp912
a(S'p2_vo'
I3
tp913
a(S'w'
I12
tp914
a(S'no_vo'
I3
tp915
a(S'w'
I7
tp916
a(S'w'
I1448
tp917
a(S'no_vo'
I2
tp918
a(S'w'
I7
tp919
a(S'w'
I1458
tp920
a(S'no_vo'
I1
tp921
a(S'w'
I7
tp922
a(S'no_np'
I1
tp923
a(S'w'
I1457
tp924
a(S'no_vo'
I0
tp925
a(S'w'
I8819
tp926
a(S'tr_ll'
I1
tp927
a(S'w'
I5
tp928
a(S'tr_tl'
I125
tp929
a(S'w'
I16
tp930
a(S'no_vo'
I5
tp931
a(S'w'
I6
tp932
a(S'no_ll'
I1
tp933
a(S'w'
I6
tp934
a(S'no_np'
I6
tp935
a(S'w'
I1405
tp936
a(S'no_vo'
I3
tp937
a(S'w'
I6
tp938
a(S'w'
I1460
tp939
a(S'no_vo'
I2
tp940
a(S'w'
I7
tp941
a(S'w'
I1458
tp942
a(S'no_vo'
I1
tp943
a(S'w'
I7
tp944
a(S'no_np'
I1
tp945
a(S'w'
I1457
tp946
a(S'no_vo'
I0
tp947
a(S'w'
I7316
tp948
a(S'p1_vo'
I2
tp949
a(S'w'
I10
tp950
a(S'p2_vo'
I2
tp951
a(S'w'
I723
tp952
a(S'p1_vo'
I1
tp953
a(S'w'
I10
tp954
a(S'p2_vo'
I1
tp955
a(S'w'
I726
tp956
a(S'p1_vo'
I6
tp957
a(S'w'
I10
tp958
a(S'p1_tl'
I190
tp959
a(S'w'
I17
tp960
a(S'p2_vo'
I6
tp961
a(S'w'
I9
tp962
a(S'p2_tl'
I226
tp963
a(S'w'
I39
tp964
a(S'tr_ll'
I1
tp965
a(S'w'
I6
tp966
a(S'tr_tl'
I29
tp967
a(S'w'
I15
tp968
a(S'no_vo'
I5
tp969
a(S'w'
I7
tp970
a(S'no_ll'
I1
tp971
a(S'w'
I5
tp972
a(S'no_np'
I6
tp973
a(S'w'
I621
tp974
a(S'p1_vo'
I5
tp975
a(S'w'
I10
tp976
a(S'p2_vo'
I5
tp977
a(S'w'
I723
tp978
a(S'p1_vo'
I4
tp979
a(S'w'
I10
tp980
a(S'p2_vo'
I4
tp981
a(S'w'
I12
tp982
a(S'no_vo'
I3
tp983
a(S'w'
I7
tp984
a(S'w'
I703
tp985
a(S'p1_vo'
I3
tp986
a(S'w'
I10
tp987
a(S'p2_vo'
I3
tp988
a(S'w'
I723
tp989
a(S'p1_vo'
I2
tp990
a(S'w'
I10
tp991
a(S'p2_vo'
I2
tp992
a(S'w'
I12
tp993
a(S'no_vo'
I2
tp994
a(S'w'
I7
tp995
a(S'w'
I1447
tp996
a(S'no_vo'
I1
tp997
a(S'w'
I7
tp998
a(S'no_np'
I1
tp999
a(S'w'
I1457
tp1000
a(S'no_vo'
I0
tp1001
a(S'w'
I1492
tp1002
a(S'tr_ll'
I1
tp1003
a(S'w'
I21
tp1004
a(S'no_vo'
I7
tp1005
a(S'w'
I6
tp1006
a(S'no_ll'
I1
tp1007
a(S'w'
I6
tp1008
a(S'no_np'
I3
tp1009
a(S'w'
I674
tp1010
a(S'no_vo'
I3
tp1011
a(S'w'
I6
tp1012
a(S'no_np'
I1
tp1013
a(S'w'
I727
tp1014
a(S'no_vo'
I1
tp1015
a(S'w'
I7
tp1016
a(S'w'
I724
tp1017
a(S'no_vo'
I0
tp1018
a(S'w'
I1492
tp1019
a(S'tr_ll'
I1
tp1020
a(S'w'
I21
tp1021
a(S'no_vo'
I7
tp1022
a(S'w'
I6
tp1023
a(S'no_ll'
I1
tp1024
a(S'w'
I6
tp1025
a(S'no_np'
I3
tp1026
a(S'w'
I674
tp1027
a(S'no_vo'
I3
tp1028
a(S'w'
I6
tp1029
a(S'no_np'
I1
tp1030
a(S'w'
I727
tp1031
a(S'no_vo'
I1
tp1032
a(S'w'
I7
tp1033
a(S'w'
I714
tp1034
a(S'p1_vo'
I1
tp1035
a(S'w'
I10
tp1036
a(S'p2_vo'
I1
tp1037
a(S'w'
I12
tp1038
a(S'no_vo'
I0
tp1039
a(S'w'
I711
tp1040
a(S'p1_vo'
I0
tp1041
a(S'w'
I10
tp1042
a(S'p2_vo'
I0
tp1043
a(S'w'
I729
tp1044
a(S'p1_vo'
I5
tp1045
a(S'w'
I9
tp1046
a(S'p1_tl'
I226
tp1047
a(S'w'
I14
tp1048
a(S'p2_vo'
I5
tp1049
a(S'w'
I8
tp1050
a(S'p2_ll'
I1
tp1051
a(S'p2_th'
I1
tp1052
a(S'w'
I6
tp1053
a(S'p2_tl'
I29
tp1054
a(S'w'
I41
tp1055
a(S'tr_ll'
I1
tp1056
a(S'tr_th'
I2
tp1057
a(S'w'
I6
tp1058
a(S'tr_tl'
I59
tp1059
a(S'w'
I15
tp1060
a(S'no_vo'
I7
tp1061
a(S'w'
I7
tp1062
a(S'no_ll'
I1
tp1063
a(S'w'
I5
tp1064
a(S'no_np'
I3
tp1065
a(S'w'
I615
tp1066
a(S'p1_vo'
I4
tp1067
a(S'w'
I10
tp1068
a(S'p2_vo'
I4
tp1069
a(S'w'
I12
tp1070
a(S'no_vo'
I3
tp1071
a(S'w'
I7
tp1072
a(S'no_np'
I1
tp1073
a(S'w'
I704
tp1074
a(S'p1_vo'
I3
tp1075
a(S'w'
I10
tp1076
a(S'p2_vo'
I3
tp1077
a(S'w'
I12
tp1078
a(S'no_vo'
I1
tp1079
a(S'w'
I7
tp1080
a(S'w'
I713
tp1081
a(S'no_vo'
I0
tp1082
a(S'w'
I4386
tp1083
a(S'p1_vo'
I2
tp1084
a(S'w'
I10
tp1085
a(S'p2_vo'
I2
tp1086
a(S'w'
I722
tp1087
a(S'p1_vo'
I1
tp1088
a(S'w'
I10
tp1089
a(S'p2_vo'
I1
tp1090
a(S'w'
I38
tp1091
a(S'tr_ll'
I1
tp1092
a(S'w'
I21
tp1093
a(S'no_vo'
I7
tp1094
a(S'w'
I7
tp1095
a(S'no_ll'
I1
tp1096
a(S'w'
I5
tp1097
a(S'no_np'
I3
tp1098
a(S'w'
I652
tp1099
a(S'p1_vo'
I0
tp1100
a(S'w'
I10
tp1101
a(S'p2_vo'
I0
tp1102
a(S'w'
I12
tp1103
a(S'no_vo'
I3
tp1104
a(S'w'
I7
tp1105
a(S'no_np'
I1
tp1106
a(S'w'
I715
tp1107
a(S'no_vo'
I1
tp1108
a(S'w'
I7
tp1109
a(S'w'
I725
tp1110
a(S'no_vo'
I0
tp1111
a(S'w'
I1456
tp1112
a(S'p1_vo'
I5
tp1113
a(S'w'
I9
tp1114
a(S'w'
I12
tp1115
a(S'p2_vo'
I5
tp1116
a(S'w'
I9
tp1117
a(S'w'
I701
tp1118
a(S'p1_vo'
I4
tp1119
a(S'w'
I10
tp1120
a(S'p2_vo'
I4
tp1121
a(S'w'
I723
tp1122
a(S'p1_vo'
I3
tp1123
a(S'w'
I10
tp1124
a(S'p2_vo'
I3
tp1125
a(S'w'
I722
tp1126
a(S'p1_vo'
I2
tp1127
a(S'w'
I10
tp1128
a(S'p2_vo'
I2
tp1129
a(S'w'
I723
tp1130
a(S'p1_vo'
I1
tp1131
a(S'w'
I10
tp1132
a(S'p2_vo'
I1
tp1133
a(S'w'
I729
tp1134
a(S'p1_vo'
I5
tp1135
a(S'w'
I9
tp1136
a(S'p1_tl'
I254
tp1137
a(S'w'
I13
tp1138
a(S'p2_vo'
I5
tp1139
a(S'w'
I10
tp1140
a(S'p2_tl'
I64
tp1141
a(S'w'
I38
tp1142
a(S'tr_ll'
I1
tp1143
a(S'w'
I5
tp1144
a(S'tr_tl'
I128
tp1145
a(S'w'
I16
tp1146
a(S'no_vo'
I5
tp1147
a(S'w'
I6
tp1148
a(S'no_ll'
I1
tp1149
a(S'w'
I6
tp1150
a(S'no_np'
I6
tp1151
a(S'w'
I623
tp1152
a(S'p1_vo'
I4
tp1153
a(S'w'
I10
tp1154
a(S'p2_vo'
I4
tp1155
a(S'w'
I723
tp1156
a(S'p1_vo'
I3
tp1157
a(S'w'
I10
tp1158
a(S'p2_vo'
I3
tp1159
a(S'w'
I12
tp1160
a(S'no_vo'
I3
tp1161
a(S'w'
I7
tp1162
a(S'w'
I1447
tp1163
a(S'no_vo'
I2
tp1164
a(S'w'
I7
tp1165
a(S'w'
I1458
tp1166
a(S'no_vo'
I1
tp1167
a(S'w'
I7
tp1168
a(S'no_np'
I1
tp1169
a(S'w'
I1447
tp1170
a(S'p1_vo'
I2
tp1171
a(S'w'
I10
tp1172
a(S'p2_vo'
I2
tp1173
a(S'w'
I12
tp1174
a(S'no_vo'
I0
tp1175
a(S'w'
I711
tp1176
a(S'p1_vo'
I1
tp1177
a(S'w'
I10
tp1178
a(S'p2_vo'
I1
tp1179
a(S'w'
I727
tp1180
a(S'p1_vo'
I5
tp1181
a(S'w'
I10
tp1182
a(S'p1_tl'
I213
tp1183
a(S'w'
I12
tp1184
a(S'p2_vo'
I5
tp1185
a(S'w'
I9
tp1186
a(S'p2_ll'
I1
tp1187
a(S'p2_th'
I0
tp1188
a(S'w'
I5
tp1189
a(S'p2_tl'
I254
tp1190
a(S'w'
I38
tp1191
a(S'tr_ll'
I1
tp1192
a(S'w'
I21
tp1193
a(S'no_vo'
I7
tp1194
a(S'w'
I7
tp1195
a(S'no_ll'
I1
tp1196
a(S'w'
I5
tp1197
a(S'no_np'
I3
tp1198
a(S'w'
I621
tp1199
a(S'p1_vo'
I4
tp1200
a(S'w'
I10
tp1201
a(S'p2_vo'
I4
tp1202
a(S'w'
I12
tp1203
a(S'no_vo'
I3
tp1204
a(S'w'
I7
tp1205
a(S'no_np'
I1
tp1206
a(S'w'
I704
tp1207
a(S'p1_vo'
I3
tp1208
a(S'w'
I10
tp1209
a(S'p2_vo'
I3
tp1210
a(S'w'
I12
tp1211
a(S'no_vo'
I1
tp1212
a(S'w'
I7
tp1213
a(S'w'
I713
tp1214
a(S'no_vo'
I0
tp1215
a(S'w'
I1493
tp1216
a(S'tr_ll'
I1
tp1217
a(S'w'
I20
tp1218
a(S'no_vo'
I7
tp1219
a(S'w'
I7
tp1220
a(S'no_ll'
I1
tp1221
a(S'w'
I5
tp1222
a(S'no_np'
I3
tp1223
a(S'w'
I674
tp1224
a(S'no_vo'
I3
tp1225
a(S'w'
I6
tp1226
a(S'no_np'
I1
tp1227
a(S'w'
I727
tp1228
a(S'no_vo'
I1
tp1229
a(S'w'
I7
tp1230
a(S'w'
I714
tp1231
a(S'p1_vo'
I2
tp1232
a(S'w'
I10
tp1233
a(S'p2_vo'
I2
tp1234
a(S'w'
I12
tp1235
a(S'no_vo'
I0
tp1236
a(S'w'
I711
tp1237
a(S'p1_vo'
I1
tp1238
a(S'w'
I10
tp1239
a(S'p2_vo'
I1
tp1240
a(S'w'
I725
tp1241
a(S'p1_vo'
I5
tp1242
a(S'w'
I10
tp1243
a(S'p1_tl'
I160
tp1244
a(S'w'
I15
tp1245
a(S'p2_vo'
I5
tp1246
a(S'w'
I10
tp1247
a(S'p2_tl'
I213
tp1248
a(S'w'
I39
tp1249
a(S'tr_ll'
I1
tp1250
a(S'w'
I21
tp1251
a(S'no_vo'
I7
tp1252
a(S'w'
I6
tp1253
a(S'no_ll'
I1
tp1254
a(S'w'
I6
tp1255
a(S'no_np'
I3
tp1256
a(S'w'
I623
tp1257
a(S'p1_vo'
I4
tp1258
a(S'w'
I10
tp1259
a(S'p2_vo'
I4
tp1260
a(S'w'
I12
tp1261
a(S'no_vo'
I3
tp1262
a(S'w'
I7
tp1263
a(S'no_np'
I1
tp1264
a(S'w'
I704
tp1265
a(S'p1_vo'
I3
tp1266
a(S'w'
I10
tp1267
a(S'p2_vo'
I3
tp1268
a(S'w'
I12
tp1269
a(S'no_vo'
I1
tp1270
a(S'w'
I7
tp1271
a(S'w'
I713
tp1272
a(S'no_vo'
I0
tp1273
a(S'w'
I3653
tp1274
a(S'p1_vo'
I2
tp1275
a(S'w'
I10
tp1276
a(S'p2_vo'
I2
tp1277
a(S'w'
I723
tp1278
a(S'p1_vo'
I1
tp1279
a(S'w'
I10
tp1280
a(S'p2_vo'
I1
tp1281
a(S'w'
I725
tp1282
a(S'p1_vo'
I5
tp1283
a(S'w'
I10
tp1284
a(S'p1_tl'
I213
tp1285
a(S'w'
I15
tp1286
a(S'p2_vo'
I5
tp1287
a(S'w'
I9
tp1288
a(S'p2_tl'
I254
tp1289
a(S'w'
I696
tp1290
a(S'p1_vo'
I4
tp1291
a(S'w'
I10
tp1292
a(S'p2_vo'
I4
tp1293
a(S'w'
I723
tp1294
a(S'p1_vo'
I3
tp1295
a(S'w'
I10
tp1296
a(S'p2_vo'
I3
tp1297
a(S'w'
I4385
tp1298
a(S'p1_vo'
I2
tp1299
a(S'w'
I10
tp1300
a(S'p2_vo'
I2
tp1301
a(S'w'
I723
tp1302
a(S'p1_vo'
I1
tp1303
a(S'w'
I10
tp1304
a(S'p2_vo'
I1
tp1305
a(S'w'
I728
tp1306
a(S'p1_vo'
I5
tp1307
a(S'w'
I9
tp1308
a(S'p1_tl'
I226
tp1309
a(S'w'
I13
tp1310
a(S'p2_vo'
I5
tp1311
a(S'w'
I8
tp1312
a(S'p2_ll'
I1
tp1313
a(S'p2_th'
I1
tp1314
a(S'w'
I6
tp1315
a(S'p2_tl'
I29
tp1316
a(S'w'
I38
tp1317
a(S'tr_ll'
I1
tp1318
a(S'w'
I5
tp1319
a(S'tr_tl'
I59
tp1320
a(S'w'
I16
tp1321
a(S'no_vo'
I5
tp1322
a(S'w'
I6
tp1323
a(S'no_ll'
I1
tp1324
a(S'w'
I6
tp1325
a(S'no_np'
I6
tp1326
a(S'w'
I620
tp1327
a(S'p1_vo'
I4
tp1328
a(S'w'
I10
tp1329
a(S'p2_vo'
I4
tp1330
a(S'w'
I723
tp1331
a(S'p1_vo'
I3
tp1332
a(S'w'
I10
tp1333
a(S'p2_vo'
I3
tp1334
a(S'w'
I12
tp1335
a(S'no_vo'
I3
tp1336
a(S'w'
I7
tp1337
a(S'w'
I1447
tp1338
a(S'no_vo'
I2
tp1339
a(S'w'
I7
tp1340
a(S'w'
I1458
tp1341
a(S'no_vo'
I1
tp1342
a(S'w'
I7
tp1343
a(S'no_np'
I1
tp1344
a(S'w'
I1447
tp1345
a(S'p1_vo'
I2
tp1346
a(S'w'
I10
tp1347
a(S'p2_vo'
I2
tp1348
a(S'w'
I12
tp1349
a(S'no_vo'
I0
tp1350
a(S'w'
I711
tp1351
a(S'p1_vo'
I1
tp1352
a(S'w'
I10
tp1353
a(S'p2_vo'
I1
tp1354
a(S'w'
I728
tp1355
a(S'p1_vo'
I5
tp1356
a(S'w'
I10
tp1357
a(S'p1_tl'
I190
tp1358
a(S'w'
I12
tp1359
a(S'p2_vo'
I5
tp1360
a(S'w'
I9
tp1361
a(S'p2_ll'
I1
tp1362
a(S'p2_th'
I0
tp1363
a(S'w'
I5
tp1364
a(S'p2_tl'
I226
tp1365
a(S'w'
I38
tp1366
a(S'tr_ll'
I1
tp1367
a(S'w'
I21
tp1368
a(S'no_vo'
I7
tp1369
a(S'w'
I7
tp1370
a(S'no_ll'
I1
tp1371
a(S'w'
I5
tp1372
a(S'no_np'
I3
tp1373
a(S'w'
I620
tp1374
a(S'p1_vo'
I4
tp1375
a(S'w'
I10
tp1376
a(S'p2_vo'
I4
tp1377
a(S'w'
I12
tp1378
a(S'no_vo'
I3
tp1379
a(S'w'
I7
tp1380
a(S'no_np'
I1
tp1381
a(S'w'
I704
tp1382
a(S'p1_vo'
I3
tp1383
a(S'w'
I10
tp1384
a(S'p2_vo'
I3
tp1385
a(S'w'
I12
tp1386
a(S'no_vo'
I1
tp1387
a(S'w'
I7
tp1388
a(S'w'
I713
tp1389
a(S'no_vo'
I0
tp1390
a(S'w'
I1492
tp1391
a(S'tr_ll'
I1
tp1392
a(S'w'
I21
tp1393
a(S'no_vo'
I7
tp1394
a(S'w'
I7
tp1395
a(S'no_ll'
I1
tp1396
a(S'w'
I5
tp1397
a(S'no_np'
I3
tp1398
a(S'w'
I674
tp1399
a(S'no_vo'
I3
tp1400
a(S'w'
I6
tp1401
a(S'no_np'
I1
tp1402
a(S'w'
I727
tp1403
a(S'no_vo'
I1
tp1404
a(S'w'
I7
tp1405
a(S'w'
I714
tp1406
a(S'p1_vo'
I2
tp1407
a(S'w'
I10
tp1408
a(S'p2_vo'
I2
tp1409
a(S'w'
I12
tp1410
a(S'no_vo'
I0
tp1411
a(S'w'
I711
tp1412
a(S'p1_vo'
I1
tp1413
a(S'w'
I10
tp1414
a(S'p2_vo'
I1
tp1415
a(S'w'
I725
tp1416
a(S'p1_vo'
I5
tp1417
a(S'w'
I10
tp1418
a(S'p1_tl'
I142
tp1419
a(S'w'
I15
tp1420
a(S'p2_vo'
I5
tp1421
a(S'w'
I10
tp1422
a(S'p2_tl'
I190
tp1423
a(S'w'
I39
tp1424
a(S'tr_ll'
I1
tp1425
a(S'w'
I21
tp1426
a(S'no_vo'
I7
tp1427
a(S'w'
I6
tp1428
a(S'no_ll'
I1
tp1429
a(S'w'
I6
tp1430
a(S'no_np'
I3
tp1431
a(S'w'
I623
tp1432
a(S'p1_vo'
I4
tp1433
a(S'w'
I10
tp1434
a(S'p2_vo'
I4
tp1435
a(S'w'
I12
tp1436
a(S'no_vo'
I3
tp1437
a(S'w'
I7
tp1438
a(S'no_np'
I1
tp1439
a(S'w'
I704
tp1440
a(S'p1_vo'
I3
tp1441
a(S'w'
I10
tp1442
a(S'p2_vo'
I3
tp1443
a(S'w'
I12
tp1444
a(S'no_vo'
I1
tp1445
a(S'w'
I7
tp1446
a(S'w'
I713
tp1447
a(S'no_vo'
I0
tp1448
a(S'w'
I3653
tp1449
a(S'p1_vo'
I2
tp1450
a(S'w'
I10
tp1451
a(S'p2_vo'
I2
tp1452
a(S'w'
I723
tp1453
a(S'p1_vo'
I1
tp1454
a(S'w'
I10
tp1455
a(S'p2_vo'
I1
tp1456
a(S'w'
I725
tp1457
a(S'p1_vo'
I5
tp1458
a(S'w'
I10
tp1459
a(S'p1_tl'
I190
tp1460
a(S'w'
I15
tp1461
a(S'p2_vo'
I5
tp1462
a(S'w'
I9
tp1463
a(S'p2_tl'
I226
tp1464
a(S'w'
I696
tp1465
a(S'p1_vo'
I4
tp1466
a(S'w'
I10
tp1467
a(S'p2_vo'
I4
tp1468
a(S'w'
I723
tp1469
a(S'p1_vo'
I3
tp1470
a(S'w'
I10
tp1471
a(S'p2_vo'
I3
tp1472
a(S'w'
I4385
tp1473
a(S'p1_vo'
I2
tp1474
a(S'w'
I10
tp1475
a(S'p2_vo'
I2
tp1476
a(S'w'
I723
tp1477
a(S'p1_vo'
I1
tp1478
a(S'w'
I10
tp1479
a(S'p2_vo'
I1
tp1480
a(S'w'
I731
tp1481
a(S'p1_vo'
I4
tp1482
a(S'w'
I9
tp1483
a(S'p1_tl'
I169
tp1484
a(S'w'
I22
tp1485
a(S'p2_vo'
I6
tp1486
a(S'w'
I9
tp1487
a(S'p2_tl'
I213
tp1488
a(S'w'
I35
tp1489
a(S'tr_lr'
I80
tp1490
a(S'w'
I8
tp1491
a(S'tr_ll'
I1
tp1492
a(S'tr_th'
I1
tp1493
a(S'w'
I6
tp1494
a(S'tr_tl'
I171
tp1495
a(S'w'
I15
tp1496
a(S'no_vo'
I5
tp1497
a(S'w'
I6
tp1498
a(S'no_ll'
I1
tp1499
a(S'w'
I6
tp1500
a(S'no_np'
I6
tp1501
a(S'w'
I608
tp1502
a(S'p1_vo'
I3
tp1503
a(S'w'
I10
tp1504
a(S'p2_vo'
I5
tp1505
a(S'w'
I723
tp1506
a(S'p1_vo'
I2
tp1507
a(S'w'
I10
tp1508
a(S'p2_vo'
I4
tp1509
a(S'w'
I12
tp1510
a(S'no_vo'
I3
tp1511
a(S'w'
I7
tp1512
a(S'w'
I1447
tp1513
a(S'no_vo'
I2
tp1514
a(S'w'
I7
tp1515
a(S'w'
I1458
tp1516
a(S'no_vo'
I1
tp1517
a(S'w'
I7
tp1518
a(S'no_np'
I1
tp1519
a(S'w'
I1458
tp1520
a(S'no_vo'
I0
tp1521
a(S'w'
I8821
tp1522
a(S'tr_ll'
I1
tp1523
a(S'tr_th'
I2
tp1524
a(S'w'
I5
tp1525
a(S'tr_tl'
I59
tp1526
a(S'w'
I15
tp1527
a(S'no_vo'
I5
tp1528
a(S'w'
I7
tp1529
a(S'no_ll'
I1
tp1530
a(S'w'
I5
tp1531
a(S'no_np'
I6
tp1532
a(S'w'
I1404
tp1533
a(S'no_vo'
I3
tp1534
a(S'w'
I7
tp1535
a(S'w'
I1458
tp1536
a(S'no_vo'
I2
tp1537
a(S'w'
I7
tp1538
a(S'w'
I1458
tp1539
a(S'no_vo'
I1
tp1540
a(S'w'
I7
tp1541
a(S'no_np'
I1
tp1542
a(S'w'
I1458
tp1543
a(S'no_vo'
I0
tp1544
a(S'w'
I1492
tp1545
a(S'tr_ll'
I1
tp1546
a(S'w'
I20
tp1547
a(S'no_vo'
I5
tp1548
a(S'w'
I7
tp1549
a(S'no_ll'
I1
tp1550
a(S'w'
I5
tp1551
a(S'no_np'
I6
tp1552
a(S'w'
I1407
tp1553
a(S'no_vo'
I3
tp1554
a(S'w'
I7
tp1555
a(S'w'
I1458
tp1556
a(S'no_vo'
I2
tp1557
a(S'w'
I7
tp1558
a(S'w'
I734
tp1559
a(S'no_vo'
I0
tp1560
a(S'w'
I18
tp1561
a(S'tr_ll'
I1
tp1562
a(S'w'
I20
tp1563
a(S'no_vo'
I5
tp1564
a(S'w'
I7
tp1565
a(S'no_ll'
I1
tp1566
a(S'w'
I5
tp1567
a(S'w'
I1407
tp1568
a(S'no_vo'
I3
tp1569
a(S'w'
I7
tp1570
a(S'w'
I1458
tp1571
a(S'no_vo'
I2
tp1572
a(S'w'
I7
tp1573
a(S'w'
I738
tp1574
a(S'no_vo'
I0
tp1575
a(S'w'
I11
tp1576
a(S'tr_lh'
I1
tp1577
a(S'tr_lr'
I16
tp1578
a(S'w'
I8
tp1579
a(S'tr_ll'
I1
tp1580
a(S'tr_th'
I1
tp1581
a(S'w'
I6
tp1582
a(S'tr_tl'
I171
tp1583
a(S'w'
I15
tp1584
a(S'no_vo'
I5
tp1585
a(S'w'
I7
tp1586
a(S'no_ll'
I1
tp1587
a(S'w'
I5
tp1588
a(S'w'
I1401
tp1589
a(S'no_vo'
I3
tp1590
a(S'w'
I7
tp1591
a(S'w'
I1458
tp1592
a(S'no_vo'
I2
tp1593
a(S'w'
I7
tp1594
a(S'w'
I1458
tp1595
a(S'no_vo'
I1
tp1596
a(S'w'
I7
tp1597
a(S'no_np'
I1
tp1598
a(S'w'
I1458
tp1599
a(S'no_vo'
I0
tp1600
a(S'w'
I19778
tp1601
a(S'tr_lh'
I0
tp1602
a(S'tr_lr'
I0
tp1603
a(S'w'
I724
tp1604
a(S'p1_vo'
I1
tp1605
a(S'w'
I10
tp1606
a(S'p2_vo'
I3
tp1607
a(S'w'
I723
tp1608
a(S'p1_vo'
I0
tp1609
a(S'w'
I10
tp1610
a(S'p2_vo'
I2
tp1611
a(S'w'
I727
tp1612
a(S'p2_vo'
I1
tp1613
a(S'w'
I732
tp1614
a(S'p2_vo'
I0
tp1615
a(S'w'
I728
tp1616
a(S'p1_du'
I0
tp1617
a(S'w'
I10
tp1618
a(S'p2_du'
I0
tp1619
a.