(lp1
(S'clock'
p2
I1789773
tp3
a(S'fc_mo'
I1
tp4
a(S'p1_lh'
I1
tp5
a(S'p1_cv'
I1
tp6
a(S'p2_lh'
I1
tp7
a(S'p2_cv'
I1
tp8
a(S'w'
I15
tp9
a(S'p1_du'
I2
tp10
a(S'p1_vo'
I5
tp11
a(S'w'
I8
tp12
a(S'p1_ll'
I1
tp13
a(S'p1_th'
I1
tp14
a(S'w'
I6
tp15
a(S'p1_tl'
I83
tp16
a(S'w'
I20
tp17
a(S'p2_du'
I2
tp18
a(S'p2_vo'
I4
tp19
a(S'w'
I8
tp20
a(S'p2_ll'
I1
tp21
a(S'p2_th'
I1
tp22
a(S'w'
I6
tp23
a(S'p2_tl'
I198
tp24
a(S'w'
I19
tp25
a(S'w'
I5
tp26
a(S'no_lh'
I1
tp27
a(S'no_cv'
I1
tp28
a(S'w'
I10
tp29
a(S'tr_lr'
I48
tp30
a(S'w'
I8
tp31
a(S'tr_ll'
I1
tp32
a(S'tr_th'
I1
tp33
a(S'w'
I6
tp34
a(S'tr_tl'
I83
tp35
a(S'w'
I15
tp36
a(S'no_vo'
I5
tp37
a(S'w'
I7
tp38
a(S'no_ll'
I1
tp39
a(S'w'
I5
tp40
a(S'no_np'
I6
tp41
a(S'w'
I601
tp42
a(S'p1_vo'
I4
tp43
a(S'w'
I10
tp44
a(S'p2_vo'
I3
tp45
a(S'w'
I723
tp46
a(S'p1_vo'
I3
tp47
a(S'w'
I10
tp48
a(S'p2_vo'
I2
tp49
a(S'w'
I12
tp50
a(S'no_vo'
I3
tp51
a(S'w'
I7
tp52
a(S'w'
I1447
tp53
a(S'no_vo'
I2
tp54
a(S'w'
I7
tp55
a(S'w'
I1458
tp56
a(S'no_vo'
I1
tp57
a(S'w'
I7
tp58
a(S'no_np'
I1
tp59
a(S'w'
I1457
tp60
a(S'no_vo'
I0
tp61
a(S'w'
I9544
tp62
a(S'tr_lr'
I16
tp63
a(S'w'
I8
tp64
a(S'tr_ll'
I1
tp65
a(S'w'
I20
tp66
a(S'no_vo'
I7
tp67
a(S'w'
I7
tp68
a(S'no_ll'
I1
tp69
a(S'w'
I5
tp70
a(S'no_np'
I3
tp71
a(S'w'
I674
tp72
a(S'no_vo'
I3
tp73
a(S'w'
I6
tp74
a(S'no_np'
I1
tp75
a(S'w'
I726
tp76
a(S'no_vo'
I1
tp77
a(S'w'
I7
tp78
a(S'w'
I725
tp79
a(S'no_vo'
I0
tp80
a(S'w'
I2957
tp81
a(S'tr_ll'
I1
tp82
a(S'w'
I21
tp83
a(S'no_vo'
I7
tp84
a(S'w'
I6
tp85
a(S'no_ll'
I1
tp86
a(S'w'
I6
tp87
a(S'no_np'
I3
tp88
a(S'w'
I674
tp89
a(S'no_vo'
I3
tp90
a(S'w'
I6
tp91
a(S'no_np'
I1
tp92
a(S'w'
I727
tp93
a(S'no_vo'
I1
tp94
a(S'w'
I7
tp95
a(S'w'
I724
tp96
a(S'no_vo'
I0
tp97
a(S'w'
I2958
tp98
a(S'tr_ll'
I1
tp99
a(S'w'
I21
tp100
a(S'no_vo'
I7
tp101
a(S'w'
I6
tp102
a(S'no_ll'
I1
tp103
a(S'w'
I6
tp104
a(S'no_np'
I3
tp105
a(S'w'
I673
tp106
a(S'no_vo'
I3
tp107
a(S'w'
I6
tp108
a(S'no_np'
I1
tp109
a(S'w'
I727
tp110
a(S'no_vo'
I1
tp111
a(S'w'
I7
tp112
a(S'w'
I724
tp113
a(S'no_vo'
I0
tp114
a(S'w'
I2951
tp115
a(S'tr_lr'
I48
tp116
a(S'w'
I8
tp117
a(S'tr_ll'
I1
tp118
a(S'w'
I21
tp119
a(S'no_vo'
I7
tp120
a(S'w'
I7
tp121
a(S'no_ll'
I1
tp122
a(S'w'
I5
tp123
a(S'no_np'
I3
tp124
a(S'w'
I672
tp125
a(S'no_vo'
I3
tp126
a(S'w'
I6
tp127
a(S'no_np'
I1
tp128
a(S'w'
I727
tp129
a(S'no_vo'
I1
tp130
a(S'w'
I7
tp131
a(S'w'
I725
tp132
a(S'no_vo'
I0
tp133
a(S'w'
I10246
tp134
a(S'p1_vo'
I2
tp135
a(S'w'
I10
tp136
a(S'p2_vo'
I1
tp137
a(S'w'
I723
tp138
a(S'p1_vo'
I1
tp139
a(S'w'
I10
tp140
a(S'p2_vo'
I0
tp141
a(S'w'
I722
tp142
a(S'p1_vo'
I0
tp143
a(S'w'
I1468
tp144
a(S'p1_vo'
I7
tp145
a(S'w'
I10
tp146
a(S'p1_tl'
I29
tp147
a(S'w'
I16
tp148
a(S'p2_vo'
I6
tp149
a(S'w'
I10
tp150
a(S'p2_tl'
I84
tp151
a(S'w'
I39
tp152
a(S'tr_ll'
I1
tp153
a(S'w'
I21
tp154
a(S'no_vo'
I7
tp155
a(S'w'
I6
tp156
a(S'no_ll'
I1
tp157
a(S'w'
I6
tp158
a(S'no_np'
I3
tp159
a(S'w'
I622
tp160
a(S'p1_vo'
I6
tp161
a(S'w'
I10
tp162
a(S'p2_vo'
I5
tp163
a(S'w'
I12
tp164
a(S'no_vo'
I3
tp165
a(S'w'
I7
tp166
a(S'no_np'
I1
tp167
a(S'w'
I704
tp168
a(S'p1_vo'
I5
tp169
a(S'w'
I10
tp170
a(S'p2_vo'
I4
tp171
a(S'w'
I12
tp172
a(S'no_vo'
I1
tp173
a(S'w'
I7
tp174
a(S'w'
I703
tp175
a(S'p1_vo'
I4
tp176
a(S'w'
I10
tp177
a(S'p2_vo'
I3
tp178
a(S'w'
I12
tp179
a(S'no_vo'
I0
tp180
a(S'w'
I711
tp181
a(S'p1_vo'
I3
tp182
a(S'w'
I10
tp183
a(S'p2_vo'
I2
tp184
a(S'w'
I7318
tp185
a(S'p1_vo'
I7
tp186
a(S'w'
I9
tp187
a(S'p1_tl'
I83
tp188
a(S'w'
I15
tp189
a(S'p2_vo'
I6
tp190
a(S'w'
I9
tp191
a(S'p2_tl'
I198
tp192
a(S'w'
I698
tp193
a(S'p1_vo'
I6
tp194
a(S'w'
I10
tp195
a(S'p2_vo'
I5
tp196
a(S'w'
I722
tp197
a(S'p1_vo'
I5
tp198
a(S'w'
I10
tp199
a(S'p2_vo'
I4
tp200
a(S'w'
I723
tp201
a(S'p1_vo'
I4
tp202
a(S'w'
I10
tp203
a(S'p2_vo'
I3
tp204
a(S'w'
I722
tp205
a(S'p1_vo'
I3
tp206
a(S'w'
I10
tp207
a(S'p2_vo'
I2
tp208
a(S'w'
I2194
tp209
a(S'p1_vo'
I5
tp210
a(S'w'
I8
tp211
a(S'p1_ll'
I1
tp212
a(S'p1_th'
I0
tp213
a(S'w'
I6
tp214
a(S'p1_tl'
I226
tp215
a(S'w'
I19
tp216
a(S'p2_vo'
I4
tp217
a(S'w'
I9
tp218
a(S'p2_tl'
I84
tp219
a(S'w'
I39
tp220
a(S'tr_ll'
I1
tp221
a(S'w'
I21
tp222
a(S'no_vo'
I5
tp223
a(S'w'
I6
tp224
a(S'no_ll'
I1
tp225
a(S'w'
I6
tp226
a(S'no_np'
I6
tp227
a(S'w'
I613
tp228
a(S'p1_vo'
I4
tp229
a(S'w'
I10
tp230
a(S'p2_vo'
I3
tp231
a(S'w'
I722
tp232
a(S'p1_vo'
I3
tp233
a(S'w'
I10
tp234
a(S'p2_vo'
I2
tp235
a(S'w'
I12
tp236
a(S'no_vo'
I3
tp237
a(S'w'
I7
tp238
a(S'w'
I1448
tp239
a(S'no_vo'
I2
tp240
a(S'w'
I7
tp241
a(S'w'
I1458
tp242
a(S'no_vo'
I1
tp243
a(S'w'
I7
tp244
a(S'no_np'
I1
tp245
a(S'w'
I1457
tp246
a(S'no_vo'
I0
tp247
a(S'w'
I9544
tp248
a(S'tr_lr'
I16
tp249
a(S'w'
I8
tp250
a(S'tr_ll'
I1
tp251
a(S'w'
I20
tp252
a(S'no_vo'
I7
tp253
a(S'w'
I7
tp254
a(S'no_ll'
I1
tp255
a(S'w'
I5
tp256
a(S'no_np'
I3
tp257
a(S'w'
I673
tp258
a(S'no_vo'
I3
tp259
a(S'w'
I6
tp260
a(S'no_np'
I1
tp261
a(S'w'
I727
tp262
a(S'no_vo'
I1
tp263
a(S'w'
I7
tp264
a(S'w'
I725
tp265
a(S'no_vo'
I0
tp266
a(S'w'
I2957
tp267
a(S'tr_ll'
I1
tp268
a(S'w'
I21
tp269
a(S'no_vo'
I7
tp270
a(S'w'
I6
tp271
a(S'no_ll'
I1
tp272
a(S'w'
I6
tp273
a(S'no_np'
I3
tp274
a(S'w'
I674
tp275
a(S'no_vo'
I3
tp276
a(S'w'
I6
tp277
a(S'no_np'
I1
tp278
a(S'w'
I726
tp279
a(S'no_vo'
I1
tp280
a(S'w'
I7
tp281
a(S'w'
I725
tp282
a(S'no_vo'
I0
tp283
a(S'w'
I2957
tp284
a(S'tr_ll'
I1
tp285
a(S'w'
I21
tp286
a(S'no_vo'
I7
tp287
a(S'w'
I6
tp288
a(S'no_ll'
I1
tp289
a(S'w'
I6
tp290
a(S'no_np'
I3
tp291
a(S'w'
I674
tp292
a(S'no_vo'
I3
tp293
a(S'w'
I6
tp294
a(S'no_np'
I1
tp295
a(S'w'
I726
tp296
a(S'no_vo'
I1
tp297
a(S'w'
I7
tp298
a(S'w'
I725
tp299
a(S'no_vo'
I0
tp300
a(S'w'
I2950
tp301
a(S'tr_lr'
I48
tp302
a(S'w'
I8
tp303
a(S'tr_ll'
I1
tp304
a(S'w'
I21
tp305
a(S'no_vo'
I7
tp306
a(S'w'
I7
tp307
a(S'no_ll'
I1
tp308
a(S'w'
I5
tp309
a(S'no_np'
I3
tp310
a(S'w'
I673
tp311
a(S'no_vo'
I3
tp312
a(S'w'
I6
tp313
a(S'no_np'
I1
tp314
a(S'w'
I727
tp315
a(S'no_vo'
I1
tp316
a(S'w'
I7
tp317
a(S'w'
I724
tp318
a(S'no_vo'
I0
tp319
a(S'w'
I10247
tp320
a(S'p1_vo'
I2
tp321
a(S'w'
I10
tp322
a(S'p2_vo'
I1
tp323
a(S'w'
I722
tp324
a(S'p1_vo'
I1
tp325
a(S'w'
I10
tp326
a(S'p2_vo'
I0
tp327
a(S'w'
I723
tp328
a(S'p1_vo'
I0
tp329
a(S'w'
I1468
tp330
a(S'p1_vo'
I7
tp331
a(S'w'
I9
tp332
a(S'p1_ll'
I1
tp333
a(S'p1_th'
I1
tp334
a(S'w'
I6
tp335
a(S'p1_tl'
I29
tp336
a(S'w'
I13
tp337
a(S'p2_vo'
I6
tp338
a(S'w'
I10
tp339
a(S'w'
I39
tp340
a(S'tr_ll'
I1
tp341
a(S'w'
I21
tp342
a(S'no_vo'
I7
tp343
a(S'w'
I6
tp344
a(S'no_ll'
I1
tp345
a(S'w'
I6
tp346
a(S'no_np'
I3
tp347
a(S'w'
I620
tp348
a(S'p1_vo'
I6
tp349
a(S'w'
I10
tp350
a(S'p2_vo'
I5
tp351
a(S'w'
I12
tp352
a(S'no_vo'
I3
tp353
a(S'w'
I7
tp354
a(S'no_np'
I1
tp355
a(S'w'
I703
tp356
a(S'p1_vo'
I5
tp357
a(S'w'
I10
tp358
a(S'p2_vo'
I4
tp359
a(S'w'
I12
tp360
a(S'no_vo'
I1
tp361
a(S'w'
I7
tp362
a(S'w'
I704
tp363
a(S'p1_vo'
I4
tp364
a(S'w'
I10
tp365
a(S'p2_vo'
I3
tp366
a(S'w'
I12
tp367
a(S'no_vo'
I0
tp368
a(S'w'
I711
tp369
a(S'p1_vo'
I3
tp370
a(S'w'
I10
tp371
a(S'p2_vo'
I2
tp372
a(S'w'
I7318
tp373
a(S'p1_vo'
I7
tp374
a(S'w'
I9
tp375
a(S'p1_tl'
I83
tp376
a(S'w'
I15
tp377
a(S'p2_vo'
I6
tp378
a(S'w'
I9
tp379
a(S'p2_tl'
I198
tp380
a(S'w'
I697
tp381
a(S'p1_vo'
I6
tp382
a(S'w'
I10
tp383
a(S'p2_vo'
I5
tp384
a(S'w'
I723
tp385
a(S'p1_vo'
I5
tp386
a(S'w'
I10
tp387
a(S'p2_vo'
I4
tp388
a(S'w'
I722
tp389
a(S'p1_vo'
I4
tp390
a(S'w'
I10
tp391
a(S'p2_vo'
I3
tp392
a(S'w'
I723
tp393
a(S'p1_vo'
I3
tp394
a(S'w'
I10
tp395
a(S'p2_vo'
I2
tp396
a(S'w'
I2195
tp397
a(S'p1_vo'
I5
tp398
a(S'w'
I8
tp399
a(S'p1_ll'
I1
tp400
a(S'p1_th'
I0
tp401
a(S'w'
I6
tp402
a(S'p1_tl'
I190
tp403
a(S'w'
I17
tp404
a(S'p2_vo'
I5
tp405
a(S'w'
I8
tp406
a(S'p2_ll'
I1
tp407
a(S'p2_th'
I0
tp408
a(S'w'
I6
tp409
a(S'p2_tl'
I255
tp410
a(S'w'
I41
tp411
a(S'tr_ll'
I1
tp412
a(S'w'
I6
tp413
a(S'tr_tl'
I252
tp414
a(S'w'
I15
tp415
a(S'no_vo'
I5
tp416
a(S'w'
I7
tp417
a(S'no_ll'
I1
tp418
a(S'w'
I5
tp419
a(S'no_np'
I6
tp420
a(S'w'
I606
tp421
a(S'p1_vo'
I4
tp422
a(S'w'
I10
tp423
a(S'p2_vo'
I4
tp424
a(S'w'
I723
tp425
a(S'p1_vo'
I3
tp426
a(S'w'
I10
tp427
a(S'p2_vo'
I3
tp428
a(S'w'
I12
tp429
a(S'no_vo'
I3
tp430
a(S'w'
I7
tp431
a(S'w'
I708
tp432
a(S'p2_vo'
I2
tp433
a(S'w'
I739
tp434
a(S'no_vo'
I2
tp435
a(S'w'
I7
tp436
a(S'w'
I1458
tp437
a(S'no_vo'
I1
tp438
a(S'w'
I7
tp439
a(S'no_np'
I1
tp440
a(S'w'
I1458
tp441
a(S'no_vo'
I0
tp442
a(S'w'
I722
tp443
a(S'p1_vo'
I2
tp444
a(S'w'
I733
tp445
a(S'p1_vo'
I1
tp446
a(S'w'
I732
tp447
a(S'p1_vo'
I0
tp448
a(S'w'
I10
tp449
a(S'p2_vo'
I1
tp450
a(S'w'
I727
tp451
a(S'p2_vo'
I0
tp452
a(S'w'
I1462
tp453
a(S'p1_du'
I0
tp454
a(S'w'
I12
tp455
a(S'p2_du'
I0
tp456
a(S'w'
I5118
tp457
a(S'p1_du'
I2
tp458
a(S'p1_vo'
I5
tp459
a(S'w'
I10
tp460
a(S'p1_tl'
I201
tp461
a(S'w'
I14
tp462
a(S'p2_du'
I2
tp463
a(S'p2_vo'
I5
tp464
a(S'w'
I9
tp465
a(S'w'
I31
tp466
a(S'tr_lr'
I16
tp467
a(S'w'
I7
tp468
a(S'tr_ll'
I1
tp469
a(S'w'
I21
tp470
a(S'no_vo'
I7
tp471
a(S'w'
I7
tp472
a(S'no_ll'
I1
tp473
a(S'w'
I5
tp474
a(S'no_np'
I3
tp475
a(S'w'
I626
tp476
a(S'p1_vo'
I4
tp477
a(S'w'
I10
tp478
a(S'p2_vo'
I4
tp479
a(S'w'
I12
tp480
a(S'no_vo'
I3
tp481
a(S'w'
I7
tp482
a(S'no_np'
I1
tp483
a(S'w'
I704
tp484
a(S'p1_vo'
I3
tp485
a(S'w'
I10
tp486
a(S'p2_vo'
I3
tp487
a(S'w'
I12
tp488
a(S'no_vo'
I1
tp489
a(S'w'
I7
tp490
a(S'w'
I707
tp491
a(S'p2_vo'
I2
tp492
a(S'w'
I12
tp493
a(S'no_vo'
I0
tp494
a(S'w'
I2952
tp495
a(S'tr_ll'
I1
tp496
a(S'w'
I20
tp497
a(S'no_vo'
I7
tp498
a(S'w'
I7
tp499
a(S'no_ll'
I1
tp500
a(S'w'
I5
tp501
a(S'no_np'
I3
tp502
a(S'w'
I674
tp503
a(S'no_vo'
I3
tp504
a(S'w'
I6
tp505
a(S'no_np'
I1
tp506
a(S'w'
I727
tp507
a(S'no_vo'
I1
tp508
a(S'w'
I7
tp509
a(S'w'
I724
tp510
a(S'no_vo'
I0
tp511
a(S'w'
I2957
tp512
a(S'tr_ll'
I1
tp513
a(S'w'
I21
tp514
a(S'no_vo'
I7
tp515
a(S'w'
I7
tp516
a(S'no_ll'
I1
tp517
a(S'w'
I5
tp518
a(S'no_np'
I3
tp519
a(S'w'
I674
tp520
a(S'no_vo'
I3
tp521
a(S'w'
I6
tp522
a(S'no_np'
I1
tp523
a(S'w'
I727
tp524
a(S'no_vo'
I1
tp525
a(S'w'
I7
tp526
a(S'w'
I725
tp527
a(S'no_vo'
I0
tp528
a(S'w'
I2950
tp529
a(S'tr_lr'
I48
tp530
a(S'w'
I8
tp531
a(S'tr_ll'
I1
tp532
a(S'w'
I21
tp533
a(S'no_vo'
I7
tp534
a(S'w'
I6
tp535
a(S'no_ll'
I1
tp536
a(S'w'
I6
tp537
a(S'no_np'
I3
tp538
a(S'w'
I673
tp539
a(S'no_vo'
I3
tp540
a(S'w'
I6
tp541
a(S'no_np'
I1
tp542
a(S'w'
I726
tp543
a(S'no_vo'
I1
tp544
a(S'w'
I7
tp545
a(S'w'
I725
tp546
a(S'no_vo'
I0
tp547
a(S'w'
I9514
tp548
a(S'p1_vo'
I2
tp549
a(S'w'
I732
tp550
a(S'p1_vo'
I1
tp551
a(S'w'
I733
tp552
a(S'p1_vo'
I0
tp553
a(S'w'
I10
tp554
a(S'p2_vo'
I1
tp555
a(S'w'
I727
tp556
a(S'p2_vo'
I0
tp557
a(S'w'
I1468
tp558
a(S'p1_vo'
I7
tp559
a(S'w'
I9
tp560
a(S'p1_tl'
I254
tp561
a(S'w'
I13
tp562
a(S'p2_vo'
I6
tp563
a(S'w'
I9
tp564
a(S'p2_ll'
I1
tp565
a(S'p2_th'
I1
tp566
a(S'w'
I5
tp567
a(S'p2_tl'
I84
tp568
a(S'w'
I39
tp569
a(S'tr_ll'
I1
tp570
a(S'w'
I21
tp571
a(S'no_vo'
I7
tp572
a(S'w'
I7
tp573
a(S'no_ll'
I1
tp574
a(S'w'
I5
tp575
a(S'no_np'
I3
tp576
a(S'w'
I617
tp577
a(S'p1_vo'
I6
tp578
a(S'w'
I10
tp579
a(S'p2_vo'
I5
tp580
a(S'w'
I12
tp581
a(S'no_vo'
I3
tp582
a(S'w'
I7
tp583
a(S'no_np'
I1
tp584
a(S'w'
I704
tp585
a(S'p1_vo'
I5
tp586
a(S'w'
I10
tp587
a(S'p2_vo'
I4
tp588
a(S'w'
I12
tp589
a(S'no_vo'
I1
tp590
a(S'w'
I7
tp591
a(S'w'
I704
tp592
a(S'p1_vo'
I4
tp593
a(S'w'
I10
tp594
a(S'p2_vo'
I3
tp595
a(S'w'
I12
tp596
a(S'no_vo'
I0
tp597
a(S'w'
I710
tp598
a(S'p1_vo'
I3
tp599
a(S'w'
I10
tp600
a(S'p2_vo'
I2
tp601
a(S'w'
I7318
tp602
a(S'p1_vo'
I7
tp603
a(S'w'
I8
tp604
a(S'p1_ll'
I1
tp605
a(S'p1_th'
I1
tp606
a(S'w'
I6
tp607
a(S'p1_tl'
I83
tp608
a(S'w'
I15
tp609
a(S'p2_vo'
I6
tp610
a(S'w'
I9
tp611
a(S'p2_tl'
I253
tp612
a(S'w'
I693
tp613
a(S'p1_vo'
I6
tp614
a(S'w'
I10
tp615
a(S'p2_vo'
I5
tp616
a(S'w'
I722
tp617
a(S'p1_vo'
I5
tp618
a(S'w'
I10
tp619
a(S'p2_vo'
I4
tp620
a(S'w'
I723
tp621
a(S'p1_vo'
I4
tp622
a(S'w'
I10
tp623
a(S'p2_vo'
I3
tp624
a(S'w'
I723
tp625
a(S'p1_vo'
I3
tp626
a(S'w'
I10
tp627
a(S'p2_vo'
I2
tp628
a(S'w'
I2192
tp629
a(S'p1_vo'
I5
tp630
a(S'w'
I8
tp631
a(S'p1_ll'
I1
tp632
a(S'p1_th'
I0
tp633
a(S'w'
I6
tp634
a(S'p1_tl'
I254
tp635
a(S'w'
I18
tp636
a(S'p2_vo'
I4
tp637
a(S'w'
I9
tp638
a(S'p2_tl'
I84
tp639
a(S'w'
I39
tp640
a(S'tr_ll'
I1
tp641
a(S'w'
I21
tp642
a(S'no_vo'
I5
tp643
a(S'w'
I6
tp644
a(S'no_ll'
I1
tp645
a(S'w'
I6
tp646
a(S'no_np'
I6
tp647
a(S'w'
I615
tp648
a(S'p1_vo'
I4
tp649
a(S'w'
I10
tp650
a(S'p2_vo'
I3
tp651
a(S'w'
I723
tp652
a(S'p1_vo'
I3
tp653
a(S'w'
I10
tp654
a(S'p2_vo'
I2
tp655
a(S'w'
I12
tp656
a(S'no_vo'
I3
tp657
a(S'w'
I7
tp658
a(S'w'
I1447
tp659
a(S'no_vo'
I2
tp660
a(S'w'
I7
tp661
a(S'w'
I1458
tp662
a(S'no_vo'
I1
tp663
a(S'w'
I7
tp664
a(S'no_np'
I1
tp665
a(S'w'
I1457
tp666
a(S'no_vo'
I0
tp667
a(S'w'
I9544
tp668
a(S'tr_lr'
I16
tp669
a(S'w'
I7
tp670
a(S'tr_ll'
I1
tp671
a(S'w'
I21
tp672
a(S'no_vo'
I7
tp673
a(S'w'
I6
tp674
a(S'no_ll'
I1
tp675
a(S'w'
I6
tp676
a(S'no_np'
I3
tp677
a(S'w'
I674
tp678
a(S'no_vo'
I3
tp679
a(S'w'
I6
tp680
a(S'no_np'
I1
tp681
a(S'w'
I726
tp682
a(S'no_vo'
I1
tp683
a(S'w'
I7
tp684
a(S'w'
I725
tp685
a(S'no_vo'
I0
tp686
a(S'w'
I2956
tp687
a(S'tr_ll'
I1
tp688
a(S'w'
I21
tp689
a(S'no_vo'
I7
tp690
a(S'w'
I7
tp691
a(S'no_ll'
I1
tp692
a(S'w'
I5
tp693
a(S'no_np'
I3
tp694
a(S'w'
I675
tp695
a(S'no_vo'
I3
tp696
a(S'w'
I6
tp697
a(S'no_np'
I1
tp698
a(S'w'
I726
tp699
a(S'no_vo'
I1
tp700
a(S'w'
I7
tp701
a(S'w'
I725
tp702
a(S'no_vo'
I0
tp703
a(S'w'
I2957
tp704
a(S'tr_ll'
I1
tp705
a(S'w'
I20
tp706
a(S'no_vo'
I7
tp707
a(S'w'
I7
tp708
a(S'no_ll'
I1
tp709
a(S'w'
I5
tp710
a(S'no_np'
I3
tp711
a(S'w'
I675
tp712
a(S'no_vo'
I3
tp713
a(S'w'
I6
tp714
a(S'no_np'
I1
tp715
a(S'w'
I727
tp716
a(S'no_vo'
I1
tp717
a(S'w'
I7
tp718
a(S'w'
I714
tp719
a(S'p1_vo'
I2
tp720
a(S'w'
I10
tp721
a(S'p2_vo'
I1
tp722
a(S'w'
I12
tp723
a(S'no_vo'
I0
tp724
a(S'w'
I711
tp725
a(S'p1_vo'
I1
tp726
a(S'w'
I10
tp727
a(S'p2_vo'
I0
tp728
a(S'w'
I723
tp729
a(S'p1_vo'
I0
tp730
a(S'w'
I1469
tp731
a(S'p1_vo'
I8
tp732
a(S'w'
I9
tp733
a(S'w'
I14
tp734
a(S'p2_vo'
I7
tp735
a(S'w'
I9
tp736
a(S'w'
I32
tp737
a(S'tr_lr'
I48
tp738
a(S'w'
I8
tp739
a(S'tr_ll'
I1
tp740
a(S'w'
I20
tp741
a(S'no_vo'
I5
tp742
a(S'w'
I7
tp743
a(S'no_ll'
I1
tp744
a(S'w'
I5
tp745
a(S'no_np'
I6
tp746
a(S'w'
I624
tp747
a(S'p1_vo'
I7
tp748
a(S'w'
I10
tp749
a(S'p2_vo'
I6
tp750
a(S'w'
I723
tp751
a(S'p1_vo'
I6
tp752
a(S'w'
I10
tp753
a(S'p2_vo'
I5
tp754
a(S'w'
I12
tp755
a(S'no_vo'
I3
tp756
a(S'w'
I7
tp757
a(S'w'
I704
tp758
a(S'p1_vo'
I5
tp759
a(S'w'
I10
tp760
a(S'p2_vo'
I4
tp761
a(S'w'
I722
tp762
a(S'p1_vo'
I4
tp763
a(S'w'
I10
tp764
a(S'p2_vo'
I3
tp765
a(S'w'
I12
tp766
a(S'no_vo'
I2
tp767
a(S'w'
I7
tp768
a(S'w'
I704
tp769
a(S'p1_vo'
I3
tp770
a(S'w'
I10
tp771
a(S'p2_vo'
I2
tp772
a(S'w'
I733
tp773
a(S'no_vo'
I1
tp774
a(S'w'
I7
tp775
a(S'no_np'
I1
tp776
a(S'w'
I1458
tp777
a(S'no_vo'
I0
tp778
a(S'w'
I9515
tp779
a(S'p1_vo'
I8
tp780
a(S'w'
I10
tp781
a(S'p1_tl'
I226
tp782
a(S'w'
I12
tp783
a(S'p2_vo'
I7
tp784
a(S'w'
I9
tp785
a(S'p2_tl'
I47
tp786
a(S'w'
I39
tp787
a(S'tr_ll'
I1
tp788
a(S'w'
I6
tp789
a(S'tr_tl'
I197
tp790
a(S'w'
I15
tp791
a(S'no_vo'
I5
tp792
a(S'w'
I7
tp793
a(S'no_ll'
I1
tp794
a(S'w'
I5
tp795
a(S'no_np'
I6
tp796
a(S'w'
I628
tp797
a(S'p1_vo'
I7
tp798
a(S'w'
I10
tp799
a(S'p2_vo'
I6
tp800
a(S'w'
I723
tp801
a(S'p1_vo'
I6
tp802
a(S'w'
I10
tp803
a(S'p2_vo'
I5
tp804
a(S'w'
I12
tp805
a(S'no_vo'
I3
tp806
a(S'w'
I7
tp807
a(S'w'
I703
tp808
a(S'p1_vo'
I5
tp809
a(S'w'
I10
tp810
a(S'p2_vo'
I4
tp811
a(S'w'
I723
tp812
a(S'p1_vo'
I4
tp813
a(S'w'
I10
tp814
a(S'p2_vo'
I3
tp815
a(S'w'
I12
tp816
a(S'no_vo'
I2
tp817
a(S'w'
I7
tp818
a(S'w'
I703
tp819
a(S'p1_vo'
I3
tp820
a(S'w'
I10
tp821
a(S'p2_vo'
I2
tp822
a(S'w'
I734
tp823
a(S'no_vo'
I1
tp824
a(S'w'
I7
tp825
a(S'no_np'
I1
tp826
a(S'w'
I1457
tp827
a(S'no_vo'
I0
tp828
a(S'w'
I9522
tp829
a(S'p1_vo'
I5
tp830
a(S'w'
I9
tp831
a(S'p1_tl'
I213
tp832
a(S'w'
I15
tp833
a(S'p2_vo'
I5
tp834
a(S'w'
I10
tp835
a(S'p2_tl'
I30
tp836
a(S'w'
I42
tp837
a(S'tr_ll'
I1
tp838
a(S'w'
I5
tp839
a(S'tr_tl'
I171
tp840
a(S'w'
I15
tp841
a(S'no_vo'
I5
tp842
a(S'w'
I7
tp843
a(S'no_ll'
I1
tp844
a(S'w'
I5
tp845
a(S'no_np'
I6
tp846
a(S'w'
I617
tp847
a(S'p1_vo'
I4
tp848
a(S'w'
I10
tp849
a(S'p2_vo'
I4
tp850
a(S'w'
I722
tp851
a(S'p1_vo'
I3
tp852
a(S'w'
I10
tp853
a(S'p2_vo'
I3
tp854
a(S'w'
I12
tp855
a(S'no_vo'
I3
tp856
a(S'w'
I7
tp857
a(S'w'
I708
tp858
a(S'p2_vo'
I2
tp859
a(S'w'
I739
tp860
a(S'no_vo'
I2
tp861
a(S'w'
I7
tp862
a(S'w'
I1459
tp863
a(S'no_vo'
I1
tp864
a(S'w'
I7
tp865
a(S'no_np'
I1
tp866
a(S'w'
I1457
tp867
a(S'no_vo'
I0
tp868
a(S'w'
I9544
tp869
a(S'tr_lr'
I16
tp870
a(S'w'
I8
tp871
a(S'tr_ll'
I1
tp872
a(S'w'
I20
tp873
a(S'no_vo'
I7
tp874
a(S'w'
I7
tp875
a(S'no_ll'
I1
tp876
a(S'w'
I5
tp877
a(S'no_np'
I3
tp878
a(S'w'
I673
tp879
a(S'no_vo'
I3
tp880
a(S'w'
I6
tp881
a(S'no_np'
I1
tp882
a(S'w'
I727
tp883
a(S'no_vo'
I1
tp884
a(S'w'
I7
tp885
a(S'w'
I725
tp886
a(S'no_vo'
I0
tp887
a(S'w'
I2957
tp888
a(S'tr_ll'
I1
tp889
a(S'w'
I21
tp890
a(S'no_vo'
I7
tp891
a(S'w'
I6
tp892
a(S'no_ll'
I1
tp893
a(S'w'
I6
tp894
a(S'no_np'
I3
tp895
a(S'w'
I674
tp896
a(S'no_vo'
I3
tp897
a(S'w'
I6
tp898
a(S'no_np'
I1
tp899
a(S'w'
I726
tp900
a(S'no_vo'
I1
tp901
a(S'w'
I7
tp902
a(S'w'
I725
tp903
a(S'no_vo'
I0
tp904
a(S'w'
I2957
tp905
a(S'tr_ll'
I1
tp906
a(S'w'
I21
tp907
a(S'no_vo'
I7
tp908
a(S'w'
I6
tp909
a(S'no_ll'
I1
tp910
a(S'w'
I6
tp911
a(S'no_np'
I3
tp912
a(S'w'
I674
tp913
a(S'no_vo'
I3
tp914
a(S'w'
I6
tp915
a(S'no_np'
I1
tp916
a(S'w'
I726
tp917
a(S'no_vo'
I1
tp918
a(S'w'
I7
tp919
a(S'w'
I715
tp920
a(S'p1_vo'
I2
tp921
a(S'w'
I16
tp922
a(S'no_vo'
I0
tp923
a(S'w'
I717
tp924
a(S'p1_vo'
I1
tp925
a(S'w'
I10
tp926
a(S'p2_vo'
I1
tp927
a(S'w'
I722
tp928
a(S'p1_vo'
I0
tp929
a(S'w'
I10
tp930
a(S'p2_vo'
I0
tp931
a(S'w'
I1462
tp932
a(S'p1_vo'
I7
tp933
a(S'w'
I8
tp934
a(S'p1_ll'
I1
tp935
a(S'p1_th'
I1
tp936
a(S'w'
I6
tp937
a(S'p1_tl'
I29
tp938
a(S'w'
I14
tp939
a(S'p2_vo'
I6
tp940
a(S'w'
I9
tp941
a(S'p2_tl'
I84
tp942
a(S'w'
I32
tp943
a(S'tr_lr'
I48
tp944
a(S'w'
I8
tp945
a(S'tr_ll'
I1
tp946
a(S'w'
I21
tp947
a(S'no_vo'
I7
tp948
a(S'w'
I6
tp949
a(S'no_ll'
I1
tp950
a(S'w'
I6
tp951
a(S'no_np'
I3
tp952
a(S'w'
I616
tp953
a(S'p1_vo'
I6
tp954
a(S'w'
I10
tp955
a(S'p2_vo'
I5
tp956
a(S'w'
I12
tp957
a(S'no_vo'
I3
tp958
a(S'w'
I7
tp959
a(S'no_np'
I1
tp960
a(S'w'
I704
tp961
a(S'p1_vo'
I5
tp962
a(S'w'
I10
tp963
a(S'p2_vo'
I4
tp964
a(S'w'
I12
tp965
a(S'no_vo'
I1
tp966
a(S'w'
I7
tp967
a(S'w'
I703
tp968
a(S'p1_vo'
I4
tp969
a(S'w'
I10
tp970
a(S'p2_vo'
I3
tp971
a(S'w'
I12
tp972
a(S'no_vo'
I0
tp973
a(S'w'
I711
tp974
a(S'p1_vo'
I3
tp975
a(S'w'
I10
tp976
a(S'p2_vo'
I2
tp977
a(S'w'
I722
tp978
a(S'p1_vo'
I2
tp979
a(S'w'
I10
tp980
a(S'p2_vo'
I1
tp981
a(S'w'
I11714
tp982
a(S'p1_vo'
I7
tp983
a(S'w'
I10
tp984
a(S'p1_tl'
I83
tp985
a(S'w'
I12
tp986
a(S'p2_vo'
I6
tp987
a(S'w'
I9
tp988
a(S'p2_tl'
I172
tp989
a(S'w'
I40
tp990
a(S'tr_ll'
I1
tp991
a(S'w'
I21
tp992
a(S'no_vo'
I7
tp993
a(S'w'
I6
tp994
a(S'no_ll'
I1
tp995
a(S'w'
I6
tp996
a(S'no_np'
I3
tp997
a(S'w'
I627
tp998
a(S'p1_vo'
I6
tp999
a(S'w'
I10
tp1000
a(S'p2_vo'
I5
tp1001
a(S'w'
I12
tp1002
a(S'no_vo'
I3
tp1003
a(S'w'
I7
tp1004
a(S'no_np'
I1
tp1005
a(S'w'
I703
tp1006
a(S'p1_vo'
I5
tp1007
a(S'w'
I10
tp1008
a(S'p2_vo'
I4
tp1009
a(S'w'
I12
tp1010
a(S'no_vo'
I1
tp1011
a(S'w'
I7
tp1012
a(S'w'
I704
tp1013
a(S'p1_vo'
I4
tp1014
a(S'w'
I10
tp1015
a(S'p2_vo'
I3
tp1016
a(S'w'
I12
tp1017
a(S'no_vo'
I0
tp1018
a(S'w'
I710
tp1019
a(S'p1_vo'
I3
tp1020
a(S'w'
I10
tp1021
a(S'p2_vo'
I2
tp1022
a(S'w'
I723
tp1023
a(S'p1_vo'
I2
tp1024
a(S'w'
I10
tp1025
a(S'p2_vo'
I1
tp1026
a(S'w'
I11718
tp1027
a(S'p1_vo'
I6
tp1028
a(S'w'
I9
tp1029
a(S'p1_ll'
I1
tp1030
a(S'p1_th'
I0
tp1031
a(S'w'
I6
tp1032
a(S'p1_tl'
I190
tp1033
a(S'w'
I17
tp1034
a(S'p2_vo'
I5
tp1035
a(S'w'
I9
tp1036
a(S'p2_ll'
I1
tp1037
a(S'p2_th'
I0
tp1038
a(S'w'
I5
tp1039
a(S'p2_tl'
I191
tp1040
a(S'w'
I40
tp1041
a(S'tr_ll'
I1
tp1042
a(S'w'
I5
tp1043
a(S'tr_tl'
I125
tp1044
a(S'w'
I16
tp1045
a(S'no_vo'
I5
tp1046
a(S'w'
I6
tp1047
a(S'no_ll'
I1
tp1048
a(S'w'
I6
tp1049
a(S'no_np'
I6
tp1050
a(S'w'
I607
tp1051
a(S'p1_vo'
I5
tp1052
a(S'w'
I10
tp1053
a(S'p2_vo'
I4
tp1054
a(S'w'
I723
tp1055
a(S'p1_vo'
I4
tp1056
a(S'w'
I10
tp1057
a(S'p2_vo'
I3
tp1058
a(S'w'
I12
tp1059
a(S'no_vo'
I3
tp1060
a(S'w'
I7
tp1061
a(S'w'
I703
tp1062
a(S'p1_vo'
I3
tp1063
a(S'w'
I10
tp1064
a(S'p2_vo'
I2
tp1065
a(S'w'
I734
tp1066
a(S'no_vo'
I2
tp1067
a(S'w'
I7
tp1068
a(S'w'
I1458
tp1069
a(S'no_vo'
I1
tp1070
a(S'w'
I7
tp1071
a(S'no_np'
I1
tp1072
a(S'w'
I716
tp1073
a(S'p1_du'
I0
tp1074
a(S'p1_vo'
I0
tp1075
a(S'w'
I740
tp1076
a(S'no_vo'
I0
tp1077
a(S'w'
I4392
tp1078
a(S'p1_du'
I2
tp1079
a(S'p1_vo'
I6
tp1080
a(S'w'
I9
tp1081
a(S'p1_tl'
I254
tp1082
a(S'w'
I15
tp1083
a(S'p2_vo'
I5
tp1084
a(S'w'
I9
tp1085
a(S'p2_tl'
I255
tp1086
a(S'w'
I695
tp1087
a(S'p1_vo'
I5
tp1088
a(S'w'
I10
tp1089
a(S'p2_vo'
I4
tp1090
a(S'w'
I722
tp1091
a(S'p1_vo'
I4
tp1092
a(S'w'
I10
tp1093
a(S'p2_vo'
I3
tp1094
a(S'w'
I723
tp1095
a(S'p1_vo'
I3
tp1096
a(S'w'
I10
tp1097
a(S'p2_vo'
I2
tp1098
a(S'w'
I2922
tp1099
a(S'p1_vo'
I6
tp1100
a(S'w'
I9
tp1101
a(S'p1_ll'
I1
tp1102
a(S'p1_th'
I1
tp1103
a(S'w'
I5
tp1104
a(S'p1_tl'
I46
tp1105
a(S'w'
I13
tp1106
a(S'p2_vo'
I5
tp1107
a(S'w'
I9
tp1108
a(S'p2_ll'
I1
tp1109
a(S'p2_th'
I1
tp1110
a(S'w'
I5
tp1111
a(S'p2_tl'
I47
tp1112
a(S'w'
I31
tp1113
a(S'tr_lr'
I16
tp1114
a(S'w'
I8
tp1115
a(S'tr_ll'
I1
tp1116
a(S'w'
I21
tp1117
a(S'no_vo'
I5
tp1118
a(S'w'
I7
tp1119
a(S'no_ll'
I1
tp1120
a(S'w'
I5
tp1121
a(S'no_np'
I6
tp1122
a(S'w'
I618
tp1123
a(S'p1_vo'
I5
tp1124
a(S'w'
I10
tp1125
a(S'p2_vo'
I4
tp1126
a(S'w'
I723
tp1127
a(S'p1_vo'
I4
tp1128
a(S'w'
I10
tp1129
a(S'p2_vo'
I3
tp1130
a(S'w'
I12
tp1131
a(S'no_vo'
I3
tp1132
a(S'w'
I7
tp1133
a(S'w'
I703
tp1134
a(S'p1_vo'
I3
tp1135
a(S'w'
I10
tp1136
a(S'p2_vo'
I2
tp1137
a(S'w'
I734
tp1138
a(S'no_vo'
I2
tp1139
a(S'w'
I7
tp1140
a(S'w'
I1458
tp1141
a(S'no_vo'
I1
tp1142
a(S'w'
I7
tp1143
a(S'no_np'
I1
tp1144
a(S'w'
I734
tp1145
a(S'no_vo'
I0
tp1146
a(S'w'
I18
tp1147
a(S'tr_ll'
I1
tp1148
a(S'w'
I21
tp1149
a(S'no_vo'
I5
tp1150
a(S'w'
I6
tp1151
a(S'no_ll'
I1
tp1152
a(S'w'
I6
tp1153
a(S'no_np'
I6
tp1154
a(S'w'
I1406
tp1155
a(S'no_vo'
I3
tp1156
a(S'w'
I6
tp1157
a(S'w'
I1459
tp1158
a(S'no_vo'
I2
tp1159
a(S'w'
I7
tp1160
a(S'w'
I1458
tp1161
a(S'no_vo'
I1
tp1162
a(S'w'
I7
tp1163
a(S'no_np'
I1
tp1164
a(S'w'
I734
tp1165
a(S'no_vo'
I0
tp1166
a(S'w'
I18
tp1167
a(S'tr_ll'
I1
tp1168
a(S'w'
I21
tp1169
a(S'no_vo'
I5
tp1170
a(S'w'
I6
tp1171
a(S'no_ll'
I1
tp1172
a(S'w'
I6
tp1173
a(S'no_np'
I6
tp1174
a(S'w'
I1406
tp1175
a(S'no_vo'
I3
tp1176
a(S'w'
I6
tp1177
a(S'w'
I1459
tp1178
a(S'no_vo'
I2
tp1179
a(S'w'
I7
tp1180
a(S'w'
I1458
tp1181
a(S'no_vo'
I1
tp1182
a(S'w'
I7
tp1183
a(S'no_np'
I1
tp1184
a(S'w'
I717
tp1185
a(S'p1_vo'
I6
tp1186
a(S'w'
I9
tp1187
a(S'p1_tl'
I83
tp1188
a(S'w'
I12
tp1189
a(S'p2_vo'
I5
tp1190
a(S'w'
I9
tp1191
a(S'p2_tl'
I84
tp1192
a(S'w'
I22
tp1193
a(S'no_vo'
I0
tp1194
a(S'w'
I10
tp1195
a(S'tr_lr'
I48
tp1196
a(S'w'
I8
tp1197
a(S'tr_ll'
I1
tp1198
a(S'w'
I21
tp1199
a(S'no_vo'
I5
tp1200
a(S'w'
I6
tp1201
a(S'no_ll'
I1
tp1202
a(S'w'
I6
tp1203
a(S'no_np'
I6
tp1204
a(S'w'
I628
tp1205
a(S'p1_vo'
I5
tp1206
a(S'w'
I10
tp1207
a(S'p2_vo'
I4
tp1208
a(S'w'
I722
tp1209
a(S'p1_vo'
I4
tp1210
a(S'w'
I10
tp1211
a(S'p2_vo'
I3
tp1212
a(S'w'
I12
tp1213
a(S'no_vo'
I3
tp1214
a(S'w'
I7
tp1215
a(S'w'
I704
tp1216
a(S'p1_vo'
I3
tp1217
a(S'w'
I10
tp1218
a(S'p2_vo'
I2
tp1219
a(S'w'
I733
tp1220
a(S'no_vo'
I2
tp1221
a(S'w'
I7
tp1222
a(S'w'
I1459
tp1223
a(S'no_vo'
I1
tp1224
a(S'w'
I7
tp1225
a(S'no_np'
I1
tp1226
a(S'w'
I716
tp1227
a(S'p1_vo'
I6
tp1228
a(S'w'
I9
tp1229
a(S'p1_tl'
I125
tp1230
a(S'w'
I12
tp1231
a(S'p2_vo'
I5
tp1232
a(S'w'
I9
tp1233
a(S'p2_tl'
I126
tp1234
a(S'w'
I701
tp1235
a(S'p1_vo'
I5
tp1236
a(S'w'
I10
tp1237
a(S'p2_vo'
I4
tp1238
a(S'w'
I12
tp1239
a(S'no_vo'
I0
tp1240
a(S'w'
I710
tp1241
a(S'p1_vo'
I4
tp1242
a(S'w'
I10
tp1243
a(S'p2_vo'
I3
tp1244
a(S'w'
I723
tp1245
a(S'p1_vo'
I3
tp1246
a(S'w'
I10
tp1247
a(S'p2_vo'
I2
tp1248
a(S'w'
I2925
tp1249
a(S'p1_vo'
I6
tp1250
a(S'w'
I8
tp1251
a(S'p1_tl'
I252
tp1252
a(S'w'
I12
tp1253
a(S'p2_vo'
I5
tp1254
a(S'w'
I9
tp1255
a(S'p2_ll'
I1
tp1256
a(S'p2_th'
I0
tp1257
a(S'w'
I5
tp1258
a(S'p2_tl'
I255
tp1259
a(S'w'
I694
tp1260
a(S'p1_vo'
I5
tp1261
a(S'w'
I10
tp1262
a(S'p2_vo'
I4
tp1263
a(S'w'
I723
tp1264
a(S'p1_vo'
I4
tp1265
a(S'w'
I10
tp1266
a(S'p2_vo'
I3
tp1267
a(S'w'
I722
tp1268
a(S'p1_vo'
I3
tp1269
a(S'w'
I10
tp1270
a(S'p2_vo'
I2
tp1271
a(S'w'
I2923
tp1272
a(S'p1_vo'
I6
tp1273
a(S'w'
I8
tp1274
a(S'p1_ll'
I1
tp1275
a(S'p1_th'
I2
tp1276
a(S'w'
I5
tp1277
a(S'p1_tl'
I92
tp1278
a(S'w'
I12
tp1279
a(S'p2_vo'
I5
tp1280
a(S'w'
I9
tp1281
a(S'p2_ll'
I1
tp1282
a(S'p2_th'
I1
tp1283
a(S'w'
I5
tp1284
a(S'p2_tl'
I47
tp1285
a(S'w'
I32
tp1286
a(S'tr_lr'
I16
tp1287
a(S'w'
I7
tp1288
a(S'tr_ll'
I1
tp1289
a(S'w'
I21
tp1290
a(S'no_vo'
I5
tp1291
a(S'w'
I7
tp1292
a(S'no_ll'
I1
tp1293
a(S'w'
I5
tp1294
a(S'no_np'
I6
tp1295
a(S'w'
I619
tp1296
a(S'p1_vo'
I5
tp1297
a(S'w'
I10
tp1298
a(S'p2_vo'
I4
tp1299
a(S'w'
I723
tp1300
a(S'p1_vo'
I4
tp1301
a(S'w'
I10
tp1302
a(S'p2_vo'
I3
tp1303
a(S'w'
I12
tp1304
a(S'no_vo'
I3
tp1305
a(S'w'
I7
tp1306
a(S'w'
I703
tp1307
a(S'p1_vo'
I3
tp1308
a(S'w'
I10
tp1309
a(S'p2_vo'
I2
tp1310
a(S'w'
I734
tp1311
a(S'no_vo'
I2
tp1312
a(S'w'
I7
tp1313
a(S'w'
I1458
tp1314
a(S'no_vo'
I1
tp1315
a(S'w'
I7
tp1316
a(S'no_np'
I1
tp1317
a(S'w'
I717
tp1318
a(S'p1_vo'
I6
tp1319
a(S'w'
I8
tp1320
a(S'p1_ll'
I1
tp1321
a(S'p1_th'
I1
tp1322
a(S'w'
I5
tp1323
a(S'p1_tl'
I252
tp1324
a(S'w'
I12
tp1325
a(S'p2_vo'
I5
tp1326
a(S'w'
I9
tp1327
a(S'p2_ll'
I1
tp1328
a(S'p2_th'
I0
tp1329
a(S'w'
I5
tp1330
a(S'p2_tl'
I255
tp1331
a(S'w'
I21
tp1332
a(S'no_vo'
I0
tp1333
a(S'w'
I18
tp1334
a(S'tr_ll'
I1
tp1335
a(S'w'
I21
tp1336
a(S'no_vo'
I5
tp1337
a(S'w'
I6
tp1338
a(S'no_ll'
I1
tp1339
a(S'w'
I6
tp1340
a(S'no_np'
I6
tp1341
a(S'w'
I619
tp1342
a(S'p1_vo'
I5
tp1343
a(S'w'
I10
tp1344
a(S'p2_vo'
I4
tp1345
a(S'w'
I723
tp1346
a(S'p1_vo'
I4
tp1347
a(S'w'
I10
tp1348
a(S'p2_vo'
I3
tp1349
a(S'w'
I12
tp1350
a(S'no_vo'
I3
tp1351
a(S'w'
I7
tp1352
a(S'w'
I704
tp1353
a(S'p1_vo'
I3
tp1354
a(S'w'
I10
tp1355
a(S'p2_vo'
I2
tp1356
a(S'w'
I733
tp1357
a(S'no_vo'
I2
tp1358
a(S'w'
I7
tp1359
a(S'w'
I1458
tp1360
a(S'no_vo'
I1
tp1361
a(S'w'
I7
tp1362
a(S'no_np'
I1
tp1363
a(S'w'
I720
tp1364
a(S'p1_vo'
I6
tp1365
a(S'w'
I9
tp1366
a(S'p1_tl'
I125
tp1367
a(S'w'
I15
tp1368
a(S'p2_vo'
I5
tp1369
a(S'w'
I8
tp1370
a(S'p2_ll'
I1
tp1371
a(S'p2_th'
I1
tp1372
a(S'w'
I6
tp1373
a(S'p2_tl'
I126
tp1374
a(S'w'
I21
tp1375
a(S'no_vo'
I0
tp1376
a(S'w'
I18
tp1377
a(S'tr_ll'
I1
tp1378
a(S'w'
I20
tp1379
a(S'no_vo'
I5
tp1380
a(S'w'
I7
tp1381
a(S'no_ll'
I1
tp1382
a(S'w'
I5
tp1383
a(S'no_np'
I6
tp1384
a(S'w'
I619
tp1385
a(S'p1_vo'
I5
tp1386
a(S'w'
I10
tp1387
a(S'p2_vo'
I4
tp1388
a(S'w'
I722
tp1389
a(S'p1_vo'
I4
tp1390
a(S'w'
I10
tp1391
a(S'p2_vo'
I3
tp1392
a(S'w'
I12
tp1393
a(S'no_vo'
I3
tp1394
a(S'w'
I7
tp1395
a(S'w'
I704
tp1396
a(S'p1_vo'
I3
tp1397
a(S'w'
I10
tp1398
a(S'p2_vo'
I2
tp1399
a(S'w'
I733
tp1400
a(S'no_vo'
I2
tp1401
a(S'w'
I7
tp1402
a(S'w'
I1459
tp1403
a(S'no_vo'
I1
tp1404
a(S'w'
I7
tp1405
a(S'no_np'
I1
tp1406
a(S'w'
I716
tp1407
a(S'p1_vo'
I6
tp1408
a(S'w'
I9
tp1409
a(S'p1_tl'
I83
tp1410
a(S'w'
I12
tp1411
a(S'p2_vo'
I5
tp1412
a(S'w'
I9
tp1413
a(S'p2_tl'
I84
tp1414
a(S'w'
I21
tp1415
a(S'no_vo'
I0
tp1416
a(S'w'
I18
tp1417
a(S'tr_ll'
I1
tp1418
a(S'w'
I5
tp1419
a(S'tr_tl'
I83
tp1420
a(S'w'
I16
tp1421
a(S'no_vo'
I5
tp1422
a(S'w'
I6
tp1423
a(S'no_ll'
I1
tp1424
a(S'w'
I6
tp1425
a(S'no_np'
I6
tp1426
a(S'w'
I629
tp1427
a(S'p1_vo'
I5
tp1428
a(S'w'
I10
tp1429
a(S'p2_vo'
I4
tp1430
a(S'w'
I722
tp1431
a(S'p1_vo'
I4
tp1432
a(S'w'
I10
tp1433
a(S'p2_vo'
I3
tp1434
a(S'w'
I12
tp1435
a(S'no_vo'
I3
tp1436
a(S'w'
I7
tp1437
a(S'w'
I704
tp1438
a(S'p1_vo'
I3
tp1439
a(S'w'
I10
tp1440
a(S'p2_vo'
I2
tp1441
a(S'w'
I734
tp1442
a(S'no_vo'
I2
tp1443
a(S'w'
I7
tp1444
a(S'w'
I1458
tp1445
a(S'no_vo'
I1
tp1446
a(S'w'
I7
tp1447
a(S'no_np'
I1
tp1448
a(S'w'
I720
tp1449
a(S'p1_vo'
I6
tp1450
a(S'w'
I8
tp1451
a(S'p1_tl'
I197
tp1452
a(S'w'
I16
tp1453
a(S'p2_vo'
I5
tp1454
a(S'w'
I8
tp1455
a(S'p2_tl'
I198
tp1456
a(S'w'
I21
tp1457
a(S'no_vo'
I0
tp1458
a(S'w'
I18
tp1459
a(S'tr_ll'
I1
tp1460
a(S'w'
I21
tp1461
a(S'no_vo'
I5
tp1462
a(S'w'
I6
tp1463
a(S'no_ll'
I1
tp1464
a(S'w'
I6
tp1465
a(S'no_np'
I6
tp1466
a(S'w'
I623
tp1467
a(S'p1_vo'
I5
tp1468
a(S'w'
I10
tp1469
a(S'p2_vo'
I4
tp1470
a(S'w'
I723
tp1471
a(S'p1_vo'
I4
tp1472
a(S'w'
I10
tp1473
a(S'p2_vo'
I3
tp1474
a(S'w'
I12
tp1475
a(S'no_vo'
I3
tp1476
a(S'w'
I7
tp1477
a(S'w'
I703
tp1478
a(S'p1_vo'
I3
tp1479
a(S'w'
I10
tp1480
a(S'p2_vo'
I2
tp1481
a(S'w'
I734
tp1482
a(S'no_vo'
I2
tp1483
a(S'w'
I7
tp1484
a(S'w'
I1458
tp1485
a(S'no_vo'
I1
tp1486
a(S'w'
I7
tp1487
a(S'no_np'
I1
tp1488
a(S'w'
I717
tp1489
a(S'p1_vo'
I6
tp1490
a(S'w'
I8
tp1491
a(S'p1_tl'
I252
tp1492
a(S'w'
I12
tp1493
a(S'p2_vo'
I5
tp1494
a(S'w'
I9
tp1495
a(S'p2_tl'
I253
tp1496
a(S'w'
I21
tp1497
a(S'no_vo'
I0
tp1498
a(S'w'
I18
tp1499
a(S'tr_ll'
I1
tp1500
a(S'w'
I20
tp1501
a(S'no_vo'
I5
tp1502
a(S'w'
I7
tp1503
a(S'no_ll'
I1
tp1504
a(S'w'
I6
tp1505
a(S'no_np'
I6
tp1506
a(S'w'
I629
tp1507
a(S'p1_vo'
I5
tp1508
a(S'w'
I10
tp1509
a(S'p2_vo'
I4
tp1510
a(S'w'
I723
tp1511
a(S'p1_vo'
I4
tp1512
a(S'w'
I10
tp1513
a(S'p2_vo'
I3
tp1514
a(S'w'
I12
tp1515
a(S'no_vo'
I3
tp1516
a(S'w'
I7
tp1517
a(S'w'
I704
tp1518
a(S'p1_vo'
I3
tp1519
a(S'w'
I10
tp1520
a(S'p2_vo'
I2
tp1521
a(S'w'
I733
tp1522
a(S'no_vo'
I2
tp1523
a(S'w'
I7
tp1524
a(S'w'
I1458
tp1525
a(S'no_vo'
I1
tp1526
a(S'w'
I7
tp1527
a(S'no_np'
I1
tp1528
a(S'w'
I719
tp1529
a(S'p1_vo'
I6
tp1530
a(S'w'
I8
tp1531
a(S'p1_ll'
I1
tp1532
a(S'p1_th'
I2
tp1533
a(S'w'
I6
tp1534
a(S'p1_tl'
I27
tp1535
a(S'w'
I14
tp1536
a(S'p2_vo'
I5
tp1537
a(S'w'
I8
tp1538
a(S'p2_ll'
I1
tp1539
a(S'p2_th'
I2
tp1540
a(S'w'
I6
tp1541
a(S'p2_tl'
I28
tp1542
a(S'w'
I21
tp1543
a(S'no_vo'
I0
tp1544
a(S'w'
I12
tp1545
a(S'tr_lh'
I1
tp1546
a(S'w'
I8
tp1547
a(S'tr_ll'
I1
tp1548
a(S'w'
I21
tp1549
a(S'no_vo'
I5
tp1550
a(S'w'
I7
tp1551
a(S'no_ll'
I1
tp1552
a(S'w'
I5
tp1553
a(S'no_np'
I6
tp1554
a(S'w'
I613
tp1555
a(S'p1_vo'
I5
tp1556
a(S'w'
I10
tp1557
a(S'p2_vo'
I4
tp1558
a(S'w'
I722
tp1559
a(S'p1_vo'
I4
tp1560
a(S'w'
I10
tp1561
a(S'p2_vo'
I3
tp1562
a(S'w'
I12
tp1563
a(S'no_vo'
I3
tp1564
a(S'w'
I7
tp1565
a(S'w'
I704
tp1566
a(S'p1_vo'
I3
tp1567
a(S'w'
I10
tp1568
a(S'p2_vo'
I2
tp1569
a(S'w'
I733
tp1570
a(S'no_vo'
I2
tp1571
a(S'w'
I7
tp1572
a(S'w'
I1459
tp1573
a(S'no_vo'
I1
tp1574
a(S'w'
I7
tp1575
a(S'no_np'
I1
tp1576
a(S'w'
I1457
tp1577
a(S'no_vo'
I0
tp1578
a(S'w'
I40282
tp1579
a(S'p1_du'
I0
tp1580
a(S'p1_vo'
I0
tp1581
a(S'w'
I10
tp1582
a(S'p2_du'
I0
tp1583
a(S'p2_vo'
I0
tp1584
a(S'w'
I11
tp1585
a(S'tr_lh'
I0
tp1586
a(S'tr_lr'
I0
tp1587
a.