(lp1
(S'clock'
p2
I1789773
tp3
a(S'p1_lh'
I1
tp4
a(S'p1_cv'
I1
tp5
a(S'p2_lh'
I1
tp6
a(S'p2_cv'
I1
tp7
a(S'fc_mo'
I1
tp8
a(S'p1_du'
I2
tp9
a(S'p1_vo'
I5
tp10
a(S'w'
I8
tp11
a(S'p1_ll'
I1
tp12
a(S'p1_th'
I1
tp13
a(S'w'
I5
tp14
a(S'p1_tl'
I224
tp15
a(S'w'
I15
tp16
a(S'p2_du'
I2
tp17
a(S'p2_vo'
I4
tp18
a(S'w'
I8
tp19
a(S'p2_ll'
I1
tp20
a(S'p2_th'
I2
tp21
a(S'w'
I6
tp22
a(S'p2_tl'
I59
tp23
a(S'w'
I16
tp24
a(S'w'
I5
tp25
a(S'no_lh'
I1
tp26
a(S'no_cv'
I1
tp27
a(S'w'
I9
tp28
a(S'tr_lr'
I10
tp29
a(S'w'
I8
tp30
a(S'tr_ll'
I1
tp31
a(S'tr_th'
I1
tp32
a(S'w'
I6
tp33
a(S'tr_tl'
I171
tp34
a(S'w'
I15
tp35
a(S'no_vo'
I5
tp36
a(S'w'
I7
tp37
a(S'no_ll'
I1
tp38
a(S'w'
I5
tp39
a(S'no_np'
I6
tp40
a(S'w'
I614
tp41
a(S'p1_vo'
I4
tp42
a(S'w'
I10
tp43
a(S'p2_vo'
I3
tp44
a(S'w'
I723
tp45
a(S'p1_vo'
I3
tp46
a(S'w'
I10
tp47
a(S'p2_vo'
I2
tp48
a(S'w'
I12
tp49
a(S'no_vo'
I3
tp50
a(S'w'
I7
tp51
a(S'w'
I703
tp52
a(S'p1_vo'
I2
tp53
a(S'w'
I10
tp54
a(S'p2_vo'
I1
tp55
a(S'w'
I723
tp56
a(S'p1_vo'
I1
tp57
a(S'w'
I10
tp58
a(S'p2_vo'
I0
tp59
a(S'w'
I12
tp60
a(S'no_vo'
I2
tp61
a(S'w'
I7
tp62
a(S'w'
I704
tp63
a(S'p1_vo'
I0
tp64
a(S'w'
I737
tp65
a(S'p1_vo'
I5
tp66
a(S'w'
I9
tp67
a(S'p1_tl'
I171
tp68
a(S'w'
I12
tp69
a(S'p2_vo'
I4
tp70
a(S'w'
I8
tp71
a(S'p2_ll'
I1
tp72
a(S'p2_th'
I1
tp73
a(S'w'
I5
tp74
a(S'p2_tl'
I252
tp75
a(S'w'
I21
tp76
a(S'no_vo'
I0
tp77
a(S'w'
I18
tp78
a(S'tr_ll'
I1
tp79
a(S'w'
I21
tp80
a(S'no_vo'
I5
tp81
a(S'w'
I6
tp82
a(S'no_ll'
I1
tp83
a(S'w'
I6
tp84
a(S'w'
I622
tp85
a(S'p1_vo'
I4
tp86
a(S'w'
I10
tp87
a(S'p2_vo'
I3
tp88
a(S'w'
I722
tp89
a(S'p1_vo'
I3
tp90
a(S'w'
I10
tp91
a(S'p2_vo'
I2
tp92
a(S'w'
I12
tp93
a(S'no_vo'
I3
tp94
a(S'w'
I7
tp95
a(S'w'
I704
tp96
a(S'p1_vo'
I2
tp97
a(S'w'
I10
tp98
a(S'p2_vo'
I1
tp99
a(S'w'
I723
tp100
a(S'p1_vo'
I1
tp101
a(S'w'
I10
tp102
a(S'p2_vo'
I0
tp103
a(S'w'
I12
tp104
a(S'no_vo'
I2
tp105
a(S'w'
I7
tp106
a(S'w'
I703
tp107
a(S'p1_vo'
I0
tp108
a(S'w'
I735
tp109
a(S'p1_vo'
I5
tp110
a(S'w'
I9
tp111
a(S'p1_tl'
I125
tp112
a(S'w'
I12
tp113
a(S'p2_vo'
I4
tp114
a(S'w'
I8
tp115
a(S'p2_tl'
I224
tp116
a(S'w'
I21
tp117
a(S'no_vo'
I0
tp118
a(S'w'
I18
tp119
a(S'tr_ll'
I1
tp120
a(S'w'
I21
tp121
a(S'no_vo'
I5
tp122
a(S'w'
I6
tp123
a(S'no_ll'
I1
tp124
a(S'w'
I6
tp125
a(S'w'
I629
tp126
a(S'p1_vo'
I4
tp127
a(S'w'
I10
tp128
a(S'p2_vo'
I3
tp129
a(S'w'
I723
tp130
a(S'p1_vo'
I3
tp131
a(S'w'
I10
tp132
a(S'p2_vo'
I2
tp133
a(S'w'
I12
tp134
a(S'no_vo'
I3
tp135
a(S'w'
I7
tp136
a(S'w'
I704
tp137
a(S'p1_vo'
I2
tp138
a(S'w'
I10
tp139
a(S'p2_vo'
I1
tp140
a(S'w'
I722
tp141
a(S'p1_vo'
I1
tp142
a(S'w'
I10
tp143
a(S'p2_vo'
I0
tp144
a(S'w'
I12
tp145
a(S'no_vo'
I2
tp146
a(S'w'
I7
tp147
a(S'w'
I704
tp148
a(S'p1_vo'
I0
tp149
a(S'w'
I734
tp150
a(S'p1_vo'
I5
tp151
a(S'w'
I9
tp152
a(S'p1_tl'
I83
tp153
a(S'w'
I15
tp154
a(S'p2_vo'
I4
tp155
a(S'w'
I9
tp156
a(S'p2_tl'
I171
tp157
a(S'w'
I21
tp158
a(S'no_vo'
I0
tp159
a(S'w'
I18
tp160
a(S'tr_ll'
I1
tp161
a(S'w'
I20
tp162
a(S'no_vo'
I5
tp163
a(S'w'
I7
tp164
a(S'no_ll'
I1
tp165
a(S'w'
I5
tp166
a(S'w'
I627
tp167
a(S'p1_vo'
I4
tp168
a(S'w'
I10
tp169
a(S'p2_vo'
I3
tp170
a(S'w'
I723
tp171
a(S'p1_vo'
I3
tp172
a(S'w'
I10
tp173
a(S'p2_vo'
I2
tp174
a(S'w'
I12
tp175
a(S'no_vo'
I3
tp176
a(S'w'
I7
tp177
a(S'w'
I703
tp178
a(S'p1_vo'
I2
tp179
a(S'w'
I10
tp180
a(S'p2_vo'
I1
tp181
a(S'w'
I723
tp182
a(S'p1_vo'
I1
tp183
a(S'w'
I10
tp184
a(S'p2_vo'
I0
tp185
a(S'w'
I12
tp186
a(S'no_vo'
I2
tp187
a(S'w'
I7
tp188
a(S'w'
I703
tp189
a(S'p1_vo'
I0
tp190
a(S'w'
I737
tp191
a(S'p1_vo'
I6
tp192
a(S'w'
I9
tp193
a(S'p1_tl'
I64
tp194
a(S'w'
I15
tp195
a(S'p2_vo'
I5
tp196
a(S'w'
I9
tp197
a(S'w'
I21
tp198
a(S'no_vo'
I0
tp199
a(S'w'
I11
tp200
a(S'tr_lr'
I24
tp201
a(S'w'
I8
tp202
a(S'tr_ll'
I1
tp203
a(S'w'
I5
tp204
a(S'tr_tl'
I64
tp205
a(S'w'
I16
tp206
a(S'no_vo'
I5
tp207
a(S'w'
I6
tp208
a(S'no_ll'
I1
tp209
a(S'w'
I6
tp210
a(S'w'
I623
tp211
a(S'p1_vo'
I5
tp212
a(S'w'
I10
tp213
a(S'p2_vo'
I4
tp214
a(S'w'
I722
tp215
a(S'p1_vo'
I4
tp216
a(S'w'
I10
tp217
a(S'p2_vo'
I3
tp218
a(S'w'
I12
tp219
a(S'no_vo'
I3
tp220
a(S'w'
I7
tp221
a(S'w'
I704
tp222
a(S'p1_vo'
I3
tp223
a(S'w'
I10
tp224
a(S'p2_vo'
I2
tp225
a(S'w'
I733
tp226
a(S'no_vo'
I2
tp227
a(S'w'
I7
tp228
a(S'w'
I1459
tp229
a(S'no_vo'
I1
tp230
a(S'w'
I7
tp231
a(S'no_np'
I1
tp232
a(S'w'
I1457
tp233
a(S'no_vo'
I0
tp234
a(S'w'
I9518
tp235
a(S'p2_vo'
I1
tp236
a(S'w'
I728
tp237
a(S'p1_vo'
I2
tp238
a(S'w'
I10
tp239
a(S'p2_vo'
I0
tp240
a(S'w'
I723
tp241
a(S'p1_vo'
I1
tp242
a(S'w'
I737
tp243
a(S'p1_vo'
I5
tp244
a(S'w'
I9
tp245
a(S'w'
I14
tp246
a(S'p2_vo'
I4
tp247
a(S'w'
I9
tp248
a(S'w'
I40
tp249
a(S'tr_ll'
I1
tp250
a(S'w'
I5
tp251
a(S'tr_tl'
I171
tp252
a(S'w'
I16
tp253
a(S'no_vo'
I7
tp254
a(S'w'
I6
tp255
a(S'no_ll'
I1
tp256
a(S'w'
I6
tp257
a(S'no_np'
I3
tp258
a(S'w'
I623
tp259
a(S'p1_vo'
I4
tp260
a(S'w'
I10
tp261
a(S'p2_vo'
I3
tp262
a(S'w'
I12
tp263
a(S'no_vo'
I3
tp264
a(S'w'
I7
tp265
a(S'no_np'
I1
tp266
a(S'w'
I704
tp267
a(S'p1_vo'
I3
tp268
a(S'w'
I10
tp269
a(S'p2_vo'
I2
tp270
a(S'w'
I12
tp271
a(S'no_vo'
I1
tp272
a(S'w'
I7
tp273
a(S'w'
I713
tp274
a(S'no_vo'
I0
tp275
a(S'w'
I8053
tp276
a(S'p2_vo'
I1
tp277
a(S'w'
I729
tp278
a(S'p1_vo'
I2
tp279
a(S'w'
I10
tp280
a(S'p2_vo'
I0
tp281
a(S'w'
I722
tp282
a(S'p1_vo'
I1
tp283
a(S'w'
I733
tp284
a(S'p1_vo'
I0
tp285
a(S'w'
I734
tp286
a(S'p1_vo'
I5
tp287
a(S'w'
I8
tp288
a(S'p1_ll'
I1
tp289
a(S'p1_th'
I0
tp290
a(S'w'
I6
tp291
a(S'p1_tl'
I254
tp292
a(S'w'
I12
tp293
a(S'p2_vo'
I4
tp294
a(S'w'
I9
tp295
a(S'p2_tl'
I64
tp296
a(S'w'
I696
tp297
a(S'p1_vo'
I4
tp298
a(S'w'
I10
tp299
a(S'p2_vo'
I3
tp300
a(S'w'
I723
tp301
a(S'p1_vo'
I3
tp302
a(S'w'
I10
tp303
a(S'p2_vo'
I2
tp304
a(S'w'
I722
tp305
a(S'p1_vo'
I2
tp306
a(S'w'
I10
tp307
a(S'p2_vo'
I1
tp308
a(S'w'
I723
tp309
a(S'p1_vo'
I1
tp310
a(S'w'
I10
tp311
a(S'p2_vo'
I0
tp312
a(S'w'
I722
tp313
a(S'p1_vo'
I0
tp314
a(S'w'
I738
tp315
a(S'p1_vo'
I5
tp316
a(S'w'
I9
tp317
a(S'p1_tl'
I213
tp318
a(S'w'
I12
tp319
a(S'p2_vo'
I4
tp320
a(S'w'
I9
tp321
a(S'p2_ll'
I1
tp322
a(S'p2_th'
I0
tp323
a(S'w'
I5
tp324
a(S'p2_tl'
I254
tp325
a(S'w'
I40
tp326
a(S'tr_ll'
I1
tp327
a(S'w'
I5
tp328
a(S'tr_tl'
I125
tp329
a(S'w'
I16
tp330
a(S'no_vo'
I7
tp331
a(S'w'
I6
tp332
a(S'no_ll'
I1
tp333
a(S'w'
I6
tp334
a(S'no_np'
I3
tp335
a(S'w'
I620
tp336
a(S'p1_vo'
I4
tp337
a(S'w'
I10
tp338
a(S'p2_vo'
I3
tp339
a(S'w'
I12
tp340
a(S'no_vo'
I3
tp341
a(S'w'
I7
tp342
a(S'no_np'
I1
tp343
a(S'w'
I703
tp344
a(S'p1_vo'
I3
tp345
a(S'w'
I10
tp346
a(S'p2_vo'
I2
tp347
a(S'w'
I12
tp348
a(S'no_vo'
I1
tp349
a(S'w'
I7
tp350
a(S'w'
I704
tp351
a(S'p1_vo'
I2
tp352
a(S'w'
I10
tp353
a(S'p2_vo'
I1
tp354
a(S'w'
I12
tp355
a(S'no_vo'
I0
tp356
a(S'w'
I710
tp357
a(S'p1_vo'
I1
tp358
a(S'w'
I10
tp359
a(S'p2_vo'
I0
tp360
a(S'w'
I723
tp361
a(S'p1_vo'
I0
tp362
a(S'w'
I738
tp363
a(S'p1_vo'
I5
tp364
a(S'w'
I9
tp365
a(S'p1_tl'
I254
tp366
a(S'w'
I12
tp367
a(S'p2_vo'
I4
tp368
a(S'w'
I8
tp369
a(S'p2_ll'
I1
tp370
a(S'p2_th'
I1
tp371
a(S'w'
I6
tp372
a(S'p2_tl'
I64
tp373
a(S'w'
I692
tp374
a(S'p1_vo'
I4
tp375
a(S'w'
I10
tp376
a(S'p2_vo'
I3
tp377
a(S'w'
I723
tp378
a(S'p1_vo'
I3
tp379
a(S'w'
I10
tp380
a(S'p2_vo'
I2
tp381
a(S'w'
I722
tp382
a(S'p1_vo'
I2
tp383
a(S'w'
I10
tp384
a(S'p2_vo'
I1
tp385
a(S'w'
I723
tp386
a(S'p1_vo'
I1
tp387
a(S'w'
I10
tp388
a(S'p2_vo'
I0
tp389
a(S'w'
I723
tp390
a(S'p1_vo'
I0
tp391
a(S'w'
I738
tp392
a(S'p1_vo'
I5
tp393
a(S'w'
I9
tp394
a(S'p1_tl'
I213
tp395
a(S'w'
I13
tp396
a(S'p2_vo'
I4
tp397
a(S'w'
I9
tp398
a(S'p2_ll'
I1
tp399
a(S'p2_th'
I0
tp400
a(S'w'
I5
tp401
a(S'p2_tl'
I254
tp402
a(S'w'
I691
tp403
a(S'p1_vo'
I4
tp404
a(S'w'
I10
tp405
a(S'p2_vo'
I3
tp406
a(S'w'
I722
tp407
a(S'p1_vo'
I3
tp408
a(S'w'
I10
tp409
a(S'p2_vo'
I2
tp410
a(S'w'
I7354
tp411
a(S'tr_ll'
I1
tp412
a(S'w'
I5
tp413
a(S'tr_tl'
I83
tp414
a(S'w'
I16
tp415
a(S'no_vo'
I7
tp416
a(S'w'
I6
tp417
a(S'no_ll'
I1
tp418
a(S'w'
I6
tp419
a(S'no_np'
I3
tp420
a(S'w'
I673
tp421
a(S'no_vo'
I3
tp422
a(S'w'
I6
tp423
a(S'no_np'
I1
tp424
a(S'w'
I727
tp425
a(S'no_vo'
I1
tp426
a(S'w'
I7
tp427
a(S'w'
I724
tp428
a(S'no_vo'
I0
tp429
a(S'w'
I3657
tp430
a(S'p2_vo'
I1
tp431
a(S'w'
I729
tp432
a(S'p1_vo'
I2
tp433
a(S'w'
I10
tp434
a(S'p2_vo'
I0
tp435
a(S'w'
I722
tp436
a(S'p1_vo'
I1
tp437
a(S'w'
I733
tp438
a(S'p1_vo'
I0
tp439
a(S'w'
I735
tp440
a(S'p1_vo'
I5
tp441
a(S'w'
I10
tp442
a(S'p1_tl'
I160
tp443
a(S'w'
I15
tp444
a(S'p2_vo'
I4
tp445
a(S'w'
I10
tp446
a(S'p2_tl'
I213
tp447
a(S'w'
I695
tp448
a(S'p1_vo'
I4
tp449
a(S'w'
I10
tp450
a(S'p2_vo'
I3
tp451
a(S'w'
I723
tp452
a(S'p1_vo'
I3
tp453
a(S'w'
I10
tp454
a(S'p2_vo'
I2
tp455
a(S'w'
I4390
tp456
a(S'p2_vo'
I1
tp457
a(S'w'
I728
tp458
a(S'p1_vo'
I2
tp459
a(S'w'
I10
tp460
a(S'p2_vo'
I0
tp461
a(S'w'
I723
tp462
a(S'p1_vo'
I1
tp463
a(S'w'
I732
tp464
a(S'p1_vo'
I0
tp465
a(S'w'
I738
tp466
a(S'p1_vo'
I6
tp467
a(S'w'
I9
tp468
a(S'p1_tl'
I213
tp469
a(S'w'
I18
tp470
a(S'p2_vo'
I5
tp471
a(S'w'
I9
tp472
a(S'p2_tl'
I254
tp473
a(S'w'
I43
tp474
a(S'tr_ll'
I1
tp475
a(S'w'
I5
tp476
a(S'tr_tl'
I64
tp477
a(S'w'
I16
tp478
a(S'no_vo'
I7
tp479
a(S'w'
I6
tp480
a(S'no_ll'
I1
tp481
a(S'w'
I6
tp482
a(S'no_np'
I3
tp483
a(S'w'
I616
tp484
a(S'p1_vo'
I5
tp485
a(S'w'
I10
tp486
a(S'p2_vo'
I4
tp487
a(S'w'
I12
tp488
a(S'no_vo'
I3
tp489
a(S'w'
I7
tp490
a(S'no_np'
I1
tp491
a(S'w'
I703
tp492
a(S'p1_vo'
I4
tp493
a(S'w'
I10
tp494
a(S'p2_vo'
I3
tp495
a(S'w'
I12
tp496
a(S'no_vo'
I1
tp497
a(S'w'
I7
tp498
a(S'w'
I704
tp499
a(S'p1_vo'
I3
tp500
a(S'w'
I10
tp501
a(S'p2_vo'
I2
tp502
a(S'w'
I12
tp503
a(S'no_vo'
I0
tp504
a(S'w'
I15400
tp505
a(S'tr_ll'
I1
tp506
a(S'w'
I5
tp507
a(S'tr_tl'
I171
tp508
a(S'w'
I16
tp509
a(S'no_vo'
I7
tp510
a(S'w'
I6
tp511
a(S'no_ll'
I1
tp512
a(S'w'
I6
tp513
a(S'no_np'
I3
tp514
a(S'w'
I673
tp515
a(S'no_vo'
I3
tp516
a(S'w'
I6
tp517
a(S'no_np'
I1
tp518
a(S'w'
I727
tp519
a(S'no_vo'
I1
tp520
a(S'w'
I7
tp521
a(S'w'
I724
tp522
a(S'no_vo'
I0
tp523
a(S'w'
I4386
tp524
a(S'p1_vo'
I2
tp525
a(S'w'
I10
tp526
a(S'p2_vo'
I1
tp527
a(S'w'
I722
tp528
a(S'p1_vo'
I1
tp529
a(S'w'
I10
tp530
a(S'p2_vo'
I0
tp531
a(S'w'
I723
tp532
a(S'p1_vo'
I0
tp533
a(S'w'
I740
tp534
a(S'p1_vo'
I5
tp535
a(S'w'
I9
tp536
a(S'p1_tl'
I240
tp537
a(S'w'
I13
tp538
a(S'p2_vo'
I4
tp539
a(S'w'
I9
tp540
a(S'p2_ll'
I1
tp541
a(S'p2_th'
I1
tp542
a(S'w'
I5
tp543
a(S'p2_tl'
I29
tp544
a(S'w'
I689
tp545
a(S'p1_vo'
I4
tp546
a(S'w'
I10
tp547
a(S'p2_vo'
I3
tp548
a(S'w'
I723
tp549
a(S'p1_vo'
I3
tp550
a(S'w'
I10
tp551
a(S'p2_vo'
I2
tp552
a(S'w'
I5851
tp553
a(S'p1_vo'
I2
tp554
a(S'w'
I10
tp555
a(S'p2_vo'
I1
tp556
a(S'w'
I722
tp557
a(S'p1_vo'
I1
tp558
a(S'w'
I10
tp559
a(S'p2_vo'
I0
tp560
a(S'w'
I726
tp561
a(S'p1_vo'
I5
tp562
a(S'w'
I9
tp563
a(S'p1_tl'
I254
tp564
a(S'w'
I13
tp565
a(S'p2_vo'
I4
tp566
a(S'w'
I9
tp567
a(S'p2_tl'
I64
tp568
a(S'w'
I39
tp569
a(S'tr_ll'
I1
tp570
a(S'w'
I5
tp571
a(S'tr_tl'
I64
tp572
a(S'w'
I16
tp573
a(S'no_vo'
I7
tp574
a(S'w'
I6
tp575
a(S'no_ll'
I1
tp576
a(S'w'
I6
tp577
a(S'no_np'
I3
tp578
a(S'w'
I626
tp579
a(S'p1_vo'
I4
tp580
a(S'w'
I10
tp581
a(S'p2_vo'
I3
tp582
a(S'w'
I12
tp583
a(S'no_vo'
I3
tp584
a(S'w'
I7
tp585
a(S'no_np'
I1
tp586
a(S'w'
I704
tp587
a(S'p1_vo'
I3
tp588
a(S'w'
I10
tp589
a(S'p2_vo'
I2
tp590
a(S'w'
I12
tp591
a(S'no_vo'
I1
tp592
a(S'w'
I7
tp593
a(S'w'
I714
tp594
a(S'no_vo'
I0
tp595
a(S'w'
I6601
tp596
a(S'tr_ll'
I1
tp597
a(S'w'
I5
tp598
a(S'tr_tl'
I171
tp599
a(S'w'
I7303
tp600
a(S'p1_vo'
I2
tp601
a(S'w'
I10
tp602
a(S'p2_vo'
I1
tp603
a(S'w'
I723
tp604
a(S'p1_vo'
I1
tp605
a(S'w'
I10
tp606
a(S'p2_vo'
I0
tp607
a(S'w'
I724
tp608
a(S'p1_vo'
I5
tp609
a(S'w'
I9
tp610
a(S'p1_ll'
I1
tp611
a(S'p1_th'
I1
tp612
a(S'w'
I5
tp613
a(S'p1_tl'
I29
tp614
a(S'w'
I13
tp615
a(S'p2_vo'
I4
tp616
a(S'w'
I9
tp617
a(S'p2_tl'
I83
tp618
a(S'w'
I41
tp619
a(S'tr_ll'
I1
tp620
a(S'w'
I6
tp621
a(S'tr_tl'
I252
tp622
a(S'w'
I15
tp623
a(S'no_vo'
I7
tp624
a(S'w'
I7
tp625
a(S'no_ll'
I1
tp626
a(S'w'
I5
tp627
a(S'no_np'
I3
tp628
a(S'w'
I621
tp629
a(S'p1_vo'
I4
tp630
a(S'w'
I10
tp631
a(S'p2_vo'
I3
tp632
a(S'w'
I12
tp633
a(S'no_vo'
I3
tp634
a(S'w'
I7
tp635
a(S'no_np'
I1
tp636
a(S'w'
I704
tp637
a(S'p1_vo'
I3
tp638
a(S'w'
I10
tp639
a(S'p2_vo'
I2
tp640
a(S'w'
I12
tp641
a(S'no_vo'
I1
tp642
a(S'w'
I7
tp643
a(S'w'
I713
tp644
a(S'no_vo'
I0
tp645
a(S'w'
I6624
tp646
a(S'tr_ll'
I1
tp647
a(S'w'
I5
tp648
a(S'tr_tl'
I171
tp649
a(S'w'
I15
tp650
a(S'no_vo'
I5
tp651
a(S'w'
I7
tp652
a(S'no_ll'
I1
tp653
a(S'w'
I5
tp654
a(S'no_np'
I6
tp655
a(S'w'
I1404
tp656
a(S'no_vo'
I3
tp657
a(S'w'
I6
tp658
a(S'w'
I1448
tp659
a(S'p1_vo'
I2
tp660
a(S'w'
I10
tp661
a(S'p2_vo'
I1
tp662
a(S'w'
I12
tp663
a(S'no_vo'
I2
tp664
a(S'w'
I7
tp665
a(S'w'
I704
tp666
a(S'p1_vo'
I1
tp667
a(S'w'
I10
tp668
a(S'p2_vo'
I0
tp669
a(S'w'
I724
tp670
a(S'p1_vo'
I5
tp671
a(S'w'
I8
tp672
a(S'p1_ll'
I1
tp673
a(S'p1_th'
I0
tp674
a(S'w'
I6
tp675
a(S'p1_tl'
I254
tp676
a(S'w'
I12
tp677
a(S'p2_vo'
I4
tp678
a(S'w'
I9
tp679
a(S'p2_tl'
I64
tp680
a(S'w'
I21
tp681
a(S'no_vo'
I0
tp682
a(S'w'
I9
tp683
a(S'tr_lr'
I0
tp684
a(S'w'
I16
tp685
a(S'no_vo'
I5
tp686
a(S'w'
I6
tp687
a(S'no_ll'
I1
tp688
a(S'w'
I6
tp689
a(S'w'
I638
tp690
a(S'p1_vo'
I4
tp691
a(S'w'
I10
tp692
a(S'p2_vo'
I3
tp693
a(S'w'
I722
tp694
a(S'p1_vo'
I3
tp695
a(S'w'
I10
tp696
a(S'p2_vo'
I2
tp697
a(S'w'
I12
tp698
a(S'no_vo'
I3
tp699
a(S'w'
I7
tp700
a(S'w'
I1437
tp701
a(S'p1_vo'
I2
tp702
a(S'w'
I10
tp703
a(S'p2_vo'
I1
tp704
a(S'w'
I12
tp705
a(S'no_vo'
I2
tp706
a(S'w'
I7
tp707
a(S'w'
I703
tp708
a(S'p1_vo'
I1
tp709
a(S'w'
I10
tp710
a(S'p2_vo'
I0
tp711
a(S'w'
I727
tp712
a(S'p1_vo'
I6
tp713
a(S'w'
I9
tp714
a(S'p1_tl'
I240
tp715
a(S'w'
I13
tp716
a(S'p2_vo'
I5
tp717
a(S'w'
I10
tp718
a(S'w'
I23
tp719
a(S'no_vo'
I0
tp720
a(S'w'
I11
tp721
a(S'tr_lr'
I24
tp722
a(S'w'
I7
tp723
a(S'tr_ll'
I1
tp724
a(S'w'
I6
tp725
a(S'tr_tl'
I224
tp726
a(S'w'
I15
tp727
a(S'no_vo'
I5
tp728
a(S'w'
I7
tp729
a(S'no_ll'
I1
tp730
a(S'w'
I5
tp731
a(S'w'
I622
tp732
a(S'p1_vo'
I5
tp733
a(S'w'
I10
tp734
a(S'p2_vo'
I4
tp735
a(S'w'
I723
tp736
a(S'p1_vo'
I4
tp737
a(S'w'
I10
tp738
a(S'p2_vo'
I3
tp739
a(S'w'
I12
tp740
a(S'no_vo'
I3
tp741
a(S'w'
I7
tp742
a(S'w'
I704
tp743
a(S'p1_vo'
I3
tp744
a(S'w'
I10
tp745
a(S'p2_vo'
I2
tp746
a(S'w'
I733
tp747
a(S'no_vo'
I2
tp748
a(S'w'
I7
tp749
a(S'w'
I1458
tp750
a(S'no_vo'
I1
tp751
a(S'w'
I7
tp752
a(S'no_np'
I1
tp753
a(S'w'
I1458
tp754
a(S'no_vo'
I0
tp755
a(S'w'
I722
tp756
a(S'p1_vo'
I2
tp757
a(S'w'
I10
tp758
a(S'p2_vo'
I1
tp759
a(S'w'
I723
tp760
a(S'p1_vo'
I1
tp761
a(S'w'
I10
tp762
a(S'p2_vo'
I0
tp763
a(S'w'
I722
tp764
a(S'p1_vo'
I0
tp765
a(S'w'
I737
tp766
a(S'p1_vo'
I5
tp767
a(S'w'
I8
tp768
a(S'p1_ll'
I1
tp769
a(S'p1_th'
I1
tp770
a(S'w'
I6
tp771
a(S'p1_tl'
I64
tp772
a(S'w'
I13
tp773
a(S'p2_vo'
I4
tp774
a(S'w'
I9
tp775
a(S'p2_tl'
I125
tp776
a(S'w'
I693
tp777
a(S'p1_vo'
I4
tp778
a(S'w'
I10
tp779
a(S'p2_vo'
I3
tp780
a(S'w'
I722
tp781
a(S'p1_vo'
I3
tp782
a(S'w'
I10
tp783
a(S'p2_vo'
I2
tp784
a(S'w'
I5851
tp785
a(S'p1_vo'
I2
tp786
a(S'w'
I10
tp787
a(S'p2_vo'
I1
tp788
a(S'w'
I723
tp789
a(S'p1_vo'
I1
tp790
a(S'w'
I10
tp791
a(S'p2_vo'
I0
tp792
a(S'w'
I724
tp793
a(S'p1_vo'
I5
tp794
a(S'w'
I9
tp795
a(S'p1_ll'
I1
tp796
a(S'p1_th'
I0
tp797
a(S'w'
I5
tp798
a(S'p1_tl'
I240
tp799
a(S'w'
I13
tp800
a(S'p2_vo'
I4
tp801
a(S'w'
I9
tp802
a(S'p2_tl'
I64
tp803
a(S'w'
I39
tp804
a(S'tr_ll'
I1
tp805
a(S'w'
I21
tp806
a(S'no_vo'
I7
tp807
a(S'w'
I6
tp808
a(S'no_ll'
I1
tp809
a(S'w'
I6
tp810
a(S'no_np'
I3
tp811
a(S'w'
I623
tp812
a(S'p1_vo'
I4
tp813
a(S'w'
I10
tp814
a(S'p2_vo'
I3
tp815
a(S'w'
I12
tp816
a(S'no_vo'
I3
tp817
a(S'w'
I7
tp818
a(S'no_np'
I1
tp819
a(S'w'
I703
tp820
a(S'p1_vo'
I3
tp821
a(S'w'
I10
tp822
a(S'p2_vo'
I2
tp823
a(S'w'
I12
tp824
a(S'no_vo'
I1
tp825
a(S'w'
I7
tp826
a(S'w'
I714
tp827
a(S'no_vo'
I0
tp828
a(S'w'
I5118
tp829
a(S'p1_vo'
I2
tp830
a(S'w'
I10
tp831
a(S'p2_vo'
I1
tp832
a(S'w'
I723
tp833
a(S'p1_vo'
I1
tp834
a(S'w'
I10
tp835
a(S'p2_vo'
I0
tp836
a(S'w'
I727
tp837
a(S'p1_vo'
I5
tp838
a(S'w'
I10
tp839
a(S'p1_tl'
I190
tp840
a(S'w'
I12
tp841
a(S'p2_vo'
I4
tp842
a(S'w'
I9
tp843
a(S'p2_ll'
I1
tp844
a(S'p2_th'
I0
tp845
a(S'w'
I5
tp846
a(S'p2_tl'
I240
tp847
a(S'w'
I692
tp848
a(S'p1_vo'
I4
tp849
a(S'w'
I10
tp850
a(S'p2_vo'
I3
tp851
a(S'w'
I723
tp852
a(S'p1_vo'
I3
tp853
a(S'w'
I10
tp854
a(S'p2_vo'
I2
tp855
a(S'w'
I5851
tp856
a(S'p1_vo'
I2
tp857
a(S'w'
I10
tp858
a(S'p2_vo'
I1
tp859
a(S'w'
I722
tp860
a(S'p1_vo'
I1
tp861
a(S'w'
I10
tp862
a(S'p2_vo'
I0
tp863
a(S'w'
I726
tp864
a(S'p1_vo'
I5
tp865
a(S'w'
I9
tp866
a(S'p1_tl'
I213
tp867
a(S'w'
I13
tp868
a(S'p2_vo'
I4
tp869
a(S'w'
I9
tp870
a(S'p2_tl'
I254
tp871
a(S'w'
I43
tp872
a(S'tr_ll'
I1
tp873
a(S'w'
I5
tp874
a(S'tr_tl'
I64
tp875
a(S'w'
I16
tp876
a(S'no_vo'
I7
tp877
a(S'w'
I6
tp878
a(S'no_ll'
I1
tp879
a(S'w'
I6
tp880
a(S'no_np'
I3
tp881
a(S'w'
I622
tp882
a(S'p1_vo'
I4
tp883
a(S'w'
I10
tp884
a(S'p2_vo'
I3
tp885
a(S'w'
I12
tp886
a(S'no_vo'
I3
tp887
a(S'w'
I7
tp888
a(S'no_np'
I1
tp889
a(S'w'
I704
tp890
a(S'p1_vo'
I3
tp891
a(S'w'
I10
tp892
a(S'p2_vo'
I2
tp893
a(S'w'
I12
tp894
a(S'no_vo'
I1
tp895
a(S'w'
I7
tp896
a(S'w'
I714
tp897
a(S'no_vo'
I0
tp898
a(S'w'
I13909
tp899
a(S'p1_vo'
I2
tp900
a(S'w'
I10
tp901
a(S'p2_vo'
I1
tp902
a(S'w'
I723
tp903
a(S'p1_vo'
I1
tp904
a(S'w'
I10
tp905
a(S'p2_vo'
I0
tp906
a(S'w'
I729
tp907
a(S'p1_vo'
I6
tp908
a(S'w'
I9
tp909
a(S'p1_ll'
I1
tp910
a(S'p1_th'
I1
tp911
a(S'w'
I5
tp912
a(S'p1_tl'
I171
tp913
a(S'w'
I18
tp914
a(S'p2_vo'
I4
tp915
a(S'w'
I7
tp916
a(S'p2_ll'
I1
tp917
a(S'p2_th'
I1
tp918
a(S'w'
I6
tp919
a(S'p2_tl'
I252
tp920
a(S'w'
I40
tp921
a(S'tr_ll'
I1
tp922
a(S'w'
I20
tp923
a(S'no_vo'
I7
tp924
a(S'w'
I7
tp925
a(S'no_ll'
I1
tp926
a(S'w'
I5
tp927
a(S'no_np'
I3
tp928
a(S'w'
I609
tp929
a(S'p1_vo'
I5
tp930
a(S'w'
I10
tp931
a(S'p2_vo'
I3
tp932
a(S'w'
I12
tp933
a(S'no_vo'
I3
tp934
a(S'w'
I7
tp935
a(S'no_np'
I1
tp936
a(S'w'
I703
tp937
a(S'p1_vo'
I4
tp938
a(S'w'
I10
tp939
a(S'p2_vo'
I2
tp940
a(S'w'
I12
tp941
a(S'no_vo'
I1
tp942
a(S'w'
I7
tp943
a(S'w'
I704
tp944
a(S'p1_vo'
I3
tp945
a(S'w'
I16
tp946
a(S'no_vo'
I0
tp947
a(S'w'
I1449
tp948
a(S'p1_vo'
I2
tp949
a(S'w'
I733
tp950
a(S'p1_vo'
I1
tp951
a(S'w'
I10
tp952
a(S'p2_vo'
I1
tp953
a(S'w'
I722
tp954
a(S'p1_vo'
I0
tp955
a(S'w'
I10
tp956
a(S'p2_vo'
I0
tp957
a(S'w'
I726
tp958
a(S'p1_vo'
I6
tp959
a(S'w'
I9
tp960
a(S'p1_tl'
I64
tp961
a(S'w'
I16
tp962
a(S'p2_vo'
I4
tp963
a(S'w'
I9
tp964
a(S'p2_tl'
I171
tp965
a(S'w'
I696
tp966
a(S'p1_vo'
I5
tp967
a(S'w'
I10
tp968
a(S'p2_vo'
I3
tp969
a(S'w'
I722
tp970
a(S'p1_vo'
I4
tp971
a(S'w'
I10
tp972
a(S'p2_vo'
I2
tp973
a(S'w'
I723
tp974
a(S'p1_vo'
I3
tp975
a(S'w'
I1465
tp976
a(S'p1_vo'
I2
tp977
a(S'w'
I733
tp978
a(S'p1_vo'
I1
tp979
a(S'w'
I10
tp980
a(S'p2_vo'
I1
tp981
a(S'w'
I722
tp982
a(S'p1_vo'
I0
tp983
a(S'w'
I10
tp984
a(S'p2_vo'
I0
tp985
a(S'w'
I726
tp986
a(S'p1_vo'
I6
tp987
a(S'w'
I8
tp988
a(S'p1_ll'
I1
tp989
a(S'p1_th'
I0
tp990
a(S'w'
I6
tp991
a(S'p1_tl'
I254
tp992
a(S'w'
I13
tp993
a(S'p2_vo'
I4
tp994
a(S'w'
I9
tp995
a(S'p2_tl'
I64
tp996
a(S'w'
I693
tp997
a(S'p1_vo'
I5
tp998
a(S'w'
I10
tp999
a(S'p2_vo'
I3
tp1000
a(S'w'
I723
tp1001
a(S'p1_vo'
I4
tp1002
a(S'w'
I10
tp1003
a(S'p2_vo'
I2
tp1004
a(S'w'
I723
tp1005
a(S'p1_vo'
I3
tp1006
a(S'w'
I1465
tp1007
a(S'p1_vo'
I2
tp1008
a(S'w'
I732
tp1009
a(S'p1_vo'
I1
tp1010
a(S'w'
I10
tp1011
a(S'p2_vo'
I1
tp1012
a(S'w'
I723
tp1013
a(S'p1_vo'
I0
tp1014
a(S'w'
I10
tp1015
a(S'p2_vo'
I0
tp1016
a(S'w'
I731
tp1017
a(S'p1_vo'
I6
tp1018
a(S'w'
I9
tp1019
a(S'p1_tl'
I213
tp1020
a(S'w'
I15
tp1021
a(S'p2_vo'
I5
tp1022
a(S'w'
I9
tp1023
a(S'p2_ll'
I1
tp1024
a(S'p2_th'
I0
tp1025
a(S'w'
I5
tp1026
a(S'p2_tl'
I254
tp1027
a(S'w'
I40
tp1028
a(S'tr_ll'
I1
tp1029
a(S'w'
I5
tp1030
a(S'tr_tl'
I171
tp1031
a(S'w'
I16
tp1032
a(S'no_vo'
I7
tp1033
a(S'w'
I6
tp1034
a(S'no_ll'
I1
tp1035
a(S'w'
I6
tp1036
a(S'no_np'
I3
tp1037
a(S'w'
I613
tp1038
a(S'p1_vo'
I5
tp1039
a(S'w'
I10
tp1040
a(S'p2_vo'
I4
tp1041
a(S'w'
I12
tp1042
a(S'no_vo'
I3
tp1043
a(S'w'
I7
tp1044
a(S'no_np'
I1
tp1045
a(S'w'
I704
tp1046
a(S'p1_vo'
I4
tp1047
a(S'w'
I10
tp1048
a(S'p2_vo'
I3
tp1049
a(S'w'
I12
tp1050
a(S'no_vo'
I1
tp1051
a(S'w'
I7
tp1052
a(S'w'
I703
tp1053
a(S'p1_vo'
I3
tp1054
a(S'w'
I10
tp1055
a(S'p2_vo'
I2
tp1056
a(S'w'
I12
tp1057
a(S'no_vo'
I0
tp1058
a(S'w'
I15401
tp1059
a(S'tr_ll'
I1
tp1060
a(S'w'
I21
tp1061
a(S'no_vo'
I7
tp1062
a(S'w'
I6
tp1063
a(S'no_ll'
I1
tp1064
a(S'w'
I6
tp1065
a(S'no_np'
I3
tp1066
a(S'w'
I673
tp1067
a(S'no_vo'
I3
tp1068
a(S'w'
I6
tp1069
a(S'no_np'
I1
tp1070
a(S'w'
I726
tp1071
a(S'no_vo'
I1
tp1072
a(S'w'
I7
tp1073
a(S'w'
I725
tp1074
a(S'no_vo'
I0
tp1075
a(S'w'
I3653
tp1076
a(S'p1_vo'
I2
tp1077
a(S'w'
I733
tp1078
a(S'p1_vo'
I1
tp1079
a(S'w'
I10
tp1080
a(S'p2_vo'
I1
tp1081
a(S'w'
I722
tp1082
a(S'p1_vo'
I0
tp1083
a(S'w'
I10
tp1084
a(S'p2_vo'
I0
tp1085
a(S'w'
I1462
tp1086
a(S'p1_vo'
I5
tp1087
a(S'w'
I8
tp1088
a(S'p1_ll'
I1
tp1089
a(S'p1_th'
I1
tp1090
a(S'w'
I6
tp1091
a(S'p1_tl'
I171
tp1092
a(S'w'
I17
tp1093
a(S'p2_vo'
I4
tp1094
a(S'w'
I7
tp1095
a(S'p2_ll'
I1
tp1096
a(S'p2_th'
I1
tp1097
a(S'w'
I6
tp1098
a(S'p2_tl'
I252
tp1099
a(S'w'
I682
tp1100
a(S'p1_vo'
I4
tp1101
a(S'w'
I10
tp1102
a(S'p2_vo'
I3
tp1103
a(S'w'
I723
tp1104
a(S'p1_vo'
I3
tp1105
a(S'w'
I10
tp1106
a(S'p2_vo'
I2
tp1107
a(S'w'
I5850
tp1108
a(S'p1_vo'
I2
tp1109
a(S'w'
I10
tp1110
a(S'p2_vo'
I1
tp1111
a(S'w'
I723
tp1112
a(S'p1_vo'
I1
tp1113
a(S'w'
I10
tp1114
a(S'p2_vo'
I0
tp1115
a(S'w'
I727
tp1116
a(S'p1_vo'
I5
tp1117
a(S'w'
I9
tp1118
a(S'p1_tl'
I64
tp1119
a(S'w'
I18
tp1120
a(S'p2_vo'
I4
tp1121
a(S'w'
I9
tp1122
a(S'p2_tl'
I171
tp1123
a(S'w'
I32
tp1124
a(S'tr_lr'
I10
tp1125
a(S'w'
I7
tp1126
a(S'tr_ll'
I1
tp1127
a(S'w'
I6
tp1128
a(S'tr_tl'
I64
tp1129
a(S'w'
I15
tp1130
a(S'no_vo'
I7
tp1131
a(S'w'
I7
tp1132
a(S'no_ll'
I1
tp1133
a(S'w'
I5
tp1134
a(S'no_np'
I3
tp1135
a(S'w'
I620
tp1136
a(S'p1_vo'
I4
tp1137
a(S'w'
I10
tp1138
a(S'p2_vo'
I3
tp1139
a(S'w'
I12
tp1140
a(S'no_vo'
I3
tp1141
a(S'w'
I7
tp1142
a(S'no_np'
I1
tp1143
a(S'w'
I704
tp1144
a(S'p1_vo'
I3
tp1145
a(S'w'
I10
tp1146
a(S'p2_vo'
I2
tp1147
a(S'w'
I12
tp1148
a(S'no_vo'
I1
tp1149
a(S'w'
I7
tp1150
a(S'w'
I713
tp1151
a(S'no_vo'
I0
tp1152
a(S'w'
I6624
tp1153
a(S'tr_ll'
I1
tp1154
a(S'w'
I5
tp1155
a(S'tr_tl'
I171
tp1156
a(S'w'
I15
tp1157
a(S'no_vo'
I5
tp1158
a(S'w'
I7
tp1159
a(S'no_ll'
I1
tp1160
a(S'w'
I5
tp1161
a(S'no_np'
I6
tp1162
a(S'w'
I1404
tp1163
a(S'no_vo'
I3
tp1164
a(S'w'
I6
tp1165
a(S'w'
I1459
tp1166
a(S'no_vo'
I2
tp1167
a(S'w'
I7
tp1168
a(S'w'
I1466
tp1169
a(S'no_vo'
I0
tp1170
a(S'w'
I18
tp1171
a(S'tr_ll'
I1
tp1172
a(S'w'
I21
tp1173
a(S'no_vo'
I5
tp1174
a(S'w'
I6
tp1175
a(S'no_ll'
I1
tp1176
a(S'w'
I6
tp1177
a(S'w'
I1407
tp1178
a(S'no_vo'
I3
tp1179
a(S'w'
I6
tp1180
a(S'w'
I1459
tp1181
a(S'no_vo'
I2
tp1182
a(S'w'
I7
tp1183
a(S'w'
I1470
tp1184
a(S'no_vo'
I0
tp1185
a(S'w'
I11
tp1186
a(S'tr_lr'
I118
tp1187
a(S'w'
I8
tp1188
a(S'tr_ll'
I1
tp1189
a(S'w'
I6
tp1190
a(S'tr_tl'
I64
tp1191
a(S'w'
I15
tp1192
a(S'no_vo'
I5
tp1193
a(S'w'
I7
tp1194
a(S'no_ll'
I1
tp1195
a(S'w'
I5
tp1196
a(S'w'
I1401
tp1197
a(S'no_vo'
I3
tp1198
a(S'w'
I6
tp1199
a(S'w'
I1459
tp1200
a(S'no_vo'
I2
tp1201
a(S'w'
I7
tp1202
a(S'w'
I1459
tp1203
a(S'no_vo'
I1
tp1204
a(S'w'
I7
tp1205
a(S'no_np'
I1
tp1206
a(S'w'
I1457
tp1207
a(S'no_vo'
I0
tp1208
a(S'w'
I14642
tp1209
a(S'p1_vo'
I2
tp1210
a(S'w'
I10
tp1211
a(S'p2_vo'
I1
tp1212
a(S'w'
I723
tp1213
a(S'p1_vo'
I1
tp1214
a(S'w'
I10
tp1215
a(S'p2_vo'
I0
tp1216
a(S'w'
I721
tp1217
a(S'p1_du'
I0
tp1218
a(S'p1_vo'
I0
tp1219
a(S'w'
I10
tp1220
a(S'p2_du'
I0
tp1221
a.