(lp1
(S'clock'
p2
I1789773
tp3
a(S'p1_lh'
I1
tp4
a(S'p1_cv'
I1
tp5
a(S'p2_lh'
I1
tp6
a(S'p2_cv'
I1
tp7
a(S'fc_mo'
I1
tp8
a(S'p1_du'
I2
tp9
a(S'p1_vo'
I7
tp10
a(S'w'
I8
tp11
a(S'p1_ll'
I1
tp12
a(S'p1_th'
I2
tp13
a(S'w'
I5
tp14
a(S'p1_tl'
I59
tp15
a(S'w'
I15
tp16
a(S'p2_du'
I2
tp17
a(S'p2_vo'
I7
tp18
a(S'w'
I8
tp19
a(S'p2_ll'
I1
tp20
a(S'p2_th'
I1
tp21
a(S'w'
I5
tp22
a(S'p2_tl'
I29
tp23
a(S'w'
I687
tp24
a(S'p1_vo'
I6
tp25
a(S'w'
I10
tp26
a(S'p2_vo'
I6
tp27
a(S'w'
I723
tp28
a(S'p1_vo'
I5
tp29
a(S'w'
I10
tp30
a(S'p2_vo'
I5
tp31
a(S'w'
I5851
tp32
a(S'p1_vo'
I4
tp33
a(S'w'
I10
tp34
a(S'p2_vo'
I4
tp35
a(S'w'
I722
tp36
a(S'p1_vo'
I3
tp37
a(S'w'
I10
tp38
a(S'p2_vo'
I3
tp39
a(S'w'
I723
tp40
a(S'p1_vo'
I2
tp41
a(S'w'
I10
tp42
a(S'p2_vo'
I2
tp43
a(S'w'
I722
tp44
a(S'p1_vo'
I1
tp45
a(S'w'
I10
tp46
a(S'p2_vo'
I1
tp47
a(S'w'
I723
tp48
a(S'p1_vo'
I0
tp49
a(S'w'
I10
tp50
a(S'p2_vo'
I0
tp51
a(S'w'
I1458
tp52
a(S'p1_vo'
I7
tp53
a(S'w'
I8
tp54
a(S'p1_tl'
I167
tp55
a(S'w'
I13
tp56
a(S'p2_vo'
I7
tp57
a(S'w'
I9
tp58
a(S'p2_tl'
I83
tp59
a(S'w'
I700
tp60
a(S'p1_vo'
I6
tp61
a(S'w'
I10
tp62
a(S'p2_vo'
I6
tp63
a(S'w'
I722
tp64
a(S'p1_vo'
I5
tp65
a(S'w'
I10
tp66
a(S'p2_vo'
I5
tp67
a(S'w'
I723
tp68
a(S'p1_vo'
I4
tp69
a(S'w'
I10
tp70
a(S'p2_vo'
I4
tp71
a(S'w'
I723
tp72
a(S'p1_vo'
I3
tp73
a(S'w'
I10
tp74
a(S'p2_vo'
I3
tp75
a(S'w'
I722
tp76
a(S'p1_vo'
I2
tp77
a(S'w'
I10
tp78
a(S'p2_vo'
I2
tp79
a(S'w'
I723
tp80
a(S'p1_vo'
I1
tp81
a(S'w'
I10
tp82
a(S'p2_vo'
I1
tp83
a(S'w'
I722
tp84
a(S'p1_vo'
I0
tp85
a(S'w'
I10
tp86
a(S'p2_vo'
I0
tp87
a(S'w'
I727
tp88
a(S'p1_du'
I3
tp89
a(S'p1_vo'
I6
tp90
a(S'w'
I9
tp91
a(S'p1_tl'
I59
tp92
a(S'w'
I14
tp93
a(S'p2_vo'
I7
tp94
a(S'w'
I9
tp95
a(S'p2_tl'
I171
tp96
a(S'w'
I15
tp97
a(S'tr_lr'
I51
tp98
a(S'w'
I8
tp99
a(S'tr_ll'
I1
tp100
a(S'tr_th'
I1
tp101
a(S'w'
I6
tp102
a(S'tr_tl'
I171
tp103
a(S'w'
I668
tp104
a(S'p1_vo'
I5
tp105
a(S'w'
I10
tp106
a(S'p2_vo'
I6
tp107
a(S'w'
I722
tp108
a(S'p1_vo'
I4
tp109
a(S'w'
I10
tp110
a(S'p2_vo'
I5
tp111
a(S'w'
I11716
tp112
a(S'p2_vo'
I4
tp113
a(S'w'
I729
tp114
a(S'p1_vo'
I3
tp115
a(S'w'
I10
tp116
a(S'p2_vo'
I3
tp117
a(S'w'
I722
tp118
a(S'p1_vo'
I2
tp119
a(S'w'
I10
tp120
a(S'p2_vo'
I2
tp121
a(S'w'
I723
tp122
a(S'p1_vo'
I1
tp123
a(S'w'
I10
tp124
a(S'p2_vo'
I1
tp125
a(S'w'
I722
tp126
a(S'p1_vo'
I0
tp127
a(S'w'
I10
tp128
a(S'p2_vo'
I0
tp129
a(S'w'
I1462
tp130
a(S'p1_vo'
I6
tp131
a(S'w'
I8
tp132
a(S'p1_ll'
I1
tp133
a(S'p1_th'
I1
tp134
a(S'w'
I6
tp135
a(S'p1_tl'
I171
tp136
a(S'w'
I13
tp137
a(S'p2_vo'
I7
tp138
a(S'w'
I9
tp139
a(S'p2_tl'
I83
tp140
a(S'w'
I20
tp141
a(S'tr_ll'
I1
tp142
a(S'w'
I670
tp143
a(S'p1_vo'
I5
tp144
a(S'w'
I10
tp145
a(S'p2_vo'
I6
tp146
a(S'w'
I723
tp147
a(S'p1_vo'
I4
tp148
a(S'w'
I10
tp149
a(S'p2_vo'
I5
tp150
a(S'w'
I11715
tp151
a(S'p2_vo'
I4
tp152
a(S'w'
I729
tp153
a(S'p1_vo'
I3
tp154
a(S'w'
I10
tp155
a(S'p2_vo'
I3
tp156
a(S'w'
I723
tp157
a(S'p1_vo'
I2
tp158
a(S'w'
I10
tp159
a(S'p2_vo'
I2
tp160
a(S'w'
I722
tp161
a(S'p1_vo'
I1
tp162
a(S'w'
I10
tp163
a(S'p2_vo'
I1
tp164
a(S'w'
I723
tp165
a(S'p1_vo'
I0
tp166
a(S'w'
I10
tp167
a(S'p2_vo'
I0
tp168
a(S'w'
I1458
tp169
a(S'p1_vo'
I6
tp170
a(S'w'
I9
tp171
a(S'p1_tl'
I125
tp172
a(S'w'
I13
tp173
a(S'p2_vo'
I7
tp174
a(S'w'
I9
tp175
a(S'p2_tl'
I29
tp176
a(S'w'
I22
tp177
a(S'tr_ll'
I1
tp178
a(S'w'
I6
tp179
a(S'tr_tl'
I197
tp180
a(S'w'
I671
tp181
a(S'p1_vo'
I5
tp182
a(S'w'
I10
tp183
a(S'p2_vo'
I6
tp184
a(S'w'
I722
tp185
a(S'p1_vo'
I4
tp186
a(S'w'
I10
tp187
a(S'p2_vo'
I5
tp188
a(S'w'
I11716
tp189
a(S'p2_vo'
I4
tp190
a(S'w'
I728
tp191
a(S'p1_vo'
I3
tp192
a(S'w'
I10
tp193
a(S'p2_vo'
I3
tp194
a(S'w'
I723
tp195
a(S'p1_vo'
I2
tp196
a(S'w'
I10
tp197
a(S'p2_vo'
I2
tp198
a(S'w'
I723
tp199
a(S'p1_vo'
I1
tp200
a(S'w'
I10
tp201
a(S'p2_vo'
I1
tp202
a(S'w'
I722
tp203
a(S'p1_vo'
I0
tp204
a(S'w'
I10
tp205
a(S'p2_vo'
I0
tp206
a(S'w'
I1459
tp207
a(S'p1_vo'
I6
tp208
a(S'w'
I9
tp209
a(S'p1_tl'
I83
tp210
a(S'w'
I17
tp211
a(S'p2_vo'
I7
tp212
a(S'w'
I9
tp213
a(S'p2_ll'
I1
tp214
a(S'p2_th'
I0
tp215
a(S'w'
I6
tp216
a(S'p2_tl'
I213
tp217
a(S'w'
I14
tp218
a(S'tr_lr'
I102
tp219
a(S'w'
I7
tp220
a(S'tr_ll'
I1
tp221
a(S'w'
I5
tp222
a(S'tr_tl'
I252
tp223
a(S'w'
I662
tp224
a(S'p1_vo'
I5
tp225
a(S'w'
I10
tp226
a(S'p2_vo'
I6
tp227
a(S'w'
I723
tp228
a(S'p1_vo'
I4
tp229
a(S'w'
I10
tp230
a(S'p2_vo'
I5
tp231
a(S'w'
I29298
tp232
a(S'p2_vo'
I4
tp233
a(S'w'
I728
tp234
a(S'p1_vo'
I3
tp235
a(S'w'
I10
tp236
a(S'p2_vo'
I3
tp237
a(S'w'
I723
tp238
a(S'p1_vo'
I2
tp239
a(S'w'
I10
tp240
a(S'p2_vo'
I2
tp241
a(S'w'
I723
tp242
a(S'p1_vo'
I1
tp243
a(S'w'
I10
tp244
a(S'p2_vo'
I1
tp245
a(S'w'
I722
tp246
a(S'p1_vo'
I0
tp247
a(S'w'
I10
tp248
a(S'p2_vo'
I0
tp249
a(S'w'
I1458
tp250
a(S'p1_vo'
I6
tp251
a(S'w'
I9
tp252
a(S'p1_tl'
I29
tp253
a(S'w'
I15
tp254
a(S'p2_vo'
I7
tp255
a(S'w'
I10
tp256
a(S'p2_tl'
I169
tp257
a(S'w'
I13
tp258
a(S'tr_lr'
I51
tp259
a(S'w'
I7
tp260
a(S'tr_ll'
I1
tp261
a(S'tr_th'
I2
tp262
a(S'w'
I6
tp263
a(S'tr_tl'
I167
tp264
a(S'w'
I670
tp265
a(S'p1_vo'
I5
tp266
a(S'w'
I10
tp267
a(S'p2_vo'
I6
tp268
a(S'w'
I723
tp269
a(S'p1_vo'
I4
tp270
a(S'w'
I10
tp271
a(S'p2_vo'
I5
tp272
a(S'w'
I5854
tp273
a(S'p2_vo'
I4
tp274
a(S'w'
I733
tp275
a(S'p2_vo'
I3
tp276
a(S'w'
I733
tp277
a(S'p2_vo'
I2
tp278
a(S'w'
I732
tp279
a(S'p2_vo'
I1
tp280
a(S'w'
I733
tp281
a(S'p2_vo'
I0
tp282
a(S'w'
I1468
tp283
a(S'p2_vo'
I7
tp284
a(S'w'
I10
tp285
a(S'p2_tl'
I190
tp286
a(S'w'
I720
tp287
a(S'p2_vo'
I6
tp288
a(S'w'
I732
tp289
a(S'p2_vo'
I5
tp290
a(S'w'
I729
tp291
a(S'p1_vo'
I3
tp292
a(S'w'
I10
tp293
a(S'p2_vo'
I4
tp294
a(S'w'
I722
tp295
a(S'p1_vo'
I2
tp296
a(S'w'
I10
tp297
a(S'p2_vo'
I3
tp298
a(S'w'
I723
tp299
a(S'p1_vo'
I1
tp300
a(S'w'
I10
tp301
a(S'p2_vo'
I2
tp302
a(S'w'
I723
tp303
a(S'p1_vo'
I0
tp304
a(S'w'
I10
tp305
a(S'p2_vo'
I1
tp306
a(S'w'
I726
tp307
a(S'p2_vo'
I0
tp308
a(S'w'
I732
tp309
a(S'p1_vo'
I6
tp310
a(S'w'
I9
tp311
a(S'p1_tl'
I83
tp312
a(S'w'
I14
tp313
a(S'p2_vo'
I7
tp314
a(S'w'
I10
tp315
a(S'p2_tl'
I213
tp316
a(S'w'
I19
tp317
a(S'tr_ll'
I1
tp318
a(S'tr_th'
I1
tp319
a(S'w'
I6
tp320
a(S'tr_tl'
I252
tp321
a(S'w'
I671
tp322
a(S'p1_vo'
I5
tp323
a(S'w'
I10
tp324
a(S'p2_vo'
I6
tp325
a(S'w'
I723
tp326
a(S'p1_vo'
I4
tp327
a(S'w'
I10
tp328
a(S'p2_vo'
I5
tp329
a(S'w'
I11716
tp330
a(S'p2_vo'
I4
tp331
a(S'w'
I728
tp332
a(S'p1_vo'
I3
tp333
a(S'w'
I10
tp334
a(S'p2_vo'
I3
tp335
a(S'w'
I723
tp336
a(S'p1_vo'
I2
tp337
a(S'w'
I10
tp338
a(S'p2_vo'
I2
tp339
a(S'w'
I723
tp340
a(S'p1_vo'
I1
tp341
a(S'w'
I10
tp342
a(S'p2_vo'
I1
tp343
a(S'w'
I722
tp344
a(S'p1_vo'
I0
tp345
a(S'w'
I10
tp346
a(S'p2_vo'
I0
tp347
a(S'w'
I1458
tp348
a(S'p1_vo'
I6
tp349
a(S'w'
I9
tp350
a(S'p1_tl'
I171
tp351
a(S'w'
I16
tp352
a(S'p2_vo'
I7
tp353
a(S'w'
I8
tp354
a(S'p2_ll'
I1
tp355
a(S'p2_th'
I1
tp356
a(S'w'
I6
tp357
a(S'p2_tl'
I83
tp358
a(S'w'
I19
tp359
a(S'tr_ll'
I1
tp360
a(S'w'
I672
tp361
a(S'p1_vo'
I5
tp362
a(S'w'
I10
tp363
a(S'p2_vo'
I6
tp364
a(S'w'
I723
tp365
a(S'p1_vo'
I4
tp366
a(S'w'
I10
tp367
a(S'p2_vo'
I5
tp368
a(S'w'
I11715
tp369
a(S'p2_vo'
I4
tp370
a(S'w'
I729
tp371
a(S'p1_vo'
I3
tp372
a(S'w'
I10
tp373
a(S'p2_vo'
I3
tp374
a(S'w'
I722
tp375
a(S'p1_vo'
I2
tp376
a(S'w'
I10
tp377
a(S'p2_vo'
I2
tp378
a(S'w'
I723
tp379
a(S'p1_vo'
I1
tp380
a(S'w'
I10
tp381
a(S'p2_vo'
I1
tp382
a(S'w'
I723
tp383
a(S'p1_vo'
I0
tp384
a(S'w'
I10
tp385
a(S'p2_vo'
I0
tp386
a(S'w'
I1458
tp387
a(S'p1_vo'
I6
tp388
a(S'w'
I9
tp389
a(S'p1_tl'
I125
tp390
a(S'w'
I13
tp391
a(S'p2_vo'
I7
tp392
a(S'w'
I9
tp393
a(S'p2_tl'
I46
tp394
a(S'w'
I23
tp395
a(S'tr_ll'
I1
tp396
a(S'w'
I5
tp397
a(S'tr_tl'
I125
tp398
a(S'w'
I670
tp399
a(S'p1_vo'
I5
tp400
a(S'w'
I10
tp401
a(S'p2_vo'
I6
tp402
a(S'w'
I723
tp403
a(S'p1_vo'
I4
tp404
a(S'w'
I10
tp405
a(S'p2_vo'
I5
tp406
a(S'w'
I11716
tp407
a(S'p2_vo'
I4
tp408
a(S'w'
I728
tp409
a(S'p1_vo'
I3
tp410
a(S'w'
I10
tp411
a(S'p2_vo'
I3
tp412
a(S'w'
I723
tp413
a(S'p1_vo'
I2
tp414
a(S'w'
I10
tp415
a(S'p2_vo'
I2
tp416
a(S'w'
I722
tp417
a(S'p1_vo'
I1
tp418
a(S'w'
I10
tp419
a(S'p2_vo'
I1
tp420
a(S'w'
I723
tp421
a(S'p1_vo'
I0
tp422
a(S'w'
I10
tp423
a(S'p2_vo'
I0
tp424
a(S'w'
I1462
tp425
a(S'p1_vo'
I6
tp426
a(S'w'
I9
tp427
a(S'p1_tl'
I197
tp428
a(S'w'
I14
tp429
a(S'p2_vo'
I7
tp430
a(S'w'
I9
tp431
a(S'p2_tl'
I29
tp432
a(S'w'
I22
tp433
a(S'tr_ll'
I1
tp434
a(S'tr_th'
I2
tp435
a(S'w'
I6
tp436
a(S'tr_tl'
I59
tp437
a(S'w'
I666
tp438
a(S'p1_vo'
I5
tp439
a(S'w'
I10
tp440
a(S'p2_vo'
I6
tp441
a(S'w'
I722
tp442
a(S'p1_vo'
I4
tp443
a(S'w'
I10
tp444
a(S'p2_vo'
I5
tp445
a(S'w'
I16129
tp446
a(S'tr_ll'
I1
tp447
a(S'tr_th'
I1
tp448
a(S'w'
I6
tp449
a(S'tr_tl'
I64
tp450
a(S'w'
I13164
tp451
a(S'p2_vo'
I4
tp452
a(S'w'
I728
tp453
a(S'p1_vo'
I3
tp454
a(S'w'
I10
tp455
a(S'p2_vo'
I3
tp456
a(S'w'
I723
tp457
a(S'p1_vo'
I2
tp458
a(S'w'
I10
tp459
a(S'p2_vo'
I2
tp460
a(S'w'
I722
tp461
a(S'p1_vo'
I1
tp462
a(S'w'
I10
tp463
a(S'p2_vo'
I1
tp464
a(S'w'
I723
tp465
a(S'p1_vo'
I0
tp466
a(S'w'
I10
tp467
a(S'p2_vo'
I0
tp468
a(S'w'
I1463
tp469
a(S'p1_du'
I2
tp470
a(S'p1_vo'
I6
tp471
a(S'w'
I8
tp472
a(S'p1_ll'
I1
tp473
a(S'p1_th'
I2
tp474
a(S'w'
I6
tp475
a(S'p1_tl'
I59
tp476
a(S'w'
I15
tp477
a(S'p2_vo'
I7
tp478
a(S'w'
I9
tp479
a(S'w'
I15
tp480
a(S'tr_lr'
I36
tp481
a(S'w'
I7
tp482
a(S'tr_ll'
I1
tp483
a(S'w'
I6
tp484
a(S'tr_tl'
I83
tp485
a(S'w'
I659
tp486
a(S'p1_vo'
I5
tp487
a(S'w'
I10
tp488
a(S'p2_vo'
I6
tp489
a(S'w'
I722
tp490
a(S'p1_vo'
I4
tp491
a(S'w'
I10
tp492
a(S'p2_vo'
I5
tp493
a(S'w'
I5855
tp494
a(S'p2_vo'
I4
tp495
a(S'w'
I729
tp496
a(S'p1_vo'
I3
tp497
a(S'w'
I10
tp498
a(S'p2_vo'
I3
tp499
a(S'w'
I722
tp500
a(S'p1_vo'
I2
tp501
a(S'w'
I10
tp502
a(S'p2_vo'
I2
tp503
a(S'w'
I723
tp504
a(S'p1_vo'
I1
tp505
a(S'w'
I10
tp506
a(S'p2_vo'
I1
tp507
a(S'w'
I723
tp508
a(S'p1_vo'
I0
tp509
a(S'w'
I10
tp510
a(S'p2_vo'
I0
tp511
a(S'w'
I1458
tp512
a(S'p1_vo'
I6
tp513
a(S'w'
I8
tp514
a(S'w'
I13
tp515
a(S'p2_vo'
I7
tp516
a(S'w'
I9
tp517
a(S'w'
I21
tp518
a(S'tr_ll'
I1
tp519
a(S'w'
I5
tp520
a(S'tr_tl'
I125
tp521
a(S'w'
I673
tp522
a(S'p1_vo'
I5
tp523
a(S'w'
I10
tp524
a(S'p2_vo'
I6
tp525
a(S'w'
I723
tp526
a(S'p1_vo'
I4
tp527
a(S'w'
I10
tp528
a(S'p2_vo'
I5
tp529
a(S'w'
I723
tp530
a(S'p1_vo'
I3
tp531
a(S'w'
I10
tp532
a(S'p2_vo'
I4
tp533
a(S'w'
I722
tp534
a(S'p1_vo'
I2
tp535
a(S'w'
I10
tp536
a(S'p2_vo'
I3
tp537
a(S'w'
I723
tp538
a(S'p1_vo'
I1
tp539
a(S'w'
I10
tp540
a(S'p2_vo'
I2
tp541
a(S'w'
I722
tp542
a(S'p1_vo'
I0
tp543
a(S'w'
I10
tp544
a(S'p2_vo'
I1
tp545
a(S'w'
I727
tp546
a(S'p2_vo'
I0
tp547
a(S'w'
I737
tp548
a(S'p1_du'
I3
tp549
a(S'p1_vo'
I6
tp550
a(S'w'
I8
tp551
a(S'p1_ll'
I1
tp552
a(S'p1_th'
I1
tp553
a(S'w'
I6
tp554
a(S'p1_tl'
I29
tp555
a(S'w'
I18
tp556
a(S'p2_vo'
I7
tp557
a(S'w'
I9
tp558
a(S'p2_ll'
I1
tp559
a(S'p2_th'
I0
tp560
a(S'w'
I5
tp561
a(S'p2_tl'
I169
tp562
a(S'w'
I13
tp563
a(S'tr_lr'
I51
tp564
a(S'w'
I8
tp565
a(S'tr_ll'
I1
tp566
a(S'w'
I5
tp567
a(S'tr_tl'
I171
tp568
a(S'w'
I652
tp569
a(S'p1_vo'
I5
tp570
a(S'w'
I10
tp571
a(S'p2_vo'
I6
tp572
a(S'w'
I723
tp573
a(S'p1_vo'
I4
tp574
a(S'w'
I10
tp575
a(S'p2_vo'
I5
tp576
a(S'w'
I16125
tp577
a(S'tr_ll'
I1
tp578
a(S'w'
I4382
tp579
a(S'p2_vo'
I4
tp580
a(S'w'
I728
tp581
a(S'p1_vo'
I3
tp582
a(S'w'
I10
tp583
a(S'p2_vo'
I3
tp584
a(S'w'
I723
tp585
a(S'p1_vo'
I2
tp586
a(S'w'
I10
tp587
a(S'p2_vo'
I2
tp588
a(S'w'
I723
tp589
a(S'p1_vo'
I1
tp590
a(S'w'
I10
tp591
a(S'p2_vo'
I1
tp592
a(S'w'
I722
tp593
a(S'p1_vo'
I0
tp594
a(S'w'
I10
tp595
a(S'p2_vo'
I0
tp596
a(S'w'
I1457
tp597
a(S'p1_vo'
I6
tp598
a(S'w'
I9
tp599
a(S'w'
I13
tp600
a(S'p2_vo'
I7
tp601
a(S'w'
I9
tp602
a(S'p2_tl'
I190
tp603
a(S'w'
I700
tp604
a(S'p1_vo'
I5
tp605
a(S'w'
I10
tp606
a(S'p2_vo'
I6
tp607
a(S'w'
I723
tp608
a(S'p1_vo'
I4
tp609
a(S'w'
I10
tp610
a(S'p2_vo'
I5
tp611
a(S'w'
I2924
tp612
a(S'p2_vo'
I4
tp613
a(S'w'
I729
tp614
a(S'p1_vo'
I3
tp615
a(S'w'
I10
tp616
a(S'p2_vo'
I3
tp617
a(S'w'
I722
tp618
a(S'p1_vo'
I2
tp619
a(S'w'
I10
tp620
a(S'p2_vo'
I2
tp621
a(S'w'
I723
tp622
a(S'p1_vo'
I1
tp623
a(S'w'
I10
tp624
a(S'p2_vo'
I1
tp625
a(S'w'
I722
tp626
a(S'p1_vo'
I0
tp627
a(S'w'
I10
tp628
a(S'p2_vo'
I0
tp629
a(S'w'
I1459
tp630
a(S'p1_vo'
I6
tp631
a(S'w'
I9
tp632
a(S'p1_tl'
I83
tp633
a(S'w'
I13
tp634
a(S'p2_vo'
I7
tp635
a(S'w'
I9
tp636
a(S'p2_tl'
I213
tp637
a(S'w'
I23
tp638
a(S'tr_ll'
I1
tp639
a(S'w'
I5
tp640
a(S'tr_tl'
I252
tp641
a(S'w'
I670
tp642
a(S'p1_vo'
I5
tp643
a(S'w'
I10
tp644
a(S'p2_vo'
I6
tp645
a(S'w'
I723
tp646
a(S'p1_vo'
I4
tp647
a(S'w'
I10
tp648
a(S'p2_vo'
I5
tp649
a(S'w'
I11715
tp650
a(S'p2_vo'
I4
tp651
a(S'w'
I729
tp652
a(S'p1_vo'
I3
tp653
a(S'w'
I10
tp654
a(S'p2_vo'
I3
tp655
a(S'w'
I723
tp656
a(S'p1_vo'
I2
tp657
a(S'w'
I10
tp658
a(S'p2_vo'
I2
tp659
a(S'w'
I722
tp660
a(S'p1_vo'
I1
tp661
a(S'w'
I10
tp662
a(S'p2_vo'
I1
tp663
a(S'w'
I723
tp664
a(S'p1_vo'
I0
tp665
a(S'w'
I10
tp666
a(S'p2_vo'
I0
tp667
a(S'w'
I1459
tp668
a(S'p1_vo'
I6
tp669
a(S'w'
I9
tp670
a(S'p1_tl'
I29
tp671
a(S'w'
I17
tp672
a(S'p2_vo'
I7
tp673
a(S'w'
I9
tp674
a(S'p2_tl'
I226
tp675
a(S'w'
I20
tp676
a(S'tr_ll'
I1
tp677
a(S'tr_th'
I2
tp678
a(S'w'
I5
tp679
a(S'tr_tl'
I59
tp680
a(S'w'
I669
tp681
a(S'p1_vo'
I5
tp682
a(S'w'
I10
tp683
a(S'p2_vo'
I6
tp684
a(S'w'
I722
tp685
a(S'p1_vo'
I4
tp686
a(S'w'
I10
tp687
a(S'p2_vo'
I5
tp688
a(S'w'
I16126
tp689
a(S'tr_ll'
I1
tp690
a(S'w'
I13172
tp691
a(S'p2_vo'
I4
tp692
a(S'w'
I729
tp693
a(S'p1_vo'
I3
tp694
a(S'w'
I10
tp695
a(S'p2_vo'
I3
tp696
a(S'w'
I723
tp697
a(S'p1_vo'
I2
tp698
a(S'w'
I10
tp699
a(S'p2_vo'
I2
tp700
a(S'w'
I722
tp701
a(S'p1_vo'
I1
tp702
a(S'w'
I10
tp703
a(S'p2_vo'
I1
tp704
a(S'w'
I723
tp705
a(S'p1_vo'
I0
tp706
a(S'w'
I10
tp707
a(S'p2_vo'
I0
tp708
a(S'w'
I1460
tp709
a(S'p1_vo'
I6
tp710
a(S'w'
I9
tp711
a(S'p1_tl'
I64
tp712
a(S'w'
I16
tp713
a(S'p2_vo'
I7
tp714
a(S'w'
I9
tp715
a(S'p2_tl'
I254
tp716
a(S'w'
I23
tp717
a(S'tr_ll'
I1
tp718
a(S'tr_th'
I1
tp719
a(S'w'
I5
tp720
a(S'tr_tl'
I64
tp721
a(S'w'
I666
tp722
a(S'p1_vo'
I5
tp723
a(S'w'
I10
tp724
a(S'p2_vo'
I6
tp725
a(S'w'
I722
tp726
a(S'p1_vo'
I4
tp727
a(S'w'
I10
tp728
a(S'p2_vo'
I5
tp729
a(S'w'
I5855
tp730
a(S'p2_vo'
I4
tp731
a(S'w'
I729
tp732
a(S'p1_vo'
I3
tp733
a(S'w'
I10
tp734
a(S'p2_vo'
I3
tp735
a(S'w'
I722
tp736
a(S'p1_vo'
I2
tp737
a(S'w'
I10
tp738
a(S'p2_vo'
I2
tp739
a(S'w'
I723
tp740
a(S'p1_vo'
I1
tp741
a(S'w'
I10
tp742
a(S'p2_vo'
I1
tp743
a(S'w'
I722
tp744
a(S'p1_vo'
I0
tp745
a(S'w'
I10
tp746
a(S'p2_vo'
I0
tp747
a(S'w'
I1459
tp748
a(S'p1_vo'
I6
tp749
a(S'w'
I9
tp750
a(S'p1_tl'
I29
tp751
a(S'w'
I13
tp752
a(S'p2_vo'
I7
tp753
a(S'w'
I9
tp754
a(S'p2_tl'
I226
tp755
a(S'w'
I698
tp756
a(S'p1_vo'
I5
tp757
a(S'w'
I10
tp758
a(S'p2_vo'
I6
tp759
a(S'w'
I723
tp760
a(S'p1_vo'
I4
tp761
a(S'w'
I10
tp762
a(S'p2_vo'
I5
tp763
a(S'w'
I722
tp764
a(S'p1_vo'
I3
tp765
a(S'w'
I10
tp766
a(S'p2_vo'
I4
tp767
a(S'w'
I723
tp768
a(S'p1_vo'
I2
tp769
a(S'w'
I10
tp770
a(S'p2_vo'
I3
tp771
a(S'w'
I723
tp772
a(S'p1_vo'
I1
tp773
a(S'w'
I10
tp774
a(S'p2_vo'
I2
tp775
a(S'w'
I722
tp776
a(S'p1_vo'
I0
tp777
a(S'w'
I10
tp778
a(S'p2_vo'
I1
tp779
a(S'w'
I727
tp780
a(S'p2_vo'
I0
tp781
a(S'w'
I732
tp782
a(S'p1_vo'
I6
tp783
a(S'w'
I9
tp784
a(S'p1_tl'
I83
tp785
a(S'w'
I18
tp786
a(S'p2_vo'
I7
tp787
a(S'w'
I9
tp788
a(S'p2_tl'
I213
tp789
a(S'w'
I20
tp790
a(S'tr_ll'
I1
tp791
a(S'w'
I6
tp792
a(S'tr_tl'
I171
tp793
a(S'w'
I667
tp794
a(S'p1_vo'
I5
tp795
a(S'w'
I10
tp796
a(S'p2_vo'
I6
tp797
a(S'w'
I723
tp798
a(S'p1_vo'
I4
tp799
a(S'w'
I10
tp800
a(S'p2_vo'
I5
tp801
a(S'w'
I11715
tp802
a(S'p2_vo'
I4
tp803
a(S'w'
I729
tp804
a(S'p1_vo'
I3
tp805
a(S'w'
I10
tp806
a(S'p2_vo'
I3
tp807
a(S'w'
I722
tp808
a(S'p1_vo'
I2
tp809
a(S'w'
I10
tp810
a(S'p2_vo'
I2
tp811
a(S'w'
I723
tp812
a(S'p1_vo'
I1
tp813
a(S'w'
I10
tp814
a(S'p2_vo'
I1
tp815
a(S'w'
I723
tp816
a(S'p1_vo'
I0
tp817
a(S'w'
I10
tp818
a(S'p2_vo'
I0
tp819
a(S'w'
I1458
tp820
a(S'p1_vo'
I6
tp821
a(S'w'
I9
tp822
a(S'p1_tl'
I29
tp823
a(S'w'
I13
tp824
a(S'p2_vo'
I7
tp825
a(S'w'
I9
tp826
a(S'w'
I21
tp827
a(S'tr_ll'
I1
tp828
a(S'w'
I5
tp829
a(S'tr_tl'
I83
tp830
a(S'w'
I673
tp831
a(S'p1_vo'
I5
tp832
a(S'w'
I10
tp833
a(S'p2_vo'
I6
tp834
a(S'w'
I722
tp835
a(S'p1_vo'
I4
tp836
a(S'w'
I10
tp837
a(S'p2_vo'
I5
tp838
a(S'w'
I11716
tp839
a(S'p2_vo'
I4
tp840
a(S'w'
I728
tp841
a(S'p1_vo'
I3
tp842
a(S'w'
I10
tp843
a(S'p2_vo'
I3
tp844
a(S'w'
I723
tp845
a(S'p1_vo'
I2
tp846
a(S'w'
I10
tp847
a(S'p2_vo'
I2
tp848
a(S'w'
I723
tp849
a(S'p1_vo'
I1
tp850
a(S'w'
I10
tp851
a(S'p2_vo'
I1
tp852
a(S'w'
I722
tp853
a(S'p1_vo'
I0
tp854
a(S'w'
I10
tp855
a(S'p2_vo'
I0
tp856
a(S'w'
I1458
tp857
a(S'p1_vo'
I6
tp858
a(S'w'
I9
tp859
a(S'p1_tl'
I83
tp860
a(S'w'
I16
tp861
a(S'p2_vo'
I7
tp862
a(S'w'
I8
tp863
a(S'p2_ll'
I1
tp864
a(S'p2_th'
I1
tp865
a(S'w'
I6
tp866
a(S'p2_tl'
I29
tp867
a(S'w'
I20
tp868
a(S'tr_ll'
I1
tp869
a(S'w'
I5
tp870
a(S'tr_tl'
I171
tp871
a(S'w'
I666
tp872
a(S'p1_vo'
I5
tp873
a(S'w'
I10
tp874
a(S'p2_vo'
I6
tp875
a(S'w'
I723
tp876
a(S'p1_vo'
I4
tp877
a(S'w'
I10
tp878
a(S'p2_vo'
I5
tp879
a(S'w'
I11715
tp880
a(S'p2_vo'
I4
tp881
a(S'w'
I729
tp882
a(S'p1_vo'
I3
tp883
a(S'w'
I10
tp884
a(S'p2_vo'
I3
tp885
a(S'w'
I722
tp886
a(S'p1_vo'
I2
tp887
a(S'w'
I10
tp888
a(S'p2_vo'
I2
tp889
a(S'w'
I723
tp890
a(S'p1_vo'
I1
tp891
a(S'w'
I10
tp892
a(S'p2_vo'
I1
tp893
a(S'w'
I723
tp894
a(S'p1_vo'
I0
tp895
a(S'w'
I10
tp896
a(S'p2_vo'
I0
tp897
a(S'w'
I1462
tp898
a(S'p1_du'
I2
tp899
a(S'p1_vo'
I6
tp900
a(S'w'
I8
tp901
a(S'p1_ll'
I1
tp902
a(S'p1_th'
I2
tp903
a(S'w'
I6
tp904
a(S'p1_tl'
I59
tp905
a(S'w'
I13
tp906
a(S'p2_vo'
I7
tp907
a(S'w'
I9
tp908
a(S'p2_tl'
I83
tp909
a(S'w'
I22
tp910
a(S'tr_ll'
I1
tp911
a(S'tr_th'
I2
tp912
a(S'w'
I6
tp913
a(S'tr_tl'
I59
tp914
a(S'w'
I661
tp915
a(S'p1_vo'
I5
tp916
a(S'w'
I10
tp917
a(S'p2_vo'
I6
tp918
a(S'w'
I723
tp919
a(S'p1_vo'
I4
tp920
a(S'w'
I10
tp921
a(S'p2_vo'
I5
tp922
a(S'w'
I11712
tp923
a(S'p1_vo'
I3
tp924
a(S'w'
I10
tp925
a(S'p2_vo'
I4
tp926
a(S'w'
I722
tp927
a(S'p1_vo'
I2
tp928
a(S'w'
I10
tp929
a(S'p2_vo'
I3
tp930
a(S'w'
I723
tp931
a(S'p1_vo'
I1
tp932
a(S'w'
I10
tp933
a(S'p2_vo'
I2
tp934
a(S'w'
I722
tp935
a(S'p1_vo'
I0
tp936
a(S'w'
I10
tp937
a(S'p2_vo'
I1
tp938
a(S'w'
I727
tp939
a(S'p2_vo'
I0
tp940
a(S'w'
I1465
tp941
a(S'p1_vo'
I6
tp942
a(S'w'
I8
tp943
a(S'p1_tl'
I167
tp944
a(S'w'
I15
tp945
a(S'p2_vo'
I7
tp946
a(S'w'
I9
tp947
a(S'p2_tl'
I171
tp948
a(S'w'
I16
tp949
a(S'tr_lh'
I1
tp950
a(S'tr_lr'
I25
tp951
a(S'w'
I8
tp952
a(S'tr_ll'
I1
tp953
a(S'tr_th'
I1
tp954
a(S'w'
I6
tp955
a(S'tr_tl'
I171
tp956
a(S'w'
I667
tp957
a(S'p1_vo'
I5
tp958
a(S'w'
I10
tp959
a(S'p2_vo'
I6
tp960
a(S'w'
I723
tp961
a(S'p1_vo'
I4
tp962
a(S'w'
I10
tp963
a(S'p2_vo'
I5
tp964
a(S'w'
I29294
tp965
a(S'p1_vo'
I3
tp966
a(S'w'
I10
tp967
a(S'p2_vo'
I4
tp968
a(S'w'
I722
tp969
a(S'p1_vo'
I2
tp970
a(S'w'
I10
tp971
a(S'p2_vo'
I3
tp972
a(S'w'
I723
tp973
a(S'p1_vo'
I1
tp974
a(S'w'
I10
tp975
a(S'p2_vo'
I2
tp976
a(S'w'
I722
tp977
a(S'p1_vo'
I0
tp978
a(S'w'
I10
tp979
a(S'p2_vo'
I1
tp980
a(S'w'
I727
tp981
a(S'p2_vo'
I0
tp982
a(S'w'
I1460
tp983
a(S'p1_du'
I0
tp984
a(S'w'
I10
tp985
a(S'p2_du'
I0
tp986
a(S'w'
I11
tp987
a(S'tr_lh'
I0
tp988
a(S'tr_lr'
I0
tp989
a.