(lp1
(S'clock'
p2
I1789773
tp3
a(S'ch_no'
I1
tp4
a(S'ch_tr'
I1
tp5
a(S'ch_p2'
I1
tp6
a(S'ch_p1'
I1
tp7
a(S'fc_mo'
I1
tp8
a(S'p1_cv'
I1
tp9
a(S'p2_cv'
I1
tp10
a(S'no_cv'
I1
tp11
a(S'w'
I44
tp12
a(S'p1_tl'
I124
tp13
a(S'p1_ll'
I1
tp14
a(S'p1_th'
I1
tp15
a(S'p1_sp'
I7
tp16
a(S'p1_sn'
I1
tp17
a(S'p1_ss'
I7
tp18
a(S'w'
I7
tp19
a(S'p2_tl'
I196
tp20
a(S'p2_ll'
I1
tp21
a(S'p2_th'
I1
tp22
a(S'w'
I1
tp23
a(S'p2_sp'
I7
tp24
a(S'p2_sn'
I1
tp25
a(S'p2_ss'
I7
tp26
a(S'w'
I9
tp27
a(S'tr_lr'
I28
tp28
a(S'tr_tl'
I58
tp29
a(S'tr_ll'
I1
tp30
a(S'tr_th'
I2
tp31
a(S'w'
I6
tp32
a(S'p1_du'
I3
tp33
a(S'p1_lh'
I1
tp34
a(S'p1_vo'
I3
tp35
a(S'w'
I3
tp36
a(S'p2_du'
I3
tp37
a(S'p2_lh'
I1
tp38
a(S'p2_vo'
I3
tp39
a(S'w'
I41
tp40
a(S'p1_vo'
I5
tp41
a(S'w'
I4
tp42
a(S'p2_vo'
I5
tp43
a(S'w'
I708
tp44
a(S'p1_vo'
I8
tp45
a(S'w'
I3
tp46
a(S'p2_vo'
I8
tp47
a(S'w'
I731
tp48
a(S'p1_vo'
I10
tp49
a(S'w'
I3
tp50
a(S'p2_vo'
I10
tp51
a(S'w'
I730
tp52
a(S'p1_vo'
I9
tp53
a(S'w'
I3
tp54
a(S'p2_vo'
I9
tp55
a(S'w'
I2928
tp56
a(S'w'
I1
tp57
a(S'p1_ll'
I1
tp58
a(S'w'
I5
tp59
a(S'w'
I1
tp60
a(S'p2_ll'
I1
tp61
a(S'w'
I6
tp62
a(S'tr_ll'
I1
tp63
a(S'w'
I5
tp64
a(S'p1_vo'
I3
tp65
a(S'w'
I4
tp66
a(S'p2_vo'
I3
tp67
a(S'w'
I717
tp68
a(S'p1_vo'
I5
tp69
a(S'w'
I3
tp70
a(S'p2_vo'
I5
tp71
a(S'w'
I731
tp72
a(S'p1_vo'
I8
tp73
a(S'w'
I3
tp74
a(S'p2_vo'
I8
tp75
a(S'w'
I730
tp76
a(S'p1_vo'
I10
tp77
a(S'w'
I3
tp78
a(S'p2_vo'
I10
tp79
a(S'w'
I730
tp80
a(S'p1_vo'
I9
tp81
a(S'w'
I3
tp82
a(S'p2_vo'
I9
tp83
a(S'w'
I2928
tp84
a(S'w'
I1
tp85
a(S'p1_ll'
I1
tp86
a(S'w'
I5
tp87
a(S'w'
I1
tp88
a(S'p2_ll'
I1
tp89
a(S'w'
I6
tp90
a(S'tr_ll'
I1
tp91
a(S'w'
I5
tp92
a(S'p1_vo'
I3
tp93
a(S'w'
I4
tp94
a(S'p2_vo'
I3
tp95
a(S'w'
I717
tp96
a(S'p1_vo'
I5
tp97
a(S'w'
I3
tp98
a(S'p2_vo'
I5
tp99
a(S'w'
I731
tp100
a(S'p1_vo'
I8
tp101
a(S'w'
I3
tp102
a(S'p2_vo'
I8
tp103
a(S'w'
I731
tp104
a(S'p1_vo'
I10
tp105
a(S'w'
I3
tp106
a(S'p2_vo'
I10
tp107
a(S'w'
I730
tp108
a(S'p1_vo'
I9
tp109
a(S'w'
I3
tp110
a(S'p2_vo'
I9
tp111
a(S'w'
I2930
tp112
a(S'p1_tl'
I28
tp113
a(S'p1_ll'
I1
tp114
a(S'w'
I7
tp115
a(S'p2_tl'
I124
tp116
a(S'p2_ll'
I1
tp117
a(S'w'
I8
tp118
a(S'tr_lr'
I60
tp119
a(S'tr_ll'
I1
tp120
a(S'w'
I6
tp121
a(S'p1_vo'
I3
tp122
a(S'w'
I3
tp123
a(S'p2_vo'
I3
tp124
a(S'w'
I713
tp125
a(S'p1_vo'
I5
tp126
a(S'w'
I3
tp127
a(S'p2_vo'
I5
tp128
a(S'w'
I730
tp129
a(S'p1_vo'
I8
tp130
a(S'w'
I3
tp131
a(S'p2_vo'
I8
tp132
a(S'w'
I731
tp133
a(S'p1_vo'
I10
tp134
a(S'w'
I3
tp135
a(S'p2_vo'
I10
tp136
a(S'w'
I730
tp137
a(S'p1_vo'
I9
tp138
a(S'w'
I3
tp139
a(S'p2_vo'
I9
tp140
a(S'w'
I8800
tp141
a(S'p1_tl'
I124
tp142
a(S'p1_ll'
I1
tp143
a(S'w'
I7
tp144
a(S'p2_tl'
I196
tp145
a(S'p2_ll'
I1
tp146
a(S'w'
I7
tp147
a(S'tr_lr'
I0
tp148
a(S'w'
I1
tp149
a(S'tr_ll'
I1
tp150
a(S'w'
I6
tp151
a(S'p1_vo'
I3
tp152
a(S'w'
I3
tp153
a(S'p2_vo'
I3
tp154
a(S'w'
I713
tp155
a(S'p1_vo'
I5
tp156
a(S'w'
I3
tp157
a(S'p2_vo'
I5
tp158
a(S'w'
I731
tp159
a(S'p1_vo'
I8
tp160
a(S'w'
I3
tp161
a(S'p2_vo'
I8
tp162
a(S'w'
I731
tp163
a(S'p1_vo'
I10
tp164
a(S'w'
I3
tp165
a(S'p2_vo'
I10
tp166
a(S'w'
I730
tp167
a(S'p1_vo'
I9
tp168
a(S'w'
I3
tp169
a(S'p2_vo'
I9
tp170
a(S'w'
I2930
tp171
a(S'p1_tl'
I63
tp172
a(S'p1_ll'
I1
tp173
a(S'w'
I7
tp174
a(S'p2_tl'
I124
tp175
a(S'p2_ll'
I1
tp176
a(S'w'
I9
tp177
a(S'tr_lr'
I28
tp178
a(S'w'
I1
tp179
a(S'tr_ll'
I1
tp180
a(S'w'
I5
tp181
a(S'p1_vo'
I3
tp182
a(S'w'
I4
tp183
a(S'p2_vo'
I3
tp184
a(S'w'
I711
tp185
a(S'p1_vo'
I5
tp186
a(S'w'
I3
tp187
a(S'p2_vo'
I5
tp188
a(S'w'
I730
tp189
a(S'p1_vo'
I8
tp190
a(S'w'
I3
tp191
a(S'p2_vo'
I8
tp192
a(S'w'
I731
tp193
a(S'p1_vo'
I10
tp194
a(S'w'
I3
tp195
a(S'p2_vo'
I10
tp196
a(S'w'
I730
tp197
a(S'p1_vo'
I9
tp198
a(S'w'
I3
tp199
a(S'p2_vo'
I9
tp200
a(S'w'
I2932
tp201
a(S'tr_ll'
I1
tp202
a(S'w'
I5870
tp203
a(S'tr_ll'
I1
tp204
a(S'w'
I5867
tp205
a(S'p1_tl'
I82
tp206
a(S'w'
I1
tp207
a(S'p1_ll'
I1
tp208
a(S'w'
I5
tp209
a(S'p2_tl'
I171
tp210
a(S'w'
I1
tp211
a(S'p2_ll'
I1
tp212
a(S'w'
I7
tp213
a(S'tr_lr'
I60
tp214
a(S'w'
I1
tp215
a(S'tr_ll'
I1
tp216
a(S'w'
I6
tp217
a(S'p1_vo'
I3
tp218
a(S'w'
I3
tp219
a(S'p2_vo'
I3
tp220
a(S'w'
I715
tp221
a(S'p1_vo'
I5
tp222
a(S'w'
I3
tp223
a(S'p2_vo'
I5
tp224
a(S'w'
I730
tp225
a(S'p1_vo'
I8
tp226
a(S'w'
I3
tp227
a(S'p2_vo'
I8
tp228
a(S'w'
I731
tp229
a(S'p1_vo'
I10
tp230
a(S'w'
I3
tp231
a(S'p2_vo'
I10
tp232
a(S'w'
I730
tp233
a(S'p1_vo'
I9
tp234
a(S'w'
I3
tp235
a(S'p2_vo'
I9
tp236
a(S'w'
I8803
tp237
a(S'tr_lr'
I0
tp238
a(S'w'
I1
tp239
a(S'tr_ll'
I1
tp240
a(S'w'
I5867
tp241
a(S'p1_tl'
I58
tp242
a(S'p1_ll'
I1
tp243
a(S'p1_th'
I2
tp244
a(S'w'
I7
tp245
a(S'p2_tl'
I207
tp246
a(S'p2_ll'
I1
tp247
a(S'p2_th'
I2
tp248
a(S'w'
I10
tp249
a(S'tr_lr'
I28
tp250
a(S'w'
I1
tp251
a(S'tr_ll'
I1
tp252
a(S'w'
I5
tp253
a(S'p1_vo'
I3
tp254
a(S'w'
I4
tp255
a(S'p2_vo'
I3
tp256
a(S'w'
I710
tp257
a(S'p1_vo'
I5
tp258
a(S'w'
I3
tp259
a(S'p2_vo'
I5
tp260
a(S'w'
I730
tp261
a(S'p1_vo'
I8
tp262
a(S'w'
I3
tp263
a(S'p2_vo'
I8
tp264
a(S'w'
I731
tp265
a(S'p1_vo'
I10
tp266
a(S'w'
I3
tp267
a(S'p2_vo'
I10
tp268
a(S'w'
I730
tp269
a(S'p1_vo'
I9
tp270
a(S'w'
I3
tp271
a(S'p2_vo'
I9
tp272
a(S'w'
I2928
tp273
a(S'p1_tl'
I223
tp274
a(S'w'
I1
tp275
a(S'p1_ll'
I1
tp276
a(S'p1_th'
I1
tp277
a(S'w'
I5
tp278
a(S'p2_tl'
I58
tp279
a(S'w'
I1
tp280
a(S'p2_ll'
I1
tp281
a(S'w'
I9
tp282
a(S'tr_ll'
I1
tp283
a(S'w'
I6
tp284
a(S'p1_vo'
I3
tp285
a(S'w'
I3
tp286
a(S'p2_vo'
I3
tp287
a(S'w'
I714
tp288
a(S'p1_vo'
I5
tp289
a(S'w'
I3
tp290
a(S'p2_vo'
I5
tp291
a(S'w'
I731
tp292
a(S'p1_vo'
I8
tp293
a(S'w'
I3
tp294
a(S'p2_vo'
I8
tp295
a(S'w'
I730
tp296
a(S'p1_vo'
I10
tp297
a(S'w'
I3
tp298
a(S'p2_vo'
I10
tp299
a(S'w'
I730
tp300
a(S'p1_vo'
I9
tp301
a(S'w'
I3
tp302
a(S'p2_vo'
I9
tp303
a(S'w'
I2928
tp304
a(S'p1_tl'
I207
tp305
a(S'w'
I1
tp306
a(S'p1_ll'
I1
tp307
a(S'p1_th'
I2
tp308
a(S'w'
I5
tp309
a(S'p2_tl'
I223
tp310
a(S'w'
I1
tp311
a(S'p2_ll'
I1
tp312
a(S'p2_th'
I1
tp313
a(S'w'
I9
tp314
a(S'tr_ll'
I1
tp315
a(S'w'
I6
tp316
a(S'p1_vo'
I3
tp317
a(S'w'
I3
tp318
a(S'p2_vo'
I3
tp319
a(S'w'
I714
tp320
a(S'p1_vo'
I5
tp321
a(S'w'
I3
tp322
a(S'p2_vo'
I5
tp323
a(S'w'
I731
tp324
a(S'p1_vo'
I8
tp325
a(S'w'
I3
tp326
a(S'p2_vo'
I8
tp327
a(S'w'
I731
tp328
a(S'p1_vo'
I10
tp329
a(S'w'
I3
tp330
a(S'p2_vo'
I10
tp331
a(S'w'
I730
tp332
a(S'p1_vo'
I9
tp333
a(S'w'
I3
tp334
a(S'p2_vo'
I9
tp335
a(S'w'
I2928
tp336
a(S'p1_tl'
I252
tp337
a(S'w'
I1
tp338
a(S'p1_ll'
I1
tp339
a(S'p1_th'
I1
tp340
a(S'w'
I5
tp341
a(S'p2_tl'
I128
tp342
a(S'w'
I1
tp343
a(S'p2_ll'
I1
tp344
a(S'p2_th'
I2
tp345
a(S'w'
I9
tp346
a(S'tr_ll'
I1
tp347
a(S'w'
I6
tp348
a(S'p1_vo'
I3
tp349
a(S'w'
I3
tp350
a(S'p2_vo'
I3
tp351
a(S'w'
I714
tp352
a(S'p1_vo'
I5
tp353
a(S'w'
I3
tp354
a(S'p2_vo'
I5
tp355
a(S'w'
I730
tp356
a(S'p1_vo'
I8
tp357
a(S'w'
I3
tp358
a(S'p2_vo'
I8
tp359
a(S'w'
I731
tp360
a(S'p1_vo'
I10
tp361
a(S'w'
I3
tp362
a(S'p2_vo'
I10
tp363
a(S'w'
I730
tp364
a(S'p1_vo'
I9
tp365
a(S'w'
I3
tp366
a(S'p2_vo'
I9
tp367
a(S'w'
I2928
tp368
a(S'p1_tl'
I171
tp369
a(S'w'
I1
tp370
a(S'p1_ll'
I1
tp371
a(S'w'
I5
tp372
a(S'p2_tl'
I252
tp373
a(S'w'
I1
tp374
a(S'p2_ll'
I1
tp375
a(S'p2_th'
I1
tp376
a(S'w'
I9
tp377
a(S'tr_ll'
I1
tp378
a(S'w'
I6
tp379
a(S'p1_vo'
I3
tp380
a(S'w'
I3
tp381
a(S'p2_vo'
I3
tp382
a(S'w'
I714
tp383
a(S'p1_vo'
I5
tp384
a(S'w'
I3
tp385
a(S'p2_vo'
I5
tp386
a(S'w'
I731
tp387
a(S'p1_vo'
I8
tp388
a(S'w'
I3
tp389
a(S'p2_vo'
I8
tp390
a(S'w'
I730
tp391
a(S'p1_vo'
I10
tp392
a(S'w'
I3
tp393
a(S'p2_vo'
I10
tp394
a(S'w'
I730
tp395
a(S'p1_vo'
I9
tp396
a(S'w'
I3
tp397
a(S'p2_vo'
I9
tp398
a(S'w'
I2928
tp399
a(S'p1_tl'
I63
tp400
a(S'w'
I1
tp401
a(S'p1_ll'
I1
tp402
a(S'w'
I5
tp403
a(S'p2_tl'
I171
tp404
a(S'w'
I1
tp405
a(S'p2_ll'
I1
tp406
a(S'w'
I9
tp407
a(S'tr_ll'
I1
tp408
a(S'w'
I6
tp409
a(S'p1_vo'
I3
tp410
a(S'w'
I3
tp411
a(S'p2_vo'
I3
tp412
a(S'w'
I714
tp413
a(S'p1_vo'
I5
tp414
a(S'w'
I3
tp415
a(S'p2_vo'
I5
tp416
a(S'w'
I731
tp417
a(S'p1_vo'
I8
tp418
a(S'w'
I3
tp419
a(S'p2_vo'
I8
tp420
a(S'w'
I731
tp421
a(S'p1_vo'
I10
tp422
a(S'w'
I3
tp423
a(S'p2_vo'
I10
tp424
a(S'w'
I730
tp425
a(S'p1_vo'
I9
tp426
a(S'w'
I3
tp427
a(S'p2_vo'
I9
tp428
a(S'w'
I2928
tp429
a(S'p1_tl'
I28
tp430
a(S'w'
I1
tp431
a(S'p1_ll'
I1
tp432
a(S'w'
I5
tp433
a(S'p2_tl'
I196
tp434
a(S'w'
I1
tp435
a(S'p2_ll'
I1
tp436
a(S'w'
I9
tp437
a(S'tr_ll'
I1
tp438
a(S'w'
I6
tp439
a(S'p1_vo'
I3
tp440
a(S'w'
I3
tp441
a(S'p2_vo'
I3
tp442
a(S'w'
I714
tp443
a(S'p1_vo'
I5
tp444
a(S'w'
I3
tp445
a(S'p2_vo'
I5
tp446
a(S'w'
I730
tp447
a(S'p1_vo'
I8
tp448
a(S'w'
I3
tp449
a(S'p2_vo'
I8
tp450
a(S'w'
I731
tp451
a(S'p1_vo'
I10
tp452
a(S'w'
I3
tp453
a(S'p2_vo'
I10
tp454
a(S'w'
I730
tp455
a(S'p1_vo'
I9
tp456
a(S'w'
I3
tp457
a(S'p2_vo'
I9
tp458
a(S'w'
I2927
tp459
a(S'p1_du'
I0
tp460
a(S'p1_lh'
I0
tp461
a(S'p1_vo'
I0
tp462
a(S'p2_du'
I0
tp463
a(S'p2_lh'
I0
tp464
a(S'p2_vo'
I0
tp465
a(S'w'
I1
tp466
a(S'tr_lr'
I0
tp467
a(S'w'
I41689
tp468
a.