(lp1
(S'clock'
p2
I1789773
tp3
a(S'ch_no'
I1
tp4
a(S'ch_tr'
I1
tp5
a(S'ch_p2'
I1
tp6
a(S'ch_p1'
I1
tp7
a(S'fc_mo'
I1
tp8
a(S'p1_cv'
I1
tp9
a(S'p2_cv'
I1
tp10
a(S'no_cv'
I1
tp11
a(S'w'
I43
tp12
a(S'p1_tl'
I238
tp13
a(S'w'
I1
tp14
a(S'p1_ll'
I1
tp15
a(S'p1_sp'
I7
tp16
a(S'p1_sn'
I1
tp17
a(S'p1_ss'
I7
tp18
a(S'w'
I6
tp19
a(S'p2_tl'
I171
tp20
a(S'w'
I1
tp21
a(S'p2_ll'
I1
tp22
a(S'p2_th'
I1
tp23
a(S'p2_sp'
I7
tp24
a(S'p2_sn'
I1
tp25
a(S'p2_ss'
I7
tp26
a(S'w'
I7
tp27
a(S'tr_lh'
I1
tp28
a(S'tr_lr'
I127
tp29
a(S'w'
I1
tp30
a(S'tr_tl'
I159
tp31
a(S'tr_ll'
I1
tp32
a(S'w'
I5
tp33
a(S'p1_lh'
I1
tp34
a(S'p1_vo'
I3
tp35
a(S'w'
I4
tp36
a(S'p2_lh'
I1
tp37
a(S'p2_vo'
I3
tp38
a(S'w'
I41
tp39
a(S'p1_vo'
I5
tp40
a(S'w'
I3
tp41
a(S'p2_vo'
I5
tp42
a(S'w'
I711
tp43
a(S'p1_vo'
I8
tp44
a(S'w'
I3
tp45
a(S'p2_vo'
I8
tp46
a(S'w'
I731
tp47
a(S'p1_vo'
I10
tp48
a(S'w'
I3
tp49
a(S'p2_vo'
I10
tp50
a(S'w'
I730
tp51
a(S'p1_vo'
I11
tp52
a(S'w'
I3
tp53
a(S'p2_vo'
I11
tp54
a(S'w'
I14671
tp55
a(S'p1_tl'
I225
tp56
a(S'p1_ll'
I1
tp57
a(S'w'
I7
tp58
a(S'p2_tl'
I147
tp59
a(S'p2_ll'
I1
tp60
a(S'w'
I8
tp61
a(S'tr_tl'
I150
tp62
a(S'tr_ll'
I1
tp63
a(S'w'
I6
tp64
a(S'p1_vo'
I3
tp65
a(S'w'
I3
tp66
a(S'p2_vo'
I3
tp67
a(S'w'
I713
tp68
a(S'p1_vo'
I5
tp69
a(S'w'
I3
tp70
a(S'p2_vo'
I5
tp71
a(S'w'
I730
tp72
a(S'p1_vo'
I8
tp73
a(S'w'
I3
tp74
a(S'p2_vo'
I8
tp75
a(S'w'
I731
tp76
a(S'p1_vo'
I10
tp77
a(S'w'
I3
tp78
a(S'p2_vo'
I10
tp79
a(S'w'
I730
tp80
a(S'p1_vo'
I11
tp81
a(S'w'
I3
tp82
a(S'p2_vo'
I11
tp83
a(S'w'
I5865
tp84
a(S'p1_tl'
I238
tp85
a(S'p1_ll'
I1
tp86
a(S'w'
I7
tp87
a(S'p2_tl'
I171
tp88
a(S'p2_ll'
I1
tp89
a(S'w'
I8
tp90
a(S'tr_tl'
I159
tp91
a(S'tr_ll'
I1
tp92
a(S'w'
I6
tp93
a(S'p1_vo'
I3
tp94
a(S'w'
I3
tp95
a(S'p2_vo'
I3
tp96
a(S'w'
I713
tp97
a(S'p1_vo'
I5
tp98
a(S'w'
I3
tp99
a(S'p2_vo'
I5
tp100
a(S'w'
I731
tp101
a(S'p1_vo'
I8
tp102
a(S'w'
I3
tp103
a(S'p2_vo'
I8
tp104
a(S'w'
I731
tp105
a(S'p1_vo'
I10
tp106
a(S'w'
I3
tp107
a(S'p2_vo'
I10
tp108
a(S'w'
I729
tp109
a(S'p1_vo'
I11
tp110
a(S'w'
I3
tp111
a(S'p2_vo'
I11
tp112
a(S'w'
I14671
tp113
a(S'p1_tl'
I225
tp114
a(S'p1_ll'
I1
tp115
a(S'w'
I7
tp116
a(S'p2_tl'
I147
tp117
a(S'p2_ll'
I1
tp118
a(S'w'
I8
tp119
a(S'tr_tl'
I150
tp120
a(S'tr_ll'
I1
tp121
a(S'w'
I6
tp122
a(S'p1_vo'
I3
tp123
a(S'w'
I3
tp124
a(S'p2_vo'
I3
tp125
a(S'w'
I713
tp126
a(S'p1_vo'
I5
tp127
a(S'w'
I3
tp128
a(S'p2_vo'
I5
tp129
a(S'w'
I731
tp130
a(S'p1_vo'
I8
tp131
a(S'w'
I3
tp132
a(S'p2_vo'
I8
tp133
a(S'w'
I731
tp134
a(S'p1_vo'
I10
tp135
a(S'w'
I3
tp136
a(S'p2_vo'
I10
tp137
a(S'w'
I729
tp138
a(S'p1_vo'
I11
tp139
a(S'w'
I3
tp140
a(S'p2_vo'
I11
tp141
a(S'w'
I5867
tp142
a(S'p1_tl'
I178
tp143
a(S'p1_ll'
I1
tp144
a(S'w'
I9
tp145
a(S'p2_tl'
I253
tp146
a(S'p2_ll'
I1
tp147
a(S'p2_th'
I0
tp148
a(S'w'
I9
tp149
a(S'tr_tl'
I168
tp150
a(S'tr_ll'
I1
tp151
a(S'w'
I6
tp152
a(S'p1_vo'
I3
tp153
a(S'w'
I3
tp154
a(S'p2_vo'
I3
tp155
a(S'w'
I709
tp156
a(S'p1_vo'
I5
tp157
a(S'w'
I3
tp158
a(S'p2_vo'
I5
tp159
a(S'w'
I730
tp160
a(S'p1_vo'
I8
tp161
a(S'w'
I3
tp162
a(S'p2_vo'
I8
tp163
a(S'w'
I731
tp164
a(S'p1_vo'
I10
tp165
a(S'w'
I3
tp166
a(S'p2_vo'
I10
tp167
a(S'w'
I730
tp168
a(S'p1_vo'
I11
tp169
a(S'w'
I3
tp170
a(S'p2_vo'
I11
tp171
a(S'w'
I1460
tp172
a(S'p1_tl'
I253
tp173
a(S'w'
I1
tp174
a(S'p1_ll'
I1
tp175
a(S'w'
I5
tp176
a(S'p2_tl'
I82
tp177
a(S'w'
I1
tp178
a(S'p2_ll'
I1
tp179
a(S'p2_th'
I1
tp180
a(S'w'
I6
tp181
a(S'tr_tl'
I238
tp182
a(S'tr_ll'
I1
tp183
a(S'w'
I5
tp184
a(S'p1_vo'
I3
tp185
a(S'w'
I4
tp186
a(S'p2_vo'
I3
tp187
a(S'w'
I717
tp188
a(S'p1_vo'
I5
tp189
a(S'w'
I3
tp190
a(S'p2_vo'
I5
tp191
a(S'w'
I731
tp192
a(S'p1_vo'
I8
tp193
a(S'w'
I3
tp194
a(S'p2_vo'
I8
tp195
a(S'w'
I731
tp196
a(S'p1_vo'
I10
tp197
a(S'w'
I3
tp198
a(S'p2_vo'
I10
tp199
a(S'w'
I730
tp200
a(S'p1_vo'
I11
tp201
a(S'w'
I3
tp202
a(S'p2_vo'
I11
tp203
a(S'w'
I1463
tp204
a(S'p1_tl'
I178
tp205
a(S'p1_ll'
I1
tp206
a(S'w'
I8
tp207
a(S'p2_tl'
I253
tp208
a(S'w'
I1
tp209
a(S'p2_ll'
I1
tp210
a(S'p2_th'
I0
tp211
a(S'w'
I9
tp212
a(S'tr_tl'
I168
tp213
a(S'tr_ll'
I1
tp214
a(S'w'
I5
tp215
a(S'p1_vo'
I3
tp216
a(S'w'
I4
tp217
a(S'p2_vo'
I3
tp218
a(S'w'
I709
tp219
a(S'p1_vo'
I5
tp220
a(S'w'
I3
tp221
a(S'p2_vo'
I5
tp222
a(S'w'
I731
tp223
a(S'p1_vo'
I8
tp224
a(S'w'
I3
tp225
a(S'p2_vo'
I8
tp226
a(S'w'
I731
tp227
a(S'p1_vo'
I10
tp228
a(S'w'
I3
tp229
a(S'p2_vo'
I10
tp230
a(S'w'
I729
tp231
a(S'p1_vo'
I11
tp232
a(S'w'
I3
tp233
a(S'p2_vo'
I11
tp234
a(S'w'
I1461
tp235
a(S'p1_tl'
I253
tp236
a(S'w'
I1
tp237
a(S'p1_ll'
I1
tp238
a(S'w'
I5
tp239
a(S'p2_tl'
I82
tp240
a(S'w'
I1
tp241
a(S'p2_ll'
I1
tp242
a(S'p2_th'
I1
tp243
a(S'w'
I6
tp244
a(S'tr_tl'
I238
tp245
a(S'tr_ll'
I1
tp246
a(S'w'
I5
tp247
a(S'p1_vo'
I3
tp248
a(S'w'
I4
tp249
a(S'p2_vo'
I3
tp250
a(S'w'
I717
tp251
a(S'p1_vo'
I5
tp252
a(S'w'
I3
tp253
a(S'p2_vo'
I5
tp254
a(S'w'
I731
tp255
a(S'p1_vo'
I8
tp256
a(S'w'
I3
tp257
a(S'p2_vo'
I8
tp258
a(S'w'
I730
tp259
a(S'p1_vo'
I10
tp260
a(S'w'
I3
tp261
a(S'p2_vo'
I10
tp262
a(S'w'
I730
tp263
a(S'p1_vo'
I11
tp264
a(S'w'
I3
tp265
a(S'p2_vo'
I11
tp266
a(S'w'
I1464
tp267
a(S'p1_tl'
I178
tp268
a(S'p1_ll'
I1
tp269
a(S'w'
I8
tp270
a(S'p2_tl'
I253
tp271
a(S'w'
I1
tp272
a(S'p2_ll'
I1
tp273
a(S'p2_th'
I0
tp274
a(S'w'
I9
tp275
a(S'tr_tl'
I168
tp276
a(S'tr_ll'
I1
tp277
a(S'w'
I5
tp278
a(S'p1_vo'
I3
tp279
a(S'w'
I4
tp280
a(S'p2_vo'
I3
tp281
a(S'w'
I709
tp282
a(S'p1_vo'
I5
tp283
a(S'w'
I3
tp284
a(S'p2_vo'
I5
tp285
a(S'w'
I730
tp286
a(S'p1_vo'
I8
tp287
a(S'w'
I3
tp288
a(S'p2_vo'
I8
tp289
a(S'w'
I731
tp290
a(S'p1_vo'
I10
tp291
a(S'w'
I3
tp292
a(S'p2_vo'
I10
tp293
a(S'w'
I730
tp294
a(S'p1_vo'
I11
tp295
a(S'w'
I3
tp296
a(S'p2_vo'
I11
tp297
a(S'w'
I1460
tp298
a(S'p1_tl'
I253
tp299
a(S'w'
I1
tp300
a(S'p1_ll'
I1
tp301
a(S'w'
I5
tp302
a(S'p2_tl'
I82
tp303
a(S'w'
I1
tp304
a(S'p2_ll'
I1
tp305
a(S'p2_th'
I1
tp306
a(S'w'
I6
tp307
a(S'tr_tl'
I238
tp308
a(S'tr_ll'
I1
tp309
a(S'w'
I5
tp310
a(S'p1_vo'
I3
tp311
a(S'w'
I4
tp312
a(S'p2_vo'
I3
tp313
a(S'w'
I717
tp314
a(S'p1_vo'
I5
tp315
a(S'w'
I3
tp316
a(S'p2_vo'
I5
tp317
a(S'w'
I731
tp318
a(S'p1_vo'
I8
tp319
a(S'w'
I3
tp320
a(S'p2_vo'
I8
tp321
a(S'w'
I731
tp322
a(S'p1_vo'
I10
tp323
a(S'w'
I3
tp324
a(S'p2_vo'
I10
tp325
a(S'w'
I730
tp326
a(S'p1_vo'
I11
tp327
a(S'w'
I3
tp328
a(S'p2_vo'
I11
tp329
a(S'w'
I1463
tp330
a(S'p1_tl'
I178
tp331
a(S'p1_ll'
I1
tp332
a(S'w'
I8
tp333
a(S'p2_tl'
I253
tp334
a(S'w'
I1
tp335
a(S'p2_ll'
I1
tp336
a(S'p2_th'
I0
tp337
a(S'w'
I9
tp338
a(S'tr_tl'
I168
tp339
a(S'tr_ll'
I1
tp340
a(S'w'
I5
tp341
a(S'p1_vo'
I3
tp342
a(S'w'
I4
tp343
a(S'p2_vo'
I3
tp344
a(S'w'
I709
tp345
a(S'p1_vo'
I5
tp346
a(S'w'
I3
tp347
a(S'p2_vo'
I5
tp348
a(S'w'
I731
tp349
a(S'p1_vo'
I8
tp350
a(S'w'
I3
tp351
a(S'p2_vo'
I8
tp352
a(S'w'
I731
tp353
a(S'p1_vo'
I10
tp354
a(S'w'
I3
tp355
a(S'p2_vo'
I10
tp356
a(S'w'
I729
tp357
a(S'p1_vo'
I11
tp358
a(S'w'
I3
tp359
a(S'p2_vo'
I11
tp360
a(S'w'
I1461
tp361
a(S'p1_tl'
I253
tp362
a(S'w'
I1
tp363
a(S'p1_ll'
I1
tp364
a(S'w'
I5
tp365
a(S'p2_tl'
I82
tp366
a(S'w'
I1
tp367
a(S'p2_ll'
I1
tp368
a(S'p2_th'
I1
tp369
a(S'w'
I6
tp370
a(S'tr_tl'
I238
tp371
a(S'tr_ll'
I1
tp372
a(S'w'
I5
tp373
a(S'p1_vo'
I3
tp374
a(S'w'
I4
tp375
a(S'p2_vo'
I3
tp376
a(S'w'
I717
tp377
a(S'p1_vo'
I5
tp378
a(S'w'
I3
tp379
a(S'p2_vo'
I5
tp380
a(S'w'
I731
tp381
a(S'p1_vo'
I8
tp382
a(S'w'
I3
tp383
a(S'p2_vo'
I8
tp384
a(S'w'
I730
tp385
a(S'p1_vo'
I10
tp386
a(S'w'
I3
tp387
a(S'p2_vo'
I10
tp388
a(S'w'
I730
tp389
a(S'p1_vo'
I11
tp390
a(S'w'
I3
tp391
a(S'p2_vo'
I11
tp392
a(S'w'
I1464
tp393
a(S'p1_tl'
I178
tp394
a(S'p1_ll'
I1
tp395
a(S'w'
I8
tp396
a(S'p2_tl'
I253
tp397
a(S'w'
I1
tp398
a(S'p2_ll'
I1
tp399
a(S'p2_th'
I0
tp400
a(S'w'
I9
tp401
a(S'tr_tl'
I168
tp402
a(S'tr_ll'
I1
tp403
a(S'w'
I5
tp404
a(S'p1_vo'
I3
tp405
a(S'w'
I4
tp406
a(S'p2_vo'
I3
tp407
a(S'w'
I709
tp408
a(S'p1_vo'
I5
tp409
a(S'w'
I3
tp410
a(S'p2_vo'
I5
tp411
a(S'w'
I730
tp412
a(S'p1_vo'
I8
tp413
a(S'w'
I3
tp414
a(S'p2_vo'
I8
tp415
a(S'w'
I731
tp416
a(S'p1_vo'
I10
tp417
a(S'w'
I3
tp418
a(S'p2_vo'
I10
tp419
a(S'w'
I730
tp420
a(S'p1_vo'
I11
tp421
a(S'w'
I3
tp422
a(S'p2_vo'
I11
tp423
a(S'w'
I1460
tp424
a(S'p1_tl'
I253
tp425
a(S'w'
I1
tp426
a(S'p1_ll'
I1
tp427
a(S'w'
I5
tp428
a(S'p2_tl'
I82
tp429
a(S'w'
I1
tp430
a(S'p2_ll'
I1
tp431
a(S'p2_th'
I1
tp432
a(S'w'
I6
tp433
a(S'tr_tl'
I238
tp434
a(S'tr_ll'
I1
tp435
a(S'w'
I5
tp436
a(S'p1_vo'
I3
tp437
a(S'w'
I4
tp438
a(S'p2_vo'
I3
tp439
a(S'w'
I717
tp440
a(S'p1_vo'
I5
tp441
a(S'w'
I3
tp442
a(S'p2_vo'
I5
tp443
a(S'w'
I731
tp444
a(S'p1_vo'
I8
tp445
a(S'w'
I3
tp446
a(S'p2_vo'
I8
tp447
a(S'w'
I731
tp448
a(S'p1_vo'
I10
tp449
a(S'w'
I3
tp450
a(S'p2_vo'
I10
tp451
a(S'w'
I730
tp452
a(S'p1_vo'
I11
tp453
a(S'w'
I3
tp454
a(S'p2_vo'
I11
tp455
a(S'w'
I1463
tp456
a(S'p1_tl'
I178
tp457
a(S'p1_ll'
I1
tp458
a(S'w'
I8
tp459
a(S'p2_tl'
I253
tp460
a(S'w'
I1
tp461
a(S'p2_ll'
I1
tp462
a(S'p2_th'
I0
tp463
a(S'w'
I9
tp464
a(S'tr_tl'
I168
tp465
a(S'tr_ll'
I1
tp466
a(S'w'
I5
tp467
a(S'p1_vo'
I3
tp468
a(S'w'
I4
tp469
a(S'p2_vo'
I3
tp470
a(S'w'
I709
tp471
a(S'p1_vo'
I5
tp472
a(S'w'
I3
tp473
a(S'p2_vo'
I5
tp474
a(S'w'
I731
tp475
a(S'p1_vo'
I8
tp476
a(S'w'
I3
tp477
a(S'p2_vo'
I8
tp478
a(S'w'
I731
tp479
a(S'p1_vo'
I10
tp480
a(S'w'
I3
tp481
a(S'p2_vo'
I10
tp482
a(S'w'
I729
tp483
a(S'p1_vo'
I11
tp484
a(S'w'
I3
tp485
a(S'p2_vo'
I11
tp486
a(S'w'
I1461
tp487
a(S'p1_tl'
I253
tp488
a(S'w'
I1
tp489
a(S'p1_ll'
I1
tp490
a(S'w'
I5
tp491
a(S'p2_tl'
I82
tp492
a(S'w'
I1
tp493
a(S'p2_ll'
I1
tp494
a(S'p2_th'
I1
tp495
a(S'w'
I6
tp496
a(S'tr_tl'
I238
tp497
a(S'tr_ll'
I1
tp498
a(S'w'
I5
tp499
a(S'p1_vo'
I3
tp500
a(S'w'
I4
tp501
a(S'p2_vo'
I3
tp502
a(S'w'
I717
tp503
a(S'p1_vo'
I5
tp504
a(S'w'
I3
tp505
a(S'p2_vo'
I5
tp506
a(S'w'
I731
tp507
a(S'p1_vo'
I8
tp508
a(S'w'
I3
tp509
a(S'p2_vo'
I8
tp510
a(S'w'
I730
tp511
a(S'p1_vo'
I10
tp512
a(S'w'
I3
tp513
a(S'p2_vo'
I10
tp514
a(S'w'
I730
tp515
a(S'p1_vo'
I11
tp516
a(S'w'
I3
tp517
a(S'p2_vo'
I11
tp518
a(S'w'
I1464
tp519
a(S'p1_tl'
I178
tp520
a(S'p1_ll'
I1
tp521
a(S'w'
I8
tp522
a(S'p2_tl'
I253
tp523
a(S'w'
I1
tp524
a(S'p2_ll'
I1
tp525
a(S'p2_th'
I0
tp526
a(S'w'
I9
tp527
a(S'tr_tl'
I168
tp528
a(S'tr_ll'
I1
tp529
a(S'w'
I5
tp530
a(S'p1_vo'
I3
tp531
a(S'w'
I4
tp532
a(S'p2_vo'
I3
tp533
a(S'w'
I709
tp534
a(S'p1_vo'
I5
tp535
a(S'w'
I3
tp536
a(S'p2_vo'
I5
tp537
a(S'w'
I730
tp538
a(S'p1_vo'
I8
tp539
a(S'w'
I3
tp540
a(S'p2_vo'
I8
tp541
a(S'w'
I731
tp542
a(S'p1_vo'
I10
tp543
a(S'w'
I3
tp544
a(S'p2_vo'
I10
tp545
a(S'w'
I730
tp546
a(S'p1_vo'
I11
tp547
a(S'w'
I3
tp548
a(S'p2_vo'
I11
tp549
a(S'w'
I1460
tp550
a(S'p1_tl'
I253
tp551
a(S'w'
I1
tp552
a(S'p1_ll'
I1
tp553
a(S'w'
I5
tp554
a(S'p2_tl'
I82
tp555
a(S'w'
I1
tp556
a(S'p2_ll'
I1
tp557
a(S'p2_th'
I1
tp558
a(S'w'
I6
tp559
a(S'tr_tl'
I238
tp560
a(S'tr_ll'
I1
tp561
a(S'w'
I5
tp562
a(S'p1_vo'
I3
tp563
a(S'w'
I4
tp564
a(S'p2_vo'
I3
tp565
a(S'w'
I717
tp566
a(S'p1_vo'
I5
tp567
a(S'w'
I3
tp568
a(S'p2_vo'
I5
tp569
a(S'w'
I731
tp570
a(S'p1_vo'
I8
tp571
a(S'w'
I3
tp572
a(S'p2_vo'
I8
tp573
a(S'w'
I731
tp574
a(S'p1_vo'
I10
tp575
a(S'w'
I3
tp576
a(S'p2_vo'
I10
tp577
a(S'w'
I730
tp578
a(S'p1_vo'
I11
tp579
a(S'w'
I3
tp580
a(S'p2_vo'
I11
tp581
a(S'w'
I1463
tp582
a(S'p1_tl'
I178
tp583
a(S'p1_ll'
I1
tp584
a(S'w'
I8
tp585
a(S'p2_tl'
I253
tp586
a(S'w'
I1
tp587
a(S'p2_ll'
I1
tp588
a(S'p2_th'
I0
tp589
a(S'w'
I9
tp590
a(S'tr_tl'
I168
tp591
a(S'tr_ll'
I1
tp592
a(S'w'
I5
tp593
a(S'p1_vo'
I3
tp594
a(S'w'
I4
tp595
a(S'p2_vo'
I3
tp596
a(S'w'
I709
tp597
a(S'p1_vo'
I5
tp598
a(S'w'
I3
tp599
a(S'p2_vo'
I5
tp600
a(S'w'
I731
tp601
a(S'p1_vo'
I8
tp602
a(S'w'
I3
tp603
a(S'p2_vo'
I8
tp604
a(S'w'
I731
tp605
a(S'p1_vo'
I10
tp606
a(S'w'
I3
tp607
a(S'p2_vo'
I10
tp608
a(S'w'
I729
tp609
a(S'p1_vo'
I11
tp610
a(S'w'
I3
tp611
a(S'p2_vo'
I11
tp612
a(S'w'
I1461
tp613
a(S'p1_tl'
I253
tp614
a(S'w'
I1
tp615
a(S'p1_ll'
I1
tp616
a(S'w'
I5
tp617
a(S'p2_tl'
I82
tp618
a(S'w'
I1
tp619
a(S'p2_ll'
I1
tp620
a(S'p2_th'
I1
tp621
a(S'w'
I6
tp622
a(S'tr_tl'
I238
tp623
a(S'tr_ll'
I1
tp624
a(S'w'
I5
tp625
a(S'p1_vo'
I3
tp626
a(S'w'
I4
tp627
a(S'p2_vo'
I3
tp628
a(S'w'
I717
tp629
a(S'p1_vo'
I5
tp630
a(S'w'
I3
tp631
a(S'p2_vo'
I5
tp632
a(S'w'
I731
tp633
a(S'p1_vo'
I8
tp634
a(S'w'
I3
tp635
a(S'p2_vo'
I8
tp636
a(S'w'
I730
tp637
a(S'p1_vo'
I10
tp638
a(S'w'
I3
tp639
a(S'p2_vo'
I10
tp640
a(S'w'
I730
tp641
a(S'p1_vo'
I11
tp642
a(S'w'
I3
tp643
a(S'p2_vo'
I11
tp644
a(S'w'
I1461
tp645
a(S'p1_lh'
I0
tp646
a(S'p1_vo'
I0
tp647
a(S'p2_lh'
I0
tp648
a(S'p2_vo'
I0
tp649
a(S'w'
I1
tp650
a(S'tr_lh'
I0
tp651
a(S'tr_lr'
I0
tp652
a(S'w'
I43259
tp653
a.