(lp1
(S'clock'
p2
I1789772
tp3
a(S'w'
I1
tp4
a(S'fc_mo'
I1
tp5
a(S'w'
I8
tp6
a(S'w'
I1
tp7
a(S'p1_cv'
I1
tp8
a(S'p2_cv'
I1
tp9
a(S'no_cv'
I1
tp10
a(S'w'
I11
tp11
a(S'p1_tl'
I252
tp12
a(S'w'
I1
tp13
a(S'p1_ll'
I1
tp14
a(S'p1_th'
I1
tp15
a(S'p1_du'
I2
tp16
a(S'p1_cv'
I0
tp17
a(S'p1_se'
I1
tp18
a(S'p1_ss'
I3
tp19
a(S'w'
I5
tp20
a(S'p2_tl'
I212
tp21
a(S'p2_ll'
I1
tp22
a(S'w'
I1
tp23
a(S'p2_cv'
I0
tp24
a(S'p2_sp'
I7
tp25
a(S'p2_sn'
I1
tp26
a(S'p2_ss'
I7
tp27
a(S'w'
I4
tp28
a(S'tr_lr'
I8
tp29
a(S'w'
I2
tp30
a(S'tr_tl'
I83
tp31
a(S'tr_ll'
I1
tp32
a(S'w'
I1
tp33
a(S'w'
I4
tp34
a(S'no_np'
I1
tp35
a(S'w'
I1
tp36
a(S'no_ll'
I3
tp37
a(S'w'
I2910
tp38
a(S'p2_cv'
I1
tp39
a(S'w'
I5
tp40
a(S'tr_lr'
I0
tp41
a(S'w'
I2929
tp42
a(S'p1_du'
I0
tp43
a(S'p1_cv'
I1
tp44
a(S'w'
I4
tp45
a(S'p2_tl'
I238
tp46
a(S'p2_ll'
I1
tp47
a(S'w'
I1
tp48
a(S'p2_cv'
I0
tp49
a(S'w'
I4
tp50
a(S'tr_tl'
I94
tp51
a(S'tr_ll'
I1
tp52
a(S'w'
I1
tp53
a(S'tr_lr'
I8
tp54
a(S'w'
I3
tp55
a(S'no_ll'
I3
tp56
a(S'w'
I2923
tp57
a(S'p2_cv'
I1
tp58
a(S'w'
I5
tp59
a(S'tr_lr'
I0
tp60
a(S'w'
I2933
tp61
a(S'p2_tl'
I174
tp62
a(S'p2_ll'
I1
tp63
a(S'p2_th'
I6
tp64
a(S'w'
I1
tp65
a(S'p2_cv'
I0
tp66
a(S'w'
I8
tp67
a(S'no_cv'
I0
tp68
a(S'no_ll'
I17
tp69
a(S'w'
I2923
tp70
a(S'p2_cv'
I1
tp71
a(S'w'
I2934
tp72
a(S'p1_tl'
I252
tp73
a(S'p1_ll'
I1
tp74
a(S'w'
I1
tp75
a(S'p1_du'
I2
tp76
a(S'p1_cv'
I0
tp77
a(S'w'
I4
tp78
a(S'p2_tl'
I253
tp79
a(S'p2_ll'
I1
tp80
a(S'p2_th'
I0
tp81
a(S'w'
I1
tp82
a(S'p2_cv'
I0
tp83
a(S'w'
I4
tp84
a(S'tr_tl'
I105
tp85
a(S'tr_ll'
I1
tp86
a(S'w'
I1
tp87
a(S'tr_lr'
I8
tp88
a(S'w'
I3
tp89
a(S'w'
I1
tp90
a(S'no_ll'
I17
tp91
a(S'w'
I2922
tp92
a(S'p2_cv'
I1
tp93
a(S'w'
I5
tp94
a(S'tr_lr'
I0
tp95
a(S'w'
I2928
tp96
a(S'p1_tl'
I252
tp97
a(S'p1_ll'
I1
tp98
a(S'w'
I5
tp99
a(S'p2_tl'
I28
tp100
a(S'p2_ll'
I1
tp101
a(S'p2_th'
I1
tp102
a(S'w'
I1
tp103
a(S'p2_cv'
I0
tp104
a(S'w'
I4
tp105
a(S'tr_tl'
I118
tp106
a(S'tr_ll'
I1
tp107
a(S'w'
I1
tp108
a(S'tr_lr'
I8
tp109
a(S'w'
I3
tp110
a(S'no_cv'
I1
tp111
a(S'w'
I1
tp112
a(S'no_ll'
I3
tp113
a(S'w'
I2922
tp114
a(S'p2_cv'
I1
tp115
a(S'w'
I5
tp116
a(S'tr_lr'
I0
tp117
a(S'w'
I2929
tp118
a(S'p1_du'
I0
tp119
a(S'p1_cv'
I1
tp120
a(S'w'
I4
tp121
a(S'p2_tl'
I87
tp122
a(S'p2_ll'
I1
tp123
a(S'p2_th'
I3
tp124
a(S'w'
I1
tp125
a(S'p2_cv'
I0
tp126
a(S'w'
I8
tp127
a(S'no_cv'
I0
tp128
a(S'no_ll'
I17
tp129
a(S'w'
I2923
tp130
a(S'p2_cv'
I1
tp131
a(S'w'
I2934
tp132
a(S'p1_tl'
I252
tp133
a(S'p1_ll'
I1
tp134
a(S'w'
I1
tp135
a(S'p1_du'
I2
tp136
a(S'p1_cv'
I0
tp137
a(S'w'
I4
tp138
a(S'p2_tl'
I253
tp139
a(S'p2_ll'
I1
tp140
a(S'p2_th'
I0
tp141
a(S'w'
I1
tp142
a(S'p2_cv'
I0
tp143
a(S'w'
I4
tp144
a(S'tr_tl'
I105
tp145
a(S'tr_ll'
I1
tp146
a(S'w'
I1
tp147
a(S'tr_lr'
I8
tp148
a(S'w'
I3
tp149
a(S'w'
I1
tp150
a(S'no_ll'
I17
tp151
a(S'w'
I2922
tp152
a(S'p2_cv'
I1
tp153
a(S'w'
I5
tp154
a(S'tr_lr'
I0
tp155
a(S'w'
I2929
tp156
a(S'p1_du'
I0
tp157
a(S'p1_cv'
I1
tp158
a(S'w'
I4
tp159
a(S'p2_tl'
I174
tp160
a(S'p2_ll'
I1
tp161
a(S'p2_th'
I6
tp162
a(S'w'
I1
tp163
a(S'p2_cv'
I0
tp164
a(S'w'
I8
tp165
a(S'no_ll'
I17
tp166
a(S'w'
I2923
tp167
a(S'p2_cv'
I1
tp168
a(S'w'
I2933
tp169
a(S'p1_tl'
I252
tp170
a(S'p1_ll'
I1
tp171
a(S'w'
I1
tp172
a(S'p1_du'
I2
tp173
a(S'p1_cv'
I0
tp174
a(S'w'
I4
tp175
a(S'p2_tl'
I28
tp176
a(S'p2_ll'
I1
tp177
a(S'p2_th'
I1
tp178
a(S'w'
I1
tp179
a(S'p2_cv'
I0
tp180
a(S'w'
I4
tp181
a(S'tr_tl'
I118
tp182
a(S'tr_ll'
I1
tp183
a(S'w'
I1
tp184
a(S'tr_lr'
I8
tp185
a(S'w'
I3
tp186
a(S'no_cv'
I1
tp187
a(S'w'
I1
tp188
a(S'no_ll'
I3
tp189
a(S'w'
I2922
tp190
a(S'p2_cv'
I1
tp191
a(S'w'
I5
tp192
a(S'tr_lr'
I0
tp193
a(S'w'
I2930
tp194
a(S'p1_du'
I0
tp195
a(S'p1_cv'
I1
tp196
a(S'w'
I4
tp197
a(S'p2_tl'
I212
tp198
a(S'p2_ll'
I1
tp199
a(S'p2_th'
I0
tp200
a(S'w'
I1
tp201
a(S'p2_cv'
I0
tp202
a(S'w'
I4
tp203
a(S'tr_tl'
I126
tp204
a(S'tr_ll'
I1
tp205
a(S'w'
I1
tp206
a(S'tr_lr'
I8
tp207
a(S'w'
I3
tp208
a(S'no_ll'
I3
tp209
a(S'w'
I2923
tp210
a(S'p2_cv'
I1
tp211
a(S'w'
I5
tp212
a(S'tr_lr'
I0
tp213
a(S'w'
I2933
tp214
a(S'p2_tl'
I174
tp215
a(S'p2_ll'
I1
tp216
a(S'p2_th'
I6
tp217
a(S'w'
I1
tp218
a(S'p2_cv'
I0
tp219
a(S'w'
I8
tp220
a(S'no_cv'
I0
tp221
a(S'no_ll'
I17
tp222
a(S'w'
I2923
tp223
a(S'p2_cv'
I1
tp224
a(S'w'
I2933
tp225
a(S'p1_tl'
I252
tp226
a(S'p1_ll'
I1
tp227
a(S'w'
I1
tp228
a(S'p1_du'
I2
tp229
a(S'p1_cv'
I0
tp230
a(S'w'
I4
tp231
a(S'p2_tl'
I189
tp232
a(S'p2_ll'
I1
tp233
a(S'p2_th'
I0
tp234
a(S'w'
I1
tp235
a(S'p2_cv'
I0
tp236
a(S'w'
I4
tp237
a(S'tr_tl'
I118
tp238
a(S'tr_ll'
I1
tp239
a(S'w'
I1
tp240
a(S'tr_lr'
I8
tp241
a(S'w'
I3
tp242
a(S'w'
I1
tp243
a(S'no_ll'
I17
tp244
a(S'w'
I2922
tp245
a(S'p2_cv'
I1
tp246
a(S'w'
I5
tp247
a(S'tr_lr'
I0
tp248
a(S'w'
I2929
tp249
a(S'p1_tl'
I252
tp250
a(S'p1_ll'
I1
tp251
a(S'w'
I5
tp252
a(S'p2_tl'
I212
tp253
a(S'p2_ll'
I1
tp254
a(S'w'
I1
tp255
a(S'p2_cv'
I0
tp256
a(S'w'
I4
tp257
a(S'tr_tl'
I126
tp258
a(S'tr_ll'
I1
tp259
a(S'w'
I1
tp260
a(S'tr_lr'
I8
tp261
a(S'w'
I3
tp262
a(S'no_cv'
I1
tp263
a(S'w'
I1
tp264
a(S'no_ll'
I3
tp265
a(S'w'
I2922
tp266
a(S'p2_cv'
I1
tp267
a(S'w'
I5
tp268
a(S'tr_lr'
I0
tp269
a(S'w'
I2929
tp270
a(S'p1_du'
I0
tp271
a(S'p1_cv'
I1
tp272
a(S'w'
I4
tp273
a(S'p2_tl'
I87
tp274
a(S'p2_ll'
I1
tp275
a(S'p2_th'
I3
tp276
a(S'w'
I1
tp277
a(S'p2_cv'
I0
tp278
a(S'w'
I8
tp279
a(S'no_cv'
I0
tp280
a(S'no_ll'
I17
tp281
a(S'w'
I2923
tp282
a(S'p2_cv'
I1
tp283
a(S'w'
I2933
tp284
a(S'p1_tl'
I252
tp285
a(S'p1_ll'
I1
tp286
a(S'w'
I1
tp287
a(S'p1_du'
I2
tp288
a(S'p1_cv'
I0
tp289
a(S'w'
I4
tp290
a(S'p2_tl'
I238
tp291
a(S'p2_ll'
I1
tp292
a(S'p2_th'
I0
tp293
a(S'w'
I1
tp294
a(S'p2_cv'
I0
tp295
a(S'w'
I4
tp296
a(S'tr_tl'
I141
tp297
a(S'tr_ll'
I1
tp298
a(S'w'
I1
tp299
a(S'tr_lr'
I8
tp300
a(S'w'
I3
tp301
a(S'no_np'
I10
tp302
a(S'w'
I1
tp303
a(S'no_ll'
I24
tp304
a(S'w'
I2922
tp305
a(S'p2_cv'
I1
tp306
a(S'w'
I5
tp307
a(S'tr_lr'
I0
tp308
a(S'w'
I2929
tp309
a(S'p1_du'
I0
tp310
a(S'p1_cv'
I1
tp311
a(S'w'
I1
tp312
a(S'no_cv'
I1
tp313
a(S'w'
I44027
tp314
a.