(lp1
(S'clock'
p2
I1789772
tp3
a(S'w'
I1
tp4
a(S'fc_mo'
I1
tp5
a(S'w'
I8
tp6
a(S'w'
I1
tp7
a(S'p1_cv'
I1
tp8
a(S'p2_cv'
I1
tp9
a(S'no_cv'
I1
tp10
a(S'w'
I11
tp11
a(S'p1_tl'
I28
tp12
a(S'p1_ll'
I1
tp13
a(S'p1_th'
I1
tp14
a(S'w'
I1
tp15
a(S'p1_du'
I2
tp16
a(S'p1_cv'
I0
tp17
a(S'p1_sp'
I7
tp18
a(S'p1_sn'
I1
tp19
a(S'p1_ss'
I7
tp20
a(S'w'
I5
tp21
a(S'p2_tl'
I124
tp22
a(S'p2_ll'
I1
tp23
a(S'p2_th'
I1
tp24
a(S'w'
I1
tp25
a(S'p2_du'
I2
tp26
a(S'p2_cv'
I0
tp27
a(S'p2_sp'
I7
tp28
a(S'p2_sn'
I1
tp29
a(S'p2_ss'
I7
tp30
a(S'w'
I4
tp31
a(S'tr_lr'
I40
tp32
a(S'w'
I2
tp33
a(S'tr_tl'
I112
tp34
a(S'tr_ll'
I1
tp35
a(S'w'
I1
tp36
a(S'w'
I4
tp37
a(S'no_cv'
I0
tp38
a(S'no_np'
I1
tp39
a(S'w'
I1
tp40
a(S'no_ll'
I17
tp41
a(S'w'
I8778
tp42
a(S'p1_tl'
I253
tp43
a(S'p1_ll'
I1
tp44
a(S'p1_th'
I0
tp45
a(S'w'
I5
tp46
a(S'p2_tl'
I82
tp47
a(S'p2_ll'
I1
tp48
a(S'w'
I5
tp49
a(S'tr_tl'
I99
tp50
a(S'tr_ll'
I1
tp51
a(S'w'
I4
tp52
a(S'w'
I1
tp53
a(S'no_ll'
I17
tp54
a(S'w'
I8790
tp55
a(S'tr_lr'
I0
tp56
a(S'w'
I1
tp57
a(S'p1_du'
I0
tp58
a(S'p1_cv'
I1
tp59
a(S'p2_du'
I0
tp60
a(S'p2_cv'
I1
tp61
a(S'w'
I1
tp62
a(S'no_cv'
I1
tp63
a(S'w'
I58151
tp64
a.