(lp1
(S'clock'
p2
I1789772
tp3
a(S'w'
I1
tp4
a(S'fc_mo'
I1
tp5
a(S'w'
I8
tp6
a(S'w'
I1
tp7
a(S'p1_cv'
I1
tp8
a(S'p2_cv'
I1
tp9
a(S'no_cv'
I1
tp10
a(S'w'
I11
tp11
a(S'p1_tl'
I252
tp12
a(S'p1_ll'
I1
tp13
a(S'p1_th'
I1
tp14
a(S'w'
I1
tp15
a(S'p1_du'
I2
tp16
a(S'p1_cv'
I0
tp17
a(S'p1_se'
I1
tp18
a(S'p1_ss'
I3
tp19
a(S'w'
I5
tp20
a(S'p2_tl'
I126
tp21
a(S'p2_ll'
I1
tp22
a(S'w'
I1
tp23
a(S'p2_cv'
I0
tp24
a(S'p2_sp'
I7
tp25
a(S'p2_sn'
I1
tp26
a(S'p2_ss'
I7
tp27
a(S'w'
I4
tp28
a(S'tr_lr'
I16
tp29
a(S'w'
I1
tp30
a(S'tr_tl'
I105
tp31
a(S'w'
I1
tp32
a(S'tr_ll'
I1
tp33
a(S'w'
I1
tp34
a(S'w'
I5
tp35
a(S'no_np'
I1
tp36
a(S'w'
I1
tp37
a(S'no_ll'
I3
tp38
a(S'w'
I4375
tp39
a(S'p2_tl'
I159
tp40
a(S'w'
I1
tp41
a(S'p2_ll'
I1
tp42
a(S'w'
I4
tp43
a(S'tr_tl'
I126
tp44
a(S'w'
I1
tp45
a(S'tr_ll'
I1
tp46
a(S'w'
I4
tp47
a(S'no_cv'
I0
tp48
a(S'no_ll'
I17
tp49
a(S'w'
I4394
tp50
a(S'p2_cv'
I1
tp51
a(S'w'
I5
tp52
a(S'tr_lr'
I0
tp53
a(S'w'
I3
tp54
a(S'w'
I1
tp55
a(S'no_ll'
I17
tp56
a(S'w'
I4393
tp57
a(S'p2_tl'
I212
tp58
a(S'w'
I1
tp59
a(S'p2_ll'
I1
tp60
a(S'p2_cv'
I0
tp61
a(S'w'
I4
tp62
a(S'tr_tl'
I159
tp63
a(S'w'
I1
tp64
a(S'tr_ll'
I1
tp65
a(S'tr_lr'
I16
tp66
a(S'w'
I4
tp67
a(S'no_cv'
I1
tp68
a(S'no_ll'
I3
tp69
a(S'w'
I4392
tp70
a(S'p1_tl'
I82
tp71
a(S'p1_ll'
I1
tp72
a(S'w'
I6
tp73
a(S'p2_cv'
I1
tp74
a(S'w'
I4
tp75
a(S'tr_lr'
I0
tp76
a(S'w'
I4
tp77
a(S'no_cv'
I0
tp78
a(S'no_np'
I10
tp79
a(S'no_ll'
I24
tp80
a(S'w'
I4389
tp81
a(S'p2_tl'
I159
tp82
a(S'w'
I1
tp83
a(S'p2_ll'
I1
tp84
a(S'p2_cv'
I0
tp85
a(S'w'
I4
tp86
a(S'tr_tl'
I126
tp87
a(S'w'
I1
tp88
a(S'tr_ll'
I1
tp89
a(S'tr_lr'
I16
tp90
a(S'w'
I4
tp91
a(S'no_np'
I1
tp92
a(S'no_ll'
I17
tp93
a(S'w'
I4394
tp94
a(S'p2_cv'
I1
tp95
a(S'w'
I5
tp96
a(S'tr_lr'
I0
tp97
a(S'w'
I3
tp98
a(S'w'
I1
tp99
a(S'no_ll'
I17
tp100
a(S'w'
I4393
tp101
a(S'p2_tl'
I212
tp102
a(S'w'
I1
tp103
a(S'p2_ll'
I1
tp104
a(S'p2_cv'
I0
tp105
a(S'w'
I4
tp106
a(S'tr_tl'
I159
tp107
a(S'w'
I1
tp108
a(S'tr_ll'
I1
tp109
a(S'tr_lr'
I16
tp110
a(S'w'
I4
tp111
a(S'no_cv'
I1
tp112
a(S'no_ll'
I3
tp113
a(S'w'
I4393
tp114
a(S'p1_tl'
I252
tp115
a(S'p1_ll'
I1
tp116
a(S'w'
I6
tp117
a(S'p2_tl'
I189
tp118
a(S'p2_ll'
I1
tp119
a(S'w'
I5
tp120
a(S'tr_lr'
I24
tp121
a(S'w'
I1
tp122
a(S'tr_tl'
I79
tp123
a(S'w'
I1
tp124
a(S'tr_ll'
I1
tp125
a(S'w'
I4
tp126
a(S'no_ll'
I3
tp127
a(S'w'
I4385
tp128
a(S'p1_du'
I0
tp129
a(S'p1_cv'
I1
tp130
a(S'w'
I6
tp131
a(S'no_cv'
I0
tp132
a(S'no_ll'
I17
tp133
a(S'w'
I1462
tp134
a(S'p2_tl'
I238
tp135
a(S'w'
I1
tp136
a(S'p2_ll'
I1
tp137
a(S'w'
I4
tp138
a(S'tr_tl'
I94
tp139
a(S'w'
I1
tp140
a(S'tr_ll'
I1
tp141
a(S'w'
I2935
tp142
a(S'no_ll'
I17
tp143
a(S'w'
I2929
tp144
a(S'p2_tl'
I63
tp145
a(S'w'
I1
tp146
a(S'p2_ll'
I1
tp147
a(S'p2_th'
I1
tp148
a(S'w'
I4
tp149
a(S'tr_tl'
I118
tp150
a(S'w'
I1
tp151
a(S'tr_ll'
I1
tp152
a(S'w'
I1468
tp153
a(S'no_ll'
I17
tp154
a(S'w'
I4396
tp155
a(S'p1_tl'
I82
tp156
a(S'p1_ll'
I1
tp157
a(S'w'
I1
tp158
a(S'p1_du'
I2
tp159
a(S'p1_cv'
I0
tp160
a(S'w'
I4
tp161
a(S'p2_tl'
I28
tp162
a(S'p2_ll'
I1
tp163
a(S'w'
I5
tp164
a(S'tr_tl'
I105
tp165
a(S'tr_ll'
I1
tp166
a(S'w'
I4
tp167
a(S'no_np'
I10
tp168
a(S'w'
I1
tp169
a(S'no_ll'
I24
tp170
a(S'w'
I4388
tp171
a(S'p1_du'
I0
tp172
a(S'p1_cv'
I1
tp173
a(S'w'
I6
tp174
a(S'no_cv'
I1
tp175
a(S'no_np'
I1
tp176
a(S'no_ll'
I3
tp177
a(S'w'
I1462
tp178
a(S'p2_tl'
I212
tp179
a(S'w'
I1
tp180
a(S'p2_ll'
I1
tp181
a(S'p2_th'
I0
tp182
a(S'w'
I4
tp183
a(S'tr_tl'
I83
tp184
a(S'w'
I1
tp185
a(S'tr_ll'
I1
tp186
a(S'w'
I2935
tp187
a(S'no_cv'
I0
tp188
a(S'no_ll'
I17
tp189
a(S'w'
I2929
tp190
a(S'p2_tl'
I168
tp191
a(S'w'
I1
tp192
a(S'p2_ll'
I1
tp193
a(S'w'
I4
tp194
a(S'tr_tl'
I70
tp195
a(S'w'
I1
tp196
a(S'tr_ll'
I1
tp197
a(S'w'
I1461
tp198
a(S'p1_tl'
I171
tp199
a(S'p1_ll'
I1
tp200
a(S'w'
I1
tp201
a(S'p1_du'
I2
tp202
a(S'p1_cv'
I0
tp203
a(S'w'
I6
tp204
a(S'w'
I1
tp205
a(S'no_ll'
I17
tp206
a(S'w'
I4395
tp207
a(S'p1_tl'
I252
tp208
a(S'p1_ll'
I1
tp209
a(S'w'
I6
tp210
a(S'p2_tl'
I126
tp211
a(S'p2_ll'
I1
tp212
a(S'w'
I5
tp213
a(S'tr_lr'
I16
tp214
a(S'w'
I1
tp215
a(S'tr_tl'
I105
tp216
a(S'w'
I1
tp217
a(S'tr_ll'
I1
tp218
a(S'w'
I6
tp219
a(S'no_cv'
I1
tp220
a(S'w'
I1
tp221
a(S'no_ll'
I3
tp222
a(S'w'
I4383
tp223
a(S'p1_du'
I0
tp224
a(S'p1_cv'
I1
tp225
a(S'w'
I4
tp226
a(S'p2_tl'
I159
tp227
a(S'p2_ll'
I1
tp228
a(S'w'
I5
tp229
a(S'tr_tl'
I126
tp230
a(S'tr_ll'
I1
tp231
a(S'w'
I4
tp232
a(S'no_cv'
I0
tp233
a(S'no_ll'
I17
tp234
a(S'w'
I4394
tp235
a(S'p2_cv'
I1
tp236
a(S'w'
I5
tp237
a(S'tr_lr'
I0
tp238
a(S'w'
I4
tp239
a(S'no_ll'
I17
tp240
a(S'w'
I4394
tp241
a(S'p2_tl'
I212
tp242
a(S'p2_ll'
I1
tp243
a(S'w'
I1
tp244
a(S'p2_cv'
I0
tp245
a(S'w'
I4
tp246
a(S'tr_tl'
I159
tp247
a(S'tr_ll'
I1
tp248
a(S'w'
I1
tp249
a(S'tr_lr'
I16
tp250
a(S'w'
I3
tp251
a(S'no_cv'
I1
tp252
a(S'no_ll'
I3
tp253
a(S'w'
I4389
tp254
a(S'p1_tl'
I82
tp255
a(S'p1_ll'
I1
tp256
a(S'w'
I1
tp257
a(S'p1_du'
I2
tp258
a(S'p1_cv'
I0
tp259
a(S'w'
I5
tp260
a(S'p2_cv'
I1
tp261
a(S'w'
I4
tp262
a(S'tr_lr'
I0
tp263
a(S'w'
I4
tp264
a(S'no_cv'
I0
tp265
a(S'no_np'
I10
tp266
a(S'no_ll'
I24
tp267
a(S'w'
I4389
tp268
a(S'p1_du'
I0
tp269
a(S'p1_cv'
I1
tp270
a(S'w'
I4
tp271
a(S'p2_tl'
I159
tp272
a(S'p2_ll'
I1
tp273
a(S'w'
I1
tp274
a(S'p2_cv'
I0
tp275
a(S'w'
I4
tp276
a(S'tr_tl'
I126
tp277
a(S'tr_ll'
I1
tp278
a(S'w'
I1
tp279
a(S'tr_lr'
I16
tp280
a(S'w'
I3
tp281
a(S'no_np'
I1
tp282
a(S'no_ll'
I17
tp283
a(S'w'
I4394
tp284
a(S'p2_cv'
I1
tp285
a(S'w'
I5
tp286
a(S'tr_lr'
I0
tp287
a(S'w'
I4
tp288
a(S'no_ll'
I17
tp289
a(S'w'
I4389
tp290
a(S'p1_tl'
I171
tp291
a(S'p1_ll'
I1
tp292
a(S'w'
I1
tp293
a(S'p1_du'
I2
tp294
a(S'p1_cv'
I0
tp295
a(S'w'
I4
tp296
a(S'p2_tl'
I212
tp297
a(S'p2_ll'
I1
tp298
a(S'w'
I1
tp299
a(S'p2_cv'
I0
tp300
a(S'w'
I4
tp301
a(S'tr_tl'
I159
tp302
a(S'tr_ll'
I1
tp303
a(S'w'
I1
tp304
a(S'tr_lr'
I16
tp305
a(S'w'
I3
tp306
a(S'no_cv'
I1
tp307
a(S'w'
I1
tp308
a(S'no_ll'
I3
tp309
a(S'w'
I4389
tp310
a(S'p1_tl'
I252
tp311
a(S'p1_ll'
I1
tp312
a(S'w'
I6
tp313
a(S'p2_tl'
I141
tp314
a(S'p2_ll'
I1
tp315
a(S'w'
I6
tp316
a(S'tr_tl'
I118
tp317
a(S'w'
I1
tp318
a(S'tr_ll'
I1
tp319
a(S'w'
I4
tp320
a(S'no_ll'
I3
tp321
a(S'w'
I4385
tp322
a(S'p2_tl'
I126
tp323
a(S'w'
I1
tp324
a(S'p2_ll'
I1
tp325
a(S'w'
I4
tp326
a(S'tr_tl'
I105
tp327
a(S'w'
I1
tp328
a(S'tr_ll'
I1
tp329
a(S'w'
I4
tp330
a(S'no_cv'
I0
tp331
a(S'no_ll'
I17
tp332
a(S'w'
I4392
tp333
a(S'p1_tl'
I252
tp334
a(S'p1_ll'
I1
tp335
a(S'w'
I5
tp336
a(S'p2_tl'
I118
tp337
a(S'p2_ll'
I1
tp338
a(S'w'
I5
tp339
a(S'tr_tl'
I94
tp340
a(S'tr_ll'
I1
tp341
a(S'w'
I4
tp342
a(S'w'
I1
tp343
a(S'no_ll'
I17
tp344
a(S'w'
I4389
tp345
a(S'p2_tl'
I105
tp346
a(S'w'
I1
tp347
a(S'p2_ll'
I1
tp348
a(S'w'
I4
tp349
a(S'tr_tl'
I83
tp350
a(S'w'
I1
tp351
a(S'tr_ll'
I1
tp352
a(S'w'
I4
tp353
a(S'no_ll'
I17
tp354
a(S'w'
I4392
tp355
a(S'p1_tl'
I252
tp356
a(S'p1_ll'
I1
tp357
a(S'w'
I5
tp358
a(S'p2_tl'
I126
tp359
a(S'p2_ll'
I1
tp360
a(S'w'
I5
tp361
a(S'tr_tl'
I79
tp362
a(S'tr_ll'
I1
tp363
a(S'w'
I4
tp364
a(S'no_np'
I10
tp365
a(S'w'
I1
tp366
a(S'no_ll'
I24
tp367
a(S'w'
I4388
tp368
a(S'tr_lr'
I0
tp369
a(S'w'
I1
tp370
a(S'p1_du'
I0
tp371
a(S'p1_cv'
I1
tp372
a(S'p2_cv'
I1
tp373
a(S'no_cv'
I1
tp374
a(S'w'
I42290
tp375
a.