(lp1
(S'clock'
p2
I1789772
tp3
a(S'p1_du'
I2
tp4
a(S'p1_lh'
I1
tp5
a(S'p1_cv'
I1
tp6
a(S'p2_du'
I2
tp7
a(S'p2_lh'
I1
tp8
a(S'p2_cv'
I1
tp9
a(S'tr_lh'
I1
tp10
a(S'no_lh'
I1
tp11
a(S'no_cv'
I1
tp12
a(S'ch_no'
I1
tp13
a(S'ch_tr'
I1
tp14
a(S'ch_p2'
I1
tp15
a(S'ch_p1'
I1
tp16
a(S'fc_mo'
I1
tp17
a(S'p1_tl'
I29
tp18
a(S'p1_ll'
I31
tp19
a(S'p1_th'
I1
tp20
a(S'w'
I2
tp21
a(S'p1_vo'
I10
tp22
a(S'w'
I13
tp23
a(S'p2_tl'
I83
tp24
a(S'w'
I1
tp25
a(S'p2_ll'
I31
tp26
a(S'p2_th'
I1
tp27
a(S'w'
I2
tp28
a(S'p2_vo'
I10
tp29
a(S'w'
I8
tp30
a(S'tr_lh'
I0
tp31
a(S'w'
I5
tp32
a(S'w'
I694
tp33
a(S'p1_vo'
I7
tp34
a(S'w'
I4
tp35
a(S'p2_vo'
I7
tp36
a(S'w'
I730
tp37
a(S'p1_vo'
I5
tp38
a(S'w'
I4
tp39
a(S'p2_vo'
I5
tp40
a(S'w'
I1464
tp41
a(S'p1_vo'
I4
tp42
a(S'w'
I4
tp43
a(S'p2_vo'
I4
tp44
a(S'w'
I2930
tp45
a(S'p1_vo'
I0
tp46
a(S'w'
I4
tp47
a(S'p2_vo'
I0
tp48
a(S'w'
I5868
tp49
a(S'p1_ll'
I31
tp50
a(S'w'
I3
tp51
a(S'p1_vo'
I10
tp52
a(S'w'
I6
tp53
a(S'p2_ll'
I31
tp54
a(S'w'
I2
tp55
a(S'p2_vo'
I10
tp56
a(S'w'
I722
tp57
a(S'p1_vo'
I7
tp58
a(S'w'
I4
tp59
a(S'p2_vo'
I7
tp60
a(S'w'
I730
tp61
a(S'p1_vo'
I5
tp62
a(S'w'
I4
tp63
a(S'p2_vo'
I5
tp64
a(S'w'
I1463
tp65
a(S'p1_vo'
I4
tp66
a(S'w'
I4
tp67
a(S'p2_vo'
I4
tp68
a(S'w'
I2931
tp69
a(S'p1_vo'
I0
tp70
a(S'w'
I4
tp71
a(S'p2_vo'
I0
tp72
a(S'w'
I5868
tp73
a(S'p1_tl'
I46
tp74
a(S'p1_ll'
I31
tp75
a(S'w'
I3
tp76
a(S'p1_vo'
I10
tp77
a(S'w'
I5
tp78
a(S'p2_tl'
I125
tp79
a(S'w'
I1
tp80
a(S'p2_ll'
I31
tp81
a(S'w'
I2
tp82
a(S'p2_vo'
I10
tp83
a(S'w'
I722
tp84
a(S'p1_vo'
I7
tp85
a(S'w'
I4
tp86
a(S'p2_vo'
I7
tp87
a(S'w'
I730
tp88
a(S'p1_vo'
I5
tp89
a(S'w'
I4
tp90
a(S'p2_vo'
I5
tp91
a(S'w'
I1463
tp92
a(S'p1_vo'
I4
tp93
a(S'w'
I4
tp94
a(S'p2_vo'
I4
tp95
a(S'w'
I2932
tp96
a(S'p1_tl'
I29
tp97
a(S'w'
I1
tp98
a(S'p1_ll'
I31
tp99
a(S'w'
I2
tp100
a(S'p1_vo'
I10
tp101
a(S'w'
I6
tp102
a(S'p2_tl'
I83
tp103
a(S'p2_ll'
I31
tp104
a(S'w'
I3
tp105
a(S'p2_vo'
I10
tp106
a(S'w'
I721
tp107
a(S'p1_vo'
I7
tp108
a(S'w'
I4
tp109
a(S'p2_vo'
I7
tp110
a(S'w'
I730
tp111
a(S'p1_vo'
I5
tp112
a(S'w'
I4
tp113
a(S'p2_vo'
I5
tp114
a(S'w'
I1464
tp115
a(S'p1_vo'
I4
tp116
a(S'w'
I4
tp117
a(S'p2_vo'
I4
tp118
a(S'w'
I2930
tp119
a(S'p1_vo'
I0
tp120
a(S'w'
I5
tp121
a(S'p2_vo'
I0
tp122
a(S'w'
I5867
tp123
a(S'p1_tl'
I254
tp124
a(S'w'
I1
tp125
a(S'p1_ll'
I31
tp126
a(S'p1_th'
I0
tp127
a(S'w'
I2
tp128
a(S'p1_vo'
I10
tp129
a(S'w'
I6
tp130
a(S'p2_tl'
I46
tp131
a(S'p2_ll'
I31
tp132
a(S'w'
I2
tp133
a(S'p2_vo'
I10
tp134
a(S'w'
I722
tp135
a(S'p1_vo'
I7
tp136
a(S'w'
I4
tp137
a(S'p2_vo'
I7
tp138
a(S'w'
I730
tp139
a(S'p1_vo'
I5
tp140
a(S'w'
I4
tp141
a(S'p2_vo'
I5
tp142
a(S'w'
I1464
tp143
a(S'p1_vo'
I4
tp144
a(S'w'
I4
tp145
a(S'p2_vo'
I4
tp146
a(S'w'
I2930
tp147
a(S'p1_vo'
I0
tp148
a(S'w'
I4
tp149
a(S'p2_vo'
I0
tp150
a(S'w'
I5869
tp151
a(S'p1_tl'
I226
tp152
a(S'w'
I1
tp153
a(S'p1_ll'
I31
tp154
a(S'w'
I2
tp155
a(S'p1_vo'
I10
tp156
a(S'w'
I7
tp157
a(S'p2_tl'
I29
tp158
a(S'p2_ll'
I31
tp159
a(S'w'
I3
tp160
a(S'p2_vo'
I10
tp161
a(S'w'
I719
tp162
a(S'p1_vo'
I7
tp163
a(S'w'
I4
tp164
a(S'p2_vo'
I7
tp165
a(S'w'
I730
tp166
a(S'p1_vo'
I5
tp167
a(S'w'
I4
tp168
a(S'p2_vo'
I5
tp169
a(S'w'
I1463
tp170
a(S'p1_vo'
I4
tp171
a(S'w'
I4
tp172
a(S'p2_vo'
I4
tp173
a(S'w'
I20543
tp174
a(S'p1_vo'
I0
tp175
a(S'w'
I6
tp176
a(S'p2_vo'
I0
tp177
a(S'w'
I5866
tp178
a(S'p1_tl'
I46
tp179
a(S'w'
I1
tp180
a(S'p1_ll'
I31
tp181
a(S'p1_th'
I1
tp182
a(S'w'
I2
tp183
a(S'p1_vo'
I10
tp184
a(S'w'
I7
tp185
a(S'p2_tl'
I125
tp186
a(S'p2_ll'
I31
tp187
a(S'w'
I3
tp188
a(S'p2_vo'
I10
tp189
a(S'w'
I719
tp190
a(S'p1_vo'
I7
tp191
a(S'w'
I4
tp192
a(S'p2_vo'
I7
tp193
a(S'w'
I730
tp194
a(S'p1_vo'
I5
tp195
a(S'w'
I4
tp196
a(S'p2_vo'
I5
tp197
a(S'w'
I1463
tp198
a(S'p1_vo'
I4
tp199
a(S'w'
I4
tp200
a(S'p2_vo'
I4
tp201
a(S'w'
I8804
tp202
a(S'p1_tl'
I29
tp203
a(S'p1_ll'
I31
tp204
a(S'w'
I3
tp205
a(S'p1_vo'
I10
tp206
a(S'w'
I7
tp207
a(S'p2_tl'
I83
tp208
a(S'p2_ll'
I31
tp209
a(S'w'
I2
tp210
a(S'p2_vo'
I10
tp211
a(S'w'
I720
tp212
a(S'p1_vo'
I7
tp213
a(S'w'
I4
tp214
a(S'p2_vo'
I7
tp215
a(S'w'
I730
tp216
a(S'p1_vo'
I5
tp217
a(S'w'
I4
tp218
a(S'p2_vo'
I5
tp219
a(S'w'
I1463
tp220
a(S'p1_vo'
I4
tp221
a(S'w'
I4
tp222
a(S'p2_vo'
I4
tp223
a(S'w'
I2931
tp224
a(S'p1_vo'
I0
tp225
a(S'w'
I4
tp226
a(S'p2_vo'
I0
tp227
a(S'w'
I5868
tp228
a(S'p1_ll'
I31
tp229
a(S'w'
I2
tp230
a(S'p1_vo'
I10
tp231
a(S'w'
I6
tp232
a(S'w'
I1
tp233
a(S'p2_ll'
I31
tp234
a(S'w'
I2
tp235
a(S'p2_vo'
I10
tp236
a(S'w'
I722
tp237
a(S'p1_vo'
I7
tp238
a(S'w'
I4
tp239
a(S'p2_vo'
I7
tp240
a(S'w'
I729
tp241
a(S'p1_vo'
I5
tp242
a(S'w'
I4
tp243
a(S'p2_vo'
I5
tp244
a(S'w'
I1464
tp245
a(S'p1_vo'
I4
tp246
a(S'w'
I4
tp247
a(S'p2_vo'
I4
tp248
a(S'w'
I2931
tp249
a(S'p1_vo'
I0
tp250
a(S'w'
I4
tp251
a(S'p2_vo'
I0
tp252
a(S'w'
I5868
tp253
a(S'p1_tl'
I46
tp254
a(S'p1_ll'
I31
tp255
a(S'w'
I2
tp256
a(S'p1_vo'
I10
tp257
a(S'w'
I6
tp258
a(S'p2_tl'
I125
tp259
a(S'p2_ll'
I31
tp260
a(S'w'
I3
tp261
a(S'p2_vo'
I10
tp262
a(S'w'
I721
tp263
a(S'p1_vo'
I7
tp264
a(S'w'
I4
tp265
a(S'p2_vo'
I7
tp266
a(S'w'
I730
tp267
a(S'p1_vo'
I5
tp268
a(S'w'
I4
tp269
a(S'p2_vo'
I5
tp270
a(S'w'
I1464
tp271
a(S'p1_vo'
I4
tp272
a(S'w'
I4
tp273
a(S'p2_vo'
I4
tp274
a(S'w'
I2932
tp275
a(S'p1_tl'
I29
tp276
a(S'p1_ll'
I31
tp277
a(S'w'
I3
tp278
a(S'p1_vo'
I10
tp279
a(S'w'
I5
tp280
a(S'p2_tl'
I83
tp281
a(S'w'
I1
tp282
a(S'p2_ll'
I31
tp283
a(S'w'
I2
tp284
a(S'p2_vo'
I10
tp285
a(S'w'
I722
tp286
a(S'p1_vo'
I7
tp287
a(S'w'
I4
tp288
a(S'p2_vo'
I7
tp289
a(S'w'
I730
tp290
a(S'p1_vo'
I5
tp291
a(S'w'
I4
tp292
a(S'p2_vo'
I5
tp293
a(S'w'
I1463
tp294
a(S'p1_vo'
I4
tp295
a(S'w'
I4
tp296
a(S'p2_vo'
I4
tp297
a(S'w'
I2931
tp298
a(S'p1_vo'
I0
tp299
a(S'w'
I4
tp300
a(S'p2_vo'
I0
tp301
a(S'w'
I5868
tp302
a(S'p1_tl'
I254
tp303
a(S'p1_ll'
I31
tp304
a(S'p1_th'
I0
tp305
a(S'w'
I3
tp306
a(S'p1_vo'
I10
tp307
a(S'w'
I5
tp308
a(S'p2_tl'
I46
tp309
a(S'w'
I1
tp310
a(S'p2_ll'
I31
tp311
a(S'w'
I2
tp312
a(S'p2_vo'
I10
tp313
a(S'w'
I722
tp314
a(S'p1_vo'
I7
tp315
a(S'w'
I4
tp316
a(S'p2_vo'
I7
tp317
a(S'w'
I729
tp318
a(S'p1_vo'
I5
tp319
a(S'w'
I5
tp320
a(S'p2_vo'
I5
tp321
a(S'w'
I1463
tp322
a(S'p1_vo'
I4
tp323
a(S'w'
I4
tp324
a(S'p2_vo'
I4
tp325
a(S'w'
I2931
tp326
a(S'p1_vo'
I0
tp327
a(S'w'
I4
tp328
a(S'p2_vo'
I0
tp329
a(S'w'
I5869
tp330
a(S'p1_tl'
I125
tp331
a(S'p1_ll'
I31
tp332
a(S'p1_th'
I1
tp333
a(S'w'
I3
tp334
a(S'p1_vo'
I10
tp335
a(S'w'
I6
tp336
a(S'p2_tl'
I197
tp337
a(S'w'
I1
tp338
a(S'p2_ll'
I31
tp339
a(S'w'
I2
tp340
a(S'p2_vo'
I10
tp341
a(S'w'
I720
tp342
a(S'p1_vo'
I7
tp343
a(S'w'
I4
tp344
a(S'p2_vo'
I7
tp345
a(S'w'
I729
tp346
a(S'p1_vo'
I5
tp347
a(S'w'
I4
tp348
a(S'p2_vo'
I5
tp349
a(S'w'
I1464
tp350
a(S'p1_vo'
I4
tp351
a(S'w'
I4
tp352
a(S'p2_vo'
I4
tp353
a(S'w'
I20543
tp354
a(S'p1_vo'
I0
tp355
a(S'w'
I5
tp356
a(S'p2_vo'
I0
tp357
a(S'w'
I5867
tp358
a(S'p1_tl'
I46
tp359
a(S'p1_ll'
I31
tp360
a(S'w'
I3
tp361
a(S'p1_vo'
I10
tp362
a(S'w'
I7
tp363
a(S'p2_tl'
I125
tp364
a(S'p2_ll'
I31
tp365
a(S'w'
I2
tp366
a(S'p2_vo'
I10
tp367
a(S'w'
I720
tp368
a(S'p1_vo'
I7
tp369
a(S'w'
I4
tp370
a(S'p2_vo'
I7
tp371
a(S'w'
I729
tp372
a(S'p1_vo'
I5
tp373
a(S'w'
I4
tp374
a(S'p2_vo'
I5
tp375
a(S'w'
I1464
tp376
a(S'p1_vo'
I4
tp377
a(S'w'
I4
tp378
a(S'p2_vo'
I4
tp379
a(S'w'
I8804
tp380
a(S'p1_tl'
I29
tp381
a(S'p1_ll'
I31
tp382
a(S'w'
I2
tp383
a(S'p1_vo'
I10
tp384
a(S'w'
I7
tp385
a(S'p2_tl'
I83
tp386
a(S'w'
I1
tp387
a(S'p2_ll'
I31
tp388
a(S'w'
I2
tp389
a(S'p2_vo'
I10
tp390
a(S'w'
I719
tp391
a(S'p1_vo'
I7
tp392
a(S'w'
I4
tp393
a(S'p2_vo'
I7
tp394
a(S'w'
I730
tp395
a(S'p1_vo'
I5
tp396
a(S'w'
I4
tp397
a(S'p2_vo'
I5
tp398
a(S'w'
I1464
tp399
a(S'p1_vo'
I4
tp400
a(S'w'
I4
tp401
a(S'p2_vo'
I4
tp402
a(S'w'
I2930
tp403
a(S'p1_vo'
I0
tp404
a(S'w'
I5
tp405
a(S'p2_vo'
I0
tp406
a(S'w'
I5867
tp407
a(S'w'
I1
tp408
a(S'p1_ll'
I31
tp409
a(S'w'
I2
tp410
a(S'p1_vo'
I10
tp411
a(S'w'
I6
tp412
a(S'p2_ll'
I31
tp413
a(S'w'
I2
tp414
a(S'p2_vo'
I10
tp415
a(S'w'
I722
tp416
a(S'p1_vo'
I7
tp417
a(S'w'
I4
tp418
a(S'p2_vo'
I7
tp419
a(S'w'
I730
tp420
a(S'p1_vo'
I5
tp421
a(S'w'
I4
tp422
a(S'p2_vo'
I5
tp423
a(S'w'
I1464
tp424
a(S'p1_vo'
I4
tp425
a(S'w'
I4
tp426
a(S'p2_vo'
I4
tp427
a(S'w'
I2930
tp428
a(S'p1_vo'
I0
tp429
a(S'w'
I5
tp430
a(S'p2_vo'
I0
tp431
a(S'w'
I5867
tp432
a(S'p1_tl'
I46
tp433
a(S'p1_ll'
I31
tp434
a(S'w'
I3
tp435
a(S'p1_vo'
I10
tp436
a(S'w'
I6
tp437
a(S'p2_tl'
I125
tp438
a(S'p2_ll'
I31
tp439
a(S'w'
I2
tp440
a(S'p2_vo'
I10
tp441
a(S'w'
I722
tp442
a(S'p1_vo'
I7
tp443
a(S'w'
I4
tp444
a(S'p2_vo'
I7
tp445
a(S'w'
I730
tp446
a(S'p1_vo'
I5
tp447
a(S'w'
I4
tp448
a(S'p2_vo'
I5
tp449
a(S'w'
I1463
tp450
a(S'p1_vo'
I4
tp451
a(S'w'
I4
tp452
a(S'p2_vo'
I4
tp453
a(S'w'
I2933
tp454
a(S'p1_tl'
I29
tp455
a(S'p1_ll'
I31
tp456
a(S'w'
I2
tp457
a(S'p1_vo'
I10
tp458
a(S'w'
I6
tp459
a(S'p2_tl'
I83
tp460
a(S'p2_ll'
I31
tp461
a(S'w'
I3
tp462
a(S'p2_vo'
I10
tp463
a(S'w'
I721
tp464
a(S'p1_vo'
I7
tp465
a(S'w'
I4
tp466
a(S'p2_vo'
I7
tp467
a(S'w'
I730
tp468
a(S'p1_vo'
I5
tp469
a(S'w'
I4
tp470
a(S'p2_vo'
I5
tp471
a(S'w'
I1464
tp472
a(S'p1_vo'
I4
tp473
a(S'w'
I4
tp474
a(S'p2_vo'
I4
tp475
a(S'w'
I2931
tp476
a(S'p1_vo'
I0
tp477
a(S'w'
I4
tp478
a(S'p2_vo'
I0
tp479
a(S'w'
I5867
tp480
a(S'p1_tl'
I254
tp481
a(S'w'
I1
tp482
a(S'p1_ll'
I31
tp483
a(S'p1_th'
I0
tp484
a(S'w'
I2
tp485
a(S'p1_vo'
I10
tp486
a(S'w'
I6
tp487
a(S'p2_tl'
I46
tp488
a(S'p2_ll'
I31
tp489
a(S'w'
I2
tp490
a(S'p2_vo'
I10
tp491
a(S'w'
I722
tp492
a(S'p1_vo'
I7
tp493
a(S'w'
I4
tp494
a(S'p2_vo'
I7
tp495
a(S'w'
I730
tp496
a(S'p1_vo'
I5
tp497
a(S'w'
I4
tp498
a(S'p2_vo'
I5
tp499
a(S'w'
I1464
tp500
a(S'p1_vo'
I4
tp501
a(S'w'
I4
tp502
a(S'p2_vo'
I4
tp503
a(S'w'
I2930
tp504
a(S'p1_vo'
I0
tp505
a(S'w'
I5
tp506
a(S'p2_vo'
I0
tp507
a(S'w'
I5868
tp508
a(S'p1_tl'
I226
tp509
a(S'w'
I1
tp510
a(S'p1_ll'
I31
tp511
a(S'w'
I2
tp512
a(S'p1_vo'
I10
tp513
a(S'w'
I7
tp514
a(S'p2_tl'
I29
tp515
a(S'p2_ll'
I31
tp516
a(S'w'
I3
tp517
a(S'p2_vo'
I10
tp518
a(S'w'
I719
tp519
a(S'p1_vo'
I7
tp520
a(S'w'
I4
tp521
a(S'p2_vo'
I7
tp522
a(S'w'
I730
tp523
a(S'p1_vo'
I5
tp524
a(S'w'
I4
tp525
a(S'p2_vo'
I5
tp526
a(S'w'
I1464
tp527
a(S'p1_vo'
I4
tp528
a(S'w'
I4
tp529
a(S'p2_vo'
I4
tp530
a(S'w'
I20543
tp531
a(S'p1_vo'
I0
tp532
a(S'w'
I5
tp533
a(S'p2_vo'
I0
tp534
a(S'w'
I5866
tp535
a(S'p1_tl'
I46
tp536
a(S'w'
I1
tp537
a(S'p1_ll'
I31
tp538
a(S'p1_th'
I1
tp539
a(S'w'
I2
tp540
a(S'p1_vo'
I10
tp541
a(S'w'
I7
tp542
a(S'p2_tl'
I125
tp543
a(S'p2_ll'
I31
tp544
a(S'w'
I3
tp545
a(S'p2_vo'
I10
tp546
a(S'w'
I719
tp547
a(S'p1_vo'
I7
tp548
a(S'w'
I4
tp549
a(S'p2_vo'
I7
tp550
a(S'w'
I730
tp551
a(S'p1_vo'
I5
tp552
a(S'w'
I4
tp553
a(S'p2_vo'
I5
tp554
a(S'w'
I1464
tp555
a(S'p1_vo'
I4
tp556
a(S'w'
I4
tp557
a(S'p2_vo'
I4
tp558
a(S'w'
I8803
tp559
a(S'p1_tl'
I29
tp560
a(S'w'
I1
tp561
a(S'p1_ll'
I31
tp562
a(S'w'
I2
tp563
a(S'p1_vo'
I10
tp564
a(S'w'
I7
tp565
a(S'p2_tl'
I83
tp566
a(S'p2_ll'
I31
tp567
a(S'w'
I3
tp568
a(S'p2_vo'
I10
tp569
a(S'w'
I719
tp570
a(S'p1_vo'
I7
tp571
a(S'w'
I4
tp572
a(S'p2_vo'
I7
tp573
a(S'w'
I730
tp574
a(S'p1_vo'
I5
tp575
a(S'w'
I4
tp576
a(S'p2_vo'
I5
tp577
a(S'w'
I1463
tp578
a(S'p1_vo'
I4
tp579
a(S'w'
I4
tp580
a(S'p2_vo'
I4
tp581
a(S'w'
I2931
tp582
a(S'p1_vo'
I0
tp583
a(S'w'
I4
tp584
a(S'p2_vo'
I0
tp585
a(S'w'
I5868
tp586
a(S'p1_ll'
I31
tp587
a(S'w'
I3
tp588
a(S'p1_vo'
I10
tp589
a(S'w'
I5
tp590
a(S'w'
I1
tp591
a(S'p2_ll'
I31
tp592
a(S'w'
I2
tp593
a(S'p2_vo'
I10
tp594
a(S'w'
I722
tp595
a(S'p1_vo'
I7
tp596
a(S'w'
I4
tp597
a(S'p2_vo'
I7
tp598
a(S'w'
I730
tp599
a(S'p1_vo'
I5
tp600
a(S'w'
I4
tp601
a(S'p2_vo'
I5
tp602
a(S'w'
I1463
tp603
a(S'p1_vo'
I4
tp604
a(S'w'
I4
tp605
a(S'p2_vo'
I4
tp606
a(S'w'
I2931
tp607
a(S'p1_vo'
I0
tp608
a(S'w'
I4
tp609
a(S'p2_vo'
I0
tp610
a(S'w'
I5868
tp611
a(S'p1_tl'
I46
tp612
a(S'p1_ll'
I31
tp613
a(S'w'
I2
tp614
a(S'p1_vo'
I10
tp615
a(S'w'
I6
tp616
a(S'p2_tl'
I125
tp617
a(S'p2_ll'
I31
tp618
a(S'w'
I3
tp619
a(S'p2_vo'
I10
tp620
a(S'w'
I722
tp621
a(S'p1_vo'
I7
tp622
a(S'w'
I4
tp623
a(S'p2_vo'
I7
tp624
a(S'w'
I729
tp625
a(S'p1_vo'
I5
tp626
a(S'w'
I4
tp627
a(S'p2_vo'
I5
tp628
a(S'w'
I1464
tp629
a(S'p1_vo'
I4
tp630
a(S'w'
I4
tp631
a(S'p2_vo'
I4
tp632
a(S'w'
I2932
tp633
a(S'p1_tl'
I29
tp634
a(S'p1_ll'
I31
tp635
a(S'w'
I3
tp636
a(S'p1_vo'
I10
tp637
a(S'w'
I6
tp638
a(S'p2_tl'
I83
tp639
a(S'p2_ll'
I31
tp640
a(S'w'
I2
tp641
a(S'p2_vo'
I10
tp642
a(S'w'
I722
tp643
a(S'p1_vo'
I7
tp644
a(S'w'
I4
tp645
a(S'p2_vo'
I7
tp646
a(S'w'
I730
tp647
a(S'p1_vo'
I5
tp648
a(S'w'
I4
tp649
a(S'p2_vo'
I5
tp650
a(S'w'
I1463
tp651
a(S'p1_vo'
I4
tp652
a(S'w'
I4
tp653
a(S'p2_vo'
I4
tp654
a(S'w'
I2931
tp655
a(S'p1_vo'
I0
tp656
a(S'w'
I4
tp657
a(S'p2_vo'
I0
tp658
a(S'w'
I5868
tp659
a(S'p1_tl'
I254
tp660
a(S'p1_ll'
I31
tp661
a(S'p1_th'
I0
tp662
a(S'w'
I3
tp663
a(S'p1_vo'
I10
tp664
a(S'w'
I5
tp665
a(S'p2_tl'
I46
tp666
a(S'w'
I1
tp667
a(S'p2_ll'
I31
tp668
a(S'w'
I2
tp669
a(S'p2_vo'
I10
tp670
a(S'w'
I722
tp671
a(S'p1_vo'
I7
tp672
a(S'w'
I4
tp673
a(S'p2_vo'
I7
tp674
a(S'w'
I730
tp675
a(S'p1_vo'
I5
tp676
a(S'w'
I4
tp677
a(S'p2_vo'
I5
tp678
a(S'w'
I1463
tp679
a(S'p1_vo'
I4
tp680
a(S'w'
I4
tp681
a(S'p2_vo'
I4
tp682
a(S'w'
I2931
tp683
a(S'p1_vo'
I0
tp684
a(S'w'
I4
tp685
a(S'p2_vo'
I0
tp686
a(S'w'
I5868
tp687
a(S'p1_tl'
I226
tp688
a(S'p1_ll'
I31
tp689
a(S'w'
I3
tp690
a(S'p1_vo'
I10
tp691
a(S'w'
I5
tp692
a(S'p2_tl'
I29
tp693
a(S'w'
I1
tp694
a(S'p2_ll'
I31
tp695
a(S'w'
I2
tp696
a(S'p2_vo'
I10
tp697
a(S'w'
I722
tp698
a(S'p1_vo'
I7
tp699
a(S'w'
I4
tp700
a(S'p2_vo'
I7
tp701
a(S'w'
I730
tp702
a(S'p1_vo'
I5
tp703
a(S'w'
I4
tp704
a(S'p2_vo'
I5
tp705
a(S'w'
I1463
tp706
a(S'p1_vo'
I4
tp707
a(S'w'
I4
tp708
a(S'p2_vo'
I4
tp709
a(S'w'
I2933
tp710
a(S'p1_tl'
I202
tp711
a(S'w'
I1
tp712
a(S'p1_ll'
I31
tp713
a(S'w'
I2
tp714
a(S'p1_vo'
I10
tp715
a(S'w'
I7
tp716
a(S'p2_tl'
I254
tp717
a(S'p2_ll'
I31
tp718
a(S'p2_th'
I0
tp719
a(S'w'
I3
tp720
a(S'p2_vo'
I10
tp721
a(S'w'
I719
tp722
a(S'p1_vo'
I7
tp723
a(S'w'
I4
tp724
a(S'p2_vo'
I7
tp725
a(S'w'
I730
tp726
a(S'p1_vo'
I5
tp727
a(S'w'
I4
tp728
a(S'p2_vo'
I5
tp729
a(S'w'
I1464
tp730
a(S'p1_vo'
I4
tp731
a(S'w'
I4
tp732
a(S'p2_vo'
I4
tp733
a(S'w'
I2938
tp734
a(S'no_np'
I8
tp735
a(S'w'
I1
tp736
a(S'no_ll'
I31
tp737
a(S'w'
I2
tp738
a(S'no_vo'
I3
tp739
a(S'w'
I1460
tp740
a(S'no_vo'
I1
tp741
a(S'w'
I734
tp742
a(S'no_vo'
I0
tp743
a(S'w'
I737
tp744
a(S'w'
I1
tp745
a(S'no_ll'
I31
tp746
a(S'w'
I2
tp747
a(S'no_vo'
I3
tp748
a(S'w'
I1461
tp749
a(S'no_vo'
I1
tp750
a(S'w'
I734
tp751
a(S'no_vo'
I0
tp752
a(S'w'
I735
tp753
a(S'tr_tl'
I190
tp754
a(S'tr_ll'
I31
tp755
a(S'w'
I2
tp756
a(S'tr_lh'
I1
tp757
a(S'tr_lr'
I127
tp758
a(S'w'
I10
tp759
a(S'no_np'
I9
tp760
a(S'no_ll'
I31
tp761
a(S'w'
I3
tp762
a(S'no_vo'
I12
tp763
a(S'w'
I1451
tp764
a(S'tr_tl'
I202
tp765
a(S'w'
I1
tp766
a(S'tr_ll'
I31
tp767
a(S'w'
I7
tp768
a(S'no_vo'
I11
tp769
a(S'w'
I726
tp770
a(S'no_vo'
I9
tp771
a(S'w'
I734
tp772
a(S'tr_tl'
I214
tp773
a(S'tr_ll'
I31
tp774
a(S'w'
I7
tp775
a(S'no_vo'
I7
tp776
a(S'w'
I727
tp777
a(S'no_vo'
I5
tp778
a(S'w'
I734
tp779
a(S'tr_tl'
I226
tp780
a(S'tr_ll'
I31
tp781
a(S'w'
I7
tp782
a(S'no_vo'
I3
tp783
a(S'w'
I726
tp784
a(S'no_vo'
I2
tp785
a(S'w'
I734
tp786
a(S'tr_tl'
I240
tp787
a(S'w'
I1
tp788
a(S'tr_ll'
I31
tp789
a(S'w'
I10
tp790
a(S'w'
I1
tp791
a(S'no_ll'
I31
tp792
a(S'w'
I2
tp793
a(S'no_vo'
I12
tp794
a(S'w'
I1454
tp795
a(S'tr_tl'
I254
tp796
a(S'tr_ll'
I31
tp797
a(S'w'
I7
tp798
a(S'no_vo'
I11
tp799
a(S'w'
I727
tp800
a(S'no_vo'
I9
tp801
a(S'w'
I733
tp802
a(S'tr_tl'
I13
tp803
a(S'w'
I1
tp804
a(S'tr_ll'
I31
tp805
a(S'tr_th'
I1
tp806
a(S'w'
I7
tp807
a(S'no_vo'
I7
tp808
a(S'w'
I726
tp809
a(S'no_vo'
I5
tp810
a(S'w'
I734
tp811
a(S'tr_tl'
I29
tp812
a(S'tr_ll'
I31
tp813
a(S'w'
I7
tp814
a(S'no_vo'
I3
tp815
a(S'w'
I727
tp816
a(S'no_vo'
I2
tp817
a(S'w'
I734
tp818
a(S'tr_tl'
I46
tp819
a(S'tr_ll'
I31
tp820
a(S'w'
I12
tp821
a(S'no_np'
I8
tp822
a(S'no_ll'
I31
tp823
a(S'w'
I2
tp824
a(S'no_vo'
I3
tp825
a(S'w'
I1453
tp826
a(S'tr_tl'
I64
tp827
a(S'w'
I1
tp828
a(S'tr_ll'
I31
tp829
a(S'w'
I6
tp830
a(S'no_vo'
I1
tp831
a(S'w'
I727
tp832
a(S'no_vo'
I0
tp833
a(S'w'
I734
tp834
a(S'tr_tl'
I83
tp835
a(S'tr_ll'
I31
tp836
a(S'w'
I11
tp837
a(S'no_ll'
I31
tp838
a(S'w'
I2
tp839
a(S'no_vo'
I3
tp840
a(S'w'
I1454
tp841
a(S'tr_tl'
I104
tp842
a(S'w'
I1
tp843
a(S'tr_ll'
I31
tp844
a(S'w'
I7
tp845
a(S'no_vo'
I1
tp846
a(S'w'
I726
tp847
a(S'no_vo'
I0
tp848
a(S'w'
I734
tp849
a(S'tr_tl'
I125
tp850
a(S'tr_ll'
I31
tp851
a(S'w'
I11
tp852
a(S'no_np'
I14
tp853
a(S'no_ll'
I31
tp854
a(S'w'
I3
tp855
a(S'no_vo'
I15
tp856
a(S'w'
I720
tp857
a(S'no_vo'
I0
tp858
a(S'w'
I734
tp859
a(S'tr_tl'
I148
tp860
a(S'tr_ll'
I31
tp861
a(S'w'
I1467
tp862
a(S'tr_tl'
I172
tp863
a(S'w'
I1
tp864
a(S'tr_ll'
I31
tp865
a(S'w'
I10
tp866
a(S'no_ll'
I31
tp867
a(S'w'
I3
tp868
a(S'no_vo'
I15
tp869
a(S'w'
I720
tp870
a(S'no_vo'
I0
tp871
a(S'w'
I734
tp872
a(S'tr_tl'
I197
tp873
a(S'tr_ll'
I31
tp874
a(S'w'
I1467
tp875
a(S'p1_tl'
I29
tp876
a(S'p1_ll'
I31
tp877
a(S'p1_th'
I1
tp878
a(S'w'
I3
tp879
a(S'p1_vo'
I10
tp880
a(S'w'
I6
tp881
a(S'w'
I1
tp882
a(S'p2_tl'
I83
tp883
a(S'p2_ll'
I31
tp884
a(S'p2_th'
I1
tp885
a(S'w'
I2
tp886
a(S'p2_vo'
I10
tp887
a(S'w'
I9
tp888
a(S'tr_tl'
I59
tp889
a(S'w'
I1
tp890
a(S'tr_ll'
I31
tp891
a(S'tr_th'
I2
tp892
a(S'w'
I2
tp893
a(S'w'
I10
tp894
a(S'no_ll'
I31
tp895
a(S'w'
I2
tp896
a(S'no_vo'
I15
tp897
a(S'w'
I696
tp898
a(S'p1_vo'
I7
tp899
a(S'w'
I4
tp900
a(S'p2_vo'
I7
tp901
a(S'w'
I5
tp902
a(S'no_vo'
I0
tp903
a(S'w'
I724
tp904
a(S'p1_vo'
I5
tp905
a(S'w'
I4
tp906
a(S'p2_vo'
I5
tp907
a(S'w'
I1464
tp908
a(S'p1_vo'
I4
tp909
a(S'w'
I4
tp910
a(S'p2_vo'
I4
tp911
a(S'w'
I2931
tp912
a(S'p1_vo'
I0
tp913
a(S'w'
I4
tp914
a(S'p2_vo'
I0
tp915
a(S'w'
I9
tp916
a(S'no_np'
I2
tp917
a(S'no_ll'
I31
tp918
a(S'w'
I3
tp919
a(S'no_vo'
I7
tp920
a(S'w'
I721
tp921
a(S'no_vo'
I0
tp922
a(S'w'
I5135
tp923
a(S'p1_ll'
I31
tp924
a(S'w'
I2
tp925
a(S'p1_vo'
I10
tp926
a(S'w'
I6
tp927
a(S'p2_ll'
I31
tp928
a(S'w'
I3
tp929
a(S'p2_vo'
I10
tp930
a(S'w'
I9
tp931
a(S'no_ll'
I31
tp932
a(S'w'
I3
tp933
a(S'no_vo'
I7
tp934
a(S'w'
I709
tp935
a(S'p1_vo'
I7
tp936
a(S'w'
I4
tp937
a(S'p2_vo'
I7
tp938
a(S'w'
I5
tp939
a(S'no_vo'
I0
tp940
a(S'w'
I725
tp941
a(S'p1_vo'
I5
tp942
a(S'w'
I4
tp943
a(S'p2_vo'
I5
tp944
a(S'w'
I1464
tp945
a(S'p1_vo'
I4
tp946
a(S'w'
I4
tp947
a(S'p2_vo'
I4
tp948
a(S'w'
I2930
tp949
a(S'p1_vo'
I0
tp950
a(S'w'
I5
tp951
a(S'p2_vo'
I0
tp952
a(S'w'
I9
tp953
a(S'no_ll'
I31
tp954
a(S'w'
I3
tp955
a(S'no_vo'
I7
tp956
a(S'w'
I720
tp957
a(S'no_vo'
I0
tp958
a(S'w'
I5135
tp959
a(S'p1_tl'
I46
tp960
a(S'w'
I1
tp961
a(S'p1_ll'
I31
tp962
a(S'w'
I2
tp963
a(S'p1_vo'
I10
tp964
a(S'w'
I6
tp965
a(S'p2_tl'
I125
tp966
a(S'p2_ll'
I31
tp967
a(S'w'
I2
tp968
a(S'p2_vo'
I10
tp969
a(S'w'
I6
tp970
a(S'tr_lh'
I0
tp971
a(S'tr_lr'
I0
tp972
a(S'w'
I8
tp973
a(S'no_np'
I9
tp974
a(S'w'
I1
tp975
a(S'no_ll'
I31
tp976
a(S'w'
I2
tp977
a(S'no_vo'
I12
tp978
a(S'w'
I705
tp979
a(S'p1_vo'
I7
tp980
a(S'w'
I4
tp981
a(S'p2_vo'
I7
tp982
a(S'w'
I730
tp983
a(S'p1_vo'
I5
tp984
a(S'w'
I4
tp985
a(S'p2_vo'
I5
tp986
a(S'w'
I5
tp987
a(S'no_vo'
I11
tp988
a(S'w'
I727
tp989
a(S'no_vo'
I9
tp990
a(S'w'
I732
tp991
a(S'p1_vo'
I4
tp992
a(S'w'
I4
tp993
a(S'p2_vo'
I4
tp994
a(S'w'
I5
tp995
a(S'no_vo'
I7
tp996
a(S'w'
I727
tp997
a(S'no_vo'
I5
tp998
a(S'w'
I734
tp999
a(S'no_vo'
I3
tp1000
a(S'w'
I734
tp1001
a(S'no_vo'
I2
tp1002
a(S'w'
I732
tp1003
a(S'p1_tl'
I29
tp1004
a(S'p1_ll'
I31
tp1005
a(S'w'
I2
tp1006
a(S'p1_vo'
I10
tp1007
a(S'w'
I6
tp1008
a(S'p2_tl'
I83
tp1009
a(S'p2_ll'
I31
tp1010
a(S'w'
I3
tp1011
a(S'p2_vo'
I10
tp1012
a(S'w'
I9
tp1013
a(S'no_np'
I1
tp1014
a(S'w'
I1
tp1015
a(S'no_ll'
I31
tp1016
a(S'w'
I2
tp1017
a(S'no_vo'
I11
tp1018
a(S'w'
I710
tp1019
a(S'p1_vo'
I7
tp1020
a(S'w'
I4
tp1021
a(S'p2_vo'
I7
tp1022
a(S'w'
I5
tp1023
a(S'no_vo'
I7
tp1024
a(S'w'
I724
tp1025
a(S'p1_vo'
I5
tp1026
a(S'w'
I4
tp1027
a(S'p2_vo'
I5
tp1028
a(S'w'
I5
tp1029
a(S'no_vo'
I0
tp1030
a(S'w'
I1459
tp1031
a(S'p1_vo'
I4
tp1032
a(S'w'
I4
tp1033
a(S'p2_vo'
I4
tp1034
a(S'w'
I2931
tp1035
a(S'p1_vo'
I0
tp1036
a(S'w'
I4
tp1037
a(S'p2_vo'
I0
tp1038
a(S'w'
I9
tp1039
a(S'no_np'
I2
tp1040
a(S'w'
I1
tp1041
a(S'no_ll'
I31
tp1042
a(S'w'
I2
tp1043
a(S'no_vo'
I7
tp1044
a(S'w'
I721
tp1045
a(S'no_vo'
I0
tp1046
a(S'w'
I5135
tp1047
a(S'p1_tl'
I254
tp1048
a(S'p1_ll'
I31
tp1049
a(S'p1_th'
I0
tp1050
a(S'w'
I2
tp1051
a(S'p1_vo'
I10
tp1052
a(S'w'
I6
tp1053
a(S'p2_tl'
I46
tp1054
a(S'p2_ll'
I31
tp1055
a(S'w'
I3
tp1056
a(S'p2_vo'
I10
tp1057
a(S'w'
I7
tp1058
a(S'tr_ll'
I31
tp1059
a(S'w'
I2
tp1060
a(S'tr_lh'
I1
tp1061
a(S'tr_lr'
I127
tp1062
a(S'w'
I8
tp1063
a(S'no_np'
I14
tp1064
a(S'w'
I1
tp1065
a(S'no_ll'
I31
tp1066
a(S'w'
I2
tp1067
a(S'no_vo'
I15
tp1068
a(S'w'
I701
tp1069
a(S'p1_vo'
I7
tp1070
a(S'w'
I4
tp1071
a(S'p2_vo'
I7
tp1072
a(S'w'
I5
tp1073
a(S'no_vo'
I0
tp1074
a(S'w'
I725
tp1075
a(S'p1_vo'
I5
tp1076
a(S'w'
I4
tp1077
a(S'p2_vo'
I5
tp1078
a(S'w'
I1464
tp1079
a(S'p1_vo'
I4
tp1080
a(S'w'
I4
tp1081
a(S'p2_vo'
I4
tp1082
a(S'w'
I2931
tp1083
a(S'p1_vo'
I0
tp1084
a(S'w'
I4
tp1085
a(S'p2_vo'
I0
tp1086
a(S'w'
I4
tp1087
a(S'tr_lh'
I0
tp1088
a(S'tr_lr'
I0
tp1089
a(S'w'
I8
tp1090
a(S'no_np'
I2
tp1091
a(S'w'
I1
tp1092
a(S'no_ll'
I31
tp1093
a(S'w'
I2
tp1094
a(S'no_vo'
I7
tp1095
a(S'w'
I718
tp1096
a(S'no_vo'
I0
tp1097
a(S'w'
I5136
tp1098
a(S'p1_tl'
I226
tp1099
a(S'p1_ll'
I31
tp1100
a(S'w'
I2
tp1101
a(S'p1_vo'
I10
tp1102
a(S'w'
I7
tp1103
a(S'p2_tl'
I29
tp1104
a(S'w'
I1
tp1105
a(S'p2_ll'
I31
tp1106
a(S'w'
I2
tp1107
a(S'p2_vo'
I10
tp1108
a(S'w'
I13
tp1109
a(S'no_ll'
I31
tp1110
a(S'w'
I2
tp1111
a(S'no_vo'
I7
tp1112
a(S'w'
I704
tp1113
a(S'p1_vo'
I7
tp1114
a(S'w'
I4
tp1115
a(S'p2_vo'
I7
tp1116
a(S'w'
I5
tp1117
a(S'no_vo'
I0
tp1118
a(S'w'
I725
tp1119
a(S'p1_vo'
I5
tp1120
a(S'w'
I4
tp1121
a(S'p2_vo'
I5
tp1122
a(S'w'
I1464
tp1123
a(S'p1_vo'
I4
tp1124
a(S'w'
I4
tp1125
a(S'p2_vo'
I4
tp1126
a(S'w'
I2935
tp1127
a(S'tr_ll'
I31
tp1128
a(S'w'
I2
tp1129
a(S'tr_lh'
I1
tp1130
a(S'tr_lr'
I127
tp1131
a(S'w'
I9
tp1132
a(S'no_np'
I14
tp1133
a(S'no_ll'
I31
tp1134
a(S'w'
I2
tp1135
a(S'no_vo'
I15
tp1136
a(S'w'
I719
tp1137
a(S'no_vo'
I0
tp1138
a(S'w'
I5141
tp1139
a(S'no_np'
I2
tp1140
a(S'no_ll'
I31
tp1141
a(S'w'
I2
tp1142
a(S'no_vo'
I7
tp1143
a(S'w'
I728
tp1144
a(S'no_vo'
I0
tp1145
a(S'w'
I5136
tp1146
a(S'tr_lh'
I0
tp1147
a(S'tr_lr'
I0
tp1148
a(S'w'
I9
tp1149
a(S'no_np'
I9
tp1150
a(S'no_ll'
I31
tp1151
a(S'w'
I2
tp1152
a(S'no_vo'
I12
tp1153
a(S'w'
I1457
tp1154
a(S'no_vo'
I11
tp1155
a(S'w'
I734
tp1156
a(S'no_vo'
I9
tp1157
a(S'w'
I734
tp1158
a(S'no_vo'
I7
tp1159
a(S'w'
I733
tp1160
a(S'no_vo'
I5
tp1161
a(S'w'
I734
tp1162
a(S'no_vo'
I3
tp1163
a(S'w'
I734
tp1164
a(S'no_vo'
I2
tp1165
a(S'w'
I732
tp1166
a(S'p1_vo'
I0
tp1167
a(S'w'
I5
tp1168
a(S'p2_vo'
I0
tp1169
a(S'w'
I10
tp1170
a(S'no_np'
I1
tp1171
a(S'no_ll'
I31
tp1172
a(S'w'
I2
tp1173
a(S'no_vo'
I11
tp1174
a(S'w'
I719
tp1175
a(S'no_vo'
I7
tp1176
a(S'w'
I733
tp1177
a(S'no_vo'
I0
tp1178
a(S'w'
I4403
tp1179
a(S'p1_tl'
I46
tp1180
a(S'p1_ll'
I31
tp1181
a(S'p1_th'
I1
tp1182
a(S'w'
I2
tp1183
a(S'p1_vo'
I10
tp1184
a(S'w'
I7
tp1185
a(S'p2_tl'
I125
tp1186
a(S'w'
I1
tp1187
a(S'p2_ll'
I31
tp1188
a(S'w'
I2
tp1189
a(S'p2_vo'
I10
tp1190
a(S'w'
I9
tp1191
a(S'no_np'
I2
tp1192
a(S'w'
I1
tp1193
a(S'no_ll'
I31
tp1194
a(S'w'
I2
tp1195
a(S'no_vo'
I7
tp1196
a(S'w'
I707
tp1197
a(S'p1_vo'
I7
tp1198
a(S'w'
I4
tp1199
a(S'p2_vo'
I7
tp1200
a(S'w'
I5
tp1201
a(S'no_vo'
I0
tp1202
a(S'w'
I725
tp1203
a(S'p1_vo'
I5
tp1204
a(S'w'
I4
tp1205
a(S'p2_vo'
I5
tp1206
a(S'w'
I1464
tp1207
a(S'p1_vo'
I4
tp1208
a(S'w'
I4
tp1209
a(S'p2_vo'
I4
tp1210
a(S'w'
I2937
tp1211
a(S'no_np'
I14
tp1212
a(S'w'
I1
tp1213
a(S'no_ll'
I31
tp1214
a(S'w'
I2
tp1215
a(S'no_vo'
I15
tp1216
a(S'w'
I727
tp1217
a(S'no_vo'
I0
tp1218
a(S'w'
I5136
tp1219
a(S'p1_tl'
I29
tp1220
a(S'w'
I1
tp1221
a(S'p1_ll'
I31
tp1222
a(S'w'
I2
tp1223
a(S'p1_vo'
I10
tp1224
a(S'w'
I7
tp1225
a(S'p2_tl'
I83
tp1226
a(S'p2_ll'
I31
tp1227
a(S'w'
I3
tp1228
a(S'p2_vo'
I10
tp1229
a(S'w'
I9
tp1230
a(S'tr_ll'
I31
tp1231
a(S'w'
I2
tp1232
a(S'tr_lh'
I1
tp1233
a(S'tr_lr'
I127
tp1234
a(S'w'
I9
tp1235
a(S'no_ll'
I31
tp1236
a(S'w'
I2
tp1237
a(S'no_vo'
I15
tp1238
a(S'w'
I697
tp1239
a(S'p1_vo'
I7
tp1240
a(S'w'
I4
tp1241
a(S'p2_vo'
I7
tp1242
a(S'w'
I5
tp1243
a(S'no_vo'
I0
tp1244
a(S'w'
I725
tp1245
a(S'p1_vo'
I5
tp1246
a(S'w'
I4
tp1247
a(S'p2_vo'
I5
tp1248
a(S'w'
I1464
tp1249
a(S'p1_vo'
I4
tp1250
a(S'w'
I4
tp1251
a(S'p2_vo'
I4
tp1252
a(S'w'
I2930
tp1253
a(S'p1_vo'
I0
tp1254
a(S'w'
I4
tp1255
a(S'p2_vo'
I0
tp1256
a(S'w'
I10
tp1257
a(S'no_np'
I2
tp1258
a(S'no_ll'
I31
tp1259
a(S'w'
I2
tp1260
a(S'no_vo'
I7
tp1261
a(S'w'
I721
tp1262
a(S'no_vo'
I0
tp1263
a(S'w'
I5135
tp1264
a(S'p1_ll'
I31
tp1265
a(S'w'
I3
tp1266
a(S'p1_vo'
I10
tp1267
a(S'w'
I6
tp1268
a(S'p2_ll'
I31
tp1269
a(S'w'
I2
tp1270
a(S'p2_vo'
I10
tp1271
a(S'w'
I10
tp1272
a(S'no_ll'
I31
tp1273
a(S'w'
I2
tp1274
a(S'no_vo'
I7
tp1275
a(S'w'
I710
tp1276
a(S'p1_vo'
I7
tp1277
a(S'w'
I4
tp1278
a(S'p2_vo'
I7
tp1279
a(S'w'
I5
tp1280
a(S'no_vo'
I0
tp1281
a(S'w'
I725
tp1282
a(S'p1_vo'
I5
tp1283
a(S'w'
I4
tp1284
a(S'p2_vo'
I5
tp1285
a(S'w'
I1463
tp1286
a(S'p1_vo'
I4
tp1287
a(S'w'
I4
tp1288
a(S'p2_vo'
I4
tp1289
a(S'w'
I2931
tp1290
a(S'p1_vo'
I0
tp1291
a(S'w'
I4
tp1292
a(S'p2_vo'
I0
tp1293
a(S'w'
I10
tp1294
a(S'no_ll'
I31
tp1295
a(S'w'
I2
tp1296
a(S'no_vo'
I7
tp1297
a(S'w'
I721
tp1298
a(S'no_vo'
I0
tp1299
a(S'w'
I5135
tp1300
a(S'p1_tl'
I46
tp1301
a(S'p1_ll'
I31
tp1302
a(S'w'
I3
tp1303
a(S'p1_vo'
I10
tp1304
a(S'w'
I5
tp1305
a(S'p2_tl'
I125
tp1306
a(S'w'
I1
tp1307
a(S'p2_ll'
I31
tp1308
a(S'w'
I2
tp1309
a(S'p2_vo'
I10
tp1310
a(S'w'
I5
tp1311
a(S'tr_lh'
I0
tp1312
a(S'tr_lr'
I0
tp1313
a(S'w'
I9
tp1314
a(S'no_np'
I9
tp1315
a(S'no_ll'
I31
tp1316
a(S'w'
I3
tp1317
a(S'no_vo'
I12
tp1318
a(S'w'
I705
tp1319
a(S'p1_vo'
I7
tp1320
a(S'w'
I4
tp1321
a(S'p2_vo'
I7
tp1322
a(S'w'
I730
tp1323
a(S'p1_vo'
I5
tp1324
a(S'w'
I4
tp1325
a(S'p2_vo'
I5
tp1326
a(S'w'
I5
tp1327
a(S'no_vo'
I11
tp1328
a(S'w'
I727
tp1329
a(S'no_vo'
I9
tp1330
a(S'w'
I731
tp1331
a(S'p1_vo'
I4
tp1332
a(S'w'
I4
tp1333
a(S'p2_vo'
I4
tp1334
a(S'w'
I5
tp1335
a(S'no_vo'
I7
tp1336
a(S'w'
I728
tp1337
a(S'no_vo'
I5
tp1338
a(S'w'
I733
tp1339
a(S'no_vo'
I3
tp1340
a(S'w'
I734
tp1341
a(S'no_vo'
I2
tp1342
a(S'w'
I732
tp1343
a(S'p1_tl'
I29
tp1344
a(S'w'
I1
tp1345
a(S'p1_ll'
I31
tp1346
a(S'w'
I2
tp1347
a(S'p1_vo'
I10
tp1348
a(S'w'
I6
tp1349
a(S'p2_tl'
I83
tp1350
a(S'p2_ll'
I31
tp1351
a(S'w'
I2
tp1352
a(S'p2_vo'
I10
tp1353
a(S'w'
I10
tp1354
a(S'no_np'
I1
tp1355
a(S'no_ll'
I31
tp1356
a(S'w'
I2
tp1357
a(S'no_vo'
I11
tp1358
a(S'w'
I710
tp1359
a(S'p1_vo'
I7
tp1360
a(S'w'
I4
tp1361
a(S'p2_vo'
I7
tp1362
a(S'w'
I5
tp1363
a(S'no_vo'
I7
tp1364
a(S'w'
I725
tp1365
a(S'p1_vo'
I5
tp1366
a(S'w'
I4
tp1367
a(S'p2_vo'
I5
tp1368
a(S'w'
I5
tp1369
a(S'no_vo'
I0
tp1370
a(S'w'
I1459
tp1371
a(S'p1_vo'
I4
tp1372
a(S'w'
I4
tp1373
a(S'p2_vo'
I4
tp1374
a(S'w'
I2930
tp1375
a(S'p1_vo'
I0
tp1376
a(S'w'
I4
tp1377
a(S'p2_vo'
I0
tp1378
a(S'w'
I11
tp1379
a(S'no_ll'
I31
tp1380
a(S'w'
I3
tp1381
a(S'no_vo'
I11
tp1382
a(S'w'
I719
tp1383
a(S'no_vo'
I7
tp1384
a(S'w'
I734
tp1385
a(S'no_vo'
I0
tp1386
a(S'w'
I2940
tp1387
a(S'no_np'
I2
tp1388
a(S'w'
I1
tp1389
a(S'no_ll'
I31
tp1390
a(S'w'
I2
tp1391
a(S'no_vo'
I7
tp1392
a(S'w'
I726
tp1393
a(S'no_vo'
I0
tp1394
a(S'w'
I732
tp1395
a(S'p1_tl'
I254
tp1396
a(S'p1_ll'
I31
tp1397
a(S'p1_th'
I0
tp1398
a(S'w'
I3
tp1399
a(S'p1_vo'
I10
tp1400
a(S'w'
I6
tp1401
a(S'p2_tl'
I46
tp1402
a(S'p2_ll'
I31
tp1403
a(S'w'
I2
tp1404
a(S'p2_vo'
I10
tp1405
a(S'w'
I7
tp1406
a(S'tr_ll'
I31
tp1407
a(S'w'
I3
tp1408
a(S'tr_lh'
I1
tp1409
a(S'tr_lr'
I127
tp1410
a(S'w'
I712
tp1411
a(S'p1_vo'
I7
tp1412
a(S'w'
I4
tp1413
a(S'p2_vo'
I7
tp1414
a(S'w'
I730
tp1415
a(S'p1_vo'
I5
tp1416
a(S'w'
I4
tp1417
a(S'p2_vo'
I5
tp1418
a(S'w'
I736
tp1419
a(S'no_np'
I1
tp1420
a(S'no_ll'
I31
tp1421
a(S'w'
I3
tp1422
a(S'no_vo'
I11
tp1423
a(S'w'
I724
tp1424
a(S'p1_vo'
I4
tp1425
a(S'w'
I4
tp1426
a(S'p2_vo'
I4
tp1427
a(S'w'
I5
tp1428
a(S'no_vo'
I7
tp1429
a(S'w'
I728
tp1430
a(S'no_vo'
I0
tp1431
a(S'w'
I2198
tp1432
a(S'p1_vo'
I0
tp1433
a(S'w'
I4
tp1434
a(S'p2_vo'
I0
tp1435
a(S'w'
I5
tp1436
a(S'tr_lh'
I0
tp1437
a(S'tr_lr'
I0
tp1438
a(S'w'
I9
tp1439
a(S'no_np'
I2
tp1440
a(S'w'
I1
tp1441
a(S'no_ll'
I31
tp1442
a(S'w'
I2
tp1443
a(S'no_vo'
I7
tp1444
a(S'w'
I716
tp1445
a(S'no_vo'
I0
tp1446
a(S'w'
I5136
tp1447
a(S'p1_tl'
I125
tp1448
a(S'w'
I1
tp1449
a(S'p1_ll'
I31
tp1450
a(S'p1_th'
I1
tp1451
a(S'w'
I2
tp1452
a(S'p1_vo'
I10
tp1453
a(S'w'
I7
tp1454
a(S'p2_tl'
I197
tp1455
a(S'p2_ll'
I31
tp1456
a(S'w'
I3
tp1457
a(S'p2_vo'
I10
tp1458
a(S'w'
I12
tp1459
a(S'no_np'
I14
tp1460
a(S'w'
I1
tp1461
a(S'no_ll'
I31
tp1462
a(S'w'
I2
tp1463
a(S'no_vo'
I15
tp1464
a(S'w'
I704
tp1465
a(S'p1_vo'
I7
tp1466
a(S'w'
I4
tp1467
a(S'p2_vo'
I7
tp1468
a(S'w'
I5
tp1469
a(S'no_vo'
I0
tp1470
a(S'w'
I725
tp1471
a(S'p1_vo'
I5
tp1472
a(S'w'
I4
tp1473
a(S'p2_vo'
I5
tp1474
a(S'w'
I1463
tp1475
a(S'p1_vo'
I4
tp1476
a(S'w'
I4
tp1477
a(S'p2_vo'
I4
tp1478
a(S'w'
I2936
tp1479
a(S'tr_ll'
I31
tp1480
a(S'w'
I2
tp1481
a(S'tr_lh'
I1
tp1482
a(S'tr_lr'
I127
tp1483
a(S'w'
I8
tp1484
a(S'w'
I1
tp1485
a(S'no_ll'
I31
tp1486
a(S'w'
I2
tp1487
a(S'no_vo'
I15
tp1488
a(S'w'
I719
tp1489
a(S'no_vo'
I0
tp1490
a(S'w'
I5140
tp1491
a(S'no_np'
I2
tp1492
a(S'w'
I1
tp1493
a(S'no_ll'
I31
tp1494
a(S'w'
I2
tp1495
a(S'no_vo'
I7
tp1496
a(S'w'
I727
tp1497
a(S'no_vo'
I0
tp1498
a(S'w'
I5137
tp1499
a(S'tr_lh'
I0
tp1500
a(S'tr_lr'
I0
tp1501
a(S'w'
I8
tp1502
a(S'no_np'
I9
tp1503
a(S'no_ll'
I31
tp1504
a(S'w'
I3
tp1505
a(S'no_vo'
I12
tp1506
a(S'w'
I1457
tp1507
a(S'no_vo'
I11
tp1508
a(S'w'
I733
tp1509
a(S'no_vo'
I9
tp1510
a(S'w'
I734
tp1511
a(S'no_vo'
I7
tp1512
a(S'w'
I734
tp1513
a(S'no_vo'
I5
tp1514
a(S'w'
I734
tp1515
a(S'no_vo'
I3
tp1516
a(S'w'
I734
tp1517
a(S'no_vo'
I2
tp1518
a(S'w'
I731
tp1519
a(S'p1_vo'
I0
tp1520
a(S'w'
I6
tp1521
a(S'p2_vo'
I0
tp1522
a(S'w'
I9
tp1523
a(S'no_np'
I1
tp1524
a(S'no_ll'
I31
tp1525
a(S'w'
I3
tp1526
a(S'no_vo'
I11
tp1527
a(S'w'
I718
tp1528
a(S'no_vo'
I7
tp1529
a(S'w'
I734
tp1530
a(S'no_vo'
I0
tp1531
a(S'w'
I4402
tp1532
a(S'p1_tl'
I46
tp1533
a(S'w'
I1
tp1534
a(S'p1_ll'
I31
tp1535
a(S'w'
I2
tp1536
a(S'p1_vo'
I10
tp1537
a(S'w'
I7
tp1538
a(S'p2_tl'
I125
tp1539
a(S'p2_ll'
I31
tp1540
a(S'w'
I3
tp1541
a(S'p2_vo'
I10
tp1542
a(S'w'
I9
tp1543
a(S'no_np'
I2
tp1544
a(S'no_ll'
I31
tp1545
a(S'w'
I3
tp1546
a(S'no_vo'
I7
tp1547
a(S'w'
I707
tp1548
a(S'p1_vo'
I7
tp1549
a(S'w'
I4
tp1550
a(S'p2_vo'
I7
tp1551
a(S'w'
I5
tp1552
a(S'no_vo'
I0
tp1553
a(S'w'
I725
tp1554
a(S'p1_vo'
I5
tp1555
a(S'w'
I4
tp1556
a(S'p2_vo'
I5
tp1557
a(S'w'
I1463
tp1558
a(S'p1_vo'
I4
tp1559
a(S'w'
I4
tp1560
a(S'p2_vo'
I4
tp1561
a(S'w'
I2938
tp1562
a(S'no_np'
I14
tp1563
a(S'no_ll'
I31
tp1564
a(S'w'
I3
tp1565
a(S'no_vo'
I15
tp1566
a(S'w'
I727
tp1567
a(S'no_vo'
I0
tp1568
a(S'w'
I5136
tp1569
a(S'p1_tl'
I29
tp1570
a(S'p1_ll'
I31
tp1571
a(S'w'
I3
tp1572
a(S'p1_vo'
I10
tp1573
a(S'w'
I7
tp1574
a(S'p2_tl'
I83
tp1575
a(S'p2_ll'
I31
tp1576
a(S'w'
I2
tp1577
a(S'p2_vo'
I10
tp1578
a(S'w'
I10
tp1579
a(S'tr_ll'
I31
tp1580
a(S'w'
I2
tp1581
a(S'tr_lh'
I1
tp1582
a(S'tr_lr'
I127
tp1583
a(S'w'
I8
tp1584
a(S'no_ll'
I31
tp1585
a(S'w'
I3
tp1586
a(S'no_vo'
I15
tp1587
a(S'w'
I697
tp1588
a(S'p1_vo'
I7
tp1589
a(S'w'
I4
tp1590
a(S'p2_vo'
I7
tp1591
a(S'w'
I5
tp1592
a(S'no_vo'
I0
tp1593
a(S'w'
I725
tp1594
a(S'p1_vo'
I5
tp1595
a(S'w'
I4
tp1596
a(S'p2_vo'
I5
tp1597
a(S'w'
I1463
tp1598
a(S'p1_vo'
I4
tp1599
a(S'w'
I4
tp1600
a(S'p2_vo'
I4
tp1601
a(S'w'
I2931
tp1602
a(S'p1_vo'
I0
tp1603
a(S'w'
I4
tp1604
a(S'p2_vo'
I0
tp1605
a(S'w'
I9
tp1606
a(S'no_np'
I2
tp1607
a(S'w'
I1
tp1608
a(S'no_ll'
I31
tp1609
a(S'w'
I2
tp1610
a(S'no_vo'
I7
tp1611
a(S'w'
I721
tp1612
a(S'no_vo'
I0
tp1613
a(S'w'
I5135
tp1614
a(S'p1_ll'
I31
tp1615
a(S'w'
I2
tp1616
a(S'p1_vo'
I10
tp1617
a(S'w'
I6
tp1618
a(S'p2_ll'
I31
tp1619
a(S'w'
I3
tp1620
a(S'p2_vo'
I10
tp1621
a(S'w'
I9
tp1622
a(S'w'
I1
tp1623
a(S'no_ll'
I31
tp1624
a(S'w'
I2
tp1625
a(S'no_vo'
I7
tp1626
a(S'w'
I710
tp1627
a(S'p1_vo'
I7
tp1628
a(S'w'
I4
tp1629
a(S'p2_vo'
I7
tp1630
a(S'w'
I5
tp1631
a(S'no_vo'
I0
tp1632
a(S'w'
I724
tp1633
a(S'p1_vo'
I5
tp1634
a(S'w'
I4
tp1635
a(S'p2_vo'
I5
tp1636
a(S'w'
I1464
tp1637
a(S'p1_vo'
I4
tp1638
a(S'w'
I4
tp1639
a(S'p2_vo'
I4
tp1640
a(S'w'
I2931
tp1641
a(S'p1_vo'
I0
tp1642
a(S'w'
I4
tp1643
a(S'p2_vo'
I0
tp1644
a(S'w'
I9
tp1645
a(S'w'
I1
tp1646
a(S'no_ll'
I31
tp1647
a(S'w'
I2
tp1648
a(S'no_vo'
I7
tp1649
a(S'w'
I721
tp1650
a(S'no_vo'
I0
tp1651
a(S'w'
I5135
tp1652
a(S'p1_tl'
I46
tp1653
a(S'p1_ll'
I31
tp1654
a(S'w'
I2
tp1655
a(S'p1_vo'
I10
tp1656
a(S'w'
I6
tp1657
a(S'p2_tl'
I125
tp1658
a(S'p2_ll'
I31
tp1659
a(S'w'
I3
tp1660
a(S'p2_vo'
I10
tp1661
a(S'w'
I5
tp1662
a(S'tr_lh'
I0
tp1663
a(S'tr_lr'
I0
tp1664
a(S'w'
I9
tp1665
a(S'no_np'
I9
tp1666
a(S'no_ll'
I31
tp1667
a(S'w'
I2
tp1668
a(S'no_vo'
I12
tp1669
a(S'w'
I705
tp1670
a(S'p1_vo'
I7
tp1671
a(S'w'
I4
tp1672
a(S'p2_vo'
I7
tp1673
a(S'w'
I730
tp1674
a(S'p1_vo'
I5
tp1675
a(S'w'
I4
tp1676
a(S'p2_vo'
I5
tp1677
a(S'w'
I5
tp1678
a(S'no_vo'
I11
tp1679
a(S'w'
I728
tp1680
a(S'no_vo'
I9
tp1681
a(S'w'
I731
tp1682
a(S'p1_vo'
I4
tp1683
a(S'w'
I4
tp1684
a(S'p2_vo'
I4
tp1685
a(S'w'
I5
tp1686
a(S'no_vo'
I7
tp1687
a(S'w'
I727
tp1688
a(S'no_vo'
I5
tp1689
a(S'w'
I734
tp1690
a(S'no_vo'
I3
tp1691
a(S'w'
I734
tp1692
a(S'no_vo'
I2
tp1693
a(S'w'
I732
tp1694
a(S'p1_tl'
I29
tp1695
a(S'p1_ll'
I31
tp1696
a(S'w'
I3
tp1697
a(S'p1_vo'
I10
tp1698
a(S'w'
I5
tp1699
a(S'p2_tl'
I83
tp1700
a(S'w'
I1
tp1701
a(S'p2_ll'
I31
tp1702
a(S'w'
I2
tp1703
a(S'p2_vo'
I10
tp1704
a(S'w'
I9
tp1705
a(S'no_np'
I1
tp1706
a(S'w'
I1
tp1707
a(S'no_ll'
I31
tp1708
a(S'w'
I2
tp1709
a(S'no_vo'
I11
tp1710
a(S'w'
I710
tp1711
a(S'p1_vo'
I7
tp1712
a(S'w'
I4
tp1713
a(S'p2_vo'
I7
tp1714
a(S'w'
I5
tp1715
a(S'no_vo'
I7
tp1716
a(S'w'
I725
tp1717
a(S'p1_vo'
I5
tp1718
a(S'w'
I4
tp1719
a(S'p2_vo'
I5
tp1720
a(S'w'
I5
tp1721
a(S'no_vo'
I0
tp1722
a(S'w'
I1458
tp1723
a(S'p1_vo'
I4
tp1724
a(S'w'
I4
tp1725
a(S'p2_vo'
I4
tp1726
a(S'w'
I2931
tp1727
a(S'p1_vo'
I0
tp1728
a(S'w'
I4
tp1729
a(S'p2_vo'
I0
tp1730
a(S'w'
I9
tp1731
a(S'no_np'
I2
tp1732
a(S'w'
I1
tp1733
a(S'no_ll'
I31
tp1734
a(S'w'
I2
tp1735
a(S'no_vo'
I7
tp1736
a(S'w'
I721
tp1737
a(S'no_vo'
I0
tp1738
a(S'w'
I5135
tp1739
a(S'p1_tl'
I254
tp1740
a(S'p1_ll'
I31
tp1741
a(S'p1_th'
I0
tp1742
a(S'w'
I2
tp1743
a(S'p1_vo'
I10
tp1744
a(S'w'
I6
tp1745
a(S'p2_tl'
I46
tp1746
a(S'p2_ll'
I31
tp1747
a(S'w'
I3
tp1748
a(S'p2_vo'
I10
tp1749
a(S'w'
I7
tp1750
a(S'tr_ll'
I31
tp1751
a(S'w'
I2
tp1752
a(S'tr_lh'
I1
tp1753
a(S'tr_lr'
I127
tp1754
a(S'w'
I9
tp1755
a(S'no_np'
I14
tp1756
a(S'no_ll'
I31
tp1757
a(S'w'
I2
tp1758
a(S'no_vo'
I15
tp1759
a(S'w'
I702
tp1760
a(S'p1_vo'
I7
tp1761
a(S'w'
I4
tp1762
a(S'p2_vo'
I7
tp1763
a(S'w'
I5
tp1764
a(S'no_vo'
I0
tp1765
a(S'w'
I724
tp1766
a(S'p1_vo'
I5
tp1767
a(S'w'
I4
tp1768
a(S'p2_vo'
I5
tp1769
a(S'w'
I1464
tp1770
a(S'p1_vo'
I4
tp1771
a(S'w'
I4
tp1772
a(S'p2_vo'
I4
tp1773
a(S'w'
I2931
tp1774
a(S'p1_vo'
I0
tp1775
a(S'w'
I4
tp1776
a(S'p2_vo'
I0
tp1777
a(S'w'
I4
tp1778
a(S'tr_lh'
I0
tp1779
a(S'tr_lr'
I0
tp1780
a(S'w'
I9
tp1781
a(S'no_np'
I2
tp1782
a(S'no_ll'
I31
tp1783
a(S'w'
I2
tp1784
a(S'no_vo'
I7
tp1785
a(S'w'
I718
tp1786
a(S'no_vo'
I0
tp1787
a(S'w'
I5136
tp1788
a(S'p1_tl'
I226
tp1789
a(S'p1_ll'
I31
tp1790
a(S'w'
I2
tp1791
a(S'p1_vo'
I10
tp1792
a(S'w'
I7
tp1793
a(S'p2_tl'
I29
tp1794
a(S'w'
I1
tp1795
a(S'p2_ll'
I31
tp1796
a(S'w'
I2
tp1797
a(S'p2_vo'
I10
tp1798
a(S'w'
I13
tp1799
a(S'no_ll'
I31
tp1800
a(S'w'
I2
tp1801
a(S'no_vo'
I7
tp1802
a(S'w'
I704
tp1803
a(S'p1_vo'
I7
tp1804
a(S'w'
I4
tp1805
a(S'p2_vo'
I7
tp1806
a(S'w'
I5
tp1807
a(S'no_vo'
I0
tp1808
a(S'w'
I725
tp1809
a(S'p1_vo'
I5
tp1810
a(S'w'
I4
tp1811
a(S'p2_vo'
I5
tp1812
a(S'w'
I1464
tp1813
a(S'p1_vo'
I4
tp1814
a(S'w'
I4
tp1815
a(S'p2_vo'
I4
tp1816
a(S'w'
I2935
tp1817
a(S'tr_ll'
I31
tp1818
a(S'w'
I2
tp1819
a(S'tr_lh'
I1
tp1820
a(S'tr_lr'
I127
tp1821
a(S'w'
I9
tp1822
a(S'no_np'
I14
tp1823
a(S'no_ll'
I31
tp1824
a(S'w'
I3
tp1825
a(S'no_vo'
I15
tp1826
a(S'w'
I719
tp1827
a(S'no_vo'
I0
tp1828
a(S'w'
I5140
tp1829
a(S'no_np'
I2
tp1830
a(S'no_ll'
I31
tp1831
a(S'w'
I3
tp1832
a(S'no_vo'
I7
tp1833
a(S'w'
I727
tp1834
a(S'no_vo'
I0
tp1835
a(S'w'
I5136
tp1836
a(S'tr_lh'
I0
tp1837
a(S'tr_lr'
I0
tp1838
a(S'w'
I9
tp1839
a(S'no_np'
I9
tp1840
a(S'no_ll'
I31
tp1841
a(S'w'
I2
tp1842
a(S'no_vo'
I12
tp1843
a(S'w'
I1457
tp1844
a(S'no_vo'
I11
tp1845
a(S'w'
I734
tp1846
a(S'no_vo'
I9
tp1847
a(S'w'
I734
tp1848
a(S'no_vo'
I7
tp1849
a(S'w'
I734
tp1850
a(S'no_vo'
I5
tp1851
a(S'w'
I733
tp1852
a(S'no_vo'
I3
tp1853
a(S'w'
I734
tp1854
a(S'no_vo'
I2
tp1855
a(S'w'
I732
tp1856
a(S'p1_vo'
I0
tp1857
a(S'w'
I5
tp1858
a(S'p2_vo'
I0
tp1859
a(S'w'
I10
tp1860
a(S'no_np'
I1
tp1861
a(S'no_ll'
I31
tp1862
a(S'w'
I2
tp1863
a(S'no_vo'
I11
tp1864
a(S'w'
I719
tp1865
a(S'no_vo'
I7
tp1866
a(S'w'
I734
tp1867
a(S'no_vo'
I0
tp1868
a(S'w'
I4402
tp1869
a(S'p1_tl'
I46
tp1870
a(S'p1_ll'
I31
tp1871
a(S'p1_th'
I1
tp1872
a(S'w'
I3
tp1873
a(S'p1_vo'
I10
tp1874
a(S'w'
I6
tp1875
a(S'p2_tl'
I125
tp1876
a(S'w'
I1
tp1877
a(S'p2_ll'
I31
tp1878
a(S'w'
I2
tp1879
a(S'p2_vo'
I10
tp1880
a(S'w'
I10
tp1881
a(S'no_np'
I2
tp1882
a(S'no_ll'
I31
tp1883
a(S'w'
I2
tp1884
a(S'no_vo'
I7
tp1885
a(S'w'
I708
tp1886
a(S'p1_vo'
I7
tp1887
a(S'w'
I4
tp1888
a(S'p2_vo'
I7
tp1889
a(S'w'
I4
tp1890
a(S'no_vo'
I0
tp1891
a(S'w'
I725
tp1892
a(S'p1_vo'
I5
tp1893
a(S'w'
I4
tp1894
a(S'p2_vo'
I5
tp1895
a(S'w'
I1464
tp1896
a(S'p1_vo'
I4
tp1897
a(S'w'
I4
tp1898
a(S'p2_vo'
I4
tp1899
a(S'w'
I2938
tp1900
a(S'no_np'
I14
tp1901
a(S'no_ll'
I31
tp1902
a(S'w'
I2
tp1903
a(S'no_vo'
I15
tp1904
a(S'w'
I728
tp1905
a(S'no_vo'
I0
tp1906
a(S'w'
I5136
tp1907
a(S'p1_tl'
I29
tp1908
a(S'p1_ll'
I31
tp1909
a(S'w'
I2
tp1910
a(S'p1_vo'
I10
tp1911
a(S'w'
I7
tp1912
a(S'p2_tl'
I83
tp1913
a(S'w'
I1
tp1914
a(S'p2_ll'
I31
tp1915
a(S'w'
I2
tp1916
a(S'p2_vo'
I10
tp1917
a(S'w'
I9
tp1918
a(S'tr_ll'
I31
tp1919
a(S'w'
I2
tp1920
a(S'tr_lh'
I1
tp1921
a(S'tr_lr'
I127
tp1922
a(S'w'
I8
tp1923
a(S'w'
I1
tp1924
a(S'no_ll'
I31
tp1925
a(S'w'
I2
tp1926
a(S'no_vo'
I15
tp1927
a(S'w'
I697
tp1928
a(S'p1_vo'
I7
tp1929
a(S'w'
I4
tp1930
a(S'p2_vo'
I7
tp1931
a(S'w'
I5
tp1932
a(S'no_vo'
I0
tp1933
a(S'w'
I725
tp1934
a(S'p1_vo'
I5
tp1935
a(S'w'
I4
tp1936
a(S'p2_vo'
I5
tp1937
a(S'w'
I1464
tp1938
a(S'p1_vo'
I4
tp1939
a(S'w'
I4
tp1940
a(S'p2_vo'
I4
tp1941
a(S'w'
I2930
tp1942
a(S'p1_vo'
I0
tp1943
a(S'w'
I5
tp1944
a(S'p2_vo'
I0
tp1945
a(S'w'
I9
tp1946
a(S'no_np'
I2
tp1947
a(S'no_ll'
I31
tp1948
a(S'w'
I3
tp1949
a(S'no_vo'
I7
tp1950
a(S'w'
I720
tp1951
a(S'no_vo'
I0
tp1952
a(S'w'
I5135
tp1953
a(S'w'
I1
tp1954
a(S'p1_ll'
I31
tp1955
a(S'w'
I2
tp1956
a(S'p1_vo'
I10
tp1957
a(S'w'
I6
tp1958
a(S'p2_ll'
I31
tp1959
a(S'w'
I2
tp1960
a(S'p2_vo'
I10
tp1961
a(S'w'
I10
tp1962
a(S'no_ll'
I31
tp1963
a(S'w'
I2
tp1964
a(S'no_vo'
I7
tp1965
a(S'w'
I710
tp1966
a(S'p1_vo'
I7
tp1967
a(S'w'
I4
tp1968
a(S'p2_vo'
I7
tp1969
a(S'w'
I5
tp1970
a(S'no_vo'
I0
tp1971
a(S'w'
I725
tp1972
a(S'p1_vo'
I5
tp1973
a(S'w'
I4
tp1974
a(S'p2_vo'
I5
tp1975
a(S'w'
I1464
tp1976
a(S'p1_vo'
I4
tp1977
a(S'w'
I4
tp1978
a(S'p2_vo'
I4
tp1979
a(S'w'
I2930
tp1980
a(S'p1_vo'
I0
tp1981
a(S'w'
I4
tp1982
a(S'p2_vo'
I0
tp1983
a(S'w'
I10
tp1984
a(S'no_ll'
I31
tp1985
a(S'w'
I2
tp1986
a(S'no_vo'
I7
tp1987
a(S'w'
I721
tp1988
a(S'no_vo'
I0
tp1989
a(S'w'
I5135
tp1990
a(S'p1_tl'
I46
tp1991
a(S'p1_ll'
I31
tp1992
a(S'w'
I3
tp1993
a(S'p1_vo'
I10
tp1994
a(S'w'
I6
tp1995
a(S'p2_tl'
I125
tp1996
a(S'p2_ll'
I31
tp1997
a(S'w'
I2
tp1998
a(S'p2_vo'
I10
tp1999
a(S'w'
I6
tp2000
a(S'tr_lh'
I0
tp2001
a(S'tr_lr'
I0
tp2002
a(S'w'
I8
tp2003
a(S'no_np'
I9
tp2004
a(S'no_ll'
I31
tp2005
a(S'w'
I3
tp2006
a(S'no_vo'
I12
tp2007
a(S'w'
I705
tp2008
a(S'p1_vo'
I7
tp2009
a(S'w'
I4
tp2010
a(S'p2_vo'
I7
tp2011
a(S'w'
I730
tp2012
a(S'p1_vo'
I5
tp2013
a(S'w'
I4
tp2014
a(S'p2_vo'
I5
tp2015
a(S'w'
I5
tp2016
a(S'no_vo'
I11
tp2017
a(S'w'
I727
tp2018
a(S'no_vo'
I9
tp2019
a(S'w'
I731
tp2020
a(S'p1_vo'
I4
tp2021
a(S'w'
I4
tp2022
a(S'p2_vo'
I4
tp2023
a(S'w'
I5
tp2024
a(S'no_vo'
I7
tp2025
a(S'w'
I728
tp2026
a(S'no_vo'
I5
tp2027
a(S'w'
I734
tp2028
a(S'no_vo'
I3
tp2029
a(S'w'
I733
tp2030
a(S'no_vo'
I2
tp2031
a(S'w'
I733
tp2032
a(S'p1_tl'
I29
tp2033
a(S'p1_ll'
I31
tp2034
a(S'w'
I2
tp2035
a(S'p1_vo'
I10
tp2036
a(S'w'
I6
tp2037
a(S'p2_tl'
I83
tp2038
a(S'p2_ll'
I31
tp2039
a(S'w'
I3
tp2040
a(S'p2_vo'
I10
tp2041
a(S'w'
I9
tp2042
a(S'no_np'
I1
tp2043
a(S'no_ll'
I31
tp2044
a(S'w'
I3
tp2045
a(S'no_vo'
I11
tp2046
a(S'w'
I709
tp2047
a(S'p1_vo'
I7
tp2048
a(S'w'
I4
tp2049
a(S'p2_vo'
I7
tp2050
a(S'w'
I5
tp2051
a(S'no_vo'
I7
tp2052
a(S'w'
I725
tp2053
a(S'p1_vo'
I5
tp2054
a(S'w'
I4
tp2055
a(S'p2_vo'
I5
tp2056
a(S'w'
I5
tp2057
a(S'no_vo'
I0
tp2058
a(S'w'
I1459
tp2059
a(S'p1_vo'
I4
tp2060
a(S'w'
I4
tp2061
a(S'p2_vo'
I4
tp2062
a(S'w'
I2930
tp2063
a(S'p1_vo'
I0
tp2064
a(S'w'
I5
tp2065
a(S'p2_vo'
I0
tp2066
a(S'w'
I10
tp2067
a(S'w'
I1
tp2068
a(S'no_ll'
I31
tp2069
a(S'w'
I2
tp2070
a(S'no_vo'
I11
tp2071
a(S'w'
I719
tp2072
a(S'no_vo'
I7
tp2073
a(S'w'
I734
tp2074
a(S'no_vo'
I0
tp2075
a(S'w'
I2940
tp2076
a(S'no_np'
I2
tp2077
a(S'w'
I1
tp2078
a(S'no_ll'
I31
tp2079
a(S'w'
I2
tp2080
a(S'no_vo'
I7
tp2081
a(S'w'
I726
tp2082
a(S'no_vo'
I0
tp2083
a(S'w'
I732
tp2084
a(S'p1_tl'
I254
tp2085
a(S'w'
I1
tp2086
a(S'p1_ll'
I31
tp2087
a(S'p1_th'
I0
tp2088
a(S'w'
I2
tp2089
a(S'p1_vo'
I10
tp2090
a(S'w'
I6
tp2091
a(S'p2_tl'
I46
tp2092
a(S'p2_ll'
I31
tp2093
a(S'w'
I2
tp2094
a(S'p2_vo'
I10
tp2095
a(S'w'
I8
tp2096
a(S'tr_ll'
I31
tp2097
a(S'w'
I2
tp2098
a(S'tr_lh'
I1
tp2099
a(S'tr_lr'
I127
tp2100
a(S'w'
I712
tp2101
a(S'p1_vo'
I7
tp2102
a(S'w'
I4
tp2103
a(S'p2_vo'
I7
tp2104
a(S'w'
I730
tp2105
a(S'p1_vo'
I5
tp2106
a(S'w'
I4
tp2107
a(S'p2_vo'
I5
tp2108
a(S'w'
I736
tp2109
a(S'no_np'
I1
tp2110
a(S'no_ll'
I31
tp2111
a(S'w'
I3
tp2112
a(S'no_vo'
I11
tp2113
a(S'w'
I725
tp2114
a(S'p1_vo'
I4
tp2115
a(S'w'
I4
tp2116
a(S'p2_vo'
I4
tp2117
a(S'w'
I5
tp2118
a(S'no_vo'
I7
tp2119
a(S'w'
I727
tp2120
a(S'no_vo'
I0
tp2121
a(S'w'
I2198
tp2122
a(S'p1_vo'
I0
tp2123
a(S'w'
I5
tp2124
a(S'p2_vo'
I0
tp2125
a(S'w'
I4
tp2126
a(S'tr_lh'
I0
tp2127
a(S'tr_lr'
I0
tp2128
a(S'w'
I9
tp2129
a(S'no_np'
I2
tp2130
a(S'w'
I1
tp2131
a(S'no_ll'
I31
tp2132
a(S'w'
I2
tp2133
a(S'no_vo'
I7
tp2134
a(S'w'
I716
tp2135
a(S'no_vo'
I0
tp2136
a(S'w'
I5135
tp2137
a(S'p1_tl'
I226
tp2138
a(S'p1_ll'
I31
tp2139
a(S'w'
I3
tp2140
a(S'p1_vo'
I10
tp2141
a(S'w'
I6
tp2142
a(S'p2_tl'
I29
tp2143
a(S'p2_ll'
I31
tp2144
a(S'w'
I2
tp2145
a(S'p2_vo'
I10
tp2146
a(S'w'
I6
tp2147
a(S'tr_tl'
I252
tp2148
a(S'tr_ll'
I31
tp2149
a(S'tr_th'
I1
tp2150
a(S'w'
I2
tp2151
a(S'tr_lh'
I1
tp2152
a(S'tr_lr'
I127
tp2153
a(S'w'
I9
tp2154
a(S'no_np'
I14
tp2155
a(S'no_ll'
I31
tp2156
a(S'w'
I2
tp2157
a(S'no_vo'
I15
tp2158
a(S'w'
I703
tp2159
a(S'p1_vo'
I7
tp2160
a(S'w'
I4
tp2161
a(S'p2_vo'
I7
tp2162
a(S'w'
I5
tp2163
a(S'no_vo'
I0
tp2164
a(S'w'
I725
tp2165
a(S'p1_vo'
I5
tp2166
a(S'w'
I4
tp2167
a(S'p2_vo'
I5
tp2168
a(S'w'
I1463
tp2169
a(S'p1_vo'
I4
tp2170
a(S'w'
I4
tp2171
a(S'p2_vo'
I4
tp2172
a(S'w'
I2934
tp2173
a(S'p1_tl'
I202
tp2174
a(S'p1_ll'
I31
tp2175
a(S'w'
I2
tp2176
a(S'p1_vo'
I10
tp2177
a(S'w'
I7
tp2178
a(S'p2_tl'
I254
tp2179
a(S'w'
I1
tp2180
a(S'p2_ll'
I31
tp2181
a(S'p2_th'
I0
tp2182
a(S'w'
I2
tp2183
a(S'p2_vo'
I10
tp2184
a(S'w'
I7
tp2185
a(S'tr_tl'
I197
tp2186
a(S'tr_ll'
I31
tp2187
a(S'w'
I11
tp2188
a(S'no_ll'
I31
tp2189
a(S'w'
I3
tp2190
a(S'no_vo'
I15
tp2191
a(S'w'
I698
tp2192
a(S'p1_vo'
I7
tp2193
a(S'w'
I4
tp2194
a(S'p2_vo'
I7
tp2195
a(S'w'
I5
tp2196
a(S'no_vo'
I0
tp2197
a(S'w'
I725
tp2198
a(S'p1_vo'
I5
tp2199
a(S'w'
I4
tp2200
a(S'p2_vo'
I5
tp2201
a(S'w'
I1464
tp2202
a(S'p1_vo'
I4
tp2203
a(S'w'
I4
tp2204
a(S'p2_vo'
I4
tp2205
a(S'w'
I2937
tp2206
a(S'no_np'
I2
tp2207
a(S'w'
I1
tp2208
a(S'no_ll'
I31
tp2209
a(S'w'
I2
tp2210
a(S'no_vo'
I7
tp2211
a(S'w'
I728
tp2212
a(S'no_vo'
I0
tp2213
a(S'w'
I5140
tp2214
a(S'no_np'
I9
tp2215
a(S'no_ll'
I31
tp2216
a(S'w'
I3
tp2217
a(S'no_vo'
I12
tp2218
a(S'w'
I1461
tp2219
a(S'no_vo'
I11
tp2220
a(S'w'
I734
tp2221
a(S'no_vo'
I9
tp2222
a(S'w'
I733
tp2223
a(S'no_vo'
I7
tp2224
a(S'w'
I734
tp2225
a(S'no_vo'
I5
tp2226
a(S'w'
I734
tp2227
a(S'no_vo'
I3
tp2228
a(S'w'
I734
tp2229
a(S'no_vo'
I2
tp2230
a(S'w'
I737
tp2231
a(S'no_np'
I1
tp2232
a(S'w'
I1
tp2233
a(S'no_ll'
I31
tp2234
a(S'w'
I2
tp2235
a(S'no_vo'
I11
tp2236
a(S'w'
I727
tp2237
a(S'no_vo'
I7
tp2238
a(S'w'
I734
tp2239
a(S'no_vo'
I0
tp2240
a(S'w'
I4407
tp2241
a(S'no_np'
I9
tp2242
a(S'no_ll'
I31
tp2243
a(S'w'
I2
tp2244
a(S'no_vo'
I12
tp2245
a(S'w'
I1462
tp2246
a(S'no_vo'
I11
tp2247
a(S'w'
I733
tp2248
a(S'no_vo'
I9
tp2249
a(S'w'
I734
tp2250
a(S'no_vo'
I7
tp2251
a(S'w'
I734
tp2252
a(S'no_vo'
I5
tp2253
a(S'w'
I734
tp2254
a(S'no_vo'
I3
tp2255
a(S'w'
I734
tp2256
a(S'no_vo'
I2
tp2257
a(S'w'
I737
tp2258
a(S'no_ll'
I31
tp2259
a(S'w'
I3
tp2260
a(S'no_vo'
I12
tp2261
a(S'w'
I1461
tp2262
a(S'no_vo'
I11
tp2263
a(S'w'
I734
tp2264
a(S'no_vo'
I9
tp2265
a(S'w'
I734
tp2266
a(S'no_vo'
I7
tp2267
a(S'w'
I733
tp2268
a(S'no_vo'
I5
tp2269
a(S'w'
I734
tp2270
a(S'no_vo'
I3
tp2271
a(S'w'
I734
tp2272
a(S'no_vo'
I2
tp2273
a(S'w'
I733
tp2274
a(S'p1_tl'
I190
tp2275
a(S'w'
I1
tp2276
a(S'p1_ll'
I31
tp2277
a(S'w'
I2
tp2278
a(S'p1_vo'
I10
tp2279
a(S'w'
I7
tp2280
a(S'p2_tl'
I226
tp2281
a(S'p2_ll'
I31
tp2282
a(S'w'
I3
tp2283
a(S'p2_vo'
I10
tp2284
a(S'w'
I6
tp2285
a(S'tr_tl'
I83
tp2286
a(S'w'
I1
tp2287
a(S'tr_ll'
I31
tp2288
a(S'w'
I13
tp2289
a(S'no_np'
I14
tp2290
a(S'no_ll'
I31
tp2291
a(S'w'
I2
tp2292
a(S'no_vo'
I15
tp2293
a(S'w'
I697
tp2294
a(S'p1_vo'
I7
tp2295
a(S'w'
I4
tp2296
a(S'p2_vo'
I7
tp2297
a(S'w'
I5
tp2298
a(S'no_vo'
I0
tp2299
a(S'w'
I725
tp2300
a(S'p1_vo'
I5
tp2301
a(S'w'
I4
tp2302
a(S'p2_vo'
I5
tp2303
a(S'w'
I1463
tp2304
a(S'p1_vo'
I4
tp2305
a(S'w'
I4
tp2306
a(S'p2_vo'
I4
tp2307
a(S'w'
I2931
tp2308
a(S'p1_vo'
I0
tp2309
a(S'w'
I4
tp2310
a(S'p2_vo'
I0
tp2311
a(S'w'
I10
tp2312
a(S'no_np'
I8
tp2313
a(S'no_ll'
I31
tp2314
a(S'w'
I2
tp2315
a(S'no_vo'
I3
tp2316
a(S'w'
I1455
tp2317
a(S'no_vo'
I1
tp2318
a(S'w'
I734
tp2319
a(S'no_vo'
I0
tp2320
a(S'w'
I3667
tp2321
a(S'p1_ll'
I31
tp2322
a(S'w'
I3
tp2323
a(S'p1_vo'
I10
tp2324
a(S'w'
I5
tp2325
a(S'w'
I1
tp2326
a(S'p2_ll'
I31
tp2327
a(S'w'
I2
tp2328
a(S'p2_vo'
I10
tp2329
a(S'w'
I9
tp2330
a(S'w'
I1
tp2331
a(S'no_ll'
I31
tp2332
a(S'w'
I2
tp2333
a(S'no_vo'
I3
tp2334
a(S'w'
I710
tp2335
a(S'p1_vo'
I7
tp2336
a(S'w'
I4
tp2337
a(S'p2_vo'
I7
tp2338
a(S'w'
I730
tp2339
a(S'p1_vo'
I5
tp2340
a(S'w'
I4
tp2341
a(S'p2_vo'
I5
tp2342
a(S'w'
I4
tp2343
a(S'no_vo'
I1
tp2344
a(S'w'
I728
tp2345
a(S'no_vo'
I0
tp2346
a(S'w'
I731
tp2347
a(S'p1_vo'
I4
tp2348
a(S'w'
I4
tp2349
a(S'p2_vo'
I4
tp2350
a(S'w'
I2932
tp2351
a(S'p1_tl'
I226
tp2352
a(S'w'
I1
tp2353
a(S'p1_ll'
I31
tp2354
a(S'w'
I2
tp2355
a(S'p1_vo'
I10
tp2356
a(S'w'
I6
tp2357
a(S'p2_tl'
I29
tp2358
a(S'p2_ll'
I31
tp2359
a(S'p2_th'
I1
tp2360
a(S'w'
I2
tp2361
a(S'p2_vo'
I10
tp2362
a(S'w'
I7
tp2363
a(S'tr_tl'
I226
tp2364
a(S'w'
I1
tp2365
a(S'tr_ll'
I31
tp2366
a(S'tr_th'
I0
tp2367
a(S'w'
I10
tp2368
a(S'no_np'
I9
tp2369
a(S'w'
I1
tp2370
a(S'no_ll'
I31
tp2371
a(S'w'
I2
tp2372
a(S'no_vo'
I12
tp2373
a(S'w'
I701
tp2374
a(S'p1_vo'
I7
tp2375
a(S'w'
I4
tp2376
a(S'p2_vo'
I7
tp2377
a(S'w'
I730
tp2378
a(S'p1_vo'
I5
tp2379
a(S'w'
I4
tp2380
a(S'p2_vo'
I5
tp2381
a(S'w'
I5
tp2382
a(S'no_vo'
I11
tp2383
a(S'w'
I727
tp2384
a(S'no_vo'
I9
tp2385
a(S'w'
I732
tp2386
a(S'p1_vo'
I4
tp2387
a(S'w'
I4
tp2388
a(S'p2_vo'
I4
tp2389
a(S'w'
I3
tp2390
a(S'tr_lh'
I0
tp2391
a(S'tr_lr'
I0
tp2392
a(S'w'
I5
tp2393
a(S'no_vo'
I7
tp2394
a(S'w'
I724
tp2395
a(S'no_vo'
I5
tp2396
a(S'w'
I734
tp2397
a(S'no_vo'
I3
tp2398
a(S'w'
I734
tp2399
a(S'no_vo'
I2
tp2400
a(S'w'
I730
tp2401
a(S'p1_vo'
I0
tp2402
a(S'w'
I4
tp2403
a(S'p2_vo'
I0
tp2404
a(S'w'
I8
tp2405
a(S'tr_ll'
I31
tp2406
a(S'w'
I2
tp2407
a(S'tr_lh'
I1
tp2408
a(S'tr_lr'
I127
tp2409
a(S'w'
I8
tp2410
a(S'no_np'
I8
tp2411
a(S'no_ll'
I31
tp2412
a(S'w'
I3
tp2413
a(S'no_vo'
I3
tp2414
a(S'w'
I1446
tp2415
a(S'no_vo'
I1
tp2416
a(S'w'
I734
tp2417
a(S'no_vo'
I0
tp2418
a(S'w'
I3667
tp2419
a(S'p1_ll'
I31
tp2420
a(S'w'
I3
tp2421
a(S'p1_vo'
I10
tp2422
a(S'w'
I6
tp2423
a(S'p2_ll'
I31
tp2424
a(S'w'
I2
tp2425
a(S'p2_vo'
I10
tp2426
a(S'w'
I10
tp2427
a(S'no_np'
I14
tp2428
a(S'no_ll'
I31
tp2429
a(S'w'
I2
tp2430
a(S'no_vo'
I15
tp2431
a(S'w'
I710
tp2432
a(S'p1_vo'
I7
tp2433
a(S'w'
I4
tp2434
a(S'p2_vo'
I7
tp2435
a(S'w'
I5
tp2436
a(S'no_vo'
I0
tp2437
a(S'w'
I725
tp2438
a(S'p1_vo'
I5
tp2439
a(S'w'
I4
tp2440
a(S'p2_vo'
I5
tp2441
a(S'w'
I1463
tp2442
a(S'p1_vo'
I4
tp2443
a(S'w'
I4
tp2444
a(S'p2_vo'
I4
tp2445
a(S'w'
I2931
tp2446
a(S'p1_vo'
I0
tp2447
a(S'w'
I4
tp2448
a(S'p2_vo'
I0
tp2449
a(S'w'
I10
tp2450
a(S'no_np'
I8
tp2451
a(S'no_ll'
I31
tp2452
a(S'w'
I2
tp2453
a(S'no_vo'
I3
tp2454
a(S'w'
I1455
tp2455
a(S'no_vo'
I1
tp2456
a(S'w'
I734
tp2457
a(S'no_vo'
I0
tp2458
a(S'w'
I3667
tp2459
a(S'p1_tl'
I29
tp2460
a(S'p1_ll'
I31
tp2461
a(S'p1_th'
I1
tp2462
a(S'w'
I3
tp2463
a(S'p1_vo'
I10
tp2464
a(S'w'
I5
tp2465
a(S'p2_tl'
I83
tp2466
a(S'w'
I1
tp2467
a(S'p2_ll'
I31
tp2468
a(S'w'
I2
tp2469
a(S'p2_vo'
I10
tp2470
a(S'w'
I7
tp2471
a(S'tr_tl'
I83
tp2472
a(S'tr_ll'
I31
tp2473
a(S'tr_th'
I1
tp2474
a(S'w'
I11
tp2475
a(S'no_np'
I9
tp2476
a(S'no_ll'
I31
tp2477
a(S'w'
I2
tp2478
a(S'no_vo'
I12
tp2479
a(S'w'
I702
tp2480
a(S'p1_vo'
I7
tp2481
a(S'w'
I4
tp2482
a(S'p2_vo'
I7
tp2483
a(S'w'
I730
tp2484
a(S'p1_vo'
I5
tp2485
a(S'w'
I4
tp2486
a(S'p2_vo'
I5
tp2487
a(S'w'
I5
tp2488
a(S'no_vo'
I11
tp2489
a(S'w'
I727
tp2490
a(S'no_vo'
I9
tp2491
a(S'w'
I731
tp2492
a(S'p1_vo'
I4
tp2493
a(S'w'
I4
tp2494
a(S'p2_vo'
I4
tp2495
a(S'w'
I4
tp2496
a(S'tr_lh'
I0
tp2497
a(S'tr_lr'
I0
tp2498
a(S'w'
I4
tp2499
a(S'no_vo'
I7
tp2500
a(S'w'
I725
tp2501
a(S'no_vo'
I5
tp2502
a(S'w'
I733
tp2503
a(S'no_vo'
I3
tp2504
a(S'w'
I734
tp2505
a(S'no_vo'
I2
tp2506
a(S'w'
I731
tp2507
a(S'p1_vo'
I0
tp2508
a(S'w'
I4
tp2509
a(S'p2_vo'
I0
tp2510
a(S'w'
I7
tp2511
a(S'tr_ll'
I31
tp2512
a(S'w'
I2
tp2513
a(S'tr_lh'
I1
tp2514
a(S'tr_lr'
I127
tp2515
a(S'w'
I9
tp2516
a(S'no_np'
I8
tp2517
a(S'no_ll'
I31
tp2518
a(S'w'
I3
tp2519
a(S'no_vo'
I3
tp2520
a(S'w'
I1446
tp2521
a(S'no_vo'
I1
tp2522
a(S'w'
I734
tp2523
a(S'no_vo'
I0
tp2524
a(S'w'
I3667
tp2525
a(S'p1_ll'
I31
tp2526
a(S'w'
I2
tp2527
a(S'p1_vo'
I10
tp2528
a(S'w'
I6
tp2529
a(S'p2_ll'
I31
tp2530
a(S'w'
I3
tp2531
a(S'p2_vo'
I10
tp2532
a(S'w'
I9
tp2533
a(S'w'
I1
tp2534
a(S'no_ll'
I31
tp2535
a(S'w'
I2
tp2536
a(S'no_vo'
I3
tp2537
a(S'w'
I710
tp2538
a(S'p1_vo'
I7
tp2539
a(S'w'
I4
tp2540
a(S'p2_vo'
I7
tp2541
a(S'w'
I729
tp2542
a(S'p1_vo'
I5
tp2543
a(S'w'
I4
tp2544
a(S'p2_vo'
I5
tp2545
a(S'w'
I5
tp2546
a(S'no_vo'
I1
tp2547
a(S'w'
I728
tp2548
a(S'no_vo'
I0
tp2549
a(S'w'
I731
tp2550
a(S'p1_vo'
I4
tp2551
a(S'w'
I4
tp2552
a(S'p2_vo'
I4
tp2553
a(S'w'
I2931
tp2554
a(S'p1_vo'
I0
tp2555
a(S'w'
I4
tp2556
a(S'p2_vo'
I0
tp2557
a(S'w'
I9
tp2558
a(S'w'
I1
tp2559
a(S'no_ll'
I31
tp2560
a(S'w'
I2
tp2561
a(S'no_vo'
I3
tp2562
a(S'w'
I1454
tp2563
a(S'no_vo'
I1
tp2564
a(S'w'
I734
tp2565
a(S'no_vo'
I0
tp2566
a(S'w'
I3668
tp2567
a(S'p1_ll'
I31
tp2568
a(S'w'
I2
tp2569
a(S'p1_vo'
I10
tp2570
a(S'w'
I6
tp2571
a(S'p2_ll'
I31
tp2572
a(S'w'
I3
tp2573
a(S'p2_vo'
I10
tp2574
a(S'w'
I7
tp2575
a(S'tr_tl'
I226
tp2576
a(S'tr_ll'
I31
tp2577
a(S'tr_th'
I0
tp2578
a(S'w'
I10
tp2579
a(S'no_np'
I14
tp2580
a(S'w'
I1
tp2581
a(S'no_ll'
I31
tp2582
a(S'w'
I2
tp2583
a(S'no_vo'
I15
tp2584
a(S'w'
I701
tp2585
a(S'p1_vo'
I7
tp2586
a(S'w'
I4
tp2587
a(S'p2_vo'
I7
tp2588
a(S'w'
I5
tp2589
a(S'no_vo'
I0
tp2590
a(S'w'
I725
tp2591
a(S'p1_vo'
I5
tp2592
a(S'w'
I4
tp2593
a(S'p2_vo'
I5
tp2594
a(S'w'
I1464
tp2595
a(S'p1_vo'
I4
tp2596
a(S'w'
I4
tp2597
a(S'p2_vo'
I4
tp2598
a(S'w'
I3
tp2599
a(S'tr_lh'
I0
tp2600
a(S'tr_lr'
I0
tp2601
a(S'w'
I2929
tp2602
a(S'p1_ll'
I31
tp2603
a(S'w'
I3
tp2604
a(S'p1_vo'
I10
tp2605
a(S'w'
I5
tp2606
a(S'w'
I1
tp2607
a(S'p2_ll'
I31
tp2608
a(S'w'
I2
tp2609
a(S'p2_vo'
I10
tp2610
a(S'w'
I7
tp2611
a(S'tr_ll'
I31
tp2612
a(S'w'
I2
tp2613
a(S'tr_lh'
I1
tp2614
a(S'tr_lr'
I127
tp2615
a(S'w'
I9
tp2616
a(S'no_np'
I9
tp2617
a(S'no_ll'
I31
tp2618
a(S'w'
I3
tp2619
a(S'no_vo'
I12
tp2620
a(S'w'
I701
tp2621
a(S'p1_vo'
I7
tp2622
a(S'w'
I4
tp2623
a(S'p2_vo'
I7
tp2624
a(S'w'
I730
tp2625
a(S'p1_vo'
I5
tp2626
a(S'w'
I4
tp2627
a(S'p2_vo'
I5
tp2628
a(S'w'
I5
tp2629
a(S'no_vo'
I11
tp2630
a(S'w'
I727
tp2631
a(S'no_vo'
I9
tp2632
a(S'w'
I731
tp2633
a(S'p1_vo'
I4
tp2634
a(S'w'
I4
tp2635
a(S'p2_vo'
I4
tp2636
a(S'w'
I5
tp2637
a(S'no_vo'
I7
tp2638
a(S'w'
I728
tp2639
a(S'no_vo'
I5
tp2640
a(S'w'
I734
tp2641
a(S'no_vo'
I3
tp2642
a(S'w'
I733
tp2643
a(S'no_vo'
I2
tp2644
a(S'w'
I731
tp2645
a(S'p1_vo'
I0
tp2646
a(S'w'
I4
tp2647
a(S'p2_vo'
I0
tp2648
a(S'w'
I10
tp2649
a(S'no_ll'
I31
tp2650
a(S'w'
I2
tp2651
a(S'no_vo'
I12
tp2652
a(S'w'
I1455
tp2653
a(S'no_vo'
I11
tp2654
a(S'w'
I734
tp2655
a(S'no_vo'
I9
tp2656
a(S'w'
I733
tp2657
a(S'no_vo'
I7
tp2658
a(S'w'
I734
tp2659
a(S'no_vo'
I5
tp2660
a(S'w'
I734
tp2661
a(S'no_vo'
I3
tp2662
a(S'w'
I734
tp2663
a(S'no_vo'
I2
tp2664
a(S'w'
I732
tp2665
a(S'p1_tl'
I226
tp2666
a(S'p1_ll'
I31
tp2667
a(S'p1_th'
I0
tp2668
a(S'w'
I3
tp2669
a(S'p1_vo'
I10
tp2670
a(S'w'
I5
tp2671
a(S'p2_tl'
I29
tp2672
a(S'w'
I1
tp2673
a(S'p2_ll'
I31
tp2674
a(S'w'
I2
tp2675
a(S'p2_vo'
I10
tp2676
a(S'w'
I6
tp2677
a(S'tr_tl'
I83
tp2678
a(S'tr_ll'
I31
tp2679
a(S'tr_th'
I1
tp2680
a(S'w'
I10
tp2681
a(S'no_np'
I8
tp2682
a(S'w'
I1
tp2683
a(S'no_ll'
I31
tp2684
a(S'w'
I2
tp2685
a(S'no_vo'
I3
tp2686
a(S'w'
I703
tp2687
a(S'p1_vo'
I7
tp2688
a(S'w'
I4
tp2689
a(S'p2_vo'
I7
tp2690
a(S'w'
I729
tp2691
a(S'p1_vo'
I5
tp2692
a(S'w'
I4
tp2693
a(S'p2_vo'
I5
tp2694
a(S'w'
I5
tp2695
a(S'no_vo'
I1
tp2696
a(S'w'
I728
tp2697
a(S'no_vo'
I0
tp2698
a(S'w'
I731
tp2699
a(S'p1_vo'
I4
tp2700
a(S'w'
I4
tp2701
a(S'p2_vo'
I4
tp2702
a(S'w'
I2931
tp2703
a(S'p1_vo'
I0
tp2704
a(S'w'
I4
tp2705
a(S'p2_vo'
I0
tp2706
a(S'w'
I9
tp2707
a(S'w'
I1
tp2708
a(S'no_ll'
I31
tp2709
a(S'w'
I2
tp2710
a(S'no_vo'
I3
tp2711
a(S'w'
I1455
tp2712
a(S'no_vo'
I1
tp2713
a(S'w'
I733
tp2714
a(S'no_vo'
I0
tp2715
a(S'w'
I3669
tp2716
a(S'p1_tl'
I190
tp2717
a(S'p1_ll'
I31
tp2718
a(S'w'
I3
tp2719
a(S'p1_vo'
I10
tp2720
a(S'w'
I7
tp2721
a(S'p2_tl'
I240
tp2722
a(S'p2_ll'
I31
tp2723
a(S'p2_th'
I0
tp2724
a(S'w'
I2
tp2725
a(S'p2_vo'
I10
tp2726
a(S'w'
I7
tp2727
a(S'tr_tl'
I104
tp2728
a(S'tr_ll'
I31
tp2729
a(S'w'
I13
tp2730
a(S'no_np'
I14
tp2731
a(S'no_ll'
I31
tp2732
a(S'w'
I3
tp2733
a(S'no_vo'
I15
tp2734
a(S'w'
I697
tp2735
a(S'p1_vo'
I7
tp2736
a(S'w'
I4
tp2737
a(S'p2_vo'
I7
tp2738
a(S'w'
I4
tp2739
a(S'no_vo'
I0
tp2740
a(S'w'
I725
tp2741
a(S'p1_vo'
I5
tp2742
a(S'w'
I4
tp2743
a(S'p2_vo'
I5
tp2744
a(S'w'
I1464
tp2745
a(S'p1_vo'
I4
tp2746
a(S'w'
I4
tp2747
a(S'p2_vo'
I4
tp2748
a(S'w'
I2931
tp2749
a(S'p1_vo'
I0
tp2750
a(S'w'
I4
tp2751
a(S'p2_vo'
I0
tp2752
a(S'w'
I9
tp2753
a(S'no_np'
I8
tp2754
a(S'no_ll'
I31
tp2755
a(S'w'
I3
tp2756
a(S'no_vo'
I3
tp2757
a(S'w'
I1454
tp2758
a(S'no_vo'
I1
tp2759
a(S'w'
I734
tp2760
a(S'no_vo'
I0
tp2761
a(S'w'
I3667
tp2762
a(S'w'
I1
tp2763
a(S'p1_ll'
I31
tp2764
a(S'w'
I2
tp2765
a(S'p1_vo'
I10
tp2766
a(S'w'
I6
tp2767
a(S'p2_ll'
I31
tp2768
a(S'w'
I3
tp2769
a(S'p2_vo'
I10
tp2770
a(S'w'
I9
tp2771
a(S'no_ll'
I31
tp2772
a(S'w'
I3
tp2773
a(S'no_vo'
I3
tp2774
a(S'w'
I709
tp2775
a(S'p1_vo'
I7
tp2776
a(S'w'
I4
tp2777
a(S'p2_vo'
I7
tp2778
a(S'w'
I730
tp2779
a(S'p1_vo'
I5
tp2780
a(S'w'
I4
tp2781
a(S'p2_vo'
I5
tp2782
a(S'w'
I5
tp2783
a(S'no_vo'
I1
tp2784
a(S'w'
I728
tp2785
a(S'no_vo'
I0
tp2786
a(S'w'
I731
tp2787
a(S'p1_vo'
I4
tp2788
a(S'w'
I4
tp2789
a(S'p2_vo'
I4
tp2790
a(S'w'
I2932
tp2791
a(S'p1_tl'
I240
tp2792
a(S'p1_ll'
I31
tp2793
a(S'w'
I3
tp2794
a(S'p1_vo'
I10
tp2795
a(S'w'
I5
tp2796
a(S'p2_tl'
I29
tp2797
a(S'w'
I1
tp2798
a(S'p2_ll'
I31
tp2799
a(S'p2_th'
I1
tp2800
a(S'w'
I2
tp2801
a(S'p2_vo'
I10
tp2802
a(S'w'
I7
tp2803
a(S'tr_tl'
I240
tp2804
a(S'tr_ll'
I31
tp2805
a(S'tr_th'
I0
tp2806
a(S'w'
I11
tp2807
a(S'no_np'
I9
tp2808
a(S'no_ll'
I31
tp2809
a(S'w'
I2
tp2810
a(S'no_vo'
I12
tp2811
a(S'w'
I702
tp2812
a(S'p1_vo'
I7
tp2813
a(S'w'
I4
tp2814
a(S'p2_vo'
I7
tp2815
a(S'w'
I730
tp2816
a(S'p1_vo'
I5
tp2817
a(S'w'
I4
tp2818
a(S'p2_vo'
I5
tp2819
a(S'w'
I4
tp2820
a(S'no_vo'
I11
tp2821
a(S'w'
I728
tp2822
a(S'no_vo'
I9
tp2823
a(S'w'
I731
tp2824
a(S'p1_vo'
I4
tp2825
a(S'w'
I4
tp2826
a(S'p2_vo'
I4
tp2827
a(S'w'
I4
tp2828
a(S'tr_lh'
I0
tp2829
a(S'tr_lr'
I0
tp2830
a(S'w'
I4
tp2831
a(S'no_vo'
I7
tp2832
a(S'w'
I725
tp2833
a(S'no_vo'
I5
tp2834
a(S'w'
I733
tp2835
a(S'no_vo'
I3
tp2836
a(S'w'
I734
tp2837
a(S'no_vo'
I2
tp2838
a(S'w'
I731
tp2839
a(S'p1_vo'
I0
tp2840
a(S'w'
I4
tp2841
a(S'p2_vo'
I0
tp2842
a(S'w'
I7
tp2843
a(S'tr_ll'
I31
tp2844
a(S'w'
I2
tp2845
a(S'tr_lh'
I1
tp2846
a(S'tr_lr'
I127
tp2847
a(S'w'
I9
tp2848
a(S'no_np'
I8
tp2849
a(S'no_ll'
I31
tp2850
a(S'w'
I2
tp2851
a(S'no_vo'
I3
tp2852
a(S'w'
I1447
tp2853
a(S'no_vo'
I1
tp2854
a(S'w'
I733
tp2855
a(S'no_vo'
I0
tp2856
a(S'w'
I3668
tp2857
a(S'p1_ll'
I31
tp2858
a(S'w'
I2
tp2859
a(S'p1_vo'
I10
tp2860
a(S'w'
I6
tp2861
a(S'p2_ll'
I31
tp2862
a(S'w'
I3
tp2863
a(S'p2_vo'
I10
tp2864
a(S'w'
I9
tp2865
a(S'no_np'
I14
tp2866
a(S'no_ll'
I31
tp2867
a(S'w'
I3
tp2868
a(S'no_vo'
I15
tp2869
a(S'w'
I710
tp2870
a(S'p1_vo'
I7
tp2871
a(S'w'
I4
tp2872
a(S'p2_vo'
I7
tp2873
a(S'w'
I4
tp2874
a(S'no_vo'
I0
tp2875
a(S'w'
I725
tp2876
a(S'p1_vo'
I5
tp2877
a(S'w'
I4
tp2878
a(S'p2_vo'
I5
tp2879
a(S'w'
I1464
tp2880
a(S'p1_vo'
I4
tp2881
a(S'w'
I4
tp2882
a(S'p2_vo'
I4
tp2883
a(S'w'
I2931
tp2884
a(S'p1_vo'
I0
tp2885
a(S'w'
I4
tp2886
a(S'p2_vo'
I0
tp2887
a(S'w'
I9
tp2888
a(S'no_np'
I8
tp2889
a(S'w'
I1
tp2890
a(S'no_ll'
I31
tp2891
a(S'w'
I2
tp2892
a(S'no_vo'
I3
tp2893
a(S'w'
I1454
tp2894
a(S'no_vo'
I1
tp2895
a(S'w'
I734
tp2896
a(S'no_vo'
I0
tp2897
a(S'w'
I3668
tp2898
a(S'p1_tl'
I29
tp2899
a(S'p1_ll'
I31
tp2900
a(S'p1_th'
I1
tp2901
a(S'w'
I2
tp2902
a(S'p1_vo'
I10
tp2903
a(S'w'
I6
tp2904
a(S'p2_tl'
I104
tp2905
a(S'p2_ll'
I31
tp2906
a(S'w'
I3
tp2907
a(S'p2_vo'
I10
tp2908
a(S'w'
I7
tp2909
a(S'tr_tl'
I104
tp2910
a(S'tr_ll'
I31
tp2911
a(S'tr_th'
I1
tp2912
a(S'w'
I10
tp2913
a(S'no_np'
I9
tp2914
a(S'w'
I1
tp2915
a(S'no_ll'
I31
tp2916
a(S'w'
I2
tp2917
a(S'no_vo'
I12
tp2918
a(S'w'
I701
tp2919
a(S'p1_vo'
I7
tp2920
a(S'w'
I4
tp2921
a(S'p2_vo'
I7
tp2922
a(S'w'
I730
tp2923
a(S'p1_vo'
I5
tp2924
a(S'w'
I4
tp2925
a(S'p2_vo'
I5
tp2926
a(S'w'
I5
tp2927
a(S'no_vo'
I11
tp2928
a(S'w'
I728
tp2929
a(S'no_vo'
I9
tp2930
a(S'w'
I731
tp2931
a(S'p1_vo'
I4
tp2932
a(S'w'
I4
tp2933
a(S'p2_vo'
I4
tp2934
a(S'w'
I3
tp2935
a(S'tr_lh'
I0
tp2936
a(S'tr_lr'
I0
tp2937
a(S'w'
I5
tp2938
a(S'no_vo'
I7
tp2939
a(S'w'
I724
tp2940
a(S'no_vo'
I5
tp2941
a(S'w'
I734
tp2942
a(S'no_vo'
I3
tp2943
a(S'w'
I734
tp2944
a(S'no_vo'
I2
tp2945
a(S'w'
I731
tp2946
a(S'p1_vo'
I0
tp2947
a(S'w'
I4
tp2948
a(S'p2_vo'
I0
tp2949
a(S'w'
I7
tp2950
a(S'tr_ll'
I31
tp2951
a(S'w'
I2
tp2952
a(S'tr_lh'
I1
tp2953
a(S'tr_lr'
I127
tp2954
a(S'w'
I8
tp2955
a(S'no_np'
I8
tp2956
a(S'w'
I1
tp2957
a(S'no_ll'
I31
tp2958
a(S'w'
I2
tp2959
a(S'no_vo'
I3
tp2960
a(S'w'
I1446
tp2961
a(S'no_vo'
I1
tp2962
a(S'w'
I734
tp2963
a(S'no_vo'
I0
tp2964
a(S'w'
I3667
tp2965
a(S'w'
I1
tp2966
a(S'p1_ll'
I31
tp2967
a(S'w'
I2
tp2968
a(S'p1_vo'
I10
tp2969
a(S'w'
I6
tp2970
a(S'p2_ll'
I31
tp2971
a(S'w'
I2
tp2972
a(S'p2_vo'
I10
tp2973
a(S'w'
I10
tp2974
a(S'no_ll'
I31
tp2975
a(S'w'
I3
tp2976
a(S'no_vo'
I3
tp2977
a(S'w'
I709
tp2978
a(S'p1_vo'
I7
tp2979
a(S'w'
I4
tp2980
a(S'p2_vo'
I7
tp2981
a(S'w'
I730
tp2982
a(S'p1_vo'
I5
tp2983
a(S'w'
I4
tp2984
a(S'p2_vo'
I5
tp2985
a(S'w'
I5
tp2986
a(S'no_vo'
I1
tp2987
a(S'w'
I728
tp2988
a(S'no_vo'
I0
tp2989
a(S'w'
I731
tp2990
a(S'p1_vo'
I4
tp2991
a(S'w'
I4
tp2992
a(S'p2_vo'
I4
tp2993
a(S'w'
I2930
tp2994
a(S'p1_vo'
I0
tp2995
a(S'w'
I5
tp2996
a(S'p2_vo'
I0
tp2997
a(S'w'
I9
tp2998
a(S'no_ll'
I31
tp2999
a(S'w'
I3
tp3000
a(S'no_vo'
I3
tp3001
a(S'w'
I1454
tp3002
a(S'no_vo'
I1
tp3003
a(S'w'
I734
tp3004
a(S'no_vo'
I0
tp3005
a(S'w'
I3667
tp3006
a(S'p1_ll'
I31
tp3007
a(S'w'
I3
tp3008
a(S'p1_vo'
I10
tp3009
a(S'w'
I6
tp3010
a(S'p2_ll'
I31
tp3011
a(S'w'
I2
tp3012
a(S'p2_vo'
I10
tp3013
a(S'w'
I7
tp3014
a(S'tr_tl'
I240
tp3015
a(S'tr_ll'
I31
tp3016
a(S'tr_th'
I0
tp3017
a(S'w'
I11
tp3018
a(S'no_np'
I14
tp3019
a(S'no_ll'
I31
tp3020
a(S'w'
I3
tp3021
a(S'no_vo'
I15
tp3022
a(S'w'
I701
tp3023
a(S'p1_vo'
I7
tp3024
a(S'w'
I4
tp3025
a(S'p2_vo'
I7
tp3026
a(S'w'
I5
tp3027
a(S'no_vo'
I0
tp3028
a(S'w'
I725
tp3029
a(S'p1_vo'
I5
tp3030
a(S'w'
I4
tp3031
a(S'p2_vo'
I5
tp3032
a(S'w'
I1463
tp3033
a(S'p1_vo'
I4
tp3034
a(S'w'
I4
tp3035
a(S'p2_vo'
I4
tp3036
a(S'w'
I4
tp3037
a(S'tr_lh'
I0
tp3038
a(S'tr_lr'
I0
tp3039
a(S'w'
I2929
tp3040
a(S'p1_ll'
I31
tp3041
a(S'w'
I2
tp3042
a(S'p1_vo'
I10
tp3043
a(S'w'
I6
tp3044
a(S'p2_ll'
I31
tp3045
a(S'w'
I3
tp3046
a(S'p2_vo'
I10
tp3047
a(S'w'
I7
tp3048
a(S'tr_ll'
I31
tp3049
a(S'w'
I2
tp3050
a(S'tr_lh'
I1
tp3051
a(S'tr_lr'
I127
tp3052
a(S'w'
I8
tp3053
a(S'no_np'
I9
tp3054
a(S'w'
I1
tp3055
a(S'no_ll'
I31
tp3056
a(S'w'
I2
tp3057
a(S'no_vo'
I12
tp3058
a(S'w'
I701
tp3059
a(S'p1_vo'
I7
tp3060
a(S'w'
I4
tp3061
a(S'p2_vo'
I7
tp3062
a(S'w'
I730
tp3063
a(S'p1_vo'
I5
tp3064
a(S'w'
I4
tp3065
a(S'p2_vo'
I5
tp3066
a(S'w'
I5
tp3067
a(S'no_vo'
I11
tp3068
a(S'w'
I728
tp3069
a(S'no_vo'
I9
tp3070
a(S'w'
I731
tp3071
a(S'p1_vo'
I4
tp3072
a(S'w'
I4
tp3073
a(S'p2_vo'
I4
tp3074
a(S'w'
I5
tp3075
a(S'no_vo'
I7
tp3076
a(S'w'
I727
tp3077
a(S'no_vo'
I5
tp3078
a(S'w'
I734
tp3079
a(S'no_vo'
I3
tp3080
a(S'w'
I734
tp3081
a(S'no_vo'
I2
tp3082
a(S'w'
I731
tp3083
a(S'p1_vo'
I0
tp3084
a(S'w'
I4
tp3085
a(S'p2_vo'
I0
tp3086
a(S'w'
I9
tp3087
a(S'no_ll'
I31
tp3088
a(S'w'
I3
tp3089
a(S'no_vo'
I12
tp3090
a(S'w'
I1454
tp3091
a(S'no_vo'
I11
tp3092
a(S'w'
I734
tp3093
a(S'no_vo'
I9
tp3094
a(S'w'
I734
tp3095
a(S'no_vo'
I7
tp3096
a(S'w'
I734
tp3097
a(S'no_vo'
I5
tp3098
a(S'w'
I734
tp3099
a(S'no_vo'
I3
tp3100
a(S'w'
I733
tp3101
a(S'no_vo'
I2
tp3102
a(S'w'
I732
tp3103
a(S'p1_tl'
I240
tp3104
a(S'w'
I1
tp3105
a(S'p1_ll'
I31
tp3106
a(S'p1_th'
I0
tp3107
a(S'w'
I2
tp3108
a(S'p1_vo'
I10
tp3109
a(S'w'
I6
tp3110
a(S'p2_tl'
I29
tp3111
a(S'p2_ll'
I31
tp3112
a(S'w'
I3
tp3113
a(S'p2_vo'
I10
tp3114
a(S'w'
I5
tp3115
a(S'tr_tl'
I104
tp3116
a(S'w'
I1
tp3117
a(S'tr_ll'
I31
tp3118
a(S'tr_th'
I1
tp3119
a(S'w'
I10
tp3120
a(S'no_np'
I8
tp3121
a(S'no_ll'
I31
tp3122
a(S'w'
I3
tp3123
a(S'no_vo'
I3
tp3124
a(S'w'
I702
tp3125
a(S'p1_vo'
I7
tp3126
a(S'w'
I4
tp3127
a(S'p2_vo'
I7
tp3128
a(S'w'
I730
tp3129
a(S'p1_vo'
I5
tp3130
a(S'w'
I4
tp3131
a(S'p2_vo'
I5
tp3132
a(S'w'
I5
tp3133
a(S'no_vo'
I1
tp3134
a(S'w'
I728
tp3135
a(S'no_vo'
I0
tp3136
a(S'w'
I731
tp3137
a(S'p1_vo'
I4
tp3138
a(S'w'
I4
tp3139
a(S'p2_vo'
I4
tp3140
a(S'w'
I2930
tp3141
a(S'p1_vo'
I0
tp3142
a(S'w'
I5
tp3143
a(S'p2_vo'
I0
tp3144
a(S'w'
I9
tp3145
a(S'no_ll'
I31
tp3146
a(S'w'
I3
tp3147
a(S'no_vo'
I3
tp3148
a(S'w'
I1454
tp3149
a(S'no_vo'
I1
tp3150
a(S'w'
I734
tp3151
a(S'no_vo'
I0
tp3152
a(S'w'
I3668
tp3153
a(S'p1_tl'
I190
tp3154
a(S'w'
I1
tp3155
a(S'p1_ll'
I31
tp3156
a(S'w'
I2
tp3157
a(S'p1_vo'
I10
tp3158
a(S'w'
I7
tp3159
a(S'p2_tl'
I226
tp3160
a(S'p2_ll'
I31
tp3161
a(S'p2_th'
I0
tp3162
a(S'w'
I3
tp3163
a(S'p2_vo'
I10
tp3164
a(S'w'
I7
tp3165
a(S'tr_tl'
I83
tp3166
a(S'tr_ll'
I31
tp3167
a(S'w'
I13
tp3168
a(S'no_np'
I14
tp3169
a(S'no_ll'
I31
tp3170
a(S'w'
I2
tp3171
a(S'no_vo'
I15
tp3172
a(S'w'
I697
tp3173
a(S'p1_vo'
I7
tp3174
a(S'w'
I4
tp3175
a(S'p2_vo'
I7
tp3176
a(S'w'
I5
tp3177
a(S'no_vo'
I0
tp3178
a(S'w'
I725
tp3179
a(S'p1_vo'
I5
tp3180
a(S'w'
I4
tp3181
a(S'p2_vo'
I5
tp3182
a(S'w'
I1464
tp3183
a(S'p1_vo'
I4
tp3184
a(S'w'
I4
tp3185
a(S'p2_vo'
I4
tp3186
a(S'w'
I2930
tp3187
a(S'p1_vo'
I0
tp3188
a(S'w'
I4
tp3189
a(S'p2_vo'
I0
tp3190
a(S'w'
I10
tp3191
a(S'no_np'
I8
tp3192
a(S'no_ll'
I31
tp3193
a(S'w'
I2
tp3194
a(S'no_vo'
I3
tp3195
a(S'w'
I1455
tp3196
a(S'no_vo'
I1
tp3197
a(S'w'
I734
tp3198
a(S'no_vo'
I0
tp3199
a(S'w'
I3667
tp3200
a(S'p1_ll'
I31
tp3201
a(S'w'
I3
tp3202
a(S'p1_vo'
I10
tp3203
a(S'w'
I5
tp3204
a(S'w'
I1
tp3205
a(S'p2_ll'
I31
tp3206
a(S'w'
I2
tp3207
a(S'p2_vo'
I10
tp3208
a(S'w'
I10
tp3209
a(S'no_ll'
I31
tp3210
a(S'w'
I2
tp3211
a(S'no_vo'
I3
tp3212
a(S'w'
I710
tp3213
a(S'p1_vo'
I7
tp3214
a(S'w'
I4
tp3215
a(S'p2_vo'
I7
tp3216
a(S'w'
I730
tp3217
a(S'p1_vo'
I5
tp3218
a(S'w'
I4
tp3219
a(S'p2_vo'
I5
tp3220
a(S'w'
I5
tp3221
a(S'no_vo'
I1
tp3222
a(S'w'
I727
tp3223
a(S'no_vo'
I0
tp3224
a(S'w'
I731
tp3225
a(S'p1_vo'
I4
tp3226
a(S'w'
I4
tp3227
a(S'p2_vo'
I4
tp3228
a(S'w'
I2932
tp3229
a(S'p1_tl'
I226
tp3230
a(S'w'
I1
tp3231
a(S'p1_ll'
I31
tp3232
a(S'w'
I2
tp3233
a(S'p1_vo'
I10
tp3234
a(S'w'
I6
tp3235
a(S'p2_tl'
I29
tp3236
a(S'p2_ll'
I31
tp3237
a(S'p2_th'
I1
tp3238
a(S'w'
I3
tp3239
a(S'p2_vo'
I10
tp3240
a(S'w'
I6
tp3241
a(S'tr_tl'
I226
tp3242
a(S'w'
I1
tp3243
a(S'tr_ll'
I31
tp3244
a(S'tr_th'
I0
tp3245
a(S'w'
I10
tp3246
a(S'no_np'
I9
tp3247
a(S'w'
I1
tp3248
a(S'no_ll'
I31
tp3249
a(S'w'
I2
tp3250
a(S'no_vo'
I12
tp3251
a(S'w'
I701
tp3252
a(S'p1_vo'
I7
tp3253
a(S'w'
I4
tp3254
a(S'p2_vo'
I7
tp3255
a(S'w'
I730
tp3256
a(S'p1_vo'
I5
tp3257
a(S'w'
I4
tp3258
a(S'p2_vo'
I5
tp3259
a(S'w'
I5
tp3260
a(S'no_vo'
I11
tp3261
a(S'w'
I728
tp3262
a(S'no_vo'
I9
tp3263
a(S'w'
I731
tp3264
a(S'p1_vo'
I4
tp3265
a(S'w'
I4
tp3266
a(S'p2_vo'
I4
tp3267
a(S'w'
I3
tp3268
a(S'tr_lh'
I0
tp3269
a(S'tr_lr'
I0
tp3270
a(S'w'
I5
tp3271
a(S'no_vo'
I7
tp3272
a(S'w'
I724
tp3273
a(S'no_vo'
I5
tp3274
a(S'w'
I734
tp3275
a(S'no_vo'
I3
tp3276
a(S'w'
I734
tp3277
a(S'no_vo'
I2
tp3278
a(S'w'
I730
tp3279
a(S'p1_vo'
I0
tp3280
a(S'w'
I5
tp3281
a(S'p2_vo'
I0
tp3282
a(S'w'
I7
tp3283
a(S'tr_ll'
I31
tp3284
a(S'w'
I2
tp3285
a(S'tr_lh'
I1
tp3286
a(S'tr_lr'
I127
tp3287
a(S'w'
I8
tp3288
a(S'no_np'
I8
tp3289
a(S'w'
I1
tp3290
a(S'no_ll'
I31
tp3291
a(S'w'
I2
tp3292
a(S'no_vo'
I3
tp3293
a(S'w'
I1446
tp3294
a(S'no_vo'
I1
tp3295
a(S'w'
I734
tp3296
a(S'no_vo'
I0
tp3297
a(S'w'
I3667
tp3298
a(S'w'
I1
tp3299
a(S'p1_ll'
I31
tp3300
a(S'w'
I2
tp3301
a(S'p1_vo'
I10
tp3302
a(S'w'
I6
tp3303
a(S'p2_ll'
I31
tp3304
a(S'w'
I2
tp3305
a(S'p2_vo'
I10
tp3306
a(S'w'
I10
tp3307
a(S'no_np'
I14
tp3308
a(S'no_ll'
I31
tp3309
a(S'w'
I2
tp3310
a(S'no_vo'
I15
tp3311
a(S'w'
I710
tp3312
a(S'p1_vo'
I7
tp3313
a(S'w'
I4
tp3314
a(S'p2_vo'
I7
tp3315
a(S'w'
I5
tp3316
a(S'no_vo'
I0
tp3317
a(S'w'
I725
tp3318
a(S'p1_vo'
I5
tp3319
a(S'w'
I4
tp3320
a(S'p2_vo'
I5
tp3321
a(S'w'
I1464
tp3322
a(S'p1_vo'
I4
tp3323
a(S'w'
I4
tp3324
a(S'p2_vo'
I4
tp3325
a(S'w'
I2930
tp3326
a(S'p1_vo'
I0
tp3327
a(S'w'
I4
tp3328
a(S'p2_vo'
I0
tp3329
a(S'w'
I10
tp3330
a(S'no_np'
I8
tp3331
a(S'no_ll'
I31
tp3332
a(S'w'
I3
tp3333
a(S'no_vo'
I3
tp3334
a(S'w'
I1454
tp3335
a(S'no_vo'
I1
tp3336
a(S'w'
I734
tp3337
a(S'no_vo'
I0
tp3338
a(S'w'
I3667
tp3339
a(S'p1_tl'
I29
tp3340
a(S'p1_ll'
I31
tp3341
a(S'p1_th'
I1
tp3342
a(S'w'
I3
tp3343
a(S'p1_vo'
I10
tp3344
a(S'w'
I6
tp3345
a(S'p2_tl'
I83
tp3346
a(S'p2_ll'
I31
tp3347
a(S'w'
I2
tp3348
a(S'p2_vo'
I10
tp3349
a(S'w'
I7
tp3350
a(S'tr_tl'
I83
tp3351
a(S'tr_ll'
I31
tp3352
a(S'tr_th'
I1
tp3353
a(S'w'
I11
tp3354
a(S'no_np'
I9
tp3355
a(S'no_ll'
I31
tp3356
a(S'w'
I3
tp3357
a(S'no_vo'
I12
tp3358
a(S'w'
I701
tp3359
a(S'p1_vo'
I7
tp3360
a(S'w'
I4
tp3361
a(S'p2_vo'
I7
tp3362
a(S'w'
I730
tp3363
a(S'p1_vo'
I5
tp3364
a(S'w'
I4
tp3365
a(S'p2_vo'
I5
tp3366
a(S'w'
I5
tp3367
a(S'no_vo'
I11
tp3368
a(S'w'
I727
tp3369
a(S'no_vo'
I9
tp3370
a(S'w'
I731
tp3371
a(S'p1_vo'
I4
tp3372
a(S'w'
I4
tp3373
a(S'p2_vo'
I4
tp3374
a(S'w'
I4
tp3375
a(S'tr_lh'
I0
tp3376
a(S'tr_lr'
I0
tp3377
a(S'w'
I5
tp3378
a(S'no_vo'
I7
tp3379
a(S'w'
I724
tp3380
a(S'no_vo'
I5
tp3381
a(S'w'
I734
tp3382
a(S'no_vo'
I3
tp3383
a(S'w'
I733
tp3384
a(S'no_vo'
I2
tp3385
a(S'w'
I731
tp3386
a(S'p1_vo'
I0
tp3387
a(S'w'
I4
tp3388
a(S'p2_vo'
I0
tp3389
a(S'w'
I7
tp3390
a(S'tr_ll'
I31
tp3391
a(S'w'
I3
tp3392
a(S'tr_lh'
I1
tp3393
a(S'tr_lr'
I127
tp3394
a(S'w'
I8
tp3395
a(S'no_np'
I8
tp3396
a(S'no_ll'
I31
tp3397
a(S'w'
I3
tp3398
a(S'no_vo'
I3
tp3399
a(S'w'
I1446
tp3400
a(S'no_vo'
I1
tp3401
a(S'w'
I734
tp3402
a(S'no_vo'
I0
tp3403
a(S'w'
I3667
tp3404
a(S'p1_ll'
I31
tp3405
a(S'w'
I3
tp3406
a(S'p1_vo'
I10
tp3407
a(S'w'
I5
tp3408
a(S'w'
I1
tp3409
a(S'p2_ll'
I31
tp3410
a(S'w'
I2
tp3411
a(S'p2_vo'
I10
tp3412
a(S'w'
I9
tp3413
a(S'w'
I1
tp3414
a(S'no_ll'
I31
tp3415
a(S'w'
I2
tp3416
a(S'no_vo'
I3
tp3417
a(S'w'
I710
tp3418
a(S'p1_vo'
I7
tp3419
a(S'w'
I4
tp3420
a(S'p2_vo'
I7
tp3421
a(S'w'
I730
tp3422
a(S'p1_vo'
I5
tp3423
a(S'w'
I4
tp3424
a(S'p2_vo'
I5
tp3425
a(S'w'
I5
tp3426
a(S'no_vo'
I1
tp3427
a(S'w'
I727
tp3428
a(S'no_vo'
I0
tp3429
a(S'w'
I731
tp3430
a(S'p1_vo'
I4
tp3431
a(S'w'
I4
tp3432
a(S'p2_vo'
I4
tp3433
a(S'w'
I2931
tp3434
a(S'p1_vo'
I0
tp3435
a(S'w'
I4
tp3436
a(S'p2_vo'
I0
tp3437
a(S'w'
I9
tp3438
a(S'w'
I1
tp3439
a(S'no_ll'
I31
tp3440
a(S'w'
I2
tp3441
a(S'no_vo'
I3
tp3442
a(S'w'
I1455
tp3443
a(S'no_vo'
I1
tp3444
a(S'w'
I734
tp3445
a(S'no_vo'
I0
tp3446
a(S'w'
I3667
tp3447
a(S'p1_ll'
I31
tp3448
a(S'w'
I2
tp3449
a(S'p1_vo'
I10
tp3450
a(S'w'
I6
tp3451
a(S'p2_ll'
I31
tp3452
a(S'w'
I3
tp3453
a(S'p2_vo'
I10
tp3454
a(S'w'
I7
tp3455
a(S'tr_tl'
I226
tp3456
a(S'tr_ll'
I31
tp3457
a(S'tr_th'
I0
tp3458
a(S'w'
I11
tp3459
a(S'no_np'
I14
tp3460
a(S'no_ll'
I31
tp3461
a(S'w'
I2
tp3462
a(S'no_vo'
I15
tp3463
a(S'w'
I702
tp3464
a(S'p1_vo'
I7
tp3465
a(S'w'
I4
tp3466
a(S'p2_vo'
I7
tp3467
a(S'w'
I5
tp3468
a(S'no_vo'
I0
tp3469
a(S'w'
I724
tp3470
a(S'p1_vo'
I5
tp3471
a(S'w'
I4
tp3472
a(S'p2_vo'
I5
tp3473
a(S'w'
I1464
tp3474
a(S'p1_vo'
I4
tp3475
a(S'w'
I4
tp3476
a(S'p2_vo'
I4
tp3477
a(S'w'
I4
tp3478
a(S'tr_lh'
I0
tp3479
a(S'tr_lr'
I0
tp3480
a(S'w'
I2928
tp3481
a(S'p1_ll'
I31
tp3482
a(S'w'
I3
tp3483
a(S'p1_vo'
I10
tp3484
a(S'w'
I6
tp3485
a(S'p2_ll'
I31
tp3486
a(S'w'
I2
tp3487
a(S'p2_vo'
I10
tp3488
a(S'w'
I8
tp3489
a(S'tr_ll'
I31
tp3490
a(S'w'
I2
tp3491
a(S'tr_lh'
I1
tp3492
a(S'tr_lr'
I127
tp3493
a(S'w'
I8
tp3494
a(S'no_np'
I9
tp3495
a(S'no_ll'
I31
tp3496
a(S'w'
I3
tp3497
a(S'no_vo'
I12
tp3498
a(S'w'
I701
tp3499
a(S'p1_vo'
I7
tp3500
a(S'w'
I4
tp3501
a(S'p2_vo'
I7
tp3502
a(S'w'
I730
tp3503
a(S'p1_vo'
I5
tp3504
a(S'w'
I4
tp3505
a(S'p2_vo'
I5
tp3506
a(S'w'
I5
tp3507
a(S'no_vo'
I11
tp3508
a(S'w'
I727
tp3509
a(S'no_vo'
I9
tp3510
a(S'w'
I731
tp3511
a(S'p1_vo'
I4
tp3512
a(S'w'
I4
tp3513
a(S'p2_vo'
I4
tp3514
a(S'w'
I5
tp3515
a(S'no_vo'
I7
tp3516
a(S'w'
I728
tp3517
a(S'no_vo'
I5
tp3518
a(S'w'
I734
tp3519
a(S'no_vo'
I3
tp3520
a(S'w'
I734
tp3521
a(S'no_vo'
I2
tp3522
a(S'w'
I730
tp3523
a(S'p1_vo'
I0
tp3524
a(S'w'
I4
tp3525
a(S'p2_vo'
I0
tp3526
a(S'w'
I10
tp3527
a(S'no_ll'
I31
tp3528
a(S'w'
I2
tp3529
a(S'no_vo'
I12
tp3530
a(S'w'
I1455
tp3531
a(S'no_vo'
I11
tp3532
a(S'w'
I734
tp3533
a(S'no_vo'
I9
tp3534
a(S'w'
I734
tp3535
a(S'no_vo'
I7
tp3536
a(S'w'
I733
tp3537
a(S'no_vo'
I5
tp3538
a(S'w'
I734
tp3539
a(S'no_vo'
I3
tp3540
a(S'w'
I734
tp3541
a(S'no_vo'
I2
tp3542
a(S'w'
I732
tp3543
a(S'p1_tl'
I226
tp3544
a(S'p1_ll'
I31
tp3545
a(S'p1_th'
I0
tp3546
a(S'w'
I3
tp3547
a(S'p1_vo'
I10
tp3548
a(S'w'
I5
tp3549
a(S'p2_tl'
I29
tp3550
a(S'w'
I1
tp3551
a(S'p2_ll'
I31
tp3552
a(S'w'
I2
tp3553
a(S'p2_vo'
I10
tp3554
a(S'w'
I6
tp3555
a(S'tr_tl'
I83
tp3556
a(S'tr_ll'
I31
tp3557
a(S'tr_th'
I1
tp3558
a(S'w'
I11
tp3559
a(S'no_np'
I8
tp3560
a(S'no_ll'
I31
tp3561
a(S'w'
I2
tp3562
a(S'no_vo'
I3
tp3563
a(S'w'
I703
tp3564
a(S'p1_vo'
I7
tp3565
a(S'w'
I4
tp3566
a(S'p2_vo'
I7
tp3567
a(S'w'
I730
tp3568
a(S'p1_vo'
I5
tp3569
a(S'w'
I4
tp3570
a(S'p2_vo'
I5
tp3571
a(S'w'
I5
tp3572
a(S'no_vo'
I1
tp3573
a(S'w'
I727
tp3574
a(S'no_vo'
I0
tp3575
a(S'w'
I731
tp3576
a(S'p1_vo'
I4
tp3577
a(S'w'
I4
tp3578
a(S'p2_vo'
I4
tp3579
a(S'w'
I2931
tp3580
a(S'p1_vo'
I0
tp3581
a(S'w'
I4
tp3582
a(S'p2_vo'
I0
tp3583
a(S'w'
I10
tp3584
a(S'no_ll'
I31
tp3585
a(S'w'
I2
tp3586
a(S'no_vo'
I3
tp3587
a(S'w'
I1455
tp3588
a(S'no_vo'
I1
tp3589
a(S'w'
I734
tp3590
a(S'no_vo'
I0
tp3591
a(S'w'
I3668
tp3592
a(S'p1_tl'
I202
tp3593
a(S'p1_ll'
I31
tp3594
a(S'w'
I3
tp3595
a(S'p1_vo'
I10
tp3596
a(S'w'
I7
tp3597
a(S'p2_tl'
I240
tp3598
a(S'p2_ll'
I31
tp3599
a(S'p2_th'
I0
tp3600
a(S'w'
I2
tp3601
a(S'p2_vo'
I10
tp3602
a(S'w'
I7
tp3603
a(S'tr_tl'
I104
tp3604
a(S'w'
I1
tp3605
a(S'tr_ll'
I31
tp3606
a(S'w'
I12
tp3607
a(S'no_np'
I9
tp3608
a(S'no_ll'
I31
tp3609
a(S'w'
I2
tp3610
a(S'no_vo'
I12
tp3611
a(S'w'
I698
tp3612
a(S'p1_vo'
I7
tp3613
a(S'w'
I4
tp3614
a(S'p2_vo'
I7
tp3615
a(S'w'
I729
tp3616
a(S'p1_vo'
I5
tp3617
a(S'w'
I4
tp3618
a(S'p2_vo'
I5
tp3619
a(S'w'
I5
tp3620
a(S'no_vo'
I11
tp3621
a(S'w'
I728
tp3622
a(S'no_vo'
I9
tp3623
a(S'w'
I731
tp3624
a(S'p1_vo'
I4
tp3625
a(S'w'
I4
tp3626
a(S'p2_vo'
I4
tp3627
a(S'w'
I5
tp3628
a(S'no_vo'
I7
tp3629
a(S'w'
I728
tp3630
a(S'no_vo'
I5
tp3631
a(S'w'
I733
tp3632
a(S'no_vo'
I3
tp3633
a(S'w'
I734
tp3634
a(S'no_vo'
I2
tp3635
a(S'w'
I738
tp3636
a(S'no_np'
I14
tp3637
a(S'no_ll'
I31
tp3638
a(S'w'
I2
tp3639
a(S'no_vo'
I15
tp3640
a(S'w'
I728
tp3641
a(S'no_vo'
I0
tp3642
a(S'w'
I5140
tp3643
a(S'no_ll'
I31
tp3644
a(S'w'
I3
tp3645
a(S'no_vo'
I15
tp3646
a(S'w'
I727
tp3647
a(S'no_vo'
I0
tp3648
a(S'w'
I5136
tp3649
a(S'w'
I1
tp3650
a(S'p1_ll'
I31
tp3651
a(S'w'
I2
tp3652
a(S'p1_vo'
I10
tp3653
a(S'w'
I7
tp3654
a(S'p2_ll'
I31
tp3655
a(S'w'
I3
tp3656
a(S'p2_vo'
I10
tp3657
a(S'w'
I7
tp3658
a(S'tr_ll'
I31
tp3659
a(S'w'
I10
tp3660
a(S'no_np'
I9
tp3661
a(S'w'
I1
tp3662
a(S'no_ll'
I31
tp3663
a(S'w'
I2
tp3664
a(S'no_vo'
I12
tp3665
a(S'w'
I699
tp3666
a(S'p1_vo'
I7
tp3667
a(S'w'
I4
tp3668
a(S'p2_vo'
I7
tp3669
a(S'w'
I730
tp3670
a(S'p1_vo'
I5
tp3671
a(S'w'
I4
tp3672
a(S'p2_vo'
I5
tp3673
a(S'w'
I5
tp3674
a(S'no_vo'
I11
tp3675
a(S'w'
I727
tp3676
a(S'no_vo'
I9
tp3677
a(S'w'
I731
tp3678
a(S'p1_vo'
I4
tp3679
a(S'w'
I4
tp3680
a(S'p2_vo'
I4
tp3681
a(S'w'
I5
tp3682
a(S'no_vo'
I7
tp3683
a(S'w'
I728
tp3684
a(S'no_vo'
I5
tp3685
a(S'w'
I734
tp3686
a(S'no_vo'
I3
tp3687
a(S'w'
I733
tp3688
a(S'no_vo'
I2
tp3689
a(S'w'
I738
tp3690
a(S'no_np'
I14
tp3691
a(S'no_ll'
I31
tp3692
a(S'w'
I3
tp3693
a(S'no_vo'
I15
tp3694
a(S'w'
I727
tp3695
a(S'no_vo'
I0
tp3696
a(S'w'
I5140
tp3697
a(S'w'
I1
tp3698
a(S'no_ll'
I31
tp3699
a(S'w'
I2
tp3700
a(S'no_vo'
I15
tp3701
a(S'w'
I727
tp3702
a(S'no_vo'
I0
tp3703
a(S'w'
I5142
tp3704
a(S'no_np'
I8
tp3705
a(S'no_ll'
I31
tp3706
a(S'w'
I3
tp3707
a(S'no_vo'
I3
tp3708
a(S'w'
I1460
tp3709
a(S'no_vo'
I1
tp3710
a(S'w'
I733
tp3711
a(S'no_vo'
I0
tp3712
a(S'w'
I738
tp3713
a(S'no_ll'
I31
tp3714
a(S'w'
I3
tp3715
a(S'no_vo'
I3
tp3716
a(S'w'
I1461
tp3717
a(S'no_vo'
I1
tp3718
a(S'w'
I734
tp3719
a(S'no_vo'
I0
tp3720
a(S'w'
I731
tp3721
a(S'p1_vo'
I0
tp3722
a(S'w'
I6
tp3723
a(S'p2_vo'
I0
tp3724
a(S'w'
I5
tp3725
a(S'tr_lh'
I0
tp3726
a(S'tr_lr'
I0
tp3727
a(S'w'
I9
tp3728
a(S'no_np'
I14
tp3729
a(S'no_ll'
I31
tp3730
a(S'w'
I2
tp3731
a(S'no_vo'
I15
tp3732
a(S'w'
I714
tp3733
a(S'no_vo'
I0
tp3734
a(S'w'
I2205
tp3735
a(S'w'
I1
tp3736
a(S'no_ll'
I31
tp3737
a(S'w'
I2
tp3738
a(S'no_vo'
I15
tp3739
a(S'w'
I727
tp3740
a(S'no_vo'
I0
tp3741
a(S'w'
I2201
tp3742
a(S'p1_tl'
I190
tp3743
a(S'w'
I1
tp3744
a(S'p1_ll'
I31
tp3745
a(S'w'
I2
tp3746
a(S'p1_vo'
I10
tp3747
a(S'w'
I7
tp3748
a(S'p2_tl'
I226
tp3749
a(S'p2_ll'
I31
tp3750
a(S'w'
I3
tp3751
a(S'p2_vo'
I10
tp3752
a(S'w'
I7
tp3753
a(S'tr_tl'
I83
tp3754
a(S'tr_ll'
I31
tp3755
a(S'w'
I2
tp3756
a(S'tr_lh'
I1
tp3757
a(S'tr_lr'
I127
tp3758
a(S'w'
I10
tp3759
a(S'no_np'
I9
tp3760
a(S'no_ll'
I31
tp3761
a(S'w'
I2
tp3762
a(S'no_vo'
I12
tp3763
a(S'w'
I698
tp3764
a(S'p1_vo'
I7
tp3765
a(S'w'
I4
tp3766
a(S'p2_vo'
I7
tp3767
a(S'w'
I730
tp3768
a(S'p1_vo'
I5
tp3769
a(S'w'
I4
tp3770
a(S'p2_vo'
I5
tp3771
a(S'w'
I5
tp3772
a(S'no_vo'
I11
tp3773
a(S'w'
I727
tp3774
a(S'no_vo'
I9
tp3775
a(S'w'
I731
tp3776
a(S'p1_vo'
I4
tp3777
a(S'w'
I4
tp3778
a(S'p2_vo'
I4
tp3779
a(S'w'
I5
tp3780
a(S'no_vo'
I7
tp3781
a(S'w'
I728
tp3782
a(S'no_vo'
I5
tp3783
a(S'w'
I734
tp3784
a(S'no_vo'
I3
tp3785
a(S'w'
I733
tp3786
a(S'no_vo'
I2
tp3787
a(S'w'
I738
tp3788
a(S'no_np'
I14
tp3789
a(S'no_ll'
I31
tp3790
a(S'w'
I3
tp3791
a(S'no_vo'
I15
tp3792
a(S'w'
I727
tp3793
a(S'no_vo'
I0
tp3794
a(S'w'
I5140
tp3795
a(S'w'
I1
tp3796
a(S'no_ll'
I31
tp3797
a(S'w'
I2
tp3798
a(S'no_vo'
I15
tp3799
a(S'w'
I727
tp3800
a(S'no_vo'
I0
tp3801
a(S'w'
I5137
tp3802
a(S'p1_tl'
I180
tp3803
a(S'p1_ll'
I31
tp3804
a(S'w'
I2
tp3805
a(S'p1_vo'
I10
tp3806
a(S'w'
I7
tp3807
a(S'p2_tl'
I214
tp3808
a(S'p2_ll'
I31
tp3809
a(S'w'
I3
tp3810
a(S'p2_vo'
I10
tp3811
a(S'w'
I7
tp3812
a(S'tr_tl'
I64
tp3813
a(S'tr_ll'
I31
tp3814
a(S'w'
I11
tp3815
a(S'no_np'
I9
tp3816
a(S'no_ll'
I31
tp3817
a(S'w'
I2
tp3818
a(S'no_vo'
I12
tp3819
a(S'w'
I699
tp3820
a(S'p1_vo'
I7
tp3821
a(S'w'
I4
tp3822
a(S'p2_vo'
I7
tp3823
a(S'w'
I730
tp3824
a(S'p1_vo'
I5
tp3825
a(S'w'
I4
tp3826
a(S'p2_vo'
I5
tp3827
a(S'w'
I5
tp3828
a(S'no_vo'
I11
tp3829
a(S'w'
I727
tp3830
a(S'no_vo'
I9
tp3831
a(S'w'
I732
tp3832
a(S'p1_vo'
I4
tp3833
a(S'w'
I4
tp3834
a(S'p2_vo'
I4
tp3835
a(S'w'
I5
tp3836
a(S'no_vo'
I7
tp3837
a(S'w'
I727
tp3838
a(S'no_vo'
I5
tp3839
a(S'w'
I734
tp3840
a(S'no_vo'
I3
tp3841
a(S'w'
I734
tp3842
a(S'no_vo'
I2
tp3843
a(S'w'
I737
tp3844
a(S'tr_tl'
I190
tp3845
a(S'tr_ll'
I31
tp3846
a(S'tr_th'
I0
tp3847
a(S'w'
I11
tp3848
a(S'no_np'
I14
tp3849
a(S'no_ll'
I31
tp3850
a(S'w'
I2
tp3851
a(S'no_vo'
I15
tp3852
a(S'w'
I717
tp3853
a(S'no_vo'
I0
tp3854
a(S'w'
I734
tp3855
a(S'tr_tl'
I202
tp3856
a(S'tr_ll'
I31
tp3857
a(S'w'
I1468
tp3858
a(S'tr_tl'
I214
tp3859
a(S'tr_ll'
I31
tp3860
a(S'w'
I1467
tp3861
a(S'tr_tl'
I226
tp3862
a(S'w'
I1
tp3863
a(S'tr_ll'
I31
tp3864
a(S'w'
I1467
tp3865
a(S'tr_tl'
I240
tp3866
a(S'tr_ll'
I31
tp3867
a(S'w'
I11
tp3868
a(S'no_ll'
I31
tp3869
a(S'w'
I3
tp3870
a(S'no_vo'
I15
tp3871
a(S'w'
I720
tp3872
a(S'no_vo'
I0
tp3873
a(S'w'
I734
tp3874
a(S'tr_tl'
I254
tp3875
a(S'tr_ll'
I31
tp3876
a(S'w'
I1467
tp3877
a(S'tr_tl'
I13
tp3878
a(S'tr_ll'
I31
tp3879
a(S'tr_th'
I1
tp3880
a(S'w'
I1468
tp3881
a(S'tr_tl'
I29
tp3882
a(S'tr_ll'
I31
tp3883
a(S'w'
I1467
tp3884
a(S'tr_tl'
I46
tp3885
a(S'w'
I1
tp3886
a(S'tr_ll'
I31
tp3887
a(S'w'
I10
tp3888
a(S'no_np'
I9
tp3889
a(S'no_ll'
I31
tp3890
a(S'w'
I3
tp3891
a(S'no_vo'
I12
tp3892
a(S'w'
I1454
tp3893
a(S'tr_tl'
I64
tp3894
a(S'tr_ll'
I31
tp3895
a(S'w'
I7
tp3896
a(S'no_vo'
I11
tp3897
a(S'w'
I727
tp3898
a(S'no_vo'
I9
tp3899
a(S'w'
I734
tp3900
a(S'tr_tl'
I83
tp3901
a(S'tr_ll'
I31
tp3902
a(S'w'
I7
tp3903
a(S'no_vo'
I7
tp3904
a(S'w'
I726
tp3905
a(S'no_vo'
I5
tp3906
a(S'w'
I734
tp3907
a(S'tr_tl'
I104
tp3908
a(S'tr_ll'
I31
tp3909
a(S'w'
I7
tp3910
a(S'no_vo'
I3
tp3911
a(S'w'
I727
tp3912
a(S'no_vo'
I2
tp3913
a(S'w'
I732
tp3914
a(S'p1_vo'
I0
tp3915
a(S'w'
I5
tp3916
a(S'p2_vo'
I0
tp3917
a(S'w'
I6
tp3918
a(S'tr_tl'
I125
tp3919
a(S'tr_ll'
I31
tp3920
a(S'w'
I11
tp3921
a(S'no_ll'
I31
tp3922
a(S'w'
I2
tp3923
a(S'no_vo'
I12
tp3924
a(S'w'
I1445
tp3925
a(S'tr_tl'
I148
tp3926
a(S'w'
I1
tp3927
a(S'tr_ll'
I31
tp3928
a(S'w'
I6
tp3929
a(S'no_vo'
I11
tp3930
a(S'w'
I727
tp3931
a(S'no_vo'
I9
tp3932
a(S'w'
I734
tp3933
a(S'tr_tl'
I172
tp3934
a(S'tr_ll'
I31
tp3935
a(S'w'
I7
tp3936
a(S'no_vo'
I7
tp3937
a(S'w'
I727
tp3938
a(S'no_vo'
I5
tp3939
a(S'w'
I734
tp3940
a(S'tr_tl'
I197
tp3941
a(S'tr_ll'
I31
tp3942
a(S'w'
I7
tp3943
a(S'no_vo'
I3
tp3944
a(S'w'
I726
tp3945
a(S'no_vo'
I2
tp3946
a(S'w'
I735
tp3947
a.