(lp1
(S'clock'
p2
I1789772
tp3
a(S'p1_du'
I2
tp4
a(S'p1_lh'
I1
tp5
a(S'p1_cv'
I1
tp6
a(S'p2_du'
I2
tp7
a(S'p2_lh'
I1
tp8
a(S'p2_cv'
I1
tp9
a(S'tr_lh'
I1
tp10
a(S'no_lh'
I1
tp11
a(S'no_cv'
I1
tp12
a(S'ch_no'
I1
tp13
a(S'ch_tr'
I1
tp14
a(S'ch_p2'
I1
tp15
a(S'ch_p1'
I1
tp16
a(S'fc_mo'
I1
tp17
a(S'p2_tl'
I83
tp18
a(S'p2_ll'
I31
tp19
a(S'p2_th'
I1
tp20
a(S'w'
I3
tp21
a(S'p2_vo'
I15
tp22
a(S'w'
I8
tp23
a(S'tr_tl'
I83
tp24
a(S'w'
I1
tp25
a(S'tr_ll'
I31
tp26
a(S'tr_th'
I1
tp27
a(S'w'
I2
tp28
a(S'tr_lr'
I127
tp29
a(S'w'
I2172
tp30
a(S'p2_tl'
I29
tp31
a(S'p2_ll'
I31
tp32
a(S'w'
I8
tp33
a(S'tr_tl'
I29
tp34
a(S'tr_ll'
I31
tp35
a(S'w'
I2196
tp36
a(S'p1_tl'
I83
tp37
a(S'p1_ll'
I31
tp38
a(S'p1_th'
I1
tp39
a(S'w'
I2
tp40
a(S'p1_vo'
I15
tp41
a(S'w'
I5
tp42
a(S'p2_tl'
I226
tp43
a(S'w'
I1
tp44
a(S'p2_ll'
I31
tp45
a(S'p2_th'
I0
tp46
a(S'w'
I7
tp47
a(S'tr_tl'
I226
tp48
a(S'tr_ll'
I31
tp49
a(S'tr_th'
I0
tp50
a(S'w'
I2183
tp51
a(S'p1_tl'
I29
tp52
a(S'p1_ll'
I31
tp53
a(S'w'
I8
tp54
a(S'p2_tl'
I190
tp55
a(S'p2_ll'
I31
tp56
a(S'w'
I7
tp57
a(S'tr_tl'
I190
tp58
a(S'w'
I1
tp59
a(S'tr_ll'
I31
tp60
a(S'w'
I2185
tp61
a(S'p1_tl'
I226
tp62
a(S'w'
I1
tp63
a(S'p1_ll'
I31
tp64
a(S'p1_th'
I0
tp65
a(S'w'
I7
tp66
a(S'p2_tl'
I151
tp67
a(S'p2_ll'
I31
tp68
a(S'w'
I8
tp69
a(S'tr_tl'
I151
tp70
a(S'tr_ll'
I31
tp71
a(S'w'
I2186
tp72
a(S'p1_tl'
I190
tp73
a(S'p1_ll'
I31
tp74
a(S'w'
I7
tp75
a(S'p2_tl'
I127
tp76
a(S'w'
I1
tp77
a(S'p2_ll'
I31
tp78
a(S'w'
I7
tp79
a(S'tr_tl'
I127
tp80
a(S'tr_ll'
I31
tp81
a(S'w'
I2186
tp82
a(S'p1_tl'
I151
tp83
a(S'p1_ll'
I31
tp84
a(S'w'
I8
tp85
a(S'p2_tl'
I101
tp86
a(S'p2_ll'
I31
tp87
a(S'w'
I7
tp88
a(S'tr_tl'
I101
tp89
a(S'w'
I1
tp90
a(S'tr_ll'
I31
tp91
a(S'w'
I2185
tp92
a(S'p1_tl'
I127
tp93
a(S'w'
I1
tp94
a(S'p1_ll'
I31
tp95
a(S'w'
I7
tp96
a(S'p2_vo'
I0
tp97
a(S'w'
I4
tp98
a(S'tr_lh'
I0
tp99
a(S'tr_lr'
I0
tp100
a(S'w'
I2190
tp101
a(S'p1_tl'
I101
tp102
a(S'p1_ll'
I31
tp103
a(S'w'
I2201
tp104
a(S'p1_vo'
I0
tp105
a(S'w'
I1
tp106
a.