(lp1
(S'clock'
p2
I1789772
tp3
a(S'p1_ll'
I0
tp4
a(S'p2_ll'
I0
tp5
a(S'tr_ll'
I0
tp6
a(S'no_ll'
I0
tp7
a(S'ch_no'
I0
tp8
a(S'ch_tr'
I1
tp9
a(S'ch_p2'
I1
tp10
a(S'ch_p1'
I1
tp11
a(S'p1_lh'
I1
tp12
a(S'p1_cv'
I1
tp13
a(S'p1_vo'
I12
tp14
a(S'w'
I3
tp15
a(S'p1_tl'
I103
tp16
a(S'p1_ll'
I1
tp17
a(S'p1_th'
I1
tp18
a(S'w'
I14
tp19
a(S'tr_lr'
I127
tp20
a(S'w'
I4
tp21
a(S'tr_tl'
I103
tp22
a(S'tr_ll'
I1
tp23
a(S'tr_th'
I1
tp24
a(S'w'
I716
tp25
a(S'w'
I733
tp26
a(S'w'
I734
tp27
a(S'w'
I734
tp28
a(S'w'
I734
tp29
a(S'w'
I734
tp30
a(S'w'
I741
tp31
a(S'p1_tl'
I0
tp32
a(S'p1_ll'
I0
tp33
a(S'p1_th'
I0
tp34
a(S'w'
I25
tp35
a(S'tr_tl'
I0
tp36
a(S'w'
I1
tp37
a(S'tr_ll'
I0
tp38
a(S'tr_th'
I0
tp39
a(S'w'
I700
tp40
a(S'p1_tl'
I125
tp41
a(S'w'
I1
tp42
a(S'p1_ll'
I1
tp43
a(S'p1_th'
I1
tp44
a(S'w'
I17
tp45
a(S'tr_tl'
I125
tp46
a(S'w'
I1
tp47
a(S'tr_ll'
I1
tp48
a(S'tr_th'
I1
tp49
a(S'w'
I715
tp50
a(S'w'
I734
tp51
a(S'w'
I734
tp52
a(S'w'
I48
tp53
a(S'w'
I1
tp54
a(S'p2_ll'
I0
tp55
a(S'w'
I684
tp56
a(S'w'
I11
tp57
a(S'p2_lh'
I1
tp58
a(S'p2_cv'
I1
tp59
a(S'p2_vo'
I9
tp60
a(S'w'
I3
tp61
a(S'p2_tl'
I207
tp62
a(S'p2_ll'
I1
tp63
a(S'p2_th'
I2
tp64
a(S'w'
I720
tp65
a(S'w'
I14
tp66
a(S'w'
I720
tp67
a(S'w'
I13
tp68
a(S'w'
I728
tp69
a(S'p1_tl'
I0
tp70
a(S'w'
I1
tp71
a(S'p1_ll'
I0
tp72
a(S'p1_th'
I0
tp73
a(S'w'
I13
tp74
a(S'w'
I19
tp75
a(S'tr_tl'
I0
tp76
a(S'w'
I1
tp77
a(S'tr_ll'
I0
tp78
a(S'tr_th'
I0
tp79
a(S'w'
I693
tp80
a(S'p1_tl'
I147
tp81
a(S'p1_ll'
I1
tp82
a(S'p1_th'
I1
tp83
a(S'w'
I13
tp84
a(S'w'
I12
tp85
a(S'tr_tl'
I147
tp86
a(S'w'
I1
tp87
a(S'tr_ll'
I1
tp88
a(S'tr_th'
I1
tp89
a(S'w'
I707
tp90
a(S'w'
I14
tp91
a(S'w'
I720
tp92
a(S'w'
I14
tp93
a(S'w'
I720
tp94
a(S'w'
I21
tp95
a(S'p2_tl'
I0
tp96
a(S'p2_ll'
I0
tp97
a(S'p2_th'
I0
tp98
a(S'w'
I713
tp99
a(S'w'
I13
tp100
a(S'p2_tl'
I250
tp101
a(S'w'
I1
tp102
a(S'p2_ll'
I1
tp103
a(S'p2_th'
I2
tp104
a(S'w'
I720
tp105
a(S'w'
I13
tp106
a(S'w'
I720
tp107
a(S'w'
I14
tp108
a(S'w'
I728
tp109
a(S'p1_tl'
I0
tp110
a(S'p1_ll'
I0
tp111
a(S'p1_th'
I0
tp112
a(S'w'
I13
tp113
a(S'w'
I20
tp114
a(S'tr_tl'
I0
tp115
a(S'tr_ll'
I0
tp116
a(S'tr_th'
I0
tp117
a(S'w'
I693
tp118
a(S'p1_tl'
I125
tp119
a(S'w'
I1
tp120
a(S'p1_ll'
I1
tp121
a(S'p1_th'
I1
tp122
a(S'w'
I13
tp123
a(S'w'
I11
tp124
a(S'tr_tl'
I125
tp125
a(S'w'
I1
tp126
a(S'tr_ll'
I1
tp127
a(S'tr_th'
I1
tp128
a(S'w'
I708
tp129
a(S'w'
I13
tp130
a(S'w'
I721
tp131
a(S'w'
I13
tp132
a(S'w'
I720
tp133
a(S'w'
I21
tp134
a(S'p2_tl'
I0
tp135
a(S'w'
I1
tp136
a(S'p2_ll'
I0
tp137
a(S'p2_th'
I0
tp138
a(S'w'
I712
tp139
a(S'w'
I14
tp140
a(S'p2_tl'
I39
tp141
a(S'p2_ll'
I1
tp142
a(S'p2_th'
I3
tp143
a(S'w'
I720
tp144
a(S'w'
I13
tp145
a(S'w'
I721
tp146
a(S'w'
I13
tp147
a(S'w'
I728
tp148
a(S'p1_tl'
I0
tp149
a(S'p1_ll'
I0
tp150
a(S'p1_th'
I0
tp151
a(S'w'
I14
tp152
a(S'w'
I19
tp153
a(S'tr_tl'
I0
tp154
a(S'tr_ll'
I0
tp155
a(S'tr_th'
I0
tp156
a(S'w'
I693
tp157
a(S'p1_tl'
I103
tp158
a(S'w'
I1
tp159
a(S'p1_ll'
I1
tp160
a(S'p1_th'
I1
tp161
a(S'w'
I13
tp162
a(S'w'
I12
tp163
a(S'tr_tl'
I103
tp164
a(S'tr_ll'
I1
tp165
a(S'tr_th'
I1
tp166
a(S'w'
I708
tp167
a(S'w'
I14
tp168
a(S'w'
I720
tp169
a(S'w'
I13
tp170
a(S'w'
I721
tp171
a(S'w'
I21
tp172
a(S'p2_tl'
I0
tp173
a(S'p2_ll'
I0
tp174
a(S'p2_th'
I0
tp175
a(S'w'
I713
tp176
a(S'w'
I13
tp177
a(S'p2_tl'
I250
tp178
a(S'w'
I1
tp179
a(S'p2_ll'
I1
tp180
a(S'p2_th'
I2
tp181
a(S'w'
I719
tp182
a(S'w'
I14
tp183
a(S'w'
I720
tp184
a(S'w'
I14
tp185
a(S'w'
I728
tp186
a(S'p1_tl'
I0
tp187
a(S'p1_ll'
I0
tp188
a(S'p1_th'
I0
tp189
a(S'w'
I13
tp190
a(S'w'
I20
tp191
a(S'tr_tl'
I0
tp192
a(S'tr_ll'
I0
tp193
a(S'tr_th'
I0
tp194
a(S'w'
I693
tp195
a(S'p1_tl'
I83
tp196
a(S'p1_ll'
I1
tp197
a(S'p1_th'
I1
tp198
a(S'w'
I14
tp199
a(S'w'
I11
tp200
a(S'tr_tl'
I83
tp201
a(S'w'
I1
tp202
a(S'tr_ll'
I1
tp203
a(S'tr_th'
I1
tp204
a(S'w'
I708
tp205
a(S'w'
I13
tp206
a(S'w'
I720
tp207
a(S'w'
I14
tp208
a(S'w'
I720
tp209
a(S'w'
I21
tp210
a(S'p2_tl'
I0
tp211
a(S'p2_ll'
I0
tp212
a(S'p2_th'
I0
tp213
a(S'w'
I713
tp214
a(S'w'
I13
tp215
a(S'p2_tl'
I207
tp216
a(S'w'
I1
tp217
a(S'p2_ll'
I1
tp218
a(S'p2_th'
I2
tp219
a(S'w'
I720
tp220
a(S'w'
I13
tp221
a(S'w'
I721
tp222
a(S'w'
I13
tp223
a(S'w'
I728
tp224
a(S'p1_tl'
I0
tp225
a(S'p1_ll'
I0
tp226
a(S'p1_th'
I0
tp227
a(S'w'
I13
tp228
a(S'w'
I20
tp229
a(S'tr_tl'
I0
tp230
a(S'tr_ll'
I0
tp231
a(S'tr_th'
I0
tp232
a(S'w'
I693
tp233
a(S'p1_tl'
I64
tp234
a(S'w'
I1
tp235
a(S'p1_ll'
I1
tp236
a(S'p1_th'
I1
tp237
a(S'w'
I13
tp238
a(S'w'
I12
tp239
a(S'tr_tl'
I64
tp240
a(S'tr_ll'
I1
tp241
a(S'tr_th'
I1
tp242
a(S'w'
I708
tp243
a(S'w'
I13
tp244
a(S'w'
I721
tp245
a(S'w'
I13
tp246
a(S'w'
I721
tp247
a(S'w'
I21
tp248
a(S'p2_tl'
I0
tp249
a(S'p2_ll'
I0
tp250
a(S'p2_th'
I0
tp251
a(S'w'
I712
tp252
a(S'w'
I14
tp253
a(S'p2_tl'
I167
tp254
a(S'w'
I1
tp255
a(S'p2_ll'
I1
tp256
a(S'p2_th'
I2
tp257
a(S'w'
I719
tp258
a(S'w'
I14
tp259
a(S'w'
I720
tp260
a(S'w'
I13
tp261
a(S'w'
I728
tp262
a(S'p1_tl'
I0
tp263
a(S'w'
I1
tp264
a(S'p1_ll'
I0
tp265
a(S'p1_th'
I0
tp266
a(S'w'
I13
tp267
a(S'w'
I19
tp268
a(S'tr_tl'
I0
tp269
a(S'w'
I1
tp270
a(S'tr_ll'
I0
tp271
a(S'tr_th'
I0
tp272
a(S'w'
I693
tp273
a(S'p1_tl'
I83
tp274
a(S'p1_ll'
I1
tp275
a(S'p1_th'
I1
tp276
a(S'w'
I13
tp277
a(S'w'
I12
tp278
a(S'tr_tl'
I83
tp279
a(S'w'
I1
tp280
a(S'tr_ll'
I1
tp281
a(S'tr_th'
I1
tp282
a(S'w'
I707
tp283
a(S'w'
I14
tp284
a(S'w'
I720
tp285
a(S'w'
I14
tp286
a(S'w'
I720
tp287
a(S'w'
I21
tp288
a(S'p2_tl'
I0
tp289
a(S'p2_ll'
I0
tp290
a(S'p2_th'
I0
tp291
a(S'w'
I713
tp292
a(S'w'
I13
tp293
a(S'p2_tl'
I129
tp294
a(S'w'
I1
tp295
a(S'p2_ll'
I1
tp296
a(S'p2_th'
I2
tp297
a(S'w'
I720
tp298
a(S'w'
I13
tp299
a(S'w'
I720
tp300
a(S'w'
I14
tp301
a(S'w'
I728
tp302
a(S'p1_tl'
I0
tp303
a(S'p1_ll'
I0
tp304
a(S'p1_th'
I0
tp305
a(S'w'
I13
tp306
a(S'w'
I20
tp307
a(S'tr_tl'
I0
tp308
a(S'tr_ll'
I0
tp309
a(S'tr_th'
I0
tp310
a(S'w'
I693
tp311
a(S'p1_tl'
I103
tp312
a(S'w'
I1
tp313
a(S'p1_ll'
I1
tp314
a(S'p1_th'
I1
tp315
a(S'w'
I13
tp316
a(S'w'
I11
tp317
a(S'tr_tl'
I103
tp318
a(S'w'
I1
tp319
a(S'tr_ll'
I1
tp320
a(S'tr_th'
I1
tp321
a(S'w'
I708
tp322
a(S'w'
I13
tp323
a(S'w'
I721
tp324
a(S'w'
I13
tp325
a(S'w'
I720
tp326
a(S'w'
I22
tp327
a(S'p2_tl'
I0
tp328
a(S'p2_ll'
I0
tp329
a(S'p2_th'
I0
tp330
a(S'w'
I712
tp331
a(S'w'
I14
tp332
a(S'p2_tl'
I167
tp333
a(S'p2_ll'
I1
tp334
a(S'p2_th'
I2
tp335
a(S'w'
I720
tp336
a(S'w'
I13
tp337
a(S'w'
I721
tp338
a(S'w'
I13
tp339
a(S'w'
I728
tp340
a(S'p1_tl'
I0
tp341
a(S'p1_ll'
I0
tp342
a(S'p1_th'
I0
tp343
a(S'w'
I14
tp344
a(S'w'
I19
tp345
a(S'tr_tl'
I0
tp346
a(S'tr_ll'
I0
tp347
a(S'tr_th'
I0
tp348
a(S'w'
I693
tp349
a(S'p1_tl'
I83
tp350
a(S'w'
I1
tp351
a(S'p1_ll'
I1
tp352
a(S'p1_th'
I1
tp353
a(S'w'
I13
tp354
a(S'w'
I12
tp355
a(S'tr_tl'
I83
tp356
a(S'tr_ll'
I1
tp357
a(S'tr_th'
I1
tp358
a(S'w'
I708
tp359
a(S'w'
I14
tp360
a(S'w'
I720
tp361
a(S'w'
I14
tp362
a(S'w'
I720
tp363
a(S'w'
I21
tp364
a(S'p2_tl'
I0
tp365
a(S'p2_ll'
I0
tp366
a(S'p2_th'
I0
tp367
a(S'w'
I713
tp368
a(S'w'
I13
tp369
a(S'p2_tl'
I207
tp370
a(S'w'
I1
tp371
a(S'p2_ll'
I1
tp372
a(S'p2_th'
I2
tp373
a(S'w'
I719
tp374
a(S'w'
I14
tp375
a(S'w'
I720
tp376
a(S'w'
I14
tp377
a(S'w'
I728
tp378
a(S'p1_tl'
I0
tp379
a(S'p1_ll'
I0
tp380
a(S'p1_th'
I0
tp381
a(S'w'
I13
tp382
a(S'w'
I20
tp383
a(S'tr_tl'
I0
tp384
a(S'tr_ll'
I0
tp385
a(S'tr_th'
I0
tp386
a(S'w'
I693
tp387
a(S'p1_tl'
I64
tp388
a(S'w'
I1
tp389
a(S'p1_ll'
I1
tp390
a(S'p1_th'
I1
tp391
a(S'w'
I13
tp392
a(S'w'
I11
tp393
a(S'tr_tl'
I64
tp394
a(S'w'
I1
tp395
a(S'tr_ll'
I1
tp396
a(S'tr_th'
I1
tp397
a(S'w'
I708
tp398
a(S'w'
I13
tp399
a(S'w'
I720
tp400
a(S'w'
I14
tp401
a(S'w'
I720
tp402
a(S'w'
I21
tp403
a(S'p2_tl'
I0
tp404
a(S'p2_ll'
I0
tp405
a(S'p2_th'
I0
tp406
a(S'w'
I713
tp407
a(S'w'
I13
tp408
a(S'p2_tl'
I167
tp409
a(S'w'
I1
tp410
a(S'p2_ll'
I1
tp411
a(S'p2_th'
I2
tp412
a(S'w'
I720
tp413
a(S'w'
I13
tp414
a(S'w'
I721
tp415
a(S'w'
I13
tp416
a(S'w'
I728
tp417
a(S'p1_tl'
I0
tp418
a(S'p1_ll'
I0
tp419
a(S'p1_th'
I0
tp420
a(S'w'
I13
tp421
a(S'w'
I20
tp422
a(S'tr_tl'
I0
tp423
a(S'tr_ll'
I0
tp424
a(S'tr_th'
I0
tp425
a(S'w'
I693
tp426
a(S'p1_tl'
I46
tp427
a(S'w'
I1
tp428
a(S'p1_ll'
I1
tp429
a(S'p1_th'
I1
tp430
a(S'w'
I13
tp431
a(S'w'
I12
tp432
a(S'tr_tl'
I46
tp433
a(S'tr_ll'
I1
tp434
a(S'tr_th'
I1
tp435
a(S'w'
I708
tp436
a(S'w'
I14
tp437
a(S'w'
I720
tp438
a(S'w'
I13
tp439
a(S'w'
I721
tp440
a(S'w'
I21
tp441
a(S'p2_tl'
I0
tp442
a(S'p2_ll'
I0
tp443
a(S'p2_th'
I0
tp444
a(S'w'
I713
tp445
a(S'w'
I13
tp446
a(S'p2_tl'
I129
tp447
a(S'w'
I1
tp448
a(S'p2_ll'
I1
tp449
a(S'p2_th'
I2
tp450
a(S'w'
I719
tp451
a(S'w'
I14
tp452
a(S'w'
I720
tp453
a(S'w'
I14
tp454
a(S'w'
I727
tp455
a(S'p1_tl'
I0
tp456
a(S'w'
I1
tp457
a(S'p1_ll'
I0
tp458
a(S'p1_th'
I0
tp459
a(S'w'
I13
tp460
a(S'w'
I20
tp461
a(S'tr_tl'
I0
tp462
a(S'tr_ll'
I0
tp463
a(S'tr_th'
I0
tp464
a(S'w'
I693
tp465
a(S'p1_tl'
I29
tp466
a(S'p1_ll'
I1
tp467
a(S'p1_th'
I1
tp468
a(S'w'
I14
tp469
a(S'w'
I11
tp470
a(S'tr_tl'
I29
tp471
a(S'w'
I1
tp472
a(S'tr_ll'
I1
tp473
a(S'tr_th'
I1
tp474
a(S'w'
I707
tp475
a(S'w'
I14
tp476
a(S'w'
I720
tp477
a(S'w'
I14
tp478
a(S'w'
I720
tp479
a(S'w'
I21
tp480
a(S'p2_tl'
I0
tp481
a(S'p2_ll'
I0
tp482
a(S'p2_th'
I0
tp483
a(S'w'
I713
tp484
a(S'w'
I13
tp485
a(S'p2_tl'
I93
tp486
a(S'w'
I1
tp487
a(S'p2_ll'
I1
tp488
a(S'p2_th'
I2
tp489
a(S'w'
I720
tp490
a(S'w'
I13
tp491
a(S'w'
I720
tp492
a(S'w'
I14
tp493
a(S'w'
I728
tp494
a(S'p1_tl'
I0
tp495
a(S'p1_ll'
I0
tp496
a(S'p1_th'
I0
tp497
a(S'w'
I13
tp498
a(S'w'
I20
tp499
a(S'tr_tl'
I0
tp500
a(S'tr_ll'
I0
tp501
a(S'tr_th'
I0
tp502
a(S'w'
I693
tp503
a(S'p1_tl'
I46
tp504
a(S'w'
I1
tp505
a(S'p1_ll'
I1
tp506
a(S'p1_th'
I1
tp507
a(S'w'
I13
tp508
a(S'w'
I11
tp509
a(S'tr_tl'
I46
tp510
a(S'w'
I1
tp511
a(S'tr_ll'
I1
tp512
a(S'tr_th'
I1
tp513
a(S'w'
I708
tp514
a(S'w'
I13
tp515
a(S'w'
I721
tp516
a(S'w'
I13
tp517
a(S'w'
I720
tp518
a(S'w'
I22
tp519
a(S'p2_tl'
I0
tp520
a(S'p2_ll'
I0
tp521
a(S'p2_th'
I0
tp522
a(S'w'
I712
tp523
a(S'w'
I14
tp524
a(S'p2_tl'
I59
tp525
a(S'p2_ll'
I1
tp526
a(S'p2_th'
I2
tp527
a(S'w'
I720
tp528
a(S'w'
I14
tp529
a(S'w'
I720
tp530
a(S'w'
I13
tp531
a(S'w'
I728
tp532
a(S'p1_tl'
I0
tp533
a(S'p1_ll'
I0
tp534
a(S'p1_th'
I0
tp535
a(S'w'
I14
tp536
a(S'w'
I19
tp537
a(S'tr_tl'
I0
tp538
a(S'w'
I1
tp539
a(S'tr_ll'
I0
tp540
a(S'tr_th'
I0
tp541
a(S'w'
I693
tp542
a(S'p1_tl'
I64
tp543
a(S'p1_ll'
I1
tp544
a(S'p1_th'
I1
tp545
a(S'w'
I13
tp546
a(S'w'
I12
tp547
a(S'tr_tl'
I64
tp548
a(S'w'
I1
tp549
a(S'tr_ll'
I1
tp550
a(S'tr_th'
I1
tp551
a(S'w'
I707
tp552
a(S'w'
I14
tp553
a(S'w'
I720
tp554
a(S'w'
I14
tp555
a(S'w'
I720
tp556
a(S'w'
I21
tp557
a(S'p2_tl'
I0
tp558
a(S'p2_ll'
I0
tp559
a(S'p2_th'
I0
tp560
a(S'w'
I713
tp561
a(S'w'
I13
tp562
a(S'p2_tl'
I93
tp563
a(S'w'
I1
tp564
a(S'p2_ll'
I1
tp565
a(S'p2_th'
I2
tp566
a(S'w'
I720
tp567
a(S'w'
I13
tp568
a(S'w'
I720
tp569
a(S'w'
I14
tp570
a(S'w'
I728
tp571
a(S'p1_tl'
I0
tp572
a(S'p1_ll'
I0
tp573
a(S'p1_th'
I0
tp574
a(S'w'
I13
tp575
a(S'w'
I20
tp576
a(S'tr_tl'
I0
tp577
a(S'tr_ll'
I0
tp578
a(S'tr_th'
I0
tp579
a(S'w'
I693
tp580
a(S'p1_tl'
I46
tp581
a(S'w'
I1
tp582
a(S'p1_ll'
I1
tp583
a(S'p1_th'
I1
tp584
a(S'w'
I13
tp585
a(S'w'
I11
tp586
a(S'tr_tl'
I46
tp587
a(S'w'
I1
tp588
a(S'tr_ll'
I1
tp589
a(S'tr_th'
I1
tp590
a(S'w'
I708
tp591
a(S'w'
I13
tp592
a(S'w'
I721
tp593
a(S'w'
I13
tp594
a(S'w'
I720
tp595
a(S'w'
I21
tp596
a(S'p2_tl'
I0
tp597
a(S'w'
I1
tp598
a(S'p2_ll'
I0
tp599
a(S'p2_th'
I0
tp600
a(S'w'
I712
tp601
a(S'w'
I14
tp602
a(S'p2_tl'
I129
tp603
a(S'p2_ll'
I1
tp604
a(S'p2_th'
I2
tp605
a(S'w'
I720
tp606
a(S'w'
I13
tp607
a(S'w'
I721
tp608
a(S'w'
I13
tp609
a(S'w'
I728
tp610
a(S'p1_tl'
I0
tp611
a(S'p1_ll'
I0
tp612
a(S'p1_th'
I0
tp613
a(S'w'
I13
tp614
a(S'w'
I20
tp615
a(S'tr_tl'
I0
tp616
a(S'tr_ll'
I0
tp617
a(S'tr_th'
I0
tp618
a(S'w'
I693
tp619
a(S'p1_tl'
I29
tp620
a(S'w'
I1
tp621
a(S'p1_ll'
I1
tp622
a(S'p1_th'
I1
tp623
a(S'w'
I13
tp624
a(S'w'
I12
tp625
a(S'tr_tl'
I29
tp626
a(S'tr_ll'
I1
tp627
a(S'tr_th'
I1
tp628
a(S'w'
I708
tp629
a(S'w'
I14
tp630
a(S'w'
I720
tp631
a(S'w'
I13
tp632
a(S'w'
I721
tp633
a(S'w'
I21
tp634
a(S'p2_tl'
I0
tp635
a(S'p2_ll'
I0
tp636
a(S'p2_th'
I0
tp637
a(S'w'
I713
tp638
a(S'w'
I13
tp639
a(S'p2_tl'
I93
tp640
a(S'w'
I1
tp641
a(S'p2_ll'
I1
tp642
a(S'p2_th'
I2
tp643
a(S'w'
I719
tp644
a(S'w'
I14
tp645
a(S'w'
I720
tp646
a(S'w'
I14
tp647
a(S'w'
I728
tp648
a(S'p1_tl'
I0
tp649
a(S'p1_ll'
I0
tp650
a(S'p1_th'
I0
tp651
a(S'w'
I13
tp652
a(S'w'
I20
tp653
a(S'tr_tl'
I0
tp654
a(S'tr_ll'
I0
tp655
a(S'tr_th'
I0
tp656
a(S'w'
I693
tp657
a(S'p1_tl'
I13
tp658
a(S'p1_ll'
I1
tp659
a(S'p1_th'
I1
tp660
a(S'w'
I14
tp661
a(S'w'
I11
tp662
a(S'tr_tl'
I13
tp663
a(S'w'
I1
tp664
a(S'tr_ll'
I1
tp665
a(S'tr_th'
I1
tp666
a(S'w'
I708
tp667
a(S'w'
I13
tp668
a(S'w'
I720
tp669
a(S'w'
I14
tp670
a(S'w'
I720
tp671
a(S'w'
I21
tp672
a(S'p2_tl'
I0
tp673
a(S'p2_ll'
I0
tp674
a(S'p2_th'
I0
tp675
a(S'w'
I713
tp676
a(S'w'
I13
tp677
a(S'p2_tl'
I59
tp678
a(S'w'
I1
tp679
a(S'p2_ll'
I1
tp680
a(S'p2_th'
I2
tp681
a(S'w'
I720
tp682
a(S'w'
I13
tp683
a(S'w'
I721
tp684
a(S'w'
I13
tp685
a(S'w'
I728
tp686
a(S'p1_tl'
I0
tp687
a(S'p1_ll'
I0
tp688
a(S'p1_th'
I0
tp689
a(S'w'
I13
tp690
a(S'w'
I20
tp691
a(S'tr_tl'
I0
tp692
a(S'tr_ll'
I0
tp693
a(S'tr_th'
I0
tp694
a(S'w'
I693
tp695
a(S'p1_tl'
I254
tp696
a(S'w'
I1
tp697
a(S'p1_ll'
I1
tp698
a(S'w'
I13
tp699
a(S'w'
I11
tp700
a(S'tr_tl'
I254
tp701
a(S'w'
I1
tp702
a(S'tr_ll'
I1
tp703
a(S'w'
I708
tp704
a(S'w'
I13
tp705
a(S'w'
I721
tp706
a(S'w'
I13
tp707
a(S'w'
I721
tp708
a(S'w'
I21
tp709
a(S'p2_tl'
I0
tp710
a(S'p2_ll'
I0
tp711
a(S'p2_th'
I0
tp712
a(S'w'
I712
tp713
a(S'w'
I14
tp714
a(S'p2_tl'
I26
tp715
a(S'p2_ll'
I1
tp716
a(S'p2_th'
I2
tp717
a(S'w'
I720
tp718
a(S'w'
I14
tp719
a(S'w'
I720
tp720
a(S'w'
I13
tp721
a(S'w'
I728
tp722
a(S'p1_tl'
I0
tp723
a(S'w'
I1
tp724
a(S'p1_ll'
I0
tp725
a(S'w'
I13
tp726
a(S'w'
I19
tp727
a(S'tr_tl'
I0
tp728
a(S'w'
I1
tp729
a(S'tr_ll'
I0
tp730
a(S'w'
I693
tp731
a(S'p1_tl'
I13
tp732
a(S'p1_ll'
I1
tp733
a(S'p1_th'
I1
tp734
a(S'w'
I13
tp735
a(S'w'
I12
tp736
a(S'tr_tl'
I13
tp737
a(S'w'
I1
tp738
a(S'tr_ll'
I1
tp739
a(S'tr_th'
I1
tp740
a(S'w'
I707
tp741
a(S'w'
I14
tp742
a(S'w'
I720
tp743
a(S'w'
I14
tp744
a(S'w'
I720
tp745
a(S'w'
I21
tp746
a(S'p2_tl'
I0
tp747
a(S'p2_ll'
I0
tp748
a(S'p2_th'
I0
tp749
a(S'w'
I713
tp750
a(S'w'
I13
tp751
a(S'p2_tl'
I252
tp752
a(S'w'
I1
tp753
a(S'p2_ll'
I1
tp754
a(S'p2_th'
I1
tp755
a(S'w'
I720
tp756
a(S'w'
I13
tp757
a(S'w'
I720
tp758
a(S'w'
I14
tp759
a(S'w'
I728
tp760
a(S'p1_tl'
I0
tp761
a(S'p1_ll'
I0
tp762
a(S'p1_th'
I0
tp763
a(S'w'
I13
tp764
a(S'w'
I20
tp765
a(S'tr_tl'
I0
tp766
a(S'tr_ll'
I0
tp767
a(S'tr_th'
I0
tp768
a(S'w'
I693
tp769
a(S'p1_tl'
I29
tp770
a(S'w'
I1
tp771
a(S'p1_ll'
I1
tp772
a(S'p1_th'
I1
tp773
a(S'w'
I13
tp774
a(S'w'
I11
tp775
a(S'tr_tl'
I29
tp776
a(S'w'
I1
tp777
a(S'tr_ll'
I1
tp778
a(S'tr_th'
I1
tp779
a(S'w'
I708
tp780
a(S'w'
I13
tp781
a(S'w'
I721
tp782
a(S'w'
I13
tp783
a(S'w'
I720
tp784
a(S'w'
I21
tp785
a(S'p2_tl'
I0
tp786
a(S'w'
I1
tp787
a(S'p2_ll'
I0
tp788
a(S'p2_th'
I0
tp789
a(S'w'
I712
tp790
a(S'w'
I14
tp791
a(S'p2_tl'
I26
tp792
a(S'p2_ll'
I1
tp793
a(S'p2_th'
I2
tp794
a(S'w'
I720
tp795
a(S'w'
I13
tp796
a(S'w'
I721
tp797
a(S'w'
I13
tp798
a(S'w'
I728
tp799
a(S'p1_tl'
I0
tp800
a(S'p1_ll'
I0
tp801
a(S'p1_th'
I0
tp802
a(S'w'
I14
tp803
a(S'w'
I19
tp804
a(S'tr_tl'
I0
tp805
a(S'tr_ll'
I0
tp806
a(S'tr_th'
I0
tp807
a(S'w'
I693
tp808
a(S'p1_tl'
I13
tp809
a(S'w'
I1
tp810
a(S'p1_ll'
I1
tp811
a(S'p1_th'
I1
tp812
a(S'w'
I13
tp813
a(S'w'
I12
tp814
a(S'tr_tl'
I13
tp815
a(S'tr_ll'
I1
tp816
a(S'tr_th'
I1
tp817
a(S'w'
I708
tp818
a(S'w'
I14
tp819
a(S'w'
I720
tp820
a(S'w'
I13
tp821
a(S'w'
I721
tp822
a(S'w'
I21
tp823
a(S'p2_tl'
I0
tp824
a(S'p2_ll'
I0
tp825
a(S'p2_th'
I0
tp826
a(S'w'
I713
tp827
a(S'w'
I13
tp828
a(S'p2_tl'
I59
tp829
a(S'w'
I1
tp830
a(S'p2_ll'
I1
tp831
a(S'p2_th'
I2
tp832
a(S'w'
I719
tp833
a(S'w'
I14
tp834
a(S'w'
I720
tp835
a(S'w'
I14
tp836
a(S'w'
I728
tp837
a(S'p1_tl'
I0
tp838
a(S'p1_ll'
I0
tp839
a(S'p1_th'
I0
tp840
a(S'w'
I13
tp841
a(S'w'
I20
tp842
a(S'tr_tl'
I0
tp843
a(S'tr_ll'
I0
tp844
a(S'tr_th'
I0
tp845
a(S'w'
I693
tp846
a(S'p1_tl'
I254
tp847
a(S'w'
I1
tp848
a(S'p1_ll'
I1
tp849
a(S'w'
I13
tp850
a(S'w'
I11
tp851
a(S'tr_tl'
I254
tp852
a(S'w'
I1
tp853
a(S'tr_ll'
I1
tp854
a(S'w'
I708
tp855
a(S'w'
I13
tp856
a(S'w'
I720
tp857
a(S'w'
I14
tp858
a(S'w'
I720
tp859
a(S'w'
I21
tp860
a(S'p2_tl'
I0
tp861
a(S'p2_ll'
I0
tp862
a(S'p2_th'
I0
tp863
a(S'w'
I713
tp864
a(S'w'
I13
tp865
a(S'p2_tl'
I26
tp866
a(S'w'
I1
tp867
a(S'p2_ll'
I1
tp868
a(S'p2_th'
I2
tp869
a(S'w'
I720
tp870
a(S'w'
I13
tp871
a(S'w'
I721
tp872
a(S'w'
I13
tp873
a(S'w'
I728
tp874
a(S'p1_tl'
I0
tp875
a(S'p1_ll'
I0
tp876
a(S'w'
I13
tp877
a(S'w'
I20
tp878
a(S'tr_tl'
I0
tp879
a(S'tr_ll'
I0
tp880
a(S'w'
I693
tp881
a(S'p1_tl'
I240
tp882
a(S'w'
I1
tp883
a(S'p1_ll'
I1
tp884
a(S'w'
I13
tp885
a(S'w'
I12
tp886
a(S'tr_tl'
I240
tp887
a(S'tr_ll'
I1
tp888
a(S'w'
I708
tp889
a(S'w'
I13
tp890
a(S'w'
I721
tp891
a(S'w'
I13
tp892
a(S'w'
I721
tp893
a(S'w'
I21
tp894
a(S'p2_tl'
I0
tp895
a(S'p2_ll'
I0
tp896
a(S'p2_th'
I0
tp897
a(S'w'
I712
tp898
a(S'w'
I14
tp899
a(S'p2_tl'
I252
tp900
a(S'w'
I1
tp901
a(S'p2_ll'
I1
tp902
a(S'p2_th'
I1
tp903
a(S'w'
I719
tp904
a(S'w'
I14
tp905
a(S'w'
I720
tp906
a(S'w'
I13
tp907
a(S'w'
I16
tp908
a(S'ch_no'
I0
tp909
a(S'ch_tr'
I1
tp910
a(S'ch_p2'
I1
tp911
a(S'ch_p1'
I1
tp912
a(S'w'
I712
tp913
a(S'p1_tl'
I0
tp914
a(S'w'
I1
tp915
a(S'p1_ll'
I0
tp916
a(S'w'
I10
tp917
a(S'w'
I3
tp918
a(S'w'
I37
tp919
a(S'tr_tl'
I0
tp920
a(S'tr_ll'
I0
tp921
a(S'w'
I672
tp922
a(S'w'
I4
tp923
a(S'p1_tl'
I103
tp924
a(S'p1_ll'
I1
tp925
a(S'p1_th'
I1
tp926
a(S'w'
I13
tp927
a(S'w'
I9
tp928
a(S'tr_lh'
I1
tp929
a(S'tr_lr'
I1
tp930
a(S'w'
I3
tp931
a(S'tr_tl'
I29
tp932
a(S'w'
I1
tp933
a(S'tr_ll'
I1
tp934
a(S'tr_th'
I1
tp935
a(S'w'
I707
tp936
a(S'w'
I14
tp937
a(S'w'
I16
tp938
a(S'tr_tl'
I32
tp939
a(S'w'
I704
tp940
a(S'w'
I14
tp941
a(S'w'
I720
tp942
a(S'w'
I21
tp943
a(S'p2_tl'
I0
tp944
a(S'p2_ll'
I0
tp945
a(S'p2_th'
I0
tp946
a(S'w'
I16
tp947
a(S'tr_tl'
I29
tp948
a(S'w'
I697
tp949
a(S'w'
I13
tp950
a(S'p2_tl'
I224
tp951
a(S'w'
I1
tp952
a(S'p2_ll'
I1
tp953
a(S'p2_th'
I1
tp954
a(S'w'
I720
tp955
a(S'w'
I13
tp956
a(S'w'
I16
tp957
a(S'tr_tl'
I26
tp958
a(S'w'
I704
tp959
a(S'w'
I14
tp960
a(S'w'
I728
tp961
a(S'p1_tl'
I0
tp962
a(S'p1_ll'
I0
tp963
a(S'p1_th'
I0
tp964
a(S'w'
I13
tp965
a(S'w'
I15
tp966
a(S'tr_tl'
I29
tp967
a(S'w'
I698
tp968
a(S'p1_tl'
I125
tp969
a(S'w'
I1
tp970
a(S'p1_ll'
I1
tp971
a(S'p1_th'
I1
tp972
a(S'w'
I13
tp973
a(S'w'
I720
tp974
a(S'w'
I13
tp975
a(S'w'
I16
tp976
a(S'tr_tl'
I32
tp977
a(S'w'
I705
tp978
a(S'w'
I13
tp979
a(S'w'
I720
tp980
a(S'w'
I21
tp981
a(S'p2_tl'
I0
tp982
a(S'w'
I1
tp983
a(S'p2_ll'
I0
tp984
a(S'p2_th'
I0
tp985
a(S'w'
I15
tp986
a(S'tr_tl'
I29
tp987
a(S'w'
I697
tp988
a(S'w'
I14
tp989
a(S'p2_tl'
I207
tp990
a(S'p2_ll'
I1
tp991
a(S'p2_th'
I2
tp992
a(S'w'
I720
tp993
a(S'w'
I14
tp994
a(S'w'
I16
tp995
a(S'tr_tl'
I26
tp996
a(S'w'
I704
tp997
a(S'w'
I13
tp998
a(S'w'
I728
tp999
a(S'p1_tl'
I0
tp1000
a(S'p1_ll'
I0
tp1001
a(S'p1_th'
I0
tp1002
a(S'w'
I14
tp1003
a(S'w'
I15
tp1004
a(S'tr_tl'
I29
tp1005
a(S'w'
I697
tp1006
a(S'p1_tl'
I147
tp1007
a(S'w'
I1
tp1008
a(S'p1_ll'
I1
tp1009
a(S'p1_th'
I1
tp1010
a(S'w'
I13
tp1011
a(S'w'
I720
tp1012
a(S'w'
I14
tp1013
a(S'w'
I16
tp1014
a(S'tr_tl'
I32
tp1015
a(S'w'
I704
tp1016
a(S'w'
I14
tp1017
a(S'w'
I720
tp1018
a(S'w'
I21
tp1019
a(S'p2_tl'
I0
tp1020
a(S'p2_ll'
I0
tp1021
a(S'p2_th'
I0
tp1022
a(S'w'
I15
tp1023
a(S'tr_tl'
I29
tp1024
a(S'w'
I698
tp1025
a(S'w'
I13
tp1026
a(S'p2_tl'
I250
tp1027
a(S'w'
I1
tp1028
a(S'p2_ll'
I1
tp1029
a(S'p2_th'
I2
tp1030
a(S'w'
I720
tp1031
a(S'w'
I13
tp1032
a(S'w'
I16
tp1033
a(S'tr_tl'
I26
tp1034
a(S'w'
I704
tp1035
a(S'w'
I14
tp1036
a(S'w'
I728
tp1037
a(S'p1_tl'
I0
tp1038
a(S'p1_ll'
I0
tp1039
a(S'p1_th'
I0
tp1040
a(S'w'
I13
tp1041
a(S'w'
I15
tp1042
a(S'tr_tl'
I29
tp1043
a(S'w'
I698
tp1044
a(S'p1_tl'
I125
tp1045
a(S'w'
I1
tp1046
a(S'p1_ll'
I1
tp1047
a(S'p1_th'
I1
tp1048
a(S'w'
I13
tp1049
a(S'w'
I720
tp1050
a(S'w'
I13
tp1051
a(S'w'
I16
tp1052
a(S'tr_tl'
I32
tp1053
a(S'w'
I704
tp1054
a(S'w'
I14
tp1055
a(S'w'
I720
tp1056
a(S'w'
I21
tp1057
a(S'p2_tl'
I0
tp1058
a(S'p2_ll'
I0
tp1059
a(S'p2_th'
I0
tp1060
a(S'w'
I16
tp1061
a(S'tr_tl'
I29
tp1062
a(S'w'
I697
tp1063
a(S'w'
I14
tp1064
a(S'p2_tl'
I39
tp1065
a(S'p2_ll'
I1
tp1066
a(S'p2_th'
I3
tp1067
a(S'w'
I720
tp1068
a(S'w'
I13
tp1069
a(S'w'
I16
tp1070
a(S'tr_tl'
I26
tp1071
a(S'w'
I705
tp1072
a(S'w'
I13
tp1073
a(S'w'
I728
tp1074
a(S'p1_tl'
I0
tp1075
a(S'p1_ll'
I0
tp1076
a(S'p1_th'
I0
tp1077
a(S'w'
I13
tp1078
a(S'w'
I16
tp1079
a(S'tr_tl'
I29
tp1080
a(S'w'
I697
tp1081
a(S'p1_tl'
I103
tp1082
a(S'w'
I1
tp1083
a(S'p1_ll'
I1
tp1084
a(S'p1_th'
I1
tp1085
a(S'w'
I13
tp1086
a(S'w'
I720
tp1087
a(S'w'
I14
tp1088
a(S'w'
I15
tp1089
a(S'tr_tl'
I32
tp1090
a(S'w'
I705
tp1091
a(S'w'
I13
tp1092
a(S'w'
I721
tp1093
a(S'w'
I21
tp1094
a(S'p2_tl'
I0
tp1095
a(S'p2_ll'
I0
tp1096
a(S'p2_th'
I0
tp1097
a(S'w'
I15
tp1098
a(S'tr_tl'
I29
tp1099
a(S'w'
I697
tp1100
a(S'w'
I14
tp1101
a(S'p2_tl'
I250
tp1102
a(S'w'
I1
tp1103
a(S'p2_ll'
I1
tp1104
a(S'p2_th'
I2
tp1105
a(S'w'
I719
tp1106
a(S'w'
I14
tp1107
a(S'w'
I16
tp1108
a(S'tr_tl'
I26
tp1109
a(S'w'
I704
tp1110
a(S'w'
I14
tp1111
a(S'w'
I728
tp1112
a(S'p1_tl'
I0
tp1113
a(S'p1_ll'
I0
tp1114
a(S'p1_th'
I0
tp1115
a(S'w'
I13
tp1116
a(S'w'
I15
tp1117
a(S'tr_tl'
I29
tp1118
a(S'w'
I698
tp1119
a(S'p1_tl'
I83
tp1120
a(S'p1_ll'
I1
tp1121
a(S'p1_th'
I1
tp1122
a(S'w'
I14
tp1123
a(S'w'
I720
tp1124
a(S'w'
I13
tp1125
a(S'w'
I16
tp1126
a(S'tr_tl'
I32
tp1127
a(S'w'
I704
tp1128
a(S'w'
I14
tp1129
a(S'w'
I720
tp1130
a(S'w'
I21
tp1131
a(S'p2_tl'
I0
tp1132
a(S'p2_ll'
I0
tp1133
a(S'p2_th'
I0
tp1134
a(S'w'
I16
tp1135
a(S'tr_tl'
I29
tp1136
a(S'w'
I697
tp1137
a(S'w'
I13
tp1138
a(S'p2_tl'
I207
tp1139
a(S'w'
I1
tp1140
a(S'p2_ll'
I1
tp1141
a(S'p2_th'
I2
tp1142
a(S'w'
I720
tp1143
a(S'w'
I13
tp1144
a(S'w'
I16
tp1145
a(S'tr_tl'
I26
tp1146
a(S'w'
I705
tp1147
a(S'w'
I13
tp1148
a(S'w'
I728
tp1149
a(S'p1_tl'
I0
tp1150
a(S'p1_ll'
I0
tp1151
a(S'p1_th'
I0
tp1152
a(S'w'
I13
tp1153
a(S'w'
I22
tp1154
a(S'tr_tl'
I0
tp1155
a(S'tr_ll'
I0
tp1156
a(S'tr_th'
I0
tp1157
a(S'w'
I691
tp1158
a(S'p1_tl'
I64
tp1159
a(S'w'
I1
tp1160
a(S'p1_ll'
I1
tp1161
a(S'p1_th'
I1
tp1162
a(S'w'
I13
tp1163
a(S'w'
I12
tp1164
a(S'tr_tl'
I46
tp1165
a(S'tr_ll'
I1
tp1166
a(S'tr_th'
I1
tp1167
a(S'w'
I708
tp1168
a(S'w'
I13
tp1169
a(S'w'
I16
tp1170
a(S'tr_tl'
I49
tp1171
a(S'w'
I705
tp1172
a(S'w'
I13
tp1173
a(S'w'
I720
tp1174
a(S'w'
I22
tp1175
a(S'p2_tl'
I0
tp1176
a(S'p2_ll'
I0
tp1177
a(S'p2_th'
I0
tp1178
a(S'w'
I15
tp1179
a(S'tr_tl'
I46
tp1180
a(S'w'
I697
tp1181
a(S'w'
I14
tp1182
a(S'p2_tl'
I167
tp1183
a(S'p2_ll'
I1
tp1184
a(S'p2_th'
I2
tp1185
a(S'w'
I720
tp1186
a(S'w'
I14
tp1187
a(S'w'
I16
tp1188
a(S'tr_tl'
I43
tp1189
a(S'w'
I704
tp1190
a(S'w'
I13
tp1191
a(S'w'
I728
tp1192
a(S'p1_tl'
I0
tp1193
a(S'p1_ll'
I0
tp1194
a(S'p1_th'
I0
tp1195
a(S'w'
I14
tp1196
a(S'w'
I15
tp1197
a(S'tr_tl'
I46
tp1198
a(S'w'
I698
tp1199
a(S'p1_tl'
I83
tp1200
a(S'p1_ll'
I1
tp1201
a(S'p1_th'
I1
tp1202
a(S'w'
I13
tp1203
a(S'w'
I720
tp1204
a(S'w'
I14
tp1205
a(S'w'
I16
tp1206
a(S'tr_tl'
I49
tp1207
a(S'w'
I704
tp1208
a(S'w'
I14
tp1209
a(S'w'
I720
tp1210
a(S'w'
I21
tp1211
a(S'p2_tl'
I0
tp1212
a(S'p2_ll'
I0
tp1213
a(S'p2_th'
I0
tp1214
a(S'w'
I15
tp1215
a(S'tr_tl'
I46
tp1216
a(S'w'
I698
tp1217
a(S'w'
I13
tp1218
a(S'p2_tl'
I129
tp1219
a(S'w'
I1
tp1220
a(S'p2_ll'
I1
tp1221
a(S'p2_th'
I2
tp1222
a(S'w'
I720
tp1223
a(S'w'
I13
tp1224
a(S'w'
I16
tp1225
a(S'tr_tl'
I43
tp1226
a(S'w'
I704
tp1227
a(S'w'
I14
tp1228
a(S'w'
I728
tp1229
a(S'p1_tl'
I0
tp1230
a(S'p1_ll'
I0
tp1231
a(S'p1_th'
I0
tp1232
a(S'w'
I13
tp1233
a(S'w'
I15
tp1234
a(S'tr_tl'
I46
tp1235
a(S'w'
I698
tp1236
a(S'p1_tl'
I103
tp1237
a(S'w'
I1
tp1238
a(S'p1_ll'
I1
tp1239
a(S'p1_th'
I1
tp1240
a(S'w'
I13
tp1241
a(S'w'
I720
tp1242
a(S'w'
I13
tp1243
a(S'w'
I16
tp1244
a(S'tr_tl'
I49
tp1245
a(S'w'
I705
tp1246
a(S'w'
I13
tp1247
a(S'w'
I720
tp1248
a(S'w'
I21
tp1249
a(S'p2_tl'
I0
tp1250
a(S'w'
I1
tp1251
a(S'p2_ll'
I0
tp1252
a(S'p2_th'
I0
tp1253
a(S'w'
I15
tp1254
a(S'tr_tl'
I46
tp1255
a(S'w'
I697
tp1256
a(S'w'
I14
tp1257
a(S'p2_tl'
I167
tp1258
a(S'p2_ll'
I1
tp1259
a(S'p2_th'
I2
tp1260
a(S'w'
I720
tp1261
a(S'w'
I13
tp1262
a(S'w'
I16
tp1263
a(S'tr_tl'
I43
tp1264
a(S'w'
I705
tp1265
a(S'w'
I13
tp1266
a(S'w'
I728
tp1267
a(S'p1_tl'
I0
tp1268
a(S'p1_ll'
I0
tp1269
a(S'p1_th'
I0
tp1270
a(S'w'
I13
tp1271
a(S'w'
I16
tp1272
a(S'tr_tl'
I46
tp1273
a(S'w'
I697
tp1274
a(S'p1_tl'
I83
tp1275
a(S'w'
I1
tp1276
a(S'p1_ll'
I1
tp1277
a(S'p1_th'
I1
tp1278
a(S'w'
I13
tp1279
a(S'w'
I720
tp1280
a(S'w'
I14
tp1281
a(S'w'
I15
tp1282
a(S'tr_tl'
I49
tp1283
a(S'w'
I705
tp1284
a(S'w'
I13
tp1285
a(S'w'
I721
tp1286
a(S'w'
I21
tp1287
a(S'p2_tl'
I0
tp1288
a(S'p2_ll'
I0
tp1289
a(S'p2_th'
I0
tp1290
a(S'w'
I15
tp1291
a(S'tr_tl'
I46
tp1292
a(S'w'
I698
tp1293
a(S'w'
I13
tp1294
a(S'p2_tl'
I207
tp1295
a(S'w'
I1
tp1296
a(S'p2_ll'
I1
tp1297
a(S'p2_th'
I2
tp1298
a(S'w'
I719
tp1299
a(S'w'
I14
tp1300
a(S'w'
I16
tp1301
a(S'tr_tl'
I43
tp1302
a(S'w'
I704
tp1303
a(S'w'
I14
tp1304
a(S'w'
I728
tp1305
a(S'p1_tl'
I0
tp1306
a(S'p1_ll'
I0
tp1307
a(S'p1_th'
I0
tp1308
a(S'w'
I13
tp1309
a(S'w'
I15
tp1310
a(S'tr_tl'
I46
tp1311
a(S'w'
I698
tp1312
a(S'p1_tl'
I64
tp1313
a(S'p1_ll'
I1
tp1314
a(S'p1_th'
I1
tp1315
a(S'w'
I14
tp1316
a(S'w'
I720
tp1317
a(S'w'
I13
tp1318
a(S'w'
I16
tp1319
a(S'tr_tl'
I49
tp1320
a(S'w'
I704
tp1321
a(S'w'
I14
tp1322
a(S'w'
I720
tp1323
a(S'w'
I21
tp1324
a(S'p2_tl'
I0
tp1325
a(S'p2_ll'
I0
tp1326
a(S'p2_th'
I0
tp1327
a(S'w'
I16
tp1328
a(S'tr_tl'
I46
tp1329
a(S'w'
I697
tp1330
a(S'w'
I13
tp1331
a(S'p2_tl'
I167
tp1332
a(S'w'
I1
tp1333
a(S'p2_ll'
I1
tp1334
a(S'p2_th'
I2
tp1335
a(S'w'
I720
tp1336
a(S'w'
I13
tp1337
a(S'w'
I16
tp1338
a(S'tr_tl'
I43
tp1339
a(S'w'
I705
tp1340
a(S'w'
I13
tp1341
a(S'w'
I728
tp1342
a(S'p1_tl'
I0
tp1343
a(S'p1_ll'
I0
tp1344
a(S'p1_th'
I0
tp1345
a(S'w'
I13
tp1346
a(S'w'
I16
tp1347
a(S'tr_tl'
I46
tp1348
a(S'w'
I697
tp1349
a(S'p1_tl'
I46
tp1350
a(S'w'
I1
tp1351
a(S'p1_ll'
I1
tp1352
a(S'p1_th'
I1
tp1353
a(S'w'
I13
tp1354
a(S'w'
I720
tp1355
a(S'w'
I13
tp1356
a(S'w'
I16
tp1357
a(S'tr_tl'
I49
tp1358
a(S'w'
I705
tp1359
a(S'w'
I13
tp1360
a(S'w'
I721
tp1361
a(S'w'
I21
tp1362
a(S'p2_tl'
I0
tp1363
a(S'p2_ll'
I0
tp1364
a(S'p2_th'
I0
tp1365
a(S'w'
I15
tp1366
a(S'tr_tl'
I46
tp1367
a(S'w'
I697
tp1368
a(S'w'
I14
tp1369
a(S'p2_tl'
I129
tp1370
a(S'p2_ll'
I1
tp1371
a(S'p2_th'
I2
tp1372
a(S'w'
I720
tp1373
a(S'w'
I14
tp1374
a(S'w'
I16
tp1375
a(S'tr_tl'
I43
tp1376
a(S'w'
I704
tp1377
a(S'w'
I13
tp1378
a(S'w'
I728
tp1379
a(S'p1_tl'
I0
tp1380
a(S'w'
I1
tp1381
a(S'p1_ll'
I0
tp1382
a(S'p1_th'
I0
tp1383
a(S'w'
I13
tp1384
a(S'w'
I22
tp1385
a(S'tr_tl'
I0
tp1386
a(S'tr_ll'
I0
tp1387
a(S'tr_th'
I0
tp1388
a(S'w'
I691
tp1389
a(S'p1_tl'
I29
tp1390
a(S'p1_ll'
I1
tp1391
a(S'p1_th'
I1
tp1392
a(S'w'
I13
tp1393
a(S'w'
I12
tp1394
a(S'tr_tl'
I29
tp1395
a(S'w'
I1
tp1396
a(S'tr_ll'
I1
tp1397
a(S'tr_th'
I1
tp1398
a(S'w'
I707
tp1399
a(S'w'
I14
tp1400
a(S'w'
I16
tp1401
a(S'tr_tl'
I32
tp1402
a(S'w'
I704
tp1403
a(S'w'
I14
tp1404
a(S'w'
I720
tp1405
a(S'w'
I21
tp1406
a(S'p2_tl'
I0
tp1407
a(S'p2_ll'
I0
tp1408
a(S'p2_th'
I0
tp1409
a(S'w'
I16
tp1410
a(S'tr_tl'
I29
tp1411
a(S'w'
I697
tp1412
a(S'w'
I13
tp1413
a(S'p2_tl'
I93
tp1414
a(S'w'
I1
tp1415
a(S'p2_ll'
I1
tp1416
a(S'p2_th'
I2
tp1417
a(S'w'
I720
tp1418
a(S'w'
I13
tp1419
a(S'w'
I16
tp1420
a(S'tr_tl'
I26
tp1421
a(S'w'
I704
tp1422
a(S'w'
I14
tp1423
a(S'w'
I728
tp1424
a(S'p1_tl'
I0
tp1425
a(S'p1_ll'
I0
tp1426
a(S'p1_th'
I0
tp1427
a(S'w'
I13
tp1428
a(S'w'
I15
tp1429
a(S'tr_tl'
I29
tp1430
a(S'w'
I698
tp1431
a(S'p1_tl'
I46
tp1432
a(S'w'
I1
tp1433
a(S'p1_ll'
I1
tp1434
a(S'p1_th'
I1
tp1435
a(S'w'
I13
tp1436
a(S'w'
I720
tp1437
a(S'w'
I13
tp1438
a(S'w'
I16
tp1439
a(S'tr_tl'
I32
tp1440
a(S'w'
I705
tp1441
a(S'w'
I13
tp1442
a(S'w'
I720
tp1443
a(S'w'
I21
tp1444
a(S'p2_tl'
I0
tp1445
a(S'w'
I1
tp1446
a(S'p2_ll'
I0
tp1447
a(S'p2_th'
I0
tp1448
a(S'w'
I15
tp1449
a(S'tr_tl'
I29
tp1450
a(S'w'
I697
tp1451
a(S'w'
I14
tp1452
a(S'p2_tl'
I59
tp1453
a(S'p2_ll'
I1
tp1454
a(S'p2_th'
I2
tp1455
a(S'w'
I720
tp1456
a(S'w'
I13
tp1457
a(S'w'
I17
tp1458
a(S'tr_tl'
I26
tp1459
a(S'w'
I704
tp1460
a(S'w'
I13
tp1461
a(S'w'
I728
tp1462
a(S'p1_tl'
I0
tp1463
a(S'p1_ll'
I0
tp1464
a(S'p1_th'
I0
tp1465
a(S'w'
I14
tp1466
a(S'w'
I15
tp1467
a(S'tr_tl'
I29
tp1468
a(S'w'
I697
tp1469
a(S'p1_tl'
I64
tp1470
a(S'w'
I1
tp1471
a(S'p1_ll'
I1
tp1472
a(S'p1_th'
I1
tp1473
a(S'w'
I13
tp1474
a(S'w'
I720
tp1475
a(S'w'
I14
tp1476
a(S'w'
I15
tp1477
a(S'tr_tl'
I32
tp1478
a(S'w'
I705
tp1479
a(S'w'
I13
tp1480
a(S'w'
I721
tp1481
a(S'w'
I21
tp1482
a(S'p2_tl'
I0
tp1483
a(S'p2_ll'
I0
tp1484
a(S'p2_th'
I0
tp1485
a(S'w'
I15
tp1486
a(S'tr_tl'
I29
tp1487
a(S'w'
I698
tp1488
a(S'w'
I13
tp1489
a(S'p2_tl'
I93
tp1490
a(S'w'
I1
tp1491
a(S'p2_ll'
I1
tp1492
a(S'p2_th'
I2
tp1493
a(S'w'
I719
tp1494
a(S'w'
I14
tp1495
a(S'w'
I16
tp1496
a(S'tr_tl'
I26
tp1497
a(S'w'
I704
tp1498
a(S'w'
I14
tp1499
a(S'w'
I728
tp1500
a(S'p1_tl'
I0
tp1501
a(S'p1_ll'
I0
tp1502
a(S'p1_th'
I0
tp1503
a(S'w'
I13
tp1504
a(S'w'
I15
tp1505
a(S'tr_tl'
I29
tp1506
a(S'w'
I698
tp1507
a(S'p1_tl'
I46
tp1508
a(S'p1_ll'
I1
tp1509
a(S'p1_th'
I1
tp1510
a(S'w'
I14
tp1511
a(S'w'
I720
tp1512
a(S'w'
I13
tp1513
a(S'w'
I16
tp1514
a(S'tr_tl'
I32
tp1515
a(S'w'
I704
tp1516
a(S'w'
I14
tp1517
a(S'w'
I720
tp1518
a(S'w'
I21
tp1519
a(S'p2_tl'
I0
tp1520
a(S'p2_ll'
I0
tp1521
a(S'p2_th'
I0
tp1522
a(S'w'
I16
tp1523
a(S'tr_tl'
I29
tp1524
a(S'w'
I697
tp1525
a(S'w'
I13
tp1526
a(S'p2_tl'
I129
tp1527
a(S'w'
I1
tp1528
a(S'p2_ll'
I1
tp1529
a(S'p2_th'
I2
tp1530
a(S'w'
I720
tp1531
a(S'w'
I13
tp1532
a(S'w'
I16
tp1533
a(S'tr_tl'
I26
tp1534
a(S'w'
I705
tp1535
a(S'w'
I13
tp1536
a(S'w'
I728
tp1537
a(S'p1_tl'
I0
tp1538
a(S'p1_ll'
I0
tp1539
a(S'p1_th'
I0
tp1540
a(S'w'
I13
tp1541
a(S'w'
I16
tp1542
a(S'tr_tl'
I29
tp1543
a(S'w'
I697
tp1544
a(S'p1_tl'
I29
tp1545
a(S'w'
I1
tp1546
a(S'p1_ll'
I1
tp1547
a(S'p1_th'
I1
tp1548
a(S'w'
I13
tp1549
a(S'w'
I720
tp1550
a(S'w'
I13
tp1551
a(S'w'
I16
tp1552
a(S'tr_tl'
I32
tp1553
a(S'w'
I705
tp1554
a(S'w'
I13
tp1555
a(S'w'
I721
tp1556
a(S'w'
I21
tp1557
a(S'p2_tl'
I0
tp1558
a(S'p2_ll'
I0
tp1559
a(S'p2_th'
I0
tp1560
a(S'w'
I15
tp1561
a(S'tr_tl'
I29
tp1562
a(S'w'
I697
tp1563
a(S'w'
I14
tp1564
a(S'p2_tl'
I93
tp1565
a(S'w'
I1
tp1566
a(S'p2_ll'
I1
tp1567
a(S'p2_th'
I2
tp1568
a(S'w'
I719
tp1569
a(S'w'
I14
tp1570
a(S'w'
I16
tp1571
a(S'tr_tl'
I26
tp1572
a(S'w'
I704
tp1573
a(S'w'
I13
tp1574
a(S'w'
I728
tp1575
a(S'p1_tl'
I0
tp1576
a(S'w'
I1
tp1577
a(S'p1_ll'
I0
tp1578
a(S'p1_th'
I0
tp1579
a(S'w'
I13
tp1580
a(S'w'
I15
tp1581
a(S'tr_tl'
I29
tp1582
a(S'w'
I698
tp1583
a(S'p1_tl'
I13
tp1584
a(S'p1_ll'
I1
tp1585
a(S'p1_th'
I1
tp1586
a(S'w'
I13
tp1587
a(S'w'
I720
tp1588
a(S'w'
I14
tp1589
a(S'w'
I16
tp1590
a(S'tr_tl'
I32
tp1591
a(S'w'
I704
tp1592
a(S'w'
I14
tp1593
a(S'w'
I720
tp1594
a(S'w'
I21
tp1595
a(S'p2_tl'
I0
tp1596
a(S'p2_ll'
I0
tp1597
a(S'p2_th'
I0
tp1598
a(S'w'
I16
tp1599
a(S'tr_tl'
I29
tp1600
a(S'w'
I697
tp1601
a(S'w'
I13
tp1602
a(S'p2_tl'
I59
tp1603
a(S'w'
I1
tp1604
a(S'p2_ll'
I1
tp1605
a(S'p2_th'
I2
tp1606
a(S'w'
I720
tp1607
a(S'w'
I13
tp1608
a(S'w'
I16
tp1609
a(S'tr_tl'
I26
tp1610
a(S'w'
I704
tp1611
a(S'w'
I14
tp1612
a(S'w'
I728
tp1613
a(S'p1_tl'
I0
tp1614
a(S'p1_ll'
I0
tp1615
a(S'p1_th'
I0
tp1616
a(S'w'
I13
tp1617
a(S'w'
I22
tp1618
a(S'tr_tl'
I0
tp1619
a(S'tr_ll'
I0
tp1620
a(S'tr_th'
I0
tp1621
a(S'w'
I691
tp1622
a(S'p1_tl'
I254
tp1623
a(S'w'
I1
tp1624
a(S'p1_ll'
I1
tp1625
a(S'w'
I13
tp1626
a(S'w'
I12
tp1627
a(S'tr_tl'
I240
tp1628
a(S'tr_ll'
I1
tp1629
a(S'w'
I708
tp1630
a(S'w'
I13
tp1631
a(S'w'
I16
tp1632
a(S'tr_tl'
I243
tp1633
a(S'w'
I705
tp1634
a(S'w'
I13
tp1635
a(S'w'
I720
tp1636
a(S'w'
I22
tp1637
a(S'p2_tl'
I0
tp1638
a(S'p2_ll'
I0
tp1639
a(S'p2_th'
I0
tp1640
a(S'w'
I15
tp1641
a(S'tr_tl'
I240
tp1642
a(S'w'
I697
tp1643
a(S'w'
I14
tp1644
a(S'p2_tl'
I26
tp1645
a(S'p2_ll'
I1
tp1646
a(S'p2_th'
I2
tp1647
a(S'w'
I720
tp1648
a(S'w'
I13
tp1649
a(S'w'
I17
tp1650
a(S'tr_tl'
I237
tp1651
a(S'w'
I704
tp1652
a(S'w'
I13
tp1653
a(S'w'
I728
tp1654
a(S'p1_tl'
I0
tp1655
a(S'p1_ll'
I0
tp1656
a(S'w'
I14
tp1657
a(S'w'
I15
tp1658
a(S'tr_tl'
I240
tp1659
a(S'w'
I697
tp1660
a(S'p1_tl'
I13
tp1661
a(S'w'
I1
tp1662
a(S'p1_ll'
I1
tp1663
a(S'p1_th'
I1
tp1664
a(S'w'
I13
tp1665
a(S'w'
I720
tp1666
a(S'w'
I14
tp1667
a(S'w'
I15
tp1668
a(S'tr_tl'
I243
tp1669
a(S'w'
I705
tp1670
a(S'w'
I14
tp1671
a(S'w'
I720
tp1672
a(S'w'
I21
tp1673
a(S'p2_tl'
I0
tp1674
a(S'p2_ll'
I0
tp1675
a(S'p2_th'
I0
tp1676
a(S'w'
I15
tp1677
a(S'tr_tl'
I240
tp1678
a(S'w'
I698
tp1679
a(S'w'
I13
tp1680
a(S'p2_tl'
I252
tp1681
a(S'w'
I1
tp1682
a(S'p2_ll'
I1
tp1683
a(S'p2_th'
I1
tp1684
a(S'w'
I719
tp1685
a(S'w'
I14
tp1686
a(S'w'
I16
tp1687
a(S'tr_tl'
I237
tp1688
a(S'w'
I704
tp1689
a(S'w'
I14
tp1690
a(S'w'
I728
tp1691
a(S'p1_tl'
I0
tp1692
a(S'p1_ll'
I0
tp1693
a(S'p1_th'
I0
tp1694
a(S'w'
I13
tp1695
a(S'w'
I15
tp1696
a(S'tr_tl'
I240
tp1697
a(S'w'
I698
tp1698
a(S'p1_tl'
I29
tp1699
a(S'w'
I1
tp1700
a(S'p1_ll'
I1
tp1701
a(S'p1_th'
I1
tp1702
a(S'w'
I13
tp1703
a(S'w'
I720
tp1704
a(S'w'
I13
tp1705
a(S'w'
I16
tp1706
a(S'tr_tl'
I243
tp1707
a(S'w'
I704
tp1708
a(S'w'
I14
tp1709
a(S'w'
I720
tp1710
a(S'w'
I21
tp1711
a(S'p2_tl'
I0
tp1712
a(S'p2_ll'
I0
tp1713
a(S'p2_th'
I0
tp1714
a(S'w'
I16
tp1715
a(S'tr_tl'
I240
tp1716
a(S'w'
I697
tp1717
a(S'w'
I14
tp1718
a(S'p2_tl'
I26
tp1719
a(S'p2_ll'
I1
tp1720
a(S'p2_th'
I2
tp1721
a(S'w'
I720
tp1722
a(S'w'
I13
tp1723
a(S'w'
I16
tp1724
a(S'tr_tl'
I237
tp1725
a(S'w'
I705
tp1726
a(S'w'
I13
tp1727
a(S'w'
I728
tp1728
a(S'p1_tl'
I0
tp1729
a(S'p1_ll'
I0
tp1730
a(S'p1_th'
I0
tp1731
a(S'w'
I13
tp1732
a(S'w'
I16
tp1733
a(S'tr_tl'
I240
tp1734
a(S'w'
I697
tp1735
a(S'p1_tl'
I13
tp1736
a(S'w'
I1
tp1737
a(S'p1_ll'
I1
tp1738
a(S'p1_th'
I1
tp1739
a(S'w'
I13
tp1740
a(S'w'
I720
tp1741
a(S'w'
I14
tp1742
a(S'w'
I15
tp1743
a(S'tr_tl'
I243
tp1744
a(S'w'
I705
tp1745
a(S'w'
I13
tp1746
a(S'w'
I721
tp1747
a(S'w'
I21
tp1748
a(S'p2_tl'
I0
tp1749
a(S'p2_ll'
I0
tp1750
a(S'p2_th'
I0
tp1751
a(S'w'
I15
tp1752
a(S'tr_tl'
I240
tp1753
a(S'w'
I698
tp1754
a(S'w'
I13
tp1755
a(S'p2_tl'
I59
tp1756
a(S'w'
I1
tp1757
a(S'p2_ll'
I1
tp1758
a(S'p2_th'
I2
tp1759
a(S'w'
I719
tp1760
a(S'w'
I14
tp1761
a(S'w'
I16
tp1762
a(S'tr_tl'
I237
tp1763
a(S'w'
I704
tp1764
a(S'w'
I14
tp1765
a(S'w'
I727
tp1766
a(S'p1_tl'
I0
tp1767
a(S'w'
I1
tp1768
a(S'p1_ll'
I0
tp1769
a(S'p1_th'
I0
tp1770
a(S'w'
I13
tp1771
a(S'w'
I15
tp1772
a(S'tr_tl'
I240
tp1773
a(S'w'
I698
tp1774
a(S'p1_tl'
I254
tp1775
a(S'p1_ll'
I1
tp1776
a(S'w'
I14
tp1777
a(S'w'
I720
tp1778
a(S'w'
I13
tp1779
a(S'w'
I16
tp1780
a(S'tr_tl'
I243
tp1781
a(S'w'
I704
tp1782
a(S'w'
I14
tp1783
a(S'w'
I720
tp1784
a(S'w'
I21
tp1785
a(S'p2_tl'
I0
tp1786
a(S'p2_ll'
I0
tp1787
a(S'p2_th'
I0
tp1788
a(S'w'
I16
tp1789
a(S'tr_tl'
I240
tp1790
a(S'w'
I697
tp1791
a(S'w'
I13
tp1792
a(S'p2_tl'
I26
tp1793
a(S'w'
I1
tp1794
a(S'p2_ll'
I1
tp1795
a(S'p2_th'
I2
tp1796
a(S'w'
I720
tp1797
a(S'w'
I13
tp1798
a(S'w'
I16
tp1799
a(S'tr_tl'
I237
tp1800
a(S'w'
I704
tp1801
a(S'w'
I14
tp1802
a(S'w'
I728
tp1803
a(S'p1_tl'
I0
tp1804
a(S'p1_ll'
I0
tp1805
a(S'w'
I13
tp1806
a(S'w'
I16
tp1807
a(S'tr_tl'
I240
tp1808
a(S'w'
I697
tp1809
a(S'p1_tl'
I240
tp1810
a(S'w'
I1
tp1811
a(S'p1_ll'
I1
tp1812
a(S'w'
I13
tp1813
a(S'w'
I720
tp1814
a(S'w'
I13
tp1815
a(S'w'
I16
tp1816
a(S'tr_tl'
I243
tp1817
a(S'w'
I705
tp1818
a(S'w'
I13
tp1819
a(S'w'
I721
tp1820
a(S'w'
I21
tp1821
a(S'p2_tl'
I0
tp1822
a(S'p2_ll'
I0
tp1823
a(S'p2_th'
I0
tp1824
a(S'w'
I15
tp1825
a(S'tr_tl'
I240
tp1826
a(S'w'
I697
tp1827
a(S'w'
I14
tp1828
a(S'p2_tl'
I252
tp1829
a(S'p2_ll'
I1
tp1830
a(S'p2_th'
I1
tp1831
a(S'w'
I720
tp1832
a(S'w'
I14
tp1833
a(S'w'
I16
tp1834
a(S'tr_tl'
I237
tp1835
a(S'w'
I704
tp1836
a(S'w'
I13
tp1837
a(S'w'
I756
tp1838
a(S'p1_tl'
I0
tp1839
a(S'p1_ll'
I0
tp1840
a(S'w'
I13
tp1841
a(S'w'
I22
tp1842
a(S'tr_tl'
I0
tp1843
a(S'w'
I1
tp1844
a(S'tr_ll'
I0
tp1845
a(S'w'
I662
tp1846
a(S'p1_tl'
I103
tp1847
a(S'w'
I1
tp1848
a(S'p1_ll'
I1
tp1849
a(S'p1_th'
I1
tp1850
a(S'w'
I13
tp1851
a(S'w'
I12
tp1852
a(S'tr_tl'
I190
tp1853
a(S'w'
I1
tp1854
a(S'tr_ll'
I1
tp1855
a(S'w'
I707
tp1856
a(S'w'
I14
tp1857
a(S'w'
I16
tp1858
a(S'tr_tl'
I193
tp1859
a(S'w'
I704
tp1860
a(S'w'
I14
tp1861
a(S'w'
I720
tp1862
a(S'w'
I21
tp1863
a(S'p2_tl'
I0
tp1864
a(S'p2_ll'
I0
tp1865
a(S'p2_th'
I0
tp1866
a(S'w'
I15
tp1867
a(S'tr_tl'
I190
tp1868
a(S'w'
I698
tp1869
a(S'w'
I13
tp1870
a(S'p2_tl'
I224
tp1871
a(S'w'
I1
tp1872
a(S'p2_ll'
I1
tp1873
a(S'p2_th'
I1
tp1874
a(S'w'
I720
tp1875
a(S'w'
I13
tp1876
a(S'w'
I16
tp1877
a(S'tr_tl'
I187
tp1878
a(S'w'
I704
tp1879
a(S'w'
I14
tp1880
a(S'w'
I728
tp1881
a(S'p1_tl'
I0
tp1882
a(S'p1_ll'
I0
tp1883
a(S'p1_th'
I0
tp1884
a(S'w'
I13
tp1885
a(S'w'
I15
tp1886
a(S'tr_tl'
I190
tp1887
a(S'w'
I698
tp1888
a(S'p1_tl'
I125
tp1889
a(S'w'
I1
tp1890
a(S'p1_ll'
I1
tp1891
a(S'p1_th'
I1
tp1892
a(S'w'
I13
tp1893
a(S'w'
I720
tp1894
a(S'w'
I13
tp1895
a(S'w'
I16
tp1896
a(S'tr_tl'
I193
tp1897
a(S'w'
I705
tp1898
a(S'w'
I13
tp1899
a(S'w'
I720
tp1900
a(S'w'
I49
tp1901
a(S'p2_tl'
I0
tp1902
a(S'p2_ll'
I0
tp1903
a(S'p2_th'
I0
tp1904
a(S'w'
I16
tp1905
a(S'tr_tl'
I190
tp1906
a(S'w'
I669
tp1907
a(S'w'
I14
tp1908
a(S'p2_tl'
I207
tp1909
a(S'p2_ll'
I1
tp1910
a(S'p2_th'
I2
tp1911
a(S'w'
I720
tp1912
a(S'w'
I13
tp1913
a(S'w'
I16
tp1914
a(S'tr_tl'
I187
tp1915
a(S'w'
I705
tp1916
a(S'w'
I13
tp1917
a(S'w'
I728
tp1918
a(S'p1_tl'
I0
tp1919
a(S'p1_ll'
I0
tp1920
a(S'p1_th'
I0
tp1921
a(S'w'
I13
tp1922
a(S'w'
I16
tp1923
a(S'tr_tl'
I190
tp1924
a(S'w'
I697
tp1925
a(S'p1_tl'
I147
tp1926
a(S'w'
I1
tp1927
a(S'p1_ll'
I1
tp1928
a(S'p1_th'
I1
tp1929
a(S'w'
I13
tp1930
a(S'w'
I720
tp1931
a(S'w'
I14
tp1932
a(S'w'
I15
tp1933
a(S'tr_tl'
I193
tp1934
a(S'w'
I705
tp1935
a(S'w'
I13
tp1936
a(S'w'
I721
tp1937
a(S'w'
I21
tp1938
a(S'p2_tl'
I0
tp1939
a(S'p2_ll'
I0
tp1940
a(S'p2_th'
I0
tp1941
a(S'w'
I15
tp1942
a(S'tr_tl'
I190
tp1943
a(S'w'
I698
tp1944
a(S'w'
I13
tp1945
a(S'p2_tl'
I250
tp1946
a(S'w'
I1
tp1947
a(S'p2_ll'
I1
tp1948
a(S'p2_th'
I2
tp1949
a(S'w'
I719
tp1950
a(S'w'
I14
tp1951
a(S'w'
I16
tp1952
a(S'tr_tl'
I187
tp1953
a(S'w'
I704
tp1954
a(S'w'
I14
tp1955
a(S'w'
I728
tp1956
a(S'p1_tl'
I0
tp1957
a(S'p1_ll'
I0
tp1958
a(S'p1_th'
I0
tp1959
a(S'w'
I13
tp1960
a(S'w'
I15
tp1961
a(S'tr_tl'
I190
tp1962
a(S'w'
I698
tp1963
a(S'p1_tl'
I125
tp1964
a(S'p1_ll'
I1
tp1965
a(S'p1_th'
I1
tp1966
a(S'w'
I14
tp1967
a(S'w'
I720
tp1968
a(S'w'
I13
tp1969
a(S'w'
I16
tp1970
a(S'tr_tl'
I193
tp1971
a(S'w'
I704
tp1972
a(S'w'
I14
tp1973
a(S'w'
I720
tp1974
a(S'w'
I21
tp1975
a(S'p2_tl'
I0
tp1976
a(S'p2_ll'
I0
tp1977
a(S'p2_th'
I0
tp1978
a(S'w'
I16
tp1979
a(S'tr_tl'
I190
tp1980
a(S'w'
I697
tp1981
a(S'w'
I13
tp1982
a(S'p2_tl'
I39
tp1983
a(S'w'
I1
tp1984
a(S'p2_ll'
I1
tp1985
a(S'p2_th'
I3
tp1986
a(S'w'
I720
tp1987
a(S'w'
I13
tp1988
a(S'w'
I16
tp1989
a(S'tr_tl'
I187
tp1990
a(S'w'
I705
tp1991
a(S'w'
I13
tp1992
a(S'w'
I728
tp1993
a(S'p1_tl'
I0
tp1994
a(S'p1_ll'
I0
tp1995
a(S'p1_th'
I0
tp1996
a(S'w'
I13
tp1997
a(S'w'
I16
tp1998
a(S'tr_tl'
I190
tp1999
a(S'w'
I697
tp2000
a(S'p1_tl'
I103
tp2001
a(S'w'
I1
tp2002
a(S'p1_ll'
I1
tp2003
a(S'p1_th'
I1
tp2004
a(S'w'
I13
tp2005
a(S'w'
I720
tp2006
a(S'w'
I13
tp2007
a(S'w'
I16
tp2008
a(S'tr_tl'
I193
tp2009
a(S'w'
I705
tp2010
a(S'w'
I13
tp2011
a(S'w'
I721
tp2012
a(S'w'
I21
tp2013
a(S'p2_tl'
I0
tp2014
a(S'p2_ll'
I0
tp2015
a(S'p2_th'
I0
tp2016
a(S'w'
I15
tp2017
a(S'tr_tl'
I190
tp2018
a(S'w'
I697
tp2019
a(S'w'
I14
tp2020
a(S'p2_tl'
I250
tp2021
a(S'p2_ll'
I1
tp2022
a(S'p2_th'
I2
tp2023
a(S'w'
I720
tp2024
a(S'w'
I14
tp2025
a(S'w'
I16
tp2026
a(S'tr_tl'
I187
tp2027
a(S'w'
I704
tp2028
a(S'w'
I13
tp2029
a(S'w'
I728
tp2030
a(S'p1_tl'
I0
tp2031
a(S'w'
I1
tp2032
a(S'p1_ll'
I0
tp2033
a(S'p1_th'
I0
tp2034
a(S'w'
I13
tp2035
a(S'w'
I15
tp2036
a(S'tr_tl'
I190
tp2037
a(S'w'
I698
tp2038
a(S'p1_tl'
I83
tp2039
a(S'p1_ll'
I1
tp2040
a(S'p1_th'
I1
tp2041
a(S'w'
I13
tp2042
a(S'w'
I720
tp2043
a(S'w'
I14
tp2044
a(S'w'
I16
tp2045
a(S'tr_tl'
I193
tp2046
a(S'w'
I704
tp2047
a(S'w'
I14
tp2048
a(S'w'
I720
tp2049
a(S'w'
I21
tp2050
a(S'p2_tl'
I0
tp2051
a(S'p2_ll'
I0
tp2052
a(S'p2_th'
I0
tp2053
a(S'w'
I16
tp2054
a(S'tr_tl'
I190
tp2055
a(S'w'
I697
tp2056
a(S'w'
I13
tp2057
a(S'p2_tl'
I207
tp2058
a(S'w'
I1
tp2059
a(S'p2_ll'
I1
tp2060
a(S'p2_th'
I2
tp2061
a(S'w'
I720
tp2062
a(S'w'
I13
tp2063
a(S'w'
I16
tp2064
a(S'tr_tl'
I187
tp2065
a(S'w'
I704
tp2066
a(S'w'
I14
tp2067
a(S'w'
I728
tp2068
a(S'p1_tl'
I0
tp2069
a(S'p1_ll'
I0
tp2070
a(S'p1_th'
I0
tp2071
a(S'w'
I13
tp2072
a(S'w'
I22
tp2073
a(S'tr_tl'
I0
tp2074
a(S'tr_ll'
I0
tp2075
a(S'w'
I691
tp2076
a(S'p1_tl'
I64
tp2077
a(S'w'
I1
tp2078
a(S'p1_ll'
I1
tp2079
a(S'p1_th'
I1
tp2080
a(S'w'
I13
tp2081
a(S'w'
I12
tp2082
a(S'tr_tl'
I201
tp2083
a(S'tr_ll'
I1
tp2084
a(S'w'
I708
tp2085
a(S'w'
I13
tp2086
a(S'w'
I16
tp2087
a(S'tr_tl'
I204
tp2088
a(S'w'
I705
tp2089
a(S'w'
I13
tp2090
a(S'w'
I720
tp2091
a(S'w'
I21
tp2092
a(S'p2_tl'
I0
tp2093
a(S'w'
I1
tp2094
a(S'p2_ll'
I0
tp2095
a(S'p2_th'
I0
tp2096
a(S'w'
I15
tp2097
a(S'tr_tl'
I201
tp2098
a(S'w'
I697
tp2099
a(S'w'
I14
tp2100
a(S'p2_tl'
I167
tp2101
a(S'p2_ll'
I1
tp2102
a(S'p2_th'
I2
tp2103
a(S'w'
I720
tp2104
a(S'w'
I13
tp2105
a(S'w'
I17
tp2106
a(S'tr_tl'
I198
tp2107
a(S'w'
I704
tp2108
a(S'w'
I13
tp2109
a(S'w'
I728
tp2110
a(S'p1_tl'
I0
tp2111
a(S'p1_ll'
I0
tp2112
a(S'p1_th'
I0
tp2113
a(S'w'
I14
tp2114
a(S'w'
I15
tp2115
a(S'tr_tl'
I201
tp2116
a(S'w'
I697
tp2117
a(S'p1_tl'
I83
tp2118
a(S'w'
I1
tp2119
a(S'p1_ll'
I1
tp2120
a(S'p1_th'
I1
tp2121
a(S'w'
I13
tp2122
a(S'w'
I720
tp2123
a(S'w'
I14
tp2124
a(S'w'
I15
tp2125
a(S'tr_tl'
I204
tp2126
a(S'w'
I705
tp2127
a(S'w'
I13
tp2128
a(S'w'
I721
tp2129
a(S'w'
I21
tp2130
a(S'p2_tl'
I0
tp2131
a(S'p2_ll'
I0
tp2132
a(S'p2_th'
I0
tp2133
a(S'w'
I15
tp2134
a(S'tr_tl'
I201
tp2135
a(S'w'
I698
tp2136
a(S'w'
I13
tp2137
a(S'p2_tl'
I129
tp2138
a(S'w'
I1
tp2139
a(S'p2_ll'
I1
tp2140
a(S'p2_th'
I2
tp2141
a(S'w'
I719
tp2142
a(S'w'
I14
tp2143
a(S'w'
I16
tp2144
a(S'tr_tl'
I198
tp2145
a(S'w'
I704
tp2146
a(S'w'
I14
tp2147
a(S'w'
I728
tp2148
a(S'p1_tl'
I0
tp2149
a(S'p1_ll'
I0
tp2150
a(S'p1_th'
I0
tp2151
a(S'w'
I13
tp2152
a(S'w'
I15
tp2153
a(S'tr_tl'
I201
tp2154
a(S'w'
I698
tp2155
a(S'p1_tl'
I103
tp2156
a(S'p1_ll'
I1
tp2157
a(S'p1_th'
I1
tp2158
a(S'w'
I14
tp2159
a(S'w'
I720
tp2160
a(S'w'
I13
tp2161
a(S'w'
I16
tp2162
a(S'tr_tl'
I204
tp2163
a(S'w'
I704
tp2164
a(S'w'
I14
tp2165
a(S'w'
I720
tp2166
a(S'w'
I21
tp2167
a(S'p2_tl'
I0
tp2168
a(S'p2_ll'
I0
tp2169
a(S'p2_th'
I0
tp2170
a(S'w'
I16
tp2171
a(S'tr_tl'
I201
tp2172
a(S'w'
I697
tp2173
a(S'w'
I13
tp2174
a(S'p2_tl'
I167
tp2175
a(S'w'
I1
tp2176
a(S'p2_ll'
I1
tp2177
a(S'p2_th'
I2
tp2178
a(S'w'
I720
tp2179
a(S'w'
I13
tp2180
a(S'w'
I16
tp2181
a(S'tr_tl'
I198
tp2182
a(S'w'
I705
tp2183
a(S'w'
I13
tp2184
a(S'w'
I728
tp2185
a(S'p1_tl'
I0
tp2186
a(S'p1_ll'
I0
tp2187
a(S'p1_th'
I0
tp2188
a(S'w'
I13
tp2189
a(S'w'
I16
tp2190
a(S'tr_tl'
I201
tp2191
a(S'w'
I697
tp2192
a(S'p1_tl'
I83
tp2193
a(S'w'
I1
tp2194
a(S'p1_ll'
I1
tp2195
a(S'p1_th'
I1
tp2196
a(S'w'
I13
tp2197
a(S'w'
I720
tp2198
a(S'w'
I13
tp2199
a(S'w'
I16
tp2200
a(S'tr_tl'
I204
tp2201
a(S'w'
I705
tp2202
a(S'w'
I13
tp2203
a(S'w'
I721
tp2204
a(S'w'
I21
tp2205
a(S'p2_tl'
I0
tp2206
a(S'p2_ll'
I0
tp2207
a(S'p2_th'
I0
tp2208
a(S'w'
I15
tp2209
a(S'tr_tl'
I201
tp2210
a(S'w'
I697
tp2211
a(S'w'
I14
tp2212
a(S'p2_tl'
I207
tp2213
a(S'w'
I1
tp2214
a(S'p2_ll'
I1
tp2215
a(S'p2_th'
I2
tp2216
a(S'w'
I719
tp2217
a(S'w'
I14
tp2218
a(S'w'
I16
tp2219
a(S'tr_tl'
I198
tp2220
a(S'w'
I704
tp2221
a(S'w'
I13
tp2222
a(S'w'
I728
tp2223
a(S'p1_tl'
I0
tp2224
a(S'w'
I1
tp2225
a(S'p1_ll'
I0
tp2226
a(S'p1_th'
I0
tp2227
a(S'w'
I13
tp2228
a(S'w'
I15
tp2229
a(S'tr_tl'
I201
tp2230
a(S'w'
I698
tp2231
a(S'p1_tl'
I64
tp2232
a(S'p1_ll'
I1
tp2233
a(S'p1_th'
I1
tp2234
a(S'w'
I13
tp2235
a(S'w'
I720
tp2236
a(S'w'
I14
tp2237
a(S'w'
I16
tp2238
a(S'tr_tl'
I204
tp2239
a(S'w'
I704
tp2240
a(S'w'
I14
tp2241
a(S'w'
I720
tp2242
a(S'w'
I21
tp2243
a(S'p2_tl'
I0
tp2244
a(S'p2_ll'
I0
tp2245
a(S'p2_th'
I0
tp2246
a(S'w'
I16
tp2247
a(S'tr_tl'
I201
tp2248
a(S'w'
I697
tp2249
a(S'w'
I13
tp2250
a(S'p2_tl'
I167
tp2251
a(S'w'
I1
tp2252
a(S'p2_ll'
I1
tp2253
a(S'p2_th'
I2
tp2254
a(S'w'
I720
tp2255
a(S'w'
I13
tp2256
a(S'w'
I16
tp2257
a(S'tr_tl'
I198
tp2258
a(S'w'
I704
tp2259
a(S'w'
I14
tp2260
a(S'w'
I728
tp2261
a(S'p1_tl'
I0
tp2262
a(S'p1_ll'
I0
tp2263
a(S'p1_th'
I0
tp2264
a(S'w'
I13
tp2265
a(S'w'
I16
tp2266
a(S'tr_tl'
I201
tp2267
a(S'w'
I697
tp2268
a(S'p1_tl'
I46
tp2269
a(S'w'
I1
tp2270
a(S'p1_ll'
I1
tp2271
a(S'p1_th'
I1
tp2272
a(S'w'
I13
tp2273
a(S'w'
I720
tp2274
a(S'w'
I13
tp2275
a(S'w'
I16
tp2276
a(S'tr_tl'
I204
tp2277
a(S'w'
I705
tp2278
a(S'w'
I13
tp2279
a(S'w'
I720
tp2280
a(S'w'
I21
tp2281
a(S'p2_tl'
I0
tp2282
a(S'w'
I1
tp2283
a(S'p2_ll'
I0
tp2284
a(S'p2_th'
I0
tp2285
a(S'w'
I15
tp2286
a(S'tr_tl'
I201
tp2287
a(S'w'
I697
tp2288
a(S'w'
I14
tp2289
a(S'p2_tl'
I129
tp2290
a(S'p2_ll'
I1
tp2291
a(S'p2_th'
I2
tp2292
a(S'w'
I720
tp2293
a(S'w'
I13
tp2294
a(S'w'
I17
tp2295
a(S'tr_tl'
I198
tp2296
a(S'w'
I704
tp2297
a(S'w'
I13
tp2298
a(S'w'
I728
tp2299
a(S'p1_tl'
I0
tp2300
a(S'p1_ll'
I0
tp2301
a(S'p1_th'
I0
tp2302
a(S'w'
I14
tp2303
a(S'w'
I22
tp2304
a(S'tr_tl'
I0
tp2305
a(S'tr_ll'
I0
tp2306
a(S'w'
I690
tp2307
a(S'p1_tl'
I29
tp2308
a(S'w'
I1
tp2309
a(S'p1_ll'
I1
tp2310
a(S'p1_th'
I1
tp2311
a(S'w'
I13
tp2312
a(S'w'
I12
tp2313
a(S'tr_tl'
I64
tp2314
a(S'w'
I1
tp2315
a(S'tr_ll'
I1
tp2316
a(S'tr_th'
I1
tp2317
a(S'w'
I707
tp2318
a(S'w'
I14
tp2319
a(S'w'
I16
tp2320
a(S'tr_tl'
I67
tp2321
a(S'w'
I704
tp2322
a(S'w'
I14
tp2323
a(S'w'
I720
tp2324
a(S'w'
I21
tp2325
a(S'p2_tl'
I0
tp2326
a(S'p2_ll'
I0
tp2327
a(S'p2_th'
I0
tp2328
a(S'w'
I15
tp2329
a(S'tr_tl'
I64
tp2330
a(S'w'
I698
tp2331
a(S'w'
I13
tp2332
a(S'p2_tl'
I93
tp2333
a(S'w'
I1
tp2334
a(S'p2_ll'
I1
tp2335
a(S'p2_th'
I2
tp2336
a(S'w'
I719
tp2337
a(S'w'
I14
tp2338
a(S'w'
I16
tp2339
a(S'tr_tl'
I61
tp2340
a(S'w'
I704
tp2341
a(S'w'
I14
tp2342
a(S'w'
I728
tp2343
a(S'p1_tl'
I0
tp2344
a(S'p1_ll'
I0
tp2345
a(S'p1_th'
I0
tp2346
a(S'w'
I13
tp2347
a(S'w'
I15
tp2348
a(S'tr_tl'
I64
tp2349
a(S'w'
I698
tp2350
a(S'p1_tl'
I46
tp2351
a(S'w'
I1
tp2352
a(S'p1_ll'
I1
tp2353
a(S'p1_th'
I1
tp2354
a(S'w'
I13
tp2355
a(S'w'
I720
tp2356
a(S'w'
I13
tp2357
a(S'w'
I16
tp2358
a(S'tr_tl'
I67
tp2359
a(S'w'
I704
tp2360
a(S'w'
I14
tp2361
a(S'w'
I720
tp2362
a(S'w'
I21
tp2363
a(S'p2_tl'
I0
tp2364
a(S'p2_ll'
I0
tp2365
a(S'p2_th'
I0
tp2366
a(S'w'
I16
tp2367
a(S'tr_tl'
I64
tp2368
a(S'w'
I697
tp2369
a(S'w'
I14
tp2370
a(S'p2_tl'
I59
tp2371
a(S'p2_ll'
I1
tp2372
a(S'p2_th'
I2
tp2373
a(S'w'
I720
tp2374
a(S'w'
I13
tp2375
a(S'w'
I16
tp2376
a(S'tr_tl'
I61
tp2377
a(S'w'
I705
tp2378
a(S'w'
I13
tp2379
a(S'w'
I728
tp2380
a(S'p1_tl'
I0
tp2381
a(S'p1_ll'
I0
tp2382
a(S'p1_th'
I0
tp2383
a(S'w'
I13
tp2384
a(S'w'
I16
tp2385
a(S'tr_tl'
I64
tp2386
a(S'w'
I697
tp2387
a(S'p1_tl'
I64
tp2388
a(S'w'
I1
tp2389
a(S'p1_ll'
I1
tp2390
a(S'p1_th'
I1
tp2391
a(S'w'
I13
tp2392
a(S'w'
I720
tp2393
a(S'w'
I14
tp2394
a(S'w'
I15
tp2395
a(S'tr_tl'
I67
tp2396
a(S'w'
I705
tp2397
a(S'w'
I13
tp2398
a(S'w'
I721
tp2399
a(S'w'
I21
tp2400
a(S'p2_tl'
I0
tp2401
a(S'p2_ll'
I0
tp2402
a(S'p2_th'
I0
tp2403
a(S'w'
I15
tp2404
a(S'tr_tl'
I64
tp2405
a(S'w'
I698
tp2406
a(S'w'
I13
tp2407
a(S'p2_tl'
I93
tp2408
a(S'w'
I1
tp2409
a(S'p2_ll'
I1
tp2410
a(S'p2_th'
I2
tp2411
a(S'w'
I719
tp2412
a(S'w'
I14
tp2413
a(S'w'
I16
tp2414
a(S'tr_tl'
I61
tp2415
a(S'w'
I704
tp2416
a(S'w'
I13
tp2417
a(S'w'
I728
tp2418
a(S'p1_tl'
I0
tp2419
a(S'w'
I1
tp2420
a(S'p1_ll'
I0
tp2421
a(S'p1_th'
I0
tp2422
a(S'w'
I13
tp2423
a(S'w'
I15
tp2424
a(S'tr_tl'
I64
tp2425
a(S'w'
I698
tp2426
a(S'p1_tl'
I46
tp2427
a(S'p1_ll'
I1
tp2428
a(S'p1_th'
I1
tp2429
a(S'w'
I14
tp2430
a(S'w'
I720
tp2431
a(S'w'
I13
tp2432
a(S'w'
I16
tp2433
a(S'tr_tl'
I67
tp2434
a(S'w'
I704
tp2435
a(S'w'
I14
tp2436
a(S'w'
I720
tp2437
a(S'w'
I21
tp2438
a(S'p2_tl'
I0
tp2439
a(S'p2_ll'
I0
tp2440
a(S'p2_th'
I0
tp2441
a(S'w'
I16
tp2442
a(S'tr_tl'
I64
tp2443
a(S'w'
I697
tp2444
a(S'w'
I13
tp2445
a(S'p2_tl'
I129
tp2446
a(S'w'
I1
tp2447
a(S'p2_ll'
I1
tp2448
a(S'p2_th'
I2
tp2449
a(S'w'
I720
tp2450
a(S'w'
I13
tp2451
a(S'w'
I16
tp2452
a(S'tr_tl'
I61
tp2453
a(S'w'
I704
tp2454
a(S'w'
I14
tp2455
a(S'w'
I728
tp2456
a(S'p1_tl'
I0
tp2457
a(S'p1_ll'
I0
tp2458
a(S'p1_th'
I0
tp2459
a(S'w'
I13
tp2460
a(S'w'
I16
tp2461
a(S'tr_tl'
I64
tp2462
a(S'w'
I697
tp2463
a(S'p1_tl'
I29
tp2464
a(S'w'
I1
tp2465
a(S'p1_ll'
I1
tp2466
a(S'p1_th'
I1
tp2467
a(S'w'
I13
tp2468
a(S'w'
I720
tp2469
a(S'w'
I13
tp2470
a(S'w'
I16
tp2471
a(S'tr_tl'
I67
tp2472
a(S'w'
I705
tp2473
a(S'w'
I13
tp2474
a(S'w'
I721
tp2475
a(S'w'
I21
tp2476
a(S'p2_tl'
I0
tp2477
a(S'p2_ll'
I0
tp2478
a(S'p2_th'
I0
tp2479
a(S'w'
I15
tp2480
a(S'tr_tl'
I64
tp2481
a(S'w'
I697
tp2482
a(S'w'
I14
tp2483
a(S'p2_tl'
I93
tp2484
a(S'p2_ll'
I1
tp2485
a(S'p2_th'
I2
tp2486
a(S'w'
I720
tp2487
a(S'w'
I14
tp2488
a(S'w'
I16
tp2489
a(S'tr_tl'
I61
tp2490
a(S'w'
I704
tp2491
a(S'w'
I13
tp2492
a(S'w'
I728
tp2493
a(S'p1_tl'
I0
tp2494
a(S'p1_ll'
I0
tp2495
a(S'p1_th'
I0
tp2496
a(S'w'
I14
tp2497
a(S'w'
I15
tp2498
a(S'tr_tl'
I64
tp2499
a(S'w'
I698
tp2500
a(S'p1_tl'
I13
tp2501
a(S'p1_ll'
I1
tp2502
a(S'p1_th'
I1
tp2503
a(S'w'
I13
tp2504
a(S'w'
I720
tp2505
a(S'w'
I14
tp2506
a(S'w'
I16
tp2507
a(S'tr_tl'
I67
tp2508
a(S'w'
I704
tp2509
a(S'w'
I14
tp2510
a(S'w'
I720
tp2511
a(S'w'
I21
tp2512
a(S'p2_tl'
I0
tp2513
a(S'p2_ll'
I0
tp2514
a(S'p2_th'
I0
tp2515
a(S'w'
I15
tp2516
a(S'tr_tl'
I64
tp2517
a(S'w'
I698
tp2518
a(S'w'
I13
tp2519
a(S'p2_tl'
I59
tp2520
a(S'w'
I1
tp2521
a(S'p2_ll'
I1
tp2522
a(S'p2_th'
I2
tp2523
a(S'w'
I720
tp2524
a(S'w'
I13
tp2525
a(S'w'
I16
tp2526
a(S'tr_tl'
I61
tp2527
a(S'w'
I704
tp2528
a(S'w'
I14
tp2529
a(S'w'
I728
tp2530
a(S'p1_tl'
I0
tp2531
a(S'p1_ll'
I0
tp2532
a(S'p1_th'
I0
tp2533
a(S'w'
I13
tp2534
a(S'w'
I22
tp2535
a(S'tr_tl'
I0
tp2536
a(S'tr_ll'
I0
tp2537
a(S'tr_th'
I0
tp2538
a(S'w'
I691
tp2539
a(S'p1_tl'
I254
tp2540
a(S'w'
I1
tp2541
a(S'p1_ll'
I1
tp2542
a(S'w'
I13
tp2543
a(S'w'
I11
tp2544
a(S'tr_tl'
I46
tp2545
a(S'w'
I1
tp2546
a(S'tr_ll'
I1
tp2547
a(S'tr_th'
I1
tp2548
a(S'w'
I708
tp2549
a(S'w'
I13
tp2550
a(S'w'
I16
tp2551
a(S'tr_tl'
I49
tp2552
a(S'w'
I705
tp2553
a(S'w'
I13
tp2554
a(S'w'
I720
tp2555
a(S'w'
I21
tp2556
a(S'p2_tl'
I0
tp2557
a(S'w'
I1
tp2558
a(S'p2_ll'
I0
tp2559
a(S'p2_th'
I0
tp2560
a(S'w'
I15
tp2561
a(S'tr_tl'
I46
tp2562
a(S'w'
I697
tp2563
a(S'w'
I14
tp2564
a(S'p2_tl'
I26
tp2565
a(S'p2_ll'
I1
tp2566
a(S'p2_th'
I2
tp2567
a(S'w'
I720
tp2568
a(S'w'
I13
tp2569
a(S'w'
I16
tp2570
a(S'tr_tl'
I43
tp2571
a(S'w'
I705
tp2572
a(S'w'
I13
tp2573
a(S'w'
I728
tp2574
a(S'p1_tl'
I0
tp2575
a(S'p1_ll'
I0
tp2576
a(S'w'
I13
tp2577
a(S'w'
I16
tp2578
a(S'tr_tl'
I46
tp2579
a(S'w'
I697
tp2580
a(S'p1_tl'
I13
tp2581
a(S'w'
I1
tp2582
a(S'p1_ll'
I1
tp2583
a(S'p1_th'
I1
tp2584
a(S'w'
I13
tp2585
a(S'w'
I720
tp2586
a(S'w'
I14
tp2587
a(S'w'
I15
tp2588
a(S'tr_tl'
I49
tp2589
a(S'w'
I705
tp2590
a(S'w'
I13
tp2591
a(S'w'
I721
tp2592
a(S'w'
I21
tp2593
a(S'p2_tl'
I0
tp2594
a(S'p2_ll'
I0
tp2595
a(S'p2_th'
I0
tp2596
a(S'w'
I15
tp2597
a(S'tr_tl'
I46
tp2598
a(S'w'
I698
tp2599
a(S'w'
I13
tp2600
a(S'p2_tl'
I252
tp2601
a(S'w'
I1
tp2602
a(S'p2_ll'
I1
tp2603
a(S'p2_th'
I1
tp2604
a(S'w'
I719
tp2605
a(S'w'
I14
tp2606
a(S'w'
I16
tp2607
a(S'tr_tl'
I43
tp2608
a(S'w'
I704
tp2609
a(S'w'
I14
tp2610
a(S'w'
I728
tp2611
a(S'p1_tl'
I0
tp2612
a(S'p1_ll'
I0
tp2613
a(S'p1_th'
I0
tp2614
a(S'w'
I13
tp2615
a(S'w'
I15
tp2616
a(S'tr_tl'
I46
tp2617
a(S'w'
I698
tp2618
a(S'p1_tl'
I29
tp2619
a(S'p1_ll'
I1
tp2620
a(S'p1_th'
I1
tp2621
a(S'w'
I14
tp2622
a(S'w'
I720
tp2623
a(S'w'
I13
tp2624
a(S'w'
I16
tp2625
a(S'tr_tl'
I49
tp2626
a(S'w'
I704
tp2627
a(S'w'
I14
tp2628
a(S'w'
I720
tp2629
a(S'w'
I21
tp2630
a(S'p2_tl'
I0
tp2631
a(S'p2_ll'
I0
tp2632
a(S'p2_th'
I0
tp2633
a(S'w'
I16
tp2634
a(S'tr_tl'
I46
tp2635
a(S'w'
I697
tp2636
a(S'w'
I13
tp2637
a(S'p2_tl'
I26
tp2638
a(S'w'
I1
tp2639
a(S'p2_ll'
I1
tp2640
a(S'p2_th'
I2
tp2641
a(S'w'
I720
tp2642
a(S'w'
I13
tp2643
a(S'w'
I16
tp2644
a(S'tr_tl'
I43
tp2645
a(S'w'
I705
tp2646
a(S'w'
I13
tp2647
a(S'w'
I728
tp2648
a(S'p1_tl'
I0
tp2649
a(S'p1_ll'
I0
tp2650
a(S'p1_th'
I0
tp2651
a(S'w'
I13
tp2652
a(S'w'
I16
tp2653
a(S'tr_tl'
I46
tp2654
a(S'w'
I697
tp2655
a(S'p1_tl'
I13
tp2656
a(S'w'
I1
tp2657
a(S'p1_ll'
I1
tp2658
a(S'p1_th'
I1
tp2659
a(S'w'
I13
tp2660
a(S'w'
I720
tp2661
a(S'w'
I13
tp2662
a(S'w'
I16
tp2663
a(S'tr_tl'
I49
tp2664
a(S'w'
I705
tp2665
a(S'w'
I13
tp2666
a(S'w'
I721
tp2667
a(S'w'
I21
tp2668
a(S'p2_tl'
I0
tp2669
a(S'p2_ll'
I0
tp2670
a(S'p2_th'
I0
tp2671
a(S'w'
I15
tp2672
a(S'tr_tl'
I46
tp2673
a(S'w'
I697
tp2674
a(S'w'
I14
tp2675
a(S'p2_tl'
I59
tp2676
a(S'p2_ll'
I1
tp2677
a(S'p2_th'
I2
tp2678
a(S'w'
I720
tp2679
a(S'w'
I14
tp2680
a(S'w'
I16
tp2681
a(S'tr_tl'
I43
tp2682
a(S'w'
I704
tp2683
a(S'w'
I13
tp2684
a(S'w'
I728
tp2685
a(S'p1_tl'
I0
tp2686
a(S'w'
I1
tp2687
a(S'p1_ll'
I0
tp2688
a(S'p1_th'
I0
tp2689
a(S'w'
I13
tp2690
a(S'w'
I15
tp2691
a(S'tr_tl'
I46
tp2692
a(S'w'
I698
tp2693
a(S'p1_tl'
I254
tp2694
a(S'p1_ll'
I1
tp2695
a(S'w'
I13
tp2696
a(S'w'
I720
tp2697
a(S'w'
I14
tp2698
a(S'w'
I16
tp2699
a(S'tr_tl'
I49
tp2700
a(S'w'
I704
tp2701
a(S'w'
I14
tp2702
a(S'w'
I720
tp2703
a(S'w'
I21
tp2704
a(S'p2_tl'
I0
tp2705
a(S'p2_ll'
I0
tp2706
a(S'p2_th'
I0
tp2707
a(S'w'
I16
tp2708
a(S'tr_tl'
I46
tp2709
a(S'w'
I697
tp2710
a(S'w'
I13
tp2711
a(S'p2_tl'
I26
tp2712
a(S'w'
I1
tp2713
a(S'p2_ll'
I1
tp2714
a(S'p2_th'
I2
tp2715
a(S'w'
I720
tp2716
a(S'w'
I13
tp2717
a(S'w'
I16
tp2718
a(S'tr_tl'
I43
tp2719
a(S'w'
I704
tp2720
a(S'w'
I14
tp2721
a(S'w'
I728
tp2722
a(S'p1_tl'
I0
tp2723
a(S'p1_ll'
I0
tp2724
a(S'w'
I13
tp2725
a(S'w'
I15
tp2726
a(S'tr_tl'
I46
tp2727
a(S'w'
I698
tp2728
a(S'p1_tl'
I240
tp2729
a(S'w'
I1
tp2730
a(S'p1_ll'
I1
tp2731
a(S'w'
I13
tp2732
a(S'w'
I720
tp2733
a(S'w'
I13
tp2734
a(S'w'
I16
tp2735
a(S'tr_tl'
I49
tp2736
a(S'w'
I705
tp2737
a(S'w'
I13
tp2738
a(S'w'
I720
tp2739
a(S'w'
I21
tp2740
a(S'p2_tl'
I0
tp2741
a(S'w'
I1
tp2742
a(S'p2_ll'
I0
tp2743
a(S'p2_th'
I0
tp2744
a(S'w'
I15
tp2745
a(S'tr_tl'
I46
tp2746
a(S'w'
I697
tp2747
a(S'w'
I14
tp2748
a(S'p2_tl'
I252
tp2749
a(S'p2_ll'
I1
tp2750
a(S'p2_th'
I1
tp2751
a(S'w'
I720
tp2752
a(S'w'
I13
tp2753
a(S'w'
I16
tp2754
a(S'tr_tl'
I43
tp2755
a(S'w'
I705
tp2756
a(S'w'
I13
tp2757
a(S'w'
I16
tp2758
a.