(lp1
(S'clock'
p2
I1789773
tp3
a(S'w'
I1
tp4
a(S'fc_mo'
I1
tp5
a(S'w'
I26
tp6
a(S'p1_cv'
I1
tp7
a(S'p2_cv'
I1
tp8
a(S'no_cv'
I1
tp9
a(S'w'
I16
tp10
a(S'p1_tl'
I150
tp11
a(S'w'
I1
tp12
a(S'p1_ll'
I1
tp13
a(S'p1_sp'
I7
tp14
a(S'p1_sn'
I1
tp15
a(S'p1_ss'
I7
tp16
a(S'w'
I6
tp17
a(S'p2_tl'
I200
tp18
a(S'w'
I1
tp19
a(S'p2_ll'
I1
tp20
a(S'p2_sp'
I7
tp21
a(S'p2_sn'
I1
tp22
a(S'p2_ss'
I7
tp23
a(S'w'
I7
tp24
a(S'tr_lh'
I1
tp25
a(S'tr_lr'
I127
tp26
a(S'w'
I1
tp27
a(S'tr_tl'
I92
tp28
a(S'tr_ll'
I1
tp29
a(S'tr_th'
I2
tp30
a(S'w'
I5
tp31
a(S'p1_du'
I3
tp32
a(S'p1_lh'
I1
tp33
a(S'p1_vo'
I5
tp34
a(S'w'
I3
tp35
a(S'p2_du'
I3
tp36
a(S'p2_lh'
I1
tp37
a(S'p2_vo'
I5
tp38
a(S'w'
I61
tp39
a(S'p1_vo'
I7
tp40
a(S'w'
I3
tp41
a(S'p2_vo'
I7
tp42
a(S'w'
I682
tp43
a(S'p1_vo'
I8
tp44
a(S'w'
I3
tp45
a(S'p2_vo'
I8
tp46
a(S'w'
I731
tp47
a(S'p1_vo'
I7
tp48
a(S'w'
I3
tp49
a(S'p2_vo'
I7
tp50
a(S'w'
I731
tp51
a(S'p1_vo'
I6
tp52
a(S'w'
I3
tp53
a(S'p2_vo'
I6
tp54
a(S'w'
I731
tp55
a(S'p1_vo'
I5
tp56
a(S'w'
I3
tp57
a(S'p2_vo'
I5
tp58
a(S'w'
I730
tp59
a(S'p1_vo'
I4
tp60
a(S'w'
I3
tp61
a(S'p2_vo'
I4
tp62
a(S'w'
I730
tp63
a(S'p1_vo'
I5
tp64
a(S'w'
I3
tp65
a(S'p2_vo'
I6
tp66
a(S'w'
I728
tp67
a(S'p1_ll'
I1
tp68
a(S'w'
I6
tp69
a(S'p2_ll'
I1
tp70
a(S'w'
I10
tp71
a(S'p2_vo'
I5
tp72
a(S'w'
I722
tp73
a(S'p1_vo'
I7
tp74
a(S'w'
I3
tp75
a(S'p2_vo'
I7
tp76
a(S'w'
I731
tp77
a(S'p1_vo'
I8
tp78
a(S'w'
I3
tp79
a(S'p2_vo'
I8
tp80
a(S'w'
I730
tp81
a(S'p1_vo'
I7
tp82
a(S'w'
I3
tp83
a(S'p2_vo'
I7
tp84
a(S'w'
I731
tp85
a(S'p1_vo'
I6
tp86
a(S'w'
I3
tp87
a(S'p2_vo'
I6
tp88
a(S'w'
I731
tp89
a(S'p1_vo'
I5
tp90
a(S'w'
I3
tp91
a(S'p2_vo'
I5
tp92
a(S'w'
I731
tp93
a(S'p1_vo'
I4
tp94
a(S'w'
I3
tp95
a(S'p2_vo'
I4
tp96
a(S'w'
I730
tp97
a(S'p1_vo'
I5
tp98
a(S'w'
I3
tp99
a(S'p2_vo'
I6
tp100
a(S'w'
I727
tp101
a(S'p1_ll'
I1
tp102
a(S'w'
I6
tp103
a(S'p2_ll'
I1
tp104
a(S'w'
I10
tp105
a(S'p2_vo'
I5
tp106
a(S'w'
I722
tp107
a(S'p1_vo'
I7
tp108
a(S'w'
I3
tp109
a(S'p2_vo'
I7
tp110
a(S'w'
I731
tp111
a(S'p1_vo'
I8
tp112
a(S'w'
I3
tp113
a(S'p2_vo'
I8
tp114
a(S'w'
I731
tp115
a(S'p1_vo'
I7
tp116
a(S'w'
I3
tp117
a(S'p2_vo'
I7
tp118
a(S'w'
I731
tp119
a(S'p1_vo'
I6
tp120
a(S'w'
I3
tp121
a(S'p2_vo'
I6
tp122
a(S'w'
I730
tp123
a(S'p1_vo'
I5
tp124
a(S'w'
I3
tp125
a(S'p2_vo'
I5
tp126
a(S'w'
I731
tp127
a(S'p1_vo'
I4
tp128
a(S'w'
I3
tp129
a(S'p2_vo'
I4
tp130
a(S'w'
I730
tp131
a(S'p1_vo'
I5
tp132
a(S'w'
I3
tp133
a(S'p2_vo'
I6
tp134
a(S'w'
I728
tp135
a(S'p1_tl'
I118
tp136
a(S'p1_ll'
I1
tp137
a(S'w'
I6
tp138
a(S'p2_tl'
I150
tp139
a(S'p2_ll'
I1
tp140
a(S'w'
I6
tp141
a(S'tr_tl'
I166
tp142
a(S'tr_ll'
I1
tp143
a(S'w'
I8
tp144
a(S'p2_vo'
I5
tp145
a(S'w'
I718
tp146
a(S'p1_vo'
I7
tp147
a(S'w'
I3
tp148
a(S'p2_vo'
I7
tp149
a(S'w'
I730
tp150
a(S'p1_vo'
I8
tp151
a(S'w'
I3
tp152
a(S'p2_vo'
I8
tp153
a(S'w'
I731
tp154
a(S'p1_vo'
I7
tp155
a(S'w'
I3
tp156
a(S'p2_vo'
I7
tp157
a(S'w'
I731
tp158
a(S'p1_vo'
I6
tp159
a(S'w'
I3
tp160
a(S'p2_vo'
I6
tp161
a(S'w'
I731
tp162
a(S'p1_vo'
I5
tp163
a(S'w'
I3
tp164
a(S'p2_vo'
I5
tp165
a(S'w'
I730
tp166
a(S'p1_vo'
I4
tp167
a(S'w'
I3
tp168
a(S'p2_vo'
I4
tp169
a(S'w'
I730
tp170
a(S'p1_vo'
I5
tp171
a(S'w'
I3
tp172
a(S'p2_vo'
I6
tp173
a(S'w'
I728
tp174
a(S'p1_ll'
I1
tp175
a(S'w'
I6
tp176
a(S'p2_ll'
I1
tp177
a(S'w'
I5
tp178
a(S'p1_du'
I0
tp179
a(S'p1_lh'
I0
tp180
a(S'p1_vo'
I0
tp181
a(S'w'
I2
tp182
a(S'p2_du'
I0
tp183
a(S'p2_lh'
I0
tp184
a(S'p2_vo'
I0
tp185
a(S'w'
I5857
tp186
a(S'p1_tl'
I200
tp187
a(S'p1_ll'
I1
tp188
a(S'w'
I6
tp189
a(S'p2_tl'
I238
tp190
a(S'p2_ll'
I1
tp191
a(S'w'
I7
tp192
a(S'p1_du'
I3
tp193
a(S'p1_lh'
I1
tp194
a(S'p1_vo'
I5
tp195
a(S'w'
I3
tp196
a(S'p2_du'
I3
tp197
a(S'p2_lh'
I1
tp198
a(S'p2_vo'
I5
tp199
a(S'w'
I722
tp200
a(S'p1_vo'
I7
tp201
a(S'w'
I3
tp202
a(S'p2_vo'
I7
tp203
a(S'w'
I731
tp204
a(S'p1_vo'
I8
tp205
a(S'w'
I3
tp206
a(S'p2_vo'
I8
tp207
a(S'w'
I731
tp208
a(S'p1_vo'
I7
tp209
a(S'w'
I3
tp210
a(S'p2_vo'
I7
tp211
a(S'w'
I731
tp212
a(S'p1_vo'
I6
tp213
a(S'w'
I3
tp214
a(S'p2_vo'
I6
tp215
a(S'w'
I730
tp216
a(S'p1_vo'
I5
tp217
a(S'w'
I3
tp218
a(S'p2_vo'
I5
tp219
a(S'w'
I731
tp220
a(S'p1_vo'
I4
tp221
a(S'w'
I3
tp222
a(S'p2_vo'
I4
tp223
a(S'w'
I730
tp224
a(S'p1_vo'
I5
tp225
a(S'w'
I3
tp226
a(S'p2_vo'
I6
tp227
a(S'w'
I729
tp228
a(S'p1_tl'
I178
tp229
a(S'p1_ll'
I1
tp230
a(S'w'
I7
tp231
a(S'p2_tl'
I45
tp232
a(S'p2_ll'
I1
tp233
a(S'p2_th'
I1
tp234
a(S'w'
I6
tp235
a(S'tr_tl'
I137
tp236
a(S'tr_ll'
I1
tp237
a(S'tr_th'
I3
tp238
a(S'w'
I9
tp239
a(S'p2_vo'
I5
tp240
a(S'w'
I715
tp241
a(S'p1_vo'
I7
tp242
a(S'w'
I3
tp243
a(S'p2_vo'
I7
tp244
a(S'w'
I730
tp245
a(S'p1_vo'
I8
tp246
a(S'w'
I3
tp247
a(S'p2_vo'
I8
tp248
a(S'w'
I731
tp249
a(S'p1_vo'
I7
tp250
a(S'w'
I3
tp251
a(S'p2_vo'
I7
tp252
a(S'w'
I731
tp253
a(S'p1_vo'
I6
tp254
a(S'w'
I3
tp255
a(S'p2_vo'
I6
tp256
a(S'w'
I731
tp257
a(S'p1_vo'
I5
tp258
a(S'w'
I3
tp259
a(S'p2_vo'
I5
tp260
a(S'w'
I730
tp261
a(S'p1_vo'
I4
tp262
a(S'w'
I3
tp263
a(S'p2_vo'
I4
tp264
a(S'w'
I730
tp265
a(S'p1_vo'
I5
tp266
a(S'w'
I3
tp267
a(S'p2_vo'
I6
tp268
a(S'w'
I12470
tp269
a(S'p1_tl'
I225
tp270
a(S'p1_ll'
I1
tp271
a(S'w'
I7
tp272
a(S'p2_tl'
I103
tp273
a(S'p2_ll'
I1
tp274
a(S'w'
I8
tp275
a(S'tr_tl'
I26
tp276
a(S'tr_ll'
I1
tp277
a(S'tr_th'
I2
tp278
a(S'w'
I9
tp279
a(S'p2_vo'
I5
tp280
a(S'w'
I713
tp281
a(S'p1_vo'
I7
tp282
a(S'w'
I3
tp283
a(S'p2_vo'
I7
tp284
a(S'w'
I730
tp285
a(S'p1_vo'
I8
tp286
a(S'w'
I3
tp287
a(S'p2_vo'
I8
tp288
a(S'w'
I731
tp289
a(S'p1_vo'
I7
tp290
a(S'w'
I3
tp291
a(S'p2_vo'
I7
tp292
a(S'w'
I731
tp293
a(S'p1_vo'
I6
tp294
a(S'w'
I3
tp295
a(S'p2_vo'
I6
tp296
a(S'w'
I731
tp297
a(S'p1_vo'
I5
tp298
a(S'w'
I3
tp299
a(S'p2_vo'
I5
tp300
a(S'w'
I730
tp301
a(S'p1_vo'
I4
tp302
a(S'w'
I3
tp303
a(S'p2_vo'
I4
tp304
a(S'w'
I730
tp305
a(S'p1_vo'
I5
tp306
a(S'w'
I3
tp307
a(S'p2_vo'
I6
tp308
a(S'w'
I47690
tp309
a(S'p1_du'
I0
tp310
a(S'p1_lh'
I0
tp311
a(S'p1_vo'
I0
tp312
a(S'p2_du'
I0
tp313
a(S'p2_lh'
I0
tp314
a(S'p2_vo'
I0
tp315
a(S'tr_lh'
I0
tp316
a(S'tr_lr'
I0
tp317
a(S'w'
I42449
tp318
a.