(lp1
(S'clock'
p2
I1789773
tp3
a(S'w'
I1
tp4
a(S'fc_mo'
I1
tp5
a(S'w'
I68
tp6
a(S'p1_cv'
I1
tp7
a(S'w'
I1
tp8
a(S'p2_cv'
I1
tp9
a(S'no_cv'
I1
tp10
a(S'w'
I16
tp11
a(S'p1_tl'
I178
tp12
a(S'p1_ll'
I1
tp13
a(S'p1_sp'
I7
tp14
a(S'p1_sn'
I1
tp15
a(S'p1_ss'
I7
tp16
a(S'w'
I7
tp17
a(S'p2_tl'
I168
tp18
a(S'p2_ll'
I1
tp19
a(S'w'
I1
tp20
a(S'p2_sp'
I7
tp21
a(S'p2_sn'
I1
tp22
a(S'p2_ss'
I7
tp23
a(S'w'
I7
tp24
a(S'tr_ll'
I0
tp25
a(S'w'
I1
tp26
a(S'w'
I4
tp27
a(S'no_vo'
I2
tp28
a(S'w'
I1
tp29
a(S'no_np'
I1
tp30
a(S'no_ll'
I3
tp31
a(S'w'
I4
tp32
a(S'p1_du'
I3
tp33
a(S'p1_lh'
I1
tp34
a(S'p1_vo'
I1
tp35
a(S'w'
I3
tp36
a(S'p2_du'
I3
tp37
a(S'p2_lh'
I1
tp38
a(S'p2_vo'
I1
tp39
a(S'w'
I621
tp40
a(S'fc_mo'
I1
tp41
a(S'w'
I78
tp42
a(S'p1_vo'
I2
tp43
a(S'w'
I4
tp44
a(S'p2_vo'
I2
tp45
a(S'w'
I1464
tp46
a(S'p1_vo'
I3
tp47
a(S'w'
I4
tp48
a(S'p2_vo'
I3
tp49
a(S'w'
I1463
tp50
a(S'p1_vo'
I4
tp51
a(S'w'
I4
tp52
a(S'p2_vo'
I4
tp53
a(S'w'
I1464
tp54
a(S'p1_vo'
I5
tp55
a(S'w'
I4
tp56
a(S'p2_vo'
I5
tp57
a(S'w'
I726
tp58
a(S'p1_ll'
I1
tp59
a(S'w'
I6
tp60
a(S'p2_ll'
I1
tp61
a(S'w'
I6
tp62
a(S'p1_du'
I0
tp63
a(S'p1_lh'
I0
tp64
a(S'p1_vo'
I0
tp65
a(S'w'
I1
tp66
a(S'p2_du'
I0
tp67
a(S'p2_lh'
I0
tp68
a(S'p2_vo'
I0
tp69
a(S'w'
I5857
tp70
a(S'p1_ll'
I1
tp71
a(S'w'
I6
tp72
a(S'p2_ll'
I1
tp73
a(S'w'
I7
tp74
a(S'p1_du'
I3
tp75
a(S'p1_lh'
I1
tp76
a(S'p1_vo'
I1
tp77
a(S'w'
I4
tp78
a(S'p2_du'
I3
tp79
a(S'p2_lh'
I1
tp80
a(S'p2_vo'
I1
tp81
a(S'w'
I721
tp82
a(S'p1_vo'
I2
tp83
a(S'w'
I4
tp84
a(S'p2_vo'
I2
tp85
a(S'w'
I1464
tp86
a(S'p1_vo'
I3
tp87
a(S'w'
I4
tp88
a(S'p2_vo'
I3
tp89
a(S'w'
I1463
tp90
a(S'p1_vo'
I4
tp91
a(S'w'
I4
tp92
a(S'p2_vo'
I4
tp93
a(S'w'
I1464
tp94
a(S'p1_vo'
I5
tp95
a(S'w'
I4
tp96
a(S'p2_vo'
I5
tp97
a(S'w'
I726
tp98
a(S'p1_tl'
I133
tp99
a(S'p1_ll'
I1
tp100
a(S'w'
I6
tp101
a(S'p2_tl'
I126
tp102
a(S'p2_ll'
I1
tp103
a(S'w'
I9
tp104
a(S'tr_lr'
I60
tp105
a(S'w'
I1
tp106
a(S'tr_tl'
I253
tp107
a(S'tr_ll'
I1
tp108
a(S'w'
I5
tp109
a(S'no_cv'
I0
tp110
a(S'no_vo'
I3
tp111
a(S'no_np'
I0
tp112
a(S'no_ll'
I5
tp113
a(S'w'
I4
tp114
a(S'p1_vo'
I1
tp115
a(S'w'
I4
tp116
a(S'p2_vo'
I1
tp117
a(S'w'
I708
tp118
a(S'p1_vo'
I2
tp119
a(S'w'
I4
tp120
a(S'p2_vo'
I2
tp121
a(S'w'
I1464
tp122
a(S'p1_vo'
I3
tp123
a(S'w'
I4
tp124
a(S'p2_vo'
I3
tp125
a(S'w'
I1463
tp126
a(S'p1_vo'
I4
tp127
a(S'w'
I4
tp128
a(S'p2_vo'
I4
tp129
a(S'w'
I1464
tp130
a(S'p1_vo'
I5
tp131
a(S'w'
I4
tp132
a(S'p2_vo'
I5
tp133
a(S'w'
I726
tp134
a(S'p1_ll'
I1
tp135
a(S'w'
I6
tp136
a(S'p2_ll'
I1
tp137
a(S'w'
I6
tp138
a(S'p1_du'
I0
tp139
a(S'p1_lh'
I0
tp140
a(S'p1_vo'
I0
tp141
a(S'w'
I1
tp142
a(S'p2_du'
I0
tp143
a(S'p2_lh'
I0
tp144
a(S'p2_vo'
I0
tp145
a(S'w'
I5857
tp146
a(S'p1_tl'
I178
tp147
a(S'p1_ll'
I1
tp148
a(S'w'
I6
tp149
a(S'p2_tl'
I168
tp150
a(S'p2_ll'
I1
tp151
a(S'w'
I7
tp152
a(S'p1_du'
I3
tp153
a(S'p1_lh'
I1
tp154
a(S'p1_vo'
I1
tp155
a(S'w'
I4
tp156
a(S'p2_du'
I3
tp157
a(S'p2_lh'
I1
tp158
a(S'p2_vo'
I1
tp159
a(S'w'
I721
tp160
a(S'p1_vo'
I2
tp161
a(S'w'
I4
tp162
a(S'p2_vo'
I2
tp163
a(S'w'
I1464
tp164
a(S'p1_vo'
I3
tp165
a(S'w'
I4
tp166
a(S'p2_vo'
I3
tp167
a(S'w'
I1463
tp168
a(S'p1_vo'
I4
tp169
a(S'w'
I4
tp170
a(S'p2_vo'
I4
tp171
a(S'w'
I1464
tp172
a(S'p1_vo'
I5
tp173
a(S'w'
I4
tp174
a(S'p2_vo'
I5
tp175
a(S'w'
I726
tp176
a(S'p1_tl'
I133
tp177
a(S'p1_ll'
I1
tp178
a(S'w'
I6
tp179
a(S'p2_tl'
I126
tp180
a(S'p2_ll'
I1
tp181
a(S'w'
I8
tp182
a(S'tr_lr'
I28
tp183
a(S'tr_tl'
I126
tp184
a(S'tr_ll'
I1
tp185
a(S'w'
I6
tp186
a(S'no_ll'
I5
tp187
a(S'w'
I4
tp188
a(S'p1_vo'
I1
tp189
a(S'w'
I3
tp190
a(S'p2_vo'
I1
tp191
a(S'w'
I710
tp192
a(S'p1_vo'
I2
tp193
a(S'w'
I4
tp194
a(S'p2_vo'
I2
tp195
a(S'w'
I1464
tp196
a(S'p1_vo'
I3
tp197
a(S'w'
I4
tp198
a(S'p2_vo'
I3
tp199
a(S'w'
I1463
tp200
a(S'p1_vo'
I4
tp201
a(S'w'
I4
tp202
a(S'p2_vo'
I4
tp203
a(S'w'
I1464
tp204
a(S'p1_vo'
I5
tp205
a(S'w'
I4
tp206
a(S'p2_vo'
I5
tp207
a(S'w'
I726
tp208
a(S'p1_ll'
I1
tp209
a(S'w'
I6
tp210
a(S'p2_ll'
I1
tp211
a(S'w'
I5
tp212
a(S'tr_lr'
I0
tp213
a(S'w'
I1
tp214
a(S'tr_ll'
I1
tp215
a(S'w'
I4
tp216
a(S'p1_du'
I0
tp217
a(S'p1_lh'
I0
tp218
a(S'p1_vo'
I0
tp219
a(S'w'
I2
tp220
a(S'p2_du'
I0
tp221
a(S'p2_lh'
I0
tp222
a(S'p2_vo'
I0
tp223
a(S'w'
I5852
tp224
a(S'p1_tl'
I105
tp225
a(S'p1_ll'
I1
tp226
a(S'w'
I6
tp227
a(S'p2_tl'
I99
tp228
a(S'p2_ll'
I1
tp229
a(S'w'
I5
tp230
a(S'tr_lr'
I28
tp231
a(S'w'
I1
tp232
a(S'tr_ll'
I1
tp233
a(S'w'
I6
tp234
a(S'p1_du'
I3
tp235
a(S'p1_lh'
I1
tp236
a(S'p1_vo'
I1
tp237
a(S'w'
I3
tp238
a(S'p2_du'
I3
tp239
a(S'p2_lh'
I1
tp240
a(S'p2_vo'
I1
tp241
a(S'w'
I717
tp242
a(S'p1_vo'
I2
tp243
a(S'w'
I4
tp244
a(S'p2_vo'
I2
tp245
a(S'w'
I1464
tp246
a(S'p1_vo'
I3
tp247
a(S'w'
I4
tp248
a(S'p2_vo'
I3
tp249
a(S'w'
I1463
tp250
a(S'p1_vo'
I4
tp251
a(S'w'
I4
tp252
a(S'p2_vo'
I4
tp253
a(S'w'
I1464
tp254
a(S'p1_vo'
I5
tp255
a(S'w'
I4
tp256
a(S'p2_vo'
I5
tp257
a(S'w'
I727
tp258
a(S'p1_tl'
I133
tp259
a(S'p1_ll'
I1
tp260
a(S'w'
I7
tp261
a(S'p2_tl'
I126
tp262
a(S'p2_ll'
I1
tp263
a(S'w'
I8
tp264
a(S'tr_lr'
I0
tp265
a(S'tr_ll'
I1
tp266
a(S'w'
I6
tp267
a(S'no_ll'
I5
tp268
a(S'w'
I4
tp269
a(S'p1_vo'
I1
tp270
a(S'w'
I3
tp271
a(S'p2_vo'
I1
tp272
a(S'w'
I708
tp273
a(S'p1_vo'
I2
tp274
a(S'w'
I4
tp275
a(S'p2_vo'
I2
tp276
a(S'w'
I1464
tp277
a(S'p1_vo'
I3
tp278
a(S'w'
I4
tp279
a(S'p2_vo'
I3
tp280
a(S'w'
I1463
tp281
a(S'p1_vo'
I4
tp282
a(S'w'
I4
tp283
a(S'p2_vo'
I4
tp284
a(S'w'
I1464
tp285
a(S'p1_vo'
I5
tp286
a(S'w'
I4
tp287
a(S'p2_vo'
I5
tp288
a(S'w'
I1467
tp289
a(S'p2_vo'
I6
tp290
a(S'w'
I2199
tp291
a(S'tr_lr'
I20
tp292
a(S'tr_ll'
I1
tp293
a(S'w'
I4401
tp294
a(S'tr_ll'
I1
tp295
a(S'w'
I4401
tp296
a(S'p1_ll'
I1
tp297
a(S'w'
I7
tp298
a(S'p2_ll'
I1
tp299
a(S'w'
I8
tp300
a(S'tr_lr'
I28
tp301
a(S'w'
I1
tp302
a(S'tr_ll'
I1
tp303
a(S'w'
I5
tp304
a(S'no_ll'
I5
tp305
a(S'w'
I4
tp306
a(S'p1_vo'
I1
tp307
a(S'w'
I3
tp308
a(S'p2_vo'
I1
tp309
a(S'w'
I708
tp310
a(S'p1_vo'
I2
tp311
a(S'w'
I4
tp312
a(S'p2_vo'
I2
tp313
a(S'w'
I1464
tp314
a(S'p1_vo'
I3
tp315
a(S'w'
I4
tp316
a(S'p2_vo'
I3
tp317
a(S'w'
I1463
tp318
a(S'p1_vo'
I4
tp319
a(S'w'
I4
tp320
a(S'p2_vo'
I4
tp321
a(S'w'
I1464
tp322
a(S'p1_vo'
I5
tp323
a(S'w'
I4
tp324
a(S'p2_vo'
I5
tp325
a(S'w'
I726
tp326
a(S'p1_ll'
I1
tp327
a(S'w'
I6
tp328
a(S'p2_ll'
I1
tp329
a(S'w'
I5
tp330
a(S'tr_lr'
I0
tp331
a(S'w'
I1
tp332
a(S'tr_ll'
I1
tp333
a(S'w'
I4
tp334
a(S'p1_du'
I0
tp335
a(S'p1_lh'
I0
tp336
a(S'p1_vo'
I0
tp337
a(S'w'
I2
tp338
a(S'p2_du'
I0
tp339
a(S'p2_lh'
I0
tp340
a(S'p2_vo'
I0
tp341
a(S'w'
I5852
tp342
a(S'p1_ll'
I1
tp343
a(S'w'
I6
tp344
a(S'p2_ll'
I1
tp345
a(S'w'
I5
tp346
a(S'tr_lr'
I28
tp347
a(S'w'
I1
tp348
a(S'tr_ll'
I1
tp349
a(S'w'
I6
tp350
a(S'p1_du'
I3
tp351
a(S'p1_lh'
I1
tp352
a(S'p1_vo'
I1
tp353
a(S'w'
I3
tp354
a(S'p2_du'
I3
tp355
a(S'p2_lh'
I1
tp356
a(S'p2_vo'
I1
tp357
a(S'w'
I717
tp358
a(S'p1_vo'
I2
tp359
a(S'w'
I4
tp360
a(S'p2_vo'
I2
tp361
a(S'w'
I1464
tp362
a(S'p1_vo'
I3
tp363
a(S'w'
I4
tp364
a(S'p2_vo'
I3
tp365
a(S'w'
I1463
tp366
a(S'p1_vo'
I4
tp367
a(S'w'
I4
tp368
a(S'p2_vo'
I4
tp369
a(S'w'
I1464
tp370
a(S'p1_vo'
I5
tp371
a(S'w'
I4
tp372
a(S'p2_vo'
I5
tp373
a(S'w'
I726
tp374
a(S'p1_tl'
I105
tp375
a(S'p1_ll'
I1
tp376
a(S'w'
I6
tp377
a(S'p2_tl'
I99
tp378
a(S'p2_ll'
I1
tp379
a(S'w'
I9
tp380
a(S'tr_lr'
I60
tp381
a(S'tr_tl'
I253
tp382
a(S'w'
I1
tp383
a(S'tr_ll'
I1
tp384
a(S'w'
I5
tp385
a(S'no_ll'
I5
tp386
a(S'w'
I4
tp387
a(S'p1_vo'
I1
tp388
a(S'w'
I4
tp389
a(S'p2_vo'
I1
tp390
a(S'w'
I708
tp391
a(S'p1_vo'
I2
tp392
a(S'w'
I4
tp393
a(S'p2_vo'
I2
tp394
a(S'w'
I1464
tp395
a(S'p1_vo'
I3
tp396
a(S'w'
I4
tp397
a(S'p2_vo'
I3
tp398
a(S'w'
I1463
tp399
a(S'p1_vo'
I4
tp400
a(S'w'
I4
tp401
a(S'p2_vo'
I4
tp402
a(S'w'
I1464
tp403
a(S'p1_vo'
I5
tp404
a(S'w'
I4
tp405
a(S'p2_vo'
I5
tp406
a(S'w'
I726
tp407
a(S'p1_ll'
I1
tp408
a(S'w'
I6
tp409
a(S'p2_ll'
I1
tp410
a(S'w'
I6
tp411
a(S'p1_du'
I0
tp412
a(S'p1_lh'
I0
tp413
a(S'p1_vo'
I0
tp414
a(S'w'
I1
tp415
a(S'p2_du'
I0
tp416
a(S'p2_lh'
I0
tp417
a(S'p2_vo'
I0
tp418
a(S'w'
I5857
tp419
a(S'p1_tl'
I133
tp420
a(S'p1_ll'
I1
tp421
a(S'w'
I6
tp422
a(S'p2_tl'
I126
tp423
a(S'p2_ll'
I1
tp424
a(S'w'
I7
tp425
a(S'p1_du'
I3
tp426
a(S'p1_lh'
I1
tp427
a(S'p1_vo'
I1
tp428
a(S'w'
I4
tp429
a(S'p2_du'
I3
tp430
a(S'p2_lh'
I1
tp431
a(S'p2_vo'
I1
tp432
a(S'w'
I721
tp433
a(S'p1_vo'
I2
tp434
a(S'w'
I4
tp435
a(S'p2_vo'
I2
tp436
a(S'w'
I1464
tp437
a(S'p1_vo'
I3
tp438
a(S'w'
I4
tp439
a(S'p2_vo'
I3
tp440
a(S'w'
I1463
tp441
a(S'p1_vo'
I4
tp442
a(S'w'
I4
tp443
a(S'p2_vo'
I4
tp444
a(S'w'
I1464
tp445
a(S'p1_vo'
I5
tp446
a(S'w'
I4
tp447
a(S'p2_vo'
I5
tp448
a(S'w'
I726
tp449
a(S'p1_tl'
I88
tp450
a(S'p1_ll'
I1
tp451
a(S'w'
I6
tp452
a(S'p2_tl'
I83
tp453
a(S'p2_ll'
I1
tp454
a(S'w'
I8
tp455
a(S'tr_lr'
I28
tp456
a(S'tr_tl'
I126
tp457
a(S'tr_ll'
I1
tp458
a(S'w'
I6
tp459
a(S'no_ll'
I5
tp460
a(S'w'
I4
tp461
a(S'p1_vo'
I1
tp462
a(S'w'
I3
tp463
a(S'p2_vo'
I1
tp464
a(S'w'
I710
tp465
a(S'p1_vo'
I2
tp466
a(S'w'
I4
tp467
a(S'p2_vo'
I2
tp468
a(S'w'
I1464
tp469
a(S'p1_vo'
I3
tp470
a(S'w'
I4
tp471
a(S'p2_vo'
I3
tp472
a(S'w'
I1463
tp473
a(S'p1_vo'
I4
tp474
a(S'w'
I4
tp475
a(S'p2_vo'
I4
tp476
a(S'w'
I1464
tp477
a(S'p1_vo'
I5
tp478
a(S'w'
I4
tp479
a(S'p2_vo'
I5
tp480
a(S'w'
I726
tp481
a(S'p1_ll'
I1
tp482
a(S'w'
I6
tp483
a(S'p2_ll'
I1
tp484
a(S'w'
I5
tp485
a(S'tr_lr'
I0
tp486
a(S'w'
I1
tp487
a(S'tr_ll'
I1
tp488
a(S'w'
I4
tp489
a(S'p1_du'
I0
tp490
a(S'p1_lh'
I0
tp491
a(S'p1_vo'
I0
tp492
a(S'w'
I2
tp493
a(S'p2_du'
I0
tp494
a(S'p2_lh'
I0
tp495
a(S'p2_vo'
I0
tp496
a(S'w'
I5852
tp497
a(S'p1_ll'
I1
tp498
a(S'w'
I6
tp499
a(S'p2_ll'
I1
tp500
a(S'w'
I5
tp501
a(S'tr_lr'
I28
tp502
a(S'w'
I1
tp503
a(S'tr_ll'
I1
tp504
a(S'w'
I5859
tp505
a(S'p1_ll'
I1
tp506
a(S'w'
I6
tp507
a(S'p2_ll'
I1
tp508
a(S'w'
I7
tp509
a(S'tr_lr'
I0
tp510
a(S'w'
I1
tp511
a(S'tr_ll'
I1
tp512
a(S'w'
I5
tp513
a(S'no_ll'
I5
tp514
a(S'w'
I4
tp515
a(S'p1_du'
I3
tp516
a(S'p1_lh'
I1
tp517
a(S'p1_vo'
I1
tp518
a(S'w'
I4
tp519
a(S'p2_du'
I3
tp520
a(S'p2_lh'
I1
tp521
a(S'p2_vo'
I1
tp522
a(S'w'
I710
tp523
a(S'p1_vo'
I2
tp524
a(S'w'
I4
tp525
a(S'p2_vo'
I2
tp526
a(S'w'
I1464
tp527
a(S'p1_vo'
I3
tp528
a(S'w'
I4
tp529
a(S'p2_vo'
I3
tp530
a(S'w'
I1463
tp531
a(S'p1_vo'
I4
tp532
a(S'w'
I4
tp533
a(S'p2_vo'
I4
tp534
a(S'w'
I1464
tp535
a(S'p1_vo'
I5
tp536
a(S'w'
I4
tp537
a(S'p2_vo'
I5
tp538
a(S'w'
I726
tp539
a(S'p1_ll'
I1
tp540
a(S'w'
I6
tp541
a(S'p2_ll'
I1
tp542
a(S'w'
I6
tp543
a(S'p1_du'
I0
tp544
a(S'p1_lh'
I0
tp545
a(S'p1_vo'
I0
tp546
a(S'w'
I1
tp547
a(S'p2_du'
I0
tp548
a(S'p2_lh'
I0
tp549
a(S'p2_vo'
I0
tp550
a(S'w'
I2927
tp551
a(S'tr_lr'
I20
tp552
a(S'tr_ll'
I1
tp553
a(S'w'
I2930
tp554
a(S'p1_ll'
I1
tp555
a(S'w'
I6
tp556
a(S'p2_ll'
I1
tp557
a(S'w'
I1465
tp558
a(S'tr_ll'
I1
tp559
a(S'w'
I5134
tp560
a(S'p1_tl'
I178
tp561
a(S'p1_ll'
I1
tp562
a(S'w'
I7
tp563
a(S'p2_tl'
I168
tp564
a(S'p2_ll'
I1
tp565
a(S'w'
I8
tp566
a(S'tr_lr'
I0
tp567
a(S'tr_ll'
I1
tp568
a(S'w'
I1
tp569
a.