(lp1
(S'clock'
p2
I1789772
tp3
a(S'p1_lh'
I1
tp4
a(S'p1_cv'
I1
tp5
a(S'p1_tl'
I254
tp6
a(S'p1_ll'
I1
tp7
a(S'p2_lh'
I1
tp8
a(S'p2_cv'
I1
tp9
a(S'p2_sp'
I3
tp10
a(S'p2_tl'
I190
tp11
a(S'p2_ll'
I1
tp12
a(S'tr_lr'
I19
tp13
a(S'tr_tl'
I83
tp14
a(S'tr_ll'
I1
tp15
a(S'tr_th'
I1
tp16
a(S'no_lh'
I1
tp17
a(S'no_cv'
I1
tp18
a(S'no_np'
I2
tp19
a(S'no_ll'
I1
tp20
a(S'ch_no'
I1
tp21
a(S'ch_tr'
I1
tp22
a(S'ch_p2'
I1
tp23
a(S'ch_p1'
I1
tp24
a(S'fc_mo'
I1
tp25
a(S'p1_du'
I2
tp26
a(S'p1_vo'
I7
tp27
a(S'w'
I6
tp28
a(S'p1_tl'
I226
tp29
a(S'w'
I7
tp30
a(S'p2_du'
I2
tp31
a(S'p2_vo'
I7
tp32
a(S'w'
I6
tp33
a(S'p2_tl'
I169
tp34
a(S'w'
I96
tp35
a(S'tr_lr'
I0
tp36
a(S'w'
I1
tp37
a(S'p1_du'
I0
tp38
a(S'p1_vo'
I0
tp39
a(S'p1_sp'
I3
tp40
a(S'p2_du'
I0
tp41
a(S'p2_vo'
I0
tp42
a(S'w'
I620
tp43
a(S'p1_du'
I2
tp44
a(S'w'
I2
tp45
a(S'p1_se'
I1
tp46
a(S'p1_sp'
I1
tp47
a(S'p1_ss'
I2
tp48
a(S'w'
I3
tp49
a(S'p1_vo'
I11
tp50
a(S'w'
I2
tp51
a(S'p1_ll'
I1
tp52
a(S'w'
I1
tp53
a(S'p1_tl'
I128
tp54
a(S'w'
I3668
tp55
a(S'p1_ll'
I1
tp56
a(S'w'
I2
tp57
a(S'p1_tl'
I144
tp58
a(S'w'
I3664
tp59
a(S'p1_ll'
I1
tp60
a(S'w'
I2
tp61
a(S'p1_tl'
I160
tp62
a(S'w'
I3666
tp63
a(S'p1_ll'
I1
tp64
a(S'w'
I1
tp65
a(S'p1_tl'
I192
tp66
a(S'w'
I3669
tp67
a(S'p1_ll'
I1
tp68
a(S'w'
I2
tp69
a(S'p1_tl'
I224
tp70
a(S'w'
I3670
tp71
a(S'p1_ll'
I1
tp72
a(S'p1_th'
I1
tp73
a(S'w'
I1
tp74
a(S'p1_tl'
I0
tp75
a(S'w'
I3665
tp76
a(S'p1_ll'
I1
tp77
a(S'w'
I1
tp78
a(S'p1_tl'
I48
tp79
a(S'w'
I3667
tp80
a(S'p1_ll'
I1
tp81
a(S'w'
I1
tp82
a(S'p1_tl'
I96
tp83
a(S'w'
I3669
tp84
a(S'p1_ll'
I1
tp85
a(S'w'
I2
tp86
a(S'p1_tl'
I96
tp87
a(S'w'
I3671
tp88
a(S'p1_ll'
I1
tp89
a(S'w'
I1
tp90
a(S'p1_tl'
I128
tp91
a(S'w'
I3661
tp92
a(S'p1_du'
I0
tp93
a(S'p1_vo'
I0
tp94
a(S'w'
I10000
tp95
a.