(lp1
(S'clock'
p2
I1789772
tp3
a(S'p1_du'
I2
tp4
a(S'p1_cv'
I1
tp5
a(S'p2_du'
I2
tp6
a(S'p2_cv'
I1
tp7
a(S'no_cv'
I1
tp8
a(S'ch_no'
I1
tp9
a(S'ch_tr'
I1
tp10
a(S'ch_p2'
I1
tp11
a(S'ch_p1'
I1
tp12
a(S'fc_mo'
I0
tp13
a(S'p1_du'
I0
tp14
a(S'p1_lh'
I1
tp15
a(S'p1_vo'
I6
tp16
a(S'p1_tl'
I103
tp17
a(S'p1_sp'
I7
tp18
a(S'p1_sn'
I1
tp19
a(S'p1_ss'
I7
tp20
a(S'w'
I1
tp21
a(S'p1_ll'
I0
tp22
a(S'p1_th'
I1
tp23
a(S'w'
I15
tp24
a(S'p2_du'
I0
tp25
a(S'p2_lh'
I1
tp26
a(S'p2_vo'
I6
tp27
a(S'p2_tl'
I171
tp28
a(S'p2_sp'
I7
tp29
a(S'p2_sn'
I1
tp30
a(S'p2_ss'
I7
tp31
a(S'w'
I1
tp32
a(S'p2_ll'
I0
tp33
a(S'p2_th'
I1
tp34
a(S'w'
I15
tp35
a(S'tr_lh'
I1
tp36
a(S'tr_lr'
I54
tp37
a(S'tr_tl'
I45
tp38
a(S'w'
I1
tp39
a(S'tr_ll'
I0
tp40
a(S'tr_th'
I1
tp41
a(S'w'
I4
tp42
a(S'no_lh'
I1
tp43
a(S'w'
I688
tp44
a(S'p1_du'
I1
tp45
a(S'p1_vo'
I11
tp46
a(S'w'
I1
tp47
a(S'w'
I9
tp48
a(S'p2_du'
I1
tp49
a(S'p2_vo'
I11
tp50
a(S'w'
I9
tp51
a(S'tr_lr'
I57
tp52
a(S'w'
I716
tp53
a(S'w'
I10
tp54
a(S'w'
I10
tp55
a(S'tr_lr'
I121
tp56
a(S'w'
I713
tp57
a(S'p1_vo'
I10
tp58
a(S'w'
I1
tp59
a(S'w'
I9
tp60
a(S'p2_vo'
I10
tp61
a(S'w'
I10
tp62
a(S'tr_lr'
I120
tp63
a(S'w'
I714
tp64
a(S'w'
I10
tp65
a(S'w'
I10
tp66
a(S'tr_lr'
I119
tp67
a(S'w'
I714
tp68
a(S'p1_vo'
I9
tp69
a(S'w'
I9
tp70
a(S'p2_vo'
I9
tp71
a(S'w'
I10
tp72
a(S'tr_lr'
I118
tp73
a(S'w'
I718
tp74
a(S'p1_du'
I0
tp75
a(S'p1_vo'
I6
tp76
a(S'p1_tl'
I45
tp77
a(S'w'
I1
tp78
a(S'p1_ll'
I0
tp79
a(S'w'
I13
tp80
a(S'p2_du'
I0
tp81
a(S'p2_vo'
I6
tp82
a(S'p2_tl'
I103
tp83
a(S'p2_ll'
I0
tp84
a(S'w'
I13
tp85
a(S'tr_lr'
I54
tp86
a(S'w'
I1
tp87
a(S'tr_tl'
I253
tp88
a(S'tr_ll'
I0
tp89
a(S'tr_th'
I0
tp90
a(S'w'
I703
tp91
a(S'p1_du'
I1
tp92
a(S'p1_vo'
I11
tp93
a(S'w'
I9
tp94
a(S'p2_du'
I1
tp95
a(S'p2_vo'
I11
tp96
a(S'w'
I1
tp97
a(S'w'
I10
tp98
a(S'tr_lr'
I57
tp99
a(S'w'
I714
tp100
a(S'w'
I9
tp101
a(S'w'
I10
tp102
a(S'tr_lr'
I121
tp103
a(S'w'
I714
tp104
a(S'p1_vo'
I10
tp105
a(S'w'
I9
tp106
a(S'p2_vo'
I10
tp107
a(S'w'
I10
tp108
a(S'tr_lr'
I120
tp109
a(S'w'
I715
tp110
a(S'w'
I10
tp111
a(S'w'
I10
tp112
a(S'tr_lr'
I119
tp113
a(S'w'
I717
tp114
a(S'p1_du'
I0
tp115
a(S'p1_vo'
I6
tp116
a(S'p1_tl'
I253
tp117
a(S'w'
I1
tp118
a(S'p1_ll'
I0
tp119
a(S'p1_th'
I0
tp120
a(S'w'
I13
tp121
a(S'p2_du'
I0
tp122
a(S'p2_vo'
I6
tp123
a(S'p2_tl'
I45
tp124
a(S'p2_ll'
I0
tp125
a(S'w'
I13
tp126
a(S'tr_lr'
I54
tp127
a(S'w'
I1
tp128
a(S'tr_tl'
I212
tp129
a(S'tr_ll'
I0
tp130
a(S'w'
I703
tp131
a(S'p1_du'
I1
tp132
a(S'p1_vo'
I11
tp133
a(S'w'
I9
tp134
a(S'p2_du'
I1
tp135
a(S'p2_vo'
I11
tp136
a(S'w'
I1
tp137
a(S'w'
I10
tp138
a(S'tr_lr'
I57
tp139
a(S'w'
I714
tp140
a(S'w'
I9
tp141
a(S'w'
I10
tp142
a(S'tr_lr'
I121
tp143
a(S'w'
I714
tp144
a(S'p1_vo'
I10
tp145
a(S'w'
I9
tp146
a(S'p2_vo'
I10
tp147
a(S'w'
I10
tp148
a(S'tr_lr'
I120
tp149
a(S'w'
I715
tp150
a(S'w'
I10
tp151
a(S'w'
I10
tp152
a(S'tr_lr'
I119
tp153
a(S'w'
I717
tp154
a(S'p1_du'
I0
tp155
a(S'p1_vo'
I6
tp156
a(S'p1_tl'
I212
tp157
a(S'w'
I1
tp158
a(S'p1_ll'
I0
tp159
a(S'w'
I13
tp160
a(S'p2_du'
I0
tp161
a(S'p2_vo'
I6
tp162
a(S'p2_tl'
I253
tp163
a(S'p2_ll'
I0
tp164
a(S'p2_th'
I0
tp165
a(S'w'
I13
tp166
a(S'tr_lr'
I54
tp167
a(S'w'
I1
tp168
a(S'tr_tl'
I178
tp169
a(S'tr_ll'
I0
tp170
a(S'w'
I703
tp171
a(S'p1_du'
I1
tp172
a(S'p1_vo'
I11
tp173
a(S'w'
I9
tp174
a(S'p2_du'
I1
tp175
a(S'p2_vo'
I11
tp176
a(S'w'
I1
tp177
a(S'w'
I10
tp178
a(S'tr_lr'
I57
tp179
a(S'w'
I713
tp180
a(S'w'
I10
tp181
a(S'w'
I9
tp182
a(S'tr_lr'
I121
tp183
a(S'w'
I715
tp184
a(S'p1_vo'
I10
tp185
a(S'w'
I10
tp186
a(S'p2_vo'
I10
tp187
a(S'w'
I10
tp188
a(S'tr_lr'
I120
tp189
a(S'w'
I714
tp190
a(S'w'
I10
tp191
a(S'w'
I10
tp192
a(S'tr_lr'
I119
tp193
a(S'w'
I717
tp194
a(S'p1_du'
I0
tp195
a(S'p1_vo'
I6
tp196
a(S'p1_tl'
I178
tp197
a(S'w'
I1
tp198
a(S'p1_ll'
I0
tp199
a(S'w'
I13
tp200
a(S'p2_du'
I0
tp201
a(S'p2_vo'
I6
tp202
a(S'p2_tl'
I212
tp203
a(S'p2_ll'
I0
tp204
a(S'w'
I13
tp205
a(S'tr_lr'
I54
tp206
a(S'w'
I1
tp207
a(S'tr_tl'
I150
tp208
a(S'tr_ll'
I0
tp209
a(S'w'
I702
tp210
a(S'p1_du'
I1
tp211
a(S'p1_vo'
I11
tp212
a(S'w'
I10
tp213
a(S'p2_du'
I1
tp214
a(S'p2_vo'
I11
tp215
a(S'w'
I9
tp216
a(S'tr_lr'
I57
tp217
a(S'w'
I716
tp218
a(S'w'
I9
tp219
a(S'w'
I10
tp220
a(S'tr_lr'
I121
tp221
a(S'w'
I714
tp222
a(S'p1_vo'
I10
tp223
a(S'w'
I10
tp224
a(S'p2_vo'
I10
tp225
a(S'w'
I10
tp226
a(S'tr_lr'
I120
tp227
a(S'w'
I714
tp228
a(S'w'
I10
tp229
a(S'w'
I10
tp230
a(S'tr_lr'
I119
tp231
a(S'w'
I717
tp232
a(S'p1_du'
I0
tp233
a(S'p1_vo'
I6
tp234
a(S'w'
I1
tp235
a(S'p1_tl'
I150
tp236
a(S'p1_ll'
I0
tp237
a(S'w'
I13
tp238
a(S'p2_du'
I0
tp239
a(S'p2_vo'
I6
tp240
a(S'p2_tl'
I178
tp241
a(S'p2_ll'
I0
tp242
a(S'w'
I13
tp243
a(S'tr_lr'
I54
tp244
a(S'w'
I1
tp245
a(S'tr_tl'
I126
tp246
a(S'tr_ll'
I0
tp247
a(S'w'
I702
tp248
a(S'p1_du'
I1
tp249
a(S'p1_vo'
I11
tp250
a(S'w'
I10
tp251
a(S'p2_du'
I1
tp252
a(S'p2_vo'
I11
tp253
a(S'w'
I9
tp254
a(S'tr_lr'
I57
tp255
a(S'w'
I716
tp256
a(S'w'
I9
tp257
a(S'w'
I10
tp258
a(S'tr_lr'
I121
tp259
a(S'w'
I714
tp260
a(S'p1_vo'
I10
tp261
a(S'w'
I1
tp262
a(S'w'
I9
tp263
a(S'p2_vo'
I10
tp264
a(S'w'
I10
tp265
a(S'tr_lr'
I120
tp266
a(S'w'
I714
tp267
a(S'w'
I10
tp268
a(S'w'
I10
tp269
a(S'tr_lr'
I119
tp270
a(S'w'
I713
tp271
a(S'p1_vo'
I9
tp272
a(S'w'
I1
tp273
a(S'w'
I9
tp274
a(S'p2_vo'
I9
tp275
a(S'w'
I9
tp276
a(S'tr_lr'
I118
tp277
a(S'w'
I719
tp278
a(S'p1_du'
I0
tp279
a(S'p1_vo'
I6
tp280
a(S'p1_tl'
I112
tp281
a(S'w'
I1
tp282
a(S'p1_ll'
I0
tp283
a(S'w'
I12
tp284
a(S'p2_du'
I0
tp285
a(S'p2_vo'
I6
tp286
a(S'w'
I1
tp287
a(S'p2_tl'
I150
tp288
a(S'p2_ll'
I0
tp289
a(S'w'
I13
tp290
a(S'tr_lr'
I54
tp291
a(S'tr_tl'
I105
tp292
a(S'w'
I1
tp293
a(S'tr_ll'
I0
tp294
a(S'w'
I702
tp295
a(S'p1_du'
I1
tp296
a(S'p1_vo'
I11
tp297
a(S'w'
I1
tp298
a(S'w'
I9
tp299
a(S'p2_du'
I1
tp300
a(S'p2_vo'
I11
tp301
a(S'w'
I1
tp302
a(S'w'
I9
tp303
a(S'tr_lr'
I57
tp304
a(S'w'
I714
tp305
a(S'w'
I10
tp306
a(S'w'
I10
tp307
a(S'tr_lr'
I121
tp308
a(S'w'
I714
tp309
a(S'p1_vo'
I10
tp310
a(S'w'
I9
tp311
a(S'p2_vo'
I10
tp312
a(S'w'
I10
tp313
a(S'tr_lr'
I120
tp314
a(S'w'
I715
tp315
a(S'w'
I10
tp316
a(S'w'
I10
tp317
a(S'tr_lr'
I119
tp318
a(S'w'
I717
tp319
a(S'p1_du'
I0
tp320
a(S'p1_vo'
I6
tp321
a(S'p1_tl'
I118
tp322
a(S'w'
I1
tp323
a(S'p1_ll'
I0
tp324
a(S'w'
I13
tp325
a(S'p2_du'
I0
tp326
a(S'p2_vo'
I6
tp327
a(S'p2_tl'
I159
tp328
a(S'p2_ll'
I0
tp329
a(S'w'
I13
tp330
a(S'tr_lr'
I54
tp331
a(S'tr_tl'
I112
tp332
a(S'w'
I1
tp333
a(S'tr_ll'
I0
tp334
a(S'w'
I702
tp335
a(S'p1_du'
I1
tp336
a(S'p1_vo'
I11
tp337
a(S'w'
I1
tp338
a(S'w'
I9
tp339
a(S'p2_du'
I1
tp340
a(S'p2_vo'
I11
tp341
a(S'w'
I10
tp342
a(S'tr_lr'
I57
tp343
a(S'w'
I715
tp344
a(S'w'
I9
tp345
a(S'w'
I10
tp346
a(S'tr_lr'
I121
tp347
a(S'w'
I714
tp348
a(S'p1_vo'
I10
tp349
a(S'w'
I9
tp350
a(S'p2_vo'
I10
tp351
a(S'w'
I10
tp352
a(S'tr_lr'
I120
tp353
a(S'w'
I715
tp354
a(S'w'
I10
tp355
a(S'w'
I10
tp356
a(S'tr_lr'
I119
tp357
a(S'w'
I717
tp358
a(S'p1_du'
I0
tp359
a(S'p1_vo'
I6
tp360
a(S'p1_tl'
I126
tp361
a(S'w'
I1
tp362
a(S'p1_ll'
I0
tp363
a(S'w'
I12
tp364
a(S'p2_du'
I0
tp365
a(S'p2_vo'
I6
tp366
a(S'w'
I1
tp367
a(S'p2_tl'
I168
tp368
a(S'p2_ll'
I0
tp369
a(S'w'
I13
tp370
a(S'tr_lr'
I54
tp371
a(S'tr_tl'
I118
tp372
a(S'w'
I1
tp373
a(S'tr_ll'
I0
tp374
a(S'w'
I703
tp375
a(S'p1_du'
I1
tp376
a(S'p1_vo'
I11
tp377
a(S'w'
I9
tp378
a(S'p2_du'
I1
tp379
a(S'p2_vo'
I11
tp380
a(S'w'
I1
tp381
a(S'w'
I9
tp382
a(S'tr_lr'
I57
tp383
a(S'w'
I714
tp384
a(S'w'
I9
tp385
a(S'w'
I10
tp386
a(S'tr_lr'
I121
tp387
a(S'w'
I715
tp388
a(S'p1_vo'
I10
tp389
a(S'w'
I10
tp390
a(S'p2_vo'
I10
tp391
a(S'w'
I10
tp392
a(S'tr_lr'
I120
tp393
a(S'w'
I714
tp394
a(S'w'
I10
tp395
a(S'w'
I10
tp396
a(S'tr_lr'
I119
tp397
a(S'w'
I718
tp398
a(S'p1_du'
I0
tp399
a(S'p1_vo'
I6
tp400
a(S'p1_tl'
I133
tp401
a(S'p1_ll'
I0
tp402
a(S'w'
I14
tp403
a(S'p2_du'
I0
tp404
a(S'p2_vo'
I6
tp405
a(S'p2_tl'
I178
tp406
a(S'p2_ll'
I0
tp407
a(S'w'
I14
tp408
a(S'tr_lr'
I54
tp409
a(S'tr_tl'
I126
tp410
a(S'w'
I1
tp411
a(S'tr_ll'
I0
tp412
a(S'w'
I700
tp413
a(S'p1_du'
I1
tp414
a(S'p1_vo'
I11
tp415
a(S'w'
I9
tp416
a(S'p2_du'
I1
tp417
a(S'p2_vo'
I11
tp418
a(S'w'
I1
tp419
a(S'w'
I9
tp420
a(S'tr_lr'
I57
tp421
a(S'w'
I716
tp422
a(S'w'
I9
tp423
a(S'w'
I10
tp424
a(S'tr_lr'
I121
tp425
a(S'w'
I714
tp426
a(S'p1_vo'
I10
tp427
a(S'w'
I10
tp428
a(S'p2_vo'
I10
tp429
a(S'w'
I10
tp430
a(S'tr_lr'
I120
tp431
a(S'w'
I714
tp432
a(S'w'
I10
tp433
a(S'w'
I10
tp434
a(S'tr_lr'
I119
tp435
a(S'w'
I714
tp436
a(S'p1_vo'
I9
tp437
a(S'w'
I9
tp438
a(S'p2_vo'
I9
tp439
a(S'w'
I1
tp440
a(S'w'
I10
tp441
a(S'tr_lr'
I118
tp442
a(S'w'
I713
tp443
a(S'w'
I10
tp444
a(S'w'
I9
tp445
a(S'tr_lr'
I117
tp446
a(S'w'
I715
tp447
a(S'p1_vo'
I8
tp448
a(S'w'
I1
tp449
a(S'w'
I9
tp450
a(S'p2_vo'
I8
tp451
a(S'w'
I10
tp452
a(S'tr_lr'
I116
tp453
a(S'w'
I714
tp454
a(S'p1_vo'
I7
tp455
a(S'w'
I10
tp456
a(S'p2_vo'
I7
tp457
a(S'w'
I10
tp458
a(S'tr_lr'
I115
tp459
a(S'w'
I714
tp460
a(S'w'
I10
tp461
a(S'w'
I10
tp462
a(S'tr_lr'
I114
tp463
a(S'w'
I713
tp464
a(S'p1_vo'
I6
tp465
a(S'w'
I10
tp466
a(S'p2_vo'
I6
tp467
a(S'w'
I9
tp468
a(S'tr_lr'
I113
tp469
a(S'w'
I716
tp470
a(S'w'
I10
tp471
a(S'w'
I8
tp472
a(S'tr_lr'
I48
tp473
a(S'w'
I715
tp474
a(S'p1_vo'
I5
tp475
a(S'w'
I10
tp476
a(S'p2_vo'
I5
tp477
a(S'w'
I724
tp478
a(S'w'
I10
tp479
a(S'w'
I724
tp480
a(S'w'
I9
tp481
a(S'w'
I725
tp482
a(S'w'
I10
tp483
a(S'w'
I724
tp484
a(S'w'
I10
tp485
a(S'w'
I724
tp486
a(S'w'
I9
tp487
a(S'w'
I724
tp488
a(S'w'
I10
tp489
a(S'w'
I724
tp490
a(S'w'
I9
tp491
a(S'w'
I725
tp492
a(S'p1_vo'
I6
tp493
a(S'w'
I10
tp494
a(S'p2_vo'
I6
tp495
a(S'w'
I724
tp496
a(S'w'
I10
tp497
a(S'w'
I723
tp498
a(S'w'
I10
tp499
a(S'w'
I724
tp500
a(S'w'
I9
tp501
a(S'w'
I725
tp502
a(S'w'
I10
tp503
a(S'w'
I724
tp504
a(S'w'
I10
tp505
a(S'w'
I724
tp506
a(S'w'
I10
tp507
a(S'w'
I723
tp508
a(S'p1_vo'
I7
tp509
a(S'w'
I9
tp510
a(S'p2_vo'
I7
tp511
a(S'w'
I725
tp512
a(S'w'
I10
tp513
a(S'w'
I724
tp514
a(S'w'
I10
tp515
a(S'w'
I724
tp516
a(S'w'
I10
tp517
a(S'w'
I724
tp518
a(S'p1_vo'
I8
tp519
a(S'w'
I9
tp520
a(S'p2_vo'
I8
tp521
a(S'w'
I1
tp522
a(S'w'
I723
tp523
a(S'w'
I9
tp524
a(S'w'
I725
tp525
a(S'w'
I10
tp526
a(S'w'
I724
tp527
a(S'p1_vo'
I9
tp528
a(S'w'
I10
tp529
a(S'p2_vo'
I9
tp530
a(S'w'
I724
tp531
a(S'w'
I10
tp532
a(S'w'
I723
tp533
a(S'w'
I10
tp534
a(S'w'
I724
tp535
a(S'p1_vo'
I10
tp536
a(S'w'
I1
tp537
a(S'w'
I9
tp538
a(S'p2_vo'
I10
tp539
a(S'w'
I724
tp540
a(S'w'
I10
tp541
a(S'w'
I724
tp542
a(S'w'
I10
tp543
a(S'w'
I723
tp544
a(S'p1_vo'
I9
tp545
a(S'w'
I1
tp546
a(S'w'
I9
tp547
a(S'p2_vo'
I9
tp548
a(S'w'
I725
tp549
a(S'w'
I10
tp550
a(S'w'
I723
tp551
a(S'p1_vo'
I10
tp552
a(S'w'
I1
tp553
a(S'w'
I9
tp554
a(S'p2_vo'
I10
tp555
a(S'w'
I724
tp556
a(S'w'
I10
tp557
a(S'w'
I724
tp558
a(S'p1_vo'
I9
tp559
a(S'w'
I10
tp560
a(S'p2_vo'
I9
tp561
a(S'w'
I723
tp562
a(S'w'
I10
tp563
a(S'w'
I725
tp564
a(S'p1_vo'
I10
tp565
a(S'w'
I1
tp566
a(S'w'
I10
tp567
a(S'p2_vo'
I10
tp568
a(S'w'
I723
tp569
a(S'w'
I9
tp570
a(S'w'
I724
tp571
a(S'w'
I10
tp572
a(S'w'
I723
tp573
a(S'p1_vo'
I9
tp574
a(S'w'
I1
tp575
a(S'w'
I9
tp576
a(S'p2_vo'
I9
tp577
a(S'w'
I725
tp578
a(S'w'
I10
tp579
a(S'w'
I724
tp580
a(S'p1_vo'
I10
tp581
a(S'w'
I9
tp582
a(S'p2_vo'
I10
tp583
a(S'w'
I1
tp584
a(S'w'
I724
tp585
a(S'w'
I9
tp586
a(S'w'
I724
tp587
a(S'p1_vo'
I9
tp588
a(S'w'
I9
tp589
a(S'p2_vo'
I9
tp590
a(S'w'
I725
tp591
a(S'w'
I10
tp592
a(S'w'
I725
tp593
a(S'p1_vo'
I10
tp594
a(S'w'
I10
tp595
a(S'p2_vo'
I10
tp596
a(S'w'
I723
tp597
a(S'w'
I10
tp598
a(S'w'
I724
tp599
a(S'w'
I9
tp600
a(S'w'
I724
tp601
a(S'p1_vo'
I9
tp602
a(S'w'
I9
tp603
a(S'p2_vo'
I9
tp604
a(S'w'
I725
tp605
a(S'w'
I10
tp606
a(S'w'
I724
tp607
a(S'p1_vo'
I10
tp608
a(S'w'
I10
tp609
a(S'p2_vo'
I10
tp610
a(S'w'
I720
tp611
a(S'p1_du'
I0
tp612
a(S'p1_vo'
I0
tp613
a(S'w'
I6
tp614
a(S'p2_du'
I0
tp615
a(S'p2_vo'
I0
tp616
a(S'w'
I7
tp617
a(S'tr_lh'
I0
tp618
a(S'tr_lr'
I0
tp619
a(S'w'
I98
tp620
a.