(lp1
(S'clock'
p2
I1789772
tp3
a(S'p1_du'
I2
tp4
a(S'p1_cv'
I1
tp5
a(S'p2_du'
I2
tp6
a(S'p2_cv'
I1
tp7
a(S'no_cv'
I1
tp8
a(S'ch_no'
I1
tp9
a(S'ch_tr'
I1
tp10
a(S'ch_p2'
I1
tp11
a(S'ch_p1'
I1
tp12
a(S'fc_mo'
I0
tp13
a(S'p1_du'
I0
tp14
a(S'p1_lh'
I1
tp15
a(S'p1_vo'
I10
tp16
a(S'w'
I1
tp17
a(S'p1_tl'
I124
tp18
a(S'p1_sp'
I7
tp19
a(S'p1_sn'
I1
tp20
a(S'p1_ss'
I7
tp21
a(S'p1_ll'
I0
tp22
a(S'p1_th'
I1
tp23
a(S'w'
I20
tp24
a(S'p2_du'
I0
tp25
a(S'p2_lh'
I1
tp26
a(S'p2_vo'
I10
tp27
a(S'w'
I1
tp28
a(S'p2_tl'
I252
tp29
a(S'p2_sp'
I7
tp30
a(S'p2_sn'
I1
tp31
a(S'p2_ss'
I7
tp32
a(S'p2_ll'
I0
tp33
a(S'p2_th'
I1
tp34
a(S'w'
I16
tp35
a(S'tr_lh'
I1
tp36
a(S'tr_tl'
I248
tp37
a(S'w'
I1
tp38
a(S'tr_ll'
I0
tp39
a(S'tr_th'
I3
tp40
a(S'w'
I4
tp41
a(S'no_lh'
I1
tp42
a(S'w'
I680
tp43
a(S'p1_du'
I1
tp44
a(S'w'
I9
tp45
a(S'p2_du'
I1
tp46
a(S'w'
I725
tp47
a(S'w'
I10
tp48
a(S'w'
I14
tp49
a(S'tr_lr'
I54
tp50
a(S'tr_tl'
I124
tp51
a(S'w'
I1
tp52
a(S'tr_ll'
I0
tp53
a(S'tr_th'
I1
tp54
a(S'w'
I709
tp55
a(S'w'
I10
tp56
a(S'w'
I10
tp57
a(S'tr_lr'
I57
tp58
a(S'w'
I714
tp59
a(S'p1_vo'
I9
tp60
a(S'w'
I9
tp61
a(S'p2_vo'
I9
tp62
a(S'w'
I1
tp63
a(S'w'
I10
tp64
a(S'tr_lr'
I121
tp65
a(S'w'
I717
tp66
a(S'p1_du'
I0
tp67
a(S'p1_vo'
I10
tp68
a(S'p1_tl'
I82
tp69
a(S'p1_ll'
I0
tp70
a(S'w'
I13
tp71
a(S'p2_du'
I0
tp72
a(S'p2_vo'
I10
tp73
a(S'p2_tl'
I196
tp74
a(S'w'
I1
tp75
a(S'p2_ll'
I0
tp76
a(S'w'
I9
tp77
a(S'tr_lr'
I120
tp78
a(S'w'
I707
tp79
a(S'p1_du'
I1
tp80
a(S'w'
I9
tp81
a(S'p2_du'
I1
tp82
a(S'w'
I10
tp83
a(S'tr_lr'
I119
tp84
a(S'w'
I715
tp85
a(S'w'
I10
tp86
a(S'w'
I10
tp87
a(S'tr_lr'
I0
tp88
a(S'w'
I714
tp89
a(S'w'
I10
tp90
a(S'w'
I724
tp91
a(S'p1_vo'
I9
tp92
a(S'w'
I9
tp93
a(S'p2_vo'
I9
tp94
a(S'w'
I1
tp95
a(S'w'
I727
tp96
a(S'p1_du'
I0
tp97
a(S'p1_vo'
I10
tp98
a(S'p1_tl'
I28
tp99
a(S'p1_ll'
I0
tp100
a(S'w'
I13
tp101
a(S'p2_du'
I0
tp102
a(S'p2_vo'
I10
tp103
a(S'p2_tl'
I124
tp104
a(S'w'
I1
tp105
a(S'p2_ll'
I0
tp106
a(S'w'
I716
tp107
a(S'p1_du'
I1
tp108
a(S'w'
I9
tp109
a(S'p2_du'
I1
tp110
a(S'w'
I725
tp111
a(S'w'
I10
tp112
a(S'w'
I724
tp113
a(S'w'
I10
tp114
a(S'w'
I724
tp115
a(S'p1_vo'
I9
tp116
a(S'w'
I9
tp117
a(S'p2_vo'
I9
tp118
a(S'w'
I1
tp119
a(S'w'
I727
tp120
a(S'p1_du'
I0
tp121
a(S'p1_vo'
I10
tp122
a(S'p1_tl'
I253
tp123
a(S'w'
I1
tp124
a(S'p1_ll'
I0
tp125
a(S'p1_th'
I0
tp126
a(S'w'
I12
tp127
a(S'p2_du'
I0
tp128
a(S'p2_vo'
I10
tp129
a(S'p2_tl'
I82
tp130
a(S'w'
I1
tp131
a(S'p2_ll'
I0
tp132
a(S'w'
I716
tp133
a(S'p1_du'
I1
tp134
a(S'w'
I9
tp135
a(S'p2_du'
I1
tp136
a(S'w'
I725
tp137
a(S'w'
I10
tp138
a(S'w'
I13
tp139
a(S'tr_lr'
I54
tp140
a(S'tr_tl'
I252
tp141
a(S'w'
I1
tp142
a(S'tr_ll'
I0
tp143
a(S'w'
I710
tp144
a(S'w'
I10
tp145
a(S'w'
I10
tp146
a(S'tr_lr'
I57
tp147
a(S'w'
I714
tp148
a(S'p1_vo'
I9
tp149
a(S'w'
I9
tp150
a(S'p2_vo'
I9
tp151
a(S'w'
I1
tp152
a(S'w'
I10
tp153
a(S'tr_lr'
I121
tp154
a(S'w'
I717
tp155
a(S'p1_du'
I0
tp156
a(S'p1_vo'
I10
tp157
a(S'p1_tl'
I212
tp158
a(S'p1_ll'
I0
tp159
a(S'w'
I13
tp160
a(S'p2_du'
I0
tp161
a(S'p2_vo'
I10
tp162
a(S'p2_tl'
I28
tp163
a(S'w'
I1
tp164
a(S'p2_ll'
I0
tp165
a(S'w'
I9
tp166
a(S'tr_lr'
I120
tp167
a(S'w'
I707
tp168
a(S'p1_du'
I1
tp169
a(S'w'
I9
tp170
a(S'p2_du'
I1
tp171
a(S'w'
I10
tp172
a(S'tr_lr'
I119
tp173
a(S'w'
I715
tp174
a(S'w'
I10
tp175
a(S'w'
I10
tp176
a(S'tr_lr'
I0
tp177
a(S'w'
I714
tp178
a(S'w'
I10
tp179
a(S'w'
I724
tp180
a(S'p1_vo'
I9
tp181
a(S'w'
I9
tp182
a(S'p2_vo'
I9
tp183
a(S'w'
I1
tp184
a(S'w'
I727
tp185
a(S'p1_du'
I0
tp186
a(S'p1_vo'
I10
tp187
a(S'p1_tl'
I189
tp188
a(S'p1_ll'
I0
tp189
a(S'w'
I13
tp190
a(S'p2_du'
I0
tp191
a(S'p2_vo'
I10
tp192
a(S'p2_tl'
I253
tp193
a(S'w'
I1
tp194
a(S'p2_ll'
I0
tp195
a(S'p2_th'
I0
tp196
a(S'w'
I716
tp197
a(S'p1_du'
I1
tp198
a(S'w'
I9
tp199
a(S'p2_du'
I1
tp200
a(S'w'
I725
tp201
a(S'w'
I10
tp202
a(S'w'
I724
tp203
a(S'w'
I10
tp204
a(S'w'
I724
tp205
a(S'p1_vo'
I9
tp206
a(S'w'
I9
tp207
a(S'p2_vo'
I9
tp208
a(S'w'
I1
tp209
a(S'w'
I727
tp210
a(S'p1_du'
I0
tp211
a(S'p1_vo'
I10
tp212
a(S'p1_tl'
I253
tp213
a(S'w'
I1
tp214
a(S'p1_ll'
I0
tp215
a(S'w'
I12
tp216
a(S'p2_du'
I0
tp217
a(S'p2_vo'
I10
tp218
a(S'p2_tl'
I82
tp219
a(S'w'
I1
tp220
a(S'p2_ll'
I0
tp221
a(S'p2_th'
I1
tp222
a(S'w'
I716
tp223
a(S'p1_du'
I1
tp224
a(S'w'
I9
tp225
a(S'p2_du'
I1
tp226
a(S'w'
I725
tp227
a(S'w'
I10
tp228
a(S'w'
I13
tp229
a(S'tr_lr'
I54
tp230
a(S'tr_tl'
I124
tp231
a(S'w'
I1
tp232
a(S'tr_ll'
I0
tp233
a(S'w'
I710
tp234
a(S'w'
I10
tp235
a(S'w'
I10
tp236
a(S'tr_lr'
I57
tp237
a(S'w'
I714
tp238
a(S'p1_vo'
I9
tp239
a(S'w'
I9
tp240
a(S'p2_vo'
I9
tp241
a(S'w'
I1
tp242
a(S'w'
I10
tp243
a(S'tr_lr'
I121
tp244
a(S'w'
I717
tp245
a(S'p1_du'
I0
tp246
a(S'p1_vo'
I10
tp247
a(S'p1_tl'
I212
tp248
a(S'w'
I1
tp249
a(S'p1_ll'
I0
tp250
a(S'w'
I12
tp251
a(S'p2_du'
I0
tp252
a(S'p2_vo'
I10
tp253
a(S'p2_tl'
I28
tp254
a(S'w'
I1
tp255
a(S'p2_ll'
I0
tp256
a(S'w'
I10
tp257
a(S'tr_lr'
I120
tp258
a(S'w'
I706
tp259
a(S'p1_du'
I1
tp260
a(S'w'
I9
tp261
a(S'p2_du'
I1
tp262
a(S'w'
I10
tp263
a(S'tr_lr'
I119
tp264
a(S'w'
I715
tp265
a(S'w'
I10
tp266
a(S'w'
I10
tp267
a(S'tr_lr'
I0
tp268
a(S'w'
I714
tp269
a(S'w'
I10
tp270
a(S'w'
I724
tp271
a(S'p1_vo'
I9
tp272
a(S'w'
I9
tp273
a(S'p2_vo'
I9
tp274
a(S'w'
I1
tp275
a(S'w'
I727
tp276
a(S'p1_du'
I0
tp277
a(S'p1_vo'
I10
tp278
a(S'p1_tl'
I189
tp279
a(S'w'
I1
tp280
a(S'p1_ll'
I0
tp281
a(S'w'
I12
tp282
a(S'p2_du'
I0
tp283
a(S'p2_vo'
I10
tp284
a(S'p2_tl'
I253
tp285
a(S'w'
I1
tp286
a(S'p2_ll'
I0
tp287
a(S'p2_th'
I0
tp288
a(S'w'
I716
tp289
a(S'p1_du'
I1
tp290
a(S'w'
I9
tp291
a(S'p2_du'
I1
tp292
a(S'w'
I725
tp293
a(S'w'
I10
tp294
a(S'w'
I724
tp295
a(S'w'
I10
tp296
a(S'w'
I724
tp297
a(S'p1_vo'
I9
tp298
a(S'w'
I9
tp299
a(S'p2_vo'
I9
tp300
a(S'w'
I1
tp301
a(S'w'
I727
tp302
a(S'p1_du'
I0
tp303
a(S'p1_vo'
I10
tp304
a(S'p1_tl'
I168
tp305
a(S'w'
I1
tp306
a(S'p1_ll'
I0
tp307
a(S'w'
I12
tp308
a(S'p2_du'
I0
tp309
a(S'p2_vo'
I10
tp310
a(S'p2_tl'
I225
tp311
a(S'w'
I1
tp312
a(S'p2_ll'
I0
tp313
a(S'w'
I716
tp314
a(S'p1_du'
I1
tp315
a(S'w'
I9
tp316
a(S'p2_du'
I1
tp317
a(S'w'
I725
tp318
a(S'w'
I10
tp319
a(S'w'
I13
tp320
a(S'tr_lr'
I54
tp321
a(S'tr_tl'
I253
tp322
a(S'w'
I1
tp323
a(S'tr_ll'
I0
tp324
a(S'tr_th'
I0
tp325
a(S'w'
I710
tp326
a(S'w'
I10
tp327
a(S'w'
I10
tp328
a(S'tr_lr'
I57
tp329
a(S'w'
I714
tp330
a(S'p1_vo'
I9
tp331
a(S'w'
I9
tp332
a(S'p2_vo'
I9
tp333
a(S'w'
I1
tp334
a(S'w'
I10
tp335
a(S'tr_lr'
I121
tp336
a(S'w'
I717
tp337
a(S'p1_du'
I0
tp338
a(S'p1_vo'
I10
tp339
a(S'p1_tl'
I141
tp340
a(S'w'
I1
tp341
a(S'p1_ll'
I0
tp342
a(S'w'
I12
tp343
a(S'p2_du'
I0
tp344
a(S'p2_vo'
I10
tp345
a(S'p2_tl'
I189
tp346
a(S'w'
I1
tp347
a(S'p2_ll'
I0
tp348
a(S'w'
I10
tp349
a(S'tr_lr'
I120
tp350
a(S'w'
I706
tp351
a(S'p1_du'
I1
tp352
a(S'w'
I9
tp353
a(S'p2_du'
I1
tp354
a(S'w'
I10
tp355
a(S'tr_lr'
I119
tp356
a(S'w'
I715
tp357
a(S'w'
I10
tp358
a(S'w'
I10
tp359
a(S'tr_lr'
I0
tp360
a(S'w'
I714
tp361
a(S'w'
I10
tp362
a(S'w'
I724
tp363
a(S'p1_vo'
I9
tp364
a(S'w'
I9
tp365
a(S'p2_vo'
I9
tp366
a(S'w'
I1
tp367
a(S'w'
I727
tp368
a(S'p1_du'
I0
tp369
a(S'p1_vo'
I10
tp370
a(S'p1_tl'
I126
tp371
a(S'w'
I1
tp372
a(S'p1_ll'
I0
tp373
a(S'w'
I12
tp374
a(S'p2_du'
I0
tp375
a(S'p2_vo'
I10
tp376
a(S'p2_tl'
I168
tp377
a(S'w'
I1
tp378
a(S'p2_ll'
I0
tp379
a(S'w'
I716
tp380
a(S'p1_du'
I1
tp381
a(S'w'
I9
tp382
a(S'p2_du'
I1
tp383
a(S'w'
I725
tp384
a(S'w'
I10
tp385
a(S'w'
I724
tp386
a(S'w'
I10
tp387
a(S'w'
I724
tp388
a(S'p1_vo'
I9
tp389
a(S'w'
I9
tp390
a(S'p2_vo'
I9
tp391
a(S'w'
I1
tp392
a(S'w'
I727
tp393
a(S'p1_du'
I0
tp394
a(S'p1_vo'
I10
tp395
a(S'p1_tl'
I189
tp396
a(S'w'
I1
tp397
a(S'p1_ll'
I0
tp398
a(S'w'
I12
tp399
a(S'p2_du'
I0
tp400
a(S'p2_vo'
I10
tp401
a(S'p2_tl'
I253
tp402
a(S'w'
I1
tp403
a(S'p2_ll'
I0
tp404
a(S'w'
I716
tp405
a(S'p1_du'
I1
tp406
a(S'w'
I9
tp407
a(S'p2_du'
I1
tp408
a(S'w'
I725
tp409
a(S'w'
I10
tp410
a(S'w'
I13
tp411
a(S'tr_lr'
I54
tp412
a(S'tr_tl'
I189
tp413
a(S'w'
I1
tp414
a(S'tr_ll'
I0
tp415
a(S'w'
I710
tp416
a(S'w'
I10
tp417
a(S'w'
I10
tp418
a(S'tr_lr'
I57
tp419
a(S'w'
I714
tp420
a(S'p1_vo'
I9
tp421
a(S'w'
I9
tp422
a(S'p2_vo'
I9
tp423
a(S'w'
I1
tp424
a(S'w'
I10
tp425
a(S'tr_lr'
I121
tp426
a(S'w'
I717
tp427
a(S'p1_du'
I0
tp428
a(S'p1_vo'
I10
tp429
a(S'p1_tl'
I168
tp430
a(S'w'
I1
tp431
a(S'p1_ll'
I0
tp432
a(S'w'
I12
tp433
a(S'p2_du'
I0
tp434
a(S'p2_vo'
I10
tp435
a(S'p2_tl'
I225
tp436
a(S'w'
I1
tp437
a(S'p2_ll'
I0
tp438
a(S'w'
I10
tp439
a(S'tr_lr'
I120
tp440
a(S'w'
I706
tp441
a(S'p1_du'
I1
tp442
a(S'w'
I9
tp443
a(S'p2_du'
I1
tp444
a(S'w'
I10
tp445
a(S'tr_lr'
I119
tp446
a(S'w'
I715
tp447
a(S'w'
I10
tp448
a(S'w'
I10
tp449
a(S'tr_lr'
I0
tp450
a(S'w'
I714
tp451
a(S'w'
I10
tp452
a(S'w'
I724
tp453
a(S'p1_vo'
I9
tp454
a(S'w'
I9
tp455
a(S'p2_vo'
I9
tp456
a(S'w'
I1
tp457
a(S'w'
I727
tp458
a(S'p1_du'
I0
tp459
a(S'p1_vo'
I10
tp460
a(S'p1_tl'
I141
tp461
a(S'w'
I1
tp462
a(S'p1_ll'
I0
tp463
a(S'w'
I12
tp464
a(S'p2_du'
I0
tp465
a(S'p2_vo'
I10
tp466
a(S'p2_tl'
I189
tp467
a(S'w'
I1
tp468
a(S'p2_ll'
I0
tp469
a(S'w'
I716
tp470
a(S'p1_du'
I1
tp471
a(S'w'
I9
tp472
a(S'p2_du'
I1
tp473
a(S'w'
I725
tp474
a(S'w'
I10
tp475
a(S'w'
I724
tp476
a(S'w'
I10
tp477
a(S'w'
I724
tp478
a(S'p1_vo'
I9
tp479
a(S'w'
I9
tp480
a(S'p2_vo'
I9
tp481
a(S'w'
I1
tp482
a(S'w'
I727
tp483
a(S'p1_du'
I0
tp484
a(S'p1_vo'
I10
tp485
a(S'p1_tl'
I126
tp486
a(S'w'
I1
tp487
a(S'p1_ll'
I0
tp488
a(S'w'
I12
tp489
a(S'p2_du'
I0
tp490
a(S'p2_vo'
I10
tp491
a(S'p2_tl'
I168
tp492
a(S'w'
I1
tp493
a(S'p2_ll'
I0
tp494
a(S'w'
I716
tp495
a(S'p1_du'
I1
tp496
a(S'w'
I9
tp497
a(S'p2_du'
I1
tp498
a(S'w'
I725
tp499
a(S'w'
I10
tp500
a(S'w'
I13
tp501
a(S'tr_lr'
I54
tp502
a(S'tr_tl'
I253
tp503
a(S'w'
I1
tp504
a(S'tr_ll'
I0
tp505
a(S'w'
I710
tp506
a(S'w'
I10
tp507
a(S'w'
I10
tp508
a(S'tr_lr'
I57
tp509
a(S'w'
I714
tp510
a(S'p1_vo'
I9
tp511
a(S'w'
I9
tp512
a(S'p2_vo'
I9
tp513
a(S'w'
I1
tp514
a(S'w'
I10
tp515
a(S'tr_lr'
I121
tp516
a(S'w'
I717
tp517
a(S'p1_du'
I0
tp518
a(S'p1_vo'
I10
tp519
a(S'p1_tl'
I105
tp520
a(S'w'
I1
tp521
a(S'p1_ll'
I0
tp522
a(S'w'
I12
tp523
a(S'p2_du'
I0
tp524
a(S'p2_vo'
I10
tp525
a(S'p2_tl'
I141
tp526
a(S'w'
I1
tp527
a(S'p2_ll'
I0
tp528
a(S'w'
I10
tp529
a(S'tr_lr'
I120
tp530
a(S'w'
I706
tp531
a(S'p1_du'
I1
tp532
a(S'w'
I9
tp533
a(S'p2_du'
I1
tp534
a(S'w'
I10
tp535
a(S'tr_lr'
I119
tp536
a(S'w'
I715
tp537
a(S'w'
I10
tp538
a(S'w'
I10
tp539
a(S'tr_lr'
I0
tp540
a(S'w'
I714
tp541
a(S'w'
I10
tp542
a(S'w'
I724
tp543
a(S'p1_vo'
I9
tp544
a(S'w'
I9
tp545
a(S'p2_vo'
I9
tp546
a(S'w'
I1
tp547
a(S'w'
I727
tp548
a(S'p1_du'
I0
tp549
a(S'p1_vo'
I10
tp550
a(S'p1_tl'
I83
tp551
a(S'w'
I1
tp552
a(S'p1_ll'
I0
tp553
a(S'w'
I12
tp554
a(S'p2_du'
I0
tp555
a(S'p2_vo'
I10
tp556
a(S'w'
I1
tp557
a(S'p2_tl'
I112
tp558
a(S'p2_ll'
I0
tp559
a(S'w'
I716
tp560
a(S'p1_du'
I1
tp561
a(S'w'
I9
tp562
a(S'p2_du'
I1
tp563
a(S'w'
I725
tp564
a(S'w'
I10
tp565
a(S'w'
I724
tp566
a(S'w'
I10
tp567
a(S'w'
I724
tp568
a(S'p1_vo'
I9
tp569
a(S'w'
I10
tp570
a(S'p2_vo'
I9
tp571
a(S'w'
I729
tp572
a(S'p1_du'
I0
tp573
a(S'p1_vo'
I10
tp574
a(S'w'
I1
tp575
a(S'p1_tl'
I94
tp576
a(S'p1_ll'
I0
tp577
a(S'w'
I18
tp578
a(S'p2_du'
I0
tp579
a(S'p2_vo'
I10
tp580
a(S'p2_tl'
I150
tp581
a(S'w'
I1
tp582
a(S'p2_ll'
I0
tp583
a(S'w'
I708
tp584
a(S'p1_du'
I1
tp585
a(S'w'
I9
tp586
a(S'p2_du'
I1
tp587
a(S'w'
I725
tp588
a(S'w'
I10
tp589
a(S'w'
I14
tp590
a(S'tr_lr'
I54
tp591
a(S'tr_tl'
I189
tp592
a(S'w'
I1
tp593
a(S'tr_ll'
I0
tp594
a(S'w'
I709
tp595
a(S'w'
I10
tp596
a(S'w'
I10
tp597
a(S'tr_lr'
I57
tp598
a(S'w'
I714
tp599
a(S'p1_vo'
I9
tp600
a(S'w'
I10
tp601
a(S'p2_vo'
I9
tp602
a(S'w'
I10
tp603
a(S'tr_lr'
I121
tp604
a(S'w'
I714
tp605
a(S'p1_vo'
I3
tp606
a(S'w'
I11
tp607
a(S'p2_vo'
I3
tp608
a(S'w'
I10
tp609
a(S'tr_lr'
I120
tp610
a(S'w'
I713
tp611
a(S'w'
I10
tp612
a(S'w'
I9
tp613
a(S'tr_lr'
I119
tp614
a(S'w'
I715
tp615
a(S'w'
I10
tp616
a(S'w'
I10
tp617
a(S'tr_lr'
I0
tp618
a(S'w'
I714
tp619
a(S'w'
I10
tp620
a(S'w'
I723
tp621
a(S'w'
I11
tp622
a(S'w'
I726
tp623
a(S'p1_du'
I0
tp624
a(S'p1_vo'
I10
tp625
a(S'p1_tl'
I126
tp626
a(S'w'
I1
tp627
a(S'p1_ll'
I0
tp628
a(S'w'
I13
tp629
a(S'p2_du'
I0
tp630
a(S'p2_vo'
I10
tp631
a(S'p2_tl'
I168
tp632
a(S'w'
I1
tp633
a(S'p2_ll'
I0
tp634
a(S'w'
I715
tp635
a(S'p1_du'
I1
tp636
a(S'w'
I9
tp637
a(S'p2_du'
I1
tp638
a(S'w'
I725
tp639
a(S'w'
I10
tp640
a(S'w'
I14
tp641
a(S'tr_lr'
I54
tp642
a(S'tr_tl'
I126
tp643
a(S'w'
I1
tp644
a(S'tr_ll'
I0
tp645
a(S'w'
I709
tp646
a(S'w'
I10
tp647
a(S'w'
I10
tp648
a(S'tr_lr'
I57
tp649
a(S'w'
I714
tp650
a(S'p1_vo'
I9
tp651
a(S'w'
I10
tp652
a(S'p2_vo'
I9
tp653
a(S'w'
I10
tp654
a(S'tr_lr'
I121
tp655
a(S'w'
I718
tp656
a(S'p1_du'
I0
tp657
a(S'p1_vo'
I10
tp658
a(S'p1_tl'
I94
tp659
a(S'w'
I1
tp660
a(S'p1_ll'
I0
tp661
a(S'w'
I13
tp662
a(S'p2_du'
I0
tp663
a(S'p2_vo'
I10
tp664
a(S'p2_tl'
I150
tp665
a(S'w'
I1
tp666
a(S'p2_ll'
I0
tp667
a(S'w'
I9
tp668
a(S'tr_lr'
I120
tp669
a(S'w'
I705
tp670
a(S'p1_du'
I1
tp671
a(S'w'
I9
tp672
a(S'p2_du'
I1
tp673
a(S'w'
I10
tp674
a(S'tr_lr'
I119
tp675
a(S'w'
I715
tp676
a(S'w'
I10
tp677
a(S'w'
I14
tp678
a(S'tr_lr'
I54
tp679
a(S'w'
I1
tp680
a(S'tr_tl'
I94
tp681
a(S'tr_ll'
I0
tp682
a(S'w'
I709
tp683
a(S'w'
I10
tp684
a(S'w'
I10
tp685
a(S'tr_lr'
I57
tp686
a(S'w'
I714
tp687
a(S'p1_vo'
I9
tp688
a(S'w'
I10
tp689
a(S'p2_vo'
I9
tp690
a(S'w'
I10
tp691
a(S'tr_lr'
I121
tp692
a(S'w'
I714
tp693
a(S'w'
I10
tp694
a(S'w'
I10
tp695
a(S'tr_lr'
I120
tp696
a(S'w'
I713
tp697
a(S'p1_vo'
I8
tp698
a(S'w'
I9
tp699
a(S'p2_vo'
I8
tp700
a(S'w'
I10
tp701
a(S'tr_lr'
I119
tp702
a(S'w'
I715
tp703
a(S'w'
I10
tp704
a(S'w'
I10
tp705
a(S'tr_lr'
I118
tp706
a(S'w'
I714
tp707
a(S'p1_vo'
I7
tp708
a(S'w'
I10
tp709
a(S'p2_vo'
I7
tp710
a(S'w'
I10
tp711
a(S'tr_lr'
I117
tp712
a(S'w'
I714
tp713
a(S'w'
I10
tp714
a(S'w'
I10
tp715
a(S'tr_lr'
I116
tp716
a(S'w'
I714
tp717
a(S'p1_vo'
I6
tp718
a(S'w'
I9
tp719
a(S'p2_vo'
I6
tp720
a(S'w'
I1
tp721
a(S'w'
I10
tp722
a(S'tr_lr'
I115
tp723
a(S'w'
I713
tp724
a(S'w'
I9
tp725
a(S'w'
I10
tp726
a(S'tr_lr'
I114
tp727
a(S'w'
I715
tp728
a(S'p1_vo'
I5
tp729
a(S'w'
I10
tp730
a(S'p2_vo'
I5
tp731
a(S'w'
I10
tp732
a(S'tr_lr'
I113
tp733
a(S'w'
I714
tp734
a(S'w'
I10
tp735
a(S'w'
I8
tp736
a(S'tr_lr'
I48
tp737
a(S'w'
I716
tp738
a(S'w'
I10
tp739
a(S'w'
I724
tp740
a(S'w'
I10
tp741
a(S'w'
I723
tp742
a(S'w'
I9
tp743
a(S'w'
I725
tp744
a(S'w'
I10
tp745
a(S'w'
I724
tp746
a(S'w'
I10
tp747
a(S'w'
I724
tp748
a(S'w'
I10
tp749
a(S'w'
I724
tp750
a(S'w'
I10
tp751
a(S'w'
I723
tp752
a(S'w'
I9
tp753
a(S'w'
I725
tp754
a(S'w'
I10
tp755
a(S'w'
I724
tp756
a(S'w'
I10
tp757
a(S'w'
I724
tp758
a(S'p1_vo'
I6
tp759
a(S'w'
I10
tp760
a(S'p2_vo'
I6
tp761
a(S'w'
I724
tp762
a(S'w'
I10
tp763
a(S'w'
I723
tp764
a(S'w'
I9
tp765
a(S'w'
I725
tp766
a(S'w'
I10
tp767
a(S'w'
I724
tp768
a(S'w'
I10
tp769
a(S'w'
I724
tp770
a(S'p1_vo'
I7
tp771
a(S'w'
I10
tp772
a(S'p2_vo'
I7
tp773
a(S'w'
I724
tp774
a(S'w'
I10
tp775
a(S'w'
I723
tp776
a(S'w'
I9
tp777
a(S'w'
I725
tp778
a(S'w'
I10
tp779
a(S'w'
I724
tp780
a(S'p1_vo'
I8
tp781
a(S'w'
I10
tp782
a(S'p2_vo'
I8
tp783
a(S'w'
I724
tp784
a(S'w'
I10
tp785
a(S'w'
I724
tp786
a(S'w'
I10
tp787
a(S'w'
I723
tp788
a(S'w'
I9
tp789
a(S'w'
I725
tp790
a(S'p1_vo'
I9
tp791
a(S'w'
I10
tp792
a(S'p2_vo'
I9
tp793
a(S'w'
I724
tp794
a(S'w'
I10
tp795
a(S'w'
I724
tp796
a(S'w'
I10
tp797
a(S'w'
I724
tp798
a(S'w'
I10
tp799
a(S'w'
I723
tp800
a(S'w'
I9
tp801
a(S'w'
I725
tp802
a(S'w'
I10
tp803
a(S'w'
I724
tp804
a(S'w'
I10
tp805
a(S'w'
I724
tp806
a(S'w'
I10
tp807
a(S'w'
I720
tp808
a(S'p1_du'
I0
tp809
a(S'p1_vo'
I0
tp810
a(S'w'
I6
tp811
a(S'p2_du'
I0
tp812
a(S'p2_vo'
I0
tp813
a(S'w'
I1464
tp814
a(S'tr_lh'
I0
tp815
a(S'tr_lr'
I0
tp816
a(S'w'
I105
tp817
a.