(lp1
(S'clock'
p2
I1789772
tp3
a(S'p1_du'
I2
tp4
a(S'p1_cv'
I1
tp5
a(S'p2_du'
I2
tp6
a(S'p2_cv'
I1
tp7
a(S'no_cv'
I1
tp8
a(S'ch_no'
I1
tp9
a(S'ch_tr'
I1
tp10
a(S'ch_p2'
I1
tp11
a(S'ch_p1'
I1
tp12
a(S'fc_mo'
I0
tp13
a(S'p1_lh'
I1
tp14
a(S'p1_vo'
I7
tp15
a(S'p1_tl'
I253
tp16
a(S'w'
I1
tp17
a(S'p1_sp'
I7
tp18
a(S'p1_sn'
I1
tp19
a(S'p1_ss'
I7
tp20
a(S'p1_ll'
I0
tp21
a(S'w'
I16
tp22
a(S'p2_lh'
I1
tp23
a(S'w'
I1
tp24
a(S'p2_tl'
I240
tp25
a(S'p2_sp'
I7
tp26
a(S'p2_sn'
I1
tp27
a(S'p2_ss'
I7
tp28
a(S'p2_ll'
I0
tp29
a(S'p2_th'
I7
tp30
a(S'w'
I11
tp31
a(S'no_lh'
I1
tp32
a(S'w'
I697
tp33
a(S'p1_vo'
I8
tp34
a(S'w'
I10
tp35
a(S'w'
I724
tp36
a(S'p1_vo'
I9
tp37
a(S'w'
I10
tp38
a(S'w'
I724
tp39
a(S'p1_vo'
I8
tp40
a(S'w'
I10
tp41
a(S'w'
I723
tp42
a(S'p1_vo'
I6
tp43
a(S'w'
I10
tp44
a(S'w'
I724
tp45
a(S'p1_vo'
I5
tp46
a(S'w'
I11
tp47
a(S'w'
I723
tp48
a(S'p1_vo'
I4
tp49
a(S'w'
I10
tp50
a(S'p2_du'
I1
tp51
a(S'w'
I1
tp52
a(S'w'
I722
tp53
a(S'p1_vo'
I3
tp54
a(S'w'
I11
tp55
a(S'w'
I724
tp56
a(S'w'
I10
tp57
a(S'p2_du'
I2
tp58
a(S'w'
I723
tp59
a(S'p1_vo'
I2
tp60
a(S'w'
I1
tp61
a(S'w'
I10
tp62
a(S'w'
I723
tp63
a(S'w'
I10
tp64
a(S'w'
I724
tp65
a(S'w'
I11
tp66
a(S'w'
I726
tp67
a(S'p1_vo'
I7
tp68
a(S'p1_tl'
I189
tp69
a(S'w'
I1
tp70
a(S'p1_ll'
I0
tp71
a(S'w'
I16
tp72
a(S'p2_vo'
I3
tp73
a(S'w'
I1
tp74
a(S'p2_tl'
I253
tp75
a(S'p2_ll'
I0
tp76
a(S'p2_th'
I0
tp77
a(S'w'
I712
tp78
a(S'p1_vo'
I8
tp79
a(S'w'
I9
tp80
a(S'p2_vo'
I5
tp81
a(S'w'
I1
tp82
a(S'w'
I724
tp83
a(S'p1_vo'
I9
tp84
a(S'w'
I1
tp85
a(S'w'
I9
tp86
a(S'p2_vo'
I4
tp87
a(S'w'
I724
tp88
a(S'p1_vo'
I8
tp89
a(S'w'
I10
tp90
a(S'p2_vo'
I2
tp91
a(S'w'
I724
tp92
a(S'p1_vo'
I6
tp93
a(S'w'
I10
tp94
a(S'p2_vo'
I0
tp95
a(S'w'
I723
tp96
a(S'p1_vo'
I5
tp97
a(S'w'
I1
tp98
a(S'w'
I9
tp99
a(S'w'
I725
tp100
a(S'p1_vo'
I4
tp101
a(S'w'
I9
tp102
a(S'p2_du'
I1
tp103
a(S'w'
I1
tp104
a(S'w'
I723
tp105
a(S'p1_vo'
I3
tp106
a(S'w'
I1
tp107
a(S'w'
I9
tp108
a(S'w'
I724
tp109
a(S'w'
I9
tp110
a(S'p2_du'
I2
tp111
a(S'w'
I725
tp112
a(S'p1_vo'
I2
tp113
a(S'w'
I10
tp114
a(S'p2_vo'
I1
tp115
a(S'w'
I724
tp116
a(S'w'
I10
tp117
a(S'p2_vo'
I2
tp118
a(S'w'
I723
tp119
a(S'w'
I9
tp120
a(S'p2_vo'
I1
tp121
a(S'w'
I1
tp122
a(S'w'
I728
tp123
a(S'p1_vo'
I7
tp124
a(S'p1_tl'
I168
tp125
a(S'w'
I1
tp126
a(S'p1_ll'
I0
tp127
a(S'w'
I12
tp128
a(S'p2_vo'
I3
tp129
a(S'p2_tl'
I189
tp130
a(S'w'
I1
tp131
a(S'p2_ll'
I0
tp132
a(S'w'
I716
tp133
a(S'p1_vo'
I8
tp134
a(S'w'
I10
tp135
a(S'p2_vo'
I5
tp136
a(S'w'
I724
tp137
a(S'p1_vo'
I9
tp138
a(S'w'
I9
tp139
a(S'p2_vo'
I4
tp140
a(S'w'
I725
tp141
a(S'p1_vo'
I8
tp142
a(S'w'
I10
tp143
a(S'p2_vo'
I2
tp144
a(S'w'
I724
tp145
a(S'p1_vo'
I6
tp146
a(S'w'
I9
tp147
a(S'p2_vo'
I0
tp148
a(S'w'
I1
tp149
a(S'w'
I723
tp150
a(S'p1_vo'
I5
tp151
a(S'w'
I1
tp152
a(S'w'
I9
tp153
a(S'w'
I724
tp154
a(S'p1_vo'
I4
tp155
a(S'w'
I9
tp156
a(S'p2_du'
I1
tp157
a(S'w'
I725
tp158
a(S'p1_vo'
I3
tp159
a(S'w'
I10
tp160
a(S'w'
I724
tp161
a(S'w'
I10
tp162
a(S'p2_du'
I2
tp163
a(S'w'
I723
tp164
a(S'p1_vo'
I2
tp165
a(S'w'
I9
tp166
a(S'p2_vo'
I1
tp167
a(S'w'
I1
tp168
a(S'w'
I725
tp169
a(S'w'
I9
tp170
a(S'p2_vo'
I2
tp171
a(S'w'
I728
tp172
a(S'p1_vo'
I7
tp173
a(S'p1_tl'
I126
tp174
a(S'p1_ll'
I0
tp175
a(S'w'
I13
tp176
a(S'p2_vo'
I3
tp177
a(S'p2_tl'
I168
tp178
a(S'w'
I1
tp179
a(S'p2_ll'
I0
tp180
a(S'w'
I716
tp181
a(S'p1_vo'
I8
tp182
a(S'w'
I9
tp183
a(S'p2_vo'
I5
tp184
a(S'w'
I725
tp185
a(S'p1_vo'
I9
tp186
a(S'w'
I10
tp187
a(S'p2_vo'
I4
tp188
a(S'w'
I724
tp189
a(S'p1_vo'
I8
tp190
a(S'w'
I9
tp191
a(S'p2_vo'
I2
tp192
a(S'w'
I1
tp193
a(S'w'
I723
tp194
a(S'p1_vo'
I6
tp195
a(S'w'
I9
tp196
a(S'p2_vo'
I0
tp197
a(S'w'
I725
tp198
a(S'p1_vo'
I5
tp199
a(S'w'
I10
tp200
a(S'w'
I724
tp201
a(S'p1_vo'
I4
tp202
a(S'w'
I10
tp203
a(S'p2_du'
I1
tp204
a(S'w'
I724
tp205
a(S'p1_vo'
I3
tp206
a(S'w'
I10
tp207
a(S'w'
I723
tp208
a(S'w'
I10
tp209
a(S'p2_du'
I2
tp210
a(S'w'
I724
tp211
a(S'p1_vo'
I2
tp212
a(S'w'
I1
tp213
a(S'w'
I9
tp214
a(S'p2_vo'
I1
tp215
a(S'w'
I724
tp216
a(S'w'
I10
tp217
a(S'p2_vo'
I2
tp218
a(S'w'
I724
tp219
a(S'w'
I9
tp220
a(S'p2_vo'
I1
tp221
a(S'w'
I728
tp222
a(S'p1_vo'
I7
tp223
a(S'p1_tl'
I189
tp224
a(S'w'
I1
tp225
a(S'p1_ll'
I0
tp226
a(S'w'
I13
tp227
a(S'p2_vo'
I3
tp228
a(S'p2_tl'
I126
tp229
a(S'p2_ll'
I0
tp230
a(S'w'
I717
tp231
a(S'p1_vo'
I8
tp232
a(S'w'
I9
tp233
a(S'p2_vo'
I5
tp234
a(S'w'
I1
tp235
a(S'w'
I723
tp236
a(S'p1_vo'
I9
tp237
a(S'w'
I9
tp238
a(S'p2_vo'
I4
tp239
a(S'w'
I725
tp240
a(S'p1_vo'
I8
tp241
a(S'w'
I10
tp242
a(S'p2_vo'
I2
tp243
a(S'w'
I724
tp244
a(S'p1_vo'
I6
tp245
a(S'w'
I10
tp246
a(S'p2_vo'
I0
tp247
a(S'w'
I723
tp248
a(S'p1_vo'
I5
tp249
a(S'w'
I1
tp250
a(S'w'
I9
tp251
a(S'w'
I725
tp252
a(S'p1_vo'
I4
tp253
a(S'w'
I9
tp254
a(S'p2_du'
I1
tp255
a(S'w'
I1
tp256
a(S'w'
I723
tp257
a(S'p1_vo'
I3
tp258
a(S'w'
I1
tp259
a(S'w'
I9
tp260
a(S'w'
I724
tp261
a(S'w'
I10
tp262
a(S'p2_du'
I2
tp263
a(S'w'
I724
tp264
a(S'p1_vo'
I2
tp265
a(S'w'
I9
tp266
a(S'p2_vo'
I1
tp267
a(S'w'
I725
tp268
a(S'w'
I10
tp269
a(S'p2_vo'
I2
tp270
a(S'w'
I727
tp271
a(S'p1_vo'
I7
tp272
a(S'p1_tl'
I168
tp273
a(S'w'
I1
tp274
a(S'p1_ll'
I0
tp275
a(S'w'
I12
tp276
a(S'p2_vo'
I3
tp277
a(S'w'
I1
tp278
a(S'p2_tl'
I189
tp279
a(S'p2_ll'
I0
tp280
a(S'w'
I716
tp281
a(S'p1_vo'
I8
tp282
a(S'w'
I9
tp283
a(S'p2_vo'
I5
tp284
a(S'w'
I1
tp285
a(S'w'
I724
tp286
a(S'p1_vo'
I9
tp287
a(S'w'
I10
tp288
a(S'p2_vo'
I4
tp289
a(S'w'
I724
tp290
a(S'p1_vo'
I8
tp291
a(S'w'
I10
tp292
a(S'p2_vo'
I2
tp293
a(S'w'
I723
tp294
a(S'p1_vo'
I6
tp295
a(S'w'
I1
tp296
a(S'w'
I9
tp297
a(S'p2_vo'
I0
tp298
a(S'w'
I725
tp299
a(S'p1_vo'
I5
tp300
a(S'w'
I10
tp301
a(S'w'
I723
tp302
a(S'p1_vo'
I4
tp303
a(S'w'
I1
tp304
a(S'w'
I9
tp305
a(S'p2_du'
I1
tp306
a(S'w'
I1
tp307
a(S'w'
I723
tp308
a(S'p1_vo'
I3
tp309
a(S'w'
I9
tp310
a(S'w'
I725
tp311
a(S'w'
I10
tp312
a(S'p2_du'
I2
tp313
a(S'w'
I724
tp314
a(S'p1_vo'
I2
tp315
a(S'w'
I10
tp316
a(S'p2_vo'
I1
tp317
a(S'w'
I724
tp318
a(S'w'
I9
tp319
a(S'p2_vo'
I2
tp320
a(S'w'
I1
tp321
a(S'w'
I723
tp322
a(S'w'
I9
tp323
a(S'p2_vo'
I1
tp324
a(S'w'
I1
tp325
a(S'w'
I728
tp326
a(S'p1_vo'
I7
tp327
a(S'p1_tl'
I238
tp328
a(S'p1_ll'
I0
tp329
a(S'w'
I13
tp330
a(S'p2_vo'
I3
tp331
a(S'p2_tl'
I168
tp332
a(S'w'
I1
tp333
a(S'p2_ll'
I0
tp334
a(S'w'
I706
tp335
a(S'ch_no'
I1
tp336
a(S'ch_tr'
I1
tp337
a(S'ch_p2'
I1
tp338
a(S'ch_p1'
I1
tp339
a(S'w'
I10
tp340
a(S'p1_vo'
I8
tp341
a(S'w'
I10
tp342
a(S'p2_vo'
I5
tp343
a(S'w'
I723
tp344
a(S'p1_vo'
I9
tp345
a(S'w'
I1
tp346
a(S'w'
I9
tp347
a(S'p2_vo'
I4
tp348
a(S'w'
I725
tp349
a(S'p1_vo'
I8
tp350
a(S'w'
I9
tp351
a(S'p2_vo'
I2
tp352
a(S'w'
I1
tp353
a(S'w'
I723
tp354
a(S'p1_vo'
I6
tp355
a(S'w'
I1
tp356
a(S'w'
I9
tp357
a(S'p2_vo'
I0
tp358
a(S'w'
I724
tp359
a(S'p1_vo'
I5
tp360
a(S'w'
I9
tp361
a(S'w'
I725
tp362
a(S'p1_vo'
I4
tp363
a(S'w'
I10
tp364
a(S'p2_du'
I1
tp365
a(S'w'
I724
tp366
a(S'p1_vo'
I3
tp367
a(S'w'
I10
tp368
a(S'w'
I723
tp369
a(S'w'
I10
tp370
a(S'p2_du'
I2
tp371
a(S'w'
I724
tp372
a(S'p1_vo'
I2
tp373
a(S'w'
I1
tp374
a(S'w'
I9
tp375
a(S'p2_vo'
I1
tp376
a(S'w'
I724
tp377
a(S'w'
I10
tp378
a(S'p2_vo'
I2
tp379
a(S'w'
I727
tp380
a(S'p1_vo'
I7
tp381
a(S'w'
I1
tp382
a(S'p1_tl'
I189
tp383
a(S'p1_ll'
I0
tp384
a(S'w'
I13
tp385
a(S'p2_vo'
I3
tp386
a(S'p2_tl'
I238
tp387
a(S'w'
I1
tp388
a(S'p2_ll'
I0
tp389
a(S'w'
I715
tp390
a(S'p1_vo'
I8
tp391
a(S'w'
I1
tp392
a(S'w'
I9
tp393
a(S'p2_vo'
I5
tp394
a(S'w'
I725
tp395
a(S'p1_vo'
I9
tp396
a(S'w'
I10
tp397
a(S'p2_vo'
I4
tp398
a(S'w'
I724
tp399
a(S'p1_vo'
I8
tp400
a(S'w'
I9
tp401
a(S'p2_vo'
I2
tp402
a(S'w'
I1
tp403
a(S'w'
I723
tp404
a(S'p1_vo'
I6
tp405
a(S'w'
I9
tp406
a(S'p2_vo'
I0
tp407
a(S'w'
I725
tp408
a(S'p1_vo'
I5
tp409
a(S'w'
I10
tp410
a(S'w'
I724
tp411
a(S'p1_vo'
I4
tp412
a(S'w'
I10
tp413
a(S'p2_du'
I1
tp414
a(S'w'
I723
tp415
a(S'p1_vo'
I3
tp416
a(S'w'
I10
tp417
a(S'w'
I725
tp418
a(S'w'
I9
tp419
a(S'p2_du'
I2
tp420
a(S'w'
I1
tp421
a(S'w'
I723
tp422
a(S'p1_vo'
I2
tp423
a(S'w'
I1
tp424
a(S'w'
I9
tp425
a(S'p2_vo'
I1
tp426
a(S'w'
I724
tp427
a(S'w'
I9
tp428
a(S'p2_vo'
I2
tp429
a(S'w'
I725
tp430
a(S'w'
I10
tp431
a(S'p2_vo'
I1
tp432
a(S'w'
I727
tp433
a(S'p1_vo'
I7
tp434
a(S'p1_tl'
I168
tp435
a(S'w'
I1
tp436
a(S'p1_ll'
I0
tp437
a(S'w'
I13
tp438
a(S'p2_vo'
I3
tp439
a(S'p2_tl'
I189
tp440
a(S'p2_ll'
I0
tp441
a(S'w'
I716
tp442
a(S'p1_vo'
I8
tp443
a(S'w'
I9
tp444
a(S'p2_vo'
I5
tp445
a(S'w'
I1
tp446
a(S'w'
I724
tp447
a(S'p1_vo'
I9
tp448
a(S'w'
I10
tp449
a(S'p2_vo'
I4
tp450
a(S'w'
I724
tp451
a(S'p1_vo'
I8
tp452
a(S'w'
I10
tp453
a(S'p2_vo'
I2
tp454
a(S'w'
I724
tp455
a(S'p1_vo'
I6
tp456
a(S'w'
I10
tp457
a(S'p2_vo'
I0
tp458
a(S'w'
I723
tp459
a(S'p1_vo'
I5
tp460
a(S'w'
I10
tp461
a(S'w'
I725
tp462
a(S'p1_vo'
I4
tp463
a(S'w'
I9
tp464
a(S'p2_du'
I1
tp465
a(S'w'
I1
tp466
a(S'w'
I723
tp467
a(S'p1_vo'
I3
tp468
a(S'w'
I10
tp469
a(S'w'
I724
tp470
a(S'w'
I9
tp471
a(S'p2_du'
I2
tp472
a(S'w'
I725
tp473
a(S'p1_vo'
I2
tp474
a(S'w'
I10
tp475
a(S'p2_vo'
I1
tp476
a(S'w'
I724
tp477
a(S'w'
I9
tp478
a(S'p2_vo'
I2
tp479
a(S'w'
I1
tp480
a(S'w'
I723
tp481
a(S'w'
I9
tp482
a(S'p2_vo'
I1
tp483
a(S'w'
I1
tp484
a(S'w'
I728
tp485
a(S'p1_vo'
I7
tp486
a(S'p1_tl'
I126
tp487
a(S'p1_ll'
I0
tp488
a(S'w'
I13
tp489
a(S'p2_vo'
I3
tp490
a(S'p2_tl'
I168
tp491
a(S'w'
I1
tp492
a(S'p2_ll'
I0
tp493
a(S'w'
I716
tp494
a(S'p1_vo'
I8
tp495
a(S'w'
I10
tp496
a(S'p2_vo'
I5
tp497
a(S'w'
I723
tp498
a(S'p1_vo'
I9
tp499
a(S'w'
I1
tp500
a(S'w'
I9
tp501
a(S'p2_vo'
I4
tp502
a(S'w'
I725
tp503
a(S'p1_vo'
I8
tp504
a(S'w'
I10
tp505
a(S'p2_vo'
I2
tp506
a(S'w'
I724
tp507
a(S'p1_vo'
I6
tp508
a(S'w'
I9
tp509
a(S'p2_vo'
I0
tp510
a(S'w'
I1
tp511
a(S'w'
I723
tp512
a(S'p1_vo'
I5
tp513
a(S'w'
I1
tp514
a(S'w'
I9
tp515
a(S'w'
I724
tp516
a(S'p1_vo'
I4
tp517
a(S'w'
I9
tp518
a(S'p2_du'
I1
tp519
a(S'w'
I725
tp520
a(S'p1_vo'
I3
tp521
a(S'w'
I10
tp522
a(S'w'
I724
tp523
a(S'w'
I10
tp524
a(S'p2_du'
I2
tp525
a(S'w'
I723
tp526
a(S'p1_vo'
I2
tp527
a(S'w'
I9
tp528
a(S'p2_vo'
I1
tp529
a(S'w'
I1
tp530
a(S'w'
I725
tp531
a(S'w'
I9
tp532
a(S'p2_vo'
I2
tp533
a(S'w'
I728
tp534
a(S'p1_vo'
I7
tp535
a(S'p1_tl'
I189
tp536
a(S'p1_ll'
I0
tp537
a(S'w'
I13
tp538
a(S'p2_vo'
I3
tp539
a(S'p2_tl'
I126
tp540
a(S'w'
I1
tp541
a(S'p2_ll'
I0
tp542
a(S'w'
I715
tp543
a(S'p1_vo'
I8
tp544
a(S'w'
I1
tp545
a(S'w'
I9
tp546
a(S'p2_vo'
I5
tp547
a(S'w'
I725
tp548
a(S'p1_vo'
I9
tp549
a(S'w'
I10
tp550
a(S'p2_vo'
I4
tp551
a(S'w'
I724
tp552
a(S'p1_vo'
I8
tp553
a(S'w'
I9
tp554
a(S'p2_vo'
I2
tp555
a(S'w'
I1
tp556
a(S'w'
I723
tp557
a(S'p1_vo'
I6
tp558
a(S'w'
I9
tp559
a(S'p2_vo'
I0
tp560
a(S'w'
I725
tp561
a(S'p1_vo'
I5
tp562
a(S'w'
I10
tp563
a(S'w'
I724
tp564
a(S'p1_vo'
I4
tp565
a(S'w'
I10
tp566
a(S'p2_du'
I1
tp567
a(S'w'
I724
tp568
a(S'p1_vo'
I3
tp569
a(S'w'
I10
tp570
a(S'w'
I723
tp571
a(S'w'
I9
tp572
a(S'p2_du'
I2
tp573
a(S'w'
I1
tp574
a(S'w'
I724
tp575
a(S'p1_vo'
I2
tp576
a(S'w'
I1
tp577
a(S'w'
I9
tp578
a(S'p2_vo'
I1
tp579
a(S'w'
I724
tp580
a(S'w'
I10
tp581
a(S'p2_vo'
I2
tp582
a(S'w'
I724
tp583
a(S'w'
I9
tp584
a(S'p2_vo'
I1
tp585
a(S'w'
I728
tp586
a(S'p1_vo'
I7
tp587
a(S'p1_tl'
I168
tp588
a(S'w'
I1
tp589
a(S'p1_ll'
I0
tp590
a(S'w'
I13
tp591
a(S'p2_vo'
I3
tp592
a(S'p2_tl'
I189
tp593
a(S'p2_ll'
I0
tp594
a(S'w'
I717
tp595
a(S'p1_vo'
I8
tp596
a(S'w'
I9
tp597
a(S'p2_vo'
I5
tp598
a(S'w'
I1
tp599
a(S'w'
I723
tp600
a(S'p1_vo'
I9
tp601
a(S'w'
I9
tp602
a(S'p2_vo'
I4
tp603
a(S'w'
I725
tp604
a(S'p1_vo'
I8
tp605
a(S'w'
I10
tp606
a(S'p2_vo'
I2
tp607
a(S'w'
I724
tp608
a(S'p1_vo'
I6
tp609
a(S'w'
I10
tp610
a(S'p2_vo'
I0
tp611
a(S'w'
I723
tp612
a(S'p1_vo'
I5
tp613
a(S'w'
I10
tp614
a(S'w'
I725
tp615
a(S'p1_vo'
I4
tp616
a(S'w'
I9
tp617
a(S'p2_du'
I1
tp618
a(S'w'
I1
tp619
a(S'w'
I723
tp620
a(S'p1_vo'
I3
tp621
a(S'w'
I1
tp622
a(S'w'
I9
tp623
a(S'w'
I724
tp624
a(S'w'
I10
tp625
a(S'p2_du'
I2
tp626
a(S'w'
I724
tp627
a(S'p1_vo'
I2
tp628
a(S'w'
I9
tp629
a(S'p2_vo'
I1
tp630
a(S'w'
I725
tp631
a(S'w'
I10
tp632
a(S'p2_vo'
I2
tp633
a(S'w'
I731
tp634
a(S'p1_vo'
I7
tp635
a(S'p1_tl'
I253
tp636
a(S'w'
I1
tp637
a(S'p1_ll'
I0
tp638
a(S'w'
I12
tp639
a(S'p2_vo'
I3
tp640
a(S'w'
I1
tp641
a(S'p2_tl'
I168
tp642
a(S'p2_ll'
I0
tp643
a(S'w'
I712
tp644
a(S'p1_vo'
I8
tp645
a(S'w'
I9
tp646
a(S'p2_vo'
I5
tp647
a(S'w'
I725
tp648
a(S'p1_vo'
I9
tp649
a(S'w'
I10
tp650
a(S'p2_vo'
I4
tp651
a(S'w'
I724
tp652
a(S'p1_vo'
I8
tp653
a(S'w'
I10
tp654
a(S'p2_vo'
I2
tp655
a(S'w'
I723
tp656
a(S'p1_vo'
I6
tp657
a(S'w'
I1
tp658
a(S'w'
I9
tp659
a(S'p2_vo'
I0
tp660
a(S'w'
I725
tp661
a(S'p1_vo'
I5
tp662
a(S'w'
I10
tp663
a(S'w'
I723
tp664
a(S'p1_vo'
I4
tp665
a(S'w'
I1
tp666
a(S'w'
I9
tp667
a(S'p2_du'
I1
tp668
a(S'w'
I724
tp669
a(S'p1_vo'
I3
tp670
a(S'w'
I9
tp671
a(S'w'
I725
tp672
a(S'w'
I10
tp673
a(S'p2_du'
I2
tp674
a(S'w'
I724
tp675
a(S'p1_vo'
I2
tp676
a(S'w'
I10
tp677
a(S'p2_vo'
I1
tp678
a(S'w'
I724
tp679
a(S'w'
I9
tp680
a(S'p2_vo'
I2
tp681
a(S'w'
I1
tp682
a(S'w'
I723
tp683
a(S'w'
I9
tp684
a(S'p2_vo'
I1
tp685
a(S'w'
I729
tp686
a(S'p1_vo'
I7
tp687
a(S'p1_tl'
I189
tp688
a(S'p1_ll'
I0
tp689
a(S'w'
I17
tp690
a(S'p2_vo'
I3
tp691
a(S'p2_tl'
I253
tp692
a(S'w'
I1
tp693
a(S'p2_ll'
I0
tp694
a(S'w'
I712
tp695
a(S'p1_vo'
I8
tp696
a(S'w'
I10
tp697
a(S'p2_vo'
I5
tp698
a(S'w'
I723
tp699
a(S'p1_vo'
I9
tp700
a(S'w'
I1
tp701
a(S'w'
I9
tp702
a(S'p2_vo'
I4
tp703
a(S'w'
I725
tp704
a(S'p1_vo'
I8
tp705
a(S'w'
I9
tp706
a(S'p2_vo'
I2
tp707
a(S'w'
I1
tp708
a(S'w'
I723
tp709
a(S'p1_vo'
I6
tp710
a(S'w'
I1
tp711
a(S'w'
I9
tp712
a(S'p2_vo'
I0
tp713
a(S'w'
I724
tp714
a(S'p1_vo'
I5
tp715
a(S'w'
I9
tp716
a(S'w'
I725
tp717
a(S'p1_vo'
I4
tp718
a(S'w'
I10
tp719
a(S'p2_du'
I1
tp720
a(S'w'
I724
tp721
a(S'p1_vo'
I3
tp722
a(S'w'
I10
tp723
a(S'w'
I723
tp724
a(S'w'
I9
tp725
a(S'p2_du'
I2
tp726
a(S'w'
I1
tp727
a(S'w'
I724
tp728
a(S'p1_vo'
I2
tp729
a(S'w'
I1
tp730
a(S'w'
I9
tp731
a(S'p2_vo'
I1
tp732
a(S'w'
I724
tp733
a(S'w'
I10
tp734
a(S'p2_vo'
I2
tp735
a(S'w'
I727
tp736
a(S'p1_vo'
I7
tp737
a(S'w'
I1
tp738
a(S'p1_tl'
I168
tp739
a(S'p1_ll'
I0
tp740
a(S'w'
I13
tp741
a(S'p2_vo'
I3
tp742
a(S'p2_tl'
I189
tp743
a(S'w'
I1
tp744
a(S'p2_ll'
I0
tp745
a(S'w'
I715
tp746
a(S'p1_vo'
I8
tp747
a(S'w'
I1
tp748
a(S'w'
I9
tp749
a(S'p2_vo'
I5
tp750
a(S'w'
I725
tp751
a(S'p1_vo'
I9
tp752
a(S'w'
I9
tp753
a(S'p2_vo'
I4
tp754
a(S'w'
I1
tp755
a(S'w'
I723
tp756
a(S'p1_vo'
I8
tp757
a(S'w'
I1
tp758
a(S'w'
I9
tp759
a(S'p2_vo'
I2
tp760
a(S'w'
I724
tp761
a(S'p1_vo'
I6
tp762
a(S'w'
I9
tp763
a(S'p2_vo'
I0
tp764
a(S'w'
I725
tp765
a(S'p1_vo'
I5
tp766
a(S'w'
I10
tp767
a(S'w'
I724
tp768
a(S'p1_vo'
I4
tp769
a(S'w'
I10
tp770
a(S'p2_du'
I1
tp771
a(S'w'
I723
tp772
a(S'p1_vo'
I3
tp773
a(S'w'
I10
tp774
a(S'w'
I725
tp775
a(S'w'
I9
tp776
a(S'p2_du'
I2
tp777
a(S'w'
I724
tp778
a(S'p1_vo'
I2
tp779
a(S'w'
I10
tp780
a(S'p2_vo'
I1
tp781
a(S'w'
I724
tp782
a(S'w'
I9
tp783
a(S'p2_vo'
I2
tp784
a(S'w'
I725
tp785
a(S'w'
I10
tp786
a(S'p2_vo'
I1
tp787
a(S'w'
I727
tp788
a(S'p1_vo'
I7
tp789
a(S'p1_tl'
I126
tp790
a(S'w'
I1
tp791
a(S'p1_ll'
I0
tp792
a(S'w'
I12
tp793
a(S'p2_vo'
I3
tp794
a(S'w'
I1
tp795
a(S'p2_tl'
I168
tp796
a(S'p2_ll'
I0
tp797
a(S'w'
I716
tp798
a(S'p1_vo'
I8
tp799
a(S'w'
I9
tp800
a(S'p2_vo'
I5
tp801
a(S'w'
I725
tp802
a(S'p1_vo'
I9
tp803
a(S'w'
I10
tp804
a(S'p2_vo'
I4
tp805
a(S'w'
I724
tp806
a(S'p1_vo'
I8
tp807
a(S'w'
I10
tp808
a(S'p2_vo'
I2
tp809
a(S'w'
I724
tp810
a(S'p1_vo'
I6
tp811
a(S'w'
I10
tp812
a(S'p2_vo'
I0
tp813
a(S'w'
I723
tp814
a(S'p1_vo'
I5
tp815
a(S'w'
I10
tp816
a(S'w'
I724
tp817
a(S'p1_vo'
I4
tp818
a(S'w'
I1
tp819
a(S'w'
I9
tp820
a(S'p2_du'
I1
tp821
a(S'w'
I724
tp822
a(S'p1_vo'
I3
tp823
a(S'w'
I10
tp824
a(S'w'
I724
tp825
a(S'w'
I9
tp826
a(S'p2_du'
I2
tp827
a(S'w'
I725
tp828
a(S'p1_vo'
I2
tp829
a(S'w'
I10
tp830
a(S'p2_vo'
I1
tp831
a(S'w'
I724
tp832
a(S'w'
I9
tp833
a(S'p2_vo'
I2
tp834
a(S'w'
I1
tp835
a(S'w'
I723
tp836
a(S'w'
I9
tp837
a(S'p2_vo'
I1
tp838
a(S'w'
I1
tp839
a(S'w'
I728
tp840
a(S'p1_vo'
I7
tp841
a(S'p1_tl'
I189
tp842
a(S'p1_ll'
I0
tp843
a(S'w'
I13
tp844
a(S'p2_vo'
I3
tp845
a(S'p2_tl'
I126
tp846
a(S'w'
I1
tp847
a(S'p2_ll'
I0
tp848
a(S'w'
I716
tp849
a(S'p1_vo'
I8
tp850
a(S'w'
I10
tp851
a(S'p2_vo'
I5
tp852
a(S'w'
I723
tp853
a(S'p1_vo'
I9
tp854
a(S'w'
I1
tp855
a(S'w'
I9
tp856
a(S'p2_vo'
I4
tp857
a(S'w'
I725
tp858
a(S'p1_vo'
I8
tp859
a(S'w'
I9
tp860
a(S'p2_vo'
I2
tp861
a(S'w'
I1
tp862
a(S'w'
I723
tp863
a(S'p1_vo'
I6
tp864
a(S'w'
I1
tp865
a(S'w'
I9
tp866
a(S'p2_vo'
I0
tp867
a(S'w'
I724
tp868
a(S'p1_vo'
I5
tp869
a(S'w'
I10
tp870
a(S'w'
I724
tp871
a(S'p1_vo'
I4
tp872
a(S'w'
I9
tp873
a(S'p2_du'
I1
tp874
a(S'w'
I725
tp875
a(S'p1_vo'
I3
tp876
a(S'w'
I10
tp877
a(S'w'
I724
tp878
a(S'w'
I9
tp879
a(S'p2_du'
I2
tp880
a(S'w'
I1
tp881
a(S'w'
I723
tp882
a(S'p1_vo'
I2
tp883
a(S'w'
I9
tp884
a(S'p2_vo'
I1
tp885
a(S'w'
I1
tp886
a(S'w'
I724
tp887
a(S'w'
I10
tp888
a(S'p2_vo'
I2
tp889
a(S'w'
I727
tp890
a(S'p1_vo'
I7
tp891
a(S'w'
I1
tp892
a(S'p1_tl'
I168
tp893
a(S'p1_ll'
I0
tp894
a(S'w'
I13
tp895
a(S'p2_vo'
I3
tp896
a(S'p2_tl'
I189
tp897
a(S'w'
I1
tp898
a(S'p2_ll'
I0
tp899
a(S'w'
I715
tp900
a(S'p1_vo'
I8
tp901
a(S'w'
I1
tp902
a(S'w'
I9
tp903
a(S'p2_vo'
I5
tp904
a(S'w'
I725
tp905
a(S'p1_vo'
I9
tp906
a(S'w'
I9
tp907
a(S'p2_vo'
I4
tp908
a(S'w'
I1
tp909
a(S'w'
I723
tp910
a(S'p1_vo'
I8
tp911
a(S'w'
I1
tp912
a(S'w'
I9
tp913
a(S'p2_vo'
I2
tp914
a(S'w'
I724
tp915
a(S'p1_vo'
I6
tp916
a(S'w'
I9
tp917
a(S'p2_vo'
I0
tp918
a(S'w'
I725
tp919
a(S'p1_vo'
I5
tp920
a(S'w'
I10
tp921
a(S'w'
I724
tp922
a(S'p1_vo'
I4
tp923
a(S'w'
I10
tp924
a(S'p2_du'
I1
tp925
a(S'w'
I724
tp926
a(S'p1_vo'
I3
tp927
a(S'w'
I10
tp928
a(S'w'
I723
tp929
a(S'w'
I9
tp930
a(S'p2_du'
I2
tp931
a(S'w'
I725
tp932
a(S'p1_vo'
I2
tp933
a(S'w'
I10
tp934
a(S'p2_vo'
I1
tp935
a(S'w'
I724
tp936
a(S'w'
I10
tp937
a(S'p2_vo'
I2
tp938
a(S'w'
I724
tp939
a(S'w'
I9
tp940
a(S'p2_vo'
I1
tp941
a(S'w'
I728
tp942
a.