(lp1
(S'clock'
p2
I1789772
tp3
a(S'ch_no'
I1
tp4
a(S'ch_tr'
I1
tp5
a(S'ch_p2'
I1
tp6
a(S'ch_p1'
I1
tp7
a(S'fc_mo'
I1
tp8
a(S'p1_lh'
I1
tp9
a(S'p1_cv'
I1
tp10
a(S'w'
I8
tp11
a(S'p2_lh'
I1
tp12
a(S'p2_cv'
I1
tp13
a(S'w'
I8
tp14
a(S'w'
I8
tp15
a(S'no_lh'
I1
tp16
a(S'no_cv'
I1
tp17
a(S'w'
I57232
tp18
a(S'p1_vo'
I1
tp19
a(S'p1_tl'
I189
tp20
a(S'p1_sp'
I7
tp21
a(S'p1_sn'
I1
tp22
a(S'p1_ss'
I7
tp23
a(S'w'
I1
tp24
a(S'p1_ll'
I0
tp25
a(S'w'
I26
tp26
a(S'p2_vo'
I1
tp27
a(S'p2_tl'
I124
tp28
a(S'p2_sp'
I7
tp29
a(S'p2_sn'
I1
tp30
a(S'p2_ss'
I7
tp31
a(S'w'
I1
tp32
a(S'p2_ll'
I0
tp33
a(S'p2_th'
I1
tp34
a(S'w'
I691
tp35
a(S'p1_vo'
I15
tp36
a(S'w'
I11
tp37
a(S'p2_vo'
I15
tp38
a(S'w'
I723
tp39
a(S'w'
I12
tp40
a(S'w'
I722
tp41
a(S'w'
I12
tp42
a(S'w'
I722
tp43
a(S'w'
I11
tp44
a(S'w'
I722
tp45
a(S'p1_vo'
I12
tp46
a(S'w'
I12
tp47
a(S'p2_vo'
I12
tp48
a(S'w'
I722
tp49
a(S'p1_vo'
I11
tp50
a(S'w'
I12
tp51
a(S'p2_vo'
I11
tp52
a(S'w'
I722
tp53
a(S'p1_vo'
I10
tp54
a(S'w'
I12
tp55
a(S'p2_vo'
I10
tp56
a(S'w'
I722
tp57
a(S'p1_vo'
I9
tp58
a(S'w'
I11
tp59
a(S'p2_vo'
I9
tp60
a(S'w'
I1
tp61
a(S'w'
I721
tp62
a(S'p1_vo'
I8
tp63
a(S'w'
I1
tp64
a(S'w'
I11
tp65
a(S'p2_vo'
I8
tp66
a(S'w'
I722
tp67
a(S'w'
I12
tp68
a(S'w'
I722
tp69
a(S'p1_vo'
I9
tp70
a(S'w'
I12
tp71
a(S'p2_vo'
I9
tp72
a(S'w'
I722
tp73
a(S'w'
I12
tp74
a(S'w'
I722
tp75
a(S'p1_vo'
I10
tp76
a(S'w'
I11
tp77
a(S'p2_vo'
I10
tp78
a(S'w'
I1
tp79
a(S'w'
I722
tp80
a(S'w'
I11
tp81
a(S'w'
I722
tp82
a(S'p1_vo'
I9
tp83
a(S'w'
I12
tp84
a(S'p2_vo'
I9
tp85
a(S'w'
I722
tp86
a(S'w'
I12
tp87
a(S'w'
I723
tp88
a(S'w'
I12
tp89
a(S'w'
I721
tp90
a(S'p1_vo'
I8
tp91
a(S'w'
I11
tp92
a(S'p2_vo'
I8
tp93
a(S'w'
I1
tp94
a(S'w'
I728
tp95
a(S'p1_vo'
I1
tp96
a(S'p1_tl'
I141
tp97
a(S'w'
I1
tp98
a(S'p1_ll'
I0
tp99
a(S'w'
I18
tp100
a(S'p2_vo'
I1
tp101
a(S'p2_tl'
I28
tp102
a(S'p2_ll'
I0
tp103
a(S'w'
I708
tp104
a(S'p1_vo'
I15
tp105
a(S'w'
I12
tp106
a(S'p2_vo'
I15
tp107
a(S'w'
I722
tp108
a(S'w'
I12
tp109
a(S'w'
I722
tp110
a(S'w'
I12
tp111
a(S'w'
I722
tp112
a(S'w'
I12
tp113
a(S'w'
I721
tp114
a(S'p1_vo'
I12
tp115
a(S'w'
I1
tp116
a(S'w'
I11
tp117
a(S'p2_vo'
I12
tp118
a(S'w'
I729
tp119
a(S'p1_vo'
I1
tp120
a(S'p1_tl'
I112
tp121
a(S'w'
I1
tp122
a(S'p1_ll'
I0
tp123
a(S'w'
I17
tp124
a(S'p2_vo'
I1
tp125
a(S'w'
I1
tp126
a(S'p2_tl'
I225
tp127
a(S'p2_ll'
I0
tp128
a(S'p2_th'
I0
tp129
a(S'w'
I708
tp130
a(S'p1_vo'
I15
tp131
a(S'w'
I12
tp132
a(S'p2_vo'
I15
tp133
a(S'w'
I722
tp134
a(S'w'
I12
tp135
a(S'w'
I722
tp136
a(S'w'
I12
tp137
a(S'w'
I722
tp138
a(S'p1_vo'
I2
tp139
a(S'w'
I12
tp140
a(S'p2_vo'
I2
tp141
a(S'w'
I722
tp142
a(S'w'
I11
tp143
a(S'w'
I722
tp144
a(S'w'
I12
tp145
a(S'w'
I722
tp146
a(S'w'
I12
tp147
a(S'w'
I722
tp148
a(S'w'
I12
tp149
a(S'w'
I722
tp150
a(S'w'
I12
tp151
a(S'w'
I722
tp152
a(S'w'
I11
tp153
a(S'w'
I722
tp154
a(S'w'
I12
tp155
a(S'w'
I728
tp156
a(S'p1_vo'
I1
tp157
a(S'p1_tl'
I94
tp158
a(S'w'
I1
tp159
a(S'p1_ll'
I0
tp160
a(S'w'
I17
tp161
a(S'p2_vo'
I1
tp162
a(S'p2_tl'
I189
tp163
a(S'w'
I1
tp164
a(S'p2_ll'
I0
tp165
a(S'w'
I709
tp166
a(S'p1_vo'
I15
tp167
a(S'w'
I11
tp168
a(S'p2_vo'
I15
tp169
a(S'w'
I1
tp170
a(S'w'
I722
tp171
a(S'w'
I11
tp172
a(S'w'
I723
tp173
a(S'w'
I11
tp174
a(S'w'
I722
tp175
a(S'p1_vo'
I2
tp176
a(S'w'
I1
tp177
a(S'w'
I11
tp178
a(S'p2_vo'
I2
tp179
a(S'w'
I722
tp180
a(S'w'
I12
tp181
a(S'w'
I722
tp182
a(S'w'
I12
tp183
a(S'w'
I722
tp184
a(S'w'
I12
tp185
a(S'w'
I722
tp186
a(S'w'
I11
tp187
a(S'w'
I722
tp188
a(S'w'
I12
tp189
a(S'w'
I722
tp190
a(S'w'
I12
tp191
a(S'w'
I722
tp192
a(S'w'
I12
tp193
a(S'w'
I728
tp194
a(S'p1_vo'
I1
tp195
a(S'p1_tl'
I99
tp196
a(S'w'
I1
tp197
a(S'p1_ll'
I0
tp198
a(S'w'
I17
tp199
a(S'p2_vo'
I1
tp200
a(S'p2_tl'
I200
tp201
a(S'w'
I1
tp202
a(S'p2_ll'
I0
tp203
a(S'w'
I708
tp204
a(S'p1_vo'
I15
tp205
a(S'w'
I1
tp206
a(S'w'
I11
tp207
a(S'p2_vo'
I15
tp208
a(S'w'
I722
tp209
a(S'w'
I12
tp210
a(S'w'
I722
tp211
a(S'w'
I12
tp212
a(S'w'
I722
tp213
a(S'w'
I12
tp214
a(S'w'
I721
tp215
a(S'p1_vo'
I12
tp216
a(S'w'
I1
tp217
a(S'w'
I11
tp218
a(S'p2_vo'
I12
tp219
a(S'w'
I722
tp220
a(S'p1_vo'
I11
tp221
a(S'w'
I1
tp222
a(S'w'
I11
tp223
a(S'p2_vo'
I11
tp224
a(S'w'
I722
tp225
a(S'p1_vo'
I10
tp226
a(S'w'
I12
tp227
a(S'p2_vo'
I10
tp228
a(S'w'
I722
tp229
a(S'p1_vo'
I9
tp230
a(S'w'
I12
tp231
a(S'p2_vo'
I9
tp232
a(S'w'
I722
tp233
a(S'p1_vo'
I8
tp234
a(S'w'
I11
tp235
a(S'p2_vo'
I8
tp236
a(S'w'
I1
tp237
a(S'w'
I722
tp238
a(S'w'
I11
tp239
a(S'w'
I722
tp240
a(S'p1_vo'
I9
tp241
a(S'w'
I1
tp242
a(S'w'
I11
tp243
a(S'p2_vo'
I9
tp244
a(S'w'
I729
tp245
a(S'p1_vo'
I1
tp246
a(S'p1_tl'
I94
tp247
a(S'p1_ll'
I0
tp248
a(S'w'
I18
tp249
a(S'p2_vo'
I1
tp250
a(S'p2_tl'
I189
tp251
a(S'w'
I1
tp252
a(S'p2_ll'
I0
tp253
a(S'w'
I708
tp254
a(S'p1_vo'
I15
tp255
a(S'w'
I12
tp256
a(S'p2_vo'
I15
tp257
a(S'w'
I722
tp258
a(S'w'
I12
tp259
a(S'w'
I722
tp260
a(S'w'
I11
tp261
a(S'w'
I723
tp262
a(S'p1_vo'
I2
tp263
a(S'w'
I12
tp264
a(S'p2_vo'
I2
tp265
a(S'w'
I721
tp266
a(S'w'
I12
tp267
a(S'w'
I722
tp268
a(S'w'
I12
tp269
a(S'w'
I722
tp270
a(S'w'
I12
tp271
a(S'w'
I722
tp272
a(S'w'
I12
tp273
a(S'w'
I722
tp274
a(S'w'
I11
tp275
a(S'w'
I722
tp276
a(S'w'
I12
tp277
a(S'w'
I722
tp278
a(S'w'
I12
tp279
a(S'w'
I728
tp280
a(S'p1_vo'
I1
tp281
a(S'p1_tl'
I112
tp282
a(S'w'
I1
tp283
a(S'p1_ll'
I0
tp284
a(S'w'
I17
tp285
a(S'p2_vo'
I1
tp286
a(S'p2_tl'
I225
tp287
a(S'p2_ll'
I0
tp288
a(S'w'
I709
tp289
a(S'p1_vo'
I15
tp290
a(S'w'
I1
tp291
a(S'w'
I11
tp292
a(S'p2_vo'
I15
tp293
a(S'w'
I723
tp294
a(S'w'
I11
tp295
a(S'w'
I722
tp296
a(S'w'
I12
tp297
a(S'w'
I722
tp298
a(S'p1_vo'
I2
tp299
a(S'w'
I12
tp300
a(S'p2_vo'
I2
tp301
a(S'w'
I722
tp302
a(S'w'
I12
tp303
a(S'w'
I722
tp304
a(S'w'
I12
tp305
a(S'w'
I722
tp306
a(S'w'
I11
tp307
a(S'w'
I722
tp308
a(S'w'
I12
tp309
a(S'w'
I722
tp310
a(S'w'
I12
tp311
a(S'w'
I722
tp312
a(S'w'
I12
tp313
a(S'w'
I722
tp314
a(S'w'
I12
tp315
a(S'w'
I727
tp316
a(S'p1_vo'
I1
tp317
a(S'w'
I1
tp318
a(S'p1_tl'
I141
tp319
a(S'p1_ll'
I0
tp320
a(S'w'
I17
tp321
a(S'p2_vo'
I1
tp322
a(S'w'
I1
tp323
a(S'p2_tl'
I28
tp324
a(S'p2_ll'
I0
tp325
a(S'p2_th'
I1
tp326
a(S'w'
I709
tp327
a(S'p1_vo'
I15
tp328
a(S'w'
I12
tp329
a(S'p2_vo'
I15
tp330
a(S'w'
I722
tp331
a(S'w'
I12
tp332
a(S'w'
I722
tp333
a(S'w'
I12
tp334
a(S'w'
I722
tp335
a(S'p1_vo'
I2
tp336
a(S'w'
I12
tp337
a(S'p2_vo'
I2
tp338
a(S'w'
I722
tp339
a(S'w'
I11
tp340
a(S'w'
I722
tp341
a(S'w'
I12
tp342
a(S'w'
I722
tp343
a(S'w'
I12
tp344
a(S'w'
I722
tp345
a(S'w'
I12
tp346
a(S'w'
I722
tp347
a(S'w'
I12
tp348
a(S'w'
I722
tp349
a(S'w'
I11
tp350
a(S'w'
I722
tp351
a(S'w'
I12
tp352
a(S'w'
I728
tp353
a(S'p1_vo'
I1
tp354
a(S'w'
I1
tp355
a(S'p1_tl'
I178
tp356
a(S'p1_ll'
I0
tp357
a(S'w'
I18
tp358
a(S'p2_vo'
I1
tp359
a(S'p2_tl'
I103
tp360
a(S'w'
I1
tp361
a(S'p2_ll'
I0
tp362
a(S'w'
I708
tp363
a(S'p1_vo'
I15
tp364
a(S'w'
I12
tp365
a(S'p2_vo'
I15
tp366
a(S'w'
I722
tp367
a(S'w'
I11
tp368
a(S'w'
I723
tp369
a(S'w'
I11
tp370
a(S'w'
I722
tp371
a(S'w'
I12
tp372
a(S'w'
I722
tp373
a(S'p1_vo'
I12
tp374
a(S'w'
I12
tp375
a(S'p2_vo'
I12
tp376
a(S'w'
I722
tp377
a(S'p1_vo'
I11
tp378
a(S'w'
I12
tp379
a(S'p2_vo'
I11
tp380
a(S'w'
I722
tp381
a(S'p1_vo'
I10
tp382
a(S'w'
I11
tp383
a(S'p2_vo'
I10
tp384
a(S'w'
I722
tp385
a(S'p1_vo'
I9
tp386
a(S'w'
I1
tp387
a(S'w'
I11
tp388
a(S'p2_vo'
I9
tp389
a(S'w'
I722
tp390
a(S'p1_vo'
I8
tp391
a(S'w'
I12
tp392
a(S'p2_vo'
I8
tp393
a(S'w'
I722
tp394
a(S'w'
I12
tp395
a(S'w'
I722
tp396
a(S'p1_vo'
I9
tp397
a(S'w'
I12
tp398
a(S'p2_vo'
I9
tp399
a(S'w'
I722
tp400
a(S'w'
I11
tp401
a(S'w'
I722
tp402
a(S'p1_vo'
I10
tp403
a(S'w'
I1
tp404
a(S'w'
I11
tp405
a(S'p2_vo'
I10
tp406
a(S'w'
I722
tp407
a(S'w'
I12
tp408
a(S'w'
I722
tp409
a(S'p1_vo'
I9
tp410
a(S'w'
I12
tp411
a(S'p2_vo'
I9
tp412
a(S'w'
I722
tp413
a(S'w'
I12
tp414
a(S'w'
I722
tp415
a(S'w'
I13
tp416
a(S'w'
I720
tp417
a(S'p1_vo'
I8
tp418
a(S'w'
I1
tp419
a(S'w'
I11
tp420
a(S'p2_vo'
I8
tp421
a(S'w'
I722
tp422
a(S'w'
I12
tp423
a(S'w'
I722
tp424
a(S'p1_vo'
I9
tp425
a(S'w'
I12
tp426
a(S'p2_vo'
I9
tp427
a(S'w'
I722
tp428
a(S'w'
I12
tp429
a(S'w'
I722
tp430
a(S'p1_vo'
I10
tp431
a(S'w'
I11
tp432
a(S'p2_vo'
I10
tp433
a(S'w'
I1
tp434
a(S'w'
I722
tp435
a(S'w'
I11
tp436
a(S'w'
I722
tp437
a(S'p1_vo'
I9
tp438
a(S'w'
I12
tp439
a(S'p2_vo'
I9
tp440
a(S'w'
I722
tp441
a(S'w'
I12
tp442
a(S'w'
I723
tp443
a(S'w'
I12
tp444
a(S'w'
I721
tp445
a(S'p1_vo'
I8
tp446
a(S'w'
I11
tp447
a(S'p2_vo'
I8
tp448
a(S'w'
I1
tp449
a(S'w'
I722
tp450
a(S'w'
I11
tp451
a(S'w'
I722
tp452
a(S'p1_vo'
I9
tp453
a(S'w'
I12
tp454
a(S'p2_vo'
I9
tp455
a(S'w'
I722
tp456
a(S'w'
I12
tp457
a(S'w'
I722
tp458
a(S'p1_vo'
I10
tp459
a(S'w'
I11
tp460
a(S'p2_vo'
I10
tp461
a(S'w'
I1
tp462
a(S'w'
I722
tp463
a(S'w'
I12
tp464
a(S'w'
I721
tp465
a(S'p1_vo'
I9
tp466
a(S'w'
I1
tp467
a(S'w'
I11
tp468
a(S'p2_vo'
I9
tp469
a(S'w'
I722
tp470
a(S'w'
I12
tp471
a(S'w'
I723
tp472
a(S'w'
I12
tp473
a(S'w'
I721
tp474
a(S'p1_vo'
I8
tp475
a(S'w'
I12
tp476
a(S'p2_vo'
I8
tp477
a(S'w'
I722
tp478
a(S'w'
I12
tp479
a(S'w'
I721
tp480
a(S'p1_vo'
I9
tp481
a(S'w'
I1
tp482
a(S'w'
I11
tp483
a(S'p2_vo'
I9
tp484
a(S'w'
I722
tp485
a(S'w'
I12
tp486
a(S'w'
I722
tp487
a(S'p1_vo'
I10
tp488
a(S'w'
I12
tp489
a(S'p2_vo'
I10
tp490
a(S'w'
I722
tp491
a(S'w'
I12
tp492
a(S'w'
I722
tp493
a(S'p1_vo'
I9
tp494
a(S'w'
I11
tp495
a(S'p2_vo'
I9
tp496
a(S'w'
I1
tp497
a(S'w'
I722
tp498
a(S'w'
I11
tp499
a(S'w'
I723
tp500
a(S'w'
I12
tp501
a(S'w'
I721
tp502
a(S'p1_vo'
I8
tp503
a(S'w'
I12
tp504
a(S'p2_vo'
I8
tp505
a(S'w'
I722
tp506
a(S'w'
I12
tp507
a(S'w'
I722
tp508
a(S'p1_vo'
I9
tp509
a(S'w'
I11
tp510
a(S'p2_vo'
I9
tp511
a(S'w'
I1
tp512
a(S'w'
I722
tp513
a(S'w'
I11
tp514
a(S'w'
I722
tp515
a(S'p1_vo'
I10
tp516
a(S'w'
I12
tp517
a(S'p2_vo'
I10
tp518
a(S'w'
I722
tp519
a(S'w'
I12
tp520
a(S'w'
I722
tp521
a(S'p1_vo'
I9
tp522
a(S'w'
I12
tp523
a(S'p2_vo'
I9
tp524
a(S'w'
I722
tp525
a(S'w'
I12
tp526
a(S'w'
I722
tp527
a(S'w'
I12
tp528
a(S'w'
I721
tp529
a(S'p1_vo'
I8
tp530
a(S'w'
I12
tp531
a(S'p2_vo'
I8
tp532
a(S'w'
I722
tp533
a(S'w'
I12
tp534
a(S'w'
I722
tp535
a(S'p1_vo'
I9
tp536
a(S'w'
I12
tp537
a(S'p2_vo'
I9
tp538
a(S'w'
I722
tp539
a(S'w'
I12
tp540
a(S'w'
I721
tp541
a(S'p1_vo'
I10
tp542
a(S'w'
I1
tp543
a(S'w'
I11
tp544
a(S'p2_vo'
I10
tp545
a(S'w'
I722
tp546
a(S'w'
I12
tp547
a(S'w'
I722
tp548
a(S'p1_vo'
I9
tp549
a(S'w'
I12
tp550
a(S'p2_vo'
I9
tp551
a(S'w'
I722
tp552
a(S'w'
I12
tp553
a(S'w'
I722
tp554
a(S'w'
I13
tp555
a(S'w'
I720
tp556
a(S'p1_vo'
I8
tp557
a(S'w'
I1
tp558
a(S'w'
I11
tp559
a(S'p2_vo'
I8
tp560
a(S'w'
I722
tp561
a(S'w'
I12
tp562
a(S'w'
I722
tp563
a(S'p1_vo'
I9
tp564
a(S'w'
I12
tp565
a(S'p2_vo'
I9
tp566
a(S'w'
I722
tp567
a(S'w'
I12
tp568
a(S'w'
I722
tp569
a(S'p1_vo'
I10
tp570
a(S'w'
I11
tp571
a(S'p2_vo'
I10
tp572
a(S'w'
I1
tp573
a(S'w'
I722
tp574
a(S'w'
I11
tp575
a(S'w'
I722
tp576
a(S'p1_vo'
I9
tp577
a(S'w'
I12
tp578
a(S'p2_vo'
I9
tp579
a(S'w'
I722
tp580
a(S'w'
I12
tp581
a(S'w'
I723
tp582
a(S'w'
I12
tp583
a(S'w'
I717
tp584
a(S'p1_vo'
I0
tp585
a(S'w'
I9
tp586
a(S'p2_vo'
I0
tp587
a(S'w'
I1
tp588
a.