(lp1
(S'clock'
p2
I1789772
tp3
a(S'ch_no'
I1
tp4
a(S'ch_tr'
I1
tp5
a(S'ch_p2'
I1
tp6
a(S'ch_p1'
I1
tp7
a(S'fc_mo'
I1
tp8
a(S'p1_du'
I2
tp9
a(S'p1_lh'
I1
tp10
a(S'p1_cv'
I1
tp11
a(S'p1_vo'
I1
tp12
a(S'p1_tl'
I45
tp13
a(S'w'
I1
tp14
a(S'p1_sp'
I7
tp15
a(S'p1_sn'
I1
tp16
a(S'p1_ss'
I7
tp17
a(S'p1_ll'
I0
tp18
a(S'p1_th'
I1
tp19
a(S'w'
I26
tp20
a(S'p2_du'
I2
tp21
a(S'p2_lh'
I1
tp22
a(S'p2_cv'
I1
tp23
a(S'p2_vo'
I1
tp24
a(S'w'
I1
tp25
a(S'p2_tl'
I103
tp26
a(S'p2_sp'
I7
tp27
a(S'p2_sn'
I1
tp28
a(S'p2_ss'
I7
tp29
a(S'p2_ll'
I0
tp30
a(S'p2_th'
I1
tp31
a(S'w'
I22
tp32
a(S'tr_lh'
I1
tp33
a(S'tr_tl'
I248
tp34
a(S'w'
I1
tp35
a(S'tr_ll'
I0
tp36
a(S'tr_th'
I3
tp37
a(S'w'
I6
tp38
a(S'no_lh'
I1
tp39
a(S'no_cv'
I1
tp40
a(S'w'
I657
tp41
a(S'p1_vo'
I9
tp42
a(S'w'
I11
tp43
a(S'p2_vo'
I9
tp44
a(S'w'
I1
tp45
a(S'w'
I722
tp46
a(S'p1_vo'
I13
tp47
a(S'w'
I1
tp48
a(S'w'
I11
tp49
a(S'p2_vo'
I13
tp50
a(S'w'
I18
tp51
a(S'tr_lr'
I63
tp52
a(S'tr_tl'
I225
tp53
a(S'w'
I1
tp54
a(S'tr_ll'
I0
tp55
a(S'tr_th'
I0
tp56
a(S'w'
I703
tp57
a(S'p1_du'
I1
tp58
a(S'p1_vo'
I15
tp59
a(S'w'
I12
tp60
a(S'p2_du'
I1
tp61
a(S'p2_vo'
I15
tp62
a(S'w'
I12
tp63
a(S'tr_lr'
I57
tp64
a(S'w'
I710
tp65
a(S'w'
I12
tp66
a(S'w'
I12
tp67
a(S'tr_lr'
I55
tp68
a(S'w'
I710
tp69
a(S'w'
I12
tp70
a(S'w'
I12
tp71
a(S'tr_lr'
I52
tp72
a(S'w'
I710
tp73
a(S'p1_du'
I0
tp74
a(S'p1_vo'
I2
tp75
a(S'w'
I12
tp76
a(S'p2_du'
I0
tp77
a(S'p2_vo'
I2
tp78
a(S'w'
I12
tp79
a(S'tr_lr'
I51
tp80
a(S'w'
I710
tp81
a(S'w'
I12
tp82
a(S'w'
I9
tp83
a(S'tr_lr'
I0
tp84
a(S'w'
I713
tp85
a(S'w'
I11
tp86
a(S'w'
I722
tp87
a(S'w'
I12
tp88
a(S'w'
I722
tp89
a(S'w'
I12
tp90
a(S'w'
I722
tp91
a(S'w'
I11
tp92
a(S'w'
I723
tp93
a(S'w'
I12
tp94
a(S'w'
I722
tp95
a(S'w'
I11
tp96
a(S'w'
I722
tp97
a(S'w'
I12
tp98
a(S'w'
I722
tp99
a(S'w'
I12
tp100
a(S'w'
I722
tp101
a(S'w'
I12
tp102
a(S'w'
I722
tp103
a(S'w'
I12
tp104
a(S'w'
I722
tp105
a(S'w'
I11
tp106
a(S'w'
I722
tp107
a(S'w'
I12
tp108
a(S'w'
I729
tp109
a(S'p1_du'
I2
tp110
a(S'p1_vo'
I1
tp111
a(S'p1_ll'
I0
tp112
a(S'w'
I18
tp113
a(S'p2_du'
I2
tp114
a(S'p2_vo'
I1
tp115
a(S'w'
I1
tp116
a(S'p2_ll'
I0
tp117
a(S'w'
I708
tp118
a(S'p1_vo'
I9
tp119
a(S'w'
I11
tp120
a(S'p2_vo'
I9
tp121
a(S'w'
I1
tp122
a(S'w'
I17
tp123
a(S'tr_lr'
I63
tp124
a(S'w'
I1
tp125
a(S'tr_ll'
I0
tp126
a(S'w'
I703
tp127
a(S'p1_vo'
I13
tp128
a(S'w'
I11
tp129
a(S'p2_vo'
I13
tp130
a(S'w'
I12
tp131
a(S'tr_lr'
I57
tp132
a(S'w'
I711
tp133
a(S'p1_du'
I1
tp134
a(S'p1_vo'
I15
tp135
a(S'w'
I12
tp136
a(S'p2_du'
I1
tp137
a(S'p2_vo'
I15
tp138
a(S'w'
I12
tp139
a(S'tr_lr'
I55
tp140
a(S'w'
I710
tp141
a(S'p1_du'
I0
tp142
a(S'p1_vo'
I2
tp143
a(S'w'
I1
tp144
a(S'w'
I11
tp145
a(S'p2_du'
I0
tp146
a(S'p2_vo'
I2
tp147
a(S'w'
I12
tp148
a(S'tr_lr'
I52
tp149
a(S'w'
I710
tp150
a(S'w'
I12
tp151
a(S'w'
I12
tp152
a(S'tr_lr'
I0
tp153
a(S'w'
I710
tp154
a(S'w'
I12
tp155
a(S'w'
I728
tp156
a(S'p1_du'
I2
tp157
a(S'p1_vo'
I1
tp158
a(S'w'
I1
tp159
a(S'p1_ll'
I0
tp160
a(S'w'
I18
tp161
a(S'p2_du'
I2
tp162
a(S'p2_vo'
I1
tp163
a(S'w'
I1
tp164
a(S'p2_ll'
I0
tp165
a(S'w'
I707
tp166
a(S'p1_vo'
I9
tp167
a(S'w'
I12
tp168
a(S'p2_vo'
I9
tp169
a(S'w'
I18
tp170
a(S'tr_lr'
I63
tp171
a(S'w'
I1
tp172
a(S'tr_ll'
I0
tp173
a(S'w'
I703
tp174
a(S'p1_vo'
I13
tp175
a(S'w'
I12
tp176
a(S'p2_vo'
I13
tp177
a(S'w'
I12
tp178
a(S'tr_lr'
I57
tp179
a(S'w'
I710
tp180
a(S'p1_du'
I1
tp181
a(S'p1_vo'
I15
tp182
a(S'w'
I12
tp183
a(S'p2_du'
I1
tp184
a(S'p2_vo'
I15
tp185
a(S'w'
I12
tp186
a(S'tr_lr'
I55
tp187
a(S'w'
I710
tp188
a(S'w'
I12
tp189
a(S'w'
I11
tp190
a(S'tr_lr'
I52
tp191
a(S'w'
I711
tp192
a(S'w'
I11
tp193
a(S'w'
I12
tp194
a(S'tr_lr'
I51
tp195
a(S'w'
I710
tp196
a(S'p1_vo'
I14
tp197
a(S'w'
I11
tp198
a(S'p2_vo'
I14
tp199
a(S'w'
I9
tp200
a(S'tr_lr'
I48
tp201
a(S'w'
I714
tp202
a(S'p1_vo'
I13
tp203
a(S'w'
I12
tp204
a(S'p2_vo'
I13
tp205
a(S'w'
I722
tp206
a(S'p1_vo'
I12
tp207
a(S'w'
I12
tp208
a(S'p2_vo'
I12
tp209
a(S'w'
I722
tp210
a(S'p1_vo'
I11
tp211
a(S'w'
I11
tp212
a(S'p2_vo'
I11
tp213
a(S'w'
I1
tp214
a(S'w'
I721
tp215
a(S'p1_vo'
I10
tp216
a(S'w'
I1
tp217
a(S'w'
I11
tp218
a(S'p2_vo'
I10
tp219
a(S'w'
I722
tp220
a(S'p1_vo'
I9
tp221
a(S'w'
I12
tp222
a(S'p2_vo'
I9
tp223
a(S'w'
I722
tp224
a(S'p1_du'
I0
tp225
a(S'p1_vo'
I2
tp226
a(S'w'
I1
tp227
a(S'w'
I11
tp228
a(S'p2_du'
I0
tp229
a(S'p2_vo'
I2
tp230
a(S'w'
I729
tp231
a(S'p1_du'
I2
tp232
a(S'p1_vo'
I1
tp233
a(S'p1_ll'
I0
tp234
a(S'w'
I18
tp235
a(S'p2_du'
I2
tp236
a(S'p2_vo'
I1
tp237
a(S'w'
I1
tp238
a(S'p2_ll'
I0
tp239
a(S'w'
I9
tp240
a(S'tr_lr'
I0
tp241
a(S'w'
I699
tp242
a(S'p1_vo'
I9
tp243
a(S'w'
I11
tp244
a(S'p2_vo'
I9
tp245
a(S'w'
I1
tp246
a(S'w'
I17
tp247
a(S'tr_lr'
I63
tp248
a(S'w'
I1
tp249
a(S'tr_tl'
I238
tp250
a(S'tr_ll'
I0
tp251
a(S'w'
I703
tp252
a(S'p1_vo'
I13
tp253
a(S'w'
I1
tp254
a(S'w'
I11
tp255
a(S'p2_vo'
I13
tp256
a(S'w'
I12
tp257
a(S'tr_lr'
I57
tp258
a(S'w'
I710
tp259
a(S'p1_du'
I1
tp260
a(S'p1_vo'
I15
tp261
a(S'w'
I11
tp262
a(S'p2_du'
I1
tp263
a(S'p2_vo'
I15
tp264
a(S'w'
I12
tp265
a(S'tr_lr'
I55
tp266
a(S'w'
I711
tp267
a(S'w'
I12
tp268
a(S'w'
I12
tp269
a(S'tr_lr'
I52
tp270
a(S'w'
I710
tp271
a(S'w'
I12
tp272
a(S'w'
I12
tp273
a(S'tr_lr'
I51
tp274
a(S'w'
I710
tp275
a(S'p1_du'
I0
tp276
a(S'p1_vo'
I2
tp277
a(S'w'
I12
tp278
a(S'p2_du'
I0
tp279
a(S'p2_vo'
I2
tp280
a(S'w'
I9
tp281
a(S'tr_lr'
I48
tp282
a(S'w'
I713
tp283
a(S'w'
I12
tp284
a(S'w'
I9
tp285
a(S'tr_lr'
I0
tp286
a(S'w'
I713
tp287
a(S'w'
I11
tp288
a(S'w'
I722
tp289
a(S'w'
I12
tp290
a(S'w'
I722
tp291
a(S'w'
I12
tp292
a(S'w'
I722
tp293
a(S'w'
I12
tp294
a(S'w'
I722
tp295
a(S'w'
I12
tp296
a(S'w'
I728
tp297
a(S'p1_du'
I2
tp298
a(S'p1_vo'
I1
tp299
a(S'p1_tl'
I12
tp300
a(S'p1_ll'
I0
tp301
a(S'w'
I18
tp302
a(S'p2_du'
I2
tp303
a(S'p2_vo'
I1
tp304
a(S'w'
I1
tp305
a(S'p2_ll'
I0
tp306
a(S'w'
I708
tp307
a(S'p1_vo'
I9
tp308
a(S'w'
I11
tp309
a(S'p2_vo'
I9
tp310
a(S'w'
I723
tp311
a(S'p1_vo'
I13
tp312
a(S'w'
I12
tp313
a(S'p2_vo'
I13
tp314
a(S'w'
I18
tp315
a(S'tr_lr'
I63
tp316
a(S'tr_ll'
I0
tp317
a(S'w'
I704
tp318
a(S'p1_du'
I1
tp319
a(S'p1_vo'
I15
tp320
a(S'w'
I11
tp321
a(S'p2_du'
I1
tp322
a(S'p2_vo'
I15
tp323
a(S'w'
I1
tp324
a(S'w'
I11
tp325
a(S'tr_lr'
I57
tp326
a(S'w'
I711
tp327
a(S'w'
I11
tp328
a(S'w'
I12
tp329
a(S'tr_lr'
I55
tp330
a(S'w'
I710
tp331
a(S'w'
I12
tp332
a(S'w'
I12
tp333
a(S'tr_lr'
I52
tp334
a(S'w'
I710
tp335
a(S'p1_du'
I0
tp336
a(S'p1_vo'
I2
tp337
a(S'w'
I1
tp338
a(S'w'
I11
tp339
a(S'p2_du'
I0
tp340
a(S'p2_vo'
I2
tp341
a(S'w'
I1
tp342
a(S'w'
I11
tp343
a(S'tr_lr'
I51
tp344
a(S'w'
I710
tp345
a(S'w'
I12
tp346
a(S'w'
I10
tp347
a(S'tr_lr'
I0
tp348
a(S'w'
I712
tp349
a(S'w'
I12
tp350
a(S'w'
I722
tp351
a(S'w'
I12
tp352
a(S'w'
I722
tp353
a(S'w'
I11
tp354
a(S'w'
I722
tp355
a(S'w'
I12
tp356
a(S'w'
I722
tp357
a(S'w'
I11
tp358
a(S'w'
I723
tp359
a(S'w'
I12
tp360
a(S'w'
I728
tp361
a(S'p1_du'
I2
tp362
a(S'p1_vo'
I1
tp363
a(S'p1_tl'
I225
tp364
a(S'w'
I1
tp365
a(S'p1_ll'
I0
tp366
a(S'p1_th'
I0
tp367
a(S'w'
I17
tp368
a(S'p2_du'
I2
tp369
a(S'p2_vo'
I1
tp370
a(S'w'
I1
tp371
a(S'p2_ll'
I0
tp372
a(S'w'
I708
tp373
a(S'p1_vo'
I9
tp374
a(S'w'
I1
tp375
a(S'w'
I11
tp376
a(S'p2_vo'
I9
tp377
a(S'w'
I18
tp378
a(S'tr_lr'
I63
tp379
a(S'w'
I1
tp380
a(S'tr_ll'
I0
tp381
a(S'w'
I703
tp382
a(S'p1_vo'
I13
tp383
a(S'w'
I12
tp384
a(S'p2_vo'
I13
tp385
a(S'w'
I12
tp386
a(S'tr_lr'
I57
tp387
a(S'w'
I710
tp388
a(S'p1_du'
I1
tp389
a(S'p1_vo'
I15
tp390
a(S'w'
I12
tp391
a(S'p2_du'
I1
tp392
a(S'p2_vo'
I15
tp393
a(S'w'
I12
tp394
a(S'tr_lr'
I55
tp395
a(S'w'
I710
tp396
a(S'w'
I12
tp397
a(S'w'
I11
tp398
a(S'tr_lr'
I52
tp399
a(S'w'
I711
tp400
a(S'p1_du'
I0
tp401
a(S'p1_vo'
I2
tp402
a(S'w'
I12
tp403
a(S'p2_du'
I0
tp404
a(S'p2_vo'
I2
tp405
a(S'w'
I12
tp406
a(S'tr_lr'
I51
tp407
a(S'w'
I710
tp408
a(S'w'
I11
tp409
a(S'w'
I10
tp410
a(S'tr_lr'
I0
tp411
a(S'w'
I712
tp412
a(S'w'
I12
tp413
a(S'w'
I722
tp414
a(S'w'
I11
tp415
a(S'w'
I723
tp416
a(S'w'
I12
tp417
a(S'w'
I722
tp418
a(S'w'
I12
tp419
a(S'w'
I722
tp420
a(S'w'
I11
tp421
a(S'w'
I722
tp422
a(S'w'
I12
tp423
a(S'w'
I728
tp424
a(S'p1_du'
I2
tp425
a(S'p1_vo'
I1
tp426
a(S'p1_tl'
I200
tp427
a(S'w'
I1
tp428
a(S'p1_ll'
I0
tp429
a(S'w'
I18
tp430
a(S'p2_du'
I2
tp431
a(S'p2_vo'
I1
tp432
a(S'w'
I1
tp433
a(S'p2_ll'
I0
tp434
a(S'w'
I708
tp435
a(S'p1_vo'
I9
tp436
a(S'w'
I11
tp437
a(S'p2_vo'
I9
tp438
a(S'w'
I1
tp439
a(S'w'
I18
tp440
a(S'tr_lr'
I63
tp441
a(S'tr_tl'
I12
tp442
a(S'tr_ll'
I0
tp443
a(S'tr_th'
I1
tp444
a(S'w'
I704
tp445
a(S'p1_vo'
I13
tp446
a(S'w'
I11
tp447
a(S'p2_vo'
I13
tp448
a(S'w'
I12
tp449
a(S'tr_lr'
I57
tp450
a(S'w'
I710
tp451
a(S'p1_du'
I1
tp452
a(S'p1_vo'
I15
tp453
a(S'w'
I1
tp454
a(S'w'
I11
tp455
a(S'p2_du'
I1
tp456
a(S'p2_vo'
I15
tp457
a(S'w'
I12
tp458
a(S'tr_lr'
I55
tp459
a(S'w'
I710
tp460
a(S'w'
I12
tp461
a(S'w'
I12
tp462
a(S'tr_lr'
I52
tp463
a(S'w'
I710
tp464
a(S'p1_du'
I0
tp465
a(S'p1_vo'
I2
tp466
a(S'w'
I12
tp467
a(S'p2_du'
I0
tp468
a(S'p2_vo'
I2
tp469
a(S'w'
I12
tp470
a(S'tr_lr'
I51
tp471
a(S'w'
I710
tp472
a(S'w'
I11
tp473
a(S'w'
I9
tp474
a(S'tr_lr'
I48
tp475
a(S'w'
I714
tp476
a(S'w'
I12
tp477
a(S'w'
I9
tp478
a(S'tr_lr'
I0
tp479
a(S'w'
I713
tp480
a(S'w'
I11
tp481
a(S'w'
I722
tp482
a(S'w'
I12
tp483
a(S'w'
I722
tp484
a(S'w'
I12
tp485
a(S'w'
I722
tp486
a(S'w'
I12
tp487
a(S'w'
I722
tp488
a(S'w'
I12
tp489
a(S'w'
I728
tp490
a(S'p1_du'
I2
tp491
a(S'p1_vo'
I1
tp492
a(S'p1_tl'
I225
tp493
a(S'p1_ll'
I0
tp494
a(S'w'
I18
tp495
a(S'p2_du'
I2
tp496
a(S'p2_vo'
I1
tp497
a(S'w'
I1
tp498
a(S'p2_ll'
I0
tp499
a(S'w'
I708
tp500
a(S'p1_vo'
I9
tp501
a(S'w'
I12
tp502
a(S'p2_vo'
I9
tp503
a(S'w'
I18
tp504
a(S'tr_lr'
I63
tp505
a(S'w'
I1
tp506
a(S'tr_ll'
I0
tp507
a(S'w'
I703
tp508
a(S'p1_vo'
I13
tp509
a(S'w'
I12
tp510
a(S'p2_vo'
I13
tp511
a(S'w'
I12
tp512
a(S'tr_lr'
I57
tp513
a(S'w'
I710
tp514
a(S'p1_du'
I1
tp515
a(S'p1_vo'
I15
tp516
a(S'w'
I11
tp517
a(S'p2_du'
I1
tp518
a(S'p2_vo'
I15
tp519
a(S'w'
I1
tp520
a(S'w'
I11
tp521
a(S'tr_lr'
I55
tp522
a(S'w'
I710
tp523
a(S'w'
I12
tp524
a(S'w'
I11
tp525
a(S'tr_lr'
I52
tp526
a(S'w'
I712
tp527
a(S'w'
I11
tp528
a(S'w'
I12
tp529
a(S'tr_lr'
I51
tp530
a(S'w'
I710
tp531
a(S'p1_du'
I0
tp532
a(S'p1_vo'
I2
tp533
a(S'w'
I1
tp534
a(S'w'
I11
tp535
a(S'p2_du'
I0
tp536
a(S'p2_vo'
I2
tp537
a(S'w'
I1
tp538
a(S'w'
I9
tp539
a(S'tr_lr'
I48
tp540
a(S'w'
I712
tp541
a(S'w'
I12
tp542
a(S'w'
I10
tp543
a(S'tr_lr'
I0
tp544
a(S'w'
I712
tp545
a(S'w'
I12
tp546
a(S'w'
I722
tp547
a(S'w'
I12
tp548
a(S'w'
I722
tp549
a(S'w'
I11
tp550
a(S'w'
I722
tp551
a(S'w'
I12
tp552
a(S'w'
I722
tp553
a(S'w'
I12
tp554
a(S'w'
I728
tp555
a(S'p1_du'
I2
tp556
a(S'p1_vo'
I1
tp557
a(S'p1_tl'
I12
tp558
a(S'w'
I1
tp559
a(S'p1_ll'
I0
tp560
a(S'p1_th'
I1
tp561
a(S'w'
I18
tp562
a(S'p2_du'
I2
tp563
a(S'p2_vo'
I1
tp564
a(S'p2_ll'
I0
tp565
a(S'w'
I708
tp566
a(S'p1_vo'
I9
tp567
a(S'w'
I11
tp568
a(S'p2_vo'
I9
tp569
a(S'w'
I1
tp570
a(S'w'
I722
tp571
a(S'p1_vo'
I13
tp572
a(S'w'
I1
tp573
a(S'w'
I11
tp574
a(S'p2_vo'
I13
tp575
a(S'w'
I18
tp576
a(S'tr_lr'
I63
tp577
a(S'w'
I1
tp578
a(S'tr_ll'
I0
tp579
a(S'w'
I703
tp580
a(S'p1_du'
I1
tp581
a(S'p1_vo'
I15
tp582
a(S'w'
I12
tp583
a(S'p2_du'
I1
tp584
a(S'p2_vo'
I15
tp585
a(S'w'
I12
tp586
a(S'tr_lr'
I57
tp587
a(S'w'
I710
tp588
a(S'w'
I12
tp589
a(S'w'
I12
tp590
a(S'tr_lr'
I55
tp591
a(S'w'
I710
tp592
a(S'w'
I12
tp593
a(S'w'
I11
tp594
a(S'tr_lr'
I52
tp595
a(S'w'
I711
tp596
a(S'p1_du'
I0
tp597
a(S'p1_vo'
I2
tp598
a(S'w'
I12
tp599
a(S'p2_du'
I0
tp600
a(S'p2_vo'
I2
tp601
a(S'w'
I12
tp602
a(S'tr_lr'
I51
tp603
a(S'w'
I710
tp604
a(S'w'
I11
tp605
a(S'w'
I10
tp606
a(S'tr_lr'
I0
tp607
a(S'w'
I712
tp608
a(S'w'
I12
tp609
a(S'w'
I722
tp610
a(S'w'
I12
tp611
a(S'w'
I722
tp612
a(S'w'
I12
tp613
a(S'w'
I722
tp614
a(S'w'
I12
tp615
a(S'w'
I721
tp616
a(S'w'
I12
tp617
a(S'w'
I723
tp618
a(S'w'
I11
tp619
a(S'w'
I728
tp620
a(S'p1_du'
I2
tp621
a(S'p1_vo'
I1
tp622
a(S'w'
I1
tp623
a(S'p1_tl'
I45
tp624
a(S'p1_ll'
I0
tp625
a(S'w'
I18
tp626
a(S'p2_du'
I2
tp627
a(S'p2_vo'
I1
tp628
a(S'w'
I1
tp629
a(S'p2_ll'
I0
tp630
a(S'w'
I708
tp631
a(S'p1_vo'
I9
tp632
a(S'w'
I11
tp633
a(S'p2_vo'
I9
tp634
a(S'w'
I1
tp635
a(S'w'
I18
tp636
a(S'tr_lr'
I63
tp637
a(S'tr_tl'
I45
tp638
a(S'tr_ll'
I0
tp639
a(S'w'
I704
tp640
a(S'p1_vo'
I13
tp641
a(S'w'
I11
tp642
a(S'p2_vo'
I13
tp643
a(S'w'
I12
tp644
a(S'tr_lr'
I57
tp645
a(S'w'
I710
tp646
a(S'p1_du'
I1
tp647
a(S'p1_vo'
I15
tp648
a(S'w'
I1
tp649
a(S'w'
I11
tp650
a(S'p2_du'
I1
tp651
a(S'p2_vo'
I15
tp652
a(S'w'
I12
tp653
a(S'tr_lr'
I55
tp654
a(S'w'
I710
tp655
a(S'w'
I12
tp656
a(S'w'
I12
tp657
a(S'tr_lr'
I52
tp658
a(S'w'
I710
tp659
a(S'p1_du'
I0
tp660
a(S'p1_vo'
I2
tp661
a(S'w'
I12
tp662
a(S'p2_du'
I0
tp663
a(S'p2_vo'
I2
tp664
a(S'w'
I12
tp665
a(S'tr_lr'
I51
tp666
a(S'w'
I710
tp667
a(S'w'
I12
tp668
a(S'w'
I9
tp669
a(S'tr_lr'
I0
tp670
a(S'w'
I713
tp671
a(S'w'
I12
tp672
a(S'w'
I722
tp673
a(S'w'
I11
tp674
a(S'w'
I722
tp675
a(S'w'
I12
tp676
a(S'w'
I722
tp677
a(S'w'
I12
tp678
a(S'w'
I722
tp679
a(S'w'
I12
tp680
a(S'w'
I722
tp681
a(S'w'
I12
tp682
a(S'w'
I728
tp683
a(S'p1_du'
I2
tp684
a(S'p1_vo'
I1
tp685
a(S'p1_tl'
I12
tp686
a(S'p1_ll'
I0
tp687
a(S'w'
I18
tp688
a(S'p2_du'
I2
tp689
a(S'p2_vo'
I1
tp690
a(S'w'
I1
tp691
a(S'p2_ll'
I0
tp692
a(S'w'
I708
tp693
a(S'p1_vo'
I9
tp694
a(S'w'
I12
tp695
a(S'p2_vo'
I9
tp696
a(S'w'
I18
tp697
a(S'tr_lr'
I63
tp698
a(S'w'
I1
tp699
a(S'tr_ll'
I0
tp700
a(S'w'
I703
tp701
a(S'p1_vo'
I13
tp702
a(S'w'
I12
tp703
a(S'p2_vo'
I13
tp704
a(S'w'
I12
tp705
a(S'tr_lr'
I57
tp706
a(S'w'
I710
tp707
a(S'p1_du'
I1
tp708
a(S'p1_vo'
I15
tp709
a(S'w'
I12
tp710
a(S'p2_du'
I1
tp711
a(S'p2_vo'
I15
tp712
a(S'w'
I12
tp713
a(S'tr_lr'
I55
tp714
a(S'w'
I710
tp715
a(S'w'
I12
tp716
a(S'w'
I11
tp717
a(S'tr_lr'
I52
tp718
a(S'w'
I711
tp719
a(S'p1_du'
I0
tp720
a(S'p1_vo'
I2
tp721
a(S'w'
I12
tp722
a(S'p2_du'
I0
tp723
a(S'p2_vo'
I2
tp724
a(S'w'
I12
tp725
a(S'tr_lr'
I51
tp726
a(S'w'
I709
tp727
a(S'w'
I12
tp728
a(S'w'
I8
tp729
a(S'tr_lr'
I48
tp730
a(S'w'
I714
tp731
a(S'w'
I12
tp732
a(S'w'
I10
tp733
a(S'tr_lr'
I0
tp734
a(S'w'
I712
tp735
a(S'w'
I12
tp736
a(S'w'
I722
tp737
a(S'w'
I12
tp738
a(S'w'
I722
tp739
a(S'w'
I12
tp740
a(S'w'
I722
tp741
a(S'w'
I11
tp742
a(S'w'
I722
tp743
a(S'w'
I12
tp744
a(S'w'
I728
tp745
a(S'p1_du'
I2
tp746
a(S'p1_vo'
I1
tp747
a(S'p1_tl'
I225
tp748
a(S'w'
I1
tp749
a(S'p1_ll'
I0
tp750
a(S'p1_th'
I0
tp751
a(S'w'
I18
tp752
a(S'p2_du'
I2
tp753
a(S'p2_vo'
I1
tp754
a(S'p2_ll'
I0
tp755
a(S'w'
I709
tp756
a(S'p1_vo'
I9
tp757
a(S'w'
I11
tp758
a(S'p2_vo'
I9
tp759
a(S'w'
I1
tp760
a(S'w'
I17
tp761
a(S'tr_lr'
I63
tp762
a(S'w'
I1
tp763
a(S'tr_ll'
I0
tp764
a(S'w'
I703
tp765
a(S'p1_vo'
I13
tp766
a(S'w'
I1
tp767
a(S'w'
I11
tp768
a(S'p2_vo'
I13
tp769
a(S'w'
I12
tp770
a(S'tr_lr'
I57
tp771
a(S'w'
I710
tp772
a(S'p1_du'
I1
tp773
a(S'p1_vo'
I15
tp774
a(S'w'
I12
tp775
a(S'p2_du'
I1
tp776
a(S'p2_vo'
I15
tp777
a(S'w'
I12
tp778
a(S'tr_lr'
I55
tp779
a(S'w'
I710
tp780
a(S'w'
I11
tp781
a(S'w'
I11
tp782
a(S'tr_lr'
I52
tp783
a(S'w'
I712
tp784
a(S'w'
I12
tp785
a(S'w'
I12
tp786
a(S'tr_lr'
I51
tp787
a(S'w'
I710
tp788
a(S'p1_du'
I0
tp789
a(S'p1_vo'
I2
tp790
a(S'w'
I12
tp791
a(S'p2_du'
I0
tp792
a(S'p2_vo'
I2
tp793
a(S'w'
I9
tp794
a(S'tr_lr'
I48
tp795
a(S'w'
I713
tp796
a(S'w'
I12
tp797
a(S'w'
I9
tp798
a(S'tr_lr'
I0
tp799
a(S'w'
I713
tp800
a(S'w'
I11
tp801
a(S'w'
I722
tp802
a(S'w'
I12
tp803
a(S'w'
I722
tp804
a(S'w'
I12
tp805
a(S'w'
I722
tp806
a(S'w'
I12
tp807
a(S'w'
I722
tp808
a(S'w'
I12
tp809
a(S'w'
I728
tp810
a(S'p1_du'
I2
tp811
a(S'p1_vo'
I1
tp812
a(S'p1_tl'
I200
tp813
a(S'w'
I1
tp814
a(S'p1_ll'
I0
tp815
a(S'w'
I18
tp816
a(S'p2_du'
I2
tp817
a(S'p2_vo'
I1
tp818
a(S'p2_tl'
I12
tp819
a(S'p2_ll'
I0
tp820
a(S'w'
I708
tp821
a(S'p1_vo'
I9
tp822
a(S'w'
I12
tp823
a(S'p2_vo'
I9
tp824
a(S'w'
I18
tp825
a(S'tr_lr'
I63
tp826
a(S'tr_tl'
I82
tp827
a(S'w'
I1
tp828
a(S'tr_ll'
I0
tp829
a(S'w'
I702
tp830
a(S'p1_vo'
I13
tp831
a(S'w'
I1
tp832
a(S'w'
I11
tp833
a(S'p2_vo'
I13
tp834
a(S'w'
I11
tp835
a(S'tr_lr'
I57
tp836
a(S'w'
I712
tp837
a(S'p1_du'
I1
tp838
a(S'p1_vo'
I15
tp839
a(S'w'
I11
tp840
a(S'p2_du'
I1
tp841
a(S'p2_vo'
I15
tp842
a(S'w'
I1
tp843
a(S'w'
I11
tp844
a(S'tr_lr'
I55
tp845
a(S'w'
I711
tp846
a(S'w'
I11
tp847
a(S'w'
I12
tp848
a(S'tr_lr'
I52
tp849
a(S'w'
I710
tp850
a(S'w'
I12
tp851
a(S'w'
I12
tp852
a(S'tr_lr'
I51
tp853
a(S'w'
I710
tp854
a(S'p1_vo'
I14
tp855
a(S'w'
I12
tp856
a(S'p2_vo'
I14
tp857
a(S'w'
I9
tp858
a(S'tr_lr'
I48
tp859
a(S'w'
I713
tp860
a(S'p1_vo'
I13
tp861
a(S'w'
I12
tp862
a(S'p2_vo'
I13
tp863
a(S'w'
I722
tp864
a(S'p1_du'
I0
tp865
a(S'p1_vo'
I2
tp866
a(S'w'
I12
tp867
a(S'p2_du'
I0
tp868
a(S'p2_vo'
I2
tp869
a(S'w'
I722
tp870
a(S'w'
I12
tp871
a(S'w'
I9
tp872
a(S'tr_lr'
I0
tp873
a(S'w'
I713
tp874
a(S'w'
I11
tp875
a(S'w'
I722
tp876
a(S'w'
I12
tp877
a(S'w'
I722
tp878
a(S'w'
I11
tp879
a(S'w'
I723
tp880
a(S'w'
I12
tp881
a(S'w'
I722
tp882
a(S'w'
I12
tp883
a(S'w'
I722
tp884
a(S'w'
I11
tp885
a(S'w'
I722
tp886
a(S'w'
I12
tp887
a(S'w'
I722
tp888
a(S'w'
I12
tp889
a(S'w'
I722
tp890
a(S'w'
I12
tp891
a(S'w'
I722
tp892
a(S'w'
I12
tp893
a(S'w'
I728
tp894
a(S'p1_du'
I2
tp895
a(S'p1_vo'
I1
tp896
a(S'w'
I1
tp897
a(S'p1_ll'
I0
tp898
a(S'w'
I18
tp899
a(S'p2_du'
I2
tp900
a(S'p2_vo'
I1
tp901
a(S'p2_ll'
I0
tp902
a(S'w'
I708
tp903
a(S'p1_vo'
I9
tp904
a(S'w'
I12
tp905
a(S'p2_vo'
I9
tp906
a(S'w'
I18
tp907
a(S'tr_lr'
I63
tp908
a(S'w'
I1
tp909
a(S'tr_ll'
I0
tp910
a(S'w'
I703
tp911
a(S'p1_vo'
I13
tp912
a(S'w'
I12
tp913
a(S'p2_vo'
I13
tp914
a(S'w'
I12
tp915
a(S'tr_lr'
I57
tp916
a(S'w'
I709
tp917
a(S'p1_du'
I1
tp918
a(S'p1_vo'
I15
tp919
a(S'w'
I11
tp920
a(S'p2_du'
I1
tp921
a(S'p2_vo'
I15
tp922
a(S'w'
I1
tp923
a(S'w'
I11
tp924
a(S'tr_lr'
I55
tp925
a(S'w'
I712
tp926
a(S'p1_du'
I0
tp927
a(S'p1_vo'
I2
tp928
a(S'w'
I12
tp929
a(S'p2_du'
I0
tp930
a(S'p2_vo'
I2
tp931
a(S'w'
I12
tp932
a(S'tr_lr'
I52
tp933
a(S'w'
I710
tp934
a(S'w'
I11
tp935
a(S'w'
I12
tp936
a(S'tr_lr'
I0
tp937
a(S'w'
I710
tp938
a(S'w'
I12
tp939
a(S'w'
I729
tp940
a(S'p1_du'
I2
tp941
a(S'p1_vo'
I1
tp942
a(S'p1_ll'
I0
tp943
a(S'w'
I18
tp944
a(S'p2_du'
I2
tp945
a(S'p2_vo'
I1
tp946
a(S'w'
I1
tp947
a(S'p2_ll'
I0
tp948
a(S'w'
I708
tp949
a(S'p1_vo'
I9
tp950
a(S'w'
I11
tp951
a(S'p2_vo'
I9
tp952
a(S'w'
I1
tp953
a(S'w'
I17
tp954
a(S'tr_lr'
I63
tp955
a(S'w'
I1
tp956
a(S'tr_ll'
I0
tp957
a(S'w'
I703
tp958
a(S'p1_vo'
I13
tp959
a(S'w'
I1
tp960
a(S'w'
I11
tp961
a(S'p2_vo'
I13
tp962
a(S'w'
I12
tp963
a(S'tr_lr'
I57
tp964
a(S'w'
I710
tp965
a(S'p1_du'
I1
tp966
a(S'p1_vo'
I15
tp967
a(S'w'
I12
tp968
a(S'p2_du'
I1
tp969
a(S'p2_vo'
I15
tp970
a(S'w'
I12
tp971
a(S'tr_lr'
I55
tp972
a(S'w'
I710
tp973
a(S'w'
I12
tp974
a(S'w'
I12
tp975
a(S'tr_lr'
I52
tp976
a(S'w'
I710
tp977
a(S'w'
I12
tp978
a(S'w'
I12
tp979
a(S'tr_lr'
I51
tp980
a(S'w'
I710
tp981
a(S'p1_vo'
I14
tp982
a(S'w'
I11
tp983
a(S'p2_vo'
I14
tp984
a(S'w'
I1
tp985
a(S'w'
I9
tp986
a(S'tr_lr'
I48
tp987
a(S'w'
I712
tp988
a(S'p1_vo'
I13
tp989
a(S'w'
I11
tp990
a(S'p2_vo'
I13
tp991
a(S'w'
I723
tp992
a(S'p1_vo'
I12
tp993
a(S'w'
I12
tp994
a(S'p2_vo'
I12
tp995
a(S'w'
I722
tp996
a(S'p1_vo'
I11
tp997
a(S'w'
I12
tp998
a(S'p2_vo'
I11
tp999
a(S'w'
I722
tp1000
a(S'p1_vo'
I10
tp1001
a(S'w'
I12
tp1002
a(S'p2_vo'
I10
tp1003
a(S'w'
I722
tp1004
a(S'p1_vo'
I9
tp1005
a(S'w'
I11
tp1006
a(S'p2_vo'
I9
tp1007
a(S'w'
I1
tp1008
a(S'w'
I722
tp1009
a(S'p1_du'
I0
tp1010
a(S'p1_vo'
I2
tp1011
a(S'w'
I12
tp1012
a(S'p2_du'
I0
tp1013
a(S'p2_vo'
I2
tp1014
a(S'w'
I728
tp1015
a(S'p1_du'
I2
tp1016
a(S'p1_vo'
I1
tp1017
a(S'w'
I1
tp1018
a(S'p1_ll'
I0
tp1019
a(S'w'
I18
tp1020
a(S'p2_du'
I2
tp1021
a(S'p2_vo'
I1
tp1022
a(S'p2_tl'
I45
tp1023
a(S'p2_ll'
I0
tp1024
a(S'w'
I9
tp1025
a(S'tr_lr'
I0
tp1026
a(S'w'
I699
tp1027
a(S'p1_vo'
I9
tp1028
a(S'w'
I12
tp1029
a(S'p2_vo'
I9
tp1030
a(S'w'
I18
tp1031
a(S'tr_lr'
I63
tp1032
a(S'tr_tl'
I103
tp1033
a(S'w'
I1
tp1034
a(S'tr_ll'
I0
tp1035
a(S'w'
I703
tp1036
a(S'p1_vo'
I13
tp1037
a(S'w'
I12
tp1038
a(S'p2_vo'
I13
tp1039
a(S'w'
I12
tp1040
a(S'tr_lr'
I57
tp1041
a(S'w'
I710
tp1042
a(S'p1_du'
I1
tp1043
a(S'p1_vo'
I15
tp1044
a(S'w'
I11
tp1045
a(S'p2_du'
I1
tp1046
a(S'p2_vo'
I15
tp1047
a(S'w'
I1
tp1048
a(S'w'
I11
tp1049
a(S'tr_lr'
I55
tp1050
a(S'w'
I710
tp1051
a(S'w'
I11
tp1052
a(S'w'
I12
tp1053
a(S'tr_lr'
I52
tp1054
a(S'w'
I712
tp1055
a(S'w'
I11
tp1056
a(S'w'
I12
tp1057
a(S'tr_lr'
I51
tp1058
a(S'w'
I710
tp1059
a(S'p1_du'
I0
tp1060
a(S'p1_vo'
I2
tp1061
a(S'w'
I1
tp1062
a(S'w'
I11
tp1063
a(S'p2_du'
I0
tp1064
a(S'p2_vo'
I2
tp1065
a(S'w'
I10
tp1066
a(S'tr_lr'
I48
tp1067
a(S'w'
I712
tp1068
a(S'w'
I12
tp1069
a(S'w'
I10
tp1070
a(S'tr_lr'
I0
tp1071
a(S'w'
I712
tp1072
a(S'w'
I12
tp1073
a(S'w'
I722
tp1074
a(S'w'
I12
tp1075
a(S'w'
I722
tp1076
a(S'w'
I11
tp1077
a(S'w'
I722
tp1078
a(S'w'
I12
tp1079
a(S'w'
I722
tp1080
a(S'w'
I12
tp1081
a(S'w'
I728
tp1082
a(S'p1_du'
I2
tp1083
a(S'p1_vo'
I1
tp1084
a(S'p1_tl'
I178
tp1085
a(S'w'
I1
tp1086
a(S'p1_ll'
I0
tp1087
a(S'w'
I18
tp1088
a(S'p2_du'
I2
tp1089
a(S'p2_vo'
I1
tp1090
a(S'p2_ll'
I0
tp1091
a(S'w'
I708
tp1092
a(S'p1_vo'
I9
tp1093
a(S'w'
I1
tp1094
a(S'w'
I11
tp1095
a(S'p2_vo'
I9
tp1096
a(S'w'
I18
tp1097
a(S'tr_lr'
I63
tp1098
a(S'w'
I1
tp1099
a(S'tr_ll'
I0
tp1100
a(S'w'
I703
tp1101
a(S'p1_vo'
I13
tp1102
a(S'w'
I11
tp1103
a(S'p2_vo'
I13
tp1104
a(S'w'
I12
tp1105
a(S'tr_lr'
I57
tp1106
a(S'w'
I711
tp1107
a(S'p1_du'
I1
tp1108
a(S'p1_vo'
I15
tp1109
a(S'w'
I12
tp1110
a(S'p2_du'
I1
tp1111
a(S'p2_vo'
I15
tp1112
a(S'w'
I12
tp1113
a(S'tr_lr'
I55
tp1114
a(S'w'
I710
tp1115
a(S'w'
I12
tp1116
a(S'w'
I12
tp1117
a(S'tr_lr'
I52
tp1118
a(S'w'
I710
tp1119
a(S'w'
I12
tp1120
a(S'w'
I11
tp1121
a(S'tr_lr'
I51
tp1122
a(S'w'
I711
tp1123
a(S'p1_du'
I0
tp1124
a(S'p1_vo'
I2
tp1125
a(S'w'
I12
tp1126
a(S'p2_du'
I0
tp1127
a(S'p2_vo'
I2
tp1128
a(S'w'
I9
tp1129
a(S'tr_lr'
I48
tp1130
a(S'w'
I713
tp1131
a(S'w'
I11
tp1132
a(S'w'
I10
tp1133
a(S'tr_lr'
I0
tp1134
a(S'w'
I712
tp1135
a(S'w'
I12
tp1136
a(S'w'
I722
tp1137
a(S'w'
I12
tp1138
a(S'w'
I722
tp1139
a(S'w'
I12
tp1140
a(S'w'
I722
tp1141
a(S'w'
I12
tp1142
a(S'w'
I722
tp1143
a(S'w'
I11
tp1144
a(S'w'
I722
tp1145
a(S'w'
I12
tp1146
a(S'w'
I728
tp1147
a(S'p1_du'
I2
tp1148
a(S'p1_vo'
I1
tp1149
a(S'p1_tl'
I150
tp1150
a(S'w'
I1
tp1151
a(S'p1_ll'
I0
tp1152
a(S'w'
I18
tp1153
a(S'p2_du'
I2
tp1154
a(S'p2_vo'
I1
tp1155
a(S'w'
I1
tp1156
a(S'p2_ll'
I0
tp1157
a(S'w'
I708
tp1158
a(S'p1_vo'
I9
tp1159
a(S'w'
I11
tp1160
a(S'p2_vo'
I9
tp1161
a(S'w'
I1
tp1162
a(S'w'
I18
tp1163
a(S'tr_lr'
I63
tp1164
a(S'tr_ll'
I0
tp1165
a(S'w'
I704
tp1166
a(S'p1_vo'
I13
tp1167
a(S'w'
I11
tp1168
a(S'p2_vo'
I13
tp1169
a(S'w'
I12
tp1170
a(S'tr_lr'
I57
tp1171
a(S'w'
I710
tp1172
a(S'p1_du'
I1
tp1173
a(S'p1_vo'
I15
tp1174
a(S'w'
I12
tp1175
a(S'p2_du'
I1
tp1176
a(S'p2_vo'
I15
tp1177
a(S'w'
I12
tp1178
a(S'tr_lr'
I55
tp1179
a(S'w'
I710
tp1180
a(S'w'
I12
tp1181
a(S'w'
I12
tp1182
a(S'tr_lr'
I52
tp1183
a(S'w'
I710
tp1184
a(S'p1_du'
I0
tp1185
a(S'p1_vo'
I2
tp1186
a(S'w'
I12
tp1187
a(S'p2_du'
I0
tp1188
a(S'p2_vo'
I2
tp1189
a(S'w'
I12
tp1190
a(S'tr_lr'
I51
tp1191
a(S'w'
I710
tp1192
a(S'w'
I12
tp1193
a(S'w'
I9
tp1194
a(S'tr_lr'
I0
tp1195
a(S'w'
I713
tp1196
a(S'w'
I12
tp1197
a(S'w'
I722
tp1198
a(S'w'
I11
tp1199
a(S'w'
I722
tp1200
a(S'w'
I12
tp1201
a(S'w'
I722
tp1202
a(S'w'
I12
tp1203
a(S'w'
I722
tp1204
a(S'w'
I12
tp1205
a(S'w'
I722
tp1206
a(S'w'
I12
tp1207
a(S'w'
I728
tp1208
a(S'p1_du'
I2
tp1209
a(S'p1_vo'
I1
tp1210
a(S'p1_tl'
I133
tp1211
a(S'p1_ll'
I0
tp1212
a(S'w'
I18
tp1213
a(S'p2_du'
I2
tp1214
a(S'p2_vo'
I1
tp1215
a(S'w'
I1
tp1216
a(S'p2_tl'
I225
tp1217
a(S'p2_ll'
I0
tp1218
a(S'p2_th'
I0
tp1219
a(S'w'
I708
tp1220
a(S'p1_vo'
I9
tp1221
a(S'w'
I12
tp1222
a(S'p2_vo'
I9
tp1223
a(S'w'
I18
tp1224
a(S'tr_lr'
I63
tp1225
a(S'tr_tl'
I147
tp1226
a(S'w'
I1
tp1227
a(S'tr_ll'
I0
tp1228
a(S'w'
I703
tp1229
a(S'p1_vo'
I13
tp1230
a(S'w'
I12
tp1231
a(S'p2_vo'
I13
tp1232
a(S'w'
I12
tp1233
a(S'tr_lr'
I57
tp1234
a(S'w'
I710
tp1235
a(S'p1_du'
I1
tp1236
a(S'p1_vo'
I15
tp1237
a(S'w'
I11
tp1238
a(S'p2_du'
I1
tp1239
a(S'p2_vo'
I15
tp1240
a(S'w'
I1
tp1241
a(S'w'
I11
tp1242
a(S'tr_lr'
I55
tp1243
a(S'w'
I711
tp1244
a(S'w'
I11
tp1245
a(S'w'
I12
tp1246
a(S'tr_lr'
I52
tp1247
a(S'w'
I711
tp1248
a(S'p1_du'
I0
tp1249
a(S'p1_vo'
I2
tp1250
a(S'w'
I12
tp1251
a(S'p2_du'
I0
tp1252
a(S'p2_vo'
I2
tp1253
a(S'w'
I12
tp1254
a(S'tr_lr'
I51
tp1255
a(S'w'
I709
tp1256
a(S'w'
I12
tp1257
a(S'w'
I10
tp1258
a(S'tr_lr'
I0
tp1259
a(S'w'
I712
tp1260
a(S'w'
I11
tp1261
a(S'w'
I723
tp1262
a(S'w'
I12
tp1263
a(S'w'
I722
tp1264
a(S'w'
I12
tp1265
a(S'w'
I722
tp1266
a(S'w'
I11
tp1267
a(S'w'
I722
tp1268
a(S'w'
I12
tp1269
a(S'w'
I722
tp1270
a(S'w'
I12
tp1271
a(S'w'
I728
tp1272
a(S'p1_du'
I2
tp1273
a(S'p1_vo'
I1
tp1274
a(S'p1_tl'
I150
tp1275
a(S'w'
I1
tp1276
a(S'p1_ll'
I0
tp1277
a(S'w'
I18
tp1278
a(S'p2_du'
I2
tp1279
a(S'p2_vo'
I1
tp1280
a(S'p2_ll'
I0
tp1281
a(S'w'
I709
tp1282
a(S'p1_vo'
I9
tp1283
a(S'w'
I11
tp1284
a(S'p2_vo'
I9
tp1285
a(S'w'
I18
tp1286
a(S'tr_lr'
I63
tp1287
a(S'w'
I1
tp1288
a(S'tr_ll'
I0
tp1289
a(S'w'
I703
tp1290
a(S'p1_vo'
I13
tp1291
a(S'w'
I1
tp1292
a(S'w'
I11
tp1293
a(S'p2_vo'
I13
tp1294
a(S'w'
I12
tp1295
a(S'tr_lr'
I57
tp1296
a(S'w'
I710
tp1297
a(S'p1_du'
I1
tp1298
a(S'p1_vo'
I15
tp1299
a(S'w'
I12
tp1300
a(S'p2_du'
I1
tp1301
a(S'p2_vo'
I15
tp1302
a(S'w'
I12
tp1303
a(S'tr_lr'
I55
tp1304
a(S'w'
I710
tp1305
a(S'w'
I12
tp1306
a(S'w'
I12
tp1307
a(S'tr_lr'
I52
tp1308
a(S'w'
I709
tp1309
a(S'w'
I12
tp1310
a(S'w'
I11
tp1311
a(S'tr_lr'
I51
tp1312
a(S'w'
I712
tp1313
a(S'p1_du'
I0
tp1314
a(S'p1_vo'
I2
tp1315
a(S'w'
I12
tp1316
a(S'p2_du'
I0
tp1317
a(S'p2_vo'
I2
tp1318
a(S'w'
I9
tp1319
a(S'tr_lr'
I48
tp1320
a(S'w'
I713
tp1321
a(S'w'
I11
tp1322
a(S'w'
I10
tp1323
a(S'tr_lr'
I0
tp1324
a(S'w'
I712
tp1325
a(S'w'
I12
tp1326
a(S'w'
I722
tp1327
a(S'w'
I12
tp1328
a(S'w'
I722
tp1329
a(S'w'
I12
tp1330
a(S'w'
I722
tp1331
a(S'w'
I12
tp1332
a(S'w'
I722
tp1333
a(S'w'
I12
tp1334
a(S'w'
I728
tp1335
a(S'p1_du'
I2
tp1336
a(S'p1_vo'
I1
tp1337
a(S'p1_tl'
I133
tp1338
a(S'p1_ll'
I0
tp1339
a(S'w'
I18
tp1340
a(S'p2_du'
I2
tp1341
a(S'p2_vo'
I1
tp1342
a(S'w'
I1
tp1343
a(S'p2_ll'
I0
tp1344
a(S'w'
I708
tp1345
a(S'p1_vo'
I9
tp1346
a(S'w'
I12
tp1347
a(S'p2_vo'
I9
tp1348
a(S'w'
I18
tp1349
a(S'tr_lr'
I63
tp1350
a(S'tr_ll'
I0
tp1351
a(S'w'
I703
tp1352
a(S'p1_vo'
I13
tp1353
a(S'w'
I1
tp1354
a(S'w'
I11
tp1355
a(S'p2_vo'
I13
tp1356
a(S'w'
I11
tp1357
a(S'tr_lr'
I57
tp1358
a(S'w'
I712
tp1359
a(S'p1_du'
I1
tp1360
a(S'p1_vo'
I15
tp1361
a(S'w'
I11
tp1362
a(S'p2_du'
I1
tp1363
a(S'p2_vo'
I15
tp1364
a(S'w'
I1
tp1365
a(S'w'
I11
tp1366
a(S'tr_lr'
I55
tp1367
a(S'w'
I711
tp1368
a(S'w'
I11
tp1369
a(S'w'
I12
tp1370
a(S'tr_lr'
I52
tp1371
a(S'w'
I710
tp1372
a(S'w'
I12
tp1373
a(S'w'
I12
tp1374
a(S'tr_lr'
I51
tp1375
a(S'w'
I710
tp1376
a(S'p1_du'
I0
tp1377
a(S'p1_vo'
I2
tp1378
a(S'w'
I12
tp1379
a(S'p2_du'
I0
tp1380
a(S'p2_vo'
I2
tp1381
a(S'w'
I10
tp1382
a(S'tr_lr'
I48
tp1383
a(S'w'
I712
tp1384
a(S'w'
I12
tp1385
a(S'w'
I9
tp1386
a(S'tr_lr'
I0
tp1387
a(S'w'
I713
tp1388
a(S'w'
I12
tp1389
a(S'w'
I722
tp1390
a(S'w'
I11
tp1391
a(S'w'
I722
tp1392
a(S'w'
I12
tp1393
a(S'w'
I722
tp1394
a(S'w'
I12
tp1395
a(S'w'
I722
tp1396
a(S'w'
I12
tp1397
a(S'w'
I722
tp1398
a(S'w'
I11
tp1399
a(S'w'
I729
tp1400
a(S'p1_du'
I2
tp1401
a(S'p1_vo'
I1
tp1402
a(S'p1_tl'
I112
tp1403
a(S'w'
I1
tp1404
a(S'p1_ll'
I0
tp1405
a(S'w'
I17
tp1406
a(S'p2_du'
I2
tp1407
a(S'p2_vo'
I1
tp1408
a(S'w'
I1
tp1409
a(S'p2_tl'
I168
tp1410
a(S'p2_ll'
I0
tp1411
a(S'w'
I708
tp1412
a(S'p1_vo'
I9
tp1413
a(S'w'
I12
tp1414
a(S'p2_vo'
I9
tp1415
a(S'w'
I18
tp1416
a(S'tr_lr'
I63
tp1417
a(S'w'
I1
tp1418
a(S'tr_ll'
I0
tp1419
a(S'w'
I703
tp1420
a(S'p1_vo'
I13
tp1421
a(S'w'
I12
tp1422
a(S'p2_vo'
I13
tp1423
a(S'w'
I12
tp1424
a(S'tr_lr'
I57
tp1425
a(S'w'
I710
tp1426
a(S'p1_du'
I1
tp1427
a(S'p1_vo'
I15
tp1428
a(S'w'
I12
tp1429
a(S'p2_du'
I1
tp1430
a(S'p2_vo'
I15
tp1431
a(S'w'
I12
tp1432
a(S'tr_lr'
I55
tp1433
a(S'w'
I710
tp1434
a(S'w'
I12
tp1435
a(S'w'
I11
tp1436
a(S'tr_lr'
I52
tp1437
a(S'w'
I711
tp1438
a(S'p1_du'
I0
tp1439
a(S'p1_vo'
I2
tp1440
a(S'w'
I12
tp1441
a(S'p2_du'
I0
tp1442
a(S'p2_vo'
I2
tp1443
a(S'w'
I12
tp1444
a(S'tr_lr'
I51
tp1445
a(S'w'
I709
tp1446
a(S'w'
I12
tp1447
a(S'w'
I10
tp1448
a(S'tr_lr'
I0
tp1449
a(S'w'
I712
tp1450
a(S'w'
I12
tp1451
a(S'w'
I722
tp1452
a(S'w'
I12
tp1453
a(S'w'
I722
tp1454
a(S'w'
I12
tp1455
a(S'w'
I721
tp1456
a(S'w'
I12
tp1457
a(S'w'
I723
tp1458
a(S'w'
I11
tp1459
a(S'w'
I722
tp1460
a(S'w'
I12
tp1461
a(S'w'
I728
tp1462
a(S'p1_du'
I2
tp1463
a(S'p1_vo'
I1
tp1464
a(S'p1_tl'
I133
tp1465
a(S'w'
I1
tp1466
a(S'p1_ll'
I0
tp1467
a(S'w'
I18
tp1468
a(S'p2_du'
I2
tp1469
a(S'p2_vo'
I1
tp1470
a(S'w'
I1
tp1471
a(S'p2_ll'
I0
tp1472
a(S'w'
I708
tp1473
a(S'p1_vo'
I9
tp1474
a(S'w'
I11
tp1475
a(S'p2_vo'
I9
tp1476
a(S'w'
I1
tp1477
a(S'w'
I17
tp1478
a(S'tr_lr'
I63
tp1479
a(S'w'
I1
tp1480
a(S'tr_ll'
I0
tp1481
a(S'w'
I703
tp1482
a(S'p1_vo'
I13
tp1483
a(S'w'
I1
tp1484
a(S'w'
I11
tp1485
a(S'p2_vo'
I13
tp1486
a(S'w'
I12
tp1487
a(S'tr_lr'
I57
tp1488
a(S'w'
I710
tp1489
a(S'p1_du'
I1
tp1490
a(S'p1_vo'
I15
tp1491
a(S'w'
I12
tp1492
a(S'p2_du'
I1
tp1493
a(S'p2_vo'
I15
tp1494
a(S'w'
I12
tp1495
a(S'tr_lr'
I55
tp1496
a(S'w'
I710
tp1497
a(S'w'
I12
tp1498
a(S'w'
I12
tp1499
a(S'tr_lr'
I52
tp1500
a(S'w'
I710
tp1501
a(S'p1_du'
I0
tp1502
a(S'p1_vo'
I2
tp1503
a(S'w'
I12
tp1504
a(S'p2_du'
I0
tp1505
a(S'p2_vo'
I2
tp1506
a(S'w'
I12
tp1507
a(S'tr_lr'
I51
tp1508
a(S'w'
I710
tp1509
a(S'w'
I12
tp1510
a(S'w'
I9
tp1511
a(S'tr_lr'
I0
tp1512
a(S'w'
I712
tp1513
a(S'w'
I12
tp1514
a(S'w'
I723
tp1515
a(S'w'
I11
tp1516
a(S'w'
I722
tp1517
a(S'w'
I12
tp1518
a(S'w'
I722
tp1519
a(S'w'
I12
tp1520
a(S'w'
I722
tp1521
a(S'w'
I12
tp1522
a(S'w'
I722
tp1523
a(S'w'
I12
tp1524
a(S'w'
I728
tp1525
a(S'p1_du'
I2
tp1526
a(S'p1_vo'
I1
tp1527
a(S'p1_tl'
I112
tp1528
a(S'p1_ll'
I0
tp1529
a(S'w'
I18
tp1530
a(S'p2_du'
I2
tp1531
a(S'p2_vo'
I1
tp1532
a(S'w'
I1
tp1533
a(S'p2_ll'
I0
tp1534
a(S'w'
I708
tp1535
a(S'p1_vo'
I9
tp1536
a(S'w'
I12
tp1537
a(S'p2_vo'
I9
tp1538
a(S'w'
I18
tp1539
a(S'tr_lr'
I63
tp1540
a(S'w'
I1
tp1541
a(S'tr_ll'
I0
tp1542
a(S'w'
I703
tp1543
a(S'p1_vo'
I13
tp1544
a(S'w'
I12
tp1545
a(S'p2_vo'
I13
tp1546
a(S'w'
I12
tp1547
a(S'tr_lr'
I57
tp1548
a(S'w'
I710
tp1549
a(S'p1_du'
I1
tp1550
a(S'p1_vo'
I15
tp1551
a(S'w'
I11
tp1552
a(S'p2_du'
I1
tp1553
a(S'p2_vo'
I15
tp1554
a(S'w'
I1
tp1555
a(S'w'
I11
tp1556
a(S'tr_lr'
I55
tp1557
a(S'w'
I711
tp1558
a(S'w'
I11
tp1559
a(S'w'
I12
tp1560
a(S'tr_lr'
I52
tp1561
a(S'w'
I710
tp1562
a(S'w'
I11
tp1563
a(S'w'
I12
tp1564
a(S'tr_lr'
I51
tp1565
a(S'w'
I711
tp1566
a(S'p1_du'
I0
tp1567
a(S'p1_vo'
I2
tp1568
a(S'w'
I1
tp1569
a(S'w'
I11
tp1570
a(S'p2_du'
I0
tp1571
a(S'p2_vo'
I2
tp1572
a(S'w'
I10
tp1573
a(S'tr_lr'
I48
tp1574
a(S'w'
I712
tp1575
a(S'w'
I12
tp1576
a(S'w'
I9
tp1577
a(S'tr_lr'
I0
tp1578
a(S'w'
I713
tp1579
a(S'w'
I12
tp1580
a(S'w'
I722
tp1581
a(S'w'
I12
tp1582
a(S'w'
I722
tp1583
a(S'w'
I11
tp1584
a(S'w'
I722
tp1585
a(S'w'
I12
tp1586
a(S'w'
I722
tp1587
a(S'w'
I12
tp1588
a(S'w'
I728
tp1589
a(S'p1_du'
I2
tp1590
a(S'p1_vo'
I1
tp1591
a(S'w'
I1
tp1592
a(S'p1_tl'
I88
tp1593
a(S'p1_ll'
I0
tp1594
a(S'w'
I18
tp1595
a(S'p2_du'
I2
tp1596
a(S'p2_vo'
I1
tp1597
a(S'p2_tl'
I150
tp1598
a(S'w'
I1
tp1599
a(S'p2_ll'
I0
tp1600
a(S'w'
I707
tp1601
a(S'p1_vo'
I9
tp1602
a(S'w'
I1
tp1603
a(S'w'
I11
tp1604
a(S'p2_vo'
I9
tp1605
a(S'w'
I18
tp1606
a(S'tr_lr'
I63
tp1607
a(S'tr_tl'
I196
tp1608
a(S'w'
I1
tp1609
a(S'tr_ll'
I0
tp1610
a(S'w'
I703
tp1611
a(S'p1_vo'
I13
tp1612
a(S'w'
I12
tp1613
a(S'p2_vo'
I13
tp1614
a(S'w'
I12
tp1615
a(S'tr_lr'
I57
tp1616
a(S'w'
I710
tp1617
a(S'p1_du'
I1
tp1618
a(S'p1_vo'
I15
tp1619
a(S'w'
I11
tp1620
a(S'p2_du'
I1
tp1621
a(S'p2_vo'
I15
tp1622
a(S'w'
I11
tp1623
a(S'tr_lr'
I55
tp1624
a(S'w'
I712
tp1625
a(S'w'
I12
tp1626
a(S'w'
I12
tp1627
a(S'tr_lr'
I52
tp1628
a(S'w'
I710
tp1629
a(S'w'
I12
tp1630
a(S'w'
I11
tp1631
a(S'tr_lr'
I51
tp1632
a(S'w'
I710
tp1633
a(S'p1_vo'
I14
tp1634
a(S'w'
I1
tp1635
a(S'w'
I11
tp1636
a(S'p2_vo'
I14
tp1637
a(S'w'
I10
tp1638
a(S'tr_lr'
I48
tp1639
a(S'w'
I713
tp1640
a(S'p1_du'
I0
tp1641
a(S'p1_vo'
I2
tp1642
a(S'w'
I11
tp1643
a(S'p2_du'
I0
tp1644
a(S'p2_vo'
I2
tp1645
a(S'w'
I1
tp1646
a(S'w'
I721
tp1647
a(S'w'
I12
tp1648
a(S'w'
I10
tp1649
a(S'tr_lr'
I0
tp1650
a(S'w'
I712
tp1651
a(S'w'
I12
tp1652
a(S'w'
I722
tp1653
a(S'w'
I12
tp1654
a(S'w'
I722
tp1655
a(S'w'
I12
tp1656
a(S'w'
I722
tp1657
a(S'w'
I11
tp1658
a(S'w'
I722
tp1659
a(S'w'
I12
tp1660
a(S'w'
I722
tp1661
a(S'w'
I12
tp1662
a(S'w'
I722
tp1663
a(S'w'
I12
tp1664
a(S'w'
I722
tp1665
a(S'w'
I12
tp1666
a(S'w'
I722
tp1667
a(S'w'
I11
tp1668
a(S'w'
I722
tp1669
a(S'w'
I12
tp1670
a(S'w'
I722
tp1671
a(S'w'
I12
tp1672
a(S'w'
I729
tp1673
a(S'p1_du'
I2
tp1674
a(S'p1_vo'
I1
tp1675
a(S'p1_ll'
I0
tp1676
a(S'w'
I18
tp1677
a(S'p2_du'
I2
tp1678
a(S'p2_vo'
I1
tp1679
a(S'w'
I1
tp1680
a(S'p2_ll'
I0
tp1681
a(S'w'
I707
tp1682
a(S'p1_vo'
I9
tp1683
a(S'w'
I1
tp1684
a(S'w'
I11
tp1685
a(S'p2_vo'
I9
tp1686
a(S'w'
I18
tp1687
a(S'tr_lr'
I63
tp1688
a(S'w'
I1
tp1689
a(S'tr_ll'
I0
tp1690
a(S'w'
I703
tp1691
a(S'p1_vo'
I13
tp1692
a(S'w'
I1
tp1693
a(S'w'
I11
tp1694
a(S'p2_vo'
I13
tp1695
a(S'w'
I12
tp1696
a(S'tr_lr'
I57
tp1697
a(S'w'
I710
tp1698
a(S'p1_du'
I0
tp1699
a(S'p1_vo'
I2
tp1700
a(S'w'
I1
tp1701
a(S'w'
I11
tp1702
a(S'p2_du'
I0
tp1703
a(S'p2_vo'
I2
tp1704
a(S'w'
I1
tp1705
a(S'w'
I11
tp1706
a(S'tr_lr'
I55
tp1707
a(S'w'
I710
tp1708
a(S'w'
I11
tp1709
a(S'w'
I12
tp1710
a(S'tr_lr'
I52
tp1711
a(S'w'
I711
tp1712
a(S'w'
I12
tp1713
a(S'w'
I12
tp1714
a(S'tr_lr'
I0
tp1715
a(S'w'
I710
tp1716
a(S'w'
I12
tp1717
a(S'w'
I728
tp1718
a(S'p1_du'
I2
tp1719
a(S'p1_vo'
I1
tp1720
a(S'w'
I1
tp1721
a(S'p1_ll'
I0
tp1722
a(S'w'
I18
tp1723
a(S'p2_du'
I2
tp1724
a(S'p2_vo'
I1
tp1725
a(S'p2_ll'
I0
tp1726
a(S'w'
I708
tp1727
a(S'p1_vo'
I9
tp1728
a(S'w'
I12
tp1729
a(S'p2_vo'
I9
tp1730
a(S'w'
I18
tp1731
a(S'tr_lr'
I63
tp1732
a(S'w'
I1
tp1733
a(S'tr_ll'
I0
tp1734
a(S'w'
I703
tp1735
a(S'p1_vo'
I13
tp1736
a(S'w'
I12
tp1737
a(S'p2_vo'
I13
tp1738
a(S'w'
I12
tp1739
a(S'tr_lr'
I57
tp1740
a(S'w'
I710
tp1741
a(S'p1_du'
I1
tp1742
a(S'p1_vo'
I15
tp1743
a(S'w'
I11
tp1744
a(S'p2_du'
I1
tp1745
a(S'p2_vo'
I15
tp1746
a(S'w'
I1
tp1747
a(S'w'
I11
tp1748
a(S'tr_lr'
I55
tp1749
a(S'w'
I711
tp1750
a(S'w'
I11
tp1751
a(S'w'
I12
tp1752
a(S'tr_lr'
I52
tp1753
a(S'w'
I711
tp1754
a(S'w'
I11
tp1755
a(S'w'
I12
tp1756
a(S'tr_lr'
I51
tp1757
a(S'w'
I710
tp1758
a(S'p1_vo'
I14
tp1759
a(S'w'
I12
tp1760
a(S'p2_vo'
I14
tp1761
a(S'w'
I9
tp1762
a(S'tr_lr'
I48
tp1763
a(S'w'
I713
tp1764
a(S'p1_vo'
I13
tp1765
a(S'w'
I12
tp1766
a(S'p2_vo'
I13
tp1767
a(S'w'
I721
tp1768
a(S'p1_vo'
I12
tp1769
a(S'w'
I11
tp1770
a(S'p2_vo'
I12
tp1771
a(S'w'
I1
tp1772
a(S'w'
I723
tp1773
a(S'p1_vo'
I11
tp1774
a(S'w'
I11
tp1775
a(S'p2_vo'
I11
tp1776
a(S'w'
I722
tp1777
a(S'p1_vo'
I10
tp1778
a(S'w'
I1
tp1779
a(S'w'
I11
tp1780
a(S'p2_vo'
I10
tp1781
a(S'w'
I722
tp1782
a(S'p1_vo'
I9
tp1783
a(S'w'
I12
tp1784
a(S'p2_vo'
I9
tp1785
a(S'w'
I722
tp1786
a(S'w'
I12
tp1787
a(S'w'
I722
tp1788
a(S'w'
I12
tp1789
a(S'w'
I722
tp1790
a(S'w'
I11
tp1791
a(S'w'
I722
tp1792
a(S'p1_vo'
I10
tp1793
a(S'w'
I1
tp1794
a(S'w'
I11
tp1795
a(S'p2_vo'
I10
tp1796
a(S'w'
I722
tp1797
a(S'w'
I12
tp1798
a(S'w'
I722
tp1799
a(S'w'
I12
tp1800
a(S'w'
I722
tp1801
a(S'w'
I11
tp1802
a(S'w'
I723
tp1803
a(S'p1_vo'
I11
tp1804
a(S'w'
I11
tp1805
a(S'p2_vo'
I11
tp1806
a(S'w'
I723
tp1807
a(S'w'
I11
tp1808
a(S'w'
I722
tp1809
a(S'w'
I12
tp1810
a(S'w'
I722
tp1811
a(S'w'
I12
tp1812
a(S'w'
I722
tp1813
a(S'p1_vo'
I12
tp1814
a(S'w'
I11
tp1815
a(S'p2_vo'
I12
tp1816
a(S'w'
I1
tp1817
a(S'w'
I722
tp1818
a(S'w'
I11
tp1819
a(S'w'
I723
tp1820
a(S'w'
I11
tp1821
a(S'w'
I722
tp1822
a(S'w'
I12
tp1823
a(S'w'
I722
tp1824
a(S'p1_vo'
I13
tp1825
a(S'w'
I12
tp1826
a(S'p2_vo'
I13
tp1827
a(S'w'
I722
tp1828
a(S'w'
I12
tp1829
a(S'w'
I721
tp1830
a(S'w'
I12
tp1831
a(S'w'
I723
tp1832
a(S'w'
I11
tp1833
a(S'w'
I722
tp1834
a(S'p1_vo'
I14
tp1835
a(S'w'
I12
tp1836
a(S'p2_vo'
I14
tp1837
a(S'w'
I722
tp1838
a(S'w'
I12
tp1839
a(S'w'
I722
tp1840
a(S'w'
I12
tp1841
a(S'w'
I722
tp1842
a(S'w'
I12
tp1843
a(S'w'
I721
tp1844
a(S'p1_vo'
I15
tp1845
a(S'w'
I1
tp1846
a(S'w'
I11
tp1847
a(S'p2_vo'
I15
tp1848
a(S'w'
I722
tp1849
a(S'w'
I12
tp1850
a(S'w'
I722
tp1851
a(S'w'
I12
tp1852
a(S'w'
I722
tp1853
a(S'w'
I12
tp1854
a(S'w'
I722
tp1855
a(S'w'
I11
tp1856
a(S'w'
I722
tp1857
a(S'p1_vo'
I14
tp1858
a(S'w'
I11
tp1859
a(S'p2_vo'
I14
tp1860
a(S'w'
I723
tp1861
a(S'p1_vo'
I13
tp1862
a(S'w'
I12
tp1863
a(S'p2_vo'
I13
tp1864
a(S'w'
I722
tp1865
a(S'p1_vo'
I12
tp1866
a(S'w'
I12
tp1867
a(S'p2_vo'
I12
tp1868
a(S'w'
I722
tp1869
a(S'p1_vo'
I13
tp1870
a(S'w'
I12
tp1871
a(S'p2_vo'
I13
tp1872
a(S'w'
I722
tp1873
a(S'p1_vo'
I14
tp1874
a(S'w'
I11
tp1875
a(S'p2_vo'
I14
tp1876
a(S'w'
I1
tp1877
a(S'w'
I721
tp1878
a(S'p1_vo'
I15
tp1879
a(S'w'
I1
tp1880
a(S'w'
I11
tp1881
a(S'p2_vo'
I15
tp1882
a(S'w'
I723
tp1883
a(S'w'
I12
tp1884
a(S'w'
I721
tp1885
a(S'p1_vo'
I14
tp1886
a(S'w'
I12
tp1887
a(S'p2_vo'
I14
tp1888
a(S'w'
I722
tp1889
a(S'p1_vo'
I13
tp1890
a(S'w'
I12
tp1891
a(S'p2_vo'
I13
tp1892
a(S'w'
I722
tp1893
a(S'p1_vo'
I12
tp1894
a(S'w'
I11
tp1895
a(S'p2_vo'
I12
tp1896
a(S'w'
I1
tp1897
a(S'w'
I721
tp1898
a(S'p1_vo'
I13
tp1899
a(S'w'
I11
tp1900
a(S'p2_vo'
I13
tp1901
a(S'w'
I723
tp1902
a(S'p1_vo'
I14
tp1903
a(S'w'
I12
tp1904
a(S'p2_vo'
I14
tp1905
a(S'w'
I722
tp1906
a(S'p1_vo'
I15
tp1907
a(S'w'
I12
tp1908
a(S'p2_vo'
I15
tp1909
a(S'w'
I723
tp1910
a(S'w'
I12
tp1911
a(S'w'
I721
tp1912
a(S'p1_vo'
I14
tp1913
a(S'w'
I11
tp1914
a(S'p2_vo'
I14
tp1915
a(S'w'
I1
tp1916
a(S'w'
I721
tp1917
a(S'p1_vo'
I13
tp1918
a(S'w'
I1
tp1919
a(S'w'
I11
tp1920
a(S'p2_vo'
I13
tp1921
a(S'w'
I722
tp1922
a(S'p1_vo'
I12
tp1923
a(S'w'
I12
tp1924
a(S'p2_vo'
I12
tp1925
a(S'w'
I722
tp1926
a(S'p1_vo'
I13
tp1927
a(S'w'
I12
tp1928
a(S'p2_vo'
I13
tp1929
a(S'w'
I722
tp1930
a(S'p1_vo'
I14
tp1931
a(S'w'
I12
tp1932
a(S'p2_vo'
I14
tp1933
a(S'w'
I722
tp1934
a(S'p1_vo'
I15
tp1935
a(S'w'
I11
tp1936
a(S'p2_vo'
I15
tp1937
a(S'w'
I1
tp1938
a(S'w'
I722
tp1939
a(S'w'
I13
tp1940
a(S'w'
I720
tp1941
a(S'p1_vo'
I14
tp1942
a(S'w'
I11
tp1943
a(S'p2_vo'
I14
tp1944
a(S'w'
I723
tp1945
a(S'p1_vo'
I13
tp1946
a(S'w'
I12
tp1947
a(S'p2_vo'
I13
tp1948
a(S'w'
I722
tp1949
a(S'p1_vo'
I12
tp1950
a(S'w'
I12
tp1951
a(S'p2_vo'
I12
tp1952
a(S'w'
I722
tp1953
a(S'p1_vo'
I13
tp1954
a(S'w'
I11
tp1955
a(S'p2_vo'
I13
tp1956
a(S'w'
I1
tp1957
a(S'w'
I721
tp1958
a(S'p1_vo'
I14
tp1959
a(S'w'
I1
tp1960
a(S'w'
I11
tp1961
a(S'p2_vo'
I14
tp1962
a(S'w'
I722
tp1963
a(S'p1_vo'
I15
tp1964
a(S'w'
I12
tp1965
a(S'p2_vo'
I15
tp1966
a(S'w'
I723
tp1967
a(S'w'
I12
tp1968
a(S'w'
I721
tp1969
a(S'p1_vo'
I14
tp1970
a(S'w'
I12
tp1971
a(S'p2_vo'
I14
tp1972
a(S'w'
I722
tp1973
a(S'p1_vo'
I13
tp1974
a(S'w'
I11
tp1975
a(S'p2_vo'
I13
tp1976
a(S'w'
I1
tp1977
a(S'w'
I721
tp1978
a(S'p1_vo'
I12
tp1979
a(S'w'
I1
tp1980
a(S'w'
I11
tp1981
a(S'p2_vo'
I12
tp1982
a(S'w'
I722
tp1983
a(S'p1_vo'
I13
tp1984
a(S'w'
I12
tp1985
a(S'p2_vo'
I13
tp1986
a(S'w'
I722
tp1987
a(S'p1_vo'
I14
tp1988
a(S'w'
I11
tp1989
a(S'p2_vo'
I14
tp1990
a(S'w'
I723
tp1991
a(S'p1_vo'
I15
tp1992
a(S'w'
I12
tp1993
a(S'p2_vo'
I15
tp1994
a(S'w'
I722
tp1995
a(S'w'
I13
tp1996
a(S'w'
I720
tp1997
a(S'p1_vo'
I14
tp1998
a(S'w'
I1
tp1999
a(S'w'
I11
tp2000
a(S'p2_vo'
I14
tp2001
a(S'w'
I722
tp2002
a(S'p1_vo'
I13
tp2003
a(S'w'
I12
tp2004
a(S'p2_vo'
I13
tp2005
a(S'w'
I722
tp2006
a(S'p1_vo'
I12
tp2007
a(S'w'
I12
tp2008
a(S'p2_vo'
I12
tp2009
a(S'w'
I722
tp2010
a(S'p1_vo'
I13
tp2011
a(S'w'
I12
tp2012
a(S'p2_vo'
I13
tp2013
a(S'w'
I722
tp2014
a(S'p1_vo'
I14
tp2015
a(S'w'
I11
tp2016
a(S'p2_vo'
I14
tp2017
a(S'w'
I1
tp2018
a(S'w'
I721
tp2019
a(S'p1_vo'
I15
tp2020
a(S'w'
I1
tp2021
a(S'w'
I11
tp2022
a(S'p2_vo'
I15
tp2023
a(S'w'
I723
tp2024
a(S'w'
I12
tp2025
a(S'w'
I721
tp2026
a(S'p1_vo'
I14
tp2027
a(S'w'
I11
tp2028
a(S'p2_vo'
I14
tp2029
a(S'w'
I723
tp2030
a(S'p1_vo'
I13
tp2031
a(S'w'
I12
tp2032
a(S'p2_vo'
I13
tp2033
a(S'w'
I722
tp2034
a(S'p1_vo'
I12
tp2035
a(S'w'
I11
tp2036
a(S'p2_vo'
I12
tp2037
a(S'w'
I1
tp2038
a(S'w'
I721
tp2039
a(S'p1_vo'
I13
tp2040
a(S'w'
I1
tp2041
a(S'w'
I11
tp2042
a(S'p2_vo'
I13
tp2043
a(S'w'
I722
tp2044
a(S'p1_vo'
I14
tp2045
a(S'w'
I12
tp2046
a(S'p2_vo'
I14
tp2047
a(S'w'
I722
tp2048
a(S'p1_vo'
I15
tp2049
a(S'w'
I12
tp2050
a(S'p2_vo'
I15
tp2051
a(S'w'
I723
tp2052
a(S'w'
I12
tp2053
a(S'w'
I721
tp2054
a(S'p1_vo'
I14
tp2055
a(S'w'
I11
tp2056
a(S'p2_vo'
I14
tp2057
a(S'w'
I1
tp2058
a(S'w'
I721
tp2059
a(S'p1_vo'
I13
tp2060
a(S'w'
I1
tp2061
a(S'w'
I11
tp2062
a(S'p2_vo'
I13
tp2063
a(S'w'
I722
tp2064
a(S'p1_vo'
I12
tp2065
a(S'w'
I1
tp2066
a(S'w'
I11
tp2067
a(S'p2_vo'
I12
tp2068
a(S'w'
I722
tp2069
a(S'p1_vo'
I13
tp2070
a(S'w'
I12
tp2071
a(S'p2_vo'
I13
tp2072
a(S'w'
I721
tp2073
a(S'p1_vo'
I14
tp2074
a(S'w'
I1
tp2075
a(S'w'
I11
tp2076
a(S'p2_vo'
I14
tp2077
a(S'w'
I723
tp2078
a(S'p1_vo'
I15
tp2079
a(S'w'
I11
tp2080
a(S'p2_vo'
I15
tp2081
a(S'w'
I1
tp2082
a(S'w'
I722
tp2083
a(S'w'
I13
tp2084
a(S'w'
I720
tp2085
a(S'p1_vo'
I14
tp2086
a(S'w'
I12
tp2087
a(S'p2_vo'
I14
tp2088
a(S'w'
I722
tp2089
a(S'p1_vo'
I13
tp2090
a(S'w'
I12
tp2091
a(S'p2_vo'
I13
tp2092
a(S'w'
I722
tp2093
a(S'p1_vo'
I12
tp2094
a(S'w'
I12
tp2095
a(S'p2_vo'
I12
tp2096
a(S'w'
I722
tp2097
a(S'p1_vo'
I13
tp2098
a(S'w'
I11
tp2099
a(S'p2_vo'
I13
tp2100
a(S'w'
I1
tp2101
a(S'w'
I721
tp2102
a(S'p1_vo'
I14
tp2103
a(S'w'
I1
tp2104
a(S'w'
I11
tp2105
a(S'p2_vo'
I14
tp2106
a(S'w'
I722
tp2107
a(S'p1_vo'
I15
tp2108
a(S'w'
I1
tp2109
a(S'w'
I11
tp2110
a(S'p2_vo'
I15
tp2111
a(S'w'
I723
tp2112
a(S'w'
I12
tp2113
a(S'w'
I721
tp2114
a(S'p1_vo'
I14
tp2115
a(S'w'
I12
tp2116
a(S'p2_vo'
I14
tp2117
a(S'w'
I721
tp2118
a(S'p1_vo'
I13
tp2119
a(S'w'
I12
tp2120
a(S'p2_vo'
I13
tp2121
a(S'w'
I723
tp2122
a(S'p1_vo'
I12
tp2123
a(S'w'
I11
tp2124
a(S'p2_vo'
I12
tp2125
a(S'w'
I722
tp2126
a(S'p1_vo'
I13
tp2127
a(S'w'
I12
tp2128
a(S'p2_vo'
I13
tp2129
a(S'w'
I722
tp2130
a(S'p1_vo'
I14
tp2131
a(S'w'
I12
tp2132
a(S'p2_vo'
I14
tp2133
a(S'w'
I722
tp2134
a(S'p1_vo'
I15
tp2135
a(S'w'
I12
tp2136
a(S'p2_vo'
I15
tp2137
a(S'w'
I722
tp2138
a(S'w'
I13
tp2139
a(S'w'
I720
tp2140
a(S'p1_vo'
I14
tp2141
a(S'w'
I1
tp2142
a(S'w'
I11
tp2143
a(S'p2_vo'
I14
tp2144
a(S'w'
I722
tp2145
a(S'p1_vo'
I13
tp2146
a(S'w'
I12
tp2147
a(S'p2_vo'
I13
tp2148
a(S'w'
I722
tp2149
a(S'p1_vo'
I12
tp2150
a(S'w'
I12
tp2151
a(S'p2_vo'
I12
tp2152
a(S'w'
I722
tp2153
a(S'p1_vo'
I13
tp2154
a(S'w'
I12
tp2155
a(S'p2_vo'
I13
tp2156
a(S'w'
I721
tp2157
a(S'p1_vo'
I14
tp2158
a(S'w'
I11
tp2159
a(S'p2_vo'
I14
tp2160
a(S'w'
I1
tp2161
a(S'w'
I722
tp2162
a(S'p1_vo'
I15
tp2163
a(S'w'
I1
tp2164
a(S'w'
I11
tp2165
a(S'p2_vo'
I15
tp2166
a(S'w'
I723
tp2167
a(S'w'
I12
tp2168
a(S'w'
I721
tp2169
a(S'p1_vo'
I14
tp2170
a(S'w'
I12
tp2171
a(S'p2_vo'
I14
tp2172
a(S'w'
I722
tp2173
a(S'p1_vo'
I13
tp2174
a(S'w'
I12
tp2175
a(S'p2_vo'
I13
tp2176
a(S'w'
I722
tp2177
a(S'p1_vo'
I12
tp2178
a(S'w'
I11
tp2179
a(S'p2_vo'
I12
tp2180
a(S'w'
I1
tp2181
a(S'w'
I722
tp2182
a(S'p1_vo'
I13
tp2183
a(S'w'
I11
tp2184
a(S'p2_vo'
I13
tp2185
a(S'w'
I722
tp2186
a(S'p1_vo'
I14
tp2187
a(S'w'
I12
tp2188
a(S'p2_vo'
I14
tp2189
a(S'w'
I722
tp2190
a(S'p1_vo'
I15
tp2191
a(S'w'
I12
tp2192
a(S'p2_vo'
I15
tp2193
a(S'w'
I723
tp2194
a(S'w'
I12
tp2195
a(S'w'
I721
tp2196
a(S'p1_vo'
I14
tp2197
a(S'w'
I11
tp2198
a(S'p2_vo'
I14
tp2199
a(S'w'
I1
tp2200
a(S'w'
I721
tp2201
a(S'p1_vo'
I13
tp2202
a(S'w'
I11
tp2203
a(S'p2_vo'
I13
tp2204
a(S'w'
I723
tp2205
a(S'p1_vo'
I12
tp2206
a(S'w'
I12
tp2207
a(S'p2_vo'
I12
tp2208
a(S'w'
I722
tp2209
a(S'p1_vo'
I13
tp2210
a(S'w'
I12
tp2211
a(S'p2_vo'
I13
tp2212
a(S'w'
I722
tp2213
a(S'p1_vo'
I14
tp2214
a(S'w'
I12
tp2215
a(S'p2_vo'
I14
tp2216
a(S'w'
I722
tp2217
a(S'p1_vo'
I15
tp2218
a(S'w'
I11
tp2219
a(S'p2_vo'
I15
tp2220
a(S'w'
I1
tp2221
a(S'w'
I722
tp2222
a(S'w'
I13
tp2223
a(S'w'
I720
tp2224
a(S'p1_vo'
I14
tp2225
a(S'w'
I12
tp2226
a(S'p2_vo'
I14
tp2227
a(S'w'
I722
tp2228
a(S'p1_du'
I0
tp2229
a(S'p1_vo'
I2
tp2230
a(S'w'
I1
tp2231
a(S'w'
I11
tp2232
a(S'p2_du'
I0
tp2233
a(S'p2_vo'
I2
tp2234
a(S'w'
I1
tp2235
a(S'w'
I721
tp2236
a(S'w'
I12
tp2237
a(S'w'
I10
tp2238
a(S'tr_lr'
I0
tp2239
a(S'w'
I712
tp2240
a(S'w'
I12
tp2241
a(S'w'
I722
tp2242
a(S'w'
I12
tp2243
a(S'w'
I721
tp2244
a(S'w'
I12
tp2245
a(S'w'
I723
tp2246
a(S'w'
I12
tp2247
a(S'w'
I721
tp2248
a(S'w'
I12
tp2249
a(S'w'
I722
tp2250
a(S'w'
I12
tp2251
a(S'w'
I722
tp2252
a(S'w'
I12
tp2253
a(S'w'
I722
tp2254
a(S'w'
I11
tp2255
a(S'w'
I722
tp2256
a(S'w'
I12
tp2257
a(S'w'
I722
tp2258
a(S'w'
I12
tp2259
a(S'w'
I723
tp2260
a(S'w'
I12
tp2261
a(S'w'
I721
tp2262
a(S'w'
I12
tp2263
a(S'w'
I721
tp2264
a(S'w'
I12
tp2265
a(S'w'
I722
tp2266
a(S'w'
I12
tp2267
a(S'w'
I722
tp2268
a(S'w'
I12
tp2269
a(S'w'
I722
tp2270
a(S'w'
I12
tp2271
a(S'w'
I722
tp2272
a(S'w'
I12
tp2273
a(S'w'
I722
tp2274
a(S'w'
I13
tp2275
a(S'w'
I720
tp2276
a(S'w'
I12
tp2277
a(S'w'
I722
tp2278
a(S'w'
I12
tp2279
a(S'w'
I722
tp2280
a(S'w'
I12
tp2281
a(S'w'
I722
tp2282
a(S'w'
I12
tp2283
a(S'w'
I722
tp2284
a(S'w'
I12
tp2285
a(S'w'
I721
tp2286
a(S'w'
I12
tp2287
a(S'w'
I723
tp2288
a(S'w'
I12
tp2289
a(S'w'
I721
tp2290
a(S'w'
I12
tp2291
a(S'w'
I722
tp2292
a(S'w'
I12
tp2293
a(S'w'
I722
tp2294
a(S'w'
I12
tp2295
a(S'w'
I721
tp2296
a(S'w'
I12
tp2297
a(S'w'
I722
tp2298
a(S'w'
I12
tp2299
a(S'w'
I722
tp2300
a(S'w'
I12
tp2301
a(S'w'
I723
tp2302
a(S'w'
I12
tp2303
a(S'w'
I721
tp2304
a(S'w'
I12
tp2305
a(S'w'
I717
tp2306
a(S'p1_vo'
I0
tp2307
a(S'w'
I9
tp2308
a(S'p2_vo'
I0
tp2309
a(S'w'
I1475
tp2310
a(S'tr_lh'
I0
tp2311
a(S'w'
I1
tp2312
a.