(lp1
(S'clock'
p2
I1789772
tp3
a(S'p1_du'
I2
tp4
a(S'p1_cv'
I1
tp5
a(S'p2_du'
I2
tp6
a(S'p2_cv'
I1
tp7
a(S'no_cv'
I1
tp8
a(S'ch_no'
I1
tp9
a(S'ch_tr'
I1
tp10
a(S'ch_p2'
I1
tp11
a(S'ch_p1'
I1
tp12
a(S'p1_du'
I1
tp13
a(S'p1_lh'
I1
tp14
a(S'p1_vo'
I8
tp15
a(S'p1_tl'
I238
tp16
a(S'p1_sp'
I7
tp17
a(S'p1_sn'
I1
tp18
a(S'p1_ss'
I7
tp19
a(S'p1_ll'
I0
tp20
a(S'w'
I22
tp21
a(S'p2_du'
I1
tp22
a(S'p2_lh'
I1
tp23
a(S'p2_vo'
I8
tp24
a(S'p2_tl'
I63
tp25
a(S'p2_sp'
I7
tp26
a(S'p2_sn'
I1
tp27
a(S'p2_ss'
I7
tp28
a(S'p2_ll'
I0
tp29
a(S'p2_th'
I1
tp30
a(S'w'
I19
tp31
a(S'tr_lh'
I1
tp32
a(S'tr_lr'
I123
tp33
a(S'tr_tl'
I171
tp34
a(S'w'
I1
tp35
a(S'tr_ll'
I0
tp36
a(S'tr_th'
I1
tp37
a(S'w'
I15
tp38
a(S'no_lh'
I1
tp39
a(S'no_vo'
I11
tp40
a(S'no_np'
I14
tp41
a(S'w'
I1
tp42
a(S'no_ll'
I0
tp43
a(S'w'
I657
tp44
a(S'ch_no'
I1
tp45
a(S'ch_tr'
I1
tp46
a(S'ch_p2'
I1
tp47
a(S'ch_p1'
I1
tp48
a(S'w'
I10
tp49
a(S'p1_vo'
I7
tp50
a(S'w'
I9
tp51
a(S'w'
I10
tp52
a(S'tr_lr'
I117
tp53
a(S'w'
I9
tp54
a(S'no_vo'
I5
tp55
a(S'w'
I703
tp56
a(S'p1_vo'
I6
tp57
a(S'w'
I10
tp58
a(S'w'
I10
tp59
a(S'tr_lr'
I116
tp60
a(S'w'
I10
tp61
a(S'no_vo'
I4
tp62
a(S'w'
I704
tp63
a(S'p1_vo'
I5
tp64
a(S'w'
I10
tp65
a(S'w'
I20
tp66
a(S'w'
I704
tp67
a(S'w'
I10
tp68
a(S'p2_vo'
I6
tp69
a(S'w'
I20
tp70
a(S'w'
I704
tp71
a(S'p1_vo'
I4
tp72
a(S'w'
I9
tp73
a(S'p2_vo'
I5
tp74
a(S'w'
I1
tp75
a(S'w'
I10
tp76
a(S'tr_lr'
I115
tp77
a(S'w'
I9
tp78
a(S'no_vo'
I3
tp79
a(S'w'
I1
tp80
a(S'w'
I704
tp81
a(S'w'
I9
tp82
a(S'p2_vo'
I4
tp83
a(S'w'
I11
tp84
a(S'tr_lr'
I0
tp85
a(S'w'
I10
tp86
a(S'w'
I703
tp87
a(S'p1_vo'
I3
tp88
a(S'w'
I10
tp89
a(S'w'
I20
tp90
a(S'w'
I704
tp91
a(S'w'
I10
tp92
a(S'w'
I20
tp93
a(S'w'
I709
tp94
a(S'w'
I10
tp95
a(S'p2_vo'
I3
tp96
a(S'w'
I20
tp97
a(S'no_vo'
I0
tp98
a(S'w'
I699
tp99
a(S'p1_vo'
I2
tp100
a(S'w'
I10
tp101
a(S'w'
I20
tp102
a(S'w'
I704
tp103
a(S'w'
I10
tp104
a(S'w'
I20
tp105
a(S'w'
I704
tp106
a(S'w'
I10
tp107
a(S'w'
I20
tp108
a(S'w'
I707
tp109
a(S'p1_vo'
I8
tp110
a(S'w'
I1
tp111
a(S'p1_tl'
I212
tp112
a(S'p1_ll'
I0
tp113
a(S'w'
I14
tp114
a(S'p2_vo'
I8
tp115
a(S'p2_tl'
I28
tp116
a(S'p2_ll'
I0
tp117
a(S'w'
I14
tp118
a(S'tr_lr'
I123
tp119
a(S'w'
I1
tp120
a(S'tr_ll'
I0
tp121
a(S'w'
I10
tp122
a(S'w'
I690
tp123
a(S'p1_vo'
I7
tp124
a(S'w'
I10
tp125
a(S'w'
I10
tp126
a(S'tr_lr'
I117
tp127
a(S'w'
I11
tp128
a(S'w'
I703
tp129
a(S'p1_vo'
I6
tp130
a(S'w'
I10
tp131
a(S'w'
I10
tp132
a(S'tr_lr'
I116
tp133
a(S'w'
I10
tp134
a(S'w'
I703
tp135
a(S'p1_vo'
I5
tp136
a(S'w'
I1
tp137
a(S'w'
I9
tp138
a(S'w'
I21
tp139
a(S'w'
I706
tp140
a(S'w'
I10
tp141
a(S'p2_vo'
I6
tp142
a(S'w'
I21
tp143
a(S'w'
I700
tp144
a(S'p1_vo'
I4
tp145
a(S'w'
I10
tp146
a(S'p2_vo'
I5
tp147
a(S'w'
I10
tp148
a(S'tr_lr'
I115
tp149
a(S'w'
I11
tp150
a(S'w'
I703
tp151
a(S'w'
I10
tp152
a(S'p2_vo'
I4
tp153
a(S'w'
I21
tp154
a(S'w'
I703
tp155
a(S'p1_vo'
I3
tp156
a(S'w'
I10
tp157
a(S'w'
I20
tp158
a(S'w'
I704
tp159
a(S'w'
I10
tp160
a(S'w'
I20
tp161
a(S'w'
I703
tp162
a(S'w'
I10
tp163
a(S'p2_vo'
I3
tp164
a(S'w'
I10
tp165
a(S'tr_lr'
I114
tp166
a(S'w'
I11
tp167
a(S'w'
I704
tp168
a(S'p1_vo'
I2
tp169
a(S'w'
I10
tp170
a(S'p2_vo'
I2
tp171
a(S'w'
I10
tp172
a(S'tr_lr'
I0
tp173
a(S'w'
I11
tp174
a(S'w'
I703
tp175
a(S'w'
I11
tp176
a(S'w'
I20
tp177
a(S'w'
I708
tp178
a(S'w'
I11
tp179
a(S'w'
I23
tp180
a(S'no_vo'
I11
tp181
a(S'no_np'
I9
tp182
a(S'w'
I1
tp183
a(S'no_ll'
I0
tp184
a(S'w'
I694
tp185
a(S'w'
I10
tp186
a(S'w'
I21
tp187
a(S'no_vo'
I5
tp188
a(S'w'
I703
tp189
a(S'w'
I10
tp190
a(S'w'
I21
tp191
a(S'no_vo'
I4
tp192
a(S'w'
I702
tp193
a(S'w'
I11
tp194
a(S'w'
I20
tp195
a(S'w'
I703
tp196
a(S'w'
I11
tp197
a(S'w'
I21
tp198
a(S'w'
I702
tp199
a(S'w'
I10
tp200
a(S'w'
I21
tp201
a(S'no_vo'
I3
tp202
a(S'w'
I703
tp203
a(S'w'
I10
tp204
a(S'w'
I21
tp205
a(S'w'
I703
tp206
a(S'w'
I10
tp207
a(S'w'
I21
tp208
a(S'w'
I705
tp209
a(S'w'
I10
tp210
a(S'w'
I21
tp211
a(S'no_vo'
I0
tp212
a(S'w'
I700
tp213
a(S'w'
I11
tp214
a(S'w'
I20
tp215
a(S'w'
I703
tp216
a(S'w'
I10
tp217
a(S'w'
I21
tp218
a(S'w'
I703
tp219
a(S'w'
I10
tp220
a(S'w'
I21
tp221
a(S'w'
I705
tp222
a(S'p1_vo'
I8
tp223
a(S'w'
I1
tp224
a(S'p1_tl'
I28
tp225
a(S'p1_ll'
I0
tp226
a(S'p1_th'
I1
tp227
a(S'w'
I14
tp228
a(S'p2_vo'
I8
tp229
a(S'p2_tl'
I124
tp230
a(S'p2_ll'
I0
tp231
a(S'w'
I14
tp232
a(S'tr_lr'
I123
tp233
a(S'tr_tl'
I223
tp234
a(S'w'
I1
tp235
a(S'tr_ll'
I0
tp236
a(S'w'
I9
tp237
a(S'w'
I691
tp238
a(S'p1_vo'
I7
tp239
a(S'w'
I10
tp240
a(S'w'
I10
tp241
a(S'tr_lr'
I117
tp242
a(S'w'
I11
tp243
a(S'w'
I703
tp244
a(S'p1_vo'
I6
tp245
a(S'w'
I10
tp246
a(S'w'
I10
tp247
a(S'tr_lr'
I116
tp248
a(S'w'
I11
tp249
a(S'w'
I703
tp250
a(S'p1_vo'
I5
tp251
a(S'w'
I10
tp252
a(S'w'
I21
tp253
a(S'w'
I708
tp254
a(S'w'
I10
tp255
a(S'p2_vo'
I6
tp256
a(S'w'
I21
tp257
a(S'w'
I697
tp258
a(S'p1_vo'
I4
tp259
a(S'w'
I10
tp260
a(S'p2_vo'
I5
tp261
a(S'w'
I10
tp262
a(S'tr_lr'
I0
tp263
a(S'w'
I11
tp264
a(S'w'
I703
tp265
a(S'w'
I10
tp266
a(S'p2_vo'
I4
tp267
a(S'w'
I21
tp268
a(S'w'
I703
tp269
a(S'p1_vo'
I3
tp270
a(S'w'
I10
tp271
a(S'w'
I21
tp272
a(S'w'
I703
tp273
a(S'w'
I10
tp274
a(S'w'
I20
tp275
a(S'w'
I704
tp276
a(S'w'
I9
tp277
a(S'p2_vo'
I3
tp278
a(S'w'
I1
tp279
a(S'w'
I20
tp280
a(S'w'
I703
tp281
a(S'p1_vo'
I2
tp282
a(S'w'
I10
tp283
a(S'w'
I21
tp284
a(S'w'
I704
tp285
a(S'w'
I10
tp286
a(S'w'
I21
tp287
a(S'w'
I705
tp288
a(S'w'
I10
tp289
a(S'w'
I14
tp290
a(S'tr_lr'
I123
tp291
a(S'tr_tl'
I171
tp292
a(S'tr_ll'
I0
tp293
a(S'w'
I17
tp294
a(S'no_vo'
I11
tp295
a(S'no_np'
I14
tp296
a(S'w'
I1
tp297
a(S'no_ll'
I0
tp298
a(S'w'
I690
tp299
a(S'w'
I9
tp300
a(S'p2_vo'
I4
tp301
a(S'w'
I10
tp302
a(S'tr_lr'
I117
tp303
a(S'w'
I10
tp304
a(S'no_vo'
I5
tp305
a(S'w'
I704
tp306
a(S'w'
I10
tp307
a(S'p2_vo'
I5
tp308
a(S'w'
I10
tp309
a(S'tr_lr'
I116
tp310
a(S'w'
I10
tp311
a(S'no_vo'
I4
tp312
a(S'w'
I704
tp313
a(S'w'
I10
tp314
a(S'w'
I20
tp315
a(S'w'
I704
tp316
a(S'w'
I10
tp317
a(S'p2_vo'
I4
tp318
a(S'w'
I1
tp319
a(S'w'
I20
tp320
a(S'w'
I703
tp321
a(S'w'
I9
tp322
a(S'p2_vo'
I3
tp323
a(S'w'
I1
tp324
a(S'w'
I10
tp325
a(S'tr_lr'
I0
tp326
a(S'w'
I10
tp327
a(S'no_vo'
I3
tp328
a(S'w'
I704
tp329
a(S'w'
I9
tp330
a(S'w'
I20
tp331
a(S'w'
I704
tp332
a(S'w'
I10
tp333
a(S'w'
I20
tp334
a(S'w'
I710
tp335
a(S'w'
I9
tp336
a(S'w'
I20
tp337
a(S'no_vo'
I0
tp338
a(S'w'
I1
tp339
a(S'w'
I698
tp340
a(S'w'
I10
tp341
a(S'p2_vo'
I4
tp342
a(S'w'
I20
tp343
a(S'w'
I704
tp344
a(S'w'
I9
tp345
a(S'p2_vo'
I5
tp346
a(S'w'
I1
tp347
a(S'w'
I20
tp348
a(S'w'
I704
tp349
a(S'w'
I9
tp350
a(S'w'
I20
tp351
a(S'w'
I704
tp352
a(S'w'
I11
tp353
a(S'p2_vo'
I4
tp354
a(S'w'
I14
tp355
a(S'tr_lr'
I123
tp356
a(S'w'
I1
tp357
a(S'tr_ll'
I0
tp358
a(S'w'
I9
tp359
a(S'w'
I699
tp360
a(S'w'
I10
tp361
a(S'p2_vo'
I3
tp362
a(S'w'
I10
tp363
a(S'tr_lr'
I117
tp364
a(S'w'
I11
tp365
a(S'w'
I703
tp366
a(S'w'
I10
tp367
a(S'w'
I10
tp368
a(S'tr_lr'
I116
tp369
a(S'w'
I11
tp370
a(S'w'
I703
tp371
a(S'w'
I10
tp372
a(S'w'
I20
tp373
a(S'w'
I706
tp374
a(S'w'
I10
tp375
a(S'w'
I21
tp376
a(S'w'
I700
tp377
a(S'w'
I10
tp378
a(S'p2_vo'
I4
tp379
a(S'w'
I10
tp380
a(S'tr_lr'
I115
tp381
a(S'w'
I11
tp382
a(S'w'
I703
tp383
a(S'w'
I10
tp384
a(S'p2_vo'
I5
tp385
a(S'w'
I21
tp386
a(S'w'
I703
tp387
a(S'w'
I10
tp388
a(S'w'
I21
tp389
a(S'w'
I703
tp390
a(S'w'
I10
tp391
a(S'p2_vo'
I4
tp392
a(S'w'
I21
tp393
a(S'w'
I703
tp394
a(S'w'
I9
tp395
a(S'p2_vo'
I3
tp396
a(S'w'
I10
tp397
a(S'tr_lr'
I114
tp398
a(S'w'
I11
tp399
a(S'w'
I703
tp400
a(S'w'
I10
tp401
a(S'w'
I21
tp402
a(S'w'
I703
tp403
a(S'w'
I10
tp404
a(S'w'
I10
tp405
a(S'tr_lr'
I0
tp406
a(S'w'
I11
tp407
a(S'w'
I708
tp408
a(S'w'
I10
tp409
a(S'w'
I23
tp410
a(S'no_vo'
I11
tp411
a(S'no_np'
I9
tp412
a(S'w'
I1
tp413
a(S'no_ll'
I0
tp414
a(S'w'
I695
tp415
a(S'w'
I9
tp416
a(S'p2_vo'
I4
tp417
a(S'w'
I1
tp418
a(S'w'
I20
tp419
a(S'no_vo'
I5
tp420
a(S'w'
I704
tp421
a(S'w'
I9
tp422
a(S'p2_vo'
I5
tp423
a(S'w'
I21
tp424
a(S'no_vo'
I4
tp425
a(S'w'
I703
tp426
a(S'w'
I10
tp427
a(S'w'
I21
tp428
a(S'w'
I703
tp429
a(S'w'
I11
tp430
a(S'p2_vo'
I4
tp431
a(S'w'
I20
tp432
a(S'w'
I703
tp433
a(S'w'
I10
tp434
a(S'p2_vo'
I3
tp435
a(S'w'
I20
tp436
a(S'no_vo'
I3
tp437
a(S'w'
I1
tp438
a(S'w'
I703
tp439
a(S'w'
I10
tp440
a(S'w'
I20
tp441
a(S'w'
I704
tp442
a(S'w'
I9
tp443
a(S'w'
I21
tp444
a(S'w'
I706
tp445
a(S'w'
I10
tp446
a(S'w'
I21
tp447
a(S'no_vo'
I0
tp448
a(S'w'
I700
tp449
a(S'w'
I10
tp450
a(S'p2_vo'
I4
tp451
a(S'w'
I21
tp452
a(S'w'
I703
tp453
a(S'w'
I10
tp454
a(S'p2_vo'
I5
tp455
a(S'w'
I21
tp456
a(S'w'
I703
tp457
a(S'w'
I10
tp458
a(S'w'
I20
tp459
a(S'w'
I704
tp460
a(S'w'
I10
tp461
a(S'p2_vo'
I4
tp462
a(S'w'
I14
tp463
a(S'tr_lr'
I123
tp464
a(S'w'
I1
tp465
a(S'tr_tl'
I223
tp466
a(S'tr_ll'
I0
tp467
a(S'w'
I10
tp468
a(S'w'
I698
tp469
a(S'w'
I10
tp470
a(S'p2_vo'
I3
tp471
a(S'w'
I10
tp472
a(S'tr_lr'
I117
tp473
a(S'w'
I11
tp474
a(S'w'
I704
tp475
a(S'w'
I10
tp476
a(S'p2_vo'
I2
tp477
a(S'w'
I10
tp478
a(S'tr_lr'
I116
tp479
a(S'w'
I11
tp480
a(S'w'
I703
tp481
a(S'w'
I10
tp482
a(S'w'
I21
tp483
a(S'w'
I708
tp484
a(S'w'
I10
tp485
a(S'w'
I21
tp486
a(S'w'
I697
tp487
a(S'w'
I10
tp488
a(S'w'
I10
tp489
a(S'tr_lr'
I115
tp490
a(S'w'
I11
tp491
a(S'w'
I703
tp492
a(S'w'
I10
tp493
a(S'w'
I21
tp494
a(S'w'
I703
tp495
a(S'w'
I10
tp496
a(S'w'
I10
tp497
a(S'tr_lr'
I0
tp498
a(S'w'
I11
tp499
a(S'w'
I703
tp500
a(S'w'
I11
tp501
a(S'w'
I20
tp502
a(S'w'
I702
tp503
a(S'w'
I11
tp504
a(S'w'
I20
tp505
a(S'w'
I703
tp506
a(S'w'
I10
tp507
a(S'w'
I21
tp508
a(S'w'
I703
tp509
a(S'w'
I10
tp510
a(S'w'
I21
tp511
a(S'w'
I708
tp512
a(S'p1_vo'
I8
tp513
a(S'p1_tl'
I238
tp514
a(S'w'
I1
tp515
a(S'p1_ll'
I0
tp516
a(S'p1_th'
I0
tp517
a(S'w'
I13
tp518
a(S'p2_vo'
I8
tp519
a(S'p2_tl'
I63
tp520
a(S'w'
I1
tp521
a(S'p2_ll'
I0
tp522
a(S'w'
I19
tp523
a(S'tr_lr'
I123
tp524
a(S'tr_tl'
I171
tp525
a(S'w'
I1
tp526
a(S'tr_ll'
I0
tp527
a(S'w'
I16
tp528
a(S'no_vo'
I11
tp529
a(S'no_np'
I14
tp530
a(S'w'
I1
tp531
a(S'no_ll'
I0
tp532
a(S'w'
I675
tp533
a(S'p1_vo'
I7
tp534
a(S'w'
I10
tp535
a(S'w'
I10
tp536
a(S'tr_lr'
I117
tp537
a(S'w'
I10
tp538
a(S'no_vo'
I5
tp539
a(S'w'
I704
tp540
a(S'p1_vo'
I6
tp541
a(S'w'
I10
tp542
a(S'w'
I10
tp543
a(S'tr_lr'
I116
tp544
a(S'w'
I10
tp545
a(S'no_vo'
I4
tp546
a(S'w'
I704
tp547
a(S'p1_vo'
I5
tp548
a(S'w'
I10
tp549
a(S'w'
I20
tp550
a(S'w'
I704
tp551
a(S'w'
I9
tp552
a(S'p2_vo'
I6
tp553
a(S'w'
I1
tp554
a(S'w'
I20
tp555
a(S'w'
I703
tp556
a(S'p1_vo'
I4
tp557
a(S'w'
I1
tp558
a(S'w'
I9
tp559
a(S'p2_vo'
I5
tp560
a(S'w'
I10
tp561
a(S'tr_lr'
I0
tp562
a(S'w'
I10
tp563
a(S'no_vo'
I3
tp564
a(S'w'
I1
tp565
a(S'w'
I703
tp566
a(S'w'
I10
tp567
a(S'p2_vo'
I4
tp568
a(S'w'
I20
tp569
a(S'w'
I704
tp570
a(S'p1_vo'
I3
tp571
a(S'w'
I10
tp572
a(S'w'
I20
tp573
a(S'w'
I709
tp574
a(S'w'
I10
tp575
a(S'w'
I20
tp576
a(S'no_vo'
I0
tp577
a(S'w'
I699
tp578
a(S'w'
I9
tp579
a(S'p2_vo'
I3
tp580
a(S'w'
I1
tp581
a(S'w'
I20
tp582
a(S'w'
I703
tp583
a(S'p1_vo'
I2
tp584
a(S'w'
I1
tp585
a(S'w'
I9
tp586
a(S'w'
I20
tp587
a(S'w'
I705
tp588
a(S'w'
I10
tp589
a(S'w'
I20
tp590
a(S'w'
I707
tp591
a(S'p1_vo'
I8
tp592
a(S'p1_tl'
I212
tp593
a(S'w'
I1
tp594
a(S'p1_ll'
I0
tp595
a(S'w'
I14
tp596
a(S'p2_vo'
I8
tp597
a(S'p2_tl'
I28
tp598
a(S'p2_ll'
I0
tp599
a(S'w'
I14
tp600
a(S'tr_lr'
I123
tp601
a(S'w'
I1
tp602
a(S'tr_ll'
I0
tp603
a(S'w'
I9
tp604
a(S'w'
I691
tp605
a(S'p1_vo'
I7
tp606
a(S'w'
I10
tp607
a(S'w'
I10
tp608
a(S'tr_lr'
I117
tp609
a(S'w'
I11
tp610
a(S'w'
I703
tp611
a(S'p1_vo'
I6
tp612
a(S'w'
I10
tp613
a(S'w'
I10
tp614
a(S'tr_lr'
I116
tp615
a(S'w'
I10
tp616
a(S'w'
I703
tp617
a(S'p1_vo'
I5
tp618
a(S'w'
I1
tp619
a(S'w'
I9
tp620
a(S'w'
I21
tp621
a(S'w'
I706
tp622
a(S'w'
I10
tp623
a(S'p2_vo'
I6
tp624
a(S'w'
I21
tp625
a(S'w'
I700
tp626
a(S'p1_vo'
I4
tp627
a(S'w'
I10
tp628
a(S'p2_vo'
I5
tp629
a(S'w'
I10
tp630
a(S'tr_lr'
I115
tp631
a(S'w'
I11
tp632
a(S'w'
I703
tp633
a(S'w'
I10
tp634
a(S'p2_vo'
I4
tp635
a(S'w'
I21
tp636
a(S'w'
I703
tp637
a(S'p1_vo'
I3
tp638
a(S'w'
I10
tp639
a(S'w'
I20
tp640
a(S'w'
I704
tp641
a(S'w'
I9
tp642
a(S'w'
I21
tp643
a(S'w'
I703
tp644
a(S'w'
I10
tp645
a(S'p2_vo'
I3
tp646
a(S'w'
I10
tp647
a(S'tr_lr'
I114
tp648
a(S'w'
I11
tp649
a(S'w'
I703
tp650
a(S'p1_vo'
I2
tp651
a(S'w'
I10
tp652
a(S'w'
I10
tp653
a(S'tr_lr'
I0
tp654
a(S'w'
I11
tp655
a(S'w'
I704
tp656
a(S'w'
I11
tp657
a(S'p2_vo'
I2
tp658
a(S'w'
I21
tp659
a(S'w'
I707
tp660
a(S'w'
I11
tp661
a(S'w'
I23
tp662
a(S'no_vo'
I11
tp663
a(S'no_np'
I9
tp664
a(S'w'
I1
tp665
a(S'no_ll'
I0
tp666
a(S'w'
I694
tp667
a(S'w'
I10
tp668
a(S'w'
I21
tp669
a(S'no_vo'
I5
tp670
a(S'w'
I703
tp671
a(S'w'
I10
tp672
a(S'w'
I20
tp673
a(S'no_vo'
I4
tp674
a(S'w'
I1
tp675
a(S'w'
I702
tp676
a(S'w'
I11
tp677
a(S'w'
I20
tp678
a(S'w'
I703
tp679
a(S'w'
I11
tp680
a(S'w'
I21
tp681
a(S'w'
I702
tp682
a(S'w'
I10
tp683
a(S'w'
I21
tp684
a(S'no_vo'
I3
tp685
a(S'w'
I703
tp686
a(S'w'
I10
tp687
a(S'w'
I21
tp688
a(S'w'
I703
tp689
a(S'w'
I10
tp690
a(S'w'
I21
tp691
a(S'w'
I705
tp692
a(S'w'
I10
tp693
a(S'w'
I21
tp694
a(S'no_vo'
I0
tp695
a(S'w'
I700
tp696
a(S'w'
I11
tp697
a(S'w'
I20
tp698
a(S'w'
I703
tp699
a(S'w'
I10
tp700
a(S'w'
I21
tp701
a(S'w'
I703
tp702
a(S'w'
I10
tp703
a(S'w'
I21
tp704
a(S'w'
I705
tp705
a(S'p1_vo'
I8
tp706
a(S'p1_tl'
I178
tp707
a(S'w'
I1
tp708
a(S'p1_ll'
I0
tp709
a(S'w'
I13
tp710
a(S'p2_vo'
I8
tp711
a(S'p2_tl'
I238
tp712
a(S'w'
I1
tp713
a(S'p2_ll'
I0
tp714
a(S'p2_th'
I0
tp715
a(S'w'
I14
tp716
a(S'tr_lr'
I123
tp717
a(S'tr_tl'
I223
tp718
a(S'tr_ll'
I0
tp719
a(S'w'
I10
tp720
a(S'w'
I691
tp721
a(S'p1_vo'
I7
tp722
a(S'w'
I10
tp723
a(S'w'
I10
tp724
a(S'tr_lr'
I117
tp725
a(S'w'
I11
tp726
a(S'w'
I703
tp727
a(S'p1_vo'
I6
tp728
a(S'w'
I10
tp729
a(S'w'
I10
tp730
a(S'tr_lr'
I116
tp731
a(S'w'
I11
tp732
a(S'w'
I703
tp733
a(S'p1_vo'
I5
tp734
a(S'w'
I10
tp735
a(S'w'
I20
tp736
a(S'w'
I709
tp737
a(S'w'
I10
tp738
a(S'p2_vo'
I6
tp739
a(S'w'
I21
tp740
a(S'w'
I697
tp741
a(S'p1_vo'
I4
tp742
a(S'w'
I10
tp743
a(S'p2_vo'
I5
tp744
a(S'w'
I10
tp745
a(S'tr_lr'
I0
tp746
a(S'w'
I11
tp747
a(S'w'
I703
tp748
a(S'w'
I10
tp749
a(S'p2_vo'
I4
tp750
a(S'w'
I21
tp751
a(S'w'
I703
tp752
a(S'p1_vo'
I3
tp753
a(S'w'
I10
tp754
a(S'w'
I21
tp755
a(S'w'
I703
tp756
a(S'w'
I10
tp757
a(S'w'
I20
tp758
a(S'w'
I704
tp759
a(S'w'
I9
tp760
a(S'p2_vo'
I3
tp761
a(S'w'
I21
tp762
a(S'w'
I703
tp763
a(S'p1_vo'
I2
tp764
a(S'w'
I10
tp765
a(S'w'
I21
tp766
a(S'w'
I704
tp767
a(S'w'
I10
tp768
a(S'w'
I20
tp769
a(S'w'
I706
tp770
a(S'w'
I10
tp771
a(S'w'
I14
tp772
a(S'tr_lr'
I123
tp773
a(S'tr_tl'
I171
tp774
a(S'tr_ll'
I0
tp775
a(S'w'
I17
tp776
a(S'no_vo'
I11
tp777
a(S'no_np'
I14
tp778
a(S'no_ll'
I0
tp779
a(S'w'
I691
tp780
a(S'w'
I9
tp781
a(S'p2_vo'
I4
tp782
a(S'w'
I10
tp783
a(S'tr_lr'
I117
tp784
a(S'w'
I10
tp785
a(S'no_vo'
I5
tp786
a(S'w'
I704
tp787
a(S'w'
I10
tp788
a(S'p2_vo'
I5
tp789
a(S'w'
I10
tp790
a(S'tr_lr'
I116
tp791
a(S'w'
I10
tp792
a(S'no_vo'
I4
tp793
a(S'w'
I704
tp794
a(S'w'
I10
tp795
a(S'w'
I20
tp796
a(S'w'
I704
tp797
a(S'w'
I10
tp798
a(S'p2_vo'
I4
tp799
a(S'w'
I21
tp800
a(S'w'
I703
tp801
a(S'w'
I9
tp802
a(S'p2_vo'
I3
tp803
a(S'w'
I1
tp804
a(S'w'
I10
tp805
a(S'tr_lr'
I0
tp806
a(S'w'
I10
tp807
a(S'no_vo'
I3
tp808
a(S'w'
I704
tp809
a(S'w'
I9
tp810
a(S'w'
I20
tp811
a(S'w'
I704
tp812
a(S'w'
I10
tp813
a(S'w'
I20
tp814
a(S'w'
I709
tp815
a(S'w'
I10
tp816
a(S'w'
I20
tp817
a(S'no_vo'
I0
tp818
a(S'w'
I699
tp819
a(S'w'
I10
tp820
a(S'p2_vo'
I4
tp821
a(S'w'
I20
tp822
a(S'w'
I704
tp823
a(S'w'
I9
tp824
a(S'p2_vo'
I5
tp825
a(S'w'
I1
tp826
a(S'w'
I20
tp827
a(S'w'
I704
tp828
a(S'w'
I9
tp829
a(S'w'
I20
tp830
a(S'w'
I708
tp831
a(S'p1_vo'
I8
tp832
a(S'p1_tl'
I189
tp833
a(S'p1_ll'
I0
tp834
a(S'w'
I14
tp835
a(S'p2_vo'
I8
tp836
a(S'p2_tl'
I253
tp837
a(S'w'
I1
tp838
a(S'p2_ll'
I0
tp839
a(S'w'
I14
tp840
a(S'tr_lr'
I123
tp841
a(S'tr_ll'
I0
tp842
a(S'w'
I10
tp843
a(S'w'
I690
tp844
a(S'p1_vo'
I7
tp845
a(S'w'
I10
tp846
a(S'w'
I10
tp847
a(S'tr_lr'
I117
tp848
a(S'w'
I11
tp849
a(S'w'
I703
tp850
a(S'p1_vo'
I6
tp851
a(S'w'
I10
tp852
a(S'w'
I10
tp853
a(S'tr_lr'
I116
tp854
a(S'w'
I11
tp855
a(S'w'
I703
tp856
a(S'p1_vo'
I5
tp857
a(S'w'
I10
tp858
a(S'w'
I21
tp859
a(S'w'
I705
tp860
a(S'w'
I10
tp861
a(S'p2_vo'
I6
tp862
a(S'w'
I21
tp863
a(S'w'
I700
tp864
a(S'p1_vo'
I4
tp865
a(S'w'
I1
tp866
a(S'w'
I9
tp867
a(S'p2_vo'
I5
tp868
a(S'w'
I10
tp869
a(S'tr_lr'
I115
tp870
a(S'w'
I11
tp871
a(S'w'
I703
tp872
a(S'w'
I10
tp873
a(S'p2_vo'
I4
tp874
a(S'w'
I21
tp875
a(S'w'
I703
tp876
a(S'p1_vo'
I3
tp877
a(S'w'
I10
tp878
a(S'w'
I21
tp879
a(S'w'
I703
tp880
a(S'w'
I10
tp881
a(S'w'
I21
tp882
a(S'w'
I703
tp883
a(S'w'
I9
tp884
a(S'p2_vo'
I3
tp885
a(S'w'
I1
tp886
a(S'w'
I10
tp887
a(S'tr_lr'
I114
tp888
a(S'w'
I10
tp889
a(S'w'
I703
tp890
a(S'p1_vo'
I2
tp891
a(S'w'
I1
tp892
a(S'w'
I9
tp893
a(S'w'
I21
tp894
a(S'w'
I704
tp895
a(S'w'
I10
tp896
a(S'w'
I10
tp897
a(S'tr_lr'
I0
tp898
a(S'w'
I11
tp899
a(S'w'
I711
tp900
a(S'p1_vo'
I8
tp901
a(S'w'
I1
tp902
a(S'p1_tl'
I212
tp903
a(S'p1_ll'
I0
tp904
a(S'w'
I14
tp905
a(S'p2_vo'
I8
tp906
a(S'p2_tl'
I28
tp907
a(S'p2_ll'
I0
tp908
a(S'p2_th'
I1
tp909
a(S'w'
I23
tp910
a(S'no_vo'
I11
tp911
a(S'no_np'
I9
tp912
a(S'w'
I1
tp913
a(S'no_ll'
I0
tp914
a(S'w'
I686
tp915
a(S'p1_vo'
I7
tp916
a(S'w'
I10
tp917
a(S'w'
I20
tp918
a(S'no_vo'
I5
tp919
a(S'w'
I1
tp920
a(S'w'
I703
tp921
a(S'p1_vo'
I6
tp922
a(S'w'
I10
tp923
a(S'w'
I20
tp924
a(S'no_vo'
I4
tp925
a(S'w'
I703
tp926
a(S'p1_vo'
I5
tp927
a(S'w'
I1
tp928
a(S'w'
I10
tp929
a(S'w'
I20
tp930
a(S'w'
I704
tp931
a(S'p1_vo'
I2
tp932
a(S'w'
I10
tp933
a(S'p2_vo'
I2
tp934
a(S'w'
I1
tp935
a(S'w'
I20
tp936
a(S'w'
I703
tp937
a(S'w'
I10
tp938
a(S'w'
I21
tp939
a(S'no_vo'
I3
tp940
a(S'w'
I703
tp941
a(S'w'
I10
tp942
a(S'w'
I21
tp943
a(S'w'
I702
tp944
a(S'w'
I11
tp945
a(S'w'
I20
tp946
a(S'w'
I706
tp947
a(S'w'
I10
tp948
a(S'w'
I21
tp949
a(S'no_vo'
I0
tp950
a(S'w'
I700
tp951
a(S'w'
I10
tp952
a(S'w'
I21
tp953
a(S'w'
I703
tp954
a(S'w'
I10
tp955
a(S'w'
I21
tp956
a(S'w'
I703
tp957
a(S'w'
I11
tp958
a(S'w'
I20
tp959
a(S'w'
I705
tp960
a(S'p1_vo'
I8
tp961
a(S'p1_tl'
I238
tp962
a(S'w'
I1
tp963
a(S'p1_ll'
I0
tp964
a(S'w'
I12
tp965
a(S'p2_vo'
I8
tp966
a(S'p2_tl'
I63
tp967
a(S'w'
I1
tp968
a(S'p2_ll'
I0
tp969
a(S'w'
I14
tp970
a(S'tr_lr'
I123
tp971
a(S'tr_tl'
I223
tp972
a(S'w'
I1
tp973
a(S'tr_ll'
I0
tp974
a(S'w'
I9
tp975
a(S'w'
I692
tp976
a(S'p1_vo'
I7
tp977
a(S'w'
I1
tp978
a(S'w'
I10
tp979
a(S'w'
I10
tp980
a(S'tr_lr'
I117
tp981
a(S'w'
I10
tp982
a(S'w'
I703
tp983
a(S'p1_vo'
I6
tp984
a(S'w'
I10
tp985
a(S'w'
I10
tp986
a(S'tr_lr'
I116
tp987
a(S'w'
I11
tp988
a(S'w'
I703
tp989
a(S'p1_vo'
I5
tp990
a(S'w'
I10
tp991
a(S'w'
I21
tp992
a(S'w'
I709
tp993
a(S'p1_vo'
I2
tp994
a(S'w'
I10
tp995
a(S'p2_vo'
I2
tp996
a(S'w'
I21
tp997
a(S'w'
I697
tp998
a(S'w'
I11
tp999
a(S'w'
I10
tp1000
a(S'tr_lr'
I115
tp1001
a(S'w'
I10
tp1002
a(S'w'
I703
tp1003
a(S'w'
I10
tp1004
a(S'w'
I21
tp1005
a(S'w'
I703
tp1006
a(S'w'
I10
tp1007
a(S'w'
I10
tp1008
a(S'tr_lr'
I0
tp1009
a(S'w'
I11
tp1010
a(S'w'
I703
tp1011
a(S'w'
I10
tp1012
a(S'w'
I21
tp1013
a(S'w'
I703
tp1014
a(S'w'
I10
tp1015
a(S'w'
I21
tp1016
a(S'w'
I702
tp1017
a(S'w'
I11
tp1018
a(S'w'
I20
tp1019
a(S'w'
I704
tp1020
a(S'w'
I10
tp1021
a(S'w'
I21
tp1022
a(S'w'
I710
tp1023
a(S'p1_vo'
I8
tp1024
a(S'w'
I1
tp1025
a(S'p1_ll'
I0
tp1026
a(S'w'
I15
tp1027
a(S'p2_vo'
I8
tp1028
a(S'p2_ll'
I0
tp1029
a(S'w'
I19
tp1030
a(S'tr_lr'
I123
tp1031
a(S'tr_tl'
I171
tp1032
a(S'w'
I1
tp1033
a(S'tr_ll'
I0
tp1034
a(S'w'
I17
tp1035
a(S'no_vo'
I11
tp1036
a(S'no_np'
I14
tp1037
a(S'no_ll'
I0
tp1038
a(S'w'
I672
tp1039
a(S'p1_vo'
I7
tp1040
a(S'w'
I10
tp1041
a(S'w'
I10
tp1042
a(S'tr_lr'
I117
tp1043
a(S'w'
I10
tp1044
a(S'no_vo'
I5
tp1045
a(S'w'
I704
tp1046
a(S'p1_vo'
I6
tp1047
a(S'w'
I10
tp1048
a(S'w'
I10
tp1049
a(S'tr_lr'
I116
tp1050
a(S'w'
I10
tp1051
a(S'no_vo'
I4
tp1052
a(S'w'
I704
tp1053
a(S'p1_vo'
I5
tp1054
a(S'w'
I10
tp1055
a(S'w'
I20
tp1056
a(S'w'
I704
tp1057
a(S'w'
I9
tp1058
a(S'p2_vo'
I6
tp1059
a(S'w'
I1
tp1060
a(S'w'
I20
tp1061
a(S'w'
I703
tp1062
a(S'p1_vo'
I4
tp1063
a(S'w'
I10
tp1064
a(S'p2_vo'
I5
tp1065
a(S'w'
I10
tp1066
a(S'tr_lr'
I0
tp1067
a(S'w'
I10
tp1068
a(S'no_vo'
I3
tp1069
a(S'w'
I704
tp1070
a(S'w'
I10
tp1071
a(S'p2_vo'
I4
tp1072
a(S'w'
I20
tp1073
a(S'w'
I704
tp1074
a(S'p1_vo'
I3
tp1075
a(S'w'
I10
tp1076
a(S'w'
I20
tp1077
a(S'w'
I709
tp1078
a(S'w'
I10
tp1079
a(S'w'
I20
tp1080
a(S'no_vo'
I0
tp1081
a(S'w'
I699
tp1082
a(S'w'
I9
tp1083
a(S'p2_vo'
I3
tp1084
a(S'w'
I1
tp1085
a(S'w'
I20
tp1086
a(S'w'
I703
tp1087
a(S'p1_vo'
I2
tp1088
a(S'w'
I10
tp1089
a(S'w'
I20
tp1090
a(S'w'
I705
tp1091
a(S'w'
I10
tp1092
a(S'w'
I20
tp1093
a(S'w'
I707
tp1094
a(S'p1_vo'
I8
tp1095
a(S'p1_tl'
I212
tp1096
a(S'w'
I1
tp1097
a(S'p1_ll'
I0
tp1098
a(S'w'
I13
tp1099
a(S'p2_vo'
I8
tp1100
a(S'w'
I1
tp1101
a(S'p2_tl'
I28
tp1102
a(S'p2_ll'
I0
tp1103
a(S'w'
I14
tp1104
a(S'tr_lr'
I123
tp1105
a(S'w'
I1
tp1106
a(S'tr_ll'
I0
tp1107
a(S'w'
I9
tp1108
a(S'w'
I691
tp1109
a(S'p1_vo'
I7
tp1110
a(S'w'
I10
tp1111
a(S'w'
I10
tp1112
a(S'tr_lr'
I117
tp1113
a(S'w'
I11
tp1114
a(S'w'
I703
tp1115
a(S'p1_vo'
I6
tp1116
a(S'w'
I10
tp1117
a(S'w'
I10
tp1118
a(S'tr_lr'
I116
tp1119
a(S'w'
I10
tp1120
a(S'w'
I703
tp1121
a(S'p1_vo'
I5
tp1122
a(S'w'
I10
tp1123
a(S'w'
I21
tp1124
a(S'w'
I706
tp1125
a(S'w'
I10
tp1126
a(S'p2_vo'
I6
tp1127
a(S'w'
I21
tp1128
a(S'w'
I700
tp1129
a(S'p1_vo'
I4
tp1130
a(S'w'
I10
tp1131
a(S'p2_vo'
I5
tp1132
a(S'w'
I10
tp1133
a(S'tr_lr'
I115
tp1134
a(S'w'
I11
tp1135
a(S'w'
I703
tp1136
a(S'w'
I10
tp1137
a(S'p2_vo'
I4
tp1138
a(S'w'
I21
tp1139
a(S'w'
I702
tp1140
a(S'p1_vo'
I3
tp1141
a(S'w'
I1
tp1142
a(S'w'
I10
tp1143
a(S'w'
I20
tp1144
a(S'w'
I704
tp1145
a(S'w'
I9
tp1146
a(S'w'
I21
tp1147
a(S'w'
I704
tp1148
a(S'p1_vo'
I2
tp1149
a(S'w'
I10
tp1150
a(S'p2_vo'
I2
tp1151
a(S'w'
I10
tp1152
a(S'tr_lr'
I114
tp1153
a(S'w'
I11
tp1154
a(S'w'
I703
tp1155
a(S'w'
I10
tp1156
a(S'w'
I10
tp1157
a(S'tr_lr'
I0
tp1158
a(S'w'
I11
tp1159
a(S'w'
I703
tp1160
a(S'w'
I10
tp1161
a(S'w'
I21
tp1162
a(S'w'
I708
tp1163
a(S'w'
I11
tp1164
a(S'w'
I23
tp1165
a(S'no_vo'
I11
tp1166
a(S'no_np'
I9
tp1167
a(S'no_ll'
I0
tp1168
a(S'w'
I695
tp1169
a(S'w'
I10
tp1170
a(S'w'
I21
tp1171
a(S'no_vo'
I5
tp1172
a(S'w'
I703
tp1173
a(S'w'
I10
tp1174
a(S'w'
I20
tp1175
a(S'no_vo'
I4
tp1176
a(S'w'
I1
tp1177
a(S'w'
I702
tp1178
a(S'w'
I11
tp1179
a(S'w'
I20
tp1180
a(S'w'
I703
tp1181
a(S'w'
I11
tp1182
a(S'w'
I21
tp1183
a(S'w'
I702
tp1184
a(S'w'
I10
tp1185
a(S'w'
I21
tp1186
a(S'no_vo'
I3
tp1187
a(S'w'
I703
tp1188
a(S'w'
I10
tp1189
a(S'w'
I21
tp1190
a(S'w'
I703
tp1191
a(S'w'
I10
tp1192
a(S'w'
I21
tp1193
a(S'w'
I705
tp1194
a(S'w'
I10
tp1195
a(S'w'
I21
tp1196
a(S'no_vo'
I0
tp1197
a(S'w'
I700
tp1198
a(S'w'
I10
tp1199
a(S'w'
I21
tp1200
a(S'w'
I703
tp1201
a(S'w'
I10
tp1202
a(S'w'
I21
tp1203
a(S'w'
I703
tp1204
a(S'w'
I10
tp1205
a(S'w'
I21
tp1206
a(S'w'
I705
tp1207
a(S'p1_vo'
I8
tp1208
a(S'p1_tl'
I28
tp1209
a(S'w'
I1
tp1210
a(S'p1_ll'
I0
tp1211
a(S'p1_th'
I1
tp1212
a(S'w'
I13
tp1213
a(S'p2_vo'
I8
tp1214
a(S'p2_tl'
I124
tp1215
a(S'w'
I1
tp1216
a(S'p2_ll'
I0
tp1217
a(S'w'
I13
tp1218
a(S'tr_lr'
I123
tp1219
a(S'w'
I1
tp1220
a(S'tr_tl'
I223
tp1221
a(S'tr_ll'
I0
tp1222
a(S'w'
I10
tp1223
a(S'w'
I691
tp1224
a(S'p1_vo'
I7
tp1225
a(S'w'
I10
tp1226
a(S'w'
I10
tp1227
a(S'tr_lr'
I117
tp1228
a(S'w'
I11
tp1229
a(S'w'
I703
tp1230
a(S'p1_vo'
I6
tp1231
a(S'w'
I10
tp1232
a(S'w'
I10
tp1233
a(S'tr_lr'
I116
tp1234
a(S'w'
I11
tp1235
a(S'w'
I703
tp1236
a(S'p1_vo'
I5
tp1237
a(S'w'
I10
tp1238
a(S'w'
I20
tp1239
a(S'w'
I709
tp1240
a(S'w'
I9
tp1241
a(S'p2_vo'
I6
tp1242
a(S'w'
I1
tp1243
a(S'w'
I20
tp1244
a(S'w'
I698
tp1245
a(S'p1_vo'
I4
tp1246
a(S'w'
I10
tp1247
a(S'p2_vo'
I5
tp1248
a(S'w'
I10
tp1249
a(S'tr_lr'
I0
tp1250
a(S'w'
I11
tp1251
a(S'w'
I703
tp1252
a(S'w'
I10
tp1253
a(S'p2_vo'
I4
tp1254
a(S'w'
I21
tp1255
a(S'w'
I703
tp1256
a(S'p1_vo'
I3
tp1257
a(S'w'
I10
tp1258
a(S'w'
I21
tp1259
a(S'w'
I703
tp1260
a(S'w'
I10
tp1261
a(S'w'
I20
tp1262
a(S'w'
I704
tp1263
a(S'w'
I9
tp1264
a(S'p2_vo'
I3
tp1265
a(S'w'
I21
tp1266
a(S'w'
I703
tp1267
a(S'p1_vo'
I2
tp1268
a(S'w'
I10
tp1269
a(S'w'
I21
tp1270
a(S'w'
I704
tp1271
a(S'w'
I10
tp1272
a(S'w'
I20
tp1273
a(S'w'
I706
tp1274
a(S'w'
I10
tp1275
a(S'w'
I13
tp1276
a(S'tr_lr'
I123
tp1277
a(S'w'
I1
tp1278
a(S'tr_tl'
I171
tp1279
a(S'tr_ll'
I0
tp1280
a(S'w'
I17
tp1281
a(S'no_vo'
I11
tp1282
a(S'no_np'
I14
tp1283
a(S'no_ll'
I0
tp1284
a(S'w'
I690
tp1285
a(S'w'
I10
tp1286
a(S'p2_vo'
I4
tp1287
a(S'w'
I10
tp1288
a(S'tr_lr'
I117
tp1289
a(S'w'
I10
tp1290
a(S'no_vo'
I5
tp1291
a(S'w'
I704
tp1292
a(S'w'
I10
tp1293
a(S'p2_vo'
I5
tp1294
a(S'w'
I10
tp1295
a(S'tr_lr'
I116
tp1296
a(S'w'
I10
tp1297
a(S'no_vo'
I4
tp1298
a(S'w'
I704
tp1299
a(S'w'
I10
tp1300
a(S'w'
I20
tp1301
a(S'w'
I704
tp1302
a(S'w'
I10
tp1303
a(S'p2_vo'
I4
tp1304
a(S'w'
I21
tp1305
a(S'w'
I703
tp1306
a(S'w'
I9
tp1307
a(S'p2_vo'
I3
tp1308
a(S'w'
I11
tp1309
a(S'tr_lr'
I0
tp1310
a(S'w'
I9
tp1311
a(S'no_vo'
I3
tp1312
a(S'w'
I1
tp1313
a(S'w'
I703
tp1314
a(S'w'
I10
tp1315
a(S'w'
I20
tp1316
a(S'w'
I704
tp1317
a(S'w'
I10
tp1318
a(S'w'
I20
tp1319
a(S'w'
I709
tp1320
a(S'w'
I10
tp1321
a(S'w'
I20
tp1322
a(S'no_vo'
I0
tp1323
a(S'w'
I699
tp1324
a(S'w'
I10
tp1325
a(S'p2_vo'
I4
tp1326
a(S'w'
I20
tp1327
a(S'w'
I704
tp1328
a(S'w'
I11
tp1329
a(S'p2_vo'
I2
tp1330
a(S'w'
I20
tp1331
a(S'w'
I703
tp1332
a(S'w'
I10
tp1333
a(S'w'
I20
tp1334
a(S'w'
I706
tp1335
a(S'p1_vo'
I8
tp1336
a(S'w'
I1
tp1337
a(S'p1_tl'
I45
tp1338
a(S'p1_ll'
I0
tp1339
a(S'w'
I14
tp1340
a(S'p2_vo'
I8
tp1341
a(S'p2_tl'
I147
tp1342
a(S'p2_ll'
I0
tp1343
a(S'w'
I14
tp1344
a(S'tr_lr'
I123
tp1345
a(S'w'
I1
tp1346
a(S'tr_ll'
I0
tp1347
a(S'w'
I9
tp1348
a(S'w'
I691
tp1349
a(S'p1_vo'
I7
tp1350
a(S'w'
I10
tp1351
a(S'w'
I10
tp1352
a(S'tr_lr'
I117
tp1353
a(S'w'
I11
tp1354
a(S'w'
I703
tp1355
a(S'p1_vo'
I6
tp1356
a(S'w'
I10
tp1357
a(S'w'
I10
tp1358
a(S'tr_lr'
I116
tp1359
a(S'w'
I11
tp1360
a(S'w'
I703
tp1361
a(S'p1_vo'
I5
tp1362
a(S'w'
I10
tp1363
a(S'w'
I21
tp1364
a(S'w'
I705
tp1365
a(S'w'
I9
tp1366
a(S'p2_vo'
I6
tp1367
a(S'w'
I20
tp1368
a(S'w'
I702
tp1369
a(S'p1_vo'
I4
tp1370
a(S'w'
I1
tp1371
a(S'w'
I9
tp1372
a(S'p2_vo'
I5
tp1373
a(S'w'
I10
tp1374
a(S'tr_lr'
I115
tp1375
a(S'w'
I11
tp1376
a(S'w'
I703
tp1377
a(S'w'
I10
tp1378
a(S'p2_vo'
I4
tp1379
a(S'w'
I21
tp1380
a(S'w'
I703
tp1381
a(S'p1_vo'
I3
tp1382
a(S'w'
I10
tp1383
a(S'w'
I21
tp1384
a(S'w'
I703
tp1385
a(S'w'
I10
tp1386
a(S'w'
I21
tp1387
a(S'w'
I703
tp1388
a(S'p1_vo'
I2
tp1389
a(S'w'
I11
tp1390
a(S'p2_vo'
I2
tp1391
a(S'w'
I10
tp1392
a(S'tr_lr'
I114
tp1393
a(S'w'
I11
tp1394
a(S'w'
I702
tp1395
a(S'w'
I10
tp1396
a(S'w'
I21
tp1397
a(S'w'
I704
tp1398
a(S'w'
I10
tp1399
a(S'w'
I21
tp1400
a(S'w'
I708
tp1401
a(S'w'
I10
tp1402
a(S'w'
I10
tp1403
a(S'tr_lr'
I0
tp1404
a(S'w'
I11
tp1405
a(S'w'
I699
tp1406
a(S'p1_vo'
I8
tp1407
a(S'p1_tl'
I63
tp1408
a(S'w'
I1
tp1409
a(S'p1_ll'
I0
tp1410
a(S'w'
I12
tp1411
a(S'p2_vo'
I8
tp1412
a(S'w'
I1
tp1413
a(S'p2_tl'
I171
tp1414
a(S'p2_ll'
I0
tp1415
a(S'w'
I24
tp1416
a(S'no_vo'
I11
tp1417
a(S'no_np'
I9
tp1418
a(S'no_ll'
I0
tp1419
a(S'w'
I693
tp1420
a(S'p1_vo'
I7
tp1421
a(S'w'
I10
tp1422
a(S'w'
I20
tp1423
a(S'no_vo'
I5
tp1424
a(S'w'
I703
tp1425
a(S'p1_vo'
I6
tp1426
a(S'w'
I1
tp1427
a(S'w'
I9
tp1428
a(S'w'
I21
tp1429
a(S'no_vo'
I4
tp1430
a(S'w'
I703
tp1431
a(S'p1_vo'
I5
tp1432
a(S'w'
I10
tp1433
a(S'w'
I21
tp1434
a(S'w'
I703
tp1435
a(S'w'
I10
tp1436
a(S'p2_vo'
I6
tp1437
a(S'w'
I21
tp1438
a(S'w'
I703
tp1439
a(S'p1_vo'
I4
tp1440
a(S'w'
I10
tp1441
a(S'p2_vo'
I5
tp1442
a(S'w'
I20
tp1443
a(S'no_vo'
I3
tp1444
a(S'w'
I1
tp1445
a(S'w'
I703
tp1446
a(S'w'
I9
tp1447
a(S'p2_vo'
I4
tp1448
a(S'w'
I1
tp1449
a(S'w'
I20
tp1450
a(S'w'
I706
tp1451
a(S'p1_vo'
I3
tp1452
a(S'w'
I10
tp1453
a(S'w'
I21
tp1454
a(S'w'
I701
tp1455
a(S'p1_vo'
I2
tp1456
a(S'w'
I10
tp1457
a(S'p2_vo'
I2
tp1458
a(S'w'
I1
tp1459
a(S'w'
I20
tp1460
a(S'no_vo'
I0
tp1461
a(S'w'
I703
tp1462
a(S'w'
I10
tp1463
a(S'w'
I21
tp1464
a(S'w'
I702
tp1465
a(S'w'
I11
tp1466
a(S'w'
I21
tp1467
a(S'w'
I703
tp1468
a(S'w'
I10
tp1469
a(S'w'
I21
tp1470
a(S'w'
I705
tp1471
a(S'p1_vo'
I8
tp1472
a(S'p1_tl'
I103
tp1473
a(S'p1_ll'
I0
tp1474
a(S'w'
I13
tp1475
a(S'p2_vo'
I8
tp1476
a(S'p2_tl'
I223
tp1477
a(S'w'
I1
tp1478
a(S'p2_ll'
I0
tp1479
a(S'w'
I14
tp1480
a(S'tr_lr'
I123
tp1481
a(S'tr_tl'
I223
tp1482
a(S'tr_ll'
I0
tp1483
a(S'w'
I10
tp1484
a(S'w'
I692
tp1485
a(S'p1_vo'
I7
tp1486
a(S'w'
I10
tp1487
a(S'w'
I10
tp1488
a(S'tr_lr'
I117
tp1489
a(S'w'
I11
tp1490
a(S'w'
I703
tp1491
a(S'p1_vo'
I6
tp1492
a(S'w'
I10
tp1493
a(S'w'
I10
tp1494
a(S'tr_lr'
I116
tp1495
a(S'w'
I11
tp1496
a(S'w'
I708
tp1497
a(S'p1_vo'
I5
tp1498
a(S'w'
I10
tp1499
a(S'w'
I21
tp1500
a(S'w'
I698
tp1501
a(S'w'
I9
tp1502
a(S'p2_vo'
I6
tp1503
a(S'w'
I1
tp1504
a(S'w'
I20
tp1505
a(S'w'
I703
tp1506
a(S'p1_vo'
I4
tp1507
a(S'w'
I1
tp1508
a(S'w'
I9
tp1509
a(S'p2_vo'
I5
tp1510
a(S'w'
I10
tp1511
a(S'tr_lr'
I115
tp1512
a(S'w'
I11
tp1513
a(S'w'
I703
tp1514
a(S'w'
I10
tp1515
a(S'p2_vo'
I4
tp1516
a(S'w'
I21
tp1517
a(S'w'
I703
tp1518
a(S'p1_vo'
I3
tp1519
a(S'w'
I10
tp1520
a(S'w'
I10
tp1521
a(S'tr_lr'
I0
tp1522
a(S'w'
I11
tp1523
a(S'w'
I703
tp1524
a(S'p1_vo'
I2
tp1525
a(S'w'
I1
tp1526
a(S'w'
I10
tp1527
a(S'p2_vo'
I2
tp1528
a(S'w'
I21
tp1529
a(S'w'
I702
tp1530
a(S'w'
I11
tp1531
a(S'w'
I20
tp1532
a(S'w'
I703
tp1533
a(S'w'
I10
tp1534
a(S'w'
I21
tp1535
a(S'w'
I706
tp1536
a(S'w'
I11
tp1537
a(S'w'
I20
tp1538
a(S'w'
I702
tp1539
a(S'p1_vo'
I8
tp1540
a(S'w'
I1
tp1541
a(S'p1_tl'
I63
tp1542
a(S'p1_ll'
I0
tp1543
a(S'w'
I13
tp1544
a(S'p2_vo'
I8
tp1545
a(S'p2_tl'
I171
tp1546
a(S'p2_ll'
I0
tp1547
a(S'w'
I15
tp1548
a(S'tr_lr'
I123
tp1549
a(S'w'
I1
tp1550
a(S'tr_tl'
I171
tp1551
a(S'tr_ll'
I0
tp1552
a(S'w'
I17
tp1553
a(S'no_vo'
I11
tp1554
a(S'no_np'
I14
tp1555
a(S'no_ll'
I0
tp1556
a(S'w'
I684
tp1557
a(S'p1_vo'
I7
tp1558
a(S'w'
I10
tp1559
a(S'w'
I10
tp1560
a(S'tr_lr'
I117
tp1561
a(S'w'
I10
tp1562
a(S'no_vo'
I5
tp1563
a(S'w'
I704
tp1564
a(S'p1_vo'
I6
tp1565
a(S'w'
I10
tp1566
a(S'w'
I10
tp1567
a(S'tr_lr'
I116
tp1568
a(S'w'
I10
tp1569
a(S'no_vo'
I4
tp1570
a(S'w'
I703
tp1571
a(S'p1_vo'
I5
tp1572
a(S'w'
I1
tp1573
a(S'w'
I9
tp1574
a(S'w'
I20
tp1575
a(S'w'
I704
tp1576
a(S'w'
I10
tp1577
a(S'p2_vo'
I6
tp1578
a(S'w'
I20
tp1579
a(S'w'
I704
tp1580
a(S'p1_vo'
I4
tp1581
a(S'w'
I10
tp1582
a(S'p2_vo'
I5
tp1583
a(S'w'
I10
tp1584
a(S'tr_lr'
I115
tp1585
a(S'w'
I10
tp1586
a(S'no_vo'
I3
tp1587
a(S'w'
I704
tp1588
a(S'w'
I10
tp1589
a(S'p2_vo'
I4
tp1590
a(S'w'
I20
tp1591
a(S'w'
I709
tp1592
a(S'p1_vo'
I3
tp1593
a(S'w'
I10
tp1594
a(S'w'
I10
tp1595
a(S'tr_lr'
I0
tp1596
a(S'w'
I10
tp1597
a(S'w'
I699
tp1598
a(S'p1_vo'
I2
tp1599
a(S'w'
I11
tp1600
a(S'p2_vo'
I2
tp1601
a(S'w'
I20
tp1602
a(S'no_vo'
I0
tp1603
a(S'w'
I703
tp1604
a(S'w'
I10
tp1605
a(S'w'
I20
tp1606
a(S'w'
I704
tp1607
a(S'w'
I10
tp1608
a(S'w'
I20
tp1609
a(S'w'
I704
tp1610
a(S'w'
I11
tp1611
a(S'w'
I20
tp1612
a(S'w'
I705
tp1613
a(S'p1_vo'
I8
tp1614
a(S'p1_tl'
I103
tp1615
a(S'w'
I1
tp1616
a(S'p1_ll'
I0
tp1617
a(S'w'
I12
tp1618
a(S'p2_vo'
I8
tp1619
a(S'p2_tl'
I223
tp1620
a(S'w'
I1
tp1621
a(S'p2_ll'
I0
tp1622
a(S'w'
I14
tp1623
a(S'tr_lr'
I123
tp1624
a(S'tr_ll'
I0
tp1625
a(S'w'
I10
tp1626
a(S'w'
I692
tp1627
a(S'p1_vo'
I7
tp1628
a(S'w'
I1
tp1629
a(S'w'
I10
tp1630
a(S'w'
I10
tp1631
a(S'tr_lr'
I117
tp1632
a(S'w'
I10
tp1633
a(S'w'
I703
tp1634
a(S'p1_vo'
I6
tp1635
a(S'w'
I10
tp1636
a(S'w'
I10
tp1637
a(S'tr_lr'
I116
tp1638
a(S'w'
I11
tp1639
a(S'w'
I706
tp1640
a(S'p1_vo'
I5
tp1641
a(S'w'
I10
tp1642
a(S'w'
I21
tp1643
a(S'w'
I700
tp1644
a(S'w'
I10
tp1645
a(S'p2_vo'
I6
tp1646
a(S'w'
I21
tp1647
a(S'w'
I703
tp1648
a(S'p1_vo'
I4
tp1649
a(S'w'
I10
tp1650
a(S'p2_vo'
I5
tp1651
a(S'w'
I10
tp1652
a(S'tr_lr'
I115
tp1653
a(S'w'
I11
tp1654
a(S'w'
I703
tp1655
a(S'w'
I9
tp1656
a(S'p2_vo'
I4
tp1657
a(S'w'
I21
tp1658
a(S'w'
I703
tp1659
a(S'p1_vo'
I3
tp1660
a(S'w'
I10
tp1661
a(S'w'
I21
tp1662
a(S'w'
I704
tp1663
a(S'p1_vo'
I2
tp1664
a(S'w'
I10
tp1665
a(S'p2_vo'
I2
tp1666
a(S'w'
I21
tp1667
a(S'w'
I703
tp1668
a(S'w'
I10
tp1669
a(S'w'
I10
tp1670
a(S'tr_lr'
I114
tp1671
a(S'w'
I11
tp1672
a(S'w'
I702
tp1673
a(S'w'
I11
tp1674
a(S'w'
I21
tp1675
a(S'w'
I708
tp1676
a(S'w'
I10
tp1677
a(S'w'
I21
tp1678
a(S'w'
I700
tp1679
a(S'p1_vo'
I8
tp1680
a(S'p1_tl'
I171
tp1681
a(S'p1_ll'
I0
tp1682
a(S'w'
I13
tp1683
a(S'p2_vo'
I8
tp1684
a(S'p2_tl'
I60
tp1685
a(S'w'
I1
tp1686
a(S'p2_ll'
I0
tp1687
a(S'p2_th'
I2
tp1688
a(S'w'
I9
tp1689
a(S'tr_lr'
I113
tp1690
a(S'w'
I13
tp1691
a(S'no_vo'
I11
tp1692
a(S'w'
I1
tp1693
a(S'no_np'
I9
tp1694
a(S'no_ll'
I0
tp1695
a(S'w'
I693
tp1696
a(S'p1_vo'
I7
tp1697
a(S'w'
I10
tp1698
a(S'w'
I21
tp1699
a(S'no_vo'
I5
tp1700
a(S'w'
I703
tp1701
a(S'p1_vo'
I6
tp1702
a(S'w'
I10
tp1703
a(S'w'
I21
tp1704
a(S'no_vo'
I4
tp1705
a(S'w'
I703
tp1706
a(S'p1_vo'
I5
tp1707
a(S'w'
I10
tp1708
a(S'w'
I20
tp1709
a(S'w'
I704
tp1710
a(S'w'
I9
tp1711
a(S'p2_vo'
I6
tp1712
a(S'w'
I21
tp1713
a(S'w'
I703
tp1714
a(S'p1_vo'
I4
tp1715
a(S'w'
I10
tp1716
a(S'p2_vo'
I5
tp1717
a(S'w'
I11
tp1718
a(S'tr_lr'
I0
tp1719
a(S'w'
I10
tp1720
a(S'no_vo'
I3
tp1721
a(S'w'
I703
tp1722
a(S'w'
I10
tp1723
a(S'p2_vo'
I4
tp1724
a(S'w'
I21
tp1725
a(S'w'
I706
tp1726
a(S'p1_vo'
I3
tp1727
a(S'w'
I10
tp1728
a(S'w'
I20
tp1729
a(S'w'
I701
tp1730
a(S'p1_vo'
I2
tp1731
a(S'w'
I11
tp1732
a(S'p2_vo'
I2
tp1733
a(S'w'
I21
tp1734
a(S'no_vo'
I0
tp1735
a(S'w'
I702
tp1736
a(S'w'
I11
tp1737
a(S'w'
I20
tp1738
a(S'w'
I703
tp1739
a(S'w'
I10
tp1740
a(S'w'
I21
tp1741
a(S'w'
I703
tp1742
a(S'w'
I11
tp1743
a(S'w'
I21
tp1744
a(S'w'
I704
tp1745
a(S'p1_vo'
I8
tp1746
a(S'p1_tl'
I223
tp1747
a(S'w'
I1
tp1748
a(S'p1_ll'
I0
tp1749
a(S'w'
I13
tp1750
a(S'p2_vo'
I8
tp1751
a(S'p2_tl'
I128
tp1752
a(S'p2_ll'
I0
tp1753
a(S'w'
I14
tp1754
a(S'tr_lr'
I123
tp1755
a(S'tr_tl'
I223
tp1756
a(S'w'
I1
tp1757
a(S'tr_ll'
I0
tp1758
a(S'w'
I9
tp1759
a(S'w'
I693
tp1760
a(S'p1_vo'
I7
tp1761
a(S'w'
I10
tp1762
a(S'w'
I10
tp1763
a(S'tr_lr'
I117
tp1764
a(S'w'
I11
tp1765
a(S'w'
I702
tp1766
a(S'p1_vo'
I6
tp1767
a(S'w'
I1
tp1768
a(S'w'
I10
tp1769
a(S'w'
I10
tp1770
a(S'tr_lr'
I116
tp1771
a(S'w'
I10
tp1772
a(S'w'
I709
tp1773
a(S'p1_vo'
I5
tp1774
a(S'w'
I10
tp1775
a(S'w'
I20
tp1776
a(S'w'
I698
tp1777
a(S'w'
I10
tp1778
a(S'p2_vo'
I6
tp1779
a(S'w'
I21
tp1780
a(S'w'
I703
tp1781
a(S'p1_vo'
I4
tp1782
a(S'w'
I10
tp1783
a(S'p2_vo'
I5
tp1784
a(S'w'
I10
tp1785
a(S'tr_lr'
I0
tp1786
a(S'w'
I11
tp1787
a(S'w'
I703
tp1788
a(S'w'
I10
tp1789
a(S'p2_vo'
I4
tp1790
a(S'w'
I20
tp1791
a(S'w'
I704
tp1792
a(S'p1_vo'
I3
tp1793
a(S'w'
I10
tp1794
a(S'w'
I20
tp1795
a(S'w'
I704
tp1796
a(S'p1_vo'
I2
tp1797
a(S'w'
I10
tp1798
a(S'p2_vo'
I2
tp1799
a(S'w'
I1
tp1800
a(S'w'
I20
tp1801
a(S'w'
I703
tp1802
a(S'w'
I10
tp1803
a(S'w'
I21
tp1804
a(S'w'
I703
tp1805
a(S'w'
I10
tp1806
a(S'w'
I21
tp1807
a(S'w'
I706
tp1808
a(S'w'
I10
tp1809
a(S'w'
I21
tp1810
a(S'w'
I702
tp1811
a(S'p1_vo'
I8
tp1812
a(S'p1_tl'
I171
tp1813
a(S'p1_ll'
I0
tp1814
a(S'w'
I13
tp1815
a(S'p2_vo'
I8
tp1816
a(S'p2_tl'
I60
tp1817
a(S'w'
I1
tp1818
a(S'p2_ll'
I0
tp1819
a(S'w'
I13
tp1820
a(S'tr_lr'
I123
tp1821
a(S'tr_tl'
I171
tp1822
a(S'tr_ll'
I0
tp1823
a(S'w'
I17
tp1824
a(S'no_vo'
I11
tp1825
a(S'no_np'
I14
tp1826
a(S'w'
I1
tp1827
a(S'no_ll'
I0
tp1828
a(S'w'
I685
tp1829
a(S'p1_vo'
I7
tp1830
a(S'w'
I10
tp1831
a(S'w'
I10
tp1832
a(S'tr_lr'
I117
tp1833
a(S'w'
I10
tp1834
a(S'no_vo'
I5
tp1835
a(S'w'
I704
tp1836
a(S'p1_vo'
I6
tp1837
a(S'w'
I10
tp1838
a(S'w'
I10
tp1839
a(S'tr_lr'
I116
tp1840
a(S'w'
I10
tp1841
a(S'no_vo'
I4
tp1842
a(S'w'
I704
tp1843
a(S'p1_vo'
I5
tp1844
a(S'w'
I10
tp1845
a(S'w'
I20
tp1846
a(S'w'
I704
tp1847
a(S'w'
I10
tp1848
a(S'p2_vo'
I6
tp1849
a(S'w'
I20
tp1850
a(S'w'
I704
tp1851
a(S'p1_vo'
I4
tp1852
a(S'w'
I9
tp1853
a(S'p2_vo'
I5
tp1854
a(S'w'
I1
tp1855
a(S'w'
I10
tp1856
a(S'tr_lr'
I0
tp1857
a(S'w'
I10
tp1858
a(S'no_vo'
I3
tp1859
a(S'w'
I703
tp1860
a(S'w'
I10
tp1861
a(S'p2_vo'
I4
tp1862
a(S'w'
I20
tp1863
a(S'w'
I709
tp1864
a(S'p1_vo'
I3
tp1865
a(S'w'
I1
tp1866
a(S'w'
I9
tp1867
a(S'w'
I20
tp1868
a(S'w'
I700
tp1869
a(S'p1_vo'
I2
tp1870
a(S'w'
I10
tp1871
a(S'p2_vo'
I2
tp1872
a(S'w'
I20
tp1873
a(S'no_vo'
I0
tp1874
a(S'w'
I703
tp1875
a(S'w'
I11
tp1876
a(S'w'
I20
tp1877
a(S'w'
I703
tp1878
a(S'w'
I11
tp1879
a(S'w'
I20
tp1880
a(S'w'
I704
tp1881
a(S'w'
I10
tp1882
a(S'w'
I20
tp1883
a(S'w'
I705
tp1884
a(S'p1_vo'
I8
tp1885
a(S'w'
I1
tp1886
a(S'p1_tl'
I103
tp1887
a(S'p1_ll'
I0
tp1888
a(S'w'
I13
tp1889
a(S'p2_vo'
I8
tp1890
a(S'p2_tl'
I223
tp1891
a(S'p2_ll'
I0
tp1892
a(S'p2_th'
I1
tp1893
a(S'w'
I14
tp1894
a(S'tr_lr'
I123
tp1895
a(S'w'
I1
tp1896
a(S'tr_ll'
I0
tp1897
a(S'w'
I10
tp1898
a(S'w'
I692
tp1899
a(S'p1_vo'
I7
tp1900
a(S'w'
I10
tp1901
a(S'w'
I10
tp1902
a(S'tr_lr'
I117
tp1903
a(S'w'
I11
tp1904
a(S'w'
I703
tp1905
a(S'p1_vo'
I6
tp1906
a(S'w'
I10
tp1907
a(S'w'
I10
tp1908
a(S'tr_lr'
I116
tp1909
a(S'w'
I11
tp1910
a(S'w'
I705
tp1911
a(S'p1_vo'
I5
tp1912
a(S'w'
I10
tp1913
a(S'w'
I21
tp1914
a(S'w'
I700
tp1915
a(S'w'
I10
tp1916
a(S'p2_vo'
I6
tp1917
a(S'w'
I21
tp1918
a(S'w'
I703
tp1919
a(S'p1_vo'
I4
tp1920
a(S'w'
I10
tp1921
a(S'p2_vo'
I5
tp1922
a(S'w'
I10
tp1923
a(S'tr_lr'
I115
tp1924
a(S'w'
I11
tp1925
a(S'w'
I703
tp1926
a(S'w'
I10
tp1927
a(S'p2_vo'
I4
tp1928
a(S'w'
I21
tp1929
a(S'w'
I703
tp1930
a(S'p1_vo'
I3
tp1931
a(S'w'
I10
tp1932
a(S'w'
I21
tp1933
a(S'w'
I703
tp1934
a(S'p1_vo'
I2
tp1935
a(S'w'
I11
tp1936
a(S'p2_vo'
I2
tp1937
a(S'w'
I21
tp1938
a(S'w'
I702
tp1939
a(S'w'
I10
tp1940
a(S'w'
I10
tp1941
a(S'tr_lr'
I114
tp1942
a(S'w'
I11
tp1943
a(S'w'
I703
tp1944
a(S'w'
I10
tp1945
a(S'w'
I21
tp1946
a(S'w'
I709
tp1947
a(S'w'
I10
tp1948
a(S'w'
I21
tp1949
a(S'w'
I699
tp1950
a(S'p1_vo'
I8
tp1951
a(S'p1_tl'
I63
tp1952
a(S'w'
I1
tp1953
a(S'p1_ll'
I0
tp1954
a(S'w'
I12
tp1955
a(S'p2_vo'
I8
tp1956
a(S'w'
I1
tp1957
a(S'p2_tl'
I171
tp1958
a(S'p2_ll'
I0
tp1959
a(S'w'
I10
tp1960
a(S'tr_lr'
I113
tp1961
a(S'w'
I13
tp1962
a(S'no_vo'
I11
tp1963
a(S'no_np'
I9
tp1964
a(S'w'
I1
tp1965
a(S'no_ll'
I0
tp1966
a(S'w'
I692
tp1967
a(S'p1_vo'
I7
tp1968
a(S'w'
I1
tp1969
a(S'w'
I10
tp1970
a(S'w'
I20
tp1971
a(S'no_vo'
I5
tp1972
a(S'w'
I703
tp1973
a(S'p1_vo'
I6
tp1974
a(S'w'
I10
tp1975
a(S'w'
I21
tp1976
a(S'no_vo'
I4
tp1977
a(S'w'
I703
tp1978
a(S'p1_vo'
I5
tp1979
a(S'w'
I10
tp1980
a(S'w'
I21
tp1981
a(S'w'
I703
tp1982
a(S'w'
I10
tp1983
a(S'p2_vo'
I6
tp1984
a(S'w'
I11
tp1985
a(S'tr_lr'
I0
tp1986
a(S'w'
I10
tp1987
a(S'w'
I703
tp1988
a(S'p1_vo'
I4
tp1989
a(S'w'
I10
tp1990
a(S'p2_vo'
I5
tp1991
a(S'w'
I20
tp1992
a(S'no_vo'
I3
tp1993
a(S'w'
I1
tp1994
a(S'w'
I703
tp1995
a(S'w'
I9
tp1996
a(S'p2_vo'
I4
tp1997
a(S'w'
I1
tp1998
a(S'w'
I20
tp1999
a(S'w'
I706
tp2000
a(S'p1_vo'
I3
tp2001
a(S'w'
I10
tp2002
a(S'w'
I21
tp2003
a(S'w'
I701
tp2004
a(S'p1_vo'
I2
tp2005
a(S'w'
I10
tp2006
a(S'p2_vo'
I2
tp2007
a(S'w'
I21
tp2008
a(S'no_vo'
I0
tp2009
a(S'w'
I703
tp2010
a(S'w'
I10
tp2011
a(S'w'
I21
tp2012
a(S'w'
I702
tp2013
a(S'w'
I11
tp2014
a(S'w'
I21
tp2015
a(S'w'
I703
tp2016
a(S'w'
I10
tp2017
a(S'w'
I21
tp2018
a(S'w'
I705
tp2019
a(S'p1_vo'
I8
tp2020
a(S'p1_tl'
I28
tp2021
a(S'p1_ll'
I0
tp2022
a(S'w'
I13
tp2023
a(S'p2_vo'
I8
tp2024
a(S'p2_tl'
I124
tp2025
a(S'w'
I1
tp2026
a(S'p2_ll'
I0
tp2027
a(S'w'
I13
tp2028
a(S'tr_lr'
I123
tp2029
a(S'w'
I1
tp2030
a(S'tr_tl'
I103
tp2031
a(S'tr_ll'
I0
tp2032
a(S'w'
I10
tp2033
a(S'w'
I692
tp2034
a(S'p1_vo'
I7
tp2035
a(S'w'
I10
tp2036
a(S'w'
I10
tp2037
a(S'tr_lr'
I117
tp2038
a(S'w'
I11
tp2039
a(S'w'
I703
tp2040
a(S'p1_vo'
I6
tp2041
a(S'w'
I10
tp2042
a(S'w'
I10
tp2043
a(S'tr_lr'
I116
tp2044
a(S'w'
I11
tp2045
a(S'w'
I708
tp2046
a(S'p1_vo'
I5
tp2047
a(S'w'
I10
tp2048
a(S'w'
I21
tp2049
a(S'w'
I698
tp2050
a(S'w'
I9
tp2051
a(S'p2_vo'
I6
tp2052
a(S'w'
I1
tp2053
a(S'w'
I10
tp2054
a(S'tr_lr'
I0
tp2055
a(S'w'
I10
tp2056
a(S'w'
I703
tp2057
a(S'p1_vo'
I4
tp2058
a(S'w'
I1
tp2059
a(S'w'
I9
tp2060
a(S'p2_vo'
I5
tp2061
a(S'w'
I21
tp2062
a(S'w'
I703
tp2063
a(S'w'
I10
tp2064
a(S'p2_vo'
I4
tp2065
a(S'w'
I21
tp2066
a(S'w'
I703
tp2067
a(S'p1_vo'
I3
tp2068
a(S'w'
I10
tp2069
a(S'w'
I21
tp2070
a(S'w'
I703
tp2071
a(S'p1_vo'
I2
tp2072
a(S'w'
I1
tp2073
a(S'w'
I10
tp2074
a(S'p2_vo'
I2
tp2075
a(S'w'
I21
tp2076
a(S'w'
I702
tp2077
a(S'w'
I11
tp2078
a(S'w'
I20
tp2079
a(S'w'
I703
tp2080
a(S'w'
I10
tp2081
a(S'w'
I21
tp2082
a(S'w'
I706
tp2083
a(S'w'
I11
tp2084
a(S'w'
I20
tp2085
a(S'w'
I706
tp2086
a(S'p1_vo'
I8
tp2087
a(S'p1_tl'
I238
tp2088
a(S'w'
I1
tp2089
a(S'p1_ll'
I0
tp2090
a(S'p1_th'
I0
tp2091
a(S'w'
I16
tp2092
a(S'p2_vo'
I8
tp2093
a(S'p2_tl'
I63
tp2094
a(S'w'
I1
tp2095
a(S'p2_ll'
I0
tp2096
a(S'w'
I19
tp2097
a(S'tr_lr'
I123
tp2098
a(S'tr_tl'
I63
tp2099
a(S'w'
I1
tp2100
a(S'tr_ll'
I0
tp2101
a(S'w'
I16
tp2102
a(S'no_vo'
I11
tp2103
a(S'no_np'
I14
tp2104
a(S'w'
I1
tp2105
a(S'no_ll'
I0
tp2106
a(S'w'
I672
tp2107
a(S'p1_vo'
I7
tp2108
a(S'w'
I10
tp2109
a(S'w'
I10
tp2110
a(S'tr_lr'
I117
tp2111
a(S'w'
I10
tp2112
a(S'no_vo'
I5
tp2113
a(S'w'
I704
tp2114
a(S'p1_vo'
I6
tp2115
a(S'w'
I10
tp2116
a(S'w'
I10
tp2117
a(S'tr_lr'
I116
tp2118
a(S'w'
I9
tp2119
a(S'no_vo'
I4
tp2120
a(S'w'
I1
tp2121
a(S'w'
I703
tp2122
a(S'p1_vo'
I5
tp2123
a(S'w'
I1
tp2124
a(S'w'
I9
tp2125
a(S'w'
I20
tp2126
a(S'w'
I704
tp2127
a(S'w'
I10
tp2128
a(S'p2_vo'
I6
tp2129
a(S'w'
I20
tp2130
a(S'w'
I704
tp2131
a(S'p1_vo'
I4
tp2132
a(S'w'
I10
tp2133
a(S'p2_vo'
I5
tp2134
a(S'w'
I10
tp2135
a(S'tr_lr'
I0
tp2136
a(S'w'
I10
tp2137
a(S'no_vo'
I3
tp2138
a(S'w'
I704
tp2139
a(S'w'
I10
tp2140
a(S'p2_vo'
I4
tp2141
a(S'w'
I20
tp2142
a(S'w'
I709
tp2143
a(S'p1_vo'
I3
tp2144
a(S'w'
I10
tp2145
a(S'w'
I20
tp2146
a(S'w'
I699
tp2147
a(S'w'
I9
tp2148
a(S'w'
I20
tp2149
a(S'no_vo'
I0
tp2150
a(S'w'
I1
tp2151
a(S'w'
I703
tp2152
a(S'w'
I10
tp2153
a(S'p2_vo'
I3
tp2154
a(S'w'
I20
tp2155
a(S'w'
I704
tp2156
a(S'p1_vo'
I2
tp2157
a(S'w'
I10
tp2158
a(S'w'
I20
tp2159
a(S'w'
I705
tp2160
a(S'w'
I10
tp2161
a(S'w'
I20
tp2162
a(S'w'
I707
tp2163
a(S'p1_vo'
I8
tp2164
a(S'p1_tl'
I212
tp2165
a(S'w'
I1
tp2166
a(S'p1_ll'
I0
tp2167
a(S'w'
I13
tp2168
a(S'p2_vo'
I8
tp2169
a(S'p2_tl'
I28
tp2170
a(S'w'
I1
tp2171
a(S'p2_ll'
I0
tp2172
a(S'w'
I14
tp2173
a(S'tr_lr'
I123
tp2174
a(S'tr_ll'
I0
tp2175
a(S'w'
I10
tp2176
a(S'w'
I690
tp2177
a(S'p1_vo'
I7
tp2178
a(S'w'
I1
tp2179
a(S'w'
I9
tp2180
a(S'w'
I10
tp2181
a(S'tr_lr'
I117
tp2182
a(S'w'
I11
tp2183
a(S'w'
I703
tp2184
a(S'p1_vo'
I6
tp2185
a(S'w'
I10
tp2186
a(S'w'
I10
tp2187
a(S'tr_lr'
I116
tp2188
a(S'w'
I11
tp2189
a(S'w'
I706
tp2190
a(S'p1_vo'
I5
tp2191
a(S'w'
I10
tp2192
a(S'w'
I20
tp2193
a(S'w'
I701
tp2194
a(S'w'
I10
tp2195
a(S'p2_vo'
I6
tp2196
a(S'w'
I21
tp2197
a(S'w'
I703
tp2198
a(S'p1_vo'
I4
tp2199
a(S'w'
I9
tp2200
a(S'p2_vo'
I5
tp2201
a(S'w'
I1
tp2202
a(S'w'
I10
tp2203
a(S'tr_lr'
I115
tp2204
a(S'w'
I10
tp2205
a(S'w'
I704
tp2206
a(S'w'
I9
tp2207
a(S'p2_vo'
I4
tp2208
a(S'w'
I21
tp2209
a(S'w'
I703
tp2210
a(S'p1_vo'
I3
tp2211
a(S'w'
I10
tp2212
a(S'w'
I21
tp2213
a(S'w'
I703
tp2214
a(S'w'
I10
tp2215
a(S'w'
I21
tp2216
a(S'w'
I703
tp2217
a(S'w'
I10
tp2218
a(S'p2_vo'
I3
tp2219
a(S'w'
I10
tp2220
a(S'tr_lr'
I114
tp2221
a(S'w'
I11
tp2222
a(S'w'
I703
tp2223
a(S'p1_vo'
I2
tp2224
a(S'w'
I11
tp2225
a(S'p2_vo'
I2
tp2226
a(S'w'
I10
tp2227
a(S'tr_lr'
I0
tp2228
a(S'w'
I11
tp2229
a(S'w'
I708
tp2230
a(S'w'
I10
tp2231
a(S'w'
I21
tp2232
a(S'w'
I698
tp2233
a(S'w'
I10
tp2234
a(S'w'
I23
tp2235
a(S'no_vo'
I11
tp2236
a(S'no_np'
I9
tp2237
a(S'w'
I1
tp2238
a(S'no_ll'
I0
tp2239
a(S'w'
I699
tp2240
a(S'w'
I11
tp2241
a(S'w'
I20
tp2242
a(S'no_vo'
I5
tp2243
a(S'w'
I703
tp2244
a(S'w'
I11
tp2245
a(S'w'
I20
tp2246
a(S'no_vo'
I4
tp2247
a(S'w'
I703
tp2248
a(S'w'
I10
tp2249
a(S'w'
I21
tp2250
a(S'w'
I703
tp2251
a(S'w'
I11
tp2252
a(S'w'
I21
tp2253
a(S'w'
I702
tp2254
a(S'w'
I10
tp2255
a(S'w'
I20
tp2256
a(S'no_vo'
I3
tp2257
a(S'w'
I1
tp2258
a(S'w'
I702
tp2259
a(S'w'
I11
tp2260
a(S'w'
I20
tp2261
a(S'w'
I706
tp2262
a(S'w'
I10
tp2263
a(S'w'
I21
tp2264
a(S'w'
I700
tp2265
a(S'w'
I10
tp2266
a(S'w'
I21
tp2267
a(S'no_vo'
I0
tp2268
a(S'w'
I703
tp2269
a(S'w'
I10
tp2270
a(S'w'
I21
tp2271
a(S'w'
I703
tp2272
a(S'w'
I10
tp2273
a(S'w'
I21
tp2274
a(S'w'
I702
tp2275
a(S'w'
I11
tp2276
a(S'w'
I21
tp2277
a(S'w'
I705
tp2278
a(S'p1_vo'
I8
tp2279
a(S'p1_tl'
I28
tp2280
a(S'w'
I1
tp2281
a(S'p1_ll'
I0
tp2282
a(S'p1_th'
I1
tp2283
a(S'w'
I13
tp2284
a(S'p2_vo'
I8
tp2285
a(S'p2_tl'
I124
tp2286
a(S'w'
I1
tp2287
a(S'p2_ll'
I0
tp2288
a(S'w'
I14
tp2289
a(S'tr_lr'
I123
tp2290
a(S'tr_tl'
I103
tp2291
a(S'tr_ll'
I0
tp2292
a(S'w'
I10
tp2293
a(S'w'
I691
tp2294
a(S'p1_vo'
I7
tp2295
a(S'w'
I10
tp2296
a(S'w'
I10
tp2297
a(S'tr_lr'
I117
tp2298
a(S'w'
I10
tp2299
a(S'w'
I703
tp2300
a(S'p1_vo'
I6
tp2301
a(S'w'
I1
tp2302
a(S'w'
I9
tp2303
a(S'w'
I10
tp2304
a(S'tr_lr'
I116
tp2305
a(S'w'
I11
tp2306
a(S'w'
I709
tp2307
a(S'p1_vo'
I5
tp2308
a(S'w'
I10
tp2309
a(S'w'
I20
tp2310
a(S'w'
I698
tp2311
a(S'w'
I10
tp2312
a(S'p2_vo'
I6
tp2313
a(S'w'
I21
tp2314
a(S'w'
I703
tp2315
a(S'p1_vo'
I4
tp2316
a(S'w'
I10
tp2317
a(S'p2_vo'
I5
tp2318
a(S'w'
I10
tp2319
a(S'tr_lr'
I0
tp2320
a(S'w'
I11
tp2321
a(S'w'
I703
tp2322
a(S'w'
I9
tp2323
a(S'p2_vo'
I4
tp2324
a(S'w'
I1
tp2325
a(S'w'
I20
tp2326
a(S'w'
I703
tp2327
a(S'p1_vo'
I3
tp2328
a(S'w'
I1
tp2329
a(S'w'
I9
tp2330
a(S'w'
I21
tp2331
a(S'w'
I703
tp2332
a(S'w'
I10
tp2333
a(S'w'
I21
tp2334
a(S'w'
I703
tp2335
a(S'w'
I10
tp2336
a(S'p2_vo'
I3
tp2337
a(S'w'
I21
tp2338
a(S'w'
I703
tp2339
a(S'p1_vo'
I2
tp2340
a(S'w'
I10
tp2341
a(S'w'
I21
tp2342
a(S'w'
I706
tp2343
a(S'w'
I10
tp2344
a(S'w'
I21
tp2345
a(S'w'
I700
tp2346
a(S'w'
I10
tp2347
a(S'w'
I14
tp2348
a(S'tr_lr'
I123
tp2349
a(S'tr_tl'
I63
tp2350
a(S'tr_ll'
I0
tp2351
a(S'w'
I17
tp2352
a(S'no_vo'
I11
tp2353
a(S'no_np'
I14
tp2354
a(S'no_ll'
I0
tp2355
a(S'w'
I693
tp2356
a(S'w'
I10
tp2357
a(S'p2_vo'
I4
tp2358
a(S'w'
I10
tp2359
a(S'tr_lr'
I117
tp2360
a(S'w'
I10
tp2361
a(S'no_vo'
I5
tp2362
a(S'w'
I704
tp2363
a(S'w'
I10
tp2364
a(S'p2_vo'
I5
tp2365
a(S'w'
I10
tp2366
a(S'tr_lr'
I116
tp2367
a(S'w'
I10
tp2368
a(S'no_vo'
I4
tp2369
a(S'w'
I704
tp2370
a(S'w'
I10
tp2371
a(S'w'
I20
tp2372
a(S'w'
I704
tp2373
a(S'w'
I10
tp2374
a(S'p2_vo'
I4
tp2375
a(S'w'
I20
tp2376
a(S'w'
I703
tp2377
a(S'w'
I10
tp2378
a(S'p2_vo'
I3
tp2379
a(S'w'
I10
tp2380
a(S'tr_lr'
I0
tp2381
a(S'w'
I10
tp2382
a(S'no_vo'
I3
tp2383
a(S'w'
I704
tp2384
a(S'w'
I10
tp2385
a(S'w'
I20
tp2386
a(S'w'
I709
tp2387
a(S'w'
I10
tp2388
a(S'w'
I20
tp2389
a(S'w'
I699
tp2390
a(S'w'
I10
tp2391
a(S'w'
I20
tp2392
a(S'no_vo'
I0
tp2393
a(S'w'
I704
tp2394
a(S'w'
I9
tp2395
a(S'p2_vo'
I4
tp2396
a(S'w'
I20
tp2397
a(S'w'
I704
tp2398
a(S'w'
I10
tp2399
a(S'p2_vo'
I5
tp2400
a(S'w'
I20
tp2401
a(S'w'
I704
tp2402
a(S'w'
I10
tp2403
a(S'w'
I20
tp2404
a(S'w'
I704
tp2405
a(S'w'
I10
tp2406
a(S'p2_vo'
I4
tp2407
a(S'w'
I1
tp2408
a(S'w'
I14
tp2409
a(S'tr_lr'
I123
tp2410
a(S'tr_ll'
I0
tp2411
a(S'w'
I10
tp2412
a(S'w'
I699
tp2413
a(S'w'
I9
tp2414
a(S'p2_vo'
I3
tp2415
a(S'w'
I1
tp2416
a(S'w'
I10
tp2417
a(S'tr_lr'
I117
tp2418
a(S'w'
I10
tp2419
a(S'w'
I704
tp2420
a(S'w'
I9
tp2421
a(S'w'
I10
tp2422
a(S'tr_lr'
I116
tp2423
a(S'w'
I11
tp2424
a(S'w'
I706
tp2425
a(S'w'
I10
tp2426
a(S'w'
I21
tp2427
a(S'w'
I700
tp2428
a(S'w'
I10
tp2429
a(S'w'
I21
tp2430
a(S'w'
I703
tp2431
a(S'w'
I10
tp2432
a(S'p2_vo'
I4
tp2433
a(S'w'
I10
tp2434
a(S'tr_lr'
I115
tp2435
a(S'w'
I11
tp2436
a(S'w'
I703
tp2437
a(S'w'
I9
tp2438
a(S'p2_vo'
I5
tp2439
a(S'w'
I1
tp2440
a(S'w'
I20
tp2441
a(S'w'
I704
tp2442
a(S'w'
I9
tp2443
a(S'w'
I21
tp2444
a(S'w'
I703
tp2445
a(S'w'
I11
tp2446
a(S'p2_vo'
I4
tp2447
a(S'w'
I21
tp2448
a(S'w'
I702
tp2449
a(S'w'
I10
tp2450
a(S'p2_vo'
I3
tp2451
a(S'w'
I10
tp2452
a(S'tr_lr'
I114
tp2453
a(S'w'
I11
tp2454
a(S'w'
I703
tp2455
a(S'w'
I10
tp2456
a(S'w'
I21
tp2457
a(S'w'
I708
tp2458
a(S'w'
I10
tp2459
a(S'w'
I10
tp2460
a(S'tr_lr'
I0
tp2461
a(S'w'
I11
tp2462
a(S'w'
I698
tp2463
a(S'w'
I9
tp2464
a(S'w'
I24
tp2465
a(S'no_vo'
I11
tp2466
a(S'no_np'
I9
tp2467
a(S'no_ll'
I0
tp2468
a(S'w'
I700
tp2469
a(S'w'
I10
tp2470
a(S'p2_vo'
I4
tp2471
a(S'w'
I21
tp2472
a(S'no_vo'
I5
tp2473
a(S'w'
I703
tp2474
a(S'w'
I10
tp2475
a(S'p2_vo'
I5
tp2476
a(S'w'
I21
tp2477
a(S'no_vo'
I4
tp2478
a(S'w'
I703
tp2479
a(S'w'
I10
tp2480
a(S'w'
I21
tp2481
a(S'w'
I703
tp2482
a(S'w'
I10
tp2483
a(S'p2_vo'
I4
tp2484
a(S'w'
I21
tp2485
a(S'w'
I703
tp2486
a(S'w'
I9
tp2487
a(S'p2_vo'
I3
tp2488
a(S'w'
I21
tp2489
a(S'no_vo'
I3
tp2490
a(S'w'
I703
tp2491
a(S'w'
I10
tp2492
a(S'w'
I21
tp2493
a(S'w'
I706
tp2494
a(S'w'
I10
tp2495
a(S'w'
I20
tp2496
a(S'w'
I701
tp2497
a(S'w'
I10
tp2498
a(S'w'
I21
tp2499
a(S'no_vo'
I0
tp2500
a(S'w'
I703
tp2501
a(S'w'
I9
tp2502
a(S'p2_vo'
I4
tp2503
a(S'w'
I1
tp2504
a(S'w'
I20
tp2505
a(S'w'
I704
tp2506
a(S'w'
I9
tp2507
a(S'p2_vo'
I5
tp2508
a(S'w'
I21
tp2509
a(S'w'
I703
tp2510
a(S'w'
I10
tp2511
a(S'w'
I21
tp2512
a(S'w'
I703
tp2513
a(S'w'
I11
tp2514
a(S'p2_vo'
I4
tp2515
a(S'w'
I14
tp2516
a(S'tr_lr'
I123
tp2517
a(S'tr_tl'
I103
tp2518
a(S'w'
I1
tp2519
a(S'tr_ll'
I0
tp2520
a(S'w'
I9
tp2521
a(S'w'
I699
tp2522
a(S'w'
I10
tp2523
a(S'p2_vo'
I3
tp2524
a(S'w'
I10
tp2525
a(S'tr_lr'
I117
tp2526
a(S'w'
I11
tp2527
a(S'w'
I703
tp2528
a(S'w'
I11
tp2529
a(S'p2_vo'
I2
tp2530
a(S'w'
I10
tp2531
a(S'tr_lr'
I116
tp2532
a(S'w'
I11
tp2533
a(S'w'
I707
tp2534
a(S'w'
I11
tp2535
a(S'w'
I21
tp2536
a(S'w'
I697
tp2537
a(S'w'
I10
tp2538
a(S'w'
I21
tp2539
a(S'w'
I703
tp2540
a(S'w'
I10
tp2541
a(S'w'
I10
tp2542
a(S'tr_lr'
I115
tp2543
a(S'w'
I11
tp2544
a(S'w'
I702
tp2545
a(S'w'
I11
tp2546
a(S'w'
I21
tp2547
a(S'w'
I702
tp2548
a(S'w'
I11
tp2549
a(S'w'
I10
tp2550
a(S'tr_lr'
I0
tp2551
a(S'w'
I11
tp2552
a(S'w'
I702
tp2553
a(S'w'
I11
tp2554
a(S'w'
I21
tp2555
a(S'w'
I702
tp2556
a(S'w'
I10
tp2557
a(S'w'
I21
tp2558
a(S'w'
I703
tp2559
a(S'w'
I10
tp2560
a(S'w'
I21
tp2561
a(S'w'
I705
tp2562
a(S'w'
I10
tp2563
a(S'w'
I21
tp2564
a(S'w'
I703
tp2565
a(S'p1_vo'
I8
tp2566
a(S'p1_tl'
I238
tp2567
a(S'w'
I1
tp2568
a(S'p1_ll'
I0
tp2569
a(S'p1_th'
I0
tp2570
a(S'w'
I13
tp2571
a(S'p2_vo'
I8
tp2572
a(S'p2_tl'
I63
tp2573
a(S'w'
I1
tp2574
a(S'p2_ll'
I0
tp2575
a(S'w'
I19
tp2576
a(S'tr_lr'
I123
tp2577
a(S'tr_tl'
I63
tp2578
a(S'tr_ll'
I0
tp2579
a(S'w'
I17
tp2580
a(S'no_vo'
I11
tp2581
a(S'no_np'
I14
tp2582
a(S'w'
I1
tp2583
a(S'no_ll'
I0
tp2584
a(S'w'
I678
tp2585
a(S'p1_vo'
I7
tp2586
a(S'w'
I10
tp2587
a(S'w'
I10
tp2588
a(S'tr_lr'
I117
tp2589
a(S'w'
I10
tp2590
a(S'no_vo'
I5
tp2591
a(S'w'
I704
tp2592
a(S'p1_vo'
I6
tp2593
a(S'w'
I10
tp2594
a(S'w'
I10
tp2595
a(S'tr_lr'
I116
tp2596
a(S'w'
I9
tp2597
a(S'no_vo'
I4
tp2598
a(S'w'
I1
tp2599
a(S'w'
I703
tp2600
a(S'p1_vo'
I5
tp2601
a(S'w'
I10
tp2602
a(S'w'
I20
tp2603
a(S'w'
I704
tp2604
a(S'w'
I10
tp2605
a(S'p2_vo'
I6
tp2606
a(S'w'
I20
tp2607
a(S'w'
I704
tp2608
a(S'p1_vo'
I4
tp2609
a(S'w'
I10
tp2610
a(S'p2_vo'
I5
tp2611
a(S'w'
I10
tp2612
a(S'tr_lr'
I0
tp2613
a(S'w'
I10
tp2614
a(S'no_vo'
I3
tp2615
a(S'w'
I704
tp2616
a(S'w'
I10
tp2617
a(S'p2_vo'
I4
tp2618
a(S'w'
I20
tp2619
a(S'w'
I709
tp2620
a(S'p1_vo'
I3
tp2621
a(S'w'
I10
tp2622
a(S'w'
I20
tp2623
a(S'w'
I698
tp2624
a(S'w'
I10
tp2625
a(S'w'
I20
tp2626
a(S'no_vo'
I0
tp2627
a(S'w'
I1
tp2628
a(S'w'
I703
tp2629
a(S'w'
I10
tp2630
a(S'p2_vo'
I3
tp2631
a(S'w'
I20
tp2632
a(S'w'
I704
tp2633
a(S'p1_vo'
I2
tp2634
a(S'w'
I10
tp2635
a(S'w'
I20
tp2636
a(S'w'
I705
tp2637
a(S'w'
I9
tp2638
a(S'w'
I20
tp2639
a(S'w'
I708
tp2640
a(S'p1_vo'
I8
tp2641
a(S'p1_tl'
I212
tp2642
a(S'p1_ll'
I0
tp2643
a(S'w'
I14
tp2644
a(S'p2_vo'
I8
tp2645
a(S'p2_tl'
I28
tp2646
a(S'w'
I1
tp2647
a(S'p2_ll'
I0
tp2648
a(S'w'
I14
tp2649
a(S'tr_lr'
I123
tp2650
a(S'tr_ll'
I0
tp2651
a(S'w'
I10
tp2652
a(S'w'
I690
tp2653
a(S'p1_vo'
I7
tp2654
a(S'w'
I1
tp2655
a(S'w'
I9
tp2656
a(S'w'
I10
tp2657
a(S'tr_lr'
I117
tp2658
a(S'w'
I11
tp2659
a(S'w'
I703
tp2660
a(S'p1_vo'
I6
tp2661
a(S'w'
I10
tp2662
a(S'w'
I10
tp2663
a(S'tr_lr'
I116
tp2664
a(S'w'
I11
tp2665
a(S'w'
I706
tp2666
a(S'p1_vo'
I5
tp2667
a(S'w'
I10
tp2668
a(S'w'
I20
tp2669
a(S'w'
I701
tp2670
a(S'w'
I10
tp2671
a(S'p2_vo'
I6
tp2672
a(S'w'
I21
tp2673
a(S'w'
I702
tp2674
a(S'p1_vo'
I4
tp2675
a(S'w'
I1
tp2676
a(S'w'
I9
tp2677
a(S'p2_vo'
I5
tp2678
a(S'w'
I1
tp2679
a(S'w'
I10
tp2680
a(S'tr_lr'
I115
tp2681
a(S'w'
I10
tp2682
a(S'w'
I704
tp2683
a(S'w'
I9
tp2684
a(S'p2_vo'
I4
tp2685
a(S'w'
I21
tp2686
a(S'w'
I703
tp2687
a(S'p1_vo'
I3
tp2688
a(S'w'
I10
tp2689
a(S'w'
I21
tp2690
a(S'w'
I703
tp2691
a(S'w'
I10
tp2692
a(S'w'
I21
tp2693
a(S'w'
I703
tp2694
a(S'w'
I10
tp2695
a(S'p2_vo'
I3
tp2696
a(S'w'
I10
tp2697
a(S'tr_lr'
I114
tp2698
a(S'w'
I11
tp2699
a(S'w'
I702
tp2700
a(S'p1_vo'
I2
tp2701
a(S'w'
I1
tp2702
a(S'w'
I10
tp2703
a(S'w'
I10
tp2704
a(S'tr_lr'
I0
tp2705
a(S'w'
I10
tp2706
a(S'w'
I710
tp2707
a(S'w'
I10
tp2708
a(S'p2_vo'
I2
tp2709
a(S'w'
I1
tp2710
a(S'w'
I20
tp2711
a(S'w'
I698
tp2712
a(S'w'
I10
tp2713
a(S'w'
I23
tp2714
a(S'no_vo'
I11
tp2715
a(S'no_np'
I9
tp2716
a(S'w'
I1
tp2717
a(S'no_ll'
I0
tp2718
a(S'w'
I699
tp2719
a(S'w'
I11
tp2720
a(S'w'
I20
tp2721
a(S'no_vo'
I5
tp2722
a(S'w'
I703
tp2723
a(S'w'
I10
tp2724
a(S'w'
I21
tp2725
a(S'no_vo'
I4
tp2726
a(S'w'
I703
tp2727
a(S'w'
I10
tp2728
a(S'w'
I21
tp2729
a(S'w'
I703
tp2730
a(S'w'
I11
tp2731
a(S'w'
I21
tp2732
a(S'w'
I702
tp2733
a(S'w'
I10
tp2734
a(S'w'
I20
tp2735
a(S'no_vo'
I3
tp2736
a(S'w'
I1
tp2737
a(S'w'
I702
tp2738
a(S'w'
I11
tp2739
a(S'w'
I20
tp2740
a(S'w'
I706
tp2741
a(S'w'
I10
tp2742
a(S'w'
I19
tp2743
a(S'w'
I702
tp2744
a(S'w'
I10
tp2745
a(S'w'
I21
tp2746
a(S'w'
I703
tp2747
a(S'w'
I10
tp2748
a(S'w'
I21
tp2749
a(S'no_vo'
I0
tp2750
a(S'w'
I703
tp2751
a(S'w'
I10
tp2752
a(S'w'
I21
tp2753
a(S'w'
I702
tp2754
a(S'w'
I11
tp2755
a(S'w'
I20
tp2756
a(S'w'
I703
tp2757
a(S'w'
I11
tp2758
a(S'w'
I21
tp2759
a(S'w'
I704
tp2760
a(S'p1_vo'
I8
tp2761
a(S'w'
I1
tp2762
a(S'p1_tl'
I178
tp2763
a(S'p1_ll'
I0
tp2764
a(S'w'
I13
tp2765
a(S'p2_vo'
I8
tp2766
a(S'w'
I1
tp2767
a(S'p2_tl'
I238
tp2768
a(S'p2_ll'
I0
tp2769
a(S'p2_th'
I0
tp2770
a(S'w'
I14
tp2771
a(S'tr_lr'
I123
tp2772
a(S'tr_tl'
I103
tp2773
a(S'w'
I1
tp2774
a(S'tr_ll'
I0
tp2775
a(S'w'
I10
tp2776
a(S'w'
I690
tp2777
a(S'p1_vo'
I7
tp2778
a(S'w'
I1
tp2779
a(S'w'
I9
tp2780
a(S'w'
I10
tp2781
a(S'tr_lr'
I117
tp2782
a(S'w'
I11
tp2783
a(S'w'
I708
tp2784
a(S'p1_vo'
I6
tp2785
a(S'w'
I1
tp2786
a(S'w'
I9
tp2787
a(S'w'
I10
tp2788
a(S'tr_lr'
I116
tp2789
a(S'w'
I11
tp2790
a(S'w'
I698
tp2791
a(S'p1_vo'
I5
tp2792
a(S'w'
I10
tp2793
a(S'w'
I21
tp2794
a(S'w'
I703
tp2795
a(S'w'
I10
tp2796
a(S'p2_vo'
I6
tp2797
a(S'w'
I21
tp2798
a(S'w'
I703
tp2799
a(S'p1_vo'
I4
tp2800
a(S'w'
I9
tp2801
a(S'p2_vo'
I5
tp2802
a(S'w'
I1
tp2803
a(S'w'
I10
tp2804
a(S'tr_lr'
I0
tp2805
a(S'w'
I11
tp2806
a(S'w'
I703
tp2807
a(S'w'
I9
tp2808
a(S'p2_vo'
I4
tp2809
a(S'w'
I21
tp2810
a(S'w'
I703
tp2811
a(S'p1_vo'
I3
tp2812
a(S'w'
I10
tp2813
a(S'w'
I21
tp2814
a(S'w'
I703
tp2815
a(S'w'
I10
tp2816
a(S'w'
I21
tp2817
a(S'w'
I703
tp2818
a(S'w'
I10
tp2819
a(S'p2_vo'
I3
tp2820
a(S'w'
I21
tp2821
a(S'w'
I705
tp2822
a(S'p1_vo'
I2
tp2823
a(S'w'
I10
tp2824
a(S'w'
I21
tp2825
a(S'w'
I701
tp2826
a(S'w'
I10
tp2827
a(S'w'
I21
tp2828
a(S'w'
I703
tp2829
a(S'w'
I10
tp2830
a(S'w'
I13
tp2831
a(S'tr_lr'
I123
tp2832
a(S'tr_tl'
I63
tp2833
a(S'w'
I1
tp2834
a(S'tr_ll'
I0
tp2835
a(S'w'
I16
tp2836
a(S'no_vo'
I11
tp2837
a(S'w'
I1
tp2838
a(S'no_np'
I14
tp2839
a(S'no_ll'
I0
tp2840
a(S'w'
I693
tp2841
a(S'w'
I10
tp2842
a(S'p2_vo'
I4
tp2843
a(S'w'
I10
tp2844
a(S'tr_lr'
I117
tp2845
a(S'w'
I10
tp2846
a(S'no_vo'
I5
tp2847
a(S'w'
I704
tp2848
a(S'w'
I9
tp2849
a(S'p2_vo'
I5
tp2850
a(S'w'
I1
tp2851
a(S'w'
I10
tp2852
a(S'tr_lr'
I116
tp2853
a(S'w'
I9
tp2854
a(S'no_vo'
I4
tp2855
a(S'w'
I1
tp2856
a(S'w'
I704
tp2857
a(S'w'
I9
tp2858
a(S'w'
I20
tp2859
a(S'w'
I704
tp2860
a(S'w'
I11
tp2861
a(S'p2_vo'
I4
tp2862
a(S'w'
I20
tp2863
a(S'w'
I703
tp2864
a(S'w'
I10
tp2865
a(S'p2_vo'
I3
tp2866
a(S'w'
I10
tp2867
a(S'tr_lr'
I0
tp2868
a(S'w'
I10
tp2869
a(S'no_vo'
I3
tp2870
a(S'w'
I709
tp2871
a(S'w'
I10
tp2872
a(S'w'
I20
tp2873
a(S'w'
I699
tp2874
a(S'w'
I10
tp2875
a(S'w'
I20
tp2876
a(S'w'
I704
tp2877
a(S'w'
I9
tp2878
a(S'w'
I20
tp2879
a(S'no_vo'
I0
tp2880
a(S'w'
I1
tp2881
a(S'w'
I703
tp2882
a(S'w'
I10
tp2883
a(S'p2_vo'
I4
tp2884
a(S'w'
I20
tp2885
a(S'w'
I704
tp2886
a(S'w'
I10
tp2887
a(S'p2_vo'
I5
tp2888
a(S'w'
I20
tp2889
a(S'w'
I704
tp2890
a(S'w'
I10
tp2891
a(S'w'
I20
tp2892
a(S'w'
I707
tp2893
a(S'p1_vo'
I8
tp2894
a(S'p1_tl'
I189
tp2895
a(S'w'
I1
tp2896
a(S'p1_ll'
I0
tp2897
a(S'w'
I13
tp2898
a(S'p2_vo'
I8
tp2899
a(S'w'
I1
tp2900
a(S'p2_tl'
I253
tp2901
a(S'p2_ll'
I0
tp2902
a(S'w'
I14
tp2903
a(S'tr_lr'
I123
tp2904
a(S'w'
I1
tp2905
a(S'tr_ll'
I0
tp2906
a(S'w'
I9
tp2907
a(S'w'
I691
tp2908
a(S'p1_vo'
I7
tp2909
a(S'w'
I10
tp2910
a(S'w'
I10
tp2911
a(S'tr_lr'
I117
tp2912
a(S'w'
I10
tp2913
a(S'w'
I706
tp2914
a(S'p1_vo'
I6
tp2915
a(S'w'
I10
tp2916
a(S'w'
I10
tp2917
a(S'tr_lr'
I116
tp2918
a(S'w'
I11
tp2919
a(S'w'
I700
tp2920
a(S'p1_vo'
I5
tp2921
a(S'w'
I10
tp2922
a(S'w'
I21
tp2923
a(S'w'
I703
tp2924
a(S'w'
I10
tp2925
a(S'p2_vo'
I6
tp2926
a(S'w'
I21
tp2927
a(S'w'
I703
tp2928
a(S'p1_vo'
I4
tp2929
a(S'w'
I10
tp2930
a(S'p2_vo'
I5
tp2931
a(S'w'
I10
tp2932
a(S'tr_lr'
I115
tp2933
a(S'w'
I11
tp2934
a(S'w'
I703
tp2935
a(S'w'
I9
tp2936
a(S'p2_vo'
I4
tp2937
a(S'w'
I1
tp2938
a(S'w'
I20
tp2939
a(S'w'
I703
tp2940
a(S'p1_vo'
I3
tp2941
a(S'w'
I1
tp2942
a(S'w'
I9
tp2943
a(S'w'
I21
tp2944
a(S'w'
I703
tp2945
a(S'w'
I10
tp2946
a(S'w'
I21
tp2947
a(S'w'
I703
tp2948
a(S'w'
I10
tp2949
a(S'p2_vo'
I3
tp2950
a(S'w'
I10
tp2951
a(S'tr_lr'
I114
tp2952
a(S'w'
I11
tp2953
a(S'w'
I708
tp2954
a(S'p1_vo'
I2
tp2955
a(S'w'
I10
tp2956
a(S'w'
I21
tp2957
a(S'w'
I698
tp2958
a(S'w'
I10
tp2959
a(S'w'
I10
tp2960
a(S'tr_lr'
I0
tp2961
a(S'w'
I11
tp2962
a(S'w'
I706
tp2963
a(S'p1_vo'
I8
tp2964
a(S'w'
I1
tp2965
a(S'p1_tl'
I212
tp2966
a(S'p1_ll'
I0
tp2967
a(S'w'
I14
tp2968
a(S'p2_vo'
I8
tp2969
a(S'p2_tl'
I28
tp2970
a(S'p2_ll'
I0
tp2971
a(S'p2_th'
I1
tp2972
a(S'w'
I23
tp2973
a(S'no_vo'
I11
tp2974
a(S'no_np'
I9
tp2975
a(S'w'
I1
tp2976
a(S'no_ll'
I0
tp2977
a(S'w'
I691
tp2978
a(S'p1_vo'
I7
tp2979
a(S'w'
I10
tp2980
a(S'w'
I21
tp2981
a(S'no_vo'
I5
tp2982
a(S'w'
I703
tp2983
a(S'p1_vo'
I6
tp2984
a(S'w'
I10
tp2985
a(S'w'
I21
tp2986
a(S'no_vo'
I4
tp2987
a(S'w'
I703
tp2988
a(S'p1_vo'
I5
tp2989
a(S'w'
I10
tp2990
a(S'w'
I21
tp2991
a(S'w'
I703
tp2992
a(S'p1_vo'
I2
tp2993
a(S'w'
I11
tp2994
a(S'p2_vo'
I2
tp2995
a(S'w'
I21
tp2996
a(S'w'
I702
tp2997
a(S'w'
I10
tp2998
a(S'w'
I21
tp2999
a(S'no_vo'
I3
tp3000
a(S'w'
I706
tp3001
a(S'w'
I10
tp3002
a(S'w'
I21
tp3003
a(S'w'
I700
tp3004
a(S'w'
I10
tp3005
a(S'w'
I21
tp3006
a(S'w'
I703
tp3007
a(S'w'
I10
tp3008
a(S'w'
I21
tp3009
a(S'no_vo'
I0
tp3010
a(S'w'
I702
tp3011
a(S'w'
I11
tp3012
a(S'w'
I20
tp3013
a(S'w'
I703
tp3014
a(S'w'
I10
tp3015
a(S'w'
I21
tp3016
a(S'w'
I704
tp3017
a(S'w'
I10
tp3018
a(S'w'
I21
tp3019
a(S'w'
I704
tp3020
a(S'p1_vo'
I8
tp3021
a(S'w'
I1
tp3022
a(S'p1_tl'
I238
tp3023
a(S'p1_ll'
I0
tp3024
a(S'w'
I13
tp3025
a(S'p2_vo'
I8
tp3026
a(S'p2_tl'
I63
tp3027
a(S'p2_ll'
I0
tp3028
a(S'w'
I14
tp3029
a(S'tr_lr'
I123
tp3030
a(S'tr_tl'
I103
tp3031
a(S'w'
I1
tp3032
a(S'tr_ll'
I0
tp3033
a(S'w'
I9
tp3034
a(S'w'
I693
tp3035
a(S'p1_vo'
I7
tp3036
a(S'w'
I10
tp3037
a(S'w'
I10
tp3038
a(S'tr_lr'
I117
tp3039
a(S'w'
I11
tp3040
a(S'w'
I708
tp3041
a(S'p1_vo'
I6
tp3042
a(S'w'
I10
tp3043
a(S'w'
I10
tp3044
a(S'tr_lr'
I116
tp3045
a(S'w'
I11
tp3046
a(S'w'
I697
tp3047
a(S'p1_vo'
I5
tp3048
a(S'w'
I1
tp3049
a(S'w'
I9
tp3050
a(S'w'
I21
tp3051
a(S'w'
I704
tp3052
a(S'p1_vo'
I2
tp3053
a(S'w'
I10
tp3054
a(S'p2_vo'
I2
tp3055
a(S'w'
I1
tp3056
a(S'w'
I20
tp3057
a(S'w'
I703
tp3058
a(S'w'
I10
tp3059
a(S'w'
I10
tp3060
a(S'tr_lr'
I115
tp3061
a(S'w'
I11
tp3062
a(S'w'
I703
tp3063
a(S'w'
I10
tp3064
a(S'w'
I21
tp3065
a(S'w'
I702
tp3066
a(S'w'
I11
tp3067
a(S'w'
I10
tp3068
a(S'tr_lr'
I0
tp3069
a(S'w'
I11
tp3070
a(S'w'
I702
tp3071
a(S'w'
I10
tp3072
a(S'w'
I21
tp3073
a(S'w'
I703
tp3074
a(S'w'
I10
tp3075
a(S'w'
I21
tp3076
a(S'w'
I705
tp3077
a(S'w'
I11
tp3078
a(S'w'
I20
tp3079
a(S'w'
I701
tp3080
a(S'w'
I11
tp3081
a(S'w'
I20
tp3082
a(S'w'
I708
tp3083
a(S'p1_vo'
I8
tp3084
a(S'p1_ll'
I0
tp3085
a(S'w'
I16
tp3086
a(S'p2_vo'
I8
tp3087
a(S'p2_ll'
I0
tp3088
a(S'w'
I21
tp3089
a(S'tr_lr'
I123
tp3090
a(S'tr_tl'
I171
tp3091
a(S'w'
I1
tp3092
a(S'tr_ll'
I0
tp3093
a(S'w'
I16
tp3094
a(S'no_vo'
I11
tp3095
a(S'no_np'
I14
tp3096
a(S'w'
I1
tp3097
a(S'no_ll'
I0
tp3098
a(S'w'
I672
tp3099
a(S'p1_vo'
I7
tp3100
a(S'w'
I1
tp3101
a(S'w'
I10
tp3102
a(S'w'
I10
tp3103
a(S'tr_lr'
I117
tp3104
a(S'w'
I9
tp3105
a(S'no_vo'
I5
tp3106
a(S'w'
I1
tp3107
a(S'w'
I703
tp3108
a(S'p1_vo'
I6
tp3109
a(S'w'
I10
tp3110
a(S'w'
I10
tp3111
a(S'tr_lr'
I116
tp3112
a(S'w'
I10
tp3113
a(S'no_vo'
I4
tp3114
a(S'w'
I704
tp3115
a(S'p1_vo'
I5
tp3116
a(S'w'
I10
tp3117
a(S'w'
I20
tp3118
a(S'w'
I704
tp3119
a(S'w'
I10
tp3120
a(S'p2_vo'
I6
tp3121
a(S'w'
I20
tp3122
a(S'w'
I704
tp3123
a(S'p1_vo'
I4
tp3124
a(S'w'
I10
tp3125
a(S'p2_vo'
I5
tp3126
a(S'w'
I10
tp3127
a(S'tr_lr'
I0
tp3128
a(S'w'
I10
tp3129
a(S'no_vo'
I3
tp3130
a(S'w'
I709
tp3131
a(S'w'
I10
tp3132
a(S'p2_vo'
I4
tp3133
a(S'w'
I20
tp3134
a(S'w'
I698
tp3135
a(S'p1_vo'
I3
tp3136
a(S'w'
I10
tp3137
a(S'w'
I20
tp3138
a(S'w'
I704
tp3139
a(S'w'
I10
tp3140
a(S'w'
I20
tp3141
a(S'no_vo'
I0
tp3142
a(S'w'
I704
tp3143
a(S'w'
I10
tp3144
a(S'p2_vo'
I3
tp3145
a(S'w'
I20
tp3146
a(S'w'
I704
tp3147
a(S'p1_vo'
I2
tp3148
a(S'w'
I11
tp3149
a(S'p2_vo'
I2
tp3150
a(S'w'
I20
tp3151
a(S'w'
I704
tp3152
a(S'w'
I10
tp3153
a(S'w'
I20
tp3154
a(S'w'
I706
tp3155
a(S'p1_vo'
I8
tp3156
a(S'w'
I1
tp3157
a(S'p1_tl'
I212
tp3158
a(S'p1_ll'
I0
tp3159
a(S'w'
I14
tp3160
a(S'p2_vo'
I8
tp3161
a(S'p2_tl'
I28
tp3162
a(S'p2_ll'
I0
tp3163
a(S'w'
I14
tp3164
a(S'tr_lr'
I123
tp3165
a(S'w'
I1
tp3166
a(S'tr_ll'
I0
tp3167
a(S'w'
I9
tp3168
a(S'w'
I691
tp3169
a(S'p1_vo'
I7
tp3170
a(S'w'
I10
tp3171
a(S'w'
I10
tp3172
a(S'tr_lr'
I117
tp3173
a(S'w'
I11
tp3174
a(S'w'
I705
tp3175
a(S'p1_vo'
I6
tp3176
a(S'w'
I1
tp3177
a(S'w'
I10
tp3178
a(S'w'
I10
tp3179
a(S'tr_lr'
I116
tp3180
a(S'w'
I10
tp3181
a(S'w'
I701
tp3182
a(S'p1_vo'
I5
tp3183
a(S'w'
I10
tp3184
a(S'w'
I20
tp3185
a(S'w'
I704
tp3186
a(S'w'
I9
tp3187
a(S'p2_vo'
I6
tp3188
a(S'w'
I1
tp3189
a(S'w'
I20
tp3190
a(S'w'
I703
tp3191
a(S'p1_vo'
I4
tp3192
a(S'w'
I10
tp3193
a(S'p2_vo'
I5
tp3194
a(S'w'
I10
tp3195
a(S'tr_lr'
I115
tp3196
a(S'w'
I11
tp3197
a(S'w'
I703
tp3198
a(S'w'
I10
tp3199
a(S'p2_vo'
I4
tp3200
a(S'w'
I21
tp3201
a(S'w'
I703
tp3202
a(S'p1_vo'
I3
tp3203
a(S'w'
I10
tp3204
a(S'w'
I21
tp3205
a(S'w'
I703
tp3206
a(S'w'
I10
tp3207
a(S'w'
I20
tp3208
a(S'w'
I704
tp3209
a(S'w'
I9
tp3210
a(S'p2_vo'
I3
tp3211
a(S'w'
I1
tp3212
a(S'w'
I10
tp3213
a(S'tr_lr'
I114
tp3214
a(S'w'
I10
tp3215
a(S'w'
I709
tp3216
a(S'p1_vo'
I2
tp3217
a(S'w'
I10
tp3218
a(S'w'
I10
tp3219
a(S'tr_lr'
I0
tp3220
a(S'w'
I11
tp3221
a(S'w'
I699
tp3222
a(S'w'
I10
tp3223
a(S'p2_vo'
I2
tp3224
a(S'w'
I21
tp3225
a(S'w'
I702
tp3226
a(S'w'
I11
tp3227
a(S'w'
I23
tp3228
a(S'no_vo'
I11
tp3229
a(S'no_np'
I9
tp3230
a(S'no_ll'
I0
tp3231
a(S'w'
I700
tp3232
a(S'w'
I10
tp3233
a(S'w'
I21
tp3234
a(S'no_vo'
I5
tp3235
a(S'w'
I703
tp3236
a(S'w'
I10
tp3237
a(S'w'
I21
tp3238
a(S'no_vo'
I4
tp3239
a(S'w'
I703
tp3240
a(S'w'
I10
tp3241
a(S'w'
I21
tp3242
a(S'w'
I702
tp3243
a(S'w'
I12
tp3244
a(S'w'
I20
tp3245
a(S'w'
I702
tp3246
a(S'w'
I11
tp3247
a(S'w'
I20
tp3248
a(S'no_vo'
I3
tp3249
a(S'w'
I706
tp3250
a(S'w'
I10
tp3251
a(S'w'
I21
tp3252
a(S'w'
I700
tp3253
a(S'w'
I10
tp3254
a(S'w'
I21
tp3255
a(S'w'
I703
tp3256
a(S'w'
I10
tp3257
a(S'w'
I21
tp3258
a(S'no_vo'
I0
tp3259
a(S'w'
I702
tp3260
a(S'w'
I11
tp3261
a(S'w'
I21
tp3262
a(S'w'
I702
tp3263
a(S'w'
I11
tp3264
a(S'w'
I20
tp3265
a(S'w'
I703
tp3266
a(S'w'
I10
tp3267
a(S'w'
I21
tp3268
a(S'w'
I705
tp3269
a(S'p1_vo'
I8
tp3270
a(S'w'
I1
tp3271
a(S'p1_tl'
I28
tp3272
a(S'p1_ll'
I0
tp3273
a(S'p1_th'
I1
tp3274
a(S'w'
I13
tp3275
a(S'p2_vo'
I8
tp3276
a(S'w'
I1
tp3277
a(S'p2_tl'
I124
tp3278
a(S'p2_ll'
I0
tp3279
a(S'w'
I14
tp3280
a(S'tr_lr'
I123
tp3281
a(S'tr_tl'
I223
tp3282
a(S'w'
I1
tp3283
a(S'tr_ll'
I0
tp3284
a(S'w'
I9
tp3285
a(S'w'
I691
tp3286
a(S'p1_vo'
I7
tp3287
a(S'w'
I1
tp3288
a(S'w'
I9
tp3289
a(S'w'
I10
tp3290
a(S'tr_lr'
I117
tp3291
a(S'w'
I11
tp3292
a(S'w'
I708
tp3293
a(S'p1_vo'
I6
tp3294
a(S'w'
I1
tp3295
a(S'w'
I9
tp3296
a(S'w'
I10
tp3297
a(S'tr_lr'
I116
tp3298
a(S'w'
I11
tp3299
a(S'w'
I698
tp3300
a(S'p1_vo'
I5
tp3301
a(S'w'
I10
tp3302
a(S'w'
I21
tp3303
a(S'w'
I703
tp3304
a(S'w'
I10
tp3305
a(S'p2_vo'
I6
tp3306
a(S'w'
I21
tp3307
a(S'w'
I703
tp3308
a(S'p1_vo'
I4
tp3309
a(S'w'
I9
tp3310
a(S'p2_vo'
I5
tp3311
a(S'w'
I1
tp3312
a(S'w'
I10
tp3313
a(S'tr_lr'
I0
tp3314
a(S'w'
I10
tp3315
a(S'w'
I703
tp3316
a(S'w'
I10
tp3317
a(S'p2_vo'
I4
tp3318
a(S'w'
I21
tp3319
a(S'w'
I703
tp3320
a(S'p1_vo'
I3
tp3321
a(S'w'
I10
tp3322
a(S'w'
I21
tp3323
a(S'w'
I703
tp3324
a(S'w'
I10
tp3325
a(S'w'
I21
tp3326
a(S'w'
I703
tp3327
a(S'w'
I10
tp3328
a(S'p2_vo'
I3
tp3329
a(S'w'
I20
tp3330
a(S'w'
I706
tp3331
a(S'p1_vo'
I2
tp3332
a(S'w'
I10
tp3333
a(S'w'
I21
tp3334
a(S'w'
I701
tp3335
a(S'w'
I10
tp3336
a(S'w'
I21
tp3337
a(S'w'
I703
tp3338
a(S'w'
I10
tp3339
a(S'w'
I13
tp3340
a(S'tr_lr'
I123
tp3341
a(S'tr_tl'
I171
tp3342
a(S'w'
I1
tp3343
a(S'tr_ll'
I0
tp3344
a(S'w'
I16
tp3345
a(S'no_vo'
I11
tp3346
a(S'w'
I1
tp3347
a(S'no_np'
I14
tp3348
a(S'no_ll'
I0
tp3349
a(S'w'
I693
tp3350
a(S'w'
I10
tp3351
a(S'p2_vo'
I4
tp3352
a(S'w'
I10
tp3353
a(S'tr_lr'
I117
tp3354
a(S'w'
I10
tp3355
a(S'no_vo'
I5
tp3356
a(S'w'
I704
tp3357
a(S'w'
I9
tp3358
a(S'p2_vo'
I5
tp3359
a(S'w'
I1
tp3360
a(S'w'
I10
tp3361
a(S'tr_lr'
I116
tp3362
a(S'w'
I9
tp3363
a(S'no_vo'
I4
tp3364
a(S'w'
I1
tp3365
a(S'w'
I703
tp3366
a(S'w'
I10
tp3367
a(S'w'
I20
tp3368
a(S'w'
I704
tp3369
a(S'w'
I11
tp3370
a(S'p2_vo'
I4
tp3371
a(S'w'
I20
tp3372
a(S'w'
I703
tp3373
a(S'w'
I10
tp3374
a(S'p2_vo'
I3
tp3375
a(S'w'
I10
tp3376
a(S'tr_lr'
I0
tp3377
a(S'w'
I10
tp3378
a(S'no_vo'
I3
tp3379
a(S'w'
I709
tp3380
a(S'w'
I10
tp3381
a(S'w'
I20
tp3382
a(S'w'
I699
tp3383
a(S'w'
I9
tp3384
a(S'w'
I20
tp3385
a(S'w'
I704
tp3386
a(S'w'
I10
tp3387
a(S'w'
I20
tp3388
a(S'no_vo'
I0
tp3389
a(S'w'
I704
tp3390
a(S'w'
I10
tp3391
a(S'p2_vo'
I4
tp3392
a(S'w'
I20
tp3393
a(S'w'
I705
tp3394
a(S'w'
I10
tp3395
a(S'p2_vo'
I2
tp3396
a(S'w'
I20
tp3397
a(S'w'
I703
tp3398
a(S'w'
I11
tp3399
a(S'w'
I20
tp3400
a(S'w'
I706
tp3401
a(S'p1_vo'
I8
tp3402
a(S'p1_tl'
I63
tp3403
a(S'w'
I1
tp3404
a(S'p1_ll'
I0
tp3405
a(S'w'
I13
tp3406
a(S'p2_vo'
I8
tp3407
a(S'p2_tl'
I171
tp3408
a(S'w'
I1
tp3409
a(S'p2_ll'
I0
tp3410
a(S'w'
I14
tp3411
a(S'tr_lr'
I123
tp3412
a(S'tr_ll'
I0
tp3413
a(S'w'
I10
tp3414
a(S'w'
I691
tp3415
a(S'p1_vo'
I7
tp3416
a(S'w'
I10
tp3417
a(S'w'
I10
tp3418
a(S'tr_lr'
I117
tp3419
a(S'w'
I10
tp3420
a(S'w'
I706
tp3421
a(S'p1_vo'
I6
tp3422
a(S'w'
I10
tp3423
a(S'w'
I10
tp3424
a(S'tr_lr'
I116
tp3425
a(S'w'
I11
tp3426
a(S'w'
I700
tp3427
a(S'p1_vo'
I5
tp3428
a(S'w'
I10
tp3429
a(S'w'
I21
tp3430
a(S'w'
I703
tp3431
a(S'w'
I10
tp3432
a(S'p2_vo'
I6
tp3433
a(S'w'
I21
tp3434
a(S'w'
I703
tp3435
a(S'p1_vo'
I4
tp3436
a(S'w'
I10
tp3437
a(S'p2_vo'
I5
tp3438
a(S'w'
I10
tp3439
a(S'tr_lr'
I115
tp3440
a(S'w'
I11
tp3441
a(S'w'
I703
tp3442
a(S'w'
I9
tp3443
a(S'p2_vo'
I4
tp3444
a(S'w'
I1
tp3445
a(S'w'
I20
tp3446
a(S'w'
I703
tp3447
a(S'p1_vo'
I3
tp3448
a(S'w'
I1
tp3449
a(S'w'
I9
tp3450
a(S'w'
I21
tp3451
a(S'w'
I703
tp3452
a(S'w'
I10
tp3453
a(S'w'
I21
tp3454
a(S'w'
I703
tp3455
a(S'w'
I10
tp3456
a(S'p2_vo'
I3
tp3457
a(S'w'
I10
tp3458
a(S'tr_lr'
I114
tp3459
a(S'w'
I11
tp3460
a(S'w'
I708
tp3461
a(S'p1_vo'
I2
tp3462
a(S'w'
I10
tp3463
a(S'w'
I21
tp3464
a(S'w'
I699
tp3465
a(S'w'
I10
tp3466
a(S'p2_vo'
I2
tp3467
a(S'w'
I1
tp3468
a(S'w'
I10
tp3469
a(S'tr_lr'
I0
tp3470
a(S'w'
I10
tp3471
a(S'w'
I705
tp3472
a(S'p1_vo'
I8
tp3473
a(S'p1_tl'
I103
tp3474
a(S'w'
I1
tp3475
a(S'p1_ll'
I0
tp3476
a(S'w'
I13
tp3477
a(S'p2_vo'
I8
tp3478
a(S'p2_tl'
I223
tp3479
a(S'w'
I1
tp3480
a(S'p2_ll'
I0
tp3481
a(S'w'
I23
tp3482
a(S'no_vo'
I11
tp3483
a(S'no_np'
I9
tp3484
a(S'no_ll'
I0
tp3485
a(S'w'
I692
tp3486
a(S'p1_vo'
I7
tp3487
a(S'w'
I10
tp3488
a(S'w'
I21
tp3489
a(S'no_vo'
I5
tp3490
a(S'w'
I703
tp3491
a(S'p1_vo'
I6
tp3492
a(S'w'
I10
tp3493
a(S'w'
I20
tp3494
a(S'no_vo'
I4
tp3495
a(S'w'
I1
tp3496
a(S'w'
I703
tp3497
a(S'p1_vo'
I5
tp3498
a(S'w'
I10
tp3499
a(S'w'
I21
tp3500
a(S'w'
I703
tp3501
a(S'w'
I9
tp3502
a(S'p2_vo'
I6
tp3503
a(S'w'
I1
tp3504
a(S'w'
I20
tp3505
a(S'w'
I703
tp3506
a(S'p1_vo'
I4
tp3507
a(S'w'
I1
tp3508
a(S'w'
I9
tp3509
a(S'p2_vo'
I5
tp3510
a(S'w'
I21
tp3511
a(S'no_vo'
I3
tp3512
a(S'w'
I706
tp3513
a(S'w'
I10
tp3514
a(S'p2_vo'
I4
tp3515
a(S'w'
I21
tp3516
a(S'w'
I700
tp3517
a(S'p1_vo'
I3
tp3518
a(S'w'
I10
tp3519
a(S'w'
I21
tp3520
a(S'w'
I703
tp3521
a(S'w'
I10
tp3522
a(S'w'
I20
tp3523
a(S'no_vo'
I0
tp3524
a(S'w'
I1
tp3525
a(S'w'
I703
tp3526
a(S'p1_vo'
I2
tp3527
a(S'w'
I11
tp3528
a(S'p2_vo'
I2
tp3529
a(S'w'
I21
tp3530
a(S'w'
I702
tp3531
a(S'w'
I10
tp3532
a(S'w'
I21
tp3533
a(S'w'
I704
tp3534
a(S'w'
I10
tp3535
a(S'w'
I21
tp3536
a(S'w'
I704
tp3537
a(S'p1_vo'
I8
tp3538
a(S'p1_tl'
I171
tp3539
a(S'w'
I1
tp3540
a(S'p1_ll'
I0
tp3541
a(S'w'
I13
tp3542
a(S'p2_vo'
I8
tp3543
a(S'p2_tl'
I60
tp3544
a(S'p2_ll'
I0
tp3545
a(S'p2_th'
I2
tp3546
a(S'w'
I14
tp3547
a(S'tr_lr'
I123
tp3548
a(S'tr_tl'
I223
tp3549
a(S'w'
I1
tp3550
a(S'tr_ll'
I0
tp3551
a(S'w'
I9
tp3552
a(S'w'
I693
tp3553
a(S'p1_vo'
I7
tp3554
a(S'w'
I10
tp3555
a(S'w'
I10
tp3556
a(S'tr_lr'
I117
tp3557
a(S'w'
I11
tp3558
a(S'w'
I708
tp3559
a(S'p1_vo'
I6
tp3560
a(S'w'
I10
tp3561
a(S'w'
I10
tp3562
a(S'tr_lr'
I116
tp3563
a(S'w'
I11
tp3564
a(S'w'
I697
tp3565
a(S'p1_vo'
I5
tp3566
a(S'w'
I1
tp3567
a(S'w'
I9
tp3568
a(S'w'
I21
tp3569
a(S'w'
I703
tp3570
a(S'w'
I10
tp3571
a(S'p2_vo'
I6
tp3572
a(S'w'
I21
tp3573
a(S'w'
I703
tp3574
a(S'p1_vo'
I4
tp3575
a(S'w'
I10
tp3576
a(S'p2_vo'
I5
tp3577
a(S'w'
I10
tp3578
a(S'tr_lr'
I115
tp3579
a(S'w'
I11
tp3580
a(S'w'
I703
tp3581
a(S'w'
I10
tp3582
a(S'p2_vo'
I4
tp3583
a(S'w'
I21
tp3584
a(S'w'
I703
tp3585
a(S'p1_vo'
I3
tp3586
a(S'w'
I10
tp3587
a(S'w'
I10
tp3588
a(S'tr_lr'
I0
tp3589
a(S'w'
I11
tp3590
a(S'w'
I703
tp3591
a(S'w'
I9
tp3592
a(S'w'
I21
tp3593
a(S'w'
I704
tp3594
a(S'p1_vo'
I2
tp3595
a(S'w'
I10
tp3596
a(S'p2_vo'
I2
tp3597
a(S'w'
I1
tp3598
a(S'w'
I20
tp3599
a(S'w'
I705
tp3600
a(S'w'
I11
tp3601
a(S'w'
I20
tp3602
a(S'w'
I701
tp3603
a(S'w'
I11
tp3604
a(S'w'
I20
tp3605
a(S'w'
I707
tp3606
a(S'p1_vo'
I0
tp3607
a(S'w'
I1
tp3608
a(S'p1_ll'
I0
tp3609
a(S'w'
I15
tp3610
a(S'p2_vo'
I0
tp3611
a(S'p2_ll'
I0
tp3612
a(S'w'
I17
tp3613
a(S'tr_ll'
I0
tp3614
a(S'w'
I17
tp3615
a(S'no_vo'
I11
tp3616
a(S'no_np'
I14
tp3617
a(S'w'
I1
tp3618
a(S'no_ll'
I0
tp3619
a(S'w'
I678
tp3620
a(S'w'
I11
tp3621
a(S'w'
I20
tp3622
a(S'no_vo'
I5
tp3623
a(S'w'
I703
tp3624
a(S'w'
I11
tp3625
a(S'w'
I19
tp3626
a(S'no_vo'
I4
tp3627
a(S'w'
I1
tp3628
a(S'w'
I703
tp3629
a(S'w'
I10
tp3630
a(S'w'
I20
tp3631
a(S'w'
I704
tp3632
a(S'w'
I10
tp3633
a(S'w'
I20
tp3634
a(S'w'
I703
tp3635
a(S'w'
I11
tp3636
a(S'w'
I20
tp3637
a(S'no_vo'
I3
tp3638
a(S'w'
I709
tp3639
a(S'w'
I10
tp3640
a(S'w'
I20
tp3641
a(S'w'
I698
tp3642
a(S'w'
I11
tp3643
a(S'w'
I20
tp3644
a(S'w'
I703
tp3645
a(S'w'
I10
tp3646
a(S'w'
I20
tp3647
a(S'no_vo'
I0
tp3648
a(S'w'
I1
tp3649
a(S'w'
I703
tp3650
a(S'w'
I10
tp3651
a(S'w'
I20
tp3652
a(S'w'
I703
tp3653
a(S'w'
I11
tp3654
a(S'w'
I20
tp3655
a(S'w'
I704
tp3656
a(S'w'
I10
tp3657
a(S'w'
I21
tp3658
a(S'w'
I705
tp3659
a(S'p1_vo'
I8
tp3660
a(S'w'
I1
tp3661
a(S'p1_tl'
I103
tp3662
a(S'p1_ll'
I0
tp3663
a(S'w'
I14
tp3664
a(S'p2_vo'
I8
tp3665
a(S'p2_tl'
I223
tp3666
a(S'p2_ll'
I0
tp3667
a(S'p2_th'
I1
tp3668
a(S'w'
I14
tp3669
a(S'tr_lr'
I123
tp3670
a(S'tr_tl'
I103
tp3671
a(S'w'
I1
tp3672
a(S'tr_ll'
I0
tp3673
a(S'w'
I9
tp3674
a(S'w'
I691
tp3675
a(S'p1_vo'
I7
tp3676
a(S'w'
I10
tp3677
a(S'w'
I10
tp3678
a(S'tr_lr'
I117
tp3679
a(S'w'
I11
tp3680
a(S'w'
I705
tp3681
a(S'p1_vo'
I6
tp3682
a(S'w'
I1
tp3683
a(S'w'
I9
tp3684
a(S'w'
I10
tp3685
a(S'tr_lr'
I116
tp3686
a(S'w'
I11
tp3687
a(S'w'
I701
tp3688
a(S'p1_vo'
I5
tp3689
a(S'w'
I10
tp3690
a(S'w'
I20
tp3691
a(S'w'
I704
tp3692
a(S'w'
I9
tp3693
a(S'p2_vo'
I6
tp3694
a(S'w'
I21
tp3695
a(S'w'
I703
tp3696
a(S'p1_vo'
I4
tp3697
a(S'w'
I10
tp3698
a(S'p2_vo'
I5
tp3699
a(S'w'
I10
tp3700
a(S'tr_lr'
I115
tp3701
a(S'w'
I11
tp3702
a(S'w'
I703
tp3703
a(S'w'
I10
tp3704
a(S'p2_vo'
I4
tp3705
a(S'w'
I21
tp3706
a(S'w'
I703
tp3707
a(S'p1_vo'
I3
tp3708
a(S'w'
I10
tp3709
a(S'w'
I21
tp3710
a(S'w'
I703
tp3711
a(S'w'
I10
tp3712
a(S'w'
I20
tp3713
a(S'w'
I704
tp3714
a(S'w'
I9
tp3715
a(S'p2_vo'
I3
tp3716
a(S'w'
I10
tp3717
a(S'tr_lr'
I114
tp3718
a(S'w'
I11
tp3719
a(S'w'
I709
tp3720
a(S'p1_vo'
I2
tp3721
a(S'w'
I10
tp3722
a(S'w'
I20
tp3723
a(S'w'
I699
tp3724
a(S'w'
I10
tp3725
a(S'w'
I10
tp3726
a(S'tr_lr'
I0
tp3727
a(S'w'
I11
tp3728
a(S'w'
I703
tp3729
a(S'w'
I10
tp3730
a(S'w'
I23
tp3731
a(S'no_vo'
I11
tp3732
a(S'no_np'
I9
tp3733
a(S'no_ll'
I0
tp3734
a(S'w'
I701
tp3735
a(S'w'
I9
tp3736
a(S'p2_vo'
I4
tp3737
a(S'w'
I21
tp3738
a(S'no_vo'
I5
tp3739
a(S'w'
I704
tp3740
a(S'w'
I10
tp3741
a(S'p2_vo'
I2
tp3742
a(S'w'
I21
tp3743
a(S'no_vo'
I4
tp3744
a(S'w'
I703
tp3745
a(S'w'
I10
tp3746
a(S'w'
I21
tp3747
a(S'w'
I702
tp3748
a(S'w'
I11
tp3749
a(S'w'
I21
tp3750
a(S'w'
I702
tp3751
a(S'w'
I11
tp3752
a(S'w'
I20
tp3753
a(S'no_vo'
I3
tp3754
a(S'w'
I706
tp3755
a(S'w'
I10
tp3756
a(S'w'
I21
tp3757
a(S'w'
I700
tp3758
a(S'w'
I10
tp3759
a(S'w'
I21
tp3760
a(S'w'
I703
tp3761
a(S'w'
I10
tp3762
a(S'w'
I21
tp3763
a(S'no_vo'
I0
tp3764
a(S'w'
I702
tp3765
a(S'w'
I11
tp3766
a(S'w'
I20
tp3767
a(S'w'
I703
tp3768
a(S'w'
I11
tp3769
a(S'w'
I20
tp3770
a(S'w'
I703
tp3771
a(S'w'
I10
tp3772
a(S'w'
I21
tp3773
a(S'w'
I705
tp3774
a(S'p1_vo'
I8
tp3775
a(S'w'
I1
tp3776
a(S'p1_tl'
I63
tp3777
a(S'p1_ll'
I0
tp3778
a(S'w'
I13
tp3779
a(S'p2_vo'
I8
tp3780
a(S'p2_tl'
I171
tp3781
a(S'w'
I1
tp3782
a(S'p2_ll'
I0
tp3783
a(S'w'
I13
tp3784
a(S'tr_lr'
I123
tp3785
a(S'tr_tl'
I63
tp3786
a(S'w'
I1
tp3787
a(S'tr_ll'
I0
tp3788
a(S'w'
I9
tp3789
a(S'w'
I692
tp3790
a(S'p1_vo'
I7
tp3791
a(S'w'
I10
tp3792
a(S'w'
I10
tp3793
a(S'tr_lr'
I117
tp3794
a(S'w'
I11
tp3795
a(S'w'
I708
tp3796
a(S'p1_vo'
I6
tp3797
a(S'w'
I10
tp3798
a(S'w'
I10
tp3799
a(S'tr_lr'
I116
tp3800
a(S'w'
I11
tp3801
a(S'w'
I698
tp3802
a(S'p1_vo'
I5
tp3803
a(S'w'
I10
tp3804
a(S'w'
I21
tp3805
a(S'w'
I703
tp3806
a(S'w'
I9
tp3807
a(S'p2_vo'
I6
tp3808
a(S'w'
I1
tp3809
a(S'w'
I20
tp3810
a(S'w'
I703
tp3811
a(S'p1_vo'
I4
tp3812
a(S'w'
I1
tp3813
a(S'w'
I9
tp3814
a(S'p2_vo'
I5
tp3815
a(S'w'
I1
tp3816
a(S'w'
I10
tp3817
a(S'tr_lr'
I115
tp3818
a(S'w'
I10
tp3819
a(S'w'
I703
tp3820
a(S'w'
I10
tp3821
a(S'p2_vo'
I4
tp3822
a(S'w'
I21
tp3823
a(S'w'
I703
tp3824
a(S'p1_vo'
I3
tp3825
a(S'w'
I10
tp3826
a(S'w'
I21
tp3827
a(S'w'
I703
tp3828
a(S'w'
I10
tp3829
a(S'w'
I21
tp3830
a(S'w'
I703
tp3831
a(S'w'
I9
tp3832
a(S'p2_vo'
I3
tp3833
a(S'w'
I1
tp3834
a(S'w'
I10
tp3835
a(S'tr_lr'
I114
tp3836
a(S'w'
I10
tp3837
a(S'w'
I706
tp3838
a(S'p1_vo'
I2
tp3839
a(S'w'
I10
tp3840
a(S'w'
I21
tp3841
a(S'w'
I701
tp3842
a(S'w'
I10
tp3843
a(S'w'
I10
tp3844
a(S'tr_lr'
I0
tp3845
a(S'w'
I11
tp3846
a(S'w'
I704
tp3847
a(S'w'
I10
tp3848
a(S'p2_vo'
I2
tp3849
a(S'w'
I27
tp3850
a(S'no_vo'
I11
tp3851
a(S'no_np'
I14
tp3852
a(S'w'
I1
tp3853
a(S'no_ll'
I0
tp3854
a(S'w'
I695
tp3855
a(S'w'
I11
tp3856
a(S'w'
I20
tp3857
a(S'no_vo'
I5
tp3858
a(S'w'
I703
tp3859
a(S'w'
I10
tp3860
a(S'w'
I21
tp3861
a(S'no_vo'
I4
tp3862
a(S'w'
I703
tp3863
a(S'w'
I10
tp3864
a(S'w'
I21
tp3865
a(S'w'
I703
tp3866
a(S'w'
I11
tp3867
a(S'w'
I20
tp3868
a(S'w'
I702
tp3869
a(S'w'
I11
tp3870
a(S'w'
I20
tp3871
a(S'no_vo'
I3
tp3872
a(S'w'
I1
tp3873
a(S'w'
I708
tp3874
a(S'w'
I10
tp3875
a(S'w'
I21
tp3876
a(S'w'
I697
tp3877
a(S'w'
I10
tp3878
a(S'w'
I21
tp3879
a(S'w'
I703
tp3880
a(S'w'
I10
tp3881
a(S'w'
I21
tp3882
a(S'no_vo'
I0
tp3883
a(S'w'
I703
tp3884
a(S'w'
I10
tp3885
a(S'w'
I21
tp3886
a(S'w'
I702
tp3887
a(S'w'
I11
tp3888
a(S'w'
I21
tp3889
a(S'w'
I702
tp3890
a(S'w'
I11
tp3891
a(S'w'
I20
tp3892
a(S'w'
I706
tp3893
a(S'p1_vo'
I8
tp3894
a(S'p1_tl'
I45
tp3895
a(S'p1_ll'
I0
tp3896
a(S'w'
I14
tp3897
a(S'p2_vo'
I8
tp3898
a(S'p2_tl'
I147
tp3899
a(S'p2_ll'
I0
tp3900
a(S'w'
I13
tp3901
a(S'tr_lr'
I123
tp3902
a(S'tr_tl'
I45
tp3903
a(S'w'
I1
tp3904
a(S'tr_ll'
I0
tp3905
a(S'w'
I9
tp3906
a(S'w'
I692
tp3907
a(S'p1_vo'
I7
tp3908
a(S'w'
I1
tp3909
a(S'w'
I9
tp3910
a(S'w'
I10
tp3911
a(S'tr_lr'
I117
tp3912
a(S'w'
I11
tp3913
a(S'w'
I706
tp3914
a(S'p1_vo'
I6
tp3915
a(S'w'
I10
tp3916
a(S'w'
I10
tp3917
a(S'tr_lr'
I116
tp3918
a(S'w'
I11
tp3919
a(S'w'
I700
tp3920
a(S'p1_vo'
I5
tp3921
a(S'w'
I10
tp3922
a(S'w'
I21
tp3923
a(S'w'
I703
tp3924
a(S'w'
I10
tp3925
a(S'p2_vo'
I6
tp3926
a(S'w'
I21
tp3927
a(S'w'
I703
tp3928
a(S'p1_vo'
I4
tp3929
a(S'w'
I10
tp3930
a(S'p2_vo'
I5
tp3931
a(S'w'
I10
tp3932
a(S'tr_lr'
I115
tp3933
a(S'w'
I11
tp3934
a(S'w'
I703
tp3935
a(S'w'
I9
tp3936
a(S'p2_vo'
I4
tp3937
a(S'w'
I21
tp3938
a(S'w'
I703
tp3939
a(S'p1_vo'
I3
tp3940
a(S'w'
I10
tp3941
a(S'w'
I21
tp3942
a(S'w'
I703
tp3943
a(S'w'
I10
tp3944
a(S'w'
I21
tp3945
a(S'w'
I703
tp3946
a(S'w'
I10
tp3947
a(S'p2_vo'
I3
tp3948
a(S'w'
I10
tp3949
a(S'tr_lr'
I114
tp3950
a(S'w'
I11
tp3951
a(S'w'
I708
tp3952
a(S'p1_vo'
I2
tp3953
a(S'w'
I10
tp3954
a(S'w'
I21
tp3955
a(S'w'
I698
tp3956
a(S'w'
I10
tp3957
a(S'w'
I10
tp3958
a(S'tr_lr'
I0
tp3959
a(S'w'
I11
tp3960
a(S'w'
I703
tp3961
a(S'w'
I10
tp3962
a(S'w'
I23
tp3963
a(S'no_vo'
I11
tp3964
a(S'no_np'
I9
tp3965
a(S'w'
I1
tp3966
a(S'no_ll'
I0
tp3967
a(S'w'
I701
tp3968
a(S'w'
I10
tp3969
a(S'p2_vo'
I2
tp3970
a(S'w'
I21
tp3971
a(S'no_vo'
I5
tp3972
a(S'w'
I702
tp3973
a(S'w'
I11
tp3974
a(S'w'
I20
tp3975
a(S'no_vo'
I4
tp3976
a(S'w'
I703
tp3977
a(S'w'
I10
tp3978
a(S'w'
I21
tp3979
a(S'w'
I703
tp3980
a(S'w'
I11
tp3981
a(S'w'
I21
tp3982
a(S'w'
I702
tp3983
a(S'w'
I10
tp3984
a(S'w'
I21
tp3985
a(S'no_vo'
I3
tp3986
a(S'w'
I705
tp3987
a(S'w'
I10
tp3988
a(S'w'
I21
tp3989
a(S'w'
I700
tp3990
a(S'w'
I11
tp3991
a(S'w'
I20
tp3992
a(S'w'
I703
tp3993
a(S'w'
I10
tp3994
a(S'w'
I21
tp3995
a(S'no_vo'
I0
tp3996
a(S'w'
I703
tp3997
a(S'w'
I10
tp3998
a(S'w'
I21
tp3999
a(S'w'
I703
tp4000
a(S'w'
I10
tp4001
a(S'w'
I21
tp4002
a(S'w'
I703
tp4003
a(S'w'
I10
tp4004
a(S'w'
I21
tp4005
a(S'w'
I705
tp4006
a(S'p1_vo'
I8
tp4007
a(S'p1_tl'
I28
tp4008
a(S'w'
I1
tp4009
a(S'p1_ll'
I0
tp4010
a(S'w'
I13
tp4011
a(S'p2_vo'
I8
tp4012
a(S'p2_tl'
I124
tp4013
a(S'w'
I1
tp4014
a(S'p2_ll'
I0
tp4015
a(S'w'
I14
tp4016
a(S'tr_lr'
I123
tp4017
a(S'tr_tl'
I28
tp4018
a(S'tr_ll'
I0
tp4019
a(S'w'
I10
tp4020
a(S'w'
I691
tp4021
a(S'p1_vo'
I7
tp4022
a(S'w'
I10
tp4023
a(S'w'
I10
tp4024
a(S'tr_lr'
I117
tp4025
a(S'w'
I11
tp4026
a(S'w'
I708
tp4027
a(S'p1_vo'
I6
tp4028
a(S'w'
I10
tp4029
a(S'w'
I10
tp4030
a(S'tr_lr'
I116
tp4031
a(S'w'
I11
tp4032
a(S'w'
I697
tp4033
a(S'p1_vo'
I5
tp4034
a(S'w'
I10
tp4035
a(S'w'
I21
tp4036
a(S'w'
I703
tp4037
a(S'w'
I10
tp4038
a(S'p2_vo'
I6
tp4039
a(S'w'
I21
tp4040
a(S'w'
I703
tp4041
a(S'p1_vo'
I4
tp4042
a(S'w'
I10
tp4043
a(S'p2_vo'
I5
tp4044
a(S'w'
I10
tp4045
a(S'tr_lr'
I115
tp4046
a(S'w'
I11
tp4047
a(S'w'
I703
tp4048
a(S'w'
I10
tp4049
a(S'p2_vo'
I4
tp4050
a(S'w'
I10
tp4051
a(S'tr_lr'
I0
tp4052
a(S'w'
I11
tp4053
a(S'w'
I703
tp4054
a(S'p1_vo'
I2
tp4055
a(S'w'
I11
tp4056
a(S'p2_vo'
I2
tp4057
a(S'w'
I21
tp4058
a(S'w'
I702
tp4059
a(S'w'
I10
tp4060
a(S'w'
I21
tp4061
a(S'w'
I703
tp4062
a(S'w'
I10
tp4063
a(S'w'
I21
tp4064
a(S'w'
I705
tp4065
a(S'w'
I10
tp4066
a(S'w'
I20
tp4067
a(S'w'
I702
tp4068
a(S'w'
I10
tp4069
a(S'w'
I21
tp4070
a(S'w'
I703
tp4071
a(S'w'
I10
tp4072
a(S'w'
I21
tp4073
a(S'w'
I711
tp4074
a.