(lp1
(S'clock'
p2
I1789772
tp3
a(S'p1_du'
I2
tp4
a(S'p1_cv'
I1
tp5
a(S'p2_du'
I2
tp6
a(S'p2_cv'
I1
tp7
a(S'no_cv'
I1
tp8
a(S'ch_no'
I1
tp9
a(S'ch_tr'
I1
tp10
a(S'ch_p2'
I1
tp11
a(S'ch_p1'
I1
tp12
a(S'p1_du'
I1
tp13
a(S'p1_lh'
I1
tp14
a(S'p1_vo'
I10
tp15
a(S'p1_tl'
I45
tp16
a(S'p1_sp'
I7
tp17
a(S'p1_sn'
I1
tp18
a(S'p1_ss'
I7
tp19
a(S'w'
I1
tp20
a(S'p1_ll'
I0
tp21
a(S'p1_th'
I1
tp22
a(S'w'
I15
tp23
a(S'p2_du'
I1
tp24
a(S'p2_lh'
I1
tp25
a(S'p2_vo'
I10
tp26
a(S'p2_tl'
I103
tp27
a(S'p2_sp'
I7
tp28
a(S'p2_sn'
I1
tp29
a(S'p2_ss'
I7
tp30
a(S'w'
I1
tp31
a(S'p2_ll'
I0
tp32
a(S'p2_th'
I1
tp33
a(S'w'
I15
tp34
a(S'tr_lh'
I1
tp35
a(S'tr_lr'
I123
tp36
a(S'w'
I1
tp37
a(S'tr_tl'
I225
tp38
a(S'tr_ll'
I0
tp39
a(S'w'
I5
tp40
a(S'no_lh'
I1
tp41
a(S'w'
I687
tp42
a(S'p1_vo'
I9
tp43
a(S'w'
I1
tp44
a(S'w'
I9
tp45
a(S'p2_vo'
I9
tp46
a(S'w'
I10
tp47
a(S'tr_lr'
I117
tp48
a(S'w'
I715
tp49
a(S'w'
I10
tp50
a(S'w'
I10
tp51
a(S'tr_lr'
I116
tp52
a(S'w'
I719
tp53
a(S'w'
I10
tp54
a(S'w'
I718
tp55
a(S'p1_vo'
I5
tp56
a(S'w'
I10
tp57
a(S'p2_vo'
I5
tp58
a(S'w'
I724
tp59
a(S'p1_vo'
I6
tp60
a(S'w'
I10
tp61
a(S'p2_vo'
I6
tp62
a(S'w'
I10
tp63
a(S'tr_lr'
I0
tp64
a(S'w'
I715
tp65
a(S'p1_vo'
I2
tp66
a(S'w'
I10
tp67
a(S'p2_vo'
I2
tp68
a(S'w'
I723
tp69
a(S'w'
I11
tp70
a(S'w'
I723
tp71
a(S'w'
I11
tp72
a(S'w'
I723
tp73
a(S'w'
I10
tp74
a(S'w'
I724
tp75
a(S'w'
I10
tp76
a(S'w'
I726
tp77
a(S'w'
I11
tp78
a(S'w'
I720
tp79
a(S'w'
I11
tp80
a(S'w'
I723
tp81
a(S'w'
I10
tp82
a(S'w'
I724
tp83
a(S'w'
I10
tp84
a(S'w'
I724
tp85
a(S'w'
I10
tp86
a(S'w'
I724
tp87
a(S'w'
I11
tp88
a(S'w'
I722
tp89
a(S'w'
I11
tp90
a(S'w'
I723
tp91
a(S'w'
I11
tp92
a(S'w'
I732
tp93
a(S'p1_vo'
I10
tp94
a(S'p1_ll'
I0
tp95
a(S'w'
I14
tp96
a(S'p2_vo'
I10
tp97
a(S'w'
I1
tp98
a(S'p2_ll'
I0
tp99
a(S'w'
I13
tp100
a(S'tr_lr'
I123
tp101
a(S'w'
I1
tp102
a(S'tr_ll'
I0
tp103
a(S'w'
I695
tp104
a(S'p1_vo'
I9
tp105
a(S'w'
I10
tp106
a(S'p2_vo'
I9
tp107
a(S'w'
I10
tp108
a(S'tr_lr'
I117
tp109
a(S'w'
I714
tp110
a(S'w'
I10
tp111
a(S'w'
I10
tp112
a(S'tr_lr'
I116
tp113
a(S'w'
I714
tp114
a(S'p1_vo'
I2
tp115
a(S'w'
I1
tp116
a(S'w'
I10
tp117
a(S'p2_vo'
I2
tp118
a(S'w'
I10
tp119
a(S'tr_lr'
I0
tp120
a(S'w'
I713
tp121
a(S'w'
I11
tp122
a(S'w'
I723
tp123
a(S'w'
I10
tp124
a(S'w'
I727
tp125
a(S'p1_vo'
I10
tp126
a(S'w'
I1
tp127
a(S'p1_ll'
I0
tp128
a(S'w'
I13
tp129
a(S'p2_vo'
I10
tp130
a(S'w'
I1
tp131
a(S'p2_ll'
I0
tp132
a(S'w'
I14
tp133
a(S'tr_lr'
I123
tp134
a(S'w'
I1
tp135
a(S'tr_ll'
I0
tp136
a(S'w'
I700
tp137
a(S'p1_vo'
I9
tp138
a(S'w'
I10
tp139
a(S'p2_vo'
I9
tp140
a(S'w'
I10
tp141
a(S'tr_lr'
I117
tp142
a(S'w'
I717
tp143
a(S'w'
I9
tp144
a(S'w'
I10
tp145
a(S'tr_lr'
I116
tp146
a(S'w'
I712
tp147
a(S'w'
I10
tp148
a(S'w'
I723
tp149
a(S'p1_vo'
I5
tp150
a(S'w'
I10
tp151
a(S'p2_vo'
I5
tp152
a(S'w'
I724
tp153
a(S'p1_vo'
I6
tp154
a(S'w'
I10
tp155
a(S'p2_vo'
I6
tp156
a(S'w'
I10
tp157
a(S'tr_lr'
I115
tp158
a(S'w'
I714
tp159
a(S'p1_vo'
I7
tp160
a(S'w'
I10
tp161
a(S'p2_vo'
I7
tp162
a(S'w'
I724
tp163
a(S'p1_vo'
I8
tp164
a(S'w'
I10
tp165
a(S'p2_vo'
I8
tp166
a(S'w'
I723
tp167
a(S'p1_vo'
I9
tp168
a(S'w'
I1
tp169
a(S'w'
I9
tp170
a(S'p2_vo'
I9
tp171
a(S'w'
I1
tp172
a(S'w'
I723
tp173
a(S'w'
I10
tp174
a(S'w'
I10
tp175
a(S'tr_lr'
I114
tp176
a(S'w'
I720
tp177
a(S'w'
I9
tp178
a(S'w'
I720
tp179
a(S'p1_vo'
I2
tp180
a(S'w'
I10
tp181
a(S'p2_vo'
I2
tp182
a(S'w'
I10
tp183
a(S'tr_lr'
I0
tp184
a(S'w'
I717
tp185
a(S'p1_vo'
I10
tp186
a(S'p1_ll'
I0
tp187
a(S'w'
I14
tp188
a(S'p2_vo'
I10
tp189
a(S'p2_ll'
I0
tp190
a(S'w'
I14
tp191
a(S'tr_lr'
I123
tp192
a(S'tr_tl'
I238
tp193
a(S'w'
I1
tp194
a(S'tr_ll'
I0
tp195
a(S'w'
I701
tp196
a(S'p1_vo'
I9
tp197
a(S'w'
I9
tp198
a(S'p2_vo'
I9
tp199
a(S'w'
I1
tp200
a(S'w'
I10
tp201
a(S'tr_lr'
I117
tp202
a(S'w'
I713
tp203
a(S'w'
I10
tp204
a(S'w'
I10
tp205
a(S'tr_lr'
I116
tp206
a(S'w'
I714
tp207
a(S'w'
I10
tp208
a(S'w'
I724
tp209
a(S'p1_vo'
I5
tp210
a(S'w'
I10
tp211
a(S'p2_vo'
I5
tp212
a(S'w'
I724
tp213
a(S'p1_vo'
I2
tp214
a(S'w'
I1
tp215
a(S'w'
I10
tp216
a(S'p2_vo'
I2
tp217
a(S'w'
I10
tp218
a(S'tr_lr'
I0
tp219
a(S'w'
I716
tp220
a(S'w'
I10
tp221
a(S'w'
I721
tp222
a(S'w'
I10
tp223
a(S'w'
I724
tp224
a(S'w'
I10
tp225
a(S'w'
I724
tp226
a(S'w'
I10
tp227
a(S'w'
I723
tp228
a(S'w'
I11
tp229
a(S'w'
I723
tp230
a(S'w'
I11
tp231
a(S'w'
I726
tp232
a(S'p1_vo'
I10
tp233
a(S'p1_tl'
I12
tp234
a(S'p1_ll'
I0
tp235
a(S'w'
I13
tp236
a(S'p2_vo'
I10
tp237
a(S'w'
I1
tp238
a(S'p2_ll'
I0
tp239
a(S'w'
I13
tp240
a(S'tr_lr'
I123
tp241
a(S'tr_ll'
I0
tp242
a(S'w'
I703
tp243
a(S'p1_vo'
I9
tp244
a(S'w'
I10
tp245
a(S'p2_vo'
I9
tp246
a(S'w'
I10
tp247
a(S'tr_lr'
I117
tp248
a(S'w'
I719
tp249
a(S'w'
I10
tp250
a(S'w'
I10
tp251
a(S'tr_lr'
I116
tp252
a(S'w'
I709
tp253
a(S'w'
I10
tp254
a(S'w'
I724
tp255
a(S'p1_vo'
I5
tp256
a(S'w'
I9
tp257
a(S'p2_vo'
I5
tp258
a(S'w'
I1
tp259
a(S'w'
I724
tp260
a(S'p1_vo'
I2
tp261
a(S'w'
I10
tp262
a(S'p2_vo'
I2
tp263
a(S'w'
I1
tp264
a(S'w'
I10
tp265
a(S'tr_lr'
I0
tp266
a(S'w'
I713
tp267
a(S'w'
I10
tp268
a(S'w'
I724
tp269
a(S'w'
I10
tp270
a(S'w'
I723
tp271
a(S'w'
I11
tp272
a(S'w'
I723
tp273
a(S'w'
I11
tp274
a(S'w'
I726
tp275
a(S'w'
I10
tp276
a(S'w'
I721
tp277
a(S'w'
I10
tp278
a(S'w'
I726
tp279
a(S'p1_vo'
I10
tp280
a(S'p1_tl'
I225
tp281
a(S'w'
I1
tp282
a(S'p1_ll'
I0
tp283
a(S'p1_th'
I0
tp284
a(S'w'
I13
tp285
a(S'p2_vo'
I10
tp286
a(S'p2_ll'
I0
tp287
a(S'w'
I13
tp288
a(S'tr_lr'
I123
tp289
a(S'w'
I1
tp290
a(S'tr_ll'
I0
tp291
a(S'w'
I703
tp292
a(S'p1_vo'
I9
tp293
a(S'w'
I10
tp294
a(S'p2_vo'
I9
tp295
a(S'w'
I10
tp296
a(S'tr_lr'
I117
tp297
a(S'w'
I714
tp298
a(S'w'
I10
tp299
a(S'w'
I10
tp300
a(S'tr_lr'
I116
tp301
a(S'w'
I714
tp302
a(S'w'
I9
tp303
a(S'w'
I724
tp304
a(S'p1_vo'
I5
tp305
a(S'w'
I10
tp306
a(S'p2_vo'
I5
tp307
a(S'w'
I725
tp308
a(S'p1_vo'
I2
tp309
a(S'w'
I10
tp310
a(S'p2_vo'
I2
tp311
a(S'w'
I10
tp312
a(S'tr_lr'
I0
tp313
a(S'w'
I719
tp314
a(S'w'
I10
tp315
a(S'w'
I718
tp316
a(S'w'
I11
tp317
a(S'w'
I723
tp318
a(S'w'
I10
tp319
a(S'w'
I724
tp320
a(S'w'
I10
tp321
a(S'w'
I724
tp322
a(S'w'
I10
tp323
a(S'w'
I723
tp324
a(S'w'
I11
tp325
a(S'w'
I726
tp326
a(S'p1_vo'
I10
tp327
a(S'p1_tl'
I200
tp328
a(S'w'
I1
tp329
a(S'p1_ll'
I0
tp330
a(S'w'
I13
tp331
a(S'p2_vo'
I10
tp332
a(S'p2_ll'
I0
tp333
a(S'w'
I13
tp334
a(S'tr_lr'
I123
tp335
a(S'w'
I1
tp336
a(S'tr_tl'
I12
tp337
a(S'tr_ll'
I0
tp338
a(S'tr_th'
I1
tp339
a(S'w'
I702
tp340
a(S'p1_vo'
I9
tp341
a(S'w'
I1
tp342
a(S'w'
I9
tp343
a(S'p2_vo'
I9
tp344
a(S'w'
I10
tp345
a(S'tr_lr'
I117
tp346
a(S'w'
I717
tp347
a(S'w'
I10
tp348
a(S'w'
I10
tp349
a(S'tr_lr'
I116
tp350
a(S'w'
I711
tp351
a(S'w'
I10
tp352
a(S'w'
I724
tp353
a(S'p1_vo'
I5
tp354
a(S'w'
I10
tp355
a(S'p2_vo'
I2
tp356
a(S'w'
I724
tp357
a(S'p1_vo'
I2
tp358
a(S'w'
I11
tp359
a(S'w'
I10
tp360
a(S'tr_lr'
I0
tp361
a(S'w'
I713
tp362
a(S'w'
I10
tp363
a(S'w'
I724
tp364
a(S'w'
I10
tp365
a(S'w'
I724
tp366
a(S'w'
I10
tp367
a(S'w'
I723
tp368
a(S'w'
I11
tp369
a(S'w'
I729
tp370
a(S'w'
I10
tp371
a(S'w'
I718
tp372
a(S'w'
I10
tp373
a(S'w'
I726
tp374
a(S'p1_vo'
I10
tp375
a(S'w'
I1
tp376
a(S'p1_tl'
I225
tp377
a(S'p1_ll'
I0
tp378
a(S'w'
I13
tp379
a(S'p2_vo'
I10
tp380
a(S'w'
I1
tp381
a(S'p2_ll'
I0
tp382
a(S'w'
I12
tp383
a(S'tr_lr'
I123
tp384
a(S'w'
I1
tp385
a(S'tr_ll'
I0
tp386
a(S'w'
I703
tp387
a(S'p1_vo'
I9
tp388
a(S'w'
I10
tp389
a(S'p2_vo'
I9
tp390
a(S'w'
I10
tp391
a(S'tr_lr'
I117
tp392
a(S'w'
I714
tp393
a(S'w'
I10
tp394
a(S'w'
I10
tp395
a(S'tr_lr'
I116
tp396
a(S'w'
I714
tp397
a(S'w'
I10
tp398
a(S'w'
I723
tp399
a(S'p1_vo'
I5
tp400
a(S'w'
I1
tp401
a(S'w'
I10
tp402
a(S'p2_vo'
I2
tp403
a(S'w'
I724
tp404
a(S'p1_vo'
I2
tp405
a(S'w'
I10
tp406
a(S'w'
I10
tp407
a(S'tr_lr'
I0
tp408
a(S'w'
I716
tp409
a(S'w'
I11
tp410
a(S'w'
I720
tp411
a(S'w'
I11
tp412
a(S'w'
I723
tp413
a(S'w'
I11
tp414
a(S'w'
I723
tp415
a(S'w'
I10
tp416
a(S'w'
I724
tp417
a(S'w'
I10
tp418
a(S'w'
I724
tp419
a(S'w'
I10
tp420
a(S'w'
I726
tp421
a(S'p1_vo'
I10
tp422
a(S'p1_tl'
I12
tp423
a(S'w'
I1
tp424
a(S'p1_ll'
I0
tp425
a(S'p1_th'
I1
tp426
a(S'w'
I12
tp427
a(S'p2_vo'
I10
tp428
a(S'w'
I1
tp429
a(S'p2_ll'
I0
tp430
a(S'w'
I13
tp431
a(S'tr_lr'
I123
tp432
a(S'w'
I1
tp433
a(S'tr_ll'
I0
tp434
a(S'w'
I703
tp435
a(S'p1_vo'
I9
tp436
a(S'w'
I9
tp437
a(S'p2_vo'
I9
tp438
a(S'w'
I1
tp439
a(S'w'
I10
tp440
a(S'tr_lr'
I117
tp441
a(S'w'
I719
tp442
a(S'w'
I10
tp443
a(S'w'
I10
tp444
a(S'tr_lr'
I116
tp445
a(S'w'
I708
tp446
a(S'w'
I10
tp447
a(S'w'
I724
tp448
a(S'p1_vo'
I5
tp449
a(S'w'
I10
tp450
a(S'p2_vo'
I2
tp451
a(S'w'
I1
tp452
a(S'w'
I723
tp453
a(S'p1_vo'
I2
tp454
a(S'w'
I1
tp455
a(S'w'
I10
tp456
a(S'w'
I10
tp457
a(S'tr_lr'
I0
tp458
a(S'w'
I713
tp459
a(S'w'
I11
tp460
a(S'w'
I723
tp461
a(S'w'
I10
tp462
a(S'w'
I724
tp463
a(S'w'
I10
tp464
a(S'w'
I724
tp465
a(S'w'
I10
tp466
a(S'w'
I726
tp467
a(S'w'
I10
tp468
a(S'w'
I721
tp469
a(S'w'
I11
tp470
a(S'w'
I726
tp471
a(S'p1_vo'
I10
tp472
a(S'p1_tl'
I45
tp473
a(S'p1_ll'
I0
tp474
a(S'w'
I13
tp475
a(S'p2_vo'
I10
tp476
a(S'w'
I1
tp477
a(S'p2_ll'
I0
tp478
a(S'w'
I13
tp479
a(S'tr_lr'
I123
tp480
a(S'tr_tl'
I45
tp481
a(S'tr_ll'
I0
tp482
a(S'w'
I703
tp483
a(S'p1_vo'
I9
tp484
a(S'w'
I10
tp485
a(S'p2_vo'
I9
tp486
a(S'w'
I10
tp487
a(S'tr_lr'
I117
tp488
a(S'w'
I714
tp489
a(S'w'
I10
tp490
a(S'w'
I10
tp491
a(S'tr_lr'
I116
tp492
a(S'w'
I714
tp493
a(S'w'
I10
tp494
a(S'w'
I724
tp495
a(S'p1_vo'
I5
tp496
a(S'w'
I10
tp497
a(S'p2_vo'
I2
tp498
a(S'w'
I724
tp499
a(S'p1_vo'
I2
tp500
a(S'w'
I11
tp501
a(S'w'
I10
tp502
a(S'tr_lr'
I0
tp503
a(S'w'
I718
tp504
a(S'w'
I11
tp505
a(S'w'
I718
tp506
a(S'w'
I10
tp507
a(S'w'
I724
tp508
a(S'w'
I10
tp509
a(S'w'
I723
tp510
a(S'w'
I11
tp511
a(S'w'
I723
tp512
a(S'w'
I10
tp513
a(S'w'
I724
tp514
a(S'w'
I10
tp515
a(S'w'
I726
tp516
a(S'p1_vo'
I10
tp517
a(S'w'
I1
tp518
a(S'p1_tl'
I12
tp519
a(S'p1_ll'
I0
tp520
a(S'w'
I13
tp521
a(S'p2_vo'
I10
tp522
a(S'p2_ll'
I0
tp523
a(S'w'
I13
tp524
a(S'tr_lr'
I123
tp525
a(S'w'
I1
tp526
a(S'tr_ll'
I0
tp527
a(S'w'
I703
tp528
a(S'p1_vo'
I9
tp529
a(S'w'
I10
tp530
a(S'p2_vo'
I9
tp531
a(S'w'
I10
tp532
a(S'tr_lr'
I117
tp533
a(S'w'
I716
tp534
a(S'w'
I10
tp535
a(S'w'
I10
tp536
a(S'tr_lr'
I116
tp537
a(S'w'
I712
tp538
a(S'w'
I9
tp539
a(S'w'
I724
tp540
a(S'p1_vo'
I5
tp541
a(S'w'
I11
tp542
a(S'p2_vo'
I2
tp543
a(S'w'
I724
tp544
a(S'p1_vo'
I2
tp545
a(S'w'
I10
tp546
a(S'w'
I10
tp547
a(S'tr_lr'
I0
tp548
a(S'w'
I714
tp549
a(S'w'
I10
tp550
a(S'w'
I723
tp551
a(S'w'
I11
tp552
a(S'w'
I723
tp553
a(S'w'
I10
tp554
a(S'w'
I724
tp555
a(S'w'
I10
tp556
a(S'w'
I729
tp557
a(S'w'
I10
tp558
a(S'w'
I718
tp559
a(S'w'
I11
tp560
a(S'w'
I726
tp561
a(S'p1_vo'
I10
tp562
a(S'p1_tl'
I225
tp563
a(S'w'
I1
tp564
a(S'p1_ll'
I0
tp565
a(S'p1_th'
I0
tp566
a(S'w'
I13
tp567
a(S'p2_vo'
I10
tp568
a(S'w'
I1
tp569
a(S'p2_ll'
I0
tp570
a(S'w'
I13
tp571
a(S'tr_lr'
I123
tp572
a(S'tr_ll'
I0
tp573
a(S'w'
I702
tp574
a(S'p1_vo'
I9
tp575
a(S'w'
I1
tp576
a(S'w'
I9
tp577
a(S'p2_vo'
I9
tp578
a(S'w'
I1
tp579
a(S'w'
I10
tp580
a(S'tr_lr'
I117
tp581
a(S'w'
I713
tp582
a(S'w'
I10
tp583
a(S'w'
I10
tp584
a(S'tr_lr'
I116
tp585
a(S'w'
I714
tp586
a(S'w'
I11
tp587
a(S'p2_vo'
I2
tp588
a(S'w'
I723
tp589
a(S'p1_vo'
I5
tp590
a(S'w'
I10
tp591
a(S'w'
I724
tp592
a(S'p1_vo'
I2
tp593
a(S'w'
I11
tp594
a(S'w'
I10
tp595
a(S'tr_lr'
I0
tp596
a(S'w'
I716
tp597
a(S'w'
I10
tp598
a(S'w'
I721
tp599
a(S'w'
I10
tp600
a(S'w'
I724
tp601
a(S'w'
I10
tp602
a(S'w'
I724
tp603
a(S'w'
I10
tp604
a(S'w'
I723
tp605
a(S'w'
I11
tp606
a(S'w'
I723
tp607
a(S'w'
I10
tp608
a(S'w'
I727
tp609
a(S'p1_vo'
I10
tp610
a(S'w'
I1
tp611
a(S'p1_tl'
I200
tp612
a(S'p1_ll'
I0
tp613
a(S'w'
I14
tp614
a(S'p2_vo'
I10
tp615
a(S'p2_tl'
I12
tp616
a(S'p2_ll'
I0
tp617
a(S'w'
I14
tp618
a(S'tr_lr'
I123
tp619
a(S'tr_tl'
I82
tp620
a(S'tr_ll'
I0
tp621
a(S'w'
I701
tp622
a(S'p1_vo'
I9
tp623
a(S'w'
I10
tp624
a(S'p2_vo'
I9
tp625
a(S'w'
I10
tp626
a(S'tr_lr'
I117
tp627
a(S'w'
I719
tp628
a(S'w'
I10
tp629
a(S'w'
I10
tp630
a(S'tr_lr'
I116
tp631
a(S'w'
I709
tp632
a(S'w'
I10
tp633
a(S'w'
I723
tp634
a(S'p1_vo'
I5
tp635
a(S'w'
I1
tp636
a(S'w'
I9
tp637
a(S'p2_vo'
I5
tp638
a(S'w'
I1
tp639
a(S'w'
I723
tp640
a(S'p1_vo'
I6
tp641
a(S'w'
I11
tp642
a(S'p2_vo'
I2
tp643
a(S'w'
I10
tp644
a(S'tr_lr'
I0
tp645
a(S'w'
I713
tp646
a(S'p1_vo'
I7
tp647
a(S'w'
I11
tp648
a(S'w'
I724
tp649
a(S'p1_vo'
I2
tp650
a(S'w'
I10
tp651
a(S'w'
I723
tp652
a(S'w'
I11
tp653
a(S'w'
I723
tp654
a(S'w'
I10
tp655
a(S'w'
I727
tp656
a(S'w'
I10
tp657
a(S'w'
I721
tp658
a(S'w'
I10
tp659
a(S'w'
I724
tp660
a(S'w'
I10
tp661
a(S'w'
I723
tp662
a(S'w'
I11
tp663
a(S'w'
I723
tp664
a(S'w'
I11
tp665
a(S'w'
I723
tp666
a(S'w'
I10
tp667
a(S'w'
I724
tp668
a(S'w'
I12
tp669
a(S'w'
I722
tp670
a(S'w'
I10
tp671
a(S'w'
I732
tp672
a(S'p1_vo'
I10
tp673
a(S'w'
I1
tp674
a(S'p1_ll'
I0
tp675
a(S'w'
I13
tp676
a(S'p2_vo'
I10
tp677
a(S'w'
I1
tp678
a(S'p2_ll'
I0
tp679
a(S'w'
I14
tp680
a(S'tr_lr'
I123
tp681
a(S'w'
I1
tp682
a(S'tr_ll'
I0
tp683
a(S'w'
I695
tp684
a(S'p1_vo'
I9
tp685
a(S'w'
I9
tp686
a(S'p2_vo'
I9
tp687
a(S'w'
I1
tp688
a(S'w'
I10
tp689
a(S'tr_lr'
I117
tp690
a(S'w'
I713
tp691
a(S'w'
I10
tp692
a(S'w'
I10
tp693
a(S'tr_lr'
I116
tp694
a(S'w'
I715
tp695
a(S'p1_vo'
I2
tp696
a(S'w'
I10
tp697
a(S'p2_vo'
I2
tp698
a(S'w'
I724
tp699
a(S'w'
I10
tp700
a(S'w'
I10
tp701
a(S'tr_lr'
I0
tp702
a(S'w'
I713
tp703
a(S'w'
I11
tp704
a(S'w'
I727
tp705
a(S'p1_vo'
I10
tp706
a(S'p1_ll'
I0
tp707
a(S'w'
I14
tp708
a(S'p2_vo'
I10
tp709
a(S'w'
I1
tp710
a(S'p2_ll'
I0
tp711
a(S'w'
I13
tp712
a(S'tr_lr'
I123
tp713
a(S'w'
I1
tp714
a(S'tr_ll'
I0
tp715
a(S'w'
I700
tp716
a(S'p1_vo'
I9
tp717
a(S'w'
I1
tp718
a(S'w'
I9
tp719
a(S'p2_vo'
I9
tp720
a(S'w'
I10
tp721
a(S'tr_lr'
I117
tp722
a(S'w'
I717
tp723
a(S'w'
I10
tp724
a(S'w'
I10
tp725
a(S'tr_lr'
I116
tp726
a(S'w'
I711
tp727
a(S'w'
I10
tp728
a(S'w'
I724
tp729
a(S'p1_vo'
I5
tp730
a(S'w'
I10
tp731
a(S'p2_vo'
I5
tp732
a(S'w'
I723
tp733
a(S'p1_vo'
I6
tp734
a(S'w'
I1
tp735
a(S'w'
I9
tp736
a(S'p2_vo'
I6
tp737
a(S'w'
I1
tp738
a(S'w'
I10
tp739
a(S'tr_lr'
I115
tp740
a(S'w'
I713
tp741
a(S'p1_vo'
I7
tp742
a(S'w'
I1
tp743
a(S'w'
I9
tp744
a(S'p2_vo'
I7
tp745
a(S'w'
I724
tp746
a(S'p1_vo'
I8
tp747
a(S'w'
I10
tp748
a(S'p2_vo'
I8
tp749
a(S'w'
I724
tp750
a(S'p1_vo'
I9
tp751
a(S'w'
I10
tp752
a(S'p2_vo'
I9
tp753
a(S'w'
I724
tp754
a(S'w'
I10
tp755
a(S'w'
I10
tp756
a(S'tr_lr'
I114
tp757
a(S'w'
I719
tp758
a(S'w'
I10
tp759
a(S'w'
I719
tp760
a(S'p1_vo'
I2
tp761
a(S'w'
I10
tp762
a(S'p2_vo'
I2
tp763
a(S'w'
I1
tp764
a(S'w'
I10
tp765
a(S'tr_lr'
I0
tp766
a(S'w'
I716
tp767
a(S'p1_vo'
I10
tp768
a(S'w'
I1
tp769
a(S'p1_ll'
I0
tp770
a(S'w'
I13
tp771
a(S'p2_vo'
I10
tp772
a(S'p2_tl'
I45
tp773
a(S'w'
I1
tp774
a(S'p2_ll'
I0
tp775
a(S'w'
I13
tp776
a(S'tr_lr'
I123
tp777
a(S'tr_tl'
I103
tp778
a(S'w'
I1
tp779
a(S'tr_ll'
I0
tp780
a(S'w'
I701
tp781
a(S'p1_vo'
I9
tp782
a(S'w'
I10
tp783
a(S'p2_vo'
I9
tp784
a(S'w'
I10
tp785
a(S'tr_lr'
I117
tp786
a(S'w'
I714
tp787
a(S'w'
I10
tp788
a(S'w'
I10
tp789
a(S'tr_lr'
I116
tp790
a(S'w'
I714
tp791
a(S'w'
I10
tp792
a(S'w'
I723
tp793
a(S'p1_vo'
I5
tp794
a(S'w'
I10
tp795
a(S'p2_vo'
I5
tp796
a(S'w'
I725
tp797
a(S'p1_vo'
I2
tp798
a(S'w'
I10
tp799
a(S'p2_vo'
I2
tp800
a(S'w'
I11
tp801
a(S'tr_lr'
I0
tp802
a(S'w'
I715
tp803
a(S'w'
I11
tp804
a(S'w'
I720
tp805
a(S'w'
I11
tp806
a(S'w'
I723
tp807
a(S'w'
I11
tp808
a(S'w'
I723
tp809
a(S'w'
I10
tp810
a(S'w'
I724
tp811
a(S'w'
I10
tp812
a(S'w'
I724
tp813
a(S'w'
I10
tp814
a(S'w'
I726
tp815
a(S'p1_vo'
I10
tp816
a(S'p1_tl'
I178
tp817
a(S'w'
I1
tp818
a(S'p1_ll'
I0
tp819
a(S'w'
I12
tp820
a(S'p2_vo'
I10
tp821
a(S'w'
I1
tp822
a(S'p2_ll'
I0
tp823
a(S'w'
I13
tp824
a(S'tr_lr'
I123
tp825
a(S'w'
I1
tp826
a(S'tr_ll'
I0
tp827
a(S'w'
I703
tp828
a(S'p1_vo'
I9
tp829
a(S'w'
I9
tp830
a(S'p2_vo'
I9
tp831
a(S'w'
I1
tp832
a(S'w'
I10
tp833
a(S'tr_lr'
I117
tp834
a(S'w'
I719
tp835
a(S'w'
I10
tp836
a(S'w'
I10
tp837
a(S'tr_lr'
I116
tp838
a(S'w'
I708
tp839
a(S'w'
I10
tp840
a(S'w'
I724
tp841
a(S'p1_vo'
I5
tp842
a(S'w'
I10
tp843
a(S'p2_vo'
I5
tp844
a(S'w'
I724
tp845
a(S'p1_vo'
I2
tp846
a(S'w'
I1
tp847
a(S'w'
I10
tp848
a(S'p2_vo'
I2
tp849
a(S'w'
I10
tp850
a(S'tr_lr'
I0
tp851
a(S'w'
I713
tp852
a(S'w'
I11
tp853
a(S'w'
I723
tp854
a(S'w'
I10
tp855
a(S'w'
I724
tp856
a(S'w'
I10
tp857
a(S'w'
I724
tp858
a(S'w'
I10
tp859
a(S'w'
I726
tp860
a(S'w'
I10
tp861
a(S'w'
I721
tp862
a(S'w'
I11
tp863
a(S'w'
I726
tp864
a(S'p1_vo'
I10
tp865
a(S'p1_tl'
I150
tp866
a(S'p1_ll'
I0
tp867
a(S'w'
I13
tp868
a(S'p2_vo'
I10
tp869
a(S'w'
I1
tp870
a(S'p2_ll'
I0
tp871
a(S'w'
I13
tp872
a(S'tr_lr'
I123
tp873
a(S'tr_ll'
I0
tp874
a(S'w'
I703
tp875
a(S'p1_vo'
I9
tp876
a(S'w'
I10
tp877
a(S'p2_vo'
I9
tp878
a(S'w'
I10
tp879
a(S'tr_lr'
I117
tp880
a(S'w'
I714
tp881
a(S'w'
I10
tp882
a(S'w'
I10
tp883
a(S'tr_lr'
I116
tp884
a(S'w'
I714
tp885
a(S'w'
I10
tp886
a(S'w'
I724
tp887
a(S'p1_vo'
I5
tp888
a(S'w'
I9
tp889
a(S'p2_vo'
I5
tp890
a(S'w'
I1
tp891
a(S'w'
I724
tp892
a(S'p1_vo'
I2
tp893
a(S'w'
I10
tp894
a(S'p2_vo'
I2
tp895
a(S'w'
I1
tp896
a(S'w'
I10
tp897
a(S'tr_lr'
I0
tp898
a(S'w'
I718
tp899
a(S'w'
I11
tp900
a(S'w'
I718
tp901
a(S'w'
I10
tp902
a(S'w'
I723
tp903
a(S'w'
I11
tp904
a(S'w'
I723
tp905
a(S'w'
I11
tp906
a(S'w'
I723
tp907
a(S'w'
I10
tp908
a(S'w'
I724
tp909
a(S'w'
I10
tp910
a(S'w'
I726
tp911
a(S'p1_vo'
I10
tp912
a(S'p1_tl'
I133
tp913
a(S'w'
I1
tp914
a(S'p1_ll'
I0
tp915
a(S'w'
I13
tp916
a(S'p2_vo'
I10
tp917
a(S'p2_tl'
I225
tp918
a(S'w'
I1
tp919
a(S'p2_ll'
I0
tp920
a(S'p2_th'
I0
tp921
a(S'w'
I13
tp922
a(S'tr_lr'
I123
tp923
a(S'w'
I1
tp924
a(S'tr_tl'
I147
tp925
a(S'tr_ll'
I0
tp926
a(S'w'
I702
tp927
a(S'p1_vo'
I9
tp928
a(S'w'
I10
tp929
a(S'p2_vo'
I9
tp930
a(S'w'
I10
tp931
a(S'tr_lr'
I117
tp932
a(S'w'
I716
tp933
a(S'w'
I10
tp934
a(S'w'
I10
tp935
a(S'tr_lr'
I116
tp936
a(S'w'
I712
tp937
a(S'w'
I9
tp938
a(S'w'
I724
tp939
a(S'p1_vo'
I5
tp940
a(S'w'
I11
tp941
a(S'p2_vo'
I2
tp942
a(S'w'
I10
tp943
a(S'tr_lr'
I0
tp944
a(S'w'
I714
tp945
a(S'p1_vo'
I2
tp946
a(S'w'
I10
tp947
a(S'w'
I723
tp948
a(S'w'
I11
tp949
a(S'w'
I723
tp950
a(S'w'
I11
tp951
a(S'w'
I723
tp952
a(S'w'
I10
tp953
a(S'w'
I724
tp954
a(S'w'
I10
tp955
a(S'w'
I729
tp956
a(S'w'
I10
tp957
a(S'w'
I718
tp958
a(S'w'
I11
tp959
a(S'w'
I726
tp960
a(S'p1_vo'
I10
tp961
a(S'p1_tl'
I150
tp962
a(S'w'
I1
tp963
a(S'p1_ll'
I0
tp964
a(S'w'
I12
tp965
a(S'p2_vo'
I10
tp966
a(S'w'
I1
tp967
a(S'p2_ll'
I0
tp968
a(S'w'
I14
tp969
a(S'tr_lr'
I123
tp970
a(S'tr_ll'
I0
tp971
a(S'w'
I702
tp972
a(S'p1_vo'
I9
tp973
a(S'w'
I1
tp974
a(S'w'
I9
tp975
a(S'p2_vo'
I9
tp976
a(S'w'
I10
tp977
a(S'tr_lr'
I117
tp978
a(S'w'
I714
tp979
a(S'w'
I10
tp980
a(S'w'
I10
tp981
a(S'tr_lr'
I116
tp982
a(S'w'
I714
tp983
a(S'w'
I10
tp984
a(S'w'
I724
tp985
a(S'p1_vo'
I5
tp986
a(S'w'
I10
tp987
a(S'p2_vo'
I2
tp988
a(S'w'
I724
tp989
a(S'p1_vo'
I2
tp990
a(S'w'
I11
tp991
a(S'w'
I10
tp992
a(S'tr_lr'
I0
tp993
a(S'w'
I716
tp994
a(S'w'
I10
tp995
a(S'w'
I721
tp996
a(S'w'
I10
tp997
a(S'w'
I724
tp998
a(S'w'
I10
tp999
a(S'w'
I723
tp1000
a(S'w'
I11
tp1001
a(S'w'
I723
tp1002
a(S'w'
I11
tp1003
a(S'w'
I723
tp1004
a(S'w'
I10
tp1005
a(S'w'
I726
tp1006
a(S'p1_vo'
I10
tp1007
a(S'w'
I1
tp1008
a(S'p1_tl'
I133
tp1009
a(S'p1_ll'
I0
tp1010
a(S'w'
I13
tp1011
a(S'p2_vo'
I10
tp1012
a(S'w'
I1
tp1013
a(S'p2_ll'
I0
tp1014
a(S'w'
I13
tp1015
a(S'tr_lr'
I123
tp1016
a(S'w'
I1
tp1017
a(S'tr_ll'
I0
tp1018
a(S'w'
I702
tp1019
a(S'p1_vo'
I9
tp1020
a(S'w'
I10
tp1021
a(S'p2_vo'
I9
tp1022
a(S'w'
I10
tp1023
a(S'tr_lr'
I117
tp1024
a(S'w'
I719
tp1025
a(S'w'
I10
tp1026
a(S'w'
I10
tp1027
a(S'tr_lr'
I116
tp1028
a(S'w'
I709
tp1029
a(S'w'
I10
tp1030
a(S'w'
I723
tp1031
a(S'p1_vo'
I5
tp1032
a(S'w'
I1
tp1033
a(S'w'
I10
tp1034
a(S'p2_vo'
I2
tp1035
a(S'w'
I10
tp1036
a(S'tr_lr'
I0
tp1037
a(S'w'
I714
tp1038
a(S'p1_vo'
I2
tp1039
a(S'w'
I10
tp1040
a(S'w'
I724
tp1041
a(S'w'
I10
tp1042
a(S'w'
I723
tp1043
a(S'w'
I11
tp1044
a(S'w'
I723
tp1045
a(S'w'
I11
tp1046
a(S'w'
I723
tp1047
a(S'w'
I10
tp1048
a(S'w'
I727
tp1049
a(S'w'
I10
tp1050
a(S'w'
I721
tp1051
a(S'w'
I10
tp1052
a(S'w'
I726
tp1053
a(S'p1_vo'
I10
tp1054
a(S'p1_tl'
I112
tp1055
a(S'w'
I1
tp1056
a(S'p1_ll'
I0
tp1057
a(S'w'
I12
tp1058
a(S'p2_vo'
I10
tp1059
a(S'w'
I1
tp1060
a(S'p2_tl'
I168
tp1061
a(S'p2_ll'
I0
tp1062
a(S'w'
I13
tp1063
a(S'tr_lr'
I123
tp1064
a(S'w'
I1
tp1065
a(S'tr_ll'
I0
tp1066
a(S'w'
I703
tp1067
a(S'p1_vo'
I9
tp1068
a(S'w'
I9
tp1069
a(S'p2_vo'
I9
tp1070
a(S'w'
I1
tp1071
a(S'w'
I10
tp1072
a(S'tr_lr'
I117
tp1073
a(S'w'
I714
tp1074
a(S'w'
I9
tp1075
a(S'w'
I10
tp1076
a(S'tr_lr'
I116
tp1077
a(S'w'
I714
tp1078
a(S'w'
I10
tp1079
a(S'w'
I724
tp1080
a(S'p1_vo'
I5
tp1081
a(S'w'
I9
tp1082
a(S'p2_vo'
I5
tp1083
a(S'w'
I725
tp1084
a(S'p1_vo'
I6
tp1085
a(S'w'
I10
tp1086
a(S'p2_vo'
I2
tp1087
a(S'w'
I1
tp1088
a(S'w'
I10
tp1089
a(S'tr_lr'
I0
tp1090
a(S'w'
I719
tp1091
a(S'p1_vo'
I2
tp1092
a(S'w'
I10
tp1093
a(S'w'
I718
tp1094
a(S'w'
I10
tp1095
a(S'w'
I724
tp1096
a(S'w'
I10
tp1097
a(S'w'
I724
tp1098
a(S'w'
I10
tp1099
a(S'w'
I724
tp1100
a(S'w'
I10
tp1101
a(S'w'
I723
tp1102
a(S'w'
I11
tp1103
a(S'w'
I723
tp1104
a(S'w'
I10
tp1105
a(S'w'
I727
tp1106
a(S'p1_vo'
I10
tp1107
a(S'p1_tl'
I133
tp1108
a(S'p1_ll'
I0
tp1109
a(S'w'
I13
tp1110
a(S'p2_vo'
I10
tp1111
a(S'w'
I1
tp1112
a(S'p2_ll'
I0
tp1113
a(S'w'
I13
tp1114
a(S'tr_lr'
I123
tp1115
a(S'tr_ll'
I0
tp1116
a(S'w'
I706
tp1117
a(S'p1_vo'
I9
tp1118
a(S'w'
I10
tp1119
a(S'p2_vo'
I9
tp1120
a(S'w'
I10
tp1121
a(S'tr_lr'
I117
tp1122
a(S'w'
I711
tp1123
a(S'w'
I10
tp1124
a(S'w'
I10
tp1125
a(S'tr_lr'
I116
tp1126
a(S'w'
I714
tp1127
a(S'w'
I10
tp1128
a(S'w'
I723
tp1129
a(S'p1_vo'
I5
tp1130
a(S'w'
I1
tp1131
a(S'w'
I10
tp1132
a(S'p2_vo'
I2
tp1133
a(S'w'
I10
tp1134
a(S'tr_lr'
I0
tp1135
a(S'w'
I714
tp1136
a(S'p1_vo'
I2
tp1137
a(S'w'
I10
tp1138
a(S'w'
I724
tp1139
a(S'w'
I10
tp1140
a(S'w'
I724
tp1141
a(S'w'
I10
tp1142
a(S'w'
I723
tp1143
a(S'w'
I11
tp1144
a(S'w'
I728
tp1145
a(S'w'
I11
tp1146
a(S'w'
I718
tp1147
a(S'w'
I10
tp1148
a(S'w'
I724
tp1149
a(S'w'
I10
tp1150
a(S'w'
I726
tp1151
a(S'p1_vo'
I10
tp1152
a(S'p1_tl'
I112
tp1153
a(S'w'
I1
tp1154
a(S'p1_ll'
I0
tp1155
a(S'w'
I13
tp1156
a(S'p2_vo'
I10
tp1157
a(S'w'
I1
tp1158
a(S'p2_ll'
I0
tp1159
a(S'w'
I13
tp1160
a(S'tr_lr'
I123
tp1161
a(S'w'
I1
tp1162
a(S'tr_ll'
I0
tp1163
a(S'w'
I702
tp1164
a(S'p1_vo'
I9
tp1165
a(S'w'
I9
tp1166
a(S'p2_vo'
I9
tp1167
a(S'w'
I1
tp1168
a(S'w'
I10
tp1169
a(S'tr_lr'
I117
tp1170
a(S'w'
I714
tp1171
a(S'w'
I10
tp1172
a(S'w'
I10
tp1173
a(S'tr_lr'
I116
tp1174
a(S'w'
I713
tp1175
a(S'w'
I11
tp1176
a(S'p2_vo'
I2
tp1177
a(S'w'
I723
tp1178
a(S'p1_vo'
I5
tp1179
a(S'w'
I11
tp1180
a(S'w'
I10
tp1181
a(S'tr_lr'
I0
tp1182
a(S'w'
I716
tp1183
a(S'p1_vo'
I2
tp1184
a(S'w'
I11
tp1185
a(S'w'
I720
tp1186
a(S'w'
I11
tp1187
a(S'w'
I723
tp1188
a(S'w'
I11
tp1189
a(S'w'
I723
tp1190
a(S'w'
I10
tp1191
a(S'w'
I724
tp1192
a(S'w'
I10
tp1193
a(S'w'
I724
tp1194
a(S'w'
I10
tp1195
a(S'w'
I723
tp1196
a(S'w'
I11
tp1197
a(S'w'
I727
tp1198
a(S'p1_vo'
I10
tp1199
a(S'p1_tl'
I88
tp1200
a(S'p1_ll'
I0
tp1201
a(S'w'
I14
tp1202
a(S'p2_vo'
I10
tp1203
a(S'p2_tl'
I150
tp1204
a(S'p2_ll'
I0
tp1205
a(S'w'
I14
tp1206
a(S'tr_lr'
I123
tp1207
a(S'tr_tl'
I196
tp1208
a(S'w'
I1
tp1209
a(S'tr_ll'
I0
tp1210
a(S'w'
I706
tp1211
a(S'p1_vo'
I9
tp1212
a(S'w'
I9
tp1213
a(S'p2_vo'
I9
tp1214
a(S'w'
I1
tp1215
a(S'w'
I10
tp1216
a(S'tr_lr'
I117
tp1217
a(S'w'
I708
tp1218
a(S'w'
I10
tp1219
a(S'w'
I10
tp1220
a(S'tr_lr'
I116
tp1221
a(S'w'
I714
tp1222
a(S'w'
I10
tp1223
a(S'w'
I724
tp1224
a(S'p1_vo'
I5
tp1225
a(S'w'
I10
tp1226
a(S'p2_vo'
I2
tp1227
a(S'w'
I723
tp1228
a(S'p1_vo'
I6
tp1229
a(S'w'
I1
tp1230
a(S'w'
I10
tp1231
a(S'w'
I10
tp1232
a(S'tr_lr'
I115
tp1233
a(S'w'
I714
tp1234
a(S'p1_vo'
I2
tp1235
a(S'w'
I10
tp1236
a(S'w'
I11
tp1237
a(S'tr_lr'
I0
tp1238
a(S'w'
I713
tp1239
a(S'w'
I10
tp1240
a(S'w'
I724
tp1241
a(S'w'
I10
tp1242
a(S'w'
I726
tp1243
a(S'w'
I10
tp1244
a(S'w'
I721
tp1245
a(S'w'
I11
tp1246
a(S'w'
I723
tp1247
a(S'w'
I10
tp1248
a(S'w'
I724
tp1249
a(S'w'
I10
tp1250
a(S'w'
I724
tp1251
a(S'w'
I10
tp1252
a(S'w'
I723
tp1253
a(S'w'
I11
tp1254
a(S'w'
I723
tp1255
a(S'w'
I11
tp1256
a(S'w'
I724
tp1257
a(S'w'
I11
tp1258
a(S'w'
I727
tp1259
a(S'w'
I10
tp1260
a(S'w'
I722
tp1261
a(S'p1_vo'
I10
tp1262
a(S'w'
I1
tp1263
a(S'p1_ll'
I0
tp1264
a(S'w'
I13
tp1265
a(S'p2_vo'
I10
tp1266
a(S'w'
I1
tp1267
a(S'p2_ll'
I0
tp1268
a(S'w'
I14
tp1269
a(S'tr_lr'
I123
tp1270
a(S'tr_ll'
I0
tp1271
a(S'w'
I701
tp1272
a(S'p1_vo'
I9
tp1273
a(S'w'
I10
tp1274
a(S'p2_vo'
I9
tp1275
a(S'w'
I10
tp1276
a(S'tr_lr'
I117
tp1277
a(S'w'
I714
tp1278
a(S'w'
I10
tp1279
a(S'w'
I10
tp1280
a(S'tr_lr'
I116
tp1281
a(S'w'
I714
tp1282
a(S'p1_vo'
I2
tp1283
a(S'w'
I10
tp1284
a(S'p2_vo'
I2
tp1285
a(S'w'
I1
tp1286
a(S'w'
I10
tp1287
a(S'tr_lr'
I0
tp1288
a(S'w'
I713
tp1289
a(S'w'
I10
tp1290
a(S'w'
I724
tp1291
a(S'w'
I10
tp1292
a(S'w'
I727
tp1293
a(S'p1_vo'
I10
tp1294
a(S'w'
I1
tp1295
a(S'p1_ll'
I0
tp1296
a(S'w'
I13
tp1297
a(S'p2_vo'
I10
tp1298
a(S'w'
I1
tp1299
a(S'p2_ll'
I0
tp1300
a(S'w'
I14
tp1301
a(S'tr_lr'
I123
tp1302
a(S'tr_ll'
I0
tp1303
a(S'w'
I703
tp1304
a(S'p1_vo'
I9
tp1305
a(S'w'
I10
tp1306
a(S'p2_vo'
I9
tp1307
a(S'w'
I10
tp1308
a(S'tr_lr'
I117
tp1309
a(S'w'
I712
tp1310
a(S'w'
I9
tp1311
a(S'w'
I10
tp1312
a(S'tr_lr'
I116
tp1313
a(S'w'
I714
tp1314
a(S'w'
I10
tp1315
a(S'w'
I724
tp1316
a(S'p1_vo'
I5
tp1317
a(S'w'
I10
tp1318
a(S'p2_vo'
I5
tp1319
a(S'w'
I724
tp1320
a(S'p1_vo'
I6
tp1321
a(S'w'
I10
tp1322
a(S'p2_vo'
I6
tp1323
a(S'w'
I10
tp1324
a(S'tr_lr'
I115
tp1325
a(S'w'
I714
tp1326
a(S'p1_vo'
I7
tp1327
a(S'w'
I9
tp1328
a(S'p2_vo'
I7
tp1329
a(S'w'
I1
tp1330
a(S'w'
I723
tp1331
a(S'p1_vo'
I8
tp1332
a(S'w'
I10
tp1333
a(S'p2_vo'
I8
tp1334
a(S'w'
I724
tp1335
a(S'p1_vo'
I9
tp1336
a(S'w'
I10
tp1337
a(S'p2_vo'
I9
tp1338
a(S'w'
I729
tp1339
a(S'w'
I10
tp1340
a(S'w'
I10
tp1341
a(S'tr_lr'
I114
tp1342
a(S'w'
I709
tp1343
a(S'w'
I10
tp1344
a(S'w'
I724
tp1345
a(S'w'
I10
tp1346
a(S'w'
I723
tp1347
a(S'p1_vo'
I8
tp1348
a(S'w'
I1
tp1349
a(S'w'
I9
tp1350
a(S'p2_vo'
I8
tp1351
a(S'w'
I10
tp1352
a(S'tr_lr'
I113
tp1353
a(S'w'
I714
tp1354
a(S'w'
I10
tp1355
a(S'w'
I724
tp1356
a(S'w'
I10
tp1357
a(S'w'
I724
tp1358
a(S'w'
I10
tp1359
a(S'w'
I724
tp1360
a(S'p1_vo'
I9
tp1361
a(S'w'
I11
tp1362
a(S'p2_vo'
I9
tp1363
a(S'w'
I725
tp1364
a(S'w'
I10
tp1365
a(S'w'
I721
tp1366
a(S'w'
I10
tp1367
a(S'w'
I724
tp1368
a(S'w'
I10
tp1369
a(S'w'
I724
tp1370
a(S'p1_vo'
I8
tp1371
a(S'w'
I10
tp1372
a(S'p2_vo'
I8
tp1373
a(S'w'
I724
tp1374
a(S'w'
I10
tp1375
a(S'w'
I723
tp1376
a(S'w'
I10
tp1377
a(S'w'
I724
tp1378
a(S'w'
I10
tp1379
a(S'w'
I725
tp1380
a(S'p1_vo'
I9
tp1381
a(S'w'
I10
tp1382
a(S'p2_vo'
I9
tp1383
a(S'w'
I728
tp1384
a(S'w'
I10
tp1385
a(S'w'
I719
tp1386
a(S'w'
I10
tp1387
a(S'w'
I724
tp1388
a(S'w'
I9
tp1389
a(S'w'
I724
tp1390
a(S'p1_vo'
I8
tp1391
a(S'w'
I10
tp1392
a(S'p2_vo'
I8
tp1393
a(S'w'
I724
tp1394
a(S'w'
I10
tp1395
a(S'w'
I724
tp1396
a(S'w'
I10
tp1397
a(S'w'
I724
tp1398
a(S'w'
I10
tp1399
a(S'w'
I724
tp1400
a(S'p1_vo'
I9
tp1401
a(S'w'
I11
tp1402
a(S'p2_vo'
I9
tp1403
a(S'w'
I725
tp1404
a(S'w'
I10
tp1405
a(S'w'
I721
tp1406
a(S'w'
I10
tp1407
a(S'w'
I724
tp1408
a(S'w'
I10
tp1409
a(S'w'
I724
tp1410
a(S'p1_vo'
I8
tp1411
a(S'w'
I9
tp1412
a(S'p2_vo'
I8
tp1413
a(S'w'
I1
tp1414
a(S'w'
I724
tp1415
a(S'w'
I9
tp1416
a(S'w'
I724
tp1417
a(S'w'
I10
tp1418
a(S'w'
I724
tp1419
a(S'w'
I10
tp1420
a(S'w'
I724
tp1421
a(S'p1_vo'
I9
tp1422
a(S'w'
I1
tp1423
a(S'w'
I10
tp1424
a(S'p2_vo'
I9
tp1425
a(S'w'
I728
tp1426
a(S'w'
I10
tp1427
a(S'w'
I719
tp1428
a(S'w'
I9
tp1429
a(S'w'
I724
tp1430
a(S'w'
I10
tp1431
a(S'w'
I724
tp1432
a(S'p1_vo'
I8
tp1433
a(S'w'
I10
tp1434
a(S'p2_vo'
I8
tp1435
a(S'w'
I724
tp1436
a(S'w'
I10
tp1437
a(S'w'
I724
tp1438
a(S'w'
I10
tp1439
a(S'w'
I724
tp1440
a(S'w'
I9
tp1441
a(S'w'
I730
tp1442
a(S'p1_vo'
I9
tp1443
a(S'w'
I1
tp1444
a(S'w'
I16
tp1445
a(S'p2_vo'
I9
tp1446
a(S'w'
I714
tp1447
a(S'w'
I10
tp1448
a(S'w'
I721
tp1449
a(S'w'
I10
tp1450
a(S'w'
I724
tp1451
a(S'w'
I10
tp1452
a(S'w'
I723
tp1453
a(S'p1_vo'
I8
tp1454
a(S'w'
I1
tp1455
a(S'w'
I9
tp1456
a(S'p2_vo'
I8
tp1457
a(S'w'
I724
tp1458
a(S'w'
I10
tp1459
a(S'w'
I724
tp1460
a(S'w'
I10
tp1461
a(S'w'
I724
tp1462
a(S'w'
I10
tp1463
a(S'w'
I724
tp1464
a(S'p1_vo'
I9
tp1465
a(S'w'
I1
tp1466
a(S'w'
I10
tp1467
a(S'p2_vo'
I9
tp1468
a(S'w'
I728
tp1469
a(S'w'
I10
tp1470
a(S'w'
I718
tp1471
a(S'w'
I10
tp1472
a(S'w'
I724
tp1473
a(S'w'
I10
tp1474
a(S'w'
I724
tp1475
a(S'p1_vo'
I8
tp1476
a(S'w'
I10
tp1477
a(S'p2_vo'
I8
tp1478
a(S'w'
I724
tp1479
a(S'w'
I10
tp1480
a(S'w'
I724
tp1481
a(S'w'
I9
tp1482
a(S'w'
I724
tp1483
a(S'w'
I10
tp1484
a(S'w'
I725
tp1485
a(S'p1_vo'
I9
tp1486
a(S'w'
I10
tp1487
a(S'p2_vo'
I9
tp1488
a(S'w'
I1
tp1489
a(S'w'
I725
tp1490
a(S'w'
I9
tp1491
a(S'w'
I722
tp1492
a(S'w'
I10
tp1493
a(S'w'
I724
tp1494
a(S'w'
I9
tp1495
a(S'w'
I724
tp1496
a(S'p1_vo'
I8
tp1497
a(S'w'
I10
tp1498
a(S'p2_vo'
I8
tp1499
a(S'w'
I724
tp1500
a(S'w'
I10
tp1501
a(S'w'
I724
tp1502
a(S'w'
I10
tp1503
a(S'w'
I724
tp1504
a(S'w'
I10
tp1505
a(S'w'
I724
tp1506
a(S'p1_vo'
I9
tp1507
a(S'w'
I11
tp1508
a(S'p2_vo'
I9
tp1509
a(S'w'
I728
tp1510
a(S'w'
I10
tp1511
a(S'w'
I718
tp1512
a(S'w'
I10
tp1513
a(S'w'
I724
tp1514
a(S'w'
I10
tp1515
a(S'w'
I724
tp1516
a(S'p1_vo'
I8
tp1517
a(S'w'
I9
tp1518
a(S'p2_vo'
I8
tp1519
a(S'w'
I1
tp1520
a(S'w'
I724
tp1521
a(S'w'
I9
tp1522
a(S'w'
I724
tp1523
a(S'w'
I10
tp1524
a(S'w'
I724
tp1525
a(S'w'
I10
tp1526
a(S'w'
I725
tp1527
a(S'p1_vo'
I9
tp1528
a(S'w'
I10
tp1529
a(S'p2_vo'
I9
tp1530
a(S'w'
I725
tp1531
a(S'w'
I10
tp1532
a(S'w'
I722
tp1533
a(S'w'
I10
tp1534
a(S'w'
I723
tp1535
a(S'w'
I10
tp1536
a(S'w'
I724
tp1537
a(S'p1_vo'
I8
tp1538
a(S'w'
I10
tp1539
a(S'p2_vo'
I8
tp1540
a(S'w'
I724
tp1541
a(S'w'
I10
tp1542
a(S'w'
I724
tp1543
a(S'w'
I10
tp1544
a(S'w'
I724
tp1545
a(S'w'
I9
tp1546
a(S'w'
I725
tp1547
a(S'p1_vo'
I9
tp1548
a(S'w'
I11
tp1549
a(S'p2_vo'
I9
tp1550
a(S'w'
I728
tp1551
a(S'w'
I9
tp1552
a(S'w'
I719
tp1553
a(S'w'
I10
tp1554
a(S'w'
I724
tp1555
a(S'w'
I10
tp1556
a(S'w'
I723
tp1557
a(S'p1_vo'
I8
tp1558
a(S'w'
I1
tp1559
a(S'w'
I9
tp1560
a(S'p2_vo'
I8
tp1561
a(S'w'
I724
tp1562
a(S'w'
I10
tp1563
a(S'w'
I724
tp1564
a(S'w'
I10
tp1565
a(S'w'
I724
tp1566
a(S'w'
I10
tp1567
a(S'w'
I724
tp1568
a(S'p1_vo'
I9
tp1569
a(S'w'
I1
tp1570
a(S'w'
I10
tp1571
a(S'p2_vo'
I9
tp1572
a(S'w'
I725
tp1573
a(S'w'
I10
tp1574
a(S'w'
I721
tp1575
a(S'w'
I10
tp1576
a(S'w'
I724
tp1577
a(S'w'
I10
tp1578
a(S'w'
I724
tp1579
a(S'p1_vo'
I8
tp1580
a(S'w'
I10
tp1581
a(S'p2_vo'
I8
tp1582
a(S'w'
I724
tp1583
a(S'w'
I10
tp1584
a(S'w'
I724
tp1585
a(S'w'
I10
tp1586
a(S'w'
I723
tp1587
a(S'w'
I10
tp1588
a(S'w'
I725
tp1589
a(S'p1_vo'
I9
tp1590
a(S'w'
I10
tp1591
a(S'p2_vo'
I9
tp1592
a(S'w'
I1
tp1593
a(S'w'
I727
tp1594
a(S'w'
I10
tp1595
a(S'w'
I719
tp1596
a(S'w'
I10
tp1597
a(S'w'
I724
tp1598
a(S'w'
I10
tp1599
a(S'w'
I723
tp1600
a(S'p1_vo'
I8
tp1601
a(S'w'
I10
tp1602
a(S'p2_vo'
I8
tp1603
a(S'w'
I724
tp1604
a(S'w'
I10
tp1605
a(S'w'
I724
tp1606
a(S'w'
I10
tp1607
a(S'w'
I724
tp1608
a(S'w'
I10
tp1609
a(S'w'
I724
tp1610
a(S'p1_vo'
I9
tp1611
a(S'w'
I11
tp1612
a(S'p2_vo'
I9
tp1613
a(S'w'
I725
tp1614
a(S'w'
I10
tp1615
a(S'w'
I721
tp1616
a(S'w'
I10
tp1617
a(S'w'
I724
tp1618
a(S'w'
I10
tp1619
a(S'w'
I724
tp1620
a(S'p1_vo'
I8
tp1621
a(S'w'
I10
tp1622
a(S'p2_vo'
I8
tp1623
a(S'w'
I724
tp1624
a(S'w'
I10
tp1625
a(S'w'
I723
tp1626
a(S'w'
I10
tp1627
a(S'w'
I724
tp1628
a(S'w'
I10
tp1629
a(S'w'
I720
tp1630
a(S'p1_du'
I0
tp1631
a(S'p1_vo'
I0
tp1632
a(S'w'
I7
tp1633
a(S'p2_du'
I0
tp1634
a(S'p2_vo'
I0
tp1635
a(S'w'
I6
tp1636
a(S'tr_lh'
I0
tp1637
a(S'tr_lr'
I0
tp1638
a(S'w'
I305
tp1639
a.