(lp1
(S'clock'
p2
I1789772
tp3
a(S'p1_du'
I3
tp4
a(S'p1_lh'
I1
tp5
a(S'p1_cv'
I1
tp6
a(S'p1_sn'
I1
tp7
a(S'p1_tl'
I170
tp8
a(S'p1_ll'
I0
tp9
a(S'p2_du'
I3
tp10
a(S'p2_lh'
I1
tp11
a(S'p2_cv'
I1
tp12
a(S'p2_sn'
I1
tp13
a(S'p2_tl'
I29
tp14
a(S'p2_ll'
I0
tp15
a(S'p2_th'
I1
tp16
a(S'tr_ll'
I0
tp17
a(S'no_lh'
I1
tp18
a(S'no_cv'
I1
tp19
a(S'no_np'
I5
tp20
a(S'no_ll'
I1
tp21
a(S'ch_no'
I1
tp22
a(S'ch_tr'
I1
tp23
a(S'ch_p2'
I1
tp24
a(S'ch_p1'
I1
tp25
a(S'fc_mo'
I0
tp26
a(S'w'
I16339
tp27
a(S'p1_tl'
I64
tp28
a(S'p1_ll'
I0
tp29
a(S'p1_th'
I1
tp30
a(S'w'
I5
tp31
a(S'p1_du'
I1
tp32
a(S'p1_vo'
I7
tp33
a(S'w'
I31
tp34
a(S'p2_tl'
I104
tp35
a(S'w'
I1
tp36
a(S'p2_ll'
I0
tp37
a(S'w'
I4
tp38
a(S'p2_du'
I1
tp39
a(S'p2_vo'
I7
tp40
a(S'w'
I23
tp41
a(S'tr_ll'
I0
tp42
a(S'w'
I18
tp43
a(S'tr_lh'
I1
tp44
a(S'tr_lr'
I127
tp45
a(S'tr_tl'
I172
tp46
a(S'tr_ll'
I31
tp47
a(S'tr_th'
I1
tp48
a(S'w'
I642
tp49
a(S'no_np'
I0
tp50
a(S'no_ll'
I0
tp51
a(S'w'
I8057
tp52
a(S'p1_vo'
I6
tp53
a(S'w'
I7
tp54
a(S'p2_vo'
I6
tp55
a(S'w'
I2206
tp56
a(S'tr_lh'
I0
tp57
a(S'tr_lr'
I0
tp58
a(S'tr_tl'
I0
tp59
a(S'tr_ll'
I0
tp60
a(S'tr_th'
I0
tp61
a(S'w'
I2195
tp62
a(S'p1_ll'
I0
tp63
a(S'w'
I5
tp64
a(S'p1_vo'
I7
tp65
a(S'w'
I11
tp66
a(S'w'
I1
tp67
a(S'p2_ll'
I0
tp68
a(S'w'
I5
tp69
a(S'p2_vo'
I7
tp70
a(S'w'
I13
tp71
a(S'tr_lh'
I1
tp72
a(S'tr_lr'
I127
tp73
a(S'tr_tl'
I172
tp74
a(S'w'
I1
tp75
a(S'tr_ll'
I31
tp76
a(S'tr_th'
I1
tp77
a(S'w'
I8764
tp78
a(S'p1_vo'
I6
tp79
a(S'w'
I7
tp80
a(S'p2_vo'
I6
tp81
a(S'w'
I2206
tp82
a(S'tr_lh'
I0
tp83
a(S'tr_lr'
I0
tp84
a(S'tr_tl'
I0
tp85
a(S'w'
I1
tp86
a(S'tr_ll'
I0
tp87
a(S'tr_th'
I0
tp88
a(S'w'
I2194
tp89
a(S'p1_tl'
I240
tp90
a(S'p1_ll'
I0
tp91
a(S'p1_th'
I0
tp92
a(S'w'
I5
tp93
a(S'p1_vo'
I7
tp94
a(S'w'
I12
tp95
a(S'p2_tl'
I125
tp96
a(S'p2_ll'
I0
tp97
a(S'w'
I5
tp98
a(S'p2_vo'
I7
tp99
a(S'w'
I13
tp100
a(S'tr_lh'
I1
tp101
a(S'tr_lr'
I127
tp102
a(S'w'
I1
tp103
a(S'tr_tl'
I236
tp104
a(S'tr_ll'
I31
tp105
a(S'tr_th'
I1
tp106
a(S'w'
I8765
tp107
a(S'p1_vo'
I6
tp108
a(S'w'
I6
tp109
a(S'p2_vo'
I6
tp110
a(S'w'
I8799
tp111
a(S'p1_vo'
I5
tp112
a(S'w'
I7
tp113
a(S'p2_vo'
I5
tp114
a(S'w'
I8799
tp115
a(S'p1_vo'
I4
tp116
a(S'w'
I7
tp117
a(S'p2_vo'
I4
tp118
a(S'w'
I11011
tp119
a(S'tr_lh'
I0
tp120
a(S'tr_lr'
I0
tp121
a(S'tr_tl'
I0
tp122
a(S'tr_ll'
I0
tp123
a(S'tr_th'
I0
tp124
a(S'w'
I2195
tp125
a(S'p1_tl'
I214
tp126
a(S'w'
I1
tp127
a(S'p1_ll'
I0
tp128
a(S'w'
I4
tp129
a(S'p1_vo'
I7
tp130
a(S'w'
I12
tp131
a(S'p2_tl'
I64
tp132
a(S'p2_ll'
I0
tp133
a(S'w'
I5
tp134
a(S'p2_vo'
I7
tp135
a(S'w'
I14
tp136
a(S'tr_lh'
I1
tp137
a(S'tr_lr'
I127
tp138
a(S'tr_tl'
I252
tp139
a(S'tr_ll'
I31
tp140
a(S'tr_th'
I1
tp141
a(S'w'
I8765
tp142
a(S'p1_vo'
I6
tp143
a(S'w'
I7
tp144
a(S'p2_vo'
I6
tp145
a(S'w'
I2206
tp146
a(S'tr_lh'
I0
tp147
a(S'tr_lr'
I0
tp148
a(S'tr_tl'
I0
tp149
a(S'tr_ll'
I0
tp150
a(S'tr_th'
I0
tp151
a(S'w'
I2195
tp152
a(S'p1_tl'
I190
tp153
a(S'p1_ll'
I0
tp154
a(S'w'
I5
tp155
a(S'p1_vo'
I7
tp156
a(S'w'
I12
tp157
a(S'p2_ll'
I0
tp158
a(S'w'
I5
tp159
a(S'p2_vo'
I7
tp160
a(S'w'
I13
tp161
a(S'tr_lh'
I1
tp162
a(S'tr_lr'
I127
tp163
a(S'tr_tl'
I236
tp164
a(S'w'
I1
tp165
a(S'tr_ll'
I31
tp166
a(S'tr_th'
I1
tp167
a(S'w'
I8764
tp168
a(S'p1_vo'
I6
tp169
a(S'w'
I7
tp170
a(S'p2_vo'
I6
tp171
a(S'w'
I2207
tp172
a(S'tr_lh'
I0
tp173
a(S'tr_lr'
I0
tp174
a(S'tr_tl'
I0
tp175
a(S'tr_ll'
I0
tp176
a(S'tr_th'
I0
tp177
a(S'w'
I2194
tp178
a(S'p1_tl'
I180
tp179
a(S'p1_ll'
I0
tp180
a(S'w'
I5
tp181
a(S'p1_vo'
I7
tp182
a(S'w'
I12
tp183
a(S'p2_ll'
I0
tp184
a(S'w'
I5
tp185
a(S'p2_vo'
I7
tp186
a(S'w'
I14
tp187
a(S'tr_lh'
I1
tp188
a(S'tr_lr'
I127
tp189
a(S'tr_tl'
I172
tp190
a(S'tr_ll'
I31
tp191
a(S'tr_th'
I1
tp192
a(S'w'
I8765
tp193
a(S'p1_vo'
I6
tp194
a(S'w'
I7
tp195
a(S'p2_vo'
I6
tp196
a(S'w'
I2206
tp197
a(S'tr_lh'
I0
tp198
a(S'tr_lr'
I0
tp199
a(S'tr_tl'
I0
tp200
a(S'tr_ll'
I0
tp201
a(S'tr_th'
I0
tp202
a(S'w'
I2195
tp203
a(S'p1_tl'
I160
tp204
a(S'p1_ll'
I0
tp205
a(S'w'
I4
tp206
a(S'p1_vo'
I7
tp207
a(S'w'
I12
tp208
a(S'p2_tl'
I190
tp209
a(S'w'
I1
tp210
a(S'p2_ll'
I0
tp211
a(S'p2_th'
I0
tp212
a(S'w'
I4
tp213
a(S'p2_vo'
I7
tp214
a(S'w'
I14
tp215
a(S'tr_lh'
I1
tp216
a(S'tr_lr'
I127
tp217
a(S'tr_tl'
I125
tp218
a(S'tr_ll'
I31
tp219
a(S'tr_th'
I1
tp220
a(S'w'
I8765
tp221
a(S'p1_vo'
I6
tp222
a(S'w'
I7
tp223
a(S'p2_vo'
I6
tp224
a(S'w'
I8799
tp225
a(S'p1_vo'
I5
tp226
a(S'w'
I7
tp227
a(S'p2_vo'
I5
tp228
a(S'w'
I8798
tp229
a(S'p1_vo'
I4
tp230
a(S'w'
I7
tp231
a(S'p2_vo'
I4
tp232
a(S'w'
I8799
tp233
a(S'p1_vo'
I3
tp234
a(S'w'
I7
tp235
a(S'p2_vo'
I3
tp236
a(S'w'
I15414
tp237
a(S'tr_lh'
I0
tp238
a(S'tr_lr'
I0
tp239
a(S'tr_tl'
I0
tp240
a(S'tr_ll'
I0
tp241
a(S'tr_th'
I0
tp242
a(S'w'
I2195
tp243
a(S'p1_tl'
I240
tp244
a(S'w'
I1
tp245
a(S'p1_ll'
I0
tp246
a(S'w'
I4
tp247
a(S'p1_vo'
I7
tp248
a(S'w'
I12
tp249
a(S'p2_tl'
I46
tp250
a(S'p2_ll'
I0
tp251
a(S'p2_th'
I1
tp252
a(S'w'
I5
tp253
a(S'p2_vo'
I7
tp254
a(S'w'
I14
tp255
a(S'tr_lh'
I1
tp256
a(S'tr_lr'
I127
tp257
a(S'tr_tl'
I104
tp258
a(S'tr_ll'
I31
tp259
a(S'tr_th'
I1
tp260
a(S'w'
I8765
tp261
a(S'p1_vo'
I6
tp262
a(S'w'
I7
tp263
a(S'p2_vo'
I6
tp264
a(S'w'
I4401
tp265
a(S'p1_tl'
I214
tp266
a(S'p1_ll'
I0
tp267
a(S'w'
I5
tp268
a(S'p1_vo'
I7
tp269
a(S'w'
I4399
tp270
a(S'p2_vo'
I5
tp271
a(S'w'
I4396
tp272
a(S'p1_vo'
I6
tp273
a(S'w'
I2213
tp274
a(S'tr_lh'
I0
tp275
a(S'tr_lr'
I0
tp276
a(S'tr_tl'
I0
tp277
a(S'tr_ll'
I0
tp278
a(S'tr_th'
I0
tp279
a(S'w'
I2195
tp280
a(S'p1_tl'
I190
tp281
a(S'p1_ll'
I0
tp282
a(S'w'
I5
tp283
a(S'p1_vo'
I7
tp284
a(S'w'
I12
tp285
a(S'p2_tl'
I64
tp286
a(S'p2_ll'
I0
tp287
a(S'w'
I5
tp288
a(S'p2_vo'
I7
tp289
a(S'w'
I14
tp290
a(S'tr_lh'
I1
tp291
a(S'tr_lr'
I127
tp292
a(S'tr_tl'
I64
tp293
a(S'tr_ll'
I31
tp294
a(S'tr_th'
I1
tp295
a(S'w'
I8765
tp296
a(S'p1_vo'
I6
tp297
a(S'w'
I7
tp298
a(S'p2_vo'
I6
tp299
a(S'w'
I8798
tp300
a(S'p1_vo'
I5
tp301
a(S'w'
I7
tp302
a(S'p2_vo'
I5
tp303
a(S'w'
I8799
tp304
a(S'p1_vo'
I4
tp305
a(S'w'
I7
tp306
a(S'p2_vo'
I4
tp307
a(S'w'
I13206
tp308
a(S'p1_tl'
I180
tp309
a(S'w'
I1
tp310
a(S'p1_ll'
I0
tp311
a(S'w'
I4
tp312
a(S'p1_vo'
I7
tp313
a(S'w'
I12
tp314
a(S'p2_tl'
I29
tp315
a(S'w'
I1
tp316
a(S'p2_ll'
I0
tp317
a(S'w'
I4
tp318
a(S'p2_vo'
I7
tp319
a(S'w'
I8779
tp320
a(S'p1_vo'
I6
tp321
a(S'w'
I7
tp322
a(S'p2_vo'
I6
tp323
a(S'w'
I2206
tp324
a(S'tr_lh'
I0
tp325
a(S'tr_lr'
I0
tp326
a(S'tr_tl'
I0
tp327
a(S'tr_ll'
I0
tp328
a(S'tr_th'
I0
tp329
a(S'w'
I2195
tp330
a(S'p1_tl'
I214
tp331
a(S'p1_ll'
I0
tp332
a(S'w'
I5
tp333
a(S'p1_vo'
I7
tp334
a(S'w'
I12
tp335
a(S'p2_tl'
I104
tp336
a(S'p2_ll'
I0
tp337
a(S'w'
I5
tp338
a(S'p2_vo'
I7
tp339
a(S'w'
I13
tp340
a(S'tr_lh'
I1
tp341
a(S'tr_lr'
I127
tp342
a(S'w'
I1
tp343
a(S'tr_tl'
I129
tp344
a(S'tr_ll'
I31
tp345
a(S'tr_th'
I2
tp346
a(S'w'
I8764
tp347
a(S'p1_vo'
I6
tp348
a(S'w'
I7
tp349
a(S'p2_vo'
I6
tp350
a(S'w'
I8799
tp351
a(S'p1_vo'
I5
tp352
a(S'w'
I7
tp353
a(S'p2_vo'
I5
tp354
a(S'w'
I6609
tp355
a(S'tr_lh'
I0
tp356
a(S'tr_lr'
I0
tp357
a(S'tr_tl'
I0
tp358
a(S'tr_ll'
I0
tp359
a(S'tr_th'
I0
tp360
a(S'w'
I2195
tp361
a(S'p1_tl'
I240
tp362
a(S'p1_ll'
I0
tp363
a(S'w'
I5
tp364
a(S'p1_vo'
I7
tp365
a(S'w'
I12
tp366
a(S'p2_tl'
I125
tp367
a(S'p2_ll'
I0
tp368
a(S'w'
I5
tp369
a(S'p2_vo'
I7
tp370
a(S'w'
I13
tp371
a(S'tr_lh'
I1
tp372
a(S'tr_lr'
I127
tp373
a(S'tr_tl'
I236
tp374
a(S'w'
I1
tp375
a(S'tr_ll'
I31
tp376
a(S'tr_th'
I1
tp377
a(S'w'
I8764
tp378
a(S'p1_vo'
I6
tp379
a(S'w'
I7
tp380
a(S'p2_vo'
I6
tp381
a(S'w'
I8799
tp382
a(S'p1_vo'
I5
tp383
a(S'w'
I7
tp384
a(S'p2_vo'
I5
tp385
a(S'w'
I8799
tp386
a(S'p1_vo'
I4
tp387
a(S'w'
I6
tp388
a(S'p2_vo'
I4
tp389
a(S'w'
I8799
tp390
a(S'p1_vo'
I3
tp391
a(S'w'
I7
tp392
a(S'p2_vo'
I3
tp393
a(S'w'
I44024
tp394
a(S'p1_du'
I3
tp395
a(S'p1_vo'
I0
tp396
a(S'p1_tl'
I0
tp397
a(S'w'
I1
tp398
a(S'p1_ll'
I0
tp399
a(S'w'
I10
tp400
a(S'p2_du'
I3
tp401
a(S'p2_vo'
I0
tp402
a(S'p2_tl'
I0
tp403
a(S'p2_ll'
I0
tp404
a(S'p2_th'
I0
tp405
a(S'w'
I8
tp406
a(S'tr_lh'
I0
tp407
a(S'tr_lr'
I0
tp408
a(S'tr_tl'
I0
tp409
a(S'tr_ll'
I0
tp410
a(S'tr_th'
I0
tp411
a.