(lp1
(S'clock'
p2
I1789772
tp3
a(S'p1_du'
I3
tp4
a(S'p1_lh'
I1
tp5
a(S'p1_cv'
I1
tp6
a(S'p1_sn'
I1
tp7
a(S'p1_ll'
I0
tp8
a(S'p2_du'
I3
tp9
a(S'p2_lh'
I1
tp10
a(S'p2_cv'
I1
tp11
a(S'p2_sn'
I1
tp12
a(S'p2_ll'
I0
tp13
a(S'tr_ll'
I0
tp14
a(S'no_lh'
I1
tp15
a(S'no_cv'
I1
tp16
a(S'no_ll'
I0
tp17
a(S'ch_no'
I1
tp18
a(S'ch_tr'
I1
tp19
a(S'ch_p2'
I1
tp20
a(S'ch_p1'
I1
tp21
a(S'fc_mo'
I0
tp22
a(S'w'
I24987
tp23
a(S'p1_tl'
I83
tp24
a(S'w'
I1
tp25
a(S'p1_ll'
I0
tp26
a(S'p1_th'
I1
tp27
a(S'w'
I4
tp28
a(S'p1_du'
I1
tp29
a(S'p1_vo'
I7
tp30
a(S'w'
I32
tp31
a(S'p2_tl'
I172
tp32
a(S'p2_ll'
I0
tp33
a(S'p2_th'
I1
tp34
a(S'w'
I5
tp35
a(S'p2_du'
I1
tp36
a(S'p2_vo'
I7
tp37
a(S'w'
I23
tp38
a(S'tr_ll'
I0
tp39
a(S'w'
I17
tp40
a(S'tr_lh'
I1
tp41
a(S'tr_lr'
I127
tp42
a(S'tr_tl'
I252
tp43
a(S'w'
I1
tp44
a(S'tr_ll'
I31
tp45
a(S'tr_th'
I1
tp46
a(S'w'
I641
tp47
a(S'no_ll'
I0
tp48
a(S'w'
I5855
tp49
a(S'p1_vo'
I0
tp50
a(S'w'
I6
tp51
a(S'p2_vo'
I0
tp52
a(S'w'
I7
tp53
a(S'tr_lh'
I0
tp54
a(S'tr_lr'
I0
tp55
a(S'w'
I1
tp56
a(S'tr_tl'
I0
tp57
a(S'tr_ll'
I0
tp58
a(S'tr_th'
I0
tp59
a(S'w'
I2193
tp60
a(S'w'
I1
tp61
a(S'p1_ll'
I0
tp62
a(S'w'
I4
tp63
a(S'p1_vo'
I7
tp64
a(S'w'
I12
tp65
a(S'w'
I1
tp66
a(S'p2_ll'
I0
tp67
a(S'w'
I4
tp68
a(S'p2_vo'
I7
tp69
a(S'w'
I14
tp70
a(S'tr_lh'
I1
tp71
a(S'tr_lr'
I127
tp72
a(S'tr_tl'
I252
tp73
a(S'tr_ll'
I31
tp74
a(S'tr_th'
I1
tp75
a(S'w'
I6563
tp76
a(S'p1_vo'
I0
tp77
a(S'w'
I5
tp78
a(S'p2_vo'
I0
tp79
a(S'w'
I8
tp80
a(S'tr_lh'
I0
tp81
a(S'tr_lr'
I0
tp82
a(S'tr_tl'
I0
tp83
a(S'tr_ll'
I0
tp84
a(S'tr_th'
I0
tp85
a(S'w'
I2194
tp86
a(S'p1_ll'
I0
tp87
a(S'w'
I5
tp88
a(S'p1_vo'
I7
tp89
a(S'w'
I12
tp90
a(S'p2_ll'
I0
tp91
a(S'w'
I5
tp92
a(S'p2_vo'
I7
tp93
a(S'w'
I13
tp94
a(S'tr_lh'
I1
tp95
a(S'tr_lr'
I127
tp96
a(S'w'
I1
tp97
a(S'tr_tl'
I252
tp98
a(S'tr_ll'
I31
tp99
a(S'tr_th'
I1
tp100
a(S'w'
I6562
tp101
a(S'p1_vo'
I0
tp102
a(S'w'
I6
tp103
a(S'p2_vo'
I0
tp104
a(S'w'
I8
tp105
a(S'tr_lh'
I0
tp106
a(S'tr_lr'
I0
tp107
a(S'tr_tl'
I0
tp108
a(S'tr_ll'
I0
tp109
a(S'tr_th'
I0
tp110
a(S'w'
I2194
tp111
a(S'p1_tl'
I172
tp112
a(S'p1_ll'
I0
tp113
a(S'w'
I5
tp114
a(S'p1_vo'
I7
tp115
a(S'w'
I11
tp116
a(S'p2_tl'
I252
tp117
a(S'w'
I1
tp118
a(S'p2_ll'
I0
tp119
a(S'w'
I4
tp120
a(S'p2_vo'
I7
tp121
a(S'w'
I14
tp122
a(S'tr_lh'
I1
tp123
a(S'tr_lr'
I127
tp124
a(S'tr_tl'
I252
tp125
a(S'w'
I1
tp126
a(S'tr_ll'
I31
tp127
a(S'tr_th'
I1
tp128
a(S'w'
I8764
tp129
a(S'p1_vo'
I6
tp130
a(S'w'
I7
tp131
a(S'p2_vo'
I6
tp132
a(S'w'
I8799
tp133
a(S'p1_vo'
I5
tp134
a(S'w'
I7
tp135
a(S'p2_vo'
I5
tp136
a(S'w'
I8798
tp137
a(S'p1_vo'
I4
tp138
a(S'w'
I7
tp139
a(S'p2_vo'
I4
tp140
a(S'w'
I8799
tp141
a(S'p1_vo'
I3
tp142
a(S'w'
I7
tp143
a(S'p2_vo'
I3
tp144
a(S'w'
I39629
tp145
a(S'tr_lh'
I0
tp146
a(S'tr_lr'
I0
tp147
a(S'tr_tl'
I0
tp148
a(S'tr_ll'
I0
tp149
a(S'tr_th'
I0
tp150
a(S'w'
I4398
tp151
a(S'p1_tl'
I125
tp152
a(S'p1_ll'
I0
tp153
a(S'w'
I5
tp154
a(S'p1_vo'
I7
tp155
a(S'w'
I12
tp156
a(S'p2_tl'
I197
tp157
a(S'p2_ll'
I0
tp158
a(S'w'
I5
tp159
a(S'p2_vo'
I7
tp160
a(S'w'
I14
tp161
a(S'tr_lh'
I1
tp162
a(S'tr_lr'
I127
tp163
a(S'tr_tl'
I167
tp164
a(S'tr_ll'
I31
tp165
a(S'tr_th'
I2
tp166
a(S'w'
I8764
tp167
a(S'p1_vo'
I6
tp168
a(S'w'
I7
tp169
a(S'p2_vo'
I6
tp170
a(S'w'
I6596
tp171
a(S'p1_vo'
I0
tp172
a(S'w'
I6
tp173
a(S'p2_vo'
I0
tp174
a(S'w'
I7
tp175
a(S'tr_lh'
I0
tp176
a(S'tr_lr'
I0
tp177
a(S'w'
I1
tp178
a(S'tr_tl'
I0
tp179
a(S'tr_ll'
I0
tp180
a(S'tr_th'
I0
tp181
a(S'w'
I2193
tp182
a(S'w'
I1
tp183
a(S'p1_ll'
I0
tp184
a(S'w'
I4
tp185
a(S'p1_vo'
I7
tp186
a(S'w'
I12
tp187
a(S'w'
I1
tp188
a(S'p2_ll'
I0
tp189
a(S'w'
I4
tp190
a(S'p2_vo'
I7
tp191
a(S'w'
I14
tp192
a(S'tr_lh'
I1
tp193
a(S'tr_lr'
I127
tp194
a(S'tr_tl'
I167
tp195
a(S'tr_ll'
I31
tp196
a(S'tr_th'
I2
tp197
a(S'w'
I8765
tp198
a(S'p1_vo'
I6
tp199
a(S'w'
I7
tp200
a(S'p2_vo'
I6
tp201
a(S'w'
I6596
tp202
a(S'p1_vo'
I0
tp203
a(S'w'
I6
tp204
a(S'p2_vo'
I0
tp205
a(S'w'
I8
tp206
a(S'tr_lh'
I0
tp207
a(S'tr_lr'
I0
tp208
a(S'tr_tl'
I0
tp209
a(S'tr_ll'
I0
tp210
a(S'tr_th'
I0
tp211
a(S'w'
I2194
tp212
a(S'p1_ll'
I0
tp213
a(S'w'
I5
tp214
a(S'p1_vo'
I7
tp215
a(S'w'
I11
tp216
a(S'w'
I1
tp217
a(S'p2_ll'
I0
tp218
a(S'w'
I5
tp219
a(S'p2_vo'
I7
tp220
a(S'w'
I13
tp221
a(S'tr_lh'
I1
tp222
a(S'tr_lr'
I127
tp223
a(S'tr_tl'
I167
tp224
a(S'w'
I1
tp225
a(S'tr_ll'
I31
tp226
a(S'tr_th'
I2
tp227
a(S'w'
I8764
tp228
a(S'p1_vo'
I6
tp229
a(S'w'
I7
tp230
a(S'p2_vo'
I6
tp231
a(S'w'
I6596
tp232
a(S'p1_vo'
I0
tp233
a(S'w'
I6
tp234
a(S'p2_vo'
I0
tp235
a(S'w'
I8
tp236
a(S'tr_lh'
I0
tp237
a(S'tr_lr'
I0
tp238
a(S'tr_tl'
I0
tp239
a(S'tr_ll'
I0
tp240
a(S'tr_th'
I0
tp241
a(S'w'
I2194
tp242
a(S'p1_tl'
I197
tp243
a(S'p1_ll'
I0
tp244
a(S'w'
I5
tp245
a(S'p1_vo'
I7
tp246
a(S'w'
I12
tp247
a(S'p2_tl'
I22
tp248
a(S'p2_ll'
I0
tp249
a(S'p2_th'
I2
tp250
a(S'w'
I5
tp251
a(S'p2_vo'
I7
tp252
a(S'w'
I13
tp253
a(S'tr_lh'
I1
tp254
a(S'tr_lr'
I127
tp255
a(S'w'
I1
tp256
a(S'tr_tl'
I167
tp257
a(S'tr_ll'
I31
tp258
a(S'tr_th'
I2
tp259
a(S'w'
I8764
tp260
a(S'p1_vo'
I6
tp261
a(S'w'
I7
tp262
a(S'p2_vo'
I6
tp263
a(S'w'
I8799
tp264
a(S'p1_vo'
I5
tp265
a(S'w'
I7
tp266
a(S'p2_vo'
I5
tp267
a(S'w'
I8799
tp268
a(S'p1_vo'
I4
tp269
a(S'w'
I7
tp270
a(S'p2_vo'
I4
tp271
a(S'w'
I8798
tp272
a(S'p1_vo'
I3
tp273
a(S'w'
I7
tp274
a(S'p2_vo'
I3
tp275
a(S'w'
I39630
tp276
a(S'tr_lh'
I0
tp277
a(S'tr_lr'
I0
tp278
a(S'tr_tl'
I0
tp279
a(S'tr_ll'
I0
tp280
a(S'tr_th'
I0
tp281
a(S'w'
I4394
tp282
a(S'p1_du'
I3
tp283
a(S'p1_vo'
I0
tp284
a(S'w'
I1
tp285
a(S'p1_tl'
I0
tp286
a(S'p1_ll'
I0
tp287
a(S'p1_th'
I0
tp288
a(S'w'
I10
tp289
a(S'p2_du'
I3
tp290
a(S'p2_vo'
I0
tp291
a(S'p2_tl'
I0
tp292
a(S'p2_ll'
I0
tp293
a(S'p2_th'
I0
tp294
a(S'w'
I13
tp295
a(S'tr_ll'
I0
tp296
a(S'w'
I1859
tp297
a.