(lp1
(S'clock'
p2
I1789772
tp3
a(S'p1_lh'
I1
tp4
a(S'p1_cv'
I1
tp5
a(S'p1_sp'
I7
tp6
a(S'p1_sn'
I1
tp7
a(S'p1_ss'
I7
tp8
a(S'p1_tl'
I190
tp9
a(S'p1_ll'
I24
tp10
a(S'p2_lh'
I1
tp11
a(S'p2_cv'
I1
tp12
a(S'p2_sp'
I7
tp13
a(S'p2_sn'
I1
tp14
a(S'p2_ss'
I7
tp15
a(S'p2_tl'
I190
tp16
a(S'p2_ll'
I24
tp17
a(S'tr_tl'
I125
tp18
a(S'tr_ll'
I24
tp19
a(S'tr_th'
I1
tp20
a(S'no_lh'
I1
tp21
a(S'no_cv'
I1
tp22
a(S'ch_no'
I1
tp23
a(S'ch_tr'
I1
tp24
a(S'ch_p2'
I1
tp25
a(S'ch_p1'
I1
tp26
a(S'fc_mo'
I1
tp27
a(S'p2_tl'
I50
tp28
a(S'p2_ll'
I24
tp29
a(S'w'
I1
tp30
a(S'p2_vo'
I15
tp31
a(S'w'
I3658
tp32
a(S'p2_lh'
I0
tp33
a(S'p2_vo'
I0
tp34
a(S'w'
I738
tp35
a(S'p2_tl'
I48
tp36
a(S'p2_ll'
I24
tp37
a(S'p2_lh'
I1
tp38
a(S'p2_vo'
I15
tp39
a(S'w'
I3665
tp40
a(S'p2_lh'
I0
tp41
a(S'p2_vo'
I0
tp42
a(S'w'
I738
tp43
a(S'p2_tl'
I57
tp44
a(S'p2_ll'
I24
tp45
a(S'p2_lh'
I1
tp46
a(S'p2_vo'
I15
tp47
a(S'w'
I2206
tp48
a(S'p1_tl'
I50
tp49
a(S'p1_ll'
I24
tp50
a(S'p1_vo'
I7
tp51
a(S'w'
I1459
tp52
a(S'p2_lh'
I0
tp53
a(S'p2_vo'
I0
tp54
a(S'w'
I737
tp55
a(S'p2_tl'
I50
tp56
a(S'w'
I1
tp57
a(S'p2_ll'
I24
tp58
a(S'p2_lh'
I1
tp59
a(S'p2_vo'
I15
tp60
a(S'w'
I1466
tp61
a(S'p1_lh'
I0
tp62
a(S'p1_vo'
I0
tp63
a(S'w'
I737
tp64
a(S'p1_tl'
I48
tp65
a(S'p1_ll'
I24
tp66
a(S'p1_lh'
I1
tp67
a(S'p1_vo'
I7
tp68
a(S'w'
I1462
tp69
a(S'p2_lh'
I0
tp70
a(S'p2_vo'
I0
tp71
a(S'w'
I737
tp72
a(S'p2_tl'
I64
tp73
a(S'p2_ll'
I24
tp74
a(S'w'
I1
tp75
a(S'p2_lh'
I1
tp76
a(S'p2_vo'
I15
tp77
a(S'w'
I1465
tp78
a(S'p1_lh'
I0
tp79
a(S'p1_vo'
I0
tp80
a(S'w'
I738
tp81
a(S'p1_tl'
I57
tp82
a(S'p1_ll'
I24
tp83
a(S'p1_lh'
I1
tp84
a(S'p1_vo'
I7
tp85
a(S'w'
I1462
tp86
a(S'p2_lh'
I0
tp87
a(S'p2_vo'
I0
tp88
a(S'w'
I737
tp89
a(S'p2_tl'
I57
tp90
a(S'p2_ll'
I24
tp91
a(S'w'
I1
tp92
a(S'p2_lh'
I1
tp93
a(S'p2_vo'
I15
tp94
a(S'w'
I1465
tp95
a(S'p1_lh'
I0
tp96
a(S'p1_vo'
I0
tp97
a(S'w'
I738
tp98
a(S'p1_tl'
I50
tp99
a(S'p1_ll'
I24
tp100
a(S'p1_lh'
I1
tp101
a(S'p1_vo'
I7
tp102
a(S'w'
I1462
tp103
a(S'p2_lh'
I0
tp104
a(S'p2_vo'
I0
tp105
a(S'w'
I737
tp106
a(S'p2_tl'
I67
tp107
a(S'p2_ll'
I24
tp108
a(S'p2_lh'
I1
tp109
a(S'p2_vo'
I15
tp110
a(S'w'
I1466
tp111
a(S'p1_lh'
I0
tp112
a(S'p1_vo'
I0
tp113
a(S'w'
I737
tp114
a(S'p1_tl'
I64
tp115
a(S'w'
I1
tp116
a(S'p1_ll'
I24
tp117
a(S'p1_lh'
I1
tp118
a(S'p1_vo'
I7
tp119
a(S'w'
I1461
tp120
a(S'p2_lh'
I0
tp121
a(S'p2_vo'
I0
tp122
a(S'w'
I738
tp123
a(S'p2_tl'
I64
tp124
a(S'p2_ll'
I24
tp125
a(S'p2_lh'
I1
tp126
a(S'p2_vo'
I15
tp127
a(S'w'
I1466
tp128
a(S'p1_lh'
I0
tp129
a(S'p1_vo'
I0
tp130
a(S'w'
I737
tp131
a(S'p1_tl'
I57
tp132
a(S'p1_ll'
I24
tp133
a(S'w'
I1
tp134
a(S'p1_lh'
I1
tp135
a(S'p1_vo'
I7
tp136
a(S'w'
I1461
tp137
a(S'p2_lh'
I0
tp138
a(S'p2_vo'
I0
tp139
a(S'w'
I738
tp140
a(S'p2_tl'
I76
tp141
a(S'p2_ll'
I24
tp142
a(S'p2_lh'
I1
tp143
a(S'p2_vo'
I15
tp144
a(S'w'
I1466
tp145
a(S'p1_lh'
I0
tp146
a(S'p1_vo'
I0
tp147
a(S'w'
I737
tp148
a(S'p1_tl'
I67
tp149
a(S'p1_ll'
I24
tp150
a(S'p1_lh'
I1
tp151
a(S'p1_vo'
I7
tp152
a(S'w'
I1462
tp153
a(S'p2_lh'
I0
tp154
a(S'p2_vo'
I0
tp155
a(S'w'
I737
tp156
a(S'p2_tl'
I67
tp157
a(S'w'
I1
tp158
a(S'p2_ll'
I24
tp159
a(S'p2_lh'
I1
tp160
a(S'p2_vo'
I15
tp161
a(S'w'
I1465
tp162
a(S'p1_lh'
I0
tp163
a(S'p1_vo'
I0
tp164
a(S'w'
I738
tp165
a(S'p1_tl'
I64
tp166
a(S'p1_ll'
I24
tp167
a(S'p1_lh'
I1
tp168
a(S'p1_vo'
I7
tp169
a(S'w'
I1462
tp170
a(S'p2_lh'
I0
tp171
a(S'p2_vo'
I0
tp172
a(S'w'
I737
tp173
a(S'p2_tl'
I85
tp174
a(S'p2_ll'
I24
tp175
a(S'w'
I1
tp176
a(S'p2_lh'
I1
tp177
a(S'p2_vo'
I15
tp178
a(S'w'
I1465
tp179
a(S'p1_lh'
I0
tp180
a(S'p1_vo'
I0
tp181
a(S'w'
I738
tp182
a(S'p1_tl'
I76
tp183
a(S'p1_ll'
I24
tp184
a(S'p1_lh'
I1
tp185
a(S'p1_vo'
I7
tp186
a(S'w'
I1462
tp187
a(S'p2_lh'
I0
tp188
a(S'p2_vo'
I0
tp189
a(S'w'
I737
tp190
a(S'p2_tl'
I76
tp191
a(S'p2_ll'
I24
tp192
a(S'p2_lh'
I1
tp193
a(S'p2_vo'
I15
tp194
a(S'w'
I1466
tp195
a(S'p1_lh'
I0
tp196
a(S'p1_vo'
I0
tp197
a(S'w'
I737
tp198
a(S'p1_tl'
I67
tp199
a(S'w'
I1
tp200
a(S'p1_ll'
I24
tp201
a(S'p1_lh'
I1
tp202
a(S'p1_vo'
I7
tp203
a(S'w'
I1461
tp204
a(S'p2_lh'
I0
tp205
a(S'p2_vo'
I0
tp206
a(S'w'
I738
tp207
a(S'p2_tl'
I95
tp208
a(S'p2_ll'
I24
tp209
a(S'p2_lh'
I1
tp210
a(S'p2_vo'
I15
tp211
a(S'w'
I1466
tp212
a(S'p1_lh'
I0
tp213
a(S'p1_vo'
I0
tp214
a(S'w'
I737
tp215
a(S'p1_tl'
I85
tp216
a(S'p1_ll'
I24
tp217
a(S'w'
I1
tp218
a(S'p1_lh'
I1
tp219
a(S'p1_vo'
I7
tp220
a(S'w'
I1461
tp221
a(S'p2_lh'
I0
tp222
a(S'p2_vo'
I0
tp223
a(S'w'
I738
tp224
a(S'p2_tl'
I85
tp225
a(S'p2_ll'
I24
tp226
a(S'p2_lh'
I1
tp227
a(S'p2_vo'
I15
tp228
a(S'w'
I1466
tp229
a(S'p1_lh'
I0
tp230
a(S'p1_vo'
I0
tp231
a(S'w'
I737
tp232
a(S'p1_tl'
I76
tp233
a(S'p1_ll'
I24
tp234
a(S'p1_lh'
I1
tp235
a(S'p1_vo'
I7
tp236
a(S'w'
I1462
tp237
a(S'p2_lh'
I0
tp238
a(S'p2_vo'
I0
tp239
a(S'w'
I737
tp240
a(S'p2_tl'
I101
tp241
a(S'w'
I1
tp242
a(S'p2_ll'
I24
tp243
a(S'p2_lh'
I1
tp244
a(S'p2_vo'
I15
tp245
a(S'w'
I1465
tp246
a(S'p1_lh'
I0
tp247
a(S'p1_vo'
I0
tp248
a(S'w'
I738
tp249
a(S'p1_tl'
I95
tp250
a(S'p1_ll'
I24
tp251
a(S'p1_lh'
I1
tp252
a(S'p1_vo'
I7
tp253
a(S'w'
I1462
tp254
a(S'p2_lh'
I0
tp255
a(S'p2_vo'
I0
tp256
a(S'w'
I737
tp257
a(S'p2_tl'
I95
tp258
a(S'p2_ll'
I24
tp259
a(S'w'
I1
tp260
a(S'p2_lh'
I1
tp261
a(S'p2_vo'
I15
tp262
a(S'w'
I1465
tp263
a(S'p1_lh'
I0
tp264
a(S'p1_vo'
I0
tp265
a(S'w'
I738
tp266
a(S'p1_tl'
I85
tp267
a(S'p1_ll'
I24
tp268
a(S'p1_lh'
I1
tp269
a(S'p1_vo'
I7
tp270
a(S'w'
I1462
tp271
a(S'p2_lh'
I0
tp272
a(S'p2_vo'
I0
tp273
a(S'w'
I740
tp274
a(S'p2_tl'
I50
tp275
a(S'p2_ll'
I24
tp276
a(S'p2_lh'
I1
tp277
a(S'p2_vo'
I15
tp278
a(S'w'
I1463
tp279
a(S'p1_lh'
I0
tp280
a(S'p1_vo'
I0
tp281
a(S'w'
I737
tp282
a(S'p1_tl'
I101
tp283
a(S'w'
I1
tp284
a(S'p1_ll'
I24
tp285
a(S'p1_lh'
I1
tp286
a(S'p1_vo'
I7
tp287
a(S'w'
I1462
tp288
a(S'p2_lh'
I0
tp289
a(S'p2_vo'
I0
tp290
a(S'w'
I737
tp291
a(S'p2_tl'
I48
tp292
a(S'p2_ll'
I24
tp293
a(S'p2_lh'
I1
tp294
a(S'p2_vo'
I15
tp295
a(S'w'
I1466
tp296
a(S'p1_lh'
I0
tp297
a(S'p1_vo'
I0
tp298
a(S'w'
I737
tp299
a(S'p1_tl'
I95
tp300
a(S'p1_ll'
I24
tp301
a(S'w'
I1
tp302
a(S'p1_lh'
I1
tp303
a(S'p1_vo'
I7
tp304
a(S'w'
I1461
tp305
a(S'p2_lh'
I0
tp306
a(S'p2_vo'
I0
tp307
a(S'w'
I738
tp308
a(S'p2_tl'
I57
tp309
a(S'p2_ll'
I24
tp310
a(S'p2_lh'
I1
tp311
a(S'p2_vo'
I15
tp312
a(S'w'
I1466
tp313
a(S'p1_lh'
I0
tp314
a(S'p1_vo'
I0
tp315
a(S'w'
I740
tp316
a.