(lp1
(S'clock'
p2
I1789772
tp3
a(S'ch_no'
I1
tp4
a(S'ch_tr'
I1
tp5
a(S'ch_p2'
I1
tp6
a(S'ch_p1'
I1
tp7
a(S'fc_mo'
I1
tp8
a(S'p1_lh'
I1
tp9
a(S'p1_cv'
I1
tp10
a(S'w'
I730
tp11
a(S'tr_tl'
I64
tp12
a(S'w'
I1
tp13
a(S'tr_ll'
I24
tp14
a(S'tr_th'
I1
tp15
a(S'tr_lh'
I1
tp16
a(S'tr_lr'
I127
tp17
a(S'w'
I13
tp18
a(S'p2_sp'
I7
tp19
a(S'p2_sn'
I1
tp20
a(S'p2_ss'
I7
tp21
a(S'p2_tl'
I129
tp22
a(S'p2_ll'
I24
tp23
a(S'p2_th'
I2
tp24
a(S'p2_lh'
I1
tp25
a(S'p2_cv'
I1
tp26
a(S'p2_vo'
I11
tp27
a(S'w'
I722
tp28
a(S'no_np'
I3
tp29
a(S'w'
I1
tp30
a(S'no_ll'
I24
tp31
a(S'no_lh'
I1
tp32
a(S'no_cv'
I1
tp33
a(S'no_vo'
I15
tp34
a(S'w'
I724
tp35
a(S'no_lh'
I0
tp36
a(S'no_vo'
I0
tp37
a(S'w'
I2212
tp38
a(S'p1_sp'
I7
tp39
a(S'p1_sn'
I1
tp40
a(S'p1_ss'
I7
tp41
a(S'p1_tl'
I1
tp42
a(S'p1_ll'
I24
tp43
a(S'p1_th'
I5
tp44
a(S'p1_vo'
I11
tp45
a(S'w'
I3660
tp46
a(S'tr_lh'
I0
tp47
a(S'tr_lr'
I0
tp48
a(S'w'
I1472
tp49
a(S'tr_tl'
I214
tp50
a(S'tr_ll'
I24
tp51
a(S'tr_th'
I0
tp52
a(S'tr_lh'
I1
tp53
a(S'tr_lr'
I127
tp54
a(S'w'
I731
tp55
a(S'no_ll'
I24
tp56
a(S'w'
I1
tp57
a(S'no_lh'
I1
tp58
a(S'no_vo'
I15
tp59
a(S'w'
I730
tp60
a(S'no_lh'
I0
tp61
a(S'no_vo'
I0
tp62
a(S'w'
I5880
tp63
a(S'tr_lh'
I0
tp64
a(S'tr_lr'
I0
tp65
a(S'w'
I1471
tp66
a(S'tr_tl'
I226
tp67
a(S'tr_ll'
I24
tp68
a(S'w'
I1
tp69
a(S'tr_lh'
I1
tp70
a(S'tr_lr'
I127
tp71
a(S'w'
I9
tp72
a(S'w'
I1
tp73
a(S'p2_ll'
I24
tp74
a(S'p2_vo'
I7
tp75
a(S'w'
I721
tp76
a(S'no_np'
I8
tp77
a(S'no_ll'
I24
tp78
a(S'no_lh'
I1
tp79
a(S'no_vo'
I11
tp80
a(S'w'
I2942
tp81
a(S'p1_ll'
I24
tp82
a(S'w'
I1
tp83
a(S'p1_vo'
I7
tp84
a(S'w'
I2924
tp85
a(S'no_lh'
I0
tp86
a(S'no_vo'
I0
tp87
a(S'w'
I736
tp88
a(S'tr_lh'
I0
tp89
a(S'tr_lr'
I0
tp90
a(S'w'
I1471
tp91
a(S'tr_tl'
I64
tp92
a(S'tr_ll'
I24
tp93
a(S'tr_th'
I1
tp94
a(S'tr_lh'
I1
tp95
a(S'tr_lr'
I127
tp96
a(S'w'
I10
tp97
a(S'p2_ll'
I24
tp98
a(S'w'
I1
tp99
a(S'p2_vo'
I3
tp100
a(S'w'
I720
tp101
a(S'no_np'
I3
tp102
a(S'w'
I1
tp103
a(S'no_ll'
I24
tp104
a(S'no_lh'
I1
tp105
a(S'no_vo'
I15
tp106
a(S'w'
I730
tp107
a(S'no_lh'
I0
tp108
a(S'no_vo'
I0
tp109
a(S'w'
I2212
tp110
a(S'p1_ll'
I24
tp111
a(S'p1_vo'
I3
tp112
a(S'w'
I3660
tp113
a(S'tr_lh'
I0
tp114
a(S'tr_lr'
I0
tp115
a(S'w'
I1471
tp116
a(S'tr_tl'
I29
tp117
a(S'w'
I1
tp118
a(S'tr_ll'
I24
tp119
a(S'tr_lh'
I1
tp120
a(S'tr_lr'
I127
tp121
a(S'w'
I10
tp122
a(S'p2_tl'
I59
tp123
a(S'p2_ll'
I24
tp124
a(S'p2_vo'
I11
tp125
a(S'w'
I723
tp126
a(S'w'
I1
tp127
a(S'no_ll'
I24
tp128
a(S'no_lh'
I1
tp129
a(S'no_vo'
I15
tp130
a(S'w'
I727
tp131
a(S'no_lh'
I0
tp132
a(S'no_vo'
I0
tp133
a(S'w'
I2212
tp134
a(S'p1_tl'
I117
tp135
a(S'p1_ll'
I24
tp136
a(S'p1_th'
I4
tp137
a(S'w'
I1
tp138
a(S'p1_vo'
I11
tp139
a(S'w'
I3660
tp140
a(S'tr_lh'
I0
tp141
a(S'tr_lr'
I0
tp142
a(S'w'
I1471
tp143
a(S'tr_tl'
I190
tp144
a(S'tr_ll'
I24
tp145
a(S'tr_th'
I0
tp146
a(S'tr_lh'
I1
tp147
a(S'tr_lr'
I127
tp148
a(S'w'
I732
tp149
a(S'no_ll'
I24
tp150
a(S'no_lh'
I1
tp151
a(S'no_vo'
I15
tp152
a(S'w'
I730
tp153
a(S'no_lh'
I0
tp154
a(S'no_vo'
I0
tp155
a(S'w'
I5872
tp156
a(S'tr_lh'
I0
tp157
a(S'tr_lr'
I0
tp158
a(S'w'
I1472
tp159
a(S'tr_tl'
I226
tp160
a(S'tr_ll'
I24
tp161
a(S'tr_lh'
I1
tp162
a(S'tr_lr'
I127
tp163
a(S'w'
I10
tp164
a(S'p2_ll'
I24
tp165
a(S'p2_vo'
I7
tp166
a(S'w'
I721
tp167
a(S'no_np'
I8
tp168
a(S'no_ll'
I24
tp169
a(S'w'
I1
tp170
a(S'no_lh'
I1
tp171
a(S'no_vo'
I11
tp172
a(S'w'
I2942
tp173
a(S'p1_ll'
I24
tp174
a(S'p1_vo'
I7
tp175
a(S'w'
I2924
tp176
a(S'no_lh'
I0
tp177
a(S'no_vo'
I0
tp178
a(S'w'
I736
tp179
a(S'tr_lh'
I0
tp180
a(S'tr_lr'
I0
tp181
a(S'w'
I1471
tp182
a(S'tr_tl'
I29
tp183
a(S'tr_ll'
I24
tp184
a(S'tr_th'
I1
tp185
a(S'w'
I1
tp186
a(S'tr_lh'
I1
tp187
a(S'tr_lr'
I127
tp188
a(S'w'
I10
tp189
a(S'p2_ll'
I24
tp190
a(S'p2_vo'
I3
tp191
a(S'w'
I721
tp192
a(S'no_np'
I3
tp193
a(S'no_ll'
I24
tp194
a(S'no_lh'
I1
tp195
a(S'no_vo'
I15
tp196
a(S'w'
I730
tp197
a(S'no_lh'
I0
tp198
a(S'no_vo'
I0
tp199
a(S'w'
I2212
tp200
a(S'p1_ll'
I24
tp201
a(S'p1_vo'
I3
tp202
a(S'w'
I3661
tp203
a(S'tr_lh'
I0
tp204
a(S'tr_lr'
I0
tp205
a(S'w'
I1471
tp206
a(S'tr_tl'
I254
tp207
a(S'tr_ll'
I24
tp208
a(S'tr_th'
I0
tp209
a(S'tr_lh'
I1
tp210
a(S'tr_lr'
I127
tp211
a(S'w'
I10
tp212
a(S'p2_tl'
I252
tp213
a(S'p2_ll'
I24
tp214
a(S'p2_th'
I1
tp215
a(S'w'
I1
tp216
a(S'p2_vo'
I11
tp217
a(S'w'
I725
tp218
a(S'no_np'
I8
tp219
a(S'no_ll'
I24
tp220
a(S'no_lh'
I1
tp221
a(S'no_vo'
I11
tp222
a(S'w'
I726
tp223
a(S'no_lh'
I0
tp224
a(S'no_vo'
I0
tp225
a(S'w'
I1473
tp226
a(S'w'
I1
tp227
a(S'no_ll'
I24
tp228
a(S'no_lh'
I1
tp229
a(S'no_vo'
I11
tp230
a(S'w'
I727
tp231
a(S'no_lh'
I0
tp232
a(S'no_vo'
I0
tp233
a(S'w'
I14
tp234
a(S'p1_tl'
I249
tp235
a(S'p1_ll'
I24
tp236
a(S'p1_th'
I3
tp237
a(S'p1_vo'
I11
tp238
a(S'w'
I1460
tp239
a(S'no_ll'
I24
tp240
a(S'no_lh'
I1
tp241
a(S'no_vo'
I11
tp242
a(S'w'
I728
tp243
a(S'no_lh'
I0
tp244
a(S'no_vo'
I0
tp245
a(S'w'
I1473
tp246
a(S'no_ll'
I24
tp247
a(S'w'
I1
tp248
a(S'no_lh'
I1
tp249
a(S'no_vo'
I11
tp250
a(S'w'
I727
tp251
a(S'no_lh'
I0
tp252
a(S'no_vo'
I0
tp253
a(S'w'
I1474
tp254
a(S'no_ll'
I24
tp255
a(S'no_lh'
I1
tp256
a(S'no_vo'
I11
tp257
a(S'w'
I728
tp258
a(S'no_lh'
I0
tp259
a(S'no_vo'
I0
tp260
a(S'w'
I1473
tp261
a(S'no_ll'
I24
tp262
a(S'no_lh'
I1
tp263
a(S'no_vo'
I11
tp264
a(S'w'
I728
tp265
a(S'no_lh'
I0
tp266
a(S'no_vo'
I0
tp267
a(S'w'
I1473
tp268
a(S'no_ll'
I24
tp269
a(S'w'
I1
tp270
a(S'no_lh'
I1
tp271
a(S'no_vo'
I11
tp272
a(S'w'
I727
tp273
a(S'no_lh'
I0
tp274
a(S'no_vo'
I0
tp275
a(S'w'
I1474
tp276
a(S'no_ll'
I24
tp277
a(S'no_lh'
I1
tp278
a(S'no_vo'
I11
tp279
a(S'w'
I728
tp280
a(S'no_lh'
I0
tp281
a(S'no_vo'
I0
tp282
a(S'w'
I1473
tp283
a(S'no_ll'
I24
tp284
a(S'w'
I1
tp285
a(S'no_lh'
I1
tp286
a(S'no_vo'
I11
tp287
a(S'w'
I727
tp288
a(S'no_lh'
I0
tp289
a(S'no_vo'
I0
tp290
a(S'w'
I1474
tp291
a(S'no_ll'
I24
tp292
a(S'no_lh'
I1
tp293
a(S'no_vo'
I11
tp294
a(S'w'
I728
tp295
a(S'no_lh'
I0
tp296
a(S'no_vo'
I0
tp297
a(S'w'
I1473
tp298
a(S'no_ll'
I24
tp299
a(S'no_lh'
I1
tp300
a(S'no_vo'
I11
tp301
a(S'w'
I728
tp302
a(S'no_lh'
I0
tp303
a(S'no_vo'
I0
tp304
a(S'w'
I1473
tp305
a(S'w'
I1
tp306
a(S'no_ll'
I24
tp307
a(S'no_lh'
I1
tp308
a(S'no_vo'
I11
tp309
a(S'w'
I727
tp310
a(S'no_lh'
I0
tp311
a(S'no_vo'
I0
tp312
a(S'w'
I1474
tp313
a(S'no_ll'
I24
tp314
a(S'no_lh'
I1
tp315
a(S'no_vo'
I11
tp316
a(S'w'
I728
tp317
a(S'no_lh'
I0
tp318
a(S'no_vo'
I0
tp319
a(S'w'
I1473
tp320
a(S'no_ll'
I24
tp321
a(S'w'
I1
tp322
a(S'no_lh'
I1
tp323
a(S'no_vo'
I11
tp324
a(S'w'
I727
tp325
a(S'no_lh'
I0
tp326
a(S'no_vo'
I0
tp327
a(S'w'
I1474
tp328
a(S'no_ll'
I24
tp329
a(S'no_lh'
I1
tp330
a(S'no_vo'
I11
tp331
a(S'w'
I728
tp332
a(S'no_lh'
I0
tp333
a(S'no_vo'
I0
tp334
a(S'w'
I1473
tp335
a(S'no_ll'
I24
tp336
a(S'no_lh'
I1
tp337
a(S'no_vo'
I11
tp338
a(S'w'
I728
tp339
a(S'no_lh'
I0
tp340
a(S'no_vo'
I0
tp341
a(S'w'
I742
tp342
a(S'p2_ll'
I24
tp343
a(S'p2_vo'
I7
tp344
a(S'w'
I727
tp345
a(S'no_lh'
I1
tp346
a(S'w'
I2986
tp347
a(S'p1_ll'
I24
tp348
a(S'w'
I1
tp349
a(S'p1_vo'
I7
tp350
a(S'w'
I13940
tp351
a(S'p2_ll'
I24
tp352
a(S'p2_vo'
I3
tp353
a(S'w'
I3666
tp354
a(S'w'
I1
tp355
a(S'p1_ll'
I24
tp356
a(S'p1_vo'
I3
tp357
a(S'w'
I13934
tp358
a(S'tr_lh'
I0
tp359
a(S'tr_lr'
I0
tp360
a(S'w'
I7
tp361
a(S'p2_vo'
I0
tp362
a(S'w'
I3669
tp363
a(S'p1_vo'
I0
tp364
a(S'w'
I1
tp365
a.