(lp1
(S'clock'
p2
I1789772
tp3
a(S'ch_no'
I1
tp4
a(S'ch_tr'
I1
tp5
a(S'ch_p2'
I1
tp6
a(S'ch_p1'
I1
tp7
a(S'fc_mo'
I1
tp8
a(S'p1_lh'
I1
tp9
a(S'p1_cv'
I1
tp10
a(S'w'
I734
tp11
a(S'p2_sp'
I7
tp12
a(S'p2_sn'
I1
tp13
a(S'p2_ss'
I7
tp14
a(S'p2_tl'
I172
tp15
a(S'p2_ll'
I24
tp16
a(S'p2_th'
I1
tp17
a(S'w'
I1
tp18
a(S'p2_du'
I2
tp19
a(S'p2_lh'
I1
tp20
a(S'p2_cv'
I1
tp21
a(S'p2_vo'
I15
tp22
a(S'w'
I1463
tp23
a(S'w'
I1
tp24
a(S'p2_ll'
I24
tp25
a(S'p2_vo'
I7
tp26
a(S'w'
I1463
tp27
a(S'p2_lh'
I0
tp28
a(S'p2_vo'
I0
tp29
a(S'w'
I738
tp30
a(S'p2_tl'
I104
tp31
a(S'p2_ll'
I24
tp32
a(S'p2_lh'
I1
tp33
a(S'p2_vo'
I15
tp34
a(S'w'
I1467
tp35
a(S'w'
I1
tp36
a(S'p2_ll'
I24
tp37
a(S'p2_vo'
I7
tp38
a(S'w'
I1463
tp39
a(S'p2_lh'
I0
tp40
a(S'p2_vo'
I0
tp41
a(S'w'
I738
tp42
a(S'p2_tl'
I46
tp43
a(S'p2_ll'
I24
tp44
a(S'p2_lh'
I1
tp45
a(S'p2_vo'
I15
tp46
a(S'w'
I750
tp47
a(S'p1_sp'
I7
tp48
a(S'p1_sn'
I1
tp49
a(S'p1_ss'
I7
tp50
a(S'p1_tl'
I172
tp51
a(S'p1_ll'
I24
tp52
a(S'p1_th'
I1
tp53
a(S'p1_du'
I2
tp54
a(S'p1_vo'
I11
tp55
a(S'w'
I717
tp56
a(S'w'
I1
tp57
a(S'p2_ll'
I24
tp58
a(S'p2_vo'
I7
tp59
a(S'w'
I735
tp60
a(S'p1_ll'
I24
tp61
a(S'w'
I1
tp62
a(S'p1_vo'
I3
tp63
a(S'w'
I727
tp64
a(S'p2_lh'
I0
tp65
a(S'p2_vo'
I0
tp66
a(S'w'
I738
tp67
a(S'p2_tl'
I254
tp68
a(S'p2_ll'
I24
tp69
a(S'p2_th'
I0
tp70
a(S'p2_lh'
I1
tp71
a(S'p2_vo'
I15
tp72
a(S'w'
I6
tp73
a(S'p1_lh'
I0
tp74
a(S'p1_vo'
I0
tp75
a(S'w'
I730
tp76
a(S'p1_tl'
I104
tp77
a(S'p1_ll'
I24
tp78
a(S'p1_lh'
I1
tp79
a(S'p1_vo'
I11
tp80
a(S'w'
I731
tp81
a(S'w'
I1
tp82
a(S'p2_ll'
I24
tp83
a(S'p2_vo'
I7
tp84
a(S'w'
I735
tp85
a(S'p1_ll'
I24
tp86
a(S'w'
I1
tp87
a(S'p1_vo'
I3
tp88
a(S'w'
I728
tp89
a(S'p2_lh'
I0
tp90
a(S'p2_vo'
I0
tp91
a(S'w'
I743
tp92
a(S'p2_du'
I0
tp93
a(S'p2_lh'
I1
tp94
a(S'w'
I5
tp95
a(S'p1_lh'
I0
tp96
a(S'p1_vo'
I0
tp97
a(S'w'
I732
tp98
a(S'p1_tl'
I46
tp99
a(S'p1_ll'
I24
tp100
a(S'w'
I1
tp101
a(S'p1_lh'
I1
tp102
a(S'p1_vo'
I11
tp103
a(S'w'
I1467
tp104
a(S'p1_ll'
I24
tp105
a(S'p1_vo'
I3
tp106
a(S'w'
I732
tp107
a(S'p2_tl'
I214
tp108
a(S'p2_ll'
I24
tp109
a(S'p2_du'
I2
tp110
a(S'p2_vo'
I15
tp111
a(S'w'
I732
tp112
a(S'p1_lh'
I0
tp113
a(S'p1_vo'
I0
tp114
a(S'w'
I735
tp115
a(S'w'
I1
tp116
a(S'p2_ll'
I24
tp117
a(S'p2_vo'
I7
tp118
a(S'w'
I9
tp119
a(S'p1_tl'
I254
tp120
a(S'p1_ll'
I24
tp121
a(S'p1_th'
I0
tp122
a(S'w'
I1
tp123
a(S'p1_lh'
I1
tp124
a(S'p1_vo'
I11
tp125
a(S'w'
I1454
tp126
a(S'p2_lh'
I0
tp127
a(S'p2_vo'
I0
tp128
a(S'w'
I8
tp129
a(S'w'
I1
tp130
a(S'p1_ll'
I24
tp131
a(S'p1_vo'
I3
tp132
a(S'w'
I728
tp133
a(S'p2_tl'
I180
tp134
a(S'p2_ll'
I24
tp135
a(S'p2_lh'
I1
tp136
a(S'p2_vo'
I15
tp137
a(S'w'
I732
tp138
a(S'p1_lh'
I0
tp139
a(S'p1_vo'
I0
tp140
a(S'w'
I736
tp141
a(S'p2_ll'
I24
tp142
a(S'p2_vo'
I7
tp143
a(S'w'
I7
tp144
a(S'p1_du'
I0
tp145
a(S'p1_lh'
I1
tp146
a(S'w'
I1457
tp147
a(S'p2_lh'
I0
tp148
a(S'p2_vo'
I0
tp149
a(S'w'
I737
tp150
a(S'p2_tl'
I151
tp151
a(S'p2_ll'
I24
tp152
a(S'p2_lh'
I1
tp153
a(S'p2_vo'
I15
tp154
a(S'w'
I736
tp155
a(S'p1_tl'
I214
tp156
a(S'p1_ll'
I24
tp157
a(S'p1_du'
I2
tp158
a(S'p1_vo'
I11
tp159
a(S'w'
I732
tp160
a(S'p2_ll'
I24
tp161
a(S'p2_vo'
I7
tp162
a(S'w'
I735
tp163
a(S'w'
I1
tp164
a(S'p1_ll'
I24
tp165
a(S'p1_vo'
I3
tp166
a(S'w'
I728
tp167
a(S'p2_lh'
I0
tp168
a(S'p2_vo'
I0
tp169
a(S'w'
I737
tp170
a(S'p2_tl'
I127
tp171
a(S'p2_ll'
I24
tp172
a(S'p2_lh'
I1
tp173
a(S'p2_vo'
I15
tp174
a(S'w'
I6
tp175
a(S'p1_lh'
I0
tp176
a(S'p1_vo'
I0
tp177
a(S'w'
I730
tp178
a(S'p1_tl'
I180
tp179
a(S'p1_ll'
I24
tp180
a(S'p1_lh'
I1
tp181
a(S'p1_vo'
I11
tp182
a(S'w'
I732
tp183
a(S'p2_ll'
I24
tp184
a(S'p2_vo'
I7
tp185
a(S'w'
I735
tp186
a(S'w'
I1
tp187
a(S'p1_ll'
I24
tp188
a(S'p1_vo'
I3
tp189
a(S'w'
I728
tp190
a(S'p2_lh'
I0
tp191
a(S'p2_vo'
I0
tp192
a(S'w'
I735
tp193
a(S'p2_du'
I0
tp194
a(S'p2_lh'
I1
tp195
a(S'w'
I6
tp196
a(S'p1_lh'
I0
tp197
a(S'p1_vo'
I0
tp198
a(S'w'
I732
tp199
a(S'p1_tl'
I151
tp200
a(S'p1_ll'
I24
tp201
a(S'p1_lh'
I1
tp202
a(S'p1_vo'
I11
tp203
a(S'w'
I1467
tp204
a(S'p1_ll'
I24
tp205
a(S'w'
I1
tp206
a(S'p1_vo'
I3
tp207
a(S'w'
I731
tp208
a(S'p2_tl'
I107
tp209
a(S'p2_ll'
I24
tp210
a(S'w'
I1
tp211
a(S'p2_du'
I2
tp212
a(S'p2_vo'
I15
tp213
a(S'w'
I731
tp214
a(S'p1_lh'
I0
tp215
a(S'p1_vo'
I0
tp216
a(S'w'
I736
tp217
a(S'p2_ll'
I24
tp218
a(S'p2_vo'
I7
tp219
a(S'w'
I10
tp220
a(S'p1_tl'
I127
tp221
a(S'p1_ll'
I24
tp222
a(S'p1_lh'
I1
tp223
a(S'p1_vo'
I11
tp224
a(S'w'
I1454
tp225
a(S'p2_lh'
I0
tp226
a(S'p2_vo'
I0
tp227
a(S'w'
I9
tp228
a(S'p1_ll'
I24
tp229
a(S'p1_vo'
I3
tp230
a(S'w'
I728
tp231
a(S'p2_tl'
I90
tp232
a(S'p2_ll'
I24
tp233
a(S'w'
I1
tp234
a(S'p2_lh'
I1
tp235
a(S'p2_vo'
I15
tp236
a(S'w'
I731
tp237
a(S'p1_lh'
I0
tp238
a(S'p1_vo'
I0
tp239
a(S'w'
I736
tp240
a(S'p2_ll'
I24
tp241
a(S'p2_vo'
I7
tp242
a(S'w'
I7
tp243
a(S'p1_du'
I0
tp244
a(S'p1_lh'
I1
tp245
a(S'w'
I1457
tp246
a(S'p2_lh'
I0
tp247
a(S'p2_vo'
I0
tp248
a(S'w'
I737
tp249
a(S'p2_tl'
I76
tp250
a(S'p2_ll'
I24
tp251
a(S'w'
I1
tp252
a(S'p2_lh'
I1
tp253
a(S'p2_vo'
I15
tp254
a(S'w'
I735
tp255
a(S'p1_tl'
I107
tp256
a(S'p1_ll'
I24
tp257
a(S'p1_du'
I2
tp258
a(S'p1_vo'
I11
tp259
a(S'w'
I732
tp260
a(S'p2_ll'
I24
tp261
a(S'p2_vo'
I7
tp262
a(S'w'
I736
tp263
a(S'p1_ll'
I24
tp264
a(S'p1_vo'
I3
tp265
a(S'w'
I728
tp266
a(S'p2_lh'
I0
tp267
a(S'p2_vo'
I0
tp268
a(S'w'
I737
tp269
a(S'p2_tl'
I64
tp270
a(S'p2_ll'
I24
tp271
a(S'w'
I1
tp272
a(S'p2_lh'
I1
tp273
a(S'p2_vo'
I15
tp274
a(S'w'
I5
tp275
a(S'p1_lh'
I0
tp276
a(S'p1_vo'
I0
tp277
a(S'w'
I730
tp278
a(S'p1_tl'
I90
tp279
a(S'p1_ll'
I24
tp280
a(S'p1_lh'
I1
tp281
a(S'p1_vo'
I11
tp282
a(S'w'
I732
tp283
a(S'p2_ll'
I24
tp284
a(S'p2_vo'
I7
tp285
a(S'w'
I736
tp286
a(S'p1_ll'
I24
tp287
a(S'p1_vo'
I3
tp288
a(S'w'
I728
tp289
a(S'p2_lh'
I0
tp290
a(S'p2_vo'
I0
tp291
a(S'w'
I735
tp292
a(S'p2_du'
I0
tp293
a(S'p2_lh'
I1
tp294
a(S'w'
I6
tp295
a(S'p1_lh'
I0
tp296
a(S'p1_vo'
I0
tp297
a(S'w'
I732
tp298
a(S'p1_tl'
I76
tp299
a(S'p1_ll'
I24
tp300
a(S'p1_lh'
I1
tp301
a(S'p1_vo'
I11
tp302
a(S'w'
I1467
tp303
a(S'w'
I1
tp304
a(S'p1_ll'
I24
tp305
a(S'p1_vo'
I3
tp306
a(S'w'
I731
tp307
a(S'p2_tl'
I53
tp308
a(S'w'
I1
tp309
a(S'p2_ll'
I24
tp310
a(S'p2_du'
I2
tp311
a(S'p2_vo'
I15
tp312
a(S'w'
I732
tp313
a(S'p1_lh'
I0
tp314
a(S'p1_vo'
I0
tp315
a(S'w'
I735
tp316
a(S'p2_ll'
I24
tp317
a(S'p2_vo'
I7
tp318
a(S'w'
I10
tp319
a(S'p1_tl'
I64
tp320
a(S'p1_ll'
I24
tp321
a(S'p1_lh'
I1
tp322
a(S'p1_vo'
I11
tp323
a(S'w'
I1454
tp324
a(S'p2_lh'
I0
tp325
a(S'p2_vo'
I0
tp326
a(S'w'
I9
tp327
a(S'p1_ll'
I24
tp328
a(S'p1_vo'
I3
tp329
a(S'w'
I728
tp330
a(S'p2_tl'
I45
tp331
a(S'w'
I1
tp332
a(S'p2_ll'
I24
tp333
a(S'p2_lh'
I1
tp334
a(S'p2_vo'
I15
tp335
a(S'w'
I732
tp336
a(S'p1_lh'
I0
tp337
a(S'p1_vo'
I0
tp338
a(S'w'
I735
tp339
a(S'p2_ll'
I24
tp340
a(S'p2_vo'
I7
tp341
a(S'w'
I8
tp342
a(S'p1_du'
I0
tp343
a(S'p1_lh'
I1
tp344
a(S'w'
I1456
tp345
a(S'p2_lh'
I0
tp346
a(S'p2_vo'
I0
tp347
a(S'w'
I737
tp348
a(S'p2_tl'
I38
tp349
a(S'w'
I1
tp350
a(S'p2_ll'
I24
tp351
a(S'p2_lh'
I1
tp352
a(S'p2_vo'
I15
tp353
a(S'w'
I735
tp354
a(S'p1_tl'
I53
tp355
a(S'p1_ll'
I24
tp356
a(S'w'
I1
tp357
a(S'p1_du'
I2
tp358
a(S'p1_vo'
I11
tp359
a(S'w'
I731
tp360
a(S'p2_ll'
I24
tp361
a(S'p2_vo'
I7
tp362
a(S'w'
I736
tp363
a(S'p1_ll'
I24
tp364
a(S'p1_vo'
I3
tp365
a(S'w'
I728
tp366
a(S'p2_lh'
I0
tp367
a(S'p2_vo'
I0
tp368
a(S'w'
I737
tp369
a(S'p2_tl'
I32
tp370
a(S'w'
I1
tp371
a(S'p2_ll'
I24
tp372
a(S'p2_lh'
I1
tp373
a(S'p2_vo'
I15
tp374
a(S'w'
I6
tp375
a(S'p1_lh'
I0
tp376
a(S'p1_vo'
I0
tp377
a(S'w'
I729
tp378
a(S'p1_tl'
I45
tp379
a(S'p1_ll'
I24
tp380
a(S'w'
I1
tp381
a(S'p1_lh'
I1
tp382
a(S'p1_vo'
I11
tp383
a(S'w'
I731
tp384
a(S'p2_ll'
I24
tp385
a(S'p2_vo'
I7
tp386
a(S'w'
I736
tp387
a(S'p1_ll'
I24
tp388
a(S'p1_vo'
I3
tp389
a(S'w'
I728
tp390
a(S'p2_lh'
I0
tp391
a(S'p2_vo'
I0
tp392
a(S'w'
I735
tp393
a(S'p2_du'
I0
tp394
a(S'p2_lh'
I1
tp395
a(S'w'
I6
tp396
a(S'p1_lh'
I0
tp397
a(S'p1_vo'
I0
tp398
a(S'w'
I731
tp399
a(S'p1_tl'
I38
tp400
a(S'w'
I1
tp401
a(S'p1_ll'
I24
tp402
a(S'p1_lh'
I1
tp403
a(S'p1_vo'
I11
tp404
a(S'w'
I1467
tp405
a(S'p1_ll'
I24
tp406
a(S'w'
I1
tp407
a(S'p1_vo'
I3
tp408
a(S'w'
I1463
tp409
a(S'p1_lh'
I0
tp410
a(S'p1_vo'
I0
tp411
a(S'w'
I737
tp412
a(S'p1_tl'
I32
tp413
a(S'w'
I1
tp414
a(S'p1_ll'
I24
tp415
a(S'p1_lh'
I1
tp416
a(S'p1_vo'
I11
tp417
a(S'w'
I1467
tp418
a(S'p1_ll'
I24
tp419
a(S'w'
I1
tp420
a(S'p1_vo'
I3
tp421
a(S'w'
I1463
tp422
a(S'p1_lh'
I0
tp423
a(S'p1_vo'
I0
tp424
a(S'w'
I735
tp425
a(S'p1_du'
I0
tp426
a(S'p1_lh'
I1
tp427
a(S'w'
I1
tp428
a.