(lp1
(S'clock'
p2
I1789772
tp3
a(S'ch_no'
I1
tp4
a(S'ch_tr'
I1
tp5
a(S'ch_p2'
I1
tp6
a(S'ch_p1'
I1
tp7
a(S'fc_mo'
I1
tp8
a(S'p1_lh'
I1
tp9
a(S'p1_cv'
I1
tp10
a(S'w'
I730
tp11
a(S'w'
I1
tp12
a(S'tr_tl'
I224
tp13
a(S'tr_ll'
I24
tp14
a(S'tr_th'
I1
tp15
a(S'tr_lh'
I1
tp16
a(S'tr_lr'
I127
tp17
a(S'w'
I13
tp18
a(S'p2_sp'
I7
tp19
a(S'p2_sn'
I1
tp20
a(S'p2_ss'
I7
tp21
a(S'p2_tl'
I1
tp22
a(S'w'
I1
tp23
a(S'p2_ll'
I24
tp24
a(S'p2_th'
I5
tp25
a(S'p2_du'
I2
tp26
a(S'p2_lh'
I1
tp27
a(S'p2_cv'
I1
tp28
a(S'p2_vo'
I15
tp29
a(S'w'
I8074
tp30
a(S'p1_sp'
I7
tp31
a(S'p1_sn'
I1
tp32
a(S'p1_ss'
I7
tp33
a(S'p1_tl'
I1
tp34
a(S'p1_ll'
I24
tp35
a(S'p1_th'
I5
tp36
a(S'w'
I1
tp37
a(S'p1_du'
I2
tp38
a(S'p1_vo'
I11
tp39
a(S'w'
I711
tp40
a(S'tr_lh'
I0
tp41
a(S'tr_lr'
I0
tp42
a(S'w'
I1470
tp43
a(S'p2_lh'
I0
tp44
a(S'p2_vo'
I5
tp45
a(S'w'
I1469
tp46
a(S'tr_tl'
I148
tp47
a(S'tr_ll'
I24
tp48
a(S'w'
I1
tp49
a(S'tr_lh'
I1
tp50
a(S'tr_lr'
I127
tp51
a(S'w'
I9
tp52
a(S'p2_tl'
I53
tp53
a(S'w'
I1
tp54
a(S'p2_ll'
I24
tp55
a(S'p2_th'
I4
tp56
a(S'p2_lh'
I1
tp57
a(S'p2_vo'
I15
tp58
a(S'w'
I6602
tp59
a(S'p1_lh'
I0
tp60
a(S'p1_vo'
I5
tp61
a(S'w'
I1471
tp62
a(S'p1_tl'
I53
tp63
a(S'p1_ll'
I24
tp64
a(S'p1_th'
I4
tp65
a(S'p1_lh'
I1
tp66
a(S'p1_vo'
I11
tp67
a(S'w'
I726
tp68
a(S'tr_lh'
I0
tp69
a(S'tr_lr'
I0
tp70
a(S'w'
I1469
tp71
a(S'p2_lh'
I0
tp72
a(S'p2_vo'
I5
tp73
a(S'w'
I1470
tp74
a(S'tr_tl'
I83
tp75
a(S'tr_ll'
I24
tp76
a(S'tr_lh'
I1
tp77
a(S'tr_lr'
I127
tp78
a(S'w'
I10
tp79
a(S'p2_tl'
I138
tp80
a(S'p2_ll'
I24
tp81
a(S'p2_th'
I3
tp82
a(S'w'
I1
tp83
a(S'p2_lh'
I1
tp84
a(S'p2_vo'
I15
tp85
a(S'w'
I6593
tp86
a(S'p1_lh'
I0
tp87
a(S'p1_vo'
I5
tp88
a(S'w'
I1472
tp89
a(S'p1_tl'
I138
tp90
a(S'p1_ll'
I24
tp91
a(S'p1_th'
I3
tp92
a(S'p1_lh'
I1
tp93
a(S'p1_vo'
I11
tp94
a(S'w'
I726
tp95
a(S'tr_lh'
I0
tp96
a(S'tr_lr'
I0
tp97
a(S'w'
I1469
tp98
a(S'p2_lh'
I0
tp99
a(S'p2_vo'
I5
tp100
a(S'w'
I1470
tp101
a(S'tr_tl'
I29
tp102
a(S'tr_ll'
I24
tp103
a(S'tr_lh'
I1
tp104
a(S'tr_lr'
I127
tp105
a(S'w'
I10
tp106
a(S'p2_tl'
I250
tp107
a(S'p2_ll'
I24
tp108
a(S'p2_th'
I2
tp109
a(S'p2_lh'
I1
tp110
a(S'p2_vo'
I15
tp111
a(S'w'
I6594
tp112
a(S'p1_lh'
I0
tp113
a(S'p1_vo'
I5
tp114
a(S'w'
I1471
tp115
a(S'p1_tl'
I250
tp116
a(S'w'
I1
tp117
a(S'p1_ll'
I24
tp118
a(S'p1_th'
I2
tp119
a(S'p1_lh'
I1
tp120
a(S'p1_vo'
I11
tp121
a(S'w'
I726
tp122
a(S'tr_lh'
I0
tp123
a(S'tr_lr'
I0
tp124
a(S'w'
I5
tp125
a(S'p2_lh'
I0
tp126
a(S'p2_vo'
I5
tp127
a(S'w'
I2937
tp128
a(S'p2_du'
I0
tp129
a(S'p2_lh'
I1
tp130
a(S'p2_vo'
I0
tp131
a(S'w'
I5132
tp132
a(S'p1_lh'
I0
tp133
a(S'p1_vo'
I5
tp134
a(S'w'
I2935
tp135
a(S'p1_du'
I0
tp136
a(S'p1_lh'
I1
tp137
a(S'p1_vo'
I0
tp138
a(S'w'
I1
tp139
a.