(lp1
(S'clock'
p2
I1789772
tp3
a(S'w'
I16
tp4
a(S'w'
I1
tp5
a(S'no_np'
I6
tp6
a(S'no_ll'
I4
tp7
a(S'w'
I6
tp8
a(S'tr_lr'
I24
tp9
a(S'w'
I3
tp10
a(S'tr_tl'
I64
tp11
a(S'tr_ll'
I1
tp12
a(S'tr_th'
I1
tp13
a(S'w'
I8
tp14
a(S'p2_du'
I2
tp15
a(S'p2_vo'
I4
tp16
a(S'w'
I2
tp17
a(S'p2_tl'
I254
tp18
a(S'w'
I1
tp19
a(S'p2_ll'
I15
tp20
a(S'w'
I7
tp21
a(S'p1_du'
I2
tp22
a(S'p1_vo'
I4
tp23
a(S'w'
I3
tp24
a(S'p1_tl'
I213
tp25
a(S'p1_ll'
I15
tp26
a(S'w'
I11700
tp27
a(S'no_ll'
I4
tp28
a(S'w'
I7
tp29
a(S'tr_ll'
I1
tp30
a(S'w'
I5
tp31
a(S'w'
I1
tp32
a(S'p2_ll'
I15
tp33
a(S'w'
I6
tp34
a(S'p1_ll'
I15
tp35
a(S'w'
I5850
tp36
a(S'no_ll'
I4
tp37
a(S'w'
I6
tp38
a(S'tr_tl'
I46
tp39
a(S'w'
I1
tp40
a(S'tr_ll'
I1
tp41
a(S'w'
I5
tp42
a(S'w'
I1
tp43
a(S'p2_ll'
I15
tp44
a(S'w'
I6
tp45
a(S'p1_tl'
I201
tp46
a(S'p1_ll'
I15
tp47
a(S'w'
I5851
tp48
a(S'no_ll'
I4
tp49
a(S'w'
I6
tp50
a(S'tr_tl'
I29
tp51
a(S'w'
I1
tp52
a(S'tr_ll'
I1
tp53
a(S'w'
I5
tp54
a(S'p2_tl'
I239
tp55
a(S'w'
I1
tp56
a(S'p2_ll'
I15
tp57
a(S'w'
I6
tp58
a(S'p1_tl'
I190
tp59
a(S'p1_ll'
I15
tp60
a(S'w'
I11724
tp61
a(S'no_ll'
I4
tp62
a(S'w'
I6
tp63
a(S'tr_tl'
I87
tp64
a(S'tr_ll'
I1
tp65
a(S'tr_th'
I3
tp66
a(S'w'
I8
tp67
a(S'p2_vo'
I2
tp68
a(S'w'
I3
tp69
a(S'p2_tl'
I179
tp70
a(S'p2_ll'
I9
tp71
a(S'w'
I8
tp72
a(S'p1_vo'
I2
tp73
a(S'w'
I3
tp74
a(S'p1_tl'
I134
tp75
a(S'p1_ll'
I9
tp76
a(S'w'
I2911
tp77
a(S'p2_vo'
I4
tp78
a(S'w'
I2
tp79
a(S'p2_tl'
I169
tp80
a(S'w'
I1
tp81
a(S'p2_ll'
I15
tp82
a(S'w'
I7
tp83
a(S'p1_vo'
I4
tp84
a(S'w'
I3
tp85
a(S'p1_tl'
I127
tp86
a(S'w'
I1
tp87
a(S'p1_ll'
I15
tp88
a(S'w'
I11727
tp89
a(S'no_ll'
I4
tp90
a(S'w'
I8
tp91
a(S'tr_tl'
I128
tp92
a(S'w'
I1
tp93
a(S'tr_ll'
I1
tp94
a(S'tr_th'
I2
tp95
a(S'w'
I5
tp96
a(S'p2_tl'
I254
tp97
a(S'w'
I1
tp98
a(S'p2_ll'
I15
tp99
a(S'w'
I6
tp100
a(S'p1_tl'
I160
tp101
a(S'p1_ll'
I15
tp102
a(S'w'
I14655
tp103
a(S'no_ll'
I4
tp104
a(S'w'
I6
tp105
a(S'tr_lr'
I12
tp106
a(S'w'
I3
tp107
a(S'tr_tl'
I171
tp108
a(S'tr_ll'
I1
tp109
a(S'tr_th'
I1
tp110
a(S'w'
I8
tp111
a(S'p2_vo'
I2
tp112
a(S'w'
I2
tp113
a(S'p2_tl'
I171
tp114
a(S'w'
I1
tp115
a(S'p2_ll'
I9
tp116
a(S'p2_th'
I1
tp117
a(S'w'
I7
tp118
a(S'p1_vo'
I2
tp119
a(S'w'
I3
tp120
a(S'p1_tl'
I171
tp121
a(S'p1_ll'
I9
tp122
a(S'p1_th'
I1
tp123
a(S'w'
I2898
tp124
a(S'no_ll'
I4
tp125
a(S'w'
I6
tp126
a(S'tr_tl'
I196
tp127
a(S'tr_ll'
I1
tp128
a(S'w'
I6
tp129
a(S'p2_tl'
I196
tp130
a(S'p2_ll'
I9
tp131
a(S'w'
I5
tp132
a(S'p1_tl'
I196
tp133
a(S'w'
I1
tp134
a(S'p1_ll'
I9
tp135
a(S'w'
I2925
tp136
a(S'no_ll'
I4
tp137
a(S'w'
I6
tp138
a(S'tr_lr'
I18
tp139
a(S'w'
I2
tp140
a(S'tr_tl'
I223
tp141
a(S'w'
I1
tp142
a(S'tr_ll'
I1
tp143
a(S'w'
I7
tp144
a(S'p2_vo'
I3
tp145
a(S'w'
I3
tp146
a(S'p2_tl'
I223
tp147
a(S'p2_ll'
I13
tp148
a(S'w'
I8
tp149
a(S'p1_vo'
I3
tp150
a(S'w'
I2
tp151
a(S'p1_tl'
I223
tp152
a(S'p1_ll'
I13
tp153
a(S'w'
I4366
tp154
a(S'no_ll'
I4
tp155
a(S'w'
I6
tp156
a(S'tr_tl'
I252
tp157
a(S'tr_ll'
I1
tp158
a(S'w'
I6
tp159
a(S'p2_tl'
I252
tp160
a(S'p2_ll'
I13
tp161
a(S'w'
I5
tp162
a(S'p1_tl'
I252
tp163
a(S'w'
I1
tp164
a(S'p1_ll'
I13
tp165
a(S'w'
I4392
tp166
a(S'no_ll'
I4
tp167
a(S'w'
I6
tp168
a(S'tr_lr'
I24
tp169
a(S'w'
I2
tp170
a(S'tr_tl'
I26
tp171
a(S'w'
I1
tp172
a(S'tr_ll'
I1
tp173
a(S'tr_th'
I2
tp174
a(S'w'
I7
tp175
a(S'p2_vo'
I4
tp176
a(S'w'
I3
tp177
a(S'p2_tl'
I26
tp178
a(S'p2_ll'
I15
tp179
a(S'p2_th'
I2
tp180
a(S'w'
I8
tp181
a(S'p1_vo'
I4
tp182
a(S'w'
I2
tp183
a(S'p1_tl'
I26
tp184
a(S'p1_ll'
I15
tp185
a(S'p1_th'
I2
tp186
a(S'w'
I5834
tp187
a(S'no_ll'
I4
tp188
a(S'w'
I7
tp189
a(S'tr_lr'
I30
tp190
a(S'w'
I2
tp191
a(S'tr_tl'
I58
tp192
a(S'tr_ll'
I1
tp193
a(S'w'
I8
tp194
a(S'p2_vo'
I5
tp195
a(S'w'
I2
tp196
a(S'p2_tl'
I58
tp197
a(S'p2_ll'
I19
tp198
a(S'w'
I8
tp199
a(S'p1_vo'
I5
tp200
a(S'w'
I2
tp201
a(S'p1_tl'
I58
tp202
a(S'w'
I1
tp203
a(S'p1_ll'
I19
tp204
a(S'w'
I5848
tp205
a(S'no_ll'
I4
tp206
a(S'w'
I1466
tp207
a(S'tr_lr'
I48
tp208
a(S'w'
I2
tp209
a(S'tr_tl'
I92
tp210
a(S'w'
I1
tp211
a(S'tr_ll'
I1
tp212
a(S'w'
I10
tp213
a(S'p2_vo'
I8
tp214
a(S'w'
I2
tp215
a(S'p2_tl'
I92
tp216
a(S'p2_ll'
I1
tp217
a(S'w'
I10
tp218
a(S'p1_vo'
I8
tp219
a(S'w'
I3
tp220
a(S'p1_tl'
I92
tp221
a(S'p1_ll'
I1
tp222
a(S'w'
I12443
tp223
a(S'tr_lr'
I0
tp224
a(S'p1_du'
I0
tp225
a(S'p1_cv'
I1
tp226
a(S'p1_vo'
I0
tp227
a(S'p2_du'
I0
tp228
a(S'p2_cv'
I1
tp229
a(S'p2_vo'
I0
tp230
a(S'ch_no'
I1
tp231
a(S'ch_tr'
I1
tp232
a(S'ch_p2'
I1
tp233
a(S'ch_p1'
I1
tp234
a(S'w'
I77333
tp235
a.