(lp1
(S'clock'
p2
I1789772
tp3
a(S'w'
I24
tp4
a(S'p2_du'
I2
tp5
a(S'p2_vo'
I3
tp6
a(S'w'
I2
tp7
a(S'p2_tl'
I254
tp8
a(S'w'
I1
tp9
a(S'p2_ll'
I15
tp10
a(S'w'
I7
tp11
a(S'p1_du'
I2
tp12
a(S'p1_vo'
I3
tp13
a(S'w'
I3
tp14
a(S'p1_tl'
I213
tp15
a(S'p1_ll'
I15
tp16
a(S'w'
I5111
tp17
a(S'p2_tl'
I239
tp18
a(S'p2_ll'
I15
tp19
a(S'w'
I6
tp20
a(S'p1_tl'
I190
tp21
a(S'w'
I1
tp22
a(S'p1_ll'
I15
tp23
a(S'w'
I5132
tp24
a(S'p2_vo'
I7
tp25
a(S'w'
I3
tp26
a(S'p2_tl'
I213
tp27
a(S'p2_ll'
I27
tp28
a(S'w'
I8
tp29
a(S'p1_vo'
I7
tp30
a(S'w'
I3
tp31
a(S'p1_tl'
I169
tp32
a(S'p1_ll'
I27
tp33
a(S'w'
I10259
tp34
a(S'p2_vo'
I2
tp35
a(S'w'
I2
tp36
a(S'p2_tl'
I254
tp37
a(S'w'
I1
tp38
a(S'p2_ll'
I11
tp39
a(S'w'
I7
tp40
a(S'p1_vo'
I2
tp41
a(S'w'
I3
tp42
a(S'p1_tl'
I190
tp43
a(S'w'
I1
tp44
a(S'p1_ll'
I11
tp45
a(S'w'
I3653
tp46
a(S'p2_tl'
I213
tp47
a(S'w'
I1
tp48
a(S'p2_ll'
I11
tp49
a(S'w'
I6
tp50
a(S'p1_tl'
I169
tp51
a(S'p1_ll'
I11
tp52
a(S'w'
I3666
tp53
a(S'p2_tl'
I254
tp54
a(S'w'
I1
tp55
a(S'p2_ll'
I9
tp56
a(S'w'
I10
tp57
a(S'p1_tl'
I190
tp58
a(S'w'
I1
tp59
a(S'p1_ll'
I9
tp60
a(S'w'
I2921
tp61
a(S'p2_vo'
I7
tp62
a(S'w'
I2
tp63
a(S'p2_tl'
I124
tp64
a(S'w'
I1
tp65
a(S'p2_ll'
I27
tp66
a(S'p2_th'
I1
tp67
a(S'w'
I7
tp68
a(S'p1_vo'
I7
tp69
a(S'w'
I3
tp70
a(S'p1_tl'
I64
tp71
a(S'p1_ll'
I27
tp72
a(S'p1_th'
I1
tp73
a(S'w'
I10258
tp74
a(S'p2_tl'
I83
tp75
a(S'p2_ll'
I27
tp76
a(S'w'
I6
tp77
a(S'p1_tl'
I29
tp78
a(S'p1_ll'
I27
tp79
a(S'w'
I10267
tp80
a(S'tr_lr'
I42
tp81
a(S'w'
I2
tp82
a(S'tr_tl'
I171
tp83
a(S'w'
I1
tp84
a(S'tr_ll'
I1
tp85
a(S'tr_th'
I1
tp86
a(S'w'
I9
tp87
a(S'p2_vo'
I15
tp88
a(S'w'
I2
tp89
a(S'p2_tl'
I64
tp90
a(S'w'
I1
tp91
a(S'p2_ll'
I26
tp92
a(S'w'
I9
tp93
a(S'p1_vo'
I14
tp94
a(S'w'
I3
tp95
a(S'p1_tl'
I254
tp96
a(S'p1_ll'
I20
tp97
a(S'p1_th'
I0
tp98
a(S'w'
I10246
tp99
a(S'tr_lr'
I84
tp100
a(S'w'
I3
tp101
a(S'tr_ll'
I1
tp102
a(S'w'
I10272
tp103
a(S'p1_vo'
I7
tp104
a(S'w'
I3
tp105
a(S'p1_ll'
I27
tp106
a(S'w'
I10268
tp107
a(S'tr_lr'
I42
tp108
a(S'w'
I3
tp109
a(S'tr_ll'
I1
tp110
a(S'w'
I14
tp111
a(S'p2_vo'
I3
tp112
a(S'w'
I2
tp113
a(S'p2_tl'
I124
tp114
a(S'w'
I1
tp115
a(S'p2_ll'
I15
tp116
a(S'w'
I6
tp117
a(S'p1_tl'
I190
tp118
a(S'p1_ll'
I27
tp119
a(S'w'
I5111
tp120
a(S'p2_tl'
I83
tp121
a(S'p2_ll'
I15
tp122
a(S'w'
I5135
tp123
a(S'tr_tl'
I196
tp124
a(S'w'
I1
tp125
a(S'tr_ll'
I1
tp126
a(S'w'
I9
tp127
a(S'p2_vo'
I15
tp128
a(S'w'
I2
tp129
a(S'p2_tl'
I64
tp130
a(S'w'
I1
tp131
a(S'p2_ll'
I26
tp132
a(S'w'
I9
tp133
a(S'p1_vo'
I14
tp134
a(S'w'
I3
tp135
a(S'p1_tl'
I13
tp136
a(S'p1_ll'
I20
tp137
a(S'p1_th'
I1
tp138
a(S'w'
I10249
tp139
a(S'tr_lr'
I84
tp140
a(S'w'
I2
tp141
a(S'tr_ll'
I1
tp142
a(S'w'
I10273
tp143
a(S'p1_vo'
I7
tp144
a(S'w'
I3
tp145
a(S'p1_ll'
I27
tp146
a(S'w'
I10269
tp147
a(S'tr_lr'
I42
tp148
a(S'w'
I2
tp149
a(S'tr_ll'
I1
tp150
a(S'w'
I8
tp151
a(S'p2_vo'
I3
tp152
a(S'w'
I2
tp153
a(S'p2_tl'
I147
tp154
a(S'w'
I1
tp155
a(S'p2_ll'
I15
tp156
a(S'w'
I6
tp157
a(S'p1_tl'
I201
tp158
a(S'p1_ll'
I27
tp159
a(S'p1_th'
I0
tp160
a(S'w'
I5117
tp161
a(S'p2_tl'
I103
tp162
a(S'p2_ll'
I15
tp163
a(S'w'
I5140
tp164
a(S'tr_lr'
I127
tp165
a(S'w'
I2
tp166
a(S'tr_tl'
I252
tp167
a(S'w'
I1
tp168
a(S'tr_ll'
I1
tp169
a(S'w'
I11
tp170
a(S'p2_vo'
I15
tp171
a(S'w'
I3
tp172
a(S'p2_tl'
I171
tp173
a(S'p2_ll'
I8
tp174
a(S'w'
I12
tp175
a(S'p1_vo'
I15
tp176
a(S'w'
I2
tp177
a(S'p1_tl'
I29
tp178
a(S'w'
I1
tp179
a(S'p1_ll'
I8
tp180
a(S'p1_th'
I1
tp181
a(S'w'
I39591
tp182
a(S'p2_tl'
I196
tp183
a(S'p2_ll'
I8
tp184
a(S'w'
I8
tp185
a(S'p1_tl'
I46
tp186
a(S'p1_ll'
I8
tp187
a(S'w'
I3661
tp188
a(S'p2_tl'
I223
tp189
a(S'p2_ll'
I8
tp190
a(S'w'
I8
tp191
a(S'p1_tl'
I64
tp192
a(S'p1_ll'
I8
tp193
a(S'w'
I2927
tp194
a(S'p2_tl'
I252
tp195
a(S'p2_ll'
I8
tp196
a(S'w'
I8
tp197
a(S'p1_tl'
I83
tp198
a(S'p1_ll'
I8
tp199
a(S'w'
I20538
tp200
a(S'tr_tl'
I128
tp201
a(S'tr_ll'
I1
tp202
a(S'tr_th'
I2
tp203
a(S'w'
I82178
tp204
a(S'tr_lr'
I0
tp205
a(S'p1_du'
I0
tp206
a(S'p1_cv'
I1
tp207
a(S'p1_vo'
I0
tp208
a(S'p2_du'
I0
tp209
a(S'p2_cv'
I1
tp210
a(S'p2_vo'
I0
tp211
a(S'ch_no'
I1
tp212
a(S'ch_tr'
I1
tp213
a(S'ch_p2'
I1
tp214
a(S'ch_p1'
I1
tp215
a(S'w'
I10348
tp216
a.