(lp1
(S'clock'
p2
I1789772
tp3
a(S'w'
I22
tp4
a(S'no_vo'
I1
tp5
a(S'no_np'
I14
tp6
a(S'w'
I1
tp7
a(S'no_ll'
I4
tp8
a(S'w'
I6
tp9
a(S'tr_lr'
I127
tp10
a(S'w'
I3
tp11
a(S'tr_tl'
I171
tp12
a(S'tr_ll'
I1
tp13
a(S'tr_th'
I1
tp14
a(S'w'
I17
tp15
a(S'p2_vo'
I9
tp16
a(S'w'
I3
tp17
a(S'p2_tl'
I83
tp18
a(S'p2_ll'
I30
tp19
a(S'p2_th'
I1
tp20
a(S'w'
I17
tp21
a(S'p1_vo'
I9
tp22
a(S'w'
I2
tp23
a(S'p1_tl'
I29
tp24
a(S'w'
I1
tp25
a(S'p1_ll'
I30
tp26
a(S'p1_th'
I1
tp27
a(S'w'
I26358
tp28
a(S'w'
I1
tp29
a(S'no_ll'
I4
tp30
a(S'w'
I6
tp31
a(S'p2_tl'
I64
tp32
a(S'p2_ll'
I30
tp33
a(S'w'
I6
tp34
a(S'p1_tl'
I13
tp35
a(S'w'
I1
tp36
a(S'p1_ll'
I30
tp37
a(S'w'
I13185
tp38
a(S'no_ll'
I4
tp39
a(S'w'
I6
tp40
a(S'tr_tl'
I213
tp41
a(S'w'
I1
tp42
a(S'tr_ll'
I1
tp43
a(S'tr_th'
I0
tp44
a(S'w'
I13214
tp45
a(S'w'
I1
tp46
a(S'no_ll'
I4
tp47
a(S'w'
I6
tp48
a(S'p2_tl'
I46
tp49
a(S'p2_ll'
I30
tp50
a(S'w'
I6
tp51
a(S'p1_tl'
I254
tp52
a(S'p1_ll'
I30
tp53
a(S'p1_th'
I0
tp54
a(S'w'
I26400
tp55
a(S'w'
I1
tp56
a(S'no_ll'
I4
tp57
a(S'w'
I6
tp58
a(S'tr_lr'
I54
tp59
a(S'w'
I2
tp60
a(S'tr_tl'
I171
tp61
a(S'w'
I1
tp62
a(S'tr_ll'
I1
tp63
a(S'tr_th'
I1
tp64
a(S'w'
I13189
tp65
a(S'no_ll'
I4
tp66
a(S'w'
I6
tp67
a(S'tr_tl'
I196
tp68
a(S'tr_ll'
I1
tp69
a(S'w'
I13215
tp70
a(S'w'
I1
tp71
a(S'no_ll'
I4
tp72
a(S'w'
I6
tp73
a(S'tr_lr'
I127
tp74
a(S'w'
I2
tp75
a(S'tr_tl'
I171
tp76
a(S'w'
I1
tp77
a(S'tr_ll'
I1
tp78
a(S'w'
I5
tp79
a(S'p2_tl'
I83
tp80
a(S'w'
I1
tp81
a(S'p2_ll'
I30
tp82
a(S'w'
I5
tp83
a(S'p1_tl'
I29
tp84
a(S'w'
I1
tp85
a(S'p1_ll'
I30
tp86
a(S'p1_th'
I1
tp87
a(S'w'
I26391
tp88
a(S'w'
I1
tp89
a(S'no_ll'
I4
tp90
a(S'w'
I6
tp91
a(S'p2_tl'
I64
tp92
a(S'p2_ll'
I30
tp93
a(S'w'
I6
tp94
a(S'p1_tl'
I13
tp95
a(S'w'
I1
tp96
a(S'p1_ll'
I30
tp97
a(S'w'
I13185
tp98
a(S'no_ll'
I4
tp99
a(S'w'
I7
tp100
a(S'tr_lr'
I108
tp101
a(S'w'
I2
tp102
a(S'tr_tl'
I213
tp103
a(S'w'
I1
tp104
a(S'tr_ll'
I1
tp105
a(S'tr_th'
I0
tp106
a(S'w'
I5
tp107
a(S'p2_tl'
I46
tp108
a(S'w'
I1
tp109
a(S'p2_ll'
I30
tp110
a(S'w'
I5
tp111
a(S'p1_tl'
I254
tp112
a(S'w'
I1
tp113
a(S'p1_ll'
I30
tp114
a(S'p1_th'
I0
tp115
a(S'w'
I13199
tp116
a(S'w'
I1
tp117
a(S'no_ll'
I4
tp118
a(S'w'
I13198
tp119
a(S'tr_lr'
I54
tp120
a(S'w'
I3
tp121
a(S'tr_tl'
I171
tp122
a(S'tr_ll'
I1
tp123
a(S'tr_th'
I1
tp124
a(S'w'
I6
tp125
a(S'p2_ll'
I30
tp126
a(S'w'
I6
tp127
a(S'p1_ll'
I30
tp128
a(S'w'
I13199
tp129
a(S'w'
I1
tp130
a(S'no_ll'
I4
tp131
a(S'w'
I5
tp132
a(S'tr_tl'
I196
tp133
a(S'w'
I1
tp134
a(S'tr_ll'
I1
tp135
a(S'w'
I5
tp136
a(S'p2_tl'
I64
tp137
a(S'w'
I1
tp138
a(S'p2_ll'
I30
tp139
a(S'w'
I5
tp140
a(S'p1_tl'
I13
tp141
a(S'w'
I1
tp142
a(S'p1_ll'
I30
tp143
a(S'p1_th'
I1
tp144
a(S'w'
I13180
tp145
a(S'no_ll'
I4
tp146
a(S'w'
I6
tp147
a(S'tr_tl'
I171
tp148
a(S'w'
I1
tp149
a(S'tr_ll'
I1
tp150
a(S'w'
I5
tp151
a(S'p2_tl'
I46
tp152
a(S'w'
I1
tp153
a(S'p2_ll'
I30
tp154
a(S'w'
I5
tp155
a(S'p1_tl'
I254
tp156
a(S'w'
I1
tp157
a(S'p1_ll'
I30
tp158
a(S'p1_th'
I0
tp159
a(S'w'
I13201
tp160
a(S'w'
I1
tp161
a(S'no_ll'
I4
tp162
a(S'w'
I5
tp163
a(S'tr_tl'
I103
tp164
a(S'w'
I1
tp165
a(S'tr_ll'
I1
tp166
a(S'w'
I5
tp167
a(S'p2_tl'
I29
tp168
a(S'w'
I1
tp169
a(S'p2_ll'
I30
tp170
a(S'w'
I5
tp171
a(S'p1_tl'
I239
tp172
a(S'w'
I1
tp173
a(S'p1_ll'
I30
tp174
a(S'w'
I26386
tp175
a(S'no_ll'
I4
tp176
a(S'w'
I7
tp177
a(S'tr_ll'
I1
tp178
a(S'w'
I5
tp179
a(S'w'
I1
tp180
a(S'p2_ll'
I30
tp181
a(S'w'
I5
tp182
a(S'w'
I1
tp183
a(S'p1_ll'
I30
tp184
a(S'w'
I26398
tp185
a(S'no_ll'
I4
tp186
a(S'w'
I6
tp187
a(S'tr_tl'
I124
tp188
a(S'w'
I1
tp189
a(S'tr_ll'
I1
tp190
a(S'w'
I5
tp191
a(S'p2_tl'
I46
tp192
a(S'w'
I1
tp193
a(S'p2_ll'
I30
tp194
a(S'w'
I5
tp195
a(S'p1_tl'
I254
tp196
a(S'w'
I1
tp197
a(S'p1_ll'
I30
tp198
a(S'w'
I26397
tp199
a(S'no_ll'
I4
tp200
a(S'w'
I6
tp201
a(S'tr_tl'
I147
tp202
a(S'w'
I1
tp203
a(S'tr_ll'
I1
tp204
a(S'w'
I5
tp205
a(S'p2_tl'
I64
tp206
a(S'w'
I1
tp207
a(S'p2_ll'
I30
tp208
a(S'w'
I5
tp209
a(S'p1_tl'
I13
tp210
a(S'w'
I1
tp211
a(S'p1_ll'
I30
tp212
a(S'p1_th'
I1
tp213
a(S'w'
I26407
tp214
a(S'no_ll'
I4
tp215
a(S'w'
I7
tp216
a(S'tr_lr'
I72
tp217
a(S'w'
I2
tp218
a(S'tr_tl'
I223
tp219
a(S'tr_ll'
I1
tp220
a(S'w'
I17593
tp221
a(S'no_ll'
I4
tp222
a(S'w'
I6
tp223
a(S'tr_tl'
I128
tp224
a(S'tr_ll'
I1
tp225
a(S'tr_th'
I2
tp226
a(S'w'
I17604
tp227
a(S'no_ll'
I4
tp228
a(S'w'
I6
tp229
a(S'tr_tl'
I58
tp230
a(S'tr_ll'
I1
tp231
a(S'w'
I17614
tp232
a(S'w'
I1
tp233
a(S'no_ll'
I4
tp234
a(S'w'
I6
tp235
a(S'tr_lr'
I108
tp236
a(S'w'
I2
tp237
a(S'tr_tl'
I26
tp238
a(S'w'
I1
tp239
a(S'tr_ll'
I1
tp240
a(S'w'
I26407
tp241
a(S'p2_vo'
I4
tp242
a(S'w'
I2
tp243
a(S'p2_tl'
I196
tp244
a(S'p2_ll'
I17
tp245
a(S'w'
I8
tp246
a(S'p1_vo'
I4
tp247
a(S'w'
I2
tp248
a(S'p1_tl'
I103
tp249
a(S'w'
I1
tp250
a(S'p1_ll'
I17
tp251
a(S'w'
I6585
tp252
a(S'p2_tl'
I223
tp253
a(S'w'
I1
tp254
a(S'p2_ll'
I17
tp255
a(S'w'
I5
tp256
a(S'p1_tl'
I124
tp257
a(S'w'
I1
tp258
a(S'p1_ll'
I17
tp259
a(S'w'
I6598
tp260
a(S'p2_tl'
I196
tp261
a(S'w'
I1
tp262
a(S'p2_ll'
I17
tp263
a(S'w'
I5
tp264
a(S'p1_tl'
I103
tp265
a(S'w'
I1
tp266
a(S'p1_ll'
I17
tp267
a(S'w'
I6596
tp268
a(S'p2_tl'
I223
tp269
a(S'w'
I1
tp270
a(S'p2_ll'
I17
tp271
a(S'w'
I5
tp272
a(S'p1_tl'
I124
tp273
a(S'w'
I1
tp274
a(S'p1_ll'
I17
tp275
a(S'w'
I6608
tp276
a.