(lp1
(S'clock'
p2
I1789772
tp3
a(S'w'
I19
tp4
a(S'w'
I1
tp5
a(S'no_np'
I6
tp6
a(S'no_ll'
I4
tp7
a(S'w'
I7
tp8
a(S'tr_lr'
I30
tp9
a(S'w'
I2
tp10
a(S'tr_tl'
I147
tp11
a(S'w'
I1
tp12
a(S'tr_ll'
I1
tp13
a(S'tr_th'
I1
tp14
a(S'w'
I14
tp15
a(S'p2_vo'
I5
tp16
a(S'w'
I2
tp17
a(S'p2_tl'
I83
tp18
a(S'w'
I1
tp19
a(S'p2_ll'
I19
tp20
a(S'p2_th'
I1
tp21
a(S'w'
I14
tp22
a(S'p1_vo'
I5
tp23
a(S'w'
I3
tp24
a(S'p1_tl'
I29
tp25
a(S'p1_ll'
I19
tp26
a(S'p1_th'
I1
tp27
a(S'w'
I14623
tp28
a(S'no_ll'
I4
tp29
a(S'w'
I6
tp30
a(S'tr_lr'
I15
tp31
a(S'w'
I3
tp32
a(S'tr_ll'
I1
tp33
a(S'w'
I8
tp34
a(S'p2_vo'
I2
tp35
a(S'w'
I2
tp36
a(S'w'
I1
tp37
a(S'p2_ll'
I11
tp38
a(S'w'
I7
tp39
a(S'p1_vo'
I2
tp40
a(S'w'
I3
tp41
a(S'p1_ll'
I11
tp42
a(S'w'
I3632
tp43
a(S'no_ll'
I4
tp44
a(S'w'
I7
tp45
a(S'tr_ll'
I1
tp46
a(S'w'
I5
tp47
a(S'w'
I1
tp48
a(S'p2_ll'
I11
tp49
a(S'w'
I5
tp50
a(S'w'
I1
tp51
a(S'p1_ll'
I11
tp52
a(S'w'
I3657
tp53
a(S'no_ll'
I4
tp54
a(S'w'
I6
tp55
a(S'tr_lr'
I30
tp56
a(S'w'
I3
tp57
a(S'tr_tl'
I124
tp58
a(S'tr_ll'
I1
tp59
a(S'w'
I8
tp60
a(S'p2_vo'
I5
tp61
a(S'w'
I2
tp62
a(S'p2_tl'
I64
tp63
a(S'w'
I1
tp64
a(S'p2_ll'
I19
tp65
a(S'w'
I7
tp66
a(S'p1_vo'
I5
tp67
a(S'w'
I3
tp68
a(S'p1_tl'
I13
tp69
a(S'p1_ll'
I19
tp70
a(S'w'
I7301
tp71
a(S'no_ll'
I4
tp72
a(S'w'
I7
tp73
a(S'tr_ll'
I1
tp74
a(S'w'
I5
tp75
a(S'w'
I1
tp76
a(S'p2_ll'
I19
tp77
a(S'w'
I5
tp78
a(S'w'
I1
tp79
a(S'p1_ll'
I19
tp80
a(S'w'
I7319
tp81
a(S'no_ll'
I4
tp82
a(S'w'
I7
tp83
a(S'tr_ll'
I1
tp84
a(S'w'
I5
tp85
a(S'w'
I1
tp86
a(S'p2_ll'
I19
tp87
a(S'w'
I5
tp88
a(S'w'
I1
tp89
a(S'p1_ll'
I19
tp90
a(S'w'
I7319
tp91
a(S'no_ll'
I4
tp92
a(S'w'
I6
tp93
a(S'tr_tl'
I103
tp94
a(S'w'
I1
tp95
a(S'tr_ll'
I1
tp96
a(S'w'
I5
tp97
a(S'p2_tl'
I46
tp98
a(S'w'
I1
tp99
a(S'p2_ll'
I19
tp100
a(S'w'
I5
tp101
a(S'p1_tl'
I254
tp102
a(S'w'
I1
tp103
a(S'p1_ll'
I19
tp104
a(S'p1_th'
I0
tp105
a(S'w'
I21997
tp106
a(S'no_ll'
I4
tp107
a(S'w'
I6
tp108
a(S'tr_tl'
I196
tp109
a(S'tr_ll'
I1
tp110
a(S'w'
I7330
tp111
a(S'no_ll'
I4
tp112
a(S'w'
I6
tp113
a(S'tr_tl'
I147
tp114
a(S'w'
I1
tp115
a(S'tr_ll'
I1
tp116
a(S'w'
I7331
tp117
a(S'no_ll'
I4
tp118
a(S'w'
I6
tp119
a(S'tr_tl'
I103
tp120
a(S'w'
I1
tp121
a(S'tr_ll'
I1
tp122
a(S'w'
I7344
tp123
a(S'w'
I1
tp124
a(S'no_ll'
I4
tp125
a(S'w'
I9
tp126
a(S'w'
I1
tp127
a(S'w'
I2
tp128
a(S'tr_tl'
I83
tp129
a(S'tr_ll'
I1
tp130
a(S'w'
I11
tp131
a(S'w'
I3
tp132
a(S'p2_tl'
I29
tp133
a(S'p2_ll'
I19
tp134
a(S'w'
I11
tp135
a(S'w'
I2
tp136
a(S'p1_tl'
I226
tp137
a(S'w'
I1
tp138
a(S'p1_ll'
I19
tp139
a(S'w'
I14623
tp140
a(S'no_ll'
I4
tp141
a(S'w'
I7
tp142
a(S'tr_ll'
I1
tp143
a(S'w'
I5
tp144
a(S'w'
I1
tp145
a(S'p2_ll'
I19
tp146
a(S'w'
I5
tp147
a(S'w'
I1
tp148
a(S'p1_ll'
I19
tp149
a(S'w'
I7317
tp150
a(S'no_ll'
I4
tp151
a(S'w'
I7
tp152
a(S'tr_ll'
I1
tp153
a(S'w'
I5
tp154
a(S'w'
I1
tp155
a(S'p2_ll'
I19
tp156
a(S'w'
I5
tp157
a(S'w'
I1
tp158
a(S'p1_ll'
I19
tp159
a(S'w'
I7325
tp160
a(S'tr_ll'
I1
tp161
a(S'w'
I5
tp162
a(S'w'
I1
tp163
a(S'p2_ll'
I19
tp164
a(S'w'
I5
tp165
a(S'w'
I1
tp166
a(S'p1_ll'
I19
tp167
a(S'w'
I7322
tp168
a(S'no_ll'
I4
tp169
a(S'w'
I7
tp170
a(S'tr_ll'
I1
tp171
a(S'w'
I5
tp172
a(S'w'
I1
tp173
a(S'p2_ll'
I19
tp174
a(S'w'
I5
tp175
a(S'w'
I1
tp176
a(S'p1_ll'
I19
tp177
a(S'w'
I7317
tp178
a(S'no_ll'
I4
tp179
a(S'w'
I6
tp180
a(S'tr_tl'
I103
tp181
a(S'w'
I1
tp182
a(S'tr_ll'
I1
tp183
a(S'w'
I5
tp184
a(S'p2_tl'
I46
tp185
a(S'w'
I1
tp186
a(S'p2_ll'
I19
tp187
a(S'w'
I5
tp188
a(S'p1_tl'
I239
tp189
a(S'w'
I1
tp190
a(S'p1_ll'
I19
tp191
a(S'w'
I14659
tp192
a(S'no_ll'
I4
tp193
a(S'w'
I7
tp194
a(S'tr_ll'
I1
tp195
a(S'w'
I5
tp196
a(S'w'
I1
tp197
a(S'p2_ll'
I19
tp198
a(S'w'
I5
tp199
a(S'w'
I1
tp200
a(S'p1_ll'
I19
tp201
a(S'w'
I7317
tp202
a(S'no_ll'
I4
tp203
a(S'w'
I6
tp204
a(S'tr_tl'
I223
tp205
a(S'tr_ll'
I1
tp206
a(S'w'
I6
tp207
a(S'p2_tl'
I147
tp208
a(S'p2_ll'
I19
tp209
a(S'w'
I6
tp210
a(S'p1_tl'
I46
tp211
a(S'p1_ll'
I19
tp212
a(S'p1_th'
I1
tp213
a(S'w'
I7320
tp214
a(S'no_ll'
I4
tp215
a(S'w'
I7338
tp216
a(S'no_ll'
I4
tp217
a(S'w'
I6
tp218
a(S'tr_lr'
I15
tp219
a(S'w'
I3
tp220
a(S'tr_tl'
I147
tp221
a(S'tr_ll'
I1
tp222
a(S'w'
I6
tp223
a(S'w'
I1
tp224
a(S'p2_ll'
I19
tp225
a(S'w'
I5
tp226
a(S'w'
I1
tp227
a(S'p1_ll'
I19
tp228
a(S'w'
I3650
tp229
a(S'tr_tl'
I171
tp230
a(S'w'
I1
tp231
a(S'tr_ll'
I1
tp232
a(S'w'
I3675
tp233
a(S'w'
I1
tp234
a(S'no_ll'
I4
tp235
a(S'w'
I6
tp236
a(S'tr_lr'
I30
tp237
a(S'w'
I2
tp238
a(S'tr_tl'
I196
tp239
a(S'w'
I1
tp240
a(S'tr_ll'
I1
tp241
a(S'w'
I5
tp242
a(S'p2_tl'
I83
tp243
a(S'w'
I1
tp244
a(S'p2_ll'
I19
tp245
a(S'w'
I5
tp246
a(S'p1_tl'
I254
tp247
a(S'w'
I1
tp248
a(S'p1_ll'
I19
tp249
a(S'p1_th'
I0
tp250
a(S'w'
I14645
tp251
a(S'no_ll'
I4
tp252
a(S'w'
I6
tp253
a(S'tr_ll'
I1
tp254
a(S'w'
I6
tp255
a(S'p2_ll'
I19
tp256
a(S'w'
I6
tp257
a(S'p1_ll'
I19
tp258
a(S'w'
I7318
tp259
a(S'no_ll'
I4
tp260
a(S'w'
I6
tp261
a(S'tr_tl'
I166
tp262
a(S'tr_ll'
I1
tp263
a(S'tr_th'
I2
tp264
a(S'w'
I6
tp265
a(S'p2_tl'
I196
tp266
a(S'p2_ll'
I19
tp267
a(S'w'
I6
tp268
a(S'p1_tl'
I13
tp269
a(S'p1_ll'
I19
tp270
a(S'p1_th'
I1
tp271
a(S'w'
I14660
tp272
a(S'no_ll'
I4
tp273
a(S'w'
I6
tp274
a(S'tr_ll'
I1
tp275
a(S'w'
I6
tp276
a(S'p2_ll'
I19
tp277
a(S'w'
I6
tp278
a(S'p1_ll'
I19
tp279
a(S'w'
I7318
tp280
a(S'no_ll'
I4
tp281
a(S'w'
I6
tp282
a(S'tr_ll'
I1
tp283
a(S'w'
I6
tp284
a(S'p2_tl'
I83
tp285
a(S'p2_ll'
I19
tp286
a(S'w'
I6
tp287
a(S'p1_tl'
I29
tp288
a(S'p1_ll'
I19
tp289
a(S'w'
I7328
tp290
a(S'p2_ll'
I19
tp291
a(S'w'
I6
tp292
a(S'p1_tl'
I254
tp293
a(S'p1_ll'
I19
tp294
a(S'p1_th'
I0
tp295
a(S'w'
I7326
tp296
a(S'no_ll'
I4
tp297
a(S'w'
I6
tp298
a(S'tr_ll'
I1
tp299
a(S'w'
I6
tp300
a(S'p2_ll'
I19
tp301
a(S'w'
I6
tp302
a(S'p1_tl'
I29
tp303
a(S'p1_ll'
I19
tp304
a(S'p1_th'
I1
tp305
a(S'w'
I7318
tp306
a(S'no_ll'
I4
tp307
a(S'w'
I6
tp308
a(S'tr_ll'
I1
tp309
a(S'w'
I6
tp310
a(S'p2_tl'
I196
tp311
a(S'p2_ll'
I19
tp312
a(S'w'
I6
tp313
a(S'p1_tl'
I83
tp314
a(S'p1_ll'
I19
tp315
a(S'w'
I7320
tp316
a(S'no_ll'
I4
tp317
a(S'w'
I7338
tp318
a(S'no_ll'
I4
tp319
a(S'w'
I6
tp320
a(S'tr_ll'
I1
tp321
a(S'w'
I6
tp322
a(S'p2_tl'
I58
tp323
a(S'p2_ll'
I19
tp324
a(S'p2_th'
I2
tp325
a(S'w'
I5
tp326
a(S'p1_tl'
I196
tp327
a(S'w'
I1
tp328
a(S'p1_ll'
I19
tp329
a(S'w'
I7330
tp330
a(S'w'
I1
tp331
a(S'no_ll'
I4
tp332
a(S'w'
I5
tp333
a(S'tr_tl'
I249
tp334
a(S'w'
I1
tp335
a(S'tr_ll'
I1
tp336
a(S'w'
I5
tp337
a(S'p2_tl'
I128
tp338
a(S'p2_ll'
I19
tp339
a(S'w'
I6
tp340
a(S'p1_tl'
I223
tp341
a(S'p1_ll'
I19
tp342
a(S'w'
I14649
tp343
a(S'no_ll'
I4
tp344
a(S'w'
I6
tp345
a(S'tr_ll'
I1
tp346
a(S'w'
I6
tp347
a(S'p2_ll'
I19
tp348
a(S'w'
I5
tp349
a(S'w'
I1
tp350
a(S'p1_ll'
I19
tp351
a(S'w'
I7318
tp352
a(S'no_ll'
I4
tp353
a(S'w'
I6
tp354
a(S'tr_ll'
I1
tp355
a(S'w'
I6
tp356
a(S'p2_ll'
I19
tp357
a(S'w'
I5
tp358
a(S'w'
I1
tp359
a(S'p1_ll'
I19
tp360
a(S'w'
I14660
tp361
a(S'no_ll'
I4
tp362
a(S'w'
I7
tp363
a(S'tr_lr'
I15
tp364
a(S'w'
I2
tp365
a(S'tr_ll'
I1
tp366
a(S'w'
I6
tp367
a(S'p2_ll'
I19
tp368
a(S'w'
I5
tp369
a(S'w'
I1
tp370
a(S'p1_ll'
I19
tp371
a(S'w'
I3649
tp372
a(S'tr_tl'
I252
tp373
a(S'tr_ll'
I1
tp374
a(S'tr_th'
I1
tp375
a(S'w'
I3666
tp376
a(S'no_ll'
I4
tp377
a(S'w'
I6
tp378
a(S'tr_lr'
I30
tp379
a(S'w'
I3
tp380
a(S'tr_tl'
I124
tp381
a(S'tr_ll'
I1
tp382
a(S'w'
I6
tp383
a(S'p2_tl'
I223
tp384
a(S'p2_ll'
I19
tp385
a(S'p2_th'
I1
tp386
a(S'w'
I6
tp387
a(S'p1_tl'
I64
tp388
a(S'p1_ll'
I19
tp389
a(S'w'
I14657
tp390
a(S'no_ll'
I4
tp391
a(S'w'
I7
tp392
a(S'tr_ll'
I1
tp393
a(S'w'
I5
tp394
a(S'p2_ll'
I19
tp395
a(S'w'
I6
tp396
a(S'p1_ll'
I19
tp397
a(S'w'
I7318
tp398
a(S'no_ll'
I4
tp399
a(S'w'
I7
tp400
a(S'tr_ll'
I1
tp401
a(S'w'
I5
tp402
a(S'p2_ll'
I19
tp403
a(S'w'
I6
tp404
a(S'p1_ll'
I19
tp405
a(S'w'
I7320
tp406
a(S'no_ll'
I4
tp407
a(S'w'
I7338
tp408
a(S'no_ll'
I4
tp409
a(S'w'
I7
tp410
a(S'tr_ll'
I1
tp411
a(S'w'
I5
tp412
a(S'p2_ll'
I19
tp413
a(S'w'
I6
tp414
a(S'p1_ll'
I19
tp415
a(S'w'
I7329
tp416
a(S'w'
I1
tp417
a(S'no_ll'
I4
tp418
a(S'w'
I6
tp419
a(S'tr_ll'
I1
tp420
a(S'w'
I5
tp421
a(S'w'
I1
tp422
a(S'p2_ll'
I19
tp423
a(S'w'
I5
tp424
a(S'w'
I1
tp425
a(S'p1_ll'
I19
tp426
a(S'w'
I7314
tp427
a(S'tr_tl'
I103
tp428
a(S'w'
I1
tp429
a(S'tr_ll'
I1
tp430
a(S'w'
I5
tp431
a(S'p2_tl'
I196
tp432
a(S'p2_ll'
I19
tp433
a(S'w'
I6
tp434
a(S'p1_tl'
I46
tp435
a(S'p1_ll'
I19
tp436
a(S'w'
I7323
tp437
a(S'no_ll'
I4
tp438
a(S'w'
I6
tp439
a(S'tr_tl'
I124
tp440
a(S'w'
I1
tp441
a(S'tr_ll'
I1
tp442
a(S'w'
I5
tp443
a(S'p2_tl'
I223
tp444
a(S'p2_ll'
I19
tp445
a(S'w'
I6
tp446
a(S'p1_tl'
I64
tp447
a(S'p1_ll'
I19
tp448
a(S'w'
I7318
tp449
a(S'no_ll'
I4
tp450
a(S'w'
I6
tp451
a(S'tr_tl'
I103
tp452
a(S'w'
I1
tp453
a(S'tr_ll'
I1
tp454
a(S'w'
I5
tp455
a(S'p2_tl'
I196
tp456
a(S'p2_ll'
I19
tp457
a(S'w'
I6
tp458
a(S'p1_tl'
I46
tp459
a(S'p1_ll'
I19
tp460
a(S'w'
I7325
tp461
a(S'tr_tl'
I124
tp462
a(S'w'
I1
tp463
a(S'tr_ll'
I1
tp464
a(S'w'
I5
tp465
a(S'p2_tl'
I223
tp466
a(S'p2_ll'
I19
tp467
a(S'w'
I6
tp468
a(S'p1_tl'
I64
tp469
a(S'p1_ll'
I19
tp470
a(S'w'
I7323
tp471
a(S'no_ll'
I4
tp472
a(S'w'
I6
tp473
a(S'tr_tl'
I103
tp474
a(S'w'
I1
tp475
a(S'tr_ll'
I1
tp476
a(S'w'
I5
tp477
a(S'p2_tl'
I196
tp478
a(S'p2_ll'
I19
tp479
a(S'w'
I6
tp480
a(S'p1_tl'
I46
tp481
a(S'p1_ll'
I19
tp482
a(S'w'
I7318
tp483
a(S'no_ll'
I4
tp484
a(S'w'
I6
tp485
a(S'tr_tl'
I124
tp486
a(S'w'
I1
tp487
a(S'tr_ll'
I1
tp488
a(S'w'
I5
tp489
a(S'p2_tl'
I223
tp490
a(S'p2_ll'
I19
tp491
a(S'w'
I6
tp492
a(S'p1_tl'
I64
tp493
a(S'p1_ll'
I19
tp494
a(S'w'
I14660
tp495
a(S'no_ll'
I4
tp496
a(S'w'
I7336
tp497
a(S'no_ll'
I4
tp498
a(S'w'
I6
tp499
a(S'tr_tl'
I196
tp500
a(S'tr_ll'
I1
tp501
a(S'w'
I6
tp502
a(S'p2_tl'
I103
tp503
a(S'p2_ll'
I19
tp504
a(S'w'
I6
tp505
a(S'p1_tl'
I46
tp506
a(S'p1_ll'
I19
tp507
a(S'w'
I7320
tp508
a(S'no_ll'
I4
tp509
a(S'w'
I6
tp510
a(S'tr_tl'
I147
tp511
a(S'w'
I1
tp512
a(S'tr_ll'
I1
tp513
a(S'w'
I5
tp514
a(S'p2_tl'
I83
tp515
a(S'w'
I1
tp516
a(S'p2_ll'
I19
tp517
a(S'w'
I5
tp518
a(S'p1_tl'
I29
tp519
a(S'w'
I1
tp520
a(S'p1_ll'
I19
tp521
a(S'w'
I7319
tp522
a(S'no_ll'
I4
tp523
a(S'w'
I6
tp524
a(S'tr_tl'
I103
tp525
a(S'w'
I1
tp526
a(S'tr_ll'
I1
tp527
a(S'w'
I5
tp528
a(S'p2_tl'
I46
tp529
a(S'w'
I1
tp530
a(S'p2_ll'
I19
tp531
a(S'w'
I5
tp532
a(S'p1_tl'
I254
tp533
a(S'w'
I1
tp534
a(S'p1_ll'
I19
tp535
a(S'p1_th'
I0
tp536
a(S'w'
I7333
tp537
a.