(lp1
(S'clock'
p2
I1789772
tp3
a(S'w'
I1
tp4
a(S'fc_mo'
I1
tp5
a(S'w'
I10
tp6
a(S'p2_du'
I2
tp7
a(S'p2_vo'
I4
tp8
a(S'p2_sp'
I7
tp9
a(S'p2_sn'
I1
tp10
a(S'p2_ss'
I7
tp11
a(S'w'
I3
tp12
a(S'tr_lr'
I32
tp13
a(S'w'
I1
tp14
a(S'tr_tl'
I28
tp15
a(S'tr_ll'
I1
tp16
a(S'tr_th'
I1
tp17
a(S'w'
I7331
tp18
a(S'tr_lr'
I12
tp19
a(S'w'
I3670
tp20
a(S'tr_tl'
I82
tp21
a(S'tr_ll'
I1
tp22
a(S'w'
I3668
tp23
a(S'tr_lr'
I32
tp24
a(S'w'
I1
tp25
a(S'tr_tl'
I63
tp26
a(S'tr_ll'
I1
tp27
a(S'w'
I7337
tp28
a(S'tr_lr'
I12
tp29
a(S'w'
I3670
tp30
a(S'tr_tl'
I28
tp31
a(S'tr_ll'
I1
tp32
a(S'w'
I3668
tp33
a(S'tr_lr'
I32
tp34
a(S'w'
I7338
tp35
a(S'tr_lr'
I12
tp36
a(S'w'
I3670
tp37
a(S'tr_tl'
I212
tp38
a(S'tr_ll'
I1
tp39
a(S'tr_th'
I0
tp40
a(S'w'
I3669
tp41
a(S'tr_tl'
I225
tp42
a(S'tr_ll'
I1
tp43
a(S'w'
I3669
tp44
a(S'tr_tl'
I212
tp45
a(S'tr_ll'
I1
tp46
a(S'w'
I3669
tp47
a(S'tr_tl'
I225
tp48
a(S'tr_ll'
I1
tp49
a(S'w'
I3669
tp50
a(S'tr_tl'
I212
tp51
a(S'tr_ll'
I1
tp52
a(S'w'
I3672
tp53
a(S'tr_lr'
I32
tp54
a(S'tr_tl'
I28
tp55
a(S'w'
I1
tp56
a(S'tr_ll'
I1
tp57
a(S'tr_th'
I1
tp58
a(S'w'
I7333
tp59
a(S'tr_lr'
I12
tp60
a(S'w'
I3670
tp61
a(S'tr_tl'
I82
tp62
a(S'tr_ll'
I1
tp63
a(S'w'
I3668
tp64
a(S'tr_lr'
I32
tp65
a(S'w'
I1
tp66
a(S'tr_tl'
I63
tp67
a(S'tr_ll'
I1
tp68
a(S'w'
I7337
tp69
a(S'tr_lr'
I12
tp70
a(S'w'
I3670
tp71
a(S'tr_tl'
I28
tp72
a(S'tr_ll'
I1
tp73
a(S'w'
I3668
tp74
a(S'tr_lr'
I32
tp75
a(S'w'
I7337
tp76
a(S'tr_lr'
I12
tp77
a(S'w'
I3670
tp78
a(S'tr_tl'
I212
tp79
a(S'tr_ll'
I1
tp80
a(S'tr_th'
I0
tp81
a(S'w'
I3669
tp82
a(S'tr_tl'
I225
tp83
a(S'tr_ll'
I1
tp84
a(S'w'
I3669
tp85
a(S'tr_tl'
I212
tp86
a(S'tr_ll'
I1
tp87
a(S'w'
I3669
tp88
a(S'tr_tl'
I225
tp89
a(S'tr_ll'
I1
tp90
a(S'w'
I3669
tp91
a(S'tr_tl'
I212
tp92
a(S'tr_ll'
I1
tp93
a(S'w'
I3672
tp94
a(S'tr_lr'
I32
tp95
a(S'tr_tl'
I253
tp96
a(S'w'
I1
tp97
a(S'tr_ll'
I1
tp98
a(S'w'
I7333
tp99
a(S'tr_lr'
I12
tp100
a(S'w'
I3670
tp101
a(S'tr_tl'
I63
tp102
a(S'tr_ll'
I1
tp103
a(S'tr_th'
I1
tp104
a(S'w'
I3668
tp105
a(S'tr_lr'
I32
tp106
a(S'w'
I1
tp107
a(S'tr_tl'
I28
tp108
a(S'tr_ll'
I1
tp109
a(S'w'
I7337
tp110
a(S'tr_lr'
I12
tp111
a(S'w'
I3670
tp112
a(S'tr_tl'
I253
tp113
a(S'tr_ll'
I1
tp114
a(S'tr_th'
I0
tp115
a(S'w'
I3668
tp116
a(S'tr_lr'
I32
tp117
a(S'w'
I7338
tp118
a(S'tr_lr'
I12
tp119
a(S'w'
I3670
tp120
a(S'tr_tl'
I189
tp121
a(S'tr_ll'
I1
tp122
a(S'w'
I3669
tp123
a(S'tr_tl'
I200
tp124
a(S'tr_ll'
I1
tp125
a(S'w'
I3669
tp126
a(S'tr_tl'
I189
tp127
a(S'tr_ll'
I1
tp128
a(S'w'
I3669
tp129
a(S'tr_tl'
I200
tp130
a(S'tr_ll'
I1
tp131
a(S'w'
I3669
tp132
a(S'tr_tl'
I189
tp133
a(S'tr_ll'
I1
tp134
a(S'w'
I3672
tp135
a(S'tr_lr'
I32
tp136
a(S'tr_tl'
I253
tp137
a(S'w'
I1
tp138
a(S'tr_ll'
I1
tp139
a(S'w'
I7332
tp140
a(S'tr_lr'
I12
tp141
a(S'w'
I3670
tp142
a(S'tr_tl'
I63
tp143
a(S'tr_ll'
I1
tp144
a(S'tr_th'
I1
tp145
a(S'w'
I3668
tp146
a(S'tr_lr'
I32
tp147
a(S'w'
I1
tp148
a(S'tr_tl'
I28
tp149
a(S'tr_ll'
I1
tp150
a(S'w'
I7337
tp151
a(S'tr_lr'
I12
tp152
a(S'w'
I3670
tp153
a(S'tr_tl'
I253
tp154
a(S'tr_ll'
I1
tp155
a(S'tr_th'
I0
tp156
a(S'w'
I3668
tp157
a(S'tr_lr'
I32
tp158
a(S'w'
I7338
tp159
a(S'tr_lr'
I12
tp160
a(S'w'
I3670
tp161
a(S'tr_tl'
I189
tp162
a(S'tr_ll'
I1
tp163
a(S'w'
I3669
tp164
a(S'tr_tl'
I200
tp165
a(S'tr_ll'
I1
tp166
a(S'w'
I3669
tp167
a(S'tr_tl'
I189
tp168
a(S'tr_ll'
I1
tp169
a(S'w'
I3669
tp170
a(S'tr_tl'
I200
tp171
a(S'tr_ll'
I1
tp172
a(S'w'
I3669
tp173
a(S'tr_tl'
I189
tp174
a(S'tr_ll'
I1
tp175
a(S'w'
I3672
tp176
a(S'tr_lr'
I32
tp177
a(S'tr_tl'
I225
tp178
a(S'w'
I1
tp179
a(S'tr_ll'
I1
tp180
a(S'w'
I7333
tp181
a(S'tr_lr'
I12
tp182
a(S'w'
I3670
tp183
a(S'tr_tl'
I28
tp184
a(S'tr_ll'
I1
tp185
a(S'tr_th'
I1
tp186
a(S'w'
I3668
tp187
a(S'tr_lr'
I32
tp188
a(S'w'
I1
tp189
a(S'tr_tl'
I253
tp190
a(S'tr_ll'
I1
tp191
a(S'tr_th'
I0
tp192
a(S'w'
I7337
tp193
a(S'tr_lr'
I12
tp194
a(S'w'
I3670
tp195
a(S'tr_tl'
I225
tp196
a(S'tr_ll'
I1
tp197
a(S'w'
I3668
tp198
a(S'tr_lr'
I32
tp199
a(S'w'
I7337
tp200
a(S'tr_lr'
I12
tp201
a(S'w'
I3670
tp202
a(S'tr_tl'
I159
tp203
a(S'tr_ll'
I1
tp204
a(S'w'
I3669
tp205
a(S'tr_tl'
I168
tp206
a(S'tr_ll'
I1
tp207
a(S'w'
I3669
tp208
a(S'tr_tl'
I159
tp209
a(S'tr_ll'
I1
tp210
a(S'w'
I3669
tp211
a(S'tr_tl'
I168
tp212
a(S'tr_ll'
I1
tp213
a(S'w'
I3669
tp214
a(S'tr_tl'
I159
tp215
a(S'tr_ll'
I1
tp216
a(S'w'
I3672
tp217
a(S'tr_lr'
I32
tp218
a(S'tr_tl'
I225
tp219
a(S'w'
I1
tp220
a(S'tr_ll'
I1
tp221
a(S'w'
I7333
tp222
a(S'tr_lr'
I12
tp223
a(S'w'
I3670
tp224
a(S'tr_tl'
I28
tp225
a(S'tr_ll'
I1
tp226
a(S'tr_th'
I1
tp227
a(S'w'
I3668
tp228
a(S'tr_lr'
I32
tp229
a(S'w'
I1
tp230
a(S'tr_tl'
I253
tp231
a(S'tr_ll'
I1
tp232
a(S'tr_th'
I0
tp233
a(S'w'
I7337
tp234
a(S'tr_lr'
I12
tp235
a(S'w'
I3670
tp236
a(S'tr_tl'
I225
tp237
a(S'tr_ll'
I1
tp238
a(S'w'
I3668
tp239
a(S'tr_lr'
I32
tp240
a(S'w'
I7338
tp241
a(S'tr_lr'
I12
tp242
a(S'w'
I3670
tp243
a(S'tr_tl'
I159
tp244
a(S'tr_ll'
I1
tp245
a(S'w'
I3669
tp246
a(S'tr_tl'
I168
tp247
a(S'tr_ll'
I1
tp248
a(S'w'
I3669
tp249
a(S'tr_tl'
I159
tp250
a(S'tr_ll'
I1
tp251
a(S'w'
I3669
tp252
a(S'tr_tl'
I168
tp253
a(S'tr_ll'
I1
tp254
a(S'w'
I3669
tp255
a(S'tr_tl'
I159
tp256
a(S'tr_ll'
I1
tp257
a(S'w'
I3671
tp258
a(S'tr_lr'
I16
tp259
a(S'tr_tl'
I168
tp260
a(S'w'
I1
tp261
a(S'tr_ll'
I1
tp262
a(S'w'
I4398
tp263
a(S'tr_lr'
I20
tp264
a(S'w'
I1
tp265
a(S'tr_tl'
I212
tp266
a(S'tr_ll'
I1
tp267
a(S'w'
I5137
tp268
a(S'tr_tl'
I28
tp269
a(S'tr_ll'
I1
tp270
a(S'tr_th'
I1
tp271
a(S'w'
I5135
tp272
a(S'tr_lr'
I16
tp273
a(S'w'
I1
tp274
a(S'tr_tl'
I168
tp275
a(S'tr_ll'
I1
tp276
a(S'tr_th'
I0
tp277
a(S'w'
I4402
tp278
a(S'tr_lr'
I20
tp279
a(S'w'
I1
tp280
a(S'tr_tl'
I212
tp281
a(S'tr_ll'
I1
tp282
a(S'w'
I5137
tp283
a(S'tr_tl'
I28
tp284
a(S'tr_ll'
I1
tp285
a(S'tr_th'
I1
tp286
a(S'w'
I5135
tp287
a(S'tr_lr'
I16
tp288
a(S'w'
I1
tp289
a(S'tr_tl'
I159
tp290
a(S'tr_ll'
I1
tp291
a(S'tr_th'
I0
tp292
a(S'w'
I4402
tp293
a(S'tr_lr'
I20
tp294
a(S'w'
I1
tp295
a(S'tr_tl'
I189
tp296
a(S'tr_ll'
I1
tp297
a(S'w'
I5136
tp298
a(S'tr_tl'
I253
tp299
a(S'tr_ll'
I1
tp300
a(S'w'
I5136
tp301
a(S'tr_lr'
I16
tp302
a(S'w'
I1
tp303
a(S'tr_tl'
I159
tp304
a(S'tr_ll'
I1
tp305
a(S'w'
I4402
tp306
a(S'tr_lr'
I20
tp307
a(S'w'
I1
tp308
a(S'tr_tl'
I189
tp309
a(S'tr_ll'
I1
tp310
a(S'w'
I5136
tp311
a(S'tr_tl'
I253
tp312
a(S'tr_ll'
I1
tp313
a(S'w'
I5140
tp314
a(S'tr_lr'
I16
tp315
a(S'tr_tl'
I150
tp316
a(S'w'
I1
tp317
a(S'tr_ll'
I1
tp318
a(S'w'
I4398
tp319
a(S'tr_lr'
I20
tp320
a(S'w'
I1
tp321
a(S'tr_tl'
I189
tp322
a(S'tr_ll'
I1
tp323
a(S'w'
I5136
tp324
a(S'tr_tl'
I212
tp325
a(S'tr_ll'
I1
tp326
a(S'w'
I5136
tp327
a(S'tr_lr'
I16
tp328
a(S'w'
I1
tp329
a(S'tr_tl'
I150
tp330
a(S'tr_ll'
I1
tp331
a(S'w'
I4401
tp332
a(S'tr_lr'
I20
tp333
a(S'w'
I1
tp334
a(S'tr_tl'
I189
tp335
a(S'tr_ll'
I1
tp336
a(S'w'
I5137
tp337
a(S'tr_tl'
I212
tp338
a(S'tr_ll'
I1
tp339
a(S'w'
I5135
tp340
a(S'tr_lr'
I16
tp341
a(S'w'
I1
tp342
a(S'tr_tl'
I141
tp343
a(S'tr_ll'
I1
tp344
a(S'w'
I4402
tp345
a(S'tr_lr'
I20
tp346
a(S'w'
I1
tp347
a(S'tr_tl'
I159
tp348
a(S'tr_ll'
I1
tp349
a(S'w'
I5137
tp350
a(S'tr_tl'
I189
tp351
a(S'tr_ll'
I1
tp352
a(S'w'
I5135
tp353
a(S'tr_lr'
I16
tp354
a(S'w'
I1
tp355
a(S'tr_tl'
I225
tp356
a(S'tr_ll'
I1
tp357
a(S'w'
I4402
tp358
a(S'tr_lr'
I20
tp359
a(S'w'
I1
tp360
a(S'tr_tl'
I238
tp361
a(S'tr_ll'
I1
tp362
a(S'w'
I5137
tp363
a(S'tr_tl'
I253
tp364
a(S'tr_ll'
I1
tp365
a(S'w'
I5128
tp366
a.