(lp1
(S'clock'
p2
I1789772
tp3
a(S'p1_cv'
I1
tp4
a(S'p1_vo'
I15
tp5
a(S'w'
I1
tp6
a(S'p1_se'
I1
tp7
a(S'p1_sp'
I7
tp8
a(S'p1_tl'
I46
tp9
a(S'p1_ll'
I8
tp10
a(S'p1_th'
I1
tp11
a(S'w'
I3
tp12
a(S'p2_du'
I1
tp13
a(S'p2_cv'
I1
tp14
a(S'p2_vo'
I6
tp15
a(S'p2_se'
I1
tp16
a(S'p2_sp'
I7
tp17
a(S'p2_tl'
I240
tp18
a(S'p2_ll'
I1
tp19
a(S'w'
I3
tp20
a(S'no_np'
I1
tp21
a(S'no_ll'
I31
tp22
a(S'w'
I3
tp23
a(S'tr_lh'
I1
tp24
a(S'tr_lr'
I1
tp25
a(S'tr_tl'
I100
tp26
a(S'tr_ll'
I0
tp27
a(S'w'
I12453
tp28
a(S'p2_tl'
I240
tp29
a(S'w'
I1
tp30
a(S'p2_ll'
I1
tp31
a(S'w'
I3
tp32
a(S'no_ll'
I31
tp33
a(S'w'
I3
tp34
a(S'tr_ll'
I0
tp35
a(S'w'
I12468
tp36
a(S'p2_tl'
I240
tp37
a(S'p2_ll'
I1
tp38
a(S'w'
I3
tp39
a(S'no_ll'
I31
tp40
a(S'w'
I3
tp41
a(S'tr_ll'
I0
tp42
a(S'w'
I12469
tp43
a(S'p2_tl'
I226
tp44
a(S'p2_ll'
I1
tp45
a(S'w'
I3
tp46
a(S'no_ll'
I31
tp47
a(S'w'
I3
tp48
a(S'tr_tl'
I95
tp49
a(S'tr_ll'
I0
tp50
a(S'w'
I12471
tp51
a(S'p1_tl'
I147
tp52
a(S'p1_ll'
I8
tp53
a(S'w'
I3
tp54
a(S'p2_tl'
I240
tp55
a(S'p2_ll'
I1
tp56
a(S'w'
I3
tp57
a(S'no_ll'
I31
tp58
a(S'w'
I3
tp59
a(S'tr_tl'
I100
tp60
a(S'w'
I1
tp61
a(S'tr_ll'
I0
tp62
a(S'w'
I12462
tp63
a(S'p2_tl'
I13
tp64
a(S'p2_ll'
I1
tp65
a(S'p2_th'
I1
tp66
a(S'w'
I3
tp67
a(S'no_ll'
I31
tp68
a(S'w'
I3
tp69
a(S'tr_tl'
I113
tp70
a(S'tr_ll'
I0
tp71
a(S'w'
I12476
tp72
a(S'p1_tl'
I0
tp73
a(S'w'
I1
tp74
a(S'p1_ll'
I8
tp75
a(S'p1_th'
I0
tp76
a(S'w'
I2
tp77
a(S'p2_tl'
I240
tp78
a(S'w'
I1
tp79
a(S'p2_ll'
I1
tp80
a(S'p2_th'
I0
tp81
a(S'w'
I3
tp82
a(S'no_ll'
I31
tp83
a(S'w'
I3
tp84
a(S'tr_tl'
I100
tp85
a(S'tr_ll'
I0
tp86
a(S'w'
I12452
tp87
a(S'p1_du'
I3
tp88
a(S'p1_cv'
I0
tp89
a(S'p1_vo'
I12
tp90
a(S'p1_tl'
I147
tp91
a(S'w'
I1
tp92
a(S'p1_ll'
I8
tp93
a(S'p1_th'
I1
tp94
a(S'w'
I4
tp95
a(S'no_ll'
I31
tp96
a(S'w'
I12468
tp97
a(S'p1_tl'
I46
tp98
a(S'p1_ll'
I8
tp99
a(S'w'
I5
tp100
a(S'no_ll'
I31
tp101
a(S'w'
I12470
tp102
a(S'p1_tl'
I147
tp103
a(S'p1_ll'
I8
tp104
a(S'w'
I4
tp105
a(S'w'
I1
tp106
a(S'no_ll'
I31
tp107
a(S'w'
I12469
tp108
a(S'p1_tl'
I46
tp109
a(S'w'
I1
tp110
a(S'p1_ll'
I8
tp111
a(S'w'
I4
tp112
a(S'no_ll'
I31
tp113
a(S'w'
I12479
tp114
a(S'p1_tl'
I147
tp115
a(S'w'
I1
tp116
a(S'p1_ll'
I8
tp117
a(S'w'
I4
tp118
a(S'no_ll'
I31
tp119
a(S'w'
I3
tp120
a(S'tr_tl'
I0
tp121
a(S'tr_ll'
I0
tp122
a(S'w'
I12468
tp123
a(S'p1_du'
I0
tp124
a(S'p1_cv'
I1
tp125
a(S'p1_vo'
I15
tp126
a(S'w'
I1
tp127
a(S'p1_tl'
I46
tp128
a(S'p1_ll'
I8
tp129
a(S'w'
I3
tp130
a(S'p2_tl'
I240
tp131
a(S'p2_ll'
I1
tp132
a(S'w'
I3
tp133
a(S'no_ll'
I31
tp134
a(S'w'
I3
tp135
a(S'tr_tl'
I100
tp136
a(S'tr_ll'
I0
tp137
a(S'w'
I12461
tp138
a(S'p2_tl'
I240
tp139
a(S'p2_ll'
I1
tp140
a(S'w'
I3
tp141
a(S'no_ll'
I31
tp142
a(S'w'
I3
tp143
a(S'tr_ll'
I0
tp144
a(S'w'
I12469
tp145
a(S'p2_tl'
I240
tp146
a(S'p2_ll'
I1
tp147
a(S'w'
I3
tp148
a(S'no_ll'
I31
tp149
a(S'w'
I3
tp150
a(S'tr_ll'
I0
tp151
a(S'w'
I12468
tp152
a(S'p2_tl'
I226
tp153
a(S'p2_ll'
I1
tp154
a(S'w'
I3
tp155
a(S'w'
I1
tp156
a(S'no_ll'
I31
tp157
a(S'w'
I2
tp158
a(S'tr_tl'
I95
tp159
a(S'w'
I1
tp160
a(S'tr_ll'
I0
tp161
a(S'w'
I12470
tp162
a(S'p1_tl'
I147
tp163
a(S'w'
I1
tp164
a(S'p1_ll'
I8
tp165
a(S'w'
I3
tp166
a(S'p2_tl'
I240
tp167
a(S'p2_ll'
I1
tp168
a(S'w'
I3
tp169
a(S'no_ll'
I31
tp170
a(S'w'
I3
tp171
a(S'tr_tl'
I100
tp172
a(S'tr_ll'
I0
tp173
a(S'w'
I12462
tp174
a(S'p2_tl'
I226
tp175
a(S'w'
I1
tp176
a(S'p2_ll'
I1
tp177
a(S'w'
I3
tp178
a(S'no_ll'
I31
tp179
a(S'w'
I3
tp180
a(S'tr_tl'
I95
tp181
a(S'tr_ll'
I0
tp182
a(S'w'
I12471
tp183
a(S'p1_tl'
I83
tp184
a(S'p1_ll'
I8
tp185
a(S'w'
I3
tp186
a(S'p2_tl'
I226
tp187
a(S'p2_ll'
I1
tp188
a(S'w'
I3
tp189
a(S'no_ll'
I31
tp190
a(S'w'
I3
tp191
a(S'tr_tl'
I84
tp192
a(S'tr_ll'
I0
tp193
a(S'w'
I12459
tp194
a(S'p2_du'
I3
tp195
a(S'p2_cv'
I0
tp196
a(S'p2_vo'
I8
tp197
a(S'p2_tl'
I197
tp198
a(S'p2_ll'
I1
tp199
a(S'p2_th'
I1
tp200
a(S'w'
I3
tp201
a(S'w'
I1
tp202
a(S'no_ll'
I31
tp203
a(S'w'
I12472
tp204
a(S'p1_tl'
I103
tp205
a(S'p1_ll'
I8
tp206
a(S'w'
I3
tp207
a(S'p2_tl'
I83
tp208
a(S'p2_ll'
I1
tp209
a(S'w'
I3
tp210
a(S'no_ll'
I31
tp211
a(S'w'
I12466
tp212
a(S'p2_tl'
I197
tp213
a(S'p2_ll'
I1
tp214
a(S'w'
I3
tp215
a(S'no_ll'
I31
tp216
a(S'w'
I12479
tp217
a(S'p1_tl'
I125
tp218
a(S'p1_ll'
I8
tp219
a(S'w'
I3
tp220
a(S'p2_tl'
I83
tp221
a(S'p2_ll'
I1
tp222
a(S'w'
I3
tp223
a(S'no_ll'
I31
tp224
a(S'w'
I3
tp225
a(S'tr_ll'
I0
tp226
a(S'w'
I12458
tp227
a(S'p2_tl'
I197
tp228
a(S'p2_ll'
I1
tp229
a(S'w'
I3
tp230
a(S'no_ll'
I31
tp231
a(S'w'
I12486
tp232
a(S'p1_tl'
I46
tp233
a(S'p1_ll'
I8
tp234
a(S'w'
I3
tp235
a(S'p2_vo'
I11
tp236
a(S'p2_tl'
I0
tp237
a(S'p2_ll'
I1
tp238
a(S'p2_th'
I0
tp239
a(S'w'
I3
tp240
a(S'no_ll'
I31
tp241
a(S'w'
I3
tp242
a(S'tr_tl'
I75
tp243
a(S'w'
I1
tp244
a(S'tr_ll'
I0
tp245
a(S'w'
I12450
tp246
a(S'p2_tl'
I147
tp247
a(S'w'
I1
tp248
a(S'p2_ll'
I1
tp249
a(S'p2_th'
I1
tp250
a(S'w'
I2
tp251
a(S'w'
I1
tp252
a(S'no_ll'
I31
tp253
a(S'w'
I12471
tp254
a(S'p2_tl'
I46
tp255
a(S'p2_ll'
I1
tp256
a(S'w'
I3
tp257
a(S'no_ll'
I31
tp258
a(S'w'
I12472
tp259
a(S'p2_tl'
I147
tp260
a(S'p2_ll'
I1
tp261
a(S'w'
I3
tp262
a(S'no_ll'
I31
tp263
a(S'w'
I12471
tp264
a(S'p2_tl'
I46
tp265
a(S'p2_ll'
I1
tp266
a(S'w'
I3
tp267
a(S'w'
I1
tp268
a(S'no_ll'
I31
tp269
a(S'w'
I12471
tp270
a(S'p2_tl'
I147
tp271
a(S'p2_ll'
I1
tp272
a(S'w'
I3
tp273
a(S'no_ll'
I31
tp274
a(S'w'
I12477
tp275
a(S'p2_vo'
I15
tp276
a(S'w'
I1
tp277
a(S'p2_tl'
I46
tp278
a(S'p2_ll'
I1
tp279
a(S'w'
I3
tp280
a(S'no_np'
I2
tp281
a(S'no_ll'
I31
tp282
a(S'w'
I3
tp283
a(S'tr_ll'
I0
tp284
a(S'w'
I16135
tp285
a(S'p1_du'
I3
tp286
a(S'p1_cv'
I0
tp287
a(S'p1_vo'
I12
tp288
a(S'p1_tl'
I147
tp289
a(S'w'
I1
tp290
a(S'p1_ll'
I8
tp291
a(S'w'
I2
tp292
a(S'p2_tl'
I147
tp293
a(S'w'
I1
tp294
a(S'p2_ll'
I1
tp295
a(S'w'
I3
tp296
a(S'no_ll'
I31
tp297
a(S'w'
I16135
tp298
a(S'p1_tl'
I46
tp299
a(S'w'
I1
tp300
a(S'p1_ll'
I8
tp301
a(S'w'
I2
tp302
a(S'p2_tl'
I46
tp303
a(S'w'
I1
tp304
a(S'p2_ll'
I1
tp305
a(S'w'
I3
tp306
a(S'no_ll'
I31
tp307
a(S'w'
I16146
tp308
a(S'p1_tl'
I147
tp309
a(S'p1_ll'
I8
tp310
a(S'w'
I3
tp311
a(S'p2_tl'
I147
tp312
a(S'w'
I1
tp313
a(S'p2_ll'
I1
tp314
a(S'w'
I2
tp315
a(S'w'
I1
tp316
a(S'no_ll'
I31
tp317
a(S'w'
I3
tp318
a(S'tr_tl'
I0
tp319
a(S'tr_ll'
I0
tp320
a(S'w'
I16860
tp321
a(S'p1_vo'
I15
tp322
a(S'p1_tl'
I46
tp323
a(S'p1_ll'
I8
tp324
a(S'w'
I3
tp325
a(S'p2_tl'
I46
tp326
a(S'p2_ll'
I1
tp327
a(S'w'
I3
tp328
a(S'w'
I1
tp329
a(S'no_ll'
I31
tp330
a(S'w'
I33007
tp331
a(S'p1_du'
I1
tp332
a(S'p1_lh'
I1
tp333
a(S'p1_cv'
I1
tp334
a(S'p1_vo'
I0
tp335
a(S'p1_se'
I0
tp336
a(S'p1_sp'
I0
tp337
a(S'p1_tl'
I0
tp338
a(S'p1_ll'
I0
tp339
a(S'p1_th'
I0
tp340
a(S'w'
I1
tp341
a(S'p2_du'
I1
tp342
a(S'p2_lh'
I1
tp343
a(S'p2_cv'
I1
tp344
a(S'p2_vo'
I0
tp345
a(S'p2_se'
I0
tp346
a(S'p2_sp'
I0
tp347
a(S'p2_tl'
I0
tp348
a(S'p2_ll'
I0
tp349
a(S'p2_th'
I0
tp350
a(S'w'
I1
tp351
a(S'tr_lh'
I0
tp352
a(S'tr_lr'
I112
tp353
a(S'tr_ll'
I0
tp354
a(S'w'
I1
tp355
a(S'no_nl'
I1
tp356
a(S'no_np'
I15
tp357
a(S'w'
I721
tp358
a.