(lp1
(S'clock'
p2
I1789772
tp3
a(S'p1_vo'
I6
tp4
a(S'p1_sp'
I1
tp5
a(S'p1_tl'
I138
tp6
a(S'p1_ll'
I1
tp7
a(S'p1_th'
I3
tp8
a(S'w'
I3
tp9
a(S'p2_cv'
I1
tp10
a(S'p2_vo'
I8
tp11
a(S'p2_tl'
I252
tp12
a(S'w'
I1
tp13
a(S'p2_ll'
I11
tp14
a(S'p2_th'
I1
tp15
a(S'w'
I2
tp16
a(S'tr_lr'
I112
tp17
a(S'tr_ll'
I0
tp18
a(S'w'
I1
tp19
a(S'w'
I712
tp20
a(S'tr_ll'
I0
tp21
a(S'w'
I1
tp22
a(S'w'
I733
tp23
a(S'tr_ll'
I0
tp24
a(S'w'
I1
tp25
a(S'w'
I733
tp26
a(S'tr_ll'
I0
tp27
a(S'w'
I1
tp28
a(S'w'
I733
tp29
a(S'tr_ll'
I0
tp30
a(S'w'
I1
tp31
a(S'w'
I732
tp32
a(S'tr_ll'
I0
tp33
a(S'w'
I1
tp34
a(S'w'
I733
tp35
a(S'tr_ll'
I0
tp36
a(S'w'
I1
tp37
a(S'w'
I733
tp38
a(S'tr_ll'
I0
tp39
a(S'w'
I1
tp40
a(S'w'
I733
tp41
a(S'tr_ll'
I0
tp42
a(S'w'
I1
tp43
a(S'w'
I733
tp44
a(S'tr_ll'
I0
tp45
a(S'w'
I1
tp46
a(S'w'
I732
tp47
a(S'tr_ll'
I0
tp48
a(S'w'
I1
tp49
a(S'w'
I733
tp50
a(S'tr_ll'
I0
tp51
a(S'w'
I1
tp52
a(S'w'
I733
tp53
a(S'tr_ll'
I0
tp54
a(S'w'
I1
tp55
a(S'w'
I733
tp56
a(S'tr_ll'
I0
tp57
a(S'w'
I1
tp58
a(S'w'
I733
tp59
a(S'tr_ll'
I0
tp60
a(S'w'
I1
tp61
a(S'w'
I735
tp62
a(S'p2_tl'
I27
tp63
a(S'p2_ll'
I11
tp64
a(S'p2_th'
I2
tp65
a(S'w'
I3
tp66
a(S'tr_ll'
I0
tp67
a(S'w'
I1
tp68
a(S'w'
I727
tp69
a(S'tr_ll'
I0
tp70
a(S'w'
I1
tp71
a(S'w'
I733
tp72
a(S'tr_ll'
I0
tp73
a(S'w'
I1
tp74
a(S'w'
I733
tp75
a(S'tr_ll'
I0
tp76
a(S'w'
I1
tp77
a(S'w'
I733
tp78
a(S'tr_ll'
I0
tp79
a(S'w'
I1
tp80
a(S'w'
I732
tp81
a(S'tr_ll'
I0
tp82
a(S'w'
I1
tp83
a(S'w'
I733
tp84
a(S'tr_ll'
I0
tp85
a(S'w'
I1
tp86
a(S'w'
I736
tp87
a(S'p2_tl'
I59
tp88
a(S'p2_ll'
I11
tp89
a(S'w'
I3
tp90
a(S'tr_ll'
I0
tp91
a(S'w'
I1
tp92
a(S'w'
I727
tp93
a(S'tr_ll'
I0
tp94
a(S'w'
I1
tp95
a(S'w'
I733
tp96
a(S'tr_ll'
I0
tp97
a(S'w'
I1
tp98
a(S'w'
I732
tp99
a(S'tr_ll'
I0
tp100
a(S'w'
I1
tp101
a(S'w'
I733
tp102
a(S'tr_ll'
I0
tp103
a(S'w'
I1
tp104
a(S'w'
I733
tp105
a(S'tr_ll'
I0
tp106
a(S'w'
I1
tp107
a(S'w'
I733
tp108
a(S'tr_ll'
I0
tp109
a(S'w'
I1
tp110
a(S'w'
I732
tp111
a(S'tr_ll'
I0
tp112
a(S'w'
I1
tp113
a(S'w'
I738
tp114
a(S'w'
I1
tp115
a(S'p1_ll'
I1
tp116
a(S'w'
I3
tp117
a(S'p2_tl'
I252
tp118
a(S'p2_ll'
I11
tp119
a(S'p2_th'
I1
tp120
a(S'w'
I3
tp121
a(S'tr_ll'
I0
tp122
a(S'w'
I722
tp123
a(S'tr_ll'
I0
tp124
a(S'w'
I1
tp125
a(S'w'
I733
tp126
a(S'tr_ll'
I0
tp127
a(S'w'
I1
tp128
a(S'w'
I733
tp129
a(S'tr_ll'
I0
tp130
a(S'w'
I1
tp131
a(S'w'
I732
tp132
a(S'tr_ll'
I0
tp133
a(S'w'
I1
tp134
a(S'w'
I733
tp135
a(S'tr_ll'
I0
tp136
a(S'w'
I1
tp137
a(S'w'
I733
tp138
a(S'tr_ll'
I0
tp139
a(S'w'
I1
tp140
a(S'w'
I733
tp141
a(S'tr_ll'
I0
tp142
a(S'w'
I1
tp143
a(S'w'
I733
tp144
a(S'tr_ll'
I0
tp145
a(S'w'
I1
tp146
a(S'w'
I732
tp147
a(S'tr_ll'
I0
tp148
a(S'w'
I1
tp149
a(S'w'
I733
tp150
a(S'tr_ll'
I0
tp151
a(S'w'
I1
tp152
a(S'w'
I733
tp153
a(S'tr_ll'
I0
tp154
a(S'w'
I1
tp155
a(S'w'
I733
tp156
a(S'tr_ll'
I0
tp157
a(S'w'
I1
tp158
a(S'w'
I733
tp159
a(S'tr_ll'
I0
tp160
a(S'w'
I1
tp161
a(S'w'
I732
tp162
a(S'tr_ll'
I0
tp163
a(S'w'
I1
tp164
a(S'w'
I736
tp165
a(S'p2_tl'
I27
tp166
a(S'p2_ll'
I11
tp167
a(S'p2_th'
I2
tp168
a(S'w'
I3
tp169
a(S'tr_ll'
I0
tp170
a(S'w'
I728
tp171
a(S'tr_ll'
I0
tp172
a(S'w'
I1
tp173
a(S'w'
I733
tp174
a(S'tr_ll'
I0
tp175
a(S'w'
I1
tp176
a(S'w'
I733
tp177
a(S'tr_ll'
I0
tp178
a(S'w'
I1
tp179
a(S'w'
I732
tp180
a(S'tr_ll'
I0
tp181
a(S'w'
I1
tp182
a(S'w'
I733
tp183
a(S'tr_ll'
I0
tp184
a(S'w'
I1
tp185
a(S'w'
I733
tp186
a(S'tr_ll'
I0
tp187
a(S'w'
I1
tp188
a(S'w'
I736
tp189
a(S'p2_tl'
I59
tp190
a(S'p2_ll'
I11
tp191
a(S'w'
I3
tp192
a(S'tr_ll'
I0
tp193
a(S'w'
I727
tp194
a(S'tr_ll'
I0
tp195
a(S'w'
I1
tp196
a(S'w'
I733
tp197
a(S'tr_ll'
I0
tp198
a(S'w'
I1
tp199
a(S'w'
I733
tp200
a(S'tr_ll'
I0
tp201
a(S'w'
I1
tp202
a(S'w'
I733
tp203
a(S'tr_ll'
I0
tp204
a(S'w'
I1
tp205
a(S'w'
I733
tp206
a(S'tr_ll'
I0
tp207
a(S'w'
I1
tp208
a(S'w'
I732
tp209
a(S'tr_ll'
I0
tp210
a(S'w'
I1
tp211
a(S'w'
I733
tp212
a(S'tr_ll'
I0
tp213
a(S'w'
I1
tp214
a(S'w'
I739
tp215
a(S'p1_ll'
I1
tp216
a(S'w'
I3
tp217
a(S'p2_tl'
I252
tp218
a(S'p2_ll'
I11
tp219
a(S'p2_th'
I1
tp220
a(S'w'
I3
tp221
a(S'tr_ll'
I0
tp222
a(S'w'
I722
tp223
a(S'tr_ll'
I0
tp224
a(S'w'
I1
tp225
a(S'w'
I733
tp226
a(S'tr_ll'
I0
tp227
a(S'w'
I1
tp228
a(S'w'
I732
tp229
a(S'tr_ll'
I0
tp230
a(S'w'
I1
tp231
a(S'w'
I733
tp232
a(S'tr_ll'
I0
tp233
a(S'w'
I1
tp234
a(S'w'
I733
tp235
a(S'tr_ll'
I0
tp236
a(S'w'
I1
tp237
a(S'w'
I733
tp238
a(S'tr_ll'
I0
tp239
a(S'w'
I1
tp240
a(S'w'
I733
tp241
a(S'tr_ll'
I0
tp242
a(S'w'
I1
tp243
a(S'w'
I732
tp244
a(S'tr_ll'
I0
tp245
a(S'w'
I1
tp246
a(S'w'
I733
tp247
a(S'tr_ll'
I0
tp248
a(S'w'
I1
tp249
a(S'w'
I733
tp250
a(S'tr_ll'
I0
tp251
a(S'w'
I1
tp252
a(S'w'
I733
tp253
a(S'tr_ll'
I0
tp254
a(S'w'
I1
tp255
a(S'w'
I733
tp256
a(S'tr_ll'
I0
tp257
a(S'w'
I1
tp258
a(S'w'
I732
tp259
a(S'tr_ll'
I0
tp260
a(S'w'
I1
tp261
a(S'w'
I733
tp262
a(S'tr_ll'
I0
tp263
a(S'w'
I1
tp264
a(S'w'
I736
tp265
a(S'p2_tl'
I27
tp266
a(S'p2_ll'
I11
tp267
a(S'p2_th'
I2
tp268
a(S'w'
I3
tp269
a(S'tr_ll'
I0
tp270
a(S'w'
I1
tp271
a(S'w'
I727
tp272
a(S'tr_ll'
I0
tp273
a(S'w'
I1
tp274
a(S'w'
I732
tp275
a(S'tr_ll'
I0
tp276
a(S'w'
I1
tp277
a(S'w'
I733
tp278
a(S'tr_ll'
I0
tp279
a(S'w'
I1
tp280
a(S'w'
I733
tp281
a(S'tr_ll'
I0
tp282
a(S'w'
I1
tp283
a(S'w'
I733
tp284
a(S'tr_ll'
I0
tp285
a(S'w'
I1
tp286
a(S'w'
I733
tp287
a(S'tr_ll'
I0
tp288
a(S'w'
I1
tp289
a(S'w'
I732
tp290
a(S'tr_ll'
I0
tp291
a(S'w'
I1
tp292
a(S'w'
I733
tp293
a(S'tr_ll'
I0
tp294
a(S'w'
I1
tp295
a(S'w'
I733
tp296
a(S'tr_ll'
I0
tp297
a(S'w'
I1
tp298
a(S'w'
I733
tp299
a(S'tr_ll'
I0
tp300
a(S'w'
I1
tp301
a(S'w'
I733
tp302
a(S'tr_ll'
I0
tp303
a(S'w'
I1
tp304
a(S'w'
I732
tp305
a(S'tr_ll'
I0
tp306
a(S'w'
I1
tp307
a(S'w'
I733
tp308
a(S'tr_ll'
I0
tp309
a(S'w'
I1
tp310
a(S'w'
I733
tp311
a(S'tr_ll'
I0
tp312
a(S'w'
I1
tp313
a(S'w'
I739
tp314
a(S'p1_ll'
I1
tp315
a(S'w'
I3
tp316
a(S'p2_tl'
I252
tp317
a(S'p2_ll'
I11
tp318
a(S'p2_th'
I1
tp319
a(S'w'
I3
tp320
a(S'tr_ll'
I0
tp321
a(S'w'
I722
tp322
a(S'tr_ll'
I0
tp323
a(S'w'
I1
tp324
a(S'w'
I732
tp325
a(S'tr_ll'
I0
tp326
a(S'w'
I1
tp327
a(S'w'
I733
tp328
a(S'tr_ll'
I0
tp329
a(S'w'
I1
tp330
a(S'w'
I733
tp331
a(S'tr_ll'
I0
tp332
a(S'w'
I1
tp333
a(S'w'
I733
tp334
a(S'tr_ll'
I0
tp335
a(S'w'
I1
tp336
a(S'w'
I733
tp337
a(S'tr_ll'
I0
tp338
a(S'w'
I1
tp339
a(S'w'
I732
tp340
a(S'tr_ll'
I0
tp341
a(S'w'
I1
tp342
a(S'w'
I733
tp343
a(S'tr_ll'
I0
tp344
a(S'w'
I1
tp345
a(S'w'
I733
tp346
a(S'tr_ll'
I0
tp347
a(S'w'
I1
tp348
a(S'w'
I735
tp349
a(S'p1_tl'
I171
tp350
a(S'p1_ll'
I1
tp351
a(S'p1_th'
I1
tp352
a(S'w'
I4
tp353
a(S'tr_ll'
I0
tp354
a(S'w'
I1
tp355
a(S'w'
I726
tp356
a(S'tr_ll'
I0
tp357
a(S'w'
I1
tp358
a(S'w'
I733
tp359
a(S'tr_ll'
I0
tp360
a(S'w'
I1
tp361
a(S'w'
I733
tp362
a(S'tr_ll'
I0
tp363
a(S'w'
I1
tp364
a(S'w'
I733
tp365
a(S'tr_ll'
I0
tp366
a(S'w'
I1
tp367
a(S'w'
I736
tp368
a(S'p2_tl'
I27
tp369
a(S'p2_ll'
I11
tp370
a(S'p2_th'
I2
tp371
a(S'w'
I3
tp372
a(S'tr_ll'
I0
tp373
a(S'w'
I1
tp374
a(S'w'
I726
tp375
a(S'tr_ll'
I0
tp376
a(S'w'
I1
tp377
a(S'w'
I733
tp378
a(S'tr_ll'
I0
tp379
a(S'w'
I1
tp380
a(S'w'
I733
tp381
a(S'tr_ll'
I0
tp382
a(S'w'
I1
tp383
a(S'w'
I733
tp384
a(S'tr_ll'
I0
tp385
a(S'w'
I1
tp386
a(S'w'
I735
tp387
a(S'p1_tl'
I125
tp388
a(S'p1_ll'
I1
tp389
a(S'w'
I4
tp390
a(S'tr_ll'
I0
tp391
a(S'w'
I1
tp392
a(S'w'
I726
tp393
a(S'tr_ll'
I0
tp394
a(S'w'
I1
tp395
a(S'w'
I736
tp396
a(S'p2_tl'
I59
tp397
a(S'p2_ll'
I11
tp398
a(S'w'
I3
tp399
a(S'tr_ll'
I0
tp400
a(S'w'
I1
tp401
a(S'w'
I727
tp402
a(S'tr_ll'
I0
tp403
a(S'w'
I1
tp404
a(S'w'
I733
tp405
a(S'tr_ll'
I0
tp406
a(S'w'
I1
tp407
a(S'w'
I733
tp408
a(S'tr_ll'
I0
tp409
a(S'w'
I1
tp410
a(S'w'
I732
tp411
a(S'tr_ll'
I0
tp412
a(S'w'
I1
tp413
a(S'w'
I733
tp414
a(S'tr_ll'
I0
tp415
a(S'w'
I1
tp416
a(S'w'
I733
tp417
a(S'tr_ll'
I0
tp418
a(S'w'
I1
tp419
a(S'w'
I733
tp420
a(S'tr_ll'
I0
tp421
a(S'w'
I1
tp422
a(S'w'
I743
tp423
a(S'p1_tl'
I138
tp424
a(S'p1_ll'
I1
tp425
a(S'p1_th'
I3
tp426
a(S'w'
I3
tp427
a(S'p2_tl'
I252
tp428
a(S'p2_ll'
I11
tp429
a(S'p2_th'
I1
tp430
a(S'w'
I3
tp431
a.