(lp1
(S'clock'
p2
I1789772
tp3
a(S'p1_cv'
I1
tp4
a(S'p1_ll'
I3
tp5
a(S'p2_cv'
I1
tp6
a(S'p2_ll'
I3
tp7
a(S'tr_ll'
I3
tp8
a(S'no_ll'
I3
tp9
a(S'ch_no'
I0
tp10
a(S'ch_tr'
I0
tp11
a(S'ch_p2'
I0
tp12
a(S'ch_p1'
I0
tp13
a(S'fc_mo'
I1
tp14
a(S'p1_du'
I3
tp15
a(S'p1_cv'
I0
tp16
a(S'p1_vo'
I15
tp17
a(S'w'
I2
tp18
a(S'p1_sn'
I1
tp19
a(S'w'
I3
tp20
a(S'p2_du'
I3
tp21
a(S'p2_cv'
I0
tp22
a(S'p2_vo'
I15
tp23
a(S'w'
I2
tp24
a(S'p2_sn'
I1
tp25
a(S'w'
I5
tp26
a(S'no_cv'
I1
tp27
a(S'w'
I2
tp28
a(S'ch_no'
I1
tp29
a(S'ch_tr'
I1
tp30
a(S'ch_p2'
I1
tp31
a(S'ch_p1'
I1
tp32
a(S'w'
I1
tp33
a(S'p1_tl'
I190
tp34
a(S'p1_ll'
I1
tp35
a(S'w'
I1
tp36
a(S'p2_tl'
I254
tp37
a(S'w'
I1
tp38
a(S'p2_ll'
I1
tp39
a(S'w'
I1
tp40
a(S'tr_lr'
I20
tp41
a(S'tr_tl'
I53
tp42
a(S'w'
I1
tp43
a(S'tr_ll'
I1
tp44
a(S'w'
I5112
tp45
a(S'tr_lr'
I24
tp46
a(S'w'
I1
tp47
a(S'tr_ll'
I1
tp48
a(S'w'
I5869
tp49
a(S'tr_lr'
I20
tp50
a(S'w'
I1
tp51
a(S'tr_ll'
I1
tp52
a(S'w'
I5136
tp53
a(S'tr_lr'
I24
tp54
a(S'tr_ll'
I1
tp55
a(S'w'
I5870
tp56
a(S'tr_lr'
I20
tp57
a(S'w'
I1
tp58
a(S'tr_ll'
I1
tp59
a(S'w'
I5136
tp60
a(S'tr_lr'
I24
tp61
a(S'w'
I1
tp62
a(S'tr_ll'
I1
tp63
a(S'w'
I5869
tp64
a(S'tr_lr'
I20
tp65
a(S'w'
I1
tp66
a(S'tr_ll'
I1
tp67
a(S'w'
I5136
tp68
a(S'tr_lr'
I24
tp69
a(S'w'
I1
tp70
a(S'tr_ll'
I1
tp71
a(S'w'
I5869
tp72
a(S'p1_tl'
I170
tp73
a(S'p1_ll'
I1
tp74
a(S'w'
I1
tp75
a(S'p2_tl'
I226
tp76
a(S'w'
I1
tp77
a(S'p2_ll'
I1
tp78
a(S'w'
I1
tp79
a(S'tr_lr'
I20
tp80
a(S'w'
I1
tp81
a(S'tr_ll'
I1
tp82
a(S'w'
I5133
tp83
a(S'tr_lr'
I24
tp84
a(S'w'
I1
tp85
a(S'tr_ll'
I1
tp86
a(S'w'
I5869
tp87
a(S'tr_lr'
I20
tp88
a(S'w'
I1
tp89
a(S'tr_ll'
I1
tp90
a(S'w'
I5136
tp91
a(S'tr_lr'
I24
tp92
a(S'w'
I1
tp93
a(S'tr_ll'
I1
tp94
a(S'w'
I5869
tp95
a(S'tr_lr'
I20
tp96
a(S'w'
I1
tp97
a(S'tr_ll'
I1
tp98
a(S'w'
I5136
tp99
a(S'tr_lr'
I24
tp100
a(S'w'
I1
tp101
a(S'tr_ll'
I1
tp102
a(S'w'
I5869
tp103
a(S'tr_lr'
I20
tp104
a(S'w'
I1
tp105
a(S'tr_ll'
I1
tp106
a(S'w'
I5136
tp107
a(S'tr_lr'
I24
tp108
a(S'w'
I1
tp109
a(S'tr_ll'
I1
tp110
a(S'w'
I5869
tp111
a(S'p1_tl'
I151
tp112
a(S'p1_ll'
I1
tp113
a(S'w'
I2
tp114
a(S'p2_tl'
I202
tp115
a(S'p2_ll'
I1
tp116
a(S'w'
I1
tp117
a(S'tr_lr'
I20
tp118
a(S'w'
I1
tp119
a(S'tr_ll'
I1
tp120
a(S'w'
I5133
tp121
a(S'tr_lr'
I24
tp122
a(S'w'
I1
tp123
a(S'tr_ll'
I1
tp124
a(S'w'
I5870
tp125
a(S'tr_lr'
I20
tp126
a(S'tr_ll'
I1
tp127
a(S'w'
I5136
tp128
a(S'tr_lr'
I24
tp129
a(S'w'
I1
tp130
a(S'tr_ll'
I1
tp131
a(S'w'
I5870
tp132
a(S'tr_lr'
I20
tp133
a(S'tr_ll'
I1
tp134
a(S'w'
I5136
tp135
a(S'tr_lr'
I24
tp136
a(S'w'
I1
tp137
a(S'tr_ll'
I1
tp138
a(S'w'
I5870
tp139
a(S'tr_lr'
I20
tp140
a(S'tr_ll'
I1
tp141
a(S'w'
I5136
tp142
a(S'tr_lr'
I24
tp143
a(S'w'
I1
tp144
a(S'tr_ll'
I1
tp145
a(S'w'
I5869
tp146
a(S'p1_tl'
I135
tp147
a(S'p1_ll'
I1
tp148
a(S'w'
I2
tp149
a(S'p2_tl'
I180
tp150
a(S'p2_ll'
I1
tp151
a(S'w'
I1
tp152
a(S'tr_lr'
I20
tp153
a(S'w'
I1
tp154
a(S'tr_ll'
I1
tp155
a(S'w'
I5133
tp156
a(S'tr_lr'
I24
tp157
a(S'w'
I1
tp158
a(S'tr_ll'
I1
tp159
a(S'w'
I5870
tp160
a(S'tr_lr'
I20
tp161
a(S'tr_ll'
I1
tp162
a(S'w'
I5136
tp163
a(S'tr_lr'
I24
tp164
a(S'w'
I1
tp165
a(S'tr_ll'
I1
tp166
a(S'w'
I5870
tp167
a(S'tr_lr'
I20
tp168
a(S'tr_ll'
I1
tp169
a(S'w'
I5136
tp170
a(S'tr_lr'
I24
tp171
a(S'w'
I1
tp172
a(S'tr_ll'
I1
tp173
a(S'w'
I5870
tp174
a(S'tr_lr'
I20
tp175
a(S'tr_ll'
I1
tp176
a(S'w'
I5136
tp177
a(S'tr_lr'
I24
tp178
a(S'w'
I1
tp179
a(S'tr_ll'
I1
tp180
a(S'w'
I5869
tp181
a(S'p1_tl'
I120
tp182
a(S'w'
I1
tp183
a(S'p1_ll'
I1
tp184
a(S'w'
I1
tp185
a(S'p2_tl'
I160
tp186
a(S'p2_ll'
I1
tp187
a(S'w'
I1
tp188
a(S'tr_lr'
I20
tp189
a(S'w'
I1
tp190
a(S'tr_ll'
I1
tp191
a(S'w'
I5133
tp192
a(S'tr_lr'
I24
tp193
a(S'w'
I1
tp194
a(S'tr_ll'
I1
tp195
a(S'w'
I5870
tp196
a(S'tr_lr'
I20
tp197
a(S'tr_ll'
I1
tp198
a(S'w'
I5136
tp199
a(S'tr_lr'
I24
tp200
a(S'w'
I1
tp201
a(S'tr_ll'
I1
tp202
a(S'w'
I5870
tp203
a(S'tr_lr'
I20
tp204
a(S'tr_ll'
I1
tp205
a(S'w'
I5136
tp206
a(S'tr_lr'
I24
tp207
a(S'w'
I1
tp208
a(S'tr_ll'
I1
tp209
a(S'w'
I5870
tp210
a(S'tr_lr'
I20
tp211
a(S'tr_ll'
I1
tp212
a(S'w'
I5136
tp213
a(S'tr_lr'
I24
tp214
a(S'w'
I1
tp215
a(S'tr_ll'
I1
tp216
a(S'w'
I5869
tp217
a(S'p1_tl'
I107
tp218
a(S'w'
I1
tp219
a(S'p1_ll'
I1
tp220
a(S'w'
I1
tp221
a(S'p2_tl'
I143
tp222
a(S'p2_ll'
I1
tp223
a(S'w'
I1
tp224
a(S'tr_lr'
I20
tp225
a(S'w'
I1
tp226
a(S'tr_ll'
I1
tp227
a(S'w'
I5133
tp228
a(S'tr_lr'
I24
tp229
a(S'w'
I1
tp230
a(S'tr_ll'
I1
tp231
a(S'w'
I5870
tp232
a(S'tr_lr'
I20
tp233
a(S'tr_ll'
I1
tp234
a(S'w'
I5136
tp235
a(S'tr_lr'
I24
tp236
a(S'w'
I1
tp237
a(S'tr_ll'
I1
tp238
a(S'w'
I5870
tp239
a(S'tr_lr'
I20
tp240
a(S'tr_ll'
I1
tp241
a(S'w'
I5136
tp242
a(S'tr_lr'
I24
tp243
a(S'w'
I1
tp244
a(S'tr_ll'
I1
tp245
a(S'w'
I5870
tp246
a(S'tr_lr'
I20
tp247
a(S'tr_ll'
I1
tp248
a(S'w'
I5136
tp249
a(S'tr_lr'
I24
tp250
a(S'w'
I1
tp251
a(S'tr_ll'
I1
tp252
a(S'w'
I5870
tp253
a(S'p1_tl'
I95
tp254
a(S'p1_ll'
I1
tp255
a(S'w'
I1
tp256
a(S'p2_tl'
I127
tp257
a(S'p2_ll'
I1
tp258
a(S'w'
I2
tp259
a(S'tr_lr'
I20
tp260
a(S'tr_ll'
I1
tp261
a(S'w'
I5133
tp262
a(S'tr_lr'
I24
tp263
a(S'w'
I1
tp264
a(S'tr_ll'
I1
tp265
a(S'w'
I5870
tp266
a(S'tr_lr'
I20
tp267
a(S'tr_ll'
I1
tp268
a(S'w'
I5136
tp269
a(S'tr_lr'
I24
tp270
a(S'w'
I1
tp271
a(S'tr_ll'
I1
tp272
a(S'w'
I5870
tp273
a(S'tr_lr'
I20
tp274
a(S'tr_ll'
I1
tp275
a(S'w'
I5136
tp276
a(S'tr_lr'
I24
tp277
a(S'w'
I1
tp278
a(S'tr_ll'
I1
tp279
a(S'w'
I5870
tp280
a(S'tr_lr'
I20
tp281
a(S'tr_ll'
I1
tp282
a(S'w'
I5136
tp283
a(S'tr_lr'
I24
tp284
a(S'w'
I1
tp285
a(S'tr_ll'
I1
tp286
a(S'w'
I5870
tp287
a(S'p1_tl'
I85
tp288
a(S'p1_ll'
I1
tp289
a(S'w'
I1
tp290
a(S'p2_tl'
I113
tp291
a(S'p2_ll'
I1
tp292
a(S'w'
I2
tp293
a(S'tr_lr'
I20
tp294
a(S'tr_ll'
I1
tp295
a(S'w'
I5134
tp296
a(S'tr_lr'
I24
tp297
a(S'tr_ll'
I1
tp298
a(S'w'
I5870
tp299
a(S'tr_lr'
I20
tp300
a(S'w'
I1
tp301
a(S'tr_ll'
I1
tp302
a(S'w'
I5135
tp303
a(S'tr_lr'
I24
tp304
a(S'w'
I1
tp305
a(S'tr_ll'
I1
tp306
a(S'w'
I5870
tp307
a(S'tr_lr'
I20
tp308
a(S'w'
I1
tp309
a(S'tr_ll'
I1
tp310
a(S'w'
I5136
tp311
a(S'tr_lr'
I24
tp312
a(S'tr_ll'
I1
tp313
a(S'w'
I5870
tp314
a(S'tr_lr'
I20
tp315
a(S'w'
I1
tp316
a(S'tr_ll'
I1
tp317
a(S'w'
I5136
tp318
a(S'tr_lr'
I24
tp319
a(S'tr_ll'
I1
tp320
a(S'w'
I5870
tp321
a(S'p1_tl'
I76
tp322
a(S'p1_ll'
I1
tp323
a(S'w'
I1
tp324
a(S'p2_tl'
I202
tp325
a(S'p2_ll'
I1
tp326
a(S'w'
I2
tp327
a(S'tr_lr'
I20
tp328
a(S'tr_ll'
I1
tp329
a(S'w'
I5134
tp330
a(S'tr_lr'
I24
tp331
a(S'tr_ll'
I1
tp332
a(S'w'
I5870
tp333
a(S'tr_lr'
I20
tp334
a(S'w'
I1
tp335
a(S'tr_ll'
I1
tp336
a(S'w'
I5136
tp337
a(S'tr_lr'
I24
tp338
a(S'tr_ll'
I1
tp339
a(S'w'
I5870
tp340
a(S'tr_lr'
I20
tp341
a(S'w'
I1
tp342
a(S'tr_ll'
I1
tp343
a(S'w'
I5136
tp344
a(S'tr_lr'
I24
tp345
a(S'tr_ll'
I1
tp346
a(S'w'
I5870
tp347
a(S'tr_lr'
I20
tp348
a(S'w'
I1
tp349
a(S'tr_ll'
I1
tp350
a(S'w'
I5136
tp351
a(S'tr_lr'
I24
tp352
a(S'tr_ll'
I1
tp353
a(S'w'
I5870
tp354
a(S'p1_tl'
I67
tp355
a(S'p1_ll'
I1
tp356
a(S'w'
I1
tp357
a(S'p2_tl'
I180
tp358
a(S'w'
I1
tp359
a(S'p2_ll'
I1
tp360
a(S'w'
I1
tp361
a(S'tr_lr'
I20
tp362
a(S'tr_ll'
I1
tp363
a(S'w'
I5134
tp364
a(S'tr_lr'
I24
tp365
a(S'tr_ll'
I1
tp366
a(S'w'
I5870
tp367
a(S'tr_lr'
I20
tp368
a(S'w'
I1
tp369
a(S'tr_ll'
I1
tp370
a(S'w'
I5136
tp371
a(S'tr_lr'
I24
tp372
a(S'tr_ll'
I1
tp373
a(S'w'
I5870
tp374
a(S'tr_lr'
I20
tp375
a(S'w'
I1
tp376
a(S'tr_ll'
I1
tp377
a(S'w'
I5136
tp378
a(S'tr_lr'
I24
tp379
a(S'tr_ll'
I1
tp380
a(S'w'
I5870
tp381
a(S'tr_lr'
I20
tp382
a(S'w'
I1
tp383
a(S'tr_ll'
I1
tp384
a(S'w'
I5136
tp385
a(S'tr_lr'
I24
tp386
a(S'tr_ll'
I1
tp387
a(S'w'
I5871
tp388
a(S'p1_du'
I0
tp389
a(S'p1_cv'
I1
tp390
a(S'p1_vo'
I0
tp391
a(S'p1_tl'
I0
tp392
a(S'p1_ll'
I3
tp393
a(S'p2_du'
I0
tp394
a(S'p2_cv'
I1
tp395
a(S'p2_vo'
I0
tp396
a(S'p2_tl'
I0
tp397
a(S'w'
I1
tp398
a(S'p2_ll'
I3
tp399
a(S'tr_lr'
I0
tp400
a(S'tr_tl'
I0
tp401
a(S'tr_ll'
I3
tp402
a(S'w'
I1
tp403
a(S'no_ll'
I3
tp404
a(S'w'
I1
tp405
a.