(lp1
(S'clock'
p2
I1789772
tp3
a(S'p1_cv'
I1
tp4
a(S'p1_ll'
I3
tp5
a(S'p2_cv'
I1
tp6
a(S'p2_ll'
I3
tp7
a(S'tr_ll'
I3
tp8
a(S'no_ll'
I3
tp9
a(S'ch_no'
I0
tp10
a(S'ch_tr'
I0
tp11
a(S'ch_p2'
I0
tp12
a(S'ch_p1'
I0
tp13
a(S'fc_mo'
I1
tp14
a(S'p1_cv'
I0
tp15
a(S'p1_vo'
I8
tp16
a(S'w'
I2
tp17
a(S'p1_sn'
I1
tp18
a(S'w'
I3
tp19
a(S'p2_cv'
I0
tp20
a(S'p2_vo'
I8
tp21
a(S'w'
I2
tp22
a(S'p2_sn'
I1
tp23
a(S'w'
I5
tp24
a(S'no_cv'
I1
tp25
a(S'w'
I2
tp26
a(S'ch_no'
I1
tp27
a(S'ch_tr'
I1
tp28
a(S'ch_p2'
I1
tp29
a(S'ch_p1'
I1
tp30
a(S'w'
I1
tp31
a(S'p1_tl'
I148
tp32
a(S'p1_ll'
I1
tp33
a(S'p1_th'
I1
tp34
a(S'w'
I1
tp35
a(S'p2_tl'
I249
tp36
a(S'w'
I1
tp37
a(S'p2_ll'
I1
tp38
a(S'p2_th'
I3
tp39
a(S'w'
I10250
tp40
a(S'p1_tl'
I125
tp41
a(S'p1_ll'
I1
tp42
a(S'w'
I2
tp43
a(S'p2_ll'
I1
tp44
a(S'w'
I11005
tp45
a(S'p1_tl'
I83
tp46
a(S'w'
I1
tp47
a(S'p1_ll'
I1
tp48
a(S'w'
I1
tp49
a(S'p2_ll'
I1
tp50
a(S'w'
I10271
tp51
a(S'p1_tl'
I46
tp52
a(S'w'
I1
tp53
a(S'p1_ll'
I1
tp54
a(S'w'
I1
tp55
a(S'p2_ll'
I1
tp56
a(S'w'
I11005
tp57
a(S'p1_tl'
I13
tp58
a(S'w'
I1
tp59
a(S'p1_ll'
I1
tp60
a(S'w'
I1
tp61
a(S'p2_ll'
I1
tp62
a(S'w'
I10272
tp63
a(S'p1_tl'
I254
tp64
a(S'p1_ll'
I1
tp65
a(S'p1_th'
I0
tp66
a(S'w'
I1
tp67
a(S'p2_ll'
I1
tp68
a(S'w'
I10273
tp69
a(S'p1_lh'
I1
tp70
a(S'p1_cv'
I1
tp71
a(S'p1_vo'
I15
tp72
a(S'w'
I1
tp73
a(S'p1_tl'
I202
tp74
a(S'w'
I1
tp75
a(S'p1_ll'
I1
tp76
a(S'w'
I1
tp77
a(S'p2_ll'
I1
tp78
a(S'w'
I11003
tp79
a(S'w'
I1
tp80
a(S'p2_ll'
I1
tp81
a(S'w'
I10272
tp82
a(S'w'
I1
tp83
a(S'p2_ll'
I1
tp84
a(S'w'
I11006
tp85
a(S'w'
I1
tp86
a(S'p2_ll'
I1
tp87
a(S'w'
I10273
tp88
a(S'p2_ll'
I1
tp89
a(S'w'
I10273
tp90
a(S'p2_ll'
I1
tp91
a(S'w'
I11007
tp92
a(S'p2_ll'
I1
tp93
a(S'w'
I10273
tp94
a(S'w'
I1
tp95
a(S'p2_ll'
I1
tp96
a(S'w'
I11006
tp97
a(S'p2_ll'
I1
tp98
a(S'w'
I10273
tp99
a(S'w'
I1
tp100
a(S'p2_ll'
I1
tp101
a(S'w'
I10272
tp102
a(S'p1_tl'
I254
tp103
a(S'w'
I1
tp104
a(S'p1_ll'
I1
tp105
a(S'w'
I1
tp106
a(S'p2_ll'
I1
tp107
a(S'w'
I11006
tp108
a(S'p2_ll'
I1
tp109
a(S'w'
I10273
tp110
a(S'p2_ll'
I1
tp111
a(S'w'
I11007
tp112
a(S'p2_ll'
I1
tp113
a(S'w'
I10273
tp114
a(S'p1_tl'
I226
tp115
a(S'p1_ll'
I1
tp116
a(S'w'
I1
tp117
a(S'w'
I1
tp118
a(S'p2_ll'
I1
tp119
a(S'w'
I10271
tp120
a(S'w'
I1
tp121
a(S'p2_ll'
I1
tp122
a(S'w'
I11006
tp123
a(S'w'
I1
tp124
a(S'p2_ll'
I1
tp125
a(S'w'
I10273
tp126
a(S'p2_ll'
I1
tp127
a(S'w'
I11007
tp128
a(S'p2_ll'
I1
tp129
a(S'w'
I10273
tp130
a(S'p2_ll'
I1
tp131
a(S'w'
I10273
tp132
a(S'p2_ll'
I1
tp133
a(S'w'
I11007
tp134
a(S'p2_ll'
I1
tp135
a(S'w'
I10274
tp136
a(S'p1_lh'
I0
tp137
a(S'p1_cv'
I0
tp138
a(S'p1_vo'
I2
tp139
a(S'w'
I5
tp140
a(S'p1_tl'
I50
tp141
a(S'p1_ll'
I1
tp142
a(S'w'
I1
tp143
a(S'p2_ll'
I1
tp144
a(S'w'
I3662
tp145
a(S'p1_tl'
I25
tp146
a(S'p1_ll'
I1
tp147
a(S'w'
I3669
tp148
a(S'p1_ll'
I1
tp149
a(S'w'
I2935
tp150
a(S'p1_tl'
I50
tp151
a(S'p1_ll'
I1
tp152
a(S'w'
I2
tp153
a(S'p2_ll'
I1
tp154
a(S'w'
I11009
tp155
a(S'p1_ll'
I1
tp156
a(S'w'
I1
tp157
a(S'w'
I1
tp158
a(S'p2_ll'
I1
tp159
a(S'w'
I3663
tp160
a(S'p1_tl'
I25
tp161
a(S'p1_ll'
I1
tp162
a(S'w'
I3669
tp163
a(S'p1_ll'
I1
tp164
a(S'w'
I2935
tp165
a(S'p1_tl'
I50
tp166
a(S'w'
I1
tp167
a(S'p1_ll'
I1
tp168
a(S'w'
I1
tp169
a(S'p2_ll'
I1
tp170
a(S'w'
I11009
tp171
a(S'p1_ll'
I1
tp172
a(S'w'
I2
tp173
a(S'p2_ll'
I1
tp174
a(S'w'
I3663
tp175
a(S'p1_tl'
I25
tp176
a(S'w'
I1
tp177
a(S'p1_ll'
I1
tp178
a(S'w'
I3668
tp179
a(S'w'
I1
tp180
a(S'p1_ll'
I1
tp181
a(S'w'
I2935
tp182
a(S'p1_tl'
I50
tp183
a(S'p1_ll'
I1
tp184
a(S'w'
I1
tp185
a(S'p2_ll'
I1
tp186
a(S'w'
I11009
tp187
a(S'w'
I1
tp188
a(S'p1_ll'
I1
tp189
a(S'w'
I1
tp190
a(S'p2_ll'
I1
tp191
a(S'w'
I3664
tp192
a(S'p1_tl'
I25
tp193
a(S'p1_ll'
I1
tp194
a(S'w'
I3669
tp195
a(S'p1_ll'
I1
tp196
a(S'w'
I2935
tp197
a(S'p1_tl'
I50
tp198
a(S'p1_ll'
I1
tp199
a(S'w'
I1
tp200
a(S'w'
I1
tp201
a(S'p2_ll'
I1
tp202
a(S'w'
I11009
tp203
a(S'p1_ll'
I1
tp204
a(S'w'
I1
tp205
a(S'p2_ll'
I1
tp206
a(S'w'
I3664
tp207
a(S'p1_tl'
I25
tp208
a(S'p1_ll'
I1
tp209
a(S'w'
I3669
tp210
a(S'p1_ll'
I1
tp211
a(S'w'
I2935
tp212
a(S'p1_tl'
I50
tp213
a(S'p1_ll'
I1
tp214
a(S'w'
I2
tp215
a(S'p2_ll'
I1
tp216
a(S'w'
I11009
tp217
a(S'p1_ll'
I1
tp218
a(S'w'
I1
tp219
a(S'w'
I1
tp220
a(S'p2_ll'
I1
tp221
a(S'w'
I3663
tp222
a(S'p1_tl'
I25
tp223
a(S'p1_ll'
I1
tp224
a(S'w'
I3669
tp225
a(S'p1_ll'
I1
tp226
a(S'w'
I2935
tp227
a(S'p1_tl'
I50
tp228
a(S'w'
I1
tp229
a(S'p1_ll'
I1
tp230
a(S'w'
I1
tp231
a(S'p2_ll'
I1
tp232
a(S'w'
I11009
tp233
a(S'p1_ll'
I1
tp234
a(S'w'
I2
tp235
a(S'p2_ll'
I1
tp236
a(S'w'
I3663
tp237
a(S'p1_tl'
I25
tp238
a(S'w'
I1
tp239
a(S'p1_ll'
I1
tp240
a(S'w'
I3668
tp241
a(S'w'
I1
tp242
a(S'p1_ll'
I1
tp243
a(S'w'
I2935
tp244
a(S'p1_tl'
I50
tp245
a(S'p1_ll'
I1
tp246
a(S'w'
I1
tp247
a(S'p2_ll'
I1
tp248
a(S'w'
I11009
tp249
a(S'w'
I1
tp250
a(S'p1_ll'
I1
tp251
a(S'w'
I1
tp252
a(S'p2_ll'
I1
tp253
a(S'w'
I3664
tp254
a(S'p1_tl'
I25
tp255
a(S'p1_ll'
I1
tp256
a(S'w'
I3669
tp257
a(S'p1_ll'
I1
tp258
a(S'w'
I2935
tp259
a(S'p1_tl'
I50
tp260
a(S'p1_ll'
I1
tp261
a(S'w'
I1
tp262
a(S'w'
I1
tp263
a(S'p2_ll'
I1
tp264
a(S'w'
I11009
tp265
a(S'p1_ll'
I1
tp266
a(S'w'
I1
tp267
a(S'p2_ll'
I1
tp268
a(S'w'
I3664
tp269
a(S'p1_tl'
I25
tp270
a(S'p1_ll'
I1
tp271
a(S'w'
I3669
tp272
a(S'p1_ll'
I1
tp273
a(S'w'
I2935
tp274
a(S'p1_tl'
I50
tp275
a(S'p1_ll'
I1
tp276
a(S'w'
I2
tp277
a(S'p2_ll'
I1
tp278
a(S'w'
I11009
tp279
a(S'p1_ll'
I1
tp280
a(S'w'
I1
tp281
a(S'w'
I1
tp282
a(S'p2_ll'
I1
tp283
a(S'w'
I3663
tp284
a(S'p1_tl'
I25
tp285
a(S'p1_ll'
I1
tp286
a(S'w'
I3669
tp287
a(S'p1_ll'
I1
tp288
a(S'w'
I2935
tp289
a(S'p1_tl'
I50
tp290
a(S'w'
I1
tp291
a(S'p1_ll'
I1
tp292
a(S'w'
I1
tp293
a(S'p2_ll'
I1
tp294
a(S'w'
I11009
tp295
a(S'p1_ll'
I1
tp296
a(S'w'
I2
tp297
a(S'p2_ll'
I1
tp298
a(S'w'
I3663
tp299
a(S'p1_tl'
I25
tp300
a(S'w'
I1
tp301
a(S'p1_ll'
I1
tp302
a(S'w'
I3668
tp303
a(S'w'
I1
tp304
a(S'p1_ll'
I1
tp305
a(S'w'
I2935
tp306
a(S'p1_tl'
I50
tp307
a(S'p1_ll'
I1
tp308
a(S'w'
I1
tp309
a(S'p2_ll'
I1
tp310
a(S'w'
I11009
tp311
a(S'w'
I1
tp312
a(S'p1_ll'
I1
tp313
a(S'w'
I1
tp314
a(S'p2_ll'
I1
tp315
a(S'w'
I3664
tp316
a(S'p1_tl'
I25
tp317
a(S'p1_ll'
I1
tp318
a(S'w'
I3669
tp319
a(S'p1_ll'
I1
tp320
a(S'w'
I2935
tp321
a(S'p1_tl'
I50
tp322
a(S'p1_ll'
I1
tp323
a(S'w'
I1
tp324
a(S'w'
I1
tp325
a(S'p2_ll'
I1
tp326
a(S'w'
I11009
tp327
a(S'p1_ll'
I1
tp328
a(S'w'
I1
tp329
a(S'p2_ll'
I1
tp330
a(S'w'
I3664
tp331
a(S'p1_tl'
I25
tp332
a(S'p1_ll'
I1
tp333
a(S'w'
I3669
tp334
a(S'p1_ll'
I1
tp335
a(S'w'
I2935
tp336
a(S'p1_tl'
I50
tp337
a(S'p1_ll'
I1
tp338
a(S'w'
I2
tp339
a(S'p2_ll'
I1
tp340
a(S'w'
I11009
tp341
a(S'p1_ll'
I1
tp342
a(S'w'
I1
tp343
a(S'w'
I1
tp344
a(S'p2_ll'
I1
tp345
a(S'w'
I3663
tp346
a(S'p1_tl'
I25
tp347
a(S'p1_ll'
I1
tp348
a(S'w'
I3669
tp349
a(S'p1_ll'
I1
tp350
a(S'w'
I2935
tp351
a(S'p1_tl'
I50
tp352
a(S'w'
I1
tp353
a(S'p1_ll'
I1
tp354
a(S'w'
I1
tp355
a(S'p2_ll'
I1
tp356
a(S'w'
I11009
tp357
a(S'p1_ll'
I1
tp358
a(S'w'
I2
tp359
a(S'p2_ll'
I1
tp360
a(S'w'
I3663
tp361
a(S'p1_tl'
I25
tp362
a(S'w'
I1
tp363
a(S'p1_ll'
I1
tp364
a(S'w'
I3668
tp365
a(S'w'
I1
tp366
a(S'p1_ll'
I1
tp367
a(S'w'
I2935
tp368
a(S'p1_tl'
I50
tp369
a(S'p1_ll'
I1
tp370
a(S'w'
I1
tp371
a(S'p2_ll'
I1
tp372
a(S'w'
I11009
tp373
a(S'w'
I1
tp374
a(S'p1_ll'
I1
tp375
a(S'w'
I1
tp376
a(S'p2_ll'
I1
tp377
a(S'w'
I3664
tp378
a(S'p1_tl'
I25
tp379
a(S'p1_ll'
I1
tp380
a(S'w'
I3669
tp381
a(S'p1_ll'
I1
tp382
a(S'w'
I2935
tp383
a(S'p1_tl'
I50
tp384
a(S'p1_ll'
I1
tp385
a(S'w'
I1
tp386
a(S'w'
I1
tp387
a(S'p2_ll'
I1
tp388
a(S'w'
I11009
tp389
a(S'p1_ll'
I1
tp390
a(S'w'
I1
tp391
a(S'p2_ll'
I1
tp392
a(S'w'
I3664
tp393
a(S'p1_tl'
I25
tp394
a(S'p1_ll'
I1
tp395
a(S'w'
I3669
tp396
a(S'p1_ll'
I1
tp397
a(S'w'
I2935
tp398
a(S'p1_tl'
I50
tp399
a(S'p1_ll'
I1
tp400
a(S'w'
I1
tp401
a(S'w'
I1
tp402
a(S'p2_ll'
I1
tp403
a(S'w'
I11009
tp404
a(S'p1_ll'
I1
tp405
a(S'w'
I1
tp406
a(S'w'
I1
tp407
a(S'p2_ll'
I1
tp408
a(S'w'
I3663
tp409
a(S'p1_tl'
I25
tp410
a(S'p1_ll'
I1
tp411
a(S'w'
I3669
tp412
a(S'p1_ll'
I1
tp413
a(S'w'
I2935
tp414
a(S'p1_tl'
I50
tp415
a(S'w'
I1
tp416
a(S'p1_ll'
I1
tp417
a(S'w'
I1
tp418
a(S'p2_ll'
I1
tp419
a(S'w'
I11009
tp420
a(S'p1_ll'
I1
tp421
a(S'w'
I2
tp422
a(S'p2_ll'
I1
tp423
a(S'w'
I3663
tp424
a(S'p1_tl'
I25
tp425
a(S'w'
I1
tp426
a(S'p1_ll'
I1
tp427
a(S'w'
I3668
tp428
a(S'w'
I1
tp429
a(S'p1_ll'
I1
tp430
a(S'w'
I2935
tp431
a(S'p1_tl'
I50
tp432
a(S'p1_ll'
I1
tp433
a(S'w'
I1
tp434
a(S'p2_ll'
I1
tp435
a(S'w'
I11009
tp436
a(S'w'
I1
tp437
a(S'p1_ll'
I1
tp438
a(S'w'
I1
tp439
a(S'p2_ll'
I1
tp440
a(S'w'
I3664
tp441
a(S'p1_tl'
I25
tp442
a(S'p1_ll'
I1
tp443
a(S'w'
I3669
tp444
a(S'p1_ll'
I1
tp445
a(S'w'
I2935
tp446
a(S'p1_tl'
I50
tp447
a(S'p1_ll'
I1
tp448
a(S'w'
I1
tp449
a(S'w'
I1
tp450
a(S'p2_ll'
I1
tp451
a(S'w'
I11009
tp452
a(S'p1_ll'
I1
tp453
a(S'w'
I1
tp454
a(S'p2_ll'
I1
tp455
a(S'w'
I3664
tp456
a(S'p1_tl'
I25
tp457
a(S'p1_ll'
I1
tp458
a(S'w'
I3669
tp459
a(S'p1_ll'
I1
tp460
a(S'w'
I2935
tp461
a(S'p1_tl'
I50
tp462
a(S'p1_ll'
I1
tp463
a(S'w'
I1
tp464
a(S'w'
I1
tp465
a(S'p2_ll'
I1
tp466
a(S'w'
I11009
tp467
a(S'p1_ll'
I1
tp468
a(S'w'
I1
tp469
a(S'w'
I1
tp470
a(S'p2_ll'
I1
tp471
a(S'w'
I3663
tp472
a(S'p1_tl'
I25
tp473
a(S'p1_ll'
I1
tp474
a(S'w'
I3669
tp475
a(S'p1_ll'
I1
tp476
a(S'w'
I2935
tp477
a(S'p1_tl'
I50
tp478
a(S'w'
I1
tp479
a(S'p1_ll'
I1
tp480
a(S'w'
I1
tp481
a(S'p2_ll'
I1
tp482
a(S'w'
I11009
tp483
a(S'p1_ll'
I1
tp484
a(S'w'
I1
tp485
a(S'w'
I1
tp486
a(S'p2_ll'
I1
tp487
a(S'w'
I3663
tp488
a(S'p1_tl'
I25
tp489
a(S'w'
I1
tp490
a(S'p1_ll'
I1
tp491
a(S'w'
I3668
tp492
a(S'w'
I1
tp493
a(S'p1_ll'
I1
tp494
a(S'w'
I2935
tp495
a(S'p1_tl'
I50
tp496
a(S'p1_ll'
I1
tp497
a(S'w'
I1
tp498
a(S'p2_ll'
I1
tp499
a(S'w'
I11009
tp500
a(S'w'
I1
tp501
a(S'p1_ll'
I1
tp502
a(S'w'
I1
tp503
a(S'p2_ll'
I1
tp504
a(S'w'
I3664
tp505
a(S'p1_tl'
I25
tp506
a(S'p1_ll'
I1
tp507
a(S'w'
I3669
tp508
a(S'p1_ll'
I1
tp509
a(S'w'
I2935
tp510
a(S'p1_tl'
I50
tp511
a(S'p1_ll'
I1
tp512
a(S'w'
I1
tp513
a(S'w'
I1
tp514
a(S'p2_ll'
I1
tp515
a(S'w'
I11009
tp516
a(S'p1_ll'
I1
tp517
a(S'w'
I1
tp518
a(S'p2_ll'
I1
tp519
a(S'w'
I3664
tp520
a(S'p1_tl'
I25
tp521
a(S'p1_ll'
I1
tp522
a(S'w'
I3669
tp523
a(S'p1_ll'
I1
tp524
a(S'w'
I2935
tp525
a(S'p1_tl'
I50
tp526
a(S'p1_ll'
I1
tp527
a(S'w'
I1
tp528
a(S'w'
I1
tp529
a(S'p2_ll'
I1
tp530
a(S'w'
I11009
tp531
a(S'p1_ll'
I1
tp532
a(S'w'
I1
tp533
a(S'w'
I1
tp534
a(S'p2_ll'
I1
tp535
a(S'w'
I3663
tp536
a(S'p1_tl'
I25
tp537
a(S'p1_ll'
I1
tp538
a(S'w'
I3669
tp539
a(S'p1_ll'
I1
tp540
a(S'w'
I2935
tp541
a(S'p1_tl'
I50
tp542
a(S'w'
I1
tp543
a(S'p1_ll'
I1
tp544
a(S'w'
I1
tp545
a(S'p2_ll'
I1
tp546
a(S'w'
I11009
tp547
a(S'p1_ll'
I1
tp548
a(S'w'
I1
tp549
a(S'w'
I1
tp550
a(S'p2_ll'
I1
tp551
a(S'w'
I3663
tp552
a(S'p1_tl'
I25
tp553
a(S'w'
I1
tp554
a(S'p1_ll'
I1
tp555
a(S'w'
I3668
tp556
a(S'w'
I1
tp557
a(S'p1_ll'
I1
tp558
a(S'w'
I2935
tp559
a(S'p1_tl'
I50
tp560
a(S'p1_ll'
I1
tp561
a(S'w'
I1
tp562
a(S'p2_ll'
I1
tp563
a(S'w'
I11009
tp564
a(S'w'
I1
tp565
a(S'p1_ll'
I1
tp566
a(S'w'
I1
tp567
a(S'p2_ll'
I1
tp568
a(S'w'
I3664
tp569
a(S'p1_tl'
I25
tp570
a(S'p1_ll'
I1
tp571
a(S'w'
I3669
tp572
a(S'p1_ll'
I1
tp573
a(S'w'
I2935
tp574
a(S'p1_tl'
I50
tp575
a(S'p1_ll'
I1
tp576
a(S'w'
I1
tp577
a(S'w'
I1
tp578
a(S'p2_ll'
I1
tp579
a(S'w'
I11009
tp580
a(S'p1_ll'
I1
tp581
a(S'w'
I1
tp582
a(S'p2_ll'
I1
tp583
a(S'w'
I3664
tp584
a(S'p1_tl'
I25
tp585
a(S'p1_ll'
I1
tp586
a(S'w'
I3669
tp587
a(S'p1_ll'
I1
tp588
a(S'w'
I2935
tp589
a(S'p1_tl'
I50
tp590
a(S'p1_ll'
I1
tp591
a(S'w'
I1
tp592
a(S'w'
I1
tp593
a(S'p2_ll'
I1
tp594
a(S'w'
I11009
tp595
a(S'p1_ll'
I1
tp596
a(S'w'
I1
tp597
a(S'w'
I1
tp598
a(S'p2_ll'
I1
tp599
a(S'w'
I3663
tp600
a(S'p1_tl'
I25
tp601
a(S'p1_ll'
I1
tp602
a(S'w'
I3669
tp603
a(S'p1_ll'
I1
tp604
a(S'w'
I2935
tp605
a(S'p1_tl'
I50
tp606
a(S'w'
I1
tp607
a(S'p1_ll'
I1
tp608
a(S'w'
I1
tp609
a(S'p2_ll'
I1
tp610
a(S'w'
I11009
tp611
a(S'p1_ll'
I1
tp612
a(S'w'
I1
tp613
a(S'w'
I1
tp614
a(S'p2_ll'
I1
tp615
a(S'w'
I3663
tp616
a(S'p1_tl'
I25
tp617
a(S'w'
I1
tp618
a(S'p1_ll'
I1
tp619
a(S'w'
I3668
tp620
a(S'w'
I1
tp621
a(S'p1_ll'
I1
tp622
a(S'w'
I2935
tp623
a(S'p1_tl'
I50
tp624
a(S'p1_ll'
I1
tp625
a(S'w'
I1
tp626
a(S'p2_ll'
I1
tp627
a(S'w'
I11009
tp628
a(S'p1_ll'
I1
tp629
a(S'w'
I2
tp630
a(S'p2_ll'
I1
tp631
a(S'w'
I3664
tp632
a(S'p1_tl'
I25
tp633
a(S'p1_ll'
I1
tp634
a(S'w'
I3669
tp635
a(S'p1_ll'
I1
tp636
a(S'w'
I2935
tp637
a(S'p1_tl'
I50
tp638
a(S'p1_ll'
I1
tp639
a(S'w'
I1
tp640
a(S'w'
I1
tp641
a(S'p2_ll'
I1
tp642
a(S'w'
I11008
tp643
a(S'w'
I1
tp644
a(S'p1_ll'
I1
tp645
a(S'w'
I1
tp646
a(S'p2_ll'
I1
tp647
a(S'w'
I3664
tp648
a(S'p1_tl'
I25
tp649
a(S'p1_ll'
I1
tp650
a(S'w'
I3669
tp651
a(S'p1_ll'
I1
tp652
a(S'w'
I2935
tp653
a(S'p1_tl'
I50
tp654
a(S'p1_ll'
I1
tp655
a(S'w'
I1
tp656
a(S'w'
I1
tp657
a(S'p2_ll'
I1
tp658
a(S'w'
I11009
tp659
a(S'p1_ll'
I1
tp660
a(S'w'
I1
tp661
a(S'p2_ll'
I1
tp662
a(S'w'
I3664
tp663
a(S'p1_tl'
I25
tp664
a(S'p1_ll'
I1
tp665
a(S'w'
I3669
tp666
a(S'p1_ll'
I1
tp667
a(S'w'
I2935
tp668
a(S'p1_tl'
I50
tp669
a(S'p1_ll'
I1
tp670
a(S'w'
I2
tp671
a(S'p2_ll'
I1
tp672
a(S'w'
I11009
tp673
a(S'p1_ll'
I1
tp674
a(S'w'
I1
tp675
a(S'w'
I1
tp676
a(S'p2_ll'
I1
tp677
a(S'w'
I3663
tp678
a(S'p1_tl'
I25
tp679
a(S'w'
I1
tp680
a(S'p1_ll'
I1
tp681
a(S'w'
I3668
tp682
a(S'w'
I1
tp683
a(S'p1_ll'
I1
tp684
a(S'w'
I2934
tp685
a(S'p1_tl'
I50
tp686
a(S'w'
I1
tp687
a(S'p1_ll'
I1
tp688
a(S'w'
I1
tp689
a(S'p2_ll'
I1
tp690
a(S'w'
I11009
tp691
a(S'p1_ll'
I1
tp692
a(S'w'
I2
tp693
a(S'p2_ll'
I1
tp694
a(S'w'
I3664
tp695
a(S'p1_tl'
I25
tp696
a(S'p1_ll'
I1
tp697
a(S'w'
I3669
tp698
a(S'p1_ll'
I1
tp699
a(S'w'
I2935
tp700
a(S'p1_tl'
I50
tp701
a(S'p1_ll'
I1
tp702
a(S'w'
I1
tp703
a(S'p2_ll'
I1
tp704
a(S'w'
I11009
tp705
a(S'w'
I1
tp706
a(S'p1_ll'
I1
tp707
a(S'w'
I1
tp708
a(S'p2_ll'
I1
tp709
a(S'w'
I3664
tp710
a(S'p1_tl'
I25
tp711
a(S'p1_ll'
I1
tp712
a(S'w'
I3669
tp713
a(S'p1_ll'
I1
tp714
a(S'w'
I2935
tp715
a(S'p1_tl'
I50
tp716
a(S'p1_ll'
I1
tp717
a(S'w'
I1
tp718
a(S'w'
I1
tp719
a(S'p2_ll'
I1
tp720
a(S'w'
I11009
tp721
a(S'p1_ll'
I1
tp722
a(S'w'
I1
tp723
a(S'p2_ll'
I1
tp724
a(S'w'
I3664
tp725
a(S'p1_tl'
I25
tp726
a(S'p1_ll'
I1
tp727
a(S'w'
I3669
tp728
a(S'p1_ll'
I1
tp729
a(S'w'
I2935
tp730
a(S'p1_tl'
I50
tp731
a(S'p1_ll'
I1
tp732
a(S'w'
I2
tp733
a(S'p2_ll'
I1
tp734
a(S'w'
I11009
tp735
a(S'p1_ll'
I1
tp736
a(S'w'
I1
tp737
a(S'w'
I1
tp738
a(S'p2_ll'
I1
tp739
a(S'w'
I3663
tp740
a(S'p1_tl'
I25
tp741
a(S'p1_ll'
I1
tp742
a(S'w'
I3669
tp743
a(S'p1_ll'
I1
tp744
a(S'w'
I2935
tp745
a(S'p1_tl'
I50
tp746
a(S'w'
I1
tp747
a(S'p1_ll'
I1
tp748
a(S'w'
I1
tp749
a(S'p2_ll'
I1
tp750
a(S'w'
I11009
tp751
a(S'p1_ll'
I1
tp752
a(S'w'
I2
tp753
a(S'p2_ll'
I1
tp754
a(S'w'
I3663
tp755
a(S'p1_tl'
I25
tp756
a(S'w'
I1
tp757
a(S'p1_ll'
I1
tp758
a(S'w'
I3668
tp759
a(S'w'
I1
tp760
a(S'p1_ll'
I1
tp761
a(S'w'
I2935
tp762
a(S'p1_tl'
I50
tp763
a(S'p1_ll'
I1
tp764
a(S'w'
I1
tp765
a(S'p2_ll'
I1
tp766
a(S'w'
I11009
tp767
a(S'w'
I1
tp768
a(S'p1_ll'
I1
tp769
a(S'w'
I1
tp770
a(S'p2_ll'
I1
tp771
a(S'w'
I3664
tp772
a(S'p1_tl'
I25
tp773
a(S'p1_ll'
I1
tp774
a(S'w'
I3669
tp775
a(S'p1_ll'
I1
tp776
a(S'w'
I2935
tp777
a(S'p1_tl'
I50
tp778
a(S'p1_ll'
I1
tp779
a(S'w'
I1
tp780
a(S'w'
I1
tp781
a(S'p2_ll'
I1
tp782
a(S'w'
I11009
tp783
a(S'p1_ll'
I1
tp784
a(S'w'
I1
tp785
a(S'p2_ll'
I1
tp786
a(S'w'
I3664
tp787
a(S'p1_tl'
I25
tp788
a(S'p1_ll'
I1
tp789
a(S'w'
I3669
tp790
a(S'p1_ll'
I1
tp791
a(S'w'
I2935
tp792
a(S'p1_tl'
I50
tp793
a(S'p1_ll'
I1
tp794
a(S'w'
I2
tp795
a(S'p2_ll'
I1
tp796
a(S'w'
I11009
tp797
a(S'p1_ll'
I1
tp798
a(S'w'
I1
tp799
a(S'w'
I1
tp800
a(S'p2_ll'
I1
tp801
a(S'w'
I3663
tp802
a(S'p1_tl'
I25
tp803
a(S'p1_ll'
I1
tp804
a(S'w'
I3669
tp805
a(S'p1_ll'
I1
tp806
a(S'w'
I2935
tp807
a(S'p1_tl'
I50
tp808
a(S'w'
I1
tp809
a(S'p1_ll'
I1
tp810
a(S'w'
I1
tp811
a(S'p2_ll'
I1
tp812
a(S'w'
I11009
tp813
a(S'p1_ll'
I1
tp814
a(S'w'
I2
tp815
a(S'p2_ll'
I1
tp816
a(S'w'
I3663
tp817
a(S'p1_tl'
I25
tp818
a(S'w'
I1
tp819
a(S'p1_ll'
I1
tp820
a(S'w'
I3668
tp821
a(S'w'
I1
tp822
a(S'p1_ll'
I1
tp823
a(S'w'
I2935
tp824
a(S'p1_tl'
I50
tp825
a(S'p1_ll'
I1
tp826
a(S'w'
I1
tp827
a(S'p2_ll'
I1
tp828
a(S'w'
I11009
tp829
a(S'w'
I1
tp830
a(S'p1_ll'
I1
tp831
a(S'w'
I1
tp832
a(S'p2_ll'
I1
tp833
a(S'w'
I3664
tp834
a(S'p1_tl'
I25
tp835
a(S'p1_ll'
I1
tp836
a(S'w'
I3669
tp837
a(S'p1_ll'
I1
tp838
a(S'w'
I2935
tp839
a(S'p1_tl'
I50
tp840
a(S'p1_ll'
I1
tp841
a(S'w'
I1
tp842
a(S'w'
I1
tp843
a(S'p2_ll'
I1
tp844
a(S'w'
I11009
tp845
a(S'p1_ll'
I1
tp846
a(S'w'
I1
tp847
a(S'p2_ll'
I1
tp848
a(S'w'
I3664
tp849
a(S'p1_tl'
I25
tp850
a(S'p1_ll'
I1
tp851
a(S'w'
I3669
tp852
a(S'p1_ll'
I1
tp853
a(S'w'
I2935
tp854
a(S'p1_tl'
I50
tp855
a(S'p1_ll'
I1
tp856
a(S'w'
I2
tp857
a(S'p2_ll'
I1
tp858
a(S'w'
I11009
tp859
a(S'p1_ll'
I1
tp860
a(S'w'
I1
tp861
a(S'w'
I1
tp862
a(S'p2_ll'
I1
tp863
a(S'w'
I3663
tp864
a(S'p1_tl'
I25
tp865
a(S'p1_ll'
I1
tp866
a(S'w'
I3669
tp867
a(S'p1_ll'
I1
tp868
a(S'w'
I2935
tp869
a(S'p1_tl'
I50
tp870
a(S'w'
I1
tp871
a(S'p1_ll'
I1
tp872
a(S'w'
I1
tp873
a(S'p2_ll'
I1
tp874
a(S'w'
I11009
tp875
a(S'p1_ll'
I1
tp876
a(S'w'
I2
tp877
a(S'p2_ll'
I1
tp878
a(S'w'
I3663
tp879
a(S'p1_tl'
I25
tp880
a(S'w'
I1
tp881
a(S'p1_ll'
I1
tp882
a(S'w'
I3668
tp883
a(S'w'
I1
tp884
a(S'p1_ll'
I1
tp885
a(S'w'
I2935
tp886
a(S'p1_tl'
I50
tp887
a(S'p1_ll'
I1
tp888
a(S'w'
I1
tp889
a(S'p2_ll'
I1
tp890
a(S'w'
I11009
tp891
a(S'w'
I1
tp892
a(S'p1_ll'
I1
tp893
a(S'w'
I1
tp894
a(S'p2_ll'
I1
tp895
a(S'w'
I3664
tp896
a(S'p1_tl'
I25
tp897
a(S'p1_ll'
I1
tp898
a(S'w'
I3669
tp899
a(S'p1_ll'
I1
tp900
a(S'w'
I2935
tp901
a(S'p1_tl'
I50
tp902
a(S'p1_ll'
I1
tp903
a(S'w'
I1
tp904
a(S'w'
I1
tp905
a(S'p2_ll'
I1
tp906
a(S'w'
I11009
tp907
a(S'p1_ll'
I1
tp908
a(S'w'
I1
tp909
a(S'p2_ll'
I1
tp910
a(S'w'
I3664
tp911
a(S'p1_tl'
I25
tp912
a(S'p1_ll'
I1
tp913
a(S'w'
I3669
tp914
a(S'p1_ll'
I1
tp915
a(S'w'
I2935
tp916
a(S'p1_tl'
I50
tp917
a(S'p1_ll'
I1
tp918
a(S'w'
I2
tp919
a(S'p2_ll'
I1
tp920
a(S'w'
I11008
tp921
a(S'p1_cv'
I1
tp922
a(S'p1_vo'
I0
tp923
a(S'p1_tl'
I0
tp924
a(S'p1_ll'
I3
tp925
a(S'p2_cv'
I1
tp926
a(S'p2_vo'
I0
tp927
a(S'w'
I1
tp928
a(S'p2_tl'
I0
tp929
a(S'p2_ll'
I3
tp930
a(S'p2_th'
I0
tp931
a(S'tr_ll'
I3
tp932
a(S'w'
I1
tp933
a(S'no_ll'
I3
tp934
a(S'w'
I1
tp935
a.