(lp1
(S'clock'
p2
I1789772
tp3
a(S'p1_cv'
I1
tp4
a(S'p1_ll'
I3
tp5
a(S'p2_cv'
I1
tp6
a(S'p2_ll'
I3
tp7
a(S'tr_ll'
I3
tp8
a(S'no_ll'
I3
tp9
a(S'ch_no'
I0
tp10
a(S'ch_tr'
I0
tp11
a(S'ch_p2'
I0
tp12
a(S'ch_p1'
I0
tp13
a(S'fc_mo'
I1
tp14
a(S'p1_cv'
I0
tp15
a(S'p1_vo'
I3
tp16
a(S'w'
I2
tp17
a(S'p1_sn'
I1
tp18
a(S'w'
I3
tp19
a(S'w'
I2
tp20
a(S'p2_sn'
I1
tp21
a(S'w'
I3
tp22
a(S'w'
I2
tp23
a(S'no_vo'
I1
tp24
a(S'w'
I2
tp25
a(S'no_np'
I3
tp26
a(S'w'
I3
tp27
a(S'ch_no'
I1
tp28
a(S'ch_tr'
I1
tp29
a(S'ch_p2'
I1
tp30
a(S'ch_p1'
I1
tp31
a(S'w'
I1
tp32
a(S'p1_tl'
I39
tp33
a(S'p1_ll'
I1
tp34
a(S'p1_th'
I3
tp35
a(S'w'
I2
tp36
a(S'no_ll'
I1
tp37
a(S'w'
I4375
tp38
a(S'p1_tl'
I129
tp39
a(S'w'
I1
tp40
a(S'p1_ll'
I1
tp41
a(S'p1_th'
I2
tp42
a(S'w'
I1
tp43
a(S'no_ll'
I1
tp44
a(S'w'
I4401
tp45
a(S'p1_tl'
I252
tp46
a(S'p1_ll'
I1
tp47
a(S'p1_th'
I1
tp48
a(S'w'
I2
tp49
a(S'no_ll'
I1
tp50
a(S'w'
I4401
tp51
a(S'p1_tl'
I250
tp52
a(S'p1_ll'
I1
tp53
a(S'p1_th'
I2
tp54
a(S'w'
I2
tp55
a(S'no_ll'
I1
tp56
a(S'w'
I4401
tp57
a(S'p1_tl'
I93
tp58
a(S'p1_ll'
I1
tp59
a(S'w'
I2
tp60
a(S'no_ll'
I1
tp61
a(S'w'
I4401
tp62
a(S'p1_tl'
I224
tp63
a(S'p1_ll'
I1
tp64
a(S'p1_th'
I1
tp65
a(S'w'
I2
tp66
a(S'no_ll'
I1
tp67
a(S'w'
I4402
tp68
a(S'p2_vo'
I15
tp69
a(S'w'
I2
tp70
a(S'p1_tl'
I48
tp71
a(S'w'
I1
tp72
a(S'p1_ll'
I1
tp73
a(S'p1_th'
I0
tp74
a(S'w'
I1
tp75
a(S'p2_tl'
I78
tp76
a(S'p2_ll'
I1
tp77
a(S'p2_th'
I6
tp78
a(S'w'
I2
tp79
a(S'no_ll'
I1
tp80
a(S'w'
I2928
tp81
a(S'p2_tl'
I158
tp82
a(S'p2_ll'
I1
tp83
a(S'p2_th'
I5
tp84
a(S'w'
I1467
tp85
a(S'p1_tl'
I50
tp86
a(S'p1_ll'
I1
tp87
a(S'w'
I2202
tp88
a(S'p2_tl'
I78
tp89
a(S'p2_ll'
I1
tp90
a(S'p2_th'
I6
tp91
a(S'w'
I2
tp92
a(S'no_ll'
I1
tp93
a(S'w'
I2199
tp94
a(S'p1_tl'
I48
tp95
a(S'p1_ll'
I1
tp96
a(S'w'
I734
tp97
a(S'p2_tl'
I244
tp98
a(S'p2_ll'
I1
tp99
a(S'p2_th'
I5
tp100
a(S'w'
I3669
tp101
a(S'p1_tl'
I45
tp102
a(S'p1_ll'
I1
tp103
a(S'w'
I1
tp104
a(S'p2_tl'
I158
tp105
a(S'w'
I1
tp106
a(S'p2_ll'
I1
tp107
a(S'w'
I1
tp108
a(S'no_ll'
I1
tp109
a(S'w'
I2932
tp110
a(S'p2_tl'
I244
tp111
a(S'w'
I1
tp112
a(S'p2_ll'
I1
tp113
a(S'w'
I3668
tp114
a(S'p2_tl'
I158
tp115
a(S'w'
I1
tp116
a(S'p2_ll'
I1
tp117
a(S'w'
I2935
tp118
a(S'p2_tl'
I78
tp119
a(S'p2_ll'
I1
tp120
a(S'p2_th'
I6
tp121
a(S'w'
I3668
tp122
a(S'p1_tl'
I48
tp123
a(S'w'
I1
tp124
a(S'p1_ll'
I1
tp125
a(S'w'
I1
tp126
a(S'p2_ll'
I1
tp127
a(S'w'
I2934
tp128
a(S'p2_tl'
I158
tp129
a(S'p2_ll'
I1
tp130
a(S'p2_th'
I5
tp131
a(S'w'
I1467
tp132
a(S'p1_tl'
I50
tp133
a(S'p1_ll'
I1
tp134
a(S'w'
I2202
tp135
a(S'p2_tl'
I78
tp136
a(S'p2_ll'
I1
tp137
a(S'p2_th'
I6
tp138
a(S'w'
I2201
tp139
a(S'p1_tl'
I48
tp140
a(S'p1_ll'
I1
tp141
a(S'w'
I734
tp142
a(S'p2_tl'
I244
tp143
a(S'p2_ll'
I1
tp144
a(S'p2_th'
I5
tp145
a(S'w'
I3669
tp146
a(S'p1_tl'
I45
tp147
a(S'p1_ll'
I1
tp148
a(S'w'
I1
tp149
a(S'p2_ll'
I1
tp150
a(S'w'
I2
tp151
a(S'no_ll'
I1
tp152
a(S'w'
I2932
tp153
a(S'w'
I1
tp154
a(S'p2_ll'
I1
tp155
a(S'w'
I3668
tp156
a(S'p2_tl'
I158
tp157
a(S'w'
I1
tp158
a(S'p2_ll'
I1
tp159
a(S'w'
I1
tp160
a(S'no_ll'
I1
tp161
a(S'w'
I2933
tp162
a(S'w'
I1
tp163
a(S'p2_ll'
I1
tp164
a(S'w'
I3668
tp165
a(S'p1_tl'
I48
tp166
a(S'p1_ll'
I1
tp167
a(S'w'
I2
tp168
a(S'p2_ll'
I1
tp169
a(S'w'
I2934
tp170
a(S'p2_tl'
I244
tp171
a(S'p2_ll'
I1
tp172
a(S'w'
I1467
tp173
a(S'p1_tl'
I50
tp174
a(S'p1_ll'
I1
tp175
a(S'w'
I2202
tp176
a(S'p2_tl'
I158
tp177
a(S'p2_ll'
I1
tp178
a(S'w'
I2201
tp179
a(S'p1_tl'
I48
tp180
a(S'p1_ll'
I1
tp181
a(S'w'
I734
tp182
a(S'p2_tl'
I78
tp183
a(S'p2_ll'
I1
tp184
a(S'p2_th'
I6
tp185
a(S'w'
I3669
tp186
a(S'p1_tl'
I45
tp187
a(S'p1_ll'
I1
tp188
a(S'w'
I1
tp189
a(S'p2_ll'
I1
tp190
a(S'w'
I2934
tp191
a(S'p2_tl'
I158
tp192
a(S'p2_ll'
I1
tp193
a(S'p2_th'
I5
tp194
a(S'w'
I3669
tp195
a(S'p2_tl'
I78
tp196
a(S'p2_ll'
I1
tp197
a(S'p2_th'
I6
tp198
a(S'w'
I2935
tp199
a(S'p2_tl'
I244
tp200
a(S'w'
I1
tp201
a(S'p2_ll'
I1
tp202
a(S'p2_th'
I5
tp203
a(S'w'
I3668
tp204
a(S'p1_tl'
I48
tp205
a(S'p1_ll'
I1
tp206
a(S'w'
I1
tp207
a(S'w'
I1
tp208
a(S'p2_ll'
I1
tp209
a(S'w'
I2
tp210
a(S'no_ll'
I1
tp211
a(S'w'
I2931
tp212
a(S'w'
I1
tp213
a(S'p2_ll'
I1
tp214
a(S'w'
I1467
tp215
a(S'p1_tl'
I50
tp216
a(S'p1_ll'
I1
tp217
a(S'w'
I2201
tp218
a(S'p2_tl'
I158
tp219
a(S'w'
I1
tp220
a(S'p2_ll'
I1
tp221
a(S'w'
I2
tp222
a(S'no_ll'
I1
tp223
a(S'w'
I2199
tp224
a(S'p1_tl'
I48
tp225
a(S'p1_ll'
I1
tp226
a(S'w'
I734
tp227
a(S'p2_ll'
I1
tp228
a(S'w'
I3668
tp229
a(S'p1_tl'
I45
tp230
a(S'w'
I1
tp231
a(S'p1_ll'
I1
tp232
a(S'w'
I1
tp233
a(S'p2_ll'
I1
tp234
a(S'w'
I2934
tp235
a(S'p2_tl'
I244
tp236
a(S'p2_ll'
I1
tp237
a(S'w'
I3669
tp238
a(S'p2_tl'
I158
tp239
a(S'p2_ll'
I1
tp240
a(S'w'
I2935
tp241
a(S'p2_tl'
I78
tp242
a(S'p2_ll'
I1
tp243
a(S'p2_th'
I6
tp244
a(S'w'
I3670
tp245
a(S'p2_vo'
I0
tp246
a(S'w'
I3
tp247
a(S'p1_tl'
I39
tp248
a(S'p1_ll'
I1
tp249
a(S'p1_th'
I3
tp250
a(S'w'
I2
tp251
a(S'no_ll'
I1
tp252
a(S'w'
I4397
tp253
a(S'p1_tl'
I129
tp254
a(S'p1_ll'
I1
tp255
a(S'p1_th'
I2
tp256
a(S'w'
I2
tp257
a(S'no_ll'
I1
tp258
a(S'w'
I4400
tp259
a(S'p1_tl'
I252
tp260
a(S'w'
I1
tp261
a(S'p1_ll'
I1
tp262
a(S'p1_th'
I1
tp263
a(S'w'
I1
tp264
a(S'no_ll'
I1
tp265
a(S'w'
I4401
tp266
a(S'p1_tl'
I250
tp267
a(S'w'
I1
tp268
a(S'p1_ll'
I1
tp269
a(S'p1_th'
I2
tp270
a(S'w'
I1
tp271
a(S'no_ll'
I1
tp272
a(S'w'
I4401
tp273
a(S'p1_tl'
I93
tp274
a(S'p1_ll'
I1
tp275
a(S'w'
I2
tp276
a(S'no_ll'
I1
tp277
a(S'w'
I4401
tp278
a(S'p1_tl'
I224
tp279
a(S'p1_ll'
I1
tp280
a(S'p1_th'
I1
tp281
a(S'w'
I2
tp282
a(S'no_ll'
I1
tp283
a(S'w'
I4402
tp284
a(S'p2_vo'
I15
tp285
a(S'w'
I3
tp286
a(S'p1_tl'
I48
tp287
a(S'p1_ll'
I1
tp288
a(S'p1_th'
I0
tp289
a(S'w'
I1
tp290
a(S'p2_ll'
I1
tp291
a(S'w'
I2
tp292
a(S'no_ll'
I1
tp293
a(S'w'
I2928
tp294
a(S'p2_tl'
I158
tp295
a(S'p2_ll'
I1
tp296
a(S'p2_th'
I5
tp297
a(S'w'
I1468
tp298
a(S'p1_tl'
I50
tp299
a(S'p1_ll'
I1
tp300
a(S'w'
I2201
tp301
a(S'p2_tl'
I78
tp302
a(S'w'
I1
tp303
a(S'p2_ll'
I1
tp304
a(S'p2_th'
I6
tp305
a(S'w'
I1
tp306
a(S'no_ll'
I1
tp307
a(S'w'
I2199
tp308
a(S'p1_tl'
I48
tp309
a(S'w'
I1
tp310
a(S'p1_ll'
I1
tp311
a(S'w'
I733
tp312
a(S'p2_tl'
I244
tp313
a(S'w'
I1
tp314
a(S'p2_ll'
I1
tp315
a(S'p2_th'
I5
tp316
a(S'w'
I3668
tp317
a(S'p1_tl'
I45
tp318
a(S'p1_ll'
I1
tp319
a(S'w'
I2
tp320
a(S'p2_ll'
I1
tp321
a(S'w'
I2934
tp322
a(S'p2_ll'
I1
tp323
a(S'w'
I3669
tp324
a(S'p2_tl'
I158
tp325
a(S'p2_ll'
I1
tp326
a(S'w'
I2935
tp327
a(S'p2_ll'
I1
tp328
a(S'w'
I3669
tp329
a(S'p1_tl'
I48
tp330
a(S'p1_ll'
I1
tp331
a(S'w'
I1
tp332
a(S'p2_ll'
I1
tp333
a(S'w'
I2934
tp334
a(S'p2_tl'
I244
tp335
a(S'p2_ll'
I1
tp336
a(S'w'
I1467
tp337
a(S'p1_tl'
I50
tp338
a(S'w'
I1
tp339
a(S'p1_ll'
I1
tp340
a(S'w'
I2201
tp341
a(S'p2_tl'
I158
tp342
a(S'p2_ll'
I1
tp343
a(S'w'
I2201
tp344
a(S'p1_tl'
I48
tp345
a(S'p1_ll'
I1
tp346
a(S'w'
I734
tp347
a(S'p2_tl'
I78
tp348
a(S'w'
I1
tp349
a(S'p2_ll'
I1
tp350
a(S'p2_th'
I6
tp351
a(S'w'
I3668
tp352
a(S'p1_tl'
I45
tp353
a(S'p1_ll'
I1
tp354
a(S'w'
I1
tp355
a(S'w'
I1
tp356
a(S'p2_ll'
I1
tp357
a(S'w'
I1
tp358
a(S'no_ll'
I1
tp359
a(S'w'
I2932
tp360
a(S'p2_tl'
I158
tp361
a(S'w'
I1
tp362
a(S'p2_ll'
I1
tp363
a(S'p2_th'
I5
tp364
a(S'w'
I3668
tp365
a(S'p2_tl'
I78
tp366
a(S'w'
I1
tp367
a(S'p2_ll'
I1
tp368
a(S'p2_th'
I6
tp369
a(S'w'
I2
tp370
a(S'no_ll'
I1
tp371
a(S'w'
I2933
tp372
a(S'p2_tl'
I244
tp373
a(S'p2_ll'
I1
tp374
a(S'p2_th'
I5
tp375
a(S'w'
I3668
tp376
a(S'p1_tl'
I48
tp377
a(S'w'
I1
tp378
a(S'p1_ll'
I1
tp379
a(S'w'
I1
tp380
a(S'p2_ll'
I1
tp381
a(S'w'
I2934
tp382
a(S'p2_ll'
I1
tp383
a(S'w'
I1467
tp384
a(S'p1_tl'
I50
tp385
a(S'p1_ll'
I1
tp386
a(S'w'
I2202
tp387
a(S'p2_tl'
I158
tp388
a(S'p2_ll'
I1
tp389
a(S'w'
I2201
tp390
a(S'p1_tl'
I48
tp391
a(S'p1_ll'
I1
tp392
a(S'w'
I734
tp393
a(S'p2_ll'
I1
tp394
a(S'w'
I3669
tp395
a(S'p1_tl'
I45
tp396
a(S'p1_ll'
I1
tp397
a(S'w'
I1
tp398
a(S'w'
I1
tp399
a(S'p2_ll'
I1
tp400
a(S'w'
I2933
tp401
a(S'p2_tl'
I244
tp402
a(S'w'
I1
tp403
a(S'p2_ll'
I1
tp404
a(S'w'
I3668
tp405
a(S'p2_tl'
I158
tp406
a(S'w'
I1
tp407
a(S'p2_ll'
I1
tp408
a(S'w'
I2934
tp409
a(S'p2_tl'
I78
tp410
a(S'w'
I1
tp411
a(S'p2_ll'
I1
tp412
a(S'p2_th'
I6
tp413
a(S'w'
I3670
tp414
a(S'p2_vo'
I0
tp415
a(S'w'
I2
tp416
a(S'p1_tl'
I39
tp417
a(S'p1_ll'
I1
tp418
a(S'p1_th'
I3
tp419
a(S'w'
I2
tp420
a(S'no_ll'
I1
tp421
a(S'w'
I4397
tp422
a(S'p1_tl'
I129
tp423
a(S'p1_ll'
I1
tp424
a(S'p1_th'
I2
tp425
a(S'w'
I2
tp426
a(S'no_ll'
I1
tp427
a(S'w'
I4401
tp428
a(S'p1_tl'
I252
tp429
a(S'p1_ll'
I1
tp430
a(S'p1_th'
I1
tp431
a(S'w'
I2
tp432
a(S'no_ll'
I1
tp433
a(S'w'
I4401
tp434
a(S'p1_tl'
I250
tp435
a(S'p1_ll'
I1
tp436
a(S'p1_th'
I2
tp437
a(S'w'
I2
tp438
a(S'no_ll'
I1
tp439
a(S'w'
I4400
tp440
a(S'p1_tl'
I93
tp441
a(S'w'
I1
tp442
a(S'p1_ll'
I1
tp443
a(S'w'
I1
tp444
a(S'no_ll'
I1
tp445
a(S'w'
I4401
tp446
a(S'p1_tl'
I224
tp447
a(S'w'
I1
tp448
a(S'p1_ll'
I1
tp449
a(S'p1_th'
I1
tp450
a(S'w'
I1
tp451
a(S'no_ll'
I1
tp452
a(S'w'
I4402
tp453
a(S'p2_vo'
I15
tp454
a(S'w'
I3
tp455
a(S'p1_tl'
I48
tp456
a(S'p1_ll'
I1
tp457
a(S'p1_th'
I0
tp458
a(S'w'
I1
tp459
a(S'w'
I1
tp460
a(S'p2_ll'
I1
tp461
a(S'w'
I2
tp462
a(S'no_ll'
I1
tp463
a(S'w'
I2928
tp464
a(S'p2_tl'
I158
tp465
a(S'p2_ll'
I1
tp466
a(S'p2_th'
I5
tp467
a(S'w'
I1467
tp468
a(S'p1_tl'
I50
tp469
a(S'p1_ll'
I1
tp470
a(S'w'
I2202
tp471
a(S'p2_tl'
I78
tp472
a(S'p2_ll'
I1
tp473
a(S'p2_th'
I6
tp474
a(S'w'
I2
tp475
a(S'no_ll'
I1
tp476
a(S'w'
I2199
tp477
a(S'p1_tl'
I48
tp478
a(S'p1_ll'
I1
tp479
a(S'w'
I734
tp480
a(S'p2_tl'
I244
tp481
a(S'p2_ll'
I1
tp482
a(S'p2_th'
I5
tp483
a(S'w'
I3669
tp484
a(S'p1_tl'
I45
tp485
a(S'p1_ll'
I1
tp486
a(S'w'
I1
tp487
a(S'p2_tl'
I158
tp488
a(S'p2_ll'
I1
tp489
a(S'w'
I2
tp490
a(S'no_ll'
I1
tp491
a(S'w'
I2932
tp492
a(S'p2_tl'
I244
tp493
a(S'p2_ll'
I1
tp494
a(S'w'
I3669
tp495
a(S'p2_tl'
I158
tp496
a(S'p2_ll'
I1
tp497
a(S'w'
I2935
tp498
a(S'p2_tl'
I78
tp499
a(S'w'
I1
tp500
a(S'p2_ll'
I1
tp501
a(S'p2_th'
I6
tp502
a(S'w'
I3668
tp503
a(S'p1_tl'
I48
tp504
a(S'p1_ll'
I1
tp505
a(S'w'
I1
tp506
a(S'w'
I1
tp507
a(S'p2_ll'
I1
tp508
a(S'w'
I2933
tp509
a(S'p2_tl'
I158
tp510
a(S'w'
I1
tp511
a(S'p2_ll'
I1
tp512
a(S'p2_th'
I5
tp513
a(S'w'
I1467
tp514
a(S'p1_tl'
I50
tp515
a(S'p1_ll'
I1
tp516
a(S'w'
I2201
tp517
a(S'p2_tl'
I78
tp518
a(S'w'
I1
tp519
a(S'p2_ll'
I1
tp520
a(S'p2_th'
I6
tp521
a(S'w'
I2201
tp522
a(S'p1_tl'
I48
tp523
a(S'p1_ll'
I1
tp524
a(S'w'
I734
tp525
a(S'p2_tl'
I244
tp526
a(S'p2_ll'
I1
tp527
a(S'p2_th'
I5
tp528
a(S'w'
I3668
tp529
a(S'p1_tl'
I45
tp530
a(S'w'
I1
tp531
a(S'p1_ll'
I1
tp532
a(S'w'
I1
tp533
a(S'p2_ll'
I1
tp534
a(S'w'
I2
tp535
a(S'no_ll'
I1
tp536
a(S'w'
I2932
tp537
a(S'p2_ll'
I1
tp538
a(S'w'
I3669
tp539
a(S'p2_tl'
I158
tp540
a(S'p2_ll'
I1
tp541
a(S'w'
I2
tp542
a(S'no_ll'
I1
tp543
a(S'w'
I2933
tp544
a(S'p2_ll'
I1
tp545
a(S'w'
I3669
tp546
a(S'p1_tl'
I48
tp547
a(S'p1_ll'
I1
tp548
a(S'w'
I1
tp549
a(S'w'
I1
tp550
a(S'p2_ll'
I1
tp551
a(S'w'
I2933
tp552
a(S'p2_tl'
I244
tp553
a(S'w'
I1
tp554
a(S'p2_ll'
I1
tp555
a(S'w'
I1467
tp556
a(S'p1_tl'
I50
tp557
a(S'p1_ll'
I1
tp558
a(S'w'
I2201
tp559
a(S'p2_tl'
I158
tp560
a(S'w'
I1
tp561
a(S'p2_ll'
I1
tp562
a(S'w'
I2200
tp563
a(S'p1_tl'
I48
tp564
a(S'w'
I1
tp565
a(S'p1_ll'
I1
tp566
a(S'w'
I733
tp567
a(S'p2_tl'
I78
tp568
a(S'w'
I1
tp569
a(S'p2_ll'
I1
tp570
a(S'p2_th'
I6
tp571
a(S'w'
I3668
tp572
a(S'p1_tl'
I45
tp573
a(S'p1_ll'
I1
tp574
a(S'w'
I2
tp575
a(S'p2_ll'
I1
tp576
a(S'w'
I2934
tp577
a(S'p2_tl'
I158
tp578
a(S'p2_ll'
I1
tp579
a(S'p2_th'
I5
tp580
a(S'w'
I3669
tp581
a(S'p2_tl'
I78
tp582
a(S'p2_ll'
I1
tp583
a(S'p2_th'
I6
tp584
a(S'w'
I2935
tp585
a(S'p2_tl'
I244
tp586
a(S'p2_ll'
I1
tp587
a(S'p2_th'
I5
tp588
a(S'w'
I3669
tp589
a(S'p1_tl'
I48
tp590
a(S'p1_ll'
I1
tp591
a(S'w'
I1
tp592
a(S'p2_ll'
I1
tp593
a(S'w'
I2
tp594
a(S'no_ll'
I1
tp595
a(S'w'
I2932
tp596
a(S'p2_ll'
I1
tp597
a(S'w'
I1467
tp598
a(S'p1_tl'
I50
tp599
a(S'w'
I1
tp600
a(S'p1_ll'
I1
tp601
a(S'w'
I2201
tp602
a(S'p2_tl'
I158
tp603
a(S'p2_ll'
I1
tp604
a(S'w'
I2
tp605
a(S'no_ll'
I1
tp606
a(S'w'
I2199
tp607
a(S'p1_tl'
I48
tp608
a(S'w'
I1
tp609
a(S'p1_ll'
I1
tp610
a(S'w'
I733
tp611
a(S'w'
I1
tp612
a(S'p2_ll'
I1
tp613
a(S'w'
I3668
tp614
a(S'p1_tl'
I45
tp615
a(S'p1_ll'
I1
tp616
a(S'w'
I1
tp617
a(S'w'
I1
tp618
a(S'p2_ll'
I1
tp619
a(S'w'
I2934
tp620
a(S'p2_tl'
I244
tp621
a(S'p2_ll'
I1
tp622
a(S'w'
I3669
tp623
a(S'p2_tl'
I158
tp624
a(S'p2_ll'
I1
tp625
a(S'w'
I2935
tp626
a(S'p2_tl'
I78
tp627
a(S'p2_ll'
I1
tp628
a(S'p2_th'
I6
tp629
a(S'w'
I3670
tp630
a(S'p2_vo'
I0
tp631
a(S'w'
I5
tp632
a(S'p1_tl'
I39
tp633
a(S'p1_ll'
I1
tp634
a(S'p1_th'
I3
tp635
a(S'w'
I2
tp636
a(S'no_ll'
I1
tp637
a(S'w'
I4394
tp638
a(S'p1_tl'
I129
tp639
a(S'w'
I1
tp640
a(S'p1_ll'
I1
tp641
a(S'p1_th'
I2
tp642
a(S'w'
I1
tp643
a(S'no_ll'
I1
tp644
a(S'w'
I4401
tp645
a(S'p1_tl'
I252
tp646
a(S'p1_ll'
I1
tp647
a(S'p1_th'
I1
tp648
a(S'w'
I2
tp649
a(S'no_ll'
I1
tp650
a(S'w'
I4401
tp651
a(S'p1_tl'
I250
tp652
a(S'p1_ll'
I1
tp653
a(S'p1_th'
I2
tp654
a(S'w'
I2
tp655
a(S'no_ll'
I1
tp656
a(S'w'
I4401
tp657
a(S'p1_tl'
I93
tp658
a(S'p1_ll'
I1
tp659
a(S'w'
I2
tp660
a(S'no_ll'
I1
tp661
a(S'w'
I4401
tp662
a(S'p1_tl'
I224
tp663
a(S'p1_ll'
I1
tp664
a(S'p1_th'
I1
tp665
a(S'w'
I1
tp666
a(S'no_ll'
I1
tp667
a(S'w'
I4401
tp668
a(S'p1_tl'
I207
tp669
a(S'w'
I1
tp670
a(S'p1_ll'
I1
tp671
a(S'p1_th'
I2
tp672
a(S'w'
I1
tp673
a(S'no_ll'
I1
tp674
a(S'w'
I4401
tp675
a(S'p1_tl'
I59
tp676
a(S'p1_ll'
I1
tp677
a(S'w'
I2
tp678
a(S'no_ll'
I1
tp679
a(S'w'
I4401
tp680
a(S'p1_tl'
I197
tp681
a(S'p1_ll'
I1
tp682
a(S'p1_th'
I1
tp683
a(S'w'
I2
tp684
a(S'no_ll'
I1
tp685
a(S'w'
I4401
tp686
a(S'p1_tl'
I167
tp687
a(S'p1_ll'
I1
tp688
a(S'p1_th'
I2
tp689
a(S'w'
I2
tp690
a(S'no_ll'
I1
tp691
a(S'w'
I4401
tp692
a(S'p1_tl'
I27
tp693
a(S'p1_ll'
I1
tp694
a(S'w'
I2
tp695
a(S'no_ll'
I1
tp696
a(S'w'
I4400
tp697
a(S'p1_tl'
I172
tp698
a(S'w'
I1
tp699
a(S'p1_ll'
I1
tp700
a(S'p1_th'
I1
tp701
a(S'w'
I1
tp702
a(S'no_ll'
I1
tp703
a(S'w'
I4403
tp704
a(S'p1_du'
I2
tp705
a(S'w'
I2
tp706
a(S'p2_vo'
I15
tp707
a(S'w'
I1
tp708
a(S'p1_tl'
I160
tp709
a(S'p1_ll'
I1
tp710
a(S'p1_th'
I0
tp711
a(S'w'
I1
tp712
a(S'p2_tl'
I226
tp713
a(S'w'
I1
tp714
a(S'p2_ll'
I1
tp715
a(S'p2_th'
I0
tp716
a(S'w'
I1
tp717
a(S'tr_lh'
I1
tp718
a(S'tr_lr'
I127
tp719
a(S'tr_tl'
I29
tp720
a(S'w'
I1
tp721
a(S'tr_ll'
I1
tp722
a(S'tr_th'
I1
tp723
a(S'w'
I4394
tp724
a(S'p1_tl'
I143
tp725
a(S'p1_ll'
I1
tp726
a(S'w'
I4403
tp727
a(S'p1_tl'
I127
tp728
a(S'p1_ll'
I1
tp729
a(S'w'
I4403
tp730
a(S'p1_tl'
I143
tp731
a(S'p1_ll'
I1
tp732
a(S'w'
I4402
tp733
a(S'p1_tl'
I127
tp734
a(S'w'
I1
tp735
a(S'p1_ll'
I1
tp736
a(S'w'
I4402
tp737
a(S'p1_tl'
I113
tp738
a(S'w'
I1
tp739
a(S'p1_ll'
I1
tp740
a(S'w'
I4402
tp741
a(S'p1_ll'
I1
tp742
a(S'w'
I4403
tp743
a(S'p1_tl'
I127
tp744
a(S'p1_ll'
I1
tp745
a(S'w'
I4403
tp746
a(S'p1_tl'
I160
tp747
a(S'p1_ll'
I1
tp748
a(S'w'
I4403
tp749
a(S'p1_tl'
I143
tp750
a(S'p1_ll'
I1
tp751
a(S'w'
I3670
tp752
a(S'tr_lh'
I0
tp753
a(S'w'
I732
tp754
a(S'p1_tl'
I127
tp755
a(S'w'
I1
tp756
a(S'p1_ll'
I1
tp757
a(S'w'
I4402
tp758
a(S'p1_tl'
I113
tp759
a(S'p1_ll'
I1
tp760
a(S'w'
I4403
tp761
a(S'p1_ll'
I1
tp762
a(S'w'
I4403
tp763
a(S'p1_tl'
I127
tp764
a(S'p1_ll'
I1
tp765
a(S'w'
I4403
tp766
a(S'p1_tl'
I143
tp767
a(S'p1_ll'
I1
tp768
a(S'w'
I4404
tp769
a(S'p1_du'
I0
tp770
a(S'w'
I2
tp771
a(S'p2_vo'
I0
tp772
a(S'w'
I2
tp773
a(S'tr_lr'
I0
tp774
a(S'w'
I1
tp775
a(S'p1_tl'
I39
tp776
a(S'w'
I1
tp777
a(S'p1_ll'
I1
tp778
a(S'p1_th'
I3
tp779
a(S'w'
I1
tp780
a(S'no_ll'
I1
tp781
a(S'w'
I4394
tp782
a(S'p1_tl'
I129
tp783
a(S'p1_ll'
I1
tp784
a(S'p1_th'
I2
tp785
a(S'w'
I2
tp786
a(S'no_ll'
I1
tp787
a(S'w'
I4401
tp788
a(S'p1_tl'
I252
tp789
a(S'p1_ll'
I1
tp790
a(S'p1_th'
I1
tp791
a(S'w'
I2
tp792
a(S'no_ll'
I1
tp793
a(S'w'
I4401
tp794
a(S'p1_tl'
I250
tp795
a(S'p1_ll'
I1
tp796
a(S'p1_th'
I2
tp797
a(S'w'
I2
tp798
a(S'no_ll'
I1
tp799
a(S'w'
I4401
tp800
a(S'p1_tl'
I93
tp801
a(S'p1_ll'
I1
tp802
a(S'w'
I2
tp803
a(S'no_ll'
I1
tp804
a(S'w'
I4400
tp805
a(S'p1_tl'
I224
tp806
a(S'w'
I1
tp807
a(S'p1_ll'
I1
tp808
a(S'p1_th'
I1
tp809
a(S'w'
I1
tp810
a(S'no_ll'
I1
tp811
a(S'w'
I4401
tp812
a(S'p1_tl'
I207
tp813
a(S'p1_ll'
I1
tp814
a(S'p1_th'
I2
tp815
a(S'w'
I2
tp816
a(S'no_ll'
I1
tp817
a(S'w'
I4401
tp818
a(S'p1_tl'
I59
tp819
a(S'p1_ll'
I1
tp820
a(S'w'
I2
tp821
a(S'no_ll'
I1
tp822
a(S'w'
I4401
tp823
a(S'p1_tl'
I197
tp824
a(S'p1_ll'
I1
tp825
a(S'p1_th'
I1
tp826
a(S'w'
I2
tp827
a(S'no_ll'
I1
tp828
a(S'w'
I4401
tp829
a(S'p1_tl'
I167
tp830
a(S'p1_ll'
I1
tp831
a(S'p1_th'
I2
tp832
a(S'w'
I2
tp833
a(S'no_ll'
I1
tp834
a(S'w'
I4400
tp835
a(S'p1_tl'
I27
tp836
a(S'w'
I1
tp837
a(S'p1_ll'
I1
tp838
a(S'w'
I1
tp839
a(S'no_ll'
I1
tp840
a(S'w'
I4401
tp841
a(S'p1_tl'
I172
tp842
a(S'w'
I1
tp843
a(S'p1_ll'
I1
tp844
a(S'p1_th'
I1
tp845
a(S'w'
I1
tp846
a(S'no_ll'
I1
tp847
a(S'w'
I4401
tp848
a(S'p1_tl'
I129
tp849
a(S'p1_ll'
I1
tp850
a(S'p1_th'
I2
tp851
a(S'w'
I2
tp852
a(S'no_ll'
I1
tp853
a(S'w'
I4401
tp854
a(S'p1_tl'
I252
tp855
a(S'p1_ll'
I1
tp856
a(S'p1_th'
I1
tp857
a(S'w'
I2
tp858
a(S'no_ll'
I1
tp859
a(S'w'
I4401
tp860
a(S'p1_tl'
I148
tp861
a(S'p1_ll'
I1
tp862
a(S'w'
I2
tp863
a(S'no_ll'
I1
tp864
a(S'w'
I4400
tp865
a(S'p1_tl'
I93
tp866
a(S'w'
I1
tp867
a(S'p1_ll'
I1
tp868
a(S'p1_th'
I2
tp869
a(S'w'
I1
tp870
a(S'no_ll'
I1
tp871
a(S'w'
I4401
tp872
a(S'p1_tl'
I224
tp873
a(S'w'
I1
tp874
a(S'p1_ll'
I1
tp875
a(S'p1_th'
I1
tp876
a(S'w'
I1
tp877
a(S'no_ll'
I1
tp878
a(S'w'
I4401
tp879
a(S'p1_tl'
I125
tp880
a(S'p1_ll'
I1
tp881
a(S'w'
I2
tp882
a(S'no_ll'
I1
tp883
a(S'w'
I4401
tp884
a(S'p1_tl'
I59
tp885
a(S'p1_ll'
I1
tp886
a(S'p1_th'
I2
tp887
a(S'w'
I2
tp888
a(S'no_ll'
I1
tp889
a(S'w'
I4401
tp890
a(S'p1_tl'
I197
tp891
a(S'p1_ll'
I1
tp892
a(S'p1_th'
I1
tp893
a(S'w'
I2
tp894
a(S'no_ll'
I1
tp895
a(S'w'
I4401
tp896
a(S'p1_tl'
I104
tp897
a(S'p1_ll'
I1
tp898
a(S'w'
I1
tp899
a(S'no_ll'
I1
tp900
a(S'w'
I4401
tp901
a(S'p1_tl'
I27
tp902
a(S'w'
I1
tp903
a(S'p1_ll'
I1
tp904
a(S'p1_th'
I2
tp905
a(S'w'
I1
tp906
a(S'no_ll'
I1
tp907
a(S'w'
I4401
tp908
a(S'p1_tl'
I172
tp909
a(S'p1_ll'
I1
tp910
a(S'p1_th'
I1
tp911
a(S'w'
I2
tp912
a(S'no_ll'
I1
tp913
a(S'w'
I4401
tp914
a(S'p1_tl'
I83
tp915
a(S'p1_ll'
I1
tp916
a(S'w'
I2
tp917
a(S'no_ll'
I1
tp918
a(S'w'
I4402
tp919
a(S'p1_lh'
I1
tp920
a(S'p1_cv'
I1
tp921
a(S'p1_vo'
I15
tp922
a(S'w'
I2
tp923
a(S'p2_cv'
I0
tp924
a(S'p2_vo'
I3
tp925
a(S'w'
I3
tp926
a(S'no_np'
I1
tp927
a(S'w'
I1
tp928
a(S'p1_tl'
I64
tp929
a(S'p1_ll'
I1
tp930
a(S'w'
I1
tp931
a(S'p2_tl'
I172
tp932
a(S'w'
I1
tp933
a(S'p2_ll'
I1
tp934
a(S'p2_th'
I1
tp935
a(S'w'
I1
tp936
a(S'no_ll'
I1
tp937
a(S'w'
I6594
tp938
a(S'w'
I1
tp939
a(S'p2_ll'
I1
tp940
a(S'w'
I1
tp941
a(S'no_ll'
I1
tp942
a(S'w'
I6602
tp943
a(S'w'
I1
tp944
a(S'p2_ll'
I1
tp945
a(S'w'
I6604
tp946
a(S'p2_ll'
I1
tp947
a(S'w'
I6605
tp948
a(S'no_np'
I4
tp949
a(S'w'
I1
tp950
a(S'w'
I1
tp951
a(S'p2_ll'
I1
tp952
a(S'w'
I1
tp953
a(S'no_ll'
I1
tp954
a(S'w'
I6600
tp955
a(S'p2_ll'
I1
tp956
a(S'w'
I6604
tp957
a(S'w'
I1
tp958
a(S'p2_ll'
I1
tp959
a(S'w'
I6604
tp960
a(S'p2_ll'
I1
tp961
a(S'w'
I2
tp962
a(S'no_ll'
I1
tp963
a(S'w'
I6603
tp964
a(S'no_np'
I1
tp965
a(S'w'
I1
tp966
a(S'p1_tl'
I83
tp967
a(S'p1_ll'
I1
tp968
a(S'w'
I1
tp969
a(S'p2_tl'
I197
tp970
a(S'w'
I1
tp971
a(S'p2_ll'
I1
tp972
a(S'w'
I1
tp973
a(S'no_ll'
I1
tp974
a(S'w'
I6599
tp975
a(S'p2_ll'
I1
tp976
a(S'w'
I2
tp977
a(S'no_ll'
I1
tp978
a(S'w'
I6602
tp979
a(S'p2_ll'
I1
tp980
a(S'w'
I6604
tp981
a(S'w'
I1
tp982
a(S'p2_ll'
I1
tp983
a(S'w'
I6605
tp984
a(S'no_np'
I4
tp985
a(S'w'
I1
tp986
a(S'p2_ll'
I1
tp987
a(S'w'
I2
tp988
a(S'no_ll'
I1
tp989
a(S'w'
I6600
tp990
a(S'p2_ll'
I1
tp991
a(S'w'
I6604
tp992
a(S'p2_ll'
I1
tp993
a(S'w'
I6604
tp994
a(S'w'
I1
tp995
a(S'p2_ll'
I1
tp996
a(S'w'
I1
tp997
a(S'no_ll'
I1
tp998
a(S'w'
I6604
tp999
a(S'no_np'
I1
tp1000
a(S'w'
I1
tp1001
a(S'p1_tl'
I104
tp1002
a(S'p1_ll'
I1
tp1003
a(S'w'
I1
tp1004
a(S'p2_tl'
I224
tp1005
a(S'p2_ll'
I1
tp1006
a(S'w'
I2
tp1007
a(S'no_ll'
I1
tp1008
a(S'w'
I6599
tp1009
a(S'p2_ll'
I1
tp1010
a(S'w'
I2
tp1011
a(S'no_ll'
I1
tp1012
a(S'w'
I6602
tp1013
a(S'p2_ll'
I1
tp1014
a(S'w'
I6604
tp1015
a(S'p2_ll'
I1
tp1016
a(S'w'
I6605
tp1017
a(S'no_np'
I4
tp1018
a(S'w'
I2
tp1019
a(S'p2_ll'
I1
tp1020
a(S'w'
I2
tp1021
a(S'no_ll'
I1
tp1022
a(S'w'
I6600
tp1023
a(S'p2_ll'
I1
tp1024
a(S'w'
I6604
tp1025
a(S'p2_ll'
I1
tp1026
a(S'w'
I6604
tp1027
a(S'p2_ll'
I1
tp1028
a(S'w'
I2
tp1029
a(S'no_ll'
I1
tp1030
a(S'w'
I6602
tp1031
a(S'p1_tl'
I39
tp1032
a(S'p1_ll'
I1
tp1033
a(S'p1_th'
I3
tp1034
a(S'w'
I2
tp1035
a(S'no_ll'
I1
tp1036
a(S'w'
I4401
tp1037
a(S'p1_tl'
I129
tp1038
a(S'p1_ll'
I1
tp1039
a(S'p1_th'
I2
tp1040
a(S'w'
I2
tp1041
a(S'no_ll'
I1
tp1042
a(S'w'
I4400
tp1043
a(S'p1_tl'
I252
tp1044
a(S'w'
I1
tp1045
a(S'p1_ll'
I1
tp1046
a(S'p1_th'
I1
tp1047
a(S'w'
I1
tp1048
a(S'no_ll'
I1
tp1049
a(S'w'
I4401
tp1050
a(S'p1_tl'
I250
tp1051
a(S'w'
I1
tp1052
a(S'p1_ll'
I1
tp1053
a(S'p1_th'
I2
tp1054
a(S'w'
I1
tp1055
a(S'no_ll'
I1
tp1056
a(S'w'
I4401
tp1057
a(S'p1_tl'
I93
tp1058
a(S'p1_ll'
I1
tp1059
a(S'w'
I2
tp1060
a(S'no_ll'
I1
tp1061
a(S'w'
I4401
tp1062
a(S'p1_tl'
I224
tp1063
a(S'p1_ll'
I1
tp1064
a(S'p1_th'
I1
tp1065
a(S'w'
I2
tp1066
a(S'no_ll'
I1
tp1067
a(S'w'
I4402
tp1068
a(S'no_np'
I1
tp1069
a(S'w'
I1
tp1070
a(S'p1_tl'
I125
tp1071
a(S'p1_ll'
I1
tp1072
a(S'w'
I2
tp1073
a(S'p2_tl'
I252
tp1074
a(S'p2_ll'
I1
tp1075
a(S'w'
I2
tp1076
a(S'no_ll'
I1
tp1077
a(S'w'
I6598
tp1078
a(S'w'
I1
tp1079
a(S'p2_ll'
I1
tp1080
a(S'w'
I1
tp1081
a(S'no_ll'
I1
tp1082
a(S'w'
I6602
tp1083
a(S'w'
I1
tp1084
a(S'p2_ll'
I1
tp1085
a(S'w'
I6604
tp1086
a(S'p2_ll'
I1
tp1087
a(S'w'
I6605
tp1088
a(S'no_np'
I4
tp1089
a(S'w'
I1
tp1090
a(S'w'
I1
tp1091
a(S'p2_ll'
I1
tp1092
a(S'w'
I1
tp1093
a(S'no_ll'
I1
tp1094
a(S'w'
I6600
tp1095
a(S'p2_ll'
I1
tp1096
a(S'w'
I6604
tp1097
a(S'w'
I1
tp1098
a(S'p2_ll'
I1
tp1099
a(S'w'
I6604
tp1100
a(S'p2_ll'
I1
tp1101
a(S'w'
I2
tp1102
a(S'no_ll'
I1
tp1103
a(S'w'
I6603
tp1104
a(S'no_np'
I1
tp1105
a(S'w'
I1
tp1106
a(S'p2_ll'
I1
tp1107
a(S'w'
I2
tp1108
a(S'no_ll'
I1
tp1109
a(S'w'
I6600
tp1110
a(S'p2_ll'
I1
tp1111
a(S'w'
I2
tp1112
a(S'no_ll'
I1
tp1113
a(S'w'
I6602
tp1114
a(S'p2_ll'
I1
tp1115
a(S'w'
I6604
tp1116
a(S'w'
I1
tp1117
a(S'p2_ll'
I1
tp1118
a(S'w'
I6605
tp1119
a(S'no_np'
I4
tp1120
a(S'w'
I1
tp1121
a(S'p2_ll'
I1
tp1122
a(S'w'
I2
tp1123
a(S'no_ll'
I1
tp1124
a(S'w'
I6600
tp1125
a(S'p2_ll'
I1
tp1126
a(S'w'
I6604
tp1127
a(S'p2_ll'
I1
tp1128
a(S'w'
I6604
tp1129
a(S'w'
I1
tp1130
a(S'p2_ll'
I1
tp1131
a(S'w'
I1
tp1132
a(S'no_ll'
I1
tp1133
a(S'w'
I6603
tp1134
a(S'p1_vo'
I0
tp1135
a(S'w'
I6605
tp1136
a(S'p1_vo'
I15
tp1137
a(S'w'
I2
tp1138
a(S'no_np'
I1
tp1139
a(S'w'
I1
tp1140
a(S'p1_tl'
I104
tp1141
a(S'p1_ll'
I1
tp1142
a(S'w'
I2
tp1143
a(S'p2_tl'
I224
tp1144
a(S'p2_ll'
I1
tp1145
a(S'w'
I2
tp1146
a(S'no_ll'
I1
tp1147
a(S'w'
I6596
tp1148
a(S'p2_ll'
I1
tp1149
a(S'w'
I6604
tp1150
a(S'p2_ll'
I1
tp1151
a(S'w'
I6605
tp1152
a(S'no_np'
I4
tp1153
a(S'w'
I2
tp1154
a(S'p2_ll'
I1
tp1155
a(S'w'
I2
tp1156
a(S'no_ll'
I1
tp1157
a(S'w'
I6599
tp1158
a(S'w'
I1
tp1159
a(S'p2_ll'
I1
tp1160
a(S'w'
I6604
tp1161
a(S'p2_ll'
I1
tp1162
a(S'w'
I6604
tp1163
a(S'p2_ll'
I1
tp1164
a(S'w'
I2
tp1165
a(S'no_ll'
I1
tp1166
a(S'w'
I6602
tp1167
a(S'p2_ll'
I1
tp1168
a(S'w'
I6605
tp1169
a(S'no_np'
I1
tp1170
a(S'w'
I2
tp1171
a(S'p2_ll'
I1
tp1172
a(S'w'
I2
tp1173
a(S'no_ll'
I1
tp1174
a(S'w'
I6599
tp1175
a(S'w'
I1
tp1176
a(S'p2_ll'
I1
tp1177
a(S'w'
I6604
tp1178
a(S'p2_ll'
I1
tp1179
a(S'w'
I6605
tp1180
a(S'no_np'
I4
tp1181
a(S'w'
I1
tp1182
a(S'w'
I1
tp1183
a(S'p2_ll'
I1
tp1184
a(S'w'
I1
tp1185
a(S'no_ll'
I1
tp1186
a(S'w'
I6600
tp1187
a(S'w'
I1
tp1188
a(S'p2_ll'
I1
tp1189
a(S'w'
I6603
tp1190
a(S'w'
I1
tp1191
a(S'p2_ll'
I1
tp1192
a(S'w'
I6604
tp1193
a(S'p2_ll'
I1
tp1194
a(S'w'
I2
tp1195
a(S'no_ll'
I1
tp1196
a(S'w'
I6603
tp1197
a(S'p1_lh'
I0
tp1198
a(S'p1_cv'
I0
tp1199
a(S'p1_vo'
I8
tp1200
a(S'w'
I2
tp1201
a(S'p2_vo'
I8
tp1202
a(S'w'
I5
tp1203
a.