(lp1
(S'clock'
p2
I1789772
tp3
a(S'p1_cv'
I1
tp4
a(S'p1_ll'
I3
tp5
a(S'p2_cv'
I1
tp6
a(S'p2_ll'
I3
tp7
a(S'tr_ll'
I3
tp8
a(S'no_ll'
I3
tp9
a(S'ch_no'
I0
tp10
a(S'ch_tr'
I0
tp11
a(S'ch_p2'
I0
tp12
a(S'ch_p1'
I0
tp13
a(S'fc_mo'
I1
tp14
a(S'p1_du'
I2
tp15
a(S'p1_cv'
I0
tp16
a(S'p1_vo'
I15
tp17
a(S'w'
I2
tp18
a(S'p1_sn'
I1
tp19
a(S'w'
I3
tp20
a(S'p2_du'
I2
tp21
a(S'p2_cv'
I0
tp22
a(S'p2_vo'
I15
tp23
a(S'w'
I2
tp24
a(S'p2_sn'
I1
tp25
a(S'w'
I5
tp26
a(S'no_vo'
I3
tp27
a(S'w'
I2
tp28
a(S'no_np'
I1
tp29
a(S'w'
I2
tp30
a(S'ch_no'
I1
tp31
a(S'ch_tr'
I1
tp32
a(S'ch_p2'
I1
tp33
a(S'ch_p1'
I1
tp34
a(S'w'
I1
tp35
a(S'p1_tl'
I160
tp36
a(S'w'
I1
tp37
a(S'p1_ll'
I1
tp38
a(S'w'
I1
tp39
a(S'p2_tl'
I170
tp40
a(S'p2_ll'
I1
tp41
a(S'w'
I2
tp42
a(S'no_ll'
I1
tp43
a(S'w'
I19787
tp44
a(S'no_np'
I3
tp45
a(S'w'
I2
tp46
a(S'no_ll'
I1
tp47
a(S'w'
I10271
tp48
a(S'no_np'
I1
tp49
a(S'w'
I2
tp50
a(S'no_ll'
I1
tp51
a(S'w'
I10271
tp52
a(S'no_ll'
I1
tp53
a(S'w'
I9540
tp54
a(S'no_np'
I3
tp55
a(S'w'
I2
tp56
a(S'no_ll'
I1
tp57
a(S'w'
I10271
tp58
a(S'no_np'
I1
tp59
a(S'w'
I2
tp60
a(S'no_ll'
I1
tp61
a(S'w'
I9537
tp62
a(S'no_np'
I3
tp63
a(S'w'
I2
tp64
a(S'no_ll'
I1
tp65
a(S'w'
I10272
tp66
a(S'no_np'
I1
tp67
a(S'w'
I1
tp68
a(S'p1_tl'
I120
tp69
a(S'p1_ll'
I1
tp70
a(S'w'
I1
tp71
a(S'p2_tl'
I127
tp72
a(S'p2_ll'
I1
tp73
a(S'w'
I2
tp74
a(S'no_ll'
I1
tp75
a(S'w'
I19808
tp76
a(S'no_np'
I3
tp77
a(S'w'
I2
tp78
a(S'no_ll'
I1
tp79
a(S'w'
I20544
tp80
a(S'no_ll'
I1
tp81
a(S'w'
I9540
tp82
a(S'no_np'
I1
tp83
a(S'w'
I2
tp84
a(S'no_ll'
I1
tp85
a(S'w'
I10271
tp86
a(S'no_vo'
I1
tp87
a(S'w'
I3
tp88
a(S'no_np'
I3
tp89
a(S'w'
I2
tp90
a(S'no_ll'
I1
tp91
a(S'w'
I3664
tp92
a(S'no_ll'
I1
tp93
a(S'w'
I3669
tp94
a(S'no_ll'
I1
tp95
a(S'w'
I2936
tp96
a(S'no_np'
I1
tp97
a(S'w'
I1
tp98
a(S'no_ll'
I1
tp99
a(S'w'
I3667
tp100
a(S'no_ll'
I1
tp101
a(S'w'
I2935
tp102
a(S'no_ll'
I1
tp103
a(S'w'
I2938
tp104
a(S'p1_vo'
I2
tp105
a(S'w'
I2
tp106
a(S'p2_vo'
I2
tp107
a(S'w'
I2
tp108
a(S'w'
I3
tp109
a(S'w'
I1
tp110
a(S'tr_lh'
I1
tp111
a(S'tr_lr'
I127
tp112
a(S'tr_tl'
I254
tp113
a(S'w'
I1
tp114
a(S'tr_ll'
I1
tp115
a(S'w'
I1
tp116
a(S'no_ll'
I1
tp117
a(S'w'
I5124
tp118
a(S'no_ll'
I1
tp119
a(S'w'
I5136
tp120
a(S'p1_tl'
I254
tp121
a(S'p1_ll'
I1
tp122
a(S'w'
I1
tp123
a(S'p2_tl'
I83
tp124
a(S'w'
I1
tp125
a(S'p2_ll'
I1
tp126
a(S'p2_th'
I1
tp127
a(S'w'
I1
tp128
a(S'no_ll'
I1
tp129
a(S'w'
I4400
tp130
a(S'no_ll'
I1
tp131
a(S'w'
I5137
tp132
a(S'no_ll'
I1
tp133
a(S'w'
I5136
tp134
a(S'p1_tl'
I240
tp135
a(S'p1_ll'
I1
tp136
a(S'w'
I1
tp137
a(S'p2_tl'
I64
tp138
a(S'w'
I1
tp139
a(S'p2_ll'
I1
tp140
a(S'w'
I1
tp141
a(S'no_ll'
I1
tp142
a(S'w'
I5134
tp143
a(S'no_ll'
I1
tp144
a(S'w'
I5137
tp145
a(S'no_ll'
I1
tp146
a(S'w'
I5136
tp147
a(S'p1_tl'
I254
tp148
a(S'p1_ll'
I1
tp149
a(S'w'
I1
tp150
a(S'p2_tl'
I83
tp151
a(S'w'
I1
tp152
a(S'p2_ll'
I1
tp153
a(S'w'
I1
tp154
a(S'no_ll'
I1
tp155
a(S'w'
I4400
tp156
a(S'no_ll'
I1
tp157
a(S'w'
I5137
tp158
a(S'no_ll'
I1
tp159
a(S'w'
I5136
tp160
a(S'p1_tl'
I13
tp161
a(S'p1_ll'
I1
tp162
a(S'p1_th'
I1
tp163
a(S'w'
I1
tp164
a(S'p2_tl'
I104
tp165
a(S'p2_ll'
I1
tp166
a(S'w'
I2
tp167
a(S'no_ll'
I1
tp168
a(S'w'
I5134
tp169
a(S'no_ll'
I1
tp170
a(S'w'
I5137
tp171
a(S'no_ll'
I1
tp172
a(S'w'
I4403
tp173
a(S'no_ll'
I1
tp174
a(S'w'
I5136
tp175
a(S'no_ll'
I1
tp176
a(S'w'
I5137
tp177
a(S'no_ll'
I1
tp178
a(S'w'
I5136
tp179
a(S'no_ll'
I1
tp180
a(S'w'
I5136
tp181
a(S'p1_tl'
I29
tp182
a(S'p1_ll'
I1
tp183
a(S'w'
I2
tp184
a(S'p2_tl'
I59
tp185
a(S'p2_ll'
I1
tp186
a(S'p2_th'
I2
tp187
a(S'w'
I2
tp188
a(S'no_ll'
I1
tp189
a(S'w'
I5133
tp190
a(S'p1_tl'
I254
tp191
a(S'p1_ll'
I1
tp192
a(S'p1_th'
I0
tp193
a(S'w'
I1
tp194
a(S'p2_tl'
I252
tp195
a(S'w'
I1
tp196
a(S'p2_ll'
I1
tp197
a(S'p2_th'
I1
tp198
a(S'w'
I1
tp199
a(S'no_ll'
I1
tp200
a(S'w'
I4400
tp201
a(S'p1_tl'
I214
tp202
a(S'p1_ll'
I1
tp203
a(S'w'
I1
tp204
a(S'p2_tl'
I172
tp205
a(S'p2_ll'
I1
tp206
a(S'w'
I2
tp207
a(S'no_ll'
I1
tp208
a(S'w'
I5133
tp209
a(S'p1_tl'
I190
tp210
a(S'w'
I1
tp211
a(S'p1_ll'
I1
tp212
a(S'w'
I1
tp213
a(S'p2_tl'
I125
tp214
a(S'p2_ll'
I1
tp215
a(S'w'
I2
tp216
a(S'no_ll'
I1
tp217
a(S'w'
I5133
tp218
a(S'p1_tl'
I29
tp219
a(S'p1_ll'
I1
tp220
a(S'p1_th'
I1
tp221
a(S'w'
I1
tp222
a(S'p2_tl'
I59
tp223
a(S'w'
I1
tp224
a(S'p2_ll'
I1
tp225
a(S'p2_th'
I2
tp226
a(S'w'
I1
tp227
a(S'no_ll'
I1
tp228
a(S'w'
I5133
tp229
a(S'p1_tl'
I254
tp230
a(S'w'
I1
tp231
a(S'p1_ll'
I1
tp232
a(S'p1_th'
I0
tp233
a(S'w'
I1
tp234
a(S'p2_tl'
I252
tp235
a(S'p2_ll'
I1
tp236
a(S'p2_th'
I1
tp237
a(S'w'
I2
tp238
a(S'no_ll'
I1
tp239
a(S'w'
I5134
tp240
a(S'no_ll'
I1
tp241
a(S'w'
I4403
tp242
a(S'no_ll'
I1
tp243
a(S'w'
I5136
tp244
a(S'no_ll'
I1
tp245
a(S'w'
I5137
tp246
a(S'no_ll'
I1
tp247
a(S'w'
I2202
tp248
a(S'tr_lh'
I0
tp249
a(S'w'
I2935
tp250
a(S'p1_du'
I0
tp251
a(S'w'
I1
tp252
a(S'p1_tl'
I87
tp253
a(S'p1_ll'
I1
tp254
a(S'p1_th'
I3
tp255
a(S'w'
I2
tp256
a(S'no_ll'
I1
tp257
a(S'w'
I5132
tp258
a(S'p1_tl'
I250
tp259
a(S'w'
I1
tp260
a(S'p1_ll'
I1
tp261
a(S'p1_th'
I2
tp262
a(S'w'
I1
tp263
a(S'no_ll'
I1
tp264
a(S'w'
I5135
tp265
a(S'p1_tl'
I117
tp266
a(S'p1_ll'
I1
tp267
a(S'p1_th'
I4
tp268
a(S'w'
I2
tp269
a(S'no_ll'
I1
tp270
a(S'w'
I4401
tp271
a(S'p1_tl'
I249
tp272
a(S'p1_ll'
I1
tp273
a(S'p1_th'
I3
tp274
a(S'w'
I2
tp275
a(S'no_ll'
I1
tp276
a(S'w'
I5136
tp277
a(S'p1_du'
I2
tp278
a(S'w'
I1
tp279
a(S'tr_lh'
I1
tp280
a(S'tr_tl'
I29
tp281
a(S'w'
I1
tp282
a(S'tr_ll'
I1
tp283
a(S'tr_th'
I1
tp284
a(S'w'
I1
tp285
a(S'no_ll'
I1
tp286
a(S'w'
I5133
tp287
a(S'no_ll'
I1
tp288
a(S'w'
I5136
tp289
a(S'p1_tl'
I29
tp290
a(S'p1_ll'
I1
tp291
a(S'p1_th'
I1
tp292
a(S'w'
I1
tp293
a(S'p2_tl'
I125
tp294
a(S'p2_ll'
I1
tp295
a(S'w'
I2
tp296
a(S'no_ll'
I1
tp297
a(S'w'
I5134
tp298
a(S'no_ll'
I1
tp299
a(S'w'
I4403
tp300
a(S'no_ll'
I1
tp301
a(S'w'
I5136
tp302
a(S'p1_tl'
I13
tp303
a(S'p1_ll'
I1
tp304
a(S'w'
I1
tp305
a(S'p2_tl'
I104
tp306
a(S'p2_ll'
I1
tp307
a(S'w'
I2
tp308
a(S'no_ll'
I1
tp309
a(S'w'
I5134
tp310
a(S'no_ll'
I1
tp311
a(S'w'
I5137
tp312
a(S'no_ll'
I1
tp313
a(S'w'
I5135
tp314
a(S'p1_tl'
I29
tp315
a(S'w'
I1
tp316
a(S'p1_ll'
I1
tp317
a(S'w'
I1
tp318
a(S'p2_tl'
I125
tp319
a(S'p2_ll'
I1
tp320
a(S'w'
I2
tp321
a(S'no_ll'
I1
tp322
a(S'w'
I5134
tp323
a(S'no_ll'
I1
tp324
a(S'w'
I4403
tp325
a(S'no_ll'
I1
tp326
a(S'w'
I5136
tp327
a(S'p1_tl'
I46
tp328
a(S'p1_ll'
I1
tp329
a(S'w'
I1
tp330
a(S'p2_tl'
I148
tp331
a(S'p2_ll'
I1
tp332
a(S'w'
I2
tp333
a(S'no_ll'
I1
tp334
a(S'w'
I5134
tp335
a(S'no_ll'
I1
tp336
a(S'w'
I5136
tp337
a(S'no_ll'
I1
tp338
a(S'w'
I5137
tp339
a(S'no_ll'
I1
tp340
a(S'w'
I4403
tp341
a(S'no_ll'
I1
tp342
a(S'w'
I5136
tp343
a(S'p1_tl'
I29
tp344
a(S'p1_ll'
I1
tp345
a(S'w'
I1
tp346
a(S'p2_tl'
I59
tp347
a(S'p2_ll'
I1
tp348
a(S'p2_th'
I2
tp349
a(S'w'
I2
tp350
a(S'no_ll'
I1
tp351
a(S'w'
I5133
tp352
a(S'p1_tl'
I64
tp353
a(S'w'
I1
tp354
a(S'p1_ll'
I1
tp355
a(S'w'
I1
tp356
a(S'p2_tl'
I129
tp357
a(S'p2_ll'
I1
tp358
a(S'w'
I2
tp359
a(S'no_ll'
I1
tp360
a(S'w'
I5133
tp361
a(S'p1_tl'
I214
tp362
a(S'p1_ll'
I1
tp363
a(S'p1_th'
I0
tp364
a(S'w'
I1
tp365
a(S'p2_tl'
I172
tp366
a(S'w'
I1
tp367
a(S'p2_ll'
I1
tp368
a(S'p2_th'
I1
tp369
a(S'w'
I1
tp370
a(S'no_ll'
I1
tp371
a(S'w'
I5134
tp372
a(S'p1_tl'
I240
tp373
a(S'p1_ll'
I1
tp374
a(S'w'
I1
tp375
a(S'p2_tl'
I224
tp376
a(S'p2_ll'
I1
tp377
a(S'w'
I2
tp378
a(S'no_ll'
I1
tp379
a(S'w'
I5133
tp380
a(S'p1_tl'
I160
tp381
a(S'p1_ll'
I1
tp382
a(S'w'
I2
tp383
a(S'p2_tl'
I64
tp384
a(S'p2_ll'
I1
tp385
a(S'w'
I2
tp386
a(S'no_ll'
I1
tp387
a(S'w'
I4399
tp388
a(S'p1_tl'
I190
tp389
a(S'p1_ll'
I1
tp390
a(S'w'
I1
tp391
a(S'p2_tl'
I125
tp392
a(S'w'
I1
tp393
a(S'p2_ll'
I1
tp394
a(S'w'
I1
tp395
a(S'no_ll'
I1
tp396
a(S'w'
I5134
tp397
a(S'p1_tl'
I240
tp398
a(S'p1_ll'
I1
tp399
a(S'w'
I1
tp400
a(S'p2_tl'
I224
tp401
a(S'p2_ll'
I1
tp402
a(S'w'
I2
tp403
a(S'no_ll'
I1
tp404
a(S'w'
I5133
tp405
a(S'p1_tl'
I214
tp406
a(S'p1_ll'
I1
tp407
a(S'w'
I2
tp408
a(S'p2_tl'
I172
tp409
a(S'p2_ll'
I1
tp410
a(S'w'
I2
tp411
a(S'no_ll'
I1
tp412
a(S'w'
I5134
tp413
a(S'no_ll'
I1
tp414
a(S'w'
I5136
tp415
a(S'no_ll'
I1
tp416
a(S'w'
I4403
tp417
a(S'no_ll'
I1
tp418
a(S'w'
I5137
tp419
a(S'no_ll'
I1
tp420
a(S'w'
I2202
tp421
a(S'tr_lh'
I0
tp422
a(S'w'
I2934
tp423
a(S'no_ll'
I1
tp424
a(S'w'
I5137
tp425
a(S'no_ll'
I1
tp426
a(S'w'
I5136
tp427
a(S'no_ll'
I1
tp428
a(S'w'
I5137
tp429
a(S'no_ll'
I1
tp430
a(S'w'
I4402
tp431
a(S'tr_lh'
I1
tp432
a(S'w'
I1
tp433
a(S'tr_tl'
I254
tp434
a(S'tr_ll'
I1
tp435
a(S'tr_th'
I0
tp436
a(S'w'
I2
tp437
a(S'no_ll'
I1
tp438
a(S'w'
I5134
tp439
a(S'no_ll'
I1
tp440
a(S'w'
I5136
tp441
a(S'p1_tl'
I254
tp442
a(S'w'
I1
tp443
a(S'p1_ll'
I1
tp444
a(S'w'
I1
tp445
a(S'p2_tl'
I83
tp446
a(S'p2_ll'
I1
tp447
a(S'w'
I2
tp448
a(S'no_ll'
I1
tp449
a(S'w'
I5134
tp450
a(S'no_ll'
I1
tp451
a(S'w'
I5136
tp452
a(S'no_ll'
I1
tp453
a(S'w'
I4402
tp454
a(S'p1_tl'
I240
tp455
a(S'w'
I1
tp456
a(S'p1_ll'
I1
tp457
a(S'w'
I1
tp458
a(S'p2_tl'
I64
tp459
a(S'p2_ll'
I1
tp460
a(S'w'
I2
tp461
a(S'no_ll'
I1
tp462
a(S'w'
I5134
tp463
a(S'no_ll'
I1
tp464
a(S'w'
I5136
tp465
a(S'no_ll'
I1
tp466
a(S'w'
I5136
tp467
a(S'p1_tl'
I254
tp468
a(S'p1_ll'
I1
tp469
a(S'w'
I2
tp470
a(S'p2_tl'
I83
tp471
a(S'p2_ll'
I1
tp472
a(S'w'
I2
tp473
a(S'no_ll'
I1
tp474
a(S'w'
I5134
tp475
a(S'no_ll'
I1
tp476
a(S'w'
I5136
tp477
a(S'no_ll'
I1
tp478
a(S'w'
I4402
tp479
a(S'p1_tl'
I13
tp480
a(S'p1_ll'
I1
tp481
a(S'p1_th'
I1
tp482
a(S'w'
I2
tp483
a(S'p2_tl'
I104
tp484
a(S'p2_ll'
I1
tp485
a(S'w'
I2
tp486
a(S'no_ll'
I1
tp487
a(S'w'
I5134
tp488
a(S'no_ll'
I1
tp489
a(S'w'
I5136
tp490
a(S'no_ll'
I1
tp491
a(S'w'
I5137
tp492
a(S'no_ll'
I1
tp493
a(S'w'
I5136
tp494
a(S'no_ll'
I1
tp495
a(S'w'
I4403
tp496
a(S'no_ll'
I1
tp497
a(S'w'
I5137
tp498
a(S'no_ll'
I1
tp499
a(S'w'
I5136
tp500
a(S'p1_tl'
I29
tp501
a(S'p1_ll'
I1
tp502
a(S'w'
I1
tp503
a(S'p2_tl'
I59
tp504
a(S'p2_ll'
I1
tp505
a(S'p2_th'
I2
tp506
a(S'w'
I2
tp507
a(S'no_ll'
I1
tp508
a(S'w'
I5133
tp509
a(S'p1_tl'
I254
tp510
a(S'w'
I1
tp511
a(S'p1_ll'
I1
tp512
a(S'p1_th'
I0
tp513
a(S'w'
I1
tp514
a(S'p2_tl'
I252
tp515
a(S'p2_ll'
I1
tp516
a(S'p2_th'
I1
tp517
a(S'w'
I2
tp518
a(S'no_ll'
I1
tp519
a(S'w'
I5133
tp520
a(S'p1_tl'
I214
tp521
a(S'p1_ll'
I1
tp522
a(S'w'
I1
tp523
a(S'p2_tl'
I172
tp524
a(S'w'
I1
tp525
a(S'p2_ll'
I1
tp526
a(S'w'
I1
tp527
a(S'no_ll'
I1
tp528
a(S'w'
I5133
tp529
a(S'p1_tl'
I190
tp530
a(S'w'
I1
tp531
a(S'p1_ll'
I1
tp532
a(S'w'
I1
tp533
a(S'p2_tl'
I125
tp534
a(S'p2_ll'
I1
tp535
a(S'w'
I2
tp536
a(S'no_ll'
I1
tp537
a(S'w'
I4399
tp538
a(S'p1_tl'
I29
tp539
a(S'w'
I1
tp540
a(S'p1_ll'
I1
tp541
a(S'p1_th'
I1
tp542
a(S'w'
I1
tp543
a(S'p2_tl'
I59
tp544
a(S'p2_ll'
I1
tp545
a(S'p2_th'
I2
tp546
a(S'w'
I2
tp547
a(S'no_ll'
I1
tp548
a(S'w'
I5133
tp549
a(S'p1_tl'
I254
tp550
a(S'p1_ll'
I1
tp551
a(S'p1_th'
I0
tp552
a(S'w'
I1
tp553
a(S'p2_tl'
I252
tp554
a(S'w'
I1
tp555
a(S'p2_ll'
I1
tp556
a(S'p2_th'
I1
tp557
a(S'w'
I1
tp558
a(S'no_ll'
I1
tp559
a(S'w'
I5134
tp560
a(S'no_ll'
I1
tp561
a(S'w'
I5137
tp562
a(S'no_ll'
I1
tp563
a(S'w'
I5137
tp564
a(S'no_ll'
I1
tp565
a(S'w'
I4402
tp566
a(S'no_ll'
I1
tp567
a(S'w'
I2936
tp568
a(S'tr_lh'
I0
tp569
a(S'w'
I2201
tp570
a(S'p1_du'
I0
tp571
a(S'w'
I2
tp572
a(S'p1_tl'
I87
tp573
a(S'p1_ll'
I1
tp574
a(S'p1_th'
I3
tp575
a(S'w'
I1
tp576
a(S'no_ll'
I1
tp577
a(S'w'
I5133
tp578
a(S'p1_tl'
I250
tp579
a(S'p1_ll'
I1
tp580
a(S'p1_th'
I2
tp581
a(S'w'
I2
tp582
a(S'no_ll'
I1
tp583
a(S'w'
I5134
tp584
a(S'p1_tl'
I117
tp585
a(S'w'
I1
tp586
a(S'p1_ll'
I1
tp587
a(S'p1_th'
I4
tp588
a(S'w'
I1
tp589
a(S'no_ll'
I1
tp590
a(S'w'
I5135
tp591
a(S'p1_tl'
I249
tp592
a(S'p1_ll'
I1
tp593
a(S'p1_th'
I3
tp594
a(S'w'
I2
tp595
a(S'no_ll'
I1
tp596
a(S'w'
I5136
tp597
a(S'p1_du'
I2
tp598
a(S'w'
I1
tp599
a(S'tr_lh'
I1
tp600
a(S'w'
I1
tp601
a(S'tr_tl'
I29
tp602
a(S'tr_ll'
I1
tp603
a(S'tr_th'
I1
tp604
a(S'w'
I2
tp605
a(S'no_ll'
I1
tp606
a(S'w'
I4398
tp607
a(S'no_ll'
I1
tp608
a(S'w'
I5136
tp609
a(S'p1_tl'
I29
tp610
a(S'p1_ll'
I1
tp611
a(S'p1_th'
I1
tp612
a(S'w'
I1
tp613
a(S'p2_tl'
I125
tp614
a(S'w'
I1
tp615
a(S'p2_ll'
I1
tp616
a(S'w'
I2
tp617
a(S'no_ll'
I1
tp618
a(S'w'
I5133
tp619
a(S'no_ll'
I1
tp620
a(S'w'
I5137
tp621
a(S'no_ll'
I1
tp622
a(S'w'
I5136
tp623
a(S'p1_tl'
I13
tp624
a(S'p1_ll'
I1
tp625
a(S'w'
I1
tp626
a(S'p2_tl'
I104
tp627
a(S'w'
I1
tp628
a(S'p2_ll'
I1
tp629
a(S'w'
I1
tp630
a(S'no_ll'
I1
tp631
a(S'w'
I4400
tp632
a(S'no_ll'
I1
tp633
a(S'w'
I5137
tp634
a(S'no_ll'
I1
tp635
a(S'w'
I5136
tp636
a(S'p1_tl'
I29
tp637
a(S'p1_ll'
I1
tp638
a(S'w'
I1
tp639
a(S'p2_tl'
I125
tp640
a(S'w'
I1
tp641
a(S'p2_ll'
I1
tp642
a(S'w'
I1
tp643
a(S'no_ll'
I1
tp644
a(S'w'
I5134
tp645
a(S'no_ll'
I1
tp646
a(S'w'
I5137
tp647
a(S'no_ll'
I1
tp648
a(S'w'
I5136
tp649
a(S'p1_tl'
I46
tp650
a(S'p1_ll'
I1
tp651
a(S'w'
I1
tp652
a(S'p2_tl'
I148
tp653
a(S'w'
I1
tp654
a(S'p2_ll'
I1
tp655
a(S'w'
I1
tp656
a(S'no_ll'
I1
tp657
a(S'w'
I4400
tp658
a(S'no_ll'
I1
tp659
a(S'w'
I5137
tp660
a(S'no_ll'
I1
tp661
a(S'w'
I5137
tp662
a(S'no_ll'
I1
tp663
a(S'w'
I5136
tp664
a(S'no_ll'
I1
tp665
a(S'w'
I5136
tp666
a(S'p1_tl'
I29
tp667
a(S'p1_ll'
I1
tp668
a(S'w'
I1
tp669
a(S'p2_tl'
I59
tp670
a(S'w'
I1
tp671
a(S'p2_ll'
I1
tp672
a(S'p2_th'
I2
tp673
a(S'w'
I1
tp674
a(S'no_ll'
I1
tp675
a(S'w'
I4400
tp676
a(S'p1_tl'
I64
tp677
a(S'p1_ll'
I1
tp678
a(S'w'
I1
tp679
a(S'p2_tl'
I129
tp680
a(S'w'
I1
tp681
a(S'p2_ll'
I1
tp682
a(S'w'
I1
tp683
a(S'no_ll'
I1
tp684
a(S'w'
I5133
tp685
a(S'p1_tl'
I214
tp686
a(S'w'
I1
tp687
a(S'p1_ll'
I1
tp688
a(S'p1_th'
I0
tp689
a(S'w'
I1
tp690
a(S'p2_tl'
I172
tp691
a(S'p2_ll'
I1
tp692
a(S'p2_th'
I1
tp693
a(S'w'
I2
tp694
a(S'no_ll'
I1
tp695
a(S'w'
I5133
tp696
a(S'p1_tl'
I240
tp697
a(S'p1_ll'
I1
tp698
a(S'w'
I1
tp699
a(S'p2_tl'
I224
tp700
a(S'w'
I1
tp701
a(S'p2_ll'
I1
tp702
a(S'w'
I2
tp703
a(S'no_ll'
I1
tp704
a(S'w'
I5133
tp705
a(S'p1_tl'
I160
tp706
a(S'p1_ll'
I1
tp707
a(S'w'
I1
tp708
a(S'p2_tl'
I64
tp709
a(S'p2_ll'
I1
tp710
a(S'w'
I2
tp711
a(S'no_ll'
I1
tp712
a(S'w'
I5133
tp713
a(S'p1_tl'
I190
tp714
a(S'p1_ll'
I1
tp715
a(S'w'
I2
tp716
a(S'p2_tl'
I125
tp717
a(S'p2_ll'
I1
tp718
a(S'w'
I2
tp719
a(S'no_ll'
I1
tp720
a(S'w'
I5133
tp721
a(S'p1_tl'
I240
tp722
a(S'p1_ll'
I1
tp723
a(S'w'
I1
tp724
a(S'p2_tl'
I224
tp725
a(S'w'
I1
tp726
a(S'p2_ll'
I1
tp727
a(S'w'
I1
tp728
a(S'no_ll'
I1
tp729
a(S'w'
I4400
tp730
a(S'p1_tl'
I214
tp731
a(S'p1_ll'
I1
tp732
a(S'w'
I1
tp733
a(S'p2_tl'
I172
tp734
a(S'p2_ll'
I1
tp735
a(S'w'
I2
tp736
a(S'no_ll'
I1
tp737
a(S'w'
I5134
tp738
a(S'no_ll'
I1
tp739
a(S'w'
I5137
tp740
a(S'no_ll'
I1
tp741
a(S'w'
I5136
tp742
a(S'no_ll'
I1
tp743
a(S'w'
I5137
tp744
a(S'no_ll'
I1
tp745
a(S'w'
I2202
tp746
a(S'tr_lh'
I0
tp747
a(S'w'
I2201
tp748
a(S'no_ll'
I1
tp749
a(S'w'
I5136
tp750
a(S'no_ll'
I1
tp751
a(S'w'
I5137
tp752
a(S'no_ll'
I1
tp753
a(S'w'
I5136
tp754
a(S'no_ll'
I1
tp755
a(S'w'
I5138
tp756
a(S'tr_lr'
I0
tp757
a(S'w'
I1
tp758
a(S'p1_tl'
I117
tp759
a(S'p1_ll'
I1
tp760
a(S'p1_th'
I4
tp761
a(S'w'
I1
tp762
a(S'p2_tl'
I244
tp763
a(S'p2_ll'
I1
tp764
a(S'p2_th'
I5
tp765
a(S'w'
I2
tp766
a(S'no_ll'
I1
tp767
a(S'w'
I5131
tp768
a(S'p1_ll'
I1
tp769
a(S'w'
I1
tp770
a(S'w'
I1
tp771
a(S'p2_ll'
I1
tp772
a(S'w'
I4401
tp773
a(S'p1_ll'
I1
tp774
a(S'w'
I1
tp775
a(S'w'
I1
tp776
a(S'p2_ll'
I1
tp777
a(S'w'
I5134
tp778
a(S'p1_tl'
I53
tp779
a(S'w'
I1
tp780
a(S'p1_ll'
I1
tp781
a(S'w'
I1
tp782
a(S'p2_tl'
I158
tp783
a(S'p2_ll'
I1
tp784
a(S'w'
I5135
tp785
a(S'p1_ll'
I1
tp786
a(S'w'
I1
tp787
a(S'w'
I1
tp788
a(S'p2_ll'
I1
tp789
a(S'w'
I5135
tp790
a(S'p1_ll'
I1
tp791
a(S'w'
I1
tp792
a(S'p2_ll'
I1
tp793
a(S'w'
I5135
tp794
a(S'p1_tl'
I117
tp795
a(S'p1_ll'
I1
tp796
a(S'w'
I2
tp797
a(S'p2_tl'
I244
tp798
a(S'p2_ll'
I1
tp799
a(S'w'
I2
tp800
a(S'no_ll'
I1
tp801
a(S'w'
I4399
tp802
a(S'p1_ll'
I1
tp803
a(S'w'
I1
tp804
a(S'w'
I1
tp805
a(S'p2_ll'
I1
tp806
a(S'w'
I5135
tp807
a(S'p1_ll'
I1
tp808
a(S'w'
I1
tp809
a(S'p2_ll'
I1
tp810
a(S'w'
I2
tp811
a(S'no_ll'
I1
tp812
a(S'w'
I5133
tp813
a(S'p1_tl'
I53
tp814
a(S'p1_ll'
I1
tp815
a(S'w'
I2
tp816
a(S'p2_tl'
I158
tp817
a(S'p2_ll'
I1
tp818
a(S'w'
I5135
tp819
a(S'p1_ll'
I1
tp820
a(S'w'
I1
tp821
a(S'w'
I1
tp822
a(S'p2_ll'
I1
tp823
a(S'w'
I1
tp824
a(S'no_ll'
I1
tp825
a(S'w'
I5133
tp826
a(S'w'
I1
tp827
a(S'p1_ll'
I1
tp828
a(S'w'
I1
tp829
a(S'p2_ll'
I1
tp830
a(S'w'
I5135
tp831
a(S'p1_tl'
I117
tp832
a(S'p1_ll'
I1
tp833
a(S'w'
I2
tp834
a(S'p2_tl'
I244
tp835
a(S'p2_ll'
I1
tp836
a(S'w'
I4401
tp837
a(S'p1_ll'
I1
tp838
a(S'w'
I1
tp839
a(S'w'
I1
tp840
a(S'p2_ll'
I1
tp841
a(S'w'
I5135
tp842
a(S'p1_tl'
I53
tp843
a(S'p1_ll'
I1
tp844
a(S'w'
I1
tp845
a(S'p2_tl'
I158
tp846
a(S'p2_ll'
I1
tp847
a(S'w'
I2
tp848
a(S'no_ll'
I1
tp849
a(S'w'
I5133
tp850
a(S'p1_ll'
I1
tp851
a(S'w'
I1
tp852
a(S'w'
I1
tp853
a(S'p2_ll'
I1
tp854
a(S'w'
I5135
tp855
a(S'p1_tl'
I249
tp856
a(S'p1_ll'
I1
tp857
a(S'p1_th'
I3
tp858
a(S'w'
I1
tp859
a(S'p2_tl'
I77
tp860
a(S'p2_ll'
I1
tp861
a(S'w'
I2
tp862
a(S'no_ll'
I1
tp863
a(S'w'
I5133
tp864
a(S'w'
I1
tp865
a(S'p1_ll'
I1
tp866
a(S'w'
I1
tp867
a(S'p2_ll'
I1
tp868
a(S'w'
I4401
tp869
a(S'p1_ll'
I1
tp870
a(S'w'
I2
tp871
a(S'p2_ll'
I1
tp872
a(S'w'
I5135
tp873
a(S'p1_tl'
I192
tp874
a(S'p1_ll'
I1
tp875
a(S'w'
I1
tp876
a(S'p2_tl'
I1
tp877
a(S'p2_ll'
I1
tp878
a(S'w'
I5135
tp879
a(S'w'
I1
tp880
a(S'p1_ll'
I1
tp881
a(S'w'
I1
tp882
a(S'p2_ll'
I1
tp883
a(S'w'
I5135
tp884
a(S'p1_ll'
I1
tp885
a(S'w'
I1
tp886
a(S'w'
I1
tp887
a(S'p2_ll'
I1
tp888
a(S'w'
I5135
tp889
a(S'p1_tl'
I249
tp890
a(S'p1_ll'
I1
tp891
a(S'w'
I1
tp892
a(S'p2_tl'
I77
tp893
a(S'p2_ll'
I1
tp894
a(S'w'
I2
tp895
a(S'no_ll'
I1
tp896
a(S'w'
I5133
tp897
a(S'p1_ll'
I1
tp898
a(S'w'
I2
tp899
a(S'p2_ll'
I1
tp900
a(S'w'
I4401
tp901
a(S'p1_ll'
I1
tp902
a(S'w'
I1
tp903
a(S'w'
I1
tp904
a(S'p2_ll'
I1
tp905
a(S'w'
I2
tp906
a(S'no_ll'
I1
tp907
a(S'w'
I5133
tp908
a(S'p1_tl'
I192
tp909
a(S'p1_ll'
I1
tp910
a(S'w'
I1
tp911
a(S'p2_tl'
I1
tp912
a(S'p2_ll'
I1
tp913
a(S'w'
I5135
tp914
a(S'p1_ll'
I1
tp915
a(S'w'
I2
tp916
a(S'p2_ll'
I1
tp917
a(S'w'
I2
tp918
a(S'no_ll'
I1
tp919
a(S'w'
I5133
tp920
a(S'p1_ll'
I1
tp921
a(S'w'
I1
tp922
a(S'w'
I1
tp923
a(S'p2_ll'
I1
tp924
a(S'w'
I5134
tp925
a(S'p1_tl'
I249
tp926
a(S'w'
I1
tp927
a(S'p1_ll'
I1
tp928
a(S'w'
I1
tp929
a(S'p2_tl'
I77
tp930
a(S'p2_ll'
I1
tp931
a(S'w'
I4401
tp932
a(S'p1_ll'
I1
tp933
a(S'w'
I2
tp934
a(S'p2_ll'
I1
tp935
a(S'w'
I5135
tp936
a(S'p1_tl'
I192
tp937
a(S'p1_ll'
I1
tp938
a(S'w'
I1
tp939
a(S'p2_tl'
I1
tp940
a(S'w'
I1
tp941
a(S'p2_ll'
I1
tp942
a(S'w'
I1
tp943
a(S'no_ll'
I1
tp944
a(S'w'
I5133
tp945
a(S'w'
I1
tp946
a(S'p1_ll'
I1
tp947
a(S'w'
I1
tp948
a(S'p2_ll'
I1
tp949
a(S'w'
I5135
tp950
a(S'p1_tl'
I117
tp951
a(S'p1_ll'
I1
tp952
a(S'p1_th'
I4
tp953
a(S'w'
I1
tp954
a(S'p2_tl'
I244
tp955
a(S'w'
I1
tp956
a(S'p2_ll'
I1
tp957
a(S'w'
I2
tp958
a(S'no_ll'
I1
tp959
a(S'w'
I5133
tp960
a(S'p1_ll'
I1
tp961
a(S'w'
I1
tp962
a(S'p2_ll'
I1
tp963
a(S'w'
I5135
tp964
a(S'w'
I1
tp965
a(S'p1_ll'
I1
tp966
a(S'w'
I1
tp967
a(S'p2_ll'
I1
tp968
a(S'w'
I4401
tp969
a(S'p1_tl'
I53
tp970
a(S'p1_ll'
I1
tp971
a(S'w'
I1
tp972
a(S'p2_tl'
I158
tp973
a(S'w'
I1
tp974
a(S'p2_ll'
I1
tp975
a(S'w'
I5135
tp976
a(S'p1_ll'
I1
tp977
a(S'w'
I1
tp978
a(S'p2_ll'
I1
tp979
a(S'w'
I5135
tp980
a(S'w'
I1
tp981
a(S'p1_ll'
I1
tp982
a(S'w'
I1
tp983
a(S'p2_ll'
I1
tp984
a(S'w'
I5135
tp985
a(S'p1_tl'
I117
tp986
a(S'p1_ll'
I1
tp987
a(S'w'
I1
tp988
a(S'p2_tl'
I244
tp989
a(S'w'
I1
tp990
a(S'p2_ll'
I1
tp991
a(S'w'
I1
tp992
a(S'no_ll'
I1
tp993
a(S'w'
I5134
tp994
a(S'p1_ll'
I1
tp995
a(S'w'
I1
tp996
a(S'p2_ll'
I1
tp997
a(S'w'
I4401
tp998
a(S'w'
I1
tp999
a(S'p1_ll'
I1
tp1000
a(S'w'
I1
tp1001
a(S'p2_ll'
I1
tp1002
a(S'w'
I2
tp1003
a(S'no_ll'
I1
tp1004
a(S'w'
I5133
tp1005
a(S'p1_tl'
I53
tp1006
a(S'p1_ll'
I1
tp1007
a(S'w'
I1
tp1008
a(S'p2_tl'
I158
tp1009
a(S'w'
I1
tp1010
a(S'p2_ll'
I1
tp1011
a(S'w'
I5135
tp1012
a(S'p1_ll'
I1
tp1013
a(S'w'
I1
tp1014
a(S'p2_ll'
I1
tp1015
a(S'w'
I2
tp1016
a(S'no_ll'
I1
tp1017
a(S'w'
I5133
tp1018
a(S'p1_ll'
I1
tp1019
a(S'w'
I2
tp1020
a(S'p2_ll'
I1
tp1021
a(S'w'
I5135
tp1022
a(S'p1_tl'
I117
tp1023
a(S'p1_ll'
I1
tp1024
a(S'w'
I1
tp1025
a(S'p2_tl'
I244
tp1026
a(S'w'
I1
tp1027
a(S'p2_ll'
I1
tp1028
a(S'w'
I5134
tp1029
a(S'w'
I1
tp1030
a(S'p1_ll'
I1
tp1031
a(S'w'
I1
tp1032
a(S'p2_ll'
I1
tp1033
a(S'w'
I4401
tp1034
a(S'p1_tl'
I53
tp1035
a(S'p1_ll'
I1
tp1036
a(S'w'
I2
tp1037
a(S'p2_tl'
I158
tp1038
a(S'p2_ll'
I1
tp1039
a(S'w'
I2
tp1040
a(S'no_ll'
I1
tp1041
a(S'w'
I5133
tp1042
a(S'p1_ll'
I1
tp1043
a(S'w'
I1
tp1044
a(S'w'
I1
tp1045
a(S'p2_ll'
I1
tp1046
a(S'w'
I5134
tp1047
a(S'p1_tl'
I249
tp1048
a(S'w'
I1
tp1049
a(S'p1_ll'
I1
tp1050
a(S'p1_th'
I3
tp1051
a(S'w'
I1
tp1052
a(S'p2_tl'
I77
tp1053
a(S'p2_ll'
I1
tp1054
a(S'w'
I2
tp1055
a(S'no_ll'
I1
tp1056
a(S'w'
I5133
tp1057
a(S'p1_ll'
I1
tp1058
a(S'w'
I1
tp1059
a(S'w'
I1
tp1060
a(S'p2_ll'
I1
tp1061
a(S'w'
I5135
tp1062
a(S'p1_ll'
I1
tp1063
a(S'w'
I1
tp1064
a(S'p2_ll'
I1
tp1065
a(S'w'
I2
tp1066
a(S'no_ll'
I1
tp1067
a(S'w'
I4399
tp1068
a(S'p1_tl'
I192
tp1069
a(S'w'
I1
tp1070
a(S'p1_ll'
I1
tp1071
a(S'w'
I1
tp1072
a(S'p2_tl'
I1
tp1073
a(S'p2_ll'
I1
tp1074
a(S'w'
I2
tp1075
a(S'no_ll'
I1
tp1076
a(S'w'
I5133
tp1077
a(S'p1_ll'
I1
tp1078
a(S'w'
I1
tp1079
a(S'w'
I1
tp1080
a(S'p2_ll'
I1
tp1081
a(S'w'
I5135
tp1082
a(S'p1_ll'
I1
tp1083
a(S'w'
I1
tp1084
a(S'p2_ll'
I1
tp1085
a(S'w'
I2
tp1086
a(S'no_ll'
I1
tp1087
a(S'w'
I5133
tp1088
a(S'p1_tl'
I249
tp1089
a(S'w'
I1
tp1090
a(S'p1_ll'
I1
tp1091
a(S'w'
I1
tp1092
a(S'p2_tl'
I77
tp1093
a(S'p2_ll'
I1
tp1094
a(S'w'
I2
tp1095
a(S'no_ll'
I1
tp1096
a(S'w'
I5133
tp1097
a(S'p1_ll'
I1
tp1098
a(S'w'
I1
tp1099
a(S'w'
I1
tp1100
a(S'p2_ll'
I1
tp1101
a(S'w'
I5134
tp1102
a(S'w'
I1
tp1103
a(S'p1_ll'
I1
tp1104
a(S'w'
I1
tp1105
a(S'p2_ll'
I1
tp1106
a(S'w'
I2
tp1107
a(S'no_ll'
I1
tp1108
a(S'w'
I4399
tp1109
a(S'p1_tl'
I192
tp1110
a(S'w'
I1
tp1111
a(S'p1_ll'
I1
tp1112
a(S'w'
I1
tp1113
a(S'p2_tl'
I1
tp1114
a(S'p2_ll'
I1
tp1115
a(S'w'
I2
tp1116
a(S'no_ll'
I1
tp1117
a(S'w'
I5133
tp1118
a(S'p1_ll'
I1
tp1119
a(S'w'
I1
tp1120
a(S'w'
I1
tp1121
a(S'p2_ll'
I1
tp1122
a(S'w'
I5135
tp1123
a(S'p1_ll'
I1
tp1124
a(S'w'
I1
tp1125
a(S'p2_ll'
I1
tp1126
a(S'w'
I2
tp1127
a(S'no_ll'
I1
tp1128
a(S'w'
I5133
tp1129
a(S'p1_tl'
I249
tp1130
a(S'p1_ll'
I1
tp1131
a(S'w'
I2
tp1132
a(S'p2_tl'
I77
tp1133
a(S'p2_ll'
I1
tp1134
a(S'w'
I2
tp1135
a(S'no_ll'
I1
tp1136
a(S'w'
I5133
tp1137
a(S'p1_ll'
I1
tp1138
a(S'w'
I1
tp1139
a(S'w'
I1
tp1140
a(S'p2_ll'
I1
tp1141
a(S'w'
I1
tp1142
a(S'no_ll'
I1
tp1143
a(S'w'
I4400
tp1144
a(S'p1_tl'
I192
tp1145
a(S'p1_ll'
I1
tp1146
a(S'w'
I1
tp1147
a(S'p2_tl'
I1
tp1148
a(S'p2_ll'
I1
tp1149
a(S'w'
I2
tp1150
a(S'no_ll'
I1
tp1151
a(S'w'
I5133
tp1152
a(S'p1_ll'
I1
tp1153
a(S'w'
I2
tp1154
a(S'p2_ll'
I1
tp1155
a(S'w'
I2
tp1156
a.