(lp1
(S'clock'
p2
I1789773
tp3
a(S'p1_sp'
I4
tp4
a(S'p1_ss'
I3
tp5
a(S'p2_sp'
I4
tp6
a(S'p2_ss'
I3
tp7
a(S'fc_mo'
I1
tp8
a(S'p1_du'
I3
tp9
a(S'p1_cv'
I1
tp10
a(S'p1_vo'
I10
tp11
a(S'p1_tl'
I239
tp12
a(S'w'
I1
tp13
a(S'p1_ll'
I0
tp14
a(S'w'
I8
tp15
a(S'p2_du'
I2
tp16
a(S'p2_cv'
I1
tp17
a(S'p2_vo'
I7
tp18
a(S'w'
I1
tp19
a(S'p2_ll'
I0
tp20
a(S'w'
I5
tp21
a(S'tr_lr'
I16
tp22
a(S'w'
I3
tp23
a(S'no_cv'
I1
tp24
a(S'w'
I709
tp25
a(S'w'
I3
tp26
a(S'w'
I1466
tp27
a(S'p1_tl'
I238
tp28
a(S'w'
I4
tp29
a(S'w'
I1462
tp30
a(S'w'
I3
tp31
a(S'w'
I733
tp32
a(S'p1_tl'
I239
tp33
a(S'w'
I4
tp34
a(S'w'
I1461
tp35
a(S'w'
I3
tp36
a(S'w'
I731
tp37
a(S'p1_tl'
I28
tp38
a(S'w'
I1
tp39
a(S'p1_ll'
I0
tp40
a(S'p1_th'
I1
tp41
a(S'w'
I7
tp42
a(S'w'
I1
tp43
a(S'p2_tl'
I239
tp44
a(S'p2_ll'
I0
tp45
a(S'w'
I727
tp46
a(S'p1_tl'
I27
tp47
a(S'w'
I6
tp48
a(S'p2_tl'
I238
tp49
a(S'w'
I1460
tp50
a(S'w'
I3
tp51
a(S'w'
I732
tp52
a(S'p1_tl'
I28
tp53
a(S'w'
I6
tp54
a(S'p2_tl'
I239
tp55
a(S'w'
I1460
tp56
a(S'w'
I3
tp57
a(S'w'
I1467
tp58
a(S'p1_tl'
I27
tp59
a(S'w'
I6
tp60
a(S'p2_tl'
I238
tp61
a(S'w'
I725
tp62
a(S'p1_tl'
I63
tp63
a(S'w'
I1
tp64
a(S'p1_ll'
I0
tp65
a(S'w'
I5
tp66
a(S'p2_tl'
I28
tp67
a(S'p2_ll'
I0
tp68
a(S'p2_th'
I1
tp69
a(S'w'
I728
tp70
a(S'w'
I3
tp71
a(S'w'
I733
tp72
a(S'p1_tl'
I64
tp73
a(S'w'
I6
tp74
a(S'p2_tl'
I29
tp75
a(S'w'
I1460
tp76
a(S'w'
I3
tp77
a(S'w'
I1466
tp78
a(S'p1_tl'
I63
tp79
a(S'w'
I6
tp80
a(S'p2_tl'
I28
tp81
a(S'w'
I1460
tp82
a(S'w'
I3
tp83
a(S'w'
I730
tp84
a(S'p1_tl'
I239
tp85
a(S'w'
I1
tp86
a(S'p1_ll'
I0
tp87
a(S'p1_th'
I0
tp88
a(S'w'
I5
tp89
a(S'p2_tl'
I63
tp90
a(S'p2_ll'
I0
tp91
a(S'w'
I730
tp92
a(S'p1_tl'
I240
tp93
a(S'w'
I6
tp94
a(S'p2_tl'
I64
tp95
a(S'w'
I726
tp96
a(S'w'
I3
tp97
a(S'w'
I1467
tp98
a(S'p1_tl'
I239
tp99
a(S'w'
I6
tp100
a(S'p2_tl'
I63
tp101
a(S'w'
I1459
tp102
a(S'w'
I3
tp103
a(S'w'
I1467
tp104
a(S'p1_tl'
I240
tp105
a(S'w'
I6
tp106
a(S'p2_tl'
I64
tp107
a(S'w'
I726
tp108
a(S'w'
I3
tp109
a(S'w'
I730
tp110
a(S'p1_tl'
I28
tp111
a(S'w'
I1
tp112
a(S'p1_ll'
I0
tp113
a(S'p1_th'
I1
tp114
a(S'w'
I5
tp115
a(S'p2_tl'
I239
tp116
a(S'p2_ll'
I0
tp117
a(S'p2_th'
I0
tp118
a(S'w'
I730
tp119
a(S'p1_tl'
I27
tp120
a(S'w'
I6
tp121
a(S'p2_tl'
I238
tp122
a(S'w'
I1460
tp123
a(S'w'
I3
tp124
a(S'w'
I1466
tp125
a(S'p1_tl'
I28
tp126
a(S'w'
I6
tp127
a(S'p2_tl'
I239
tp128
a(S'w'
I726
tp129
a(S'w'
I3
tp130
a(S'w'
I1467
tp131
a(S'p1_tl'
I27
tp132
a(S'w'
I6
tp133
a(S'p2_tl'
I238
tp134
a(S'w'
I726
tp135
a(S'p1_tl'
I213
tp136
a(S'w'
I1
tp137
a(S'p1_ll'
I0
tp138
a(S'p1_th'
I0
tp139
a(S'w'
I5
tp140
a(S'p2_tl'
I28
tp141
a(S'p2_ll'
I0
tp142
a(S'p2_th'
I1
tp143
a(S'w'
I727
tp144
a(S'w'
I3
tp145
a(S'w'
I1467
tp146
a(S'p1_tl'
I214
tp147
a(S'w'
I6
tp148
a(S'p2_tl'
I29
tp149
a(S'w'
I726
tp150
a(S'w'
I3
tp151
a(S'w'
I1466
tp152
a(S'p1_tl'
I213
tp153
a(S'w'
I6
tp154
a(S'p2_tl'
I28
tp155
a(S'w'
I1460
tp156
a(S'w'
I3
tp157
a(S'w'
I731
tp158
a(S'p1_tl'
I179
tp159
a(S'w'
I1
tp160
a(S'p1_ll'
I0
tp161
a(S'w'
I5
tp162
a(S'p2_tl'
I213
tp163
a(S'p2_ll'
I0
tp164
a(S'p2_th'
I0
tp165
a(S'w'
I729
tp166
a(S'p1_tl'
I180
tp167
a(S'w'
I6
tp168
a(S'p2_tl'
I214
tp169
a(S'w'
I1460
tp170
a(S'w'
I3
tp171
a(S'w'
I733
tp172
a(S'p1_tl'
I179
tp173
a(S'w'
I6
tp174
a(S'p2_tl'
I213
tp175
a(S'w'
I1459
tp176
a(S'w'
I3
tp177
a(S'w'
I1467
tp178
a(S'p1_tl'
I180
tp179
a(S'w'
I6
tp180
a(S'p2_tl'
I214
tp181
a(S'w'
I726
tp182
a(S'p1_tl'
I213
tp183
a(S'w'
I1
tp184
a(S'p1_ll'
I0
tp185
a(S'w'
I5
tp186
a(S'p2_tl'
I179
tp187
a(S'p2_ll'
I0
tp188
a(S'w'
I728
tp189
a(S'w'
I3
tp190
a(S'w'
I732
tp191
a(S'p1_tl'
I212
tp192
a(S'w'
I6
tp193
a(S'p2_tl'
I178
tp194
a(S'w'
I1460
tp195
a(S'w'
I3
tp196
a(S'w'
I1467
tp197
a(S'p1_tl'
I213
tp198
a(S'w'
I6
tp199
a(S'p2_tl'
I179
tp200
a(S'w'
I1459
tp201
a(S'w'
I3
tp202
a(S'w'
I733
tp203
a(S'p1_tl'
I212
tp204
a(S'w'
I6
tp205
a(S'p2_tl'
I178
tp206
a(S'w'
I726
tp207
a(S'p1_tl'
I239
tp208
a(S'w'
I1
tp209
a(S'p1_ll'
I0
tp210
a(S'w'
I5
tp211
a(S'p2_tl'
I213
tp212
a(S'p2_ll'
I0
tp213
a(S'w'
I727
tp214
a(S'w'
I3
tp215
a(S'w'
I1467
tp216
a(S'p1_tl'
I240
tp217
a(S'w'
I6
tp218
a(S'p2_tl'
I214
tp219
a(S'w'
I1460
tp220
a(S'w'
I3
tp221
a(S'w'
I732
tp222
a(S'p1_tl'
I239
tp223
a(S'w'
I6
tp224
a(S'p2_tl'
I213
tp225
a(S'w'
I1460
tp226
a(S'w'
I3
tp227
a(S'w'
I731
tp228
a(S'p1_tl'
I179
tp229
a(S'w'
I1
tp230
a(S'p1_ll'
I0
tp231
a(S'w'
I5
tp232
a(S'p2_tl'
I239
tp233
a(S'p2_ll'
I0
tp234
a(S'w'
I730
tp235
a(S'p1_tl'
I180
tp236
a(S'w'
I6
tp237
a(S'p2_tl'
I240
tp238
a(S'w'
I1459
tp239
a(S'w'
I3
tp240
a(S'w'
I1467
tp241
a(S'p1_tl'
I179
tp242
a(S'w'
I6
tp243
a(S'p2_tl'
I239
tp244
a(S'w'
I726
tp245
a(S'w'
I3
tp246
a(S'w'
I1466
tp247
a(S'p1_tl'
I180
tp248
a(S'w'
I6
tp249
a(S'p2_tl'
I240
tp250
a(S'w'
I726
tp251
a(S'p1_tl'
I213
tp252
a(S'w'
I1
tp253
a(S'p1_ll'
I0
tp254
a(S'w'
I5
tp255
a(S'p2_tl'
I179
tp256
a(S'p2_ll'
I0
tp257
a(S'w'
I728
tp258
a(S'w'
I3
tp259
a(S'w'
I1466
tp260
a(S'p1_tl'
I212
tp261
a(S'w'
I6
tp262
a(S'p2_tl'
I178
tp263
a(S'w'
I726
tp264
a(S'w'
I3
tp265
a(S'w'
I1467
tp266
a(S'p1_tl'
I213
tp267
a(S'w'
I6
tp268
a(S'p2_tl'
I179
tp269
a(S'w'
I1459
tp270
a(S'w'
I3
tp271
a(S'w'
I731
tp272
a(S'p1_tl'
I159
tp273
a(S'w'
I1
tp274
a(S'p1_ll'
I0
tp275
a(S'w'
I5
tp276
a(S'p2_tl'
I213
tp277
a(S'p2_ll'
I0
tp278
a(S'w'
I730
tp279
a(S'p1_tl'
I158
tp280
a(S'w'
I6
tp281
a(S'p2_tl'
I212
tp282
a(S'w'
I726
tp283
a(S'w'
I3
tp284
a(S'w'
I1466
tp285
a(S'p1_tl'
I159
tp286
a(S'w'
I6
tp287
a(S'p2_tl'
I213
tp288
a(S'w'
I1460
tp289
a(S'w'
I3
tp290
a(S'w'
I1466
tp291
a(S'p1_tl'
I158
tp292
a(S'w'
I6
tp293
a(S'p2_tl'
I212
tp294
a(S'w'
I726
tp295
a(S'w'
I3
tp296
a(S'w'
I731
tp297
a(S'p1_tl'
I12
tp298
a(S'w'
I1
tp299
a(S'p1_ll'
I0
tp300
a(S'p1_th'
I1
tp301
a(S'w'
I5
tp302
a(S'p2_tl'
I159
tp303
a(S'p2_ll'
I0
tp304
a(S'w'
I730
tp305
a(S'p1_tl'
I13
tp306
a(S'w'
I6
tp307
a(S'p2_tl'
I160
tp308
a(S'w'
I1459
tp309
a(S'w'
I3
tp310
a(S'w'
I1467
tp311
a(S'p1_tl'
I12
tp312
a(S'w'
I6
tp313
a(S'p2_tl'
I159
tp314
a(S'w'
I1460
tp315
a(S'w'
I3
tp316
a(S'w'
I732
tp317
a(S'p1_tl'
I13
tp318
a(S'w'
I6
tp319
a(S'p2_tl'
I160
tp320
a(S'w'
I726
tp321
a(S'p1_tl'
I63
tp322
a(S'w'
I1
tp323
a(S'p1_ll'
I0
tp324
a(S'w'
I5
tp325
a(S'p2_tl'
I12
tp326
a(S'p2_ll'
I0
tp327
a(S'p2_th'
I1
tp328
a(S'w'
I728
tp329
a(S'w'
I3
tp330
a(S'w'
I1466
tp331
a(S'p1_tl'
I62
tp332
a(S'w'
I6
tp333
a(S'p2_tl'
I11
tp334
a(S'w'
I1460
tp335
a(S'w'
I3
tp336
a(S'w'
I733
tp337
a(S'p1_tl'
I63
tp338
a(S'w'
I6
tp339
a(S'p2_tl'
I12
tp340
a(S'w'
I1459
tp341
a(S'w'
I3
tp342
a(S'w'
I731
tp343
a(S'p1_tl'
I103
tp344
a(S'w'
I1
tp345
a(S'p1_ll'
I0
tp346
a(S'w'
I5
tp347
a(S'p2_tl'
I63
tp348
a(S'p2_ll'
I0
tp349
a(S'w'
I730
tp350
a(S'p1_tl'
I102
tp351
a(S'w'
I6
tp352
a(S'p2_tl'
I62
tp353
a(S'w'
I1460
tp354
a(S'w'
I3
tp355
a(S'w'
I732
tp356
a(S'p1_tl'
I103
tp357
a(S'w'
I6
tp358
a(S'p2_tl'
I63
tp359
a(S'w'
I1460
tp360
a(S'w'
I3
tp361
a(S'w'
I1467
tp362
a(S'p1_tl'
I102
tp363
a(S'w'
I6
tp364
a(S'p2_tl'
I62
tp365
a(S'w'
I725
tp366
a(S'p1_tl'
I12
tp367
a(S'w'
I1
tp368
a(S'p1_ll'
I0
tp369
a(S'w'
I5
tp370
a(S'p2_tl'
I103
tp371
a(S'p2_ll'
I0
tp372
a(S'w'
I728
tp373
a(S'w'
I3
tp374
a(S'w'
I1467
tp375
a(S'p1_tl'
I13
tp376
a(S'w'
I6
tp377
a(S'p2_tl'
I104
tp378
a(S'w'
I726
tp379
a(S'w'
I3
tp380
a(S'w'
I1466
tp381
a(S'p1_tl'
I12
tp382
a(S'w'
I6
tp383
a(S'p2_tl'
I103
tp384
a(S'w'
I1460
tp385
a(S'w'
I3
tp386
a(S'w'
I730
tp387
a(S'p1_tl'
I63
tp388
a(S'w'
I1
tp389
a(S'p1_ll'
I0
tp390
a(S'w'
I5
tp391
a(S'p2_tl'
I12
tp392
a(S'p2_ll'
I0
tp393
a(S'w'
I730
tp394
a(S'p1_tl'
I64
tp395
a(S'w'
I6
tp396
a(S'p2_tl'
I13
tp397
a(S'w'
I726
tp398
a(S'w'
I3
tp399
a(S'w'
I1467
tp400
a(S'p1_tl'
I63
tp401
a(S'w'
I6
tp402
a(S'p2_tl'
I12
tp403
a(S'w'
I1459
tp404
a(S'w'
I3
tp405
a(S'w'
I1467
tp406
a(S'p1_tl'
I64
tp407
a(S'w'
I6
tp408
a(S'p2_tl'
I13
tp409
a(S'w'
I726
tp410
a(S'w'
I3
tp411
a(S'w'
I730
tp412
a(S'p1_tl'
I239
tp413
a(S'w'
I1
tp414
a(S'p1_ll'
I0
tp415
a(S'p1_th'
I0
tp416
a(S'w'
I5
tp417
a(S'p2_tl'
I63
tp418
a(S'p2_ll'
I0
tp419
a(S'w'
I730
tp420
a(S'p1_tl'
I238
tp421
a(S'w'
I6
tp422
a(S'p2_tl'
I62
tp423
a(S'w'
I1460
tp424
a(S'w'
I3
tp425
a(S'w'
I1466
tp426
a(S'p1_tl'
I239
tp427
a(S'w'
I6
tp428
a(S'p2_tl'
I63
tp429
a(S'w'
I726
tp430
a(S'w'
I3
tp431
a(S'w'
I1467
tp432
a(S'p1_tl'
I238
tp433
a(S'w'
I6
tp434
a(S'p2_tl'
I62
tp435
a(S'w'
I726
tp436
a(S'p1_tl'
I171
tp437
a(S'w'
I1
tp438
a(S'p1_ll'
I0
tp439
a(S'p1_th'
I1
tp440
a(S'w'
I5
tp441
a(S'p2_tl'
I239
tp442
a(S'p2_ll'
I0
tp443
a(S'p2_th'
I0
tp444
a(S'w'
I727
tp445
a(S'w'
I3
tp446
a(S'w'
I1467
tp447
a(S'p1_tl'
I172
tp448
a(S'w'
I6
tp449
a(S'p2_tl'
I240
tp450
a(S'w'
I1459
tp451
a(S'w'
I3
tp452
a(S'w'
I733
tp453
a(S'p1_tl'
I171
tp454
a(S'w'
I6
tp455
a(S'p2_tl'
I239
tp456
a(S'w'
I1460
tp457
a(S'w'
I3
tp458
a(S'w'
I731
tp459
a(S'p1_tl'
I103
tp460
a(S'w'
I1
tp461
a(S'p1_ll'
I0
tp462
a(S'w'
I5
tp463
a(S'p2_tl'
I171
tp464
a(S'p2_ll'
I0
tp465
a(S'p2_th'
I1
tp466
a(S'w'
I729
tp467
a(S'p1_tl'
I104
tp468
a(S'w'
I6
tp469
a(S'p2_tl'
I172
tp470
a(S'w'
I1460
tp471
a(S'w'
I3
tp472
a(S'w'
I733
tp473
a(S'p1_tl'
I103
tp474
a(S'w'
I6
tp475
a(S'p2_tl'
I171
tp476
a(S'w'
I1459
tp477
a(S'w'
I3
tp478
a(S'w'
I1467
tp479
a(S'p1_tl'
I104
tp480
a(S'w'
I6
tp481
a(S'p2_tl'
I172
tp482
a(S'w'
I726
tp483
a(S'p1_tl'
I63
tp484
a(S'w'
I1
tp485
a(S'p1_ll'
I0
tp486
a(S'w'
I5
tp487
a(S'p2_tl'
I103
tp488
a(S'p2_ll'
I0
tp489
a(S'w'
I728
tp490
a(S'w'
I3
tp491
a(S'w'
I732
tp492
a(S'p1_tl'
I62
tp493
a(S'w'
I6
tp494
a(S'p2_tl'
I102
tp495
a(S'w'
I1460
tp496
a(S'w'
I3
tp497
a(S'w'
I1467
tp498
a(S'p1_tl'
I63
tp499
a(S'w'
I6
tp500
a(S'p2_tl'
I103
tp501
a(S'w'
I1459
tp502
a(S'w'
I3
tp503
a(S'w'
I733
tp504
a(S'p1_tl'
I62
tp505
a(S'w'
I6
tp506
a(S'p2_tl'
I102
tp507
a(S'w'
I726
tp508
a(S'p1_tl'
I12
tp509
a(S'w'
I1
tp510
a(S'p1_ll'
I0
tp511
a(S'w'
I5
tp512
a(S'p2_tl'
I63
tp513
a(S'p2_ll'
I0
tp514
a(S'w'
I727
tp515
a(S'w'
I3
tp516
a(S'w'
I1467
tp517
a(S'p1_tl'
I13
tp518
a(S'w'
I6
tp519
a(S'p2_tl'
I64
tp520
a(S'w'
I1460
tp521
a(S'w'
I3
tp522
a(S'w'
I1466
tp523
a(S'p1_tl'
I12
tp524
a(S'w'
I6
tp525
a(S'p2_tl'
I63
tp526
a(S'w'
I726
tp527
a(S'w'
I3
tp528
a(S'w'
I731
tp529
a(S'p1_tl'
I171
tp530
a(S'w'
I1
tp531
a(S'p1_ll'
I0
tp532
a(S'w'
I5
tp533
a(S'p2_tl'
I12
tp534
a(S'p2_ll'
I0
tp535
a(S'w'
I730
tp536
a(S'p1_tl'
I172
tp537
a(S'w'
I6
tp538
a(S'p2_tl'
I13
tp539
a(S'w'
I1459
tp540
a(S'w'
I3
tp541
a(S'w'
I1467
tp542
a(S'p1_tl'
I171
tp543
a(S'w'
I6
tp544
a(S'p2_tl'
I12
tp545
a(S'w'
I726
tp546
a(S'w'
I3
tp547
a(S'w'
I1466
tp548
a(S'p1_tl'
I172
tp549
a(S'w'
I6
tp550
a(S'p2_tl'
I13
tp551
a(S'w'
I726
tp552
a(S'p1_tl'
I103
tp553
a(S'w'
I1
tp554
a(S'p1_ll'
I0
tp555
a(S'w'
I5
tp556
a(S'p2_tl'
I171
tp557
a(S'p2_ll'
I0
tp558
a(S'w'
I728
tp559
a(S'w'
I3
tp560
a(S'w'
I1466
tp561
a(S'p1_tl'
I102
tp562
a(S'w'
I6
tp563
a(S'p2_tl'
I170
tp564
a(S'w'
I726
tp565
a(S'w'
I3
tp566
a(S'w'
I1467
tp567
a(S'p1_tl'
I103
tp568
a(S'w'
I6
tp569
a(S'p2_tl'
I171
tp570
a(S'w'
I1459
tp571
a(S'w'
I3
tp572
a(S'w'
I733
tp573
a(S'p1_tl'
I239
tp574
a(S'w'
I1
tp575
a(S'p1_ll'
I0
tp576
a(S'p1_th'
I0
tp577
a(S'w'
I5
tp578
a(S'p2_tl'
I103
tp579
a(S'p2_ll'
I0
tp580
a(S'w'
I728
tp581
a(S'p1_tl'
I238
tp582
a(S'w'
I6
tp583
a(S'p2_tl'
I102
tp584
a(S'w'
I726
tp585
a(S'w'
I3
tp586
a(S'w'
I1466
tp587
a(S'p1_tl'
I239
tp588
a(S'w'
I6
tp589
a(S'p2_tl'
I103
tp590
a(S'w'
I1460
tp591
a(S'w'
I3
tp592
a(S'w'
I1466
tp593
a(S'p1_tl'
I238
tp594
a(S'w'
I6
tp595
a(S'p2_tl'
I102
tp596
a(S'w'
I726
tp597
a.