(lp1
(S'clock'
p2
I1789772
tp3
a(S'p1_cv'
I1
tp4
a(S'p2_cv'
I1
tp5
a(S'no_cv'
I1
tp6
a(S'ch_no'
I1
tp7
a(S'ch_tr'
I1
tp8
a(S'ch_p2'
I1
tp9
a(S'ch_p1'
I1
tp10
a(S'fc_mo'
I1
tp11
a(S'w'
I1
tp12
a(S'no_ll'
I1
tp13
a(S'w'
I11
tp14
a(S'tr_lh'
I1
tp15
a(S'tr_lr'
I127
tp16
a(S'w'
I1
tp17
a(S'tr_ll'
I1
tp18
a(S'tr_th'
I2
tp19
a(S'tr_tl'
I58
tp20
a(S'w'
I14
tp21
a(S'p2_lh'
I1
tp22
a(S'p2_vo'
I15
tp23
a(S'p2_sn'
I1
tp24
a(S'p2_ll'
I1
tp25
a(S'p2_th'
I1
tp26
a(S'w'
I1
tp27
a(S'p2_tl'
I198
tp28
a(S'w'
I13
tp29
a(S'p1_lh'
I1
tp30
a(S'p1_vo'
I15
tp31
a(S'w'
I1
tp32
a(S'p1_sn'
I1
tp33
a(S'p1_ll'
I1
tp34
a(S'p1_th'
I2
tp35
a(S'p1_tl'
I59
tp36
a(S'w'
I684
tp37
a(S'p2_vo'
I9
tp38
a(S'w'
I1
tp39
a(S'w'
I5
tp40
a(S'p1_vo'
I9
tp41
a(S'w'
I1
tp42
a(S'w'
I727
tp43
a(S'p2_vo'
I6
tp44
a(S'w'
I1
tp45
a(S'w'
I5
tp46
a(S'p1_vo'
I6
tp47
a(S'w'
I1
tp48
a(S'w'
I727
tp49
a(S'p2_vo'
I3
tp50
a(S'w'
I6
tp51
a(S'p1_vo'
I3
tp52
a(S'w'
I1
tp53
a(S'w'
I726
tp54
a(S'p2_vo'
I2
tp55
a(S'w'
I1
tp56
a(S'w'
I6
tp57
a(S'p1_vo'
I2
tp58
a(S'w'
I728
tp59
a(S'w'
I6
tp60
a(S'w'
I727
tp61
a(S'p2_vo'
I8
tp62
a(S'w'
I1
tp63
a(S'w'
I5
tp64
a(S'p1_vo'
I8
tp65
a(S'w'
I1
tp66
a(S'w'
I727
tp67
a(S'p2_vo'
I5
tp68
a(S'w'
I1
tp69
a(S'w'
I5
tp70
a(S'p1_vo'
I5
tp71
a(S'w'
I1
tp72
a(S'w'
I727
tp73
a(S'p2_vo'
I2
tp74
a(S'w'
I6
tp75
a(S'p1_vo'
I2
tp76
a(S'w'
I1
tp77
a(S'w'
I727
tp78
a(S'w'
I7
tp79
a(S'w'
I727
tp80
a(S'w'
I6
tp81
a(S'w'
I730
tp82
a(S'p2_vo'
I15
tp83
a(S'w'
I1
tp84
a(S'p2_ll'
I1
tp85
a(S'p2_tl'
I172
tp86
a(S'w'
I9
tp87
a(S'p1_vo'
I15
tp88
a(S'p1_ll'
I1
tp89
a(S'p1_th'
I1
tp90
a(S'p1_tl'
I253
tp91
a(S'w'
I721
tp92
a(S'p2_vo'
I9
tp93
a(S'w'
I1
tp94
a(S'w'
I5
tp95
a(S'p1_vo'
I9
tp96
a(S'w'
I1
tp97
a(S'w'
I727
tp98
a(S'p2_vo'
I6
tp99
a(S'w'
I6
tp100
a(S'p1_vo'
I6
tp101
a(S'w'
I1
tp102
a(S'w'
I726
tp103
a(S'p2_vo'
I3
tp104
a(S'w'
I1
tp105
a(S'w'
I6
tp106
a(S'p1_vo'
I3
tp107
a(S'w'
I1
tp108
a(S'w'
I726
tp109
a(S'p2_vo'
I2
tp110
a(S'w'
I1
tp111
a(S'w'
I6
tp112
a(S'p1_vo'
I2
tp113
a(S'w'
I728
tp114
a(S'w'
I6
tp115
a(S'w'
I727
tp116
a(S'p2_vo'
I8
tp117
a(S'w'
I1
tp118
a(S'w'
I5
tp119
a(S'p1_vo'
I8
tp120
a(S'w'
I1
tp121
a(S'w'
I727
tp122
a(S'p2_vo'
I5
tp123
a(S'w'
I6
tp124
a(S'p1_vo'
I5
tp125
a(S'w'
I1
tp126
a(S'w'
I726
tp127
a(S'p2_vo'
I2
tp128
a(S'w'
I1
tp129
a(S'w'
I6
tp130
a(S'p1_vo'
I2
tp131
a(S'w'
I728
tp132
a(S'w'
I6
tp133
a(S'w'
I728
tp134
a(S'w'
I6
tp135
a(S'w'
I730
tp136
a(S'p2_vo'
I15
tp137
a(S'w'
I1
tp138
a(S'p2_ll'
I1
tp139
a(S'p2_tl'
I126
tp140
a(S'w'
I8
tp141
a(S'p1_vo'
I15
tp142
a(S'w'
I1
tp143
a(S'p1_ll'
I1
tp144
a(S'p1_tl'
I198
tp145
a(S'w'
I721
tp146
a(S'p2_vo'
I9
tp147
a(S'w'
I6
tp148
a(S'p1_vo'
I9
tp149
a(S'w'
I1
tp150
a(S'w'
I722
tp151
a(S'tr_tl'
I59
tp152
a(S'w'
I5
tp153
a(S'p2_vo'
I6
tp154
a(S'w'
I1
tp155
a(S'w'
I6
tp156
a(S'p1_vo'
I6
tp157
a(S'w'
I721
tp158
a(S'tr_tl'
I61
tp159
a(S'w'
I6
tp160
a(S'p2_vo'
I3
tp161
a(S'w'
I1
tp162
a(S'w'
I6
tp163
a(S'p1_vo'
I3
tp164
a(S'w'
I721
tp165
a(S'tr_tl'
I63
tp166
a(S'w'
I6
tp167
a(S'p2_vo'
I2
tp168
a(S'w'
I1
tp169
a(S'w'
I5
tp170
a(S'p1_vo'
I2
tp171
a(S'w'
I1
tp172
a(S'w'
I721
tp173
a(S'tr_tl'
I61
tp174
a(S'w'
I6
tp175
a(S'w'
I7
tp176
a(S'w'
I721
tp177
a(S'tr_tl'
I59
tp178
a(S'w'
I6
tp179
a(S'p2_vo'
I8
tp180
a(S'w'
I6
tp181
a(S'p1_vo'
I8
tp182
a(S'w'
I1
tp183
a(S'w'
I721
tp184
a(S'tr_tl'
I57
tp185
a(S'w'
I6
tp186
a(S'p2_vo'
I5
tp187
a(S'w'
I6
tp188
a(S'p1_vo'
I5
tp189
a(S'w'
I1
tp190
a(S'w'
I721
tp191
a(S'tr_tl'
I55
tp192
a(S'w'
I5
tp193
a(S'p2_vo'
I2
tp194
a(S'w'
I1
tp195
a(S'w'
I6
tp196
a(S'p1_vo'
I2
tp197
a(S'w'
I722
tp198
a(S'tr_tl'
I53
tp199
a(S'w'
I6
tp200
a(S'w'
I6
tp201
a(S'w'
I721
tp202
a(S'tr_tl'
I55
tp203
a(S'w'
I7
tp204
a(S'w'
I6
tp205
a(S'w'
I718
tp206
a(S'no_cv'
I0
tp207
a(S'w'
I1
tp208
a(S'no_ll'
I1
tp209
a(S'w'
I9
tp210
a(S'tr_ll'
I1
tp211
a(S'tr_tl'
I128
tp212
a(S'w'
I9
tp213
a(S'p2_vo'
I15
tp214
a(S'p2_ll'
I1
tp215
a(S'w'
I1
tp216
a(S'p2_tl'
I30
tp217
a(S'w'
I8
tp218
a(S'p1_vo'
I15
tp219
a(S'w'
I1
tp220
a(S'p1_ll'
I1
tp221
a(S'p1_tl'
I126
tp222
a(S'w'
I713
tp223
a(S'p2_vo'
I9
tp224
a(S'w'
I6
tp225
a(S'p1_vo'
I9
tp226
a(S'w'
I1
tp227
a(S'w'
I727
tp228
a(S'p2_vo'
I6
tp229
a(S'w'
I6
tp230
a(S'p1_vo'
I6
tp231
a(S'w'
I1
tp232
a(S'w'
I726
tp233
a(S'p2_vo'
I3
tp234
a(S'w'
I1
tp235
a(S'w'
I6
tp236
a(S'p1_vo'
I3
tp237
a(S'w'
I727
tp238
a(S'p2_vo'
I2
tp239
a(S'w'
I1
tp240
a(S'w'
I5
tp241
a(S'p1_vo'
I2
tp242
a(S'w'
I1
tp243
a(S'w'
I728
tp244
a(S'w'
I6
tp245
a(S'w'
I727
tp246
a(S'p2_vo'
I8
tp247
a(S'w'
I6
tp248
a(S'p1_vo'
I8
tp249
a(S'w'
I1
tp250
a(S'w'
I727
tp251
a(S'p2_vo'
I5
tp252
a(S'w'
I6
tp253
a(S'p1_vo'
I5
tp254
a(S'w'
I1
tp255
a(S'w'
I726
tp256
a(S'p2_vo'
I2
tp257
a(S'w'
I1
tp258
a(S'w'
I6
tp259
a(S'p1_vo'
I2
tp260
a(S'w'
I728
tp261
a(S'w'
I6
tp262
a(S'w'
I728
tp263
a(S'w'
I6
tp264
a(S'w'
I727
tp265
a(S'p2_vo'
I5
tp266
a(S'w'
I6
tp267
a(S'p1_vo'
I5
tp268
a(S'w'
I1
tp269
a(S'w'
I727
tp270
a(S'p2_vo'
I3
tp271
a(S'w'
I6
tp272
a(S'p1_vo'
I3
tp273
a(S'w'
I1
tp274
a(S'w'
I726
tp275
a(S'p2_vo'
I2
tp276
a(S'w'
I1
tp277
a(S'w'
I6
tp278
a(S'p1_vo'
I2
tp279
a(S'w'
I728
tp280
a(S'w'
I7
tp281
a(S'w'
I727
tp282
a(S'w'
I7
tp283
a(S'w'
I727
tp284
a(S'w'
I7
tp285
a(S'w'
I735
tp286
a(S'w'
I7
tp287
a(S'w'
I719
tp288
a(S'w'
I7
tp289
a(S'w'
I726
tp290
a(S'w'
I7
tp291
a(S'w'
I727
tp292
a(S'w'
I7
tp293
a(S'w'
I727
tp294
a(S'w'
I7
tp295
a(S'w'
I726
tp296
a(S'no_ll'
I1
tp297
a(S'w'
I12
tp298
a(S'w'
I7
tp299
a(S'w'
I716
tp300
a(S'w'
I7
tp301
a(S'w'
I720
tp302
a(S'tr_tl'
I129
tp303
a(S'w'
I8
tp304
a(S'p2_tl'
I31
tp305
a(S'w'
I8
tp306
a(S'p1_tl'
I127
tp307
a(S'w'
I718
tp308
a(S'tr_tl'
I131
tp309
a(S'w'
I8
tp310
a(S'p2_tl'
I33
tp311
a(S'w'
I8
tp312
a(S'p1_tl'
I129
tp313
a(S'w'
I718
tp314
a(S'tr_tl'
I133
tp315
a(S'w'
I8
tp316
a(S'p2_tl'
I35
tp317
a(S'w'
I8
tp318
a(S'p1_tl'
I131
tp319
a(S'w'
I718
tp320
a(S'tr_tl'
I131
tp321
a(S'w'
I8
tp322
a(S'p2_tl'
I33
tp323
a(S'w'
I7
tp324
a(S'p1_tl'
I129
tp325
a(S'w'
I719
tp326
a(S'tr_tl'
I129
tp327
a(S'w'
I7
tp328
a(S'p2_tl'
I31
tp329
a(S'w'
I8
tp330
a(S'p1_tl'
I127
tp331
a(S'w'
I719
tp332
a(S'tr_tl'
I127
tp333
a(S'w'
I8
tp334
a(S'p2_tl'
I29
tp335
a(S'w'
I8
tp336
a(S'p1_tl'
I125
tp337
a(S'w'
I717
tp338
a(S'tr_tl'
I125
tp339
a(S'w'
I9
tp340
a(S'p2_tl'
I27
tp341
a(S'w'
I8
tp342
a(S'p1_tl'
I123
tp343
a(S'w'
I717
tp344
a(S'tr_tl'
I123
tp345
a(S'w'
I8
tp346
a(S'p2_tl'
I25
tp347
a(S'w'
I8
tp348
a(S'p1_tl'
I121
tp349
a(S'w'
I718
tp350
a(S'tr_tl'
I125
tp351
a(S'w'
I8
tp352
a(S'p2_tl'
I27
tp353
a(S'w'
I8
tp354
a(S'p1_tl'
I123
tp355
a(S'w'
I714
tp356
a(S'no_ll'
I1
tp357
a(S'w'
I7
tp358
a(S'tr_tl'
I127
tp359
a(S'w'
I8
tp360
a(S'p2_vo'
I15
tp361
a(S'w'
I1
tp362
a(S'p2_ll'
I1
tp363
a(S'p2_th'
I0
tp364
a(S'p2_tl'
I191
tp365
a(S'w'
I9
tp366
a(S'p1_vo'
I15
tp367
a(S'w'
I1
tp368
a(S'p1_ll'
I1
tp369
a(S'p1_tl'
I30
tp370
a(S'w'
I712
tp371
a(S'tr_tl'
I129
tp372
a(S'w'
I6
tp373
a(S'p2_vo'
I9
tp374
a(S'w'
I6
tp375
a(S'p1_vo'
I9
tp376
a(S'w'
I1
tp377
a(S'w'
I720
tp378
a(S'tr_tl'
I131
tp379
a(S'w'
I6
tp380
a(S'p2_vo'
I6
tp381
a(S'w'
I1
tp382
a(S'w'
I5
tp383
a(S'p1_vo'
I6
tp384
a(S'w'
I1
tp385
a(S'w'
I721
tp386
a(S'tr_tl'
I133
tp387
a(S'w'
I6
tp388
a(S'p2_vo'
I3
tp389
a(S'w'
I6
tp390
a(S'p1_vo'
I3
tp391
a(S'w'
I1
tp392
a(S'w'
I721
tp393
a(S'tr_tl'
I131
tp394
a(S'w'
I5
tp395
a(S'p2_vo'
I2
tp396
a(S'w'
I1
tp397
a(S'w'
I6
tp398
a(S'p1_vo'
I2
tp399
a(S'w'
I722
tp400
a(S'tr_tl'
I129
tp401
a(S'w'
I6
tp402
a(S'w'
I6
tp403
a(S'w'
I722
tp404
a(S'tr_tl'
I127
tp405
a(S'w'
I5
tp406
a(S'p2_vo'
I8
tp407
a(S'w'
I1
tp408
a(S'w'
I6
tp409
a(S'p1_vo'
I8
tp410
a(S'w'
I721
tp411
a(S'tr_tl'
I125
tp412
a(S'w'
I6
tp413
a(S'p2_vo'
I5
tp414
a(S'w'
I1
tp415
a(S'w'
I5
tp416
a(S'p1_vo'
I5
tp417
a(S'w'
I1
tp418
a(S'w'
I721
tp419
a(S'tr_tl'
I123
tp420
a(S'w'
I6
tp421
a(S'p2_vo'
I2
tp422
a(S'w'
I1
tp423
a(S'w'
I5
tp424
a(S'p1_vo'
I2
tp425
a(S'w'
I1
tp426
a(S'w'
I721
tp427
a(S'tr_tl'
I125
tp428
a(S'w'
I6
tp429
a(S'w'
I7
tp430
a(S'w'
I721
tp431
a(S'tr_tl'
I127
tp432
a(S'w'
I6
tp433
a(S'w'
I7
tp434
a(S'w'
I721
tp435
a(S'tr_tl'
I129
tp436
a(S'w'
I6
tp437
a(S'p2_vo'
I5
tp438
a(S'w'
I6
tp439
a(S'p1_vo'
I5
tp440
a(S'w'
I1
tp441
a(S'w'
I720
tp442
a(S'tr_tl'
I131
tp443
a(S'w'
I6
tp444
a(S'p2_vo'
I3
tp445
a(S'w'
I1
tp446
a(S'w'
I5
tp447
a(S'p1_vo'
I3
tp448
a(S'w'
I1
tp449
a(S'w'
I721
tp450
a(S'tr_tl'
I133
tp451
a(S'w'
I6
tp452
a(S'p2_vo'
I2
tp453
a(S'w'
I6
tp454
a(S'p1_vo'
I2
tp455
a(S'w'
I1
tp456
a(S'w'
I721
tp457
a(S'tr_tl'
I131
tp458
a(S'w'
I7
tp459
a(S'w'
I7
tp460
a(S'w'
I720
tp461
a(S'tr_tl'
I129
tp462
a(S'w'
I7
tp463
a(S'w'
I6
tp464
a(S'w'
I721
tp465
a(S'tr_tl'
I127
tp466
a(S'w'
I7
tp467
a(S'w'
I7
tp468
a(S'w'
I719
tp469
a(S'tr_tl'
I125
tp470
a(S'w'
I7
tp471
a(S'w'
I7
tp472
a(S'w'
I720
tp473
a(S'tr_tl'
I123
tp474
a(S'w'
I7
tp475
a(S'w'
I7
tp476
a(S'w'
I720
tp477
a(S'tr_tl'
I125
tp478
a(S'w'
I7
tp479
a(S'w'
I7
tp480
a(S'w'
I720
tp481
a(S'tr_tl'
I127
tp482
a(S'w'
I7
tp483
a(S'w'
I7
tp484
a(S'w'
I720
tp485
a(S'tr_tl'
I129
tp486
a(S'w'
I7
tp487
a(S'w'
I7
tp488
a(S'w'
I716
tp489
a(S'no_vo'
I1
tp490
a(S'w'
I1
tp491
a(S'no_ll'
I1
tp492
a(S'no_np'
I3
tp493
a(S'w'
I7
tp494
a(S'tr_tl'
I131
tp495
a(S'w'
I7
tp496
a(S'w'
I7
tp497
a(S'w'
I715
tp498
a(S'tr_tl'
I133
tp499
a(S'w'
I7
tp500
a(S'w'
I7
tp501
a(S'w'
I720
tp502
a(S'tr_tl'
I131
tp503
a(S'w'
I8
tp504
a(S'p2_tl'
I192
tp505
a(S'w'
I7
tp506
a(S'p1_tl'
I31
tp507
a(S'w'
I719
tp508
a(S'tr_tl'
I129
tp509
a(S'w'
I7
tp510
a(S'p2_tl'
I194
tp511
a(S'w'
I8
tp512
a(S'p1_tl'
I33
tp513
a(S'w'
I719
tp514
a(S'tr_tl'
I127
tp515
a(S'w'
I7
tp516
a(S'p2_tl'
I196
tp517
a(S'w'
I8
tp518
a(S'p1_tl'
I35
tp519
a(S'w'
I718
tp520
a(S'tr_tl'
I125
tp521
a(S'w'
I8
tp522
a(S'p2_tl'
I194
tp523
a(S'w'
I8
tp524
a(S'p1_tl'
I33
tp525
a(S'w'
I718
tp526
a(S'tr_tl'
I123
tp527
a(S'w'
I8
tp528
a(S'p2_tl'
I192
tp529
a(S'w'
I8
tp530
a(S'p1_tl'
I31
tp531
a(S'w'
I718
tp532
a(S'tr_tl'
I125
tp533
a(S'w'
I8
tp534
a(S'p2_tl'
I190
tp535
a(S'w'
I8
tp536
a(S'p1_tl'
I29
tp537
a(S'w'
I718
tp538
a(S'tr_tl'
I127
tp539
a(S'w'
I8
tp540
a(S'p2_tl'
I188
tp541
a(S'w'
I8
tp542
a(S'p1_tl'
I27
tp543
a(S'w'
I718
tp544
a(S'tr_tl'
I129
tp545
a(S'w'
I8
tp546
a(S'p2_tl'
I186
tp547
a(S'w'
I8
tp548
a(S'p1_tl'
I25
tp549
a(S'w'
I717
tp550
a(S'tr_tl'
I131
tp551
a(S'w'
I8
tp552
a(S'p2_tl'
I188
tp553
a(S'w'
I8
tp554
a(S'p1_tl'
I27
tp555
a(S'w'
I715
tp556
a(S'no_vo'
I0
tp557
a(S'w'
I1
tp558
a(S'no_ll'
I1
tp559
a(S'no_np'
I0
tp560
a(S'w'
I7
tp561
a(S'tr_tl'
I133
tp562
a(S'w'
I8
tp563
a(S'p2_vo'
I15
tp564
a(S'w'
I1
tp565
a(S'p2_ll'
I1
tp566
a(S'p2_th'
I1
tp567
a(S'p2_tl'
I30
tp568
a(S'w'
I9
tp569
a(S'p1_vo'
I15
tp570
a(S'w'
I1
tp571
a(S'p1_ll'
I1
tp572
a(S'p1_tl'
I126
tp573
a(S'w'
I710
tp574
a(S'tr_tl'
I131
tp575
a(S'w'
I5
tp576
a(S'p2_vo'
I9
tp577
a(S'w'
I1
tp578
a(S'w'
I6
tp579
a(S'p1_vo'
I9
tp580
a(S'w'
I1
tp581
a(S'w'
I721
tp582
a(S'tr_tl'
I129
tp583
a(S'w'
I5
tp584
a(S'p2_vo'
I6
tp585
a(S'w'
I1
tp586
a(S'w'
I6
tp587
a(S'p1_vo'
I6
tp588
a(S'w'
I722
tp589
a(S'tr_tl'
I127
tp590
a(S'w'
I5
tp591
a(S'p2_vo'
I3
tp592
a(S'w'
I1
tp593
a(S'w'
I6
tp594
a(S'p1_vo'
I3
tp595
a(S'w'
I709
tp596
a(S'tr_tl'
I125
tp597
a(S'w'
I5
tp598
a(S'p2_vo'
I2
tp599
a(S'w'
I1
tp600
a(S'w'
I6
tp601
a(S'p1_vo'
I2
tp602
a(S'w'
I722
tp603
a(S'tr_tl'
I123
tp604
a(S'w'
I6
tp605
a(S'w'
I6
tp606
a(S'w'
I721
tp607
a(S'tr_tl'
I125
tp608
a(S'w'
I6
tp609
a(S'p2_vo'
I8
tp610
a(S'w'
I1
tp611
a(S'w'
I5
tp612
a(S'p1_vo'
I8
tp613
a(S'w'
I1
tp614
a(S'w'
I721
tp615
a(S'tr_tl'
I127
tp616
a(S'w'
I6
tp617
a(S'p2_vo'
I5
tp618
a(S'w'
I1
tp619
a(S'w'
I5
tp620
a(S'p1_vo'
I5
tp621
a(S'w'
I1
tp622
a(S'w'
I721
tp623
a(S'tr_tl'
I129
tp624
a(S'w'
I6
tp625
a(S'p2_vo'
I2
tp626
a(S'w'
I1
tp627
a(S'w'
I5
tp628
a(S'p1_vo'
I2
tp629
a(S'w'
I1
tp630
a(S'w'
I720
tp631
a(S'tr_tl'
I131
tp632
a(S'w'
I7
tp633
a(S'w'
I6
tp634
a(S'w'
I721
tp635
a(S'tr_tl'
I133
tp636
a(S'w'
I7
tp637
a(S'w'
I6
tp638
a(S'w'
I721
tp639
a(S'tr_tl'
I131
tp640
a(S'w'
I6
tp641
a(S'p2_vo'
I5
tp642
a(S'w'
I6
tp643
a(S'p1_vo'
I5
tp644
a(S'w'
I1
tp645
a(S'w'
I721
tp646
a(S'tr_tl'
I129
tp647
a(S'w'
I6
tp648
a(S'p2_vo'
I3
tp649
a(S'w'
I6
tp650
a(S'p1_vo'
I3
tp651
a(S'w'
I1
tp652
a(S'w'
I721
tp653
a(S'tr_tl'
I127
tp654
a(S'w'
I6
tp655
a(S'p2_vo'
I2
tp656
a(S'w'
I6
tp657
a(S'p1_vo'
I2
tp658
a(S'w'
I1
tp659
a(S'w'
I721
tp660
a(S'tr_tl'
I125
tp661
a(S'w'
I7
tp662
a(S'w'
I7
tp663
a(S'w'
I720
tp664
a(S'tr_tl'
I123
tp665
a(S'w'
I7
tp666
a(S'w'
I6
tp667
a(S'w'
I720
tp668
a(S'tr_tl'
I125
tp669
a(S'w'
I7
tp670
a(S'w'
I7
tp671
a(S'w'
I720
tp672
a(S'tr_tl'
I127
tp673
a(S'w'
I7
tp674
a(S'w'
I7
tp675
a(S'w'
I720
tp676
a(S'tr_tl'
I129
tp677
a(S'w'
I7
tp678
a(S'w'
I7
tp679
a(S'w'
I720
tp680
a(S'tr_tl'
I131
tp681
a(S'w'
I6
tp682
a(S'w'
I7
tp683
a(S'w'
I720
tp684
a(S'tr_tl'
I133
tp685
a(S'w'
I7
tp686
a(S'w'
I7
tp687
a(S'w'
I720
tp688
a(S'tr_tl'
I131
tp689
a(S'w'
I7
tp690
a(S'w'
I7
tp691
a(S'w'
I716
tp692
a(S'no_ll'
I1
tp693
a(S'w'
I9
tp694
a(S'tr_ll'
I1
tp695
a(S'tr_tl'
I207
tp696
a(S'w'
I7
tp697
a(S'w'
I7
tp698
a(S'w'
I721
tp699
a(S'w'
I7
tp700
a(S'w'
I727
tp701
a(S'p2_tl'
I31
tp702
a(S'w'
I8
tp703
a(S'p1_tl'
I127
tp704
a(S'w'
I726
tp705
a(S'p2_tl'
I33
tp706
a(S'w'
I8
tp707
a(S'p1_tl'
I129
tp708
a(S'w'
I726
tp709
a(S'p2_tl'
I35
tp710
a(S'w'
I8
tp711
a(S'p1_tl'
I131
tp712
a(S'w'
I726
tp713
a(S'p2_tl'
I33
tp714
a(S'w'
I8
tp715
a(S'p1_tl'
I129
tp716
a(S'w'
I726
tp717
a(S'p2_tl'
I31
tp718
a(S'w'
I7
tp719
a(S'p1_tl'
I127
tp720
a(S'w'
I727
tp721
a(S'p2_tl'
I29
tp722
a(S'w'
I8
tp723
a(S'p1_tl'
I125
tp724
a(S'w'
I726
tp725
a(S'p2_tl'
I27
tp726
a(S'w'
I8
tp727
a(S'p1_tl'
I123
tp728
a(S'w'
I725
tp729
a(S'p2_tl'
I25
tp730
a(S'w'
I8
tp731
a(S'p1_tl'
I121
tp732
a(S'w'
I726
tp733
a(S'p2_tl'
I27
tp734
a(S'w'
I8
tp735
a(S'p1_tl'
I123
tp736
a(S'w'
I716
tp737
a(S'no_vo'
I1
tp738
a(S'w'
I1
tp739
a(S'no_ll'
I1
tp740
a(S'no_np'
I3
tp741
a(S'w'
I16
tp742
a(S'p2_vo'
I5
tp743
a(S'p2_ll'
I1
tp744
a(S'p2_th'
I0
tp745
a(S'w'
I1
tp746
a(S'p2_tl'
I143
tp747
a(S'w'
I10
tp748
a(S'p1_vo'
I5
tp749
a(S'w'
I1
tp750
a(S'p1_ll'
I1
tp751
a(S'p1_th'
I0
tp752
a(S'p1_tl'
I191
tp753
a(S'w'
I712
tp754
a(S'p2_vo'
I6
tp755
a(S'w'
I1
tp756
a(S'w'
I6
tp757
a(S'p1_vo'
I6
tp758
a(S'w'
I727
tp759
a(S'p2_vo'
I5
tp760
a(S'w'
I1
tp761
a(S'w'
I5
tp762
a(S'p1_vo'
I5
tp763
a(S'w'
I1
tp764
a(S'w'
I727
tp765
a(S'p2_vo'
I4
tp766
a(S'w'
I1
tp767
a(S'w'
I5
tp768
a(S'p1_vo'
I4
tp769
a(S'w'
I1
tp770
a(S'w'
I727
tp771
a(S'p2_vo'
I3
tp772
a(S'w'
I6
tp773
a(S'p1_vo'
I3
tp774
a(S'w'
I1
tp775
a(S'w'
I727
tp776
a(S'p2_vo'
I2
tp777
a(S'w'
I6
tp778
a(S'p1_vo'
I2
tp779
a(S'w'
I1
tp780
a(S'w'
I726
tp781
a(S'p2_vo'
I3
tp782
a(S'w'
I1
tp783
a(S'w'
I6
tp784
a(S'p1_vo'
I3
tp785
a(S'w'
I727
tp786
a(S'p2_vo'
I4
tp787
a(S'w'
I1
tp788
a(S'w'
I6
tp789
a(S'p1_vo'
I4
tp790
a(S'w'
I728
tp791
a(S'p2_vo'
I5
tp792
a(S'w'
I6
tp793
a(S'p1_vo'
I5
tp794
a(S'w'
I1
tp795
a(S'w'
I726
tp796
a(S'p2_vo'
I6
tp797
a(S'w'
I6
tp798
a(S'p1_vo'
I6
tp799
a(S'w'
I1
tp800
a(S'w'
I727
tp801
a(S'p2_vo'
I5
tp802
a(S'w'
I6
tp803
a(S'p1_vo'
I5
tp804
a(S'w'
I1
tp805
a(S'w'
I726
tp806
a(S'p2_vo'
I4
tp807
a(S'w'
I1
tp808
a(S'w'
I6
tp809
a(S'p1_vo'
I4
tp810
a(S'w'
I727
tp811
a(S'p2_vo'
I3
tp812
a(S'w'
I1
tp813
a(S'w'
I6
tp814
a(S'p1_vo'
I3
tp815
a(S'w'
I722
tp816
a(S'tr_tl'
I208
tp817
a(S'w'
I6
tp818
a(S'p2_vo'
I2
tp819
a(S'w'
I6
tp820
a(S'p1_vo'
I2
tp821
a(S'w'
I1
tp822
a(S'w'
I721
tp823
a(S'tr_tl'
I210
tp824
a(S'w'
I6
tp825
a(S'p2_vo'
I3
tp826
a(S'w'
I6
tp827
a(S'p1_vo'
I3
tp828
a(S'w'
I1
tp829
a(S'w'
I721
tp830
a(S'tr_tl'
I212
tp831
a(S'w'
I5
tp832
a(S'p2_vo'
I4
tp833
a(S'w'
I1
tp834
a(S'w'
I6
tp835
a(S'p1_vo'
I4
tp836
a(S'w'
I722
tp837
a(S'tr_tl'
I210
tp838
a(S'w'
I6
tp839
a(S'p2_vo'
I5
tp840
a(S'w'
I7
tp841
a(S'p1_vo'
I5
tp842
a(S'w'
I720
tp843
a(S'tr_tl'
I208
tp844
a(S'w'
I6
tp845
a(S'p2_vo'
I6
tp846
a(S'w'
I1
tp847
a(S'w'
I5
tp848
a(S'p1_vo'
I6
tp849
a(S'w'
I1
tp850
a(S'w'
I721
tp851
a(S'tr_tl'
I206
tp852
a(S'w'
I6
tp853
a(S'p2_vo'
I5
tp854
a(S'w'
I1
tp855
a(S'w'
I5
tp856
a(S'p1_vo'
I5
tp857
a(S'w'
I1
tp858
a(S'w'
I721
tp859
a(S'tr_tl'
I204
tp860
a(S'w'
I6
tp861
a(S'p2_vo'
I4
tp862
a(S'w'
I1
tp863
a(S'w'
I5
tp864
a(S'p1_vo'
I4
tp865
a(S'w'
I1
tp866
a(S'w'
I721
tp867
a(S'tr_tl'
I202
tp868
a(S'w'
I6
tp869
a(S'p2_vo'
I3
tp870
a(S'w'
I6
tp871
a(S'p1_vo'
I3
tp872
a(S'w'
I1
tp873
a(S'w'
I721
tp874
a(S'tr_tl'
I204
tp875
a(S'w'
I6
tp876
a(S'p2_vo'
I2
tp877
a(S'w'
I6
tp878
a(S'p1_vo'
I2
tp879
a(S'w'
I1
tp880
a(S'w'
I719
tp881
a(S'tr_tl'
I206
tp882
a(S'w'
I6
tp883
a(S'p2_vo'
I3
tp884
a(S'w'
I6
tp885
a(S'p1_vo'
I3
tp886
a(S'w'
I1
tp887
a(S'w'
I1
tp888
a(S'no_cv'
I1
tp889
a(S'no_vo'
I0
tp890
a(S'w'
I717
tp891
a(S'tr_tl'
I208
tp892
a(S'w'
I6
tp893
a(S'p2_vo'
I4
tp894
a(S'w'
I1
tp895
a(S'w'
I5
tp896
a(S'p1_vo'
I4
tp897
a(S'w'
I1
tp898
a(S'w'
I720
tp899
a(S'tr_tl'
I210
tp900
a(S'w'
I7
tp901
a(S'p2_vo'
I5
tp902
a(S'w'
I1
tp903
a(S'p2_tl'
I144
tp904
a(S'w'
I7
tp905
a(S'p1_vo'
I5
tp906
a(S'w'
I1
tp907
a(S'p1_tl'
I192
tp908
a(S'w'
I718
tp909
a(S'tr_tl'
I212
tp910
a(S'w'
I7
tp911
a(S'p2_vo'
I6
tp912
a(S'p2_tl'
I146
tp913
a(S'w'
I7
tp914
a(S'p1_vo'
I6
tp915
a(S'w'
I1
tp916
a(S'p1_tl'
I194
tp917
a(S'w'
I719
tp918
a(S'tr_tl'
I210
tp919
a(S'w'
I6
tp920
a(S'p2_vo'
I5
tp921
a(S'w'
I1
tp922
a(S'p2_tl'
I148
tp923
a(S'w'
I7
tp924
a(S'p1_vo'
I5
tp925
a(S'p1_tl'
I196
tp926
a(S'w'
I720
tp927
a(S'tr_tl'
I208
tp928
a(S'w'
I6
tp929
a(S'p2_vo'
I4
tp930
a(S'w'
I1
tp931
a(S'p2_tl'
I146
tp932
a(S'w'
I7
tp933
a(S'p1_vo'
I4
tp934
a(S'p1_tl'
I194
tp935
a(S'w'
I720
tp936
a(S'tr_tl'
I206
tp937
a(S'w'
I6
tp938
a(S'p2_vo'
I3
tp939
a(S'w'
I1
tp940
a(S'p2_tl'
I144
tp941
a(S'w'
I7
tp942
a(S'p1_vo'
I3
tp943
a(S'p1_tl'
I192
tp944
a(S'w'
I720
tp945
a(S'tr_tl'
I204
tp946
a(S'w'
I6
tp947
a(S'p2_vo'
I2
tp948
a(S'w'
I1
tp949
a(S'p2_tl'
I142
tp950
a(S'w'
I7
tp951
a(S'p1_vo'
I2
tp952
a(S'w'
I1
tp953
a(S'p1_tl'
I190
tp954
a(S'w'
I718
tp955
a(S'tr_tl'
I202
tp956
a(S'w'
I7
tp957
a(S'p2_vo'
I3
tp958
a(S'w'
I1
tp959
a(S'p2_tl'
I140
tp960
a(S'w'
I7
tp961
a(S'p1_vo'
I3
tp962
a(S'p1_tl'
I188
tp963
a(S'w'
I719
tp964
a(S'tr_tl'
I204
tp965
a(S'w'
I7
tp966
a(S'p2_vo'
I4
tp967
a(S'w'
I1
tp968
a(S'p2_tl'
I138
tp969
a(S'w'
I7
tp970
a(S'p1_vo'
I4
tp971
a(S'p1_tl'
I186
tp972
a(S'w'
I719
tp973
a(S'tr_tl'
I206
tp974
a(S'w'
I7
tp975
a(S'p2_vo'
I5
tp976
a(S'w'
I1
tp977
a(S'p2_tl'
I140
tp978
a(S'w'
I8
tp979
a(S'p1_vo'
I5
tp980
a(S'p1_tl'
I188
tp981
a(S'w'
I718
tp982
a(S'tr_tl'
I208
tp983
a(S'w'
I7
tp984
a(S'p2_vo'
I6
tp985
a(S'w'
I1
tp986
a(S'p2_tl'
I142
tp987
a(S'w'
I6
tp988
a(S'p1_vo'
I6
tp989
a(S'w'
I1
tp990
a(S'p1_tl'
I190
tp991
a(S'w'
I718
tp992
a(S'tr_tl'
I210
tp993
a(S'w'
I7
tp994
a(S'p2_vo'
I5
tp995
a(S'w'
I1
tp996
a(S'p2_tl'
I144
tp997
a(S'w'
I7
tp998
a(S'p1_vo'
I5
tp999
a(S'w'
I1
tp1000
a(S'p1_tl'
I192
tp1001
a(S'w'
I718
tp1002
a(S'tr_tl'
I212
tp1003
a(S'w'
I7
tp1004
a(S'p2_vo'
I4
tp1005
a(S'p2_tl'
I146
tp1006
a(S'w'
I7
tp1007
a(S'p1_vo'
I4
tp1008
a(S'w'
I1
tp1009
a(S'p1_tl'
I194
tp1010
a(S'w'
I719
tp1011
a(S'tr_tl'
I210
tp1012
a(S'w'
I6
tp1013
a(S'p2_vo'
I3
tp1014
a(S'w'
I1
tp1015
a(S'p2_tl'
I148
tp1016
a(S'w'
I7
tp1017
a(S'p1_vo'
I3
tp1018
a(S'p1_tl'
I196
tp1019
a(S'w'
I720
tp1020
a(S'tr_tl'
I208
tp1021
a(S'w'
I6
tp1022
a(S'p2_vo'
I2
tp1023
a(S'w'
I1
tp1024
a(S'p2_tl'
I146
tp1025
a(S'w'
I7
tp1026
a(S'p1_vo'
I2
tp1027
a(S'p1_tl'
I194
tp1028
a(S'w'
I720
tp1029
a(S'tr_tl'
I206
tp1030
a(S'w'
I6
tp1031
a(S'p2_vo'
I3
tp1032
a(S'w'
I1
tp1033
a(S'p2_tl'
I144
tp1034
a(S'w'
I7
tp1035
a(S'p1_vo'
I3
tp1036
a(S'p1_tl'
I192
tp1037
a(S'w'
I720
tp1038
a(S'tr_tl'
I204
tp1039
a(S'w'
I6
tp1040
a(S'p2_vo'
I4
tp1041
a(S'w'
I1
tp1042
a(S'p2_tl'
I142
tp1043
a(S'w'
I7
tp1044
a(S'p1_vo'
I4
tp1045
a(S'w'
I1
tp1046
a(S'p1_tl'
I190
tp1047
a(S'w'
I718
tp1048
a(S'tr_tl'
I202
tp1049
a(S'w'
I8
tp1050
a(S'p2_vo'
I5
tp1051
a(S'w'
I1
tp1052
a(S'p2_tl'
I140
tp1053
a(S'w'
I7
tp1054
a(S'p1_vo'
I5
tp1055
a(S'w'
I1
tp1056
a(S'p1_tl'
I188
tp1057
a(S'w'
I717
tp1058
a(S'tr_tl'
I204
tp1059
a(S'w'
I7
tp1060
a(S'p2_vo'
I6
tp1061
a(S'w'
I1
tp1062
a(S'p2_tl'
I138
tp1063
a(S'w'
I7
tp1064
a(S'p1_vo'
I6
tp1065
a(S'p1_tl'
I186
tp1066
a(S'w'
I719
tp1067
a(S'tr_tl'
I206
tp1068
a(S'w'
I7
tp1069
a(S'p2_vo'
I5
tp1070
a(S'w'
I1
tp1071
a(S'p2_tl'
I140
tp1072
a(S'w'
I6
tp1073
a(S'p1_vo'
I5
tp1074
a(S'w'
I1
tp1075
a(S'p1_tl'
I188
tp1076
a(S'w'
I719
tp1077
a(S'tr_tl'
I208
tp1078
a(S'w'
I7
tp1079
a(S'p2_vo'
I4
tp1080
a(S'w'
I1
tp1081
a(S'p2_tl'
I142
tp1082
a(S'w'
I6
tp1083
a(S'p1_vo'
I4
tp1084
a(S'w'
I1
tp1085
a(S'p1_tl'
I190
tp1086
a(S'w'
I718
tp1087
a(S'tr_tl'
I210
tp1088
a(S'w'
I7
tp1089
a(S'p2_vo'
I3
tp1090
a(S'w'
I1
tp1091
a(S'p2_tl'
I144
tp1092
a(S'w'
I7
tp1093
a(S'p1_vo'
I3
tp1094
a(S'w'
I1
tp1095
a(S'p1_tl'
I192
tp1096
a(S'w'
I718
tp1097
a(S'tr_tl'
I212
tp1098
a(S'w'
I7
tp1099
a(S'p2_vo'
I2
tp1100
a(S'p2_tl'
I146
tp1101
a(S'w'
I7
tp1102
a(S'p1_vo'
I2
tp1103
a(S'w'
I1
tp1104
a(S'p1_tl'
I194
tp1105
a(S'w'
I719
tp1106
a(S'tr_tl'
I210
tp1107
a(S'w'
I6
tp1108
a(S'p2_vo'
I3
tp1109
a(S'w'
I1
tp1110
a(S'p2_tl'
I148
tp1111
a(S'w'
I7
tp1112
a(S'p1_vo'
I3
tp1113
a(S'p1_tl'
I196
tp1114
a(S'w'
I720
tp1115
a(S'tr_tl'
I208
tp1116
a(S'w'
I6
tp1117
a(S'p2_vo'
I4
tp1118
a(S'w'
I1
tp1119
a(S'p2_tl'
I146
tp1120
a(S'w'
I7
tp1121
a(S'p1_vo'
I4
tp1122
a(S'p1_tl'
I194
tp1123
a(S'w'
I720
tp1124
a(S'tr_tl'
I206
tp1125
a(S'w'
I7
tp1126
a(S'p2_vo'
I5
tp1127
a(S'w'
I1
tp1128
a(S'p2_tl'
I144
tp1129
a(S'w'
I7
tp1130
a(S'p1_vo'
I5
tp1131
a(S'p1_tl'
I192
tp1132
a(S'w'
I719
tp1133
a(S'tr_tl'
I204
tp1134
a(S'w'
I7
tp1135
a(S'p2_vo'
I6
tp1136
a(S'p2_tl'
I142
tp1137
a(S'w'
I7
tp1138
a(S'p1_vo'
I6
tp1139
a(S'w'
I1
tp1140
a(S'p1_tl'
I190
tp1141
a(S'w'
I719
tp1142
a(S'tr_tl'
I202
tp1143
a(S'w'
I6
tp1144
a(S'p2_vo'
I5
tp1145
a(S'w'
I1
tp1146
a(S'p2_tl'
I140
tp1147
a(S'w'
I7
tp1148
a(S'p1_vo'
I5
tp1149
a(S'w'
I1
tp1150
a(S'p1_tl'
I188
tp1151
a(S'w'
I718
tp1152
a(S'tr_tl'
I204
tp1153
a(S'w'
I7
tp1154
a(S'p2_vo'
I4
tp1155
a(S'w'
I1
tp1156
a(S'p2_tl'
I138
tp1157
a(S'w'
I7
tp1158
a(S'p1_vo'
I4
tp1159
a(S'p1_tl'
I186
tp1160
a(S'w'
I719
tp1161
a(S'tr_tl'
I206
tp1162
a(S'w'
I7
tp1163
a(S'p2_vo'
I3
tp1164
a(S'w'
I1
tp1165
a(S'p2_tl'
I140
tp1166
a(S'w'
I6
tp1167
a(S'p1_vo'
I3
tp1168
a(S'w'
I1
tp1169
a(S'p1_tl'
I188
tp1170
a(S'w'
I719
tp1171
a(S'tr_tl'
I208
tp1172
a(S'w'
I7
tp1173
a(S'p2_vo'
I2
tp1174
a(S'w'
I1
tp1175
a(S'p2_tl'
I142
tp1176
a(S'w'
I6
tp1177
a(S'p1_vo'
I2
tp1178
a(S'w'
I1
tp1179
a(S'p1_tl'
I190
tp1180
a(S'w'
I718
tp1181
a(S'tr_tl'
I210
tp1182
a(S'w'
I8
tp1183
a(S'p2_vo'
I3
tp1184
a(S'p2_tl'
I144
tp1185
a(S'w'
I7
tp1186
a(S'p1_vo'
I3
tp1187
a(S'w'
I1
tp1188
a(S'p1_tl'
I192
tp1189
a(S'w'
I718
tp1190
a(S'tr_tl'
I212
tp1191
a(S'w'
I7
tp1192
a(S'p2_vo'
I4
tp1193
a(S'p2_tl'
I146
tp1194
a(S'w'
I7
tp1195
a(S'p1_vo'
I4
tp1196
a(S'w'
I1
tp1197
a(S'p1_tl'
I194
tp1198
a(S'w'
I719
tp1199
a(S'tr_tl'
I210
tp1200
a(S'w'
I7
tp1201
a(S'p2_vo'
I5
tp1202
a(S'w'
I1
tp1203
a(S'p2_tl'
I148
tp1204
a(S'w'
I7
tp1205
a(S'p1_vo'
I5
tp1206
a(S'w'
I1
tp1207
a(S'p1_tl'
I196
tp1208
a(S'w'
I718
tp1209
a(S'tr_tl'
I208
tp1210
a(S'w'
I6
tp1211
a(S'p2_vo'
I6
tp1212
a(S'w'
I1
tp1213
a(S'p2_tl'
I146
tp1214
a(S'w'
I7
tp1215
a(S'p1_vo'
I6
tp1216
a(S'p1_tl'
I194
tp1217
a(S'w'
I720
tp1218
a(S'tr_tl'
I206
tp1219
a(S'w'
I6
tp1220
a(S'p2_vo'
I5
tp1221
a(S'w'
I1
tp1222
a(S'p2_tl'
I144
tp1223
a(S'w'
I7
tp1224
a(S'p1_vo'
I5
tp1225
a(S'p1_tl'
I192
tp1226
a(S'w'
I720
tp1227
a(S'tr_tl'
I204
tp1228
a(S'w'
I7
tp1229
a(S'p2_vo'
I4
tp1230
a(S'p2_tl'
I142
tp1231
a(S'w'
I7
tp1232
a(S'p1_vo'
I4
tp1233
a(S'w'
I1
tp1234
a(S'p1_tl'
I190
tp1235
a(S'w'
I719
tp1236
a(S'tr_tl'
I202
tp1237
a(S'w'
I6
tp1238
a(S'p2_vo'
I3
tp1239
a(S'w'
I1
tp1240
a(S'p2_tl'
I140
tp1241
a(S'w'
I7
tp1242
a(S'p1_vo'
I3
tp1243
a(S'w'
I1
tp1244
a(S'p1_tl'
I188
tp1245
a(S'w'
I718
tp1246
a(S'tr_tl'
I204
tp1247
a(S'w'
I7
tp1248
a(S'p2_vo'
I2
tp1249
a(S'w'
I1
tp1250
a(S'p2_tl'
I138
tp1251
a(S'w'
I7
tp1252
a(S'p1_vo'
I2
tp1253
a(S'p1_tl'
I186
tp1254
a(S'w'
I719
tp1255
a(S'tr_tl'
I206
tp1256
a(S'w'
I7
tp1257
a(S'p2_vo'
I3
tp1258
a(S'w'
I1
tp1259
a(S'p2_tl'
I140
tp1260
a(S'w'
I6
tp1261
a(S'p1_vo'
I3
tp1262
a(S'w'
I1
tp1263
a(S'p1_tl'
I188
tp1264
a(S'w'
I719
tp1265
a(S'tr_tl'
I208
tp1266
a(S'w'
I7
tp1267
a(S'p2_vo'
I4
tp1268
a(S'w'
I1
tp1269
a(S'p2_tl'
I142
tp1270
a(S'w'
I7
tp1271
a(S'p1_vo'
I4
tp1272
a(S'p1_tl'
I190
tp1273
a(S'w'
I718
tp1274
a(S'tr_tl'
I210
tp1275
a(S'w'
I8
tp1276
a(S'p2_vo'
I5
tp1277
a(S'w'
I1
tp1278
a(S'p2_tl'
I144
tp1279
a(S'w'
I7
tp1280
a(S'p1_vo'
I5
tp1281
a(S'w'
I1
tp1282
a(S'p1_tl'
I192
tp1283
a(S'w'
I717
tp1284
a(S'tr_tl'
I212
tp1285
a(S'w'
I7
tp1286
a(S'p2_vo'
I6
tp1287
a(S'p2_tl'
I146
tp1288
a(S'w'
I7
tp1289
a(S'p1_vo'
I6
tp1290
a(S'w'
I1
tp1291
a(S'p1_tl'
I194
tp1292
a(S'w'
I722
tp1293
a(S'p2_vo'
I5
tp1294
a(S'w'
I1
tp1295
a(S'p2_tl'
I148
tp1296
a(S'w'
I7
tp1297
a(S'p1_vo'
I5
tp1298
a(S'p1_tl'
I196
tp1299
a(S'w'
I1
tp1300
a(S'tr_lh'
I0
tp1301
a(S'tr_lr'
I0
tp1302
a(S'w'
I722
tp1303
a(S'p2_vo'
I4
tp1304
a(S'w'
I1
tp1305
a(S'p2_tl'
I146
tp1306
a(S'w'
I6
tp1307
a(S'p1_vo'
I4
tp1308
a(S'w'
I1
tp1309
a(S'p1_tl'
I194
tp1310
a(S'w'
I726
tp1311
a(S'p2_vo'
I3
tp1312
a(S'w'
I1
tp1313
a(S'p2_tl'
I144
tp1314
a(S'w'
I6
tp1315
a(S'p1_vo'
I3
tp1316
a(S'w'
I1
tp1317
a(S'p1_tl'
I192
tp1318
a(S'w'
I726
tp1319
a(S'p2_vo'
I2
tp1320
a(S'w'
I1
tp1321
a(S'p2_tl'
I142
tp1322
a(S'w'
I7
tp1323
a(S'p1_vo'
I2
tp1324
a(S'p1_tl'
I190
tp1325
a(S'w'
I726
tp1326
a(S'p2_vo'
I3
tp1327
a(S'w'
I1
tp1328
a(S'p2_tl'
I140
tp1329
a(S'w'
I6
tp1330
a(S'p1_vo'
I3
tp1331
a(S'w'
I1
tp1332
a(S'p1_tl'
I188
tp1333
a(S'w'
I726
tp1334
a(S'p2_vo'
I4
tp1335
a(S'p2_tl'
I138
tp1336
a(S'w'
I7
tp1337
a(S'p1_vo'
I4
tp1338
a(S'w'
I1
tp1339
a(S'p1_tl'
I186
tp1340
a(S'w'
I726
tp1341
a(S'p2_vo'
I5
tp1342
a(S'w'
I1
tp1343
a(S'p2_tl'
I140
tp1344
a(S'w'
I7
tp1345
a(S'p1_vo'
I5
tp1346
a(S'w'
I1
tp1347
a(S'p1_tl'
I188
tp1348
a(S'w'
I724
tp1349
a(S'p2_vo'
I6
tp1350
a(S'w'
I1
tp1351
a(S'p2_tl'
I142
tp1352
a(S'w'
I7
tp1353
a(S'p1_vo'
I6
tp1354
a(S'w'
I1
tp1355
a(S'p1_tl'
I190
tp1356
a(S'w'
I725
tp1357
a(S'p2_vo'
I5
tp1358
a(S'w'
I1
tp1359
a(S'p2_tl'
I144
tp1360
a(S'w'
I7
tp1361
a(S'p1_vo'
I5
tp1362
a(S'w'
I1
tp1363
a(S'p1_tl'
I192
tp1364
a(S'w'
I725
tp1365
a(S'p2_vo'
I4
tp1366
a(S'p2_tl'
I146
tp1367
a(S'w'
I7
tp1368
a(S'p1_vo'
I4
tp1369
a(S'w'
I1
tp1370
a(S'p1_tl'
I194
tp1371
a(S'w'
I725
tp1372
a(S'p2_vo'
I3
tp1373
a(S'w'
I1
tp1374
a(S'p2_tl'
I148
tp1375
a(S'w'
I7
tp1376
a(S'p1_vo'
I3
tp1377
a(S'p1_tl'
I196
tp1378
a(S'w'
I727
tp1379
a(S'p1_lh'
I0
tp1380
a(S'p1_vo'
I0
tp1381
a(S'p2_lh'
I0
tp1382
a(S'p2_vo'
I0
tp1383
a(S'w'
I1
tp1384
a.