(lp1
(S'clock'
p2
I1789772
tp3
a(S'fc_mo'
I1
tp4
a(S'w'
I3
tp5
a(S'p1_vo'
I5
tp6
a(S'w'
I7
tp7
a(S'p1_ll'
I1
tp8
a(S'w'
I1
tp9
a(S'p1_tl'
I213
tp10
a(S'w'
I3
tp11
a(S'p2_vo'
I5
tp12
a(S'w'
I6
tp13
a(S'p2_ll'
I1
tp14
a(S'p2_th'
I2
tp15
a(S'p2_tl'
I59
tp16
a(S'w'
I4
tp17
a(S'tr_lr'
I40
tp18
a(S'w'
I6
tp19
a(S'tr_ll'
I1
tp20
a(S'tr_th'
I1
tp21
a(S'tr_tl'
I171
tp22
a(S'w'
I14655
tp23
a(S'p1_ll'
I1
tp24
a(S'w'
I9
tp25
a(S'p2_ll'
I1
tp26
a(S'w'
I9
tp27
a(S'tr_ll'
I1
tp28
a(S'w'
I10988
tp29
a(S'p1_ll'
I1
tp30
a(S'w'
I1
tp31
a(S'w'
I3669
tp32
a(S'p1_ll'
I1
tp33
a(S'w'
I1
tp34
a(S'w'
I8
tp35
a(S'p2_ll'
I1
tp36
a(S'w'
I9
tp37
a(S'tr_ll'
I1
tp38
a(S'w'
I14658
tp39
a(S'p1_ll'
I1
tp40
a(S'p1_tl'
I226
tp41
a(S'w'
I7
tp42
a(S'p2_lh'
I1
tp43
a(S'p2_cv'
I1
tp44
a(S'p2_vo'
I0
tp45
a(S'w'
I6
tp46
a(S'tr_lr'
I0
tp47
a(S'w'
I10993
tp48
a(S'p1_ll'
I1
tp49
a(S'p1_tl'
I254
tp50
a(S'w'
I3670
tp51
a(S'p1_ll'
I1
tp52
a(S'p1_th'
I1
tp53
a(S'p1_tl'
I29
tp54
a(S'w'
I6
tp55
a(S'p2_lh'
I0
tp56
a(S'p2_cv'
I0
tp57
a(S'p2_vo'
I5
tp58
a(S'w'
I6
tp59
a(S'p2_ll'
I1
tp60
a(S'w'
I6
tp61
a(S'tr_lr'
I40
tp62
a(S'w'
I7
tp63
a(S'tr_ll'
I1
tp64
a(S'w'
I14651
tp65
a(S'p1_ll'
I1
tp66
a(S'p1_tl'
I83
tp67
a(S'w'
I8
tp68
a(S'p2_ll'
I1
tp69
a(S'w'
I1
tp70
a(S'w'
I9
tp71
a(S'tr_ll'
I1
tp72
a(S'w'
I14658
tp73
a(S'p1_ll'
I1
tp74
a(S'p1_tl'
I29
tp75
a(S'w'
I8
tp76
a(S'p2_ll'
I1
tp77
a(S'w'
I1
tp78
a(S'w'
I9
tp79
a(S'tr_ll'
I1
tp80
a(S'w'
I14657
tp81
a(S'p1_ll'
I1
tp82
a(S'p1_tl'
I83
tp83
a(S'w'
I7
tp84
a(S'p2_lh'
I1
tp85
a(S'p2_cv'
I1
tp86
a(S'p2_vo'
I0
tp87
a(S'w'
I6
tp88
a(S'tr_lr'
I0
tp89
a(S'w'
I14662
tp90
a(S'p1_ll'
I1
tp91
a(S'p1_tl'
I125
tp92
a(S'w'
I12
tp93
a(S'p2_lh'
I0
tp94
a(S'p2_cv'
I0
tp95
a(S'p2_vo'
I5
tp96
a(S'w'
I1
tp97
a(S'p2_lh'
I1
tp98
a(S'p2_cv'
I1
tp99
a(S'p2_vo'
I0
tp100
a(S'w'
I8
tp101
a(S'tr_lr'
I40
tp102
a(S'w'
I3
tp103
a(S'tr_ll'
I1
tp104
a(S'tr_tl'
I64
tp105
a(S'w'
I7314
tp106
a(S'p1_ll'
I1
tp107
a(S'p1_tl'
I83
tp108
a(S'w'
I7338
tp109
a(S'p1_ll'
I1
tp110
a(S'p1_tl'
I64
tp111
a(S'w'
I11
tp112
a(S'tr_ll'
I1
tp113
a(S'w'
I1
tp114
a(S'tr_tl'
I125
tp115
a(S'w'
I7326
tp116
a(S'p1_ll'
I1
tp117
a(S'p1_tl'
I29
tp118
a(S'w'
I7338
tp119
a(S'p1_ll'
I1
tp120
a(S'p1_th'
I0
tp121
a(S'p1_tl'
I254
tp122
a(S'w'
I11
tp123
a(S'tr_ll'
I1
tp124
a(S'tr_tl'
I29
tp125
a(S'w'
I7327
tp126
a(S'p1_ll'
I1
tp127
a(S'p1_th'
I1
tp128
a(S'p1_tl'
I29
tp129
a(S'w'
I7338
tp130
a(S'p1_ll'
I1
tp131
a(S'p1_th'
I0
tp132
a(S'p1_tl'
I254
tp133
a(S'w'
I11
tp134
a(S'tr_ll'
I1
tp135
a(S'tr_th'
I2
tp136
a(S'tr_tl'
I59
tp137
a(S'w'
I7327
tp138
a(S'p1_ll'
I1
tp139
a(S'p1_tl'
I226
tp140
a(S'w'
I7340
tp141
a(S'p1_ll'
I1
tp142
a(S'p1_tl'
I213
tp143
a(S'w'
I6
tp144
a(S'p2_lh'
I0
tp145
a(S'p2_cv'
I0
tp146
a(S'p2_vo'
I5
tp147
a(S'p2_lh'
I1
tp148
a(S'p2_cv'
I1
tp149
a(S'p2_vo'
I0
tp150
a(S'w'
I10
tp151
a(S'tr_ll'
I1
tp152
a(S'tr_th'
I1
tp153
a(S'tr_tl'
I171
tp154
a(S'w'
I14658
tp155
a(S'p1_ll'
I1
tp156
a(S'w'
I6
tp157
a(S'p2_lh'
I0
tp158
a(S'p2_cv'
I0
tp159
a(S'p2_vo'
I5
tp160
a(S'w'
I3
tp161
a(S'p2_ll'
I1
tp162
a(S'p2_th'
I1
tp163
a(S'p2_tl'
I83
tp164
a(S'w'
I9
tp165
a(S'tr_ll'
I1
tp166
a(S'w'
I1
tp167
a(S'tr_tl'
I29
tp168
a(S'w'
I10987
tp169
a(S'p1_ll'
I1
tp170
a(S'w'
I1
tp171
a(S'w'
I7
tp172
a(S'p2_ll'
I1
tp173
a(S'w'
I1
tp174
a(S'w'
I3661
tp175
a(S'p1_ll'
I1
tp176
a(S'w'
I1
tp177
a(S'w'
I8
tp178
a(S'p2_ll'
I1
tp179
a(S'w'
I1
tp180
a(S'w'
I9
tp181
a(S'tr_ll'
I1
tp182
a(S'w'
I14650
tp183
a(S'p1_lh'
I1
tp184
a(S'p1_cv'
I1
tp185
a(S'p1_vo'
I0
tp186
a(S'w'
I3
tp187
a(S'p2_lh'
I1
tp188
a(S'p2_cv'
I1
tp189
a(S'p2_vo'
I0
tp190
a(S'w'
I3
tp191
a(S'tr_lr'
I0
tp192
a(S'w'
I46094
tp193
a.