(lp1
(S'clock'
p2
I1789772
tp3
a(S'ch_no'
I0
tp4
a(S'ch_tr'
I0
tp5
a(S'ch_p2'
I0
tp6
a(S'ch_p1'
I0
tp7
a(S'w'
I25
tp8
a(S'ch_no'
I0
tp9
a(S'ch_tr'
I1
tp10
a(S'ch_p2'
I0
tp11
a(S'ch_p1'
I0
tp12
a(S'w'
I1
tp13
a(S'tr_lr'
I10
tp14
a(S'w'
I1
tp15
a(S'tr_tl'
I171
tp16
a(S'w'
I1
tp17
a(S'tr_ll'
I1
tp18
a(S'tr_th'
I1
tp19
a(S'w'
I12
tp20
a(S'ch_no'
I1
tp21
a(S'ch_tr'
I1
tp22
a(S'ch_p2'
I0
tp23
a(S'ch_p1'
I0
tp24
a(S'w'
I1
tp25
a(S'w'
I1
tp26
a(S'no_np'
I2
tp27
a(S'w'
I1
tp28
a(S'no_ll'
I1
tp29
a(S'w'
I702
tp30
a(S'p1_du'
I1
tp31
a(S'p1_vo'
I1
tp32
a(S'w'
I8078
tp33
a(S'ch_no'
I1
tp34
a(S'ch_tr'
I1
tp35
a(S'ch_p2'
I0
tp36
a(S'ch_p1'
I1
tp37
a(S'w'
I2
tp38
a(S'p1_tl'
I213
tp39
a(S'w'
I1
tp40
a(S'p1_ll'
I1
tp41
a(S'w'
I15
tp42
a(S'tr_ll'
I1
tp43
a(S'w'
I17
tp44
a(S'no_ll'
I1
tp45
a(S'w'
I8773
tp46
a(S'p1_tl'
I190
tp47
a(S'w'
I1
tp48
a(S'p1_ll'
I1
tp49
a(S'w'
I14
tp50
a(S'tr_tl'
I58
tp51
a(S'w'
I1
tp52
a(S'tr_ll'
I1
tp53
a(S'tr_th'
I2
tp54
a(S'w'
I16
tp55
a(S'w'
I1
tp56
a(S'no_ll'
I1
tp57
a(S'w'
I8772
tp58
a(S'p1_tl'
I213
tp59
a(S'w'
I1
tp60
a(S'p1_ll'
I1
tp61
a(S'w'
I14
tp62
a(S'tr_tl'
I252
tp63
a(S'w'
I1
tp64
a(S'tr_ll'
I1
tp65
a(S'tr_th'
I1
tp66
a(S'w'
I16
tp67
a(S'w'
I1
tp68
a(S'no_ll'
I1
tp69
a(S'w'
I8773
tp70
a(S'p1_tl'
I29
tp71
a(S'p1_ll'
I1
tp72
a(S'p1_th'
I1
tp73
a(S'w'
I18
tp74
a(S'tr_tl'
I171
tp75
a(S'w'
I1
tp76
a(S'tr_ll'
I1
tp77
a(S'w'
I16
tp78
a(S'w'
I1
tp79
a(S'no_ll'
I1
tp80
a(S'w'
I8769
tp81
a(S'p1_tl'
I254
tp82
a(S'p1_ll'
I1
tp83
a(S'p1_th'
I0
tp84
a(S'w'
I16
tp85
a(S'tr_ll'
I1
tp86
a(S'w'
I16
tp87
a(S'w'
I1
tp88
a(S'no_ll'
I1
tp89
a(S'w'
I8773
tp90
a(S'p1_tl'
I213
tp91
a(S'w'
I1
tp92
a(S'p1_ll'
I1
tp93
a(S'w'
I14
tp94
a(S'tr_tl'
I58
tp95
a(S'w'
I1
tp96
a(S'tr_ll'
I1
tp97
a(S'tr_th'
I2
tp98
a(S'w'
I16
tp99
a(S'w'
I1
tp100
a(S'no_ll'
I1
tp101
a(S'w'
I8772
tp102
a(S'p1_tl'
I254
tp103
a(S'p1_ll'
I1
tp104
a(S'w'
I15
tp105
a(S'tr_tl'
I252
tp106
a(S'w'
I1
tp107
a(S'tr_ll'
I1
tp108
a(S'tr_th'
I1
tp109
a(S'w'
I18
tp110
a(S'no_vo'
I2
tp111
a(S'w'
I1
tp112
a(S'no_np'
I4
tp113
a(S'no_ll'
I1
tp114
a(S'w'
I8766
tp115
a(S'ch_no'
I1
tp116
a(S'ch_tr'
I1
tp117
a(S'ch_p2'
I0
tp118
a(S'ch_p1'
I0
tp119
a(S'w'
I18
tp120
a(S'tr_tl'
I125
tp121
a(S'tr_ll'
I1
tp122
a(S'w'
I18
tp123
a(S'no_vo'
I0
tp124
a(S'w'
I1
tp125
a(S'no_np'
I2
tp126
a(S'no_ll'
I1
tp127
a(S'w'
I8771
tp128
a(S'ch_no'
I1
tp129
a(S'ch_tr'
I1
tp130
a(S'ch_p2'
I0
tp131
a(S'ch_p1'
I1
tp132
a(S'w'
I2
tp133
a(S'p1_tl'
I190
tp134
a(S'w'
I1
tp135
a(S'p1_ll'
I1
tp136
a(S'w'
I15
tp137
a(S'tr_ll'
I1
tp138
a(S'w'
I17
tp139
a(S'w'
I1
tp140
a(S'no_ll'
I1
tp141
a(S'w'
I8772
tp142
a(S'p1_tl'
I169
tp143
a(S'w'
I1
tp144
a(S'p1_ll'
I1
tp145
a(S'w'
I14
tp146
a(S'tr_tl'
I252
tp147
a(S'w'
I1
tp148
a(S'tr_ll'
I1
tp149
a(S'w'
I16
tp150
a(S'w'
I1
tp151
a(S'no_ll'
I1
tp152
a(S'w'
I8772
tp153
a(S'p1_tl'
I190
tp154
a(S'w'
I1
tp155
a(S'p1_ll'
I1
tp156
a(S'w'
I14
tp157
a(S'tr_tl'
I197
tp158
a(S'w'
I1
tp159
a(S'tr_ll'
I1
tp160
a(S'w'
I16
tp161
a(S'w'
I1
tp162
a(S'no_ll'
I1
tp163
a(S'w'
I8773
tp164
a(S'p1_tl'
I254
tp165
a(S'p1_ll'
I1
tp166
a(S'w'
I15
tp167
a(S'tr_tl'
I125
tp168
a(S'w'
I1
tp169
a(S'tr_ll'
I1
tp170
a(S'w'
I17
tp171
a(S'no_ll'
I1
tp172
a(S'w'
I8772
tp173
a(S'p1_tl'
I169
tp174
a(S'w'
I1
tp175
a(S'p1_ll'
I1
tp176
a(S'w'
I15
tp177
a(S'tr_ll'
I1
tp178
a(S'w'
I19
tp179
a(S'no_vo'
I2
tp180
a(S'w'
I1
tp181
a(S'no_np'
I4
tp182
a(S'no_ll'
I1
tp183
a(S'w'
I8770
tp184
a(S'p1_tl'
I190
tp185
a(S'w'
I1
tp186
a(S'p1_ll'
I1
tp187
a(S'w'
I14
tp188
a(S'tr_tl'
I166
tp189
a(S'w'
I1
tp190
a(S'tr_ll'
I1
tp191
a(S'tr_th'
I2
tp192
a(S'w'
I16
tp193
a(S'no_vo'
I0
tp194
a(S'w'
I1
tp195
a(S'no_np'
I2
tp196
a(S'no_ll'
I1
tp197
a(S'w'
I4377
tp198
a(S'tr_tl'
I125
tp199
a(S'w'
I1
tp200
a(S'tr_ll'
I1
tp201
a(S'tr_th'
I1
tp202
a(S'w'
I14
tp203
a(S'no_np'
I5
tp204
a(S'no_ll'
I1
tp205
a(S'w'
I4380
tp206
a(S'p1_tl'
I169
tp207
a(S'w'
I1
tp208
a(S'p1_ll'
I1
tp209
a(S'w'
I15
tp210
a(S'tr_tl'
I171
tp211
a(S'tr_ll'
I1
tp212
a(S'w'
I14
tp213
a(S'no_np'
I2
tp214
a(S'w'
I1
tp215
a(S'no_ll'
I1
tp216
a(S'w'
I4380
tp217
a(S'tr_tl'
I125
tp218
a(S'w'
I1
tp219
a(S'tr_ll'
I1
tp220
a(S'w'
I14
tp221
a(S'no_np'
I5
tp222
a(S'no_ll'
I1
tp223
a(S'w'
I4375
tp224
a(S'ch_no'
I1
tp225
a(S'ch_tr'
I1
tp226
a(S'ch_p2'
I0
tp227
a(S'ch_p1'
I0
tp228
a(S'w'
I19
tp229
a(S'tr_tl'
I171
tp230
a(S'w'
I1
tp231
a(S'tr_ll'
I1
tp232
a(S'w'
I18
tp233
a(S'no_np'
I2
tp234
a(S'w'
I1
tp235
a(S'no_ll'
I1
tp236
a(S'w'
I8769
tp237
a(S'ch_no'
I1
tp238
a(S'ch_tr'
I1
tp239
a(S'ch_p2'
I0
tp240
a(S'ch_p1'
I1
tp241
a(S'w'
I2
tp242
a(S'p1_tl'
I213
tp243
a(S'w'
I1
tp244
a(S'p1_ll'
I1
tp245
a(S'w'
I15
tp246
a(S'tr_ll'
I1
tp247
a(S'w'
I17
tp248
a(S'w'
I1
tp249
a(S'no_ll'
I1
tp250
a(S'w'
I8772
tp251
a(S'p1_tl'
I190
tp252
a(S'w'
I1
tp253
a(S'p1_ll'
I1
tp254
a(S'w'
I14
tp255
a(S'tr_tl'
I58
tp256
a(S'w'
I1
tp257
a(S'tr_ll'
I1
tp258
a(S'tr_th'
I2
tp259
a(S'w'
I17
tp260
a(S'no_ll'
I1
tp261
a(S'w'
I8772
tp262
a(S'p1_tl'
I213
tp263
a(S'w'
I1
tp264
a(S'p1_ll'
I1
tp265
a(S'w'
I14
tp266
a(S'tr_tl'
I252
tp267
a(S'w'
I1
tp268
a(S'tr_ll'
I1
tp269
a(S'tr_th'
I1
tp270
a(S'w'
I16
tp271
a(S'w'
I1
tp272
a(S'no_ll'
I1
tp273
a(S'w'
I8773
tp274
a(S'p1_tl'
I29
tp275
a(S'p1_ll'
I1
tp276
a(S'p1_th'
I1
tp277
a(S'w'
I18
tp278
a(S'tr_tl'
I171
tp279
a(S'w'
I1
tp280
a(S'tr_ll'
I1
tp281
a(S'w'
I16
tp282
a(S'w'
I1
tp283
a(S'no_ll'
I1
tp284
a(S'w'
I8769
tp285
a(S'p1_tl'
I254
tp286
a(S'p1_ll'
I1
tp287
a(S'p1_th'
I0
tp288
a(S'w'
I16
tp289
a(S'tr_ll'
I1
tp290
a(S'w'
I17
tp291
a(S'no_ll'
I1
tp292
a(S'w'
I8773
tp293
a(S'p1_tl'
I213
tp294
a(S'w'
I1
tp295
a(S'p1_ll'
I1
tp296
a(S'w'
I14
tp297
a(S'tr_tl'
I58
tp298
a(S'w'
I1
tp299
a(S'tr_ll'
I1
tp300
a(S'tr_th'
I2
tp301
a(S'w'
I17
tp302
a(S'no_ll'
I1
tp303
a(S'w'
I8772
tp304
a(S'p1_tl'
I254
tp305
a(S'p1_ll'
I1
tp306
a(S'w'
I15
tp307
a(S'tr_tl'
I252
tp308
a(S'w'
I1
tp309
a(S'tr_ll'
I1
tp310
a(S'tr_th'
I1
tp311
a(S'w'
I18
tp312
a(S'no_vo'
I2
tp313
a(S'w'
I1
tp314
a(S'no_np'
I4
tp315
a(S'w'
I1
tp316
a(S'no_ll'
I1
tp317
a(S'w'
I8765
tp318
a(S'ch_no'
I1
tp319
a(S'ch_tr'
I1
tp320
a(S'ch_p2'
I0
tp321
a(S'ch_p1'
I0
tp322
a(S'w'
I18
tp323
a(S'tr_tl'
I125
tp324
a(S'tr_ll'
I1
tp325
a(S'w'
I18
tp326
a(S'no_vo'
I0
tp327
a(S'w'
I1
tp328
a(S'no_np'
I2
tp329
a(S'no_ll'
I1
tp330
a(S'w'
I8771
tp331
a(S'ch_no'
I1
tp332
a(S'ch_tr'
I1
tp333
a(S'ch_p2'
I0
tp334
a(S'ch_p1'
I1
tp335
a(S'w'
I2
tp336
a(S'p1_tl'
I190
tp337
a(S'w'
I1
tp338
a(S'p1_ll'
I1
tp339
a(S'w'
I15
tp340
a(S'tr_ll'
I1
tp341
a(S'w'
I17
tp342
a(S'w'
I1
tp343
a(S'no_ll'
I1
tp344
a(S'w'
I8772
tp345
a(S'p1_tl'
I169
tp346
a(S'w'
I1
tp347
a(S'p1_ll'
I1
tp348
a(S'w'
I14
tp349
a(S'tr_tl'
I252
tp350
a(S'w'
I1
tp351
a(S'tr_ll'
I1
tp352
a(S'w'
I16
tp353
a(S'w'
I1
tp354
a(S'no_ll'
I1
tp355
a(S'w'
I8772
tp356
a(S'p1_tl'
I190
tp357
a(S'w'
I1
tp358
a(S'p1_ll'
I1
tp359
a(S'w'
I14
tp360
a(S'tr_tl'
I197
tp361
a(S'w'
I1
tp362
a(S'tr_ll'
I1
tp363
a(S'w'
I16
tp364
a(S'w'
I1
tp365
a(S'no_ll'
I1
tp366
a(S'w'
I8773
tp367
a(S'p1_tl'
I160
tp368
a(S'w'
I1
tp369
a(S'p1_ll'
I1
tp370
a(S'w'
I15
tp371
a(S'tr_tl'
I125
tp372
a(S'tr_ll'
I1
tp373
a(S'w'
I17
tp374
a(S'w'
I1
tp375
a(S'no_ll'
I1
tp376
a(S'w'
I4368
tp377
a(S'w'
I1
tp378
a(S'p1_ll'
I1
tp379
a(S'w'
I4411
tp380
a(S'tr_ll'
I1
tp381
a(S'w'
I19
tp382
a(S'no_vo'
I2
tp383
a(S'no_np'
I4
tp384
a(S'w'
I1
tp385
a(S'no_ll'
I1
tp386
a(S'w'
I4374
tp387
a(S'p1_tl'
I169
tp388
a(S'w'
I1
tp389
a(S'p1_ll'
I1
tp390
a(S'w'
I4402
tp391
a(S'p1_tl'
I160
tp392
a(S'w'
I1
tp393
a(S'p1_ll'
I1
tp394
a(S'w'
I14
tp395
a(S'tr_tl'
I166
tp396
a(S'w'
I1
tp397
a(S'tr_ll'
I1
tp398
a(S'tr_th'
I2
tp399
a(S'w'
I16
tp400
a(S'no_vo'
I0
tp401
a(S'w'
I1
tp402
a(S'no_np'
I2
tp403
a(S'no_ll'
I1
tp404
a(S'w'
I4369
tp405
a(S'w'
I1
tp406
a(S'p1_ll'
I1
tp407
a(S'w'
I15
tp408
a(S'tr_tl'
I125
tp409
a(S'tr_ll'
I1
tp410
a(S'tr_th'
I1
tp411
a(S'w'
I14
tp412
a(S'no_np'
I5
tp413
a(S'w'
I1
tp414
a(S'no_ll'
I1
tp415
a(S'w'
I4380
tp416
a(S'tr_tl'
I171
tp417
a(S'w'
I1
tp418
a(S'tr_ll'
I1
tp419
a(S'w'
I14
tp420
a(S'no_np'
I2
tp421
a(S'no_ll'
I1
tp422
a(S'w'
I4380
tp423
a(S'p1_tl'
I190
tp424
a(S'w'
I1
tp425
a(S'p1_ll'
I1
tp426
a(S'w'
I15
tp427
a(S'tr_tl'
I125
tp428
a(S'tr_ll'
I1
tp429
a(S'w'
I14
tp430
a(S'no_np'
I5
tp431
a(S'w'
I1
tp432
a(S'no_ll'
I1
tp433
a(S'w'
I4370
tp434
a(S'ch_no'
I1
tp435
a(S'ch_tr'
I1
tp436
a(S'ch_p2'
I0
tp437
a(S'ch_p1'
I0
tp438
a(S'w'
I17
tp439
a.