(lp1
(S'clock'
p2
I1789772
tp3
a(S'p1_lh'
I1
tp4
a(S'p1_cv'
I1
tp5
a(S'p1_sp'
I7
tp6
a(S'p1_sn'
I1
tp7
a(S'p1_ss'
I7
tp8
a(S'p1_ll'
I0
tp9
a(S'p2_lh'
I1
tp10
a(S'p2_cv'
I1
tp11
a(S'p2_sp'
I7
tp12
a(S'p2_sn'
I1
tp13
a(S'p2_ss'
I7
tp14
a(S'p2_ll'
I0
tp15
a(S'tr_lh'
I1
tp16
a(S'tr_ll'
I0
tp17
a(S'no_lh'
I1
tp18
a(S'no_cv'
I1
tp19
a(S'no_ll'
I0
tp20
a(S'ch_no'
I1
tp21
a(S'ch_tr'
I1
tp22
a(S'ch_p2'
I1
tp23
a(S'ch_p1'
I1
tp24
a(S'fc_mo'
I1
tp25
a(S'p1_vo'
I4
tp26
a(S'p1_tl'
I59
tp27
a(S'w'
I1
tp28
a(S'p1_ll'
I0
tp29
a(S'p1_th'
I2
tp30
a(S'p2_vo'
I4
tp31
a(S'w'
I1
tp32
a(S'p2_tl'
I250
tp33
a(S'p2_ll'
I0
tp34
a(S'p2_th'
I2
tp35
a(S'tr_lr'
I127
tp36
a(S'w'
I1
tp37
a(S'tr_tl'
I29
tp38
a(S'tr_ll'
I31
tp39
a(S'tr_th'
I1
tp40
a(S'w'
I730
tp41
a(S'p1_vo'
I6
tp42
a(S'w'
I1
tp43
a(S'p2_vo'
I6
tp44
a(S'w'
I733
tp45
a(S'p1_vo'
I8
tp46
a(S'w'
I1
tp47
a(S'p2_vo'
I8
tp48
a(S'w'
I733
tp49
a(S'p1_vo'
I9
tp50
a(S'w'
I1
tp51
a(S'p2_vo'
I9
tp52
a(S'w'
I8807
tp53
a(S'tr_tl'
I125
tp54
a(S'tr_ll'
I31
tp55
a(S'w'
I5134
tp56
a(S'p1_vo'
I8
tp57
a(S'w'
I1
tp58
a(S'p2_vo'
I8
tp59
a(S'w'
I733
tp60
a(S'p1_vo'
I7
tp61
a(S'w'
I1
tp62
a(S'p2_vo'
I7
tp63
a(S'w'
I733
tp64
a(S'p1_vo'
I6
tp65
a(S'w'
I1
tp66
a(S'p2_vo'
I6
tp67
a(S'w'
I733
tp68
a(S'p1_vo'
I5
tp69
a(S'w'
I1
tp70
a(S'p2_vo'
I5
tp71
a(S'w'
I733
tp72
a(S'p1_vo'
I4
tp73
a(S'p2_vo'
I4
tp74
a(S'w'
I733
tp75
a(S'p1_vo'
I3
tp76
a(S'w'
I1
tp77
a(S'p2_vo'
I3
tp78
a(S'w'
I733
tp79
a(S'p1_vo'
I2
tp80
a(S'w'
I1
tp81
a(S'p2_vo'
I2
tp82
a(S'w'
I733
tp83
a(S'p1_vo'
I1
tp84
a(S'w'
I1
tp85
a(S'p2_vo'
I1
tp86
a(S'w'
I733
tp87
a(S'p1_vo'
I0
tp88
a(S'p1_tl'
I0
tp89
a(S'w'
I1
tp90
a(S'p1_ll'
I0
tp91
a(S'p1_th'
I0
tp92
a(S'p2_vo'
I0
tp93
a(S'w'
I1
tp94
a(S'p2_tl'
I0
tp95
a(S'p2_ll'
I0
tp96
a(S'p2_th'
I0
tp97
a(S'w'
I1
tp98
a(S'tr_tl'
I254
tp99
a(S'tr_ll'
I31
tp100
a(S'tr_th'
I0
tp101
a(S'w'
I11004
tp102
a(S'p1_vo'
I4
tp103
a(S'p1_tl'
I59
tp104
a(S'w'
I1
tp105
a(S'p1_ll'
I0
tp106
a(S'p1_th'
I2
tp107
a(S'p2_vo'
I4
tp108
a(S'w'
I1
tp109
a(S'p2_tl'
I125
tp110
a(S'p2_ll'
I0
tp111
a(S'p2_th'
I1
tp112
a(S'w'
I1
tp113
a(S'tr_tl'
I226
tp114
a(S'tr_ll'
I31
tp115
a(S'w'
I731
tp116
a(S'p1_vo'
I6
tp117
a(S'p2_vo'
I6
tp118
a(S'w'
I733
tp119
a(S'p1_vo'
I8
tp120
a(S'w'
I1
tp121
a(S'p2_vo'
I8
tp122
a(S'w'
I733
tp123
a(S'p1_vo'
I9
tp124
a(S'w'
I1
tp125
a(S'p2_vo'
I9
tp126
a(S'w'
I2935
tp127
a(S'p2_vo'
I8
tp128
a(S'w'
I734
tp129
a(S'p2_vo'
I7
tp130
a(S'w'
I734
tp131
a(S'p2_vo'
I6
tp132
a(S'w'
I734
tp133
a(S'p2_vo'
I5
tp134
a(S'w'
I733
tp135
a(S'p2_vo'
I4
tp136
a(S'w'
I734
tp137
a(S'p2_vo'
I3
tp138
a(S'w'
I734
tp139
a(S'p2_vo'
I2
tp140
a(S'w'
I734
tp141
a(S'p2_vo'
I1
tp142
a(S'w'
I734
tp143
a(S'p2_vo'
I0
tp144
a(S'w'
I38156
tp145
a(S'p1_vo'
I8
tp146
a(S'w'
I734
tp147
a(S'p1_vo'
I7
tp148
a(S'w'
I734
tp149
a(S'p1_vo'
I6
tp150
a(S'w'
I734
tp151
a(S'p1_vo'
I5
tp152
a(S'w'
I734
tp153
a(S'p1_vo'
I4
tp154
a(S'w'
I733
tp155
a(S'p1_vo'
I3
tp156
a(S'w'
I734
tp157
a(S'p1_vo'
I2
tp158
a(S'w'
I734
tp159
a(S'p1_vo'
I1
tp160
a(S'w'
I736
tp161
a(S'p1_vo'
I0
tp162
a(S'w'
I1
tp163
a(S'tr_lr'
I0
tp164
a(S'w'
I734
tp165
a(S'p1_vo'
I8
tp166
a.