(lp1
(S'clock'
p2
I1789772
tp3
a(S'p1_lh'
I1
tp4
a(S'p1_cv'
I1
tp5
a(S'p1_sp'
I7
tp6
a(S'p1_sn'
I1
tp7
a(S'p1_ss'
I7
tp8
a(S'p1_ll'
I0
tp9
a(S'p2_lh'
I1
tp10
a(S'p2_cv'
I1
tp11
a(S'p2_sp'
I7
tp12
a(S'p2_sn'
I1
tp13
a(S'p2_ss'
I7
tp14
a(S'p2_tl'
I125
tp15
a(S'p2_ll'
I0
tp16
a(S'p2_th'
I1
tp17
a(S'tr_lh'
I1
tp18
a(S'tr_tl'
I252
tp19
a(S'tr_ll'
I31
tp20
a(S'tr_th'
I1
tp21
a(S'no_lh'
I1
tp22
a(S'no_cv'
I1
tp23
a(S'no_np'
I15
tp24
a(S'no_ll'
I0
tp25
a(S'ch_no'
I1
tp26
a(S'ch_tr'
I1
tp27
a(S'ch_p2'
I1
tp28
a(S'ch_p1'
I1
tp29
a(S'fc_mo'
I1
tp30
a(S'p1_du'
I1
tp31
a(S'p1_vo'
I6
tp32
a(S'w'
I1
tp33
a(S'p1_tl'
I59
tp34
a(S'p1_ll'
I0
tp35
a(S'p1_th'
I2
tp36
a(S'w'
I1
tp37
a(S'p2_du'
I1
tp38
a(S'p2_tl'
I0
tp39
a(S'p2_ll'
I0
tp40
a(S'p2_th'
I0
tp41
a(S'w'
I2
tp42
a(S'tr_tl'
I0
tp43
a(S'tr_ll'
I0
tp44
a(S'tr_th'
I0
tp45
a(S'w'
I730
tp46
a(S'p1_vo'
I8
tp47
a(S'w'
I734
tp48
a(S'p1_vo'
I10
tp49
a(S'w'
I734
tp50
a(S'p1_vo'
I12
tp51
a(S'w'
I1467
tp52
a(S'p1_vo'
I10
tp53
a(S'w'
I734
tp54
a(S'p1_vo'
I9
tp55
a(S'w'
I734
tp56
a(S'p1_vo'
I8
tp57
a(S'w'
I734
tp58
a(S'p1_vo'
I7
tp59
a(S'w'
I733
tp60
a(S'p1_vo'
I6
tp61
a(S'w'
I734
tp62
a(S'p1_vo'
I5
tp63
a(S'w'
I734
tp64
a(S'p1_vo'
I4
tp65
a(S'w'
I735
tp66
a(S'p2_vo'
I6
tp67
a(S'p2_tl'
I197
tp68
a(S'w'
I1
tp69
a(S'p2_ll'
I0
tp70
a(S'p2_th'
I1
tp71
a(S'w'
I732
tp72
a(S'p2_vo'
I8
tp73
a(S'w'
I734
tp74
a(S'p2_vo'
I10
tp75
a(S'w'
I734
tp76
a(S'p2_vo'
I12
tp77
a(S'w'
I1468
tp78
a(S'p2_vo'
I10
tp79
a(S'w'
I733
tp80
a(S'p2_vo'
I9
tp81
a(S'w'
I734
tp82
a(S'p2_vo'
I8
tp83
a(S'w'
I734
tp84
a(S'p2_vo'
I7
tp85
a(S'w'
I734
tp86
a(S'p2_vo'
I6
tp87
a(S'w'
I734
tp88
a(S'p2_vo'
I5
tp89
a(S'w'
I733
tp90
a(S'p2_vo'
I4
tp91
a(S'w'
I733
tp92
a(S'p1_vo'
I6
tp93
a(S'w'
I1
tp94
a(S'p1_tl'
I125
tp95
a(S'p1_ll'
I0
tp96
a(S'p1_th'
I1
tp97
a(S'w'
I733
tp98
a(S'p1_vo'
I8
tp99
a(S'w'
I734
tp100
a(S'p1_vo'
I10
tp101
a(S'w'
I734
tp102
a(S'p1_vo'
I12
tp103
a(S'w'
I1467
tp104
a(S'p1_vo'
I10
tp105
a(S'w'
I734
tp106
a(S'p1_vo'
I9
tp107
a(S'w'
I734
tp108
a(S'p1_vo'
I8
tp109
a(S'w'
I734
tp110
a(S'p1_vo'
I7
tp111
a(S'w'
I734
tp112
a(S'p1_vo'
I6
tp113
a(S'w'
I733
tp114
a(S'p1_vo'
I5
tp115
a(S'w'
I734
tp116
a(S'p1_vo'
I4
tp117
a(S'w'
I735
tp118
a(S'p2_vo'
I6
tp119
a(S'p2_tl'
I224
tp120
a(S'w'
I1
tp121
a(S'p2_ll'
I0
tp122
a(S'w'
I1
tp123
a(S'tr_ll'
I0
tp124
a(S'w'
I732
tp125
a(S'p2_vo'
I8
tp126
a(S'w'
I733
tp127
a(S'p2_vo'
I10
tp128
a(S'w'
I734
tp129
a(S'p2_vo'
I12
tp130
a(S'w'
I1468
tp131
a(S'p2_vo'
I10
tp132
a(S'w'
I734
tp133
a(S'p2_vo'
I9
tp134
a(S'w'
I733
tp135
a(S'p2_vo'
I8
tp136
a(S'w'
I734
tp137
a(S'p2_vo'
I7
tp138
a(S'w'
I734
tp139
a(S'p2_vo'
I6
tp140
a(S'w'
I734
tp141
a(S'p2_vo'
I5
tp142
a(S'w'
I734
tp143
a(S'p2_vo'
I4
tp144
a(S'w'
I733
tp145
a(S'p1_vo'
I6
tp146
a(S'w'
I1
tp147
a(S'p1_ll'
I0
tp148
a(S'w'
I732
tp149
a(S'p1_vo'
I8
tp150
a(S'w'
I734
tp151
a(S'p1_vo'
I10
tp152
a(S'w'
I734
tp153
a(S'p1_vo'
I12
tp154
a(S'w'
I1468
tp155
a(S'p1_vo'
I10
tp156
a(S'w'
I733
tp157
a(S'p1_vo'
I9
tp158
a(S'w'
I734
tp159
a(S'p1_vo'
I8
tp160
a(S'w'
I734
tp161
a(S'p1_vo'
I7
tp162
a(S'w'
I734
tp163
a(S'p1_vo'
I6
tp164
a(S'w'
I734
tp165
a(S'p1_vo'
I5
tp166
a(S'w'
I733
tp167
a(S'p1_vo'
I4
tp168
a(S'w'
I735
tp169
a(S'p2_vo'
I6
tp170
a(S'w'
I1
tp171
a(S'p2_tl'
I64
tp172
a(S'p2_ll'
I0
tp173
a(S'w'
I733
tp174
a(S'p2_vo'
I8
tp175
a(S'w'
I734
tp176
a(S'p2_vo'
I10
tp177
a(S'w'
I734
tp178
a(S'p2_vo'
I12
tp179
a(S'w'
I1467
tp180
a(S'p2_vo'
I10
tp181
a(S'w'
I734
tp182
a(S'p2_vo'
I9
tp183
a(S'w'
I734
tp184
a(S'p2_vo'
I8
tp185
a(S'w'
I734
tp186
a(S'p2_vo'
I7
tp187
a(S'w'
I733
tp188
a(S'p2_vo'
I6
tp189
a(S'w'
I734
tp190
a(S'p2_vo'
I5
tp191
a(S'w'
I734
tp192
a(S'p2_vo'
I4
tp193
a(S'w'
I733
tp194
a(S'p1_vo'
I6
tp195
a(S'w'
I1
tp196
a(S'p1_tl'
I147
tp197
a(S'p1_ll'
I0
tp198
a(S'w'
I2
tp199
a(S'tr_ll'
I0
tp200
a(S'w'
I731
tp201
a(S'p1_vo'
I8
tp202
a(S'w'
I733
tp203
a(S'p1_vo'
I10
tp204
a(S'w'
I734
tp205
a(S'p1_vo'
I12
tp206
a(S'w'
I1468
tp207
a(S'p1_vo'
I10
tp208
a(S'w'
I734
tp209
a(S'p1_vo'
I9
tp210
a(S'w'
I733
tp211
a(S'p1_vo'
I8
tp212
a(S'w'
I734
tp213
a(S'p1_vo'
I7
tp214
a(S'w'
I734
tp215
a(S'p1_vo'
I6
tp216
a(S'w'
I734
tp217
a(S'p1_vo'
I5
tp218
a(S'w'
I734
tp219
a(S'p1_vo'
I4
tp220
a(S'w'
I734
tp221
a(S'p2_vo'
I6
tp222
a(S'w'
I1
tp223
a(S'p2_ll'
I0
tp224
a(S'w'
I733
tp225
a(S'p2_vo'
I8
tp226
a(S'w'
I734
tp227
a(S'p2_vo'
I10
tp228
a(S'w'
I734
tp229
a(S'p2_vo'
I12
tp230
a(S'w'
I1467
tp231
a(S'p2_vo'
I10
tp232
a(S'w'
I734
tp233
a(S'p2_vo'
I9
tp234
a(S'w'
I734
tp235
a(S'p2_vo'
I8
tp236
a(S'w'
I734
tp237
a(S'p2_vo'
I7
tp238
a(S'w'
I734
tp239
a(S'p2_vo'
I6
tp240
a(S'w'
I733
tp241
a(S'p2_vo'
I5
tp242
a(S'w'
I734
tp243
a(S'p2_vo'
I4
tp244
a(S'w'
I733
tp245
a(S'p1_vo'
I6
tp246
a(S'w'
I1
tp247
a(S'p1_tl'
I13
tp248
a(S'p1_ll'
I0
tp249
a(S'w'
I733
tp250
a(S'p1_vo'
I8
tp251
a(S'w'
I734
tp252
a(S'p1_vo'
I10
tp253
a(S'w'
I733
tp254
a(S'p1_vo'
I12
tp255
a(S'w'
I1468
tp256
a(S'p1_vo'
I10
tp257
a(S'w'
I734
tp258
a(S'p1_vo'
I9
tp259
a(S'w'
I734
tp260
a(S'p1_vo'
I8
tp261
a(S'w'
I733
tp262
a(S'p1_vo'
I7
tp263
a(S'w'
I734
tp264
a(S'p1_vo'
I6
tp265
a(S'w'
I734
tp266
a(S'p1_vo'
I5
tp267
a(S'w'
I734
tp268
a(S'p1_vo'
I4
tp269
a(S'w'
I735
tp270
a(S'p2_vo'
I6
tp271
a(S'p2_tl'
I83
tp272
a(S'p2_ll'
I0
tp273
a(S'w'
I2
tp274
a(S'tr_ll'
I0
tp275
a(S'w'
I731
tp276
a(S'p2_vo'
I8
tp277
a(S'w'
I734
tp278
a(S'p2_vo'
I10
tp279
a(S'w'
I734
tp280
a(S'p2_vo'
I12
tp281
a(S'w'
I1468
tp282
a(S'p2_vo'
I10
tp283
a(S'w'
I733
tp284
a(S'p2_vo'
I9
tp285
a(S'w'
I734
tp286
a(S'p2_vo'
I8
tp287
a(S'w'
I734
tp288
a(S'p2_vo'
I7
tp289
a(S'w'
I734
tp290
a(S'p2_vo'
I6
tp291
a(S'w'
I734
tp292
a(S'p2_vo'
I5
tp293
a(S'w'
I733
tp294
a(S'p2_vo'
I4
tp295
a(S'w'
I733
tp296
a(S'p1_vo'
I6
tp297
a(S'w'
I1
tp298
a(S'p1_ll'
I0
tp299
a(S'w'
I733
tp300
a(S'p1_vo'
I8
tp301
a(S'w'
I734
tp302
a(S'p1_vo'
I10
tp303
a(S'w'
I734
tp304
a(S'p1_vo'
I12
tp305
a(S'w'
I1467
tp306
a(S'p1_vo'
I10
tp307
a(S'w'
I734
tp308
a(S'p1_vo'
I9
tp309
a(S'w'
I734
tp310
a(S'p1_vo'
I8
tp311
a(S'w'
I734
tp312
a(S'p1_vo'
I7
tp313
a(S'w'
I734
tp314
a(S'p1_vo'
I6
tp315
a(S'w'
I733
tp316
a(S'p1_vo'
I5
tp317
a(S'w'
I734
tp318
a(S'p1_vo'
I4
tp319
a(S'w'
I735
tp320
a(S'p2_vo'
I6
tp321
a(S'p2_tl'
I226
tp322
a(S'w'
I1
tp323
a(S'p2_ll'
I0
tp324
a(S'p2_th'
I0
tp325
a(S'w'
I733
tp326
a(S'p2_vo'
I8
tp327
a(S'w'
I733
tp328
a(S'p2_vo'
I10
tp329
a(S'w'
I734
tp330
a(S'p2_vo'
I12
tp331
a(S'w'
I1468
tp332
a(S'p2_vo'
I10
tp333
a(S'w'
I734
tp334
a(S'p2_vo'
I9
tp335
a(S'w'
I733
tp336
a(S'p2_vo'
I8
tp337
a(S'w'
I734
tp338
a(S'p2_vo'
I7
tp339
a(S'w'
I734
tp340
a(S'p2_vo'
I6
tp341
a(S'w'
I734
tp342
a(S'p2_vo'
I5
tp343
a(S'w'
I734
tp344
a(S'p2_vo'
I4
tp345
a(S'w'
I733
tp346
a(S'p1_vo'
I6
tp347
a(S'p1_tl'
I29
tp348
a(S'p1_ll'
I0
tp349
a(S'w'
I3
tp350
a(S'tr_ll'
I0
tp351
a(S'w'
I730
tp352
a(S'p1_vo'
I8
tp353
a(S'w'
I734
tp354
a(S'p1_vo'
I10
tp355
a(S'w'
I734
tp356
a(S'p1_vo'
I12
tp357
a(S'w'
I1468
tp358
a(S'p1_vo'
I10
tp359
a(S'w'
I733
tp360
a(S'p1_vo'
I9
tp361
a(S'w'
I734
tp362
a(S'p1_vo'
I8
tp363
a(S'w'
I734
tp364
a(S'p1_vo'
I7
tp365
a(S'w'
I734
tp366
a(S'p1_vo'
I6
tp367
a(S'w'
I734
tp368
a(S'p1_vo'
I5
tp369
a(S'w'
I733
tp370
a(S'p1_vo'
I4
tp371
a(S'w'
I735
tp372
a(S'p2_vo'
I6
tp373
a(S'w'
I1
tp374
a(S'p2_ll'
I0
tp375
a(S'w'
I733
tp376
a(S'p2_vo'
I8
tp377
a(S'w'
I734
tp378
a(S'p2_vo'
I10
tp379
a(S'w'
I733
tp380
a(S'p2_vo'
I12
tp381
a(S'w'
I1468
tp382
a(S'p2_vo'
I10
tp383
a(S'w'
I734
tp384
a(S'p2_vo'
I9
tp385
a(S'w'
I734
tp386
a(S'p2_vo'
I8
tp387
a(S'w'
I733
tp388
a(S'p2_vo'
I7
tp389
a(S'w'
I734
tp390
a(S'p2_vo'
I6
tp391
a(S'w'
I734
tp392
a(S'p2_vo'
I5
tp393
a(S'w'
I734
tp394
a(S'p2_vo'
I4
tp395
a(S'w'
I733
tp396
a(S'p1_vo'
I6
tp397
a(S'p1_tl'
I190
tp398
a(S'w'
I1
tp399
a(S'p1_ll'
I0
tp400
a(S'p1_th'
I0
tp401
a(S'w'
I733
tp402
a(S'p1_vo'
I8
tp403
a(S'w'
I733
tp404
a(S'p1_vo'
I10
tp405
a(S'w'
I734
tp406
a(S'p1_vo'
I12
tp407
a(S'w'
I1468
tp408
a(S'p1_vo'
I10
tp409
a(S'w'
I734
tp410
a(S'p1_vo'
I9
tp411
a(S'w'
I733
tp412
a(S'p1_vo'
I8
tp413
a(S'w'
I734
tp414
a(S'p1_vo'
I7
tp415
a(S'w'
I734
tp416
a(S'p1_vo'
I6
tp417
a(S'w'
I734
tp418
a(S'p1_vo'
I5
tp419
a(S'w'
I734
tp420
a(S'p1_vo'
I4
tp421
a(S'w'
I733
tp422
a(S'p1_vo'
I10
tp423
a(S'w'
I1
tp424
a(S'p1_ll'
I0
tp425
a(S'w'
I1
tp426
a(S'p2_vo'
I10
tp427
a(S'w'
I1
tp428
a(S'p2_ll'
I0
tp429
a(S'tr_lh'
I0
tp430
a(S'tr_lr'
I16
tp431
a(S'w'
I1
tp432
a(S'tr_tl'
I29
tp433
a(S'tr_ll'
I31
tp434
a(S'tr_th'
I1
tp435
a(S'w'
I730
tp436
a(S'p1_vo'
I11
tp437
a(S'w'
I1
tp438
a(S'p2_vo'
I11
tp439
a(S'w'
I733
tp440
a(S'p1_vo'
I12
tp441
a(S'w'
I1
tp442
a(S'p2_vo'
I12
tp443
a(S'w'
I733
tp444
a(S'p1_vo'
I10
tp445
a(S'w'
I1
tp446
a(S'p2_vo'
I10
tp447
a(S'w'
I733
tp448
a(S'p1_vo'
I8
tp449
a(S'w'
I1
tp450
a(S'p2_vo'
I8
tp451
a(S'w'
I732
tp452
a(S'p1_vo'
I5
tp453
a(S'w'
I1
tp454
a(S'p2_vo'
I5
tp455
a(S'w'
I733
tp456
a(S'p1_vo'
I2
tp457
a(S'w'
I1
tp458
a(S'p2_vo'
I2
tp459
a(S'w'
I733
tp460
a(S'p1_vo'
I0
tp461
a(S'w'
I1
tp462
a(S'p2_vo'
I0
tp463
a(S'w'
I3668
tp464
a(S'p1_vo'
I10
tp465
a(S'w'
I1
tp466
a(S'p1_ll'
I0
tp467
a(S'p2_vo'
I10
tp468
a(S'w'
I1
tp469
a(S'p2_ll'
I0
tp470
a(S'w'
I2
tp471
a(S'tr_ll'
I31
tp472
a(S'w'
I730
tp473
a(S'p1_vo'
I11
tp474
a(S'w'
I1
tp475
a(S'p2_vo'
I11
tp476
a(S'w'
I733
tp477
a(S'p1_vo'
I12
tp478
a(S'p2_vo'
I12
tp479
a(S'w'
I733
tp480
a(S'p1_vo'
I10
tp481
a(S'w'
I1
tp482
a(S'p2_vo'
I10
tp483
a(S'w'
I733
tp484
a(S'p1_vo'
I8
tp485
a(S'w'
I1
tp486
a(S'p2_vo'
I8
tp487
a(S'w'
I733
tp488
a(S'p1_vo'
I5
tp489
a(S'w'
I1
tp490
a(S'p2_vo'
I5
tp491
a(S'w'
I733
tp492
a(S'p1_vo'
I10
tp493
a(S'w'
I1
tp494
a(S'p1_ll'
I0
tp495
a(S'p2_vo'
I10
tp496
a(S'w'
I1
tp497
a(S'p2_ll'
I0
tp498
a(S'w'
I1
tp499
a(S'tr_ll'
I31
tp500
a(S'w'
I731
tp501
a(S'p1_vo'
I11
tp502
a(S'p2_vo'
I11
tp503
a(S'w'
I733
tp504
a(S'p1_vo'
I12
tp505
a(S'w'
I1
tp506
a(S'p2_vo'
I12
tp507
a(S'w'
I733
tp508
a(S'p1_vo'
I10
tp509
a(S'w'
I1
tp510
a(S'p2_vo'
I10
tp511
a(S'w'
I733
tp512
a(S'p1_vo'
I8
tp513
a(S'w'
I1
tp514
a(S'p2_vo'
I8
tp515
a(S'w'
I733
tp516
a(S'p1_vo'
I5
tp517
a(S'w'
I1
tp518
a(S'p2_vo'
I5
tp519
a(S'w'
I733
tp520
a(S'p1_vo'
I10
tp521
a(S'w'
I1
tp522
a(S'p1_ll'
I0
tp523
a(S'p2_vo'
I10
tp524
a(S'w'
I1
tp525
a(S'p2_ll'
I0
tp526
a(S'w'
I1
tp527
a(S'tr_ll'
I31
tp528
a(S'w'
I730
tp529
a(S'p1_vo'
I11
tp530
a(S'w'
I1
tp531
a(S'p2_vo'
I11
tp532
a(S'w'
I733
tp533
a(S'p1_vo'
I12
tp534
a(S'w'
I1
tp535
a(S'p2_vo'
I12
tp536
a(S'w'
I733
tp537
a(S'p1_vo'
I10
tp538
a(S'w'
I1
tp539
a(S'p2_vo'
I10
tp540
a(S'w'
I733
tp541
a(S'p1_vo'
I8
tp542
a(S'w'
I1
tp543
a(S'p2_vo'
I8
tp544
a(S'w'
I733
tp545
a(S'p1_vo'
I5
tp546
a(S'w'
I1
tp547
a(S'p2_vo'
I5
tp548
a(S'w'
I732
tp549
a(S'p1_vo'
I2
tp550
a(S'w'
I1
tp551
a(S'p2_vo'
I2
tp552
a(S'w'
I733
tp553
a(S'p1_vo'
I0
tp554
a(S'w'
I1
tp555
a(S'p2_vo'
I0
tp556
a(S'w'
I3668
tp557
a(S'p1_vo'
I12
tp558
a(S'w'
I1
tp559
a(S'p1_tl'
I169
tp560
a(S'p1_ll'
I0
tp561
a(S'w'
I1
tp562
a(S'p2_vo'
I12
tp563
a(S'w'
I1
tp564
a(S'p2_ll'
I0
tp565
a(S'tr_lr'
I28
tp566
a(S'w'
I1
tp567
a(S'tr_ll'
I31
tp568
a(S'w'
I730
tp569
a(S'p1_vo'
I11
tp570
a(S'w'
I1
tp571
a(S'p2_vo'
I11
tp572
a(S'w'
I733
tp573
a(S'p1_vo'
I10
tp574
a(S'w'
I1
tp575
a(S'p2_vo'
I10
tp576
a(S'w'
I733
tp577
a(S'p1_vo'
I9
tp578
a(S'w'
I1
tp579
a(S'p2_vo'
I9
tp580
a(S'w'
I732
tp581
a(S'p1_vo'
I8
tp582
a(S'w'
I1
tp583
a(S'p2_vo'
I8
tp584
a(S'w'
I733
tp585
a(S'p1_vo'
I7
tp586
a(S'w'
I1
tp587
a(S'p2_vo'
I7
tp588
a(S'w'
I733
tp589
a(S'p1_vo'
I6
tp590
a(S'w'
I1
tp591
a(S'p2_vo'
I6
tp592
a(S'w'
I733
tp593
a(S'p1_vo'
I5
tp594
a(S'w'
I1
tp595
a(S'p2_vo'
I5
tp596
a(S'w'
I733
tp597
a(S'p1_vo'
I4
tp598
a(S'w'
I1
tp599
a(S'p2_vo'
I4
tp600
a(S'w'
I732
tp601
a(S'p1_vo'
I3
tp602
a(S'w'
I1
tp603
a(S'p2_vo'
I3
tp604
a(S'w'
I733
tp605
a(S'p1_vo'
I2
tp606
a(S'w'
I1
tp607
a(S'p2_vo'
I2
tp608
a(S'w'
I733
tp609
a(S'p1_vo'
I1
tp610
a(S'w'
I1
tp611
a(S'p2_vo'
I1
tp612
a(S'w'
I733
tp613
a(S'p1_vo'
I12
tp614
a(S'p1_tl'
I190
tp615
a(S'w'
I1
tp616
a(S'p1_ll'
I0
tp617
a(S'p2_vo'
I12
tp618
a(S'w'
I1
tp619
a(S'p2_ll'
I0
tp620
a(S'w'
I2
tp621
a(S'tr_ll'
I31
tp622
a(S'w'
I730
tp623
a(S'p1_vo'
I11
tp624
a(S'w'
I1
tp625
a(S'p2_vo'
I11
tp626
a(S'w'
I732
tp627
a(S'p1_vo'
I10
tp628
a(S'w'
I1
tp629
a(S'p2_vo'
I10
tp630
a(S'w'
I733
tp631
a(S'p1_vo'
I9
tp632
a(S'w'
I1
tp633
a(S'p2_vo'
I9
tp634
a(S'w'
I733
tp635
a(S'p1_vo'
I8
tp636
a(S'w'
I1
tp637
a(S'p2_vo'
I8
tp638
a(S'w'
I733
tp639
a(S'p1_vo'
I7
tp640
a(S'w'
I1
tp641
a(S'p2_vo'
I7
tp642
a(S'w'
I733
tp643
a(S'p1_vo'
I6
tp644
a(S'w'
I1
tp645
a(S'p2_vo'
I6
tp646
a(S'w'
I732
tp647
a(S'p1_vo'
I5
tp648
a(S'w'
I1
tp649
a(S'p2_vo'
I5
tp650
a(S'w'
I733
tp651
a(S'p1_vo'
I4
tp652
a(S'w'
I1
tp653
a(S'p2_vo'
I4
tp654
a(S'w'
I733
tp655
a(S'p1_vo'
I3
tp656
a(S'w'
I1
tp657
a(S'p2_vo'
I3
tp658
a(S'w'
I733
tp659
a(S'p1_vo'
I2
tp660
a(S'w'
I1
tp661
a(S'p2_vo'
I2
tp662
a(S'w'
I733
tp663
a(S'p1_vo'
I1
tp664
a(S'w'
I1
tp665
a(S'p2_vo'
I1
tp666
a(S'w'
I732
tp667
a(S'p1_vo'
I12
tp668
a(S'w'
I1
tp669
a(S'p1_tl'
I169
tp670
a(S'p1_ll'
I0
tp671
a(S'w'
I1
tp672
a(S'p2_vo'
I12
tp673
a(S'w'
I1
tp674
a(S'p2_ll'
I0
tp675
a(S'w'
I1
tp676
a(S'tr_ll'
I31
tp677
a(S'w'
I730
tp678
a(S'p1_vo'
I11
tp679
a(S'w'
I1
tp680
a(S'p2_vo'
I11
tp681
a(S'w'
I733
tp682
a(S'p1_vo'
I10
tp683
a(S'w'
I1
tp684
a(S'p2_vo'
I10
tp685
a(S'w'
I733
tp686
a(S'p1_vo'
I9
tp687
a(S'w'
I1
tp688
a(S'p2_vo'
I9
tp689
a(S'w'
I733
tp690
a(S'p1_vo'
I8
tp691
a(S'w'
I1
tp692
a(S'p2_vo'
I8
tp693
a(S'w'
I732
tp694
a(S'p1_vo'
I7
tp695
a(S'w'
I1
tp696
a(S'p2_vo'
I7
tp697
a(S'w'
I733
tp698
a(S'p1_vo'
I6
tp699
a(S'w'
I1
tp700
a(S'p2_vo'
I6
tp701
a(S'w'
I733
tp702
a(S'p1_vo'
I5
tp703
a(S'w'
I1
tp704
a(S'p2_vo'
I5
tp705
a(S'w'
I733
tp706
a(S'p1_vo'
I4
tp707
a(S'w'
I1
tp708
a(S'p2_vo'
I4
tp709
a(S'w'
I733
tp710
a(S'p1_vo'
I3
tp711
a(S'w'
I1
tp712
a(S'p2_vo'
I3
tp713
a(S'w'
I733
tp714
a(S'p1_vo'
I2
tp715
a(S'p2_vo'
I2
tp716
a(S'w'
I733
tp717
a(S'p1_vo'
I1
tp718
a(S'w'
I1
tp719
a(S'p2_vo'
I1
tp720
a(S'w'
I733
tp721
a(S'p1_vo'
I12
tp722
a(S'w'
I1
tp723
a(S'p1_tl'
I151
tp724
a(S'p1_ll'
I0
tp725
a(S'p2_vo'
I12
tp726
a(S'w'
I1
tp727
a(S'p2_tl'
I179
tp728
a(S'p2_ll'
I0
tp729
a(S'w'
I1
tp730
a(S'tr_lr'
I16
tp731
a(S'tr_tl'
I89
tp732
a(S'w'
I1
tp733
a(S'tr_ll'
I31
tp734
a(S'tr_th'
I0
tp735
a(S'w'
I4401
tp736
a(S'tr_tl'
I113
tp737
a(S'w'
I1
tp738
a(S'tr_ll'
I31
tp739
a(S'w'
I4402
tp740
a(S'tr_tl'
I151
tp741
a(S'tr_ll'
I31
tp742
a(S'w'
I4403
tp743
a(S'tr_tl'
I113
tp744
a(S'tr_ll'
I31
tp745
a(S'w'
I4403
tp746
a(S'tr_tl'
I151
tp747
a(S'tr_ll'
I31
tp748
a(S'w'
I4403
tp749
a(S'tr_tl'
I179
tp750
a(S'tr_ll'
I31
tp751
a(S'w'
I4402
tp752
a(S'tr_lh'
I1
tp753
a(S'tr_lr'
I15
tp754
a(S'tr_tl'
I226
tp755
a(S'w'
I1
tp756
a(S'tr_ll'
I31
tp757
a(S'w'
I13939
tp758
a(S'p1_vo'
I11
tp759
a(S'w'
I1
tp760
a(S'p2_vo'
I11
tp761
a(S'w'
I733
tp762
a(S'p1_vo'
I10
tp763
a(S'w'
I1
tp764
a(S'p2_vo'
I10
tp765
a(S'w'
I733
tp766
a(S'p1_vo'
I9
tp767
a(S'w'
I1
tp768
a(S'p2_vo'
I9
tp769
a(S'w'
I733
tp770
a(S'p1_vo'
I8
tp771
a(S'w'
I1
tp772
a(S'p2_vo'
I8
tp773
a(S'w'
I732
tp774
a(S'p1_vo'
I7
tp775
a(S'w'
I1
tp776
a(S'p2_vo'
I7
tp777
a(S'w'
I733
tp778
a(S'p1_vo'
I6
tp779
a(S'w'
I1
tp780
a(S'p2_vo'
I6
tp781
a(S'w'
I1
tp782
a(S'tr_lr'
I0
tp783
a(S'w'
I1
tp784
a(S'tr_tl'
I0
tp785
a(S'tr_ll'
I0
tp786
a(S'w'
I731
tp787
a(S'p1_vo'
I5
tp788
a(S'w'
I1
tp789
a(S'p2_vo'
I5
tp790
a(S'w'
I733
tp791
a(S'p1_vo'
I4
tp792
a(S'w'
I1
tp793
a(S'p2_vo'
I4
tp794
a(S'w'
I733
tp795
a(S'p1_vo'
I3
tp796
a(S'p2_vo'
I3
tp797
a(S'w'
I733
tp798
a(S'p1_vo'
I2
tp799
a(S'w'
I1
tp800
a(S'p2_vo'
I2
tp801
a(S'w'
I733
tp802
a(S'p1_vo'
I1
tp803
a(S'w'
I1
tp804
a(S'p2_vo'
I1
tp805
a(S'w'
I733
tp806
a(S'p1_vo'
I0
tp807
a(S'w'
I1
tp808
a(S'p1_tl'
I0
tp809
a(S'p1_ll'
I0
tp810
a(S'p2_vo'
I0
tp811
a(S'w'
I1
tp812
a(S'p2_tl'
I0
tp813
a(S'p2_ll'
I0
tp814
a(S'w'
I1
tp815
a.