(lp1
(S'clock'
p2
I1789772
tp3
a(S'p1_lh'
I1
tp4
a(S'p1_cv'
I1
tp5
a(S'p1_sp'
I3
tp6
a(S'p2_lh'
I1
tp7
a(S'p2_cv'
I1
tp8
a(S'p2_sp'
I3
tp9
a(S'w'
I26
tp10
a(S'p2_du'
I3
tp11
a(S'p2_vo'
I5
tp12
a(S'w'
I6
tp13
a(S'p2_ll'
I1
tp14
a(S'w'
I2
tp15
a(S'p2_tl'
I213
tp16
a(S'w'
I11
tp17
a(S'tr_lr'
I48
tp18
a(S'w'
I4
tp19
a(S'tr_ll'
I1
tp20
a(S'w'
I3
tp21
a(S'tr_tl'
I254
tp22
a(S'w'
I692
tp23
a(S'p2_vo'
I4
tp24
a(S'w'
I734
tp25
a(S'p2_vo'
I3
tp26
a(S'w'
I734
tp27
a(S'p1_du'
I3
tp28
a(S'p1_vo'
I5
tp29
a(S'w'
I6
tp30
a(S'p1_ll'
I1
tp31
a(S'w'
I2
tp32
a(S'p1_tl'
I214
tp33
a(S'w'
I723
tp34
a(S'p1_vo'
I4
tp35
a(S'w'
I733
tp36
a(S'p1_vo'
I3
tp37
a(S'w'
I6609
tp38
a(S'p2_vo'
I2
tp39
a(S'w'
I733
tp40
a(S'p2_vo'
I1
tp41
a(S'w'
I738
tp42
a(S'p2_vo'
I5
tp43
a(S'w'
I6
tp44
a(S'p2_tl'
I226
tp45
a(S'w'
I13
tp46
a(S'tr_ll'
I1
tp47
a(S'w'
I707
tp48
a(S'p1_vo'
I2
tp49
a(S'w'
I7
tp50
a(S'p2_vo'
I4
tp51
a(S'w'
I727
tp52
a(S'p1_vo'
I1
tp53
a(S'w'
I7
tp54
a(S'p2_vo'
I3
tp55
a(S'w'
I731
tp56
a(S'p1_vo'
I5
tp57
a(S'w'
I6
tp58
a(S'p1_tl'
I227
tp59
a(S'w'
I723
tp60
a(S'p1_vo'
I4
tp61
a(S'w'
I734
tp62
a(S'p1_vo'
I3
tp63
a(S'w'
I6608
tp64
a(S'p2_vo'
I2
tp65
a(S'w'
I734
tp66
a(S'p2_vo'
I1
tp67
a(S'w'
I738
tp68
a(S'p2_vo'
I5
tp69
a(S'w'
I7
tp70
a(S'p2_tl'
I213
tp71
a(S'w'
I15
tp72
a(S'tr_ll'
I1
tp73
a(S'w'
I2
tp74
a(S'tr_tl'
I169
tp75
a(S'w'
I702
tp76
a(S'p1_vo'
I2
tp77
a(S'w'
I7
tp78
a(S'p2_vo'
I4
tp79
a(S'w'
I726
tp80
a(S'p1_vo'
I1
tp81
a(S'w'
I7
tp82
a(S'p2_vo'
I3
tp83
a(S'w'
I731
tp84
a(S'p1_vo'
I5
tp85
a(S'w'
I7
tp86
a(S'p1_tl'
I214
tp87
a(S'w'
I723
tp88
a(S'p1_vo'
I4
tp89
a(S'w'
I734
tp90
a(S'p1_vo'
I3
tp91
a(S'w'
I6608
tp92
a(S'p2_vo'
I2
tp93
a(S'w'
I734
tp94
a(S'p2_vo'
I1
tp95
a(S'w'
I740
tp96
a(S'p2_vo'
I3
tp97
a(S'w'
I5
tp98
a(S'p2_ll'
I1
tp99
a(S'p2_th'
I1
tp100
a(S'w'
I2
tp101
a(S'p2_tl'
I83
tp102
a(S'w'
I11
tp103
a(S'tr_lh'
I1
tp104
a(S'tr_lr'
I16
tp105
a(S'w'
I6
tp106
a(S'tr_ll'
I1
tp107
a(S'w'
I2
tp108
a(S'tr_tl'
I127
tp109
a(S'w'
I697
tp110
a(S'p1_vo'
I2
tp111
a(S'w'
I734
tp112
a(S'p1_vo'
I1
tp113
a(S'w'
I739
tp114
a(S'p1_vo'
I5
tp115
a(S'w'
I5
tp116
a(S'p1_ll'
I1
tp117
a(S'p1_th'
I1
tp118
a(S'w'
I2
tp119
a(S'p1_tl'
I84
tp120
a(S'w'
I722
tp121
a(S'p1_vo'
I4
tp122
a(S'w'
I733
tp123
a(S'p1_vo'
I3
tp124
a(S'w'
I8079
tp125
a(S'p2_vo'
I2
tp126
a(S'w'
I6
tp127
a(S'w'
I5865
tp128
a(S'p2_vo'
I1
tp129
a(S'w'
I6
tp130
a(S'w'
I5865
tp131
a(S'p2_vo'
I5
tp132
a(S'w'
I6
tp133
a(S'w'
I720
tp134
a(S'p1_vo'
I2
tp135
a(S'w'
I7
tp136
a(S'p2_vo'
I4
tp137
a(S'w'
I726
tp138
a(S'p1_vo'
I1
tp139
a(S'w'
I7
tp140
a(S'p2_vo'
I3
tp141
a(S'w'
I729
tp142
a(S'p1_vo'
I5
tp143
a(S'w'
I6
tp144
a(S'w'
I726
tp145
a(S'p1_vo'
I4
tp146
a(S'w'
I734
tp147
a(S'p1_vo'
I3
tp148
a(S'w'
I6608
tp149
a(S'p2_vo'
I2
tp150
a(S'w'
I734
tp151
a(S'p2_vo'
I1
tp152
a(S'w'
I736
tp153
a(S'p2_vo'
I5
tp154
a(S'w'
I6
tp155
a(S'p2_tl'
I64
tp156
a(S'w'
I721
tp157
a(S'p1_vo'
I2
tp158
a(S'w'
I7
tp159
a(S'p2_vo'
I4
tp160
a(S'w'
I727
tp161
a(S'p1_vo'
I1
tp162
a(S'w'
I7
tp163
a(S'p2_vo'
I3
tp164
a(S'w'
I729
tp165
a(S'p1_vo'
I5
tp166
a(S'w'
I6
tp167
a(S'p1_tl'
I65
tp168
a(S'w'
I726
tp169
a(S'p1_vo'
I4
tp170
a(S'w'
I733
tp171
a(S'p1_vo'
I3
tp172
a(S'w'
I6609
tp173
a(S'p2_vo'
I2
tp174
a(S'w'
I733
tp175
a(S'p2_vo'
I1
tp176
a(S'w'
I736
tp177
a(S'p2_vo'
I5
tp178
a(S'w'
I6
tp179
a(S'p2_tl'
I29
tp180
a(S'w'
I722
tp181
a(S'p1_vo'
I2
tp182
a(S'w'
I7
tp183
a(S'p2_vo'
I4
tp184
a(S'w'
I727
tp185
a(S'p1_vo'
I1
tp186
a(S'w'
I7
tp187
a(S'p2_vo'
I3
tp188
a(S'w'
I729
tp189
a(S'p1_vo'
I5
tp190
a(S'w'
I6
tp191
a(S'p1_tl'
I30
tp192
a(S'w'
I725
tp193
a(S'p1_vo'
I4
tp194
a(S'w'
I734
tp195
a(S'p1_vo'
I3
tp196
a(S'w'
I6608
tp197
a(S'p2_vo'
I2
tp198
a(S'w'
I734
tp199
a(S'p2_vo'
I1
tp200
a(S'w'
I737
tp201
a(S'p2_vo'
I5
tp202
a(S'w'
I6
tp203
a(S'w'
I11
tp204
a(S'tr_lh'
I0
tp205
a(S'tr_lr'
I48
tp206
a(S'w'
I4
tp207
a(S'tr_ll'
I1
tp208
a(S'tr_th'
I1
tp209
a(S'w'
I3
tp210
a(S'tr_tl'
I64
tp211
a(S'w'
I703
tp212
a(S'p1_vo'
I2
tp213
a(S'w'
I7
tp214
a(S'p2_vo'
I4
tp215
a(S'w'
I726
tp216
a(S'p1_vo'
I1
tp217
a(S'w'
I7
tp218
a(S'p2_vo'
I3
tp219
a(S'w'
I730
tp220
a(S'p1_vo'
I5
tp221
a(S'w'
I6
tp222
a(S'w'
I725
tp223
a(S'p1_vo'
I4
tp224
a(S'w'
I734
tp225
a(S'p1_vo'
I3
tp226
a(S'w'
I8086
tp227
a(S'tr_ll'
I1
tp228
a(S'w'
I11743
tp229
a(S'tr_ll'
I1
tp230
a(S'tr_th'
I0
tp231
a(S'w'
I2
tp232
a(S'tr_tl'
I213
tp233
a(S'w'
I10258
tp234
a(S'p2_vo'
I2
tp235
a(S'w'
I734
tp236
a(S'p2_vo'
I1
tp237
a(S'w'
I739
tp238
a(S'p2_vo'
I3
tp239
a(S'w'
I5
tp240
a(S'p2_ll'
I1
tp241
a(S'p2_th'
I0
tp242
a(S'w'
I2
tp243
a(S'p2_tl'
I254
tp244
a(S'w'
I10
tp245
a(S'tr_lh'
I1
tp246
a(S'tr_lr'
I16
tp247
a(S'w'
I5
tp248
a(S'tr_ll'
I1
tp249
a(S'w'
I2
tp250
a(S'tr_tl'
I160
tp251
a(S'w'
I701
tp252
a(S'p1_vo'
I2
tp253
a(S'w'
I733
tp254
a(S'p1_vo'
I1
tp255
a(S'w'
I739
tp256
a(S'p1_vo'
I3
tp257
a(S'w'
I5
tp258
a(S'p1_ll'
I1
tp259
a(S'p1_th'
I0
tp260
a(S'w'
I2
tp261
a(S'p1_tl'
I255
tp262
a(S'w'
I33017
tp263
a(S'p2_vo'
I2
tp264
a(S'w'
I6
tp265
a(S'w'
I14
tp266
a(S'tr_ll'
I1
tp267
a(S'tr_th'
I1
tp268
a(S'w'
I2
tp269
a(S'tr_tl'
I64
tp270
a(S'w'
I2174
tp271
a(S'p1_vo'
I2
tp272
a(S'w'
I6
tp273
a(S'w'
I9539
tp274
a(S'p2_vo'
I1
tp275
a(S'w'
I6
tp276
a(S'w'
I12
tp277
a(S'tr_ll'
I1
tp278
a(S'w'
I2
tp279
a(S'tr_tl'
I29
tp280
a(S'w'
I2176
tp281
a(S'p1_vo'
I1
tp282
a(S'w'
I6
tp283
a(S'w'
I9540
tp284
a(S'p2_vo'
I5
tp285
a(S'w'
I6
tp286
a(S'p2_tl'
I213
tp287
a(S'w'
I14
tp288
a(S'tr_lh'
I0
tp289
a(S'tr_lr'
I48
tp290
a(S'w'
I4
tp291
a(S'tr_ll'
I1
tp292
a(S'tr_th'
I0
tp293
a(S'w'
I2
tp294
a(S'tr_tl'
I254
tp295
a(S'w'
I702
tp296
a(S'p2_vo'
I4
tp297
a(S'w'
I734
tp298
a(S'p2_vo'
I3
tp299
a(S'w'
I736
tp300
a(S'p1_vo'
I5
tp301
a(S'w'
I6
tp302
a(S'p1_tl'
I214
tp303
a(S'w'
I721
tp304
a(S'p1_vo'
I4
tp305
a(S'w'
I734
tp306
a(S'p1_vo'
I3
tp307
a(S'w'
I6608
tp308
a(S'p2_vo'
I2
tp309
a(S'w'
I734
tp310
a(S'p2_vo'
I1
tp311
a(S'w'
I738
tp312
a(S'p2_vo'
I5
tp313
a(S'w'
I6
tp314
a(S'p2_tl'
I226
tp315
a(S'w'
I13
tp316
a(S'tr_ll'
I1
tp317
a(S'w'
I707
tp318
a(S'p1_vo'
I2
tp319
a(S'w'
I7
tp320
a(S'p2_vo'
I4
tp321
a(S'w'
I726
tp322
a(S'p1_vo'
I1
tp323
a(S'w'
I7
tp324
a(S'p2_vo'
I3
tp325
a(S'w'
I731
tp326
a(S'p1_vo'
I5
tp327
a(S'w'
I6
tp328
a(S'p1_tl'
I227
tp329
a(S'w'
I724
tp330
a(S'p1_vo'
I4
tp331
a(S'w'
I734
tp332
a(S'p1_vo'
I3
tp333
a(S'w'
I6608
tp334
a(S'p2_vo'
I2
tp335
a(S'w'
I734
tp336
a(S'p2_vo'
I1
tp337
a(S'w'
I738
tp338
a(S'p2_vo'
I5
tp339
a(S'w'
I7
tp340
a(S'p2_tl'
I213
tp341
a(S'w'
I15
tp342
a(S'tr_ll'
I1
tp343
a(S'w'
I2
tp344
a(S'tr_tl'
I169
tp345
a(S'w'
I701
tp346
a(S'p1_vo'
I2
tp347
a(S'w'
I7
tp348
a(S'p2_vo'
I4
tp349
a(S'w'
I727
tp350
a(S'p1_vo'
I1
tp351
a(S'w'
I7
tp352
a(S'p2_vo'
I3
tp353
a(S'w'
I731
tp354
a(S'p1_vo'
I5
tp355
a(S'w'
I7
tp356
a(S'p1_tl'
I214
tp357
a(S'w'
I723
tp358
a(S'p1_vo'
I4
tp359
a(S'w'
I733
tp360
a(S'p1_vo'
I3
tp361
a(S'w'
I6609
tp362
a(S'p2_vo'
I2
tp363
a(S'w'
I733
tp364
a(S'p2_vo'
I1
tp365
a(S'w'
I740
tp366
a(S'p2_vo'
I3
tp367
a(S'w'
I5
tp368
a(S'p2_ll'
I1
tp369
a(S'p2_th'
I1
tp370
a(S'w'
I2
tp371
a(S'p2_tl'
I83
tp372
a(S'w'
I11
tp373
a(S'tr_lh'
I1
tp374
a(S'tr_lr'
I16
tp375
a(S'w'
I6
tp376
a(S'tr_ll'
I1
tp377
a(S'w'
I2
tp378
a(S'tr_tl'
I127
tp379
a(S'w'
I698
tp380
a(S'p1_vo'
I2
tp381
a(S'w'
I734
tp382
a(S'p1_vo'
I1
tp383
a(S'w'
I739
tp384
a(S'p1_vo'
I5
tp385
a(S'w'
I5
tp386
a(S'p1_ll'
I1
tp387
a(S'p1_th'
I1
tp388
a(S'w'
I2
tp389
a(S'p1_tl'
I84
tp390
a(S'w'
I721
tp391
a(S'p1_vo'
I4
tp392
a(S'w'
I734
tp393
a(S'p1_vo'
I3
tp394
a(S'w'
I8079
tp395
a(S'p2_vo'
I2
tp396
a(S'w'
I6
tp397
a(S'w'
I5864
tp398
a(S'p2_vo'
I1
tp399
a(S'w'
I6
tp400
a(S'w'
I5866
tp401
a(S'p2_vo'
I5
tp402
a(S'w'
I6
tp403
a(S'w'
I719
tp404
a(S'p1_vo'
I2
tp405
a(S'w'
I7
tp406
a(S'p2_vo'
I4
tp407
a(S'w'
I727
tp408
a(S'p1_vo'
I1
tp409
a(S'w'
I7
tp410
a(S'p2_vo'
I3
tp411
a(S'w'
I729
tp412
a(S'p1_vo'
I5
tp413
a(S'w'
I6
tp414
a(S'w'
I726
tp415
a(S'p1_vo'
I4
tp416
a(S'w'
I733
tp417
a(S'p1_vo'
I3
tp418
a(S'w'
I6609
tp419
a(S'p2_vo'
I2
tp420
a(S'w'
I733
tp421
a(S'p2_vo'
I1
tp422
a(S'w'
I736
tp423
a(S'p2_vo'
I5
tp424
a(S'w'
I6
tp425
a(S'p2_tl'
I64
tp426
a(S'w'
I722
tp427
a(S'p1_vo'
I2
tp428
a(S'w'
I7
tp429
a(S'p2_vo'
I4
tp430
a(S'w'
I727
tp431
a(S'p1_vo'
I1
tp432
a(S'w'
I7
tp433
a(S'p2_vo'
I3
tp434
a(S'w'
I729
tp435
a(S'p1_vo'
I5
tp436
a(S'w'
I6
tp437
a(S'p1_tl'
I65
tp438
a(S'w'
I725
tp439
a(S'p1_vo'
I4
tp440
a(S'w'
I734
tp441
a(S'p1_vo'
I3
tp442
a(S'w'
I6608
tp443
a(S'p2_vo'
I2
tp444
a(S'w'
I734
tp445
a(S'p2_vo'
I1
tp446
a(S'w'
I736
tp447
a(S'p2_vo'
I5
tp448
a(S'w'
I6
tp449
a(S'p2_tl'
I29
tp450
a(S'w'
I722
tp451
a(S'p1_vo'
I2
tp452
a(S'w'
I7
tp453
a(S'p2_vo'
I4
tp454
a(S'w'
I726
tp455
a(S'p1_vo'
I1
tp456
a(S'w'
I7
tp457
a(S'p2_vo'
I3
tp458
a(S'w'
I729
tp459
a(S'p1_vo'
I5
tp460
a(S'w'
I6
tp461
a(S'p1_tl'
I30
tp462
a(S'w'
I726
tp463
a(S'p1_vo'
I4
tp464
a(S'w'
I734
tp465
a(S'p1_vo'
I3
tp466
a(S'w'
I6608
tp467
a(S'p2_vo'
I2
tp468
a(S'w'
I734
tp469
a(S'p2_vo'
I1
tp470
a(S'w'
I736
tp471
a(S'p2_vo'
I5
tp472
a(S'w'
I6
tp473
a(S'w'
I11
tp474
a(S'tr_lh'
I0
tp475
a(S'tr_lr'
I48
tp476
a(S'w'
I4
tp477
a(S'tr_ll'
I1
tp478
a(S'tr_th'
I1
tp479
a(S'w'
I2
tp480
a(S'tr_tl'
I64
tp481
a(S'w'
I704
tp482
a(S'p1_vo'
I2
tp483
a(S'w'
I7
tp484
a(S'p2_vo'
I4
tp485
a(S'w'
I727
tp486
a(S'p1_vo'
I1
tp487
a(S'w'
I7
tp488
a(S'p2_vo'
I3
tp489
a(S'w'
I729
tp490
a(S'p1_vo'
I5
tp491
a(S'w'
I6
tp492
a(S'w'
I726
tp493
a(S'p1_vo'
I4
tp494
a(S'w'
I733
tp495
a(S'p1_vo'
I3
tp496
a(S'w'
I6609
tp497
a(S'p2_vo'
I2
tp498
a(S'w'
I733
tp499
a(S'p2_vo'
I1
tp500
a(S'w'
I736
tp501
a(S'p2_vo'
I5
tp502
a(S'w'
I5
tp503
a(S'p2_ll'
I1
tp504
a(S'p2_th'
I0
tp505
a(S'w'
I3
tp506
a(S'p2_tl'
I254
tp507
a(S'w'
I12
tp508
a(S'tr_ll'
I1
tp509
a(S'w'
I708
tp510
a(S'p1_vo'
I2
tp511
a(S'w'
I7
tp512
a(S'p2_vo'
I4
tp513
a(S'w'
I727
tp514
a(S'p1_vo'
I1
tp515
a(S'w'
I7
tp516
a(S'p2_vo'
I3
tp517
a(S'w'
I729
tp518
a(S'p1_vo'
I5
tp519
a(S'w'
I5
tp520
a(S'p1_ll'
I1
tp521
a(S'p1_th'
I0
tp522
a(S'w'
I2
tp523
a(S'p1_tl'
I255
tp524
a(S'w'
I724
tp525
a(S'p1_vo'
I4
tp526
a(S'w'
I734
tp527
a(S'p1_vo'
I3
tp528
a(S'w'
I6608
tp529
a(S'p2_vo'
I2
tp530
a(S'w'
I734
tp531
a(S'p2_vo'
I1
tp532
a(S'w'
I736
tp533
a(S'p2_vo'
I5
tp534
a(S'w'
I5
tp535
a(S'p2_ll'
I1
tp536
a(S'p2_th'
I1
tp537
a(S'w'
I3
tp538
a(S'p2_tl'
I64
tp539
a(S'w'
I15
tp540
a(S'tr_ll'
I1
tp541
a(S'tr_th'
I0
tp542
a(S'w'
I2
tp543
a(S'tr_tl'
I213
tp544
a(S'w'
I703
tp545
a(S'p1_vo'
I2
tp546
a(S'w'
I7
tp547
a(S'p2_vo'
I4
tp548
a(S'w'
I726
tp549
a(S'p1_vo'
I1
tp550
a(S'w'
I7
tp551
a(S'p2_vo'
I3
tp552
a(S'w'
I729
tp553
a(S'p1_vo'
I5
tp554
a(S'w'
I5
tp555
a(S'p1_ll'
I1
tp556
a(S'p1_th'
I1
tp557
a(S'w'
I2
tp558
a(S'p1_tl'
I65
tp559
a(S'w'
I725
tp560
a(S'p1_vo'
I4
tp561
a(S'w'
I734
tp562
a(S'p1_vo'
I3
tp563
a(S'w'
I6608
tp564
a(S'p2_vo'
I2
tp565
a(S'w'
I734
tp566
a(S'p2_vo'
I1
tp567
a(S'w'
I738
tp568
a(S'p2_vo'
I3
tp569
a(S'w'
I6
tp570
a(S'p2_tl'
I171
tp571
a(S'w'
I9
tp572
a(S'tr_lh'
I1
tp573
a(S'tr_lr'
I16
tp574
a(S'w'
I6
tp575
a(S'tr_ll'
I1
tp576
a(S'w'
I2
tp577
a(S'tr_tl'
I160
tp578
a(S'w'
I702
tp579
a(S'p1_vo'
I2
tp580
a(S'w'
I734
tp581
a(S'p1_vo'
I1
tp582
a(S'w'
I741
tp583
a(S'p1_vo'
I5
tp584
a(S'w'
I6
tp585
a(S'p1_tl'
I172
tp586
a(S'w'
I721
tp587
a(S'p1_vo'
I4
tp588
a(S'w'
I733
tp589
a(S'p1_vo'
I3
tp590
a(S'w'
I8079
tp591
a(S'p2_vo'
I2
tp592
a(S'w'
I6
tp593
a(S'w'
I5865
tp594
a(S'p2_vo'
I1
tp595
a(S'w'
I6
tp596
a(S'w'
I5123
tp597
a(S'p1_vo'
I2
tp598
a(S'w'
I734
tp599
a(S'p1_vo'
I1
tp600
a(S'w'
I10
tp601
a(S'p2_du'
I2
tp602
a(S'p2_vo'
I6
tp603
a(S'w'
I6
tp604
a(S'w'
I721
tp605
a(S'p1_du'
I2
tp606
a(S'p1_vo'
I6
tp607
a(S'w'
I6
tp608
a(S'w'
I7
tp609
a(S'p2_vo'
I5
tp610
a(S'w'
I717
tp611
a(S'p1_vo'
I5
tp612
a(S'w'
I7
tp613
a(S'p2_vo'
I4
tp614
a(S'w'
I727
tp615
a(S'p1_vo'
I4
tp616
a(S'w'
I8076
tp617
a(S'p2_vo'
I3
tp618
a(S'w'
I730
tp619
a(S'p1_vo'
I3
tp620
a(S'w'
I7
tp621
a(S'p2_vo'
I2
tp622
a(S'w'
I726
tp623
a(S'p1_vo'
I2
tp624
a(S'w'
I9
tp625
a(S'p2_vo'
I6
tp626
a(S'w'
I6
tp627
a(S'p2_tl'
I125
tp628
a(S'w'
I14
tp629
a(S'tr_ll'
I1
tp630
a(S'tr_th'
I1
tp631
a(S'w'
I2
tp632
a(S'tr_tl'
I64
tp633
a(S'w'
I705
tp634
a(S'p1_vo'
I6
tp635
a(S'w'
I6
tp636
a(S'p1_tl'
I126
tp637
a(S'w'
I7
tp638
a(S'p2_vo'
I5
tp639
a(S'w'
I719
tp640
a(S'p1_vo'
I5
tp641
a(S'w'
I7
tp642
a(S'p2_vo'
I4
tp643
a(S'w'
I727
tp644
a(S'p1_vo'
I4
tp645
a(S'w'
I8076
tp646
a(S'p2_vo'
I3
tp647
a(S'w'
I729
tp648
a(S'p1_vo'
I3
tp649
a(S'w'
I7
tp650
a(S'p2_vo'
I2
tp651
a(S'w'
I727
tp652
a(S'p1_vo'
I2
tp653
a(S'w'
I9
tp654
a(S'p2_vo'
I6
tp655
a(S'w'
I6
tp656
a(S'p2_tl'
I103
tp657
a(S'w'
I13
tp658
a(S'tr_ll'
I1
tp659
a(S'w'
I2
tp660
a(S'tr_tl'
I29
tp661
a(S'w'
I706
tp662
a(S'p1_vo'
I6
tp663
a(S'w'
I6
tp664
a(S'p1_tl'
I172
tp665
a(S'w'
I7
tp666
a(S'p2_vo'
I5
tp667
a(S'w'
I719
tp668
a(S'p1_vo'
I5
tp669
a(S'w'
I7
tp670
a(S'p2_vo'
I4
tp671
a(S'w'
I727
tp672
a(S'p1_vo'
I4
tp673
a(S'w'
I9553
tp674
a(S'tr_lh'
I0
tp675
a(S'tr_lr'
I32
tp676
a(S'w'
I4
tp677
a(S'tr_ll'
I1
tp678
a(S'w'
I2
tp679
a(S'tr_tl'
I13
tp680
a(S'w'
I10257
tp681
a(S'p2_vo'
I3
tp682
a(S'w'
I730
tp683
a(S'p1_vo'
I3
tp684
a(S'w'
I7
tp685
a(S'p2_vo'
I2
tp686
a(S'w'
I726
tp687
a(S'p1_vo'
I2
tp688
a(S'w'
I9
tp689
a(S'p2_vo'
I6
tp690
a(S'w'
I6
tp691
a(S'w'
I721
tp692
a(S'p1_vo'
I6
tp693
a(S'w'
I6
tp694
a(S'w'
I7
tp695
a(S'p2_vo'
I5
tp696
a(S'w'
I719
tp697
a(S'p1_vo'
I5
tp698
a(S'w'
I7
tp699
a(S'p2_vo'
I4
tp700
a(S'w'
I727
tp701
a(S'p1_vo'
I4
tp702
a(S'w'
I8076
tp703
a(S'p2_vo'
I3
tp704
a(S'w'
I729
tp705
a(S'p1_vo'
I3
tp706
a(S'w'
I7
tp707
a(S'p2_vo'
I2
tp708
a(S'w'
I727
tp709
a(S'p1_vo'
I2
tp710
a(S'w'
I9
tp711
a(S'p2_vo'
I6
tp712
a(S'w'
I6
tp713
a(S'p2_tl'
I13
tp714
a(S'w'
I13
tp715
a(S'tr_ll'
I1
tp716
a(S'w'
I708
tp717
a(S'p1_vo'
I6
tp718
a(S'w'
I6
tp719
a(S'p1_tl'
I104
tp720
a(S'w'
I7
tp721
a(S'p2_vo'
I5
tp722
a(S'w'
I719
tp723
a(S'p1_vo'
I5
tp724
a(S'w'
I7
tp725
a(S'p2_vo'
I4
tp726
a(S'w'
I727
tp727
a(S'p1_vo'
I4
tp728
a(S'w'
I8075
tp729
a(S'p2_vo'
I3
tp730
a(S'w'
I730
tp731
a(S'p1_vo'
I3
tp732
a(S'w'
I7
tp733
a(S'p2_vo'
I2
tp734
a(S'w'
I727
tp735
a(S'p1_vo'
I2
tp736
a(S'w'
I12
tp737
a(S'p2_vo'
I4
tp738
a(S'w'
I6
tp739
a(S'p2_ll'
I1
tp740
a(S'p2_th'
I0
tp741
a(S'w'
I2
tp742
a(S'p2_tl'
I213
tp743
a(S'w'
I716
tp744
a(S'p1_vo'
I6
tp745
a(S'w'
I6
tp746
a(S'p1_tl'
I14
tp747
a(S'w'
I725
tp748
a(S'p1_vo'
I5
tp749
a(S'w'
I734
tp750
a(S'p1_vo'
I4
tp751
a(S'w'
I9546
tp752
a(S'p2_vo'
I3
tp753
a(S'w'
I7
tp754
a(S'w'
I13
tp755
a(S'tr_ll'
I1
tp756
a(S'w'
I5851
tp757
a(S'p2_vo'
I2
tp758
a(S'w'
I7
tp759
a(S'w'
I5122
tp760
a(S'p1_vo'
I3
tp761
a(S'w'
I734
tp762
a(S'p1_vo'
I2
tp763
a(S'w'
I10
tp764
a(S'p2_vo'
I6
tp765
a(S'w'
I7
tp766
a(S'w'
I719
tp767
a(S'p1_vo'
I6
tp768
a(S'w'
I6
tp769
a(S'w'
I7
tp770
a(S'p2_vo'
I5
tp771
a(S'w'
I719
tp772
a(S'p1_vo'
I5
tp773
a(S'w'
I7
tp774
a(S'p2_vo'
I4
tp775
a(S'w'
I727
tp776
a(S'p1_vo'
I4
tp777
a(S'w'
I8075
tp778
a(S'p2_vo'
I3
tp779
a(S'w'
I730
tp780
a(S'p1_vo'
I3
tp781
a(S'w'
I7
tp782
a(S'p2_vo'
I2
tp783
a(S'w'
I727
tp784
a(S'p1_vo'
I2
tp785
a(S'w'
I9
tp786
a(S'p2_vo'
I6
tp787
a(S'w'
I6
tp788
a(S'p2_tl'
I190
tp789
a(S'w'
I13
tp790
a(S'tr_ll'
I1
tp791
a(S'w'
I708
tp792
a(S'p1_vo'
I6
tp793
a(S'w'
I5
tp794
a(S'p1_ll'
I1
tp795
a(S'p1_th'
I0
tp796
a(S'w'
I2
tp797
a(S'p1_tl'
I241
tp798
a(S'w'
I7
tp799
a(S'p2_vo'
I5
tp800
a(S'w'
I717
tp801
a(S'p1_vo'
I5
tp802
a(S'w'
I7
tp803
a(S'p2_vo'
I4
tp804
a(S'w'
I727
tp805
a(S'p1_vo'
I4
tp806
a(S'w'
I8076
tp807
a(S'p2_vo'
I3
tp808
a(S'w'
I730
tp809
a(S'p1_vo'
I3
tp810
a(S'w'
I7
tp811
a(S'p2_vo'
I2
tp812
a(S'w'
I726
tp813
a(S'p1_vo'
I2
tp814
a(S'w'
I9
tp815
a(S'p2_vo'
I6
tp816
a(S'w'
I6
tp817
a(S'p2_tl'
I179
tp818
a(S'w'
I723
tp819
a(S'p1_vo'
I6
tp820
a(S'w'
I7
tp821
a(S'p1_tl'
I214
tp822
a(S'w'
I6
tp823
a(S'p2_vo'
I5
tp824
a(S'w'
I717
tp825
a(S'p1_vo'
I5
tp826
a(S'w'
I7
tp827
a(S'p2_vo'
I4
tp828
a(S'w'
I727
tp829
a(S'p1_vo'
I4
tp830
a(S'w'
I8076
tp831
a(S'p2_vo'
I3
tp832
a(S'w'
I729
tp833
a(S'p1_vo'
I3
tp834
a(S'w'
I7
tp835
a(S'p2_vo'
I2
tp836
a(S'w'
I727
tp837
a(S'p1_vo'
I2
tp838
a(S'w'
I10
tp839
a(S'p2_vo'
I6
tp840
a(S'w'
I6
tp841
a(S'w'
I13
tp842
a(S'tr_ll'
I1
tp843
a(S'tr_th'
I0
tp844
a(S'w'
I2
tp845
a(S'tr_tl'
I240
tp846
a(S'w'
I706
tp847
a(S'p1_vo'
I6
tp848
a(S'w'
I7
tp849
a(S'w'
I6
tp850
a(S'p2_vo'
I5
tp851
a(S'w'
I718
tp852
a(S'p1_vo'
I5
tp853
a(S'w'
I7
tp854
a(S'p2_vo'
I4
tp855
a(S'w'
I727
tp856
a(S'p1_vo'
I4
tp857
a(S'w'
I21294
tp858
a(S'tr_ll'
I1
tp859
a(S'w'
I10263
tp860
a(S'p2_vo'
I3
tp861
a(S'w'
I729
tp862
a(S'p1_vo'
I3
tp863
a(S'w'
I7
tp864
a(S'p2_vo'
I2
tp865
a(S'w'
I727
tp866
a(S'p1_vo'
I2
tp867
a(S'w'
I9
tp868
a(S'p2_vo'
I6
tp869
a(S'w'
I7
tp870
a(S'p2_tl'
I190
tp871
a(S'w'
I723
tp872
a(S'p1_vo'
I6
tp873
a(S'w'
I6
tp874
a(S'p1_tl'
I241
tp875
a(S'w'
I6
tp876
a(S'p2_vo'
I5
tp877
a(S'w'
I717
tp878
a(S'p1_vo'
I5
tp879
a(S'w'
I7
tp880
a(S'p2_vo'
I4
tp881
a(S'w'
I727
tp882
a(S'p1_vo'
I4
tp883
a(S'w'
I9554
tp884
a(S'tr_ll'
I1
tp885
a(S'w'
I10262
tp886
a(S'p2_vo'
I3
tp887
a(S'w'
I730
tp888
a(S'p1_vo'
I3
tp889
a(S'w'
I7
tp890
a(S'p2_vo'
I2
tp891
a(S'w'
I726
tp892
a(S'p1_vo'
I2
tp893
a(S'w'
I9
tp894
a(S'p2_vo'
I6
tp895
a(S'w'
I6
tp896
a(S'w'
I725
tp897
a(S'p1_vo'
I6
tp898
a(S'w'
I6
tp899
a(S'w'
I6
tp900
a(S'p2_vo'
I5
tp901
a(S'w'
I716
tp902
a(S'p1_vo'
I5
tp903
a(S'w'
I7
tp904
a(S'p2_vo'
I4
tp905
a(S'w'
I727
tp906
a(S'p1_vo'
I4
tp907
a(S'w'
I8076
tp908
a(S'p2_vo'
I3
tp909
a(S'w'
I729
tp910
a(S'p1_vo'
I3
tp911
a(S'w'
I7
tp912
a(S'p2_vo'
I2
tp913
a(S'w'
I727
tp914
a(S'p1_vo'
I2
tp915
a(S'w'
I9
tp916
a(S'p2_vo'
I6
tp917
a(S'w'
I6
tp918
a(S'p2_tl'
I179
tp919
a(S'w'
I13
tp920
a(S'tr_ll'
I1
tp921
a(S'w'
I710
tp922
a(S'p1_vo'
I6
tp923
a(S'w'
I7
tp924
a(S'p1_tl'
I214
tp925
a(S'w'
I6
tp926
a(S'p2_vo'
I5
tp927
a(S'w'
I717
tp928
a(S'p1_vo'
I5
tp929
a(S'w'
I7
tp930
a(S'p2_vo'
I4
tp931
a(S'w'
I727
tp932
a(S'p1_vo'
I4
tp933
a(S'w'
I8075
tp934
a(S'p2_vo'
I3
tp935
a(S'w'
I730
tp936
a(S'p1_vo'
I3
tp937
a(S'w'
I7
tp938
a(S'p2_vo'
I2
tp939
a(S'w'
I727
tp940
a(S'p1_vo'
I2
tp941
a(S'w'
I9
tp942
a(S'p2_vo'
I6
tp943
a(S'w'
I6
tp944
a(S'p2_tl'
I160
tp945
a(S'w'
I721
tp946
a(S'p1_vo'
I6
tp947
a(S'w'
I6
tp948
a(S'p1_tl'
I191
tp949
a(S'w'
I7
tp950
a(S'p2_vo'
I5
tp951
a(S'w'
I718
tp952
a(S'p1_vo'
I5
tp953
a(S'w'
I7
tp954
a(S'p2_vo'
I4
tp955
a(S'w'
I727
tp956
a(S'p1_vo'
I4
tp957
a(S'w'
I8076
tp958
a(S'p2_vo'
I3
tp959
a(S'w'
I730
tp960
a(S'p1_vo'
I3
tp961
a(S'w'
I7
tp962
a(S'p2_vo'
I2
tp963
a(S'w'
I726
tp964
a(S'p1_vo'
I2
tp965
a(S'w'
I10
tp966
a(S'p2_vo'
I6
tp967
a(S'w'
I6
tp968
a(S'w'
I12
tp969
a(S'tr_lh'
I1
tp970
a(S'tr_lr'
I16
tp971
a(S'w'
I5
tp972
a(S'tr_ll'
I1
tp973
a(S'w'
I2
tp974
a(S'tr_tl'
I213
tp975
a(S'w'
I702
tp976
a(S'p1_vo'
I6
tp977
a(S'w'
I7
tp978
a(S'w'
I6
tp979
a(S'p2_vo'
I5
tp980
a(S'w'
I718
tp981
a(S'p1_vo'
I5
tp982
a(S'w'
I7
tp983
a(S'p2_vo'
I4
tp984
a(S'w'
I727
tp985
a(S'p1_vo'
I4
tp986
a(S'w'
I31557
tp987
a(S'p2_vo'
I3
tp988
a(S'w'
I730
tp989
a(S'p1_vo'
I3
tp990
a(S'w'
I7
tp991
a(S'p2_vo'
I2
tp992
a(S'w'
I726
tp993
a(S'p1_vo'
I2
tp994
a(S'w'
I14
tp995
a(S'p2_vo'
I4
tp996
a(S'w'
I7
tp997
a(S'p2_tl'
I169
tp998
a(S'w'
I15
tp999
a(S'tr_ll'
I1
tp1000
a(S'tr_th'
I1
tp1001
a(S'w'
I3
tp1002
a(S'tr_tl'
I29
tp1003
a(S'w'
I703
tp1004
a(S'p1_vo'
I4
tp1005
a(S'w'
I6
tp1006
a(S'p1_tl'
I214
tp1007
a(S'w'
I34488
tp1008
a(S'tr_ll'
I1
tp1009
a(S'w'
I2
tp1010
a(S'tr_tl'
I64
tp1011
a(S'w'
I11742
tp1012
a(S'tr_ll'
I1
tp1013
a(S'w'
I2
tp1014
a(S'tr_tl'
I171
tp1015
a(S'w'
I46952
tp1016
a(S'p2_vo'
I3
tp1017
a(S'w'
I6
tp1018
a(S'w'
I723
tp1019
a(S'p1_vo'
I3
tp1020
a(S'w'
I7
tp1021
a(S'w'
I11004
tp1022
a(S'p2_vo'
I2
tp1023
a(S'w'
I6
tp1024
a(S'w'
I723
tp1025
a(S'p1_vo'
I2
tp1026
a(S'w'
I7
tp1027
a(S'w'
I5134
tp1028
a(S'tr_lh'
I0
tp1029
a(S'tr_lr'
I45
tp1030
a(S'w'
I5867
tp1031
a(S'p2_du'
I0
tp1032
a(S'p2_vo'
I0
tp1033
a(S'w'
I729
tp1034
a(S'p1_du'
I0
tp1035
a(S'p1_vo'
I0
tp1036
a(S'w'
I59271
tp1037
a.