(lp1
(S'clock'
p2
I1789773
tp3
a(S'fc_mo'
I1
tp4
a(S'w'
I1
tp5
a(S'fc_mo'
I1
tp6
a(S'w'
I102
tp7
a(S'ch_no'
I1
tp8
a(S'ch_tr'
I1
tp9
a(S'ch_p2'
I1
tp10
a(S'ch_p1'
I1
tp11
a(S'ch_no'
I1
tp12
a(S'ch_tr'
I1
tp13
a(S'ch_p2'
I1
tp14
a(S'ch_p1'
I1
tp15
a(S'w'
I100
tp16
a(S'p1_lh'
I1
tp17
a(S'p1_cv'
I1
tp18
a(S'p1_vo'
I14
tp19
a(S'w'
I1
tp20
a(S'p1_sp'
I7
tp21
a(S'p1_sn'
I1
tp22
a(S'p1_ss'
I7
tp23
a(S'w'
I1
tp24
a(S'p1_tl'
I83
tp25
a(S'w'
I1
tp26
a(S'p1_ll'
I6
tp27
a(S'p1_th'
I1
tp28
a(S'w'
I1
tp29
a(S'p2_du'
I2
tp30
a(S'p2_lh'
I1
tp31
a(S'p2_cv'
I1
tp32
a(S'p2_vo'
I15
tp33
a(S'w'
I1
tp34
a(S'p2_sp'
I7
tp35
a(S'p2_sn'
I1
tp36
a(S'p2_ss'
I7
tp37
a(S'w'
I1
tp38
a(S'p2_tl'
I78
tp39
a(S'w'
I1
tp40
a(S'p2_ll'
I6
tp41
a(S'p2_th'
I5
tp42
a(S'w'
I1
tp43
a(S'w'
I1
tp44
a(S'w'
I1
tp45
a(S'w'
I1
tp46
a(S'tr_ll'
I0
tp47
a(S'w'
I1
tp48
a(S'no_ll'
I31
tp49
a(S'w'
I1
tp50
a(S'no_np'
I4
tp51
a(S'w'
I1
tp52
a(S'no_lh'
I1
tp53
a(S'no_cv'
I1
tp54
a(S'no_vo'
I9
tp55
a(S'w'
I564
tp56
a(S'p1_du'
I3
tp57
a(S'p1_vo'
I12
tp58
a(S'w'
I3
tp59
a(S'p2_du'
I3
tp60
a(S'p2_vo'
I14
tp61
a(S'w'
I9
tp62
a(S'no_vo'
I6
tp63
a(S'w'
I728
tp64
a(S'p1_vo'
I11
tp65
a(S'w'
I3
tp66
a(S'p2_vo'
I13
tp67
a(S'w'
I8
tp68
a(S'no_vo'
I4
tp69
a(S'w'
I719
tp70
a(S'p1_vo'
I10
tp71
a(S'w'
I4
tp72
a(S'p2_vo'
I12
tp73
a(S'w'
I8
tp74
a(S'no_vo'
I2
tp75
a(S'w'
I719
tp76
a(S'p1_vo'
I9
tp77
a(S'w'
I3
tp78
a(S'p2_vo'
I4
tp79
a(S'w'
I8
tp80
a(S'no_vo'
I0
tp81
a(S'w'
I711
tp82
a(S'p1_vo'
I3
tp83
a(S'w'
I1468
tp84
a(S'p1_vo'
I0
tp85
a(S'w'
I742
tp86
a(S'p2_vo'
I0
tp87
a(S'w'
I5890
tp88
a(S'ch_no'
I1
tp89
a(S'ch_tr'
I1
tp90
a(S'ch_p2'
I1
tp91
a(S'ch_p1'
I1
tp92
a(S'ch_no'
I1
tp93
a(S'ch_tr'
I1
tp94
a(S'ch_p2'
I1
tp95
a(S'ch_p1'
I1
tp96
a(S'w'
I71
tp97
a(S'p1_du'
I0
tp98
a(S'p1_vo'
I14
tp99
a(S'w'
I2
tp100
a(S'p1_ll'
I4
tp101
a(S'w'
I2
tp102
a(S'p2_du'
I2
tp103
a(S'p2_vo'
I12
tp104
a(S'w'
I1
tp105
a(S'p2_tl'
I253
tp106
a(S'w'
I1
tp107
a(S'p2_ll'
I4
tp108
a(S'p2_th'
I1
tp109
a(S'w'
I1
tp110
a(S'tr_lh'
I1
tp111
a(S'tr_lr'
I127
tp112
a(S'w'
I2
tp113
a(S'tr_tl'
I226
tp114
a(S'w'
I1
tp115
a(S'tr_ll'
I6
tp116
a(S'w'
I2
tp117
a(S'no_np'
I3
tp118
a(S'w'
I1
tp119
a(S'no_vo'
I4
tp120
a(S'w'
I628
tp121
a(S'p1_du'
I3
tp122
a(S'p1_vo'
I12
tp123
a(S'w'
I3
tp124
a(S'p2_vo'
I10
tp125
a(S'w'
I8
tp126
a(S'no_vo'
I1
tp127
a(S'w'
I724
tp128
a(S'p1_vo'
I11
tp129
a(S'w'
I11
tp130
a(S'no_vo'
I0
tp131
a(S'w'
I727
tp132
a(S'p1_vo'
I10
tp133
a(S'w'
I6
tp134
a(S'tr_lh'
I0
tp135
a(S'tr_lr'
I0
tp136
a(S'w'
I717
tp137
a(S'p1_vo'
I9
tp138
a(S'w'
I3
tp139
a(S'p2_vo'
I0
tp140
a(S'w'
I719
tp141
a(S'p1_vo'
I3
tp142
a(S'w'
I1467
tp143
a(S'p1_vo'
I0
tp144
a(S'w'
I777
tp145
a(S'ch_no'
I1
tp146
a(S'ch_tr'
I1
tp147
a(S'ch_p2'
I1
tp148
a(S'ch_p1'
I1
tp149
a(S'ch_no'
I1
tp150
a(S'ch_tr'
I1
tp151
a(S'ch_p2'
I1
tp152
a(S'ch_p1'
I1
tp153
a(S'w'
I67
tp154
a(S'p1_du'
I0
tp155
a(S'p1_vo'
I14
tp156
a(S'w'
I2
tp157
a(S'p1_ll'
I6
tp158
a(S'w'
I1
tp159
a(S'p2_vo'
I15
tp160
a(S'w'
I2
tp161
a(S'p2_tl'
I78
tp162
a(S'w'
I1
tp163
a(S'p2_ll'
I6
tp164
a(S'p2_th'
I5
tp165
a(S'w'
I5
tp166
a(S'no_np'
I4
tp167
a(S'w'
I1
tp168
a(S'no_vo'
I9
tp169
a(S'w'
I635
tp170
a(S'p1_du'
I3
tp171
a(S'p1_vo'
I12
tp172
a(S'w'
I4
tp173
a(S'p2_du'
I3
tp174
a(S'p2_vo'
I14
tp175
a(S'w'
I8
tp176
a(S'no_vo'
I6
tp177
a(S'w'
I728
tp178
a(S'p1_vo'
I11
tp179
a(S'w'
I3
tp180
a(S'p2_vo'
I13
tp181
a(S'w'
I8
tp182
a(S'no_vo'
I4
tp183
a(S'w'
I719
tp184
a(S'p1_vo'
I10
tp185
a(S'w'
I4
tp186
a(S'p2_vo'
I12
tp187
a(S'w'
I8
tp188
a(S'no_vo'
I2
tp189
a(S'w'
I719
tp190
a(S'p1_vo'
I9
tp191
a(S'w'
I3
tp192
a(S'p2_vo'
I4
tp193
a(S'w'
I8
tp194
a(S'no_vo'
I0
tp195
a(S'w'
I711
tp196
a(S'p1_vo'
I3
tp197
a(S'w'
I1468
tp198
a(S'p1_vo'
I0
tp199
a(S'w'
I742
tp200
a(S'p2_vo'
I0
tp201
a(S'w'
I5890
tp202
a(S'ch_no'
I1
tp203
a(S'ch_tr'
I1
tp204
a(S'ch_p2'
I1
tp205
a(S'ch_p1'
I1
tp206
a(S'ch_no'
I1
tp207
a(S'ch_tr'
I1
tp208
a(S'ch_p2'
I1
tp209
a(S'ch_p1'
I1
tp210
a(S'w'
I71
tp211
a(S'p1_du'
I0
tp212
a(S'p1_vo'
I14
tp213
a(S'w'
I2
tp214
a(S'p1_tl'
I125
tp215
a(S'w'
I1
tp216
a(S'p1_ll'
I4
tp217
a(S'w'
I1
tp218
a(S'p2_du'
I2
tp219
a(S'p2_vo'
I12
tp220
a(S'w'
I1
tp221
a(S'p2_tl'
I253
tp222
a(S'w'
I1
tp223
a(S'p2_ll'
I4
tp224
a(S'p2_th'
I1
tp225
a(S'w'
I2
tp226
a(S'tr_lh'
I1
tp227
a(S'tr_lr'
I127
tp228
a(S'w'
I2
tp229
a(S'tr_ll'
I4
tp230
a(S'w'
I2
tp231
a(S'no_np'
I3
tp232
a(S'w'
I1
tp233
a(S'no_vo'
I4
tp234
a(S'w'
I628
tp235
a(S'p1_du'
I3
tp236
a(S'p1_vo'
I12
tp237
a(S'w'
I3
tp238
a(S'p2_vo'
I10
tp239
a(S'w'
I8
tp240
a(S'no_vo'
I1
tp241
a(S'w'
I724
tp242
a(S'p1_vo'
I11
tp243
a(S'w'
I11
tp244
a(S'no_vo'
I0
tp245
a(S'w'
I727
tp246
a(S'p1_vo'
I10
tp247
a(S'w'
I6
tp248
a(S'tr_lh'
I0
tp249
a(S'tr_lr'
I0
tp250
a(S'w'
I717
tp251
a(S'p1_vo'
I9
tp252
a(S'w'
I3
tp253
a(S'p2_vo'
I0
tp254
a(S'w'
I719
tp255
a(S'p1_vo'
I3
tp256
a(S'w'
I1467
tp257
a(S'p1_vo'
I0
tp258
a(S'w'
I777
tp259
a(S'ch_no'
I1
tp260
a(S'ch_tr'
I1
tp261
a(S'ch_p2'
I1
tp262
a(S'ch_p1'
I1
tp263
a(S'w'
I1
tp264
a(S'ch_no'
I1
tp265
a(S'ch_tr'
I1
tp266
a(S'ch_p2'
I1
tp267
a(S'ch_p1'
I1
tp268
a(S'w'
I67
tp269
a(S'p1_du'
I0
tp270
a(S'p1_vo'
I14
tp271
a(S'w'
I2
tp272
a(S'p1_ll'
I6
tp273
a(S'w'
I1
tp274
a(S'p2_vo'
I15
tp275
a(S'w'
I2
tp276
a(S'p2_tl'
I244
tp277
a(S'w'
I1
tp278
a(S'p2_ll'
I6
tp279
a(S'p2_th'
I5
tp280
a(S'w'
I5
tp281
a(S'no_np'
I4
tp282
a(S'w'
I1
tp283
a(S'no_vo'
I9
tp284
a(S'w'
I634
tp285
a(S'p1_du'
I3
tp286
a(S'p1_vo'
I12
tp287
a(S'w'
I4
tp288
a(S'p2_du'
I3
tp289
a(S'p2_vo'
I14
tp290
a(S'w'
I8
tp291
a(S'no_vo'
I6
tp292
a(S'w'
I728
tp293
a(S'p1_vo'
I11
tp294
a(S'w'
I3
tp295
a(S'p2_vo'
I13
tp296
a(S'w'
I8
tp297
a(S'no_vo'
I4
tp298
a(S'w'
I719
tp299
a(S'p1_vo'
I10
tp300
a(S'w'
I4
tp301
a(S'p2_vo'
I12
tp302
a(S'w'
I8
tp303
a(S'no_vo'
I2
tp304
a(S'w'
I719
tp305
a(S'p1_vo'
I9
tp306
a(S'w'
I3
tp307
a(S'p2_vo'
I4
tp308
a(S'w'
I8
tp309
a(S'no_vo'
I0
tp310
a(S'w'
I711
tp311
a(S'p1_vo'
I3
tp312
a(S'w'
I1468
tp313
a(S'p1_vo'
I0
tp314
a(S'w'
I721
tp315
a(S'ch_no'
I1
tp316
a(S'ch_tr'
I1
tp317
a(S'ch_p2'
I1
tp318
a(S'ch_p1'
I1
tp319
a(S'ch_no'
I1
tp320
a(S'ch_tr'
I1
tp321
a(S'ch_p2'
I1
tp322
a(S'ch_p1'
I1
tp323
a(S'w'
I37
tp324
a(S'p2_vo'
I0
tp325
a(S'w'
I8
tp326
a(S'w'
I5845
tp327
a(S'ch_no'
I1
tp328
a(S'ch_tr'
I1
tp329
a(S'ch_p2'
I1
tp330
a(S'ch_p1'
I1
tp331
a(S'ch_no'
I1
tp332
a(S'ch_tr'
I1
tp333
a(S'ch_p2'
I1
tp334
a(S'ch_p1'
I1
tp335
a(S'w'
I75
tp336
a(S'p2_du'
I2
tp337
a(S'p2_vo'
I12
tp338
a(S'w'
I1
tp339
a(S'p2_tl'
I59
tp340
a(S'w'
I1
tp341
a(S'p2_ll'
I4
tp342
a(S'p2_th'
I2
tp343
a(S'w'
I1
tp344
a(S'tr_lh'
I1
tp345
a(S'tr_lr'
I127
tp346
a(S'w'
I2
tp347
a(S'tr_tl'
I254
tp348
a(S'w'
I1
tp349
a(S'tr_ll'
I6
tp350
a(S'w'
I2
tp351
a(S'no_np'
I3
tp352
a(S'w'
I1
tp353
a(S'no_vo'
I4
tp354
a(S'w'
I643
tp355
a(S'p2_vo'
I10
tp356
a(S'w'
I8
tp357
a(S'no_vo'
I1
tp358
a(S'w'
I732
tp359
a(S'no_vo'
I0
tp360
a(S'w'
I734
tp361
a(S'tr_lh'
I0
tp362
a(S'tr_lr'
I0
tp363
a(S'w'
I720
tp364
a(S'p2_vo'
I0
tp365
a(S'w'
I2950
tp366
a(S'ch_no'
I1
tp367
a(S'ch_tr'
I1
tp368
a(S'ch_p2'
I1
tp369
a(S'ch_p1'
I1
tp370
a(S'ch_no'
I1
tp371
a(S'ch_tr'
I1
tp372
a(S'ch_p2'
I1
tp373
a(S'ch_p1'
I1
tp374
a(S'w'
I87
tp375
a(S'p2_vo'
I5
tp376
a(S'w'
I1
tp377
a(S'p2_tl'
I29
tp378
a(S'w'
I1
tp379
a(S'p2_ll'
I6
tp380
a(S'p2_th'
I1
tp381
a(S'w'
I1
tp382
a(S'tr_lh'
I1
tp383
a(S'tr_lr'
I127
tp384
a(S'w'
I2
tp385
a(S'tr_tl'
I127
tp386
a(S'w'
I1
tp387
a(S'tr_ll'
I4
tp388
a(S'w'
I2
tp389
a(S'no_np'
I4
tp390
a(S'w'
I1
tp391
a(S'no_vo'
I9
tp392
a(S'w'
I630
tp393
a(S'p2_vo'
I3
tp394
a(S'w'
I8
tp395
a(S'no_vo'
I6
tp396
a(S'w'
I732
tp397
a(S'no_vo'
I4
tp398
a(S'w'
I736
tp399
a(S'tr_lh'
I0
tp400
a(S'tr_lr'
I0
tp401
a(S'w'
I5
tp402
a(S'no_vo'
I2
tp403
a(S'w'
I725
tp404
a(S'p2_vo'
I0
tp405
a(S'w'
I8
tp406
a(S'no_vo'
I0
tp407
a(S'w'
I8794
tp408
a(S'ch_no'
I1
tp409
a(S'ch_tr'
I1
tp410
a(S'ch_p2'
I1
tp411
a(S'ch_p1'
I1
tp412
a(S'ch_no'
I1
tp413
a(S'ch_tr'
I1
tp414
a(S'ch_p2'
I1
tp415
a(S'ch_p1'
I1
tp416
a(S'w'
I52
tp417
a(S'p2_vo'
I15
tp418
a(S'w'
I2
tp419
a(S'p2_tl'
I255
tp420
a(S'w'
I1
tp421
a(S'p2_ll'
I4
tp422
a(S'p2_th'
I7
tp423
a(S'w'
I5
tp424
a(S'no_np'
I3
tp425
a(S'w'
I1
tp426
a(S'no_vo'
I4
tp427
a(S'w'
I678
tp428
a(S'p2_du'
I3
tp429
a(S'p2_vo'
I14
tp430
a(S'w'
I8
tp431
a(S'no_vo'
I1
tp432
a(S'w'
I728
tp433
a(S'p2_vo'
I13
tp434
a(S'w'
I8
tp435
a(S'no_vo'
I0
tp436
a(S'w'
I723
tp437
a(S'p2_vo'
I12
tp438
a(S'w'
I721
tp439
a(S'p2_vo'
I4
tp440
a(S'w'
I2972
tp441
a(S'ch_no'
I1
tp442
a(S'ch_tr'
I1
tp443
a(S'ch_p2'
I1
tp444
a(S'ch_p1'
I1
tp445
a(S'ch_no'
I1
tp446
a(S'ch_tr'
I1
tp447
a(S'ch_p2'
I1
tp448
a(S'ch_p1'
I1
tp449
a(S'w'
I68
tp450
a(S'p1_du'
I0
tp451
a(S'p1_vo'
I14
tp452
a(S'w'
I2
tp453
a(S'p1_ll'
I4
tp454
a(S'w'
I1
tp455
a(S'p2_du'
I2
tp456
a(S'p2_vo'
I15
tp457
a(S'w'
I2
tp458
a(S'p2_tl'
I244
tp459
a(S'w'
I1
tp460
a(S'p2_ll'
I6
tp461
a(S'p2_th'
I5
tp462
a(S'w'
I5
tp463
a(S'no_np'
I4
tp464
a(S'w'
I1
tp465
a(S'no_vo'
I9
tp466
a(S'w'
I636
tp467
a(S'p1_du'
I3
tp468
a(S'p1_vo'
I12
tp469
a(S'w'
I4
tp470
a(S'p2_du'
I3
tp471
a(S'p2_vo'
I14
tp472
a(S'w'
I8
tp473
a(S'no_vo'
I6
tp474
a(S'w'
I728
tp475
a(S'p1_vo'
I11
tp476
a(S'w'
I3
tp477
a(S'p2_vo'
I13
tp478
a(S'w'
I8
tp479
a(S'no_vo'
I4
tp480
a(S'w'
I719
tp481
a(S'p1_vo'
I10
tp482
a(S'w'
I4
tp483
a(S'p2_vo'
I12
tp484
a(S'w'
I8
tp485
a(S'no_vo'
I2
tp486
a(S'w'
I719
tp487
a(S'p1_vo'
I9
tp488
a(S'w'
I3
tp489
a(S'p2_vo'
I4
tp490
a(S'w'
I9
tp491
a(S'no_vo'
I0
tp492
a(S'w'
I710
tp493
a(S'p1_vo'
I3
tp494
a(S'w'
I1468
tp495
a(S'p1_vo'
I0
tp496
a(S'w'
I742
tp497
a(S'p2_vo'
I0
tp498
a(S'w'
I5890
tp499
a(S'ch_no'
I1
tp500
a(S'ch_tr'
I1
tp501
a(S'ch_p2'
I1
tp502
a(S'ch_p1'
I1
tp503
a(S'ch_no'
I1
tp504
a(S'ch_tr'
I1
tp505
a(S'ch_p2'
I1
tp506
a(S'ch_p1'
I1
tp507
a(S'w'
I71
tp508
a(S'p1_du'
I0
tp509
a(S'p1_vo'
I14
tp510
a(S'w'
I2
tp511
a(S'p1_tl'
I83
tp512
a(S'w'
I1
tp513
a(S'p1_ll'
I6
tp514
a(S'w'
I1
tp515
a(S'p2_du'
I2
tp516
a(S'p2_vo'
I12
tp517
a(S'w'
I1
tp518
a(S'p2_tl'
I59
tp519
a(S'w'
I1
tp520
a(S'p2_ll'
I4
tp521
a(S'p2_th'
I2
tp522
a(S'w'
I2
tp523
a(S'tr_lh'
I1
tp524
a(S'tr_lr'
I127
tp525
a(S'w'
I1
tp526
a(S'tr_tl'
I254
tp527
a(S'w'
I1
tp528
a(S'tr_ll'
I6
tp529
a(S'w'
I2
tp530
a(S'no_np'
I3
tp531
a(S'w'
I1
tp532
a(S'no_vo'
I4
tp533
a(S'w'
I628
tp534
a(S'p1_du'
I3
tp535
a(S'p1_vo'
I12
tp536
a(S'w'
I3
tp537
a(S'p2_vo'
I10
tp538
a(S'w'
I8
tp539
a(S'no_vo'
I1
tp540
a(S'w'
I724
tp541
a(S'p1_vo'
I11
tp542
a(S'w'
I11
tp543
a(S'no_vo'
I0
tp544
a(S'w'
I727
tp545
a(S'p1_vo'
I10
tp546
a(S'w'
I6
tp547
a(S'tr_lh'
I0
tp548
a(S'tr_lr'
I0
tp549
a(S'w'
I717
tp550
a(S'p1_vo'
I9
tp551
a(S'w'
I3
tp552
a(S'p2_vo'
I0
tp553
a(S'w'
I719
tp554
a(S'p1_vo'
I3
tp555
a(S'w'
I1467
tp556
a(S'p1_vo'
I0
tp557
a(S'w'
I777
tp558
a(S'ch_no'
I1
tp559
a(S'ch_tr'
I1
tp560
a(S'ch_p2'
I1
tp561
a(S'ch_p1'
I1
tp562
a(S'ch_no'
I1
tp563
a(S'ch_tr'
I1
tp564
a(S'ch_p2'
I1
tp565
a(S'ch_p1'
I1
tp566
a(S'w'
I67
tp567
a(S'p1_du'
I0
tp568
a(S'p1_vo'
I14
tp569
a(S'w'
I1
tp570
a(S'p1_tl'
I125
tp571
a(S'w'
I1
tp572
a(S'p1_ll'
I4
tp573
a(S'w'
I1
tp574
a(S'p2_vo'
I15
tp575
a(S'w'
I2
tp576
a(S'p2_tl'
I244
tp577
a(S'w'
I1
tp578
a(S'p2_ll'
I6
tp579
a(S'p2_th'
I5
tp580
a(S'w'
I5
tp581
a(S'no_np'
I4
tp582
a(S'w'
I1
tp583
a(S'no_vo'
I9
tp584
a(S'w'
I635
tp585
a(S'p1_du'
I3
tp586
a(S'p1_vo'
I12
tp587
a(S'w'
I4
tp588
a(S'p2_du'
I3
tp589
a(S'p2_vo'
I14
tp590
a(S'w'
I8
tp591
a(S'no_vo'
I6
tp592
a(S'w'
I728
tp593
a(S'p1_vo'
I11
tp594
a(S'w'
I3
tp595
a(S'p2_vo'
I13
tp596
a(S'w'
I8
tp597
a(S'no_vo'
I4
tp598
a(S'w'
I719
tp599
a(S'p1_vo'
I10
tp600
a(S'w'
I4
tp601
a(S'p2_vo'
I12
tp602
a(S'w'
I8
tp603
a(S'no_vo'
I2
tp604
a(S'w'
I719
tp605
a(S'p1_vo'
I9
tp606
a(S'w'
I3
tp607
a(S'p2_vo'
I4
tp608
a(S'w'
I9
tp609
a(S'no_vo'
I0
tp610
a(S'w'
I710
tp611
a(S'p1_vo'
I3
tp612
a(S'w'
I1468
tp613
a(S'p1_vo'
I0
tp614
a(S'w'
I742
tp615
a(S'p2_vo'
I0
tp616
a(S'w'
I5890
tp617
a(S'ch_no'
I1
tp618
a(S'ch_tr'
I1
tp619
a(S'ch_p2'
I1
tp620
a(S'ch_p1'
I1
tp621
a(S'ch_no'
I1
tp622
a(S'ch_tr'
I1
tp623
a(S'ch_p2'
I1
tp624
a(S'ch_p1'
I1
tp625
a(S'w'
I71
tp626
a(S'p1_du'
I0
tp627
a(S'p1_vo'
I14
tp628
a(S'w'
I2
tp629
a(S'p1_tl'
I171
tp630
a(S'w'
I1
tp631
a(S'p1_ll'
I6
tp632
a(S'w'
I1
tp633
a(S'p2_du'
I2
tp634
a(S'p2_vo'
I12
tp635
a(S'w'
I1
tp636
a(S'p2_tl'
I59
tp637
a(S'w'
I1
tp638
a(S'p2_ll'
I4
tp639
a(S'p2_th'
I2
tp640
a(S'w'
I2
tp641
a(S'tr_lh'
I1
tp642
a(S'tr_lr'
I127
tp643
a(S'w'
I2
tp644
a(S'tr_ll'
I4
tp645
a(S'w'
I2
tp646
a(S'no_np'
I3
tp647
a(S'w'
I1
tp648
a(S'no_vo'
I4
tp649
a(S'w'
I628
tp650
a(S'p1_du'
I3
tp651
a(S'p1_vo'
I12
tp652
a(S'w'
I3
tp653
a(S'p2_vo'
I10
tp654
a(S'w'
I8
tp655
a(S'no_vo'
I1
tp656
a(S'w'
I724
tp657
a(S'p1_vo'
I11
tp658
a(S'w'
I11
tp659
a(S'no_vo'
I0
tp660
a(S'w'
I727
tp661
a(S'p1_vo'
I10
tp662
a(S'w'
I6
tp663
a(S'tr_lh'
I0
tp664
a(S'tr_lr'
I0
tp665
a(S'w'
I717
tp666
a(S'p1_vo'
I9
tp667
a(S'w'
I3
tp668
a(S'p2_vo'
I0
tp669
a(S'w'
I719
tp670
a(S'p1_vo'
I3
tp671
a(S'w'
I1467
tp672
a(S'p1_vo'
I0
tp673
a(S'w'
I777
tp674
a(S'ch_no'
I1
tp675
a(S'ch_tr'
I1
tp676
a(S'ch_p2'
I1
tp677
a(S'ch_p1'
I1
tp678
a(S'w'
I1
tp679
a(S'ch_no'
I1
tp680
a(S'ch_tr'
I1
tp681
a(S'ch_p2'
I1
tp682
a(S'ch_p1'
I1
tp683
a(S'w'
I67
tp684
a(S'p1_du'
I0
tp685
a(S'p1_vo'
I14
tp686
a(S'w'
I2
tp687
a(S'p1_tl'
I125
tp688
a(S'p1_ll'
I4
tp689
a(S'w'
I2
tp690
a(S'p2_vo'
I15
tp691
a(S'w'
I1
tp692
a(S'p2_tl'
I244
tp693
a(S'w'
I1
tp694
a(S'p2_ll'
I6
tp695
a(S'p2_th'
I5
tp696
a(S'w'
I5
tp697
a(S'no_np'
I4
tp698
a(S'w'
I2
tp699
a(S'no_vo'
I9
tp700
a(S'w'
I633
tp701
a(S'p1_du'
I3
tp702
a(S'p1_vo'
I12
tp703
a(S'w'
I4
tp704
a(S'p2_du'
I3
tp705
a(S'p2_vo'
I14
tp706
a(S'w'
I8
tp707
a(S'no_vo'
I6
tp708
a(S'w'
I728
tp709
a(S'p1_vo'
I11
tp710
a(S'w'
I3
tp711
a(S'p2_vo'
I13
tp712
a(S'w'
I8
tp713
a(S'no_vo'
I4
tp714
a(S'w'
I719
tp715
a(S'p1_vo'
I10
tp716
a(S'w'
I4
tp717
a(S'p2_vo'
I12
tp718
a(S'w'
I8
tp719
a(S'no_vo'
I2
tp720
a(S'w'
I719
tp721
a(S'p1_vo'
I9
tp722
a(S'w'
I3
tp723
a(S'p2_vo'
I4
tp724
a(S'w'
I9
tp725
a(S'no_vo'
I0
tp726
a(S'w'
I710
tp727
a(S'p1_vo'
I3
tp728
a(S'w'
I1468
tp729
a(S'p1_vo'
I0
tp730
a(S'w'
I721
tp731
a(S'ch_no'
I1
tp732
a(S'ch_tr'
I1
tp733
a(S'ch_p2'
I1
tp734
a(S'ch_p1'
I1
tp735
a(S'ch_no'
I1
tp736
a(S'ch_tr'
I1
tp737
a(S'ch_p2'
I1
tp738
a(S'ch_p1'
I1
tp739
a(S'w'
I37
tp740
a(S'p2_vo'
I0
tp741
a(S'w'
I8
tp742
a(S'w'
I5868
tp743
a(S'ch_no'
I1
tp744
a(S'ch_tr'
I1
tp745
a(S'ch_p2'
I1
tp746
a(S'ch_p1'
I1
tp747
a(S'w'
I1
tp748
a(S'ch_no'
I1
tp749
a(S'ch_tr'
I1
tp750
a(S'ch_p2'
I1
tp751
a(S'ch_p1'
I1
tp752
a(S'w'
I73
tp753
a(S'p1_du'
I0
tp754
a(S'p1_vo'
I14
tp755
a(S'w'
I2
tp756
a(S'p1_ll'
I6
tp757
a(S'w'
I2
tp758
a(S'p2_du'
I2
tp759
a(S'p2_vo'
I12
tp760
a(S'w'
I1
tp761
a(S'p2_tl'
I59
tp762
a(S'w'
I1
tp763
a(S'p2_ll'
I4
tp764
a(S'p2_th'
I2
tp765
a(S'w'
I1
tp766
a(S'tr_lh'
I1
tp767
a(S'tr_lr'
I127
tp768
a(S'w'
I2
tp769
a(S'tr_tl'
I226
tp770
a(S'w'
I1
tp771
a(S'tr_ll'
I6
tp772
a(S'w'
I2
tp773
a(S'no_np'
I3
tp774
a(S'w'
I1
tp775
a(S'no_vo'
I4
tp776
a(S'w'
I623
tp777
a(S'p1_du'
I3
tp778
a(S'p1_vo'
I12
tp779
a(S'w'
I3
tp780
a(S'p2_vo'
I10
tp781
a(S'w'
I8
tp782
a(S'no_vo'
I1
tp783
a(S'w'
I724
tp784
a(S'p1_vo'
I11
tp785
a(S'w'
I11
tp786
a(S'no_vo'
I0
tp787
a(S'w'
I718
tp788
a(S'p1_vo'
I10
tp789
a(S'w'
I741
tp790
a(S'p1_vo'
I9
tp791
a(S'w'
I3
tp792
a(S'p2_vo'
I0
tp793
a(S'w'
I4
tp794
a(S'tr_lh'
I0
tp795
a(S'tr_lr'
I0
tp796
a(S'w'
I706
tp797
a(S'p1_vo'
I3
tp798
a(S'w'
I1467
tp799
a(S'p1_vo'
I0
tp800
a(S'w'
I767
tp801
a(S'ch_no'
I1
tp802
a(S'ch_tr'
I1
tp803
a(S'ch_p2'
I1
tp804
a(S'ch_p1'
I1
tp805
a(S'w'
I1
tp806
a(S'ch_no'
I1
tp807
a(S'ch_tr'
I1
tp808
a(S'ch_p2'
I1
tp809
a(S'ch_p1'
I1
tp810
a(S'w'
I83
tp811
a(S'p1_du'
I0
tp812
a(S'p1_vo'
I14
tp813
a(S'w'
I1
tp814
a(S'p1_tl'
I253
tp815
a(S'w'
I1
tp816
a(S'p1_ll'
I4
tp817
a(S'w'
I2
tp818
a(S'p2_vo'
I12
tp819
a(S'w'
I1
tp820
a(S'p2_tl'
I253
tp821
a(S'w'
I1
tp822
a(S'p2_ll'
I6
tp823
a(S'p2_th'
I1
tp824
a(S'w'
I1
tp825
a(S'tr_lh'
I1
tp826
a(S'tr_lr'
I127
tp827
a(S'w'
I2
tp828
a(S'tr_tl'
I213
tp829
a(S'w'
I1
tp830
a(S'tr_ll'
I4
tp831
a(S'w'
I2
tp832
a(S'no_np'
I4
tp833
a(S'w'
I1
tp834
a(S'no_vo'
I9
tp835
a(S'w'
I621
tp836
a(S'p1_du'
I3
tp837
a(S'p1_vo'
I12
tp838
a(S'w'
I3
tp839
a(S'p2_vo'
I10
tp840
a(S'w'
I9
tp841
a(S'no_vo'
I6
tp842
a(S'w'
I724
tp843
a(S'p1_vo'
I11
tp844
a(S'w'
I11
tp845
a(S'no_vo'
I4
tp846
a(S'w'
I719
tp847
a(S'p1_vo'
I10
tp848
a(S'w'
I11
tp849
a(S'no_vo'
I2
tp850
a(S'w'
I722
tp851
a(S'p1_vo'
I9
tp852
a(S'w'
I12
tp853
a(S'no_vo'
I0
tp854
a(S'w'
I736
tp855
a(S'p1_vo'
I3
tp856
a(S'w'
I3
tp857
a(S'p2_vo'
I0
tp858
a(S'w'
I4
tp859
a(S'tr_lh'
I0
tp860
a(S'tr_lr'
I0
tp861
a(S'w'
I1443
tp862
a(S'p1_vo'
I0
tp863
a(S'w'
I6605
tp864
a(S'ch_no'
I1
tp865
a(S'ch_tr'
I1
tp866
a(S'ch_p2'
I1
tp867
a(S'ch_p1'
I1
tp868
a(S'ch_no'
I1
tp869
a(S'ch_tr'
I1
tp870
a(S'ch_p2'
I1
tp871
a(S'ch_p1'
I1
tp872
a(S'w'
I77
tp873
a(S'p2_vo'
I12
tp874
a(S'w'
I1
tp875
a(S'p2_tl'
I59
tp876
a(S'w'
I1
tp877
a(S'p2_ll'
I4
tp878
a(S'p2_th'
I2
tp879
a(S'w'
I1
tp880
a(S'tr_lh'
I1
tp881
a(S'tr_lr'
I127
tp882
a(S'w'
I2
tp883
a(S'tr_tl'
I226
tp884
a(S'w'
I1
tp885
a(S'tr_ll'
I6
tp886
a(S'w'
I2
tp887
a(S'no_np'
I3
tp888
a(S'w'
I1
tp889
a(S'no_vo'
I4
tp890
a(S'w'
I647
tp891
a(S'p2_vo'
I10
tp892
a(S'w'
I8
tp893
a(S'no_vo'
I1
tp894
a(S'w'
I736
tp895
a(S'tr_lh'
I0
tp896
a(S'tr_lr'
I0
tp897
a(S'w'
I5
tp898
a(S'no_vo'
I0
tp899
a(S'w'
I1445
tp900
a(S'p2_vo'
I0
tp901
a(S'w'
I2975
tp902
a(S'ch_no'
I1
tp903
a(S'ch_tr'
I1
tp904
a(S'ch_p2'
I1
tp905
a(S'ch_p1'
I1
tp906
a(S'ch_no'
I1
tp907
a(S'ch_tr'
I1
tp908
a(S'ch_p2'
I1
tp909
a(S'ch_p1'
I1
tp910
a(S'w'
I86
tp911
a(S'p1_du'
I0
tp912
a(S'p1_vo'
I14
tp913
a(S'w'
I2
tp914
a(S'p1_tl'
I125
tp915
a(S'w'
I1
tp916
a(S'p1_ll'
I6
tp917
a(S'w'
I1
tp918
a(S'p2_vo'
I15
tp919
a(S'w'
I2
tp920
a(S'p2_tl'
I244
tp921
a(S'w'
I1
tp922
a(S'p2_ll'
I6
tp923
a(S'p2_th'
I5
tp924
a(S'w'
I1
tp925
a(S'tr_lh'
I1
tp926
a(S'tr_lr'
I127
tp927
a(S'w'
I2
tp928
a(S'tr_tl'
I254
tp929
a(S'w'
I1
tp930
a(S'tr_ll'
I4
tp931
a(S'w'
I1
tp932
a(S'no_np'
I4
tp933
a(S'w'
I2
tp934
a(S'no_vo'
I9
tp935
a(S'w'
I613
tp936
a(S'p1_du'
I3
tp937
a(S'p1_vo'
I12
tp938
a(S'w'
I4
tp939
a(S'p2_du'
I3
tp940
a(S'p2_vo'
I14
tp941
a(S'w'
I8
tp942
a(S'no_vo'
I6
tp943
a(S'w'
I728
tp944
a(S'p1_vo'
I11
tp945
a(S'w'
I3
tp946
a(S'p2_vo'
I13
tp947
a(S'w'
I9
tp948
a(S'no_vo'
I4
tp949
a(S'w'
I719
tp950
a(S'p1_vo'
I10
tp951
a(S'w'
I3
tp952
a(S'p2_vo'
I12
tp953
a(S'w'
I8
tp954
a(S'no_vo'
I2
tp955
a(S'w'
I719
tp956
a(S'p1_vo'
I9
tp957
a(S'w'
I4
tp958
a(S'p2_vo'
I4
tp959
a(S'w'
I8
tp960
a(S'no_vo'
I0
tp961
a(S'w'
I719
tp962
a(S'p1_vo'
I3
tp963
a(S'w'
I6
tp964
a(S'tr_lh'
I0
tp965
a(S'tr_lr'
I0
tp966
a(S'w'
I1453
tp967
a(S'p1_vo'
I0
tp968
a(S'w'
I745
tp969
a(S'p2_vo'
I0
tp970
a(S'w'
I5887
tp971
a(S'ch_no'
I1
tp972
a(S'ch_tr'
I1
tp973
a(S'ch_p2'
I1
tp974
a(S'ch_p1'
I1
tp975
a(S'ch_no'
I1
tp976
a(S'ch_tr'
I1
tp977
a(S'ch_p2'
I1
tp978
a(S'ch_p1'
I1
tp979
a(S'w'
I71
tp980
a(S'p1_du'
I0
tp981
a(S'p1_vo'
I14
tp982
a(S'w'
I2
tp983
a(S'p1_tl'
I83
tp984
a(S'w'
I1
tp985
a(S'p1_ll'
I4
tp986
a(S'w'
I1
tp987
a(S'p2_du'
I2
tp988
a(S'p2_vo'
I12
tp989
a(S'w'
I2
tp990
a(S'p2_tl'
I250
tp991
a(S'p2_ll'
I4
tp992
a(S'p2_th'
I2
tp993
a(S'w'
I2
tp994
a(S'tr_lh'
I1
tp995
a(S'tr_lr'
I127
tp996
a(S'w'
I1
tp997
a(S'tr_tl'
I226
tp998
a(S'w'
I1
tp999
a(S'tr_ll'
I6
tp1000
a(S'w'
I2
tp1001
a(S'no_np'
I3
tp1002
a(S'w'
I1
tp1003
a(S'no_vo'
I4
tp1004
a(S'w'
I628
tp1005
a(S'p1_du'
I3
tp1006
a(S'p1_vo'
I12
tp1007
a(S'w'
I3
tp1008
a(S'p2_vo'
I10
tp1009
a(S'w'
I8
tp1010
a(S'no_vo'
I1
tp1011
a(S'w'
I724
tp1012
a(S'p1_vo'
I11
tp1013
a(S'w'
I11
tp1014
a(S'no_vo'
I0
tp1015
a(S'w'
I718
tp1016
a(S'p1_vo'
I10
tp1017
a(S'w'
I733
tp1018
a(S'p1_vo'
I9
tp1019
a(S'w'
I3
tp1020
a(S'p2_vo'
I0
tp1021
a(S'w'
I727
tp1022
a(S'p1_vo'
I3
tp1023
a(S'w'
I7
tp1024
a(S'tr_lh'
I0
tp1025
a(S'tr_lr'
I0
tp1026
a(S'w'
I1451
tp1027
a(S'p1_vo'
I0
tp1028
a(S'w'
I772
tp1029
a(S'ch_no'
I1
tp1030
a(S'ch_tr'
I1
tp1031
a(S'ch_p2'
I1
tp1032
a(S'ch_p1'
I1
tp1033
a(S'ch_no'
I1
tp1034
a(S'ch_tr'
I1
tp1035
a(S'ch_p2'
I1
tp1036
a(S'ch_p1'
I1
tp1037
a(S'w'
I81
tp1038
a(S'p1_du'
I0
tp1039
a(S'p1_vo'
I14
tp1040
a(S'w'
I2
tp1041
a(S'p1_tl'
I125
tp1042
a(S'w'
I1
tp1043
a(S'p1_ll'
I6
tp1044
a(S'w'
I1
tp1045
a(S'p2_vo'
I15
tp1046
a(S'w'
I2
tp1047
a(S'p2_tl'
I244
tp1048
a(S'p2_ll'
I6
tp1049
a(S'p2_th'
I5
tp1050
a(S'w'
I2
tp1051
a(S'tr_lh'
I1
tp1052
a(S'tr_lr'
I127
tp1053
a(S'w'
I1
tp1054
a(S'tr_tl'
I254
tp1055
a(S'w'
I1
tp1056
a(S'tr_ll'
I4
tp1057
a(S'w'
I2
tp1058
a(S'no_np'
I4
tp1059
a(S'w'
I1
tp1060
a(S'no_vo'
I9
tp1061
a(S'w'
I626
tp1062
a(S'p1_du'
I3
tp1063
a(S'p1_vo'
I12
tp1064
a(S'w'
I3
tp1065
a(S'p2_du'
I3
tp1066
a(S'p2_vo'
I14
tp1067
a(S'w'
I8
tp1068
a(S'no_vo'
I6
tp1069
a(S'w'
I728
tp1070
a(S'p1_vo'
I11
tp1071
a(S'w'
I3
tp1072
a(S'p2_vo'
I13
tp1073
a(S'w'
I9
tp1074
a(S'no_vo'
I4
tp1075
a(S'w'
I719
tp1076
a(S'p1_vo'
I10
tp1077
a(S'w'
I3
tp1078
a(S'p2_vo'
I12
tp1079
a(S'w'
I8
tp1080
a(S'no_vo'
I2
tp1081
a(S'w'
I719
tp1082
a(S'p1_vo'
I9
tp1083
a(S'w'
I4
tp1084
a(S'p2_vo'
I4
tp1085
a(S'w'
I8
tp1086
a(S'no_vo'
I0
tp1087
a(S'w'
I719
tp1088
a(S'p1_vo'
I3
tp1089
a(S'w'
I6
tp1090
a(S'tr_lh'
I0
tp1091
a(S'tr_lr'
I0
tp1092
a(S'w'
I1453
tp1093
a(S'p1_vo'
I0
tp1094
a(S'w'
I746
tp1095
a(S'p2_vo'
I0
tp1096
a(S'w'
I5871
tp1097
a(S'ch_no'
I1
tp1098
a(S'ch_tr'
I1
tp1099
a(S'ch_p2'
I1
tp1100
a(S'ch_p1'
I1
tp1101
a(S'ch_no'
I1
tp1102
a(S'ch_tr'
I1
tp1103
a(S'ch_p2'
I1
tp1104
a(S'ch_p1'
I1
tp1105
a(S'w'
I71
tp1106
a(S'p1_du'
I0
tp1107
a(S'p1_vo'
I14
tp1108
a(S'w'
I2
tp1109
a(S'p1_tl'
I171
tp1110
a(S'w'
I1
tp1111
a(S'p1_ll'
I4
tp1112
a(S'w'
I1
tp1113
a(S'p2_du'
I2
tp1114
a(S'p2_vo'
I15
tp1115
a(S'w'
I2
tp1116
a(S'p2_ll'
I4
tp1117
a(S'w'
I1
tp1118
a(S'tr_lh'
I1
tp1119
a(S'tr_lr'
I127
tp1120
a(S'w'
I2
tp1121
a(S'tr_tl'
I29
tp1122
a(S'w'
I1
tp1123
a(S'tr_ll'
I6
tp1124
a(S'tr_th'
I1
tp1125
a(S'w'
I2
tp1126
a(S'no_np'
I3
tp1127
a(S'w'
I1
tp1128
a(S'no_vo'
I4
tp1129
a(S'w'
I649
tp1130
a(S'p1_du'
I3
tp1131
a(S'p1_vo'
I12
tp1132
a(S'w'
I3
tp1133
a(S'p2_du'
I3
tp1134
a(S'p2_vo'
I14
tp1135
a(S'w'
I9
tp1136
a(S'no_vo'
I1
tp1137
a(S'w'
I728
tp1138
a(S'p1_vo'
I11
tp1139
a(S'w'
I3
tp1140
a(S'p2_vo'
I13
tp1141
a(S'w'
I8
tp1142
a(S'no_vo'
I0
tp1143
a(S'w'
I718
tp1144
a(S'p1_vo'
I10
tp1145
a(S'w'
I3
tp1146
a(S'p2_vo'
I12
tp1147
a(S'w'
I718
tp1148
a(S'p1_vo'
I9
tp1149
a(S'w'
I3
tp1150
a(S'p2_vo'
I4
tp1151
a(S'w'
I728
tp1152
a(S'p1_vo'
I3
tp1153
a(S'w'
I7
tp1154
a(S'tr_lh'
I0
tp1155
a(S'tr_lr'
I0
tp1156
a(S'w'
I1451
tp1157
a(S'p1_vo'
I0
tp1158
a(S'w'
I781
tp1159
a(S'ch_no'
I1
tp1160
a(S'ch_tr'
I1
tp1161
a(S'ch_p2'
I1
tp1162
a(S'ch_p1'
I1
tp1163
a(S'ch_no'
I1
tp1164
a(S'ch_tr'
I1
tp1165
a(S'ch_p2'
I1
tp1166
a(S'ch_p1'
I1
tp1167
a(S'w'
I81
tp1168
a(S'p1_du'
I0
tp1169
a(S'p1_vo'
I14
tp1170
a(S'w'
I2
tp1171
a(S'p1_tl'
I125
tp1172
a(S'w'
I1
tp1173
a(S'p1_ll'
I6
tp1174
a(S'w'
I1
tp1175
a(S'p2_du'
I2
tp1176
a(S'p2_vo'
I12
tp1177
a(S'w'
I2
tp1178
a(S'p2_tl'
I250
tp1179
a(S'w'
I1
tp1180
a(S'p2_ll'
I6
tp1181
a(S'p2_th'
I2
tp1182
a(S'w'
I1
tp1183
a(S'tr_lh'
I1
tp1184
a(S'tr_lr'
I127
tp1185
a(S'w'
I1
tp1186
a(S'tr_tl'
I254
tp1187
a(S'w'
I1
tp1188
a(S'tr_ll'
I4
tp1189
a(S'tr_th'
I0
tp1190
a(S'w'
I2
tp1191
a(S'no_np'
I4
tp1192
a(S'w'
I1
tp1193
a(S'no_vo'
I9
tp1194
a(S'w'
I610
tp1195
a(S'p1_du'
I3
tp1196
a(S'p1_vo'
I12
tp1197
a(S'w'
I3
tp1198
a(S'p2_vo'
I10
tp1199
a(S'w'
I8
tp1200
a(S'no_vo'
I6
tp1201
a(S'w'
I724
tp1202
a(S'p1_vo'
I11
tp1203
a(S'w'
I11
tp1204
a(S'no_vo'
I4
tp1205
a(S'w'
I720
tp1206
a(S'p1_vo'
I10
tp1207
a(S'w'
I12
tp1208
a(S'no_vo'
I2
tp1209
a(S'w'
I722
tp1210
a(S'p1_vo'
I9
tp1211
a(S'w'
I11
tp1212
a(S'no_vo'
I0
tp1213
a(S'w'
I736
tp1214
a(S'p1_vo'
I3
tp1215
a(S'w'
I3
tp1216
a(S'p2_vo'
I0
tp1217
a(S'w'
I4
tp1218
a(S'tr_lh'
I0
tp1219
a(S'tr_lr'
I0
tp1220
a(S'w'
I1443
tp1221
a(S'p1_vo'
I0
tp1222
a(S'w'
I767
tp1223
a(S'p2_vo'
I13
tp1224
a(S'w'
I2
tp1225
a(S'p2_tl'
I252
tp1226
a(S'w'
I1
tp1227
a(S'p2_ll'
I4
tp1228
a(S'p2_th'
I3
tp1229
a(S'w'
I690
tp1230
a(S'p2_vo'
I11
tp1231
a(S'w'
I2936
tp1232
a(S'p2_vo'
I0
tp1233
a(S'w'
I2233
tp1234
a(S'ch_no'
I1
tp1235
a(S'ch_tr'
I1
tp1236
a(S'ch_p2'
I1
tp1237
a(S'ch_p1'
I1
tp1238
a(S'ch_no'
I1
tp1239
a(S'ch_tr'
I1
tp1240
a(S'ch_p2'
I1
tp1241
a(S'ch_p1'
I1
tp1242
a(S'w'
I71
tp1243
a(S'p1_du'
I0
tp1244
a(S'p1_vo'
I14
tp1245
a(S'w'
I3
tp1246
a(S'p1_ll'
I4
tp1247
a(S'w'
I1
tp1248
a(S'p2_vo'
I14
tp1249
a(S'w'
I1
tp1250
a(S'p2_tl'
I244
tp1251
a(S'w'
I1
tp1252
a(S'p2_ll'
I6
tp1253
a(S'p2_th'
I5
tp1254
a(S'w'
I2
tp1255
a(S'tr_lh'
I1
tp1256
a(S'tr_lr'
I127
tp1257
a(S'w'
I2
tp1258
a(S'tr_ll'
I6
tp1259
a(S'w'
I2
tp1260
a(S'no_np'
I3
tp1261
a(S'w'
I1
tp1262
a(S'no_vo'
I4
tp1263
a(S'w'
I631
tp1264
a(S'p1_du'
I3
tp1265
a(S'p1_vo'
I12
tp1266
a(S'w'
I3
tp1267
a(S'p2_vo'
I12
tp1268
a(S'w'
I8
tp1269
a(S'no_vo'
I1
tp1270
a(S'w'
I724
tp1271
a(S'p1_vo'
I11
tp1272
a(S'w'
I11
tp1273
a(S'no_vo'
I0
tp1274
a(S'w'
I718
tp1275
a(S'p1_vo'
I10
tp1276
a(S'w'
I714
tp1277
a(S'ch_no'
I1
tp1278
a(S'ch_tr'
I1
tp1279
a(S'ch_p2'
I1
tp1280
a(S'ch_p1'
I1
tp1281
a(S'ch_no'
I1
tp1282
a(S'ch_tr'
I1
tp1283
a(S'ch_p2'
I1
tp1284
a(S'ch_p1'
I1
tp1285
a(S'w'
I26
tp1286
a(S'p1_vo'
I9
tp1287
a(S'w'
I11
tp1288
a(S'w'
I722
tp1289
a(S'p1_vo'
I3
tp1290
a(S'w'
I4
tp1291
a(S'p2_vo'
I0
tp1292
a(S'w'
I3
tp1293
a(S'tr_lh'
I0
tp1294
a(S'tr_lr'
I0
tp1295
a(S'w'
I1443
tp1296
a(S'p1_vo'
I0
tp1297
a(S'w'
I763
tp1298
a(S'ch_no'
I1
tp1299
a(S'ch_tr'
I1
tp1300
a(S'ch_p2'
I1
tp1301
a(S'ch_p1'
I1
tp1302
a(S'ch_no'
I1
tp1303
a(S'ch_tr'
I1
tp1304
a(S'ch_p2'
I1
tp1305
a(S'ch_p1'
I1
tp1306
a(S'w'
I81
tp1307
a(S'p1_du'
I0
tp1308
a(S'p1_vo'
I14
tp1309
a(S'w'
I1
tp1310
a(S'p1_tl'
I29
tp1311
a(S'w'
I1
tp1312
a(S'p1_ll'
I6
tp1313
a(S'w'
I1
tp1314
a(S'p2_vo'
I15
tp1315
a(S'w'
I2
tp1316
a(S'p2_tl'
I78
tp1317
a(S'w'
I1
tp1318
a(S'p2_ll'
I4
tp1319
a(S'w'
I1
tp1320
a(S'tr_lh'
I1
tp1321
a(S'tr_lr'
I127
tp1322
a(S'w'
I2
tp1323
a(S'tr_tl'
I190
tp1324
a(S'w'
I1
tp1325
a(S'tr_ll'
I4
tp1326
a(S'w'
I1
tp1327
a(S'no_np'
I4
tp1328
a(S'w'
I2
tp1329
a(S'no_vo'
I9
tp1330
a(S'w'
I633
tp1331
a(S'p1_du'
I3
tp1332
a(S'p1_vo'
I12
tp1333
a(S'w'
I3
tp1334
a(S'p2_du'
I3
tp1335
a(S'p2_vo'
I14
tp1336
a(S'w'
I8
tp1337
a(S'no_vo'
I6
tp1338
a(S'w'
I728
tp1339
a(S'p1_vo'
I11
tp1340
a(S'w'
I3
tp1341
a(S'p2_vo'
I13
tp1342
a(S'w'
I9
tp1343
a(S'no_vo'
I4
tp1344
a(S'w'
I719
tp1345
a(S'p1_vo'
I10
tp1346
a(S'w'
I3
tp1347
a(S'p2_vo'
I12
tp1348
a(S'w'
I8
tp1349
a(S'no_vo'
I2
tp1350
a(S'w'
I719
tp1351
a(S'p1_vo'
I9
tp1352
a(S'w'
I4
tp1353
a(S'p2_vo'
I4
tp1354
a(S'w'
I8
tp1355
a(S'no_vo'
I0
tp1356
a(S'w'
I719
tp1357
a(S'p1_vo'
I3
tp1358
a(S'w'
I6
tp1359
a(S'tr_lh'
I0
tp1360
a(S'tr_lr'
I0
tp1361
a(S'w'
I1453
tp1362
a(S'p1_vo'
I0
tp1363
a(S'w'
I751
tp1364
a(S'p2_vo'
I0
tp1365
a(S'w'
I5845
tp1366
a(S'ch_no'
I1
tp1367
a(S'ch_tr'
I1
tp1368
a(S'ch_p2'
I1
tp1369
a(S'ch_p1'
I1
tp1370
a(S'ch_no'
I1
tp1371
a(S'ch_tr'
I1
tp1372
a(S'ch_p2'
I1
tp1373
a(S'ch_p1'
I1
tp1374
a(S'w'
I74
tp1375
a(S'p2_du'
I2
tp1376
a(S'p2_vo'
I15
tp1377
a(S'w'
I2
tp1378
a(S'p2_tl'
I28
tp1379
a(S'w'
I1
tp1380
a(S'p2_ll'
I6
tp1381
a(S'p2_th'
I7
tp1382
a(S'w'
I1
tp1383
a(S'tr_lh'
I1
tp1384
a(S'tr_lr'
I127
tp1385
a(S'w'
I2
tp1386
a(S'tr_tl'
I125
tp1387
a(S'w'
I1
tp1388
a(S'tr_ll'
I6
tp1389
a(S'tr_th'
I1
tp1390
a(S'w'
I1
tp1391
a(S'no_np'
I3
tp1392
a(S'w'
I2
tp1393
a(S'no_vo'
I4
tp1394
a(S'w'
I664
tp1395
a(S'p2_du'
I3
tp1396
a(S'p2_vo'
I14
tp1397
a(S'w'
I9
tp1398
a(S'no_vo'
I1
tp1399
a(S'w'
I736
tp1400
a(S'p2_vo'
I13
tp1401
a(S'w'
I3
tp1402
a(S'tr_lh'
I0
tp1403
a(S'tr_lr'
I0
tp1404
a(S'w'
I6
tp1405
a(S'no_vo'
I0
tp1406
a(S'w'
I713
tp1407
a(S'p2_vo'
I12
tp1408
a(S'w'
I721
tp1409
a(S'p2_vo'
I4
tp1410
a(S'w'
I2956
tp1411
a(S'ch_no'
I1
tp1412
a(S'ch_tr'
I1
tp1413
a(S'ch_p2'
I1
tp1414
a(S'ch_p1'
I1
tp1415
a(S'ch_no'
I1
tp1416
a(S'ch_tr'
I1
tp1417
a(S'ch_p2'
I1
tp1418
a(S'ch_p1'
I1
tp1419
a(S'w'
I86
tp1420
a(S'p1_du'
I0
tp1421
a(S'p1_vo'
I14
tp1422
a(S'w'
I2
tp1423
a(S'p1_tl'
I254
tp1424
a(S'p1_ll'
I4
tp1425
a(S'p1_th'
I0
tp1426
a(S'w'
I2
tp1427
a(S'p2_du'
I2
tp1428
a(S'p2_vo'
I15
tp1429
a(S'w'
I1
tp1430
a(S'p2_tl'
I252
tp1431
a(S'w'
I1
tp1432
a(S'p2_ll'
I4
tp1433
a(S'p2_th'
I3
tp1434
a(S'w'
I1
tp1435
a(S'tr_lh'
I1
tp1436
a(S'tr_lr'
I127
tp1437
a(S'w'
I2
tp1438
a(S'tr_tl'
I213
tp1439
a(S'w'
I1
tp1440
a(S'tr_ll'
I4
tp1441
a(S'tr_th'
I0
tp1442
a(S'w'
I2
tp1443
a(S'no_np'
I4
tp1444
a(S'w'
I1
tp1445
a(S'no_vo'
I9
tp1446
a(S'w'
I634
tp1447
a(S'p1_du'
I3
tp1448
a(S'p1_vo'
I12
tp1449
a(S'w'
I3
tp1450
a(S'p2_du'
I3
tp1451
a(S'p2_vo'
I14
tp1452
a(S'w'
I8
tp1453
a(S'no_vo'
I6
tp1454
a(S'w'
I728
tp1455
a(S'p1_vo'
I11
tp1456
a(S'w'
I3
tp1457
a(S'p2_vo'
I13
tp1458
a(S'w'
I9
tp1459
a(S'no_vo'
I4
tp1460
a(S'w'
I719
tp1461
a(S'p1_vo'
I10
tp1462
a(S'w'
I3
tp1463
a(S'p2_vo'
I12
tp1464
a(S'w'
I8
tp1465
a(S'no_vo'
I2
tp1466
a(S'w'
I719
tp1467
a(S'p1_vo'
I9
tp1468
a(S'w'
I4
tp1469
a(S'p2_vo'
I4
tp1470
a(S'w'
I8
tp1471
a(S'no_vo'
I0
tp1472
a(S'w'
I719
tp1473
a(S'p1_vo'
I3
tp1474
a(S'w'
I6
tp1475
a(S'tr_lh'
I0
tp1476
a(S'tr_lr'
I0
tp1477
a(S'w'
I1453
tp1478
a(S'p1_vo'
I0
tp1479
a(S'w'
I755
tp1480
a(S'p2_du'
I2
tp1481
a(S'p2_vo'
I15
tp1482
a(S'w'
I2
tp1483
a(S'p2_tl'
I255
tp1484
a(S'p2_ll'
I6
tp1485
a(S'p2_th'
I7
tp1486
a(S'w'
I710
tp1487
a(S'p2_du'
I3
tp1488
a(S'p2_vo'
I14
tp1489
a(S'w'
I729
tp1490
a(S'p2_vo'
I13
tp1491
a(S'w'
I734
tp1492
a(S'p2_vo'
I12
tp1493
a(S'w'
I731
tp1494
a(S'p2_vo'
I4
tp1495
a(S'w'
I2941
tp1496
a(S'ch_no'
I1
tp1497
a(S'ch_tr'
I1
tp1498
a(S'ch_p2'
I1
tp1499
a(S'ch_p1'
I1
tp1500
a(S'ch_no'
I1
tp1501
a(S'ch_tr'
I1
tp1502
a(S'ch_p2'
I1
tp1503
a(S'ch_p1'
I1
tp1504
a(S'w'
I52
tp1505
a(S'p2_du'
I2
tp1506
a(S'p2_vo'
I15
tp1507
a(S'w'
I2
tp1508
a(S'p2_tl'
I78
tp1509
a(S'w'
I1
tp1510
a(S'p2_ll'
I4
tp1511
a(S'p2_th'
I5
tp1512
a(S'w'
I4
tp1513
a(S'no_np'
I3
tp1514
a(S'w'
I2
tp1515
a(S'no_vo'
I4
tp1516
a(S'w'
I682
tp1517
a(S'p2_du'
I3
tp1518
a(S'p2_vo'
I14
tp1519
a(S'w'
I8
tp1520
a(S'no_vo'
I1
tp1521
a(S'w'
I728
tp1522
a(S'p2_vo'
I13
tp1523
a(S'w'
I8
tp1524
a(S'no_vo'
I0
tp1525
a(S'w'
I721
tp1526
a(S'p2_vo'
I12
tp1527
a(S'w'
I721
tp1528
a(S'p2_vo'
I4
tp1529
a(S'w'
I2941
tp1530
a(S'ch_no'
I1
tp1531
a(S'ch_tr'
I1
tp1532
a(S'ch_p2'
I1
tp1533
a(S'ch_p1'
I1
tp1534
a(S'ch_no'
I1
tp1535
a(S'ch_tr'
I1
tp1536
a(S'ch_p2'
I1
tp1537
a(S'ch_p1'
I1
tp1538
a(S'w'
I61
tp1539
a(S'p2_du'
I2
tp1540
a(S'p2_vo'
I15
tp1541
a(S'w'
I2
tp1542
a(S'p2_tl'
I252
tp1543
a(S'w'
I1
tp1544
a(S'p2_ll'
I6
tp1545
a(S'p2_th'
I3
tp1546
a(S'w'
I5
tp1547
a(S'no_np'
I4
tp1548
a(S'w'
I1
tp1549
a(S'no_vo'
I9
tp1550
a(S'w'
I673
tp1551
a(S'p2_du'
I3
tp1552
a(S'p2_vo'
I14
tp1553
a(S'w'
I8
tp1554
a(S'no_vo'
I6
tp1555
a(S'w'
I728
tp1556
a(S'p2_vo'
I13
tp1557
a(S'w'
I8
tp1558
a(S'no_vo'
I4
tp1559
a(S'w'
I724
tp1560
a(S'p2_vo'
I12
tp1561
a(S'w'
I8
tp1562
a(S'no_vo'
I2
tp1563
a(S'w'
I722
tp1564
a(S'p2_vo'
I4
tp1565
a(S'w'
I8
tp1566
a(S'no_vo'
I0
tp1567
a(S'w'
I2911
tp1568
a(S'ch_no'
I1
tp1569
a(S'ch_tr'
I1
tp1570
a(S'ch_p2'
I1
tp1571
a(S'ch_p1'
I1
tp1572
a(S'ch_no'
I1
tp1573
a(S'ch_tr'
I1
tp1574
a(S'ch_p2'
I1
tp1575
a(S'ch_p1'
I1
tp1576
a(S'w'
I37
tp1577
a(S'p2_vo'
I0
tp1578
a(S'w'
I9
tp1579
a(S'w'
I5860
tp1580
a(S'ch_no'
I1
tp1581
a(S'ch_tr'
I1
tp1582
a(S'ch_p2'
I1
tp1583
a(S'ch_p1'
I1
tp1584
a(S'ch_no'
I1
tp1585
a(S'ch_tr'
I1
tp1586
a(S'ch_p2'
I1
tp1587
a(S'ch_p1'
I1
tp1588
a(S'w'
I72
tp1589
a(S'p1_du'
I0
tp1590
a(S'p1_vo'
I14
tp1591
a(S'w'
I1
tp1592
a(S'p1_tl'
I29
tp1593
a(S'w'
I1
tp1594
a(S'p1_ll'
I6
tp1595
a(S'p1_th'
I1
tp1596
a(S'w'
I1
tp1597
a(S'p2_du'
I2
tp1598
a(S'p2_vo'
I14
tp1599
a(S'w'
I2
tp1600
a(S'p2_tl'
I167
tp1601
a(S'w'
I1
tp1602
a(S'p2_ll'
I4
tp1603
a(S'p2_th'
I2
tp1604
a(S'w'
I1
tp1605
a(S'tr_lh'
I1
tp1606
a(S'tr_lr'
I127
tp1607
a(S'w'
I2
tp1608
a(S'tr_tl'
I226
tp1609
a(S'w'
I1
tp1610
a(S'tr_ll'
I6
tp1611
a(S'w'
I1
tp1612
a(S'no_np'
I3
tp1613
a(S'w'
I2
tp1614
a(S'no_vo'
I4
tp1615
a(S'w'
I639
tp1616
a(S'p1_du'
I3
tp1617
a(S'p1_vo'
I12
tp1618
a(S'w'
I3
tp1619
a(S'p2_du'
I3
tp1620
a(S'p2_vo'
I13
tp1621
a(S'w'
I8
tp1622
a(S'no_vo'
I1
tp1623
a(S'w'
I728
tp1624
a(S'p1_vo'
I11
tp1625
a(S'w'
I3
tp1626
a(S'p2_vo'
I12
tp1627
a(S'w'
I9
tp1628
a(S'no_vo'
I0
tp1629
a(S'w'
I716
tp1630
a(S'p1_vo'
I10
tp1631
a(S'w'
I4
tp1632
a(S'p2_vo'
I11
tp1633
a(S'w'
I718
tp1634
a(S'p1_vo'
I9
tp1635
a(S'w'
I3
tp1636
a(S'p2_vo'
I3
tp1637
a(S'w'
I728
tp1638
a(S'p1_vo'
I3
tp1639
a(S'w'
I7
tp1640
a(S'tr_lh'
I0
tp1641
a(S'tr_lr'
I0
tp1642
a(S'w'
I1451
tp1643
a(S'p1_vo'
I0
tp1644
a(S'w'
I769
tp1645
a(S'ch_no'
I1
tp1646
a(S'ch_tr'
I1
tp1647
a(S'ch_p2'
I1
tp1648
a(S'ch_p1'
I1
tp1649
a(S'ch_no'
I1
tp1650
a(S'ch_tr'
I1
tp1651
a(S'ch_p2'
I1
tp1652
a(S'ch_p1'
I1
tp1653
a(S'w'
I83
tp1654
a(S'p1_du'
I0
tp1655
a(S'p1_vo'
I14
tp1656
a(S'w'
I3
tp1657
a(S'p1_ll'
I4
tp1658
a(S'w'
I1
tp1659
a(S'p2_du'
I2
tp1660
a(S'p2_vo'
I14
tp1661
a(S'w'
I2
tp1662
a(S'p2_ll'
I6
tp1663
a(S'w'
I1
tp1664
a(S'tr_lh'
I1
tp1665
a(S'tr_lr'
I127
tp1666
a(S'w'
I3
tp1667
a(S'tr_ll'
I4
tp1668
a(S'w'
I1
tp1669
a(S'no_np'
I4
tp1670
a(S'w'
I2
tp1671
a(S'no_vo'
I9
tp1672
a(S'w'
I626
tp1673
a(S'p1_du'
I3
tp1674
a(S'p1_vo'
I12
tp1675
a(S'w'
I4
tp1676
a(S'p2_du'
I3
tp1677
a(S'p2_vo'
I13
tp1678
a(S'w'
I8
tp1679
a(S'no_vo'
I6
tp1680
a(S'w'
I728
tp1681
a(S'p1_vo'
I11
tp1682
a(S'w'
I3
tp1683
a(S'p2_vo'
I12
tp1684
a(S'w'
I9
tp1685
a(S'no_vo'
I4
tp1686
a(S'w'
I719
tp1687
a(S'p1_vo'
I10
tp1688
a(S'w'
I3
tp1689
a(S'p2_vo'
I11
tp1690
a(S'w'
I8
tp1691
a(S'no_vo'
I2
tp1692
a(S'w'
I722
tp1693
a(S'p1_vo'
I9
tp1694
a(S'w'
I3
tp1695
a(S'p2_vo'
I10
tp1696
a(S'w'
I8
tp1697
a(S'no_vo'
I0
tp1698
a(S'w'
I722
tp1699
a(S'p1_vo'
I8
tp1700
a(S'w'
I3
tp1701
a(S'p2_vo'
I9
tp1702
a(S'w'
I731
tp1703
a(S'p1_vo'
I7
tp1704
a(S'w'
I3
tp1705
a(S'p2_vo'
I8
tp1706
a(S'w'
I737
tp1707
a(S'p2_vo'
I7
tp1708
a(S'w'
I1441
tp1709
a(S'p2_vo'
I3
tp1710
a(S'w'
I2206
tp1711
a(S'p1_vo'
I3
tp1712
a(S'w'
I7
tp1713
a(S'tr_lh'
I0
tp1714
a(S'tr_lr'
I0
tp1715
a(S'w'
I720
tp1716
a(S'p2_vo'
I0
tp1717
a(S'w'
I731
tp1718
a(S'p1_vo'
I0
tp1719
a(S'w'
I1465
tp1720
a(S'ch_no'
I1
tp1721
a(S'ch_tr'
I1
tp1722
a(S'ch_p2'
I1
tp1723
a(S'ch_p1'
I1
tp1724
a(S'ch_no'
I1
tp1725
a(S'ch_tr'
I1
tp1726
a(S'ch_p2'
I1
tp1727
a(S'ch_p1'
I1
tp1728
a(S'w'
I62
tp1729
a(S'no_np'
I3
tp1730
a(S'w'
I2
tp1731
a(S'no_vo'
I4
tp1732
a(S'w'
I683
tp1733
a(S'no_vo'
I1
tp1734
a(S'w'
I740
tp1735
a(S'no_vo'
I0
tp1736
a(S'w'
I4413
tp1737
a(S'ch_no'
I1
tp1738
a(S'ch_tr'
I1
tp1739
a(S'ch_p2'
I1
tp1740
a(S'ch_p1'
I1
tp1741
a(S'w'
I1
tp1742
a(S'ch_no'
I1
tp1743
a(S'ch_tr'
I1
tp1744
a(S'ch_p2'
I1
tp1745
a(S'ch_p1'
I1
tp1746
a(S'w'
I80
tp1747
a(S'p1_du'
I0
tp1748
a(S'p1_vo'
I14
tp1749
a(S'w'
I3
tp1750
a(S'p1_ll'
I6
tp1751
a(S'w'
I1
tp1752
a(S'p2_du'
I2
tp1753
a(S'p2_vo'
I15
tp1754
a(S'w'
I2
tp1755
a(S'p2_tl'
I78
tp1756
a(S'w'
I1
tp1757
a(S'p2_ll'
I4
tp1758
a(S'p2_th'
I5
tp1759
a(S'w'
I1
tp1760
a(S'tr_lh'
I1
tp1761
a(S'tr_lr'
I127
tp1762
a(S'w'
I2
tp1763
a(S'tr_ll'
I6
tp1764
a(S'w'
I2
tp1765
a(S'no_np'
I4
tp1766
a(S'w'
I1
tp1767
a(S'no_vo'
I9
tp1768
a(S'w'
I637
tp1769
a(S'p1_du'
I3
tp1770
a(S'p1_vo'
I12
tp1771
a(S'w'
I3
tp1772
a(S'p2_du'
I3
tp1773
a(S'p2_vo'
I14
tp1774
a(S'w'
I8
tp1775
a(S'no_vo'
I6
tp1776
a(S'w'
I728
tp1777
a(S'p1_vo'
I11
tp1778
a(S'w'
I3
tp1779
a(S'p2_vo'
I13
tp1780
a(S'w'
I9
tp1781
a(S'no_vo'
I4
tp1782
a(S'w'
I719
tp1783
a(S'p1_vo'
I10
tp1784
a(S'w'
I3
tp1785
a(S'p2_vo'
I12
tp1786
a(S'w'
I8
tp1787
a(S'no_vo'
I2
tp1788
a(S'w'
I722
tp1789
a(S'p1_vo'
I9
tp1790
a(S'w'
I3
tp1791
a(S'p2_vo'
I11
tp1792
a(S'w'
I8
tp1793
a(S'no_vo'
I0
tp1794
a(S'w'
I728
tp1795
a(S'p1_vo'
I3
tp1796
a(S'w'
I3
tp1797
a(S'p2_vo'
I10
tp1798
a(S'w'
I4
tp1799
a(S'tr_lh'
I0
tp1800
a(S'tr_lr'
I0
tp1801
a(S'w'
I713
tp1802
a(S'p2_vo'
I9
tp1803
a(S'w'
I745
tp1804
a(S'p1_vo'
I0
tp1805
a(S'w'
I3
tp1806
a(S'p2_vo'
I8
tp1807
a(S'w'
I1440
tp1808
a(S'p2_vo'
I4
tp1809
a(S'w'
I2934
tp1810
a(S'p2_vo'
I0
tp1811
a(S'w'
I2223
tp1812
a(S'ch_no'
I1
tp1813
a(S'ch_tr'
I1
tp1814
a(S'ch_p2'
I1
tp1815
a(S'ch_p1'
I1
tp1816
a(S'ch_no'
I1
tp1817
a(S'ch_tr'
I1
tp1818
a(S'ch_p2'
I1
tp1819
a(S'ch_p1'
I1
tp1820
a(S'w'
I71
tp1821
a(S'p1_du'
I0
tp1822
a(S'p1_vo'
I14
tp1823
a(S'w'
I2
tp1824
a(S'p1_ll'
I4
tp1825
a(S'w'
I2
tp1826
a(S'p2_du'
I2
tp1827
a(S'p2_vo'
I15
tp1828
a(S'w'
I2
tp1829
a(S'p2_ll'
I6
tp1830
a(S'w'
I1
tp1831
a(S'tr_lh'
I1
tp1832
a(S'tr_lr'
I127
tp1833
a(S'w'
I2
tp1834
a(S'tr_ll'
I4
tp1835
a(S'w'
I2
tp1836
a(S'no_np'
I3
tp1837
a(S'w'
I2
tp1838
a(S'no_vo'
I4
tp1839
a(S'w'
I650
tp1840
a(S'p1_du'
I3
tp1841
a(S'p1_vo'
I12
tp1842
a(S'w'
I3
tp1843
a(S'p2_du'
I3
tp1844
a(S'p2_vo'
I14
tp1845
a(S'w'
I8
tp1846
a(S'no_vo'
I1
tp1847
a(S'w'
I728
tp1848
a(S'p1_vo'
I11
tp1849
a(S'w'
I3
tp1850
a(S'p2_vo'
I13
tp1851
a(S'w'
I9
tp1852
a(S'no_vo'
I0
tp1853
a(S'w'
I716
tp1854
a(S'p1_vo'
I10
tp1855
a(S'w'
I4
tp1856
a(S'p2_vo'
I12
tp1857
a(S'w'
I717
tp1858
a(S'p1_vo'
I9
tp1859
a(S'w'
I4
tp1860
a(S'p2_vo'
I4
tp1861
a(S'w'
I728
tp1862
a(S'p1_vo'
I3
tp1863
a(S'w'
I7
tp1864
a(S'tr_lh'
I0
tp1865
a(S'tr_lr'
I0
tp1866
a(S'w'
I1451
tp1867
a(S'p1_vo'
I0
tp1868
a(S'w'
I768
tp1869
a(S'p2_vo'
I0
tp1870
a(S'w'
I51990
tp1871
a.