(lp1
(S'clock'
p2
I1789773
tp3
a(S'fc_mo'
I1
tp4
a(S'w'
I1
tp5
a(S'fc_mo'
I1
tp6
a(S'w'
I132
tp7
a(S'p1_du'
I2
tp8
a(S'p1_lh'
I1
tp9
a(S'p1_cv'
I1
tp10
a(S'p1_vo'
I7
tp11
a(S'w'
I1
tp12
a(S'p1_sp'
I7
tp13
a(S'p1_sn'
I1
tp14
a(S'p1_ss'
I7
tp15
a(S'w'
I1
tp16
a(S'p1_tl'
I106
tp17
a(S'w'
I1
tp18
a(S'p1_ll'
I6
tp19
a(S'w'
I1
tp20
a(S'p2_lh'
I1
tp21
a(S'p2_cv'
I1
tp22
a(S'p2_vo'
I15
tp23
a(S'w'
I1
tp24
a(S'p2_sp'
I7
tp25
a(S'p2_sn'
I1
tp26
a(S'p2_ss'
I7
tp27
a(S'w'
I1
tp28
a(S'p2_tl'
I171
tp29
a(S'w'
I1
tp30
a(S'p2_ll'
I6
tp31
a(S'p2_th'
I1
tp32
a(S'w'
I1
tp33
a(S'tr_lh'
I1
tp34
a(S'tr_lr'
I127
tp35
a(S'w'
I1
tp36
a(S'w'
I1
tp37
a(S'tr_tl'
I52
tp38
a(S'tr_ll'
I6
tp39
a(S'w'
I2
tp40
a(S'no_ll'
I31
tp41
a(S'w'
I1
tp42
a(S'w'
I1
tp43
a(S'no_lh'
I1
tp44
a(S'no_cv'
I1
tp45
a(S'w'
I615
tp46
a(S'p1_vo'
I8
tp47
a(S'w'
I730
tp48
a(S'p2_vo'
I13
tp49
a(S'w'
I746
tp50
a(S'p1_vo'
I9
tp51
a(S'w'
I3
tp52
a(S'p2_vo'
I4
tp53
a(S'w'
I725
tp54
a(S'p1_vo'
I0
tp55
a(S'w'
I6
tp56
a(S'tr_lh'
I0
tp57
a(S'tr_lr'
I0
tp58
a(S'w'
I5124
tp59
a(S'p2_vo'
I0
tp60
a(S'w'
I2259
tp61
a(S'p1_vo'
I7
tp62
a(S'w'
I2
tp63
a(S'p1_tl'
I113
tp64
a(S'w'
I1
tp65
a(S'p1_ll'
I4
tp66
a(S'w'
I1
tp67
a(S'p2_vo'
I15
tp68
a(S'w'
I2
tp69
a(S'p2_tl'
I29
tp70
a(S'w'
I1
tp71
a(S'p2_ll'
I4
tp72
a(S'w'
I1
tp73
a(S'tr_lh'
I1
tp74
a(S'tr_lr'
I127
tp75
a(S'w'
I2
tp76
a(S'tr_tl'
I55
tp77
a(S'tr_ll'
I4
tp78
a(S'w'
I670
tp79
a(S'p1_vo'
I8
tp80
a(S'w'
I730
tp81
a(S'p2_vo'
I13
tp82
a(S'w'
I746
tp83
a(S'p1_vo'
I9
tp84
a(S'w'
I3
tp85
a(S'p2_vo'
I4
tp86
a(S'w'
I725
tp87
a(S'p1_vo'
I0
tp88
a(S'w'
I6
tp89
a(S'tr_lh'
I0
tp90
a(S'tr_lr'
I0
tp91
a(S'w'
I2246
tp92
a(S'p1_vo'
I7
tp93
a(S'w'
I2
tp94
a(S'p1_tl'
I120
tp95
a(S'w'
I1
tp96
a(S'p1_ll'
I6
tp97
a(S'w'
I1
tp98
a(S'p2_vo'
I15
tp99
a(S'w'
I2
tp100
a(S'p2_tl'
I169
tp101
a(S'w'
I1
tp102
a(S'p2_ll'
I6
tp103
a(S'p2_th'
I0
tp104
a(S'w'
I1
tp105
a(S'tr_lh'
I1
tp106
a(S'tr_lr'
I127
tp107
a(S'w'
I1
tp108
a(S'tr_tl'
I59
tp109
a(S'w'
I1
tp110
a(S'tr_ll'
I6
tp111
a(S'w'
I671
tp112
a(S'p1_vo'
I8
tp113
a(S'w'
I730
tp114
a(S'p2_vo'
I13
tp115
a(S'w'
I746
tp116
a(S'p1_vo'
I9
tp117
a(S'w'
I3
tp118
a(S'p2_vo'
I4
tp119
a(S'w'
I724
tp120
a(S'p1_vo'
I0
tp121
a(S'w'
I6
tp122
a(S'tr_lh'
I0
tp123
a(S'tr_lr'
I0
tp124
a(S'w'
I5125
tp125
a(S'p2_vo'
I0
tp126
a(S'w'
I2258
tp127
a(S'p1_vo'
I7
tp128
a(S'w'
I2
tp129
a(S'p1_tl'
I127
tp130
a(S'w'
I1
tp131
a(S'p1_ll'
I4
tp132
a(S'w'
I1
tp133
a(S'p2_vo'
I15
tp134
a(S'w'
I2
tp135
a(S'p2_tl'
I213
tp136
a(S'w'
I1
tp137
a(S'p2_ll'
I4
tp138
a(S'w'
I1
tp139
a(S'tr_lh'
I1
tp140
a(S'tr_lr'
I127
tp141
a(S'w'
I1
tp142
a(S'tr_tl'
I62
tp143
a(S'w'
I1
tp144
a(S'tr_ll'
I4
tp145
a(S'w'
I671
tp146
a(S'p1_vo'
I8
tp147
a(S'w'
I730
tp148
a(S'p2_vo'
I13
tp149
a(S'w'
I746
tp150
a(S'p1_vo'
I9
tp151
a(S'w'
I3
tp152
a(S'p2_vo'
I4
tp153
a(S'w'
I724
tp154
a(S'p1_vo'
I0
tp155
a(S'w'
I6
tp156
a(S'tr_lh'
I0
tp157
a(S'tr_lr'
I0
tp158
a(S'w'
I2247
tp159
a(S'p1_vo'
I7
tp160
a(S'w'
I2
tp161
a(S'p1_tl'
I134
tp162
a(S'w'
I1
tp163
a(S'p1_ll'
I6
tp164
a(S'w'
I1
tp165
a(S'p2_vo'
I15
tp166
a(S'w'
I2
tp167
a(S'p2_tl'
I13
tp168
a(S'w'
I1
tp169
a(S'p2_ll'
I6
tp170
a(S'p2_th'
I1
tp171
a(S'w'
I1
tp172
a(S'tr_lh'
I1
tp173
a(S'tr_lr'
I127
tp174
a(S'w'
I2
tp175
a(S'tr_tl'
I66
tp176
a(S'tr_ll'
I6
tp177
a(S'w'
I671
tp178
a(S'p1_vo'
I8
tp179
a(S'w'
I729
tp180
a(S'p2_vo'
I13
tp181
a(S'w'
I746
tp182
a(S'p1_vo'
I9
tp183
a(S'w'
I3
tp184
a(S'p2_vo'
I4
tp185
a(S'w'
I725
tp186
a(S'p1_vo'
I0
tp187
a(S'w'
I6
tp188
a(S'tr_lh'
I0
tp189
a(S'tr_lr'
I0
tp190
a(S'w'
I2210
tp191
a(S'p2_vo'
I15
tp192
a(S'w'
I2
tp193
a(S'p2_tl'
I103
tp194
a(S'w'
I1
tp195
a(S'p2_ll'
I4
tp196
a(S'w'
I1443
tp197
a(S'p2_vo'
I13
tp198
a(S'w'
I736
tp199
a(S'p2_vo'
I4
tp200
a(S'w'
I3006
tp201
a(S'p1_vo'
I7
tp202
a(S'w'
I2
tp203
a(S'p1_tl'
I179
tp204
a(S'w'
I1
tp205
a(S'p1_ll'
I4
tp206
a(S'w'
I1
tp207
a(S'p2_vo'
I15
tp208
a(S'w'
I2
tp209
a(S'p2_tl'
I13
tp210
a(S'p2_ll'
I6
tp211
a(S'w'
I2
tp212
a(S'tr_lh'
I1
tp213
a(S'tr_lr'
I127
tp214
a(S'w'
I1
tp215
a(S'tr_tl'
I88
tp216
a(S'w'
I1
tp217
a(S'tr_ll'
I4
tp218
a(S'w'
I656
tp219
a(S'p1_vo'
I8
tp220
a(S'w'
I729
tp221
a(S'p2_vo'
I13
tp222
a(S'w'
I746
tp223
a(S'p1_vo'
I9
tp224
a(S'w'
I3
tp225
a(S'p2_vo'
I4
tp226
a(S'w'
I2937
tp227
a(S'p2_vo'
I15
tp228
a(S'w'
I1
tp229
a(S'p2_tl'
I213
tp230
a(S'w'
I1
tp231
a(S'p2_ll'
I4
tp232
a(S'p2_th'
I0
tp233
a(S'w'
I1467
tp234
a(S'p1_vo'
I10
tp235
a(S'w'
I1
tp236
a(S'p1_tl'
I180
tp237
a(S'w'
I2
tp238
a(S'p2_vo'
I13
tp239
a(S'w'
I5
tp240
a(S'tr_tl'
I89
tp241
a(S'w'
I2177
tp242
a(S'p1_tl'
I179
tp243
a(S'w'
I7
tp244
a(S'tr_tl'
I88
tp245
a(S'w'
I1464
tp246
a(S'p2_vo'
I11
tp247
a(S'w'
I745
tp248
a(S'p1_tl'
I180
tp249
a(S'w'
I2
tp250
a(S'p2_vo'
I4
tp251
a(S'w'
I5
tp252
a(S'tr_tl'
I89
tp253
a(S'w'
I2184
tp254
a(S'p1_vo'
I0
tp255
a(S'w'
I6
tp256
a(S'tr_lh'
I0
tp257
a(S'tr_lr'
I0
tp258
a(S'w'
I2246
tp259
a(S'p1_vo'
I7
tp260
a(S'w'
I2
tp261
a(S'p1_tl'
I134
tp262
a(S'w'
I1
tp263
a(S'p1_ll'
I6
tp264
a(S'w'
I1
tp265
a(S'p2_vo'
I15
tp266
a(S'w'
I2
tp267
a(S'p2_tl'
I13
tp268
a(S'w'
I1
tp269
a(S'p2_ll'
I6
tp270
a(S'p2_th'
I1
tp271
a(S'w'
I1
tp272
a(S'tr_lh'
I1
tp273
a(S'tr_lr'
I127
tp274
a(S'w'
I2
tp275
a(S'tr_tl'
I66
tp276
a(S'tr_ll'
I6
tp277
a(S'w'
I671
tp278
a(S'p1_vo'
I8
tp279
a(S'w'
I730
tp280
a(S'p2_vo'
I13
tp281
a(S'w'
I746
tp282
a(S'p1_vo'
I9
tp283
a(S'w'
I3
tp284
a(S'p2_vo'
I4
tp285
a(S'w'
I1458
tp286
a(S'p1_vo'
I0
tp287
a(S'w'
I6
tp288
a(S'tr_lh'
I0
tp289
a(S'tr_lr'
I0
tp290
a(S'w'
I1518
tp291
a(S'p1_vo'
I7
tp292
a(S'w'
I2
tp293
a(S'p1_tl'
I142
tp294
a(S'w'
I1
tp295
a(S'p1_ll'
I4
tp296
a(S'w'
I1
tp297
a(S'p2_vo'
I15
tp298
a(S'w'
I2
tp299
a(S'p2_tl'
I29
tp300
a(S'w'
I1
tp301
a(S'p2_ll'
I4
tp302
a(S'w'
I1
tp303
a(S'tr_lh'
I1
tp304
a(S'tr_lr'
I127
tp305
a(S'w'
I2
tp306
a(S'tr_tl'
I70
tp307
a(S'w'
I1
tp308
a(S'tr_ll'
I4
tp309
a(S'w'
I665
tp310
a(S'p1_vo'
I8
tp311
a(S'w'
I730
tp312
a(S'p2_vo'
I13
tp313
a(S'w'
I745
tp314
a(S'p1_vo'
I9
tp315
a(S'w'
I3
tp316
a(S'p2_vo'
I4
tp317
a(S'w'
I725
tp318
a(S'p1_vo'
I0
tp319
a(S'w'
I6
tp320
a(S'tr_lh'
I0
tp321
a(S'tr_lr'
I0
tp322
a(S'w'
I2197
tp323
a(S'p2_vo'
I0
tp324
a(S'w'
I25709
tp325
a(S'p1_vo'
I7
tp326
a(S'w'
I1
tp327
a(S'p1_tl'
I75
tp328
a(S'w'
I1
tp329
a(S'p1_ll'
I6
tp330
a(S'w'
I5
tp331
a(S'tr_lh'
I1
tp332
a(S'tr_lr'
I127
tp333
a(S'w'
I1
tp334
a(S'tr_tl'
I36
tp335
a(S'w'
I1
tp336
a(S'tr_ll'
I6
tp337
a(S'w'
I693
tp338
a(S'p1_vo'
I8
tp339
a(S'w'
I761
tp340
a(S'p1_vo'
I7
tp341
a(S'w'
I1
tp342
a(S'p1_tl'
I71
tp343
a(S'w'
I1
tp344
a(S'p1_ll'
I4
tp345
a(S'w'
I6
tp346
a(S'tr_tl'
I34
tp347
a(S'w'
I1
tp348
a(S'tr_ll'
I4
tp349
a(S'w'
I698
tp350
a(S'p1_vo'
I8
tp351
a(S'w'
I1467
tp352
a(S'p1_vo'
I9
tp353
a(S'w'
I2201
tp354
a(S'p1_vo'
I0
tp355
a(S'w'
I7
tp356
a(S'tr_lh'
I0
tp357
a(S'tr_lr'
I0
tp358
a(S'w'
I46023
tp359
a.