(lp1
(S'clock'
p2
I1789773
tp3
a(S'fc_mo'
I1
tp4
a(S'w'
I1
tp5
a(S'fc_mo'
I1
tp6
a(S'w'
I112
tp7
a(S'p1_du'
I2
tp8
a(S'p1_lh'
I1
tp9
a(S'p1_cv'
I1
tp10
a(S'p1_vo'
I1
tp11
a(S'w'
I1
tp12
a(S'p1_sp'
I7
tp13
a(S'p1_sn'
I1
tp14
a(S'p1_ss'
I7
tp15
a(S'w'
I1
tp16
a(S'p1_tl'
I71
tp17
a(S'w'
I1
tp18
a(S'p1_ll'
I6
tp19
a(S'w'
I1
tp20
a(S'p2_lh'
I1
tp21
a(S'p2_cv'
I1
tp22
a(S'w'
I1
tp23
a(S'p2_sp'
I7
tp24
a(S'p2_sn'
I1
tp25
a(S'p2_ss'
I7
tp26
a(S'w'
I1
tp27
a(S'w'
I1
tp28
a(S'p2_ll'
I31
tp29
a(S'p2_th'
I7
tp30
a(S'w'
I1
tp31
a(S'w'
I1
tp32
a(S'w'
I1
tp33
a(S'w'
I1
tp34
a(S'tr_ll'
I0
tp35
a(S'w'
I1
tp36
a(S'no_ll'
I31
tp37
a(S'w'
I1
tp38
a(S'w'
I1
tp39
a(S'w'
I1
tp40
a(S'no_lh'
I1
tp41
a(S'no_cv'
I1
tp42
a(S'w'
I635
tp43
a(S'p1_vo'
I2
tp44
a(S'w'
I1
tp45
a(S'p1_tl'
I75
tp46
a(S'w'
I1
tp47
a(S'p1_ll'
I4
tp48
a(S'w'
I732
tp49
a(S'p1_vo'
I3
tp50
a(S'w'
I1
tp51
a(S'p1_tl'
I80
tp52
a(S'w'
I1
tp53
a(S'p1_ll'
I6
tp54
a(S'w'
I728
tp55
a(S'p1_tl'
I84
tp56
a(S'w'
I1
tp57
a(S'p1_ll'
I4
tp58
a(S'w'
I737
tp59
a(S'p1_vo'
I5
tp60
a(S'w'
I1
tp61
a(S'p1_tl'
I89
tp62
a(S'w'
I1
tp63
a(S'p1_ll'
I6
tp64
a(S'w'
I727
tp65
a(S'p1_tl'
I95
tp66
a(S'w'
I1
tp67
a(S'p1_ll'
I4
tp68
a(S'w'
I733
tp69
a(S'p1_tl'
I100
tp70
a(S'w'
I1
tp71
a(S'p1_ll'
I6
tp72
a(S'w'
I733
tp73
a(S'p1_tl'
I106
tp74
a(S'w'
I1
tp75
a(S'p1_ll'
I4
tp76
a(S'w'
I737
tp77
a(S'p1_vo'
I4
tp78
a(S'w'
I1
tp79
a(S'p1_tl'
I113
tp80
a(S'w'
I1
tp81
a(S'p1_ll'
I6
tp82
a(S'w'
I728
tp83
a(S'p1_tl'
I120
tp84
a(S'w'
I1
tp85
a(S'p1_ll'
I4
tp86
a(S'w'
I732
tp87
a(S'p1_tl'
I127
tp88
a(S'w'
I1
tp89
a(S'p1_ll'
I6
tp90
a(S'w'
I733
tp91
a(S'p1_tl'
I134
tp92
a(S'w'
I1
tp93
a(S'p1_ll'
I4
tp94
a(S'w'
I737
tp95
a(S'p1_vo'
I3
tp96
a(S'w'
I1
tp97
a(S'p1_tl'
I142
tp98
a(S'w'
I1
tp99
a(S'p1_ll'
I6
tp100
a(S'w'
I728
tp101
a(S'p1_tl'
I151
tp102
a(S'w'
I1
tp103
a(S'p1_ll'
I4
tp104
a(S'w'
I733
tp105
a(S'p1_tl'
I160
tp106
a(S'w'
I1
tp107
a(S'p1_ll'
I6
tp108
a(S'w'
I732
tp109
a(S'p1_tl'
I169
tp110
a(S'w'
I1
tp111
a(S'p1_ll'
I4
tp112
a(S'w'
I733
tp113
a(S'p1_tl'
I179
tp114
a(S'w'
I1
tp115
a(S'p1_ll'
I6
tp116
a(S'w'
I737
tp117
a(S'p1_vo'
I2
tp118
a(S'w'
I1
tp119
a(S'p1_tl'
I190
tp120
a(S'w'
I1
tp121
a(S'p1_ll'
I4
tp122
a(S'w'
I728
tp123
a(S'p1_tl'
I201
tp124
a(S'w'
I1
tp125
a(S'p1_ll'
I6
tp126
a(S'w'
I733
tp127
a(S'p1_tl'
I213
tp128
a(S'w'
I1
tp129
a(S'p1_ll'
I4
tp130
a(S'w'
I736
tp131
a(S'p1_vo'
I1
tp132
a(S'w'
I1
tp133
a(S'p1_tl'
I226
tp134
a(S'w'
I1
tp135
a(S'p1_ll'
I6
tp136
a(S'w'
I728
tp137
a(S'p1_tl'
I240
tp138
a(S'w'
I1
tp139
a(S'p1_ll'
I4
tp140
a(S'w'
I733
tp141
a(S'p1_tl'
I254
tp142
a(S'w'
I1
tp143
a(S'p1_ll'
I6
tp144
a(S'w'
I828
tp145
a(S'ch_no'
I1
tp146
a(S'ch_tr'
I1
tp147
a(S'ch_p2'
I1
tp148
a(S'ch_p1'
I1
tp149
a(S'ch_no'
I1
tp150
a(S'ch_tr'
I1
tp151
a(S'ch_p2'
I1
tp152
a(S'ch_p1'
I1
tp153
a(S'w'
I49
tp154
a(S'p1_vo'
I8
tp155
a(S'w'
I2
tp156
a(S'p1_tl'
I29
tp157
a(S'w'
I1
tp158
a(S'p1_ll'
I4
tp159
a(S'p1_th'
I1
tp160
a(S'w'
I1
tp161
a(S'p2_du'
I2
tp162
a(S'p2_vo'
I15
tp163
a(S'w'
I1
tp164
a(S'p2_tl'
I28
tp165
a(S'w'
I1
tp166
a(S'p2_ll'
I4
tp167
a(S'w'
I2
tp168
a(S'tr_lh'
I1
tp169
a(S'tr_lr'
I127
tp170
a(S'w'
I1
tp171
a(S'tr_tl'
I179
tp172
a(S'w'
I1
tp173
a(S'tr_ll'
I6
tp174
a(S'w'
I2
tp175
a(S'no_np'
I13
tp176
a(S'w'
I1
tp177
a(S'no_vo'
I15
tp178
a(S'w'
I596
tp179
a(S'no_vo'
I14
tp180
a(S'w'
I729
tp181
a(S'no_vo'
I13
tp182
a(S'w'
I734
tp183
a(S'no_vo'
I12
tp184
a(S'w'
I734
tp185
a(S'no_vo'
I11
tp186
a(S'w'
I748
tp187
a(S'p1_vo'
I0
tp188
a(S'w'
I3
tp189
a(S'p2_vo'
I4
tp190
a(S'w'
I4
tp191
a(S'tr_lh'
I0
tp192
a(S'tr_lr'
I0
tp193
a(S'w'
I5
tp194
a(S'no_vo'
I10
tp195
a(S'w'
I706
tp196
a(S'no_vo'
I9
tp197
a(S'w'
I749
tp198
a(S'p2_vo'
I0
tp199
a(S'w'
I8
tp200
a(S'no_vo'
I8
tp201
a(S'w'
I1445
tp202
a(S'no_vo'
I7
tp203
a(S'w'
I1467
tp204
a(S'no_vo'
I6
tp205
a(S'w'
I1482
tp206
a(S'no_vo'
I5
tp207
a(S'w'
I760
tp208
a(S'ch_no'
I1
tp209
a(S'ch_tr'
I1
tp210
a(S'ch_p2'
I1
tp211
a(S'ch_p1'
I1
tp212
a(S'ch_no'
I1
tp213
a(S'ch_tr'
I1
tp214
a(S'ch_p2'
I1
tp215
a(S'ch_p1'
I1
tp216
a(S'w'
I24
tp217
a(S'p1_vo'
I8
tp218
a(S'w'
I1
tp219
a(S'p1_tl'
I46
tp220
a(S'w'
I1
tp221
a(S'p1_ll'
I6
tp222
a(S'w'
I2
tp223
a(S'p2_vo'
I15
tp224
a(S'w'
I1
tp225
a(S'p2_tl'
I135
tp226
a(S'w'
I1
tp227
a(S'p2_ll'
I6
tp228
a(S'w'
I1
tp229
a(S'tr_lh'
I1
tp230
a(S'tr_lr'
I127
tp231
a(S'w'
I2
tp232
a(S'tr_tl'
I190
tp233
a(S'w'
I1
tp234
a(S'tr_ll'
I4
tp235
a(S'w'
I3
tp236
a(S'no_vo'
I0
tp237
a(S'w'
I659
tp238
a(S'no_vo'
I4
tp239
a(S'w'
I1467
tp240
a(S'no_vo'
I3
tp241
a(S'w'
I1482
tp242
a(S'p1_vo'
I0
tp243
a(S'w'
I3
tp244
a(S'p2_vo'
I4
tp245
a(S'w'
I4
tp246
a(S'tr_lh'
I0
tp247
a(S'tr_lr'
I0
tp248
a(S'w'
I5
tp249
a(S'no_vo'
I2
tp250
a(S'w'
I1449
tp251
a(S'p2_vo'
I0
tp252
a(S'w'
I8
tp253
a(S'no_vo'
I1
tp254
a(S'w'
I5201
tp255
a(S'ch_no'
I1
tp256
a(S'ch_tr'
I1
tp257
a(S'ch_p2'
I1
tp258
a(S'ch_p1'
I1
tp259
a(S'ch_no'
I1
tp260
a(S'ch_tr'
I1
tp261
a(S'ch_p2'
I1
tp262
a(S'ch_p1'
I1
tp263
a(S'w'
I24
tp264
a(S'p1_vo'
I8
tp265
a(S'w'
I2
tp266
a(S'p1_tl'
I64
tp267
a(S'p1_ll'
I4
tp268
a(S'w'
I2
tp269
a(S'p2_vo'
I15
tp270
a(S'w'
I1
tp271
a(S'p2_tl'
I255
tp272
a(S'w'
I1
tp273
a(S'p2_ll'
I4
tp274
a(S'w'
I1
tp275
a(S'tr_lh'
I1
tp276
a(S'tr_lr'
I127
tp277
a(S'w'
I2
tp278
a(S'tr_tl'
I201
tp279
a(S'w'
I1
tp280
a(S'tr_ll'
I6
tp281
a(S'w'
I3
tp282
a(S'no_vo'
I0
tp283
a(S'w'
I2058
tp284
a(S'ch_no'
I1
tp285
a(S'ch_tr'
I1
tp286
a(S'ch_p2'
I1
tp287
a(S'ch_p1'
I1
tp288
a(S'ch_no'
I1
tp289
a(S'ch_tr'
I1
tp290
a(S'ch_p2'
I1
tp291
a(S'ch_p1'
I1
tp292
a(S'w'
I2202
tp293
a(S'ch_no'
I1
tp294
a(S'ch_tr'
I1
tp295
a(S'ch_p2'
I1
tp296
a(S'ch_p1'
I1
tp297
a(S'ch_no'
I1
tp298
a(S'ch_tr'
I1
tp299
a(S'ch_p2'
I1
tp300
a(S'ch_p1'
I1
tp301
a(S'w'
I2201
tp302
a(S'ch_no'
I1
tp303
a(S'ch_tr'
I1
tp304
a(S'ch_p2'
I1
tp305
a(S'ch_p1'
I1
tp306
a(S'ch_no'
I1
tp307
a(S'ch_tr'
I1
tp308
a(S'ch_p2'
I1
tp309
a(S'ch_p1'
I1
tp310
a(S'w'
I2201
tp311
a(S'ch_no'
I1
tp312
a(S'ch_tr'
I1
tp313
a(S'ch_p2'
I1
tp314
a(S'ch_p1'
I1
tp315
a(S'ch_no'
I1
tp316
a(S'ch_tr'
I1
tp317
a(S'ch_p2'
I1
tp318
a(S'ch_p1'
I1
tp319
a(S'w'
I2202
tp320
a(S'ch_no'
I1
tp321
a(S'ch_tr'
I1
tp322
a(S'ch_p2'
I1
tp323
a(S'ch_p1'
I1
tp324
a(S'ch_no'
I1
tp325
a(S'ch_tr'
I1
tp326
a(S'ch_p2'
I1
tp327
a(S'ch_p1'
I1
tp328
a(S'w'
I2201
tp329
a(S'ch_no'
I1
tp330
a(S'ch_tr'
I1
tp331
a(S'ch_p2'
I1
tp332
a(S'ch_p1'
I1
tp333
a(S'ch_no'
I1
tp334
a(S'ch_tr'
I1
tp335
a(S'ch_p2'
I1
tp336
a(S'ch_p1'
I1
tp337
a(S'w'
I2202
tp338
a(S'ch_no'
I1
tp339
a(S'ch_tr'
I1
tp340
a(S'ch_p2'
I1
tp341
a(S'ch_p1'
I1
tp342
a(S'ch_no'
I1
tp343
a(S'ch_tr'
I1
tp344
a(S'ch_p2'
I1
tp345
a(S'ch_p1'
I1
tp346
a(S'w'
I2201
tp347
a(S'ch_no'
I1
tp348
a(S'ch_tr'
I1
tp349
a(S'ch_p2'
I1
tp350
a(S'ch_p1'
I1
tp351
a(S'ch_no'
I1
tp352
a(S'ch_tr'
I1
tp353
a(S'ch_p2'
I1
tp354
a(S'ch_p1'
I1
tp355
a(S'w'
I11765
tp356
a(S'p1_vo'
I0
tp357
a(S'w'
I3
tp358
a(S'p2_vo'
I4
tp359
a(S'w'
I4
tp360
a(S'tr_lh'
I0
tp361
a(S'tr_lr'
I0
tp362
a(S'w'
I1457
tp363
a(S'p2_vo'
I0
tp364
a(S'w'
I46409
tp365
a.