(lp1
(S'clock'
p2
I1789773
tp3
a(S'fc_mo'
I1
tp4
a(S'w'
I1
tp5
a(S'fc_mo'
I1
tp6
a(S'w'
I63
tp7
a(S'ch_no'
I1
tp8
a(S'ch_tr'
I1
tp9
a(S'ch_p2'
I1
tp10
a(S'ch_p1'
I1
tp11
a(S'ch_no'
I1
tp12
a(S'ch_tr'
I1
tp13
a(S'ch_p2'
I1
tp14
a(S'ch_p1'
I1
tp15
a(S'w'
I151
tp16
a(S'p1_du'
I2
tp17
a(S'p1_lh'
I1
tp18
a(S'p1_cv'
I1
tp19
a(S'p1_vo'
I7
tp20
a(S'w'
I1
tp21
a(S'p1_sp'
I7
tp22
a(S'p1_sn'
I1
tp23
a(S'p1_ss'
I7
tp24
a(S'w'
I1
tp25
a(S'p1_tl'
I64
tp26
a(S'w'
I1
tp27
a(S'p1_ll'
I6
tp28
a(S'p1_th'
I1
tp29
a(S'w'
I1
tp30
a(S'p2_du'
I2
tp31
a(S'p2_lh'
I1
tp32
a(S'p2_cv'
I1
tp33
a(S'p2_vo'
I15
tp34
a(S'w'
I1
tp35
a(S'p2_sp'
I7
tp36
a(S'p2_sn'
I1
tp37
a(S'p2_ss'
I7
tp38
a(S'w'
I1
tp39
a(S'p2_tl'
I160
tp40
a(S'w'
I1
tp41
a(S'p2_ll'
I6
tp42
a(S'p2_th'
I5
tp43
a(S'w'
I1
tp44
a(S'tr_lh'
I1
tp45
a(S'tr_lr'
I127
tp46
a(S'w'
I1
tp47
a(S'w'
I1
tp48
a(S'tr_tl'
I201
tp49
a(S'w'
I1
tp50
a(S'tr_ll'
I6
tp51
a(S'w'
I1
tp52
a(S'no_ll'
I31
tp53
a(S'w'
I1
tp54
a(S'no_np'
I4
tp55
a(S'w'
I1
tp56
a(S'no_lh'
I1
tp57
a(S'no_cv'
I1
tp58
a(S'no_vo'
I11
tp59
a(S'w'
I507
tp60
a(S'fc_mo'
I1
tp61
a(S'w'
I45
tp62
a(S'p1_vo'
I5
tp63
a(S'w'
I3
tp64
a(S'p2_du'
I3
tp65
a(S'p2_vo'
I14
tp66
a(S'w'
I8
tp67
a(S'no_vo'
I8
tp68
a(S'w'
I720
tp69
a(S'p2_vo'
I13
tp70
a(S'w'
I8
tp71
a(S'no_vo'
I6
tp72
a(S'w'
I722
tp73
a(S'p2_vo'
I12
tp74
a(S'w'
I8
tp75
a(S'no_vo'
I0
tp76
a(S'w'
I730
tp77
a(S'p1_vo'
I0
tp78
a(S'w'
I4
tp79
a(S'p2_vo'
I11
tp80
a(S'w'
I3
tp81
a(S'tr_lh'
I0
tp82
a(S'tr_lr'
I0
tp83
a(S'w'
I712
tp84
a(S'p2_vo'
I10
tp85
a(S'w'
I731
tp86
a(S'p2_vo'
I4
tp87
a(S'w'
I1524
tp88
a(S'p1_vo'
I7
tp89
a(S'w'
I2
tp90
a(S'p1_tl'
I29
tp91
a(S'p1_ll'
I4
tp92
a(S'w'
I5
tp93
a(S'tr_lh'
I1
tp94
a(S'tr_lr'
I127
tp95
a(S'w'
I1
tp96
a(S'tr_tl'
I179
tp97
a(S'w'
I1
tp98
a(S'tr_ll'
I4
tp99
a(S'w'
I2
tp100
a(S'no_np'
I2
tp101
a(S'w'
I2
tp102
a(S'no_vo'
I11
tp103
a(S'w'
I669
tp104
a(S'p1_vo'
I5
tp105
a(S'w'
I11
tp106
a(S'no_vo'
I8
tp107
a(S'w'
I730
tp108
a(S'p2_vo'
I0
tp109
a(S'w'
I8
tp110
a(S'no_vo'
I6
tp111
a(S'w'
I723
tp112
a(S'no_vo'
I0
tp113
a(S'w'
I732
tp114
a(S'p1_vo'
I0
tp115
a(S'w'
I6
tp116
a(S'tr_lh'
I0
tp117
a(S'tr_lr'
I0
tp118
a(S'w'
I2978
tp119
a(S'p1_vo'
I7
tp120
a(S'w'
I1
tp121
a(S'p1_tl'
I13
tp122
a(S'w'
I1
tp123
a(S'p1_ll'
I6
tp124
a(S'w'
I5
tp125
a(S'tr_lh'
I1
tp126
a(S'tr_lr'
I127
tp127
a(S'w'
I1
tp128
a(S'tr_tl'
I160
tp129
a(S'w'
I1
tp130
a(S'tr_ll'
I6
tp131
a(S'w'
I2
tp132
a(S'no_np'
I3
tp133
a(S'w'
I1
tp134
a(S'no_vo'
I11
tp135
a(S'w'
I670
tp136
a(S'p1_vo'
I5
tp137
a(S'w'
I11
tp138
a(S'no_vo'
I8
tp139
a(S'w'
I732
tp140
a(S'no_vo'
I6
tp141
a(S'w'
I730
tp142
a(S'no_vo'
I0
tp143
a(S'w'
I731
tp144
a(S'p1_vo'
I0
tp145
a(S'w'
I6
tp146
a(S'tr_lh'
I0
tp147
a(S'tr_lr'
I0
tp148
a(S'w'
I2930
tp149
a(S'ch_no'
I1
tp150
a(S'ch_tr'
I1
tp151
a(S'ch_p2'
I1
tp152
a(S'ch_p1'
I1
tp153
a(S'w'
I1
tp154
a(S'ch_no'
I1
tp155
a(S'ch_tr'
I1
tp156
a(S'ch_p2'
I1
tp157
a(S'ch_p1'
I1
tp158
a(S'w'
I107
tp159
a(S'p1_vo'
I7
tp160
a(S'w'
I2
tp161
a(S'p1_tl'
I29
tp162
a(S'w'
I1
tp163
a(S'p1_ll'
I4
tp164
a(S'w'
I1
tp165
a(S'p2_du'
I2
tp166
a(S'p2_vo'
I15
tp167
a(S'w'
I2
tp168
a(S'p2_ll'
I4
tp169
a(S'w'
I2
tp170
a(S'tr_lh'
I1
tp171
a(S'tr_lr'
I127
tp172
a(S'w'
I1
tp173
a(S'tr_tl'
I179
tp174
a(S'w'
I1
tp175
a(S'tr_ll'
I4
tp176
a(S'w'
I2
tp177
a(S'no_np'
I1
tp178
a(S'w'
I1
tp179
a(S'no_vo'
I4
tp180
a(S'w'
I628
tp181
a(S'p1_vo'
I5
tp182
a(S'w'
I3
tp183
a(S'p2_du'
I3
tp184
a(S'p2_vo'
I14
tp185
a(S'w'
I8
tp186
a(S'no_vo'
I5
tp187
a(S'w'
I718
tp188
a(S'p2_vo'
I13
tp189
a(S'w'
I9
tp190
a(S'no_vo'
I4
tp191
a(S'w'
I712
tp192
a(S'p2_vo'
I12
tp193
a(S'w'
I749
tp194
a(S'p1_vo'
I0
tp195
a(S'w'
I3
tp196
a(S'p2_vo'
I11
tp197
a(S'w'
I3
tp198
a(S'tr_lh'
I0
tp199
a(S'tr_lr'
I0
tp200
a(S'w'
I712
tp201
a(S'p2_vo'
I10
tp202
a(S'w'
I731
tp203
a(S'p2_vo'
I4
tp204
a(S'w'
I1504
tp205
a(S'p1_vo'
I7
tp206
a(S'w'
I2
tp207
a(S'p1_tl'
I13
tp208
a(S'w'
I1
tp209
a(S'p1_ll'
I6
tp210
a(S'w'
I4
tp211
a(S'tr_lh'
I1
tp212
a(S'tr_lr'
I127
tp213
a(S'w'
I1
tp214
a(S'tr_tl'
I160
tp215
a(S'w'
I1
tp216
a(S'tr_ll'
I6
tp217
a(S'w'
I685
tp218
a(S'p1_vo'
I5
tp219
a(S'w'
I747
tp220
a(S'p2_vo'
I0
tp221
a(S'w'
I8
tp222
a(S'no_vo'
I3
tp223
a(S'w'
I1455
tp224
a(S'p1_vo'
I0
tp225
a(S'w'
I6
tp226
a(S'tr_lh'
I0
tp227
a(S'tr_lr'
I0
tp228
a(S'w'
I1464
tp229
a(S'no_vo'
I0
tp230
a(S'w'
I1520
tp231
a(S'p1_vo'
I7
tp232
a(S'w'
I1
tp233
a(S'p1_tl'
I240
tp234
a(S'w'
I1
tp235
a(S'p1_ll'
I4
tp236
a(S'p1_th'
I0
tp237
a(S'w'
I4
tp238
a(S'tr_lh'
I1
tp239
a(S'tr_lr'
I127
tp240
a(S'w'
I2
tp241
a(S'tr_tl'
I142
tp242
a(S'w'
I1
tp243
a(S'tr_ll'
I4
tp244
a(S'w'
I3
tp245
a(S'no_vo'
I5
tp246
a(S'w'
I664
tp247
a(S'p1_vo'
I5
tp248
a(S'w'
I11
tp249
a(S'no_vo'
I2
tp250
a(S'w'
I732
tp251
a(S'no_vo'
I0
tp252
a(S'w'
I1472
tp253
a(S'p1_vo'
I0
tp254
a(S'w'
I6
tp255
a(S'tr_lh'
I0
tp256
a(S'tr_lr'
I0
tp257
a(S'w'
I2928
tp258
a(S'ch_no'
I1
tp259
a(S'ch_tr'
I1
tp260
a(S'ch_p2'
I1
tp261
a(S'ch_p1'
I1
tp262
a(S'ch_no'
I1
tp263
a(S'ch_tr'
I1
tp264
a(S'ch_p2'
I1
tp265
a(S'ch_p1'
I1
tp266
a(S'w'
I76
tp267
a(S'p1_vo'
I7
tp268
a(S'w'
I2
tp269
a(S'p1_tl'
I213
tp270
a(S'w'
I1
tp271
a(S'p1_ll'
I6
tp272
a(S'w'
I1
tp273
a(S'p2_du'
I2
tp274
a(S'p2_vo'
I14
tp275
a(S'w'
I2
tp276
a(S'p2_ll'
I6
tp277
a(S'w'
I2
tp278
a(S'tr_lh'
I1
tp279
a(S'tr_lr'
I127
tp280
a(S'w'
I1
tp281
a(S'tr_tl'
I134
tp282
a(S'w'
I1
tp283
a(S'tr_ll'
I6
tp284
a(S'w'
I3
tp285
a(S'w'
I642
tp286
a(S'p1_vo'
I5
tp287
a(S'w'
I4
tp288
a(S'p2_du'
I3
tp289
a(S'p2_vo'
I13
tp290
a(S'w'
I721
tp291
a(S'p2_vo'
I12
tp292
a(S'w'
I734
tp293
a(S'p2_vo'
I11
tp294
a(S'w'
I747
tp295
a(S'p1_vo'
I0
tp296
a(S'w'
I3
tp297
a(S'p2_vo'
I10
tp298
a(S'w'
I3
tp299
a(S'tr_lh'
I0
tp300
a(S'tr_lr'
I0
tp301
a(S'w'
I710
tp302
a(S'p2_vo'
I3
tp303
a(S'w'
I2293
tp304
a(S'p1_vo'
I7
tp305
a(S'w'
I2
tp306
a(S'p1_tl'
I13
tp307
a(S'w'
I1
tp308
a(S'p1_ll'
I4
tp309
a(S'p1_th'
I1
tp310
a(S'w'
I1
tp311
a(S'p2_du'
I2
tp312
a(S'p2_vo'
I13
tp313
a(S'w'
I3
tp314
a(S'p2_ll'
I4
tp315
a(S'w'
I1
tp316
a(S'tr_lh'
I1
tp317
a(S'tr_lr'
I127
tp318
a(S'w'
I1
tp319
a(S'tr_tl'
I160
tp320
a(S'w'
I1
tp321
a(S'tr_ll'
I4
tp322
a(S'w'
I2
tp323
a(S'no_np'
I4
tp324
a(S'w'
I2
tp325
a(S'no_vo'
I9
tp326
a(S'w'
I647
tp327
a(S'p1_vo'
I5
tp328
a(S'w'
I3
tp329
a(S'p2_du'
I3
tp330
a(S'p2_vo'
I12
tp331
a(S'w'
I8
tp332
a(S'no_vo'
I6
tp333
a(S'w'
I719
tp334
a(S'p2_vo'
I11
tp335
a(S'w'
I8
tp336
a(S'no_vo'
I4
tp337
a(S'w'
I724
tp338
a(S'p2_vo'
I10
tp339
a(S'w'
I8
tp340
a(S'no_vo'
I2
tp341
a(S'w'
I740
tp342
a(S'p1_vo'
I0
tp343
a(S'w'
I4
tp344
a(S'p2_vo'
I9
tp345
a(S'w'
I3
tp346
a(S'tr_lh'
I0
tp347
a(S'tr_lr'
I0
tp348
a(S'w'
I5
tp349
a(S'no_vo'
I0
tp350
a(S'w'
I705
tp351
a(S'p2_vo'
I2
tp352
a(S'w'
I2199
tp353
a(S'ch_no'
I1
tp354
a(S'ch_tr'
I1
tp355
a(S'ch_p2'
I1
tp356
a(S'ch_p1'
I1
tp357
a(S'ch_no'
I1
tp358
a(S'ch_tr'
I1
tp359
a(S'ch_p2'
I1
tp360
a(S'ch_p1'
I1
tp361
a(S'w'
I95
tp362
a(S'p1_vo'
I7
tp363
a(S'w'
I1
tp364
a(S'p1_tl'
I64
tp365
a(S'w'
I1
tp366
a(S'p1_ll'
I6
tp367
a(S'w'
I1
tp368
a(S'p2_du'
I2
tp369
a(S'p2_vo'
I12
tp370
a(S'w'
I3
tp371
a(S'p2_ll'
I6
tp372
a(S'w'
I1
tp373
a(S'tr_lh'
I1
tp374
a(S'tr_lr'
I127
tp375
a(S'w'
I1
tp376
a(S'tr_tl'
I201
tp377
a(S'w'
I1
tp378
a(S'tr_ll'
I6
tp379
a(S'w'
I2
tp380
a(S'no_np'
I3
tp381
a(S'w'
I2
tp382
a(S'no_vo'
I9
tp383
a(S'w'
I637
tp384
a(S'p1_vo'
I5
tp385
a(S'w'
I3
tp386
a(S'p2_du'
I3
tp387
a(S'p2_vo'
I11
tp388
a(S'w'
I9
tp389
a(S'no_vo'
I6
tp390
a(S'w'
I719
tp391
a(S'p2_vo'
I10
tp392
a(S'w'
I8
tp393
a(S'no_vo'
I4
tp394
a(S'w'
I724
tp395
a(S'p2_vo'
I9
tp396
a(S'w'
I8
tp397
a(S'no_vo'
I2
tp398
a(S'w'
I738
tp399
a(S'p1_vo'
I0
tp400
a(S'w'
I4
tp401
a(S'p2_vo'
I8
tp402
a(S'w'
I3
tp403
a(S'tr_lh'
I0
tp404
a(S'tr_lr'
I0
tp405
a(S'w'
I5
tp406
a(S'no_vo'
I0
tp407
a(S'w'
I705
tp408
a(S'p2_vo'
I1
tp409
a(S'w'
I2210
tp410
a(S'ch_no'
I1
tp411
a(S'ch_tr'
I1
tp412
a(S'ch_p2'
I1
tp413
a(S'ch_p1'
I1
tp414
a(S'ch_no'
I1
tp415
a(S'ch_tr'
I1
tp416
a(S'ch_p2'
I1
tp417
a(S'ch_p1'
I1
tp418
a(S'w'
I105
tp419
a(S'p1_vo'
I7
tp420
a(S'w'
I2
tp421
a(S'p1_tl'
I240
tp422
a(S'w'
I1
tp423
a(S'p1_ll'
I4
tp424
a(S'p1_th'
I0
tp425
a(S'w'
I1
tp426
a(S'p2_du'
I2
tp427
a(S'p2_vo'
I11
tp428
a(S'w'
I2
tp429
a(S'p2_ll'
I4
tp430
a(S'w'
I1
tp431
a(S'tr_lh'
I1
tp432
a(S'tr_lr'
I127
tp433
a(S'w'
I2
tp434
a(S'tr_tl'
I142
tp435
a(S'w'
I1
tp436
a(S'tr_ll'
I4
tp437
a(S'w'
I2
tp438
a(S'no_np'
I1
tp439
a(S'w'
I1
tp440
a(S'no_vo'
I4
tp441
a(S'w'
I619
tp442
a(S'p1_vo'
I5
tp443
a(S'w'
I3
tp444
a(S'p2_du'
I3
tp445
a(S'p2_vo'
I10
tp446
a(S'w'
I8
tp447
a(S'no_vo'
I5
tp448
a(S'w'
I718
tp449
a(S'p2_vo'
I9
tp450
a(S'w'
I9
tp451
a(S'no_vo'
I4
tp452
a(S'w'
I712
tp453
a(S'p2_vo'
I8
tp454
a(S'w'
I749
tp455
a(S'p1_vo'
I0
tp456
a(S'w'
I3
tp457
a(S'p2_vo'
I7
tp458
a(S'w'
I3
tp459
a(S'tr_lh'
I0
tp460
a(S'tr_lr'
I0
tp461
a(S'w'
I712
tp462
a(S'p2_vo'
I6
tp463
a(S'w'
I734
tp464
a(S'p2_vo'
I5
tp465
a(S'w'
I739
tp466
a(S'p2_vo'
I4
tp467
a(S'w'
I762
tp468
a(S'p1_vo'
I7
tp469
a(S'w'
I2
tp470
a(S'p1_tl'
I29
tp471
a(S'w'
I1
tp472
a(S'p1_ll'
I6
tp473
a(S'p1_th'
I1
tp474
a(S'w'
I4
tp475
a(S'tr_lh'
I1
tp476
a(S'tr_lr'
I127
tp477
a(S'w'
I2
tp478
a(S'tr_tl'
I179
tp479
a(S'w'
I1
tp480
a(S'tr_ll'
I6
tp481
a(S'w'
I696
tp482
a(S'p1_vo'
I5
tp483
a(S'w'
I3
tp484
a(S'p2_vo'
I3
tp485
a(S'w'
I733
tp486
a(S'no_vo'
I3
tp487
a(S'w'
I726
tp488
a(S'p2_vo'
I2
tp489
a(S'w'
I736
tp490
a(S'p1_vo'
I0
tp491
a(S'w'
I7
tp492
a(S'tr_lh'
I0
tp493
a(S'tr_lr'
I0
tp494
a(S'w'
I724
tp495
a(S'p2_vo'
I1
tp496
a(S'w'
I739
tp497
a(S'no_vo'
I0
tp498
a(S'w'
I728
tp499
a(S'p2_vo'
I0
tp500
a(S'w'
I786
tp501
a(S'p1_vo'
I7
tp502
a(S'w'
I2
tp503
a(S'p1_tl'
I103
tp504
a(S'w'
I1
tp505
a(S'p1_ll'
I4
tp506
a(S'w'
I4
tp507
a(S'tr_lh'
I1
tp508
a(S'tr_lr'
I127
tp509
a(S'w'
I2
tp510
a(S'tr_tl'
I240
tp511
a(S'w'
I1
tp512
a(S'tr_ll'
I4
tp513
a(S'w'
I1
tp514
a(S'no_np'
I0
tp515
a(S'w'
I2
tp516
a(S'no_vo'
I4
tp517
a(S'w'
I680
tp518
a(S'p1_vo'
I5
tp519
a(S'w'
I11
tp520
a(S'no_vo'
I5
tp521
a(S'w'
I722
tp522
a(S'no_vo'
I4
tp523
a(S'w'
I1460
tp524
a(S'p1_vo'
I0
tp525
a(S'w'
I6
tp526
a(S'tr_lh'
I0
tp527
a(S'tr_lr'
I0
tp528
a(S'w'
I1464
tp529
a(S'no_vo'
I0
tp530
a(S'w'
I1483
tp531
a(S'ch_no'
I1
tp532
a(S'ch_tr'
I1
tp533
a(S'ch_p2'
I1
tp534
a(S'ch_p1'
I1
tp535
a(S'ch_no'
I1
tp536
a(S'ch_tr'
I1
tp537
a(S'ch_p2'
I1
tp538
a(S'ch_p1'
I1
tp539
a(S'w'
I120
tp540
a(S'p1_vo'
I7
tp541
a(S'w'
I2
tp542
a(S'p1_tl'
I64
tp543
a(S'w'
I1
tp544
a(S'p1_ll'
I6
tp545
a(S'w'
I1
tp546
a(S'p2_du'
I2
tp547
a(S'p2_vo'
I15
tp548
a(S'w'
I2
tp549
a(S'p2_ll'
I6
tp550
a(S'w'
I2
tp551
a(S'tr_lh'
I1
tp552
a(S'tr_lr'
I127
tp553
a(S'w'
I1
tp554
a(S'tr_tl'
I201
tp555
a(S'w'
I1
tp556
a(S'tr_ll'
I6
tp557
a(S'w'
I2
tp558
a(S'no_np'
I4
tp559
a(S'w'
I1
tp560
a(S'no_vo'
I11
tp561
a(S'w'
I596
tp562
a(S'p1_vo'
I5
tp563
a(S'w'
I3
tp564
a(S'p2_du'
I3
tp565
a(S'p2_vo'
I14
tp566
a(S'w'
I8
tp567
a(S'no_vo'
I8
tp568
a(S'w'
I720
tp569
a(S'p2_vo'
I13
tp570
a(S'w'
I8
tp571
a(S'no_vo'
I6
tp572
a(S'w'
I722
tp573
a(S'p2_vo'
I12
tp574
a(S'w'
I8
tp575
a(S'no_vo'
I0
tp576
a(S'w'
I731
tp577
a(S'p1_vo'
I0
tp578
a(S'w'
I3
tp579
a(S'p2_vo'
I11
tp580
a(S'w'
I3
tp581
a(S'tr_lh'
I0
tp582
a(S'tr_lr'
I0
tp583
a(S'w'
I712
tp584
a(S'p2_vo'
I10
tp585
a(S'w'
I731
tp586
a(S'p2_vo'
I4
tp587
a(S'w'
I1524
tp588
a(S'p1_vo'
I7
tp589
a(S'w'
I2
tp590
a(S'p1_tl'
I29
tp591
a(S'p1_ll'
I4
tp592
a(S'w'
I5
tp593
a(S'tr_lh'
I1
tp594
a(S'tr_lr'
I127
tp595
a(S'w'
I1
tp596
a(S'tr_tl'
I179
tp597
a(S'w'
I1
tp598
a(S'tr_ll'
I4
tp599
a(S'w'
I2
tp600
a(S'no_np'
I2
tp601
a(S'w'
I2
tp602
a(S'no_vo'
I11
tp603
a(S'w'
I669
tp604
a(S'p1_vo'
I5
tp605
a(S'w'
I11
tp606
a(S'no_vo'
I8
tp607
a(S'w'
I730
tp608
a(S'p2_vo'
I0
tp609
a(S'w'
I8
tp610
a(S'no_vo'
I6
tp611
a(S'w'
I723
tp612
a(S'no_vo'
I0
tp613
a(S'w'
I732
tp614
a(S'p1_vo'
I0
tp615
a(S'w'
I6
tp616
a(S'tr_lh'
I0
tp617
a(S'tr_lr'
I0
tp618
a(S'w'
I2978
tp619
a(S'p1_vo'
I7
tp620
a(S'w'
I1
tp621
a(S'p1_tl'
I13
tp622
a(S'w'
I1
tp623
a(S'p1_ll'
I6
tp624
a(S'w'
I5
tp625
a(S'tr_lh'
I1
tp626
a(S'tr_lr'
I127
tp627
a(S'w'
I1
tp628
a(S'tr_tl'
I160
tp629
a(S'w'
I1
tp630
a(S'tr_ll'
I6
tp631
a(S'w'
I2
tp632
a(S'no_np'
I3
tp633
a(S'w'
I1
tp634
a(S'no_vo'
I11
tp635
a(S'w'
I670
tp636
a(S'p1_vo'
I5
tp637
a(S'w'
I11
tp638
a(S'no_vo'
I8
tp639
a(S'w'
I732
tp640
a(S'no_vo'
I6
tp641
a(S'w'
I730
tp642
a(S'no_vo'
I0
tp643
a(S'w'
I731
tp644
a(S'p1_vo'
I0
tp645
a(S'w'
I6
tp646
a(S'tr_lh'
I0
tp647
a(S'tr_lr'
I0
tp648
a(S'w'
I2930
tp649
a(S'ch_no'
I1
tp650
a(S'ch_tr'
I1
tp651
a(S'ch_p2'
I1
tp652
a(S'ch_p1'
I1
tp653
a(S'w'
I1
tp654
a(S'ch_no'
I1
tp655
a(S'ch_tr'
I1
tp656
a(S'ch_p2'
I1
tp657
a(S'ch_p1'
I1
tp658
a(S'w'
I107
tp659
a(S'p1_vo'
I7
tp660
a(S'w'
I2
tp661
a(S'p1_tl'
I29
tp662
a(S'w'
I1
tp663
a(S'p1_ll'
I4
tp664
a(S'w'
I1
tp665
a(S'p2_du'
I2
tp666
a(S'p2_vo'
I15
tp667
a(S'w'
I2
tp668
a(S'p2_ll'
I4
tp669
a(S'w'
I2
tp670
a(S'tr_lh'
I1
tp671
a(S'tr_lr'
I127
tp672
a(S'w'
I1
tp673
a(S'tr_tl'
I179
tp674
a(S'w'
I1
tp675
a(S'tr_ll'
I4
tp676
a(S'w'
I2
tp677
a(S'no_np'
I1
tp678
a(S'w'
I1
tp679
a(S'no_vo'
I4
tp680
a(S'w'
I628
tp681
a(S'p1_vo'
I5
tp682
a(S'w'
I3
tp683
a(S'p2_du'
I3
tp684
a(S'p2_vo'
I14
tp685
a(S'w'
I8
tp686
a(S'no_vo'
I5
tp687
a(S'w'
I718
tp688
a(S'p2_vo'
I13
tp689
a(S'w'
I9
tp690
a(S'no_vo'
I4
tp691
a(S'w'
I712
tp692
a(S'p2_vo'
I12
tp693
a(S'w'
I749
tp694
a(S'p1_vo'
I0
tp695
a(S'w'
I3
tp696
a(S'p2_vo'
I11
tp697
a(S'w'
I3
tp698
a(S'tr_lh'
I0
tp699
a(S'tr_lr'
I0
tp700
a(S'w'
I712
tp701
a(S'p2_vo'
I10
tp702
a(S'w'
I731
tp703
a(S'p2_vo'
I4
tp704
a(S'w'
I1504
tp705
a(S'p1_vo'
I7
tp706
a(S'w'
I2
tp707
a(S'p1_tl'
I13
tp708
a(S'w'
I1
tp709
a(S'p1_ll'
I6
tp710
a(S'w'
I4
tp711
a(S'tr_lh'
I1
tp712
a(S'tr_lr'
I127
tp713
a(S'w'
I1
tp714
a(S'tr_tl'
I160
tp715
a(S'w'
I1
tp716
a(S'tr_ll'
I6
tp717
a(S'w'
I685
tp718
a(S'p1_vo'
I5
tp719
a(S'w'
I747
tp720
a(S'p2_vo'
I0
tp721
a(S'w'
I8
tp722
a(S'no_vo'
I3
tp723
a(S'w'
I1455
tp724
a(S'p1_vo'
I0
tp725
a(S'w'
I6
tp726
a(S'tr_lh'
I0
tp727
a(S'tr_lr'
I0
tp728
a(S'w'
I1464
tp729
a(S'no_vo'
I0
tp730
a(S'w'
I1520
tp731
a(S'p1_vo'
I7
tp732
a(S'w'
I1
tp733
a(S'p1_tl'
I240
tp734
a(S'w'
I1
tp735
a(S'p1_ll'
I4
tp736
a(S'p1_th'
I0
tp737
a(S'w'
I4
tp738
a(S'tr_lh'
I1
tp739
a(S'tr_lr'
I127
tp740
a(S'w'
I2
tp741
a(S'tr_tl'
I142
tp742
a(S'w'
I1
tp743
a(S'tr_ll'
I4
tp744
a(S'w'
I3
tp745
a(S'no_vo'
I5
tp746
a(S'w'
I664
tp747
a(S'p1_vo'
I5
tp748
a(S'w'
I11
tp749
a(S'no_vo'
I2
tp750
a(S'w'
I732
tp751
a(S'no_vo'
I0
tp752
a(S'w'
I1472
tp753
a(S'p1_vo'
I0
tp754
a(S'w'
I6
tp755
a(S'tr_lh'
I0
tp756
a(S'tr_lr'
I0
tp757
a(S'w'
I2928
tp758
a(S'ch_no'
I1
tp759
a(S'ch_tr'
I1
tp760
a(S'ch_p2'
I1
tp761
a(S'ch_p1'
I1
tp762
a(S'ch_no'
I1
tp763
a(S'ch_tr'
I1
tp764
a(S'ch_p2'
I1
tp765
a(S'ch_p1'
I1
tp766
a(S'w'
I76
tp767
a(S'p1_vo'
I7
tp768
a(S'w'
I2
tp769
a(S'p1_tl'
I213
tp770
a(S'w'
I1
tp771
a(S'p1_ll'
I6
tp772
a(S'w'
I1
tp773
a(S'p2_du'
I2
tp774
a(S'p2_vo'
I14
tp775
a(S'w'
I2
tp776
a(S'p2_ll'
I6
tp777
a(S'w'
I2
tp778
a(S'tr_lh'
I1
tp779
a(S'tr_lr'
I127
tp780
a(S'w'
I1
tp781
a(S'tr_tl'
I134
tp782
a(S'w'
I1
tp783
a(S'tr_ll'
I6
tp784
a(S'w'
I3
tp785
a(S'w'
I642
tp786
a(S'p1_vo'
I5
tp787
a(S'w'
I4
tp788
a(S'p2_du'
I3
tp789
a(S'p2_vo'
I13
tp790
a(S'w'
I721
tp791
a(S'p2_vo'
I12
tp792
a(S'w'
I734
tp793
a(S'p2_vo'
I11
tp794
a(S'w'
I747
tp795
a(S'p1_vo'
I0
tp796
a(S'w'
I3
tp797
a(S'p2_vo'
I10
tp798
a(S'w'
I3
tp799
a(S'tr_lh'
I0
tp800
a(S'tr_lr'
I0
tp801
a(S'w'
I710
tp802
a(S'p2_vo'
I3
tp803
a(S'w'
I2293
tp804
a(S'p1_vo'
I7
tp805
a(S'w'
I2
tp806
a(S'p1_tl'
I13
tp807
a(S'w'
I1
tp808
a(S'p1_ll'
I4
tp809
a(S'p1_th'
I1
tp810
a(S'w'
I1
tp811
a(S'p2_du'
I2
tp812
a(S'p2_vo'
I13
tp813
a(S'w'
I3
tp814
a(S'p2_ll'
I4
tp815
a(S'w'
I1
tp816
a(S'tr_lh'
I1
tp817
a(S'tr_lr'
I127
tp818
a(S'w'
I1
tp819
a(S'tr_tl'
I160
tp820
a(S'w'
I1
tp821
a(S'tr_ll'
I4
tp822
a(S'w'
I2
tp823
a(S'no_np'
I4
tp824
a(S'w'
I2
tp825
a(S'no_vo'
I9
tp826
a(S'w'
I647
tp827
a(S'p1_vo'
I5
tp828
a(S'w'
I3
tp829
a(S'p2_du'
I3
tp830
a(S'p2_vo'
I12
tp831
a(S'w'
I8
tp832
a(S'no_vo'
I6
tp833
a(S'w'
I719
tp834
a(S'p2_vo'
I11
tp835
a(S'w'
I8
tp836
a(S'no_vo'
I4
tp837
a(S'w'
I724
tp838
a(S'p2_vo'
I10
tp839
a(S'w'
I8
tp840
a(S'no_vo'
I2
tp841
a(S'w'
I740
tp842
a(S'p1_vo'
I0
tp843
a(S'w'
I4
tp844
a(S'p2_vo'
I9
tp845
a(S'w'
I3
tp846
a(S'tr_lh'
I0
tp847
a(S'tr_lr'
I0
tp848
a(S'w'
I5
tp849
a(S'no_vo'
I0
tp850
a(S'w'
I705
tp851
a(S'p2_vo'
I2
tp852
a(S'w'
I2199
tp853
a(S'ch_no'
I1
tp854
a(S'ch_tr'
I1
tp855
a(S'ch_p2'
I1
tp856
a(S'ch_p1'
I1
tp857
a(S'ch_no'
I1
tp858
a(S'ch_tr'
I1
tp859
a(S'ch_p2'
I1
tp860
a(S'ch_p1'
I1
tp861
a(S'w'
I95
tp862
a(S'p1_vo'
I7
tp863
a(S'w'
I1
tp864
a(S'p1_tl'
I64
tp865
a(S'w'
I1
tp866
a(S'p1_ll'
I6
tp867
a(S'w'
I1
tp868
a(S'p2_du'
I2
tp869
a(S'p2_vo'
I12
tp870
a(S'w'
I3
tp871
a(S'p2_ll'
I6
tp872
a(S'w'
I1
tp873
a(S'tr_lh'
I1
tp874
a(S'tr_lr'
I127
tp875
a(S'w'
I1
tp876
a(S'tr_tl'
I201
tp877
a(S'w'
I1
tp878
a(S'tr_ll'
I6
tp879
a(S'w'
I2
tp880
a(S'no_np'
I3
tp881
a(S'w'
I2
tp882
a(S'no_vo'
I9
tp883
a(S'w'
I637
tp884
a(S'p1_vo'
I5
tp885
a(S'w'
I3
tp886
a(S'p2_du'
I3
tp887
a(S'p2_vo'
I11
tp888
a(S'w'
I9
tp889
a(S'no_vo'
I6
tp890
a(S'w'
I719
tp891
a(S'p2_vo'
I10
tp892
a(S'w'
I8
tp893
a(S'no_vo'
I4
tp894
a(S'w'
I724
tp895
a(S'p2_vo'
I9
tp896
a(S'w'
I8
tp897
a(S'no_vo'
I2
tp898
a(S'w'
I738
tp899
a(S'p1_vo'
I0
tp900
a(S'w'
I4
tp901
a(S'p2_vo'
I8
tp902
a(S'w'
I3
tp903
a(S'tr_lh'
I0
tp904
a(S'tr_lr'
I0
tp905
a(S'w'
I5
tp906
a(S'no_vo'
I0
tp907
a(S'w'
I705
tp908
a(S'p2_vo'
I1
tp909
a(S'w'
I2210
tp910
a(S'ch_no'
I1
tp911
a(S'ch_tr'
I1
tp912
a(S'ch_p2'
I1
tp913
a(S'ch_p1'
I1
tp914
a(S'ch_no'
I1
tp915
a(S'ch_tr'
I1
tp916
a(S'ch_p2'
I1
tp917
a(S'ch_p1'
I1
tp918
a(S'w'
I105
tp919
a(S'p1_vo'
I7
tp920
a(S'w'
I2
tp921
a(S'p1_tl'
I240
tp922
a(S'w'
I1
tp923
a(S'p1_ll'
I4
tp924
a(S'p1_th'
I0
tp925
a(S'w'
I1
tp926
a(S'p2_du'
I2
tp927
a(S'p2_vo'
I11
tp928
a(S'w'
I2
tp929
a(S'p2_ll'
I4
tp930
a(S'w'
I1
tp931
a(S'tr_lh'
I1
tp932
a(S'tr_lr'
I127
tp933
a(S'w'
I2
tp934
a(S'tr_tl'
I142
tp935
a(S'w'
I1
tp936
a(S'tr_ll'
I4
tp937
a(S'w'
I2
tp938
a(S'no_np'
I1
tp939
a(S'w'
I1
tp940
a(S'no_vo'
I4
tp941
a(S'w'
I619
tp942
a(S'p1_vo'
I5
tp943
a(S'w'
I3
tp944
a(S'p2_du'
I3
tp945
a(S'p2_vo'
I10
tp946
a(S'w'
I8
tp947
a(S'no_vo'
I5
tp948
a(S'w'
I718
tp949
a(S'p2_vo'
I9
tp950
a(S'w'
I9
tp951
a(S'no_vo'
I4
tp952
a(S'w'
I712
tp953
a(S'p2_vo'
I8
tp954
a(S'w'
I749
tp955
a(S'p1_vo'
I0
tp956
a(S'w'
I3
tp957
a(S'p2_vo'
I7
tp958
a(S'w'
I3
tp959
a(S'tr_lh'
I0
tp960
a(S'tr_lr'
I0
tp961
a(S'w'
I712
tp962
a(S'p2_vo'
I6
tp963
a(S'w'
I734
tp964
a(S'p2_vo'
I5
tp965
a(S'w'
I739
tp966
a(S'p2_vo'
I4
tp967
a(S'w'
I762
tp968
a(S'p1_vo'
I7
tp969
a(S'w'
I2
tp970
a(S'p1_tl'
I29
tp971
a(S'w'
I1
tp972
a(S'p1_ll'
I6
tp973
a(S'p1_th'
I1
tp974
a(S'w'
I4
tp975
a(S'tr_lh'
I1
tp976
a(S'tr_lr'
I127
tp977
a(S'w'
I2
tp978
a(S'tr_tl'
I179
tp979
a(S'w'
I1
tp980
a(S'tr_ll'
I6
tp981
a(S'w'
I696
tp982
a(S'p1_vo'
I5
tp983
a(S'w'
I3
tp984
a(S'p2_vo'
I3
tp985
a(S'w'
I733
tp986
a(S'no_vo'
I3
tp987
a(S'w'
I726
tp988
a(S'p2_vo'
I2
tp989
a(S'w'
I736
tp990
a(S'p1_vo'
I0
tp991
a(S'w'
I7
tp992
a(S'tr_lh'
I0
tp993
a(S'tr_lr'
I0
tp994
a(S'w'
I724
tp995
a(S'p2_vo'
I1
tp996
a(S'w'
I739
tp997
a(S'no_vo'
I0
tp998
a(S'w'
I728
tp999
a(S'p2_vo'
I0
tp1000
a(S'w'
I786
tp1001
a(S'p1_vo'
I7
tp1002
a(S'w'
I2
tp1003
a(S'p1_tl'
I103
tp1004
a(S'w'
I1
tp1005
a(S'p1_ll'
I4
tp1006
a(S'w'
I4
tp1007
a(S'tr_lh'
I1
tp1008
a(S'tr_lr'
I127
tp1009
a(S'w'
I2
tp1010
a(S'tr_tl'
I240
tp1011
a(S'w'
I1
tp1012
a(S'tr_ll'
I4
tp1013
a(S'w'
I1
tp1014
a(S'no_np'
I0
tp1015
a(S'w'
I2
tp1016
a(S'no_vo'
I4
tp1017
a(S'w'
I680
tp1018
a(S'p1_vo'
I5
tp1019
a(S'w'
I11
tp1020
a(S'no_vo'
I5
tp1021
a(S'w'
I722
tp1022
a(S'no_vo'
I4
tp1023
a(S'w'
I1460
tp1024
a(S'p1_vo'
I0
tp1025
a(S'w'
I6
tp1026
a(S'tr_lh'
I0
tp1027
a(S'tr_lr'
I0
tp1028
a(S'w'
I1464
tp1029
a(S'no_vo'
I0
tp1030
a(S'w'
I1484
tp1031
a(S'ch_no'
I1
tp1032
a(S'ch_tr'
I1
tp1033
a(S'ch_p2'
I1
tp1034
a(S'ch_p1'
I1
tp1035
a(S'ch_no'
I1
tp1036
a(S'ch_tr'
I1
tp1037
a(S'ch_p2'
I1
tp1038
a(S'ch_p1'
I1
tp1039
a(S'w'
I132
tp1040
a(S'p1_vo'
I7
tp1041
a(S'w'
I2
tp1042
a(S'p1_tl'
I147
tp1043
a(S'p1_ll'
I6
tp1044
a(S'w'
I2
tp1045
a(S'p2_du'
I2
tp1046
a(S'p2_vo'
I15
tp1047
a(S'w'
I1
tp1048
a(S'p2_tl'
I82
tp1049
a(S'w'
I1
tp1050
a(S'p2_ll'
I6
tp1051
a(S'p2_th'
I6
tp1052
a(S'w'
I2
tp1053
a(S'tr_lh'
I1
tp1054
a(S'tr_lr'
I127
tp1055
a(S'w'
I1
tp1056
a(S'tr_tl'
I13
tp1057
a(S'w'
I1
tp1058
a(S'tr_ll'
I6
tp1059
a(S'tr_th'
I1
tp1060
a(S'w'
I2
tp1061
a(S'no_np'
I4
tp1062
a(S'w'
I1
tp1063
a(S'no_vo'
I11
tp1064
a(S'w'
I583
tp1065
a(S'p1_vo'
I5
tp1066
a(S'w'
I3
tp1067
a(S'p2_du'
I3
tp1068
a(S'p2_vo'
I14
tp1069
a(S'w'
I8
tp1070
a(S'no_vo'
I8
tp1071
a(S'w'
I720
tp1072
a(S'p2_vo'
I13
tp1073
a(S'w'
I8
tp1074
a(S'no_vo'
I6
tp1075
a(S'w'
I722
tp1076
a(S'p2_vo'
I12
tp1077
a(S'w'
I8
tp1078
a(S'no_vo'
I0
tp1079
a(S'w'
I731
tp1080
a(S'p1_vo'
I0
tp1081
a(S'w'
I3
tp1082
a(S'p2_vo'
I11
tp1083
a(S'w'
I3
tp1084
a(S'tr_lh'
I0
tp1085
a(S'tr_lr'
I0
tp1086
a(S'w'
I712
tp1087
a(S'p2_vo'
I10
tp1088
a(S'w'
I731
tp1089
a(S'p2_vo'
I4
tp1090
a(S'w'
I1524
tp1091
a(S'p1_vo'
I7
tp1092
a(S'w'
I2
tp1093
a(S'p1_tl'
I64
tp1094
a(S'p1_ll'
I4
tp1095
a(S'w'
I5
tp1096
a(S'tr_lh'
I1
tp1097
a(S'tr_lr'
I127
tp1098
a(S'w'
I1
tp1099
a(S'tr_tl'
I201
tp1100
a(S'w'
I1
tp1101
a(S'tr_ll'
I4
tp1102
a(S'tr_th'
I0
tp1103
a(S'w'
I2
tp1104
a(S'no_np'
I2
tp1105
a(S'w'
I1
tp1106
a(S'no_vo'
I11
tp1107
a(S'w'
I670
tp1108
a(S'p1_vo'
I5
tp1109
a(S'w'
I11
tp1110
a(S'no_vo'
I8
tp1111
a(S'w'
I730
tp1112
a(S'p2_vo'
I0
tp1113
a(S'w'
I8
tp1114
a(S'no_vo'
I6
tp1115
a(S'w'
I723
tp1116
a(S'no_vo'
I0
tp1117
a(S'w'
I732
tp1118
a(S'p1_vo'
I0
tp1119
a(S'w'
I6
tp1120
a(S'tr_lh'
I0
tp1121
a(S'tr_lr'
I0
tp1122
a(S'w'
I2978
tp1123
a(S'p1_vo'
I7
tp1124
a(S'w'
I1
tp1125
a(S'p1_tl'
I13
tp1126
a(S'w'
I1
tp1127
a(S'p1_ll'
I6
tp1128
a(S'w'
I5
tp1129
a(S'tr_lh'
I1
tp1130
a(S'tr_lr'
I127
tp1131
a(S'w'
I1
tp1132
a(S'tr_tl'
I160
tp1133
a(S'w'
I1
tp1134
a(S'tr_ll'
I6
tp1135
a(S'w'
I2
tp1136
a(S'no_np'
I3
tp1137
a(S'w'
I1
tp1138
a(S'no_vo'
I11
tp1139
a(S'w'
I670
tp1140
a(S'p1_vo'
I5
tp1141
a(S'w'
I11
tp1142
a(S'no_vo'
I8
tp1143
a(S'w'
I732
tp1144
a(S'no_vo'
I6
tp1145
a(S'w'
I730
tp1146
a(S'no_vo'
I0
tp1147
a(S'w'
I731
tp1148
a(S'p1_vo'
I0
tp1149
a(S'w'
I6
tp1150
a(S'tr_lh'
I0
tp1151
a(S'tr_lr'
I0
tp1152
a(S'w'
I2930
tp1153
a(S'ch_no'
I1
tp1154
a(S'ch_tr'
I1
tp1155
a(S'ch_p2'
I1
tp1156
a(S'ch_p1'
I1
tp1157
a(S'w'
I1
tp1158
a(S'ch_no'
I1
tp1159
a(S'ch_tr'
I1
tp1160
a(S'ch_p2'
I1
tp1161
a(S'ch_p1'
I1
tp1162
a(S'w'
I116
tp1163
a(S'p1_vo'
I7
tp1164
a(S'w'
I2
tp1165
a(S'p1_tl'
I147
tp1166
a(S'w'
I1
tp1167
a(S'p1_ll'
I4
tp1168
a(S'w'
I1
tp1169
a(S'p2_du'
I2
tp1170
a(S'p2_vo'
I15
tp1171
a(S'w'
I2
tp1172
a(S'p2_ll'
I4
tp1173
a(S'w'
I1
tp1174
a(S'tr_lh'
I1
tp1175
a(S'tr_lr'
I127
tp1176
a(S'w'
I2
tp1177
a(S'tr_tl'
I13
tp1178
a(S'w'
I1
tp1179
a(S'tr_ll'
I4
tp1180
a(S'tr_th'
I1
tp1181
a(S'w'
I2
tp1182
a(S'no_np'
I1
tp1183
a(S'w'
I1
tp1184
a(S'no_vo'
I4
tp1185
a(S'w'
I619
tp1186
a(S'p1_vo'
I5
tp1187
a(S'w'
I3
tp1188
a(S'p2_du'
I3
tp1189
a(S'p2_vo'
I14
tp1190
a(S'w'
I8
tp1191
a(S'no_vo'
I5
tp1192
a(S'w'
I718
tp1193
a(S'p2_vo'
I13
tp1194
a(S'w'
I9
tp1195
a(S'no_vo'
I4
tp1196
a(S'w'
I712
tp1197
a(S'p2_vo'
I12
tp1198
a(S'w'
I749
tp1199
a(S'p1_vo'
I0
tp1200
a(S'w'
I3
tp1201
a(S'p2_vo'
I11
tp1202
a(S'w'
I3
tp1203
a(S'tr_lh'
I0
tp1204
a(S'tr_lr'
I0
tp1205
a(S'w'
I712
tp1206
a(S'p2_vo'
I10
tp1207
a(S'w'
I731
tp1208
a(S'p2_vo'
I4
tp1209
a(S'w'
I1504
tp1210
a(S'p1_vo'
I7
tp1211
a(S'w'
I2
tp1212
a(S'p1_tl'
I64
tp1213
a(S'w'
I1
tp1214
a(S'p1_ll'
I6
tp1215
a(S'w'
I4
tp1216
a(S'tr_lh'
I1
tp1217
a(S'tr_lr'
I127
tp1218
a(S'w'
I1
tp1219
a(S'tr_tl'
I201
tp1220
a(S'w'
I1
tp1221
a(S'tr_ll'
I6
tp1222
a(S'tr_th'
I0
tp1223
a(S'w'
I685
tp1224
a(S'p1_vo'
I5
tp1225
a(S'w'
I747
tp1226
a(S'p2_vo'
I0
tp1227
a(S'w'
I8
tp1228
a(S'no_vo'
I3
tp1229
a(S'w'
I1455
tp1230
a(S'p1_vo'
I0
tp1231
a(S'w'
I6
tp1232
a(S'tr_lh'
I0
tp1233
a(S'tr_lr'
I0
tp1234
a(S'w'
I1464
tp1235
a(S'no_vo'
I0
tp1236
a(S'w'
I1520
tp1237
a(S'p1_vo'
I7
tp1238
a(S'w'
I1
tp1239
a(S'p1_tl'
I13
tp1240
a(S'w'
I1
tp1241
a(S'p1_ll'
I4
tp1242
a(S'w'
I4
tp1243
a(S'tr_lh'
I1
tp1244
a(S'tr_lr'
I127
tp1245
a(S'w'
I2
tp1246
a(S'tr_tl'
I160
tp1247
a(S'w'
I1
tp1248
a(S'tr_ll'
I4
tp1249
a(S'w'
I3
tp1250
a(S'no_vo'
I5
tp1251
a(S'w'
I664
tp1252
a(S'p1_vo'
I5
tp1253
a(S'w'
I11
tp1254
a(S'no_vo'
I2
tp1255
a(S'w'
I732
tp1256
a(S'no_vo'
I0
tp1257
a(S'w'
I1472
tp1258
a(S'p1_vo'
I0
tp1259
a(S'w'
I6
tp1260
a(S'tr_lh'
I0
tp1261
a(S'tr_lr'
I0
tp1262
a(S'w'
I2928
tp1263
a(S'ch_no'
I1
tp1264
a(S'ch_tr'
I1
tp1265
a(S'ch_p2'
I1
tp1266
a(S'ch_p1'
I1
tp1267
a(S'ch_no'
I1
tp1268
a(S'ch_tr'
I1
tp1269
a(S'ch_p2'
I1
tp1270
a(S'ch_p1'
I1
tp1271
a(S'w'
I97
tp1272
a(S'p1_vo'
I7
tp1273
a(S'w'
I2
tp1274
a(S'p1_tl'
I147
tp1275
a(S'w'
I1
tp1276
a(S'p1_ll'
I6
tp1277
a(S'w'
I1
tp1278
a(S'p2_du'
I2
tp1279
a(S'p2_vo'
I14
tp1280
a(S'w'
I2
tp1281
a(S'p2_ll'
I6
tp1282
a(S'w'
I2
tp1283
a(S'tr_lh'
I1
tp1284
a(S'tr_lr'
I127
tp1285
a(S'w'
I1
tp1286
a(S'tr_tl'
I13
tp1287
a(S'w'
I1
tp1288
a(S'tr_ll'
I6
tp1289
a(S'tr_th'
I1
tp1290
a(S'w'
I3
tp1291
a(S'w'
I621
tp1292
a(S'p1_vo'
I5
tp1293
a(S'w'
I3
tp1294
a(S'p2_du'
I3
tp1295
a(S'p2_vo'
I13
tp1296
a(S'w'
I722
tp1297
a(S'p2_vo'
I12
tp1298
a(S'w'
I734
tp1299
a(S'p2_vo'
I11
tp1300
a(S'w'
I747
tp1301
a(S'p1_vo'
I0
tp1302
a(S'w'
I3
tp1303
a(S'p2_vo'
I10
tp1304
a(S'w'
I3
tp1305
a(S'tr_lh'
I0
tp1306
a(S'tr_lr'
I0
tp1307
a(S'w'
I710
tp1308
a(S'p2_vo'
I3
tp1309
a(S'w'
I2293
tp1310
a(S'p1_vo'
I7
tp1311
a(S'w'
I2
tp1312
a(S'p1_tl'
I103
tp1313
a(S'w'
I1
tp1314
a(S'p1_ll'
I4
tp1315
a(S'w'
I1
tp1316
a(S'p2_du'
I2
tp1317
a(S'p2_vo'
I13
tp1318
a(S'w'
I3
tp1319
a(S'p2_ll'
I4
tp1320
a(S'w'
I1
tp1321
a(S'tr_lh'
I1
tp1322
a(S'tr_lr'
I127
tp1323
a(S'w'
I1
tp1324
a(S'tr_tl'
I201
tp1325
a(S'w'
I1
tp1326
a(S'tr_ll'
I4
tp1327
a(S'tr_th'
I0
tp1328
a(S'w'
I2
tp1329
a(S'no_np'
I4
tp1330
a(S'w'
I2
tp1331
a(S'no_vo'
I9
tp1332
a(S'w'
I647
tp1333
a(S'p1_vo'
I5
tp1334
a(S'w'
I3
tp1335
a(S'p2_du'
I3
tp1336
a(S'p2_vo'
I12
tp1337
a(S'w'
I8
tp1338
a(S'no_vo'
I6
tp1339
a(S'w'
I719
tp1340
a(S'p2_vo'
I11
tp1341
a(S'w'
I8
tp1342
a(S'no_vo'
I4
tp1343
a(S'w'
I724
tp1344
a(S'p2_vo'
I10
tp1345
a(S'w'
I8
tp1346
a(S'no_vo'
I2
tp1347
a(S'w'
I740
tp1348
a(S'p1_vo'
I0
tp1349
a(S'w'
I4
tp1350
a(S'p2_vo'
I9
tp1351
a(S'w'
I3
tp1352
a(S'tr_lh'
I0
tp1353
a(S'tr_lr'
I0
tp1354
a(S'w'
I5
tp1355
a(S'no_vo'
I0
tp1356
a(S'w'
I705
tp1357
a(S'p2_vo'
I2
tp1358
a(S'w'
I2199
tp1359
a(S'ch_no'
I1
tp1360
a(S'ch_tr'
I1
tp1361
a(S'ch_p2'
I1
tp1362
a(S'ch_p1'
I1
tp1363
a(S'ch_no'
I1
tp1364
a(S'ch_tr'
I1
tp1365
a(S'ch_p2'
I1
tp1366
a(S'ch_p1'
I1
tp1367
a(S'w'
I95
tp1368
a(S'p1_vo'
I7
tp1369
a(S'w'
I1
tp1370
a(S'p1_tl'
I29
tp1371
a(S'w'
I1
tp1372
a(S'p1_ll'
I6
tp1373
a(S'w'
I1
tp1374
a(S'p2_du'
I2
tp1375
a(S'p2_vo'
I12
tp1376
a(S'w'
I3
tp1377
a(S'p2_ll'
I6
tp1378
a(S'w'
I1
tp1379
a(S'tr_lh'
I1
tp1380
a(S'tr_lr'
I127
tp1381
a(S'w'
I1
tp1382
a(S'tr_tl'
I179
tp1383
a(S'w'
I1
tp1384
a(S'tr_ll'
I6
tp1385
a(S'w'
I2
tp1386
a(S'no_np'
I3
tp1387
a(S'w'
I2
tp1388
a(S'no_vo'
I9
tp1389
a(S'w'
I637
tp1390
a(S'p1_vo'
I5
tp1391
a(S'w'
I3
tp1392
a(S'p2_du'
I3
tp1393
a(S'p2_vo'
I11
tp1394
a(S'w'
I9
tp1395
a(S'no_vo'
I6
tp1396
a(S'w'
I719
tp1397
a(S'p2_vo'
I10
tp1398
a(S'w'
I8
tp1399
a(S'no_vo'
I4
tp1400
a(S'w'
I724
tp1401
a(S'p2_vo'
I9
tp1402
a(S'w'
I8
tp1403
a(S'no_vo'
I2
tp1404
a(S'w'
I738
tp1405
a(S'p1_vo'
I0
tp1406
a(S'w'
I4
tp1407
a(S'p2_vo'
I8
tp1408
a(S'w'
I3
tp1409
a(S'tr_lh'
I0
tp1410
a(S'tr_lr'
I0
tp1411
a(S'w'
I5
tp1412
a(S'no_vo'
I0
tp1413
a(S'w'
I705
tp1414
a(S'p2_vo'
I1
tp1415
a(S'w'
I2210
tp1416
a(S'ch_no'
I1
tp1417
a(S'ch_tr'
I1
tp1418
a(S'ch_p2'
I1
tp1419
a(S'ch_p1'
I1
tp1420
a(S'ch_no'
I1
tp1421
a(S'ch_tr'
I1
tp1422
a(S'ch_p2'
I1
tp1423
a(S'ch_p1'
I1
tp1424
a(S'w'
I114
tp1425
a(S'p1_vo'
I7
tp1426
a(S'w'
I1
tp1427
a(S'p1_tl'
I147
tp1428
a(S'w'
I1
tp1429
a(S'p1_ll'
I4
tp1430
a(S'w'
I2
tp1431
a(S'p2_du'
I2
tp1432
a(S'p2_vo'
I11
tp1433
a(S'w'
I2
tp1434
a(S'p2_ll'
I4
tp1435
a(S'w'
I1
tp1436
a(S'tr_lh'
I1
tp1437
a(S'tr_lr'
I127
tp1438
a(S'w'
I2
tp1439
a(S'tr_tl'
I13
tp1440
a(S'w'
I1
tp1441
a(S'tr_ll'
I4
tp1442
a(S'tr_th'
I1
tp1443
a(S'w'
I1
tp1444
a(S'no_np'
I1
tp1445
a(S'w'
I2
tp1446
a(S'no_vo'
I4
tp1447
a(S'w'
I610
tp1448
a(S'p1_vo'
I5
tp1449
a(S'w'
I3
tp1450
a(S'p2_du'
I3
tp1451
a(S'p2_vo'
I10
tp1452
a(S'w'
I8
tp1453
a(S'no_vo'
I5
tp1454
a(S'w'
I718
tp1455
a(S'p2_vo'
I9
tp1456
a(S'w'
I9
tp1457
a(S'no_vo'
I4
tp1458
a(S'w'
I712
tp1459
a(S'p2_vo'
I8
tp1460
a(S'w'
I749
tp1461
a(S'p1_vo'
I0
tp1462
a(S'w'
I3
tp1463
a(S'p2_vo'
I7
tp1464
a(S'w'
I3
tp1465
a(S'tr_lh'
I0
tp1466
a(S'tr_lr'
I0
tp1467
a(S'w'
I712
tp1468
a(S'p2_vo'
I6
tp1469
a(S'w'
I734
tp1470
a(S'p2_vo'
I5
tp1471
a(S'w'
I739
tp1472
a(S'p2_vo'
I4
tp1473
a(S'w'
I762
tp1474
a(S'p1_vo'
I7
tp1475
a(S'w'
I2
tp1476
a(S'p1_tl'
I103
tp1477
a(S'w'
I1
tp1478
a(S'p1_ll'
I6
tp1479
a(S'w'
I4
tp1480
a(S'tr_lh'
I1
tp1481
a(S'tr_lr'
I127
tp1482
a(S'w'
I2
tp1483
a(S'tr_tl'
I201
tp1484
a(S'w'
I1
tp1485
a(S'tr_ll'
I6
tp1486
a(S'tr_th'
I0
tp1487
a(S'w'
I696
tp1488
a(S'p1_vo'
I5
tp1489
a(S'w'
I3
tp1490
a(S'p2_vo'
I3
tp1491
a(S'w'
I733
tp1492
a(S'no_vo'
I3
tp1493
a(S'w'
I726
tp1494
a(S'p2_vo'
I2
tp1495
a(S'w'
I736
tp1496
a(S'p1_vo'
I0
tp1497
a(S'w'
I7
tp1498
a(S'tr_lh'
I0
tp1499
a(S'tr_lr'
I0
tp1500
a(S'w'
I724
tp1501
a(S'p2_vo'
I1
tp1502
a(S'w'
I739
tp1503
a(S'no_vo'
I0
tp1504
a(S'w'
I728
tp1505
a(S'p2_vo'
I0
tp1506
a(S'w'
I786
tp1507
a(S'p1_vo'
I7
tp1508
a(S'w'
I2
tp1509
a(S'p1_tl'
I29
tp1510
a(S'w'
I1
tp1511
a(S'p1_ll'
I4
tp1512
a(S'w'
I4
tp1513
a(S'tr_lh'
I1
tp1514
a(S'tr_lr'
I127
tp1515
a(S'w'
I2
tp1516
a(S'tr_tl'
I179
tp1517
a(S'w'
I1
tp1518
a(S'tr_ll'
I4
tp1519
a(S'w'
I1
tp1520
a(S'no_np'
I0
tp1521
a(S'w'
I2
tp1522
a(S'no_vo'
I4
tp1523
a(S'w'
I680
tp1524
a(S'p1_vo'
I5
tp1525
a(S'w'
I11
tp1526
a(S'no_vo'
I5
tp1527
a(S'w'
I722
tp1528
a(S'no_vo'
I4
tp1529
a(S'w'
I1460
tp1530
a(S'p1_vo'
I0
tp1531
a(S'w'
I6
tp1532
a(S'tr_lh'
I0
tp1533
a(S'tr_lr'
I0
tp1534
a(S'w'
I1464
tp1535
a(S'no_vo'
I0
tp1536
a(S'w'
I1479
tp1537
a(S'ch_no'
I1
tp1538
a(S'ch_tr'
I1
tp1539
a(S'ch_p2'
I1
tp1540
a(S'ch_p1'
I1
tp1541
a(S'ch_no'
I1
tp1542
a(S'ch_tr'
I1
tp1543
a(S'ch_p2'
I1
tp1544
a(S'ch_p1'
I1
tp1545
a(S'w'
I133
tp1546
a(S'p1_vo'
I7
tp1547
a(S'w'
I1
tp1548
a(S'p1_tl'
I147
tp1549
a(S'w'
I1
tp1550
a(S'p1_ll'
I6
tp1551
a(S'w'
I1
tp1552
a(S'p2_du'
I2
tp1553
a(S'p2_vo'
I15
tp1554
a(S'w'
I3
tp1555
a(S'p2_ll'
I6
tp1556
a(S'w'
I1
tp1557
a(S'tr_lh'
I1
tp1558
a(S'tr_lr'
I127
tp1559
a(S'w'
I1
tp1560
a(S'tr_tl'
I13
tp1561
a(S'w'
I1
tp1562
a(S'tr_ll'
I6
tp1563
a(S'tr_th'
I1
tp1564
a(S'w'
I2
tp1565
a(S'no_np'
I4
tp1566
a(S'w'
I2
tp1567
a(S'no_vo'
I11
tp1568
a(S'w'
I587
tp1569
a(S'p1_vo'
I5
tp1570
a(S'w'
I3
tp1571
a(S'p2_du'
I3
tp1572
a(S'p2_vo'
I14
tp1573
a(S'w'
I8
tp1574
a(S'no_vo'
I8
tp1575
a(S'w'
I720
tp1576
a(S'p2_vo'
I13
tp1577
a(S'w'
I8
tp1578
a(S'no_vo'
I6
tp1579
a(S'w'
I722
tp1580
a(S'p2_vo'
I12
tp1581
a(S'w'
I8
tp1582
a(S'no_vo'
I0
tp1583
a(S'w'
I730
tp1584
a(S'p1_vo'
I0
tp1585
a(S'w'
I4
tp1586
a(S'p2_vo'
I11
tp1587
a(S'w'
I3
tp1588
a(S'tr_lh'
I0
tp1589
a(S'tr_lr'
I0
tp1590
a(S'w'
I712
tp1591
a(S'p2_vo'
I10
tp1592
a(S'w'
I731
tp1593
a(S'p2_vo'
I4
tp1594
a(S'w'
I1524
tp1595
a(S'p1_vo'
I7
tp1596
a(S'w'
I2
tp1597
a(S'p1_tl'
I64
tp1598
a(S'p1_ll'
I4
tp1599
a(S'w'
I5
tp1600
a(S'tr_lh'
I1
tp1601
a(S'tr_lr'
I127
tp1602
a(S'w'
I1
tp1603
a(S'tr_tl'
I201
tp1604
a(S'w'
I1
tp1605
a(S'tr_ll'
I4
tp1606
a(S'tr_th'
I0
tp1607
a(S'w'
I2
tp1608
a(S'no_np'
I2
tp1609
a(S'w'
I1
tp1610
a(S'no_vo'
I11
tp1611
a(S'w'
I670
tp1612
a(S'p1_vo'
I5
tp1613
a(S'w'
I11
tp1614
a(S'no_vo'
I8
tp1615
a(S'w'
I730
tp1616
a(S'p2_vo'
I0
tp1617
a(S'w'
I8
tp1618
a(S'no_vo'
I6
tp1619
a(S'w'
I723
tp1620
a(S'no_vo'
I0
tp1621
a(S'w'
I732
tp1622
a(S'p1_vo'
I0
tp1623
a(S'w'
I6
tp1624
a(S'tr_lh'
I0
tp1625
a(S'tr_lr'
I0
tp1626
a(S'w'
I2978
tp1627
a(S'p1_vo'
I7
tp1628
a(S'w'
I1
tp1629
a(S'p1_tl'
I13
tp1630
a(S'w'
I1
tp1631
a(S'p1_ll'
I6
tp1632
a(S'w'
I5
tp1633
a(S'tr_lh'
I1
tp1634
a(S'tr_lr'
I127
tp1635
a(S'w'
I1
tp1636
a(S'tr_tl'
I160
tp1637
a(S'w'
I1
tp1638
a(S'tr_ll'
I6
tp1639
a(S'w'
I2
tp1640
a(S'no_np'
I3
tp1641
a(S'w'
I1
tp1642
a(S'no_vo'
I11
tp1643
a(S'w'
I670
tp1644
a(S'p1_vo'
I5
tp1645
a(S'w'
I11
tp1646
a(S'no_vo'
I8
tp1647
a(S'w'
I732
tp1648
a(S'no_vo'
I6
tp1649
a(S'w'
I730
tp1650
a(S'no_vo'
I0
tp1651
a(S'w'
I731
tp1652
a(S'p1_vo'
I0
tp1653
a(S'w'
I6
tp1654
a(S'tr_lh'
I0
tp1655
a(S'tr_lr'
I0
tp1656
a(S'w'
I2930
tp1657
a(S'ch_no'
I1
tp1658
a(S'ch_tr'
I1
tp1659
a(S'ch_p2'
I1
tp1660
a(S'ch_p1'
I1
tp1661
a(S'w'
I1
tp1662
a(S'ch_no'
I1
tp1663
a(S'ch_tr'
I1
tp1664
a(S'ch_p2'
I1
tp1665
a(S'ch_p1'
I1
tp1666
a(S'w'
I116
tp1667
a(S'p1_vo'
I7
tp1668
a(S'w'
I2
tp1669
a(S'p1_tl'
I147
tp1670
a(S'w'
I1
tp1671
a(S'p1_ll'
I4
tp1672
a(S'w'
I1
tp1673
a(S'p2_du'
I2
tp1674
a(S'p2_vo'
I15
tp1675
a(S'w'
I2
tp1676
a(S'p2_ll'
I4
tp1677
a(S'w'
I1
tp1678
a(S'tr_lh'
I1
tp1679
a(S'tr_lr'
I127
tp1680
a(S'w'
I2
tp1681
a(S'tr_tl'
I13
tp1682
a(S'w'
I1
tp1683
a(S'tr_ll'
I4
tp1684
a(S'tr_th'
I1
tp1685
a(S'w'
I2
tp1686
a(S'no_np'
I1
tp1687
a(S'w'
I1
tp1688
a(S'no_vo'
I4
tp1689
a(S'w'
I619
tp1690
a(S'p1_vo'
I5
tp1691
a(S'w'
I3
tp1692
a(S'p2_du'
I3
tp1693
a(S'p2_vo'
I14
tp1694
a(S'w'
I8
tp1695
a(S'no_vo'
I5
tp1696
a(S'w'
I718
tp1697
a(S'p2_vo'
I13
tp1698
a(S'w'
I9
tp1699
a(S'no_vo'
I4
tp1700
a(S'w'
I712
tp1701
a(S'p2_vo'
I12
tp1702
a(S'w'
I749
tp1703
a(S'p1_vo'
I0
tp1704
a(S'w'
I3
tp1705
a(S'p2_vo'
I11
tp1706
a(S'w'
I3
tp1707
a(S'tr_lh'
I0
tp1708
a(S'tr_lr'
I0
tp1709
a(S'w'
I712
tp1710
a(S'p2_vo'
I10
tp1711
a(S'w'
I731
tp1712
a(S'p2_vo'
I4
tp1713
a(S'w'
I1504
tp1714
a(S'p1_vo'
I7
tp1715
a(S'w'
I2
tp1716
a(S'p1_tl'
I64
tp1717
a(S'w'
I1
tp1718
a(S'p1_ll'
I6
tp1719
a(S'w'
I4
tp1720
a(S'tr_lh'
I1
tp1721
a(S'tr_lr'
I127
tp1722
a(S'w'
I1
tp1723
a(S'tr_tl'
I201
tp1724
a(S'w'
I1
tp1725
a(S'tr_ll'
I6
tp1726
a(S'tr_th'
I0
tp1727
a(S'w'
I685
tp1728
a(S'p1_vo'
I5
tp1729
a(S'w'
I747
tp1730
a(S'p2_vo'
I0
tp1731
a(S'w'
I8
tp1732
a(S'no_vo'
I3
tp1733
a(S'w'
I1455
tp1734
a(S'p1_vo'
I0
tp1735
a(S'w'
I6
tp1736
a(S'tr_lh'
I0
tp1737
a(S'tr_lr'
I0
tp1738
a(S'w'
I1464
tp1739
a(S'no_vo'
I0
tp1740
a(S'w'
I1440
tp1741
a(S'ch_no'
I1
tp1742
a(S'ch_tr'
I1
tp1743
a(S'ch_p2'
I1
tp1744
a(S'ch_p1'
I1
tp1745
a(S'ch_no'
I1
tp1746
a(S'ch_tr'
I1
tp1747
a(S'ch_p2'
I1
tp1748
a(S'ch_p1'
I1
tp1749
a(S'w'
I100
tp1750
a(S'p1_vo'
I7
tp1751
a(S'w'
I1
tp1752
a(S'p1_tl'
I13
tp1753
a(S'w'
I1
tp1754
a(S'p1_ll'
I4
tp1755
a(S'w'
I5
tp1756
a(S'tr_lh'
I1
tp1757
a(S'tr_lr'
I127
tp1758
a(S'w'
I1
tp1759
a(S'tr_tl'
I160
tp1760
a(S'w'
I1
tp1761
a(S'tr_ll'
I4
tp1762
a(S'w'
I3
tp1763
a(S'no_vo'
I5
tp1764
a(S'w'
I645
tp1765
a(S'p1_vo'
I5
tp1766
a(S'w'
I12
tp1767
a(S'no_vo'
I2
tp1768
a(S'w'
I731
tp1769
a(S'no_vo'
I0
tp1770
a(S'w'
I1471
tp1771
a(S'p1_vo'
I0
tp1772
a(S'w'
I6
tp1773
a(S'tr_lh'
I0
tp1774
a(S'tr_lr'
I0
tp1775
a(S'w'
I2924
tp1776
a(S'ch_no'
I1
tp1777
a(S'ch_tr'
I1
tp1778
a(S'ch_p2'
I1
tp1779
a(S'ch_p1'
I1
tp1780
a(S'ch_no'
I1
tp1781
a(S'ch_tr'
I1
tp1782
a(S'ch_p2'
I1
tp1783
a(S'ch_p1'
I1
tp1784
a(S'w'
I86
tp1785
a(S'p1_vo'
I7
tp1786
a(S'w'
I2
tp1787
a(S'p1_tl'
I147
tp1788
a(S'w'
I1
tp1789
a(S'p1_ll'
I6
tp1790
a(S'w'
I1
tp1791
a(S'p2_du'
I2
tp1792
a(S'p2_vo'
I14
tp1793
a(S'w'
I2
tp1794
a(S'p2_ll'
I6
tp1795
a(S'w'
I2
tp1796
a(S'tr_lh'
I1
tp1797
a(S'tr_lr'
I127
tp1798
a(S'w'
I1
tp1799
a(S'tr_tl'
I13
tp1800
a(S'w'
I1
tp1801
a(S'tr_ll'
I6
tp1802
a(S'tr_th'
I1
tp1803
a(S'w'
I3
tp1804
a(S'w'
I636
tp1805
a(S'p1_vo'
I5
tp1806
a(S'w'
I4
tp1807
a(S'p2_du'
I3
tp1808
a(S'p2_vo'
I13
tp1809
a(S'w'
I721
tp1810
a(S'p2_vo'
I12
tp1811
a(S'w'
I734
tp1812
a(S'p2_vo'
I11
tp1813
a(S'w'
I747
tp1814
a(S'p1_vo'
I0
tp1815
a(S'w'
I3
tp1816
a(S'p2_vo'
I10
tp1817
a(S'w'
I3
tp1818
a(S'tr_lh'
I0
tp1819
a(S'tr_lr'
I0
tp1820
a(S'w'
I710
tp1821
a(S'p2_vo'
I3
tp1822
a(S'w'
I2293
tp1823
a(S'p1_vo'
I7
tp1824
a(S'w'
I2
tp1825
a(S'p1_tl'
I103
tp1826
a(S'w'
I1
tp1827
a(S'p1_ll'
I4
tp1828
a(S'w'
I1
tp1829
a(S'p2_du'
I2
tp1830
a(S'p2_vo'
I13
tp1831
a(S'w'
I3
tp1832
a(S'p2_ll'
I4
tp1833
a(S'w'
I1
tp1834
a(S'tr_lh'
I1
tp1835
a(S'tr_lr'
I127
tp1836
a(S'w'
I1
tp1837
a(S'tr_tl'
I201
tp1838
a(S'w'
I1
tp1839
a(S'tr_ll'
I4
tp1840
a(S'tr_th'
I0
tp1841
a(S'w'
I2
tp1842
a(S'no_np'
I4
tp1843
a(S'w'
I2
tp1844
a(S'no_vo'
I9
tp1845
a(S'w'
I647
tp1846
a(S'p1_vo'
I5
tp1847
a(S'w'
I3
tp1848
a(S'p2_du'
I3
tp1849
a(S'p2_vo'
I12
tp1850
a(S'w'
I8
tp1851
a(S'no_vo'
I6
tp1852
a(S'w'
I719
tp1853
a(S'p2_vo'
I11
tp1854
a(S'w'
I8
tp1855
a(S'no_vo'
I4
tp1856
a(S'w'
I724
tp1857
a(S'p2_vo'
I10
tp1858
a(S'w'
I9
tp1859
a(S'no_vo'
I2
tp1860
a(S'w'
I739
tp1861
a(S'p1_vo'
I0
tp1862
a(S'w'
I4
tp1863
a(S'p2_vo'
I9
tp1864
a(S'w'
I3
tp1865
a(S'tr_lh'
I0
tp1866
a(S'tr_lr'
I0
tp1867
a(S'w'
I5
tp1868
a(S'no_vo'
I0
tp1869
a(S'w'
I705
tp1870
a(S'p2_vo'
I2
tp1871
a(S'w'
I2199
tp1872
a(S'ch_no'
I1
tp1873
a(S'ch_tr'
I1
tp1874
a(S'ch_p2'
I1
tp1875
a(S'ch_p1'
I1
tp1876
a(S'ch_no'
I1
tp1877
a(S'ch_tr'
I1
tp1878
a(S'ch_p2'
I1
tp1879
a(S'ch_p1'
I1
tp1880
a(S'w'
I95
tp1881
a(S'p1_vo'
I7
tp1882
a(S'w'
I1
tp1883
a(S'p1_tl'
I29
tp1884
a(S'w'
I1
tp1885
a(S'p1_ll'
I6
tp1886
a(S'w'
I1
tp1887
a(S'p2_du'
I2
tp1888
a(S'p2_vo'
I12
tp1889
a(S'w'
I3
tp1890
a(S'p2_ll'
I6
tp1891
a(S'w'
I1
tp1892
a(S'tr_lh'
I1
tp1893
a(S'tr_lr'
I127
tp1894
a(S'w'
I2
tp1895
a(S'tr_tl'
I179
tp1896
a(S'w'
I1
tp1897
a(S'tr_ll'
I6
tp1898
a(S'w'
I1
tp1899
a(S'no_np'
I3
tp1900
a(S'w'
I2
tp1901
a(S'no_vo'
I9
tp1902
a(S'w'
I637
tp1903
a(S'p1_vo'
I5
tp1904
a(S'w'
I3
tp1905
a(S'p2_du'
I3
tp1906
a(S'p2_vo'
I11
tp1907
a(S'w'
I9
tp1908
a(S'no_vo'
I6
tp1909
a(S'w'
I719
tp1910
a(S'p2_vo'
I10
tp1911
a(S'w'
I8
tp1912
a(S'no_vo'
I4
tp1913
a(S'w'
I724
tp1914
a(S'p2_vo'
I9
tp1915
a(S'w'
I8
tp1916
a(S'no_vo'
I2
tp1917
a(S'w'
I738
tp1918
a(S'p1_vo'
I0
tp1919
a(S'w'
I4
tp1920
a(S'p2_vo'
I8
tp1921
a(S'w'
I3
tp1922
a(S'tr_lh'
I0
tp1923
a(S'tr_lr'
I0
tp1924
a(S'w'
I5
tp1925
a(S'no_vo'
I0
tp1926
a(S'w'
I705
tp1927
a(S'p2_vo'
I1
tp1928
a(S'w'
I2204
tp1929
a(S'ch_no'
I1
tp1930
a(S'ch_tr'
I1
tp1931
a(S'ch_p2'
I1
tp1932
a(S'ch_p1'
I1
tp1933
a(S'ch_no'
I1
tp1934
a(S'ch_tr'
I1
tp1935
a(S'ch_p2'
I1
tp1936
a(S'ch_p1'
I1
tp1937
a(S'w'
I117
tp1938
a(S'p1_vo'
I5
tp1939
a(S'w'
I2
tp1940
a(S'p1_tl'
I13
tp1941
a(S'p1_ll'
I4
tp1942
a(S'w'
I2
tp1943
a(S'p2_du'
I2
tp1944
a(S'p2_vo'
I11
tp1945
a(S'w'
I1
tp1946
a(S'p2_tl'
I41
tp1947
a(S'w'
I1
tp1948
a(S'p2_ll'
I4
tp1949
a(S'p2_th'
I3
tp1950
a(S'w'
I1
tp1951
a(S'tr_lh'
I1
tp1952
a(S'tr_lr'
I127
tp1953
a(S'w'
I2
tp1954
a(S'tr_tl'
I160
tp1955
a(S'w'
I1
tp1956
a(S'tr_ll'
I4
tp1957
a(S'w'
I2
tp1958
a(S'no_np'
I1
tp1959
a(S'w'
I1
tp1960
a(S'no_vo'
I4
tp1961
a(S'w'
I613
tp1962
a(S'p1_vo'
I3
tp1963
a(S'w'
I3
tp1964
a(S'p2_du'
I3
tp1965
a(S'p2_vo'
I10
tp1966
a(S'w'
I8
tp1967
a(S'no_vo'
I5
tp1968
a(S'w'
I718
tp1969
a(S'p2_vo'
I9
tp1970
a(S'w'
I9
tp1971
a(S'no_vo'
I4
tp1972
a(S'w'
I726
tp1973
a(S'p1_vo'
I0
tp1974
a(S'w'
I4
tp1975
a(S'p2_vo'
I8
tp1976
a(S'w'
I3
tp1977
a(S'tr_lh'
I0
tp1978
a(S'tr_lr'
I0
tp1979
a(S'w'
I713
tp1980
a(S'p2_vo'
I7
tp1981
a(S'w'
I730
tp1982
a(S'p2_vo'
I0
tp1983
a(S'w'
I2203
tp1984
a(S'ch_no'
I1
tp1985
a(S'ch_tr'
I1
tp1986
a(S'ch_p2'
I1
tp1987
a(S'ch_p1'
I1
tp1988
a(S'ch_no'
I1
tp1989
a(S'ch_tr'
I1
tp1990
a(S'ch_p2'
I1
tp1991
a(S'ch_p1'
I1
tp1992
a(S'w'
I76
tp1993
a(S'p1_vo'
I5
tp1994
a(S'w'
I2
tp1995
a(S'p1_tl'
I160
tp1996
a(S'w'
I1
tp1997
a(S'p1_ll'
I6
tp1998
a(S'p1_th'
I0
tp1999
a(S'w'
I1
tp2000
a(S'p2_du'
I2
tp2001
a(S'p2_vo'
I14
tp2002
a(S'w'
I2
tp2003
a(S'p2_tl'
I82
tp2004
a(S'p2_ll'
I6
tp2005
a(S'p2_th'
I6
tp2006
a(S'w'
I2
tp2007
a(S'tr_lh'
I1
tp2008
a(S'tr_lr'
I127
tp2009
a(S'w'
I1
tp2010
a(S'tr_tl'
I100
tp2011
a(S'w'
I1
tp2012
a(S'tr_ll'
I6
tp2013
a(S'w'
I3
tp2014
a(S'no_vo'
I0
tp2015
a(S'w'
I656
tp2016
a(S'p1_vo'
I3
tp2017
a(S'w'
I3
tp2018
a(S'p2_du'
I3
tp2019
a(S'p2_vo'
I13
tp2020
a(S'w'
I733
tp2021
a(S'p2_vo'
I12
tp2022
a(S'w'
I8
tp2023
a(S'no_vo'
I3
tp2024
a(S'w'
I728
tp2025
a(S'p1_vo'
I0
tp2026
a(S'w'
I4
tp2027
a(S'p2_vo'
I11
tp2028
a(S'w'
I3
tp2029
a(S'tr_lh'
I0
tp2030
a(S'tr_lr'
I0
tp2031
a(S'w'
I713
tp2032
a(S'p2_vo'
I10
tp2033
a(S'w'
I734
tp2034
a(S'p2_vo'
I9
tp2035
a(S'w'
I742
tp2036
a(S'p2_vo'
I8
tp2037
a(S'w'
I8
tp2038
a(S'no_vo'
I0
tp2039
a(S'w'
I722
tp2040
a(S'p2_vo'
I7
tp2041
a(S'w'
I729
tp2042
a(S'ch_no'
I1
tp2043
a(S'ch_tr'
I1
tp2044
a(S'ch_p2'
I1
tp2045
a(S'ch_p1'
I1
tp2046
a(S'ch_no'
I1
tp2047
a(S'ch_tr'
I1
tp2048
a(S'ch_p2'
I1
tp2049
a(S'ch_p1'
I1
tp2050
a(S'w'
I94
tp2051
a(S'p1_vo'
I5
tp2052
a(S'w'
I2
tp2053
a(S'p1_tl'
I201
tp2054
a(S'w'
I1
tp2055
a(S'p1_ll'
I4
tp2056
a(S'w'
I1
tp2057
a(S'p2_du'
I2
tp2058
a(S'p2_vo'
I11
tp2059
a(S'w'
I2
tp2060
a(S'p2_tl'
I244
tp2061
a(S'w'
I1
tp2062
a(S'p2_ll'
I4
tp2063
a(S'p2_th'
I5
tp2064
a(S'w'
I1
tp2065
a(S'tr_lh'
I1
tp2066
a(S'tr_lr'
I127
tp2067
a(S'w'
I1
tp2068
a(S'tr_tl'
I134
tp2069
a(S'w'
I1
tp2070
a(S'tr_ll'
I4
tp2071
a(S'w'
I2
tp2072
a(S'no_np'
I0
tp2073
a(S'w'
I2
tp2074
a(S'no_vo'
I4
tp2075
a(S'w'
I644
tp2076
a(S'p1_vo'
I3
tp2077
a(S'w'
I3
tp2078
a(S'p2_du'
I3
tp2079
a(S'p2_vo'
I10
tp2080
a(S'w'
I8
tp2081
a(S'no_vo'
I5
tp2082
a(S'w'
I718
tp2083
a(S'p2_vo'
I9
tp2084
a(S'w'
I8
tp2085
a(S'no_vo'
I4
tp2086
a(S'w'
I726
tp2087
a(S'p1_vo'
I0
tp2088
a(S'w'
I4
tp2089
a(S'p2_vo'
I8
tp2090
a(S'w'
I3
tp2091
a(S'tr_lh'
I0
tp2092
a(S'tr_lr'
I0
tp2093
a(S'w'
I711
tp2094
a(S'p2_vo'
I7
tp2095
a(S'w'
I734
tp2096
a(S'p2_vo'
I6
tp2097
a(S'w'
I742
tp2098
a(S'p2_vo'
I5
tp2099
a(S'w'
I9
tp2100
a(S'no_vo'
I0
tp2101
a(S'w'
I723
tp2102
a(S'p2_vo'
I4
tp2103
a(S'w'
I770
tp2104
a(S'ch_no'
I1
tp2105
a(S'ch_tr'
I1
tp2106
a(S'ch_p2'
I1
tp2107
a(S'ch_p1'
I1
tp2108
a(S'ch_no'
I1
tp2109
a(S'ch_tr'
I1
tp2110
a(S'ch_p2'
I1
tp2111
a(S'ch_p1'
I1
tp2112
a(S'w'
I162
tp2113
a(S'p1_vo'
I7
tp2114
a(S'w'
I2
tp2115
a(S'p1_tl'
I64
tp2116
a(S'p1_ll'
I6
tp2117
a(S'p1_th'
I1
tp2118
a(S'w'
I2
tp2119
a(S'p2_du'
I2
tp2120
a(S'p2_vo'
I15
tp2121
a(S'w'
I1
tp2122
a(S'p2_tl'
I160
tp2123
a(S'w'
I1
tp2124
a(S'p2_ll'
I6
tp2125
a(S'w'
I1
tp2126
a(S'tr_lh'
I1
tp2127
a(S'tr_lr'
I127
tp2128
a(S'w'
I2
tp2129
a(S'tr_tl'
I201
tp2130
a(S'w'
I1
tp2131
a(S'tr_ll'
I6
tp2132
a(S'w'
I2
tp2133
a(S'no_np'
I4
tp2134
a(S'w'
I1
tp2135
a.