(lp1
(S'clock'
p2
I1789772
tp3
a(S'w'
I2
tp4
a(S'ch_no'
I1
tp5
a(S'ch_tr'
I1
tp6
a(S'ch_p2'
I1
tp7
a(S'ch_p1'
I1
tp8
a(S'w'
I1
tp9
a(S'w'
I1
tp10
a(S'tr_lh'
I1
tp11
a(S'tr_lr'
I127
tp12
a(S'w'
I14
tp13
a(S'p1_tl'
I106
tp14
a(S'p1_ll'
I0
tp15
a(S'w'
I2
tp16
a(S'p1_du'
I2
tp17
a(S'p1_lh'
I1
tp18
a(S'p1_cv'
I1
tp19
a(S'p1_vo'
I9
tp20
a(S'w'
I12
tp21
a(S'p2_tl'
I87
tp22
a(S'p2_ll'
I0
tp23
a(S'p2_th'
I3
tp24
a(S'w'
I1
tp25
a(S'p2_du'
I2
tp26
a(S'p2_lh'
I1
tp27
a(S'p2_cv'
I1
tp28
a(S'p2_vo'
I6
tp29
a(S'w'
I2
tp30
a(S'w'
I4
tp31
a(S'tr_tl'
I87
tp32
a(S'tr_ll'
I0
tp33
a(S'tr_th'
I3
tp34
a(S'w'
I15
tp35
a(S'no_ll'
I0
tp36
a(S'no_lh'
I1
tp37
a(S'no_cv'
I1
tp38
a(S'w'
I2
tp39
a(S'no_ll'
I0
tp40
a(S'w'
I681
tp41
a(S'p1_vo'
I7
tp42
a(S'w'
I2
tp43
a(S'p1_tl'
I35
tp44
a(S'w'
I732
tp45
a(S'p1_vo'
I5
tp46
a(S'w'
I2
tp47
a(S'p1_tl'
I107
tp48
a(S'w'
I1469
tp49
a(S'p2_vo'
I5
tp50
a(S'w'
I1464
tp51
a(S'p1_vo'
I4
tp52
a(S'w'
I1470
tp53
a(S'p1_tl'
I35
tp54
a(S'w'
I734
tp55
a(S'p1_tl'
I107
tp56
a(S'w'
I3
tp57
a(S'p2_vo'
I4
tp58
a(S'w'
I1462
tp59
a(S'p1_vo'
I3
tp60
a(S'w'
I2202
tp61
a(S'p1_vo'
I2
tp62
a(S'w'
I3
tp63
a(S'p2_vo'
I3
tp64
a(S'w'
I732
tp65
a(S'p1_tl'
I35
tp66
a(S'w'
I734
tp67
a(S'p1_tl'
I107
tp68
a(S'w'
I6
tp69
a(S'tr_tl'
I0
tp70
a(S'tr_ll'
I0
tp71
a(S'tr_th'
I0
tp72
a(S'w'
I1460
tp73
a(S'p1_vo'
I1
tp74
a(S'w'
I737
tp75
a(S'p2_vo'
I2
tp76
a(S'w'
I2200
tp77
a(S'p1_tl'
I142
tp78
a(S'w'
I3
tp79
a(S'p1_vo'
I9
tp80
a(S'w'
I5
tp81
a(S'p2_tl'
I166
tp82
a(S'p2_ll'
I0
tp83
a(S'p2_th'
I2
tp84
a(S'w'
I1
tp85
a(S'p2_vo'
I6
tp86
a(S'w'
I2
tp87
a(S'w'
I4
tp88
a(S'tr_tl'
I166
tp89
a(S'tr_ll'
I0
tp90
a(S'tr_th'
I2
tp91
a(S'w'
I717
tp92
a(S'p1_vo'
I7
tp93
a(S'w'
I2
tp94
a(S'p1_tl'
I47
tp95
a(S'w'
I732
tp96
a(S'p1_vo'
I5
tp97
a(S'w'
I2
tp98
a(S'p1_tl'
I143
tp99
a(S'w'
I1468
tp100
a(S'p2_vo'
I5
tp101
a(S'w'
I1465
tp102
a(S'p1_vo'
I4
tp103
a(S'w'
I1469
tp104
a(S'p1_tl'
I47
tp105
a(S'w'
I734
tp106
a(S'p1_tl'
I143
tp107
a(S'w'
I3
tp108
a(S'p2_vo'
I4
tp109
a(S'w'
I1463
tp110
a(S'p1_vo'
I3
tp111
a(S'w'
I2201
tp112
a(S'p1_vo'
I2
tp113
a(S'w'
I3
tp114
a(S'p2_vo'
I3
tp115
a(S'w'
I733
tp116
a(S'p1_tl'
I47
tp117
a(S'w'
I734
tp118
a(S'p1_tl'
I143
tp119
a(S'w'
I6
tp120
a(S'tr_tl'
I0
tp121
a(S'w'
I1
tp122
a(S'tr_ll'
I0
tp123
a(S'tr_th'
I0
tp124
a(S'w'
I1458
tp125
a(S'p1_vo'
I1
tp126
a(S'w'
I737
tp127
a(S'p2_vo'
I2
tp128
a(S'w'
I2200
tp129
a(S'p1_tl'
I169
tp130
a(S'w'
I3
tp131
a(S'p1_vo'
I9
tp132
a(S'w'
I5
tp133
a(S'p2_tl'
I58
tp134
a(S'w'
I1
tp135
a(S'p2_vo'
I6
tp136
a(S'w'
I2
tp137
a(S'w'
I4
tp138
a(S'tr_tl'
I58
tp139
a(S'tr_ll'
I0
tp140
a(S'tr_th'
I2
tp141
a(S'w'
I717
tp142
a(S'p1_vo'
I7
tp143
a(S'w'
I2
tp144
a(S'p1_tl'
I56
tp145
a(S'w'
I732
tp146
a(S'p1_vo'
I5
tp147
a(S'w'
I2
tp148
a(S'p1_tl'
I170
tp149
a(S'w'
I1469
tp150
a(S'p2_vo'
I5
tp151
a(S'w'
I1464
tp152
a(S'p1_vo'
I4
tp153
a(S'w'
I1470
tp154
a(S'p1_tl'
I56
tp155
a(S'w'
I6
tp156
a(S'tr_tl'
I0
tp157
a(S'tr_ll'
I0
tp158
a(S'tr_th'
I0
tp159
a(S'w'
I727
tp160
a(S'p1_tl'
I170
tp161
a(S'w'
I3
tp162
a(S'p2_vo'
I4
tp163
a(S'w'
I729
tp164
a(S'p1_vo'
I3
tp165
a(S'w'
I736
tp166
a(S'p1_tl'
I169
tp167
a(S'w'
I3
tp168
a(S'p1_vo'
I9
tp169
a(S'w'
I5
tp170
a(S'p2_tl'
I128
tp171
a(S'w'
I1
tp172
a(S'p2_vo'
I6
tp173
a(S'w'
I2
tp174
a(S'w'
I4
tp175
a(S'tr_tl'
I128
tp176
a(S'tr_ll'
I0
tp177
a(S'tr_th'
I2
tp178
a(S'w'
I717
tp179
a(S'p1_vo'
I7
tp180
a(S'w'
I2
tp181
a(S'p1_tl'
I56
tp182
a(S'w'
I732
tp183
a(S'p1_vo'
I5
tp184
a(S'w'
I2
tp185
a(S'p1_tl'
I170
tp186
a(S'w'
I1468
tp187
a(S'p2_vo'
I5
tp188
a(S'w'
I1465
tp189
a(S'p1_vo'
I4
tp190
a(S'w'
I1469
tp191
a(S'p1_tl'
I56
tp192
a(S'w'
I6
tp193
a(S'tr_tl'
I0
tp194
a(S'tr_ll'
I0
tp195
a(S'tr_th'
I0
tp196
a(S'w'
I728
tp197
a(S'p1_tl'
I170
tp198
a(S'w'
I3
tp199
a(S'p2_vo'
I4
tp200
a(S'w'
I729
tp201
a(S'p1_vo'
I3
tp202
a(S'w'
I736
tp203
a(S'p1_tl'
I169
tp204
a(S'w'
I3
tp205
a(S'p1_vo'
I9
tp206
a(S'w'
I5
tp207
a(S'p2_tl'
I166
tp208
a(S'w'
I1
tp209
a(S'p2_vo'
I6
tp210
a(S'w'
I2
tp211
a(S'w'
I4
tp212
a(S'tr_tl'
I166
tp213
a(S'tr_ll'
I0
tp214
a(S'tr_th'
I2
tp215
a(S'w'
I717
tp216
a(S'p1_vo'
I7
tp217
a(S'w'
I2
tp218
a(S'p1_tl'
I56
tp219
a(S'w'
I731
tp220
a(S'p1_vo'
I5
tp221
a(S'w'
I2
tp222
a(S'p1_tl'
I170
tp223
a(S'w'
I1469
tp224
a(S'p2_vo'
I5
tp225
a(S'w'
I1465
tp226
a(S'p1_vo'
I4
tp227
a(S'w'
I1469
tp228
a(S'p1_tl'
I56
tp229
a(S'w'
I6
tp230
a(S'tr_tl'
I0
tp231
a(S'tr_ll'
I0
tp232
a(S'tr_th'
I0
tp233
a(S'w'
I728
tp234
a(S'p1_tl'
I170
tp235
a(S'w'
I3
tp236
a(S'p2_vo'
I4
tp237
a(S'w'
I729
tp238
a(S'p1_vo'
I3
tp239
a(S'w'
I735
tp240
a(S'p1_tl'
I190
tp241
a(S'w'
I3
tp242
a(S'p1_vo'
I9
tp243
a(S'w'
I5
tp244
a(S'p2_tl'
I249
tp245
a(S'w'
I1
tp246
a(S'p2_vo'
I6
tp247
a(S'w'
I2
tp248
a(S'w'
I4
tp249
a(S'tr_tl'
I249
tp250
a(S'tr_ll'
I0
tp251
a(S'tr_th'
I2
tp252
a(S'w'
I717
tp253
a(S'p1_vo'
I7
tp254
a(S'w'
I2
tp255
a(S'p1_tl'
I63
tp256
a(S'w'
I732
tp257
a(S'p1_vo'
I5
tp258
a(S'w'
I2
tp259
a(S'p1_tl'
I191
tp260
a(S'w'
I1469
tp261
a(S'p2_vo'
I5
tp262
a(S'w'
I1464
tp263
a(S'p1_vo'
I4
tp264
a(S'w'
I1470
tp265
a(S'p1_tl'
I63
tp266
a(S'w'
I734
tp267
a(S'p1_tl'
I191
tp268
a(S'w'
I3
tp269
a(S'p2_vo'
I4
tp270
a(S'w'
I1462
tp271
a(S'p1_vo'
I3
tp272
a(S'w'
I2202
tp273
a(S'p1_vo'
I2
tp274
a(S'w'
I3
tp275
a(S'p2_vo'
I3
tp276
a(S'w'
I732
tp277
a(S'p1_tl'
I63
tp278
a(S'w'
I734
tp279
a(S'p1_tl'
I191
tp280
a(S'w'
I6
tp281
a(S'tr_tl'
I0
tp282
a(S'tr_ll'
I0
tp283
a(S'tr_th'
I0
tp284
a(S'w'
I1460
tp285
a(S'p1_vo'
I1
tp286
a(S'w'
I737
tp287
a(S'p2_vo'
I2
tp288
a(S'w'
I2207
tp289
a(S'p1_tl'
I53
tp290
a(S'w'
I2
tp291
a(S'p1_vo'
I3
tp292
a(S'w'
I11
tp293
a(S'p2_tl'
I106
tp294
a(S'p2_ll'
I0
tp295
a(S'p2_th'
I0
tp296
a(S'w'
I1
tp297
a(S'p2_vo'
I5
tp298
a(S'w'
I711
tp299
a(S'p1_vo'
I5
tp300
a(S'w'
I4
tp301
a(S'p2_tl'
I35
tp302
a(S'w'
I729
tp303
a(S'p1_vo'
I7
tp304
a(S'w'
I4
tp305
a(S'p2_tl'
I107
tp306
a(S'w'
I730
tp307
a(S'p1_vo'
I8
tp308
a(S'w'
I3
tp309
a(S'p2_vo'
I4
tp310
a(S'w'
I731
tp311
a(S'p1_vo'
I7
tp312
a(S'w'
I734
tp313
a(S'p1_vo'
I6
tp314
a(S'w'
I1
tp315
a(S'p1_tl'
I51
tp316
a(S'w'
I733
tp317
a(S'p1_vo'
I5
tp318
a(S'w'
I1
tp319
a(S'p1_tl'
I49
tp320
a(S'w'
I732
tp321
a(S'p1_vo'
I4
tp322
a(S'w'
I1
tp323
a(S'p1_tl'
I51
tp324
a(S'w'
I3
tp325
a(S'p2_vo'
I3
tp326
a(S'w'
I730
tp327
a(S'p1_vo'
I3
tp328
a(S'w'
I1
tp329
a(S'p1_tl'
I53
tp330
a(S'w'
I4
tp331
a(S'p2_tl'
I35
tp332
a(S'w'
I729
tp333
a(S'p1_vo'
I1
tp334
a(S'w'
I1
tp335
a(S'p1_tl'
I55
tp336
a(S'w'
I5
tp337
a(S'p2_tl'
I107
tp338
a(S'w'
I728
tp339
a(S'p1_tl'
I57
tp340
a(S'w'
I737
tp341
a(S'p1_tl'
I56
tp342
a(S'w'
I2
tp343
a(S'p1_vo'
I3
tp344
a(S'w'
I5
tp345
a(S'p2_tl'
I113
tp346
a(S'w'
I1
tp347
a(S'p2_vo'
I5
tp348
a(S'w'
I722
tp349
a(S'p1_vo'
I5
tp350
a(S'w'
I4
tp351
a(S'p2_tl'
I37
tp352
a(S'w'
I730
tp353
a(S'p1_vo'
I7
tp354
a(S'w'
I4
tp355
a(S'p2_tl'
I114
tp356
a(S'w'
I730
tp357
a(S'p1_vo'
I8
tp358
a(S'w'
I3
tp359
a(S'p2_vo'
I4
tp360
a(S'w'
I731
tp361
a(S'p1_vo'
I7
tp362
a(S'w'
I734
tp363
a(S'p1_vo'
I6
tp364
a(S'w'
I1
tp365
a(S'p1_tl'
I54
tp366
a(S'w'
I732
tp367
a(S'p1_vo'
I5
tp368
a(S'w'
I1
tp369
a(S'p1_tl'
I52
tp370
a(S'w'
I733
tp371
a(S'p1_vo'
I4
tp372
a(S'w'
I1
tp373
a(S'p1_tl'
I54
tp374
a(S'w'
I3
tp375
a(S'p2_vo'
I3
tp376
a(S'w'
I730
tp377
a(S'p1_vo'
I3
tp378
a(S'w'
I1
tp379
a(S'p1_tl'
I56
tp380
a(S'w'
I4
tp381
a(S'p2_tl'
I37
tp382
a(S'w'
I729
tp383
a(S'p1_vo'
I1
tp384
a(S'w'
I1
tp385
a(S'p1_tl'
I58
tp386
a(S'w'
I5
tp387
a(S'p2_tl'
I114
tp388
a(S'w'
I728
tp389
a(S'p1_tl'
I60
tp390
a(S'w'
I736
tp391
a(S'p1_tl'
I47
tp392
a(S'w'
I2
tp393
a(S'p1_vo'
I3
tp394
a(S'w'
I5
tp395
a(S'p2_tl'
I95
tp396
a(S'w'
I1
tp397
a(S'p2_vo'
I5
tp398
a(S'w'
I723
tp399
a(S'p1_vo'
I5
tp400
a(S'w'
I4
tp401
a(S'p2_tl'
I31
tp402
a(S'w'
I730
tp403
a(S'p1_vo'
I7
tp404
a(S'w'
I4
tp405
a(S'p2_tl'
I96
tp406
a(S'w'
I730
tp407
a(S'p1_vo'
I8
tp408
a(S'w'
I3
tp409
a(S'p2_vo'
I4
tp410
a(S'w'
I730
tp411
a(S'p1_vo'
I7
tp412
a(S'w'
I734
tp413
a(S'p1_vo'
I6
tp414
a(S'w'
I1
tp415
a(S'p1_tl'
I45
tp416
a(S'w'
I733
tp417
a(S'p1_vo'
I5
tp418
a(S'w'
I1
tp419
a(S'p1_tl'
I43
tp420
a(S'w'
I733
tp421
a(S'p1_vo'
I4
tp422
a(S'w'
I1
tp423
a(S'p1_tl'
I45
tp424
a(S'w'
I3
tp425
a(S'p2_vo'
I3
tp426
a(S'w'
I730
tp427
a(S'p1_vo'
I3
tp428
a(S'w'
I1
tp429
a(S'p1_tl'
I47
tp430
a(S'w'
I4
tp431
a(S'p2_tl'
I31
tp432
a(S'w'
I728
tp433
a(S'p1_vo'
I1
tp434
a(S'w'
I1
tp435
a(S'p1_tl'
I49
tp436
a(S'w'
I5
tp437
a(S'p2_tl'
I96
tp438
a(S'w'
I728
tp439
a(S'p1_tl'
I51
tp440
a(S'w'
I737
tp441
a(S'p1_tl'
I53
tp442
a(S'w'
I2
tp443
a(S'p1_vo'
I3
tp444
a(S'w'
I5
tp445
a(S'p2_tl'
I106
tp446
a(S'w'
I1
tp447
a(S'p2_vo'
I5
tp448
a(S'w'
I723
tp449
a(S'p1_vo'
I5
tp450
a(S'w'
I4
tp451
a(S'p2_tl'
I35
tp452
a(S'w'
I730
tp453
a(S'p1_vo'
I7
tp454
a(S'w'
I4
tp455
a(S'p2_tl'
I107
tp456
a(S'w'
I729
tp457
a(S'p1_vo'
I8
tp458
a(S'w'
I3
tp459
a(S'p2_vo'
I4
tp460
a(S'w'
I731
tp461
a(S'p1_vo'
I7
tp462
a(S'w'
I734
tp463
a(S'p1_vo'
I6
tp464
a(S'w'
I1
tp465
a(S'p1_tl'
I51
tp466
a(S'w'
I733
tp467
a(S'p1_vo'
I5
tp468
a(S'w'
I1
tp469
a(S'p1_tl'
I49
tp470
a(S'w'
I733
tp471
a(S'p1_vo'
I4
tp472
a(S'w'
I1
tp473
a(S'p1_tl'
I51
tp474
a(S'w'
I3
tp475
a(S'p2_vo'
I3
tp476
a(S'w'
I729
tp477
a(S'p1_vo'
I3
tp478
a(S'w'
I1
tp479
a(S'p1_tl'
I53
tp480
a(S'w'
I4
tp481
a(S'p2_tl'
I35
tp482
a(S'w'
I729
tp483
a(S'p1_vo'
I2
tp484
a(S'w'
I1
tp485
a(S'p1_tl'
I55
tp486
a(S'w'
I4
tp487
a(S'p2_tl'
I107
tp488
a(S'w'
I729
tp489
a(S'p1_vo'
I1
tp490
a(S'w'
I1
tp491
a(S'p1_tl'
I57
tp492
a(S'w'
I734
tp493
a(S'p1_tl'
I55
tp494
a(S'w'
I2
tp495
a(S'p2_vo'
I2
tp496
a(S'w'
I731
tp497
a(S'p1_tl'
I53
tp498
a(S'w'
I733
tp499
a(S'p1_tl'
I51
tp500
a(S'w'
I734
tp501
a(S'p1_tl'
I49
tp502
a(S'w'
I734
tp503
a(S'p1_tl'
I51
tp504
a(S'w'
I3
tp505
a(S'p2_vo'
I1
tp506
a(S'w'
I2
tp507
a(S'p2_tl'
I35
tp508
a(S'w'
I729
tp509
a(S'p1_tl'
I53
tp510
a(S'w'
I5
tp511
a(S'p2_tl'
I107
tp512
a(S'w'
I728
tp513
a(S'p1_tl'
I55
tp514
a(S'w'
I734
tp515
a(S'p1_tl'
I57
tp516
a(S'w'
I734
tp517
a(S'p1_tl'
I55
tp518
a(S'w'
I3
tp519
a(S'p2_vo'
I0
tp520
a(S'w'
I731
tp521
a(S'p1_vo'
I0
tp522
a(S'w'
I2
tp523
a(S'p1_tl'
I53
tp524
a(S'w'
I733
tp525
a(S'p1_tl'
I51
tp526
a(S'w'
I738
tp527
a(S'p1_tl'
I0
tp528
a(S'w'
I2
tp529
a(S'p1_vo'
I3
tp530
a(S'w'
I8
tp531
a(S'p2_tl'
I0
tp532
a(S'w'
I40577
tp533
a.