(lp1
(S'clock'
p2
I1789772
tp3
a(S'w'
I2
tp4
a(S'ch_no'
I1
tp5
a(S'ch_tr'
I1
tp6
a(S'ch_p2'
I1
tp7
a(S'ch_p1'
I1
tp8
a(S'w'
I1
tp9
a(S'w'
I1
tp10
a(S'tr_lh'
I1
tp11
a(S'tr_lr'
I127
tp12
a(S'w'
I14
tp13
a(S'p1_tl'
I106
tp14
a(S'p1_ll'
I0
tp15
a(S'w'
I2
tp16
a(S'p1_du'
I2
tp17
a(S'p1_lh'
I1
tp18
a(S'p1_cv'
I1
tp19
a(S'p1_vo'
I9
tp20
a(S'w'
I12
tp21
a(S'p2_tl'
I84
tp22
a(S'p2_ll'
I0
tp23
a(S'w'
I1
tp24
a(S'p2_du'
I2
tp25
a(S'p2_lh'
I1
tp26
a(S'p2_cv'
I1
tp27
a(S'p2_vo'
I4
tp28
a(S'w'
I3
tp29
a(S'w'
I7
tp30
a(S'tr_tl'
I171
tp31
a(S'tr_ll'
I0
tp32
a(S'tr_th'
I1
tp33
a(S'w'
I19
tp34
a(S'no_np'
I8
tp35
a(S'no_ll'
I0
tp36
a(S'w'
I2
tp37
a(S'no_lh'
I1
tp38
a(S'no_cv'
I1
tp39
a(S'no_vo'
I3
tp40
a(S'w'
I1
tp41
a(S'w'
I1
tp42
a(S'no_ll'
I0
tp43
a(S'w'
I671
tp44
a(S'p1_vo'
I7
tp45
a(S'w'
I2
tp46
a(S'p1_tl'
I35
tp47
a(S'w'
I2
tp48
a(S'p2_vo'
I3
tp49
a(S'w'
I6
tp50
a(S'tr_tl'
I223
tp51
a(S'w'
I6
tp52
a(S'no_np'
I3
tp53
a(S'w'
I1
tp54
a(S'no_ll'
I0
tp55
a(S'w'
I3
tp56
a(S'no_ll'
I0
tp57
a(S'w'
I714
tp58
a(S'p1_vo'
I5
tp59
a(S'w'
I2
tp60
a(S'p1_tl'
I107
tp61
a(S'w'
I2
tp62
a(S'p2_vo'
I2
tp63
a(S'w'
I6
tp64
a(S'tr_tl'
I249
tp65
a(S'tr_ll'
I0
tp66
a(S'tr_th'
I2
tp67
a(S'w'
I5
tp68
a(S'no_vo'
I4
tp69
a(S'w'
I722
tp70
a(S'p2_vo'
I1
tp71
a(S'w'
I5
tp72
a(S'tr_tl'
I87
tp73
a(S'w'
I1
tp74
a(S'tr_ll'
I0
tp75
a(S'tr_th'
I3
tp76
a(S'w'
I4
tp77
a(S'no_vo'
I5
tp78
a(S'w'
I724
tp79
a(S'p2_vo'
I0
tp80
a(S'w'
I10
tp81
a(S'no_vo'
I4
tp82
a(S'w'
I727
tp83
a(S'no_vo'
I3
tp84
a(S'w'
I727
tp85
a(S'p1_vo'
I4
tp86
a(S'w'
I5
tp87
a(S'p2_tl'
I106
tp88
a(S'w'
I2
tp89
a(S'p2_vo'
I4
tp90
a(S'w'
I2
tp91
a(S'w'
I3
tp92
a(S'no_vo'
I2
tp93
a(S'w'
I725
tp94
a(S'p2_vo'
I3
tp95
a(S'w'
I4
tp96
a(S'no_vo'
I1
tp97
a(S'w'
I729
tp98
a(S'p1_tl'
I35
tp99
a(S'w'
I2
tp100
a(S'p2_vo'
I2
tp101
a(S'w'
I732
tp102
a(S'p1_tl'
I107
tp103
a(S'w'
I3
tp104
a(S'p2_vo'
I1
tp105
a(S'w'
I3
tp106
a(S'no_vo'
I0
tp107
a(S'w'
I725
tp108
a(S'p1_vo'
I3
tp109
a(S'w'
I3
tp110
a(S'p2_vo'
I0
tp111
a(S'w'
I1467
tp112
a(S'p1_tl'
I106
tp113
a(S'w'
I3
tp114
a(S'p1_vo'
I9
tp115
a(S'w'
I5
tp116
a(S'p2_tl'
I142
tp117
a(S'w'
I2
tp118
a(S'p2_vo'
I4
tp119
a(S'w'
I2
tp120
a(S'w'
I3
tp121
a(S'tr_tl'
I29
tp122
a(S'w'
I1
tp123
a(S'tr_ll'
I0
tp124
a(S'tr_th'
I1
tp125
a(S'w'
I8
tp126
a(S'no_np'
I9
tp127
a(S'no_ll'
I0
tp128
a(S'w'
I1
tp129
a(S'no_vo'
I3
tp130
a(S'w'
I2
tp131
a(S'no_ll'
I0
tp132
a(S'w'
I705
tp133
a(S'p1_vo'
I7
tp134
a(S'w'
I2
tp135
a(S'p1_tl'
I35
tp136
a(S'w'
I2
tp137
a(S'p2_vo'
I3
tp138
a(S'w'
I7
tp139
a(S'no_np'
I6
tp140
a(S'no_ll'
I0
tp141
a(S'w'
I1
tp142
a(S'no_vo'
I4
tp143
a(S'w'
I2
tp144
a(S'no_ll'
I0
tp145
a(S'w'
I720
tp146
a(S'p1_vo'
I5
tp147
a(S'w'
I2
tp148
a(S'p1_tl'
I107
tp149
a(S'w'
I3
tp150
a(S'p2_vo'
I2
tp151
a(S'w'
I3
tp152
a(S'no_vo'
I5
tp153
a(S'w'
I728
tp154
a(S'p2_vo'
I1
tp155
a(S'w'
I4
tp156
a(S'no_vo'
I4
tp157
a(S'w'
I730
tp158
a(S'p2_vo'
I0
tp159
a(S'w'
I4
tp160
a(S'no_vo'
I3
tp161
a(S'w'
I734
tp162
a(S'no_vo'
I2
tp163
a(S'w'
I727
tp164
a(S'p1_vo'
I4
tp165
a(S'w'
I5
tp166
a(S'p2_tl'
I84
tp167
a(S'w'
I2
tp168
a(S'p2_vo'
I4
tp169
a(S'w'
I2
tp170
a(S'w'
I3
tp171
a(S'no_vo'
I1
tp172
a(S'w'
I725
tp173
a(S'p2_vo'
I3
tp174
a(S'w'
I732
tp175
a(S'p1_tl'
I35
tp176
a(S'w'
I2
tp177
a(S'p2_vo'
I2
tp178
a(S'w'
I4
tp179
a(S'no_vo'
I0
tp180
a(S'w'
I728
tp181
a(S'p1_tl'
I107
tp182
a(S'w'
I3
tp183
a(S'p2_vo'
I1
tp184
a(S'w'
I729
tp185
a(S'p1_vo'
I3
tp186
a(S'w'
I3
tp187
a(S'p2_vo'
I0
tp188
a(S'w'
I1467
tp189
a(S'p1_tl'
I113
tp190
a(S'w'
I3
tp191
a(S'p1_vo'
I9
tp192
a(S'w'
I5
tp193
a(S'p2_tl'
I71
tp194
a(S'w'
I2
tp195
a(S'p2_vo'
I4
tp196
a(S'w'
I2
tp197
a(S'w'
I7
tp198
a(S'tr_tl'
I171
tp199
a(S'w'
I10
tp200
a(S'no_np'
I8
tp201
a(S'w'
I1
tp202
a(S'no_ll'
I0
tp203
a(S'w'
I1
tp204
a(S'no_vo'
I4
tp205
a(S'w'
I2
tp206
a(S'no_ll'
I0
tp207
a(S'w'
I698
tp208
a(S'p1_vo'
I7
tp209
a(S'w'
I2
tp210
a(S'p1_tl'
I37
tp211
a(S'w'
I2
tp212
a(S'p2_vo'
I3
tp213
a(S'w'
I6
tp214
a(S'tr_tl'
I223
tp215
a(S'w'
I6
tp216
a(S'no_np'
I3
tp217
a(S'no_ll'
I0
tp218
a(S'w'
I3
tp219
a(S'w'
I1
tp220
a(S'no_ll'
I0
tp221
a(S'w'
I714
tp222
a(S'p1_vo'
I5
tp223
a(S'w'
I2
tp224
a(S'p1_tl'
I114
tp225
a(S'w'
I2
tp226
a(S'p2_vo'
I2
tp227
a(S'w'
I6
tp228
a(S'tr_tl'
I249
tp229
a(S'tr_ll'
I0
tp230
a(S'tr_th'
I2
tp231
a(S'w'
I5
tp232
a(S'no_vo'
I3
tp233
a(S'w'
I722
tp234
a(S'p2_vo'
I1
tp235
a(S'w'
I5
tp236
a(S'tr_tl'
I87
tp237
a(S'w'
I1
tp238
a(S'tr_ll'
I0
tp239
a(S'tr_th'
I3
tp240
a(S'w'
I4
tp241
a(S'no_vo'
I2
tp242
a(S'w'
I724
tp243
a(S'p2_vo'
I0
tp244
a(S'w'
I6
tp245
a(S'tr_tl'
I196
tp246
a(S'tr_ll'
I0
tp247
a(S'tr_th'
I1
tp248
a(S'w'
I4
tp249
a(S'no_vo'
I1
tp250
a(S'w'
I720
tp251
a(S'p1_vo'
I4
tp252
a(S'w'
I6
tp253
a(S'no_vo'
I0
tp254
a(S'w'
I730
tp255
a(S'p1_tl'
I113
tp256
a(S'w'
I3
tp257
a(S'p1_vo'
I9
tp258
a(S'w'
I729
tp259
a(S'p1_vo'
I7
tp260
a(S'w'
I2
tp261
a(S'p1_tl'
I37
tp262
a(S'w'
I732
tp263
a(S'p1_vo'
I5
tp264
a(S'w'
I2
tp265
a(S'p1_tl'
I114
tp266
a(S'w'
I2933
tp267
a(S'p1_vo'
I4
tp268
a(S'w'
I5
tp269
a(S'p2_tl'
I84
tp270
a(S'w'
I2
tp271
a(S'p2_vo'
I4
tp272
a(S'w'
I2
tp273
a(S'w'
I4
tp274
a(S'tr_tl'
I29
tp275
a(S'w'
I6
tp276
a(S'no_np'
I9
tp277
a(S'no_ll'
I0
tp278
a(S'w'
I1
tp279
a(S'no_vo'
I4
tp280
a(S'w'
I2
tp281
a(S'no_ll'
I0
tp282
a(S'w'
I715
tp283
a(S'p2_vo'
I3
tp284
a(S'w'
I5
tp285
a(S'no_np'
I6
tp286
a(S'no_ll'
I0
tp287
a(S'w'
I3
tp288
a(S'no_ll'
I0
tp289
a(S'w'
I725
tp290
a(S'p1_tl'
I37
tp291
a(S'w'
I2
tp292
a(S'p2_vo'
I2
tp293
a(S'w'
I4
tp294
a(S'no_vo'
I3
tp295
a(S'w'
I727
tp296
a(S'p1_tl'
I114
tp297
a(S'w'
I3
tp298
a(S'p2_vo'
I1
tp299
a(S'w'
I3
tp300
a(S'no_vo'
I2
tp301
a(S'w'
I726
tp302
a(S'p1_vo'
I3
tp303
a(S'w'
I3
tp304
a(S'p2_vo'
I0
tp305
a(S'w'
I4
tp306
a(S'no_vo'
I1
tp307
a(S'w'
I733
tp308
a(S'no_vo'
I0
tp309
a(S'w'
I730
tp310
a(S'p1_tl'
I142
tp311
a(S'w'
I3
tp312
a(S'p1_vo'
I9
tp313
a(S'w'
I5
tp314
a(S'p2_tl'
I71
tp315
a(S'w'
I2
tp316
a(S'p2_vo'
I4
tp317
a(S'w'
I2
tp318
a(S'w'
I5
tp319
a(S'no_np'
I9
tp320
a(S'no_ll'
I0
tp321
a(S'w'
I1
tp322
a(S'no_vo'
I4
tp323
a(S'w'
I2
tp324
a(S'no_ll'
I0
tp325
a(S'w'
I712
tp326
a(S'p1_vo'
I7
tp327
a(S'w'
I2
tp328
a(S'p1_tl'
I47
tp329
a(S'w'
I2
tp330
a(S'p2_vo'
I3
tp331
a(S'w'
I6
tp332
a(S'no_np'
I5
tp333
a(S'no_ll'
I0
tp334
a(S'w'
I3
tp335
a(S'no_ll'
I0
tp336
a(S'w'
I720
tp337
a(S'p1_vo'
I5
tp338
a(S'w'
I2
tp339
a(S'p1_tl'
I143
tp340
a(S'w'
I3
tp341
a(S'p2_vo'
I2
tp342
a(S'w'
I3
tp343
a(S'no_vo'
I3
tp344
a(S'w'
I729
tp345
a(S'p2_vo'
I1
tp346
a(S'w'
I4
tp347
a(S'no_vo'
I2
tp348
a(S'w'
I730
tp349
a(S'p2_vo'
I0
tp350
a(S'w'
I4
tp351
a(S'no_vo'
I1
tp352
a(S'w'
I727
tp353
a(S'p1_vo'
I4
tp354
a(S'w'
I6
tp355
a(S'no_vo'
I0
tp356
a(S'w'
I730
tp357
a(S'p1_tl'
I127
tp358
a(S'w'
I3
tp359
a(S'p1_vo'
I9
tp360
a(S'w'
I5
tp361
a(S'p2_tl'
I84
tp362
a(S'w'
I2
tp363
a(S'p2_vo'
I4
tp364
a(S'w'
I2
tp365
a(S'w'
I7
tp366
a(S'tr_tl'
I171
tp367
a(S'w'
I10
tp368
a(S'no_np'
I8
tp369
a(S'w'
I1
tp370
a(S'no_ll'
I0
tp371
a(S'w'
I1
tp372
a(S'no_vo'
I4
tp373
a(S'w'
I2
tp374
a(S'no_ll'
I0
tp375
a(S'w'
I698
tp376
a(S'p1_vo'
I7
tp377
a(S'w'
I2
tp378
a(S'p1_tl'
I42
tp379
a(S'w'
I2
tp380
a(S'p2_vo'
I3
tp381
a(S'w'
I6
tp382
a(S'tr_tl'
I223
tp383
a(S'w'
I6
tp384
a(S'no_np'
I3
tp385
a(S'no_ll'
I0
tp386
a(S'w'
I3
tp387
a(S'w'
I1
tp388
a(S'no_ll'
I0
tp389
a(S'w'
I714
tp390
a(S'p1_vo'
I5
tp391
a(S'w'
I2
tp392
a(S'p1_tl'
I128
tp393
a(S'w'
I3
tp394
a(S'p2_vo'
I2
tp395
a(S'w'
I5
tp396
a(S'tr_tl'
I249
tp397
a(S'tr_ll'
I0
tp398
a(S'tr_th'
I2
tp399
a(S'w'
I5
tp400
a(S'no_vo'
I3
tp401
a(S'w'
I722
tp402
a(S'p2_vo'
I1
tp403
a(S'w'
I5
tp404
a(S'tr_tl'
I87
tp405
a(S'w'
I1
tp406
a(S'tr_ll'
I0
tp407
a(S'tr_th'
I3
tp408
a(S'w'
I4
tp409
a(S'no_vo'
I2
tp410
a(S'w'
I724
tp411
a(S'p2_vo'
I0
tp412
a(S'w'
I5
tp413
a(S'tr_tl'
I252
tp414
a(S'w'
I1
tp415
a(S'tr_ll'
I0
tp416
a(S'tr_th'
I1
tp417
a(S'w'
I4
tp418
a(S'no_vo'
I1
tp419
a(S'w'
I727
tp420
a(S'no_vo'
I0
tp421
a(S'w'
I727
tp422
a(S'p1_vo'
I4
tp423
a(S'w'
I5
tp424
a(S'p2_tl'
I71
tp425
a(S'w'
I2
tp426
a(S'p2_vo'
I4
tp427
a(S'w'
I2
tp428
a(S'w'
I728
tp429
a(S'p2_vo'
I3
tp430
a(S'w'
I733
tp431
a(S'p1_tl'
I42
tp432
a(S'w'
I2
tp433
a(S'p2_vo'
I2
tp434
a(S'w'
I732
tp435
a(S'p1_tl'
I128
tp436
a(S'w'
I3
tp437
a(S'p2_vo'
I1
tp438
a(S'w'
I728
tp439
a(S'p1_vo'
I3
tp440
a(S'w'
I3
tp441
a(S'p2_vo'
I0
tp442
a(S'w'
I1467
tp443
a(S'p1_tl'
I127
tp444
a(S'w'
I3
tp445
a(S'p1_vo'
I9
tp446
a(S'w'
I5
tp447
a(S'p2_tl'
I53
tp448
a(S'w'
I2
tp449
a(S'p2_vo'
I4
tp450
a(S'w'
I2
tp451
a(S'w'
I3
tp452
a(S'tr_tl'
I83
tp453
a(S'w'
I8
tp454
a(S'no_np'
I9
tp455
a(S'no_ll'
I0
tp456
a(S'w'
I2
tp457
a(S'no_vo'
I3
tp458
a(S'w'
I2
tp459
a(S'no_ll'
I0
tp460
a(S'w'
I705
tp461
a(S'p1_vo'
I7
tp462
a(S'w'
I2
tp463
a(S'p1_tl'
I42
tp464
a(S'w'
I2
tp465
a(S'p2_vo'
I3
tp466
a(S'w'
I7
tp467
a(S'no_np'
I6
tp468
a(S'no_ll'
I0
tp469
a(S'w'
I1
tp470
a(S'no_vo'
I4
tp471
a(S'w'
I2
tp472
a(S'no_ll'
I0
tp473
a(S'w'
I720
tp474
a(S'p1_vo'
I5
tp475
a(S'w'
I2
tp476
a(S'p1_tl'
I128
tp477
a(S'w'
I3
tp478
a(S'p2_vo'
I2
tp479
a(S'w'
I3
tp480
a(S'no_vo'
I5
tp481
a(S'w'
I728
tp482
a(S'p2_vo'
I1
tp483
a(S'w'
I4
tp484
a(S'no_vo'
I4
tp485
a(S'w'
I730
tp486
a(S'p2_vo'
I0
tp487
a(S'w'
I4
tp488
a(S'no_vo'
I3
tp489
a(S'w'
I734
tp490
a(S'no_vo'
I2
tp491
a(S'w'
I727
tp492
a(S'p1_vo'
I4
tp493
a(S'w'
I5
tp494
a(S'p2_tl'
I71
tp495
a(S'w'
I2
tp496
a(S'p2_vo'
I4
tp497
a(S'w'
I2
tp498
a(S'w'
I3
tp499
a(S'no_vo'
I1
tp500
a(S'w'
I725
tp501
a(S'p2_vo'
I3
tp502
a(S'w'
I732
tp503
a(S'p1_tl'
I42
tp504
a(S'w'
I2
tp505
a(S'p2_vo'
I2
tp506
a(S'w'
I4
tp507
a(S'no_vo'
I0
tp508
a(S'w'
I728
tp509
a(S'p1_tl'
I128
tp510
a(S'w'
I3
tp511
a(S'p2_vo'
I1
tp512
a(S'w'
I729
tp513
a(S'p1_vo'
I3
tp514
a(S'w'
I3
tp515
a(S'p2_vo'
I0
tp516
a(S'w'
I1467
tp517
a(S'p1_tl'
I142
tp518
a(S'w'
I3
tp519
a(S'p1_vo'
I9
tp520
a(S'w'
I5
tp521
a(S'p2_tl'
I53
tp522
a(S'w'
I2
tp523
a(S'p2_vo'
I4
tp524
a(S'w'
I2
tp525
a(S'w'
I7
tp526
a(S'tr_tl'
I171
tp527
a(S'w'
I10
tp528
a(S'no_np'
I8
tp529
a(S'w'
I1
tp530
a(S'no_ll'
I0
tp531
a(S'w'
I1
tp532
a(S'no_vo'
I4
tp533
a(S'w'
I2
tp534
a(S'no_ll'
I0
tp535
a(S'w'
I698
tp536
a(S'p1_vo'
I7
tp537
a(S'w'
I2
tp538
a(S'p1_tl'
I47
tp539
a(S'w'
I2
tp540
a(S'p2_vo'
I3
tp541
a(S'w'
I6
tp542
a(S'tr_tl'
I223
tp543
a(S'w'
I6
tp544
a(S'no_np'
I3
tp545
a(S'no_ll'
I0
tp546
a(S'w'
I3
tp547
a(S'w'
I1
tp548
a(S'no_ll'
I0
tp549
a(S'w'
I714
tp550
a(S'p1_vo'
I5
tp551
a(S'w'
I2
tp552
a(S'p1_tl'
I143
tp553
a(S'w'
I3
tp554
a(S'p2_vo'
I2
tp555
a(S'w'
I5
tp556
a(S'tr_tl'
I249
tp557
a(S'tr_ll'
I0
tp558
a(S'tr_th'
I2
tp559
a(S'w'
I5
tp560
a(S'no_vo'
I3
tp561
a(S'w'
I722
tp562
a(S'p2_vo'
I1
tp563
a(S'w'
I5
tp564
a(S'tr_tl'
I87
tp565
a(S'w'
I1
tp566
a(S'tr_ll'
I0
tp567
a(S'tr_th'
I3
tp568
a(S'w'
I4
tp569
a(S'no_vo'
I2
tp570
a(S'w'
I724
tp571
a(S'p2_vo'
I0
tp572
a(S'w'
I6
tp573
a(S'tr_tl'
I58
tp574
a(S'tr_ll'
I0
tp575
a(S'tr_th'
I2
tp576
a(S'w'
I4
tp577
a(S'no_vo'
I1
tp578
a(S'w'
I720
tp579
a(S'p1_vo'
I4
tp580
a(S'w'
I6
tp581
a(S'no_vo'
I0
tp582
a(S'w'
I730
tp583
a(S'p1_tl'
I142
tp584
a(S'w'
I3
tp585
a(S'p1_vo'
I9
tp586
a(S'w'
I729
tp587
a(S'p1_vo'
I7
tp588
a(S'w'
I2
tp589
a(S'p1_tl'
I47
tp590
a(S'w'
I732
tp591
a(S'p1_vo'
I5
tp592
a(S'w'
I2
tp593
a(S'p1_tl'
I143
tp594
a(S'w'
I2933
tp595
a(S'p1_vo'
I4
tp596
a(S'w'
I5
tp597
a(S'p2_tl'
I84
tp598
a(S'w'
I2
tp599
a(S'p2_vo'
I4
tp600
a(S'w'
I2
tp601
a(S'w'
I4
tp602
a(S'tr_tl'
I124
tp603
a(S'tr_ll'
I0
tp604
a(S'tr_th'
I1
tp605
a(S'w'
I6
tp606
a(S'no_np'
I9
tp607
a(S'no_ll'
I0
tp608
a(S'w'
I2
tp609
a(S'no_vo'
I4
tp610
a(S'w'
I1
tp611
a(S'no_ll'
I0
tp612
a(S'w'
I715
tp613
a(S'p2_vo'
I3
tp614
a(S'w'
I5
tp615
a(S'no_np'
I6
tp616
a(S'no_ll'
I0
tp617
a(S'w'
I3
tp618
a(S'no_ll'
I0
tp619
a(S'w'
I725
tp620
a(S'p1_tl'
I47
tp621
a(S'w'
I2
tp622
a(S'p2_vo'
I2
tp623
a(S'w'
I4
tp624
a(S'no_vo'
I3
tp625
a(S'w'
I727
tp626
a(S'p1_tl'
I143
tp627
a(S'w'
I3
tp628
a(S'p2_vo'
I1
tp629
a(S'w'
I3
tp630
a(S'no_vo'
I2
tp631
a(S'w'
I726
tp632
a(S'p1_vo'
I3
tp633
a(S'w'
I3
tp634
a(S'p2_vo'
I0
tp635
a(S'w'
I4
tp636
a(S'no_vo'
I1
tp637
a(S'w'
I733
tp638
a(S'no_vo'
I0
tp639
a(S'w'
I730
tp640
a(S'p1_tl'
I160
tp641
a(S'w'
I3
tp642
a(S'p1_vo'
I9
tp643
a(S'w'
I5
tp644
a(S'p2_tl'
I71
tp645
a(S'w'
I2
tp646
a(S'p2_vo'
I4
tp647
a(S'w'
I2
tp648
a(S'w'
I5
tp649
a(S'no_np'
I9
tp650
a(S'no_ll'
I0
tp651
a(S'w'
I1
tp652
a(S'no_vo'
I4
tp653
a(S'w'
I2
tp654
a(S'no_ll'
I0
tp655
a(S'w'
I712
tp656
a(S'p1_vo'
I7
tp657
a(S'w'
I2
tp658
a(S'p1_tl'
I53
tp659
a(S'w'
I2
tp660
a(S'p2_vo'
I3
tp661
a(S'w'
I6
tp662
a(S'no_np'
I5
tp663
a(S'no_ll'
I0
tp664
a(S'w'
I3
tp665
a(S'no_ll'
I0
tp666
a(S'w'
I720
tp667
a(S'p1_vo'
I5
tp668
a(S'w'
I2
tp669
a(S'p1_tl'
I161
tp670
a(S'w'
I2
tp671
a(S'p2_vo'
I2
tp672
a(S'w'
I4
tp673
a(S'no_vo'
I3
tp674
a(S'w'
I729
tp675
a(S'p2_vo'
I1
tp676
a(S'w'
I4
tp677
a(S'no_vo'
I2
tp678
a(S'w'
I730
tp679
a(S'p2_vo'
I0
tp680
a(S'w'
I4
tp681
a(S'no_vo'
I1
tp682
a(S'w'
I727
tp683
a(S'p1_vo'
I4
tp684
a(S'w'
I6
tp685
a(S'no_vo'
I0
tp686
a(S'w'
I730
tp687
a(S'p1_tl'
I169
tp688
a(S'w'
I3
tp689
a(S'p1_vo'
I9
tp690
a(S'w'
I5
tp691
a(S'p2_tl'
I84
tp692
a(S'w'
I2
tp693
a(S'p2_vo'
I4
tp694
a(S'w'
I2
tp695
a(S'w'
I7
tp696
a(S'tr_tl'
I171
tp697
a(S'w'
I10
tp698
a(S'no_np'
I8
tp699
a(S'w'
I1
tp700
a(S'no_ll'
I0
tp701
a(S'w'
I1
tp702
a(S'no_vo'
I4
tp703
a(S'w'
I2
tp704
a(S'no_ll'
I0
tp705
a(S'w'
I698
tp706
a(S'p1_vo'
I7
tp707
a(S'w'
I2
tp708
a(S'p1_tl'
I56
tp709
a(S'w'
I2
tp710
a(S'p2_vo'
I3
tp711
a(S'w'
I6
tp712
a(S'tr_tl'
I223
tp713
a(S'w'
I6
tp714
a(S'no_np'
I3
tp715
a(S'no_ll'
I0
tp716
a(S'w'
I3
tp717
a(S'no_ll'
I0
tp718
a(S'w'
I715
tp719
a(S'p1_vo'
I5
tp720
a(S'w'
I2
tp721
a(S'p1_tl'
I170
tp722
a(S'w'
I3
tp723
a(S'p2_vo'
I2
tp724
a(S'w'
I5
tp725
a(S'tr_tl'
I249
tp726
a(S'tr_ll'
I0
tp727
a(S'tr_th'
I2
tp728
a(S'w'
I5
tp729
a(S'no_vo'
I3
tp730
a(S'w'
I722
tp731
a(S'p2_vo'
I1
tp732
a(S'w'
I5
tp733
a(S'tr_tl'
I87
tp734
a(S'w'
I1
tp735
a(S'tr_ll'
I0
tp736
a(S'tr_th'
I3
tp737
a(S'w'
I4
tp738
a(S'no_vo'
I2
tp739
a(S'w'
I724
tp740
a(S'p2_vo'
I0
tp741
a(S'w'
I10
tp742
a(S'no_vo'
I1
tp743
a(S'w'
I727
tp744
a(S'no_vo'
I0
tp745
a(S'w'
I727
tp746
a(S'p1_vo'
I4
tp747
a(S'w'
I5
tp748
a(S'p2_tl'
I106
tp749
a(S'w'
I2
tp750
a(S'p2_vo'
I4
tp751
a(S'w'
I2
tp752
a(S'w'
I728
tp753
a(S'p2_vo'
I3
tp754
a(S'w'
I733
tp755
a(S'p1_tl'
I56
tp756
a(S'w'
I2
tp757
a(S'p2_vo'
I2
tp758
a(S'w'
I732
tp759
a(S'p1_tl'
I170
tp760
a(S'w'
I3
tp761
a(S'p2_vo'
I1
tp762
a(S'w'
I728
tp763
a(S'p1_vo'
I3
tp764
a(S'w'
I3
tp765
a(S'p2_vo'
I0
tp766
a(S'w'
I1467
tp767
a(S'p1_tl'
I169
tp768
a(S'w'
I3
tp769
a(S'p1_vo'
I9
tp770
a(S'w'
I5
tp771
a(S'p2_tl'
I142
tp772
a(S'w'
I2
tp773
a(S'p2_vo'
I4
tp774
a(S'w'
I2
tp775
a(S'w'
I3
tp776
a(S'tr_tl'
I29
tp777
a(S'w'
I1
tp778
a(S'tr_ll'
I0
tp779
a(S'tr_th'
I1
tp780
a(S'w'
I8
tp781
a(S'no_np'
I9
tp782
a(S'no_ll'
I0
tp783
a(S'w'
I1
tp784
a(S'no_vo'
I3
tp785
a(S'w'
I2
tp786
a(S'no_ll'
I0
tp787
a(S'w'
I705
tp788
a(S'p1_vo'
I7
tp789
a(S'w'
I2
tp790
a(S'p1_tl'
I56
tp791
a(S'w'
I2
tp792
a(S'p2_vo'
I3
tp793
a(S'w'
I7
tp794
a(S'no_np'
I6
tp795
a(S'no_ll'
I0
tp796
a(S'w'
I1
tp797
a(S'no_vo'
I4
tp798
a(S'w'
I2
tp799
a(S'no_ll'
I0
tp800
a(S'w'
I720
tp801
a(S'p1_vo'
I5
tp802
a(S'w'
I2
tp803
a(S'p1_tl'
I170
tp804
a(S'w'
I3
tp805
a(S'p2_vo'
I2
tp806
a(S'w'
I3
tp807
a(S'no_vo'
I5
tp808
a(S'w'
I728
tp809
a(S'p2_vo'
I1
tp810
a(S'w'
I4
tp811
a(S'no_vo'
I4
tp812
a(S'w'
I730
tp813
a(S'p2_vo'
I0
tp814
a(S'w'
I4
tp815
a(S'no_vo'
I3
tp816
a(S'w'
I734
tp817
a(S'no_vo'
I2
tp818
a(S'w'
I727
tp819
a(S'p1_vo'
I4
tp820
a(S'w'
I5
tp821
a(S'p2_tl'
I84
tp822
a(S'w'
I2
tp823
a(S'p2_vo'
I4
tp824
a(S'w'
I2
tp825
a(S'w'
I3
tp826
a(S'no_vo'
I1
tp827
a(S'w'
I725
tp828
a(S'p2_vo'
I3
tp829
a(S'w'
I732
tp830
a(S'p1_tl'
I56
tp831
a(S'w'
I2
tp832
a(S'p2_vo'
I2
tp833
a(S'w'
I4
tp834
a(S'no_vo'
I0
tp835
a(S'w'
I728
tp836
a(S'p1_tl'
I170
tp837
a(S'w'
I2
tp838
a(S'p2_vo'
I1
tp839
a(S'w'
I730
tp840
a(S'p1_vo'
I3
tp841
a(S'w'
I3
tp842
a(S'p2_vo'
I0
tp843
a(S'w'
I1467
tp844
a(S'p1_tl'
I190
tp845
a(S'w'
I3
tp846
a(S'p1_vo'
I9
tp847
a(S'w'
I5
tp848
a(S'p2_tl'
I71
tp849
a(S'w'
I2
tp850
a(S'p2_vo'
I4
tp851
a(S'w'
I2
tp852
a(S'w'
I7
tp853
a(S'tr_tl'
I171
tp854
a(S'w'
I10
tp855
a(S'no_np'
I8
tp856
a(S'w'
I1
tp857
a(S'no_ll'
I0
tp858
a(S'w'
I1
tp859
a(S'no_vo'
I4
tp860
a(S'w'
I2
tp861
a(S'no_ll'
I0
tp862
a(S'w'
I698
tp863
a(S'p1_vo'
I7
tp864
a(S'w'
I2
tp865
a(S'p1_tl'
I63
tp866
a(S'w'
I2
tp867
a(S'p2_vo'
I3
tp868
a(S'w'
I6
tp869
a(S'tr_tl'
I223
tp870
a(S'w'
I6
tp871
a(S'no_np'
I3
tp872
a(S'no_ll'
I0
tp873
a(S'w'
I3
tp874
a(S'no_ll'
I0
tp875
a(S'w'
I715
tp876
a(S'p1_vo'
I5
tp877
a(S'w'
I2
tp878
a(S'p1_tl'
I191
tp879
a(S'w'
I3
tp880
a(S'p2_vo'
I2
tp881
a(S'w'
I5
tp882
a(S'tr_tl'
I249
tp883
a(S'tr_ll'
I0
tp884
a(S'tr_th'
I2
tp885
a(S'w'
I5
tp886
a(S'no_vo'
I3
tp887
a(S'w'
I722
tp888
a(S'p2_vo'
I1
tp889
a(S'w'
I5
tp890
a(S'tr_tl'
I87
tp891
a(S'w'
I1
tp892
a(S'tr_ll'
I0
tp893
a(S'tr_th'
I3
tp894
a(S'w'
I4
tp895
a(S'no_vo'
I2
tp896
a(S'w'
I724
tp897
a(S'p2_vo'
I0
tp898
a(S'w'
I6
tp899
a(S'tr_tl'
I196
tp900
a(S'tr_ll'
I0
tp901
a(S'tr_th'
I1
tp902
a(S'w'
I4
tp903
a(S'no_vo'
I1
tp904
a(S'w'
I720
tp905
a(S'p1_vo'
I4
tp906
a(S'w'
I6
tp907
a(S'no_vo'
I0
tp908
a(S'w'
I730
tp909
a(S'p1_tl'
I169
tp910
a(S'w'
I3
tp911
a(S'p1_vo'
I9
tp912
a(S'w'
I729
tp913
a(S'p1_vo'
I7
tp914
a(S'w'
I2
tp915
a(S'p1_tl'
I56
tp916
a(S'w'
I732
tp917
a(S'p1_vo'
I5
tp918
a(S'w'
I2
tp919
a(S'p1_tl'
I170
tp920
a(S'w'
I2933
tp921
a(S'p1_vo'
I4
tp922
a(S'w'
I5
tp923
a(S'p2_tl'
I84
tp924
a(S'w'
I2
tp925
a(S'p2_vo'
I4
tp926
a(S'w'
I2
tp927
a(S'w'
I4
tp928
a(S'tr_tl'
I29
tp929
a(S'w'
I6
tp930
a(S'no_np'
I9
tp931
a(S'no_ll'
I0
tp932
a(S'w'
I1
tp933
a(S'no_vo'
I4
tp934
a(S'w'
I2
tp935
a(S'no_ll'
I0
tp936
a(S'w'
I715
tp937
a(S'p2_vo'
I3
tp938
a(S'w'
I5
tp939
a(S'no_np'
I6
tp940
a(S'no_ll'
I0
tp941
a(S'w'
I3
tp942
a(S'no_ll'
I0
tp943
a(S'w'
I725
tp944
a(S'p1_tl'
I56
tp945
a(S'w'
I2
tp946
a(S'p2_vo'
I2
tp947
a(S'w'
I4
tp948
a(S'no_vo'
I3
tp949
a(S'w'
I727
tp950
a(S'p1_tl'
I170
tp951
a(S'w'
I3
tp952
a(S'p2_vo'
I1
tp953
a(S'w'
I3
tp954
a(S'no_vo'
I2
tp955
a(S'w'
I726
tp956
a(S'p1_vo'
I3
tp957
a(S'w'
I3
tp958
a(S'p2_vo'
I0
tp959
a(S'w'
I4
tp960
a(S'no_vo'
I1
tp961
a(S'w'
I733
tp962
a(S'no_vo'
I0
tp963
a(S'w'
I730
tp964
a(S'p1_tl'
I190
tp965
a(S'w'
I3
tp966
a(S'p1_vo'
I9
tp967
a(S'w'
I5
tp968
a(S'p2_tl'
I71
tp969
a(S'w'
I2
tp970
a(S'p2_vo'
I4
tp971
a(S'w'
I2
tp972
a(S'w'
I5
tp973
a(S'no_np'
I9
tp974
a(S'no_ll'
I0
tp975
a(S'w'
I1
tp976
a(S'no_vo'
I4
tp977
a(S'w'
I2
tp978
a(S'no_ll'
I0
tp979
a(S'w'
I712
tp980
a(S'p1_vo'
I7
tp981
a(S'w'
I2
tp982
a(S'p1_tl'
I63
tp983
a(S'w'
I2
tp984
a(S'p2_vo'
I3
tp985
a(S'w'
I6
tp986
a(S'no_np'
I5
tp987
a(S'no_ll'
I0
tp988
a(S'w'
I3
tp989
a(S'no_ll'
I0
tp990
a(S'w'
I720
tp991
a(S'p1_vo'
I5
tp992
a(S'w'
I2
tp993
a(S'p1_tl'
I191
tp994
a(S'w'
I3
tp995
a(S'p2_vo'
I2
tp996
a(S'w'
I3
tp997
a(S'no_vo'
I3
tp998
a(S'w'
I729
tp999
a(S'p2_vo'
I1
tp1000
a(S'w'
I4
tp1001
a(S'no_vo'
I2
tp1002
a(S'w'
I730
tp1003
a(S'p2_vo'
I0
tp1004
a(S'w'
I4
tp1005
a(S'no_vo'
I1
tp1006
a(S'w'
I727
tp1007
a(S'p1_vo'
I4
tp1008
a(S'w'
I6
tp1009
a(S'no_vo'
I0
tp1010
a(S'w'
I730
tp1011
a(S'p1_tl'
I213
tp1012
a(S'w'
I3
tp1013
a(S'p1_vo'
I9
tp1014
a(S'w'
I5
tp1015
a(S'w'
I2
tp1016
a(S'p2_vo'
I4
tp1017
a(S'w'
I2
tp1018
a(S'w'
I7
tp1019
a(S'tr_tl'
I171
tp1020
a(S'w'
I10
tp1021
a(S'no_np'
I8
tp1022
a(S'w'
I1
tp1023
a(S'no_ll'
I0
tp1024
a(S'w'
I1
tp1025
a(S'no_vo'
I4
tp1026
a(S'w'
I2
tp1027
a(S'no_ll'
I0
tp1028
a(S'w'
I698
tp1029
a(S'p1_vo'
I7
tp1030
a(S'w'
I2
tp1031
a(S'p1_tl'
I71
tp1032
a(S'w'
I2
tp1033
a(S'p2_vo'
I3
tp1034
a(S'w'
I6
tp1035
a(S'tr_tl'
I223
tp1036
a(S'w'
I6
tp1037
a(S'no_np'
I3
tp1038
a(S'no_ll'
I0
tp1039
a(S'w'
I3
tp1040
a(S'no_ll'
I0
tp1041
a(S'w'
I715
tp1042
a(S'p1_vo'
I5
tp1043
a(S'w'
I2
tp1044
a(S'p1_tl'
I214
tp1045
a(S'w'
I3
tp1046
a(S'p2_vo'
I2
tp1047
a(S'w'
I5
tp1048
a(S'tr_tl'
I249
tp1049
a(S'tr_ll'
I0
tp1050
a(S'tr_th'
I2
tp1051
a(S'w'
I5
tp1052
a(S'no_vo'
I3
tp1053
a(S'w'
I722
tp1054
a(S'p2_vo'
I1
tp1055
a(S'w'
I5
tp1056
a(S'tr_tl'
I87
tp1057
a(S'w'
I1
tp1058
a(S'tr_ll'
I0
tp1059
a(S'tr_th'
I3
tp1060
a(S'w'
I4
tp1061
a(S'no_vo'
I2
tp1062
a(S'w'
I724
tp1063
a(S'p2_vo'
I0
tp1064
a(S'w'
I10
tp1065
a(S'no_vo'
I1
tp1066
a(S'w'
I727
tp1067
a(S'no_vo'
I0
tp1068
a(S'w'
I727
tp1069
a(S'p1_vo'
I4
tp1070
a(S'w'
I5
tp1071
a(S'p2_tl'
I84
tp1072
a(S'w'
I2
tp1073
a(S'p2_vo'
I4
tp1074
a(S'w'
I2
tp1075
a(S'w'
I728
tp1076
a(S'p2_vo'
I3
tp1077
a(S'w'
I733
tp1078
a(S'p1_tl'
I71
tp1079
a(S'w'
I2
tp1080
a(S'p2_vo'
I2
tp1081
a(S'w'
I732
tp1082
a(S'p1_tl'
I214
tp1083
a(S'w'
I3
tp1084
a(S'p2_vo'
I1
tp1085
a(S'w'
I731
tp1086
a(S'p2_vo'
I0
tp1087
a(S'w'
I731
tp1088
a(S'p1_vo'
I3
tp1089
a(S'w'
I739
tp1090
a(S'p2_tl'
I106
tp1091
a(S'w'
I2
tp1092
a(S'p2_vo'
I4
tp1093
a(S'w'
I2
tp1094
a(S'w'
I4
tp1095
a(S'tr_tl'
I58
tp1096
a(S'tr_ll'
I0
tp1097
a(S'tr_th'
I2
tp1098
a(S'w'
I8
tp1099
a(S'no_np'
I9
tp1100
a(S'no_ll'
I0
tp1101
a(S'w'
I2
tp1102
a(S'no_vo'
I3
tp1103
a(S'w'
I1
tp1104
a(S'no_ll'
I0
tp1105
a(S'w'
I713
tp1106
a(S'p2_vo'
I3
tp1107
a(S'w'
I6
tp1108
a(S'no_np'
I6
tp1109
a(S'no_ll'
I0
tp1110
a(S'w'
I2
tp1111
a(S'no_vo'
I4
tp1112
a(S'w'
I1
tp1113
a(S'no_ll'
I0
tp1114
a(S'w'
I722
tp1115
a(S'p1_vo'
I2
tp1116
a(S'w'
I3
tp1117
a(S'p2_vo'
I2
tp1118
a(S'w'
I4
tp1119
a(S'no_vo'
I5
tp1120
a(S'w'
I728
tp1121
a(S'p1_tl'
I71
tp1122
a(S'w'
I2
tp1123
a(S'p2_vo'
I1
tp1124
a(S'w'
I4
tp1125
a(S'no_vo'
I4
tp1126
a(S'w'
I728
tp1127
a(S'p1_tl'
I214
tp1128
a(S'w'
I3
tp1129
a(S'p2_vo'
I0
tp1130
a(S'w'
I3
tp1131
a(S'no_vo'
I3
tp1132
a(S'w'
I733
tp1133
a(S'no_vo'
I2
tp1134
a(S'w'
I727
tp1135
a(S'p1_vo'
I1
tp1136
a(S'w'
I5
tp1137
a(S'p2_tl'
I142
tp1138
a(S'w'
I2
tp1139
a(S'p2_vo'
I4
tp1140
a(S'w'
I2
tp1141
a(S'w'
I3
tp1142
a(S'no_vo'
I1
tp1143
a(S'w'
I725
tp1144
a(S'p2_vo'
I3
tp1145
a(S'w'
I733
tp1146
a(S'p2_vo'
I2
tp1147
a(S'w'
I4
tp1148
a(S'no_vo'
I0
tp1149
a(S'w'
I730
tp1150
a(S'p2_vo'
I1
tp1151
a(S'w'
I732
tp1152
a(S'p1_tl'
I71
tp1153
a(S'w'
I3
tp1154
a(S'p2_vo'
I0
tp1155
a(S'w'
I731
tp1156
a(S'p1_tl'
I214
tp1157
a(S'w'
I737
tp1158
a(S'p2_tl'
I169
tp1159
a(S'w'
I2
tp1160
a(S'p2_vo'
I4
tp1161
a(S'w'
I2
tp1162
a(S'w'
I7
tp1163
a(S'tr_tl'
I171
tp1164
a(S'w'
I1
tp1165
a(S'tr_ll'
I0
tp1166
a(S'tr_th'
I1
tp1167
a(S'w'
I10
tp1168
a(S'no_np'
I5
tp1169
a(S'no_ll'
I0
tp1170
a(S'w'
I1
tp1171
a(S'no_vo'
I5
tp1172
a(S'w'
I2
tp1173
a(S'no_ll'
I0
tp1174
a(S'w'
I706
tp1175
a(S'p2_vo'
I3
tp1176
a(S'w'
I6
tp1177
a(S'tr_tl'
I223
tp1178
a(S'w'
I9
tp1179
a(S'no_ll'
I0
tp1180
a(S'no_vo'
I7
tp1181
a(S'w'
I2
tp1182
a(S'no_ll'
I0
tp1183
a(S'w'
I717
tp1184
a(S'p2_vo'
I2
tp1185
a(S'w'
I6
tp1186
a(S'tr_tl'
I249
tp1187
a(S'tr_ll'
I0
tp1188
a(S'tr_th'
I2
tp1189
a(S'w'
I9
tp1190
a(S'no_np'
I4
tp1191
a(S'no_ll'
I0
tp1192
a(S'w'
I1
tp1193
a(S'no_vo'
I5
tp1194
a(S'w'
I1
tp1195
a(S'w'
I1
tp1196
a(S'no_ll'
I0
tp1197
a(S'w'
I716
tp1198
a(S'p2_vo'
I1
tp1199
a(S'w'
I6
tp1200
a(S'tr_tl'
I87
tp1201
a(S'tr_ll'
I0
tp1202
a(S'tr_th'
I3
tp1203
a(S'w'
I6
tp1204
a(S'no_np'
I2
tp1205
a(S'no_ll'
I0
tp1206
a(S'w'
I2
tp1207
a(S'w'
I1
tp1208
a(S'no_ll'
I0
tp1209
a(S'w'
I719
tp1210
a(S'p2_vo'
I0
tp1211
a(S'w'
I6
tp1212
a(S'tr_tl'
I171
tp1213
a(S'tr_ll'
I0
tp1214
a(S'tr_th'
I1
tp1215
a(S'w'
I726
tp1216
a(S'p1_tl'
I71
tp1217
a(S'w'
I734
tp1218
a(S'p1_tl'
I214
tp1219
a(S'w'
I6
tp1220
a(S'no_vo'
I4
tp1221
a(S'w'
I2928
tp1222
a(S'p1_vo'
I0
tp1223
a(S'w'
I6
tp1224
a(S'no_vo'
I3
tp1225
a(S'w'
I1467
tp1226
a(S'p1_tl'
I0
tp1227
a(S'w'
I2
tp1228
a(S'p1_vo'
I9
tp1229
a(S'w'
I9
tp1230
a(S'p2_tl'
I0
tp1231
a(S'w'
I3
tp1232
a(S'w'
I1450
tp1233
a(S'no_vo'
I2
tp1234
a(S'w'
I2936
tp1235
a(S'tr_tl'
I0
tp1236
a(S'tr_ll'
I0
tp1237
a(S'tr_th'
I0
tp1238
a(S'w'
I4
tp1239
a(S'no_vo'
I1
tp1240
a(S'w'
I2929
tp1241
a(S'no_vo'
I0
tp1242
a(S'w'
I1473
tp1243
a(S'no_np'
I0
tp1244
a(S'no_ll'
I0
tp1245
a(S'w'
I2
tp1246
a(S'no_ll'
I0
tp1247
a(S'w'
I40349
tp1248
a.