(lp1
(S'clock'
p2
I1789772
tp3
a(S'p1_cv'
I1
tp4
a(S'p1_sn'
I1
tp5
a(S'p1_tl'
I64
tp6
a(S'p1_ll'
I24
tp7
a(S'p1_th'
I1
tp8
a(S'p2_cv'
I1
tp9
a(S'p2_sn'
I1
tp10
a(S'p2_tl'
I124
tp11
a(S'p2_ll'
I24
tp12
a(S'p2_th'
I1
tp13
a(S'tr_tl'
I125
tp14
a(S'tr_ll'
I24
tp15
a(S'tr_th'
I1
tp16
a(S'no_cv'
I1
tp17
a(S'no_np'
I2
tp18
a(S'no_ll'
I4
tp19
a(S'ch_no'
I1
tp20
a(S'ch_tr'
I1
tp21
a(S'ch_p2'
I1
tp22
a(S'ch_p1'
I1
tp23
a(S'fc_mo'
I1
tp24
a(S'p2_du'
I2
tp25
a(S'p2_lh'
I1
tp26
a(S'p2_vo'
I4
tp27
a(S'w'
I1
tp28
a(S'p2_tl'
I225
tp29
a(S'p2_ll'
I24
tp30
a(S'p2_th'
I0
tp31
a(S'w'
I1386
tp32
a(S'p2_vo'
I5
tp33
a(S'w'
I1
tp34
a(S'w'
I1467
tp35
a(S'p2_du'
I1
tp36
a(S'p2_vo'
I6
tp37
a(S'w'
I1
tp38
a(S'w'
I1467
tp39
a(S'p2_vo'
I7
tp40
a(S'w'
I1467
tp41
a(S'p2_du'
I0
tp42
a(S'p2_vo'
I8
tp43
a(S'w'
I1
tp44
a(S'w'
I1467
tp45
a(S'p2_vo'
I9
tp46
a(S'w'
I1
tp47
a(S'w'
I1466
tp48
a(S'p2_vo'
I10
tp49
a(S'w'
I1
tp50
a(S'w'
I1467
tp51
a(S'p2_vo'
I9
tp52
a(S'w'
I1
tp53
a(S'w'
I1467
tp54
a(S'p2_vo'
I8
tp55
a(S'w'
I1467
tp56
a(S'p2_du'
I1
tp57
a(S'p2_vo'
I7
tp58
a(S'w'
I1
tp59
a(S'w'
I1467
tp60
a(S'p2_vo'
I6
tp61
a(S'w'
I1
tp62
a(S'w'
I1466
tp63
a(S'p2_du'
I2
tp64
a(S'p2_vo'
I5
tp65
a(S'w'
I1
tp66
a(S'w'
I2935
tp67
a(S'p2_vo'
I4
tp68
a(S'w'
I1487
tp69
a(S'p2_tl'
I239
tp70
a(S'p2_ll'
I24
tp71
a(S'w'
I1448
tp72
a(S'p2_vo'
I5
tp73
a(S'w'
I1
tp74
a(S'w'
I1467
tp75
a(S'p2_du'
I1
tp76
a(S'p2_vo'
I6
tp77
a(S'w'
I1467
tp78
a(S'p2_vo'
I7
tp79
a(S'w'
I1
tp80
a(S'w'
I1467
tp81
a(S'p2_du'
I0
tp82
a(S'p2_vo'
I8
tp83
a(S'w'
I1467
tp84
a(S'p2_vo'
I9
tp85
a(S'w'
I1
tp86
a(S'w'
I1467
tp87
a(S'p2_vo'
I10
tp88
a(S'w'
I1
tp89
a(S'w'
I1466
tp90
a(S'p2_vo'
I9
tp91
a(S'w'
I1
tp92
a(S'w'
I1467
tp93
a(S'p2_vo'
I8
tp94
a(S'w'
I1
tp95
a(S'w'
I1467
tp96
a(S'p2_du'
I1
tp97
a(S'p2_vo'
I7
tp98
a(S'w'
I1467
tp99
a(S'p2_vo'
I6
tp100
a(S'w'
I1
tp101
a(S'w'
I1467
tp102
a(S'p2_du'
I2
tp103
a(S'p2_vo'
I5
tp104
a(S'w'
I1
tp105
a(S'w'
I2934
tp106
a(S'p2_vo'
I4
tp107
a(S'w'
I1
tp108
a(S'w'
I1486
tp109
a(S'p2_tl'
I253
tp110
a(S'w'
I1
tp111
a(S'p2_ll'
I24
tp112
a(S'w'
I1447
tp113
a(S'p2_vo'
I5
tp114
a(S'w'
I1
tp115
a(S'w'
I1467
tp116
a(S'p2_du'
I1
tp117
a(S'p2_vo'
I6
tp118
a(S'w'
I1
tp119
a(S'w'
I1467
tp120
a(S'p2_vo'
I7
tp121
a(S'w'
I1467
tp122
a(S'p2_du'
I0
tp123
a(S'p2_vo'
I8
tp124
a(S'w'
I1
tp125
a(S'w'
I1467
tp126
a(S'p2_vo'
I9
tp127
a(S'w'
I1467
tp128
a(S'p2_vo'
I10
tp129
a(S'w'
I1
tp130
a(S'w'
I1467
tp131
a(S'p2_vo'
I9
tp132
a(S'w'
I1
tp133
a(S'w'
I1467
tp134
a(S'p2_vo'
I8
tp135
a(S'w'
I1467
tp136
a(S'p2_du'
I1
tp137
a(S'p2_vo'
I7
tp138
a(S'w'
I1
tp139
a(S'w'
I1467
tp140
a(S'p2_vo'
I6
tp141
a(S'w'
I1467
tp142
a(S'p2_du'
I2
tp143
a(S'p2_vo'
I5
tp144
a(S'w'
I1
tp145
a(S'w'
I2935
tp146
a(S'p2_vo'
I4
tp147
a(S'w'
I2935
tp148
a(S'p2_vo'
I3
tp149
a(S'w'
I2938
tp150
a(S'p2_vo'
I0
tp151
a(S'w'
I1
tp152
a(S'w'
I5866
tp153
a(S'w'
I6617
tp154
a(S'p2_du'
I0
tp155
a(S'p2_lh'
I0
tp156
a(S'w'
I1
tp157
a.