(lp1
(S'clock'
p2
I1789772
tp3
a(S'p1_du'
I3
tp4
a(S'p1_lh'
I1
tp5
a(S'p1_cv'
I1
tp6
a(S'p1_sp'
I7
tp7
a(S'p1_sn'
I1
tp8
a(S'p1_tl'
I240
tp9
a(S'p1_ll'
I1
tp10
a(S'p2_du'
I3
tp11
a(S'p2_lh'
I1
tp12
a(S'p2_cv'
I1
tp13
a(S'p2_sp'
I7
tp14
a(S'p2_sn'
I1
tp15
a(S'p2_tl'
I240
tp16
a(S'p2_ll'
I1
tp17
a(S'tr_lh'
I1
tp18
a(S'tr_tl'
I240
tp19
a(S'tr_ll'
I1
tp20
a(S'no_lh'
I1
tp21
a(S'no_cv'
I1
tp22
a(S'no_nl'
I1
tp23
a(S'no_ll'
I1
tp24
a(S'ch_no'
I1
tp25
a(S'ch_tr'
I1
tp26
a(S'ch_p2'
I1
tp27
a(S'ch_p1'
I1
tp28
a(S'fc_mo'
I1
tp29
a(S'p1_du'
I1
tp30
a(S'p1_vo'
I9
tp31
a(S'w'
I4
tp32
a(S'p1_tl'
I190
tp33
a(S'w'
I1
tp34
a(S'p1_ll'
I1
tp35
a(S'w'
I10
tp36
a(S'tr_lr'
I127
tp37
a(S'w'
I1
tp38
a(S'tr_tl'
I125
tp39
a(S'w'
I1
tp40
a(S'tr_ll'
I1
tp41
a(S'tr_th'
I1
tp42
a(S'w'
I2119
tp43
a(S'p1_vo'
I8
tp44
a(S'w'
I2204
tp45
a(S'p1_vo'
I7
tp46
a(S'w'
I3672
tp47
a(S'p1_vo'
I6
tp48
a(S'w'
I3687
tp49
a(S'p2_du'
I1
tp50
a(S'p2_vo'
I9
tp51
a(S'w'
I4
tp52
a(S'p2_tl'
I29
tp53
a(S'p2_ll'
I1
tp54
a(S'p2_th'
I1
tp55
a(S'w'
I2192
tp56
a(S'p2_vo'
I8
tp57
a(S'w'
I730
tp58
a(S'p1_vo'
I5
tp59
a(S'w'
I1474
tp60
a(S'p2_vo'
I7
tp61
a(S'w'
I3672
tp62
a(S'p2_vo'
I6
tp63
a(S'w'
I3674
tp64
a(S'p1_vo'
I9
tp65
a(S'w'
I4
tp66
a(S'p1_tl'
I254
tp67
a(S'w'
I1
tp68
a(S'p1_ll'
I1
tp69
a(S'w'
I2191
tp70
a(S'p1_vo'
I8
tp71
a(S'w'
I742
tp72
a(S'p2_vo'
I5
tp73
a(S'w'
I1462
tp74
a(S'p1_vo'
I7
tp75
a(S'w'
I3672
tp76
a(S'p1_vo'
I6
tp77
a(S'w'
I3686
tp78
a(S'p2_vo'
I9
tp79
a(S'w'
I4
tp80
a(S'p2_tl'
I190
tp81
a(S'w'
I1
tp82
a(S'p2_ll'
I1
tp83
a(S'p2_th'
I0
tp84
a(S'w'
I2191
tp85
a(S'p2_vo'
I8
tp86
a(S'w'
I730
tp87
a(S'p1_vo'
I5
tp88
a(S'w'
I1474
tp89
a(S'p2_vo'
I7
tp90
a(S'w'
I3672
tp91
a(S'p2_vo'
I6
tp92
a(S'w'
I6613
tp93
a(S'p2_vo'
I5
tp94
a(S'w'
I728
tp95
a(S'p1_vo'
I4
tp96
a(S'w'
I8092
tp97
a(S'p2_vo'
I9
tp98
a(S'w'
I4
tp99
a(S'p2_ll'
I1
tp100
a(S'w'
I2192
tp101
a(S'p2_vo'
I8
tp102
a(S'w'
I2198
tp103
a(S'p1_vo'
I3
tp104
a(S'w'
I8
tp105
a(S'p2_vo'
I7
tp106
a(S'w'
I3670
tp107
a(S'p2_vo'
I6
tp108
a(S'w'
I3679
tp109
a(S'p1_vo'
I9
tp110
a(S'w'
I4
tp111
a(S'w'
I1
tp112
a(S'p1_ll'
I1
tp113
a(S'w'
I2186
tp114
a(S'p1_vo'
I8
tp115
a(S'w'
I742
tp116
a(S'p2_vo'
I5
tp117
a(S'w'
I1462
tp118
a(S'p1_vo'
I7
tp119
a(S'w'
I3672
tp120
a(S'p1_vo'
I6
tp121
a(S'w'
I3691
tp122
a(S'p2_vo'
I9
tp123
a(S'w'
I4
tp124
a(S'p2_tl'
I29
tp125
a(S'w'
I1
tp126
a(S'p2_ll'
I1
tp127
a(S'p2_th'
I1
tp128
a(S'w'
I11
tp129
a(S'no_vo'
I11
tp130
a(S'w'
I2
tp131
a(S'no_nl'
I0
tp132
a(S'no_np'
I2
tp133
a(S'w'
I1
tp134
a(S'no_ll'
I3
tp135
a(S'w'
I1449
tp136
a(S'no_vo'
I0
tp137
a(S'w'
I723
tp138
a(S'p2_vo'
I8
tp139
a(S'w'
I730
tp140
a(S'p1_vo'
I5
tp141
a(S'w'
I1474
tp142
a(S'p2_vo'
I7
tp143
a(S'w'
I3672
tp144
a(S'p2_vo'
I6
tp145
a(S'w'
I3686
tp146
a(S'p1_vo'
I9
tp147
a(S'w'
I4
tp148
a(S'p1_tl'
I190
tp149
a(S'p1_ll'
I1
tp150
a(S'w'
I16
tp151
a(S'tr_ll'
I1
tp152
a(S'w'
I6
tp153
a(S'no_vo'
I11
tp154
a(S'w'
I2
tp155
a(S'w'
I1
tp156
a(S'no_ll'
I3
tp157
a(S'w'
I1439
tp158
a(S'no_vo'
I0
tp159
a(S'w'
I716
tp160
a(S'p1_vo'
I8
tp161
a(S'w'
I743
tp162
a(S'p2_vo'
I5
tp163
a(S'w'
I1461
tp164
a(S'p1_vo'
I7
tp165
a(S'w'
I3673
tp166
a(S'p1_vo'
I6
tp167
a(S'w'
I6612
tp168
a(S'p1_vo'
I5
tp169
a(S'w'
I740
tp170
a(S'p2_vo'
I4
tp171
a(S'w'
I11746
tp172
a(S'p1_vo'
I4
tp173
a(S'w'
I740
tp174
a(S'p2_vo'
I3
tp175
a(S'w'
I7348
tp176
a(S'p2_du'
I3
tp177
a(S'p2_vo'
I0
tp178
a(S'w'
I4398
tp179
a(S'p1_vo'
I3
tp180
a(S'w'
I7360
tp181
a(S'p1_du'
I3
tp182
a(S'p1_vo'
I0
tp183
a(S'w'
I6
tp184
a(S'p2_du'
I1
tp185
a(S'p2_vo'
I9
tp186
a(S'w'
I4
tp187
a(S'p2_tl'
I125
tp188
a(S'p2_ll'
I1
tp189
a(S'w'
I9
tp190
a(S'w'
I2172
tp191
a(S'p2_vo'
I8
tp192
a(S'w'
I2204
tp193
a(S'p2_vo'
I7
tp194
a(S'w'
I3672
tp195
a(S'p2_vo'
I6
tp196
a(S'w'
I3687
tp197
a(S'p1_du'
I1
tp198
a(S'p1_vo'
I9
tp199
a(S'w'
I4
tp200
a(S'p1_tl'
I254
tp201
a(S'p1_ll'
I1
tp202
a(S'w'
I18
tp203
a(S'no_vo'
I11
tp204
a(S'w'
I2
tp205
a(S'no_np'
I6
tp206
a(S'no_ll'
I3
tp207
a(S'w'
I2163
tp208
a(S'p1_vo'
I8
tp209
a(S'w'
I742
tp210
a(S'p2_vo'
I5
tp211
a(S'w'
I14
tp212
a(S'no_vo'
I9
tp213
a(S'w'
I1448
tp214
a(S'p1_vo'
I7
tp215
a(S'w'
I20
tp216
a(S'no_vo'
I8
tp217
a(S'w'
I1467
tp218
a(S'no_vo'
I7
tp219
a(S'w'
I2185
tp220
a(S'p1_vo'
I6
tp221
a(S'w'
I20
tp222
a(S'no_vo'
I6
tp223
a(S'w'
I2201
tp224
a(S'no_vo'
I5
tp225
a(S'w'
I1470
tp226
a(S'p2_vo'
I9
tp227
a(S'w'
I4
tp228
a(S'p2_tl'
I29
tp229
a(S'w'
I1
tp230
a(S'p2_ll'
I1
tp231
a(S'w'
I3
tp232
a(S'tr_lr'
I0
tp233
a(S'w'
I2183
tp234
a(S'p2_vo'
I8
tp235
a(S'w'
I11
tp236
a(S'no_vo'
I4
tp237
a(S'w'
I719
tp238
a(S'p1_vo'
I5
tp239
a(S'w'
I1474
tp240
a(S'p2_vo'
I7
tp241
a(S'w'
I1479
tp242
a(S'no_vo'
I3
tp243
a(S'w'
I2193
tp244
a(S'p2_vo'
I6
tp245
a(S'w'
I4417
tp246
a(S'no_vo'
I2
tp247
a(S'w'
I2196
tp248
a(S'p2_vo'
I5
tp249
a(S'w'
I727
tp250
a(S'p1_vo'
I4
tp251
a(S'w'
I3687
tp252
a(S'no_vo'
I1
tp253
a(S'w'
I4409
tp254
a(S'p1_vo'
I9
tp255
a(S'w'
I4
tp256
a(S'p1_tl'
I170
tp257
a(S'w'
I1
tp258
a(S'p1_ll'
I1
tp259
a(S'w'
I14
tp260
a(S'tr_lr'
I127
tp261
a(S'w'
I1
tp262
a(S'tr_ll'
I1
tp263
a(S'w'
I2166
tp264
a(S'p1_vo'
I8
tp265
a(S'w'
I1477
tp266
a(S'p2_vo'
I4
tp267
a(S'w'
I727
tp268
a(S'p1_vo'
I7
tp269
a(S'w'
I752
tp270
a(S'no_vo'
I0
tp271
a(S'w'
I2921
tp272
a(S'p1_vo'
I6
tp273
a(S'w'
I3686
tp274
a(S'p2_vo'
I9
tp275
a(S'w'
I4
tp276
a(S'p2_tl'
I254
tp277
a(S'w'
I1
tp278
a(S'p2_ll'
I1
tp279
a(S'p2_th'
I0
tp280
a(S'w'
I2191
tp281
a(S'p2_vo'
I8
tp282
a(S'w'
I730
tp283
a(S'p1_vo'
I5
tp284
a(S'w'
I1474
tp285
a(S'p2_vo'
I7
tp286
a(S'w'
I3672
tp287
a(S'p2_vo'
I6
tp288
a(S'w'
I3674
tp289
a(S'p1_vo'
I9
tp290
a(S'w'
I4
tp291
a(S'p1_tl'
I202
tp292
a(S'w'
I1
tp293
a(S'p1_ll'
I1
tp294
a(S'w'
I2191
tp295
a(S'p1_vo'
I8
tp296
a(S'w'
I742
tp297
a(S'p2_vo'
I5
tp298
a(S'w'
I1462
tp299
a(S'p1_vo'
I7
tp300
a(S'w'
I3672
tp301
a(S'p1_vo'
I6
tp302
a(S'w'
I3686
tp303
a(S'p2_vo'
I9
tp304
a(S'w'
I4
tp305
a(S'p2_tl'
I170
tp306
a(S'w'
I1
tp307
a(S'p2_ll'
I1
tp308
a(S'w'
I2191
tp309
a(S'p2_vo'
I8
tp310
a(S'w'
I731
tp311
a(S'p1_vo'
I5
tp312
a(S'w'
I1473
tp313
a(S'p2_vo'
I7
tp314
a(S'w'
I3672
tp315
a(S'p2_vo'
I6
tp316
a(S'w'
I6613
tp317
a(S'p2_vo'
I5
tp318
a(S'w'
I728
tp319
a(S'p1_vo'
I4
tp320
a(S'w'
I8092
tp321
a(S'p2_vo'
I9
tp322
a(S'w'
I4
tp323
a(S'p2_ll'
I1
tp324
a(S'w'
I2192
tp325
a(S'p2_vo'
I8
tp326
a(S'w'
I2198
tp327
a(S'p1_vo'
I3
tp328
a(S'w'
I8
tp329
a(S'p2_vo'
I7
tp330
a(S'w'
I3670
tp331
a(S'p2_vo'
I6
tp332
a(S'w'
I3674
tp333
a(S'p1_vo'
I9
tp334
a(S'w'
I4
tp335
a(S'w'
I1
tp336
a(S'p1_ll'
I1
tp337
a(S'w'
I2191
tp338
a(S'p1_vo'
I8
tp339
a(S'w'
I742
tp340
a(S'p2_vo'
I5
tp341
a(S'w'
I1462
tp342
a(S'p1_vo'
I7
tp343
a(S'w'
I3672
tp344
a(S'p1_vo'
I6
tp345
a(S'w'
I3695
tp346
a(S'p2_vo'
I9
tp347
a(S'w'
I4
tp348
a(S'p2_tl'
I254
tp349
a(S'w'
I1
tp350
a(S'p2_ll'
I1
tp351
a(S'w'
I11
tp352
a(S'no_vo'
I11
tp353
a(S'w'
I3
tp354
a(S'no_np'
I2
tp355
a(S'no_ll'
I3
tp356
a(S'w'
I1446
tp357
a(S'no_vo'
I0
tp358
a(S'w'
I722
tp359
a(S'p2_vo'
I8
tp360
a(S'w'
I731
tp361
a(S'p1_vo'
I5
tp362
a(S'w'
I1473
tp363
a(S'p2_vo'
I7
tp364
a(S'w'
I3672
tp365
a(S'p2_vo'
I6
tp366
a(S'w'
I3686
tp367
a(S'p1_vo'
I9
tp368
a(S'w'
I4
tp369
a(S'p1_tl'
I170
tp370
a(S'p1_ll'
I1
tp371
a(S'w'
I15
tp372
a(S'tr_ll'
I1
tp373
a(S'w'
I6
tp374
a(S'no_vo'
I11
tp375
a(S'w'
I3
tp376
a(S'no_ll'
I3
tp377
a(S'w'
I986
tp378
a(S'no_vo'
I0
tp379
a(S'w'
I716
tp380
a(S'p1_vo'
I8
tp381
a(S'w'
I740
tp382
a(S'p2_vo'
I5
tp383
a(S'w'
I1462
tp384
a(S'p1_vo'
I7
tp385
a(S'w'
I3669
tp386
a(S'p1_vo'
I6
tp387
a(S'w'
I6604
tp388
a(S'p1_vo'
I5
tp389
a(S'w'
I740
tp390
a(S'p2_vo'
I4
tp391
a(S'w'
I11734
tp392
a(S'p1_vo'
I4
tp393
a(S'w'
I740
tp394
a(S'p2_vo'
I3
tp395
a(S'w'
I7340
tp396
a(S'p2_du'
I3
tp397
a(S'p2_vo'
I0
tp398
a(S'w'
I4395
tp399
a(S'p1_vo'
I3
tp400
a(S'w'
I7346
tp401
a(S'p1_du'
I3
tp402
a(S'p1_vo'
I0
tp403
a(S'w'
I6
tp404
a(S'p2_du'
I1
tp405
a(S'p2_vo'
I9
tp406
a(S'w'
I4
tp407
a(S'p2_tl'
I83
tp408
a(S'p2_ll'
I1
tp409
a(S'p2_th'
I1
tp410
a(S'w'
I2186
tp411
a(S'p2_vo'
I8
tp412
a(S'w'
I2202
tp413
a(S'p2_vo'
I7
tp414
a(S'w'
I3669
tp415
a(S'p2_vo'
I6
tp416
a(S'w'
I3672
tp417
a(S'p1_du'
I1
tp418
a(S'p1_vo'
I9
tp419
a(S'w'
I4
tp420
a(S'p1_tl'
I202
tp421
a(S'p1_ll'
I1
tp422
a(S'w'
I2191
tp423
a(S'p1_vo'
I8
tp424
a(S'w'
I740
tp425
a(S'p2_vo'
I5
tp426
a(S'w'
I1462
tp427
a(S'p1_vo'
I7
tp428
a(S'w'
I3669
tp429
a(S'p1_vo'
I6
tp430
a(S'w'
I3686
tp431
a(S'p2_vo'
I9
tp432
a(S'w'
I4
tp433
a(S'p2_tl'
I254
tp434
a(S'p2_ll'
I1
tp435
a(S'p2_th'
I0
tp436
a(S'w'
I3
tp437
a(S'tr_lr'
I0
tp438
a(S'w'
I2183
tp439
a(S'p2_vo'
I8
tp440
a(S'w'
I728
tp441
a(S'p1_vo'
I5
tp442
a(S'w'
I1474
tp443
a(S'p2_vo'
I7
tp444
a(S'w'
I3669
tp445
a(S'p2_vo'
I6
tp446
a(S'w'
I6604
tp447
a(S'p2_vo'
I5
tp448
a(S'w'
I728
tp449
a(S'p1_vo'
I4
tp450
a(S'w'
I8095
tp451
a(S'p1_vo'
I9
tp452
a(S'w'
I4
tp453
a(S'p1_tl'
I160
tp454
a(S'w'
I1
tp455
a(S'p1_ll'
I1
tp456
a(S'w'
I13
tp457
a(S'tr_lr'
I127
tp458
a(S'w'
I2
tp459
a(S'tr_ll'
I1
tp460
a(S'w'
I3
tp461
a(S'w'
I2155
tp462
a(S'p1_vo'
I8
tp463
a(S'w'
I1473
tp464
a(S'p2_vo'
I4
tp465
a(S'w'
I728
tp466
a(S'p1_vo'
I7
tp467
a(S'w'
I3669
tp468
a(S'p1_vo'
I6
tp469
a(S'w'
I3681
tp470
a(S'p2_vo'
I9
tp471
a(S'w'
I4
tp472
a(S'w'
I1
tp473
a(S'p2_ll'
I1
tp474
a(S'w'
I2191
tp475
a(S'p2_vo'
I8
tp476
a(S'w'
I727
tp477
a(S'p1_vo'
I5
tp478
a(S'w'
I1474
tp479
a(S'p2_vo'
I7
tp480
a(S'w'
I3669
tp481
a(S'p2_vo'
I6
tp482
a(S'w'
I3669
tp483
a(S'p1_vo'
I9
tp484
a(S'w'
I4
tp485
a(S'p1_tl'
I190
tp486
a(S'p1_ll'
I1
tp487
a(S'w'
I2191
tp488
a(S'p1_vo'
I8
tp489
a(S'w'
I740
tp490
a(S'p2_vo'
I5
tp491
a(S'w'
I1462
tp492
a(S'p1_vo'
I7
tp493
a(S'w'
I3669
tp494
a(S'p1_vo'
I6
tp495
a(S'w'
I3681
tp496
a(S'p2_vo'
I9
tp497
a(S'w'
I4
tp498
a(S'p2_tl'
I143
tp499
a(S'p2_ll'
I1
tp500
a(S'w'
I2191
tp501
a(S'p2_vo'
I8
tp502
a(S'w'
I728
tp503
a(S'p1_vo'
I5
tp504
a(S'w'
I1474
tp505
a(S'p2_vo'
I7
tp506
a(S'w'
I3669
tp507
a(S'p2_vo'
I6
tp508
a(S'w'
I6604
tp509
a(S'p2_vo'
I5
tp510
a(S'w'
I728
tp511
a(S'p1_vo'
I4
tp512
a(S'w'
I8078
tp513
a(S'p1_vo'
I9
tp514
a(S'w'
I4
tp515
a(S'p1_tl'
I160
tp516
a(S'p1_ll'
I1
tp517
a(S'w'
I2191
tp518
a(S'p1_vo'
I8
tp519
a(S'w'
I1474
tp520
a(S'p2_vo'
I4
tp521
a(S'w'
I727
tp522
a(S'p1_vo'
I7
tp523
a(S'w'
I3669
tp524
a(S'p1_vo'
I6
tp525
a(S'w'
I3686
tp526
a(S'p2_vo'
I9
tp527
a(S'w'
I4
tp528
a(S'p2_tl'
I190
tp529
a(S'w'
I1
tp530
a(S'p2_ll'
I1
tp531
a(S'w'
I2186
tp532
a(S'p2_vo'
I8
tp533
a(S'w'
I728
tp534
a(S'p1_vo'
I5
tp535
a(S'w'
I1473
tp536
a(S'p2_vo'
I7
tp537
a(S'w'
I3669
tp538
a(S'p2_vo'
I6
tp539
a(S'w'
I3674
tp540
a(S'p1_vo'
I9
tp541
a(S'w'
I4
tp542
a(S'p1_tl'
I254
tp543
a(S'p1_ll'
I1
tp544
a(S'w'
I18
tp545
a(S'no_vo'
I11
tp546
a(S'w'
I2
tp547
a(S'w'
I1
tp548
a(S'no_ll'
I3
tp549
a(S'w'
I1449
tp550
a(S'no_vo'
I0
tp551
a(S'w'
I716
tp552
a(S'p1_vo'
I8
tp553
a(S'w'
I740
tp554
a(S'p2_vo'
I5
tp555
a(S'w'
I1462
tp556
a(S'p1_vo'
I7
tp557
a(S'w'
I3669
tp558
a(S'p1_vo'
I6
tp559
a(S'w'
I3692
tp560
a(S'p2_vo'
I9
tp561
a(S'w'
I4
tp562
a(S'p2_tl'
I143
tp563
a(S'w'
I1
tp564
a(S'p2_ll'
I1
tp565
a(S'w'
I9
tp566
a(S'tr_ll'
I1
tp567
a(S'w'
I6
tp568
a(S'no_vo'
I11
tp569
a(S'w'
I2
tp570
a(S'w'
I1
tp571
a(S'no_ll'
I3
tp572
a(S'w'
I1439
tp573
a(S'no_vo'
I0
tp574
a(S'w'
I722
tp575
a(S'p2_vo'
I8
tp576
a(S'w'
I728
tp577
a(S'p1_vo'
I5
tp578
a(S'w'
I1474
tp579
a(S'p2_vo'
I7
tp580
a(S'w'
I3669
tp581
a(S'p2_vo'
I6
tp582
a(S'w'
I6604
tp583
a(S'p2_vo'
I5
tp584
a(S'w'
I728
tp585
a(S'p1_vo'
I4
tp586
a(S'w'
I11747
tp587
a(S'p2_vo'
I4
tp588
a(S'w'
I727
tp589
a(S'p1_vo'
I3
tp590
a(S'w'
I7340
tp591
a(S'p1_du'
I3
tp592
a(S'p1_vo'
I0
tp593
a(S'w'
I4404
tp594
a(S'p2_vo'
I3
tp595
a(S'w'
I7351
tp596
a(S'p1_du'
I1
tp597
a(S'p1_vo'
I9
tp598
a(S'w'
I4
tp599
a(S'p1_tl'
I29
tp600
a(S'w'
I1
tp601
a(S'p1_ll'
I1
tp602
a(S'p1_th'
I1
tp603
a(S'w'
I3
tp604
a(S'p2_du'
I3
tp605
a(S'p2_vo'
I0
tp606
a(S'w'
I8
tp607
a(S'w'
I2170
tp608
a(S'p1_vo'
I8
tp609
a(S'w'
I2201
tp610
a(S'p1_vo'
I7
tp611
a(S'w'
I3669
tp612
a(S'p1_vo'
I6
tp613
a(S'w'
I3690
tp614
a(S'p2_du'
I1
tp615
a(S'p2_vo'
I9
tp616
a(S'w'
I4
tp617
a(S'p2_tl'
I160
tp618
a(S'p2_ll'
I1
tp619
a(S'w'
I12
tp620
a(S'no_vo'
I11
tp621
a(S'w'
I2
tp622
a(S'no_np'
I6
tp623
a(S'w'
I1
tp624
a(S'no_ll'
I3
tp625
a(S'w'
I2168
tp626
a(S'p2_vo'
I8
tp627
a(S'w'
I727
tp628
a(S'p1_vo'
I5
tp629
a(S'w'
I20
tp630
a(S'no_vo'
I9
tp631
a(S'w'
I1454
tp632
a(S'p2_vo'
I7
tp633
a(S'w'
I14
tp634
a(S'no_vo'
I8
tp635
a(S'w'
I1465
tp636
a(S'no_vo'
I7
tp637
a(S'w'
I2190
tp638
a(S'p2_vo'
I6
tp639
a(S'w'
I14
tp640
a(S'no_vo'
I6
tp641
a(S'w'
I2199
tp642
a(S'no_vo'
I5
tp643
a(S'w'
I1461
tp644
a(S'p1_vo'
I9
tp645
a(S'w'
I4
tp646
a(S'p1_tl'
I190
tp647
a(S'p1_ll'
I1
tp648
a(S'p1_th'
I0
tp649
a(S'w'
I9
tp650
a(S'tr_lr'
I0
tp651
a(S'w'
I2177
tp652
a(S'p1_vo'
I8
tp653
a(S'w'
I18
tp654
a(S'no_vo'
I4
tp655
a(S'w'
I722
tp656
a(S'p2_vo'
I5
tp657
a(S'w'
I1462
tp658
a(S'p1_vo'
I7
tp659
a(S'w'
I1482
tp660
a(S'no_vo'
I3
tp661
a(S'w'
I2187
tp662
a(S'p1_vo'
I6
tp663
a(S'w'
I3681
tp664
a(S'p2_vo'
I9
tp665
a(S'w'
I3
tp666
a(S'p2_tl'
I254
tp667
a(S'w'
I1
tp668
a(S'p2_ll'
I1
tp669
a(S'w'
I732
tp670
a(S'no_vo'
I2
tp671
a(S'w'
I1459
tp672
a(S'p2_vo'
I8
tp673
a(S'w'
I728
tp674
a(S'p1_vo'
I5
tp675
a(S'w'
I1474
tp676
a(S'p2_vo'
I7
tp677
a(S'w'
I2944
tp678
a(S'no_vo'
I1
tp679
a(S'w'
I725
tp680
a(S'p2_vo'
I6
tp681
a(S'w'
I3678
tp682
a(S'p1_vo'
I9
tp683
a(S'w'
I4
tp684
a(S'p1_tl'
I170
tp685
a(S'p1_ll'
I1
tp686
a(S'w'
I14
tp687
a(S'tr_lr'
I127
tp688
a(S'w'
I2
tp689
a(S'tr_ll'
I1
tp690
a(S'w'
I2166
tp691
a(S'p1_vo'
I8
tp692
a(S'w'
I740
tp693
a(S'p2_vo'
I5
tp694
a(S'w'
I1461
tp695
a(S'p1_vo'
I7
tp696
a(S'w'
I752
tp697
a(S'no_vo'
I0
tp698
a(S'w'
I2917
tp699
a(S'p1_vo'
I6
tp700
a(S'w'
I3681
tp701
a(S'p2_vo'
I9
tp702
a(S'w'
I4
tp703
a(S'p2_ll'
I1
tp704
a(S'w'
I2192
tp705
a(S'p2_vo'
I8
tp706
a(S'w'
I728
tp707
a(S'p1_vo'
I5
tp708
a(S'w'
I1473
tp709
a(S'p2_vo'
I7
tp710
a(S'w'
I3669
tp711
a(S'p2_vo'
I6
tp712
a(S'w'
I3669
tp713
a(S'p1_vo'
I9
tp714
a(S'w'
I4
tp715
a(S'p1_tl'
I202
tp716
a(S'w'
I1
tp717
a(S'p1_ll'
I1
tp718
a(S'w'
I2191
tp719
a(S'p1_vo'
I8
tp720
a(S'w'
I739
tp721
a(S'p2_vo'
I5
tp722
a(S'w'
I1462
tp723
a(S'p1_vo'
I7
tp724
a(S'w'
I3669
tp725
a(S'p1_vo'
I6
tp726
a(S'w'
I3681
tp727
a(S'p2_vo'
I9
tp728
a(S'w'
I4
tp729
a(S'p2_tl'
I143
tp730
a(S'w'
I1
tp731
a(S'p2_ll'
I1
tp732
a(S'w'
I2190
tp733
a(S'p2_vo'
I8
tp734
a(S'w'
I728
tp735
a(S'p1_vo'
I5
tp736
a(S'w'
I1474
tp737
a(S'p2_vo'
I7
tp738
a(S'w'
I3669
tp739
a(S'p2_vo'
I6
tp740
a(S'w'
I6604
tp741
a(S'p2_vo'
I5
tp742
a(S'w'
I728
tp743
a(S'p1_vo'
I4
tp744
a(S'w'
I8078
tp745
a(S'p1_vo'
I9
tp746
a(S'w'
I4
tp747
a(S'p1_tl'
I170
tp748
a(S'p1_ll'
I1
tp749
a(S'w'
I2191
tp750
a(S'p1_vo'
I8
tp751
a(S'w'
I1474
tp752
a(S'p2_vo'
I4
tp753
a(S'w'
I727
tp754
a(S'p1_vo'
I7
tp755
a(S'w'
I3669
tp756
a(S'p1_vo'
I6
tp757
a(S'w'
I3682
tp758
a(S'p2_vo'
I9
tp759
a(S'w'
I4
tp760
a(S'p2_tl'
I202
tp761
a(S'p2_ll'
I1
tp762
a(S'w'
I2191
tp763
a(S'p2_vo'
I8
tp764
a(S'w'
I728
tp765
a(S'p1_vo'
I5
tp766
a(S'w'
I1473
tp767
a(S'p2_vo'
I7
tp768
a(S'w'
I3669
tp769
a(S'p2_vo'
I6
tp770
a(S'w'
I3678
tp771
a(S'p1_vo'
I9
tp772
a(S'w'
I4
tp773
a(S'p1_tl'
I254
tp774
a(S'p1_ll'
I1
tp775
a(S'w'
I18
tp776
a(S'no_vo'
I11
tp777
a(S'w'
I2
tp778
a(S'no_np'
I2
tp779
a(S'w'
I1
tp780
a(S'no_ll'
I3
tp781
a(S'w'
I1445
tp782
a(S'no_vo'
I0
tp783
a(S'w'
I717
tp784
a(S'p1_vo'
I8
tp785
a(S'w'
I740
tp786
a(S'p2_vo'
I5
tp787
a(S'w'
I1461
tp788
a(S'p1_vo'
I7
tp789
a(S'w'
I3669
tp790
a(S'p1_vo'
I6
tp791
a(S'w'
I3693
tp792
a(S'p2_vo'
I9
tp793
a(S'w'
I3
tp794
a(S'p2_tl'
I143
tp795
a(S'w'
I1
tp796
a(S'p2_ll'
I1
tp797
a(S'w'
I9
tp798
a(S'tr_ll'
I1
tp799
a(S'w'
I6
tp800
a(S'no_vo'
I11
tp801
a(S'w'
I3
tp802
a(S'no_ll'
I3
tp803
a(S'w'
I1439
tp804
a(S'no_vo'
I0
tp805
a(S'w'
I723
tp806
a(S'p2_vo'
I8
tp807
a(S'w'
I727
tp808
a(S'p1_vo'
I5
tp809
a(S'w'
I1474
tp810
a(S'p2_vo'
I7
tp811
a(S'w'
I3669
tp812
a(S'p2_vo'
I6
tp813
a(S'w'
I6604
tp814
a(S'p2_vo'
I5
tp815
a(S'w'
I728
tp816
a(S'p1_vo'
I4
tp817
a(S'w'
I11747
tp818
a(S'p2_vo'
I4
tp819
a(S'w'
I728
tp820
a(S'p1_vo'
I3
tp821
a(S'w'
I7340
tp822
a(S'p1_du'
I3
tp823
a(S'p1_vo'
I0
tp824
a(S'w'
I4403
tp825
a(S'p2_vo'
I3
tp826
a(S'w'
I7347
tp827
a(S'p1_du'
I1
tp828
a(S'p1_vo'
I9
tp829
a(S'w'
I4
tp830
a(S'p1_tl'
I170
tp831
a(S'p1_ll'
I1
tp832
a(S'w'
I3
tp833
a(S'p2_du'
I3
tp834
a(S'p2_vo'
I0
tp835
a(S'w'
I2183
tp836
a(S'p1_vo'
I8
tp837
a(S'w'
I2201
tp838
a(S'p1_vo'
I7
tp839
a(S'w'
I3669
tp840
a(S'p1_vo'
I6
tp841
a(S'w'
I3682
tp842
a(S'p2_du'
I1
tp843
a(S'p2_vo'
I9
tp844
a(S'w'
I3
tp845
a(S'p2_tl'
I202
tp846
a(S'w'
I1
tp847
a(S'p2_ll'
I1
tp848
a(S'w'
I2191
tp849
a(S'p2_vo'
I8
tp850
a(S'w'
I727
tp851
a(S'p1_vo'
I5
tp852
a(S'w'
I1474
tp853
a(S'p2_vo'
I7
tp854
a(S'w'
I3669
tp855
a(S'p2_vo'
I6
tp856
a(S'w'
I3674
tp857
a(S'p1_vo'
I9
tp858
a(S'w'
I4
tp859
a(S'p1_tl'
I254
tp860
a(S'w'
I1
tp861
a(S'p1_ll'
I1
tp862
a(S'w'
I9
tp863
a(S'tr_lr'
I0
tp864
a(S'w'
I2176
tp865
a(S'p1_vo'
I8
tp866
a(S'w'
I740
tp867
a(S'p2_vo'
I5
tp868
a(S'w'
I1462
tp869
a(S'p1_vo'
I7
tp870
a(S'w'
I3669
tp871
a(S'p1_vo'
I6
tp872
a(S'w'
I3681
tp873
a(S'p2_vo'
I9
tp874
a(S'w'
I4
tp875
a(S'p2_tl'
I29
tp876
a(S'p2_ll'
I1
tp877
a(S'p2_th'
I1
tp878
a(S'w'
I2191
tp879
a(S'p2_vo'
I8
tp880
a(S'w'
I728
tp881
a(S'p1_vo'
I5
tp882
a(S'w'
I1474
tp883
a(S'p2_vo'
I7
tp884
a(S'w'
I3669
tp885
a(S'p2_vo'
I6
tp886
a(S'w'
I3685
tp887
a(S'p1_vo'
I9
tp888
a(S'w'
I4
tp889
a(S'p1_tl'
I143
tp890
a(S'p1_ll'
I1
tp891
a(S'w'
I10
tp892
a(S'w'
I2163
tp893
a(S'p1_vo'
I8
tp894
a(S'w'
I740
tp895
a(S'p2_vo'
I5
tp896
a(S'w'
I1461
tp897
a(S'p1_vo'
I7
tp898
a(S'w'
I3669
tp899
a(S'p1_vo'
I6
tp900
a(S'w'
I6605
tp901
a(S'p1_vo'
I5
tp902
a(S'w'
I740
tp903
a(S'p2_vo'
I4
tp904
a(S'w'
I11734
tp905
a(S'p1_vo'
I4
tp906
a(S'w'
I740
tp907
a(S'p2_vo'
I3
tp908
a(S'w'
I11735
tp909
a(S'p1_vo'
I3
tp910
a(S'w'
I740
tp911
a(S'p2_vo'
I2
tp912
a(S'w'
I11735
tp913
a(S'p1_vo'
I2
tp914
a(S'w'
I739
tp915
a(S'p2_vo'
I1
tp916
a(S'w'
I11735
tp917
a(S'p1_vo'
I1
tp918
a(S'w'
I740
tp919
a(S'p2_vo'
I0
tp920
a(S'w'
I11735
tp921
a(S'p1_vo'
I0
tp922
a(S'w'
I5144
tp923
a(S'p2_du'
I3
tp924
a(S'w'
I11733
tp925
a(S'p1_du'
I3
tp926
a(S'w'
I1
tp927
a.