(lp1
(S'clock'
p2
I1789772
tp3
a(S'p1_du'
I1
tp4
a(S'p1_lh'
I1
tp5
a(S'p1_cv'
I1
tp6
a(S'p1_vo'
I13
tp7
a(S'w'
I4
tp8
a(S'p1_sp'
I7
tp9
a(S'p1_sn'
I1
tp10
a(S'p1_tl'
I85
tp11
a(S'p1_ll'
I1
tp12
a(S'w'
I4
tp13
a(S'p2_du'
I3
tp14
a(S'p2_lh'
I1
tp15
a(S'p2_cv'
I1
tp16
a(S'w'
I3
tp17
a(S'tr_lh'
I1
tp18
a(S'w'
I3
tp19
a(S'no_lh'
I1
tp20
a(S'no_cv'
I1
tp21
a(S'w'
I2143
tp22
a(S'p1_vo'
I12
tp23
a(S'w'
I1500
tp24
a(S'p1_vo'
I11
tp25
a(S'w'
I1599
tp26
a(S'p1_vo'
I10
tp27
a(S'w'
I3511
tp28
a(S'p1_vo'
I9
tp29
a(S'w'
I9
tp30
a(S'p2_du'
I1
tp31
a(S'p2_vo'
I13
tp32
a(S'w'
I3
tp33
a(S'p2_sp'
I7
tp34
a(S'p2_sn'
I1
tp35
a(S'p2_tl'
I95
tp36
a(S'w'
I1
tp37
a(S'p2_ll'
I1
tp38
a(S'w'
I2188
tp39
a(S'p2_vo'
I12
tp40
a(S'w'
I1495
tp41
a(S'p1_vo'
I8
tp42
a(S'w'
I9
tp43
a(S'p2_vo'
I11
tp44
a(S'w'
I1596
tp45
a(S'p2_vo'
I10
tp46
a(S'w'
I2195
tp47
a(S'p1_vo'
I7
tp48
a(S'w'
I1309
tp49
a(S'p1_vo'
I13
tp50
a(S'w'
I4
tp51
a(S'p1_tl'
I101
tp52
a(S'w'
I1
tp53
a(S'p1_ll'
I1
tp54
a(S'w'
I6
tp55
a(S'p2_vo'
I9
tp56
a(S'w'
I2220
tp57
a(S'p1_vo'
I12
tp58
a(S'w'
I1466
tp59
a(S'p1_vo'
I11
tp60
a(S'w'
I9
tp61
a(S'p2_vo'
I8
tp62
a(S'w'
I1460
tp63
a(S'p1_vo'
I10
tp64
a(S'w'
I2206
tp65
a(S'p2_vo'
I7
tp66
a(S'w'
I1468
tp67
a(S'p1_vo'
I9
tp68
a(S'w'
I8
tp69
a(S'p2_vo'
I13
tp70
a(S'w'
I4
tp71
a(S'p2_tl'
I113
tp72
a(S'w'
I1
tp73
a(S'p2_ll'
I1
tp74
a(S'w'
I2190
tp75
a(S'p2_vo'
I12
tp76
a(S'w'
I1460
tp77
a(S'p1_vo'
I8
tp78
a(S'w'
I9
tp79
a(S'p2_vo'
I11
tp80
a(S'w'
I1466
tp81
a(S'p2_vo'
I10
tp82
a(S'w'
I2171
tp83
a(S'p1_vo'
I7
tp84
a(S'w'
I1497
tp85
a(S'p1_vo'
I13
tp86
a(S'w'
I3
tp87
a(S'p1_tl'
I170
tp88
a(S'w'
I1
tp89
a(S'p1_ll'
I1
tp90
a(S'w'
I6
tp91
a(S'p2_vo'
I9
tp92
a(S'w'
I2185
tp93
a(S'p1_vo'
I12
tp94
a(S'w'
I1468
tp95
a(S'p1_vo'
I11
tp96
a(S'w'
I8
tp97
a(S'p2_vo'
I8
tp98
a(S'w'
I1459
tp99
a(S'p1_vo'
I10
tp100
a(S'w'
I2174
tp101
a(S'p2_vo'
I7
tp102
a(S'w'
I1481
tp103
a(S'p1_vo'
I9
tp104
a(S'w'
I8
tp105
a(S'p2_vo'
I13
tp106
a(S'w'
I4
tp107
a(S'p2_tl'
I127
tp108
a(S'p2_ll'
I1
tp109
a(S'w'
I2195
tp110
a(S'p2_vo'
I12
tp111
a(S'w'
I1488
tp112
a(S'p1_vo'
I8
tp113
a(S'w'
I9
tp114
a(S'p2_vo'
I11
tp115
a(S'w'
I1419
tp116
a(S'p2_vo'
I10
tp117
a(S'w'
I2222
tp118
a(S'p1_vo'
I7
tp119
a(S'w'
I1460
tp120
a(S'p1_vo'
I13
tp121
a(S'w'
I4
tp122
a(S'p1_tl'
I101
tp123
a(S'p1_ll'
I1
tp124
a(S'w'
I7
tp125
a(S'p2_vo'
I9
tp126
a(S'w'
I2185
tp127
a(S'p1_vo'
I12
tp128
a(S'w'
I1504
tp129
a(S'p1_vo'
I11
tp130
a(S'w'
I9
tp131
a(S'p2_vo'
I8
tp132
a(S'w'
I1409
tp133
a(S'p1_vo'
I10
tp134
a(S'w'
I2207
tp135
a(S'p2_vo'
I7
tp136
a(S'w'
I1473
tp137
a(S'p1_vo'
I9
tp138
a(S'w'
I9
tp139
a(S'p2_vo'
I13
tp140
a(S'w'
I4
tp141
a(S'p2_tl'
I170
tp142
a(S'p2_ll'
I1
tp143
a(S'w'
I2183
tp144
a(S'p2_vo'
I12
tp145
a(S'w'
I1462
tp146
a(S'p1_vo'
I8
tp147
a(S'w'
I8
tp148
a(S'p2_vo'
I11
tp149
a(S'w'
I1470
tp150
a(S'p2_vo'
I10
tp151
a(S'w'
I2191
tp152
a(S'p1_vo'
I7
tp153
a(S'w'
I1482
tp154
a(S'p1_vo'
I13
tp155
a(S'w'
I4
tp156
a(S'p1_tl'
I135
tp157
a(S'w'
I1
tp158
a(S'p1_ll'
I1
tp159
a(S'w'
I6
tp160
a(S'p2_vo'
I9
tp161
a(S'w'
I2176
tp162
a(S'p1_vo'
I12
tp163
a(S'w'
I1467
tp164
a(S'p1_vo'
I11
tp165
a(S'w'
I9
tp166
a(S'p2_vo'
I8
tp167
a(S'w'
I1459
tp168
a(S'p1_vo'
I10
tp169
a(S'w'
I2207
tp170
a(S'p2_vo'
I7
tp171
a(S'w'
I1468
tp172
a(S'p1_vo'
I9
tp173
a(S'w'
I8
tp174
a(S'p2_vo'
I13
tp175
a(S'w'
I4
tp176
a(S'p2_tl'
I113
tp177
a(S'p2_ll'
I1
tp178
a(S'w'
I2189
tp179
a(S'p2_vo'
I12
tp180
a(S'w'
I1462
tp181
a(S'p1_vo'
I8
tp182
a(S'w'
I8
tp183
a(S'p2_vo'
I11
tp184
a(S'w'
I1465
tp185
a(S'p2_vo'
I10
tp186
a(S'w'
I2196
tp187
a(S'p1_vo'
I7
tp188
a(S'w'
I1473
tp189
a(S'p1_vo'
I13
tp190
a(S'w'
I4
tp191
a(S'p1_tl'
I85
tp192
a(S'p1_ll'
I1
tp193
a(S'w'
I7
tp194
a(S'p2_vo'
I9
tp195
a(S'w'
I2185
tp196
a(S'p1_vo'
I12
tp197
a(S'w'
I1467
tp198
a(S'p1_vo'
I11
tp199
a(S'w'
I9
tp200
a(S'p2_vo'
I8
tp201
a(S'w'
I1459
tp202
a(S'p1_vo'
I10
tp203
a(S'w'
I2207
tp204
a(S'p2_vo'
I7
tp205
a(S'w'
I1468
tp206
a(S'p1_vo'
I9
tp207
a(S'w'
I8
tp208
a(S'p2_vo'
I13
tp209
a(S'w'
I4
tp210
a(S'p2_tl'
I127
tp211
a(S'w'
I1
tp212
a(S'p2_ll'
I1
tp213
a(S'w'
I2188
tp214
a(S'p2_vo'
I12
tp215
a(S'w'
I1462
tp216
a(S'p1_vo'
I8
tp217
a(S'w'
I9
tp218
a(S'p2_vo'
I11
tp219
a(S'w'
I1465
tp220
a(S'p2_vo'
I10
tp221
a(S'w'
I2195
tp222
a(S'p1_vo'
I7
tp223
a(S'w'
I1473
tp224
a(S'p1_vo'
I13
tp225
a(S'w'
I4
tp226
a(S'p1_tl'
I101
tp227
a(S'w'
I1
tp228
a(S'p1_ll'
I1
tp229
a(S'w'
I6
tp230
a(S'p2_vo'
I9
tp231
a(S'w'
I2191
tp232
a(S'p1_vo'
I12
tp233
a(S'w'
I1462
tp234
a(S'p1_vo'
I11
tp235
a(S'w'
I8
tp236
a(S'p2_vo'
I8
tp237
a(S'w'
I1459
tp238
a(S'p1_vo'
I10
tp239
a(S'w'
I2230
tp240
a(S'p2_vo'
I7
tp241
a(S'w'
I1446
tp242
a(S'p1_vo'
I9
tp243
a(S'w'
I8
tp244
a(S'p2_vo'
I13
tp245
a(S'w'
I4
tp246
a(S'p2_tl'
I85
tp247
a(S'p2_ll'
I1
tp248
a(S'w'
I2189
tp249
a(S'p2_vo'
I12
tp250
a(S'w'
I1461
tp251
a(S'p1_vo'
I8
tp252
a(S'w'
I9
tp253
a(S'p2_vo'
I11
tp254
a(S'w'
I1465
tp255
a(S'p2_vo'
I10
tp256
a(S'w'
I2195
tp257
a(S'p1_vo'
I7
tp258
a(S'w'
I1480
tp259
a(S'p1_vo'
I13
tp260
a(S'w'
I4
tp261
a(S'p1_tl'
I64
tp262
a(S'w'
I1
tp263
a(S'p1_ll'
I1
tp264
a(S'w'
I6
tp265
a(S'p2_vo'
I9
tp266
a(S'w'
I2178
tp267
a(S'p1_vo'
I12
tp268
a(S'w'
I1468
tp269
a(S'p1_vo'
I11
tp270
a(S'w'
I8
tp271
a(S'p2_vo'
I8
tp272
a(S'w'
I1465
tp273
a(S'p1_vo'
I10
tp274
a(S'w'
I2202
tp275
a(S'p2_vo'
I7
tp276
a(S'w'
I1462
tp277
a(S'p1_vo'
I9
tp278
a(S'w'
I2207
tp279
a(S'p2_vo'
I6
tp280
a(S'w'
I1462
tp281
a(S'p1_vo'
I8
tp282
a(S'w'
I2207
tp283
a(S'p2_vo'
I5
tp284
a(S'w'
I1461
tp285
a(S'p1_vo'
I7
tp286
a(S'w'
I3667
tp287
a(S'p1_vo'
I6
tp288
a(S'w'
I9
tp289
a(S'p2_vo'
I4
tp290
a(S'w'
I745
tp291
a(S'tr_lr'
I127
tp292
a(S'tr_tl'
I29
tp293
a.