(lp1
(S'clock'
p2
I1789772
tp3
a(S'p1_du'
I2
tp4
a(S'p1_lh'
I1
tp5
a(S'p1_cv'
I1
tp6
a(S'p1_tl'
I213
tp7
a(S'p1_ll'
I3
tp8
a(S'p2_du'
I2
tp9
a(S'p2_lh'
I1
tp10
a(S'p2_cv'
I1
tp11
a(S'p2_tl'
I103
tp12
a(S'p2_ll'
I3
tp13
a(S'p2_th'
I1
tp14
a(S'tr_tl'
I171
tp15
a(S'tr_ll'
I31
tp16
a(S'tr_th'
I1
tp17
a(S'no_lh'
I1
tp18
a(S'no_cv'
I1
tp19
a(S'no_np'
I3
tp20
a(S'no_ll'
I16
tp21
a(S'p1_tl'
I252
tp22
a(S'p1_ll'
I3
tp23
a(S'p1_th'
I1
tp24
a(S'w'
I8
tp25
a(S'p1_vo'
I7
tp26
a(S'w'
I718
tp27
a(S'p1_vo'
I11
tp28
a(S'w'
I733
tp29
a(S'p1_vo'
I15
tp30
a(S'w'
I734
tp31
a(S'p1_vo'
I13
tp32
a(S'w'
I2200
tp33
a(S'p1_tl'
I83
tp34
a(S'p1_ll'
I3
tp35
a(S'w'
I8
tp36
a(S'p1_vo'
I7
tp37
a(S'w'
I6
tp38
a(S'p2_vo'
I10
tp39
a(S'w'
I1
tp40
a(S'p2_tl'
I252
tp41
a(S'p2_ll'
I3
tp42
a(S'w'
I7
tp43
a(S'p2_vo'
I5
tp44
a(S'w'
I713
tp45
a(S'p1_vo'
I11
tp46
a(S'w'
I8
tp47
a(S'p2_vo'
I8
tp48
a(S'w'
I726
tp49
a(S'p1_vo'
I15
tp50
a(S'w'
I9
tp51
a(S'p2_vo'
I11
tp52
a(S'w'
I725
tp53
a(S'p1_vo'
I13
tp54
a(S'w'
I9
tp55
a(S'p2_vo'
I9
tp56
a(S'w'
I2191
tp57
a(S'p1_tl'
I254
tp58
a(S'p1_ll'
I3
tp59
a(S'p1_th'
I0
tp60
a(S'w'
I8
tp61
a(S'p1_vo'
I7
tp62
a(S'w'
I7
tp63
a(S'p2_vo'
I10
tp64
a(S'p2_tl'
I83
tp65
a(S'p2_ll'
I3
tp66
a(S'w'
I8
tp67
a(S'p2_vo'
I5
tp68
a(S'w'
I712
tp69
a(S'p1_vo'
I11
tp70
a(S'w'
I8
tp71
a(S'p2_vo'
I8
tp72
a(S'w'
I726
tp73
a(S'p1_vo'
I15
tp74
a(S'w'
I9
tp75
a(S'p2_vo'
I11
tp76
a(S'w'
I725
tp77
a(S'p1_vo'
I13
tp78
a(S'w'
I8
tp79
a(S'p2_vo'
I9
tp80
a(S'w'
I2191
tp81
a(S'p1_tl'
I226
tp82
a(S'w'
I1
tp83
a(S'p1_ll'
I3
tp84
a(S'w'
I8
tp85
a(S'p1_vo'
I7
tp86
a(S'w'
I6
tp87
a(S'p2_vo'
I10
tp88
a(S'w'
I1
tp89
a(S'p2_tl'
I254
tp90
a(S'p2_ll'
I3
tp91
a(S'p2_th'
I0
tp92
a(S'w'
I7
tp93
a(S'p2_vo'
I5
tp94
a(S'w'
I713
tp95
a(S'p1_vo'
I11
tp96
a(S'w'
I7
tp97
a(S'p2_vo'
I8
tp98
a(S'w'
I727
tp99
a(S'p1_vo'
I15
tp100
a(S'w'
I8
tp101
a(S'p2_vo'
I11
tp102
a(S'w'
I726
tp103
a(S'p1_vo'
I13
tp104
a(S'w'
I8
tp105
a(S'p2_vo'
I9
tp106
a(S'w'
I2192
tp107
a(S'p1_tl'
I201
tp108
a(S'p1_ll'
I3
tp109
a(S'w'
I8
tp110
a(S'p1_vo'
I7
tp111
a(S'w'
I7
tp112
a(S'p2_vo'
I10
tp113
a(S'p2_tl'
I226
tp114
a(S'p2_ll'
I3
tp115
a(S'w'
I8
tp116
a(S'p2_vo'
I5
tp117
a(S'w'
I712
tp118
a(S'p1_vo'
I11
tp119
a(S'w'
I7
tp120
a(S'p2_vo'
I8
tp121
a(S'w'
I727
tp122
a(S'p1_vo'
I15
tp123
a(S'w'
I8
tp124
a(S'p2_vo'
I11
tp125
a(S'w'
I725
tp126
a(S'p1_vo'
I13
tp127
a(S'w'
I9
tp128
a(S'p2_vo'
I9
tp129
a(S'w'
I2191
tp130
a(S'p1_tl'
I169
tp131
a(S'w'
I1
tp132
a(S'p1_ll'
I3
tp133
a(S'w'
I8
tp134
a(S'p1_vo'
I7
tp135
a(S'w'
I7
tp136
a(S'p2_vo'
I10
tp137
a(S'p2_tl'
I201
tp138
a(S'p2_ll'
I3
tp139
a(S'w'
I8
tp140
a(S'p2_vo'
I5
tp141
a(S'w'
I712
tp142
a(S'p1_vo'
I11
tp143
a(S'w'
I7
tp144
a(S'p2_vo'
I8
tp145
a(S'w'
I726
tp146
a(S'p1_vo'
I15
tp147
a(S'w'
I9
tp148
a(S'p2_vo'
I11
tp149
a(S'w'
I725
tp150
a(S'p1_vo'
I13
tp151
a(S'w'
I9
tp152
a(S'p2_vo'
I9
tp153
a(S'w'
I2196
tp154
a(S'p1_tl'
I254
tp155
a(S'p1_ll'
I3
tp156
a(S'w'
I7
tp157
a(S'p1_vo'
I5
tp158
a(S'w'
I7
tp159
a(S'p2_vo'
I10
tp160
a(S'p2_tl'
I169
tp161
a(S'w'
I1
tp162
a(S'p2_ll'
I3
tp163
a(S'w'
I7
tp164
a(S'p2_vo'
I5
tp165
a(S'w'
I707
tp166
a(S'p1_vo'
I8
tp167
a(S'w'
I8
tp168
a(S'p2_vo'
I8
tp169
a(S'w'
I726
tp170
a(S'p1_vo'
I11
tp171
a(S'w'
I9
tp172
a(S'p2_vo'
I11
tp173
a(S'w'
I725
tp174
a(S'p1_vo'
I9
tp175
a(S'w'
I9
tp176
a(S'p2_vo'
I9
tp177
a(S'w'
I2192
tp178
a(S'p1_tl'
I169
tp179
a(S'p1_ll'
I3
tp180
a(S'w'
I8
tp181
a(S'p1_vo'
I5
tp182
a(S'w'
I11
tp183
a(S'p2_vo'
I10
tp184
a(S'p2_tl'
I254
tp185
a(S'w'
I1
tp186
a(S'p2_ll'
I3
tp187
a(S'w'
I6
tp188
a(S'p2_vo'
I3
tp189
a(S'w'
I708
tp190
a(S'p1_vo'
I8
tp191
a(S'w'
I7
tp192
a(S'p2_vo'
I5
tp193
a(S'w'
I727
tp194
a(S'p1_vo'
I11
tp195
a(S'w'
I8
tp196
a(S'p2_vo'
I7
tp197
a(S'w'
I726
tp198
a(S'p1_vo'
I9
tp199
a(S'w'
I8
tp200
a(S'p2_vo'
I6
tp201
a(S'w'
I2193
tp202
a(S'p1_tl'
I127
tp203
a(S'p1_ll'
I3
tp204
a(S'w'
I7
tp205
a(S'p1_vo'
I5
tp206
a(S'w'
I7
tp207
a(S'p2_vo'
I10
tp208
a(S'w'
I1
tp209
a(S'p2_tl'
I169
tp210
a(S'p2_ll'
I3
tp211
a(S'w'
I6
tp212
a(S'p2_vo'
I3
tp213
a(S'w'
I713
tp214
a(S'p1_vo'
I8
tp215
a(S'w'
I6
tp216
a(S'p2_vo'
I5
tp217
a(S'w'
I728
tp218
a(S'p1_vo'
I11
tp219
a(S'w'
I7
tp220
a(S'p2_vo'
I7
tp221
a(S'w'
I727
tp222
a(S'p1_vo'
I9
tp223
a(S'w'
I7
tp224
a(S'p2_vo'
I6
tp225
a(S'w'
I2194
tp226
a(S'p1_tl'
I113
tp227
a(S'p1_ll'
I3
tp228
a(S'w'
I7
tp229
a(S'p1_vo'
I5
tp230
a(S'w'
I7
tp231
a(S'p2_vo'
I10
tp232
a(S'p2_tl'
I127
tp233
a(S'w'
I1
tp234
a(S'p2_ll'
I3
tp235
a(S'w'
I6
tp236
a(S'p2_vo'
I3
tp237
a(S'w'
I713
tp238
a(S'p1_vo'
I8
tp239
a(S'w'
I6
tp240
a(S'p2_vo'
I5
tp241
a(S'w'
I728
tp242
a(S'p1_vo'
I11
tp243
a(S'w'
I7
tp244
a(S'p2_vo'
I7
tp245
a(S'w'
I727
tp246
a(S'p1_vo'
I9
tp247
a(S'w'
I7
tp248
a(S'p2_vo'
I6
tp249
a(S'w'
I2194
tp250
a(S'p1_tl'
I100
tp251
a(S'p1_ll'
I3
tp252
a(S'w'
I7
tp253
a(S'p1_vo'
I5
tp254
a(S'w'
I7
tp255
a(S'p2_vo'
I10
tp256
a(S'w'
I1
tp257
a(S'p2_tl'
I113
tp258
a(S'p2_ll'
I3
tp259
a(S'w'
I6
tp260
a(S'p2_vo'
I3
tp261
a(S'w'
I713
tp262
a(S'p1_vo'
I8
tp263
a(S'w'
I6
tp264
a(S'p2_vo'
I5
tp265
a(S'w'
I727
tp266
a(S'p1_vo'
I11
tp267
a(S'w'
I8
tp268
a(S'p2_vo'
I7
tp269
a(S'w'
I726
tp270
a(S'p1_vo'
I9
tp271
a(S'w'
I8
tp272
a(S'p2_vo'
I6
tp273
a(S'w'
I2194
tp274
a(S'p1_tl'
I84
tp275
a(S'p1_ll'
I3
tp276
a(S'w'
I7
tp277
a(S'p1_vo'
I5
tp278
a(S'w'
I7
tp279
a(S'p2_vo'
I10
tp280
a(S'w'
I1
tp281
a(S'p2_tl'
I100
tp282
a(S'p2_ll'
I3
tp283
a(S'w'
I6
tp284
a(S'p2_vo'
I3
tp285
a(S'w'
I713
tp286
a(S'p1_vo'
I8
tp287
a(S'w'
I6
tp288
a(S'p2_vo'
I5
tp289
a(S'w'
I727
tp290
a(S'p1_vo'
I11
tp291
a(S'w'
I8
tp292
a(S'p2_vo'
I7
tp293
a(S'w'
I726
tp294
a(S'p1_vo'
I9
tp295
a(S'w'
I8
tp296
a(S'p2_vo'
I6
tp297
a(S'w'
I2197
tp298
a(S'p1_tl'
I252
tp299
a(S'w'
I1
tp300
a(S'p1_ll'
I3
tp301
a(S'p1_th'
I1
tp302
a(S'w'
I6
tp303
a(S'p1_vo'
I3
tp304
a(S'w'
I7
tp305
a(S'p2_vo'
I10
tp306
a(S'p2_tl'
I84
tp307
a(S'w'
I1
tp308
a(S'p2_ll'
I3
tp309
a(S'w'
I6
tp310
a(S'p2_vo'
I3
tp311
a(S'w'
I708
tp312
a(S'p1_vo'
I5
tp313
a(S'w'
I7
tp314
a(S'p2_vo'
I5
tp315
a(S'w'
I727
tp316
a(S'p1_vo'
I7
tp317
a(S'w'
I8
tp318
a(S'p2_vo'
I7
tp319
a(S'w'
I726
tp320
a(S'p1_vo'
I6
tp321
a(S'w'
I8
tp322
a(S'p2_vo'
I6
tp323
a(S'w'
I2194
tp324
a(S'p1_tl'
I83
tp325
a(S'p1_ll'
I3
tp326
a(S'w'
I6
tp327
a(S'p1_vo'
I3
tp328
a(S'w'
I11
tp329
a(S'p2_vo'
I10
tp330
a(S'p2_tl'
I252
tp331
a(S'w'
I1
tp332
a(S'p2_ll'
I3
tp333
a(S'p2_th'
I1
tp334
a(S'w'
I5
tp335
a(S'p2_vo'
I1
tp336
a(S'w'
I710
tp337
a(S'p1_vo'
I5
tp338
a(S'w'
I6
tp339
a(S'p2_vo'
I2
tp340
a(S'w'
I728
tp341
a(S'p1_vo'
I7
tp342
a(S'w'
I7
tp343
a(S'p2_vo'
I3
tp344
a(S'w'
I727
tp345
a(S'p1_vo'
I6
tp346
a(S'w'
I2201
tp347
a(S'p1_tl'
I254
tp348
a(S'w'
I1
tp349
a(S'p1_ll'
I3
tp350
a(S'p1_th'
I0
tp351
a(S'w'
I6
tp352
a(S'p1_vo'
I3
tp353
a(S'w'
I6
tp354
a(S'p2_vo'
I10
tp355
a(S'w'
I1
tp356
a(S'p2_tl'
I83
tp357
a(S'p2_ll'
I3
tp358
a(S'w'
I5
tp359
a(S'p2_vo'
I1
tp360
a(S'w'
I715
tp361
a(S'p1_vo'
I5
tp362
a(S'w'
I5
tp363
a(S'p2_vo'
I2
tp364
a(S'w'
I729
tp365
a(S'p1_vo'
I7
tp366
a(S'w'
I6
tp367
a(S'p2_vo'
I3
tp368
a(S'w'
I728
tp369
a(S'p1_vo'
I6
tp370
a(S'w'
I2201
tp371
a(S'p1_tl'
I226
tp372
a(S'p1_ll'
I3
tp373
a(S'w'
I7
tp374
a(S'p1_vo'
I3
tp375
a(S'w'
I6
tp376
a(S'p2_vo'
I10
tp377
a(S'p2_tl'
I254
tp378
a(S'w'
I1
tp379
a(S'p2_ll'
I3
tp380
a(S'p2_th'
I0
tp381
a(S'w'
I5
tp382
a(S'p2_vo'
I1
tp383
a(S'w'
I715
tp384
a(S'p1_vo'
I5
tp385
a(S'w'
I5
tp386
a(S'p2_vo'
I2
tp387
a(S'w'
I729
tp388
a(S'p1_vo'
I7
tp389
a(S'w'
I6
tp390
a(S'p2_vo'
I3
tp391
a(S'w'
I727
tp392
a(S'p1_vo'
I6
tp393
a(S'w'
I2202
tp394
a(S'p1_tl'
I201
tp395
a(S'w'
I1
tp396
a(S'p1_ll'
I3
tp397
a(S'w'
I6
tp398
a(S'p1_vo'
I3
tp399
a(S'w'
I6
tp400
a(S'p2_vo'
I10
tp401
a(S'w'
I1
tp402
a(S'p2_tl'
I226
tp403
a(S'p2_ll'
I3
tp404
a(S'w'
I5
tp405
a(S'p2_vo'
I1
tp406
a(S'w'
I715
tp407
a(S'p1_vo'
I5
tp408
a(S'w'
I5
tp409
a(S'p2_vo'
I2
tp410
a(S'w'
I728
tp411
a(S'p1_vo'
I7
tp412
a(S'w'
I7
tp413
a(S'p2_vo'
I3
tp414
a(S'w'
I727
tp415
a(S'p1_vo'
I6
tp416
a(S'w'
I2202
tp417
a(S'p1_tl'
I169
tp418
a(S'p1_ll'
I3
tp419
a(S'w'
I7
tp420
a(S'p1_vo'
I3
tp421
a(S'w'
I6
tp422
a(S'p2_vo'
I10
tp423
a(S'w'
I1
tp424
a(S'p2_tl'
I201
tp425
a(S'p2_ll'
I3
tp426
a(S'w'
I5
tp427
a(S'p2_vo'
I1
tp428
a(S'w'
I714
tp429
a(S'p1_vo'
I5
tp430
a(S'w'
I6
tp431
a(S'p2_vo'
I2
tp432
a(S'w'
I728
tp433
a(S'p1_vo'
I7
tp434
a(S'w'
I7
tp435
a(S'p2_vo'
I3
tp436
a(S'w'
I727
tp437
a(S'p1_vo'
I6
tp438
a(S'w'
I2207
tp439
a(S'p1_tl'
I254
tp440
a(S'p1_ll'
I3
tp441
a(S'w'
I5
tp442
a(S'p1_vo'
I1
tp443
a(S'w'
I7
tp444
a(S'p2_vo'
I10
tp445
a(S'p2_tl'
I169
tp446
a(S'p2_ll'
I3
tp447
a(S'w'
I6
tp448
a(S'p2_vo'
I1
tp449
a(S'w'
I709
tp450
a(S'p1_vo'
I2
tp451
a(S'w'
I6
tp452
a(S'p2_vo'
I2
tp453
a(S'w'
I728
tp454
a(S'p1_vo'
I3
tp455
a(S'w'
I7
tp456
a(S'p2_vo'
I3
tp457
a(S'w'
I2930
tp458
a(S'p1_tl'
I169
tp459
a(S'p1_ll'
I3
tp460
a(S'w'
I5
tp461
a(S'p1_vo'
I1
tp462
a(S'w'
I12
tp463
a(S'p2_vo'
I10
tp464
a(S'p2_tl'
I254
tp465
a(S'p2_ll'
I3
tp466
a(S'w'
I5
tp467
a(S'p2_vo'
I0
tp468
a(S'w'
I710
tp469
a(S'p1_vo'
I2
tp470
a(S'w'
I5
tp471
a(S'p2_vo'
I1
tp472
a(S'w'
I729
tp473
a(S'p1_vo'
I3
tp474
a(S'w'
I2937
tp475
a(S'p1_tl'
I127
tp476
a(S'p1_ll'
I3
tp477
a(S'w'
I5
tp478
a(S'p1_vo'
I1
tp479
a(S'w'
I7
tp480
a(S'p2_vo'
I10
tp481
a(S'p2_tl'
I169
tp482
a(S'w'
I1
tp483
a(S'p2_ll'
I3
tp484
a(S'w'
I4
tp485
a(S'p2_vo'
I0
tp486
a(S'w'
I715
tp487
a(S'p1_vo'
I2
tp488
a(S'w'
I5
tp489
a(S'p2_vo'
I1
tp490
a(S'w'
I729
tp491
a(S'p1_vo'
I3
tp492
a(S'w'
I2936
tp493
a(S'p1_tl'
I113
tp494
a(S'w'
I1
tp495
a(S'p1_ll'
I3
tp496
a(S'w'
I5
tp497
a(S'p1_vo'
I1
tp498
a(S'w'
I7
tp499
a(S'p2_vo'
I10
tp500
a(S'p2_tl'
I127
tp501
a(S'p2_ll'
I3
tp502
a(S'w'
I5
tp503
a(S'p2_vo'
I0
tp504
a(S'w'
I715
tp505
a(S'p1_vo'
I2
tp506
a(S'w'
I4
tp507
a(S'p2_vo'
I1
tp508
a(S'w'
I729
tp509
a(S'p1_vo'
I3
tp510
a(S'w'
I2938
tp511
a(S'p1_tl'
I100
tp512
a(S'p1_ll'
I3
tp513
a(S'w'
I5
tp514
a(S'p1_vo'
I1
tp515
a(S'w'
I7
tp516
a(S'p2_vo'
I10
tp517
a(S'p2_tl'
I113
tp518
a(S'p2_ll'
I3
tp519
a(S'w'
I5
tp520
a(S'p2_vo'
I0
tp521
a(S'w'
I714
tp522
a(S'p1_vo'
I2
tp523
a(S'w'
I5
tp524
a(S'p2_vo'
I1
tp525
a(S'w'
I729
tp526
a(S'p1_vo'
I3
tp527
a(S'w'
I2937
tp528
a(S'p1_tl'
I84
tp529
a(S'w'
I1
tp530
a(S'p1_ll'
I3
tp531
a(S'w'
I5
tp532
a(S'p1_vo'
I1
tp533
a(S'w'
I7
tp534
a(S'p2_vo'
I10
tp535
a(S'p2_tl'
I100
tp536
a(S'w'
I1
tp537
a(S'p2_ll'
I3
tp538
a(S'w'
I5
tp539
a(S'p2_vo'
I0
tp540
a(S'w'
I713
tp541
a(S'p1_vo'
I2
tp542
a(S'w'
I5
tp543
a(S'p2_vo'
I1
tp544
a(S'w'
I729
tp545
a(S'p1_vo'
I3
tp546
a(S'w'
I2933
tp547
a(S'p1_vo'
I0
tp548
a(S'w'
I3
tp549
a(S'p2_vo'
I0
tp550
a(S'w'
I1
tp551
a.