(lp1
(S'clock'
p2
I1662607
tp3
a(S'w'
I998
tp4
a(S'ch_no'
I0
tp5
a(S'ch_tr'
I0
tp6
a(S'ch_p2'
I0
tp7
a(S'ch_p1'
I1
tp8
a(S'w'
I2
tp9
a(S'p1_lh'
I1
tp10
a(S'p1_cv'
I1
tp11
a(S'p1_vo'
I11
tp12
a(S'w'
I1
tp13
a(S'p1_tl'
I171
tp14
a(S'w'
I1
tp15
a(S'p1_ll'
I1
tp16
a(S'p1_th'
I1
tp17
a(S'w'
I10
tp18
a(S'ch_no'
I0
tp19
a(S'ch_tr'
I0
tp20
a(S'ch_p2'
I1
tp21
a(S'ch_p1'
I1
tp22
a(S'w'
I1
tp23
a(S'p2_lh'
I1
tp24
a(S'p2_cv'
I1
tp25
a(S'p2_vo'
I11
tp26
a(S'w'
I1
tp27
a(S'p2_tl'
I252
tp28
a(S'w'
I1
tp29
a(S'p2_ll'
I1
tp30
a(S'p2_th'
I1
tp31
a(S'w'
I10
tp32
a(S'ch_no'
I0
tp33
a(S'ch_tr'
I1
tp34
a(S'ch_p2'
I1
tp35
a(S'ch_p1'
I1
tp36
a(S'w'
I1
tp37
a(S'tr_lr'
I127
tp38
a(S'w'
I1
tp39
a(S'tr_tl'
I128
tp40
a(S'tr_ll'
I1
tp41
a(S'tr_th'
I2
tp42
a(S'w'
I849
tp43
a(S'w'
I16732
tp44
a(S'p1_tl'
I197
tp45
a(S'w'
I1
tp46
a(S'p1_ll'
I1
tp47
a(S'w'
I14
tp48
a(S'p2_tl'
I26
tp49
a(S'w'
I1
tp50
a(S'p2_ll'
I1
tp51
a(S'p2_th'
I2
tp52
a(S'w'
I14
tp53
a(S'tr_tl'
I166
tp54
a(S'tr_ll'
I1
tp55
a(S'w'
I17575
tp56
a(S'p1_tl'
I224
tp57
a(S'w'
I1
tp58
a(S'p1_ll'
I1
tp59
a(S'w'
I15
tp60
a(S'p2_tl'
I58
tp61
a(S'p2_ll'
I1
tp62
a(S'w'
I14
tp63
a(S'tr_tl'
I207
tp64
a(S'w'
I1
tp65
a(S'tr_ll'
I1
tp66
a(S'w'
I17575
tp67
a(S'p1_tl'
I252
tp68
a(S'w'
I1
tp69
a(S'p1_ll'
I1
tp70
a(S'w'
I14
tp71
a(S'p2_tl'
I92
tp72
a(S'w'
I1
tp73
a(S'p2_ll'
I1
tp74
a(S'w'
I14
tp75
a(S'tr_tl'
I250
tp76
a(S'tr_ll'
I1
tp77
a(S'w'
I17578
tp78
a(S'p1_tl'
I171
tp79
a(S'w'
I1
tp80
a(S'p1_ll'
I1
tp81
a(S'w'
I16
tp82
a.