(lp1
(S'clock'
p2
I1789772
tp3
a(S'p1_sn'
I1
tp4
a(S'p2_sn'
I1
tp5
a(S'ch_no'
I1
tp6
a(S'ch_tr'
I1
tp7
a(S'ch_p2'
I1
tp8
a(S'ch_p1'
I1
tp9
a(S'w'
I36
tp10
a(S'p1_tl'
I253
tp11
a(S'p1_ll'
I1
tp12
a(S'w'
I2
tp13
a(S'p1_du'
I2
tp14
a(S'p1_lh'
I1
tp15
a(S'p1_cv'
I1
tp16
a(S'p1_vo'
I10
tp17
a(S'w'
I2
tp18
a(S'p2_tl'
I213
tp19
a(S'p2_ll'
I1
tp20
a(S'w'
I2
tp21
a(S'p2_du'
I1
tp22
a(S'p2_lh'
I1
tp23
a(S'p2_cv'
I1
tp24
a(S'p2_vo'
I13
tp25
a(S'w'
I2
tp26
a(S'tr_tl'
I63
tp27
a(S'tr_ll'
I1
tp28
a(S'tr_th'
I1
tp29
a(S'tr_lh'
I1
tp30
a(S'tr_lr'
I126
tp31
a(S'w'
I1
tp32
a(S'no_np'
I9
tp33
a(S'w'
I1
tp34
a(S'no_ll'
I1
tp35
a(S'w'
I2
tp36
a(S'no_lh'
I1
tp37
a(S'no_cv'
I1
tp38
a(S'no_vo'
I13
tp39
a(S'w'
I696
tp40
a(S'p1_vo'
I15
tp41
a(S'w'
I5
tp42
a(S'no_vo'
I2
tp43
a(S'w'
I729
tp44
a(S'p1_vo'
I13
tp45
a(S'w'
I734
tp46
a(S'p1_vo'
I12
tp47
a(S'w'
I1467
tp48
a(S'p1_vo'
I11
tp49
a(S'w'
I1468
tp50
a(S'p1_vo'
I10
tp51
a(S'w'
I738
tp52
a(S'tr_lh'
I0
tp53
a(S'tr_lr'
I0
tp54
a(S'w'
I1463
tp55
a(S'p1_vo'
I9
tp56
a(S'w'
I1475
tp57
a(S'tr_ll'
I1
tp58
a(S'w'
I1
tp59
a(S'tr_lh'
I1
tp60
a(S'tr_lr'
I126
tp61
a(S'w'
I726
tp62
a(S'p1_vo'
I8
tp63
a(S'w'
I2935
tp64
a(S'p1_vo'
I9
tp65
a(S'w'
I734
tp66
a(S'p1_vo'
I10
tp67
a(S'w'
I734
tp68
a(S'p1_vo'
I11
tp69
a(S'w'
I733
tp70
a(S'p1_vo'
I12
tp71
a(S'w'
I4
tp72
a(S'tr_lh'
I0
tp73
a(S'tr_lr'
I0
tp74
a(S'w'
I1464
tp75
a(S'p1_vo'
I11
tp76
a(S'w'
I734
tp77
a(S'p1_vo'
I10
tp78
a(S'w'
I728
tp79
a(S'p1_vo'
I9
tp80
a(S'w'
I754
tp81
a(S'tr_tl'
I253
tp82
a(S'tr_ll'
I1
tp83
a(S'tr_th'
I0
tp84
a(S'w'
I1
tp85
a(S'tr_lh'
I1
tp86
a(S'tr_lr'
I126
tp87
a(S'w'
I1
tp88
a(S'no_np'
I5
tp89
a(S'no_ll'
I1
tp90
a(S'w'
I2
tp91
a(S'no_vo'
I13
tp92
a(S'w'
I720
tp93
a(S'no_vo'
I2
tp94
a(S'w'
I1463
tp95
a(S'p1_vo'
I8
tp96
a(S'w'
I737
tp97
a(S'tr_lh'
I0
tp98
a(S'tr_lr'
I0
tp99
a(S'w'
I1475
tp100
a(S'tr_tl'
I225
tp101
a(S'tr_ll'
I1
tp102
a(S'tr_lh'
I1
tp103
a(S'tr_lr'
I126
tp104
a(S'w'
I1
tp105
a(S'no_np'
I7
tp106
a(S'w'
I1
tp107
a(S'no_ll'
I1
tp108
a(S'w'
I2
tp109
a(S'no_vo'
I13
tp110
a(S'w'
I719
tp111
a(S'p1_vo'
I9
tp112
a(S'w'
I6
tp113
a(S'no_vo'
I2
tp114
a(S'w'
I728
tp115
a(S'p1_vo'
I10
tp116
a(S'w'
I733
tp117
a(S'p1_vo'
I11
tp118
a(S'w'
I734
tp119
a(S'p1_vo'
I12
tp120
a(S'w'
I2
tp121
a(S'p2_du'
I0
tp122
a(S'p2_vo'
I2
tp123
a(S'w'
I1
tp124
a(S'tr_lh'
I0
tp125
a(S'tr_lr'
I0
tp126
a(S'w'
I729
tp127
a(S'p1_du'
I0
tp128
a(S'p1_vo'
I2
tp129
a(S'w'
I750
tp130
a(S'p2_tl'
I169
tp131
a(S'p2_ll'
I1
tp132
a(S'w'
I2
tp133
a(S'p2_du'
I1
tp134
a(S'p2_vo'
I13
tp135
a(S'w'
I2
tp136
a(S'tr_tl'
I213
tp137
a(S'tr_ll'
I1
tp138
a(S'tr_lh'
I1
tp139
a(S'tr_lr'
I126
tp140
a(S'w'
I1
tp141
a(S'no_np'
I0
tp142
a(S'no_ll'
I1
tp143
a(S'w'
I3
tp144
a(S'no_vo'
I13
tp145
a(S'w'
I716
tp146
a(S'p1_tl'
I213
tp147
a(S'p1_ll'
I1
tp148
a(S'w'
I3
tp149
a(S'p1_du'
I2
tp150
a(S'p1_vo'
I10
tp151
a(S'w'
I5
tp152
a(S'no_vo'
I2
tp153
a(S'w'
I721
tp154
a(S'p1_vo'
I15
tp155
a(S'w'
I734
tp156
a(S'p1_vo'
I13
tp157
a(S'w'
I734
tp158
a(S'p1_vo'
I12
tp159
a(S'w'
I4
tp160
a(S'tr_lh'
I0
tp161
a(S'tr_lr'
I0
tp162
a(S'w'
I1467
tp163
a(S'p1_vo'
I11
tp164
a(S'w'
I4
tp165
a(S'tr_tl'
I253
tp166
a(S'tr_ll'
I1
tp167
a(S'w'
I1
tp168
a(S'tr_lh'
I1
tp169
a(S'tr_lr'
I126
tp170
a(S'w'
I1459
tp171
a(S'p1_vo'
I10
tp172
a(S'w'
I2
tp173
a(S'p2_du'
I0
tp174
a(S'p2_vo'
I2
tp175
a(S'w'
I730
tp176
a(S'p1_du'
I0
tp177
a(S'p1_vo'
I2
tp178
a(S'w'
I737
tp179
a(S'tr_lh'
I0
tp180
a(S'tr_lr'
I0
tp181
a(S'w'
I2212
tp182
a(S'p2_tl'
I189
tp183
a(S'p2_ll'
I1
tp184
a(S'w'
I2
tp185
a(S'p2_du'
I1
tp186
a(S'p2_vo'
I13
tp187
a(S'w'
I2
tp188
a(S'tr_tl'
I28
tp189
a(S'tr_ll'
I1
tp190
a(S'tr_th'
I1
tp191
a(S'tr_lh'
I1
tp192
a(S'tr_lr'
I126
tp193
a(S'w'
I1
tp194
a(S'no_np'
I11
tp195
a(S'w'
I1
tp196
a(S'no_ll'
I1
tp197
a(S'w'
I2
tp198
a(S'no_vo'
I13
tp199
a(S'w'
I716
tp200
a(S'p1_tl'
I225
tp201
a(S'p1_ll'
I1
tp202
a(S'w'
I3
tp203
a(S'p1_du'
I2
tp204
a(S'p1_vo'
I10
tp205
a(S'w'
I5
tp206
a(S'no_vo'
I2
tp207
a(S'w'
I724
tp208
a(S'p1_vo'
I15
tp209
a(S'w'
I733
tp210
a(S'p1_vo'
I13
tp211
a(S'w'
I734
tp212
a(S'p1_vo'
I12
tp213
a(S'w'
I1468
tp214
a(S'p1_vo'
I11
tp215
a(S'w'
I1467
tp216
a(S'p1_vo'
I10
tp217
a(S'w'
I2
tp218
a(S'p2_du'
I0
tp219
a(S'p2_vo'
I2
tp220
a(S'w'
I1
tp221
a(S'tr_lh'
I0
tp222
a(S'tr_lr'
I0
tp223
a(S'w'
I729
tp224
a(S'p1_du'
I0
tp225
a(S'p1_vo'
I2
tp226
a(S'w'
I2216
tp227
a(S'p2_tl'
I213
tp228
a(S'p2_ll'
I1
tp229
a(S'w'
I2
tp230
a(S'p2_du'
I1
tp231
a(S'p2_vo'
I13
tp232
a(S'w'
I2
tp233
a(S'tr_ll'
I1
tp234
a(S'tr_lh'
I1
tp235
a(S'tr_lr'
I126
tp236
a(S'w'
I1
tp237
a(S'no_np'
I9
tp238
a(S'w'
I1
tp239
a(S'no_ll'
I1
tp240
a(S'w'
I2
tp241
a(S'no_vo'
I13
tp242
a(S'w'
I715
tp243
a(S'p1_tl'
I253
tp244
a(S'p1_ll'
I1
tp245
a(S'w'
I3
tp246
a(S'p1_du'
I2
tp247
a(S'p1_vo'
I10
tp248
a(S'w'
I5
tp249
a(S'no_vo'
I2
tp250
a(S'w'
I724
tp251
a(S'p1_vo'
I15
tp252
a(S'w'
I734
tp253
a(S'p1_vo'
I13
tp254
a(S'w'
I734
tp255
a(S'p1_vo'
I12
tp256
a(S'w'
I1470
tp257
a(S'p1_vo'
I11
tp258
a(S'w'
I5
tp259
a(S'no_ll'
I1
tp260
a(S'w'
I2
tp261
a(S'no_vo'
I13
tp262
a(S'w'
I729
tp263
a(S'no_vo'
I2
tp264
a(S'w'
I729
tp265
a(S'p1_vo'
I10
tp266
a(S'w'
I2
tp267
a(S'p2_du'
I0
tp268
a(S'p2_vo'
I2
tp269
a(S'w'
I1
tp270
a(S'tr_lh'
I0
tp271
a(S'tr_lr'
I0
tp272
a(S'w'
I729
tp273
a(S'p1_du'
I0
tp274
a(S'p1_vo'
I2
tp275
a(S'w'
I2951
tp276
a(S'p2_tl'
I225
tp277
a(S'p2_ll'
I1
tp278
a(S'w'
I2
tp279
a(S'p2_du'
I1
tp280
a(S'p2_vo'
I13
tp281
a(S'w'
I2
tp282
a(S'tr_tl'
I225
tp283
a(S'tr_ll'
I1
tp284
a(S'tr_th'
I0
tp285
a(S'tr_lh'
I1
tp286
a(S'tr_lr'
I126
tp287
a(S'w'
I1
tp288
a(S'no_np'
I7
tp289
a(S'no_ll'
I1
tp290
a(S'w'
I3
tp291
a(S'no_vo'
I13
tp292
a(S'w'
I714
tp293
a(S'p1_tl'
I28
tp294
a(S'p1_ll'
I1
tp295
a(S'p1_th'
I1
tp296
a(S'w'
I3
tp297
a(S'p1_du'
I2
tp298
a(S'p1_vo'
I10
tp299
a(S'w'
I5
tp300
a(S'no_vo'
I2
tp301
a(S'w'
I723
tp302
a(S'p1_vo'
I15
tp303
a(S'w'
I734
tp304
a(S'p1_vo'
I13
tp305
a(S'w'
I734
tp306
a(S'p1_vo'
I12
tp307
a(S'w'
I4
tp308
a(S'tr_lh'
I0
tp309
a(S'tr_lr'
I0
tp310
a(S'w'
I1467
tp311
a(S'p1_vo'
I11
tp312
a(S'w'
I4
tp313
a(S'tr_tl'
I213
tp314
a(S'tr_ll'
I1
tp315
a(S'w'
I1
tp316
a(S'tr_lh'
I1
tp317
a(S'tr_lr'
I126
tp318
a(S'w'
I1459
tp319
a(S'p1_vo'
I10
tp320
a(S'w'
I2
tp321
a(S'p2_du'
I0
tp322
a(S'p2_vo'
I2
tp323
a(S'w'
I730
tp324
a(S'p1_du'
I0
tp325
a(S'p1_vo'
I2
tp326
a(S'w'
I737
tp327
a(S'tr_lh'
I0
tp328
a(S'tr_lr'
I0
tp329
a(S'w'
I1476
tp330
a(S'p2_tl'
I142
tp331
a(S'p2_ll'
I1
tp332
a(S'w'
I2
tp333
a(S'p2_du'
I1
tp334
a(S'p2_vo'
I13
tp335
a(S'w'
I2
tp336
a(S'tr_tl'
I189
tp337
a(S'tr_ll'
I1
tp338
a(S'tr_lh'
I1
tp339
a(S'tr_lr'
I126
tp340
a(S'w'
I1
tp341
a(S'no_np'
I11
tp342
a(S'w'
I1
tp343
a(S'no_ll'
I1
tp344
a(S'w'
I2
tp345
a(S'no_vo'
I13
tp346
a(S'w'
I718
tp347
a(S'p1_tl'
I124
tp348
a(S'p1_ll'
I1
tp349
a(S'w'
I3
tp350
a(S'p1_du'
I2
tp351
a(S'p1_vo'
I10
tp352
a(S'w'
I5
tp353
a(S'no_vo'
I2
tp354
a(S'w'
I724
tp355
a(S'p1_vo'
I15
tp356
a(S'w'
I734
tp357
a(S'p1_vo'
I13
tp358
a(S'w'
I734
tp359
a(S'p1_vo'
I12
tp360
a(S'w'
I4
tp361
a(S'tr_lh'
I0
tp362
a(S'tr_lr'
I0
tp363
a(S'w'
I1466
tp364
a(S'p1_vo'
I11
tp365
a(S'w'
I4
tp366
a(S'tr_tl'
I213
tp367
a(S'tr_ll'
I1
tp368
a(S'w'
I1
tp369
a(S'tr_lh'
I1
tp370
a(S'tr_lr'
I126
tp371
a(S'w'
I1460
tp372
a(S'p1_vo'
I10
tp373
a(S'w'
I2
tp374
a(S'p2_du'
I0
tp375
a(S'p2_vo'
I2
tp376
a(S'w'
I730
tp377
a(S'p1_du'
I0
tp378
a(S'p1_vo'
I2
tp379
a(S'w'
I736
tp380
a(S'tr_lh'
I0
tp381
a(S'tr_lr'
I0
tp382
a(S'w'
I2217
tp383
a(S'p2_tl'
I126
tp384
a(S'p2_ll'
I1
tp385
a(S'w'
I2
tp386
a(S'p2_du'
I1
tp387
a(S'p2_vo'
I13
tp388
a(S'w'
I2
tp389
a(S'tr_tl'
I253
tp390
a(S'tr_ll'
I1
tp391
a(S'tr_lh'
I1
tp392
a(S'tr_lr'
I126
tp393
a(S'w'
I1
tp394
a(S'no_np'
I5
tp395
a(S'no_ll'
I1
tp396
a(S'w'
I2
tp397
a(S'no_vo'
I13
tp398
a(S'w'
I714
tp399
a(S'p1_tl'
I82
tp400
a(S'p1_ll'
I1
tp401
a(S'w'
I2
tp402
a(S'p1_du'
I2
tp403
a(S'p1_vo'
I10
tp404
a(S'w'
I7
tp405
a(S'no_vo'
I9
tp406
a(S'w'
I721
tp407
a(S'p1_vo'
I15
tp408
a(S'w'
I7
tp409
a(S'no_vo'
I5
tp410
a(S'w'
I727
tp411
a(S'p1_vo'
I13
tp412
a(S'w'
I7
tp413
a(S'no_vo'
I2
tp414
a(S'w'
I727
tp415
a(S'p1_vo'
I12
tp416
a(S'w'
I1467
tp417
a(S'p1_vo'
I11
tp418
a(S'w'
I1468
tp419
a(S'p1_vo'
I10
tp420
a(S'w'
I2201
tp421
a(S'p1_vo'
I9
tp422
a(S'w'
I2202
tp423
a(S'p1_vo'
I8
tp424
a(S'w'
I2935
tp425
a(S'p1_vo'
I9
tp426
a(S'w'
I734
tp427
a(S'p1_vo'
I10
tp428
a(S'w'
I734
tp429
a(S'p1_vo'
I11
tp430
a(S'w'
I733
tp431
a(S'p1_vo'
I12
tp432
a(S'w'
I1468
tp433
a(S'p1_vo'
I11
tp434
a(S'w'
I728
tp435
a(S'p1_vo'
I10
tp436
a(S'w'
I739
tp437
a(S'p1_vo'
I9
tp438
a(S'w'
I2936
tp439
a(S'p1_vo'
I8
tp440
a(S'w'
I2935
tp441
a(S'p1_vo'
I9
tp442
a(S'w'
I734
tp443
a(S'p1_vo'
I10
tp444
a(S'w'
I733
tp445
a(S'p1_vo'
I11
tp446
a(S'w'
I734
tp447
a(S'p1_vo'
I12
tp448
a(S'w'
I1468
tp449
a(S'p1_vo'
I11
tp450
a(S'w'
I734
tp451
a(S'p1_vo'
I10
tp452
a(S'w'
I733
tp453
a(S'p1_vo'
I9
tp454
a(S'w'
I2936
tp455
a(S'p1_vo'
I8
tp456
a(S'w'
I2935
tp457
a(S'p1_vo'
I9
tp458
a(S'w'
I727
tp459
a(S'p1_vo'
I10
tp460
a(S'w'
I754
tp461
a(S'p1_vo'
I11
tp462
a(S'w'
I2
tp463
a(S'p2_du'
I0
tp464
a(S'p2_vo'
I0
tp465
a(S'w'
I1
tp466
a(S'tr_lh'
I0
tp467
a(S'tr_lr'
I0
tp468
a(S'w'
I1
tp469
a(S'no_vo'
I0
tp470
a(S'w'
I717
tp471
a(S'p1_du'
I0
tp472
a(S'p1_vo'
I0
tp473
a(S'w'
I2
tp474
a.