(lp1
(S'clock'
p2
I1789772
tp3
a(S'p1_du'
I1
tp4
a(S'p1_lh'
I1
tp5
a(S'p1_vo'
I6
tp6
a(S'p1_sp'
I7
tp7
a(S'p1_sn'
I1
tp8
a(S'p1_ss'
I7
tp9
a(S'p1_ll'
I28
tp10
a(S'p2_lh'
I1
tp11
a(S'p2_vo'
I12
tp12
a(S'p2_sp'
I7
tp13
a(S'p2_sn'
I1
tp14
a(S'p2_ss'
I7
tp15
a(S'p2_tl'
I87
tp16
a(S'p2_ll'
I28
tp17
a(S'p2_th'
I3
tp18
a(S'tr_lh'
I1
tp19
a(S'tr_lr'
I127
tp20
a(S'tr_tl'
I161
tp21
a(S'tr_ll'
I0
tp22
a(S'tr_th'
I3
tp23
a(S'no_cv'
I1
tp24
a(S'no_ll'
I0
tp25
a(S'ch_no'
I1
tp26
a(S'ch_tr'
I1
tp27
a(S'ch_p2'
I1
tp28
a(S'ch_p1'
I1
tp29
a(S'fc_mo'
I1
tp30
a(S'p1_cv'
I1
tp31
a(S'p1_vo'
I15
tp32
a(S'w'
I4
tp33
a(S'p2_cv'
I1
tp34
a(S'p2_vo'
I15
tp35
a(S'w'
I6
tp36
a(S'tr_tl'
I0
tp37
a(S'tr_ll'
I0
tp38
a(S'tr_th'
I0
tp39
a(S'w'
I1
tp40
a(S'p2_tl'
I0
tp41
a(S'p2_ll'
I0
tp42
a(S'p2_th'
I0
tp43
a(S'w'
I1
tp44
a(S'p1_ll'
I0
tp45
a(S'w'
I2
tp46
a(S'tr_tl'
I87
tp47
a(S'tr_ll'
I0
tp48
a(S'tr_th'
I3
tp49
a(S'w'
I709
tp50
a(S'fc_mo'
I1
tp51
a(S'w'
I734
tp52
a(S'fc_mo'
I1
tp53
a(S'w'
I734
tp54
a(S'fc_mo'
I1
tp55
a(S'w'
I733
tp56
a(S'fc_mo'
I1
tp57
a(S'w'
I734
tp58
a(S'fc_mo'
I1
tp59
a(S'w'
I734
tp60
a(S'fc_mo'
I1
tp61
a(S'w'
I734
tp62
a(S'fc_mo'
I1
tp63
a(S'w'
I733
tp64
a(S'fc_mo'
I1
tp65
a(S'w'
I734
tp66
a(S'fc_mo'
I1
tp67
a(S'w'
I734
tp68
a(S'fc_mo'
I1
tp69
a(S'w'
I6
tp70
a(S'p1_tl'
I166
tp71
a(S'p1_ll'
I0
tp72
a(S'p1_th'
I2
tp73
a(S'w'
I728
tp74
a(S'fc_mo'
I1
tp75
a(S'w'
I734
tp76
a(S'fc_mo'
I1
tp77
a(S'w'
I734
tp78
a(S'fc_mo'
I1
tp79
a(S'w'
I733
tp80
a(S'fc_mo'
I1
tp81
a(S'w'
I734
tp82
a(S'fc_mo'
I1
tp83
a(S'w'
I734
tp84
a(S'fc_mo'
I1
tp85
a(S'w'
I734
tp86
a(S'fc_mo'
I1
tp87
a(S'w'
I734
tp88
a(S'fc_mo'
I1
tp89
a(S'w'
I733
tp90
a(S'fc_mo'
I1
tp91
a(S'w'
I734
tp92
a(S'fc_mo'
I1
tp93
a(S'w'
I6
tp94
a(S'p1_tl'
I26
tp95
a(S'w'
I2
tp96
a(S'tr_tl'
I0
tp97
a(S'tr_ll'
I0
tp98
a(S'tr_th'
I0
tp99
a(S'w'
I726
tp100
a(S'fc_mo'
I1
tp101
a(S'w'
I734
tp102
a(S'fc_mo'
I1
tp103
a(S'w'
I734
tp104
a(S'fc_mo'
I1
tp105
a(S'w'
I733
tp106
a(S'fc_mo'
I1
tp107
a(S'w'
I734
tp108
a(S'fc_mo'
I1
tp109
a(S'w'
I734
tp110
a(S'fc_mo'
I1
tp111
a(S'w'
I734
tp112
a(S'fc_mo'
I1
tp113
a(S'w'
I733
tp114
a(S'fc_mo'
I1
tp115
a(S'w'
I734
tp116
a(S'fc_mo'
I1
tp117
a(S'w'
I734
tp118
a(S'fc_mo'
I1
tp119
a(S'w'
I6
tp120
a(S'p1_tl'
I171
tp121
a(S'p1_ll'
I0
tp122
a(S'p1_th'
I1
tp123
a(S'w'
I2
tp124
a(S'p2_tl'
I26
tp125
a(S'p2_ll'
I0
tp126
a(S'p2_th'
I2
tp127
a(S'w'
I2
tp128
a(S'tr_tl'
I87
tp129
a(S'tr_ll'
I0
tp130
a(S'tr_th'
I3
tp131
a(S'w'
I724
tp132
a(S'fc_mo'
I1
tp133
a(S'w'
I734
tp134
a(S'fc_mo'
I1
tp135
a(S'w'
I734
tp136
a(S'fc_mo'
I1
tp137
a(S'w'
I733
tp138
a(S'fc_mo'
I1
tp139
a(S'w'
I734
tp140
a(S'fc_mo'
I1
tp141
a(S'w'
I734
tp142
a(S'fc_mo'
I1
tp143
a(S'w'
I734
tp144
a(S'fc_mo'
I1
tp145
a(S'w'
I734
tp146
a(S'fc_mo'
I1
tp147
a(S'w'
I733
tp148
a(S'fc_mo'
I1
tp149
a(S'w'
I734
tp150
a(S'fc_mo'
I1
tp151
a(S'w'
I6
tp152
a(S'p1_tl'
I82
tp153
a(S'w'
I2
tp154
a(S'p2_tl'
I171
tp155
a(S'p2_ll'
I0
tp156
a(S'p2_th'
I1
tp157
a(S'w'
I2
tp158
a(S'tr_tl'
I0
tp159
a(S'tr_ll'
I0
tp160
a(S'tr_th'
I0
tp161
a(S'w'
I724
tp162
a(S'fc_mo'
I1
tp163
a(S'w'
I734
tp164
a(S'fc_mo'
I1
tp165
a(S'w'
I733
tp166
a(S'fc_mo'
I1
tp167
a(S'w'
I734
tp168
a(S'fc_mo'
I1
tp169
a(S'w'
I734
tp170
a(S'fc_mo'
I1
tp171
a(S'w'
I734
tp172
a(S'fc_mo'
I1
tp173
a(S'w'
I734
tp174
a(S'fc_mo'
I1
tp175
a(S'w'
I734
tp176
a(S'fc_mo'
I1
tp177
a(S'w'
I733
tp178
a(S'fc_mo'
I1
tp179
a(S'w'
I734
tp180
a(S'fc_mo'
I1
tp181
a(S'w'
I6
tp182
a(S'p1_tl'
I12
tp183
a(S'w'
I2
tp184
a(S'p2_tl'
I82
tp185
a(S'w'
I1
tp186
a(S'tr_tl'
I87
tp187
a(S'w'
I1
tp188
a(S'tr_ll'
I0
tp189
a(S'tr_th'
I3
tp190
a(S'w'
I724
tp191
a(S'fc_mo'
I1
tp192
a(S'w'
I734
tp193
a(S'fc_mo'
I1
tp194
a(S'w'
I734
tp195
a(S'fc_mo'
I1
tp196
a(S'w'
I733
tp197
a(S'fc_mo'
I1
tp198
a(S'w'
I734
tp199
a(S'fc_mo'
I1
tp200
a(S'w'
I734
tp201
a(S'fc_mo'
I1
tp202
a(S'w'
I734
tp203
a(S'fc_mo'
I1
tp204
a(S'w'
I733
tp205
a(S'fc_mo'
I1
tp206
a(S'w'
I734
tp207
a(S'fc_mo'
I1
tp208
a(S'w'
I734
tp209
a(S'fc_mo'
I1
tp210
a(S'w'
I6
tp211
a(S'p1_tl'
I212
tp212
a(S'w'
I1
tp213
a(S'p1_ll'
I0
tp214
a(S'p1_th'
I0
tp215
a(S'w'
I1
tp216
a(S'p2_tl'
I12
tp217
a(S'w'
I2
tp218
a(S'tr_tl'
I166
tp219
a(S'tr_ll'
I0
tp220
a(S'tr_th'
I2
tp221
a(S'w'
I724
tp222
a(S'fc_mo'
I1
tp223
a(S'w'
I734
tp224
a(S'fc_mo'
I1
tp225
a(S'w'
I734
tp226
a(S'fc_mo'
I1
tp227
a(S'w'
I733
tp228
a(S'fc_mo'
I1
tp229
a(S'w'
I734
tp230
a(S'fc_mo'
I1
tp231
a(S'w'
I734
tp232
a(S'fc_mo'
I1
tp233
a(S'w'
I734
tp234
a(S'fc_mo'
I1
tp235
a(S'w'
I734
tp236
a(S'fc_mo'
I1
tp237
a(S'w'
I733
tp238
a(S'fc_mo'
I1
tp239
a(S'w'
I734
tp240
a(S'fc_mo'
I1
tp241
a(S'w'
I6
tp242
a(S'p1_tl'
I168
tp243
a(S'w'
I2
tp244
a(S'p2_tl'
I212
tp245
a(S'p2_ll'
I0
tp246
a(S'p2_th'
I0
tp247
a(S'w'
I726
tp248
a(S'fc_mo'
I1
tp249
a(S'w'
I734
tp250
a(S'fc_mo'
I1
tp251
a(S'w'
I734
tp252
a(S'fc_mo'
I1
tp253
a(S'w'
I733
tp254
a(S'fc_mo'
I1
tp255
a(S'w'
I734
tp256
a(S'fc_mo'
I1
tp257
a(S'w'
I734
tp258
a(S'fc_mo'
I1
tp259
a(S'w'
I734
tp260
a(S'fc_mo'
I1
tp261
a(S'w'
I734
tp262
a(S'fc_mo'
I1
tp263
a(S'w'
I733
tp264
a(S'fc_mo'
I1
tp265
a(S'w'
I734
tp266
a(S'fc_mo'
I1
tp267
a(S'w'
I6
tp268
a(S'p1_tl'
I133
tp269
a(S'w'
I2
tp270
a(S'p2_tl'
I168
tp271
a(S'w'
I1
tp272
a(S'tr_tl'
I128
tp273
a(S'w'
I725
tp274
a(S'fc_mo'
I1
tp275
a(S'w'
I734
tp276
a(S'fc_mo'
I1
tp277
a(S'w'
I734
tp278
a(S'fc_mo'
I1
tp279
a(S'w'
I733
tp280
a(S'fc_mo'
I1
tp281
a(S'w'
I734
tp282
a(S'fc_mo'
I1
tp283
a(S'w'
I734
tp284
a(S'fc_mo'
I1
tp285
a(S'w'
I734
tp286
a(S'fc_mo'
I1
tp287
a(S'w'
I734
tp288
a(S'fc_mo'
I1
tp289
a(S'w'
I5
tp290
a(S'tr_tl'
I0
tp291
a(S'w'
I1
tp292
a(S'tr_ll'
I0
tp293
a(S'tr_th'
I0
tp294
a(S'p2_tl'
I0
tp295
a(S'w'
I1
tp296
a(S'p2_ll'
I0
tp297
a(S'p1_tl'
I0
tp298
a(S'p1_ll'
I0
tp299
a(S'w'
I726
tp300
a(S'fc_mo'
I1
tp301
a(S'w'
I734
tp302
a(S'fc_mo'
I1
tp303
a(S'w'
I6
tp304
a(S'p1_tl'
I133
tp305
a(S'p1_ll'
I0
tp306
a(S'w'
I2
tp307
a(S'p2_tl'
I168
tp308
a(S'p2_ll'
I0
tp309
a(S'w'
I2
tp310
a(S'tr_tl'
I128
tp311
a(S'tr_ll'
I0
tp312
a(S'tr_th'
I2
tp313
a(S'w'
I724
tp314
a(S'fc_mo'
I1
tp315
a(S'w'
I734
tp316
a(S'fc_mo'
I1
tp317
a(S'w'
I734
tp318
a(S'fc_mo'
I1
tp319
a(S'w'
I733
tp320
a(S'fc_mo'
I1
tp321
a(S'w'
I734
tp322
a(S'fc_mo'
I1
tp323
a(S'w'
I734
tp324
a(S'fc_mo'
I1
tp325
a(S'w'
I734
tp326
a(S'fc_mo'
I1
tp327
a(S'w'
I734
tp328
a(S'fc_mo'
I1
tp329
a(S'w'
I733
tp330
a(S'fc_mo'
I1
tp331
a(S'w'
I734
tp332
a(S'fc_mo'
I1
tp333
a(S'w'
I6
tp334
a(S'tr_tl'
I0
tp335
a(S'tr_ll'
I0
tp336
a(S'tr_th'
I0
tp337
a(S'w'
I1
tp338
a(S'p2_tl'
I0
tp339
a(S'p2_ll'
I0
tp340
a(S'w'
I1
tp341
a(S'p1_tl'
I0
tp342
a(S'p1_ll'
I0
tp343
a(S'w'
I726
tp344
a(S'fc_mo'
I1
tp345
a(S'w'
I734
tp346
a(S'fc_mo'
I1
tp347
a(S'w'
I734
tp348
a(S'fc_mo'
I1
tp349
a(S'w'
I733
tp350
a(S'fc_mo'
I1
tp351
a(S'w'
I734
tp352
a(S'fc_mo'
I1
tp353
a(S'w'
I734
tp354
a(S'fc_mo'
I1
tp355
a(S'w'
I734
tp356
a(S'fc_mo'
I1
tp357
a(S'w'
I734
tp358
a(S'fc_mo'
I1
tp359
a(S'w'
I733
tp360
a(S'fc_mo'
I1
tp361
a(S'w'
I734
tp362
a(S'fc_mo'
I1
tp363
a(S'w'
I6
tp364
a(S'p1_tl'
I133
tp365
a(S'p1_ll'
I0
tp366
a(S'w'
I2
tp367
a(S'p2_tl'
I168
tp368
a(S'p2_ll'
I0
tp369
a(S'w'
I2
tp370
a(S'tr_tl'
I128
tp371
a(S'tr_ll'
I0
tp372
a(S'tr_th'
I2
tp373
a(S'w'
I724
tp374
a(S'fc_mo'
I1
tp375
a(S'w'
I734
tp376
a(S'fc_mo'
I1
tp377
a(S'w'
I734
tp378
a(S'fc_mo'
I1
tp379
a(S'w'
I733
tp380
a(S'fc_mo'
I1
tp381
a(S'w'
I734
tp382
a(S'fc_mo'
I1
tp383
a(S'w'
I734
tp384
a(S'fc_mo'
I1
tp385
a(S'w'
I734
tp386
a(S'fc_mo'
I1
tp387
a(S'w'
I734
tp388
a(S'fc_mo'
I1
tp389
a(S'w'
I733
tp390
a(S'fc_mo'
I1
tp391
a(S'w'
I734
tp392
a(S'fc_mo'
I1
tp393
a(S'w'
I6
tp394
a(S'tr_tl'
I0
tp395
a(S'w'
I1
tp396
a(S'tr_ll'
I0
tp397
a(S'tr_th'
I0
tp398
a(S'p2_tl'
I0
tp399
a(S'p2_ll'
I0
tp400
a(S'w'
I1
tp401
a(S'p1_tl'
I0
tp402
a(S'p1_ll'
I0
tp403
a(S'w'
I726
tp404
a(S'fc_mo'
I1
tp405
a(S'w'
I734
tp406
a(S'fc_mo'
I1
tp407
a(S'w'
I734
tp408
a(S'fc_mo'
I1
tp409
a(S'w'
I733
tp410
a(S'fc_mo'
I1
tp411
a(S'w'
I734
tp412
a(S'fc_mo'
I1
tp413
a(S'w'
I734
tp414
a(S'fc_mo'
I1
tp415
a(S'w'
I734
tp416
a(S'fc_mo'
I1
tp417
a(S'w'
I734
tp418
a(S'fc_mo'
I1
tp419
a(S'w'
I733
tp420
a(S'fc_mo'
I1
tp421
a(S'w'
I734
tp422
a(S'fc_mo'
I1
tp423
a(S'w'
I6
tp424
a(S'p1_tl'
I133
tp425
a(S'p1_ll'
I0
tp426
a(S'w'
I2
tp427
a(S'p2_tl'
I168
tp428
a(S'p2_ll'
I0
tp429
a(S'w'
I2
tp430
a(S'tr_tl'
I128
tp431
a(S'tr_ll'
I0
tp432
a(S'tr_th'
I2
tp433
a(S'w'
I724
tp434
a(S'fc_mo'
I1
tp435
a(S'w'
I734
tp436
a(S'fc_mo'
I1
tp437
a(S'w'
I734
tp438
a(S'fc_mo'
I1
tp439
a(S'w'
I733
tp440
a(S'fc_mo'
I1
tp441
a(S'w'
I734
tp442
a(S'fc_mo'
I1
tp443
a(S'w'
I734
tp444
a(S'fc_mo'
I1
tp445
a(S'w'
I734
tp446
a(S'fc_mo'
I1
tp447
a(S'w'
I734
tp448
a(S'fc_mo'
I1
tp449
a(S'w'
I733
tp450
a(S'fc_mo'
I1
tp451
a(S'w'
I734
tp452
a(S'fc_mo'
I1
tp453
a(S'w'
I734
tp454
a(S'fc_mo'
I1
tp455
a(S'w'
I734
tp456
a(S'fc_mo'
I1
tp457
a(S'w'
I734
tp458
a(S'fc_mo'
I1
tp459
a(S'w'
I733
tp460
a(S'fc_mo'
I1
tp461
a(S'w'
I734
tp462
a(S'fc_mo'
I1
tp463
a(S'w'
I734
tp464
a(S'fc_mo'
I1
tp465
a(S'w'
I734
tp466
a(S'fc_mo'
I1
tp467
a(S'w'
I734
tp468
a(S'fc_mo'
I1
tp469
a(S'w'
I733
tp470
a(S'fc_mo'
I1
tp471
a(S'w'
I734
tp472
a(S'fc_mo'
I1
tp473
a(S'w'
I734
tp474
a(S'fc_mo'
I1
tp475
a(S'w'
I734
tp476
a(S'fc_mo'
I1
tp477
a(S'w'
I734
tp478
a(S'fc_mo'
I1
tp479
a(S'w'
I733
tp480
a(S'fc_mo'
I1
tp481
a(S'w'
I734
tp482
a(S'fc_mo'
I1
tp483
a(S'w'
I734
tp484
a(S'fc_mo'
I1
tp485
a(S'w'
I734
tp486
a(S'fc_mo'
I1
tp487
a(S'w'
I734
tp488
a(S'fc_mo'
I1
tp489
a(S'w'
I733
tp490
a(S'fc_mo'
I1
tp491
a(S'w'
I734
tp492
a(S'fc_mo'
I1
tp493
a(S'w'
I734
tp494
a(S'fc_mo'
I1
tp495
a(S'w'
I734
tp496
a(S'fc_mo'
I1
tp497
a(S'w'
I734
tp498
a(S'fc_mo'
I1
tp499
a(S'w'
I733
tp500
a(S'fc_mo'
I1
tp501
a(S'w'
I734
tp502
a(S'fc_mo'
I1
tp503
a(S'w'
I734
tp504
a(S'fc_mo'
I1
tp505
a(S'w'
I734
tp506
a(S'fc_mo'
I1
tp507
a(S'w'
I734
tp508
a(S'fc_mo'
I1
tp509
a(S'w'
I733
tp510
a(S'fc_mo'
I1
tp511
a(S'w'
I734
tp512
a(S'fc_mo'
I1
tp513
a(S'w'
I734
tp514
a(S'fc_mo'
I1
tp515
a(S'w'
I734
tp516
a(S'fc_mo'
I1
tp517
a(S'w'
I734
tp518
a(S'fc_mo'
I1
tp519
a(S'w'
I733
tp520
a(S'fc_mo'
I1
tp521
a(S'w'
I734
tp522
a(S'fc_mo'
I1
tp523
a(S'w'
I734
tp524
a(S'fc_mo'
I1
tp525
a(S'w'
I734
tp526
a(S'fc_mo'
I1
tp527
a(S'w'
I734
tp528
a(S'fc_mo'
I1
tp529
a(S'w'
I6
tp530
a(S'tr_tl'
I0
tp531
a(S'tr_ll'
I0
tp532
a(S'tr_th'
I0
tp533
a(S'p2_tl'
I0
tp534
a(S'w'
I1
tp535
a(S'p2_ll'
I0
tp536
a(S'p1_tl'
I0
tp537
a(S'w'
I1
tp538
a(S'p1_ll'
I0
tp539
a(S'w'
I1
tp540
a.