(lp1
(S'clock'
p2
I1789772
tp3
a(S'ch_no'
I1
tp4
a(S'ch_tr'
I1
tp5
a(S'ch_p2'
I1
tp6
a(S'ch_p1'
I1
tp7
a(S'w'
I1
tp8
a(S'fc_mo'
I1
tp9
a(S'w'
I1
tp10
a(S'p1_sp'
I7
tp11
a(S'p1_sn'
I1
tp12
a(S'p1_ss'
I7
tp13
a(S'p2_sp'
I7
tp14
a(S'p2_sn'
I1
tp15
a(S'p2_ss'
I7
tp16
a(S'w'
I3
tp17
a(S'p2_tl'
I28
tp18
a(S'p2_ll'
I1
tp19
a(S'p2_th'
I1
tp20
a(S'w'
I1
tp21
a(S'p2_du'
I2
tp22
a(S'p2_vo'
I9
tp23
a(S'w'
I2
tp24
a(S'tr_lr'
I60
tp25
a(S'tr_tl'
I28
tp26
a(S'w'
I1
tp27
a(S'tr_ll'
I1
tp28
a(S'tr_th'
I1
tp29
a(S'w'
I14670
tp30
a(S'p2_tl'
I141
tp31
a(S'w'
I1
tp32
a(S'p2_ll'
I1
tp33
a(S'p2_th'
I0
tp34
a(S'w'
I3
tp35
a(S'tr_tl'
I124
tp36
a(S'tr_ll'
I1
tp37
a(S'w'
I14672
tp38
a(S'p2_tl'
I159
tp39
a(S'w'
I1
tp40
a(S'p2_ll'
I1
tp41
a(S'p2_vo'
I6
tp42
a(S'w'
I3
tp43
a(S'tr_tl'
I28
tp44
a(S'tr_ll'
I1
tp45
a(S'w'
I7334
tp46
a(S'p2_tl'
I168
tp47
a(S'w'
I1
tp48
a(S'p2_ll'
I1
tp49
a(S'w'
I7337
tp50
a(S'p2_tl'
I189
tp51
a(S'w'
I1
tp52
a(S'p2_ll'
I1
tp53
a(S'w'
I3
tp54
a(S'tr_tl'
I124
tp55
a(S'tr_ll'
I1
tp56
a(S'w'
I7334
tp57
a(S'p2_tl'
I212
tp58
a(S'w'
I1
tp59
a(S'p2_ll'
I1
tp60
a(S'w'
I7337
tp61
a(S'p2_tl'
I189
tp62
a(S'w'
I1
tp63
a(S'p2_ll'
I1
tp64
a(S'p2_vo'
I9
tp65
a(S'w'
I2
tp66
a(S'tr_lr'
I16
tp67
a(S'w'
I1
tp68
a(S'tr_tl'
I189
tp69
a(S'tr_ll'
I1
tp70
a(S'tr_th'
I0
tp71
a(S'w'
I3666
tp72
a(S'tr_tl'
I212
tp73
a(S'tr_ll'
I1
tp74
a(S'w'
I3669
tp75
a(S'tr_tl'
I189
tp76
a(S'tr_ll'
I1
tp77
a(S'w'
I3669
tp78
a(S'tr_tl'
I212
tp79
a(S'tr_ll'
I1
tp80
a(S'w'
I3669
tp81
a(S'tr_tl'
I189
tp82
a(S'tr_ll'
I1
tp83
a(S'w'
I3669
tp84
a(S'tr_tl'
I212
tp85
a(S'tr_ll'
I1
tp86
a(S'w'
I3669
tp87
a(S'tr_tl'
I189
tp88
a(S'tr_ll'
I1
tp89
a(S'w'
I3669
tp90
a(S'tr_tl'
I212
tp91
a(S'tr_ll'
I1
tp92
a(S'w'
I3668
tp93
a(S'p2_tl'
I212
tp94
a(S'w'
I1
tp95
a(S'p2_ll'
I1
tp96
a(S'w'
I2
tp97
a(S'tr_lr'
I60
tp98
a(S'w'
I1
tp99
a(S'tr_tl'
I171
tp100
a(S'tr_ll'
I1
tp101
a(S'tr_th'
I1
tp102
a(S'w'
I79873
tp103
a.