(lp1
(S'clock'
p2
I1789772
tp3
a(S'ch_no'
I1
tp4
a(S'ch_tr'
I1
tp5
a(S'ch_p2'
I1
tp6
a(S'ch_p1'
I1
tp7
a(S'w'
I1
tp8
a(S'fc_mo'
I1
tp9
a(S'w'
I1
tp10
a(S'p1_sp'
I7
tp11
a(S'p1_sn'
I1
tp12
a(S'p1_ss'
I7
tp13
a(S'p2_sp'
I7
tp14
a(S'p2_sn'
I1
tp15
a(S'p2_ss'
I7
tp16
a(S'w'
I3
tp17
a(S'p1_tl'
I171
tp18
a(S'p1_ll'
I1
tp19
a(S'p1_th'
I1
tp20
a(S'w'
I1
tp21
a(S'p1_du'
I2
tp22
a(S'p1_vo'
I2
tp23
a(S'w'
I2
tp24
a(S'p2_tl'
I82
tp25
a(S'p2_ll'
I1
tp26
a(S'p2_th'
I1
tp27
a(S'w'
I1
tp28
a(S'p2_du'
I2
tp29
a(S'p2_vo'
I2
tp30
a(S'w'
I4397
tp31
a(S'p1_ll'
I1
tp32
a(S'w'
I3
tp33
a(S'w'
I1
tp34
a(S'p2_ll'
I1
tp35
a(S'w'
I4399
tp36
a(S'p1_ll'
I1
tp37
a(S'w'
I1
tp38
a(S'p1_vo'
I6
tp39
a(S'w'
I2
tp40
a(S'w'
I1
tp41
a(S'p2_ll'
I1
tp42
a(S'p2_vo'
I6
tp43
a(S'w'
I8802
tp44
a(S'p1_tl'
I82
tp45
a(S'p1_ll'
I1
tp46
a(S'w'
I1
tp47
a(S'p1_vo'
I2
tp48
a(S'w'
I2
tp49
a(S'p2_tl'
I28
tp50
a(S'w'
I1
tp51
a(S'p2_ll'
I1
tp52
a(S'p2_vo'
I2
tp53
a(S'w'
I4398
tp54
a(S'p1_ll'
I1
tp55
a(S'w'
I3
tp56
a(S'w'
I1
tp57
a(S'p2_ll'
I1
tp58
a(S'w'
I4399
tp59
a(S'p1_ll'
I1
tp60
a(S'w'
I1
tp61
a(S'p1_vo'
I6
tp62
a(S'w'
I2
tp63
a(S'w'
I1
tp64
a(S'p2_ll'
I1
tp65
a(S'p2_vo'
I6
tp66
a(S'w'
I8802
tp67
a(S'p1_tl'
I28
tp68
a(S'p1_ll'
I1
tp69
a(S'w'
I1
tp70
a(S'p1_vo'
I2
tp71
a(S'w'
I2
tp72
a(S'p2_tl'
I212
tp73
a(S'w'
I1
tp74
a(S'p2_ll'
I1
tp75
a(S'p2_th'
I0
tp76
a(S'p2_vo'
I2
tp77
a(S'w'
I4398
tp78
a(S'p1_ll'
I1
tp79
a(S'w'
I3
tp80
a(S'w'
I1
tp81
a(S'p2_ll'
I1
tp82
a(S'w'
I4399
tp83
a(S'p1_ll'
I1
tp84
a(S'w'
I1
tp85
a(S'p1_vo'
I6
tp86
a(S'w'
I2
tp87
a(S'w'
I1
tp88
a(S'p2_ll'
I1
tp89
a(S'p2_vo'
I6
tp90
a(S'w'
I8802
tp91
a(S'p1_tl'
I212
tp92
a(S'p1_ll'
I1
tp93
a(S'p1_th'
I0
tp94
a(S'w'
I1
tp95
a(S'p1_vo'
I2
tp96
a(S'w'
I2
tp97
a(S'p2_tl'
I168
tp98
a(S'w'
I1
tp99
a(S'p2_ll'
I1
tp100
a(S'p2_vo'
I2
tp101
a(S'w'
I4398
tp102
a(S'p1_ll'
I1
tp103
a(S'w'
I3
tp104
a(S'w'
I1
tp105
a(S'p2_ll'
I1
tp106
a(S'w'
I4399
tp107
a(S'p1_ll'
I1
tp108
a(S'w'
I1
tp109
a(S'p1_vo'
I6
tp110
a(S'w'
I2
tp111
a(S'w'
I1
tp112
a(S'p2_ll'
I1
tp113
a(S'p2_vo'
I6
tp114
a(S'w'
I8802
tp115
a(S'p1_tl'
I168
tp116
a(S'p1_ll'
I1
tp117
a(S'w'
I1
tp118
a(S'p1_vo'
I2
tp119
a(S'w'
I2
tp120
a(S'p2_tl'
I141
tp121
a(S'w'
I1
tp122
a(S'p2_ll'
I1
tp123
a(S'p2_vo'
I2
tp124
a(S'w'
I4398
tp125
a(S'p1_ll'
I1
tp126
a(S'w'
I3
tp127
a(S'w'
I1
tp128
a(S'p2_ll'
I1
tp129
a(S'w'
I4399
tp130
a(S'p1_ll'
I1
tp131
a(S'w'
I3
tp132
a(S'w'
I1
tp133
a(S'p2_ll'
I1
tp134
a(S'w'
I4399
tp135
a(S'p1_ll'
I1
tp136
a(S'w'
I3
tp137
a(S'w'
I1
tp138
a(S'p2_ll'
I1
tp139
a(S'w'
I4399
tp140
a(S'p1_ll'
I1
tp141
a(S'w'
I1
tp142
a(S'p1_vo'
I6
tp143
a(S'w'
I2
tp144
a(S'w'
I1
tp145
a(S'p2_ll'
I1
tp146
a(S'p2_vo'
I9
tp147
a(S'w'
I69633
tp148
a.