(lp1
(S'clock'
p2
I1789772
tp3
a(S'p1_lh'
I1
tp4
a(S'p1_cv'
I1
tp5
a(S'p1_sp'
I3
tp6
a(S'p1_tl'
I168
tp7
a(S'p1_ll'
I1
tp8
a(S'p1_th'
I2
tp9
a(S'p2_lh'
I1
tp10
a(S'p2_cv'
I1
tp11
a(S'p2_sp'
I3
tp12
a(S'p2_tl'
I167
tp13
a(S'p2_ll'
I1
tp14
a(S'p2_th'
I2
tp15
a(S'tr_tl'
I83
tp16
a(S'tr_ll'
I1
tp17
a(S'tr_th'
I1
tp18
a(S'no_lh'
I1
tp19
a(S'no_cv'
I1
tp20
a(S'no_ll'
I1
tp21
a(S'ch_no'
I1
tp22
a(S'ch_tr'
I1
tp23
a(S'ch_p2'
I1
tp24
a(S'ch_p1'
I1
tp25
a(S'fc_mo'
I1
tp26
a(S'p1_du'
I3
tp27
a(S'p1_vo'
I5
tp28
a(S'w'
I6
tp29
a(S'p1_ll'
I1
tp30
a(S'p1_th'
I1
tp31
a(S'w'
I3
tp32
a(S'p1_tl'
I30
tp33
a(S'w'
I14
tp34
a(S'p2_du'
I2
tp35
a(S'p2_vo'
I7
tp36
a(S'w'
I6
tp37
a(S'p2_ll'
I1
tp38
a(S'p2_th'
I0
tp39
a(S'w'
I3
tp40
a(S'p2_tl'
I226
tp41
a(S'w'
I9
tp42
a(S'tr_lr'
I18
tp43
a(S'w'
I6
tp44
a(S'tr_ll'
I1
tp45
a(S'w'
I3
tp46
a(S'tr_tl'
I29
tp47
a(S'w'
I679
tp48
a(S'p1_vo'
I6
tp49
a(S'w'
I7
tp50
a(S'p2_vo'
I8
tp51
a(S'w'
I727
tp52
a(S'p1_vo'
I5
tp53
a(S'w'
I8
tp54
a(S'p2_vo'
I7
tp55
a(S'w'
I726
tp56
a(S'p1_vo'
I4
tp57
a(S'w'
I7
tp58
a(S'p2_vo'
I6
tp59
a(S'w'
I727
tp60
a(S'p1_vo'
I3
tp61
a(S'w'
I7
tp62
a(S'p2_vo'
I5
tp63
a(S'w'
I726
tp64
a(S'p1_vo'
I2
tp65
a(S'w'
I8
tp66
a(S'p2_vo'
I4
tp67
a(S'w'
I731
tp68
a(S'p2_vo'
I3
tp69
a(S'w'
I747
tp70
a(S'tr_ll'
I1
tp71
a(S'tr_th'
I2
tp72
a(S'w'
I3
tp73
a(S'tr_tl'
I59
tp74
a(S'w'
I5134
tp75
a(S'tr_ll'
I1
tp76
a(S'tr_th'
I1
tp77
a(S'w'
I3
tp78
a(S'tr_tl'
I29
tp79
a(S'w'
I4385
tp80
a(S'p2_vo'
I2
tp81
a(S'w'
I735
tp82
a(S'p1_vo'
I5
tp83
a(S'w'
I6
tp84
a(S'p1_tl'
I126
tp85
a(S'w'
I12
tp86
a(S'p2_vo'
I7
tp87
a(S'w'
I6
tp88
a(S'p2_ll'
I1
tp89
a(S'p2_th'
I1
tp90
a(S'w'
I3
tp91
a(S'p2_tl'
I29
tp92
a(S'w'
I11
tp93
a(S'tr_lr'
I69
tp94
a(S'w'
I6
tp95
a(S'tr_ll'
I1
tp96
a(S'w'
I684
tp97
a(S'p1_vo'
I6
tp98
a(S'w'
I7
tp99
a(S'p2_vo'
I8
tp100
a(S'w'
I728
tp101
a(S'p1_vo'
I5
tp102
a(S'w'
I7
tp103
a(S'p2_vo'
I7
tp104
a(S'w'
I727
tp105
a(S'p1_vo'
I4
tp106
a(S'w'
I7
tp107
a(S'p2_vo'
I6
tp108
a(S'w'
I727
tp109
a(S'p1_vo'
I3
tp110
a(S'w'
I7
tp111
a(S'p2_vo'
I5
tp112
a(S'w'
I726
tp113
a(S'p1_vo'
I2
tp114
a(S'w'
I8
tp115
a(S'p2_vo'
I4
tp116
a(S'w'
I730
tp117
a(S'p2_vo'
I3
tp118
a(S'w'
I738
tp119
a(S'p2_vo'
I7
tp120
a(S'w'
I6
tp121
a(S'p2_ll'
I1
tp122
a(S'p2_th'
I0
tp123
a(S'w'
I3
tp124
a(S'p2_tl'
I254
tp125
a(S'w'
I720
tp126
a(S'p2_vo'
I8
tp127
a(S'w'
I735
tp128
a(S'p2_vo'
I7
tp129
a(S'w'
I734
tp130
a(S'p2_vo'
I6
tp131
a(S'w'
I733
tp132
a(S'p2_vo'
I5
tp133
a(S'w'
I734
tp134
a(S'p2_vo'
I4
tp135
a(S'w'
I734
tp136
a(S'p2_vo'
I3
tp137
a(S'w'
I741
tp138
a(S'p2_vo'
I7
tp139
a(S'w'
I7
tp140
a(S'p2_tl'
I190
tp141
a(S'w'
I719
tp142
a(S'p2_vo'
I8
tp143
a(S'w'
I734
tp144
a(S'p2_vo'
I7
tp145
a(S'w'
I734
tp146
a(S'p2_vo'
I6
tp147
a(S'w'
I734
tp148
a(S'p2_vo'
I5
tp149
a(S'w'
I734
tp150
a(S'p2_vo'
I4
tp151
a(S'w'
I734
tp152
a(S'p2_vo'
I3
tp153
a(S'w'
I733
tp154
a(S'p1_vo'
I5
tp155
a(S'w'
I7
tp156
a(S'p1_tl'
I30
tp157
a(S'w'
I12
tp158
a(S'p2_vo'
I7
tp159
a(S'w'
I7
tp160
a(S'p2_tl'
I213
tp161
a(S'w'
I10
tp162
a(S'tr_lr'
I18
tp163
a(S'w'
I6
tp164
a(S'tr_ll'
I1
tp165
a(S'w'
I687
tp166
a(S'p1_vo'
I6
tp167
a(S'w'
I7
tp168
a(S'p2_vo'
I8
tp169
a(S'w'
I728
tp170
a(S'p1_vo'
I5
tp171
a(S'w'
I7
tp172
a(S'p2_vo'
I7
tp173
a(S'w'
I727
tp174
a(S'p1_vo'
I4
tp175
a(S'w'
I7
tp176
a(S'p2_vo'
I6
tp177
a(S'w'
I726
tp178
a(S'p1_vo'
I3
tp179
a(S'w'
I8
tp180
a(S'p2_vo'
I5
tp181
a(S'w'
I726
tp182
a(S'p1_vo'
I2
tp183
a(S'w'
I8
tp184
a(S'p2_vo'
I4
tp185
a(S'w'
I730
tp186
a(S'p2_vo'
I3
tp187
a(S'w'
I734
tp188
a(S'p1_vo'
I5
tp189
a(S'w'
I6
tp190
a(S'w'
I15
tp191
a(S'p2_vo'
I7
tp192
a(S'w'
I6
tp193
a(S'p2_tl'
I226
tp194
a(S'w'
I17
tp195
a(S'tr_ll'
I1
tp196
a(S'tr_th'
I2
tp197
a(S'w'
I3
tp198
a(S'tr_tl'
I59
tp199
a(S'w'
I682
tp200
a(S'p1_vo'
I6
tp201
a(S'w'
I7
tp202
a(S'p2_vo'
I8
tp203
a(S'w'
I727
tp204
a(S'p1_vo'
I5
tp205
a(S'w'
I8
tp206
a(S'p2_vo'
I7
tp207
a(S'w'
I726
tp208
a(S'p1_vo'
I4
tp209
a(S'w'
I8
tp210
a(S'p2_vo'
I6
tp211
a(S'w'
I726
tp212
a(S'p1_vo'
I3
tp213
a(S'w'
I7
tp214
a(S'p2_vo'
I5
tp215
a(S'w'
I727
tp216
a(S'p1_vo'
I2
tp217
a(S'w'
I7
tp218
a(S'p2_vo'
I4
tp219
a(S'w'
I731
tp220
a(S'p2_vo'
I3
tp221
a(S'w'
I733
tp222
a(S'p1_vo'
I5
tp223
a(S'w'
I7
tp224
a(S'p1_tl'
I126
tp225
a(S'w'
I12
tp226
a(S'p2_vo'
I7
tp227
a(S'w'
I6
tp228
a(S'p2_tl'
I254
tp229
a(S'w'
I18
tp230
a(S'tr_ll'
I1
tp231
a(S'tr_th'
I1
tp232
a(S'w'
I3
tp233
a(S'tr_tl'
I29
tp234
a(S'w'
I684
tp235
a(S'p1_vo'
I6
tp236
a(S'w'
I7
tp237
a(S'p2_vo'
I8
tp238
a(S'w'
I727
tp239
a(S'p1_vo'
I5
tp240
a(S'w'
I7
tp241
a(S'p2_vo'
I7
tp242
a(S'w'
I727
tp243
a(S'p1_vo'
I4
tp244
a(S'w'
I7
tp245
a(S'p2_vo'
I6
tp246
a(S'w'
I727
tp247
a(S'p1_vo'
I3
tp248
a(S'w'
I7
tp249
a(S'p2_vo'
I5
tp250
a(S'w'
I726
tp251
a(S'p1_vo'
I2
tp252
a(S'w'
I8
tp253
a(S'p2_vo'
I4
tp254
a(S'w'
I730
tp255
a(S'p2_vo'
I3
tp256
a(S'w'
I734
tp257
a(S'p1_vo'
I5
tp258
a(S'w'
I7
tp259
a(S'p1_tl'
I65
tp260
a(S'w'
I14
tp261
a(S'p2_vo'
I7
tp262
a(S'w'
I6
tp263
a(S'p2_tl'
I226
tp264
a(S'w'
I15
tp265
a(S'tr_ll'
I1
tp266
a(S'w'
I3
tp267
a(S'tr_tl'
I64
tp268
a(S'w'
I684
tp269
a(S'p1_vo'
I6
tp270
a(S'w'
I7
tp271
a(S'p2_vo'
I8
tp272
a(S'w'
I728
tp273
a(S'p1_vo'
I5
tp274
a(S'w'
I7
tp275
a(S'p2_vo'
I7
tp276
a(S'w'
I726
tp277
a(S'p1_vo'
I4
tp278
a(S'w'
I8
tp279
a(S'p2_vo'
I6
tp280
a(S'w'
I726
tp281
a(S'p1_vo'
I3
tp282
a(S'w'
I8
tp283
a(S'p2_vo'
I5
tp284
a(S'w'
I726
tp285
a(S'p1_vo'
I2
tp286
a(S'w'
I8
tp287
a(S'p2_vo'
I4
tp288
a(S'w'
I730
tp289
a(S'p2_vo'
I3
tp290
a(S'w'
I748
tp291
a(S'tr_ll'
I1
tp292
a(S'tr_th'
I2
tp293
a(S'w'
I2
tp294
a(S'tr_tl'
I128
tp295
a(S'w'
I5135
tp296
a(S'tr_ll'
I1
tp297
a(S'tr_th'
I1
tp298
a(S'w'
I3
tp299
a(S'tr_tl'
I64
tp300
a(S'w'
I4385
tp301
a(S'p2_vo'
I2
tp302
a(S'w'
I734
tp303
a(S'p1_vo'
I5
tp304
a(S'w'
I7
tp305
a(S'p1_tl'
I126
tp306
a(S'w'
I12
tp307
a(S'p2_vo'
I7
tp308
a(S'w'
I6
tp309
a(S'p2_ll'
I1
tp310
a(S'p2_th'
I1
tp311
a(S'w'
I3
tp312
a(S'p2_tl'
I29
tp313
a(S'w'
I11
tp314
a(S'tr_lr'
I69
tp315
a(S'w'
I5
tp316
a(S'tr_ll'
I1
tp317
a(S'w'
I685
tp318
a(S'p1_vo'
I6
tp319
a(S'w'
I7
tp320
a(S'p2_vo'
I8
tp321
a(S'w'
I727
tp322
a(S'p1_vo'
I5
tp323
a(S'w'
I8
tp324
a(S'p2_vo'
I7
tp325
a(S'w'
I726
tp326
a(S'p1_vo'
I4
tp327
a(S'w'
I8
tp328
a(S'p2_vo'
I6
tp329
a(S'w'
I726
tp330
a(S'p1_vo'
I3
tp331
a(S'w'
I8
tp332
a(S'p2_vo'
I5
tp333
a(S'w'
I726
tp334
a(S'p1_vo'
I2
tp335
a(S'w'
I7
tp336
a(S'p2_vo'
I4
tp337
a(S'w'
I731
tp338
a(S'p2_vo'
I3
tp339
a(S'w'
I738
tp340
a(S'p2_vo'
I7
tp341
a(S'w'
I6
tp342
a(S'p2_ll'
I1
tp343
a(S'p2_th'
I0
tp344
a(S'w'
I3
tp345
a(S'p2_tl'
I254
tp346
a(S'w'
I720
tp347
a(S'p2_vo'
I8
tp348
a(S'w'
I734
tp349
a(S'p2_vo'
I7
tp350
a(S'w'
I734
tp351
a(S'p2_vo'
I6
tp352
a(S'w'
I734
tp353
a(S'p2_vo'
I5
tp354
a(S'w'
I734
tp355
a(S'p2_vo'
I4
tp356
a(S'w'
I733
tp357
a(S'p2_vo'
I3
tp358
a(S'w'
I739
tp359
a(S'p2_vo'
I7
tp360
a(S'w'
I6
tp361
a(S'p2_tl'
I226
tp362
a(S'w'
I723
tp363
a(S'p2_vo'
I8
tp364
a(S'w'
I734
tp365
a(S'p2_vo'
I7
tp366
a(S'w'
I734
tp367
a(S'p2_vo'
I6
tp368
a(S'w'
I734
tp369
a(S'p2_vo'
I5
tp370
a(S'w'
I733
tp371
a(S'p2_vo'
I4
tp372
a(S'w'
I734
tp373
a(S'p2_vo'
I3
tp374
a(S'w'
I733
tp375
a(S'p1_vo'
I5
tp376
a(S'w'
I6
tp377
a(S'p1_ll'
I1
tp378
a(S'p1_th'
I0
tp379
a(S'w'
I4
tp380
a(S'p1_tl'
I227
tp381
a(S'w'
I14
tp382
a(S'p2_vo'
I7
tp383
a(S'w'
I7
tp384
a(S'p2_tl'
I190
tp385
a(S'w'
I11
tp386
a(S'tr_lr'
I18
tp387
a(S'w'
I5
tp388
a(S'tr_ll'
I1
tp389
a(S'w'
I683
tp390
a(S'p1_vo'
I6
tp391
a(S'w'
I7
tp392
a(S'p2_vo'
I8
tp393
a(S'w'
I727
tp394
a(S'p1_vo'
I5
tp395
a(S'w'
I8
tp396
a(S'p2_vo'
I7
tp397
a(S'w'
I726
tp398
a(S'p1_vo'
I4
tp399
a(S'w'
I8
tp400
a(S'p2_vo'
I6
tp401
a(S'w'
I726
tp402
a(S'p1_vo'
I3
tp403
a(S'w'
I7
tp404
a(S'p2_vo'
I5
tp405
a(S'w'
I726
tp406
a(S'p1_vo'
I2
tp407
a(S'w'
I8
tp408
a(S'p2_vo'
I4
tp409
a(S'w'
I731
tp410
a(S'p2_vo'
I3
tp411
a(S'w'
I733
tp412
a(S'p1_vo'
I5
tp413
a(S'w'
I7
tp414
a(S'p1_tl'
I255
tp415
a(S'w'
I12
tp416
a(S'p2_vo'
I7
tp417
a(S'w'
I7
tp418
a(S'p2_tl'
I213
tp419
a(S'w'
I17
tp420
a(S'tr_ll'
I1
tp421
a(S'tr_th'
I2
tp422
a(S'w'
I3
tp423
a(S'tr_tl'
I128
tp424
a(S'w'
I683
tp425
a(S'p1_vo'
I6
tp426
a(S'w'
I7
tp427
a(S'p2_vo'
I8
tp428
a(S'w'
I728
tp429
a(S'p1_vo'
I5
tp430
a(S'w'
I7
tp431
a(S'p2_vo'
I7
tp432
a(S'w'
I726
tp433
a(S'p1_vo'
I4
tp434
a(S'w'
I8
tp435
a(S'p2_vo'
I6
tp436
a(S'w'
I726
tp437
a(S'p1_vo'
I3
tp438
a(S'w'
I8
tp439
a(S'p2_vo'
I5
tp440
a(S'w'
I726
tp441
a(S'p1_vo'
I2
tp442
a(S'w'
I8
tp443
a(S'p2_vo'
I4
tp444
a(S'w'
I730
tp445
a(S'p2_vo'
I3
tp446
a(S'w'
I734
tp447
a(S'p1_vo'
I5
tp448
a(S'w'
I6
tp449
a(S'p1_ll'
I1
tp450
a(S'p1_th'
I1
tp451
a(S'w'
I3
tp452
a(S'p1_tl'
I126
tp453
a(S'w'
I14
tp454
a(S'p2_vo'
I7
tp455
a(S'w'
I7
tp456
a(S'p2_tl'
I226
tp457
a(S'w'
I17
tp458
a(S'tr_ll'
I1
tp459
a(S'tr_th'
I1
tp460
a(S'w'
I3
tp461
a(S'tr_tl'
I64
tp462
a(S'w'
I679
tp463
a(S'p1_vo'
I6
tp464
a(S'w'
I7
tp465
a(S'p2_vo'
I8
tp466
a(S'w'
I727
tp467
a(S'p1_vo'
I5
tp468
a(S'w'
I8
tp469
a(S'p2_vo'
I7
tp470
a(S'w'
I726
tp471
a(S'p1_vo'
I4
tp472
a(S'w'
I8
tp473
a(S'p2_vo'
I6
tp474
a(S'w'
I726
tp475
a(S'p1_vo'
I3
tp476
a(S'w'
I8
tp477
a(S'p2_vo'
I5
tp478
a(S'w'
I726
tp479
a(S'p1_vo'
I2
tp480
a(S'w'
I7
tp481
a(S'p2_vo'
I4
tp482
a(S'w'
I731
tp483
a(S'p2_vo'
I3
tp484
a(S'w'
I734
tp485
a(S'p1_vo'
I5
tp486
a(S'w'
I7
tp487
a(S'p1_tl'
I84
tp488
a(S'w'
I16
tp489
a(S'p2_vo'
I7
tp490
a(S'w'
I7
tp491
a(S'p2_tl'
I213
tp492
a(S'w'
I15
tp493
a(S'tr_ll'
I1
tp494
a(S'w'
I3
tp495
a(S'tr_tl'
I83
tp496
a(S'w'
I681
tp497
a(S'p1_vo'
I6
tp498
a(S'w'
I7
tp499
a(S'p2_vo'
I8
tp500
a(S'w'
I727
tp501
a(S'p1_vo'
I5
tp502
a(S'w'
I7
tp503
a(S'p2_vo'
I7
tp504
a(S'w'
I727
tp505
a(S'p1_vo'
I4
tp506
a(S'w'
I7
tp507
a(S'p2_vo'
I6
tp508
a(S'w'
I726
tp509
a(S'p1_vo'
I3
tp510
a(S'w'
I8
tp511
a(S'p2_vo'
I5
tp512
a(S'w'
I726
tp513
a(S'p1_vo'
I2
tp514
a(S'w'
I8
tp515
a(S'p2_vo'
I4
tp516
a(S'w'
I731
tp517
a(S'p2_vo'
I3
tp518
a(S'w'
I747
tp519
a(S'tr_ll'
I1
tp520
a(S'tr_th'
I2
tp521
a(S'w'
I3
tp522
a(S'tr_tl'
I167
tp523
a(S'w'
I5134
tp524
a(S'tr_ll'
I1
tp525
a(S'tr_th'
I1
tp526
a(S'w'
I3
tp527
a(S'tr_tl'
I83
tp528
a(S'w'
I4385
tp529
a(S'p2_vo'
I2
tp530
a(S'w'
I734
tp531
a(S'p1_vo'
I5
tp532
a(S'w'
I7
tp533
a(S'w'
I16
tp534
a(S'p2_vo'
I7
tp535
a(S'w'
I6
tp536
a(S'p2_ll'
I1
tp537
a(S'p2_th'
I1
tp538
a(S'w'
I3
tp539
a(S'p2_tl'
I29
tp540
a(S'w'
I11
tp541
a(S'tr_lr'
I69
tp542
a(S'w'
I5
tp543
a(S'tr_ll'
I1
tp544
a(S'w'
I681
tp545
a(S'p1_vo'
I6
tp546
a(S'w'
I7
tp547
a(S'p2_vo'
I8
tp548
a(S'w'
I728
tp549
a(S'p1_vo'
I5
tp550
a(S'w'
I7
tp551
a(S'p2_vo'
I7
tp552
a(S'w'
I726
tp553
a(S'p1_vo'
I4
tp554
a(S'w'
I8
tp555
a(S'p2_vo'
I6
tp556
a(S'w'
I726
tp557
a(S'p1_vo'
I3
tp558
a(S'w'
I8
tp559
a(S'p2_vo'
I5
tp560
a(S'w'
I726
tp561
a(S'p1_vo'
I2
tp562
a(S'w'
I8
tp563
a(S'p2_vo'
I4
tp564
a(S'w'
I730
tp565
a(S'p2_vo'
I3
tp566
a(S'w'
I734
tp567
a(S'p1_vo'
I5
tp568
a(S'w'
I6
tp569
a(S'p1_tl'
I172
tp570
a(S'w'
I723
tp571
a(S'p1_vo'
I6
tp572
a(S'w'
I734
tp573
a(S'p1_vo'
I5
tp574
a(S'w'
I734
tp575
a(S'p1_vo'
I4
tp576
a(S'w'
I734
tp577
a(S'p1_vo'
I3
tp578
a(S'w'
I734
tp579
a(S'p1_vo'
I2
tp580
a(S'w'
I1471
tp581
a(S'p1_vo'
I5
tp582
a(S'w'
I7
tp583
a(S'p1_tl'
I84
tp584
a(S'w'
I723
tp585
a(S'p1_vo'
I6
tp586
a(S'w'
I734
tp587
a(S'p1_vo'
I5
tp588
a(S'w'
I734
tp589
a(S'p1_vo'
I4
tp590
a(S'w'
I734
tp591
a(S'p1_vo'
I3
tp592
a(S'w'
I734
tp593
a(S'p1_vo'
I2
tp594
a(S'w'
I737
tp595
a(S'p2_vo'
I2
tp596
a(S'w'
I734
tp597
a(S'p1_vo'
I5
tp598
a(S'w'
I7
tp599
a(S'w'
I13
tp600
a(S'p2_vo'
I7
tp601
a(S'w'
I6
tp602
a(S'p2_ll'
I1
tp603
a(S'p2_th'
I0
tp604
a(S'w'
I3
tp605
a(S'p2_tl'
I254
tp606
a(S'w'
I11
tp607
a(S'tr_lr'
I18
tp608
a(S'w'
I5
tp609
a(S'tr_ll'
I1
tp610
a(S'w'
I684
tp611
a(S'p1_vo'
I6
tp612
a(S'w'
I7
tp613
a(S'p2_vo'
I8
tp614
a(S'w'
I728
tp615
a(S'p1_vo'
I5
tp616
a(S'w'
I7
tp617
a(S'p2_vo'
I7
tp618
a(S'w'
I727
tp619
a(S'p1_vo'
I4
tp620
a(S'w'
I7
tp621
a(S'p2_vo'
I6
tp622
a(S'w'
I726
tp623
a(S'p1_vo'
I3
tp624
a(S'w'
I8
tp625
a(S'p2_vo'
I5
tp626
a(S'w'
I726
tp627
a(S'p1_vo'
I2
tp628
a(S'w'
I8
tp629
a(S'p2_vo'
I4
tp630
a(S'w'
I730
tp631
a(S'p2_vo'
I3
tp632
a(S'w'
I733
tp633
a(S'p1_vo'
I5
tp634
a(S'w'
I7
tp635
a(S'p1_tl'
I172
tp636
a(S'w'
I21
tp637
a(S'tr_ll'
I1
tp638
a(S'tr_th'
I2
tp639
a(S'w'
I3
tp640
a(S'tr_tl'
I167
tp641
a(S'w'
I699
tp642
a(S'p1_vo'
I6
tp643
a(S'w'
I734
tp644
a(S'p1_vo'
I5
tp645
a(S'w'
I734
tp646
a(S'p1_vo'
I4
tp647
a(S'w'
I734
tp648
a(S'p1_vo'
I3
tp649
a(S'w'
I734
tp650
a(S'p1_vo'
I2
tp651
a(S'w'
I1471
tp652
a(S'p1_vo'
I5
tp653
a(S'w'
I7
tp654
a(S'p1_tl'
I84
tp655
a(S'w'
I22
tp656
a(S'tr_ll'
I1
tp657
a(S'tr_th'
I1
tp658
a(S'w'
I3
tp659
a(S'tr_tl'
I83
tp660
a(S'w'
I697
tp661
a(S'p1_vo'
I6
tp662
a(S'w'
I735
tp663
a(S'p1_vo'
I5
tp664
a(S'w'
I734
tp665
a(S'p1_vo'
I4
tp666
a(S'w'
I733
tp667
a(S'p1_vo'
I3
tp668
a(S'w'
I734
tp669
a(S'p1_vo'
I2
tp670
a(S'w'
I738
tp671
a(S'p2_vo'
I2
tp672
a(S'w'
I734
tp673
a(S'p1_vo'
I5
tp674
a(S'w'
I7
tp675
a(S'p1_tl'
I104
tp676
a(S'w'
I16
tp677
a(S'p2_vo'
I7
tp678
a(S'w'
I7
tp679
a(S'p2_tl'
I213
tp680
a(S'w'
I15
tp681
a(S'tr_ll'
I1
tp682
a(S'w'
I3
tp683
a(S'tr_tl'
I103
tp684
a(S'w'
I681
tp685
a(S'p1_vo'
I6
tp686
a(S'w'
I7
tp687
a(S'p2_vo'
I8
tp688
a(S'w'
I728
tp689
a(S'p1_vo'
I5
tp690
a(S'w'
I7
tp691
a(S'p2_vo'
I7
tp692
a(S'w'
I726
tp693
a(S'p1_vo'
I4
tp694
a(S'w'
I8
tp695
a(S'p2_vo'
I6
tp696
a(S'w'
I726
tp697
a(S'p1_vo'
I3
tp698
a(S'w'
I7
tp699
a(S'p2_vo'
I5
tp700
a(S'w'
I727
tp701
a(S'p1_vo'
I2
tp702
a(S'w'
I7
tp703
a(S'p2_vo'
I4
tp704
a(S'w'
I731
tp705
a(S'p2_vo'
I3
tp706
a(S'w'
I745
tp707
a(S'tr_ll'
I1
tp708
a(S'w'
I3
tp709
a(S'tr_tl'
I171
tp710
a(S'w'
I5134
tp711
a(S'tr_ll'
I1
tp712
a(S'w'
I3
tp713
a(S'tr_tl'
I103
tp714
a(S'w'
I4388
tp715
a(S'p2_vo'
I2
tp716
a(S'w'
I737
tp717
a(S'p1_vo'
I5
tp718
a(S'w'
I7
tp719
a(S'p1_tl'
I30
tp720
a(S'w'
I19
tp721
a(S'p2_vo'
I7
tp722
a(S'w'
I7
tp723
a(S'p2_tl'
I226
tp724
a(S'w'
I11
tp725
a(S'tr_lr'
I69
tp726
a(S'w'
I5
tp727
a(S'tr_ll'
I1
tp728
a(S'w'
I677
tp729
a(S'p1_vo'
I4
tp730
a(S'w'
I7
tp731
a(S'p2_vo'
I8
tp732
a(S'w'
I727
tp733
a(S'p1_vo'
I3
tp734
a(S'w'
I8
tp735
a(S'p2_vo'
I7
tp736
a(S'w'
I726
tp737
a(S'p1_vo'
I2
tp738
a(S'w'
I8
tp739
a(S'p2_vo'
I6
tp740
a(S'w'
I730
tp741
a(S'p2_vo'
I5
tp742
a(S'w'
I734
tp743
a(S'p2_vo'
I4
tp744
a(S'w'
I734
tp745
a(S'p2_vo'
I3
tp746
a(S'w'
I1468
tp747
a(S'p1_vo'
I5
tp748
a(S'w'
I6
tp749
a(S'p1_tl'
I104
tp750
a(S'w'
I723
tp751
a(S'p1_vo'
I4
tp752
a(S'w'
I734
tp753
a(S'p1_vo'
I3
tp754
a(S'w'
I733
tp755
a(S'p1_vo'
I2
tp756
a(S'w'
I3674
tp757
a(S'p1_vo'
I5
tp758
a(S'w'
I7
tp759
a(S'p1_tl'
I65
tp760
a(S'w'
I722
tp761
a(S'p1_vo'
I4
tp762
a(S'w'
I734
tp763
a(S'p1_vo'
I3
tp764
a(S'w'
I734
tp765
a(S'p1_vo'
I2
tp766
a(S'w'
I2939
tp767
a(S'p2_vo'
I2
tp768
a(S'w'
I734
tp769
a(S'p1_vo'
I5
tp770
a(S'w'
I7
tp771
a(S'w'
I14
tp772
a(S'p2_vo'
I7
tp773
a(S'w'
I6
tp774
a(S'p2_tl'
I254
tp775
a(S'w'
I11
tp776
a(S'tr_lr'
I18
tp777
a(S'w'
I5
tp778
a(S'tr_ll'
I1
tp779
a(S'w'
I3
tp780
a(S'tr_tl'
I64
tp781
a(S'w'
I684
tp782
a(S'p1_vo'
I4
tp783
a(S'w'
I7
tp784
a(S'p2_vo'
I8
tp785
a(S'w'
I727
tp786
a(S'p1_vo'
I3
tp787
a(S'w'
I7
tp788
a(S'p2_vo'
I7
tp789
a(S'w'
I726
tp790
a(S'p1_vo'
I2
tp791
a(S'w'
I8
tp792
a(S'p2_vo'
I6
tp793
a(S'w'
I730
tp794
a(S'p2_vo'
I5
tp795
a(S'w'
I734
tp796
a(S'p2_vo'
I4
tp797
a(S'w'
I734
tp798
a(S'p2_vo'
I3
tp799
a(S'w'
I1468
tp800
a(S'p1_vo'
I5
tp801
a(S'w'
I6
tp802
a(S'p1_tl'
I172
tp803
a(S'w'
I20
tp804
a(S'tr_ll'
I1
tp805
a(S'w'
I3
tp806
a(S'tr_tl'
I171
tp807
a(S'w'
I700
tp808
a(S'p1_vo'
I4
tp809
a(S'w'
I734
tp810
a(S'p1_vo'
I3
tp811
a(S'w'
I734
tp812
a(S'p1_vo'
I2
tp813
a(S'w'
I3673
tp814
a(S'p1_vo'
I5
tp815
a(S'w'
I7
tp816
a(S'p1_tl'
I65
tp817
a(S'w'
I19
tp818
a(S'tr_ll'
I1
tp819
a(S'w'
I3
tp820
a(S'tr_tl'
I64
tp821
a(S'w'
I701
tp822
a(S'p1_vo'
I4
tp823
a(S'w'
I733
tp824
a(S'p1_vo'
I3
tp825
a(S'w'
I734
tp826
a(S'p1_vo'
I2
tp827
a(S'w'
I2939
tp828
a(S'p2_vo'
I2
tp829
a(S'w'
I739
tp830
a(S'p1_vo'
I5
tp831
a(S'w'
I7
tp832
a(S'p1_tl'
I126
tp833
a(S'w'
I22
tp834
a(S'p2_vo'
I7
tp835
a(S'w'
I6
tp836
a(S'p2_ll'
I1
tp837
a(S'p2_th'
I1
tp838
a(S'w'
I3
tp839
a(S'p2_tl'
I29
tp840
a(S'w'
I12
tp841
a(S'tr_lh'
I1
tp842
a(S'tr_lr'
I16
tp843
a(S'w'
I6
tp844
a(S'tr_ll'
I1
tp845
a(S'w'
I3
tp846
a(S'tr_tl'
I29
tp847
a(S'w'
I666
tp848
a(S'p1_vo'
I4
tp849
a(S'w'
I7
tp850
a(S'p2_vo'
I8
tp851
a(S'w'
I727
tp852
a(S'p1_vo'
I3
tp853
a(S'w'
I7
tp854
a(S'p2_vo'
I7
tp855
a(S'w'
I731
tp856
a(S'p2_vo'
I6
tp857
a(S'w'
I734
tp858
a(S'p2_vo'
I5
tp859
a(S'w'
I734
tp860
a(S'p2_vo'
I4
tp861
a(S'w'
I733
tp862
a(S'p2_vo'
I3
tp863
a(S'w'
I19080
tp864
a(S'p2_tl'
I30
tp865
a(S'w'
I2936
tp866
a(S'p2_tl'
I28
tp867
a(S'w'
I2935
tp868
a(S'p2_tl'
I30
tp869
a(S'w'
I2935
tp870
a(S'p2_tl'
I28
tp871
a(S'w'
I2935
tp872
a(S'p2_tl'
I30
tp873
a(S'w'
I2935
tp874
a(S'p2_tl'
I28
tp875
a(S'w'
I2935
tp876
a(S'p2_tl'
I30
tp877
a(S'w'
I2936
tp878
a(S'p2_tl'
I28
tp879
a(S'w'
I2935
tp880
a(S'p2_tl'
I30
tp881
a(S'w'
I1466
tp882
a(S'p2_vo'
I2
tp883
a(S'w'
I734
tp884
a(S'p2_vo'
I1
tp885
a(S'w'
I735
tp886
a(S'p2_tl'
I28
tp887
a(S'w'
I4
tp888
a(S'p2_vo'
I0
tp889
a(S'w'
I2926
tp890
a(S'p1_du'
I0
tp891
a(S'p1_vo'
I0
tp892
a(S'w'
I7
tp893
a(S'p2_du'
I0
tp894
a(S'w'
I7
tp895
a(S'tr_lh'
I0
tp896
a(S'tr_lr'
I0
tp897
a.