(lp1
(S'clock'
p2
I1789772
tp3
a(S'p1_lh'
I1
tp4
a(S'p1_cv'
I1
tp5
a(S'p1_sp'
I3
tp6
a(S'p1_ll'
I1
tp7
a(S'p2_lh'
I1
tp8
a(S'p2_cv'
I1
tp9
a(S'p2_sp'
I3
tp10
a(S'p2_ll'
I1
tp11
a(S'tr_tl'
I27
tp12
a(S'tr_ll'
I1
tp13
a(S'tr_th'
I2
tp14
a(S'no_lh'
I1
tp15
a(S'no_cv'
I1
tp16
a(S'ch_no'
I1
tp17
a(S'ch_tr'
I1
tp18
a(S'ch_p2'
I1
tp19
a(S'ch_p1'
I1
tp20
a(S'fc_mo'
I1
tp21
a(S'p2_du'
I2
tp22
a(S'p2_vo'
I9
tp23
a(S'w'
I8
tp24
a(S'p2_ll'
I1
tp25
a(S'w'
I3
tp26
a(S'p2_tl'
I28
tp27
a(S'w'
I599
tp28
a(S'p2_vo'
I8
tp29
a(S'w'
I771
tp30
a(S'p2_vo'
I7
tp31
a(S'w'
I734
tp32
a(S'p2_vo'
I6
tp33
a(S'w'
I734
tp34
a(S'p2_vo'
I5
tp35
a(S'w'
I1468
tp36
a(S'p1_du'
I2
tp37
a(S'p1_vo'
I7
tp38
a(S'w'
I8
tp39
a(S'p1_ll'
I1
tp40
a(S'w'
I3
tp41
a(S'p1_tl'
I28
tp42
a(S'w'
I719
tp43
a(S'p1_vo'
I6
tp44
a(S'w'
I734
tp45
a(S'p1_vo'
I5
tp46
a(S'w'
I734
tp47
a(S'p1_vo'
I4
tp48
a(S'w'
I2209
tp49
a(S'p2_vo'
I9
tp50
a(S'w'
I8
tp51
a(S'p2_tl'
I33
tp52
a(S'w'
I722
tp53
a(S'p2_vo'
I8
tp54
a(S'w'
I734
tp55
a(S'p2_vo'
I7
tp56
a(S'w'
I733
tp57
a(S'p2_vo'
I6
tp58
a(S'w'
I734
tp59
a(S'p2_vo'
I5
tp60
a(S'w'
I1482
tp61
a(S'p1_vo'
I7
tp62
a(S'w'
I8
tp63
a(S'p1_tl'
I33
tp64
a(S'w'
I838
tp65
a(S'p1_vo'
I6
tp66
a(S'w'
I734
tp67
a(S'p1_vo'
I5
tp68
a(S'w'
I734
tp69
a(S'p1_vo'
I4
tp70
a(S'w'
I2209
tp71
a(S'p2_vo'
I9
tp72
a(S'w'
I8
tp73
a(S'p2_tl'
I42
tp74
a(S'w'
I722
tp75
a(S'p2_vo'
I8
tp76
a(S'w'
I734
tp77
a(S'p2_vo'
I7
tp78
a(S'w'
I734
tp79
a(S'p2_vo'
I6
tp80
a(S'w'
I733
tp81
a(S'p2_vo'
I5
tp82
a(S'w'
I1468
tp83
a(S'p1_vo'
I7
tp84
a(S'w'
I8
tp85
a(S'p1_tl'
I42
tp86
a(S'w'
I722
tp87
a(S'p1_vo'
I6
tp88
a(S'w'
I733
tp89
a(S'p1_vo'
I5
tp90
a(S'w'
I734
tp91
a(S'p1_vo'
I4
tp92
a(S'w'
I2210
tp93
a(S'p2_vo'
I9
tp94
a(S'w'
I8
tp95
a(S'p2_tl'
I47
tp96
a(S'w'
I721
tp97
a(S'p2_vo'
I8
tp98
a(S'w'
I734
tp99
a(S'p2_vo'
I7
tp100
a(S'w'
I734
tp101
a(S'p2_vo'
I6
tp102
a(S'w'
I734
tp103
a(S'p2_vo'
I5
tp104
a(S'w'
I1468
tp105
a(S'p1_vo'
I7
tp106
a(S'w'
I8
tp107
a(S'p1_tl'
I47
tp108
a(S'w'
I721
tp109
a(S'p1_vo'
I6
tp110
a(S'w'
I734
tp111
a(S'p1_vo'
I5
tp112
a(S'w'
I734
tp113
a(S'p1_vo'
I4
tp114
a(S'w'
I2212
tp115
a(S'p2_vo'
I9
tp116
a(S'w'
I8
tp117
a(S'p2_tl'
I56
tp118
a(S'w'
I719
tp119
a(S'p2_vo'
I8
tp120
a(S'w'
I734
tp121
a(S'p2_vo'
I7
tp122
a(S'w'
I734
tp123
a(S'p2_vo'
I6
tp124
a(S'w'
I734
tp125
a(S'p2_vo'
I5
tp126
a(S'w'
I1470
tp127
a(S'p1_vo'
I7
tp128
a(S'w'
I7
tp129
a(S'p1_tl'
I56
tp130
a(S'w'
I720
tp131
a(S'p1_vo'
I6
tp132
a(S'w'
I734
tp133
a(S'p1_vo'
I5
tp134
a(S'w'
I733
tp135
a(S'p1_vo'
I4
tp136
a(S'w'
I2210
tp137
a(S'p2_vo'
I9
tp138
a(S'w'
I8
tp139
a(S'p2_tl'
I67
tp140
a(S'w'
I722
tp141
a(S'p2_vo'
I8
tp142
a(S'w'
I734
tp143
a(S'p2_vo'
I7
tp144
a(S'w'
I733
tp145
a(S'p2_vo'
I6
tp146
a(S'w'
I734
tp147
a(S'p2_vo'
I5
tp148
a(S'w'
I1468
tp149
a(S'p1_vo'
I7
tp150
a(S'w'
I7
tp151
a(S'p1_tl'
I67
tp152
a(S'w'
I722
tp153
a(S'p1_vo'
I6
tp154
a(S'w'
I734
tp155
a(S'p1_vo'
I5
tp156
a(S'w'
I734
tp157
a(S'p1_vo'
I4
tp158
a(S'w'
I2210
tp159
a(S'p2_vo'
I9
tp160
a(S'w'
I7
tp161
a(S'p2_tl'
I84
tp162
a(S'w'
I722
tp163
a(S'p2_vo'
I8
tp164
a(S'w'
I734
tp165
a(S'p2_vo'
I7
tp166
a(S'w'
I734
tp167
a(S'p2_vo'
I6
tp168
a(S'w'
I734
tp169
a(S'p2_vo'
I5
tp170
a(S'w'
I1468
tp171
a(S'p1_vo'
I7
tp172
a(S'w'
I7
tp173
a(S'p1_tl'
I84
tp174
a(S'w'
I722
tp175
a(S'p1_vo'
I6
tp176
a(S'w'
I734
tp177
a(S'p1_vo'
I5
tp178
a(S'w'
I734
tp179
a(S'p1_vo'
I4
tp180
a(S'w'
I2209
tp181
a(S'p2_vo'
I9
tp182
a(S'w'
I8
tp183
a(S'p2_tl'
I95
tp184
a(S'w'
I722
tp185
a(S'p2_vo'
I8
tp186
a(S'w'
I734
tp187
a(S'p2_vo'
I7
tp188
a(S'w'
I733
tp189
a(S'p2_vo'
I6
tp190
a(S'w'
I734
tp191
a(S'p2_vo'
I5
tp192
a(S'w'
I1468
tp193
a(S'p1_vo'
I7
tp194
a(S'w'
I8
tp195
a(S'p1_tl'
I95
tp196
a(S'w'
I722
tp197
a(S'p1_vo'
I6
tp198
a(S'w'
I734
tp199
a(S'p1_vo'
I5
tp200
a(S'w'
I733
tp201
a(S'p1_vo'
I4
tp202
a(S'w'
I2213
tp203
a(S'p2_vo'
I9
tp204
a(S'w'
I7
tp205
a(S'p2_tl'
I113
tp206
a(S'w'
I10
tp207
a(S'tr_lh'
I1
tp208
a(S'tr_lr'
I16
tp209
a(S'w'
I6
tp210
a(S'tr_ll'
I1
tp211
a(S'tr_th'
I0
tp212
a(S'w'
I3
tp213
a(S'tr_tl'
I113
tp214
a(S'w'
I701
tp215
a(S'p2_vo'
I8
tp216
a(S'w'
I733
tp217
a(S'p2_vo'
I7
tp218
a(S'w'
I734
tp219
a(S'p2_vo'
I6
tp220
a(S'w'
I734
tp221
a(S'p2_vo'
I5
tp222
a(S'w'
I5877
tp223
a(S'p1_vo'
I3
tp224
a(S'w'
I7
tp225
a(S'p1_tl'
I113
tp226
a(S'w'
I12
tp227
a(S'p2_vo'
I9
tp228
a(S'w'
I7
tp229
a(S'p2_tl'
I134
tp230
a(S'w'
I16
tp231
a(S'tr_ll'
I1
tp232
a(S'w'
I3
tp233
a(S'tr_tl'
I134
tp234
a(S'w'
I678
tp235
a(S'p1_vo'
I2
tp236
a(S'w'
I7
tp237
a(S'p2_vo'
I8
tp238
a(S'w'
I731
tp239
a(S'p2_vo'
I7
tp240
a(S'w'
I734
tp241
a(S'p2_vo'
I6
tp242
a(S'w'
I734
tp243
a(S'p2_vo'
I5
tp244
a(S'w'
I5871
tp245
a(S'p1_vo'
I3
tp246
a(S'w'
I7
tp247
a(S'p1_tl'
I134
tp248
a(S'w'
I12
tp249
a(S'p2_vo'
I9
tp250
a(S'w'
I7
tp251
a(S'p2_tl'
I169
tp252
a(S'w'
I16
tp253
a(S'tr_ll'
I1
tp254
a(S'w'
I3
tp255
a(S'tr_tl'
I169
tp256
a(S'w'
I684
tp257
a(S'p1_vo'
I2
tp258
a(S'w'
I7
tp259
a(S'p2_vo'
I8
tp260
a(S'w'
I731
tp261
a(S'p2_vo'
I7
tp262
a(S'w'
I733
tp263
a(S'p2_vo'
I6
tp264
a(S'w'
I734
tp265
a(S'p2_vo'
I5
tp266
a(S'w'
I5872
tp267
a(S'p1_vo'
I3
tp268
a(S'w'
I7
tp269
a(S'p1_tl'
I169
tp270
a(S'w'
I12
tp271
a(S'p2_vo'
I9
tp272
a(S'w'
I7
tp273
a(S'p2_tl'
I190
tp274
a(S'w'
I16
tp275
a(S'tr_ll'
I1
tp276
a(S'w'
I3
tp277
a(S'tr_tl'
I190
tp278
a(S'w'
I683
tp279
a(S'p1_vo'
I2
tp280
a(S'w'
I8
tp281
a(S'p2_vo'
I8
tp282
a(S'w'
I730
tp283
a(S'p2_vo'
I7
tp284
a(S'w'
I734
tp285
a(S'p2_vo'
I6
tp286
a(S'w'
I734
tp287
a(S'p2_vo'
I5
tp288
a(S'w'
I5872
tp289
a(S'p1_vo'
I3
tp290
a(S'w'
I7
tp291
a(S'p1_tl'
I190
tp292
a(S'w'
I16
tp293
a(S'p2_vo'
I3
tp294
a(S'w'
I7
tp295
a(S'p2_tl'
I113
tp296
a(S'w'
I18
tp297
a(S'tr_ll'
I1
tp298
a(S'w'
I2
tp299
a(S'tr_tl'
I226
tp300
a(S'w'
I678
tp301
a(S'p1_vo'
I2
tp302
a(S'w'
I7
tp303
a(S'p2_vo'
I2
tp304
a(S'w'
I8079
tp305
a(S'p1_tl'
I113
tp306
a(S'w'
I13
tp307
a(S'p2_vo'
I3
tp308
a(S'w'
I7
tp309
a(S'p2_tl'
I134
tp310
a(S'w'
I16
tp311
a(S'tr_ll'
I1
tp312
a(S'tr_th'
I1
tp313
a(S'w'
I2
tp314
a(S'tr_tl'
I13
tp315
a(S'w'
I682
tp316
a(S'p1_vo'
I1
tp317
a(S'w'
I7
tp318
a(S'p2_vo'
I2
tp319
a(S'w'
I8069
tp320
a(S'p1_vo'
I2
tp321
a(S'w'
I7
tp322
a(S'p1_tl'
I134
tp323
a(S'w'
I13
tp324
a(S'p2_vo'
I3
tp325
a(S'w'
I7
tp326
a(S'p2_tl'
I169
tp327
a(S'w'
I15
tp328
a(S'tr_ll'
I1
tp329
a(S'w'
I3
tp330
a(S'tr_tl'
I83
tp331
a(S'w'
I684
tp332
a(S'p1_vo'
I1
tp333
a(S'w'
I8
tp334
a(S'p2_vo'
I2
tp335
a(S'w'
I8068
tp336
a(S'p1_vo'
I2
tp337
a(S'w'
I7
tp338
a(S'p1_tl'
I169
tp339
a(S'w'
I13
tp340
a(S'p2_vo'
I3
tp341
a(S'w'
I7
tp342
a(S'p2_tl'
I190
tp343
a(S'w'
I16
tp344
a(S'tr_ll'
I1
tp345
a(S'w'
I3
tp346
a(S'tr_tl'
I125
tp347
a(S'w'
I684
tp348
a(S'p1_vo'
I1
tp349
a(S'w'
I7
tp350
a(S'p2_vo'
I2
tp351
a(S'w'
I8075
tp352
a(S'p1_du'
I0
tp353
a(S'p1_vo'
I0
tp354
a(S'w'
I21
tp355
a(S'p2_vo'
I4
tp356
a(S'w'
I7
tp357
a(S'p2_tl'
I213
tp358
a(S'w'
I19
tp359
a(S'tr_ll'
I1
tp360
a(S'tr_th'
I2
tp361
a(S'w'
I3
tp362
a(S'tr_tl'
I27
tp363
a(S'w'
I676
tp364
a(S'p2_vo'
I5
tp365
a(S'w'
I747
tp366
a(S'tr_ll'
I1
tp367
a(S'tr_th'
I1
tp368
a(S'w'
I3
tp369
a(S'tr_tl'
I252
tp370
a(S'w'
I2936
tp371
a(S'tr_ll'
I1
tp372
a(S'w'
I8791
tp373
a(S'p1_du'
I2
tp374
a(S'p1_vo'
I2
tp375
a(S'w'
I7
tp376
a(S'p1_tl'
I214
tp377
a(S'w'
I721
tp378
a(S'p1_vo'
I3
tp379
a(S'w'
I3679
tp380
a(S'p2_vo'
I4
tp381
a(S'w'
I7
tp382
a(S'p2_tl'
I190
tp383
a(S'w'
I721
tp384
a(S'p2_vo'
I5
tp385
a(S'w'
I12476
tp386
a(S'p1_vo'
I2
tp387
a(S'w'
I7
tp388
a(S'p1_tl'
I191
tp389
a(S'w'
I722
tp390
a(S'p1_vo'
I3
tp391
a(S'w'
I3678
tp392
a(S'p2_vo'
I4
tp393
a(S'w'
I7
tp394
a(S'p2_tl'
I169
tp395
a(S'w'
I722
tp396
a(S'p2_vo'
I5
tp397
a(S'w'
I12475
tp398
a(S'p1_vo'
I2
tp399
a(S'w'
I7
tp400
a(S'p1_tl'
I170
tp401
a(S'w'
I722
tp402
a(S'p1_vo'
I3
tp403
a(S'w'
I3678
tp404
a(S'p2_vo'
I4
tp405
a(S'w'
I7
tp406
a(S'p2_tl'
I142
tp407
a(S'w'
I722
tp408
a(S'p2_vo'
I5
tp409
a(S'w'
I12476
tp410
a(S'p1_vo'
I2
tp411
a(S'w'
I7
tp412
a(S'p1_tl'
I143
tp413
a(S'w'
I721
tp414
a(S'p1_vo'
I3
tp415
a(S'w'
I3678
tp416
a(S'p2_vo'
I4
tp417
a(S'w'
I8
tp418
a(S'p2_tl'
I113
tp419
a(S'w'
I14
tp420
a(S'w'
I5
tp421
a(S'tr_ll'
I1
tp422
a(S'w'
I3
tp423
a(S'tr_tl'
I83
tp424
a(S'w'
I699
tp425
a(S'p2_vo'
I5
tp426
a(S'w'
I12476
tp427
a(S'p1_vo'
I2
tp428
a(S'w'
I7
tp429
a(S'p1_tl'
I114
tp430
a(S'w'
I721
tp431
a(S'p1_vo'
I3
tp432
a(S'w'
I3679
tp433
a(S'p2_vo'
I4
tp434
a(S'w'
I7
tp435
a(S'p2_tl'
I127
tp436
a(S'w'
I721
tp437
a(S'p2_vo'
I5
tp438
a(S'w'
I12476
tp439
a(S'p1_vo'
I2
tp440
a(S'w'
I7
tp441
a(S'p1_tl'
I128
tp442
a(S'w'
I722
tp443
a(S'p1_vo'
I3
tp444
a(S'w'
I3681
tp445
a(S'p2_vo'
I4
tp446
a(S'w'
I7
tp447
a(S'p2_tl'
I190
tp448
a(S'w'
I20
tp449
a(S'tr_ll'
I1
tp450
a(S'w'
I2
tp451
a(S'tr_tl'
I125
tp452
a(S'w'
I697
tp453
a(S'p2_vo'
I5
tp454
a(S'w'
I12479
tp455
a(S'p1_vo'
I2
tp456
a(S'w'
I7
tp457
a(S'p1_tl'
I191
tp458
a(S'w'
I718
tp459
a(S'p1_vo'
I3
tp460
a(S'w'
I5142
tp461
a(S'p2_tl'
I193
tp462
a(S'w'
I2936
tp463
a(S'p2_tl'
I187
tp464
a(S'w'
I2935
tp465
a(S'p2_tl'
I193
tp466
a(S'w'
I2935
tp467
a(S'p2_tl'
I187
tp468
a(S'w'
I2935
tp469
a(S'p2_tl'
I193
tp470
a(S'w'
I2935
tp471
a(S'p2_tl'
I187
tp472
a(S'w'
I2935
tp473
a(S'p2_tl'
I193
tp474
a(S'w'
I2936
tp475
a(S'p2_tl'
I187
tp476
a(S'w'
I2935
tp477
a(S'p2_tl'
I193
tp478
a(S'w'
I2935
tp479
a(S'p2_tl'
I187
tp480
a(S'w'
I2935
tp481
a(S'p2_tl'
I193
tp482
a(S'w'
I2936
tp483
a(S'p2_tl'
I187
tp484
a(S'w'
I2935
tp485
a(S'p2_tl'
I193
tp486
a(S'w'
I2935
tp487
a(S'p2_tl'
I187
tp488
a(S'w'
I2935
tp489
a(S'p2_tl'
I193
tp490
a(S'w'
I2936
tp491
a(S'p2_tl'
I187
tp492
a(S'w'
I2935
tp493
a(S'p2_tl'
I193
tp494
a(S'w'
I2935
tp495
a(S'p2_tl'
I187
tp496
a(S'w'
I1472
tp497
a(S'p2_vo'
I4
tp498
a(S'w'
I7
tp499
a(S'p2_tl'
I169
tp500
a(S'w'
I17
tp501
a(S'tr_ll'
I1
tp502
a(S'w'
I3
tp503
a(S'tr_tl'
I83
tp504
a(S'w'
I701
tp505
a(S'p2_vo'
I5
tp506
a(S'w'
I12476
tp507
a(S'p1_vo'
I2
tp508
a(S'w'
I7
tp509
a(S'p1_tl'
I170
tp510
a(S'w'
I721
tp511
a(S'p1_vo'
I3
tp512
a(S'w'
I6610
tp513
a(S'p2_tl'
I172
tp514
a(S'w'
I2935
tp515
a(S'p2_tl'
I166
tp516
a(S'w'
I2935
tp517
a(S'p2_tl'
I172
tp518
a(S'w'
I2935
tp519
a(S'p2_tl'
I166
tp520
a(S'w'
I2936
tp521
a(S'p2_tl'
I172
tp522
a(S'w'
I2938
tp523
a(S'p2_vo'
I4
tp524
a(S'w'
I7
tp525
a(S'p2_tl'
I213
tp526
a(S'w'
I19
tp527
a(S'tr_ll'
I1
tp528
a(S'tr_th'
I2
tp529
a(S'w'
I3
tp530
a(S'tr_tl'
I27
tp531
a(S'w'
I700
tp532
a(S'p2_vo'
I5
tp533
a(S'w'
I746
tp534
a(S'tr_ll'
I1
tp535
a(S'tr_th'
I1
tp536
a(S'w'
I3
tp537
a(S'tr_tl'
I252
tp538
a(S'w'
I2937
tp539
a(S'tr_ll'
I1
tp540
a(S'w'
I8790
tp541
a(S'p1_vo'
I2
tp542
a(S'w'
I7
tp543
a(S'p1_tl'
I214
tp544
a(S'w'
I721
tp545
a(S'p1_vo'
I3
tp546
a(S'w'
I3679
tp547
a(S'p2_vo'
I4
tp548
a(S'w'
I7
tp549
a(S'p2_tl'
I190
tp550
a(S'w'
I721
tp551
a(S'p2_vo'
I5
tp552
a(S'w'
I12476
tp553
a(S'p1_vo'
I2
tp554
a(S'w'
I7
tp555
a(S'p1_tl'
I191
tp556
a(S'w'
I721
tp557
a(S'p1_vo'
I3
tp558
a(S'w'
I3679
tp559
a(S'p2_vo'
I4
tp560
a(S'w'
I7
tp561
a(S'p2_tl'
I169
tp562
a(S'w'
I721
tp563
a(S'p2_vo'
I5
tp564
a(S'w'
I12476
tp565
a(S'p1_vo'
I2
tp566
a(S'w'
I7
tp567
a(S'p1_tl'
I170
tp568
a(S'w'
I722
tp569
a(S'p1_vo'
I3
tp570
a(S'w'
I3678
tp571
a(S'p2_vo'
I4
tp572
a(S'w'
I7
tp573
a(S'p2_tl'
I142
tp574
a(S'w'
I722
tp575
a(S'p2_vo'
I5
tp576
a(S'w'
I12475
tp577
a(S'p1_vo'
I2
tp578
a(S'w'
I7
tp579
a(S'p1_tl'
I143
tp580
a(S'w'
I722
tp581
a(S'p1_vo'
I3
tp582
a(S'w'
I3678
tp583
a(S'p2_vo'
I4
tp584
a(S'w'
I7
tp585
a(S'p2_tl'
I113
tp586
a(S'w'
I20
tp587
a(S'tr_ll'
I1
tp588
a(S'w'
I3
tp589
a(S'tr_tl'
I83
tp590
a(S'w'
I699
tp591
a(S'p2_vo'
I5
tp592
a(S'w'
I12476
tp593
a(S'p1_vo'
I2
tp594
a(S'w'
I7
tp595
a(S'p1_tl'
I114
tp596
a(S'w'
I721
tp597
a(S'p1_vo'
I3
tp598
a(S'w'
I3679
tp599
a(S'p2_vo'
I4
tp600
a(S'w'
I7
tp601
a(S'p2_tl'
I127
tp602
a(S'w'
I721
tp603
a(S'p2_vo'
I5
tp604
a(S'w'
I12476
tp605
a(S'p1_vo'
I2
tp606
a(S'w'
I7
tp607
a(S'p1_tl'
I128
tp608
a(S'w'
I721
tp609
a(S'p1_vo'
I3
tp610
a(S'w'
I3682
tp611
a(S'p2_vo'
I4
tp612
a(S'w'
I7
tp613
a(S'p2_tl'
I151
tp614
a(S'w'
I17
tp615
a(S'tr_ll'
I1
tp616
a(S'w'
I3
tp617
a(S'tr_tl'
I125
tp618
a(S'w'
I698
tp619
a(S'p2_vo'
I5
tp620
a(S'w'
I12479
tp621
a(S'p1_vo'
I2
tp622
a(S'w'
I7
tp623
a(S'p1_tl'
I152
tp624
a(S'w'
I719
tp625
a(S'p1_vo'
I3
tp626
a(S'w'
I5142
tp627
a(S'p2_tl'
I154
tp628
a(S'w'
I2935
tp629
a(S'p2_tl'
I148
tp630
a(S'w'
I2935
tp631
a(S'p2_tl'
I154
tp632
a(S'w'
I2936
tp633
a(S'p2_tl'
I148
tp634
a(S'w'
I2935
tp635
a(S'p2_tl'
I154
tp636
a(S'w'
I2935
tp637
a(S'p2_tl'
I148
tp638
a(S'w'
I1480
tp639
a(S'tr_ll'
I1
tp640
a(S'w'
I3
tp641
a(S'tr_tl'
I83
tp642
a(S'w'
I1452
tp643
a(S'p2_tl'
I154
tp644
a(S'w'
I2936
tp645
a(S'p2_tl'
I148
tp646
a(S'w'
I2935
tp647
a(S'p2_tl'
I154
tp648
a(S'w'
I2935
tp649
a(S'p2_tl'
I148
tp650
a(S'w'
I2935
tp651
a(S'p2_tl'
I154
tp652
a(S'w'
I2935
tp653
a(S'p2_tl'
I148
tp654
a(S'w'
I2936
tp655
a(S'p2_tl'
I154
tp656
a(S'w'
I2935
tp657
a(S'p2_tl'
I148
tp658
a(S'w'
I2935
tp659
a(S'p2_tl'
I154
tp660
a(S'w'
I2935
tp661
a(S'p2_tl'
I148
tp662
a(S'w'
I2935
tp663
a(S'p2_tl'
I154
tp664
a(S'w'
I2936
tp665
a(S'p2_tl'
I148
tp666
a(S'w'
I1472
tp667
a(S'p2_vo'
I4
tp668
a(S'w'
I7
tp669
a(S'p2_tl'
I127
tp670
a(S'w'
I17
tp671
a(S'tr_ll'
I1
tp672
a(S'w'
I3
tp673
a(S'tr_tl'
I46
tp674
a(S'w'
I700
tp675
a(S'p2_vo'
I5
tp676
a(S'w'
I12477
tp677
a(S'p1_vo'
I2
tp678
a(S'w'
I7
tp679
a(S'p1_tl'
I128
tp680
a(S'w'
I721
tp681
a(S'p1_vo'
I3
tp682
a(S'w'
I6610
tp683
a(S'p2_tl'
I130
tp684
a(S'w'
I2935
tp685
a(S'p2_tl'
I124
tp686
a(S'w'
I2935
tp687
a(S'p2_tl'
I130
tp688
a(S'w'
I2935
tp689
a(S'p2_tl'
I124
tp690
a(S'w'
I2935
tp691
a(S'p2_tl'
I130
tp692
a(S'w'
I2939
tp693
a(S'p2_vo'
I4
tp694
a(S'w'
I7
tp695
a(S'p2_tl'
I213
tp696
a(S'w'
I19
tp697
a(S'tr_ll'
I1
tp698
a(S'tr_th'
I2
tp699
a(S'w'
I3
tp700
a(S'tr_tl'
I27
tp701
a(S'w'
I700
tp702
a(S'p2_vo'
I5
tp703
a(S'w'
I746
tp704
a(S'tr_ll'
I1
tp705
a(S'tr_th'
I1
tp706
a(S'w'
I3
tp707
a(S'tr_tl'
I252
tp708
a(S'w'
I2937
tp709
a(S'tr_ll'
I1
tp710
a(S'w'
I8790
tp711
a(S'p1_vo'
I2
tp712
a(S'w'
I7
tp713
a(S'p1_tl'
I214
tp714
a(S'w'
I721
tp715
a(S'p1_vo'
I3
tp716
a(S'w'
I3678
tp717
a(S'p2_vo'
I4
tp718
a(S'w'
I8
tp719
a(S'p2_tl'
I190
tp720
a(S'w'
I721
tp721
a(S'p2_vo'
I5
tp722
a(S'w'
I12476
tp723
a(S'p1_vo'
I2
tp724
a(S'w'
I7
tp725
a(S'p1_tl'
I191
tp726
a(S'w'
I721
tp727
a(S'p1_vo'
I3
tp728
a(S'w'
I3679
tp729
a(S'p2_vo'
I4
tp730
a(S'w'
I7
tp731
a(S'p2_tl'
I169
tp732
a(S'w'
I19
tp733
a(S'tr_ll'
I1
tp734
a(S'tr_th'
I0
tp735
a(S'w'
I3
tp736
a(S'tr_tl'
I254
tp737
a(S'w'
I699
tp738
a(S'p2_vo'
I5
tp739
a(S'w'
I12476
tp740
a(S'p1_vo'
I2
tp741
a(S'w'
I7
tp742
a(S'p1_tl'
I170
tp743
a(S'w'
I722
tp744
a(S'p1_vo'
I3
tp745
a(S'w'
I3678
tp746
a(S'p2_vo'
I4
tp747
a(S'w'
I7
tp748
a(S'p2_tl'
I142
tp749
a(S'w'
I722
tp750
a(S'p2_vo'
I5
tp751
a(S'w'
I12475
tp752
a(S'p1_vo'
I2
tp753
a(S'w'
I7
tp754
a(S'p1_tl'
I143
tp755
a(S'w'
I722
tp756
a(S'p1_vo'
I3
tp757
a(S'w'
I3678
tp758
a(S'p2_vo'
I4
tp759
a(S'w'
I7
tp760
a(S'p2_tl'
I113
tp761
a(S'w'
I17
tp762
a(S'tr_ll'
I1
tp763
a(S'tr_th'
I1
tp764
a(S'w'
I3
tp765
a(S'tr_tl'
I29
tp766
a(S'w'
I702
tp767
a(S'p2_vo'
I5
tp768
a(S'w'
I12476
tp769
a(S'p1_vo'
I2
tp770
a(S'w'
I7
tp771
a(S'p1_tl'
I114
tp772
a(S'w'
I721
tp773
a(S'p1_vo'
I3
tp774
a(S'w'
I3678
tp775
a(S'p2_vo'
I4
tp776
a(S'w'
I7
tp777
a(S'p2_tl'
I127
tp778
a(S'w'
I722
tp779
a(S'p2_vo'
I5
tp780
a(S'w'
I12476
tp781
a(S'p1_vo'
I2
tp782
a(S'w'
I7
tp783
a(S'p1_tl'
I128
tp784
a(S'w'
I721
tp785
a(S'p1_vo'
I3
tp786
a(S'w'
I3682
tp787
a(S'p2_vo'
I4
tp788
a(S'w'
I7
tp789
a(S'p2_tl'
I190
tp790
a(S'w'
I16
tp791
a(S'tr_ll'
I1
tp792
a(S'w'
I3
tp793
a(S'tr_tl'
I46
tp794
a(S'w'
I699
tp795
a(S'p2_vo'
I5
tp796
a(S'w'
I12479
tp797
a(S'p1_vo'
I2
tp798
a(S'w'
I7
tp799
a(S'p1_tl'
I191
tp800
a(S'w'
I718
tp801
a(S'p1_vo'
I3
tp802
a(S'w'
I3687
tp803
a(S'tr_ll'
I1
tp804
a(S'w'
I3
tp805
a(S'tr_tl'
I83
tp806
a(S'w'
I1453
tp807
a(S'p2_tl'
I193
tp808
a(S'w'
I2935
tp809
a(S'p2_tl'
I187
tp810
a(S'w'
I2935
tp811
a(S'p2_tl'
I193
tp812
a(S'w'
I2936
tp813
a(S'p2_tl'
I187
tp814
a(S'w'
I2935
tp815
a(S'p2_tl'
I193
tp816
a(S'w'
I2935
tp817
a(S'p2_tl'
I187
tp818
a(S'w'
I1479
tp819
a(S'tr_ll'
I1
tp820
a(S'w'
I3
tp821
a(S'tr_tl'
I46
tp822
a(S'w'
I1453
tp823
a(S'p2_tl'
I193
tp824
a(S'w'
I2935
tp825
a(S'p2_tl'
I187
tp826
a(S'w'
I2936
tp827
a(S'p2_tl'
I193
tp828
a(S'w'
I2935
tp829
a(S'p2_tl'
I187
tp830
a(S'w'
I2935
tp831
a(S'p2_tl'
I193
tp832
a(S'w'
I2935
tp833
a(S'p2_tl'
I187
tp834
a(S'w'
I1479
tp835
a(S'tr_ll'
I1
tp836
a(S'w'
I3
tp837
a(S'tr_tl'
I125
tp838
a(S'w'
I1453
tp839
a(S'p2_tl'
I193
tp840
a(S'w'
I2936
tp841
a(S'p2_tl'
I187
tp842
a(S'w'
I2935
tp843
a(S'p2_tl'
I193
tp844
a(S'w'
I2935
tp845
a(S'p2_tl'
I187
tp846
a(S'w'
I2935
tp847
a(S'p2_tl'
I193
tp848
a(S'w'
I2936
tp849
a(S'p2_tl'
I187
tp850
a(S'w'
I1472
tp851
a(S'p2_vo'
I4
tp852
a(S'w'
I7
tp853
a(S'p2_tl'
I169
tp854
a(S'w'
I16
tp855
a(S'tr_ll'
I1
tp856
a(S'w'
I3
tp857
a(S'tr_tl'
I83
tp858
a(S'w'
I701
tp859
a(S'p2_vo'
I5
tp860
a(S'w'
I12477
tp861
a(S'p1_vo'
I2
tp862
a(S'w'
I7
tp863
a(S'p1_tl'
I170
tp864
a(S'w'
I720
tp865
a(S'p1_vo'
I3
tp866
a(S'w'
I3687
tp867
a(S'tr_ll'
I1
tp868
a(S'w'
I3
tp869
a(S'tr_tl'
I29
tp870
a(S'w'
I2921
tp871
a(S'p2_tl'
I172
tp872
a(S'w'
I2935
tp873
a(S'p2_tl'
I166
tp874
a(S'w'
I2935
tp875
a(S'p2_tl'
I172
tp876
a(S'w'
I2935
tp877
a(S'p2_tl'
I166
tp878
a(S'w'
I2935
tp879
a(S'p2_tl'
I172
tp880
a(S'w'
I2939
tp881
a(S'p2_vo'
I4
tp882
a(S'w'
I7
tp883
a(S'p2_tl'
I169
tp884
a(S'w'
I19
tp885
a(S'tr_ll'
I1
tp886
a(S'w'
I3
tp887
a(S'tr_tl'
I13
tp888
a(S'w'
I700
tp889
a(S'p2_vo'
I5
tp890
a(S'w'
I747
tp891
a(S'tr_ll'
I1
tp892
a(S'tr_th'
I0
tp893
a(S'w'
I3
tp894
a(S'tr_tl'
I254
tp895
a(S'w'
I2936
tp896
a(S'tr_ll'
I1
tp897
a(S'w'
I8789
tp898
a(S'p1_vo'
I2
tp899
a(S'w'
I7
tp900
a(S'w'
I722
tp901
a(S'p1_vo'
I3
tp902
a(S'w'
I3678
tp903
a(S'p2_vo'
I4
tp904
a(S'w'
I7
tp905
a(S'p2_tl'
I190
tp906
a(S'w'
I722
tp907
a(S'p2_vo'
I5
tp908
a(S'w'
I12476
tp909
a(S'p1_vo'
I2
tp910
a(S'w'
I7
tp911
a(S'p1_tl'
I191
tp912
a(S'w'
I721
tp913
a(S'p1_vo'
I3
tp914
a(S'w'
I3678
tp915
a(S'p2_vo'
I4
tp916
a(S'w'
I8
tp917
a(S'p2_tl'
I213
tp918
a(S'w'
I18
tp919
a(S'tr_ll'
I1
tp920
a(S'tr_th'
I1
tp921
a(S'w'
I2
tp922
a(S'tr_tl'
I252
tp923
a(S'w'
I701
tp924
a(S'p2_vo'
I5
tp925
a(S'w'
I12476
tp926
a(S'p1_vo'
I2
tp927
a(S'w'
I7
tp928
a(S'p1_tl'
I214
tp929
a(S'w'
I721
tp930
a(S'p1_vo'
I3
tp931
a(S'w'
I3679
tp932
a(S'p2_vo'
I4
tp933
a(S'w'
I7
tp934
a(S'p2_tl'
I190
tp935
a(S'w'
I15
tp936
a(S'tr_ll'
I1
tp937
a(S'w'
I3
tp938
a(S'tr_tl'
I197
tp939
a(S'w'
I703
tp940
a(S'p2_vo'
I5
tp941
a(S'w'
I12476
tp942
a(S'p1_vo'
I2
tp943
a(S'w'
I7
tp944
a(S'p1_tl'
I191
tp945
a(S'w'
I722
tp946
a(S'p1_vo'
I3
tp947
a(S'w'
I3678
tp948
a(S'p2_vo'
I4
tp949
a(S'w'
I7
tp950
a(S'p2_tl'
I169
tp951
a(S'w'
I19
tp952
a(S'tr_ll'
I1
tp953
a(S'w'
I2
tp954
a(S'tr_tl'
I171
tp955
a(S'w'
I701
tp956
a(S'p2_vo'
I5
tp957
a(S'w'
I12475
tp958
a(S'p1_vo'
I2
tp959
a(S'w'
I7
tp960
a(S'p1_tl'
I170
tp961
a(S'w'
I722
tp962
a(S'p1_vo'
I3
tp963
a(S'w'
I3678
tp964
a(S'p2_vo'
I4
tp965
a(S'w'
I7
tp966
a(S'p2_tl'
I142
tp967
a(S'w'
I18
tp968
a(S'tr_ll'
I1
tp969
a(S'w'
I3
tp970
a(S'tr_tl'
I252
tp971
a(S'w'
I701
tp972
a(S'p2_vo'
I5
tp973
a(S'w'
I12475
tp974
a(S'p1_vo'
I2
tp975
a(S'w'
I7
tp976
a(S'p1_tl'
I143
tp977
a(S'w'
I722
tp978
a(S'p1_vo'
I3
tp979
a(S'w'
I3681
tp980
a(S'p1_du'
I3
tp981
a(S'p1_vo'
I4
tp982
a(S'w'
I6
tp983
a(S'p1_ll'
I1
tp984
a(S'p1_th'
I1
tp985
a(S'w'
I3
tp986
a(S'p1_tl'
I47
tp987
a(S'w'
I16
tp988
a(S'p2_vo'
I4
tp989
a(S'w'
I7
tp990
a(S'p2_tl'
I190
tp991
a(S'w'
I21
tp992
a(S'tr_ll'
I1
tp993
a(S'w'
I3
tp994
a(S'tr_tl'
I125
tp995
a(S'w'
I666
tp996
a(S'p1_vo'
I3
tp997
a(S'w'
I7
tp998
a(S'p2_vo'
I5
tp999
a(S'w'
I18344
tp1000
a(S'p2_tl'
I193
tp1001
a(S'w'
I2935
tp1002
a(S'p2_tl'
I187
tp1003
a(S'w'
I2935
tp1004
a(S'p2_tl'
I193
tp1005
a(S'w'
I2936
tp1006
a(S'p2_tl'
I187
tp1007
a(S'w'
I2935
tp1008
a(S'p2_tl'
I193
tp1009
a(S'w'
I2935
tp1010
a(S'p2_tl'
I187
tp1011
a(S'w'
I1468
tp1012
a(S'p1_vo'
I4
tp1013
a(S'w'
I6
tp1014
a(S'p1_tl'
I84
tp1015
a(S'w'
I722
tp1016
a(S'p1_vo'
I3
tp1017
a(S'w'
I739
tp1018
a(S'p2_tl'
I193
tp1019
a(S'w'
I2935
tp1020
a(S'p2_tl'
I187
tp1021
a(S'w'
I2935
tp1022
a(S'p2_tl'
I193
tp1023
a(S'w'
I2936
tp1024
a(S'p2_tl'
I187
tp1025
a(S'w'
I2935
tp1026
a(S'p2_tl'
I193
tp1027
a(S'w'
I2935
tp1028
a(S'p2_tl'
I187
tp1029
a(S'w'
I2935
tp1030
a(S'p2_tl'
I193
tp1031
a(S'w'
I2935
tp1032
a(S'p2_tl'
I187
tp1033
a(S'w'
I2936
tp1034
a(S'p2_tl'
I193
tp1035
a(S'w'
I2935
tp1036
a(S'p2_tl'
I187
tp1037
a(S'w'
I2935
tp1038
a(S'p2_tl'
I193
tp1039
a(S'w'
I2935
tp1040
a(S'p2_tl'
I187
tp1041
a(S'w'
I1468
tp1042
a(S'p1_vo'
I4
tp1043
a(S'w'
I7
tp1044
a(S'p1_tl'
I126
tp1045
a(S'w'
I13
tp1046
a(S'p2_vo'
I4
tp1047
a(S'w'
I7
tp1048
a(S'p2_tl'
I169
tp1049
a(S'w'
I16
tp1050
a(S'tr_ll'
I1
tp1051
a(S'w'
I3
tp1052
a(S'tr_tl'
I46
tp1053
a(S'w'
I682
tp1054
a(S'p1_vo'
I3
tp1055
a(S'w'
I7
tp1056
a(S'p2_vo'
I5
tp1057
a(S'w'
I8081
tp1058
a(S'tr_ll'
I1
tp1059
a(S'tr_th'
I0
tp1060
a(S'w'
I3
tp1061
a(S'tr_tl'
I254
tp1062
a(S'w'
I8803
tp1063
a(S'tr_ll'
I1
tp1064
a(S'tr_th'
I1
tp1065
a(S'w'
I3
tp1066
a(S'tr_tl'
I29
tp1067
a(S'w'
I2921
tp1068
a(S'p2_tl'
I172
tp1069
a(S'w'
I2936
tp1070
a(S'p2_tl'
I166
tp1071
a(S'w'
I2935
tp1072
a(S'p2_tl'
I172
tp1073
a(S'w'
I16
tp1074
a(S'tr_ll'
I1
tp1075
a(S'tr_th'
I0
tp1076
a(S'w'
I3
tp1077
a(S'tr_tl'
I226
tp1078
a(S'w'
I2916
tp1079
a(S'p2_tl'
I166
tp1080
a(S'w'
I2935
tp1081
a(S'p2_tl'
I172
tp1082
a(S'w'
I2943
tp1083
a(S'p1_du'
I0
tp1084
a(S'p1_vo'
I0
tp1085
a(S'w'
I21
tp1086
a(S'p2_vo'
I4
tp1087
a(S'w'
I7
tp1088
a(S'p2_tl'
I213
tp1089
a(S'w'
I21
tp1090
a(S'tr_ll'
I1
tp1091
a(S'tr_th'
I2
tp1092
a(S'w'
I3
tp1093
a(S'tr_tl'
I27
tp1094
a(S'w'
I672
tp1095
a(S'p2_vo'
I5
tp1096
a(S'w'
I746
tp1097
a(S'tr_ll'
I1
tp1098
a(S'tr_th'
I1
tp1099
a(S'w'
I3
tp1100
a(S'tr_tl'
I252
tp1101
a(S'w'
I2936
tp1102
a(S'tr_ll'
I1
tp1103
a(S'w'
I8791
tp1104
a(S'p1_du'
I2
tp1105
a(S'p1_vo'
I2
tp1106
a(S'w'
I7
tp1107
a(S'p1_ll'
I1
tp1108
a(S'p1_th'
I0
tp1109
a(S'w'
I3
tp1110
a.