(lp1
(S'clock'
p2
I1789772
tp3
a(S'p1_lh'
I1
tp4
a(S'p1_cv'
I1
tp5
a(S'p1_sp'
I3
tp6
a(S'p1_tl'
I31
tp7
a(S'p1_ll'
I1
tp8
a(S'p2_lh'
I1
tp9
a(S'p2_cv'
I1
tp10
a(S'p2_sp'
I3
tp11
a(S'p2_tl'
I31
tp12
a(S'p2_ll'
I1
tp13
a(S'tr_tl'
I197
tp14
a(S'tr_ll'
I1
tp15
a(S'tr_th'
I1
tp16
a(S'no_lh'
I1
tp17
a(S'no_cv'
I1
tp18
a(S'no_np'
I2
tp19
a(S'no_ll'
I1
tp20
a(S'ch_no'
I1
tp21
a(S'ch_tr'
I1
tp22
a(S'ch_p2'
I1
tp23
a(S'ch_p1'
I1
tp24
a(S'fc_mo'
I1
tp25
a(S'p1_du'
I2
tp26
a(S'w'
I4
tp27
a(S'p1_ll'
I1
tp28
a(S'w'
I3
tp29
a(S'p1_tl'
I0
tp30
a(S'w'
I11
tp31
a(S'p2_du'
I2
tp32
a(S'p2_vo'
I14
tp33
a(S'w'
I4
tp34
a(S'p2_ll'
I1
tp35
a(S'w'
I3
tp36
a(S'p2_tl'
I127
tp37
a(S'w'
I2184
tp38
a(S'w'
I8
tp39
a(S'p2_vo'
I3
tp40
a(S'w'
I5
tp41
a(S'w'
I2183
tp42
a(S'p1_vo'
I6
tp43
a(S'w'
I5
tp44
a(S'p1_tl'
I127
tp45
a(S'w'
I8
tp46
a(S'p2_vo'
I10
tp47
a(S'w'
I5
tp48
a(S'p2_tl'
I84
tp49
a(S'w'
I2183
tp50
a(S'p1_vo'
I2
tp51
a(S'w'
I5
tp52
a(S'w'
I9
tp53
a(S'p2_vo'
I3
tp54
a(S'w'
I5
tp55
a(S'w'
I2183
tp56
a(S'p1_vo'
I6
tp57
a(S'w'
I5
tp58
a(S'p1_tl'
I84
tp59
a(S'w'
I8
tp60
a(S'p2_vo'
I10
tp61
a(S'w'
I5
tp62
a(S'p2_tl'
I71
tp63
a(S'w'
I2183
tp64
a(S'p1_vo'
I2
tp65
a(S'w'
I5
tp66
a(S'w'
I8
tp67
a(S'p2_vo'
I3
tp68
a(S'w'
I5
tp69
a(S'w'
I2184
tp70
a(S'p1_vo'
I6
tp71
a(S'w'
I5
tp72
a(S'p1_tl'
I71
tp73
a(S'w'
I8
tp74
a(S'p2_vo'
I10
tp75
a(S'w'
I5
tp76
a(S'p2_tl'
I50
tp77
a(S'w'
I2183
tp78
a(S'p1_vo'
I2
tp79
a(S'w'
I5
tp80
a(S'w'
I8
tp81
a(S'p2_vo'
I3
tp82
a(S'w'
I5
tp83
a(S'w'
I2183
tp84
a(S'p1_vo'
I6
tp85
a(S'w'
I5
tp86
a(S'p1_tl'
I50
tp87
a(S'w'
I10
tp88
a(S'p2_vo'
I11
tp89
a(S'w'
I6
tp90
a(S'p2_tl'
I42
tp91
a(S'w'
I2181
tp92
a(S'p1_vo'
I2
tp93
a(S'w'
I5
tp94
a(S'w'
I8
tp95
a(S'p2_vo'
I10
tp96
a(S'w'
I5
tp97
a(S'w'
I2185
tp98
a(S'p1_vo'
I6
tp99
a(S'w'
I5
tp100
a(S'p1_tl'
I42
tp101
a(S'w'
I8
tp102
a(S'p2_vo'
I9
tp103
a(S'w'
I5
tp104
a(S'w'
I2182
tp105
a(S'p1_vo'
I5
tp106
a(S'w'
I5
tp107
a(S'w'
I8
tp108
a(S'p2_vo'
I8
tp109
a(S'w'
I5
tp110
a(S'w'
I2183
tp111
a(S'p1_vo'
I4
tp112
a(S'w'
I5
tp113
a(S'w'
I8
tp114
a(S'p2_vo'
I7
tp115
a(S'w'
I5
tp116
a(S'w'
I2183
tp117
a(S'p1_vo'
I3
tp118
a(S'w'
I5
tp119
a(S'w'
I8
tp120
a(S'p2_vo'
I6
tp121
a(S'w'
I6
tp122
a(S'w'
I2183
tp123
a(S'p1_vo'
I2
tp124
a(S'w'
I5
tp125
a(S'w'
I8
tp126
a(S'p2_vo'
I5
tp127
a(S'w'
I5
tp128
a(S'w'
I2183
tp129
a(S'p1_vo'
I1
tp130
a(S'w'
I5
tp131
a(S'w'
I8
tp132
a(S'p2_vo'
I4
tp133
a(S'w'
I6
tp134
a(S'w'
I2188
tp135
a(S'w'
I8
tp136
a(S'p2_vo'
I3
tp137
a(S'w'
I5
tp138
a(S'w'
I2188
tp139
a(S'w'
I8
tp140
a(S'p2_vo'
I2
tp141
a(S'w'
I6
tp142
a(S'w'
I2187
tp143
a(S'w'
I9
tp144
a(S'p2_vo'
I1
tp145
a(S'w'
I5
tp146
a(S'w'
I2188
tp147
a(S'w'
I8
tp148
a(S'p2_vo'
I0
tp149
a(S'w'
I5
tp150
a(S'p2_tl'
I0
tp151
a(S'w'
I2188
tp152
a(S'w'
I14
tp153
a(S'w'
I2185
tp154
a(S'p1_vo'
I0
tp155
a(S'w'
I4
tp156
a(S'p1_tl'
I0
tp157
a(S'w'
I16
tp158
a(S'w'
I8788
tp159
a(S'w'
I13
tp160
a.