(lp1
(S'clock'
p2
I1789772
tp3
a(S'p1_lh'
I1
tp4
a(S'p1_cv'
I1
tp5
a(S'p1_sp'
I3
tp6
a(S'p1_ll'
I1
tp7
a(S'p2_lh'
I1
tp8
a(S'p2_cv'
I1
tp9
a(S'p2_sp'
I3
tp10
a(S'p2_ll'
I1
tp11
a(S'tr_tl'
I252
tp12
a(S'tr_ll'
I1
tp13
a(S'tr_th'
I1
tp14
a(S'no_lh'
I1
tp15
a(S'no_cv'
I1
tp16
a(S'ch_no'
I1
tp17
a(S'ch_tr'
I1
tp18
a(S'ch_p2'
I1
tp19
a(S'ch_p1'
I1
tp20
a(S'fc_mo'
I1
tp21
a(S'p2_du'
I2
tp22
a(S'p2_vo'
I7
tp23
a(S'w'
I6
tp24
a(S'p2_ll'
I1
tp25
a(S'w'
I3
tp26
a(S'p2_tl'
I254
tp27
a(S'w'
I15
tp28
a(S'tr_lh'
I1
tp29
a(S'tr_lr'
I16
tp30
a(S'w'
I5
tp31
a(S'tr_ll'
I1
tp32
a(S'w'
I3
tp33
a(S'tr_tl'
I125
tp34
a(S'w'
I574
tp35
a(S'p2_vo'
I6
tp36
a(S'w'
I771
tp37
a(S'p2_vo'
I5
tp38
a(S'w'
I7341
tp39
a(S'p1_du'
I2
tp40
a(S'p1_vo'
I2
tp41
a(S'w'
I6
tp42
a(S'p1_ll'
I1
tp43
a(S'w'
I3
tp44
a(S'p1_tl'
I255
tp45
a(S'w'
I15
tp46
a(S'p2_vo'
I7
tp47
a(S'w'
I7
tp48
a(S'p2_tl'
I190
tp49
a(S'w'
I701
tp50
a(S'p2_vo'
I6
tp51
a(S'w'
I733
tp52
a(S'p2_vo'
I5
tp53
a(S'w'
I2954
tp54
a(S'p2_vo'
I7
tp55
a(S'w'
I7
tp56
a(S'p2_tl'
I201
tp57
a(S'w'
I839
tp58
a(S'p2_vo'
I6
tp59
a(S'w'
I734
tp60
a(S'p2_vo'
I5
tp61
a(S'w'
I2944
tp62
a(S'p1_tl'
I191
tp63
a(S'w'
I13
tp64
a(S'p2_vo'
I7
tp65
a(S'w'
I7
tp66
a(S'p2_tl'
I190
tp67
a(S'w'
I705
tp68
a(S'p2_vo'
I6
tp69
a(S'w'
I733
tp70
a(S'p2_vo'
I5
tp71
a(S'w'
I2942
tp72
a(S'p1_tl'
I202
tp73
a(S'w'
I4404
tp74
a(S'p1_tl'
I191
tp75
a(S'w'
I4399
tp76
a(S'p2_vo'
I7
tp77
a(S'w'
I7
tp78
a(S'p2_tl'
I201
tp79
a(S'w'
I723
tp80
a(S'p2_vo'
I6
tp81
a(S'w'
I734
tp82
a(S'p2_vo'
I5
tp83
a(S'w'
I2942
tp84
a(S'p2_vo'
I7
tp85
a(S'w'
I6
tp86
a(S'p2_tl'
I226
tp87
a(S'w'
I19
tp88
a(S'tr_ll'
I1
tp89
a(S'tr_th'
I2
tp90
a(S'w'
I3
tp91
a(S'tr_tl'
I59
tp92
a(S'w'
I699
tp93
a(S'p2_vo'
I6
tp94
a(S'w'
I734
tp95
a(S'p2_vo'
I5
tp96
a(S'w'
I2941
tp97
a(S'p1_tl'
I202
tp98
a(S'w'
I15
tp99
a(S'p2_vo'
I7
tp100
a(S'w'
I7
tp101
a(S'p2_tl'
I201
tp102
a(S'w'
I706
tp103
a(S'p2_vo'
I6
tp104
a(S'w'
I733
tp105
a(S'p2_vo'
I5
tp106
a(S'w'
I2944
tp107
a(S'p1_tl'
I227
tp108
a(S'w'
I15
tp109
a(S'p2_vo'
I7
tp110
a(S'w'
I7
tp111
a(S'p2_tl'
I190
tp112
a(S'w'
I703
tp113
a(S'p2_vo'
I6
tp114
a(S'w'
I734
tp115
a(S'p2_vo'
I5
tp116
a(S'w'
I2945
tp117
a(S'p1_tl'
I202
tp118
a(S'w'
I4401
tp119
a(S'p1_tl'
I191
tp120
a(S'w'
I7331
tp121
a(S'p2_tl'
I192
tp122
a(S'w'
I2936
tp123
a(S'p2_tl'
I188
tp124
a(S'w'
I1466
tp125
a(S'p2_vo'
I4
tp126
a(S'w'
I734
tp127
a(S'p2_vo'
I3
tp128
a(S'w'
I738
tp129
a(S'p2_vo'
I7
tp130
a(S'w'
I7
tp131
a(S'p2_tl'
I151
tp132
a(S'w'
I722
tp133
a(S'p2_vo'
I6
tp134
a(S'w'
I734
tp135
a(S'p2_vo'
I5
tp136
a(S'w'
I2943
tp137
a(S'p2_vo'
I7
tp138
a(S'w'
I7
tp139
a(S'p2_tl'
I142
tp140
a(S'w'
I14
tp141
a(S'tr_lh'
I0
tp142
a(S'tr_lr'
I92
tp143
a(S'w'
I6
tp144
a(S'tr_ll'
I1
tp145
a(S'tr_th'
I1
tp146
a(S'w'
I3
tp147
a(S'tr_tl'
I83
tp148
a(S'w'
I696
tp149
a(S'p2_vo'
I6
tp150
a(S'w'
I734
tp151
a(S'p2_vo'
I5
tp152
a(S'w'
I2942
tp153
a(S'p1_tl'
I152
tp154
a(S'w'
I4404
tp155
a(S'p1_tl'
I143
tp156
a(S'w'
I7331
tp157
a(S'p2_tl'
I144
tp158
a(S'w'
I1481
tp159
a(S'tr_ll'
I1
tp160
a(S'tr_th'
I2
tp161
a(S'w'
I3
tp162
a(S'tr_tl'
I27
tp163
a(S'w'
I1451
tp164
a(S'p2_tl'
I140
tp165
a(S'w'
I1467
tp166
a(S'p2_vo'
I4
tp167
a(S'w'
I733
tp168
a(S'p2_vo'
I3
tp169
a(S'w'
I739
tp170
a(S'p2_vo'
I7
tp171
a(S'w'
I7
tp172
a(S'p2_tl'
I151
tp173
a(S'w'
I722
tp174
a(S'p2_vo'
I6
tp175
a(S'w'
I734
tp176
a(S'p2_vo'
I5
tp177
a(S'w'
I2940
tp178
a(S'p2_vo'
I7
tp179
a(S'w'
I7
tp180
a(S'p2_tl'
I169
tp181
a(S'w'
I722
tp182
a(S'p2_vo'
I6
tp183
a(S'w'
I734
tp184
a(S'p2_vo'
I5
tp185
a(S'w'
I2942
tp186
a(S'p1_tl'
I152
tp187
a(S'w'
I12
tp188
a(S'p2_vo'
I7
tp189
a(S'w'
I7
tp190
a(S'p2_tl'
I151
tp191
a(S'w'
I708
tp192
a(S'p2_vo'
I6
tp193
a(S'w'
I734
tp194
a(S'p2_vo'
I5
tp195
a(S'w'
I2942
tp196
a(S'p1_tl'
I170
tp197
a(S'w'
I12
tp198
a(S'p2_vo'
I7
tp199
a(S'w'
I7
tp200
a(S'p2_tl'
I201
tp201
a(S'w'
I15
tp202
a(S'tr_ll'
I1
tp203
a(S'tr_th'
I1
tp204
a(S'w'
I3
tp205
a(S'tr_tl'
I252
tp206
a(S'w'
I690
tp207
a(S'p2_vo'
I6
tp208
a(S'w'
I734
tp209
a(S'p2_vo'
I5
tp210
a(S'w'
I2941
tp211
a(S'p1_tl'
I152
tp212
a(S'w'
I12
tp213
a(S'p2_vo'
I7
tp214
a(S'w'
I7
tp215
a(S'p2_tl'
I169
tp216
a(S'w'
I709
tp217
a(S'p2_vo'
I6
tp218
a(S'w'
I733
tp219
a(S'p2_vo'
I5
tp220
a(S'w'
I2942
tp221
a(S'p1_tl'
I202
tp222
a(S'w'
I15
tp223
a(S'p2_vo'
I7
tp224
a(S'w'
I7
tp225
a(S'p2_tl'
I127
tp226
a(S'w'
I705
tp227
a(S'p2_vo'
I6
tp228
a(S'w'
I734
tp229
a(S'p2_vo'
I5
tp230
a(S'w'
I2942
tp231
a(S'p1_tl'
I170
tp232
a(S'w'
I4404
tp233
a(S'p1_tl'
I128
tp234
a(S'w'
I23
tp235
a(S'tr_ll'
I1
tp236
a(S'w'
I3
tp237
a(S'tr_tl'
I147
tp238
a(S'w'
I7305
tp239
a(S'p2_tl'
I129
tp240
a(S'w'
I2936
tp241
a(S'p2_tl'
I125
tp242
a(S'w'
I1466
tp243
a(S'p2_vo'
I4
tp244
a(S'w'
I734
tp245
a(S'p2_vo'
I3
tp246
a(S'w'
I738
tp247
a(S'p2_vo'
I7
tp248
a(S'w'
I7
tp249
a(S'p2_tl'
I142
tp250
a(S'w'
I722
tp251
a(S'p2_vo'
I6
tp252
a(S'w'
I734
tp253
a(S'p2_vo'
I5
tp254
a(S'w'
I2941
tp255
a(S'p2_vo'
I7
tp256
a(S'w'
I7
tp257
a(S'p2_tl'
I151
tp258
a(S'w'
I12
tp259
a(S'tr_lh'
I1
tp260
a(S'tr_lr'
I16
tp261
a(S'w'
I6
tp262
a(S'tr_ll'
I1
tp263
a(S'w'
I3
tp264
a(S'tr_tl'
I125
tp265
a(S'w'
I700
tp266
a(S'p2_vo'
I6
tp267
a(S'w'
I734
tp268
a(S'p2_vo'
I5
tp269
a(S'w'
I2942
tp270
a(S'p1_tl'
I143
tp271
a(S'w'
I4403
tp272
a(S'p1_tl'
I152
tp273
a(S'w'
I15
tp274
a(S'p2_vo'
I7
tp275
a(S'w'
I7
tp276
a(S'p2_tl'
I95
tp277
a(S'w'
I705
tp278
a(S'p2_vo'
I6
tp279
a(S'w'
I734
tp280
a(S'p2_vo'
I5
tp281
a(S'w'
I2939
tp282
a(S'p2_vo'
I7
tp283
a(S'w'
I8
tp284
a(S'p2_tl'
I100
tp285
a(S'w'
I722
tp286
a(S'p2_vo'
I6
tp287
a(S'w'
I733
tp288
a(S'p2_vo'
I5
tp289
a(S'w'
I2945
tp290
a(S'p1_tl'
I96
tp291
a(S'w'
I14
tp292
a(S'p2_vo'
I7
tp293
a(S'w'
I7
tp294
a(S'p2_tl'
I95
tp295
a(S'w'
I703
tp296
a(S'p2_vo'
I6
tp297
a(S'w'
I734
tp298
a(S'p2_vo'
I5
tp299
a(S'w'
I2943
tp300
a(S'p1_tl'
I101
tp301
a(S'w'
I4403
tp302
a(S'p1_tl'
I96
tp303
a(S'w'
I4399
tp304
a(S'p2_vo'
I7
tp305
a(S'w'
I8
tp306
a(S'p2_tl'
I100
tp307
a(S'w'
I722
tp308
a(S'p2_vo'
I6
tp309
a(S'w'
I734
tp310
a(S'p2_vo'
I5
tp311
a(S'w'
I2943
tp312
a(S'p2_vo'
I7
tp313
a(S'w'
I7
tp314
a(S'p2_tl'
I113
tp315
a(S'w'
I19
tp316
a(S'tr_ll'
I1
tp317
a(S'w'
I3
tp318
a(S'tr_tl'
I197
tp319
a(S'w'
I697
tp320
a(S'p2_vo'
I6
tp321
a(S'w'
I733
tp322
a(S'p2_vo'
I5
tp323
a(S'w'
I2943
tp324
a(S'p1_tl'
I101
tp325
a(S'w'
I4405
tp326
a(S'p1_tl'
I114
tp327
a(S'w'
I16
tp328
a(S'p2_vo'
I7
tp329
a(S'w'
I7
tp330
a(S'p2_tl'
I95
tp331
a(S'w'
I701
tp332
a(S'p2_vo'
I6
tp333
a(S'w'
I734
tp334
a(S'p2_vo'
I5
tp335
a(S'w'
I7348
tp336
a(S'p1_tl'
I96
tp337
a(S'w'
I16
tp338
a(S'p2_vo'
I7
tp339
a(S'w'
I7
tp340
a(S'p2_tl'
I127
tp341
a(S'w'
I701
tp342
a(S'p2_vo'
I6
tp343
a(S'w'
I734
tp344
a(S'p2_vo'
I5
tp345
a(S'w'
I7347
tp346
a(S'p1_tl'
I128
tp347
a(S'w'
I16
tp348
a(S'p2_vo'
I7
tp349
a(S'w'
I8
tp350
a(S'p2_tl'
I95
tp351
a(S'w'
I701
tp352
a(S'p2_vo'
I6
tp353
a(S'w'
I733
tp354
a(S'p2_vo'
I5
tp355
a(S'w'
I7348
tp356
a(S'p1_tl'
I96
tp357
a(S'w'
I18
tp358
a(S'p2_vo'
I6
tp359
a(S'w'
I7
tp360
a(S'p2_tl'
I151
tp361
a(S'w'
I14
tp362
a(S'tr_lh'
I0
tp363
a(S'tr_lr'
I92
tp364
a(S'w'
I5
tp365
a(S'tr_ll'
I1
tp366
a(S'w'
I3
tp367
a(S'tr_tl'
I83
tp368
a(S'w'
I2890
tp369
a(S'p2_tl'
I142
tp370
a(S'w'
I1469
tp371
a(S'p1_tl'
I152
tp372
a(S'w'
I1466
tp373
a(S'p2_tl'
I151
tp374
a(S'w'
I1464
tp375
a(S'p1_tl'
I143
tp376
a(S'w'
I1472
tp377
a(S'p2_tl'
I142
tp378
a(S'w'
I1463
tp379
a(S'p1_tl'
I152
tp380
a(S'w'
I1472
tp381
a(S'p2_tl'
I151
tp382
a(S'w'
I1463
tp383
a(S'p1_tl'
I143
tp384
a(S'w'
I1472
tp385
a(S'p2_tl'
I142
tp386
a(S'w'
I1464
tp387
a(S'p1_tl'
I152
tp388
a(S'w'
I1471
tp389
a(S'p2_tl'
I151
tp390
a(S'w'
I18
tp391
a(S'tr_ll'
I1
tp392
a(S'w'
I3
tp393
a(S'tr_tl'
I197
tp394
a(S'w'
I1443
tp395
a(S'p1_tl'
I143
tp396
a(S'w'
I1472
tp397
a(S'p2_tl'
I142
tp398
a(S'w'
I1463
tp399
a(S'p1_tl'
I152
tp400
a(S'w'
I1472
tp401
a(S'p2_tl'
I151
tp402
a(S'w'
I1463
tp403
a(S'p1_tl'
I143
tp404
a(S'w'
I1470
tp405
a(S'p2_vo'
I7
tp406
a(S'w'
I7
tp407
a(S'p2_tl'
I169
tp408
a(S'w'
I717
tp409
a(S'p2_vo'
I6
tp410
a(S'w'
I741
tp411
a(S'p1_tl'
I152
tp412
a(S'w'
I8
tp413
a(S'p2_vo'
I5
tp414
a(S'w'
I2921
tp415
a(S'p1_du'
I0
tp416
a(S'p1_vo'
I0
tp417
a(S'w'
I12
tp418
a(S'p2_vo'
I7
tp419
a(S'w'
I7
tp420
a(S'p2_tl'
I190
tp421
a(S'w'
I713
tp422
a(S'p2_vo'
I6
tp423
a(S'w'
I734
tp424
a(S'p2_vo'
I5
tp425
a(S'w'
I2938
tp426
a(S'p1_du'
I2
tp427
a(S'p1_vo'
I2
tp428
a(S'w'
I7
tp429
a(S'p1_tl'
I170
tp430
a(S'w'
I16
tp431
a(S'p2_vo'
I7
tp432
a(S'w'
I7
tp433
a(S'p2_tl'
I169
tp434
a(S'w'
I16
tp435
a(S'tr_ll'
I1
tp436
a(S'w'
I3
tp437
a(S'tr_tl'
I252
tp438
a(S'w'
I683
tp439
a(S'p2_vo'
I6
tp440
a(S'w'
I733
tp441
a(S'p2_vo'
I5
tp442
a(S'w'
I2942
tp443
a(S'p1_tl'
I191
tp444
a(S'w'
I4405
tp445
a(S'p1_tl'
I170
tp446
a(S'w'
I7331
tp447
a(S'p2_tl'
I171
tp448
a(S'w'
I1476
tp449
a(S'tr_lr'
I20
tp450
a(S'w'
I5
tp451
a(S'tr_ll'
I1
tp452
a(S'w'
I3
tp453
a(S'tr_tl'
I147
tp454
a(S'w'
I1451
tp455
a(S'p2_tl'
I167
tp456
a(S'w'
I2935
tp457
a(S'p2_tl'
I171
tp458
a(S'w'
I16
tp459
a(S'tr_ll'
I1
tp460
a(S'w'
I3
tp461
a(S'tr_tl'
I125
tp462
a(S'w'
I2916
tp463
a(S'p2_tl'
I167
tp464
a(S'w'
I1478
tp465
a(S'tr_ll'
I1
tp466
a(S'w'
I3
tp467
a(S'tr_tl'
I83
tp468
a(S'w'
I1454
tp469
a(S'p2_tl'
I171
tp470
a(S'w'
I2936
tp471
a(S'p2_tl'
I167
tp472
a(S'w'
I16
tp473
a(S'tr_ll'
I1
tp474
a(S'w'
I3
tp475
a(S'tr_tl'
I147
tp476
a(S'w'
I2181
tp477
a(S'p2_vo'
I4
tp478
a(S'w'
I735
tp479
a(S'p2_tl'
I171
tp480
a(S'w'
I4
tp481
a(S'p2_vo'
I3
tp482
a(S'w'
I728
tp483
a(S'p2_vo'
I2
tp484
a(S'w'
I742
tp485
a(S'p2_vo'
I7
tp486
a(S'w'
I7
tp487
a(S'p2_tl'
I254
tp488
a(S'w'
I15
tp489
a(S'tr_lh'
I1
tp490
a(S'tr_lr'
I16
tp491
a(S'w'
I5
tp492
a(S'tr_ll'
I1
tp493
a(S'w'
I3
tp494
a(S'tr_tl'
I125
tp495
a(S'w'
I696
tp496
a(S'p2_vo'
I6
tp497
a(S'w'
I734
tp498
a(S'p2_vo'
I5
tp499
a(S'w'
I7347
tp500
a(S'p1_tl'
I255
tp501
a(S'w'
I15
tp502
a(S'p2_vo'
I7
tp503
a(S'w'
I7
tp504
a(S'p2_tl'
I190
tp505
a(S'w'
I703
tp506
a(S'p2_vo'
I6
tp507
a(S'w'
I734
tp508
a(S'p2_vo'
I5
tp509
a(S'w'
I2939
tp510
a(S'p2_vo'
I7
tp511
a(S'w'
I7
tp512
a(S'p2_tl'
I201
tp513
a(S'w'
I723
tp514
a(S'p2_vo'
I6
tp515
a(S'w'
I733
tp516
a(S'p2_vo'
I5
tp517
a(S'w'
I2945
tp518
a(S'p1_tl'
I191
tp519
a(S'w'
I13
tp520
a(S'p2_vo'
I7
tp521
a(S'w'
I7
tp522
a(S'p2_tl'
I190
tp523
a(S'w'
I704
tp524
a(S'p2_vo'
I6
tp525
a(S'w'
I734
tp526
a(S'p2_vo'
I5
tp527
a(S'w'
I2942
tp528
a(S'p1_tl'
I202
tp529
a(S'w'
I4404
tp530
a(S'p1_tl'
I191
tp531
a(S'w'
I4399
tp532
a(S'p2_vo'
I7
tp533
a(S'w'
I7
tp534
a(S'p2_tl'
I201
tp535
a(S'w'
I723
tp536
a(S'p2_vo'
I6
tp537
a(S'w'
I734
tp538
a(S'p2_vo'
I5
tp539
a(S'w'
I2942
tp540
a(S'p2_vo'
I7
tp541
a(S'w'
I6
tp542
a(S'p2_tl'
I226
tp543
a(S'w'
I19
tp544
a(S'tr_ll'
I1
tp545
a(S'tr_th'
I2
tp546
a(S'w'
I3
tp547
a(S'tr_tl'
I59
tp548
a(S'w'
I699
tp549
a(S'p2_vo'
I6
tp550
a(S'w'
I733
tp551
a(S'p2_vo'
I5
tp552
a(S'w'
I2942
tp553
a(S'p1_tl'
I202
tp554
a(S'w'
I15
tp555
a(S'p2_vo'
I7
tp556
a(S'w'
I7
tp557
a(S'p2_tl'
I201
tp558
a(S'w'
I705
tp559
a(S'p2_vo'
I6
tp560
a(S'w'
I734
tp561
a(S'p2_vo'
I5
tp562
a(S'w'
I2944
tp563
a(S'p1_tl'
I227
tp564
a(S'w'
I15
tp565
a(S'p2_vo'
I7
tp566
a(S'w'
I7
tp567
a(S'p2_tl'
I190
tp568
a(S'w'
I703
tp569
a(S'p2_vo'
I6
tp570
a(S'w'
I734
tp571
a(S'p2_vo'
I5
tp572
a(S'w'
I2944
tp573
a(S'p1_tl'
I202
tp574
a(S'w'
I4402
tp575
a(S'p1_tl'
I191
tp576
a(S'w'
I8799
tp577
a(S'p2_tl'
I192
tp578
a(S'w'
I2935
tp579
a(S'p2_tl'
I188
tp580
a(S'w'
I4
tp581
a(S'p2_vo'
I4
tp582
a(S'w'
I728
tp583
a(S'p2_vo'
I3
tp584
a(S'w'
I739
tp585
a(S'p2_vo'
I7
tp586
a(S'w'
I7
tp587
a(S'p2_tl'
I151
tp588
a(S'w'
I722
tp589
a(S'p2_vo'
I6
tp590
a(S'w'
I734
tp591
a(S'p2_vo'
I5
tp592
a(S'w'
I2942
tp593
a(S'p2_vo'
I7
tp594
a(S'w'
I8
tp595
a(S'p2_tl'
I142
tp596
a(S'w'
I14
tp597
a(S'tr_lh'
I0
tp598
a(S'tr_lr'
I92
tp599
a(S'w'
I5
tp600
a(S'tr_ll'
I1
tp601
a(S'tr_th'
I1
tp602
a(S'w'
I3
tp603
a(S'tr_tl'
I83
tp604
a(S'w'
I697
tp605
a(S'p2_vo'
I6
tp606
a(S'w'
I734
tp607
a(S'p2_vo'
I5
tp608
a(S'w'
I2942
tp609
a(S'p1_tl'
I152
tp610
a(S'w'
I4404
tp611
a(S'p1_tl'
I143
tp612
a(S'w'
I8798
tp613
a(S'p2_tl'
I144
tp614
a(S'w'
I19
tp615
a(S'tr_ll'
I1
tp616
a(S'tr_th'
I2
tp617
a(S'w'
I3
tp618
a(S'tr_tl'
I27
tp619
a(S'w'
I2914
tp620
a(S'p2_tl'
I140
tp621
a(S'w'
I4
tp622
a(S'p2_vo'
I4
tp623
a(S'w'
I728
tp624
a(S'p2_vo'
I3
tp625
a(S'w'
I738
tp626
a(S'p2_vo'
I7
tp627
a(S'w'
I8
tp628
a(S'p2_tl'
I151
tp629
a(S'w'
I722
tp630
a(S'p2_vo'
I6
tp631
a(S'w'
I734
tp632
a(S'p2_vo'
I5
tp633
a(S'w'
I2939
tp634
a(S'p2_vo'
I7
tp635
a(S'w'
I7
tp636
a(S'p2_tl'
I169
tp637
a(S'w'
I723
tp638
a(S'p2_vo'
I6
tp639
a(S'w'
I734
tp640
a(S'p2_vo'
I5
tp641
a(S'w'
I2942
tp642
a(S'p1_tl'
I152
tp643
a(S'w'
I12
tp644
a(S'p2_vo'
I7
tp645
a(S'w'
I7
tp646
a(S'p2_tl'
I151
tp647
a(S'w'
I708
tp648
a(S'p2_vo'
I6
tp649
a(S'w'
I734
tp650
a(S'p2_vo'
I5
tp651
a(S'w'
I2941
tp652
a(S'p1_tl'
I170
tp653
a(S'w'
I12
tp654
a(S'p2_vo'
I7
tp655
a(S'w'
I7
tp656
a(S'p2_tl'
I201
tp657
a(S'w'
I16
tp658
a(S'tr_ll'
I1
tp659
a(S'tr_th'
I1
tp660
a(S'w'
I3
tp661
a(S'tr_tl'
I252
tp662
a(S'w'
I690
tp663
a(S'p2_vo'
I6
tp664
a(S'w'
I733
tp665
a(S'p2_vo'
I5
tp666
a(S'w'
I2942
tp667
a(S'p1_tl'
I152
tp668
a(S'w'
I12
tp669
a(S'p2_vo'
I7
tp670
a(S'w'
I7
tp671
a(S'p2_tl'
I169
tp672
a(S'w'
I708
tp673
a(S'p2_vo'
I6
tp674
a(S'w'
I734
tp675
a(S'p2_vo'
I5
tp676
a(S'w'
I2942
tp677
a(S'p1_tl'
I202
tp678
a(S'w'
I15
tp679
a(S'p2_vo'
I7
tp680
a(S'w'
I7
tp681
a(S'p2_tl'
I127
tp682
a(S'w'
I705
tp683
a(S'p2_vo'
I6
tp684
a(S'w'
I734
tp685
a(S'p2_vo'
I5
tp686
a(S'w'
I2942
tp687
a(S'p1_tl'
I170
tp688
a(S'w'
I4404
tp689
a(S'p1_tl'
I128
tp690
a(S'w'
I23
tp691
a(S'tr_ll'
I1
tp692
a(S'w'
I3
tp693
a(S'tr_tl'
I147
tp694
a(S'w'
I8773
tp695
a(S'p2_tl'
I129
tp696
a(S'w'
I2935
tp697
a(S'p2_tl'
I125
tp698
a(S'w'
I4
tp699
a(S'p2_vo'
I4
tp700
a(S'w'
I728
tp701
a(S'p2_vo'
I3
tp702
a(S'w'
I739
tp703
a(S'p2_vo'
I7
tp704
a(S'w'
I7
tp705
a(S'p2_tl'
I142
tp706
a(S'w'
I722
tp707
a(S'p2_vo'
I6
tp708
a(S'w'
I734
tp709
a(S'p2_vo'
I5
tp710
a(S'w'
I2940
tp711
a(S'p2_vo'
I7
tp712
a(S'w'
I8
tp713
a(S'p2_tl'
I151
tp714
a(S'w'
I15
tp715
a(S'tr_ll'
I1
tp716
a(S'w'
I3
tp717
a(S'tr_tl'
I125
tp718
a(S'w'
I703
tp719
a(S'p2_vo'
I6
tp720
a(S'w'
I734
tp721
a(S'p2_vo'
I5
tp722
a(S'w'
I2942
tp723
a(S'p1_tl'
I143
tp724
a(S'w'
I4403
tp725
a(S'p1_tl'
I152
tp726
a(S'w'
I12
tp727
a(S'p2_vo'
I7
tp728
a(S'w'
I7
tp729
a(S'p2_tl'
I190
tp730
a(S'w'
I708
tp731
a(S'p2_vo'
I6
tp732
a(S'w'
I733
tp733
a(S'p2_vo'
I5
tp734
a(S'w'
I2940
tp735
a(S'p2_vo'
I7
tp736
a(S'w'
I7
tp737
a(S'p2_tl'
I151
tp738
a(S'w'
I722
tp739
a(S'p2_vo'
I6
tp740
a(S'w'
I734
tp741
a(S'p2_vo'
I5
tp742
a(S'w'
I2942
tp743
a(S'p1_tl'
I191
tp744
a(S'w'
I13
tp745
a(S'p2_vo'
I7
tp746
a(S'w'
I7
tp747
a(S'p2_tl'
I142
tp748
a(S'w'
I18
tp749
a(S'tr_ll'
I1
tp750
a(S'tr_th'
I2
tp751
a(S'w'
I3
tp752
a(S'tr_tl'
I59
tp753
a(S'w'
I686
tp754
a(S'p2_vo'
I6
tp755
a(S'w'
I734
tp756
a(S'p2_vo'
I5
tp757
a(S'w'
I2942
tp758
a(S'p1_tl'
I152
tp759
a(S'w'
I4403
tp760
a(S'p1_tl'
I143
tp761
a(S'w'
I12
tp762
a(S'p2_vo'
I7
tp763
a(S'w'
I7
tp764
a(S'p2_tl'
I169
tp765
a(S'w'
I708
tp766
a(S'p2_vo'
I6
tp767
a(S'w'
I734
tp768
a(S'p2_vo'
I5
tp769
a(S'w'
I2939
tp770
a(S'p2_vo'
I7
tp771
a(S'w'
I7
tp772
a(S'p2_tl'
I142
tp773
a(S'w'
I723
tp774
a(S'p2_vo'
I6
tp775
a(S'w'
I733
tp776
a(S'p2_vo'
I5
tp777
a(S'w'
I2942
tp778
a(S'p1_tl'
I170
tp779
a(S'w'
I15
tp780
a(S'p2_vo'
I6
tp781
a(S'w'
I7
tp782
a(S'p2_tl'
I169
tp783
a(S'w'
I13
tp784
a(S'tr_lh'
I1
tp785
a(S'tr_lr'
I16
tp786
a(S'w'
I5
tp787
a(S'tr_ll'
I1
tp788
a(S'tr_th'
I1
tp789
a(S'w'
I3
tp790
a(S'tr_tl'
I252
tp791
a(S'w'
I2897
tp792
a(S'p2_tl'
I151
tp793
a(S'w'
I1467
tp794
a(S'w'
I1468
tp795
a(S'p2_tl'
I169
tp796
a(S'w'
I1464
tp797
a(S'p1_tl'
I152
tp798
a(S'w'
I1472
tp799
a(S'p2_tl'
I151
tp800
a(S'w'
I1463
tp801
a(S'p1_tl'
I170
tp802
a(S'w'
I1472
tp803
a(S'p2_tl'
I169
tp804
a(S'w'
I1463
tp805
a(S'p1_tl'
I152
tp806
a(S'w'
I1472
tp807
a(S'p2_tl'
I151
tp808
a(S'w'
I1463
tp809
a(S'p1_tl'
I170
tp810
a(S'w'
I1472
tp811
a(S'p2_tl'
I169
tp812
a(S'w'
I1464
tp813
a(S'p1_tl'
I152
tp814
a(S'w'
I1471
tp815
a(S'p2_tl'
I151
tp816
a(S'w'
I1464
tp817
a(S'p1_tl'
I170
tp818
a(S'w'
I1472
tp819
a(S'p2_tl'
I169
tp820
a(S'w'
I1463
tp821
a(S'p1_tl'
I152
tp822
a(S'w'
I1469
tp823
a(S'p2_vo'
I7
tp824
a(S'w'
I7
tp825
a(S'p2_tl'
I151
tp826
a(S'w'
I718
tp827
a(S'p2_vo'
I6
tp828
a(S'w'
I741
tp829
a(S'p1_tl'
I170
tp830
a(S'w'
I8
tp831
a(S'p2_vo'
I5
tp832
a(S'w'
I2921
tp833
a(S'p1_du'
I0
tp834
a(S'p1_vo'
I0
tp835
a(S'w'
I4402
tp836
a(S'p1_du'
I2
tp837
a(S'p1_vo'
I2
tp838
a(S'w'
I7
tp839
a(S'p1_tl'
I152
tp840
a(S'w'
I18
tp841
a(S'p2_vo'
I7
tp842
a(S'w'
I7
tp843
a(S'p2_tl'
I190
tp844
a(S'w'
I20
tp845
a(S'tr_ll'
I1
tp846
a(S'w'
I3
tp847
a(S'tr_tl'
I125
tp848
a(S'w'
I679
tp849
a(S'p2_vo'
I6
tp850
a(S'w'
I734
tp851
a(S'p2_vo'
I5
tp852
a(S'w'
I7346
tp853
a(S'p1_tl'
I191
tp854
a(S'w'
I8798
tp855
a(S'p2_tl'
I192
tp856
a(S'w'
I2936
tp857
a(S'p2_tl'
I188
tp858
a(S'w'
I2935
tp859
a(S'p2_tl'
I192
tp860
a(S'w'
I2935
tp861
a(S'p2_tl'
I188
tp862
a(S'w'
I2935
tp863
a(S'p2_tl'
I192
tp864
a(S'w'
I2935
tp865
a(S'p2_tl'
I188
tp866
a(S'w'
I2936
tp867
a(S'p2_tl'
I192
tp868
a(S'w'
I2935
tp869
a(S'p2_tl'
I188
tp870
a(S'w'
I1470
tp871
a(S'tr_lh'
I0
tp872
a(S'tr_lr'
I0
tp873
a(S'w'
I730
tp874
a(S'p2_vo'
I4
tp875
a(S'w'
I735
tp876
a(S'p2_tl'
I192
tp877
a(S'w'
I4
tp878
a(S'p2_vo'
I3
tp879
a(S'w'
I729
tp880
a(S'p2_vo'
I2
tp881
a(S'w'
I733
tp882
a(S'p2_vo'
I1
tp883
a(S'w'
I734
tp884
a(S'p2_vo'
I0
tp885
a(S'w'
I730
tp886
a(S'p1_du'
I0
tp887
a(S'p1_vo'
I0
tp888
a(S'w'
I7
tp889
a(S'p2_du'
I0
tp890
a.