(lp1
(S'clock'
p2
I1789772
tp3
a(S'p1_lh'
I1
tp4
a(S'p1_cv'
I1
tp5
a(S'p1_sp'
I3
tp6
a(S'p1_tl'
I31
tp7
a(S'p1_ll'
I1
tp8
a(S'p2_lh'
I1
tp9
a(S'p2_cv'
I1
tp10
a(S'p2_sp'
I3
tp11
a(S'p2_tl'
I31
tp12
a(S'p2_ll'
I1
tp13
a(S'no_lh'
I1
tp14
a(S'no_cv'
I1
tp15
a(S'no_np'
I2
tp16
a(S'no_ll'
I1
tp17
a(S'ch_no'
I1
tp18
a(S'ch_tr'
I1
tp19
a(S'ch_p2'
I1
tp20
a(S'ch_p1'
I1
tp21
a(S'fc_mo'
I1
tp22
a(S'p1_du'
I2
tp23
a(S'p1_vo'
I3
tp24
a(S'w'
I6
tp25
a(S'p1_ll'
I1
tp26
a(S'p1_th'
I1
tp27
a(S'w'
I3
tp28
a(S'p1_tl'
I84
tp29
a(S'w'
I20
tp30
a(S'p2_du'
I2
tp31
a(S'p2_vo'
I7
tp32
a(S'w'
I6
tp33
a(S'p2_ll'
I1
tp34
a(S'p2_th'
I1
tp35
a(S'w'
I3
tp36
a(S'p2_tl'
I83
tp37
a(S'w'
I13
tp38
a(S'tr_lr'
I51
tp39
a(S'w'
I5
tp40
a(S'tr_ll'
I1
tp41
a(S'tr_th'
I1
tp42
a(S'w'
I3
tp43
a(S'tr_tl'
I252
tp44
a(S'w'
I658
tp45
a(S'p1_vo'
I2
tp46
a(S'w'
I8
tp47
a(S'p2_vo'
I6
tp48
a(S'w'
I730
tp49
a(S'p2_vo'
I5
tp50
a(S'w'
I8818
tp51
a(S'tr_ll'
I1
tp52
a(S'w'
I3
tp53
a(S'tr_tl'
I197
tp54
a(S'w'
I5857
tp55
a(S'p2_tl'
I85
tp56
a(S'w'
I2935
tp57
a(S'p2_tl'
I81
tp58
a(S'w'
I732
tp59
a(S'p2_vo'
I4
tp60
a(S'w'
I740
tp61
a(S'p2_vo'
I7
tp62
a(S'w'
I6
tp63
a(S'p2_ll'
I1
tp64
a(S'p2_th'
I0
tp65
a(S'w'
I2
tp66
a(S'p2_tl'
I254
tp67
a(S'w'
I17
tp68
a(S'tr_lr'
I99
tp69
a(S'w'
I5
tp70
a(S'tr_ll'
I1
tp71
a(S'w'
I3
tp72
a(S'tr_tl'
I171
tp73
a(S'w'
I695
tp74
a(S'p2_vo'
I6
tp75
a(S'w'
I734
tp76
a(S'p2_vo'
I5
tp77
a(S'w'
I8811
tp78
a(S'p2_vo'
I7
tp79
a(S'w'
I6
tp80
a(S'p2_ll'
I1
tp81
a(S'p2_th'
I1
tp82
a(S'w'
I3
tp83
a(S'p2_tl'
I13
tp84
a(S'w'
I719
tp85
a(S'p2_vo'
I6
tp86
a(S'w'
I734
tp87
a(S'p2_vo'
I5
tp88
a(S'w'
I5866
tp89
a(S'p1_vo'
I1
tp90
a(S'w'
I734
tp91
a(S'p1_vo'
I0
tp92
a(S'w'
I2207
tp93
a(S'p1_vo'
I3
tp94
a(S'w'
I6
tp95
a(S'p1_ll'
I1
tp96
a(S'p1_th'
I0
tp97
a(S'w'
I3
tp98
a(S'p1_tl'
I255
tp99
a(S'w'
I14
tp100
a(S'p2_vo'
I7
tp101
a(S'w'
I6
tp102
a(S'p2_ll'
I1
tp103
a(S'p2_th'
I0
tp104
a(S'w'
I3
tp105
a(S'p2_tl'
I254
tp106
a(S'w'
I18
tp107
a(S'tr_ll'
I1
tp108
a(S'w'
I3
tp109
a(S'tr_tl'
I252
tp110
a(S'w'
I675
tp111
a(S'p1_vo'
I2
tp112
a(S'w'
I8
tp113
a(S'p2_vo'
I6
tp114
a(S'w'
I730
tp115
a(S'p2_vo'
I5
tp116
a(S'w'
I8807
tp117
a(S'p1_vo'
I3
tp118
a(S'w'
I6
tp119
a(S'p1_ll'
I1
tp120
a(S'p1_th'
I1
tp121
a(S'w'
I3
tp122
a(S'p1_tl'
I14
tp123
a(S'w'
I719
tp124
a(S'p1_vo'
I2
tp125
a(S'w'
I6610
tp126
a(S'p2_ll'
I1
tp127
a(S'p2_th'
I1
tp128
a(S'w'
I2
tp129
a(S'p2_tl'
I0
tp130
a(S'w'
I2198
tp131
a(S'p2_vo'
I4
tp132
a(S'w'
I736
tp133
a(S'p1_vo'
I3
tp134
a(S'w'
I6
tp135
a(S'p1_ll'
I1
tp136
a(S'p1_th'
I0
tp137
a(S'w'
I4
tp138
a(S'p1_tl'
I255
tp139
a(S'w'
I13
tp140
a(S'p2_vo'
I7
tp141
a(S'w'
I6
tp142
a(S'p2_tl'
I13
tp143
a(S'w'
I16
tp144
a(S'tr_ll'
I1
tp145
a(S'tr_th'
I2
tp146
a(S'w'
I2
tp147
a(S'tr_tl'
I167
tp148
a(S'w'
I681
tp149
a(S'p1_vo'
I2
tp150
a(S'w'
I7
tp151
a(S'p2_vo'
I6
tp152
a(S'w'
I731
tp153
a(S'p2_vo'
I5
tp154
a(S'w'
I8811
tp155
a(S'p2_vo'
I7
tp156
a(S'w'
I6
tp157
a(S'p2_ll'
I1
tp158
a(S'p2_th'
I0
tp159
a(S'w'
I3
tp160
a(S'p2_tl'
I254
tp161
a(S'w'
I719
tp162
a(S'p2_vo'
I6
tp163
a(S'w'
I746
tp164
a(S'p2_vo'
I5
tp165
a(S'w'
I8055
tp166
a(S'p1_vo'
I1
tp167
a(S'w'
I740
tp168
a(S'p1_vo'
I3
tp169
a(S'w'
I6
tp170
a(S'p1_ll'
I1
tp171
a(S'p1_th'
I1
tp172
a(S'w'
I3
tp173
a(S'p1_tl'
I14
tp174
a(S'w'
I13
tp175
a(S'p2_vo'
I7
tp176
a(S'w'
I6
tp177
a(S'p2_tl'
I226
tp178
a(S'w'
I16
tp179
a(S'tr_ll'
I1
tp180
a(S'w'
I3
tp181
a(S'tr_tl'
I92
tp182
a(S'w'
I681
tp183
a(S'p1_vo'
I2
tp184
a(S'w'
I8
tp185
a(S'p2_vo'
I6
tp186
a(S'w'
I730
tp187
a(S'p2_vo'
I5
tp188
a(S'w'
I8807
tp189
a(S'p1_vo'
I3
tp190
a(S'w'
I6
tp191
a(S'p1_ll'
I1
tp192
a(S'p1_th'
I0
tp193
a(S'w'
I3
tp194
a(S'p1_tl'
I255
tp195
a(S'w'
I13
tp196
a(S'p2_vo'
I7
tp197
a(S'w'
I6
tp198
a(S'p2_ll'
I1
tp199
a(S'p2_th'
I1
tp200
a(S'w'
I3
tp201
a(S'p2_tl'
I83
tp202
a(S'w'
I697
tp203
a(S'p1_vo'
I2
tp204
a(S'w'
I8
tp205
a(S'p2_vo'
I6
tp206
a(S'w'
I730
tp207
a(S'p2_vo'
I5
tp208
a(S'w'
I8807
tp209
a(S'p1_vo'
I3
tp210
a(S'w'
I7
tp211
a(S'p1_tl'
I227
tp212
a(S'w'
I13
tp213
a(S'p2_vo'
I7
tp214
a(S'w'
I6
tp215
a(S'p2_tl'
I46
tp216
a(S'w'
I16
tp217
a(S'tr_ll'
I1
tp218
a(S'w'
I3
tp219
a(S'tr_tl'
I27
tp220
a(S'w'
I684
tp221
a(S'p1_vo'
I2
tp222
a(S'w'
I7
tp223
a(S'p2_vo'
I6
tp224
a(S'w'
I731
tp225
a(S'p2_vo'
I5
tp226
a(S'w'
I8807
tp227
a(S'p1_vo'
I3
tp228
a(S'w'
I6
tp229
a(S'p1_ll'
I1
tp230
a(S'p1_th'
I1
tp231
a(S'w'
I3
tp232
a(S'p1_tl'
I84
tp233
a(S'w'
I13
tp234
a(S'p2_vo'
I7
tp235
a(S'w'
I6
tp236
a(S'p2_tl'
I13
tp237
a(S'w'
I700
tp238
a(S'p1_vo'
I2
tp239
a(S'w'
I7
tp240
a(S'p2_vo'
I6
tp241
a(S'w'
I731
tp242
a(S'p2_vo'
I5
tp243
a(S'w'
I8807
tp244
a(S'p1_vo'
I3
tp245
a(S'w'
I6
tp246
a(S'p1_tl'
I47
tp247
a(S'w'
I13
tp248
a(S'p2_vo'
I7
tp249
a(S'w'
I6
tp250
a(S'p2_ll'
I1
tp251
a(S'p2_th'
I0
tp252
a(S'w'
I3
tp253
a(S'p2_tl'
I254
tp254
a(S'w'
I16
tp255
a(S'tr_ll'
I1
tp256
a(S'tr_th'
I1
tp257
a(S'w'
I3
tp258
a(S'tr_tl'
I252
tp259
a(S'w'
I681
tp260
a(S'p1_vo'
I2
tp261
a(S'w'
I7
tp262
a(S'p2_vo'
I6
tp263
a(S'w'
I731
tp264
a(S'p2_vo'
I5
tp265
a(S'w'
I8807
tp266
a(S'p1_vo'
I3
tp267
a(S'w'
I6
tp268
a(S'p1_tl'
I14
tp269
a(S'w'
I16
tp270
a(S'p2_vo'
I7
tp271
a(S'w'
I7
tp272
a(S'p2_tl'
I169
tp273
a(S'w'
I699
tp274
a(S'p1_vo'
I2
tp275
a(S'w'
I8
tp276
a(S'p2_vo'
I6
tp277
a(S'w'
I730
tp278
a(S'p2_vo'
I5
tp279
a(S'w'
I8807
tp280
a(S'p1_vo'
I3
tp281
a(S'w'
I6
tp282
a(S'p1_ll'
I1
tp283
a(S'p1_th'
I0
tp284
a(S'w'
I3
tp285
a(S'p1_tl'
I255
tp286
a(S'w'
I17
tp287
a(S'p2_vo'
I7
tp288
a(S'w'
I7
tp289
a(S'p2_tl'
I127
tp290
a(S'w'
I16
tp291
a(S'tr_ll'
I1
tp292
a(S'w'
I3
tp293
a(S'tr_tl'
I197
tp294
a(S'w'
I676
tp295
a(S'p1_vo'
I2
tp296
a(S'w'
I8
tp297
a(S'p2_vo'
I6
tp298
a(S'w'
I731
tp299
a(S'p2_vo'
I5
tp300
a(S'w'
I8809
tp301
a(S'p1_vo'
I3
tp302
a(S'w'
I7
tp303
a(S'p1_tl'
I170
tp304
a(S'w'
I719
tp305
a(S'p1_vo'
I2
tp306
a(S'w'
I5142
tp307
a(S'p2_tl'
I129
tp308
a(S'w'
I2935
tp309
a(S'p2_tl'
I125
tp310
a(S'w'
I1471
tp311
a(S'p1_vo'
I3
tp312
a(S'w'
I8
tp313
a(S'p1_tl'
I128
tp314
a(S'w'
I23
tp315
a(S'tr_ll'
I1
tp316
a(S'w'
I2
tp317
a(S'tr_tl'
I171
tp318
a(S'w'
I692
tp319
a(S'p1_vo'
I2
tp320
a(S'w'
I739
tp321
a(S'p2_tl'
I129
tp322
a(S'w'
I2935
tp323
a(S'p2_tl'
I125
tp324
a(S'w'
I2935
tp325
a(S'p2_tl'
I129
tp326
a(S'w'
I2936
tp327
a(S'p2_tl'
I125
tp328
a(S'w'
I2935
tp329
a(S'p2_tl'
I129
tp330
a(S'w'
I2935
tp331
a(S'p2_tl'
I125
tp332
a(S'w'
I1466
tp333
a(S'p2_vo'
I4
tp334
a(S'w'
I734
tp335
a(S'p2_vo'
I3
tp336
a(S'w'
I735
tp337
a(S'p2_tl'
I129
tp338
a(S'w'
I4
tp339
a(S'p2_vo'
I2
tp340
a(S'w'
I729
tp341
a(S'p2_vo'
I1
tp342
a(S'w'
I742
tp343
a(S'p2_vo'
I7
tp344
a(S'w'
I6
tp345
a(S'p2_tl'
I254
tp346
a(S'w'
I11
tp347
a(S'tr_lr'
I51
tp348
a(S'w'
I5
tp349
a(S'tr_ll'
I1
tp350
a(S'w'
I3
tp351
a(S'tr_tl'
I147
tp352
a(S'w'
I701
tp353
a(S'p2_vo'
I6
tp354
a(S'w'
I733
tp355
a(S'p2_vo'
I5
tp356
a(S'w'
I8814
tp357
a(S'p2_vo'
I7
tp358
a(S'w'
I7
tp359
a(S'p2_tl'
I169
tp360
a(S'w'
I15
tp361
a(S'tr_ll'
I1
tp362
a(S'w'
I3
tp363
a(S'tr_tl'
I125
tp364
a(S'w'
I701
tp365
a(S'p2_vo'
I6
tp366
a(S'w'
I734
tp367
a(S'p2_vo'
I5
tp368
a(S'w'
I5865
tp369
a(S'p1_vo'
I1
tp370
a(S'w'
I734
tp371
a(S'p1_vo'
I0
tp372
a(S'w'
I2210
tp373
a(S'p1_vo'
I3
tp374
a(S'w'
I6
tp375
a(S'p1_tl'
I255
tp376
a(S'w'
I13
tp377
a(S'p2_vo'
I7
tp378
a(S'w'
I8
tp379
a(S'p2_tl'
I127
tp380
a(S'w'
I11
tp381
a(S'tr_lr'
I99
tp382
a(S'w'
I5
tp383
a(S'tr_ll'
I1
tp384
a(S'w'
I3
tp385
a(S'tr_tl'
I83
tp386
a(S'w'
I680
tp387
a(S'p1_vo'
I2
tp388
a(S'w'
I7
tp389
a(S'p2_vo'
I6
tp390
a(S'w'
I731
tp391
a(S'p2_vo'
I5
tp392
a(S'w'
I8809
tp393
a(S'p1_vo'
I3
tp394
a(S'w'
I7
tp395
a(S'p1_tl'
I170
tp396
a(S'w'
I13
tp397
a(S'p2_vo'
I7
tp398
a(S'w'
I7
tp399
a(S'p2_tl'
I142
tp400
a(S'w'
I699
tp401
a(S'p1_vo'
I2
tp402
a(S'w'
I7
tp403
a(S'p2_vo'
I6
tp404
a(S'w'
I731
tp405
a(S'p2_vo'
I5
tp406
a(S'w'
I8807
tp407
a(S'p1_vo'
I3
tp408
a(S'w'
I7
tp409
a(S'p1_tl'
I128
tp410
a(S'w'
I13
tp411
a(S'p2_vo'
I7
tp412
a(S'w'
I7
tp413
a(S'p2_tl'
I160
tp414
a(S'w'
I18
tp415
a(S'tr_ll'
I1
tp416
a(S'w'
I3
tp417
a(S'tr_tl'
I252
tp418
a(S'w'
I680
tp419
a(S'p1_vo'
I2
tp420
a(S'w'
I8
tp421
a(S'p2_vo'
I6
tp422
a(S'w'
I730
tp423
a(S'p2_vo'
I5
tp424
a(S'w'
I8807
tp425
a(S'p1_vo'
I3
tp426
a(S'w'
I7
tp427
a(S'p1_tl'
I143
tp428
a(S'w'
I13
tp429
a(S'p2_vo'
I7
tp430
a(S'w'
I7
tp431
a(S'p2_tl'
I169
tp432
a(S'w'
I701
tp433
a(S'p1_vo'
I2
tp434
a(S'w'
I8
tp435
a(S'p2_vo'
I6
tp436
a(S'w'
I730
tp437
a(S'p2_vo'
I5
tp438
a(S'w'
I8807
tp439
a(S'p1_vo'
I3
tp440
a(S'w'
I7
tp441
a(S'p1_tl'
I161
tp442
a(S'w'
I16
tp443
a(S'p2_vo'
I7
tp444
a(S'w'
I7
tp445
a(S'p2_tl'
I160
tp446
a(S'w'
I14
tp447
a(S'tr_lr'
I51
tp448
a(S'w'
I5
tp449
a(S'tr_ll'
I1
tp450
a(S'w'
I3
tp451
a(S'tr_tl'
I125
tp452
a(S'w'
I677
tp453
a(S'p1_vo'
I2
tp454
a(S'w'
I7
tp455
a(S'p2_vo'
I6
tp456
a(S'w'
I731
tp457
a(S'p2_vo'
I5
tp458
a(S'w'
I8806
tp459
a(S'p1_vo'
I3
tp460
a(S'w'
I8
tp461
a(S'p1_tl'
I170
tp462
a(S'w'
I19
tp463
a(S'tr_ll'
I1
tp464
a(S'w'
I3
tp465
a(S'tr_tl'
I83
tp466
a(S'w'
I699
tp467
a(S'p1_vo'
I2
tp468
a(S'w'
I6609
tp469
a(S'p2_tl'
I162
tp470
a(S'w'
I2939
tp471
a(S'p1_vo'
I3
tp472
a(S'w'
I7
tp473
a(S'p1_tl'
I161
tp474
a(S'w'
I9
tp475
a(S'p2_tl'
I158
tp476
a(S'w'
I12
tp477
a(S'tr_lr'
I99
tp478
a(S'w'
I5
tp479
a(S'tr_ll'
I1
tp480
a(S'w'
I3
tp481
a(S'tr_tl'
I64
tp482
a(S'w'
I689
tp483
a(S'p1_vo'
I2
tp484
a(S'w'
I2207
tp485
a(S'p2_tl'
I162
tp486
a(S'w'
I2935
tp487
a(S'p2_tl'
I158
tp488
a(S'w'
I2200
tp489
a(S'p2_vo'
I4
tp490
a(S'w'
I735
tp491
a(S'p2_tl'
I162
tp492
a(S'w'
I4
tp493
a(S'p2_vo'
I3
tp494
a(S'w'
I729
tp495
a(S'p2_vo'
I2
tp496
a(S'w'
I739
tp497
a(S'p2_vo'
I7
tp498
a(S'w'
I7
tp499
a(S'p2_tl'
I190
tp500
a(S'w'
I722
tp501
a(S'p2_vo'
I6
tp502
a(S'w'
I733
tp503
a(S'p2_vo'
I5
tp504
a(S'w'
I8814
tp505
a(S'p2_vo'
I7
tp506
a(S'w'
I6
tp507
a(S'p2_ll'
I1
tp508
a(S'p2_th'
I1
tp509
a(S'w'
I3
tp510
a(S'p2_tl'
I29
tp511
a(S'w'
I16
tp512
a(S'tr_ll'
I1
tp513
a(S'w'
I3
tp514
a(S'tr_tl'
I125
tp515
a(S'w'
I698
tp516
a(S'p2_vo'
I6
tp517
a(S'w'
I734
tp518
a(S'p2_vo'
I5
tp519
a(S'w'
I6599
tp520
a(S'p1_vo'
I1
tp521
a(S'w'
I734
tp522
a(S'p1_vo'
I0
tp523
a(S'w'
I1473
tp524
a(S'p1_vo'
I3
tp525
a(S'w'
I7
tp526
a(S'p1_tl'
I191
tp527
a(S'w'
I16
tp528
a(S'p2_vo'
I7
tp529
a(S'w'
I7
tp530
a(S'p2_ll'
I1
tp531
a(S'p2_th'
I0
tp532
a(S'w'
I2
tp533
a(S'p2_tl'
I190
tp534
a(S'w'
I697
tp535
a(S'p1_vo'
I2
tp536
a(S'w'
I7
tp537
a(S'p2_vo'
I6
tp538
a(S'w'
I731
tp539
a(S'p2_vo'
I5
tp540
a(S'w'
I8822
tp541
a(S'p1_vo'
I3
tp542
a(S'w'
I6
tp543
a(S'p1_ll'
I1
tp544
a(S'p1_th'
I1
tp545
a(S'w'
I3
tp546
a(S'p1_tl'
I30
tp547
a(S'w'
I14
tp548
a(S'p2_vo'
I7
tp549
a(S'w'
I7
tp550
a(S'p2_tl'
I142
tp551
a(S'w'
I13
tp552
a(S'tr_lr'
I51
tp553
a(S'w'
I5
tp554
a(S'tr_ll'
I1
tp555
a(S'tr_th'
I2
tp556
a(S'w'
I3
tp557
a(S'tr_tl'
I59
tp558
a(S'w'
I662
tp559
a(S'p1_vo'
I2
tp560
a(S'w'
I7
tp561
a(S'p2_vo'
I6
tp562
a(S'w'
I731
tp563
a(S'p2_vo'
I5
tp564
a(S'w'
I8809
tp565
a(S'p1_vo'
I3
tp566
a(S'w'
I7
tp567
a(S'p1_ll'
I1
tp568
a(S'p1_th'
I0
tp569
a(S'w'
I3
tp570
a(S'p1_tl'
I191
tp571
a(S'w'
I19
tp572
a(S'tr_ll'
I1
tp573
a(S'tr_th'
I1
tp574
a(S'w'
I3
tp575
a(S'tr_tl'
I252
tp576
a(S'w'
I694
tp577
a(S'p1_vo'
I2
tp578
a(S'w'
I6610
tp579
a(S'p2_tl'
I144
tp580
a(S'w'
I2200
tp581
a(S'p2_vo'
I4
tp582
a(S'w'
I736
tp583
a(S'p1_vo'
I3
tp584
a(S'w'
I7
tp585
a(S'p1_tl'
I143
tp586
a(S'w'
I13
tp587
a(S'p2_vo'
I7
tp588
a(S'w'
I7
tp589
a(S'p2_tl'
I142
tp590
a(S'w'
I12
tp591
a(S'tr_lr'
I99
tp592
a(S'w'
I5
tp593
a(S'tr_ll'
I1
tp594
a(S'w'
I3
tp595
a(S'tr_tl'
I197
tp596
a(S'w'
I680
tp597
a(S'p1_vo'
I2
tp598
a(S'w'
I8
tp599
a(S'p2_vo'
I6
tp600
a(S'w'
I730
tp601
a(S'p2_vo'
I5
tp602
a(S'w'
I8811
tp603
a(S'p2_vo'
I7
tp604
a(S'w'
I7
tp605
a(S'p2_tl'
I160
tp606
a(S'w'
I722
tp607
a(S'p2_vo'
I6
tp608
a(S'w'
I734
tp609
a(S'p2_vo'
I5
tp610
a(S'w'
I8067
tp611
a(S'p1_vo'
I1
tp612
a(S'w'
I739
tp613
a(S'p1_vo'
I3
tp614
a(S'w'
I8
tp615
a(S'w'
I13
tp616
a(S'p2_vo'
I7
tp617
a(S'w'
I7
tp618
a(S'p2_tl'
I169
tp619
a(S'w'
I15
tp620
a(S'tr_ll'
I1
tp621
a(S'tr_th'
I2
tp622
a(S'w'
I3
tp623
a(S'tr_tl'
I59
tp624
a(S'w'
I683
tp625
a(S'p1_vo'
I2
tp626
a(S'w'
I7
tp627
a(S'p2_vo'
I6
tp628
a(S'w'
I731
tp629
a(S'p2_vo'
I5
tp630
a(S'w'
I8807
tp631
a(S'p1_vo'
I3
tp632
a(S'w'
I7
tp633
a(S'p1_tl'
I161
tp634
a(S'w'
I13
tp635
a(S'p2_vo'
I7
tp636
a(S'w'
I7
tp637
a(S'p2_tl'
I190
tp638
a(S'w'
I701
tp639
a(S'p1_vo'
I2
tp640
a(S'w'
I8
tp641
a(S'p2_vo'
I6
tp642
a(S'w'
I730
tp643
a(S'p2_vo'
I5
tp644
a(S'w'
I8807
tp645
a(S'p1_vo'
I3
tp646
a(S'w'
I7
tp647
a(S'p1_tl'
I170
tp648
a(S'w'
I14
tp649
a(S'p2_vo'
I7
tp650
a(S'w'
I7
tp651
a(S'p2_tl'
I169
tp652
a(S'w'
I14
tp653
a(S'tr_lr'
I51
tp654
a(S'w'
I5
tp655
a(S'tr_ll'
I1
tp656
a(S'tr_th'
I1
tp657
a(S'w'
I3
tp658
a(S'tr_tl'
I171
tp659
a(S'w'
I678
tp660
a(S'p1_vo'
I2
tp661
a(S'w'
I8
tp662
a(S'p2_vo'
I6
tp663
a(S'w'
I730
tp664
a(S'p2_vo'
I5
tp665
a(S'w'
I8807
tp666
a(S'p1_vo'
I3
tp667
a(S'w'
I7
tp668
a(S'p1_tl'
I191
tp669
a(S'w'
I20
tp670
a(S'tr_ll'
I1
tp671
a(S'w'
I3
tp672
a(S'tr_tl'
I125
tp673
a(S'w'
I698
tp674
a(S'p1_vo'
I2
tp675
a(S'w'
I5143
tp676
a(S'p2_tl'
I171
tp677
a(S'w'
I2935
tp678
a(S'p2_tl'
I167
tp679
a(S'w'
I732
tp680
a(S'p2_vo'
I4
tp681
a(S'w'
I736
tp682
a(S'p1_vo'
I3
tp683
a(S'w'
I8
tp684
a(S'p1_tl'
I170
tp685
a(S'w'
I13
tp686
a(S'p2_vo'
I7
tp687
a(S'w'
I7
tp688
a(S'p2_tl'
I169
tp689
a(S'w'
I11
tp690
a(S'tr_lr'
I99
tp691
a(S'w'
I6
tp692
a(S'tr_ll'
I1
tp693
a(S'w'
I2
tp694
a(S'tr_tl'
I83
tp695
a(S'w'
I681
tp696
a(S'p1_vo'
I2
tp697
a(S'w'
I7
tp698
a(S'p2_vo'
I6
tp699
a(S'w'
I731
tp700
a(S'p2_vo'
I5
tp701
a(S'w'
I8811
tp702
a(S'p2_vo'
I7
tp703
a(S'w'
I7
tp704
a(S'p2_tl'
I213
tp705
a(S'w'
I721
tp706
a(S'p2_vo'
I6
tp707
a(S'w'
I747
tp708
a(S'p2_vo'
I5
tp709
a(S'w'
I8054
tp710
a(S'p1_vo'
I1
tp711
a(S'w'
I740
tp712
a(S'p1_vo'
I3
tp713
a(S'w'
I7
tp714
a(S'w'
I13
tp715
a(S'p2_vo'
I7
tp716
a(S'w'
I7
tp717
a(S'p2_tl'
I160
tp718
a(S'w'
I17
tp719
a(S'tr_ll'
I1
tp720
a(S'w'
I3
tp721
a(S'tr_tl'
I171
tp722
a(S'w'
I681
tp723
a(S'p1_vo'
I2
tp724
a(S'w'
I8
tp725
a(S'p2_vo'
I6
tp726
a(S'w'
I730
tp727
a(S'p2_vo'
I5
tp728
a(S'w'
I8807
tp729
a(S'p1_vo'
I3
tp730
a(S'w'
I7
tp731
a(S'p1_tl'
I214
tp732
a(S'w'
I13
tp733
a(S'p2_vo'
I7
tp734
a(S'w'
I7
tp735
a(S'p2_tl'
I169
tp736
a(S'w'
I701
tp737
a(S'p1_vo'
I2
tp738
a(S'w'
I8
tp739
a(S'p2_vo'
I6
tp740
a(S'w'
I730
tp741
a(S'p2_vo'
I5
tp742
a(S'w'
I8807
tp743
a(S'p1_vo'
I3
tp744
a(S'w'
I7
tp745
a(S'p1_tl'
I161
tp746
a(S'w'
I13
tp747
a(S'p2_vo'
I7
tp748
a(S'w'
I7
tp749
a(S'p2_tl'
I190
tp750
a(S'w'
I14
tp751
a(S'tr_lr'
I51
tp752
a(S'w'
I5
tp753
a(S'tr_ll'
I1
tp754
a(S'w'
I3
tp755
a(S'tr_tl'
I197
tp756
a(S'w'
I680
tp757
a(S'p1_vo'
I2
tp758
a(S'w'
I7
tp759
a(S'p2_vo'
I6
tp760
a(S'w'
I731
tp761
a(S'p2_vo'
I5
tp762
a(S'w'
I8806
tp763
a(S'p1_vo'
I3
tp764
a(S'w'
I8
tp765
a(S'p1_tl'
I170
tp766
a(S'w'
I13
tp767
a(S'p2_vo'
I7
tp768
a(S'w'
I7
tp769
a(S'p2_tl'
I213
tp770
a(S'w'
I14
tp771
a(S'tr_ll'
I1
tp772
a(S'w'
I3
tp773
a(S'tr_tl'
I252
tp774
a(S'w'
I684
tp775
a(S'p1_vo'
I2
tp776
a(S'w'
I7
tp777
a(S'p2_vo'
I6
tp778
a(S'w'
I731
tp779
a(S'p2_vo'
I5
tp780
a(S'w'
I8807
tp781
a(S'p1_vo'
I3
tp782
a(S'w'
I7
tp783
a(S'p1_tl'
I191
tp784
a(S'w'
I15
tp785
a(S'p2_vo'
I7
tp786
a(S'w'
I7
tp787
a(S'p2_tl'
I226
tp788
a(S'w'
I11
tp789
a(S'tr_lr'
I99
tp790
a(S'w'
I5
tp791
a(S'tr_ll'
I1
tp792
a(S'tr_th'
I2
tp793
a(S'w'
I3
tp794
a(S'tr_tl'
I27
tp795
a(S'w'
I680
tp796
a(S'p1_vo'
I2
tp797
a(S'w'
I8
tp798
a(S'p2_vo'
I6
tp799
a(S'w'
I730
tp800
a(S'p2_vo'
I5
tp801
a(S'w'
I8807
tp802
a(S'p1_vo'
I3
tp803
a(S'w'
I7
tp804
a(S'p1_tl'
I214
tp805
a(S'w'
I13
tp806
a(S'p2_vo'
I7
tp807
a(S'w'
I7
tp808
a(S'p2_tl'
I254
tp809
a(S'w'
I701
tp810
a(S'p1_vo'
I2
tp811
a(S'w'
I8
tp812
a(S'p2_vo'
I6
tp813
a(S'w'
I730
tp814
a(S'p2_vo'
I5
tp815
a(S'w'
I8810
tp816
a(S'p1_vo'
I3
tp817
a(S'w'
I6
tp818
a(S'p1_tl'
I227
tp819
a(S'w'
I13
tp820
a(S'p2_vo'
I7
tp821
a(S'w'
I6
tp822
a(S'p2_ll'
I1
tp823
a(S'p2_th'
I1
tp824
a(S'w'
I3
tp825
a(S'p2_tl'
I13
tp826
a(S'w'
I16
tp827
a(S'tr_ll'
I1
tp828
a(S'w'
I2
tp829
a(S'tr_tl'
I167
tp830
a(S'w'
I680
tp831
a(S'p1_vo'
I2
tp832
a(S'w'
I7
tp833
a(S'p2_vo'
I6
tp834
a(S'w'
I731
tp835
a(S'p2_vo'
I5
tp836
a(S'w'
I8806
tp837
a(S'p1_vo'
I3
tp838
a(S'w'
I7
tp839
a(S'p1_tl'
I255
tp840
a(S'w'
I13
tp841
a(S'p2_vo'
I7
tp842
a(S'w'
I6
tp843
a(S'p2_tl'
I83
tp844
a(S'w'
I703
tp845
a(S'p1_vo'
I2
tp846
a(S'w'
I7
tp847
a(S'p2_vo'
I6
tp848
a(S'w'
I731
tp849
a(S'p2_vo'
I5
tp850
a(S'w'
I8821
tp851
a(S'p1_vo'
I3
tp852
a(S'w'
I6
tp853
a(S'p1_ll'
I1
tp854
a(S'p1_th'
I1
tp855
a(S'w'
I3
tp856
a(S'p1_tl'
I84
tp857
a(S'w'
I22
tp858
a(S'p2_vo'
I7
tp859
a(S'w'
I7
tp860
a(S'w'
I16
tp861
a(S'tr_lr'
I51
tp862
a(S'w'
I5
tp863
a(S'tr_ll'
I1
tp864
a(S'tr_th'
I1
tp865
a(S'w'
I3
tp866
a(S'tr_tl'
I252
tp867
a(S'w'
I652
tp868
a(S'p1_vo'
I2
tp869
a(S'w'
I7
tp870
a(S'p2_vo'
I6
tp871
a(S'w'
I731
tp872
a(S'p2_vo'
I5
tp873
a(S'w'
I8817
tp874
a(S'tr_ll'
I1
tp875
a(S'w'
I3
tp876
a(S'tr_tl'
I197
tp877
a(S'w'
I7325
tp878
a(S'p2_tl'
I85
tp879
a(S'w'
I2200
tp880
a.