(lp1
(S'clock'
p2
I1789772
tp3
a(S'p1_lh'
I1
tp4
a(S'p1_cv'
I1
tp5
a(S'p1_sp'
I3
tp6
a(S'p1_ll'
I1
tp7
a(S'p2_lh'
I1
tp8
a(S'p2_cv'
I1
tp9
a(S'p2_sp'
I3
tp10
a(S'p2_ll'
I1
tp11
a(S'tr_tl'
I83
tp12
a(S'tr_ll'
I1
tp13
a(S'tr_th'
I1
tp14
a(S'no_lh'
I1
tp15
a(S'no_cv'
I1
tp16
a(S'no_np'
I1
tp17
a(S'no_ll'
I1
tp18
a(S'ch_no'
I1
tp19
a(S'ch_tr'
I1
tp20
a(S'ch_p2'
I1
tp21
a(S'ch_p1'
I1
tp22
a(S'fc_mo'
I1
tp23
a(S'p1_du'
I2
tp24
a(S'p1_vo'
I8
tp25
a(S'w'
I6
tp26
a(S'p1_ll'
I1
tp27
a(S'p1_th'
I1
tp28
a(S'w'
I3
tp29
a(S'p1_tl'
I84
tp30
a(S'w'
I21
tp31
a(S'p2_du'
I2
tp32
a(S'p2_vo'
I10
tp33
a(S'w'
I7
tp34
a(S'p2_ll'
I1
tp35
a(S'w'
I3
tp36
a(S'p2_tl'
I213
tp37
a(S'w'
I27
tp38
a(S'tr_lr'
I21
tp39
a(S'w'
I6
tp40
a(S'tr_ll'
I1
tp41
a(S'w'
I3
tp42
a(S'tr_tl'
I171
tp43
a(S'w'
I9
tp44
a(S'no_vo'
I8
tp45
a(S'w'
I4
tp46
a(S'no_ll'
I1
tp47
a(S'w'
I3
tp48
a(S'no_np'
I3
tp49
a(S'w'
I525
tp50
a(S'p1_vo'
I7
tp51
a(S'w'
I8
tp52
a(S'p2_vo'
I9
tp53
a(S'w'
I9
tp54
a(S'no_vo'
I3
tp55
a(S'w'
I5
tp56
a(S'no_np'
I1
tp57
a(S'w'
I750
tp58
a(S'p1_vo'
I6
tp59
a(S'w'
I7
tp60
a(S'p2_vo'
I8
tp61
a(S'w'
I10
tp62
a(S'no_vo'
I1
tp63
a(S'w'
I4
tp64
a(S'w'
I712
tp65
a(S'p1_vo'
I5
tp66
a(S'w'
I8
tp67
a(S'p2_vo'
I7
tp68
a(S'w'
I9
tp69
a(S'no_vo'
I0
tp70
a(S'w'
I717
tp71
a(S'p1_vo'
I4
tp72
a(S'w'
I8
tp73
a(S'p2_vo'
I6
tp74
a(S'w'
I726
tp75
a(S'p1_vo'
I3
tp76
a(S'w'
I8
tp77
a(S'p2_vo'
I5
tp78
a(S'w'
I726
tp79
a(S'p1_vo'
I2
tp80
a(S'w'
I7
tp81
a(S'p2_vo'
I4
tp82
a(S'w'
I4403
tp83
a(S'p1_vo'
I8
tp84
a(S'w'
I6
tp85
a(S'p1_ll'
I1
tp86
a(S'p1_th'
I2
tp87
a(S'w'
I3
tp88
a(S'p1_tl'
I60
tp89
a(S'w'
I32
tp90
a(S'tr_ll'
I1
tp91
a(S'w'
I3
tp92
a(S'tr_tl'
I29
tp93
a(S'w'
I9
tp94
a(S'no_vo'
I8
tp95
a(S'w'
I5
tp96
a(S'no_ll'
I1
tp97
a(S'w'
I2
tp98
a(S'no_np'
I3
tp99
a(S'w'
I666
tp100
a(S'p1_vo'
I7
tp101
a(S'w'
I15
tp102
a(S'no_vo'
I3
tp103
a(S'w'
I4
tp104
a(S'no_np'
I1
tp105
a(S'w'
I715
tp106
a(S'p1_vo'
I6
tp107
a(S'w'
I15
tp108
a(S'no_vo'
I1
tp109
a(S'w'
I4
tp110
a(S'w'
I715
tp111
a(S'p1_vo'
I5
tp112
a(S'w'
I14
tp113
a(S'no_vo'
I0
tp114
a(S'w'
I720
tp115
a(S'p1_vo'
I4
tp116
a(S'w'
I704
tp117
a(S'p1_vo'
I8
tp118
a(S'w'
I6
tp119
a(S'p1_ll'
I1
tp120
a(S'p1_th'
I1
tp121
a(S'w'
I3
tp122
a(S'p1_tl'
I172
tp123
a(S'w'
I36
tp124
a(S'tr_ll'
I1
tp125
a(S'tr_th'
I0
tp126
a(S'w'
I3
tp127
a(S'tr_tl'
I213
tp128
a(S'w'
I9
tp129
a(S'no_vo'
I8
tp130
a(S'w'
I5
tp131
a(S'no_ll'
I1
tp132
a(S'w'
I3
tp133
a(S'no_np'
I3
tp134
a(S'w'
I713
tp135
a(S'p1_vo'
I7
tp136
a(S'w'
I14
tp137
a(S'no_vo'
I3
tp138
a(S'w'
I4
tp139
a(S'no_np'
I1
tp140
a(S'w'
I832
tp141
a(S'p1_vo'
I6
tp142
a(S'w'
I14
tp143
a(S'no_vo'
I1
tp144
a(S'w'
I4
tp145
a(S'w'
I716
tp146
a(S'p1_vo'
I5
tp147
a(S'w'
I14
tp148
a(S'no_vo'
I0
tp149
a(S'w'
I719
tp150
a(S'p1_vo'
I4
tp151
a(S'w'
I734
tp152
a(S'p1_vo'
I3
tp153
a(S'w'
I734
tp154
a(S'p1_vo'
I2
tp155
a(S'w'
I744
tp156
a(S'p1_vo'
I7
tp157
a(S'w'
I6
tp158
a(S'p1_ll'
I1
tp159
a(S'p1_th'
I0
tp160
a(S'w'
I3
tp161
a(S'p1_tl'
I170
tp162
a(S'w'
I12
tp163
a(S'p2_vo'
I10
tp164
a(S'w'
I8
tp165
a(S'p2_tl'
I142
tp166
a(S'w'
I29
tp167
a(S'tr_ll'
I1
tp168
a(S'tr_th'
I1
tp169
a(S'w'
I3
tp170
a(S'tr_tl'
I171
tp171
a(S'w'
I10
tp172
a(S'no_vo'
I8
tp173
a(S'w'
I4
tp174
a(S'no_ll'
I1
tp175
a(S'w'
I3
tp176
a(S'no_np'
I3
tp177
a(S'w'
I645
tp178
a(S'p1_vo'
I6
tp179
a(S'w'
I8
tp180
a(S'p2_vo'
I9
tp181
a(S'w'
I10
tp182
a(S'no_vo'
I3
tp183
a(S'w'
I4
tp184
a(S'no_np'
I1
tp185
a(S'w'
I712
tp186
a(S'p1_vo'
I5
tp187
a(S'w'
I8
tp188
a(S'p2_vo'
I8
tp189
a(S'w'
I10
tp190
a(S'no_vo'
I1
tp191
a(S'w'
I4
tp192
a(S'w'
I712
tp193
a(S'p1_vo'
I4
tp194
a(S'w'
I8
tp195
a(S'p2_vo'
I7
tp196
a(S'w'
I9
tp197
a(S'no_vo'
I0
tp198
a(S'w'
I717
tp199
a(S'p1_vo'
I3
tp200
a(S'w'
I7
tp201
a(S'p2_vo'
I6
tp202
a(S'w'
I731
tp203
a(S'p2_vo'
I5
tp204
a(S'w'
I734
tp205
a(S'p2_vo'
I4
tp206
a(S'w'
I1490
tp207
a(S'tr_ll'
I1
tp208
a(S'w'
I13
tp209
a(S'no_vo'
I8
tp210
a(S'w'
I4
tp211
a(S'no_ll'
I1
tp212
a(S'w'
I3
tp213
a(S'no_np'
I3
tp214
a(S'w'
I698
tp215
a(S'no_vo'
I3
tp216
a(S'w'
I4
tp217
a(S'no_np'
I1
tp218
a(S'w'
I730
tp219
a(S'no_vo'
I1
tp220
a(S'w'
I4
tp221
a(S'w'
I729
tp222
a(S'no_vo'
I0
tp223
a(S'w'
I3686
tp224
a(S'tr_ll'
I1
tp225
a(S'w'
I12
tp226
a(S'no_vo'
I8
tp227
a(S'w'
I4
tp228
a(S'no_ll'
I1
tp229
a(S'w'
I3
tp230
a(S'no_np'
I3
tp231
a(S'w'
I698
tp232
a(S'no_vo'
I3
tp233
a(S'w'
I5
tp234
a(S'no_np'
I1
tp235
a(S'w'
I729
tp236
a(S'no_vo'
I1
tp237
a(S'w'
I5
tp238
a(S'w'
I729
tp239
a(S'no_vo'
I0
tp240
a(S'w'
I3662
tp241
a(S'p1_vo'
I7
tp242
a(S'w'
I8
tp243
a(S'p1_tl'
I191
tp244
a(S'w'
I12
tp245
a(S'p2_vo'
I10
tp246
a(S'w'
I7
tp247
a(S'p2_tl'
I160
tp248
a(S'w'
I17
tp249
a(S'tr_ll'
I1
tp250
a(S'w'
I3
tp251
a(S'tr_tl'
I224
tp252
a(S'w'
I683
tp253
a(S'p1_vo'
I6
tp254
a(S'w'
I7
tp255
a(S'p2_vo'
I9
tp256
a(S'w'
I727
tp257
a(S'p1_vo'
I5
tp258
a(S'w'
I7
tp259
a(S'p2_vo'
I8
tp260
a(S'w'
I726
tp261
a(S'p1_vo'
I4
tp262
a(S'w'
I8
tp263
a(S'p2_vo'
I7
tp264
a(S'w'
I726
tp265
a(S'p1_vo'
I3
tp266
a(S'w'
I8
tp267
a(S'p2_vo'
I6
tp268
a(S'w'
I730
tp269
a(S'p2_vo'
I5
tp270
a(S'w'
I734
tp271
a(S'p2_vo'
I4
tp272
a(S'w'
I1493
tp273
a(S'tr_ll'
I1
tp274
a(S'w'
I3
tp275
a(S'tr_tl'
I64
tp276
a(S'w'
I10
tp277
a(S'no_vo'
I8
tp278
a(S'w'
I4
tp279
a(S'no_ll'
I1
tp280
a(S'w'
I3
tp281
a(S'no_np'
I3
tp282
a(S'w'
I695
tp283
a(S'no_vo'
I3
tp284
a(S'w'
I4
tp285
a(S'no_np'
I1
tp286
a(S'w'
I730
tp287
a(S'no_vo'
I1
tp288
a(S'w'
I4
tp289
a(S'w'
I729
tp290
a(S'no_vo'
I0
tp291
a(S'w'
I3675
tp292
a(S'tr_ll'
I1
tp293
a(S'tr_th'
I0
tp294
a(S'w'
I3
tp295
a(S'tr_tl'
I240
tp296
a(S'w'
I5858
tp297
a(S'p1_vo'
I7
tp298
a(S'w'
I6
tp299
a(S'p1_ll'
I1
tp300
a(S'p1_th'
I1
tp301
a(S'w'
I3
tp302
a(S'p1_tl'
I65
tp303
a(S'w'
I11
tp304
a(S'p2_vo'
I10
tp305
a(S'w'
I7
tp306
a(S'p2_tl'
I190
tp307
a(S'w'
I29
tp308
a(S'tr_ll'
I1
tp309
a(S'tr_th'
I1
tp310
a(S'w'
I2
tp311
a(S'tr_tl'
I224
tp312
a(S'w'
I10
tp313
a(S'no_vo'
I8
tp314
a(S'w'
I4
tp315
a(S'no_ll'
I1
tp316
a(S'w'
I3
tp317
a(S'no_np'
I3
tp318
a(S'w'
I652
tp319
a(S'p1_vo'
I6
tp320
a(S'w'
I8
tp321
a(S'p2_vo'
I9
tp322
a(S'w'
I9
tp323
a(S'no_vo'
I3
tp324
a(S'w'
I5
tp325
a(S'no_np'
I1
tp326
a(S'w'
I712
tp327
a(S'p1_vo'
I5
tp328
a(S'w'
I7
tp329
a(S'p2_vo'
I8
tp330
a(S'w'
I10
tp331
a(S'no_vo'
I1
tp332
a(S'w'
I5
tp333
a(S'w'
I712
tp334
a(S'p1_vo'
I4
tp335
a(S'w'
I7
tp336
a(S'p2_vo'
I7
tp337
a(S'w'
I10
tp338
a(S'no_vo'
I0
tp339
a(S'w'
I716
tp340
a(S'p1_vo'
I3
tp341
a(S'w'
I8
tp342
a(S'p2_vo'
I6
tp343
a(S'w'
I730
tp344
a(S'p2_vo'
I5
tp345
a(S'w'
I734
tp346
a(S'p2_vo'
I4
tp347
a(S'w'
I1470
tp348
a(S'p1_vo'
I7
tp349
a(S'w'
I7
tp350
a(S'p1_ll'
I1
tp351
a(S'p1_th'
I0
tp352
a(S'w'
I3
tp353
a(S'p1_tl'
I214
tp354
a(S'w'
I11
tp355
a(S'p2_vo'
I10
tp356
a(S'w'
I7
tp357
a(S'p2_tl'
I169
tp358
a(S'w'
I15
tp359
a(S'tr_ll'
I1
tp360
a(S'w'
I684
tp361
a(S'p1_vo'
I6
tp362
a(S'w'
I8
tp363
a(S'p2_vo'
I9
tp364
a(S'w'
I726
tp365
a(S'p1_vo'
I5
tp366
a(S'w'
I8
tp367
a(S'p2_vo'
I8
tp368
a(S'w'
I726
tp369
a(S'p1_vo'
I4
tp370
a(S'w'
I8
tp371
a(S'p2_vo'
I7
tp372
a(S'w'
I726
tp373
a(S'p1_vo'
I3
tp374
a(S'w'
I7
tp375
a(S'p2_vo'
I6
tp376
a(S'w'
I731
tp377
a(S'p2_vo'
I5
tp378
a(S'w'
I734
tp379
a(S'p2_vo'
I4
tp380
a(S'w'
I1467
tp381
a(S'p1_vo'
I7
tp382
a(S'w'
I7
tp383
a(S'p1_tl'
I191
tp384
a(S'w'
I11
tp385
a(S'p2_vo'
I10
tp386
a(S'w'
I7
tp387
a(S'p2_tl'
I160
tp388
a(S'w'
I26
tp389
a(S'tr_ll'
I1
tp390
a(S'w'
I13
tp391
a(S'no_vo'
I8
tp392
a(S'w'
I4
tp393
a(S'no_ll'
I1
tp394
a(S'w'
I3
tp395
a(S'no_np'
I3
tp396
a(S'w'
I659
tp397
a(S'p1_vo'
I6
tp398
a(S'w'
I7
tp399
a(S'p2_vo'
I9
tp400
a(S'w'
I10
tp401
a(S'no_vo'
I3
tp402
a(S'w'
I4
tp403
a(S'no_np'
I1
tp404
a(S'w'
I713
tp405
a(S'p1_vo'
I5
tp406
a(S'w'
I7
tp407
a(S'p2_vo'
I8
tp408
a(S'w'
I10
tp409
a(S'no_vo'
I1
tp410
a(S'w'
I4
tp411
a(S'w'
I712
tp412
a(S'p1_vo'
I4
tp413
a(S'w'
I8
tp414
a(S'p2_vo'
I7
tp415
a(S'w'
I9
tp416
a(S'no_vo'
I0
tp417
a(S'w'
I717
tp418
a(S'p1_vo'
I3
tp419
a(S'w'
I8
tp420
a(S'p2_vo'
I6
tp421
a(S'w'
I730
tp422
a(S'p2_vo'
I5
tp423
a(S'w'
I734
tp424
a(S'p2_vo'
I4
tp425
a(S'w'
I1468
tp426
a(S'p1_vo'
I7
tp427
a(S'w'
I7
tp428
a(S'p1_tl'
I214
tp429
a(S'w'
I12
tp430
a(S'p2_vo'
I10
tp431
a(S'w'
I7
tp432
a(S'p2_tl'
I169
tp433
a(S'w'
I15
tp434
a(S'tr_ll'
I1
tp435
a(S'w'
I3
tp436
a(S'tr_tl'
I252
tp437
a(S'w'
I685
tp438
a(S'p1_vo'
I6
tp439
a(S'w'
I8
tp440
a(S'p2_vo'
I9
tp441
a(S'w'
I726
tp442
a(S'p1_vo'
I5
tp443
a(S'w'
I8
tp444
a(S'p2_vo'
I8
tp445
a(S'w'
I726
tp446
a(S'p1_vo'
I4
tp447
a(S'w'
I7
tp448
a(S'p2_vo'
I7
tp449
a(S'w'
I727
tp450
a(S'p1_vo'
I3
tp451
a(S'w'
I7
tp452
a(S'p2_vo'
I6
tp453
a(S'w'
I731
tp454
a(S'p2_vo'
I5
tp455
a(S'w'
I733
tp456
a(S'p2_vo'
I4
tp457
a(S'w'
I1494
tp458
a(S'tr_ll'
I1
tp459
a(S'w'
I3
tp460
a(S'tr_tl'
I83
tp461
a(S'w'
I9
tp462
a(S'no_vo'
I8
tp463
a(S'w'
I4
tp464
a(S'no_ll'
I1
tp465
a(S'w'
I3
tp466
a(S'no_np'
I3
tp467
a(S'w'
I695
tp468
a(S'no_vo'
I3
tp469
a(S'w'
I5
tp470
a(S'no_np'
I1
tp471
a(S'w'
I729
tp472
a(S'no_vo'
I1
tp473
a(S'w'
I5
tp474
a(S'w'
I729
tp475
a(S'no_vo'
I0
tp476
a(S'w'
I3674
tp477
a(S'tr_ll'
I1
tp478
a(S'tr_th'
I0
tp479
a(S'w'
I3
tp480
a(S'tr_tl'
I254
tp481
a(S'w'
I5859
tp482
a(S'p1_vo'
I7
tp483
a(S'w'
I6
tp484
a(S'p1_tl'
I255
tp485
a(S'w'
I12
tp486
a(S'p2_vo'
I10
tp487
a(S'w'
I7
tp488
a(S'p2_tl'
I213
tp489
a(S'w'
I29
tp490
a(S'tr_ll'
I1
tp491
a(S'tr_th'
I1
tp492
a(S'w'
I3
tp493
a(S'tr_tl'
I252
tp494
a(S'w'
I9
tp495
a(S'no_vo'
I8
tp496
a(S'w'
I4
tp497
a(S'no_ll'
I1
tp498
a(S'w'
I3
tp499
a(S'no_np'
I3
tp500
a(S'w'
I653
tp501
a(S'p1_vo'
I6
tp502
a(S'w'
I8
tp503
a(S'p2_vo'
I9
tp504
a(S'w'
I10
tp505
a(S'no_vo'
I3
tp506
a(S'w'
I4
tp507
a(S'no_np'
I1
tp508
a(S'w'
I712
tp509
a(S'p1_vo'
I5
tp510
a(S'w'
I8
tp511
a(S'p2_vo'
I8
tp512
a(S'w'
I10
tp513
a(S'no_vo'
I1
tp514
a(S'w'
I4
tp515
a(S'w'
I712
tp516
a(S'p1_vo'
I4
tp517
a(S'w'
I8
tp518
a(S'p2_vo'
I7
tp519
a(S'w'
I9
tp520
a(S'no_vo'
I0
tp521
a(S'w'
I717
tp522
a(S'p1_vo'
I3
tp523
a(S'w'
I7
tp524
a(S'p2_vo'
I6
tp525
a(S'w'
I731
tp526
a(S'p2_vo'
I5
tp527
a(S'w'
I734
tp528
a(S'p2_vo'
I4
tp529
a(S'w'
I1490
tp530
a(S'tr_ll'
I1
tp531
a(S'w'
I13
tp532
a(S'no_vo'
I8
tp533
a(S'w'
I4
tp534
a(S'no_ll'
I1
tp535
a(S'w'
I3
tp536
a(S'no_np'
I3
tp537
a(S'w'
I698
tp538
a(S'no_vo'
I3
tp539
a(S'w'
I4
tp540
a(S'no_np'
I1
tp541
a(S'w'
I730
tp542
a(S'no_vo'
I1
tp543
a(S'w'
I4
tp544
a(S'w'
I729
tp545
a(S'no_vo'
I0
tp546
a(S'w'
I3685
tp547
a(S'tr_ll'
I1
tp548
a(S'w'
I13
tp549
a(S'no_vo'
I8
tp550
a(S'w'
I4
tp551
a(S'no_ll'
I1
tp552
a(S'w'
I3
tp553
a(S'no_np'
I3
tp554
a(S'w'
I698
tp555
a(S'no_vo'
I3
tp556
a(S'w'
I4
tp557
a(S'no_np'
I1
tp558
a(S'w'
I730
tp559
a(S'no_vo'
I1
tp560
a(S'w'
I4
tp561
a(S'w'
I729
tp562
a(S'no_vo'
I0
tp563
a(S'w'
I3665
tp564
a(S'p1_vo'
I7
tp565
a(S'w'
I7
tp566
a(S'p1_tl'
I214
tp567
a(S'w'
I12
tp568
a(S'p2_vo'
I10
tp569
a(S'w'
I7
tp570
a(S'p2_tl'
I179
tp571
a(S'w'
I26
tp572
a(S'tr_ll'
I1
tp573
a(S'tr_th'
I2
tp574
a(S'w'
I3
tp575
a(S'tr_tl'
I27
tp576
a(S'w'
I9
tp577
a(S'no_vo'
I8
tp578
a(S'w'
I4
tp579
a(S'no_ll'
I1
tp580
a(S'w'
I3
tp581
a(S'no_np'
I3
tp582
a(S'w'
I657
tp583
a(S'p1_vo'
I6
tp584
a(S'w'
I7
tp585
a(S'p2_vo'
I9
tp586
a(S'w'
I10
tp587
a(S'no_vo'
I3
tp588
a(S'w'
I4
tp589
a(S'no_np'
I1
tp590
a(S'w'
I712
tp591
a(S'p1_vo'
I5
tp592
a(S'w'
I8
tp593
a(S'p2_vo'
I8
tp594
a(S'w'
I10
tp595
a(S'no_vo'
I1
tp596
a(S'w'
I4
tp597
a(S'w'
I712
tp598
a(S'p1_vo'
I4
tp599
a(S'w'
I8
tp600
a(S'p2_vo'
I7
tp601
a(S'w'
I9
tp602
a(S'no_vo'
I0
tp603
a(S'w'
I717
tp604
a(S'p1_vo'
I3
tp605
a(S'w'
I8
tp606
a(S'p2_vo'
I6
tp607
a(S'w'
I730
tp608
a(S'p2_vo'
I5
tp609
a(S'w'
I734
tp610
a(S'p2_vo'
I4
tp611
a(S'w'
I1473
tp612
a(S'p1_vo'
I7
tp613
a(S'w'
I6
tp614
a(S'p1_tl'
I241
tp615
a(S'w'
I12
tp616
a(S'p2_vo'
I10
tp617
a(S'w'
I7
tp618
a(S'p2_tl'
I190
tp619
a(S'w'
I29
tp620
a(S'tr_ll'
I1
tp621
a(S'tr_th'
I1
tp622
a(S'w'
I3
tp623
a(S'tr_tl'
I103
tp624
a(S'w'
I10
tp625
a(S'no_vo'
I8
tp626
a(S'w'
I4
tp627
a(S'no_ll'
I1
tp628
a(S'w'
I3
tp629
a(S'no_np'
I7
tp630
a(S'w'
I650
tp631
a(S'p1_vo'
I6
tp632
a(S'w'
I8
tp633
a(S'p2_vo'
I9
tp634
a(S'w'
I9
tp635
a(S'no_vo'
I6
tp636
a(S'w'
I5
tp637
a(S'no_np'
I6
tp638
a(S'w'
I712
tp639
a(S'p1_vo'
I5
tp640
a(S'w'
I7
tp641
a(S'p2_vo'
I8
tp642
a(S'w'
I10
tp643
a(S'no_vo'
I4
tp644
a(S'w'
I4
tp645
a(S'no_np'
I5
tp646
a(S'w'
I713
tp647
a(S'p1_vo'
I4
tp648
a(S'w'
I7
tp649
a(S'p2_vo'
I7
tp650
a(S'w'
I10
tp651
a(S'no_vo'
I3
tp652
a(S'w'
I4
tp653
a(S'no_np'
I4
tp654
a(S'w'
I713
tp655
a(S'p1_vo'
I3
tp656
a(S'w'
I7
tp657
a(S'p2_vo'
I6
tp658
a(S'w'
I10
tp659
a(S'no_vo'
I1
tp660
a(S'w'
I4
tp661
a(S'w'
I712
tp662
a(S'p1_vo'
I2
tp663
a(S'w'
I8
tp664
a(S'p2_vo'
I5
tp665
a(S'w'
I9
tp666
a(S'no_vo'
I0
tp667
a(S'w'
I721
tp668
a(S'p2_vo'
I4
tp669
a(S'w'
I1475
tp670
a(S'p2_vo'
I10
tp671
a(S'w'
I7
tp672
a(S'p2_tl'
I213
tp673
a(S'w'
I719
tp674
a(S'p1_vo'
I7
tp675
a(S'w'
I6
tp676
a(S'p1_ll'
I1
tp677
a(S'p1_th'
I1
tp678
a(S'w'
I3
tp679
a(S'p1_tl'
I14
tp680
a(S'w'
I8
tp681
a(S'p2_vo'
I9
tp682
a(S'w'
I26
tp683
a(S'tr_ll'
I1
tp684
a(S'w'
I3
tp685
a(S'tr_tl'
I13
tp686
a(S'w'
I10
tp687
a(S'no_vo'
I8
tp688
a(S'w'
I4
tp689
a(S'no_ll'
I1
tp690
a(S'w'
I3
tp691
a(S'no_np'
I3
tp692
a(S'w'
I667
tp693
a(S'p1_vo'
I6
tp694
a(S'w'
I8
tp695
a(S'p2_vo'
I8
tp696
a(S'w'
I10
tp697
a(S'no_vo'
I3
tp698
a(S'w'
I4
tp699
a(S'no_np'
I1
tp700
a(S'w'
I712
tp701
a(S'p1_vo'
I5
tp702
a(S'w'
I8
tp703
a(S'p2_vo'
I7
tp704
a(S'w'
I10
tp705
a(S'no_vo'
I1
tp706
a(S'w'
I4
tp707
a(S'w'
I712
tp708
a(S'p1_vo'
I4
tp709
a(S'w'
I7
tp710
a(S'p2_vo'
I6
tp711
a(S'w'
I10
tp712
a(S'no_vo'
I0
tp713
a(S'w'
I717
tp714
a(S'p1_vo'
I3
tp715
a(S'w'
I7
tp716
a(S'p2_vo'
I5
tp717
a(S'w'
I726
tp718
a(S'p1_vo'
I2
tp719
a(S'w'
I8
tp720
a(S'p2_vo'
I4
tp721
a(S'w'
I731
tp722
a(S'p2_vo'
I3
tp723
a(S'w'
I1471
tp724
a(S'p2_vo'
I10
tp725
a(S'w'
I7
tp726
a(S'p2_tl'
I190
tp727
a(S'w'
I723
tp728
a(S'p1_vo'
I7
tp729
a(S'w'
I6
tp730
a(S'p1_tl'
I65
tp731
a(S'w'
I8
tp732
a(S'p2_vo'
I9
tp733
a(S'w'
I28
tp734
a(S'tr_ll'
I1
tp735
a(S'w'
I3
tp736
a(S'tr_tl'
I224
tp737
a(S'w'
I9
tp738
a(S'no_vo'
I8
tp739
a(S'w'
I5
tp740
a(S'no_ll'
I1
tp741
a(S'w'
I3
tp742
a(S'no_np'
I7
tp743
a(S'w'
I668
tp744
a(S'p1_vo'
I6
tp745
a(S'w'
I7
tp746
a(S'p2_vo'
I8
tp747
a(S'w'
I10
tp748
a(S'no_vo'
I6
tp749
a(S'w'
I4
tp750
a(S'no_np'
I6
tp751
a(S'w'
I712
tp752
a(S'p1_vo'
I5
tp753
a(S'w'
I8
tp754
a(S'p2_vo'
I7
tp755
a(S'w'
I10
tp756
a(S'no_vo'
I4
tp757
a(S'w'
I4
tp758
a(S'no_np'
I5
tp759
a(S'w'
I712
tp760
a(S'p1_vo'
I4
tp761
a(S'w'
I8
tp762
a(S'p2_vo'
I6
tp763
a(S'w'
I9
tp764
a(S'no_vo'
I3
tp765
a(S'w'
I5
tp766
a(S'no_np'
I4
tp767
a(S'w'
I712
tp768
a(S'p1_vo'
I3
tp769
a(S'w'
I7
tp770
a(S'p2_vo'
I5
tp771
a(S'w'
I10
tp772
a(S'no_vo'
I1
tp773
a(S'w'
I5
tp774
a(S'w'
I712
tp775
a(S'p1_vo'
I2
tp776
a(S'w'
I7
tp777
a(S'p2_vo'
I4
tp778
a(S'w'
I10
tp779
a(S'no_vo'
I0
tp780
a(S'w'
I721
tp781
a(S'p2_vo'
I3
tp782
a(S'w'
I1471
tp783
a(S'p2_vo'
I10
tp784
a(S'w'
I7
tp785
a(S'p2_tl'
I160
tp786
a(S'w'
I723
tp787
a(S'p1_vo'
I7
tp788
a(S'w'
I6
tp789
a(S'p1_ll'
I1
tp790
a(S'p1_th'
I0
tp791
a(S'w'
I3
tp792
a(S'p1_tl'
I241
tp793
a(S'w'
I8
tp794
a(S'p2_vo'
I9
tp795
a(S'w'
I28
tp796
a(S'tr_ll'
I1
tp797
a(S'w'
I3
tp798
a(S'tr_tl'
I64
tp799
a(S'w'
I10
tp800
a(S'no_vo'
I8
tp801
a(S'w'
I4
tp802
a(S'no_ll'
I1
tp803
a(S'w'
I3
tp804
a(S'no_np'
I7
tp805
a(S'w'
I665
tp806
a(S'p1_vo'
I6
tp807
a(S'w'
I7
tp808
a(S'p2_vo'
I8
tp809
a(S'w'
I10
tp810
a(S'no_vo'
I6
tp811
a(S'w'
I4
tp812
a(S'no_np'
I6
tp813
a(S'w'
I712
tp814
a(S'p1_vo'
I5
tp815
a(S'w'
I8
tp816
a(S'p2_vo'
I7
tp817
a(S'w'
I10
tp818
a(S'no_vo'
I4
tp819
a(S'w'
I4
tp820
a(S'no_np'
I5
tp821
a(S'w'
I712
tp822
a(S'p1_vo'
I4
tp823
a(S'w'
I8
tp824
a(S'p2_vo'
I6
tp825
a(S'w'
I10
tp826
a(S'no_vo'
I3
tp827
a(S'w'
I4
tp828
a(S'no_np'
I4
tp829
a(S'w'
I712
tp830
a(S'p1_vo'
I3
tp831
a(S'w'
I8
tp832
a(S'p2_vo'
I5
tp833
a(S'w'
I10
tp834
a(S'no_vo'
I1
tp835
a(S'w'
I4
tp836
a(S'w'
I712
tp837
a(S'p1_vo'
I2
tp838
a(S'w'
I7
tp839
a(S'p2_vo'
I4
tp840
a(S'w'
I10
tp841
a(S'no_vo'
I0
tp842
a(S'w'
I721
tp843
a(S'p2_vo'
I3
tp844
a(S'w'
I1471
tp845
a(S'p2_vo'
I10
tp846
a(S'w'
I7
tp847
a(S'p2_tl'
I120
tp848
a(S'w'
I725
tp849
a(S'p1_vo'
I7
tp850
a(S'w'
I8
tp851
a(S'p1_tl'
I191
tp852
a(S'w'
I7
tp853
a(S'p2_vo'
I9
tp854
a(S'w'
I28
tp855
a(S'tr_ll'
I1
tp856
a(S'w'
I3
tp857
a(S'tr_tl'
I224
tp858
a(S'w'
I10
tp859
a(S'no_vo'
I8
tp860
a(S'w'
I4
tp861
a(S'no_ll'
I1
tp862
a(S'w'
I3
tp863
a(S'no_np'
I7
tp864
a(S'w'
I665
tp865
a(S'p1_vo'
I6
tp866
a(S'w'
I7
tp867
a(S'p2_vo'
I8
tp868
a(S'w'
I10
tp869
a(S'no_vo'
I6
tp870
a(S'w'
I5
tp871
a(S'no_np'
I6
tp872
a(S'w'
I712
tp873
a(S'p1_vo'
I5
tp874
a(S'w'
I7
tp875
a(S'p2_vo'
I7
tp876
a(S'w'
I10
tp877
a(S'no_vo'
I4
tp878
a(S'w'
I4
tp879
a(S'no_np'
I5
tp880
a(S'w'
I713
tp881
a(S'p1_vo'
I4
tp882
a(S'w'
I7
tp883
a(S'p2_vo'
I6
tp884
a(S'w'
I10
tp885
a(S'no_vo'
I3
tp886
a(S'w'
I4
tp887
a(S'no_np'
I4
tp888
a(S'w'
I712
tp889
a(S'p1_vo'
I3
tp890
a(S'w'
I8
tp891
a(S'p2_vo'
I5
tp892
a(S'w'
I10
tp893
a(S'no_vo'
I1
tp894
a(S'w'
I4
tp895
a(S'w'
I712
tp896
a(S'p1_vo'
I2
tp897
a(S'w'
I8
tp898
a(S'p2_vo'
I4
tp899
a(S'w'
I9
tp900
a(S'no_vo'
I0
tp901
a(S'w'
I721
tp902
a(S'p2_vo'
I3
tp903
a(S'w'
I1476
tp904
a(S'p2_vo'
I10
tp905
a(S'w'
I7
tp906
a(S'p2_tl'
I106
tp907
a(S'w'
I720
tp908
a(S'p1_vo'
I7
tp909
a(S'w'
I7
tp910
a(S'p1_tl'
I170
tp911
a(S'w'
I8
tp912
a(S'p2_vo'
I9
tp913
a(S'w'
I26
tp914
a(S'tr_lh'
I1
tp915
a(S'tr_lr'
I16
tp916
a(S'w'
I5
tp917
a(S'tr_ll'
I1
tp918
a(S'w'
I3
tp919
a(S'tr_tl'
I171
tp920
a(S'w'
I9
tp921
a(S'no_vo'
I8
tp922
a(S'w'
I5
tp923
a(S'no_ll'
I1
tp924
a(S'w'
I3
tp925
a(S'no_np'
I7
tp926
a(S'w'
I662
tp927
a(S'p1_vo'
I6
tp928
a(S'w'
I8
tp929
a(S'p2_vo'
I8
tp930
a(S'w'
I9
tp931
a(S'no_vo'
I6
tp932
a(S'w'
I5
tp933
a(S'no_np'
I6
tp934
a(S'w'
I712
tp935
a(S'p1_vo'
I5
tp936
a(S'w'
I7
tp937
a(S'p2_vo'
I7
tp938
a(S'w'
I10
tp939
a(S'no_vo'
I4
tp940
a(S'w'
I5
tp941
a(S'no_np'
I5
tp942
a(S'w'
I712
tp943
a(S'p1_vo'
I4
tp944
a(S'w'
I7
tp945
a(S'p2_vo'
I6
tp946
a(S'w'
I10
tp947
a(S'no_vo'
I3
tp948
a(S'w'
I4
tp949
a(S'no_np'
I4
tp950
a(S'w'
I713
tp951
a(S'p1_vo'
I3
tp952
a(S'w'
I7
tp953
a(S'p2_vo'
I5
tp954
a(S'w'
I10
tp955
a(S'no_vo'
I1
tp956
a(S'w'
I4
tp957
a(S'w'
I712
tp958
a(S'p1_vo'
I2
tp959
a(S'w'
I8
tp960
a(S'p2_vo'
I4
tp961
a(S'w'
I9
tp962
a(S'no_vo'
I0
tp963
a(S'w'
I721
tp964
a(S'p2_vo'
I3
tp965
a(S'w'
I18347
tp966
a(S'p2_tl'
I107
tp967
a(S'w'
I2935
tp968
a(S'p2_tl'
I105
tp969
a(S'w'
I2935
tp970
a(S'p2_tl'
I107
tp971
a(S'w'
I2935
tp972
a(S'p2_tl'
I105
tp973
a(S'w'
I2935
tp974
a(S'p2_tl'
I107
tp975
a(S'w'
I2936
tp976
a(S'p2_tl'
I105
tp977
a(S'w'
I2935
tp978
a(S'p2_tl'
I107
tp979
a(S'w'
I2935
tp980
a(S'p2_tl'
I105
tp981
a(S'w'
I2200
tp982
a(S'p1_du'
I0
tp983
a(S'p1_vo'
I0
tp984
a(S'p2_du'
I0
tp985
a(S'p2_vo'
I0
tp986
a(S'w'
I2
tp987
a(S'tr_lh'
I0
tp988
a(S'tr_lr'
I0
tp989
a(S'w'
I24
tp990
a(S'p1_du'
I2
tp991
a(S'p1_vo'
I12
tp992
a(S'w'
I5
tp993
a(S'p1_ll'
I1
tp994
a(S'w'
I3
tp995
a(S'p1_tl'
I84
tp996
a(S'w'
I698
tp997
a(S'p2_du'
I2
tp998
a(S'w'
I5
tp999
a(S'p2_ll'
I1
tp1000
a(S'w'
I3
tp1001
a(S'p2_tl'
I0
tp1002
a(S'w'
I9
tp1003
a(S'p1_vo'
I11
tp1004
a(S'w'
I5
tp1005
a(S'w'
I714
tp1006
a(S'p1_vo'
I10
tp1007
a(S'w'
I5
tp1008
a(S'w'
I729
tp1009
a(S'p1_vo'
I9
tp1010
a(S'w'
I5
tp1011
a(S'w'
I729
tp1012
a(S'p1_vo'
I12
tp1013
a(S'w'
I5
tp1014
a(S'p1_tl'
I71
tp1015
a(S'w'
I729
tp1016
a(S'p1_vo'
I11
tp1017
a(S'w'
I4
tp1018
a(S'w'
I729
tp1019
a(S'p1_vo'
I10
tp1020
a(S'w'
I5
tp1021
a(S'w'
I729
tp1022
a(S'p1_vo'
I9
tp1023
a(S'w'
I5
tp1024
a(S'w'
I729
tp1025
a(S'p1_vo'
I12
tp1026
a(S'w'
I5
tp1027
a(S'p1_tl'
I53
tp1028
a(S'w'
I727
tp1029
a(S'p2_vo'
I5
tp1030
a(S'w'
I5
tp1031
a(S'p2_tl'
I84
tp1032
a(S'w'
I9
tp1033
a(S'p1_vo'
I11
tp1034
a(S'w'
I5
tp1035
a(S'w'
I718
tp1036
a(S'w'
I9
tp1037
a(S'p1_vo'
I10
tp1038
a(S'w'
I5
tp1039
a(S'w'
I720
tp1040
a(S'w'
I9
tp1041
a(S'p1_vo'
I9
tp1042
a(S'w'
I5
tp1043
a(S'w'
I719
tp1044
a(S'w'
I14
tp1045
a(S'p1_tl'
I84
tp1046
a(S'w'
I720
tp1047
a(S'p2_tl'
I71
tp1048
a(S'w'
I9
tp1049
a(S'p1_vo'
I8
tp1050
a(S'w'
I5
tp1051
a(S'w'
I720
tp1052
a(S'w'
I9
tp1053
a(S'p1_vo'
I7
tp1054
a(S'w'
I5
tp1055
a(S'w'
I720
tp1056
a(S'w'
I9
tp1057
a(S'p1_vo'
I6
tp1058
a(S'w'
I5
tp1059
a(S'w'
I720
tp1060
a(S'w'
I9
tp1061
a(S'p1_vo'
I9
tp1062
a(S'w'
I5
tp1063
a(S'p1_tl'
I71
tp1064
a(S'w'
I719
tp1065
a(S'p2_tl'
I53
tp1066
a(S'w'
I10
tp1067
a(S'p1_vo'
I8
tp1068
a(S'w'
I4
tp1069
a(S'w'
I720
tp1070
a(S'w'
I9
tp1071
a(S'p1_vo'
I7
tp1072
a(S'w'
I5
tp1073
a(S'w'
I720
tp1074
a(S'w'
I9
tp1075
a(S'p1_vo'
I6
tp1076
a(S'w'
I5
tp1077
a(S'w'
I720
tp1078
a(S'w'
I9
tp1079
a(S'p1_vo'
I9
tp1080
a(S'w'
I5
tp1081
a(S'p1_tl'
I53
tp1082
a(S'w'
I714
tp1083
a(S'p2_vo'
I4
tp1084
a(S'w'
I6
tp1085
a(S'p2_tl'
I84
tp1086
a(S'w'
I9
tp1087
a(S'p1_vo'
I8
tp1088
a(S'w'
I5
tp1089
a(S'w'
I719
tp1090
a(S'w'
I10
tp1091
a(S'p1_vo'
I7
tp1092
a(S'w'
I5
tp1093
a(S'w'
I719
tp1094
a(S'w'
I10
tp1095
a(S'p1_vo'
I6
tp1096
a(S'w'
I4
tp1097
a(S'w'
I720
tp1098
a(S'w'
I9
tp1099
a(S'p1_vo'
I4
tp1100
a(S'w'
I5
tp1101
a(S'p1_tl'
I84
tp1102
a(S'w'
I720
tp1103
a(S'p2_tl'
I71
tp1104
a(S'w'
I14
tp1105
a(S'w'
I720
tp1106
a(S'w'
I14
tp1107
a(S'w'
I719
tp1108
a(S'w'
I14
tp1109
a(S'w'
I720
tp1110
a(S'w'
I14
tp1111
a(S'p1_tl'
I71
tp1112
a(S'w'
I720
tp1113
a(S'p2_tl'
I53
tp1114
a(S'w'
I14
tp1115
a(S'w'
I720
tp1116
a(S'w'
I14
tp1117
a(S'w'
I720
tp1118
a(S'w'
I14
tp1119
a(S'w'
I720
tp1120
a(S'w'
I14
tp1121
a(S'p1_tl'
I53
tp1122
a(S'w'
I714
tp1123
a(S'p2_vo'
I3
tp1124
a(S'w'
I5
tp1125
a(S'p2_tl'
I84
tp1126
a(S'w'
I14
tp1127
a(S'w'
I720
tp1128
a(S'w'
I14
tp1129
a(S'w'
I720
tp1130
a(S'w'
I14
tp1131
a(S'w'
I720
tp1132
a(S'w'
I9
tp1133
a(S'p1_vo'
I2
tp1134
a(S'w'
I5
tp1135
a(S'p1_tl'
I84
tp1136
a(S'w'
I719
tp1137
a(S'p2_tl'
I71
tp1138
a(S'w'
I15
tp1139
a(S'w'
I719
tp1140
a(S'w'
I14
tp1141
a(S'w'
I720
tp1142
a(S'w'
I14
tp1143
a(S'w'
I720
tp1144
a(S'w'
I14
tp1145
a(S'p1_tl'
I71
tp1146
a(S'w'
I720
tp1147
a(S'p2_tl'
I53
tp1148
a(S'w'
I14
tp1149
a(S'w'
I719
tp1150
a(S'w'
I15
tp1151
a(S'w'
I719
tp1152
a(S'w'
I14
tp1153
a(S'w'
I720
tp1154
a(S'w'
I14
tp1155
a(S'p1_tl'
I53
tp1156
a(S'w'
I715
tp1157
a(S'p2_vo'
I2
tp1158
a(S'w'
I5
tp1159
a(S'p2_tl'
I84
tp1160
a(S'w'
I14
tp1161
a(S'w'
I720
tp1162
a(S'w'
I14
tp1163
a(S'w'
I720
tp1164
a(S'w'
I14
tp1165
a(S'w'
I719
tp1166
a(S'w'
I10
tp1167
a(S'p1_vo'
I1
tp1168
a(S'w'
I5
tp1169
a(S'p1_tl'
I84
tp1170
a(S'w'
I719
tp1171
a(S'p2_tl'
I71
tp1172
a(S'w'
I14
tp1173
a(S'w'
I720
tp1174
a(S'w'
I14
tp1175
a(S'w'
I720
tp1176
a(S'w'
I14
tp1177
a(S'w'
I720
tp1178
a(S'w'
I14
tp1179
a(S'p1_tl'
I71
tp1180
a(S'w'
I719
tp1181
a(S'p2_tl'
I53
tp1182
a(S'w'
I15
tp1183
a(S'w'
I719
tp1184
a(S'w'
I14
tp1185
a(S'w'
I720
tp1186
a(S'w'
I14
tp1187
a(S'w'
I720
tp1188
a(S'w'
I14
tp1189
a(S'p1_tl'
I53
tp1190
a(S'w'
I714
tp1191
a(S'p2_vo'
I1
tp1192
a(S'w'
I6
tp1193
a(S'p2_tl'
I84
tp1194
a(S'w'
I14
tp1195
a(S'w'
I719
tp1196
a(S'w'
I12
tp1197
a(S'p1_vo'
I0
tp1198
a(S'w'
I4
tp1199
a(S'p1_tl'
I0
tp1200
a(S'w'
I718
tp1201
a(S'w'
I734
tp1202
a(S'w'
I734
tp1203
a(S'p2_tl'
I71
tp1204
a(S'w'
I734
tp1205
a(S'w'
I733
tp1206
a(S'w'
I734
tp1207
a(S'w'
I734
tp1208
a(S'p2_tl'
I53
tp1209
a(S'w'
I734
tp1210
a(S'w'
I730
tp1211
a(S'p2_vo'
I0
tp1212
a(S'w'
I5
tp1213
a(S'p2_tl'
I0
tp1214
a(S'w'
I4405
tp1215
a(S'w'
I6601
tp1216
a(S'w'
I4406
tp1217
a(S'w'
I6601
tp1218
a.