(lp1
(S'clock'
p2
I1789772
tp3
a(S'p1_lh'
I1
tp4
a(S'p1_cv'
I1
tp5
a(S'p1_sp'
I3
tp6
a(S'p1_ll'
I1
tp7
a(S'p2_lh'
I1
tp8
a(S'p2_cv'
I1
tp9
a(S'p2_sp'
I3
tp10
a(S'p2_ll'
I1
tp11
a(S'tr_tl'
I83
tp12
a(S'tr_ll'
I1
tp13
a(S'tr_th'
I1
tp14
a(S'no_lh'
I1
tp15
a(S'no_cv'
I1
tp16
a(S'no_np'
I5
tp17
a(S'no_ll'
I1
tp18
a(S'ch_no'
I1
tp19
a(S'ch_tr'
I1
tp20
a(S'ch_p2'
I1
tp21
a(S'ch_p1'
I1
tp22
a(S'fc_mo'
I1
tp23
a(S'p2_du'
I2
tp24
a(S'p2_vo'
I7
tp25
a(S'w'
I8
tp26
a(S'p2_ll'
I1
tp27
a(S'w'
I3
tp28
a(S'p2_tl'
I31
tp29
a(S'w'
I713
tp30
a(S'p2_vo'
I6
tp31
a(S'w'
I734
tp32
a(S'p2_vo'
I5
tp33
a(S'w'
I734
tp34
a(S'p2_vo'
I4
tp35
a(S'w'
I734
tp36
a(S'p2_vo'
I3
tp37
a(S'w'
I734
tp38
a(S'p2_vo'
I2
tp39
a(S'w'
I733
tp40
a(S'p2_vo'
I1
tp41
a(S'w'
I7345
tp42
a(S'p1_du'
I2
tp43
a(S'p1_vo'
I3
tp44
a(S'w'
I7
tp45
a(S'p1_ll'
I1
tp46
a(S'w'
I4
tp47
a(S'p1_tl'
I31
tp48
a(S'w'
I11
tp49
a(S'p2_vo'
I7
tp50
a(S'w'
I8
tp51
a(S'p2_tl'
I40
tp52
a(S'w'
I694
tp53
a(S'p1_vo'
I2
tp54
a(S'w'
I7
tp55
a(S'p2_vo'
I6
tp56
a(S'w'
I727
tp57
a(S'p1_vo'
I1
tp58
a(S'w'
I7
tp59
a(S'p2_vo'
I5
tp60
a(S'w'
I731
tp61
a(S'p2_vo'
I4
tp62
a(S'w'
I733
tp63
a(S'p2_vo'
I3
tp64
a(S'w'
I734
tp65
a(S'p2_vo'
I2
tp66
a(S'w'
I734
tp67
a(S'p2_vo'
I1
tp68
a(S'w'
I7338
tp69
a(S'p1_vo'
I3
tp70
a(S'w'
I8
tp71
a(S'p1_tl'
I40
tp72
a(S'w'
I12
tp73
a(S'p2_vo'
I7
tp74
a(S'w'
I8
tp75
a(S'p2_tl'
I53
tp76
a(S'w'
I702
tp77
a(S'p1_vo'
I2
tp78
a(S'w'
I7
tp79
a(S'p2_vo'
I6
tp80
a(S'w'
I727
tp81
a(S'p1_vo'
I1
tp82
a(S'w'
I7
tp83
a(S'p2_vo'
I5
tp84
a(S'w'
I730
tp85
a(S'p2_vo'
I4
tp86
a(S'w'
I734
tp87
a(S'p2_vo'
I3
tp88
a(S'w'
I734
tp89
a(S'p2_vo'
I2
tp90
a(S'w'
I734
tp91
a(S'p2_vo'
I1
tp92
a(S'w'
I7338
tp93
a(S'p1_vo'
I3
tp94
a(S'w'
I8
tp95
a(S'p1_tl'
I53
tp96
a(S'w'
I12
tp97
a(S'p2_vo'
I7
tp98
a(S'w'
I8
tp99
a(S'p2_tl'
I40
tp100
a(S'w'
I702
tp101
a(S'p1_vo'
I2
tp102
a(S'w'
I7
tp103
a(S'p2_vo'
I6
tp104
a(S'w'
I726
tp105
a(S'p1_vo'
I1
tp106
a(S'w'
I8
tp107
a(S'p2_vo'
I5
tp108
a(S'w'
I730
tp109
a(S'p2_vo'
I4
tp110
a(S'w'
I734
tp111
a(S'p2_vo'
I3
tp112
a(S'w'
I734
tp113
a(S'p2_vo'
I2
tp114
a(S'w'
I734
tp115
a(S'p2_vo'
I1
tp116
a(S'w'
I7338
tp117
a(S'p1_vo'
I3
tp118
a(S'w'
I8
tp119
a(S'p1_tl'
I40
tp120
a(S'w'
I12
tp121
a(S'p2_vo'
I7
tp122
a(S'w'
I8
tp123
a(S'p2_tl'
I53
tp124
a(S'w'
I701
tp125
a(S'p1_vo'
I2
tp126
a(S'w'
I8
tp127
a(S'p2_vo'
I6
tp128
a(S'w'
I726
tp129
a(S'p1_vo'
I1
tp130
a(S'w'
I8
tp131
a(S'p2_vo'
I5
tp132
a(S'w'
I730
tp133
a(S'p2_vo'
I4
tp134
a(S'w'
I734
tp135
a(S'p2_vo'
I3
tp136
a(S'w'
I734
tp137
a(S'p2_vo'
I2
tp138
a(S'w'
I733
tp139
a(S'p2_vo'
I1
tp140
a(S'w'
I7339
tp141
a(S'p1_vo'
I3
tp142
a(S'w'
I8
tp143
a(S'p1_tl'
I53
tp144
a(S'w'
I14
tp145
a(S'p2_vo'
I7
tp146
a(S'w'
I8
tp147
a(S'p2_tl'
I63
tp148
a(S'w'
I699
tp149
a(S'p1_vo'
I2
tp150
a(S'w'
I7
tp151
a(S'p2_vo'
I6
tp152
a(S'w'
I727
tp153
a(S'p1_vo'
I1
tp154
a(S'w'
I7
tp155
a(S'p2_vo'
I5
tp156
a(S'w'
I731
tp157
a(S'p2_vo'
I4
tp158
a(S'w'
I734
tp159
a(S'p2_vo'
I3
tp160
a(S'w'
I733
tp161
a(S'p2_vo'
I2
tp162
a(S'w'
I734
tp163
a(S'p2_vo'
I1
tp164
a(S'w'
I7341
tp165
a(S'p1_vo'
I3
tp166
a(S'w'
I8
tp167
a(S'p1_tl'
I63
tp168
a(S'w'
I14
tp169
a(S'p2_vo'
I7
tp170
a(S'w'
I8
tp171
a(S'p2_tl'
I53
tp172
a(S'w'
I697
tp173
a(S'p1_vo'
I2
tp174
a(S'w'
I7
tp175
a(S'p2_vo'
I6
tp176
a(S'w'
I727
tp177
a(S'p1_vo'
I1
tp178
a(S'w'
I7
tp179
a(S'p2_vo'
I5
tp180
a(S'w'
I731
tp181
a(S'p2_vo'
I4
tp182
a(S'w'
I733
tp183
a(S'p2_vo'
I3
tp184
a(S'w'
I734
tp185
a(S'p2_vo'
I2
tp186
a(S'w'
I734
tp187
a(S'p2_vo'
I1
tp188
a(S'w'
I7341
tp189
a(S'p1_vo'
I3
tp190
a(S'w'
I8
tp191
a(S'p1_tl'
I53
tp192
a(S'w'
I14
tp193
a(S'p2_vo'
I7
tp194
a(S'w'
I8
tp195
a(S'p2_tl'
I63
tp196
a(S'w'
I697
tp197
a(S'p1_vo'
I2
tp198
a(S'w'
I7
tp199
a(S'p2_vo'
I6
tp200
a(S'w'
I727
tp201
a(S'p1_vo'
I1
tp202
a(S'w'
I7
tp203
a(S'p2_vo'
I5
tp204
a(S'w'
I731
tp205
a(S'p2_vo'
I4
tp206
a(S'w'
I733
tp207
a(S'p2_vo'
I3
tp208
a(S'w'
I734
tp209
a(S'p2_vo'
I2
tp210
a(S'w'
I734
tp211
a(S'p2_vo'
I1
tp212
a(S'w'
I7341
tp213
a(S'p1_vo'
I3
tp214
a(S'w'
I7
tp215
a(S'p1_tl'
I63
tp216
a(S'w'
I12
tp217
a(S'p2_vo'
I7
tp218
a(S'w'
I8
tp219
a(S'p2_tl'
I80
tp220
a(S'w'
I700
tp221
a(S'p1_vo'
I2
tp222
a(S'w'
I7
tp223
a(S'p2_vo'
I6
tp224
a(S'w'
I726
tp225
a(S'p1_vo'
I1
tp226
a(S'w'
I8
tp227
a(S'p2_vo'
I5
tp228
a(S'w'
I730
tp229
a(S'p2_vo'
I4
tp230
a(S'w'
I734
tp231
a(S'p2_vo'
I3
tp232
a(S'w'
I734
tp233
a(S'p2_vo'
I2
tp234
a(S'w'
I734
tp235
a(S'p2_vo'
I1
tp236
a(S'w'
I7338
tp237
a(S'p1_vo'
I3
tp238
a(S'w'
I7
tp239
a(S'p1_tl'
I80
tp240
a(S'w'
I12
tp241
a(S'p2_vo'
I7
tp242
a(S'w'
I8
tp243
a(S'p2_tl'
I63
tp244
a(S'w'
I703
tp245
a(S'p1_vo'
I2
tp246
a(S'w'
I7
tp247
a(S'p2_vo'
I6
tp248
a(S'w'
I726
tp249
a(S'p1_vo'
I1
tp250
a(S'w'
I8
tp251
a(S'p2_vo'
I5
tp252
a(S'w'
I730
tp253
a(S'p2_vo'
I4
tp254
a(S'w'
I734
tp255
a(S'p2_vo'
I3
tp256
a(S'w'
I734
tp257
a(S'p2_vo'
I2
tp258
a(S'w'
I734
tp259
a(S'p2_vo'
I1
tp260
a(S'w'
I7338
tp261
a(S'p1_vo'
I3
tp262
a(S'w'
I7
tp263
a(S'p1_tl'
I63
tp264
a(S'w'
I12
tp265
a(S'p2_vo'
I7
tp266
a(S'w'
I8
tp267
a(S'p2_tl'
I80
tp268
a(S'w'
I702
tp269
a(S'p1_vo'
I2
tp270
a(S'w'
I8
tp271
a(S'p2_vo'
I6
tp272
a(S'w'
I726
tp273
a(S'p1_vo'
I1
tp274
a(S'w'
I7
tp275
a(S'p2_vo'
I5
tp276
a(S'w'
I731
tp277
a(S'p2_vo'
I4
tp278
a(S'w'
I734
tp279
a(S'p2_vo'
I3
tp280
a(S'w'
I734
tp281
a(S'p2_vo'
I2
tp282
a(S'w'
I733
tp283
a(S'p2_vo'
I1
tp284
a(S'w'
I7339
tp285
a(S'p1_vo'
I3
tp286
a(S'w'
I7
tp287
a(S'p1_tl'
I80
tp288
a(S'w'
I12
tp289
a(S'p2_vo'
I7
tp290
a(S'w'
I7
tp291
a(S'p2_tl'
I106
tp292
a(S'w'
I703
tp293
a(S'p1_vo'
I2
tp294
a(S'w'
I7
tp295
a(S'p2_vo'
I6
tp296
a(S'w'
I727
tp297
a(S'p1_vo'
I1
tp298
a(S'w'
I7
tp299
a(S'p2_vo'
I5
tp300
a(S'w'
I731
tp301
a(S'p2_vo'
I4
tp302
a(S'w'
I734
tp303
a(S'p2_vo'
I3
tp304
a(S'w'
I733
tp305
a(S'p2_vo'
I2
tp306
a(S'w'
I734
tp307
a(S'p2_vo'
I1
tp308
a(S'w'
I7338
tp309
a(S'p1_vo'
I3
tp310
a(S'w'
I8
tp311
a(S'p1_tl'
I106
tp312
a(S'w'
I14
tp313
a(S'p2_vo'
I7
tp314
a(S'w'
I8
tp315
a(S'p2_tl'
I35
tp316
a(S'w'
I700
tp317
a(S'p1_vo'
I2
tp318
a(S'w'
I7
tp319
a(S'p2_vo'
I6
tp320
a(S'w'
I727
tp321
a(S'p1_vo'
I1
tp322
a(S'w'
I7
tp323
a(S'p2_vo'
I5
tp324
a(S'w'
I731
tp325
a(S'p2_vo'
I4
tp326
a(S'w'
I733
tp327
a(S'p2_vo'
I3
tp328
a(S'w'
I734
tp329
a(S'p2_vo'
I2
tp330
a(S'w'
I734
tp331
a(S'p2_vo'
I1
tp332
a(S'w'
I7341
tp333
a(S'p1_vo'
I3
tp334
a(S'w'
I8
tp335
a(S'p1_tl'
I35
tp336
a(S'w'
I12
tp337
a(S'p2_vo'
I7
tp338
a(S'w'
I8
tp339
a(S'p2_tl'
I47
tp340
a(S'w'
I699
tp341
a(S'p1_vo'
I2
tp342
a(S'w'
I7
tp343
a(S'p2_vo'
I6
tp344
a(S'w'
I727
tp345
a(S'p1_vo'
I1
tp346
a(S'w'
I7
tp347
a(S'p2_vo'
I5
tp348
a(S'w'
I730
tp349
a(S'p2_vo'
I4
tp350
a(S'w'
I734
tp351
a(S'p2_vo'
I3
tp352
a(S'w'
I734
tp353
a(S'p2_vo'
I2
tp354
a(S'w'
I734
tp355
a(S'p2_vo'
I1
tp356
a(S'w'
I7338
tp357
a(S'p1_vo'
I3
tp358
a(S'w'
I8
tp359
a(S'p1_tl'
I47
tp360
a(S'w'
I14
tp361
a(S'p2_vo'
I7
tp362
a(S'w'
I8
tp363
a(S'p2_tl'
I56
tp364
a(S'w'
I700
tp365
a(S'p1_vo'
I2
tp366
a(S'w'
I7
tp367
a(S'p2_vo'
I6
tp368
a(S'w'
I726
tp369
a(S'p1_vo'
I1
tp370
a(S'w'
I8
tp371
a(S'p2_vo'
I5
tp372
a(S'w'
I730
tp373
a(S'p2_vo'
I4
tp374
a(S'w'
I734
tp375
a(S'p2_vo'
I3
tp376
a(S'w'
I734
tp377
a(S'p2_vo'
I2
tp378
a(S'w'
I734
tp379
a(S'p2_vo'
I1
tp380
a(S'w'
I7341
tp381
a(S'p1_vo'
I3
tp382
a(S'w'
I7
tp383
a(S'p1_tl'
I56
tp384
a(S'w'
I14
tp385
a(S'p2_vo'
I7
tp386
a(S'w'
I8
tp387
a(S'p2_tl'
I47
tp388
a(S'w'
I697
tp389
a(S'p1_vo'
I2
tp390
a(S'w'
I8
tp391
a(S'p2_vo'
I6
tp392
a(S'w'
I726
tp393
a(S'p1_vo'
I1
tp394
a(S'w'
I8
tp395
a(S'p2_vo'
I5
tp396
a(S'w'
I730
tp397
a(S'p2_vo'
I4
tp398
a(S'w'
I734
tp399
a(S'p2_vo'
I3
tp400
a(S'w'
I734
tp401
a(S'p2_vo'
I2
tp402
a(S'w'
I734
tp403
a(S'p2_vo'
I1
tp404
a(S'w'
I7340
tp405
a(S'p1_vo'
I3
tp406
a(S'w'
I8
tp407
a(S'p1_tl'
I47
tp408
a(S'w'
I15
tp409
a(S'p2_vo'
I7
tp410
a(S'w'
I7
tp411
a(S'p2_tl'
I56
tp412
a(S'w'
I697
tp413
a(S'p1_vo'
I2
tp414
a(S'w'
I8
tp415
a(S'p2_vo'
I6
tp416
a(S'w'
I726
tp417
a(S'p1_vo'
I1
tp418
a(S'w'
I7
tp419
a(S'p2_vo'
I5
tp420
a(S'w'
I731
tp421
a(S'p2_vo'
I4
tp422
a(S'w'
I734
tp423
a(S'p2_vo'
I3
tp424
a(S'w'
I734
tp425
a(S'p2_vo'
I2
tp426
a(S'w'
I733
tp427
a(S'p2_vo'
I1
tp428
a(S'w'
I7341
tp429
a(S'p1_vo'
I3
tp430
a(S'w'
I8
tp431
a(S'p1_tl'
I56
tp432
a(S'w'
I11
tp433
a(S'p2_vo'
I7
tp434
a(S'w'
I8
tp435
a(S'p2_tl'
I71
tp436
a(S'w'
I700
tp437
a(S'p1_vo'
I2
tp438
a(S'w'
I7
tp439
a(S'p2_vo'
I6
tp440
a(S'w'
I727
tp441
a(S'p1_vo'
I1
tp442
a(S'w'
I7
tp443
a(S'p2_vo'
I5
tp444
a(S'w'
I731
tp445
a(S'p2_vo'
I4
tp446
a(S'w'
I734
tp447
a(S'p2_vo'
I3
tp448
a(S'w'
I733
tp449
a(S'p2_vo'
I2
tp450
a(S'w'
I734
tp451
a(S'p2_vo'
I1
tp452
a(S'w'
I7338
tp453
a(S'p1_vo'
I3
tp454
a(S'w'
I8
tp455
a(S'p1_tl'
I71
tp456
a(S'w'
I12
tp457
a(S'p2_vo'
I7
tp458
a(S'w'
I7
tp459
a(S'p2_tl'
I56
tp460
a(S'w'
I703
tp461
a(S'p1_vo'
I2
tp462
a(S'w'
I7
tp463
a(S'p2_vo'
I6
tp464
a(S'w'
I727
tp465
a(S'p1_vo'
I1
tp466
a(S'w'
I7
tp467
a(S'p2_vo'
I5
tp468
a(S'w'
I731
tp469
a(S'p2_vo'
I4
tp470
a(S'w'
I733
tp471
a(S'p2_vo'
I3
tp472
a(S'w'
I734
tp473
a(S'p2_vo'
I2
tp474
a(S'w'
I734
tp475
a(S'p2_vo'
I1
tp476
a(S'w'
I7338
tp477
a(S'p1_vo'
I3
tp478
a(S'w'
I8
tp479
a(S'p1_tl'
I56
tp480
a(S'w'
I11
tp481
a(S'p2_vo'
I7
tp482
a(S'w'
I8
tp483
a(S'p2_tl'
I71
tp484
a(S'w'
I703
tp485
a(S'p1_vo'
I2
tp486
a(S'w'
I7
tp487
a(S'p2_vo'
I6
tp488
a(S'w'
I727
tp489
a(S'p1_vo'
I1
tp490
a(S'w'
I7
tp491
a(S'p2_vo'
I5
tp492
a(S'w'
I730
tp493
a(S'p2_vo'
I4
tp494
a(S'w'
I734
tp495
a(S'p2_vo'
I3
tp496
a(S'w'
I734
tp497
a(S'p2_vo'
I2
tp498
a(S'w'
I734
tp499
a(S'p2_vo'
I1
tp500
a(S'w'
I7338
tp501
a(S'p1_vo'
I3
tp502
a(S'w'
I7
tp503
a(S'p1_tl'
I71
tp504
a(S'w'
I12
tp505
a(S'p2_vo'
I7
tp506
a(S'w'
I8
tp507
a(S'p2_tl'
I95
tp508
a(S'w'
I703
tp509
a(S'p1_vo'
I2
tp510
a(S'w'
I7
tp511
a(S'p2_vo'
I6
tp512
a(S'w'
I726
tp513
a(S'p1_vo'
I1
tp514
a(S'w'
I8
tp515
a(S'p2_vo'
I5
tp516
a(S'w'
I730
tp517
a(S'p2_vo'
I4
tp518
a(S'w'
I734
tp519
a(S'p2_vo'
I3
tp520
a(S'w'
I734
tp521
a(S'p2_vo'
I2
tp522
a(S'w'
I734
tp523
a(S'p2_vo'
I1
tp524
a(S'w'
I7338
tp525
a(S'p1_vo'
I3
tp526
a(S'w'
I7
tp527
a(S'p1_tl'
I95
tp528
a(S'w'
I12
tp529
a(S'p2_vo'
I7
tp530
a(S'w'
I8
tp531
a(S'p2_tl'
I71
tp532
a(S'w'
I702
tp533
a(S'p1_vo'
I2
tp534
a(S'w'
I8
tp535
a(S'p2_vo'
I6
tp536
a(S'w'
I726
tp537
a(S'p1_vo'
I1
tp538
a(S'w'
I7
tp539
a(S'p2_vo'
I5
tp540
a(S'w'
I731
tp541
a(S'p2_vo'
I4
tp542
a(S'w'
I734
tp543
a(S'p2_vo'
I3
tp544
a(S'w'
I734
tp545
a(S'p2_vo'
I2
tp546
a(S'w'
I733
tp547
a(S'p2_vo'
I1
tp548
a(S'w'
I7339
tp549
a(S'p1_vo'
I3
tp550
a(S'w'
I7
tp551
a(S'p1_tl'
I71
tp552
a(S'w'
I12
tp553
a(S'p2_vo'
I7
tp554
a(S'w'
I8
tp555
a(S'p2_tl'
I95
tp556
a(S'w'
I702
tp557
a(S'p1_vo'
I2
tp558
a(S'w'
I7
tp559
a(S'p2_vo'
I6
tp560
a(S'w'
I727
tp561
a(S'p1_vo'
I1
tp562
a(S'w'
I7
tp563
a(S'p2_vo'
I5
tp564
a(S'w'
I731
tp565
a(S'p2_vo'
I4
tp566
a(S'w'
I734
tp567
a(S'p2_vo'
I3
tp568
a(S'w'
I733
tp569
a(S'p2_vo'
I2
tp570
a(S'w'
I734
tp571
a(S'p2_vo'
I1
tp572
a(S'w'
I7339
tp573
a(S'p1_vo'
I3
tp574
a(S'w'
I7
tp575
a(S'p1_tl'
I95
tp576
a(S'w'
I14
tp577
a(S'p2_vo'
I7
tp578
a(S'w'
I7
tp579
a(S'p2_tl'
I113
tp580
a(S'w'
I701
tp581
a(S'p1_vo'
I2
tp582
a(S'w'
I7
tp583
a(S'p2_vo'
I6
tp584
a(S'w'
I727
tp585
a(S'p1_vo'
I1
tp586
a(S'w'
I7
tp587
a(S'p2_vo'
I5
tp588
a(S'w'
I731
tp589
a(S'p2_vo'
I4
tp590
a(S'w'
I733
tp591
a(S'p2_vo'
I3
tp592
a(S'w'
I734
tp593
a(S'p2_vo'
I2
tp594
a(S'w'
I734
tp595
a(S'p2_vo'
I1
tp596
a(S'w'
I7341
tp597
a(S'p1_vo'
I3
tp598
a(S'w'
I7
tp599
a(S'p1_tl'
I113
tp600
a(S'w'
I14
tp601
a(S'p2_vo'
I7
tp602
a(S'w'
I8
tp603
a(S'p2_tl'
I35
tp604
a(S'w'
I698
tp605
a(S'p1_vo'
I2
tp606
a(S'w'
I7
tp607
a(S'p2_vo'
I6
tp608
a(S'w'
I727
tp609
a(S'p1_vo'
I1
tp610
a(S'w'
I7
tp611
a(S'p2_vo'
I5
tp612
a(S'w'
I730
tp613
a(S'p2_vo'
I4
tp614
a(S'w'
I734
tp615
a(S'p2_vo'
I3
tp616
a(S'w'
I734
tp617
a(S'p2_vo'
I2
tp618
a(S'w'
I734
tp619
a(S'p2_vo'
I1
tp620
a(S'w'
I7341
tp621
a(S'p1_vo'
I3
tp622
a(S'w'
I8
tp623
a(S'p1_tl'
I35
tp624
a(S'w'
I11
tp625
a(S'p2_vo'
I7
tp626
a(S'w'
I9
tp627
a(S'p2_tl'
I50
tp628
a(S'w'
I699
tp629
a(S'p1_vo'
I2
tp630
a(S'w'
I7
tp631
a(S'p2_vo'
I6
tp632
a(S'w'
I727
tp633
a(S'p1_vo'
I1
tp634
a(S'w'
I7
tp635
a(S'p2_vo'
I5
tp636
a(S'w'
I730
tp637
a(S'p2_vo'
I4
tp638
a(S'w'
I734
tp639
a(S'p2_vo'
I3
tp640
a(S'w'
I734
tp641
a(S'p2_vo'
I2
tp642
a(S'w'
I734
tp643
a(S'p2_vo'
I1
tp644
a(S'w'
I7338
tp645
a(S'p1_vo'
I3
tp646
a(S'w'
I8
tp647
a(S'p1_tl'
I50
tp648
a(S'w'
I14
tp649
a(S'p2_vo'
I7
tp650
a(S'w'
I8
tp651
a(S'p2_tl'
I60
tp652
a(S'w'
I700
tp653
a(S'p1_vo'
I2
tp654
a(S'w'
I7
tp655
a(S'p2_vo'
I6
tp656
a(S'w'
I726
tp657
a(S'p1_vo'
I1
tp658
a(S'w'
I8
tp659
a(S'p2_vo'
I5
tp660
a(S'w'
I730
tp661
a(S'p2_vo'
I4
tp662
a(S'w'
I734
tp663
a(S'p2_vo'
I3
tp664
a(S'w'
I734
tp665
a(S'p2_vo'
I2
tp666
a(S'w'
I734
tp667
a(S'p2_vo'
I1
tp668
a(S'w'
I7340
tp669
a(S'p1_vo'
I3
tp670
a(S'w'
I8
tp671
a(S'p1_tl'
I60
tp672
a(S'w'
I14
tp673
a(S'p2_vo'
I7
tp674
a(S'w'
I8
tp675
a(S'p2_tl'
I50
tp676
a(S'w'
I697
tp677
a(S'p1_vo'
I2
tp678
a(S'w'
I8
tp679
a(S'p2_vo'
I6
tp680
a(S'w'
I726
tp681
a(S'p1_vo'
I1
tp682
a(S'w'
I7
tp683
a(S'p2_vo'
I5
tp684
a(S'w'
I731
tp685
a(S'p2_vo'
I4
tp686
a(S'w'
I734
tp687
a(S'p2_vo'
I3
tp688
a(S'w'
I734
tp689
a(S'p2_vo'
I2
tp690
a(S'w'
I733
tp691
a(S'p2_vo'
I1
tp692
a(S'w'
I7341
tp693
a(S'p1_vo'
I3
tp694
a(S'w'
I8
tp695
a(S'p1_tl'
I50
tp696
a(S'w'
I15
tp697
a(S'p2_vo'
I7
tp698
a(S'w'
I7
tp699
a(S'p2_tl'
I60
tp700
a(S'w'
I697
tp701
a(S'p1_vo'
I2
tp702
a(S'w'
I7
tp703
a(S'p2_vo'
I6
tp704
a(S'w'
I727
tp705
a(S'p1_vo'
I1
tp706
a(S'w'
I7
tp707
a(S'p2_vo'
I5
tp708
a(S'w'
I731
tp709
a(S'p2_vo'
I4
tp710
a(S'w'
I734
tp711
a(S'p2_vo'
I3
tp712
a(S'w'
I733
tp713
a(S'p2_vo'
I2
tp714
a(S'w'
I734
tp715
a(S'p2_vo'
I1
tp716
a(S'w'
I7341
tp717
a(S'p1_vo'
I3
tp718
a(S'w'
I7
tp719
a(S'p1_tl'
I60
tp720
a(S'w'
I12
tp721
a(S'p2_vo'
I7
tp722
a(S'w'
I8
tp723
a(S'p2_tl'
I71
tp724
a(S'w'
I700
tp725
a(S'p1_vo'
I2
tp726
a(S'w'
I7
tp727
a(S'p2_vo'
I6
tp728
a(S'w'
I727
tp729
a(S'p1_vo'
I1
tp730
a(S'w'
I7
tp731
a(S'p2_vo'
I5
tp732
a(S'w'
I731
tp733
a(S'p2_vo'
I4
tp734
a(S'w'
I733
tp735
a(S'p2_vo'
I3
tp736
a(S'w'
I734
tp737
a(S'p2_vo'
I2
tp738
a(S'w'
I734
tp739
a(S'p2_vo'
I1
tp740
a(S'w'
I7338
tp741
a(S'p1_vo'
I3
tp742
a(S'w'
I8
tp743
a(S'p1_tl'
I71
tp744
a(S'w'
I12
tp745
a(S'p2_vo'
I7
tp746
a(S'w'
I7
tp747
a(S'p2_tl'
I60
tp748
a(S'w'
I703
tp749
a(S'p1_vo'
I2
tp750
a(S'w'
I7
tp751
a(S'p2_vo'
I6
tp752
a(S'w'
I727
tp753
a(S'p1_vo'
I1
tp754
a(S'w'
I7
tp755
a(S'p2_vo'
I5
tp756
a(S'w'
I730
tp757
a(S'p2_vo'
I4
tp758
a(S'w'
I734
tp759
a(S'p2_vo'
I3
tp760
a(S'w'
I734
tp761
a(S'p2_vo'
I2
tp762
a(S'w'
I734
tp763
a(S'p2_vo'
I1
tp764
a(S'w'
I7338
tp765
a(S'p1_vo'
I3
tp766
a(S'w'
I8
tp767
a(S'p1_tl'
I60
tp768
a(S'w'
I11
tp769
a(S'p2_vo'
I7
tp770
a(S'w'
I8
tp771
a(S'p2_tl'
I71
tp772
a(S'w'
I703
tp773
a(S'p1_vo'
I2
tp774
a(S'w'
I7
tp775
a(S'p2_vo'
I6
tp776
a(S'w'
I726
tp777
a(S'p1_vo'
I1
tp778
a(S'w'
I8
tp779
a(S'p2_vo'
I5
tp780
a(S'w'
I730
tp781
a(S'p2_vo'
I4
tp782
a(S'w'
I734
tp783
a(S'p2_vo'
I3
tp784
a(S'w'
I734
tp785
a(S'p2_vo'
I2
tp786
a(S'w'
I734
tp787
a(S'p2_vo'
I1
tp788
a(S'w'
I7338
tp789
a(S'p1_vo'
I3
tp790
a(S'w'
I7
tp791
a(S'p1_tl'
I71
tp792
a(S'w'
I12
tp793
a(S'p2_vo'
I7
tp794
a(S'w'
I8
tp795
a(S'p2_tl'
I100
tp796
a(S'w'
I702
tp797
a(S'p1_vo'
I2
tp798
a(S'w'
I8
tp799
a(S'p2_vo'
I6
tp800
a(S'w'
I726
tp801
a(S'p1_vo'
I1
tp802
a(S'w'
I8
tp803
a(S'p2_vo'
I5
tp804
a(S'w'
I730
tp805
a(S'p2_vo'
I4
tp806
a(S'w'
I734
tp807
a(S'p2_vo'
I3
tp808
a(S'w'
I734
tp809
a(S'p2_vo'
I2
tp810
a(S'w'
I734
tp811
a(S'p2_vo'
I1
tp812
a(S'w'
I7338
tp813
a(S'p1_vo'
I3
tp814
a(S'w'
I7
tp815
a(S'p1_tl'
I100
tp816
a(S'w'
I12
tp817
a(S'p2_vo'
I7
tp818
a(S'w'
I8
tp819
a(S'p2_tl'
I71
tp820
a(S'w'
I702
tp821
a(S'p1_vo'
I2
tp822
a(S'w'
I8
tp823
a(S'p2_vo'
I6
tp824
a(S'w'
I726
tp825
a(S'p1_vo'
I1
tp826
a(S'w'
I7
tp827
a(S'p2_vo'
I5
tp828
a(S'w'
I731
tp829
a(S'p2_vo'
I4
tp830
a(S'w'
I734
tp831
a(S'p2_vo'
I3
tp832
a(S'w'
I733
tp833
a(S'p2_vo'
I2
tp834
a(S'w'
I734
tp835
a(S'p2_vo'
I1
tp836
a(S'w'
I7339
tp837
a(S'p1_vo'
I3
tp838
a(S'w'
I7
tp839
a(S'p1_tl'
I71
tp840
a(S'w'
I12
tp841
a(S'p2_vo'
I7
tp842
a(S'w'
I7
tp843
a(S'p2_tl'
I100
tp844
a(S'w'
I703
tp845
a(S'p1_vo'
I2
tp846
a(S'w'
I7
tp847
a(S'p2_vo'
I6
tp848
a(S'w'
I727
tp849
a(S'p1_vo'
I1
tp850
a(S'w'
I7
tp851
a(S'p2_vo'
I5
tp852
a(S'w'
I731
tp853
a(S'p2_vo'
I4
tp854
a(S'w'
I734
tp855
a(S'p2_vo'
I3
tp856
a(S'w'
I733
tp857
a(S'p2_vo'
I2
tp858
a(S'w'
I734
tp859
a(S'p2_vo'
I1
tp860
a(S'w'
I7338
tp861
a(S'p1_vo'
I3
tp862
a(S'w'
I8
tp863
a(S'p1_tl'
I100
tp864
a(S'w'
I14
tp865
a(S'p2_vo'
I7
tp866
a(S'w'
I7
tp867
a(S'p2_tl'
I120
tp868
a(S'w'
I701
tp869
a(S'p1_vo'
I2
tp870
a(S'w'
I7
tp871
a(S'p2_vo'
I6
tp872
a(S'w'
I727
tp873
a(S'p1_vo'
I1
tp874
a(S'w'
I7
tp875
a(S'p2_vo'
I5
tp876
a(S'w'
I731
tp877
a(S'p2_vo'
I4
tp878
a(S'w'
I733
tp879
a(S'p2_vo'
I3
tp880
a(S'w'
I734
tp881
a(S'p2_vo'
I2
tp882
a(S'w'
I734
tp883
a(S'p2_vo'
I1
tp884
a(S'w'
I7341
tp885
a(S'p1_vo'
I3
tp886
a(S'w'
I7
tp887
a(S'p1_tl'
I120
tp888
a(S'w'
I14
tp889
a(S'p2_vo'
I7
tp890
a(S'w'
I8
tp891
a(S'p2_tl'
I40
tp892
a(S'w'
I698
tp893
a(S'p1_vo'
I2
tp894
a(S'w'
I7
tp895
a(S'p2_vo'
I6
tp896
a(S'w'
I727
tp897
a(S'p1_vo'
I1
tp898
a(S'w'
I7
tp899
a(S'p2_vo'
I5
tp900
a(S'w'
I730
tp901
a(S'p2_vo'
I4
tp902
a(S'w'
I734
tp903
a(S'p2_vo'
I3
tp904
a(S'w'
I734
tp905
a(S'p2_vo'
I2
tp906
a(S'w'
I734
tp907
a(S'p2_vo'
I1
tp908
a(S'w'
I7341
tp909
a(S'p1_vo'
I3
tp910
a(S'w'
I8
tp911
a(S'p1_tl'
I40
tp912
a(S'w'
I11
tp913
a(S'p2_vo'
I7
tp914
a(S'w'
I8
tp915
a(S'p2_tl'
I53
tp916
a(S'w'
I700
tp917
a(S'p1_vo'
I2
tp918
a(S'w'
I7
tp919
a(S'p2_vo'
I6
tp920
a(S'w'
I726
tp921
a(S'p1_vo'
I1
tp922
a(S'w'
I8
tp923
a(S'p2_vo'
I5
tp924
a(S'w'
I730
tp925
a(S'p2_vo'
I4
tp926
a(S'w'
I734
tp927
a(S'p2_vo'
I3
tp928
a(S'w'
I734
tp929
a(S'p2_vo'
I2
tp930
a(S'w'
I734
tp931
a(S'p2_vo'
I1
tp932
a(S'w'
I7338
tp933
a(S'p1_vo'
I3
tp934
a(S'w'
I8
tp935
a(S'p1_tl'
I53
tp936
a(S'w'
I14
tp937
a(S'p2_vo'
I7
tp938
a(S'w'
I8
tp939
a(S'p2_tl'
I63
tp940
a(S'w'
I699
tp941
a(S'p1_vo'
I2
tp942
a(S'w'
I8
tp943
a(S'p2_vo'
I6
tp944
a(S'w'
I726
tp945
a(S'p1_vo'
I1
tp946
a(S'w'
I7
tp947
a(S'p2_vo'
I5
tp948
a(S'w'
I731
tp949
a(S'p2_vo'
I4
tp950
a(S'w'
I734
tp951
a(S'p2_vo'
I3
tp952
a(S'w'
I734
tp953
a(S'p2_vo'
I2
tp954
a(S'w'
I733
tp955
a(S'p2_vo'
I1
tp956
a(S'w'
I7341
tp957
a(S'p1_vo'
I3
tp958
a(S'w'
I8
tp959
a(S'p1_tl'
I63
tp960
a(S'w'
I14
tp961
a(S'p2_vo'
I7
tp962
a(S'w'
I8
tp963
a(S'p2_tl'
I53
tp964
a(S'w'
I697
tp965
a(S'p1_vo'
I2
tp966
a(S'w'
I7
tp967
a(S'p2_vo'
I6
tp968
a(S'w'
I727
tp969
a(S'p1_vo'
I1
tp970
a(S'w'
I7
tp971
a(S'p2_vo'
I5
tp972
a(S'w'
I731
tp973
a(S'p2_vo'
I4
tp974
a(S'w'
I734
tp975
a(S'p2_vo'
I3
tp976
a(S'w'
I733
tp977
a(S'p2_vo'
I2
tp978
a(S'w'
I734
tp979
a(S'p2_vo'
I1
tp980
a(S'w'
I7341
tp981
a(S'p1_vo'
I3
tp982
a(S'w'
I8
tp983
a(S'p1_tl'
I53
tp984
a(S'w'
I14
tp985
a(S'p2_vo'
I7
tp986
a(S'w'
I8
tp987
a(S'p2_tl'
I63
tp988
a(S'w'
I697
tp989
a(S'p1_vo'
I2
tp990
a(S'w'
I7
tp991
a(S'p2_vo'
I6
tp992
a(S'w'
I727
tp993
a(S'p1_vo'
I1
tp994
a(S'w'
I7
tp995
a(S'p2_vo'
I5
tp996
a(S'w'
I731
tp997
a(S'p2_vo'
I4
tp998
a(S'w'
I733
tp999
a(S'p2_vo'
I3
tp1000
a(S'w'
I734
tp1001
a(S'p2_vo'
I2
tp1002
a(S'w'
I734
tp1003
a(S'p2_vo'
I1
tp1004
a(S'w'
I7341
tp1005
a(S'p1_vo'
I3
tp1006
a(S'w'
I7
tp1007
a(S'p1_tl'
I63
tp1008
a(S'w'
I12
tp1009
a(S'p2_vo'
I7
tp1010
a(S'w'
I8
tp1011
a(S'p2_tl'
I80
tp1012
a(S'w'
I700
tp1013
a(S'p1_vo'
I2
tp1014
a(S'w'
I7
tp1015
a(S'p2_vo'
I6
tp1016
a(S'w'
I727
tp1017
a(S'p1_vo'
I1
tp1018
a(S'w'
I7
tp1019
a(S'p2_vo'
I5
tp1020
a(S'w'
I731
tp1021
a(S'p2_vo'
I4
tp1022
a(S'w'
I733
tp1023
a(S'p2_vo'
I3
tp1024
a(S'w'
I734
tp1025
a(S'p2_vo'
I2
tp1026
a(S'w'
I734
tp1027
a(S'p2_vo'
I1
tp1028
a(S'w'
I7338
tp1029
a(S'p1_vo'
I3
tp1030
a(S'w'
I8
tp1031
a(S'p1_tl'
I80
tp1032
a(S'w'
I11
tp1033
a(S'p2_vo'
I7
tp1034
a(S'w'
I8
tp1035
a(S'p2_tl'
I63
tp1036
a(S'w'
I703
tp1037
a(S'p1_vo'
I2
tp1038
a(S'w'
I7
tp1039
a(S'p2_vo'
I6
tp1040
a(S'w'
I727
tp1041
a(S'p1_vo'
I1
tp1042
a(S'w'
I7
tp1043
a(S'p2_vo'
I5
tp1044
a(S'w'
I730
tp1045
a(S'p2_vo'
I4
tp1046
a(S'w'
I734
tp1047
a(S'p2_vo'
I3
tp1048
a(S'w'
I734
tp1049
a(S'p2_vo'
I2
tp1050
a(S'w'
I734
tp1051
a(S'p2_vo'
I1
tp1052
a(S'w'
I7338
tp1053
a(S'p1_vo'
I3
tp1054
a(S'w'
I7
tp1055
a(S'p1_tl'
I63
tp1056
a(S'w'
I12
tp1057
a(S'p2_vo'
I7
tp1058
a(S'w'
I8
tp1059
a(S'p2_tl'
I80
tp1060
a(S'w'
I703
tp1061
a(S'p1_vo'
I2
tp1062
a(S'w'
I7
tp1063
a(S'p2_vo'
I6
tp1064
a(S'w'
I726
tp1065
a(S'p1_vo'
I1
tp1066
a(S'w'
I8
tp1067
a(S'p2_vo'
I5
tp1068
a(S'w'
I730
tp1069
a(S'p2_vo'
I4
tp1070
a(S'w'
I734
tp1071
a(S'p2_vo'
I3
tp1072
a(S'w'
I734
tp1073
a(S'p2_vo'
I2
tp1074
a(S'w'
I734
tp1075
a(S'p2_vo'
I1
tp1076
a(S'w'
I7338
tp1077
a(S'p1_vo'
I3
tp1078
a(S'w'
I7
tp1079
a(S'p1_tl'
I80
tp1080
a(S'w'
I12
tp1081
a(S'p2_vo'
I7
tp1082
a(S'w'
I8
tp1083
a(S'p2_tl'
I106
tp1084
a(S'w'
I702
tp1085
a(S'p1_vo'
I2
tp1086
a(S'w'
I8
tp1087
a(S'p2_vo'
I6
tp1088
a(S'w'
I726
tp1089
a(S'p1_vo'
I1
tp1090
a(S'w'
I7
tp1091
a(S'p2_vo'
I5
tp1092
a(S'w'
I731
tp1093
a(S'p2_vo'
I4
tp1094
a(S'w'
I734
tp1095
a(S'p2_vo'
I3
tp1096
a(S'w'
I734
tp1097
a(S'p2_vo'
I2
tp1098
a(S'w'
I733
tp1099
a(S'p2_vo'
I1
tp1100
a(S'w'
I7339
tp1101
a(S'p1_vo'
I3
tp1102
a(S'w'
I7
tp1103
a(S'p1_tl'
I106
tp1104
a(S'w'
I12
tp1105
a(S'p2_vo'
I7
tp1106
a(S'w'
I7
tp1107
a(S'p2_tl'
I80
tp1108
a(S'w'
I703
tp1109
a(S'p1_vo'
I2
tp1110
a(S'w'
I7
tp1111
a(S'p2_vo'
I6
tp1112
a(S'w'
I727
tp1113
a(S'p1_vo'
I1
tp1114
a(S'w'
I7
tp1115
a(S'p2_vo'
I5
tp1116
a(S'w'
I731
tp1117
a(S'p2_vo'
I4
tp1118
a(S'w'
I734
tp1119
a(S'p2_vo'
I3
tp1120
a(S'w'
I733
tp1121
a(S'p2_vo'
I2
tp1122
a(S'w'
I734
tp1123
a(S'p2_vo'
I1
tp1124
a(S'w'
I7338
tp1125
a(S'p1_vo'
I3
tp1126
a(S'w'
I8
tp1127
a(S'p1_tl'
I80
tp1128
a(S'w'
I12
tp1129
a(S'p2_vo'
I7
tp1130
a(S'w'
I7
tp1131
a(S'p2_tl'
I106
tp1132
a(S'w'
I703
tp1133
a(S'p1_vo'
I2
tp1134
a(S'w'
I7
tp1135
a(S'p2_vo'
I6
tp1136
a(S'w'
I727
tp1137
a(S'p1_vo'
I1
tp1138
a(S'w'
I7
tp1139
a(S'p2_vo'
I5
tp1140
a(S'w'
I731
tp1141
a(S'p2_vo'
I4
tp1142
a(S'w'
I733
tp1143
a(S'p2_vo'
I3
tp1144
a(S'w'
I734
tp1145
a(S'p2_vo'
I2
tp1146
a(S'w'
I734
tp1147
a(S'p2_vo'
I1
tp1148
a(S'w'
I7338
tp1149
a(S'p1_vo'
I3
tp1150
a(S'w'
I8
tp1151
a(S'p1_tl'
I106
tp1152
a(S'w'
I14
tp1153
a(S'p2_vo'
I7
tp1154
a(S'w'
I7
tp1155
a(S'p2_tl'
I127
tp1156
a(S'w'
I701
tp1157
a(S'p1_vo'
I2
tp1158
a(S'w'
I7
tp1159
a(S'p2_vo'
I6
tp1160
a(S'w'
I727
tp1161
a(S'p1_vo'
I1
tp1162
a(S'w'
I7
tp1163
a(S'p2_vo'
I5
tp1164
a(S'w'
I730
tp1165
a(S'p2_vo'
I4
tp1166
a(S'w'
I734
tp1167
a(S'p2_vo'
I3
tp1168
a(S'w'
I734
tp1169
a(S'p2_vo'
I2
tp1170
a(S'w'
I734
tp1171
a(S'p2_vo'
I1
tp1172
a(S'w'
I7341
tp1173
a(S'p1_vo'
I3
tp1174
a(S'w'
I7
tp1175
a(S'p1_tl'
I127
tp1176
a(S'w'
I22
tp1177
a(S'p2_vo'
I7
tp1178
a(S'w'
I8
tp1179
a(S'p2_tl'
I31
tp1180
a(S'w'
I690
tp1181
a(S'p1_vo'
I2
tp1182
a(S'w'
I7
tp1183
a(S'p2_vo'
I6
tp1184
a(S'w'
I726
tp1185
a(S'p1_vo'
I1
tp1186
a(S'w'
I8
tp1187
a(S'p2_vo'
I5
tp1188
a(S'w'
I730
tp1189
a(S'p2_vo'
I4
tp1190
a(S'w'
I734
tp1191
a(S'p2_vo'
I3
tp1192
a(S'w'
I734
tp1193
a(S'p2_vo'
I2
tp1194
a(S'w'
I734
tp1195
a(S'p2_vo'
I1
tp1196
a(S'w'
I7348
tp1197
a(S'p1_vo'
I3
tp1198
a(S'w'
I8
tp1199
a.