(lp1
(S'clock'
p2
I1789772
tp3
a(S'ch_no'
I1
tp4
a(S'ch_tr'
I1
tp5
a(S'ch_p2'
I1
tp6
a(S'ch_p1'
I1
tp7
a(S'fc_mo'
I1
tp8
a(S'w'
I21
tp9
a(S'p1_cv'
I1
tp10
a(S'w'
I1
tp11
a(S'p2_cv'
I1
tp12
a(S'w'
I1
tp13
a(S'w'
I1
tp14
a(S'w'
I728
tp15
a(S'p1_cv'
I0
tp16
a(S'p1_vo'
I3
tp17
a(S'p1_sp'
I7
tp18
a(S'p1_sn'
I1
tp19
a(S'p1_ss'
I7
tp20
a(S'w'
I1
tp21
a(S'p1_tl'
I103
tp22
a(S'p1_ll'
I8
tp23
a(S'p1_th'
I1
tp24
a(S'w'
I3
tp25
a(S'tr_lr'
I35
tp26
a(S'w'
I1
tp27
a(S'tr_tl'
I83
tp28
a(S'w'
I1
tp29
a(S'tr_ll'
I1
tp30
a(S'tr_th'
I1
tp31
a(S'w'
I11736
tp32
a(S'p1_tl'
I226
tp33
a(S'w'
I1
tp34
a(S'p1_ll'
I8
tp35
a(S'p1_th'
I0
tp36
a(S'w'
I11740
tp37
a(S'p1_tl'
I240
tp38
a(S'w'
I1
tp39
a(S'p1_ll'
I8
tp40
a(S'w'
I3
tp41
a(S'tr_tl'
I197
tp42
a(S'w'
I1
tp43
a(S'tr_ll'
I1
tp44
a(S'w'
I11735
tp45
a(S'p1_tl'
I226
tp46
a(S'w'
I1
tp47
a(S'p1_ll'
I8
tp48
a(S'w'
I8806
tp49
a(S'tr_tl'
I83
tp50
a(S'w'
I1
tp51
a(S'tr_ll'
I1
tp52
a(S'w'
I2932
tp53
a(S'p1_lh'
I1
tp54
a(S'p1_vo'
I0
tp55
a(S'w'
I1
tp56
a(S'p1_tl'
I213
tp57
a(S'w'
I1
tp58
a(S'p1_ll'
I8
tp59
a(S'w'
I8806
tp60
a(S'tr_ll'
I1
tp61
a(S'w'
I2935
tp62
a(S'tr_tl'
I197
tp63
a(S'w'
I1
tp64
a(S'tr_ll'
I1
tp65
a(S'w'
I8803
tp66
a(S'p1_tl'
I226
tp67
a(S'p1_ll'
I8
tp68
a(S'w'
I2936
tp69
a(S'tr_tl'
I83
tp70
a(S'w'
I1
tp71
a(S'tr_ll'
I1
tp72
a(S'w'
I8805
tp73
a(S'tr_tl'
I46
tp74
a(S'w'
I1
tp75
a(S'tr_ll'
I1
tp76
a(S'w'
I2934
tp77
a(S'tr_tl'
I13
tp78
a(S'w'
I1
tp79
a(S'tr_ll'
I1
tp80
a(S'w'
I11738
tp81
a(S'p1_lh'
I0
tp82
a(S'p1_vo'
I3
tp83
a(S'w'
I1
tp84
a(S'p1_tl'
I254
tp85
a(S'w'
I1
tp86
a(S'p1_ll'
I8
tp87
a(S'w'
I3
tp88
a(S'tr_tl'
I254
tp89
a(S'w'
I1
tp90
a(S'tr_ll'
I1
tp91
a(S'tr_th'
I0
tp92
a(S'w'
I11735
tp93
a(S'p1_tl'
I226
tp94
a(S'w'
I1
tp95
a(S'p1_ll'
I8
tp96
a(S'w'
I11740
tp97
a(S'p1_tl'
I254
tp98
a(S'w'
I1
tp99
a(S'p1_ll'
I8
tp100
a(S'w'
I3
tp101
a(S'tr_tl'
I83
tp102
a(S'w'
I1
tp103
a(S'tr_ll'
I1
tp104
a(S'tr_th'
I1
tp105
a(S'w'
I8800
tp106
a(S'p1_tl'
I29
tp107
a(S'w'
I1
tp108
a(S'p1_ll'
I8
tp109
a(S'p1_th'
I1
tp110
a(S'w'
I2935
tp111
a(S'p1_tl'
I83
tp112
a(S'w'
I1
tp113
a(S'p1_ll'
I8
tp114
a(S'w'
I8803
tp115
a(S'p1_lh'
I1
tp116
a(S'p1_vo'
I0
tp117
a(S'w'
I1
tp118
a(S'p1_tl'
I254
tp119
a(S'w'
I1
tp120
a(S'p1_ll'
I8
tp121
a(S'p1_th'
I0
tp122
a(S'w'
I3
tp123
a(S'tr_tl'
I254
tp124
a(S'w'
I1
tp125
a(S'tr_ll'
I1
tp126
a(S'tr_th'
I0
tp127
a(S'w'
I11738
tp128
a(S'tr_ll'
I1
tp129
a(S'w'
I2934
tp130
a(S'tr_tl'
I29
tp131
a(S'w'
I1
tp132
a(S'tr_ll'
I1
tp133
a(S'tr_th'
I1
tp134
a(S'w'
I11740
tp135
a(S'tr_tl'
I46
tp136
a(S'w'
I1
tp137
a(S'tr_ll'
I1
tp138
a(S'w'
I11739
tp139
a(S'tr_tl'
I83
tp140
a(S'w'
I1
tp141
a(S'tr_ll'
I1
tp142
a(S'w'
I11738
tp143
a(S'p1_lh'
I0
tp144
a(S'p1_vo'
I3
tp145
a(S'w'
I1
tp146
a(S'p1_tl'
I125
tp147
a(S'w'
I1
tp148
a(S'p1_ll'
I8
tp149
a(S'p1_th'
I1
tp150
a(S'w'
I3
tp151
a(S'tr_tl'
I125
tp152
a(S'w'
I1
tp153
a(S'tr_ll'
I1
tp154
a(S'w'
I11736
tp155
a(S'p1_tl'
I254
tp156
a(S'w'
I1
tp157
a(S'p1_ll'
I8
tp158
a(S'p1_th'
I0
tp159
a(S'w'
I11739
tp160
a(S'p1_tl'
I13
tp161
a(S'w'
I1
tp162
a(S'p1_ll'
I8
tp163
a(S'p1_th'
I1
tp164
a(S'w'
I3
tp165
a(S'tr_tl'
I252
tp166
a(S'w'
I1
tp167
a(S'tr_ll'
I1
tp168
a(S'w'
I11736
tp169
a(S'p1_tl'
I254
tp170
a(S'w'
I1
tp171
a(S'p1_ll'
I8
tp172
a(S'p1_th'
I0
tp173
a(S'w'
I8805
tp174
a(S'tr_tl'
I125
tp175
a(S'w'
I1
tp176
a(S'tr_ll'
I1
tp177
a(S'w'
I2933
tp178
a(S'p1_lh'
I1
tp179
a(S'p1_vo'
I0
tp180
a(S'w'
I1
tp181
a(S'p1_tl'
I226
tp182
a(S'w'
I1
tp183
a(S'p1_ll'
I8
tp184
a(S'w'
I8806
tp185
a(S'tr_ll'
I1
tp186
a(S'w'
I2934
tp187
a(S'tr_tl'
I252
tp188
a(S'w'
I1
tp189
a(S'tr_ll'
I1
tp190
a(S'w'
I8804
tp191
a(S'p1_tl'
I254
tp192
a(S'w'
I1
tp193
a(S'p1_ll'
I8
tp194
a(S'w'
I2935
tp195
a(S'tr_tl'
I125
tp196
a(S'w'
I1
tp197
a(S'tr_ll'
I1
tp198
a(S'w'
I8804
tp199
a(S'tr_tl'
I83
tp200
a(S'w'
I1
tp201
a(S'tr_ll'
I1
tp202
a(S'w'
I2935
tp203
a(S'tr_tl'
I46
tp204
a(S'w'
I1
tp205
a(S'tr_ll'
I1
tp206
a(S'w'
I11737
tp207
a(S'p1_lh'
I0
tp208
a(S'p1_vo'
I3
tp209
a(S'w'
I1
tp210
a(S'p1_tl'
I29
tp211
a(S'w'
I1
tp212
a(S'p1_ll'
I8
tp213
a(S'p1_th'
I1
tp214
a(S'w'
I3
tp215
a(S'tr_tl'
I29
tp216
a(S'w'
I1
tp217
a(S'tr_ll'
I1
tp218
a(S'w'
I11736
tp219
a(S'p1_tl'
I254
tp220
a(S'w'
I1
tp221
a(S'p1_ll'
I8
tp222
a(S'p1_th'
I0
tp223
a(S'w'
I11740
tp224
a(S'p1_tl'
I29
tp225
a(S'p1_ll'
I8
tp226
a(S'p1_th'
I1
tp227
a(S'w'
I4
tp228
a(S'tr_tl'
I125
tp229
a(S'w'
I1
tp230
a(S'tr_ll'
I1
tp231
a(S'w'
I8800
tp232
a(S'p1_tl'
I83
tp233
a(S'w'
I1
tp234
a(S'p1_ll'
I8
tp235
a(S'w'
I11739
tp236
a(S'p1_lh'
I1
tp237
a(S'p1_vo'
I0
tp238
a(S'w'
I1
tp239
a(S'p1_tl'
I125
tp240
a(S'w'
I1
tp241
a(S'p1_ll'
I8
tp242
a(S'w'
I3
tp243
a(S'tr_tl'
I29
tp244
a(S'w'
I1
tp245
a(S'tr_ll'
I1
tp246
a(S'w'
I11737
tp247
a(S'tr_ll'
I1
tp248
a(S'w'
I2935
tp249
a(S'tr_tl'
I125
tp250
a(S'w'
I1
tp251
a(S'tr_ll'
I1
tp252
a(S'w'
I11739
tp253
a(S'tr_tl'
I144
tp254
a(S'w'
I1
tp255
a(S'tr_ll'
I1
tp256
a(S'w'
I11740
tp257
a(S'tr_tl'
I171
tp258
a(S'w'
I1
tp259
a(S'tr_ll'
I1
tp260
a(S'w'
I11738
tp261
a(S'p1_lh'
I0
tp262
a(S'p1_vo'
I3
tp263
a(S'w'
I1
tp264
a(S'p1_tl'
I197
tp265
a(S'w'
I1
tp266
a(S'p1_ll'
I8
tp267
a(S'w'
I3
tp268
a(S'tr_tl'
I59
tp269
a(S'w'
I1
tp270
a(S'tr_ll'
I1
tp271
a(S'tr_th'
I2
tp272
a(S'w'
I8800
tp273
a(S'p1_tl'
I125
tp274
a(S'w'
I1
tp275
a(S'p1_ll'
I8
tp276
a(S'w'
I2934
tp277
a(S'p1_tl'
I29
tp278
a(S'w'
I1
tp279
a(S'p1_ll'
I8
tp280
a(S'w'
I3
tp281
a(S'tr_tl'
I29
tp282
a(S'w'
I1
tp283
a(S'tr_ll'
I1
tp284
a(S'tr_th'
I1
tp285
a(S'w'
I8801
tp286
a(S'p1_tl'
I197
tp287
a(S'w'
I1
tp288
a(S'p1_ll'
I8
tp289
a(S'w'
I2934
tp290
a(S'p1_tl'
I125
tp291
a(S'w'
I1
tp292
a(S'p1_ll'
I8
tp293
a(S'w'
I3
tp294
a(S'tr_tl'
I59
tp295
a(S'w'
I1
tp296
a(S'tr_ll'
I1
tp297
a(S'tr_th'
I2
tp298
a(S'w'
I8800
tp299
a(S'p1_tl'
I29
tp300
a(S'w'
I1
tp301
a(S'p1_ll'
I8
tp302
a(S'w'
I2935
tp303
a(S'p1_tl'
I197
tp304
a(S'w'
I1
tp305
a(S'p1_ll'
I8
tp306
a(S'w'
I3
tp307
a(S'tr_tl'
I29
tp308
a(S'w'
I1
tp309
a(S'tr_ll'
I1
tp310
a(S'tr_th'
I1
tp311
a(S'w'
I8800
tp312
a(S'p1_tl'
I29
tp313
a(S'p1_ll'
I8
tp314
a(S'w'
I2935
tp315
a(S'p1_tl'
I171
tp316
a(S'w'
I1
tp317
a(S'p1_ll'
I8
tp318
a(S'w'
I3
tp319
a(S'tr_tl'
I252
tp320
a(S'w'
I1
tp321
a(S'tr_ll'
I1
tp322
a(S'w'
I8801
tp323
a(S'p1_tl'
I83
tp324
a(S'w'
I1
tp325
a(S'p1_ll'
I8
tp326
a(S'w'
I2934
tp327
a(S'p1_tl'
I29
tp328
a(S'w'
I1
tp329
a(S'p1_ll'
I8
tp330
a(S'w'
I3
tp331
a(S'tr_tl'
I254
tp332
a(S'w'
I1
tp333
a(S'tr_ll'
I1
tp334
a(S'tr_th'
I0
tp335
a(S'w'
I8800
tp336
a(S'p1_tl'
I144
tp337
a(S'w'
I1
tp338
a(S'p1_ll'
I8
tp339
a(S'w'
I2935
tp340
a(S'p1_tl'
I83
tp341
a(S'w'
I1
tp342
a(S'p1_ll'
I8
tp343
a(S'w'
I3
tp344
a(S'tr_tl'
I224
tp345
a(S'w'
I1
tp346
a(S'tr_ll'
I1
tp347
a(S'tr_th'
I1
tp348
a(S'w'
I8800
tp349
a(S'p1_tl'
I29
tp350
a(S'w'
I1
tp351
a(S'p1_ll'
I8
tp352
a(S'w'
I2934
tp353
a(S'p1_tl'
I144
tp354
a(S'w'
I1
tp355
a(S'p1_ll'
I8
tp356
a(S'w'
I3
tp357
a(S'tr_tl'
I240
tp358
a(S'w'
I1
tp359
a(S'tr_ll'
I1
tp360
a(S'tr_th'
I0
tp361
a(S'w'
I8801
tp362
a(S'p1_tl'
I29
tp363
a(S'w'
I1
tp364
a(S'p1_ll'
I8
tp365
a(S'w'
I2935
tp366
a(S'tr_tl'
I197
tp367
a(S'w'
I1
tp368
a(S'tr_ll'
I1
tp369
a(S'tr_th'
I1
tp370
a(S'w'
I11739
tp371
a(S'p1_tl'
I226
tp372
a(S'w'
I1
tp373
a(S'p1_ll'
I8
tp374
a(S'p1_th'
I0
tp375
a(S'w'
I8804
tp376
a(S'p1_tl'
I240
tp377
a(S'w'
I1
tp378
a(S'p1_ll'
I8
tp379
a(S'w'
I2934
tp380
a(S'p1_tl'
I254
tp381
a(S'w'
I1
tp382
a(S'p1_ll'
I8
tp383
a(S'w'
I11740
tp384
a(S'p1_tl'
I125
tp385
a(S'p1_ll'
I8
tp386
a(S'p1_th'
I1
tp387
a(S'w'
I8805
tp388
a(S'p1_tl'
I29
tp389
a(S'w'
I1
tp390
a(S'p1_ll'
I8
tp391
a(S'w'
I14675
tp392
a(S'w'
I1
tp393
a(S'p1_ll'
I8
tp394
a(S'w'
I3
tp395
a(S'tr_tl'
I29
tp396
a(S'w'
I1
tp397
a(S'tr_ll'
I1
tp398
a(S'w'
I11736
tp399
a(S'p1_tl'
I46
tp400
a(S'w'
I1
tp401
a(S'p1_ll'
I8
tp402
a(S'w'
I3
tp403
a(S'tr_tl'
I254
tp404
a(S'w'
I1
tp405
a(S'tr_ll'
I1
tp406
a(S'tr_th'
I0
tp407
a(S'w'
I11736
tp408
a(S'p1_tl'
I83
tp409
a(S'w'
I1
tp410
a(S'p1_ll'
I8
tp411
a(S'w'
I3
tp412
a(S'tr_tl'
I240
tp413
a(S'w'
I1
tp414
a(S'tr_ll'
I1
tp415
a(S'w'
I11735
tp416
a(S'p1_tl'
I103
tp417
a(S'w'
I1
tp418
a(S'p1_ll'
I8
tp419
a(S'w'
I3
tp420
a(S'tr_tl'
I83
tp421
a(S'w'
I1
tp422
a(S'tr_ll'
I1
tp423
a(S'tr_th'
I1
tp424
a(S'w'
I11736
tp425
a(S'p1_tl'
I226
tp426
a(S'w'
I1
tp427
a(S'p1_ll'
I8
tp428
a(S'p1_th'
I0
tp429
a(S'w'
I11740
tp430
a(S'p1_tl'
I240
tp431
a(S'w'
I1
tp432
a(S'p1_ll'
I8
tp433
a(S'w'
I3
tp434
a(S'tr_tl'
I197
tp435
a(S'w'
I1
tp436
a(S'tr_ll'
I1
tp437
a(S'w'
I11735
tp438
a(S'p1_tl'
I226
tp439
a(S'w'
I1
tp440
a(S'p1_ll'
I8
tp441
a(S'w'
I8806
tp442
a(S'tr_tl'
I83
tp443
a(S'w'
I1
tp444
a(S'tr_ll'
I1
tp445
a(S'w'
I2932
tp446
a(S'p1_lh'
I1
tp447
a(S'p1_vo'
I0
tp448
a(S'w'
I1
tp449
a(S'p1_tl'
I213
tp450
a(S'w'
I1
tp451
a(S'p1_ll'
I8
tp452
a(S'w'
I8806
tp453
a(S'tr_ll'
I1
tp454
a(S'w'
I2935
tp455
a(S'tr_tl'
I197
tp456
a(S'w'
I1
tp457
a(S'tr_ll'
I1
tp458
a(S'w'
I8803
tp459
a(S'p1_tl'
I226
tp460
a(S'w'
I1
tp461
a(S'p1_ll'
I8
tp462
a(S'w'
I2935
tp463
a(S'tr_tl'
I83
tp464
a(S'w'
I1
tp465
a(S'tr_ll'
I1
tp466
a(S'w'
I8805
tp467
a(S'tr_tl'
I46
tp468
a(S'w'
I1
tp469
a(S'tr_ll'
I1
tp470
a(S'w'
I2934
tp471
a(S'tr_tl'
I13
tp472
a(S'w'
I1
tp473
a(S'tr_ll'
I1
tp474
a(S'w'
I11738
tp475
a(S'p1_lh'
I0
tp476
a(S'p1_vo'
I3
tp477
a(S'w'
I1
tp478
a(S'p1_tl'
I254
tp479
a(S'p1_ll'
I8
tp480
a(S'w'
I4
tp481
a(S'tr_tl'
I254
tp482
a(S'w'
I1
tp483
a(S'tr_ll'
I1
tp484
a(S'tr_th'
I0
tp485
a(S'w'
I11735
tp486
a(S'p1_tl'
I226
tp487
a(S'p1_ll'
I8
tp488
a(S'w'
I11741
tp489
a(S'p1_tl'
I254
tp490
a(S'w'
I1
tp491
a(S'p1_ll'
I8
tp492
a(S'w'
I3
tp493
a(S'tr_tl'
I83
tp494
a(S'w'
I1
tp495
a(S'tr_ll'
I1
tp496
a(S'tr_th'
I1
tp497
a(S'w'
I8800
tp498
a(S'p1_tl'
I29
tp499
a(S'w'
I1
tp500
a(S'p1_ll'
I8
tp501
a(S'p1_th'
I1
tp502
a(S'w'
I2935
tp503
a(S'p1_tl'
I83
tp504
a(S'w'
I1
tp505
a(S'p1_ll'
I8
tp506
a(S'w'
I8803
tp507
a(S'p1_lh'
I1
tp508
a(S'p1_vo'
I0
tp509
a(S'w'
I1
tp510
a(S'p1_tl'
I254
tp511
a(S'w'
I1
tp512
a(S'p1_ll'
I8
tp513
a(S'p1_th'
I0
tp514
a(S'w'
I3
tp515
a(S'tr_tl'
I254
tp516
a(S'w'
I1
tp517
a(S'tr_ll'
I1
tp518
a(S'tr_th'
I0
tp519
a(S'w'
I11738
tp520
a(S'tr_ll'
I1
tp521
a(S'w'
I2934
tp522
a(S'tr_tl'
I29
tp523
a(S'w'
I1
tp524
a(S'tr_ll'
I1
tp525
a(S'tr_th'
I1
tp526
a(S'w'
I11740
tp527
a(S'tr_tl'
I46
tp528
a(S'w'
I1
tp529
a(S'tr_ll'
I1
tp530
a(S'w'
I11739
tp531
a(S'tr_tl'
I83
tp532
a(S'w'
I1
tp533
a(S'tr_ll'
I1
tp534
a(S'w'
I11738
tp535
a(S'p1_lh'
I0
tp536
a(S'p1_vo'
I3
tp537
a(S'w'
I1
tp538
a(S'p1_tl'
I125
tp539
a(S'w'
I1
tp540
a(S'p1_ll'
I8
tp541
a(S'p1_th'
I1
tp542
a(S'w'
I3
tp543
a(S'tr_tl'
I125
tp544
a(S'w'
I1
tp545
a(S'tr_ll'
I1
tp546
a(S'w'
I11736
tp547
a(S'p1_tl'
I254
tp548
a(S'w'
I1
tp549
a(S'p1_ll'
I8
tp550
a(S'p1_th'
I0
tp551
a(S'w'
I11739
tp552
a(S'p1_tl'
I13
tp553
a(S'w'
I1
tp554
a(S'p1_ll'
I8
tp555
a(S'p1_th'
I1
tp556
a(S'w'
I3
tp557
a(S'tr_tl'
I252
tp558
a(S'w'
I1
tp559
a(S'tr_ll'
I1
tp560
a(S'w'
I11736
tp561
a(S'p1_tl'
I254
tp562
a(S'w'
I1
tp563
a(S'p1_ll'
I8
tp564
a(S'p1_th'
I0
tp565
a(S'w'
I8805
tp566
a(S'tr_tl'
I125
tp567
a(S'w'
I1
tp568
a(S'tr_ll'
I1
tp569
a(S'w'
I2933
tp570
a(S'p1_lh'
I1
tp571
a(S'p1_vo'
I0
tp572
a(S'w'
I1
tp573
a(S'p1_tl'
I226
tp574
a(S'w'
I1
tp575
a(S'p1_ll'
I8
tp576
a(S'w'
I8806
tp577
a(S'tr_ll'
I1
tp578
a(S'w'
I2934
tp579
a(S'tr_tl'
I252
tp580
a(S'w'
I1
tp581
a(S'tr_ll'
I1
tp582
a(S'w'
I8804
tp583
a(S'p1_tl'
I254
tp584
a(S'w'
I1
tp585
a(S'p1_ll'
I8
tp586
a(S'w'
I2935
tp587
a(S'tr_tl'
I125
tp588
a(S'w'
I1
tp589
a(S'tr_ll'
I1
tp590
a(S'w'
I8804
tp591
a(S'tr_tl'
I83
tp592
a(S'w'
I1
tp593
a(S'tr_ll'
I1
tp594
a(S'w'
I2935
tp595
a(S'tr_tl'
I46
tp596
a(S'w'
I1
tp597
a(S'tr_ll'
I1
tp598
a(S'w'
I11737
tp599
a(S'p1_lh'
I0
tp600
a(S'p1_vo'
I3
tp601
a(S'w'
I1
tp602
a(S'p1_tl'
I29
tp603
a(S'w'
I1
tp604
a(S'p1_ll'
I8
tp605
a(S'p1_th'
I1
tp606
a(S'w'
I3
tp607
a(S'tr_tl'
I29
tp608
a(S'w'
I1
tp609
a(S'tr_ll'
I1
tp610
a(S'w'
I11736
tp611
a(S'p1_tl'
I254
tp612
a(S'w'
I1
tp613
a(S'p1_ll'
I8
tp614
a(S'p1_th'
I0
tp615
a(S'w'
I11740
tp616
a(S'p1_tl'
I29
tp617
a(S'w'
I1
tp618
a(S'p1_ll'
I8
tp619
a(S'p1_th'
I1
tp620
a(S'w'
I3
tp621
a(S'tr_tl'
I125
tp622
a(S'w'
I1
tp623
a(S'tr_ll'
I1
tp624
a(S'w'
I8800
tp625
a(S'p1_tl'
I83
tp626
a(S'w'
I1
tp627
a(S'p1_ll'
I8
tp628
a(S'w'
I11739
tp629
a(S'p1_lh'
I1
tp630
a(S'p1_vo'
I0
tp631
a(S'w'
I1
tp632
a(S'p1_tl'
I125
tp633
a(S'w'
I1
tp634
a(S'p1_ll'
I8
tp635
a(S'w'
I3
tp636
a(S'tr_tl'
I29
tp637
a(S'w'
I1
tp638
a(S'tr_ll'
I1
tp639
a(S'w'
I11737
tp640
a(S'tr_ll'
I1
tp641
a(S'w'
I2935
tp642
a(S'tr_tl'
I125
tp643
a(S'w'
I1
tp644
a(S'tr_ll'
I1
tp645
a(S'w'
I11739
tp646
a(S'tr_tl'
I144
tp647
a(S'w'
I1
tp648
a(S'tr_ll'
I1
tp649
a(S'w'
I11740
tp650
a(S'tr_tl'
I171
tp651
a(S'w'
I1
tp652
a(S'tr_ll'
I1
tp653
a(S'w'
I11738
tp654
a(S'p1_lh'
I0
tp655
a(S'p1_vo'
I3
tp656
a(S'w'
I1
tp657
a(S'p1_tl'
I197
tp658
a(S'w'
I1
tp659
a(S'p1_ll'
I8
tp660
a(S'w'
I3
tp661
a(S'tr_tl'
I59
tp662
a(S'w'
I1
tp663
a(S'tr_ll'
I1
tp664
a(S'tr_th'
I2
tp665
a(S'w'
I8800
tp666
a(S'p1_tl'
I125
tp667
a(S'w'
I1
tp668
a(S'p1_ll'
I8
tp669
a(S'w'
I2934
tp670
a(S'p1_tl'
I29
tp671
a(S'w'
I1
tp672
a(S'p1_ll'
I8
tp673
a(S'w'
I3
tp674
a(S'tr_tl'
I29
tp675
a(S'w'
I1
tp676
a(S'tr_ll'
I1
tp677
a(S'tr_th'
I1
tp678
a(S'w'
I8801
tp679
a(S'p1_tl'
I197
tp680
a(S'w'
I1
tp681
a(S'p1_ll'
I8
tp682
a(S'w'
I2934
tp683
a(S'p1_tl'
I125
tp684
a(S'w'
I1
tp685
a(S'p1_ll'
I8
tp686
a(S'w'
I3
tp687
a(S'tr_tl'
I59
tp688
a(S'w'
I1
tp689
a(S'tr_ll'
I1
tp690
a(S'tr_th'
I2
tp691
a(S'w'
I8800
tp692
a(S'p1_tl'
I29
tp693
a(S'w'
I1
tp694
a(S'p1_ll'
I8
tp695
a(S'w'
I2935
tp696
a(S'p1_tl'
I197
tp697
a(S'w'
I1
tp698
a(S'p1_ll'
I8
tp699
a(S'w'
I3
tp700
a(S'tr_tl'
I29
tp701
a(S'w'
I1
tp702
a(S'tr_ll'
I1
tp703
a(S'tr_th'
I1
tp704
a(S'w'
I8800
tp705
a(S'p1_tl'
I29
tp706
a(S'w'
I1
tp707
a(S'p1_ll'
I8
tp708
a(S'w'
I2934
tp709
a(S'p1_tl'
I171
tp710
a(S'w'
I1
tp711
a(S'p1_ll'
I8
tp712
a(S'w'
I3
tp713
a(S'tr_tl'
I252
tp714
a(S'w'
I1
tp715
a(S'tr_ll'
I1
tp716
a(S'w'
I8801
tp717
a(S'p1_tl'
I83
tp718
a(S'w'
I1
tp719
a(S'p1_ll'
I8
tp720
a(S'w'
I2934
tp721
a(S'p1_tl'
I29
tp722
a(S'w'
I1
tp723
a(S'p1_ll'
I8
tp724
a(S'w'
I3
tp725
a(S'tr_tl'
I254
tp726
a(S'w'
I1
tp727
a(S'tr_ll'
I1
tp728
a(S'tr_th'
I0
tp729
a(S'w'
I8800
tp730
a(S'p1_tl'
I144
tp731
a(S'w'
I1
tp732
a(S'p1_ll'
I8
tp733
a(S'w'
I2935
tp734
a(S'p1_tl'
I83
tp735
a(S'p1_ll'
I8
tp736
a(S'w'
I4
tp737
a(S'tr_tl'
I224
tp738
a(S'w'
I1
tp739
a(S'tr_ll'
I1
tp740
a(S'tr_th'
I1
tp741
a(S'w'
I8800
tp742
a(S'p1_tl'
I29
tp743
a(S'w'
I1
tp744
a(S'p1_ll'
I8
tp745
a(S'w'
I2934
tp746
a(S'p1_tl'
I144
tp747
a(S'p1_ll'
I8
tp748
a(S'w'
I4
tp749
a(S'tr_tl'
I240
tp750
a(S'w'
I1
tp751
a(S'tr_ll'
I1
tp752
a(S'tr_th'
I0
tp753
a(S'w'
I8801
tp754
a(S'p1_tl'
I29
tp755
a(S'w'
I1
tp756
a(S'p1_ll'
I8
tp757
a(S'w'
I2935
tp758
a(S'tr_tl'
I197
tp759
a(S'w'
I1
tp760
a(S'tr_ll'
I1
tp761
a(S'tr_th'
I1
tp762
a(S'w'
I11739
tp763
a(S'p1_tl'
I226
tp764
a(S'w'
I1
tp765
a(S'p1_ll'
I8
tp766
a(S'p1_th'
I0
tp767
a(S'w'
I8804
tp768
a(S'p1_tl'
I240
tp769
a(S'w'
I1
tp770
a(S'p1_ll'
I8
tp771
a(S'w'
I2934
tp772
a(S'p1_tl'
I254
tp773
a(S'w'
I1
tp774
a(S'p1_ll'
I8
tp775
a(S'w'
I11740
tp776
a(S'p1_tl'
I125
tp777
a(S'w'
I1
tp778
a(S'p1_ll'
I8
tp779
a(S'p1_th'
I1
tp780
a(S'w'
I8804
tp781
a(S'p1_tl'
I29
tp782
a(S'w'
I1
tp783
a(S'p1_ll'
I8
tp784
a(S'w'
I14675
tp785
a(S'w'
I1
tp786
a(S'p1_ll'
I8
tp787
a(S'w'
I3
tp788
a(S'tr_tl'
I29
tp789
a(S'w'
I1
tp790
a(S'tr_ll'
I1
tp791
a(S'w'
I11736
tp792
a(S'p1_tl'
I46
tp793
a(S'w'
I1
tp794
a(S'p1_ll'
I8
tp795
a(S'w'
I3
tp796
a(S'tr_tl'
I254
tp797
a(S'w'
I1
tp798
a(S'tr_ll'
I1
tp799
a(S'tr_th'
I0
tp800
a(S'w'
I11736
tp801
a(S'p1_tl'
I83
tp802
a(S'w'
I1
tp803
a(S'p1_ll'
I8
tp804
a(S'w'
I3
tp805
a(S'tr_tl'
I240
tp806
a(S'w'
I1
tp807
a(S'tr_ll'
I1
tp808
a(S'w'
I11735
tp809
a(S'p1_tl'
I197
tp810
a(S'w'
I1
tp811
a(S'p1_ll'
I8
tp812
a(S'w'
I2
tp813
a(S'tr_lr'
I127
tp814
a(S'w'
I1
tp815
a(S'tr_tl'
I197
tp816
a(S'w'
I1
tp817
a(S'tr_ll'
I1
tp818
a(S'tr_th'
I1
tp819
a(S'w'
I8801
tp820
a(S'p1_tl'
I46
tp821
a(S'w'
I1
tp822
a(S'p1_ll'
I8
tp823
a(S'w'
I2934
tp824
a(S'p1_tl'
I103
tp825
a(S'w'
I1
tp826
a(S'p1_ll'
I8
tp827
a(S'w'
I8804
tp828
a(S'p1_tl'
I197
tp829
a(S'w'
I1
tp830
a(S'p1_ll'
I8
tp831
a(S'w'
I2935
tp832
a(S'p1_tl'
I46
tp833
a(S'w'
I1
tp834
a(S'p1_ll'
I8
tp835
a(S'w'
I3
tp836
a(S'tr_tl'
I103
tp837
a(S'w'
I1
tp838
a(S'tr_ll'
I1
tp839
a(S'w'
I8800
tp840
a(S'p1_tl'
I103
tp841
a(S'w'
I1
tp842
a(S'p1_ll'
I8
tp843
a(S'w'
I2934
tp844
a(S'p1_tl'
I197
tp845
a(S'w'
I1
tp846
a(S'p1_ll'
I8
tp847
a(S'w'
I5871
tp848
a(S'tr_tl'
I46
tp849
a(S'w'
I1
tp850
a(S'tr_ll'
I1
tp851
a(S'w'
I2933
tp852
a(S'p1_tl'
I46
tp853
a(S'w'
I1
tp854
a(S'p1_ll'
I8
tp855
a(S'w'
I2934
tp856
a(S'p1_tl'
I103
tp857
a(S'p1_ll'
I8
tp858
a(S'w'
I4
tp859
a(S'tr_tl'
I13
tp860
a(S'w'
I1
tp861
a(S'tr_ll'
I1
tp862
a(S'w'
I8800
tp863
a(S'p1_tl'
I197
tp864
a(S'w'
I1
tp865
a(S'p1_ll'
I8
tp866
a(S'w'
I2935
tp867
a(S'p1_tl'
I46
tp868
a(S'w'
I1
tp869
a(S'p1_ll'
I8
tp870
a(S'w'
I3
tp871
a(S'tr_tl'
I226
tp872
a(S'w'
I1
tp873
a(S'tr_ll'
I1
tp874
a(S'tr_th'
I0
tp875
a(S'w'
I8800
tp876
a(S'p1_tl'
I103
tp877
a(S'w'
I1
tp878
a(S'p1_ll'
I8
tp879
a(S'w'
I2934
tp880
a(S'p1_tl'
I197
tp881
a(S'w'
I1
tp882
a(S'p1_ll'
I8
tp883
a(S'w'
I8805
tp884
a(S'p1_tl'
I46
tp885
a(S'w'
I1
tp886
a(S'p1_ll'
I8
tp887
a(S'w'
I2934
tp888
a(S'p1_tl'
I103
tp889
a(S'w'
I1
tp890
a(S'p1_ll'
I8
tp891
a(S'w'
I3
tp892
a(S'tr_tl'
I13
tp893
a(S'w'
I1
tp894
a(S'tr_ll'
I1
tp895
a(S'tr_th'
I1
tp896
a(S'w'
I8800
tp897
a(S'p1_tl'
I197
tp898
a(S'w'
I1
tp899
a(S'p1_ll'
I8
tp900
a(S'w'
I2935
tp901
a(S'p1_tl'
I46
tp902
a(S'w'
I1
tp903
a(S'p1_ll'
I8
tp904
a(S'w'
I3
tp905
a(S'tr_tl'
I46
tp906
a(S'w'
I1
tp907
a(S'tr_ll'
I1
tp908
a(S'w'
I8800
tp909
a(S'p1_tl'
I103
tp910
a(S'w'
I1
tp911
a(S'p1_ll'
I8
tp912
a(S'w'
I2934
tp913
a(S'p1_tl'
I197
tp914
a(S'w'
I1
tp915
a(S'p1_ll'
I8
tp916
a(S'w'
I8805
tp917
a(S'p1_tl'
I46
tp918
a(S'p1_ll'
I8
tp919
a(S'w'
I2935
tp920
a(S'p1_tl'
I103
tp921
a(S'w'
I1
tp922
a(S'p1_ll'
I8
tp923
a(S'w'
I3
tp924
a(S'tr_tl'
I13
tp925
a(S'w'
I1
tp926
a(S'tr_ll'
I1
tp927
a(S'w'
I8800
tp928
a(S'p1_tl'
I197
tp929
a(S'p1_ll'
I8
tp930
a(S'w'
I2936
tp931
a(S'p1_tl'
I46
tp932
a(S'w'
I1
tp933
a(S'p1_ll'
I8
tp934
a(S'w'
I8804
tp935
a(S'p1_tl'
I103
tp936
a(S'w'
I1
tp937
a(S'p1_ll'
I8
tp938
a(S'w'
I2934
tp939
a(S'p1_tl'
I197
tp940
a(S'w'
I1
tp941
a(S'p1_ll'
I8
tp942
a(S'w'
I3
tp943
a(S'tr_tl'
I103
tp944
a(S'w'
I1
tp945
a(S'tr_ll'
I1
tp946
a(S'w'
I8801
tp947
a(S'p1_tl'
I46
tp948
a(S'w'
I1
tp949
a(S'p1_ll'
I8
tp950
a(S'w'
I2934
tp951
a(S'p1_tl'
I103
tp952
a(S'w'
I1
tp953
a(S'p1_ll'
I8
tp954
a(S'w'
I3
tp955
a(S'tr_tl'
I46
tp956
a(S'w'
I1
tp957
a(S'tr_ll'
I1
tp958
a(S'w'
I8800
tp959
a(S'p1_tl'
I197
tp960
a(S'w'
I1
tp961
a(S'p1_ll'
I8
tp962
a(S'w'
I2935
tp963
a(S'p1_tl'
I46
tp964
a(S'w'
I1
tp965
a(S'p1_ll'
I8
tp966
a(S'w'
I8804
tp967
a(S'p1_tl'
I103
tp968
a(S'w'
I1
tp969
a(S'p1_ll'
I8
tp970
a(S'w'
I2934
tp971
a(S'p1_tl'
I197
tp972
a(S'w'
I1
tp973
a(S'p1_ll'
I8
tp974
a(S'w'
I8805
tp975
a(S'p1_tl'
I46
tp976
a(S'w'
I1
tp977
a(S'p1_ll'
I8
tp978
a(S'w'
I2934
tp979
a(S'p1_tl'
I252
tp980
a(S'w'
I1
tp981
a(S'p1_ll'
I8
tp982
a(S'w'
I3
tp983
a(S'tr_tl'
I252
tp984
a(S'w'
I1
tp985
a(S'tr_ll'
I1
tp986
a(S'w'
I8800
tp987
a(S'p1_tl'
I83
tp988
a(S'w'
I1
tp989
a(S'p1_ll'
I8
tp990
a(S'w'
I2935
tp991
a(S'p1_tl'
I144
tp992
a(S'p1_ll'
I8
tp993
a(S'w'
I8805
tp994
a(S'p1_tl'
I252
tp995
a(S'w'
I1
tp996
a(S'p1_ll'
I8
tp997
a(S'w'
I2934
tp998
a(S'p1_tl'
I83
tp999
a(S'p1_ll'
I8
tp1000
a(S'w'
I4
tp1001
a(S'tr_tl'
I144
tp1002
a(S'w'
I1
tp1003
a(S'tr_ll'
I1
tp1004
a(S'w'
I8801
tp1005
a(S'p1_tl'
I144
tp1006
a(S'w'
I1
tp1007
a(S'p1_ll'
I8
tp1008
a(S'w'
I2934
tp1009
a(S'p1_tl'
I252
tp1010
a(S'w'
I1
tp1011
a(S'p1_ll'
I8
tp1012
a(S'w'
I5870
tp1013
a(S'tr_tl'
I83
tp1014
a(S'w'
I1
tp1015
a(S'tr_ll'
I1
tp1016
a(S'w'
I2933
tp1017
a(S'p1_tl'
I83
tp1018
a(S'w'
I1
tp1019
a(S'p1_ll'
I8
tp1020
a(S'w'
I2935
tp1021
a(S'p1_tl'
I144
tp1022
a(S'w'
I1
tp1023
a(S'p1_ll'
I8
tp1024
a(S'w'
I3
tp1025
a(S'tr_tl'
I46
tp1026
a(S'w'
I1
tp1027
a(S'tr_ll'
I1
tp1028
a(S'w'
I8800
tp1029
a(S'p1_tl'
I252
tp1030
a(S'w'
I1
tp1031
a(S'p1_ll'
I8
tp1032
a(S'w'
I2934
tp1033
a(S'p1_tl'
I83
tp1034
a(S'w'
I1
tp1035
a(S'p1_ll'
I8
tp1036
a(S'w'
I3
tp1037
a(S'tr_tl'
I254
tp1038
a(S'w'
I1
tp1039
a(S'tr_ll'
I1
tp1040
a(S'tr_th'
I0
tp1041
a(S'w'
I8801
tp1042
a(S'p1_tl'
I144
tp1043
a(S'w'
I1
tp1044
a(S'p1_ll'
I8
tp1045
a(S'w'
I2934
tp1046
a(S'p1_tl'
I252
tp1047
a(S'w'
I1
tp1048
a(S'p1_ll'
I8
tp1049
a(S'w'
I8804
tp1050
a(S'p1_tl'
I83
tp1051
a(S'w'
I1
tp1052
a(S'p1_ll'
I8
tp1053
a(S'w'
I2935
tp1054
a(S'p1_tl'
I144
tp1055
a(S'w'
I1
tp1056
a(S'p1_ll'
I8
tp1057
a(S'w'
I3
tp1058
a(S'tr_tl'
I46
tp1059
a(S'w'
I1
tp1060
a(S'tr_ll'
I1
tp1061
a(S'tr_th'
I1
tp1062
a(S'w'
I8800
tp1063
a(S'p1_tl'
I252
tp1064
a(S'w'
I1
tp1065
a(S'p1_ll'
I8
tp1066
a(S'w'
I2934
tp1067
a(S'p1_tl'
I83
tp1068
a(S'w'
I1
tp1069
a(S'p1_ll'
I8
tp1070
a(S'w'
I3
tp1071
a(S'tr_tl'
I83
tp1072
a(S'w'
I1
tp1073
a(S'tr_ll'
I1
tp1074
a(S'w'
I8801
tp1075
a(S'p1_tl'
I144
tp1076
a(S'w'
I1
tp1077
a(S'p1_ll'
I8
tp1078
a(S'w'
I2934
tp1079
a(S'p1_tl'
I252
tp1080
a(S'w'
I1
tp1081
a(S'p1_ll'
I8
tp1082
a(S'w'
I8804
tp1083
a(S'p1_tl'
I83
tp1084
a(S'w'
I1
tp1085
a(S'p1_ll'
I8
tp1086
a(S'w'
I2935
tp1087
a(S'p1_tl'
I144
tp1088
a(S'w'
I1
tp1089
a(S'p1_ll'
I8
tp1090
a(S'w'
I3
tp1091
a(S'tr_tl'
I46
tp1092
a(S'w'
I1
tp1093
a(S'tr_ll'
I1
tp1094
a(S'w'
I8800
tp1095
a(S'p1_tl'
I252
tp1096
a(S'p1_ll'
I8
tp1097
a(S'w'
I2935
tp1098
a(S'p1_tl'
I83
tp1099
a(S'w'
I1
tp1100
a(S'p1_ll'
I8
tp1101
a(S'w'
I8805
tp1102
a(S'p1_tl'
I144
tp1103
a(S'w'
I1
tp1104
a(S'p1_ll'
I8
tp1105
a(S'w'
I2934
tp1106
a(S'p1_tl'
I252
tp1107
a(S'w'
I1
tp1108
a(S'p1_ll'
I8
tp1109
a(S'w'
I3
tp1110
a(S'tr_tl'
I144
tp1111
a(S'w'
I1
tp1112
a(S'tr_ll'
I1
tp1113
a(S'w'
I8800
tp1114
a(S'p1_tl'
I83
tp1115
a(S'w'
I1
tp1116
a(S'p1_ll'
I8
tp1117
a(S'w'
I2935
tp1118
a(S'p1_tl'
I144
tp1119
a(S'w'
I1
tp1120
a(S'p1_ll'
I8
tp1121
a(S'w'
I3
tp1122
a(S'tr_tl'
I83
tp1123
a(S'w'
I1
tp1124
a(S'tr_ll'
I1
tp1125
a(S'w'
I8800
tp1126
a(S'p1_tl'
I252
tp1127
a(S'w'
I1
tp1128
a(S'p1_ll'
I8
tp1129
a(S'w'
I2934
tp1130
a(S'p1_tl'
I83
tp1131
a(S'w'
I1
tp1132
a(S'p1_ll'
I8
tp1133
a(S'w'
I8805
tp1134
a(S'p1_tl'
I144
tp1135
a(S'w'
I1
tp1136
a(S'p1_ll'
I8
tp1137
a(S'w'
I2934
tp1138
a(S'p1_tl'
I252
tp1139
a(S'w'
I1
tp1140
a(S'p1_ll'
I8
tp1141
a(S'w'
I11740
tp1142
a(S'p1_tl'
I59
tp1143
a(S'w'
I1
tp1144
a(S'p1_ll'
I8
tp1145
a(S'p1_th'
I2
tp1146
a(S'w'
I2
tp1147
a(S'tr_lr'
I35
tp1148
a(S'w'
I1
tp1149
a(S'tr_tl'
I59
tp1150
a(S'w'
I1
tp1151
a(S'tr_ll'
I1
tp1152
a(S'tr_th'
I2
tp1153
a(S'w'
I8800
tp1154
a(S'p1_tl'
I252
tp1155
a(S'w'
I1
tp1156
a(S'p1_ll'
I8
tp1157
a(S'p1_th'
I1
tp1158
a(S'w'
I2934
tp1159
a(S'p1_tl'
I197
tp1160
a(S'w'
I1
tp1161
a(S'p1_ll'
I8
tp1162
a(S'w'
I3
tp1163
a(S'tr_tl'
I29
tp1164
a(S'w'
I1
tp1165
a(S'tr_ll'
I1
tp1166
a(S'tr_th'
I1
tp1167
a(S'w'
I8801
tp1168
a(S'p1_tl'
I59
tp1169
a(S'w'
I1
tp1170
a(S'p1_ll'
I8
tp1171
a(S'p1_th'
I2
tp1172
a(S'w'
I2934
tp1173
a(S'p1_tl'
I252
tp1174
a(S'p1_ll'
I8
tp1175
a(S'p1_th'
I1
tp1176
a(S'w'
I4
tp1177
a(S'tr_tl'
I252
tp1178
a(S'w'
I1
tp1179
a(S'tr_ll'
I1
tp1180
a(S'w'
I8800
tp1181
a(S'p1_tl'
I197
tp1182
a(S'w'
I1
tp1183
a(S'p1_ll'
I8
tp1184
a(S'w'
I2935
tp1185
a(S'p1_tl'
I171
tp1186
a(S'w'
I1
tp1187
a(S'p1_ll'
I8
tp1188
a(S'w'
I3
tp1189
a(S'tr_tl'
I254
tp1190
a(S'w'
I1
tp1191
a(S'tr_ll'
I1
tp1192
a(S'tr_th'
I0
tp1193
a(S'w'
I8800
tp1194
a(S'p1_tl'
I252
tp1195
a(S'w'
I1
tp1196
a(S'p1_ll'
I8
tp1197
a(S'w'
I2934
tp1198
a(S'p1_tl'
I197
tp1199
a(S'w'
I1
tp1200
a(S'p1_ll'
I8
tp1201
a(S'w'
I3
tp1202
a(S'tr_tl'
I197
tp1203
a(S'w'
I1
tp1204
a(S'tr_ll'
I1
tp1205
a(S'tr_th'
I1
tp1206
a(S'w'
I8801
tp1207
a(S'p1_tl'
I171
tp1208
a(S'w'
I1
tp1209
a(S'p1_ll'
I8
tp1210
a(S'w'
I2934
tp1211
a(S'p1_tl'
I125
tp1212
a(S'w'
I1
tp1213
a(S'p1_ll'
I8
tp1214
a(S'w'
I3
tp1215
a(S'tr_tl'
I226
tp1216
a(S'w'
I1
tp1217
a(S'tr_ll'
I1
tp1218
a(S'tr_th'
I0
tp1219
a(S'w'
I8800
tp1220
a(S'p1_tl'
I197
tp1221
a(S'w'
I1
tp1222
a(S'p1_ll'
I8
tp1223
a(S'w'
I2935
tp1224
a(S'p1_tl'
I171
tp1225
a(S'w'
I1
tp1226
a(S'p1_ll'
I8
tp1227
a(S'w'
I3
tp1228
a(S'tr_tl'
I171
tp1229
a(S'w'
I1
tp1230
a(S'tr_ll'
I1
tp1231
a(S'tr_th'
I1
tp1232
a(S'w'
I8800
tp1233
a(S'p1_tl'
I125
tp1234
a(S'w'
I1
tp1235
a(S'p1_ll'
I8
tp1236
a(S'w'
I2934
tp1237
a(S'p1_tl'
I83
tp1238
a(S'w'
I1
tp1239
a(S'p1_ll'
I8
tp1240
a(S'w'
I3
tp1241
a(S'tr_tl'
I213
tp1242
a(S'w'
I1
tp1243
a(S'tr_ll'
I1
tp1244
a(S'tr_th'
I0
tp1245
a(S'w'
I8801
tp1246
a(S'p1_tl'
I171
tp1247
a(S'p1_ll'
I8
tp1248
a(S'w'
I2935
tp1249
a(S'p1_tl'
I125
tp1250
a(S'w'
I1
tp1251
a(S'p1_ll'
I8
tp1252
a(S'w'
I3
tp1253
a(S'tr_tl'
I125
tp1254
a(S'w'
I1
tp1255
a(S'tr_ll'
I1
tp1256
a(S'tr_th'
I1
tp1257
a(S'w'
I8800
tp1258
a(S'p1_tl'
I83
tp1259
a(S'p1_ll'
I8
tp1260
a(S'w'
I2936
tp1261
a(S'p1_tl'
I46
tp1262
a(S'w'
I1
tp1263
a(S'p1_ll'
I8
tp1264
a(S'w'
I3
tp1265
a(S'tr_tl'
I190
tp1266
a(S'w'
I1
tp1267
a(S'tr_ll'
I1
tp1268
a(S'tr_th'
I0
tp1269
a(S'w'
I8800
tp1270
a(S'p1_tl'
I125
tp1271
a(S'w'
I1
tp1272
a(S'p1_ll'
I8
tp1273
a(S'w'
I2934
tp1274
a(S'p1_tl'
I83
tp1275
a(S'w'
I1
tp1276
a(S'p1_ll'
I8
tp1277
a(S'w'
I3
tp1278
a(S'tr_tl'
I83
tp1279
a(S'w'
I1
tp1280
a(S'tr_ll'
I1
tp1281
a(S'tr_th'
I1
tp1282
a(S'w'
I8801
tp1283
a(S'p1_tl'
I46
tp1284
a(S'w'
I1
tp1285
a(S'p1_ll'
I8
tp1286
a(S'w'
I2934
tp1287
a(S'p1_tl'
I29
tp1288
a(S'w'
I1
tp1289
a(S'p1_ll'
I8
tp1290
a(S'w'
I3
tp1291
a(S'tr_tl'
I169
tp1292
a(S'w'
I1
tp1293
a(S'tr_ll'
I1
tp1294
a(S'tr_th'
I0
tp1295
a(S'w'
I8800
tp1296
a(S'p1_tl'
I254
tp1297
a(S'w'
I1
tp1298
a(S'p1_ll'
I8
tp1299
a(S'p1_th'
I0
tp1300
a(S'w'
I2935
tp1301
a(S'p1_tl'
I226
tp1302
a(S'w'
I1
tp1303
a(S'p1_ll'
I8
tp1304
a(S'w'
I3
tp1305
a(S'tr_tl'
I46
tp1306
a(S'w'
I1
tp1307
a(S'tr_ll'
I1
tp1308
a(S'tr_th'
I1
tp1309
a(S'w'
I11735
tp1310
a(S'p1_tl'
I240
tp1311
a(S'w'
I1
tp1312
a(S'p1_ll'
I8
tp1313
a(S'w'
I4
tp1314
a(S'tr_ll'
I1
tp1315
a(S'w'
I8801
tp1316
a(S'p1_tl'
I226
tp1317
a(S'w'
I1
tp1318
a(S'p1_ll'
I8
tp1319
a(S'w'
I2934
tp1320
a(S'p1_tl'
I240
tp1321
a(S'w'
I1
tp1322
a(S'p1_ll'
I8
tp1323
a(S'w'
I3
tp1324
a(S'tr_tl'
I103
tp1325
a(S'w'
I1
tp1326
a(S'tr_ll'
I1
tp1327
a(S'w'
I8800
tp1328
a(S'p1_tl'
I226
tp1329
a(S'w'
I1
tp1330
a(S'p1_ll'
I8
tp1331
a(S'w'
I2935
tp1332
a(S'p1_tl'
I240
tp1333
a(S'p1_ll'
I8
tp1334
a(S'w'
I4
tp1335
a(S'tr_tl'
I197
tp1336
a(S'w'
I1
tp1337
a(S'tr_ll'
I1
tp1338
a(S'w'
I8800
tp1339
a(S'p1_tl'
I226
tp1340
a(S'w'
I1
tp1341
a(S'p1_ll'
I8
tp1342
a(S'w'
I2934
tp1343
a(S'p1_tl'
I103
tp1344
a(S'p1_ll'
I8
tp1345
a(S'p1_th'
I1
tp1346
a(S'w'
I4
tp1347
a(S'tr_tl'
I83
tp1348
a(S'w'
I1
tp1349
a(S'tr_ll'
I1
tp1350
a(S'w'
I11736
tp1351
a(S'p1_tl'
I226
tp1352
a(S'w'
I1
tp1353
a(S'p1_ll'
I8
tp1354
a(S'p1_th'
I0
tp1355
a(S'w'
I11740
tp1356
a(S'p1_tl'
I240
tp1357
a(S'w'
I1
tp1358
a(S'p1_ll'
I8
tp1359
a(S'w'
I3
tp1360
a(S'tr_tl'
I197
tp1361
a(S'w'
I1
tp1362
a(S'tr_ll'
I1
tp1363
a(S'w'
I11735
tp1364
a(S'p1_tl'
I226
tp1365
a(S'w'
I1
tp1366
a(S'p1_ll'
I8
tp1367
a(S'w'
I8806
tp1368
a(S'tr_tl'
I83
tp1369
a(S'w'
I1
tp1370
a(S'tr_ll'
I1
tp1371
a(S'w'
I2932
tp1372
a(S'p1_lh'
I1
tp1373
a(S'p1_vo'
I0
tp1374
a(S'w'
I1
tp1375
a(S'p1_tl'
I213
tp1376
a(S'w'
I1
tp1377
a(S'p1_ll'
I8
tp1378
a(S'w'
I8806
tp1379
a(S'tr_ll'
I1
tp1380
a(S'w'
I2935
tp1381
a(S'tr_tl'
I197
tp1382
a(S'w'
I1
tp1383
a(S'tr_ll'
I1
tp1384
a(S'w'
I8803
tp1385
a(S'p1_tl'
I226
tp1386
a(S'p1_ll'
I8
tp1387
a(S'w'
I2936
tp1388
a(S'tr_tl'
I83
tp1389
a(S'w'
I1
tp1390
a(S'tr_ll'
I1
tp1391
a(S'w'
I8805
tp1392
a(S'tr_tl'
I46
tp1393
a(S'w'
I1
tp1394
a(S'tr_ll'
I1
tp1395
a(S'w'
I2934
tp1396
a(S'tr_tl'
I13
tp1397
a(S'w'
I1
tp1398
a(S'tr_ll'
I1
tp1399
a(S'w'
I11738
tp1400
a(S'p1_lh'
I0
tp1401
a(S'p1_vo'
I3
tp1402
a(S'w'
I1
tp1403
a(S'p1_tl'
I254
tp1404
a(S'w'
I1
tp1405
a(S'p1_ll'
I8
tp1406
a(S'w'
I3
tp1407
a(S'tr_tl'
I254
tp1408
a(S'w'
I1
tp1409
a(S'tr_ll'
I1
tp1410
a(S'tr_th'
I0
tp1411
a(S'w'
I11735
tp1412
a(S'p1_tl'
I226
tp1413
a(S'w'
I1
tp1414
a(S'p1_ll'
I8
tp1415
a(S'w'
I11740
tp1416
a(S'p1_tl'
I254
tp1417
a(S'w'
I1
tp1418
a(S'p1_ll'
I8
tp1419
a(S'w'
I3
tp1420
a(S'tr_tl'
I83
tp1421
a(S'w'
I1
tp1422
a(S'tr_ll'
I1
tp1423
a(S'tr_th'
I1
tp1424
a(S'w'
I8800
tp1425
a(S'p1_tl'
I29
tp1426
a(S'w'
I1
tp1427
a(S'p1_ll'
I8
tp1428
a(S'p1_th'
I1
tp1429
a(S'w'
I2935
tp1430
a(S'p1_tl'
I83
tp1431
a(S'w'
I1
tp1432
a(S'p1_ll'
I8
tp1433
a(S'w'
I8803
tp1434
a(S'p1_lh'
I1
tp1435
a(S'p1_vo'
I0
tp1436
a(S'w'
I1
tp1437
a(S'p1_tl'
I254
tp1438
a(S'w'
I1
tp1439
a(S'p1_ll'
I8
tp1440
a(S'p1_th'
I0
tp1441
a(S'w'
I3
tp1442
a(S'tr_tl'
I254
tp1443
a(S'w'
I1
tp1444
a(S'tr_ll'
I1
tp1445
a(S'tr_th'
I0
tp1446
a(S'w'
I11738
tp1447
a(S'tr_ll'
I1
tp1448
a(S'w'
I2934
tp1449
a(S'tr_tl'
I29
tp1450
a(S'w'
I1
tp1451
a(S'tr_ll'
I1
tp1452
a(S'tr_th'
I1
tp1453
a(S'w'
I11740
tp1454
a(S'tr_tl'
I46
tp1455
a(S'w'
I1
tp1456
a(S'tr_ll'
I1
tp1457
a(S'w'
I11739
tp1458
a(S'tr_tl'
I83
tp1459
a(S'w'
I1
tp1460
a(S'tr_ll'
I1
tp1461
a(S'w'
I11738
tp1462
a(S'p1_lh'
I0
tp1463
a(S'p1_vo'
I3
tp1464
a(S'w'
I1
tp1465
a(S'p1_tl'
I125
tp1466
a(S'w'
I1
tp1467
a(S'p1_ll'
I8
tp1468
a(S'p1_th'
I1
tp1469
a(S'w'
I3
tp1470
a(S'tr_tl'
I125
tp1471
a(S'w'
I1
tp1472
a(S'tr_ll'
I1
tp1473
a(S'w'
I11735
tp1474
a(S'p1_tl'
I254
tp1475
a(S'w'
I1
tp1476
a(S'p1_ll'
I8
tp1477
a(S'p1_th'
I0
tp1478
a(S'w'
I11740
tp1479
a(S'p1_tl'
I13
tp1480
a(S'w'
I1
tp1481
a(S'p1_ll'
I8
tp1482
a(S'p1_th'
I1
tp1483
a(S'w'
I3
tp1484
a(S'tr_tl'
I252
tp1485
a(S'w'
I1
tp1486
a(S'tr_ll'
I1
tp1487
a(S'w'
I11736
tp1488
a(S'p1_tl'
I254
tp1489
a(S'w'
I1
tp1490
a(S'p1_ll'
I8
tp1491
a(S'p1_th'
I0
tp1492
a(S'w'
I8805
tp1493
a(S'tr_tl'
I125
tp1494
a(S'w'
I1
tp1495
a(S'tr_ll'
I1
tp1496
a(S'w'
I2932
tp1497
a(S'p1_lh'
I1
tp1498
a(S'p1_vo'
I0
tp1499
a(S'w'
I1
tp1500
a(S'p1_tl'
I226
tp1501
a(S'w'
I1
tp1502
a(S'p1_ll'
I8
tp1503
a(S'w'
I8807
tp1504
a(S'tr_ll'
I1
tp1505
a(S'w'
I2934
tp1506
a(S'tr_tl'
I252
tp1507
a(S'w'
I1
tp1508
a(S'tr_ll'
I1
tp1509
a(S'w'
I8804
tp1510
a(S'p1_tl'
I254
tp1511
a(S'w'
I1
tp1512
a(S'p1_ll'
I8
tp1513
a(S'w'
I2935
tp1514
a(S'tr_tl'
I125
tp1515
a(S'w'
I1
tp1516
a(S'tr_ll'
I1
tp1517
a(S'w'
I8804
tp1518
a(S'tr_tl'
I83
tp1519
a(S'w'
I1
tp1520
a(S'tr_ll'
I1
tp1521
a(S'w'
I2934
tp1522
a(S'tr_tl'
I46
tp1523
a(S'w'
I1
tp1524
a(S'tr_ll'
I1
tp1525
a(S'w'
I11738
tp1526
a(S'p1_lh'
I0
tp1527
a(S'p1_vo'
I3
tp1528
a(S'w'
I1
tp1529
a(S'p1_tl'
I29
tp1530
a(S'w'
I1
tp1531
a(S'p1_ll'
I8
tp1532
a(S'p1_th'
I1
tp1533
a(S'w'
I3
tp1534
a(S'tr_tl'
I29
tp1535
a(S'w'
I1
tp1536
a(S'tr_ll'
I1
tp1537
a(S'w'
I11736
tp1538
a(S'p1_tl'
I254
tp1539
a(S'w'
I1
tp1540
a(S'p1_ll'
I8
tp1541
a(S'p1_th'
I0
tp1542
a(S'w'
I11739
tp1543
a(S'p1_tl'
I29
tp1544
a(S'w'
I1
tp1545
a(S'p1_ll'
I8
tp1546
a(S'p1_th'
I1
tp1547
a(S'w'
I3
tp1548
a(S'tr_tl'
I125
tp1549
a(S'w'
I1
tp1550
a(S'tr_ll'
I1
tp1551
a(S'w'
I8801
tp1552
a(S'p1_tl'
I83
tp1553
a(S'w'
I1
tp1554
a(S'p1_ll'
I8
tp1555
a(S'w'
I11739
tp1556
a(S'p1_lh'
I1
tp1557
a(S'p1_vo'
I0
tp1558
a(S'w'
I1
tp1559
a(S'p1_tl'
I125
tp1560
a(S'w'
I1
tp1561
a(S'p1_ll'
I8
tp1562
a(S'w'
I3
tp1563
a(S'tr_tl'
I29
tp1564
a(S'w'
I1
tp1565
a(S'tr_ll'
I1
tp1566
a(S'w'
I11737
tp1567
a(S'tr_ll'
I1
tp1568
a(S'w'
I2934
tp1569
a(S'tr_tl'
I125
tp1570
a(S'w'
I1
tp1571
a(S'tr_ll'
I1
tp1572
a(S'w'
I11740
tp1573
a(S'tr_tl'
I144
tp1574
a(S'w'
I1
tp1575
a(S'tr_ll'
I1
tp1576
a(S'w'
I11740
tp1577
a(S'tr_tl'
I171
tp1578
a(S'w'
I1
tp1579
a(S'tr_ll'
I1
tp1580
a(S'w'
I11737
tp1581
a(S'p1_lh'
I0
tp1582
a(S'p1_vo'
I3
tp1583
a(S'w'
I1
tp1584
a(S'p1_tl'
I197
tp1585
a(S'w'
I1
tp1586
a(S'p1_ll'
I8
tp1587
a(S'w'
I3
tp1588
a(S'tr_tl'
I59
tp1589
a(S'w'
I1
tp1590
a(S'tr_ll'
I1
tp1591
a(S'tr_th'
I2
tp1592
a(S'w'
I8801
tp1593
a(S'p1_tl'
I125
tp1594
a(S'w'
I1
tp1595
a(S'p1_ll'
I8
tp1596
a(S'w'
I2934
tp1597
a(S'p1_tl'
I29
tp1598
a(S'w'
I1
tp1599
a(S'p1_ll'
I8
tp1600
a(S'w'
I3
tp1601
a(S'tr_tl'
I29
tp1602
a(S'w'
I1
tp1603
a(S'tr_ll'
I1
tp1604
a(S'tr_th'
I1
tp1605
a(S'w'
I8801
tp1606
a(S'p1_tl'
I197
tp1607
a(S'w'
I1
tp1608
a(S'p1_ll'
I8
tp1609
a(S'w'
I2934
tp1610
a(S'p1_tl'
I125
tp1611
a(S'w'
I1
tp1612
a(S'p1_ll'
I8
tp1613
a(S'w'
I3
tp1614
a(S'tr_tl'
I59
tp1615
a(S'w'
I1
tp1616
a(S'tr_ll'
I1
tp1617
a(S'tr_th'
I2
tp1618
a(S'w'
I8800
tp1619
a(S'p1_tl'
I29
tp1620
a(S'w'
I1
tp1621
a(S'p1_ll'
I8
tp1622
a(S'w'
I2934
tp1623
a(S'p1_tl'
I197
tp1624
a(S'w'
I1
tp1625
a(S'p1_ll'
I8
tp1626
a(S'w'
I3
tp1627
a(S'tr_tl'
I29
tp1628
a(S'w'
I1
tp1629
a(S'tr_ll'
I1
tp1630
a(S'tr_th'
I1
tp1631
a(S'w'
I8801
tp1632
a(S'p1_tl'
I29
tp1633
a(S'p1_ll'
I8
tp1634
a(S'w'
I2935
tp1635
a(S'p1_tl'
I171
tp1636
a(S'w'
I1
tp1637
a(S'p1_ll'
I8
tp1638
a(S'w'
I3
tp1639
a(S'tr_tl'
I252
tp1640
a(S'w'
I1
tp1641
a(S'tr_ll'
I1
tp1642
a(S'w'
I8801
tp1643
a(S'p1_tl'
I83
tp1644
a(S'w'
I1
tp1645
a(S'p1_ll'
I8
tp1646
a(S'w'
I2934
tp1647
a(S'p1_tl'
I29
tp1648
a(S'w'
I1
tp1649
a(S'p1_ll'
I8
tp1650
a(S'w'
I3
tp1651
a(S'tr_tl'
I254
tp1652
a(S'w'
I1
tp1653
a(S'tr_ll'
I1
tp1654
a(S'tr_th'
I0
tp1655
a(S'w'
I8800
tp1656
a(S'p1_tl'
I144
tp1657
a(S'w'
I1
tp1658
a(S'p1_ll'
I8
tp1659
a(S'w'
I2934
tp1660
a(S'p1_tl'
I83
tp1661
a(S'w'
I1
tp1662
a(S'p1_ll'
I8
tp1663
a(S'w'
I3
tp1664
a(S'tr_tl'
I224
tp1665
a(S'w'
I1
tp1666
a(S'tr_ll'
I1
tp1667
a(S'tr_th'
I1
tp1668
a(S'w'
I8801
tp1669
a(S'p1_tl'
I29
tp1670
a(S'w'
I1
tp1671
a(S'p1_ll'
I8
tp1672
a(S'w'
I2934
tp1673
a(S'p1_tl'
I144
tp1674
a(S'w'
I1
tp1675
a(S'p1_ll'
I8
tp1676
a(S'w'
I3
tp1677
a(S'tr_tl'
I240
tp1678
a(S'w'
I1
tp1679
a(S'tr_ll'
I1
tp1680
a(S'tr_th'
I0
tp1681
a(S'w'
I8801
tp1682
a(S'p1_tl'
I29
tp1683
a(S'w'
I1
tp1684
a(S'p1_ll'
I8
tp1685
a(S'w'
I2935
tp1686
a(S'tr_tl'
I197
tp1687
a(S'w'
I1
tp1688
a(S'tr_ll'
I1
tp1689
a(S'tr_th'
I1
tp1690
a(S'w'
I11738
tp1691
a(S'p1_tl'
I226
tp1692
a(S'w'
I1
tp1693
a(S'p1_ll'
I8
tp1694
a(S'p1_th'
I0
tp1695
a(S'w'
I8805
tp1696
a(S'p1_tl'
I240
tp1697
a(S'w'
I1
tp1698
a(S'p1_ll'
I8
tp1699
a(S'w'
I2934
tp1700
a(S'p1_tl'
I254
tp1701
a(S'w'
I1
tp1702
a(S'p1_ll'
I8
tp1703
a(S'w'
I11740
tp1704
a(S'p1_tl'
I125
tp1705
a(S'p1_ll'
I8
tp1706
a(S'p1_th'
I1
tp1707
a(S'w'
I8805
tp1708
a(S'p1_tl'
I29
tp1709
a(S'w'
I1
tp1710
a(S'p1_ll'
I8
tp1711
a(S'w'
I14675
tp1712
a(S'w'
I1
tp1713
a(S'p1_ll'
I8
tp1714
a(S'w'
I3
tp1715
a(S'tr_tl'
I29
tp1716
a(S'w'
I1
tp1717
a(S'tr_ll'
I1
tp1718
a(S'w'
I11736
tp1719
a(S'p1_tl'
I46
tp1720
a(S'w'
I1
tp1721
a(S'p1_ll'
I8
tp1722
a(S'w'
I3
tp1723
a(S'tr_tl'
I254
tp1724
a(S'w'
I1
tp1725
a(S'tr_ll'
I1
tp1726
a(S'tr_th'
I0
tp1727
a(S'w'
I11735
tp1728
a(S'p1_tl'
I83
tp1729
a(S'w'
I1
tp1730
a(S'p1_ll'
I8
tp1731
a(S'w'
I3
tp1732
a(S'tr_tl'
I240
tp1733
a(S'w'
I1
tp1734
a(S'tr_ll'
I1
tp1735
a(S'w'
I11737
tp1736
a(S'tr_tl'
I226
tp1737
a(S'w'
I1
tp1738
a(S'tr_ll'
I1
tp1739
a(S'w'
I11739
tp1740
a(S'p1_tl'
I226
tp1741
a(S'w'
I1
tp1742
a(S'p1_ll'
I8
tp1743
a(S'p1_th'
I0
tp1744
a(S'w'
I11739
tp1745
a(S'p1_tl'
I240
tp1746
a(S'w'
I1
tp1747
a(S'p1_ll'
I8
tp1748
a(S'w'
I3
tp1749
a(S'tr_tl'
I46
tp1750
a(S'w'
I1
tp1751
a(S'tr_ll'
I1
tp1752
a(S'tr_th'
I1
tp1753
a(S'w'
I11736
tp1754
a(S'p1_tl'
I226
tp1755
a(S'w'
I1
tp1756
a(S'p1_ll'
I8
tp1757
a(S'w'
I8806
tp1758
a(S'tr_tl'
I226
tp1759
a(S'w'
I1
tp1760
a(S'tr_ll'
I1
tp1761
a(S'tr_th'
I0
tp1762
a(S'w'
I2933
tp1763
a(S'p1_tl'
I213
tp1764
a(S'w'
I1
tp1765
a(S'p1_ll'
I8
tp1766
a(S'w'
I8806
tp1767
a(S'tr_ll'
I1
tp1768
a(S'w'
I2933
tp1769
a(S'p1_tl'
I226
tp1770
a(S'w'
I1
tp1771
a(S'p1_ll'
I8
tp1772
a(S'w'
I3
tp1773
a(S'tr_tl'
I46
tp1774
a(S'w'
I1
tp1775
a(S'tr_ll'
I1
tp1776
a(S'tr_th'
I1
tp1777
a(S'w'
I11736
tp1778
a(S'p1_tl'
I240
tp1779
a(S'w'
I1
tp1780
a(S'p1_ll'
I8
tp1781
a(S'w'
I3
tp1782
a(S'tr_tl'
I226
tp1783
a(S'w'
I1
tp1784
a(S'tr_ll'
I1
tp1785
a(S'tr_th'
I0
tp1786
a(S'w'
I8802
tp1787
a(S'tr_tl'
I200
tp1788
a(S'w'
I1
tp1789
a(S'tr_ll'
I1
tp1790
a(S'w'
I2933
tp1791
a(S'p1_tl'
I226
tp1792
a(S'w'
I1
tp1793
a(S'p1_ll'
I8
tp1794
a(S'w'
I3
tp1795
a(S'tr_tl'
I179
tp1796
a(S'w'
I1
tp1797
a(S'tr_ll'
I1
tp1798
a(S'w'
I11735
tp1799
a(S'p1_tl'
I83
tp1800
a(S'w'
I1
tp1801
a(S'p1_ll'
I8
tp1802
a(S'p1_th'
I1
tp1803
a(S'w'
I3
tp1804
a(S'tr_tl'
I169
tp1805
a(S'w'
I1
tp1806
a(S'tr_ll'
I1
tp1807
a(S'w'
I11736
tp1808
a(S'p1_tl'
I151
tp1809
a(S'p1_ll'
I8
tp1810
a(S'p1_th'
I0
tp1811
a(S'w'
I11741
tp1812
a(S'p1_tl'
I169
tp1813
a(S'w'
I1
tp1814
a(S'p1_ll'
I8
tp1815
a(S'w'
I3
tp1816
a(S'tr_tl'
I226
tp1817
a(S'w'
I1
tp1818
a(S'tr_ll'
I1
tp1819
a(S'w'
I11735
tp1820
a(S'p1_tl'
I226
tp1821
a(S'w'
I1
tp1822
a(S'p1_ll'
I8
tp1823
a(S'w'
I8806
tp1824
a(S'tr_tl'
I169
tp1825
a(S'w'
I1
tp1826
a(S'tr_ll'
I1
tp1827
a(S'w'
I2932
tp1828
a(S'p1_vo'
I15
tp1829
a(S'w'
I1
tp1830
a(S'p1_tl'
I29
tp1831
a(S'w'
I1
tp1832
a(S'p1_ll'
I8
tp1833
a(S'p1_th'
I1
tp1834
a(S'w'
I8807
tp1835
a(S'tr_ll'
I1
tp1836
a(S'w'
I2934
tp1837
a(S'tr_tl'
I190
tp1838
a(S'w'
I1
tp1839
a(S'tr_ll'
I1
tp1840
a(S'w'
I11739
tp1841
a(S'tr_tl'
I200
tp1842
a(S'w'
I1
tp1843
a(S'tr_ll'
I1
tp1844
a(S'w'
I8806
tp1845
a(S'tr_ll'
I1
tp1846
a(S'w'
I2934
tp1847
a(S'tr_tl'
I226
tp1848
a(S'w'
I1
tp1849
a(S'tr_ll'
I1
tp1850
a(S'w'
I11740
tp1851
a(S'tr_tl'
I254
tp1852
a(S'w'
I1
tp1853
a(S'tr_ll'
I1
tp1854
a(S'w'
I11737
tp1855
a(S'p1_vo'
I3
tp1856
a(S'w'
I1
tp1857
a(S'p1_tl'
I254
tp1858
a(S'w'
I1
tp1859
a(S'p1_ll'
I8
tp1860
a(S'p1_th'
I0
tp1861
a(S'w'
I11740
tp1862
a(S'p1_tl'
I13
tp1863
a(S'w'
I1
tp1864
a(S'p1_ll'
I8
tp1865
a(S'p1_th'
I1
tp1866
a(S'w'
I3
tp1867
a(S'tr_tl'
I83
tp1868
a(S'w'
I1
tp1869
a(S'tr_ll'
I1
tp1870
a(S'tr_th'
I1
tp1871
a(S'w'
I11736
tp1872
a(S'p1_tl'
I254
tp1873
a(S'w'
I1
tp1874
a(S'p1_ll'
I8
tp1875
a(S'p1_th'
I0
tp1876
a(S'w'
I8805
tp1877
a(S'tr_tl'
I254
tp1878
a(S'w'
I1
tp1879
a(S'tr_ll'
I1
tp1880
a(S'tr_th'
I0
tp1881
a(S'w'
I2933
tp1882
a(S'p1_tl'
I226
tp1883
a(S'w'
I1
tp1884
a(S'p1_ll'
I8
tp1885
a(S'w'
I8807
tp1886
a(S'tr_ll'
I1
tp1887
a(S'w'
I2933
tp1888
a(S'p1_tl'
I254
tp1889
a(S'w'
I1
tp1890
a(S'p1_ll'
I8
tp1891
a(S'w'
I3
tp1892
a(S'tr_tl'
I83
tp1893
a(S'w'
I1
tp1894
a(S'tr_ll'
I1
tp1895
a(S'tr_th'
I1
tp1896
a(S'w'
I11736
tp1897
a(S'p1_tl'
I226
tp1898
a(S'p1_ll'
I8
tp1899
a(S'w'
I4
tp1900
a(S'tr_tl'
I254
tp1901
a(S'w'
I1
tp1902
a(S'tr_ll'
I1
tp1903
a(S'tr_th'
I0
tp1904
a(S'w'
I8801
tp1905
a(S'tr_tl'
I226
tp1906
a(S'w'
I1
tp1907
a(S'tr_ll'
I1
tp1908
a(S'w'
I2933
tp1909
a(S'p1_tl'
I200
tp1910
a(S'w'
I1
tp1911
a(S'p1_ll'
I8
tp1912
a(S'w'
I3
tp1913
a(S'tr_tl'
I200
tp1914
a(S'w'
I1
tp1915
a(S'tr_ll'
I1
tp1916
a(S'w'
I11736
tp1917
a(S'p1_tl'
I125
tp1918
a(S'w'
I1
tp1919
a(S'p1_ll'
I8
tp1920
a(S'p1_th'
I1
tp1921
a(S'w'
I3
tp1922
a(S'tr_tl'
I190
tp1923
a(S'w'
I1
tp1924
a(S'tr_ll'
I1
tp1925
a(S'w'
I11736
tp1926
a(S'p1_tl'
I190
tp1927
a(S'w'
I1
tp1928
a(S'p1_ll'
I8
tp1929
a(S'p1_th'
I0
tp1930
a(S'w'
I11739
tp1931
a(S'p1_tl'
I213
tp1932
a(S'p1_ll'
I8
tp1933
a(S'w'
I11741
tp1934
a(S'p1_tl'
I226
tp1935
a(S'w'
I1
tp1936
a(S'p1_ll'
I8
tp1937
a(S'w'
I11740
tp1938
a(S'p1_tl'
I254
tp1939
a(S'w'
I1
tp1940
a(S'p1_ll'
I8
tp1941
a(S'w'
I23479
tp1942
a(S'p1_vo'
I13
tp1943
a(S'w'
I1
tp1944
a(S'p1_tl'
I240
tp1945
a(S'w'
I1
tp1946
a(S'p1_ll'
I8
tp1947
a(S'w'
I4
tp1948
a(S'tr_ll'
I1
tp1949
a(S'w'
I23477
tp1950
a(S'tr_tl'
I226
tp1951
a(S'w'
I1
tp1952
a(S'tr_ll'
I1
tp1953
a(S'w'
I11738
tp1954
a(S'p1_vo'
I3
tp1955
a(S'w'
I1
tp1956
a(S'p1_tl'
I226
tp1957
a(S'w'
I1
tp1958
a(S'p1_ll'
I8
tp1959
a(S'w'
I11740
tp1960
a(S'p1_tl'
I240
tp1961
a(S'w'
I1
tp1962
a(S'p1_ll'
I8
tp1963
a(S'w'
I3
tp1964
a(S'tr_tl'
I46
tp1965
a(S'w'
I1
tp1966
a(S'tr_ll'
I1
tp1967
a(S'tr_th'
I1
tp1968
a(S'w'
I11735
tp1969
a(S'p1_tl'
I226
tp1970
a(S'w'
I1
tp1971
a(S'p1_ll'
I8
tp1972
a(S'w'
I8806
tp1973
a(S'tr_tl'
I226
tp1974
a(S'w'
I1
tp1975
a(S'tr_ll'
I1
tp1976
a(S'tr_th'
I0
tp1977
a(S'w'
I2933
tp1978
a(S'p1_tl'
I213
tp1979
a(S'w'
I1
tp1980
a(S'p1_ll'
I8
tp1981
a(S'w'
I8807
tp1982
a(S'tr_ll'
I1
tp1983
a(S'w'
I2933
tp1984
a(S'p1_tl'
I226
tp1985
a(S'w'
I1
tp1986
a(S'p1_ll'
I8
tp1987
a(S'w'
I3
tp1988
a(S'tr_tl'
I213
tp1989
a(S'w'
I1
tp1990
a(S'tr_ll'
I1
tp1991
a(S'w'
I11735
tp1992
a(S'p1_tl'
I240
tp1993
a(S'w'
I1
tp1994
a(S'p1_ll'
I8
tp1995
a(S'w'
I3
tp1996
a(S'tr_tl'
I226
tp1997
a(S'w'
I1
tp1998
a(S'tr_ll'
I1
tp1999
a(S'w'
I8803
tp2000
a(S'tr_ll'
I1
tp2001
a(S'w'
I2933
tp2002
a(S'p1_tl'
I226
tp2003
a(S'p1_ll'
I8
tp2004
a(S'w'
I4
tp2005
a(S'tr_tl'
I254
tp2006
a(S'w'
I1
tp2007
a(S'tr_ll'
I1
tp2008
a(S'w'
I11737
tp2009
a(S'tr_tl'
I29
tp2010
a(S'w'
I1
tp2011
a(S'tr_ll'
I1
tp2012
a(S'tr_th'
I1
tp2013
a(S'w'
I11738
tp2014
a(S'p1_tl'
I29
tp2015
a(S'w'
I1
tp2016
a(S'p1_ll'
I8
tp2017
a(S'p1_th'
I1
tp2018
a(S'w'
I11740
tp2019
a(S'p1_tl'
I226
tp2020
a(S'w'
I1
tp2021
a(S'p1_ll'
I8
tp2022
a(S'p1_th'
I0
tp2023
a(S'w'
I3
tp2024
a(S'tr_tl'
I226
tp2025
a(S'w'
I1
tp2026
a(S'tr_ll'
I1
tp2027
a(S'tr_th'
I0
tp2028
a(S'w'
I11736
tp2029
a(S'p1_tl'
I190
tp2030
a(S'w'
I1
tp2031
a(S'p1_ll'
I8
tp2032
a(S'w'
I3
tp2033
a(S'tr_tl'
I190
tp2034
a(S'w'
I1
tp2035
a(S'tr_ll'
I1
tp2036
a(S'w'
I11735
tp2037
a(S'p1_tl'
I151
tp2038
a(S'w'
I1
tp2039
a(S'p1_ll'
I8
tp2040
a(S'w'
I3
tp2041
a(S'tr_tl'
I169
tp2042
a(S'w'
I1
tp2043
a(S'tr_ll'
I1
tp2044
a(S'w'
I8801
tp2045
a(S'p1_tl'
I169
tp2046
a(S'p1_ll'
I8
tp2047
a(S'w'
I2935
tp2048
a(S'p1_tl'
I151
tp2049
a(S'w'
I1
tp2050
a(S'p1_ll'
I8
tp2051
a(S'w'
I3
tp2052
a(S'tr_tl'
I134
tp2053
a(S'w'
I1
tp2054
a(S'tr_ll'
I1
tp2055
a(S'w'
I8801
tp2056
a(S'p1_tl'
I169
tp2057
a(S'w'
I1
tp2058
a(S'p1_ll'
I8
tp2059
a(S'w'
I11739
tp2060
a(S'w'
I1
tp2061
a(S'p1_ll'
I8
tp2062
a(S'w'
I2934
tp2063
a(S'p1_tl'
I179
tp2064
a(S'w'
I1
tp2065
a(S'p1_ll'
I8
tp2066
a(S'w'
I3
tp2067
a(S'tr_tl'
I169
tp2068
a(S'w'
I1
tp2069
a(S'tr_ll'
I1
tp2070
a(S'w'
I8801
tp2071
a(S'p1_tl'
I169
tp2072
a(S'w'
I1
tp2073
a(S'p1_ll'
I8
tp2074
a(S'w'
I2935
tp2075
a(S'tr_tl'
I213
tp2076
a(S'w'
I1
tp2077
a(S'tr_ll'
I1
tp2078
a(S'w'
I11738
tp2079
a(S'p1_lh'
I1
tp2080
a(S'p1_cv'
I1
tp2081
a(S'p1_vo'
I12
tp2082
a(S'w'
I1
tp2083
a(S'p1_tl'
I142
tp2084
a(S'w'
I1
tp2085
a(S'p1_ll'
I8
tp2086
a(S'w'
I4
tp2087
a(S'tr_ll'
I1
tp2088
a(S'w'
I11737
tp2089
a(S'tr_ll'
I1
tp2090
a(S'w'
I11738
tp2091
a(S'p1_lh'
I0
tp2092
a(S'p1_cv'
I0
tp2093
a(S'p1_vo'
I3
tp2094
a(S'w'
I1
tp2095
a(S'p1_tl'
I169
tp2096
a(S'w'
I1
tp2097
a(S'p1_ll'
I8
tp2098
a(S'w'
I4
tp2099
a(S'tr_ll'
I1
tp2100
a(S'w'
I8801
tp2101
a(S'p1_tl'
I226
tp2102
a(S'w'
I1
tp2103
a(S'p1_ll'
I8
tp2104
a(S'w'
I2934
tp2105
a(S'p1_tl'
I190
tp2106
a(S'p1_ll'
I8
tp2107
a(S'w'
I4
tp2108
a(S'tr_tl'
I190
tp2109
a(S'w'
I1
tp2110
a(S'tr_ll'
I1
tp2111
a(S'w'
I8800
tp2112
a(S'p1_tl'
I169
tp2113
a(S'w'
I1
tp2114
a(S'p1_ll'
I8
tp2115
a(S'w'
I2934
tp2116
a(S'p1_tl'
I226
tp2117
a(S'p1_ll'
I8
tp2118
a(S'w'
I5
tp2119
a(S'tr_ll'
I1
tp2120
a(S'w'
I8801
tp2121
a(S'p1_tl'
I190
tp2122
a(S'w'
I1
tp2123
a(S'p1_ll'
I8
tp2124
a(S'w'
I2934
tp2125
a(S'p1_tl'
I169
tp2126
a(S'w'
I1
tp2127
a(S'p1_ll'
I8
tp2128
a(S'w'
I4
tp2129
a(S'tr_ll'
I1
tp2130
a(S'w'
I8801
tp2131
a(S'p1_tl'
I240
tp2132
a(S'w'
I1
tp2133
a(S'p1_ll'
I8
tp2134
a(S'w'
I2934
tp2135
a(S'p1_tl'
I226
tp2136
a(S'w'
I1
tp2137
a(S'p1_ll'
I8
tp2138
a(S'w'
I4
tp2139
a(S'tr_ll'
I1
tp2140
a(S'w'
I8800
tp2141
a(S'p1_tl'
I29
tp2142
a(S'w'
I1
tp2143
a(S'p1_ll'
I8
tp2144
a(S'p1_th'
I1
tp2145
a(S'w'
I2935
tp2146
a(S'tr_tl'
I125
tp2147
a(S'w'
I1
tp2148
a(S'tr_ll'
I1
tp2149
a(S'tr_th'
I1
tp2150
a(S'w'
I11739
tp2151
a(S'p1_tl'
I46
tp2152
a(S'w'
I1
tp2153
a(S'p1_ll'
I8
tp2154
a(S'w'
I4
tp2155
a(S'tr_ll'
I1
tp2156
a(S'w'
I11736
tp2157
a(S'p1_tl'
I83
tp2158
a(S'w'
I1
tp2159
a(S'p1_ll'
I8
tp2160
a(S'w'
I3
tp2161
a(S'tr_tl'
I83
tp2162
a(S'w'
I1
tp2163
a(S'tr_ll'
I1
tp2164
a(S'w'
I11735
tp2165
a(S'p1_tl'
I125
tp2166
a(S'w'
I1
tp2167
a(S'p1_ll'
I8
tp2168
a(S'w'
I3
tp2169
a(S'tr_tl'
I46
tp2170
a(S'w'
I1
tp2171
a(S'tr_ll'
I1
tp2172
a(S'w'
I11736
tp2173
a(S'p1_tl'
I29
tp2174
a(S'w'
I1
tp2175
a(S'p1_ll'
I8
tp2176
a(S'w'
I3
tp2177
a(S'tr_tl'
I29
tp2178
a(S'w'
I1
tp2179
a(S'tr_ll'
I1
tp2180
a(S'w'
I20541
tp2181
a(S'w'
I1
tp2182
a(S'p1_ll'
I8
tp2183
a(S'w'
I4
tp2184
a(S'tr_ll'
I1
tp2185
a(S'w'
I26412
tp2186
a(S'p1_tl'
I103
tp2187
a(S'w'
I1
tp2188
a(S'p1_ll'
I8
tp2189
a(S'w'
I3
tp2190
a(S'tr_tl'
I83
tp2191
a(S'w'
I1
tp2192
a(S'tr_ll'
I1
tp2193
a(S'w'
I11735
tp2194
a(S'p1_tl'
I226
tp2195
a(S'w'
I1
tp2196
a(S'p1_ll'
I8
tp2197
a(S'p1_th'
I0
tp2198
a(S'w'
I11740
tp2199
a(S'p1_tl'
I240
tp2200
a(S'p1_ll'
I8
tp2201
a(S'w'
I4
tp2202
a(S'tr_tl'
I197
tp2203
a(S'w'
I1
tp2204
a(S'tr_ll'
I1
tp2205
a(S'w'
I11736
tp2206
a(S'p1_tl'
I226
tp2207
a(S'w'
I1
tp2208
a(S'p1_ll'
I8
tp2209
a(S'w'
I8805
tp2210
a(S'tr_tl'
I83
tp2211
a(S'w'
I1
tp2212
a(S'tr_ll'
I1
tp2213
a(S'w'
I2932
tp2214
a(S'p1_lh'
I1
tp2215
a(S'p1_vo'
I0
tp2216
a(S'w'
I1
tp2217
a(S'p1_tl'
I213
tp2218
a(S'w'
I1
tp2219
a(S'p1_ll'
I8
tp2220
a(S'w'
I8807
tp2221
a(S'tr_ll'
I1
tp2222
a(S'w'
I2934
tp2223
a(S'tr_tl'
I197
tp2224
a(S'w'
I1
tp2225
a(S'tr_ll'
I1
tp2226
a(S'w'
I8804
tp2227
a(S'p1_tl'
I226
tp2228
a(S'w'
I1
tp2229
a(S'p1_ll'
I8
tp2230
a(S'w'
I2935
tp2231
a(S'tr_tl'
I83
tp2232
a(S'w'
I1
tp2233
a(S'tr_ll'
I1
tp2234
a(S'w'
I8804
tp2235
a(S'tr_tl'
I46
tp2236
a(S'w'
I1
tp2237
a(S'tr_ll'
I1
tp2238
a(S'w'
I2934
tp2239
a(S'tr_tl'
I13
tp2240
a(S'w'
I1
tp2241
a(S'tr_ll'
I1
tp2242
a(S'w'
I11738
tp2243
a(S'p1_lh'
I0
tp2244
a(S'p1_vo'
I3
tp2245
a(S'w'
I1
tp2246
a(S'p1_tl'
I254
tp2247
a(S'w'
I1
tp2248
a(S'p1_ll'
I8
tp2249
a(S'w'
I3
tp2250
a(S'tr_tl'
I254
tp2251
a(S'w'
I1
tp2252
a(S'tr_ll'
I1
tp2253
a(S'tr_th'
I0
tp2254
a(S'w'
I11736
tp2255
a(S'p1_tl'
I226
tp2256
a(S'w'
I1
tp2257
a(S'p1_ll'
I8
tp2258
a(S'w'
I11739
tp2259
a(S'p1_tl'
I254
tp2260
a(S'w'
I1
tp2261
a(S'p1_ll'
I8
tp2262
a(S'w'
I3
tp2263
a(S'tr_tl'
I83
tp2264
a(S'w'
I1
tp2265
a(S'tr_ll'
I1
tp2266
a(S'tr_th'
I1
tp2267
a(S'w'
I8801
tp2268
a(S'p1_tl'
I29
tp2269
a(S'p1_ll'
I8
tp2270
a(S'p1_th'
I1
tp2271
a(S'w'
I2935
tp2272
a(S'p1_tl'
I83
tp2273
a(S'w'
I1
tp2274
a(S'p1_ll'
I8
tp2275
a(S'w'
I8804
tp2276
a(S'p1_lh'
I1
tp2277
a(S'p1_vo'
I0
tp2278
a(S'w'
I1
tp2279
a(S'p1_tl'
I254
tp2280
a(S'w'
I1
tp2281
a(S'p1_ll'
I8
tp2282
a(S'p1_th'
I0
tp2283
a(S'w'
I3
tp2284
a(S'tr_tl'
I254
tp2285
a(S'w'
I1
tp2286
a(S'tr_ll'
I1
tp2287
a(S'tr_th'
I0
tp2288
a(S'w'
I11737
tp2289
a(S'tr_ll'
I1
tp2290
a(S'w'
I2934
tp2291
a(S'tr_tl'
I29
tp2292
a(S'w'
I1
tp2293
a(S'tr_ll'
I1
tp2294
a(S'tr_th'
I1
tp2295
a(S'w'
I11740
tp2296
a(S'tr_tl'
I46
tp2297
a(S'w'
I1
tp2298
a(S'tr_ll'
I1
tp2299
a(S'w'
I11740
tp2300
a(S'tr_tl'
I83
tp2301
a(S'w'
I1
tp2302
a(S'tr_ll'
I1
tp2303
a(S'w'
I11737
tp2304
a(S'p1_lh'
I0
tp2305
a(S'p1_vo'
I3
tp2306
a(S'w'
I1
tp2307
a(S'p1_tl'
I125
tp2308
a(S'w'
I1
tp2309
a(S'p1_ll'
I8
tp2310
a(S'p1_th'
I1
tp2311
a(S'w'
I3
tp2312
a(S'tr_tl'
I125
tp2313
a(S'w'
I1
tp2314
a(S'tr_ll'
I1
tp2315
a(S'w'
I11736
tp2316
a(S'p1_tl'
I254
tp2317
a(S'w'
I1
tp2318
a(S'p1_ll'
I8
tp2319
a(S'p1_th'
I0
tp2320
a(S'w'
I11740
tp2321
a(S'p1_tl'
I13
tp2322
a(S'p1_ll'
I8
tp2323
a(S'p1_th'
I1
tp2324
a(S'w'
I4
tp2325
a(S'tr_tl'
I252
tp2326
a(S'w'
I1
tp2327
a(S'tr_ll'
I1
tp2328
a(S'w'
I11735
tp2329
a(S'p1_tl'
I254
tp2330
a(S'p1_ll'
I8
tp2331
a(S'p1_th'
I0
tp2332
a(S'w'
I8807
tp2333
a(S'tr_tl'
I125
tp2334
a(S'w'
I1
tp2335
a(S'tr_ll'
I1
tp2336
a(S'w'
I2932
tp2337
a(S'p1_lh'
I1
tp2338
a(S'p1_vo'
I0
tp2339
a(S'w'
I1
tp2340
a(S'p1_tl'
I226
tp2341
a(S'w'
I1
tp2342
a(S'p1_ll'
I8
tp2343
a(S'w'
I8807
tp2344
a(S'tr_ll'
I1
tp2345
a(S'w'
I2934
tp2346
a(S'tr_tl'
I252
tp2347
a(S'w'
I1
tp2348
a(S'tr_ll'
I1
tp2349
a(S'w'
I8803
tp2350
a(S'p1_tl'
I254
tp2351
a(S'w'
I1
tp2352
a(S'p1_ll'
I8
tp2353
a(S'w'
I2935
tp2354
a(S'tr_tl'
I125
tp2355
a(S'w'
I1
tp2356
a(S'tr_ll'
I1
tp2357
a(S'w'
I8805
tp2358
a(S'tr_tl'
I83
tp2359
a(S'w'
I1
tp2360
a(S'tr_ll'
I1
tp2361
a(S'w'
I2934
tp2362
a(S'tr_tl'
I46
tp2363
a(S'w'
I1
tp2364
a(S'tr_ll'
I1
tp2365
a(S'w'
I11738
tp2366
a(S'p1_lh'
I0
tp2367
a(S'p1_vo'
I3
tp2368
a(S'w'
I1
tp2369
a(S'p1_tl'
I29
tp2370
a(S'w'
I1
tp2371
a(S'p1_ll'
I8
tp2372
a(S'p1_th'
I1
tp2373
a(S'w'
I3
tp2374
a(S'tr_tl'
I29
tp2375
a(S'w'
I1
tp2376
a(S'tr_ll'
I1
tp2377
a(S'w'
I11735
tp2378
a(S'p1_tl'
I254
tp2379
a(S'w'
I1
tp2380
a(S'p1_ll'
I8
tp2381
a(S'p1_th'
I0
tp2382
a(S'w'
I11740
tp2383
a(S'p1_tl'
I29
tp2384
a(S'w'
I1
tp2385
a(S'p1_ll'
I8
tp2386
a(S'p1_th'
I1
tp2387
a(S'w'
I3
tp2388
a(S'tr_tl'
I125
tp2389
a(S'w'
I1
tp2390
a(S'tr_ll'
I1
tp2391
a(S'w'
I8801
tp2392
a(S'p1_tl'
I83
tp2393
a(S'w'
I1
tp2394
a(S'p1_ll'
I8
tp2395
a(S'w'
I11738
tp2396
a(S'p1_lh'
I1
tp2397
a(S'p1_vo'
I0
tp2398
a(S'w'
I1
tp2399
a(S'p1_tl'
I125
tp2400
a(S'w'
I1
tp2401
a(S'p1_ll'
I8
tp2402
a(S'w'
I3
tp2403
a(S'tr_tl'
I29
tp2404
a(S'w'
I1
tp2405
a(S'tr_ll'
I1
tp2406
a(S'w'
I11738
tp2407
a(S'tr_ll'
I1
tp2408
a(S'w'
I2934
tp2409
a(S'tr_tl'
I125
tp2410
a(S'w'
I1
tp2411
a(S'tr_ll'
I1
tp2412
a(S'w'
I11740
tp2413
a(S'tr_tl'
I144
tp2414
a(S'w'
I1
tp2415
a(S'tr_ll'
I1
tp2416
a(S'w'
I11739
tp2417
a(S'tr_tl'
I171
tp2418
a(S'w'
I1
tp2419
a(S'tr_ll'
I1
tp2420
a(S'w'
I11738
tp2421
a(S'p1_lh'
I0
tp2422
a(S'p1_vo'
I3
tp2423
a(S'w'
I1
tp2424
a(S'p1_tl'
I197
tp2425
a(S'p1_ll'
I8
tp2426
a(S'w'
I4
tp2427
a(S'tr_tl'
I59
tp2428
a(S'w'
I1
tp2429
a(S'tr_ll'
I1
tp2430
a(S'tr_th'
I2
tp2431
a(S'w'
I8801
tp2432
a(S'p1_tl'
I125
tp2433
a(S'w'
I1
tp2434
a(S'p1_ll'
I8
tp2435
a(S'w'
I2934
tp2436
a(S'p1_tl'
I29
tp2437
a(S'w'
I1
tp2438
a(S'p1_ll'
I8
tp2439
a(S'w'
I3
tp2440
a(S'tr_tl'
I29
tp2441
a(S'w'
I1
tp2442
a(S'tr_ll'
I1
tp2443
a(S'tr_th'
I1
tp2444
a(S'w'
I8800
tp2445
a(S'p1_tl'
I197
tp2446
a(S'w'
I1
tp2447
a(S'p1_ll'
I8
tp2448
a(S'w'
I2934
tp2449
a(S'p1_tl'
I125
tp2450
a(S'w'
I1
tp2451
a(S'p1_ll'
I8
tp2452
a(S'w'
I3
tp2453
a(S'tr_tl'
I59
tp2454
a(S'w'
I1
tp2455
a(S'tr_ll'
I1
tp2456
a(S'tr_th'
I2
tp2457
a(S'w'
I8801
tp2458
a(S'p1_tl'
I29
tp2459
a(S'w'
I1
tp2460
a(S'p1_ll'
I8
tp2461
a(S'w'
I2934
tp2462
a(S'p1_tl'
I197
tp2463
a(S'w'
I1
tp2464
a(S'p1_ll'
I8
tp2465
a(S'w'
I3
tp2466
a(S'tr_tl'
I29
tp2467
a(S'w'
I1
tp2468
a(S'tr_ll'
I1
tp2469
a(S'tr_th'
I1
tp2470
a(S'w'
I8801
tp2471
a(S'p1_tl'
I29
tp2472
a(S'w'
I1
tp2473
a(S'p1_ll'
I8
tp2474
a(S'w'
I2934
tp2475
a(S'p1_tl'
I171
tp2476
a(S'w'
I1
tp2477
a(S'p1_ll'
I8
tp2478
a(S'w'
I3
tp2479
a(S'tr_tl'
I252
tp2480
a(S'w'
I1
tp2481
a(S'tr_ll'
I1
tp2482
a(S'w'
I8800
tp2483
a(S'p1_tl'
I83
tp2484
a(S'w'
I1
tp2485
a(S'p1_ll'
I8
tp2486
a(S'w'
I2934
tp2487
a(S'p1_tl'
I29
tp2488
a(S'w'
I1
tp2489
a(S'p1_ll'
I8
tp2490
a(S'w'
I3
tp2491
a(S'tr_tl'
I254
tp2492
a(S'w'
I1
tp2493
a(S'tr_ll'
I1
tp2494
a(S'tr_th'
I0
tp2495
a(S'w'
I8801
tp2496
a(S'p1_tl'
I144
tp2497
a(S'p1_ll'
I8
tp2498
a(S'w'
I2935
tp2499
a(S'p1_tl'
I83
tp2500
a(S'w'
I1
tp2501
a(S'p1_ll'
I8
tp2502
a(S'w'
I3
tp2503
a(S'tr_tl'
I224
tp2504
a(S'w'
I1
tp2505
a(S'tr_ll'
I1
tp2506
a(S'tr_th'
I1
tp2507
a(S'w'
I8801
tp2508
a(S'p1_tl'
I29
tp2509
a(S'w'
I1
tp2510
a(S'p1_ll'
I8
tp2511
a(S'w'
I2934
tp2512
a(S'p1_tl'
I144
tp2513
a(S'w'
I1
tp2514
a(S'p1_ll'
I8
tp2515
a(S'w'
I3
tp2516
a(S'tr_tl'
I240
tp2517
a(S'w'
I1
tp2518
a(S'tr_ll'
I1
tp2519
a(S'tr_th'
I0
tp2520
a(S'w'
I8800
tp2521
a(S'p1_tl'
I29
tp2522
a(S'w'
I1
tp2523
a(S'p1_ll'
I8
tp2524
a(S'w'
I2934
tp2525
a(S'w'
I1
tp2526
a(S'p1_ll'
I8
tp2527
a(S'w'
I8805
tp2528
a(S'p1_tl'
I254
tp2529
a(S'w'
I1
tp2530
a(S'p1_ll'
I8
tp2531
a(S'p1_th'
I0
tp2532
a(S'w'
I2934
tp2533
a(S'p1_tl'
I226
tp2534
a(S'w'
I1
tp2535
a(S'p1_ll'
I8
tp2536
a(S'w'
I8805
tp2537
a(S'p1_tl'
I29
tp2538
a(S'w'
I1
tp2539
a(S'p1_ll'
I8
tp2540
a(S'p1_th'
I1
tp2541
a(S'w'
I2934
tp2542
a(S'p1_tl'
I83
tp2543
a(S'w'
I1
tp2544
a(S'p1_ll'
I8
tp2545
a(S'w'
I11739
tp2546
a(S'p1_tl'
I125
tp2547
a(S'w'
I1
tp2548
a(S'p1_ll'
I8
tp2549
a(S'w'
I11740
tp2550
a(S'w'
I1
tp2551
a(S'p1_ll'
I8
tp2552
a(S'w'
I8805
tp2553
a(S'p1_tl'
I83
tp2554
a(S'w'
I1
tp2555
a(S'p1_ll'
I8
tp2556
a(S'w'
I2934
tp2557
a(S'p1_tl'
I46
tp2558
a(S'p1_ll'
I8
tp2559
a(S'w'
I4
tp2560
a(S'tr_tl'
I125
tp2561
a(S'w'
I1
tp2562
a(S'tr_ll'
I1
tp2563
a(S'tr_th'
I1
tp2564
a(S'w'
I11735
tp2565
a(S'p1_tl'
I29
tp2566
a(S'p1_ll'
I8
tp2567
a(S'w'
I4
tp2568
a(S'tr_tl'
I29
tp2569
a(S'w'
I1
tp2570
a(S'tr_ll'
I1
tp2571
a(S'w'
I23477
tp2572
a(S'p1_tl'
I59
tp2573
a(S'w'
I1
tp2574
a(S'p1_ll'
I8
tp2575
a(S'p1_th'
I2
tp2576
a(S'w'
I3
tp2577
a(S'tr_tl'
I59
tp2578
a(S'w'
I1
tp2579
a(S'tr_ll'
I1
tp2580
a(S'tr_th'
I2
tp2581
a(S'w'
I8800
tp2582
a(S'p1_tl'
I252
tp2583
a(S'w'
I1
tp2584
a(S'p1_ll'
I8
tp2585
a(S'p1_th'
I1
tp2586
a(S'w'
I2934
tp2587
a(S'p1_tl'
I197
tp2588
a(S'w'
I1
tp2589
a(S'p1_ll'
I8
tp2590
a(S'w'
I3
tp2591
a(S'tr_tl'
I29
tp2592
a(S'w'
I1
tp2593
a(S'tr_ll'
I1
tp2594
a(S'tr_th'
I1
tp2595
a(S'w'
I8801
tp2596
a(S'p1_tl'
I59
tp2597
a(S'w'
I1
tp2598
a(S'p1_ll'
I8
tp2599
a(S'p1_th'
I2
tp2600
a(S'w'
I2934
tp2601
a(S'p1_tl'
I252
tp2602
a(S'w'
I1
tp2603
a(S'p1_ll'
I8
tp2604
a(S'p1_th'
I1
tp2605
a(S'w'
I3
tp2606
a(S'tr_tl'
I252
tp2607
a(S'w'
I1
tp2608
a(S'tr_ll'
I1
tp2609
a(S'w'
I8801
tp2610
a(S'p1_tl'
I197
tp2611
a(S'p1_ll'
I8
tp2612
a(S'w'
I2935
tp2613
a(S'p1_tl'
I171
tp2614
a(S'w'
I1
tp2615
a(S'p1_ll'
I8
tp2616
a(S'w'
I3
tp2617
a(S'tr_tl'
I254
tp2618
a(S'w'
I1
tp2619
a(S'tr_ll'
I1
tp2620
a(S'tr_th'
I0
tp2621
a(S'w'
I8800
tp2622
a(S'p1_tl'
I252
tp2623
a(S'w'
I1
tp2624
a(S'p1_ll'
I8
tp2625
a(S'w'
I2934
tp2626
a(S'p1_tl'
I197
tp2627
a(S'w'
I1
tp2628
a(S'p1_ll'
I8
tp2629
a(S'w'
I3
tp2630
a(S'tr_tl'
I197
tp2631
a(S'w'
I1
tp2632
a(S'tr_ll'
I1
tp2633
a(S'tr_th'
I1
tp2634
a(S'w'
I8801
tp2635
a(S'p1_tl'
I171
tp2636
a(S'w'
I1
tp2637
a(S'p1_ll'
I8
tp2638
a(S'w'
I2934
tp2639
a(S'p1_tl'
I125
tp2640
a(S'w'
I1
tp2641
a(S'p1_ll'
I8
tp2642
a(S'w'
I3
tp2643
a(S'tr_tl'
I226
tp2644
a(S'w'
I1
tp2645
a(S'tr_ll'
I1
tp2646
a(S'tr_th'
I0
tp2647
a(S'w'
I8801
tp2648
a(S'p1_tl'
I197
tp2649
a(S'w'
I1
tp2650
a(S'p1_ll'
I8
tp2651
a(S'w'
I2934
tp2652
a(S'p1_tl'
I171
tp2653
a(S'w'
I1
tp2654
a(S'p1_ll'
I8
tp2655
a(S'w'
I3
tp2656
a(S'tr_tl'
I171
tp2657
a(S'w'
I1
tp2658
a(S'tr_ll'
I1
tp2659
a(S'tr_th'
I1
tp2660
a(S'w'
I8800
tp2661
a(S'p1_tl'
I125
tp2662
a(S'p1_ll'
I8
tp2663
a(S'w'
I2935
tp2664
a(S'p1_tl'
I83
tp2665
a(S'w'
I1
tp2666
a(S'p1_ll'
I8
tp2667
a(S'w'
I3
tp2668
a(S'tr_tl'
I213
tp2669
a(S'w'
I1
tp2670
a(S'tr_ll'
I1
tp2671
a(S'tr_th'
I0
tp2672
a(S'w'
I8801
tp2673
a(S'p1_tl'
I171
tp2674
a(S'w'
I1
tp2675
a(S'p1_ll'
I8
tp2676
a(S'w'
I2934
tp2677
a(S'p1_tl'
I125
tp2678
a(S'w'
I1
tp2679
a(S'p1_ll'
I8
tp2680
a(S'w'
I3
tp2681
a(S'tr_tl'
I125
tp2682
a(S'w'
I1
tp2683
a(S'tr_ll'
I1
tp2684
a(S'tr_th'
I1
tp2685
a(S'w'
I8801
tp2686
a(S'p1_tl'
I83
tp2687
a(S'w'
I1
tp2688
a(S'p1_ll'
I8
tp2689
a(S'w'
I2934
tp2690
a(S'p1_tl'
I46
tp2691
a(S'w'
I1
tp2692
a(S'p1_ll'
I8
tp2693
a(S'w'
I3
tp2694
a(S'tr_tl'
I190
tp2695
a(S'w'
I1
tp2696
a(S'tr_ll'
I1
tp2697
a(S'tr_th'
I0
tp2698
a(S'w'
I8800
tp2699
a(S'p1_tl'
I125
tp2700
a(S'w'
I1
tp2701
a(S'p1_ll'
I8
tp2702
a(S'w'
I2934
tp2703
a(S'p1_tl'
I83
tp2704
a(S'w'
I1
tp2705
a(S'p1_ll'
I8
tp2706
a(S'w'
I3
tp2707
a(S'tr_tl'
I83
tp2708
a(S'w'
I1
tp2709
a(S'tr_ll'
I1
tp2710
a(S'tr_th'
I1
tp2711
a(S'w'
I8801
tp2712
a(S'p1_tl'
I46
tp2713
a(S'w'
I1
tp2714
a(S'p1_ll'
I8
tp2715
a(S'w'
I2934
tp2716
a(S'p1_tl'
I29
tp2717
a(S'w'
I1
tp2718
a(S'p1_ll'
I8
tp2719
a(S'w'
I3
tp2720
a(S'tr_tl'
I169
tp2721
a(S'w'
I1
tp2722
a(S'tr_ll'
I1
tp2723
a(S'tr_th'
I0
tp2724
a(S'w'
I8801
tp2725
a(S'p1_tl'
I254
tp2726
a(S'w'
I1
tp2727
a(S'p1_ll'
I8
tp2728
a(S'p1_th'
I0
tp2729
a(S'w'
I2934
tp2730
a(S'p1_tl'
I226
tp2731
a(S'w'
I1
tp2732
a(S'p1_ll'
I8
tp2733
a(S'w'
I3
tp2734
a(S'tr_tl'
I46
tp2735
a(S'w'
I1
tp2736
a(S'tr_ll'
I1
tp2737
a(S'tr_th'
I1
tp2738
a(S'w'
I11735
tp2739
a(S'p1_tl'
I240
tp2740
a(S'w'
I1
tp2741
a(S'p1_ll'
I8
tp2742
a(S'w'
I4
tp2743
a(S'tr_ll'
I1
tp2744
a(S'w'
I8801
tp2745
a(S'p1_tl'
I226
tp2746
a(S'w'
I1
tp2747
a(S'p1_ll'
I8
tp2748
a(S'w'
I2934
tp2749
a(S'p1_tl'
I240
tp2750
a(S'p1_ll'
I8
tp2751
a(S'w'
I4
tp2752
a(S'tr_tl'
I103
tp2753
a(S'w'
I1
tp2754
a(S'tr_ll'
I1
tp2755
a(S'w'
I8801
tp2756
a(S'p1_tl'
I226
tp2757
a(S'w'
I1
tp2758
a(S'p1_ll'
I8
tp2759
a(S'w'
I2934
tp2760
a(S'p1_tl'
I240
tp2761
a(S'w'
I1
tp2762
a(S'p1_ll'
I8
tp2763
a(S'w'
I3
tp2764
a(S'tr_tl'
I197
tp2765
a(S'w'
I1
tp2766
a(S'tr_ll'
I1
tp2767
a(S'w'
I8800
tp2768
a(S'p1_tl'
I226
tp2769
a(S'w'
I1
tp2770
a(S'p1_ll'
I8
tp2771
a(S'w'
I2936
tp2772
a(S'p1_cv'
I1
tp2773
a(S'p1_vo'
I0
tp2774
a(S'w'
I2
tp2775
a(S'tr_lr'
I0
tp2776
a(S'w'
I50486
tp2777
a.