(lp1
(S'clock'
p2
I1789772
tp3
a(S'ch_no'
I1
tp4
a(S'ch_tr'
I1
tp5
a(S'ch_p2'
I1
tp6
a(S'ch_p1'
I1
tp7
a(S'fc_mo'
I1
tp8
a(S'w'
I21
tp9
a(S'p1_cv'
I1
tp10
a(S'w'
I1
tp11
a(S'p2_cv'
I1
tp12
a(S'w'
I1
tp13
a(S'w'
I1
tp14
a(S'w'
I722
tp15
a(S'p1_cv'
I0
tp16
a(S'p1_vo'
I5
tp17
a(S'p1_sp'
I7
tp18
a(S'p1_sn'
I1
tp19
a(S'p1_ss'
I7
tp20
a(S'w'
I1
tp21
a(S'p1_tl'
I29
tp22
a(S'p1_ll'
I8
tp23
a(S'p1_th'
I1
tp24
a(S'w'
I3
tp25
a(S'tr_lr'
I42
tp26
a(S'w'
I1
tp27
a(S'tr_tl'
I95
tp28
a(S'w'
I1
tp29
a(S'tr_ll'
I1
tp30
a(S'w'
I2
tp31
a(S'p2_du'
I2
tp32
a(S'p2_cv'
I0
tp33
a(S'p2_vo'
I6
tp34
a(S'w'
I1
tp35
a(S'p2_sp'
I7
tp36
a(S'p2_sn'
I1
tp37
a(S'p2_ss'
I7
tp38
a(S'p2_tl'
I118
tp39
a(S'w'
I1
tp40
a(S'p2_ll'
I8
tp41
a(S'p2_th'
I4
tp42
a(S'w'
I8797
tp43
a(S'p1_tl'
I190
tp44
a(S'p1_ll'
I8
tp45
a(S'p1_th'
I0
tp46
a(S'w'
I2935
tp47
a(S'p1_tl'
I226
tp48
a(S'p1_ll'
I8
tp49
a(S'w'
I4
tp50
a(S'tr_tl'
I113
tp51
a(S'w'
I1
tp52
a(S'tr_ll'
I1
tp53
a(S'w'
I3
tp54
a(S'p2_tl'
I59
tp55
a(S'w'
I1
tp56
a(S'p2_ll'
I8
tp57
a(S'p2_th'
I2
tp58
a(S'w'
I8796
tp59
a(S'p1_tl'
I29
tp60
a(S'p1_ll'
I8
tp61
a(S'p1_th'
I1
tp62
a(S'w'
I2936
tp63
a(S'p1_tl'
I190
tp64
a(S'p1_ll'
I8
tp65
a(S'p1_th'
I0
tp66
a(S'w'
I4
tp67
a(S'tr_tl'
I142
tp68
a(S'w'
I1
tp69
a(S'tr_ll'
I1
tp70
a(S'w'
I3
tp71
a(S'p2_tl'
I118
tp72
a(S'w'
I1
tp73
a(S'p2_ll'
I8
tp74
a(S'p2_th'
I4
tp75
a(S'w'
I8796
tp76
a(S'p1_tl'
I226
tp77
a(S'p1_ll'
I8
tp78
a(S'w'
I2935
tp79
a(S'p1_tl'
I29
tp80
a(S'p1_ll'
I8
tp81
a(S'p1_th'
I1
tp82
a(S'w'
I4
tp83
a(S'tr_tl'
I169
tp84
a(S'w'
I1
tp85
a(S'tr_ll'
I1
tp86
a(S'w'
I3
tp87
a(S'p2_tl'
I59
tp88
a(S'w'
I1
tp89
a(S'p2_ll'
I8
tp90
a(S'p2_th'
I2
tp91
a(S'w'
I8797
tp92
a(S'p1_tl'
I83
tp93
a(S'p1_ll'
I8
tp94
a(S'w'
I2934
tp95
a(S'p1_lh'
I1
tp96
a(S'p1_vo'
I0
tp97
a(S'w'
I1
tp98
a(S'p1_tl'
I103
tp99
a(S'p1_ll'
I8
tp100
a(S'w'
I4
tp101
a(S'tr_tl'
I213
tp102
a(S'w'
I1
tp103
a(S'tr_ll'
I1
tp104
a(S'w'
I2
tp105
a(S'p2_vo'
I7
tp106
a(S'w'
I1
tp107
a(S'p2_tl'
I27
tp108
a(S'w'
I1
tp109
a(S'p2_ll'
I8
tp110
a(S'w'
I23471
tp111
a(S'p1_lh'
I0
tp112
a(S'p1_vo'
I5
tp113
a(S'w'
I1
tp114
a(S'p1_tl'
I125
tp115
a(S'p1_ll'
I8
tp116
a(S'w'
I4
tp117
a(S'tr_tl'
I254
tp118
a(S'w'
I1
tp119
a(S'tr_ll'
I1
tp120
a(S'w'
I3
tp121
a(S'p2_tl'
I93
tp122
a(S'w'
I1
tp123
a(S'p2_ll'
I8
tp124
a(S'w'
I23481
tp125
a(S'p1_cv'
I1
tp126
a(S'p1_vo'
I0
tp127
a(S'w'
I1
tp128
a(S'p2_du'
I0
tp129
a(S'p2_cv'
I1
tp130
a(S'p2_vo'
I0
tp131
a(S'w'
I1
tp132
a(S'tr_lr'
I0
tp133
a(S'w'
I40485
tp134
a.