(lp1
(S'clock'
p2
I1789772
tp3
a(S'fc_mo'
I1
tp4
a(S'ch_no'
I1
tp5
a(S'ch_tr'
I1
tp6
a(S'ch_p2'
I1
tp7
a(S'ch_p1'
I1
tp8
a(S'p2_sp'
I4
tp9
a(S'p2_ss'
I3
tp10
a(S'w'
I741
tp11
a(S'p1_cv'
I1
tp12
a(S'p1_vo'
I12
tp13
a(S'p1_tl'
I103
tp14
a(S'w'
I1
tp15
a(S'p1_ll'
I5
tp16
a(S'p1_th'
I1
tp17
a(S'w'
I8
tp18
a(S'p2_du'
I2
tp19
a(S'p2_lh'
I1
tp20
a(S'p2_cv'
I1
tp21
a(S'p2_vo'
I6
tp22
a(S'w'
I1
tp23
a(S'p2_tl'
I158
tp24
a(S'p2_ll'
I19
tp25
a(S'p2_th'
I5
tp26
a(S'w'
I4
tp27
a(S'tr_lh'
I1
tp28
a(S'tr_lr'
I31
tp29
a(S'w'
I1
tp30
a(S'tr_tl'
I223
tp31
a(S'tr_ll'
I19
tp32
a(S'tr_th'
I1
tp33
a(S'w'
I4
tp34
a(S'no_cv'
I1
tp35
a(S'w'
I712
tp36
a(S'w'
I1467
tp37
a(S'p2_vo'
I7
tp38
a(S'w'
I730
tp39
a(S'p1_tl'
I12
tp40
a(S'w'
I1
tp41
a(S'p1_ll'
I5
tp42
a(S'w'
I732
tp43
a(S'w'
I1468
tp44
a(S'p2_vo'
I8
tp45
a(S'w'
I729
tp46
a(S'p1_tl'
I45
tp47
a(S'w'
I1
tp48
a(S'p1_ll'
I5
tp49
a(S'w'
I733
tp50
a(S'w'
I1467
tp51
a(S'p2_vo'
I9
tp52
a(S'w'
I730
tp53
a(S'p1_tl'
I63
tp54
a(S'w'
I1
tp55
a(S'p1_ll'
I5
tp56
a(S'w'
I733
tp57
a(S'w'
I1467
tp58
a(S'p2_vo'
I10
tp59
a(S'w'
I730
tp60
a(S'p1_tl'
I45
tp61
a(S'w'
I1
tp62
a(S'p1_ll'
I5
tp63
a(S'w'
I732
tp64
a(S'w'
I1467
tp65
a(S'p2_vo'
I11
tp66
a(S'w'
I730
tp67
a(S'p1_tl'
I239
tp68
a(S'w'
I1
tp69
a(S'p1_ll'
I5
tp70
a(S'p1_th'
I0
tp71
a(S'w'
I733
tp72
a(S'w'
I1467
tp73
a(S'p2_vo'
I12
tp74
a(S'w'
I730
tp75
a(S'p1_tl'
I12
tp76
a(S'w'
I1
tp77
a(S'p1_ll'
I5
tp78
a(S'p1_th'
I1
tp79
a(S'w'
I732
tp80
a(S'w'
I1468
tp81
a(S'p2_vo'
I13
tp82
a(S'w'
I729
tp83
a(S'p1_tl'
I45
tp84
a(S'w'
I1
tp85
a(S'p1_ll'
I5
tp86
a(S'w'
I733
tp87
a(S'w'
I1467
tp88
a(S'p2_vo'
I14
tp89
a(S'w'
I730
tp90
a(S'p1_tl'
I12
tp91
a(S'w'
I1
tp92
a(S'p1_ll'
I5
tp93
a(S'w'
I732
tp94
a(S'w'
I1468
tp95
a(S'p2_vo'
I15
tp96
a(S'w'
I729
tp97
a(S'p1_tl'
I226
tp98
a(S'w'
I1
tp99
a(S'p1_ll'
I5
tp100
a(S'p1_th'
I0
tp101
a(S'w'
I2930
tp102
a(S'p1_tl'
I239
tp103
a(S'w'
I1
tp104
a(S'p1_ll'
I5
tp105
a(S'w'
I2930
tp106
a(S'p1_tl'
I12
tp107
a(S'w'
I1
tp108
a(S'p1_ll'
I5
tp109
a(S'p1_th'
I1
tp110
a(S'w'
I2929
tp111
a(S'p1_tl'
I239
tp112
a(S'w'
I1
tp113
a(S'p1_ll'
I5
tp114
a(S'p1_th'
I0
tp115
a(S'w'
I2930
tp116
a(S'p1_tl'
I201
tp117
a(S'w'
I1
tp118
a(S'p1_ll'
I5
tp119
a(S'w'
I2929
tp120
a(S'p1_tl'
I226
tp121
a(S'w'
I1
tp122
a(S'p1_ll'
I5
tp123
a(S'w'
I2930
tp124
a(S'p1_tl'
I239
tp125
a(S'w'
I1
tp126
a(S'p1_ll'
I5
tp127
a(S'w'
I2930
tp128
a(S'p1_tl'
I226
tp129
a(S'w'
I1
tp130
a(S'p1_ll'
I5
tp131
a(S'w'
I2929
tp132
a(S'p1_tl'
I179
tp133
a(S'w'
I1
tp134
a(S'p1_ll'
I5
tp135
a(S'w'
I2930
tp136
a(S'p1_tl'
I201
tp137
a(S'w'
I1
tp138
a(S'p1_ll'
I5
tp139
a(S'w'
I2929
tp140
a(S'p1_tl'
I226
tp141
a(S'w'
I1
tp142
a(S'p1_ll'
I5
tp143
a(S'w'
I2930
tp144
a(S'p1_tl'
I201
tp145
a(S'w'
I1
tp146
a(S'p1_ll'
I5
tp147
a(S'w'
I2929
tp148
a(S'p1_tl'
I169
tp149
a(S'w'
I1
tp150
a(S'p1_ll'
I5
tp151
a(S'w'
I2930
tp152
a(S'p1_tl'
I179
tp153
a(S'w'
I1
tp154
a(S'p1_ll'
I5
tp155
a(S'w'
I2930
tp156
a(S'p1_tl'
I201
tp157
a(S'w'
I1
tp158
a(S'p1_ll'
I5
tp159
a(S'w'
I2929
tp160
a(S'p1_tl'
I179
tp161
a(S'w'
I1
tp162
a(S'p1_ll'
I5
tp163
a(S'w'
I7
tp164
a(S'w'
I1
tp165
a(S'p2_ll'
I19
tp166
a(S'w'
I725
tp167
a(S'w'
I1465
tp168
a(S'w'
I732
tp169
a(S'p1_tl'
I150
tp170
a(S'w'
I1
tp171
a(S'p1_ll'
I5
tp172
a(S'w'
I733
tp173
a(S'w'
I1
tp174
a(S'p2_vo'
I14
tp175
a(S'w'
I1464
tp176
a(S'w'
I731
tp177
a(S'p1_tl'
I169
tp178
a(S'w'
I1
tp179
a(S'p1_ll'
I5
tp180
a(S'w'
I733
tp181
a(S'w'
I1466
tp182
a(S'w'
I1
tp183
a(S'p2_vo'
I13
tp184
a(S'w'
I730
tp185
a(S'p1_tl'
I179
tp186
a(S'w'
I1
tp187
a(S'p1_ll'
I5
tp188
a(S'w'
I733
tp189
a(S'w'
I1465
tp190
a(S'w'
I732
tp191
a(S'p1_tl'
I159
tp192
a(S'w'
I1
tp193
a(S'p1_ll'
I5
tp194
a(S'w'
I733
tp195
a(S'w'
I1
tp196
a(S'p2_vo'
I12
tp197
a(S'w'
I1463
tp198
a(S'w'
I732
tp199
a(S'p1_tl'
I134
tp200
a(S'w'
I1
tp201
a(S'p1_ll'
I5
tp202
a(S'w'
I733
tp203
a(S'w'
I1466
tp204
a(S'w'
I1
tp205
a(S'p2_vo'
I11
tp206
a(S'w'
I730
tp207
a(S'p1_tl'
I150
tp208
a(S'w'
I1
tp209
a(S'p1_ll'
I5
tp210
a(S'w'
I732
tp211
a(S'w'
I1466
tp212
a(S'w'
I731
tp213
a(S'p1_tl'
I159
tp214
a(S'w'
I1
tp215
a(S'p1_ll'
I5
tp216
a(S'w'
I734
tp217
a(S'w'
I1
tp218
a(S'p2_vo'
I10
tp219
a(S'w'
I1463
tp220
a(S'w'
I740
tp221
a(S'p1_vo'
I15
tp222
a(S'w'
I1
tp223
a(S'p1_tl'
I179
tp224
a(S'p1_ll'
I5
tp225
a(S'w'
I723
tp226
a(S'w'
I3
tp227
a(S'w'
I1463
tp228
a(S'w'
I5
tp229
a(S'p2_vo'
I9
tp230
a(S'w'
I727
tp231
a(S'p1_tl'
I134
tp232
a(S'w'
I1
tp233
a(S'p1_ll'
I5
tp234
a(S'w'
I732
tp235
a(S'w'
I3
tp236
a(S'w'
I1462
tp237
a(S'w'
I3
tp238
a(S'w'
I730
tp239
a(S'p1_tl'
I142
tp240
a(S'w'
I1
tp241
a(S'p1_ll'
I5
tp242
a(S'w'
I732
tp243
a(S'w'
I5
tp244
a(S'p2_vo'
I8
tp245
a(S'w'
I1460
tp246
a(S'w'
I3
tp247
a(S'w'
I730
tp248
a(S'p1_tl'
I159
tp249
a(S'w'
I1
tp250
a(S'p1_ll'
I5
tp251
a(S'w'
I732
tp252
a(S'p1_vo'
I14
tp253
a(S'w'
I4
tp254
a(S'w'
I1461
tp255
a(S'w'
I5
tp256
a(S'p2_vo'
I7
tp257
a(S'w'
I729
tp258
a(S'p1_tl'
I179
tp259
a(S'w'
I1
tp260
a(S'p1_ll'
I5
tp261
a(S'w'
I730
tp262
a(S'w'
I3
tp263
a(S'w'
I1462
tp264
a(S'w'
I3
tp265
a(S'w'
I730
tp266
a(S'p1_tl'
I134
tp267
a(S'w'
I1
tp268
a(S'p1_ll'
I5
tp269
a(S'w'
I731
tp270
a(S'w'
I5
tp271
a(S'p2_vo'
I6
tp272
a(S'w'
I1461
tp273
a(S'w'
I3
tp274
a(S'w'
I729
tp275
a(S'p1_tl'
I142
tp276
a(S'w'
I1
tp277
a(S'p1_ll'
I5
tp278
a(S'w'
I733
tp279
a(S'p1_vo'
I13
tp280
a(S'w'
I4
tp281
a(S'w'
I1460
tp282
a(S'w'
I5
tp283
a(S'p2_vo'
I5
tp284
a(S'w'
I728
tp285
a(S'p1_tl'
I159
tp286
a(S'w'
I1
tp287
a(S'p1_ll'
I5
tp288
a(S'w'
I732
tp289
a(S'w'
I3
tp290
a(S'w'
I1462
tp291
a(S'w'
I3
tp292
a(S'w'
I732
tp293
a(S'p1_tl'
I179
tp294
a(S'w'
I1
tp295
a(S'p1_ll'
I5
tp296
a(S'w'
I5
tp297
a(S'tr_lh'
I0
tp298
a(S'tr_lr'
I16
tp299
a(S'w'
I724
tp300
a(S'w'
I5
tp301
a(S'p2_vo'
I4
tp302
a(S'w'
I1460
tp303
a(S'w'
I3
tp304
a(S'w'
I730
tp305
a(S'p1_tl'
I134
tp306
a(S'w'
I1
tp307
a(S'p1_ll'
I5
tp308
a(S'w'
I733
tp309
a(S'p1_vo'
I12
tp310
a(S'w'
I4
tp311
a(S'w'
I1460
tp312
a(S'w'
I5
tp313
a(S'p2_vo'
I3
tp314
a(S'w'
I728
tp315
a(S'p1_tl'
I142
tp316
a(S'w'
I1
tp317
a(S'p1_ll'
I5
tp318
a(S'w'
I731
tp319
a(S'w'
I3
tp320
a(S'w'
I1463
tp321
a(S'w'
I3
tp322
a(S'w'
I729
tp323
a(S'p1_tl'
I159
tp324
a(S'w'
I1
tp325
a(S'p1_ll'
I5
tp326
a(S'w'
I732
tp327
a(S'w'
I5
tp328
a(S'p2_vo'
I2
tp329
a(S'w'
I1460
tp330
a(S'w'
I3
tp331
a(S'w'
I732
tp332
a(S'p1_tl'
I179
tp333
a(S'w'
I1
tp334
a(S'p1_ll'
I5
tp335
a(S'w'
I730
tp336
a(S'p1_vo'
I11
tp337
a(S'w'
I4
tp338
a(S'w'
I1461
tp339
a(S'w'
I5
tp340
a(S'p2_vo'
I1
tp341
a(S'w'
I727
tp342
a(S'p1_tl'
I134
tp343
a(S'w'
I1
tp344
a(S'p1_ll'
I5
tp345
a(S'w'
I732
tp346
a(S'w'
I3
tp347
a(S'w'
I1462
tp348
a(S'w'
I3
tp349
a(S'w'
I730
tp350
a(S'p1_tl'
I142
tp351
a(S'w'
I1
tp352
a(S'p1_ll'
I5
tp353
a(S'w'
I732
tp354
a(S'w'
I5
tp355
a(S'p2_vo'
I0
tp356
a(S'w'
I1460
tp357
a(S'w'
I733
tp358
a(S'p1_tl'
I159
tp359
a(S'w'
I1
tp360
a(S'p1_ll'
I5
tp361
a(S'w'
I732
tp362
a(S'p1_vo'
I10
tp363
a(S'w'
I1465
tp364
a(S'w'
I734
tp365
a(S'p1_tl'
I179
tp366
a(S'w'
I1
tp367
a(S'p1_ll'
I5
tp368
a(S'w'
I4
tp369
a(S'p2_du'
I0
tp370
a(S'p2_lh'
I0
tp371
a(S'w'
I726
tp372
a(S'w'
I1465
tp373
a(S'w'
I733
tp374
a(S'p1_tl'
I134
tp375
a(S'w'
I1
tp376
a(S'p1_ll'
I5
tp377
a(S'w'
I731
tp378
a(S'w'
I1466
tp379
a(S'w'
I732
tp380
a(S'p1_tl'
I142
tp381
a(S'w'
I1
tp382
a(S'p1_ll'
I5
tp383
a(S'w'
I733
tp384
a(S'p1_vo'
I9
tp385
a(S'w'
I1464
tp386
a(S'w'
I733
tp387
a(S'p1_tl'
I159
tp388
a(S'w'
I1
tp389
a(S'p1_ll'
I5
tp390
a(S'w'
I732
tp391
a(S'w'
I1465
tp392
a(S'w'
I735
tp393
a(S'p1_tl'
I179
tp394
a(S'w'
I1
tp395
a(S'p1_ll'
I5
tp396
a(S'w'
I729
tp397
a(S'w'
I1465
tp398
a(S'w'
I733
tp399
a(S'p1_tl'
I134
tp400
a(S'w'
I1
tp401
a(S'p1_ll'
I5
tp402
a(S'w'
I733
tp403
a(S'p1_vo'
I8
tp404
a(S'w'
I1464
tp405
a(S'w'
I733
tp406
a(S'p1_tl'
I142
tp407
a(S'w'
I1
tp408
a(S'p1_ll'
I5
tp409
a(S'w'
I731
tp410
a(S'w'
I1466
tp411
a(S'w'
I732
tp412
a(S'p1_tl'
I159
tp413
a(S'w'
I1
tp414
a(S'p1_ll'
I5
tp415
a(S'w'
I732
tp416
a(S'w'
I1465
tp417
a(S'w'
I735
tp418
a(S'p1_tl'
I179
tp419
a(S'w'
I1
tp420
a(S'p1_ll'
I5
tp421
a(S'w'
I730
tp422
a(S'p1_vo'
I7
tp423
a(S'w'
I1465
tp424
a(S'w'
I732
tp425
a(S'p1_tl'
I134
tp426
a(S'w'
I1
tp427
a(S'p1_ll'
I5
tp428
a(S'w'
I732
tp429
a(S'w'
I1465
tp430
a(S'w'
I733
tp431
a(S'p1_tl'
I142
tp432
a(S'w'
I1
tp433
a(S'p1_ll'
I5
tp434
a(S'w'
I732
tp435
a(S'w'
I1465
tp436
a(S'w'
I733
tp437
a(S'p1_tl'
I159
tp438
a(S'w'
I1
tp439
a(S'p1_ll'
I5
tp440
a(S'w'
I732
tp441
a(S'p1_vo'
I6
tp442
a(S'w'
I1465
tp443
a(S'w'
I734
tp444
a(S'p1_tl'
I179
tp445
a(S'w'
I1
tp446
a(S'p1_ll'
I5
tp447
a(S'w'
I730
tp448
a(S'w'
I1465
tp449
a(S'w'
I733
tp450
a(S'p1_tl'
I134
tp451
a(S'w'
I1
tp452
a(S'p1_ll'
I5
tp453
a(S'w'
I731
tp454
a(S'w'
I1466
tp455
a(S'w'
I732
tp456
a(S'p1_tl'
I142
tp457
a(S'w'
I1
tp458
a(S'p1_ll'
I5
tp459
a(S'w'
I733
tp460
a(S'p1_vo'
I5
tp461
a(S'w'
I1464
tp462
a(S'w'
I733
tp463
a(S'p1_tl'
I159
tp464
a(S'w'
I1
tp465
a(S'p1_ll'
I5
tp466
a(S'w'
I732
tp467
a(S'w'
I1465
tp468
a(S'w'
I735
tp469
a(S'p1_tl'
I179
tp470
a(S'w'
I1
tp471
a(S'p1_ll'
I5
tp472
a(S'w'
I729
tp473
a(S'w'
I1465
tp474
a(S'w'
I733
tp475
a(S'p1_tl'
I134
tp476
a(S'w'
I1
tp477
a(S'p1_ll'
I5
tp478
a(S'w'
I733
tp479
a(S'p1_vo'
I4
tp480
a(S'w'
I1464
tp481
a(S'w'
I733
tp482
a(S'p1_tl'
I142
tp483
a(S'w'
I1
tp484
a(S'p1_ll'
I5
tp485
a(S'w'
I731
tp486
a(S'w'
I1466
tp487
a(S'w'
I732
tp488
a(S'p1_tl'
I159
tp489
a(S'w'
I1
tp490
a(S'p1_ll'
I5
tp491
a(S'w'
I732
tp492
a(S'w'
I1465
tp493
a(S'w'
I735
tp494
a(S'p1_tl'
I179
tp495
a(S'w'
I1
tp496
a(S'p1_ll'
I5
tp497
a(S'w'
I730
tp498
a(S'p1_vo'
I3
tp499
a(S'w'
I1465
tp500
a(S'w'
I732
tp501
a(S'p1_tl'
I134
tp502
a(S'w'
I1
tp503
a(S'p1_ll'
I5
tp504
a(S'w'
I732
tp505
a(S'w'
I1465
tp506
a(S'w'
I733
tp507
a(S'p1_tl'
I142
tp508
a(S'w'
I1
tp509
a(S'p1_ll'
I5
tp510
a(S'w'
I732
tp511
a(S'w'
I1465
tp512
a(S'w'
I733
tp513
a(S'p1_tl'
I159
tp514
a(S'w'
I1
tp515
a(S'p1_ll'
I5
tp516
a(S'w'
I732
tp517
a(S'p1_vo'
I2
tp518
a(S'w'
I1465
tp519
a(S'w'
I734
tp520
a(S'p1_tl'
I179
tp521
a(S'w'
I1
tp522
a(S'p1_ll'
I5
tp523
a(S'w'
I730
tp524
a(S'w'
I1465
tp525
a(S'w'
I733
tp526
a(S'p1_tl'
I134
tp527
a(S'w'
I1
tp528
a(S'p1_ll'
I5
tp529
a(S'w'
I731
tp530
a(S'w'
I1466
tp531
a(S'w'
I732
tp532
a(S'p1_tl'
I142
tp533
a(S'w'
I1
tp534
a(S'p1_ll'
I5
tp535
a(S'w'
I733
tp536
a(S'p1_vo'
I1
tp537
a(S'w'
I1464
tp538
a(S'w'
I733
tp539
a(S'p1_tl'
I159
tp540
a(S'w'
I1
tp541
a(S'p1_ll'
I5
tp542
a(S'w'
I732
tp543
a(S'w'
I1465
tp544
a(S'w'
I735
tp545
a(S'p1_tl'
I179
tp546
a(S'w'
I1
tp547
a(S'p1_ll'
I5
tp548
a(S'w'
I729
tp549
a(S'w'
I1465
tp550
a(S'w'
I733
tp551
a(S'p1_tl'
I134
tp552
a(S'w'
I1
tp553
a(S'p1_ll'
I5
tp554
a(S'w'
I733
tp555
a(S'p1_vo'
I0
tp556
a(S'w'
I2197
tp557
a(S'p1_tl'
I142
tp558
a(S'w'
I1
tp559
a(S'p1_ll'
I5
tp560
a(S'w'
I2929
tp561
a(S'p1_tl'
I159
tp562
a(S'w'
I1
tp563
a(S'p1_ll'
I5
tp564
a(S'w'
I52417
tp565
a.