(lp1
(S'clock'
p2
I1789773
tp3
a(S'w'
I1
tp4
a(S'fc_mo'
I1
tp5
a(S'w'
I8
tp6
a(S'p2_tl'
I225
tp7
a(S'w'
I1
tp8
a(S'p2_ll'
I1
tp9
a(S'p2_du'
I2
tp10
a(S'p2_vo'
I4
tp11
a(S'w'
I1
tp12
a(S'p2_sp'
I7
tp13
a(S'p2_sn'
I1
tp14
a(S'p2_ss'
I7
tp15
a(S'w'
I2
tp16
a(S'tr_lr'
I56
tp17
a(S'tr_tl'
I212
tp18
a(S'w'
I1
tp19
a(S'tr_ll'
I1
tp20
a(S'w'
I721
tp21
a(S'fc_mo'
I1
tp22
a(S'w'
I734
tp23
a(S'fc_mo'
I1
tp24
a(S'w'
I734
tp25
a(S'fc_mo'
I1
tp26
a(S'w'
I734
tp27
a(S'fc_mo'
I1
tp28
a(S'w'
I5
tp29
a(S'p2_tl'
I212
tp30
a(S'w'
I1
tp31
a(S'p2_ll'
I1
tp32
a(S'w'
I727
tp33
a(S'fc_mo'
I1
tp34
a(S'w'
I734
tp35
a(S'fc_mo'
I1
tp36
a(S'w'
I734
tp37
a(S'fc_mo'
I1
tp38
a(S'w'
I734
tp39
a(S'fc_mo'
I1
tp40
a(S'w'
I734
tp41
a(S'fc_mo'
I1
tp42
a(S'w'
I733
tp43
a(S'fc_mo'
I1
tp44
a(S'w'
I734
tp45
a(S'fc_mo'
I1
tp46
a(S'w'
I734
tp47
a(S'fc_mo'
I1
tp48
a(S'w'
I734
tp49
a(S'fc_mo'
I1
tp50
a(S'w'
I734
tp51
a(S'fc_mo'
I1
tp52
a(S'w'
I733
tp53
a(S'fc_mo'
I1
tp54
a(S'w'
I734
tp55
a(S'fc_mo'
I1
tp56
a(S'w'
I5
tp57
a(S'p2_tl'
I225
tp58
a(S'w'
I1
tp59
a(S'p2_ll'
I1
tp60
a(S'p2_vo'
I7
tp61
a(S'w'
I3
tp62
a(S'tr_tl'
I28
tp63
a(S'w'
I1
tp64
a(S'tr_ll'
I1
tp65
a(S'tr_th'
I1
tp66
a(S'w'
I724
tp67
a(S'fc_mo'
I1
tp68
a(S'w'
I734
tp69
a(S'fc_mo'
I1
tp70
a(S'w'
I734
tp71
a(S'fc_mo'
I1
tp72
a(S'w'
I733
tp73
a(S'fc_mo'
I1
tp74
a(S'w'
I734
tp75
a(S'fc_mo'
I1
tp76
a(S'w'
I734
tp77
a(S'fc_mo'
I1
tp78
a(S'w'
I734
tp79
a(S'fc_mo'
I1
tp80
a(S'w'
I734
tp81
a(S'fc_mo'
I1
tp82
a(S'w'
I733
tp83
a(S'fc_mo'
I1
tp84
a(S'w'
I734
tp85
a(S'fc_mo'
I1
tp86
a(S'w'
I734
tp87
a(S'fc_mo'
I1
tp88
a(S'w'
I734
tp89
a(S'fc_mo'
I1
tp90
a(S'w'
I733
tp91
a(S'fc_mo'
I1
tp92
a(S'w'
I734
tp93
a(S'fc_mo'
I1
tp94
a(S'w'
I734
tp95
a(S'fc_mo'
I1
tp96
a(S'w'
I734
tp97
a(S'fc_mo'
I1
tp98
a(S'w'
I5
tp99
a(S'p2_tl'
I253
tp100
a(S'w'
I1
tp101
a(S'p2_ll'
I1
tp102
a(S'p2_vo'
I4
tp103
a(S'w'
I3
tp104
a(S'tr_tl'
I82
tp105
a(S'w'
I1
tp106
a(S'tr_ll'
I1
tp107
a(S'w'
I724
tp108
a(S'fc_mo'
I1
tp109
a(S'w'
I733
tp110
a(S'fc_mo'
I1
tp111
a(S'w'
I734
tp112
a(S'fc_mo'
I1
tp113
a(S'w'
I734
tp114
a(S'fc_mo'
I1
tp115
a(S'w'
I734
tp116
a(S'fc_mo'
I1
tp117
a(S'w'
I734
tp118
a(S'fc_mo'
I1
tp119
a(S'w'
I733
tp120
a(S'fc_mo'
I1
tp121
a(S'w'
I734
tp122
a(S'fc_mo'
I1
tp123
a(S'w'
I5
tp124
a(S'p2_tl'
I28
tp125
a(S'w'
I1
tp126
a(S'p2_ll'
I1
tp127
a(S'p2_th'
I1
tp128
a(S'p2_vo'
I7
tp129
a(S'w'
I728
tp130
a(S'fc_mo'
I1
tp131
a(S'w'
I734
tp132
a(S'fc_mo'
I1
tp133
a(S'w'
I734
tp134
a(S'fc_mo'
I1
tp135
a(S'w'
I733
tp136
a(S'fc_mo'
I1
tp137
a(S'w'
I734
tp138
a(S'fc_mo'
I1
tp139
a(S'w'
I734
tp140
a(S'fc_mo'
I1
tp141
a(S'w'
I734
tp142
a(S'fc_mo'
I1
tp143
a(S'w'
I734
tp144
a(S'fc_mo'
I1
tp145
a(S'w'
I6
tp146
a(S'tr_tl'
I171
tp147
a(S'tr_ll'
I1
tp148
a(S'w'
I727
tp149
a(S'fc_mo'
I1
tp150
a(S'w'
I734
tp151
a(S'fc_mo'
I1
tp152
a(S'w'
I734
tp153
a(S'fc_mo'
I1
tp154
a(S'w'
I734
tp155
a(S'fc_mo'
I1
tp156
a(S'w'
I733
tp157
a(S'fc_mo'
I1
tp158
a(S'w'
I734
tp159
a(S'fc_mo'
I1
tp160
a(S'w'
I734
tp161
a(S'fc_mo'
I1
tp162
a(S'w'
I734
tp163
a(S'fc_mo'
I1
tp164
a(S'w'
I734
tp165
a(S'fc_mo'
I1
tp166
a(S'w'
I733
tp167
a(S'fc_mo'
I1
tp168
a(S'w'
I734
tp169
a(S'fc_mo'
I1
tp170
a(S'w'
I734
tp171
a(S'fc_mo'
I1
tp172
a(S'w'
I734
tp173
a(S'fc_mo'
I1
tp174
a(S'w'
I734
tp175
a(S'fc_mo'
I1
tp176
a(S'w'
I733
tp177
a(S'fc_mo'
I1
tp178
a(S'w'
I734
tp179
a(S'fc_mo'
I1
tp180
a(S'w'
I5
tp181
a(S'p2_tl'
I12
tp182
a(S'w'
I1
tp183
a(S'p2_ll'
I1
tp184
a(S'p2_vo'
I4
tp185
a(S'w'
I3
tp186
a(S'tr_tl'
I253
tp187
a(S'w'
I1
tp188
a(S'tr_ll'
I1
tp189
a(S'tr_th'
I0
tp190
a(S'w'
I724
tp191
a(S'fc_mo'
I1
tp192
a(S'w'
I734
tp193
a(S'fc_mo'
I1
tp194
a(S'w'
I734
tp195
a(S'fc_mo'
I1
tp196
a(S'w'
I733
tp197
a(S'fc_mo'
I1
tp198
a(S'w'
I5
tp199
a(S'p2_tl'
I253
tp200
a(S'w'
I1
tp201
a(S'p2_ll'
I1
tp202
a(S'p2_th'
I0
tp203
a(S'w'
I728
tp204
a(S'fc_mo'
I1
tp205
a(S'w'
I734
tp206
a(S'fc_mo'
I1
tp207
a(S'w'
I734
tp208
a(S'fc_mo'
I1
tp209
a(S'w'
I734
tp210
a(S'fc_mo'
I1
tp211
a(S'w'
I733
tp212
a(S'fc_mo'
I1
tp213
a(S'w'
I734
tp214
a(S'fc_mo'
I1
tp215
a(S'w'
I734
tp216
a(S'fc_mo'
I1
tp217
a(S'w'
I734
tp218
a(S'fc_mo'
I1
tp219
a(S'w'
I733
tp220
a(S'fc_mo'
I1
tp221
a(S'w'
I734
tp222
a(S'fc_mo'
I1
tp223
a(S'w'
I734
tp224
a(S'fc_mo'
I1
tp225
a(S'w'
I734
tp226
a(S'fc_mo'
I1
tp227
a(S'w'
I5
tp228
a(S'p2_tl'
I28
tp229
a(S'w'
I1
tp230
a(S'p2_ll'
I1
tp231
a(S'p2_th'
I1
tp232
a(S'p2_vo'
I7
tp233
a(S'w'
I3
tp234
a(S'tr_tl'
I82
tp235
a(S'w'
I1
tp236
a(S'tr_ll'
I1
tp237
a(S'tr_th'
I1
tp238
a(S'w'
I724
tp239
a(S'fc_mo'
I1
tp240
a(S'w'
I733
tp241
a(S'fc_mo'
I1
tp242
a(S'w'
I734
tp243
a(S'fc_mo'
I1
tp244
a(S'w'
I734
tp245
a(S'fc_mo'
I1
tp246
a(S'w'
I734
tp247
a(S'fc_mo'
I1
tp248
a(S'w'
I734
tp249
a(S'fc_mo'
I1
tp250
a(S'w'
I733
tp251
a(S'fc_mo'
I1
tp252
a(S'w'
I734
tp253
a(S'fc_mo'
I1
tp254
a(S'w'
I734
tp255
a(S'fc_mo'
I1
tp256
a(S'w'
I734
tp257
a(S'fc_mo'
I1
tp258
a(S'w'
I734
tp259
a(S'fc_mo'
I1
tp260
a(S'w'
I733
tp261
a(S'fc_mo'
I1
tp262
a(S'w'
I734
tp263
a(S'fc_mo'
I1
tp264
a(S'w'
I734
tp265
a(S'fc_mo'
I1
tp266
a(S'w'
I734
tp267
a(S'fc_mo'
I1
tp268
a(S'w'
I734
tp269
a(S'fc_mo'
I1
tp270
a(S'w'
I5
tp271
a(S'p2_tl'
I63
tp272
a(S'w'
I1
tp273
a(S'p2_ll'
I1
tp274
a(S'p2_vo'
I4
tp275
a(S'w'
I3
tp276
a(S'tr_tl'
I171
tp277
a(S'w'
I1
tp278
a(S'tr_ll'
I1
tp279
a(S'w'
I723
tp280
a(S'fc_mo'
I1
tp281
a(S'w'
I734
tp282
a(S'fc_mo'
I1
tp283
a(S'w'
I734
tp284
a(S'fc_mo'
I1
tp285
a(S'w'
I734
tp286
a(S'fc_mo'
I1
tp287
a(S'w'
I733
tp288
a(S'fc_mo'
I1
tp289
a(S'w'
I734
tp290
a(S'fc_mo'
I1
tp291
a(S'w'
I734
tp292
a(S'fc_mo'
I1
tp293
a(S'w'
I734
tp294
a(S'fc_mo'
I1
tp295
a(S'w'
I5
tp296
a(S'p2_tl'
I82
tp297
a(S'w'
I1
tp298
a(S'p2_ll'
I1
tp299
a(S'p2_vo'
I7
tp300
a(S'w'
I728
tp301
a(S'fc_mo'
I1
tp302
a(S'w'
I733
tp303
a(S'fc_mo'
I1
tp304
a(S'w'
I734
tp305
a(S'fc_mo'
I1
tp306
a(S'w'
I734
tp307
a(S'fc_mo'
I1
tp308
a(S'w'
I734
tp309
a(S'fc_mo'
I1
tp310
a(S'w'
I734
tp311
a(S'fc_mo'
I1
tp312
a(S'w'
I733
tp313
a(S'fc_mo'
I1
tp314
a(S'w'
I734
tp315
a(S'fc_mo'
I1
tp316
a(S'w'
I6
tp317
a(S'tr_tl'
I252
tp318
a(S'tr_ll'
I1
tp319
a(S'w'
I728
tp320
a(S'fc_mo'
I1
tp321
a(S'w'
I734
tp322
a(S'fc_mo'
I1
tp323
a(S'w'
I734
tp324
a(S'fc_mo'
I1
tp325
a(S'w'
I733
tp326
a(S'fc_mo'
I1
tp327
a(S'w'
I734
tp328
a(S'fc_mo'
I1
tp329
a(S'w'
I734
tp330
a(S'fc_mo'
I1
tp331
a(S'w'
I734
tp332
a(S'fc_mo'
I1
tp333
a(S'w'
I734
tp334
a(S'fc_mo'
I1
tp335
a(S'w'
I733
tp336
a(S'fc_mo'
I1
tp337
a(S'w'
I734
tp338
a(S'fc_mo'
I1
tp339
a(S'w'
I734
tp340
a(S'fc_mo'
I1
tp341
a(S'w'
I734
tp342
a(S'fc_mo'
I1
tp343
a(S'w'
I733
tp344
a(S'fc_mo'
I1
tp345
a(S'w'
I734
tp346
a(S'fc_mo'
I1
tp347
a(S'w'
I734
tp348
a(S'fc_mo'
I1
tp349
a(S'w'
I734
tp350
a(S'fc_mo'
I1
tp351
a(S'w'
I5
tp352
a(S'p2_tl'
I124
tp353
a(S'w'
I1
tp354
a(S'p2_ll'
I1
tp355
a(S'w'
I3
tp356
a(S'tr_tl'
I124
tp357
a(S'w'
I1
tp358
a(S'tr_ll'
I1
tp359
a(S'w'
I724
tp360
a(S'fc_mo'
I1
tp361
a(S'w'
I733
tp362
a(S'fc_mo'
I1
tp363
a(S'w'
I734
tp364
a(S'fc_mo'
I1
tp365
a(S'w'
I734
tp366
a(S'fc_mo'
I1
tp367
a(S'w'
I734
tp368
a(S'fc_mo'
I1
tp369
a(S'w'
I734
tp370
a(S'fc_mo'
I1
tp371
a(S'w'
I733
tp372
a(S'fc_mo'
I1
tp373
a(S'w'
I734
tp374
a(S'fc_mo'
I1
tp375
a(S'w'
I734
tp376
a(S'fc_mo'
I1
tp377
a(S'w'
I734
tp378
a(S'fc_mo'
I1
tp379
a(S'w'
I734
tp380
a(S'fc_mo'
I1
tp381
a(S'w'
I733
tp382
a(S'fc_mo'
I1
tp383
a(S'w'
I734
tp384
a(S'fc_mo'
I1
tp385
a(S'w'
I734
tp386
a(S'fc_mo'
I1
tp387
a(S'w'
I734
tp388
a(S'fc_mo'
I1
tp389
a(S'w'
I734
tp390
a(S'fc_mo'
I1
tp391
a(S'w'
I5
tp392
a(S'p2_tl'
I63
tp393
a(S'w'
I1
tp394
a(S'p2_ll'
I1
tp395
a(S'w'
I3
tp396
a(S'tr_tl'
I252
tp397
a(S'w'
I1
tp398
a(S'tr_ll'
I1
tp399
a(S'w'
I723
tp400
a(S'fc_mo'
I1
tp401
a(S'w'
I734
tp402
a(S'fc_mo'
I1
tp403
a(S'w'
I734
tp404
a(S'fc_mo'
I1
tp405
a(S'w'
I734
tp406
a(S'fc_mo'
I1
tp407
a(S'w'
I733
tp408
a(S'fc_mo'
I1
tp409
a(S'w'
I734
tp410
a(S'fc_mo'
I1
tp411
a(S'w'
I734
tp412
a(S'fc_mo'
I1
tp413
a(S'w'
I734
tp414
a(S'fc_mo'
I1
tp415
a(S'w'
I734
tp416
a(S'fc_mo'
I1
tp417
a(S'w'
I733
tp418
a(S'fc_mo'
I1
tp419
a(S'w'
I734
tp420
a(S'fc_mo'
I1
tp421
a(S'w'
I734
tp422
a(S'fc_mo'
I1
tp423
a(S'w'
I734
tp424
a(S'fc_mo'
I1
tp425
a(S'w'
I734
tp426
a(S'fc_mo'
I1
tp427
a(S'w'
I733
tp428
a(S'fc_mo'
I1
tp429
a(S'w'
I734
tp430
a(S'fc_mo'
I1
tp431
a(S'w'
I5
tp432
a(S'p2_tl'
I253
tp433
a(S'w'
I1
tp434
a(S'p2_ll'
I1
tp435
a(S'p2_th'
I0
tp436
a(S'p2_vo'
I4
tp437
a(S'w'
I3
tp438
a(S'tr_tl'
I128
tp439
a(S'w'
I1
tp440
a(S'tr_ll'
I1
tp441
a(S'tr_th'
I2
tp442
a(S'w'
I724
tp443
a(S'fc_mo'
I1
tp444
a(S'w'
I734
tp445
a(S'fc_mo'
I1
tp446
a(S'w'
I734
tp447
a(S'fc_mo'
I1
tp448
a(S'w'
I733
tp449
a(S'fc_mo'
I1
tp450
a(S'w'
I734
tp451
a(S'fc_mo'
I1
tp452
a(S'w'
I734
tp453
a(S'fc_mo'
I1
tp454
a(S'w'
I734
tp455
a(S'fc_mo'
I1
tp456
a(S'w'
I734
tp457
a(S'fc_mo'
I1
tp458
a(S'w'
I5
tp459
a(S'p2_tl'
I212
tp460
a(S'w'
I1
tp461
a(S'p2_ll'
I1
tp462
a(S'p2_vo'
I7
tp463
a(S'w'
I727
tp464
a(S'fc_mo'
I1
tp465
a(S'w'
I734
tp466
a(S'fc_mo'
I1
tp467
a(S'w'
I734
tp468
a(S'fc_mo'
I1
tp469
a(S'w'
I734
tp470
a(S'fc_mo'
I1
tp471
a(S'w'
I733
tp472
a(S'fc_mo'
I1
tp473
a(S'w'
I734
tp474
a(S'fc_mo'
I1
tp475
a(S'w'
I734
tp476
a(S'fc_mo'
I1
tp477
a(S'w'
I734
tp478
a(S'fc_mo'
I1
tp479
a(S'w'
I6
tp480
a(S'tr_tl'
I249
tp481
a(S'tr_ll'
I1
tp482
a(S'w'
I728
tp483
a(S'fc_mo'
I1
tp484
a(S'w'
I733
tp485
a(S'fc_mo'
I1
tp486
a(S'w'
I734
tp487
a(S'fc_mo'
I1
tp488
a(S'w'
I734
tp489
a(S'fc_mo'
I1
tp490
a(S'w'
I734
tp491
a(S'fc_mo'
I1
tp492
a(S'w'
I734
tp493
a(S'fc_mo'
I1
tp494
a(S'w'
I733
tp495
a(S'fc_mo'
I1
tp496
a(S'w'
I734
tp497
a(S'fc_mo'
I1
tp498
a(S'w'
I734
tp499
a(S'fc_mo'
I1
tp500
a(S'w'
I734
tp501
a(S'fc_mo'
I1
tp502
a(S'w'
I734
tp503
a(S'fc_mo'
I1
tp504
a(S'w'
I733
tp505
a(S'fc_mo'
I1
tp506
a(S'w'
I734
tp507
a(S'fc_mo'
I1
tp508
a(S'w'
I734
tp509
a(S'fc_mo'
I1
tp510
a(S'w'
I734
tp511
a(S'fc_mo'
I1
tp512
a(S'w'
I734
tp513
a(S'fc_mo'
I1
tp514
a(S'w'
I5
tp515
a(S'p2_tl'
I200
tp516
a(S'w'
I1
tp517
a(S'p2_ll'
I1
tp518
a(S'p2_vo'
I4
tp519
a(S'w'
I3
tp520
a(S'tr_lr'
I8
tp521
a(S'tr_tl'
I28
tp522
a(S'w'
I1
tp523
a(S'tr_ll'
I1
tp524
a(S'tr_th'
I1
tp525
a(S'w'
I723
tp526
a(S'fc_mo'
I1
tp527
a(S'w'
I734
tp528
a(S'fc_mo'
I1
tp529
a(S'w'
I734
tp530
a(S'fc_mo'
I1
tp531
a(S'w'
I734
tp532
a(S'fc_mo'
I1
tp533
a(S'w'
I5
tp534
a(S'p2_tl'
I189
tp535
a(S'w'
I1
tp536
a(S'p2_ll'
I1
tp537
a(S'p2_vo'
I7
tp538
a(S'w'
I3
tp539
a(S'tr_tl'
I63
tp540
a(S'w'
I1
tp541
a(S'tr_ll'
I1
tp542
a(S'w'
I723
tp543
a(S'fc_mo'
I1
tp544
a(S'w'
I734
tp545
a(S'fc_mo'
I1
tp546
a(S'w'
I734
tp547
a(S'fc_mo'
I1
tp548
a(S'w'
I734
tp549
a(S'fc_mo'
I1
tp550
a(S'w'
I6
tp551
a(S'tr_tl'
I28
tp552
a(S'tr_ll'
I1
tp553
a(S'w'
I728
tp554
a(S'fc_mo'
I1
tp555
a(S'w'
I733
tp556
a(S'fc_mo'
I1
tp557
a(S'w'
I734
tp558
a(S'fc_mo'
I1
tp559
a(S'w'
I734
tp560
a(S'fc_mo'
I1
tp561
a(S'w'
I6
tp562
a(S'tr_tl'
I63
tp563
a(S'tr_ll'
I1
tp564
a(S'w'
I728
tp565
a(S'fc_mo'
I1
tp566
a(S'w'
I734
tp567
a(S'fc_mo'
I1
tp568
a(S'w'
I733
tp569
a(S'fc_mo'
I1
tp570
a(S'w'
I734
tp571
a(S'fc_mo'
I1
tp572
a(S'w'
I5
tp573
a(S'tr_lr'
I56
tp574
a(S'w'
I1
tp575
a(S'tr_tl'
I28
tp576
a(S'tr_ll'
I1
tp577
a(S'w'
I728
tp578
a(S'fc_mo'
I1
tp579
a(S'w'
I734
tp580
a(S'fc_mo'
I1
tp581
a(S'w'
I734
tp582
a(S'fc_mo'
I1
tp583
a(S'w'
I733
tp584
a(S'fc_mo'
I1
tp585
a(S'w'
I734
tp586
a(S'fc_mo'
I1
tp587
a(S'w'
I734
tp588
a(S'fc_mo'
I1
tp589
a(S'w'
I734
tp590
a(S'fc_mo'
I1
tp591
a(S'w'
I734
tp592
a(S'fc_mo'
I1
tp593
a(S'w'
I733
tp594
a(S'fc_mo'
I1
tp595
a(S'w'
I734
tp596
a(S'fc_mo'
I1
tp597
a(S'w'
I734
tp598
a(S'fc_mo'
I1
tp599
a(S'w'
I734
tp600
a(S'fc_mo'
I1
tp601
a(S'w'
I733
tp602
a(S'fc_mo'
I1
tp603
a(S'w'
I734
tp604
a(S'fc_mo'
I1
tp605
a(S'w'
I734
tp606
a(S'fc_mo'
I1
tp607
a(S'w'
I734
tp608
a(S'fc_mo'
I1
tp609
a(S'w'
I5
tp610
a(S'p2_tl'
I178
tp611
a(S'w'
I1
tp612
a(S'p2_ll'
I1
tp613
a(S'p2_vo'
I4
tp614
a(S'w'
I3
tp615
a(S'tr_lr'
I8
tp616
a(S'tr_tl'
I82
tp617
a(S'w'
I1
tp618
a(S'tr_ll'
I1
tp619
a(S'w'
I724
tp620
a(S'fc_mo'
I1
tp621
a(S'w'
I733
tp622
a(S'fc_mo'
I1
tp623
a(S'w'
I734
tp624
a(S'fc_mo'
I1
tp625
a(S'w'
I734
tp626
a(S'fc_mo'
I1
tp627
a(S'w'
I5
tp628
a(S'p2_tl'
I168
tp629
a(S'w'
I1
tp630
a(S'p2_ll'
I1
tp631
a(S'p2_vo'
I7
tp632
a(S'w'
I3
tp633
a(S'tr_tl'
I124
tp634
a(S'w'
I1
tp635
a(S'tr_ll'
I1
tp636
a(S'w'
I724
tp637
a(S'fc_mo'
I1
tp638
a(S'w'
I734
tp639
a(S'fc_mo'
I1
tp640
a(S'w'
I733
tp641
a(S'fc_mo'
I1
tp642
a(S'w'
I734
tp643
a(S'fc_mo'
I1
tp644
a(S'w'
I6
tp645
a(S'tr_tl'
I82
tp646
a(S'tr_ll'
I1
tp647
a(S'w'
I728
tp648
a(S'fc_mo'
I1
tp649
a(S'w'
I734
tp650
a(S'fc_mo'
I1
tp651
a(S'w'
I734
tp652
a(S'fc_mo'
I1
tp653
a(S'w'
I733
tp654
a(S'fc_mo'
I1
tp655
a(S'w'
I6
tp656
a(S'tr_tl'
I124
tp657
a(S'tr_ll'
I1
tp658
a(S'w'
I728
tp659
a(S'fc_mo'
I1
tp660
a(S'w'
I734
tp661
a(S'fc_mo'
I1
tp662
a(S'w'
I734
tp663
a(S'fc_mo'
I1
tp664
a(S'w'
I734
tp665
a(S'fc_mo'
I1
tp666
a(S'w'
I5
tp667
a(S'tr_lr'
I56
tp668
a(S'w'
I1
tp669
a(S'tr_tl'
I82
tp670
a(S'tr_ll'
I1
tp671
a(S'w'
I727
tp672
a(S'fc_mo'
I1
tp673
a(S'w'
I734
tp674
a(S'fc_mo'
I1
tp675
a(S'w'
I734
tp676
a(S'fc_mo'
I1
tp677
a(S'w'
I734
tp678
a(S'fc_mo'
I1
tp679
a(S'w'
I733
tp680
a(S'fc_mo'
I1
tp681
a(S'w'
I734
tp682
a(S'fc_mo'
I1
tp683
a(S'w'
I734
tp684
a(S'fc_mo'
I1
tp685
a(S'w'
I734
tp686
a(S'fc_mo'
I1
tp687
a(S'w'
I734
tp688
a(S'fc_mo'
I1
tp689
a(S'w'
I733
tp690
a(S'fc_mo'
I1
tp691
a(S'w'
I734
tp692
a(S'fc_mo'
I1
tp693
a(S'w'
I734
tp694
a(S'fc_mo'
I1
tp695
a(S'w'
I734
tp696
a(S'fc_mo'
I1
tp697
a(S'w'
I734
tp698
a(S'fc_mo'
I1
tp699
a(S'w'
I733
tp700
a(S'fc_mo'
I1
tp701
a(S'w'
I734
tp702
a(S'fc_mo'
I1
tp703
a(S'w'
I5
tp704
a(S'p2_tl'
I212
tp705
a(S'w'
I1
tp706
a(S'p2_ll'
I1
tp707
a(S'w'
I3
tp708
a(S'tr_lr'
I8
tp709
a(S'tr_tl'
I171
tp710
a(S'w'
I1
tp711
a(S'tr_ll'
I1
tp712
a(S'w'
I724
tp713
a(S'fc_mo'
I1
tp714
a(S'w'
I734
tp715
a(S'fc_mo'
I1
tp716
a(S'w'
I734
tp717
a(S'fc_mo'
I1
tp718
a(S'w'
I733
tp719
a(S'fc_mo'
I1
tp720
a(S'w'
I6
tp721
a(S'tr_tl'
I196
tp722
a(S'tr_ll'
I1
tp723
a(S'w'
I728
tp724
a(S'fc_mo'
I1
tp725
a(S'w'
I734
tp726
a(S'fc_mo'
I1
tp727
a(S'w'
I734
tp728
a(S'fc_mo'
I1
tp729
a(S'w'
I734
tp730
a(S'fc_mo'
I1
tp731
a(S'w'
I6
tp732
a(S'tr_tl'
I171
tp733
a(S'tr_ll'
I1
tp734
a(S'w'
I727
tp735
a(S'fc_mo'
I1
tp736
a(S'w'
I734
tp737
a(S'fc_mo'
I1
tp738
a(S'w'
I734
tp739
a(S'fc_mo'
I1
tp740
a(S'w'
I734
tp741
a(S'fc_mo'
I1
tp742
a(S'w'
I6
tp743
a(S'tr_tl'
I196
tp744
a(S'tr_ll'
I1
tp745
a(S'w'
I727
tp746
a(S'fc_mo'
I1
tp747
a(S'w'
I734
tp748
a(S'fc_mo'
I1
tp749
a(S'w'
I734
tp750
a(S'fc_mo'
I1
tp751
a(S'w'
I734
tp752
a(S'fc_mo'
I1
tp753
a(S'w'
I6
tp754
a(S'tr_tl'
I171
tp755
a(S'tr_ll'
I1
tp756
a(S'w'
I728
tp757
a(S'fc_mo'
I1
tp758
a(S'w'
I733
tp759
a(S'fc_mo'
I1
tp760
a(S'w'
I734
tp761
a(S'fc_mo'
I1
tp762
a(S'w'
I734
tp763
a(S'fc_mo'
I1
tp764
a(S'w'
I6
tp765
a(S'tr_tl'
I196
tp766
a(S'tr_ll'
I1
tp767
a(S'w'
I728
tp768
a(S'fc_mo'
I1
tp769
a(S'w'
I734
tp770
a(S'fc_mo'
I1
tp771
a(S'w'
I733
tp772
a(S'fc_mo'
I1
tp773
a(S'w'
I734
tp774
a(S'fc_mo'
I1
tp775
a(S'w'
I6
tp776
a(S'tr_tl'
I171
tp777
a(S'tr_ll'
I1
tp778
a(S'w'
I728
tp779
a(S'fc_mo'
I1
tp780
a(S'w'
I734
tp781
a(S'fc_mo'
I1
tp782
a(S'w'
I734
tp783
a(S'fc_mo'
I1
tp784
a(S'w'
I733
tp785
a(S'fc_mo'
I1
tp786
a(S'w'
I6
tp787
a(S'tr_tl'
I196
tp788
a(S'tr_ll'
I1
tp789
a(S'w'
I728
tp790
a(S'fc_mo'
I1
tp791
a(S'w'
I734
tp792
a(S'fc_mo'
I1
tp793
a(S'w'
I734
tp794
a(S'fc_mo'
I1
tp795
a(S'w'
I734
tp796
a(S'fc_mo'
I1
tp797
a(S'w'
I5
tp798
a(S'tr_lr'
I56
tp799
a(S'w'
I1
tp800
a(S'tr_tl'
I171
tp801
a(S'tr_ll'
I1
tp802
a(S'w'
I727
tp803
a(S'fc_mo'
I1
tp804
a(S'w'
I734
tp805
a(S'fc_mo'
I1
tp806
a(S'w'
I734
tp807
a(S'fc_mo'
I1
tp808
a(S'w'
I734
tp809
a(S'fc_mo'
I1
tp810
a(S'w'
I733
tp811
a(S'fc_mo'
I1
tp812
a(S'w'
I734
tp813
a(S'fc_mo'
I1
tp814
a(S'w'
I734
tp815
a(S'fc_mo'
I1
tp816
a(S'w'
I734
tp817
a(S'fc_mo'
I1
tp818
a(S'w'
I734
tp819
a(S'fc_mo'
I1
tp820
a(S'w'
I733
tp821
a(S'fc_mo'
I1
tp822
a(S'w'
I734
tp823
a(S'fc_mo'
I1
tp824
a(S'w'
I734
tp825
a(S'fc_mo'
I1
tp826
a(S'w'
I734
tp827
a(S'fc_mo'
I1
tp828
a(S'w'
I734
tp829
a(S'fc_mo'
I1
tp830
a(S'w'
I733
tp831
a(S'fc_mo'
I1
tp832
a(S'w'
I734
tp833
a(S'fc_mo'
I1
tp834
a(S'w'
I734
tp835
a(S'fc_mo'
I1
tp836
a(S'w'
I734
tp837
a(S'fc_mo'
I1
tp838
a(S'w'
I734
tp839
a(S'fc_mo'
I1
tp840
a(S'w'
I733
tp841
a(S'fc_mo'
I1
tp842
a(S'w'
I734
tp843
a(S'fc_mo'
I1
tp844
a(S'w'
I734
tp845
a(S'fc_mo'
I1
tp846
a(S'w'
I734
tp847
a(S'fc_mo'
I1
tp848
a(S'w'
I734
tp849
a(S'fc_mo'
I1
tp850
a(S'w'
I733
tp851
a(S'fc_mo'
I1
tp852
a(S'w'
I734
tp853
a(S'fc_mo'
I1
tp854
a(S'w'
I734
tp855
a(S'fc_mo'
I1
tp856
a(S'w'
I734
tp857
a(S'fc_mo'
I1
tp858
a(S'w'
I733
tp859
a(S'fc_mo'
I1
tp860
a(S'w'
I734
tp861
a(S'fc_mo'
I1
tp862
a(S'w'
I734
tp863
a(S'fc_mo'
I1
tp864
a(S'w'
I734
tp865
a(S'fc_mo'
I1
tp866
a(S'w'
I4
tp867
a(S'p1_du'
I2
tp868
a(S'p1_cv'
I1
tp869
a(S'w'
I1
tp870
a(S'tr_lr'
I0
tp871
a(S'p2_du'
I0
tp872
a(S'p2_cv'
I1
tp873
a(S'p2_vo'
I0
tp874
a(S'w'
I729
tp875
a(S'fc_mo'
I1
tp876
a(S'w'
I733
tp877
a(S'fc_mo'
I1
tp878
a(S'w'
I734
tp879
a(S'fc_mo'
I1
tp880
a(S'w'
I734
tp881
a(S'fc_mo'
I1
tp882
a(S'w'
I734
tp883
a(S'fc_mo'
I1
tp884
a(S'w'
I734
tp885
a(S'fc_mo'
I1
tp886
a(S'w'
I733
tp887
a(S'fc_mo'
I1
tp888
a(S'w'
I734
tp889
a(S'fc_mo'
I1
tp890
a(S'w'
I734
tp891
a(S'fc_mo'
I1
tp892
a(S'w'
I734
tp893
a(S'fc_mo'
I1
tp894
a(S'w'
I734
tp895
a(S'fc_mo'
I1
tp896
a(S'w'
I733
tp897
a(S'fc_mo'
I1
tp898
a(S'w'
I734
tp899
a(S'fc_mo'
I1
tp900
a(S'w'
I734
tp901
a(S'fc_mo'
I1
tp902
a(S'w'
I734
tp903
a(S'fc_mo'
I1
tp904
a(S'w'
I734
tp905
a(S'fc_mo'
I1
tp906
a(S'w'
I733
tp907
a(S'fc_mo'
I1
tp908
a(S'w'
I734
tp909
a(S'fc_mo'
I1
tp910
a(S'w'
I734
tp911
a(S'fc_mo'
I1
tp912
a(S'w'
I734
tp913
a(S'fc_mo'
I1
tp914
a(S'w'
I733
tp915
a(S'fc_mo'
I1
tp916
a(S'w'
I734
tp917
a(S'fc_mo'
I1
tp918
a(S'w'
I734
tp919
a(S'fc_mo'
I1
tp920
a(S'w'
I734
tp921
a(S'fc_mo'
I1
tp922
a(S'w'
I734
tp923
a(S'fc_mo'
I1
tp924
a(S'w'
I733
tp925
a(S'fc_mo'
I1
tp926
a(S'w'
I734
tp927
a(S'fc_mo'
I1
tp928
a(S'w'
I734
tp929
a(S'fc_mo'
I1
tp930
a(S'w'
I734
tp931
a(S'fc_mo'
I1
tp932
a(S'w'
I734
tp933
a(S'fc_mo'
I1
tp934
a(S'w'
I733
tp935
a(S'fc_mo'
I1
tp936
a(S'w'
I734
tp937
a(S'fc_mo'
I1
tp938
a(S'w'
I734
tp939
a(S'fc_mo'
I1
tp940
a(S'w'
I734
tp941
a(S'fc_mo'
I1
tp942
a(S'w'
I734
tp943
a(S'fc_mo'
I1
tp944
a(S'w'
I733
tp945
a(S'fc_mo'
I1
tp946
a(S'w'
I734
tp947
a(S'fc_mo'
I1
tp948
a(S'w'
I734
tp949
a(S'fc_mo'
I1
tp950
a(S'w'
I734
tp951
a(S'fc_mo'
I1
tp952
a(S'w'
I734
tp953
a(S'fc_mo'
I1
tp954
a(S'w'
I733
tp955
a(S'fc_mo'
I1
tp956
a(S'w'
I734
tp957
a(S'fc_mo'
I1
tp958
a(S'w'
I734
tp959
a(S'fc_mo'
I1
tp960
a(S'w'
I734
tp961
a(S'fc_mo'
I1
tp962
a(S'w'
I733
tp963
a(S'fc_mo'
I1
tp964
a(S'w'
I734
tp965
a(S'fc_mo'
I1
tp966
a(S'w'
I734
tp967
a(S'fc_mo'
I1
tp968
a(S'w'
I734
tp969
a(S'fc_mo'
I1
tp970
a(S'w'
I734
tp971
a(S'fc_mo'
I1
tp972
a(S'w'
I733
tp973
a(S'fc_mo'
I1
tp974
a(S'w'
I734
tp975
a(S'fc_mo'
I1
tp976
a(S'w'
I734
tp977
a(S'fc_mo'
I1
tp978
a(S'w'
I734
tp979
a(S'fc_mo'
I1
tp980
a(S'w'
I734
tp981
a(S'fc_mo'
I1
tp982
a(S'w'
I733
tp983
a(S'fc_mo'
I1
tp984
a(S'w'
I734
tp985
a(S'fc_mo'
I1
tp986
a(S'w'
I734
tp987
a(S'fc_mo'
I1
tp988
a(S'w'
I734
tp989
a(S'fc_mo'
I1
tp990
a(S'w'
I734
tp991
a(S'fc_mo'
I1
tp992
a(S'w'
I733
tp993
a(S'fc_mo'
I1
tp994
a(S'w'
I710
tp995
a.