(lp1
(S'clock'
p2
I1789773
tp3
a(S'w'
I1
tp4
a(S'fc_mo'
I1
tp5
a(S'w'
I10
tp6
a(S'p2_tl'
I171
tp7
a(S'p2_ll'
I1
tp8
a(S'p2_th'
I1
tp9
a(S'p2_du'
I2
tp10
a(S'p2_cv'
I1
tp11
a(S'p2_vo'
I15
tp12
a(S'p2_sp'
I7
tp13
a(S'p2_sn'
I1
tp14
a(S'p2_ss'
I7
tp15
a(S'w'
I3
tp16
a(S'tr_lh'
I1
tp17
a(S'tr_lr'
I127
tp18
a(S'tr_tl'
I171
tp19
a(S'w'
I1
tp20
a(S'tr_ll'
I1
tp21
a(S'tr_th'
I1
tp22
a(S'w'
I720
tp23
a(S'fc_mo'
I1
tp24
a(S'w'
I734
tp25
a(S'fc_mo'
I1
tp26
a(S'w'
I734
tp27
a(S'fc_mo'
I1
tp28
a(S'w'
I734
tp29
a(S'fc_mo'
I1
tp30
a(S'w'
I733
tp31
a(S'fc_mo'
I1
tp32
a(S'w'
I734
tp33
a(S'fc_mo'
I1
tp34
a(S'w'
I734
tp35
a(S'fc_mo'
I1
tp36
a(S'w'
I734
tp37
a(S'fc_mo'
I1
tp38
a(S'w'
I734
tp39
a(S'fc_mo'
I1
tp40
a(S'w'
I733
tp41
a(S'fc_mo'
I1
tp42
a(S'w'
I734
tp43
a(S'fc_mo'
I1
tp44
a(S'w'
I734
tp45
a(S'fc_mo'
I1
tp46
a(S'w'
I734
tp47
a(S'fc_mo'
I1
tp48
a(S'w'
I734
tp49
a(S'fc_mo'
I1
tp50
a(S'w'
I733
tp51
a(S'fc_mo'
I1
tp52
a(S'w'
I734
tp53
a(S'fc_mo'
I1
tp54
a(S'w'
I734
tp55
a(S'fc_mo'
I1
tp56
a(S'w'
I734
tp57
a(S'fc_mo'
I1
tp58
a(S'w'
I734
tp59
a(S'fc_mo'
I1
tp60
a(S'w'
I733
tp61
a(S'fc_mo'
I1
tp62
a(S'w'
I734
tp63
a(S'fc_mo'
I1
tp64
a(S'w'
I734
tp65
a(S'fc_mo'
I1
tp66
a(S'w'
I734
tp67
a(S'fc_mo'
I1
tp68
a(S'w'
I734
tp69
a(S'fc_mo'
I1
tp70
a(S'w'
I733
tp71
a(S'fc_mo'
I1
tp72
a(S'w'
I734
tp73
a(S'fc_mo'
I1
tp74
a(S'w'
I734
tp75
a(S'fc_mo'
I1
tp76
a(S'w'
I734
tp77
a(S'fc_mo'
I1
tp78
a(S'w'
I733
tp79
a(S'fc_mo'
I1
tp80
a(S'w'
I734
tp81
a(S'fc_mo'
I1
tp82
a(S'w'
I5
tp83
a(S'p2_tl'
I58
tp84
a(S'w'
I1
tp85
a(S'p2_ll'
I1
tp86
a(S'p2_th'
I2
tp87
a(S'w'
I3
tp88
a(S'tr_tl'
I58
tp89
a(S'tr_ll'
I1
tp90
a(S'tr_th'
I2
tp91
a(S'w'
I725
tp92
a(S'fc_mo'
I1
tp93
a(S'w'
I734
tp94
a(S'fc_mo'
I1
tp95
a(S'w'
I734
tp96
a(S'fc_mo'
I1
tp97
a(S'w'
I733
tp98
a(S'fc_mo'
I1
tp99
a(S'w'
I734
tp100
a(S'fc_mo'
I1
tp101
a(S'w'
I734
tp102
a(S'fc_mo'
I1
tp103
a(S'w'
I734
tp104
a(S'fc_mo'
I1
tp105
a(S'w'
I734
tp106
a(S'fc_mo'
I1
tp107
a(S'w'
I733
tp108
a(S'fc_mo'
I1
tp109
a(S'w'
I734
tp110
a(S'fc_mo'
I1
tp111
a(S'w'
I5
tp112
a(S'p2_tl'
I171
tp113
a(S'w'
I1
tp114
a(S'p2_ll'
I1
tp115
a(S'p2_th'
I1
tp116
a(S'w'
I3
tp117
a(S'tr_tl'
I171
tp118
a(S'tr_ll'
I1
tp119
a(S'tr_th'
I1
tp120
a(S'w'
I725
tp121
a(S'fc_mo'
I1
tp122
a(S'w'
I734
tp123
a(S'fc_mo'
I1
tp124
a(S'w'
I734
tp125
a(S'fc_mo'
I1
tp126
a(S'w'
I733
tp127
a(S'fc_mo'
I1
tp128
a(S'w'
I734
tp129
a(S'fc_mo'
I1
tp130
a(S'w'
I734
tp131
a(S'fc_mo'
I1
tp132
a(S'w'
I734
tp133
a(S'fc_mo'
I1
tp134
a(S'w'
I734
tp135
a(S'fc_mo'
I1
tp136
a(S'w'
I733
tp137
a(S'fc_mo'
I1
tp138
a(S'w'
I734
tp139
a(S'fc_mo'
I1
tp140
a(S'w'
I734
tp141
a(S'fc_mo'
I1
tp142
a(S'w'
I734
tp143
a(S'fc_mo'
I1
tp144
a(S'w'
I733
tp145
a(S'fc_mo'
I1
tp146
a(S'w'
I734
tp147
a(S'fc_mo'
I1
tp148
a(S'w'
I734
tp149
a(S'fc_mo'
I1
tp150
a(S'w'
I734
tp151
a(S'fc_mo'
I1
tp152
a(S'w'
I734
tp153
a(S'fc_mo'
I1
tp154
a(S'w'
I733
tp155
a(S'fc_mo'
I1
tp156
a(S'w'
I734
tp157
a(S'fc_mo'
I1
tp158
a(S'w'
I734
tp159
a(S'fc_mo'
I1
tp160
a(S'w'
I734
tp161
a(S'fc_mo'
I1
tp162
a(S'w'
I734
tp163
a(S'fc_mo'
I1
tp164
a(S'w'
I733
tp165
a(S'fc_mo'
I1
tp166
a(S'w'
I734
tp167
a(S'fc_mo'
I1
tp168
a(S'w'
I734
tp169
a(S'fc_mo'
I1
tp170
a(S'w'
I734
tp171
a(S'fc_mo'
I1
tp172
a(S'w'
I734
tp173
a(S'fc_mo'
I1
tp174
a(S'w'
I733
tp175
a(S'fc_mo'
I1
tp176
a(S'w'
I734
tp177
a(S'fc_mo'
I1
tp178
a(S'w'
I734
tp179
a(S'fc_mo'
I1
tp180
a(S'w'
I5
tp181
a(S'p2_tl'
I58
tp182
a(S'w'
I1
tp183
a(S'p2_ll'
I1
tp184
a(S'p2_th'
I2
tp185
a(S'w'
I3
tp186
a(S'tr_tl'
I58
tp187
a(S'tr_ll'
I1
tp188
a(S'tr_th'
I2
tp189
a(S'w'
I725
tp190
a(S'fc_mo'
I1
tp191
a(S'w'
I734
tp192
a(S'fc_mo'
I1
tp193
a(S'w'
I733
tp194
a(S'fc_mo'
I1
tp195
a(S'w'
I734
tp196
a(S'fc_mo'
I1
tp197
a(S'w'
I734
tp198
a(S'fc_mo'
I1
tp199
a(S'w'
I734
tp200
a(S'fc_mo'
I1
tp201
a(S'w'
I733
tp202
a(S'fc_mo'
I1
tp203
a(S'w'
I734
tp204
a(S'fc_mo'
I1
tp205
a(S'w'
I734
tp206
a(S'fc_mo'
I1
tp207
a(S'w'
I734
tp208
a(S'fc_mo'
I1
tp209
a(S'w'
I5
tp210
a(S'p2_tl'
I171
tp211
a(S'w'
I1
tp212
a(S'p2_ll'
I1
tp213
a(S'p2_th'
I1
tp214
a(S'w'
I3
tp215
a(S'tr_tl'
I171
tp216
a(S'tr_ll'
I1
tp217
a(S'tr_th'
I1
tp218
a(S'w'
I725
tp219
a(S'fc_mo'
I1
tp220
a(S'w'
I733
tp221
a(S'fc_mo'
I1
tp222
a(S'w'
I734
tp223
a(S'fc_mo'
I1
tp224
a(S'w'
I734
tp225
a(S'fc_mo'
I1
tp226
a(S'w'
I734
tp227
a(S'fc_mo'
I1
tp228
a(S'w'
I734
tp229
a(S'fc_mo'
I1
tp230
a(S'w'
I733
tp231
a(S'fc_mo'
I1
tp232
a(S'w'
I734
tp233
a(S'fc_mo'
I1
tp234
a(S'w'
I734
tp235
a(S'fc_mo'
I1
tp236
a(S'w'
I734
tp237
a(S'fc_mo'
I1
tp238
a(S'w'
I5
tp239
a(S'p2_tl'
I58
tp240
a(S'w'
I1
tp241
a(S'p2_ll'
I1
tp242
a(S'p2_th'
I2
tp243
a(S'w'
I728
tp244
a(S'fc_mo'
I1
tp245
a(S'w'
I733
tp246
a(S'fc_mo'
I1
tp247
a(S'w'
I734
tp248
a(S'fc_mo'
I1
tp249
a(S'w'
I734
tp250
a(S'fc_mo'
I1
tp251
a(S'w'
I734
tp252
a(S'fc_mo'
I1
tp253
a(S'w'
I734
tp254
a(S'fc_mo'
I1
tp255
a(S'w'
I733
tp256
a(S'fc_mo'
I1
tp257
a(S'w'
I734
tp258
a(S'fc_mo'
I1
tp259
a(S'w'
I734
tp260
a(S'fc_mo'
I1
tp261
a(S'w'
I734
tp262
a(S'fc_mo'
I1
tp263
a(S'w'
I5
tp264
a(S'p2_tl'
I171
tp265
a(S'w'
I1
tp266
a(S'p2_ll'
I1
tp267
a(S'p2_th'
I1
tp268
a(S'w'
I727
tp269
a(S'fc_mo'
I1
tp270
a(S'w'
I734
tp271
a(S'fc_mo'
I1
tp272
a(S'w'
I734
tp273
a(S'fc_mo'
I1
tp274
a(S'w'
I734
tp275
a(S'fc_mo'
I1
tp276
a(S'w'
I734
tp277
a(S'fc_mo'
I1
tp278
a(S'w'
I733
tp279
a(S'fc_mo'
I1
tp280
a(S'w'
I734
tp281
a(S'fc_mo'
I1
tp282
a(S'w'
I734
tp283
a(S'fc_mo'
I1
tp284
a(S'w'
I734
tp285
a(S'fc_mo'
I1
tp286
a(S'w'
I734
tp287
a(S'fc_mo'
I1
tp288
a(S'w'
I5
tp289
a(S'p2_tl'
I82
tp290
a(S'w'
I1
tp291
a(S'p2_ll'
I1
tp292
a(S'w'
I727
tp293
a(S'fc_mo'
I1
tp294
a(S'w'
I734
tp295
a(S'fc_mo'
I1
tp296
a(S'w'
I734
tp297
a(S'fc_mo'
I1
tp298
a(S'w'
I734
tp299
a(S'fc_mo'
I1
tp300
a(S'w'
I734
tp301
a(S'fc_mo'
I1
tp302
a(S'w'
I733
tp303
a(S'fc_mo'
I1
tp304
a(S'w'
I734
tp305
a(S'fc_mo'
I1
tp306
a(S'w'
I734
tp307
a(S'fc_mo'
I1
tp308
a(S'w'
I734
tp309
a(S'fc_mo'
I1
tp310
a(S'w'
I734
tp311
a(S'fc_mo'
I1
tp312
a(S'w'
I5
tp313
a(S'p2_tl'
I28
tp314
a(S'w'
I1
tp315
a(S'p2_ll'
I1
tp316
a(S'w'
I727
tp317
a(S'fc_mo'
I1
tp318
a(S'w'
I734
tp319
a(S'fc_mo'
I1
tp320
a(S'w'
I734
tp321
a(S'fc_mo'
I1
tp322
a(S'w'
I734
tp323
a(S'fc_mo'
I1
tp324
a(S'w'
I733
tp325
a(S'fc_mo'
I1
tp326
a(S'w'
I734
tp327
a(S'fc_mo'
I1
tp328
a(S'w'
I734
tp329
a(S'fc_mo'
I1
tp330
a(S'w'
I734
tp331
a(S'fc_mo'
I1
tp332
a(S'w'
I734
tp333
a(S'fc_mo'
I1
tp334
a(S'w'
I733
tp335
a(S'fc_mo'
I1
tp336
a(S'w'
I734
tp337
a(S'fc_mo'
I1
tp338
a(S'w'
I734
tp339
a(S'fc_mo'
I1
tp340
a(S'w'
I734
tp341
a(S'fc_mo'
I1
tp342
a(S'w'
I734
tp343
a(S'fc_mo'
I1
tp344
a(S'w'
I733
tp345
a(S'fc_mo'
I1
tp346
a(S'w'
I734
tp347
a(S'fc_mo'
I1
tp348
a(S'w'
I734
tp349
a(S'fc_mo'
I1
tp350
a(S'w'
I734
tp351
a(S'fc_mo'
I1
tp352
a(S'w'
I734
tp353
a(S'fc_mo'
I1
tp354
a(S'w'
I733
tp355
a(S'fc_mo'
I1
tp356
a(S'w'
I734
tp357
a(S'fc_mo'
I1
tp358
a(S'w'
I734
tp359
a(S'fc_mo'
I1
tp360
a(S'w'
I734
tp361
a(S'fc_mo'
I1
tp362
a(S'w'
I734
tp363
a(S'fc_mo'
I1
tp364
a(S'w'
I733
tp365
a(S'fc_mo'
I1
tp366
a(S'w'
I734
tp367
a(S'fc_mo'
I1
tp368
a(S'w'
I734
tp369
a(S'fc_mo'
I1
tp370
a(S'w'
I734
tp371
a(S'fc_mo'
I1
tp372
a(S'w'
I733
tp373
a(S'fc_mo'
I1
tp374
a(S'w'
I734
tp375
a(S'fc_mo'
I1
tp376
a(S'w'
I734
tp377
a(S'fc_mo'
I1
tp378
a(S'w'
I734
tp379
a(S'fc_mo'
I1
tp380
a(S'w'
I734
tp381
a(S'fc_mo'
I1
tp382
a(S'w'
I733
tp383
a(S'fc_mo'
I1
tp384
a(S'w'
I734
tp385
a(S'fc_mo'
I1
tp386
a(S'w'
I734
tp387
a(S'fc_mo'
I1
tp388
a(S'w'
I734
tp389
a(S'fc_mo'
I1
tp390
a(S'w'
I734
tp391
a(S'fc_mo'
I1
tp392
a(S'w'
I733
tp393
a(S'fc_mo'
I1
tp394
a(S'w'
I734
tp395
a(S'fc_mo'
I1
tp396
a(S'w'
I5
tp397
a(S'p2_tl'
I63
tp398
a(S'w'
I1
tp399
a(S'p2_ll'
I1
tp400
a(S'w'
I3
tp401
a(S'tr_tl'
I124
tp402
a(S'tr_ll'
I1
tp403
a(S'w'
I725
tp404
a(S'fc_mo'
I1
tp405
a(S'w'
I734
tp406
a(S'fc_mo'
I1
tp407
a(S'w'
I734
tp408
a(S'fc_mo'
I1
tp409
a(S'w'
I733
tp410
a(S'fc_mo'
I1
tp411
a(S'w'
I734
tp412
a(S'fc_mo'
I1
tp413
a(S'w'
I734
tp414
a(S'fc_mo'
I1
tp415
a(S'w'
I734
tp416
a(S'fc_mo'
I1
tp417
a(S'w'
I734
tp418
a(S'fc_mo'
I1
tp419
a(S'w'
I733
tp420
a(S'fc_mo'
I1
tp421
a(S'w'
I734
tp422
a(S'fc_mo'
I1
tp423
a(S'w'
I734
tp424
a(S'fc_mo'
I1
tp425
a(S'w'
I734
tp426
a(S'fc_mo'
I1
tp427
a(S'w'
I733
tp428
a(S'fc_mo'
I1
tp429
a(S'w'
I734
tp430
a(S'fc_mo'
I1
tp431
a(S'w'
I734
tp432
a(S'fc_mo'
I1
tp433
a(S'w'
I734
tp434
a(S'fc_mo'
I1
tp435
a(S'w'
I734
tp436
a(S'fc_mo'
I1
tp437
a(S'w'
I733
tp438
a(S'fc_mo'
I1
tp439
a(S'w'
I734
tp440
a(S'fc_mo'
I1
tp441
a(S'w'
I734
tp442
a(S'fc_mo'
I1
tp443
a(S'w'
I734
tp444
a(S'fc_mo'
I1
tp445
a(S'w'
I734
tp446
a(S'fc_mo'
I1
tp447
a(S'w'
I733
tp448
a(S'fc_mo'
I1
tp449
a(S'w'
I734
tp450
a(S'fc_mo'
I1
tp451
a(S'w'
I734
tp452
a(S'fc_mo'
I1
tp453
a(S'w'
I734
tp454
a(S'fc_mo'
I1
tp455
a(S'w'
I734
tp456
a(S'fc_mo'
I1
tp457
a(S'w'
I733
tp458
a(S'fc_mo'
I1
tp459
a(S'w'
I734
tp460
a(S'fc_mo'
I1
tp461
a(S'w'
I734
tp462
a(S'fc_mo'
I1
tp463
a(S'w'
I5
tp464
a(S'p2_tl'
I124
tp465
a(S'w'
I1
tp466
a(S'p2_ll'
I1
tp467
a(S'w'
I3
tp468
a(S'tr_tl'
I196
tp469
a(S'tr_ll'
I1
tp470
a(S'w'
I725
tp471
a(S'fc_mo'
I1
tp472
a(S'w'
I734
tp473
a(S'fc_mo'
I1
tp474
a(S'w'
I733
tp475
a(S'fc_mo'
I1
tp476
a(S'w'
I734
tp477
a(S'fc_mo'
I1
tp478
a(S'w'
I734
tp479
a(S'fc_mo'
I1
tp480
a(S'w'
I734
tp481
a(S'fc_mo'
I1
tp482
a(S'w'
I733
tp483
a(S'fc_mo'
I1
tp484
a(S'w'
I734
tp485
a(S'fc_mo'
I1
tp486
a(S'w'
I734
tp487
a(S'fc_mo'
I1
tp488
a(S'w'
I734
tp489
a(S'fc_mo'
I1
tp490
a(S'w'
I5
tp491
a(S'p2_tl'
I63
tp492
a(S'w'
I1
tp493
a(S'p2_ll'
I1
tp494
a(S'w'
I3
tp495
a(S'tr_tl'
I124
tp496
a(S'tr_ll'
I1
tp497
a(S'w'
I725
tp498
a(S'fc_mo'
I1
tp499
a(S'w'
I733
tp500
a(S'fc_mo'
I1
tp501
a(S'w'
I734
tp502
a(S'fc_mo'
I1
tp503
a(S'w'
I734
tp504
a(S'fc_mo'
I1
tp505
a(S'w'
I734
tp506
a(S'fc_mo'
I1
tp507
a(S'w'
I734
tp508
a(S'fc_mo'
I1
tp509
a(S'w'
I733
tp510
a(S'fc_mo'
I1
tp511
a(S'w'
I734
tp512
a(S'fc_mo'
I1
tp513
a(S'w'
I734
tp514
a(S'fc_mo'
I1
tp515
a(S'w'
I734
tp516
a(S'fc_mo'
I1
tp517
a(S'w'
I734
tp518
a(S'fc_mo'
I1
tp519
a(S'w'
I733
tp520
a(S'fc_mo'
I1
tp521
a(S'w'
I734
tp522
a(S'fc_mo'
I1
tp523
a(S'w'
I734
tp524
a(S'fc_mo'
I1
tp525
a(S'w'
I734
tp526
a(S'fc_mo'
I1
tp527
a(S'w'
I734
tp528
a(S'fc_mo'
I1
tp529
a(S'w'
I733
tp530
a(S'fc_mo'
I1
tp531
a(S'w'
I734
tp532
a(S'fc_mo'
I1
tp533
a(S'w'
I734
tp534
a(S'fc_mo'
I1
tp535
a(S'w'
I734
tp536
a(S'fc_mo'
I1
tp537
a(S'w'
I733
tp538
a(S'fc_mo'
I1
tp539
a(S'w'
I734
tp540
a(S'fc_mo'
I1
tp541
a(S'w'
I734
tp542
a(S'fc_mo'
I1
tp543
a(S'w'
I734
tp544
a(S'fc_mo'
I1
tp545
a(S'w'
I734
tp546
a(S'fc_mo'
I1
tp547
a(S'w'
I733
tp548
a(S'fc_mo'
I1
tp549
a(S'w'
I734
tp550
a(S'fc_mo'
I1
tp551
a(S'w'
I734
tp552
a(S'fc_mo'
I1
tp553
a(S'w'
I734
tp554
a(S'fc_mo'
I1
tp555
a(S'w'
I734
tp556
a(S'fc_mo'
I1
tp557
a(S'w'
I5
tp558
a(S'p2_tl'
I124
tp559
a(S'w'
I1
tp560
a(S'p2_ll'
I1
tp561
a(S'w'
I3
tp562
a(S'tr_tl'
I196
tp563
a(S'tr_ll'
I1
tp564
a(S'w'
I724
tp565
a(S'fc_mo'
I1
tp566
a(S'w'
I734
tp567
a(S'fc_mo'
I1
tp568
a(S'w'
I734
tp569
a(S'fc_mo'
I1
tp570
a(S'w'
I734
tp571
a(S'fc_mo'
I1
tp572
a(S'w'
I734
tp573
a(S'fc_mo'
I1
tp574
a(S'w'
I733
tp575
a(S'fc_mo'
I1
tp576
a(S'w'
I734
tp577
a(S'fc_mo'
I1
tp578
a(S'w'
I734
tp579
a(S'fc_mo'
I1
tp580
a(S'w'
I734
tp581
a(S'fc_mo'
I1
tp582
a(S'w'
I734
tp583
a(S'fc_mo'
I1
tp584
a(S'w'
I5
tp585
a(S'p2_tl'
I63
tp586
a(S'w'
I1
tp587
a(S'p2_ll'
I1
tp588
a(S'w'
I3
tp589
a(S'tr_tl'
I124
tp590
a(S'tr_ll'
I1
tp591
a(S'w'
I724
tp592
a(S'fc_mo'
I1
tp593
a(S'w'
I734
tp594
a(S'fc_mo'
I1
tp595
a(S'w'
I734
tp596
a(S'fc_mo'
I1
tp597
a(S'w'
I734
tp598
a(S'fc_mo'
I1
tp599
a(S'w'
I733
tp600
a(S'fc_mo'
I1
tp601
a(S'w'
I734
tp602
a(S'fc_mo'
I1
tp603
a(S'w'
I734
tp604
a(S'fc_mo'
I1
tp605
a(S'w'
I734
tp606
a(S'fc_mo'
I1
tp607
a(S'w'
I734
tp608
a(S'fc_mo'
I1
tp609
a(S'w'
I733
tp610
a(S'fc_mo'
I1
tp611
a(S'w'
I5
tp612
a(S'p2_tl'
I124
tp613
a(S'w'
I1
tp614
a(S'p2_ll'
I1
tp615
a(S'w'
I728
tp616
a(S'fc_mo'
I1
tp617
a(S'w'
I734
tp618
a(S'fc_mo'
I1
tp619
a(S'w'
I734
tp620
a(S'fc_mo'
I1
tp621
a(S'w'
I734
tp622
a(S'fc_mo'
I1
tp623
a(S'w'
I733
tp624
a(S'fc_mo'
I1
tp625
a(S'w'
I734
tp626
a(S'fc_mo'
I1
tp627
a(S'w'
I734
tp628
a(S'fc_mo'
I1
tp629
a(S'w'
I734
tp630
a(S'fc_mo'
I1
tp631
a(S'w'
I734
tp632
a(S'fc_mo'
I1
tp633
a(S'w'
I733
tp634
a(S'fc_mo'
I1
tp635
a(S'w'
I5
tp636
a(S'p2_tl'
I196
tp637
a(S'w'
I1
tp638
a(S'p2_ll'
I1
tp639
a(S'w'
I3
tp640
a(S'tr_tl'
I196
tp641
a(S'tr_ll'
I1
tp642
a(S'w'
I725
tp643
a(S'fc_mo'
I1
tp644
a(S'w'
I734
tp645
a(S'fc_mo'
I1
tp646
a(S'w'
I734
tp647
a(S'fc_mo'
I1
tp648
a(S'w'
I734
tp649
a(S'fc_mo'
I1
tp650
a(S'w'
I733
tp651
a(S'fc_mo'
I1
tp652
a(S'w'
I734
tp653
a(S'fc_mo'
I1
tp654
a(S'w'
I734
tp655
a(S'fc_mo'
I1
tp656
a(S'w'
I734
tp657
a(S'fc_mo'
I1
tp658
a(S'w'
I733
tp659
a(S'fc_mo'
I1
tp660
a(S'w'
I734
tp661
a(S'fc_mo'
I1
tp662
a(S'w'
I5
tp663
a(S'p2_tl'
I124
tp664
a(S'w'
I1
tp665
a(S'p2_ll'
I1
tp666
a(S'w'
I728
tp667
a(S'fc_mo'
I1
tp668
a(S'w'
I734
tp669
a(S'fc_mo'
I1
tp670
a(S'w'
I734
tp671
a(S'fc_mo'
I1
tp672
a(S'w'
I733
tp673
a(S'fc_mo'
I1
tp674
a(S'w'
I734
tp675
a(S'fc_mo'
I1
tp676
a(S'w'
I734
tp677
a(S'fc_mo'
I1
tp678
a(S'w'
I734
tp679
a(S'fc_mo'
I1
tp680
a(S'w'
I734
tp681
a(S'fc_mo'
I1
tp682
a(S'w'
I733
tp683
a(S'fc_mo'
I1
tp684
a(S'w'
I734
tp685
a(S'fc_mo'
I1
tp686
a(S'w'
I5
tp687
a(S'p2_tl'
I58
tp688
a(S'w'
I1
tp689
a(S'p2_ll'
I1
tp690
a(S'p2_th'
I2
tp691
a(S'w'
I3
tp692
a(S'tr_tl'
I58
tp693
a(S'tr_ll'
I1
tp694
a(S'tr_th'
I2
tp695
a(S'w'
I725
tp696
a(S'fc_mo'
I1
tp697
a(S'w'
I734
tp698
a(S'fc_mo'
I1
tp699
a(S'w'
I734
tp700
a(S'fc_mo'
I1
tp701
a(S'w'
I733
tp702
a(S'fc_mo'
I1
tp703
a(S'w'
I734
tp704
a(S'fc_mo'
I1
tp705
a(S'w'
I734
tp706
a(S'fc_mo'
I1
tp707
a(S'w'
I734
tp708
a(S'fc_mo'
I1
tp709
a(S'w'
I734
tp710
a(S'fc_mo'
I1
tp711
a(S'w'
I733
tp712
a(S'fc_mo'
I1
tp713
a(S'w'
I734
tp714
a(S'fc_mo'
I1
tp715
a(S'w'
I734
tp716
a(S'fc_mo'
I1
tp717
a(S'w'
I734
tp718
a(S'fc_mo'
I1
tp719
a(S'w'
I733
tp720
a(S'fc_mo'
I1
tp721
a(S'w'
I734
tp722
a(S'fc_mo'
I1
tp723
a(S'w'
I734
tp724
a(S'fc_mo'
I1
tp725
a(S'w'
I734
tp726
a(S'fc_mo'
I1
tp727
a(S'w'
I734
tp728
a(S'fc_mo'
I1
tp729
a(S'w'
I733
tp730
a(S'fc_mo'
I1
tp731
a(S'w'
I734
tp732
a(S'fc_mo'
I1
tp733
a(S'w'
I734
tp734
a(S'fc_mo'
I1
tp735
a(S'w'
I734
tp736
a(S'fc_mo'
I1
tp737
a(S'w'
I734
tp738
a(S'fc_mo'
I1
tp739
a(S'w'
I733
tp740
a(S'fc_mo'
I1
tp741
a(S'w'
I734
tp742
a(S'fc_mo'
I1
tp743
a(S'w'
I734
tp744
a(S'fc_mo'
I1
tp745
a(S'w'
I734
tp746
a(S'fc_mo'
I1
tp747
a(S'w'
I734
tp748
a(S'fc_mo'
I1
tp749
a(S'w'
I733
tp750
a(S'fc_mo'
I1
tp751
a(S'w'
I734
tp752
a(S'fc_mo'
I1
tp753
a(S'w'
I734
tp754
a(S'fc_mo'
I1
tp755
a(S'w'
I734
tp756
a(S'fc_mo'
I1
tp757
a(S'w'
I734
tp758
a(S'fc_mo'
I1
tp759
a(S'w'
I733
tp760
a(S'fc_mo'
I1
tp761
a(S'w'
I734
tp762
a(S'fc_mo'
I1
tp763
a(S'w'
I734
tp764
a(S'fc_mo'
I1
tp765
a(S'w'
I734
tp766
a(S'fc_mo'
I1
tp767
a(S'w'
I733
tp768
a(S'fc_mo'
I1
tp769
a(S'w'
I734
tp770
a(S'fc_mo'
I1
tp771
a(S'w'
I734
tp772
a(S'fc_mo'
I1
tp773
a(S'w'
I734
tp774
a(S'fc_mo'
I1
tp775
a(S'w'
I4
tp776
a(S'p1_du'
I2
tp777
a(S'p1_cv'
I1
tp778
a(S'w'
I1
tp779
a(S'tr_lh'
I0
tp780
a(S'tr_lr'
I0
tp781
a(S'p2_du'
I0
tp782
a(S'p2_vo'
I0
tp783
a(S'w'
I729
tp784
a(S'fc_mo'
I1
tp785
a(S'w'
I733
tp786
a(S'fc_mo'
I1
tp787
a(S'w'
I734
tp788
a(S'fc_mo'
I1
tp789
a(S'w'
I734
tp790
a(S'fc_mo'
I1
tp791
a(S'w'
I734
tp792
a(S'fc_mo'
I1
tp793
a(S'w'
I734
tp794
a(S'fc_mo'
I1
tp795
a(S'w'
I733
tp796
a(S'fc_mo'
I1
tp797
a(S'w'
I734
tp798
a(S'fc_mo'
I1
tp799
a(S'w'
I734
tp800
a(S'fc_mo'
I1
tp801
a(S'w'
I734
tp802
a(S'fc_mo'
I1
tp803
a(S'w'
I734
tp804
a(S'fc_mo'
I1
tp805
a(S'w'
I733
tp806
a(S'fc_mo'
I1
tp807
a(S'w'
I734
tp808
a(S'fc_mo'
I1
tp809
a(S'w'
I734
tp810
a(S'fc_mo'
I1
tp811
a(S'w'
I734
tp812
a(S'fc_mo'
I1
tp813
a(S'w'
I734
tp814
a(S'fc_mo'
I1
tp815
a(S'w'
I733
tp816
a(S'fc_mo'
I1
tp817
a(S'w'
I734
tp818
a(S'fc_mo'
I1
tp819
a(S'w'
I734
tp820
a(S'fc_mo'
I1
tp821
a(S'w'
I734
tp822
a(S'fc_mo'
I1
tp823
a(S'w'
I733
tp824
a(S'fc_mo'
I1
tp825
a(S'w'
I734
tp826
a(S'fc_mo'
I1
tp827
a(S'w'
I734
tp828
a(S'fc_mo'
I1
tp829
a(S'w'
I734
tp830
a(S'fc_mo'
I1
tp831
a(S'w'
I734
tp832
a(S'fc_mo'
I1
tp833
a(S'w'
I733
tp834
a(S'fc_mo'
I1
tp835
a(S'w'
I734
tp836
a(S'fc_mo'
I1
tp837
a(S'w'
I734
tp838
a(S'fc_mo'
I1
tp839
a(S'w'
I734
tp840
a(S'fc_mo'
I1
tp841
a(S'w'
I734
tp842
a(S'fc_mo'
I1
tp843
a(S'w'
I733
tp844
a(S'fc_mo'
I1
tp845
a(S'w'
I734
tp846
a(S'fc_mo'
I1
tp847
a(S'w'
I734
tp848
a(S'fc_mo'
I1
tp849
a(S'w'
I734
tp850
a(S'fc_mo'
I1
tp851
a(S'w'
I734
tp852
a(S'fc_mo'
I1
tp853
a(S'w'
I733
tp854
a(S'fc_mo'
I1
tp855
a(S'w'
I734
tp856
a(S'fc_mo'
I1
tp857
a(S'w'
I734
tp858
a(S'fc_mo'
I1
tp859
a(S'w'
I734
tp860
a(S'fc_mo'
I1
tp861
a(S'w'
I734
tp862
a(S'fc_mo'
I1
tp863
a(S'w'
I733
tp864
a(S'fc_mo'
I1
tp865
a(S'w'
I734
tp866
a(S'fc_mo'
I1
tp867
a(S'w'
I734
tp868
a(S'fc_mo'
I1
tp869
a(S'w'
I734
tp870
a(S'fc_mo'
I1
tp871
a(S'w'
I733
tp872
a(S'fc_mo'
I1
tp873
a(S'w'
I734
tp874
a(S'fc_mo'
I1
tp875
a(S'w'
I734
tp876
a(S'fc_mo'
I1
tp877
a(S'w'
I734
tp878
a(S'fc_mo'
I1
tp879
a(S'w'
I734
tp880
a(S'fc_mo'
I1
tp881
a(S'w'
I733
tp882
a(S'fc_mo'
I1
tp883
a(S'w'
I734
tp884
a(S'fc_mo'
I1
tp885
a(S'w'
I734
tp886
a(S'fc_mo'
I1
tp887
a(S'w'
I734
tp888
a(S'fc_mo'
I1
tp889
a(S'w'
I734
tp890
a(S'fc_mo'
I1
tp891
a(S'w'
I733
tp892
a(S'fc_mo'
I1
tp893
a(S'w'
I734
tp894
a(S'fc_mo'
I1
tp895
a(S'w'
I734
tp896
a(S'fc_mo'
I1
tp897
a(S'w'
I734
tp898
a(S'fc_mo'
I1
tp899
a(S'w'
I734
tp900
a(S'fc_mo'
I1
tp901
a(S'w'
I733
tp902
a(S'fc_mo'
I1
tp903
a(S'w'
I734
tp904
a(S'fc_mo'
I1
tp905
a(S'w'
I734
tp906
a(S'fc_mo'
I1
tp907
a(S'w'
I734
tp908
a(S'fc_mo'
I1
tp909
a(S'w'
I734
tp910
a(S'fc_mo'
I1
tp911
a(S'w'
I733
tp912
a(S'fc_mo'
I1
tp913
a(S'w'
I734
tp914
a(S'fc_mo'
I1
tp915
a(S'w'
I734
tp916
a(S'fc_mo'
I1
tp917
a(S'w'
I734
tp918
a(S'fc_mo'
I1
tp919
a(S'w'
I733
tp920
a(S'fc_mo'
I1
tp921
a(S'w'
I734
tp922
a(S'fc_mo'
I1
tp923
a(S'w'
I734
tp924
a(S'fc_mo'
I1
tp925
a(S'w'
I734
tp926
a(S'fc_mo'
I1
tp927
a(S'w'
I734
tp928
a(S'fc_mo'
I1
tp929
a(S'w'
I733
tp930
a(S'fc_mo'
I1
tp931
a(S'w'
I677
tp932
a.