(lp1
(S'clock'
p2
I1789772
tp3
a(S'w'
I61
tp4
a(S'p1_ll'
I0
tp5
a(S'w'
I61
tp6
a(S'p2_ll'
I0
tp7
a(S'w'
I44
tp8
a(S'w'
I1
tp9
a(S'tr_ll'
I0
tp10
a(S'w'
I4
tp11
a(S'ch_no'
I0
tp12
a(S'ch_tr'
I1
tp13
a(S'ch_p2'
I1
tp14
a(S'ch_p1'
I1
tp15
a(S'w'
I573
tp16
a(S'p1_du'
I3
tp17
a(S'p1_lh'
I1
tp18
a(S'p1_cv'
I1
tp19
a(S'p1_vo'
I8
tp20
a(S'w'
I3
tp21
a(S'p1_tl'
I213
tp22
a(S'w'
I1
tp23
a(S'p1_ll'
I1
tp24
a(S'w'
I10
tp25
a(S'p2_du'
I3
tp26
a(S'p2_lh'
I1
tp27
a(S'p2_cv'
I1
tp28
a(S'p2_vo'
I8
tp29
a(S'w'
I3
tp30
a(S'p2_tl'
I103
tp31
a(S'w'
I1
tp32
a(S'p2_ll'
I1
tp33
a(S'p2_th'
I1
tp34
a(S'w'
I8
tp35
a(S'tr_lh'
I1
tp36
a(S'tr_lr'
I1
tp37
a(S'w'
I3
tp38
a(S'tr_tl'
I13
tp39
a(S'tr_ll'
I1
tp40
a(S'tr_th'
I1
tp41
a(S'w'
I708
tp42
a(S'w'
I14
tp43
a(S'w'
I720
tp44
a(S'w'
I14
tp45
a(S'w'
I720
tp46
a(S'w'
I14
tp47
a(S'w'
I719
tp48
a(S'w'
I14
tp49
a(S'w'
I720
tp50
a(S'w'
I14
tp51
a(S'w'
I720
tp52
a(S'w'
I14
tp53
a(S'w'
I728
tp54
a(S'p1_tl'
I0
tp55
a(S'p1_ll'
I0
tp56
a(S'w'
I21
tp57
a(S'p2_tl'
I0
tp58
a(S'p2_ll'
I0
tp59
a(S'p2_th'
I0
tp60
a(S'w'
I705
tp61
a(S'p1_tl'
I213
tp62
a(S'w'
I1
tp63
a(S'p1_ll'
I1
tp64
a(S'w'
I13
tp65
a(S'p2_tl'
I103
tp66
a(S'w'
I1
tp67
a(S'p2_ll'
I1
tp68
a(S'p2_th'
I1
tp69
a(S'w'
I718
tp70
a(S'w'
I14
tp71
a(S'w'
I720
tp72
a(S'w'
I14
tp73
a(S'w'
I720
tp74
a(S'w'
I14
tp75
a(S'w'
I720
tp76
a(S'w'
I14
tp77
a(S'w'
I720
tp78
a(S'w'
I14
tp79
a(S'w'
I719
tp80
a(S'w'
I14
tp81
a(S'w'
I728
tp82
a(S'p1_tl'
I0
tp83
a(S'p1_ll'
I0
tp84
a(S'w'
I21
tp85
a(S'p2_tl'
I0
tp86
a(S'p2_ll'
I0
tp87
a(S'p2_th'
I0
tp88
a(S'w'
I18
tp89
a(S'tr_tl'
I0
tp90
a(S'tr_ll'
I0
tp91
a(S'tr_th'
I0
tp92
a(S'w'
I687
tp93
a(S'p1_tl'
I213
tp94
a(S'w'
I1
tp95
a(S'p1_ll'
I1
tp96
a(S'w'
I13
tp97
a(S'p2_tl'
I103
tp98
a(S'w'
I1
tp99
a(S'p2_ll'
I1
tp100
a(S'p2_th'
I1
tp101
a(S'w'
I719
tp102
a(S'w'
I14
tp103
a(S'w'
I720
tp104
a(S'w'
I14
tp105
a(S'w'
I719
tp106
a(S'w'
I14
tp107
a(S'w'
I720
tp108
a(S'w'
I14
tp109
a(S'w'
I720
tp110
a(S'w'
I14
tp111
a(S'w'
I720
tp112
a(S'w'
I14
tp113
a(S'w'
I728
tp114
a(S'p1_tl'
I0
tp115
a(S'p1_ll'
I0
tp116
a(S'w'
I21
tp117
a(S'p2_tl'
I0
tp118
a(S'p2_ll'
I0
tp119
a(S'p2_th'
I0
tp120
a(S'w'
I22
tp121
a(S'tr_ll'
I0
tp122
a(S'w'
I682
tp123
a(S'p1_tl'
I240
tp124
a(S'w'
I1
tp125
a(S'p1_ll'
I1
tp126
a(S'w'
I13
tp127
a(S'p2_tl'
I103
tp128
a(S'w'
I1
tp129
a(S'p2_ll'
I1
tp130
a(S'p2_th'
I1
tp131
a(S'w'
I11
tp132
a(S'tr_tl'
I13
tp133
a(S'tr_ll'
I1
tp134
a(S'tr_th'
I1
tp135
a(S'w'
I708
tp136
a(S'w'
I14
tp137
a(S'w'
I720
tp138
a(S'w'
I14
tp139
a(S'w'
I720
tp140
a(S'w'
I14
tp141
a(S'w'
I719
tp142
a(S'w'
I14
tp143
a(S'w'
I720
tp144
a(S'w'
I14
tp145
a(S'w'
I720
tp146
a(S'w'
I14
tp147
a(S'w'
I728
tp148
a(S'p1_tl'
I0
tp149
a(S'p1_ll'
I0
tp150
a(S'w'
I21
tp151
a(S'p2_tl'
I0
tp152
a(S'p2_ll'
I0
tp153
a(S'p2_th'
I0
tp154
a(S'w'
I705
tp155
a(S'p1_tl'
I240
tp156
a(S'w'
I1
tp157
a(S'p1_ll'
I1
tp158
a(S'w'
I13
tp159
a(S'p2_tl'
I103
tp160
a(S'w'
I1
tp161
a(S'p2_ll'
I1
tp162
a(S'p2_th'
I1
tp163
a(S'w'
I718
tp164
a(S'w'
I14
tp165
a(S'w'
I720
tp166
a(S'w'
I14
tp167
a(S'w'
I720
tp168
a(S'w'
I14
tp169
a(S'w'
I720
tp170
a(S'w'
I14
tp171
a(S'w'
I720
tp172
a(S'w'
I14
tp173
a(S'w'
I719
tp174
a(S'w'
I14
tp175
a(S'w'
I728
tp176
a(S'p1_tl'
I0
tp177
a(S'p1_ll'
I0
tp178
a(S'w'
I21
tp179
a(S'p2_tl'
I0
tp180
a(S'p2_ll'
I0
tp181
a(S'p2_th'
I0
tp182
a(S'w'
I705
tp183
a(S'p1_tl'
I240
tp184
a(S'w'
I1
tp185
a(S'p1_ll'
I1
tp186
a(S'w'
I13
tp187
a(S'p2_tl'
I103
tp188
a(S'w'
I1
tp189
a(S'p2_ll'
I1
tp190
a(S'p2_th'
I1
tp191
a(S'w'
I719
tp192
a(S'w'
I14
tp193
a(S'w'
I720
tp194
a(S'w'
I14
tp195
a(S'w'
I719
tp196
a(S'w'
I14
tp197
a(S'w'
I720
tp198
a(S'w'
I14
tp199
a(S'w'
I720
tp200
a(S'w'
I14
tp201
a(S'w'
I720
tp202
a(S'w'
I14
tp203
a(S'w'
I728
tp204
a(S'p1_tl'
I0
tp205
a(S'p1_ll'
I0
tp206
a(S'w'
I21
tp207
a(S'p2_tl'
I0
tp208
a(S'p2_ll'
I0
tp209
a(S'p2_th'
I0
tp210
a(S'w'
I704
tp211
a(S'p1_tl'
I201
tp212
a(S'w'
I1
tp213
a(S'p1_ll'
I1
tp214
a(S'w'
I13
tp215
a(S'p2_tl'
I103
tp216
a(S'w'
I1
tp217
a(S'p2_ll'
I1
tp218
a(S'p2_th'
I1
tp219
a(S'w'
I719
tp220
a(S'w'
I14
tp221
a(S'w'
I720
tp222
a(S'w'
I14
tp223
a(S'w'
I720
tp224
a(S'w'
I14
tp225
a(S'w'
I719
tp226
a(S'w'
I14
tp227
a(S'w'
I720
tp228
a(S'w'
I14
tp229
a(S'w'
I720
tp230
a(S'w'
I14
tp231
a(S'w'
I728
tp232
a(S'p1_tl'
I0
tp233
a(S'p1_ll'
I0
tp234
a(S'w'
I21
tp235
a(S'p2_tl'
I0
tp236
a(S'p2_ll'
I0
tp237
a(S'p2_th'
I0
tp238
a(S'w'
I705
tp239
a(S'p1_tl'
I201
tp240
a(S'w'
I1
tp241
a(S'p1_ll'
I1
tp242
a(S'w'
I13
tp243
a(S'p2_tl'
I103
tp244
a(S'w'
I1
tp245
a(S'p2_ll'
I1
tp246
a(S'p2_th'
I1
tp247
a(S'w'
I718
tp248
a(S'w'
I14
tp249
a(S'w'
I720
tp250
a(S'w'
I14
tp251
a(S'w'
I720
tp252
a(S'w'
I14
tp253
a(S'w'
I720
tp254
a(S'w'
I14
tp255
a(S'w'
I720
tp256
a(S'w'
I14
tp257
a(S'w'
I719
tp258
a(S'w'
I14
tp259
a(S'w'
I728
tp260
a(S'p1_tl'
I0
tp261
a(S'p1_ll'
I0
tp262
a(S'w'
I21
tp263
a(S'p2_tl'
I0
tp264
a(S'p2_ll'
I0
tp265
a(S'p2_th'
I0
tp266
a(S'w'
I705
tp267
a(S'p1_tl'
I201
tp268
a(S'w'
I1
tp269
a(S'p1_ll'
I1
tp270
a(S'w'
I13
tp271
a(S'p2_tl'
I103
tp272
a(S'w'
I1
tp273
a(S'p2_ll'
I1
tp274
a(S'p2_th'
I1
tp275
a(S'w'
I719
tp276
a(S'w'
I14
tp277
a(S'w'
I720
tp278
a(S'w'
I14
tp279
a(S'w'
I719
tp280
a(S'w'
I14
tp281
a(S'w'
I720
tp282
a(S'w'
I14
tp283
a(S'w'
I720
tp284
a(S'w'
I14
tp285
a(S'w'
I720
tp286
a(S'w'
I14
tp287
a(S'w'
I728
tp288
a(S'p1_tl'
I0
tp289
a(S'p1_ll'
I0
tp290
a(S'w'
I21
tp291
a(S'p2_tl'
I0
tp292
a(S'p2_ll'
I0
tp293
a(S'p2_th'
I0
tp294
a(S'w'
I704
tp295
a(S'p1_tl'
I213
tp296
a(S'w'
I1
tp297
a(S'p1_ll'
I1
tp298
a(S'w'
I13
tp299
a(S'p2_tl'
I103
tp300
a(S'w'
I1
tp301
a(S'p2_ll'
I1
tp302
a(S'p2_th'
I1
tp303
a(S'w'
I719
tp304
a(S'w'
I14
tp305
a(S'w'
I720
tp306
a(S'w'
I14
tp307
a(S'w'
I720
tp308
a(S'w'
I14
tp309
a(S'w'
I719
tp310
a(S'w'
I14
tp311
a(S'w'
I720
tp312
a(S'w'
I14
tp313
a(S'w'
I720
tp314
a(S'w'
I14
tp315
a(S'w'
I728
tp316
a(S'p1_tl'
I0
tp317
a(S'p1_ll'
I0
tp318
a(S'w'
I21
tp319
a(S'p2_tl'
I0
tp320
a(S'p2_ll'
I0
tp321
a(S'p2_th'
I0
tp322
a(S'w'
I705
tp323
a(S'p1_tl'
I213
tp324
a(S'w'
I1
tp325
a(S'p1_ll'
I1
tp326
a(S'w'
I13
tp327
a(S'p2_tl'
I103
tp328
a(S'w'
I1
tp329
a(S'p2_ll'
I1
tp330
a(S'p2_th'
I1
tp331
a(S'w'
I718
tp332
a(S'w'
I14
tp333
a(S'w'
I720
tp334
a(S'w'
I14
tp335
a(S'w'
I720
tp336
a(S'w'
I14
tp337
a(S'w'
I720
tp338
a(S'w'
I14
tp339
a(S'w'
I720
tp340
a(S'w'
I14
tp341
a(S'w'
I719
tp342
a(S'w'
I14
tp343
a(S'w'
I728
tp344
a(S'p1_tl'
I0
tp345
a(S'p1_ll'
I0
tp346
a(S'w'
I21
tp347
a(S'p2_tl'
I0
tp348
a(S'p2_ll'
I0
tp349
a(S'p2_th'
I0
tp350
a(S'w'
I705
tp351
a(S'p1_tl'
I213
tp352
a(S'w'
I1
tp353
a(S'p1_ll'
I1
tp354
a(S'w'
I13
tp355
a(S'p2_tl'
I103
tp356
a(S'w'
I1
tp357
a(S'p2_ll'
I1
tp358
a(S'p2_th'
I1
tp359
a(S'w'
I719
tp360
a(S'w'
I14
tp361
a(S'w'
I720
tp362
a(S'w'
I14
tp363
a(S'w'
I719
tp364
a(S'w'
I14
tp365
a(S'w'
I720
tp366
a(S'w'
I14
tp367
a(S'w'
I720
tp368
a(S'w'
I14
tp369
a(S'w'
I720
tp370
a(S'w'
I14
tp371
a(S'w'
I728
tp372
a(S'p1_tl'
I0
tp373
a(S'p1_ll'
I0
tp374
a(S'w'
I21
tp375
a(S'p2_tl'
I0
tp376
a(S'p2_ll'
I0
tp377
a(S'p2_th'
I0
tp378
a(S'w'
I18
tp379
a(S'tr_tl'
I0
tp380
a(S'tr_ll'
I0
tp381
a(S'tr_th'
I0
tp382
a(S'w'
I686
tp383
a(S'p1_tl'
I240
tp384
a(S'w'
I1
tp385
a(S'p1_ll'
I1
tp386
a(S'w'
I13
tp387
a(S'p2_tl'
I103
tp388
a(S'w'
I1
tp389
a(S'p2_ll'
I1
tp390
a(S'p2_th'
I1
tp391
a(S'w'
I719
tp392
a(S'w'
I14
tp393
a(S'w'
I720
tp394
a(S'w'
I14
tp395
a(S'w'
I720
tp396
a(S'w'
I14
tp397
a(S'w'
I719
tp398
a(S'w'
I14
tp399
a(S'w'
I720
tp400
a(S'w'
I14
tp401
a(S'w'
I720
tp402
a(S'w'
I14
tp403
a(S'w'
I728
tp404
a(S'p1_tl'
I0
tp405
a(S'p1_ll'
I0
tp406
a(S'w'
I21
tp407
a(S'p2_tl'
I0
tp408
a(S'p2_ll'
I0
tp409
a(S'p2_th'
I0
tp410
a(S'w'
I705
tp411
a(S'p1_tl'
I240
tp412
a(S'w'
I1
tp413
a(S'p1_ll'
I1
tp414
a(S'w'
I13
tp415
a(S'p2_tl'
I103
tp416
a(S'w'
I1
tp417
a(S'p2_ll'
I1
tp418
a(S'p2_th'
I1
tp419
a(S'w'
I718
tp420
a(S'w'
I14
tp421
a(S'w'
I720
tp422
a(S'w'
I14
tp423
a(S'w'
I720
tp424
a(S'w'
I14
tp425
a(S'w'
I720
tp426
a(S'w'
I14
tp427
a(S'w'
I720
tp428
a(S'w'
I14
tp429
a(S'w'
I719
tp430
a(S'w'
I14
tp431
a(S'w'
I728
tp432
a(S'p1_tl'
I0
tp433
a(S'p1_ll'
I0
tp434
a(S'w'
I21
tp435
a(S'p2_tl'
I0
tp436
a(S'p2_ll'
I0
tp437
a(S'p2_th'
I0
tp438
a(S'w'
I19
tp439
a(S'tr_ll'
I0
tp440
a(S'w'
I686
tp441
a(S'p1_tl'
I213
tp442
a(S'w'
I1
tp443
a(S'p1_ll'
I1
tp444
a(S'w'
I13
tp445
a(S'p2_tl'
I103
tp446
a(S'w'
I1
tp447
a(S'p2_ll'
I1
tp448
a(S'p2_th'
I1
tp449
a(S'w'
I11
tp450
a(S'tr_tl'
I13
tp451
a(S'tr_ll'
I1
tp452
a(S'tr_th'
I1
tp453
a(S'w'
I708
tp454
a(S'w'
I14
tp455
a(S'w'
I720
tp456
a(S'w'
I14
tp457
a(S'w'
I719
tp458
a(S'w'
I14
tp459
a(S'w'
I720
tp460
a(S'w'
I14
tp461
a(S'w'
I720
tp462
a(S'w'
I14
tp463
a(S'w'
I720
tp464
a(S'w'
I14
tp465
a(S'w'
I728
tp466
a(S'p1_tl'
I0
tp467
a(S'p1_ll'
I0
tp468
a(S'w'
I21
tp469
a(S'p2_tl'
I0
tp470
a(S'p2_ll'
I0
tp471
a(S'p2_th'
I0
tp472
a(S'w'
I19
tp473
a(S'tr_tl'
I0
tp474
a(S'tr_ll'
I0
tp475
a(S'tr_th'
I0
tp476
a(S'w'
I685
tp477
a(S'p1_tl'
I213
tp478
a(S'w'
I1
tp479
a(S'p1_ll'
I1
tp480
a(S'w'
I13
tp481
a(S'p2_tl'
I103
tp482
a(S'w'
I1
tp483
a(S'p2_ll'
I1
tp484
a(S'p2_th'
I1
tp485
a(S'w'
I11
tp486
a(S'tr_tl'
I29
tp487
a(S'tr_ll'
I1
tp488
a(S'tr_th'
I1
tp489
a(S'w'
I708
tp490
a(S'w'
I14
tp491
a(S'w'
I720
tp492
a(S'w'
I14
tp493
a(S'w'
I720
tp494
a(S'w'
I14
tp495
a(S'w'
I719
tp496
a(S'w'
I14
tp497
a(S'w'
I720
tp498
a(S'w'
I14
tp499
a(S'w'
I720
tp500
a(S'w'
I14
tp501
a(S'w'
I728
tp502
a(S'p1_tl'
I0
tp503
a(S'p1_ll'
I0
tp504
a(S'w'
I21
tp505
a(S'p2_tl'
I0
tp506
a(S'p2_ll'
I0
tp507
a(S'p2_th'
I0
tp508
a(S'w'
I19
tp509
a(S'tr_tl'
I0
tp510
a(S'tr_ll'
I0
tp511
a(S'tr_th'
I0
tp512
a(S'w'
I686
tp513
a(S'p1_tl'
I213
tp514
a(S'w'
I1
tp515
a(S'p1_ll'
I1
tp516
a(S'w'
I13
tp517
a(S'p2_tl'
I147
tp518
a(S'w'
I1
tp519
a(S'p2_ll'
I1
tp520
a(S'p2_th'
I1
tp521
a(S'w'
I11
tp522
a(S'tr_tl'
I46
tp523
a(S'tr_ll'
I1
tp524
a(S'tr_th'
I1
tp525
a(S'w'
I707
tp526
a(S'w'
I14
tp527
a(S'w'
I720
tp528
a(S'w'
I14
tp529
a(S'w'
I720
tp530
a(S'w'
I14
tp531
a(S'w'
I720
tp532
a(S'w'
I14
tp533
a(S'w'
I720
tp534
a(S'w'
I14
tp535
a(S'w'
I719
tp536
a(S'w'
I14
tp537
a(S'w'
I728
tp538
a(S'p1_tl'
I0
tp539
a(S'p1_ll'
I0
tp540
a(S'w'
I21
tp541
a(S'p2_tl'
I0
tp542
a(S'p2_ll'
I0
tp543
a(S'p2_th'
I0
tp544
a(S'w'
I705
tp545
a(S'p1_tl'
I213
tp546
a(S'w'
I1
tp547
a(S'p1_ll'
I1
tp548
a(S'w'
I13
tp549
a(S'p2_tl'
I147
tp550
a(S'w'
I1
tp551
a(S'p2_ll'
I1
tp552
a(S'p2_th'
I1
tp553
a(S'w'
I719
tp554
a(S'w'
I14
tp555
a(S'w'
I720
tp556
a(S'w'
I14
tp557
a(S'w'
I719
tp558
a(S'w'
I14
tp559
a(S'w'
I720
tp560
a(S'w'
I14
tp561
a(S'w'
I720
tp562
a(S'w'
I14
tp563
a(S'w'
I720
tp564
a(S'w'
I14
tp565
a(S'w'
I728
tp566
a(S'p1_tl'
I0
tp567
a(S'p1_ll'
I0
tp568
a(S'w'
I21
tp569
a(S'p2_tl'
I0
tp570
a(S'p2_ll'
I0
tp571
a(S'p2_th'
I0
tp572
a(S'w'
I18
tp573
a(S'tr_tl'
I0
tp574
a(S'tr_ll'
I0
tp575
a(S'tr_th'
I0
tp576
a(S'w'
I686
tp577
a(S'p1_tl'
I213
tp578
a(S'w'
I1
tp579
a(S'p1_ll'
I1
tp580
a(S'w'
I13
tp581
a(S'p2_tl'
I147
tp582
a(S'w'
I1
tp583
a(S'p2_ll'
I1
tp584
a(S'p2_th'
I1
tp585
a(S'w'
I719
tp586
a(S'w'
I14
tp587
a(S'w'
I720
tp588
a(S'w'
I14
tp589
a(S'w'
I720
tp590
a(S'w'
I14
tp591
a(S'w'
I719
tp592
a(S'w'
I14
tp593
a(S'w'
I720
tp594
a(S'w'
I14
tp595
a(S'w'
I720
tp596
a(S'w'
I14
tp597
a(S'w'
I728
tp598
a(S'p1_tl'
I0
tp599
a(S'p1_ll'
I0
tp600
a(S'w'
I21
tp601
a(S'p2_tl'
I0
tp602
a(S'p2_ll'
I0
tp603
a(S'p2_th'
I0
tp604
a(S'w'
I22
tp605
a(S'tr_ll'
I0
tp606
a(S'w'
I683
tp607
a(S'p1_tl'
I240
tp608
a(S'w'
I1
tp609
a(S'p1_ll'
I1
tp610
a(S'w'
I13
tp611
a(S'p2_tl'
I147
tp612
a(S'w'
I1
tp613
a(S'p2_ll'
I1
tp614
a(S'p2_th'
I1
tp615
a(S'w'
I11
tp616
a(S'tr_tl'
I46
tp617
a(S'tr_ll'
I1
tp618
a(S'tr_th'
I1
tp619
a(S'w'
I707
tp620
a(S'w'
I14
tp621
a(S'w'
I720
tp622
a(S'w'
I14
tp623
a(S'w'
I720
tp624
a(S'w'
I14
tp625
a(S'w'
I720
tp626
a(S'w'
I14
tp627
a(S'w'
I720
tp628
a(S'w'
I14
tp629
a(S'w'
I719
tp630
a(S'w'
I14
tp631
a(S'w'
I728
tp632
a(S'p1_tl'
I0
tp633
a(S'p1_ll'
I0
tp634
a(S'w'
I21
tp635
a(S'p2_tl'
I0
tp636
a(S'p2_ll'
I0
tp637
a(S'p2_th'
I0
tp638
a(S'w'
I705
tp639
a(S'p1_tl'
I240
tp640
a(S'w'
I1
tp641
a(S'p1_ll'
I1
tp642
a(S'w'
I13
tp643
a(S'p2_tl'
I147
tp644
a(S'w'
I1
tp645
a(S'p2_ll'
I1
tp646
a(S'p2_th'
I1
tp647
a(S'w'
I719
tp648
a(S'w'
I14
tp649
a(S'w'
I720
tp650
a(S'w'
I14
tp651
a(S'w'
I719
tp652
a(S'w'
I14
tp653
a(S'w'
I720
tp654
a(S'w'
I14
tp655
a(S'w'
I720
tp656
a(S'w'
I14
tp657
a(S'w'
I720
tp658
a(S'w'
I14
tp659
a(S'w'
I728
tp660
a(S'p1_tl'
I0
tp661
a(S'p1_ll'
I0
tp662
a(S'w'
I21
tp663
a(S'p2_tl'
I0
tp664
a(S'p2_ll'
I0
tp665
a(S'p2_th'
I0
tp666
a(S'w'
I704
tp667
a(S'p1_tl'
I240
tp668
a(S'w'
I1
tp669
a(S'p1_ll'
I1
tp670
a(S'w'
I13
tp671
a(S'p2_tl'
I147
tp672
a(S'w'
I1
tp673
a(S'p2_ll'
I1
tp674
a(S'p2_th'
I1
tp675
a(S'w'
I719
tp676
a(S'w'
I14
tp677
a(S'w'
I720
tp678
a(S'w'
I14
tp679
a(S'w'
I720
tp680
a(S'w'
I14
tp681
a(S'w'
I719
tp682
a(S'w'
I14
tp683
a(S'w'
I720
tp684
a(S'w'
I14
tp685
a(S'w'
I720
tp686
a(S'w'
I14
tp687
a(S'w'
I728
tp688
a(S'p1_tl'
I0
tp689
a(S'p1_ll'
I0
tp690
a(S'w'
I21
tp691
a(S'p2_tl'
I0
tp692
a(S'p2_ll'
I0
tp693
a(S'p2_th'
I0
tp694
a(S'w'
I705
tp695
a(S'p1_tl'
I13
tp696
a(S'w'
I1
tp697
a(S'p1_ll'
I1
tp698
a(S'p1_th'
I1
tp699
a(S'w'
I13
tp700
a(S'p2_tl'
I147
tp701
a(S'w'
I1
tp702
a(S'p2_ll'
I1
tp703
a(S'p2_th'
I1
tp704
a(S'w'
I718
tp705
a(S'w'
I14
tp706
a(S'w'
I720
tp707
a(S'w'
I14
tp708
a(S'w'
I720
tp709
a(S'w'
I14
tp710
a(S'w'
I720
tp711
a(S'w'
I14
tp712
a(S'w'
I720
tp713
a(S'w'
I14
tp714
a(S'w'
I719
tp715
a(S'w'
I14
tp716
a(S'w'
I728
tp717
a(S'p1_tl'
I0
tp718
a(S'p1_ll'
I0
tp719
a(S'p1_th'
I0
tp720
a(S'w'
I21
tp721
a(S'p2_tl'
I0
tp722
a(S'p2_ll'
I0
tp723
a(S'p2_th'
I0
tp724
a(S'w'
I705
tp725
a(S'p1_tl'
I13
tp726
a(S'w'
I1
tp727
a(S'p1_ll'
I1
tp728
a(S'p1_th'
I1
tp729
a(S'w'
I13
tp730
a(S'p2_tl'
I147
tp731
a(S'w'
I1
tp732
a(S'p2_ll'
I1
tp733
a(S'p2_th'
I1
tp734
a(S'w'
I719
tp735
a(S'w'
I14
tp736
a(S'w'
I720
tp737
a(S'w'
I14
tp738
a(S'w'
I719
tp739
a(S'w'
I14
tp740
a(S'w'
I720
tp741
a(S'w'
I14
tp742
a(S'w'
I720
tp743
a(S'w'
I14
tp744
a(S'w'
I720
tp745
a(S'w'
I14
tp746
a(S'w'
I728
tp747
a(S'p1_tl'
I0
tp748
a(S'p1_ll'
I0
tp749
a(S'p1_th'
I0
tp750
a(S'w'
I21
tp751
a(S'p2_tl'
I0
tp752
a(S'p2_ll'
I0
tp753
a(S'p2_th'
I0
tp754
a(S'w'
I18
tp755
a(S'tr_tl'
I0
tp756
a(S'tr_ll'
I0
tp757
a(S'tr_th'
I0
tp758
a(S'w'
I686
tp759
a(S'p1_tl'
I13
tp760
a(S'w'
I1
tp761
a(S'p1_ll'
I1
tp762
a(S'p1_th'
I1
tp763
a(S'w'
I13
tp764
a(S'p2_tl'
I147
tp765
a(S'w'
I1
tp766
a(S'p2_ll'
I1
tp767
a(S'p2_th'
I1
tp768
a(S'w'
I719
tp769
a(S'w'
I14
tp770
a(S'w'
I720
tp771
a(S'w'
I14
tp772
a(S'w'
I720
tp773
a(S'w'
I14
tp774
a(S'w'
I719
tp775
a(S'w'
I14
tp776
a(S'w'
I720
tp777
a(S'w'
I14
tp778
a(S'w'
I720
tp779
a(S'w'
I14
tp780
a(S'w'
I728
tp781
a(S'p1_tl'
I0
tp782
a(S'p1_ll'
I0
tp783
a(S'p1_th'
I0
tp784
a(S'w'
I21
tp785
a(S'p2_tl'
I0
tp786
a(S'p2_ll'
I0
tp787
a(S'p2_th'
I0
tp788
a(S'w'
I19
tp789
a(S'tr_ll'
I0
tp790
a(S'w'
I686
tp791
a(S'p1_tl'
I240
tp792
a(S'w'
I1
tp793
a(S'p1_ll'
I1
tp794
a(S'w'
I13
tp795
a(S'p2_tl'
I147
tp796
a(S'w'
I1
tp797
a(S'p2_ll'
I1
tp798
a(S'p2_th'
I1
tp799
a(S'w'
I11
tp800
a(S'tr_tl'
I46
tp801
a(S'tr_ll'
I1
tp802
a(S'tr_th'
I1
tp803
a(S'w'
I707
tp804
a(S'w'
I14
tp805
a(S'w'
I720
tp806
a(S'w'
I14
tp807
a(S'w'
I720
tp808
a(S'w'
I14
tp809
a(S'w'
I720
tp810
a(S'w'
I14
tp811
a(S'w'
I720
tp812
a(S'w'
I14
tp813
a(S'w'
I719
tp814
a(S'w'
I14
tp815
a(S'w'
I728
tp816
a(S'p1_tl'
I0
tp817
a(S'p1_ll'
I0
tp818
a(S'w'
I21
tp819
a(S'p2_tl'
I0
tp820
a(S'p2_ll'
I0
tp821
a(S'p2_th'
I0
tp822
a(S'w'
I705
tp823
a(S'p1_tl'
I240
tp824
a(S'w'
I1
tp825
a(S'p1_ll'
I1
tp826
a(S'w'
I13
tp827
a(S'p2_tl'
I147
tp828
a(S'w'
I1
tp829
a(S'p2_ll'
I1
tp830
a(S'p2_th'
I1
tp831
a(S'w'
I719
tp832
a(S'w'
I14
tp833
a(S'w'
I720
tp834
a(S'w'
I14
tp835
a(S'w'
I719
tp836
a(S'w'
I14
tp837
a(S'w'
I720
tp838
a(S'w'
I14
tp839
a(S'w'
I720
tp840
a(S'w'
I14
tp841
a(S'w'
I720
tp842
a(S'w'
I14
tp843
a(S'w'
I728
tp844
a(S'p1_tl'
I0
tp845
a(S'p1_ll'
I0
tp846
a(S'w'
I21
tp847
a(S'p2_tl'
I0
tp848
a(S'p2_ll'
I0
tp849
a(S'p2_th'
I0
tp850
a(S'w'
I21
tp851
a(S'tr_tl'
I0
tp852
a(S'w'
I1
tp853
a(S'tr_ll'
I0
tp854
a(S'tr_th'
I0
tp855
a(S'w'
I682
tp856
a(S'p1_tl'
I240
tp857
a(S'w'
I1
tp858
a(S'p1_ll'
I1
tp859
a(S'w'
I13
tp860
a(S'p2_tl'
I147
tp861
a(S'w'
I1
tp862
a(S'p2_ll'
I1
tp863
a(S'p2_th'
I1
tp864
a(S'w'
I11
tp865
a(S'tr_tl'
I46
tp866
a(S'tr_ll'
I1
tp867
a(S'tr_th'
I1
tp868
a(S'w'
I708
tp869
a(S'w'
I14
tp870
a(S'w'
I720
tp871
a(S'w'
I14
tp872
a(S'w'
I720
tp873
a(S'w'
I14
tp874
a(S'w'
I719
tp875
a(S'w'
I14
tp876
a(S'w'
I720
tp877
a(S'w'
I14
tp878
a(S'w'
I720
tp879
a(S'w'
I14
tp880
a(S'w'
I728
tp881
a(S'p1_tl'
I0
tp882
a(S'p1_ll'
I0
tp883
a(S'w'
I21
tp884
a(S'p2_tl'
I0
tp885
a(S'p2_ll'
I0
tp886
a(S'p2_th'
I0
tp887
a(S'w'
I705
tp888
a(S'p1_tl'
I13
tp889
a(S'w'
I1
tp890
a(S'p1_ll'
I1
tp891
a(S'p1_th'
I1
tp892
a(S'w'
I13
tp893
a(S'p2_tl'
I147
tp894
a(S'w'
I1
tp895
a(S'p2_ll'
I1
tp896
a(S'p2_th'
I1
tp897
a(S'w'
I718
tp898
a(S'w'
I14
tp899
a(S'w'
I720
tp900
a(S'w'
I14
tp901
a(S'w'
I720
tp902
a(S'w'
I14
tp903
a(S'w'
I720
tp904
a(S'w'
I14
tp905
a(S'w'
I720
tp906
a(S'w'
I14
tp907
a(S'w'
I719
tp908
a(S'w'
I14
tp909
a(S'w'
I728
tp910
a(S'p1_tl'
I0
tp911
a(S'p1_ll'
I0
tp912
a(S'p1_th'
I0
tp913
a(S'w'
I21
tp914
a(S'p2_tl'
I0
tp915
a(S'p2_ll'
I0
tp916
a(S'p2_th'
I0
tp917
a(S'w'
I19
tp918
a(S'tr_tl'
I0
tp919
a(S'tr_ll'
I0
tp920
a(S'tr_th'
I0
tp921
a(S'w'
I686
tp922
a(S'p1_tl'
I13
tp923
a(S'w'
I1
tp924
a(S'p1_ll'
I1
tp925
a(S'p1_th'
I1
tp926
a(S'w'
I13
tp927
a(S'p2_tl'
I147
tp928
a(S'w'
I1
tp929
a(S'p2_ll'
I1
tp930
a(S'p2_th'
I1
tp931
a(S'w'
I11
tp932
a(S'tr_tl'
I64
tp933
a(S'tr_ll'
I1
tp934
a(S'tr_th'
I1
tp935
a(S'w'
I708
tp936
a(S'w'
I14
tp937
a(S'w'
I720
tp938
a(S'w'
I14
tp939
a(S'w'
I719
tp940
a(S'w'
I14
tp941
a(S'w'
I720
tp942
a(S'w'
I14
tp943
a(S'w'
I720
tp944
a(S'w'
I14
tp945
a(S'w'
I720
tp946
a(S'w'
I14
tp947
a(S'w'
I728
tp948
a(S'p1_tl'
I0
tp949
a(S'p1_ll'
I0
tp950
a(S'p1_th'
I0
tp951
a(S'w'
I21
tp952
a(S'p2_tl'
I0
tp953
a(S'p2_ll'
I0
tp954
a(S'p2_th'
I0
tp955
a(S'w'
I19
tp956
a(S'tr_tl'
I0
tp957
a(S'tr_ll'
I0
tp958
a(S'tr_th'
I0
tp959
a(S'w'
I685
tp960
a(S'p1_tl'
I240
tp961
a(S'w'
I1
tp962
a(S'p1_ll'
I1
tp963
a(S'w'
I13
tp964
a(S'p2_tl'
I147
tp965
a(S'w'
I1
tp966
a(S'p2_ll'
I1
tp967
a(S'p2_th'
I1
tp968
a(S'w'
I11
tp969
a(S'tr_tl'
I46
tp970
a(S'tr_ll'
I1
tp971
a(S'tr_th'
I1
tp972
a(S'w'
I708
tp973
a(S'w'
I14
tp974
a(S'w'
I720
tp975
a(S'w'
I14
tp976
a(S'w'
I720
tp977
a(S'w'
I14
tp978
a(S'w'
I719
tp979
a(S'w'
I14
tp980
a(S'w'
I720
tp981
a(S'w'
I14
tp982
a(S'w'
I720
tp983
a(S'w'
I14
tp984
a(S'w'
I728
tp985
a(S'p1_tl'
I0
tp986
a(S'p1_ll'
I0
tp987
a(S'w'
I21
tp988
a(S'p2_tl'
I0
tp989
a(S'p2_ll'
I0
tp990
a(S'p2_th'
I0
tp991
a(S'w'
I19
tp992
a(S'tr_tl'
I0
tp993
a(S'tr_ll'
I0
tp994
a(S'tr_th'
I0
tp995
a(S'w'
I686
tp996
a(S'p1_tl'
I240
tp997
a(S'w'
I1
tp998
a(S'p1_ll'
I1
tp999
a(S'w'
I13
tp1000
a(S'p2_tl'
I147
tp1001
a(S'w'
I1
tp1002
a(S'p2_ll'
I1
tp1003
a(S'p2_th'
I1
tp1004
a(S'w'
I11
tp1005
a(S'tr_tl'
I29
tp1006
a(S'tr_ll'
I1
tp1007
a(S'tr_th'
I1
tp1008
a(S'w'
I707
tp1009
a(S'w'
I14
tp1010
a(S'w'
I720
tp1011
a(S'w'
I14
tp1012
a(S'w'
I720
tp1013
a(S'w'
I14
tp1014
a(S'w'
I720
tp1015
a(S'w'
I14
tp1016
a(S'w'
I720
tp1017
a(S'w'
I14
tp1018
a(S'w'
I719
tp1019
a(S'w'
I14
tp1020
a(S'w'
I773
tp1021
a.