(lp1
(S'clock'
p2
I1789772
tp3
a(S'p1_ll'
I0
tp4
a(S'p2_ll'
I0
tp5
a(S'tr_ll'
I0
tp6
a(S'ch_no'
I0
tp7
a(S'ch_tr'
I1
tp8
a(S'ch_p2'
I1
tp9
a(S'ch_p1'
I1
tp10
a(S'tr_ll'
I0
tp11
a(S'w'
I4
tp12
a(S'ch_no'
I0
tp13
a(S'ch_tr'
I1
tp14
a(S'ch_p2'
I1
tp15
a(S'ch_p1'
I1
tp16
a(S'w'
I784
tp17
a(S'w'
I1
tp18
a(S'p1_ll'
I0
tp19
a(S'w'
I66
tp20
a(S'p2_ll'
I0
tp21
a(S'w'
I4
tp22
a(S'tr_ll'
I0
tp23
a(S'w'
I607
tp24
a(S'p1_du'
I1
tp25
a(S'p1_lh'
I1
tp26
a(S'p1_cv'
I1
tp27
a(S'p1_vo'
I15
tp28
a(S'w'
I4
tp29
a(S'p1_tl'
I66
tp30
a(S'w'
I1
tp31
a(S'p1_ll'
I1
tp32
a(S'w'
I10
tp33
a(S'p2_du'
I1
tp34
a(S'p2_lh'
I1
tp35
a(S'p2_cv'
I1
tp36
a(S'p2_vo'
I10
tp37
a(S'w'
I4
tp38
a(S'p2_tl'
I62
tp39
a(S'p2_ll'
I1
tp40
a(S'w'
I4
tp41
a(S'tr_ll'
I0
tp42
a(S'w'
I715
tp43
a(S'p1_tl'
I65
tp44
a(S'w'
I14
tp45
a(S'p2_tl'
I61
tp46
a(S'w'
I4
tp47
a(S'tr_ll'
I0
tp48
a(S'w'
I716
tp49
a(S'p1_tl'
I64
tp50
a(S'w'
I14
tp51
a(S'p2_tl'
I60
tp52
a(S'w'
I4
tp53
a(S'tr_ll'
I0
tp54
a(S'w'
I715
tp55
a(S'p1_tl'
I63
tp56
a(S'w'
I15
tp57
a(S'p2_tl'
I59
tp58
a(S'w'
I4
tp59
a(S'tr_ll'
I0
tp60
a(S'w'
I715
tp61
a(S'p1_tl'
I62
tp62
a(S'w'
I14
tp63
a(S'p2_tl'
I58
tp64
a(S'w'
I5
tp65
a(S'tr_ll'
I0
tp66
a(S'w'
I715
tp67
a(S'p1_tl'
I61
tp68
a(S'w'
I14
tp69
a(S'p2_tl'
I57
tp70
a(S'w'
I5
tp71
a(S'tr_ll'
I0
tp72
a(S'w'
I715
tp73
a(S'p1_tl'
I60
tp74
a(S'w'
I14
tp75
a(S'p2_tl'
I56
tp76
a(S'w'
I4
tp77
a(S'tr_ll'
I0
tp78
a(S'w'
I716
tp79
a(S'p1_tl'
I59
tp80
a(S'w'
I14
tp81
a(S'p2_tl'
I55
tp82
a(S'w'
I4
tp83
a(S'tr_ll'
I0
tp84
a(S'w'
I716
tp85
a(S'p1_tl'
I58
tp86
a(S'w'
I14
tp87
a(S'p2_tl'
I54
tp88
a(S'w'
I4
tp89
a(S'tr_ll'
I0
tp90
a(S'w'
I715
tp91
a(S'p1_tl'
I57
tp92
a(S'w'
I15
tp93
a(S'p2_tl'
I53
tp94
a(S'w'
I4
tp95
a(S'tr_ll'
I0
tp96
a(S'w'
I715
tp97
a(S'p1_tl'
I56
tp98
a(S'w'
I14
tp99
a(S'p2_tl'
I52
tp100
a(S'w'
I5
tp101
a(S'tr_ll'
I0
tp102
a(S'w'
I715
tp103
a(S'p1_tl'
I55
tp104
a(S'w'
I14
tp105
a(S'p2_tl'
I51
tp106
a(S'w'
I4
tp107
a(S'tr_ll'
I0
tp108
a(S'w'
I716
tp109
a(S'p1_tl'
I54
tp110
a(S'w'
I14
tp111
a(S'p2_tl'
I50
tp112
a(S'w'
I4
tp113
a(S'tr_ll'
I0
tp114
a(S'w'
I716
tp115
a(S'p1_tl'
I53
tp116
a(S'w'
I14
tp117
a(S'p2_tl'
I49
tp118
a(S'w'
I4
tp119
a(S'tr_ll'
I0
tp120
a(S'w'
I715
tp121
a(S'p1_tl'
I52
tp122
a(S'w'
I15
tp123
a(S'p2_tl'
I48
tp124
a(S'w'
I4
tp125
a.