(lp1
(S'clock'
p2
I1789772
tp3
a(S'p1_ll'
I0
tp4
a(S'p2_ll'
I0
tp5
a(S'tr_ll'
I0
tp6
a(S'ch_no'
I0
tp7
a(S'ch_tr'
I1
tp8
a(S'ch_p2'
I1
tp9
a(S'ch_p1'
I1
tp10
a(S'p1_ll'
I0
tp11
a(S'w'
I23
tp12
a(S'p2_ll'
I0
tp13
a(S'w'
I5
tp14
a(S'tr_ll'
I0
tp15
a(S'w'
I697
tp16
a(S'p1_lh'
I1
tp17
a(S'p1_cv'
I1
tp18
a(S'p1_vo'
I15
tp19
a(S'w'
I3
tp20
a(S'p1_tl'
I171
tp21
a(S'w'
I1
tp22
a(S'p1_ll'
I1
tp23
a(S'p1_th'
I1
tp24
a(S'w'
I6
tp25
a(S'p2_du'
I3
tp26
a(S'p2_lh'
I1
tp27
a(S'p2_cv'
I1
tp28
a(S'p2_vo'
I15
tp29
a(S'w'
I4
tp30
a(S'p2_tl'
I228
tp31
a(S'p2_ll'
I1
tp32
a(S'p2_th'
I7
tp33
a(S'w'
I5
tp34
a(S'tr_ll'
I0
tp35
a(S'w'
I5
tp36
a(S'no_lh'
I1
tp37
a(S'no_cv'
I1
tp38
a(S'no_vo'
I15
tp39
a(S'w'
I3
tp40
a(S'ch_no'
I1
tp41
a(S'ch_tr'
I1
tp42
a(S'ch_p2'
I1
tp43
a(S'ch_p1'
I1
tp44
a(S'w'
I1
tp45
a(S'no_nl'
I1
tp46
a(S'no_np'
I4
tp47
a(S'w'
I1
tp48
a(S'no_ll'
I1
tp49
a(S'w'
I708
tp50
a(S'w'
I10
tp51
a(S'p2_tl'
I214
tp52
a(S'w'
I5
tp53
a(S'tr_ll'
I0
tp54
a(S'w'
I9
tp55
a(S'w'
I710
tp56
a(S'w'
I10
tp57
a(S'p2_tl'
I200
tp58
a(S'w'
I5
tp59
a(S'tr_ll'
I0
tp60
a(S'w'
I9
tp61
a(S'w'
I710
tp62
a(S'w'
I10
tp63
a(S'p2_tl'
I186
tp64
a(S'w'
I5
tp65
a(S'tr_ll'
I0
tp66
a(S'w'
I9
tp67
a(S'w'
I709
tp68
a(S'w'
I11
tp69
a(S'p2_tl'
I172
tp70
a(S'w'
I5
tp71
a(S'tr_ll'
I0
tp72
a(S'w'
I9
tp73
a(S'w'
I709
tp74
a(S'w'
I10
tp75
a(S'p2_tl'
I158
tp76
a(S'w'
I6
tp77
a(S'tr_ll'
I0
tp78
a(S'w'
I8
tp79
a(S'w'
I710
tp80
a(S'w'
I10
tp81
a(S'p2_tl'
I144
tp82
a(S'w'
I5
tp83
a(S'tr_ll'
I0
tp84
a(S'w'
I9
tp85
a(S'w'
I710
tp86
a(S'w'
I10
tp87
a(S'p2_tl'
I130
tp88
a(S'w'
I5
tp89
a(S'tr_ll'
I0
tp90
a(S'w'
I9
tp91
a(S'w'
I710
tp92
a(S'w'
I10
tp93
a(S'p2_tl'
I116
tp94
a(S'w'
I5
tp95
a(S'tr_ll'
I0
tp96
a(S'w'
I9
tp97
a(S'w'
I710
tp98
a(S'w'
I10
tp99
a(S'p2_tl'
I102
tp100
a(S'w'
I5
tp101
a(S'tr_ll'
I0
tp102
a(S'w'
I9
tp103
a(S'w'
I709
tp104
a(S'w'
I10
tp105
a(S'p2_tl'
I88
tp106
a(S'w'
I6
tp107
a(S'tr_ll'
I0
tp108
a(S'w'
I8
tp109
a(S'w'
I710
tp110
a(S'w'
I10
tp111
a(S'p2_tl'
I74
tp112
a(S'w'
I5
tp113
a(S'tr_ll'
I0
tp114
a(S'w'
I9
tp115
a(S'w'
I710
tp116
a(S'w'
I10
tp117
a(S'p2_tl'
I60
tp118
a(S'w'
I5
tp119
a(S'tr_ll'
I0
tp120
a(S'w'
I9
tp121
a(S'w'
I710
tp122
a(S'w'
I10
tp123
a(S'p2_tl'
I46
tp124
a(S'w'
I5
tp125
a(S'tr_ll'
I0
tp126
a(S'w'
I9
tp127
a(S'w'
I709
tp128
a(S'w'
I11
tp129
a(S'p2_tl'
I32
tp130
a(S'w'
I5
tp131
a(S'tr_ll'
I0
tp132
a(S'w'
I9
tp133
a(S'w'
I709
tp134
a(S'w'
I10
tp135
a(S'p2_tl'
I18
tp136
a(S'w'
I6
tp137
a(S'tr_ll'
I0
tp138
a(S'w'
I8
tp139
a(S'w'
I710
tp140
a(S'w'
I10
tp141
a(S'p2_tl'
I4
tp142
a(S'w'
I5
tp143
a(S'tr_ll'
I0
tp144
a(S'w'
I9
tp145
a(S'w'
I710
tp146
a(S'w'
I10
tp147
a(S'p2_tl'
I246
tp148
a(S'w'
I1
tp149
a(S'p2_ll'
I1
tp150
a(S'p2_th'
I6
tp151
a(S'w'
I5
tp152
a(S'tr_ll'
I0
tp153
a(S'w'
I8
tp154
a(S'w'
I710
tp155
a(S'w'
I10
tp156
a(S'p2_tl'
I232
tp157
a(S'w'
I5
tp158
a(S'tr_ll'
I0
tp159
a(S'w'
I9
tp160
a(S'w'
I709
tp161
a(S'w'
I11
tp162
a(S'p2_tl'
I218
tp163
a(S'w'
I5
tp164
a(S'tr_ll'
I0
tp165
a(S'w'
I9
tp166
a(S'w'
I709
tp167
a(S'w'
I10
tp168
a(S'p2_tl'
I204
tp169
a(S'w'
I6
tp170
a(S'tr_ll'
I0
tp171
a(S'w'
I8
tp172
a(S'w'
I710
tp173
a(S'w'
I10
tp174
a(S'p2_tl'
I190
tp175
a(S'w'
I5
tp176
a(S'tr_ll'
I0
tp177
a(S'w'
I9
tp178
a(S'w'
I710
tp179
a(S'w'
I10
tp180
a(S'p2_tl'
I176
tp181
a(S'w'
I5
tp182
a(S'tr_ll'
I0
tp183
a(S'w'
I9
tp184
a(S'w'
I710
tp185
a(S'w'
I10
tp186
a(S'p2_tl'
I162
tp187
a(S'w'
I5
tp188
a(S'tr_ll'
I0
tp189
a(S'w'
I9
tp190
a(S'w'
I709
tp191
a(S'w'
I11
tp192
a(S'p2_tl'
I148
tp193
a(S'w'
I5
tp194
a(S'tr_ll'
I0
tp195
a(S'w'
I9
tp196
a(S'w'
I709
tp197
a(S'w'
I10
tp198
a(S'p2_tl'
I134
tp199
a(S'w'
I6
tp200
a(S'tr_ll'
I0
tp201
a(S'w'
I9
tp202
a(S'w'
I709
tp203
a(S'w'
I10
tp204
a(S'p2_tl'
I120
tp205
a(S'w'
I5
tp206
a(S'tr_ll'
I0
tp207
a(S'w'
I9
tp208
a(S'w'
I710
tp209
a(S'w'
I10
tp210
a(S'p2_tl'
I106
tp211
a(S'w'
I5
tp212
a(S'tr_ll'
I0
tp213
a(S'w'
I9
tp214
a(S'w'
I710
tp215
a(S'w'
I10
tp216
a(S'p2_tl'
I92
tp217
a(S'w'
I5
tp218
a(S'tr_ll'
I0
tp219
a(S'w'
I9
tp220
a(S'w'
I710
tp221
a(S'w'
I10
tp222
a(S'p2_tl'
I78
tp223
a(S'w'
I5
tp224
a(S'tr_ll'
I0
tp225
a(S'w'
I9
tp226
a(S'w'
I721
tp227
a(S'p1_tl'
I0
tp228
a(S'w'
I1
tp229
a(S'p1_ll'
I0
tp230
a(S'p1_th'
I0
tp231
a(S'w'
I22
tp232
a(S'p2_tl'
I0
tp233
a(S'w'
I1
tp234
a(S'p2_ll'
I0
tp235
a(S'p2_th'
I0
tp236
a(S'w'
I4
tp237
a(S'tr_ll'
I0
tp238
a(S'w'
I22
tp239
a(S'ch_no'
I0
tp240
a(S'ch_tr'
I1
tp241
a(S'ch_p2'
I1
tp242
a(S'ch_p1'
I1
tp243
a(S'w'
I672
tp244
a(S'p1_tl'
I171
tp245
a(S'w'
I1
tp246
a(S'p1_ll'
I1
tp247
a(S'p1_th'
I1
tp248
a(S'w'
I10
tp249
a(S'p2_tl'
I228
tp250
a(S'p2_ll'
I1
tp251
a(S'p2_th'
I7
tp252
a(S'w'
I5
tp253
a(S'tr_ll'
I0
tp254
a(S'w'
I8
tp255
a(S'ch_no'
I1
tp256
a(S'ch_tr'
I1
tp257
a(S'ch_p2'
I1
tp258
a(S'ch_p1'
I1
tp259
a(S'w'
I1
tp260
a(S'w'
I1
tp261
a(S'no_ll'
I1
tp262
a(S'w'
I708
tp263
a(S'w'
I10
tp264
a(S'p2_tl'
I214
tp265
a(S'w'
I5
tp266
a(S'tr_ll'
I0
tp267
a(S'w'
I9
tp268
a(S'w'
I710
tp269
a(S'w'
I10
tp270
a(S'p2_tl'
I200
tp271
a(S'w'
I5
tp272
a(S'tr_ll'
I0
tp273
a(S'w'
I9
tp274
a(S'w'
I710
tp275
a(S'w'
I10
tp276
a(S'p2_tl'
I186
tp277
a(S'w'
I5
tp278
a(S'tr_ll'
I0
tp279
a(S'w'
I9
tp280
a(S'w'
I709
tp281
a(S'w'
I10
tp282
a(S'p2_tl'
I172
tp283
a(S'w'
I6
tp284
a(S'tr_ll'
I0
tp285
a(S'w'
I8
tp286
a(S'w'
I710
tp287
a(S'w'
I10
tp288
a(S'p2_tl'
I158
tp289
a(S'w'
I5
tp290
a(S'tr_ll'
I0
tp291
a(S'w'
I9
tp292
a(S'w'
I710
tp293
a(S'w'
I10
tp294
a(S'p2_tl'
I144
tp295
a(S'w'
I5
tp296
a(S'tr_ll'
I0
tp297
a(S'w'
I9
tp298
a(S'w'
I710
tp299
a(S'w'
I10
tp300
a(S'p2_tl'
I130
tp301
a(S'w'
I5
tp302
a(S'tr_ll'
I0
tp303
a(S'w'
I9
tp304
a(S'w'
I710
tp305
a(S'w'
I10
tp306
a(S'p2_tl'
I116
tp307
a(S'w'
I5
tp308
a(S'tr_ll'
I0
tp309
a(S'w'
I9
tp310
a(S'w'
I709
tp311
a(S'w'
I10
tp312
a(S'p2_tl'
I102
tp313
a(S'w'
I6
tp314
a(S'tr_ll'
I0
tp315
a(S'w'
I9
tp316
a(S'w'
I709
tp317
a(S'w'
I10
tp318
a(S'p2_tl'
I88
tp319
a(S'w'
I5
tp320
a(S'tr_ll'
I0
tp321
a(S'w'
I9
tp322
a(S'w'
I710
tp323
a(S'w'
I10
tp324
a(S'p2_tl'
I74
tp325
a(S'w'
I5
tp326
a(S'tr_ll'
I0
tp327
a(S'w'
I9
tp328
a(S'w'
I710
tp329
a(S'w'
I10
tp330
a(S'p2_tl'
I60
tp331
a(S'w'
I5
tp332
a(S'tr_ll'
I0
tp333
a(S'w'
I9
tp334
a(S'w'
I710
tp335
a(S'w'
I10
tp336
a(S'p2_tl'
I46
tp337
a(S'w'
I5
tp338
a(S'tr_ll'
I0
tp339
a(S'w'
I9
tp340
a(S'w'
I709
tp341
a(S'w'
I10
tp342
a(S'p2_tl'
I32
tp343
a(S'w'
I6
tp344
a(S'tr_ll'
I0
tp345
a(S'w'
I9
tp346
a(S'w'
I709
tp347
a(S'w'
I10
tp348
a(S'p2_tl'
I18
tp349
a(S'w'
I5
tp350
a(S'tr_ll'
I0
tp351
a(S'w'
I9
tp352
a(S'w'
I710
tp353
a(S'w'
I10
tp354
a(S'p2_tl'
I4
tp355
a(S'w'
I5
tp356
a(S'tr_ll'
I0
tp357
a(S'w'
I9
tp358
a(S'w'
I710
tp359
a(S'w'
I10
tp360
a(S'p2_tl'
I246
tp361
a(S'p2_ll'
I1
tp362
a(S'p2_th'
I6
tp363
a(S'w'
I5
tp364
a(S'tr_ll'
I0
tp365
a(S'w'
I9
tp366
a(S'w'
I710
tp367
a(S'w'
I10
tp368
a(S'p2_tl'
I232
tp369
a(S'w'
I5
tp370
a(S'tr_ll'
I0
tp371
a(S'w'
I9
tp372
a(S'w'
I709
tp373
a(S'w'
I10
tp374
a(S'p2_tl'
I218
tp375
a(S'w'
I6
tp376
a(S'tr_ll'
I0
tp377
a(S'w'
I8
tp378
a(S'w'
I710
tp379
a(S'w'
I10
tp380
a(S'p2_tl'
I204
tp381
a(S'w'
I5
tp382
a(S'tr_ll'
I0
tp383
a(S'w'
I9
tp384
a(S'w'
I710
tp385
a(S'w'
I10
tp386
a(S'p2_tl'
I190
tp387
a(S'w'
I5
tp388
a(S'tr_ll'
I0
tp389
a(S'w'
I9
tp390
a(S'w'
I710
tp391
a(S'w'
I10
tp392
a(S'p2_tl'
I176
tp393
a(S'w'
I5
tp394
a(S'tr_ll'
I0
tp395
a(S'w'
I9
tp396
a(S'w'
I710
tp397
a(S'w'
I10
tp398
a(S'p2_tl'
I162
tp399
a(S'w'
I5
tp400
a(S'tr_ll'
I0
tp401
a(S'w'
I9
tp402
a(S'w'
I709
tp403
a(S'w'
I10
tp404
a(S'p2_tl'
I148
tp405
a(S'w'
I6
tp406
a(S'tr_ll'
I0
tp407
a(S'w'
I9
tp408
a(S'w'
I709
tp409
a(S'w'
I10
tp410
a(S'p2_tl'
I134
tp411
a(S'w'
I5
tp412
a(S'tr_ll'
I0
tp413
a(S'w'
I9
tp414
a(S'w'
I710
tp415
a(S'w'
I10
tp416
a(S'p2_tl'
I120
tp417
a(S'w'
I5
tp418
a(S'tr_ll'
I0
tp419
a(S'w'
I9
tp420
a(S'w'
I710
tp421
a(S'w'
I10
tp422
a(S'p2_tl'
I106
tp423
a(S'w'
I5
tp424
a(S'tr_ll'
I0
tp425
a(S'w'
I9
tp426
a(S'w'
I710
tp427
a(S'w'
I10
tp428
a(S'p2_tl'
I92
tp429
a(S'w'
I5
tp430
a(S'tr_ll'
I0
tp431
a(S'w'
I9
tp432
a(S'w'
I709
tp433
a(S'w'
I10
tp434
a(S'p2_tl'
I78
tp435
a(S'w'
I6
tp436
a(S'tr_ll'
I0
tp437
a(S'w'
I9
tp438
a(S'w'
I721
tp439
a(S'p1_tl'
I0
tp440
a(S'p1_ll'
I0
tp441
a(S'p1_th'
I0
tp442
a(S'w'
I23
tp443
a(S'p2_tl'
I0
tp444
a(S'p2_ll'
I0
tp445
a(S'p2_th'
I0
tp446
a(S'w'
I5
tp447
a(S'tr_ll'
I0
tp448
a(S'w'
I22
tp449
a(S'ch_no'
I0
tp450
a(S'ch_tr'
I1
tp451
a(S'ch_p2'
I1
tp452
a(S'ch_p1'
I1
tp453
a(S'w'
I672
tp454
a(S'p1_tl'
I171
tp455
a(S'w'
I1
tp456
a(S'p1_ll'
I1
tp457
a(S'p1_th'
I1
tp458
a(S'w'
I9
tp459
a(S'p2_tl'
I228
tp460
a(S'w'
I1
tp461
a(S'p2_ll'
I1
tp462
a(S'p2_th'
I7
tp463
a(S'w'
I5
tp464
a(S'tr_ll'
I0
tp465
a(S'w'
I8
tp466
a(S'ch_no'
I1
tp467
a(S'ch_tr'
I1
tp468
a(S'ch_p2'
I1
tp469
a(S'ch_p1'
I1
tp470
a(S'w'
I1
tp471
a(S'no_ll'
I1
tp472
a(S'w'
I709
tp473
a(S'w'
I10
tp474
a(S'p2_tl'
I214
tp475
a(S'w'
I5
tp476
a(S'tr_ll'
I0
tp477
a(S'w'
I9
tp478
a(S'w'
I710
tp479
a(S'w'
I10
tp480
a(S'p2_tl'
I200
tp481
a(S'w'
I5
tp482
a(S'tr_ll'
I0
tp483
a(S'w'
I9
tp484
a(S'w'
I709
tp485
a(S'w'
I10
tp486
a(S'p2_tl'
I186
tp487
a(S'w'
I6
tp488
a(S'tr_ll'
I0
tp489
a(S'w'
I9
tp490
a(S'w'
I709
tp491
a(S'w'
I10
tp492
a(S'p2_tl'
I172
tp493
a(S'w'
I5
tp494
a(S'tr_ll'
I0
tp495
a(S'w'
I9
tp496
a(S'w'
I710
tp497
a(S'w'
I10
tp498
a(S'p2_tl'
I158
tp499
a(S'w'
I5
tp500
a(S'tr_ll'
I0
tp501
a(S'w'
I9
tp502
a(S'w'
I710
tp503
a(S'w'
I10
tp504
a(S'p2_tl'
I144
tp505
a(S'w'
I5
tp506
a(S'tr_ll'
I0
tp507
a(S'w'
I9
tp508
a(S'w'
I710
tp509
a(S'w'
I10
tp510
a(S'p2_tl'
I130
tp511
a(S'w'
I5
tp512
a(S'tr_ll'
I0
tp513
a(S'w'
I9
tp514
a(S'w'
I709
tp515
a(S'w'
I10
tp516
a(S'p2_tl'
I116
tp517
a(S'w'
I6
tp518
a(S'tr_ll'
I0
tp519
a(S'w'
I9
tp520
a(S'w'
I709
tp521
a(S'w'
I10
tp522
a(S'p2_tl'
I102
tp523
a(S'w'
I5
tp524
a(S'tr_ll'
I0
tp525
a(S'w'
I9
tp526
a(S'w'
I710
tp527
a(S'w'
I10
tp528
a(S'p2_tl'
I88
tp529
a(S'w'
I5
tp530
a(S'tr_ll'
I0
tp531
a(S'w'
I9
tp532
a(S'w'
I710
tp533
a(S'w'
I10
tp534
a(S'p2_tl'
I74
tp535
a(S'w'
I5
tp536
a(S'tr_ll'
I0
tp537
a(S'w'
I9
tp538
a(S'w'
I710
tp539
a(S'w'
I10
tp540
a(S'p2_tl'
I60
tp541
a(S'w'
I5
tp542
a(S'tr_ll'
I0
tp543
a(S'w'
I9
tp544
a(S'w'
I709
tp545
a(S'w'
I10
tp546
a(S'p2_tl'
I46
tp547
a(S'w'
I6
tp548
a(S'tr_ll'
I0
tp549
a(S'w'
I9
tp550
a(S'w'
I709
tp551
a(S'w'
I10
tp552
a(S'p2_tl'
I32
tp553
a(S'w'
I5
tp554
a(S'tr_ll'
I0
tp555
a(S'w'
I9
tp556
a(S'w'
I710
tp557
a(S'w'
I10
tp558
a(S'p2_tl'
I18
tp559
a(S'w'
I5
tp560
a(S'tr_ll'
I0
tp561
a(S'w'
I9
tp562
a(S'w'
I710
tp563
a(S'w'
I10
tp564
a(S'p2_tl'
I4
tp565
a(S'w'
I5
tp566
a(S'tr_ll'
I0
tp567
a(S'w'
I9
tp568
a(S'w'
I710
tp569
a(S'w'
I10
tp570
a(S'p2_tl'
I246
tp571
a(S'p2_ll'
I1
tp572
a(S'p2_th'
I6
tp573
a(S'w'
I5
tp574
a(S'tr_ll'
I0
tp575
a(S'w'
I9
tp576
a(S'w'
I709
tp577
a(S'w'
I10
tp578
a(S'p2_tl'
I232
tp579
a(S'w'
I6
tp580
a(S'tr_ll'
I0
tp581
a(S'w'
I9
tp582
a(S'w'
I709
tp583
a(S'w'
I10
tp584
a(S'p2_tl'
I218
tp585
a(S'w'
I5
tp586
a(S'tr_ll'
I0
tp587
a(S'w'
I9
tp588
a(S'w'
I710
tp589
a(S'w'
I10
tp590
a(S'p2_tl'
I204
tp591
a(S'w'
I5
tp592
a(S'tr_ll'
I0
tp593
a(S'w'
I9
tp594
a(S'w'
I710
tp595
a(S'w'
I10
tp596
a(S'p2_tl'
I190
tp597
a(S'w'
I5
tp598
a(S'tr_ll'
I0
tp599
a(S'w'
I9
tp600
a(S'w'
I710
tp601
a(S'w'
I10
tp602
a(S'p2_tl'
I176
tp603
a(S'w'
I5
tp604
a(S'tr_ll'
I0
tp605
a(S'w'
I9
tp606
a(S'w'
I709
tp607
a(S'w'
I10
tp608
a(S'p2_tl'
I162
tp609
a(S'w'
I6
tp610
a(S'tr_ll'
I0
tp611
a(S'w'
I9
tp612
a(S'w'
I709
tp613
a(S'w'
I10
tp614
a(S'p2_tl'
I148
tp615
a(S'w'
I5
tp616
a(S'tr_ll'
I0
tp617
a(S'w'
I9
tp618
a(S'w'
I710
tp619
a(S'w'
I10
tp620
a(S'p2_tl'
I134
tp621
a(S'w'
I5
tp622
a(S'tr_ll'
I0
tp623
a(S'w'
I9
tp624
a(S'w'
I710
tp625
a(S'w'
I10
tp626
a(S'p2_tl'
I120
tp627
a(S'w'
I5
tp628
a(S'tr_ll'
I0
tp629
a(S'w'
I9
tp630
a(S'w'
I710
tp631
a(S'w'
I10
tp632
a(S'p2_tl'
I106
tp633
a(S'w'
I5
tp634
a(S'tr_ll'
I0
tp635
a(S'w'
I9
tp636
a(S'w'
I709
tp637
a(S'w'
I11
tp638
a(S'p2_tl'
I92
tp639
a(S'w'
I5
tp640
a(S'tr_ll'
I0
tp641
a(S'w'
I9
tp642
a(S'w'
I709
tp643
a(S'w'
I10
tp644
a(S'p2_tl'
I78
tp645
a(S'w'
I5
tp646
a(S'tr_ll'
I0
tp647
a(S'w'
I9
tp648
a(S'w'
I722
tp649
a(S'p1_tl'
I0
tp650
a(S'p1_ll'
I0
tp651
a(S'p1_th'
I0
tp652
a(S'w'
I23
tp653
a(S'p2_tl'
I0
tp654
a(S'p2_ll'
I0
tp655
a(S'p2_th'
I0
tp656
a(S'w'
I5
tp657
a(S'tr_ll'
I0
tp658
a(S'w'
I22
tp659
a(S'ch_no'
I0
tp660
a(S'ch_tr'
I1
tp661
a(S'ch_p2'
I1
tp662
a(S'ch_p1'
I1
tp663
a(S'w'
I672
tp664
a(S'p1_tl'
I171
tp665
a(S'p1_ll'
I1
tp666
a(S'p1_th'
I1
tp667
a(S'w'
I10
tp668
a(S'p2_tl'
I228
tp669
a(S'w'
I1
tp670
a(S'p2_ll'
I1
tp671
a(S'p2_th'
I7
tp672
a(S'w'
I5
tp673
a(S'tr_ll'
I0
tp674
a(S'w'
I8
tp675
a(S'ch_no'
I1
tp676
a(S'ch_tr'
I1
tp677
a(S'ch_p2'
I1
tp678
a(S'ch_p1'
I1
tp679
a(S'w'
I1
tp680
a(S'no_ll'
I1
tp681
a(S'w'
I709
tp682
a(S'w'
I10
tp683
a(S'p2_tl'
I214
tp684
a(S'w'
I5
tp685
a(S'tr_ll'
I0
tp686
a(S'w'
I9
tp687
a(S'w'
I709
tp688
a(S'w'
I11
tp689
a(S'p2_tl'
I200
tp690
a(S'w'
I5
tp691
a(S'tr_ll'
I0
tp692
a(S'w'
I9
tp693
a(S'w'
I709
tp694
a(S'w'
I10
tp695
a(S'p2_tl'
I186
tp696
a(S'w'
I5
tp697
a(S'tr_ll'
I0
tp698
a(S'w'
I9
tp699
a(S'w'
I710
tp700
a(S'w'
I10
tp701
a(S'p2_tl'
I172
tp702
a(S'w'
I5
tp703
a(S'tr_ll'
I0
tp704
a(S'w'
I9
tp705
a(S'w'
I710
tp706
a(S'w'
I10
tp707
a(S'p2_tl'
I158
tp708
a(S'w'
I5
tp709
a(S'tr_ll'
I0
tp710
a(S'w'
I9
tp711
a(S'w'
I710
tp712
a(S'w'
I10
tp713
a(S'p2_tl'
I144
tp714
a(S'w'
I5
tp715
a(S'tr_ll'
I0
tp716
a(S'w'
I9
tp717
a(S'w'
I709
tp718
a(S'w'
I11
tp719
a(S'p2_tl'
I130
tp720
a(S'w'
I5
tp721
a(S'tr_ll'
I0
tp722
a(S'w'
I9
tp723
a(S'w'
I709
tp724
a(S'w'
I10
tp725
a(S'p2_tl'
I116
tp726
a(S'w'
I5
tp727
a(S'tr_ll'
I0
tp728
a(S'w'
I9
tp729
a(S'w'
I710
tp730
a(S'w'
I10
tp731
a(S'p2_tl'
I102
tp732
a(S'w'
I5
tp733
a(S'tr_ll'
I0
tp734
a(S'w'
I9
tp735
a(S'w'
I710
tp736
a(S'w'
I10
tp737
a(S'p2_tl'
I88
tp738
a(S'w'
I5
tp739
a(S'tr_ll'
I0
tp740
a(S'w'
I9
tp741
a(S'w'
I710
tp742
a(S'w'
I10
tp743
a(S'p2_tl'
I74
tp744
a(S'w'
I5
tp745
a(S'tr_ll'
I0
tp746
a(S'w'
I9
tp747
a(S'w'
I709
tp748
a(S'w'
I10
tp749
a(S'p2_tl'
I60
tp750
a(S'w'
I6
tp751
a(S'tr_ll'
I0
tp752
a(S'w'
I9
tp753
a(S'w'
I709
tp754
a(S'w'
I10
tp755
a(S'p2_tl'
I46
tp756
a(S'w'
I5
tp757
a(S'tr_ll'
I0
tp758
a(S'w'
I9
tp759
a(S'w'
I710
tp760
a(S'w'
I10
tp761
a(S'p2_tl'
I32
tp762
a(S'w'
I5
tp763
a(S'tr_ll'
I0
tp764
a(S'w'
I9
tp765
a(S'w'
I710
tp766
a(S'w'
I10
tp767
a(S'p2_tl'
I18
tp768
a(S'w'
I5
tp769
a(S'tr_ll'
I0
tp770
a(S'w'
I9
tp771
a(S'w'
I710
tp772
a(S'w'
I10
tp773
a(S'p2_tl'
I4
tp774
a(S'w'
I5
tp775
a(S'tr_ll'
I0
tp776
a(S'w'
I9
tp777
a(S'w'
I709
tp778
a(S'w'
I11
tp779
a(S'p2_tl'
I246
tp780
a(S'p2_ll'
I1
tp781
a(S'p2_th'
I6
tp782
a(S'w'
I5
tp783
a(S'tr_ll'
I0
tp784
a(S'w'
I9
tp785
a(S'w'
I709
tp786
a(S'w'
I10
tp787
a(S'p2_tl'
I232
tp788
a(S'w'
I6
tp789
a(S'tr_ll'
I0
tp790
a(S'w'
I8
tp791
a(S'w'
I710
tp792
a(S'w'
I10
tp793
a(S'p2_tl'
I218
tp794
a(S'w'
I5
tp795
a(S'tr_ll'
I0
tp796
a(S'w'
I9
tp797
a(S'w'
I710
tp798
a(S'w'
I10
tp799
a(S'p2_tl'
I204
tp800
a(S'w'
I5
tp801
a(S'tr_ll'
I0
tp802
a(S'w'
I9
tp803
a(S'w'
I710
tp804
a(S'w'
I10
tp805
a(S'p2_tl'
I190
tp806
a(S'w'
I5
tp807
a(S'tr_ll'
I0
tp808
a(S'w'
I9
tp809
a(S'w'
I709
tp810
a(S'w'
I11
tp811
a(S'p2_tl'
I176
tp812
a(S'w'
I5
tp813
a(S'tr_ll'
I0
tp814
a(S'w'
I9
tp815
a(S'w'
I709
tp816
a(S'w'
I10
tp817
a(S'p2_tl'
I162
tp818
a(S'w'
I5
tp819
a(S'tr_ll'
I0
tp820
a(S'w'
I9
tp821
a(S'w'
I710
tp822
a(S'w'
I10
tp823
a(S'p2_tl'
I148
tp824
a(S'w'
I5
tp825
a(S'tr_ll'
I0
tp826
a(S'w'
I9
tp827
a(S'w'
I710
tp828
a(S'w'
I10
tp829
a(S'p2_tl'
I134
tp830
a(S'w'
I5
tp831
a(S'tr_ll'
I0
tp832
a(S'w'
I9
tp833
a(S'w'
I710
tp834
a(S'w'
I10
tp835
a(S'p2_tl'
I120
tp836
a(S'w'
I5
tp837
a(S'tr_ll'
I0
tp838
a(S'w'
I9
tp839
a(S'w'
I709
tp840
a(S'w'
I11
tp841
a(S'p2_tl'
I106
tp842
a(S'w'
I5
tp843
a(S'tr_ll'
I0
tp844
a(S'w'
I9
tp845
a(S'w'
I709
tp846
a(S'w'
I10
tp847
a(S'p2_tl'
I92
tp848
a(S'w'
I5
tp849
a(S'tr_ll'
I0
tp850
a(S'w'
I9
tp851
a(S'w'
I710
tp852
a(S'w'
I10
tp853
a(S'p2_tl'
I78
tp854
a(S'w'
I5
tp855
a(S'tr_ll'
I0
tp856
a(S'w'
I9
tp857
a(S'w'
I722
tp858
a(S'p1_tl'
I0
tp859
a(S'p1_ll'
I0
tp860
a(S'p1_th'
I0
tp861
a(S'w'
I23
tp862
a(S'p2_tl'
I0
tp863
a(S'p2_ll'
I0
tp864
a(S'p2_th'
I0
tp865
a(S'w'
I5
tp866
a(S'tr_ll'
I0
tp867
a(S'w'
I22
tp868
a(S'ch_no'
I0
tp869
a(S'ch_tr'
I1
tp870
a(S'ch_p2'
I1
tp871
a(S'ch_p1'
I1
tp872
a(S'w'
I672
tp873
a(S'p1_tl'
I171
tp874
a(S'p1_ll'
I1
tp875
a(S'p1_th'
I1
tp876
a(S'w'
I10
tp877
a(S'p2_tl'
I228
tp878
a(S'w'
I1
tp879
a(S'p2_ll'
I1
tp880
a(S'p2_th'
I7
tp881
a(S'w'
I5
tp882
a(S'tr_ll'
I0
tp883
a(S'w'
I7
tp884
a(S'ch_no'
I1
tp885
a(S'ch_tr'
I1
tp886
a(S'ch_p2'
I1
tp887
a(S'ch_p1'
I1
tp888
a(S'w'
I2
tp889
a(S'no_ll'
I1
tp890
a(S'w'
I708
tp891
a(S'w'
I11
tp892
a(S'p2_tl'
I214
tp893
a(S'w'
I5
tp894
a(S'tr_ll'
I0
tp895
a(S'w'
I9
tp896
a(S'w'
I709
tp897
a(S'w'
I10
tp898
a(S'p2_tl'
I200
tp899
a(S'w'
I5
tp900
a(S'tr_ll'
I0
tp901
a(S'w'
I9
tp902
a(S'w'
I710
tp903
a(S'w'
I10
tp904
a(S'p2_tl'
I186
tp905
a(S'w'
I5
tp906
a(S'tr_ll'
I0
tp907
a(S'w'
I9
tp908
a(S'w'
I710
tp909
a(S'w'
I10
tp910
a(S'p2_tl'
I172
tp911
a(S'w'
I5
tp912
a(S'tr_ll'
I0
tp913
a(S'w'
I9
tp914
a(S'w'
I710
tp915
a(S'w'
I10
tp916
a(S'p2_tl'
I158
tp917
a(S'w'
I5
tp918
a(S'tr_ll'
I0
tp919
a(S'w'
I9
tp920
a(S'w'
I709
tp921
a(S'w'
I11
tp922
a(S'p2_tl'
I144
tp923
a(S'w'
I5
tp924
a(S'tr_ll'
I0
tp925
a(S'w'
I9
tp926
a(S'w'
I709
tp927
a(S'w'
I10
tp928
a(S'p2_tl'
I130
tp929
a(S'w'
I6
tp930
a(S'tr_ll'
I0
tp931
a(S'w'
I8
tp932
a(S'w'
I710
tp933
a(S'w'
I10
tp934
a(S'p2_tl'
I116
tp935
a(S'w'
I5
tp936
a(S'tr_ll'
I0
tp937
a(S'w'
I9
tp938
a(S'w'
I710
tp939
a(S'w'
I10
tp940
a(S'p2_tl'
I102
tp941
a(S'w'
I5
tp942
a(S'tr_ll'
I0
tp943
a(S'w'
I9
tp944
a(S'w'
I710
tp945
a(S'w'
I10
tp946
a(S'p2_tl'
I88
tp947
a(S'w'
I5
tp948
a(S'tr_ll'
I0
tp949
a(S'w'
I9
tp950
a(S'w'
I709
tp951
a(S'w'
I11
tp952
a(S'p2_tl'
I74
tp953
a(S'w'
I5
tp954
a(S'tr_ll'
I0
tp955
a(S'w'
I9
tp956
a(S'w'
I709
tp957
a(S'w'
I10
tp958
a(S'p2_tl'
I60
tp959
a(S'w'
I6
tp960
a(S'tr_ll'
I0
tp961
a(S'w'
I8
tp962
a(S'w'
I710
tp963
a(S'w'
I10
tp964
a(S'p2_tl'
I46
tp965
a(S'w'
I5
tp966
a(S'tr_ll'
I0
tp967
a(S'w'
I9
tp968
a(S'w'
I710
tp969
a(S'w'
I10
tp970
a(S'p2_tl'
I32
tp971
a(S'w'
I5
tp972
a(S'tr_ll'
I0
tp973
a(S'w'
I9
tp974
a(S'w'
I710
tp975
a(S'w'
I10
tp976
a(S'p2_tl'
I18
tp977
a(S'w'
I5
tp978
a(S'tr_ll'
I0
tp979
a(S'w'
I9
tp980
a(S'w'
I709
tp981
a(S'w'
I11
tp982
a(S'p2_tl'
I4
tp983
a(S'w'
I5
tp984
a(S'tr_ll'
I0
tp985
a(S'w'
I9
tp986
a(S'w'
I709
tp987
a(S'w'
I10
tp988
a(S'p2_tl'
I246
tp989
a(S'w'
I1
tp990
a(S'p2_ll'
I1
tp991
a(S'p2_th'
I6
tp992
a(S'w'
I5
tp993
a(S'tr_ll'
I0
tp994
a(S'w'
I9
tp995
a(S'w'
I709
tp996
a(S'w'
I10
tp997
a(S'p2_tl'
I232
tp998
a(S'w'
I5
tp999
a(S'tr_ll'
I0
tp1000
a(S'w'
I9
tp1001
a(S'w'
I710
tp1002
a(S'w'
I10
tp1003
a(S'p2_tl'
I218
tp1004
a(S'w'
I5
tp1005
a(S'tr_ll'
I0
tp1006
a(S'w'
I9
tp1007
a(S'w'
I710
tp1008
a(S'w'
I10
tp1009
a(S'p2_tl'
I204
tp1010
a(S'w'
I5
tp1011
a(S'tr_ll'
I0
tp1012
a(S'w'
I9
tp1013
a(S'w'
I709
tp1014
a(S'w'
I11
tp1015
a(S'p2_tl'
I190
tp1016
a(S'w'
I5
tp1017
a(S'tr_ll'
I0
tp1018
a(S'w'
I9
tp1019
a(S'w'
I709
tp1020
a(S'w'
I10
tp1021
a(S'p2_tl'
I176
tp1022
a(S'w'
I6
tp1023
a(S'tr_ll'
I0
tp1024
a(S'w'
I8
tp1025
a(S'w'
I710
tp1026
a(S'w'
I10
tp1027
a(S'p2_tl'
I162
tp1028
a(S'w'
I5
tp1029
a(S'tr_ll'
I0
tp1030
a(S'w'
I9
tp1031
a(S'w'
I710
tp1032
a(S'w'
I10
tp1033
a(S'p2_tl'
I148
tp1034
a(S'w'
I5
tp1035
a(S'tr_ll'
I0
tp1036
a(S'w'
I9
tp1037
a(S'w'
I710
tp1038
a(S'w'
I10
tp1039
a(S'p2_tl'
I134
tp1040
a(S'w'
I5
tp1041
a(S'tr_ll'
I0
tp1042
a(S'w'
I9
tp1043
a(S'w'
I710
tp1044
a(S'w'
I10
tp1045
a(S'p2_tl'
I120
tp1046
a(S'w'
I5
tp1047
a(S'tr_ll'
I0
tp1048
a(S'w'
I9
tp1049
a(S'w'
I709
tp1050
a(S'w'
I10
tp1051
a(S'p2_tl'
I106
tp1052
a(S'w'
I6
tp1053
a(S'tr_ll'
I0
tp1054
a(S'w'
I8
tp1055
a(S'w'
I710
tp1056
a(S'w'
I10
tp1057
a(S'p2_tl'
I92
tp1058
a(S'w'
I5
tp1059
a(S'tr_ll'
I0
tp1060
a(S'w'
I9
tp1061
a(S'w'
I710
tp1062
a(S'w'
I10
tp1063
a(S'p2_tl'
I78
tp1064
a(S'w'
I5
tp1065
a(S'tr_ll'
I0
tp1066
a(S'w'
I9
tp1067
a(S'w'
I722
tp1068
a(S'p1_tl'
I0
tp1069
a(S'p1_ll'
I0
tp1070
a(S'p1_th'
I0
tp1071
a(S'w'
I23
tp1072
a(S'p2_tl'
I0
tp1073
a(S'p2_ll'
I0
tp1074
a(S'p2_th'
I0
tp1075
a(S'w'
I5
tp1076
a(S'tr_ll'
I0
tp1077
a(S'w'
I21
tp1078
a(S'ch_no'
I0
tp1079
a(S'ch_tr'
I1
tp1080
a(S'ch_p2'
I1
tp1081
a(S'ch_p1'
I1
tp1082
a(S'w'
I672
tp1083
a(S'p1_tl'
I171
tp1084
a(S'w'
I1
tp1085
a(S'p1_ll'
I1
tp1086
a(S'p1_th'
I1
tp1087
a(S'w'
I10
tp1088
a(S'p2_tl'
I228
tp1089
a(S'w'
I1
tp1090
a(S'p2_ll'
I1
tp1091
a(S'p2_th'
I7
tp1092
a(S'w'
I4
tp1093
a(S'tr_ll'
I0
tp1094
a(S'w'
I8
tp1095
a(S'ch_no'
I1
tp1096
a(S'ch_tr'
I1
tp1097
a(S'ch_p2'
I1
tp1098
a(S'ch_p1'
I1
tp1099
a(S'w'
I1
tp1100
a(S'w'
I1
tp1101
a(S'no_ll'
I1
tp1102
a(S'w'
I708
tp1103
a(S'w'
I10
tp1104
a(S'p2_tl'
I214
tp1105
a(S'w'
I6
tp1106
a(S'tr_ll'
I0
tp1107
a(S'w'
I9
tp1108
a(S'w'
I709
tp1109
a(S'w'
I10
tp1110
a(S'p2_tl'
I200
tp1111
a(S'w'
I5
tp1112
a(S'tr_ll'
I0
tp1113
a(S'w'
I9
tp1114
a(S'w'
I710
tp1115
a(S'w'
I10
tp1116
a(S'p2_tl'
I186
tp1117
a(S'w'
I5
tp1118
a(S'tr_ll'
I0
tp1119
a(S'w'
I9
tp1120
a(S'w'
I710
tp1121
a(S'w'
I10
tp1122
a(S'p2_tl'
I172
tp1123
a(S'w'
I5
tp1124
a(S'tr_ll'
I0
tp1125
a(S'w'
I9
tp1126
a(S'w'
I710
tp1127
a(S'w'
I10
tp1128
a(S'p2_tl'
I158
tp1129
a(S'w'
I5
tp1130
a(S'tr_ll'
I0
tp1131
a(S'w'
I9
tp1132
a(S'w'
I709
tp1133
a(S'w'
I10
tp1134
a(S'p2_tl'
I144
tp1135
a(S'w'
I6
tp1136
a(S'tr_ll'
I0
tp1137
a(S'w'
I8
tp1138
a(S'w'
I710
tp1139
a(S'w'
I10
tp1140
a(S'p2_tl'
I130
tp1141
a(S'w'
I5
tp1142
a(S'tr_ll'
I0
tp1143
a(S'w'
I9
tp1144
a(S'w'
I710
tp1145
a(S'w'
I10
tp1146
a(S'p2_tl'
I116
tp1147
a(S'w'
I5
tp1148
a(S'tr_ll'
I0
tp1149
a(S'w'
I9
tp1150
a(S'w'
I710
tp1151
a(S'w'
I10
tp1152
a(S'p2_tl'
I102
tp1153
a(S'w'
I5
tp1154
a(S'tr_ll'
I0
tp1155
a(S'w'
I9
tp1156
a(S'w'
I710
tp1157
a(S'w'
I10
tp1158
a(S'p2_tl'
I88
tp1159
a(S'w'
I5
tp1160
a(S'tr_ll'
I0
tp1161
a(S'w'
I9
tp1162
a(S'w'
I709
tp1163
a(S'w'
I10
tp1164
a(S'p2_tl'
I74
tp1165
a(S'w'
I6
tp1166
a(S'tr_ll'
I0
tp1167
a(S'w'
I9
tp1168
a(S'w'
I709
tp1169
a(S'w'
I10
tp1170
a(S'p2_tl'
I60
tp1171
a(S'w'
I5
tp1172
a(S'tr_ll'
I0
tp1173
a(S'w'
I9
tp1174
a(S'w'
I710
tp1175
a(S'w'
I10
tp1176
a(S'p2_tl'
I46
tp1177
a(S'w'
I5
tp1178
a(S'tr_ll'
I0
tp1179
a(S'w'
I9
tp1180
a(S'w'
I710
tp1181
a(S'w'
I10
tp1182
a(S'p2_tl'
I32
tp1183
a(S'w'
I5
tp1184
a(S'tr_ll'
I0
tp1185
a(S'w'
I9
tp1186
a(S'w'
I709
tp1187
a(S'w'
I11
tp1188
a(S'p2_tl'
I18
tp1189
a(S'w'
I5
tp1190
a(S'tr_ll'
I0
tp1191
a(S'w'
I9
tp1192
a(S'w'
I709
tp1193
a(S'w'
I10
tp1194
a(S'p2_tl'
I4
tp1195
a(S'w'
I6
tp1196
a(S'tr_ll'
I0
tp1197
a(S'w'
I9
tp1198
a(S'w'
I709
tp1199
a(S'w'
I10
tp1200
a(S'p2_tl'
I246
tp1201
a(S'w'
I1
tp1202
a(S'p2_ll'
I1
tp1203
a(S'p2_th'
I6
tp1204
a(S'w'
I5
tp1205
a(S'tr_ll'
I0
tp1206
a(S'w'
I9
tp1207
a(S'w'
I709
tp1208
a(S'w'
I10
tp1209
a(S'p2_tl'
I232
tp1210
a(S'w'
I5
tp1211
a(S'tr_ll'
I0
tp1212
a(S'w'
I9
tp1213
a(S'w'
I710
tp1214
a(S'w'
I10
tp1215
a(S'p2_tl'
I218
tp1216
a(S'w'
I5
tp1217
a(S'tr_ll'
I0
tp1218
a(S'w'
I9
tp1219
a(S'w'
I710
tp1220
a(S'w'
I10
tp1221
a(S'p2_tl'
I204
tp1222
a(S'w'
I5
tp1223
a(S'tr_ll'
I0
tp1224
a(S'w'
I9
tp1225
a(S'w'
I709
tp1226
a(S'w'
I10
tp1227
a(S'p2_tl'
I190
tp1228
a(S'w'
I6
tp1229
a(S'tr_ll'
I0
tp1230
a(S'w'
I9
tp1231
a(S'w'
I709
tp1232
a(S'w'
I10
tp1233
a(S'p2_tl'
I176
tp1234
a(S'w'
I5
tp1235
a(S'tr_ll'
I0
tp1236
a(S'w'
I9
tp1237
a(S'w'
I710
tp1238
a(S'w'
I10
tp1239
a(S'p2_tl'
I162
tp1240
a(S'w'
I5
tp1241
a(S'tr_ll'
I0
tp1242
a(S'w'
I9
tp1243
a(S'w'
I710
tp1244
a(S'w'
I10
tp1245
a(S'p2_tl'
I148
tp1246
a(S'w'
I5
tp1247
a(S'tr_ll'
I0
tp1248
a(S'w'
I9
tp1249
a(S'w'
I710
tp1250
a(S'w'
I10
tp1251
a(S'p2_tl'
I134
tp1252
a(S'w'
I5
tp1253
a(S'tr_ll'
I0
tp1254
a(S'w'
I9
tp1255
a(S'w'
I709
tp1256
a(S'w'
I10
tp1257
a(S'p2_tl'
I120
tp1258
a(S'w'
I6
tp1259
a(S'tr_ll'
I0
tp1260
a(S'w'
I9
tp1261
a(S'w'
I709
tp1262
a(S'w'
I10
tp1263
a(S'p2_tl'
I106
tp1264
a(S'w'
I5
tp1265
a(S'tr_ll'
I0
tp1266
a(S'w'
I9
tp1267
a(S'w'
I710
tp1268
a(S'w'
I10
tp1269
a(S'p2_tl'
I92
tp1270
a(S'w'
I5
tp1271
a(S'tr_ll'
I0
tp1272
a(S'w'
I9
tp1273
a(S'w'
I710
tp1274
a(S'w'
I10
tp1275
a(S'p2_tl'
I78
tp1276
a(S'w'
I5
tp1277
a(S'tr_ll'
I0
tp1278
a(S'w'
I9
tp1279
a(S'w'
I722
tp1280
a(S'p1_tl'
I0
tp1281
a(S'p1_ll'
I0
tp1282
a(S'p1_th'
I0
tp1283
a(S'w'
I23
tp1284
a(S'p2_tl'
I0
tp1285
a(S'p2_ll'
I0
tp1286
a(S'p2_th'
I0
tp1287
a(S'w'
I5
tp1288
a(S'tr_ll'
I0
tp1289
a(S'w'
I21
tp1290
a(S'ch_no'
I0
tp1291
a(S'ch_tr'
I1
tp1292
a(S'ch_p2'
I1
tp1293
a(S'ch_p1'
I1
tp1294
a(S'w'
I672
tp1295
a(S'p1_tl'
I171
tp1296
a(S'w'
I1
tp1297
a(S'p1_ll'
I1
tp1298
a(S'p1_th'
I1
tp1299
a(S'w'
I10
tp1300
a(S'p2_tl'
I228
tp1301
a(S'p2_ll'
I1
tp1302
a(S'p2_th'
I7
tp1303
a(S'w'
I5
tp1304
a(S'tr_ll'
I0
tp1305
a(S'w'
I8
tp1306
a(S'ch_no'
I1
tp1307
a(S'ch_tr'
I1
tp1308
a(S'ch_p2'
I1
tp1309
a(S'ch_p1'
I1
tp1310
a(S'w'
I1
tp1311
a(S'w'
I1
tp1312
a(S'no_ll'
I1
tp1313
a(S'w'
I708
tp1314
a(S'w'
I10
tp1315
a(S'p2_tl'
I214
tp1316
a(S'w'
I5
tp1317
a(S'tr_ll'
I0
tp1318
a(S'w'
I9
tp1319
a(S'w'
I710
tp1320
a(S'w'
I10
tp1321
a(S'p2_tl'
I200
tp1322
a(S'w'
I5
tp1323
a(S'tr_ll'
I0
tp1324
a(S'w'
I9
tp1325
a(S'w'
I710
tp1326
a(S'w'
I10
tp1327
a(S'p2_tl'
I186
tp1328
a(S'w'
I5
tp1329
a(S'tr_ll'
I0
tp1330
a(S'w'
I9
tp1331
a(S'w'
I710
tp1332
a(S'w'
I10
tp1333
a(S'p2_tl'
I172
tp1334
a(S'w'
I5
tp1335
a(S'tr_ll'
I0
tp1336
a(S'w'
I9
tp1337
a(S'w'
I709
tp1338
a(S'w'
I10
tp1339
a(S'p2_tl'
I158
tp1340
a(S'w'
I6
tp1341
a(S'tr_ll'
I0
tp1342
a(S'w'
I9
tp1343
a(S'w'
I709
tp1344
a(S'w'
I10
tp1345
a(S'p2_tl'
I144
tp1346
a(S'w'
I5
tp1347
a(S'tr_ll'
I0
tp1348
a(S'w'
I9
tp1349
a(S'w'
I710
tp1350
a(S'w'
I10
tp1351
a(S'p2_tl'
I130
tp1352
a(S'w'
I5
tp1353
a(S'tr_ll'
I0
tp1354
a(S'w'
I9
tp1355
a(S'w'
I710
tp1356
a(S'w'
I10
tp1357
a(S'p2_tl'
I116
tp1358
a(S'w'
I5
tp1359
a(S'tr_ll'
I0
tp1360
a(S'w'
I9
tp1361
a(S'w'
I710
tp1362
a(S'w'
I10
tp1363
a(S'p2_tl'
I102
tp1364
a(S'w'
I5
tp1365
a(S'tr_ll'
I0
tp1366
a(S'w'
I9
tp1367
a(S'w'
I709
tp1368
a(S'w'
I10
tp1369
a(S'p2_tl'
I88
tp1370
a(S'w'
I6
tp1371
a(S'tr_ll'
I0
tp1372
a(S'w'
I9
tp1373
a(S'w'
I709
tp1374
a(S'w'
I10
tp1375
a(S'p2_tl'
I74
tp1376
a(S'w'
I5
tp1377
a(S'tr_ll'
I0
tp1378
a(S'w'
I9
tp1379
a(S'w'
I710
tp1380
a(S'w'
I10
tp1381
a(S'p2_tl'
I60
tp1382
a(S'w'
I5
tp1383
a(S'tr_ll'
I0
tp1384
a(S'w'
I9
tp1385
a(S'w'
I710
tp1386
a(S'w'
I10
tp1387
a(S'p2_tl'
I46
tp1388
a(S'w'
I5
tp1389
a(S'tr_ll'
I0
tp1390
a(S'w'
I9
tp1391
a(S'w'
I710
tp1392
a(S'w'
I10
tp1393
a(S'p2_tl'
I32
tp1394
a(S'w'
I5
tp1395
a(S'tr_ll'
I0
tp1396
a(S'w'
I9
tp1397
a(S'w'
I709
tp1398
a(S'w'
I10
tp1399
a(S'p2_tl'
I18
tp1400
a(S'w'
I6
tp1401
a(S'tr_ll'
I0
tp1402
a(S'w'
I9
tp1403
a(S'w'
I709
tp1404
a(S'w'
I10
tp1405
a(S'p2_tl'
I4
tp1406
a(S'w'
I5
tp1407
a(S'tr_ll'
I0
tp1408
a(S'w'
I9
tp1409
a(S'w'
I710
tp1410
a(S'w'
I10
tp1411
a(S'p2_tl'
I246
tp1412
a(S'w'
I1
tp1413
a(S'p2_ll'
I1
tp1414
a(S'p2_th'
I6
tp1415
a(S'w'
I5
tp1416
a(S'tr_ll'
I0
tp1417
a(S'w'
I9
tp1418
a(S'w'
I709
tp1419
a(S'w'
I10
tp1420
a(S'p2_tl'
I232
tp1421
a(S'w'
I5
tp1422
a(S'tr_ll'
I0
tp1423
a(S'w'
I9
tp1424
a(S'w'
I710
tp1425
a(S'w'
I10
tp1426
a(S'p2_tl'
I218
tp1427
a(S'w'
I5
tp1428
a(S'tr_ll'
I0
tp1429
a(S'w'
I9
tp1430
a(S'w'
I709
tp1431
a(S'w'
I10
tp1432
a(S'p2_tl'
I204
tp1433
a(S'w'
I6
tp1434
a(S'tr_ll'
I0
tp1435
a(S'w'
I9
tp1436
a(S'w'
I709
tp1437
a(S'w'
I10
tp1438
a(S'p2_tl'
I190
tp1439
a(S'w'
I5
tp1440
a(S'tr_ll'
I0
tp1441
a(S'w'
I9
tp1442
a(S'w'
I710
tp1443
a(S'w'
I10
tp1444
a(S'p2_tl'
I176
tp1445
a(S'w'
I5
tp1446
a(S'tr_ll'
I0
tp1447
a(S'w'
I9
tp1448
a(S'w'
I710
tp1449
a(S'w'
I10
tp1450
a(S'p2_tl'
I162
tp1451
a(S'w'
I5
tp1452
a(S'tr_ll'
I0
tp1453
a(S'w'
I9
tp1454
a(S'w'
I710
tp1455
a(S'w'
I10
tp1456
a(S'p2_tl'
I148
tp1457
a(S'w'
I5
tp1458
a(S'tr_ll'
I0
tp1459
a(S'w'
I9
tp1460
a(S'w'
I709
tp1461
a(S'w'
I10
tp1462
a(S'p2_tl'
I134
tp1463
a(S'w'
I6
tp1464
a(S'tr_ll'
I0
tp1465
a(S'w'
I9
tp1466
a(S'w'
I709
tp1467
a(S'w'
I10
tp1468
a(S'p2_tl'
I120
tp1469
a(S'w'
I5
tp1470
a(S'tr_ll'
I0
tp1471
a(S'w'
I9
tp1472
a(S'w'
I710
tp1473
a(S'w'
I10
tp1474
a(S'p2_tl'
I106
tp1475
a(S'w'
I5
tp1476
a(S'tr_ll'
I0
tp1477
a(S'w'
I9
tp1478
a(S'w'
I710
tp1479
a(S'w'
I10
tp1480
a(S'p2_tl'
I92
tp1481
a(S'w'
I5
tp1482
a(S'tr_ll'
I0
tp1483
a(S'w'
I9
tp1484
a(S'w'
I710
tp1485
a(S'w'
I10
tp1486
a(S'p2_tl'
I78
tp1487
a(S'w'
I5
tp1488
a(S'tr_ll'
I0
tp1489
a(S'w'
I9
tp1490
a(S'w'
I721
tp1491
a(S'p1_tl'
I0
tp1492
a(S'w'
I1
tp1493
a(S'p1_ll'
I0
tp1494
a(S'p1_th'
I0
tp1495
a(S'w'
I22
tp1496
a(S'p2_tl'
I0
tp1497
a(S'w'
I1
tp1498
a(S'p2_ll'
I0
tp1499
a(S'p2_th'
I0
tp1500
a(S'w'
I4
tp1501
a(S'tr_ll'
I0
tp1502
a(S'w'
I22
tp1503
a(S'ch_no'
I0
tp1504
a(S'ch_tr'
I1
tp1505
a(S'ch_p2'
I1
tp1506
a(S'ch_p1'
I1
tp1507
a(S'w'
I672
tp1508
a(S'p1_tl'
I171
tp1509
a(S'w'
I1
tp1510
a(S'p1_ll'
I1
tp1511
a(S'p1_th'
I1
tp1512
a(S'w'
I10
tp1513
a(S'p2_tl'
I228
tp1514
a(S'p2_ll'
I1
tp1515
a(S'p2_th'
I7
tp1516
a(S'w'
I5
tp1517
a(S'tr_ll'
I0
tp1518
a(S'w'
I8
tp1519
a(S'ch_no'
I1
tp1520
a(S'ch_tr'
I1
tp1521
a(S'ch_p2'
I1
tp1522
a(S'ch_p1'
I1
tp1523
a(S'w'
I1
tp1524
a(S'w'
I1
tp1525
a(S'no_ll'
I1
tp1526
a(S'w'
I708
tp1527
a(S'w'
I10
tp1528
a(S'p2_tl'
I214
tp1529
a(S'w'
I5
tp1530
a(S'tr_ll'
I0
tp1531
a(S'w'
I9
tp1532
a(S'w'
I710
tp1533
a(S'w'
I10
tp1534
a(S'p2_tl'
I200
tp1535
a(S'w'
I5
tp1536
a(S'tr_ll'
I0
tp1537
a(S'w'
I9
tp1538
a(S'w'
I710
tp1539
a(S'w'
I10
tp1540
a(S'p2_tl'
I186
tp1541
a(S'w'
I5
tp1542
a(S'tr_ll'
I0
tp1543
a(S'w'
I9
tp1544
a(S'w'
I709
tp1545
a(S'w'
I11
tp1546
a(S'p2_tl'
I172
tp1547
a(S'w'
I5
tp1548
a(S'tr_ll'
I0
tp1549
a(S'w'
I9
tp1550
a(S'w'
I709
tp1551
a(S'w'
I10
tp1552
a(S'p2_tl'
I158
tp1553
a(S'w'
I5
tp1554
a(S'tr_ll'
I0
tp1555
a(S'w'
I9
tp1556
a(S'w'
I710
tp1557
a(S'w'
I10
tp1558
a(S'p2_tl'
I144
tp1559
a(S'w'
I5
tp1560
a(S'tr_ll'
I0
tp1561
a(S'w'
I9
tp1562
a(S'w'
I710
tp1563
a(S'w'
I10
tp1564
a(S'p2_tl'
I130
tp1565
a(S'w'
I5
tp1566
a(S'tr_ll'
I0
tp1567
a(S'w'
I9
tp1568
a(S'w'
I710
tp1569
a(S'w'
I10
tp1570
a(S'p2_tl'
I116
tp1571
a(S'w'
I5
tp1572
a(S'tr_ll'
I0
tp1573
a(S'w'
I9
tp1574
a(S'w'
I709
tp1575
a(S'w'
I11
tp1576
a(S'p2_tl'
I102
tp1577
a(S'w'
I5
tp1578
a(S'tr_ll'
I0
tp1579
a(S'w'
I9
tp1580
a(S'w'
I709
tp1581
a(S'w'
I10
tp1582
a(S'p2_tl'
I88
tp1583
a(S'w'
I5
tp1584
a(S'tr_ll'
I0
tp1585
a(S'w'
I9
tp1586
a(S'w'
I710
tp1587
a(S'w'
I10
tp1588
a(S'p2_tl'
I74
tp1589
a(S'w'
I5
tp1590
a(S'tr_ll'
I0
tp1591
a(S'w'
I9
tp1592
a(S'w'
I710
tp1593
a(S'w'
I10
tp1594
a(S'p2_tl'
I60
tp1595
a(S'w'
I5
tp1596
a(S'tr_ll'
I0
tp1597
a(S'w'
I9
tp1598
a(S'w'
I710
tp1599
a(S'w'
I10
tp1600
a(S'p2_tl'
I46
tp1601
a(S'w'
I5
tp1602
a(S'tr_ll'
I0
tp1603
a(S'w'
I9
tp1604
a(S'w'
I709
tp1605
a(S'w'
I11
tp1606
a(S'p2_tl'
I32
tp1607
a(S'w'
I5
tp1608
a(S'tr_ll'
I0
tp1609
a(S'w'
I9
tp1610
a(S'w'
I709
tp1611
a(S'w'
I10
tp1612
a(S'p2_tl'
I18
tp1613
a(S'w'
I5
tp1614
a(S'tr_ll'
I0
tp1615
a(S'w'
I9
tp1616
a(S'w'
I710
tp1617
a(S'w'
I10
tp1618
a(S'p2_tl'
I4
tp1619
a(S'w'
I5
tp1620
a(S'tr_ll'
I0
tp1621
a(S'w'
I9
tp1622
a(S'w'
I710
tp1623
a(S'w'
I10
tp1624
a(S'p2_tl'
I246
tp1625
a(S'w'
I1
tp1626
a(S'p2_ll'
I1
tp1627
a(S'p2_th'
I6
tp1628
a(S'w'
I4
tp1629
a(S'tr_ll'
I0
tp1630
a(S'w'
I9
tp1631
a(S'w'
I710
tp1632
a(S'w'
I10
tp1633
a(S'p2_tl'
I232
tp1634
a(S'w'
I5
tp1635
a(S'tr_ll'
I0
tp1636
a(S'w'
I9
tp1637
a(S'w'
I709
tp1638
a(S'w'
I11
tp1639
a(S'p2_tl'
I218
tp1640
a(S'w'
I5
tp1641
a(S'tr_ll'
I0
tp1642
a(S'w'
I9
tp1643
a(S'w'
I709
tp1644
a(S'w'
I10
tp1645
a(S'p2_tl'
I204
tp1646
a(S'w'
I5
tp1647
a(S'tr_ll'
I0
tp1648
a(S'w'
I9
tp1649
a(S'w'
I710
tp1650
a(S'w'
I10
tp1651
a(S'p2_tl'
I190
tp1652
a(S'w'
I5
tp1653
a(S'tr_ll'
I0
tp1654
a(S'w'
I9
tp1655
a(S'w'
I710
tp1656
a(S'w'
I10
tp1657
a(S'p2_tl'
I176
tp1658
a(S'w'
I5
tp1659
a(S'tr_ll'
I0
tp1660
a(S'w'
I9
tp1661
a(S'w'
I710
tp1662
a(S'w'
I10
tp1663
a(S'p2_tl'
I162
tp1664
a(S'w'
I5
tp1665
a(S'tr_ll'
I0
tp1666
a(S'w'
I9
tp1667
a(S'w'
I709
tp1668
a(S'w'
I11
tp1669
a(S'p2_tl'
I148
tp1670
a(S'w'
I5
tp1671
a(S'tr_ll'
I0
tp1672
a(S'w'
I9
tp1673
a(S'w'
I709
tp1674
a(S'w'
I10
tp1675
a(S'p2_tl'
I134
tp1676
a(S'w'
I6
tp1677
a(S'tr_ll'
I0
tp1678
a(S'w'
I8
tp1679
a(S'w'
I710
tp1680
a(S'w'
I10
tp1681
a(S'p2_tl'
I120
tp1682
a(S'w'
I5
tp1683
a(S'tr_ll'
I0
tp1684
a(S'w'
I9
tp1685
a(S'w'
I710
tp1686
a(S'w'
I10
tp1687
a(S'p2_tl'
I106
tp1688
a(S'w'
I5
tp1689
a(S'tr_ll'
I0
tp1690
a(S'w'
I9
tp1691
a(S'w'
I710
tp1692
a(S'w'
I10
tp1693
a(S'p2_tl'
I92
tp1694
a(S'w'
I5
tp1695
a(S'tr_ll'
I0
tp1696
a(S'w'
I9
tp1697
a(S'w'
I709
tp1698
a(S'w'
I11
tp1699
a(S'p2_tl'
I78
tp1700
a(S'w'
I5
tp1701
a(S'tr_ll'
I0
tp1702
a(S'w'
I9
tp1703
a(S'w'
I721
tp1704
a(S'p1_tl'
I0
tp1705
a(S'w'
I1
tp1706
a(S'p1_ll'
I0
tp1707
a(S'p1_th'
I0
tp1708
a(S'w'
I22
tp1709
a(S'p2_tl'
I0
tp1710
a(S'w'
I1
tp1711
a(S'p2_ll'
I0
tp1712
a(S'p2_th'
I0
tp1713
a(S'w'
I4
tp1714
a(S'tr_ll'
I0
tp1715
a(S'w'
I22
tp1716
a(S'ch_no'
I0
tp1717
a(S'ch_tr'
I1
tp1718
a(S'ch_p2'
I1
tp1719
a(S'ch_p1'
I1
tp1720
a(S'w'
I672
tp1721
a(S'p1_tl'
I171
tp1722
a(S'w'
I1
tp1723
a(S'p1_ll'
I1
tp1724
a(S'p1_th'
I1
tp1725
a(S'w'
I9
tp1726
a(S'p2_tl'
I228
tp1727
a(S'w'
I1
tp1728
a(S'p2_ll'
I1
tp1729
a(S'p2_th'
I7
tp1730
a(S'w'
I5
tp1731
a(S'tr_ll'
I0
tp1732
a(S'w'
I8
tp1733
a(S'ch_no'
I1
tp1734
a(S'ch_tr'
I1
tp1735
a(S'ch_p2'
I1
tp1736
a(S'ch_p1'
I1
tp1737
a(S'w'
I1
tp1738
a(S'w'
I1
tp1739
a(S'no_ll'
I1
tp1740
a(S'w'
I708
tp1741
a(S'w'
I10
tp1742
a(S'p2_tl'
I214
tp1743
a(S'w'
I5
tp1744
a(S'tr_ll'
I0
tp1745
a(S'w'
I9
tp1746
a(S'w'
I710
tp1747
a(S'w'
I10
tp1748
a(S'p2_tl'
I200
tp1749
a(S'w'
I5
tp1750
a(S'tr_ll'
I0
tp1751
a(S'w'
I9
tp1752
a(S'w'
I709
tp1753
a(S'w'
I11
tp1754
a(S'p2_tl'
I186
tp1755
a(S'w'
I5
tp1756
a(S'tr_ll'
I0
tp1757
a(S'w'
I9
tp1758
a(S'w'
I709
tp1759
a(S'w'
I10
tp1760
a(S'p2_tl'
I172
tp1761
a(S'w'
I5
tp1762
a(S'tr_ll'
I0
tp1763
a(S'w'
I9
tp1764
a(S'w'
I710
tp1765
a(S'w'
I10
tp1766
a(S'p2_tl'
I158
tp1767
a(S'w'
I5
tp1768
a(S'tr_ll'
I0
tp1769
a(S'w'
I9
tp1770
a(S'w'
I710
tp1771
a(S'w'
I10
tp1772
a(S'p2_tl'
I144
tp1773
a(S'w'
I5
tp1774
a(S'tr_ll'
I0
tp1775
a(S'w'
I9
tp1776
a(S'w'
I710
tp1777
a(S'w'
I10
tp1778
a(S'p2_tl'
I130
tp1779
a(S'w'
I5
tp1780
a(S'tr_ll'
I0
tp1781
a(S'w'
I9
tp1782
a(S'w'
I709
tp1783
a(S'w'
I11
tp1784
a(S'p2_tl'
I116
tp1785
a(S'w'
I5
tp1786
a(S'tr_ll'
I0
tp1787
a(S'w'
I9
tp1788
a(S'w'
I709
tp1789
a(S'w'
I10
tp1790
a(S'p2_tl'
I102
tp1791
a(S'w'
I5
tp1792
a(S'tr_ll'
I0
tp1793
a(S'w'
I9
tp1794
a(S'w'
I710
tp1795
a(S'w'
I10
tp1796
a(S'p2_tl'
I88
tp1797
a(S'w'
I5
tp1798
a(S'tr_ll'
I0
tp1799
a(S'w'
I9
tp1800
a(S'w'
I710
tp1801
a(S'w'
I10
tp1802
a(S'p2_tl'
I74
tp1803
a(S'w'
I5
tp1804
a(S'tr_ll'
I0
tp1805
a(S'w'
I9
tp1806
a(S'w'
I710
tp1807
a(S'w'
I10
tp1808
a(S'p2_tl'
I60
tp1809
a(S'w'
I5
tp1810
a(S'tr_ll'
I0
tp1811
a(S'w'
I9
tp1812
a(S'w'
I710
tp1813
a(S'w'
I10
tp1814
a(S'p2_tl'
I46
tp1815
a(S'w'
I5
tp1816
a(S'tr_ll'
I0
tp1817
a(S'w'
I9
tp1818
a(S'w'
I709
tp1819
a(S'w'
I10
tp1820
a(S'p2_tl'
I32
tp1821
a(S'w'
I5
tp1822
a(S'tr_ll'
I0
tp1823
a(S'w'
I9
tp1824
a(S'w'
I710
tp1825
a(S'w'
I10
tp1826
a(S'p2_tl'
I18
tp1827
a(S'w'
I5
tp1828
a(S'tr_ll'
I0
tp1829
a(S'w'
I9
tp1830
a(S'w'
I710
tp1831
a(S'w'
I10
tp1832
a(S'p2_tl'
I4
tp1833
a(S'w'
I5
tp1834
a(S'tr_ll'
I0
tp1835
a(S'w'
I9
tp1836
a(S'w'
I710
tp1837
a(S'w'
I10
tp1838
a(S'p2_tl'
I246
tp1839
a(S'p2_ll'
I1
tp1840
a(S'p2_th'
I6
tp1841
a(S'w'
I5
tp1842
a(S'tr_ll'
I0
tp1843
a(S'w'
I9
tp1844
a(S'w'
I709
tp1845
a(S'w'
I11
tp1846
a(S'p2_tl'
I232
tp1847
a(S'w'
I5
tp1848
a(S'tr_ll'
I0
tp1849
a(S'w'
I9
tp1850
a(S'w'
I709
tp1851
a(S'w'
I10
tp1852
a(S'p2_tl'
I218
tp1853
a(S'w'
I6
tp1854
a(S'tr_ll'
I0
tp1855
a(S'w'
I8
tp1856
a(S'w'
I710
tp1857
a(S'w'
I10
tp1858
a(S'p2_tl'
I204
tp1859
a(S'w'
I5
tp1860
a(S'tr_ll'
I0
tp1861
a(S'w'
I9
tp1862
a(S'w'
I710
tp1863
a(S'w'
I10
tp1864
a(S'p2_tl'
I190
tp1865
a(S'w'
I5
tp1866
a(S'tr_ll'
I0
tp1867
a(S'w'
I9
tp1868
a(S'w'
I710
tp1869
a(S'w'
I10
tp1870
a(S'p2_tl'
I176
tp1871
a(S'w'
I5
tp1872
a(S'tr_ll'
I0
tp1873
a(S'w'
I9
tp1874
a(S'w'
I709
tp1875
a(S'w'
I11
tp1876
a(S'p2_tl'
I162
tp1877
a(S'w'
I5
tp1878
a(S'tr_ll'
I0
tp1879
a(S'w'
I9
tp1880
a(S'w'
I709
tp1881
a(S'w'
I10
tp1882
a(S'p2_tl'
I148
tp1883
a(S'w'
I6
tp1884
a(S'tr_ll'
I0
tp1885
a(S'w'
I8
tp1886
a(S'w'
I710
tp1887
a(S'w'
I10
tp1888
a(S'p2_tl'
I134
tp1889
a(S'w'
I5
tp1890
a(S'tr_ll'
I0
tp1891
a(S'w'
I9
tp1892
a(S'w'
I710
tp1893
a(S'w'
I10
tp1894
a(S'p2_tl'
I120
tp1895
a(S'w'
I5
tp1896
a(S'tr_ll'
I0
tp1897
a(S'w'
I9
tp1898
a(S'w'
I710
tp1899
a(S'w'
I10
tp1900
a(S'p2_tl'
I106
tp1901
a(S'w'
I5
tp1902
a(S'tr_ll'
I0
tp1903
a(S'w'
I9
tp1904
a(S'w'
I710
tp1905
a(S'w'
I10
tp1906
a(S'p2_tl'
I92
tp1907
a(S'w'
I5
tp1908
a(S'tr_ll'
I0
tp1909
a(S'w'
I9
tp1910
a(S'w'
I709
tp1911
a(S'w'
I10
tp1912
a(S'p2_tl'
I78
tp1913
a(S'w'
I5
tp1914
a(S'tr_ll'
I0
tp1915
a(S'w'
I9
tp1916
a(S'w'
I722
tp1917
a(S'p1_tl'
I0
tp1918
a(S'p1_ll'
I0
tp1919
a(S'p1_th'
I0
tp1920
a(S'w'
I23
tp1921
a(S'p2_tl'
I0
tp1922
a(S'p2_ll'
I0
tp1923
a(S'p2_th'
I0
tp1924
a(S'w'
I5
tp1925
a(S'tr_ll'
I0
tp1926
a(S'w'
I22
tp1927
a(S'ch_no'
I0
tp1928
a(S'ch_tr'
I1
tp1929
a(S'ch_p2'
I1
tp1930
a(S'ch_p1'
I1
tp1931
a(S'w'
I672
tp1932
a(S'p1_tl'
I171
tp1933
a(S'p1_ll'
I1
tp1934
a(S'p1_th'
I1
tp1935
a(S'w'
I10
tp1936
a(S'p2_tl'
I228
tp1937
a(S'w'
I1
tp1938
a(S'p2_ll'
I1
tp1939
a(S'p2_th'
I7
tp1940
a(S'w'
I5
tp1941
a(S'tr_ll'
I0
tp1942
a(S'w'
I8
tp1943
a(S'ch_no'
I1
tp1944
a(S'ch_tr'
I1
tp1945
a(S'ch_p2'
I1
tp1946
a(S'ch_p1'
I1
tp1947
a(S'w'
I1
tp1948
a(S'no_ll'
I1
tp1949
a(S'w'
I709
tp1950
a(S'w'
I10
tp1951
a(S'p2_tl'
I214
tp1952
a(S'w'
I5
tp1953
a(S'tr_ll'
I0
tp1954
a(S'w'
I9
tp1955
a(S'w'
I709
tp1956
a(S'w'
I11
tp1957
a(S'p2_tl'
I200
tp1958
a(S'w'
I5
tp1959
a(S'tr_ll'
I0
tp1960
a(S'w'
I9
tp1961
a(S'w'
I709
tp1962
a(S'w'
I10
tp1963
a(S'p2_tl'
I186
tp1964
a(S'w'
I5
tp1965
a(S'tr_ll'
I0
tp1966
a(S'w'
I9
tp1967
a(S'w'
I710
tp1968
a(S'w'
I10
tp1969
a(S'p2_tl'
I172
tp1970
a(S'w'
I5
tp1971
a(S'tr_ll'
I0
tp1972
a(S'w'
I9
tp1973
a(S'w'
I710
tp1974
a(S'w'
I10
tp1975
a(S'p2_tl'
I158
tp1976
a(S'w'
I5
tp1977
a(S'tr_ll'
I0
tp1978
a(S'w'
I9
tp1979
a(S'w'
I710
tp1980
a(S'w'
I10
tp1981
a(S'p2_tl'
I144
tp1982
a(S'w'
I5
tp1983
a(S'tr_ll'
I0
tp1984
a(S'w'
I9
tp1985
a(S'w'
I710
tp1986
a(S'w'
I10
tp1987
a(S'p2_tl'
I130
tp1988
a(S'w'
I5
tp1989
a(S'tr_ll'
I0
tp1990
a(S'w'
I9
tp1991
a(S'w'
I709
tp1992
a(S'w'
I10
tp1993
a(S'p2_tl'
I116
tp1994
a(S'w'
I6
tp1995
a(S'tr_ll'
I0
tp1996
a(S'w'
I8
tp1997
a(S'w'
I710
tp1998
a(S'w'
I10
tp1999
a(S'p2_tl'
I102
tp2000
a(S'w'
I5
tp2001
a(S'tr_ll'
I0
tp2002
a(S'w'
I9
tp2003
a(S'w'
I710
tp2004
a(S'w'
I10
tp2005
a(S'p2_tl'
I88
tp2006
a(S'w'
I5
tp2007
a(S'tr_ll'
I0
tp2008
a(S'w'
I9
tp2009
a(S'w'
I710
tp2010
a(S'w'
I10
tp2011
a(S'p2_tl'
I74
tp2012
a(S'w'
I5
tp2013
a(S'tr_ll'
I0
tp2014
a(S'w'
I9
tp2015
a(S'w'
I710
tp2016
a(S'w'
I10
tp2017
a(S'p2_tl'
I60
tp2018
a(S'w'
I5
tp2019
a(S'tr_ll'
I0
tp2020
a(S'w'
I9
tp2021
a(S'w'
I709
tp2022
a(S'w'
I10
tp2023
a(S'p2_tl'
I46
tp2024
a(S'w'
I6
tp2025
a(S'tr_ll'
I0
tp2026
a(S'w'
I9
tp2027
a(S'w'
I709
tp2028
a(S'w'
I10
tp2029
a(S'p2_tl'
I32
tp2030
a(S'w'
I5
tp2031
a(S'tr_ll'
I0
tp2032
a(S'w'
I9
tp2033
a(S'w'
I710
tp2034
a(S'w'
I10
tp2035
a(S'p2_tl'
I18
tp2036
a(S'w'
I5
tp2037
a(S'tr_ll'
I0
tp2038
a(S'w'
I9
tp2039
a(S'w'
I710
tp2040
a(S'w'
I10
tp2041
a(S'p2_tl'
I4
tp2042
a(S'w'
I5
tp2043
a(S'tr_ll'
I0
tp2044
a(S'w'
I9
tp2045
a(S'w'
I709
tp2046
a(S'w'
I11
tp2047
a(S'p2_tl'
I246
tp2048
a(S'p2_ll'
I1
tp2049
a(S'p2_th'
I6
tp2050
a(S'w'
I5
tp2051
a(S'tr_ll'
I0
tp2052
a(S'w'
I9
tp2053
a(S'w'
I709
tp2054
a(S'w'
I10
tp2055
a(S'p2_tl'
I232
tp2056
a(S'w'
I6
tp2057
a(S'tr_ll'
I0
tp2058
a(S'w'
I9
tp2059
a(S'w'
I709
tp2060
a(S'w'
I10
tp2061
a(S'p2_tl'
I218
tp2062
a(S'w'
I5
tp2063
a(S'tr_ll'
I0
tp2064
a(S'w'
I9
tp2065
a(S'w'
I710
tp2066
a(S'w'
I10
tp2067
a(S'p2_tl'
I204
tp2068
a(S'w'
I5
tp2069
a(S'tr_ll'
I0
tp2070
a(S'w'
I9
tp2071
a(S'w'
I710
tp2072
a(S'w'
I10
tp2073
a(S'p2_tl'
I190
tp2074
a(S'w'
I5
tp2075
a(S'tr_ll'
I0
tp2076
a(S'w'
I9
tp2077
a(S'w'
I710
tp2078
a(S'w'
I10
tp2079
a(S'p2_tl'
I176
tp2080
a(S'w'
I5
tp2081
a(S'tr_ll'
I0
tp2082
a(S'w'
I9
tp2083
a(S'w'
I709
tp2084
a(S'w'
I10
tp2085
a(S'p2_tl'
I162
tp2086
a(S'w'
I6
tp2087
a(S'tr_ll'
I0
tp2088
a(S'w'
I8
tp2089
a(S'w'
I710
tp2090
a(S'w'
I10
tp2091
a(S'p2_tl'
I148
tp2092
a(S'w'
I5
tp2093
a(S'tr_ll'
I0
tp2094
a(S'w'
I9
tp2095
a(S'w'
I710
tp2096
a(S'w'
I10
tp2097
a(S'p2_tl'
I134
tp2098
a(S'w'
I5
tp2099
a(S'tr_ll'
I0
tp2100
a(S'w'
I9
tp2101
a(S'w'
I710
tp2102
a(S'w'
I10
tp2103
a(S'p2_tl'
I120
tp2104
a(S'w'
I5
tp2105
a(S'tr_ll'
I0
tp2106
a(S'w'
I9
tp2107
a(S'w'
I710
tp2108
a(S'w'
I10
tp2109
a(S'p2_tl'
I106
tp2110
a(S'w'
I5
tp2111
a(S'tr_ll'
I0
tp2112
a(S'w'
I9
tp2113
a(S'w'
I709
tp2114
a(S'w'
I10
tp2115
a(S'p2_tl'
I92
tp2116
a(S'w'
I6
tp2117
a(S'tr_ll'
I0
tp2118
a(S'w'
I9
tp2119
a(S'w'
I709
tp2120
a(S'w'
I10
tp2121
a(S'p2_tl'
I78
tp2122
a(S'w'
I5
tp2123
a(S'tr_ll'
I0
tp2124
a(S'w'
I9
tp2125
a(S'w'
I722
tp2126
a(S'p1_tl'
I0
tp2127
a(S'p1_ll'
I0
tp2128
a(S'p1_th'
I0
tp2129
a(S'w'
I23
tp2130
a(S'p2_tl'
I0
tp2131
a(S'p2_ll'
I0
tp2132
a(S'p2_th'
I0
tp2133
a(S'w'
I5
tp2134
a(S'tr_ll'
I0
tp2135
a(S'w'
I22
tp2136
a(S'ch_no'
I0
tp2137
a(S'ch_tr'
I1
tp2138
a(S'ch_p2'
I1
tp2139
a(S'ch_p1'
I1
tp2140
a(S'w'
I672
tp2141
a(S'p1_tl'
I171
tp2142
a(S'p1_ll'
I1
tp2143
a(S'p1_th'
I1
tp2144
a(S'w'
I10
tp2145
a(S'p2_tl'
I228
tp2146
a(S'w'
I1
tp2147
a(S'p2_ll'
I1
tp2148
a(S'p2_th'
I7
tp2149
a(S'w'
I5
tp2150
a(S'tr_ll'
I0
tp2151
a(S'w'
I7
tp2152
a(S'ch_no'
I1
tp2153
a(S'ch_tr'
I1
tp2154
a(S'ch_p2'
I1
tp2155
a(S'ch_p1'
I1
tp2156
a(S'w'
I2
tp2157
a(S'no_ll'
I1
tp2158
a(S'w'
I709
tp2159
a(S'w'
I10
tp2160
a(S'p2_tl'
I214
tp2161
a(S'w'
I5
tp2162
a(S'tr_ll'
I0
tp2163
a(S'w'
I9
tp2164
a(S'w'
I709
tp2165
a(S'w'
I10
tp2166
a(S'p2_tl'
I200
tp2167
a(S'w'
I6
tp2168
a(S'tr_ll'
I0
tp2169
a(S'w'
I9
tp2170
a(S'w'
I709
tp2171
a(S'w'
I10
tp2172
a(S'p2_tl'
I186
tp2173
a(S'w'
I5
tp2174
a(S'tr_ll'
I0
tp2175
a(S'w'
I9
tp2176
a(S'w'
I710
tp2177
a(S'w'
I10
tp2178
a(S'p2_tl'
I172
tp2179
a(S'w'
I5
tp2180
a(S'tr_ll'
I0
tp2181
a(S'w'
I9
tp2182
a(S'w'
I710
tp2183
a(S'w'
I10
tp2184
a(S'p2_tl'
I158
tp2185
a(S'w'
I5
tp2186
a(S'tr_ll'
I0
tp2187
a(S'w'
I9
tp2188
a(S'w'
I710
tp2189
a(S'w'
I10
tp2190
a(S'p2_tl'
I144
tp2191
a(S'w'
I5
tp2192
a(S'tr_ll'
I0
tp2193
a(S'w'
I9
tp2194
a(S'w'
I709
tp2195
a(S'w'
I10
tp2196
a(S'p2_tl'
I130
tp2197
a(S'w'
I6
tp2198
a(S'tr_ll'
I0
tp2199
a(S'w'
I9
tp2200
a(S'w'
I709
tp2201
a(S'w'
I10
tp2202
a(S'p2_tl'
I116
tp2203
a(S'w'
I5
tp2204
a(S'tr_ll'
I0
tp2205
a(S'w'
I9
tp2206
a(S'w'
I710
tp2207
a(S'w'
I10
tp2208
a(S'p2_tl'
I102
tp2209
a(S'w'
I5
tp2210
a(S'tr_ll'
I0
tp2211
a(S'w'
I9
tp2212
a(S'w'
I710
tp2213
a(S'w'
I10
tp2214
a(S'p2_tl'
I88
tp2215
a(S'w'
I5
tp2216
a(S'tr_ll'
I0
tp2217
a(S'w'
I9
tp2218
a(S'w'
I710
tp2219
a(S'w'
I10
tp2220
a(S'p2_tl'
I74
tp2221
a(S'w'
I5
tp2222
a(S'tr_ll'
I0
tp2223
a(S'w'
I9
tp2224
a(S'w'
I709
tp2225
a(S'w'
I10
tp2226
a(S'p2_tl'
I60
tp2227
a(S'w'
I6
tp2228
a(S'tr_ll'
I0
tp2229
a(S'w'
I9
tp2230
a(S'w'
I709
tp2231
a(S'w'
I10
tp2232
a(S'p2_tl'
I46
tp2233
a(S'w'
I5
tp2234
a(S'tr_ll'
I0
tp2235
a(S'w'
I9
tp2236
a(S'w'
I710
tp2237
a(S'w'
I10
tp2238
a(S'p2_tl'
I32
tp2239
a(S'w'
I5
tp2240
a(S'tr_ll'
I0
tp2241
a(S'w'
I9
tp2242
a(S'w'
I710
tp2243
a(S'w'
I10
tp2244
a(S'p2_tl'
I18
tp2245
a(S'w'
I5
tp2246
a(S'tr_ll'
I0
tp2247
a(S'w'
I9
tp2248
a(S'w'
I710
tp2249
a(S'w'
I10
tp2250
a(S'p2_tl'
I4
tp2251
a(S'w'
I5
tp2252
a(S'tr_ll'
I0
tp2253
a(S'w'
I9
tp2254
a(S'w'
I709
tp2255
a(S'w'
I10
tp2256
a(S'p2_tl'
I246
tp2257
a(S'w'
I1
tp2258
a(S'p2_ll'
I1
tp2259
a(S'p2_th'
I6
tp2260
a(S'w'
I5
tp2261
a(S'tr_ll'
I0
tp2262
a(S'w'
I9
tp2263
a(S'w'
I709
tp2264
a(S'w'
I10
tp2265
a(S'p2_tl'
I232
tp2266
a(S'w'
I5
tp2267
a(S'tr_ll'
I0
tp2268
a(S'w'
I9
tp2269
a(S'w'
I710
tp2270
a(S'w'
I10
tp2271
a(S'p2_tl'
I218
tp2272
a(S'w'
I5
tp2273
a(S'tr_ll'
I0
tp2274
a(S'w'
I9
tp2275
a(S'w'
I710
tp2276
a(S'w'
I10
tp2277
a(S'p2_tl'
I204
tp2278
a(S'w'
I5
tp2279
a(S'tr_ll'
I0
tp2280
a(S'w'
I9
tp2281
a(S'w'
I710
tp2282
a(S'w'
I10
tp2283
a(S'p2_tl'
I190
tp2284
a(S'w'
I5
tp2285
a(S'tr_ll'
I0
tp2286
a(S'w'
I9
tp2287
a(S'w'
I709
tp2288
a(S'w'
I10
tp2289
a(S'p2_tl'
I176
tp2290
a(S'w'
I6
tp2291
a(S'tr_ll'
I0
tp2292
a(S'w'
I9
tp2293
a(S'w'
I709
tp2294
a(S'w'
I10
tp2295
a(S'p2_tl'
I162
tp2296
a(S'w'
I5
tp2297
a(S'tr_ll'
I0
tp2298
a(S'w'
I9
tp2299
a(S'w'
I710
tp2300
a(S'w'
I10
tp2301
a(S'p2_tl'
I148
tp2302
a(S'w'
I5
tp2303
a(S'tr_ll'
I0
tp2304
a(S'w'
I9
tp2305
a(S'w'
I710
tp2306
a(S'w'
I10
tp2307
a(S'p2_tl'
I134
tp2308
a(S'w'
I5
tp2309
a(S'tr_ll'
I0
tp2310
a(S'w'
I9
tp2311
a(S'w'
I710
tp2312
a(S'w'
I10
tp2313
a(S'p2_tl'
I120
tp2314
a(S'w'
I5
tp2315
a(S'tr_ll'
I0
tp2316
a(S'w'
I9
tp2317
a(S'w'
I709
tp2318
a(S'w'
I10
tp2319
a(S'p2_tl'
I106
tp2320
a(S'w'
I6
tp2321
a(S'tr_ll'
I0
tp2322
a(S'w'
I9
tp2323
a(S'w'
I709
tp2324
a(S'w'
I10
tp2325
a(S'p2_tl'
I92
tp2326
a(S'w'
I5
tp2327
a(S'tr_ll'
I0
tp2328
a(S'w'
I9
tp2329
a(S'w'
I710
tp2330
a(S'w'
I10
tp2331
a(S'p2_tl'
I78
tp2332
a(S'w'
I5
tp2333
a(S'tr_ll'
I0
tp2334
a(S'w'
I9
tp2335
a(S'w'
I722
tp2336
a(S'p1_tl'
I0
tp2337
a(S'p1_ll'
I0
tp2338
a(S'p1_th'
I0
tp2339
a(S'w'
I23
tp2340
a(S'p2_tl'
I0
tp2341
a(S'p2_ll'
I0
tp2342
a(S'p2_th'
I0
tp2343
a(S'w'
I5
tp2344
a(S'tr_ll'
I0
tp2345
a(S'w'
I21
tp2346
a(S'ch_no'
I0
tp2347
a(S'ch_tr'
I1
tp2348
a(S'ch_p2'
I1
tp2349
a(S'ch_p1'
I1
tp2350
a(S'w'
I673
tp2351
a(S'p1_tl'
I171
tp2352
a(S'p1_ll'
I1
tp2353
a(S'p1_th'
I1
tp2354
a(S'w'
I10
tp2355
a(S'p2_tl'
I228
tp2356
a(S'w'
I1
tp2357
a(S'p2_ll'
I1
tp2358
a(S'p2_th'
I7
tp2359
a(S'w'
I5
tp2360
a(S'tr_ll'
I0
tp2361
a(S'w'
I7
tp2362
a(S'ch_no'
I1
tp2363
a(S'ch_tr'
I1
tp2364
a(S'ch_p2'
I1
tp2365
a(S'ch_p1'
I1
tp2366
a(S'w'
I1
tp2367
a(S'w'
I1
tp2368
a(S'no_ll'
I1
tp2369
a(S'w'
I708
tp2370
a(S'w'
I10
tp2371
a(S'p2_tl'
I214
tp2372
a(S'w'
I6
tp2373
a(S'tr_ll'
I0
tp2374
a(S'w'
I9
tp2375
a(S'w'
I709
tp2376
a(S'w'
I10
tp2377
a(S'p2_tl'
I200
tp2378
a(S'w'
I5
tp2379
a(S'tr_ll'
I0
tp2380
a(S'w'
I9
tp2381
a(S'w'
I710
tp2382
a(S'w'
I10
tp2383
a(S'p2_tl'
I186
tp2384
a(S'w'
I5
tp2385
a(S'tr_ll'
I0
tp2386
a(S'w'
I9
tp2387
a(S'w'
I710
tp2388
a(S'w'
I10
tp2389
a(S'p2_tl'
I172
tp2390
a(S'w'
I5
tp2391
a(S'tr_ll'
I0
tp2392
a(S'w'
I9
tp2393
a(S'w'
I710
tp2394
a(S'w'
I10
tp2395
a(S'p2_tl'
I158
tp2396
a(S'w'
I5
tp2397
a(S'tr_ll'
I0
tp2398
a(S'w'
I9
tp2399
a(S'w'
I709
tp2400
a(S'w'
I10
tp2401
a(S'p2_tl'
I144
tp2402
a(S'w'
I6
tp2403
a(S'tr_ll'
I0
tp2404
a(S'w'
I9
tp2405
a(S'w'
I709
tp2406
a(S'w'
I10
tp2407
a(S'p2_tl'
I130
tp2408
a(S'w'
I5
tp2409
a(S'tr_ll'
I0
tp2410
a(S'w'
I9
tp2411
a(S'w'
I710
tp2412
a(S'w'
I10
tp2413
a(S'p2_tl'
I116
tp2414
a(S'w'
I5
tp2415
a(S'tr_ll'
I0
tp2416
a(S'w'
I9
tp2417
a(S'w'
I710
tp2418
a(S'w'
I10
tp2419
a(S'p2_tl'
I102
tp2420
a(S'w'
I5
tp2421
a(S'tr_ll'
I0
tp2422
a(S'w'
I9
tp2423
a(S'w'
I710
tp2424
a(S'w'
I10
tp2425
a(S'p2_tl'
I88
tp2426
a(S'w'
I5
tp2427
a(S'tr_ll'
I0
tp2428
a(S'w'
I9
tp2429
a(S'w'
I709
tp2430
a(S'w'
I10
tp2431
a(S'p2_tl'
I74
tp2432
a(S'w'
I6
tp2433
a(S'tr_ll'
I0
tp2434
a(S'w'
I9
tp2435
a(S'w'
I709
tp2436
a(S'w'
I10
tp2437
a(S'p2_tl'
I60
tp2438
a(S'w'
I5
tp2439
a(S'tr_ll'
I0
tp2440
a(S'w'
I9
tp2441
a(S'w'
I710
tp2442
a(S'w'
I10
tp2443
a(S'p2_tl'
I46
tp2444
a(S'w'
I5
tp2445
a(S'tr_ll'
I0
tp2446
a(S'w'
I9
tp2447
a(S'w'
I710
tp2448
a(S'w'
I10
tp2449
a(S'p2_tl'
I32
tp2450
a(S'w'
I5
tp2451
a(S'tr_ll'
I0
tp2452
a(S'w'
I9
tp2453
a(S'w'
I710
tp2454
a(S'w'
I10
tp2455
a(S'p2_tl'
I18
tp2456
a(S'w'
I5
tp2457
a(S'tr_ll'
I0
tp2458
a(S'w'
I9
tp2459
a(S'w'
I709
tp2460
a(S'w'
I10
tp2461
a(S'p2_tl'
I4
tp2462
a(S'w'
I6
tp2463
a(S'tr_ll'
I0
tp2464
a(S'w'
I9
tp2465
a(S'w'
I709
tp2466
a(S'w'
I10
tp2467
a(S'p2_tl'
I246
tp2468
a(S'w'
I1
tp2469
a(S'p2_ll'
I1
tp2470
a(S'p2_th'
I6
tp2471
a(S'w'
I5
tp2472
a(S'tr_ll'
I0
tp2473
a(S'w'
I9
tp2474
a(S'w'
I709
tp2475
a(S'w'
I10
tp2476
a(S'p2_tl'
I232
tp2477
a(S'w'
I5
tp2478
a(S'tr_ll'
I0
tp2479
a(S'w'
I9
tp2480
a(S'w'
I710
tp2481
a(S'w'
I10
tp2482
a(S'p2_tl'
I218
tp2483
a(S'w'
I5
tp2484
a(S'tr_ll'
I0
tp2485
a(S'w'
I9
tp2486
a(S'w'
I710
tp2487
a(S'w'
I10
tp2488
a(S'p2_tl'
I204
tp2489
a(S'w'
I5
tp2490
a(S'tr_ll'
I0
tp2491
a(S'w'
I9
tp2492
a(S'w'
I709
tp2493
a(S'w'
I11
tp2494
a(S'p2_tl'
I190
tp2495
a(S'w'
I5
tp2496
a(S'tr_ll'
I0
tp2497
a(S'w'
I9
tp2498
a(S'w'
I709
tp2499
a(S'w'
I10
tp2500
a(S'p2_tl'
I176
tp2501
a(S'w'
I5
tp2502
a(S'tr_ll'
I0
tp2503
a(S'w'
I9
tp2504
a(S'w'
I710
tp2505
a(S'w'
I10
tp2506
a(S'p2_tl'
I162
tp2507
a(S'w'
I5
tp2508
a(S'tr_ll'
I0
tp2509
a(S'w'
I9
tp2510
a(S'w'
I710
tp2511
a(S'w'
I10
tp2512
a(S'p2_tl'
I148
tp2513
a(S'w'
I5
tp2514
a(S'tr_ll'
I0
tp2515
a(S'w'
I9
tp2516
a(S'w'
I710
tp2517
a(S'w'
I10
tp2518
a(S'p2_tl'
I134
tp2519
a(S'w'
I5
tp2520
a(S'tr_ll'
I0
tp2521
a(S'w'
I9
tp2522
a(S'w'
I709
tp2523
a(S'w'
I10
tp2524
a(S'p2_tl'
I120
tp2525
a(S'w'
I6
tp2526
a(S'tr_ll'
I0
tp2527
a(S'w'
I9
tp2528
a(S'w'
I709
tp2529
a(S'w'
I10
tp2530
a(S'p2_tl'
I106
tp2531
a(S'w'
I5
tp2532
a(S'tr_ll'
I0
tp2533
a(S'w'
I9
tp2534
a(S'w'
I710
tp2535
a(S'w'
I10
tp2536
a(S'p2_tl'
I92
tp2537
a(S'w'
I5
tp2538
a(S'tr_ll'
I0
tp2539
a(S'w'
I9
tp2540
a(S'w'
I710
tp2541
a(S'w'
I10
tp2542
a(S'p2_tl'
I78
tp2543
a(S'w'
I5
tp2544
a(S'tr_ll'
I0
tp2545
a(S'w'
I9
tp2546
a(S'w'
I722
tp2547
a(S'p1_tl'
I0
tp2548
a(S'p1_ll'
I0
tp2549
a(S'p1_th'
I0
tp2550
a(S'w'
I23
tp2551
a(S'p2_tl'
I0
tp2552
a(S'p2_ll'
I0
tp2553
a(S'p2_th'
I0
tp2554
a(S'w'
I5
tp2555
a(S'tr_ll'
I0
tp2556
a(S'w'
I21
tp2557
a(S'ch_no'
I0
tp2558
a(S'ch_tr'
I1
tp2559
a(S'ch_p2'
I1
tp2560
a(S'ch_p1'
I1
tp2561
a(S'w'
I672
tp2562
a(S'p1_tl'
I171
tp2563
a(S'w'
I1
tp2564
a(S'p1_ll'
I1
tp2565
a(S'p1_th'
I1
tp2566
a(S'w'
I10
tp2567
a(S'p2_tl'
I228
tp2568
a(S'p2_ll'
I1
tp2569
a(S'p2_th'
I7
tp2570
a(S'w'
I5
tp2571
a(S'tr_ll'
I0
tp2572
a(S'w'
I8
tp2573
a(S'ch_no'
I1
tp2574
a(S'ch_tr'
I1
tp2575
a(S'ch_p2'
I1
tp2576
a(S'ch_p1'
I1
tp2577
a(S'w'
I1
tp2578
a(S'w'
I1
tp2579
a(S'no_ll'
I1
tp2580
a(S'w'
I708
tp2581
a(S'w'
I10
tp2582
a(S'p2_tl'
I214
tp2583
a(S'w'
I5
tp2584
a(S'tr_ll'
I0
tp2585
a(S'w'
I9
tp2586
a(S'w'
I710
tp2587
a(S'w'
I10
tp2588
a(S'p2_tl'
I200
tp2589
a(S'w'
I5
tp2590
a(S'tr_ll'
I0
tp2591
a(S'w'
I9
tp2592
a(S'w'
I710
tp2593
a(S'w'
I10
tp2594
a(S'p2_tl'
I186
tp2595
a(S'w'
I5
tp2596
a(S'tr_ll'
I0
tp2597
a(S'w'
I9
tp2598
a(S'w'
I710
tp2599
a(S'w'
I10
tp2600
a(S'p2_tl'
I172
tp2601
a(S'w'
I5
tp2602
a(S'tr_ll'
I0
tp2603
a(S'w'
I9
tp2604
a(S'w'
I709
tp2605
a(S'w'
I11
tp2606
a(S'p2_tl'
I158
tp2607
a(S'w'
I5
tp2608
a(S'tr_ll'
I0
tp2609
a(S'w'
I9
tp2610
a(S'w'
I709
tp2611
a(S'w'
I10
tp2612
a(S'p2_tl'
I144
tp2613
a(S'w'
I5
tp2614
a(S'tr_ll'
I0
tp2615
a(S'w'
I9
tp2616
a(S'w'
I710
tp2617
a(S'w'
I10
tp2618
a(S'p2_tl'
I130
tp2619
a(S'w'
I5
tp2620
a(S'tr_ll'
I0
tp2621
a(S'w'
I9
tp2622
a(S'w'
I710
tp2623
a(S'w'
I10
tp2624
a(S'p2_tl'
I116
tp2625
a(S'w'
I5
tp2626
a(S'tr_ll'
I0
tp2627
a(S'w'
I9
tp2628
a(S'w'
I710
tp2629
a(S'w'
I10
tp2630
a(S'p2_tl'
I102
tp2631
a(S'w'
I5
tp2632
a(S'tr_ll'
I0
tp2633
a(S'w'
I9
tp2634
a(S'w'
I709
tp2635
a(S'w'
I11
tp2636
a(S'p2_tl'
I88
tp2637
a(S'w'
I5
tp2638
a(S'tr_ll'
I0
tp2639
a(S'w'
I9
tp2640
a(S'w'
I709
tp2641
a(S'w'
I10
tp2642
a(S'p2_tl'
I74
tp2643
a(S'w'
I5
tp2644
a(S'tr_ll'
I0
tp2645
a(S'w'
I9
tp2646
a(S'w'
I710
tp2647
a(S'w'
I10
tp2648
a(S'p2_tl'
I60
tp2649
a(S'w'
I5
tp2650
a(S'tr_ll'
I0
tp2651
a(S'w'
I9
tp2652
a(S'w'
I710
tp2653
a(S'w'
I10
tp2654
a(S'p2_tl'
I46
tp2655
a(S'w'
I5
tp2656
a(S'tr_ll'
I0
tp2657
a(S'w'
I9
tp2658
a(S'w'
I710
tp2659
a(S'w'
I10
tp2660
a(S'p2_tl'
I32
tp2661
a(S'w'
I5
tp2662
a(S'tr_ll'
I0
tp2663
a(S'w'
I9
tp2664
a(S'w'
I709
tp2665
a(S'w'
I11
tp2666
a(S'p2_tl'
I18
tp2667
a(S'w'
I5
tp2668
a(S'tr_ll'
I0
tp2669
a(S'w'
I9
tp2670
a(S'w'
I709
tp2671
a(S'w'
I10
tp2672
a(S'p2_tl'
I4
tp2673
a(S'w'
I5
tp2674
a(S'tr_ll'
I0
tp2675
a(S'w'
I9
tp2676
a(S'w'
I710
tp2677
a(S'w'
I10
tp2678
a(S'p2_tl'
I246
tp2679
a(S'w'
I1
tp2680
a(S'p2_ll'
I1
tp2681
a(S'p2_th'
I6
tp2682
a(S'w'
I5
tp2683
a(S'tr_ll'
I0
tp2684
a(S'w'
I9
tp2685
a(S'w'
I709
tp2686
a(S'w'
I10
tp2687
a(S'p2_tl'
I232
tp2688
a(S'w'
I5
tp2689
a(S'tr_ll'
I0
tp2690
a(S'w'
I9
tp2691
a(S'w'
I710
tp2692
a(S'w'
I10
tp2693
a(S'p2_tl'
I218
tp2694
a(S'w'
I5
tp2695
a(S'tr_ll'
I0
tp2696
a(S'w'
I9
tp2697
a(S'w'
I709
tp2698
a(S'w'
I11
tp2699
a(S'p2_tl'
I204
tp2700
a(S'w'
I5
tp2701
a(S'tr_ll'
I0
tp2702
a(S'w'
I9
tp2703
a(S'w'
I709
tp2704
a(S'w'
I10
tp2705
a(S'p2_tl'
I190
tp2706
a(S'w'
I5
tp2707
a(S'tr_ll'
I0
tp2708
a(S'w'
I9
tp2709
a(S'w'
I710
tp2710
a(S'w'
I10
tp2711
a(S'p2_tl'
I176
tp2712
a(S'w'
I5
tp2713
a(S'tr_ll'
I0
tp2714
a(S'w'
I9
tp2715
a(S'w'
I710
tp2716
a(S'w'
I10
tp2717
a(S'p2_tl'
I162
tp2718
a(S'w'
I5
tp2719
a(S'tr_ll'
I0
tp2720
a(S'w'
I9
tp2721
a(S'w'
I710
tp2722
a(S'w'
I10
tp2723
a(S'p2_tl'
I148
tp2724
a(S'w'
I5
tp2725
a(S'tr_ll'
I0
tp2726
a(S'w'
I9
tp2727
a(S'w'
I709
tp2728
a(S'w'
I11
tp2729
a(S'p2_tl'
I134
tp2730
a(S'w'
I5
tp2731
a(S'tr_ll'
I0
tp2732
a(S'w'
I9
tp2733
a(S'w'
I709
tp2734
a(S'w'
I10
tp2735
a(S'p2_tl'
I120
tp2736
a(S'w'
I6
tp2737
a(S'tr_ll'
I0
tp2738
a(S'w'
I8
tp2739
a(S'w'
I710
tp2740
a(S'w'
I10
tp2741
a(S'p2_tl'
I106
tp2742
a(S'w'
I5
tp2743
a(S'tr_ll'
I0
tp2744
a(S'w'
I9
tp2745
a(S'w'
I710
tp2746
a(S'w'
I10
tp2747
a(S'p2_tl'
I92
tp2748
a(S'w'
I5
tp2749
a(S'tr_ll'
I0
tp2750
a(S'w'
I9
tp2751
a(S'w'
I710
tp2752
a(S'w'
I10
tp2753
a(S'p2_tl'
I78
tp2754
a(S'w'
I5
tp2755
a(S'tr_ll'
I0
tp2756
a(S'w'
I9
tp2757
a(S'w'
I722
tp2758
a(S'p1_tl'
I0
tp2759
a(S'p1_ll'
I0
tp2760
a(S'p1_th'
I0
tp2761
a(S'w'
I23
tp2762
a(S'p2_tl'
I0
tp2763
a(S'p2_ll'
I0
tp2764
a(S'p2_th'
I0
tp2765
a(S'w'
I5
tp2766
a(S'tr_ll'
I0
tp2767
a(S'w'
I21
tp2768
a(S'ch_no'
I0
tp2769
a(S'ch_tr'
I1
tp2770
a(S'ch_p2'
I1
tp2771
a(S'ch_p1'
I1
tp2772
a(S'w'
I672
tp2773
a(S'p1_tl'
I171
tp2774
a(S'w'
I1
tp2775
a(S'p1_ll'
I1
tp2776
a(S'p1_th'
I1
tp2777
a(S'w'
I10
tp2778
a(S'p2_tl'
I228
tp2779
a(S'p2_ll'
I1
tp2780
a(S'p2_th'
I7
tp2781
a(S'w'
I5
tp2782
a(S'tr_ll'
I0
tp2783
a(S'w'
I8
tp2784
a(S'ch_no'
I1
tp2785
a(S'ch_tr'
I1
tp2786
a(S'ch_p2'
I1
tp2787
a(S'ch_p1'
I1
tp2788
a(S'w'
I1
tp2789
a(S'w'
I1
tp2790
a(S'no_ll'
I1
tp2791
a(S'w'
I708
tp2792
a(S'w'
I10
tp2793
a(S'p2_tl'
I214
tp2794
a(S'w'
I5
tp2795
a(S'tr_ll'
I0
tp2796
a(S'w'
I9
tp2797
a(S'w'
I710
tp2798
a(S'w'
I10
tp2799
a(S'p2_tl'
I200
tp2800
a(S'w'
I5
tp2801
a(S'tr_ll'
I0
tp2802
a(S'w'
I9
tp2803
a(S'w'
I710
tp2804
a(S'w'
I10
tp2805
a(S'p2_tl'
I186
tp2806
a(S'w'
I5
tp2807
a(S'tr_ll'
I0
tp2808
a(S'w'
I9
tp2809
a(S'w'
I710
tp2810
a(S'w'
I10
tp2811
a(S'p2_tl'
I172
tp2812
a(S'w'
I5
tp2813
a(S'tr_ll'
I0
tp2814
a(S'w'
I9
tp2815
a(S'w'
I709
tp2816
a(S'w'
I10
tp2817
a(S'p2_tl'
I158
tp2818
a(S'w'
I5
tp2819
a(S'tr_ll'
I0
tp2820
a(S'w'
I9
tp2821
a(S'w'
I710
tp2822
a(S'w'
I10
tp2823
a(S'p2_tl'
I144
tp2824
a(S'w'
I5
tp2825
a(S'tr_ll'
I0
tp2826
a(S'w'
I9
tp2827
a(S'w'
I710
tp2828
a(S'w'
I10
tp2829
a(S'p2_tl'
I130
tp2830
a(S'w'
I5
tp2831
a(S'tr_ll'
I0
tp2832
a(S'w'
I9
tp2833
a(S'w'
I710
tp2834
a(S'w'
I10
tp2835
a(S'p2_tl'
I116
tp2836
a(S'w'
I5
tp2837
a(S'tr_ll'
I0
tp2838
a(S'w'
I9
tp2839
a(S'w'
I709
tp2840
a(S'w'
I11
tp2841
a(S'p2_tl'
I102
tp2842
a(S'w'
I5
tp2843
a(S'tr_ll'
I0
tp2844
a(S'w'
I9
tp2845
a(S'w'
I709
tp2846
a(S'w'
I10
tp2847
a(S'p2_tl'
I88
tp2848
a(S'w'
I6
tp2849
a(S'tr_ll'
I0
tp2850
a(S'w'
I8
tp2851
a(S'w'
I710
tp2852
a(S'w'
I10
tp2853
a(S'p2_tl'
I74
tp2854
a(S'w'
I5
tp2855
a(S'tr_ll'
I0
tp2856
a(S'w'
I9
tp2857
a(S'w'
I710
tp2858
a(S'w'
I10
tp2859
a(S'p2_tl'
I60
tp2860
a(S'w'
I5
tp2861
a(S'tr_ll'
I0
tp2862
a(S'w'
I9
tp2863
a(S'w'
I710
tp2864
a(S'w'
I10
tp2865
a(S'p2_tl'
I46
tp2866
a(S'w'
I5
tp2867
a(S'tr_ll'
I0
tp2868
a(S'w'
I9
tp2869
a(S'w'
I709
tp2870
a(S'w'
I11
tp2871
a(S'p2_tl'
I32
tp2872
a(S'w'
I5
tp2873
a(S'tr_ll'
I0
tp2874
a(S'w'
I9
tp2875
a(S'w'
I709
tp2876
a(S'w'
I10
tp2877
a(S'p2_tl'
I18
tp2878
a(S'w'
I6
tp2879
a(S'tr_ll'
I0
tp2880
a(S'w'
I8
tp2881
a(S'w'
I710
tp2882
a(S'w'
I10
tp2883
a(S'p2_tl'
I4
tp2884
a(S'w'
I5
tp2885
a(S'tr_ll'
I0
tp2886
a(S'w'
I9
tp2887
a(S'w'
I710
tp2888
a(S'w'
I10
tp2889
a(S'p2_tl'
I246
tp2890
a(S'w'
I1
tp2891
a(S'p2_ll'
I1
tp2892
a(S'p2_th'
I6
tp2893
a(S'w'
I4
tp2894
a(S'tr_ll'
I0
tp2895
a(S'w'
I9
tp2896
a(S'w'
I710
tp2897
a(S'w'
I10
tp2898
a(S'p2_tl'
I232
tp2899
a(S'w'
I5
tp2900
a(S'tr_ll'
I0
tp2901
a(S'w'
I9
tp2902
a(S'w'
I710
tp2903
a(S'w'
I10
tp2904
a(S'p2_tl'
I218
tp2905
a(S'w'
I5
tp2906
a(S'tr_ll'
I0
tp2907
a(S'w'
I9
tp2908
a(S'w'
I709
tp2909
a(S'w'
I10
tp2910
a(S'p2_tl'
I204
tp2911
a(S'w'
I6
tp2912
a(S'tr_ll'
I0
tp2913
a(S'w'
I8
tp2914
a(S'w'
I710
tp2915
a(S'w'
I10
tp2916
a(S'p2_tl'
I190
tp2917
a(S'w'
I5
tp2918
a(S'tr_ll'
I0
tp2919
a(S'w'
I9
tp2920
a(S'w'
I710
tp2921
a(S'w'
I10
tp2922
a(S'p2_tl'
I176
tp2923
a(S'w'
I5
tp2924
a(S'tr_ll'
I0
tp2925
a(S'w'
I9
tp2926
a(S'w'
I710
tp2927
a(S'w'
I10
tp2928
a(S'p2_tl'
I162
tp2929
a(S'w'
I5
tp2930
a(S'tr_ll'
I0
tp2931
a(S'w'
I9
tp2932
a(S'w'
I710
tp2933
a(S'w'
I10
tp2934
a(S'p2_tl'
I148
tp2935
a(S'w'
I5
tp2936
a(S'tr_ll'
I0
tp2937
a(S'w'
I9
tp2938
a(S'w'
I709
tp2939
a(S'w'
I10
tp2940
a(S'p2_tl'
I134
tp2941
a(S'w'
I6
tp2942
a(S'tr_ll'
I0
tp2943
a(S'w'
I8
tp2944
a(S'w'
I710
tp2945
a(S'w'
I10
tp2946
a(S'p2_tl'
I120
tp2947
a(S'w'
I5
tp2948
a(S'tr_ll'
I0
tp2949
a(S'w'
I9
tp2950
a(S'w'
I710
tp2951
a(S'w'
I10
tp2952
a(S'p2_tl'
I106
tp2953
a(S'w'
I5
tp2954
a(S'tr_ll'
I0
tp2955
a(S'w'
I9
tp2956
a(S'w'
I710
tp2957
a(S'w'
I10
tp2958
a(S'p2_tl'
I92
tp2959
a(S'w'
I5
tp2960
a(S'tr_ll'
I0
tp2961
a(S'w'
I9
tp2962
a(S'w'
I709
tp2963
a(S'w'
I11
tp2964
a(S'p2_tl'
I78
tp2965
a(S'w'
I5
tp2966
a(S'tr_ll'
I0
tp2967
a(S'w'
I9
tp2968
a(S'w'
I719
tp2969
a(S'p1_tl'
I0
tp2970
a(S'p1_ll'
I0
tp2971
a(S'p1_th'
I0
tp2972
a(S'w'
I19
tp2973
a(S'p2_tl'
I0
tp2974
a(S'p2_ll'
I0
tp2975
a(S'p2_th'
I0
tp2976
a(S'w'
I5
tp2977
a(S'tr_ll'
I0
tp2978
a(S'w'
I21
tp2979
a(S'ch_no'
I0
tp2980
a(S'ch_tr'
I1
tp2981
a(S'ch_p2'
I1
tp2982
a(S'ch_p1'
I1
tp2983
a(S'w'
I680
tp2984
a(S'p1_tl'
I18
tp2985
a(S'w'
I1
tp2986
a(S'p1_ll'
I1
tp2987
a(S'w'
I5
tp2988
a(S'p2_du'
I0
tp2989
a(S'w'
I4
tp2990
a(S'p2_tl'
I22
tp2991
a(S'w'
I1
tp2992
a(S'p2_ll'
I1
tp2993
a(S'w'
I5
tp2994
a(S'tr_ll'
I0
tp2995
a(S'w'
I5
tp2996
a(S'no_vo'
I4
tp2997
a(S'w'
I3
tp2998
a(S'ch_no'
I1
tp2999
a(S'ch_tr'
I1
tp3000
a(S'ch_p2'
I1
tp3001
a(S'ch_p1'
I1
tp3002
a(S'w'
I1
tp3003
a(S'no_np'
I10
tp3004
a(S'no_ll'
I1
tp3005
a(S'w'
I709
tp3006
a(S'p1_tl'
I19
tp3007
a(S'w'
I10
tp3008
a(S'p2_tl'
I23
tp3009
a(S'w'
I5
tp3010
a(S'tr_ll'
I0
tp3011
a(S'w'
I9
tp3012
a(S'w'
I709
tp3013
a(S'p1_tl'
I20
tp3014
a(S'w'
I11
tp3015
a(S'p2_tl'
I24
tp3016
a(S'w'
I5
tp3017
a(S'tr_ll'
I0
tp3018
a(S'w'
I9
tp3019
a(S'w'
I709
tp3020
a(S'p1_tl'
I21
tp3021
a(S'w'
I10
tp3022
a(S'p2_tl'
I25
tp3023
a(S'w'
I6
tp3024
a(S'tr_ll'
I0
tp3025
a(S'w'
I8
tp3026
a(S'w'
I710
tp3027
a(S'p1_tl'
I22
tp3028
a(S'w'
I10
tp3029
a(S'p2_tl'
I26
tp3030
a(S'w'
I5
tp3031
a(S'tr_ll'
I0
tp3032
a(S'w'
I9
tp3033
a(S'w'
I710
tp3034
a(S'p1_tl'
I23
tp3035
a(S'w'
I10
tp3036
a(S'p2_tl'
I27
tp3037
a(S'w'
I5
tp3038
a(S'tr_ll'
I0
tp3039
a(S'w'
I9
tp3040
a(S'w'
I710
tp3041
a(S'p1_tl'
I24
tp3042
a(S'w'
I10
tp3043
a(S'p2_tl'
I28
tp3044
a(S'w'
I5
tp3045
a(S'tr_ll'
I0
tp3046
a(S'w'
I9
tp3047
a(S'w'
I710
tp3048
a(S'p1_tl'
I25
tp3049
a(S'w'
I10
tp3050
a(S'p2_tl'
I29
tp3051
a(S'w'
I5
tp3052
a(S'tr_ll'
I0
tp3053
a(S'w'
I9
tp3054
a(S'w'
I709
tp3055
a(S'p1_tl'
I26
tp3056
a(S'w'
I10
tp3057
a(S'p2_tl'
I30
tp3058
a(S'w'
I6
tp3059
a(S'tr_ll'
I0
tp3060
a(S'w'
I8
tp3061
a(S'w'
I710
tp3062
a(S'p1_tl'
I27
tp3063
a(S'w'
I10
tp3064
a(S'p2_tl'
I31
tp3065
a(S'w'
I5
tp3066
a(S'tr_ll'
I0
tp3067
a(S'w'
I9
tp3068
a(S'w'
I710
tp3069
a(S'p1_tl'
I28
tp3070
a(S'w'
I10
tp3071
a(S'p2_tl'
I32
tp3072
a(S'w'
I5
tp3073
a(S'tr_ll'
I0
tp3074
a(S'w'
I9
tp3075
a(S'w'
I710
tp3076
a(S'p1_tl'
I29
tp3077
a(S'w'
I10
tp3078
a(S'p2_tl'
I33
tp3079
a(S'w'
I5
tp3080
a(S'tr_ll'
I0
tp3081
a(S'w'
I9
tp3082
a(S'w'
I709
tp3083
a(S'p1_tl'
I30
tp3084
a(S'w'
I11
tp3085
a(S'p2_tl'
I34
tp3086
a(S'w'
I5
tp3087
a(S'tr_ll'
I0
tp3088
a(S'w'
I9
tp3089
a(S'w'
I709
tp3090
a(S'p1_tl'
I31
tp3091
a(S'w'
I10
tp3092
a(S'p2_tl'
I35
tp3093
a(S'w'
I5
tp3094
a(S'tr_ll'
I0
tp3095
a(S'w'
I9
tp3096
a(S'w'
I710
tp3097
a(S'p1_tl'
I32
tp3098
a(S'w'
I10
tp3099
a(S'p2_tl'
I36
tp3100
a(S'w'
I5
tp3101
a(S'tr_ll'
I0
tp3102
a(S'w'
I9
tp3103
a(S'w'
I710
tp3104
a(S'p1_tl'
I33
tp3105
a(S'w'
I10
tp3106
a(S'p2_tl'
I37
tp3107
a(S'w'
I5
tp3108
a(S'tr_ll'
I0
tp3109
a(S'w'
I9
tp3110
a(S'w'
I710
tp3111
a(S'p1_tl'
I34
tp3112
a(S'w'
I10
tp3113
a(S'p2_tl'
I38
tp3114
a(S'w'
I5
tp3115
a(S'tr_ll'
I0
tp3116
a(S'w'
I9
tp3117
a(S'w'
I710
tp3118
a(S'p1_tl'
I35
tp3119
a(S'w'
I10
tp3120
a(S'p2_tl'
I39
tp3121
a(S'w'
I5
tp3122
a(S'tr_ll'
I0
tp3123
a(S'w'
I9
tp3124
a(S'w'
I709
tp3125
a(S'p1_tl'
I36
tp3126
a(S'w'
I10
tp3127
a(S'p2_tl'
I40
tp3128
a(S'w'
I6
tp3129
a(S'tr_ll'
I0
tp3130
a(S'w'
I9
tp3131
a(S'w'
I709
tp3132
a(S'p1_tl'
I37
tp3133
a(S'w'
I10
tp3134
a(S'p2_tl'
I41
tp3135
a(S'w'
I5
tp3136
a(S'tr_ll'
I0
tp3137
a(S'w'
I9
tp3138
a(S'w'
I710
tp3139
a(S'p1_tl'
I38
tp3140
a(S'w'
I10
tp3141
a(S'p2_tl'
I42
tp3142
a(S'w'
I5
tp3143
a(S'tr_ll'
I0
tp3144
a(S'w'
I9
tp3145
a(S'w'
I710
tp3146
a(S'p1_tl'
I39
tp3147
a(S'w'
I10
tp3148
a(S'p2_tl'
I43
tp3149
a(S'w'
I5
tp3150
a(S'tr_ll'
I0
tp3151
a(S'w'
I9
tp3152
a(S'w'
I710
tp3153
a(S'p1_tl'
I40
tp3154
a(S'w'
I10
tp3155
a(S'p2_tl'
I44
tp3156
a(S'w'
I5
tp3157
a(S'tr_ll'
I0
tp3158
a(S'w'
I9
tp3159
a(S'w'
I709
tp3160
a(S'p1_tl'
I41
tp3161
a(S'w'
I10
tp3162
a(S'p2_tl'
I45
tp3163
a(S'w'
I6
tp3164
a(S'tr_ll'
I0
tp3165
a(S'w'
I9
tp3166
a(S'w'
I709
tp3167
a(S'p1_tl'
I42
tp3168
a(S'w'
I10
tp3169
a(S'p2_tl'
I46
tp3170
a(S'w'
I5
tp3171
a(S'tr_ll'
I0
tp3172
a(S'w'
I9
tp3173
a(S'w'
I710
tp3174
a(S'p1_tl'
I43
tp3175
a(S'w'
I10
tp3176
a(S'p2_tl'
I47
tp3177
a(S'w'
I5
tp3178
a(S'tr_ll'
I0
tp3179
a(S'w'
I9
tp3180
a(S'w'
I710
tp3181
a(S'p1_tl'
I44
tp3182
a(S'w'
I10
tp3183
a(S'p2_tl'
I48
tp3184
a(S'w'
I5
tp3185
a(S'tr_ll'
I0
tp3186
a(S'w'
I9
tp3187
a(S'w'
I710
tp3188
a(S'p1_tl'
I45
tp3189
a(S'w'
I10
tp3190
a(S'p2_tl'
I49
tp3191
a(S'w'
I5
tp3192
a(S'tr_ll'
I0
tp3193
a(S'w'
I9
tp3194
a(S'w'
I709
tp3195
a(S'p1_tl'
I46
tp3196
a(S'w'
I10
tp3197
a(S'p2_tl'
I50
tp3198
a(S'w'
I6
tp3199
a(S'tr_ll'
I0
tp3200
a(S'w'
I9
tp3201
a(S'w'
I709
tp3202
a(S'p1_tl'
I47
tp3203
a(S'w'
I10
tp3204
a(S'p2_tl'
I51
tp3205
a(S'w'
I5
tp3206
a(S'tr_ll'
I0
tp3207
a(S'w'
I9
tp3208
a(S'w'
I710
tp3209
a(S'p1_tl'
I48
tp3210
a(S'w'
I10
tp3211
a(S'p2_tl'
I52
tp3212
a(S'w'
I5
tp3213
a(S'tr_ll'
I0
tp3214
a(S'w'
I9
tp3215
a(S'w'
I710
tp3216
a(S'p1_tl'
I49
tp3217
a(S'w'
I10
tp3218
a(S'p2_tl'
I53
tp3219
a(S'w'
I5
tp3220
a(S'tr_ll'
I0
tp3221
a(S'w'
I9
tp3222
a(S'w'
I710
tp3223
a(S'p1_tl'
I50
tp3224
a(S'w'
I10
tp3225
a(S'p2_tl'
I54
tp3226
a(S'w'
I5
tp3227
a(S'tr_ll'
I0
tp3228
a(S'w'
I9
tp3229
a(S'w'
I709
tp3230
a(S'p1_tl'
I51
tp3231
a(S'w'
I10
tp3232
a(S'p2_tl'
I55
tp3233
a(S'w'
I6
tp3234
a(S'tr_ll'
I0
tp3235
a(S'w'
I8
tp3236
a(S'w'
I710
tp3237
a(S'p1_tl'
I52
tp3238
a(S'w'
I10
tp3239
a(S'p2_tl'
I56
tp3240
a(S'w'
I5
tp3241
a(S'tr_ll'
I0
tp3242
a(S'w'
I9
tp3243
a(S'w'
I710
tp3244
a(S'p1_tl'
I53
tp3245
a(S'w'
I10
tp3246
a(S'p2_tl'
I57
tp3247
a(S'w'
I5
tp3248
a(S'tr_ll'
I0
tp3249
a(S'w'
I9
tp3250
a(S'w'
I710
tp3251
a(S'p1_tl'
I54
tp3252
a(S'w'
I10
tp3253
a(S'p2_tl'
I58
tp3254
a(S'w'
I5
tp3255
a(S'tr_ll'
I0
tp3256
a(S'w'
I9
tp3257
a(S'w'
I710
tp3258
a(S'p1_tl'
I55
tp3259
a(S'w'
I10
tp3260
a(S'p2_tl'
I59
tp3261
a(S'w'
I5
tp3262
a(S'tr_ll'
I0
tp3263
a(S'w'
I9
tp3264
a(S'w'
I709
tp3265
a(S'p1_tl'
I56
tp3266
a(S'w'
I10
tp3267
a(S'p2_tl'
I60
tp3268
a(S'w'
I6
tp3269
a(S'tr_ll'
I0
tp3270
a(S'w'
I9
tp3271
a(S'w'
I709
tp3272
a(S'p1_tl'
I57
tp3273
a(S'w'
I10
tp3274
a(S'p2_tl'
I61
tp3275
a(S'w'
I5
tp3276
a(S'tr_ll'
I0
tp3277
a(S'w'
I9
tp3278
a(S'w'
I710
tp3279
a(S'p1_tl'
I58
tp3280
a(S'w'
I10
tp3281
a(S'p2_tl'
I62
tp3282
a(S'w'
I5
tp3283
a(S'tr_ll'
I0
tp3284
a(S'w'
I9
tp3285
a(S'w'
I710
tp3286
a(S'p1_tl'
I59
tp3287
a(S'w'
I10
tp3288
a(S'p2_tl'
I63
tp3289
a(S'w'
I5
tp3290
a(S'tr_ll'
I0
tp3291
a(S'w'
I9
tp3292
a(S'w'
I710
tp3293
a(S'p1_tl'
I60
tp3294
a(S'w'
I10
tp3295
a(S'p2_tl'
I64
tp3296
a(S'w'
I5
tp3297
a(S'tr_ll'
I0
tp3298
a(S'w'
I9
tp3299
a(S'w'
I709
tp3300
a(S'p1_tl'
I61
tp3301
a(S'w'
I10
tp3302
a(S'p2_tl'
I65
tp3303
a(S'w'
I6
tp3304
a(S'tr_ll'
I0
tp3305
a(S'w'
I9
tp3306
a(S'w'
I709
tp3307
a(S'p1_tl'
I62
tp3308
a(S'w'
I10
tp3309
a(S'p2_tl'
I66
tp3310
a(S'w'
I5
tp3311
a(S'tr_ll'
I0
tp3312
a(S'w'
I9
tp3313
a(S'w'
I710
tp3314
a(S'p1_tl'
I63
tp3315
a(S'w'
I10
tp3316
a(S'p2_tl'
I67
tp3317
a(S'w'
I5
tp3318
a(S'tr_ll'
I0
tp3319
a(S'w'
I9
tp3320
a(S'w'
I710
tp3321
a(S'p1_tl'
I64
tp3322
a(S'w'
I10
tp3323
a(S'p2_tl'
I68
tp3324
a(S'w'
I5
tp3325
a(S'tr_ll'
I0
tp3326
a(S'w'
I9
tp3327
a(S'w'
I710
tp3328
a(S'p1_tl'
I65
tp3329
a(S'w'
I10
tp3330
a(S'p2_tl'
I69
tp3331
a(S'w'
I5
tp3332
a(S'tr_ll'
I0
tp3333
a(S'w'
I9
tp3334
a(S'w'
I709
tp3335
a(S'p1_tl'
I66
tp3336
a(S'w'
I10
tp3337
a(S'p2_tl'
I70
tp3338
a(S'w'
I6
tp3339
a(S'tr_ll'
I0
tp3340
a(S'w'
I9
tp3341
a(S'w'
I709
tp3342
a(S'p1_tl'
I67
tp3343
a(S'w'
I10
tp3344
a(S'p2_tl'
I71
tp3345
a(S'w'
I5
tp3346
a(S'tr_ll'
I0
tp3347
a(S'w'
I9
tp3348
a(S'w'
I710
tp3349
a(S'p1_tl'
I68
tp3350
a(S'w'
I10
tp3351
a(S'p2_tl'
I72
tp3352
a(S'w'
I5
tp3353
a(S'tr_ll'
I0
tp3354
a(S'w'
I9
tp3355
a(S'w'
I710
tp3356
a(S'p1_tl'
I69
tp3357
a(S'w'
I10
tp3358
a(S'p2_tl'
I73
tp3359
a(S'w'
I5
tp3360
a(S'tr_ll'
I0
tp3361
a(S'w'
I9
tp3362
a(S'w'
I710
tp3363
a(S'p1_tl'
I70
tp3364
a(S'w'
I10
tp3365
a(S'p2_tl'
I74
tp3366
a(S'w'
I5
tp3367
a(S'tr_ll'
I0
tp3368
a(S'w'
I9
tp3369
a(S'w'
I709
tp3370
a(S'p1_tl'
I71
tp3371
a(S'w'
I10
tp3372
a(S'p2_tl'
I75
tp3373
a(S'w'
I6
tp3374
a(S'tr_ll'
I0
tp3375
a(S'w'
I9
tp3376
a(S'w'
I709
tp3377
a(S'p1_tl'
I72
tp3378
a(S'w'
I10
tp3379
a(S'p2_tl'
I76
tp3380
a(S'w'
I5
tp3381
a(S'tr_ll'
I0
tp3382
a(S'w'
I9
tp3383
a(S'w'
I710
tp3384
a(S'p1_tl'
I73
tp3385
a(S'w'
I10
tp3386
a(S'p2_tl'
I77
tp3387
a(S'w'
I5
tp3388
a(S'tr_ll'
I0
tp3389
a(S'w'
I9
tp3390
a(S'w'
I710
tp3391
a(S'p1_tl'
I74
tp3392
a(S'w'
I10
tp3393
a(S'p2_tl'
I78
tp3394
a(S'w'
I5
tp3395
a(S'tr_ll'
I0
tp3396
a(S'w'
I9
tp3397
a(S'w'
I710
tp3398
a(S'p1_tl'
I75
tp3399
a(S'w'
I10
tp3400
a(S'p2_tl'
I79
tp3401
a(S'w'
I5
tp3402
a(S'tr_ll'
I0
tp3403
a(S'w'
I9
tp3404
a(S'w'
I709
tp3405
a(S'p1_tl'
I76
tp3406
a(S'w'
I10
tp3407
a(S'p2_tl'
I80
tp3408
a(S'w'
I6
tp3409
a(S'tr_ll'
I0
tp3410
a(S'w'
I9
tp3411
a(S'w'
I709
tp3412
a(S'p1_tl'
I77
tp3413
a(S'w'
I10
tp3414
a(S'p2_tl'
I81
tp3415
a(S'w'
I5
tp3416
a(S'tr_ll'
I0
tp3417
a(S'w'
I9
tp3418
a(S'w'
I710
tp3419
a(S'p1_tl'
I78
tp3420
a(S'w'
I10
tp3421
a(S'p2_tl'
I82
tp3422
a(S'w'
I5
tp3423
a(S'tr_ll'
I0
tp3424
a(S'w'
I9
tp3425
a(S'w'
I710
tp3426
a(S'p1_tl'
I79
tp3427
a(S'w'
I10
tp3428
a(S'p2_tl'
I83
tp3429
a(S'w'
I5
tp3430
a(S'tr_ll'
I0
tp3431
a(S'w'
I9
tp3432
a(S'w'
I710
tp3433
a(S'p1_tl'
I80
tp3434
a(S'w'
I10
tp3435
a(S'p2_tl'
I84
tp3436
a(S'w'
I5
tp3437
a(S'tr_ll'
I0
tp3438
a(S'w'
I9
tp3439
a(S'w'
I709
tp3440
a(S'p1_tl'
I81
tp3441
a(S'w'
I10
tp3442
a(S'p2_tl'
I85
tp3443
a(S'w'
I6
tp3444
a(S'tr_ll'
I0
tp3445
a(S'w'
I9
tp3446
a(S'w'
I709
tp3447
a(S'p1_tl'
I82
tp3448
a(S'w'
I10
tp3449
a(S'p2_tl'
I86
tp3450
a(S'w'
I5
tp3451
a(S'tr_ll'
I0
tp3452
a(S'w'
I9
tp3453
a(S'w'
I710
tp3454
a(S'p1_tl'
I83
tp3455
a(S'w'
I10
tp3456
a(S'p2_tl'
I87
tp3457
a(S'w'
I5
tp3458
a(S'tr_ll'
I0
tp3459
a(S'w'
I9
tp3460
a(S'w'
I710
tp3461
a(S'p1_tl'
I84
tp3462
a(S'w'
I10
tp3463
a(S'p2_tl'
I88
tp3464
a(S'w'
I5
tp3465
a(S'tr_ll'
I0
tp3466
a(S'w'
I9
tp3467
a(S'w'
I710
tp3468
a(S'p1_tl'
I85
tp3469
a(S'w'
I10
tp3470
a(S'p2_tl'
I89
tp3471
a(S'w'
I5
tp3472
a(S'tr_ll'
I0
tp3473
a(S'w'
I9
tp3474
a(S'w'
I709
tp3475
a(S'p1_tl'
I86
tp3476
a(S'w'
I10
tp3477
a(S'p2_tl'
I90
tp3478
a(S'w'
I6
tp3479
a(S'tr_ll'
I0
tp3480
a(S'w'
I9
tp3481
a(S'w'
I709
tp3482
a(S'p1_tl'
I87
tp3483
a(S'w'
I10
tp3484
a(S'p2_tl'
I91
tp3485
a(S'w'
I5
tp3486
a(S'tr_ll'
I0
tp3487
a(S'w'
I9
tp3488
a(S'w'
I710
tp3489
a(S'p1_tl'
I88
tp3490
a(S'w'
I10
tp3491
a(S'p2_tl'
I92
tp3492
a(S'w'
I5
tp3493
a(S'tr_ll'
I0
tp3494
a(S'w'
I9
tp3495
a(S'w'
I710
tp3496
a(S'p1_tl'
I89
tp3497
a(S'w'
I10
tp3498
a(S'p2_tl'
I93
tp3499
a(S'w'
I5
tp3500
a(S'tr_ll'
I0
tp3501
a(S'w'
I9
tp3502
a(S'w'
I710
tp3503
a(S'p1_tl'
I90
tp3504
a(S'w'
I10
tp3505
a(S'p2_tl'
I94
tp3506
a(S'w'
I5
tp3507
a(S'tr_ll'
I0
tp3508
a(S'w'
I9
tp3509
a(S'w'
I709
tp3510
a(S'p1_tl'
I91
tp3511
a(S'w'
I10
tp3512
a(S'p2_tl'
I95
tp3513
a(S'w'
I6
tp3514
a(S'tr_ll'
I0
tp3515
a(S'w'
I9
tp3516
a(S'w'
I709
tp3517
a(S'p1_tl'
I92
tp3518
a(S'w'
I10
tp3519
a(S'p2_tl'
I96
tp3520
a(S'w'
I5
tp3521
a(S'tr_ll'
I0
tp3522
a(S'w'
I9
tp3523
a(S'w'
I710
tp3524
a(S'p1_tl'
I93
tp3525
a(S'w'
I10
tp3526
a(S'p2_tl'
I97
tp3527
a(S'w'
I5
tp3528
a(S'tr_ll'
I0
tp3529
a(S'w'
I9
tp3530
a(S'w'
I710
tp3531
a(S'p1_tl'
I94
tp3532
a(S'w'
I10
tp3533
a(S'p2_tl'
I98
tp3534
a(S'w'
I5
tp3535
a(S'tr_ll'
I0
tp3536
a(S'w'
I9
tp3537
a(S'w'
I710
tp3538
a(S'p1_tl'
I95
tp3539
a(S'w'
I10
tp3540
a(S'p2_tl'
I99
tp3541
a(S'w'
I5
tp3542
a(S'tr_ll'
I0
tp3543
a(S'w'
I9
tp3544
a(S'w'
I709
tp3545
a(S'p1_tl'
I96
tp3546
a(S'w'
I10
tp3547
a(S'p2_tl'
I100
tp3548
a(S'w'
I6
tp3549
a(S'tr_ll'
I0
tp3550
a(S'w'
I9
tp3551
a(S'w'
I709
tp3552
a(S'p1_tl'
I97
tp3553
a(S'w'
I10
tp3554
a(S'p2_tl'
I101
tp3555
a(S'w'
I5
tp3556
a(S'tr_ll'
I0
tp3557
a(S'w'
I9
tp3558
a(S'w'
I710
tp3559
a(S'p1_tl'
I98
tp3560
a(S'w'
I10
tp3561
a(S'p2_tl'
I102
tp3562
a(S'w'
I5
tp3563
a(S'tr_ll'
I0
tp3564
a(S'w'
I9
tp3565
a(S'w'
I710
tp3566
a(S'p1_tl'
I99
tp3567
a(S'w'
I10
tp3568
a(S'p2_tl'
I103
tp3569
a(S'w'
I5
tp3570
a(S'tr_ll'
I0
tp3571
a(S'w'
I9
tp3572
a(S'w'
I710
tp3573
a(S'p1_tl'
I100
tp3574
a(S'w'
I10
tp3575
a(S'p2_tl'
I104
tp3576
a(S'w'
I5
tp3577
a(S'tr_ll'
I0
tp3578
a(S'w'
I9
tp3579
a(S'w'
I709
tp3580
a(S'p1_tl'
I101
tp3581
a(S'w'
I10
tp3582
a(S'p2_tl'
I105
tp3583
a(S'w'
I6
tp3584
a(S'tr_ll'
I0
tp3585
a(S'w'
I9
tp3586
a(S'w'
I709
tp3587
a(S'p1_tl'
I102
tp3588
a(S'w'
I10
tp3589
a(S'p2_tl'
I106
tp3590
a(S'w'
I5
tp3591
a(S'tr_ll'
I0
tp3592
a(S'w'
I9
tp3593
a(S'w'
I710
tp3594
a(S'p1_tl'
I103
tp3595
a(S'w'
I10
tp3596
a(S'p2_tl'
I107
tp3597
a(S'w'
I5
tp3598
a(S'tr_ll'
I0
tp3599
a(S'w'
I9
tp3600
a(S'w'
I710
tp3601
a(S'p1_tl'
I104
tp3602
a(S'w'
I10
tp3603
a(S'p2_tl'
I108
tp3604
a(S'w'
I5
tp3605
a(S'tr_ll'
I0
tp3606
a(S'w'
I9
tp3607
a(S'w'
I710
tp3608
a(S'p1_tl'
I105
tp3609
a(S'w'
I10
tp3610
a(S'p2_tl'
I109
tp3611
a(S'w'
I5
tp3612
a(S'tr_ll'
I0
tp3613
a(S'w'
I9
tp3614
a(S'w'
I709
tp3615
a(S'p1_tl'
I106
tp3616
a(S'w'
I10
tp3617
a(S'p2_tl'
I110
tp3618
a(S'w'
I6
tp3619
a(S'tr_ll'
I0
tp3620
a(S'w'
I9
tp3621
a(S'w'
I709
tp3622
a(S'p1_tl'
I107
tp3623
a(S'w'
I10
tp3624
a(S'p2_tl'
I111
tp3625
a(S'w'
I5
tp3626
a(S'tr_ll'
I0
tp3627
a(S'w'
I9
tp3628
a(S'w'
I710
tp3629
a(S'p1_tl'
I108
tp3630
a(S'w'
I10
tp3631
a(S'p2_tl'
I112
tp3632
a(S'w'
I5
tp3633
a(S'tr_ll'
I0
tp3634
a(S'w'
I9
tp3635
a(S'w'
I710
tp3636
a(S'p1_tl'
I109
tp3637
a(S'w'
I10
tp3638
a(S'p2_tl'
I113
tp3639
a(S'w'
I5
tp3640
a(S'tr_ll'
I0
tp3641
a(S'w'
I9
tp3642
a(S'w'
I710
tp3643
a(S'p1_tl'
I110
tp3644
a(S'w'
I10
tp3645
a(S'p2_tl'
I114
tp3646
a(S'w'
I5
tp3647
a(S'tr_ll'
I0
tp3648
a(S'w'
I9
tp3649
a(S'w'
I709
tp3650
a(S'p1_tl'
I111
tp3651
a(S'w'
I11
tp3652
a(S'p2_tl'
I115
tp3653
a(S'w'
I5
tp3654
a(S'tr_ll'
I0
tp3655
a(S'w'
I9
tp3656
a(S'w'
I709
tp3657
a(S'p1_tl'
I112
tp3658
a(S'w'
I10
tp3659
a(S'p2_tl'
I116
tp3660
a(S'w'
I5
tp3661
a(S'tr_ll'
I0
tp3662
a(S'w'
I9
tp3663
a(S'w'
I710
tp3664
a(S'p1_tl'
I113
tp3665
a(S'w'
I10
tp3666
a(S'p2_tl'
I117
tp3667
a(S'w'
I5
tp3668
a(S'tr_ll'
I0
tp3669
a(S'w'
I9
tp3670
a(S'w'
I710
tp3671
a(S'p1_tl'
I114
tp3672
a(S'w'
I10
tp3673
a(S'p2_tl'
I118
tp3674
a(S'w'
I5
tp3675
a(S'tr_ll'
I0
tp3676
a(S'w'
I9
tp3677
a(S'w'
I710
tp3678
a(S'p1_tl'
I115
tp3679
a(S'w'
I10
tp3680
a(S'p2_tl'
I119
tp3681
a(S'w'
I5
tp3682
a(S'tr_ll'
I0
tp3683
a(S'w'
I9
tp3684
a(S'w'
I709
tp3685
a(S'p1_tl'
I116
tp3686
a(S'w'
I11
tp3687
a(S'p2_tl'
I120
tp3688
a(S'w'
I5
tp3689
a(S'tr_ll'
I0
tp3690
a(S'w'
I9
tp3691
a(S'w'
I709
tp3692
a(S'p1_tl'
I117
tp3693
a(S'w'
I10
tp3694
a(S'p2_tl'
I121
tp3695
a(S'w'
I5
tp3696
a(S'tr_ll'
I0
tp3697
a(S'w'
I9
tp3698
a(S'w'
I710
tp3699
a(S'p1_tl'
I118
tp3700
a(S'w'
I10
tp3701
a(S'p2_tl'
I122
tp3702
a(S'w'
I5
tp3703
a(S'tr_ll'
I0
tp3704
a(S'w'
I9
tp3705
a(S'w'
I710
tp3706
a(S'p1_tl'
I119
tp3707
a(S'w'
I10
tp3708
a(S'p2_tl'
I123
tp3709
a(S'w'
I5
tp3710
a(S'tr_ll'
I0
tp3711
a(S'w'
I9
tp3712
a(S'w'
I710
tp3713
a(S'p1_tl'
I120
tp3714
a(S'w'
I10
tp3715
a(S'p2_tl'
I124
tp3716
a(S'w'
I5
tp3717
a(S'tr_ll'
I0
tp3718
a(S'w'
I9
tp3719
a(S'w'
I709
tp3720
a(S'p1_tl'
I121
tp3721
a(S'w'
I10
tp3722
a(S'p2_tl'
I125
tp3723
a(S'w'
I6
tp3724
a(S'tr_ll'
I0
tp3725
a(S'w'
I9
tp3726
a(S'w'
I709
tp3727
a(S'p1_tl'
I122
tp3728
a(S'w'
I10
tp3729
a(S'p2_tl'
I126
tp3730
a(S'w'
I5
tp3731
a(S'tr_ll'
I0
tp3732
a(S'w'
I9
tp3733
a(S'w'
I710
tp3734
a(S'p1_tl'
I123
tp3735
a(S'w'
I10
tp3736
a(S'p2_tl'
I127
tp3737
a(S'w'
I5
tp3738
a(S'tr_ll'
I0
tp3739
a(S'w'
I9
tp3740
a(S'w'
I710
tp3741
a(S'p1_tl'
I124
tp3742
a(S'w'
I10
tp3743
a(S'p2_tl'
I128
tp3744
a(S'w'
I5
tp3745
a(S'tr_ll'
I0
tp3746
a(S'w'
I9
tp3747
a(S'w'
I710
tp3748
a(S'p1_tl'
I125
tp3749
a(S'w'
I10
tp3750
a(S'p2_tl'
I129
tp3751
a(S'w'
I5
tp3752
a(S'tr_ll'
I0
tp3753
a(S'w'
I9
tp3754
a(S'w'
I709
tp3755
a(S'p1_tl'
I126
tp3756
a(S'w'
I11
tp3757
a(S'p2_tl'
I130
tp3758
a(S'w'
I5
tp3759
a(S'tr_ll'
I0
tp3760
a(S'w'
I9
tp3761
a(S'w'
I709
tp3762
a(S'p1_tl'
I127
tp3763
a(S'w'
I10
tp3764
a(S'p2_tl'
I131
tp3765
a(S'w'
I5
tp3766
a(S'tr_ll'
I0
tp3767
a(S'w'
I9
tp3768
a(S'w'
I710
tp3769
a(S'p1_tl'
I128
tp3770
a(S'w'
I10
tp3771
a(S'p2_tl'
I132
tp3772
a(S'w'
I5
tp3773
a(S'tr_ll'
I0
tp3774
a(S'w'
I9
tp3775
a(S'w'
I710
tp3776
a(S'p1_tl'
I129
tp3777
a(S'w'
I10
tp3778
a(S'p2_tl'
I133
tp3779
a(S'w'
I5
tp3780
a(S'tr_ll'
I0
tp3781
a(S'w'
I9
tp3782
a(S'w'
I710
tp3783
a(S'p1_tl'
I130
tp3784
a(S'w'
I10
tp3785
a(S'p2_tl'
I134
tp3786
a(S'w'
I5
tp3787
a(S'tr_ll'
I0
tp3788
a(S'w'
I9
tp3789
a(S'w'
I709
tp3790
a(S'p1_tl'
I131
tp3791
a(S'w'
I11
tp3792
a(S'p2_tl'
I135
tp3793
a(S'w'
I5
tp3794
a(S'tr_ll'
I0
tp3795
a(S'w'
I9
tp3796
a(S'w'
I709
tp3797
a(S'p1_tl'
I132
tp3798
a(S'w'
I10
tp3799
a(S'p2_tl'
I136
tp3800
a(S'w'
I5
tp3801
a(S'tr_ll'
I0
tp3802
a(S'w'
I9
tp3803
a(S'w'
I710
tp3804
a(S'p1_tl'
I133
tp3805
a(S'w'
I10
tp3806
a(S'p2_tl'
I137
tp3807
a(S'w'
I5
tp3808
a(S'tr_ll'
I0
tp3809
a(S'w'
I9
tp3810
a(S'w'
I710
tp3811
a(S'p1_tl'
I134
tp3812
a(S'w'
I10
tp3813
a(S'p2_tl'
I138
tp3814
a(S'w'
I5
tp3815
a(S'tr_ll'
I0
tp3816
a(S'w'
I9
tp3817
a(S'w'
I710
tp3818
a(S'p1_tl'
I135
tp3819
a(S'w'
I10
tp3820
a(S'p2_tl'
I139
tp3821
a(S'w'
I5
tp3822
a(S'tr_ll'
I0
tp3823
a(S'w'
I9
tp3824
a(S'w'
I709
tp3825
a(S'p1_tl'
I136
tp3826
a(S'w'
I11
tp3827
a(S'p2_tl'
I140
tp3828
a(S'w'
I5
tp3829
a(S'tr_ll'
I0
tp3830
a(S'w'
I9
tp3831
a(S'w'
I709
tp3832
a(S'p1_tl'
I137
tp3833
a(S'w'
I10
tp3834
a(S'p2_tl'
I141
tp3835
a(S'w'
I5
tp3836
a(S'tr_ll'
I0
tp3837
a(S'w'
I9
tp3838
a(S'w'
I710
tp3839
a(S'p1_tl'
I138
tp3840
a(S'w'
I10
tp3841
a(S'p2_tl'
I142
tp3842
a(S'w'
I5
tp3843
a(S'tr_ll'
I0
tp3844
a(S'w'
I9
tp3845
a(S'w'
I710
tp3846
a(S'p1_tl'
I139
tp3847
a(S'w'
I10
tp3848
a(S'p2_tl'
I143
tp3849
a(S'w'
I5
tp3850
a(S'tr_ll'
I0
tp3851
a(S'w'
I9
tp3852
a(S'w'
I710
tp3853
a(S'p1_tl'
I140
tp3854
a(S'w'
I10
tp3855
a(S'p2_tl'
I144
tp3856
a(S'w'
I5
tp3857
a(S'tr_ll'
I0
tp3858
a(S'w'
I9
tp3859
a(S'w'
I709
tp3860
a(S'p1_tl'
I141
tp3861
a(S'w'
I11
tp3862
a(S'p2_tl'
I145
tp3863
a(S'w'
I5
tp3864
a(S'tr_ll'
I0
tp3865
a(S'w'
I9
tp3866
a(S'w'
I709
tp3867
a(S'p1_tl'
I142
tp3868
a(S'w'
I10
tp3869
a(S'p2_tl'
I146
tp3870
a(S'w'
I5
tp3871
a(S'tr_ll'
I0
tp3872
a(S'w'
I9
tp3873
a(S'w'
I710
tp3874
a(S'p1_tl'
I143
tp3875
a(S'w'
I10
tp3876
a(S'p2_tl'
I147
tp3877
a(S'w'
I5
tp3878
a(S'tr_ll'
I0
tp3879
a(S'w'
I9
tp3880
a(S'w'
I725
tp3881
a(S'tr_ll'
I0
tp3882
a(S'w'
I13
tp3883
a(S'ch_no'
I0
tp3884
a(S'ch_tr'
I1
tp3885
a(S'ch_p2'
I1
tp3886
a(S'ch_p1'
I1
tp3887
a(S'w'
I706
tp3888
a(S'p1_tl'
I144
tp3889
a(S'w'
I10
tp3890
a(S'p2_tl'
I148
tp3891
a(S'w'
I5
tp3892
a(S'tr_ll'
I0
tp3893
a(S'w'
I8
tp3894
a(S'ch_no'
I1
tp3895
a(S'ch_tr'
I1
tp3896
a(S'ch_p2'
I1
tp3897
a(S'ch_p1'
I1
tp3898
a(S'w'
I1
tp3899
a(S'no_ll'
I1
tp3900
a(S'w'
I710
tp3901
a(S'p1_tl'
I145
tp3902
a(S'w'
I10
tp3903
a(S'p2_tl'
I149
tp3904
a(S'w'
I5
tp3905
a(S'tr_ll'
I0
tp3906
a(S'w'
I9
tp3907
a(S'w'
I709
tp3908
a(S'p1_tl'
I146
tp3909
a(S'w'
I10
tp3910
a(S'p2_tl'
I150
tp3911
a(S'w'
I6
tp3912
a(S'tr_ll'
I0
tp3913
a(S'w'
I8
tp3914
a(S'w'
I710
tp3915
a(S'p1_tl'
I147
tp3916
a(S'w'
I10
tp3917
a(S'p2_tl'
I151
tp3918
a(S'w'
I5
tp3919
a(S'tr_ll'
I0
tp3920
a(S'w'
I9
tp3921
a(S'w'
I710
tp3922
a(S'p1_tl'
I148
tp3923
a(S'w'
I10
tp3924
a(S'p2_tl'
I152
tp3925
a(S'w'
I5
tp3926
a(S'tr_ll'
I0
tp3927
a(S'w'
I9
tp3928
a(S'w'
I710
tp3929
a(S'p1_tl'
I149
tp3930
a(S'w'
I10
tp3931
a(S'p2_tl'
I153
tp3932
a(S'w'
I5
tp3933
a(S'tr_ll'
I0
tp3934
a(S'w'
I9
tp3935
a(S'w'
I709
tp3936
a(S'p1_tl'
I150
tp3937
a(S'w'
I11
tp3938
a(S'p2_tl'
I154
tp3939
a(S'w'
I5
tp3940
a(S'tr_ll'
I0
tp3941
a(S'w'
I9
tp3942
a(S'w'
I709
tp3943
a(S'p1_tl'
I151
tp3944
a(S'w'
I10
tp3945
a(S'p2_tl'
I155
tp3946
a(S'w'
I5
tp3947
a(S'tr_ll'
I0
tp3948
a(S'w'
I9
tp3949
a(S'w'
I710
tp3950
a(S'p1_tl'
I152
tp3951
a(S'w'
I10
tp3952
a(S'p2_tl'
I156
tp3953
a(S'w'
I5
tp3954
a(S'tr_ll'
I0
tp3955
a(S'w'
I9
tp3956
a(S'w'
I710
tp3957
a(S'p1_tl'
I153
tp3958
a(S'w'
I10
tp3959
a(S'p2_tl'
I157
tp3960
a(S'w'
I5
tp3961
a(S'tr_ll'
I0
tp3962
a(S'w'
I9
tp3963
a(S'w'
I710
tp3964
a(S'p1_tl'
I154
tp3965
a(S'w'
I10
tp3966
a(S'p2_tl'
I158
tp3967
a(S'w'
I5
tp3968
a(S'tr_ll'
I0
tp3969
a(S'w'
I9
tp3970
a(S'w'
I709
tp3971
a(S'p1_tl'
I155
tp3972
a(S'w'
I11
tp3973
a(S'p2_tl'
I159
tp3974
a(S'w'
I5
tp3975
a(S'tr_ll'
I0
tp3976
a(S'w'
I9
tp3977
a(S'w'
I709
tp3978
a(S'p1_tl'
I156
tp3979
a(S'w'
I10
tp3980
a(S'p2_tl'
I160
tp3981
a(S'w'
I5
tp3982
a(S'tr_ll'
I0
tp3983
a(S'w'
I9
tp3984
a(S'w'
I710
tp3985
a(S'p1_tl'
I157
tp3986
a(S'w'
I10
tp3987
a(S'p2_tl'
I161
tp3988
a(S'w'
I5
tp3989
a(S'tr_ll'
I0
tp3990
a(S'w'
I9
tp3991
a(S'w'
I710
tp3992
a(S'p1_tl'
I158
tp3993
a(S'w'
I10
tp3994
a(S'p2_tl'
I162
tp3995
a(S'w'
I5
tp3996
a(S'tr_ll'
I0
tp3997
a(S'w'
I9
tp3998
a(S'w'
I710
tp3999
a(S'p1_tl'
I159
tp4000
a(S'w'
I10
tp4001
a(S'p2_tl'
I163
tp4002
a(S'w'
I5
tp4003
a(S'tr_ll'
I0
tp4004
a(S'w'
I9
tp4005
a(S'w'
I709
tp4006
a(S'p1_tl'
I160
tp4007
a(S'w'
I11
tp4008
a(S'p2_tl'
I164
tp4009
a(S'w'
I5
tp4010
a(S'tr_ll'
I0
tp4011
a(S'w'
I9
tp4012
a(S'w'
I709
tp4013
a(S'p1_tl'
I161
tp4014
a(S'w'
I10
tp4015
a(S'p2_tl'
I165
tp4016
a(S'w'
I6
tp4017
a(S'tr_ll'
I0
tp4018
a(S'w'
I8
tp4019
a(S'w'
I710
tp4020
a(S'p1_tl'
I162
tp4021
a(S'w'
I10
tp4022
a(S'p2_tl'
I166
tp4023
a(S'w'
I5
tp4024
a(S'tr_ll'
I0
tp4025
a(S'w'
I9
tp4026
a(S'w'
I710
tp4027
a(S'p1_tl'
I163
tp4028
a(S'w'
I10
tp4029
a(S'p2_tl'
I167
tp4030
a(S'w'
I5
tp4031
a(S'tr_ll'
I0
tp4032
a(S'w'
I9
tp4033
a(S'w'
I710
tp4034
a(S'p1_tl'
I164
tp4035
a(S'w'
I10
tp4036
a(S'p2_tl'
I168
tp4037
a(S'w'
I5
tp4038
a(S'tr_ll'
I0
tp4039
a(S'w'
I9
tp4040
a(S'w'
I710
tp4041
a(S'p1_tl'
I165
tp4042
a(S'w'
I10
tp4043
a(S'p2_tl'
I169
tp4044
a(S'w'
I5
tp4045
a(S'tr_ll'
I0
tp4046
a(S'w'
I9
tp4047
a(S'w'
I709
tp4048
a(S'p1_tl'
I166
tp4049
a(S'w'
I10
tp4050
a(S'p2_tl'
I170
tp4051
a(S'w'
I6
tp4052
a(S'tr_ll'
I0
tp4053
a(S'w'
I8
tp4054
a(S'w'
I710
tp4055
a(S'p1_tl'
I167
tp4056
a(S'w'
I10
tp4057
a(S'p2_tl'
I171
tp4058
a(S'w'
I5
tp4059
a(S'tr_ll'
I0
tp4060
a(S'w'
I9
tp4061
a(S'w'
I710
tp4062
a(S'p1_tl'
I168
tp4063
a(S'w'
I10
tp4064
a(S'p2_tl'
I172
tp4065
a(S'w'
I5
tp4066
a(S'tr_ll'
I0
tp4067
a(S'w'
I9
tp4068
a(S'w'
I710
tp4069
a(S'p1_tl'
I169
tp4070
a(S'w'
I10
tp4071
a(S'p2_tl'
I173
tp4072
a(S'w'
I5
tp4073
a(S'tr_ll'
I0
tp4074
a(S'w'
I9
tp4075
a(S'w'
I710
tp4076
a(S'p1_tl'
I170
tp4077
a(S'w'
I10
tp4078
a(S'p2_tl'
I174
tp4079
a(S'w'
I5
tp4080
a(S'tr_ll'
I0
tp4081
a(S'w'
I9
tp4082
a(S'w'
I709
tp4083
a(S'p1_tl'
I171
tp4084
a(S'w'
I10
tp4085
a(S'p2_tl'
I175
tp4086
a(S'w'
I6
tp4087
a(S'tr_ll'
I0
tp4088
a(S'w'
I8
tp4089
a(S'w'
I710
tp4090
a(S'p1_tl'
I172
tp4091
a(S'w'
I10
tp4092
a(S'p2_tl'
I176
tp4093
a(S'w'
I5
tp4094
a(S'tr_ll'
I0
tp4095
a(S'w'
I9
tp4096
a(S'w'
I710
tp4097
a(S'p1_tl'
I173
tp4098
a(S'w'
I10
tp4099
a(S'p2_tl'
I177
tp4100
a(S'w'
I5
tp4101
a(S'tr_ll'
I0
tp4102
a(S'w'
I9
tp4103
a(S'w'
I731
tp4104
a(S'tr_ll'
I0
tp4105
a(S'w'
I13
tp4106
a(S'ch_no'
I0
tp4107
a(S'ch_tr'
I1
tp4108
a(S'ch_p2'
I1
tp4109
a(S'ch_p1'
I1
tp4110
a(S'w'
I700
tp4111
a(S'p1_tl'
I174
tp4112
a(S'w'
I10
tp4113
a(S'p2_tl'
I178
tp4114
a(S'w'
I5
tp4115
a(S'tr_ll'
I0
tp4116
a(S'w'
I8
tp4117
a(S'ch_no'
I1
tp4118
a(S'ch_tr'
I1
tp4119
a(S'ch_p2'
I1
tp4120
a(S'ch_p1'
I1
tp4121
a(S'w'
I1
tp4122
a(S'no_ll'
I1
tp4123
a(S'w'
I709
tp4124
a(S'p1_tl'
I175
tp4125
a(S'w'
I10
tp4126
a(S'p2_tl'
I179
tp4127
a(S'w'
I6
tp4128
a(S'tr_ll'
I0
tp4129
a(S'w'
I8
tp4130
a(S'w'
I710
tp4131
a(S'p1_tl'
I176
tp4132
a(S'w'
I10
tp4133
a(S'p2_tl'
I180
tp4134
a(S'w'
I5
tp4135
a(S'tr_ll'
I0
tp4136
a(S'w'
I9
tp4137
a(S'w'
I710
tp4138
a(S'p1_tl'
I177
tp4139
a(S'w'
I10
tp4140
a(S'p2_tl'
I181
tp4141
a(S'w'
I5
tp4142
a(S'tr_ll'
I0
tp4143
a(S'w'
I9
tp4144
a(S'w'
I710
tp4145
a(S'p1_tl'
I178
tp4146
a(S'w'
I10
tp4147
a(S'p2_tl'
I182
tp4148
a(S'w'
I5
tp4149
a(S'tr_ll'
I0
tp4150
a(S'w'
I9
tp4151
a(S'w'
I710
tp4152
a(S'p1_tl'
I179
tp4153
a(S'w'
I10
tp4154
a(S'p2_tl'
I183
tp4155
a(S'w'
I5
tp4156
a(S'tr_ll'
I0
tp4157
a(S'w'
I9
tp4158
a(S'w'
I709
tp4159
a(S'p1_tl'
I180
tp4160
a(S'w'
I10
tp4161
a(S'p2_tl'
I184
tp4162
a(S'w'
I6
tp4163
a(S'tr_ll'
I0
tp4164
a(S'w'
I9
tp4165
a(S'w'
I709
tp4166
a(S'p1_tl'
I181
tp4167
a(S'w'
I10
tp4168
a(S'p2_tl'
I185
tp4169
a(S'w'
I5
tp4170
a(S'tr_ll'
I0
tp4171
a(S'w'
I9
tp4172
a(S'w'
I710
tp4173
a(S'p1_tl'
I182
tp4174
a(S'w'
I10
tp4175
a(S'p2_tl'
I186
tp4176
a(S'w'
I5
tp4177
a(S'tr_ll'
I0
tp4178
a(S'w'
I9
tp4179
a(S'w'
I710
tp4180
a(S'p1_tl'
I183
tp4181
a(S'w'
I10
tp4182
a(S'p2_tl'
I187
tp4183
a(S'w'
I5
tp4184
a(S'tr_ll'
I0
tp4185
a(S'w'
I9
tp4186
a(S'w'
I710
tp4187
a(S'p1_tl'
I184
tp4188
a(S'w'
I10
tp4189
a(S'p2_tl'
I188
tp4190
a(S'w'
I5
tp4191
a(S'tr_ll'
I0
tp4192
a(S'w'
I9
tp4193
a(S'w'
I709
tp4194
a(S'p1_tl'
I185
tp4195
a(S'w'
I10
tp4196
a(S'p2_tl'
I189
tp4197
a(S'w'
I6
tp4198
a(S'tr_ll'
I0
tp4199
a(S'w'
I8
tp4200
a(S'w'
I710
tp4201
a(S'p1_tl'
I186
tp4202
a(S'w'
I10
tp4203
a(S'p2_tl'
I190
tp4204
a(S'w'
I5
tp4205
a(S'tr_ll'
I0
tp4206
a(S'w'
I9
tp4207
a(S'w'
I710
tp4208
a(S'p1_tl'
I187
tp4209
a(S'w'
I10
tp4210
a(S'p2_tl'
I191
tp4211
a(S'w'
I5
tp4212
a(S'tr_ll'
I0
tp4213
a(S'w'
I9
tp4214
a(S'w'
I710
tp4215
a(S'p1_tl'
I188
tp4216
a(S'w'
I10
tp4217
a(S'p2_tl'
I192
tp4218
a(S'w'
I5
tp4219
a(S'tr_ll'
I0
tp4220
a(S'w'
I9
tp4221
a(S'w'
I710
tp4222
a(S'p1_tl'
I189
tp4223
a(S'w'
I10
tp4224
a(S'p2_tl'
I193
tp4225
a(S'w'
I5
tp4226
a(S'tr_ll'
I0
tp4227
a(S'w'
I9
tp4228
a(S'w'
I709
tp4229
a(S'p1_tl'
I190
tp4230
a(S'w'
I10
tp4231
a(S'p2_tl'
I194
tp4232
a(S'w'
I6
tp4233
a(S'tr_ll'
I0
tp4234
a(S'w'
I9
tp4235
a(S'w'
I709
tp4236
a(S'p1_tl'
I191
tp4237
a(S'w'
I10
tp4238
a(S'p2_tl'
I195
tp4239
a(S'w'
I5
tp4240
a(S'tr_ll'
I0
tp4241
a(S'w'
I9
tp4242
a(S'w'
I710
tp4243
a(S'p1_tl'
I192
tp4244
a(S'w'
I10
tp4245
a(S'p2_tl'
I196
tp4246
a(S'w'
I5
tp4247
a(S'tr_ll'
I0
tp4248
a(S'w'
I9
tp4249
a(S'w'
I710
tp4250
a(S'p1_tl'
I193
tp4251
a(S'w'
I10
tp4252
a(S'p2_tl'
I197
tp4253
a(S'w'
I5
tp4254
a(S'tr_ll'
I0
tp4255
a(S'w'
I9
tp4256
a(S'w'
I710
tp4257
a(S'p1_tl'
I194
tp4258
a(S'w'
I10
tp4259
a(S'p2_tl'
I198
tp4260
a(S'w'
I5
tp4261
a(S'tr_ll'
I0
tp4262
a(S'w'
I9
tp4263
a(S'w'
I709
tp4264
a(S'p1_tl'
I195
tp4265
a(S'w'
I10
tp4266
a(S'p2_tl'
I199
tp4267
a(S'w'
I6
tp4268
a(S'tr_ll'
I0
tp4269
a(S'w'
I8
tp4270
a(S'w'
I710
tp4271
a(S'p1_tl'
I196
tp4272
a(S'w'
I10
tp4273
a(S'p2_tl'
I200
tp4274
a(S'w'
I5
tp4275
a(S'tr_ll'
I0
tp4276
a(S'w'
I9
tp4277
a(S'w'
I710
tp4278
a(S'p1_tl'
I197
tp4279
a(S'w'
I10
tp4280
a(S'p2_tl'
I201
tp4281
a(S'w'
I5
tp4282
a(S'tr_ll'
I0
tp4283
a(S'w'
I9
tp4284
a(S'w'
I710
tp4285
a(S'p1_tl'
I198
tp4286
a(S'w'
I10
tp4287
a(S'p2_tl'
I202
tp4288
a(S'w'
I5
tp4289
a(S'tr_ll'
I0
tp4290
a(S'w'
I9
tp4291
a(S'w'
I710
tp4292
a(S'p1_tl'
I199
tp4293
a(S'w'
I10
tp4294
a(S'p2_tl'
I203
tp4295
a(S'w'
I5
tp4296
a(S'tr_ll'
I0
tp4297
a(S'w'
I9
tp4298
a(S'w'
I709
tp4299
a(S'p1_tl'
I200
tp4300
a(S'w'
I10
tp4301
a(S'p2_tl'
I204
tp4302
a(S'w'
I6
tp4303
a(S'tr_ll'
I0
tp4304
a(S'w'
I9
tp4305
a(S'w'
I709
tp4306
a(S'p1_tl'
I201
tp4307
a(S'w'
I10
tp4308
a(S'p2_tl'
I205
tp4309
a(S'w'
I5
tp4310
a(S'tr_ll'
I0
tp4311
a(S'w'
I9
tp4312
a(S'w'
I710
tp4313
a(S'p1_tl'
I202
tp4314
a(S'w'
I10
tp4315
a(S'p2_tl'
I206
tp4316
a(S'w'
I5
tp4317
a(S'tr_ll'
I0
tp4318
a(S'w'
I9
tp4319
a(S'w'
I710
tp4320
a(S'p1_tl'
I203
tp4321
a(S'w'
I10
tp4322
a(S'p2_tl'
I207
tp4323
a(S'w'
I5
tp4324
a(S'tr_ll'
I0
tp4325
a(S'w'
I9
tp4326
a(S'w'
I731
tp4327
a(S'tr_ll'
I0
tp4328
a(S'w'
I13
tp4329
a(S'ch_no'
I0
tp4330
a(S'ch_tr'
I1
tp4331
a(S'ch_p2'
I1
tp4332
a(S'ch_p1'
I1
tp4333
a(S'w'
I699
tp4334
a(S'p1_tl'
I204
tp4335
a(S'w'
I10
tp4336
a(S'p2_tl'
I208
tp4337
a(S'w'
I6
tp4338
a(S'tr_ll'
I0
tp4339
a(S'w'
I7
tp4340
a(S'ch_no'
I1
tp4341
a(S'ch_tr'
I1
tp4342
a(S'ch_p2'
I1
tp4343
a(S'ch_p1'
I1
tp4344
a(S'w'
I2
tp4345
a(S'no_ll'
I1
tp4346
a(S'w'
I709
tp4347
a(S'p1_tl'
I205
tp4348
a(S'w'
I10
tp4349
a(S'p2_tl'
I209
tp4350
a(S'w'
I5
tp4351
a(S'tr_ll'
I0
tp4352
a(S'w'
I9
tp4353
a(S'w'
I710
tp4354
a(S'p1_tl'
I206
tp4355
a(S'w'
I10
tp4356
a(S'p2_tl'
I210
tp4357
a(S'w'
I5
tp4358
a(S'tr_ll'
I0
tp4359
a(S'w'
I9
tp4360
a(S'w'
I710
tp4361
a(S'p1_tl'
I207
tp4362
a(S'w'
I10
tp4363
a(S'p2_tl'
I211
tp4364
a(S'w'
I5
tp4365
a(S'tr_ll'
I0
tp4366
a(S'w'
I9
tp4367
a(S'w'
I710
tp4368
a(S'p1_tl'
I208
tp4369
a(S'w'
I10
tp4370
a(S'p2_tl'
I212
tp4371
a(S'w'
I5
tp4372
a(S'tr_ll'
I0
tp4373
a(S'w'
I9
tp4374
a(S'w'
I709
tp4375
a(S'p1_tl'
I209
tp4376
a(S'w'
I10
tp4377
a(S'p2_tl'
I213
tp4378
a(S'w'
I6
tp4379
a(S'tr_ll'
I0
tp4380
a(S'w'
I9
tp4381
a(S'w'
I709
tp4382
a(S'p1_tl'
I210
tp4383
a(S'w'
I10
tp4384
a(S'p2_tl'
I214
tp4385
a(S'w'
I5
tp4386
a(S'tr_ll'
I0
tp4387
a(S'w'
I9
tp4388
a(S'w'
I710
tp4389
a(S'p1_tl'
I211
tp4390
a(S'w'
I10
tp4391
a(S'p2_tl'
I215
tp4392
a(S'w'
I5
tp4393
a(S'tr_ll'
I0
tp4394
a(S'w'
I9
tp4395
a(S'w'
I710
tp4396
a(S'p1_tl'
I212
tp4397
a(S'w'
I10
tp4398
a(S'p2_tl'
I216
tp4399
a(S'w'
I5
tp4400
a(S'tr_ll'
I0
tp4401
a(S'w'
I9
tp4402
a(S'w'
I710
tp4403
a(S'p1_tl'
I213
tp4404
a(S'w'
I10
tp4405
a(S'p2_tl'
I217
tp4406
a(S'w'
I5
tp4407
a(S'tr_ll'
I0
tp4408
a(S'w'
I9
tp4409
a(S'w'
I709
tp4410
a(S'p1_tl'
I214
tp4411
a(S'w'
I10
tp4412
a(S'p2_tl'
I218
tp4413
a(S'w'
I6
tp4414
a(S'tr_ll'
I0
tp4415
a(S'w'
I9
tp4416
a(S'w'
I709
tp4417
a(S'p1_tl'
I215
tp4418
a(S'w'
I10
tp4419
a(S'p2_tl'
I219
tp4420
a(S'w'
I5
tp4421
a(S'tr_ll'
I0
tp4422
a(S'w'
I9
tp4423
a(S'w'
I710
tp4424
a(S'p1_tl'
I216
tp4425
a(S'w'
I10
tp4426
a(S'p2_tl'
I220
tp4427
a(S'w'
I5
tp4428
a(S'tr_ll'
I0
tp4429
a(S'w'
I9
tp4430
a(S'w'
I710
tp4431
a(S'p1_tl'
I217
tp4432
a(S'w'
I10
tp4433
a(S'p2_tl'
I221
tp4434
a(S'w'
I5
tp4435
a(S'tr_ll'
I0
tp4436
a(S'w'
I9
tp4437
a(S'w'
I710
tp4438
a(S'p1_tl'
I218
tp4439
a(S'w'
I10
tp4440
a(S'p2_tl'
I222
tp4441
a(S'w'
I5
tp4442
a(S'tr_ll'
I0
tp4443
a(S'w'
I9
tp4444
a(S'w'
I709
tp4445
a(S'p1_tl'
I219
tp4446
a(S'w'
I10
tp4447
a(S'p2_tl'
I223
tp4448
a(S'w'
I6
tp4449
a(S'tr_ll'
I0
tp4450
a(S'w'
I9
tp4451
a(S'w'
I709
tp4452
a(S'p1_tl'
I220
tp4453
a(S'w'
I10
tp4454
a(S'p2_tl'
I224
tp4455
a(S'w'
I5
tp4456
a(S'tr_ll'
I0
tp4457
a(S'w'
I9
tp4458
a(S'w'
I710
tp4459
a(S'p1_tl'
I221
tp4460
a(S'w'
I10
tp4461
a(S'p2_tl'
I225
tp4462
a(S'w'
I5
tp4463
a(S'tr_ll'
I0
tp4464
a(S'w'
I9
tp4465
a(S'w'
I710
tp4466
a(S'p1_tl'
I222
tp4467
a(S'w'
I10
tp4468
a(S'p2_tl'
I226
tp4469
a(S'w'
I5
tp4470
a(S'tr_ll'
I0
tp4471
a(S'w'
I9
tp4472
a(S'w'
I710
tp4473
a(S'p1_tl'
I223
tp4474
a(S'w'
I10
tp4475
a(S'p2_tl'
I227
tp4476
a(S'w'
I5
tp4477
a(S'tr_ll'
I0
tp4478
a(S'w'
I9
tp4479
a(S'w'
I709
tp4480
a(S'p1_tl'
I224
tp4481
a(S'w'
I10
tp4482
a(S'p2_tl'
I228
tp4483
a(S'w'
I6
tp4484
a(S'tr_ll'
I0
tp4485
a(S'w'
I9
tp4486
a(S'w'
I709
tp4487
a(S'p1_tl'
I225
tp4488
a(S'w'
I10
tp4489
a(S'p2_tl'
I229
tp4490
a(S'w'
I5
tp4491
a(S'tr_ll'
I0
tp4492
a(S'w'
I9
tp4493
a(S'w'
I710
tp4494
a(S'p1_tl'
I226
tp4495
a(S'w'
I10
tp4496
a(S'p2_tl'
I230
tp4497
a(S'w'
I5
tp4498
a(S'tr_ll'
I0
tp4499
a(S'w'
I9
tp4500
a(S'w'
I710
tp4501
a(S'p1_tl'
I227
tp4502
a(S'w'
I10
tp4503
a(S'p2_tl'
I231
tp4504
a(S'w'
I5
tp4505
a(S'tr_ll'
I0
tp4506
a(S'w'
I9
tp4507
a(S'w'
I710
tp4508
a(S'p1_tl'
I228
tp4509
a(S'w'
I10
tp4510
a(S'p2_tl'
I232
tp4511
a(S'w'
I5
tp4512
a(S'tr_ll'
I0
tp4513
a(S'w'
I9
tp4514
a(S'w'
I709
tp4515
a(S'p1_tl'
I229
tp4516
a(S'w'
I10
tp4517
a(S'p2_tl'
I233
tp4518
a(S'w'
I6
tp4519
a(S'tr_ll'
I0
tp4520
a(S'w'
I9
tp4521
a(S'w'
I709
tp4522
a(S'p1_tl'
I230
tp4523
a(S'w'
I10
tp4524
a(S'p2_tl'
I234
tp4525
a(S'w'
I5
tp4526
a(S'tr_ll'
I0
tp4527
a(S'w'
I9
tp4528
a(S'w'
I710
tp4529
a(S'p1_tl'
I231
tp4530
a(S'w'
I10
tp4531
a(S'p2_tl'
I235
tp4532
a(S'w'
I5
tp4533
a(S'tr_ll'
I0
tp4534
a(S'w'
I9
tp4535
a(S'w'
I710
tp4536
a(S'p1_tl'
I232
tp4537
a(S'w'
I10
tp4538
a(S'p2_tl'
I236
tp4539
a(S'w'
I5
tp4540
a(S'tr_ll'
I0
tp4541
a(S'w'
I9
tp4542
a(S'w'
I710
tp4543
a(S'p1_tl'
I233
tp4544
a(S'w'
I10
tp4545
a(S'p2_tl'
I237
tp4546
a(S'w'
I5
tp4547
a(S'tr_ll'
I0
tp4548
a(S'w'
I9
tp4549
a(S'w'
I730
tp4550
a(S'tr_ll'
I0
tp4551
a(S'w'
I13
tp4552
a(S'ch_no'
I0
tp4553
a(S'ch_tr'
I1
tp4554
a(S'ch_p2'
I1
tp4555
a(S'ch_p1'
I1
tp4556
a(S'w'
I700
tp4557
a(S'p1_tl'
I234
tp4558
a(S'w'
I10
tp4559
a(S'p2_tl'
I238
tp4560
a(S'w'
I5
tp4561
a(S'tr_ll'
I0
tp4562
a(S'w'
I8
tp4563
a(S'ch_no'
I1
tp4564
a(S'ch_tr'
I1
tp4565
a(S'ch_p2'
I1
tp4566
a(S'ch_p1'
I1
tp4567
a(S'w'
I1
tp4568
a(S'w'
I1
tp4569
a(S'no_ll'
I1
tp4570
a(S'w'
I709
tp4571
a(S'p1_tl'
I235
tp4572
a(S'w'
I10
tp4573
a(S'p2_tl'
I239
tp4574
a(S'w'
I5
tp4575
a(S'tr_ll'
I0
tp4576
a(S'w'
I9
tp4577
a(S'w'
I710
tp4578
a(S'p1_tl'
I236
tp4579
a(S'w'
I10
tp4580
a(S'p2_tl'
I240
tp4581
a(S'w'
I5
tp4582
a(S'tr_ll'
I0
tp4583
a(S'w'
I9
tp4584
a(S'w'
I710
tp4585
a(S'p1_tl'
I237
tp4586
a(S'w'
I10
tp4587
a(S'p2_tl'
I241
tp4588
a(S'w'
I5
tp4589
a(S'tr_ll'
I0
tp4590
a(S'w'
I9
tp4591
a(S'w'
I709
tp4592
a(S'p1_tl'
I238
tp4593
a(S'w'
I10
tp4594
a(S'p2_tl'
I242
tp4595
a(S'w'
I6
tp4596
a(S'tr_ll'
I0
tp4597
a(S'w'
I9
tp4598
a(S'w'
I709
tp4599
a(S'p1_tl'
I239
tp4600
a(S'w'
I10
tp4601
a(S'p2_tl'
I243
tp4602
a(S'w'
I5
tp4603
a(S'tr_ll'
I0
tp4604
a(S'w'
I9
tp4605
a(S'w'
I710
tp4606
a(S'p1_tl'
I240
tp4607
a(S'w'
I10
tp4608
a(S'p2_tl'
I244
tp4609
a(S'w'
I5
tp4610
a(S'tr_ll'
I0
tp4611
a(S'w'
I9
tp4612
a(S'w'
I710
tp4613
a(S'p1_tl'
I241
tp4614
a(S'w'
I10
tp4615
a(S'p2_tl'
I245
tp4616
a(S'w'
I5
tp4617
a(S'tr_ll'
I0
tp4618
a(S'w'
I9
tp4619
a(S'w'
I710
tp4620
a(S'p1_tl'
I242
tp4621
a(S'w'
I10
tp4622
a(S'p2_tl'
I246
tp4623
a(S'w'
I5
tp4624
a(S'tr_ll'
I0
tp4625
a(S'w'
I9
tp4626
a(S'w'
I709
tp4627
a(S'p1_tl'
I243
tp4628
a(S'w'
I11
tp4629
a(S'p2_tl'
I247
tp4630
a(S'w'
I5
tp4631
a(S'tr_ll'
I0
tp4632
a(S'w'
I9
tp4633
a(S'w'
I709
tp4634
a(S'p1_tl'
I244
tp4635
a(S'w'
I10
tp4636
a(S'p2_tl'
I248
tp4637
a(S'w'
I5
tp4638
a(S'tr_ll'
I0
tp4639
a(S'w'
I9
tp4640
a(S'w'
I710
tp4641
a(S'p1_tl'
I245
tp4642
a(S'w'
I10
tp4643
a(S'p2_tl'
I249
tp4644
a(S'w'
I5
tp4645
a(S'tr_ll'
I0
tp4646
a(S'w'
I9
tp4647
a(S'w'
I710
tp4648
a(S'p1_tl'
I246
tp4649
a(S'w'
I10
tp4650
a(S'p2_tl'
I250
tp4651
a(S'w'
I5
tp4652
a(S'tr_ll'
I0
tp4653
a(S'w'
I9
tp4654
a(S'w'
I710
tp4655
a(S'p1_tl'
I247
tp4656
a(S'w'
I10
tp4657
a(S'p2_tl'
I251
tp4658
a(S'w'
I5
tp4659
a(S'tr_ll'
I0
tp4660
a(S'w'
I9
tp4661
a(S'w'
I709
tp4662
a(S'p1_tl'
I248
tp4663
a(S'w'
I11
tp4664
a(S'p2_tl'
I252
tp4665
a(S'w'
I5
tp4666
a(S'tr_ll'
I0
tp4667
a(S'w'
I9
tp4668
a(S'w'
I709
tp4669
a(S'p1_tl'
I249
tp4670
a(S'w'
I10
tp4671
a(S'p2_tl'
I253
tp4672
a(S'w'
I5
tp4673
a(S'tr_ll'
I0
tp4674
a(S'w'
I9
tp4675
a(S'w'
I710
tp4676
a(S'p1_tl'
I250
tp4677
a(S'w'
I10
tp4678
a(S'p2_tl'
I254
tp4679
a(S'w'
I5
tp4680
a(S'tr_ll'
I0
tp4681
a(S'w'
I9
tp4682
a(S'w'
I710
tp4683
a(S'p1_tl'
I251
tp4684
a(S'w'
I10
tp4685
a(S'p2_tl'
I255
tp4686
a(S'w'
I5
tp4687
a(S'tr_ll'
I0
tp4688
a(S'w'
I9
tp4689
a(S'w'
I710
tp4690
a(S'p1_tl'
I252
tp4691
a(S'w'
I10
tp4692
a(S'p2_tl'
I0
tp4693
a(S'p2_ll'
I1
tp4694
a(S'p2_th'
I1
tp4695
a(S'w'
I5
tp4696
a(S'tr_ll'
I0
tp4697
a(S'w'
I9
tp4698
a(S'w'
I709
tp4699
a(S'p1_tl'
I253
tp4700
a(S'w'
I10
tp4701
a(S'p2_tl'
I1
tp4702
a(S'w'
I6
tp4703
a(S'tr_ll'
I0
tp4704
a(S'w'
I9
tp4705
a(S'w'
I709
tp4706
a(S'p1_tl'
I254
tp4707
a(S'w'
I10
tp4708
a(S'p2_tl'
I2
tp4709
a(S'w'
I5
tp4710
a(S'tr_ll'
I0
tp4711
a(S'w'
I9
tp4712
a(S'w'
I710
tp4713
a(S'p1_tl'
I255
tp4714
a(S'w'
I10
tp4715
a(S'p2_tl'
I3
tp4716
a(S'w'
I5
tp4717
a(S'tr_ll'
I0
tp4718
a(S'w'
I9
tp4719
a(S'w'
I710
tp4720
a(S'p1_tl'
I0
tp4721
a(S'p1_ll'
I1
tp4722
a(S'p1_th'
I1
tp4723
a(S'w'
I10
tp4724
a(S'p2_tl'
I4
tp4725
a(S'w'
I5
tp4726
a(S'tr_ll'
I0
tp4727
a(S'w'
I9
tp4728
a(S'w'
I710
tp4729
a(S'p1_tl'
I1
tp4730
a(S'w'
I10
tp4731
a(S'p2_tl'
I5
tp4732
a(S'w'
I5
tp4733
a(S'tr_ll'
I0
tp4734
a(S'w'
I9
tp4735
a(S'w'
I709
tp4736
a(S'p1_tl'
I2
tp4737
a(S'w'
I11
tp4738
a(S'p2_tl'
I6
tp4739
a(S'w'
I5
tp4740
a(S'tr_ll'
I0
tp4741
a(S'w'
I9
tp4742
a(S'w'
I709
tp4743
a(S'p1_tl'
I3
tp4744
a(S'w'
I10
tp4745
a(S'p2_tl'
I7
tp4746
a(S'w'
I5
tp4747
a(S'tr_ll'
I0
tp4748
a(S'w'
I9
tp4749
a(S'w'
I710
tp4750
a(S'p1_tl'
I4
tp4751
a(S'w'
I10
tp4752
a(S'p2_tl'
I8
tp4753
a(S'w'
I5
tp4754
a(S'tr_ll'
I0
tp4755
a(S'w'
I9
tp4756
a(S'w'
I710
tp4757
a(S'p1_tl'
I5
tp4758
a(S'w'
I10
tp4759
a(S'p2_tl'
I9
tp4760
a(S'w'
I5
tp4761
a(S'tr_ll'
I0
tp4762
a(S'w'
I9
tp4763
a(S'w'
I710
tp4764
a(S'p1_tl'
I6
tp4765
a(S'w'
I10
tp4766
a(S'p2_tl'
I10
tp4767
a(S'w'
I5
tp4768
a(S'tr_ll'
I0
tp4769
a(S'w'
I9
tp4770
a(S'w'
I710
tp4771
a(S'p1_tl'
I7
tp4772
a(S'w'
I10
tp4773
a(S'p2_tl'
I11
tp4774
a(S'w'
I5
tp4775
a(S'tr_ll'
I0
tp4776
a(S'w'
I9
tp4777
a(S'w'
I730
tp4778
a(S'tr_ll'
I0
tp4779
a(S'w'
I13
tp4780
a(S'ch_no'
I0
tp4781
a(S'ch_tr'
I1
tp4782
a(S'ch_p2'
I1
tp4783
a(S'ch_p1'
I1
tp4784
a(S'w'
I700
tp4785
a(S'p1_tl'
I8
tp4786
a(S'w'
I10
tp4787
a(S'p2_tl'
I12
tp4788
a(S'w'
I5
tp4789
a(S'tr_ll'
I0
tp4790
a(S'w'
I8
tp4791
a(S'ch_no'
I1
tp4792
a(S'ch_tr'
I1
tp4793
a(S'ch_p2'
I1
tp4794
a(S'ch_p1'
I1
tp4795
a(S'w'
I1
tp4796
a(S'w'
I1
tp4797
a(S'no_ll'
I1
tp4798
a(S'w'
I709
tp4799
a(S'p1_tl'
I9
tp4800
a(S'w'
I10
tp4801
a(S'p2_tl'
I13
tp4802
a(S'w'
I5
tp4803
a(S'tr_ll'
I0
tp4804
a(S'w'
I9
tp4805
a(S'w'
I710
tp4806
a(S'p1_tl'
I10
tp4807
a(S'w'
I10
tp4808
a(S'p2_tl'
I14
tp4809
a(S'w'
I5
tp4810
a(S'tr_ll'
I0
tp4811
a(S'w'
I9
tp4812
a(S'w'
I709
tp4813
a(S'p1_tl'
I11
tp4814
a(S'w'
I11
tp4815
a(S'p2_tl'
I15
tp4816
a(S'w'
I5
tp4817
a(S'tr_ll'
I0
tp4818
a(S'w'
I9
tp4819
a(S'w'
I709
tp4820
a(S'p1_tl'
I12
tp4821
a(S'w'
I10
tp4822
a(S'p2_tl'
I16
tp4823
a(S'w'
I5
tp4824
a(S'tr_ll'
I0
tp4825
a(S'w'
I9
tp4826
a(S'w'
I710
tp4827
a(S'p1_tl'
I13
tp4828
a(S'w'
I10
tp4829
a(S'p2_tl'
I17
tp4830
a(S'w'
I5
tp4831
a(S'tr_ll'
I0
tp4832
a(S'w'
I9
tp4833
a(S'w'
I710
tp4834
a(S'p1_tl'
I14
tp4835
a(S'w'
I10
tp4836
a(S'p2_tl'
I18
tp4837
a(S'w'
I5
tp4838
a(S'tr_ll'
I0
tp4839
a(S'w'
I9
tp4840
a(S'w'
I710
tp4841
a(S'p1_tl'
I15
tp4842
a(S'w'
I10
tp4843
a(S'p2_tl'
I19
tp4844
a(S'w'
I5
tp4845
a(S'tr_ll'
I0
tp4846
a(S'w'
I9
tp4847
a(S'w'
I710
tp4848
a(S'p1_tl'
I16
tp4849
a(S'w'
I10
tp4850
a(S'p2_tl'
I20
tp4851
a(S'w'
I5
tp4852
a(S'tr_ll'
I0
tp4853
a(S'w'
I9
tp4854
a(S'w'
I709
tp4855
a(S'p1_tl'
I17
tp4856
a(S'w'
I10
tp4857
a(S'p2_tl'
I21
tp4858
a(S'w'
I6
tp4859
a(S'tr_ll'
I0
tp4860
a(S'w'
I8
tp4861
a(S'w'
I710
tp4862
a(S'p1_tl'
I18
tp4863
a(S'w'
I10
tp4864
a(S'p2_tl'
I22
tp4865
a(S'w'
I5
tp4866
a(S'tr_ll'
I0
tp4867
a(S'w'
I9
tp4868
a(S'w'
I710
tp4869
a(S'p1_tl'
I19
tp4870
a(S'w'
I10
tp4871
a(S'p2_tl'
I23
tp4872
a(S'w'
I5
tp4873
a(S'tr_ll'
I0
tp4874
a(S'w'
I9
tp4875
a(S'w'
I710
tp4876
a(S'p1_tl'
I20
tp4877
a(S'w'
I10
tp4878
a(S'p2_tl'
I24
tp4879
a(S'w'
I5
tp4880
a(S'tr_ll'
I0
tp4881
a(S'w'
I9
tp4882
a(S'w'
I709
tp4883
a(S'p1_tl'
I21
tp4884
a(S'w'
I11
tp4885
a(S'p2_tl'
I25
tp4886
a(S'w'
I5
tp4887
a(S'tr_ll'
I0
tp4888
a(S'w'
I9
tp4889
a(S'w'
I709
tp4890
a(S'p1_tl'
I22
tp4891
a(S'w'
I10
tp4892
a(S'p2_tl'
I26
tp4893
a(S'w'
I5
tp4894
a(S'tr_ll'
I0
tp4895
a(S'w'
I9
tp4896
a(S'w'
I710
tp4897
a(S'p1_tl'
I23
tp4898
a(S'w'
I10
tp4899
a(S'p2_tl'
I27
tp4900
a(S'w'
I5
tp4901
a(S'tr_ll'
I0
tp4902
a(S'w'
I9
tp4903
a(S'w'
I710
tp4904
a(S'p1_tl'
I24
tp4905
a(S'w'
I10
tp4906
a(S'p2_tl'
I28
tp4907
a(S'w'
I5
tp4908
a(S'tr_ll'
I0
tp4909
a(S'w'
I9
tp4910
a(S'w'
I710
tp4911
a(S'p1_tl'
I25
tp4912
a(S'w'
I10
tp4913
a(S'p2_tl'
I29
tp4914
a(S'w'
I5
tp4915
a(S'tr_ll'
I0
tp4916
a(S'w'
I9
tp4917
a(S'w'
I709
tp4918
a(S'p1_tl'
I26
tp4919
a(S'w'
I11
tp4920
a(S'p2_tl'
I30
tp4921
a(S'w'
I5
tp4922
a(S'tr_ll'
I0
tp4923
a(S'w'
I9
tp4924
a(S'w'
I709
tp4925
a(S'p1_tl'
I27
tp4926
a(S'w'
I10
tp4927
a(S'p2_tl'
I31
tp4928
a(S'w'
I5
tp4929
a(S'tr_ll'
I0
tp4930
a(S'w'
I9
tp4931
a(S'w'
I710
tp4932
a(S'p1_tl'
I28
tp4933
a(S'w'
I10
tp4934
a(S'p2_tl'
I32
tp4935
a(S'w'
I5
tp4936
a(S'tr_ll'
I0
tp4937
a(S'w'
I9
tp4938
a(S'w'
I710
tp4939
a(S'p1_tl'
I29
tp4940
a(S'w'
I10
tp4941
a(S'p2_tl'
I33
tp4942
a(S'w'
I5
tp4943
a(S'tr_ll'
I0
tp4944
a(S'w'
I9
tp4945
a(S'w'
I710
tp4946
a(S'p1_tl'
I30
tp4947
a(S'w'
I10
tp4948
a(S'p2_tl'
I34
tp4949
a(S'w'
I5
tp4950
a(S'tr_ll'
I0
tp4951
a(S'w'
I9
tp4952
a(S'w'
I709
tp4953
a(S'p1_tl'
I31
tp4954
a(S'w'
I11
tp4955
a(S'p2_tl'
I35
tp4956
a(S'w'
I5
tp4957
a(S'tr_ll'
I0
tp4958
a(S'w'
I9
tp4959
a(S'w'
I709
tp4960
a(S'p1_tl'
I32
tp4961
a(S'w'
I10
tp4962
a(S'p2_tl'
I36
tp4963
a(S'w'
I6
tp4964
a(S'tr_ll'
I0
tp4965
a(S'w'
I8
tp4966
a(S'w'
I710
tp4967
a(S'p1_tl'
I33
tp4968
a(S'w'
I10
tp4969
a(S'p2_tl'
I37
tp4970
a(S'w'
I5
tp4971
a(S'tr_ll'
I0
tp4972
a(S'w'
I9
tp4973
a(S'w'
I710
tp4974
a(S'p1_tl'
I34
tp4975
a(S'w'
I10
tp4976
a(S'p2_tl'
I38
tp4977
a(S'w'
I5
tp4978
a(S'tr_ll'
I0
tp4979
a(S'w'
I9
tp4980
a(S'w'
I710
tp4981
a(S'p1_tl'
I35
tp4982
a(S'w'
I10
tp4983
a(S'p2_tl'
I39
tp4984
a(S'w'
I5
tp4985
a(S'tr_ll'
I0
tp4986
a(S'w'
I9
tp4987
a(S'w'
I709
tp4988
a(S'p1_tl'
I36
tp4989
a(S'w'
I11
tp4990
a(S'p2_tl'
I40
tp4991
a(S'w'
I5
tp4992
a(S'tr_ll'
I0
tp4993
a(S'w'
I9
tp4994
a(S'w'
I709
tp4995
a(S'p1_tl'
I37
tp4996
a(S'w'
I10
tp4997
a(S'p2_tl'
I41
tp4998
a(S'w'
I5
tp4999
a(S'tr_ll'
I0
tp5000
a(S'w'
I9
tp5001
a(S'w'
I731
tp5002
a(S'tr_ll'
I0
tp5003
a(S'w'
I13
tp5004
a(S'ch_no'
I0
tp5005
a(S'ch_tr'
I1
tp5006
a(S'ch_p2'
I1
tp5007
a(S'ch_p1'
I1
tp5008
a(S'w'
I700
tp5009
a(S'p1_tl'
I38
tp5010
a(S'w'
I10
tp5011
a(S'p2_tl'
I42
tp5012
a(S'w'
I5
tp5013
a(S'tr_ll'
I0
tp5014
a(S'w'
I8
tp5015
a(S'ch_no'
I1
tp5016
a(S'ch_tr'
I1
tp5017
a(S'ch_p2'
I1
tp5018
a(S'ch_p1'
I1
tp5019
a(S'w'
I1
tp5020
a(S'w'
I1
tp5021
a(S'no_ll'
I1
tp5022
a(S'w'
I709
tp5023
a(S'p1_tl'
I39
tp5024
a(S'w'
I10
tp5025
a(S'p2_tl'
I43
tp5026
a(S'w'
I5
tp5027
a(S'tr_ll'
I0
tp5028
a(S'w'
I9
tp5029
a(S'w'
I710
tp5030
a(S'p1_tl'
I40
tp5031
a(S'w'
I10
tp5032
a(S'p2_tl'
I44
tp5033
a(S'w'
I5
tp5034
a(S'tr_ll'
I0
tp5035
a(S'w'
I9
tp5036
a(S'w'
I709
tp5037
a(S'p1_tl'
I41
tp5038
a(S'w'
I10
tp5039
a(S'p2_tl'
I45
tp5040
a(S'w'
I6
tp5041
a(S'tr_ll'
I0
tp5042
a(S'w'
I8
tp5043
a(S'w'
I710
tp5044
a(S'p1_tl'
I42
tp5045
a(S'w'
I10
tp5046
a(S'p2_tl'
I46
tp5047
a(S'w'
I5
tp5048
a(S'tr_ll'
I0
tp5049
a(S'w'
I9
tp5050
a(S'w'
I710
tp5051
a(S'p1_tl'
I43
tp5052
a(S'w'
I10
tp5053
a(S'p2_tl'
I47
tp5054
a(S'w'
I5
tp5055
a(S'tr_ll'
I0
tp5056
a(S'w'
I9
tp5057
a(S'w'
I710
tp5058
a(S'p1_tl'
I44
tp5059
a(S'w'
I10
tp5060
a(S'p2_tl'
I48
tp5061
a(S'w'
I5
tp5062
a(S'tr_ll'
I0
tp5063
a(S'w'
I9
tp5064
a(S'w'
I710
tp5065
a(S'p1_tl'
I45
tp5066
a(S'w'
I10
tp5067
a(S'p2_tl'
I49
tp5068
a(S'w'
I5
tp5069
a(S'tr_ll'
I0
tp5070
a(S'w'
I9
tp5071
a(S'w'
I709
tp5072
a(S'p1_tl'
I46
tp5073
a(S'w'
I10
tp5074
a(S'p2_tl'
I50
tp5075
a(S'w'
I6
tp5076
a(S'tr_ll'
I0
tp5077
a(S'w'
I8
tp5078
a(S'w'
I710
tp5079
a(S'p1_tl'
I47
tp5080
a(S'w'
I10
tp5081
a(S'p2_tl'
I51
tp5082
a(S'w'
I5
tp5083
a(S'tr_ll'
I0
tp5084
a(S'w'
I9
tp5085
a(S'w'
I710
tp5086
a(S'p1_tl'
I48
tp5087
a(S'w'
I10
tp5088
a(S'p2_tl'
I52
tp5089
a(S'w'
I5
tp5090
a(S'tr_ll'
I0
tp5091
a(S'w'
I9
tp5092
a(S'w'
I710
tp5093
a(S'p1_tl'
I49
tp5094
a(S'w'
I10
tp5095
a(S'p2_tl'
I53
tp5096
a(S'w'
I5
tp5097
a(S'tr_ll'
I0
tp5098
a(S'w'
I9
tp5099
a(S'w'
I710
tp5100
a(S'p1_tl'
I50
tp5101
a(S'w'
I10
tp5102
a(S'p2_tl'
I54
tp5103
a(S'w'
I5
tp5104
a(S'tr_ll'
I0
tp5105
a(S'w'
I9
tp5106
a(S'w'
I709
tp5107
a(S'p1_tl'
I51
tp5108
a(S'w'
I10
tp5109
a(S'p2_tl'
I55
tp5110
a(S'w'
I6
tp5111
a(S'tr_ll'
I0
tp5112
a(S'w'
I8
tp5113
a(S'w'
I710
tp5114
a(S'p1_tl'
I52
tp5115
a(S'w'
I10
tp5116
a(S'p2_tl'
I56
tp5117
a(S'w'
I5
tp5118
a(S'tr_ll'
I0
tp5119
a(S'w'
I9
tp5120
a(S'w'
I710
tp5121
a(S'p1_tl'
I53
tp5122
a(S'w'
I10
tp5123
a(S'p2_tl'
I57
tp5124
a(S'w'
I5
tp5125
a(S'tr_ll'
I0
tp5126
a(S'w'
I9
tp5127
a(S'w'
I710
tp5128
a(S'p1_tl'
I54
tp5129
a(S'w'
I10
tp5130
a(S'p2_tl'
I58
tp5131
a(S'w'
I5
tp5132
a(S'tr_ll'
I0
tp5133
a(S'w'
I9
tp5134
a(S'w'
I710
tp5135
a(S'p1_tl'
I55
tp5136
a(S'w'
I10
tp5137
a(S'p2_tl'
I59
tp5138
a(S'w'
I5
tp5139
a(S'tr_ll'
I0
tp5140
a(S'w'
I9
tp5141
a(S'w'
I709
tp5142
a(S'p1_tl'
I56
tp5143
a(S'w'
I10
tp5144
a(S'p2_tl'
I60
tp5145
a(S'w'
I6
tp5146
a(S'tr_ll'
I0
tp5147
a(S'w'
I8
tp5148
a(S'w'
I710
tp5149
a(S'p1_tl'
I57
tp5150
a(S'w'
I10
tp5151
a(S'p2_tl'
I61
tp5152
a(S'w'
I5
tp5153
a(S'tr_ll'
I0
tp5154
a(S'w'
I9
tp5155
a(S'w'
I710
tp5156
a(S'p1_tl'
I58
tp5157
a(S'w'
I10
tp5158
a(S'p2_tl'
I62
tp5159
a(S'w'
I5
tp5160
a(S'tr_ll'
I0
tp5161
a(S'w'
I9
tp5162
a(S'w'
I710
tp5163
a(S'p1_tl'
I59
tp5164
a(S'w'
I10
tp5165
a(S'p2_tl'
I63
tp5166
a(S'w'
I5
tp5167
a(S'tr_ll'
I0
tp5168
a(S'w'
I9
tp5169
a(S'w'
I710
tp5170
a(S'p1_tl'
I60
tp5171
a(S'w'
I10
tp5172
a(S'p2_tl'
I64
tp5173
a(S'w'
I5
tp5174
a(S'tr_ll'
I0
tp5175
a(S'w'
I9
tp5176
a(S'w'
I709
tp5177
a(S'p1_tl'
I61
tp5178
a(S'w'
I10
tp5179
a(S'p2_tl'
I65
tp5180
a(S'w'
I6
tp5181
a(S'tr_ll'
I0
tp5182
a(S'w'
I9
tp5183
a(S'w'
I709
tp5184
a(S'p1_tl'
I62
tp5185
a(S'w'
I10
tp5186
a(S'p2_tl'
I66
tp5187
a(S'w'
I5
tp5188
a(S'tr_ll'
I0
tp5189
a(S'w'
I9
tp5190
a(S'w'
I710
tp5191
a(S'p1_tl'
I63
tp5192
a(S'w'
I10
tp5193
a(S'p2_tl'
I67
tp5194
a(S'w'
I5
tp5195
a(S'tr_ll'
I0
tp5196
a(S'w'
I9
tp5197
a(S'w'
I710
tp5198
a(S'p1_tl'
I64
tp5199
a(S'w'
I10
tp5200
a(S'p2_tl'
I68
tp5201
a(S'w'
I5
tp5202
a(S'tr_ll'
I0
tp5203
a(S'w'
I9
tp5204
a(S'w'
I710
tp5205
a(S'p1_tl'
I65
tp5206
a(S'w'
I10
tp5207
a(S'p2_tl'
I69
tp5208
a(S'w'
I5
tp5209
a(S'tr_ll'
I0
tp5210
a(S'w'
I9
tp5211
a(S'w'
I709
tp5212
a(S'p1_tl'
I66
tp5213
a(S'w'
I10
tp5214
a(S'p2_tl'
I70
tp5215
a(S'w'
I6
tp5216
a(S'tr_ll'
I0
tp5217
a(S'w'
I8
tp5218
a(S'w'
I710
tp5219
a(S'p1_tl'
I67
tp5220
a(S'w'
I10
tp5221
a(S'p2_tl'
I71
tp5222
a(S'w'
I5
tp5223
a(S'tr_ll'
I0
tp5224
a(S'w'
I9
tp5225
a(S'w'
I731
tp5226
a(S'tr_ll'
I0
tp5227
a(S'w'
I13
tp5228
a(S'ch_no'
I0
tp5229
a(S'ch_tr'
I1
tp5230
a(S'ch_p2'
I1
tp5231
a(S'ch_p1'
I1
tp5232
a(S'w'
I700
tp5233
a(S'p1_tl'
I68
tp5234
a(S'w'
I10
tp5235
a(S'p2_tl'
I72
tp5236
a(S'w'
I5
tp5237
a(S'tr_ll'
I0
tp5238
a(S'w'
I8
tp5239
a(S'ch_no'
I1
tp5240
a(S'ch_tr'
I1
tp5241
a(S'ch_p2'
I1
tp5242
a(S'ch_p1'
I1
tp5243
a(S'w'
I1
tp5244
a(S'w'
I1
tp5245
a(S'no_ll'
I1
tp5246
a(S'w'
I709
tp5247
a(S'p1_tl'
I69
tp5248
a(S'w'
I10
tp5249
a(S'p2_tl'
I73
tp5250
a(S'w'
I5
tp5251
a(S'tr_ll'
I0
tp5252
a(S'w'
I9
tp5253
a(S'w'
I709
tp5254
a(S'p1_tl'
I70
tp5255
a(S'w'
I10
tp5256
a(S'p2_tl'
I74
tp5257
a(S'w'
I6
tp5258
a(S'tr_ll'
I0
tp5259
a(S'w'
I9
tp5260
a(S'w'
I709
tp5261
a(S'p1_tl'
I71
tp5262
a(S'w'
I10
tp5263
a(S'p2_tl'
I75
tp5264
a(S'w'
I5
tp5265
a(S'tr_ll'
I0
tp5266
a(S'w'
I9
tp5267
a(S'w'
I710
tp5268
a(S'p1_tl'
I72
tp5269
a(S'w'
I10
tp5270
a(S'p2_tl'
I76
tp5271
a(S'w'
I5
tp5272
a(S'tr_ll'
I0
tp5273
a(S'w'
I9
tp5274
a(S'w'
I710
tp5275
a(S'p1_tl'
I73
tp5276
a(S'w'
I10
tp5277
a(S'p2_tl'
I77
tp5278
a(S'w'
I5
tp5279
a(S'tr_ll'
I0
tp5280
a(S'w'
I9
tp5281
a(S'w'
I710
tp5282
a(S'p1_tl'
I74
tp5283
a(S'w'
I10
tp5284
a(S'p2_tl'
I78
tp5285
a(S'w'
I5
tp5286
a(S'tr_ll'
I0
tp5287
a(S'w'
I9
tp5288
a(S'w'
I709
tp5289
a(S'p1_tl'
I75
tp5290
a(S'w'
I10
tp5291
a(S'p2_tl'
I79
tp5292
a(S'w'
I6
tp5293
a(S'tr_ll'
I0
tp5294
a(S'w'
I8
tp5295
a(S'w'
I710
tp5296
a(S'p1_tl'
I76
tp5297
a(S'w'
I10
tp5298
a(S'p2_tl'
I80
tp5299
a(S'w'
I5
tp5300
a(S'tr_ll'
I0
tp5301
a(S'w'
I9
tp5302
a(S'w'
I710
tp5303
a(S'p1_tl'
I77
tp5304
a(S'w'
I10
tp5305
a(S'p2_tl'
I81
tp5306
a(S'w'
I5
tp5307
a(S'tr_ll'
I0
tp5308
a(S'w'
I9
tp5309
a(S'w'
I710
tp5310
a(S'p1_tl'
I78
tp5311
a(S'w'
I10
tp5312
a(S'p2_tl'
I82
tp5313
a(S'w'
I5
tp5314
a(S'tr_ll'
I0
tp5315
a(S'w'
I9
tp5316
a(S'w'
I710
tp5317
a(S'p1_tl'
I79
tp5318
a(S'w'
I10
tp5319
a(S'p2_tl'
I83
tp5320
a(S'w'
I5
tp5321
a(S'tr_ll'
I0
tp5322
a(S'w'
I9
tp5323
a(S'w'
I709
tp5324
a(S'p1_tl'
I80
tp5325
a(S'w'
I10
tp5326
a(S'p2_tl'
I84
tp5327
a(S'w'
I6
tp5328
a(S'tr_ll'
I0
tp5329
a(S'w'
I9
tp5330
a(S'w'
I709
tp5331
a(S'p1_tl'
I81
tp5332
a(S'w'
I10
tp5333
a(S'p2_tl'
I85
tp5334
a(S'w'
I5
tp5335
a(S'tr_ll'
I0
tp5336
a(S'w'
I9
tp5337
a(S'w'
I710
tp5338
a(S'p1_tl'
I82
tp5339
a(S'w'
I10
tp5340
a(S'p2_tl'
I86
tp5341
a(S'w'
I5
tp5342
a(S'tr_ll'
I0
tp5343
a(S'w'
I9
tp5344
a(S'w'
I710
tp5345
a(S'p1_tl'
I83
tp5346
a(S'w'
I10
tp5347
a(S'p2_tl'
I87
tp5348
a(S'w'
I5
tp5349
a(S'tr_ll'
I0
tp5350
a(S'w'
I9
tp5351
a(S'w'
I710
tp5352
a(S'p1_tl'
I84
tp5353
a(S'w'
I10
tp5354
a(S'p2_tl'
I88
tp5355
a(S'w'
I5
tp5356
a(S'tr_ll'
I0
tp5357
a(S'w'
I9
tp5358
a(S'w'
I709
tp5359
a(S'p1_tl'
I85
tp5360
a(S'w'
I10
tp5361
a(S'p2_tl'
I89
tp5362
a(S'w'
I6
tp5363
a(S'tr_ll'
I0
tp5364
a(S'w'
I9
tp5365
a(S'w'
I709
tp5366
a(S'p1_tl'
I86
tp5367
a(S'w'
I10
tp5368
a(S'p2_tl'
I90
tp5369
a(S'w'
I5
tp5370
a(S'tr_ll'
I0
tp5371
a(S'w'
I9
tp5372
a(S'w'
I710
tp5373
a(S'p1_tl'
I87
tp5374
a(S'w'
I10
tp5375
a(S'p2_tl'
I91
tp5376
a(S'w'
I5
tp5377
a(S'tr_ll'
I0
tp5378
a(S'w'
I9
tp5379
a(S'w'
I710
tp5380
a(S'p1_tl'
I88
tp5381
a(S'w'
I10
tp5382
a(S'p2_tl'
I92
tp5383
a(S'w'
I5
tp5384
a(S'tr_ll'
I0
tp5385
a(S'w'
I9
tp5386
a(S'w'
I710
tp5387
a(S'p1_tl'
I89
tp5388
a(S'w'
I10
tp5389
a(S'p2_tl'
I93
tp5390
a(S'w'
I5
tp5391
a(S'tr_ll'
I0
tp5392
a(S'w'
I9
tp5393
a(S'w'
I709
tp5394
a(S'p1_tl'
I90
tp5395
a(S'w'
I10
tp5396
a(S'p2_tl'
I94
tp5397
a(S'w'
I6
tp5398
a(S'tr_ll'
I0
tp5399
a(S'w'
I9
tp5400
a(S'w'
I709
tp5401
a(S'p1_tl'
I91
tp5402
a(S'w'
I10
tp5403
a(S'p2_tl'
I95
tp5404
a(S'w'
I5
tp5405
a(S'tr_ll'
I0
tp5406
a(S'w'
I9
tp5407
a(S'w'
I710
tp5408
a(S'p1_tl'
I92
tp5409
a(S'w'
I10
tp5410
a(S'p2_tl'
I96
tp5411
a(S'w'
I5
tp5412
a(S'tr_ll'
I0
tp5413
a(S'w'
I9
tp5414
a(S'w'
I710
tp5415
a(S'p1_tl'
I93
tp5416
a(S'w'
I10
tp5417
a(S'p2_tl'
I97
tp5418
a(S'w'
I5
tp5419
a(S'tr_ll'
I0
tp5420
a(S'w'
I9
tp5421
a(S'w'
I710
tp5422
a(S'p1_tl'
I94
tp5423
a(S'w'
I10
tp5424
a(S'p2_tl'
I98
tp5425
a(S'w'
I5
tp5426
a(S'tr_ll'
I0
tp5427
a(S'w'
I9
tp5428
a(S'w'
I709
tp5429
a(S'p1_tl'
I95
tp5430
a(S'w'
I10
tp5431
a(S'p2_tl'
I99
tp5432
a(S'w'
I6
tp5433
a(S'tr_ll'
I0
tp5434
a(S'w'
I9
tp5435
a(S'w'
I709
tp5436
a(S'p1_tl'
I96
tp5437
a(S'w'
I10
tp5438
a(S'p2_tl'
I100
tp5439
a(S'w'
I5
tp5440
a(S'tr_ll'
I0
tp5441
a(S'w'
I9
tp5442
a(S'w'
I710
tp5443
a(S'p1_tl'
I97
tp5444
a(S'w'
I10
tp5445
a(S'p2_tl'
I101
tp5446
a(S'w'
I5
tp5447
a(S'tr_ll'
I0
tp5448
a(S'w'
I9
tp5449
a(S'w'
I731
tp5450
a(S'tr_ll'
I0
tp5451
a(S'w'
I13
tp5452
a(S'ch_no'
I0
tp5453
a(S'ch_tr'
I1
tp5454
a(S'ch_p2'
I1
tp5455
a(S'ch_p1'
I1
tp5456
a(S'w'
I700
tp5457
a(S'p1_tl'
I98
tp5458
a(S'w'
I10
tp5459
a(S'p2_tl'
I102
tp5460
a(S'w'
I5
tp5461
a(S'tr_ll'
I0
tp5462
a(S'w'
I8
tp5463
a(S'ch_no'
I1
tp5464
a(S'ch_tr'
I1
tp5465
a(S'ch_p2'
I1
tp5466
a(S'ch_p1'
I1
tp5467
a(S'w'
I1
tp5468
a(S'no_ll'
I1
tp5469
a(S'w'
I709
tp5470
a(S'p1_tl'
I99
tp5471
a(S'w'
I10
tp5472
a(S'p2_tl'
I103
tp5473
a(S'w'
I6
tp5474
a(S'tr_ll'
I0
tp5475
a(S'w'
I9
tp5476
a(S'w'
I709
tp5477
a(S'p1_tl'
I100
tp5478
a(S'w'
I10
tp5479
a(S'p2_tl'
I104
tp5480
a(S'w'
I5
tp5481
a(S'tr_ll'
I0
tp5482
a(S'w'
I9
tp5483
a(S'w'
I710
tp5484
a(S'p1_tl'
I101
tp5485
a(S'w'
I10
tp5486
a(S'p2_tl'
I105
tp5487
a(S'w'
I5
tp5488
a(S'tr_ll'
I0
tp5489
a(S'w'
I9
tp5490
a(S'w'
I710
tp5491
a(S'p1_tl'
I102
tp5492
a(S'w'
I10
tp5493
a(S'p2_tl'
I106
tp5494
a(S'w'
I5
tp5495
a(S'tr_ll'
I0
tp5496
a(S'w'
I9
tp5497
a(S'w'
I710
tp5498
a(S'p1_tl'
I103
tp5499
a(S'w'
I10
tp5500
a(S'p2_tl'
I107
tp5501
a(S'w'
I5
tp5502
a(S'tr_ll'
I0
tp5503
a(S'w'
I9
tp5504
a(S'w'
I709
tp5505
a(S'p1_tl'
I104
tp5506
a(S'w'
I11
tp5507
a(S'p2_tl'
I108
tp5508
a(S'w'
I5
tp5509
a(S'tr_ll'
I0
tp5510
a(S'w'
I9
tp5511
a(S'w'
I709
tp5512
a(S'p1_tl'
I105
tp5513
a(S'w'
I10
tp5514
a(S'p2_tl'
I109
tp5515
a(S'w'
I5
tp5516
a(S'tr_ll'
I0
tp5517
a(S'w'
I9
tp5518
a(S'w'
I710
tp5519
a(S'p1_tl'
I106
tp5520
a(S'w'
I10
tp5521
a(S'p2_tl'
I110
tp5522
a(S'w'
I5
tp5523
a(S'tr_ll'
I0
tp5524
a(S'w'
I9
tp5525
a(S'w'
I710
tp5526
a(S'p1_tl'
I107
tp5527
a(S'w'
I10
tp5528
a(S'p2_tl'
I111
tp5529
a(S'w'
I5
tp5530
a(S'tr_ll'
I0
tp5531
a(S'w'
I9
tp5532
a(S'w'
I710
tp5533
a(S'p1_tl'
I108
tp5534
a(S'w'
I10
tp5535
a(S'p2_tl'
I112
tp5536
a(S'w'
I5
tp5537
a(S'tr_ll'
I0
tp5538
a(S'w'
I9
tp5539
a(S'w'
I709
tp5540
a(S'p1_tl'
I109
tp5541
a(S'w'
I10
tp5542
a(S'p2_tl'
I113
tp5543
a(S'w'
I6
tp5544
a(S'tr_ll'
I0
tp5545
a(S'w'
I9
tp5546
a(S'w'
I709
tp5547
a(S'p1_tl'
I110
tp5548
a(S'w'
I10
tp5549
a(S'p2_tl'
I114
tp5550
a(S'w'
I5
tp5551
a(S'tr_ll'
I0
tp5552
a(S'w'
I9
tp5553
a(S'w'
I710
tp5554
a(S'p1_tl'
I111
tp5555
a(S'w'
I10
tp5556
a(S'p2_tl'
I115
tp5557
a(S'w'
I5
tp5558
a(S'tr_ll'
I0
tp5559
a(S'w'
I9
tp5560
a(S'w'
I710
tp5561
a(S'p1_tl'
I112
tp5562
a(S'w'
I10
tp5563
a(S'p2_tl'
I116
tp5564
a(S'w'
I5
tp5565
a(S'tr_ll'
I0
tp5566
a(S'w'
I9
tp5567
a(S'w'
I710
tp5568
a(S'p1_tl'
I113
tp5569
a(S'w'
I10
tp5570
a(S'p2_tl'
I117
tp5571
a(S'w'
I5
tp5572
a(S'tr_ll'
I0
tp5573
a(S'w'
I9
tp5574
a(S'w'
I709
tp5575
a(S'p1_tl'
I114
tp5576
a(S'w'
I10
tp5577
a(S'p2_tl'
I118
tp5578
a(S'w'
I6
tp5579
a(S'tr_ll'
I0
tp5580
a(S'w'
I9
tp5581
a(S'w'
I709
tp5582
a(S'p1_tl'
I115
tp5583
a(S'w'
I10
tp5584
a(S'p2_tl'
I119
tp5585
a(S'w'
I5
tp5586
a(S'tr_ll'
I0
tp5587
a(S'w'
I9
tp5588
a(S'w'
I710
tp5589
a(S'p1_tl'
I116
tp5590
a(S'w'
I10
tp5591
a(S'p2_tl'
I120
tp5592
a(S'w'
I5
tp5593
a(S'tr_ll'
I0
tp5594
a(S'w'
I9
tp5595
a(S'w'
I710
tp5596
a(S'p1_tl'
I117
tp5597
a(S'w'
I10
tp5598
a(S'p2_tl'
I121
tp5599
a(S'w'
I5
tp5600
a(S'tr_ll'
I0
tp5601
a(S'w'
I9
tp5602
a(S'w'
I710
tp5603
a(S'p1_tl'
I118
tp5604
a(S'w'
I10
tp5605
a(S'p2_tl'
I122
tp5606
a(S'w'
I5
tp5607
a(S'tr_ll'
I0
tp5608
a(S'w'
I9
tp5609
a(S'w'
I709
tp5610
a(S'p1_tl'
I119
tp5611
a(S'w'
I11
tp5612
a(S'p2_tl'
I123
tp5613
a(S'w'
I5
tp5614
a(S'tr_ll'
I0
tp5615
a(S'w'
I9
tp5616
a(S'w'
I709
tp5617
a(S'p1_tl'
I120
tp5618
a(S'w'
I10
tp5619
a(S'p2_tl'
I124
tp5620
a(S'w'
I5
tp5621
a(S'tr_ll'
I0
tp5622
a(S'w'
I9
tp5623
a(S'w'
I710
tp5624
a(S'p1_tl'
I121
tp5625
a(S'w'
I10
tp5626
a(S'p2_tl'
I125
tp5627
a(S'w'
I5
tp5628
a(S'tr_ll'
I0
tp5629
a(S'w'
I9
tp5630
a(S'w'
I710
tp5631
a(S'p1_tl'
I122
tp5632
a(S'w'
I10
tp5633
a(S'p2_tl'
I126
tp5634
a(S'w'
I5
tp5635
a(S'tr_ll'
I0
tp5636
a(S'w'
I9
tp5637
a(S'w'
I710
tp5638
a(S'p1_tl'
I123
tp5639
a(S'w'
I10
tp5640
a(S'p2_tl'
I127
tp5641
a(S'w'
I5
tp5642
a(S'tr_ll'
I0
tp5643
a(S'w'
I9
tp5644
a(S'w'
I709
tp5645
a(S'p1_tl'
I124
tp5646
a(S'w'
I11
tp5647
a(S'p2_tl'
I128
tp5648
a(S'w'
I5
tp5649
a(S'tr_ll'
I0
tp5650
a(S'w'
I9
tp5651
a(S'w'
I709
tp5652
a(S'p1_tl'
I125
tp5653
a(S'w'
I10
tp5654
a(S'p2_tl'
I129
tp5655
a(S'w'
I5
tp5656
a(S'tr_ll'
I0
tp5657
a(S'w'
I9
tp5658
a(S'w'
I710
tp5659
a(S'p1_tl'
I126
tp5660
a(S'w'
I10
tp5661
a(S'p2_tl'
I130
tp5662
a(S'w'
I5
tp5663
a(S'tr_ll'
I0
tp5664
a(S'w'
I9
tp5665
a(S'w'
I710
tp5666
a(S'p1_tl'
I127
tp5667
a(S'w'
I10
tp5668
a(S'p2_tl'
I131
tp5669
a(S'w'
I5
tp5670
a(S'tr_ll'
I0
tp5671
a(S'w'
I9
tp5672
a(S'w'
I731
tp5673
a(S'tr_ll'
I0
tp5674
a(S'w'
I13
tp5675
a(S'ch_no'
I0
tp5676
a(S'ch_tr'
I1
tp5677
a(S'ch_p2'
I1
tp5678
a(S'ch_p1'
I1
tp5679
a(S'w'
I699
tp5680
a(S'p1_tl'
I128
tp5681
a(S'w'
I10
tp5682
a(S'p2_tl'
I132
tp5683
a(S'w'
I6
tp5684
a(S'tr_ll'
I0
tp5685
a(S'w'
I7
tp5686
a(S'ch_no'
I1
tp5687
a(S'ch_tr'
I1
tp5688
a(S'ch_p2'
I1
tp5689
a(S'ch_p1'
I1
tp5690
a(S'w'
I2
tp5691
a(S'no_ll'
I1
tp5692
a(S'w'
I709
tp5693
a(S'p1_tl'
I129
tp5694
a(S'w'
I10
tp5695
a(S'p2_tl'
I133
tp5696
a(S'w'
I5
tp5697
a(S'tr_ll'
I0
tp5698
a(S'w'
I9
tp5699
a(S'w'
I710
tp5700
a(S'p1_tl'
I130
tp5701
a(S'w'
I10
tp5702
a(S'p2_tl'
I134
tp5703
a(S'w'
I5
tp5704
a(S'tr_ll'
I0
tp5705
a(S'w'
I9
tp5706
a(S'w'
I710
tp5707
a(S'p1_tl'
I131
tp5708
a(S'w'
I10
tp5709
a(S'p2_tl'
I135
tp5710
a(S'w'
I5
tp5711
a(S'tr_ll'
I0
tp5712
a(S'w'
I9
tp5713
a(S'w'
I710
tp5714
a(S'p1_tl'
I132
tp5715
a(S'w'
I10
tp5716
a(S'p2_tl'
I136
tp5717
a(S'w'
I5
tp5718
a(S'tr_ll'
I0
tp5719
a(S'w'
I9
tp5720
a(S'w'
I709
tp5721
a(S'p1_tl'
I133
tp5722
a(S'w'
I10
tp5723
a(S'p2_tl'
I137
tp5724
a(S'w'
I6
tp5725
a(S'tr_ll'
I0
tp5726
a(S'w'
I9
tp5727
a(S'w'
I709
tp5728
a(S'p1_tl'
I134
tp5729
a(S'w'
I10
tp5730
a(S'p2_tl'
I138
tp5731
a(S'w'
I5
tp5732
a(S'tr_ll'
I0
tp5733
a(S'w'
I9
tp5734
a(S'w'
I710
tp5735
a(S'p1_tl'
I135
tp5736
a(S'w'
I10
tp5737
a(S'p2_tl'
I139
tp5738
a(S'w'
I5
tp5739
a(S'tr_ll'
I0
tp5740
a(S'w'
I9
tp5741
a(S'w'
I710
tp5742
a(S'p1_tl'
I136
tp5743
a(S'w'
I10
tp5744
a(S'p2_tl'
I140
tp5745
a(S'w'
I5
tp5746
a(S'tr_ll'
I0
tp5747
a(S'w'
I9
tp5748
a(S'w'
I710
tp5749
a(S'p1_tl'
I137
tp5750
a(S'w'
I10
tp5751
a(S'p2_tl'
I141
tp5752
a(S'w'
I5
tp5753
a(S'tr_ll'
I0
tp5754
a(S'w'
I9
tp5755
a(S'w'
I709
tp5756
a(S'p1_tl'
I138
tp5757
a(S'w'
I11
tp5758
a(S'p2_tl'
I142
tp5759
a(S'w'
I5
tp5760
a(S'tr_ll'
I0
tp5761
a(S'w'
I9
tp5762
a(S'w'
I709
tp5763
a(S'p1_tl'
I139
tp5764
a(S'w'
I10
tp5765
a(S'p2_tl'
I143
tp5766
a(S'w'
I6
tp5767
a(S'tr_ll'
I0
tp5768
a(S'w'
I8
tp5769
a(S'w'
I710
tp5770
a(S'p1_tl'
I140
tp5771
a(S'w'
I10
tp5772
a(S'p2_tl'
I144
tp5773
a(S'w'
I5
tp5774
a(S'tr_ll'
I0
tp5775
a(S'w'
I9
tp5776
a(S'w'
I710
tp5777
a(S'p1_tl'
I141
tp5778
a(S'w'
I10
tp5779
a(S'p2_tl'
I145
tp5780
a(S'w'
I5
tp5781
a(S'tr_ll'
I0
tp5782
a(S'w'
I9
tp5783
a(S'w'
I710
tp5784
a(S'p1_tl'
I142
tp5785
a(S'w'
I10
tp5786
a(S'p2_tl'
I146
tp5787
a(S'w'
I5
tp5788
a(S'tr_ll'
I0
tp5789
a(S'w'
I9
tp5790
a(S'w'
I709
tp5791
a(S'p1_tl'
I143
tp5792
a(S'w'
I11
tp5793
a(S'p2_tl'
I147
tp5794
a(S'w'
I5
tp5795
a(S'tr_ll'
I0
tp5796
a(S'w'
I9
tp5797
a(S'w'
I709
tp5798
a(S'p1_tl'
I144
tp5799
a(S'w'
I10
tp5800
a(S'p2_tl'
I148
tp5801
a(S'w'
I6
tp5802
a(S'tr_ll'
I0
tp5803
a(S'w'
I8
tp5804
a(S'w'
I710
tp5805
a(S'p1_tl'
I145
tp5806
a(S'w'
I10
tp5807
a(S'p2_tl'
I149
tp5808
a(S'w'
I5
tp5809
a(S'tr_ll'
I0
tp5810
a(S'w'
I9
tp5811
a(S'w'
I710
tp5812
a(S'p1_tl'
I146
tp5813
a(S'w'
I10
tp5814
a(S'p2_tl'
I150
tp5815
a(S'w'
I5
tp5816
a(S'tr_ll'
I0
tp5817
a(S'w'
I9
tp5818
a(S'w'
I710
tp5819
a(S'p1_tl'
I147
tp5820
a(S'w'
I10
tp5821
a(S'p2_tl'
I151
tp5822
a(S'w'
I5
tp5823
a(S'tr_ll'
I0
tp5824
a(S'w'
I9
tp5825
a(S'w'
I710
tp5826
a(S'p1_tl'
I148
tp5827
a(S'w'
I10
tp5828
a(S'p2_tl'
I152
tp5829
a(S'w'
I5
tp5830
a(S'tr_ll'
I0
tp5831
a(S'w'
I9
tp5832
a(S'w'
I709
tp5833
a(S'p1_tl'
I149
tp5834
a(S'w'
I10
tp5835
a(S'p2_tl'
I153
tp5836
a(S'w'
I6
tp5837
a(S'tr_ll'
I0
tp5838
a(S'w'
I8
tp5839
a(S'w'
I710
tp5840
a(S'p1_tl'
I150
tp5841
a(S'w'
I10
tp5842
a(S'p2_tl'
I154
tp5843
a(S'w'
I5
tp5844
a(S'tr_ll'
I0
tp5845
a(S'w'
I9
tp5846
a(S'w'
I710
tp5847
a(S'p1_tl'
I151
tp5848
a(S'w'
I10
tp5849
a(S'p2_tl'
I155
tp5850
a(S'w'
I5
tp5851
a(S'tr_ll'
I0
tp5852
a(S'w'
I9
tp5853
a(S'w'
I710
tp5854
a(S'p1_tl'
I152
tp5855
a(S'w'
I10
tp5856
a(S'p2_tl'
I156
tp5857
a(S'w'
I5
tp5858
a(S'tr_ll'
I0
tp5859
a(S'w'
I9
tp5860
a(S'w'
I709
tp5861
a(S'p1_tl'
I153
tp5862
a(S'w'
I11
tp5863
a(S'p2_tl'
I157
tp5864
a(S'w'
I5
tp5865
a(S'tr_ll'
I0
tp5866
a(S'w'
I9
tp5867
a(S'w'
I709
tp5868
a(S'p1_tl'
I154
tp5869
a(S'w'
I10
tp5870
a(S'p2_tl'
I158
tp5871
a(S'w'
I5
tp5872
a(S'tr_ll'
I0
tp5873
a(S'w'
I9
tp5874
a(S'w'
I710
tp5875
a(S'p1_tl'
I155
tp5876
a(S'w'
I10
tp5877
a(S'p2_tl'
I159
tp5878
a(S'w'
I5
tp5879
a(S'tr_ll'
I0
tp5880
a(S'w'
I9
tp5881
a(S'w'
I710
tp5882
a(S'p1_tl'
I156
tp5883
a(S'w'
I10
tp5884
a(S'p2_tl'
I160
tp5885
a(S'w'
I5
tp5886
a(S'tr_ll'
I0
tp5887
a(S'w'
I9
tp5888
a(S'w'
I710
tp5889
a(S'p1_tl'
I157
tp5890
a(S'w'
I10
tp5891
a(S'p2_tl'
I161
tp5892
a(S'w'
I5
tp5893
a(S'tr_ll'
I0
tp5894
a(S'w'
I9
tp5895
a(S'w'
I731
tp5896
a(S'tr_ll'
I0
tp5897
a(S'w'
I13
tp5898
a(S'ch_no'
I0
tp5899
a(S'ch_tr'
I1
tp5900
a(S'ch_p2'
I1
tp5901
a(S'ch_p1'
I1
tp5902
a(S'w'
I699
tp5903
a(S'p1_tl'
I158
tp5904
a(S'w'
I10
tp5905
a(S'p2_tl'
I162
tp5906
a(S'w'
I5
tp5907
a(S'tr_ll'
I0
tp5908
a(S'w'
I8
tp5909
a(S'ch_no'
I1
tp5910
a(S'ch_tr'
I1
tp5911
a(S'ch_p2'
I1
tp5912
a(S'ch_p1'
I1
tp5913
a(S'w'
I1
tp5914
a(S'w'
I1
tp5915
a(S'no_ll'
I1
tp5916
a(S'w'
I709
tp5917
a(S'p1_tl'
I159
tp5918
a(S'w'
I10
tp5919
a(S'p2_tl'
I163
tp5920
a(S'w'
I5
tp5921
a(S'tr_ll'
I0
tp5922
a(S'w'
I9
tp5923
a(S'w'
I710
tp5924
a(S'p1_tl'
I160
tp5925
a(S'w'
I10
tp5926
a(S'p2_tl'
I164
tp5927
a(S'w'
I5
tp5928
a(S'tr_ll'
I0
tp5929
a(S'w'
I9
tp5930
a(S'w'
I710
tp5931
a(S'p1_tl'
I161
tp5932
a(S'w'
I10
tp5933
a(S'p2_tl'
I165
tp5934
a(S'w'
I5
tp5935
a(S'tr_ll'
I0
tp5936
a(S'w'
I9
tp5937
a(S'w'
I709
tp5938
a(S'p1_tl'
I162
tp5939
a(S'w'
I11
tp5940
a(S'p2_tl'
I166
tp5941
a(S'w'
I5
tp5942
a(S'tr_ll'
I0
tp5943
a(S'w'
I9
tp5944
a(S'w'
I709
tp5945
a(S'p1_tl'
I163
tp5946
a(S'w'
I10
tp5947
a(S'p2_tl'
I167
tp5948
a(S'w'
I5
tp5949
a(S'tr_ll'
I0
tp5950
a(S'w'
I9
tp5951
a(S'w'
I710
tp5952
a(S'p1_tl'
I164
tp5953
a(S'w'
I10
tp5954
a(S'p2_tl'
I168
tp5955
a(S'w'
I5
tp5956
a(S'tr_ll'
I0
tp5957
a(S'w'
I9
tp5958
a(S'w'
I710
tp5959
a(S'p1_tl'
I165
tp5960
a(S'w'
I10
tp5961
a(S'p2_tl'
I169
tp5962
a(S'w'
I5
tp5963
a(S'tr_ll'
I0
tp5964
a(S'w'
I9
tp5965
a(S'w'
I710
tp5966
a(S'p1_tl'
I166
tp5967
a(S'w'
I10
tp5968
a(S'p2_tl'
I170
tp5969
a(S'w'
I5
tp5970
a(S'tr_ll'
I0
tp5971
a(S'w'
I9
tp5972
a(S'w'
I710
tp5973
a(S'p1_tl'
I167
tp5974
a(S'w'
I10
tp5975
a(S'p2_tl'
I171
tp5976
a(S'w'
I5
tp5977
a(S'tr_ll'
I0
tp5978
a(S'w'
I9
tp5979
a(S'w'
I709
tp5980
a(S'p1_tl'
I168
tp5981
a(S'w'
I10
tp5982
a(S'p2_tl'
I172
tp5983
a(S'w'
I6
tp5984
a(S'tr_ll'
I0
tp5985
a(S'w'
I8
tp5986
a(S'w'
I710
tp5987
a(S'p1_tl'
I169
tp5988
a(S'w'
I10
tp5989
a(S'p2_tl'
I173
tp5990
a(S'w'
I5
tp5991
a(S'tr_ll'
I0
tp5992
a(S'w'
I9
tp5993
a(S'w'
I710
tp5994
a(S'p1_tl'
I170
tp5995
a(S'w'
I10
tp5996
a(S'p2_tl'
I174
tp5997
a(S'w'
I5
tp5998
a(S'tr_ll'
I0
tp5999
a(S'w'
I9
tp6000
a(S'w'
I710
tp6001
a(S'p1_tl'
I171
tp6002
a(S'w'
I10
tp6003
a(S'p2_tl'
I175
tp6004
a(S'w'
I5
tp6005
a(S'tr_ll'
I0
tp6006
a(S'w'
I9
tp6007
a(S'w'
I710
tp6008
a(S'p1_tl'
I172
tp6009
a(S'w'
I10
tp6010
a(S'p2_tl'
I176
tp6011
a(S'w'
I5
tp6012
a(S'tr_ll'
I0
tp6013
a(S'w'
I9
tp6014
a(S'w'
I709
tp6015
a(S'p1_tl'
I173
tp6016
a(S'w'
I10
tp6017
a(S'p2_tl'
I177
tp6018
a(S'w'
I6
tp6019
a(S'tr_ll'
I0
tp6020
a(S'w'
I8
tp6021
a(S'w'
I710
tp6022
a(S'p1_tl'
I174
tp6023
a(S'w'
I10
tp6024
a(S'p2_tl'
I178
tp6025
a(S'w'
I5
tp6026
a(S'tr_ll'
I0
tp6027
a(S'w'
I9
tp6028
a(S'w'
I710
tp6029
a(S'p1_tl'
I175
tp6030
a(S'w'
I10
tp6031
a(S'p2_tl'
I179
tp6032
a(S'w'
I5
tp6033
a(S'tr_ll'
I0
tp6034
a(S'w'
I9
tp6035
a(S'w'
I710
tp6036
a(S'p1_tl'
I176
tp6037
a(S'w'
I10
tp6038
a(S'p2_tl'
I180
tp6039
a(S'w'
I5
tp6040
a(S'tr_ll'
I0
tp6041
a(S'w'
I9
tp6042
a(S'w'
I709
tp6043
a(S'p1_tl'
I177
tp6044
a(S'w'
I11
tp6045
a(S'p2_tl'
I181
tp6046
a(S'w'
I5
tp6047
a(S'tr_ll'
I0
tp6048
a(S'w'
I9
tp6049
a(S'w'
I709
tp6050
a(S'p1_tl'
I178
tp6051
a(S'w'
I10
tp6052
a(S'p2_tl'
I182
tp6053
a(S'w'
I5
tp6054
a(S'tr_ll'
I0
tp6055
a(S'w'
I9
tp6056
a(S'w'
I710
tp6057
a(S'p1_tl'
I179
tp6058
a(S'w'
I10
tp6059
a(S'p2_tl'
I183
tp6060
a(S'w'
I5
tp6061
a(S'tr_ll'
I0
tp6062
a(S'w'
I9
tp6063
a(S'w'
I710
tp6064
a(S'p1_tl'
I180
tp6065
a(S'w'
I10
tp6066
a(S'p2_tl'
I184
tp6067
a(S'w'
I5
tp6068
a(S'tr_ll'
I0
tp6069
a(S'w'
I9
tp6070
a(S'w'
I710
tp6071
a(S'p1_tl'
I181
tp6072
a(S'w'
I10
tp6073
a(S'p2_tl'
I185
tp6074
a(S'w'
I5
tp6075
a(S'tr_ll'
I0
tp6076
a(S'w'
I9
tp6077
a(S'w'
I710
tp6078
a(S'p1_tl'
I182
tp6079
a(S'w'
I10
tp6080
a(S'p2_tl'
I186
tp6081
a(S'w'
I5
tp6082
a(S'tr_ll'
I0
tp6083
a(S'w'
I9
tp6084
a(S'w'
I709
tp6085
a(S'p1_tl'
I183
tp6086
a(S'w'
I10
tp6087
a(S'p2_tl'
I187
tp6088
a(S'w'
I6
tp6089
a(S'tr_ll'
I0
tp6090
a(S'w'
I9
tp6091
a(S'w'
I709
tp6092
a(S'p1_tl'
I184
tp6093
a(S'w'
I10
tp6094
a(S'p2_tl'
I188
tp6095
a(S'w'
I5
tp6096
a(S'tr_ll'
I0
tp6097
a(S'w'
I9
tp6098
a(S'w'
I710
tp6099
a(S'p1_tl'
I185
tp6100
a(S'w'
I10
tp6101
a(S'p2_tl'
I189
tp6102
a(S'w'
I5
tp6103
a(S'tr_ll'
I0
tp6104
a(S'w'
I9
tp6105
a(S'w'
I710
tp6106
a(S'p1_tl'
I186
tp6107
a(S'w'
I10
tp6108
a(S'p2_tl'
I190
tp6109
a(S'w'
I5
tp6110
a(S'tr_ll'
I0
tp6111
a(S'w'
I9
tp6112
a(S'w'
I710
tp6113
a(S'p1_tl'
I187
tp6114
a(S'w'
I10
tp6115
a(S'p2_tl'
I191
tp6116
a(S'w'
I5
tp6117
a(S'tr_ll'
I0
tp6118
a(S'w'
I9
tp6119
a(S'w'
I730
tp6120
a(S'tr_ll'
I0
tp6121
a(S'w'
I13
tp6122
a(S'ch_no'
I0
tp6123
a(S'ch_tr'
I1
tp6124
a(S'ch_p2'
I1
tp6125
a(S'ch_p1'
I1
tp6126
a(S'w'
I700
tp6127
a(S'p1_tl'
I188
tp6128
a(S'w'
I10
tp6129
a(S'p2_tl'
I192
tp6130
a(S'w'
I5
tp6131
a(S'tr_ll'
I0
tp6132
a(S'w'
I8
tp6133
a(S'ch_no'
I1
tp6134
a(S'ch_tr'
I1
tp6135
a(S'ch_p2'
I1
tp6136
a(S'ch_p1'
I1
tp6137
a(S'w'
I1
tp6138
a(S'w'
I1
tp6139
a(S'no_ll'
I1
tp6140
a(S'w'
I709
tp6141
a(S'p1_tl'
I189
tp6142
a(S'w'
I10
tp6143
a(S'p2_tl'
I193
tp6144
a(S'w'
I5
tp6145
a(S'tr_ll'
I0
tp6146
a(S'w'
I9
tp6147
a(S'w'
I710
tp6148
a(S'p1_tl'
I190
tp6149
a(S'w'
I10
tp6150
a(S'p2_tl'
I194
tp6151
a(S'w'
I5
tp6152
a(S'tr_ll'
I0
tp6153
a(S'w'
I9
tp6154
a(S'w'
I710
tp6155
a(S'p1_tl'
I191
tp6156
a(S'w'
I10
tp6157
a(S'p2_tl'
I195
tp6158
a(S'w'
I5
tp6159
a(S'tr_ll'
I0
tp6160
a(S'w'
I9
tp6161
a(S'w'
I709
tp6162
a(S'p1_tl'
I192
tp6163
a(S'w'
I10
tp6164
a(S'p2_tl'
I196
tp6165
a(S'w'
I6
tp6166
a(S'tr_ll'
I0
tp6167
a(S'w'
I8
tp6168
a(S'w'
I710
tp6169
a(S'p1_tl'
I193
tp6170
a(S'w'
I10
tp6171
a(S'p2_tl'
I197
tp6172
a(S'w'
I5
tp6173
a(S'tr_ll'
I0
tp6174
a(S'w'
I9
tp6175
a(S'w'
I710
tp6176
a(S'p1_tl'
I194
tp6177
a(S'w'
I10
tp6178
a(S'p2_tl'
I198
tp6179
a(S'w'
I5
tp6180
a(S'tr_ll'
I0
tp6181
a(S'w'
I9
tp6182
a(S'w'
I710
tp6183
a(S'p1_tl'
I195
tp6184
a(S'w'
I10
tp6185
a(S'p2_tl'
I199
tp6186
a(S'w'
I5
tp6187
a(S'tr_ll'
I0
tp6188
a(S'w'
I9
tp6189
a(S'w'
I710
tp6190
a(S'p1_tl'
I196
tp6191
a(S'w'
I10
tp6192
a(S'p2_tl'
I200
tp6193
a(S'w'
I5
tp6194
a(S'tr_ll'
I0
tp6195
a(S'w'
I9
tp6196
a(S'w'
I709
tp6197
a(S'p1_tl'
I197
tp6198
a(S'w'
I10
tp6199
a(S'p2_tl'
I201
tp6200
a(S'w'
I6
tp6201
a(S'tr_ll'
I0
tp6202
a(S'w'
I8
tp6203
a(S'w'
I710
tp6204
a(S'p1_tl'
I198
tp6205
a(S'w'
I10
tp6206
a(S'p2_tl'
I202
tp6207
a(S'w'
I5
tp6208
a(S'tr_ll'
I0
tp6209
a(S'w'
I9
tp6210
a(S'w'
I710
tp6211
a(S'p1_tl'
I199
tp6212
a(S'w'
I10
tp6213
a(S'p2_tl'
I203
tp6214
a(S'w'
I5
tp6215
a(S'tr_ll'
I0
tp6216
a(S'w'
I9
tp6217
a(S'w'
I710
tp6218
a(S'p1_tl'
I200
tp6219
a(S'w'
I10
tp6220
a(S'p2_tl'
I204
tp6221
a(S'w'
I5
tp6222
a(S'tr_ll'
I0
tp6223
a(S'w'
I9
tp6224
a(S'w'
I710
tp6225
a(S'p1_tl'
I201
tp6226
a(S'w'
I10
tp6227
a(S'p2_tl'
I205
tp6228
a(S'w'
I5
tp6229
a(S'tr_ll'
I0
tp6230
a(S'w'
I9
tp6231
a(S'w'
I709
tp6232
a(S'p1_tl'
I202
tp6233
a(S'w'
I10
tp6234
a(S'p2_tl'
I206
tp6235
a(S'w'
I6
tp6236
a(S'tr_ll'
I0
tp6237
a(S'w'
I9
tp6238
a(S'w'
I709
tp6239
a(S'p1_tl'
I203
tp6240
a(S'w'
I10
tp6241
a(S'p2_tl'
I207
tp6242
a(S'w'
I5
tp6243
a(S'tr_ll'
I0
tp6244
a(S'w'
I9
tp6245
a(S'w'
I710
tp6246
a(S'p1_tl'
I204
tp6247
a(S'w'
I10
tp6248
a(S'p2_tl'
I208
tp6249
a(S'w'
I5
tp6250
a(S'tr_ll'
I0
tp6251
a(S'w'
I9
tp6252
a(S'w'
I710
tp6253
a(S'p1_tl'
I205
tp6254
a(S'w'
I10
tp6255
a(S'p2_tl'
I209
tp6256
a(S'w'
I5
tp6257
a(S'tr_ll'
I0
tp6258
a(S'w'
I9
tp6259
a(S'w'
I710
tp6260
a(S'p1_tl'
I206
tp6261
a(S'w'
I10
tp6262
a(S'p2_tl'
I210
tp6263
a(S'w'
I5
tp6264
a(S'tr_ll'
I0
tp6265
a(S'w'
I9
tp6266
a(S'w'
I709
tp6267
a(S'p1_tl'
I207
tp6268
a(S'w'
I10
tp6269
a(S'p2_tl'
I211
tp6270
a(S'w'
I6
tp6271
a(S'tr_ll'
I0
tp6272
a(S'w'
I8
tp6273
a(S'w'
I710
tp6274
a(S'p1_tl'
I208
tp6275
a(S'w'
I10
tp6276
a(S'p2_tl'
I212
tp6277
a(S'w'
I5
tp6278
a(S'tr_ll'
I0
tp6279
a(S'w'
I9
tp6280
a(S'w'
I710
tp6281
a(S'p1_tl'
I209
tp6282
a(S'w'
I10
tp6283
a(S'p2_tl'
I213
tp6284
a(S'w'
I5
tp6285
a(S'tr_ll'
I0
tp6286
a(S'w'
I9
tp6287
a(S'w'
I710
tp6288
a(S'p1_tl'
I210
tp6289
a(S'w'
I10
tp6290
a(S'p2_tl'
I214
tp6291
a(S'w'
I5
tp6292
a(S'tr_ll'
I0
tp6293
a(S'w'
I9
tp6294
a(S'w'
I710
tp6295
a(S'p1_tl'
I211
tp6296
a(S'w'
I10
tp6297
a(S'p2_tl'
I215
tp6298
a(S'w'
I5
tp6299
a(S'tr_ll'
I0
tp6300
a(S'w'
I9
tp6301
a(S'w'
I709
tp6302
a(S'p1_tl'
I212
tp6303
a(S'w'
I10
tp6304
a(S'p2_tl'
I216
tp6305
a(S'w'
I6
tp6306
a(S'tr_ll'
I0
tp6307
a(S'w'
I9
tp6308
a(S'w'
I709
tp6309
a(S'p1_tl'
I213
tp6310
a(S'w'
I10
tp6311
a(S'p2_tl'
I217
tp6312
a(S'w'
I5
tp6313
a(S'tr_ll'
I0
tp6314
a(S'w'
I9
tp6315
a(S'w'
I710
tp6316
a(S'p1_tl'
I214
tp6317
a(S'w'
I10
tp6318
a(S'p2_tl'
I218
tp6319
a(S'w'
I5
tp6320
a(S'tr_ll'
I0
tp6321
a(S'w'
I9
tp6322
a(S'w'
I710
tp6323
a(S'p1_tl'
I215
tp6324
a(S'w'
I10
tp6325
a(S'p2_tl'
I219
tp6326
a(S'w'
I5
tp6327
a(S'tr_ll'
I0
tp6328
a(S'w'
I9
tp6329
a(S'w'
I710
tp6330
a(S'p1_tl'
I216
tp6331
a(S'w'
I10
tp6332
a(S'p2_tl'
I220
tp6333
a(S'w'
I5
tp6334
a(S'tr_ll'
I0
tp6335
a(S'w'
I9
tp6336
a(S'w'
I709
tp6337
a(S'p1_tl'
I217
tp6338
a(S'w'
I10
tp6339
a(S'p2_tl'
I221
tp6340
a(S'w'
I6
tp6341
a(S'tr_ll'
I0
tp6342
a(S'w'
I9
tp6343
a(S'w'
I730
tp6344
a(S'tr_ll'
I0
tp6345
a(S'w'
I13
tp6346
a(S'ch_no'
I0
tp6347
a(S'ch_tr'
I1
tp6348
a(S'ch_p2'
I1
tp6349
a(S'ch_p1'
I1
tp6350
a(S'w'
I700
tp6351
a(S'p1_tl'
I218
tp6352
a(S'w'
I10
tp6353
a(S'p2_tl'
I222
tp6354
a(S'w'
I5
tp6355
a(S'tr_ll'
I0
tp6356
a(S'w'
I8
tp6357
a(S'ch_no'
I1
tp6358
a(S'ch_tr'
I1
tp6359
a(S'ch_p2'
I1
tp6360
a(S'ch_p1'
I1
tp6361
a(S'w'
I1
tp6362
a(S'w'
I1
tp6363
a(S'no_ll'
I1
tp6364
a(S'w'
I709
tp6365
a(S'p1_tl'
I219
tp6366
a(S'w'
I10
tp6367
a(S'p2_tl'
I223
tp6368
a(S'w'
I5
tp6369
a(S'tr_ll'
I0
tp6370
a(S'w'
I9
tp6371
a(S'w'
I710
tp6372
a(S'p1_tl'
I220
tp6373
a(S'w'
I10
tp6374
a(S'p2_tl'
I224
tp6375
a(S'w'
I5
tp6376
a(S'tr_ll'
I0
tp6377
a(S'w'
I9
tp6378
a(S'w'
I709
tp6379
a(S'p1_tl'
I221
tp6380
a(S'w'
I10
tp6381
a(S'p2_tl'
I225
tp6382
a(S'w'
I6
tp6383
a(S'tr_ll'
I0
tp6384
a(S'w'
I9
tp6385
a(S'w'
I709
tp6386
a(S'p1_tl'
I222
tp6387
a(S'w'
I10
tp6388
a(S'p2_tl'
I226
tp6389
a(S'w'
I5
tp6390
a(S'tr_ll'
I0
tp6391
a(S'w'
I9
tp6392
a(S'w'
I710
tp6393
a(S'p1_tl'
I223
tp6394
a(S'w'
I10
tp6395
a(S'p2_tl'
I227
tp6396
a(S'w'
I5
tp6397
a(S'tr_ll'
I0
tp6398
a(S'w'
I9
tp6399
a(S'w'
I710
tp6400
a(S'p1_tl'
I224
tp6401
a(S'w'
I10
tp6402
a(S'p2_tl'
I228
tp6403
a(S'w'
I5
tp6404
a(S'tr_ll'
I0
tp6405
a(S'w'
I9
tp6406
a(S'w'
I710
tp6407
a(S'p1_tl'
I225
tp6408
a(S'w'
I10
tp6409
a(S'p2_tl'
I229
tp6410
a(S'w'
I5
tp6411
a(S'tr_ll'
I0
tp6412
a(S'w'
I9
tp6413
a(S'w'
I709
tp6414
a(S'p1_tl'
I226
tp6415
a(S'w'
I10
tp6416
a(S'p2_tl'
I230
tp6417
a(S'w'
I6
tp6418
a(S'tr_ll'
I0
tp6419
a(S'w'
I9
tp6420
a(S'w'
I709
tp6421
a(S'p1_tl'
I227
tp6422
a(S'w'
I10
tp6423
a(S'p2_tl'
I231
tp6424
a(S'w'
I5
tp6425
a(S'tr_ll'
I0
tp6426
a(S'w'
I9
tp6427
a(S'w'
I710
tp6428
a(S'p1_tl'
I228
tp6429
a(S'w'
I10
tp6430
a(S'p2_tl'
I232
tp6431
a(S'w'
I5
tp6432
a(S'tr_ll'
I0
tp6433
a(S'w'
I9
tp6434
a(S'w'
I710
tp6435
a(S'p1_tl'
I229
tp6436
a(S'w'
I10
tp6437
a(S'p2_tl'
I233
tp6438
a(S'w'
I5
tp6439
a(S'tr_ll'
I0
tp6440
a(S'w'
I9
tp6441
a(S'w'
I710
tp6442
a(S'p1_tl'
I230
tp6443
a(S'w'
I10
tp6444
a(S'p2_tl'
I234
tp6445
a(S'w'
I5
tp6446
a(S'tr_ll'
I0
tp6447
a(S'w'
I9
tp6448
a(S'w'
I709
tp6449
a(S'p1_tl'
I231
tp6450
a(S'w'
I10
tp6451
a(S'p2_tl'
I235
tp6452
a(S'w'
I6
tp6453
a(S'tr_ll'
I0
tp6454
a(S'w'
I9
tp6455
a(S'w'
I709
tp6456
a(S'p1_tl'
I232
tp6457
a(S'w'
I10
tp6458
a(S'p2_tl'
I236
tp6459
a(S'w'
I5
tp6460
a(S'tr_ll'
I0
tp6461
a(S'w'
I9
tp6462
a(S'w'
I710
tp6463
a(S'p1_tl'
I233
tp6464
a(S'w'
I10
tp6465
a(S'p2_tl'
I237
tp6466
a(S'w'
I5
tp6467
a(S'tr_ll'
I0
tp6468
a(S'w'
I9
tp6469
a(S'w'
I710
tp6470
a(S'p1_tl'
I234
tp6471
a(S'w'
I10
tp6472
a(S'p2_tl'
I238
tp6473
a(S'w'
I5
tp6474
a(S'tr_ll'
I0
tp6475
a(S'w'
I9
tp6476
a(S'w'
I710
tp6477
a(S'p1_tl'
I235
tp6478
a(S'w'
I10
tp6479
a(S'p2_tl'
I239
tp6480
a(S'w'
I5
tp6481
a(S'tr_ll'
I0
tp6482
a(S'w'
I9
tp6483
a(S'w'
I709
tp6484
a(S'p1_tl'
I236
tp6485
a(S'w'
I10
tp6486
a(S'p2_tl'
I240
tp6487
a(S'w'
I6
tp6488
a(S'tr_ll'
I0
tp6489
a(S'w'
I9
tp6490
a(S'w'
I709
tp6491
a(S'p1_tl'
I237
tp6492
a(S'w'
I10
tp6493
a(S'p2_tl'
I241
tp6494
a(S'w'
I5
tp6495
a(S'tr_ll'
I0
tp6496
a(S'w'
I9
tp6497
a(S'w'
I710
tp6498
a(S'p1_tl'
I238
tp6499
a(S'w'
I10
tp6500
a(S'p2_tl'
I242
tp6501
a(S'w'
I5
tp6502
a(S'tr_ll'
I0
tp6503
a(S'w'
I9
tp6504
a(S'w'
I710
tp6505
a(S'p1_tl'
I239
tp6506
a(S'w'
I10
tp6507
a(S'p2_tl'
I243
tp6508
a(S'w'
I5
tp6509
a(S'tr_ll'
I0
tp6510
a(S'w'
I9
tp6511
a(S'w'
I710
tp6512
a(S'p1_tl'
I240
tp6513
a(S'w'
I10
tp6514
a(S'p2_tl'
I244
tp6515
a(S'w'
I5
tp6516
a(S'tr_ll'
I0
tp6517
a(S'w'
I9
tp6518
a(S'w'
I709
tp6519
a(S'p1_tl'
I241
tp6520
a(S'w'
I10
tp6521
a(S'p2_tl'
I245
tp6522
a(S'w'
I6
tp6523
a(S'tr_ll'
I0
tp6524
a(S'w'
I9
tp6525
a(S'w'
I709
tp6526
a(S'p1_tl'
I242
tp6527
a(S'w'
I10
tp6528
a(S'p2_tl'
I246
tp6529
a(S'w'
I5
tp6530
a(S'tr_ll'
I0
tp6531
a(S'w'
I9
tp6532
a(S'w'
I710
tp6533
a(S'p1_tl'
I243
tp6534
a(S'w'
I10
tp6535
a(S'p2_tl'
I247
tp6536
a(S'w'
I5
tp6537
a(S'tr_ll'
I0
tp6538
a(S'w'
I9
tp6539
a(S'w'
I710
tp6540
a(S'p1_tl'
I244
tp6541
a(S'w'
I10
tp6542
a(S'p2_tl'
I248
tp6543
a(S'w'
I5
tp6544
a(S'tr_ll'
I0
tp6545
a(S'w'
I9
tp6546
a(S'w'
I710
tp6547
a(S'p1_tl'
I245
tp6548
a(S'w'
I10
tp6549
a(S'p2_tl'
I249
tp6550
a(S'w'
I5
tp6551
a(S'tr_ll'
I0
tp6552
a(S'w'
I9
tp6553
a(S'w'
I709
tp6554
a(S'p1_tl'
I246
tp6555
a(S'w'
I11
tp6556
a(S'p2_tl'
I250
tp6557
a(S'w'
I5
tp6558
a(S'tr_ll'
I0
tp6559
a(S'w'
I9
tp6560
a(S'w'
I709
tp6561
a(S'p1_tl'
I247
tp6562
a(S'w'
I10
tp6563
a(S'p2_tl'
I251
tp6564
a(S'w'
I5
tp6565
a(S'tr_ll'
I0
tp6566
a(S'w'
I9
tp6567
a(S'w'
I731
tp6568
a(S'tr_ll'
I0
tp6569
a(S'w'
I13
tp6570
a(S'ch_no'
I0
tp6571
a(S'ch_tr'
I1
tp6572
a(S'ch_p2'
I1
tp6573
a(S'ch_p1'
I1
tp6574
a(S'w'
I700
tp6575
a(S'p1_tl'
I248
tp6576
a(S'w'
I10
tp6577
a(S'p2_tl'
I252
tp6578
a(S'w'
I5
tp6579
a(S'tr_ll'
I0
tp6580
a(S'w'
I8
tp6581
a(S'ch_no'
I1
tp6582
a(S'ch_tr'
I1
tp6583
a(S'ch_p2'
I1
tp6584
a(S'ch_p1'
I1
tp6585
a(S'w'
I1
tp6586
a(S'w'
I1
tp6587
a(S'no_ll'
I1
tp6588
a(S'w'
I709
tp6589
a(S'p1_tl'
I249
tp6590
a(S'w'
I10
tp6591
a(S'p2_tl'
I253
tp6592
a(S'w'
I5
tp6593
a(S'tr_ll'
I0
tp6594
a(S'w'
I9
tp6595
a(S'w'
I709
tp6596
a(S'p1_tl'
I250
tp6597
a(S'w'
I11
tp6598
a(S'p2_tl'
I254
tp6599
a(S'w'
I5
tp6600
a(S'tr_ll'
I0
tp6601
a(S'w'
I9
tp6602
a(S'w'
I709
tp6603
a(S'p1_tl'
I251
tp6604
a(S'w'
I10
tp6605
a(S'p2_tl'
I255
tp6606
a(S'w'
I5
tp6607
a(S'tr_ll'
I0
tp6608
a(S'w'
I9
tp6609
a(S'w'
I710
tp6610
a(S'p1_tl'
I252
tp6611
a(S'w'
I10
tp6612
a(S'p2_tl'
I0
tp6613
a(S'w'
I1
tp6614
a(S'p2_ll'
I1
tp6615
a(S'p2_th'
I2
tp6616
a(S'w'
I5
tp6617
a(S'tr_ll'
I0
tp6618
a(S'w'
I9
tp6619
a(S'w'
I709
tp6620
a(S'p1_tl'
I253
tp6621
a(S'w'
I10
tp6622
a(S'p2_tl'
I1
tp6623
a(S'w'
I5
tp6624
a(S'tr_ll'
I0
tp6625
a(S'w'
I9
tp6626
a(S'w'
I710
tp6627
a(S'p1_tl'
I254
tp6628
a(S'w'
I10
tp6629
a(S'p2_tl'
I2
tp6630
a(S'w'
I5
tp6631
a(S'tr_ll'
I0
tp6632
a(S'w'
I9
tp6633
a(S'w'
I709
tp6634
a(S'p1_tl'
I255
tp6635
a(S'w'
I10
tp6636
a(S'p2_tl'
I3
tp6637
a(S'w'
I6
tp6638
a(S'tr_ll'
I0
tp6639
a(S'w'
I9
tp6640
a(S'w'
I709
tp6641
a(S'p1_tl'
I0
tp6642
a(S'w'
I1
tp6643
a(S'p1_ll'
I1
tp6644
a(S'p1_th'
I2
tp6645
a(S'w'
I10
tp6646
a(S'p2_tl'
I4
tp6647
a(S'w'
I5
tp6648
a(S'tr_ll'
I0
tp6649
a(S'w'
I9
tp6650
a(S'w'
I709
tp6651
a(S'p1_tl'
I1
tp6652
a(S'w'
I10
tp6653
a(S'p2_tl'
I5
tp6654
a(S'w'
I5
tp6655
a(S'tr_ll'
I0
tp6656
a(S'w'
I9
tp6657
a(S'w'
I710
tp6658
a(S'p1_tl'
I2
tp6659
a(S'w'
I10
tp6660
a(S'p2_tl'
I6
tp6661
a(S'w'
I5
tp6662
a(S'tr_ll'
I0
tp6663
a(S'w'
I9
tp6664
a(S'w'
I710
tp6665
a(S'p1_tl'
I3
tp6666
a(S'w'
I10
tp6667
a(S'p2_tl'
I7
tp6668
a(S'w'
I5
tp6669
a(S'tr_ll'
I0
tp6670
a(S'w'
I9
tp6671
a(S'w'
I709
tp6672
a(S'p1_tl'
I4
tp6673
a(S'w'
I11
tp6674
a(S'p2_tl'
I8
tp6675
a(S'w'
I5
tp6676
a(S'tr_ll'
I0
tp6677
a(S'w'
I9
tp6678
a(S'w'
I709
tp6679
a(S'p1_tl'
I5
tp6680
a(S'w'
I10
tp6681
a(S'p2_tl'
I9
tp6682
a(S'w'
I5
tp6683
a(S'tr_ll'
I0
tp6684
a(S'w'
I9
tp6685
a(S'w'
I710
tp6686
a(S'p1_tl'
I6
tp6687
a(S'w'
I10
tp6688
a(S'p2_tl'
I10
tp6689
a(S'w'
I5
tp6690
a(S'tr_ll'
I0
tp6691
a(S'w'
I9
tp6692
a(S'w'
I710
tp6693
a(S'p1_tl'
I7
tp6694
a(S'w'
I10
tp6695
a(S'p2_tl'
I11
tp6696
a(S'w'
I5
tp6697
a(S'tr_ll'
I0
tp6698
a(S'w'
I9
tp6699
a(S'w'
I710
tp6700
a(S'p1_tl'
I8
tp6701
a(S'w'
I10
tp6702
a(S'p2_tl'
I12
tp6703
a(S'w'
I5
tp6704
a(S'tr_ll'
I0
tp6705
a(S'w'
I9
tp6706
a(S'w'
I709
tp6707
a(S'p1_tl'
I9
tp6708
a(S'w'
I10
tp6709
a(S'p2_tl'
I13
tp6710
a(S'w'
I6
tp6711
a(S'tr_ll'
I0
tp6712
a(S'w'
I9
tp6713
a(S'w'
I709
tp6714
a(S'p1_tl'
I10
tp6715
a(S'w'
I10
tp6716
a(S'p2_tl'
I14
tp6717
a(S'w'
I5
tp6718
a(S'tr_ll'
I0
tp6719
a(S'w'
I9
tp6720
a(S'w'
I710
tp6721
a(S'p1_tl'
I11
tp6722
a(S'w'
I10
tp6723
a(S'p2_tl'
I15
tp6724
a(S'w'
I5
tp6725
a(S'tr_ll'
I0
tp6726
a(S'w'
I9
tp6727
a(S'w'
I710
tp6728
a(S'p1_tl'
I12
tp6729
a(S'w'
I10
tp6730
a(S'p2_tl'
I16
tp6731
a(S'w'
I5
tp6732
a(S'tr_ll'
I0
tp6733
a(S'w'
I9
tp6734
a(S'w'
I710
tp6735
a(S'p1_tl'
I13
tp6736
a(S'w'
I10
tp6737
a(S'p2_tl'
I17
tp6738
a(S'w'
I5
tp6739
a(S'tr_ll'
I0
tp6740
a(S'w'
I9
tp6741
a(S'w'
I709
tp6742
a(S'p1_tl'
I14
tp6743
a(S'w'
I11
tp6744
a(S'p2_tl'
I18
tp6745
a(S'w'
I5
tp6746
a(S'tr_ll'
I0
tp6747
a(S'w'
I9
tp6748
a(S'w'
I709
tp6749
a(S'p1_tl'
I15
tp6750
a(S'w'
I10
tp6751
a(S'p2_tl'
I19
tp6752
a(S'w'
I5
tp6753
a(S'tr_ll'
I0
tp6754
a(S'w'
I9
tp6755
a(S'w'
I710
tp6756
a(S'p1_tl'
I16
tp6757
a(S'w'
I10
tp6758
a(S'p2_tl'
I20
tp6759
a(S'w'
I5
tp6760
a(S'tr_ll'
I0
tp6761
a(S'w'
I9
tp6762
a(S'w'
I710
tp6763
a(S'p1_tl'
I17
tp6764
a(S'w'
I10
tp6765
a(S'p2_tl'
I21
tp6766
a(S'w'
I5
tp6767
a(S'tr_ll'
I0
tp6768
a(S'w'
I9
tp6769
a(S'w'
I710
tp6770
a(S'p1_tl'
I18
tp6771
a(S'w'
I10
tp6772
a(S'p2_tl'
I22
tp6773
a(S'w'
I5
tp6774
a(S'tr_ll'
I0
tp6775
a(S'w'
I9
tp6776
a(S'w'
I709
tp6777
a(S'p1_tl'
I19
tp6778
a(S'w'
I10
tp6779
a(S'p2_tl'
I23
tp6780
a(S'w'
I6
tp6781
a(S'tr_ll'
I0
tp6782
a(S'w'
I9
tp6783
a(S'w'
I709
tp6784
a(S'p1_tl'
I20
tp6785
a(S'w'
I10
tp6786
a(S'p2_tl'
I24
tp6787
a(S'w'
I5
tp6788
a(S'tr_ll'
I0
tp6789
a(S'w'
I9
tp6790
a(S'w'
I710
tp6791
a(S'p1_tl'
I21
tp6792
a(S'w'
I10
tp6793
a(S'p2_tl'
I25
tp6794
a(S'w'
I5
tp6795
a(S'tr_ll'
I0
tp6796
a(S'w'
I9
tp6797
a(S'w'
I713
tp6798
a(S'p1_tl'
I0
tp6799
a(S'p1_ll'
I0
tp6800
a(S'p1_th'
I0
tp6801
a(S'w'
I2
tp6802
a(S'p1_ll'
I0
tp6803
a(S'w'
I7
tp6804
a(S'p2_tl'
I0
tp6805
a(S'p2_ll'
I0
tp6806
a(S'p2_th'
I0
tp6807
a(S'w'
I2
tp6808
a(S'w'
I1
tp6809
a(S'p2_ll'
I0
tp6810
a(S'w'
I3
tp6811
a(S'tr_ll'
I0
tp6812
a(S'w'
I8
tp6813
a(S'ch_no'
I0
tp6814
a(S'ch_tr'
I1
tp6815
a(S'ch_p2'
I1
tp6816
a(S'ch_p1'
I1
tp6817
a(S'w'
I1
tp6818
a.