(lp1
(S'clock'
p2
I1789772
tp3
a(S'p1_lh'
I1
tp4
a(S'p1_cv'
I1
tp5
a(S'p1_sn'
I1
tp6
a(S'p1_tl'
I201
tp7
a(S'p1_ll'
I1
tp8
a(S'p2_lh'
I1
tp9
a(S'p2_cv'
I1
tp10
a(S'p2_sn'
I1
tp11
a(S'p2_tl'
I254
tp12
a(S'p2_ll'
I1
tp13
a(S'tr_tl'
I46
tp14
a(S'tr_ll'
I1
tp15
a(S'tr_th'
I1
tp16
a(S'no_lh'
I1
tp17
a(S'no_cv'
I1
tp18
a(S'no_ll'
I1
tp19
a(S'ch_no'
I1
tp20
a(S'ch_tr'
I1
tp21
a(S'ch_p2'
I1
tp22
a(S'ch_p1'
I1
tp23
a(S'p1_du'
I3
tp24
a(S'w'
I8
tp25
a(S'p1_tl'
I14
tp26
a(S'w'
I1
tp27
a(S'p1_ll'
I1
tp28
a(S'w'
I11
tp29
a(S'p2_du'
I1
tp30
a(S'w'
I8
tp31
a(S'p2_tl'
I14
tp32
a(S'w'
I2
tp33
a(S'p2_ll'
I1
tp34
a(S'w'
I8
tp35
a(S'tr_lh'
I1
tp36
a(S'tr_lr'
I127
tp37
a(S'w'
I6
tp38
a(S'tr_tl'
I160
tp39
a(S'w'
I2
tp40
a(S'tr_ll'
I1
tp41
a(S'tr_th'
I0
tp42
a(S'w'
I712
tp43
a(S'tr_tl'
I170
tp44
a(S'w'
I734
tp45
a(S'tr_tl'
I180
tp46
a(S'w'
I720
tp47
a(S'tr_lh'
I0
tp48
a(S'tr_lr'
I0
tp49
a(S'w'
I14
tp50
a(S'tr_tl'
I191
tp51
a(S'w'
I719
tp52
a(S'tr_lh'
I1
tp53
a(S'tr_lr'
I127
tp54
a(S'w'
I6
tp55
a(S'tr_tl'
I179
tp56
a(S'w'
I2
tp57
a(S'tr_ll'
I1
tp58
a(S'w'
I740
tp59
a(S'tr_tl'
I190
tp60
a(S'w'
I734
tp61
a(S'tr_tl'
I200
tp62
a(S'w'
I720
tp63
a(S'tr_lh'
I0
tp64
a(S'tr_lr'
I0
tp65
a(S'w'
I14
tp66
a(S'tr_tl'
I210
tp67
a(S'w'
I719
tp68
a(S'tr_lh'
I1
tp69
a(S'tr_lr'
I127
tp70
a(S'w'
I6
tp71
a(S'tr_tl'
I201
tp72
a(S'w'
I2
tp73
a(S'tr_ll'
I1
tp74
a(S'w'
I740
tp75
a(S'tr_tl'
I212
tp76
a(S'w'
I734
tp77
a(S'tr_tl'
I222
tp78
a(S'w'
I720
tp79
a(S'tr_lh'
I0
tp80
a(S'tr_lr'
I0
tp81
a(S'w'
I14
tp82
a(S'tr_tl'
I241
tp83
a(S'w'
I720
tp84
a(S'tr_lh'
I1
tp85
a(S'tr_lr'
I127
tp86
a(S'w'
I6
tp87
a(S'tr_tl'
I100
tp88
a(S'w'
I2
tp89
a(S'tr_ll'
I1
tp90
a(S'w'
I740
tp91
a(S'tr_tl'
I106
tp92
a(S'w'
I734
tp93
a(S'tr_tl'
I111
tp94
a(S'w'
I733
tp95
a(S'tr_tl'
I120
tp96
a(S'w'
I734
tp97
a(S'tr_tl'
I131
tp98
a(S'w'
I734
tp99
a(S'tr_tl'
I141
tp100
a(S'w'
I733
tp101
a(S'tr_tl'
I151
tp102
a(S'w'
I734
tp103
a(S'tr_tl'
I161
tp104
a(S'w'
I721
tp105
a(S'tr_lh'
I0
tp106
a(S'tr_lr'
I0
tp107
a(S'w'
I13
tp108
a(S'tr_tl'
I172
tp109
a(S'w'
I2187
tp110
a(S'tr_lh'
I1
tp111
a(S'tr_lr'
I127
tp112
a(S'w'
I6
tp113
a(S'tr_tl'
I160
tp114
a(S'w'
I2
tp115
a(S'tr_ll'
I1
tp116
a(S'w'
I740
tp117
a(S'tr_tl'
I170
tp118
a(S'w'
I721
tp119
a(S'tr_lh'
I0
tp120
a(S'tr_lr'
I0
tp121
a(S'w'
I13
tp122
a(S'tr_tl'
I180
tp123
a(S'w'
I720
tp124
a(S'tr_lh'
I1
tp125
a(S'tr_lr'
I127
tp126
a(S'w'
I6
tp127
a(S'tr_tl'
I179
tp128
a(S'w'
I1
tp129
a(S'tr_ll'
I1
tp130
a(S'w'
I741
tp131
a(S'tr_tl'
I190
tp132
a(S'w'
I733
tp133
a(S'tr_tl'
I200
tp134
a(S'w'
I721
tp135
a(S'tr_lh'
I0
tp136
a(S'tr_lr'
I0
tp137
a(S'w'
I14
tp138
a(S'tr_tl'
I210
tp139
a(S'w'
I719
tp140
a(S'tr_lh'
I1
tp141
a(S'tr_lr'
I127
tp142
a(S'w'
I6
tp143
a(S'tr_tl'
I201
tp144
a(S'w'
I2
tp145
a(S'tr_ll'
I1
tp146
a(S'w'
I740
tp147
a(S'tr_tl'
I212
tp148
a(S'w'
I734
tp149
a(S'tr_tl'
I222
tp150
a(S'w'
I720
tp151
a(S'tr_lh'
I0
tp152
a(S'tr_lr'
I0
tp153
a(S'w'
I13
tp154
a(S'tr_tl'
I241
tp155
a(S'w'
I720
tp156
a(S'tr_lh'
I1
tp157
a(S'tr_lr'
I127
tp158
a(S'w'
I7
tp159
a(S'tr_tl'
I100
tp160
a(S'w'
I1
tp161
a(S'tr_ll'
I1
tp162
a(S'w'
I741
tp163
a(S'tr_tl'
I106
tp164
a(S'w'
I733
tp165
a(S'tr_tl'
I111
tp166
a(S'w'
I734
tp167
a(S'tr_tl'
I120
tp168
a(S'w'
I733
tp169
a(S'tr_tl'
I131
tp170
a(S'w'
I734
tp171
a(S'tr_tl'
I141
tp172
a(S'w'
I734
tp173
a(S'tr_tl'
I151
tp174
a(S'w'
I734
tp175
a(S'tr_tl'
I161
tp176
a(S'w'
I720
tp177
a(S'tr_lh'
I0
tp178
a(S'tr_lr'
I0
tp179
a(S'w'
I14
tp180
a(S'tr_tl'
I172
tp181
a(S'w'
I2177
tp182
a(S'p1_vo'
I12
tp183
a(S'w'
I5
tp184
a(S'p1_tl'
I254
tp185
a(S'w'
I2
tp186
a(S'p1_ll'
I1
tp187
a(S'w'
I10
tp188
a(S'p2_vo'
I12
tp189
a(S'w'
I6
tp190
a(S'p2_tl'
I46
tp191
a(S'w'
I1
tp192
a(S'p2_ll'
I1
tp193
a(S'p2_th'
I1
tp194
a(S'w'
I9
tp195
a(S'tr_lh'
I1
tp196
a(S'tr_lr'
I127
tp197
a(S'w'
I7
tp198
a(S'tr_tl'
I95
tp199
a(S'w'
I1
tp200
a(S'tr_ll'
I1
tp201
a(S'w'
I698
tp202
a(S'w'
I18
tp203
a(S'w'
I710
tp204
a(S'p1_vo'
I9
tp205
a(S'w'
I6
tp206
a(S'w'
I11
tp207
a(S'p2_vo'
I9
tp208
a(S'w'
I6
tp209
a(S'w'
I711
tp210
a(S'p1_vo'
I7
tp211
a(S'w'
I5
tp212
a(S'w'
I11
tp213
a(S'p2_vo'
I7
tp214
a(S'w'
I6
tp215
a(S'w'
I712
tp216
a(S'p1_vo'
I4
tp217
a(S'w'
I5
tp218
a(S'w'
I29
tp219
a(S'p2_vo'
I4
tp220
a(S'w'
I6
tp221
a(S'w'
I28
tp222
a(S'tr_lh'
I0
tp223
a(S'tr_lr'
I0
tp224
a(S'w'
I666
tp225
a(S'p1_vo'
I12
tp226
a(S'w'
I5
tp227
a(S'w'
I2
tp228
a(S'p1_ll'
I1
tp229
a(S'w'
I10
tp230
a(S'p2_vo'
I12
tp231
a(S'w'
I6
tp232
a(S'w'
I1
tp233
a(S'p2_ll'
I1
tp234
a(S'w'
I9
tp235
a(S'tr_lh'
I1
tp236
a(S'tr_lr'
I127
tp237
a(S'w'
I8
tp238
a(S'tr_ll'
I1
tp239
a(S'w'
I698
tp240
a(S'w'
I18
tp241
a(S'w'
I710
tp242
a(S'p1_vo'
I9
tp243
a(S'w'
I6
tp244
a(S'w'
I11
tp245
a(S'p2_vo'
I9
tp246
a(S'w'
I6
tp247
a(S'w'
I711
tp248
a(S'p1_vo'
I7
tp249
a(S'w'
I5
tp250
a(S'w'
I11
tp251
a(S'p2_vo'
I7
tp252
a(S'w'
I6
tp253
a(S'w'
I712
tp254
a(S'p1_vo'
I4
tp255
a(S'w'
I5
tp256
a(S'w'
I11
tp257
a(S'p2_vo'
I4
tp258
a(S'w'
I6
tp259
a(S'w'
I9
tp260
a(S'tr_lh'
I0
tp261
a(S'tr_lr'
I0
tp262
a(S'w'
I703
tp263
a(S'p1_vo'
I2
tp264
a(S'w'
I5
tp265
a(S'w'
I29
tp266
a(S'p2_vo'
I2
tp267
a(S'w'
I6
tp268
a(S'w'
I693
tp269
a(S'p1_vo'
I12
tp270
a(S'w'
I6
tp271
a(S'p1_tl'
I13
tp272
a(S'w'
I1
tp273
a(S'p1_ll'
I1
tp274
a(S'p1_th'
I1
tp275
a(S'w'
I11
tp276
a(S'p2_vo'
I12
tp277
a(S'w'
I5
tp278
a(S'p2_tl'
I64
tp279
a(S'w'
I2
tp280
a(S'p2_ll'
I1
tp281
a(S'w'
I9
tp282
a(S'tr_lh'
I1
tp283
a(S'tr_lr'
I127
tp284
a(S'w'
I6
tp285
a(S'tr_tl'
I100
tp286
a(S'w'
I2
tp287
a(S'tr_ll'
I1
tp288
a(S'w'
I698
tp289
a(S'w'
I17
tp290
a(S'w'
I711
tp291
a(S'p1_vo'
I9
tp292
a(S'w'
I5
tp293
a(S'w'
I12
tp294
a(S'p2_vo'
I9
tp295
a(S'w'
I5
tp296
a(S'w'
I712
tp297
a(S'p1_vo'
I7
tp298
a(S'w'
I5
tp299
a(S'w'
I11
tp300
a(S'p2_vo'
I7
tp301
a(S'w'
I6
tp302
a(S'w'
I712
tp303
a(S'p1_vo'
I4
tp304
a(S'w'
I5
tp305
a(S'w'
I29
tp306
a(S'p2_vo'
I4
tp307
a(S'w'
I6
tp308
a(S'w'
I28
tp309
a(S'tr_lh'
I0
tp310
a(S'tr_lr'
I0
tp311
a(S'w'
I666
tp312
a(S'p1_vo'
I12
tp313
a(S'w'
I5
tp314
a(S'p1_tl'
I254
tp315
a(S'w'
I1
tp316
a(S'p1_ll'
I1
tp317
a(S'p1_th'
I0
tp318
a(S'w'
I11
tp319
a(S'p2_vo'
I12
tp320
a(S'w'
I5
tp321
a(S'p2_tl'
I46
tp322
a(S'w'
I2
tp323
a(S'p2_ll'
I1
tp324
a(S'w'
I9
tp325
a(S'tr_lh'
I1
tp326
a(S'tr_lr'
I127
tp327
a(S'w'
I6
tp328
a(S'tr_tl'
I95
tp329
a(S'w'
I2
tp330
a(S'tr_ll'
I1
tp331
a(S'w'
I698
tp332
a(S'w'
I17
tp333
a(S'w'
I711
tp334
a(S'p1_vo'
I9
tp335
a(S'w'
I5
tp336
a(S'w'
I12
tp337
a(S'p2_vo'
I9
tp338
a(S'w'
I5
tp339
a(S'w'
I712
tp340
a(S'p1_vo'
I7
tp341
a(S'w'
I5
tp342
a(S'w'
I11
tp343
a(S'p2_vo'
I7
tp344
a(S'w'
I6
tp345
a(S'w'
I712
tp346
a(S'p1_vo'
I4
tp347
a(S'w'
I5
tp348
a(S'w'
I11
tp349
a(S'p2_vo'
I4
tp350
a(S'w'
I5
tp351
a(S'w'
I10
tp352
a(S'tr_lh'
I0
tp353
a(S'tr_lr'
I0
tp354
a(S'w'
I702
tp355
a(S'p1_vo'
I2
tp356
a(S'w'
I6
tp357
a(S'w'
I16
tp358
a(S'p2_vo'
I2
tp359
a(S'w'
I5
tp360
a(S'w'
I707
tp361
a(S'p1_vo'
I0
tp362
a(S'w'
I6
tp363
a(S'w'
I11
tp364
a(S'p2_vo'
I0
tp365
a(S'w'
I5
tp366
a(S'w'
I10
tp367
a(S'tr_lh'
I1
tp368
a(S'tr_lr'
I127
tp369
a(S'w'
I6
tp370
a(S'tr_tl'
I100
tp371
a(S'w'
I2
tp372
a(S'tr_ll'
I1
tp373
a(S'w'
I700
tp374
a(S'w'
I16
tp375
a(S'w'
I24
tp376
a(S'tr_tl'
I106
tp377
a(S'w'
I694
tp378
a(S'w'
I16
tp379
a(S'w'
I24
tp380
a(S'tr_tl'
I111
tp381
a(S'w'
I712
tp382
a(S'tr_tl'
I120
tp383
a(S'w'
I720
tp384
a(S'tr_lh'
I0
tp385
a(S'tr_lr'
I0
tp386
a(S'w'
I14
tp387
a(S'tr_tl'
I131
tp388
a(S'w'
I720
tp389
a(S'tr_lh'
I1
tp390
a(S'tr_lr'
I127
tp391
a(S'w'
I6
tp392
a(S'tr_tl'
I100
tp393
a(S'w'
I2
tp394
a(S'tr_ll'
I1
tp395
a(S'w'
I740
tp396
a(S'tr_tl'
I106
tp397
a(S'w'
I734
tp398
a(S'tr_tl'
I111
tp399
a(S'w'
I733
tp400
a(S'tr_tl'
I120
tp401
a(S'w'
I734
tp402
a(S'tr_tl'
I131
tp403
a(S'w'
I720
tp404
a(S'tr_lh'
I0
tp405
a(S'tr_lr'
I0
tp406
a(S'w'
I14
tp407
a(S'tr_tl'
I141
tp408
a(S'w'
I720
tp409
a(S'tr_lh'
I1
tp410
a(S'tr_lr'
I127
tp411
a(S'w'
I5
tp412
a(S'tr_tl'
I142
tp413
a(S'w'
I2
tp414
a(S'tr_ll'
I1
tp415
a(S'w'
I740
tp416
a(S'tr_tl'
I152
tp417
a(S'w'
I734
tp418
a(S'tr_tl'
I163
tp419
a(S'w'
I734
tp420
a(S'tr_tl'
I173
tp421
a(S'w'
I734
tp422
a(S'tr_tl'
I183
tp423
a(S'w'
I733
tp424
a(S'tr_tl'
I194
tp425
a(S'w'
I734
tp426
a(S'tr_tl'
I204
tp427
a(S'w'
I734
tp428
a(S'tr_tl'
I214
tp429
a(S'w'
I733
tp430
a(S'tr_tl'
I226
tp431
a(S'w'
I721
tp432
a(S'tr_lh'
I0
tp433
a(S'tr_lr'
I0
tp434
a(S'w'
I748
tp435
a(S'tr_tl'
I215
tp436
a(S'w'
I719
tp437
a(S'tr_lh'
I1
tp438
a(S'tr_lr'
I127
tp439
a(S'w'
I7
tp440
a(S'tr_tl'
I100
tp441
a(S'w'
I1
tp442
a(S'tr_ll'
I1
tp443
a(S'w'
I741
tp444
a(S'tr_tl'
I106
tp445
a(S'w'
I733
tp446
a(S'tr_tl'
I111
tp447
a(S'w'
I734
tp448
a(S'tr_tl'
I120
tp449
a(S'w'
I720
tp450
a(S'tr_lh'
I0
tp451
a(S'tr_lr'
I0
tp452
a(S'w'
I14
tp453
a(S'tr_tl'
I131
tp454
a(S'w'
I719
tp455
a(S'tr_lh'
I1
tp456
a(S'tr_lr'
I127
tp457
a(S'w'
I7
tp458
a(S'tr_tl'
I100
tp459
a(S'w'
I1
tp460
a(S'tr_ll'
I1
tp461
a(S'w'
I741
tp462
a(S'tr_tl'
I106
tp463
a(S'w'
I733
tp464
a(S'tr_tl'
I111
tp465
a(S'w'
I734
tp466
a(S'tr_tl'
I120
tp467
a(S'w'
I733
tp468
a(S'tr_tl'
I131
tp469
a(S'w'
I721
tp470
a(S'tr_lh'
I0
tp471
a(S'tr_lr'
I0
tp472
a(S'w'
I14
tp473
a(S'tr_tl'
I141
tp474
a(S'w'
I719
tp475
a(S'tr_lh'
I1
tp476
a(S'tr_lr'
I127
tp477
a(S'w'
I6
tp478
a(S'tr_tl'
I151
tp479
a(S'w'
I2
tp480
a(S'tr_ll'
I1
tp481
a(S'w'
I740
tp482
a(S'tr_tl'
I161
tp483
a(S'w'
I734
tp484
a(S'tr_tl'
I171
tp485
a(S'w'
I733
tp486
a(S'tr_tl'
I182
tp487
a(S'w'
I734
tp488
a(S'tr_tl'
I192
tp489
a(S'w'
I734
tp490
a(S'tr_tl'
I202
tp491
a(S'w'
I734
tp492
a(S'tr_tl'
I213
tp493
a(S'w'
I734
tp494
a(S'tr_tl'
I223
tp495
a(S'w'
I733
tp496
a(S'tr_tl'
I243
tp497
a(S'w'
I721
tp498
a(S'tr_lh'
I0
tp499
a(S'tr_lr'
I0
tp500
a(S'w'
I791
tp501
a(S'tr_tl'
I223
tp502
a(S'w'
I666
tp503
a(S'p1_vo'
I12
tp504
a(S'w'
I5
tp505
a(S'w'
I1
tp506
a(S'p1_ll'
I1
tp507
a(S'w'
I11
tp508
a(S'p2_vo'
I12
tp509
a(S'w'
I5
tp510
a(S'w'
I2
tp511
a(S'p2_ll'
I1
tp512
a(S'w'
I9
tp513
a(S'tr_lh'
I1
tp514
a(S'tr_lr'
I127
tp515
a(S'w'
I6
tp516
a(S'tr_tl'
I95
tp517
a(S'w'
I2
tp518
a(S'tr_ll'
I1
tp519
a(S'w'
I698
tp520
a(S'w'
I17
tp521
a(S'w'
I716
tp522
a(S'w'
I11
tp523
a(S'p2_vo'
I9
tp524
a(S'w'
I6
tp525
a(S'w'
I712
tp526
a(S'p1_vo'
I9
tp527
a(S'w'
I5
tp528
a(S'w'
I11
tp529
a(S'p2_vo'
I7
tp530
a(S'w'
I6
tp531
a(S'w'
I712
tp532
a(S'p1_vo'
I7
tp533
a(S'w'
I5
tp534
a(S'w'
I28
tp535
a(S'p2_vo'
I4
tp536
a(S'w'
I6
tp537
a(S'w'
I28
tp538
a(S'tr_lh'
I0
tp539
a(S'tr_lr'
I0
tp540
a(S'w'
I667
tp541
a(S'p1_vo'
I12
tp542
a(S'w'
I5
tp543
a(S'p1_tl'
I226
tp544
a(S'w'
I1
tp545
a(S'p1_ll'
I1
tp546
a(S'w'
I11
tp547
a(S'p2_vo'
I12
tp548
a(S'w'
I5
tp549
a(S'p2_tl'
I13
tp550
a(S'w'
I2
tp551
a(S'p2_ll'
I1
tp552
a(S'w'
I9
tp553
a(S'tr_lh'
I1
tp554
a(S'tr_lr'
I127
tp555
a(S'w'
I6
tp556
a(S'tr_tl'
I84
tp557
a(S'w'
I2
tp558
a(S'tr_ll'
I1
tp559
a(S'w'
I698
tp560
a(S'w'
I17
tp561
a(S'w'
I716
tp562
a(S'w'
I11
tp563
a(S'p2_vo'
I9
tp564
a(S'w'
I6
tp565
a(S'w'
I712
tp566
a(S'p1_vo'
I9
tp567
a(S'w'
I5
tp568
a(S'w'
I12
tp569
a(S'p2_vo'
I7
tp570
a(S'w'
I5
tp571
a(S'w'
I712
tp572
a(S'p1_vo'
I7
tp573
a(S'w'
I5
tp574
a(S'w'
I11
tp575
a(S'p2_vo'
I4
tp576
a(S'w'
I6
tp577
a(S'w'
I711
tp578
a(S'p1_vo'
I4
tp579
a(S'w'
I6
tp580
a(S'w'
I16
tp581
a(S'p2_vo'
I2
tp582
a(S'w'
I5
tp583
a(S'w'
I15
tp584
a(S'tr_lh'
I0
tp585
a(S'tr_lr'
I0
tp586
a(S'w'
I692
tp587
a(S'p1_vo'
I2
tp588
a(S'w'
I6
tp589
a(S'w'
I11
tp590
a(S'p2_vo'
I0
tp591
a(S'w'
I5
tp592
a(S'w'
I712
tp593
a(S'p1_vo'
I0
tp594
a(S'w'
I6
tp595
a(S'w'
I16
tp596
a(S'w'
I717
tp597
a(S'w'
I17
tp598
a(S'w'
I717
tp599
a(S'w'
I1462
tp600
a(S'p1_vo'
I12
tp601
a(S'w'
I6
tp602
a(S'p1_tl'
I201
tp603
a(S'w'
I2
tp604
a(S'p1_ll'
I1
tp605
a(S'w'
I11
tp606
a(S'p2_vo'
I12
tp607
a(S'w'
I5
tp608
a(S'p2_tl'
I240
tp609
a(S'w'
I2
tp610
a(S'p2_ll'
I1
tp611
a(S'p2_th'
I0
tp612
a(S'w'
I8
tp613
a(S'tr_lh'
I1
tp614
a(S'tr_lr'
I127
tp615
a(S'w'
I7
tp616
a(S'tr_tl'
I75
tp617
a(S'w'
I2
tp618
a(S'tr_ll'
I1
tp619
a(S'w'
I698
tp620
a(S'w'
I16
tp621
a(S'w'
I716
tp622
a(S'w'
I16
tp623
a(S'w'
I718
tp624
a(S'w'
I15
tp625
a(S'w'
I719
tp626
a(S'w'
I15
tp627
a(S'w'
I718
tp628
a(S'w'
I28
tp629
a(S'w'
I706
tp630
a(S'w'
I16
tp631
a(S'w'
I718
tp632
a(S'w'
I16
tp633
a(S'w'
I718
tp634
a(S'w'
I15
tp635
a(S'w'
I719
tp636
a(S'w'
I15
tp637
a(S'w'
I718
tp638
a(S'w'
I16
tp639
a(S'w'
I718
tp640
a(S'w'
I16
tp641
a(S'w'
I718
tp642
a(S'w'
I16
tp643
a(S'w'
I718
tp644
a(S'w'
I15
tp645
a(S'w'
I719
tp646
a(S'w'
I15
tp647
a(S'w'
I718
tp648
a(S'w'
I16
tp649
a(S'w'
I718
tp650
a(S'w'
I16
tp651
a(S'w'
I718
tp652
a(S'w'
I16
tp653
a(S'w'
I718
tp654
a(S'w'
I15
tp655
a(S'w'
I719
tp656
a(S'w'
I15
tp657
a(S'w'
I718
tp658
a(S'w'
I16
tp659
a(S'w'
I718
tp660
a(S'w'
I16
tp661
a(S'w'
I718
tp662
a(S'w'
I16
tp663
a(S'w'
I718
tp664
a(S'w'
I15
tp665
a(S'w'
I719
tp666
a(S'w'
I15
tp667
a(S'w'
I718
tp668
a(S'w'
I16
tp669
a(S'w'
I718
tp670
a(S'w'
I16
tp671
a(S'w'
I718
tp672
a(S'w'
I16
tp673
a(S'w'
I718
tp674
a(S'w'
I15
tp675
a(S'w'
I719
tp676
a(S'w'
I15
tp677
a(S'w'
I718
tp678
a(S'w'
I16
tp679
a(S'w'
I718
tp680
a(S'w'
I16
tp681
a(S'w'
I718
tp682
a(S'w'
I16
tp683
a(S'w'
I718
tp684
a(S'w'
I16
tp685
a(S'w'
I718
tp686
a(S'w'
I15
tp687
a(S'w'
I719
tp688
a(S'w'
I15
tp689
a(S'w'
I718
tp690
a(S'w'
I16
tp691
a(S'w'
I718
tp692
a(S'w'
I16
tp693
a(S'w'
I718
tp694
a(S'w'
I15
tp695
a(S'w'
I719
tp696
a(S'w'
I15
tp697
a(S'w'
I718
tp698
a(S'w'
I16
tp699
a(S'w'
I718
tp700
a(S'w'
I16
tp701
a(S'w'
I718
tp702
a(S'w'
I16
tp703
a(S'w'
I718
tp704
a(S'w'
I15
tp705
a(S'w'
I719
tp706
a(S'w'
I15
tp707
a(S'w'
I719
tp708
a(S'w'
I15
tp709
a(S'w'
I718
tp710
a(S'w'
I16
tp711
a(S'w'
I718
tp712
a(S'w'
I16
tp713
a(S'w'
I718
tp714
a(S'w'
I16
tp715
a(S'w'
I718
tp716
a(S'w'
I41
tp717
a(S'w'
I693
tp718
a(S'w'
I17
tp719
a(S'w'
I724
tp720
a(S'p1_tl'
I204
tp721
a(S'w'
I23
tp722
a(S'p2_tl'
I244
tp723
a(S'w'
I24
tp724
a(S'tr_tl'
I76
tp725
a(S'w'
I687
tp726
a(S'p1_tl'
I206
tp727
a(S'w'
I23
tp728
a(S'p2_tl'
I249
tp729
a(S'w'
I24
tp730
a(S'tr_tl'
I77
tp731
a(S'w'
I687
tp732
a(S'w'
I24
tp733
a(S'w'
I25
tp734
a(S'tr_tl'
I78
tp735
a(S'w'
I685
tp736
a(S'p1_tl'
I204
tp737
a(S'w'
I25
tp738
a(S'p2_tl'
I245
tp739
a(S'w'
I25
tp740
a(S'tr_tl'
I76
tp741
a(S'w'
I683
tp742
a(S'p1_tl'
I202
tp743
a(S'w'
I24
tp744
a(S'p2_tl'
I240
tp745
a(S'w'
I24
tp746
a(S'tr_tl'
I75
tp747
a(S'w'
I686
tp748
a(S'p1_tl'
I199
tp749
a(S'w'
I23
tp750
a(S'p2_tl'
I235
tp751
a(S'w'
I24
tp752
a(S'tr_tl'
I74
tp753
a(S'w'
I687
tp754
a(S'p1_tl'
I197
tp755
a(S'w'
I25
tp756
a(S'p2_tl'
I231
tp757
a(S'w'
I25
tp758
a(S'tr_tl'
I73
tp759
a(S'w'
I685
tp760
a(S'p1_tl'
I196
tp761
a(S'w'
I25
tp762
a(S'p2_tl'
I229
tp763
a(S'w'
I26
tp764
a(S'tr_tl'
I72
tp765
a(S'w'
I682
tp766
a(S'p1_tl'
I198
tp767
a(S'w'
I25
tp768
a(S'p2_tl'
I234
tp769
a(S'w'
I25
tp770
a(S'tr_tl'
I74
tp771
a(S'w'
I683
tp772
a(S'p1_tl'
I201
tp773
a(S'w'
I25
tp774
a(S'p2_tl'
I239
tp775
a(S'w'
I24
tp776
a(S'tr_tl'
I75
tp777
a(S'w'
I685
tp778
a(S'p1_tl'
I203
tp779
a(S'w'
I23
tp780
a(S'p2_tl'
I243
tp781
a(S'w'
I24
tp782
a(S'tr_tl'
I76
tp783
a(S'w'
I687
tp784
a(S'p1_tl'
I205
tp785
a(S'w'
I23
tp786
a(S'p2_tl'
I248
tp787
a(S'w'
I24
tp788
a(S'tr_tl'
I77
tp789
a(S'w'
I688
tp790
a(S'p1_tl'
I207
tp791
a(S'w'
I24
tp792
a(S'p2_tl'
I251
tp793
a(S'w'
I25
tp794
a(S'tr_tl'
I78
tp795
a(S'w'
I684
tp796
a(S'p1_tl'
I204
tp797
a(S'w'
I23
tp798
a(S'p2_tl'
I246
tp799
a(S'w'
I24
tp800
a(S'tr_tl'
I77
tp801
a(S'w'
I686
tp802
a(S'p1_tl'
I202
tp803
a(S'w'
I24
tp804
a(S'p2_tl'
I241
tp805
a(S'w'
I24
tp806
a(S'tr_tl'
I75
tp807
a(S'w'
I685
tp808
a(S'p1_tl'
I200
tp809
a(S'w'
I22
tp810
a(S'p2_tl'
I237
tp811
a(S'w'
I23
tp812
a(S'tr_tl'
I74
tp813
a(S'w'
I690
tp814
a(S'p1_tl'
I197
tp815
a(S'w'
I23
tp816
a(S'p2_tl'
I232
tp817
a(S'w'
I24
tp818
a(S'tr_tl'
I73
tp819
a(S'w'
I688
tp820
a(S'p1_tl'
I196
tp821
a(S'w'
I25
tp822
a(S'p2_tl'
I228
tp823
a(S'w'
I26
tp824
a(S'tr_tl'
I72
tp825
a(S'w'
I682
tp826
a(S'p1_tl'
I198
tp827
a(S'w'
I23
tp828
a(S'p2_tl'
I233
tp829
a(S'w'
I25
tp830
a(S'tr_tl'
I73
tp831
a(S'w'
I686
tp832
a(S'p1_tl'
I200
tp833
a(S'w'
I24
tp834
a(S'p2_tl'
I237
tp835
a(S'w'
I25
tp836
a(S'tr_tl'
I75
tp837
a(S'w'
I684
tp838
a(S'p1_tl'
I202
tp839
a(S'w'
I23
tp840
a(S'p2_tl'
I242
tp841
a(S'w'
I24
tp842
a(S'tr_tl'
I76
tp843
a(S'w'
I687
tp844
a(S'p1_tl'
I205
tp845
a(S'w'
I23
tp846
a(S'p2_tl'
I247
tp847
a(S'w'
I23
tp848
a(S'tr_tl'
I77
tp849
a(S'w'
I689
tp850
a(S'p1_tl'
I207
tp851
a(S'w'
I25
tp852
a(S'p2_tl'
I251
tp853
a(S'w'
I25
tp854
a(S'tr_tl'
I78
tp855
a(S'w'
I684
tp856
a(S'p1_tl'
I205
tp857
a(S'w'
I25
tp858
a(S'p2_tl'
I247
tp859
a(S'w'
I25
tp860
a(S'tr_tl'
I77
tp861
a(S'w'
I669
tp862
a(S'p1_vo'
I9
tp863
a(S'w'
I15
tp864
a(S'p1_tl'
I203
tp865
a(S'w'
I12
tp866
a(S'p2_vo'
I9
tp867
a(S'w'
I14
tp868
a(S'p2_tl'
I242
tp869
a(S'w'
I11
tp870
a(S'tr_lh'
I0
tp871
a(S'tr_lr'
I0
tp872
a(S'w'
I15
tp873
a(S'tr_tl'
I76
tp874
a(S'w'
I667
tp875
a(S'p1_vo'
I7
tp876
a(S'w'
I13
tp877
a(S'p1_tl'
I200
tp878
a(S'w'
I12
tp879
a(S'p2_vo'
I7
tp880
a(S'w'
I12
tp881
a(S'p2_tl'
I238
tp882
a(S'w'
I24
tp883
a(S'tr_tl'
I75
tp884
a(S'w'
I673
tp885
a(S'p1_vo'
I4
tp886
a(S'w'
I13
tp887
a(S'p1_tl'
I198
tp888
a(S'w'
I12
tp889
a(S'p2_vo'
I4
tp890
a(S'w'
I13
tp891
a(S'p2_tl'
I233
tp892
a(S'w'
I696
tp893
a(S'p1_vo'
I2
tp894
a(S'w'
I14
tp895
a(S'p1_tl'
I196
tp896
a(S'w'
I11
tp897
a(S'p2_vo'
I2
tp898
a(S'w'
I14
tp899
a(S'p2_tl'
I228
tp900
a(S'w'
I695
tp901
a(S'p1_vo'
I0
tp902
a(S'w'
I14
tp903
a(S'p1_tl'
I197
tp904
a(S'w'
I12
tp905
a(S'p2_vo'
I0
tp906
a(S'w'
I13
tp907
a(S'p2_tl'
I232
tp908
a(S'w'
I708
tp909
a(S'p1_tl'
I200
tp910
a(S'w'
I26
tp911
a(S'p2_tl'
I236
tp912
a(S'w'
I708
tp913
a(S'p1_tl'
I202
tp914
a(S'w'
I24
tp915
a(S'p2_tl'
I241
tp916
a(S'w'
I8773
tp917
a(S'p1_du'
I0
tp918
a(S'w'
I14
tp919
a(S'p2_du'
I0
tp920
a(S'w'
I1
tp921
a.