(lp1
(S'clock'
p2
I1789772
tp3
a(S'p1_lh'
I1
tp4
a(S'p1_cv'
I1
tp5
a(S'p1_sn'
I1
tp6
a(S'p2_lh'
I1
tp7
a(S'p2_cv'
I1
tp8
a(S'p2_sn'
I1
tp9
a(S'no_lh'
I1
tp10
a(S'no_cv'
I1
tp11
a(S'ch_no'
I1
tp12
a(S'ch_tr'
I1
tp13
a(S'ch_p2'
I1
tp14
a(S'ch_p1'
I1
tp15
a(S'tr_lh'
I1
tp16
a(S'tr_lr'
I127
tp17
a(S'w'
I6
tp18
a(S'tr_tl'
I201
tp19
a(S'w'
I1
tp20
a(S'tr_ll'
I1
tp21
a(S'w'
I740
tp22
a(S'tr_tl'
I211
tp23
a(S'w'
I733
tp24
a(S'tr_tl'
I221
tp25
a(S'w'
I734
tp26
a(S'tr_tl'
I239
tp27
a(S'w'
I733
tp28
a(S'tr_tl'
I2
tp29
a(S'w'
I2
tp30
a(S'tr_ll'
I1
tp31
a(S'tr_th'
I1
tp32
a(S'w'
I720
tp33
a(S'tr_lh'
I0
tp34
a(S'tr_lr'
I0
tp35
a(S'w'
I13
tp36
a(S'tr_tl'
I22
tp37
a(S'w'
I721
tp38
a(S'tr_lh'
I1
tp39
a(S'tr_lr'
I127
tp40
a(S'w'
I5
tp41
a(S'tr_tl'
I201
tp42
a(S'w'
I2
tp43
a(S'tr_ll'
I1
tp44
a(S'tr_th'
I0
tp45
a(S'w'
I739
tp46
a(S'tr_tl'
I211
tp47
a(S'w'
I734
tp48
a(S'tr_tl'
I221
tp49
a(S'w'
I734
tp50
a(S'tr_tl'
I239
tp51
a(S'w'
I733
tp52
a(S'tr_tl'
I2
tp53
a(S'w'
I2
tp54
a(S'tr_ll'
I1
tp55
a(S'tr_th'
I1
tp56
a(S'w'
I720
tp57
a(S'tr_lh'
I0
tp58
a(S'tr_lr'
I0
tp59
a(S'w'
I13
tp60
a(S'tr_tl'
I22
tp61
a(S'w'
I720
tp62
a(S'tr_lh'
I1
tp63
a(S'tr_lr'
I127
tp64
a(S'w'
I6
tp65
a(S'tr_tl'
I120
tp66
a(S'w'
I2
tp67
a(S'tr_ll'
I1
tp68
a(S'tr_th'
I0
tp69
a(S'w'
I739
tp70
a(S'tr_tl'
I129
tp71
a(S'w'
I734
tp72
a(S'tr_tl'
I139
tp73
a(S'w'
I735
tp74
a(S'tr_tl'
I149
tp75
a(S'w'
I732
tp76
a(S'tr_tl'
I159
tp77
a(S'w'
I735
tp78
a(S'tr_tl'
I169
tp79
a(S'w'
I734
tp80
a(S'tr_tl'
I179
tp81
a(S'w'
I733
tp82
a(S'tr_tl'
I189
tp83
a(S'w'
I734
tp84
a(S'tr_tl'
I199
tp85
a(S'w'
I721
tp86
a(S'tr_lh'
I0
tp87
a(S'tr_lr'
I0
tp88
a(S'w'
I14
tp89
a(S'tr_tl'
I209
tp90
a(S'w'
I733
tp91
a(S'tr_tl'
I219
tp92
a(S'w'
I1454
tp93
a(S'tr_lh'
I1
tp94
a(S'tr_lr'
I127
tp95
a(S'w'
I6
tp96
a(S'tr_tl'
I201
tp97
a(S'w'
I1
tp98
a(S'tr_ll'
I1
tp99
a(S'w'
I740
tp100
a(S'tr_tl'
I211
tp101
a(S'w'
I734
tp102
a(S'tr_tl'
I221
tp103
a(S'w'
I734
tp104
a(S'tr_tl'
I239
tp105
a(S'w'
I733
tp106
a(S'tr_tl'
I2
tp107
a(S'w'
I1
tp108
a(S'tr_ll'
I1
tp109
a(S'tr_th'
I1
tp110
a(S'w'
I720
tp111
a(S'tr_lh'
I0
tp112
a(S'tr_lr'
I0
tp113
a(S'w'
I13
tp114
a(S'tr_tl'
I22
tp115
a(S'w'
I721
tp116
a(S'tr_lh'
I1
tp117
a(S'tr_lr'
I127
tp118
a(S'w'
I6
tp119
a(S'tr_tl'
I201
tp120
a(S'w'
I1
tp121
a(S'tr_ll'
I1
tp122
a(S'tr_th'
I0
tp123
a(S'w'
I740
tp124
a(S'tr_tl'
I211
tp125
a(S'w'
I733
tp126
a(S'tr_tl'
I221
tp127
a(S'w'
I734
tp128
a(S'tr_tl'
I239
tp129
a(S'w'
I733
tp130
a(S'tr_tl'
I2
tp131
a(S'w'
I2
tp132
a(S'tr_ll'
I1
tp133
a(S'tr_th'
I1
tp134
a(S'w'
I720
tp135
a(S'tr_lh'
I0
tp136
a(S'tr_lr'
I0
tp137
a(S'w'
I13
tp138
a(S'tr_tl'
I22
tp139
a(S'w'
I721
tp140
a(S'tr_lh'
I1
tp141
a(S'tr_lr'
I127
tp142
a(S'w'
I5
tp143
a(S'tr_tl'
I120
tp144
a(S'w'
I2
tp145
a(S'tr_ll'
I1
tp146
a(S'tr_th'
I0
tp147
a(S'w'
I739
tp148
a(S'tr_tl'
I129
tp149
a(S'w'
I734
tp150
a(S'tr_tl'
I139
tp151
a(S'w'
I735
tp152
a(S'tr_tl'
I149
tp153
a(S'w'
I733
tp154
a(S'tr_tl'
I159
tp155
a(S'w'
I734
tp156
a(S'tr_tl'
I169
tp157
a(S'w'
I734
tp158
a(S'tr_tl'
I179
tp159
a(S'w'
I734
tp160
a(S'tr_tl'
I189
tp161
a(S'w'
I733
tp162
a(S'tr_tl'
I199
tp163
a(S'w'
I721
tp164
a(S'tr_lh'
I0
tp165
a(S'tr_lr'
I0
tp166
a(S'w'
I14
tp167
a(S'tr_tl'
I209
tp168
a(S'w'
I733
tp169
a(S'tr_tl'
I219
tp170
a(S'w'
I1451
tp171
a(S'p1_vo'
I12
tp172
a(S'w'
I6
tp173
a(S'p1_tl'
I201
tp174
a(S'w'
I1
tp175
a(S'p1_ll'
I1
tp176
a(S'w'
I11
tp177
a(S'p2_vo'
I11
tp178
a(S'w'
I5
tp179
a(S'p2_tl'
I226
tp180
a(S'w'
I2
tp181
a(S'p2_ll'
I1
tp182
a(S'w'
I9
tp183
a(S'tr_lh'
I1
tp184
a(S'tr_lr'
I127
tp185
a(S'w'
I6
tp186
a(S'tr_tl'
I201
tp187
a(S'w'
I1
tp188
a(S'tr_ll'
I1
tp189
a(S'w'
I699
tp190
a(S'w'
I16
tp191
a(S'w'
I23
tp192
a(S'tr_tl'
I211
tp193
a(S'w'
I693
tp194
a(S'w'
I16
tp195
a(S'w'
I22
tp196
a(S'tr_tl'
I221
tp197
a(S'w'
I696
tp198
a(S'w'
I16
tp199
a(S'w'
I22
tp200
a(S'tr_tl'
I239
tp201
a(S'w'
I696
tp202
a(S'w'
I16
tp203
a(S'w'
I22
tp204
a(S'tr_tl'
I2
tp205
a(S'w'
I2
tp206
a(S'tr_ll'
I1
tp207
a(S'tr_th'
I1
tp208
a(S'w'
I689
tp209
a(S'p1_vo'
I0
tp210
a(S'w'
I6
tp211
a(S'w'
I27
tp212
a(S'p2_vo'
I0
tp213
a(S'w'
I5
tp214
a(S'w'
I26
tp215
a(S'tr_lh'
I0
tp216
a(S'tr_lr'
I0
tp217
a(S'w'
I12
tp218
a(S'tr_tl'
I22
tp219
a(S'w'
I658
tp220
a(S'p1_vo'
I12
tp221
a(S'w'
I5
tp222
a(S'w'
I2
tp223
a(S'p1_ll'
I1
tp224
a(S'w'
I11
tp225
a(S'p2_vo'
I11
tp226
a(S'w'
I5
tp227
a(S'w'
I2
tp228
a(S'p2_ll'
I1
tp229
a(S'w'
I9
tp230
a(S'tr_lh'
I1
tp231
a(S'tr_lr'
I127
tp232
a(S'w'
I5
tp233
a(S'tr_tl'
I201
tp234
a(S'w'
I2
tp235
a(S'tr_ll'
I1
tp236
a(S'tr_th'
I0
tp237
a(S'w'
I698
tp238
a(S'w'
I17
tp239
a(S'w'
I22
tp240
a(S'tr_tl'
I211
tp241
a(S'w'
I694
tp242
a(S'w'
I16
tp243
a(S'w'
I22
tp244
a(S'tr_tl'
I221
tp245
a(S'w'
I696
tp246
a(S'w'
I16
tp247
a(S'w'
I22
tp248
a(S'tr_tl'
I239
tp249
a(S'w'
I696
tp250
a(S'w'
I16
tp251
a(S'w'
I22
tp252
a(S'tr_tl'
I2
tp253
a(S'w'
I2
tp254
a(S'tr_ll'
I1
tp255
a(S'tr_th'
I1
tp256
a(S'w'
I689
tp257
a(S'p1_vo'
I0
tp258
a(S'w'
I6
tp259
a(S'w'
I27
tp260
a(S'p2_vo'
I0
tp261
a(S'w'
I5
tp262
a(S'w'
I25
tp263
a(S'tr_lh'
I0
tp264
a(S'tr_lr'
I0
tp265
a(S'w'
I13
tp266
a(S'tr_tl'
I22
tp267
a(S'w'
I657
tp268
a(S'p1_vo'
I12
tp269
a(S'w'
I6
tp270
a(S'w'
I2
tp271
a(S'p1_ll'
I1
tp272
a(S'w'
I11
tp273
a(S'p2_vo'
I11
tp274
a(S'w'
I5
tp275
a(S'w'
I1
tp276
a(S'p2_ll'
I1
tp277
a(S'w'
I9
tp278
a(S'tr_lh'
I1
tp279
a(S'tr_lr'
I127
tp280
a(S'w'
I6
tp281
a(S'tr_tl'
I201
tp282
a(S'w'
I2
tp283
a(S'tr_ll'
I1
tp284
a(S'tr_th'
I0
tp285
a(S'w'
I698
tp286
a(S'w'
I17
tp287
a(S'w'
I22
tp288
a(S'tr_tl'
I211
tp289
a(S'w'
I694
tp290
a(S'w'
I16
tp291
a(S'w'
I22
tp292
a(S'tr_tl'
I221
tp293
a(S'w'
I696
tp294
a(S'w'
I15
tp295
a(S'w'
I23
tp296
a(S'tr_tl'
I239
tp297
a(S'w'
I696
tp298
a(S'w'
I16
tp299
a(S'w'
I22
tp300
a(S'tr_tl'
I2
tp301
a(S'w'
I2
tp302
a(S'tr_ll'
I1
tp303
a(S'tr_th'
I1
tp304
a(S'w'
I689
tp305
a(S'p1_vo'
I0
tp306
a(S'w'
I6
tp307
a(S'w'
I27
tp308
a(S'p2_vo'
I0
tp309
a(S'w'
I5
tp310
a(S'w'
I25
tp311
a(S'tr_lh'
I0
tp312
a(S'tr_lr'
I0
tp313
a(S'w'
I13
tp314
a(S'tr_tl'
I22
tp315
a(S'w'
I657
tp316
a(S'p1_vo'
I12
tp317
a(S'w'
I6
tp318
a(S'p1_tl'
I213
tp319
a(S'w'
I2
tp320
a(S'p1_ll'
I1
tp321
a(S'w'
I10
tp322
a(S'p2_vo'
I11
tp323
a(S'w'
I6
tp324
a(S'p2_tl'
I254
tp325
a(S'w'
I1
tp326
a(S'p2_ll'
I1
tp327
a(S'w'
I9
tp328
a(S'tr_lh'
I1
tp329
a(S'tr_lr'
I127
tp330
a(S'w'
I6
tp331
a(S'tr_tl'
I213
tp332
a(S'w'
I2
tp333
a(S'tr_ll'
I1
tp334
a(S'tr_th'
I0
tp335
a(S'w'
I698
tp336
a(S'w'
I17
tp337
a(S'w'
I22
tp338
a(S'tr_tl'
I223
tp339
a(S'w'
I694
tp340
a(S'w'
I15
tp341
a(S'w'
I22
tp342
a(S'tr_tl'
I243
tp343
a(S'w'
I697
tp344
a(S'w'
I15
tp345
a(S'w'
I23
tp346
a(S'tr_tl'
I7
tp347
a(S'w'
I1
tp348
a(S'tr_ll'
I1
tp349
a(S'tr_th'
I1
tp350
a(S'w'
I694
tp351
a(S'w'
I17
tp352
a(S'w'
I22
tp353
a(S'tr_tl'
I26
tp354
a(S'w'
I690
tp355
a(S'p1_vo'
I0
tp356
a(S'w'
I6
tp357
a(S'w'
I16
tp358
a(S'p2_vo'
I0
tp359
a(S'w'
I5
tp360
a(S'w'
I13
tp361
a(S'tr_lh'
I0
tp362
a(S'tr_lr'
I0
tp363
a(S'w'
I13
tp364
a(S'tr_tl'
I46
tp365
a(S'w'
I687
tp366
a(S'w'
I17
tp367
a(S'w'
I23
tp368
a(S'tr_tl'
I66
tp369
a(S'w'
I4357
tp370
a(S'p1_vo'
I12
tp371
a(S'w'
I6
tp372
a(S'w'
I1
tp373
a(S'p1_ll'
I1
tp374
a(S'w'
I11
tp375
a(S'p2_vo'
I11
tp376
a(S'w'
I5
tp377
a(S'w'
I2
tp378
a(S'p2_ll'
I1
tp379
a(S'w'
I9
tp380
a(S'tr_lh'
I1
tp381
a(S'tr_lr'
I127
tp382
a(S'w'
I6
tp383
a(S'tr_tl'
I213
tp384
a(S'w'
I1
tp385
a(S'tr_ll'
I1
tp386
a(S'tr_th'
I0
tp387
a(S'w'
I699
tp388
a(S'w'
I16
tp389
a(S'w'
I23
tp390
a(S'tr_tl'
I223
tp391
a(S'w'
I693
tp392
a(S'w'
I16
tp393
a(S'w'
I22
tp394
a(S'tr_tl'
I243
tp395
a(S'w'
I696
tp396
a(S'w'
I16
tp397
a(S'w'
I22
tp398
a(S'tr_tl'
I7
tp399
a(S'w'
I2
tp400
a(S'tr_ll'
I1
tp401
a(S'tr_th'
I1
tp402
a(S'w'
I694
tp403
a(S'w'
I16
tp404
a(S'w'
I22
tp405
a(S'tr_tl'
I26
tp406
a(S'w'
I691
tp407
a(S'p1_vo'
I0
tp408
a(S'w'
I6
tp409
a(S'w'
I15
tp410
a(S'p2_vo'
I0
tp411
a(S'w'
I6
tp412
a(S'w'
I13
tp413
a(S'tr_lh'
I0
tp414
a(S'tr_lr'
I0
tp415
a(S'w'
I13
tp416
a(S'tr_tl'
I46
tp417
a(S'w'
I687
tp418
a(S'w'
I17
tp419
a(S'w'
I23
tp420
a(S'tr_tl'
I66
tp421
a(S'w'
I4356
tp422
a(S'p1_vo'
I12
tp423
a(S'w'
I6
tp424
a(S'p1_tl'
I226
tp425
a(S'w'
I1
tp426
a(S'p1_ll'
I1
tp427
a(S'w'
I11
tp428
a(S'p2_vo'
I11
tp429
a(S'w'
I5
tp430
a(S'p2_tl'
I13
tp431
a(S'w'
I2
tp432
a(S'p2_ll'
I1
tp433
a(S'p2_th'
I1
tp434
a(S'w'
I9
tp435
a(S'tr_lh'
I1
tp436
a(S'tr_lr'
I127
tp437
a(S'w'
I5
tp438
a(S'tr_tl'
I226
tp439
a(S'w'
I2
tp440
a(S'tr_ll'
I1
tp441
a(S'tr_th'
I0
tp442
a(S'w'
I699
tp443
a(S'w'
I16
tp444
a(S'w'
I22
tp445
a(S'tr_tl'
I246
tp446
a(S'w'
I694
tp447
a(S'w'
I16
tp448
a(S'w'
I22
tp449
a(S'tr_tl'
I10
tp450
a(S'w'
I1
tp451
a(S'tr_ll'
I1
tp452
a(S'tr_th'
I1
tp453
a(S'w'
I695
tp454
a(S'w'
I16
tp455
a(S'w'
I22
tp456
a(S'tr_tl'
I30
tp457
a(S'w'
I696
tp458
a(S'w'
I16
tp459
a(S'w'
I22
tp460
a(S'tr_tl'
I49
tp461
a(S'w'
I692
tp462
a(S'p1_vo'
I0
tp463
a(S'w'
I5
tp464
a(S'w'
I15
tp465
a(S'p2_vo'
I0
tp466
a(S'w'
I5
tp467
a(S'w'
I14
tp468
a(S'tr_lh'
I0
tp469
a(S'tr_lr'
I0
tp470
a(S'w'
I13
tp471
a(S'tr_tl'
I69
tp472
a(S'w'
I687
tp473
a(S'w'
I17
tp474
a(S'w'
I23
tp475
a(S'tr_tl'
I89
tp476
a(S'w'
I4357
tp477
a(S'p1_vo'
I12
tp478
a(S'w'
I5
tp479
a(S'w'
I2
tp480
a(S'p1_ll'
I1
tp481
a(S'w'
I11
tp482
a(S'p2_vo'
I11
tp483
a(S'w'
I5
tp484
a(S'w'
I2
tp485
a(S'p2_ll'
I1
tp486
a(S'w'
I8
tp487
a(S'tr_lh'
I1
tp488
a(S'tr_lr'
I127
tp489
a(S'w'
I6
tp490
a(S'tr_tl'
I226
tp491
a(S'w'
I1
tp492
a(S'tr_ll'
I1
tp493
a(S'tr_th'
I0
tp494
a(S'w'
I699
tp495
a(S'w'
I17
tp496
a(S'w'
I22
tp497
a(S'tr_tl'
I246
tp498
a(S'w'
I694
tp499
a(S'w'
I16
tp500
a(S'w'
I21
tp501
a(S'tr_tl'
I10
tp502
a(S'w'
I2
tp503
a(S'tr_ll'
I1
tp504
a(S'tr_th'
I1
tp505
a(S'w'
I695
tp506
a(S'w'
I15
tp507
a(S'w'
I23
tp508
a(S'tr_tl'
I30
tp509
a(S'w'
I696
tp510
a(S'w'
I16
tp511
a(S'w'
I22
tp512
a(S'tr_tl'
I49
tp513
a(S'w'
I691
tp514
a(S'p1_vo'
I0
tp515
a(S'w'
I6
tp516
a(S'w'
I15
tp517
a(S'p2_vo'
I0
tp518
a(S'w'
I5
tp519
a(S'w'
I14
tp520
a(S'tr_lh'
I0
tp521
a(S'tr_lr'
I0
tp522
a(S'w'
I12
tp523
a(S'tr_tl'
I69
tp524
a(S'w'
I687
tp525
a(S'w'
I17
tp526
a(S'w'
I23
tp527
a(S'tr_tl'
I89
tp528
a(S'w'
I4358
tp529
a(S'p1_vo'
I12
tp530
a(S'w'
I5
tp531
a(S'p1_tl'
I254
tp532
a(S'w'
I1
tp533
a(S'p1_ll'
I1
tp534
a(S'w'
I11
tp535
a(S'p2_vo'
I11
tp536
a(S'w'
I5
tp537
a(S'p2_tl'
I64
tp538
a(S'w'
I2
tp539
a(S'p2_ll'
I1
tp540
a(S'w'
I9
tp541
a(S'tr_lh'
I1
tp542
a(S'tr_lr'
I127
tp543
a(S'w'
I5
tp544
a(S'tr_tl'
I254
tp545
a(S'w'
I2
tp546
a(S'tr_ll'
I1
tp547
a(S'tr_th'
I0
tp548
a(S'w'
I699
tp549
a(S'w'
I17
tp550
a(S'w'
I21
tp551
a(S'tr_tl'
I17
tp552
a(S'w'
I2
tp553
a(S'tr_ll'
I1
tp554
a(S'tr_th'
I1
tp555
a(S'w'
I693
tp556
a(S'w'
I15
tp557
a(S'w'
I22
tp558
a(S'tr_tl'
I37
tp559
a(S'w'
I696
tp560
a(S'w'
I16
tp561
a(S'w'
I23
tp562
a(S'tr_tl'
I57
tp563
a(S'w'
I695
tp564
a(S'w'
I16
tp565
a(S'w'
I23
tp566
a(S'tr_tl'
I77
tp567
a(S'w'
I691
tp568
a(S'p1_vo'
I0
tp569
a(S'w'
I5
tp570
a(S'w'
I31
tp571
a(S'p2_vo'
I0
tp572
a(S'w'
I5
tp573
a(S'w'
I29
tp574
a(S'tr_lh'
I0
tp575
a(S'tr_lr'
I0
tp576
a(S'w'
I13
tp577
a(S'tr_tl'
I97
tp578
a(S'w'
I650
tp579
a(S'p1_vo'
I12
tp580
a(S'w'
I6
tp581
a(S'p1_tl'
I240
tp582
a(S'w'
I1
tp583
a(S'p1_ll'
I1
tp584
a(S'w'
I11
tp585
a(S'p2_vo'
I11
tp586
a(S'w'
I5
tp587
a(S'p2_tl'
I46
tp588
a(S'w'
I2
tp589
a(S'p2_ll'
I1
tp590
a(S'w'
I9
tp591
a(S'tr_lh'
I1
tp592
a(S'tr_lr'
I127
tp593
a(S'w'
I5
tp594
a(S'tr_tl'
I46
tp595
a(S'w'
I2
tp596
a(S'tr_ll'
I1
tp597
a(S'w'
I699
tp598
a(S'w'
I16
tp599
a(S'w'
I22
tp600
a(S'tr_tl'
I66
tp601
a(S'w'
I694
tp602
a(S'w'
I16
tp603
a(S'w'
I22
tp604
a(S'tr_tl'
I85
tp605
a(S'w'
I696
tp606
a(S'w'
I16
tp607
a(S'w'
I22
tp608
a(S'tr_tl'
I105
tp609
a(S'w'
I696
tp610
a(S'w'
I16
tp611
a(S'w'
I21
tp612
a(S'tr_tl'
I125
tp613
a(S'w'
I697
tp614
a(S'w'
I15
tp615
a(S'w'
I22
tp616
a(S'tr_tl'
I145
tp617
a(S'w'
I697
tp618
a(S'w'
I15
tp619
a(S'w'
I23
tp620
a(S'tr_tl'
I165
tp621
a(S'w'
I695
tp622
a(S'w'
I16
tp623
a(S'w'
I22
tp624
a(S'tr_tl'
I185
tp625
a(S'w'
I696
tp626
a(S'w'
I16
tp627
a(S'w'
I21
tp628
a(S'tr_tl'
I218
tp629
a(S'w'
I697
tp630
a(S'w'
I16
tp631
a(S'w'
I22
tp632
a(S'tr_tl'
I1
tp633
a(S'w'
I1
tp634
a(S'tr_ll'
I1
tp635
a(S'tr_th'
I2
tp636
a(S'w'
I695
tp637
a(S'w'
I15
tp638
a(S'w'
I22
tp639
a(S'tr_tl'
I41
tp640
a(S'w'
I697
tp641
a(S'w'
I15
tp642
a(S'w'
I23
tp643
a(S'tr_tl'
I81
tp644
a(S'w'
I695
tp645
a(S'w'
I16
tp646
a(S'w'
I22
tp647
a(S'tr_tl'
I120
tp648
a(S'w'
I696
tp649
a(S'w'
I16
tp650
a(S'w'
I23
tp651
a(S'tr_tl'
I142
tp652
a(S'w'
I695
tp653
a(S'w'
I16
tp654
a(S'w'
I22
tp655
a(S'tr_tl'
I102
tp656
a(S'w'
I696
tp657
a(S'w'
I15
tp658
a(S'w'
I23
tp659
a(S'tr_tl'
I63
tp660
a(S'w'
I696
tp661
a(S'w'
I15
tp662
a(S'w'
I23
tp663
a(S'tr_tl'
I23
tp664
a(S'w'
I695
tp665
a(S'w'
I16
tp666
a(S'w'
I22
tp667
a(S'tr_tl'
I239
tp668
a(S'w'
I2
tp669
a(S'tr_ll'
I1
tp670
a(S'tr_th'
I1
tp671
a(S'w'
I694
tp672
a(S'w'
I16
tp673
a(S'w'
I22
tp674
a(S'tr_tl'
I200
tp675
a(S'w'
I696
tp676
a(S'w'
I16
tp677
a(S'w'
I22
tp678
a(S'tr_tl'
I176
tp679
a(S'w'
I696
tp680
a(S'w'
I16
tp681
a(S'w'
I23
tp682
a(S'tr_tl'
I156
tp683
a(S'w'
I695
tp684
a(S'w'
I15
tp685
a(S'w'
I23
tp686
a(S'tr_tl'
I136
tp687
a(S'w'
I695
tp688
a(S'w'
I16
tp689
a(S'w'
I23
tp690
a(S'tr_tl'
I116
tp691
a(S'w'
I695
tp692
a(S'w'
I37
tp693
a(S'w'
I44
tp694
a(S'tr_tl'
I96
tp695
a(S'w'
I654
tp696
a(S'w'
I16
tp697
a(S'w'
I23
tp698
a(S'tr_tl'
I77
tp699
a(S'w'
I701
tp700
a(S'p1_tl'
I243
tp701
a(S'w'
I23
tp702
a(S'p2_tl'
I50
tp703
a(S'w'
I23
tp704
a(S'tr_tl'
I57
tp705
a(S'w'
I688
tp706
a(S'p1_tl'
I247
tp707
a(S'w'
I24
tp708
a(S'p2_tl'
I54
tp709
a(S'w'
I21
tp710
a(S'tr_tl'
I38
tp711
a(S'w'
I690
tp712
a(S'p1_tl'
I248
tp713
a(S'w'
I24
tp714
a(S'w'
I22
tp715
a(S'tr_tl'
I18
tp716
a(S'w'
I688
tp717
a(S'p1_tl'
I244
tp718
a(S'w'
I25
tp719
a(S'p2_tl'
I50
tp720
a(S'w'
I22
tp721
a(S'tr_tl'
I254
tp722
a(S'w'
I1
tp723
a(S'tr_ll'
I1
tp724
a(S'tr_th'
I0
tp725
a(S'w'
I684
tp726
a(S'p1_tl'
I240
tp727
a(S'w'
I24
tp728
a(S'p2_tl'
I46
tp729
a(S'w'
I22
tp730
a(S'tr_tl'
I234
tp731
a(S'w'
I688
tp732
a(S'p1_tl'
I236
tp733
a(S'w'
I24
tp734
a(S'p2_tl'
I42
tp735
a(S'w'
I23
tp736
a(S'tr_tl'
I219
tp737
a(S'w'
I688
tp738
a(S'p1_tl'
I232
tp739
a(S'w'
I24
tp740
a(S'p2_tl'
I39
tp741
a(S'w'
I24
tp742
a(S'tr_tl'
I209
tp743
a(S'w'
I687
tp744
a(S'p1_tl'
I231
tp745
a(S'w'
I25
tp746
a(S'p2_tl'
I37
tp747
a(S'w'
I22
tp748
a(S'tr_tl'
I199
tp749
a(S'w'
I686
tp750
a(S'p1_tl'
I235
tp751
a(S'w'
I25
tp752
a(S'p2_tl'
I41
tp753
a(S'w'
I23
tp754
a(S'tr_tl'
I189
tp755
a(S'w'
I685
tp756
a(S'p1_tl'
I239
tp757
a(S'w'
I24
tp758
a(S'p2_tl'
I45
tp759
a(S'w'
I23
tp760
a(S'tr_tl'
I179
tp761
a(S'w'
I686
tp762
a(S'p1_tl'
I242
tp763
a(S'w'
I24
tp764
a(S'p2_tl'
I49
tp765
a(S'w'
I23
tp766
a(S'tr_tl'
I169
tp767
a(S'w'
I687
tp768
a(S'p1_tl'
I246
tp769
a(S'w'
I24
tp770
a(S'p2_tl'
I53
tp771
a(S'w'
I23
tp772
a(S'tr_tl'
I159
tp773
a(S'w'
I688
tp774
a(S'p1_tl'
I249
tp775
a(S'w'
I25
tp776
a(S'p2_tl'
I55
tp777
a(S'w'
I23
tp778
a(S'tr_tl'
I150
tp779
a(S'w'
I685
tp780
a(S'p1_tl'
I245
tp781
a(S'w'
I24
tp782
a(S'p2_tl'
I51
tp783
a(S'w'
I24
tp784
a(S'tr_tl'
I140
tp785
a(S'w'
I685
tp786
a(S'p1_tl'
I241
tp787
a(S'w'
I24
tp788
a(S'p2_tl'
I47
tp789
a(S'w'
I25
tp790
a(S'tr_tl'
I142
tp791
a(S'w'
I684
tp792
a(S'p1_tl'
I237
tp793
a(S'w'
I23
tp794
a(S'p2_tl'
I43
tp795
a(S'w'
I25
tp796
a(S'tr_tl'
I152
tp797
a(S'w'
I687
tp798
a(S'p1_tl'
I233
tp799
a(S'w'
I24
tp800
a(S'p2_tl'
I39
tp801
a(S'w'
I24
tp802
a(S'tr_tl'
I162
tp803
a(S'w'
I688
tp804
a(S'p1_tl'
I230
tp805
a(S'w'
I25
tp806
a(S'p2_tl'
I36
tp807
a(S'w'
I24
tp808
a(S'tr_tl'
I172
tp809
a(S'w'
I683
tp810
a(S'p1_tl'
I234
tp811
a(S'w'
I24
tp812
a(S'p2_tl'
I40
tp813
a(S'w'
I23
tp814
a(S'tr_tl'
I182
tp815
a(S'w'
I687
tp816
a(S'p1_tl'
I238
tp817
a(S'w'
I25
tp818
a(S'p2_tl'
I44
tp819
a(S'w'
I24
tp820
a(S'tr_tl'
I192
tp821
a(S'w'
I684
tp822
a(S'p1_tl'
I242
tp823
a(S'w'
I24
tp824
a(S'p2_tl'
I48
tp825
a(S'w'
I24
tp826
a(S'tr_tl'
I202
tp827
a(S'w'
I686
tp828
a(S'p1_tl'
I245
tp829
a(S'w'
I23
tp830
a(S'p2_tl'
I52
tp831
a(S'w'
I24
tp832
a(S'tr_tl'
I212
tp833
a(S'w'
I688
tp834
a(S'p1_tl'
I249
tp835
a(S'w'
I25
tp836
a(S'p2_tl'
I56
tp837
a(S'w'
I24
tp838
a(S'tr_tl'
I222
tp839
a(S'w'
I685
tp840
a(S'p1_tl'
I246
tp841
a(S'w'
I25
tp842
a(S'p2_tl'
I52
tp843
a(S'w'
I23
tp844
a(S'tr_tl'
I239
tp845
a(S'w'
I685
tp846
a(S'p1_tl'
I242
tp847
a(S'w'
I25
tp848
a(S'p2_tl'
I48
tp849
a(S'w'
I23
tp850
a(S'tr_tl'
I3
tp851
a(S'w'
I2
tp852
a(S'tr_ll'
I1
tp853
a(S'tr_th'
I1
tp854
a(S'w'
I683
tp855
a(S'p1_tl'
I238
tp856
a(S'w'
I23
tp857
a(S'p2_tl'
I44
tp858
a(S'w'
I23
tp859
a(S'tr_tl'
I23
tp860
a(S'w'
I688
tp861
a(S'p1_tl'
I234
tp862
a(S'w'
I23
tp863
a(S'p2_tl'
I40
tp864
a(S'w'
I22
tp865
a(S'tr_tl'
I43
tp866
a(S'w'
I689
tp867
a(S'p1_tl'
I230
tp868
a(S'w'
I24
tp869
a(S'p2_tl'
I36
tp870
a(S'w'
I22
tp871
a(S'tr_tl'
I62
tp872
a(S'w'
I689
tp873
a(S'p1_tl'
I233
tp874
a(S'w'
I24
tp875
a(S'p2_tl'
I39
tp876
a(S'w'
I22
tp877
a(S'tr_tl'
I81
tp878
a(S'w'
I687
tp879
a(S'p1_tl'
I237
tp880
a(S'w'
I24
tp881
a(S'p2_tl'
I43
tp882
a(S'w'
I23
tp883
a(S'tr_tl'
I101
tp884
a(S'w'
I686
tp885
a(S'p1_tl'
I241
tp886
a(S'w'
I24
tp887
a(S'p2_tl'
I47
tp888
a(S'w'
I22
tp889
a(S'tr_tl'
I121
tp890
a(S'w'
I687
tp891
a(S'p1_tl'
I245
tp892
a(S'w'
I23
tp893
a(S'p2_tl'
I51
tp894
a(S'w'
I22
tp895
a(S'tr_tl'
I141
tp896
a(S'w'
I690
tp897
a(S'p1_tl'
I248
tp898
a(S'w'
I24
tp899
a(S'p2_tl'
I55
tp900
a(S'w'
I23
tp901
a(S'tr_tl'
I161
tp902
a(S'w'
I688
tp903
a(S'p1_tl'
I247
tp904
a(S'w'
I25
tp905
a(S'p2_tl'
I53
tp906
a(S'w'
I22
tp907
a(S'tr_tl'
I181
tp908
a(S'w'
I686
tp909
a(S'p1_tl'
I243
tp910
a(S'w'
I24
tp911
a(S'p2_tl'
I49
tp912
a(S'w'
I22
tp913
a(S'tr_tl'
I210
tp914
a(S'w'
I686
tp915
a(S'p1_tl'
I239
tp916
a(S'w'
I23
tp917
a(S'p2_tl'
I45
tp918
a(S'w'
I22
tp919
a(S'tr_tl'
I249
tp920
a(S'w'
I691
tp921
a(S'p1_tl'
I235
tp922
a(S'w'
I24
tp923
a(S'p2_tl'
I41
tp924
a(S'w'
I22
tp925
a(S'tr_tl'
I33
tp926
a(S'w'
I2
tp927
a(S'tr_ll'
I1
tp928
a(S'tr_th'
I2
tp929
a(S'w'
I673
tp930
a(S'p1_vo'
I11
tp931
a(S'w'
I13
tp932
a(S'p1_tl'
I231
tp933
a(S'w'
I12
tp934
a(S'p2_vo'
I10
tp935
a(S'w'
I13
tp936
a(S'p2_tl'
I37
tp937
a(S'w'
I23
tp938
a(S'tr_tl'
I73
tp939
a(S'w'
I673
tp940
a(S'p1_vo'
I10
tp941
a(S'w'
I13
tp942
a(S'p1_tl'
I232
tp943
a(S'w'
I11
tp944
a(S'p2_vo'
I9
tp945
a(S'w'
I14
tp946
a(S'p2_tl'
I38
tp947
a(S'w'
I22
tp948
a(S'tr_tl'
I112
tp949
a(S'w'
I688
tp950
a(S'p1_tl'
I236
tp951
a(S'w'
I26
tp952
a(S'p2_tl'
I42
tp953
a(S'w'
I24
tp954
a(S'tr_tl'
I150
tp955
a(S'w'
I669
tp956
a(S'p1_vo'
I9
tp957
a(S'w'
I12
tp958
a(S'p1_tl'
I240
tp959
a(S'w'
I12
tp960
a(S'p2_vo'
I8
tp961
a(S'w'
I12
tp962
a(S'p2_tl'
I46
tp963
a(S'w'
I23
tp964
a(S'tr_tl'
I110
tp965
a(S'w'
I688
tp966
a(S'p1_tl'
I244
tp967
a(S'w'
I24
tp968
a(S'p2_tl'
I50
tp969
a(S'w'
I23
tp970
a(S'tr_tl'
I71
tp971
a(S'w'
I674
tp972
a(S'p1_vo'
I8
tp973
a(S'w'
I13
tp974
a(S'p1_tl'
I247
tp975
a(S'w'
I12
tp976
a(S'p2_vo'
I7
tp977
a(S'w'
I13
tp978
a(S'p2_tl'
I54
tp979
a(S'w'
I23
tp980
a(S'tr_tl'
I31
tp981
a(S'w'
I687
tp982
a(S'p1_tl'
I248
tp983
a(S'w'
I25
tp984
a(S'w'
I24
tp985
a(S'tr_tl'
I247
tp986
a(S'w'
I1
tp987
a(S'tr_ll'
I1
tp988
a(S'tr_th'
I1
tp989
a(S'w'
I670
tp990
a(S'p1_vo'
I7
tp991
a(S'w'
I13
tp992
a(S'p1_tl'
I244
tp993
a(S'w'
I12
tp994
a(S'p2_vo'
I6
tp995
a(S'w'
I13
tp996
a(S'p2_tl'
I50
tp997
a(S'w'
I23
tp998
a(S'tr_tl'
I208
tp999
a(S'w'
I672
tp1000
a(S'p1_vo'
I6
tp1001
a(S'w'
I13
tp1002
a(S'p1_tl'
I240
tp1003
a(S'w'
I12
tp1004
a(S'p2_vo'
I5
tp1005
a(S'w'
I13
tp1006
a(S'p2_tl'
I46
tp1007
a(S'w'
I23
tp1008
a(S'tr_tl'
I180
tp1009
a(S'w'
I686
tp1010
a(S'p1_tl'
I236
tp1011
a(S'w'
I9
tp1012
a(S'p1_vo'
I0
tp1013
a(S'w'
I22
tp1014
a(S'p2_tl'
I42
tp1015
a(S'w'
I8
tp1016
a(S'p2_vo'
I0
tp1017
a(S'w'
I21
tp1018
a(S'tr_tl'
I160
tp1019
a(S'w'
I676
tp1020
a(S'tr_tl'
I140
tp1021
a(S'w'
I720
tp1022
a(S'tr_lh'
I0
tp1023
a(S'tr_lr'
I0
tp1024
a(S'w'
I14
tp1025
a(S'tr_tl'
I120
tp1026
a(S'w'
I1
tp1027
a.