(lp1
(S'clock'
p2
I1789772
tp3
a(S'p1_lh'
I1
tp4
a(S'p1_cv'
I1
tp5
a(S'p1_sn'
I1
tp6
a(S'p2_lh'
I1
tp7
a(S'p2_cv'
I1
tp8
a(S'p2_sn'
I1
tp9
a(S'no_lh'
I1
tp10
a(S'no_cv'
I1
tp11
a(S'ch_no'
I1
tp12
a(S'ch_tr'
I1
tp13
a(S'ch_p2'
I1
tp14
a(S'ch_p1'
I1
tp15
a(S'p1_du'
I2
tp16
a(S'w'
I7
tp17
a(S'p1_tl'
I14
tp18
a(S'w'
I2
tp19
a(S'p1_ll'
I1
tp20
a(S'w'
I11
tp21
a(S'p2_du'
I2
tp22
a(S'w'
I8
tp23
a(S'p2_tl'
I14
tp24
a(S'w'
I2
tp25
a(S'p2_ll'
I1
tp26
a(S'w'
I17
tp27
a(S'tr_tl'
I14
tp28
a(S'w'
I2
tp29
a(S'tr_ll'
I1
tp30
a(S'w'
I11
tp31
a(S'no_vo'
I6
tp32
a(S'w'
I2
tp33
a(S'no_np'
I3
tp34
a(S'w'
I2
tp35
a(S'no_ll'
I1
tp36
a(S'w'
I688
tp37
a(S'no_vo'
I3
tp38
a(S'w'
I3
tp39
a(S'w'
I732
tp40
a(S'w'
I734
tp41
a(S'w'
I732
tp42
a(S'no_vo'
I1
tp43
a(S'w'
I3
tp44
a(S'w'
I731
tp45
a(S'no_vo'
I0
tp46
a(S'w'
I3
tp47
a(S'w'
I734
tp48
a(S'w'
I733
tp49
a(S'w'
I734
tp50
a(S'w'
I734
tp51
a(S'w'
I734
tp52
a(S'w'
I731
tp53
a(S'no_vo'
I6
tp54
a(S'w'
I2
tp55
a(S'w'
I2
tp56
a(S'no_ll'
I1
tp57
a(S'w'
I730
tp58
a(S'no_vo'
I3
tp59
a(S'w'
I3
tp60
a(S'w'
I730
tp61
a(S'no_vo'
I1
tp62
a(S'w'
I3
tp63
a(S'w'
I731
tp64
a(S'no_vo'
I0
tp65
a(S'w'
I3
tp66
a(S'w'
I734
tp67
a(S'w'
I731
tp68
a(S'no_vo'
I6
tp69
a(S'w'
I2
tp70
a(S'w'
I2
tp71
a(S'no_ll'
I1
tp72
a(S'w'
I730
tp73
a(S'no_vo'
I3
tp74
a(S'w'
I3
tp75
a(S'w'
I730
tp76
a(S'no_vo'
I1
tp77
a(S'w'
I3
tp78
a(S'w'
I731
tp79
a(S'no_vo'
I0
tp80
a(S'w'
I3
tp81
a(S'w'
I734
tp82
a(S'w'
I734
tp83
a(S'w'
I731
tp84
a(S'no_vo'
I7
tp85
a(S'w'
I2
tp86
a(S'w'
I2
tp87
a(S'no_ll'
I1
tp88
a(S'w'
I730
tp89
a(S'no_vo'
I4
tp90
a(S'w'
I3
tp91
a(S'w'
I732
tp92
a(S'w'
I734
tp93
a(S'w'
I732
tp94
a(S'no_vo'
I2
tp95
a(S'w'
I3
tp96
a(S'w'
I730
tp97
a(S'no_vo'
I1
tp98
a(S'w'
I3
tp99
a(S'w'
I731
tp100
a(S'no_vo'
I0
tp101
a(S'w'
I3
tp102
a(S'w'
I734
tp103
a(S'w'
I734
tp104
a(S'w'
I734
tp105
a(S'w'
I731
tp106
a(S'no_vo'
I7
tp107
a(S'w'
I2
tp108
a(S'w'
I2
tp109
a(S'no_ll'
I1
tp110
a(S'w'
I730
tp111
a(S'no_vo'
I4
tp112
a(S'w'
I3
tp113
a(S'w'
I730
tp114
a(S'no_vo'
I2
tp115
a(S'w'
I3
tp116
a(S'w'
I731
tp117
a(S'no_vo'
I1
tp118
a(S'w'
I3
tp119
a(S'w'
I731
tp120
a(S'no_vo'
I0
tp121
a(S'w'
I3
tp122
a(S'w'
I731
tp123
a(S'no_vo'
I7
tp124
a(S'w'
I2
tp125
a(S'w'
I2
tp126
a(S'no_ll'
I1
tp127
a(S'w'
I730
tp128
a(S'no_vo'
I4
tp129
a(S'w'
I3
tp130
a(S'w'
I730
tp131
a(S'no_vo'
I2
tp132
a(S'w'
I3
tp133
a(S'w'
I731
tp134
a(S'no_vo'
I1
tp135
a(S'w'
I3
tp136
a(S'w'
I731
tp137
a(S'no_vo'
I0
tp138
a(S'w'
I3
tp139
a(S'w'
I733
tp140
a(S'w'
I731
tp141
a(S'no_vo'
I9
tp142
a(S'w'
I3
tp143
a(S'w'
I2
tp144
a(S'no_ll'
I1
tp145
a(S'w'
I730
tp146
a(S'no_vo'
I6
tp147
a(S'w'
I2
tp148
a(S'w'
I733
tp149
a(S'w'
I734
tp150
a(S'w'
I732
tp151
a(S'no_vo'
I4
tp152
a(S'w'
I2
tp153
a(S'w'
I731
tp154
a(S'no_vo'
I3
tp155
a(S'w'
I3
tp156
a(S'w'
I731
tp157
a(S'no_vo'
I2
tp158
a(S'w'
I3
tp159
a(S'w'
I731
tp160
a(S'no_vo'
I1
tp161
a(S'w'
I3
tp162
a(S'w'
I731
tp163
a(S'no_vo'
I0
tp164
a(S'w'
I3
tp165
a(S'w'
I733
tp166
a(S'w'
I731
tp167
a(S'no_vo'
I9
tp168
a(S'w'
I3
tp169
a(S'w'
I2
tp170
a(S'no_ll'
I1
tp171
a(S'w'
I730
tp172
a(S'no_vo'
I6
tp173
a(S'w'
I2
tp174
a(S'w'
I731
tp175
a(S'no_vo'
I4
tp176
a(S'w'
I3
tp177
a(S'w'
I731
tp178
a(S'no_vo'
I3
tp179
a(S'w'
I3
tp180
a(S'w'
I731
tp181
a(S'no_vo'
I2
tp182
a(S'w'
I2
tp183
a(S'w'
I732
tp184
a(S'no_vo'
I9
tp185
a(S'w'
I2
tp186
a(S'w'
I2
tp187
a(S'no_ll'
I1
tp188
a(S'w'
I730
tp189
a(S'no_vo'
I6
tp190
a(S'w'
I2
tp191
a(S'w'
I731
tp192
a(S'no_vo'
I4
tp193
a(S'w'
I3
tp194
a(S'w'
I731
tp195
a(S'no_vo'
I3
tp196
a(S'w'
I3
tp197
a(S'w'
I731
tp198
a(S'no_vo'
I2
tp199
a(S'w'
I2
tp200
a(S'w'
I776
tp201
a(S'no_vo'
I1
tp202
a(S'w'
I2
tp203
a(S'w'
I669
tp204
a(S'p1_vo'
I12
tp205
a(S'w'
I4
tp206
a(S'p1_tl'
I252
tp207
a(S'w'
I2
tp208
a(S'p1_ll'
I1
tp209
a(S'p1_th'
I1
tp210
a(S'w'
I29
tp211
a(S'p2_vo'
I12
tp212
a(S'w'
I5
tp213
a(S'p2_tl'
I128
tp214
a(S'w'
I2
tp215
a(S'p2_ll'
I1
tp216
a(S'p2_th'
I2
tp217
a(S'w'
I35
tp218
a(S'no_vo'
I11
tp219
a(S'w'
I3
tp220
a(S'w'
I1
tp221
a(S'no_ll'
I1
tp222
a(S'w'
I657
tp223
a(S'p1_tl'
I197
tp224
a(S'w'
I2
tp225
a(S'p1_ll'
I1
tp226
a(S'w'
I16
tp227
a(S'p2_tl'
I58
tp228
a(S'w'
I1
tp229
a(S'p2_ll'
I1
tp230
a(S'w'
I18
tp231
a(S'no_vo'
I8
tp232
a(S'w'
I3
tp233
a(S'w'
I689
tp234
a(S'p1_vo'
I8
tp235
a(S'w'
I13
tp236
a(S'p1_tl'
I200
tp237
a(S'w'
I29
tp238
a(S'p2_vo'
I8
tp239
a(S'w'
I13
tp240
a(S'p2_tl'
I61
tp241
a(S'w'
I38
tp242
a(S'w'
I641
tp243
a(S'p1_vo'
I12
tp244
a(S'w'
I5
tp245
a(S'p1_tl'
I171
tp246
a(S'w'
I2
tp247
a(S'p1_ll'
I1
tp248
a(S'w'
I12
tp249
a(S'p2_vo'
I12
tp250
a(S'w'
I4
tp251
a(S'p2_tl'
I252
tp252
a(S'w'
I2
tp253
a(S'p2_ll'
I1
tp254
a(S'p2_th'
I1
tp255
a(S'w'
I20
tp256
a(S'w'
I689
tp257
a(S'p1_vo'
I11
tp258
a(S'w'
I13
tp259
a(S'p1_tl'
I173
tp260
a(S'w'
I30
tp261
a(S'p2_vo'
I11
tp262
a(S'w'
I12
tp263
a(S'p2_tl'
I255
tp264
a(S'w'
I36
tp265
a(S'no_vo'
I6
tp266
a(S'w'
I3
tp267
a(S'w'
I640
tp268
a(S'p1_vo'
I12
tp269
a(S'w'
I5
tp270
a(S'p1_tl'
I124
tp271
a(S'w'
I2
tp272
a(S'p1_ll'
I1
tp273
a(S'w'
I11
tp274
a(S'p2_vo'
I12
tp275
a(S'w'
I5
tp276
a(S'p2_tl'
I197
tp277
a(S'w'
I2
tp278
a(S'p2_ll'
I1
tp279
a(S'w'
I17
tp280
a(S'no_vo'
I5
tp281
a(S'w'
I3
tp282
a(S'w'
I688
tp283
a(S'p1_vo'
I11
tp284
a(S'w'
I14
tp285
a(S'p1_tl'
I126
tp286
a(S'w'
I29
tp287
a(S'p2_vo'
I11
tp288
a(S'w'
I13
tp289
a(S'p2_tl'
I200
tp290
a(S'w'
I36
tp291
a(S'no_vo'
I4
tp292
a(S'w'
I3
tp293
a(S'w'
I639
tp294
a(S'p1_vo'
I12
tp295
a(S'w'
I6
tp296
a(S'p1_tl'
I83
tp297
a(S'w'
I1
tp298
a(S'p1_ll'
I1
tp299
a(S'w'
I30
tp300
a(S'p2_vo'
I12
tp301
a(S'w'
I5
tp302
a(S'p2_tl'
I171
tp303
a(S'w'
I1
tp304
a(S'p2_ll'
I1
tp305
a(S'w'
I36
tp306
a(S'no_vo'
I3
tp307
a(S'w'
I3
tp308
a(S'w'
I657
tp309
a(S'p1_tl'
I64
tp310
a(S'w'
I2
tp311
a(S'p1_ll'
I1
tp312
a(S'w'
I16
tp313
a(S'p2_tl'
I124
tp314
a(S'w'
I2
tp315
a(S'p2_ll'
I1
tp316
a(S'w'
I17
tp317
a(S'no_vo'
I2
tp318
a(S'w'
I3
tp319
a(S'w'
I689
tp320
a(S'p1_vo'
I8
tp321
a(S'w'
I13
tp322
a(S'p1_tl'
I65
tp323
a(S'w'
I34
tp324
a(S'p2_vo'
I8
tp325
a(S'w'
I13
tp326
a(S'p2_tl'
I126
tp327
a(S'w'
I36
tp328
a(S'no_vo'
I0
tp329
a(S'w'
I3
tp330
a(S'w'
I635
tp331
a(S'p1_vo'
I12
tp332
a(S'w'
I5
tp333
a(S'p1_tl'
I29
tp334
a(S'w'
I2
tp335
a(S'p1_ll'
I1
tp336
a(S'w'
I11
tp337
a(S'p2_vo'
I12
tp338
a(S'w'
I6
tp339
a(S'p2_tl'
I83
tp340
a(S'w'
I1
tp341
a(S'p2_ll'
I1
tp342
a(S'w'
I18
tp343
a(S'no_vo'
I11
tp344
a(S'w'
I3
tp345
a(S'w'
I1
tp346
a(S'no_ll'
I1
tp347
a(S'w'
I686
tp348
a(S'p1_vo'
I11
tp349
a(S'w'
I14
tp350
a(S'p1_tl'
I30
tp351
a(S'w'
I29
tp352
a(S'p2_vo'
I11
tp353
a(S'w'
I14
tp354
a(S'p2_tl'
I84
tp355
a(S'w'
I36
tp356
a(S'no_vo'
I8
tp357
a(S'w'
I3
tp358
a(S'w'
I638
tp359
a(S'p1_vo'
I12
tp360
a(S'w'
I6
tp361
a(S'p1_tl'
I254
tp362
a(S'w'
I1
tp363
a(S'p1_ll'
I1
tp364
a(S'p1_th'
I0
tp365
a(S'w'
I12
tp366
a(S'p2_vo'
I12
tp367
a(S'w'
I5
tp368
a(S'p2_tl'
I64
tp369
a(S'w'
I2
tp370
a(S'p2_ll'
I1
tp371
a(S'w'
I18
tp372
a(S'no_vo'
I6
tp373
a(S'w'
I2
tp374
a(S'w'
I688
tp375
a(S'p1_vo'
I11
tp376
a(S'w'
I13
tp377
a(S'p1_tl'
I255
tp378
a(S'w'
I30
tp379
a(S'p2_vo'
I11
tp380
a(S'w'
I13
tp381
a(S'p2_tl'
I65
tp382
a(S'w'
I41
tp383
a(S'no_vo'
I5
tp384
a(S'w'
I3
tp385
a(S'w'
I634
tp386
a(S'p1_vo'
I12
tp387
a(S'w'
I5
tp388
a(S'p1_tl'
I226
tp389
a(S'w'
I2
tp390
a(S'p1_ll'
I1
tp391
a(S'w'
I29
tp392
a(S'p2_vo'
I12
tp393
a(S'w'
I5
tp394
a(S'p2_tl'
I29
tp395
a(S'w'
I2
tp396
a(S'p2_ll'
I1
tp397
a(S'w'
I36
tp398
a(S'no_vo'
I4
tp399
a(S'w'
I2
tp400
a(S'w'
I659
tp401
a(S'p1_tl'
I213
tp402
a(S'w'
I1
tp403
a(S'p1_ll'
I1
tp404
a(S'w'
I17
tp405
a(S'p2_tl'
I254
tp406
a(S'w'
I1
tp407
a(S'p2_ll'
I1
tp408
a(S'p2_th'
I0
tp409
a(S'w'
I18
tp410
a(S'no_vo'
I11
tp411
a(S'w'
I2
tp412
a(S'w'
I2
tp413
a(S'no_ll'
I1
tp414
a(S'w'
I686
tp415
a(S'p1_vo'
I8
tp416
a(S'w'
I14
tp417
a(S'p1_tl'
I214
tp418
a(S'w'
I30
tp419
a(S'p2_vo'
I8
tp420
a(S'w'
I13
tp421
a(S'p2_tl'
I255
tp422
a(S'w'
I36
tp423
a(S'no_vo'
I8
tp424
a(S'w'
I3
tp425
a(S'w'
I638
tp426
a(S'p1_vo'
I12
tp427
a(S'w'
I6
tp428
a(S'p1_tl'
I190
tp429
a(S'w'
I2
tp430
a(S'p1_ll'
I1
tp431
a(S'w'
I12
tp432
a(S'p2_vo'
I12
tp433
a(S'w'
I5
tp434
a(S'p2_tl'
I226
tp435
a(S'w'
I1
tp436
a(S'p2_ll'
I1
tp437
a(S'w'
I18
tp438
a(S'no_vo'
I6
tp439
a(S'w'
I3
tp440
a(S'w'
I687
tp441
a(S'p1_vo'
I11
tp442
a(S'w'
I14
tp443
a(S'p1_tl'
I191
tp444
a(S'w'
I30
tp445
a(S'p2_vo'
I11
tp446
a(S'w'
I13
tp447
a(S'p2_tl'
I228
tp448
a(S'w'
I36
tp449
a(S'no_vo'
I5
tp450
a(S'w'
I3
tp451
a(S'w'
I638
tp452
a(S'p1_vo'
I12
tp453
a(S'w'
I6
tp454
a(S'p1_tl'
I169
tp455
a(S'w'
I2
tp456
a(S'p1_ll'
I1
tp457
a(S'w'
I11
tp458
a(S'p2_vo'
I12
tp459
a(S'w'
I6
tp460
a(S'p2_tl'
I213
tp461
a(S'w'
I2
tp462
a(S'p2_ll'
I1
tp463
a(S'w'
I17
tp464
a(S'no_vo'
I4
tp465
a(S'w'
I3
tp466
a(S'w'
I687
tp467
a(S'p1_vo'
I11
tp468
a(S'w'
I14
tp469
a(S'p1_tl'
I170
tp470
a(S'w'
I39
tp471
a(S'p2_vo'
I11
tp472
a(S'w'
I14
tp473
a(S'p2_tl'
I214
tp474
a(S'w'
I50
tp475
a(S'no_vo'
I3
tp476
a(S'w'
I3
tp477
a(S'w'
I614
tp478
a(S'p1_vo'
I12
tp479
a(S'w'
I6
tp480
a(S'p1_tl'
I160
tp481
a(S'w'
I1
tp482
a(S'p1_ll'
I1
tp483
a(S'w'
I11
tp484
a(S'p2_vo'
I10
tp485
a(S'w'
I14
tp486
a(S'p2_tl'
I215
tp487
a(S'w'
I10
tp488
a(S'tr_lh'
I1
tp489
a(S'tr_lr'
I127
tp490
a(S'w'
I6
tp491
a(S'tr_tl'
I213
tp492
a(S'w'
I1
tp493
a(S'tr_ll'
I1
tp494
a(S'w'
I11
tp495
a(S'no_vo'
I9
tp496
a(S'w'
I3
tp497
a(S'no_np'
I8
tp498
a(S'w'
I1
tp499
a(S'no_ll'
I1
tp500
a(S'w'
I669
tp501
a(S'p1_vo'
I8
tp502
a(S'w'
I14
tp503
a(S'w'
I26
tp504
a(S'w'
I27
tp505
a(S'no_vo'
I6
tp506
a(S'w'
I3
tp507
a(S'w'
I677
tp508
a(S'p1_tl'
I161
tp509
a(S'w'
I12
tp510
a(S'p2_vo'
I9
tp511
a(S'w'
I14
tp512
a(S'p2_tl'
I214
tp513
a(S'w'
I29
tp514
a(S'w'
I679
tp515
a(S'w'
I24
tp516
a(S'p2_tl'
I213
tp517
a(S'w'
I29
tp518
a(S'w'
I681
tp519
a(S'w'
I12
tp520
a(S'p2_vo'
I8
tp521
a(S'w'
I13
tp522
a(S'w'
I29
tp523
a(S'w'
I678
tp524
a(S'p1_tl'
I160
tp525
a(S'w'
I26
tp526
a(S'p2_tl'
I212
tp527
a(S'w'
I29
tp528
a(S'w'
I680
tp529
a(S'p1_tl'
I159
tp530
a(S'w'
I11
tp531
a(S'p2_vo'
I7
tp532
a(S'w'
I15
tp533
a(S'w'
I95
tp534
a(S'w'
I614
tp535
a(S'p1_tl'
I158
tp536
a(S'w'
I11
tp537
a(S'p2_vo'
I10
tp538
a(S'w'
I7
tp539
a(S'p2_tl'
I162
tp540
a(S'w'
I1
tp541
a(S'p2_ll'
I1
tp542
a(S'w'
I29
tp543
a(S'w'
I686
tp544
a(S'w'
I11
tp545
a(S'p2_vo'
I6
tp546
a(S'w'
I14
tp547
a(S'w'
I27
tp548
a(S'no_vo'
I4
tp549
a(S'w'
I3
tp550
a(S'w'
I677
tp551
a(S'p1_tl'
I159
tp552
a(S'w'
I25
tp553
a(S'p2_tl'
I163
tp554
a(S'w'
I27
tp555
a(S'no_vo'
I3
tp556
a(S'w'
I3
tp557
a(S'w'
I679
tp558
a(S'w'
I25
tp559
a(S'w'
I27
tp560
a(S'no_vo'
I2
tp561
a(S'w'
I3
tp562
a(S'w'
I678
tp563
a(S'p1_tl'
I160
tp564
a(S'w'
I26
tp565
a(S'w'
I26
tp566
a(S'no_vo'
I1
tp567
a(S'w'
I3
tp568
a(S'w'
I680
tp569
a(S'p1_tl'
I161
tp570
a(S'w'
I23
tp571
a(S'p2_tl'
I162
tp572
a(S'w'
I28
tp573
a(S'no_vo'
I0
tp574
a(S'w'
I2
tp575
a(S'w'
I681
tp576
a(S'p1_tl'
I162
tp577
a(S'w'
I25
tp578
a(S'p2_tl'
I161
tp579
a(S'w'
I29
tp580
a(S'w'
I680
tp581
a(S'p1_tl'
I161
tp582
a(S'w'
I25
tp583
a(S'p2_tl'
I160
tp584
a(S'w'
I30
tp585
a(S'w'
I678
tp586
a(S'p1_tl'
I160
tp587
a(S'w'
I26
tp588
a(S'w'
I30
tp589
a(S'w'
I677
tp590
a(S'p1_tl'
I159
tp591
a(S'w'
I24
tp592
a(S'p2_tl'
I161
tp593
a(S'w'
I31
tp594
a(S'w'
I680
tp595
a(S'w'
I24
tp596
a(S'w'
I10
tp597
a(S'tr_lh'
I0
tp598
a(S'tr_lr'
I0
tp599
a(S'w'
I21
tp600
a(S'w'
I680
tp601
a(S'p1_tl'
I158
tp602
a(S'w'
I24
tp603
a(S'p2_tl'
I162
tp604
a(S'w'
I21
tp605
a(S'w'
I688
tp606
a(S'w'
I24
tp607
a(S'p2_tl'
I163
tp608
a(S'w'
I709
tp609
a(S'p1_tl'
I159
tp610
a(S'w'
I52
tp611
a(S'p2_tl'
I164
tp612
a(S'w'
I675
tp613
a(S'p1_tl'
I160
tp614
a(S'w'
I25
tp615
a(S'p2_tl'
I163
tp616
a(S'w'
I27
tp617
a(S'no_vo'
I9
tp618
a(S'w'
I3
tp619
a(S'w'
I2
tp620
a(S'no_ll'
I1
tp621
a(S'w'
I684
tp622
a(S'w'
I25
tp623
a(S'p2_tl'
I162
tp624
a(S'w'
I18
tp625
a(S'no_vo'
I6
tp626
a(S'w'
I3
tp627
a(S'w'
I688
tp628
a(S'p1_tl'
I161
tp629
a(S'w'
I24
tp630
a(S'p2_tl'
I161
tp631
a(S'w'
I18
tp632
a(S'no_vo'
I4
tp633
a(S'w'
I3
tp634
a(S'w'
I689
tp635
a(S'w'
I25
tp636
a(S'w'
I18
tp637
a(S'no_vo'
I9
tp638
a(S'w'
I2
tp639
a(S'w'
I2
tp640
a(S'no_ll'
I1
tp641
a(S'w'
I687
tp642
a(S'w'
I26
tp643
a(S'p2_tl'
I160
tp644
a(S'w'
I18
tp645
a(S'no_vo'
I6
tp646
a(S'w'
I3
tp647
a(S'w'
I685
tp648
a(S'p1_tl'
I160
tp649
a(S'w'
I25
tp650
a(S'w'
I18
tp651
a(S'no_vo'
I4
tp652
a(S'w'
I3
tp653
a(S'w'
I689
tp654
a(S'p1_tl'
I159
tp655
a(S'w'
I24
tp656
a(S'p2_tl'
I161
tp657
a(S'w'
I45
tp658
a(S'no_vo'
I3
tp659
a(S'w'
I2
tp660
a(S'w'
I663
tp661
a(S'p1_tl'
I158
tp662
a(S'w'
I19
tp663
a(S'p2_tl'
I162
tp664
a(S'w'
I18
tp665
a(S'no_vo'
I9
tp666
a(S'w'
I2
tp667
a(S'w'
I2
tp668
a(S'no_ll'
I1
tp669
a(S'w'
I680
tp670
a(S'p1_vo'
I7
tp671
a(S'w'
I15
tp672
a(S'w'
I25
tp673
a(S'w'
I18
tp674
a(S'no_vo'
I6
tp675
a(S'w'
I3
tp676
a(S'w'
I686
tp677
a(S'p1_tl'
I159
tp678
a(S'w'
I51
tp679
a(S'p2_tl'
I163
tp680
a(S'w'
I35
tp681
a(S'no_vo'
I4
tp682
a(S'w'
I3
tp683
a(S'w'
I632
tp684
a(S'p1_vo'
I12
tp685
a(S'w'
I5
tp686
a(S'p1_tl'
I169
tp687
a(S'w'
I2
tp688
a(S'p1_ll'
I1
tp689
a(S'w'
I25
tp690
a(S'w'
I9
tp691
a(S'tr_lh'
I1
tp692
a(S'tr_lr'
I127
tp693
a(S'w'
I8
tp694
a(S'tr_ll'
I1
tp695
a(S'w'
I10
tp696
a(S'no_vo'
I9
tp697
a(S'w'
I3
tp698
a(S'w'
I2
tp699
a(S'no_ll'
I1
tp700
a(S'w'
I670
tp701
a(S'p1_vo'
I9
tp702
a(S'w'
I6
tp703
a(S'w'
I25
tp704
a(S'w'
I27
tp705
a(S'no_vo'
I6
tp706
a(S'w'
I3
tp707
a(S'w'
I677
tp708
a(S'w'
I23
tp709
a(S'p2_tl'
I162
tp710
a(S'w'
I27
tp711
a(S'no_vo'
I4
tp712
a(S'w'
I3
tp713
a(S'w'
I681
tp714
a(S'w'
I25
tp715
a(S'p2_tl'
I161
tp716
a(S'w'
I27
tp717
a(S'no_vo'
I3
tp718
a(S'w'
I3
tp719
a(S'w'
I674
tp720
a(S'p1_vo'
I7
tp721
a(S'w'
I6
tp722
a(S'w'
I43
tp723
a(S'p2_tl'
I160
tp724
a(S'w'
I10
tp725
a(S'tr_lh'
I0
tp726
a(S'tr_lr'
I0
tp727
a(S'w'
I36
tp728
a(S'no_vo'
I9
tp729
a(S'w'
I2
tp730
a(S'w'
I2
tp731
a(S'no_ll'
I1
tp732
a(S'w'
I635
tp733
a(S'p1_vo'
I12
tp734
a(S'w'
I5
tp735
a(S'p1_tl'
I190
tp736
a(S'w'
I2
tp737
a(S'p1_ll'
I1
tp738
a(S'w'
I25
tp739
a(S'w'
I10
tp740
a(S'tr_lh'
I1
tp741
a(S'tr_lr'
I127
tp742
a(S'w'
I8
tp743
a(S'tr_ll'
I1
tp744
a(S'w'
I11
tp745
a(S'no_vo'
I6
tp746
a(S'w'
I3
tp747
a(S'w'
I670
tp748
a(S'p1_vo'
I9
tp749
a(S'w'
I6
tp750
a(S'w'
I11
tp751
a(S'p2_vo'
I5
tp752
a(S'w'
I13
tp753
a(S'p2_tl'
I161
tp754
a(S'w'
I28
tp755
a(S'no_vo'
I4
tp756
a(S'w'
I2
tp757
a(S'w'
I678
tp758
a(S'w'
I25
tp759
a(S'w'
I54
tp760
a(S'no_vo'
I9
tp761
a(S'w'
I2
tp762
a(S'w'
I2
tp763
a(S'no_ll'
I1
tp764
a(S'w'
I651
tp765
a(S'w'
I11
tp766
a(S'p2_vo'
I10
tp767
a(S'w'
I6
tp768
a(S'p2_tl'
I171
tp769
a(S'w'
I2
tp770
a(S'p2_ll'
I1
tp771
a(S'w'
I27
tp772
a(S'no_vo'
I6
tp773
a(S'w'
I3
tp774
a(S'w'
I685
tp775
a(S'w'
I12
tp776
a(S'p2_vo'
I7
tp777
a(S'w'
I6
tp778
a(S'w'
I10
tp779
a(S'tr_lh'
I0
tp780
a(S'tr_lr'
I0
tp781
a(S'w'
I18
tp782
a(S'no_vo'
I4
tp783
a(S'w'
I3
tp784
a(S'w'
I679
tp785
a(S'p1_vo'
I7
tp786
a(S'w'
I6
tp787
a(S'w'
I40
tp788
a(S'w'
I44
tp789
a(S'no_vo'
I3
tp790
a(S'w'
I3
tp791
a(S'w'
I641
tp792
a(S'p1_vo'
I12
tp793
a(S'w'
I6
tp794
a(S'p1_tl'
I169
tp795
a(S'w'
I2
tp796
a(S'p1_ll'
I1
tp797
a(S'w'
I16
tp798
a(S'w'
I10
tp799
a(S'tr_lh'
I1
tp800
a(S'tr_lr'
I127
tp801
a(S'w'
I7
tp802
a(S'tr_ll'
I1
tp803
a(S'w'
I11
tp804
a(S'no_vo'
I9
tp805
a(S'w'
I3
tp806
a(S'w'
I1
tp807
a(S'no_ll'
I1
tp808
a(S'w'
I678
tp809
a(S'p1_vo'
I9
tp810
a(S'w'
I6
tp811
a(S'w'
I12
tp812
a(S'p2_vo'
I5
tp813
a(S'w'
I6
tp814
a(S'w'
I45
tp815
a(S'no_vo'
I6
tp816
a(S'w'
I3
tp817
a(S'w'
I667
tp818
a(S'w'
I11
tp819
a(S'p2_vo'
I10
tp820
a(S'w'
I6
tp821
a(S'p2_tl'
I192
tp822
a(S'w'
I2
tp823
a(S'p2_ll'
I1
tp824
a(S'w'
I28
tp825
a(S'w'
I687
tp826
a(S'w'
I11
tp827
a(S'p2_vo'
I7
tp828
a(S'w'
I7
tp829
a(S'w'
I28
tp830
a(S'w'
I688
tp831
a(S'w'
I16
tp832
a(S'w'
I27
tp833
a(S'no_vo'
I4
tp834
a(S'w'
I2
tp835
a(S'w'
I688
tp836
a(S'w'
I17
tp837
a(S'w'
I26
tp838
a(S'no_vo'
I3
tp839
a(S'w'
I3
tp840
a(S'w'
I688
tp841
a(S'w'
I17
tp842
a(S'w'
I49
tp843
a(S'no_vo'
I2
tp844
a(S'w'
I3
tp845
a(S'w'
I665
tp846
a(S'w'
I11
tp847
a(S'p2_vo'
I10
tp848
a(S'w'
I6
tp849
a(S'p2_tl'
I171
tp850
a(S'w'
I2
tp851
a(S'p2_ll'
I1
tp852
a(S'w'
I27
tp853
a(S'no_vo'
I1
tp854
a(S'w'
I2
tp855
a(S'w'
I686
tp856
a(S'w'
I11
tp857
a(S'p2_vo'
I7
tp858
a(S'w'
I7
tp859
a(S'w'
I9
tp860
a(S'tr_lh'
I0
tp861
a(S'tr_lr'
I0
tp862
a(S'w'
I18
tp863
a(S'no_vo'
I0
tp864
a(S'w'
I3
tp865
a(S'w'
I686
tp866
a(S'w'
I16
tp867
a(S'w'
I47
tp868
a(S'w'
I670
tp869
a(S'w'
I18
tp870
a(S'w'
I9
tp871
a(S'tr_lh'
I1
tp872
a(S'tr_lr'
I127
tp873
a(S'w'
I7
tp874
a(S'tr_ll'
I1
tp875
a(S'w'
I11
tp876
a(S'no_vo'
I9
tp877
a(S'w'
I3
tp878
a(S'w'
I1
tp879
a(S'no_ll'
I1
tp880
a(S'w'
I680
tp881
a(S'p1_vo'
I7
tp882
a(S'w'
I6
tp883
a(S'w'
I17
tp884
a(S'w'
I27
tp885
a(S'no_vo'
I6
tp886
a(S'w'
I3
tp887
a(S'w'
I681
tp888
a(S'p1_vo'
I6
tp889
a(S'w'
I6
tp890
a(S'w'
I17
tp891
a(S'w'
I28
tp892
a(S'w'
I683
tp893
a(S'p1_vo'
I5
tp894
a(S'w'
I6
tp895
a(S'w'
I34
tp896
a(S'w'
I28
tp897
a(S'w'
I666
tp898
a(S'p1_vo'
I12
tp899
a(S'w'
I5
tp900
a(S'p1_tl'
I190
tp901
a(S'w'
I2
tp902
a(S'p1_ll'
I1
tp903
a(S'w'
I16
tp904
a(S'w'
I27
tp905
a(S'no_vo'
I4
tp906
a(S'w'
I3
tp907
a(S'w'
I681
tp908
a(S'p1_vo'
I9
tp909
a(S'w'
I6
tp910
a(S'w'
I16
tp911
a(S'w'
I27
tp912
a(S'no_vo'
I3
tp913
a(S'w'
I3
tp914
a(S'w'
I686
tp915
a(S'w'
I17
tp916
a(S'w'
I26
tp917
a(S'no_vo'
I2
tp918
a(S'w'
I3
tp919
a(S'w'
I688
tp920
a(S'w'
I17
tp921
a(S'w'
I27
tp922
a(S'no_vo'
I1
tp923
a(S'w'
I2
tp924
a(S'w'
I688
tp925
a(S'w'
I16
tp926
a(S'w'
I11
tp927
a(S'tr_lh'
I0
tp928
a(S'tr_lr'
I0
tp929
a(S'w'
I17
tp930
a(S'no_vo'
I0
tp931
a(S'w'
I3
tp932
a(S'w'
I687
tp933
a(S'w'
I11
tp934
a(S'p2_vo'
I5
tp935
a(S'w'
I6
tp936
a(S'w'
I31
tp937
a(S'w'
I685
tp938
a(S'w'
I11
tp939
a(S'p2_vo'
I4
tp940
a(S'w'
I7
tp941
a(S'w'
I64
tp942
a(S'w'
I652
tp943
a(S'w'
I11
tp944
a(S'p2_vo'
I10
tp945
a(S'w'
I7
tp946
a(S'p2_tl'
I192
tp947
a(S'w'
I1
tp948
a(S'p2_ll'
I1
tp949
a(S'w'
I9
tp950
a(S'tr_lh'
I1
tp951
a(S'tr_lr'
I127
tp952
a(S'w'
I6
tp953
a(S'tr_tl'
I142
tp954
a(S'w'
I2
tp955
a(S'tr_ll'
I1
tp956
a(S'w'
I11
tp957
a(S'no_vo'
I9
tp958
a(S'w'
I2
tp959
a(S'w'
I2
tp960
a(S'no_ll'
I1
tp961
a(S'w'
I683
tp962
a(S'w'
I11
tp963
a(S'p2_vo'
I7
tp964
a(S'w'
I7
tp965
a(S'w'
I22
tp966
a(S'tr_tl'
I152
tp967
a(S'w'
I12
tp968
a(S'no_vo'
I6
tp969
a(S'w'
I3
tp970
a(S'w'
I679
tp971
a(S'w'
I16
tp972
a(S'w'
I23
tp973
a(S'tr_tl'
I162
tp974
a(S'w'
I13
tp975
a(S'w'
I682
tp976
a(S'w'
I17
tp977
a(S'w'
I23
tp978
a(S'tr_tl'
I172
tp979
a(S'w'
I13
tp980
a(S'w'
I675
tp981
a(S'p1_vo'
I7
tp982
a(S'w'
I6
tp983
a(S'w'
I18
tp984
a(S'w'
I22
tp985
a(S'tr_tl'
I182
tp986
a(S'w'
I11
tp987
a(S'no_vo'
I4
tp988
a(S'w'
I3
tp989
a(S'w'
I674
tp990
a(S'p1_vo'
I6
tp991
a(S'w'
I6
tp992
a(S'w'
I17
tp993
a(S'w'
I22
tp994
a(S'tr_tl'
I192
tp995
a(S'w'
I12
tp996
a(S'no_vo'
I3
tp997
a(S'w'
I3
tp998
a(S'w'
I674
tp999
a(S'p1_vo'
I5
tp1000
a(S'w'
I6
tp1001
a(S'w'
I34
tp1002
a(S'w'
I23
tp1003
a(S'tr_tl'
I202
tp1004
a(S'w'
I12
tp1005
a(S'no_vo'
I2
tp1006
a(S'w'
I3
tp1007
a(S'w'
I656
tp1008
a(S'p1_vo'
I12
tp1009
a(S'w'
I6
tp1010
a(S'p1_tl'
I213
tp1011
a(S'w'
I1
tp1012
a(S'p1_ll'
I1
tp1013
a(S'w'
I16
tp1014
a(S'w'
I23
tp1015
a(S'tr_tl'
I212
tp1016
a(S'w'
I12
tp1017
a(S'no_vo'
I1
tp1018
a(S'w'
I2
tp1019
a(S'w'
I674
tp1020
a(S'p1_vo'
I9
tp1021
a(S'w'
I6
tp1022
a(S'w'
I17
tp1023
a(S'w'
I22
tp1024
a(S'tr_tl'
I222
tp1025
a(S'w'
I11
tp1026
a(S'no_vo'
I0
tp1027
a(S'w'
I3
tp1028
a(S'w'
I679
tp1029
a(S'w'
I17
tp1030
a(S'w'
I23
tp1031
a(S'tr_tl'
I239
tp1032
a(S'w'
I14
tp1033
a(S'w'
I680
tp1034
a(S'w'
I17
tp1035
a(S'w'
I22
tp1036
a(S'tr_tl'
I3
tp1037
a(S'w'
I2
tp1038
a(S'tr_ll'
I1
tp1039
a(S'tr_th'
I1
tp1040
a(S'w'
I11
tp1041
a(S'no_vo'
I9
tp1042
a(S'w'
I2
tp1043
a(S'w'
I2
tp1044
a(S'no_ll'
I1
tp1045
a(S'w'
I678
tp1046
a(S'w'
I17
tp1047
a(S'w'
I23
tp1048
a(S'tr_tl'
I23
tp1049
a(S'w'
I12
tp1050
a(S'no_vo'
I6
tp1051
a(S'w'
I3
tp1052
a(S'w'
I679
tp1053
a(S'w'
I11
tp1054
a(S'p2_vo'
I5
tp1055
a(S'w'
I6
tp1056
a(S'w'
I23
tp1057
a(S'tr_tl'
I43
tp1058
a(S'w'
I14
tp1059
a(S'w'
I680
tp1060
a(S'w'
I11
tp1061
a(S'p2_vo'
I4
tp1062
a(S'w'
I6
tp1063
a(S'w'
I42
tp1064
a(S'tr_tl'
I54
tp1065
a(S'w'
I13
tp1066
a(S'w'
I661
tp1067
a(S'w'
I12
tp1068
a(S'p2_vo'
I10
tp1069
a(S'w'
I6
tp1070
a(S'p2_tl'
I215
tp1071
a(S'w'
I1
tp1072
a(S'p2_ll'
I1
tp1073
a(S'w'
I24
tp1074
a(S'tr_tl'
I34
tp1075
a(S'w'
I11
tp1076
a(S'no_vo'
I4
tp1077
a(S'w'
I3
tp1078
a(S'w'
I677
tp1079
a(S'w'
I12
tp1080
a(S'p2_vo'
I7
tp1081
a(S'w'
I6
tp1082
a(S'w'
I23
tp1083
a(S'tr_tl'
I14
tp1084
a(S'w'
I12
tp1085
a(S'no_vo'
I3
tp1086
a(S'w'
I2
tp1087
a(S'w'
I679
tp1088
a(S'w'
I17
tp1089
a(S'w'
I24
tp1090
a(S'tr_tl'
I250
tp1091
a(S'w'
I1
tp1092
a(S'tr_ll'
I1
tp1093
a(S'tr_th'
I0
tp1094
a(S'w'
I12
tp1095
a(S'no_vo'
I2
tp1096
a(S'w'
I3
tp1097
a(S'w'
I677
tp1098
a(S'w'
I17
tp1099
a(S'w'
I10
tp1100
a(S'tr_lh'
I0
tp1101
a(S'tr_lr'
I0
tp1102
a(S'w'
I13
tp1103
a(S'tr_tl'
I230
tp1104
a(S'w'
I12
tp1105
a(S'no_vo'
I1
tp1106
a(S'w'
I3
tp1107
a(S'w'
I673
tp1108
a(S'p1_vo'
I7
tp1109
a(S'w'
I7
tp1110
a(S'w'
I17
tp1111
a(S'w'
I17
tp1112
a(S'no_vo'
I0
tp1113
a(S'w'
I3
tp1114
a(S'w'
I690
tp1115
a(S'p1_vo'
I6
tp1116
a(S'w'
I6
tp1117
a(S'w'
I17
tp1118
a(S'w'
I20
tp1119
a(S'w'
I691
tp1120
a(S'p1_vo'
I5
tp1121
a(S'w'
I6
tp1122
a(S'w'
I44
tp1123
a(S'w'
I54
tp1124
a(S'w'
I630
tp1125
a(S'p1_vo'
I12
tp1126
a(S'w'
I6
tp1127
a(S'p1_tl'
I190
tp1128
a(S'w'
I1
tp1129
a(S'p1_ll'
I1
tp1130
a(S'w'
I17
tp1131
a(S'w'
I9
tp1132
a(S'tr_lh'
I1
tp1133
a(S'tr_lr'
I127
tp1134
a(S'w'
I5
tp1135
a(S'tr_tl'
I240
tp1136
a(S'w'
I2
tp1137
a(S'tr_ll'
I1
tp1138
a(S'w'
I11
tp1139
a(S'no_vo'
I9
tp1140
a(S'w'
I2
tp1141
a(S'w'
I2
tp1142
a(S'no_ll'
I1
tp1143
a(S'w'
I679
tp1144
a(S'p1_vo'
I9
tp1145
a(S'w'
I6
tp1146
a(S'w'
I17
tp1147
a(S'w'
I26
tp1148
a(S'no_vo'
I6
tp1149
a(S'w'
I3
tp1150
a(S'w'
I687
tp1151
a(S'w'
I16
tp1152
a(S'w'
I28
tp1153
a(S'w'
I689
tp1154
a(S'w'
I17
tp1155
a(S'w'
I28
tp1156
a(S'w'
I689
tp1157
a(S'w'
I41
tp1158
a(S'w'
I28
tp1159
a(S'w'
I665
tp1160
a(S'w'
I14
tp1161
a(S'p2_vo'
I5
tp1162
a(S'w'
I6
tp1163
a(S'w'
I29
tp1164
a(S'w'
I685
tp1165
a(S'p1_tl'
I179
tp1166
a(S'w'
I11
tp1167
a(S'p2_vo'
I4
tp1168
a(S'w'
I6
tp1169
a(S'w'
I55
tp1170
a(S'w'
I662
tp1171
a(S'w'
I11
tp1172
a(S'p2_vo'
I10
tp1173
a(S'w'
I6
tp1174
a(S'p2_tl'
I192
tp1175
a(S'w'
I2
tp1176
a(S'p2_ll'
I1
tp1177
a(S'w'
I27
tp1178
a(S'w'
I687
tp1179
a(S'w'
I12
tp1180
a(S'p2_vo'
I7
tp1181
a(S'w'
I6
tp1182
a(S'w'
I26
tp1183
a(S'no_vo'
I4
tp1184
a(S'w'
I3
tp1185
a(S'w'
I687
tp1186
a(S'w'
I36
tp1187
a(S'w'
I26
tp1188
a(S'no_vo'
I3
tp1189
a(S'w'
I3
tp1190
a(S'w'
I669
tp1191
a(S'w'
I17
tp1192
a(S'w'
I25
tp1193
a(S'no_vo'
I2
tp1194
a(S'w'
I3
tp1195
a(S'w'
I689
tp1196
a(S'w'
I16
tp1197
a(S'w'
I26
tp1198
a(S'no_vo'
I1
tp1199
a(S'w'
I3
tp1200
a(S'w'
I689
tp1201
a(S'w'
I16
tp1202
a(S'w'
I50
tp1203
a(S'no_vo'
I0
tp1204
a(S'w'
I3
tp1205
a(S'w'
I664
tp1206
a(S'w'
I17
tp1207
a(S'w'
I32
tp1208
a(S'w'
I685
tp1209
a(S'w'
I17
tp1210
a(S'p2_tl'
I181
tp1211
a(S'w'
I29
tp1212
a(S'w'
I688
tp1213
a(S'w'
I17
tp1214
a(S'w'
I28
tp1215
a(S'w'
I689
tp1216
a(S'w'
I17
tp1217
a(S'w'
I29
tp1218
a(S'w'
I688
tp1219
a(S'w'
I16
tp1220
a(S'w'
I29
tp1221
a(S'tr_lh'
I0
tp1222
a(S'tr_lr'
I0
tp1223
a(S'w'
I20
tp1224
a(S'w'
I669
tp1225
a(S'w'
I16
tp1226
a(S'w'
I21
tp1227
a(S'w'
I696
tp1228
a(S'w'
I17
tp1229
a(S'w'
I717
tp1230
a(S'w'
I17
tp1231
a(S'w'
I717
tp1232
a(S'w'
I17
tp1233
a(S'w'
I26
tp1234
a(S'no_vo'
I9
tp1235
a(S'w'
I2
tp1236
a(S'w'
I2
tp1237
a(S'no_ll'
I1
tp1238
a(S'w'
I687
tp1239
a(S'w'
I16
tp1240
a(S'w'
I18
tp1241
a(S'no_vo'
I6
tp1242
a(S'w'
I3
tp1243
a(S'w'
I696
tp1244
a(S'w'
I17
tp1245
a(S'w'
I17
tp1246
a(S'no_vo'
I4
tp1247
a(S'w'
I3
tp1248
a(S'w'
I697
tp1249
a(S'w'
I17
tp1250
a(S'w'
I17
tp1251
a(S'no_vo'
I9
tp1252
a(S'w'
I3
tp1253
a(S'w'
I1
tp1254
a(S'no_ll'
I1
tp1255
a(S'w'
I696
tp1256
a(S'w'
I17
tp1257
a(S'w'
I17
tp1258
a(S'no_vo'
I6
tp1259
a(S'w'
I3
tp1260
a(S'w'
I697
tp1261
a(S'w'
I17
tp1262
a(S'w'
I17
tp1263
a(S'no_vo'
I4
tp1264
a(S'w'
I3
tp1265
a(S'w'
I697
tp1266
a(S'w'
I17
tp1267
a(S'w'
I17
tp1268
a(S'no_vo'
I3
tp1269
a(S'w'
I3
tp1270
a(S'w'
I691
tp1271
a(S'p1_vo'
I7
tp1272
a(S'w'
I6
tp1273
a(S'w'
I17
tp1274
a(S'w'
I17
tp1275
a(S'no_vo'
I9
tp1276
a(S'w'
I3
tp1277
a(S'w'
I2
tp1278
a(S'no_ll'
I1
tp1279
a(S'w'
I689
tp1280
a(S'p1_vo'
I6
tp1281
a(S'w'
I6
tp1282
a(S'w'
I17
tp1283
a(S'w'
I17
tp1284
a(S'no_vo'
I6
tp1285
a(S'w'
I3
tp1286
a(S'w'
I691
tp1287
a(S'p1_vo'
I5
tp1288
a(S'w'
I6
tp1289
a(S'w'
I42
tp1290
a(S'w'
I34
tp1291
a(S'no_vo'
I4
tp1292
a(S'w'
I3
tp1293
a(S'w'
I649
tp1294
a(S'p1_vo'
I12
tp1295
a(S'w'
I6
tp1296
a(S'p1_tl'
I190
tp1297
a(S'w'
I1
tp1298
a(S'p1_ll'
I1
tp1299
a(S'w'
I17
tp1300
a(S'w'
I9
tp1301
a(S'tr_lh'
I1
tp1302
a(S'tr_lr'
I127
tp1303
a(S'w'
I7
tp1304
a(S'tr_ll'
I1
tp1305
a(S'w'
I11
tp1306
a(S'no_vo'
I9
tp1307
a(S'w'
I2
tp1308
a(S'w'
I2
tp1309
a(S'no_ll'
I1
tp1310
a(S'w'
I679
tp1311
a(S'p1_vo'
I9
tp1312
a(S'w'
I6
tp1313
a(S'w'
I17
tp1314
a(S'w'
I26
tp1315
a(S'no_vo'
I6
tp1316
a(S'w'
I3
tp1317
a(S'w'
I686
tp1318
a(S'w'
I17
tp1319
a(S'w'
I26
tp1320
a(S'no_vo'
I4
tp1321
a(S'w'
I3
tp1322
a(S'w'
I688
tp1323
a(S'w'
I18
tp1324
a(S'w'
I26
tp1325
a(S'no_vo'
I3
tp1326
a(S'w'
I3
tp1327
a(S'w'
I682
tp1328
a(S'p1_vo'
I7
tp1329
a(S'w'
I6
tp1330
a(S'w'
I35
tp1331
a(S'w'
I10
tp1332
a(S'tr_lh'
I0
tp1333
a(S'tr_lr'
I0
tp1334
a(S'w'
I35
tp1335
a(S'no_vo'
I9
tp1336
a(S'w'
I3
tp1337
a(S'w'
I1
tp1338
a(S'no_ll'
I1
tp1339
a(S'w'
I644
tp1340
a(S'p1_vo'
I12
tp1341
a(S'w'
I6
tp1342
a(S'p1_tl'
I213
tp1343
a(S'w'
I1
tp1344
a(S'p1_ll'
I1
tp1345
a(S'w'
I11
tp1346
a(S'p2_vo'
I5
tp1347
a(S'w'
I7
tp1348
a(S'w'
I9
tp1349
a(S'tr_lh'
I1
tp1350
a(S'tr_lr'
I127
tp1351
a(S'w'
I6
tp1352
a(S'tr_tl'
I179
tp1353
a(S'w'
I1
tp1354
a(S'tr_ll'
I1
tp1355
a(S'w'
I11
tp1356
a(S'no_vo'
I6
tp1357
a(S'w'
I3
tp1358
a(S'w'
I679
tp1359
a(S'p1_vo'
I9
tp1360
a(S'w'
I6
tp1361
a(S'w'
I11
tp1362
a(S'p2_vo'
I4
tp1363
a(S'w'
I7
tp1364
a(S'w'
I26
tp1365
a(S'no_vo'
I4
tp1366
a(S'w'
I3
tp1367
a(S'w'
I685
tp1368
a(S'w'
I12
tp1369
a(S'p2_vo'
I3
tp1370
a(S'w'
I6
tp1371
a(S'w'
I52
tp1372
a(S'no_vo'
I9
tp1373
a(S'w'
I2
tp1374
a(S'w'
I2
tp1375
a(S'no_ll'
I1
tp1376
a(S'w'
I660
tp1377
a(S'w'
I11
tp1378
a(S'p2_vo'
I10
tp1379
a(S'w'
I7
tp1380
a(S'p2_tl'
I192
tp1381
a(S'w'
I1
tp1382
a(S'p2_ll'
I1
tp1383
a(S'w'
I27
tp1384
a(S'no_vo'
I6
tp1385
a(S'w'
I3
tp1386
a(S'w'
I685
tp1387
a(S'w'
I12
tp1388
a(S'p2_vo'
I7
tp1389
a(S'w'
I7
tp1390
a(S'w'
I9
tp1391
a(S'tr_lh'
I0
tp1392
a(S'tr_lr'
I0
tp1393
a(S'w'
I18
tp1394
a(S'no_vo'
I4
tp1395
a(S'w'
I3
tp1396
a(S'w'
I680
tp1397
a(S'p1_vo'
I7
tp1398
a(S'w'
I6
tp1399
a(S'w'
I39
tp1400
a(S'w'
I44
tp1401
a(S'no_vo'
I3
tp1402
a(S'w'
I3
tp1403
a(S'w'
I642
tp1404
a(S'p1_vo'
I12
tp1405
a(S'w'
I5
tp1406
a(S'p1_tl'
I190
tp1407
a(S'w'
I2
tp1408
a(S'p1_ll'
I1
tp1409
a(S'w'
I16
tp1410
a(S'w'
I10
tp1411
a(S'tr_lh'
I1
tp1412
a(S'tr_lr'
I127
tp1413
a(S'w'
I8
tp1414
a(S'tr_ll'
I1
tp1415
a(S'w'
I11
tp1416
a(S'no_vo'
I9
tp1417
a(S'w'
I2
tp1418
a(S'w'
I2
tp1419
a(S'no_ll'
I1
tp1420
a(S'w'
I678
tp1421
a(S'p1_vo'
I9
tp1422
a(S'w'
I6
tp1423
a(S'w'
I11
tp1424
a(S'p2_vo'
I5
tp1425
a(S'w'
I6
tp1426
a(S'w'
I46
tp1427
a(S'no_vo'
I6
tp1428
a(S'w'
I2
tp1429
a(S'w'
I667
tp1430
a(S'w'
I12
tp1431
a(S'p2_vo'
I10
tp1432
a(S'w'
I6
tp1433
a(S'p2_tl'
I215
tp1434
a(S'w'
I1
tp1435
a(S'p2_ll'
I1
tp1436
a(S'w'
I28
tp1437
a(S'w'
I687
tp1438
a(S'w'
I12
tp1439
a(S'p2_vo'
I7
tp1440
a(S'w'
I6
tp1441
a(S'w'
I28
tp1442
a(S'w'
I688
tp1443
a(S'w'
I17
tp1444
a(S'w'
I26
tp1445
a(S'no_vo'
I4
tp1446
a(S'w'
I3
tp1447
a(S'w'
I688
tp1448
a(S'w'
I16
tp1449
a(S'w'
I27
tp1450
a(S'no_vo'
I3
tp1451
a(S'w'
I3
tp1452
a(S'w'
I687
tp1453
a(S'w'
I17
tp1454
a(S'w'
I50
tp1455
a(S'no_vo'
I2
tp1456
a(S'w'
I2
tp1457
a(S'w'
I665
tp1458
a(S'w'
I11
tp1459
a(S'p2_vo'
I10
tp1460
a(S'w'
I7
tp1461
a(S'p2_tl'
I192
tp1462
a(S'w'
I1
tp1463
a(S'p2_ll'
I1
tp1464
a(S'w'
I27
tp1465
a(S'no_vo'
I1
tp1466
a(S'w'
I3
tp1467
a(S'w'
I685
tp1468
a(S'w'
I12
tp1469
a(S'p2_vo'
I7
tp1470
a(S'w'
I6
tp1471
a(S'w'
I10
tp1472
a(S'tr_lh'
I0
tp1473
a(S'tr_lr'
I0
tp1474
a(S'w'
I18
tp1475
a(S'no_vo'
I0
tp1476
a(S'w'
I2
tp1477
a(S'w'
I686
tp1478
a(S'w'
I17
tp1479
a(S'w'
I47
tp1480
a(S'w'
I670
tp1481
a(S'w'
I17
tp1482
a(S'w'
I9
tp1483
a(S'tr_lh'
I1
tp1484
a(S'tr_lr'
I127
tp1485
a(S'w'
I8
tp1486
a(S'tr_ll'
I1
tp1487
a(S'w'
I11
tp1488
a(S'no_vo'
I9
tp1489
a(S'w'
I2
tp1490
a(S'w'
I2
tp1491
a(S'no_ll'
I1
tp1492
a(S'w'
I679
tp1493
a(S'p1_vo'
I7
tp1494
a(S'w'
I6
tp1495
a(S'w'
I18
tp1496
a(S'w'
I26
tp1497
a(S'no_vo'
I6
tp1498
a(S'w'
I3
tp1499
a(S'w'
I681
tp1500
a(S'p1_vo'
I6
tp1501
a(S'w'
I6
tp1502
a(S'w'
I17
tp1503
a(S'w'
I28
tp1504
a(S'w'
I683
tp1505
a(S'p1_vo'
I5
tp1506
a(S'w'
I6
tp1507
a(S'w'
I34
tp1508
a(S'w'
I29
tp1509
a(S'w'
I665
tp1510
a(S'p1_vo'
I12
tp1511
a(S'w'
I6
tp1512
a(S'p1_tl'
I213
tp1513
a(S'w'
I1
tp1514
a(S'p1_ll'
I1
tp1515
a(S'w'
I17
tp1516
a(S'w'
I26
tp1517
a(S'no_vo'
I4
tp1518
a(S'w'
I3
tp1519
a(S'w'
I681
tp1520
a(S'p1_vo'
I9
tp1521
a(S'w'
I6
tp1522
a(S'w'
I17
tp1523
a(S'w'
I26
tp1524
a(S'no_vo'
I3
tp1525
a(S'w'
I3
tp1526
a(S'w'
I686
tp1527
a(S'w'
I17
tp1528
a(S'w'
I27
tp1529
a(S'no_vo'
I2
tp1530
a(S'w'
I2
tp1531
a(S'w'
I688
tp1532
a(S'w'
I17
tp1533
a(S'w'
I27
tp1534
a(S'no_vo'
I1
tp1535
a(S'w'
I3
tp1536
a(S'w'
I687
tp1537
a(S'w'
I17
tp1538
a(S'w'
I10
tp1539
a(S'tr_lh'
I0
tp1540
a(S'tr_lr'
I0
tp1541
a(S'w'
I18
tp1542
a(S'no_vo'
I0
tp1543
a(S'w'
I3
tp1544
a(S'w'
I686
tp1545
a(S'w'
I11
tp1546
a(S'p2_vo'
I5
tp1547
a(S'w'
I6
tp1548
a(S'w'
I31
tp1549
a(S'w'
I686
tp1550
a(S'w'
I11
tp1551
a(S'p2_vo'
I4
tp1552
a(S'w'
I6
tp1553
a(S'w'
I65
tp1554
a(S'w'
I652
tp1555
a(S'w'
I11
tp1556
a(S'p2_vo'
I10
tp1557
a(S'w'
I6
tp1558
a(S'p2_tl'
I215
tp1559
a(S'w'
I2
tp1560
a(S'p2_ll'
I1
tp1561
a(S'w'
I9
tp1562
a(S'tr_lh'
I1
tp1563
a(S'tr_lr'
I127
tp1564
a(S'w'
I6
tp1565
a(S'tr_tl'
I106
tp1566
a(S'w'
I2
tp1567
a(S'tr_ll'
I1
tp1568
a(S'w'
I11
tp1569
a(S'no_vo'
I9
tp1570
a(S'w'
I2
tp1571
a(S'w'
I2
tp1572
a(S'no_ll'
I1
tp1573
a(S'w'
I682
tp1574
a(S'w'
I12
tp1575
a(S'p2_vo'
I7
tp1576
a(S'w'
I6
tp1577
a(S'w'
I23
tp1578
a(S'tr_tl'
I111
tp1579
a(S'w'
I12
tp1580
a(S'no_vo'
I6
tp1581
a(S'w'
I3
tp1582
a(S'w'
I678
tp1583
a(S'w'
I17
tp1584
a(S'w'
I22
tp1585
a(S'tr_tl'
I121
tp1586
a(S'w'
I13
tp1587
a(S'w'
I682
tp1588
a(S'w'
I17
tp1589
a(S'w'
I23
tp1590
a(S'tr_tl'
I131
tp1591
a(S'w'
I14
tp1592
a(S'w'
I675
tp1593
a(S'p1_vo'
I7
tp1594
a(S'w'
I6
tp1595
a(S'w'
I17
tp1596
a(S'w'
I22
tp1597
a(S'tr_tl'
I141
tp1598
a(S'w'
I12
tp1599
a(S'no_vo'
I4
tp1600
a(S'w'
I2
tp1601
a(S'w'
I674
tp1602
a(S'p1_vo'
I6
tp1603
a(S'w'
I6
tp1604
a(S'w'
I17
tp1605
a(S'w'
I23
tp1606
a(S'tr_tl'
I151
tp1607
a(S'w'
I11
tp1608
a(S'no_vo'
I3
tp1609
a(S'w'
I3
tp1610
a(S'w'
I674
tp1611
a(S'p1_vo'
I5
tp1612
a(S'w'
I6
tp1613
a(S'w'
I35
tp1614
a(S'w'
I23
tp1615
a(S'tr_tl'
I161
tp1616
a(S'w'
I11
tp1617
a(S'no_vo'
I2
tp1618
a(S'w'
I3
tp1619
a(S'w'
I656
tp1620
a(S'p1_vo'
I12
tp1621
a(S'w'
I5
tp1622
a(S'p1_tl'
I240
tp1623
a(S'w'
I2
tp1624
a(S'p1_ll'
I1
tp1625
a(S'w'
I16
tp1626
a(S'w'
I23
tp1627
a(S'tr_tl'
I171
tp1628
a(S'w'
I11
tp1629
a(S'no_vo'
I1
tp1630
a(S'w'
I3
tp1631
a(S'w'
I674
tp1632
a(S'p1_vo'
I9
tp1633
a(S'w'
I6
tp1634
a(S'w'
I16
tp1635
a(S'w'
I23
tp1636
a(S'tr_tl'
I181
tp1637
a(S'w'
I11
tp1638
a(S'no_vo'
I0
tp1639
a(S'w'
I3
tp1640
a(S'w'
I679
tp1641
a(S'w'
I17
tp1642
a(S'w'
I23
tp1643
a(S'tr_tl'
I191
tp1644
a(S'w'
I14
tp1645
a(S'w'
I680
tp1646
a(S'w'
I17
tp1647
a(S'w'
I22
tp1648
a(S'tr_tl'
I200
tp1649
a(S'w'
I12
tp1650
a(S'no_vo'
I9
tp1651
a(S'w'
I2
tp1652
a(S'w'
I2
tp1653
a(S'no_ll'
I1
tp1654
a(S'w'
I679
tp1655
a(S'w'
I16
tp1656
a(S'w'
I25
tp1657
a(S'tr_tl'
I210
tp1658
a(S'w'
I11
tp1659
a(S'no_vo'
I6
tp1660
a(S'w'
I3
tp1661
a(S'w'
I678
tp1662
a(S'w'
I12
tp1663
a(S'p2_vo'
I5
tp1664
a(S'w'
I6
tp1665
a(S'w'
I24
tp1666
a(S'tr_tl'
I220
tp1667
a(S'w'
I13
tp1668
a(S'w'
I679
tp1669
a(S'w'
I11
tp1670
a(S'p2_vo'
I4
tp1671
a(S'w'
I7
tp1672
a(S'w'
I41
tp1673
a(S'tr_tl'
I228
tp1674
a(S'w'
I14
tp1675
a(S'w'
I661
tp1676
a(S'w'
I11
tp1677
a(S'p2_vo'
I10
tp1678
a(S'w'
I6
tp1679
a(S'p2_tl'
I242
tp1680
a(S'w'
I2
tp1681
a(S'p2_ll'
I1
tp1682
a(S'w'
I23
tp1683
a(S'tr_tl'
I216
tp1684
a(S'w'
I12
tp1685
a(S'no_vo'
I4
tp1686
a(S'w'
I2
tp1687
a(S'w'
I678
tp1688
a(S'w'
I11
tp1689
a(S'p2_vo'
I7
tp1690
a(S'w'
I6
tp1691
a(S'w'
I24
tp1692
a(S'tr_tl'
I206
tp1693
a(S'w'
I11
tp1694
a(S'no_vo'
I3
tp1695
a(S'w'
I3
tp1696
a(S'w'
I679
tp1697
a(S'w'
I16
tp1698
a(S'w'
I24
tp1699
a(S'tr_tl'
I196
tp1700
a(S'w'
I12
tp1701
a(S'no_vo'
I2
tp1702
a(S'w'
I3
tp1703
a(S'w'
I678
tp1704
a(S'w'
I17
tp1705
a(S'w'
I10
tp1706
a(S'tr_lh'
I0
tp1707
a(S'tr_lr'
I0
tp1708
a(S'w'
I14
tp1709
a(S'tr_tl'
I186
tp1710
a(S'w'
I12
tp1711
a(S'no_vo'
I1
tp1712
a(S'w'
I2
tp1713
a(S'w'
I675
tp1714
a(S'p1_vo'
I7
tp1715
a(S'w'
I5
tp1716
a(S'w'
I17
tp1717
a(S'w'
I17
tp1718
a(S'no_vo'
I0
tp1719
a(S'w'
I3
tp1720
a(S'w'
I692
tp1721
a(S'p1_vo'
I6
tp1722
a(S'w'
I5
tp1723
a(S'w'
I16
tp1724
a(S'w'
I20
tp1725
a(S'w'
I692
tp1726
a(S'p1_vo'
I5
tp1727
a(S'w'
I6
tp1728
a(S'w'
I44
tp1729
a(S'w'
I47
tp1730
a(S'w'
I637
tp1731
a(S'p1_vo'
I12
tp1732
a(S'w'
I6
tp1733
a(S'p1_tl'
I201
tp1734
a(S'w'
I2
tp1735
a(S'p1_ll'
I1
tp1736
a(S'w'
I15
tp1737
a(S'w'
I10
tp1738
a(S'tr_lh'
I1
tp1739
a(S'tr_lr'
I127
tp1740
a(S'w'
I5
tp1741
a(S'tr_tl'
I240
tp1742
a(S'w'
I2
tp1743
a(S'tr_ll'
I1
tp1744
a(S'w'
I10
tp1745
a(S'no_vo'
I9
tp1746
a(S'w'
I3
tp1747
a(S'w'
I2
tp1748
a(S'no_ll'
I1
tp1749
a(S'w'
I679
tp1750
a(S'p1_vo'
I9
tp1751
a(S'w'
I6
tp1752
a(S'w'
I16
tp1753
a(S'w'
I27
tp1754
a(S'no_vo'
I6
tp1755
a(S'w'
I2
tp1756
a(S'w'
I688
tp1757
a(S'w'
I16
tp1758
a(S'w'
I28
tp1759
a(S'w'
I690
tp1760
a(S'w'
I16
tp1761
a(S'w'
I27
tp1762
a(S'w'
I691
tp1763
a(S'w'
I16
tp1764
a(S'w'
I28
tp1765
a(S'w'
I689
tp1766
a(S'w'
I11
tp1767
a(S'p2_vo'
I5
tp1768
a(S'w'
I6
tp1769
a(S'w'
I29
tp1770
a(S'w'
I688
tp1771
a(S'w'
I11
tp1772
a(S'p2_vo'
I4
tp1773
a(S'w'
I6
tp1774
a(S'w'
I55
tp1775
a(S'w'
I662
tp1776
a(S'w'
I11
tp1777
a(S'p2_vo'
I10
tp1778
a(S'w'
I6
tp1779
a(S'p2_tl'
I203
tp1780
a(S'w'
I2
tp1781
a(S'p2_ll'
I1
tp1782
a(S'w'
I27
tp1783
a(S'w'
I688
tp1784
a(S'w'
I11
tp1785
a(S'p2_vo'
I7
tp1786
a(S'w'
I7
tp1787
a(S'w'
I26
tp1788
a(S'no_vo'
I4
tp1789
a(S'w'
I2
tp1790
a(S'w'
I688
tp1791
a(S'w'
I16
tp1792
a(S'w'
I26
tp1793
a(S'no_vo'
I3
tp1794
a(S'w'
I3
tp1795
a(S'w'
I688
tp1796
a(S'w'
I17
tp1797
a(S'w'
I26
tp1798
a(S'no_vo'
I2
tp1799
a(S'w'
I3
tp1800
a(S'w'
I688
tp1801
a(S'w'
I17
tp1802
a(S'w'
I26
tp1803
a(S'no_vo'
I1
tp1804
a(S'w'
I2
tp1805
a(S'w'
I689
tp1806
a(S'w'
I17
tp1807
a(S'w'
I25
tp1808
a(S'no_vo'
I0
tp1809
a(S'w'
I3
tp1810
a(S'w'
I689
tp1811
a(S'w'
I16
tp1812
a(S'w'
I29
tp1813
a(S'w'
I689
tp1814
a(S'w'
I16
tp1815
a(S'w'
I29
tp1816
a(S'w'
I688
tp1817
a(S'w'
I17
tp1818
a(S'w'
I29
tp1819
a(S'w'
I688
tp1820
a(S'w'
I17
tp1821
a(S'w'
I29
tp1822
a(S'w'
I688
tp1823
a(S'w'
I17
tp1824
a(S'w'
I9
tp1825
a(S'tr_lh'
I0
tp1826
a(S'tr_lr'
I0
tp1827
a(S'w'
I20
tp1828
a(S'w'
I688
tp1829
a(S'w'
I16
tp1830
a(S'w'
I21
tp1831
a(S'w'
I697
tp1832
a(S'w'
I16
tp1833
a(S'w'
I717
tp1834
a(S'w'
I17
tp1835
a(S'w'
I717
tp1836
a(S'w'
I17
tp1837
a(S'w'
I26
tp1838
a(S'no_vo'
I9
tp1839
a(S'w'
I3
tp1840
a(S'w'
I1
tp1841
a(S'no_ll'
I1
tp1842
a(S'w'
I687
tp1843
a(S'w'
I17
tp1844
a(S'w'
I17
tp1845
a(S'no_vo'
I6
tp1846
a(S'w'
I3
tp1847
a(S'w'
I697
tp1848
a(S'w'
I16
tp1849
a(S'w'
I18
tp1850
a(S'no_vo'
I4
tp1851
a(S'w'
I2
tp1852
a(S'w'
I698
tp1853
a(S'w'
I16
tp1854
a(S'w'
I18
tp1855
a(S'no_vo'
I9
tp1856
a(S'w'
I2
tp1857
a(S'w'
I2
tp1858
a(S'no_ll'
I1
tp1859
a(S'w'
I695
tp1860
a(S'w'
I17
tp1861
a(S'w'
I18
tp1862
a(S'no_vo'
I6
tp1863
a(S'w'
I2
tp1864
a(S'w'
I697
tp1865
a(S'w'
I17
tp1866
a(S'w'
I18
tp1867
a(S'no_vo'
I4
tp1868
a(S'w'
I2
tp1869
a(S'w'
I692
tp1870
a(S'p1_vo'
I7
tp1871
a(S'w'
I6
tp1872
a(S'w'
I17
tp1873
a(S'w'
I17
tp1874
a(S'no_vo'
I3
tp1875
a(S'w'
I3
tp1876
a(S'w'
I691
tp1877
a(S'p1_vo'
I6
tp1878
a(S'w'
I6
tp1879
a(S'w'
I16
tp1880
a(S'w'
I18
tp1881
a(S'no_vo'
I9
tp1882
a(S'w'
I2
tp1883
a(S'w'
I2
tp1884
a(S'no_ll'
I1
tp1885
a(S'w'
I689
tp1886
a(S'p1_vo'
I5
tp1887
a(S'w'
I6
tp1888
a(S'w'
I17
tp1889
a(S'w'
I18
tp1890
a(S'no_vo'
I6
tp1891
a(S'w'
I3
tp1892
a(S'w'
I690
tp1893
a(S'p1_vo'
I4
tp1894
a(S'w'
I6
tp1895
a(S'w'
I35
tp1896
a(S'w'
I34
tp1897
a(S'no_vo'
I4
tp1898
a(S'w'
I3
tp1899
a(S'w'
I656
tp1900
a(S'p1_vo'
I12
tp1901
a(S'w'
I6
tp1902
a(S'p1_tl'
I213
tp1903
a(S'w'
I2
tp1904
a(S'p1_ll'
I1
tp1905
a(S'w'
I16
tp1906
a(S'w'
I9
tp1907
a(S'tr_lh'
I1
tp1908
a(S'tr_lr'
I127
tp1909
a(S'w'
I7
tp1910
a(S'tr_ll'
I1
tp1911
a(S'w'
I11
tp1912
a(S'no_vo'
I9
tp1913
a(S'w'
I2
tp1914
a(S'w'
I2
tp1915
a(S'no_ll'
I1
tp1916
a(S'w'
I679
tp1917
a(S'p1_vo'
I9
tp1918
a(S'w'
I6
tp1919
a(S'w'
I17
tp1920
a(S'w'
I26
tp1921
a(S'no_vo'
I6
tp1922
a(S'w'
I3
tp1923
a(S'w'
I687
tp1924
a(S'w'
I16
tp1925
a(S'w'
I27
tp1926
a(S'no_vo'
I4
tp1927
a(S'w'
I3
tp1928
a(S'w'
I688
tp1929
a(S'w'
I11
tp1930
a(S'p2_vo'
I5
tp1931
a(S'w'
I7
tp1932
a(S'w'
I27
tp1933
a(S'no_vo'
I3
tp1934
a(S'w'
I3
tp1935
a(S'w'
I680
tp1936
a(S'p1_vo'
I7
tp1937
a(S'w'
I6
tp1938
a(S'w'
I30
tp1939
a(S'p2_vo'
I4
tp1940
a(S'w'
I6
tp1941
a(S'w'
I10
tp1942
a(S'tr_lh'
I0
tp1943
a(S'tr_lr'
I0
tp1944
a(S'w'
I34
tp1945
a(S'no_vo'
I9
tp1946
a(S'w'
I3
tp1947
a(S'w'
I1
tp1948
a(S'no_ll'
I1
tp1949
a(S'w'
I644
tp1950
a(S'p1_vo'
I12
tp1951
a(S'w'
I5
tp1952
a(S'p1_tl'
I240
tp1953
a(S'w'
I2
tp1954
a(S'p1_ll'
I1
tp1955
a(S'w'
I11
tp1956
a(S'p2_vo'
I3
tp1957
a(S'w'
I6
tp1958
a(S'w'
I9
tp1959
a(S'tr_lh'
I1
tp1960
a(S'tr_lr'
I127
tp1961
a(S'w'
I7
tp1962
a(S'tr_ll'
I1
tp1963
a(S'w'
I11
tp1964
a(S'no_vo'
I6
tp1965
a(S'w'
I3
tp1966
a(S'w'
I680
tp1967
a(S'p1_vo'
I9
tp1968
a(S'w'
I6
tp1969
a(S'w'
I11
tp1970
a(S'p2_vo'
I2
tp1971
a(S'w'
I6
tp1972
a(S'w'
I26
tp1973
a(S'no_vo'
I4
tp1974
a(S'w'
I3
tp1975
a(S'w'
I686
tp1976
a(S'w'
I11
tp1977
a(S'p2_vo'
I1
tp1978
a(S'w'
I7
tp1979
a(S'w'
I43
tp1980
a(S'no_vo'
I9
tp1981
a(S'w'
I3
tp1982
a(S'w'
I2
tp1983
a(S'no_ll'
I1
tp1984
a(S'w'
I668
tp1985
a(S'w'
I11
tp1986
a(S'p2_vo'
I10
tp1987
a(S'w'
I6
tp1988
a(S'p2_tl'
I215
tp1989
a(S'w'
I2
tp1990
a(S'p2_ll'
I1
tp1991
a(S'w'
I26
tp1992
a(S'no_vo'
I6
tp1993
a(S'w'
I3
tp1994
a(S'w'
I686
tp1995
a(S'w'
I12
tp1996
a(S'p2_vo'
I7
tp1997
a(S'w'
I6
tp1998
a(S'w'
I10
tp1999
a(S'tr_lh'
I0
tp2000
a(S'tr_lr'
I0
tp2001
a(S'w'
I17
tp2002
a(S'no_vo'
I4
tp2003
a(S'w'
I3
tp2004
a(S'w'
I681
tp2005
a(S'p1_vo'
I7
tp2006
a(S'w'
I5
tp2007
a(S'w'
I40
tp2008
a(S'w'
I43
tp2009
a(S'no_vo'
I3
tp2010
a(S'w'
I3
tp2011
a(S'w'
I643
tp2012
a(S'p1_vo'
I12
tp2013
a(S'w'
I6
tp2014
a(S'p1_tl'
I213
tp2015
a(S'w'
I1
tp2016
a(S'p1_ll'
I1
tp2017
a(S'w'
I17
tp2018
a(S'w'
I10
tp2019
a(S'tr_lh'
I1
tp2020
a(S'tr_lr'
I127
tp2021
a(S'w'
I6
tp2022
a(S'tr_ll'
I1
tp2023
a(S'w'
I11
tp2024
a(S'no_vo'
I9
tp2025
a(S'w'
I3
tp2026
a(S'w'
I1
tp2027
a(S'no_ll'
I1
tp2028
a(S'w'
I679
tp2029
a(S'p1_vo'
I9
tp2030
a(S'w'
I6
tp2031
a(S'w'
I11
tp2032
a(S'p2_vo'
I5
tp2033
a(S'w'
I7
tp2034
a(S'w'
I44
tp2035
a(S'no_vo'
I6
tp2036
a(S'w'
I3
tp2037
a(S'w'
I668
tp2038
a(S'w'
I11
tp2039
a(S'p2_vo'
I10
tp2040
a(S'w'
I5
tp2041
a(S'p2_tl'
I242
tp2042
a(S'w'
I2
tp2043
a(S'p2_ll'
I1
tp2044
a(S'w'
I27
tp2045
a(S'w'
I688
tp2046
a(S'w'
I12
tp2047
a(S'p2_vo'
I7
tp2048
a(S'w'
I6
tp2049
a(S'w'
I27
tp2050
a(S'w'
I689
tp2051
a(S'w'
I16
tp2052
a(S'w'
I26
tp2053
a(S'no_vo'
I4
tp2054
a(S'w'
I3
tp2055
a(S'w'
I689
tp2056
a(S'w'
I16
tp2057
a(S'w'
I26
tp2058
a(S'no_vo'
I3
tp2059
a(S'w'
I3
tp2060
a(S'w'
I689
tp2061
a(S'w'
I16
tp2062
a(S'w'
I49
tp2063
a(S'no_vo'
I2
tp2064
a(S'w'
I2
tp2065
a(S'w'
I667
tp2066
a(S'w'
I11
tp2067
a(S'p2_vo'
I10
tp2068
a(S'w'
I6
tp2069
a(S'p2_tl'
I215
tp2070
a(S'w'
I2
tp2071
a(S'p2_ll'
I1
tp2072
a(S'w'
I26
tp2073
a(S'no_vo'
I1
tp2074
a(S'w'
I2
tp2075
a(S'w'
I686
tp2076
a(S'w'
I12
tp2077
a(S'p2_vo'
I7
tp2078
a(S'w'
I6
tp2079
a(S'w'
I10
tp2080
a(S'tr_lh'
I0
tp2081
a(S'tr_lr'
I0
tp2082
a(S'w'
I17
tp2083
a(S'no_vo'
I0
tp2084
a(S'w'
I3
tp2085
a(S'w'
I686
tp2086
a(S'w'
I17
tp2087
a(S'w'
I46
tp2088
a(S'w'
I671
tp2089
a(S'w'
I17
tp2090
a(S'w'
I10
tp2091
a(S'tr_lh'
I1
tp2092
a(S'tr_lr'
I127
tp2093
a(S'w'
I6
tp2094
a(S'tr_ll'
I1
tp2095
a(S'w'
I11
tp2096
a(S'no_vo'
I9
tp2097
a(S'w'
I3
tp2098
a(S'w'
I1
tp2099
a(S'no_ll'
I1
tp2100
a(S'w'
I681
tp2101
a(S'p1_vo'
I7
tp2102
a(S'w'
I6
tp2103
a(S'w'
I17
tp2104
a(S'w'
I26
tp2105
a(S'no_vo'
I6
tp2106
a(S'w'
I3
tp2107
a(S'w'
I681
tp2108
a(S'p1_vo'
I6
tp2109
a(S'w'
I7
tp2110
a(S'w'
I16
tp2111
a(S'w'
I28
tp2112
a(S'w'
I683
tp2113
a(S'p1_vo'
I5
tp2114
a(S'w'
I6
tp2115
a(S'w'
I35
tp2116
a(S'w'
I27
tp2117
a(S'w'
I666
tp2118
a(S'p1_vo'
I12
tp2119
a(S'w'
I5
tp2120
a(S'p1_tl'
I240
tp2121
a(S'w'
I2
tp2122
a(S'p1_ll'
I1
tp2123
a(S'w'
I16
tp2124
a(S'w'
I26
tp2125
a(S'no_vo'
I4
tp2126
a(S'w'
I3
tp2127
a(S'w'
I682
tp2128
a(S'p1_vo'
I9
tp2129
a(S'w'
I6
tp2130
a(S'w'
I16
tp2131
a(S'w'
I26
tp2132
a(S'no_vo'
I3
tp2133
a(S'w'
I3
tp2134
a(S'w'
I687
tp2135
a(S'w'
I17
tp2136
a(S'w'
I26
tp2137
a(S'no_vo'
I2
tp2138
a(S'w'
I2
tp2139
a(S'w'
I689
tp2140
a(S'w'
I17
tp2141
a(S'w'
I26
tp2142
a(S'no_vo'
I1
tp2143
a(S'w'
I3
tp2144
a(S'w'
I688
tp2145
a(S'w'
I16
tp2146
a(S'w'
I11
tp2147
a(S'tr_lh'
I0
tp2148
a(S'tr_lr'
I0
tp2149
a(S'w'
I17
tp2150
a(S'no_vo'
I0
tp2151
a(S'w'
I3
tp2152
a(S'w'
I687
tp2153
a(S'w'
I11
tp2154
a(S'p2_vo'
I5
tp2155
a(S'w'
I6
tp2156
a(S'w'
I30
tp2157
a(S'w'
I686
tp2158
a(S'w'
I11
tp2159
a(S'p2_vo'
I4
tp2160
a(S'w'
I7
tp2161
a(S'w'
I64
tp2162
a(S'w'
I652
tp2163
a(S'w'
I11
tp2164
a(S'p2_vo'
I10
tp2165
a(S'w'
I6
tp2166
a(S'p2_tl'
I242
tp2167
a(S'w'
I2
tp2168
a(S'p2_ll'
I1
tp2169
a(S'w'
I9
tp2170
a(S'tr_lh'
I1
tp2171
a(S'tr_lr'
I127
tp2172
a(S'w'
I6
tp2173
a(S'tr_tl'
I106
tp2174
a(S'w'
I2
tp2175
a(S'tr_ll'
I1
tp2176
a(S'w'
I11
tp2177
a(S'no_vo'
I9
tp2178
a(S'w'
I2
tp2179
a(S'w'
I2
tp2180
a(S'no_ll'
I1
tp2181
a(S'w'
I683
tp2182
a(S'w'
I11
tp2183
a(S'p2_vo'
I7
tp2184
a(S'w'
I6
tp2185
a(S'w'
I23
tp2186
a(S'tr_tl'
I111
tp2187
a(S'w'
I12
tp2188
a(S'no_vo'
I6
tp2189
a(S'w'
I3
tp2190
a(S'w'
I679
tp2191
a(S'w'
I16
tp2192
a(S'w'
I22
tp2193
a(S'tr_tl'
I121
tp2194
a(S'w'
I13
tp2195
a(S'w'
I683
tp2196
a(S'w'
I16
tp2197
a(S'w'
I23
tp2198
a(S'tr_tl'
I131
tp2199
a(S'w'
I14
tp2200
a(S'w'
I676
tp2201
a(S'p1_vo'
I7
tp2202
a(S'w'
I5
tp2203
a(S'w'
I17
tp2204
a(S'w'
I22
tp2205
a(S'tr_tl'
I141
tp2206
a(S'w'
I12
tp2207
a(S'no_vo'
I4
tp2208
a(S'w'
I2
tp2209
a(S'w'
I676
tp2210
a(S'p1_vo'
I6
tp2211
a(S'w'
I5
tp2212
a(S'w'
I16
tp2213
a(S'w'
I23
tp2214
a(S'tr_tl'
I151
tp2215
a(S'w'
I11
tp2216
a(S'no_vo'
I3
tp2217
a(S'w'
I3
tp2218
a(S'w'
I675
tp2219
a(S'p1_vo'
I5
tp2220
a(S'w'
I6
tp2221
a(S'w'
I34
tp2222
a(S'w'
I23
tp2223
a(S'tr_tl'
I161
tp2224
a(S'w'
I11
tp2225
a(S'no_vo'
I2
tp2226
a(S'w'
I3
tp2227
a(S'w'
I657
tp2228
a(S'p1_vo'
I12
tp2229
a(S'w'
I6
tp2230
a(S'p1_tl'
I13
tp2231
a(S'w'
I1
tp2232
a(S'p1_ll'
I1
tp2233
a(S'p1_th'
I1
tp2234
a(S'w'
I16
tp2235
a(S'w'
I23
tp2236
a(S'tr_tl'
I171
tp2237
a(S'w'
I12
tp2238
a(S'no_vo'
I1
tp2239
a(S'w'
I2
tp2240
a(S'w'
I674
tp2241
a(S'p1_vo'
I9
tp2242
a(S'w'
I6
tp2243
a(S'w'
I16
tp2244
a(S'w'
I10
tp2245
a(S'tr_lh'
I0
tp2246
a(S'tr_lr'
I0
tp2247
a(S'w'
I13
tp2248
a(S'tr_tl'
I181
tp2249
a(S'w'
I12
tp2250
a(S'no_vo'
I0
tp2251
a(S'w'
I2
tp2252
a(S'w'
I679
tp2253
a(S'w'
I16
tp2254
a(S'w'
I24
tp2255
a(S'tr_tl'
I191
tp2256
a(S'w'
I32
tp2257
a(S'w'
I662
tp2258
a(S'w'
I16
tp2259
a(S'w'
I10
tp2260
a(S'tr_lh'
I1
tp2261
a(S'tr_lr'
I127
tp2262
a(S'w'
I6
tp2263
a(S'tr_tl'
I106
tp2264
a(S'w'
I2
tp2265
a(S'tr_ll'
I1
tp2266
a(S'w'
I11
tp2267
a(S'no_vo'
I9
tp2268
a(S'w'
I2
tp2269
a(S'w'
I2
tp2270
a(S'no_ll'
I1
tp2271
a(S'w'
I685
tp2272
a(S'w'
I16
tp2273
a(S'w'
I23
tp2274
a(S'tr_tl'
I111
tp2275
a(S'w'
I12
tp2276
a(S'no_vo'
I6
tp2277
a(S'w'
I3
tp2278
a(S'w'
I680
tp2279
a(S'w'
I11
tp2280
a(S'p2_vo'
I5
tp2281
a(S'w'
I6
tp2282
a(S'w'
I23
tp2283
a(S'tr_tl'
I121
tp2284
a(S'w'
I13
tp2285
a(S'w'
I681
tp2286
a(S'w'
I11
tp2287
a(S'p2_vo'
I4
tp2288
a(S'w'
I6
tp2289
a(S'w'
I45
tp2290
a(S'tr_tl'
I131
tp2291
a(S'w'
I13
tp2292
a(S'w'
I658
tp2293
a(S'w'
I12
tp2294
a(S'p2_vo'
I10
tp2295
a(S'w'
I5
tp2296
a(S'p2_tl'
I15
tp2297
a(S'w'
I2
tp2298
a(S'p2_ll'
I1
tp2299
a(S'p2_th'
I1
tp2300
a(S'w'
I22
tp2301
a(S'tr_tl'
I141
tp2302
a(S'w'
I11
tp2303
a(S'no_vo'
I4
tp2304
a(S'w'
I3
tp2305
a(S'w'
I679
tp2306
a(S'w'
I12
tp2307
a(S'p2_vo'
I7
tp2308
a(S'w'
I6
tp2309
a(S'w'
I22
tp2310
a(S'tr_tl'
I151
tp2311
a(S'w'
I12
tp2312
a(S'no_vo'
I3
tp2313
a(S'w'
I2
tp2314
a(S'w'
I680
tp2315
a(S'w'
I16
tp2316
a(S'w'
I23
tp2317
a(S'tr_tl'
I161
tp2318
a(S'w'
I12
tp2319
a(S'no_vo'
I2
tp2320
a(S'w'
I2
tp2321
a(S'w'
I681
tp2322
a(S'w'
I16
tp2323
a(S'w'
I45
tp2324
a(S'tr_tl'
I171
tp2325
a(S'w'
I12
tp2326
a(S'no_vo'
I1
tp2327
a(S'w'
I3
tp2328
a(S'w'
I653
tp2329
a(S'p1_vo'
I7
tp2330
a(S'w'
I5
tp2331
a(S'w'
I17
tp2332
a(S'w'
I10
tp2333
a(S'tr_lh'
I0
tp2334
a(S'tr_lr'
I0
tp2335
a(S'w'
I13
tp2336
a(S'tr_tl'
I181
tp2337
a(S'w'
I12
tp2338
a(S'no_vo'
I0
tp2339
a(S'w'
I3
tp2340
a(S'w'
I674
tp2341
a(S'p1_vo'
I6
tp2342
a(S'w'
I5
tp2343
a(S'w'
I16
tp2344
a(S'w'
I25
tp2345
a(S'tr_tl'
I191
tp2346
a(S'w'
I14
tp2347
a(S'w'
I674
tp2348
a(S'p1_vo'
I5
tp2349
a(S'w'
I5
tp2350
a(S'w'
I57
tp2351
a(S'p2_vo'
I5
tp2352
a(S'w'
I6
tp2353
a(S'w'
I94
tp2354
a(S'w'
I572
tp2355
a(S'p1_du'
I3
tp2356
a(S'p1_vo'
I12
tp2357
a(S'w'
I5
tp2358
a(S'p1_tl'
I190
tp2359
a(S'w'
I2
tp2360
a(S'p1_ll'
I1
tp2361
a(S'p1_th'
I0
tp2362
a(S'w'
I11
tp2363
a(S'p2_du'
I1
tp2364
a(S'p2_vo'
I12
tp2365
a(S'w'
I6
tp2366
a(S'p2_tl'
I66
tp2367
a(S'w'
I1
tp2368
a(S'p2_ll'
I1
tp2369
a(S'w'
I9
tp2370
a(S'tr_lh'
I1
tp2371
a(S'tr_lr'
I127
tp2372
a(S'w'
I5
tp2373
a(S'tr_tl'
I240
tp2374
a(S'w'
I2
tp2375
a(S'tr_ll'
I1
tp2376
a(S'w'
I11
tp2377
a(S'no_vo'
I5
tp2378
a(S'w'
I2
tp2379
a(S'no_np'
I3
tp2380
a(S'w'
I2
tp2381
a(S'no_ll'
I1
tp2382
a(S'w'
I684
tp2383
a(S'w'
I11
tp2384
a(S'p2_vo'
I9
tp2385
a(S'w'
I6
tp2386
a(S'w'
I26
tp2387
a(S'no_vo'
I2
tp2388
a(S'w'
I3
tp2389
a(S'w'
I686
tp2390
a(S'w'
I16
tp2391
a(S'w'
I28
tp2392
a(S'w'
I690
tp2393
a(S'w'
I17
tp2394
a(S'w'
I28
tp2395
a(S'w'
I684
tp2396
a(S'p1_vo'
I0
tp2397
a(S'w'
I6
tp2398
a(S'w'
I16
tp2399
a(S'p2_vo'
I7
tp2400
a(S'w'
I6
tp2401
a(S'w'
I31
tp2402
a(S'no_vo'
I0
tp2403
a(S'w'
I2
tp2404
a(S'w'
I679
tp2405
a(S'w'
I11
tp2406
a(S'p2_vo'
I6
tp2407
a(S'w'
I6
tp2408
a(S'w'
I28
tp2409
a(S'w'
I688
tp2410
a(S'p2_vo'
I5
tp2411
a(S'w'
I6
tp2412
a(S'w'
I29
tp2413
a(S'w'
I699
tp2414
a(S'p2_vo'
I4
tp2415
a(S'w'
I6
tp2416
a(S'w'
I29
tp2417
a(S'w'
I699
tp2418
a(S'p2_vo'
I3
tp2419
a(S'w'
I6
tp2420
a(S'w'
I29
tp2421
a(S'w'
I699
tp2422
a(S'p2_vo'
I1
tp2423
a(S'w'
I6
tp2424
a(S'w'
I28
tp2425
a(S'w'
I700
tp2426
a(S'p2_vo'
I0
tp2427
a(S'w'
I6
tp2428
a(S'w'
I25
tp2429
a(S'no_vo'
I5
tp2430
a(S'w'
I3
tp2431
a(S'w'
I2
tp2432
a(S'no_ll'
I1
tp2433
a(S'w'
I703
tp2434
a(S'w'
I27
tp2435
a(S'no_vo'
I2
tp2436
a(S'w'
I2
tp2437
a(S'w'
I705
tp2438
a(S'w'
I26
tp2439
a(S'no_vo'
I0
tp2440
a(S'w'
I3
tp2441
a(S'w'
I705
tp2442
a(S'w'
I29
tp2443
a(S'w'
I723
tp2444
a(S'w'
I46
tp2445
a(S'w'
I658
tp2446
a(S'p1_vo'
I12
tp2447
a(S'w'
I5
tp2448
a(S'w'
I2
tp2449
a(S'p1_ll'
I1
tp2450
a(S'w'
I11
tp2451
a(S'p2_vo'
I12
tp2452
a(S'w'
I6
tp2453
a(S'w'
I1
tp2454
a(S'p2_ll'
I1
tp2455
a(S'w'
I26
tp2456
a(S'no_vo'
I5
tp2457
a(S'w'
I2
tp2458
a(S'w'
I2
tp2459
a(S'no_ll'
I1
tp2460
a(S'w'
I685
tp2461
a(S'w'
I11
tp2462
a(S'p2_vo'
I9
tp2463
a(S'w'
I6
tp2464
a(S'w'
I27
tp2465
a(S'no_vo'
I2
tp2466
a(S'w'
I3
tp2467
a(S'w'
I685
tp2468
a(S'w'
I16
tp2469
a(S'w'
I10
tp2470
a(S'tr_lh'
I0
tp2471
a(S'tr_lr'
I0
tp2472
a(S'w'
I17
tp2473
a(S'no_vo'
I0
tp2474
a(S'w'
I2
tp2475
a(S'w'
I689
tp2476
a(S'w'
I16
tp2477
a(S'w'
I20
tp2478
a(S'w'
I698
tp2479
a(S'w'
I17
tp2480
a(S'w'
I20
tp2481
a(S'w'
I692
tp2482
a(S'p1_vo'
I0
tp2483
a(S'w'
I6
tp2484
a(S'w'
I33
tp2485
a(S'p2_vo'
I7
tp2486
a(S'w'
I6
tp2487
a(S'w'
I48
tp2488
a(S'w'
I640
tp2489
a(S'p1_vo'
I12
tp2490
a(S'w'
I6
tp2491
a(S'p1_tl'
I160
tp2492
a(S'w'
I2
tp2493
a(S'p1_ll'
I1
tp2494
a(S'w'
I11
tp2495
a(S'p2_vo'
I12
tp2496
a(S'w'
I5
tp2497
a(S'p2_tl'
I242
tp2498
a(S'w'
I2
tp2499
a(S'p2_ll'
I1
tp2500
a(S'p2_th'
I0
tp2501
a(S'w'
I26
tp2502
a(S'no_vo'
I6
tp2503
a(S'w'
I3
tp2504
a(S'w'
I1
tp2505
a(S'no_ll'
I1
tp2506
a(S'w'
I684
tp2507
a(S'w'
I12
tp2508
a(S'p2_vo'
I9
tp2509
a(S'w'
I6
tp2510
a(S'w'
I17
tp2511
a(S'no_vo'
I3
tp2512
a(S'w'
I3
tp2513
a(S'w'
I695
tp2514
a(S'w'
I16
tp2515
a(S'w'
I19
tp2516
a(S'w'
I699
tp2517
a(S'w'
I16
tp2518
a(S'w'
I19
tp2519
a(S'w'
I699
tp2520
a(S'w'
I16
tp2521
a(S'w'
I17
tp2522
a(S'no_vo'
I1
tp2523
a(S'w'
I3
tp2524
a(S'w'
I698
tp2525
a(S'w'
I16
tp2526
a(S'w'
I17
tp2527
a(S'no_vo'
I0
tp2528
a(S'w'
I3
tp2529
a(S'w'
I697
tp2530
a(S'w'
I16
tp2531
a(S'w'
I21
tp2532
a(S'w'
I697
tp2533
a(S'w'
I16
tp2534
a(S'w'
I20
tp2535
a(S'w'
I698
tp2536
a(S'w'
I16
tp2537
a(S'w'
I20
tp2538
a(S'w'
I698
tp2539
a(S'w'
I16
tp2540
a(S'w'
I37
tp2541
a(S'w'
I681
tp2542
a(S'w'
I16
tp2543
a(S'w'
I9
tp2544
a(S'tr_lh'
I1
tp2545
a(S'tr_lr'
I127
tp2546
a(S'w'
I7
tp2547
a(S'tr_ll'
I1
tp2548
a(S'w'
I10
tp2549
a(S'no_vo'
I6
tp2550
a(S'w'
I3
tp2551
a(S'w'
I2
tp2552
a(S'no_ll'
I1
tp2553
a(S'w'
I686
tp2554
a(S'w'
I16
tp2555
a(S'w'
I27
tp2556
a(S'no_vo'
I3
tp2557
a(S'w'
I2
tp2558
a(S'w'
I689
tp2559
a(S'w'
I16
tp2560
a(S'w'
I26
tp2561
a(S'no_vo'
I1
tp2562
a(S'w'
I3
tp2563
a(S'w'
I689
tp2564
a(S'w'
I16
tp2565
a(S'w'
I26
tp2566
a(S'no_vo'
I0
tp2567
a(S'w'
I3
tp2568
a(S'w'
I689
tp2569
a(S'w'
I16
tp2570
a(S'w'
I10
tp2571
a(S'tr_lh'
I0
tp2572
a(S'tr_lr'
I0
tp2573
a(S'w'
I36
tp2574
a(S'w'
I672
tp2575
a(S'w'
I16
tp2576
a(S'w'
I9
tp2577
a(S'tr_lh'
I1
tp2578
a(S'tr_lr'
I127
tp2579
a(S'w'
I7
tp2580
a(S'tr_ll'
I1
tp2581
a(S'w'
I10
tp2582
a(S'no_vo'
I6
tp2583
a(S'w'
I3
tp2584
a(S'w'
I2
tp2585
a(S'no_ll'
I1
tp2586
a(S'w'
I686
tp2587
a(S'w'
I16
tp2588
a(S'w'
I27
tp2589
a(S'no_vo'
I3
tp2590
a(S'w'
I2
tp2591
a(S'w'
I689
tp2592
a(S'w'
I16
tp2593
a(S'w'
I26
tp2594
a(S'no_vo'
I1
tp2595
a(S'w'
I3
tp2596
a(S'w'
I689
tp2597
a(S'w'
I16
tp2598
a(S'w'
I26
tp2599
a(S'no_vo'
I0
tp2600
a(S'w'
I3
tp2601
a(S'w'
I689
tp2602
a(S'w'
I16
tp2603
a(S'w'
I9
tp2604
a(S'tr_lh'
I0
tp2605
a(S'tr_lr'
I0
tp2606
a(S'w'
I21
tp2607
a(S'w'
I688
tp2608
a(S'w'
I42
tp2609
a(S'w'
I73
tp2610
a(S'w'
I619
tp2611
a(S'w'
I17
tp2612
a(S'w'
I9
tp2613
a(S'tr_lh'
I1
tp2614
a(S'tr_lr'
I127
tp2615
a(S'w'
I7
tp2616
a(S'tr_ll'
I1
tp2617
a(S'w'
I11
tp2618
a(S'no_vo'
I7
tp2619
a(S'w'
I3
tp2620
a(S'w'
I1
tp2621
a(S'no_ll'
I1
tp2622
a(S'w'
I693
tp2623
a(S'w'
I24
tp2624
a(S'p2_tl'
I243
tp2625
a(S'w'
I27
tp2626
a(S'no_vo'
I4
tp2627
a(S'w'
I2
tp2628
a(S'w'
I681
tp2629
a(S'p1_tl'
I161
tp2630
a(S'w'
I24
tp2631
a(S'p2_tl'
I245
tp2632
a(S'w'
I29
tp2633
a(S'w'
I681
tp2634
a(S'w'
I25
tp2635
a(S'w'
I28
tp2636
a(S'w'
I681
tp2637
a(S'w'
I24
tp2638
a(S'p2_tl'
I243
tp2639
a(S'w'
I27
tp2640
a(S'no_vo'
I2
tp2641
a(S'w'
I2
tp2642
a(S'w'
I679
tp2643
a(S'p1_tl'
I160
tp2644
a(S'w'
I23
tp2645
a(S'p2_tl'
I242
tp2646
a(S'w'
I26
tp2647
a(S'no_vo'
I1
tp2648
a(S'w'
I3
tp2649
a(S'w'
I683
tp2650
a(S'p1_tl'
I159
tp2651
a(S'w'
I23
tp2652
a(S'p2_tl'
I240
tp2653
a(S'w'
I26
tp2654
a(S'no_vo'
I0
tp2655
a(S'w'
I3
tp2656
a(S'w'
I682
tp2657
a(S'p1_tl'
I158
tp2658
a(S'w'
I25
tp2659
a(S'p2_tl'
I239
tp2660
a(S'w'
I30
tp2661
a(S'w'
I679
tp2662
a(S'w'
I26
tp2663
a(S'p2_tl'
I238
tp2664
a(S'w'
I10
tp2665
a(S'tr_lh'
I0
tp2666
a(S'tr_lr'
I0
tp2667
a(S'w'
I20
tp2668
a(S'w'
I676
tp2669
a(S'p1_tl'
I159
tp2670
a(S'w'
I24
tp2671
a(S'p2_tl'
I240
tp2672
a(S'w'
I47
tp2673
a(S'w'
I663
tp2674
a(S'w'
I24
tp2675
a(S'p2_tl'
I241
tp2676
a(S'w'
I10
tp2677
a(S'tr_lh'
I1
tp2678
a(S'tr_lr'
I127
tp2679
a(S'w'
I7
tp2680
a(S'tr_ll'
I1
tp2681
a(S'w'
I11
tp2682
a(S'no_vo'
I7
tp2683
a(S'w'
I2
tp2684
a(S'w'
I2
tp2685
a(S'no_ll'
I1
tp2686
a(S'w'
I678
tp2687
a(S'p1_tl'
I160
tp2688
a(S'w'
I23
tp2689
a(S'p2_tl'
I243
tp2690
a(S'w'
I27
tp2691
a(S'no_vo'
I4
tp2692
a(S'w'
I3
tp2693
a(S'w'
I681
tp2694
a(S'p1_tl'
I161
tp2695
a(S'w'
I24
tp2696
a(S'p2_tl'
I244
tp2697
a(S'w'
I27
tp2698
a(S'no_vo'
I2
tp2699
a(S'w'
I3
tp2700
a(S'w'
I681
tp2701
a(S'p1_tl'
I162
tp2702
a(S'w'
I25
tp2703
a(S'p2_tl'
I245
tp2704
a(S'w'
I26
tp2705
a(S'no_vo'
I1
tp2706
a(S'w'
I3
tp2707
a(S'w'
I679
tp2708
a(S'p1_tl'
I161
tp2709
a(S'w'
I25
tp2710
a(S'p2_tl'
I244
tp2711
a(S'w'
I26
tp2712
a(S'no_vo'
I0
tp2713
a(S'w'
I2
tp2714
a(S'w'
I681
tp2715
a(S'p1_tl'
I160
tp2716
a(S'w'
I24
tp2717
a(S'p2_tl'
I242
tp2718
a(S'w'
I26
tp2719
a(S'no_vo'
I7
tp2720
a(S'w'
I3
tp2721
a(S'w'
I2
tp2722
a(S'no_ll'
I1
tp2723
a(S'w'
I678
tp2724
a(S'p1_tl'
I159
tp2725
a(S'w'
I23
tp2726
a(S'p2_tl'
I241
tp2727
a(S'w'
I27
tp2728
a(S'no_vo'
I4
tp2729
a(S'w'
I3
tp2730
a(S'w'
I682
tp2731
a(S'w'
I25
tp2732
a(S'p2_tl'
I239
tp2733
a(S'w'
I27
tp2734
a(S'no_vo'
I2
tp2735
a(S'w'
I3
tp2736
a(S'w'
I666
tp2737
a(S'p1_vo'
I11
tp2738
a(S'w'
I14
tp2739
a(S'p1_tl'
I158
tp2740
a(S'w'
I12
tp2741
a(S'p2_vo'
I8
tp2742
a(S'w'
I15
tp2743
a(S'p2_tl'
I238
tp2744
a(S'w'
I10
tp2745
a(S'tr_lh'
I0
tp2746
a(S'tr_lr'
I0
tp2747
a(S'w'
I17
tp2748
a(S'no_vo'
I1
tp2749
a(S'w'
I3
tp2750
a(S'w'
I676
tp2751
a(S'w'
I25
tp2752
a(S'p2_tl'
I239
tp2753
a(S'w'
I27
tp2754
a(S'no_vo'
I0
tp2755
a(S'w'
I3
tp2756
a(S'w'
I665
tp2757
a(S'p1_vo'
I10
tp2758
a(S'w'
I14
tp2759
a(S'p1_tl'
I159
tp2760
a(S'w'
I43
tp2761
a(S'p2_vo'
I7
tp2762
a(S'w'
I13
tp2763
a(S'p2_tl'
I241
tp2764
a(S'w'
I69
tp2765
a(S'w'
I595
tp2766
a(S'p1_vo'
I12
tp2767
a(S'w'
I6
tp2768
a(S'p1_tl'
I190
tp2769
a(S'w'
I2
tp2770
a(S'p1_ll'
I1
tp2771
a(S'w'
I10
tp2772
a(S'p2_vo'
I12
tp2773
a(S'w'
I6
tp2774
a(S'p2_tl'
I66
tp2775
a(S'w'
I2
tp2776
a(S'p2_ll'
I1
tp2777
a(S'p2_th'
I1
tp2778
a(S'w'
I9
tp2779
a(S'tr_lh'
I1
tp2780
a(S'tr_lr'
I127
tp2781
a(S'w'
I6
tp2782
a(S'tr_ll'
I1
tp2783
a(S'w'
I11
tp2784
a(S'no_vo'
I8
tp2785
a(S'w'
I3
tp2786
a(S'w'
I1
tp2787
a(S'no_ll'
I1
tp2788
a(S'w'
I678
tp2789
a(S'p1_vo'
I9
tp2790
a(S'w'
I6
tp2791
a(S'w'
I11
tp2792
a(S'p2_vo'
I9
tp2793
a(S'w'
I6
tp2794
a(S'w'
I26
tp2795
a(S'no_vo'
I5
tp2796
a(S'w'
I3
tp2797
a(S'w'
I687
tp2798
a(S'w'
I16
tp2799
a(S'w'
I27
tp2800
a(S'w'
I691
tp2801
a(S'w'
I16
tp2802
a(S'w'
I27
tp2803
a(S'w'
I690
tp2804
a(S'w'
I16
tp2805
a(S'w'
I26
tp2806
a(S'no_vo'
I3
tp2807
a(S'w'
I3
tp2808
a(S'w'
I689
tp2809
a(S'w'
I17
tp2810
a(S'w'
I26
tp2811
a(S'no_vo'
I2
tp2812
a(S'w'
I3
tp2813
a(S'w'
I683
tp2814
a(S'p1_vo'
I6
tp2815
a(S'w'
I6
tp2816
a(S'w'
I29
tp2817
a(S'p2_vo'
I6
tp2818
a(S'w'
I6
tp2819
a(S'w'
I43
tp2820
a(S'no_vo'
I1
tp2821
a(S'w'
I3
tp2822
a(S'w'
I647
tp2823
a(S'p1_vo'
I12
tp2824
a(S'w'
I6
tp2825
a(S'w'
I1
tp2826
a(S'p1_ll'
I1
tp2827
a(S'w'
I11
tp2828
a(S'p2_vo'
I12
tp2829
a(S'w'
I6
tp2830
a(S'w'
I1
tp2831
a(S'p2_ll'
I1
tp2832
a(S'w'
I26
tp2833
a(S'no_vo'
I0
tp2834
a(S'w'
I3
tp2835
a(S'w'
I679
tp2836
a(S'p1_vo'
I9
tp2837
a(S'w'
I6
tp2838
a(S'w'
I11
tp2839
a(S'p2_vo'
I9
tp2840
a(S'w'
I6
tp2841
a(S'w'
I10
tp2842
a(S'tr_lh'
I0
tp2843
a(S'tr_lr'
I0
tp2844
a(S'w'
I20
tp2845
a(S'w'
I686
tp2846
a(S'w'
I16
tp2847
a(S'w'
I47
tp2848
a(S'w'
I671
tp2849
a(S'w'
I16
tp2850
a(S'w'
I9
tp2851
a(S'tr_lh'
I1
tp2852
a(S'tr_lr'
I127
tp2853
a(S'w'
I7
tp2854
a(S'tr_ll'
I1
tp2855
a(S'w'
I11
tp2856
a(S'no_vo'
I8
tp2857
a(S'w'
I3
tp2858
a(S'w'
I1
tp2859
a(S'no_ll'
I1
tp2860
a(S'w'
I687
tp2861
a(S'w'
I16
tp2862
a(S'w'
I26
tp2863
a(S'no_vo'
I5
tp2864
a(S'w'
I3
tp2865
a(S'w'
I689
tp2866
a(S'w'
I16
tp2867
a(S'w'
I27
tp2868
a(S'no_vo'
I3
tp2869
a(S'w'
I3
tp2870
a(S'w'
I682
tp2871
a(S'p1_vo'
I6
tp2872
a(S'w'
I6
tp2873
a(S'w'
I29
tp2874
a(S'p2_vo'
I6
tp2875
a(S'w'
I6
tp2876
a(S'w'
I44
tp2877
a(S'no_vo'
I2
tp2878
a(S'w'
I2
tp2879
a(S'w'
I647
tp2880
a(S'p1_vo'
I12
tp2881
a(S'w'
I6
tp2882
a(S'p1_tl'
I160
tp2883
a(S'w'
I2
tp2884
a(S'p1_ll'
I1
tp2885
a(S'w'
I11
tp2886
a(S'p2_vo'
I12
tp2887
a(S'w'
I5
tp2888
a(S'p2_tl'
I242
tp2889
a(S'w'
I2
tp2890
a(S'p2_ll'
I1
tp2891
a(S'p2_th'
I0
tp2892
a(S'w'
I25
tp2893
a(S'no_vo'
I1
tp2894
a(S'w'
I3
tp2895
a(S'w'
I680
tp2896
a(S'p1_vo'
I9
tp2897
a(S'w'
I6
tp2898
a(S'w'
I11
tp2899
a(S'p2_vo'
I9
tp2900
a(S'w'
I6
tp2901
a(S'w'
I26
tp2902
a(S'no_vo'
I8
tp2903
a(S'w'
I2
tp2904
a(S'w'
I2
tp2905
a(S'no_ll'
I1
tp2906
a(S'w'
I686
tp2907
a(S'w'
I16
tp2908
a(S'w'
I26
tp2909
a(S'no_vo'
I5
tp2910
a(S'w'
I3
tp2911
a(S'w'
I689
tp2912
a(S'w'
I16
tp2913
a(S'w'
I26
tp2914
a(S'no_vo'
I3
tp2915
a(S'w'
I3
tp2916
a(S'w'
I689
tp2917
a(S'w'
I16
tp2918
a(S'w'
I9
tp2919
a(S'tr_lh'
I0
tp2920
a(S'tr_lr'
I0
tp2921
a(S'w'
I17
tp2922
a(S'no_vo'
I2
tp2923
a(S'w'
I3
tp2924
a(S'w'
I688
tp2925
a(S'w'
I17
tp2926
a(S'w'
I27
tp2927
a(S'no_vo'
I1
tp2928
a(S'w'
I3
tp2929
a(S'w'
I682
tp2930
a(S'p1_vo'
I6
tp2931
a(S'w'
I6
tp2932
a(S'w'
I41
tp2933
a(S'p2_vo'
I6
tp2934
a(S'w'
I6
tp2935
a(S'w'
I65
tp2936
a(S'no_vo'
I0
tp2937
a(S'w'
I2
tp2938
a(S'w'
I614
tp2939
a(S'p1_vo'
I14
tp2940
a(S'w'
I6
tp2941
a(S'p1_tl'
I169
tp2942
a(S'w'
I1
tp2943
a(S'p1_ll'
I1
tp2944
a(S'w'
I11
tp2945
a(S'p2_vo'
I13
tp2946
a(S'w'
I6
tp2947
a(S'p2_tl'
I31
tp2948
a(S'w'
I2
tp2949
a(S'p2_ll'
I1
tp2950
a(S'p2_th'
I1
tp2951
a(S'w'
I8
tp2952
a(S'tr_lh'
I1
tp2953
a(S'tr_lr'
I127
tp2954
a(S'w'
I6
tp2955
a(S'tr_tl'
I213
tp2956
a(S'w'
I2
tp2957
a(S'tr_ll'
I1
tp2958
a(S'w'
I11
tp2959
a(S'no_vo'
I10
tp2960
a(S'w'
I2
tp2961
a(S'w'
I2
tp2962
a(S'no_ll'
I1
tp2963
a(S'w'
I677
tp2964
a(S'p1_vo'
I11
tp2965
a(S'w'
I6
tp2966
a(S'w'
I11
tp2967
a(S'p2_vo'
I10
tp2968
a(S'w'
I5
tp2969
a(S'w'
I27
tp2970
a(S'no_vo'
I7
tp2971
a(S'w'
I3
tp2972
a(S'w'
I687
tp2973
a(S'w'
I16
tp2974
a(S'w'
I28
tp2975
a(S'w'
I689
tp2976
a(S'w'
I17
tp2977
a(S'w'
I29
tp2978
a(S'w'
I683
tp2979
a(S'p1_vo'
I8
tp2980
a(S'w'
I6
tp2981
a(S'w'
I16
tp2982
a(S'p2_vo'
I7
tp2983
a(S'w'
I6
tp2984
a(S'w'
I31
tp2985
a(S'no_vo'
I5
tp2986
a(S'w'
I3
tp2987
a(S'w'
I672
tp2988
a(S'p1_vo'
I6
tp2989
a(S'w'
I6
tp2990
a(S'w'
I11
tp2991
a(S'p2_vo'
I5
tp2992
a(S'w'
I6
tp2993
a(S'w'
I26
tp2994
a(S'no_vo'
I4
tp2995
a(S'w'
I3
tp2996
a(S'w'
I682
tp2997
a(S'p1_vo'
I3
tp2998
a(S'w'
I6
tp2999
a(S'w'
I11
tp3000
a(S'p2_vo'
I2
tp3001
a(S'w'
I6
tp3002
a(S'w'
I26
tp3003
a(S'no_vo'
I3
tp3004
a(S'w'
I3
tp3005
a(S'w'
I681
tp3006
a(S'p1_vo'
I1
tp3007
a(S'w'
I6
tp3008
a(S'w'
I12
tp3009
a(S'p2_vo'
I0
tp3010
a(S'w'
I5
tp3011
a(S'w'
I27
tp3012
a(S'no_vo'
I2
tp3013
a(S'w'
I3
tp3014
a(S'w'
I682
tp3015
a(S'p1_vo'
I0
tp3016
a(S'w'
I6
tp3017
a(S'w'
I17
tp3018
a(S'w'
I26
tp3019
a(S'no_vo'
I1
tp3020
a(S'w'
I3
tp3021
a(S'w'
I709
tp3022
a(S'no_vo'
I0
tp3023
a(S'w'
I3
tp3024
a(S'w'
I731
tp3025
a(S'no_vo'
I10
tp3026
a(S'w'
I2
tp3027
a(S'w'
I2
tp3028
a(S'no_ll'
I1
tp3029
a(S'w'
I730
tp3030
a(S'no_vo'
I7
tp3031
a(S'w'
I3
tp3032
a(S'w'
I730
tp3033
a(S'no_vo'
I5
tp3034
a(S'w'
I3
tp3035
a(S'w'
I731
tp3036
a(S'no_vo'
I4
tp3037
a(S'w'
I3
tp3038
a(S'w'
I766
tp3039
a(S'no_vo'
I3
tp3040
a(S'w'
I3
tp3041
a(S'w'
I668
tp3042
a(S'p1_vo'
I14
tp3043
a(S'w'
I6
tp3044
a(S'w'
I1
tp3045
a(S'p1_ll'
I1
tp3046
a(S'w'
I11
tp3047
a(S'p2_vo'
I13
tp3048
a(S'w'
I6
tp3049
a(S'w'
I2
tp3050
a(S'p2_ll'
I1
tp3051
a(S'w'
I26
tp3052
a(S'no_vo'
I10
tp3053
a(S'w'
I2
tp3054
a(S'w'
I2
tp3055
a(S'no_ll'
I1
tp3056
a(S'w'
I678
tp3057
a(S'p1_vo'
I11
tp3058
a(S'w'
I6
tp3059
a(S'w'
I11
tp3060
a(S'p2_vo'
I10
tp3061
a(S'w'
I5
tp3062
a(S'w'
I28
tp3063
a(S'no_vo'
I7
tp3064
a(S'w'
I3
tp3065
a(S'w'
I686
tp3066
a(S'w'
I16
tp3067
a(S'w'
I9
tp3068
a(S'tr_lh'
I0
tp3069
a(S'tr_lr'
I0
tp3070
a(S'w'
I18
tp3071
a(S'no_vo'
I5
tp3072
a(S'w'
I2
tp3073
a(S'w'
I688
tp3074
a(S'w'
I16
tp3075
a(S'w'
I18
tp3076
a(S'no_vo'
I4
tp3077
a(S'w'
I2
tp3078
a(S'w'
I698
tp3079
a(S'w'
I17
tp3080
a(S'w'
I18
tp3081
a(S'no_vo'
I3
tp3082
a(S'w'
I2
tp3083
a(S'w'
I692
tp3084
a(S'p1_vo'
I8
tp3085
a(S'w'
I6
tp3086
a(S'w'
I43
tp3087
a(S'p2_vo'
I7
tp3088
a(S'w'
I5
tp3089
a(S'w'
I45
tp3090
a(S'no_vo'
I2
tp3091
a(S'w'
I3
tp3092
a(S'w'
I632
tp3093
a(S'p1_vo'
I14
tp3094
a(S'w'
I6
tp3095
a(S'p1_tl'
I142
tp3096
a(S'w'
I1
tp3097
a(S'p1_ll'
I1
tp3098
a(S'w'
I11
tp3099
a(S'p2_vo'
I13
tp3100
a(S'w'
I7
tp3101
a(S'p2_tl'
I215
tp3102
a(S'w'
I1
tp3103
a(S'p2_ll'
I1
tp3104
a(S'p2_th'
I0
tp3105
a(S'w'
I27
tp3106
a(S'no_vo'
I11
tp3107
a(S'w'
I3
tp3108
a(S'w'
I1
tp3109
a(S'no_ll'
I1
tp3110
a(S'w'
I676
tp3111
a(S'p1_vo'
I10
tp3112
a(S'w'
I14
tp3113
a(S'p1_tl'
I143
tp3114
a(S'w'
I12
tp3115
a(S'p2_vo'
I10
tp3116
a(S'w'
I6
tp3117
a(S'w'
I18
tp3118
a(S'no_vo'
I8
tp3119
a(S'w'
I2
tp3120
a(S'w'
I695
tp3121
a(S'p1_tl'
I144
tp3122
a(S'w'
I18
tp3123
a(S'w'
I19
tp3124
a(S'w'
I698
tp3125
a(S'w'
I17
tp3126
a(S'w'
I19
tp3127
a(S'w'
I697
tp3128
a(S'p1_tl'
I143
tp3129
a(S'w'
I17
tp3130
a(S'w'
I18
tp3131
a(S'no_vo'
I6
tp3132
a(S'w'
I2
tp3133
a(S'w'
I695
tp3134
a(S'p1_tl'
I142
tp3135
a(S'w'
I18
tp3136
a(S'w'
I17
tp3137
a(S'no_vo'
I5
tp3138
a(S'w'
I3
tp3139
a(S'w'
I697
tp3140
a(S'w'
I17
tp3141
a(S'w'
I17
tp3142
a(S'no_vo'
I4
tp3143
a(S'w'
I3
tp3144
a(S'w'
I698
tp3145
a(S'p1_tl'
I141
tp3146
a(S'w'
I17
tp3147
a(S'w'
I17
tp3148
a(S'no_vo'
I3
tp3149
a(S'w'
I3
tp3150
a(S'w'
I697
tp3151
a(S'p1_tl'
I140
tp3152
a(S'w'
I17
tp3153
a(S'w'
I17
tp3154
a(S'no_vo'
I2
tp3155
a(S'w'
I3
tp3156
a(S'w'
I695
tp3157
a(S'p1_tl'
I141
tp3158
a(S'w'
I17
tp3159
a(S'w'
I35
tp3160
a(S'no_vo'
I0
tp3161
a(S'w'
I2
tp3162
a(S'w'
I680
tp3163
a(S'p1_tl'
I142
tp3164
a(S'w'
I17
tp3165
a(S'w'
I9
tp3166
a(S'tr_lh'
I1
tp3167
a(S'tr_lr'
I127
tp3168
a(S'w'
I8
tp3169
a(S'tr_ll'
I1
tp3170
a(S'w'
I11
tp3171
a(S'no_vo'
I11
tp3172
a(S'w'
I2
tp3173
a(S'w'
I2
tp3174
a(S'no_ll'
I1
tp3175
a(S'w'
I685
tp3176
a(S'p1_tl'
I143
tp3177
a(S'w'
I17
tp3178
a(S'w'
I26
tp3179
a(S'no_vo'
I8
tp3180
a(S'w'
I3
tp3181
a(S'w'
I688
tp3182
a(S'w'
I17
tp3183
a(S'w'
I27
tp3184
a(S'no_vo'
I6
tp3185
a(S'w'
I2
tp3186
a(S'w'
I689
tp3187
a(S'p1_tl'
I144
tp3188
a(S'w'
I17
tp3189
a(S'w'
I27
tp3190
a(S'no_vo'
I5
tp3191
a(S'w'
I2
tp3192
a(S'w'
I687
tp3193
a(S'p1_tl'
I143
tp3194
a(S'w'
I17
tp3195
a(S'w'
I10
tp3196
a(S'tr_lh'
I0
tp3197
a(S'tr_lr'
I0
tp3198
a(S'w'
I34
tp3199
a(S'no_vo'
I4
tp3200
a(S'w'
I3
tp3201
a(S'w'
I669
tp3202
a(S'w'
I18
tp3203
a(S'w'
I9
tp3204
a(S'tr_lh'
I1
tp3205
a(S'tr_lr'
I127
tp3206
a(S'w'
I7
tp3207
a(S'tr_ll'
I1
tp3208
a(S'w'
I11
tp3209
a(S'no_vo'
I11
tp3210
a(S'w'
I3
tp3211
a(S'w'
I1
tp3212
a(S'no_ll'
I1
tp3213
a(S'w'
I685
tp3214
a(S'p1_tl'
I142
tp3215
a(S'w'
I17
tp3216
a(S'w'
I26
tp3217
a(S'no_vo'
I8
tp3218
a(S'w'
I3
tp3219
a(S'w'
I688
tp3220
a(S'p1_tl'
I141
tp3221
a(S'w'
I17
tp3222
a(S'w'
I27
tp3223
a(S'no_vo'
I6
tp3224
a(S'w'
I3
tp3225
a(S'w'
I688
tp3226
a(S'p1_tl'
I140
tp3227
a(S'w'
I17
tp3228
a(S'w'
I27
tp3229
a(S'no_vo'
I5
tp3230
a(S'w'
I3
tp3231
a(S'w'
I686
tp3232
a(S'p1_tl'
I141
tp3233
a(S'w'
I17
tp3234
a(S'w'
I10
tp3235
a(S'tr_lh'
I0
tp3236
a(S'tr_lr'
I0
tp3237
a(S'w'
I17
tp3238
a(S'no_vo'
I4
tp3239
a(S'w'
I3
tp3240
a(S'w'
I686
tp3241
a(S'p1_tl'
I142
tp3242
a(S'w'
I44
tp3243
a(S'w'
I71
tp3244
a(S'no_vo'
I3
tp3245
a(S'w'
I3
tp3246
a(S'w'
I609
tp3247
a(S'w'
I17
tp3248
a(S'w'
I9
tp3249
a(S'tr_lh'
I1
tp3250
a(S'tr_lr'
I127
tp3251
a(S'w'
I8
tp3252
a(S'tr_ll'
I1
tp3253
a(S'w'
I11
tp3254
a(S'no_vo'
I12
tp3255
a(S'w'
I2
tp3256
a(S'w'
I2
tp3257
a(S'no_ll'
I1
tp3258
a(S'w'
I684
tp3259
a(S'w'
I25
tp3260
a(S'p2_tl'
I216
tp3261
a(S'w'
I27
tp3262
a(S'no_vo'
I9
tp3263
a(S'w'
I3
tp3264
a(S'w'
I679
tp3265
a(S'w'
I25
tp3266
a(S'p2_tl'
I217
tp3267
a(S'w'
I29
tp3268
a(S'w'
I680
tp3269
a(S'w'
I25
tp3270
a(S'w'
I29
tp3271
a(S'w'
I680
tp3272
a(S'w'
I25
tp3273
a(S'p2_tl'
I216
tp3274
a(S'w'
I27
tp3275
a(S'no_vo'
I7
tp3276
a(S'w'
I2
tp3277
a(S'w'
I680
tp3278
a(S'w'
I23
tp3279
a(S'p2_tl'
I215
tp3280
a(S'w'
I27
tp3281
a(S'no_vo'
I6
tp3282
a(S'w'
I3
tp3283
a(S'w'
I680
tp3284
a(S'w'
I25
tp3285
a(S'w'
I26
tp3286
a(S'no_vo'
I5
tp3287
a(S'w'
I3
tp3288
a(S'w'
I680
tp3289
a(S'w'
I25
tp3290
a(S'p2_tl'
I214
tp3291
a(S'w'
I28
tp3292
a(S'no_vo'
I4
tp3293
a(S'w'
I3
tp3294
a(S'w'
I678
tp3295
a(S'w'
I25
tp3296
a(S'w'
I11
tp3297
a(S'tr_lh'
I0
tp3298
a(S'tr_lr'
I0
tp3299
a(S'w'
I17
tp3300
a(S'no_vo'
I3
tp3301
a(S'w'
I3
tp3302
a(S'w'
I678
tp3303
a(S'w'
I24
tp3304
a(S'w'
I44
tp3305
a(S'no_vo'
I1
tp3306
a(S'w'
I3
tp3307
a(S'w'
I663
tp3308
a(S'w'
I23
tp3309
a(S'p2_tl'
I215
tp3310
a(S'w'
I10
tp3311
a(S'tr_lh'
I1
tp3312
a(S'tr_lr'
I127
tp3313
a(S'w'
I8
tp3314
a(S'tr_ll'
I1
tp3315
a(S'w'
I11
tp3316
a(S'no_vo'
I12
tp3317
a(S'w'
I2
tp3318
a(S'w'
I2
tp3319
a(S'no_ll'
I1
tp3320
a(S'w'
I677
tp3321
a(S'w'
I24
tp3322
a(S'p2_tl'
I216
tp3323
a(S'w'
I27
tp3324
a(S'no_vo'
I9
tp3325
a(S'w'
I3
tp3326
a(S'w'
I680
tp3327
a(S'w'
I24
tp3328
a(S'p2_tl'
I217
tp3329
a(S'w'
I27
tp3330
a(S'no_vo'
I7
tp3331
a(S'w'
I3
tp3332
a(S'w'
I680
tp3333
a(S'w'
I25
tp3334
a(S'w'
I27
tp3335
a(S'no_vo'
I6
tp3336
a(S'w'
I3
tp3337
a(S'w'
I679
tp3338
a(S'w'
I24
tp3339
a(S'p2_tl'
I216
tp3340
a(S'w'
I27
tp3341
a(S'no_vo'
I5
tp3342
a(S'w'
I3
tp3343
a(S'w'
I680
tp3344
a(S'w'
I24
tp3345
a(S'w'
I27
tp3346
a(S'no_vo'
I12
tp3347
a(S'w'
I3
tp3348
a(S'w'
I1
tp3349
a(S'no_ll'
I1
tp3350
a(S'w'
I679
tp3351
a(S'w'
I23
tp3352
a(S'p2_tl'
I215
tp3353
a(S'w'
I27
tp3354
a(S'no_vo'
I9
tp3355
a(S'w'
I3
tp3356
a(S'w'
I680
tp3357
a(S'w'
I25
tp3358
a(S'p2_tl'
I214
tp3359
a(S'w'
I28
tp3360
a(S'no_vo'
I7
tp3361
a(S'w'
I3
tp3362
a(S'w'
I673
tp3363
a(S'p1_vo'
I7
tp3364
a(S'w'
I6
tp3365
a(S'w'
I11
tp3366
a(S'p2_vo'
I9
tp3367
a(S'w'
I15
tp3368
a(S'p2_tl'
I213
tp3369
a(S'w'
I11
tp3370
a(S'tr_lh'
I0
tp3371
a(S'tr_lr'
I0
tp3372
a(S'w'
I17
tp3373
a(S'no_vo'
I6
tp3374
a(S'w'
I3
tp3375
a(S'w'
I671
tp3376
a(S'p1_vo'
I5
tp3377
a(S'w'
I6
tp3378
a(S'w'
I25
tp3379
a(S'p2_tl'
I214
tp3380
a(S'w'
I27
tp3381
a(S'no_vo'
I5
tp3382
a(S'w'
I3
tp3383
a(S'w'
I672
tp3384
a(S'p1_vo'
I2
tp3385
a(S'w'
I7
tp3386
a(S'w'
I33
tp3387
a(S'p2_vo'
I8
tp3388
a(S'w'
I14
tp3389
a(S'p2_tl'
I215
tp3390
a(S'w'
I66
tp3391
a(S'no_vo'
I4
tp3392
a(S'w'
I3
tp3393
a(S'w'
I611
tp3394
a(S'p1_vo'
I14
tp3395
a(S'w'
I6
tp3396
a(S'p1_tl'
I169
tp3397
a(S'w'
I2
tp3398
a(S'p1_ll'
I1
tp3399
a(S'w'
I11
tp3400
a(S'p2_vo'
I13
tp3401
a(S'w'
I5
tp3402
a(S'p2_tl'
I31
tp3403
a(S'w'
I2
tp3404
a(S'p2_ll'
I1
tp3405
a(S'p2_th'
I1
tp3406
a(S'w'
I9
tp3407
a(S'tr_lh'
I1
tp3408
a(S'tr_lr'
I127
tp3409
a(S'w'
I7
tp3410
a(S'tr_ll'
I1
tp3411
a(S'w'
I11
tp3412
a(S'no_vo'
I13
tp3413
a(S'w'
I3
tp3414
a(S'w'
I1
tp3415
a(S'no_ll'
I1
tp3416
a(S'w'
I677
tp3417
a(S'p1_vo'
I11
tp3418
a(S'w'
I6
tp3419
a(S'w'
I11
tp3420
a(S'p2_vo'
I10
tp3421
a(S'w'
I6
tp3422
a(S'w'
I27
tp3423
a(S'no_vo'
I10
tp3424
a(S'w'
I3
tp3425
a(S'w'
I686
tp3426
a(S'w'
I16
tp3427
a(S'w'
I28
tp3428
a(S'w'
I690
tp3429
a(S'w'
I16
tp3430
a(S'w'
I28
tp3431
a(S'w'
I690
tp3432
a(S'w'
I16
tp3433
a(S'w'
I26
tp3434
a(S'no_vo'
I8
tp3435
a(S'w'
I3
tp3436
a(S'w'
I688
tp3437
a(S'w'
I17
tp3438
a(S'w'
I27
tp3439
a(S'no_vo'
I7
tp3440
a(S'w'
I3
tp3441
a(S'w'
I682
tp3442
a(S'p1_vo'
I8
tp3443
a(S'w'
I6
tp3444
a(S'w'
I29
tp3445
a(S'p2_vo'
I7
tp3446
a(S'w'
I6
tp3447
a(S'w'
I44
tp3448
a(S'no_vo'
I6
tp3449
a(S'w'
I3
tp3450
a(S'w'
I646
tp3451
a(S'p1_vo'
I14
tp3452
a(S'w'
I6
tp3453
a(S'w'
I2
tp3454
a(S'p1_ll'
I1
tp3455
a(S'w'
I10
tp3456
a(S'p2_vo'
I13
tp3457
a(S'w'
I6
tp3458
a(S'w'
I2
tp3459
a(S'p2_ll'
I1
tp3460
a(S'w'
I26
tp3461
a(S'no_vo'
I5
tp3462
a(S'w'
I3
tp3463
a(S'w'
I679
tp3464
a(S'p1_vo'
I11
tp3465
a(S'w'
I6
tp3466
a(S'w'
I11
tp3467
a(S'p2_vo'
I10
tp3468
a(S'w'
I6
tp3469
a(S'w'
I9
tp3470
a(S'tr_lh'
I0
tp3471
a(S'tr_lr'
I0
tp3472
a(S'w'
I18
tp3473
a(S'no_vo'
I4
tp3474
a(S'w'
I3
tp3475
a(S'w'
I686
tp3476
a(S'w'
I16
tp3477
a(S'w'
I44
tp3478
a(S'no_vo'
I2
tp3479
a(S'w'
I3
tp3480
a(S'w'
I670
tp3481
a(S'w'
I17
tp3482
a(S'w'
I9
tp3483
a(S'tr_lh'
I1
tp3484
a(S'tr_lr'
I127
tp3485
a(S'w'
I7
tp3486
a(S'tr_ll'
I1
tp3487
a(S'w'
I11
tp3488
a(S'no_vo'
I13
tp3489
a(S'w'
I3
tp3490
a(S'w'
I1
tp3491
a(S'no_ll'
I1
tp3492
a(S'w'
I686
tp3493
a(S'w'
I16
tp3494
a(S'w'
I27
tp3495
a(S'no_vo'
I10
tp3496
a(S'w'
I3
tp3497
a(S'w'
I688
tp3498
a(S'w'
I17
tp3499
a(S'w'
I27
tp3500
a(S'no_vo'
I8
tp3501
a(S'w'
I3
tp3502
a(S'w'
I682
tp3503
a(S'p1_vo'
I8
tp3504
a(S'w'
I6
tp3505
a(S'w'
I29
tp3506
a(S'p2_vo'
I7
tp3507
a(S'w'
I5
tp3508
a(S'w'
I45
tp3509
a(S'no_vo'
I7
tp3510
a(S'w'
I2
tp3511
a(S'w'
I647
tp3512
a(S'p1_vo'
I14
tp3513
a(S'w'
I6
tp3514
a(S'p1_tl'
I142
tp3515
a(S'w'
I1
tp3516
a(S'p1_ll'
I1
tp3517
a(S'w'
I11
tp3518
a(S'p2_vo'
I13
tp3519
a(S'w'
I6
tp3520
a(S'p2_tl'
I215
tp3521
a(S'w'
I2
tp3522
a(S'p2_ll'
I1
tp3523
a(S'p2_th'
I0
tp3524
a(S'w'
I26
tp3525
a(S'no_vo'
I6
tp3526
a(S'w'
I3
tp3527
a(S'w'
I678
tp3528
a(S'p1_vo'
I11
tp3529
a(S'w'
I6
tp3530
a(S'w'
I11
tp3531
a(S'p2_vo'
I10
tp3532
a(S'w'
I7
tp3533
a(S'w'
I26
tp3534
a(S'no_vo'
I13
tp3535
a(S'w'
I3
tp3536
a(S'w'
I2
tp3537
a(S'no_ll'
I1
tp3538
a(S'w'
I684
tp3539
a(S'w'
I17
tp3540
a(S'w'
I27
tp3541
a(S'no_vo'
I10
tp3542
a(S'w'
I3
tp3543
a(S'w'
I687
tp3544
a(S'w'
I17
tp3545
a(S'w'
I27
tp3546
a(S'no_vo'
I8
tp3547
a(S'w'
I3
tp3548
a(S'w'
I687
tp3549
a(S'w'
I17
tp3550
a(S'w'
I9
tp3551
a(S'tr_lh'
I0
tp3552
a(S'tr_lr'
I0
tp3553
a(S'w'
I18
tp3554
a(S'no_vo'
I7
tp3555
a(S'w'
I3
tp3556
a(S'w'
I687
tp3557
a(S'w'
I17
tp3558
a(S'w'
I27
tp3559
a(S'no_vo'
I6
tp3560
a(S'w'
I3
tp3561
a(S'w'
I681
tp3562
a(S'p1_vo'
I8
tp3563
a(S'w'
I6
tp3564
a(S'w'
I55
tp3565
a(S'p2_vo'
I7
tp3566
a(S'w'
I7
tp3567
a(S'w'
I78
tp3568
a(S'no_vo'
I5
tp3569
a(S'w'
I3
tp3570
a(S'w'
I585
tp3571
a(S'p1_vo'
I14
tp3572
a(S'w'
I6
tp3573
a(S'p1_tl'
I151
tp3574
a(S'w'
I2
tp3575
a(S'p1_ll'
I1
tp3576
a(S'w'
I11
tp3577
a(S'p2_vo'
I13
tp3578
a(S'w'
I6
tp3579
a(S'p2_tl'
I192
tp3580
a(S'w'
I2
tp3581
a(S'p2_ll'
I1
tp3582
a(S'w'
I9
tp3583
a(S'tr_lh'
I1
tp3584
a(S'tr_lr'
I127
tp3585
a(S'w'
I6
tp3586
a(S'tr_tl'
I190
tp3587
a(S'w'
I2
tp3588
a(S'tr_ll'
I1
tp3589
a(S'w'
I10
tp3590
a(S'no_vo'
I13
tp3591
a(S'w'
I3
tp3592
a(S'w'
I2
tp3593
a(S'no_ll'
I1
tp3594
a(S'w'
I675
tp3595
a(S'p1_vo'
I10
tp3596
a(S'w'
I14
tp3597
a(S'w'
I11
tp3598
a(S'p2_vo'
I9
tp3599
a(S'w'
I14
tp3600
a(S'p2_tl'
I193
tp3601
a(S'w'
I27
tp3602
a(S'no_vo'
I10
tp3603
a(S'w'
I3
tp3604
a(S'w'
I678
tp3605
a(S'p1_tl'
I152
tp3606
a(S'w'
I25
tp3607
a(S'w'
I27
tp3608
a(S'no_vo'
I8
tp3609
a(S'w'
I3
tp3610
a(S'w'
I679
tp3611
a(S'w'
I25
tp3612
a(S'p2_tl'
I194
tp3613
a(S'w'
I27
tp3614
a(S'no_vo'
I7
tp3615
a(S'w'
I3
tp3616
a(S'w'
I679
tp3617
a(S'w'
I25
tp3618
a(S'p2_tl'
I193
tp3619
a(S'w'
I27
tp3620
a(S'no_vo'
I6
tp3621
a(S'w'
I3
tp3622
a(S'w'
I677
tp3623
a(S'p1_tl'
I151
tp3624
a(S'w'
I24
tp3625
a(S'p2_tl'
I192
tp3626
a(S'w'
I27
tp3627
a(S'no_vo'
I13
tp3628
a(S'w'
I2
tp3629
a(S'w'
I2
tp3630
a(S'no_ll'
I1
tp3631
a(S'w'
I680
tp3632
a(S'p1_tl'
I150
tp3633
a(S'w'
I24
tp3634
a(S'p2_tl'
I191
tp3635
a(S'w'
I27
tp3636
a(S'no_vo'
I10
tp3637
a(S'w'
I3
tp3638
a(S'w'
I680
tp3639
a(S'p1_tl'
I149
tp3640
a(S'w'
I26
tp3641
a(S'w'
I27
tp3642
a(S'no_vo'
I8
tp3643
a(S'w'
I3
tp3644
a(S'w'
I678
tp3645
a(S'w'
I26
tp3646
a(S'p2_tl'
I190
tp3647
a(S'w'
I27
tp3648
a(S'no_vo'
I7
tp3649
a(S'w'
I3
tp3650
a(S'w'
I676
tp3651
a(S'p1_tl'
I150
tp3652
a(S'w'
I24
tp3653
a(S'p2_tl'
I191
tp3654
a(S'w'
I27
tp3655
a(S'no_vo'
I6
tp3656
a(S'w'
I3
tp3657
a(S'w'
I680
tp3658
a(S'w'
I25
tp3659
a(S'p2_tl'
I192
tp3660
a(S'w'
I27
tp3661
a(S'no_vo'
I13
tp3662
a(S'w'
I2
tp3663
a(S'w'
I2
tp3664
a(S'no_ll'
I1
tp3665
a(S'w'
I678
tp3666
a(S'p1_tl'
I151
tp3667
a(S'w'
I24
tp3668
a(S'w'
I27
tp3669
a(S'no_vo'
I10
tp3670
a(S'w'
I3
tp3671
a(S'w'
I680
tp3672
a(S'p1_tl'
I152
tp3673
a(S'w'
I25
tp3674
a(S'p2_tl'
I193
tp3675
a(S'w'
I27
tp3676
a(S'no_vo'
I8
tp3677
a(S'w'
I3
tp3678
a(S'w'
I680
tp3679
a(S'p1_tl'
I153
tp3680
a(S'w'
I25
tp3681
a(S'p2_tl'
I194
tp3682
a(S'w'
I27
tp3683
a(S'no_vo'
I7
tp3684
a(S'w'
I3
tp3685
a(S'w'
I678
tp3686
a(S'p1_tl'
I152
tp3687
a(S'w'
I25
tp3688
a(S'p2_tl'
I193
tp3689
a(S'w'
I27
tp3690
a(S'no_vo'
I6
tp3691
a(S'w'
I3
tp3692
a(S'w'
I679
tp3693
a(S'p1_tl'
I151
tp3694
a(S'w'
I24
tp3695
a(S'p2_tl'
I192
tp3696
a(S'w'
I28
tp3697
a(S'no_vo'
I13
tp3698
a(S'w'
I2
tp3699
a(S'w'
I2
tp3700
a(S'no_ll'
I1
tp3701
a(S'w'
I677
tp3702
a(S'p1_tl'
I150
tp3703
a(S'w'
I24
tp3704
a(S'w'
I28
tp3705
a(S'no_vo'
I10
tp3706
a(S'w'
I3
tp3707
a(S'w'
I680
tp3708
a(S'w'
I25
tp3709
a(S'p2_tl'
I191
tp3710
a(S'w'
I10
tp3711
a(S'tr_lh'
I0
tp3712
a(S'tr_lr'
I0
tp3713
a(S'w'
I17
tp3714
a(S'no_vo'
I8
tp3715
a(S'w'
I3
tp3716
a(S'w'
I679
tp3717
a(S'p1_tl'
I149
tp3718
a(S'w'
I26
tp3719
a(S'p2_tl'
I190
tp3720
a(S'w'
I18
tp3721
a(S'no_vo'
I7
tp3722
a(S'w'
I3
tp3723
a(S'w'
I686
tp3724
a(S'w'
I25
tp3725
a(S'p2_tl'
I191
tp3726
a(S'w'
I18
tp3727
a(S'no_vo'
I6
tp3728
a(S'w'
I3
tp3729
a(S'w'
I688
tp3730
a(S'p1_tl'
I150
tp3731
a(S'w'
I24
tp3732
a(S'w'
I23
tp3733
a(S'no_vo'
I5
tp3734
a(S'w'
I3
tp3735
a(S'w'
I684
tp3736
a(S'p1_tl'
I151
tp3737
a(S'w'
I26
tp3738
a(S'p2_tl'
I192
tp3739
a(S'w'
I27
tp3740
a(S'no_vo'
I13
tp3741
a(S'w'
I3
tp3742
a(S'w'
I1
tp3743
a(S'no_ll'
I1
tp3744
a(S'w'
I676
tp3745
a(S'p1_tl'
I152
tp3746
a(S'w'
I24
tp3747
a(S'p2_tl'
I193
tp3748
a(S'w'
I18
tp3749
a(S'no_vo'
I10
tp3750
a(S'w'
I3
tp3751
a(S'w'
I690
tp3752
a(S'w'
I26
tp3753
a(S'p2_tl'
I194
tp3754
a(S'w'
I17
tp3755
a(S'no_vo'
I8
tp3756
a(S'w'
I3
tp3757
a(S'w'
I688
tp3758
a(S'w'
I26
tp3759
a(S'p2_tl'
I193
tp3760
a(S'w'
I18
tp3761
a(S'no_vo'
I7
tp3762
a(S'w'
I2
tp3763
a(S'w'
I687
tp3764
a(S'p1_tl'
I151
tp3765
a(S'w'
I24
tp3766
a(S'w'
I18
tp3767
a(S'no_vo'
I6
tp3768
a(S'w'
I3
tp3769
a(S'w'
I689
tp3770
a(S'w'
I24
tp3771
a(S'p2_tl'
I192
tp3772
a(S'w'
I18
tp3773
a(S'no_vo'
I13
tp3774
a(S'w'
I2
tp3775
a(S'w'
I2
tp3776
a(S'no_ll'
I1
tp3777
a(S'w'
I688
tp3778
a(S'p1_tl'
I150
tp3779
a(S'w'
I25
tp3780
a(S'p2_tl'
I191
tp3781
a(S'w'
I18
tp3782
a(S'no_vo'
I10
tp3783
a(S'w'
I2
tp3784
a(S'w'
I689
tp3785
a(S'p1_tl'
I149
tp3786
a(S'w'
I25
tp3787
a(S'p2_tl'
I190
tp3788
a(S'w'
I18
tp3789
a(S'no_vo'
I8
tp3790
a(S'w'
I2
tp3791
a(S'w'
I688
tp3792
a(S'w'
I24
tp3793
a(S'w'
I18
tp3794
a(S'no_vo'
I7
tp3795
a(S'w'
I3
tp3796
a(S'w'
I689
tp3797
a(S'p1_tl'
I150
tp3798
a(S'w'
I25
tp3799
a(S'p2_tl'
I191
tp3800
a(S'w'
I35
tp3801
a(S'no_vo'
I6
tp3802
a(S'w'
I3
tp3803
a(S'w'
I669
tp3804
a(S'p1_tl'
I151
tp3805
a(S'w'
I23
tp3806
a(S'p2_tl'
I192
tp3807
a(S'w'
I10
tp3808
a(S'tr_lh'
I1
tp3809
a(S'tr_lr'
I127
tp3810
a(S'w'
I8
tp3811
a(S'tr_ll'
I1
tp3812
a(S'w'
I11
tp3813
a(S'no_vo'
I13
tp3814
a(S'w'
I2
tp3815
a(S'w'
I2
tp3816
a(S'no_ll'
I1
tp3817
a(S'w'
I679
tp3818
a(S'w'
I24
tp3819
a(S'p2_tl'
I193
tp3820
a(S'w'
I27
tp3821
a(S'no_vo'
I10
tp3822
a(S'w'
I3
tp3823
a(S'w'
I681
tp3824
a(S'p1_tl'
I152
tp3825
a(S'w'
I25
tp3826
a(S'w'
I27
tp3827
a(S'no_vo'
I8
tp3828
a(S'w'
I3
tp3829
a(S'w'
I679
tp3830
a(S'w'
I25
tp3831
a(S'p2_tl'
I194
tp3832
a(S'w'
I27
tp3833
a(S'no_vo'
I7
tp3834
a(S'w'
I3
tp3835
a(S'w'
I679
tp3836
a(S'w'
I25
tp3837
a(S'p2_tl'
I193
tp3838
a(S'w'
I10
tp3839
a(S'tr_lh'
I0
tp3840
a(S'tr_lr'
I0
tp3841
a(S'w'
I35
tp3842
a(S'no_vo'
I6
tp3843
a(S'w'
I3
tp3844
a(S'w'
I660
tp3845
a(S'p1_tl'
I151
tp3846
a(S'w'
I24
tp3847
a(S'p2_tl'
I192
tp3848
a(S'w'
I10
tp3849
a(S'tr_lh'
I1
tp3850
a(S'tr_lr'
I127
tp3851
a(S'w'
I8
tp3852
a(S'tr_ll'
I1
tp3853
a(S'w'
I10
tp3854
a(S'no_vo'
I13
tp3855
a(S'w'
I3
tp3856
a(S'w'
I2
tp3857
a(S'no_ll'
I1
tp3858
a(S'w'
I677
tp3859
a(S'p1_tl'
I150
tp3860
a(S'w'
I25
tp3861
a(S'p2_tl'
I191
tp3862
a(S'w'
I28
tp3863
a(S'no_vo'
I10
tp3864
a(S'w'
I2
tp3865
a(S'w'
I679
tp3866
a(S'p1_tl'
I149
tp3867
a(S'w'
I25
tp3868
a(S'w'
I27
tp3869
a(S'no_vo'
I8
tp3870
a(S'w'
I3
tp3871
a(S'w'
I679
tp3872
a(S'w'
I25
tp3873
a(S'p2_tl'
I190
tp3874
a(S'w'
I27
tp3875
a(S'no_vo'
I7
tp3876
a(S'w'
I3
tp3877
a(S'w'
I678
tp3878
a(S'p1_tl'
I150
tp3879
a(S'w'
I25
tp3880
a(S'p2_tl'
I191
tp3881
a(S'w'
I10
tp3882
a(S'tr_lh'
I0
tp3883
a(S'tr_lr'
I0
tp3884
a(S'w'
I18
tp3885
a(S'no_vo'
I6
tp3886
a(S'w'
I3
tp3887
a(S'w'
I677
tp3888
a(S'w'
I24
tp3889
a(S'p2_tl'
I192
tp3890
a(S'w'
I45
tp3891
a(S'no_vo'
I5
tp3892
a(S'w'
I3
tp3893
a(S'w'
I663
tp3894
a(S'p1_tl'
I151
tp3895
a(S'w'
I25
tp3896
a(S'w'
I10
tp3897
a(S'tr_lh'
I1
tp3898
a(S'tr_lr'
I127
tp3899
a(S'w'
I8
tp3900
a(S'tr_ll'
I1
tp3901
a(S'w'
I10
tp3902
a(S'no_vo'
I13
tp3903
a(S'w'
I3
tp3904
a(S'w'
I2
tp3905
a(S'no_ll'
I1
tp3906
a(S'w'
I675
tp3907
a(S'p1_tl'
I152
tp3908
a(S'w'
I25
tp3909
a(S'p2_tl'
I193
tp3910
a(S'w'
I27
tp3911
a(S'no_vo'
I10
tp3912
a(S'w'
I3
tp3913
a(S'w'
I681
tp3914
a(S'p1_tl'
I153
tp3915
a(S'w'
I26
tp3916
a(S'p2_tl'
I194
tp3917
a(S'w'
I27
tp3918
a(S'no_vo'
I8
tp3919
a(S'w'
I2
tp3920
a(S'w'
I677
tp3921
a(S'p1_tl'
I152
tp3922
a(S'w'
I24
tp3923
a(S'p2_tl'
I193
tp3924
a(S'w'
I27
tp3925
a(S'no_vo'
I7
tp3926
a(S'w'
I3
tp3927
a(S'w'
I680
tp3928
a(S'p1_tl'
I151
tp3929
a(S'w'
I25
tp3930
a(S'p2_tl'
I192
tp3931
a(S'w'
I27
tp3932
a(S'no_vo'
I6
tp3933
a(S'w'
I3
tp3934
a(S'w'
I679
tp3935
a(S'p1_tl'
I150
tp3936
a(S'w'
I25
tp3937
a(S'w'
I27
tp3938
a(S'no_vo'
I13
tp3939
a(S'w'
I2
tp3940
a(S'w'
I2
tp3941
a(S'no_ll'
I1
tp3942
a(S'w'
I677
tp3943
a(S'w'
I24
tp3944
a(S'p2_tl'
I191
tp3945
a(S'w'
I27
tp3946
a(S'no_vo'
I10
tp3947
a(S'w'
I3
tp3948
a(S'w'
I681
tp3949
a(S'p1_tl'
I149
tp3950
a(S'w'
I26
tp3951
a(S'p2_tl'
I190
tp3952
a(S'w'
I28
tp3953
a(S'no_vo'
I8
tp3954
a(S'w'
I3
tp3955
a(S'w'
I676
tp3956
a(S'w'
I25
tp3957
a(S'p2_tl'
I191
tp3958
a(S'w'
I10
tp3959
a(S'tr_lh'
I0
tp3960
a(S'tr_lr'
I0
tp3961
a(S'w'
I17
tp3962
a(S'no_vo'
I7
tp3963
a(S'w'
I3
tp3964
a(S'w'
I679
tp3965
a(S'p1_tl'
I150
tp3966
a(S'w'
I24
tp3967
a(S'w'
I36
tp3968
a(S'no_vo'
I6
tp3969
a(S'w'
I2
tp3970
a(S'w'
I671
tp3971
a(S'p1_tl'
I151
tp3972
a(S'w'
I25
tp3973
a(S'p2_tl'
I192
tp3974
a(S'w'
I9
tp3975
a(S'tr_lh'
I1
tp3976
a(S'tr_lr'
I127
tp3977
a(S'w'
I8
tp3978
a(S'tr_ll'
I1
tp3979
a(S'w'
I11
tp3980
a(S'no_vo'
I13
tp3981
a(S'w'
I2
tp3982
a(S'w'
I2
tp3983
a(S'no_ll'
I1
tp3984
a(S'w'
I679
tp3985
a(S'p1_tl'
I152
tp3986
a(S'w'
I26
tp3987
a(S'p2_tl'
I193
tp3988
a(S'w'
I27
tp3989
a(S'no_vo'
I10
tp3990
a(S'w'
I3
tp3991
a(S'w'
I676
tp3992
a(S'w'
I25
tp3993
a(S'p2_tl'
I194
tp3994
a(S'w'
I28
tp3995
a(S'no_vo'
I8
tp3996
a(S'w'
I2
tp3997
a(S'w'
I680
tp3998
a(S'w'
I25
tp3999
a(S'p2_tl'
I193
tp4000
a(S'w'
I27
tp4001
a(S'no_vo'
I7
tp4002
a(S'w'
I2
tp4003
a(S'w'
I679
tp4004
a(S'p1_tl'
I151
tp4005
a(S'w'
I26
tp4006
a(S'w'
I27
tp4007
a(S'no_vo'
I6
tp4008
a(S'w'
I3
tp4009
a(S'w'
I677
tp4010
a(S'w'
I25
tp4011
a(S'p2_tl'
I192
tp4012
a(S'w'
I27
tp4013
a(S'no_vo'
I13
tp4014
a(S'w'
I2
tp4015
a(S'w'
I2
tp4016
a(S'no_ll'
I1
tp4017
a(S'w'
I679
tp4018
a(S'p1_tl'
I150
tp4019
a(S'w'
I25
tp4020
a(S'p2_tl'
I191
tp4021
a(S'w'
I27
tp4022
a(S'no_vo'
I10
tp4023
a(S'w'
I3
tp4024
a(S'w'
I678
tp4025
a(S'p1_tl'
I149
tp4026
a(S'w'
I26
tp4027
a(S'p2_tl'
I190
tp4028
a(S'w'
I27
tp4029
a(S'no_vo'
I8
tp4030
a(S'w'
I3
tp4031
a(S'w'
I679
tp4032
a(S'w'
I25
tp4033
a(S'w'
I10
tp4034
a(S'tr_lh'
I0
tp4035
a(S'tr_lr'
I0
tp4036
a(S'w'
I18
tp4037
a(S'no_vo'
I7
tp4038
a(S'w'
I3
tp4039
a(S'w'
I677
tp4040
a(S'p1_tl'
I150
tp4041
a(S'w'
I24
tp4042
a(S'p2_tl'
I191
tp4043
a(S'w'
I27
tp4044
a(S'no_vo'
I6
tp4045
a(S'w'
I3
tp4046
a(S'w'
I678
tp4047
a(S'p1_tl'
I151
tp4048
a(S'w'
I24
tp4049
a(S'p2_tl'
I192
tp4050
a(S'w'
I35
tp4051
a(S'no_vo'
I5
tp4052
a(S'w'
I3
tp4053
a(S'w'
I674
tp4054
a(S'w'
I25
tp4055
a(S'p2_tl'
I193
tp4056
a(S'w'
I10
tp4057
a(S'tr_lh'
I1
tp4058
a(S'tr_lr'
I127
tp4059
a(S'w'
I7
tp4060
a(S'tr_ll'
I1
tp4061
a(S'w'
I11
tp4062
a(S'no_vo'
I13
tp4063
a(S'w'
I3
tp4064
a(S'w'
I1
tp4065
a(S'no_ll'
I1
tp4066
a(S'w'
I676
tp4067
a(S'p1_tl'
I152
tp4068
a(S'w'
I24
tp4069
a(S'w'
I27
tp4070
a(S'no_vo'
I10
tp4071
a(S'w'
I3
tp4072
a(S'w'
I681
tp4073
a(S'w'
I25
tp4074
a(S'p2_tl'
I194
tp4075
a(S'w'
I27
tp4076
a(S'no_vo'
I8
tp4077
a(S'w'
I3
tp4078
a(S'w'
I679
tp4079
a(S'w'
I25
tp4080
a(S'p2_tl'
I193
tp4081
a(S'w'
I27
tp4082
a(S'no_vo'
I7
tp4083
a(S'w'
I2
tp4084
a(S'w'
I678
tp4085
a(S'p1_tl'
I151
tp4086
a(S'w'
I25
tp4087
a(S'p2_tl'
I192
tp4088
a(S'w'
I27
tp4089
a(S'no_vo'
I6
tp4090
a(S'w'
I3
tp4091
a(S'w'
I679
tp4092
a(S'p1_tl'
I150
tp4093
a(S'w'
I25
tp4094
a(S'p2_tl'
I191
tp4095
a(S'w'
I26
tp4096
a(S'no_vo'
I13
tp4097
a(S'w'
I3
tp4098
a(S'w'
I2
tp4099
a(S'no_ll'
I1
tp4100
a(S'w'
I679
tp4101
a(S'p1_tl'
I149
tp4102
a(S'w'
I26
tp4103
a(S'w'
I28
tp4104
a(S'no_vo'
I10
tp4105
a(S'w'
I3
tp4106
a(S'w'
I677
tp4107
a(S'w'
I26
tp4108
a(S'p2_tl'
I190
tp4109
a(S'w'
I27
tp4110
a(S'no_vo'
I8
tp4111
a(S'w'
I3
tp4112
a(S'w'
I677
tp4113
a(S'p1_tl'
I150
tp4114
a(S'w'
I24
tp4115
a(S'p2_tl'
I191
tp4116
a(S'w'
I10
tp4117
a(S'tr_lh'
I0
tp4118
a(S'tr_lr'
I0
tp4119
a(S'w'
I17
tp4120
a(S'no_vo'
I7
tp4121
a(S'w'
I3
tp4122
a(S'w'
I680
tp4123
a(S'w'
I25
tp4124
a(S'p2_tl'
I192
tp4125
a(S'w'
I35
tp4126
a(S'no_vo'
I6
tp4127
a(S'w'
I3
tp4128
a(S'w'
I671
tp4129
a(S'p1_tl'
I151
tp4130
a(S'w'
I25
tp4131
a(S'w'
I10
tp4132
a(S'tr_lh'
I1
tp4133
a(S'tr_lr'
I127
tp4134
a(S'w'
I7
tp4135
a(S'tr_ll'
I1
tp4136
a(S'w'
I11
tp4137
a(S'no_vo'
I13
tp4138
a(S'w'
I3
tp4139
a(S'w'
I1
tp4140
a(S'no_ll'
I1
tp4141
a(S'w'
I677
tp4142
a(S'p1_tl'
I152
tp4143
a(S'w'
I25
tp4144
a(S'p2_tl'
I193
tp4145
a(S'w'
I28
tp4146
a(S'no_vo'
I10
tp4147
a(S'w'
I3
tp4148
a(S'w'
I679
tp4149
a(S'p1_tl'
I153
tp4150
a(S'w'
I26
tp4151
a(S'p2_tl'
I194
tp4152
a(S'w'
I26
tp4153
a(S'no_vo'
I8
tp4154
a(S'w'
I3
tp4155
a(S'w'
I678
tp4156
a(S'p1_tl'
I152
tp4157
a(S'w'
I25
tp4158
a(S'p2_tl'
I193
tp4159
a(S'w'
I27
tp4160
a(S'no_vo'
I7
tp4161
a(S'w'
I2
tp4162
a(S'w'
I678
tp4163
a(S'p1_tl'
I151
tp4164
a(S'w'
I25
tp4165
a(S'p2_tl'
I192
tp4166
a(S'w'
I27
tp4167
a(S'no_vo'
I6
tp4168
a(S'w'
I3
tp4169
a(S'w'
I679
tp4170
a(S'p1_tl'
I150
tp4171
a(S'w'
I25
tp4172
a(S'w'
I27
tp4173
a(S'no_vo'
I13
tp4174
a(S'w'
I2
tp4175
a(S'w'
I2
tp4176
a(S'no_ll'
I1
tp4177
a(S'w'
I678
tp4178
a(S'w'
I25
tp4179
a(S'p2_tl'
I191
tp4180
a(S'w'
I27
tp4181
a(S'no_vo'
I10
tp4182
a(S'w'
I3
tp4183
a(S'w'
I679
tp4184
a(S'p1_tl'
I149
tp4185
a(S'w'
I25
tp4186
a(S'p2_tl'
I190
tp4187
a(S'w'
I28
tp4188
a(S'no_vo'
I8
tp4189
a(S'w'
I3
tp4190
a(S'w'
I678
tp4191
a(S'w'
I25
tp4192
a(S'p2_tl'
I191
tp4193
a(S'w'
I10
tp4194
a(S'tr_lh'
I0
tp4195
a(S'tr_lr'
I0
tp4196
a(S'w'
I18
tp4197
a(S'no_vo'
I7
tp4198
a(S'w'
I3
tp4199
a(S'w'
I677
tp4200
a(S'p1_tl'
I150
tp4201
a(S'w'
I25
tp4202
a(S'w'
I28
tp4203
a(S'no_vo'
I6
tp4204
a(S'w'
I2
tp4205
a(S'w'
I679
tp4206
a(S'p1_tl'
I151
tp4207
a(S'w'
I47
tp4208
a(S'p2_tl'
I192
tp4209
a(S'w'
I57
tp4210
a(S'no_vo'
I5
tp4211
a(S'w'
I3
tp4212
a(S'w'
I628
tp4213
a(S'p1_tl'
I152
tp4214
a(S'w'
I11
tp4215
a(S'p1_du'
I0
tp4216
a(S'p1_vo'
I0
tp4217
a(S'w'
I23
tp4218
a(S'p2_tl'
I193
tp4219
a(S'w'
I11
tp4220
a(S'p2_du'
I0
tp4221
a(S'p2_vo'
I0
tp4222
a(S'w'
I7
tp4223
a(S'tr_lh'
I1
tp4224
a(S'tr_lr'
I127
tp4225
a(S'w'
I7
tp4226
a(S'tr_ll'
I1
tp4227
a(S'w'
I11
tp4228
a(S'no_vo'
I13
tp4229
a(S'w'
I3
tp4230
a(S'w'
I1
tp4231
a(S'no_ll'
I1
tp4232
a(S'w'
I665
tp4233
a(S'no_vo'
I10
tp4234
a(S'w'
I3
tp4235
a(S'w'
I730
tp4236
a(S'no_vo'
I8
tp4237
a(S'w'
I3
tp4238
a(S'w'
I731
tp4239
a(S'no_vo'
I7
tp4240
a(S'w'
I3
tp4241
a(S'w'
I731
tp4242
a(S'no_vo'
I6
tp4243
a(S'w'
I3
tp4244
a(S'w'
I10
tp4245
a(S'no_vo'
I0
tp4246
a(S'w'
I9510
tp4247
a(S'tr_lh'
I0
tp4248
a(S'tr_lr'
I0
tp4249
a(S'w'
I1
tp4250
a.