(lp1
(S'clock'
p2
I1789772
tp3
a(S'p1_lh'
I1
tp4
a(S'p1_cv'
I1
tp5
a(S'p1_sn'
I1
tp6
a(S'p2_lh'
I1
tp7
a(S'p2_cv'
I1
tp8
a(S'p2_sn'
I1
tp9
a(S'no_lh'
I1
tp10
a(S'no_cv'
I1
tp11
a(S'ch_no'
I1
tp12
a(S'ch_tr'
I1
tp13
a(S'ch_p2'
I1
tp14
a(S'ch_p1'
I1
tp15
a(S'p1_du'
I2
tp16
a(S'w'
I6
tp17
a(S'p1_tl'
I71
tp18
a(S'w'
I2
tp19
a(S'p1_ll'
I1
tp20
a(S'w'
I726
tp21
a(S'p1_vo'
I1
tp22
a(S'w'
I6
tp23
a(S'w'
I727
tp24
a(S'p1_vo'
I3
tp25
a(S'w'
I7
tp26
a(S'w'
I727
tp27
a(S'p1_vo'
I5
tp28
a(S'w'
I7
tp29
a(S'w'
I727
tp30
a(S'p1_vo'
I7
tp31
a(S'w'
I7
tp32
a(S'w'
I727
tp33
a(S'p1_vo'
I10
tp34
a(S'w'
I6
tp35
a(S'w'
I728
tp36
a(S'p1_vo'
I12
tp37
a(S'w'
I7
tp38
a(S'w'
I727
tp39
a(S'p1_vo'
I11
tp40
a(S'w'
I6
tp41
a(S'w'
I734
tp42
a(S'w'
I734
tp43
a(S'w'
I734
tp44
a(S'w'
I733
tp45
a(S'w'
I727
tp46
a(S'p1_vo'
I10
tp47
a(S'w'
I7
tp48
a(S'w'
I727
tp49
a(S'p1_vo'
I9
tp50
a(S'w'
I7
tp51
a(S'w'
I727
tp52
a(S'p1_vo'
I8
tp53
a(S'w'
I7
tp54
a(S'w'
I727
tp55
a(S'p1_vo'
I0
tp56
a(S'w'
I6
tp57
a(S'p1_tl'
I60
tp58
a(S'w'
I2
tp59
a(S'p1_ll'
I1
tp60
a(S'w'
I726
tp61
a(S'p1_vo'
I1
tp62
a(S'w'
I6
tp63
a(S'w'
I727
tp64
a(S'p1_vo'
I3
tp65
a(S'w'
I7
tp66
a(S'w'
I727
tp67
a(S'p1_vo'
I5
tp68
a(S'w'
I7
tp69
a(S'w'
I727
tp70
a(S'p1_vo'
I7
tp71
a(S'w'
I7
tp72
a(S'w'
I727
tp73
a(S'p1_vo'
I10
tp74
a(S'w'
I7
tp75
a(S'w'
I727
tp76
a(S'p1_vo'
I12
tp77
a(S'w'
I7
tp78
a(S'w'
I727
tp79
a(S'p1_vo'
I11
tp80
a(S'w'
I6
tp81
a(S'w'
I734
tp82
a(S'w'
I734
tp83
a(S'w'
I734
tp84
a(S'w'
I727
tp85
a(S'p1_vo'
I10
tp86
a(S'w'
I6
tp87
a(S'w'
I727
tp88
a(S'p1_vo'
I9
tp89
a(S'w'
I7
tp90
a(S'w'
I727
tp91
a(S'p1_vo'
I8
tp92
a(S'w'
I7
tp93
a(S'w'
I727
tp94
a(S'p1_vo'
I7
tp95
a(S'w'
I7
tp96
a(S'w'
I727
tp97
a(S'p1_vo'
I0
tp98
a(S'w'
I6
tp99
a(S'w'
I2
tp100
a(S'p1_ll'
I1
tp101
a(S'w'
I726
tp102
a(S'p1_vo'
I1
tp103
a(S'w'
I6
tp104
a(S'w'
I727
tp105
a(S'p1_vo'
I3
tp106
a(S'w'
I7
tp107
a(S'w'
I727
tp108
a(S'p1_vo'
I5
tp109
a(S'w'
I7
tp110
a(S'w'
I727
tp111
a(S'p1_vo'
I7
tp112
a(S'w'
I7
tp113
a(S'p1_tl'
I57
tp114
a(S'w'
I727
tp115
a(S'p1_vo'
I10
tp116
a(S'w'
I7
tp117
a(S'p1_tl'
I55
tp118
a(S'w'
I727
tp119
a(S'p1_vo'
I12
tp120
a(S'w'
I7
tp121
a(S'p1_tl'
I54
tp122
a(S'w'
I727
tp123
a(S'p1_vo'
I11
tp124
a(S'w'
I7
tp125
a(S'p1_tl'
I53
tp126
a(S'w'
I734
tp127
a(S'w'
I734
tp128
a(S'w'
I733
tp129
a(S'w'
I734
tp130
a(S'w'
I734
tp131
a(S'w'
I734
tp132
a(S'w'
I734
tp133
a(S'w'
I734
tp134
a(S'w'
I732
tp135
a(S'w'
I734
tp136
a(S'w'
I734
tp137
a(S'w'
I734
tp138
a(S'w'
I733
tp139
a(S'w'
I734
tp140
a(S'w'
I734
tp141
a(S'w'
I734
tp142
a(S'w'
I734
tp143
a(S'w'
I733
tp144
a(S'w'
I734
tp145
a(S'w'
I734
tp146
a(S'w'
I734
tp147
a(S'w'
I734
tp148
a(S'w'
I733
tp149
a(S'w'
I734
tp150
a(S'w'
I734
tp151
a(S'w'
I734
tp152
a(S'w'
I734
tp153
a(S'w'
I733
tp154
a(S'w'
I734
tp155
a(S'w'
I734
tp156
a(S'w'
I734
tp157
a(S'w'
I734
tp158
a(S'w'
I733
tp159
a(S'w'
I734
tp160
a(S'w'
I734
tp161
a(S'w'
I734
tp162
a(S'w'
I734
tp163
a(S'w'
I733
tp164
a(S'w'
I734
tp165
a(S'w'
I734
tp166
a(S'w'
I734
tp167
a(S'w'
I734
tp168
a(S'w'
I733
tp169
a(S'w'
I734
tp170
a(S'w'
I734
tp171
a(S'w'
I734
tp172
a(S'w'
I734
tp173
a(S'w'
I733
tp174
a(S'w'
I734
tp175
a(S'w'
I734
tp176
a(S'w'
I734
tp177
a(S'w'
I734
tp178
a(S'w'
I733
tp179
a(S'w'
I734
tp180
a(S'w'
I734
tp181
a(S'w'
I734
tp182
a(S'w'
I734
tp183
a(S'w'
I733
tp184
a(S'w'
I734
tp185
a(S'w'
I728
tp186
a(S'p1_vo'
I10
tp187
a(S'w'
I7
tp188
a(S'w'
I726
tp189
a(S'p1_vo'
I9
tp190
a(S'w'
I8
tp191
a(S'w'
I726
tp192
a(S'p1_vo'
I8
tp193
a(S'w'
I8
tp194
a(S'w'
I726
tp195
a(S'p1_vo'
I7
tp196
a(S'w'
I7
tp197
a(S'w'
I727
tp198
a(S'p1_vo'
I6
tp199
a(S'w'
I7
tp200
a(S'w'
I727
tp201
a(S'p1_vo'
I5
tp202
a(S'w'
I7
tp203
a(S'w'
I726
tp204
a(S'p1_vo'
I0
tp205
a(S'w'
I8
tp206
a(S'w'
I1
tp207
a(S'p1_ll'
I1
tp208
a(S'w'
I725
tp209
a(S'p1_vo'
I1
tp210
a(S'w'
I7
tp211
a(S'p1_tl'
I54
tp212
a(S'w'
I727
tp213
a(S'p1_vo'
I3
tp214
a(S'w'
I7
tp215
a(S'p1_tl'
I55
tp216
a(S'w'
I727
tp217
a(S'p1_vo'
I5
tp218
a(S'w'
I6
tp219
a(S'p1_tl'
I58
tp220
a(S'w'
I727
tp221
a(S'p1_vo'
I7
tp222
a(S'w'
I7
tp223
a(S'p1_tl'
I60
tp224
a(S'w'
I727
tp225
a(S'p1_vo'
I10
tp226
a(S'w'
I7
tp227
a(S'w'
I727
tp228
a(S'p1_vo'
I12
tp229
a(S'w'
I7
tp230
a(S'w'
I727
tp231
a(S'p1_vo'
I11
tp232
a(S'w'
I7
tp233
a(S'w'
I734
tp234
a(S'w'
I733
tp235
a(S'w'
I734
tp236
a(S'w'
I727
tp237
a(S'p1_vo'
I10
tp238
a(S'w'
I7
tp239
a(S'w'
I727
tp240
a(S'p1_vo'
I9
tp241
a(S'w'
I7
tp242
a(S'w'
I727
tp243
a(S'p1_vo'
I8
tp244
a(S'w'
I6
tp245
a(S'w'
I728
tp246
a(S'p1_vo'
I7
tp247
a(S'w'
I6
tp248
a(S'w'
I727
tp249
a(S'p1_vo'
I0
tp250
a(S'w'
I7
tp251
a(S'w'
I2
tp252
a(S'p1_ll'
I1
tp253
a(S'w'
I725
tp254
a(S'p1_vo'
I1
tp255
a(S'w'
I7
tp256
a(S'p1_tl'
I57
tp257
a(S'w'
I727
tp258
a(S'p1_vo'
I3
tp259
a(S'w'
I7
tp260
a(S'p1_tl'
I55
tp261
a(S'w'
I727
tp262
a(S'p1_vo'
I5
tp263
a(S'w'
I7
tp264
a(S'p1_tl'
I54
tp265
a(S'w'
I726
tp266
a(S'p1_vo'
I7
tp267
a(S'w'
I8
tp268
a(S'p1_tl'
I53
tp269
a(S'w'
I726
tp270
a(S'p1_vo'
I10
tp271
a(S'w'
I8
tp272
a(S'p1_tl'
I51
tp273
a(S'w'
I726
tp274
a(S'p1_vo'
I12
tp275
a(S'w'
I8
tp276
a(S'p1_tl'
I50
tp277
a(S'w'
I726
tp278
a(S'p1_vo'
I11
tp279
a(S'w'
I7
tp280
a(S'p1_tl'
I49
tp281
a(S'w'
I734
tp282
a(S'p1_tl'
I48
tp283
a(S'w'
I734
tp284
a(S'p1_tl'
I47
tp285
a(S'w'
I734
tp286
a(S'w'
I734
tp287
a(S'w'
I733
tp288
a(S'w'
I734
tp289
a(S'w'
I734
tp290
a(S'w'
I734
tp291
a(S'w'
I733
tp292
a(S'w'
I734
tp293
a(S'w'
I733
tp294
a(S'w'
I734
tp295
a(S'w'
I734
tp296
a(S'w'
I734
tp297
a(S'w'
I734
tp298
a(S'w'
I733
tp299
a(S'w'
I734
tp300
a(S'w'
I734
tp301
a(S'w'
I734
tp302
a(S'w'
I733
tp303
a(S'w'
I734
tp304
a(S'w'
I734
tp305
a(S'w'
I734
tp306
a(S'w'
I734
tp307
a(S'w'
I734
tp308
a(S'w'
I733
tp309
a(S'w'
I734
tp310
a(S'w'
I734
tp311
a(S'w'
I734
tp312
a(S'w'
I734
tp313
a(S'w'
I733
tp314
a(S'w'
I734
tp315
a(S'w'
I734
tp316
a(S'w'
I734
tp317
a(S'w'
I734
tp318
a(S'w'
I733
tp319
a(S'w'
I734
tp320
a(S'w'
I734
tp321
a(S'w'
I734
tp322
a(S'w'
I734
tp323
a(S'w'
I733
tp324
a(S'w'
I734
tp325
a(S'w'
I734
tp326
a(S'w'
I734
tp327
a(S'w'
I734
tp328
a(S'w'
I733
tp329
a(S'w'
I734
tp330
a(S'w'
I734
tp331
a(S'w'
I734
tp332
a(S'w'
I734
tp333
a(S'w'
I733
tp334
a(S'w'
I734
tp335
a(S'w'
I734
tp336
a(S'w'
I734
tp337
a(S'w'
I734
tp338
a(S'w'
I733
tp339
a(S'w'
I734
tp340
a(S'w'
I734
tp341
a(S'w'
I734
tp342
a(S'w'
I734
tp343
a(S'w'
I733
tp344
a(S'w'
I728
tp345
a(S'p1_vo'
I10
tp346
a(S'w'
I7
tp347
a(S'w'
I727
tp348
a(S'p1_vo'
I9
tp349
a(S'w'
I7
tp350
a(S'w'
I726
tp351
a(S'p1_vo'
I8
tp352
a(S'w'
I8
tp353
a(S'w'
I726
tp354
a(S'p1_vo'
I7
tp355
a(S'w'
I7
tp356
a(S'w'
I727
tp357
a(S'p1_vo'
I6
tp358
a(S'w'
I7
tp359
a(S'w'
I727
tp360
a(S'p1_vo'
I5
tp361
a(S'w'
I7
tp362
a(S'w'
I727
tp363
a(S'p1_vo'
I4
tp364
a(S'w'
I7
tp365
a(S'w'
I726
tp366
a(S'p1_vo'
I3
tp367
a(S'w'
I8
tp368
a(S'w'
I726
tp369
a(S'p1_vo'
I2
tp370
a(S'w'
I7
tp371
a(S'w'
I727
tp372
a(S'p1_vo'
I1
tp373
a(S'w'
I7
tp374
a(S'w'
I727
tp375
a(S'p1_vo'
I0
tp376
a(S'w'
I7
tp377
a(S'w'
I734
tp378
a(S'w'
I734
tp379
a(S'w'
I734
tp380
a(S'w'
I734
tp381
a(S'w'
I2932
tp382
a(S'p1_du'
I0
tp383
a(S'w'
I1
tp384
a.