(lp1
(S'clock'
p2
I1789772
tp3
a(S'p1_sn'
I1
tp4
a(S'p2_lh'
I1
tp5
a(S'p2_cv'
I1
tp6
a(S'p2_sn'
I1
tp7
a(S'p2_tl'
I201
tp8
a(S'p2_ll'
I1
tp9
a(S'ch_no'
I1
tp10
a(S'ch_tr'
I1
tp11
a(S'ch_p2'
I1
tp12
a(S'ch_p1'
I1
tp13
a(S'p1_lh'
I1
tp14
a(S'p1_cv'
I1
tp15
a(S'w'
I3
tp16
a(S'w'
I2
tp17
a(S'no_lh'
I1
tp18
a(S'no_cv'
I1
tp19
a(S'w'
I704
tp20
a(S'p1_du'
I1
tp21
a(S'w'
I6
tp22
a(S'p1_tl'
I169
tp23
a(S'w'
I1
tp24
a(S'p1_ll'
I1
tp25
a(S'w'
I11
tp26
a(S'p2_du'
I2
tp27
a(S'w'
I9
tp28
a(S'p2_tl'
I15
tp29
a(S'w'
I2
tp30
a(S'p2_ll'
I1
tp31
a(S'w'
I12
tp32
a(S'no_vo'
I1
tp33
a(S'w'
I3
tp34
a(S'no_nl'
I1
tp35
a(S'w'
I1
tp36
a(S'no_ll'
I1
tp37
a(S'w'
I689
tp38
a(S'p1_vo'
I6
tp39
a(S'w'
I6
tp40
a(S'w'
I728
tp41
a(S'p1_vo'
I5
tp42
a(S'w'
I6
tp43
a(S'w'
I733
tp44
a(S'w'
I728
tp45
a(S'p1_vo'
I4
tp46
a(S'w'
I6
tp47
a(S'w'
I734
tp48
a(S'w'
I728
tp49
a(S'p1_vo'
I0
tp50
a(S'w'
I6
tp51
a(S'p1_tl'
I134
tp52
a(S'w'
I1
tp53
a(S'p1_ll'
I1
tp54
a(S'w'
I727
tp55
a(S'p1_vo'
I6
tp56
a(S'w'
I6
tp57
a(S'w'
I727
tp58
a(S'p1_vo'
I5
tp59
a(S'w'
I6
tp60
a(S'w'
I18
tp61
a(S'p2_tl'
I170
tp62
a(S'w'
I2
tp63
a(S'p2_ll'
I1
tp64
a(S'w'
I714
tp65
a(S'w'
I11
tp66
a(S'p2_vo'
I5
tp67
a(S'w'
I7
tp68
a(S'w'
I710
tp69
a(S'p1_vo'
I4
tp70
a(S'w'
I6
tp71
a(S'w'
I27
tp72
a(S'p2_vo'
I4
tp73
a(S'w'
I7
tp74
a(S'w'
I694
tp75
a(S'p1_vo'
I0
tp76
a(S'w'
I6
tp77
a(S'p1_tl'
I201
tp78
a(S'w'
I1
tp79
a(S'p1_ll'
I1
tp80
a(S'w'
I18
tp81
a(S'w'
I709
tp82
a(S'p1_vo'
I6
tp83
a(S'w'
I6
tp84
a(S'w'
I11
tp85
a(S'p2_vo'
I3
tp86
a(S'w'
I7
tp87
a(S'w'
I709
tp88
a(S'p1_vo'
I5
tp89
a(S'w'
I6
tp90
a(S'w'
I12
tp91
a(S'p2_vo'
I0
tp92
a(S'w'
I6
tp93
a(S'p2_tl'
I135
tp94
a(S'w'
I2
tp95
a(S'p2_ll'
I1
tp96
a(S'w'
I714
tp97
a(S'w'
I11
tp98
a(S'p2_vo'
I5
tp99
a(S'w'
I7
tp100
a(S'w'
I710
tp101
a(S'p1_vo'
I4
tp102
a(S'w'
I6
tp103
a(S'w'
I27
tp104
a(S'p2_vo'
I4
tp105
a(S'w'
I7
tp106
a(S'w'
I694
tp107
a(S'p1_vo'
I0
tp108
a(S'w'
I6
tp109
a(S'p1_tl'
I169
tp110
a(S'w'
I1
tp111
a(S'p1_ll'
I1
tp112
a(S'w'
I18
tp113
a(S'w'
I709
tp114
a(S'p1_vo'
I6
tp115
a(S'w'
I6
tp116
a(S'w'
I11
tp117
a(S'p2_vo'
I3
tp118
a(S'w'
I7
tp119
a(S'w'
I709
tp120
a(S'p1_vo'
I5
tp121
a(S'w'
I6
tp122
a(S'w'
I12
tp123
a(S'p2_vo'
I0
tp124
a(S'w'
I6
tp125
a(S'p2_tl'
I202
tp126
a(S'w'
I2
tp127
a(S'p2_ll'
I1
tp128
a(S'w'
I714
tp129
a(S'w'
I12
tp130
a(S'p2_vo'
I5
tp131
a(S'w'
I6
tp132
a(S'w'
I710
tp133
a(S'p1_vo'
I4
tp134
a(S'w'
I6
tp135
a(S'w'
I27
tp136
a(S'p2_vo'
I4
tp137
a(S'w'
I7
tp138
a(S'w'
I694
tp139
a(S'p1_vo'
I0
tp140
a(S'w'
I5
tp141
a(S'p1_tl'
I254
tp142
a(S'w'
I2
tp143
a(S'p1_ll'
I1
tp144
a(S'w'
I17
tp145
a(S'w'
I710
tp146
a(S'p1_vo'
I6
tp147
a(S'w'
I5
tp148
a(S'w'
I12
tp149
a(S'p2_vo'
I3
tp150
a(S'w'
I7
tp151
a(S'w'
I709
tp152
a(S'p1_vo'
I5
tp153
a(S'w'
I6
tp154
a(S'w'
I11
tp155
a(S'p2_vo'
I0
tp156
a(S'w'
I6
tp157
a(S'p2_tl'
I170
tp158
a(S'w'
I2
tp159
a(S'p2_ll'
I1
tp160
a(S'w'
I715
tp161
a(S'w'
I11
tp162
a(S'p2_vo'
I5
tp163
a(S'w'
I7
tp164
a(S'w'
I710
tp165
a(S'p1_vo'
I4
tp166
a(S'w'
I5
tp167
a(S'w'
I28
tp168
a(S'p2_vo'
I4
tp169
a(S'w'
I7
tp170
a(S'w'
I694
tp171
a(S'p1_vo'
I0
tp172
a(S'w'
I6
tp173
a(S'p1_tl'
I201
tp174
a(S'w'
I1
tp175
a(S'p1_ll'
I1
tp176
a(S'w'
I18
tp177
a(S'w'
I709
tp178
a(S'p1_vo'
I6
tp179
a(S'w'
I6
tp180
a(S'w'
I12
tp181
a(S'p2_vo'
I3
tp182
a(S'w'
I6
tp183
a(S'w'
I709
tp184
a(S'p1_vo'
I5
tp185
a(S'w'
I6
tp186
a(S'w'
I12
tp187
a(S'p2_vo'
I0
tp188
a(S'w'
I5
tp189
a(S'p2_tl'
I255
tp190
a(S'w'
I2
tp191
a(S'p2_ll'
I1
tp192
a(S'w'
I715
tp193
a(S'w'
I12
tp194
a(S'p2_vo'
I5
tp195
a(S'w'
I6
tp196
a(S'w'
I710
tp197
a(S'p1_vo'
I4
tp198
a(S'w'
I6
tp199
a(S'w'
I33
tp200
a(S'p2_vo'
I4
tp201
a(S'w'
I6
tp202
a(S'w'
I689
tp203
a(S'p1_vo'
I0
tp204
a(S'w'
I5
tp205
a(S'p1_tl'
I13
tp206
a(S'w'
I2
tp207
a(S'p1_ll'
I1
tp208
a(S'p1_th'
I1
tp209
a(S'w'
I16
tp210
a(S'w'
I711
tp211
a(S'p1_vo'
I8
tp212
a(S'w'
I5
tp213
a(S'w'
I12
tp214
a(S'p2_vo'
I3
tp215
a(S'w'
I6
tp216
a(S'w'
I710
tp217
a(S'p1_vo'
I7
tp218
a(S'w'
I6
tp219
a(S'w'
I11
tp220
a(S'p2_vo'
I0
tp221
a(S'w'
I6
tp222
a(S'p2_tl'
I202
tp223
a(S'w'
I2
tp224
a(S'p2_ll'
I1
tp225
a(S'w'
I715
tp226
a(S'w'
I11
tp227
a(S'p2_vo'
I5
tp228
a(S'w'
I7
tp229
a(S'w'
I710
tp230
a(S'p1_vo'
I6
tp231
a(S'w'
I5
tp232
a(S'w'
I28
tp233
a(S'p2_vo'
I4
tp234
a(S'w'
I7
tp235
a(S'w'
I694
tp236
a(S'p1_vo'
I0
tp237
a(S'w'
I6
tp238
a(S'p1_tl'
I201
tp239
a(S'w'
I1
tp240
a(S'p1_ll'
I1
tp241
a(S'p1_th'
I0
tp242
a(S'w'
I18
tp243
a(S'w'
I709
tp244
a(S'p1_vo'
I8
tp245
a(S'w'
I6
tp246
a(S'w'
I11
tp247
a(S'p2_vo'
I3
tp248
a(S'w'
I7
tp249
a(S'w'
I709
tp250
a(S'p1_vo'
I7
tp251
a(S'w'
I7
tp252
a(S'w'
I11
tp253
a(S'p2_vo'
I0
tp254
a(S'w'
I5
tp255
a(S'p2_tl'
I14
tp256
a(S'w'
I2
tp257
a(S'p2_ll'
I1
tp258
a(S'p2_th'
I1
tp259
a(S'w'
I715
tp260
a(S'w'
I12
tp261
a(S'p2_vo'
I6
tp262
a(S'w'
I6
tp263
a(S'w'
I710
tp264
a(S'p1_vo'
I6
tp265
a(S'w'
I6
tp266
a(S'w'
I27
tp267
a(S'p2_vo'
I5
tp268
a(S'w'
I7
tp269
a(S'w'
I694
tp270
a(S'p1_vo'
I0
tp271
a(S'w'
I5
tp272
a(S'p1_tl'
I254
tp273
a(S'w'
I2
tp274
a(S'p1_ll'
I1
tp275
a(S'w'
I16
tp276
a(S'w'
I711
tp277
a(S'p1_vo'
I8
tp278
a(S'w'
I5
tp279
a(S'w'
I12
tp280
a(S'p2_vo'
I4
tp281
a(S'w'
I6
tp282
a(S'w'
I710
tp283
a(S'p1_vo'
I7
tp284
a(S'w'
I6
tp285
a(S'w'
I11
tp286
a(S'p2_vo'
I0
tp287
a(S'w'
I6
tp288
a(S'p2_tl'
I202
tp289
a(S'w'
I2
tp290
a(S'p2_ll'
I1
tp291
a(S'p2_th'
I0
tp292
a(S'w'
I715
tp293
a(S'w'
I11
tp294
a(S'p2_vo'
I6
tp295
a(S'w'
I7
tp296
a(S'w'
I710
tp297
a(S'p1_vo'
I6
tp298
a(S'w'
I5
tp299
a(S'w'
I28
tp300
a(S'p2_vo'
I5
tp301
a(S'w'
I7
tp302
a(S'w'
I694
tp303
a(S'p1_vo'
I0
tp304
a(S'w'
I5
tp305
a(S'p1_tl'
I46
tp306
a(S'w'
I2
tp307
a(S'p1_ll'
I1
tp308
a(S'p1_th'
I1
tp309
a(S'w'
I17
tp310
a(S'w'
I710
tp311
a(S'p1_vo'
I8
tp312
a(S'w'
I5
tp313
a(S'w'
I12
tp314
a(S'p2_vo'
I4
tp315
a(S'w'
I7
tp316
a(S'w'
I709
tp317
a(S'p1_vo'
I7
tp318
a(S'w'
I6
tp319
a(S'w'
I11
tp320
a(S'p2_vo'
I0
tp321
a(S'w'
I6
tp322
a(S'p2_tl'
I255
tp323
a(S'w'
I1
tp324
a(S'p2_ll'
I1
tp325
a(S'w'
I716
tp326
a(S'w'
I11
tp327
a(S'p2_vo'
I6
tp328
a(S'w'
I6
tp329
a(S'w'
I711
tp330
a(S'p1_vo'
I6
tp331
a(S'w'
I5
tp332
a(S'w'
I28
tp333
a(S'p2_vo'
I5
tp334
a(S'w'
I6
tp335
a(S'w'
I695
tp336
a(S'p1_vo'
I0
tp337
a(S'w'
I5
tp338
a(S'p1_tl'
I83
tp339
a(S'w'
I2
tp340
a(S'p1_ll'
I1
tp341
a(S'w'
I16
tp342
a(S'w'
I711
tp343
a(S'p1_vo'
I8
tp344
a(S'w'
I5
tp345
a(S'w'
I12
tp346
a(S'p2_vo'
I4
tp347
a(S'w'
I6
tp348
a(S'w'
I710
tp349
a(S'p1_vo'
I7
tp350
a(S'w'
I6
tp351
a(S'w'
I11
tp352
a(S'p2_vo'
I0
tp353
a(S'w'
I6
tp354
a(S'p2_tl'
I47
tp355
a(S'w'
I1
tp356
a(S'p2_ll'
I1
tp357
a(S'p2_th'
I1
tp358
a(S'w'
I716
tp359
a(S'w'
I11
tp360
a(S'p2_vo'
I6
tp361
a(S'w'
I6
tp362
a(S'w'
I711
tp363
a(S'p1_vo'
I6
tp364
a(S'w'
I5
tp365
a(S'w'
I28
tp366
a(S'p2_vo'
I5
tp367
a(S'w'
I6
tp368
a(S'w'
I695
tp369
a(S'p1_vo'
I0
tp370
a(S'w'
I5
tp371
a(S'p1_tl'
I254
tp372
a(S'w'
I2
tp373
a(S'p1_ll'
I1
tp374
a(S'p1_th'
I0
tp375
a(S'w'
I16
tp376
a(S'w'
I711
tp377
a(S'p1_vo'
I8
tp378
a(S'w'
I5
tp379
a(S'w'
I12
tp380
a(S'p2_vo'
I4
tp381
a(S'w'
I6
tp382
a(S'w'
I710
tp383
a(S'p1_vo'
I7
tp384
a(S'w'
I6
tp385
a(S'w'
I11
tp386
a(S'p2_vo'
I0
tp387
a(S'w'
I6
tp388
a(S'p2_tl'
I84
tp389
a(S'w'
I1
tp390
a(S'p2_ll'
I1
tp391
a(S'w'
I716
tp392
a(S'w'
I11
tp393
a(S'p2_vo'
I6
tp394
a(S'w'
I6
tp395
a(S'w'
I711
tp396
a(S'p1_vo'
I6
tp397
a(S'w'
I5
tp398
a(S'w'
I33
tp399
a(S'p2_vo'
I5
tp400
a(S'w'
I6
tp401
a(S'w'
I690
tp402
a(S'p1_vo'
I2
tp403
a(S'w'
I6
tp404
a(S'p1_tl'
I169
tp405
a(S'w'
I1
tp406
a(S'p1_ll'
I1
tp407
a(S'w'
I17
tp408
a(S'w'
I16
tp409
a(S'w'
I694
tp410
a(S'p1_vo'
I10
tp411
a(S'w'
I6
tp412
a(S'w'
I12
tp413
a(S'p2_vo'
I4
tp414
a(S'w'
I6
tp415
a(S'w'
I709
tp416
a(S'p1_vo'
I9
tp417
a(S'w'
I6
tp418
a(S'w'
I12
tp419
a(S'p2_vo'
I0
tp420
a(S'w'
I5
tp421
a(S'p2_tl'
I255
tp422
a(S'w'
I2
tp423
a(S'p2_ll'
I1
tp424
a(S'p2_th'
I0
tp425
a(S'w'
I715
tp426
a(S'w'
I12
tp427
a(S'p2_vo'
I6
tp428
a(S'w'
I6
tp429
a(S'w'
I710
tp430
a(S'p1_vo'
I8
tp431
a(S'w'
I6
tp432
a(S'w'
I27
tp433
a(S'p2_vo'
I5
tp434
a(S'w'
I7
tp435
a(S'w'
I694
tp436
a(S'p1_vo'
I2
tp437
a(S'w'
I6
tp438
a(S'p1_tl'
I134
tp439
a(S'w'
I1
tp440
a(S'p1_ll'
I1
tp441
a(S'w'
I17
tp442
a(S'w'
I710
tp443
a(S'p1_vo'
I10
tp444
a(S'w'
I6
tp445
a(S'w'
I12
tp446
a(S'p2_vo'
I4
tp447
a(S'w'
I6
tp448
a(S'w'
I709
tp449
a(S'p1_vo'
I9
tp450
a(S'w'
I7
tp451
a(S'w'
I11
tp452
a(S'p2_vo'
I0
tp453
a(S'w'
I6
tp454
a(S'p2_tl'
I170
tp455
a(S'w'
I2
tp456
a(S'p2_ll'
I1
tp457
a(S'w'
I714
tp458
a(S'w'
I12
tp459
a(S'p2_vo'
I7
tp460
a(S'w'
I6
tp461
a(S'w'
I710
tp462
a(S'p1_vo'
I8
tp463
a(S'w'
I6
tp464
a(S'w'
I28
tp465
a(S'p2_vo'
I6
tp466
a(S'w'
I6
tp467
a(S'w'
I694
tp468
a(S'p1_vo'
I2
tp469
a(S'w'
I6
tp470
a(S'p1_tl'
I201
tp471
a(S'w'
I1
tp472
a(S'p1_ll'
I1
tp473
a(S'w'
I18
tp474
a(S'w'
I709
tp475
a(S'p1_vo'
I10
tp476
a(S'w'
I6
tp477
a(S'w'
I12
tp478
a(S'p2_vo'
I5
tp479
a(S'w'
I6
tp480
a(S'w'
I709
tp481
a(S'p1_vo'
I9
tp482
a(S'w'
I7
tp483
a(S'w'
I11
tp484
a(S'p2_vo'
I0
tp485
a(S'w'
I6
tp486
a(S'p2_tl'
I135
tp487
a(S'w'
I2
tp488
a(S'p2_ll'
I1
tp489
a(S'w'
I714
tp490
a(S'w'
I12
tp491
a(S'p2_vo'
I7
tp492
a(S'w'
I6
tp493
a(S'w'
I710
tp494
a(S'p1_vo'
I8
tp495
a(S'w'
I6
tp496
a(S'w'
I33
tp497
a(S'p2_vo'
I6
tp498
a(S'w'
I6
tp499
a(S'w'
I689
tp500
a(S'p1_vo'
I4
tp501
a(S'w'
I6
tp502
a(S'p1_tl'
I169
tp503
a(S'w'
I1
tp504
a(S'p1_ll'
I1
tp505
a(S'w'
I18
tp506
a(S'w'
I709
tp507
a(S'p1_vo'
I12
tp508
a(S'w'
I6
tp509
a(S'w'
I12
tp510
a(S'p2_vo'
I5
tp511
a(S'w'
I6
tp512
a(S'w'
I709
tp513
a(S'p1_vo'
I11
tp514
a(S'w'
I7
tp515
a(S'w'
I11
tp516
a(S'p2_vo'
I0
tp517
a(S'w'
I6
tp518
a(S'p2_tl'
I202
tp519
a(S'w'
I2
tp520
a(S'p2_ll'
I1
tp521
a(S'w'
I714
tp522
a(S'w'
I12
tp523
a(S'p2_vo'
I7
tp524
a(S'w'
I6
tp525
a(S'w'
I710
tp526
a(S'p1_vo'
I10
tp527
a(S'w'
I6
tp528
a(S'w'
I28
tp529
a(S'p2_vo'
I6
tp530
a(S'w'
I6
tp531
a(S'w'
I694
tp532
a(S'p1_vo'
I4
tp533
a(S'w'
I5
tp534
a(S'p1_tl'
I254
tp535
a(S'w'
I2
tp536
a(S'p1_ll'
I1
tp537
a(S'w'
I17
tp538
a(S'w'
I710
tp539
a(S'p1_vo'
I12
tp540
a(S'w'
I5
tp541
a(S'w'
I12
tp542
a(S'p2_vo'
I5
tp543
a(S'w'
I7
tp544
a(S'w'
I710
tp545
a(S'p1_vo'
I11
tp546
a(S'w'
I5
tp547
a(S'w'
I11
tp548
a(S'p2_vo'
I1
tp549
a(S'w'
I6
tp550
a(S'p2_tl'
I170
tp551
a(S'w'
I2
tp552
a(S'p2_ll'
I1
tp553
a(S'w'
I715
tp554
a(S'w'
I11
tp555
a(S'p2_vo'
I9
tp556
a(S'w'
I7
tp557
a(S'w'
I710
tp558
a(S'p1_vo'
I10
tp559
a(S'w'
I6
tp560
a(S'w'
I27
tp561
a(S'p2_vo'
I8
tp562
a(S'w'
I7
tp563
a(S'w'
I694
tp564
a(S'p1_vo'
I4
tp565
a(S'w'
I6
tp566
a(S'p1_tl'
I201
tp567
a(S'w'
I1
tp568
a(S'p1_ll'
I1
tp569
a(S'w'
I18
tp570
a(S'w'
I709
tp571
a(S'p1_vo'
I12
tp572
a(S'w'
I6
tp573
a(S'w'
I12
tp574
a(S'p2_vo'
I7
tp575
a(S'w'
I6
tp576
a(S'w'
I710
tp577
a(S'p1_vo'
I11
tp578
a(S'w'
I6
tp579
a(S'w'
I11
tp580
a(S'p2_vo'
I1
tp581
a(S'w'
I5
tp582
a(S'p2_tl'
I255
tp583
a(S'w'
I2
tp584
a(S'p2_ll'
I1
tp585
a(S'w'
I715
tp586
a(S'w'
I12
tp587
a(S'p2_vo'
I9
tp588
a(S'w'
I6
tp589
a(S'w'
I710
tp590
a(S'p1_vo'
I10
tp591
a(S'w'
I6
tp592
a(S'w'
I33
tp593
a(S'p2_vo'
I8
tp594
a(S'w'
I6
tp595
a(S'w'
I689
tp596
a(S'p1_vo'
I6
tp597
a(S'w'
I5
tp598
a(S'p1_tl'
I13
tp599
a(S'w'
I2
tp600
a(S'p1_ll'
I1
tp601
a(S'p1_th'
I1
tp602
a(S'w'
I16
tp603
a(S'w'
I711
tp604
a(S'p1_vo'
I14
tp605
a(S'w'
I5
tp606
a(S'w'
I12
tp607
a(S'p2_vo'
I7
tp608
a(S'w'
I6
tp609
a(S'w'
I711
tp610
a(S'p1_vo'
I13
tp611
a(S'w'
I5
tp612
a(S'w'
I11
tp613
a(S'p2_vo'
I1
tp614
a(S'w'
I6
tp615
a(S'p2_tl'
I202
tp616
a(S'w'
I2
tp617
a(S'p2_ll'
I1
tp618
a(S'w'
I715
tp619
a(S'w'
I11
tp620
a(S'p2_vo'
I9
tp621
a(S'w'
I7
tp622
a(S'w'
I710
tp623
a(S'p1_vo'
I12
tp624
a(S'w'
I6
tp625
a(S'w'
I27
tp626
a(S'p2_vo'
I8
tp627
a(S'w'
I7
tp628
a(S'w'
I694
tp629
a(S'p1_vo'
I6
tp630
a(S'w'
I6
tp631
a(S'p1_tl'
I201
tp632
a(S'w'
I1
tp633
a(S'p1_ll'
I1
tp634
a(S'p1_th'
I0
tp635
a(S'w'
I18
tp636
a(S'w'
I709
tp637
a(S'p1_vo'
I14
tp638
a(S'w'
I6
tp639
a(S'w'
I12
tp640
a(S'p2_vo'
I7
tp641
a(S'w'
I6
tp642
a(S'w'
I710
tp643
a(S'p1_vo'
I13
tp644
a(S'w'
I6
tp645
a(S'w'
I11
tp646
a(S'p2_vo'
I3
tp647
a(S'w'
I5
tp648
a(S'p2_tl'
I14
tp649
a(S'w'
I2
tp650
a(S'p2_ll'
I1
tp651
a(S'p2_th'
I1
tp652
a(S'w'
I715
tp653
a(S'w'
I12
tp654
a(S'p2_vo'
I11
tp655
a(S'w'
I6
tp656
a(S'w'
I710
tp657
a(S'p1_vo'
I12
tp658
a(S'w'
I6
tp659
a(S'w'
I28
tp660
a(S'p2_vo'
I10
tp661
a(S'w'
I6
tp662
a(S'w'
I694
tp663
a(S'p1_vo'
I6
tp664
a(S'w'
I5
tp665
a(S'p1_tl'
I254
tp666
a(S'w'
I2
tp667
a(S'p1_ll'
I1
tp668
a(S'w'
I16
tp669
a(S'w'
I711
tp670
a(S'p1_vo'
I14
tp671
a(S'w'
I5
tp672
a(S'w'
I12
tp673
a(S'p2_vo'
I9
tp674
a(S'w'
I6
tp675
a(S'w'
I711
tp676
a(S'p1_vo'
I13
tp677
a(S'w'
I5
tp678
a(S'w'
I11
tp679
a(S'p2_vo'
I3
tp680
a(S'w'
I6
tp681
a(S'p2_tl'
I202
tp682
a(S'w'
I2
tp683
a(S'p2_ll'
I1
tp684
a(S'p2_th'
I0
tp685
a(S'w'
I715
tp686
a(S'w'
I11
tp687
a(S'p2_vo'
I11
tp688
a(S'w'
I7
tp689
a(S'w'
I710
tp690
a(S'p1_vo'
I12
tp691
a(S'w'
I5
tp692
a(S'w'
I33
tp693
a(S'p2_vo'
I10
tp694
a(S'w'
I7
tp695
a(S'w'
I689
tp696
a(S'p1_vo'
I7
tp697
a(S'w'
I5
tp698
a(S'p1_tl'
I46
tp699
a(S'w'
I2
tp700
a(S'p1_ll'
I1
tp701
a(S'p1_th'
I1
tp702
a(S'w'
I17
tp703
a(S'w'
I710
tp704
a(S'p1_vo'
I15
tp705
a(S'w'
I5
tp706
a(S'w'
I12
tp707
a(S'p2_vo'
I9
tp708
a(S'w'
I7
tp709
a(S'w'
I710
tp710
a(S'p1_vo'
I14
tp711
a(S'w'
I5
tp712
a(S'w'
I11
tp713
a(S'p2_vo'
I3
tp714
a(S'w'
I6
tp715
a(S'p2_tl'
I255
tp716
a(S'w'
I1
tp717
a(S'p2_ll'
I1
tp718
a(S'w'
I716
tp719
a(S'w'
I11
tp720
a(S'p2_vo'
I11
tp721
a(S'w'
I6
tp722
a(S'w'
I711
tp723
a(S'p1_vo'
I13
tp724
a(S'w'
I6
tp725
a(S'w'
I27
tp726
a(S'p2_vo'
I10
tp727
a(S'w'
I6
tp728
a(S'w'
I695
tp729
a(S'p1_vo'
I7
tp730
a(S'w'
I5
tp731
a(S'p1_tl'
I83
tp732
a(S'w'
I2
tp733
a(S'p1_ll'
I1
tp734
a(S'w'
I16
tp735
a(S'w'
I711
tp736
a(S'p1_vo'
I15
tp737
a(S'w'
I5
tp738
a(S'w'
I12
tp739
a(S'p2_vo'
I9
tp740
a(S'w'
I6
tp741
a(S'w'
I711
tp742
a(S'p1_vo'
I14
tp743
a(S'w'
I5
tp744
a(S'w'
I11
tp745
a(S'p2_vo'
I6
tp746
a(S'w'
I6
tp747
a(S'p2_tl'
I47
tp748
a(S'w'
I1
tp749
a(S'p2_ll'
I1
tp750
a(S'p2_th'
I1
tp751
a(S'w'
I716
tp752
a(S'w'
I11
tp753
a(S'p2_vo'
I14
tp754
a(S'w'
I6
tp755
a(S'w'
I711
tp756
a(S'p1_vo'
I13
tp757
a(S'w'
I6
tp758
a(S'w'
I32
tp759
a(S'p2_vo'
I13
tp760
a(S'w'
I6
tp761
a(S'w'
I690
tp762
a(S'p1_vo'
I2
tp763
a(S'w'
I5
tp764
a(S'p1_tl'
I254
tp765
a(S'w'
I2
tp766
a(S'p1_ll'
I1
tp767
a(S'p1_th'
I0
tp768
a(S'w'
I16
tp769
a(S'w'
I711
tp770
a(S'p1_vo'
I10
tp771
a(S'w'
I5
tp772
a(S'w'
I12
tp773
a(S'p2_vo'
I12
tp774
a(S'w'
I6
tp775
a(S'w'
I711
tp776
a(S'p1_vo'
I9
tp777
a(S'w'
I5
tp778
a(S'w'
I11
tp779
a(S'p2_vo'
I6
tp780
a(S'w'
I6
tp781
a(S'p2_tl'
I84
tp782
a(S'w'
I1
tp783
a(S'p2_ll'
I1
tp784
a(S'w'
I716
tp785
a(S'w'
I17
tp786
a(S'w'
I711
tp787
a(S'p1_vo'
I8
tp788
a(S'w'
I6
tp789
a(S'w'
I24
tp790
a(S'p2_vo'
I5
tp791
a(S'w'
I6
tp792
a(S'w'
I703
tp793
a(S'w'
I18
tp794
a(S'w'
I15
tp795
a(S'w'
I696
tp796
a(S'p1_vo'
I7
tp797
a(S'w'
I5
tp798
a(S'w'
I11
tp799
a(S'p2_vo'
I4
tp800
a(S'w'
I6
tp801
a(S'w'
I717
tp802
a(S'w'
I17
tp803
a(S'w'
I711
tp804
a(S'p1_vo'
I6
tp805
a(S'w'
I6
tp806
a(S'w'
I11
tp807
a(S'p2_vo'
I3
tp808
a(S'w'
I6
tp809
a(S'w'
I717
tp810
a(S'w'
I17
tp811
a(S'w'
I711
tp812
a(S'p1_vo'
I5
tp813
a(S'w'
I5
tp814
a(S'w'
I11
tp815
a(S'p2_vo'
I2
tp816
a(S'w'
I7
tp817
a(S'w'
I716
tp818
a(S'w'
I17
tp819
a(S'w'
I712
tp820
a(S'p1_vo'
I4
tp821
a(S'w'
I5
tp822
a(S'w'
I18
tp823
a(S'p2_vo'
I1
tp824
a(S'w'
I6
tp825
a(S'w'
I710
tp826
a(S'w'
I11
tp827
a(S'p2_du'
I1
tp828
a(S'p2_vo'
I0
tp829
a(S'w'
I5
tp830
a(S'p2_tl'
I93
tp831
a(S'w'
I2
tp832
a(S'p2_ll'
I1
tp833
a(S'p2_th'
I2
tp834
a(S'w'
I15
tp835
a(S'w'
I695
tp836
a(S'p1_vo'
I3
tp837
a(S'w'
I6
tp838
a(S'w'
I11
tp839
a(S'p2_vo'
I5
tp840
a(S'w'
I5
tp841
a(S'w'
I717
tp842
a(S'w'
I36
tp843
a(S'p2_vo'
I4
tp844
a(S'w'
I6
tp845
a(S'w'
I687
tp846
a(S'p1_vo'
I0
tp847
a(S'w'
I4
tp848
a(S'p1_tl'
I58
tp849
a(S'w'
I2
tp850
a(S'p1_ll'
I1
tp851
a(S'p1_th'
I2
tp852
a(S'w'
I16
tp853
a(S'w'
I712
tp854
a(S'p1_vo'
I6
tp855
a(S'w'
I4
tp856
a(S'w'
I12
tp857
a(S'p2_vo'
I3
tp858
a(S'w'
I6
tp859
a(S'w'
I711
tp860
a(S'p1_vo'
I5
tp861
a(S'w'
I5
tp862
a(S'w'
I17
tp863
a(S'w'
I717
tp864
a(S'w'
I11
tp865
a(S'p2_vo'
I0
tp866
a(S'w'
I6
tp867
a(S'p2_tl'
I125
tp868
a(S'w'
I2
tp869
a(S'p2_ll'
I1
tp870
a(S'p2_th'
I1
tp871
a(S'w'
I710
tp872
a(S'p1_vo'
I4
tp873
a(S'w'
I5
tp874
a(S'w'
I11
tp875
a(S'p2_vo'
I5
tp876
a(S'w'
I6
tp877
a(S'w'
I13
tp878
a(S'no_vo'
I8
tp879
a(S'w'
I3
tp880
a(S'no_np'
I1
tp881
a(S'w'
I2
tp882
a(S'no_ll'
I1
tp883
a(S'w'
I699
tp884
a(S'w'
I39
tp885
a(S'p2_vo'
I4
tp886
a(S'w'
I7
tp887
a(S'w'
I12
tp888
a(S'no_vo'
I5
tp889
a(S'w'
I3
tp890
a(S'w'
I673
tp891
a(S'p1_tl'
I46
tp892
a(S'w'
I1
tp893
a(S'p1_ll'
I1
tp894
a(S'p1_th'
I1
tp895
a(S'w'
I17
tp896
a(S'w'
I15
tp897
a(S'w'
I695
tp898
a(S'p1_vo'
I12
tp899
a(S'w'
I6
tp900
a(S'w'
I11
tp901
a(S'p2_vo'
I3
tp902
a(S'w'
I6
tp903
a(S'w'
I15
tp904
a(S'w'
I697
tp905
a(S'p1_vo'
I8
tp906
a(S'w'
I5
tp907
a(S'w'
I17
tp908
a(S'w'
I47
tp909
a(S'w'
I669
tp910
a(S'w'
I11
tp911
a(S'p2_vo'
I4
tp912
a(S'w'
I5
tp913
a(S'p2_tl'
I255
tp914
a(S'w'
I2
tp915
a(S'p2_ll'
I1
tp916
a(S'p2_th'
I0
tp917
a(S'w'
I14
tp918
a(S'w'
I701
tp919
a(S'w'
I12
tp920
a(S'p2_vo'
I12
tp921
a(S'w'
I6
tp922
a(S'w'
I14
tp923
a(S'w'
I702
tp924
a(S'w'
I12
tp925
a(S'p2_vo'
I8
tp926
a(S'w'
I6
tp927
a(S'w'
I14
tp928
a(S'w'
I702
tp929
a(S'w'
I16
tp930
a(S'w'
I15
tp931
a(S'w'
I703
tp932
a(S'w'
I16
tp933
a(S'w'
I28
tp934
a(S'no_vo'
I4
tp935
a(S'w'
I3
tp936
a(S'w'
I686
tp937
a(S'w'
I34
tp938
a(S'p2_vo'
I7
tp939
a(S'w'
I6
tp940
a(S'w'
I14
tp941
a(S'w'
I675
tp942
a(S'p1_vo'
I7
tp943
a(S'w'
I5
tp944
a(S'w'
I17
tp945
a(S'w'
I14
tp946
a(S'w'
I703
tp947
a(S'w'
I16
tp948
a(S'w'
I15
tp949
a(S'w'
I703
tp950
a(S'w'
I16
tp951
a(S'w'
I15
tp952
a(S'w'
I703
tp953
a(S'w'
I16
tp954
a(S'w'
I28
tp955
a(S'no_vo'
I3
tp956
a(S'w'
I3
tp957
a(S'w'
I686
tp958
a(S'w'
I11
tp959
a(S'p2_vo'
I6
tp960
a(S'w'
I6
tp961
a(S'w'
I14
tp962
a(S'w'
I703
tp963
a(S'w'
I33
tp964
a(S'w'
I15
tp965
a(S'w'
I681
tp966
a(S'p1_vo'
I6
tp967
a(S'w'
I5
tp968
a(S'w'
I16
tp969
a(S'w'
I15
tp970
a(S'w'
I703
tp971
a(S'w'
I16
tp972
a(S'w'
I15
tp973
a(S'w'
I703
tp974
a(S'w'
I16
tp975
a(S'w'
I15
tp976
a(S'w'
I703
tp977
a(S'w'
I16
tp978
a(S'w'
I28
tp979
a(S'no_vo'
I2
tp980
a(S'w'
I3
tp981
a(S'w'
I686
tp982
a(S'w'
I11
tp983
a(S'p2_vo'
I5
tp984
a(S'w'
I6
tp985
a(S'w'
I14
tp986
a(S'w'
I703
tp987
a(S'w'
I33
tp988
a(S'w'
I15
tp989
a(S'w'
I681
tp990
a(S'p1_vo'
I5
tp991
a(S'w'
I5
tp992
a(S'w'
I16
tp993
a(S'w'
I15
tp994
a(S'w'
I703
tp995
a(S'w'
I16
tp996
a(S'w'
I15
tp997
a(S'w'
I703
tp998
a(S'w'
I16
tp999
a(S'w'
I14
tp1000
a(S'w'
I703
tp1001
a(S'w'
I17
tp1002
a(S'w'
I28
tp1003
a(S'no_vo'
I1
tp1004
a(S'w'
I3
tp1005
a(S'w'
I686
tp1006
a(S'w'
I10
tp1007
a(S'p2_vo'
I4
tp1008
a(S'w'
I6
tp1009
a(S'w'
I15
tp1010
a(S'w'
I703
tp1011
a(S'w'
I33
tp1012
a(S'w'
I15
tp1013
a(S'w'
I680
tp1014
a(S'p1_vo'
I4
tp1015
a(S'w'
I6
tp1016
a(S'w'
I16
tp1017
a(S'w'
I15
tp1018
a(S'w'
I703
tp1019
a(S'w'
I16
tp1020
a(S'w'
I14
tp1021
a(S'w'
I703
tp1022
a(S'w'
I17
tp1023
a(S'w'
I14
tp1024
a(S'w'
I703
tp1025
a(S'w'
I16
tp1026
a(S'w'
I29
tp1027
a(S'no_vo'
I0
tp1028
a(S'w'
I3
tp1029
a(S'w'
I686
tp1030
a(S'w'
I10
tp1031
a(S'p2_vo'
I3
tp1032
a(S'w'
I6
tp1033
a(S'w'
I15
tp1034
a(S'w'
I703
tp1035
a(S'w'
I33
tp1036
a(S'w'
I14
tp1037
a(S'w'
I681
tp1038
a(S'p1_vo'
I3
tp1039
a(S'w'
I6
tp1040
a(S'w'
I16
tp1041
a(S'w'
I15
tp1042
a(S'w'
I702
tp1043
a(S'w'
I17
tp1044
a(S'w'
I15
tp1045
a(S'w'
I702
tp1046
a(S'w'
I16
tp1047
a(S'w'
I16
tp1048
a(S'w'
I702
tp1049
a(S'w'
I16
tp1050
a(S'w'
I718
tp1051
a(S'w'
I10
tp1052
a(S'p2_vo'
I2
tp1053
a(S'w'
I6
tp1054
a(S'w'
I718
tp1055
a(S'w'
I33
tp1056
a(S'w'
I695
tp1057
a(S'p1_vo'
I2
tp1058
a(S'w'
I5
tp1059
a(S'w'
I17
tp1060
a(S'w'
I717
tp1061
a(S'w'
I16
tp1062
a(S'w'
I718
tp1063
a(S'w'
I16
tp1064
a(S'w'
I718
tp1065
a(S'w'
I16
tp1066
a(S'w'
I718
tp1067
a(S'w'
I10
tp1068
a(S'p2_vo'
I1
tp1069
a(S'w'
I6
tp1070
a(S'w'
I717
tp1071
a(S'w'
I33
tp1072
a(S'w'
I696
tp1073
a(S'p1_vo'
I1
tp1074
a(S'w'
I5
tp1075
a(S'w'
I16
tp1076
a(S'w'
I718
tp1077
a(S'w'
I16
tp1078
a(S'w'
I718
tp1079
a(S'w'
I16
tp1080
a(S'w'
I718
tp1081
a(S'w'
I16
tp1082
a(S'w'
I717
tp1083
a(S'w'
I11
tp1084
a(S'p2_vo'
I0
tp1085
a(S'w'
I6
tp1086
a(S'w'
I717
tp1087
a(S'w'
I37
tp1088
a(S'w'
I692
tp1089
a(S'p1_vo'
I0
tp1090
a(S'w'
I5
tp1091
a(S'w'
I17
tp1092
a(S'w'
I717
tp1093
a(S'w'
I18
tp1094
a(S'w'
I717
tp1095
a(S'w'
I17
tp1096
a(S'w'
I716
tp1097
a(S'w'
I18
tp1098
a(S'w'
I7
tp1099
a(S'p2_du'
I0
tp1100
a(S'w'
I709
tp1101
a(S'w'
I734
tp1102
a(S'w'
I8
tp1103
a(S'p1_du'
I0
tp1104
a(S'w'
I1
tp1105
a.