(lp1
(S'clock'
p2
I1789773
tp3
a(S'p2_lh'
I1
tp4
a(S'p2_cv'
I1
tp5
a(S'p2_sp'
I3
tp6
a(S'p1_lh'
I1
tp7
a(S'p1_cv'
I1
tp8
a(S'p1_sp'
I3
tp9
a(S'w'
I87
tp10
a(S'p1_du'
I2
tp11
a(S'p1_vo'
I5
tp12
a(S'w'
I6
tp13
a(S'p1_ll'
I1
tp14
a(S'p1_th'
I2
tp15
a(S'w'
I3
tp16
a(S'p1_tl'
I168
tp17
a(S'w'
I27
tp18
a(S'p2_du'
I2
tp19
a(S'p2_vo'
I5
tp20
a(S'w'
I5
tp21
a(S'p2_ll'
I1
tp22
a(S'p2_th'
I2
tp23
a(S'w'
I3
tp24
a(S'p2_tl'
I167
tp25
a(S'w'
I14
tp26
a(S'tr_lr'
I21
tp27
a(S'w'
I5
tp28
a(S'tr_ll'
I1
tp29
a(S'tr_th'
I2
tp30
a(S'w'
I3
tp31
a(S'tr_tl'
I167
tp32
a(S'w'
I593
tp33
a(S'p1_vo'
I4
tp34
a(S'w'
I8
tp35
a(S'p2_vo'
I4
tp36
a(S'w'
I726
tp37
a(S'p1_vo'
I3
tp38
a(S'w'
I8
tp39
a(S'p2_vo'
I3
tp40
a(S'w'
I4396
tp41
a(S'p1_vo'
I2
tp42
a(S'w'
I8
tp43
a(S'p2_vo'
I2
tp44
a(S'w'
I2927
tp45
a(S'p1_vo'
I1
tp46
a(S'w'
I8
tp47
a(S'p2_vo'
I1
tp48
a(S'w'
I2957
tp49
a(S'p1_vo'
I5
tp50
a(S'w'
I6
tp51
a(S'p1_tl'
I129
tp52
a(S'w'
I21
tp53
a(S'p2_vo'
I5
tp54
a(S'w'
I6
tp55
a(S'p2_tl'
I128
tp56
a(S'w'
I15
tp57
a(S'tr_ll'
I1
tp58
a(S'w'
I3
tp59
a(S'tr_tl'
I128
tp60
a(S'w'
I652
tp61
a(S'p1_vo'
I4
tp62
a(S'w'
I8
tp63
a(S'p2_vo'
I4
tp64
a(S'w'
I726
tp65
a(S'p1_vo'
I3
tp66
a(S'w'
I8
tp67
a(S'p2_vo'
I3
tp68
a(S'w'
I4396
tp69
a(S'p1_vo'
I2
tp70
a(S'w'
I8
tp71
a(S'p2_vo'
I2
tp72
a(S'w'
I2927
tp73
a(S'p1_vo'
I1
tp74
a(S'w'
I8
tp75
a(S'p2_vo'
I1
tp76
a(S'w'
I2957
tp77
a(S'p1_vo'
I5
tp78
a(S'w'
I5
tp79
a(S'p1_ll'
I1
tp80
a(S'p1_th'
I1
tp81
a(S'w'
I3
tp82
a(S'p1_tl'
I253
tp83
a(S'w'
I21
tp84
a(S'p2_vo'
I5
tp85
a(S'w'
I6
tp86
a(S'p2_ll'
I1
tp87
a(S'p2_th'
I1
tp88
a(S'w'
I3
tp89
a(S'p2_tl'
I252
tp90
a(S'w'
I16
tp91
a(S'tr_ll'
I1
tp92
a(S'tr_th'
I1
tp93
a(S'w'
I3
tp94
a(S'tr_tl'
I252
tp95
a(S'w'
I646
tp96
a(S'p1_vo'
I4
tp97
a(S'w'
I8
tp98
a(S'p2_vo'
I4
tp99
a(S'w'
I725
tp100
a(S'p1_vo'
I3
tp101
a(S'w'
I8
tp102
a(S'p2_vo'
I3
tp103
a(S'w'
I4396
tp104
a(S'p1_vo'
I2
tp105
a(S'w'
I8
tp106
a(S'p2_vo'
I2
tp107
a(S'w'
I2927
tp108
a(S'p1_vo'
I1
tp109
a(S'w'
I8
tp110
a(S'p2_vo'
I1
tp111
a(S'w'
I2958
tp112
a(S'p1_vo'
I5
tp113
a(S'w'
I5
tp114
a(S'p1_ll'
I1
tp115
a(S'p1_th'
I2
tp116
a(S'w'
I3
tp117
a(S'p1_tl'
I28
tp118
a(S'w'
I21
tp119
a(S'p2_vo'
I5
tp120
a(S'w'
I6
tp121
a(S'p2_ll'
I1
tp122
a(S'p2_th'
I2
tp123
a(S'w'
I3
tp124
a(S'p2_tl'
I27
tp125
a(S'w'
I16
tp126
a(S'tr_ll'
I1
tp127
a(S'tr_th'
I2
tp128
a(S'w'
I3
tp129
a(S'tr_tl'
I27
tp130
a(S'w'
I645
tp131
a(S'p1_vo'
I4
tp132
a(S'w'
I8
tp133
a(S'p2_vo'
I4
tp134
a(S'w'
I726
tp135
a(S'p1_vo'
I3
tp136
a(S'w'
I8
tp137
a(S'p2_vo'
I3
tp138
a(S'w'
I4396
tp139
a(S'p1_vo'
I2
tp140
a(S'w'
I8
tp141
a(S'p2_vo'
I2
tp142
a(S'w'
I2927
tp143
a(S'p1_vo'
I1
tp144
a(S'w'
I8
tp145
a(S'p2_vo'
I1
tp146
a(S'w'
I2957
tp147
a(S'p1_vo'
I5
tp148
a(S'w'
I6
tp149
a(S'p1_tl'
I168
tp150
a(S'w'
I21
tp151
a(S'p2_vo'
I5
tp152
a(S'w'
I6
tp153
a(S'p2_tl'
I167
tp154
a(S'w'
I15
tp155
a(S'tr_ll'
I1
tp156
a(S'w'
I3
tp157
a(S'tr_tl'
I167
tp158
a(S'w'
I652
tp159
a(S'p1_vo'
I4
tp160
a(S'w'
I8
tp161
a(S'p2_vo'
I4
tp162
a(S'w'
I726
tp163
a(S'p1_vo'
I3
tp164
a(S'w'
I8
tp165
a(S'p2_vo'
I3
tp166
a(S'w'
I4396
tp167
a(S'p1_vo'
I2
tp168
a(S'w'
I8
tp169
a(S'p2_vo'
I2
tp170
a(S'w'
I2927
tp171
a(S'p1_vo'
I1
tp172
a(S'w'
I8
tp173
a(S'p2_vo'
I1
tp174
a(S'w'
I2957
tp175
a(S'p1_vo'
I5
tp176
a(S'w'
I6
tp177
a(S'p1_tl'
I129
tp178
a(S'w'
I21
tp179
a(S'p2_vo'
I5
tp180
a(S'w'
I6
tp181
a(S'p2_tl'
I128
tp182
a(S'w'
I15
tp183
a(S'tr_ll'
I1
tp184
a(S'w'
I3
tp185
a(S'tr_tl'
I128
tp186
a(S'w'
I652
tp187
a(S'p1_vo'
I4
tp188
a(S'w'
I8
tp189
a(S'p2_vo'
I4
tp190
a(S'w'
I725
tp191
a(S'p1_vo'
I3
tp192
a(S'w'
I8
tp193
a(S'p2_vo'
I3
tp194
a(S'w'
I4396
tp195
a(S'p1_vo'
I2
tp196
a(S'w'
I8
tp197
a(S'p2_vo'
I2
tp198
a(S'w'
I2927
tp199
a(S'p1_vo'
I1
tp200
a(S'w'
I8
tp201
a(S'p2_vo'
I1
tp202
a(S'w'
I2962
tp203
a(S'p1_vo'
I5
tp204
a(S'w'
I6
tp205
a(S'p1_ll'
I1
tp206
a(S'p1_th'
I1
tp207
a(S'w'
I3
tp208
a(S'p1_tl'
I172
tp209
a(S'w'
I23
tp210
a(S'p2_vo'
I5
tp211
a(S'w'
I6
tp212
a(S'p2_ll'
I1
tp213
a(S'p2_th'
I1
tp214
a(S'w'
I3
tp215
a(S'p2_tl'
I171
tp216
a(S'w'
I19
tp217
a(S'tr_ll'
I1
tp218
a(S'tr_th'
I1
tp219
a(S'w'
I3
tp220
a(S'tr_tl'
I171
tp221
a(S'w'
I635
tp222
a(S'p1_vo'
I4
tp223
a(S'w'
I8
tp224
a(S'p2_vo'
I4
tp225
a(S'w'
I726
tp226
a(S'p1_vo'
I3
tp227
a(S'w'
I8
tp228
a(S'p2_vo'
I3
tp229
a(S'w'
I4396
tp230
a(S'p1_vo'
I2
tp231
a(S'w'
I8
tp232
a(S'p2_vo'
I2
tp233
a(S'w'
I2927
tp234
a(S'p1_vo'
I1
tp235
a(S'w'
I8
tp236
a(S'p2_vo'
I1
tp237
a(S'w'
I2961
tp238
a(S'p1_vo'
I5
tp239
a(S'w'
I6
tp240
a(S'p1_tl'
I198
tp241
a(S'w'
I24
tp242
a(S'p2_vo'
I5
tp243
a(S'w'
I5
tp244
a(S'p2_tl'
I197
tp245
a(S'w'
I18
tp246
a(S'tr_ll'
I1
tp247
a(S'w'
I4
tp248
a(S'tr_tl'
I197
tp249
a(S'w'
I642
tp250
a(S'p1_vo'
I4
tp251
a(S'w'
I8
tp252
a(S'p2_vo'
I4
tp253
a(S'w'
I726
tp254
a(S'p1_vo'
I3
tp255
a(S'w'
I8
tp256
a(S'p2_vo'
I3
tp257
a(S'w'
I4396
tp258
a(S'p1_vo'
I2
tp259
a(S'w'
I8
tp260
a(S'p2_vo'
I2
tp261
a(S'w'
I2927
tp262
a(S'p1_vo'
I1
tp263
a(S'w'
I8
tp264
a(S'p2_vo'
I1
tp265
a(S'w'
I3005
tp266
a(S'p1_vo'
I5
tp267
a(S'w'
I5
tp268
a(S'p1_ll'
I1
tp269
a(S'p1_th'
I2
tp270
a(S'w'
I4
tp271
a(S'p1_tl'
I168
tp272
a(S'w'
I29
tp273
a(S'p2_vo'
I5
tp274
a(S'w'
I5
tp275
a(S'p2_ll'
I1
tp276
a(S'p2_th'
I2
tp277
a(S'w'
I4
tp278
a(S'p2_tl'
I167
tp279
a(S'w'
I21
tp280
a(S'tr_ll'
I1
tp281
a(S'tr_th'
I2
tp282
a(S'w'
I3
tp283
a(S'tr_tl'
I167
tp284
a(S'w'
I584
tp285
a(S'p1_vo'
I4
tp286
a(S'w'
I8
tp287
a(S'p2_vo'
I4
tp288
a(S'w'
I725
tp289
a(S'p1_vo'
I3
tp290
a(S'w'
I8
tp291
a(S'p2_vo'
I3
tp292
a(S'w'
I4396
tp293
a(S'p1_vo'
I2
tp294
a(S'w'
I8
tp295
a(S'p2_vo'
I2
tp296
a(S'w'
I2927
tp297
a(S'p1_vo'
I1
tp298
a(S'w'
I8
tp299
a(S'p2_vo'
I1
tp300
a(S'w'
I2958
tp301
a(S'p1_vo'
I5
tp302
a(S'w'
I6
tp303
a(S'p1_tl'
I129
tp304
a(S'w'
I21
tp305
a(S'p2_vo'
I5
tp306
a(S'w'
I6
tp307
a(S'p2_tl'
I128
tp308
a(S'w'
I15
tp309
a(S'tr_ll'
I1
tp310
a(S'w'
I3
tp311
a(S'tr_tl'
I128
tp312
a(S'w'
I651
tp313
a(S'p1_vo'
I4
tp314
a(S'w'
I8
tp315
a(S'p2_vo'
I4
tp316
a(S'w'
I726
tp317
a(S'p1_vo'
I3
tp318
a(S'w'
I8
tp319
a(S'p2_vo'
I3
tp320
a(S'w'
I4396
tp321
a(S'p1_vo'
I2
tp322
a(S'w'
I8
tp323
a(S'p2_vo'
I2
tp324
a(S'w'
I2927
tp325
a(S'p1_vo'
I1
tp326
a(S'w'
I8
tp327
a(S'p2_vo'
I1
tp328
a(S'w'
I2957
tp329
a(S'p1_vo'
I5
tp330
a(S'w'
I5
tp331
a(S'p1_ll'
I1
tp332
a(S'p1_th'
I1
tp333
a(S'w'
I3
tp334
a(S'p1_tl'
I253
tp335
a(S'w'
I21
tp336
a(S'p2_vo'
I5
tp337
a(S'w'
I6
tp338
a(S'p2_ll'
I1
tp339
a(S'p2_th'
I1
tp340
a(S'w'
I3
tp341
a(S'p2_tl'
I252
tp342
a(S'w'
I16
tp343
a(S'tr_ll'
I1
tp344
a(S'tr_th'
I1
tp345
a(S'w'
I3
tp346
a(S'tr_tl'
I252
tp347
a(S'w'
I646
tp348
a(S'p1_vo'
I4
tp349
a(S'w'
I8
tp350
a(S'p2_vo'
I4
tp351
a(S'w'
I726
tp352
a(S'p1_vo'
I3
tp353
a(S'w'
I8
tp354
a(S'p2_vo'
I3
tp355
a(S'w'
I4396
tp356
a(S'p1_vo'
I2
tp357
a(S'w'
I8
tp358
a(S'p2_vo'
I2
tp359
a(S'w'
I2927
tp360
a(S'p1_vo'
I1
tp361
a(S'w'
I8
tp362
a(S'p2_vo'
I1
tp363
a(S'w'
I2957
tp364
a(S'p1_vo'
I5
tp365
a(S'w'
I5
tp366
a(S'p1_ll'
I1
tp367
a(S'p1_th'
I2
tp368
a(S'w'
I3
tp369
a(S'p1_tl'
I28
tp370
a(S'w'
I21
tp371
a(S'p2_vo'
I5
tp372
a(S'w'
I6
tp373
a(S'p2_ll'
I1
tp374
a(S'p2_th'
I2
tp375
a(S'w'
I3
tp376
a(S'p2_tl'
I27
tp377
a(S'w'
I16
tp378
a(S'tr_ll'
I1
tp379
a(S'tr_th'
I2
tp380
a(S'w'
I3
tp381
a(S'tr_tl'
I27
tp382
a(S'w'
I646
tp383
a(S'p1_vo'
I4
tp384
a(S'w'
I8
tp385
a(S'p2_vo'
I4
tp386
a(S'w'
I725
tp387
a(S'p1_vo'
I3
tp388
a(S'w'
I8
tp389
a(S'p2_vo'
I3
tp390
a(S'w'
I4396
tp391
a(S'p1_vo'
I2
tp392
a(S'w'
I8
tp393
a(S'p2_vo'
I2
tp394
a(S'w'
I2927
tp395
a(S'p1_vo'
I1
tp396
a(S'w'
I8
tp397
a(S'p2_vo'
I1
tp398
a(S'w'
I2958
tp399
a(S'p1_vo'
I5
tp400
a(S'w'
I6
tp401
a(S'p1_tl'
I168
tp402
a(S'w'
I21
tp403
a(S'p2_vo'
I5
tp404
a(S'w'
I6
tp405
a(S'p2_tl'
I167
tp406
a(S'w'
I15
tp407
a(S'tr_ll'
I1
tp408
a(S'w'
I3
tp409
a(S'tr_tl'
I167
tp410
a(S'w'
I651
tp411
a(S'p1_vo'
I4
tp412
a(S'w'
I8
tp413
a(S'p2_vo'
I4
tp414
a(S'w'
I726
tp415
a(S'p1_vo'
I3
tp416
a(S'w'
I8
tp417
a(S'p2_vo'
I3
tp418
a(S'w'
I4396
tp419
a(S'p1_vo'
I2
tp420
a(S'w'
I8
tp421
a(S'p2_vo'
I2
tp422
a(S'w'
I2927
tp423
a(S'p1_vo'
I1
tp424
a(S'w'
I8
tp425
a(S'p2_vo'
I1
tp426
a(S'w'
I2957
tp427
a(S'p1_vo'
I5
tp428
a(S'w'
I6
tp429
a(S'p1_tl'
I129
tp430
a(S'w'
I21
tp431
a(S'p2_vo'
I5
tp432
a(S'w'
I6
tp433
a(S'p2_tl'
I128
tp434
a(S'w'
I15
tp435
a(S'tr_ll'
I1
tp436
a(S'w'
I3
tp437
a(S'tr_tl'
I128
tp438
a(S'w'
I652
tp439
a(S'p1_vo'
I4
tp440
a(S'w'
I8
tp441
a(S'p2_vo'
I4
tp442
a(S'w'
I726
tp443
a(S'p1_vo'
I3
tp444
a(S'w'
I8
tp445
a(S'p2_vo'
I3
tp446
a(S'w'
I4396
tp447
a(S'p1_vo'
I2
tp448
a(S'w'
I8
tp449
a(S'p2_vo'
I2
tp450
a(S'w'
I2927
tp451
a(S'p1_vo'
I1
tp452
a(S'w'
I8
tp453
a(S'p2_vo'
I1
tp454
a(S'w'
I2961
tp455
a(S'p1_vo'
I5
tp456
a(S'w'
I6
tp457
a(S'p1_ll'
I1
tp458
a(S'p1_th'
I1
tp459
a(S'w'
I3
tp460
a(S'p1_tl'
I172
tp461
a(S'w'
I23
tp462
a(S'p2_vo'
I5
tp463
a(S'w'
I6
tp464
a(S'p2_ll'
I1
tp465
a(S'p2_th'
I1
tp466
a(S'w'
I3
tp467
a(S'p2_tl'
I171
tp468
a(S'w'
I19
tp469
a(S'tr_ll'
I1
tp470
a(S'tr_th'
I1
tp471
a(S'w'
I3
tp472
a(S'tr_tl'
I171
tp473
a(S'w'
I636
tp474
a(S'p1_vo'
I4
tp475
a(S'w'
I8
tp476
a(S'p2_vo'
I4
tp477
a(S'w'
I725
tp478
a(S'p1_vo'
I3
tp479
a(S'w'
I8
tp480
a(S'p2_vo'
I3
tp481
a(S'w'
I4396
tp482
a(S'p1_vo'
I2
tp483
a(S'w'
I8
tp484
a(S'p2_vo'
I2
tp485
a(S'w'
I2927
tp486
a(S'p1_vo'
I1
tp487
a(S'w'
I8
tp488
a(S'p2_vo'
I1
tp489
a(S'w'
I2962
tp490
a(S'p1_vo'
I5
tp491
a(S'w'
I6
tp492
a(S'p1_tl'
I198
tp493
a(S'w'
I24
tp494
a(S'p2_vo'
I5
tp495
a(S'w'
I5
tp496
a(S'p2_tl'
I197
tp497
a(S'w'
I19
tp498
a(S'tr_ll'
I1
tp499
a(S'w'
I3
tp500
a(S'tr_tl'
I197
tp501
a(S'w'
I641
tp502
a(S'p1_vo'
I4
tp503
a(S'w'
I8
tp504
a(S'p2_vo'
I4
tp505
a(S'w'
I726
tp506
a(S'p1_vo'
I3
tp507
a(S'w'
I8
tp508
a(S'p2_vo'
I3
tp509
a(S'w'
I4396
tp510
a(S'p1_vo'
I2
tp511
a(S'w'
I8
tp512
a(S'p2_vo'
I2
tp513
a(S'w'
I2927
tp514
a(S'p1_vo'
I1
tp515
a(S'w'
I8
tp516
a(S'p2_vo'
I1
tp517
a(S'w'
I2970
tp518
a(S'p1_vo'
I5
tp519
a(S'w'
I5
tp520
a(S'p1_ll'
I1
tp521
a(S'p1_th'
I2
tp522
a(S'w'
I3
tp523
a(S'p1_tl'
I168
tp524
a(S'w'
I30
tp525
a(S'p2_vo'
I5
tp526
a(S'w'
I5
tp527
a(S'p2_ll'
I1
tp528
a(S'p2_th'
I2
tp529
a(S'w'
I3
tp530
a(S'p2_tl'
I167
tp531
a(S'w'
I22
tp532
a(S'tr_ll'
I1
tp533
a(S'tr_th'
I2
tp534
a(S'w'
I3
tp535
a(S'tr_tl'
I167
tp536
a(S'w'
I619
tp537
a(S'p1_vo'
I4
tp538
a(S'w'
I8
tp539
a(S'p2_vo'
I4
tp540
a(S'w'
I726
tp541
a(S'p1_vo'
I3
tp542
a(S'w'
I8
tp543
a(S'p2_vo'
I3
tp544
a(S'w'
I4396
tp545
a(S'p1_vo'
I2
tp546
a(S'w'
I8
tp547
a(S'p2_vo'
I2
tp548
a(S'w'
I2927
tp549
a(S'p1_vo'
I1
tp550
a(S'w'
I8
tp551
a(S'p2_vo'
I1
tp552
a(S'w'
I2957
tp553
a(S'p1_vo'
I5
tp554
a(S'w'
I6
tp555
a(S'p1_tl'
I129
tp556
a(S'w'
I21
tp557
a(S'p2_vo'
I5
tp558
a(S'w'
I6
tp559
a(S'p2_tl'
I128
tp560
a(S'w'
I15
tp561
a(S'tr_ll'
I1
tp562
a(S'w'
I3
tp563
a(S'tr_tl'
I128
tp564
a(S'w'
I652
tp565
a(S'p1_vo'
I4
tp566
a(S'w'
I8
tp567
a(S'p2_vo'
I4
tp568
a(S'w'
I725
tp569
a(S'p1_vo'
I3
tp570
a(S'w'
I8
tp571
a(S'p2_vo'
I3
tp572
a(S'w'
I4396
tp573
a(S'p1_vo'
I2
tp574
a(S'w'
I8
tp575
a(S'p2_vo'
I2
tp576
a(S'w'
I2927
tp577
a(S'p1_vo'
I1
tp578
a(S'w'
I8
tp579
a(S'p2_vo'
I1
tp580
a(S'w'
I2959
tp581
a(S'p1_vo'
I5
tp582
a(S'w'
I6
tp583
a(S'p1_ll'
I1
tp584
a(S'p1_th'
I1
tp585
a(S'w'
I3
tp586
a(S'p1_tl'
I253
tp587
a(S'w'
I21
tp588
a(S'p2_vo'
I5
tp589
a(S'w'
I5
tp590
a(S'p2_ll'
I1
tp591
a(S'p2_th'
I1
tp592
a(S'w'
I4
tp593
a(S'p2_tl'
I252
tp594
a(S'w'
I15
tp595
a(S'tr_ll'
I1
tp596
a(S'tr_th'
I1
tp597
a(S'w'
I4
tp598
a(S'tr_tl'
I252
tp599
a(S'w'
I643
tp600
a(S'p1_vo'
I4
tp601
a(S'w'
I8
tp602
a(S'p2_vo'
I4
tp603
a(S'w'
I726
tp604
a(S'p1_vo'
I3
tp605
a(S'w'
I8
tp606
a(S'p2_vo'
I3
tp607
a(S'w'
I4396
tp608
a(S'p1_vo'
I2
tp609
a(S'w'
I8
tp610
a(S'p2_vo'
I2
tp611
a(S'w'
I2927
tp612
a(S'p1_vo'
I1
tp613
a(S'w'
I8
tp614
a(S'p2_vo'
I1
tp615
a(S'w'
I2959
tp616
a(S'p1_vo'
I5
tp617
a(S'w'
I5
tp618
a(S'p1_ll'
I1
tp619
a(S'p1_th'
I2
tp620
a(S'w'
I3
tp621
a(S'p1_tl'
I28
tp622
a(S'w'
I22
tp623
a(S'p2_vo'
I5
tp624
a(S'w'
I5
tp625
a(S'p2_ll'
I1
tp626
a(S'p2_th'
I2
tp627
a(S'w'
I3
tp628
a(S'p2_tl'
I27
tp629
a(S'w'
I16
tp630
a(S'tr_ll'
I1
tp631
a(S'tr_th'
I2
tp632
a(S'w'
I3
tp633
a(S'tr_tl'
I27
tp634
a(S'w'
I644
tp635
a(S'p1_vo'
I4
tp636
a(S'w'
I8
tp637
a(S'p2_vo'
I4
tp638
a(S'w'
I726
tp639
a(S'p1_vo'
I3
tp640
a(S'w'
I8
tp641
a(S'p2_vo'
I3
tp642
a(S'w'
I4396
tp643
a(S'p1_vo'
I2
tp644
a(S'w'
I8
tp645
a(S'p2_vo'
I2
tp646
a(S'w'
I2927
tp647
a(S'p1_vo'
I1
tp648
a(S'w'
I8
tp649
a(S'p2_vo'
I1
tp650
a(S'w'
I2957
tp651
a(S'p1_vo'
I5
tp652
a(S'w'
I6
tp653
a(S'p1_tl'
I168
tp654
a(S'w'
I21
tp655
a(S'p2_vo'
I5
tp656
a(S'w'
I6
tp657
a(S'p2_tl'
I167
tp658
a(S'w'
I15
tp659
a(S'tr_ll'
I1
tp660
a(S'w'
I3
tp661
a(S'tr_tl'
I167
tp662
a(S'w'
I652
tp663
a(S'p1_vo'
I4
tp664
a(S'w'
I8
tp665
a(S'p2_vo'
I4
tp666
a(S'w'
I725
tp667
a(S'p1_vo'
I3
tp668
a(S'w'
I8
tp669
a(S'p2_vo'
I3
tp670
a(S'w'
I4396
tp671
a(S'p1_vo'
I2
tp672
a(S'w'
I8
tp673
a(S'p2_vo'
I2
tp674
a(S'w'
I2927
tp675
a(S'p1_vo'
I1
tp676
a(S'w'
I8
tp677
a(S'p2_vo'
I1
tp678
a(S'w'
I2958
tp679
a(S'p1_vo'
I5
tp680
a(S'w'
I6
tp681
a(S'p1_tl'
I129
tp682
a(S'w'
I21
tp683
a(S'p2_vo'
I5
tp684
a(S'w'
I6
tp685
a(S'p2_tl'
I128
tp686
a(S'w'
I15
tp687
a(S'tr_ll'
I1
tp688
a(S'w'
I3
tp689
a(S'tr_tl'
I128
tp690
a(S'w'
I651
tp691
a(S'p1_vo'
I4
tp692
a(S'w'
I8
tp693
a(S'p2_vo'
I4
tp694
a(S'w'
I726
tp695
a(S'p1_vo'
I3
tp696
a(S'w'
I8
tp697
a(S'p2_vo'
I3
tp698
a(S'w'
I4396
tp699
a(S'p1_vo'
I2
tp700
a(S'w'
I8
tp701
a(S'p2_vo'
I2
tp702
a(S'w'
I2927
tp703
a(S'p1_vo'
I1
tp704
a(S'w'
I8
tp705
a(S'p2_vo'
I1
tp706
a(S'w'
I2961
tp707
a(S'p1_vo'
I5
tp708
a(S'w'
I6
tp709
a(S'p1_ll'
I1
tp710
a(S'p1_th'
I1
tp711
a(S'w'
I3
tp712
a(S'p1_tl'
I172
tp713
a(S'w'
I23
tp714
a(S'p2_vo'
I5
tp715
a(S'w'
I6
tp716
a(S'p2_ll'
I1
tp717
a(S'p2_th'
I1
tp718
a(S'w'
I3
tp719
a(S'p2_tl'
I171
tp720
a(S'w'
I19
tp721
a(S'tr_ll'
I1
tp722
a(S'tr_th'
I1
tp723
a(S'w'
I3
tp724
a(S'tr_tl'
I171
tp725
a(S'w'
I636
tp726
a(S'p1_vo'
I4
tp727
a(S'w'
I8
tp728
a(S'p2_vo'
I4
tp729
a(S'w'
I726
tp730
a(S'p1_vo'
I3
tp731
a(S'w'
I8
tp732
a(S'p2_vo'
I3
tp733
a(S'w'
I4396
tp734
a(S'p1_vo'
I2
tp735
a(S'w'
I8
tp736
a(S'p2_vo'
I2
tp737
a(S'w'
I2927
tp738
a(S'p1_vo'
I1
tp739
a(S'w'
I8
tp740
a(S'p2_vo'
I1
tp741
a(S'w'
I2958
tp742
a(S'p1_vo'
I5
tp743
a(S'w'
I6
tp744
a(S'p1_tl'
I198
tp745
a(S'w'
I24
tp746
a(S'p2_vo'
I5
tp747
a(S'w'
I6
tp748
a(S'p2_tl'
I197
tp749
a(S'w'
I18
tp750
a(S'tr_ll'
I1
tp751
a(S'w'
I3
tp752
a(S'tr_tl'
I197
tp753
a(S'w'
I645
tp754
a(S'p1_vo'
I4
tp755
a(S'w'
I8
tp756
a(S'p2_vo'
I4
tp757
a(S'w'
I725
tp758
a(S'p1_vo'
I3
tp759
a(S'w'
I8
tp760
a(S'p2_vo'
I3
tp761
a(S'w'
I4396
tp762
a(S'p1_vo'
I2
tp763
a(S'w'
I8
tp764
a(S'p2_vo'
I2
tp765
a(S'w'
I2927
tp766
a(S'p1_vo'
I1
tp767
a(S'w'
I8
tp768
a(S'p2_vo'
I1
tp769
a(S'w'
I2971
tp770
a(S'p1_vo'
I5
tp771
a(S'w'
I5
tp772
a(S'p1_ll'
I1
tp773
a(S'p1_th'
I2
tp774
a(S'w'
I3
tp775
a(S'p1_tl'
I168
tp776
a(S'w'
I30
tp777
a(S'p2_vo'
I5
tp778
a(S'w'
I5
tp779
a(S'p2_ll'
I1
tp780
a(S'p2_th'
I2
tp781
a(S'w'
I3
tp782
a(S'p2_tl'
I167
tp783
a(S'w'
I22
tp784
a(S'tr_ll'
I1
tp785
a(S'tr_th'
I2
tp786
a(S'w'
I3
tp787
a(S'tr_tl'
I167
tp788
a(S'w'
I618
tp789
a(S'p1_vo'
I4
tp790
a(S'w'
I8
tp791
a(S'p2_vo'
I4
tp792
a(S'w'
I726
tp793
a(S'p1_vo'
I3
tp794
a(S'w'
I8
tp795
a(S'p2_vo'
I3
tp796
a(S'w'
I4396
tp797
a(S'p1_vo'
I2
tp798
a(S'w'
I8
tp799
a(S'p2_vo'
I2
tp800
a(S'w'
I2927
tp801
a(S'p1_vo'
I1
tp802
a(S'w'
I8
tp803
a(S'p2_vo'
I1
tp804
a(S'w'
I2957
tp805
a(S'p1_vo'
I5
tp806
a(S'w'
I6
tp807
a(S'p1_tl'
I129
tp808
a(S'w'
I21
tp809
a(S'p2_vo'
I5
tp810
a(S'w'
I6
tp811
a(S'p2_tl'
I128
tp812
a(S'w'
I15
tp813
a(S'tr_ll'
I1
tp814
a(S'w'
I3
tp815
a(S'tr_tl'
I128
tp816
a(S'w'
I652
tp817
a(S'p1_vo'
I4
tp818
a(S'w'
I8
tp819
a(S'p2_vo'
I4
tp820
a(S'w'
I726
tp821
a(S'p1_vo'
I3
tp822
a(S'w'
I8
tp823
a(S'p2_vo'
I3
tp824
a(S'w'
I4396
tp825
a(S'p1_vo'
I2
tp826
a(S'w'
I8
tp827
a(S'p2_vo'
I2
tp828
a(S'w'
I2927
tp829
a(S'p1_vo'
I1
tp830
a(S'w'
I8
tp831
a(S'p2_vo'
I1
tp832
a(S'w'
I2958
tp833
a(S'p1_vo'
I5
tp834
a(S'w'
I6
tp835
a(S'p1_ll'
I1
tp836
a(S'p1_th'
I1
tp837
a(S'w'
I3
tp838
a(S'p1_tl'
I253
tp839
a(S'w'
I21
tp840
a(S'p2_vo'
I5
tp841
a(S'w'
I5
tp842
a(S'p2_ll'
I1
tp843
a(S'p2_th'
I1
tp844
a(S'w'
I4
tp845
a(S'p2_tl'
I252
tp846
a(S'w'
I15
tp847
a(S'tr_ll'
I1
tp848
a(S'tr_th'
I1
tp849
a(S'w'
I4
tp850
a(S'tr_tl'
I252
tp851
a(S'w'
I644
tp852
a(S'p1_vo'
I4
tp853
a(S'w'
I8
tp854
a(S'p2_vo'
I4
tp855
a(S'w'
I725
tp856
a(S'p1_vo'
I3
tp857
a(S'w'
I8
tp858
a(S'p2_vo'
I3
tp859
a(S'w'
I4396
tp860
a(S'p1_vo'
I2
tp861
a(S'w'
I8
tp862
a(S'p2_vo'
I2
tp863
a(S'w'
I2927
tp864
a(S'p1_vo'
I1
tp865
a(S'w'
I8
tp866
a(S'p2_vo'
I1
tp867
a(S'w'
I2960
tp868
a(S'p1_vo'
I5
tp869
a(S'w'
I5
tp870
a(S'p1_ll'
I1
tp871
a(S'p1_th'
I2
tp872
a(S'w'
I3
tp873
a(S'p1_tl'
I28
tp874
a(S'w'
I22
tp875
a(S'p2_vo'
I5
tp876
a(S'w'
I5
tp877
a(S'p2_ll'
I1
tp878
a(S'p2_th'
I2
tp879
a(S'w'
I3
tp880
a(S'p2_tl'
I27
tp881
a(S'w'
I16
tp882
a(S'tr_ll'
I1
tp883
a(S'tr_th'
I2
tp884
a(S'w'
I3
tp885
a(S'tr_tl'
I27
tp886
a(S'w'
I643
tp887
a(S'p1_vo'
I4
tp888
a(S'w'
I8
tp889
a(S'p2_vo'
I4
tp890
a(S'w'
I726
tp891
a(S'p1_vo'
I3
tp892
a(S'w'
I8
tp893
a(S'p2_vo'
I3
tp894
a(S'w'
I4396
tp895
a(S'p1_vo'
I2
tp896
a(S'w'
I8
tp897
a(S'p2_vo'
I2
tp898
a(S'w'
I2927
tp899
a(S'p1_vo'
I1
tp900
a(S'w'
I8
tp901
a(S'p2_vo'
I1
tp902
a(S'w'
I2957
tp903
a(S'p1_vo'
I5
tp904
a(S'w'
I6
tp905
a(S'p1_tl'
I168
tp906
a(S'w'
I21
tp907
a(S'p2_vo'
I5
tp908
a(S'w'
I6
tp909
a(S'p2_tl'
I167
tp910
a(S'w'
I15
tp911
a(S'tr_ll'
I1
tp912
a(S'w'
I3
tp913
a(S'tr_tl'
I167
tp914
a(S'w'
I652
tp915
a(S'p1_vo'
I4
tp916
a(S'w'
I8
tp917
a(S'p2_vo'
I4
tp918
a(S'w'
I726
tp919
a(S'p1_vo'
I3
tp920
a(S'w'
I8
tp921
a(S'p2_vo'
I3
tp922
a(S'w'
I4396
tp923
a(S'p1_vo'
I2
tp924
a(S'w'
I8
tp925
a(S'p2_vo'
I2
tp926
a(S'w'
I2927
tp927
a(S'p1_vo'
I1
tp928
a(S'w'
I8
tp929
a(S'p2_vo'
I1
tp930
a(S'w'
I2957
tp931
a(S'p1_vo'
I5
tp932
a(S'w'
I6
tp933
a(S'p1_tl'
I129
tp934
a(S'w'
I21
tp935
a(S'p2_vo'
I5
tp936
a(S'w'
I6
tp937
a(S'p2_tl'
I128
tp938
a(S'w'
I15
tp939
a(S'tr_ll'
I1
tp940
a(S'w'
I3
tp941
a(S'tr_tl'
I128
tp942
a(S'w'
I652
tp943
a(S'p1_vo'
I4
tp944
a(S'w'
I8
tp945
a(S'p2_vo'
I4
tp946
a(S'w'
I725
tp947
a(S'p1_vo'
I3
tp948
a(S'w'
I8
tp949
a(S'p2_vo'
I3
tp950
a(S'w'
I4396
tp951
a(S'p1_vo'
I2
tp952
a(S'w'
I8
tp953
a(S'p2_vo'
I2
tp954
a(S'w'
I2927
tp955
a(S'p1_vo'
I1
tp956
a(S'w'
I8
tp957
a(S'p2_vo'
I1
tp958
a(S'w'
I2961
tp959
a(S'p1_vo'
I5
tp960
a(S'w'
I6
tp961
a(S'p1_ll'
I1
tp962
a(S'p1_th'
I1
tp963
a(S'w'
I3
tp964
a(S'p1_tl'
I172
tp965
a(S'w'
I23
tp966
a(S'p2_vo'
I5
tp967
a(S'w'
I6
tp968
a(S'p2_ll'
I1
tp969
a(S'p2_th'
I1
tp970
a(S'w'
I3
tp971
a(S'p2_tl'
I171
tp972
a(S'w'
I19
tp973
a(S'tr_ll'
I1
tp974
a(S'tr_th'
I1
tp975
a(S'w'
I3
tp976
a(S'tr_tl'
I171
tp977
a(S'w'
I636
tp978
a(S'p1_vo'
I4
tp979
a(S'w'
I8
tp980
a(S'p2_vo'
I4
tp981
a(S'w'
I726
tp982
a(S'p1_vo'
I3
tp983
a(S'w'
I8
tp984
a(S'p2_vo'
I3
tp985
a(S'w'
I4396
tp986
a(S'p1_vo'
I2
tp987
a(S'w'
I8
tp988
a(S'p2_vo'
I2
tp989
a(S'w'
I2927
tp990
a(S'p1_vo'
I1
tp991
a(S'w'
I8
tp992
a(S'p2_vo'
I1
tp993
a(S'w'
I2958
tp994
a(S'p1_vo'
I5
tp995
a(S'w'
I6
tp996
a(S'p1_tl'
I198
tp997
a(S'w'
I24
tp998
a(S'p2_vo'
I5
tp999
a(S'w'
I6
tp1000
a(S'p2_tl'
I197
tp1001
a(S'w'
I18
tp1002
a(S'tr_ll'
I1
tp1003
a(S'w'
I3
tp1004
a(S'tr_tl'
I197
tp1005
a(S'w'
I645
tp1006
a(S'p1_vo'
I4
tp1007
a(S'w'
I8
tp1008
a(S'p2_vo'
I4
tp1009
a(S'w'
I726
tp1010
a(S'p1_vo'
I3
tp1011
a(S'w'
I8
tp1012
a(S'p2_vo'
I3
tp1013
a(S'w'
I4395
tp1014
a(S'p1_vo'
I2
tp1015
a(S'w'
I8
tp1016
a(S'p2_vo'
I2
tp1017
a(S'w'
I2928
tp1018
a(S'p1_vo'
I1
tp1019
a(S'w'
I8
tp1020
a(S'p2_vo'
I1
tp1021
a(S'w'
I2927
tp1022
a.