(lp1
(S'clock'
p2
I1789772
tp3
a(S'p1_lh'
I1
tp4
a(S'p1_cv'
I1
tp5
a(S'p1_sn'
I1
tp6
a(S'p2_lh'
I1
tp7
a(S'p2_cv'
I1
tp8
a(S'p2_sn'
I1
tp9
a(S'tr_lh'
I1
tp10
a(S'no_lh'
I1
tp11
a(S'no_cv'
I1
tp12
a(S'ch_no'
I1
tp13
a(S'ch_tr'
I1
tp14
a(S'ch_p2'
I1
tp15
a(S'ch_p1'
I1
tp16
a(S'fc_mo'
I0
tp17
a(S'p2_tl'
I127
tp18
a(S'w'
I1
tp19
a(S'p2_ll'
I1
tp20
a(S'w'
I2
tp21
a(S'p2_du'
I2
tp22
a(S'p2_vo'
I9
tp23
a(S'w'
I41
tp24
a(S'p1_tl'
I201
tp25
a(S'w'
I2
tp26
a(S'p1_ll'
I1
tp27
a(S'w'
I2
tp28
a(S'p1_du'
I2
tp29
a(S'p1_vo'
I6
tp30
a(S'w'
I1388
tp31
a(S'w'
I25
tp32
a(S'w'
I8062
tp33
a(S'p2_vo'
I1
tp34
a(S'w'
I23
tp35
a(S'p1_vo'
I1
tp36
a(S'w'
I2910
tp37
a(S'p2_tl'
I169
tp38
a(S'w'
I1
tp39
a(S'p2_ll'
I1
tp40
a(S'w'
I2
tp41
a(S'p2_vo'
I9
tp42
a(S'w'
I21
tp43
a(S'w'
I1
tp44
a(S'p1_ll'
I1
tp45
a(S'w'
I2
tp46
a(S'p1_vo'
I6
tp47
a(S'w'
I707
tp48
a(S'w'
I25
tp49
a(S'w'
I5111
tp50
a(S'p2_tl'
I179
tp51
a(S'w'
I1
tp52
a(S'p2_ll'
I1
tp53
a(S'w'
I23
tp54
a(S'p1_tl'
I213
tp55
a(S'w'
I1
tp56
a(S'p1_ll'
I1
tp57
a(S'w'
I722
tp58
a(S'w'
I25
tp59
a(S'w'
I5086
tp60
a(S'p2_tl'
I169
tp61
a(S'w'
I1
tp62
a(S'p2_ll'
I1
tp63
a(S'w'
I23
tp64
a(S'p1_tl'
I201
tp65
a(S'w'
I1
tp66
a(S'p1_ll'
I1
tp67
a(S'w'
I1443
tp68
a(S'w'
I25
tp69
a(S'w'
I8048
tp70
a(S'p2_vo'
I1
tp71
a(S'w'
I23
tp72
a(S'p1_vo'
I1
tp73
a(S'w'
I2910
tp74
a(S'p2_tl'
I127
tp75
a(S'w'
I1
tp76
a(S'p2_ll'
I1
tp77
a(S'w'
I3
tp78
a(S'p2_vo'
I9
tp79
a(S'w'
I20
tp80
a(S'w'
I1
tp81
a(S'p1_ll'
I1
tp82
a(S'w'
I2
tp83
a(S'p1_vo'
I6
tp84
a(S'w'
I708
tp85
a(S'w'
I25
tp86
a(S'w'
I8048
tp87
a(S'p2_vo'
I1
tp88
a(S'w'
I23
tp89
a(S'p1_vo'
I1
tp90
a(S'w'
I2910
tp91
a(S'p2_tl'
I134
tp92
a(S'w'
I1
tp93
a(S'p2_ll'
I1
tp94
a(S'w'
I3
tp95
a(S'p2_vo'
I9
tp96
a(S'w'
I22
tp97
a(S'p1_tl'
I226
tp98
a(S'w'
I1
tp99
a(S'p1_ll'
I1
tp100
a(S'w'
I2
tp101
a(S'p1_vo'
I6
tp102
a(S'w'
I705
tp103
a(S'w'
I25
tp104
a(S'w'
I5111
tp105
a(S'p2_tl'
I142
tp106
a(S'w'
I1
tp107
a(S'p2_ll'
I1
tp108
a(S'w'
I23
tp109
a(S'p1_tl'
I239
tp110
a(S'w'
I1
tp111
a(S'p1_ll'
I1
tp112
a(S'w'
I1444
tp113
a(S'w'
I25
tp114
a(S'w'
I4377
tp115
a(S'p2_tl'
I134
tp116
a(S'w'
I1
tp117
a(S'p2_ll'
I1
tp118
a(S'w'
I22
tp119
a(S'p1_tl'
I226
tp120
a(S'w'
I1
tp121
a(S'p1_ll'
I1
tp122
a(S'w'
I1444
tp123
a(S'w'
I25
tp124
a(S'w'
I5111
tp125
a(S'p2_tl'
I113
tp126
a(S'w'
I1
tp127
a(S'p2_ll'
I1
tp128
a(S'w'
I24
tp129
a(S'p1_tl'
I169
tp130
a(S'w'
I1
tp131
a(S'p1_ll'
I1
tp132
a(S'w'
I708
tp133
a(S'w'
I26
tp134
a(S'w'
I5112
tp135
a(S'p2_tl'
I84
tp136
a(S'w'
I1
tp137
a(S'p2_ll'
I1
tp138
a(S'w'
I23
tp139
a(S'p1_tl'
I134
tp140
a(S'w'
I1
tp141
a(S'p1_ll'
I1
tp142
a(S'w'
I708
tp143
a(S'w'
I25
tp144
a(S'w'
I8048
tp145
a(S'p2_vo'
I1
tp146
a(S'w'
I23
tp147
a(S'p1_vo'
I1
tp148
a(S'w'
I15371
tp149
a(S'p2_du'
I0
tp150
a(S'p2_vo'
I0
tp151
a(S'w'
I3
tp152
a(S'w'
I1
tp153
a(S'p2_ll'
I1
tp154
a(S'w'
I10
tp155
a(S'p1_du'
I0
tp156
a(S'p1_vo'
I0
tp157
a(S'w'
I3
tp158
a(S'w'
I1
tp159
a(S'p1_ll'
I1
tp160
a(S'w'
I1
tp161
a.