(lp1
(S'clock'
p2
I1789772
tp3
a(S'p1_lh'
I1
tp4
a(S'p1_cv'
I1
tp5
a(S'p1_sn'
I1
tp6
a(S'p2_lh'
I1
tp7
a(S'p2_cv'
I1
tp8
a(S'p2_sn'
I1
tp9
a(S'tr_lh'
I1
tp10
a(S'no_lh'
I1
tp11
a(S'no_cv'
I1
tp12
a(S'ch_no'
I1
tp13
a(S'ch_tr'
I1
tp14
a(S'ch_p2'
I1
tp15
a(S'ch_p1'
I1
tp16
a(S'fc_mo'
I0
tp17
a(S'w'
I1
tp18
a(S'tr_tl'
I13
tp19
a(S'w'
I1
tp20
a(S'tr_ll'
I1
tp21
a(S'tr_th'
I1
tp22
a(S'w'
I1
tp23
a(S'tr_lr'
I127
tp24
a(S'w'
I31
tp25
a(S'p2_tl'
I213
tp26
a(S'w'
I1
tp27
a(S'p2_ll'
I1
tp28
a(S'w'
I3
tp29
a(S'p2_du'
I1
tp30
a(S'p2_vo'
I12
tp31
a(S'w'
I32
tp32
a(S'p1_tl'
I103
tp33
a(S'w'
I1
tp34
a(S'p1_ll'
I1
tp35
a(S'p1_th'
I1
tp36
a(S'w'
I2
tp37
a(S'p1_du'
I2
tp38
a(S'p1_vo'
I7
tp39
a(S'w'
I1403
tp40
a(S'w'
I35
tp41
a(S'w'
I2166
tp42
a(S'p2_vo'
I2
tp43
a(S'w'
I32
tp44
a(S'p1_vo'
I1
tp45
a(S'w'
I1404
tp46
a(S'tr_lr'
I0
tp47
a(S'w'
I739
tp48
a(S'tr_tl'
I103
tp49
a(S'w'
I1
tp50
a(S'tr_ll'
I1
tp51
a(S'w'
I1
tp52
a(S'tr_lr'
I127
tp53
a(S'w'
I22
tp54
a(S'p2_tl'
I13
tp55
a(S'w'
I1
tp56
a(S'p2_ll'
I1
tp57
a(S'p2_th'
I1
tp58
a(S'w'
I2
tp59
a(S'p2_vo'
I12
tp60
a(S'w'
I20
tp61
a(S'p1_tl'
I171
tp62
a(S'w'
I2
tp63
a(S'p1_ll'
I1
tp64
a(S'w'
I2
tp65
a(S'p1_vo'
I7
tp66
a(S'w'
I710
tp67
a(S'w'
I34
tp68
a(S'w'
I2900
tp69
a(S'p2_vo'
I2
tp70
a(S'w'
I33
tp71
a(S'p1_vo'
I1
tp72
a(S'w'
I669
tp73
a(S'tr_lr'
I0
tp74
a(S'w'
I740
tp75
a(S'tr_tl'
I13
tp76
a(S'w'
I1
tp77
a(S'tr_ll'
I1
tp78
a(S'w'
I1
tp79
a(S'tr_lr'
I127
tp80
a(S'w'
I21
tp81
a(S'p2_tl'
I213
tp82
a(S'w'
I2
tp83
a(S'p2_ll'
I1
tp84
a(S'p2_th'
I0
tp85
a(S'w'
I2
tp86
a(S'p2_vo'
I12
tp87
a(S'w'
I20
tp88
a(S'p1_tl'
I103
tp89
a(S'w'
I1
tp90
a(S'p1_ll'
I1
tp91
a(S'w'
I3
tp92
a(S'p1_vo'
I7
tp93
a(S'w'
I709
tp94
a(S'w'
I35
tp95
a(S'w'
I2900
tp96
a(S'p2_vo'
I2
tp97
a(S'w'
I32
tp98
a(S'p1_vo'
I1
tp99
a(S'w'
I670
tp100
a(S'tr_lr'
I0
tp101
a(S'w'
I741
tp102
a(S'tr_tl'
I213
tp103
a(S'w'
I1
tp104
a(S'tr_ll'
I1
tp105
a(S'tr_th'
I0
tp106
a(S'w'
I1
tp107
a(S'tr_lr'
I127
tp108
a(S'w'
I20
tp109
a(S'p2_tl'
I179
tp110
a(S'w'
I1
tp111
a(S'p2_ll'
I1
tp112
a(S'w'
I3
tp113
a(S'p2_vo'
I12
tp114
a(S'w'
I20
tp115
a(S'p1_tl'
I13
tp116
a(S'w'
I1
tp117
a(S'p1_ll'
I1
tp118
a(S'w'
I2
tp119
a(S'p1_vo'
I7
tp120
a(S'w'
I710
tp121
a(S'w'
I34
tp122
a(S'w'
I2900
tp123
a(S'p2_vo'
I2
tp124
a(S'w'
I33
tp125
a(S'p1_vo'
I1
tp126
a(S'w'
I669
tp127
a(S'tr_lr'
I0
tp128
a(S'w'
I742
tp129
a(S'tr_tl'
I239
tp130
a(S'w'
I1
tp131
a(S'tr_ll'
I1
tp132
a(S'w'
I1
tp133
a(S'tr_lr'
I127
tp134
a(S'w'
I21
tp135
a(S'p2_tl'
I190
tp136
a(S'w'
I1
tp137
a(S'p2_ll'
I1
tp138
a(S'w'
I2
tp139
a(S'p2_vo'
I12
tp140
a(S'w'
I24
tp141
a(S'p1_tl'
I64
tp142
a(S'w'
I1
tp143
a(S'p1_ll'
I1
tp144
a(S'w'
I3
tp145
a(S'p1_vo'
I7
tp146
a(S'w'
I1438
tp147
a(S'w'
I25
tp148
a(S'w'
I2176
tp149
a(S'p2_vo'
I2
tp150
a(S'w'
I702
tp151
a(S'tr_lr'
I0
tp152
a(S'w'
I3723
tp153
a(S'p1_vo'
I1
tp154
a(S'w'
I2889
tp155
a(S'tr_tl'
I190
tp156
a(S'w'
I1
tp157
a(S'tr_ll'
I1
tp158
a(S'w'
I1
tp159
a(S'tr_lr'
I127
tp160
a(S'w'
I20
tp161
a(S'p2_tl'
I160
tp162
a(S'w'
I1
tp163
a(S'p2_ll'
I1
tp164
a(S'w'
I2
tp165
a(S'p2_vo'
I12
tp166
a(S'w'
I20
tp167
a(S'p1_tl'
I239
tp168
a(S'w'
I1
tp169
a(S'p1_ll'
I1
tp170
a(S'p1_th'
I0
tp171
a(S'w'
I3
tp172
a(S'p1_vo'
I7
tp173
a(S'w'
I710
tp174
a(S'w'
I24
tp175
a(S'w'
I2910
tp176
a(S'p2_vo'
I2
tp177
a(S'w'
I702
tp178
a(S'tr_lr'
I0
tp179
a(S'w'
I3723
tp180
a(S'p1_vo'
I1
tp181
a(S'w'
I2156
tp182
a(S'tr_tl'
I213
tp183
a(S'w'
I1
tp184
a(S'tr_ll'
I1
tp185
a(S'w'
I1
tp186
a(S'tr_lr'
I127
tp187
a(S'w'
I24
tp188
a(S'p2_tl'
I169
tp189
a(S'w'
I1
tp190
a(S'p2_ll'
I1
tp191
a(S'w'
I3
tp192
a(S'p2_vo'
I12
tp193
a(S'w'
I24
tp194
a(S'p1_tl'
I29
tp195
a(S'w'
I1
tp196
a(S'p1_ll'
I1
tp197
a(S'p1_th'
I1
tp198
a(S'w'
I2
tp199
a(S'p1_vo'
I7
tp200
a(S'w'
I1425
tp201
a(S'w'
I22
tp202
a(S'w'
I2176
tp203
a(S'p2_tl'
I160
tp204
a(S'w'
I1
tp205
a(S'p2_ll'
I1
tp206
a(S'w'
I733
tp207
a(S'w'
I2939
tp208
a(S'p2_tl'
I169
tp209
a(S'w'
I1
tp210
a(S'p2_ll'
I1
tp211
a(S'w'
I727
tp212
a(S'w'
I24
tp213
a(S'p1_vo'
I6
tp214
a(S'w'
I3647
tp215
a(S'p2_vo'
I11
tp216
a(S'w'
I3669
tp217
a(S'p2_vo'
I10
tp218
a(S'w'
I20
tp219
a(S'p1_vo'
I5
tp220
a(S'w'
I3649
tp221
a(S'p2_vo'
I9
tp222
a(S'w'
I3669
tp223
a(S'p2_vo'
I8
tp224
a(S'w'
I20
tp225
a(S'p1_vo'
I4
tp226
a(S'w'
I6584
tp227
a(S'p2_vo'
I7
tp228
a(S'w'
I20
tp229
a(S'p1_vo'
I3
tp230
a(S'w'
I3649
tp231
a(S'p2_vo'
I6
tp232
a(S'w'
I3669
tp233
a(S'p2_vo'
I5
tp234
a(S'w'
I20
tp235
a(S'p1_vo'
I2
tp236
a(S'w'
I3649
tp237
a(S'p2_vo'
I4
tp238
a(S'w'
I3689
tp239
a(S'p1_vo'
I1
tp240
a(S'w'
I2915
tp241
a(S'p2_vo'
I3
tp242
a(S'w'
I3669
tp243
a(S'p2_vo'
I2
tp244
a(S'w'
I2916
tp245
a(S'tr_lr'
I0
tp246
a(S'w'
I753
tp247
a(S'p2_vo'
I1
tp248
a(S'w'
I10
tp249
a(S'p1_vo'
I0
tp250
a(S'w'
I7318
tp251
a(S'p2_vo'
I0
tp252
a(S'w'
I23475
tp253
a(S'tr_ll'
I1
tp254
a(S'w'
I9
tp255
a(S'p2_du'
I0
tp256
a(S'w'
I3
tp257
a(S'w'
I1
tp258
a(S'p2_ll'
I1
tp259
a(S'w'
I10
tp260
a(S'p1_du'
I0
tp261
a(S'w'
I3
tp262
a(S'w'
I1
tp263
a(S'p1_ll'
I1
tp264
a(S'w'
I1
tp265
a.