(lp1
(S'clock'
p2
I1789772
tp3
a(S'p1_lh'
I1
tp4
a(S'p1_cv'
I1
tp5
a(S'p1_sn'
I1
tp6
a(S'p2_lh'
I1
tp7
a(S'p2_cv'
I1
tp8
a(S'p2_sn'
I1
tp9
a(S'tr_lh'
I1
tp10
a(S'no_lh'
I1
tp11
a(S'no_cv'
I1
tp12
a(S'ch_no'
I1
tp13
a(S'ch_tr'
I1
tp14
a(S'ch_p2'
I1
tp15
a(S'ch_p1'
I1
tp16
a(S'fc_mo'
I0
tp17
a(S'p2_tl'
I124
tp18
a(S'w'
I1
tp19
a(S'p2_ll'
I1
tp20
a(S'p2_th'
I1
tp21
a(S'w'
I2
tp22
a(S'p2_du'
I2
tp23
a(S'p2_vo'
I14
tp24
a(S'w'
I43
tp25
a(S'p1_tl'
I196
tp26
a(S'w'
I1
tp27
a(S'p1_ll'
I1
tp28
a(S'p1_th'
I1
tp29
a(S'w'
I3
tp30
a(S'p1_du'
I2
tp31
a(S'p1_vo'
I12
tp32
a(S'w'
I1394
tp33
a(S'w'
I32
tp34
a(S'w'
I2895
tp35
a(S'p2_tl'
I83
tp36
a(S'w'
I1
tp37
a(S'p2_ll'
I1
tp38
a(S'w'
I24
tp39
a(S'p1_tl'
I171
tp40
a(S'w'
I1
tp41
a(S'p1_ll'
I1
tp42
a(S'w'
I716
tp43
a(S'w'
I32
tp44
a(S'w'
I2895
tp45
a(S'p2_tl'
I46
tp46
a(S'w'
I1
tp47
a(S'p2_ll'
I1
tp48
a(S'w'
I22
tp49
a(S'p1_tl'
I124
tp50
a(S'w'
I1
tp51
a(S'p1_ll'
I1
tp52
a(S'w'
I718
tp53
a(S'w'
I32
tp54
a(S'w'
I2895
tp55
a(S'p2_tl'
I29
tp56
a(S'w'
I1
tp57
a(S'p2_ll'
I1
tp58
a(S'w'
I22
tp59
a(S'p1_tl'
I83
tp60
a(S'w'
I1
tp61
a(S'p1_ll'
I1
tp62
a(S'w'
I718
tp63
a(S'w'
I32
tp64
a(S'w'
I2895
tp65
a(S'p2_tl'
I254
tp66
a(S'w'
I1
tp67
a(S'p2_ll'
I1
tp68
a(S'p2_th'
I0
tp69
a(S'w'
I22
tp70
a(S'p1_tl'
I46
tp71
a(S'w'
I1
tp72
a(S'p1_ll'
I1
tp73
a(S'w'
I718
tp74
a(S'w'
I32
tp75
a(S'w'
I2895
tp76
a(S'p2_tl'
I226
tp77
a(S'w'
I1
tp78
a(S'p2_ll'
I1
tp79
a(S'w'
I22
tp80
a(S'p1_tl'
I29
tp81
a(S'w'
I1
tp82
a(S'p1_ll'
I1
tp83
a(S'w'
I718
tp84
a(S'w'
I32
tp85
a(S'w'
I2897
tp86
a(S'p2_tl'
I213
tp87
a(S'w'
I1
tp88
a(S'p2_ll'
I1
tp89
a(S'w'
I23
tp90
a(S'p1_tl'
I254
tp91
a(S'w'
I1
tp92
a(S'p1_ll'
I1
tp93
a(S'p1_th'
I0
tp94
a(S'w'
I715
tp95
a(S'w'
I32
tp96
a(S'w'
I2165
tp97
a(S'p2_tl'
I190
tp98
a(S'w'
I1
tp99
a(S'p2_ll'
I1
tp100
a(S'w'
I27
tp101
a(S'p1_tl'
I226
tp102
a(S'w'
I1
tp103
a(S'p1_ll'
I1
tp104
a(S'w'
I704
tp105
a(S'w'
I28
tp106
a(S'w'
I5111
tp107
a(S'p2_vo'
I2
tp108
a(S'w'
I25
tp109
a(S'p1_vo'
I2
tp110
a(S'w'
I12461
tp111
a(S'w'
I1
tp112
a(S'p2_ll'
I1
tp113
a(S'w'
I3
tp114
a(S'p2_vo'
I14
tp115
a(S'w'
I24
tp116
a(S'w'
I1
tp117
a(S'p1_ll'
I1
tp118
a(S'w'
I2
tp119
a(S'p1_vo'
I12
tp120
a(S'w'
I717
tp121
a(S'w'
I42
tp122
a(S'w'
I2174
tp123
a(S'p2_vo'
I2
tp124
a(S'w'
I40
tp125
a(S'p1_vo'
I2
tp126
a(S'w'
I667
tp127
a(S'w'
I1
tp128
a(S'p2_ll'
I1
tp129
a(S'w'
I3
tp130
a(S'p2_vo'
I14
tp131
a(S'w'
I26
tp132
a(S'w'
I1
tp133
a(S'p1_ll'
I1
tp134
a(S'w'
I3
tp135
a(S'p1_vo'
I12
tp136
a(S'w'
I4362
tp137
a(S'p2_vo'
I13
tp138
a(S'w'
I19
tp139
a(S'p1_vo'
I11
tp140
a(S'w'
I2182
tp141
a(S'p2_tl'
I189
tp142
a(S'w'
I22
tp143
a(S'p1_tl'
I224
tp144
a(S'w'
I1458
tp145
a(S'p2_tl'
I190
tp146
a(S'w'
I5
tp147
a(S'p2_vo'
I12
tp148
a(S'w'
I18
tp149
a(S'p1_tl'
I226
tp150
a(S'w'
I4
tp151
a(S'p1_vo'
I10
tp152
a(S'w'
I2162
tp153
a(S'p2_tl'
I191
tp154
a(S'w'
I22
tp155
a(S'p1_tl'
I228
tp156
a(S'w'
I711
tp157
a(S'p2_tl'
I190
tp158
a(S'w'
I23
tp159
a(S'p1_tl'
I226
tp160
a(S'w'
I714
tp161
a(S'p2_vo'
I11
tp162
a(S'w'
I20
tp163
a(S'p1_vo'
I9
tp164
a(S'w'
I711
tp165
a(S'p2_tl'
I189
tp166
a(S'w'
I23
tp167
a(S'p1_tl'
I224
tp168
a(S'w'
I2166
tp169
a(S'p2_tl'
I190
tp170
a(S'w'
I23
tp171
a(S'p1_tl'
I226
tp172
a(S'w'
I712
tp173
a(S'p2_vo'
I10
tp174
a(S'w'
I20
tp175
a(S'p1_vo'
I8
tp176
a(S'w'
I712
tp177
a(S'p2_tl'
I191
tp178
a(S'w'
I23
tp179
a(S'p1_tl'
I228
tp180
a(S'w'
I1445
tp181
a(S'p2_tl'
I190
tp182
a(S'w'
I22
tp183
a(S'p1_tl'
I226
tp184
a(S'w'
I1445
tp185
a(S'p2_tl'
I189
tp186
a(S'w'
I5
tp187
a(S'p2_vo'
I9
tp188
a(S'w'
I18
tp189
a(S'p1_tl'
I224
tp190
a(S'w'
I2179
tp191
a(S'p2_tl'
I190
tp192
a(S'w'
I23
tp193
a(S'p1_tl'
I226
tp194
a(S'w'
I1444
tp195
a(S'p2_tl'
I191
tp196
a(S'w'
I5
tp197
a(S'p2_vo'
I8
tp198
a(S'w'
I18
tp199
a(S'p1_tl'
I228
tp200
a(S'w'
I4
tp201
a(S'p1_vo'
I7
tp202
a(S'w'
I1441
tp203
a(S'p2_tl'
I190
tp204
a(S'w'
I22
tp205
a(S'p1_tl'
I226
tp206
a(S'w'
I1446
tp207
a(S'p2_tl'
I189
tp208
a(S'w'
I22
tp209
a(S'p1_tl'
I224
tp210
a(S'w'
I713
tp211
a(S'p2_vo'
I7
tp212
a(S'w'
I20
tp213
a(S'p1_vo'
I6
tp214
a(S'w'
I1446
tp215
a(S'p2_tl'
I190
tp216
a(S'w'
I23
tp217
a(S'p1_tl'
I226
tp218
a(S'w'
I1445
tp219
a(S'p2_tl'
I191
tp220
a(S'w'
I22
tp221
a(S'p1_tl'
I228
tp222
a(S'w'
I711
tp223
a(S'p2_tl'
I190
tp224
a(S'w'
I4
tp225
a(S'p2_vo'
I6
tp226
a(S'w'
I19
tp227
a(S'p1_tl'
I226
tp228
a(S'w'
I4
tp229
a(S'p1_vo'
I5
tp230
a(S'w'
I2175
tp231
a(S'p2_tl'
I189
tp232
a(S'w'
I23
tp233
a(S'p1_tl'
I224
tp234
a(S'w'
I718
tp235
a(S'p2_tl'
I142
tp236
a(S'w'
I2
tp237
a(S'p2_ll'
I1
tp238
a(S'w'
I2
tp239
a(S'p2_vo'
I14
tp240
a(S'w'
I28
tp241
a(S'p1_tl'
I190
tp242
a(S'w'
I1
tp243
a(S'p1_ll'
I1
tp244
a(S'w'
I3
tp245
a(S'p1_vo'
I12
tp246
a(S'w'
I695
tp247
a(S'w'
I28
tp248
a(S'w'
I5845
tp249
a(S'p2_vo'
I2
tp250
a(S'w'
I25
tp251
a(S'p1_vo'
I2
tp252
a(S'w'
I4374
tp253
a(S'p2_tl'
I226
tp254
a(S'w'
I1
tp255
a(S'p2_ll'
I1
tp256
a(S'w'
I2
tp257
a(S'p2_vo'
I14
tp258
a(S'w'
I22
tp259
a(S'p1_tl'
I29
tp260
a(S'w'
I1
tp261
a(S'p1_ll'
I1
tp262
a(S'p1_th'
I1
tp263
a(S'w'
I3
tp264
a(S'p1_vo'
I12
tp265
a(S'w'
I1440
tp266
a(S'w'
I28
tp267
a(S'w'
I5110
tp268
a(S'p2_vo'
I2
tp269
a(S'w'
I26
tp270
a(S'p1_vo'
I2
tp271
a(S'w'
I4374
tp272
a(S'p2_tl'
I169
tp273
a(S'w'
I1
tp274
a(S'p2_ll'
I1
tp275
a(S'w'
I2
tp276
a(S'p2_vo'
I14
tp277
a(S'w'
I20
tp278
a(S'p1_tl'
I226
tp279
a(S'w'
I1
tp280
a(S'p1_ll'
I1
tp281
a(S'p1_th'
I0
tp282
a(S'w'
I3
tp283
a(S'p1_vo'
I12
tp284
a(S'w'
I1442
tp285
a(S'w'
I28
tp286
a(S'w'
I5111
tp287
a(S'p2_vo'
I2
tp288
a(S'w'
I25
tp289
a(S'p1_vo'
I2
tp290
a(S'w'
I5106
tp291
a(S'p2_tl'
I190
tp292
a(S'w'
I1
tp293
a(S'p2_ll'
I1
tp294
a(S'w'
I3
tp295
a(S'p2_vo'
I14
tp296
a(S'w'
I20
tp297
a(S'p1_tl'
I254
tp298
a(S'w'
I1
tp299
a(S'p1_ll'
I1
tp300
a(S'w'
I3
tp301
a(S'p1_vo'
I12
tp302
a(S'w'
I709
tp303
a(S'w'
I28
tp304
a(S'w'
I5111
tp305
a(S'p2_vo'
I2
tp306
a(S'w'
I25
tp307
a(S'p1_vo'
I2
tp308
a(S'w'
I12454
tp309
a(S'p2_tl'
I127
tp310
a(S'w'
I1
tp311
a(S'p2_ll'
I1
tp312
a(S'w'
I3
tp313
a(S'p2_vo'
I14
tp314
a(S'w'
I32
tp315
a(S'p1_tl'
I190
tp316
a(S'w'
I1
tp317
a(S'p1_ll'
I1
tp318
a(S'w'
I2
tp319
a(S'p1_vo'
I12
tp320
a(S'w'
I703
tp321
a(S'w'
I42
tp322
a(S'w'
I2161
tp323
a(S'p2_vo'
I2
tp324
a(S'w'
I40
tp325
a(S'p1_vo'
I2
tp326
a(S'w'
I680
tp327
a(S'w'
I1
tp328
a(S'p2_ll'
I1
tp329
a(S'w'
I3
tp330
a(S'p2_vo'
I14
tp331
a(S'w'
I26
tp332
a(S'w'
I1
tp333
a(S'p1_ll'
I1
tp334
a(S'w'
I3
tp335
a(S'p1_vo'
I12
tp336
a(S'w'
I4362
tp337
a(S'p2_vo'
I13
tp338
a(S'w'
I19
tp339
a(S'p1_vo'
I11
tp340
a(S'w'
I2182
tp341
a(S'p2_tl'
I125
tp342
a(S'w'
I22
tp343
a(S'p1_tl'
I188
tp344
a(S'w'
I1445
tp345
a(S'p2_tl'
I127
tp346
a(S'w'
I5
tp347
a(S'p2_vo'
I12
tp348
a(S'w'
I18
tp349
a(S'p1_tl'
I190
tp350
a(S'w'
I5
tp351
a(S'p1_vo'
I10
tp352
a(S'w'
I2174
tp353
a(S'p2_tl'
I129
tp354
a(S'w'
I22
tp355
a(S'p1_tl'
I192
tp356
a(S'w'
I711
tp357
a(S'p2_tl'
I127
tp358
a(S'w'
I23
tp359
a(S'p1_tl'
I190
tp360
a(S'w'
I714
tp361
a(S'p2_vo'
I11
tp362
a(S'w'
I20
tp363
a(S'p1_vo'
I9
tp364
a(S'w'
I711
tp365
a(S'p2_tl'
I125
tp366
a(S'w'
I23
tp367
a(S'p1_tl'
I188
tp368
a(S'w'
I2179
tp369
a(S'p2_tl'
I127
tp370
a(S'w'
I23
tp371
a(S'p1_tl'
I190
tp372
a(S'w'
I712
tp373
a(S'p2_vo'
I10
tp374
a(S'w'
I20
tp375
a(S'p1_vo'
I8
tp376
a(S'w'
I712
tp377
a(S'p2_tl'
I129
tp378
a(S'w'
I23
tp379
a(S'p1_tl'
I192
tp380
a(S'w'
I1445
tp381
a(S'p2_tl'
I127
tp382
a(S'w'
I22
tp383
a(S'p1_tl'
I190
tp384
a(S'w'
I1446
tp385
a(S'p2_tl'
I125
tp386
a(S'w'
I4
tp387
a(S'p2_vo'
I9
tp388
a(S'w'
I18
tp389
a(S'p1_tl'
I188
tp390
a(S'w'
I2179
tp391
a(S'p2_tl'
I127
tp392
a(S'w'
I23
tp393
a(S'p1_tl'
I190
tp394
a(S'w'
I1444
tp395
a(S'p2_tl'
I129
tp396
a(S'w'
I5
tp397
a(S'p2_vo'
I8
tp398
a(S'w'
I18
tp399
a(S'p1_tl'
I192
tp400
a(S'w'
I5
tp401
a(S'p1_vo'
I7
tp402
a(S'w'
I1440
tp403
a(S'p2_tl'
I127
tp404
a(S'w'
I22
tp405
a(S'p1_tl'
I190
tp406
a(S'w'
I1446
tp407
a(S'p2_tl'
I125
tp408
a(S'w'
I22
tp409
a(S'p1_tl'
I188
tp410
a(S'w'
I713
tp411
a(S'p2_vo'
I7
tp412
a(S'w'
I20
tp413
a(S'p1_vo'
I6
tp414
a(S'w'
I1446
tp415
a(S'p2_tl'
I127
tp416
a(S'w'
I23
tp417
a(S'p1_tl'
I190
tp418
a(S'w'
I1445
tp419
a(S'p2_tl'
I129
tp420
a(S'w'
I22
tp421
a(S'p1_tl'
I192
tp422
a(S'w'
I711
tp423
a(S'p2_tl'
I127
tp424
a(S'w'
I4
tp425
a(S'p2_vo'
I6
tp426
a(S'w'
I19
tp427
a(S'p1_tl'
I190
tp428
a(S'w'
I4
tp429
a(S'p1_vo'
I5
tp430
a(S'w'
I2175
tp431
a(S'p2_tl'
I125
tp432
a(S'w'
I23
tp433
a(S'p1_tl'
I188
tp434
a(S'w'
I1445
tp435
a(S'p2_tl'
I127
tp436
a(S'w'
I4
tp437
a(S'p2_vo'
I5
tp438
a(S'w'
I18
tp439
a(S'p1_tl'
I190
tp440
a(S'w'
I5
tp441
a(S'p1_vo'
I4
tp442
a(S'w'
I2174
tp443
a(S'p2_tl'
I129
tp444
a(S'w'
I23
tp445
a(S'p1_tl'
I192
tp446
a(S'w'
I710
tp447
a(S'p2_tl'
I127
tp448
a(S'w'
I23
tp449
a(S'p1_tl'
I190
tp450
a(S'w'
I714
tp451
a(S'p2_vo'
I4
tp452
a(S'w'
I1465
tp453
a(S'p2_tl'
I125
tp454
a(S'w'
I23
tp455
a(S'p1_tl'
I188
tp456
a(S'w'
I1445
tp457
a(S'p2_tl'
I127
tp458
a(S'w'
I23
tp459
a(S'p1_tl'
I190
tp460
a(S'w'
I712
tp461
a(S'p2_vo'
I3
tp462
a(S'w'
I20
tp463
a(S'p1_vo'
I3
tp464
a(S'w'
I1446
tp465
a(S'p2_tl'
I129
tp466
a(S'w'
I23
tp467
a(S'p1_tl'
I192
tp468
a(S'w'
I711
tp469
a(S'p2_tl'
I127
tp470
a(S'w'
I22
tp471
a(S'p1_tl'
I190
tp472
a(S'w'
I2179
tp473
a(S'p2_tl'
I125
tp474
a(S'w'
I5
tp475
a(S'p2_vo'
I2
tp476
a(S'w'
I18
tp477
a(S'p1_tl'
I188
tp478
a(S'w'
I4
tp479
a(S'p1_vo'
I2
tp480
a(S'w'
I1441
tp481
a(S'p2_tl'
I127
tp482
a(S'w'
I23
tp483
a(S'p1_tl'
I190
tp484
a(S'w'
I2178
tp485
a(S'p2_tl'
I129
tp486
a(S'w'
I5
tp487
a(S'p2_vo'
I1
tp488
a(S'w'
I18
tp489
a(S'p1_tl'
I192
tp490
a(S'w'
I4
tp491
a(S'p1_vo'
I1
tp492
a(S'w'
I707
tp493
a(S'p2_tl'
I127
tp494
a(S'w'
I22
tp495
a(S'p1_tl'
I190
tp496
a(S'w'
I1446
tp497
a(S'p2_tl'
I125
tp498
a(S'w'
I22
tp499
a(S'p1_tl'
I188
tp500
a(S'w'
I2179
tp501
a(S'p2_tl'
I127
tp502
a(S'w'
I23
tp503
a(S'p1_tl'
I190
tp504
a(S'w'
I1445
tp505
a(S'p2_tl'
I129
tp506
a(S'w'
I23
tp507
a(S'p1_tl'
I192
tp508
a(S'w'
I1436
tp509
a(S'p2_vo'
I0
tp510
a(S'w'
I9
tp511
a(S'p1_vo'
I0
tp512
a(S'w'
I10261
tp513
a(S'p2_du'
I0
tp514
a(S'w'
I2
tp515
a(S'p2_tl'
I127
tp516
a(S'w'
I2
tp517
a(S'p2_ll'
I1
tp518
a(S'w'
I9
tp519
a(S'p1_du'
I0
tp520
a(S'w'
I3
tp521
a(S'p1_tl'
I190
tp522
a(S'w'
I1
tp523
a(S'p1_ll'
I1
tp524
a(S'w'
I1
tp525
a.