(lp1
(S'clock'
p2
I1789772
tp3
a(S'p1_lh'
I1
tp4
a(S'p1_cv'
I1
tp5
a(S'p1_sn'
I1
tp6
a(S'p2_lh'
I1
tp7
a(S'p2_cv'
I1
tp8
a(S'p2_sn'
I1
tp9
a(S'tr_lh'
I1
tp10
a(S'no_lh'
I1
tp11
a(S'no_cv'
I1
tp12
a(S'ch_no'
I1
tp13
a(S'ch_tr'
I1
tp14
a(S'ch_p2'
I1
tp15
a(S'ch_p1'
I1
tp16
a(S'fc_mo'
I0
tp17
a(S'w'
I1
tp18
a(S'p2_tl'
I174
tp19
a(S'w'
I1
tp20
a(S'p2_ll'
I1
tp21
a(S'p2_th'
I6
tp22
a(S'w'
I2
tp23
a(S'p2_du'
I1
tp24
a(S'p2_vo'
I7
tp25
a(S'w'
I29
tp26
a(S'w'
I1
tp27
a(S'p1_tl'
I169
tp28
a(S'w'
I1
tp29
a(S'p1_ll'
I1
tp30
a(S'w'
I2
tp31
a(S'p1_vo'
I1
tp32
a(S'w'
I1403
tp33
a(S'w'
I20
tp34
a(S'w'
I718
tp35
a(S'p2_tl'
I78
tp36
a(S'w'
I1
tp37
a(S'p2_ll'
I1
tp38
a(S'w'
I729
tp39
a(S'w'
I24
tp40
a(S'p1_tl'
I160
tp41
a(S'w'
I1
tp42
a(S'p1_ll'
I1
tp43
a(S'w'
I713
tp44
a(S'p2_tl'
I243
tp45
a(S'w'
I1
tp46
a(S'p2_ll'
I1
tp47
a(S'p2_th'
I5
tp48
a(S'w'
I18
tp49
a(S'w'
I1444
tp50
a(S'w'
I738
tp51
a(S'p2_tl'
I159
tp52
a(S'w'
I1
tp53
a(S'p2_ll'
I1
tp54
a(S'w'
I23
tp55
a(S'p1_tl'
I151
tp56
a(S'w'
I1
tp57
a(S'p1_ll'
I1
tp58
a(S'w'
I705
tp59
a(S'w'
I20
tp60
a(S'w'
I718
tp61
a(S'p2_tl'
I77
tp62
a(S'w'
I1
tp63
a(S'p2_ll'
I1
tp64
a(S'w'
I728
tp65
a(S'w'
I24
tp66
a(S'p1_tl'
I142
tp67
a(S'w'
I2
tp68
a(S'p1_ll'
I1
tp69
a(S'w'
I1446
tp70
a(S'p2_tl'
I1
tp71
a(S'w'
I1
tp72
a(S'p2_ll'
I1
tp73
a(S'w'
I18
tp74
a(S'w'
I711
tp75
a(S'w'
I738
tp76
a(S'p2_tl'
I185
tp77
a(S'w'
I1
tp78
a(S'p2_ll'
I1
tp79
a(S'p2_th'
I4
tp80
a(S'w'
I24
tp81
a(S'p1_tl'
I134
tp82
a(S'w'
I1
tp83
a(S'p1_ll'
I1
tp84
a(S'w'
I703
tp85
a(S'w'
I20
tp86
a(S'w'
I718
tp87
a(S'p2_tl'
I117
tp88
a(S'w'
I1
tp89
a(S'p2_ll'
I1
tp90
a(S'w'
I1463
tp91
a(S'w'
I24
tp92
a(S'p1_tl'
I127
tp93
a(S'w'
I1
tp94
a(S'p1_ll'
I1
tp95
a(S'w'
I713
tp96
a(S'p2_tl'
I53
tp97
a(S'w'
I1
tp98
a(S'p2_ll'
I1
tp99
a(S'w'
I18
tp100
a(S'w'
I710
tp101
a(S'w'
I738
tp102
a(S'p2_tl'
I248
tp103
a(S'w'
I1
tp104
a(S'p2_ll'
I1
tp105
a(S'p2_th'
I3
tp106
a(S'w'
I23
tp107
a(S'p1_tl'
I119
tp108
a(S'w'
I1
tp109
a(S'p1_ll'
I1
tp110
a(S'w'
I730
tp111
a(S'w'
I21
tp112
a(S'w'
I1451
tp113
a(S'p2_tl'
I191
tp114
a(S'w'
I1
tp115
a(S'p2_ll'
I1
tp116
a(S'w'
I716
tp117
a(S'w'
I24
tp118
a(S'p1_tl'
I113
tp119
a(S'w'
I2
tp120
a(S'p1_ll'
I1
tp121
a(S'w'
I725
tp122
a(S'p2_tl'
I137
tp123
a(S'w'
I1
tp124
a(S'p2_ll'
I1
tp125
a(S'w'
I18
tp126
a(S'w'
I698
tp127
a(S'w'
I755
tp128
a(S'p2_tl'
I87
tp129
a(S'w'
I1
tp130
a(S'p2_ll'
I1
tp131
a(S'w'
I24
tp132
a(S'p1_tl'
I106
tp133
a(S'w'
I1
tp134
a(S'p1_ll'
I1
tp135
a(S'w'
I3
tp136
a(S'p1_vo'
I2
tp137
a(S'w'
I1404
tp138
a(S'w'
I20
tp139
a(S'w'
I718
tp140
a(S'p2_tl'
I39
tp141
a(S'w'
I1
tp142
a(S'p2_ll'
I1
tp143
a(S'w'
I729
tp144
a(S'w'
I24
tp145
a(S'p1_tl'
I100
tp146
a(S'w'
I1
tp147
a(S'p1_ll'
I1
tp148
a(S'w'
I713
tp149
a(S'p2_tl'
I249
tp150
a(S'w'
I1
tp151
a(S'p2_ll'
I1
tp152
a(S'p2_th'
I2
tp153
a(S'w'
I18
tp154
a(S'w'
I710
tp155
a(S'w'
I1472
tp156
a(S'p2_tl'
I207
tp157
a(S'w'
I1
tp158
a(S'p2_ll'
I1
tp159
a(S'w'
I23
tp160
a(S'p1_tl'
I95
tp161
a(S'w'
I1
tp162
a(S'p1_ll'
I1
tp163
a(S'w'
I705
tp164
a(S'w'
I20
tp165
a(S'w'
I718
tp166
a(S'p2_tl'
I166
tp167
a(S'w'
I1
tp168
a(S'p2_ll'
I1
tp169
a(S'w'
I729
tp170
a(S'w'
I24
tp171
a(S'p1_tl'
I89
tp172
a(S'w'
I1
tp173
a(S'p1_ll'
I1
tp174
a(S'w'
I712
tp175
a(S'p2_tl'
I128
tp176
a(S'w'
I1
tp177
a(S'p2_ll'
I1
tp178
a(S'w'
I19
tp179
a(S'w'
I1444
tp180
a(S'w'
I738
tp181
a(S'p2_tl'
I92
tp182
a(S'w'
I1
tp183
a(S'p2_ll'
I1
tp184
a(S'w'
I26
tp185
a(S'p1_tl'
I84
tp186
a(S'w'
I1
tp187
a(S'p1_ll'
I1
tp188
a(S'w'
I3
tp189
a(S'p1_vo'
I3
tp190
a(S'w'
I698
tp191
a(S'w'
I20
tp192
a(S'w'
I719
tp193
a(S'p2_tl'
I58
tp194
a(S'w'
I1
tp195
a(S'p2_ll'
I1
tp196
a(S'w'
I728
tp197
a(S'w'
I24
tp198
a(S'p1_tl'
I80
tp199
a(S'w'
I1
tp200
a(S'p1_ll'
I1
tp201
a(S'w'
I1447
tp202
a(S'p2_tl'
I26
tp203
a(S'w'
I1
tp204
a(S'p2_ll'
I1
tp205
a(S'w'
I18
tp206
a(S'w'
I710
tp207
a(S'w'
I738
tp208
a(S'p2_tl'
I252
tp209
a(S'w'
I2
tp210
a(S'p2_ll'
I1
tp211
a(S'p2_th'
I1
tp212
a(S'w'
I22
tp213
a(S'p1_tl'
I75
tp214
a(S'w'
I1
tp215
a(S'p1_ll'
I1
tp216
a(S'w'
I705
tp217
a(S'w'
I20
tp218
a(S'w'
I718
tp219
a(S'p2_tl'
I223
tp220
a(S'w'
I1
tp221
a(S'p2_ll'
I1
tp222
a(S'w'
I1462
tp223
a(S'w'
I25
tp224
a(S'p1_tl'
I71
tp225
a(S'w'
I1
tp226
a(S'p1_ll'
I1
tp227
a(S'w'
I712
tp228
a(S'p2_tl'
I196
tp229
a(S'w'
I2
tp230
a(S'p2_ll'
I1
tp231
a(S'w'
I18
tp232
a(S'w'
I710
tp233
a(S'w'
I743
tp234
a(S'p2_tl'
I171
tp235
a(S'w'
I1
tp236
a(S'p2_ll'
I1
tp237
a(S'w'
I24
tp238
a(S'p1_tl'
I67
tp239
a(S'w'
I1
tp240
a(S'p1_ll'
I1
tp241
a(S'w'
I3
tp242
a(S'p1_vo'
I4
tp243
a(S'w'
I696
tp244
a(S'w'
I20
tp245
a(S'w'
I1451
tp246
a(S'p2_tl'
I147
tp247
a(S'w'
I2
tp248
a(S'p2_ll'
I1
tp249
a(S'w'
I728
tp250
a(S'w'
I24
tp251
a(S'p1_tl'
I63
tp252
a(S'w'
I1
tp253
a(S'p1_ll'
I1
tp254
a(S'w'
I713
tp255
a(S'p2_tl'
I124
tp256
a(S'w'
I1
tp257
a(S'p2_ll'
I1
tp258
a(S'w'
I19
tp259
a(S'w'
I710
tp260
a(S'w'
I738
tp261
a(S'p2_tl'
I103
tp262
a(S'w'
I1
tp263
a(S'p2_ll'
I1
tp264
a(S'w'
I22
tp265
a(S'p1_tl'
I59
tp266
a(S'w'
I1
tp267
a(S'p1_ll'
I1
tp268
a(S'w'
I1439
tp269
a(S'w'
I20
tp270
a(S'w'
I718
tp271
a(S'p2_tl'
I83
tp272
a(S'w'
I1
tp273
a(S'p2_ll'
I1
tp274
a(S'w'
I729
tp275
a(S'w'
I24
tp276
a(S'p1_tl'
I56
tp277
a(S'w'
I1
tp278
a(S'p1_ll'
I1
tp279
a(S'w'
I713
tp280
a(S'p2_tl'
I64
tp281
a(S'w'
I1
tp282
a(S'p2_ll'
I1
tp283
a(S'w'
I18
tp284
a(S'w'
I710
tp285
a(S'w'
I1472
tp286
a(S'p2_tl'
I46
tp287
a(S'w'
I1
tp288
a(S'p2_ll'
I1
tp289
a(S'w'
I25
tp290
a(S'p1_tl'
I53
tp291
a(S'w'
I1
tp292
a(S'p1_ll'
I1
tp293
a(S'w'
I2
tp294
a(S'p1_vo'
I5
tp295
a(S'w'
I701
tp296
a(S'w'
I20
tp297
a(S'w'
I718
tp298
a(S'p2_tl'
I29
tp299
a(S'w'
I1
tp300
a(S'p2_ll'
I1
tp301
a(S'w'
I728
tp302
a(S'w'
I25
tp303
a(S'p1_tl'
I50
tp304
a(S'w'
I1
tp305
a(S'p1_ll'
I1
tp306
a(S'w'
I712
tp307
a(S'p2_tl'
I13
tp308
a(S'w'
I1
tp309
a(S'p2_ll'
I1
tp310
a(S'w'
I19
tp311
a(S'w'
I1444
tp312
a(S'w'
I738
tp313
a(S'p2_tl'
I254
tp314
a(S'w'
I1
tp315
a(S'p2_ll'
I1
tp316
a(S'p2_th'
I0
tp317
a(S'w'
I22
tp318
a(S'p1_tl'
I47
tp319
a(S'w'
I1
tp320
a(S'p1_ll'
I1
tp321
a(S'w'
I705
tp322
a(S'w'
I20
tp323
a(S'w'
I718
tp324
a(S'p2_tl'
I239
tp325
a(S'w'
I1
tp326
a(S'p2_ll'
I1
tp327
a(S'w'
I729
tp328
a(S'w'
I24
tp329
a(S'p1_tl'
I44
tp330
a(S'w'
I1
tp331
a(S'p1_ll'
I1
tp332
a(S'w'
I1447
tp333
a(S'p2_tl'
I226
tp334
a(S'w'
I1
tp335
a(S'p2_ll'
I1
tp336
a(S'w'
I18
tp337
a(S'w'
I710
tp338
a(S'w'
I759
tp339
a.