(lp1
(S'clock'
p2
I1789772
tp3
a(S'p1_lh'
I1
tp4
a(S'p1_cv'
I1
tp5
a(S'p1_sn'
I1
tp6
a(S'p2_lh'
I1
tp7
a(S'p2_cv'
I1
tp8
a(S'p2_sn'
I1
tp9
a(S'tr_lh'
I1
tp10
a(S'no_lh'
I1
tp11
a(S'no_cv'
I1
tp12
a(S'ch_no'
I1
tp13
a(S'ch_tr'
I1
tp14
a(S'ch_p2'
I1
tp15
a(S'ch_p1'
I1
tp16
a(S'fc_mo'
I0
tp17
a(S'w'
I1
tp18
a(S'tr_tl'
I83
tp19
a(S'w'
I1
tp20
a(S'tr_ll'
I1
tp21
a(S'tr_th'
I1
tp22
a(S'w'
I1
tp23
a(S'tr_lr'
I127
tp24
a(S'w'
I33
tp25
a(S'p2_tl'
I201
tp26
a(S'w'
I1
tp27
a(S'p2_ll'
I1
tp28
a(S'w'
I3
tp29
a(S'p2_du'
I2
tp30
a(S'p2_vo'
I14
tp31
a(S'w'
I33
tp32
a(S'p1_tl'
I254
tp33
a(S'w'
I1
tp34
a(S'p1_ll'
I1
tp35
a(S'w'
I2
tp36
a(S'p1_du'
I2
tp37
a(S'p1_vo'
I12
tp38
a(S'w'
I1394
tp39
a(S'w'
I32
tp40
a(S'w'
I2139
tp41
a(S'tr_lr'
I0
tp42
a(S'w'
I763
tp43
a(S'p2_vo'
I2
tp44
a(S'w'
I30
tp45
a(S'p1_vo'
I2
tp46
a(S'w'
I9488
tp47
a(S'tr_ll'
I1
tp48
a(S'tr_lr'
I127
tp49
a(S'w'
I24
tp50
a(S'w'
I2
tp51
a(S'p2_ll'
I1
tp52
a(S'w'
I2
tp53
a(S'p2_vo'
I14
tp54
a(S'w'
I24
tp55
a(S'w'
I1
tp56
a(S'p1_ll'
I1
tp57
a(S'w'
I3
tp58
a(S'p1_vo'
I12
tp59
a(S'w'
I702
tp60
a(S'w'
I35
tp61
a(S'w'
I2134
tp62
a(S'tr_lr'
I0
tp63
a(S'w'
I33
tp64
a(S'p2_vo'
I2
tp65
a(S'w'
I33
tp66
a(S'p1_vo'
I2
tp67
a(S'w'
I1409
tp68
a(S'tr_ll'
I1
tp69
a(S'w'
I1
tp70
a(S'tr_lr'
I127
tp71
a(S'w'
I21
tp72
a(S'w'
I1
tp73
a(S'p2_ll'
I1
tp74
a(S'w'
I2
tp75
a(S'p2_vo'
I14
tp76
a(S'w'
I21
tp77
a(S'w'
I1
tp78
a(S'p1_ll'
I1
tp79
a(S'w'
I2
tp80
a(S'p1_vo'
I12
tp81
a(S'w'
I710
tp82
a(S'w'
I35
tp83
a(S'w'
I2134
tp84
a(S'tr_lr'
I0
tp85
a(S'w'
I33
tp86
a(S'p2_vo'
I2
tp87
a(S'w'
I32
tp88
a(S'p1_vo'
I2
tp89
a(S'w'
I5812
tp90
a(S'tr_tl'
I254
tp91
a(S'w'
I1
tp92
a(S'tr_ll'
I1
tp93
a(S'tr_th'
I0
tp94
a(S'tr_lr'
I127
tp95
a(S'w'
I20
tp96
a(S'p2_tl'
I169
tp97
a(S'w'
I2
tp98
a(S'p2_ll'
I1
tp99
a(S'w'
I2
tp100
a(S'p2_vo'
I14
tp101
a(S'w'
I22
tp102
a(S'p1_tl'
I201
tp103
a(S'w'
I1
tp104
a(S'p1_ll'
I1
tp105
a(S'w'
I2
tp106
a(S'p1_vo'
I12
tp107
a(S'w'
I710
tp108
a(S'w'
I35
tp109
a(S'w'
I2134
tp110
a(S'tr_lr'
I0
tp111
a(S'w'
I33
tp112
a(S'p2_vo'
I2
tp113
a(S'w'
I32
tp114
a(S'p1_vo'
I2
tp115
a(S'w'
I5824
tp116
a(S'tr_tl'
I83
tp117
a(S'w'
I1
tp118
a(S'tr_ll'
I1
tp119
a(S'tr_th'
I1
tp120
a(S'w'
I1
tp121
a(S'tr_lr'
I127
tp122
a(S'w'
I20
tp123
a(S'p2_tl'
I201
tp124
a(S'w'
I1
tp125
a(S'p2_ll'
I1
tp126
a(S'w'
I3
tp127
a(S'p2_vo'
I14
tp128
a(S'w'
I21
tp129
a(S'p1_tl'
I254
tp130
a(S'w'
I1
tp131
a(S'p1_ll'
I1
tp132
a(S'w'
I3
tp133
a(S'p1_vo'
I12
tp134
a(S'w'
I710
tp135
a(S'w'
I34
tp136
a(S'w'
I2134
tp137
a(S'tr_lr'
I0
tp138
a(S'w'
I33
tp139
a(S'p2_vo'
I2
tp140
a(S'w'
I33
tp141
a(S'p1_vo'
I2
tp142
a(S'w'
I5811
tp143
a(S'tr_tl'
I254
tp144
a(S'w'
I1
tp145
a(S'tr_ll'
I1
tp146
a(S'tr_th'
I0
tp147
a(S'w'
I1
tp148
a(S'tr_lr'
I127
tp149
a(S'w'
I20
tp150
a(S'p2_tl'
I169
tp151
a(S'w'
I1
tp152
a(S'p2_ll'
I1
tp153
a(S'w'
I2
tp154
a(S'p2_vo'
I14
tp155
a(S'w'
I22
tp156
a(S'p1_tl'
I201
tp157
a(S'w'
I1
tp158
a(S'p1_ll'
I1
tp159
a(S'w'
I2
tp160
a(S'p1_vo'
I12
tp161
a(S'w'
I710
tp162
a(S'w'
I35
tp163
a(S'w'
I2134
tp164
a(S'tr_lr'
I0
tp165
a(S'w'
I33
tp166
a(S'p2_vo'
I2
tp167
a(S'w'
I32
tp168
a(S'p1_vo'
I2
tp169
a(S'w'
I5803
tp170
a(S'tr_tl'
I201
tp171
a(S'w'
I1
tp172
a(S'tr_ll'
I1
tp173
a(S'w'
I1
tp174
a(S'tr_lr'
I127
tp175
a(S'w'
I24
tp176
a(S'p2_tl'
I127
tp177
a(S'w'
I1
tp178
a(S'p2_ll'
I1
tp179
a(S'w'
I2
tp180
a(S'p2_vo'
I14
tp181
a(S'w'
I24
tp182
a(S'p1_tl'
I169
tp183
a(S'w'
I2
tp184
a(S'p1_ll'
I1
tp185
a(S'w'
I2
tp186
a(S'p1_vo'
I12
tp187
a(S'w'
I684
tp188
a(S'w'
I21
tp189
a(S'w'
I5849
tp190
a(S'p2_vo'
I13
tp191
a(S'w'
I18
tp192
a(S'p1_vo'
I11
tp193
a(S'w'
I5852
tp194
a(S'p2_vo'
I12
tp195
a(S'w'
I18
tp196
a(S'p1_vo'
I10
tp197
a(S'w'
I5853
tp198
a(S'p2_vo'
I11
tp199
a(S'w'
I17
tp200
a(S'p1_vo'
I9
tp201
a(S'w'
I5853
tp202
a(S'p2_vo'
I10
tp203
a(S'w'
I18
tp204
a(S'p1_vo'
I8
tp205
a(S'w'
I5853
tp206
a(S'p2_vo'
I9
tp207
a(S'w'
I5870
tp208
a(S'p2_vo'
I8
tp209
a(S'w'
I18
tp210
a(S'p1_vo'
I7
tp211
a(S'w'
I6586
tp212
a(S'p2_vo'
I7
tp213
a(S'w'
I18
tp214
a(S'p1_vo'
I6
tp215
a(S'w'
I5853
tp216
a(S'p2_vo'
I6
tp217
a(S'w'
I17
tp218
a(S'p1_vo'
I5
tp219
a(S'w'
I2901
tp220
a(S'tr_lr'
I0
tp221
a(S'w'
I2203
tp222
a(S'tr_ll'
I1
tp223
a(S'w'
I10
tp224
a(S'p2_du'
I0
tp225
a(S'p2_vo'
I0
tp226
a(S'w'
I3
tp227
a(S'w'
I1
tp228
a(S'p2_ll'
I1
tp229
a(S'w'
I10
tp230
a(S'p1_du'
I0
tp231
a(S'p1_vo'
I0
tp232
a(S'w'
I3
tp233
a(S'w'
I1
tp234
a(S'p1_ll'
I1
tp235
a(S'w'
I1
tp236
a.