(lp1
(S'clock'
p2
I1789772
tp3
a(S'fc_mo'
I1
tp4
a(S'ch_no'
I1
tp5
a(S'ch_tr'
I1
tp6
a(S'ch_p2'
I1
tp7
a(S'ch_p1'
I1
tp8
a(S'p1_lh'
I1
tp9
a(S'p1_cv'
I1
tp10
a(S'p1_sp'
I3
tp11
a(S'p2_lh'
I1
tp12
a(S'p2_cv'
I1
tp13
a(S'p2_sp'
I3
tp14
a(S'w'
I5
tp15
a(S'p1_sp'
I0
tp16
a(S'w'
I4
tp17
a(S'p1_du'
I1
tp18
a(S'p1_vo'
I8
tp19
a(S'w'
I3
tp20
a(S'p1_tl'
I171
tp21
a(S'w'
I1
tp22
a(S'p1_ll'
I1
tp23
a(S'p1_th'
I1
tp24
a(S'w'
I6
tp25
a(S'p2_sp'
I0
tp26
a(S'w'
I4
tp27
a(S'p2_du'
I2
tp28
a(S'p2_vo'
I10
tp29
a(S'w'
I3
tp30
a(S'p2_tl'
I83
tp31
a(S'w'
I1
tp32
a(S'p2_ll'
I1
tp33
a(S'p2_th'
I1
tp34
a(S'w'
I8
tp35
a(S'tr_lh'
I1
tp36
a(S'tr_lr'
I16
tp37
a(S'w'
I1
tp38
a(S'tr_lh'
I0
tp39
a(S'tr_lr'
I0
tp40
a(S'w'
I702
tp41
a(S'p1_vo'
I7
tp42
a(S'w'
I4
tp43
a(S'p2_vo'
I9
tp44
a(S'w'
I730
tp45
a(S'p1_vo'
I6
tp46
a(S'w'
I4
tp47
a(S'p2_vo'
I8
tp48
a(S'w'
I9539
tp49
a(S'p2_vo'
I7
tp50
a(S'w'
I730
tp51
a(S'p1_vo'
I5
tp52
a(S'w'
I4
tp53
a(S'p2_vo'
I6
tp54
a(S'w'
I730
tp55
a(S'p1_vo'
I4
tp56
a(S'w'
I4
tp57
a(S'p2_vo'
I5
tp58
a(S'w'
I730
tp59
a(S'p1_vo'
I3
tp60
a(S'w'
I4
tp61
a(S'p2_vo'
I4
tp62
a(S'w'
I730
tp63
a(S'p1_vo'
I2
tp64
a(S'w'
I4
tp65
a(S'p2_vo'
I3
tp66
a(S'w'
I729
tp67
a(S'p1_vo'
I1
tp68
a(S'w'
I4
tp69
a(S'p2_vo'
I2
tp70
a(S'w'
I732
tp71
a(S'p1_vo'
I8
tp72
a(S'w'
I4
tp73
a(S'p1_tl'
I125
tp74
a(S'w'
I8
tp75
a(S'p2_vo'
I10
tp76
a(S'w'
I3
tp77
a(S'p2_tl'
I64
tp78
a(S'w'
I717
tp79
a(S'p1_vo'
I7
tp80
a(S'w'
I4
tp81
a(S'p2_vo'
I9
tp82
a(S'w'
I730
tp83
a(S'p1_vo'
I6
tp84
a(S'w'
I4
tp85
a(S'p2_vo'
I8
tp86
a(S'w'
I730
tp87
a(S'p1_vo'
I5
tp88
a(S'w'
I4
tp89
a(S'p2_vo'
I7
tp90
a(S'w'
I729
tp91
a(S'p1_vo'
I4
tp92
a(S'w'
I5
tp93
a(S'p2_vo'
I6
tp94
a(S'w'
I729
tp95
a(S'p1_vo'
I3
tp96
a(S'w'
I4
tp97
a(S'p2_vo'
I5
tp98
a(S'w'
I730
tp99
a(S'p1_vo'
I2
tp100
a(S'w'
I4
tp101
a(S'p2_vo'
I4
tp102
a(S'w'
I734
tp103
a(S'p1_vo'
I8
tp104
a(S'w'
I3
tp105
a(S'p1_tl'
I83
tp106
a(S'w'
I10
tp107
a(S'p2_vo'
I10
tp108
a(S'w'
I3
tp109
a(S'p2_tl'
I29
tp110
a(S'w'
I9
tp111
a(S'tr_lh'
I1
tp112
a(S'tr_lr'
I16
tp113
a(S'w'
I3
tp114
a(S'tr_tl'
I171
tp115
a(S'w'
I1
tp116
a(S'tr_ll'
I1
tp117
a(S'tr_th'
I1
tp118
a(S'w'
I700
tp119
a(S'p1_vo'
I7
tp120
a(S'w'
I4
tp121
a(S'p2_vo'
I9
tp122
a(S'w'
I730
tp123
a(S'p1_vo'
I6
tp124
a(S'w'
I4
tp125
a(S'p2_vo'
I8
tp126
a(S'w'
I24949
tp127
a(S'p2_vo'
I7
tp128
a(S'w'
I730
tp129
a(S'p1_vo'
I5
tp130
a(S'w'
I4
tp131
a(S'p2_vo'
I6
tp132
a(S'w'
I730
tp133
a(S'p1_vo'
I4
tp134
a(S'w'
I4
tp135
a(S'p2_vo'
I5
tp136
a(S'w'
I730
tp137
a(S'p1_vo'
I3
tp138
a(S'w'
I4
tp139
a(S'p2_vo'
I4
tp140
a(S'w'
I729
tp141
a(S'p1_vo'
I2
tp142
a(S'w'
I4
tp143
a(S'p2_vo'
I3
tp144
a(S'w'
I730
tp145
a(S'p1_vo'
I1
tp146
a(S'w'
I4
tp147
a(S'p2_vo'
I2
tp148
a(S'w'
I733
tp149
a(S'p1_vo'
I8
tp150
a(S'w'
I3
tp151
a(S'w'
I8
tp152
a(S'p2_vo'
I10
tp153
a(S'w'
I4
tp154
a(S'w'
I716
tp155
a(S'p1_vo'
I7
tp156
a(S'w'
I4
tp157
a(S'p2_vo'
I9
tp158
a(S'w'
I730
tp159
a(S'p1_vo'
I6
tp160
a(S'w'
I4
tp161
a(S'p2_vo'
I8
tp162
a(S'w'
I4402
tp163
a(S'p2_vo'
I7
tp164
a(S'w'
I730
tp165
a(S'p1_vo'
I5
tp166
a(S'w'
I5
tp167
a(S'p2_vo'
I6
tp168
a(S'w'
I729
tp169
a(S'p1_vo'
I4
tp170
a(S'w'
I5
tp171
a(S'p2_vo'
I5
tp172
a(S'w'
I729
tp173
a(S'p1_vo'
I3
tp174
a(S'w'
I5
tp175
a(S'p2_vo'
I4
tp176
a(S'w'
I728
tp177
a(S'p1_vo'
I2
tp178
a(S'w'
I4
tp179
a(S'p2_vo'
I3
tp180
a(S'w'
I730
tp181
a(S'p1_vo'
I1
tp182
a(S'w'
I4
tp183
a(S'p2_vo'
I2
tp184
a(S'w'
I733
tp185
a(S'p1_vo'
I8
tp186
a(S'w'
I3
tp187
a(S'w'
I9
tp188
a(S'p2_vo'
I10
tp189
a(S'w'
I3
tp190
a(S'w'
I12
tp191
a(S'tr_tl'
I197
tp192
a(S'w'
I1
tp193
a(S'tr_ll'
I1
tp194
a(S'w'
I703
tp195
a(S'p1_vo'
I7
tp196
a(S'w'
I4
tp197
a(S'p2_vo'
I9
tp198
a(S'w'
I730
tp199
a(S'p1_vo'
I6
tp200
a(S'w'
I4
tp201
a(S'p2_vo'
I8
tp202
a(S'w'
I9539
tp203
a(S'p2_vo'
I7
tp204
a(S'w'
I730
tp205
a(S'p1_vo'
I5
tp206
a(S'w'
I5
tp207
a(S'p2_vo'
I6
tp208
a(S'w'
I728
tp209
a(S'p1_vo'
I4
tp210
a(S'w'
I4
tp211
a(S'p2_vo'
I5
tp212
a(S'w'
I730
tp213
a(S'p1_vo'
I3
tp214
a(S'w'
I4
tp215
a(S'p2_vo'
I4
tp216
a(S'w'
I730
tp217
a(S'p1_vo'
I2
tp218
a(S'w'
I5
tp219
a(S'p2_vo'
I3
tp220
a(S'w'
I729
tp221
a(S'p1_vo'
I1
tp222
a(S'w'
I5
tp223
a(S'p2_vo'
I2
tp224
a(S'w'
I731
tp225
a(S'p1_vo'
I8
tp226
a(S'w'
I2
tp227
a(S'p1_du'
I0
tp228
a(S'p1_vo'
I0
tp229
a(S'w'
I6
tp230
a(S'p2_vo'
I10
tp231
a(S'w'
I2
tp232
a(S'p2_du'
I0
tp233
a(S'p2_vo'
I0
tp234
a(S'w'
I5127
tp235
a(S'p1_du'
I1
tp236
a(S'p1_vo'
I8
tp237
a(S'w'
I3
tp238
a(S'w'
I9
tp239
a(S'p2_du'
I2
tp240
a(S'p2_vo'
I10
tp241
a(S'w'
I3
tp242
a(S'p2_tl'
I254
tp243
a(S'w'
I1
tp244
a(S'p2_ll'
I1
tp245
a(S'p2_th'
I0
tp246
a(S'w'
I715
tp247
a(S'p1_vo'
I7
tp248
a(S'w'
I4
tp249
a(S'p2_vo'
I9
tp250
a(S'w'
I730
tp251
a(S'p1_vo'
I6
tp252
a(S'w'
I4
tp253
a(S'p2_vo'
I8
tp254
a(S'w'
I9539
tp255
a(S'p2_vo'
I7
tp256
a(S'w'
I730
tp257
a(S'p1_vo'
I5
tp258
a(S'w'
I4
tp259
a(S'p2_vo'
I6
tp260
a(S'w'
I730
tp261
a(S'p1_vo'
I4
tp262
a(S'w'
I5
tp263
a(S'p2_vo'
I5
tp264
a(S'w'
I728
tp265
a(S'p1_vo'
I3
tp266
a(S'w'
I4
tp267
a(S'p2_vo'
I4
tp268
a(S'w'
I730
tp269
a(S'p1_vo'
I2
tp270
a(S'w'
I4
tp271
a(S'p2_vo'
I3
tp272
a(S'w'
I730
tp273
a(S'p1_vo'
I1
tp274
a(S'w'
I4
tp275
a(S'p2_vo'
I2
tp276
a(S'w'
I732
tp277
a(S'p1_vo'
I8
tp278
a(S'w'
I4
tp279
a(S'p1_tl'
I29
tp280
a(S'w'
I8
tp281
a(S'p2_vo'
I10
tp282
a(S'w'
I3
tp283
a(S'p2_tl'
I226
tp284
a(S'w'
I717
tp285
a(S'p1_vo'
I7
tp286
a(S'w'
I4
tp287
a(S'p2_vo'
I9
tp288
a(S'w'
I729
tp289
a(S'p1_vo'
I6
tp290
a(S'w'
I4
tp291
a(S'p2_vo'
I8
tp292
a(S'w'
I730
tp293
a(S'p1_vo'
I5
tp294
a(S'w'
I4
tp295
a(S'p2_vo'
I7
tp296
a(S'w'
I730
tp297
a(S'p1_vo'
I4
tp298
a(S'w'
I4
tp299
a(S'p2_vo'
I6
tp300
a(S'w'
I730
tp301
a(S'p1_vo'
I3
tp302
a(S'w'
I4
tp303
a(S'p2_vo'
I5
tp304
a(S'w'
I730
tp305
a(S'p1_vo'
I2
tp306
a(S'w'
I4
tp307
a(S'p2_vo'
I4
tp308
a(S'w'
I733
tp309
a(S'p1_vo'
I8
tp310
a(S'w'
I3
tp311
a(S'p1_tl'
I254
tp312
a(S'w'
I1
tp313
a(S'p1_ll'
I1
tp314
a(S'p1_th'
I0
tp315
a(S'w'
I9
tp316
a(S'p2_vo'
I10
tp317
a(S'w'
I4
tp318
a(S'p2_tl'
I213
tp319
a(S'w'
I11
tp320
a(S'tr_tl'
I252
tp321
a(S'w'
I1
tp322
a(S'tr_ll'
I1
tp323
a(S'w'
I701
tp324
a(S'p1_vo'
I7
tp325
a(S'w'
I4
tp326
a(S'p2_vo'
I9
tp327
a(S'w'
I730
tp328
a(S'p1_vo'
I6
tp329
a(S'w'
I4
tp330
a(S'p2_vo'
I8
tp331
a(S'w'
I24949
tp332
a(S'p2_vo'
I7
tp333
a(S'w'
I730
tp334
a(S'p1_vo'
I5
tp335
a(S'w'
I4
tp336
a(S'p2_vo'
I6
tp337
a(S'w'
I729
tp338
a(S'p1_vo'
I4
tp339
a(S'w'
I4
tp340
a(S'p2_vo'
I5
tp341
a(S'w'
I730
tp342
a(S'p1_vo'
I3
tp343
a(S'w'
I4
tp344
a(S'p2_vo'
I4
tp345
a(S'w'
I730
tp346
a(S'p1_vo'
I2
tp347
a(S'w'
I4
tp348
a(S'p2_vo'
I3
tp349
a(S'w'
I730
tp350
a(S'p1_vo'
I1
tp351
a(S'w'
I4
tp352
a(S'p2_vo'
I2
tp353
a(S'w'
I733
tp354
a(S'p1_vo'
I8
tp355
a(S'w'
I3
tp356
a(S'w'
I8
tp357
a(S'p2_vo'
I10
tp358
a(S'w'
I4
tp359
a(S'p2_tl'
I190
tp360
a(S'w'
I715
tp361
a(S'p1_vo'
I7
tp362
a(S'w'
I4
tp363
a(S'p2_vo'
I9
tp364
a(S'w'
I730
tp365
a(S'p1_vo'
I6
tp366
a(S'w'
I4
tp367
a(S'p2_vo'
I8
tp368
a(S'w'
I4403
tp369
a(S'p2_vo'
I7
tp370
a(S'w'
I730
tp371
a(S'p1_vo'
I5
tp372
a(S'w'
I5
tp373
a(S'p2_vo'
I6
tp374
a(S'w'
I729
tp375
a(S'p1_vo'
I4
tp376
a(S'w'
I5
tp377
a(S'p2_vo'
I5
tp378
a(S'w'
I728
tp379
a(S'p1_vo'
I3
tp380
a(S'w'
I4
tp381
a(S'p2_vo'
I4
tp382
a(S'w'
I730
tp383
a(S'p1_vo'
I2
tp384
a(S'w'
I4
tp385
a(S'p2_vo'
I3
tp386
a(S'w'
I730
tp387
a(S'p1_vo'
I1
tp388
a(S'w'
I5
tp389
a(S'p2_vo'
I2
tp390
a(S'w'
I735
tp391
a(S'p1_vo'
I8
tp392
a(S'w'
I4
tp393
a(S'w'
I12
tp394
a(S'p2_vo'
I10
tp395
a(S'w'
I3
tp396
a(S'p2_tl'
I169
tp397
a(S'w'
I14
tp398
a(S'tr_tl'
I147
tp399
a(S'w'
I1
tp400
a(S'tr_ll'
I1
tp401
a(S'w'
I693
tp402
a(S'p1_vo'
I7
tp403
a(S'w'
I4
tp404
a(S'p2_vo'
I9
tp405
a(S'w'
I730
tp406
a(S'p1_vo'
I6
tp407
a(S'w'
I4
tp408
a(S'p2_vo'
I8
tp409
a(S'w'
I47693
tp410
a(S'p1_vo'
I5
tp411
a(S'w'
I5
tp412
a(S'p2_vo'
I7
tp413
a(S'w'
I729
tp414
a(S'p1_vo'
I4
tp415
a(S'w'
I5
tp416
a(S'p2_vo'
I6
tp417
a(S'w'
I728
tp418
a(S'p1_vo'
I3
tp419
a(S'w'
I4
tp420
a(S'p2_vo'
I5
tp421
a(S'w'
I730
tp422
a(S'p1_vo'
I2
tp423
a(S'w'
I4
tp424
a(S'p2_vo'
I4
tp425
a(S'w'
I730
tp426
a(S'p1_vo'
I1
tp427
a(S'w'
I4
tp428
a(S'p2_vo'
I3
tp429
a(S'w'
I733
tp430
a(S'p1_vo'
I8
tp431
a(S'w'
I1
tp432
a(S'p1_du'
I0
tp433
a(S'p1_vo'
I0
tp434
a(S'w'
I7
tp435
a(S'p2_vo'
I10
tp436
a(S'w'
I2
tp437
a(S'p2_du'
I0
tp438
a(S'p2_vo'
I0
tp439
a(S'w'
I7
tp440
a(S'tr_lh'
I0
tp441
a(S'tr_lr'
I0
tp442
a(S'w'
I19795
tp443
a(S'p1_du'
I1
tp444
a(S'p1_vo'
I8
tp445
a(S'w'
I4
tp446
a(S'p1_tl'
I64
tp447
a(S'w'
I1
tp448
a(S'p1_ll'
I1
tp449
a(S'p1_th'
I1
tp450
a(S'w'
I7
tp451
a(S'p2_du'
I2
tp452
a(S'p2_vo'
I10
tp453
a(S'w'
I4
tp454
a(S'p2_tl'
I190
tp455
a(S'w'
I8
tp456
a(S'tr_lh'
I1
tp457
a(S'tr_lr'
I16
tp458
a(S'w'
I3
tp459
a(S'tr_tl'
I125
tp460
a(S'w'
I1
tp461
a(S'tr_ll'
I1
tp462
a(S'w'
I703
tp463
a(S'p1_vo'
I7
tp464
a(S'w'
I4
tp465
a(S'p2_vo'
I9
tp466
a(S'w'
I730
tp467
a(S'p1_vo'
I6
tp468
a(S'w'
I4
tp469
a(S'p2_vo'
I8
tp470
a(S'w'
I14671
tp471
a(S'p1_vo'
I5
tp472
a(S'w'
I4
tp473
a(S'p2_vo'
I7
tp474
a(S'w'
I730
tp475
a(S'p1_vo'
I4
tp476
a(S'w'
I4
tp477
a(S'p2_vo'
I6
tp478
a(S'w'
I730
tp479
a(S'p1_vo'
I3
tp480
a(S'w'
I4
tp481
a(S'p2_vo'
I5
tp482
a(S'w'
I730
tp483
a(S'p1_vo'
I2
tp484
a(S'w'
I4
tp485
a(S'p2_vo'
I4
tp486
a(S'w'
I730
tp487
a(S'p1_vo'
I1
tp488
a(S'w'
I4
tp489
a(S'p2_vo'
I3
tp490
a(S'w'
I731
tp491
a(S'p1_vo'
I8
tp492
a(S'w'
I4
tp493
a(S'p1_tl'
I83
tp494
a(S'w'
I8
tp495
a(S'p2_vo'
I10
tp496
a(S'w'
I3
tp497
a(S'p2_tl'
I213
tp498
a(S'w'
I717
tp499
a(S'p1_vo'
I7
tp500
a(S'w'
I4
tp501
a(S'p2_vo'
I9
tp502
a(S'w'
I730
tp503
a(S'p1_vo'
I6
tp504
a(S'w'
I4
tp505
a(S'p2_vo'
I8
tp506
a(S'w'
I1464
tp507
a(S'p1_vo'
I5
tp508
a(S'w'
I4
tp509
a(S'p2_vo'
I7
tp510
a(S'w'
I729
tp511
a(S'p1_vo'
I4
tp512
a(S'w'
I5
tp513
a(S'p2_vo'
I6
tp514
a(S'w'
I729
tp515
a(S'p1_vo'
I3
tp516
a(S'w'
I5
tp517
a(S'p2_vo'
I5
tp518
a(S'w'
I729
tp519
a(S'p1_vo'
I2
tp520
a(S'w'
I5
tp521
a(S'p2_vo'
I4
tp522
a(S'w'
I729
tp523
a(S'p1_vo'
I1
tp524
a(S'w'
I5
tp525
a(S'p2_vo'
I3
tp526
a(S'w'
I733
tp527
a(S'p1_vo'
I8
tp528
a(S'w'
I3
tp529
a(S'p1_tl'
I64
tp530
a(S'w'
I10
tp531
a(S'p2_vo'
I10
tp532
a(S'w'
I3
tp533
a(S'p2_tl'
I29
tp534
a(S'w'
I1
tp535
a(S'p2_ll'
I1
tp536
a(S'p2_th'
I1
tp537
a(S'w'
I11
tp538
a(S'tr_tl'
I59
tp539
a(S'tr_ll'
I1
tp540
a(S'tr_th'
I2
tp541
a(S'w'
I701
tp542
a(S'p1_vo'
I7
tp543
a(S'w'
I4
tp544
a(S'p2_vo'
I9
tp545
a(S'w'
I730
tp546
a(S'p1_vo'
I6
tp547
a(S'w'
I4
tp548
a(S'p2_vo'
I8
tp549
a(S'w'
I34484
tp550
a(S'p1_vo'
I5
tp551
a(S'w'
I4
tp552
a(S'p2_vo'
I7
tp553
a(S'w'
I730
tp554
a(S'p1_vo'
I4
tp555
a(S'w'
I4
tp556
a(S'p2_vo'
I6
tp557
a(S'w'
I730
tp558
a(S'p1_vo'
I3
tp559
a(S'w'
I4
tp560
a(S'p2_vo'
I5
tp561
a(S'w'
I730
tp562
a(S'p1_vo'
I2
tp563
a(S'w'
I4
tp564
a(S'p2_vo'
I4
tp565
a(S'w'
I730
tp566
a(S'p1_vo'
I1
tp567
a(S'w'
I4
tp568
a(S'p2_vo'
I3
tp569
a(S'w'
I732
tp570
a(S'p1_vo'
I8
tp571
a(S'w'
I3
tp572
a(S'w'
I8
tp573
a(S'p2_vo'
I10
tp574
a(S'w'
I4
tp575
a(S'w'
I716
tp576
a(S'p1_vo'
I7
tp577
a(S'w'
I4
tp578
a(S'p2_vo'
I9
tp579
a(S'w'
I730
tp580
a(S'p1_vo'
I6
tp581
a(S'w'
I4
tp582
a(S'p2_vo'
I8
tp583
a(S'w'
I5142
tp584
a(S'tr_lh'
I0
tp585
a(S'tr_lr'
I0
tp586
a(S'w'
I2926
tp587
a(S'p1_vo'
I5
tp588
a(S'w'
I5
tp589
a(S'p2_vo'
I7
tp590
a(S'w'
I728
tp591
a(S'p1_vo'
I4
tp592
a(S'w'
I4
tp593
a(S'p2_vo'
I6
tp594
a(S'w'
I730
tp595
a(S'p1_vo'
I3
tp596
a(S'w'
I4
tp597
a(S'p2_vo'
I5
tp598
a(S'w'
I730
tp599
a(S'p1_vo'
I2
tp600
a(S'w'
I4
tp601
a(S'p2_vo'
I4
tp602
a(S'w'
I730
tp603
a(S'p1_vo'
I1
tp604
a(S'w'
I5
tp605
a(S'p2_vo'
I3
tp606
a(S'w'
I732
tp607
a(S'p1_vo'
I8
tp608
a(S'w'
I4
tp609
a(S'w'
I8
tp610
a(S'p2_vo'
I10
tp611
a(S'w'
I4
tp612
a(S'p2_tl'
I254
tp613
a(S'w'
I1
tp614
a(S'p2_ll'
I1
tp615
a(S'p2_th'
I0
tp616
a(S'w'
I8
tp617
a(S'tr_lh'
I1
tp618
a(S'tr_lr'
I16
tp619
a(S'w'
I3
tp620
a(S'tr_ll'
I1
tp621
a(S'w'
I702
tp622
a(S'p1_vo'
I7
tp623
a(S'w'
I4
tp624
a(S'p2_vo'
I9
tp625
a(S'w'
I730
tp626
a(S'p1_vo'
I6
tp627
a(S'w'
I4
tp628
a(S'p2_vo'
I8
tp629
a(S'w'
I21276
tp630
a(S'p1_vo'
I5
tp631
a(S'w'
I4
tp632
a(S'p2_vo'
I7
tp633
a(S'w'
I730
tp634
a(S'p1_vo'
I4
tp635
a(S'w'
I4
tp636
a(S'p2_vo'
I6
tp637
a(S'w'
I730
tp638
a(S'p1_vo'
I3
tp639
a(S'w'
I4
tp640
a(S'p2_vo'
I5
tp641
a(S'w'
I729
tp642
a(S'p1_vo'
I2
tp643
a(S'w'
I5
tp644
a(S'p2_vo'
I4
tp645
a(S'w'
I729
tp646
a(S'p1_vo'
I1
tp647
a(S'w'
I5
tp648
a(S'p2_vo'
I3
tp649
a(S'w'
I732
tp650
a(S'p1_vo'
I8
tp651
a(S'w'
I4
tp652
a(S'p1_tl'
I125
tp653
a(S'w'
I8
tp654
a(S'p2_vo'
I10
tp655
a(S'w'
I4
tp656
a(S'p2_tl'
I226
tp657
a(S'w'
I715
tp658
a(S'p1_vo'
I7
tp659
a(S'w'
I4
tp660
a(S'p2_vo'
I9
tp661
a(S'w'
I730
tp662
a(S'p1_vo'
I6
tp663
a(S'w'
I4
tp664
a(S'p2_vo'
I8
tp665
a(S'w'
I21276
tp666
a(S'p1_vo'
I5
tp667
a(S'w'
I5
tp668
a(S'p2_vo'
I7
tp669
a(S'w'
I728
tp670
a(S'p1_vo'
I4
tp671
a(S'w'
I4
tp672
a(S'p2_vo'
I6
tp673
a(S'w'
I730
tp674
a(S'p1_vo'
I3
tp675
a(S'w'
I4
tp676
a(S'p2_vo'
I5
tp677
a(S'w'
I730
tp678
a(S'p1_vo'
I2
tp679
a(S'w'
I4
tp680
a(S'p2_vo'
I4
tp681
a(S'w'
I730
tp682
a(S'p1_vo'
I1
tp683
a(S'w'
I4
tp684
a(S'p2_vo'
I3
tp685
a(S'w'
I734
tp686
a(S'p1_vo'
I8
tp687
a(S'w'
I4
tp688
a(S'p1_tl'
I83
tp689
a(S'w'
I10
tp690
a(S'p2_vo'
I10
tp691
a(S'w'
I4
tp692
a(S'p2_tl'
I213
tp693
a(S'w'
I12
tp694
a(S'tr_tl'
I171
tp695
a(S'w'
I1
tp696
a(S'tr_ll'
I1
tp697
a(S'tr_th'
I1
tp698
a(S'w'
I698
tp699
a(S'p1_vo'
I7
tp700
a(S'w'
I4
tp701
a(S'p2_vo'
I9
tp702
a(S'w'
I730
tp703
a(S'p1_vo'
I6
tp704
a(S'w'
I4
tp705
a(S'p2_vo'
I8
tp706
a(S'w'
I47693
tp707
a(S'p1_vo'
I5
tp708
a(S'w'
I4
tp709
a(S'p2_vo'
I7
tp710
a(S'w'
I729
tp711
a(S'p1_vo'
I4
tp712
a(S'w'
I4
tp713
a(S'p2_vo'
I6
tp714
a(S'w'
I730
tp715
a(S'p1_vo'
I3
tp716
a(S'w'
I4
tp717
a(S'p2_vo'
I5
tp718
a(S'w'
I730
tp719
a(S'p1_vo'
I2
tp720
a(S'w'
I4
tp721
a(S'p2_vo'
I4
tp722
a(S'w'
I730
tp723
a(S'p1_vo'
I1
tp724
a(S'w'
I4
tp725
a(S'p2_vo'
I3
tp726
a(S'w'
I732
tp727
a(S'p1_vo'
I8
tp728
a(S'w'
I2
tp729
a(S'p1_du'
I0
tp730
a(S'p1_vo'
I0
tp731
a(S'w'
I6
tp732
a(S'p2_vo'
I10
tp733
a(S'w'
I2
tp734
a(S'p2_du'
I0
tp735
a(S'p2_vo'
I0
tp736
a(S'w'
I6
tp737
a(S'tr_lh'
I0
tp738
a(S'tr_lr'
I0
tp739
a(S'w'
I6590
tp740
a(S'p1_du'
I1
tp741
a(S'p1_vo'
I8
tp742
a(S'w'
I3
tp743
a(S'p1_tl'
I64
tp744
a(S'w'
I9
tp745
a(S'p2_du'
I2
tp746
a(S'p2_vo'
I10
tp747
a(S'w'
I4
tp748
a(S'p2_tl'
I190
tp749
a(S'w'
I8
tp750
a(S'tr_lh'
I1
tp751
a(S'tr_lr'
I16
tp752
a(S'w'
I3
tp753
a(S'tr_tl'
I59
tp754
a(S'tr_ll'
I1
tp755
a(S'tr_th'
I2
tp756
a(S'w'
I702
tp757
a(S'p1_vo'
I7
tp758
a(S'w'
I4
tp759
a(S'p2_vo'
I9
tp760
a(S'w'
I730
tp761
a(S'p1_vo'
I6
tp762
a(S'w'
I4
tp763
a(S'p2_vo'
I8
tp764
a(S'w'
I27880
tp765
a(S'p1_vo'
I5
tp766
a(S'w'
I5
tp767
a(S'p2_vo'
I7
tp768
a(S'w'
I729
tp769
a(S'p1_vo'
I4
tp770
a(S'w'
I5
tp771
a(S'p2_vo'
I6
tp772
a(S'w'
I729
tp773
a(S'p1_vo'
I3
tp774
a(S'w'
I4
tp775
a(S'p2_vo'
I5
tp776
a(S'w'
I730
tp777
a(S'p1_vo'
I2
tp778
a(S'w'
I4
tp779
a(S'p2_vo'
I4
tp780
a(S'w'
I729
tp781
a(S'p1_vo'
I1
tp782
a(S'w'
I5
tp783
a(S'p2_vo'
I3
tp784
a(S'w'
I735
tp785
a(S'p1_vo'
I7
tp786
a(S'w'
I3
tp787
a(S'p1_tl'
I46
tp788
a(S'w'
I11
tp789
a(S'p2_vo'
I9
tp790
a(S'w'
I4
tp791
a(S'p2_tl'
I179
tp792
a(S'w'
I11
tp793
a(S'tr_tl'
I197
tp794
a(S'w'
I1
tp795
a(S'tr_ll'
I1
tp796
a(S'tr_th'
I1
tp797
a(S'w'
I698
tp798
a(S'p1_vo'
I6
tp799
a(S'w'
I4
tp800
a(S'p2_vo'
I8
tp801
a(S'w'
I730
tp802
a(S'p1_vo'
I5
tp803
a(S'w'
I4
tp804
a(S'p2_vo'
I7
tp805
a(S'w'
I34484
tp806
a(S'p1_vo'
I4
tp807
a(S'w'
I5
tp808
a(S'p2_vo'
I6
tp809
a(S'w'
I729
tp810
a(S'p1_vo'
I3
tp811
a(S'w'
I5
tp812
a(S'p2_vo'
I5
tp813
a(S'w'
I729
tp814
a(S'p1_vo'
I2
tp815
a(S'w'
I5
tp816
a(S'p2_vo'
I4
tp817
a(S'w'
I728
tp818
a(S'p1_vo'
I1
tp819
a(S'w'
I4
tp820
a(S'p2_vo'
I3
tp821
a(S'w'
I730
tp822
a(S'p1_vo'
I0
tp823
a(S'w'
I4
tp824
a(S'p2_vo'
I2
tp825
a(S'w'
I736
tp826
a(S'p1_vo'
I5
tp827
a(S'w'
I3
tp828
a(S'p1_tl'
I29
tp829
a(S'w'
I12
tp830
a(S'p2_vo'
I8
tp831
a(S'w'
I4
tp832
a(S'p2_tl'
I169
tp833
a(S'w'
I13
tp834
a(S'tr_tl'
I171
tp835
a(S'w'
I1
tp836
a(S'tr_ll'
I1
tp837
a(S'w'
I695
tp838
a(S'p1_vo'
I4
tp839
a(S'w'
I4
tp840
a(S'p2_vo'
I7
tp841
a(S'w'
I730
tp842
a(S'p1_vo'
I3
tp843
a(S'w'
I4
tp844
a(S'p2_vo'
I6
tp845
a(S'w'
I92453
tp846
a(S'p1_vo'
I2
tp847
a(S'w'
I5
tp848
a(S'p2_vo'
I5
tp849
a(S'w'
I729
tp850
a(S'p1_vo'
I1
tp851
a(S'w'
I5
tp852
a(S'p2_vo'
I4
tp853
a(S'w'
I729
tp854
a(S'p1_vo'
I0
tp855
a(S'w'
I5
tp856
a(S'p2_vo'
I3
tp857
a(S'w'
I733
tp858
a(S'p2_vo'
I2
tp859
a(S'w'
I734
tp860
a(S'p2_vo'
I1
tp861
a(S'w'
I728
tp862
a(S'p1_du'
I0
tp863
a(S'w'
I1
tp864
a(S'p1_sp'
I3
tp865
a(S'w'
I3
tp866
a(S'p2_du'
I0
tp867
a(S'p2_vo'
I0
tp868
a(S'w'
I1
tp869
a(S'p2_sp'
I3
tp870
a(S'w'
I3
tp871
a(S'tr_lh'
I0
tp872
a(S'tr_lr'
I0
tp873
a(S'w'
I55617
tp874
a.