(lp1
(S'clock'
p2
I1789772
tp3
a(S'fc_mo'
I1
tp4
a(S'ch_no'
I1
tp5
a(S'ch_tr'
I1
tp6
a(S'ch_p2'
I1
tp7
a(S'ch_p1'
I1
tp8
a(S'p1_lh'
I1
tp9
a(S'p1_cv'
I1
tp10
a(S'p1_sp'
I3
tp11
a(S'p2_lh'
I1
tp12
a(S'p2_cv'
I1
tp13
a(S'p2_sp'
I3
tp14
a(S'w'
I5
tp15
a(S'p1_sp'
I0
tp16
a(S'w'
I5
tp17
a(S'p1_du'
I2
tp18
a(S'p1_vo'
I6
tp19
a(S'w'
I3
tp20
a(S'p1_tl'
I171
tp21
a(S'w'
I2
tp22
a(S'p1_ll'
I1
tp23
a(S'p1_th'
I1
tp24
a(S'w'
I5
tp25
a(S'p2_sp'
I0
tp26
a(S'w'
I4
tp27
a(S'p2_vo'
I10
tp28
a(S'w'
I3
tp29
a(S'p2_tl'
I254
tp30
a(S'w'
I1
tp31
a(S'p2_ll'
I1
tp32
a(S'w'
I8
tp33
a(S'tr_lh'
I1
tp34
a(S'tr_lr'
I16
tp35
a(S'w'
I3
tp36
a(S'tr_tl'
I254
tp37
a(S'w'
I1
tp38
a(S'tr_ll'
I1
tp39
a(S'w'
I698
tp40
a(S'p1_vo'
I5
tp41
a(S'w'
I4
tp42
a(S'p2_vo'
I9
tp43
a(S'w'
I2935
tp44
a(S'p2_vo'
I8
tp45
a(S'w'
I734
tp46
a(S'p2_vo'
I7
tp47
a(S'w'
I734
tp48
a(S'p2_vo'
I6
tp49
a(S'w'
I734
tp50
a(S'p2_vo'
I5
tp51
a(S'w'
I734
tp52
a(S'p2_vo'
I4
tp53
a(S'w'
I733
tp54
a(S'p2_vo'
I3
tp55
a(S'w'
I734
tp56
a(S'p2_vo'
I2
tp57
a(S'w'
I734
tp58
a(S'p2_vo'
I1
tp59
a(S'w'
I734
tp60
a(S'p2_vo'
I0
tp61
a(S'w'
I1469
tp62
a(S'p2_vo'
I10
tp63
a(S'w'
I3
tp64
a(S'p2_tl'
I226
tp65
a(S'w'
I9
tp66
a(S'tr_lh'
I0
tp67
a(S'tr_lr'
I0
tp68
a(S'w'
I720
tp69
a(S'p2_vo'
I9
tp70
a(S'w'
I734
tp71
a(S'p2_vo'
I8
tp72
a(S'w'
I734
tp73
a(S'p2_vo'
I7
tp74
a(S'w'
I734
tp75
a(S'p2_vo'
I6
tp76
a(S'w'
I736
tp77
a(S'p2_vo'
I10
tp78
a(S'w'
I4
tp79
a(S'p2_tl'
I213
tp80
a(S'w'
I7
tp81
a(S'tr_lh'
I1
tp82
a(S'tr_lr'
I16
tp83
a(S'w'
I3
tp84
a(S'tr_tl'
I83
tp85
a(S'w'
I1
tp86
a(S'tr_ll'
I1
tp87
a(S'tr_th'
I1
tp88
a(S'w'
I716
tp89
a(S'p2_vo'
I9
tp90
a(S'w'
I2935
tp91
a(S'p2_vo'
I8
tp92
a(S'w'
I734
tp93
a(S'p2_vo'
I7
tp94
a(S'w'
I734
tp95
a(S'p2_vo'
I6
tp96
a(S'w'
I734
tp97
a(S'p2_vo'
I5
tp98
a(S'w'
I733
tp99
a(S'p2_vo'
I4
tp100
a(S'w'
I730
tp101
a(S'p1_vo'
I4
tp102
a(S'w'
I5
tp103
a(S'p2_vo'
I3
tp104
a(S'w'
I729
tp105
a(S'p1_vo'
I3
tp106
a(S'w'
I5
tp107
a(S'p2_vo'
I2
tp108
a(S'w'
I729
tp109
a(S'p1_vo'
I2
tp110
a(S'w'
I5
tp111
a(S'p2_vo'
I1
tp112
a(S'w'
I729
tp113
a(S'p1_vo'
I1
tp114
a(S'w'
I5
tp115
a(S'p2_vo'
I0
tp116
a(S'w'
I728
tp117
a(S'p1_vo'
I0
tp118
a(S'w'
I737
tp119
a(S'p1_vo'
I6
tp120
a(S'w'
I4
tp121
a(S'w'
I7
tp122
a(S'p2_vo'
I10
tp123
a(S'w'
I4
tp124
a(S'p2_tl'
I190
tp125
a(S'w'
I9
tp126
a(S'tr_lh'
I0
tp127
a(S'tr_lr'
I0
tp128
a(S'w'
I707
tp129
a(S'p1_vo'
I5
tp130
a(S'w'
I4
tp131
a(S'p2_vo'
I9
tp132
a(S'w'
I734
tp133
a(S'p2_vo'
I8
tp134
a(S'w'
I734
tp135
a(S'p2_vo'
I7
tp136
a(S'w'
I733
tp137
a(S'p2_vo'
I6
tp138
a(S'w'
I737
tp139
a(S'p2_vo'
I10
tp140
a(S'w'
I3
tp141
a(S'p2_tl'
I169
tp142
a(S'w'
I8
tp143
a(S'tr_lh'
I1
tp144
a(S'tr_lr'
I16
tp145
a(S'w'
I3
tp146
a(S'tr_tl'
I171
tp147
a(S'w'
I1
tp148
a(S'tr_ll'
I1
tp149
a(S'w'
I716
tp150
a(S'p2_vo'
I9
tp151
a(S'w'
I2935
tp152
a(S'p2_vo'
I8
tp153
a(S'w'
I734
tp154
a(S'p2_vo'
I7
tp155
a(S'w'
I734
tp156
a(S'p2_vo'
I6
tp157
a(S'w'
I734
tp158
a(S'p2_vo'
I5
tp159
a(S'w'
I733
tp160
a(S'p2_vo'
I4
tp161
a(S'w'
I730
tp162
a(S'p1_vo'
I4
tp163
a(S'w'
I5
tp164
a(S'p2_vo'
I3
tp165
a(S'w'
I729
tp166
a(S'p1_vo'
I3
tp167
a(S'w'
I4
tp168
a(S'p2_vo'
I2
tp169
a(S'w'
I730
tp170
a(S'p1_vo'
I2
tp171
a(S'w'
I4
tp172
a(S'p2_vo'
I1
tp173
a(S'w'
I729
tp174
a(S'p1_vo'
I1
tp175
a(S'w'
I5
tp176
a(S'p2_vo'
I0
tp177
a(S'w'
I729
tp178
a(S'p1_vo'
I0
tp179
a(S'w'
I738
tp180
a(S'p1_vo'
I6
tp181
a(S'w'
I3
tp182
a(S'w'
I9
tp183
a(S'p2_vo'
I10
tp184
a(S'w'
I4
tp185
a(S'p2_tl'
I127
tp186
a(S'w'
I8
tp187
a(S'tr_lh'
I0
tp188
a(S'tr_lr'
I0
tp189
a(S'w'
I706
tp190
a(S'p1_vo'
I5
tp191
a(S'w'
I4
tp192
a(S'p2_vo'
I9
tp193
a(S'w'
I2940
tp194
a(S'tr_lh'
I1
tp195
a(S'tr_lr'
I16
tp196
a(S'w'
I3
tp197
a(S'tr_tl'
I252
tp198
a(S'w'
I1
tp199
a(S'tr_ll'
I1
tp200
a(S'w'
I3660
tp201
a(S'p2_vo'
I8
tp202
a(S'w'
I734
tp203
a(S'p2_vo'
I7
tp204
a(S'w'
I734
tp205
a(S'p2_vo'
I6
tp206
a(S'w'
I733
tp207
a(S'p2_vo'
I5
tp208
a(S'w'
I734
tp209
a(S'p2_vo'
I4
tp210
a(S'w'
I734
tp211
a(S'p2_vo'
I3
tp212
a(S'w'
I734
tp213
a(S'p2_vo'
I2
tp214
a(S'w'
I734
tp215
a(S'p2_vo'
I1
tp216
a(S'w'
I733
tp217
a(S'p2_vo'
I0
tp218
a(S'w'
I1464
tp219
a(S'p1_vo'
I4
tp220
a(S'w'
I7
tp221
a(S'p2_vo'
I10
tp222
a(S'w'
I4
tp223
a(S'p2_tl'
I169
tp224
a(S'w'
I8
tp225
a(S'tr_lh'
I0
tp226
a(S'tr_lr'
I0
tp227
a(S'w'
I715
tp228
a(S'p1_vo'
I3
tp229
a(S'w'
I4
tp230
a(S'p2_vo'
I9
tp231
a(S'w'
I729
tp232
a(S'p1_vo'
I2
tp233
a(S'w'
I4
tp234
a(S'p2_vo'
I8
tp235
a(S'w'
I730
tp236
a(S'p1_vo'
I1
tp237
a(S'w'
I5
tp238
a(S'p2_vo'
I7
tp239
a(S'w'
I729
tp240
a(S'p1_vo'
I0
tp241
a(S'w'
I5
tp242
a(S'p2_vo'
I6
tp243
a(S'w'
I733
tp244
a(S'p1_vo'
I6
tp245
a(S'w'
I3
tp246
a(S'p1_tl'
I197
tp247
a(S'w'
I9
tp248
a(S'p2_vo'
I10
tp249
a(S'w'
I4
tp250
a(S'p2_tl'
I179
tp251
a(S'w'
I7
tp252
a(S'tr_lh'
I1
tp253
a(S'tr_lr'
I16
tp254
a(S'w'
I3
tp255
a(S'tr_tl'
I167
tp256
a(S'tr_ll'
I1
tp257
a(S'tr_th'
I2
tp258
a(S'w'
I704
tp259
a(S'p1_vo'
I5
tp260
a(S'w'
I4
tp261
a(S'p2_vo'
I9
tp262
a(S'w'
I2935
tp263
a(S'p2_vo'
I8
tp264
a(S'w'
I734
tp265
a(S'p2_vo'
I7
tp266
a(S'w'
I733
tp267
a(S'p2_vo'
I6
tp268
a(S'w'
I734
tp269
a(S'p2_vo'
I5
tp270
a(S'w'
I734
tp271
a(S'p2_vo'
I4
tp272
a(S'w'
I734
tp273
a(S'p2_vo'
I3
tp274
a(S'w'
I734
tp275
a(S'p2_vo'
I2
tp276
a(S'w'
I733
tp277
a(S'p2_vo'
I1
tp278
a(S'w'
I734
tp279
a(S'p2_vo'
I0
tp280
a(S'w'
I1470
tp281
a(S'p2_vo'
I10
tp282
a(S'w'
I4
tp283
a(S'p2_tl'
I190
tp284
a(S'w'
I9
tp285
a(S'tr_tl'
I92
tp286
a(S'w'
I1
tp287
a(S'tr_ll'
I1
tp288
a(S'w'
I718
tp289
a(S'p2_vo'
I9
tp290
a(S'w'
I733
tp291
a(S'p2_vo'
I8
tp292
a(S'w'
I734
tp293
a(S'p2_vo'
I7
tp294
a(S'w'
I734
tp295
a(S'p2_vo'
I6
tp296
a(S'w'
I737
tp297
a(S'p2_vo'
I10
tp298
a(S'w'
I3
tp299
a(S'p2_tl'
I213
tp300
a(S'w'
I11
tp301
a(S'tr_tl'
I27
tp302
a(S'tr_ll'
I1
tp303
a(S'w'
I716
tp304
a(S'p2_vo'
I9
tp305
a(S'w'
I2936
tp306
a(S'p2_vo'
I8
tp307
a(S'w'
I733
tp308
a(S'p2_vo'
I7
tp309
a(S'w'
I734
tp310
a(S'p2_vo'
I6
tp311
a(S'w'
I734
tp312
a(S'p2_vo'
I5
tp313
a(S'w'
I734
tp314
a(S'p2_vo'
I4
tp315
a(S'w'
I730
tp316
a(S'p1_vo'
I4
tp317
a(S'w'
I4
tp318
a(S'p2_vo'
I3
tp319
a(S'w'
I729
tp320
a(S'p1_vo'
I3
tp321
a(S'w'
I4
tp322
a(S'p2_vo'
I2
tp323
a(S'w'
I730
tp324
a(S'p1_vo'
I2
tp325
a(S'w'
I4
tp326
a(S'p2_vo'
I1
tp327
a(S'w'
I730
tp328
a(S'p1_vo'
I1
tp329
a(S'w'
I4
tp330
a(S'p2_vo'
I0
tp331
a(S'w'
I730
tp332
a(S'p1_vo'
I0
tp333
a(S'w'
I737
tp334
a(S'p1_vo'
I6
tp335
a(S'w'
I4
tp336
a(S'p1_tl'
I171
tp337
a(S'w'
I8
tp338
a(S'p2_vo'
I10
tp339
a(S'w'
I3
tp340
a(S'p2_tl'
I254
tp341
a(S'w'
I11
tp342
a(S'tr_tl'
I252
tp343
a(S'tr_ll'
I1
tp344
a(S'tr_th'
I1
tp345
a(S'w'
I704
tp346
a(S'p1_vo'
I5
tp347
a(S'w'
I4
tp348
a(S'p2_vo'
I9
tp349
a(S'w'
I2936
tp350
a(S'p2_vo'
I8
tp351
a(S'w'
I733
tp352
a(S'p2_vo'
I7
tp353
a(S'w'
I734
tp354
a(S'p2_vo'
I6
tp355
a(S'w'
I734
tp356
a(S'p2_vo'
I5
tp357
a(S'w'
I734
tp358
a(S'p2_vo'
I4
tp359
a(S'w'
I729
tp360
a(S'p1_vo'
I4
tp361
a(S'w'
I4
tp362
a(S'p2_vo'
I3
tp363
a(S'w'
I730
tp364
a(S'p1_vo'
I3
tp365
a(S'w'
I4
tp366
a(S'p2_vo'
I2
tp367
a(S'w'
I730
tp368
a(S'p1_vo'
I2
tp369
a(S'w'
I4
tp370
a(S'p2_vo'
I1
tp371
a(S'w'
I730
tp372
a(S'p1_vo'
I1
tp373
a(S'w'
I4
tp374
a(S'p2_vo'
I0
tp375
a(S'w'
I730
tp376
a(S'p1_vo'
I0
tp377
a(S'w'
I735
tp378
a(S'p1_vo'
I6
tp379
a(S'w'
I2
tp380
a(S'p1_du'
I0
tp381
a(S'p1_vo'
I0
tp382
a(S'w'
I6
tp383
a(S'p2_vo'
I10
tp384
a(S'w'
I2
tp385
a(S'p2_vo'
I0
tp386
a(S'w'
I7
tp387
a(S'tr_lh'
I0
tp388
a(S'tr_lr'
I0
tp389
a(S'w'
I3657
tp390
a(S'p1_du'
I2
tp391
a(S'p1_vo'
I6
tp392
a(S'w'
I3
tp393
a(S'w'
I7
tp394
a(S'p2_se'
I1
tp395
a(S'p2_sp'
I1
tp396
a(S'w'
I8
tp397
a(S'p2_du'
I2
tp398
a(S'p2_vo'
I6
tp399
a(S'w'
I3
tp400
a(S'p2_tl'
I46
tp401
a(S'w'
I1
tp402
a(S'p2_ll'
I1
tp403
a(S'p2_th'
I1
tp404
a(S'w'
I10
tp405
a(S'tr_lh'
I1
tp406
a(S'tr_lr'
I16
tp407
a(S'w'
I4
tp408
a(S'tr_ll'
I1
tp409
a(S'w'
I691
tp410
a(S'p1_vo'
I5
tp411
a(S'w'
I4
tp412
a(S'p2_vo'
I5
tp413
a(S'w'
I54297
tp414
a(S'p1_vo'
I4
tp415
a(S'w'
I4
tp416
a(S'p2_vo'
I4
tp417
a(S'w'
I730
tp418
a(S'p1_vo'
I3
tp419
a(S'w'
I4
tp420
a(S'p2_vo'
I3
tp421
a(S'w'
I729
tp422
a(S'p1_vo'
I2
tp423
a(S'w'
I5
tp424
a(S'p2_vo'
I2
tp425
a(S'w'
I729
tp426
a(S'p1_vo'
I1
tp427
a(S'w'
I5
tp428
a(S'p2_vo'
I1
tp429
a(S'w'
I729
tp430
a(S'p1_vo'
I0
tp431
a(S'w'
I5
tp432
a(S'p2_vo'
I0
tp433
a(S'w'
I728
tp434
a(S'p1_du'
I0
tp435
a(S'w'
I1
tp436
a(S'p1_sp'
I3
tp437
a(S'w'
I3
tp438
a(S'p2_du'
I0
tp439
a(S'w'
I1
tp440
a(S'p2_se'
I0
tp441
a(S'p2_sp'
I3
tp442
a(S'w'
I3
tp443
a(S'tr_lh'
I0
tp444
a(S'tr_lr'
I0
tp445
a(S'w'
I48047
tp446
a.