(lp1
(S'clock'
p2
I1789772
tp3
a(S'fc_mo'
I1
tp4
a(S'ch_no'
I1
tp5
a(S'ch_tr'
I1
tp6
a(S'ch_p2'
I1
tp7
a(S'ch_p1'
I1
tp8
a(S'p1_lh'
I1
tp9
a(S'p1_cv'
I1
tp10
a(S'p1_sp'
I3
tp11
a(S'p2_lh'
I1
tp12
a(S'p2_cv'
I1
tp13
a(S'p2_sp'
I3
tp14
a(S'w'
I5
tp15
a(S'p1_sp'
I0
tp16
a(S'w'
I4
tp17
a(S'p1_du'
I2
tp18
a(S'p1_vo'
I5
tp19
a(S'w'
I2
tp20
a(S'p1_du'
I0
tp21
a(S'p1_vo'
I0
tp22
a(S'w'
I5
tp23
a(S'p2_sp'
I0
tp24
a(S'w'
I4
tp25
a(S'p2_vo'
I10
tp26
a(S'w'
I3
tp27
a(S'p2_tl'
I254
tp28
a(S'w'
I1
tp29
a(S'p2_ll'
I1
tp30
a(S'w'
I8
tp31
a(S'tr_lh'
I1
tp32
a(S'tr_lr'
I16
tp33
a(S'w'
I3
tp34
a(S'tr_tl'
I254
tp35
a(S'w'
I1
tp36
a(S'tr_ll'
I1
tp37
a(S'w'
I705
tp38
a(S'p2_vo'
I9
tp39
a(S'w'
I2935
tp40
a(S'p2_vo'
I8
tp41
a(S'w'
I734
tp42
a(S'p2_vo'
I7
tp43
a(S'w'
I734
tp44
a(S'p2_vo'
I6
tp45
a(S'w'
I734
tp46
a(S'p2_vo'
I5
tp47
a(S'w'
I734
tp48
a(S'p2_vo'
I4
tp49
a(S'w'
I733
tp50
a(S'p2_vo'
I3
tp51
a(S'w'
I734
tp52
a(S'p2_vo'
I2
tp53
a(S'w'
I734
tp54
a(S'p2_vo'
I1
tp55
a(S'w'
I734
tp56
a(S'p2_vo'
I0
tp57
a(S'w'
I1469
tp58
a(S'p2_vo'
I10
tp59
a(S'w'
I4
tp60
a(S'p2_tl'
I226
tp61
a(S'w'
I728
tp62
a(S'p2_vo'
I9
tp63
a(S'w'
I734
tp64
a(S'p2_vo'
I8
tp65
a(S'w'
I734
tp66
a(S'p2_vo'
I7
tp67
a(S'w'
I734
tp68
a(S'p2_vo'
I6
tp69
a(S'w'
I733
tp70
a(S'p1_du'
I2
tp71
a(S'p1_vo'
I5
tp72
a(S'w'
I4
tp73
a(S'p1_tl'
I83
tp74
a(S'w'
I1
tp75
a(S'p1_ll'
I1
tp76
a(S'p1_th'
I1
tp77
a(S'w'
I7
tp78
a(S'p2_vo'
I10
tp79
a(S'w'
I4
tp80
a(S'p2_tl'
I213
tp81
a(S'w'
I11
tp82
a(S'tr_tl'
I83
tp83
a(S'w'
I1
tp84
a(S'tr_ll'
I1
tp85
a(S'tr_th'
I1
tp86
a(S'w'
I703
tp87
a(S'p1_vo'
I4
tp88
a(S'w'
I4
tp89
a(S'p2_vo'
I9
tp90
a(S'w'
I2935
tp91
a(S'p2_vo'
I8
tp92
a(S'w'
I734
tp93
a(S'p2_vo'
I7
tp94
a(S'w'
I734
tp95
a(S'p2_vo'
I6
tp96
a(S'w'
I734
tp97
a(S'p2_vo'
I5
tp98
a(S'w'
I733
tp99
a(S'p2_vo'
I4
tp100
a(S'w'
I734
tp101
a(S'p2_vo'
I3
tp102
a(S'w'
I734
tp103
a(S'p2_vo'
I2
tp104
a(S'w'
I734
tp105
a(S'p2_vo'
I1
tp106
a(S'w'
I734
tp107
a(S'p2_vo'
I0
tp108
a(S'w'
I1463
tp109
a(S'p1_vo'
I3
tp110
a(S'w'
I7
tp111
a(S'p2_vo'
I10
tp112
a(S'w'
I4
tp113
a(S'p2_tl'
I169
tp114
a(S'w'
I723
tp115
a(S'p1_vo'
I2
tp116
a(S'w'
I4
tp117
a(S'p2_vo'
I9
tp118
a(S'w'
I730
tp119
a(S'p1_vo'
I1
tp120
a(S'w'
I4
tp121
a(S'p2_vo'
I8
tp122
a(S'w'
I730
tp123
a(S'p1_vo'
I0
tp124
a(S'w'
I5
tp125
a(S'p2_vo'
I7
tp126
a(S'w'
I732
tp127
a(S'p2_vo'
I6
tp128
a(S'w'
I733
tp129
a(S'p1_vo'
I5
tp130
a(S'w'
I2
tp131
a(S'p1_du'
I0
tp132
a(S'p1_vo'
I0
tp133
a(S'w'
I7
tp134
a(S'p2_vo'
I10
tp135
a(S'w'
I4
tp136
a(S'p2_tl'
I127
tp137
a(S'w'
I11
tp138
a(S'tr_tl'
I13
tp139
a(S'tr_ll'
I1
tp140
a(S'w'
I710
tp141
a(S'p2_vo'
I9
tp142
a(S'w'
I2935
tp143
a(S'p2_vo'
I8
tp144
a(S'w'
I734
tp145
a(S'p2_vo'
I7
tp146
a(S'w'
I734
tp147
a(S'p2_vo'
I6
tp148
a(S'w'
I734
tp149
a(S'p2_vo'
I5
tp150
a(S'w'
I733
tp151
a(S'p2_vo'
I4
tp152
a(S'w'
I734
tp153
a(S'p2_vo'
I3
tp154
a(S'w'
I734
tp155
a(S'p2_vo'
I2
tp156
a(S'w'
I734
tp157
a(S'p2_vo'
I1
tp158
a(S'w'
I733
tp159
a(S'p2_vo'
I0
tp160
a(S'w'
I1470
tp161
a(S'p2_vo'
I10
tp162
a(S'w'
I4
tp163
a(S'p2_tl'
I169
tp164
a(S'w'
I728
tp165
a(S'p2_vo'
I9
tp166
a(S'w'
I734
tp167
a(S'p2_vo'
I8
tp168
a(S'w'
I733
tp169
a(S'p2_vo'
I7
tp170
a(S'w'
I734
tp171
a(S'p2_vo'
I6
tp172
a(S'w'
I734
tp173
a(S'p1_du'
I2
tp174
a(S'p1_vo'
I5
tp175
a(S'w'
I4
tp176
a(S'w'
I8
tp177
a(S'p2_vo'
I10
tp178
a(S'w'
I4
tp179
a(S'p2_tl'
I190
tp180
a(S'w'
I11
tp181
a(S'tr_tl'
I83
tp182
a(S'w'
I1
tp183
a(S'tr_ll'
I1
tp184
a(S'w'
I703
tp185
a(S'p1_vo'
I4
tp186
a(S'w'
I4
tp187
a(S'p2_vo'
I9
tp188
a(S'w'
I2935
tp189
a(S'p2_vo'
I8
tp190
a(S'w'
I734
tp191
a(S'p2_vo'
I7
tp192
a(S'w'
I734
tp193
a(S'p2_vo'
I6
tp194
a(S'w'
I733
tp195
a(S'p2_vo'
I5
tp196
a(S'w'
I734
tp197
a(S'p2_vo'
I4
tp198
a(S'w'
I734
tp199
a(S'p2_vo'
I3
tp200
a(S'w'
I734
tp201
a(S'p2_vo'
I2
tp202
a(S'w'
I734
tp203
a(S'p2_vo'
I1
tp204
a(S'w'
I733
tp205
a(S'p2_vo'
I0
tp206
a(S'w'
I1464
tp207
a(S'p1_vo'
I3
tp208
a(S'w'
I7
tp209
a(S'p2_vo'
I10
tp210
a(S'w'
I4
tp211
a(S'p2_tl'
I213
tp212
a(S'w'
I723
tp213
a(S'p1_vo'
I2
tp214
a(S'w'
I4
tp215
a(S'p2_vo'
I9
tp216
a(S'w'
I729
tp217
a(S'p1_vo'
I1
tp218
a(S'w'
I4
tp219
a(S'p2_vo'
I8
tp220
a(S'w'
I730
tp221
a(S'p1_vo'
I0
tp222
a(S'w'
I5
tp223
a(S'p2_vo'
I7
tp224
a(S'w'
I733
tp225
a(S'p2_vo'
I6
tp226
a(S'w'
I733
tp227
a(S'p1_vo'
I5
tp228
a(S'w'
I2
tp229
a(S'p1_du'
I0
tp230
a(S'p1_vo'
I0
tp231
a(S'w'
I7
tp232
a(S'p2_vo'
I10
tp233
a(S'w'
I3
tp234
a(S'p2_tl'
I254
tp235
a(S'w'
I11
tp236
a(S'tr_tl'
I29
tp237
a(S'w'
I1
tp238
a(S'tr_ll'
I1
tp239
a(S'w'
I710
tp240
a(S'p2_vo'
I9
tp241
a(S'w'
I2935
tp242
a(S'p2_vo'
I8
tp243
a(S'w'
I734
tp244
a(S'p2_vo'
I7
tp245
a(S'w'
I733
tp246
a(S'p2_vo'
I6
tp247
a(S'w'
I734
tp248
a(S'p2_vo'
I5
tp249
a(S'w'
I734
tp250
a(S'p2_vo'
I4
tp251
a(S'w'
I734
tp252
a(S'p2_vo'
I3
tp253
a(S'w'
I734
tp254
a(S'p2_vo'
I2
tp255
a(S'w'
I733
tp256
a(S'p2_vo'
I1
tp257
a(S'w'
I734
tp258
a(S'p2_vo'
I0
tp259
a(S'w'
I1470
tp260
a(S'p2_vo'
I10
tp261
a(S'w'
I4
tp262
a(S'p2_tl'
I226
tp263
a(S'w'
I728
tp264
a(S'p2_vo'
I9
tp265
a(S'w'
I733
tp266
a(S'p2_vo'
I8
tp267
a(S'w'
I734
tp268
a(S'p2_vo'
I7
tp269
a(S'w'
I734
tp270
a(S'p2_vo'
I6
tp271
a(S'w'
I734
tp272
a(S'p1_du'
I2
tp273
a(S'p1_vo'
I5
tp274
a(S'w'
I4
tp275
a(S'w'
I8
tp276
a(S'p2_vo'
I10
tp277
a(S'w'
I4
tp278
a(S'p2_tl'
I213
tp279
a(S'w'
I11
tp280
a(S'tr_tl'
I83
tp281
a(S'w'
I1
tp282
a(S'tr_ll'
I1
tp283
a(S'w'
I702
tp284
a(S'p1_vo'
I4
tp285
a(S'w'
I4
tp286
a(S'p2_vo'
I9
tp287
a(S'w'
I2936
tp288
a(S'p2_vo'
I8
tp289
a(S'w'
I733
tp290
a(S'p2_vo'
I7
tp291
a(S'w'
I734
tp292
a(S'p2_vo'
I6
tp293
a(S'w'
I734
tp294
a(S'p2_vo'
I5
tp295
a(S'w'
I734
tp296
a(S'p2_vo'
I4
tp297
a(S'w'
I734
tp298
a(S'p2_vo'
I3
tp299
a(S'w'
I733
tp300
a(S'p2_vo'
I2
tp301
a(S'w'
I734
tp302
a(S'p2_vo'
I1
tp303
a(S'w'
I734
tp304
a(S'p2_vo'
I0
tp305
a(S'w'
I1464
tp306
a(S'p1_vo'
I3
tp307
a(S'w'
I7
tp308
a(S'p2_vo'
I10
tp309
a(S'w'
I4
tp310
a(S'p2_tl'
I169
tp311
a(S'w'
I722
tp312
a(S'p1_vo'
I2
tp313
a(S'w'
I4
tp314
a(S'p2_vo'
I9
tp315
a(S'w'
I730
tp316
a(S'p1_vo'
I1
tp317
a(S'w'
I4
tp318
a(S'p2_vo'
I8
tp319
a(S'w'
I730
tp320
a(S'p1_vo'
I0
tp321
a(S'w'
I4
tp322
a(S'p2_vo'
I7
tp323
a(S'w'
I734
tp324
a(S'p2_vo'
I6
tp325
a(S'w'
I733
tp326
a(S'p1_vo'
I5
tp327
a(S'w'
I1
tp328
a(S'p1_du'
I0
tp329
a(S'p1_vo'
I0
tp330
a(S'w'
I7
tp331
a(S'p2_vo'
I10
tp332
a(S'w'
I4
tp333
a(S'p2_tl'
I190
tp334
a(S'w'
I11
tp335
a(S'tr_tl'
I46
tp336
a(S'w'
I1
tp337
a(S'tr_ll'
I1
tp338
a(S'w'
I709
tp339
a(S'p2_vo'
I9
tp340
a(S'w'
I2935
tp341
a(S'p2_vo'
I8
tp342
a(S'w'
I734
tp343
a(S'p2_vo'
I7
tp344
a(S'w'
I734
tp345
a(S'p2_vo'
I6
tp346
a(S'w'
I734
tp347
a(S'p2_vo'
I5
tp348
a(S'w'
I734
tp349
a(S'p2_vo'
I4
tp350
a(S'w'
I733
tp351
a(S'p2_vo'
I3
tp352
a(S'w'
I734
tp353
a(S'p2_vo'
I2
tp354
a(S'w'
I734
tp355
a(S'p2_vo'
I1
tp356
a(S'w'
I734
tp357
a(S'p2_vo'
I0
tp358
a(S'w'
I1468
tp359
a(S'p1_du'
I2
tp360
a(S'p1_vo'
I5
tp361
a(S'w'
I4
tp362
a(S'w'
I7
tp363
a(S'p2_vo'
I10
tp364
a(S'w'
I4
tp365
a(S'p2_tl'
I213
tp366
a(S'w'
I12
tp367
a(S'tr_tl'
I13
tp368
a(S'w'
I1
tp369
a(S'tr_ll'
I1
tp370
a(S'w'
I702
tp371
a(S'p1_vo'
I4
tp372
a(S'w'
I4
tp373
a(S'p2_vo'
I9
tp374
a(S'w'
I734
tp375
a(S'p2_vo'
I8
tp376
a(S'w'
I734
tp377
a(S'p2_vo'
I7
tp378
a(S'w'
I734
tp379
a(S'p2_vo'
I6
tp380
a(S'w'
I736
tp381
a(S'p2_vo'
I10
tp382
a(S'w'
I3
tp383
a(S'p2_tl'
I254
tp384
a(S'w'
I728
tp385
a(S'p2_vo'
I9
tp386
a(S'w'
I2935
tp387
a(S'p2_vo'
I8
tp388
a(S'w'
I734
tp389
a(S'p2_vo'
I7
tp390
a(S'w'
I734
tp391
a(S'p2_vo'
I6
tp392
a(S'w'
I734
tp393
a(S'p2_vo'
I5
tp394
a(S'w'
I733
tp395
a(S'p2_vo'
I4
tp396
a(S'w'
I734
tp397
a(S'p2_vo'
I3
tp398
a(S'w'
I734
tp399
a(S'p2_vo'
I2
tp400
a(S'w'
I734
tp401
a(S'p2_vo'
I1
tp402
a(S'w'
I730
tp403
a(S'p1_vo'
I3
tp404
a(S'w'
I4
tp405
a(S'p2_vo'
I0
tp406
a(S'w'
I729
tp407
a(S'p1_vo'
I2
tp408
a(S'w'
I734
tp409
a(S'p1_vo'
I1
tp410
a(S'w'
I9
tp411
a(S'p2_vo'
I10
tp412
a(S'w'
I3
tp413
a(S'p2_tl'
I83
tp414
a(S'w'
I1
tp415
a(S'p2_ll'
I1
tp416
a(S'p2_th'
I1
tp417
a(S'w'
I721
tp418
a(S'p1_vo'
I0
tp419
a(S'w'
I4
tp420
a(S'p2_vo'
I9
tp421
a(S'w'
I734
tp422
a(S'p2_vo'
I8
tp423
a(S'w'
I729
tp424
a(S'p1_du'
I0
tp425
a(S'w'
I1
tp426
a(S'p1_sp'
I3
tp427
a(S'w'
I3
tp428
a(S'p2_vo'
I0
tp429
a(S'w'
I1
tp430
a(S'p2_sp'
I3
tp431
a(S'w'
I3
tp432
a(S'tr_lh'
I0
tp433
a(S'tr_lr'
I0
tp434
a(S'w'
I42769
tp435
a.