(lp1
(S'clock'
p2
I1789772
tp3
a(S'fc_mo'
I1
tp4
a(S'ch_no'
I1
tp5
a(S'ch_tr'
I1
tp6
a(S'ch_p2'
I1
tp7
a(S'ch_p1'
I1
tp8
a(S'p2_lh'
I1
tp9
a(S'p2_cv'
I1
tp10
a(S'p2_sp'
I3
tp11
a(S'w'
I6
tp12
a(S'p2_sp'
I0
tp13
a(S'w'
I3
tp14
a(S'p2_du'
I1
tp15
a(S'p2_vo'
I11
tp16
a(S'w'
I1
tp17
a(S'p2_du'
I0
tp18
a(S'p2_vo'
I0
tp19
a(S'w'
I7
tp20
a(S'tr_lh'
I1
tp21
a(S'tr_lr'
I16
tp22
a(S'w'
I2
tp23
a(S'tr_lh'
I0
tp24
a(S'tr_lr'
I0
tp25
a(S'w'
I3659
tp26
a(S'p2_du'
I1
tp27
a(S'p2_vo'
I11
tp28
a(S'w'
I1
tp29
a(S'p2_du'
I0
tp30
a(S'p2_vo'
I0
tp31
a(S'w'
I8
tp32
a(S'tr_lh'
I1
tp33
a(S'tr_lr'
I16
tp34
a(S'w'
I1
tp35
a(S'tr_lh'
I0
tp36
a(S'tr_lr'
I0
tp37
a(S'w'
I25672
tp38
a(S'p2_du'
I1
tp39
a(S'p2_vo'
I11
tp40
a(S'w'
I3
tp41
a(S'p2_tl'
I254
tp42
a(S'w'
I1
tp43
a(S'p2_ll'
I1
tp44
a(S'w'
I7
tp45
a(S'tr_lh'
I1
tp46
a(S'tr_lr'
I16
tp47
a(S'w'
I3
tp48
a(S'tr_tl'
I252
tp49
a(S'tr_ll'
I1
tp50
a(S'tr_th'
I1
tp51
a(S'w'
I717
tp52
a(S'p2_vo'
I10
tp53
a(S'w'
I6604
tp54
a(S'p2_vo'
I9
tp55
a(S'w'
I734
tp56
a(S'p2_vo'
I8
tp57
a(S'w'
I734
tp58
a(S'p2_vo'
I7
tp59
a(S'w'
I733
tp60
a(S'p2_vo'
I6
tp61
a(S'w'
I734
tp62
a(S'p2_vo'
I5
tp63
a(S'w'
I736
tp64
a(S'p2_vo'
I11
tp65
a(S'w'
I4
tp66
a(S'p2_tl'
I226
tp67
a(S'w'
I9
tp68
a(S'tr_tl'
I197
tp69
a(S'w'
I1
tp70
a(S'tr_ll'
I1
tp71
a(S'w'
I718
tp72
a(S'p2_vo'
I10
tp73
a(S'w'
I734
tp74
a(S'p2_vo'
I9
tp75
a(S'w'
I733
tp76
a(S'p2_vo'
I8
tp77
a(S'w'
I734
tp78
a(S'p2_vo'
I7
tp79
a(S'w'
I737
tp80
a(S'p2_vo'
I11
tp81
a(S'w'
I4
tp82
a(S'p2_tl'
I213
tp83
a(S'w'
I11
tp84
a(S'tr_tl'
I171
tp85
a(S'tr_ll'
I1
tp86
a(S'w'
I716
tp87
a(S'p2_vo'
I10
tp88
a(S'w'
I6604
tp89
a(S'p2_vo'
I9
tp90
a(S'w'
I734
tp91
a(S'p2_vo'
I8
tp92
a(S'w'
I734
tp93
a(S'p2_vo'
I7
tp94
a(S'w'
I733
tp95
a(S'p2_vo'
I6
tp96
a(S'w'
I734
tp97
a(S'p2_vo'
I5
tp98
a(S'w'
I736
tp99
a(S'p2_vo'
I11
tp100
a(S'w'
I4
tp101
a(S'p2_tl'
I190
tp102
a(S'w'
I10
tp103
a(S'tr_tl'
I125
tp104
a(S'w'
I1
tp105
a(S'tr_ll'
I1
tp106
a(S'w'
I717
tp107
a(S'p2_vo'
I10
tp108
a(S'w'
I733
tp109
a(S'p2_vo'
I9
tp110
a(S'w'
I734
tp111
a(S'p2_vo'
I8
tp112
a(S'w'
I734
tp113
a(S'p2_vo'
I7
tp114
a(S'w'
I737
tp115
a(S'p2_vo'
I11
tp116
a(S'w'
I4
tp117
a(S'p2_tl'
I169
tp118
a(S'w'
I10
tp119
a(S'tr_tl'
I83
tp120
a(S'w'
I1
tp121
a(S'tr_ll'
I1
tp122
a(S'w'
I716
tp123
a(S'p2_vo'
I10
tp124
a(S'w'
I6604
tp125
a(S'p2_vo'
I9
tp126
a(S'w'
I734
tp127
a(S'p2_vo'
I8
tp128
a(S'w'
I733
tp129
a(S'p2_vo'
I7
tp130
a(S'w'
I734
tp131
a(S'p2_vo'
I6
tp132
a(S'w'
I734
tp133
a(S'p2_vo'
I5
tp134
a(S'w'
I736
tp135
a(S'p2_vo'
I11
tp136
a(S'w'
I4
tp137
a(S'p2_tl'
I254
tp138
a(S'w'
I10
tp139
a(S'tr_tl'
I127
tp140
a(S'w'
I1
tp141
a(S'tr_ll'
I1
tp142
a(S'tr_th'
I0
tp143
a(S'w'
I717
tp144
a(S'p2_vo'
I10
tp145
a(S'w'
I733
tp146
a(S'p2_vo'
I9
tp147
a(S'w'
I734
tp148
a(S'p2_vo'
I8
tp149
a(S'w'
I734
tp150
a(S'p2_vo'
I7
tp151
a(S'w'
I737
tp152
a(S'p2_vo'
I11
tp153
a(S'w'
I4
tp154
a(S'p2_tl'
I213
tp155
a(S'w'
I11
tp156
a(S'tr_tl'
I171
tp157
a(S'tr_ll'
I1
tp158
a(S'tr_th'
I1
tp159
a(S'w'
I715
tp160
a(S'p2_vo'
I10
tp161
a(S'w'
I6605
tp162
a(S'p2_vo'
I9
tp163
a(S'w'
I733
tp164
a(S'p2_vo'
I8
tp165
a(S'w'
I734
tp166
a(S'p2_vo'
I7
tp167
a(S'w'
I734
tp168
a(S'p2_vo'
I6
tp169
a(S'w'
I734
tp170
a(S'p2_vo'
I5
tp171
a(S'w'
I736
tp172
a(S'p2_vo'
I11
tp173
a(S'w'
I4
tp174
a(S'p2_tl'
I254
tp175
a(S'w'
I9
tp176
a(S'tr_tl'
I252
tp177
a(S'w'
I1
tp178
a(S'tr_ll'
I1
tp179
a(S'w'
I717
tp180
a(S'p2_vo'
I10
tp181
a(S'w'
I734
tp182
a(S'p2_vo'
I9
tp183
a(S'w'
I734
tp184
a(S'p2_vo'
I8
tp185
a(S'w'
I734
tp186
a(S'p2_vo'
I7
tp187
a(S'w'
I737
tp188
a(S'p2_vo'
I11
tp189
a(S'w'
I4
tp190
a(S'p2_tl'
I160
tp191
a(S'w'
I11
tp192
a(S'tr_tl'
I64
tp193
a(S'tr_ll'
I1
tp194
a(S'w'
I715
tp195
a(S'p2_vo'
I10
tp196
a(S'w'
I6604
tp197
a(S'p2_vo'
I9
tp198
a(S'w'
I734
tp199
a(S'p2_vo'
I8
tp200
a(S'w'
I734
tp201
a(S'p2_vo'
I7
tp202
a(S'w'
I734
tp203
a(S'p2_vo'
I6
tp204
a(S'w'
I734
tp205
a(S'p2_vo'
I5
tp206
a(S'w'
I735
tp207
a(S'p2_vo'
I11
tp208
a(S'w'
I4
tp209
a(S'p2_tl'
I254
tp210
a(S'w'
I9
tp211
a(S'tr_tl'
I252
tp212
a(S'w'
I1
tp213
a(S'tr_ll'
I1
tp214
a(S'w'
I718
tp215
a(S'p2_vo'
I10
tp216
a(S'w'
I734
tp217
a(S'p2_vo'
I9
tp218
a(S'w'
I734
tp219
a(S'p2_vo'
I8
tp220
a(S'w'
I734
tp221
a(S'p2_vo'
I7
tp222
a(S'w'
I736
tp223
a(S'p2_vo'
I11
tp224
a(S'w'
I4
tp225
a(S'p2_tl'
I160
tp226
a(S'w'
I11
tp227
a(S'tr_tl'
I64
tp228
a(S'tr_ll'
I1
tp229
a(S'w'
I716
tp230
a(S'p2_vo'
I10
tp231
a(S'w'
I6604
tp232
a(S'p2_vo'
I9
tp233
a(S'w'
I734
tp234
a(S'p2_vo'
I8
tp235
a(S'w'
I734
tp236
a(S'p2_vo'
I7
tp237
a(S'w'
I734
tp238
a(S'p2_vo'
I6
tp239
a(S'w'
I733
tp240
a(S'p2_vo'
I5
tp241
a(S'w'
I737
tp242
a(S'p2_vo'
I11
tp243
a(S'w'
I4
tp244
a(S'p2_tl'
I169
tp245
a(S'w'
I11
tp246
a(S'tr_tl'
I83
tp247
a(S'w'
I1
tp248
a(S'tr_ll'
I1
tp249
a(S'w'
I715
tp250
a(S'p2_vo'
I10
tp251
a(S'w'
I10273
tp252
a(S'p2_vo'
I9
tp253
a(S'w'
I734
tp254
a(S'p2_vo'
I8
tp255
a(S'w'
I734
tp256
a(S'p2_vo'
I7
tp257
a(S'w'
I733
tp258
a(S'p2_vo'
I6
tp259
a(S'w'
I734
tp260
a(S'p2_vo'
I5
tp261
a(S'w'
I736
tp262
a(S'p2_vo'
I11
tp263
a(S'w'
I4
tp264
a(S'w'
I11
tp265
a(S'tr_ll'
I1
tp266
a(S'w'
I717
tp267
a(S'p2_vo'
I10
tp268
a(S'w'
I734
tp269
a(S'p2_vo'
I9
tp270
a(S'w'
I733
tp271
a(S'p2_vo'
I8
tp272
a(S'w'
I734
tp273
a(S'p2_vo'
I7
tp274
a(S'w'
I737
tp275
a(S'p2_vo'
I11
tp276
a(S'w'
I4
tp277
a(S'p2_tl'
I151
tp278
a(S'w'
I10
tp279
a(S'tr_tl'
I46
tp280
a(S'w'
I1
tp281
a(S'tr_ll'
I1
tp282
a(S'w'
I716
tp283
a(S'p2_vo'
I10
tp284
a(S'w'
I6604
tp285
a(S'p2_vo'
I9
tp286
a(S'w'
I734
tp287
a(S'p2_vo'
I8
tp288
a(S'w'
I734
tp289
a(S'p2_vo'
I7
tp290
a(S'w'
I733
tp291
a(S'p2_vo'
I6
tp292
a(S'w'
I734
tp293
a(S'p2_vo'
I5
tp294
a(S'w'
I736
tp295
a(S'p2_vo'
I11
tp296
a(S'w'
I4
tp297
a(S'p2_tl'
I134
tp298
a(S'w'
I10
tp299
a(S'tr_tl'
I13
tp300
a(S'w'
I1
tp301
a(S'tr_ll'
I1
tp302
a(S'w'
I717
tp303
a(S'p2_vo'
I10
tp304
a(S'w'
I733
tp305
a(S'p2_vo'
I9
tp306
a(S'w'
I734
tp307
a(S'p2_vo'
I8
tp308
a(S'w'
I734
tp309
a(S'p2_vo'
I7
tp310
a(S'w'
I738
tp311
a(S'p2_vo'
I11
tp312
a(S'w'
I1
tp313
a(S'p2_du'
I0
tp314
a(S'p2_vo'
I0
tp315
a(S'w'
I9
tp316
a(S'tr_lh'
I0
tp317
a(S'tr_lr'
I0
tp318
a(S'w'
I25673
tp319
a(S'p2_du'
I1
tp320
a(S'p2_vo'
I11
tp321
a(S'w'
I1
tp322
a(S'p2_du'
I0
tp323
a(S'p2_vo'
I0
tp324
a(S'w'
I7
tp325
a(S'tr_lh'
I1
tp326
a(S'tr_lr'
I16
tp327
a(S'w'
I1
tp328
a(S'tr_lh'
I0
tp329
a(S'tr_lr'
I0
tp330
a(S'w'
I15956
tp331
a.