(lp1
(S'clock'
p2
I1789772
tp3
a(S'w'
I1
tp4
a(S'fc_mo'
I1
tp5
a(S'w'
I25
tp6
a(S'p1_cv'
I1
tp7
a(S'p2_cv'
I1
tp8
a(S'no_cv'
I1
tp9
a(S'w'
I16
tp10
a(S'p1_tl'
I212
tp11
a(S'p1_ll'
I1
tp12
a(S'w'
I1
tp13
a(S'p1_sp'
I7
tp14
a(S'p1_sn'
I1
tp15
a(S'p1_ss'
I7
tp16
a(S'w'
I6
tp17
a(S'p2_du'
I3
tp18
a(S'p2_lh'
I1
tp19
a(S'p2_vo'
I6
tp20
a(S'p2_tl'
I128
tp21
a(S'w'
I1
tp22
a(S'p2_ll'
I1
tp23
a(S'p2_th'
I2
tp24
a(S'p2_sp'
I7
tp25
a(S'p2_sn'
I1
tp26
a(S'p2_ss'
I7
tp27
a(S'w'
I7
tp28
a(S'tr_lh'
I1
tp29
a(S'tr_lr'
I127
tp30
a(S'tr_tl'
I223
tp31
a(S'w'
I1
tp32
a(S'tr_ll'
I1
tp33
a(S'tr_th'
I1
tp34
a(S'w'
I5
tp35
a(S'p1_du'
I2
tp36
a(S'p1_lh'
I1
tp37
a(S'p1_vo'
I2
tp38
a(S'w'
I758
tp39
a(S'p1_vo'
I3
tp40
a(S'w'
I1468
tp41
a(S'p1_vo'
I4
tp42
a(S'w'
I734
tp43
a(S'p1_vo'
I5
tp44
a(S'w'
I733
tp45
a(S'p1_vo'
I6
tp46
a(S'w'
I734
tp47
a(S'p1_vo'
I7
tp48
a(S'w'
I734
tp49
a(S'p1_vo'
I8
tp50
a(S'w'
I733
tp51
a(S'p1_vo'
I6
tp52
a(S'w'
I5135
tp53
a(S'p2_tl'
I223
tp54
a(S'p2_ll'
I1
tp55
a(S'p2_th'
I1
tp56
a(S'w'
I11739
tp57
a(S'p1_tl'
I253
tp58
a(S'p1_ll'
I1
tp59
a(S'w'
I6
tp60
a(S'p2_tl'
I171
tp61
a(S'p2_ll'
I1
tp62
a(S'w'
I7
tp63
a(S'p1_vo'
I2
tp64
a(S'w'
I1459
tp65
a(S'p1_vo'
I3
tp66
a(S'w'
I1467
tp67
a(S'p1_vo'
I4
tp68
a(S'w'
I734
tp69
a(S'p1_vo'
I5
tp70
a(S'w'
I734
tp71
a(S'p1_vo'
I6
tp72
a(S'w'
I734
tp73
a(S'p1_vo'
I7
tp74
a(S'w'
I733
tp75
a(S'p1_vo'
I8
tp76
a(S'w'
I733
tp77
a(S'p1_vo'
I6
tp78
a(S'w'
I5136
tp79
a(S'p2_tl'
I124
tp80
a(S'p2_ll'
I1
tp81
a(S'w'
I11739
tp82
a(S'p1_tl'
I28
tp83
a(S'p1_ll'
I1
tp84
a(S'p1_th'
I1
tp85
a(S'w'
I6
tp86
a(S'p2_tl'
I82
tp87
a(S'p2_ll'
I1
tp88
a(S'w'
I6
tp89
a(S'tr_tl'
I252
tp90
a(S'w'
I1
tp91
a(S'tr_ll'
I1
tp92
a(S'w'
I5
tp93
a(S'p1_vo'
I2
tp94
a(S'w'
I1453
tp95
a(S'p1_vo'
I3
tp96
a(S'w'
I1468
tp97
a(S'p1_vo'
I4
tp98
a(S'w'
I733
tp99
a(S'p1_vo'
I5
tp100
a(S'w'
I734
tp101
a(S'p1_vo'
I6
tp102
a(S'w'
I734
tp103
a(S'p1_vo'
I7
tp104
a(S'w'
I734
tp105
a(S'p1_vo'
I8
tp106
a(S'w'
I733
tp107
a(S'p1_vo'
I6
tp108
a(S'w'
I5133
tp109
a(S'p1_tl'
I82
tp110
a(S'p1_ll'
I1
tp111
a(S'w'
I6
tp112
a(S'p2_tl'
I171
tp113
a(S'p2_ll'
I1
tp114
a(S'w'
I7
tp115
a(S'p1_vo'
I2
tp116
a(S'w'
I1459
tp117
a(S'p1_vo'
I3
tp118
a(S'w'
I1467
tp119
a(S'p1_vo'
I4
tp120
a(S'w'
I734
tp121
a(S'p1_vo'
I5
tp122
a(S'w'
I734
tp123
a(S'p1_vo'
I6
tp124
a(S'w'
I734
tp125
a(S'p1_vo'
I7
tp126
a(S'w'
I733
tp127
a(S'p1_vo'
I8
tp128
a(S'w'
I733
tp129
a(S'p1_vo'
I6
tp130
a(S'w'
I5134
tp131
a(S'p1_tl'
I171
tp132
a(S'p1_ll'
I1
tp133
a(S'w'
I6
tp134
a(S'p2_tl'
I58
tp135
a(S'p2_ll'
I1
tp136
a(S'p2_th'
I2
tp137
a(S'w'
I7
tp138
a(S'p1_vo'
I2
tp139
a(S'w'
I1458
tp140
a(S'p1_vo'
I3
tp141
a(S'w'
I1468
tp142
a(S'p1_vo'
I4
tp143
a(S'w'
I734
tp144
a(S'p1_vo'
I5
tp145
a(S'w'
I733
tp146
a(S'p1_vo'
I6
tp147
a(S'w'
I734
tp148
a(S'p1_vo'
I7
tp149
a(S'w'
I734
tp150
a(S'p1_vo'
I8
tp151
a(S'w'
I733
tp152
a(S'p1_vo'
I6
tp153
a(S'w'
I5133
tp154
a(S'p1_tl'
I82
tp155
a(S'p1_ll'
I1
tp156
a(S'w'
I6
tp157
a(S'p2_tl'
I171
tp158
a(S'p2_ll'
I1
tp159
a(S'p2_th'
I1
tp160
a(S'w'
I7
tp161
a(S'p1_vo'
I2
tp162
a(S'w'
I1459
tp163
a(S'p1_vo'
I3
tp164
a(S'w'
I1468
tp165
a(S'p1_vo'
I4
tp166
a(S'w'
I733
tp167
a(S'p1_vo'
I5
tp168
a(S'w'
I734
tp169
a(S'p1_vo'
I6
tp170
a(S'w'
I734
tp171
a(S'p1_vo'
I7
tp172
a(S'w'
I734
tp173
a(S'p1_vo'
I8
tp174
a(S'w'
I733
tp175
a(S'p1_vo'
I6
tp176
a(S'w'
I5133
tp177
a(S'p1_tl'
I189
tp178
a(S'p1_ll'
I1
tp179
a(S'p1_th'
I0
tp180
a(S'w'
I6
tp181
a(S'p2_tl'
I63
tp182
a(S'p2_ll'
I1
tp183
a(S'w'
I6
tp184
a(S'tr_tl'
I207
tp185
a(S'tr_ll'
I1
tp186
a(S'tr_th'
I2
tp187
a(S'w'
I6
tp188
a(S'p1_vo'
I2
tp189
a(S'w'
I1454
tp190
a(S'p1_vo'
I3
tp191
a(S'w'
I1467
tp192
a(S'p1_vo'
I4
tp193
a(S'w'
I734
tp194
a(S'p1_vo'
I5
tp195
a(S'w'
I734
tp196
a(S'p1_vo'
I6
tp197
a(S'w'
I734
tp198
a(S'p1_vo'
I7
tp199
a(S'w'
I733
tp200
a(S'p1_vo'
I8
tp201
a(S'w'
I733
tp202
a(S'p1_vo'
I6
tp203
a(S'w'
I5134
tp204
a(S'p1_tl'
I238
tp205
a(S'p1_ll'
I1
tp206
a(S'w'
I6
tp207
a(S'p2_tl'
I124
tp208
a(S'p2_ll'
I1
tp209
a(S'w'
I7
tp210
a(S'p1_vo'
I2
tp211
a(S'w'
I1458
tp212
a(S'p1_vo'
I3
tp213
a(S'w'
I1468
tp214
a(S'p1_vo'
I4
tp215
a(S'w'
I734
tp216
a(S'p1_vo'
I5
tp217
a(S'w'
I733
tp218
a(S'p1_vo'
I6
tp219
a(S'w'
I734
tp220
a(S'p1_vo'
I7
tp221
a(S'w'
I734
tp222
a(S'p1_vo'
I8
tp223
a(S'w'
I733
tp224
a(S'p1_vo'
I6
tp225
a(S'w'
I5133
tp226
a(S'p1_tl'
I28
tp227
a(S'p1_ll'
I1
tp228
a(S'p1_th'
I1
tp229
a(S'w'
I6
tp230
a(S'p2_tl'
I223
tp231
a(S'p2_ll'
I1
tp232
a(S'w'
I7
tp233
a(S'p1_vo'
I2
tp234
a(S'w'
I1459
tp235
a(S'p1_vo'
I3
tp236
a(S'w'
I1468
tp237
a(S'p1_vo'
I4
tp238
a(S'w'
I733
tp239
a(S'p1_vo'
I5
tp240
a(S'w'
I734
tp241
a(S'p1_vo'
I6
tp242
a(S'w'
I734
tp243
a(S'p1_vo'
I7
tp244
a(S'w'
I734
tp245
a(S'p1_vo'
I8
tp246
a(S'w'
I733
tp247
a(S'p1_vo'
I6
tp248
a(S'w'
I5133
tp249
a(S'p1_tl'
I103
tp250
a(S'p1_ll'
I1
tp251
a(S'w'
I6
tp252
a(S'p2_tl'
I58
tp253
a(S'p2_ll'
I1
tp254
a(S'p2_th'
I2
tp255
a(S'w'
I7
tp256
a(S'p1_vo'
I2
tp257
a(S'w'
I1459
tp258
a(S'p1_vo'
I3
tp259
a(S'w'
I1467
tp260
a(S'p1_vo'
I4
tp261
a(S'w'
I734
tp262
a(S'p1_vo'
I5
tp263
a(S'w'
I734
tp264
a(S'p1_vo'
I6
tp265
a(S'w'
I734
tp266
a(S'p1_vo'
I7
tp267
a(S'w'
I733
tp268
a(S'p1_vo'
I8
tp269
a(S'w'
I733
tp270
a(S'p1_vo'
I6
tp271
a(S'w'
I5137
tp272
a(S'p1_tl'
I82
tp273
a(S'p1_ll'
I1
tp274
a(S'w'
I7
tp275
a(S'p2_tl'
I252
tp276
a(S'p2_ll'
I1
tp277
a(S'p2_th'
I1
tp278
a(S'w'
I6
tp279
a(S'tr_tl'
I249
tp280
a(S'tr_ll'
I1
tp281
a(S'w'
I5
tp282
a(S'p1_vo'
I2
tp283
a(S'w'
I1450
tp284
a(S'p1_vo'
I3
tp285
a(S'w'
I1464
tp286
a(S'p1_tl'
I45
tp287
a(S'p1_ll'
I1
tp288
a(S'w'
I8
tp289
a(S'p1_vo'
I2
tp290
a(S'w'
I1463
tp291
a(S'p1_vo'
I3
tp292
a(S'w'
I1466
tp293
a(S'p1_tl'
I82
tp294
a(S'w'
I1
tp295
a(S'p1_ll'
I1
tp296
a(S'w'
I8
tp297
a(S'p1_vo'
I2
tp298
a(S'w'
I1461
tp299
a(S'p1_vo'
I3
tp300
a(S'w'
I1463
tp301
a(S'p1_tl'
I45
tp302
a(S'p1_ll'
I1
tp303
a(S'w'
I8
tp304
a(S'p1_vo'
I2
tp305
a(S'w'
I1464
tp306
a(S'p1_vo'
I3
tp307
a(S'w'
I1465
tp308
a(S'p1_tl'
I82
tp309
a(S'w'
I1
tp310
a(S'p1_ll'
I1
tp311
a(S'w'
I8
tp312
a(S'p1_vo'
I2
tp313
a(S'w'
I1461
tp314
a(S'p1_vo'
I3
tp315
a(S'w'
I1464
tp316
a(S'p1_tl'
I45
tp317
a(S'p1_ll'
I1
tp318
a(S'w'
I8
tp319
a(S'p1_vo'
I2
tp320
a(S'w'
I1463
tp321
a(S'p1_vo'
I3
tp322
a(S'w'
I1466
tp323
a(S'p1_tl'
I82
tp324
a(S'w'
I1
tp325
a(S'p1_ll'
I1
tp326
a(S'w'
I8
tp327
a(S'p1_vo'
I2
tp328
a(S'w'
I1460
tp329
a(S'p1_vo'
I3
tp330
a(S'w'
I1464
tp331
a(S'p1_tl'
I45
tp332
a(S'p1_ll'
I1
tp333
a(S'w'
I8
tp334
a(S'p1_vo'
I2
tp335
a(S'w'
I1463
tp336
a(S'p1_vo'
I3
tp337
a(S'w'
I1466
tp338
a(S'p1_tl'
I82
tp339
a(S'w'
I1
tp340
a(S'p1_ll'
I1
tp341
a(S'w'
I8
tp342
a(S'p1_vo'
I2
tp343
a(S'w'
I1461
tp344
a(S'p1_vo'
I3
tp345
a(S'w'
I1463
tp346
a(S'p1_tl'
I45
tp347
a(S'p1_ll'
I1
tp348
a(S'w'
I8
tp349
a(S'p1_vo'
I2
tp350
a(S'w'
I1464
tp351
a(S'p1_vo'
I3
tp352
a(S'w'
I1465
tp353
a(S'p1_tl'
I82
tp354
a(S'w'
I1
tp355
a(S'p1_ll'
I1
tp356
a(S'w'
I8
tp357
a(S'p1_vo'
I2
tp358
a(S'w'
I1461
tp359
a(S'p1_vo'
I3
tp360
a(S'w'
I1464
tp361
a(S'p1_tl'
I45
tp362
a(S'p1_ll'
I1
tp363
a(S'w'
I8
tp364
a(S'p1_vo'
I2
tp365
a(S'w'
I1463
tp366
a(S'p1_vo'
I3
tp367
a(S'w'
I1466
tp368
a(S'p1_tl'
I82
tp369
a(S'w'
I1
tp370
a(S'p1_ll'
I1
tp371
a(S'w'
I8
tp372
a(S'p1_vo'
I2
tp373
a(S'w'
I1460
tp374
a(S'p1_vo'
I3
tp375
a(S'w'
I1464
tp376
a(S'p1_tl'
I45
tp377
a(S'p1_ll'
I1
tp378
a(S'w'
I8
tp379
a(S'p1_vo'
I2
tp380
a(S'w'
I1463
tp381
a(S'p1_vo'
I3
tp382
a(S'w'
I1466
tp383
a(S'p1_tl'
I82
tp384
a(S'w'
I1
tp385
a(S'p1_ll'
I1
tp386
a(S'w'
I8
tp387
a(S'p1_vo'
I2
tp388
a(S'w'
I1461
tp389
a(S'p1_vo'
I3
tp390
a(S'w'
I1463
tp391
a(S'p1_tl'
I45
tp392
a(S'p1_ll'
I1
tp393
a(S'w'
I8
tp394
a(S'p1_vo'
I2
tp395
a(S'w'
I1464
tp396
a(S'p1_vo'
I3
tp397
a(S'w'
I1465
tp398
a(S'p1_tl'
I223
tp399
a(S'p1_ll'
I1
tp400
a(S'w'
I5
tp401
a(S'p1_du'
I0
tp402
a(S'p1_lh'
I0
tp403
a(S'p1_vo'
I0
tp404
a(S'p2_du'
I0
tp405
a(S'p2_lh'
I0
tp406
a(S'p2_vo'
I0
tp407
a(S'tr_lh'
I0
tp408
a(S'tr_lr'
I0
tp409
a(S'w'
I49337
tp410
a.