(lp1
(S'clock'
p2
I1789772
tp3
a(S'tr_ll'
I3
tp4
a(S'p1_cv'
I1
tp5
a(S'p2_cv'
I1
tp6
a(S'ch_no'
I1
tp7
a(S'ch_tr'
I1
tp8
a(S'ch_p2'
I1
tp9
a(S'ch_p1'
I1
tp10
a(S'w'
I8
tp11
a(S'no_cv'
I1
tp12
a(S'p1_ll'
I3
tp13
a(S'p2_ll'
I3
tp14
a(S'tr_ll'
I3
tp15
a(S'no_ll'
I3
tp16
a(S'w'
I2
tp17
a(S'p1_du'
I2
tp18
a(S'w'
I2
tp19
a(S'p2_du'
I2
tp20
a(S'w'
I7
tp21
a(S'p1_cv'
I0
tp22
a(S'w'
I4
tp23
a(S'p1_tl'
I254
tp24
a(S'p1_ll'
I29
tp25
a(S'w'
I8
tp26
a(S'p2_cv'
I0
tp27
a(S'w'
I4
tp28
a(S'p2_tl'
I64
tp29
a(S'p2_ll'
I15
tp30
a(S'p2_th'
I1
tp31
a(S'w'
I7
tp32
a(S'tr_lr'
I63
tp33
a(S'w'
I3
tp34
a(S'tr_tl'
I128
tp35
a(S'w'
I1
tp36
a(S'tr_ll'
I1
tp37
a(S'tr_th'
I2
tp38
a(S'w'
I13
tp39
a(S'no_cv'
I0
tp40
a(S'w'
I1
tp41
a(S'no_np'
I3
tp42
a(S'no_ll'
I4
tp43
a(S'w'
I678
tp44
a(S'p1_cv'
I1
tp45
a(S'p1_vo'
I9
tp46
a(S'w'
I2
tp47
a(S'p2_cv'
I1
tp48
a(S'p2_vo'
I9
tp49
a(S'w'
I5138
tp50
a(S'p2_cv'
I0
tp51
a(S'p2_vo'
I0
tp52
a(S'w'
I4
tp53
a(S'p2_tl'
I171
tp54
a(S'p2_ll'
I15
tp55
a(S'w'
I727
tp56
a(S'p1_vo'
I8
tp57
a(S'w'
I3
tp58
a(S'p2_cv'
I1
tp59
a(S'p2_vo'
I9
tp60
a(S'w'
I5138
tp61
a(S'p1_cv'
I0
tp62
a(S'p1_vo'
I0
tp63
a(S'w'
I3
tp64
a(S'p1_tl'
I226
tp65
a(S'w'
I1
tp66
a(S'p1_ll'
I15
tp67
a(S'w'
I4
tp68
a(S'p2_cv'
I0
tp69
a(S'p2_vo'
I0
tp70
a(S'w'
I3
tp71
a(S'p2_tl'
I29
tp72
a(S'w'
I1
tp73
a(S'p2_ll'
I15
tp74
a(S'w'
I7
tp75
a(S'tr_lr'
I31
tp76
a(S'w'
I3
tp77
a(S'tr_tl'
I64
tp78
a(S'w'
I1
tp79
a(S'tr_ll'
I1
tp80
a(S'tr_th'
I1
tp81
a(S'w'
I10
tp82
a(S'no_ll'
I4
tp83
a(S'w'
I696
tp84
a(S'p1_cv'
I1
tp85
a(S'p1_vo'
I9
tp86
a(S'w'
I2
tp87
a(S'p2_cv'
I1
tp88
a(S'p2_vo'
I9
tp89
a(S'w'
I5140
tp90
a(S'p1_cv'
I0
tp91
a(S'p1_vo'
I0
tp92
a(S'w'
I4
tp93
a(S'p1_tl'
I213
tp94
a(S'p1_ll'
I29
tp95
a(S'w'
I8
tp96
a(S'p2_cv'
I0
tp97
a(S'p2_vo'
I0
tp98
a(S'w'
I4
tp99
a(S'p2_tl'
I254
tp100
a(S'p2_ll'
I29
tp101
a(S'p2_th'
I0
tp102
a(S'w'
I7
tp103
a(S'tr_tl'
I128
tp104
a(S'w'
I1
tp105
a(S'tr_ll'
I1
tp106
a(S'tr_th'
I2
tp107
a(S'w'
I9
tp108
a(S'no_np'
I1
tp109
a(S'w'
I1
tp110
a(S'no_ll'
I5
tp111
a(S'w'
I694
tp112
a(S'p1_cv'
I1
tp113
a(S'p1_vo'
I9
tp114
a(S'w'
I3
tp115
a(S'p2_cv'
I1
tp116
a(S'p2_vo'
I9
tp117
a(S'w'
I5868
tp118
a(S'p1_vo'
I8
tp119
a(S'w'
I3
tp120
a(S'p2_vo'
I8
tp121
a(S'w'
I5138
tp122
a(S'p1_cv'
I0
tp123
a(S'p1_vo'
I0
tp124
a(S'w'
I4
tp125
a(S'p1_tl'
I127
tp126
a(S'p1_ll'
I15
tp127
a(S'w'
I8
tp128
a(S'p2_cv'
I0
tp129
a(S'p2_vo'
I0
tp130
a(S'w'
I4
tp131
a(S'p2_tl'
I213
tp132
a(S'w'
I1
tp133
a(S'p2_ll'
I15
tp134
a(S'w'
I7
tp135
a(S'tr_tl'
I64
tp136
a(S'w'
I1
tp137
a(S'tr_ll'
I1
tp138
a(S'tr_th'
I1
tp139
a(S'w'
I10
tp140
a(S'no_np'
I3
tp141
a(S'no_ll'
I4
tp142
a(S'w'
I694
tp143
a(S'p1_cv'
I1
tp144
a(S'p1_vo'
I9
tp145
a(S'w'
I2
tp146
a(S'p2_cv'
I1
tp147
a(S'p2_vo'
I9
tp148
a(S'w'
I5141
tp149
a(S'p1_cv'
I0
tp150
a(S'p1_vo'
I0
tp151
a(S'w'
I4
tp152
a(S'p1_tl'
I142
tp153
a(S'p1_ll'
I6
tp154
a(S'w'
I11
tp155
a(S'p2_cv'
I0
tp156
a(S'p2_vo'
I0
tp157
a(S'w'
I4
tp158
a(S'p2_tl'
I190
tp159
a(S'p2_ll'
I20
tp160
a(S'w'
I7
tp161
a(S'tr_lr'
I63
tp162
a(S'w'
I3
tp163
a(S'tr_tl'
I128
tp164
a(S'w'
I1
tp165
a(S'tr_ll'
I1
tp166
a(S'tr_th'
I2
tp167
a(S'w'
I9
tp168
a(S'w'
I1
tp169
a(S'no_ll'
I4
tp170
a(S'w'
I687
tp171
a(S'p1_cv'
I1
tp172
a(S'p1_vo'
I9
tp173
a(S'w'
I3
tp174
a(S'p2_cv'
I1
tp175
a(S'p2_vo'
I9
tp176
a(S'w'
I5868
tp177
a(S'p1_vo'
I8
tp178
a(S'w'
I3
tp179
a(S'p2_vo'
I8
tp180
a(S'w'
I5142
tp181
a(S'tr_lr'
I31
tp182
a(S'w'
I3
tp183
a(S'tr_ll'
I1
tp184
a(S'w'
I10
tp185
a(S'w'
I1
tp186
a(S'no_ll'
I4
tp187
a(S'w'
I711
tp188
a(S'p1_vo'
I7
tp189
a(S'w'
I2
tp190
a(S'p2_vo'
I7
tp191
a(S'w'
I5145
tp192
a(S'tr_tl'
I64
tp193
a(S'tr_ll'
I1
tp194
a(S'tr_th'
I1
tp195
a(S'w'
I10
tp196
a(S'no_np'
I1
tp197
a(S'no_ll'
I5
tp198
a(S'w'
I713
tp199
a(S'p1_vo'
I6
tp200
a(S'w'
I3
tp201
a(S'p2_vo'
I6
tp202
a(S'w'
I5141
tp203
a(S'p2_cv'
I0
tp204
a(S'p2_vo'
I0
tp205
a(S'w'
I4
tp206
a(S'p2_tl'
I226
tp207
a(S'p2_ll'
I15
tp208
a(S'w'
I723
tp209
a(S'p1_vo'
I5
tp210
a(S'w'
I3
tp211
a(S'p2_cv'
I1
tp212
a(S'p2_vo'
I9
tp213
a(S'w'
I5136
tp214
a(S'p2_cv'
I0
tp215
a(S'p2_vo'
I0
tp216
a(S'w'
I4
tp217
a(S'p2_tl'
I254
tp218
a(S'p2_ll'
I15
tp219
a(S'w'
I9
tp220
a(S'tr_tl'
I160
tp221
a(S'tr_ll'
I1
tp222
a(S'tr_th'
I0
tp223
a(S'w'
I10
tp224
a(S'no_np'
I3
tp225
a(S'no_ll'
I4
tp226
a(S'w'
I708
tp227
a(S'p1_vo'
I4
tp228
a(S'w'
I2
tp229
a(S'p2_cv'
I1
tp230
a(S'p2_vo'
I9
tp231
a(S'w'
I5140
tp232
a(S'p1_cv'
I0
tp233
a(S'p1_vo'
I0
tp234
a(S'w'
I3
tp235
a(S'p1_tl'
I226
tp236
a(S'w'
I1
tp237
a(S'p1_ll'
I29
tp238
a(S'w'
I4
tp239
a(S'p2_cv'
I0
tp240
a(S'p2_vo'
I0
tp241
a(S'w'
I3
tp242
a(S'p2_tl'
I29
tp243
a(S'w'
I1
tp244
a(S'p2_ll'
I15
tp245
a(S'p2_th'
I1
tp246
a(S'w'
I8
tp247
a(S'tr_tl'
I169
tp248
a(S'tr_ll'
I1
tp249
a(S'w'
I14
tp250
a(S'w'
I1
tp251
a(S'no_ll'
I4
tp252
a(S'w'
I693
tp253
a(S'p1_cv'
I1
tp254
a(S'p1_vo'
I9
tp255
a(S'w'
I3
tp256
a(S'p2_cv'
I1
tp257
a(S'p2_vo'
I9
tp258
a(S'w'
I5137
tp259
a(S'p2_cv'
I0
tp260
a(S'p2_vo'
I0
tp261
a(S'w'
I4
tp262
a(S'p2_tl'
I124
tp263
a(S'p2_ll'
I15
tp264
a(S'w'
I8
tp265
a(S'tr_tl'
I83
tp266
a(S'tr_ll'
I1
tp267
a(S'tr_th'
I1
tp268
a(S'w'
I719
tp269
a(S'p1_vo'
I8
tp270
a(S'w'
I3
tp271
a(S'p2_cv'
I1
tp272
a(S'p2_vo'
I9
tp273
a(S'w'
I5138
tp274
a(S'p1_cv'
I0
tp275
a(S'p1_vo'
I0
tp276
a(S'w'
I4
tp277
a(S'p1_tl'
I213
tp278
a(S'p1_ll'
I15
tp279
a(S'w'
I4
tp280
a(S'p2_cv'
I0
tp281
a(S'p2_vo'
I0
tp282
a(S'w'
I4
tp283
a(S'p2_tl'
I83
tp284
a(S'p2_ll'
I15
tp285
a(S'w'
I9
tp286
a(S'tr_tl'
I169
tp287
a(S'tr_ll'
I1
tp288
a(S'tr_th'
I0
tp289
a(S'w'
I10
tp290
a(S'no_ll'
I4
tp291
a(S'w'
I698
tp292
a(S'p1_cv'
I1
tp293
a(S'p1_vo'
I9
tp294
a(S'w'
I2
tp295
a(S'p2_cv'
I1
tp296
a(S'p2_vo'
I9
tp297
a(S'w'
I5140
tp298
a(S'p1_cv'
I0
tp299
a(S'p1_vo'
I0
tp300
a(S'w'
I4
tp301
a(S'p1_tl'
I190
tp302
a(S'p1_ll'
I29
tp303
a(S'w'
I8
tp304
a(S'p2_cv'
I0
tp305
a(S'p2_vo'
I0
tp306
a(S'w'
I4
tp307
a(S'p2_tl'
I29
tp308
a(S'p2_ll'
I29
tp309
a(S'w'
I8
tp310
a(S'tr_tl'
I83
tp311
a(S'tr_ll'
I1
tp312
a(S'tr_th'
I1
tp313
a(S'w'
I10
tp314
a(S'no_np'
I1
tp315
a(S'w'
I1
tp316
a(S'no_ll'
I5
tp317
a(S'w'
I693
tp318
a(S'p1_cv'
I1
tp319
a(S'p1_vo'
I9
tp320
a(S'w'
I3
tp321
a(S'p2_cv'
I1
tp322
a(S'p2_vo'
I9
tp323
a(S'w'
I5868
tp324
a(S'p1_vo'
I8
tp325
a(S'w'
I3
tp326
a(S'p2_vo'
I8
tp327
a(S'w'
I5138
tp328
a(S'p1_cv'
I0
tp329
a(S'p1_vo'
I0
tp330
a(S'w'
I4
tp331
a(S'p1_tl'
I113
tp332
a(S'p1_ll'
I15
tp333
a(S'w'
I8
tp334
a(S'p2_cv'
I0
tp335
a(S'p2_vo'
I0
tp336
a(S'w'
I4
tp337
a(S'p2_tl'
I226
tp338
a(S'p2_ll'
I15
tp339
a(S'p2_th'
I0
tp340
a(S'w'
I8
tp341
a(S'tr_ll'
I1
tp342
a(S'w'
I10
tp343
a(S'no_np'
I3
tp344
a(S'w'
I1
tp345
a(S'no_ll'
I4
tp346
a(S'w'
I694
tp347
a(S'p1_cv'
I1
tp348
a(S'p1_vo'
I9
tp349
a(S'w'
I2
tp350
a(S'p2_cv'
I1
tp351
a(S'p2_vo'
I9
tp352
a(S'w'
I5141
tp353
a(S'p1_cv'
I0
tp354
a(S'p1_vo'
I0
tp355
a(S'w'
I4
tp356
a(S'p1_tl'
I127
tp357
a(S'p1_ll'
I6
tp358
a(S'w'
I11
tp359
a(S'p2_cv'
I0
tp360
a(S'p2_vo'
I0
tp361
a(S'w'
I4
tp362
a(S'p2_tl'
I190
tp363
a(S'p2_ll'
I4
tp364
a(S'w'
I8
tp365
a(S'tr_lr'
I79
tp366
a(S'w'
I2
tp367
a(S'tr_tl'
I252
tp368
a(S'w'
I1
tp369
a(S'tr_ll'
I1
tp370
a(S'w'
I10
tp371
a(S'no_ll'
I4
tp372
a(S'w'
I687
tp373
a(S'p1_cv'
I1
tp374
a(S'p1_vo'
I9
tp375
a(S'w'
I3
tp376
a(S'p2_cv'
I1
tp377
a(S'p2_vo'
I9
tp378
a(S'w'
I5868
tp379
a(S'p1_vo'
I8
tp380
a(S'w'
I3
tp381
a(S'p2_vo'
I8
tp382
a(S'w'
I5146
tp383
a(S'w'
I1
tp384
a(S'no_ll'
I4
tp385
a(S'w'
I720
tp386
a(S'p1_vo'
I7
tp387
a(S'w'
I2
tp388
a(S'p2_vo'
I7
tp389
a(S'w'
I5138
tp390
a(S'p2_cv'
I0
tp391
a(S'p2_vo'
I0
tp392
a(S'w'
I5
tp393
a(S'p2_tl'
I201
tp394
a(S'p2_ll'
I4
tp395
a(S'w'
I7
tp396
a(S'tr_lr'
I63
tp397
a(S'w'
I3
tp398
a(S'tr_ll'
I1
tp399
a(S'w'
I10
tp400
a(S'no_np'
I1
tp401
a(S'w'
I1
tp402
a(S'no_ll'
I5
tp403
a(S'w'
I704
tp404
a(S'p1_vo'
I6
tp405
a(S'w'
I3
tp406
a(S'p2_cv'
I1
tp407
a(S'p2_vo'
I9
tp408
a(S'w'
I5868
tp409
a(S'p1_vo'
I5
tp410
a(S'w'
I3
tp411
a(S'p2_vo'
I8
tp412
a(S'w'
I5142
tp413
a(S'tr_lr'
I31
tp414
a(S'w'
I4
tp415
a(S'tr_tl'
I169
tp416
a(S'w'
I1
tp417
a(S'tr_ll'
I1
tp418
a(S'tr_th'
I0
tp419
a(S'w'
I10
tp420
a(S'no_np'
I3
tp421
a(S'no_ll'
I4
tp422
a(S'w'
I710
tp423
a(S'p1_vo'
I4
tp424
a(S'w'
I2
tp425
a(S'p2_vo'
I7
tp426
a(S'w'
I5152
tp427
a(S'tr_lr'
I63
tp428
a(S'w'
I4
tp429
a(S'tr_tl'
I190
tp430
a(S'w'
I1
tp431
a(S'tr_ll'
I1
tp432
a(S'w'
I8
tp433
a(S'no_np'
I1
tp434
a(S'w'
I1
tp435
a(S'no_ll'
I5
tp436
a(S'w'
I1436
tp437
a(S'p1_vo'
I3
tp438
a(S'w'
I3
tp439
a(S'p2_vo'
I6
tp440
a(S'w'
I4409
tp441
a(S'no_np'
I3
tp442
a(S'no_ll'
I4
tp443
a(S'w'
I1458
tp444
a(S'p1_vo'
I2
tp445
a(S'w'
I2
tp446
a(S'p2_vo'
I5
tp447
a(S'w'
I4408
tp448
a(S'p1_cv'
I0
tp449
a(S'p1_vo'
I0
tp450
a(S'w'
I5
tp451
a(S'p1_tl'
I106
tp452
a(S'p1_ll'
I4
tp453
a(S'w'
I11
tp454
a(S'p2_cv'
I0
tp455
a(S'p2_vo'
I0
tp456
a(S'w'
I4
tp457
a(S'p2_tl'
I127
tp458
a(S'p2_ll'
I4
tp459
a(S'w'
I7
tp460
a(S'tr_lr'
I31
tp461
a(S'w'
I5
tp462
a(S'tr_tl'
I213
tp463
a(S'tr_ll'
I1
tp464
a(S'w'
I6
tp465
a(S'no_np'
I1
tp466
a(S'no_ll'
I5
tp467
a(S'w'
I689
tp468
a(S'p1_cv'
I1
tp469
a(S'p1_vo'
I9
tp470
a(S'w'
I2
tp471
a(S'p2_cv'
I1
tp472
a(S'p2_vo'
I9
tp473
a(S'w'
I5144
tp474
a(S'tr_lr'
I63
tp475
a(S'w'
I4
tp476
a(S'tr_tl'
I226
tp477
a(S'tr_ll'
I1
tp478
a(S'w'
I4
tp479
a(S'no_ll'
I5
tp480
a(S'w'
I716
tp481
a(S'p1_vo'
I8
tp482
a(S'w'
I3
tp483
a(S'p2_vo'
I8
tp484
a(S'w'
I5143
tp485
a(S'no_np'
I3
tp486
a(S'no_ll'
I4
tp487
a(S'w'
I725
tp488
a(S'p1_vo'
I7
tp489
a(S'w'
I2
tp490
a(S'p2_vo'
I7
tp491
a(S'w'
I5139
tp492
a(S'p1_cv'
I0
tp493
a(S'p1_vo'
I0
tp494
a(S'w'
I4
tp495
a(S'w'
I1
tp496
a(S'p1_ll'
I15
tp497
a(S'w'
I8
tp498
a(S'p2_cv'
I0
tp499
a(S'p2_vo'
I0
tp500
a(S'w'
I4
tp501
a(S'p2_ll'
I15
tp502
a(S'w'
I8
tp503
a(S'tr_lr'
I31
tp504
a(S'w'
I3
tp505
a(S'tr_tl'
I254
tp506
a(S'w'
I1
tp507
a(S'tr_ll'
I1
tp508
a(S'w'
I5
tp509
a(S'no_np'
I1
tp510
a(S'w'
I1
tp511
a(S'no_ll'
I5
tp512
a(S'w'
I694
tp513
a(S'p1_cv'
I1
tp514
a(S'p1_vo'
I9
tp515
a(S'w'
I2
tp516
a(S'p2_cv'
I1
tp517
a(S'p2_vo'
I9
tp518
a(S'w'
I5136
tp519
a(S'p1_cv'
I0
tp520
a(S'p1_vo'
I0
tp521
a(S'w'
I4
tp522
a(S'p1_tl'
I113
tp523
a(S'p1_ll'
I15
tp524
a(S'w'
I4
tp525
a(S'p2_cv'
I0
tp526
a(S'p2_vo'
I0
tp527
a(S'w'
I5
tp528
a(S'p2_tl'
I142
tp529
a(S'p2_ll'
I15
tp530
a(S'w'
I7
tp531
a(S'tr_lr'
I63
tp532
a(S'w'
I4
tp533
a(S'tr_tl'
I29
tp534
a(S'tr_ll'
I1
tp535
a(S'tr_th'
I1
tp536
a(S'w'
I4
tp537
a(S'no_ll'
I5
tp538
a(S'w'
I704
tp539
a(S'p1_cv'
I1
tp540
a(S'p1_vo'
I9
tp541
a(S'w'
I3
tp542
a(S'p2_cv'
I1
tp543
a(S'p2_vo'
I9
tp544
a(S'w'
I5151
tp545
a(S'no_np'
I3
tp546
a(S'w'
I1
tp547
a(S'no_ll'
I4
tp548
a(S'w'
I1449
tp549
a(S'p1_vo'
I8
tp550
a(S'w'
I2
tp551
a(S'p2_vo'
I8
tp552
a(S'w'
I4410
tp553
a(S'tr_lr'
I31
tp554
a(S'w'
I4
tp555
a(S'tr_tl'
I64
tp556
a(S'tr_ll'
I1
tp557
a(S'w'
I6
tp558
a(S'no_np'
I1
tp559
a(S'no_ll'
I5
tp560
a(S'w'
I1449
tp561
a(S'p1_vo'
I7
tp562
a(S'w'
I2
tp563
a(S'p2_vo'
I7
tp564
a(S'w'
I4406
tp565
a(S'p1_cv'
I0
tp566
a(S'p1_vo'
I0
tp567
a(S'w'
I4
tp568
a(S'p1_ll'
I15
tp569
a(S'w'
I8
tp570
a(S'p2_cv'
I0
tp571
a(S'p2_vo'
I0
tp572
a(S'w'
I4
tp573
a(S'p2_tl'
I160
tp574
a(S'w'
I1
tp575
a(S'p2_ll'
I15
tp576
a(S'w'
I7
tp577
a(S'tr_lr'
I63
tp578
a(S'w'
I3
tp579
a(S'tr_tl'
I83
tp580
a(S'w'
I1
tp581
a(S'tr_ll'
I1
tp582
a(S'w'
I4
tp583
a(S'no_ll'
I5
tp584
a(S'w'
I696
tp585
a(S'p1_cv'
I1
tp586
a(S'p1_vo'
I9
tp587
a(S'w'
I2
tp588
a(S'p2_cv'
I1
tp589
a(S'p2_vo'
I9
tp590
a(S'w'
I5152
tp591
a(S'no_np'
I3
tp592
a(S'w'
I1
tp593
a(S'no_ll'
I4
tp594
a(S'w'
I1449
tp595
a(S'p1_vo'
I8
tp596
a(S'w'
I2
tp597
a(S'p2_vo'
I8
tp598
a(S'w'
I4410
tp599
a(S'tr_lr'
I31
tp600
a(S'w'
I4
tp601
a(S'tr_tl'
I124
tp602
a(S'tr_ll'
I1
tp603
a(S'w'
I6
tp604
a(S'no_np'
I1
tp605
a(S'no_ll'
I5
tp606
a(S'w'
I1449
tp607
a(S'p1_vo'
I7
tp608
a(S'w'
I3
tp609
a(S'p2_vo'
I7
tp610
a(S'w'
I4406
tp611
a(S'p1_cv'
I0
tp612
a(S'p1_vo'
I0
tp613
a(S'w'
I5
tp614
a(S'p1_tl'
I106
tp615
a(S'p1_ll'
I6
tp616
a(S'w'
I4
tp617
a(S'p2_cv'
I0
tp618
a(S'p2_vo'
I0
tp619
a(S'w'
I4
tp620
a(S'p2_tl'
I169
tp621
a(S'w'
I1
tp622
a(S'p2_ll'
I29
tp623
a(S'w'
I7
tp624
a(S'tr_tl'
I171
tp625
a(S'w'
I1
tp626
a(S'tr_ll'
I1
tp627
a(S'w'
I12
tp628
a(S'w'
I1
tp629
a(S'no_ll'
I5
tp630
a(S'w'
I692
tp631
a(S'p1_cv'
I1
tp632
a(S'p1_vo'
I9
tp633
a(S'w'
I2
tp634
a(S'p2_cv'
I1
tp635
a(S'p2_vo'
I9
tp636
a(S'w'
I5869
tp637
a(S'p1_vo'
I8
tp638
a(S'w'
I2
tp639
a(S'p2_vo'
I8
tp640
a(S'w'
I5141
tp641
a(S'p2_cv'
I0
tp642
a(S'p2_vo'
I0
tp643
a(S'w'
I3
tp644
a(S'p2_tl'
I58
tp645
a(S'w'
I1
tp646
a(S'p2_ll'
I15
tp647
a(S'p2_th'
I2
tp648
a(S'w'
I723
tp649
a(S'p1_vo'
I7
tp650
a(S'w'
I3
tp651
a(S'p2_cv'
I1
tp652
a(S'p2_vo'
I9
tp653
a(S'w'
I5137
tp654
a(S'p2_cv'
I0
tp655
a(S'p2_vo'
I0
tp656
a(S'w'
I3
tp657
a(S'w'
I1
tp658
a(S'p2_ll'
I15
tp659
a(S'w'
I10
tp660
a(S'tr_tl'
I58
tp661
a(S'tr_ll'
I1
tp662
a(S'tr_th'
I2
tp663
a(S'w'
I12
tp664
a(S'w'
I1
tp665
a(S'no_ll'
I5
tp666
a(S'w'
I703
tp667
a(S'p1_vo'
I6
tp668
a(S'w'
I2
tp669
a(S'p2_cv'
I1
tp670
a(S'p2_vo'
I9
tp671
a(S'w'
I5138
tp672
a(S'p2_cv'
I0
tp673
a(S'p2_vo'
I0
tp674
a(S'w'
I3
tp675
a(S'p2_tl'
I252
tp676
a(S'w'
I1
tp677
a(S'p2_ll'
I15
tp678
a(S'p2_th'
I1
tp679
a(S'w'
I727
tp680
a(S'p1_vo'
I5
tp681
a(S'w'
I2
tp682
a(S'p2_cv'
I1
tp683
a(S'p2_vo'
I9
tp684
a(S'w'
I5137
tp685
a(S'p2_cv'
I0
tp686
a(S'p2_vo'
I0
tp687
a(S'w'
I3
tp688
a(S'p2_tl'
I196
tp689
a(S'w'
I1
tp690
a(S'p2_ll'
I15
tp691
a(S'w'
I727
tp692
a(S'p1_vo'
I4
tp693
a(S'w'
I3
tp694
a(S'p2_cv'
I1
tp695
a(S'p2_vo'
I9
tp696
a(S'w'
I5135
tp697
a(S'p1_cv'
I0
tp698
a(S'p1_vo'
I0
tp699
a(S'w'
I4
tp700
a(S'p1_tl'
I213
tp701
a(S'p1_ll'
I6
tp702
a(S'w'
I10
tp703
a(S'p2_cv'
I0
tp704
a(S'p2_vo'
I0
tp705
a(S'w'
I3
tp706
a(S'p2_tl'
I29
tp707
a(S'p2_ll'
I6
tp708
a(S'w'
I8
tp709
a(S'tr_lr'
I127
tp710
a(S'w'
I3
tp711
a(S'tr_tl'
I171
tp712
a(S'w'
I1
tp713
a(S'tr_ll'
I1
tp714
a(S'tr_th'
I1
tp715
a(S'w'
I11
tp716
a(S'no_ll'
I5
tp717
a(S'w'
I692
tp718
a(S'p1_cv'
I1
tp719
a(S'p1_vo'
I9
tp720
a(S'w'
I2
tp721
a(S'p2_cv'
I1
tp722
a(S'p2_vo'
I9
tp723
a(S'w'
I5869
tp724
a(S'p1_vo'
I8
tp725
a(S'w'
I2
tp726
a(S'p2_vo'
I8
tp727
a(S'w'
I5868
tp728
a(S'p1_vo'
I7
tp729
a(S'w'
I3
tp730
a(S'p2_vo'
I7
tp731
a(S'w'
I5867
tp732
a(S'p1_vo'
I6
tp733
a(S'w'
I2
tp734
a(S'p2_vo'
I6
tp735
a(S'w'
I5869
tp736
a(S'p1_vo'
I5
tp737
a(S'w'
I2
tp738
a(S'p2_vo'
I5
tp739
a(S'w'
I5868
tp740
a(S'p1_vo'
I4
tp741
a(S'w'
I3
tp742
a(S'p2_vo'
I4
tp743
a(S'w'
I6600
tp744
a(S'p1_vo'
I3
tp745
a(S'w'
I2
tp746
a(S'p2_vo'
I3
tp747
a(S'w'
I5868
tp748
a(S'p1_vo'
I2
tp749
a(S'w'
I2
tp750
a(S'p2_vo'
I2
tp751
a(S'w'
I5869
tp752
a(S'p1_vo'
I1
tp753
a(S'w'
I2
tp754
a(S'p2_vo'
I1
tp755
a(S'w'
I5868
tp756
a(S'p1_vo'
I0
tp757
a(S'w'
I2
tp758
a(S'p2_vo'
I0
tp759
a(S'w'
I24772
tp760
a.