(lp1
(S'clock'
p2
I1789772
tp3
a(S'tr_ll'
I3
tp4
a(S'p1_cv'
I1
tp5
a(S'p2_cv'
I1
tp6
a(S'ch_no'
I1
tp7
a(S'ch_tr'
I1
tp8
a(S'ch_p2'
I1
tp9
a(S'ch_p1'
I1
tp10
a(S'w'
I8
tp11
a(S'no_cv'
I1
tp12
a(S'p1_ll'
I3
tp13
a(S'p2_ll'
I3
tp14
a(S'tr_ll'
I3
tp15
a(S'no_ll'
I3
tp16
a(S'w'
I2
tp17
a(S'p1_du'
I2
tp18
a(S'w'
I2
tp19
a(S'p2_du'
I2
tp20
a(S'w'
I7
tp21
a(S'p1_cv'
I0
tp22
a(S'w'
I4
tp23
a(S'p1_tl'
I127
tp24
a(S'w'
I1
tp25
a(S'p1_ll'
I19
tp26
a(S'w'
I11
tp27
a(S'p2_cv'
I0
tp28
a(S'w'
I4
tp29
a(S'p2_tl'
I169
tp30
a(S'p2_ll'
I30
tp31
a(S'w'
I7
tp32
a(S'tr_lr'
I95
tp33
a(S'w'
I4
tp34
a(S'tr_tl'
I171
tp35
a(S'tr_ll'
I1
tp36
a(S'tr_th'
I1
tp37
a(S'w'
I16
tp38
a(S'no_cv'
I0
tp39
a(S'w'
I1
tp40
a(S'no_np'
I3
tp41
a(S'w'
I1
tp42
a(S'no_ll'
I4
tp43
a(S'w'
I670
tp44
a(S'p1_cv'
I1
tp45
a(S'p1_vo'
I9
tp46
a(S'w'
I2
tp47
a(S'p2_cv'
I1
tp48
a(S'p2_vo'
I9
tp49
a(S'w'
I5869
tp50
a(S'p1_vo'
I8
tp51
a(S'w'
I3
tp52
a(S'p2_vo'
I8
tp53
a(S'w'
I731
tp54
a(S'p1_cv'
I0
tp55
a(S'p1_vo'
I0
tp56
a(S'w'
I4
tp57
a(S'p1_tl'
I142
tp58
a(S'p1_ll'
I19
tp59
a(S'w'
I729
tp60
a(S'p1_cv'
I1
tp61
a(S'p1_vo'
I9
tp62
a(S'w'
I4405
tp63
a(S'p2_vo'
I7
tp64
a(S'w'
I1466
tp65
a(S'p1_vo'
I8
tp66
a(S'w'
I734
tp67
a(S'p1_cv'
I0
tp68
a(S'p1_vo'
I0
tp69
a(S'w'
I4
tp70
a(S'p1_tl'
I127
tp71
a(S'p1_ll'
I19
tp72
a(S'w'
I8
tp73
a(S'p2_cv'
I0
tp74
a(S'p2_vo'
I0
tp75
a(S'w'
I5
tp76
a(S'p2_ll'
I19
tp77
a(S'w'
I11
tp78
a(S'no_np'
I1
tp79
a(S'no_ll'
I5
tp80
a(S'w'
I705
tp81
a(S'p1_cv'
I1
tp82
a(S'p1_vo'
I9
tp83
a(S'w'
I2
tp84
a(S'p2_cv'
I1
tp85
a(S'p2_vo'
I9
tp86
a(S'w'
I5868
tp87
a(S'p1_vo'
I8
tp88
a(S'w'
I3
tp89
a(S'p2_vo'
I8
tp90
a(S'w'
I736
tp91
a(S'p1_cv'
I0
tp92
a(S'p1_vo'
I0
tp93
a(S'w'
I4
tp94
a(S'p1_tl'
I106
tp95
a(S'w'
I1
tp96
a(S'p1_ll'
I11
tp97
a(S'w'
I8
tp98
a(S'p2_cv'
I0
tp99
a(S'p2_vo'
I0
tp100
a(S'w'
I4
tp101
a(S'p2_tl'
I142
tp102
a(S'p2_ll'
I11
tp103
a(S'w'
I8
tp104
a(S'tr_tl'
I83
tp105
a(S'w'
I1
tp106
a(S'tr_ll'
I1
tp107
a(S'w'
I12
tp108
a(S'no_np'
I3
tp109
a(S'w'
I1
tp110
a(S'no_ll'
I4
tp111
a(S'w'
I690
tp112
a(S'p1_cv'
I1
tp113
a(S'p1_vo'
I9
tp114
a(S'w'
I3
tp115
a(S'p2_cv'
I1
tp116
a(S'p2_vo'
I9
tp117
a(S'w'
I6601
tp118
a(S'p1_vo'
I8
tp119
a(S'w'
I2
tp120
a(S'p2_vo'
I8
tp121
a(S'w'
I5869
tp122
a(S'p1_vo'
I7
tp123
a(S'w'
I2
tp124
a(S'p2_vo'
I7
tp125
a(S'w'
I1472
tp126
a(S'p1_cv'
I0
tp127
a(S'p1_vo'
I0
tp128
a(S'w'
I5
tp129
a(S'p1_tl'
I95
tp130
a(S'w'
I1
tp131
a(S'p1_ll'
I30
tp132
a(S'w'
I10
tp133
a(S'p2_cv'
I0
tp134
a(S'p2_vo'
I0
tp135
a(S'w'
I5
tp136
a(S'p2_tl'
I127
tp137
a(S'p2_ll'
I30
tp138
a(S'w'
I11
tp139
a(S'no_np'
I1
tp140
a(S'w'
I1
tp141
a(S'no_ll'
I5
tp142
a(S'w'
I694
tp143
a(S'p1_cv'
I1
tp144
a(S'p1_vo'
I9
tp145
a(S'w'
I2
tp146
a(S'p2_cv'
I1
tp147
a(S'p2_vo'
I9
tp148
a(S'w'
I5868
tp149
a(S'p1_vo'
I8
tp150
a(S'w'
I3
tp151
a(S'p2_vo'
I8
tp152
a(S'w'
I740
tp153
a(S'tr_lr'
I15
tp154
a(S'w'
I4
tp155
a(S'tr_tl'
I169
tp156
a(S'w'
I1
tp157
a(S'tr_ll'
I1
tp158
a(S'tr_th'
I0
tp159
a(S'w'
I6
tp160
a(S'no_np'
I3
tp161
a(S'no_ll'
I4
tp162
a(S'w'
I3659
tp163
a(S'tr_tl'
I213
tp164
a(S'w'
I1
tp165
a(S'tr_ll'
I1
tp166
a(S'w'
I1457
tp167
a(S'p1_vo'
I7
tp168
a(S'w'
I2
tp169
a(S'p2_vo'
I7
tp170
a(S'w'
I2204
tp171
a(S'p1_cv'
I0
tp172
a(S'p1_vo'
I0
tp173
a(S'w'
I4
tp174
a(S'p1_tl'
I84
tp175
a(S'w'
I1
tp176
a(S'p1_ll'
I19
tp177
a(S'w'
I8
tp178
a(S'p2_cv'
I0
tp179
a(S'p2_vo'
I0
tp180
a(S'w'
I5
tp181
a(S'p2_tl'
I106
tp182
a(S'p2_ll'
I19
tp183
a(S'w'
I7
tp184
a(S'tr_lr'
I31
tp185
a(S'w'
I4
tp186
a(S'tr_tl'
I29
tp187
a(S'tr_ll'
I1
tp188
a(S'tr_th'
I1
tp189
a(S'w'
I21
tp190
a(S'no_ll'
I4
tp191
a(S'w'
I679
tp192
a(S'p1_cv'
I1
tp193
a(S'p1_vo'
I9
tp194
a(S'w'
I2
tp195
a(S'p2_cv'
I1
tp196
a(S'p2_vo'
I9
tp197
a(S'w'
I5868
tp198
a(S'p1_vo'
I8
tp199
a(S'w'
I3
tp200
a(S'p2_vo'
I8
tp201
a(S'w'
I732
tp202
a(S'p1_cv'
I0
tp203
a(S'p1_vo'
I0
tp204
a(S'w'
I5
tp205
a(S'p1_tl'
I95
tp206
a(S'p1_ll'
I19
tp207
a(S'w'
I4
tp208
a(S'p2_cv'
I0
tp209
a(S'p2_vo'
I0
tp210
a(S'w'
I4
tp211
a(S'p2_tl'
I127
tp212
a(S'w'
I1
tp213
a(S'p2_ll'
I19
tp214
a(S'w'
I7
tp215
a(S'tr_lr'
I95
tp216
a(S'w'
I3
tp217
a(S'tr_tl'
I64
tp218
a(S'w'
I1
tp219
a(S'tr_ll'
I1
tp220
a(S'w'
I708
tp221
a(S'p1_cv'
I1
tp222
a(S'p1_vo'
I9
tp223
a(S'w'
I3
tp224
a(S'p2_cv'
I1
tp225
a(S'p2_vo'
I9
tp226
a(S'w'
I5867
tp227
a(S'p1_vo'
I8
tp228
a(S'w'
I2
tp229
a(S'p2_vo'
I8
tp230
a(S'w'
I745
tp231
a(S'no_np'
I1
tp232
a(S'w'
I1
tp233
a(S'no_ll'
I5
tp234
a(S'w'
I5856
tp235
a(S'p1_vo'
I7
tp236
a(S'w'
I3
tp237
a(S'p2_vo'
I7
tp238
a(S'w'
I1466
tp239
a(S'p1_cv'
I0
tp240
a(S'p1_vo'
I0
tp241
a(S'w'
I5
tp242
a(S'p1_ll'
I19
tp243
a(S'w'
I4
tp244
a(S'p2_cv'
I0
tp245
a(S'p2_vo'
I0
tp246
a(S'w'
I4
tp247
a(S'w'
I1
tp248
a(S'p2_ll'
I19
tp249
a(S'w'
I14
tp250
a(S'no_np'
I3
tp251
a(S'no_ll'
I4
tp252
a(S'w'
I704
tp253
a(S'p1_cv'
I1
tp254
a(S'p1_vo'
I9
tp255
a(S'w'
I3
tp256
a(S'p2_cv'
I1
tp257
a(S'p2_vo'
I9
tp258
a(S'w'
I5868
tp259
a(S'p1_vo'
I8
tp260
a(S'w'
I3
tp261
a(S'p2_vo'
I8
tp262
a(S'w'
I732
tp263
a(S'p1_cv'
I0
tp264
a(S'p1_vo'
I0
tp265
a(S'w'
I5
tp266
a(S'p1_tl'
I106
tp267
a(S'p1_ll'
I19
tp268
a(S'w'
I11
tp269
a(S'p2_cv'
I0
tp270
a(S'p2_vo'
I0
tp271
a(S'w'
I4
tp272
a(S'p2_tl'
I160
tp273
a(S'p2_ll'
I30
tp274
a(S'w'
I7
tp275
a(S'tr_lr'
I63
tp276
a(S'w'
I4
tp277
a(S'tr_tl'
I254
tp278
a(S'tr_ll'
I1
tp279
a(S'tr_th'
I0
tp280
a(S'w'
I701
tp281
a(S'p1_cv'
I1
tp282
a(S'p1_vo'
I9
tp283
a(S'w'
I2
tp284
a(S'p2_cv'
I1
tp285
a(S'p2_vo'
I9
tp286
a(S'w'
I5869
tp287
a(S'p1_vo'
I8
tp288
a(S'w'
I2
tp289
a(S'p2_vo'
I8
tp290
a(S'w'
I738
tp291
a(S'p1_cv'
I0
tp292
a(S'p1_vo'
I0
tp293
a(S'w'
I5
tp294
a(S'p1_tl'
I127
tp295
a(S'p1_ll'
I10
tp296
a(S'w'
I14
tp297
a(S'no_np'
I1
tp298
a(S'no_ll'
I5
tp299
a(S'w'
I708
tp300
a(S'p1_cv'
I1
tp301
a(S'p1_vo'
I9
tp302
a(S'w'
I4406
tp303
a(S'p2_vo'
I7
tp304
a(S'w'
I1465
tp305
a(S'p1_vo'
I8
tp306
a(S'w'
I740
tp307
a(S'p2_cv'
I0
tp308
a(S'p2_vo'
I0
tp309
a(S'w'
I4
tp310
a(S'w'
I1
tp311
a(S'p2_ll'
I19
tp312
a(S'w'
I7
tp313
a(S'tr_lr'
I31
tp314
a(S'w'
I4
tp315
a(S'tr_tl'
I213
tp316
a(S'w'
I1
tp317
a(S'tr_ll'
I1
tp318
a(S'w'
I5
tp319
a(S'no_np'
I3
tp320
a(S'w'
I1
tp321
a(S'no_ll'
I4
tp322
a(S'w'
I706
tp323
a(S'p2_cv'
I1
tp324
a(S'p2_vo'
I9
tp325
a(S'w'
I4401
tp326
a(S'p1_vo'
I7
tp327
a(S'w'
I1470
tp328
a(S'p2_vo'
I8
tp329
a(S'w'
I734
tp330
a(S'p2_cv'
I0
tp331
a(S'p2_vo'
I0
tp332
a(S'w'
I5
tp333
a(S'p2_tl'
I169
tp334
a(S'p2_ll'
I19
tp335
a(S'w'
I7
tp336
a(S'tr_lr'
I15
tp337
a(S'w'
I4
tp338
a(S'tr_tl'
I13
tp339
a(S'tr_ll'
I1
tp340
a(S'tr_th'
I1
tp341
a(S'w'
I18
tp342
a(S'no_ll'
I4
tp343
a(S'w'
I700
tp344
a(S'p2_cv'
I1
tp345
a(S'p2_vo'
I9
tp346
a(S'w'
I2932
tp347
a(S'p1_vo'
I6
tp348
a(S'w'
I10
tp349
a(S'tr_tl'
I254
tp350
a(S'tr_ll'
I1
tp351
a(S'tr_th'
I0
tp352
a(S'w'
I2927
tp353
a(S'p2_vo'
I8
tp354
a(S'w'
I735
tp355
a(S'p2_cv'
I0
tp356
a(S'p2_vo'
I0
tp357
a(S'w'
I5
tp358
a(S'p2_tl'
I190
tp359
a(S'p2_ll'
I19
tp360
a(S'w'
I7
tp361
a(S'tr_lr'
I31
tp362
a(S'w'
I4
tp363
a(S'tr_tl'
I213
tp364
a(S'w'
I1
tp365
a(S'tr_ll'
I1
tp366
a(S'w'
I717
tp367
a(S'p2_cv'
I1
tp368
a(S'p2_vo'
I9
tp369
a(S'w'
I1465
tp370
a(S'p1_vo'
I5
tp371
a(S'w'
I4404
tp372
a(S'p2_vo'
I8
tp373
a(S'w'
I745
tp374
a(S'tr_lr'
I95
tp375
a(S'w'
I4
tp376
a(S'tr_tl'
I29
tp377
a(S'tr_ll'
I1
tp378
a(S'tr_th'
I1
tp379
a(S'w'
I1451
tp380
a(S'p1_vo'
I4
tp381
a(S'w'
I4405
tp382
a(S'p2_vo'
I7
tp383
a(S'w'
I1470
tp384
a(S'p1_cv'
I0
tp385
a(S'p1_vo'
I0
tp386
a(S'w'
I4
tp387
a(S'p1_tl'
I113
tp388
a(S'p1_ll'
I11
tp389
a(S'w'
I4
tp390
a(S'p2_cv'
I0
tp391
a(S'p2_vo'
I0
tp392
a(S'w'
I5
tp393
a(S'p2_tl'
I160
tp394
a(S'p2_ll'
I19
tp395
a(S'w'
I716
tp396
a(S'p1_cv'
I1
tp397
a(S'p1_vo'
I9
tp398
a(S'w'
I3
tp399
a(S'p2_cv'
I1
tp400
a(S'p2_vo'
I9
tp401
a(S'w'
I2933
tp402
a(S'p1_cv'
I0
tp403
a(S'p1_vo'
I0
tp404
a(S'w'
I4
tp405
a(S'p1_tl'
I119
tp406
a(S'p1_ll'
I11
tp407
a(S'w'
I729
tp408
a(S'p1_cv'
I1
tp409
a(S'p1_vo'
I9
tp410
a(S'w'
I2203
tp411
a(S'p2_vo'
I8
tp412
a(S'w'
I737
tp413
a(S'p1_cv'
I0
tp414
a(S'p1_vo'
I0
tp415
a(S'w'
I4
tp416
a(S'p1_tl'
I113
tp417
a(S'p1_ll'
I19
tp418
a(S'w'
I4
tp419
a(S'p2_cv'
I0
tp420
a(S'p2_vo'
I0
tp421
a(S'w'
I5
tp422
a(S'p2_tl'
I142
tp423
a(S'p2_ll'
I19
tp424
a(S'w'
I716
tp425
a(S'p1_cv'
I1
tp426
a(S'p1_vo'
I9
tp427
a(S'w'
I2
tp428
a(S'p2_cv'
I1
tp429
a(S'p2_vo'
I9
tp430
a(S'w'
I5868
tp431
a(S'p1_vo'
I8
tp432
a(S'w'
I3
tp433
a(S'p2_vo'
I8
tp434
a(S'w'
I736
tp435
a(S'p1_cv'
I0
tp436
a(S'p1_vo'
I0
tp437
a(S'w'
I4
tp438
a(S'p1_tl'
I95
tp439
a(S'w'
I1
tp440
a(S'p1_ll'
I11
tp441
a(S'w'
I8
tp442
a(S'p2_cv'
I0
tp443
a(S'p2_vo'
I0
tp444
a(S'w'
I4
tp445
a(S'p2_tl'
I113
tp446
a(S'p2_ll'
I11
tp447
a(S'w'
I8
tp448
a(S'tr_lr'
I63
tp449
a(S'w'
I3
tp450
a(S'tr_tl'
I226
tp451
a(S'w'
I1
tp452
a(S'tr_ll'
I1
tp453
a(S'tr_th'
I0
tp454
a(S'w'
I9
tp455
a(S'w'
I1
tp456
a(S'no_ll'
I4
tp457
a(S'w'
I690
tp458
a(S'p1_cv'
I1
tp459
a(S'p1_vo'
I9
tp460
a(S'w'
I3
tp461
a(S'p2_cv'
I1
tp462
a(S'p2_vo'
I9
tp463
a(S'w'
I2947
tp464
a(S'w'
I1
tp465
a(S'no_ll'
I4
tp466
a(S'w'
I3653
tp467
a(S'p1_vo'
I8
tp468
a(S'w'
I3
tp469
a(S'p2_vo'
I8
tp470
a(S'w'
I10
tp471
a(S'w'
I1
tp472
a(S'no_ll'
I4
tp473
a(S'w'
I5856
tp474
a(S'p1_vo'
I7
tp475
a(S'w'
I2
tp476
a(S'p2_vo'
I7
tp477
a(S'w'
I1471
tp478
a(S'p1_cv'
I0
tp479
a(S'p1_vo'
I0
tp480
a(S'w'
I4
tp481
a(S'p1_tl'
I142
tp482
a(S'p1_ll'
I11
tp483
a(S'w'
I8
tp484
a(S'p2_cv'
I0
tp485
a(S'p2_vo'
I0
tp486
a(S'w'
I4
tp487
a(S'p2_tl'
I190
tp488
a(S'w'
I1
tp489
a(S'p2_ll'
I19
tp490
a(S'w'
I10
tp491
a(S'no_ll'
I4
tp492
a(S'w'
I702
tp493
a(S'p1_cv'
I1
tp494
a(S'p1_vo'
I9
tp495
a(S'w'
I2
tp496
a(S'p2_cv'
I1
tp497
a(S'p2_vo'
I9
tp498
a(S'w'
I2934
tp499
a(S'p1_cv'
I0
tp500
a(S'p1_vo'
I0
tp501
a(S'w'
I4
tp502
a(S'p1_tl'
I113
tp503
a(S'p1_ll'
I11
tp504
a(S'w'
I7
tp505
a(S'tr_lr'
I15
tp506
a(S'w'
I4
tp507
a(S'tr_tl'
I160
tp508
a(S'w'
I1
tp509
a(S'tr_ll'
I1
tp510
a(S'w'
I717
tp511
a(S'p1_cv'
I1
tp512
a(S'p1_vo'
I9
tp513
a(S'w'
I2204
tp514
a(S'p2_vo'
I8
tp515
a(S'w'
I732
tp516
a(S'p1_cv'
I0
tp517
a(S'p1_vo'
I0
tp518
a(S'w'
I5
tp519
a(S'p1_tl'
I95
tp520
a(S'p1_ll'
I11
tp521
a(S'w'
I8
tp522
a(S'p2_cv'
I0
tp523
a(S'p2_vo'
I0
tp524
a(S'w'
I4
tp525
a(S'p2_tl'
I142
tp526
a(S'w'
I1
tp527
a(S'p2_ll'
I11
tp528
a(S'w'
I8
tp529
a(S'tr_tl'
I113
tp530
a(S'tr_ll'
I1
tp531
a(S'w'
I10
tp532
a(S'w'
I1
tp533
a(S'no_ll'
I4
tp534
a(S'w'
I695
tp535
a(S'p1_cv'
I1
tp536
a(S'p1_vo'
I9
tp537
a(S'w'
I2
tp538
a(S'p2_cv'
I1
tp539
a(S'p2_vo'
I9
tp540
a(S'w'
I2945
tp541
a(S'tr_tl'
I190
tp542
a(S'tr_ll'
I1
tp543
a(S'w'
I4
tp544
a(S'no_ll'
I4
tp545
a(S'w'
I3655
tp546
a(S'p1_cv'
I0
tp547
a(S'p1_vo'
I0
tp548
a(S'w'
I5
tp549
a(S'p1_tl'
I71
tp550
a(S'p1_ll'
I11
tp551
a(S'w'
I4
tp552
a(S'p2_cv'
I0
tp553
a(S'p2_vo'
I0
tp554
a(S'w'
I4
tp555
a(S'p2_tl'
I113
tp556
a(S'w'
I1
tp557
a(S'p2_ll'
I11
tp558
a(S'w'
I7
tp559
a(S'tr_lr'
I31
tp560
a(S'w'
I3
tp561
a(S'tr_tl'
I29
tp562
a(S'w'
I1
tp563
a(S'tr_ll'
I1
tp564
a(S'tr_th'
I1
tp565
a(S'w'
I10
tp566
a(S'no_ll'
I4
tp567
a(S'w'
I697
tp568
a(S'p1_cv'
I1
tp569
a(S'p1_vo'
I9
tp570
a(S'w'
I3
tp571
a(S'p2_cv'
I1
tp572
a(S'p2_vo'
I9
tp573
a(S'w'
I6603
tp574
a(S'p1_cv'
I0
tp575
a(S'p1_vo'
I0
tp576
a(S'w'
I5
tp577
a(S'p1_tl'
I106
tp578
a(S'p1_ll'
I11
tp579
a(S'w'
I4
tp580
a(S'p2_cv'
I0
tp581
a(S'p2_vo'
I0
tp582
a(S'w'
I4
tp583
a(S'p2_tl'
I169
tp584
a(S'w'
I1
tp585
a(S'p2_ll'
I11
tp586
a(S'w'
I7
tp587
a(S'tr_tl'
I171
tp588
a(S'w'
I1
tp589
a(S'tr_ll'
I1
tp590
a(S'w'
I4
tp591
a(S'no_ll'
I4
tp592
a(S'w'
I706
tp593
a(S'p1_cv'
I1
tp594
a(S'p1_vo'
I9
tp595
a(S'w'
I3
tp596
a(S'p2_cv'
I1
tp597
a(S'p2_vo'
I9
tp598
a(S'w'
I2933
tp599
a(S'p1_cv'
I0
tp600
a(S'p1_vo'
I0
tp601
a(S'w'
I5
tp602
a(S'p1_ll'
I11
tp603
a(S'w'
I4
tp604
a(S'p2_cv'
I0
tp605
a(S'p2_vo'
I0
tp606
a(S'w'
I4
tp607
a(S'p2_tl'
I142
tp608
a(S'w'
I1
tp609
a(S'p2_ll'
I11
tp610
a(S'w'
I719
tp611
a(S'p1_cv'
I1
tp612
a(S'p1_vo'
I9
tp613
a(S'w'
I2
tp614
a(S'p2_cv'
I1
tp615
a(S'p2_vo'
I9
tp616
a(S'w'
I2938
tp617
a(S'p1_cv'
I0
tp618
a(S'p1_vo'
I0
tp619
a(S'w'
I4
tp620
a(S'p1_tl'
I84
tp621
a(S'w'
I1
tp622
a(S'p1_ll'
I19
tp623
a(S'w'
I8
tp624
a(S'p2_cv'
I0
tp625
a(S'p2_vo'
I0
tp626
a(S'w'
I5
tp627
a(S'p2_tl'
I106
tp628
a(S'p2_ll'
I19
tp629
a(S'w'
I8
tp630
a(S'tr_ll'
I1
tp631
a(S'w'
I11
tp632
a(S'w'
I1
tp633
a(S'no_ll'
I4
tp634
a(S'w'
I691
tp635
a(S'p1_cv'
I1
tp636
a(S'p1_vo'
I9
tp637
a(S'w'
I2
tp638
a(S'p2_cv'
I1
tp639
a(S'p2_vo'
I9
tp640
a(S'w'
I5869
tp641
a(S'p1_vo'
I8
tp642
a(S'w'
I2
tp643
a(S'p2_vo'
I8
tp644
a(S'w'
I732
tp645
a(S'p1_cv'
I0
tp646
a(S'p1_vo'
I0
tp647
a(S'w'
I5
tp648
a(S'p1_tl'
I71
tp649
a(S'p1_ll'
I19
tp650
a(S'w'
I4
tp651
a(S'p2_cv'
I0
tp652
a(S'p2_vo'
I0
tp653
a(S'w'
I5
tp654
a(S'p2_tl'
I84
tp655
a(S'p2_ll'
I19
tp656
a(S'w'
I8
tp657
a(S'tr_ll'
I1
tp658
a(S'w'
I711
tp659
a(S'p1_cv'
I1
tp660
a(S'p1_vo'
I9
tp661
a(S'w'
I3
tp662
a(S'p2_cv'
I1
tp663
a(S'p2_vo'
I9
tp664
a(S'w'
I5867
tp665
a(S'p1_vo'
I8
tp666
a(S'w'
I2
tp667
a(S'p2_vo'
I8
tp668
a(S'w'
I733
tp669
a(S'p1_cv'
I0
tp670
a(S'p1_vo'
I0
tp671
a(S'w'
I5
tp672
a(S'p1_tl'
I53
tp673
a(S'w'
I1
tp674
a(S'p1_ll'
I19
tp675
a(S'w'
I4
tp676
a(S'p2_cv'
I0
tp677
a(S'p2_vo'
I0
tp678
a(S'w'
I5
tp679
a(S'p2_ll'
I19
tp680
a(S'w'
I8
tp681
a(S'tr_tl'
I213
tp682
a(S'w'
I1
tp683
a(S'tr_ll'
I1
tp684
a(S'tr_th'
I0
tp685
a(S'w'
I709
tp686
a(S'p1_cv'
I1
tp687
a(S'p1_vo'
I9
tp688
a(S'w'
I2
tp689
a(S'p2_cv'
I1
tp690
a(S'p2_vo'
I9
tp691
a(S'w'
I5868
tp692
a(S'p1_vo'
I8
tp693
a(S'w'
I3
tp694
a(S'p2_vo'
I8
tp695
a(S'w'
I6602
tp696
a(S'p1_vo'
I7
tp697
a(S'w'
I3
tp698
a(S'p2_vo'
I7
tp699
a(S'w'
I5867
tp700
a(S'p1_vo'
I6
tp701
a(S'w'
I2
tp702
a(S'p2_vo'
I6
tp703
a(S'w'
I5868
tp704
a(S'p1_vo'
I5
tp705
a(S'w'
I3
tp706
a(S'p2_vo'
I5
tp707
a(S'w'
I5868
tp708
a(S'p1_vo'
I4
tp709
a(S'w'
I3
tp710
a(S'p2_vo'
I4
tp711
a(S'w'
I6600
tp712
a(S'p1_vo'
I3
tp713
a(S'w'
I2
tp714
a(S'p2_vo'
I3
tp715
a(S'w'
I5868
tp716
a(S'p1_vo'
I2
tp717
a(S'w'
I2
tp718
a(S'p2_vo'
I2
tp719
a(S'w'
I5868
tp720
a(S'p1_vo'
I1
tp721
a(S'w'
I2
tp722
a(S'p2_vo'
I1
tp723
a(S'w'
I4611
tp724
a.