(lp1
(S'clock'
p2
I1789772
tp3
a(S'ch_no'
I1
tp4
a(S'ch_tr'
I1
tp5
a(S'ch_p2'
I1
tp6
a(S'ch_p1'
I1
tp7
a(S'w'
I1
tp8
a(S'fc_mo'
I1
tp9
a(S'w'
I13
tp10
a(S'p2_cv'
I1
tp11
a(S'p1_cv'
I1
tp12
a(S'no_cv'
I1
tp13
a(S'w'
I8
tp14
a(S'p2_tl'
I171
tp15
a(S'p2_ll'
I1
tp16
a(S'p2_th'
I1
tp17
a(S'w'
I3
tp18
a(S'p2_tl'
I170
tp19
a(S'w'
I1
tp20
a(S'p2_du'
I3
tp21
a(S'p2_vo'
I6
tp22
a(S'p2_sp'
I7
tp23
a(S'p2_sn'
I1
tp24
a(S'p2_ss'
I7
tp25
a(S'w'
I3
tp26
a(S'p1_tl'
I58
tp27
a(S'w'
I1
tp28
a(S'p1_ll'
I1
tp29
a(S'p1_th'
I2
tp30
a(S'w'
I3
tp31
a(S'p1_tl'
I57
tp32
a(S'w'
I1
tp33
a(S'p1_du'
I3
tp34
a(S'p1_vo'
I6
tp35
a(S'p1_sp'
I7
tp36
a(S'p1_sn'
I1
tp37
a(S'p1_ss'
I7
tp38
a(S'w'
I3
tp39
a(S'tr_lh'
I1
tp40
a(S'tr_lr'
I1
tp41
a(S'w'
I1
tp42
a(S'tr_tl'
I171
tp43
a(S'tr_ll'
I1
tp44
a(S'tr_th'
I1
tp45
a(S'w'
I697
tp46
a(S'fc_mo'
I1
tp47
a(S'ch_no'
I1
tp48
a(S'ch_tr'
I1
tp49
a(S'ch_p2'
I1
tp50
a(S'ch_p1'
I1
tp51
a(S'w'
I15
tp52
a(S'w'
I4
tp53
a(S'w'
I730
tp54
a(S'w'
I4
tp55
a(S'w'
I730
tp56
a(S'p2_tl'
I172
tp57
a(S'w'
I4
tp58
a(S'p1_tl'
I59
tp59
a(S'w'
I730
tp60
a(S'w'
I1
tp61
a(S'p2_vo'
I5
tp62
a(S'w'
I3
tp63
a(S'w'
I1
tp64
a(S'p1_vo'
I5
tp65
a(S'w'
I728
tp66
a(S'w'
I4
tp67
a(S'w'
I730
tp68
a(S'w'
I4
tp69
a(S'w'
I730
tp70
a(S'p2_tl'
I170
tp71
a(S'w'
I4
tp72
a(S'p1_tl'
I57
tp73
a(S'w'
I730
tp74
a(S'w'
I4
tp75
a(S'w'
I3
tp76
a(S'tr_lh'
I0
tp77
a(S'tr_lr'
I0
tp78
a(S'w'
I726
tp79
a(S'p2_du'
I0
tp80
a(S'p2_vo'
I0
tp81
a(S'w'
I2
tp82
a(S'p1_du'
I0
tp83
a(S'p1_vo'
I0
tp84
a(S'w'
I731
tp85
a(S'p2_tl'
I171
tp86
a(S'w'
I1
tp87
a(S'p2_ll'
I1
tp88
a(S'w'
I3
tp89
a(S'p2_tl'
I170
tp90
a(S'w'
I1
tp91
a(S'p2_du'
I3
tp92
a(S'p2_vo'
I6
tp93
a(S'w'
I2
tp94
a(S'p1_tl'
I58
tp95
a(S'p1_ll'
I1
tp96
a(S'w'
I3
tp97
a(S'p1_tl'
I57
tp98
a(S'w'
I1
tp99
a(S'p1_du'
I3
tp100
a(S'p1_vo'
I6
tp101
a(S'w'
I2
tp102
a(S'tr_lh'
I1
tp103
a(S'tr_lr'
I1
tp104
a(S'w'
I1
tp105
a(S'tr_ll'
I1
tp106
a(S'w'
I721
tp107
a(S'w'
I4
tp108
a(S'w'
I730
tp109
a(S'w'
I4
tp110
a(S'w'
I730
tp111
a(S'p2_tl'
I172
tp112
a(S'w'
I4
tp113
a(S'p1_tl'
I59
tp114
a(S'w'
I730
tp115
a(S'w'
I1
tp116
a(S'p2_vo'
I5
tp117
a(S'w'
I3
tp118
a(S'w'
I1
tp119
a(S'p1_vo'
I5
tp120
a(S'w'
I728
tp121
a(S'w'
I4
tp122
a(S'w'
I730
tp123
a(S'w'
I4
tp124
a(S'w'
I730
tp125
a(S'p2_tl'
I170
tp126
a(S'w'
I4
tp127
a(S'p1_tl'
I57
tp128
a(S'w'
I730
tp129
a(S'w'
I4
tp130
a(S'w'
I3
tp131
a(S'tr_lh'
I0
tp132
a(S'tr_lr'
I0
tp133
a(S'w'
I726
tp134
a(S'p2_du'
I0
tp135
a(S'p2_vo'
I0
tp136
a(S'w'
I2
tp137
a(S'p1_du'
I0
tp138
a(S'p1_vo'
I0
tp139
a(S'w'
I731
tp140
a(S'p2_tl'
I124
tp141
a(S'w'
I1
tp142
a(S'p2_ll'
I1
tp143
a(S'w'
I2
tp144
a(S'p2_tl'
I123
tp145
a(S'w'
I2
tp146
a(S'p2_du'
I3
tp147
a(S'p2_vo'
I6
tp148
a(S'w'
I2
tp149
a(S'p1_tl'
I58
tp150
a(S'p1_ll'
I1
tp151
a(S'w'
I3
tp152
a(S'p1_tl'
I57
tp153
a(S'w'
I1
tp154
a(S'p1_du'
I3
tp155
a(S'p1_vo'
I6
tp156
a(S'w'
I2
tp157
a(S'tr_lh'
I1
tp158
a(S'tr_lr'
I1
tp159
a(S'w'
I1
tp160
a(S'tr_ll'
I1
tp161
a(S'w'
I721
tp162
a(S'w'
I4
tp163
a(S'w'
I730
tp164
a(S'w'
I4
tp165
a(S'w'
I730
tp166
a(S'p2_tl'
I125
tp167
a(S'w'
I4
tp168
a(S'p1_tl'
I59
tp169
a(S'w'
I730
tp170
a(S'w'
I1
tp171
a(S'p2_vo'
I5
tp172
a(S'w'
I3
tp173
a(S'w'
I1
tp174
a(S'p1_vo'
I5
tp175
a(S'w'
I728
tp176
a(S'w'
I4
tp177
a(S'w'
I730
tp178
a(S'w'
I4
tp179
a(S'w'
I730
tp180
a(S'p2_tl'
I123
tp181
a(S'w'
I4
tp182
a(S'p1_tl'
I57
tp183
a(S'w'
I730
tp184
a(S'w'
I4
tp185
a(S'w'
I3
tp186
a(S'tr_lh'
I0
tp187
a(S'tr_lr'
I0
tp188
a(S'w'
I725
tp189
a(S'p2_du'
I0
tp190
a(S'p2_vo'
I0
tp191
a(S'w'
I2
tp192
a(S'p1_du'
I0
tp193
a(S'p1_vo'
I0
tp194
a(S'w'
I732
tp195
a(S'p2_tl'
I171
tp196
a(S'w'
I1
tp197
a(S'p2_ll'
I1
tp198
a(S'w'
I3
tp199
a(S'p2_tl'
I170
tp200
a(S'w'
I1
tp201
a(S'p2_du'
I3
tp202
a(S'p2_vo'
I6
tp203
a(S'w'
I2
tp204
a(S'p1_tl'
I58
tp205
a(S'p1_ll'
I1
tp206
a(S'w'
I3
tp207
a(S'p1_tl'
I57
tp208
a(S'w'
I1
tp209
a(S'p1_du'
I3
tp210
a(S'p1_vo'
I6
tp211
a(S'w'
I2
tp212
a(S'tr_lh'
I1
tp213
a(S'tr_lr'
I1
tp214
a(S'w'
I1
tp215
a(S'tr_ll'
I1
tp216
a(S'w'
I721
tp217
a(S'w'
I4
tp218
a(S'w'
I730
tp219
a(S'w'
I4
tp220
a(S'w'
I730
tp221
a(S'p2_tl'
I172
tp222
a(S'w'
I4
tp223
a(S'p1_tl'
I59
tp224
a(S'w'
I729
tp225
a(S'w'
I1
tp226
a(S'p2_vo'
I5
tp227
a(S'w'
I3
tp228
a(S'w'
I1
tp229
a(S'p1_vo'
I5
tp230
a(S'w'
I729
tp231
a(S'w'
I4
tp232
a(S'w'
I730
tp233
a(S'w'
I4
tp234
a(S'w'
I730
tp235
a(S'p2_tl'
I170
tp236
a(S'w'
I4
tp237
a(S'p1_tl'
I57
tp238
a(S'w'
I730
tp239
a(S'w'
I4
tp240
a(S'w'
I3
tp241
a(S'tr_lh'
I0
tp242
a(S'tr_lr'
I0
tp243
a(S'w'
I725
tp244
a(S'p2_du'
I0
tp245
a(S'p2_vo'
I0
tp246
a(S'w'
I2
tp247
a(S'p1_du'
I0
tp248
a(S'p1_vo'
I0
tp249
a(S'w'
I739
tp250
a(S'tr_lh'
I1
tp251
a(S'tr_lr'
I1
tp252
a(S'w'
I1
tp253
a(S'tr_ll'
I1
tp254
a(S'w'
I5867
tp255
a(S'tr_lh'
I0
tp256
a(S'tr_lr'
I0
tp257
a(S'w'
I1464
tp258
a(S'p2_tl'
I82
tp259
a(S'w'
I1
tp260
a(S'p2_ll'
I1
tp261
a(S'w'
I3
tp262
a(S'p2_tl'
I83
tp263
a(S'w'
I1
tp264
a(S'p2_du'
I3
tp265
a(S'p2_vo'
I6
tp266
a(S'w'
I3
tp267
a(S'p1_tl'
I171
tp268
a(S'w'
I1
tp269
a(S'p1_ll'
I1
tp270
a(S'p1_th'
I1
tp271
a(S'w'
I2
tp272
a(S'p1_tl'
I172
tp273
a(S'w'
I2
tp274
a(S'p1_du'
I3
tp275
a(S'p1_vo'
I6
tp276
a(S'w'
I1
tp277
a(S'tr_lh'
I1
tp278
a(S'tr_lr'
I1
tp279
a(S'w'
I2
tp280
a(S'tr_ll'
I1
tp281
a(S'w'
I718
tp282
a(S'p2_tl'
I81
tp283
a(S'w'
I4
tp284
a(S'p1_tl'
I170
tp285
a(S'w'
I730
tp286
a(S'w'
I4
tp287
a(S'w'
I729
tp288
a(S'w'
I4
tp289
a(S'w'
I730
tp290
a(S'w'
I1
tp291
a(S'p2_vo'
I5
tp292
a(S'w'
I3
tp293
a(S'w'
I1
tp294
a(S'p1_vo'
I5
tp295
a(S'w'
I729
tp296
a(S'p2_tl'
I83
tp297
a(S'w'
I4
tp298
a(S'p1_tl'
I172
tp299
a(S'w'
I730
tp300
a(S'w'
I4
tp301
a(S'w'
I730
tp302
a(S'w'
I4
tp303
a(S'w'
I729
tp304
a(S'w'
I4
tp305
a(S'w'
I3
tp306
a(S'tr_lh'
I0
tp307
a(S'tr_lr'
I0
tp308
a(S'w'
I727
tp309
a(S'p2_tl'
I81
tp310
a(S'w'
I4
tp311
a(S'p1_tl'
I170
tp312
a(S'w'
I730
tp313
a(S'w'
I4
tp314
a(S'w'
I3
tp315
a(S'tr_lh'
I1
tp316
a(S'tr_lr'
I1
tp317
a(S'w'
I1
tp318
a(S'tr_ll'
I1
tp319
a(S'w'
I726
tp320
a(S'w'
I4
tp321
a(S'w'
I730
tp322
a(S'w'
I1
tp323
a(S'p2_vo'
I4
tp324
a(S'w'
I3
tp325
a(S'w'
I1
tp326
a(S'p1_vo'
I4
tp327
a(S'w'
I728
tp328
a(S'p2_tl'
I83
tp329
a(S'w'
I4
tp330
a(S'p1_tl'
I172
tp331
a(S'w'
I730
tp332
a(S'w'
I4
tp333
a(S'w'
I730
tp334
a(S'w'
I4
tp335
a(S'w'
I730
tp336
a(S'w'
I4
tp337
a(S'w'
I730
tp338
a(S'p2_tl'
I81
tp339
a(S'w'
I4
tp340
a(S'p1_tl'
I170
tp341
a(S'w'
I729
tp342
a(S'w'
I4
tp343
a(S'w'
I3
tp344
a(S'tr_lh'
I0
tp345
a(S'tr_lr'
I0
tp346
a(S'w'
I726
tp347
a(S'p2_du'
I0
tp348
a(S'p2_vo'
I0
tp349
a(S'w'
I2
tp350
a(S'p1_du'
I0
tp351
a(S'p1_vo'
I0
tp352
a(S'w'
I733
tp353
a(S'p2_tl'
I171
tp354
a(S'w'
I1
tp355
a(S'p2_ll'
I1
tp356
a(S'w'
I3
tp357
a(S'p2_tl'
I170
tp358
a(S'w'
I1
tp359
a(S'p2_du'
I3
tp360
a(S'p2_vo'
I6
tp361
a(S'w'
I3
tp362
a(S'p1_tl'
I58
tp363
a(S'w'
I1
tp364
a(S'p1_ll'
I1
tp365
a(S'p1_th'
I2
tp366
a(S'w'
I2
tp367
a(S'p1_tl'
I57
tp368
a(S'w'
I2
tp369
a(S'p1_du'
I3
tp370
a(S'p1_vo'
I6
tp371
a(S'w'
I2
tp372
a(S'tr_lh'
I1
tp373
a(S'tr_lr'
I1
tp374
a(S'w'
I1
tp375
a(S'tr_ll'
I1
tp376
a(S'w'
I718
tp377
a(S'w'
I4
tp378
a(S'w'
I730
tp379
a(S'w'
I4
tp380
a(S'w'
I729
tp381
a(S'p2_tl'
I172
tp382
a(S'w'
I4
tp383
a(S'p1_tl'
I59
tp384
a(S'w'
I730
tp385
a(S'w'
I1
tp386
a(S'p2_vo'
I5
tp387
a(S'w'
I3
tp388
a(S'w'
I1
tp389
a(S'p1_vo'
I5
tp390
a(S'w'
I729
tp391
a(S'w'
I4
tp392
a(S'w'
I730
tp393
a(S'w'
I4
tp394
a(S'w'
I729
tp395
a(S'p2_tl'
I170
tp396
a(S'w'
I4
tp397
a(S'p1_tl'
I57
tp398
a(S'w'
I730
tp399
a(S'w'
I4
tp400
a(S'w'
I3
tp401
a(S'tr_lh'
I0
tp402
a(S'tr_lr'
I0
tp403
a(S'w'
I726
tp404
a(S'p2_du'
I0
tp405
a(S'p2_vo'
I0
tp406
a(S'w'
I2
tp407
a(S'p1_du'
I0
tp408
a(S'p1_vo'
I0
tp409
a(S'w'
I733
tp410
a(S'p2_tl'
I63
tp411
a(S'w'
I1
tp412
a(S'p2_ll'
I1
tp413
a(S'w'
I3
tp414
a(S'p2_tl'
I64
tp415
a(S'w'
I1
tp416
a(S'p2_du'
I3
tp417
a(S'p2_vo'
I6
tp418
a(S'w'
I3
tp419
a(S'p1_tl'
I124
tp420
a(S'w'
I1
tp421
a(S'p1_ll'
I1
tp422
a(S'p1_th'
I1
tp423
a(S'w'
I2
tp424
a(S'p1_tl'
I125
tp425
a(S'w'
I2
tp426
a(S'p1_du'
I3
tp427
a(S'p1_vo'
I6
tp428
a(S'w'
I1
tp429
a(S'tr_lh'
I1
tp430
a(S'tr_lr'
I1
tp431
a(S'w'
I2
tp432
a(S'tr_ll'
I1
tp433
a(S'w'
I718
tp434
a(S'p2_tl'
I62
tp435
a(S'w'
I4
tp436
a(S'p1_tl'
I123
tp437
a(S'w'
I729
tp438
a(S'w'
I4
tp439
a(S'w'
I730
tp440
a(S'w'
I4
tp441
a(S'w'
I730
tp442
a(S'w'
I1
tp443
a(S'p2_vo'
I5
tp444
a(S'w'
I3
tp445
a(S'w'
I1
tp446
a(S'p1_vo'
I5
tp447
a(S'w'
I729
tp448
a(S'p2_tl'
I64
tp449
a(S'w'
I4
tp450
a(S'p1_tl'
I125
tp451
a(S'w'
I730
tp452
a(S'w'
I4
tp453
a(S'w'
I729
tp454
a(S'w'
I4
tp455
a(S'w'
I730
tp456
a(S'w'
I4
tp457
a(S'w'
I3
tp458
a(S'tr_lh'
I0
tp459
a(S'tr_lr'
I0
tp460
a(S'w'
I727
tp461
a(S'p2_tl'
I62
tp462
a(S'w'
I4
tp463
a(S'p1_tl'
I123
tp464
a(S'w'
I730
tp465
a(S'w'
I4
tp466
a(S'w'
I3
tp467
a(S'tr_lh'
I1
tp468
a(S'tr_lr'
I1
tp469
a(S'w'
I1
tp470
a(S'tr_ll'
I1
tp471
a(S'w'
I726
tp472
a(S'w'
I4
tp473
a(S'w'
I729
tp474
a(S'w'
I1
tp475
a(S'p2_vo'
I4
tp476
a(S'w'
I3
tp477
a(S'w'
I1
tp478
a(S'p1_vo'
I4
tp479
a(S'w'
I729
tp480
a(S'p2_tl'
I64
tp481
a(S'w'
I4
tp482
a(S'p1_tl'
I125
tp483
a(S'w'
I730
tp484
a(S'w'
I4
tp485
a(S'w'
I730
tp486
a(S'w'
I4
tp487
a(S'w'
I730
tp488
a(S'w'
I4
tp489
a(S'w'
I729
tp490
a(S'p2_tl'
I62
tp491
a(S'w'
I4
tp492
a(S'p1_tl'
I123
tp493
a(S'w'
I730
tp494
a(S'w'
I4
tp495
a(S'w'
I3
tp496
a(S'tr_lh'
I0
tp497
a(S'tr_lr'
I0
tp498
a(S'w'
I726
tp499
a(S'p2_du'
I0
tp500
a(S'p2_vo'
I0
tp501
a(S'w'
I2
tp502
a(S'p1_du'
I0
tp503
a(S'p1_vo'
I0
tp504
a(S'w'
I733
tp505
a(S'p2_tl'
I82
tp506
a(S'w'
I1
tp507
a(S'p2_ll'
I1
tp508
a(S'w'
I3
tp509
a(S'p2_tl'
I81
tp510
a(S'w'
I1
tp511
a(S'p2_du'
I3
tp512
a(S'p2_vo'
I6
tp513
a(S'w'
I3
tp514
a(S'p1_tl'
I171
tp515
a(S'w'
I1
tp516
a(S'p1_ll'
I1
tp517
a(S'w'
I2
tp518
a(S'p1_tl'
I170
tp519
a(S'w'
I2
tp520
a(S'p1_du'
I3
tp521
a(S'p1_vo'
I6
tp522
a(S'w'
I2
tp523
a(S'tr_lh'
I1
tp524
a(S'tr_lr'
I1
tp525
a(S'w'
I1
tp526
a(S'tr_ll'
I1
tp527
a(S'w'
I717
tp528
a(S'w'
I4
tp529
a(S'w'
I730
tp530
a(S'w'
I4
tp531
a(S'w'
I730
tp532
a(S'p2_tl'
I83
tp533
a(S'w'
I4
tp534
a(S'p1_tl'
I172
tp535
a(S'w'
I730
tp536
a(S'w'
I1
tp537
a(S'p2_vo'
I5
tp538
a(S'w'
I3
tp539
a(S'w'
I1
tp540
a(S'p1_vo'
I5
tp541
a(S'w'
I729
tp542
a(S'w'
I4
tp543
a(S'w'
I729
tp544
a(S'w'
I4
tp545
a(S'w'
I730
tp546
a(S'p2_tl'
I81
tp547
a(S'w'
I4
tp548
a(S'p1_tl'
I170
tp549
a(S'w'
I730
tp550
a(S'w'
I4
tp551
a(S'w'
I3
tp552
a(S'tr_lh'
I0
tp553
a(S'tr_lr'
I0
tp554
a(S'w'
I726
tp555
a(S'p2_du'
I0
tp556
a(S'p2_vo'
I0
tp557
a(S'w'
I2
tp558
a(S'p1_du'
I0
tp559
a(S'p1_vo'
I0
tp560
a(S'w'
I733
tp561
a(S'p2_tl'
I124
tp562
a(S'w'
I1
tp563
a(S'p2_ll'
I1
tp564
a(S'w'
I3
tp565
a(S'p2_tl'
I123
tp566
a(S'w'
I1
tp567
a(S'p2_du'
I3
tp568
a(S'p2_vo'
I6
tp569
a(S'w'
I3
tp570
a(S'p1_tl'
I196
tp571
a(S'w'
I1
tp572
a(S'p1_ll'
I1
tp573
a(S'w'
I2
tp574
a(S'p1_tl'
I195
tp575
a(S'w'
I2
tp576
a(S'p1_du'
I3
tp577
a(S'p1_vo'
I6
tp578
a(S'w'
I2
tp579
a(S'tr_lh'
I1
tp580
a(S'tr_lr'
I1
tp581
a(S'w'
I1
tp582
a(S'tr_ll'
I1
tp583
a(S'w'
I717
tp584
a(S'w'
I4
tp585
a(S'w'
I730
tp586
a(S'w'
I4
tp587
a(S'w'
I730
tp588
a(S'p2_tl'
I125
tp589
a(S'w'
I4
tp590
a(S'p1_tl'
I197
tp591
a(S'w'
I730
tp592
a(S'w'
I1
tp593
a(S'p2_vo'
I5
tp594
a(S'w'
I3
tp595
a(S'w'
I1
tp596
a(S'p1_vo'
I5
tp597
a(S'w'
I729
tp598
a(S'w'
I4
tp599
a(S'w'
I729
tp600
a(S'w'
I4
tp601
a(S'w'
I730
tp602
a(S'p2_tl'
I123
tp603
a(S'w'
I4
tp604
a(S'p1_tl'
I195
tp605
a(S'w'
I730
tp606
a(S'w'
I4
tp607
a(S'w'
I3
tp608
a(S'tr_lh'
I0
tp609
a(S'tr_lr'
I0
tp610
a(S'w'
I727
tp611
a(S'w'
I4
tp612
a(S'w'
I730
tp613
a(S'w'
I4
tp614
a(S'w'
I3
tp615
a(S'tr_lh'
I1
tp616
a(S'tr_lr'
I1
tp617
a(S'w'
I1
tp618
a(S'tr_ll'
I1
tp619
a(S'w'
I725
tp620
a(S'p2_tl'
I125
tp621
a(S'w'
I4
tp622
a(S'p1_tl'
I197
tp623
a(S'w'
I730
tp624
a(S'w'
I1
tp625
a(S'p2_vo'
I4
tp626
a(S'w'
I3
tp627
a(S'w'
I1
tp628
a(S'p1_vo'
I4
tp629
a(S'w'
I729
tp630
a(S'w'
I4
tp631
a(S'w'
I730
tp632
a(S'w'
I4
tp633
a(S'w'
I729
tp634
a(S'p2_tl'
I123
tp635
a(S'w'
I4
tp636
a(S'p1_tl'
I195
tp637
a(S'w'
I730
tp638
a(S'w'
I4
tp639
a(S'w'
I730
tp640
a(S'w'
I4
tp641
a(S'w'
I730
tp642
a(S'w'
I4
tp643
a(S'w'
I3
tp644
a(S'tr_lh'
I0
tp645
a(S'tr_lr'
I0
tp646
a(S'w'
I727
tp647
a(S'p2_tl'
I125
tp648
a(S'w'
I4
tp649
a(S'p1_tl'
I197
tp650
a(S'w'
I729
tp651
a(S'w'
I4
tp652
a(S'w'
I3
tp653
a(S'tr_lh'
I1
tp654
a(S'tr_lr'
I1
tp655
a(S'w'
I1
tp656
a(S'tr_ll'
I1
tp657
a(S'w'
I726
tp658
a(S'w'
I4
tp659
a(S'w'
I730
tp660
a(S'w'
I4
tp661
a(S'w'
I730
tp662
a(S'p2_tl'
I123
tp663
a(S'w'
I4
tp664
a(S'p1_tl'
I195
tp665
a(S'w'
I730
tp666
a(S'w'
I1
tp667
a(S'p2_vo'
I3
tp668
a(S'w'
I3
tp669
a(S'w'
I1
tp670
a(S'p1_vo'
I3
tp671
a(S'w'
I728
tp672
a(S'w'
I4
tp673
a(S'w'
I730
tp674
a(S'w'
I4
tp675
a(S'w'
I730
tp676
a(S'p2_tl'
I125
tp677
a(S'w'
I4
tp678
a(S'p1_tl'
I197
tp679
a(S'w'
I730
tp680
a(S'w'
I4
tp681
a(S'w'
I3
tp682
a(S'tr_lh'
I0
tp683
a(S'tr_lr'
I0
tp684
a(S'w'
I727
tp685
a(S'w'
I4
tp686
a(S'w'
I729
tp687
a(S'w'
I4
tp688
a(S'w'
I3
tp689
a(S'tr_lh'
I1
tp690
a(S'tr_lr'
I1
tp691
a(S'w'
I1
tp692
a(S'tr_ll'
I1
tp693
a(S'w'
I726
tp694
a(S'p2_tl'
I123
tp695
a(S'w'
I4
tp696
a(S'p1_tl'
I195
tp697
a(S'w'
I730
tp698
a(S'w'
I4
tp699
a(S'w'
I730
tp700
a(S'w'
I4
tp701
a(S'w'
I730
tp702
a(S'w'
I4
tp703
a(S'w'
I729
tp704
a(S'p2_tl'
I125
tp705
a(S'w'
I4
tp706
a(S'p1_tl'
I197
tp707
a(S'w'
I730
tp708
a(S'w'
I4
tp709
a(S'w'
I730
tp710
a(S'w'
I4
tp711
a(S'w'
I730
tp712
a(S'w'
I4
tp713
a(S'w'
I3
tp714
a(S'tr_lh'
I0
tp715
a(S'tr_lr'
I0
tp716
a(S'w'
I726
tp717
a(S'p2_tl'
I123
tp718
a(S'w'
I4
tp719
a(S'p1_tl'
I195
tp720
a(S'w'
I730
tp721
a(S'w'
I4
tp722
a(S'w'
I3
tp723
a(S'tr_lh'
I1
tp724
a(S'tr_lr'
I1
tp725
a(S'w'
I1
tp726
a(S'tr_ll'
I1
tp727
a(S'w'
I726
tp728
a(S'w'
I4
tp729
a(S'w'
I730
tp730
a(S'w'
I4
tp731
a(S'w'
I730
tp732
a(S'p2_tl'
I125
tp733
a(S'w'
I4
tp734
a(S'p1_tl'
I197
tp735
a(S'w'
I729
tp736
a(S'w'
I4
tp737
a(S'w'
I730
tp738
a(S'w'
I4
tp739
a(S'w'
I730
tp740
a(S'w'
I4
tp741
a(S'w'
I730
tp742
a(S'p2_tl'
I123
tp743
a(S'w'
I4
tp744
a(S'p1_tl'
I195
tp745
a(S'w'
I730
tp746
a(S'w'
I4
tp747
a(S'w'
I3
tp748
a(S'tr_lh'
I0
tp749
a(S'tr_lr'
I0
tp750
a(S'w'
I725
tp751
a(S'p2_du'
I0
tp752
a(S'p2_vo'
I0
tp753
a(S'w'
I2
tp754
a(S'p1_du'
I0
tp755
a(S'p1_vo'
I0
tp756
a(S'w'
I733
tp757
a(S'p2_tl'
I124
tp758
a(S'w'
I1
tp759
a(S'p2_ll'
I1
tp760
a(S'w'
I3
tp761
a(S'p2_tl'
I123
tp762
a(S'w'
I1
tp763
a(S'p2_du'
I3
tp764
a(S'p2_vo'
I6
tp765
a(S'w'
I3
tp766
a(S'p1_tl'
I58
tp767
a(S'w'
I1
tp768
a(S'p1_ll'
I1
tp769
a(S'p1_th'
I2
tp770
a(S'w'
I2
tp771
a(S'p1_tl'
I57
tp772
a(S'w'
I2
tp773
a(S'p1_du'
I3
tp774
a(S'p1_vo'
I6
tp775
a(S'w'
I2
tp776
a(S'tr_lh'
I1
tp777
a(S'tr_lr'
I1
tp778
a(S'tr_tl'
I124
tp779
a(S'w'
I1
tp780
a(S'tr_ll'
I1
tp781
a(S'w'
I718
tp782
a(S'w'
I4
tp783
a(S'w'
I730
tp784
a(S'w'
I4
tp785
a(S'w'
I730
tp786
a(S'p2_tl'
I125
tp787
a(S'w'
I4
tp788
a(S'p1_tl'
I59
tp789
a(S'w'
I729
tp790
a(S'w'
I1
tp791
a(S'p2_vo'
I5
tp792
a(S'w'
I3
tp793
a(S'w'
I1
tp794
a(S'p1_vo'
I5
tp795
a(S'w'
I729
tp796
a(S'w'
I4
tp797
a(S'w'
I730
tp798
a(S'w'
I4
tp799
a(S'w'
I730
tp800
a(S'p2_tl'
I123
tp801
a(S'w'
I4
tp802
a(S'p1_tl'
I57
tp803
a(S'w'
I730
tp804
a(S'w'
I4
tp805
a(S'w'
I3
tp806
a(S'tr_lh'
I0
tp807
a(S'tr_lr'
I0
tp808
a(S'w'
I725
tp809
a(S'p2_du'
I0
tp810
a(S'p2_vo'
I0
tp811
a(S'w'
I2
tp812
a(S'p1_du'
I0
tp813
a(S'p1_vo'
I0
tp814
a(S'w'
I732
tp815
a(S'p2_tl'
I124
tp816
a(S'w'
I1
tp817
a(S'p2_ll'
I1
tp818
a(S'w'
I3
tp819
a(S'p2_tl'
I123
tp820
a(S'w'
I1
tp821
a(S'p2_du'
I3
tp822
a(S'p2_vo'
I6
tp823
a(S'w'
I2
tp824
a(S'p1_tl'
I58
tp825
a(S'p1_ll'
I1
tp826
a(S'w'
I3
tp827
a(S'p1_tl'
I57
tp828
a(S'w'
I1
tp829
a(S'p1_du'
I3
tp830
a(S'p1_vo'
I6
tp831
a(S'w'
I2
tp832
a(S'tr_lh'
I1
tp833
a(S'tr_lr'
I1
tp834
a(S'w'
I1
tp835
a(S'tr_ll'
I1
tp836
a(S'w'
I721
tp837
a(S'w'
I4
tp838
a(S'w'
I730
tp839
a(S'w'
I4
tp840
a(S'w'
I729
tp841
a(S'p2_tl'
I125
tp842
a(S'w'
I4
tp843
a(S'p1_tl'
I59
tp844
a(S'w'
I730
tp845
a(S'w'
I1
tp846
a(S'p2_vo'
I5
tp847
a(S'w'
I3
tp848
a(S'w'
I1
tp849
a(S'p1_vo'
I5
tp850
a(S'w'
I729
tp851
a(S'w'
I4
tp852
a(S'w'
I730
tp853
a(S'w'
I4
tp854
a(S'w'
I730
tp855
a(S'p2_tl'
I123
tp856
a(S'w'
I4
tp857
a(S'p1_tl'
I57
tp858
a(S'w'
I729
tp859
a(S'w'
I4
tp860
a(S'w'
I3
tp861
a(S'tr_lh'
I0
tp862
a(S'tr_lr'
I0
tp863
a(S'w'
I726
tp864
a(S'p2_du'
I0
tp865
a(S'p2_vo'
I0
tp866
a(S'w'
I2
tp867
a(S'p1_du'
I0
tp868
a(S'p1_vo'
I0
tp869
a(S'w'
I732
tp870
a(S'p2_tl'
I82
tp871
a(S'w'
I1
tp872
a(S'p2_ll'
I1
tp873
a(S'w'
I2
tp874
a(S'p2_tl'
I81
tp875
a(S'w'
I2
tp876
a(S'p2_du'
I3
tp877
a(S'p2_vo'
I6
tp878
a(S'w'
I2
tp879
a(S'p1_tl'
I58
tp880
a(S'p1_ll'
I1
tp881
a(S'w'
I3
tp882
a(S'p1_tl'
I57
tp883
a(S'w'
I1
tp884
a(S'p1_du'
I3
tp885
a(S'p1_vo'
I6
tp886
a(S'w'
I2
tp887
a(S'tr_lh'
I1
tp888
a(S'tr_lr'
I1
tp889
a(S'w'
I1
tp890
a(S'tr_ll'
I1
tp891
a(S'w'
I721
tp892
a(S'w'
I4
tp893
a(S'w'
I730
tp894
a(S'w'
I4
tp895
a(S'w'
I729
tp896
a(S'p2_tl'
I83
tp897
a(S'w'
I4
tp898
a(S'p1_tl'
I59
tp899
a(S'w'
I730
tp900
a(S'w'
I1
tp901
a(S'p2_vo'
I5
tp902
a(S'w'
I3
tp903
a(S'w'
I1
tp904
a(S'p1_vo'
I5
tp905
a(S'w'
I729
tp906
a(S'w'
I4
tp907
a(S'w'
I730
tp908
a(S'w'
I4
tp909
a(S'w'
I730
tp910
a(S'p2_tl'
I81
tp911
a(S'w'
I4
tp912
a(S'p1_tl'
I57
tp913
a(S'w'
I729
tp914
a(S'w'
I4
tp915
a(S'w'
I3
tp916
a(S'tr_lh'
I0
tp917
a(S'tr_lr'
I0
tp918
a(S'w'
I726
tp919
a(S'p2_du'
I0
tp920
a(S'p2_vo'
I0
tp921
a(S'w'
I2
tp922
a(S'p1_du'
I0
tp923
a(S'p1_vo'
I0
tp924
a(S'w'
I732
tp925
a(S'p2_tl'
I124
tp926
a(S'w'
I1
tp927
a(S'p2_ll'
I1
tp928
a(S'w'
I3
tp929
a(S'p2_tl'
I123
tp930
a(S'w'
I1
tp931
a(S'p2_du'
I3
tp932
a(S'p2_vo'
I6
tp933
a(S'w'
I2
tp934
a(S'p1_tl'
I58
tp935
a(S'p1_ll'
I1
tp936
a(S'w'
I3
tp937
a(S'p1_tl'
I57
tp938
a(S'w'
I1
tp939
a(S'p1_du'
I3
tp940
a(S'p1_vo'
I6
tp941
a(S'w'
I2
tp942
a(S'tr_lh'
I1
tp943
a(S'tr_lr'
I1
tp944
a(S'w'
I1
tp945
a(S'tr_ll'
I1
tp946
a(S'w'
I721
tp947
a(S'w'
I4
tp948
a(S'w'
I730
tp949
a(S'w'
I4
tp950
a(S'w'
I729
tp951
a(S'p2_tl'
I125
tp952
a(S'w'
I4
tp953
a(S'p1_tl'
I59
tp954
a(S'w'
I730
tp955
a(S'w'
I1
tp956
a(S'p2_vo'
I5
tp957
a(S'w'
I3
tp958
a(S'w'
I1
tp959
a(S'p1_vo'
I5
tp960
a(S'w'
I729
tp961
a(S'w'
I4
tp962
a(S'w'
I730
tp963
a(S'w'
I4
tp964
a(S'w'
I729
tp965
a(S'p2_tl'
I123
tp966
a(S'w'
I4
tp967
a(S'p1_tl'
I57
tp968
a(S'w'
I730
tp969
a(S'w'
I4
tp970
a(S'w'
I3
tp971
a(S'tr_lh'
I0
tp972
a(S'tr_lr'
I0
tp973
a(S'w'
I726
tp974
a(S'p2_du'
I0
tp975
a(S'p2_vo'
I0
tp976
a(S'w'
I2
tp977
a(S'p1_du'
I0
tp978
a(S'p1_vo'
I0
tp979
a(S'w'
I739
tp980
a(S'tr_lh'
I1
tp981
a(S'tr_lr'
I1
tp982
a(S'w'
I1
tp983
a(S'tr_ll'
I1
tp984
a(S'w'
I5866
tp985
a(S'tr_lh'
I0
tp986
a(S'tr_lr'
I0
tp987
a(S'w'
I1465
tp988
a(S'p2_tl'
I63
tp989
a(S'w'
I1
tp990
a(S'p2_ll'
I1
tp991
a(S'w'
I3
tp992
a(S'p2_tl'
I64
tp993
a(S'w'
I1
tp994
a(S'p2_du'
I3
tp995
a(S'p2_vo'
I6
tp996
a(S'w'
I3
tp997
a(S'p1_tl'
I196
tp998
a(S'w'
I1
tp999
a(S'p1_ll'
I1
tp1000
a(S'p1_th'
I1
tp1001
a(S'w'
I2
tp1002
a(S'p1_tl'
I197
tp1003
a(S'w'
I2
tp1004
a(S'p1_du'
I3
tp1005
a(S'p1_vo'
I6
tp1006
a(S'w'
I1
tp1007
a(S'tr_lh'
I1
tp1008
a(S'tr_lr'
I1
tp1009
a(S'w'
I2
tp1010
a(S'tr_ll'
I1
tp1011
a(S'w'
I718
tp1012
a(S'p2_tl'
I62
tp1013
a(S'w'
I4
tp1014
a(S'p1_tl'
I195
tp1015
a(S'w'
I729
tp1016
a(S'w'
I4
tp1017
a(S'w'
I730
tp1018
a(S'w'
I4
tp1019
a(S'w'
I730
tp1020
a(S'w'
I1
tp1021
a(S'p2_vo'
I5
tp1022
a(S'w'
I3
tp1023
a(S'w'
I1
tp1024
a(S'p1_vo'
I5
tp1025
a(S'w'
I729
tp1026
a(S'p2_tl'
I64
tp1027
a(S'w'
I4
tp1028
a(S'p1_tl'
I197
tp1029
a(S'w'
I730
tp1030
a(S'w'
I4
tp1031
a(S'w'
I729
tp1032
a(S'w'
I4
tp1033
a(S'w'
I730
tp1034
a(S'w'
I4
tp1035
a(S'w'
I3
tp1036
a(S'tr_lh'
I0
tp1037
a(S'tr_lr'
I0
tp1038
a(S'w'
I727
tp1039
a(S'p2_tl'
I62
tp1040
a(S'w'
I4
tp1041
a(S'p1_tl'
I195
tp1042
a(S'w'
I730
tp1043
a(S'w'
I4
tp1044
a(S'w'
I3
tp1045
a(S'tr_lh'
I1
tp1046
a(S'tr_lr'
I1
tp1047
a(S'w'
I1
tp1048
a(S'tr_ll'
I1
tp1049
a(S'w'
I725
tp1050
a(S'w'
I4
tp1051
a(S'w'
I730
tp1052
a(S'w'
I1
tp1053
a(S'p2_vo'
I4
tp1054
a(S'w'
I3
tp1055
a(S'w'
I1
tp1056
a(S'p1_vo'
I4
tp1057
a(S'w'
I729
tp1058
a(S'p2_tl'
I64
tp1059
a(S'w'
I4
tp1060
a(S'p1_tl'
I197
tp1061
a(S'w'
I730
tp1062
a(S'w'
I4
tp1063
a(S'w'
I730
tp1064
a(S'w'
I4
tp1065
a(S'w'
I729
tp1066
a(S'w'
I4
tp1067
a(S'w'
I730
tp1068
a(S'p2_tl'
I62
tp1069
a(S'w'
I4
tp1070
a(S'p1_tl'
I195
tp1071
a(S'w'
I730
tp1072
a(S'w'
I4
tp1073
a(S'w'
I3
tp1074
a(S'tr_lh'
I0
tp1075
a(S'tr_lr'
I0
tp1076
a(S'w'
I726
tp1077
a(S'p2_du'
I0
tp1078
a(S'p2_vo'
I0
tp1079
a(S'w'
I2
tp1080
a(S'p1_du'
I0
tp1081
a(S'p1_vo'
I0
tp1082
a(S'w'
I733
tp1083
a(S'p2_tl'
I82
tp1084
a(S'w'
I1
tp1085
a(S'p2_ll'
I1
tp1086
a(S'w'
I3
tp1087
a(S'p2_tl'
I81
tp1088
a(S'w'
I1
tp1089
a(S'p2_du'
I3
tp1090
a(S'p2_vo'
I6
tp1091
a(S'w'
I3
tp1092
a(S'p1_tl'
I196
tp1093
a(S'w'
I1
tp1094
a(S'p1_ll'
I1
tp1095
a(S'w'
I2
tp1096
a(S'p1_tl'
I195
tp1097
a(S'w'
I2
tp1098
a(S'p1_du'
I3
tp1099
a(S'p1_vo'
I6
tp1100
a(S'w'
I2
tp1101
a(S'tr_lh'
I1
tp1102
a(S'tr_lr'
I1
tp1103
a(S'w'
I1
tp1104
a(S'tr_ll'
I1
tp1105
a(S'w'
I717
tp1106
a(S'w'
I4
tp1107
a(S'w'
I730
tp1108
a(S'w'
I4
tp1109
a(S'w'
I730
tp1110
a(S'p2_tl'
I83
tp1111
a(S'w'
I4
tp1112
a(S'p1_tl'
I197
tp1113
a(S'w'
I730
tp1114
a(S'w'
I1
tp1115
a(S'p2_vo'
I5
tp1116
a(S'w'
I3
tp1117
a(S'w'
I1
tp1118
a(S'p1_vo'
I5
tp1119
a(S'w'
I729
tp1120
a(S'w'
I4
tp1121
a(S'w'
I729
tp1122
a(S'w'
I4
tp1123
a(S'w'
I730
tp1124
a(S'p2_tl'
I81
tp1125
a(S'w'
I4
tp1126
a(S'p1_tl'
I195
tp1127
a(S'w'
I730
tp1128
a(S'w'
I4
tp1129
a(S'w'
I3
tp1130
a(S'tr_lh'
I0
tp1131
a(S'tr_lr'
I0
tp1132
a(S'w'
I726
tp1133
a(S'p2_du'
I0
tp1134
a(S'p2_vo'
I0
tp1135
a(S'w'
I2
tp1136
a(S'p1_du'
I0
tp1137
a(S'p1_vo'
I0
tp1138
a(S'w'
I733
tp1139
a(S'p2_tl'
I28
tp1140
a(S'w'
I1
tp1141
a(S'p2_ll'
I1
tp1142
a(S'w'
I3
tp1143
a(S'p2_tl'
I29
tp1144
a(S'w'
I1
tp1145
a(S'p2_du'
I3
tp1146
a(S'p2_vo'
I6
tp1147
a(S'w'
I3
tp1148
a(S'p1_tl'
I171
tp1149
a(S'w'
I1
tp1150
a(S'p1_ll'
I1
tp1151
a(S'w'
I2
tp1152
a(S'p1_tl'
I172
tp1153
a(S'w'
I2
tp1154
a(S'p1_du'
I3
tp1155
a(S'p1_vo'
I6
tp1156
a(S'w'
I1
tp1157
a(S'tr_lh'
I1
tp1158
a(S'tr_lr'
I1
tp1159
a(S'w'
I1
tp1160
a(S'tr_tl'
I28
tp1161
a(S'w'
I1
tp1162
a(S'tr_ll'
I1
tp1163
a(S'w'
I717
tp1164
a(S'p2_tl'
I27
tp1165
a(S'w'
I4
tp1166
a(S'p1_tl'
I170
tp1167
a(S'w'
I730
tp1168
a(S'w'
I4
tp1169
a(S'w'
I730
tp1170
a(S'w'
I4
tp1171
a(S'w'
I730
tp1172
a(S'w'
I1
tp1173
a(S'p2_vo'
I5
tp1174
a(S'w'
I3
tp1175
a(S'w'
I1
tp1176
a(S'p1_vo'
I5
tp1177
a(S'w'
I728
tp1178
a(S'p2_tl'
I29
tp1179
a(S'w'
I4
tp1180
a(S'p1_tl'
I172
tp1181
a(S'w'
I730
tp1182
a(S'w'
I4
tp1183
a(S'w'
I730
tp1184
a(S'w'
I4
tp1185
a(S'w'
I730
tp1186
a(S'w'
I4
tp1187
a(S'w'
I3
tp1188
a(S'tr_lh'
I0
tp1189
a(S'tr_lr'
I0
tp1190
a(S'w'
I727
tp1191
a(S'p2_tl'
I27
tp1192
a(S'w'
I4
tp1193
a(S'p1_tl'
I170
tp1194
a(S'w'
I729
tp1195
a(S'w'
I4
tp1196
a(S'w'
I3
tp1197
a(S'tr_lh'
I1
tp1198
a(S'tr_lr'
I1
tp1199
a(S'w'
I1
tp1200
a(S'tr_ll'
I1
tp1201
a(S'w'
I726
tp1202
a(S'w'
I4
tp1203
a(S'w'
I730
tp1204
a(S'w'
I1
tp1205
a(S'p2_vo'
I4
tp1206
a(S'w'
I3
tp1207
a(S'w'
I1
tp1208
a(S'p1_vo'
I4
tp1209
a(S'w'
I729
tp1210
a(S'p2_tl'
I29
tp1211
a(S'w'
I4
tp1212
a(S'p1_tl'
I172
tp1213
a(S'w'
I730
tp1214
a(S'w'
I4
tp1215
a(S'w'
I729
tp1216
a(S'w'
I4
tp1217
a(S'w'
I730
tp1218
a(S'w'
I4
tp1219
a(S'w'
I730
tp1220
a(S'p2_tl'
I27
tp1221
a(S'w'
I4
tp1222
a(S'p1_tl'
I170
tp1223
a(S'w'
I730
tp1224
a(S'w'
I4
tp1225
a(S'w'
I3
tp1226
a(S'tr_lh'
I0
tp1227
a(S'tr_lr'
I0
tp1228
a(S'w'
I726
tp1229
a(S'p2_du'
I0
tp1230
a(S'p2_vo'
I0
tp1231
a(S'w'
I2
tp1232
a(S'p1_du'
I0
tp1233
a(S'p1_vo'
I0
tp1234
a(S'w'
I732
tp1235
a(S'p2_tl'
I63
tp1236
a(S'w'
I1
tp1237
a(S'p2_ll'
I1
tp1238
a(S'w'
I3
tp1239
a(S'p2_tl'
I62
tp1240
a(S'w'
I1
tp1241
a(S'p2_du'
I3
tp1242
a(S'p2_vo'
I6
tp1243
a(S'w'
I3
tp1244
a(S'p1_tl'
I171
tp1245
a(S'w'
I1
tp1246
a(S'p1_ll'
I1
tp1247
a(S'w'
I2
tp1248
a(S'p1_tl'
I170
tp1249
a(S'w'
I2
tp1250
a(S'p1_du'
I3
tp1251
a(S'p1_vo'
I6
tp1252
a(S'w'
I2
tp1253
a(S'tr_lh'
I1
tp1254
a(S'tr_lr'
I1
tp1255
a(S'w'
I1
tp1256
a(S'tr_ll'
I1
tp1257
a(S'w'
I718
tp1258
a(S'w'
I4
tp1259
a(S'w'
I730
tp1260
a(S'w'
I4
tp1261
a(S'w'
I730
tp1262
a(S'p2_tl'
I64
tp1263
a(S'w'
I4
tp1264
a(S'p1_tl'
I172
tp1265
a(S'w'
I730
tp1266
a(S'w'
I1
tp1267
a(S'p2_vo'
I5
tp1268
a(S'w'
I3
tp1269
a(S'w'
I1
tp1270
a(S'p1_vo'
I5
tp1271
a(S'w'
I728
tp1272
a(S'w'
I4
tp1273
a(S'w'
I730
tp1274
a(S'w'
I4
tp1275
a(S'w'
I730
tp1276
a(S'p2_tl'
I62
tp1277
a(S'w'
I4
tp1278
a(S'p1_tl'
I170
tp1279
a(S'w'
I730
tp1280
a(S'w'
I4
tp1281
a(S'w'
I3
tp1282
a(S'tr_lh'
I0
tp1283
a(S'tr_lr'
I0
tp1284
a(S'w'
I725
tp1285
a(S'p2_du'
I0
tp1286
a(S'p2_vo'
I0
tp1287
a(S'w'
I2
tp1288
a(S'p1_du'
I0
tp1289
a(S'p1_vo'
I0
tp1290
a(S'w'
I733
tp1291
a(S'p2_tl'
I82
tp1292
a(S'w'
I1
tp1293
a(S'p2_ll'
I1
tp1294
a(S'w'
I3
tp1295
a(S'p2_tl'
I81
tp1296
a(S'w'
I1
tp1297
a(S'p2_du'
I3
tp1298
a(S'p2_vo'
I6
tp1299
a(S'w'
I3
tp1300
a(S'p1_tl'
I171
tp1301
a(S'w'
I1
tp1302
a(S'p1_ll'
I1
tp1303
a(S'w'
I2
tp1304
a(S'p1_tl'
I170
tp1305
a(S'w'
I2
tp1306
a(S'p1_du'
I3
tp1307
a(S'p1_vo'
I6
tp1308
a(S'w'
I2
tp1309
a(S'tr_lh'
I1
tp1310
a(S'tr_lr'
I1
tp1311
a(S'w'
I1
tp1312
a(S'tr_ll'
I1
tp1313
a(S'w'
I718
tp1314
a(S'w'
I4
tp1315
a(S'w'
I730
tp1316
a(S'w'
I4
tp1317
a(S'w'
I730
tp1318
a(S'p2_tl'
I83
tp1319
a(S'w'
I4
tp1320
a(S'p1_tl'
I172
tp1321
a(S'w'
I729
tp1322
a(S'w'
I1
tp1323
a(S'p2_vo'
I5
tp1324
a(S'w'
I3
tp1325
a(S'w'
I1
tp1326
a(S'p1_vo'
I5
tp1327
a(S'w'
I729
tp1328
a(S'w'
I4
tp1329
a(S'w'
I730
tp1330
a(S'w'
I4
tp1331
a(S'w'
I730
tp1332
a(S'p2_tl'
I81
tp1333
a(S'w'
I4
tp1334
a(S'p1_tl'
I170
tp1335
a(S'w'
I730
tp1336
a(S'w'
I4
tp1337
a(S'w'
I3
tp1338
a(S'tr_lh'
I0
tp1339
a(S'tr_lr'
I0
tp1340
a(S'w'
I726
tp1341
a(S'w'
I4
tp1342
a(S'w'
I730
tp1343
a(S'w'
I4
tp1344
a(S'w'
I3
tp1345
a(S'tr_lh'
I1
tp1346
a(S'tr_lr'
I1
tp1347
a(S'w'
I1
tp1348
a(S'tr_ll'
I1
tp1349
a(S'w'
I726
tp1350
a(S'p2_tl'
I83
tp1351
a(S'w'
I4
tp1352
a(S'p1_tl'
I172
tp1353
a(S'w'
I730
tp1354
a(S'w'
I1
tp1355
a(S'p2_vo'
I4
tp1356
a(S'w'
I3
tp1357
a(S'w'
I1
tp1358
a(S'p1_vo'
I4
tp1359
a(S'w'
I729
tp1360
a(S'w'
I4
tp1361
a(S'w'
I729
tp1362
a(S'w'
I4
tp1363
a(S'w'
I730
tp1364
a(S'p2_tl'
I81
tp1365
a(S'w'
I4
tp1366
a(S'p1_tl'
I170
tp1367
a(S'w'
I730
tp1368
a(S'w'
I4
tp1369
a(S'w'
I730
tp1370
a(S'w'
I4
tp1371
a(S'w'
I730
tp1372
a(S'w'
I4
tp1373
a(S'w'
I3
tp1374
a(S'tr_lh'
I0
tp1375
a(S'tr_lr'
I0
tp1376
a(S'w'
I726
tp1377
a(S'p2_tl'
I83
tp1378
a(S'w'
I4
tp1379
a(S'p1_tl'
I172
tp1380
a(S'w'
I730
tp1381
a(S'w'
I4
tp1382
a(S'w'
I3
tp1383
a(S'tr_lh'
I1
tp1384
a(S'tr_lr'
I1
tp1385
a(S'w'
I1
tp1386
a(S'tr_ll'
I1
tp1387
a(S'w'
I726
tp1388
a(S'w'
I4
tp1389
a(S'w'
I730
tp1390
a(S'w'
I4
tp1391
a(S'w'
I729
tp1392
a(S'p2_tl'
I81
tp1393
a(S'w'
I4
tp1394
a(S'p1_tl'
I170
tp1395
a(S'w'
I730
tp1396
a(S'w'
I1
tp1397
a(S'p2_vo'
I3
tp1398
a(S'w'
I3
tp1399
a(S'w'
I1
tp1400
a(S'p1_vo'
I3
tp1401
a(S'w'
I729
tp1402
a(S'w'
I4
tp1403
a(S'w'
I730
tp1404
a(S'w'
I4
tp1405
a(S'w'
I730
tp1406
a(S'p2_tl'
I83
tp1407
a(S'w'
I4
tp1408
a(S'p1_tl'
I172
tp1409
a(S'w'
I729
tp1410
a(S'w'
I4
tp1411
a(S'w'
I3
tp1412
a(S'tr_lh'
I0
tp1413
a(S'tr_lr'
I0
tp1414
a(S'w'
I727
tp1415
a(S'w'
I4
tp1416
a(S'w'
I730
tp1417
a(S'w'
I4
tp1418
a(S'w'
I3
tp1419
a(S'tr_lh'
I1
tp1420
a(S'tr_lr'
I1
tp1421
a(S'w'
I1
tp1422
a(S'tr_ll'
I1
tp1423
a(S'w'
I726
tp1424
a(S'p2_tl'
I81
tp1425
a(S'w'
I4
tp1426
a(S'p1_tl'
I170
tp1427
a(S'w'
I730
tp1428
a(S'w'
I4
tp1429
a(S'w'
I729
tp1430
a(S'w'
I4
tp1431
a(S'w'
I730
tp1432
a(S'w'
I4
tp1433
a(S'w'
I730
tp1434
a(S'p2_tl'
I83
tp1435
a(S'w'
I4
tp1436
a(S'p1_tl'
I172
tp1437
a(S'w'
I730
tp1438
a(S'w'
I4
tp1439
a(S'w'
I730
tp1440
a(S'w'
I4
tp1441
a(S'w'
I729
tp1442
a(S'w'
I4
tp1443
a(S'w'
I3
tp1444
a(S'tr_lh'
I0
tp1445
a(S'tr_lr'
I0
tp1446
a(S'w'
I727
tp1447
a(S'p2_tl'
I81
tp1448
a(S'w'
I4
tp1449
a(S'p1_tl'
I170
tp1450
a(S'w'
I730
tp1451
a(S'w'
I4
tp1452
a(S'w'
I3
tp1453
a(S'tr_lh'
I1
tp1454
a(S'tr_lr'
I1
tp1455
a(S'w'
I1
tp1456
a(S'tr_ll'
I1
tp1457
a(S'w'
I726
tp1458
a(S'w'
I4
tp1459
a(S'w'
I730
tp1460
a(S'w'
I4
tp1461
a(S'w'
I729
tp1462
a(S'p2_tl'
I83
tp1463
a(S'w'
I4
tp1464
a(S'p1_tl'
I172
tp1465
a(S'w'
I730
tp1466
a(S'w'
I4
tp1467
a(S'w'
I730
tp1468
a(S'w'
I4
tp1469
a(S'w'
I730
tp1470
a(S'w'
I4
tp1471
a(S'w'
I729
tp1472
a(S'p2_tl'
I81
tp1473
a(S'w'
I4
tp1474
a(S'p1_tl'
I170
tp1475
a(S'w'
I730
tp1476
a(S'w'
I4
tp1477
a(S'w'
I3
tp1478
a(S'tr_lh'
I0
tp1479
a(S'tr_lr'
I0
tp1480
a(S'w'
I726
tp1481
a(S'p2_du'
I0
tp1482
a(S'p2_vo'
I0
tp1483
a(S'w'
I2
tp1484
a(S'p1_du'
I0
tp1485
a(S'p1_vo'
I0
tp1486
a(S'w'
I739
tp1487
a.