(lp1
(S'clock'
p2
I1789772
tp3
a(S'ch_no'
I1
tp4
a(S'ch_tr'
I1
tp5
a(S'ch_p2'
I1
tp6
a(S'ch_p1'
I1
tp7
a(S'w'
I1
tp8
a(S'fc_mo'
I1
tp9
a(S'w'
I13
tp10
a(S'p2_cv'
I1
tp11
a(S'p1_cv'
I1
tp12
a(S'no_cv'
I1
tp13
a(S'w'
I8
tp14
a(S'p2_tl'
I168
tp15
a(S'p2_ll'
I1
tp16
a(S'w'
I3
tp17
a(S'p2_tl'
I167
tp18
a(S'w'
I1
tp19
a(S'p2_du'
I3
tp20
a(S'p2_vo'
I6
tp21
a(S'p2_sp'
I7
tp22
a(S'p2_sn'
I1
tp23
a(S'p2_ss'
I7
tp24
a(S'w'
I3
tp25
a(S'p1_tl'
I212
tp26
a(S'w'
I1
tp27
a(S'p1_ll'
I1
tp28
a(S'w'
I3
tp29
a(S'p1_tl'
I211
tp30
a(S'w'
I1
tp31
a(S'p1_du'
I3
tp32
a(S'p1_vo'
I6
tp33
a(S'p1_sp'
I7
tp34
a(S'p1_sn'
I1
tp35
a(S'p1_ss'
I7
tp36
a(S'w'
I3
tp37
a(S'tr_lh'
I1
tp38
a(S'tr_lr'
I1
tp39
a(S'w'
I1
tp40
a(S'tr_tl'
I253
tp41
a(S'tr_ll'
I1
tp42
a(S'w'
I697
tp43
a(S'fc_mo'
I1
tp44
a(S'ch_no'
I1
tp45
a(S'ch_tr'
I1
tp46
a(S'ch_p2'
I1
tp47
a(S'ch_p1'
I1
tp48
a(S'w'
I15
tp49
a(S'w'
I4
tp50
a(S'w'
I730
tp51
a(S'w'
I4
tp52
a(S'w'
I730
tp53
a(S'p2_tl'
I169
tp54
a(S'w'
I4
tp55
a(S'p1_tl'
I213
tp56
a(S'w'
I730
tp57
a(S'w'
I1
tp58
a(S'p2_vo'
I5
tp59
a(S'w'
I3
tp60
a(S'w'
I1
tp61
a(S'p1_vo'
I5
tp62
a(S'w'
I728
tp63
a(S'w'
I4
tp64
a(S'w'
I730
tp65
a(S'w'
I4
tp66
a(S'w'
I730
tp67
a(S'p2_tl'
I167
tp68
a(S'w'
I4
tp69
a(S'p1_tl'
I211
tp70
a(S'w'
I730
tp71
a(S'w'
I4
tp72
a(S'w'
I3
tp73
a(S'tr_lh'
I0
tp74
a(S'tr_lr'
I0
tp75
a(S'w'
I726
tp76
a(S'p2_du'
I0
tp77
a(S'p2_vo'
I0
tp78
a(S'w'
I2
tp79
a(S'p1_du'
I0
tp80
a(S'p1_vo'
I0
tp81
a(S'w'
I731
tp82
a(S'p2_tl'
I212
tp83
a(S'w'
I1
tp84
a(S'p2_ll'
I1
tp85
a(S'w'
I3
tp86
a(S'p2_tl'
I211
tp87
a(S'w'
I1
tp88
a(S'p2_du'
I3
tp89
a(S'p2_vo'
I6
tp90
a(S'w'
I2
tp91
a(S'p1_tl'
I253
tp92
a(S'p1_ll'
I1
tp93
a(S'w'
I3
tp94
a(S'p1_tl'
I252
tp95
a(S'w'
I1
tp96
a(S'p1_du'
I3
tp97
a(S'p1_vo'
I6
tp98
a(S'w'
I2
tp99
a(S'tr_lh'
I1
tp100
a(S'tr_lr'
I1
tp101
a(S'w'
I1
tp102
a(S'tr_ll'
I1
tp103
a(S'w'
I721
tp104
a(S'w'
I4
tp105
a(S'w'
I730
tp106
a(S'w'
I4
tp107
a(S'w'
I730
tp108
a(S'p2_tl'
I213
tp109
a(S'w'
I4
tp110
a(S'p1_tl'
I254
tp111
a(S'w'
I730
tp112
a(S'w'
I1
tp113
a(S'p2_vo'
I5
tp114
a(S'w'
I3
tp115
a(S'w'
I1
tp116
a(S'p1_vo'
I5
tp117
a(S'w'
I728
tp118
a(S'w'
I4
tp119
a(S'w'
I730
tp120
a(S'w'
I4
tp121
a(S'w'
I730
tp122
a(S'p2_tl'
I211
tp123
a(S'w'
I4
tp124
a(S'p1_tl'
I252
tp125
a(S'w'
I730
tp126
a(S'w'
I4
tp127
a(S'w'
I3
tp128
a(S'tr_lh'
I0
tp129
a(S'tr_lr'
I0
tp130
a(S'w'
I726
tp131
a(S'p2_du'
I0
tp132
a(S'p2_vo'
I0
tp133
a(S'w'
I2
tp134
a(S'p1_du'
I0
tp135
a(S'p1_vo'
I0
tp136
a(S'w'
I731
tp137
a(S'p2_tl'
I253
tp138
a(S'w'
I1
tp139
a(S'p2_ll'
I1
tp140
a(S'w'
I2
tp141
a(S'p2_tl'
I252
tp142
a(S'w'
I2
tp143
a(S'p2_du'
I3
tp144
a(S'p2_vo'
I6
tp145
a(S'w'
I2
tp146
a(S'p1_tl'
I82
tp147
a(S'p1_ll'
I1
tp148
a(S'p1_th'
I1
tp149
a(S'w'
I3
tp150
a(S'p1_tl'
I81
tp151
a(S'w'
I1
tp152
a(S'p1_du'
I3
tp153
a(S'p1_vo'
I6
tp154
a(S'w'
I2
tp155
a(S'tr_lh'
I1
tp156
a(S'tr_lr'
I1
tp157
a(S'w'
I1
tp158
a(S'tr_ll'
I1
tp159
a(S'w'
I721
tp160
a(S'w'
I4
tp161
a(S'w'
I730
tp162
a(S'w'
I4
tp163
a(S'w'
I730
tp164
a(S'p2_tl'
I254
tp165
a(S'w'
I4
tp166
a(S'p1_tl'
I83
tp167
a(S'w'
I730
tp168
a(S'w'
I1
tp169
a(S'p2_vo'
I5
tp170
a(S'w'
I3
tp171
a(S'w'
I1
tp172
a(S'p1_vo'
I5
tp173
a(S'w'
I728
tp174
a(S'w'
I4
tp175
a(S'w'
I730
tp176
a(S'w'
I4
tp177
a(S'w'
I730
tp178
a(S'p2_tl'
I252
tp179
a(S'w'
I4
tp180
a(S'p1_tl'
I81
tp181
a(S'w'
I730
tp182
a(S'w'
I4
tp183
a(S'w'
I3
tp184
a(S'tr_lh'
I0
tp185
a(S'tr_lr'
I0
tp186
a(S'w'
I725
tp187
a(S'p2_du'
I0
tp188
a(S'p2_vo'
I0
tp189
a(S'w'
I2
tp190
a(S'p1_du'
I0
tp191
a(S'p1_vo'
I0
tp192
a(S'w'
I733
tp193
a(S'p2_tl'
I168
tp194
a(S'w'
I1
tp195
a(S'p2_ll'
I1
tp196
a(S'w'
I3
tp197
a(S'p2_tl'
I169
tp198
a(S'w'
I1
tp199
a(S'p2_du'
I3
tp200
a(S'p2_vo'
I6
tp201
a(S'w'
I3
tp202
a(S'p1_tl'
I212
tp203
a(S'w'
I1
tp204
a(S'p1_ll'
I1
tp205
a(S'p1_th'
I0
tp206
a(S'w'
I2
tp207
a(S'p1_tl'
I213
tp208
a(S'w'
I2
tp209
a(S'p1_du'
I3
tp210
a(S'p1_vo'
I6
tp211
a(S'w'
I1
tp212
a(S'tr_lh'
I1
tp213
a(S'tr_lr'
I1
tp214
a(S'w'
I2
tp215
a(S'tr_ll'
I1
tp216
a(S'w'
I718
tp217
a(S'p2_tl'
I167
tp218
a(S'w'
I4
tp219
a(S'p1_tl'
I211
tp220
a(S'w'
I730
tp221
a(S'w'
I4
tp222
a(S'w'
I730
tp223
a(S'w'
I4
tp224
a(S'w'
I729
tp225
a(S'w'
I1
tp226
a(S'p2_vo'
I5
tp227
a(S'w'
I3
tp228
a(S'w'
I1
tp229
a(S'p1_vo'
I5
tp230
a(S'w'
I729
tp231
a(S'p2_tl'
I169
tp232
a(S'w'
I4
tp233
a(S'p1_tl'
I213
tp234
a(S'w'
I730
tp235
a(S'w'
I4
tp236
a(S'w'
I730
tp237
a(S'w'
I4
tp238
a(S'w'
I730
tp239
a(S'w'
I4
tp240
a(S'w'
I3
tp241
a(S'tr_lh'
I0
tp242
a(S'tr_lr'
I0
tp243
a(S'w'
I726
tp244
a(S'p2_tl'
I167
tp245
a(S'w'
I4
tp246
a(S'p1_tl'
I211
tp247
a(S'w'
I730
tp248
a(S'w'
I4
tp249
a(S'w'
I3
tp250
a(S'tr_lh'
I1
tp251
a(S'tr_lr'
I1
tp252
a(S'w'
I1
tp253
a(S'tr_ll'
I1
tp254
a(S'w'
I726
tp255
a(S'w'
I4
tp256
a(S'w'
I730
tp257
a(S'w'
I1
tp258
a(S'p2_vo'
I4
tp259
a(S'w'
I3
tp260
a(S'w'
I1
tp261
a(S'p1_vo'
I4
tp262
a(S'w'
I729
tp263
a(S'p2_tl'
I169
tp264
a(S'w'
I4
tp265
a(S'p1_tl'
I213
tp266
a(S'w'
I729
tp267
a(S'w'
I4
tp268
a(S'w'
I730
tp269
a(S'w'
I4
tp270
a(S'w'
I730
tp271
a(S'w'
I4
tp272
a(S'w'
I730
tp273
a(S'p2_tl'
I167
tp274
a(S'w'
I4
tp275
a(S'p1_tl'
I211
tp276
a(S'w'
I730
tp277
a(S'w'
I4
tp278
a(S'w'
I3
tp279
a(S'tr_lh'
I0
tp280
a(S'tr_lr'
I0
tp281
a(S'w'
I725
tp282
a(S'p2_du'
I0
tp283
a(S'p2_vo'
I0
tp284
a(S'w'
I2
tp285
a(S'p1_du'
I0
tp286
a(S'p1_vo'
I0
tp287
a(S'w'
I733
tp288
a(S'p2_tl'
I82
tp289
a(S'w'
I1
tp290
a(S'p2_ll'
I1
tp291
a(S'p2_th'
I1
tp292
a(S'w'
I3
tp293
a(S'p2_tl'
I81
tp294
a(S'w'
I1
tp295
a(S'p2_du'
I3
tp296
a(S'p2_vo'
I6
tp297
a(S'w'
I3
tp298
a(S'p1_tl'
I171
tp299
a(S'w'
I1
tp300
a(S'p1_ll'
I1
tp301
a(S'p1_th'
I1
tp302
a(S'w'
I2
tp303
a(S'p1_tl'
I170
tp304
a(S'w'
I2
tp305
a(S'p1_du'
I3
tp306
a(S'p1_vo'
I6
tp307
a(S'w'
I2
tp308
a(S'tr_lh'
I1
tp309
a(S'tr_lr'
I1
tp310
a(S'w'
I1
tp311
a(S'tr_ll'
I1
tp312
a(S'w'
I718
tp313
a(S'w'
I4
tp314
a(S'w'
I730
tp315
a(S'w'
I4
tp316
a(S'w'
I729
tp317
a(S'p2_tl'
I83
tp318
a(S'w'
I4
tp319
a(S'p1_tl'
I172
tp320
a(S'w'
I730
tp321
a(S'w'
I1
tp322
a(S'p2_vo'
I5
tp323
a(S'w'
I3
tp324
a(S'w'
I1
tp325
a(S'p1_vo'
I5
tp326
a(S'w'
I729
tp327
a(S'w'
I4
tp328
a(S'w'
I730
tp329
a(S'w'
I4
tp330
a(S'w'
I730
tp331
a(S'p2_tl'
I81
tp332
a(S'w'
I4
tp333
a(S'p1_tl'
I170
tp334
a(S'w'
I729
tp335
a(S'w'
I4
tp336
a(S'w'
I3
tp337
a(S'tr_lh'
I0
tp338
a(S'tr_lr'
I0
tp339
a(S'w'
I726
tp340
a(S'p2_du'
I0
tp341
a(S'p2_vo'
I0
tp342
a(S'w'
I2
tp343
a(S'p1_du'
I0
tp344
a(S'p1_vo'
I0
tp345
a(S'w'
I732
tp346
a(S'p2_tl'
I82
tp347
a(S'w'
I1
tp348
a(S'p2_ll'
I1
tp349
a(S'w'
I3
tp350
a(S'p2_tl'
I81
tp351
a(S'w'
I1
tp352
a(S'p2_du'
I3
tp353
a(S'p2_vo'
I6
tp354
a(S'w'
I2
tp355
a(S'p1_tl'
I171
tp356
a(S'p1_ll'
I1
tp357
a(S'w'
I3
tp358
a(S'p1_tl'
I170
tp359
a(S'w'
I1
tp360
a(S'p1_du'
I3
tp361
a(S'p1_vo'
I6
tp362
a(S'w'
I2
tp363
a(S'tr_lh'
I1
tp364
a(S'tr_lr'
I1
tp365
a(S'w'
I1
tp366
a(S'tr_ll'
I1
tp367
a(S'w'
I721
tp368
a(S'w'
I4
tp369
a(S'w'
I730
tp370
a(S'w'
I4
tp371
a(S'w'
I729
tp372
a(S'p2_tl'
I83
tp373
a(S'w'
I4
tp374
a(S'p1_tl'
I172
tp375
a(S'w'
I730
tp376
a(S'w'
I1
tp377
a(S'p2_vo'
I5
tp378
a(S'w'
I3
tp379
a(S'w'
I1
tp380
a(S'p1_vo'
I5
tp381
a(S'w'
I729
tp382
a(S'w'
I4
tp383
a(S'w'
I730
tp384
a(S'w'
I4
tp385
a(S'w'
I730
tp386
a(S'p2_tl'
I81
tp387
a(S'w'
I4
tp388
a(S'p1_tl'
I170
tp389
a(S'w'
I729
tp390
a(S'w'
I4
tp391
a(S'w'
I3
tp392
a(S'tr_lh'
I0
tp393
a(S'tr_lr'
I0
tp394
a(S'w'
I726
tp395
a(S'p2_du'
I0
tp396
a(S'p2_vo'
I0
tp397
a(S'w'
I2
tp398
a(S'p1_du'
I0
tp399
a(S'p1_vo'
I0
tp400
a(S'w'
I739
tp401
a(S'tr_lh'
I1
tp402
a(S'tr_lr'
I1
tp403
a(S'w'
I1
tp404
a(S'tr_ll'
I1
tp405
a(S'w'
I5866
tp406
a(S'tr_lh'
I0
tp407
a(S'tr_lr'
I0
tp408
a(S'w'
I1465
tp409
a(S'p2_tl'
I159
tp410
a(S'w'
I1
tp411
a(S'p2_ll'
I1
tp412
a(S'p2_th'
I0
tp413
a(S'w'
I3
tp414
a(S'p2_tl'
I158
tp415
a(S'w'
I1
tp416
a(S'p2_du'
I3
tp417
a(S'p2_vo'
I6
tp418
a(S'w'
I3
tp419
a(S'p1_tl'
I189
tp420
a(S'w'
I1
tp421
a(S'p1_ll'
I1
tp422
a(S'p1_th'
I0
tp423
a(S'w'
I2
tp424
a(S'p1_tl'
I188
tp425
a(S'w'
I2
tp426
a(S'p1_du'
I3
tp427
a(S'p1_vo'
I6
tp428
a(S'w'
I3
tp429
a(S'tr_lh'
I1
tp430
a(S'tr_lr'
I1
tp431
a(S'tr_tl'
I63
tp432
a(S'w'
I1
tp433
a(S'tr_ll'
I1
tp434
a(S'tr_th'
I1
tp435
a(S'w'
I717
tp436
a(S'w'
I4
tp437
a(S'w'
I729
tp438
a(S'w'
I4
tp439
a(S'w'
I730
tp440
a(S'p2_tl'
I160
tp441
a(S'w'
I4
tp442
a(S'p1_tl'
I190
tp443
a(S'w'
I730
tp444
a(S'w'
I1
tp445
a(S'p2_vo'
I5
tp446
a(S'w'
I3
tp447
a(S'w'
I1
tp448
a(S'p1_vo'
I5
tp449
a(S'w'
I729
tp450
a(S'w'
I4
tp451
a(S'w'
I730
tp452
a(S'w'
I4
tp453
a(S'w'
I729
tp454
a(S'p2_tl'
I158
tp455
a(S'w'
I4
tp456
a(S'p1_tl'
I188
tp457
a(S'w'
I730
tp458
a(S'w'
I4
tp459
a(S'w'
I3
tp460
a(S'tr_lh'
I0
tp461
a(S'tr_lr'
I0
tp462
a(S'w'
I726
tp463
a(S'p2_du'
I0
tp464
a(S'p2_vo'
I0
tp465
a(S'w'
I2
tp466
a(S'p1_du'
I0
tp467
a(S'p1_vo'
I0
tp468
a(S'w'
I732
tp469
a(S'p2_tl'
I189
tp470
a(S'w'
I1
tp471
a(S'p2_ll'
I1
tp472
a(S'w'
I2
tp473
a(S'p2_tl'
I188
tp474
a(S'w'
I2
tp475
a(S'p2_du'
I3
tp476
a(S'p2_vo'
I6
tp477
a(S'w'
I2
tp478
a(S'p1_tl'
I253
tp479
a(S'p1_ll'
I1
tp480
a(S'w'
I3
tp481
a(S'p1_tl'
I252
tp482
a(S'w'
I1
tp483
a(S'p1_du'
I3
tp484
a(S'p1_vo'
I6
tp485
a(S'w'
I2
tp486
a(S'tr_lh'
I1
tp487
a(S'tr_lr'
I1
tp488
a(S'w'
I1
tp489
a(S'tr_ll'
I1
tp490
a(S'w'
I721
tp491
a(S'w'
I4
tp492
a(S'w'
I729
tp493
a(S'w'
I4
tp494
a(S'w'
I730
tp495
a(S'p2_tl'
I190
tp496
a(S'w'
I4
tp497
a(S'p1_tl'
I254
tp498
a(S'w'
I730
tp499
a(S'w'
I1
tp500
a(S'p2_vo'
I5
tp501
a(S'w'
I3
tp502
a(S'w'
I1
tp503
a(S'p1_vo'
I5
tp504
a(S'w'
I729
tp505
a(S'w'
I4
tp506
a(S'w'
I730
tp507
a(S'w'
I4
tp508
a(S'w'
I729
tp509
a(S'p2_tl'
I188
tp510
a(S'w'
I4
tp511
a(S'p1_tl'
I252
tp512
a(S'w'
I730
tp513
a(S'w'
I4
tp514
a(S'w'
I3
tp515
a(S'tr_lh'
I0
tp516
a(S'tr_lr'
I0
tp517
a(S'w'
I726
tp518
a(S'p2_du'
I0
tp519
a(S'p2_vo'
I0
tp520
a(S'w'
I2
tp521
a(S'p1_du'
I0
tp522
a(S'p1_vo'
I0
tp523
a(S'w'
I732
tp524
a(S'p2_tl'
I253
tp525
a(S'w'
I1
tp526
a(S'p2_ll'
I1
tp527
a(S'w'
I3
tp528
a(S'p2_tl'
I252
tp529
a(S'w'
I1
tp530
a(S'p2_du'
I3
tp531
a(S'p2_vo'
I6
tp532
a(S'w'
I2
tp533
a(S'p1_tl'
I63
tp534
a(S'p1_ll'
I1
tp535
a(S'p1_th'
I1
tp536
a(S'w'
I3
tp537
a(S'p1_tl'
I62
tp538
a(S'w'
I1
tp539
a(S'p1_du'
I3
tp540
a(S'p1_vo'
I6
tp541
a(S'w'
I2
tp542
a(S'tr_lh'
I1
tp543
a(S'tr_lr'
I1
tp544
a(S'w'
I1
tp545
a(S'tr_ll'
I1
tp546
a(S'w'
I720
tp547
a(S'w'
I4
tp548
a(S'w'
I730
tp549
a(S'w'
I4
tp550
a(S'w'
I730
tp551
a(S'p2_tl'
I254
tp552
a(S'w'
I4
tp553
a(S'p1_tl'
I64
tp554
a(S'w'
I730
tp555
a(S'w'
I1
tp556
a(S'p2_vo'
I5
tp557
a(S'w'
I3
tp558
a(S'w'
I1
tp559
a(S'p1_vo'
I5
tp560
a(S'w'
I729
tp561
a(S'w'
I4
tp562
a(S'w'
I729
tp563
a(S'w'
I4
tp564
a(S'w'
I730
tp565
a(S'p2_tl'
I252
tp566
a(S'w'
I4
tp567
a(S'p1_tl'
I62
tp568
a(S'w'
I730
tp569
a(S'w'
I4
tp570
a(S'w'
I3
tp571
a(S'tr_lh'
I0
tp572
a(S'tr_lr'
I0
tp573
a(S'w'
I726
tp574
a(S'p2_du'
I0
tp575
a(S'p2_vo'
I0
tp576
a(S'w'
I2
tp577
a(S'p1_du'
I0
tp578
a(S'p1_vo'
I0
tp579
a(S'w'
I733
tp580
a(S'p2_tl'
I159
tp581
a(S'w'
I1
tp582
a(S'p2_ll'
I1
tp583
a(S'w'
I3
tp584
a(S'p2_tl'
I160
tp585
a(S'w'
I1
tp586
a(S'p2_du'
I3
tp587
a(S'p2_vo'
I6
tp588
a(S'w'
I3
tp589
a(S'p1_tl'
I189
tp590
a(S'w'
I1
tp591
a(S'p1_ll'
I1
tp592
a(S'p1_th'
I0
tp593
a(S'w'
I2
tp594
a(S'p1_tl'
I190
tp595
a(S'w'
I2
tp596
a(S'p1_du'
I3
tp597
a(S'p1_vo'
I6
tp598
a(S'w'
I1
tp599
a(S'tr_lh'
I1
tp600
a(S'tr_lr'
I1
tp601
a(S'w'
I2
tp602
a(S'tr_ll'
I1
tp603
a(S'w'
I717
tp604
a(S'p2_tl'
I158
tp605
a(S'w'
I4
tp606
a(S'p1_tl'
I188
tp607
a(S'w'
I730
tp608
a(S'w'
I4
tp609
a(S'w'
I730
tp610
a(S'w'
I4
tp611
a(S'w'
I730
tp612
a(S'w'
I1
tp613
a(S'p2_vo'
I5
tp614
a(S'w'
I3
tp615
a(S'w'
I1
tp616
a(S'p1_vo'
I5
tp617
a(S'w'
I729
tp618
a(S'p2_tl'
I160
tp619
a(S'w'
I4
tp620
a(S'p1_tl'
I190
tp621
a(S'w'
I729
tp622
a(S'w'
I4
tp623
a(S'w'
I730
tp624
a(S'w'
I4
tp625
a(S'w'
I730
tp626
a(S'w'
I4
tp627
a(S'w'
I3
tp628
a(S'tr_lh'
I0
tp629
a(S'tr_lr'
I0
tp630
a(S'w'
I727
tp631
a(S'p2_tl'
I158
tp632
a(S'w'
I4
tp633
a(S'p1_tl'
I188
tp634
a(S'w'
I730
tp635
a(S'w'
I4
tp636
a(S'w'
I3
tp637
a(S'tr_lh'
I1
tp638
a(S'tr_lr'
I1
tp639
a(S'w'
I1
tp640
a(S'tr_ll'
I1
tp641
a(S'w'
I725
tp642
a(S'w'
I4
tp643
a(S'w'
I730
tp644
a(S'w'
I1
tp645
a(S'p2_vo'
I4
tp646
a(S'w'
I3
tp647
a(S'w'
I1
tp648
a(S'p1_vo'
I4
tp649
a(S'w'
I729
tp650
a(S'p2_tl'
I160
tp651
a(S'w'
I4
tp652
a(S'p1_tl'
I190
tp653
a(S'w'
I730
tp654
a(S'w'
I4
tp655
a(S'w'
I729
tp656
a(S'w'
I4
tp657
a(S'w'
I730
tp658
a(S'w'
I4
tp659
a(S'w'
I730
tp660
a(S'p2_tl'
I158
tp661
a(S'w'
I4
tp662
a(S'p1_tl'
I188
tp663
a(S'w'
I730
tp664
a(S'w'
I4
tp665
a(S'w'
I3
tp666
a(S'tr_lh'
I0
tp667
a(S'tr_lr'
I0
tp668
a(S'w'
I726
tp669
a(S'p2_du'
I0
tp670
a(S'p2_vo'
I0
tp671
a(S'w'
I2
tp672
a(S'p1_du'
I0
tp673
a(S'p1_vo'
I0
tp674
a(S'w'
I732
tp675
a(S'p2_tl'
I63
tp676
a(S'w'
I1
tp677
a(S'p2_ll'
I1
tp678
a(S'p2_th'
I1
tp679
a(S'w'
I3
tp680
a(S'p2_tl'
I62
tp681
a(S'w'
I1
tp682
a(S'p2_du'
I3
tp683
a(S'p2_vo'
I6
tp684
a(S'w'
I3
tp685
a(S'p1_tl'
I124
tp686
a(S'w'
I1
tp687
a(S'p1_ll'
I1
tp688
a(S'p1_th'
I1
tp689
a(S'w'
I2
tp690
a(S'p1_tl'
I123
tp691
a(S'w'
I2
tp692
a(S'p1_du'
I3
tp693
a(S'p1_vo'
I6
tp694
a(S'w'
I2
tp695
a(S'tr_lh'
I1
tp696
a(S'tr_lr'
I1
tp697
a(S'w'
I1
tp698
a(S'tr_ll'
I1
tp699
a(S'w'
I718
tp700
a(S'w'
I4
tp701
a(S'w'
I730
tp702
a(S'w'
I4
tp703
a(S'w'
I730
tp704
a(S'p2_tl'
I64
tp705
a(S'w'
I4
tp706
a(S'p1_tl'
I125
tp707
a(S'w'
I730
tp708
a(S'w'
I1
tp709
a(S'p2_vo'
I5
tp710
a(S'w'
I3
tp711
a(S'w'
I1
tp712
a(S'p1_vo'
I5
tp713
a(S'w'
I728
tp714
a(S'w'
I4
tp715
a(S'w'
I730
tp716
a(S'w'
I4
tp717
a(S'w'
I730
tp718
a(S'p2_tl'
I62
tp719
a(S'w'
I4
tp720
a(S'p1_tl'
I123
tp721
a(S'w'
I730
tp722
a(S'w'
I4
tp723
a(S'w'
I3
tp724
a(S'tr_lh'
I0
tp725
a(S'tr_lr'
I0
tp726
a(S'w'
I726
tp727
a(S'p2_du'
I0
tp728
a(S'p2_vo'
I0
tp729
a(S'w'
I2
tp730
a(S'p1_du'
I0
tp731
a(S'p1_vo'
I0
tp732
a(S'w'
I731
tp733
a(S'p2_tl'
I63
tp734
a(S'w'
I1
tp735
a(S'p2_ll'
I1
tp736
a(S'w'
I3
tp737
a(S'p2_tl'
I62
tp738
a(S'w'
I1
tp739
a(S'p2_du'
I3
tp740
a(S'p2_vo'
I6
tp741
a(S'w'
I2
tp742
a(S'p1_tl'
I124
tp743
a(S'p1_ll'
I1
tp744
a(S'w'
I3
tp745
a(S'p1_tl'
I123
tp746
a(S'w'
I1
tp747
a(S'p1_du'
I3
tp748
a(S'p1_vo'
I6
tp749
a(S'w'
I2
tp750
a(S'tr_lh'
I1
tp751
a(S'tr_lr'
I1
tp752
a(S'w'
I1
tp753
a(S'tr_ll'
I1
tp754
a(S'w'
I721
tp755
a(S'w'
I4
tp756
a(S'w'
I730
tp757
a(S'w'
I4
tp758
a(S'w'
I730
tp759
a(S'p2_tl'
I64
tp760
a(S'w'
I4
tp761
a(S'p1_tl'
I125
tp762
a(S'w'
I730
tp763
a(S'w'
I1
tp764
a(S'p2_vo'
I5
tp765
a(S'w'
I3
tp766
a(S'w'
I1
tp767
a(S'p1_vo'
I5
tp768
a(S'w'
I728
tp769
a(S'w'
I4
tp770
a(S'w'
I730
tp771
a(S'w'
I4
tp772
a(S'w'
I730
tp773
a(S'p2_tl'
I62
tp774
a(S'w'
I4
tp775
a(S'p1_tl'
I123
tp776
a(S'w'
I730
tp777
a(S'w'
I4
tp778
a(S'w'
I3
tp779
a(S'tr_lh'
I0
tp780
a(S'tr_lr'
I0
tp781
a(S'w'
I725
tp782
a(S'p2_du'
I0
tp783
a(S'p2_vo'
I0
tp784
a(S'w'
I2
tp785
a(S'p1_du'
I0
tp786
a(S'p1_vo'
I0
tp787
a(S'w'
I739
tp788
a(S'tr_lh'
I1
tp789
a(S'tr_lr'
I1
tp790
a(S'w'
I1
tp791
a(S'tr_ll'
I1
tp792
a(S'w'
I5867
tp793
a(S'tr_lh'
I0
tp794
a(S'tr_lr'
I0
tp795
a(S'w'
I1464
tp796
a(S'p2_tl'
I168
tp797
a(S'w'
I1
tp798
a(S'p2_ll'
I1
tp799
a(S'p2_th'
I0
tp800
a(S'w'
I3
tp801
a(S'p2_tl'
I167
tp802
a(S'w'
I1
tp803
a(S'p2_du'
I3
tp804
a(S'p2_vo'
I6
tp805
a(S'w'
I3
tp806
a(S'p1_tl'
I212
tp807
a(S'w'
I1
tp808
a(S'p1_ll'
I1
tp809
a(S'p1_th'
I0
tp810
a(S'w'
I2
tp811
a(S'p1_tl'
I211
tp812
a(S'w'
I2
tp813
a(S'p1_du'
I3
tp814
a(S'p1_vo'
I6
tp815
a(S'w'
I3
tp816
a(S'tr_lh'
I1
tp817
a(S'tr_lr'
I1
tp818
a(S'tr_tl'
I253
tp819
a(S'w'
I1
tp820
a(S'tr_ll'
I1
tp821
a(S'tr_th'
I0
tp822
a(S'w'
I717
tp823
a(S'w'
I4
tp824
a(S'w'
I730
tp825
a(S'w'
I4
tp826
a(S'w'
I730
tp827
a(S'p2_tl'
I169
tp828
a(S'w'
I4
tp829
a(S'p1_tl'
I213
tp830
a(S'w'
I729
tp831
a(S'w'
I1
tp832
a(S'p2_vo'
I5
tp833
a(S'w'
I3
tp834
a(S'w'
I1
tp835
a(S'p1_vo'
I5
tp836
a(S'w'
I729
tp837
a(S'w'
I4
tp838
a(S'w'
I730
tp839
a(S'w'
I4
tp840
a(S'w'
I730
tp841
a(S'p2_tl'
I167
tp842
a(S'w'
I4
tp843
a(S'p1_tl'
I211
tp844
a(S'w'
I730
tp845
a(S'w'
I4
tp846
a(S'w'
I3
tp847
a(S'tr_lh'
I0
tp848
a(S'tr_lr'
I0
tp849
a(S'w'
I725
tp850
a(S'p2_du'
I0
tp851
a(S'p2_vo'
I0
tp852
a(S'w'
I2
tp853
a(S'p1_du'
I0
tp854
a(S'p1_vo'
I0
tp855
a(S'w'
I732
tp856
a(S'p2_tl'
I212
tp857
a(S'w'
I1
tp858
a(S'p2_ll'
I1
tp859
a(S'w'
I3
tp860
a(S'p2_tl'
I211
tp861
a(S'w'
I1
tp862
a(S'p2_du'
I3
tp863
a(S'p2_vo'
I6
tp864
a(S'w'
I2
tp865
a(S'p1_tl'
I253
tp866
a(S'p1_ll'
I1
tp867
a(S'w'
I3
tp868
a(S'p1_tl'
I252
tp869
a(S'w'
I1
tp870
a(S'p1_du'
I3
tp871
a(S'p1_vo'
I6
tp872
a(S'w'
I2
tp873
a(S'tr_lh'
I1
tp874
a(S'tr_lr'
I1
tp875
a(S'w'
I1
tp876
a(S'tr_ll'
I1
tp877
a(S'w'
I721
tp878
a(S'w'
I4
tp879
a(S'w'
I730
tp880
a(S'w'
I4
tp881
a(S'w'
I729
tp882
a(S'p2_tl'
I213
tp883
a(S'w'
I4
tp884
a(S'p1_tl'
I254
tp885
a(S'w'
I730
tp886
a(S'w'
I1
tp887
a(S'p2_vo'
I5
tp888
a(S'w'
I3
tp889
a(S'w'
I1
tp890
a(S'p1_vo'
I5
tp891
a(S'w'
I729
tp892
a(S'w'
I4
tp893
a(S'w'
I730
tp894
a(S'w'
I4
tp895
a(S'w'
I730
tp896
a(S'p2_tl'
I211
tp897
a(S'w'
I4
tp898
a(S'p1_tl'
I252
tp899
a(S'w'
I729
tp900
a(S'w'
I4
tp901
a(S'w'
I3
tp902
a(S'tr_lh'
I0
tp903
a(S'tr_lr'
I0
tp904
a(S'w'
I726
tp905
a(S'p2_du'
I0
tp906
a(S'p2_vo'
I0
tp907
a(S'w'
I2
tp908
a(S'p1_du'
I0
tp909
a(S'p1_vo'
I0
tp910
a(S'w'
I732
tp911
a(S'p2_tl'
I253
tp912
a(S'w'
I1
tp913
a(S'p2_ll'
I1
tp914
a(S'w'
I2
tp915
a(S'p2_tl'
I252
tp916
a(S'w'
I2
tp917
a(S'p2_du'
I3
tp918
a(S'p2_vo'
I6
tp919
a(S'w'
I2
tp920
a(S'p1_tl'
I82
tp921
a(S'p1_ll'
I1
tp922
a(S'p1_th'
I1
tp923
a(S'w'
I3
tp924
a(S'p1_tl'
I81
tp925
a(S'w'
I1
tp926
a(S'p1_du'
I3
tp927
a(S'p1_vo'
I6
tp928
a(S'w'
I2
tp929
a(S'tr_lh'
I1
tp930
a(S'tr_lr'
I1
tp931
a(S'w'
I1
tp932
a(S'tr_ll'
I1
tp933
a(S'w'
I721
tp934
a(S'w'
I4
tp935
a(S'w'
I730
tp936
a(S'w'
I4
tp937
a(S'w'
I729
tp938
a(S'p2_tl'
I254
tp939
a(S'w'
I4
tp940
a(S'p1_tl'
I83
tp941
a(S'w'
I730
tp942
a(S'w'
I1
tp943
a(S'p2_vo'
I5
tp944
a(S'w'
I3
tp945
a(S'w'
I1
tp946
a(S'p1_vo'
I5
tp947
a(S'w'
I729
tp948
a(S'w'
I4
tp949
a(S'w'
I730
tp950
a(S'w'
I4
tp951
a(S'w'
I730
tp952
a(S'p2_tl'
I252
tp953
a(S'w'
I4
tp954
a(S'p1_tl'
I81
tp955
a(S'w'
I729
tp956
a(S'w'
I4
tp957
a(S'w'
I3
tp958
a(S'tr_lh'
I0
tp959
a(S'tr_lr'
I0
tp960
a(S'w'
I726
tp961
a(S'p2_du'
I0
tp962
a(S'p2_vo'
I0
tp963
a(S'w'
I2
tp964
a(S'p1_du'
I0
tp965
a(S'p1_vo'
I0
tp966
a(S'w'
I733
tp967
a(S'p2_tl'
I168
tp968
a(S'w'
I1
tp969
a(S'p2_ll'
I1
tp970
a(S'w'
I3
tp971
a(S'p2_tl'
I169
tp972
a(S'w'
I1
tp973
a(S'p2_du'
I3
tp974
a(S'p2_vo'
I6
tp975
a(S'w'
I3
tp976
a(S'p1_tl'
I212
tp977
a(S'w'
I1
tp978
a(S'p1_ll'
I1
tp979
a(S'p1_th'
I0
tp980
a(S'w'
I2
tp981
a(S'p1_tl'
I213
tp982
a(S'w'
I2
tp983
a(S'p1_du'
I3
tp984
a(S'p1_vo'
I6
tp985
a(S'w'
I1
tp986
a(S'tr_lh'
I1
tp987
a(S'tr_lr'
I1
tp988
a(S'w'
I2
tp989
a(S'tr_ll'
I1
tp990
a(S'w'
I718
tp991
a(S'p2_tl'
I167
tp992
a(S'w'
I4
tp993
a(S'p1_tl'
I211
tp994
a(S'w'
I730
tp995
a(S'w'
I4
tp996
a(S'w'
I729
tp997
a(S'w'
I4
tp998
a(S'w'
I730
tp999
a(S'w'
I1
tp1000
a(S'p2_vo'
I5
tp1001
a(S'w'
I3
tp1002
a(S'w'
I1
tp1003
a(S'p1_vo'
I5
tp1004
a(S'w'
I729
tp1005
a(S'p2_tl'
I169
tp1006
a(S'w'
I4
tp1007
a(S'p1_tl'
I213
tp1008
a(S'w'
I730
tp1009
a(S'w'
I4
tp1010
a(S'w'
I729
tp1011
a(S'w'
I4
tp1012
a(S'w'
I730
tp1013
a(S'w'
I4
tp1014
a(S'w'
I3
tp1015
a(S'tr_lh'
I0
tp1016
a(S'tr_lr'
I0
tp1017
a(S'w'
I727
tp1018
a(S'p2_tl'
I167
tp1019
a(S'w'
I4
tp1020
a(S'p1_tl'
I211
tp1021
a(S'w'
I730
tp1022
a(S'w'
I4
tp1023
a(S'w'
I3
tp1024
a(S'tr_lh'
I1
tp1025
a(S'tr_lr'
I1
tp1026
a(S'w'
I1
tp1027
a(S'tr_ll'
I1
tp1028
a(S'w'
I726
tp1029
a(S'w'
I4
tp1030
a(S'w'
I729
tp1031
a(S'w'
I1
tp1032
a(S'p2_vo'
I4
tp1033
a(S'w'
I3
tp1034
a(S'w'
I1
tp1035
a(S'p1_vo'
I4
tp1036
a(S'w'
I729
tp1037
a(S'p2_tl'
I169
tp1038
a(S'w'
I4
tp1039
a(S'p1_tl'
I213
tp1040
a(S'w'
I730
tp1041
a(S'w'
I4
tp1042
a(S'w'
I730
tp1043
a(S'w'
I4
tp1044
a(S'w'
I730
tp1045
a(S'w'
I4
tp1046
a(S'w'
I729
tp1047
a(S'p2_tl'
I167
tp1048
a(S'w'
I4
tp1049
a(S'p1_tl'
I211
tp1050
a(S'w'
I730
tp1051
a(S'w'
I4
tp1052
a(S'w'
I3
tp1053
a(S'tr_lh'
I0
tp1054
a(S'tr_lr'
I0
tp1055
a(S'w'
I726
tp1056
a(S'p2_du'
I0
tp1057
a(S'p2_vo'
I0
tp1058
a(S'w'
I2
tp1059
a(S'p1_du'
I0
tp1060
a(S'p1_vo'
I0
tp1061
a(S'w'
I733
tp1062
a(S'p2_tl'
I82
tp1063
a(S'w'
I1
tp1064
a(S'p2_ll'
I1
tp1065
a(S'p2_th'
I1
tp1066
a(S'w'
I3
tp1067
a(S'p2_tl'
I81
tp1068
a(S'w'
I1
tp1069
a(S'p2_du'
I3
tp1070
a(S'p2_vo'
I6
tp1071
a(S'w'
I3
tp1072
a(S'p1_tl'
I171
tp1073
a(S'w'
I1
tp1074
a(S'p1_ll'
I1
tp1075
a(S'p1_th'
I1
tp1076
a(S'w'
I2
tp1077
a(S'p1_tl'
I170
tp1078
a(S'w'
I2
tp1079
a(S'p1_du'
I3
tp1080
a(S'p1_vo'
I6
tp1081
a(S'w'
I2
tp1082
a(S'tr_lh'
I1
tp1083
a(S'tr_lr'
I1
tp1084
a(S'w'
I1
tp1085
a(S'tr_ll'
I1
tp1086
a(S'w'
I718
tp1087
a(S'w'
I4
tp1088
a(S'w'
I729
tp1089
a(S'w'
I4
tp1090
a(S'w'
I730
tp1091
a(S'p2_tl'
I83
tp1092
a(S'w'
I4
tp1093
a(S'p1_tl'
I172
tp1094
a(S'w'
I730
tp1095
a(S'w'
I1
tp1096
a(S'p2_vo'
I5
tp1097
a(S'w'
I3
tp1098
a(S'w'
I1
tp1099
a(S'p1_vo'
I5
tp1100
a(S'w'
I729
tp1101
a(S'w'
I4
tp1102
a(S'w'
I730
tp1103
a(S'w'
I4
tp1104
a(S'w'
I729
tp1105
a(S'p2_tl'
I81
tp1106
a(S'w'
I4
tp1107
a(S'p1_tl'
I170
tp1108
a(S'w'
I730
tp1109
a(S'w'
I4
tp1110
a(S'w'
I3
tp1111
a(S'tr_lh'
I0
tp1112
a(S'tr_lr'
I0
tp1113
a(S'w'
I726
tp1114
a(S'p2_du'
I0
tp1115
a(S'p2_vo'
I0
tp1116
a(S'w'
I2
tp1117
a(S'p1_du'
I0
tp1118
a(S'p1_vo'
I0
tp1119
a(S'w'
I732
tp1120
a(S'p2_tl'
I82
tp1121
a(S'w'
I1
tp1122
a(S'p2_ll'
I1
tp1123
a(S'w'
I3
tp1124
a(S'p2_tl'
I81
tp1125
a(S'w'
I1
tp1126
a(S'p2_du'
I3
tp1127
a(S'p2_vo'
I6
tp1128
a(S'w'
I2
tp1129
a(S'p1_tl'
I171
tp1130
a(S'p1_ll'
I1
tp1131
a(S'w'
I3
tp1132
a(S'p1_tl'
I170
tp1133
a(S'w'
I1
tp1134
a(S'p1_du'
I3
tp1135
a(S'p1_vo'
I6
tp1136
a(S'w'
I2
tp1137
a(S'tr_lh'
I1
tp1138
a(S'tr_lr'
I1
tp1139
a(S'w'
I1
tp1140
a(S'tr_ll'
I1
tp1141
a(S'w'
I720
tp1142
a(S'w'
I4
tp1143
a(S'w'
I730
tp1144
a(S'w'
I4
tp1145
a(S'w'
I730
tp1146
a(S'p2_tl'
I83
tp1147
a(S'w'
I4
tp1148
a(S'p1_tl'
I172
tp1149
a(S'w'
I730
tp1150
a(S'w'
I1
tp1151
a(S'p2_vo'
I5
tp1152
a(S'w'
I3
tp1153
a(S'w'
I1
tp1154
a(S'p1_vo'
I5
tp1155
a(S'w'
I729
tp1156
a(S'w'
I4
tp1157
a(S'w'
I729
tp1158
a(S'w'
I4
tp1159
a(S'w'
I730
tp1160
a(S'p2_tl'
I81
tp1161
a(S'w'
I4
tp1162
a(S'p1_tl'
I170
tp1163
a(S'w'
I730
tp1164
a(S'w'
I4
tp1165
a(S'w'
I3
tp1166
a(S'tr_lh'
I0
tp1167
a(S'tr_lr'
I0
tp1168
a(S'w'
I726
tp1169
a(S'p2_du'
I0
tp1170
a(S'p2_vo'
I0
tp1171
a(S'w'
I2
tp1172
a(S'p1_du'
I0
tp1173
a(S'p1_vo'
I0
tp1174
a(S'w'
I739
tp1175
a(S'tr_lh'
I1
tp1176
a(S'tr_lr'
I1
tp1177
a(S'w'
I1
tp1178
a(S'tr_ll'
I1
tp1179
a(S'w'
I5866
tp1180
a(S'tr_lh'
I0
tp1181
a(S'tr_lr'
I0
tp1182
a(S'w'
I1465
tp1183
a(S'p2_tl'
I189
tp1184
a(S'w'
I1
tp1185
a(S'p2_ll'
I1
tp1186
a(S'p2_th'
I0
tp1187
a(S'w'
I3
tp1188
a(S'p2_tl'
I188
tp1189
a(S'w'
I1
tp1190
a(S'p2_du'
I3
tp1191
a(S'p2_vo'
I6
tp1192
a(S'w'
I3
tp1193
a(S'p1_tl'
I225
tp1194
a(S'w'
I1
tp1195
a(S'p1_ll'
I1
tp1196
a(S'p1_th'
I0
tp1197
a(S'w'
I2
tp1198
a(S'p1_tl'
I224
tp1199
a(S'w'
I2
tp1200
a(S'p1_du'
I3
tp1201
a(S'p1_vo'
I6
tp1202
a(S'w'
I3
tp1203
a(S'tr_lh'
I1
tp1204
a(S'tr_lr'
I1
tp1205
a(S'tr_tl'
I28
tp1206
a(S'w'
I1
tp1207
a(S'tr_ll'
I1
tp1208
a(S'tr_th'
I1
tp1209
a(S'w'
I716
tp1210
a(S'w'
I4
tp1211
a(S'w'
I730
tp1212
a(S'w'
I4
tp1213
a(S'w'
I730
tp1214
a(S'p2_tl'
I190
tp1215
a(S'w'
I4
tp1216
a(S'p1_tl'
I226
tp1217
a(S'w'
I730
tp1218
a(S'w'
I1
tp1219
a(S'p2_vo'
I5
tp1220
a(S'w'
I3
tp1221
a(S'w'
I1
tp1222
a(S'p1_vo'
I5
tp1223
a(S'w'
I728
tp1224
a(S'w'
I4
tp1225
a(S'w'
I730
tp1226
a(S'w'
I4
tp1227
a(S'w'
I730
tp1228
a(S'p2_tl'
I188
tp1229
a(S'w'
I4
tp1230
a(S'p1_tl'
I224
tp1231
a(S'w'
I730
tp1232
a(S'w'
I4
tp1233
a(S'w'
I3
tp1234
a(S'tr_lh'
I0
tp1235
a(S'tr_lr'
I0
tp1236
a(S'w'
I726
tp1237
a(S'p2_du'
I0
tp1238
a(S'p2_vo'
I0
tp1239
a(S'w'
I2
tp1240
a(S'p1_du'
I0
tp1241
a(S'p1_vo'
I0
tp1242
a(S'w'
I731
tp1243
a(S'p2_tl'
I225
tp1244
a(S'w'
I1
tp1245
a(S'p2_ll'
I1
tp1246
a(S'w'
I2
tp1247
a(S'p2_tl'
I224
tp1248
a(S'w'
I2
tp1249
a(S'p2_du'
I3
tp1250
a(S'p2_vo'
I6
tp1251
a(S'w'
I2
tp1252
a(S'p1_tl'
I28
tp1253
a(S'p1_ll'
I1
tp1254
a(S'p1_th'
I1
tp1255
a(S'w'
I3
tp1256
a(S'p1_tl'
I27
tp1257
a(S'w'
I1
tp1258
a(S'p1_du'
I3
tp1259
a(S'p1_vo'
I6
tp1260
a(S'w'
I2
tp1261
a(S'tr_lh'
I1
tp1262
a(S'tr_lr'
I1
tp1263
a(S'w'
I1
tp1264
a(S'tr_ll'
I1
tp1265
a(S'w'
I721
tp1266
a(S'w'
I4
tp1267
a(S'w'
I730
tp1268
a(S'w'
I4
tp1269
a(S'w'
I730
tp1270
a(S'p2_tl'
I226
tp1271
a(S'w'
I4
tp1272
a(S'p1_tl'
I29
tp1273
a(S'w'
I730
tp1274
a(S'w'
I1
tp1275
a(S'p2_vo'
I5
tp1276
a(S'w'
I3
tp1277
a(S'w'
I1
tp1278
a(S'p1_vo'
I5
tp1279
a(S'w'
I728
tp1280
a(S'w'
I4
tp1281
a(S'w'
I730
tp1282
a(S'w'
I4
tp1283
a(S'w'
I730
tp1284
a(S'p2_tl'
I224
tp1285
a(S'w'
I4
tp1286
a(S'p1_tl'
I27
tp1287
a(S'w'
I730
tp1288
a(S'w'
I4
tp1289
a(S'w'
I3
tp1290
a(S'tr_lh'
I0
tp1291
a(S'tr_lr'
I0
tp1292
a(S'w'
I726
tp1293
a(S'p2_du'
I0
tp1294
a(S'p2_vo'
I0
tp1295
a(S'w'
I2
tp1296
a(S'p1_du'
I0
tp1297
a(S'p1_vo'
I0
tp1298
a(S'w'
I731
tp1299
a(S'p2_tl'
I28
tp1300
a(S'w'
I1
tp1301
a(S'p2_ll'
I1
tp1302
a(S'p2_th'
I1
tp1303
a(S'w'
I3
tp1304
a(S'p2_tl'
I27
tp1305
a(S'w'
I1
tp1306
a(S'p2_du'
I3
tp1307
a(S'p2_vo'
I6
tp1308
a(S'w'
I2
tp1309
a(S'p1_tl'
I124
tp1310
a(S'p1_ll'
I1
tp1311
a(S'w'
I3
tp1312
a(S'p1_tl'
I123
tp1313
a(S'w'
I1
tp1314
a(S'p1_du'
I3
tp1315
a(S'p1_vo'
I6
tp1316
a(S'w'
I2
tp1317
a(S'tr_lh'
I1
tp1318
a(S'tr_lr'
I1
tp1319
a(S'w'
I1
tp1320
a(S'tr_ll'
I1
tp1321
a(S'w'
I721
tp1322
a(S'w'
I4
tp1323
a(S'w'
I730
tp1324
a(S'w'
I4
tp1325
a(S'w'
I730
tp1326
a(S'p2_tl'
I29
tp1327
a(S'w'
I4
tp1328
a(S'p1_tl'
I125
tp1329
a(S'w'
I730
tp1330
a(S'w'
I1
tp1331
a(S'p2_vo'
I5
tp1332
a(S'w'
I3
tp1333
a(S'w'
I1
tp1334
a(S'p1_vo'
I5
tp1335
a(S'w'
I728
tp1336
a(S'w'
I4
tp1337
a(S'w'
I730
tp1338
a(S'w'
I4
tp1339
a(S'w'
I730
tp1340
a(S'p2_tl'
I27
tp1341
a(S'w'
I4
tp1342
a(S'p1_tl'
I123
tp1343
a(S'w'
I730
tp1344
a(S'w'
I4
tp1345
a(S'w'
I3
tp1346
a(S'tr_lh'
I0
tp1347
a(S'tr_lr'
I0
tp1348
a(S'w'
I725
tp1349
a(S'p2_du'
I0
tp1350
a(S'p2_vo'
I0
tp1351
a(S'w'
I2
tp1352
a(S'p1_du'
I0
tp1353
a(S'p1_vo'
I0
tp1354
a(S'w'
I733
tp1355
a(S'p2_tl'
I189
tp1356
a(S'w'
I1
tp1357
a(S'p2_ll'
I1
tp1358
a(S'p2_th'
I0
tp1359
a(S'w'
I3
tp1360
a(S'p2_tl'
I190
tp1361
a(S'w'
I1
tp1362
a(S'p2_du'
I3
tp1363
a(S'p2_vo'
I6
tp1364
a(S'w'
I3
tp1365
a(S'p1_tl'
I225
tp1366
a(S'w'
I1
tp1367
a(S'p1_ll'
I1
tp1368
a(S'p1_th'
I0
tp1369
a(S'w'
I2
tp1370
a(S'p1_tl'
I226
tp1371
a(S'w'
I2
tp1372
a(S'p1_du'
I3
tp1373
a(S'p1_vo'
I6
tp1374
a(S'w'
I1
tp1375
a(S'tr_lh'
I1
tp1376
a(S'tr_lr'
I1
tp1377
a(S'w'
I2
tp1378
a(S'tr_ll'
I1
tp1379
a(S'w'
I718
tp1380
a(S'p2_tl'
I188
tp1381
a(S'w'
I4
tp1382
a(S'p1_tl'
I224
tp1383
a(S'w'
I730
tp1384
a(S'w'
I4
tp1385
a(S'w'
I730
tp1386
a(S'w'
I4
tp1387
a(S'w'
I729
tp1388
a(S'w'
I1
tp1389
a(S'p2_vo'
I5
tp1390
a(S'w'
I3
tp1391
a(S'w'
I1
tp1392
a(S'p1_vo'
I5
tp1393
a(S'w'
I729
tp1394
a(S'p2_tl'
I190
tp1395
a(S'w'
I4
tp1396
a(S'p1_tl'
I226
tp1397
a(S'w'
I730
tp1398
a(S'w'
I4
tp1399
a(S'w'
I730
tp1400
a(S'w'
I4
tp1401
a(S'w'
I730
tp1402
a(S'w'
I4
tp1403
a(S'w'
I3
tp1404
a(S'tr_lh'
I0
tp1405
a(S'tr_lr'
I0
tp1406
a(S'w'
I726
tp1407
a(S'p2_tl'
I188
tp1408
a(S'w'
I4
tp1409
a(S'p1_tl'
I224
tp1410
a(S'w'
I730
tp1411
a(S'w'
I4
tp1412
a(S'w'
I3
tp1413
a(S'tr_lh'
I1
tp1414
a(S'tr_lr'
I1
tp1415
a(S'w'
I1
tp1416
a(S'tr_ll'
I1
tp1417
a(S'w'
I726
tp1418
a(S'w'
I4
tp1419
a(S'w'
I730
tp1420
a(S'w'
I1
tp1421
a(S'p2_vo'
I4
tp1422
a(S'w'
I3
tp1423
a(S'w'
I1
tp1424
a(S'p1_vo'
I4
tp1425
a(S'w'
I729
tp1426
a(S'p2_tl'
I190
tp1427
a(S'w'
I4
tp1428
a(S'p1_tl'
I226
tp1429
a(S'w'
I729
tp1430
a(S'w'
I4
tp1431
a(S'w'
I730
tp1432
a(S'w'
I4
tp1433
a(S'w'
I730
tp1434
a(S'w'
I4
tp1435
a(S'w'
I730
tp1436
a(S'p2_tl'
I188
tp1437
a(S'w'
I4
tp1438
a(S'p1_tl'
I224
tp1439
a(S'w'
I730
tp1440
a(S'w'
I4
tp1441
a(S'w'
I3
tp1442
a(S'tr_lh'
I0
tp1443
a(S'tr_lr'
I0
tp1444
a(S'w'
I725
tp1445
a(S'p2_du'
I0
tp1446
a(S'p2_vo'
I0
tp1447
a(S'w'
I2
tp1448
a(S'p1_du'
I0
tp1449
a(S'p1_vo'
I0
tp1450
a(S'w'
I733
tp1451
a(S'p2_tl'
I124
tp1452
a(S'w'
I1
tp1453
a(S'p2_ll'
I1
tp1454
a(S'p2_th'
I1
tp1455
a(S'w'
I3
tp1456
a(S'p2_tl'
I123
tp1457
a(S'w'
I1
tp1458
a(S'p2_du'
I3
tp1459
a(S'p2_vo'
I6
tp1460
a(S'w'
I3
tp1461
a(S'p1_tl'
I196
tp1462
a(S'w'
I1
tp1463
a(S'p1_ll'
I1
tp1464
a(S'p1_th'
I1
tp1465
a(S'w'
I2
tp1466
a(S'p1_tl'
I195
tp1467
a(S'w'
I2
tp1468
a(S'p1_du'
I3
tp1469
a(S'p1_vo'
I6
tp1470
a(S'w'
I2
tp1471
a(S'tr_lh'
I1
tp1472
a(S'tr_lr'
I1
tp1473
a(S'w'
I1
tp1474
a(S'tr_ll'
I1
tp1475
a(S'w'
I718
tp1476
a(S'w'
I4
tp1477
a(S'w'
I730
tp1478
a(S'w'
I4
tp1479
a(S'w'
I729
tp1480
a(S'p2_tl'
I125
tp1481
a(S'w'
I4
tp1482
a(S'p1_tl'
I197
tp1483
a(S'w'
I730
tp1484
a(S'w'
I1
tp1485
a(S'p2_vo'
I5
tp1486
a(S'w'
I3
tp1487
a(S'w'
I1
tp1488
a(S'p1_vo'
I5
tp1489
a(S'w'
I729
tp1490
a(S'w'
I4
tp1491
a(S'w'
I730
tp1492
a(S'w'
I4
tp1493
a(S'w'
I730
tp1494
a(S'p2_tl'
I123
tp1495
a(S'w'
I4
tp1496
a(S'p1_tl'
I195
tp1497
a(S'w'
I729
tp1498
a(S'w'
I4
tp1499
a(S'w'
I3
tp1500
a(S'tr_lh'
I0
tp1501
a(S'tr_lr'
I0
tp1502
a(S'w'
I726
tp1503
a(S'p2_du'
I0
tp1504
a(S'p2_vo'
I0
tp1505
a(S'w'
I2
tp1506
a(S'p1_du'
I0
tp1507
a(S'p1_vo'
I0
tp1508
a(S'w'
I732
tp1509
a(S'p2_tl'
I124
tp1510
a(S'w'
I1
tp1511
a(S'p2_ll'
I1
tp1512
a(S'w'
I2
tp1513
a(S'p2_tl'
I123
tp1514
a(S'w'
I2
tp1515
a(S'p2_du'
I3
tp1516
a(S'p2_vo'
I6
tp1517
a(S'w'
I2
tp1518
a(S'p1_tl'
I196
tp1519
a(S'p1_ll'
I1
tp1520
a(S'w'
I3
tp1521
a(S'p1_tl'
I195
tp1522
a(S'w'
I1
tp1523
a(S'p1_du'
I3
tp1524
a(S'p1_vo'
I6
tp1525
a(S'w'
I2
tp1526
a(S'tr_lh'
I1
tp1527
a(S'tr_lr'
I1
tp1528
a(S'w'
I1
tp1529
a(S'tr_ll'
I1
tp1530
a(S'w'
I721
tp1531
a(S'w'
I4
tp1532
a(S'w'
I730
tp1533
a(S'w'
I4
tp1534
a(S'w'
I729
tp1535
a(S'p2_tl'
I125
tp1536
a(S'w'
I4
tp1537
a(S'p1_tl'
I197
tp1538
a(S'w'
I730
tp1539
a(S'w'
I1
tp1540
a(S'p2_vo'
I5
tp1541
a(S'w'
I3
tp1542
a(S'w'
I1
tp1543
a(S'p1_vo'
I5
tp1544
a(S'w'
I729
tp1545
a(S'w'
I4
tp1546
a(S'w'
I730
tp1547
a(S'w'
I4
tp1548
a(S'w'
I730
tp1549
a(S'p2_tl'
I123
tp1550
a(S'w'
I4
tp1551
a(S'p1_tl'
I195
tp1552
a(S'w'
I729
tp1553
a(S'w'
I4
tp1554
a(S'w'
I3
tp1555
a(S'tr_lh'
I0
tp1556
a(S'tr_lr'
I0
tp1557
a(S'w'
I726
tp1558
a(S'p2_du'
I0
tp1559
a(S'p2_vo'
I0
tp1560
a(S'w'
I2
tp1561
a(S'p1_du'
I0
tp1562
a(S'p1_vo'
I0
tp1563
a(S'w'
I739
tp1564
a(S'tr_lh'
I1
tp1565
a(S'tr_lr'
I1
tp1566
a(S'w'
I1
tp1567
a(S'tr_ll'
I1
tp1568
a(S'w'
I5866
tp1569
a(S'tr_lh'
I0
tp1570
a(S'tr_lr'
I0
tp1571
a(S'w'
I1471
tp1572
a.