(lp1
(S'clock'
p2
I1789772
tp3
a(S'no_cv'
I1
tp4
a(S'ch_no'
I1
tp5
a(S'ch_tr'
I1
tp6
a(S'ch_p2'
I1
tp7
a(S'ch_p1'
I1
tp8
a(S'no_cv'
I0
tp9
a(S'w'
I1
tp10
a(S'no_np'
I5
tp11
a(S'no_ll'
I0
tp12
a(S'w'
I3
tp13
a(S'p1_du'
I1
tp14
a(S'p1_lh'
I1
tp15
a(S'p1_cv'
I1
tp16
a(S'w'
I1
tp17
a(S'p2_lh'
I1
tp18
a(S'p2_cv'
I1
tp19
a(S'w'
I2909
tp20
a(S'w'
I1
tp21
a(S'no_ll'
I0
tp22
a(S'w'
I2935
tp23
a(S'no_ll'
I0
tp24
a(S'w'
I2935
tp25
a(S'no_ll'
I0
tp26
a(S'w'
I2935
tp27
a(S'no_ll'
I0
tp28
a(S'w'
I5870
tp29
a(S'w'
I1
tp30
a(S'no_ll'
I0
tp31
a(S'w'
I5870
tp32
a(S'no_vo'
I5
tp33
a(S'no_np'
I2
tp34
a(S'no_ll'
I18
tp35
a(S'w'
I11741
tp36
a(S'no_ll'
I18
tp37
a(S'w'
I11740
tp38
a(S'no_vo'
I0
tp39
a(S'w'
I1
tp40
a(S'no_np'
I5
tp41
a(S'no_ll'
I0
tp42
a(S'w'
I5870
tp43
a(S'no_ll'
I0
tp44
a(S'w'
I5870
tp45
a(S'w'
I1
tp46
a(S'no_ll'
I0
tp47
a(S'w'
I11743
tp48
a(S'no_ll'
I0
tp49
a(S'w'
I2932
tp50
a(S'w'
I1
tp51
a(S'no_ll'
I0
tp52
a(S'w'
I2935
tp53
a(S'no_ll'
I0
tp54
a(S'w'
I2935
tp55
a(S'no_ll'
I0
tp56
a(S'w'
I2935
tp57
a(S'no_ll'
I0
tp58
a(S'w'
I5870
tp59
a(S'w'
I1
tp60
a(S'no_ll'
I0
tp61
a(S'w'
I5870
tp62
a(S'no_vo'
I5
tp63
a(S'no_np'
I2
tp64
a(S'no_ll'
I18
tp65
a(S'w'
I11741
tp66
a(S'no_ll'
I18
tp67
a(S'w'
I11740
tp68
a(S'no_vo'
I0
tp69
a(S'no_np'
I5
tp70
a(S'w'
I1
tp71
a(S'no_ll'
I0
tp72
a(S'w'
I5870
tp73
a(S'no_ll'
I0
tp74
a(S'w'
I5870
tp75
a(S'no_ll'
I0
tp76
a(S'w'
I11744
tp77
a(S'no_ll'
I0
tp78
a(S'w'
I2932
tp79
a(S'no_ll'
I0
tp80
a(S'w'
I2935
tp81
a(S'w'
I1
tp82
a(S'no_ll'
I0
tp83
a(S'w'
I2935
tp84
a(S'no_ll'
I0
tp85
a(S'w'
I2935
tp86
a(S'no_ll'
I0
tp87
a(S'w'
I5870
tp88
a(S'w'
I1
tp89
a(S'no_ll'
I0
tp90
a(S'w'
I5870
tp91
a(S'no_vo'
I5
tp92
a(S'no_np'
I2
tp93
a(S'no_ll'
I18
tp94
a(S'w'
I11741
tp95
a(S'no_ll'
I18
tp96
a(S'w'
I11749
tp97
a(S'no_vo'
I0
tp98
a(S'no_np'
I5
tp99
a(S'no_ll'
I0
tp100
a(S'w'
I5862
tp101
a(S'no_ll'
I0
tp102
a(S'w'
I5870
tp103
a(S'no_ll'
I0
tp104
a(S'w'
I11744
tp105
a(S'no_ll'
I0
tp106
a(S'w'
I2932
tp107
a(S'no_ll'
I0
tp108
a(S'w'
I2935
tp109
a(S'w'
I1
tp110
a(S'no_ll'
I0
tp111
a(S'w'
I2935
tp112
a(S'no_ll'
I0
tp113
a(S'w'
I2935
tp114
a(S'no_ll'
I0
tp115
a(S'w'
I5870
tp116
a(S'no_ll'
I0
tp117
a(S'w'
I5871
tp118
a(S'no_vo'
I5
tp119
a(S'no_np'
I2
tp120
a(S'no_ll'
I18
tp121
a(S'w'
I11741
tp122
a(S'no_ll'
I18
tp123
a(S'w'
I11740
tp124
a(S'no_vo'
I0
tp125
a(S'no_np'
I5
tp126
a(S'no_ll'
I0
tp127
a(S'w'
I5871
tp128
a(S'no_ll'
I0
tp129
a(S'w'
I5870
tp130
a(S'no_ll'
I0
tp131
a(S'w'
I11744
tp132
a(S'no_ll'
I0
tp133
a(S'w'
I2932
tp134
a(S'no_ll'
I0
tp135
a(S'w'
I2935
tp136
a(S'w'
I1
tp137
a(S'no_ll'
I0
tp138
a(S'w'
I2935
tp139
a(S'no_ll'
I0
tp140
a(S'w'
I2935
tp141
a(S'no_ll'
I0
tp142
a(S'w'
I5870
tp143
a(S'no_ll'
I0
tp144
a(S'w'
I5870
tp145
a(S'no_vo'
I5
tp146
a(S'w'
I1
tp147
a(S'no_np'
I2
tp148
a(S'no_ll'
I18
tp149
a(S'w'
I11740
tp150
a(S'w'
I1
tp151
a(S'no_ll'
I18
tp152
a(S'w'
I11740
tp153
a(S'no_vo'
I0
tp154
a(S'no_np'
I5
tp155
a(S'no_ll'
I0
tp156
a(S'w'
I5871
tp157
a(S'no_ll'
I0
tp158
a(S'w'
I5870
tp159
a(S'no_ll'
I0
tp160
a(S'w'
I11744
tp161
a(S'no_ll'
I0
tp162
a(S'w'
I2932
tp163
a(S'no_ll'
I0
tp164
a(S'w'
I2935
tp165
a(S'w'
I1
tp166
a(S'no_ll'
I0
tp167
a(S'w'
I2935
tp168
a(S'no_ll'
I0
tp169
a(S'w'
I2935
tp170
a(S'no_ll'
I0
tp171
a(S'w'
I5870
tp172
a(S'no_ll'
I0
tp173
a(S'w'
I5879
tp174
a(S'no_vo'
I5
tp175
a(S'no_np'
I2
tp176
a(S'no_ll'
I18
tp177
a(S'w'
I11732
tp178
a(S'w'
I1
tp179
a(S'no_ll'
I18
tp180
a(S'w'
I11740
tp181
a(S'no_vo'
I0
tp182
a(S'no_np'
I5
tp183
a(S'no_ll'
I0
tp184
a(S'w'
I5871
tp185
a(S'no_ll'
I0
tp186
a(S'w'
I5870
tp187
a(S'no_ll'
I0
tp188
a(S'w'
I11744
tp189
a(S'no_ll'
I0
tp190
a(S'w'
I2932
tp191
a(S'no_ll'
I0
tp192
a(S'w'
I2935
tp193
a(S'no_ll'
I0
tp194
a(S'w'
I2935
tp195
a(S'w'
I1
tp196
a(S'no_ll'
I0
tp197
a(S'w'
I2935
tp198
a(S'no_ll'
I0
tp199
a(S'w'
I5870
tp200
a(S'no_ll'
I0
tp201
a(S'w'
I5870
tp202
a(S'no_vo'
I5
tp203
a(S'w'
I1
tp204
a(S'no_np'
I2
tp205
a(S'no_ll'
I18
tp206
a(S'w'
I11740
tp207
a(S'w'
I1
tp208
a(S'no_ll'
I18
tp209
a(S'w'
I11740
tp210
a(S'no_vo'
I0
tp211
a(S'no_np'
I5
tp212
a(S'no_ll'
I0
tp213
a(S'w'
I5871
tp214
a(S'no_ll'
I0
tp215
a(S'w'
I5870
tp216
a(S'no_ll'
I0
tp217
a(S'w'
I11744
tp218
a(S'no_ll'
I0
tp219
a(S'w'
I2932
tp220
a(S'no_ll'
I0
tp221
a(S'w'
I2935
tp222
a(S'no_ll'
I0
tp223
a(S'w'
I2935
tp224
a(S'w'
I1
tp225
a(S'no_ll'
I0
tp226
a(S'w'
I2935
tp227
a(S'no_ll'
I0
tp228
a(S'w'
I5870
tp229
a(S'no_ll'
I0
tp230
a(S'w'
I5870
tp231
a(S'no_vo'
I5
tp232
a(S'no_np'
I2
tp233
a(S'w'
I1
tp234
a(S'no_ll'
I18
tp235
a(S'w'
I11740
tp236
a(S'w'
I1
tp237
a(S'no_ll'
I18
tp238
a(S'w'
I11740
tp239
a(S'no_vo'
I0
tp240
a(S'no_np'
I5
tp241
a(S'no_ll'
I0
tp242
a(S'w'
I5871
tp243
a(S'no_ll'
I0
tp244
a(S'w'
I5870
tp245
a(S'no_ll'
I0
tp246
a(S'w'
I11752
tp247
a(S'w'
I1
tp248
a(S'no_ll'
I0
tp249
a(S'w'
I2923
tp250
a(S'no_ll'
I0
tp251
a(S'w'
I2935
tp252
a(S'no_ll'
I0
tp253
a(S'w'
I2935
tp254
a(S'w'
I1
tp255
a(S'no_ll'
I0
tp256
a(S'w'
I2935
tp257
a(S'no_ll'
I0
tp258
a(S'w'
I5870
tp259
a(S'no_ll'
I0
tp260
a(S'w'
I5870
tp261
a(S'no_vo'
I5
tp262
a(S'no_np'
I2
tp263
a(S'w'
I1
tp264
a(S'no_ll'
I18
tp265
a(S'w'
I11740
tp266
a(S'no_ll'
I18
tp267
a(S'w'
I11741
tp268
a(S'no_vo'
I0
tp269
a(S'no_np'
I5
tp270
a(S'no_ll'
I0
tp271
a(S'w'
I5870
tp272
a(S'w'
I1
tp273
a(S'no_ll'
I0
tp274
a(S'w'
I5870
tp275
a(S'no_ll'
I0
tp276
a(S'w'
I11744
tp277
a(S'no_ll'
I0
tp278
a(S'w'
I2932
tp279
a(S'no_ll'
I0
tp280
a(S'w'
I2935
tp281
a(S'no_ll'
I0
tp282
a(S'w'
I2935
tp283
a(S'no_ll'
I0
tp284
a(S'w'
I2936
tp285
a(S'no_ll'
I0
tp286
a(S'w'
I5870
tp287
a(S'no_ll'
I0
tp288
a(S'w'
I5870
tp289
a(S'no_vo'
I5
tp290
a(S'no_np'
I2
tp291
a(S'w'
I1
tp292
a(S'no_ll'
I18
tp293
a(S'w'
I11740
tp294
a(S'no_ll'
I18
tp295
a(S'w'
I11741
tp296
a(S'no_vo'
I0
tp297
a(S'no_np'
I5
tp298
a(S'no_ll'
I0
tp299
a(S'w'
I5870
tp300
a(S'w'
I1
tp301
a(S'no_ll'
I0
tp302
a(S'w'
I5870
tp303
a(S'no_ll'
I0
tp304
a(S'w'
I11744
tp305
a(S'no_ll'
I0
tp306
a(S'w'
I2932
tp307
a(S'no_ll'
I0
tp308
a(S'w'
I2935
tp309
a(S'no_ll'
I0
tp310
a(S'w'
I2935
tp311
a(S'no_ll'
I0
tp312
a(S'w'
I2935
tp313
a(S'w'
I1
tp314
a(S'no_ll'
I0
tp315
a(S'w'
I5870
tp316
a(S'no_ll'
I0
tp317
a(S'w'
I5870
tp318
a(S'no_vo'
I5
tp319
a(S'no_np'
I2
tp320
a(S'w'
I1
tp321
a(S'no_ll'
I18
tp322
a(S'w'
I11740
tp323
a(S'no_ll'
I18
tp324
a(S'w'
I11749
tp325
a(S'no_vo'
I0
tp326
a(S'no_np'
I5
tp327
a(S'w'
I1
tp328
a(S'no_ll'
I0
tp329
a(S'w'
I5861
tp330
a(S'w'
I1
tp331
a(S'no_ll'
I0
tp332
a(S'w'
I5870
tp333
a(S'no_ll'
I0
tp334
a(S'w'
I11744
tp335
a(S'no_ll'
I0
tp336
a(S'w'
I2932
tp337
a(S'no_ll'
I0
tp338
a(S'w'
I2935
tp339
a(S'no_ll'
I0
tp340
a(S'w'
I2935
tp341
a(S'no_ll'
I0
tp342
a(S'w'
I2935
tp343
a(S'w'
I1
tp344
a(S'no_ll'
I0
tp345
a(S'w'
I5870
tp346
a(S'no_ll'
I0
tp347
a(S'w'
I5870
tp348
a(S'no_vo'
I5
tp349
a(S'no_np'
I2
tp350
a(S'no_ll'
I18
tp351
a(S'w'
I11741
tp352
a(S'no_ll'
I18
tp353
a(S'w'
I11741
tp354
a(S'no_vo'
I0
tp355
a(S'no_np'
I5
tp356
a(S'no_ll'
I0
tp357
a(S'w'
I5870
tp358
a(S'no_ll'
I0
tp359
a(S'w'
I5871
tp360
a(S'no_ll'
I0
tp361
a(S'w'
I11743
tp362
a(S'w'
I1
tp363
a(S'no_ll'
I0
tp364
a(S'w'
I2932
tp365
a(S'no_ll'
I0
tp366
a(S'w'
I2935
tp367
a(S'no_ll'
I0
tp368
a(S'w'
I2935
tp369
a(S'no_ll'
I0
tp370
a(S'w'
I2935
tp371
a(S'w'
I1
tp372
a(S'no_ll'
I0
tp373
a(S'w'
I5870
tp374
a(S'no_ll'
I0
tp375
a(S'w'
I5870
tp376
a(S'no_vo'
I5
tp377
a(S'no_np'
I2
tp378
a(S'no_ll'
I18
tp379
a(S'w'
I11741
tp380
a(S'no_ll'
I18
tp381
a(S'w'
I11741
tp382
a(S'no_vo'
I0
tp383
a(S'no_np'
I5
tp384
a(S'no_ll'
I0
tp385
a(S'w'
I5870
tp386
a(S'no_ll'
I0
tp387
a(S'w'
I5871
tp388
a(S'no_ll'
I0
tp389
a(S'w'
I11743
tp390
a(S'w'
I1
tp391
a(S'no_ll'
I0
tp392
a(S'w'
I2932
tp393
a(S'no_ll'
I0
tp394
a(S'w'
I2935
tp395
a(S'no_ll'
I0
tp396
a(S'w'
I2935
tp397
a(S'no_ll'
I0
tp398
a(S'w'
I2935
tp399
a(S'no_ll'
I0
tp400
a(S'w'
I5871
tp401
a(S'no_ll'
I0
tp402
a(S'w'
I5879
tp403
a(S'no_vo'
I5
tp404
a(S'no_np'
I2
tp405
a(S'no_ll'
I18
tp406
a(S'w'
I11732
tp407
a(S'no_ll'
I18
tp408
a(S'w'
I11741
tp409
a(S'no_vo'
I0
tp410
a(S'no_np'
I5
tp411
a(S'no_ll'
I0
tp412
a(S'w'
I5870
tp413
a(S'no_ll'
I0
tp414
a(S'w'
I5871
tp415
a(S'no_ll'
I0
tp416
a(S'w'
I11743
tp417
a(S'w'
I1
tp418
a(S'no_ll'
I0
tp419
a(S'w'
I2932
tp420
a(S'no_ll'
I0
tp421
a(S'w'
I2935
tp422
a(S'no_ll'
I0
tp423
a(S'w'
I2935
tp424
a(S'no_ll'
I0
tp425
a(S'w'
I2935
tp426
a(S'no_ll'
I0
tp427
a(S'w'
I5871
tp428
a(S'no_ll'
I0
tp429
a(S'w'
I5870
tp430
a(S'no_vo'
I5
tp431
a(S'no_np'
I2
tp432
a(S'no_ll'
I18
tp433
a(S'w'
I11741
tp434
a(S'no_ll'
I18
tp435
a(S'w'
I11741
tp436
a(S'no_vo'
I0
tp437
a(S'no_np'
I5
tp438
a(S'no_ll'
I0
tp439
a(S'w'
I5870
tp440
a(S'no_ll'
I0
tp441
a(S'w'
I5871
tp442
a(S'no_ll'
I0
tp443
a(S'w'
I11743
tp444
a(S'w'
I1
tp445
a(S'no_ll'
I0
tp446
a(S'w'
I2932
tp447
a(S'no_ll'
I0
tp448
a(S'w'
I2935
tp449
a(S'no_ll'
I0
tp450
a(S'w'
I2935
tp451
a(S'no_ll'
I0
tp452
a(S'w'
I2935
tp453
a(S'no_ll'
I0
tp454
a(S'w'
I5871
tp455
a(S'no_ll'
I0
tp456
a(S'w'
I5870
tp457
a(S'no_vo'
I5
tp458
a(S'no_np'
I2
tp459
a(S'no_ll'
I18
tp460
a(S'w'
I11741
tp461
a(S'no_ll'
I18
tp462
a(S'w'
I11740
tp463
a(S'no_vo'
I0
tp464
a(S'w'
I1
tp465
a(S'no_np'
I5
tp466
a(S'no_ll'
I0
tp467
a(S'w'
I5870
tp468
a(S'no_ll'
I0
tp469
a(S'w'
I5870
tp470
a(S'w'
I1
tp471
a(S'no_ll'
I0
tp472
a(S'w'
I11752
tp473
a(S'no_ll'
I0
tp474
a(S'w'
I2924
tp475
a(S'no_ll'
I0
tp476
a(S'w'
I2935
tp477
a(S'no_ll'
I0
tp478
a(S'w'
I2935
tp479
a(S'no_ll'
I0
tp480
a(S'w'
I2935
tp481
a(S'no_ll'
I0
tp482
a(S'w'
I5870
tp483
a(S'w'
I1
tp484
a(S'no_ll'
I0
tp485
a(S'w'
I5870
tp486
a(S'no_vo'
I5
tp487
a(S'no_np'
I2
tp488
a(S'no_ll'
I18
tp489
a(S'w'
I11741
tp490
a(S'no_ll'
I18
tp491
a(S'w'
I11740
tp492
a(S'no_vo'
I0
tp493
a(S'w'
I1
tp494
a(S'no_np'
I5
tp495
a(S'no_ll'
I0
tp496
a(S'w'
I5870
tp497
a(S'no_ll'
I0
tp498
a(S'w'
I5870
tp499
a(S'w'
I1
tp500
a(S'no_ll'
I0
tp501
a(S'w'
I11743
tp502
a(S'no_ll'
I0
tp503
a(S'w'
I2932
tp504
a(S'w'
I1
tp505
a(S'no_ll'
I0
tp506
a(S'w'
I2935
tp507
a(S'no_ll'
I0
tp508
a(S'w'
I2935
tp509
a(S'no_ll'
I0
tp510
a(S'w'
I2935
tp511
a(S'no_ll'
I0
tp512
a(S'w'
I5870
tp513
a(S'w'
I1
tp514
a(S'no_ll'
I0
tp515
a(S'w'
I5870
tp516
a(S'no_vo'
I5
tp517
a(S'no_np'
I2
tp518
a(S'no_ll'
I18
tp519
a(S'w'
I11741
tp520
a(S'no_ll'
I18
tp521
a(S'w'
I11740
tp522
a(S'no_vo'
I0
tp523
a(S'no_np'
I5
tp524
a(S'w'
I1
tp525
a(S'no_ll'
I0
tp526
a(S'w'
I5870
tp527
a(S'no_ll'
I0
tp528
a(S'w'
I5870
tp529
a(S'w'
I1
tp530
a(S'no_ll'
I0
tp531
a(S'w'
I11743
tp532
a(S'no_ll'
I0
tp533
a(S'w'
I2932
tp534
a(S'w'
I1
tp535
a(S'no_ll'
I0
tp536
a(S'w'
I2935
tp537
a(S'no_ll'
I0
tp538
a(S'w'
I2935
tp539
a(S'no_ll'
I0
tp540
a(S'w'
I2935
tp541
a(S'no_ll'
I0
tp542
a(S'w'
I5870
tp543
a(S'w'
I1
tp544
a(S'no_ll'
I0
tp545
a(S'w'
I5870
tp546
a(S'no_vo'
I5
tp547
a(S'no_np'
I2
tp548
a(S'no_ll'
I18
tp549
a(S'w'
I11741
tp550
a(S'no_ll'
I18
tp551
a(S'w'
I11749
tp552
a(S'no_vo'
I0
tp553
a(S'no_np'
I5
tp554
a(S'no_ll'
I0
tp555
a(S'w'
I5862
tp556
a(S'no_ll'
I0
tp557
a(S'w'
I5870
tp558
a(S'no_ll'
I0
tp559
a(S'w'
I11744
tp560
a(S'no_ll'
I0
tp561
a(S'w'
I2932
tp562
a(S'no_ll'
I0
tp563
a(S'w'
I2935
tp564
a(S'w'
I1
tp565
a(S'no_ll'
I0
tp566
a(S'w'
I2935
tp567
a(S'no_ll'
I0
tp568
a(S'w'
I2935
tp569
a(S'no_ll'
I0
tp570
a(S'w'
I5870
tp571
a(S'w'
I1
tp572
a(S'no_ll'
I0
tp573
a(S'w'
I5870
tp574
a(S'no_vo'
I5
tp575
a(S'no_np'
I2
tp576
a(S'no_ll'
I18
tp577
a(S'w'
I11741
tp578
a(S'no_ll'
I18
tp579
a(S'w'
I11740
tp580
a(S'no_vo'
I0
tp581
a(S'no_np'
I5
tp582
a(S'w'
I1
tp583
a(S'no_ll'
I0
tp584
a(S'w'
I5870
tp585
a(S'no_ll'
I0
tp586
a(S'w'
I5870
tp587
a(S'no_ll'
I0
tp588
a(S'w'
I11744
tp589
a(S'no_ll'
I0
tp590
a(S'w'
I2932
tp591
a(S'no_ll'
I0
tp592
a(S'w'
I2935
tp593
a(S'w'
I1
tp594
a(S'no_ll'
I0
tp595
a(S'w'
I2935
tp596
a(S'no_ll'
I0
tp597
a(S'w'
I2935
tp598
a(S'no_ll'
I0
tp599
a(S'w'
I5870
tp600
a(S'no_ll'
I0
tp601
a(S'w'
I5871
tp602
a(S'no_vo'
I5
tp603
a(S'no_np'
I2
tp604
a(S'no_ll'
I18
tp605
a(S'w'
I11741
tp606
a(S'no_ll'
I18
tp607
a(S'w'
I11740
tp608
a(S'no_vo'
I0
tp609
a(S'no_np'
I5
tp610
a(S'w'
I1
tp611
a(S'no_ll'
I0
tp612
a(S'w'
I5870
tp613
a(S'no_ll'
I0
tp614
a(S'w'
I5870
tp615
a(S'no_ll'
I0
tp616
a(S'w'
I11743
tp617
a(S'w'
I1
tp618
a(S'no_ll'
I0
tp619
a(S'w'
I2932
tp620
a(S'no_ll'
I0
tp621
a(S'w'
I2935
tp622
a(S'w'
I1
tp623
a(S'no_ll'
I0
tp624
a(S'w'
I2935
tp625
a(S'no_ll'
I0
tp626
a(S'w'
I2935
tp627
a(S'no_ll'
I0
tp628
a(S'w'
I5870
tp629
a(S'no_ll'
I0
tp630
a(S'w'
I5879
tp631
a(S'no_vo'
I5
tp632
a(S'no_np'
I2
tp633
a(S'no_ll'
I18
tp634
a(S'w'
I23473
tp635
a(S'no_vo'
I0
tp636
a(S'no_np'
I5
tp637
a(S'no_ll'
I0
tp638
a(S'w'
I11741
tp639
a(S'no_ll'
I0
tp640
a(S'w'
I23482
tp641
a(S'no_ll'
I0
tp642
a(S'w'
I11741
tp643
a(S'no_ll'
I0
tp644
a(S'w'
I23481
tp645
a(S'no_ll'
I0
tp646
a(S'w'
I11741
tp647
a(S'no_ll'
I0
tp648
a(S'w'
I23482
tp649
a(S'no_ll'
I0
tp650
a(S'w'
I11741
tp651
a(S'no_ll'
I0
tp652
a(S'w'
I23481
tp653
a(S'no_ll'
I0
tp654
a(S'w'
I11741
tp655
a(S'no_ll'
I0
tp656
a(S'w'
I23482
tp657
a(S'no_ll'
I0
tp658
a(S'w'
I11740
tp659
a(S'w'
I1
tp660
a(S'no_ll'
I0
tp661
a(S'w'
I11743
tp662
a(S'no_ll'
I0
tp663
a(S'w'
I5868
tp664
a(S'no_ll'
I0
tp665
a(S'w'
I5870
tp666
a(S'no_ll'
I0
tp667
a(S'w'
I11741
tp668
a(S'no_vo'
I5
tp669
a(S'no_np'
I2
tp670
a(S'no_ll'
I18
tp671
a(S'w'
I11741
tp672
a(S'no_vo'
I0
tp673
a(S'no_np'
I5
tp674
a(S'no_ll'
I0
tp675
a(S'w'
I5870
tp676
a(S'no_ll'
I0
tp677
a(S'w'
I5871
tp678
a(S'no_ll'
I0
tp679
a(S'w'
I19044
tp680
a.