(lp1
(S'clock'
p2
I1789772
tp3
a(S'no_cv'
I1
tp4
a(S'ch_no'
I1
tp5
a(S'ch_tr'
I1
tp6
a(S'ch_p2'
I1
tp7
a(S'ch_p1'
I1
tp8
a(S'p1_du'
I2
tp9
a(S'p1_lh'
I1
tp10
a(S'p1_cv'
I1
tp11
a(S'w'
I5
tp12
a(S'p1_tl'
I142
tp13
a(S'p1_ll'
I1
tp14
a(S'w'
I5
tp15
a(S'p2_du'
I2
tp16
a(S'p2_lh'
I1
tp17
a(S'p2_cv'
I1
tp18
a(S'w'
I5
tp19
a(S'p2_tl'
I190
tp20
a(S'p2_ll'
I1
tp21
a(S'w'
I9
tp22
a(S'tr_lr'
I16
tp23
a(S'w'
I3
tp24
a(S'tr_tl'
I58
tp25
a(S'w'
I1
tp26
a(S'tr_ll'
I1
tp27
a(S'tr_th'
I2
tp28
a(S'w'
I7
tp29
a(S'p1_vo'
I15
tp30
a(S'w'
I1
tp31
a(S'p2_vo'
I15
tp32
a(S'w'
I691
tp33
a(S'p1_vo'
I13
tp34
a(S'w'
I1
tp35
a(S'p2_vo'
I13
tp36
a(S'w'
I733
tp37
a(S'p1_vo'
I11
tp38
a(S'w'
I1
tp39
a(S'p2_vo'
I11
tp40
a(S'w'
I732
tp41
a(S'p1_vo'
I10
tp42
a(S'w'
I1
tp43
a(S'p2_vo'
I10
tp44
a(S'w'
I733
tp45
a(S'p1_vo'
I9
tp46
a(S'w'
I1
tp47
a(S'p2_vo'
I9
tp48
a(S'w'
I733
tp49
a(S'p1_vo'
I8
tp50
a(S'w'
I1
tp51
a(S'p2_vo'
I8
tp52
a(S'w'
I733
tp53
a(S'p1_vo'
I7
tp54
a(S'w'
I1
tp55
a(S'p2_vo'
I7
tp56
a(S'w'
I733
tp57
a(S'p1_vo'
I6
tp58
a(S'w'
I1
tp59
a(S'p2_vo'
I6
tp60
a(S'w'
I731
tp61
a(S'p1_vo'
I0
tp62
a(S'w'
I1
tp63
a(S'p1_tl'
I0
tp64
a(S'p1_ll'
I1
tp65
a(S'w'
I6
tp66
a(S'p2_vo'
I0
tp67
a(S'w'
I1
tp68
a(S'p2_tl'
I0
tp69
a(S'p2_ll'
I1
tp70
a(S'w'
I9
tp71
a(S'p1_vo'
I15
tp72
a(S'w'
I1
tp73
a(S'p2_vo'
I15
tp74
a(S'w'
I717
tp75
a(S'p1_vo'
I13
tp76
a(S'w'
I1
tp77
a(S'p2_vo'
I13
tp78
a(S'w'
I733
tp79
a(S'p1_vo'
I11
tp80
a(S'w'
I1
tp81
a(S'p2_vo'
I11
tp82
a(S'w'
I733
tp83
a(S'p1_vo'
I10
tp84
a(S'w'
I1
tp85
a(S'p2_vo'
I10
tp86
a(S'w'
I733
tp87
a(S'p1_vo'
I9
tp88
a(S'w'
I1
tp89
a(S'p2_vo'
I9
tp90
a(S'w'
I732
tp91
a(S'p1_vo'
I8
tp92
a(S'w'
I1
tp93
a(S'p2_vo'
I8
tp94
a(S'w'
I733
tp95
a(S'p1_vo'
I7
tp96
a(S'w'
I1
tp97
a(S'p2_vo'
I7
tp98
a(S'w'
I733
tp99
a(S'p1_vo'
I6
tp100
a(S'w'
I1
tp101
a(S'p2_vo'
I6
tp102
a(S'w'
I735
tp103
a(S'tr_tl'
I29
tp104
a(S'tr_ll'
I1
tp105
a(S'tr_th'
I1
tp106
a(S'w'
I5867
tp107
a(S'p1_vo'
I0
tp108
a(S'w'
I4
tp109
a(S'p1_tl'
I142
tp110
a(S'p1_ll'
I1
tp111
a(S'w'
I6
tp112
a(S'p2_vo'
I0
tp113
a(S'w'
I4
tp114
a(S'p2_tl'
I190
tp115
a(S'p2_ll'
I1
tp116
a(S'w'
I8
tp117
a(S'tr_tl'
I113
tp118
a(S'tr_ll'
I1
tp119
a(S'tr_th'
I0
tp120
a(S'w'
I5
tp121
a(S'p1_vo'
I15
tp122
a(S'w'
I1
tp123
a(S'p2_vo'
I15
tp124
a(S'w'
I707
tp125
a(S'p1_vo'
I13
tp126
a(S'w'
I1
tp127
a(S'p2_vo'
I13
tp128
a(S'w'
I733
tp129
a(S'p1_vo'
I11
tp130
a(S'w'
I1
tp131
a(S'p2_vo'
I11
tp132
a(S'w'
I733
tp133
a(S'p1_vo'
I10
tp134
a(S'w'
I1
tp135
a(S'p2_vo'
I10
tp136
a(S'w'
I733
tp137
a(S'p1_vo'
I9
tp138
a(S'p2_vo'
I9
tp139
a(S'w'
I733
tp140
a(S'p1_vo'
I8
tp141
a(S'w'
I1
tp142
a(S'p2_vo'
I8
tp143
a(S'w'
I733
tp144
a(S'p1_vo'
I7
tp145
a(S'w'
I1
tp146
a(S'p2_vo'
I7
tp147
a(S'w'
I733
tp148
a(S'p1_vo'
I6
tp149
a(S'w'
I1
tp150
a(S'p2_vo'
I6
tp151
a(S'w'
I729
tp152
a(S'p1_vo'
I0
tp153
a(S'w'
I4
tp154
a(S'w'
I1
tp155
a(S'p1_ll'
I1
tp156
a(S'w'
I3
tp157
a(S'p2_vo'
I0
tp158
a(S'w'
I4
tp159
a(S'w'
I1
tp160
a(S'p2_ll'
I1
tp161
a(S'w'
I7
tp162
a(S'tr_tl'
I29
tp163
a(S'tr_ll'
I1
tp164
a(S'tr_th'
I1
tp165
a(S'w'
I5
tp166
a(S'p1_vo'
I15
tp167
a(S'w'
I1
tp168
a(S'p2_vo'
I15
tp169
a(S'w'
I712
tp170
a(S'p1_vo'
I13
tp171
a(S'p2_vo'
I13
tp172
a(S'w'
I733
tp173
a(S'p1_vo'
I11
tp174
a(S'w'
I1
tp175
a(S'p2_vo'
I11
tp176
a(S'w'
I733
tp177
a(S'p1_vo'
I10
tp178
a(S'w'
I1
tp179
a(S'p2_vo'
I10
tp180
a(S'w'
I733
tp181
a(S'p1_vo'
I9
tp182
a(S'w'
I1
tp183
a(S'p2_vo'
I9
tp184
a(S'w'
I733
tp185
a(S'p1_vo'
I8
tp186
a(S'w'
I1
tp187
a(S'p2_vo'
I8
tp188
a(S'w'
I733
tp189
a(S'p1_vo'
I7
tp190
a(S'w'
I1
tp191
a(S'p2_vo'
I7
tp192
a(S'w'
I732
tp193
a(S'p1_vo'
I6
tp194
a(S'w'
I1
tp195
a(S'p2_vo'
I6
tp196
a(S'w'
I730
tp197
a(S'p1_vo'
I0
tp198
a(S'w'
I1
tp199
a(S'p1_tl'
I0
tp200
a(S'p1_ll'
I1
tp201
a(S'w'
I4
tp202
a(S'p2_vo'
I0
tp203
a(S'w'
I1
tp204
a(S'p2_tl'
I0
tp205
a(S'p2_ll'
I1
tp206
a(S'w'
I9
tp207
a(S'p1_vo'
I15
tp208
a(S'w'
I1
tp209
a(S'p2_vo'
I15
tp210
a(S'w'
I721
tp211
a(S'p1_vo'
I13
tp212
a(S'w'
I1
tp213
a(S'p2_vo'
I13
tp214
a(S'w'
I733
tp215
a(S'p1_vo'
I11
tp216
a(S'w'
I1
tp217
a(S'p2_vo'
I11
tp218
a(S'w'
I732
tp219
a(S'p1_vo'
I10
tp220
a(S'w'
I1
tp221
a(S'p2_vo'
I10
tp222
a(S'w'
I733
tp223
a(S'p1_vo'
I9
tp224
a(S'w'
I1
tp225
a(S'p2_vo'
I9
tp226
a(S'w'
I733
tp227
a(S'p1_vo'
I8
tp228
a(S'w'
I1
tp229
a(S'p2_vo'
I8
tp230
a(S'w'
I733
tp231
a(S'p1_vo'
I7
tp232
a(S'w'
I1
tp233
a(S'p2_vo'
I7
tp234
a(S'w'
I733
tp235
a(S'p1_vo'
I6
tp236
a(S'w'
I1
tp237
a(S'p2_vo'
I6
tp238
a(S'w'
I729
tp239
a(S'p1_vo'
I0
tp240
a(S'w'
I4
tp241
a(S'p1_tl'
I134
tp242
a(S'w'
I1
tp243
a(S'p1_ll'
I1
tp244
a(S'w'
I3
tp245
a(S'p2_vo'
I0
tp246
a(S'w'
I4
tp247
a(S'p2_tl'
I190
tp248
a(S'p2_ll'
I1
tp249
a(S'w'
I12
tp250
a(S'tr_tl'
I58
tp251
a(S'w'
I1
tp252
a(S'tr_ll'
I1
tp253
a(S'tr_th'
I2
tp254
a(S'w'
I4
tp255
a(S'p1_vo'
I15
tp256
a(S'w'
I1
tp257
a(S'p2_vo'
I15
tp258
a(S'w'
I707
tp259
a(S'p1_vo'
I13
tp260
a(S'w'
I1
tp261
a(S'p2_vo'
I13
tp262
a(S'w'
I733
tp263
a(S'p1_vo'
I11
tp264
a(S'w'
I1
tp265
a(S'p2_vo'
I11
tp266
a(S'w'
I733
tp267
a(S'p1_vo'
I10
tp268
a(S'w'
I1
tp269
a(S'p2_vo'
I10
tp270
a(S'w'
I733
tp271
a(S'p1_vo'
I9
tp272
a(S'w'
I1
tp273
a(S'p2_vo'
I9
tp274
a(S'w'
I733
tp275
a(S'p1_vo'
I8
tp276
a(S'w'
I1
tp277
a(S'p2_vo'
I8
tp278
a(S'w'
I732
tp279
a(S'p1_vo'
I7
tp280
a(S'w'
I1
tp281
a(S'p2_vo'
I7
tp282
a(S'w'
I733
tp283
a(S'p1_vo'
I6
tp284
a(S'w'
I1
tp285
a(S'p2_vo'
I6
tp286
a(S'w'
I731
tp287
a(S'p1_vo'
I0
tp288
a(S'w'
I2
tp289
a(S'p1_tl'
I0
tp290
a(S'p1_ll'
I1
tp291
a(S'w'
I5
tp292
a(S'p2_vo'
I0
tp293
a(S'w'
I1
tp294
a(S'p2_tl'
I0
tp295
a(S'w'
I1
tp296
a(S'p2_ll'
I1
tp297
a(S'w'
I9
tp298
a(S'p1_vo'
I15
tp299
a(S'w'
I1
tp300
a(S'p2_vo'
I15
tp301
a(S'w'
I717
tp302
a(S'p1_vo'
I13
tp303
a(S'w'
I1
tp304
a(S'p2_vo'
I13
tp305
a(S'w'
I733
tp306
a(S'p1_vo'
I11
tp307
a(S'p2_vo'
I11
tp308
a(S'w'
I733
tp309
a(S'p1_vo'
I10
tp310
a(S'w'
I1
tp311
a(S'p2_vo'
I10
tp312
a(S'w'
I733
tp313
a(S'p1_vo'
I9
tp314
a(S'w'
I1
tp315
a(S'p2_vo'
I9
tp316
a(S'w'
I733
tp317
a(S'p1_vo'
I8
tp318
a(S'w'
I1
tp319
a(S'p2_vo'
I8
tp320
a(S'w'
I733
tp321
a(S'p1_vo'
I7
tp322
a(S'w'
I1
tp323
a(S'p2_vo'
I7
tp324
a(S'w'
I733
tp325
a(S'p1_vo'
I6
tp326
a(S'p2_vo'
I6
tp327
a(S'w'
I735
tp328
a(S'tr_tl'
I29
tp329
a(S'tr_ll'
I1
tp330
a(S'tr_th'
I1
tp331
a(S'w'
I5867
tp332
a(S'p1_vo'
I0
tp333
a(S'w'
I4
tp334
a(S'p1_tl'
I134
tp335
a(S'w'
I1
tp336
a(S'p1_ll'
I1
tp337
a(S'w'
I5
tp338
a(S'p2_vo'
I0
tp339
a(S'w'
I4
tp340
a(S'p2_tl'
I190
tp341
a(S'p2_ll'
I1
tp342
a(S'w'
I8
tp343
a(S'tr_tl'
I113
tp344
a(S'w'
I1
tp345
a(S'tr_ll'
I1
tp346
a(S'tr_th'
I0
tp347
a(S'w'
I4
tp348
a(S'p1_vo'
I15
tp349
a(S'w'
I1
tp350
a(S'p2_vo'
I15
tp351
a(S'w'
I708
tp352
a(S'p1_vo'
I13
tp353
a(S'p2_vo'
I13
tp354
a(S'w'
I733
tp355
a(S'p1_vo'
I11
tp356
a(S'w'
I1
tp357
a(S'p2_vo'
I11
tp358
a(S'w'
I733
tp359
a(S'p1_vo'
I10
tp360
a(S'w'
I1
tp361
a(S'p2_vo'
I10
tp362
a(S'w'
I733
tp363
a(S'p1_vo'
I9
tp364
a(S'w'
I1
tp365
a(S'p2_vo'
I9
tp366
a(S'w'
I733
tp367
a(S'p1_vo'
I8
tp368
a(S'w'
I1
tp369
a(S'p2_vo'
I8
tp370
a(S'w'
I733
tp371
a(S'p1_vo'
I7
tp372
a(S'w'
I1
tp373
a(S'p2_vo'
I7
tp374
a(S'w'
I732
tp375
a(S'p1_vo'
I6
tp376
a(S'w'
I1
tp377
a(S'p2_vo'
I6
tp378
a(S'w'
I730
tp379
a(S'p1_vo'
I0
tp380
a(S'w'
I4
tp381
a(S'p1_ll'
I1
tp382
a(S'w'
I4
tp383
a(S'p2_vo'
I0
tp384
a(S'w'
I4
tp385
a(S'p2_ll'
I1
tp386
a(S'w'
I7
tp387
a(S'tr_tl'
I29
tp388
a(S'w'
I1
tp389
a(S'tr_ll'
I1
tp390
a(S'tr_th'
I1
tp391
a(S'w'
I4
tp392
a(S'p1_vo'
I15
tp393
a(S'w'
I1
tp394
a(S'p2_vo'
I15
tp395
a(S'w'
I712
tp396
a(S'p1_vo'
I13
tp397
a(S'w'
I1
tp398
a(S'p2_vo'
I13
tp399
a(S'w'
I733
tp400
a(S'p1_vo'
I11
tp401
a(S'w'
I1
tp402
a(S'p2_vo'
I11
tp403
a(S'w'
I733
tp404
a(S'p1_vo'
I10
tp405
a(S'w'
I1
tp406
a(S'p2_vo'
I10
tp407
a(S'w'
I732
tp408
a(S'p1_vo'
I9
tp409
a(S'w'
I1
tp410
a(S'p2_vo'
I9
tp411
a(S'w'
I733
tp412
a(S'p1_vo'
I8
tp413
a(S'w'
I1
tp414
a(S'p2_vo'
I8
tp415
a(S'w'
I733
tp416
a(S'p1_vo'
I7
tp417
a(S'w'
I1
tp418
a(S'p2_vo'
I7
tp419
a(S'w'
I733
tp420
a(S'p1_vo'
I6
tp421
a(S'w'
I1
tp422
a(S'p2_vo'
I6
tp423
a(S'w'
I729
tp424
a(S'p1_vo'
I0
tp425
a(S'w'
I1
tp426
a(S'p1_tl'
I0
tp427
a(S'w'
I1
tp428
a(S'p1_ll'
I1
tp429
a(S'w'
I3
tp430
a(S'p2_vo'
I0
tp431
a(S'w'
I1
tp432
a(S'p2_tl'
I0
tp433
a(S'p2_ll'
I1
tp434
a(S'w'
I10
tp435
a(S'p1_vo'
I15
tp436
a(S'w'
I1
tp437
a(S'p2_vo'
I15
tp438
a(S'w'
I720
tp439
a(S'p1_vo'
I13
tp440
a(S'w'
I1
tp441
a(S'p2_vo'
I13
tp442
a(S'w'
I733
tp443
a(S'p1_vo'
I11
tp444
a(S'w'
I1
tp445
a(S'p2_vo'
I11
tp446
a(S'w'
I733
tp447
a(S'p1_vo'
I10
tp448
a(S'w'
I1
tp449
a(S'p2_vo'
I10
tp450
a(S'w'
I733
tp451
a(S'p1_vo'
I9
tp452
a(S'w'
I1
tp453
a(S'p2_vo'
I9
tp454
a(S'w'
I733
tp455
a(S'p1_vo'
I8
tp456
a(S'w'
I1
tp457
a(S'p2_vo'
I8
tp458
a(S'w'
I732
tp459
a(S'p1_vo'
I7
tp460
a(S'w'
I1
tp461
a(S'p2_vo'
I7
tp462
a(S'w'
I733
tp463
a(S'p1_vo'
I6
tp464
a(S'w'
I1
tp465
a(S'p2_vo'
I6
tp466
a(S'w'
I729
tp467
a(S'p1_vo'
I0
tp468
a(S'w'
I5
tp469
a(S'p1_tl'
I127
tp470
a(S'p1_ll'
I1
tp471
a(S'w'
I3
tp472
a(S'p2_vo'
I0
tp473
a(S'w'
I5
tp474
a(S'p2_tl'
I190
tp475
a(S'p2_ll'
I1
tp476
a(S'w'
I11
tp477
a(S'tr_tl'
I58
tp478
a(S'w'
I1
tp479
a(S'tr_ll'
I1
tp480
a(S'tr_th'
I2
tp481
a(S'w'
I4
tp482
a(S'p1_vo'
I15
tp483
a(S'w'
I1
tp484
a(S'p2_vo'
I15
tp485
a(S'w'
I708
tp486
a(S'p1_vo'
I13
tp487
a(S'w'
I1
tp488
a(S'p2_vo'
I13
tp489
a(S'w'
I733
tp490
a(S'p1_vo'
I11
tp491
a(S'w'
I1
tp492
a(S'p2_vo'
I11
tp493
a(S'w'
I732
tp494
a(S'p1_vo'
I10
tp495
a(S'w'
I1
tp496
a(S'p2_vo'
I10
tp497
a(S'w'
I733
tp498
a(S'p1_vo'
I9
tp499
a(S'w'
I1
tp500
a(S'p2_vo'
I9
tp501
a(S'w'
I733
tp502
a(S'p1_vo'
I8
tp503
a(S'w'
I1
tp504
a(S'p2_vo'
I8
tp505
a(S'w'
I733
tp506
a(S'p1_vo'
I7
tp507
a(S'w'
I1
tp508
a(S'p2_vo'
I7
tp509
a(S'w'
I733
tp510
a(S'p1_vo'
I6
tp511
a(S'w'
I1
tp512
a(S'p2_vo'
I6
tp513
a(S'w'
I731
tp514
a(S'p1_vo'
I0
tp515
a(S'w'
I1
tp516
a(S'p1_tl'
I0
tp517
a(S'p1_ll'
I1
tp518
a(S'w'
I6
tp519
a(S'p2_vo'
I0
tp520
a(S'w'
I1
tp521
a(S'p2_tl'
I0
tp522
a(S'p2_ll'
I1
tp523
a(S'w'
I9
tp524
a(S'p1_vo'
I15
tp525
a(S'w'
I1
tp526
a(S'p2_vo'
I15
tp527
a(S'w'
I717
tp528
a(S'p1_vo'
I13
tp529
a(S'w'
I1
tp530
a(S'p2_vo'
I13
tp531
a(S'w'
I733
tp532
a(S'p1_vo'
I11
tp533
a(S'w'
I1
tp534
a(S'p2_vo'
I11
tp535
a(S'w'
I733
tp536
a(S'p1_vo'
I10
tp537
a(S'w'
I1
tp538
a(S'p2_vo'
I10
tp539
a(S'w'
I733
tp540
a(S'p1_vo'
I9
tp541
a(S'w'
I1
tp542
a(S'p2_vo'
I9
tp543
a(S'w'
I732
tp544
a(S'p1_vo'
I8
tp545
a(S'w'
I1
tp546
a(S'p2_vo'
I8
tp547
a(S'w'
I733
tp548
a(S'p1_vo'
I7
tp549
a(S'w'
I1
tp550
a(S'p2_vo'
I7
tp551
a(S'w'
I733
tp552
a(S'p1_vo'
I6
tp553
a(S'w'
I1
tp554
a(S'p2_vo'
I6
tp555
a(S'w'
I735
tp556
a(S'tr_tl'
I124
tp557
a(S'tr_ll'
I1
tp558
a(S'tr_th'
I1
tp559
a(S'w'
I5867
tp560
a(S'p1_vo'
I0
tp561
a(S'w'
I4
tp562
a(S'p1_tl'
I127
tp563
a(S'p1_ll'
I1
tp564
a(S'w'
I6
tp565
a(S'p2_vo'
I0
tp566
a(S'w'
I4
tp567
a(S'p2_tl'
I190
tp568
a(S'p2_ll'
I1
tp569
a(S'w'
I7
tp570
a(S'tr_tl'
I83
tp571
a(S'tr_ll'
I1
tp572
a(S'w'
I5
tp573
a(S'p1_vo'
I15
tp574
a(S'w'
I1
tp575
a(S'p2_vo'
I15
tp576
a(S'w'
I708
tp577
a(S'p1_vo'
I13
tp578
a(S'w'
I1
tp579
a(S'p2_vo'
I13
tp580
a(S'w'
I733
tp581
a(S'p1_vo'
I11
tp582
a(S'w'
I1
tp583
a(S'p2_vo'
I11
tp584
a(S'w'
I733
tp585
a(S'p1_vo'
I10
tp586
a(S'w'
I1
tp587
a(S'p2_vo'
I10
tp588
a(S'w'
I732
tp589
a(S'p1_vo'
I9
tp590
a(S'w'
I1
tp591
a(S'p2_vo'
I9
tp592
a(S'w'
I733
tp593
a(S'p1_vo'
I8
tp594
a(S'w'
I1
tp595
a(S'p2_vo'
I8
tp596
a(S'w'
I733
tp597
a(S'p1_vo'
I7
tp598
a(S'w'
I1
tp599
a(S'p2_vo'
I7
tp600
a(S'w'
I733
tp601
a(S'p1_vo'
I6
tp602
a(S'w'
I1
tp603
a(S'p2_vo'
I6
tp604
a(S'w'
I729
tp605
a(S'p1_vo'
I0
tp606
a(S'w'
I4
tp607
a(S'w'
I1
tp608
a(S'p1_ll'
I1
tp609
a(S'w'
I3
tp610
a(S'p2_vo'
I0
tp611
a(S'w'
I4
tp612
a(S'p2_tl'
I160
tp613
a(S'w'
I1
tp614
a(S'p2_ll'
I1
tp615
a(S'w'
I7
tp616
a(S'tr_tl'
I64
tp617
a(S'tr_ll'
I1
tp618
a(S'w'
I5
tp619
a(S'p1_vo'
I15
tp620
a(S'w'
I1
tp621
a(S'p2_vo'
I15
tp622
a(S'w'
I711
tp623
a(S'p1_vo'
I13
tp624
a(S'w'
I1
tp625
a(S'p2_vo'
I13
tp626
a(S'w'
I733
tp627
a(S'p1_vo'
I11
tp628
a(S'w'
I1
tp629
a(S'p2_vo'
I11
tp630
a(S'w'
I733
tp631
a(S'p1_vo'
I10
tp632
a(S'w'
I1
tp633
a(S'p2_vo'
I10
tp634
a(S'w'
I733
tp635
a(S'p1_vo'
I9
tp636
a(S'w'
I1
tp637
a(S'p2_vo'
I9
tp638
a(S'w'
I733
tp639
a(S'p1_vo'
I8
tp640
a(S'w'
I1
tp641
a(S'p2_vo'
I8
tp642
a(S'w'
I732
tp643
a(S'p1_vo'
I7
tp644
a(S'w'
I1
tp645
a(S'p2_vo'
I7
tp646
a(S'w'
I733
tp647
a(S'p1_vo'
I6
tp648
a(S'w'
I1
tp649
a(S'p2_vo'
I6
tp650
a(S'w'
I730
tp651
a(S'p1_vo'
I0
tp652
a(S'w'
I1
tp653
a(S'p1_tl'
I0
tp654
a(S'p1_ll'
I1
tp655
a(S'w'
I3
tp656
a(S'p2_vo'
I0
tp657
a(S'w'
I2
tp658
a(S'p2_tl'
I0
tp659
a(S'p2_ll'
I1
tp660
a(S'w'
I9
tp661
a(S'p1_vo'
I15
tp662
a(S'w'
I1
tp663
a(S'p2_vo'
I15
tp664
a(S'w'
I721
tp665
a(S'p1_vo'
I13
tp666
a(S'w'
I1
tp667
a(S'p2_vo'
I13
tp668
a(S'w'
I733
tp669
a(S'p1_vo'
I11
tp670
a(S'w'
I1
tp671
a(S'p2_vo'
I11
tp672
a(S'w'
I732
tp673
a(S'p1_vo'
I10
tp674
a(S'w'
I1
tp675
a(S'p2_vo'
I10
tp676
a(S'w'
I733
tp677
a(S'p1_vo'
I9
tp678
a(S'w'
I1
tp679
a(S'p2_vo'
I9
tp680
a(S'w'
I733
tp681
a(S'p1_vo'
I8
tp682
a(S'w'
I1
tp683
a(S'p2_vo'
I8
tp684
a(S'w'
I733
tp685
a(S'p1_vo'
I7
tp686
a(S'w'
I1
tp687
a(S'p2_vo'
I7
tp688
a(S'w'
I733
tp689
a(S'p1_vo'
I6
tp690
a(S'w'
I1
tp691
a(S'p2_vo'
I6
tp692
a(S'w'
I729
tp693
a(S'p1_vo'
I0
tp694
a(S'w'
I4
tp695
a(S'p1_tl'
I113
tp696
a(S'w'
I1
tp697
a(S'p1_ll'
I1
tp698
a(S'w'
I3
tp699
a(S'p2_vo'
I0
tp700
a(S'w'
I4
tp701
a(S'p2_tl'
I142
tp702
a(S'p2_ll'
I1
tp703
a(S'w'
I8
tp704
a(S'tr_tl'
I29
tp705
a(S'tr_ll'
I1
tp706
a(S'w'
I5
tp707
a(S'p1_vo'
I15
tp708
a(S'w'
I1
tp709
a(S'p2_vo'
I15
tp710
a(S'w'
I711
tp711
a(S'p1_vo'
I13
tp712
a(S'w'
I1
tp713
a(S'p2_vo'
I13
tp714
a(S'w'
I733
tp715
a(S'p1_vo'
I11
tp716
a(S'w'
I1
tp717
a(S'p2_vo'
I11
tp718
a(S'w'
I733
tp719
a(S'p1_vo'
I10
tp720
a(S'w'
I1
tp721
a(S'p2_vo'
I10
tp722
a(S'w'
I733
tp723
a(S'p1_vo'
I9
tp724
a(S'w'
I1
tp725
a(S'p2_vo'
I9
tp726
a(S'w'
I732
tp727
a(S'p1_vo'
I8
tp728
a(S'w'
I1
tp729
a(S'p2_vo'
I8
tp730
a(S'w'
I733
tp731
a(S'p1_vo'
I7
tp732
a(S'w'
I1
tp733
a(S'p2_vo'
I7
tp734
a(S'w'
I733
tp735
a(S'p1_vo'
I6
tp736
a(S'w'
I1
tp737
a(S'p2_vo'
I6
tp738
a(S'w'
I729
tp739
a(S'p1_vo'
I0
tp740
a(S'w'
I2
tp741
a(S'p1_tl'
I0
tp742
a(S'p1_ll'
I1
tp743
a(S'w'
I3
tp744
a(S'p2_vo'
I0
tp745
a(S'w'
I1
tp746
a(S'p2_tl'
I0
tp747
a(S'w'
I1
tp748
a(S'p2_ll'
I1
tp749
a(S'w'
I9
tp750
a(S'p1_vo'
I15
tp751
a(S'w'
I1
tp752
a(S'p2_vo'
I15
tp753
a(S'w'
I721
tp754
a(S'p1_vo'
I13
tp755
a(S'w'
I1
tp756
a(S'p2_vo'
I13
tp757
a(S'w'
I732
tp758
a(S'p1_vo'
I11
tp759
a(S'w'
I1
tp760
a(S'p2_vo'
I11
tp761
a(S'w'
I733
tp762
a(S'p1_vo'
I10
tp763
a(S'w'
I1
tp764
a(S'p2_vo'
I10
tp765
a(S'w'
I733
tp766
a(S'p1_vo'
I9
tp767
a(S'w'
I1
tp768
a(S'p2_vo'
I9
tp769
a(S'w'
I733
tp770
a(S'p1_vo'
I8
tp771
a(S'w'
I1
tp772
a(S'p2_vo'
I8
tp773
a(S'w'
I733
tp774
a(S'p1_vo'
I7
tp775
a(S'w'
I1
tp776
a(S'p2_vo'
I7
tp777
a(S'w'
I732
tp778
a(S'p1_vo'
I6
tp779
a(S'w'
I1
tp780
a(S'p2_vo'
I6
tp781
a(S'w'
I730
tp782
a(S'p1_vo'
I0
tp783
a(S'w'
I4
tp784
a(S'p1_tl'
I113
tp785
a(S'p1_ll'
I1
tp786
a(S'w'
I4
tp787
a(S'p2_vo'
I0
tp788
a(S'w'
I4
tp789
a(S'p2_tl'
I142
tp790
a(S'p2_ll'
I1
tp791
a(S'w'
I7
tp792
a(S'tr_tl'
I58
tp793
a(S'tr_ll'
I1
tp794
a(S'tr_th'
I2
tp795
a(S'w'
I5
tp796
a(S'p1_vo'
I15
tp797
a(S'w'
I1
tp798
a(S'p2_vo'
I15
tp799
a(S'w'
I712
tp800
a(S'p1_vo'
I13
tp801
a(S'w'
I1
tp802
a(S'p2_vo'
I13
tp803
a(S'w'
I733
tp804
a(S'p1_vo'
I11
tp805
a(S'w'
I1
tp806
a(S'p2_vo'
I11
tp807
a(S'w'
I733
tp808
a(S'p1_vo'
I10
tp809
a(S'w'
I1
tp810
a(S'p2_vo'
I10
tp811
a(S'w'
I732
tp812
a(S'p1_vo'
I9
tp813
a(S'w'
I1
tp814
a(S'p2_vo'
I9
tp815
a(S'w'
I733
tp816
a(S'p1_vo'
I8
tp817
a(S'w'
I1
tp818
a(S'p2_vo'
I8
tp819
a(S'w'
I733
tp820
a(S'p1_vo'
I7
tp821
a(S'w'
I1
tp822
a(S'p2_vo'
I7
tp823
a(S'w'
I733
tp824
a(S'p1_vo'
I6
tp825
a(S'w'
I1
tp826
a(S'p2_vo'
I6
tp827
a(S'w'
I731
tp828
a(S'p1_vo'
I0
tp829
a(S'w'
I1
tp830
a(S'p1_tl'
I0
tp831
a(S'w'
I1
tp832
a(S'p1_ll'
I1
tp833
a(S'w'
I5
tp834
a(S'p2_vo'
I0
tp835
a(S'w'
I1
tp836
a(S'p2_tl'
I0
tp837
a(S'p2_ll'
I1
tp838
a(S'w'
I6
tp839
a(S'tr_lr'
I48
tp840
a(S'w'
I6
tp841
a(S'p1_vo'
I15
tp842
a(S'w'
I1
tp843
a(S'p2_vo'
I15
tp844
a(S'w'
I715
tp845
a(S'p1_vo'
I13
tp846
a(S'p2_vo'
I13
tp847
a(S'w'
I733
tp848
a(S'p1_vo'
I11
tp849
a(S'w'
I1
tp850
a(S'p2_vo'
I11
tp851
a(S'w'
I733
tp852
a(S'p1_vo'
I10
tp853
a(S'w'
I1
tp854
a(S'p2_vo'
I10
tp855
a(S'w'
I733
tp856
a(S'p1_vo'
I9
tp857
a(S'w'
I1
tp858
a(S'p2_vo'
I9
tp859
a(S'w'
I733
tp860
a(S'p1_vo'
I8
tp861
a(S'w'
I1
tp862
a(S'p2_vo'
I8
tp863
a(S'w'
I733
tp864
a(S'p1_vo'
I7
tp865
a(S'p2_vo'
I7
tp866
a(S'w'
I733
tp867
a(S'p1_vo'
I6
tp868
a(S'w'
I1
tp869
a(S'p2_vo'
I6
tp870
a(S'w'
I37093
tp871
a.