(lp1
(S'clock'
p2
I1789773
tp3
a(S'w'
I2
tp4
a(S'ch_no'
I1
tp5
a(S'ch_tr'
I1
tp6
a(S'ch_p2'
I1
tp7
a(S'ch_p1'
I1
tp8
a(S'w'
I68
tp9
a(S'p2_du'
I2
tp10
a(S'p2_lh'
I1
tp11
a(S'p2_cv'
I1
tp12
a(S'p2_vo'
I5
tp13
a(S'w'
I12
tp14
a(S'p2_tl'
I71
tp15
a(S'p2_ll'
I0
tp16
a(S'w'
I5
tp17
a(S'tr_lr'
I31
tp18
a(S'w'
I7
tp19
a(S'tr_tl'
I58
tp20
a(S'w'
I1
tp21
a(S'tr_ll'
I0
tp22
a(S'tr_th'
I2
tp23
a(S'w'
I4
tp24
a(S'no_vo'
I1
tp25
a(S'w'
I6
tp26
a(S'no_np'
I1
tp27
a(S'no_ll'
I1
tp28
a(S'w'
I634
tp29
a(S'p2_vo'
I7
tp30
a(S'p2_se'
I1
tp31
a(S'p2_sp'
I1
tp32
a(S'p2_ss'
I3
tp33
a(S'w'
I4
tp34
a(S'w'
I5
tp35
a(S'w'
I5865
tp36
a(S'w'
I1
tp37
a(S'tr_ll'
I0
tp38
a(S'w'
I5
tp39
a(S'no_ll'
I1
tp40
a(S'w'
I6599
tp41
a(S'tr_tl'
I64
tp42
a(S'tr_ll'
I0
tp43
a(S'tr_th'
I1
tp44
a(S'w'
I5
tp45
a(S'no_np'
I3
tp46
a(S'no_ll'
I1
tp47
a(S'w'
I6599
tp48
a(S'tr_tl'
I29
tp49
a(S'tr_ll'
I0
tp50
a(S'w'
I5
tp51
a(S'no_np'
I1
tp52
a(S'no_ll'
I1
tp53
a(S'w'
I6598
tp54
a(S'tr_tl'
I58
tp55
a(S'w'
I1
tp56
a(S'tr_ll'
I0
tp57
a(S'tr_th'
I2
tp58
a(S'w'
I5
tp59
a(S'no_ll'
I1
tp60
a(S'w'
I6599
tp61
a(S'tr_ll'
I0
tp62
a(S'w'
I5
tp63
a(S'no_ll'
I1
tp64
a(S'w'
I6599
tp65
a(S'tr_tl'
I64
tp66
a(S'tr_ll'
I0
tp67
a(S'tr_th'
I1
tp68
a(S'w'
I5
tp69
a(S'no_np'
I3
tp70
a(S'no_ll'
I1
tp71
a(S'w'
I6599
tp72
a(S'tr_tl'
I29
tp73
a(S'tr_ll'
I0
tp74
a(S'w'
I5
tp75
a(S'no_np'
I1
tp76
a(S'no_ll'
I1
tp77
a(S'w'
I6599
tp78
a(S'p2_tl'
I71
tp79
a(S'p2_ll'
I0
tp80
a(S'w'
I7
tp81
a(S'tr_tl'
I58
tp82
a(S'w'
I1
tp83
a(S'tr_ll'
I0
tp84
a(S'tr_th'
I2
tp85
a(S'w'
I5
tp86
a(S'no_ll'
I1
tp87
a(S'w'
I6592
tp88
a(S'tr_ll'
I0
tp89
a(S'w'
I5
tp90
a(S'no_ll'
I1
tp91
a(S'w'
I6599
tp92
a(S'tr_tl'
I64
tp93
a(S'tr_ll'
I0
tp94
a(S'tr_th'
I1
tp95
a(S'w'
I5
tp96
a(S'no_np'
I3
tp97
a(S'no_ll'
I1
tp98
a(S'w'
I6599
tp99
a(S'tr_tl'
I29
tp100
a(S'tr_ll'
I0
tp101
a(S'w'
I5
tp102
a(S'no_np'
I1
tp103
a(S'no_ll'
I1
tp104
a(S'w'
I6598
tp105
a(S'tr_tl'
I58
tp106
a(S'w'
I1
tp107
a(S'tr_ll'
I0
tp108
a(S'tr_th'
I2
tp109
a(S'w'
I5
tp110
a(S'no_ll'
I1
tp111
a(S'w'
I6599
tp112
a(S'tr_ll'
I0
tp113
a(S'w'
I5
tp114
a(S'no_ll'
I1
tp115
a(S'w'
I6599
tp116
a(S'tr_tl'
I64
tp117
a(S'tr_ll'
I0
tp118
a(S'tr_th'
I1
tp119
a(S'w'
I5
tp120
a(S'no_np'
I3
tp121
a(S'no_ll'
I1
tp122
a(S'w'
I6599
tp123
a(S'tr_tl'
I29
tp124
a(S'tr_ll'
I0
tp125
a(S'w'
I5
tp126
a(S'no_np'
I1
tp127
a(S'no_ll'
I1
tp128
a(S'w'
I6599
tp129
a(S'p2_tl'
I71
tp130
a(S'p2_ll'
I0
tp131
a(S'w'
I7
tp132
a(S'tr_tl'
I58
tp133
a(S'w'
I1
tp134
a(S'tr_ll'
I0
tp135
a(S'tr_th'
I2
tp136
a(S'w'
I5
tp137
a(S'no_ll'
I1
tp138
a(S'w'
I2188
tp139
a(S'p2_tl'
I75
tp140
a(S'p2_ll'
I0
tp141
a(S'w'
I2201
tp142
a(S'p2_tl'
I80
tp143
a(S'p2_ll'
I0
tp144
a(S'w'
I2202
tp145
a(S'p2_tl'
I84
tp146
a(S'p2_ll'
I0
tp147
a(S'w'
I8
tp148
a(S'tr_ll'
I0
tp149
a(S'w'
I5
tp150
a(S'no_ll'
I1
tp151
a(S'w'
I2188
tp152
a(S'p2_tl'
I89
tp153
a(S'p2_ll'
I0
tp154
a(S'w'
I2201
tp155
a(S'p2_tl'
I95
tp156
a(S'p2_ll'
I0
tp157
a(S'w'
I2202
tp158
a(S'p2_tl'
I100
tp159
a(S'p2_ll'
I0
tp160
a(S'w'
I8
tp161
a(S'tr_tl'
I64
tp162
a(S'tr_ll'
I0
tp163
a(S'tr_th'
I1
tp164
a(S'w'
I5
tp165
a(S'no_np'
I3
tp166
a(S'no_ll'
I1
tp167
a(S'w'
I2188
tp168
a(S'p2_tl'
I106
tp169
a(S'p2_ll'
I0
tp170
a(S'w'
I2202
tp171
a(S'p2_tl'
I112
tp172
a(S'p2_ll'
I0
tp173
a(S'w'
I2201
tp174
a(S'p2_tl'
I120
tp175
a(S'p2_ll'
I0
tp176
a(S'w'
I8
tp177
a(S'tr_tl'
I29
tp178
a(S'tr_ll'
I0
tp179
a(S'w'
I5
tp180
a(S'no_np'
I1
tp181
a(S'no_ll'
I1
tp182
a(S'w'
I2188
tp183
a(S'p2_tl'
I127
tp184
a(S'p2_ll'
I0
tp185
a(S'w'
I2202
tp186
a(S'p2_tl'
I134
tp187
a(S'p2_ll'
I0
tp188
a(S'w'
I2201
tp189
a(S'p2_tl'
I142
tp190
a(S'p2_ll'
I0
tp191
a(S'w'
I7
tp192
a(S'tr_tl'
I58
tp193
a(S'tr_ll'
I0
tp194
a(S'tr_th'
I2
tp195
a(S'w'
I6
tp196
a(S'no_ll'
I1
tp197
a(S'w'
I2188
tp198
a(S'p2_tl'
I151
tp199
a(S'p2_ll'
I0
tp200
a(S'w'
I2202
tp201
a(S'p2_tl'
I160
tp202
a(S'p2_ll'
I0
tp203
a(S'w'
I2201
tp204
a(S'p2_tl'
I169
tp205
a(S'p2_ll'
I0
tp206
a(S'w'
I7
tp207
a(S'tr_ll'
I0
tp208
a(S'w'
I6
tp209
a(S'no_ll'
I1
tp210
a(S'w'
I2189
tp211
a(S'p2_tl'
I179
tp212
a(S'p2_ll'
I0
tp213
a(S'w'
I2201
tp214
a(S'p2_tl'
I190
tp215
a(S'p2_ll'
I0
tp216
a(S'w'
I2201
tp217
a(S'p2_tl'
I201
tp218
a(S'p2_ll'
I0
tp219
a(S'w'
I8
tp220
a(S'tr_tl'
I64
tp221
a(S'tr_ll'
I0
tp222
a(S'tr_th'
I1
tp223
a(S'w'
I5
tp224
a(S'no_np'
I3
tp225
a(S'no_ll'
I1
tp226
a(S'w'
I2189
tp227
a(S'p2_tl'
I213
tp228
a(S'p2_ll'
I0
tp229
a(S'w'
I2201
tp230
a(S'p2_tl'
I225
tp231
a(S'p2_ll'
I0
tp232
a(S'w'
I2201
tp233
a(S'p2_tl'
I241
tp234
a(S'p2_ll'
I0
tp235
a(S'w'
I7
tp236
a(S'tr_tl'
I29
tp237
a(S'tr_ll'
I0
tp238
a(S'w'
I6
tp239
a(S'no_np'
I1
tp240
a(S'no_ll'
I1
tp241
a(S'w'
I2189
tp242
a(S'p2_tl'
I254
tp243
a(S'p2_ll'
I0
tp244
a(S'w'
I2201
tp245
a(S'p2_tl'
I13
tp246
a(S'p2_ll'
I0
tp247
a(S'p2_th'
I1
tp248
a(S'w'
I2202
tp249
a(S'p2_tl'
I29
tp250
a(S'p2_ll'
I0
tp251
a(S'w'
I7
tp252
a(S'tr_tl'
I58
tp253
a(S'tr_ll'
I0
tp254
a(S'tr_th'
I2
tp255
a(S'w'
I5
tp256
a(S'no_ll'
I1
tp257
a(S'w'
I2189
tp258
a(S'p2_tl'
I46
tp259
a(S'p2_ll'
I0
tp260
a(S'w'
I2201
tp261
a(S'p2_tl'
I64
tp262
a(S'p2_ll'
I0
tp263
a(S'w'
I2202
tp264
a(S'p2_tl'
I83
tp265
a(S'p2_ll'
I0
tp266
a(S'w'
I7
tp267
a(S'tr_ll'
I0
tp268
a(S'w'
I5
tp269
a(S'no_np'
I3
tp270
a(S'no_ll'
I1
tp271
a(S'w'
I2189
tp272
a(S'p2_tl'
I103
tp273
a(S'p2_ll'
I0
tp274
a(S'w'
I2201
tp275
a(S'p2_tl'
I125
tp276
a(S'p2_ll'
I0
tp277
a(S'w'
I2202
tp278
a(S'p2_tl'
I147
tp279
a(S'p2_ll'
I0
tp280
a(S'w'
I7
tp281
a(S'tr_tl'
I64
tp282
a(S'tr_ll'
I0
tp283
a(S'tr_th'
I1
tp284
a(S'w'
I6
tp285
a(S'no_ll'
I1
tp286
a(S'w'
I2188
tp287
a(S'p2_tl'
I171
tp288
a(S'p2_ll'
I0
tp289
a(S'w'
I2201
tp290
a(S'p2_tl'
I195
tp291
a(S'p2_ll'
I0
tp292
a(S'w'
I2201
tp293
a(S'p2_tl'
I226
tp294
a(S'p2_ll'
I0
tp295
a(S'w'
I8
tp296
a(S'tr_tl'
I29
tp297
a(S'tr_ll'
I0
tp298
a(S'w'
I5
tp299
a(S'no_ll'
I1
tp300
a(S'w'
I2188
tp301
a(S'p2_tl'
I252
tp302
a(S'p2_ll'
I0
tp303
a(S'w'
I2202
tp304
a(S'p2_tl'
I27
tp305
a(S'p2_ll'
I0
tp306
a(S'p2_th'
I2
tp307
a(S'w'
I2201
tp308
a(S'p2_tl'
I58
tp309
a(S'p2_ll'
I0
tp310
a(S'w'
I7
tp311
a(S'tr_tl'
I58
tp312
a(S'w'
I1
tp313
a(S'tr_ll'
I0
tp314
a(S'tr_th'
I2
tp315
a(S'w'
I5
tp316
a(S'no_ll'
I1
tp317
a(S'w'
I2188
tp318
a(S'p2_tl'
I92
tp319
a(S'p2_ll'
I0
tp320
a(S'w'
I2202
tp321
a(S'p2_tl'
I128
tp322
a(S'p2_ll'
I0
tp323
a(S'w'
I2201
tp324
a(S'p2_tl'
I167
tp325
a(S'p2_ll'
I0
tp326
a(S'w'
I8
tp327
a(S'tr_ll'
I0
tp328
a(S'w'
I5
tp329
a(S'no_ll'
I1
tp330
a(S'w'
I2189
tp331
a(S'p2_tl'
I207
tp332
a(S'p2_ll'
I0
tp333
a(S'w'
I2201
tp334
a(S'p2_tl'
I250
tp335
a(S'p2_ll'
I0
tp336
a(S'w'
I2201
tp337
a(S'p2_tl'
I39
tp338
a(S'p2_ll'
I0
tp339
a(S'p2_th'
I3
tp340
a(S'w'
I8
tp341
a(S'tr_tl'
I64
tp342
a(S'tr_ll'
I0
tp343
a(S'tr_th'
I1
tp344
a(S'w'
I5
tp345
a(S'no_ll'
I1
tp346
a(S'w'
I2189
tp347
a(S'p2_tl'
I87
tp348
a(S'p2_ll'
I0
tp349
a(S'w'
I2201
tp350
a(S'p2_tl'
I134
tp351
a(S'p2_ll'
I0
tp352
a(S'w'
I2201
tp353
a(S'p2_tl'
I196
tp354
a(S'p2_ll'
I0
tp355
a(S'w'
I8
tp356
a(S'tr_tl'
I29
tp357
a(S'tr_ll'
I0
tp358
a(S'w'
I5
tp359
a(S'no_ll'
I1
tp360
a(S'w'
I2189
tp361
a(S'p2_tl'
I249
tp362
a(S'p2_ll'
I0
tp363
a(S'w'
I2201
tp364
a(S'p2_tl'
I54
tp365
a(S'p2_ll'
I0
tp366
a(S'p2_th'
I4
tp367
a(S'w'
I2205
tp368
a(S'p2_tl'
I190
tp369
a(S'w'
I1
tp370
a(S'p2_ll'
I0
tp371
a(S'p2_th'
I0
tp372
a(S'w'
I7
tp373
a(S'tr_tl'
I58
tp374
a(S'tr_ll'
I0
tp375
a(S'tr_th'
I2
tp376
a(S'w'
I7
tp377
a(S'no_np'
I1
tp378
a(S'w'
I1
tp379
a(S'no_ll'
I1
tp380
a(S'w'
I712
tp381
a(S'p2_vo'
I5
tp382
a(S'p2_se'
I0
tp383
a(S'p2_sp'
I0
tp384
a(S'p2_ss'
I0
tp385
a(S'w'
I5874
tp386
a(S'p2_tl'
I142
tp387
a(S'p2_ll'
I0
tp388
a(S'w'
I7
tp389
a(S'tr_ll'
I0
tp390
a(S'w'
I5
tp391
a(S'w'
I1
tp392
a(S'no_ll'
I1
tp393
a(S'w'
I6588
tp394
a(S'p2_du'
I0
tp395
a(S'p2_vo'
I0
tp396
a(S'w'
I7
tp397
a(S'tr_tl'
I64
tp398
a(S'w'
I1
tp399
a(S'tr_ll'
I0
tp400
a(S'tr_th'
I1
tp401
a(S'w'
I5
tp402
a(S'no_np'
I3
tp403
a(S'no_ll'
I1
tp404
a(S'w'
I6594
tp405
a(S'p2_ll'
I0
tp406
a(S'w'
I7
tp407
a(S'tr_tl'
I29
tp408
a(S'w'
I1
tp409
a(S'tr_ll'
I0
tp410
a(S'w'
I5
tp411
a(S'no_np'
I1
tp412
a(S'no_ll'
I1
tp413
a(S'w'
I718
tp414
a(S'p2_du'
I2
tp415
a(S'p2_vo'
I5
tp416
a(S'w'
I5873
tp417
a(S'p2_tl'
I120
tp418
a(S'p2_ll'
I0
tp419
a(S'w'
I7
tp420
a(S'tr_tl'
I58
tp421
a(S'tr_ll'
I0
tp422
a(S'tr_th'
I2
tp423
a(S'w'
I5
tp424
a(S'w'
I1
tp425
a(S'no_ll'
I1
tp426
a(S'w'
I6591
tp427
a(S'p2_tl'
I142
tp428
a(S'p2_ll'
I0
tp429
a(S'w'
I7
tp430
a(S'tr_ll'
I0
tp431
a(S'w'
I5
tp432
a(S'w'
I1
tp433
a(S'no_ll'
I1
tp434
a(S'w'
I6588
tp435
a(S'p2_du'
I0
tp436
a(S'p2_vo'
I0
tp437
a(S'w'
I7
tp438
a(S'tr_tl'
I64
tp439
a(S'w'
I1
tp440
a(S'tr_ll'
I0
tp441
a(S'tr_th'
I1
tp442
a(S'w'
I5
tp443
a(S'no_np'
I3
tp444
a(S'no_ll'
I1
tp445
a(S'w'
I6594
tp446
a(S'p2_ll'
I0
tp447
a(S'w'
I7
tp448
a(S'tr_tl'
I29
tp449
a(S'w'
I1
tp450
a(S'tr_ll'
I0
tp451
a(S'w'
I5
tp452
a(S'no_np'
I1
tp453
a(S'no_ll'
I1
tp454
a(S'w'
I718
tp455
a(S'p2_du'
I2
tp456
a(S'p2_vo'
I5
tp457
a(S'w'
I5874
tp458
a(S'p2_tl'
I190
tp459
a(S'p2_ll'
I0
tp460
a(S'w'
I7
tp461
a(S'tr_tl'
I58
tp462
a(S'tr_ll'
I0
tp463
a(S'tr_th'
I2
tp464
a(S'w'
I5
tp465
a(S'w'
I1
tp466
a(S'no_ll'
I1
tp467
a(S'w'
I6591
tp468
a(S'p2_tl'
I142
tp469
a(S'p2_ll'
I0
tp470
a(S'w'
I7
tp471
a(S'tr_ll'
I0
tp472
a(S'w'
I5
tp473
a(S'w'
I1
tp474
a(S'no_ll'
I1
tp475
a(S'w'
I6588
tp476
a(S'p2_du'
I0
tp477
a(S'p2_vo'
I0
tp478
a(S'w'
I7
tp479
a(S'tr_tl'
I64
tp480
a(S'w'
I1
tp481
a(S'tr_ll'
I0
tp482
a(S'tr_th'
I1
tp483
a(S'w'
I5
tp484
a(S'no_np'
I3
tp485
a(S'no_ll'
I1
tp486
a(S'w'
I6594
tp487
a(S'p2_ll'
I0
tp488
a(S'w'
I7
tp489
a(S'tr_tl'
I29
tp490
a(S'w'
I1
tp491
a(S'tr_ll'
I0
tp492
a(S'w'
I5
tp493
a(S'no_np'
I1
tp494
a(S'no_ll'
I1
tp495
a(S'w'
I718
tp496
a(S'p2_du'
I2
tp497
a(S'p2_vo'
I5
tp498
a(S'w'
I5873
tp499
a(S'p2_tl'
I120
tp500
a(S'p2_ll'
I0
tp501
a(S'w'
I7
tp502
a(S'tr_tl'
I58
tp503
a(S'tr_ll'
I0
tp504
a(S'tr_th'
I2
tp505
a(S'w'
I5
tp506
a(S'w'
I1
tp507
a(S'no_ll'
I1
tp508
a(S'w'
I6591
tp509
a(S'p2_tl'
I142
tp510
a(S'p2_ll'
I0
tp511
a(S'w'
I7
tp512
a(S'tr_ll'
I0
tp513
a(S'w'
I5
tp514
a(S'w'
I1
tp515
a(S'no_ll'
I1
tp516
a(S'w'
I6591
tp517
a(S'p2_ll'
I0
tp518
a(S'w'
I7
tp519
a(S'tr_tl'
I64
tp520
a(S'w'
I1
tp521
a(S'tr_ll'
I0
tp522
a(S'tr_th'
I1
tp523
a(S'w'
I5
tp524
a(S'no_np'
I3
tp525
a(S'no_ll'
I1
tp526
a(S'w'
I6591
tp527
a(S'p2_ll'
I0
tp528
a(S'w'
I7
tp529
a(S'tr_tl'
I29
tp530
a(S'w'
I1
tp531
a(S'tr_ll'
I0
tp532
a(S'w'
I5
tp533
a(S'no_np'
I1
tp534
a(S'no_ll'
I1
tp535
a(S'w'
I6592
tp536
a(S'p2_tl'
I179
tp537
a(S'p2_ll'
I0
tp538
a(S'w'
I7
tp539
a(S'tr_tl'
I252
tp540
a(S'tr_ll'
I0
tp541
a(S'w'
I8
tp542
a(S'no_ll'
I1
tp543
a(S'w'
I6589
tp544
a(S'tr_ll'
I0
tp545
a(S'w'
I5
tp546
a(S'w'
I1
tp547
a(S'no_ll'
I1
tp548
a(S'w'
I6599
tp549
a(S'tr_tl'
I29
tp550
a(S'tr_ll'
I0
tp551
a(S'w'
I5
tp552
a(S'no_np'
I3
tp553
a(S'no_ll'
I1
tp554
a(S'w'
I6599
tp555
a(S'tr_tl'
I254
tp556
a(S'tr_ll'
I0
tp557
a(S'tr_th'
I0
tp558
a(S'w'
I5
tp559
a(S'no_np'
I1
tp560
a(S'no_ll'
I1
tp561
a(S'w'
I6598
tp562
a(S'tr_tl'
I252
tp563
a(S'tr_ll'
I0
tp564
a(S'tr_th'
I1
tp565
a(S'w'
I6
tp566
a(S'no_ll'
I1
tp567
a(S'w'
I6598
tp568
a(S'tr_ll'
I0
tp569
a(S'w'
I6
tp570
a(S'no_ll'
I1
tp571
a(S'w'
I6599
tp572
a(S'tr_tl'
I29
tp573
a(S'tr_ll'
I0
tp574
a(S'w'
I5
tp575
a(S'no_np'
I3
tp576
a(S'no_ll'
I1
tp577
a(S'w'
I6599
tp578
a(S'tr_tl'
I254
tp579
a(S'tr_ll'
I0
tp580
a(S'tr_th'
I0
tp581
a(S'w'
I5
tp582
a(S'no_np'
I1
tp583
a(S'no_ll'
I1
tp584
a(S'w'
I6598
tp585
a(S'p2_tl'
I190
tp586
a(S'p2_ll'
I0
tp587
a(S'w'
I7
tp588
a(S'tr_tl'
I250
tp589
a(S'tr_ll'
I0
tp590
a(S'tr_th'
I2
tp591
a(S'w'
I5
tp592
a(S'w'
I1
tp593
a(S'no_ll'
I1
tp594
a(S'w'
I6592
tp595
a(S'p2_ll'
I0
tp596
a(S'w'
I7
tp597
a(S'tr_ll'
I0
tp598
a(S'w'
I5
tp599
a(S'w'
I1
tp600
a(S'no_ll'
I1
tp601
a(S'w'
I6591
tp602
a(S'p2_tl'
I169
tp603
a(S'p2_ll'
I0
tp604
a(S'w'
I7
tp605
a(S'tr_tl'
I167
tp606
a(S'tr_ll'
I0
tp607
a(S'w'
I5
tp608
a(S'no_np'
I3
tp609
a(S'w'
I1
tp610
a(S'no_ll'
I1
tp611
a(S'w'
I6591
tp612
a(S'p2_ll'
I0
tp613
a(S'w'
I7
tp614
a(S'tr_ll'
I0
tp615
a(S'w'
I5
tp616
a(S'no_np'
I1
tp617
a(S'w'
I1
tp618
a(S'no_ll'
I1
tp619
a(S'w'
I6591
tp620
a(S'p2_tl'
I160
tp621
a(S'p2_ll'
I0
tp622
a(S'w'
I7
tp623
a(S'tr_tl'
I128
tp624
a(S'tr_ll'
I0
tp625
a(S'w'
I5
tp626
a(S'w'
I1
tp627
a(S'no_ll'
I1
tp628
a(S'w'
I6591
tp629
a(S'p2_ll'
I0
tp630
a(S'w'
I7
tp631
a(S'tr_ll'
I0
tp632
a(S'w'
I5
tp633
a(S'w'
I1
tp634
a(S'no_ll'
I1
tp635
a(S'w'
I6591
tp636
a(S'p2_tl'
I151
tp637
a(S'p2_ll'
I0
tp638
a(S'w'
I7
tp639
a(S'tr_tl'
I92
tp640
a(S'tr_ll'
I0
tp641
a(S'w'
I5
tp642
a(S'no_np'
I3
tp643
a(S'w'
I1
tp644
a(S'no_ll'
I1
tp645
a(S'w'
I6591
tp646
a(S'p2_ll'
I0
tp647
a(S'w'
I7
tp648
a(S'tr_ll'
I0
tp649
a(S'w'
I5
tp650
a(S'no_np'
I1
tp651
a(S'w'
I1
tp652
a(S'no_ll'
I1
tp653
a(S'w'
I6591
tp654
a(S'p2_tl'
I190
tp655
a(S'p2_ll'
I0
tp656
a(S'w'
I7
tp657
a(S'tr_tl'
I58
tp658
a(S'tr_ll'
I0
tp659
a(S'w'
I8
tp660
a(S'no_ll'
I1
tp661
a(S'w'
I6590
tp662
a(S'p2_tl'
I142
tp663
a(S'p2_ll'
I0
tp664
a(S'w'
I7
tp665
a(S'tr_ll'
I0
tp666
a(S'w'
I5
tp667
a(S'w'
I1
tp668
a(S'no_ll'
I1
tp669
a(S'w'
I6588
tp670
a(S'p2_du'
I0
tp671
a(S'p2_vo'
I0
tp672
a(S'w'
I7
tp673
a(S'tr_tl'
I64
tp674
a(S'w'
I1
tp675
a(S'tr_ll'
I0
tp676
a(S'tr_th'
I1
tp677
a(S'w'
I5
tp678
a(S'no_np'
I3
tp679
a(S'no_ll'
I1
tp680
a(S'w'
I6594
tp681
a(S'p2_ll'
I0
tp682
a(S'w'
I7
tp683
a(S'tr_tl'
I29
tp684
a(S'w'
I1
tp685
a(S'tr_ll'
I0
tp686
a(S'w'
I5
tp687
a(S'no_np'
I1
tp688
a(S'no_ll'
I1
tp689
a(S'w'
I718
tp690
a(S'p2_du'
I2
tp691
a(S'p2_vo'
I5
tp692
a(S'w'
I5873
tp693
a(S'p2_tl'
I120
tp694
a(S'p2_ll'
I0
tp695
a(S'w'
I7
tp696
a(S'tr_tl'
I58
tp697
a(S'tr_ll'
I0
tp698
a(S'tr_th'
I2
tp699
a(S'w'
I5
tp700
a(S'w'
I1
tp701
a(S'no_ll'
I1
tp702
a(S'w'
I6591
tp703
a(S'p2_tl'
I142
tp704
a(S'p2_ll'
I0
tp705
a(S'w'
I7
tp706
a(S'tr_ll'
I0
tp707
a(S'w'
I5
tp708
a(S'w'
I1
tp709
a(S'no_ll'
I1
tp710
a(S'w'
I6588
tp711
a(S'p2_du'
I0
tp712
a(S'p2_vo'
I0
tp713
a(S'w'
I7
tp714
a(S'tr_tl'
I64
tp715
a(S'w'
I1
tp716
a(S'tr_ll'
I0
tp717
a(S'tr_th'
I1
tp718
a(S'w'
I5
tp719
a(S'no_np'
I3
tp720
a(S'no_ll'
I1
tp721
a(S'w'
I6594
tp722
a(S'p2_ll'
I0
tp723
a(S'w'
I7
tp724
a(S'tr_tl'
I29
tp725
a(S'w'
I1
tp726
a(S'tr_ll'
I0
tp727
a(S'w'
I5
tp728
a(S'no_np'
I1
tp729
a(S'no_ll'
I1
tp730
a(S'w'
I718
tp731
a(S'p2_du'
I2
tp732
a(S'p2_vo'
I5
tp733
a(S'w'
I5873
tp734
a(S'p2_tl'
I190
tp735
a(S'p2_ll'
I0
tp736
a(S'w'
I7
tp737
a(S'tr_tl'
I58
tp738
a(S'tr_ll'
I0
tp739
a(S'tr_th'
I2
tp740
a(S'w'
I5
tp741
a(S'w'
I1
tp742
a(S'no_ll'
I1
tp743
a(S'w'
I6592
tp744
a(S'p2_tl'
I142
tp745
a(S'p2_ll'
I0
tp746
a(S'w'
I7
tp747
a(S'tr_ll'
I0
tp748
a(S'w'
I5
tp749
a(S'w'
I1
tp750
a(S'no_ll'
I1
tp751
a(S'w'
I6588
tp752
a(S'p2_du'
I0
tp753
a(S'p2_vo'
I0
tp754
a(S'w'
I7
tp755
a(S'tr_tl'
I64
tp756
a(S'w'
I1
tp757
a(S'tr_ll'
I0
tp758
a(S'tr_th'
I1
tp759
a(S'w'
I5
tp760
a(S'no_np'
I3
tp761
a(S'no_ll'
I1
tp762
a(S'w'
I6594
tp763
a(S'p2_ll'
I0
tp764
a(S'w'
I7
tp765
a(S'tr_tl'
I29
tp766
a(S'w'
I1
tp767
a(S'tr_ll'
I0
tp768
a(S'w'
I5
tp769
a(S'no_np'
I1
tp770
a(S'no_ll'
I1
tp771
a(S'w'
I718
tp772
a(S'p2_du'
I2
tp773
a(S'p2_vo'
I5
tp774
a(S'w'
I5873
tp775
a(S'p2_tl'
I120
tp776
a(S'p2_ll'
I0
tp777
a(S'w'
I7
tp778
a(S'tr_tl'
I58
tp779
a(S'tr_ll'
I0
tp780
a(S'tr_th'
I2
tp781
a(S'w'
I5
tp782
a(S'w'
I1
tp783
a(S'no_ll'
I1
tp784
a(S'w'
I6591
tp785
a(S'p2_tl'
I142
tp786
a(S'p2_ll'
I0
tp787
a(S'w'
I7
tp788
a(S'tr_ll'
I0
tp789
a(S'w'
I5
tp790
a(S'w'
I1
tp791
a(S'no_ll'
I1
tp792
a(S'w'
I6591
tp793
a(S'p2_ll'
I0
tp794
a(S'w'
I7
tp795
a(S'tr_tl'
I64
tp796
a(S'w'
I1
tp797
a(S'tr_ll'
I0
tp798
a(S'tr_th'
I1
tp799
a(S'w'
I5
tp800
a(S'no_np'
I3
tp801
a(S'no_ll'
I1
tp802
a(S'w'
I6591
tp803
a(S'p2_ll'
I0
tp804
a(S'w'
I7
tp805
a(S'tr_tl'
I29
tp806
a(S'w'
I1
tp807
a(S'tr_ll'
I0
tp808
a(S'w'
I5
tp809
a(S'no_np'
I1
tp810
a(S'no_ll'
I1
tp811
a(S'w'
I6591
tp812
a(S'p2_tl'
I179
tp813
a(S'p2_ll'
I0
tp814
a(S'w'
I7
tp815
a(S'tr_tl'
I252
tp816
a(S'tr_ll'
I0
tp817
a(S'w'
I8
tp818
a(S'no_ll'
I1
tp819
a(S'w'
I6590
tp820
a(S'tr_ll'
I0
tp821
a(S'w'
I5
tp822
a(S'w'
I1
tp823
a(S'no_ll'
I1
tp824
a(S'w'
I6599
tp825
a(S'tr_tl'
I29
tp826
a(S'tr_ll'
I0
tp827
a(S'w'
I5
tp828
a(S'no_np'
I3
tp829
a(S'no_ll'
I1
tp830
a(S'w'
I6599
tp831
a(S'tr_tl'
I254
tp832
a(S'tr_ll'
I0
tp833
a(S'tr_th'
I0
tp834
a(S'w'
I5
tp835
a(S'no_np'
I1
tp836
a(S'no_ll'
I1
tp837
a(S'w'
I6598
tp838
a(S'tr_tl'
I252
tp839
a(S'tr_ll'
I0
tp840
a(S'tr_th'
I1
tp841
a(S'w'
I5
tp842
a(S'w'
I1
tp843
a(S'no_ll'
I1
tp844
a(S'w'
I6598
tp845
a(S'tr_ll'
I0
tp846
a(S'w'
I6
tp847
a(S'no_ll'
I1
tp848
a(S'w'
I6599
tp849
a(S'tr_tl'
I29
tp850
a(S'tr_ll'
I0
tp851
a(S'w'
I5
tp852
a(S'no_np'
I3
tp853
a(S'no_ll'
I1
tp854
a(S'w'
I6599
tp855
a(S'tr_tl'
I254
tp856
a(S'tr_ll'
I0
tp857
a(S'tr_th'
I0
tp858
a(S'w'
I5
tp859
a(S'no_np'
I1
tp860
a(S'no_ll'
I1
tp861
a(S'w'
I6598
tp862
a(S'p2_tl'
I190
tp863
a(S'p2_ll'
I0
tp864
a(S'w'
I7
tp865
a(S'tr_tl'
I128
tp866
a(S'tr_ll'
I0
tp867
a(S'tr_th'
I2
tp868
a(S'w'
I5
tp869
a(S'w'
I1
tp870
a(S'no_ll'
I1
tp871
a(S'w'
I6592
tp872
a(S'p2_ll'
I0
tp873
a(S'w'
I7
tp874
a(S'tr_ll'
I0
tp875
a(S'w'
I5
tp876
a(S'w'
I1
tp877
a(S'no_ll'
I1
tp878
a(S'w'
I6588
tp879
a(S'p2_du'
I0
tp880
a(S'p2_vo'
I0
tp881
a(S'w'
I7
tp882
a(S'tr_tl'
I171
tp883
a(S'w'
I1
tp884
a(S'tr_ll'
I0
tp885
a(S'tr_th'
I1
tp886
a(S'w'
I5
tp887
a(S'no_np'
I3
tp888
a(S'no_ll'
I1
tp889
a(S'w'
I6594
tp890
a(S'p2_ll'
I0
tp891
a(S'w'
I7
tp892
a(S'tr_tl'
I125
tp893
a(S'w'
I1
tp894
a(S'tr_ll'
I0
tp895
a(S'w'
I5
tp896
a(S'no_np'
I1
tp897
a(S'no_ll'
I1
tp898
a(S'w'
I718
tp899
a(S'p2_du'
I2
tp900
a(S'p2_vo'
I5
tp901
a(S'w'
I5873
tp902
a(S'p2_tl'
I142
tp903
a(S'p2_ll'
I0
tp904
a(S'w'
I7
tp905
a(S'tr_tl'
I58
tp906
a(S'tr_ll'
I0
tp907
a(S'tr_th'
I2
tp908
a(S'w'
I5
tp909
a(S'w'
I1
tp910
a(S'no_ll'
I1
tp911
a(S'w'
I6591
tp912
a(S'p2_tl'
I160
tp913
a(S'p2_ll'
I0
tp914
a(S'w'
I7
tp915
a(S'tr_ll'
I0
tp916
a(S'w'
I5
tp917
a(S'w'
I1
tp918
a(S'no_ll'
I1
tp919
a(S'w'
I6591
tp920
a(S'p2_tl'
I179
tp921
a(S'p2_ll'
I0
tp922
a(S'w'
I7
tp923
a(S'tr_tl'
I64
tp924
a(S'w'
I1
tp925
a(S'tr_ll'
I0
tp926
a(S'tr_th'
I1
tp927
a(S'w'
I5
tp928
a(S'no_np'
I3
tp929
a(S'no_ll'
I1
tp930
a(S'w'
I6591
tp931
a(S'p2_tl'
I190
tp932
a(S'p2_ll'
I0
tp933
a(S'w'
I7
tp934
a(S'tr_tl'
I29
tp935
a(S'w'
I1
tp936
a(S'tr_ll'
I0
tp937
a(S'w'
I5
tp938
a(S'no_np'
I1
tp939
a(S'no_ll'
I1
tp940
a(S'w'
I6590
tp941
a(S'p2_tl'
I29
tp942
a(S'w'
I1
tp943
a(S'p2_ll'
I0
tp944
a(S'p2_th'
I1
tp945
a(S'w'
I7
tp946
a(S'tr_tl'
I87
tp947
a(S'tr_ll'
I0
tp948
a(S'tr_th'
I3
tp949
a(S'w'
I7
tp950
a(S'no_ll'
I1
tp951
a(S'w'
I6590
tp952
a(S'w'
I1
tp953
a(S'p2_ll'
I0
tp954
a(S'w'
I7
tp955
a(S'tr_ll'
I0
tp956
a(S'w'
I5
tp957
a(S'no_ll'
I1
tp958
a(S'w'
I6589
tp959
a(S'p2_du'
I0
tp960
a(S'p2_vo'
I0
tp961
a(S'w'
I7
tp962
a(S'tr_tl'
I171
tp963
a(S'w'
I1
tp964
a(S'tr_ll'
I0
tp965
a(S'tr_th'
I1
tp966
a(S'w'
I5
tp967
a(S'no_np'
I3
tp968
a(S'no_ll'
I1
tp969
a(S'w'
I6593
tp970
a(S'w'
I1
tp971
a(S'p2_ll'
I0
tp972
a(S'w'
I7
tp973
a(S'tr_ll'
I0
tp974
a(S'w'
I5
tp975
a(S'no_np'
I1
tp976
a(S'w'
I1
tp977
a(S'no_ll'
I1
tp978
a(S'w'
I718
tp979
a(S'p2_du'
I2
tp980
a(S'p2_vo'
I5
tp981
a(S'w'
I5872
tp982
a(S'w'
I1
tp983
a(S'p2_ll'
I0
tp984
a(S'w'
I7
tp985
a(S'tr_tl'
I87
tp986
a(S'tr_ll'
I0
tp987
a(S'tr_th'
I3
tp988
a(S'w'
I5
tp989
a(S'no_ll'
I1
tp990
a(S'w'
I6591
tp991
a(S'w'
I1
tp992
a(S'p2_ll'
I0
tp993
a(S'w'
I7
tp994
a(S'tr_ll'
I0
tp995
a(S'w'
I5
tp996
a(S'no_ll'
I1
tp997
a(S'w'
I6589
tp998
a(S'p2_du'
I0
tp999
a(S'p2_vo'
I0
tp1000
a(S'w'
I7
tp1001
a(S'tr_tl'
I171
tp1002
a(S'w'
I1
tp1003
a(S'tr_ll'
I0
tp1004
a(S'tr_th'
I1
tp1005
a(S'w'
I5
tp1006
a(S'no_np'
I3
tp1007
a(S'no_ll'
I1
tp1008
a(S'w'
I6593
tp1009
a(S'w'
I1
tp1010
a(S'p2_ll'
I0
tp1011
a(S'w'
I7
tp1012
a(S'tr_ll'
I0
tp1013
a(S'w'
I5
tp1014
a(S'no_np'
I1
tp1015
a(S'w'
I1
tp1016
a(S'no_ll'
I1
tp1017
a(S'w'
I718
tp1018
a(S'p2_du'
I2
tp1019
a(S'p2_vo'
I5
tp1020
a(S'w'
I5872
tp1021
a(S'p2_tl'
I13
tp1022
a(S'w'
I1
tp1023
a(S'p2_ll'
I0
tp1024
a(S'w'
I7
tp1025
a(S'tr_tl'
I27
tp1026
a(S'tr_ll'
I0
tp1027
a(S'tr_th'
I2
tp1028
a(S'w'
I5
tp1029
a(S'no_ll'
I1
tp1030
a(S'w'
I6593
tp1031
a(S'tr_ll'
I0
tp1032
a(S'w'
I6
tp1033
a(S'no_ll'
I1
tp1034
a(S'w'
I6599
tp1035
a(S'tr_tl'
I13
tp1036
a(S'tr_ll'
I0
tp1037
a(S'tr_th'
I1
tp1038
a(S'w'
I5
tp1039
a(S'no_np'
I3
tp1040
a(S'no_ll'
I1
tp1041
a(S'w'
I6599
tp1042
a(S'tr_ll'
I0
tp1043
a(S'w'
I5
tp1044
a(S'no_np'
I1
tp1045
a(S'no_ll'
I1
tp1046
a(S'w'
I6598
tp1047
a(S'tr_tl'
I27
tp1048
a(S'tr_ll'
I0
tp1049
a(S'tr_th'
I2
tp1050
a(S'w'
I6
tp1051
a(S'no_ll'
I1
tp1052
a(S'w'
I6598
tp1053
a(S'tr_ll'
I0
tp1054
a(S'w'
I5
tp1055
a(S'w'
I1
tp1056
a(S'no_ll'
I1
tp1057
a(S'w'
I6599
tp1058
a(S'tr_tl'
I13
tp1059
a(S'tr_ll'
I0
tp1060
a(S'tr_th'
I1
tp1061
a(S'w'
I5
tp1062
a(S'no_np'
I3
tp1063
a(S'no_ll'
I1
tp1064
a(S'w'
I6599
tp1065
a(S'tr_ll'
I0
tp1066
a(S'w'
I5
tp1067
a(S'no_np'
I1
tp1068
a(S'no_ll'
I1
tp1069
a(S'w'
I6597
tp1070
a(S'p2_tl'
I29
tp1071
a(S'w'
I1
tp1072
a(S'p2_ll'
I0
tp1073
a(S'w'
I7
tp1074
a(S'tr_tl'
I87
tp1075
a(S'tr_ll'
I0
tp1076
a(S'tr_th'
I3
tp1077
a(S'w'
I7
tp1078
a(S'no_ll'
I1
tp1079
a(S'w'
I6590
tp1080
a(S'w'
I1
tp1081
a(S'p2_ll'
I0
tp1082
a(S'w'
I7
tp1083
a(S'tr_ll'
I0
tp1084
a(S'w'
I5
tp1085
a(S'no_ll'
I1
tp1086
a(S'w'
I6589
tp1087
a(S'p2_du'
I0
tp1088
a(S'p2_vo'
I0
tp1089
a(S'w'
I7
tp1090
a(S'tr_tl'
I171
tp1091
a(S'w'
I1
tp1092
a(S'tr_ll'
I0
tp1093
a(S'tr_th'
I1
tp1094
a(S'w'
I5
tp1095
a(S'no_np'
I3
tp1096
a(S'no_ll'
I1
tp1097
a(S'w'
I6593
tp1098
a(S'w'
I1
tp1099
a(S'p2_ll'
I0
tp1100
a(S'w'
I7
tp1101
a(S'tr_ll'
I0
tp1102
a(S'w'
I5
tp1103
a(S'no_np'
I1
tp1104
a(S'w'
I1
tp1105
a(S'no_ll'
I1
tp1106
a(S'w'
I718
tp1107
a(S'p2_du'
I2
tp1108
a(S'p2_vo'
I5
tp1109
a(S'w'
I5872
tp1110
a(S'w'
I1
tp1111
a(S'p2_ll'
I0
tp1112
a(S'w'
I7
tp1113
a(S'tr_tl'
I87
tp1114
a(S'tr_ll'
I0
tp1115
a(S'tr_th'
I3
tp1116
a(S'w'
I5
tp1117
a(S'no_ll'
I1
tp1118
a(S'w'
I6591
tp1119
a(S'w'
I1
tp1120
a(S'p2_ll'
I0
tp1121
a(S'w'
I7
tp1122
a(S'tr_ll'
I0
tp1123
a(S'w'
I5
tp1124
a(S'no_ll'
I1
tp1125
a(S'w'
I6589
tp1126
a(S'p2_du'
I0
tp1127
a(S'p2_vo'
I0
tp1128
a(S'w'
I7
tp1129
a(S'tr_tl'
I171
tp1130
a(S'w'
I1
tp1131
a(S'tr_ll'
I0
tp1132
a(S'tr_th'
I1
tp1133
a(S'w'
I5
tp1134
a(S'no_np'
I3
tp1135
a(S'no_ll'
I1
tp1136
a(S'w'
I6593
tp1137
a(S'w'
I1
tp1138
a(S'p2_ll'
I0
tp1139
a(S'w'
I7
tp1140
a(S'tr_ll'
I0
tp1141
a(S'w'
I5
tp1142
a(S'no_np'
I1
tp1143
a(S'w'
I1
tp1144
a(S'no_ll'
I1
tp1145
a(S'w'
I718
tp1146
a(S'p2_du'
I2
tp1147
a(S'p2_vo'
I5
tp1148
a(S'w'
I5872
tp1149
a(S'p2_tl'
I13
tp1150
a(S'w'
I1
tp1151
a(S'p2_ll'
I0
tp1152
a(S'w'
I7
tp1153
a(S'tr_tl'
I27
tp1154
a(S'tr_ll'
I0
tp1155
a(S'tr_th'
I2
tp1156
a(S'w'
I5
tp1157
a(S'no_ll'
I1
tp1158
a(S'w'
I6593
tp1159
a(S'tr_ll'
I0
tp1160
a(S'w'
I6
tp1161
a(S'no_ll'
I1
tp1162
a(S'w'
I6599
tp1163
a(S'tr_tl'
I13
tp1164
a(S'tr_ll'
I0
tp1165
a(S'tr_th'
I1
tp1166
a(S'w'
I5
tp1167
a(S'no_np'
I3
tp1168
a(S'no_ll'
I1
tp1169
a(S'w'
I6599
tp1170
a(S'tr_ll'
I0
tp1171
a(S'w'
I5
tp1172
a(S'no_np'
I1
tp1173
a(S'no_ll'
I1
tp1174
a(S'w'
I6598
tp1175
a(S'tr_tl'
I27
tp1176
a(S'tr_ll'
I0
tp1177
a(S'tr_th'
I2
tp1178
a(S'w'
I5
tp1179
a(S'w'
I1
tp1180
a(S'no_ll'
I1
tp1181
a(S'w'
I6598
tp1182
a(S'tr_ll'
I0
tp1183
a(S'w'
I6
tp1184
a(S'no_ll'
I1
tp1185
a(S'w'
I6599
tp1186
a(S'tr_tl'
I13
tp1187
a(S'tr_ll'
I0
tp1188
a(S'tr_th'
I1
tp1189
a(S'w'
I5
tp1190
a(S'no_np'
I3
tp1191
a(S'no_ll'
I1
tp1192
a(S'w'
I6599
tp1193
a(S'tr_ll'
I0
tp1194
a(S'w'
I5
tp1195
a(S'no_np'
I1
tp1196
a(S'no_ll'
I1
tp1197
a(S'w'
I6597
tp1198
a(S'w'
I1
tp1199
a(S'p2_ll'
I0
tp1200
a(S'w'
I7
tp1201
a(S'tr_tl'
I39
tp1202
a(S'tr_ll'
I0
tp1203
a(S'tr_th'
I3
tp1204
a(S'w'
I7
tp1205
a(S'no_ll'
I1
tp1206
a(S'w'
I6590
tp1207
a(S'w'
I1
tp1208
a(S'p2_ll'
I0
tp1209
a(S'w'
I7
tp1210
a(S'tr_ll'
I0
tp1211
a(S'w'
I5
tp1212
a(S'no_ll'
I1
tp1213
a(S'w'
I6589
tp1214
a(S'p2_du'
I0
tp1215
a(S'p2_vo'
I0
tp1216
a(S'w'
I7
tp1217
a(S'tr_tl'
I147
tp1218
a(S'w'
I1
tp1219
a(S'tr_ll'
I0
tp1220
a(S'tr_th'
I1
tp1221
a(S'w'
I5
tp1222
a(S'no_np'
I3
tp1223
a(S'no_ll'
I1
tp1224
a(S'w'
I6593
tp1225
a(S'w'
I1
tp1226
a(S'p2_ll'
I0
tp1227
a(S'w'
I7
tp1228
a(S'tr_ll'
I0
tp1229
a(S'w'
I5
tp1230
a(S'no_np'
I1
tp1231
a(S'w'
I1
tp1232
a(S'no_ll'
I1
tp1233
a(S'w'
I718
tp1234
a(S'p2_du'
I2
tp1235
a(S'p2_vo'
I5
tp1236
a(S'w'
I5872
tp1237
a(S'w'
I1
tp1238
a(S'p2_ll'
I0
tp1239
a(S'w'
I7
tp1240
a(S'tr_tl'
I39
tp1241
a(S'tr_ll'
I0
tp1242
a(S'tr_th'
I3
tp1243
a(S'w'
I5
tp1244
a(S'no_ll'
I1
tp1245
a(S'w'
I6591
tp1246
a(S'w'
I1
tp1247
a(S'p2_ll'
I0
tp1248
a(S'w'
I7
tp1249
a(S'tr_ll'
I0
tp1250
a(S'w'
I5
tp1251
a(S'no_ll'
I1
tp1252
a(S'w'
I6589
tp1253
a(S'p2_du'
I0
tp1254
a(S'p2_vo'
I0
tp1255
a(S'w'
I7
tp1256
a(S'tr_tl'
I147
tp1257
a(S'w'
I1
tp1258
a(S'tr_ll'
I0
tp1259
a(S'tr_th'
I1
tp1260
a(S'w'
I5
tp1261
a(S'no_np'
I3
tp1262
a(S'no_ll'
I1
tp1263
a(S'w'
I6593
tp1264
a(S'w'
I1
tp1265
a(S'p2_ll'
I0
tp1266
a(S'w'
I7
tp1267
a(S'tr_tl'
I39
tp1268
a(S'tr_ll'
I0
tp1269
a(S'tr_th'
I3
tp1270
a(S'w'
I5
tp1271
a(S'no_np'
I1
tp1272
a(S'no_ll'
I1
tp1273
a(S'w'
I719
tp1274
a(S'p2_du'
I2
tp1275
a(S'p2_vo'
I5
tp1276
a(S'w'
I5872
tp1277
a(S'p2_tl'
I254
tp1278
a(S'w'
I1
tp1279
a(S'p2_ll'
I0
tp1280
a(S'p2_th'
I0
tp1281
a(S'w'
I7
tp1282
a(S'tr_tl'
I252
tp1283
a(S'tr_ll'
I0
tp1284
a(S'tr_th'
I1
tp1285
a(S'w'
I5
tp1286
a(S'no_ll'
I1
tp1287
a(S'w'
I6593
tp1288
a(S'tr_ll'
I0
tp1289
a(S'w'
I5
tp1290
a(S'w'
I1
tp1291
a(S'no_ll'
I1
tp1292
a(S'w'
I6599
tp1293
a(S'tr_tl'
I254
tp1294
a(S'tr_ll'
I0
tp1295
a(S'tr_th'
I0
tp1296
a(S'w'
I5
tp1297
a(S'no_np'
I3
tp1298
a(S'no_ll'
I1
tp1299
a(S'w'
I6599
tp1300
a(S'tr_ll'
I0
tp1301
a(S'w'
I5
tp1302
a(S'no_np'
I1
tp1303
a(S'no_ll'
I1
tp1304
a(S'w'
I6598
tp1305
a(S'tr_tl'
I252
tp1306
a(S'tr_ll'
I0
tp1307
a(S'tr_th'
I1
tp1308
a(S'w'
I6
tp1309
a(S'no_ll'
I1
tp1310
a(S'w'
I6598
tp1311
a(S'tr_ll'
I0
tp1312
a(S'w'
I5
tp1313
a(S'w'
I1
tp1314
a(S'no_ll'
I1
tp1315
a(S'w'
I6599
tp1316
a(S'tr_tl'
I254
tp1317
a(S'tr_ll'
I0
tp1318
a(S'tr_th'
I0
tp1319
a(S'w'
I5
tp1320
a(S'no_np'
I3
tp1321
a(S'no_ll'
I1
tp1322
a(S'w'
I6599
tp1323
a(S'tr_ll'
I0
tp1324
a(S'w'
I5
tp1325
a(S'no_np'
I1
tp1326
a(S'no_ll'
I1
tp1327
a(S'w'
I6597
tp1328
a(S'p2_tl'
I13
tp1329
a(S'w'
I1
tp1330
a(S'p2_ll'
I0
tp1331
a(S'p2_th'
I1
tp1332
a(S'w'
I7
tp1333
a(S'tr_tl'
I39
tp1334
a(S'tr_ll'
I0
tp1335
a(S'tr_th'
I3
tp1336
a(S'w'
I7
tp1337
a(S'no_ll'
I1
tp1338
a(S'w'
I6590
tp1339
a(S'w'
I1
tp1340
a(S'p2_ll'
I0
tp1341
a(S'w'
I7
tp1342
a(S'tr_ll'
I0
tp1343
a(S'w'
I5
tp1344
a(S'no_ll'
I1
tp1345
a(S'w'
I6589
tp1346
a(S'p2_du'
I0
tp1347
a(S'p2_vo'
I0
tp1348
a(S'w'
I7
tp1349
a(S'tr_tl'
I147
tp1350
a(S'w'
I1
tp1351
a(S'tr_ll'
I0
tp1352
a(S'tr_th'
I1
tp1353
a(S'w'
I5
tp1354
a(S'no_np'
I3
tp1355
a(S'no_ll'
I1
tp1356
a(S'w'
I6593
tp1357
a(S'w'
I1
tp1358
a(S'p2_ll'
I0
tp1359
a(S'w'
I7
tp1360
a(S'tr_ll'
I0
tp1361
a(S'w'
I5
tp1362
a(S'no_np'
I1
tp1363
a(S'w'
I1
tp1364
a(S'no_ll'
I1
tp1365
a(S'w'
I718
tp1366
a(S'p2_du'
I2
tp1367
a(S'p2_vo'
I5
tp1368
a(S'w'
I5872
tp1369
a(S'w'
I1
tp1370
a(S'p2_ll'
I0
tp1371
a(S'w'
I7
tp1372
a(S'tr_tl'
I39
tp1373
a(S'tr_ll'
I0
tp1374
a(S'tr_th'
I3
tp1375
a(S'w'
I5
tp1376
a(S'no_ll'
I1
tp1377
a(S'w'
I6591
tp1378
a(S'w'
I1
tp1379
a(S'p2_ll'
I0
tp1380
a(S'w'
I7
tp1381
a(S'tr_ll'
I0
tp1382
a(S'w'
I5
tp1383
a(S'no_ll'
I1
tp1384
a(S'w'
I6589
tp1385
a(S'p2_du'
I0
tp1386
a(S'p2_vo'
I0
tp1387
a(S'w'
I7
tp1388
a(S'tr_tl'
I147
tp1389
a(S'w'
I1
tp1390
a(S'tr_ll'
I0
tp1391
a(S'tr_th'
I1
tp1392
a(S'w'
I5
tp1393
a(S'no_np'
I3
tp1394
a(S'no_ll'
I1
tp1395
a(S'w'
I6593
tp1396
a(S'w'
I1
tp1397
a(S'p2_ll'
I0
tp1398
a(S'w'
I7
tp1399
a(S'tr_ll'
I0
tp1400
a(S'w'
I5
tp1401
a(S'no_np'
I1
tp1402
a(S'w'
I1
tp1403
a(S'no_ll'
I1
tp1404
a(S'w'
I718
tp1405
a(S'p2_du'
I2
tp1406
a(S'p2_vo'
I5
tp1407
a(S'w'
I5872
tp1408
a(S'p2_tl'
I254
tp1409
a(S'p2_ll'
I0
tp1410
a(S'p2_th'
I0
tp1411
a(S'w'
I8
tp1412
a(S'tr_tl'
I252
tp1413
a(S'tr_ll'
I0
tp1414
a(S'w'
I5
tp1415
a(S'no_ll'
I1
tp1416
a(S'w'
I6593
tp1417
a(S'tr_ll'
I0
tp1418
a(S'w'
I5
tp1419
a(S'w'
I1
tp1420
a(S'no_ll'
I1
tp1421
a(S'w'
I6599
tp1422
a(S'tr_tl'
I254
tp1423
a(S'tr_ll'
I0
tp1424
a(S'tr_th'
I0
tp1425
a(S'w'
I5
tp1426
a(S'no_np'
I3
tp1427
a(S'no_ll'
I1
tp1428
a(S'w'
I6599
tp1429
a(S'tr_ll'
I0
tp1430
a(S'w'
I5
tp1431
a(S'no_np'
I1
tp1432
a(S'no_ll'
I1
tp1433
a(S'w'
I6598
tp1434
a(S'tr_tl'
I252
tp1435
a(S'tr_ll'
I0
tp1436
a(S'tr_th'
I1
tp1437
a(S'w'
I6
tp1438
a(S'no_ll'
I1
tp1439
a(S'w'
I6598
tp1440
a(S'tr_ll'
I0
tp1441
a(S'w'
I5
tp1442
a(S'w'
I1
tp1443
a(S'no_ll'
I1
tp1444
a(S'w'
I6599
tp1445
a(S'tr_tl'
I254
tp1446
a(S'tr_ll'
I0
tp1447
a(S'tr_th'
I0
tp1448
a(S'w'
I5
tp1449
a(S'no_np'
I3
tp1450
a(S'no_ll'
I1
tp1451
a(S'w'
I6599
tp1452
a(S'tr_ll'
I0
tp1453
a(S'w'
I5
tp1454
a(S'no_np'
I1
tp1455
a(S'no_ll'
I1
tp1456
a(S'w'
I6600
tp1457
a(S'p2_tl'
I190
tp1458
a(S'p2_ll'
I0
tp1459
a(S'w'
I8
tp1460
a(S'tr_tl'
I250
tp1461
a(S'tr_ll'
I0
tp1462
a(S'tr_th'
I2
tp1463
a(S'w'
I7
tp1464
a(S'no_ll'
I1
tp1465
a(S'w'
I714
tp1466
a(S'p2_vo'
I7
tp1467
a(S'p2_se'
I1
tp1468
a(S'p2_sp'
I1
tp1469
a(S'p2_ss'
I3
tp1470
a(S'w'
I5874
tp1471
a(S'p2_tl'
I160
tp1472
a(S'p2_ll'
I0
tp1473
a(S'w'
I7
tp1474
a(S'tr_ll'
I0
tp1475
a(S'w'
I6
tp1476
a(S'no_ll'
I1
tp1477
a(S'w'
I6591
tp1478
a(S'p2_tl'
I169
tp1479
a(S'p2_ll'
I0
tp1480
a(S'w'
I8
tp1481
a(S'tr_tl'
I125
tp1482
a(S'tr_ll'
I0
tp1483
a(S'tr_th'
I1
tp1484
a(S'w'
I5
tp1485
a(S'no_np'
I3
tp1486
a(S'no_ll'
I1
tp1487
a(S'w'
I6591
tp1488
a(S'p2_tl'
I160
tp1489
a(S'p2_ll'
I0
tp1490
a(S'w'
I8
tp1491
a(S'tr_ll'
I0
tp1492
a(S'w'
I5
tp1493
a(S'no_np'
I1
tp1494
a(S'no_ll'
I1
tp1495
a(S'w'
I6591
tp1496
a(S'p2_tl'
I190
tp1497
a(S'p2_ll'
I0
tp1498
a(S'w'
I7
tp1499
a(S'tr_tl'
I250
tp1500
a(S'tr_ll'
I0
tp1501
a(S'tr_th'
I2
tp1502
a(S'w'
I6
tp1503
a(S'no_ll'
I1
tp1504
a(S'w'
I6591
tp1505
a(S'p2_tl'
I80
tp1506
a(S'p2_ll'
I0
tp1507
a(S'w'
I8
tp1508
a(S'tr_ll'
I0
tp1509
a(S'w'
I5
tp1510
a(S'no_ll'
I1
tp1511
a(S'w'
I6591
tp1512
a(S'p2_tl'
I84
tp1513
a(S'p2_ll'
I0
tp1514
a(S'w'
I8
tp1515
a(S'tr_tl'
I125
tp1516
a(S'tr_ll'
I0
tp1517
a(S'tr_th'
I1
tp1518
a(S'w'
I5
tp1519
a(S'no_np'
I3
tp1520
a(S'no_ll'
I1
tp1521
a(S'w'
I6591
tp1522
a(S'p2_tl'
I95
tp1523
a(S'p2_ll'
I0
tp1524
a(S'w'
I8
tp1525
a(S'tr_ll'
I0
tp1526
a(S'w'
I5
tp1527
a(S'no_np'
I1
tp1528
a(S'no_ll'
I1
tp1529
a(S'w'
I6591
tp1530
a(S'p2_tl'
I254
tp1531
a(S'p2_ll'
I0
tp1532
a(S'w'
I7
tp1533
a(S'tr_tl'
I252
tp1534
a(S'tr_ll'
I0
tp1535
a(S'w'
I5
tp1536
a(S'no_ll'
I1
tp1537
a(S'w'
I6593
tp1538
a(S'p2_tl'
I213
tp1539
a(S'p2_ll'
I0
tp1540
a(S'w'
I7
tp1541
a(S'tr_ll'
I0
tp1542
a(S'w'
I6
tp1543
a(S'no_ll'
I1
tp1544
a(S'w'
I6591
tp1545
a(S'p2_tl'
I225
tp1546
a(S'p2_ll'
I0
tp1547
a(S'w'
I7
tp1548
a(S'tr_tl'
I254
tp1549
a(S'tr_ll'
I0
tp1550
a(S'tr_th'
I0
tp1551
a(S'w'
I6
tp1552
a(S'no_np'
I3
tp1553
a(S'no_ll'
I1
tp1554
a(S'w'
I6591
tp1555
a(S'p2_tl'
I213
tp1556
a(S'p2_ll'
I0
tp1557
a(S'w'
I8
tp1558
a(S'tr_ll'
I0
tp1559
a(S'w'
I5
tp1560
a(S'no_np'
I1
tp1561
a(S'no_ll'
I1
tp1562
a(S'w'
I6591
tp1563
a(S'p2_tl'
I254
tp1564
a(S'p2_ll'
I0
tp1565
a(S'w'
I7
tp1566
a(S'tr_tl'
I252
tp1567
a(S'tr_ll'
I0
tp1568
a(S'tr_th'
I1
tp1569
a(S'w'
I5
tp1570
a(S'no_ll'
I1
tp1571
a(S'w'
I6592
tp1572
a(S'p2_tl'
I106
tp1573
a(S'p2_ll'
I0
tp1574
a(S'w'
I8
tp1575
a(S'tr_ll'
I0
tp1576
a(S'w'
I5
tp1577
a(S'no_ll'
I1
tp1578
a(S'w'
I6591
tp1579
a(S'p2_tl'
I112
tp1580
a(S'p2_ll'
I0
tp1581
a(S'w'
I8
tp1582
a(S'tr_tl'
I254
tp1583
a(S'tr_ll'
I0
tp1584
a(S'tr_th'
I0
tp1585
a(S'w'
I5
tp1586
a(S'no_np'
I3
tp1587
a(S'no_ll'
I1
tp1588
a(S'w'
I6591
tp1589
a(S'p2_tl'
I127
tp1590
a(S'p2_ll'
I0
tp1591
a(S'w'
I8
tp1592
a(S'tr_ll'
I0
tp1593
a(S'w'
I5
tp1594
a(S'no_np'
I1
tp1595
a(S'no_ll'
I1
tp1596
a(S'w'
I6591
tp1597
a(S'p2_tl'
I213
tp1598
a(S'p2_ll'
I0
tp1599
a(S'w'
I7
tp1600
a(S'tr_tl'
I87
tp1601
a(S'tr_ll'
I0
tp1602
a(S'tr_th'
I3
tp1603
a(S'w'
I8
tp1604
a(S'no_ll'
I1
tp1605
a(S'w'
I6590
tp1606
a(S'p2_tl'
I179
tp1607
a(S'p2_ll'
I0
tp1608
a(S'w'
I7
tp1609
a(S'tr_ll'
I0
tp1610
a(S'w'
I6
tp1611
a(S'no_ll'
I1
tp1612
a(S'w'
I6591
tp1613
a(S'p2_tl'
I190
tp1614
a(S'p2_ll'
I0
tp1615
a(S'w'
I8
tp1616
a(S'tr_tl'
I171
tp1617
a(S'tr_ll'
I0
tp1618
a(S'tr_th'
I1
tp1619
a(S'w'
I5
tp1620
a(S'no_np'
I3
tp1621
a(S'no_ll'
I1
tp1622
a(S'w'
I6591
tp1623
a(S'p2_tl'
I179
tp1624
a(S'p2_ll'
I0
tp1625
a(S'w'
I8
tp1626
a(S'tr_ll'
I0
tp1627
a(S'w'
I5
tp1628
a(S'no_np'
I1
tp1629
a(S'no_ll'
I1
tp1630
a(S'w'
I6591
tp1631
a(S'p2_tl'
I213
tp1632
a(S'p2_ll'
I0
tp1633
a(S'w'
I7
tp1634
a(S'tr_tl'
I87
tp1635
a(S'tr_ll'
I0
tp1636
a(S'tr_th'
I3
tp1637
a(S'w'
I6
tp1638
a(S'no_ll'
I1
tp1639
a(S'w'
I6591
tp1640
a(S'p2_tl'
I89
tp1641
a(S'p2_ll'
I0
tp1642
a(S'w'
I8
tp1643
a(S'tr_ll'
I0
tp1644
a(S'w'
I5
tp1645
a(S'no_ll'
I1
tp1646
a(S'w'
I6591
tp1647
a(S'p2_tl'
I95
tp1648
a(S'p2_ll'
I0
tp1649
a(S'w'
I8
tp1650
a(S'tr_tl'
I171
tp1651
a(S'tr_ll'
I0
tp1652
a(S'tr_th'
I1
tp1653
a(S'w'
I5
tp1654
a(S'no_np'
I3
tp1655
a(S'no_ll'
I1
tp1656
a(S'w'
I6591
tp1657
a(S'p2_tl'
I106
tp1658
a(S'p2_ll'
I0
tp1659
a(S'w'
I8
tp1660
a(S'tr_ll'
I0
tp1661
a(S'w'
I5
tp1662
a(S'no_np'
I1
tp1663
a(S'no_ll'
I1
tp1664
a(S'w'
I6591
tp1665
a(S'p2_tl'
I60
tp1666
a(S'p2_ll'
I0
tp1667
a(S'w'
I8
tp1668
a(S'tr_tl'
I167
tp1669
a(S'tr_ll'
I0
tp1670
a(S'tr_th'
I2
tp1671
a(S'w'
I5
tp1672
a(S'no_ll'
I1
tp1673
a(S'w'
I6592
tp1674
a(S'p2_tl'
I63
tp1675
a(S'p2_ll'
I0
tp1676
a(S'w'
I8
tp1677
a(S'tr_ll'
I0
tp1678
a(S'w'
I5
tp1679
a(S'no_ll'
I1
tp1680
a(S'w'
I6591
tp1681
a(S'p2_tl'
I71
tp1682
a(S'p2_ll'
I0
tp1683
a(S'w'
I8
tp1684
a(S'tr_tl'
I83
tp1685
a(S'tr_ll'
I0
tp1686
a(S'tr_th'
I1
tp1687
a(S'w'
I5
tp1688
a(S'no_np'
I3
tp1689
a(S'no_ll'
I1
tp1690
a(S'w'
I6591
tp1691
a(S'p2_tl'
I120
tp1692
a(S'p2_ll'
I0
tp1693
a(S'w'
I8
tp1694
a(S'tr_ll'
I0
tp1695
a(S'w'
I5
tp1696
a(S'no_np'
I1
tp1697
a(S'no_ll'
I1
tp1698
a(S'w'
I6591
tp1699
a(S'p2_tl'
I127
tp1700
a(S'p2_ll'
I0
tp1701
a(S'w'
I7
tp1702
a(S'tr_tl'
I167
tp1703
a(S'tr_ll'
I0
tp1704
a(S'tr_th'
I2
tp1705
a(S'w'
I6
tp1706
a(S'no_ll'
I1
tp1707
a(S'w'
I6591
tp1708
a(S'p2_tl'
I142
tp1709
a(S'p2_ll'
I0
tp1710
a(S'w'
I7
tp1711
a(S'tr_ll'
I0
tp1712
a(S'w'
I6
tp1713
a(S'no_ll'
I1
tp1714
a(S'w'
I6591
tp1715
a(S'p2_tl'
I241
tp1716
a(S'p2_ll'
I0
tp1717
a(S'w'
I7
tp1718
a(S'tr_tl'
I83
tp1719
a(S'tr_ll'
I0
tp1720
a(S'tr_th'
I1
tp1721
a(S'w'
I6
tp1722
a(S'no_np'
I3
tp1723
a(S'no_ll'
I1
tp1724
a(S'w'
I6591
tp1725
a(S'p2_tl'
I254
tp1726
a(S'p2_ll'
I0
tp1727
a(S'w'
I7
tp1728
a(S'tr_ll'
I0
tp1729
a(S'w'
I6
tp1730
a(S'no_np'
I1
tp1731
a(S'no_ll'
I1
tp1732
a(S'w'
I6591
tp1733
a(S'p2_tl'
I190
tp1734
a(S'p2_ll'
I0
tp1735
a(S'w'
I7
tp1736
a(S'tr_tl'
I250
tp1737
a(S'tr_ll'
I0
tp1738
a(S'tr_th'
I2
tp1739
a(S'w'
I8
tp1740
a(S'no_ll'
I1
tp1741
a(S'w'
I6590
tp1742
a(S'p2_tl'
I160
tp1743
a(S'p2_ll'
I0
tp1744
a(S'w'
I7
tp1745
a(S'tr_ll'
I0
tp1746
a(S'w'
I6
tp1747
a(S'no_ll'
I1
tp1748
a(S'w'
I6591
tp1749
a(S'p2_tl'
I169
tp1750
a(S'p2_ll'
I0
tp1751
a(S'w'
I8
tp1752
a(S'tr_tl'
I125
tp1753
a(S'tr_ll'
I0
tp1754
a(S'tr_th'
I1
tp1755
a(S'w'
I5
tp1756
a(S'no_np'
I3
tp1757
a(S'no_ll'
I1
tp1758
a(S'w'
I6591
tp1759
a(S'p2_tl'
I160
tp1760
a(S'p2_ll'
I0
tp1761
a(S'w'
I8
tp1762
a(S'tr_ll'
I0
tp1763
a(S'w'
I5
tp1764
a(S'no_np'
I1
tp1765
a(S'no_ll'
I1
tp1766
a(S'w'
I6591
tp1767
a(S'p2_tl'
I190
tp1768
a(S'p2_ll'
I0
tp1769
a(S'w'
I7
tp1770
a(S'tr_tl'
I250
tp1771
a(S'tr_ll'
I0
tp1772
a(S'tr_th'
I2
tp1773
a(S'w'
I6
tp1774
a(S'no_ll'
I1
tp1775
a(S'w'
I6591
tp1776
a(S'p2_tl'
I80
tp1777
a(S'p2_ll'
I0
tp1778
a(S'w'
I8
tp1779
a(S'tr_ll'
I0
tp1780
a(S'w'
I5
tp1781
a(S'no_ll'
I1
tp1782
a(S'w'
I6591
tp1783
a(S'p2_tl'
I84
tp1784
a(S'p2_ll'
I0
tp1785
a(S'w'
I8
tp1786
a(S'tr_tl'
I125
tp1787
a(S'tr_ll'
I0
tp1788
a(S'tr_th'
I1
tp1789
a(S'w'
I5
tp1790
a(S'no_np'
I3
tp1791
a(S'no_ll'
I1
tp1792
a(S'w'
I6591
tp1793
a(S'p2_tl'
I95
tp1794
a(S'p2_ll'
I0
tp1795
a(S'w'
I8
tp1796
a(S'tr_ll'
I0
tp1797
a(S'w'
I5
tp1798
a(S'no_np'
I1
tp1799
a(S'no_ll'
I1
tp1800
a(S'w'
I6591
tp1801
a(S'p2_tl'
I254
tp1802
a(S'p2_ll'
I0
tp1803
a(S'w'
I7
tp1804
a(S'tr_tl'
I252
tp1805
a(S'tr_ll'
I0
tp1806
a(S'w'
I5
tp1807
a(S'no_ll'
I1
tp1808
a(S'w'
I6593
tp1809
a(S'p2_tl'
I213
tp1810
a(S'p2_ll'
I0
tp1811
a(S'w'
I7
tp1812
a(S'tr_ll'
I0
tp1813
a(S'w'
I6
tp1814
a(S'no_ll'
I1
tp1815
a(S'w'
I6591
tp1816
a(S'p2_tl'
I225
tp1817
a(S'p2_ll'
I0
tp1818
a(S'w'
I7
tp1819
a(S'tr_tl'
I254
tp1820
a(S'tr_ll'
I0
tp1821
a(S'tr_th'
I0
tp1822
a(S'w'
I6
tp1823
a(S'no_np'
I3
tp1824
a(S'no_ll'
I1
tp1825
a(S'w'
I6591
tp1826
a(S'p2_tl'
I213
tp1827
a(S'p2_ll'
I0
tp1828
a(S'w'
I8
tp1829
a(S'tr_ll'
I0
tp1830
a(S'w'
I5
tp1831
a(S'no_np'
I1
tp1832
a(S'no_ll'
I1
tp1833
a(S'w'
I6591
tp1834
a(S'p2_tl'
I254
tp1835
a(S'p2_ll'
I0
tp1836
a(S'w'
I7
tp1837
a(S'tr_tl'
I252
tp1838
a(S'tr_ll'
I0
tp1839
a(S'tr_th'
I1
tp1840
a(S'w'
I5
tp1841
a(S'no_ll'
I1
tp1842
a(S'w'
I6592
tp1843
a(S'p2_tl'
I106
tp1844
a(S'p2_ll'
I0
tp1845
a(S'w'
I8
tp1846
a(S'tr_ll'
I0
tp1847
a(S'w'
I5
tp1848
a(S'no_ll'
I1
tp1849
a(S'w'
I6591
tp1850
a(S'p2_tl'
I112
tp1851
a(S'p2_ll'
I0
tp1852
a(S'w'
I8
tp1853
a(S'tr_tl'
I254
tp1854
a(S'tr_ll'
I0
tp1855
a(S'tr_th'
I0
tp1856
a(S'w'
I5
tp1857
a(S'no_np'
I3
tp1858
a(S'no_ll'
I1
tp1859
a(S'w'
I6591
tp1860
a(S'p2_tl'
I127
tp1861
a(S'p2_ll'
I0
tp1862
a(S'w'
I8
tp1863
a(S'tr_ll'
I0
tp1864
a(S'w'
I5
tp1865
a(S'no_np'
I1
tp1866
a(S'no_ll'
I1
tp1867
a(S'w'
I6591
tp1868
a(S'p2_tl'
I213
tp1869
a(S'p2_ll'
I0
tp1870
a(S'w'
I7
tp1871
a(S'tr_tl'
I87
tp1872
a(S'tr_ll'
I0
tp1873
a(S'tr_th'
I3
tp1874
a(S'w'
I8
tp1875
a(S'no_ll'
I1
tp1876
a(S'w'
I6590
tp1877
a(S'p2_tl'
I179
tp1878
a(S'p2_ll'
I0
tp1879
a(S'w'
I7
tp1880
a(S'tr_ll'
I0
tp1881
a(S'w'
I6
tp1882
a(S'no_ll'
I1
tp1883
a(S'w'
I6591
tp1884
a(S'p2_tl'
I190
tp1885
a(S'p2_ll'
I0
tp1886
a(S'w'
I8
tp1887
a(S'tr_tl'
I171
tp1888
a(S'tr_ll'
I0
tp1889
a(S'tr_th'
I1
tp1890
a(S'w'
I5
tp1891
a(S'no_np'
I3
tp1892
a(S'no_ll'
I1
tp1893
a(S'w'
I6591
tp1894
a(S'p2_tl'
I179
tp1895
a(S'p2_ll'
I0
tp1896
a(S'w'
I8
tp1897
a(S'tr_ll'
I0
tp1898
a(S'w'
I5
tp1899
a(S'no_np'
I1
tp1900
a(S'no_ll'
I1
tp1901
a(S'w'
I6591
tp1902
a(S'p2_tl'
I213
tp1903
a(S'p2_ll'
I0
tp1904
a(S'w'
I7
tp1905
a(S'tr_tl'
I87
tp1906
a(S'tr_ll'
I0
tp1907
a(S'tr_th'
I3
tp1908
a(S'w'
I6
tp1909
a(S'no_ll'
I1
tp1910
a(S'w'
I6591
tp1911
a(S'p2_tl'
I89
tp1912
a(S'p2_ll'
I0
tp1913
a(S'w'
I8
tp1914
a(S'tr_ll'
I0
tp1915
a(S'w'
I5
tp1916
a(S'no_ll'
I1
tp1917
a(S'w'
I6591
tp1918
a(S'p2_tl'
I95
tp1919
a(S'p2_ll'
I0
tp1920
a(S'w'
I8
tp1921
a(S'tr_tl'
I171
tp1922
a(S'tr_ll'
I0
tp1923
a(S'tr_th'
I1
tp1924
a(S'w'
I5
tp1925
a(S'no_np'
I3
tp1926
a(S'no_ll'
I1
tp1927
a(S'w'
I6591
tp1928
a(S'p2_tl'
I106
tp1929
a(S'p2_ll'
I0
tp1930
a(S'w'
I8
tp1931
a(S'tr_ll'
I0
tp1932
a(S'w'
I5
tp1933
a(S'no_np'
I1
tp1934
a(S'no_ll'
I1
tp1935
a(S'w'
I6591
tp1936
a(S'p2_tl'
I169
tp1937
a(S'p2_ll'
I0
tp1938
a(S'w'
I7
tp1939
a(S'tr_tl'
I167
tp1940
a(S'tr_ll'
I0
tp1941
a(S'tr_th'
I2
tp1942
a(S'w'
I6
tp1943
a(S'no_ll'
I1
tp1944
a(S'w'
I6592
tp1945
a(S'p2_tl'
I142
tp1946
a(S'p2_ll'
I0
tp1947
a(S'w'
I7
tp1948
a(S'tr_ll'
I0
tp1949
a(S'w'
I6
tp1950
a(S'no_ll'
I1
tp1951
a(S'w'
I6591
tp1952
a(S'p2_tl'
I151
tp1953
a(S'p2_ll'
I0
tp1954
a(S'w'
I8
tp1955
a(S'tr_tl'
I83
tp1956
a(S'tr_ll'
I0
tp1957
a(S'tr_th'
I1
tp1958
a(S'w'
I5
tp1959
a(S'no_np'
I3
tp1960
a(S'no_ll'
I1
tp1961
a(S'w'
I6591
tp1962
a(S'p2_tl'
I142
tp1963
a(S'p2_ll'
I0
tp1964
a(S'w'
I8
tp1965
a(S'tr_ll'
I0
tp1966
a(S'w'
I5
tp1967
a(S'no_np'
I1
tp1968
a(S'no_ll'
I1
tp1969
a(S'w'
I6591
tp1970
a(S'p2_tl'
I169
tp1971
a(S'p2_ll'
I0
tp1972
a(S'w'
I7
tp1973
a(S'tr_tl'
I167
tp1974
a(S'tr_ll'
I0
tp1975
a(S'tr_th'
I2
tp1976
a(S'w'
I6
tp1977
a(S'no_ll'
I1
tp1978
a(S'w'
I6591
tp1979
a(S'p2_tl'
I142
tp1980
a(S'p2_ll'
I0
tp1981
a(S'w'
I7
tp1982
a(S'tr_ll'
I0
tp1983
a(S'w'
I6
tp1984
a(S'no_ll'
I1
tp1985
a(S'w'
I6591
tp1986
a(S'p2_tl'
I120
tp1987
a(S'p2_ll'
I0
tp1988
a(S'w'
I8
tp1989
a(S'tr_tl'
I83
tp1990
a(S'tr_ll'
I0
tp1991
a(S'tr_th'
I1
tp1992
a(S'w'
I5
tp1993
a(S'no_np'
I3
tp1994
a(S'no_ll'
I1
tp1995
a(S'w'
I6591
tp1996
a(S'p2_tl'
I100
tp1997
a(S'p2_ll'
I0
tp1998
a(S'w'
I8
tp1999
a(S'tr_ll'
I0
tp2000
a(S'w'
I5
tp2001
a(S'no_np'
I1
tp2002
a(S'no_ll'
I1
tp2003
a(S'w'
I6591
tp2004
a(S'p2_tl'
I95
tp2005
a(S'p2_ll'
I0
tp2006
a(S'w'
I8
tp2007
a(S'tr_tl'
I250
tp2008
a(S'tr_ll'
I0
tp2009
a(S'tr_th'
I2
tp2010
a(S'w'
I6
tp2011
a(S'no_np'
I3
tp2012
a(S'w'
I1
tp2013
a(S'no_ll'
I1
tp2014
a(S'w'
I6590
tp2015
a(S'p2_tl'
I95
tp2016
a(S'p2_ll'
I0
tp2017
a(S'w'
I8
tp2018
a(S'tr_tl'
I125
tp2019
a(S'tr_ll'
I0
tp2020
a(S'tr_th'
I1
tp2021
a(S'w'
I5
tp2022
a(S'no_ll'
I1
tp2023
a(S'w'
I6590
tp2024
a(S'no_lh'
I1
tp2025
a(S'no_cv'
I1
tp2026
a(S'no_vo'
I0
tp2027
a(S'w'
I6605
tp2028
a(S'p2_tl'
I89
tp2029
a(S'p2_ll'
I0
tp2030
a(S'w'
I8
tp2031
a(S'tr_tl'
I103
tp2032
a(S'tr_ll'
I0
tp2033
a(S'w'
I5
tp2034
a(S'no_ll'
I1
tp2035
a(S'w'
I727
tp2036
a(S'no_lh'
I0
tp2037
a(S'no_cv'
I0
tp2038
a(S'no_vo'
I1
tp2039
a(S'w'
I5863
tp2040
a(S'no_lh'
I1
tp2041
a(S'no_cv'
I1
tp2042
a(S'no_vo'
I0
tp2043
a(S'w'
I6605
tp2044
a(S'p2_tl'
I95
tp2045
a(S'p2_ll'
I0
tp2046
a(S'w'
I8
tp2047
a(S'tr_tl'
I125
tp2048
a(S'tr_ll'
I0
tp2049
a(S'w'
I5
tp2050
a(S'no_ll'
I1
tp2051
a(S'w'
I727
tp2052
a(S'no_lh'
I0
tp2053
a(S'no_cv'
I0
tp2054
a(S'no_vo'
I1
tp2055
a(S'w'
I5863
tp2056
a(S'no_lh'
I1
tp2057
a(S'no_cv'
I1
tp2058
a(S'no_vo'
I0
tp2059
a(S'w'
I6605
tp2060
a(S'p2_tl'
I106
tp2061
a(S'p2_ll'
I0
tp2062
a(S'w'
I8
tp2063
a(S'tr_tl'
I171
tp2064
a(S'tr_ll'
I0
tp2065
a(S'w'
I5
tp2066
a(S'no_ll'
I1
tp2067
a(S'w'
I727
tp2068
a(S'no_lh'
I0
tp2069
a(S'no_cv'
I0
tp2070
a(S'no_vo'
I1
tp2071
a(S'w'
I5864
tp2072
a(S'p2_tl'
I95
tp2073
a(S'p2_ll'
I0
tp2074
a(S'w'
I8
tp2075
a(S'tr_tl'
I125
tp2076
a(S'tr_ll'
I0
tp2077
a(S'w'
I5
tp2078
a(S'no_ll'
I1
tp2079
a(S'w'
I6591
tp2080
a(S'no_lh'
I1
tp2081
a(S'no_cv'
I1
tp2082
a(S'no_vo'
I0
tp2083
a(S'w'
I6602
tp2084
a(S'p2_du'
I0
tp2085
a(S'p2_vo'
I0
tp2086
a(S'w'
I5
tp2087
a(S'tr_lr'
I48
tp2088
a(S'w'
I5
tp2089
a(S'w'
I1
tp2090
a(S'no_ll'
I1
tp2091
a(S'w'
I724
tp2092
a(S'no_lh'
I0
tp2093
a(S'no_cv'
I0
tp2094
a(S'no_vo'
I1
tp2095
a(S'w'
I5871
tp2096
a(S'w'
I1
tp2097
a(S'no_ll'
I1
tp2098
a(S'w'
I6603
tp2099
a(S'w'
I1
tp2100
a(S'no_ll'
I1
tp2101
a(S'w'
I6603
tp2102
a(S'no_lh'
I1
tp2103
a(S'no_cv'
I1
tp2104
a(S'no_vo'
I0
tp2105
a(S'w'
I19818
tp2106
a(S'p2_tl'
I71
tp2107
a(S'p2_ll'
I0
tp2108
a(S'w'
I10
tp2109
a(S'tr_tl'
I58
tp2110
a(S'tr_ll'
I0
tp2111
a(S'tr_th'
I2
tp2112
a(S'w'
I7
tp2113
a(S'no_np'
I1
tp2114
a(S'no_ll'
I1
tp2115
a(S'w'
I9
tp2116
a.