(lp1
(S'clock'
p2
I1789773
tp3
a(S'w'
I2
tp4
a(S'ch_no'
I1
tp5
a(S'ch_tr'
I1
tp6
a(S'ch_p2'
I1
tp7
a(S'ch_p1'
I1
tp8
a(S'w'
I68
tp9
a(S'p2_du'
I2
tp10
a(S'p2_lh'
I1
tp11
a(S'p2_cv'
I1
tp12
a(S'p2_vo'
I4
tp13
a(S'w'
I11
tp14
a(S'p2_tl'
I40
tp15
a(S'w'
I1
tp16
a(S'p2_ll'
I0
tp17
a(S'w'
I5
tp18
a(S'tr_lr'
I31
tp19
a(S'w'
I10
tp20
a(S'tr_tl'
I64
tp21
a(S'tr_ll'
I0
tp22
a(S'tr_th'
I1
tp23
a(S'w'
I5
tp24
a(S'no_vo'
I1
tp25
a(S'w'
I8
tp26
a(S'no_np'
I2
tp27
a(S'no_ll'
I1
tp28
a(S'w'
I629
tp29
a(S'w'
I4
tp30
a(S'w'
I5
tp31
a(S'w'
I3663
tp32
a(S'w'
I1
tp33
a(S'p2_ll'
I0
tp34
a(S'w'
I4
tp35
a(S'tr_lr'
I48
tp36
a(S'w'
I6
tp37
a(S'no_lh'
I1
tp38
a(S'no_cv'
I1
tp39
a(S'no_vo'
I0
tp40
a(S'w'
I720
tp41
a(S'w'
I3672
tp42
a(S'p2_tl'
I53
tp43
a(S'w'
I1
tp44
a(S'p2_ll'
I0
tp45
a(S'w'
I6
tp46
a(S'no_ll'
I1
tp47
a(S'w'
I724
tp48
a(S'w'
I6
tp49
a(S'no_lh'
I0
tp50
a(S'no_cv'
I0
tp51
a(S'no_vo'
I1
tp52
a(S'w'
I3663
tp53
a(S'p2_du'
I0
tp54
a(S'p2_vo'
I0
tp55
a(S'w'
I7
tp56
a(S'w'
I1
tp57
a(S'tr_ll'
I0
tp58
a(S'w'
I5
tp59
a(S'no_ll'
I1
tp60
a(S'w'
I722
tp61
a(S'tr_lr'
I31
tp62
a(S'w'
I4
tp63
a(S'w'
I3667
tp64
a(S'p2_tl'
I40
tp65
a(S'w'
I1
tp66
a(S'p2_ll'
I0
tp67
a(S'w'
I7
tp68
a(S'tr_tl'
I226
tp69
a(S'tr_ll'
I0
tp70
a(S'w'
I5
tp71
a(S'no_np'
I3
tp72
a(S'no_ll'
I1
tp73
a(S'w'
I717
tp74
a(S'p2_du'
I2
tp75
a(S'p2_vo'
I4
tp76
a(S'w'
I4
tp77
a(S'w'
I5
tp78
a(S'w'
I3660
tp79
a(S'p2_du'
I0
tp80
a(S'p2_vo'
I0
tp81
a(S'w'
I6
tp82
a(S'no_lh'
I1
tp83
a(S'no_cv'
I1
tp84
a(S'no_vo'
I0
tp85
a(S'w'
I4400
tp86
a(S'p2_tl'
I53
tp87
a(S'w'
I1
tp88
a(S'p2_ll'
I0
tp89
a(S'w'
I7
tp90
a(S'tr_tl'
I64
tp91
a(S'tr_ll'
I0
tp92
a(S'w'
I5
tp93
a(S'no_np'
I2
tp94
a(S'w'
I1
tp95
a(S'no_ll'
I1
tp96
a(S'w'
I717
tp97
a(S'p2_du'
I2
tp98
a(S'p2_vo'
I4
tp99
a(S'w'
I4
tp100
a(S'w'
I5
tp101
a(S'no_lh'
I0
tp102
a(S'no_cv'
I0
tp103
a(S'no_vo'
I1
tp104
a(S'w'
I3660
tp105
a(S'p2_du'
I0
tp106
a(S'p2_vo'
I0
tp107
a(S'w'
I6
tp108
a(S'no_ll'
I1
tp109
a(S'w'
I730
tp110
a(S'w'
I3670
tp111
a(S'p2_tl'
I35
tp112
a(S'w'
I1
tp113
a(S'p2_ll'
I0
tp114
a(S'w'
I7
tp115
a(S'tr_tl'
I103
tp116
a(S'tr_ll'
I0
tp117
a(S'w'
I8
tp118
a(S'no_ll'
I1
tp119
a(S'w'
I714
tp120
a(S'p2_du'
I2
tp121
a(S'p2_vo'
I4
tp122
a(S'w'
I4
tp123
a(S'w'
I5
tp124
a(S'w'
I3663
tp125
a(S'w'
I1
tp126
a(S'p2_ll'
I0
tp127
a(S'w'
I4
tp128
a(S'tr_lr'
I48
tp129
a(S'w'
I6
tp130
a(S'no_lh'
I1
tp131
a(S'no_cv'
I1
tp132
a(S'no_vo'
I0
tp133
a(S'w'
I720
tp134
a(S'w'
I3669
tp135
a(S'p2_du'
I0
tp136
a(S'p2_vo'
I0
tp137
a(S'w'
I6
tp138
a(S'no_ll'
I1
tp139
a(S'w'
I730
tp140
a(S'no_lh'
I0
tp141
a(S'no_cv'
I0
tp142
a(S'no_vo'
I1
tp143
a(S'w'
I3670
tp144
a(S'p2_tl'
I44
tp145
a(S'w'
I1
tp146
a(S'p2_ll'
I0
tp147
a(S'w'
I7
tp148
a(S'tr_ll'
I0
tp149
a(S'w'
I5
tp150
a(S'w'
I1
tp151
a(S'no_ll'
I1
tp152
a(S'w'
I717
tp153
a(S'p2_du'
I2
tp154
a(S'p2_vo'
I4
tp155
a(S'w'
I4
tp156
a(S'tr_lr'
I31
tp157
a(S'w'
I5
tp158
a(S'w'
I3663
tp159
a(S'p2_tl'
I35
tp160
a(S'w'
I1
tp161
a(S'p2_ll'
I0
tp162
a(S'w'
I7
tp163
a(S'tr_tl'
I226
tp164
a(S'tr_ll'
I0
tp165
a(S'w'
I5
tp166
a(S'no_np'
I3
tp167
a(S'no_ll'
I1
tp168
a(S'w'
I717
tp169
a(S'w'
I4
tp170
a(S'w'
I5
tp171
a(S'w'
I3660
tp172
a(S'p2_du'
I0
tp173
a(S'p2_vo'
I0
tp174
a(S'w'
I5
tp175
a(S'tr_lr'
I48
tp176
a(S'w'
I5
tp177
a(S'no_lh'
I1
tp178
a(S'no_cv'
I1
tp179
a(S'no_vo'
I0
tp180
a(S'w'
I4396
tp181
a(S'p2_tl'
I44
tp182
a(S'w'
I1
tp183
a(S'p2_ll'
I0
tp184
a(S'w'
I6
tp185
a(S'no_np'
I2
tp186
a(S'no_ll'
I1
tp187
a(S'w'
I724
tp188
a(S'p2_du'
I2
tp189
a(S'p2_vo'
I4
tp190
a(S'w'
I6
tp191
a(S'no_lh'
I0
tp192
a(S'no_cv'
I0
tp193
a(S'no_vo'
I1
tp194
a(S'w'
I3663
tp195
a(S'p2_du'
I0
tp196
a(S'p2_vo'
I0
tp197
a(S'w'
I6
tp198
a(S'no_ll'
I1
tp199
a(S'w'
I730
tp200
a(S'w'
I3670
tp201
a(S'p2_tl'
I40
tp202
a(S'w'
I1
tp203
a(S'p2_ll'
I0
tp204
a(S'w'
I7
tp205
a(S'tr_ll'
I0
tp206
a(S'w'
I7
tp207
a(S'w'
I1
tp208
a(S'no_ll'
I1
tp209
a(S'w'
I714
tp210
a(S'p2_du'
I2
tp211
a(S'p2_vo'
I4
tp212
a(S'w'
I4
tp213
a(S'tr_lr'
I31
tp214
a(S'w'
I5
tp215
a(S'w'
I3663
tp216
a(S'w'
I1
tp217
a(S'p2_ll'
I0
tp218
a(S'w'
I4
tp219
a(S'tr_lr'
I48
tp220
a(S'w'
I6
tp221
a(S'no_lh'
I1
tp222
a(S'no_cv'
I1
tp223
a(S'no_vo'
I0
tp224
a(S'w'
I720
tp225
a(S'w'
I3672
tp226
a(S'p2_tl'
I47
tp227
a(S'w'
I1
tp228
a(S'p2_ll'
I0
tp229
a(S'w'
I6
tp230
a(S'no_ll'
I1
tp231
a(S'w'
I724
tp232
a(S'w'
I6
tp233
a(S'no_lh'
I0
tp234
a(S'no_cv'
I0
tp235
a(S'no_vo'
I1
tp236
a(S'w'
I3663
tp237
a(S'p2_du'
I0
tp238
a(S'p2_vo'
I0
tp239
a(S'w'
I7
tp240
a(S'tr_ll'
I0
tp241
a(S'w'
I5
tp242
a(S'w'
I1
tp243
a(S'no_ll'
I1
tp244
a(S'w'
I722
tp245
a(S'tr_lr'
I31
tp246
a(S'w'
I4
tp247
a(S'w'
I3667
tp248
a(S'p2_tl'
I40
tp249
a(S'w'
I1
tp250
a(S'p2_ll'
I0
tp251
a(S'w'
I7
tp252
a(S'tr_tl'
I64
tp253
a(S'tr_ll'
I0
tp254
a(S'w'
I5
tp255
a(S'no_np'
I3
tp256
a(S'w'
I1
tp257
a(S'no_ll'
I1
tp258
a(S'w'
I716
tp259
a(S'p2_du'
I2
tp260
a(S'p2_vo'
I4
tp261
a(S'w'
I4
tp262
a(S'w'
I5
tp263
a(S'w'
I3660
tp264
a(S'p2_du'
I0
tp265
a(S'p2_vo'
I0
tp266
a(S'w'
I6
tp267
a(S'no_lh'
I1
tp268
a(S'no_cv'
I1
tp269
a(S'no_vo'
I0
tp270
a(S'w'
I4400
tp271
a(S'p2_tl'
I53
tp272
a(S'w'
I1
tp273
a(S'p2_ll'
I0
tp274
a(S'w'
I7
tp275
a(S'tr_tl'
I226
tp276
a(S'tr_ll'
I0
tp277
a(S'w'
I5
tp278
a(S'no_np'
I2
tp279
a(S'no_ll'
I1
tp280
a(S'w'
I718
tp281
a(S'p2_du'
I2
tp282
a(S'p2_vo'
I4
tp283
a(S'w'
I4
tp284
a(S'w'
I5
tp285
a(S'no_lh'
I0
tp286
a(S'no_cv'
I0
tp287
a(S'no_vo'
I1
tp288
a(S'w'
I3660
tp289
a(S'p2_du'
I0
tp290
a(S'p2_vo'
I0
tp291
a(S'w'
I6
tp292
a(S'no_ll'
I1
tp293
a(S'w'
I730
tp294
a(S'w'
I3670
tp295
a(S'p2_tl'
I35
tp296
a(S'w'
I1
tp297
a(S'p2_ll'
I0
tp298
a(S'w'
I7
tp299
a(S'tr_tl'
I103
tp300
a(S'tr_ll'
I0
tp301
a(S'w'
I8
tp302
a(S'no_ll'
I1
tp303
a(S'w'
I714
tp304
a(S'p2_du'
I2
tp305
a(S'p2_vo'
I4
tp306
a(S'w'
I4
tp307
a(S'w'
I5
tp308
a(S'w'
I3663
tp309
a(S'w'
I1
tp310
a(S'p2_ll'
I0
tp311
a(S'w'
I4
tp312
a(S'tr_lr'
I48
tp313
a(S'w'
I6
tp314
a(S'no_lh'
I1
tp315
a(S'no_cv'
I1
tp316
a(S'no_vo'
I0
tp317
a(S'w'
I720
tp318
a(S'w'
I3669
tp319
a(S'p2_du'
I0
tp320
a(S'p2_vo'
I0
tp321
a(S'w'
I6
tp322
a(S'no_ll'
I1
tp323
a(S'w'
I730
tp324
a(S'no_lh'
I0
tp325
a(S'no_cv'
I0
tp326
a(S'no_vo'
I1
tp327
a(S'w'
I3670
tp328
a(S'p2_tl'
I44
tp329
a(S'w'
I1
tp330
a(S'p2_ll'
I0
tp331
a(S'w'
I7
tp332
a(S'tr_ll'
I0
tp333
a(S'w'
I5
tp334
a(S'w'
I1
tp335
a(S'no_ll'
I1
tp336
a(S'w'
I717
tp337
a(S'p2_du'
I2
tp338
a(S'p2_vo'
I4
tp339
a(S'w'
I4
tp340
a(S'tr_lr'
I31
tp341
a(S'w'
I5
tp342
a(S'w'
I3663
tp343
a(S'p2_tl'
I35
tp344
a(S'w'
I1
tp345
a(S'p2_ll'
I0
tp346
a(S'w'
I7
tp347
a(S'tr_tl'
I226
tp348
a(S'tr_ll'
I0
tp349
a(S'w'
I5
tp350
a(S'no_np'
I3
tp351
a(S'no_ll'
I1
tp352
a(S'w'
I717
tp353
a(S'w'
I4
tp354
a(S'w'
I5
tp355
a(S'w'
I3660
tp356
a(S'p2_du'
I0
tp357
a(S'p2_vo'
I0
tp358
a(S'w'
I6
tp359
a(S'no_lh'
I1
tp360
a(S'no_cv'
I1
tp361
a(S'no_vo'
I0
tp362
a(S'w'
I4400
tp363
a(S'p2_tl'
I44
tp364
a(S'w'
I1
tp365
a(S'p2_ll'
I0
tp366
a(S'w'
I7
tp367
a(S'tr_tl'
I103
tp368
a(S'tr_ll'
I0
tp369
a(S'w'
I5
tp370
a(S'no_np'
I2
tp371
a(S'w'
I1
tp372
a(S'no_ll'
I1
tp373
a(S'w'
I717
tp374
a(S'p2_du'
I2
tp375
a(S'p2_vo'
I4
tp376
a(S'w'
I4
tp377
a(S'w'
I5
tp378
a(S'no_lh'
I0
tp379
a(S'no_cv'
I0
tp380
a(S'no_vo'
I1
tp381
a(S'w'
I3660
tp382
a(S'p2_du'
I0
tp383
a(S'p2_vo'
I0
tp384
a(S'w'
I6
tp385
a(S'no_ll'
I1
tp386
a(S'w'
I730
tp387
a(S'w'
I3673
tp388
a(S'p2_tl'
I40
tp389
a(S'p2_ll'
I0
tp390
a(S'w'
I10
tp391
a(S'tr_tl'
I64
tp392
a(S'tr_ll'
I0
tp393
a(S'w'
I8
tp394
a(S'no_ll'
I1
tp395
a(S'w'
I709
tp396
a(S'p2_du'
I2
tp397
a(S'p2_vo'
I4
tp398
a(S'w'
I4
tp399
a(S'w'
I5
tp400
a(S'w'
I3663
tp401
a(S'w'
I1
tp402
a(S'p2_ll'
I0
tp403
a(S'w'
I4
tp404
a(S'tr_lr'
I48
tp405
a(S'w'
I6
tp406
a(S'no_lh'
I1
tp407
a(S'no_cv'
I1
tp408
a(S'no_vo'
I0
tp409
a(S'w'
I720
tp410
a(S'w'
I3672
tp411
a(S'p2_tl'
I53
tp412
a(S'w'
I1
tp413
a(S'p2_ll'
I0
tp414
a(S'w'
I6
tp415
a(S'no_ll'
I1
tp416
a(S'w'
I724
tp417
a(S'w'
I6
tp418
a(S'no_lh'
I0
tp419
a(S'no_cv'
I0
tp420
a(S'no_vo'
I1
tp421
a(S'w'
I3663
tp422
a(S'p2_du'
I0
tp423
a(S'p2_vo'
I0
tp424
a(S'w'
I7
tp425
a(S'w'
I1
tp426
a(S'tr_ll'
I0
tp427
a(S'w'
I5
tp428
a(S'no_ll'
I1
tp429
a(S'w'
I722
tp430
a(S'tr_lr'
I31
tp431
a(S'w'
I4
tp432
a(S'w'
I3667
tp433
a(S'p2_tl'
I40
tp434
a(S'w'
I1
tp435
a(S'p2_ll'
I0
tp436
a(S'w'
I7
tp437
a(S'tr_tl'
I226
tp438
a(S'tr_ll'
I0
tp439
a(S'w'
I5
tp440
a(S'no_np'
I3
tp441
a(S'no_ll'
I1
tp442
a(S'w'
I717
tp443
a(S'p2_du'
I2
tp444
a(S'p2_vo'
I4
tp445
a(S'w'
I4
tp446
a(S'w'
I5
tp447
a(S'w'
I3660
tp448
a(S'p2_du'
I0
tp449
a(S'p2_vo'
I0
tp450
a(S'w'
I6
tp451
a(S'no_lh'
I1
tp452
a(S'no_cv'
I1
tp453
a(S'no_vo'
I0
tp454
a(S'w'
I4400
tp455
a(S'p2_tl'
I53
tp456
a(S'w'
I1
tp457
a(S'p2_ll'
I0
tp458
a(S'w'
I7
tp459
a(S'tr_tl'
I64
tp460
a(S'tr_ll'
I0
tp461
a(S'w'
I5
tp462
a(S'no_np'
I2
tp463
a(S'w'
I1
tp464
a(S'no_ll'
I1
tp465
a(S'w'
I717
tp466
a(S'p2_du'
I2
tp467
a(S'p2_vo'
I4
tp468
a(S'w'
I4
tp469
a(S'w'
I5
tp470
a(S'no_lh'
I0
tp471
a(S'no_cv'
I0
tp472
a(S'no_vo'
I1
tp473
a(S'w'
I3660
tp474
a(S'p2_du'
I0
tp475
a(S'p2_vo'
I0
tp476
a(S'w'
I6
tp477
a(S'no_ll'
I1
tp478
a(S'w'
I730
tp479
a(S'w'
I3670
tp480
a(S'p2_tl'
I35
tp481
a(S'w'
I1
tp482
a(S'p2_ll'
I0
tp483
a(S'w'
I7
tp484
a(S'tr_tl'
I103
tp485
a(S'tr_ll'
I0
tp486
a(S'w'
I8
tp487
a(S'no_ll'
I1
tp488
a(S'w'
I714
tp489
a(S'p2_du'
I2
tp490
a(S'p2_vo'
I4
tp491
a(S'w'
I4
tp492
a(S'w'
I5
tp493
a(S'w'
I3663
tp494
a(S'w'
I1
tp495
a(S'p2_ll'
I0
tp496
a(S'w'
I4
tp497
a(S'tr_lr'
I48
tp498
a(S'w'
I6
tp499
a(S'no_lh'
I1
tp500
a(S'no_cv'
I1
tp501
a(S'no_vo'
I0
tp502
a(S'w'
I720
tp503
a(S'w'
I3669
tp504
a(S'p2_du'
I0
tp505
a(S'p2_vo'
I0
tp506
a(S'w'
I6
tp507
a(S'no_ll'
I1
tp508
a(S'w'
I730
tp509
a(S'no_lh'
I0
tp510
a(S'no_cv'
I0
tp511
a(S'no_vo'
I1
tp512
a(S'w'
I3670
tp513
a(S'p2_tl'
I44
tp514
a(S'w'
I1
tp515
a(S'p2_ll'
I0
tp516
a(S'w'
I7
tp517
a(S'tr_ll'
I0
tp518
a(S'w'
I5
tp519
a(S'w'
I1
tp520
a(S'no_ll'
I1
tp521
a(S'w'
I717
tp522
a(S'p2_du'
I2
tp523
a(S'p2_vo'
I4
tp524
a(S'w'
I4
tp525
a(S'tr_lr'
I31
tp526
a(S'w'
I5
tp527
a(S'w'
I3663
tp528
a(S'p2_tl'
I35
tp529
a(S'w'
I1
tp530
a(S'p2_ll'
I0
tp531
a(S'w'
I7
tp532
a(S'tr_tl'
I226
tp533
a(S'tr_ll'
I0
tp534
a(S'w'
I5
tp535
a(S'no_np'
I3
tp536
a(S'no_ll'
I1
tp537
a(S'w'
I717
tp538
a(S'w'
I4
tp539
a(S'w'
I5
tp540
a(S'w'
I3660
tp541
a(S'p2_du'
I0
tp542
a(S'p2_vo'
I0
tp543
a(S'w'
I5
tp544
a(S'tr_lr'
I48
tp545
a(S'w'
I5
tp546
a(S'no_lh'
I1
tp547
a(S'no_cv'
I1
tp548
a(S'no_vo'
I0
tp549
a(S'w'
I4396
tp550
a(S'p2_tl'
I44
tp551
a(S'w'
I1
tp552
a(S'p2_ll'
I0
tp553
a(S'w'
I6
tp554
a(S'no_np'
I2
tp555
a(S'no_ll'
I1
tp556
a(S'w'
I724
tp557
a(S'p2_du'
I2
tp558
a(S'p2_vo'
I4
tp559
a(S'w'
I6
tp560
a(S'no_lh'
I0
tp561
a(S'no_cv'
I0
tp562
a(S'no_vo'
I1
tp563
a(S'w'
I3663
tp564
a(S'p2_du'
I0
tp565
a(S'p2_vo'
I0
tp566
a(S'w'
I6
tp567
a(S'no_ll'
I1
tp568
a(S'w'
I730
tp569
a(S'w'
I3670
tp570
a(S'p2_tl'
I40
tp571
a(S'w'
I1
tp572
a(S'p2_ll'
I0
tp573
a(S'w'
I7
tp574
a(S'tr_ll'
I0
tp575
a(S'w'
I7
tp576
a(S'w'
I1
tp577
a(S'no_ll'
I1
tp578
a(S'w'
I714
tp579
a(S'p2_du'
I2
tp580
a(S'p2_vo'
I4
tp581
a(S'w'
I4
tp582
a(S'tr_lr'
I31
tp583
a(S'w'
I5
tp584
a(S'w'
I3663
tp585
a(S'w'
I1
tp586
a(S'p2_ll'
I0
tp587
a(S'w'
I4
tp588
a(S'tr_lr'
I48
tp589
a(S'w'
I6
tp590
a(S'no_lh'
I1
tp591
a(S'no_cv'
I1
tp592
a(S'no_vo'
I0
tp593
a(S'w'
I720
tp594
a(S'w'
I3672
tp595
a(S'p2_tl'
I47
tp596
a(S'w'
I1
tp597
a(S'p2_ll'
I0
tp598
a(S'w'
I6
tp599
a(S'no_ll'
I1
tp600
a(S'w'
I724
tp601
a(S'w'
I6
tp602
a(S'no_lh'
I0
tp603
a(S'no_cv'
I0
tp604
a(S'no_vo'
I1
tp605
a(S'w'
I3663
tp606
a(S'p2_du'
I0
tp607
a(S'p2_vo'
I0
tp608
a(S'w'
I7
tp609
a(S'tr_ll'
I0
tp610
a(S'w'
I5
tp611
a(S'w'
I1
tp612
a(S'no_ll'
I1
tp613
a(S'w'
I722
tp614
a(S'tr_lr'
I31
tp615
a(S'w'
I4
tp616
a(S'w'
I3667
tp617
a(S'p2_tl'
I40
tp618
a(S'w'
I1
tp619
a(S'p2_ll'
I0
tp620
a(S'w'
I7
tp621
a(S'tr_tl'
I64
tp622
a(S'tr_ll'
I0
tp623
a(S'w'
I5
tp624
a(S'no_np'
I3
tp625
a(S'w'
I1
tp626
a(S'no_ll'
I1
tp627
a(S'w'
I716
tp628
a(S'p2_du'
I2
tp629
a(S'p2_vo'
I4
tp630
a(S'w'
I4
tp631
a(S'w'
I5
tp632
a(S'w'
I3660
tp633
a(S'p2_du'
I0
tp634
a(S'p2_vo'
I0
tp635
a(S'w'
I6
tp636
a(S'no_lh'
I1
tp637
a(S'no_cv'
I1
tp638
a(S'no_vo'
I0
tp639
a(S'w'
I4400
tp640
a(S'p2_tl'
I53
tp641
a(S'w'
I1
tp642
a(S'p2_ll'
I0
tp643
a(S'w'
I7
tp644
a(S'tr_tl'
I226
tp645
a(S'tr_ll'
I0
tp646
a(S'w'
I5
tp647
a(S'no_np'
I2
tp648
a(S'no_ll'
I1
tp649
a(S'w'
I718
tp650
a(S'p2_du'
I2
tp651
a(S'p2_vo'
I4
tp652
a(S'w'
I4
tp653
a(S'w'
I5
tp654
a(S'no_lh'
I0
tp655
a(S'no_cv'
I0
tp656
a(S'no_vo'
I1
tp657
a(S'w'
I3660
tp658
a(S'p2_du'
I0
tp659
a(S'p2_vo'
I0
tp660
a(S'w'
I6
tp661
a(S'no_ll'
I1
tp662
a(S'w'
I730
tp663
a(S'w'
I3670
tp664
a(S'p2_tl'
I35
tp665
a(S'w'
I1
tp666
a(S'p2_ll'
I0
tp667
a(S'w'
I7
tp668
a(S'tr_tl'
I103
tp669
a(S'tr_ll'
I0
tp670
a(S'w'
I8
tp671
a(S'no_ll'
I1
tp672
a(S'w'
I714
tp673
a(S'p2_du'
I2
tp674
a(S'p2_vo'
I4
tp675
a(S'w'
I4
tp676
a(S'w'
I5
tp677
a(S'w'
I3663
tp678
a(S'w'
I1
tp679
a(S'p2_ll'
I0
tp680
a(S'w'
I4
tp681
a(S'tr_lr'
I48
tp682
a(S'w'
I6
tp683
a(S'no_lh'
I1
tp684
a(S'no_cv'
I1
tp685
a(S'no_vo'
I0
tp686
a(S'w'
I720
tp687
a(S'w'
I3669
tp688
a(S'p2_du'
I0
tp689
a(S'p2_vo'
I0
tp690
a(S'w'
I6
tp691
a(S'no_ll'
I1
tp692
a(S'w'
I730
tp693
a(S'no_lh'
I0
tp694
a(S'no_cv'
I0
tp695
a(S'no_vo'
I1
tp696
a(S'w'
I3670
tp697
a(S'p2_tl'
I44
tp698
a(S'w'
I1
tp699
a(S'p2_ll'
I0
tp700
a(S'w'
I7
tp701
a(S'tr_ll'
I0
tp702
a(S'w'
I5
tp703
a(S'w'
I1
tp704
a(S'no_ll'
I1
tp705
a(S'w'
I717
tp706
a(S'p2_du'
I2
tp707
a(S'p2_vo'
I4
tp708
a(S'w'
I4
tp709
a(S'tr_lr'
I31
tp710
a(S'w'
I5
tp711
a(S'w'
I3663
tp712
a(S'p2_tl'
I35
tp713
a(S'w'
I1
tp714
a(S'p2_ll'
I0
tp715
a(S'w'
I7
tp716
a(S'tr_tl'
I226
tp717
a(S'tr_ll'
I0
tp718
a(S'w'
I5
tp719
a(S'no_np'
I3
tp720
a(S'no_ll'
I1
tp721
a(S'w'
I717
tp722
a(S'w'
I4
tp723
a(S'w'
I5
tp724
a(S'w'
I3660
tp725
a(S'p2_du'
I0
tp726
a(S'p2_vo'
I0
tp727
a(S'w'
I6
tp728
a(S'no_lh'
I1
tp729
a(S'no_cv'
I1
tp730
a(S'no_vo'
I0
tp731
a(S'w'
I4400
tp732
a(S'p2_tl'
I44
tp733
a(S'w'
I1
tp734
a(S'p2_ll'
I0
tp735
a(S'w'
I7
tp736
a(S'tr_tl'
I103
tp737
a(S'tr_ll'
I0
tp738
a(S'w'
I5
tp739
a(S'no_np'
I2
tp740
a(S'w'
I1
tp741
a(S'no_ll'
I1
tp742
a(S'w'
I717
tp743
a(S'p2_du'
I2
tp744
a(S'p2_vo'
I4
tp745
a(S'w'
I4
tp746
a(S'w'
I5
tp747
a(S'no_lh'
I0
tp748
a(S'no_cv'
I0
tp749
a(S'no_vo'
I1
tp750
a(S'w'
I3660
tp751
a(S'p2_du'
I0
tp752
a(S'p2_vo'
I0
tp753
a(S'w'
I6
tp754
a(S'no_ll'
I1
tp755
a(S'w'
I730
tp756
a(S'w'
I3673
tp757
a(S'p2_tl'
I40
tp758
a(S'p2_ll'
I0
tp759
a(S'w'
I10
tp760
a(S'tr_tl'
I64
tp761
a(S'tr_ll'
I0
tp762
a(S'w'
I8
tp763
a(S'no_ll'
I1
tp764
a(S'w'
I709
tp765
a(S'p2_du'
I2
tp766
a(S'p2_vo'
I4
tp767
a(S'w'
I4
tp768
a(S'w'
I5
tp769
a(S'w'
I3663
tp770
a(S'w'
I1
tp771
a(S'p2_ll'
I0
tp772
a(S'w'
I4
tp773
a(S'tr_lr'
I48
tp774
a(S'w'
I6
tp775
a(S'no_lh'
I1
tp776
a(S'no_cv'
I1
tp777
a(S'no_vo'
I0
tp778
a(S'w'
I720
tp779
a(S'w'
I3672
tp780
a(S'p2_tl'
I53
tp781
a(S'w'
I1
tp782
a(S'p2_ll'
I0
tp783
a(S'w'
I6
tp784
a(S'no_ll'
I1
tp785
a(S'w'
I724
tp786
a(S'w'
I6
tp787
a(S'no_lh'
I0
tp788
a(S'no_cv'
I0
tp789
a(S'no_vo'
I1
tp790
a(S'w'
I3663
tp791
a(S'p2_du'
I0
tp792
a(S'p2_vo'
I0
tp793
a(S'w'
I7
tp794
a(S'w'
I1
tp795
a(S'tr_ll'
I0
tp796
a(S'w'
I5
tp797
a(S'no_ll'
I1
tp798
a(S'w'
I722
tp799
a(S'tr_lr'
I31
tp800
a(S'w'
I4
tp801
a(S'w'
I3667
tp802
a(S'p2_tl'
I40
tp803
a(S'w'
I1
tp804
a(S'p2_ll'
I0
tp805
a(S'w'
I7
tp806
a(S'tr_tl'
I226
tp807
a(S'tr_ll'
I0
tp808
a(S'w'
I5
tp809
a(S'no_np'
I3
tp810
a(S'no_ll'
I1
tp811
a(S'w'
I717
tp812
a(S'p2_du'
I2
tp813
a(S'p2_vo'
I4
tp814
a(S'w'
I4
tp815
a(S'w'
I5
tp816
a(S'w'
I3660
tp817
a(S'p2_du'
I0
tp818
a(S'p2_vo'
I0
tp819
a(S'w'
I6
tp820
a(S'no_lh'
I1
tp821
a(S'no_cv'
I1
tp822
a(S'no_vo'
I0
tp823
a(S'w'
I4400
tp824
a(S'p2_tl'
I53
tp825
a(S'w'
I1
tp826
a(S'p2_ll'
I0
tp827
a(S'w'
I7
tp828
a(S'tr_tl'
I64
tp829
a(S'tr_ll'
I0
tp830
a(S'w'
I5
tp831
a(S'no_np'
I2
tp832
a(S'w'
I1
tp833
a(S'no_ll'
I1
tp834
a(S'w'
I717
tp835
a(S'p2_du'
I2
tp836
a(S'p2_vo'
I4
tp837
a(S'w'
I4
tp838
a(S'w'
I5
tp839
a(S'no_lh'
I0
tp840
a(S'no_cv'
I0
tp841
a(S'no_vo'
I1
tp842
a(S'w'
I3660
tp843
a(S'p2_du'
I0
tp844
a(S'p2_vo'
I0
tp845
a(S'w'
I6
tp846
a(S'no_ll'
I1
tp847
a(S'w'
I730
tp848
a(S'w'
I3670
tp849
a(S'p2_tl'
I35
tp850
a(S'w'
I1
tp851
a(S'p2_ll'
I0
tp852
a(S'w'
I7
tp853
a(S'tr_tl'
I103
tp854
a(S'tr_ll'
I0
tp855
a(S'w'
I8
tp856
a(S'no_ll'
I1
tp857
a(S'w'
I714
tp858
a(S'p2_du'
I2
tp859
a(S'p2_vo'
I4
tp860
a(S'w'
I4
tp861
a(S'w'
I5
tp862
a(S'w'
I3663
tp863
a(S'w'
I1
tp864
a(S'p2_ll'
I0
tp865
a(S'w'
I4
tp866
a(S'tr_lr'
I48
tp867
a(S'w'
I6
tp868
a(S'no_lh'
I1
tp869
a(S'no_cv'
I1
tp870
a(S'no_vo'
I0
tp871
a(S'w'
I720
tp872
a(S'w'
I3669
tp873
a(S'p2_du'
I0
tp874
a(S'p2_vo'
I0
tp875
a(S'w'
I6
tp876
a(S'no_ll'
I1
tp877
a(S'w'
I730
tp878
a(S'no_lh'
I0
tp879
a(S'no_cv'
I0
tp880
a(S'no_vo'
I1
tp881
a(S'w'
I3670
tp882
a(S'p2_tl'
I44
tp883
a(S'w'
I1
tp884
a(S'p2_ll'
I0
tp885
a(S'w'
I7
tp886
a(S'tr_ll'
I0
tp887
a(S'w'
I5
tp888
a(S'w'
I1
tp889
a(S'no_ll'
I1
tp890
a(S'w'
I717
tp891
a(S'p2_du'
I2
tp892
a(S'p2_vo'
I4
tp893
a(S'w'
I4
tp894
a(S'tr_lr'
I31
tp895
a(S'w'
I5
tp896
a(S'w'
I3663
tp897
a(S'p2_tl'
I35
tp898
a(S'w'
I1
tp899
a(S'p2_ll'
I0
tp900
a(S'w'
I7
tp901
a(S'tr_tl'
I226
tp902
a(S'tr_ll'
I0
tp903
a(S'w'
I5
tp904
a(S'no_np'
I3
tp905
a(S'no_ll'
I1
tp906
a(S'w'
I717
tp907
a(S'w'
I4
tp908
a(S'w'
I5
tp909
a(S'w'
I3660
tp910
a(S'p2_du'
I0
tp911
a(S'p2_vo'
I0
tp912
a(S'w'
I5
tp913
a(S'tr_lr'
I48
tp914
a(S'w'
I5
tp915
a(S'no_lh'
I1
tp916
a(S'no_cv'
I1
tp917
a(S'no_vo'
I0
tp918
a(S'w'
I4396
tp919
a(S'p2_tl'
I44
tp920
a(S'w'
I1
tp921
a(S'p2_ll'
I0
tp922
a(S'w'
I6
tp923
a(S'no_np'
I2
tp924
a(S'no_ll'
I1
tp925
a(S'w'
I724
tp926
a(S'p2_du'
I2
tp927
a(S'p2_vo'
I4
tp928
a(S'w'
I6
tp929
a(S'no_lh'
I0
tp930
a(S'no_cv'
I0
tp931
a(S'no_vo'
I1
tp932
a(S'w'
I3663
tp933
a(S'p2_du'
I0
tp934
a(S'p2_vo'
I0
tp935
a(S'w'
I6
tp936
a(S'no_ll'
I1
tp937
a(S'w'
I730
tp938
a(S'w'
I3669
tp939
a(S'p2_tl'
I40
tp940
a(S'w'
I1
tp941
a(S'p2_ll'
I0
tp942
a(S'w'
I7
tp943
a(S'tr_ll'
I0
tp944
a(S'w'
I7
tp945
a(S'w'
I1
tp946
a(S'no_ll'
I1
tp947
a(S'w'
I715
tp948
a(S'p2_du'
I2
tp949
a(S'p2_vo'
I4
tp950
a(S'w'
I4
tp951
a(S'tr_lr'
I31
tp952
a(S'w'
I5
tp953
a(S'w'
I3663
tp954
a(S'w'
I1
tp955
a(S'p2_ll'
I0
tp956
a(S'w'
I4
tp957
a(S'tr_lr'
I48
tp958
a(S'w'
I6
tp959
a(S'no_lh'
I1
tp960
a(S'no_cv'
I1
tp961
a(S'no_vo'
I0
tp962
a(S'w'
I720
tp963
a(S'w'
I3672
tp964
a(S'p2_tl'
I47
tp965
a(S'w'
I1
tp966
a(S'p2_ll'
I0
tp967
a(S'w'
I6
tp968
a(S'no_ll'
I1
tp969
a(S'w'
I724
tp970
a(S'w'
I6
tp971
a(S'no_lh'
I0
tp972
a(S'no_cv'
I0
tp973
a(S'no_vo'
I1
tp974
a(S'w'
I3663
tp975
a(S'p2_du'
I0
tp976
a(S'p2_vo'
I0
tp977
a(S'w'
I7
tp978
a(S'tr_ll'
I0
tp979
a(S'w'
I5
tp980
a(S'w'
I1
tp981
a(S'no_ll'
I1
tp982
a(S'w'
I722
tp983
a(S'tr_lr'
I31
tp984
a(S'w'
I4
tp985
a(S'w'
I3666
tp986
a(S'p2_tl'
I40
tp987
a(S'w'
I1
tp988
a(S'p2_ll'
I0
tp989
a(S'w'
I7
tp990
a(S'tr_tl'
I64
tp991
a(S'tr_ll'
I0
tp992
a(S'w'
I5
tp993
a(S'no_np'
I3
tp994
a(S'w'
I1
tp995
a(S'no_ll'
I1
tp996
a(S'w'
I717
tp997
a(S'p2_du'
I2
tp998
a(S'p2_vo'
I4
tp999
a(S'w'
I4
tp1000
a(S'w'
I5
tp1001
a(S'w'
I3660
tp1002
a(S'p2_du'
I0
tp1003
a(S'p2_vo'
I0
tp1004
a(S'w'
I6
tp1005
a(S'no_lh'
I1
tp1006
a(S'no_cv'
I1
tp1007
a(S'no_vo'
I0
tp1008
a(S'w'
I4400
tp1009
a(S'p2_tl'
I53
tp1010
a(S'w'
I1
tp1011
a(S'p2_ll'
I0
tp1012
a(S'w'
I7
tp1013
a(S'tr_tl'
I226
tp1014
a(S'tr_ll'
I0
tp1015
a(S'w'
I5
tp1016
a(S'no_np'
I2
tp1017
a(S'no_ll'
I1
tp1018
a(S'w'
I718
tp1019
a(S'p2_du'
I2
tp1020
a(S'p2_vo'
I4
tp1021
a(S'w'
I4
tp1022
a(S'w'
I5
tp1023
a(S'no_lh'
I0
tp1024
a(S'no_cv'
I0
tp1025
a(S'no_vo'
I1
tp1026
a(S'w'
I3660
tp1027
a(S'p2_du'
I0
tp1028
a(S'p2_vo'
I0
tp1029
a(S'w'
I6
tp1030
a(S'no_ll'
I1
tp1031
a(S'w'
I730
tp1032
a(S'w'
I3669
tp1033
a(S'p2_tl'
I35
tp1034
a(S'w'
I1
tp1035
a(S'p2_ll'
I0
tp1036
a(S'w'
I7
tp1037
a(S'tr_tl'
I103
tp1038
a(S'tr_ll'
I0
tp1039
a(S'w'
I8
tp1040
a(S'no_ll'
I1
tp1041
a(S'w'
I715
tp1042
a(S'p2_du'
I2
tp1043
a(S'p2_vo'
I4
tp1044
a(S'w'
I4
tp1045
a(S'w'
I5
tp1046
a(S'w'
I3663
tp1047
a(S'w'
I1
tp1048
a(S'p2_ll'
I0
tp1049
a(S'w'
I4
tp1050
a(S'tr_lr'
I48
tp1051
a(S'w'
I6
tp1052
a(S'no_lh'
I1
tp1053
a(S'no_cv'
I1
tp1054
a(S'no_vo'
I0
tp1055
a(S'w'
I720
tp1056
a(S'w'
I3669
tp1057
a(S'p2_du'
I0
tp1058
a(S'p2_vo'
I0
tp1059
a(S'w'
I6
tp1060
a(S'no_ll'
I1
tp1061
a(S'w'
I730
tp1062
a(S'no_lh'
I0
tp1063
a(S'no_cv'
I0
tp1064
a(S'no_vo'
I1
tp1065
a(S'w'
I3670
tp1066
a(S'p2_tl'
I44
tp1067
a(S'w'
I1
tp1068
a(S'p2_ll'
I0
tp1069
a(S'w'
I7
tp1070
a(S'tr_ll'
I0
tp1071
a(S'w'
I5
tp1072
a(S'w'
I1
tp1073
a(S'no_ll'
I1
tp1074
a(S'w'
I717
tp1075
a(S'p2_du'
I2
tp1076
a(S'p2_vo'
I4
tp1077
a(S'w'
I4
tp1078
a(S'tr_lr'
I31
tp1079
a(S'w'
I5
tp1080
a(S'w'
I3662
tp1081
a(S'p2_tl'
I35
tp1082
a(S'w'
I1
tp1083
a(S'p2_ll'
I0
tp1084
a(S'w'
I7
tp1085
a(S'tr_tl'
I226
tp1086
a(S'tr_ll'
I0
tp1087
a(S'w'
I5
tp1088
a(S'no_np'
I3
tp1089
a(S'no_ll'
I1
tp1090
a(S'w'
I718
tp1091
a(S'w'
I4
tp1092
a(S'w'
I5
tp1093
a(S'w'
I3660
tp1094
a(S'p2_du'
I0
tp1095
a(S'p2_vo'
I0
tp1096
a(S'w'
I6
tp1097
a(S'no_lh'
I1
tp1098
a(S'no_cv'
I1
tp1099
a(S'no_vo'
I0
tp1100
a(S'w'
I4400
tp1101
a(S'p2_tl'
I44
tp1102
a(S'w'
I1
tp1103
a(S'p2_ll'
I0
tp1104
a(S'w'
I7
tp1105
a(S'tr_tl'
I103
tp1106
a(S'tr_ll'
I0
tp1107
a(S'w'
I5
tp1108
a(S'no_np'
I2
tp1109
a(S'w'
I1
tp1110
a(S'no_ll'
I1
tp1111
a(S'w'
I717
tp1112
a(S'p2_du'
I2
tp1113
a(S'p2_vo'
I4
tp1114
a(S'w'
I4
tp1115
a(S'w'
I5
tp1116
a(S'no_lh'
I0
tp1117
a(S'no_cv'
I0
tp1118
a(S'no_vo'
I1
tp1119
a(S'w'
I3660
tp1120
a(S'p2_du'
I0
tp1121
a(S'p2_vo'
I0
tp1122
a(S'w'
I6
tp1123
a(S'no_ll'
I1
tp1124
a(S'w'
I730
tp1125
a(S'w'
I3672
tp1126
a(S'p2_tl'
I40
tp1127
a(S'p2_ll'
I0
tp1128
a(S'w'
I10
tp1129
a(S'tr_tl'
I64
tp1130
a(S'tr_ll'
I0
tp1131
a(S'w'
I8
tp1132
a(S'no_ll'
I1
tp1133
a(S'w'
I710
tp1134
a(S'p2_du'
I2
tp1135
a(S'p2_vo'
I4
tp1136
a(S'w'
I4
tp1137
a(S'w'
I5
tp1138
a(S'w'
I3663
tp1139
a(S'w'
I1
tp1140
a(S'p2_ll'
I0
tp1141
a(S'w'
I4
tp1142
a(S'tr_lr'
I48
tp1143
a(S'w'
I6
tp1144
a(S'no_lh'
I1
tp1145
a(S'no_cv'
I1
tp1146
a(S'no_vo'
I0
tp1147
a(S'w'
I720
tp1148
a(S'w'
I3672
tp1149
a(S'p2_tl'
I53
tp1150
a(S'w'
I1
tp1151
a(S'p2_ll'
I0
tp1152
a(S'w'
I6
tp1153
a(S'no_ll'
I1
tp1154
a(S'w'
I724
tp1155
a(S'w'
I6
tp1156
a(S'no_lh'
I0
tp1157
a(S'no_cv'
I0
tp1158
a(S'no_vo'
I1
tp1159
a(S'w'
I3663
tp1160
a(S'p2_du'
I0
tp1161
a(S'p2_vo'
I0
tp1162
a(S'w'
I7
tp1163
a(S'w'
I1
tp1164
a(S'tr_ll'
I0
tp1165
a(S'w'
I5
tp1166
a(S'no_ll'
I1
tp1167
a(S'w'
I722
tp1168
a(S'tr_lr'
I31
tp1169
a(S'w'
I4
tp1170
a(S'w'
I3666
tp1171
a(S'p2_tl'
I40
tp1172
a(S'w'
I1
tp1173
a(S'p2_ll'
I0
tp1174
a(S'w'
I7
tp1175
a(S'tr_tl'
I226
tp1176
a(S'tr_ll'
I0
tp1177
a(S'w'
I5
tp1178
a(S'no_np'
I3
tp1179
a(S'no_ll'
I1
tp1180
a(S'w'
I718
tp1181
a(S'p2_du'
I2
tp1182
a(S'p2_vo'
I4
tp1183
a(S'w'
I4
tp1184
a(S'w'
I5
tp1185
a(S'w'
I3660
tp1186
a(S'p2_du'
I0
tp1187
a(S'p2_vo'
I0
tp1188
a(S'w'
I6
tp1189
a(S'no_lh'
I1
tp1190
a(S'no_cv'
I1
tp1191
a(S'no_vo'
I0
tp1192
a(S'w'
I4400
tp1193
a(S'p2_tl'
I53
tp1194
a(S'w'
I1
tp1195
a(S'p2_ll'
I0
tp1196
a(S'w'
I7
tp1197
a(S'tr_tl'
I64
tp1198
a(S'tr_ll'
I0
tp1199
a(S'w'
I5
tp1200
a(S'no_np'
I2
tp1201
a(S'w'
I1
tp1202
a(S'no_ll'
I1
tp1203
a(S'w'
I717
tp1204
a(S'p2_du'
I2
tp1205
a(S'p2_vo'
I4
tp1206
a(S'w'
I4
tp1207
a(S'w'
I5
tp1208
a(S'no_lh'
I0
tp1209
a(S'no_cv'
I0
tp1210
a(S'no_vo'
I1
tp1211
a(S'w'
I3660
tp1212
a(S'p2_du'
I0
tp1213
a(S'p2_vo'
I0
tp1214
a(S'w'
I6
tp1215
a(S'no_ll'
I1
tp1216
a(S'w'
I730
tp1217
a(S'w'
I3669
tp1218
a(S'p2_tl'
I35
tp1219
a(S'w'
I1
tp1220
a(S'p2_ll'
I0
tp1221
a(S'w'
I7
tp1222
a(S'tr_tl'
I103
tp1223
a(S'tr_ll'
I0
tp1224
a(S'w'
I8
tp1225
a(S'no_ll'
I1
tp1226
a(S'w'
I715
tp1227
a(S'p2_du'
I2
tp1228
a(S'p2_vo'
I4
tp1229
a(S'w'
I4
tp1230
a(S'w'
I5
tp1231
a(S'w'
I3663
tp1232
a(S'w'
I1
tp1233
a(S'p2_ll'
I0
tp1234
a(S'w'
I4
tp1235
a(S'tr_lr'
I48
tp1236
a(S'w'
I6
tp1237
a(S'no_lh'
I1
tp1238
a(S'no_cv'
I1
tp1239
a(S'no_vo'
I0
tp1240
a(S'w'
I720
tp1241
a(S'w'
I3669
tp1242
a(S'p2_du'
I0
tp1243
a(S'p2_vo'
I0
tp1244
a(S'w'
I6
tp1245
a(S'no_ll'
I1
tp1246
a(S'w'
I730
tp1247
a(S'no_lh'
I0
tp1248
a(S'no_cv'
I0
tp1249
a(S'no_vo'
I1
tp1250
a(S'w'
I3670
tp1251
a(S'p2_tl'
I44
tp1252
a(S'w'
I1
tp1253
a(S'p2_ll'
I0
tp1254
a(S'w'
I7
tp1255
a(S'tr_ll'
I0
tp1256
a(S'w'
I5
tp1257
a(S'w'
I1
tp1258
a(S'no_ll'
I1
tp1259
a(S'w'
I717
tp1260
a(S'p2_du'
I2
tp1261
a(S'p2_vo'
I4
tp1262
a(S'w'
I4
tp1263
a(S'tr_lr'
I31
tp1264
a(S'w'
I5
tp1265
a(S'w'
I3662
tp1266
a(S'p2_tl'
I35
tp1267
a(S'w'
I1
tp1268
a(S'p2_ll'
I0
tp1269
a(S'w'
I7
tp1270
a(S'tr_tl'
I226
tp1271
a(S'tr_ll'
I0
tp1272
a(S'w'
I5
tp1273
a(S'no_np'
I3
tp1274
a(S'no_ll'
I1
tp1275
a(S'w'
I718
tp1276
a(S'w'
I4
tp1277
a(S'w'
I5
tp1278
a(S'w'
I3660
tp1279
a(S'p2_du'
I0
tp1280
a(S'p2_vo'
I0
tp1281
a(S'w'
I5
tp1282
a(S'tr_lr'
I48
tp1283
a(S'w'
I5
tp1284
a(S'no_lh'
I1
tp1285
a(S'no_cv'
I1
tp1286
a(S'no_vo'
I0
tp1287
a(S'w'
I4396
tp1288
a(S'p2_tl'
I44
tp1289
a(S'w'
I1
tp1290
a(S'p2_ll'
I0
tp1291
a(S'w'
I6
tp1292
a(S'no_np'
I2
tp1293
a(S'no_ll'
I1
tp1294
a(S'w'
I724
tp1295
a(S'p2_du'
I2
tp1296
a(S'p2_vo'
I4
tp1297
a(S'w'
I6
tp1298
a(S'no_lh'
I0
tp1299
a(S'no_cv'
I0
tp1300
a(S'no_vo'
I1
tp1301
a(S'w'
I3663
tp1302
a(S'p2_du'
I0
tp1303
a(S'p2_vo'
I0
tp1304
a(S'w'
I6
tp1305
a(S'no_ll'
I1
tp1306
a(S'w'
I730
tp1307
a(S'w'
I3669
tp1308
a(S'p2_tl'
I40
tp1309
a(S'w'
I1
tp1310
a(S'p2_ll'
I0
tp1311
a(S'w'
I7
tp1312
a(S'tr_ll'
I0
tp1313
a(S'w'
I7
tp1314
a(S'w'
I1
tp1315
a(S'no_ll'
I1
tp1316
a(S'w'
I715
tp1317
a(S'p2_du'
I2
tp1318
a(S'p2_vo'
I4
tp1319
a(S'w'
I4
tp1320
a(S'tr_lr'
I31
tp1321
a(S'w'
I5
tp1322
a(S'w'
I3663
tp1323
a(S'w'
I1
tp1324
a(S'p2_ll'
I0
tp1325
a(S'w'
I4
tp1326
a(S'tr_lr'
I48
tp1327
a(S'w'
I6
tp1328
a(S'no_lh'
I1
tp1329
a(S'no_cv'
I1
tp1330
a(S'no_vo'
I0
tp1331
a(S'w'
I720
tp1332
a(S'w'
I3672
tp1333
a(S'p2_tl'
I47
tp1334
a(S'w'
I1
tp1335
a(S'p2_ll'
I0
tp1336
a(S'w'
I6
tp1337
a(S'no_ll'
I1
tp1338
a(S'w'
I724
tp1339
a(S'w'
I6
tp1340
a(S'no_lh'
I0
tp1341
a(S'no_cv'
I0
tp1342
a(S'no_vo'
I1
tp1343
a(S'w'
I3663
tp1344
a(S'p2_du'
I0
tp1345
a(S'p2_vo'
I0
tp1346
a(S'w'
I7
tp1347
a(S'tr_ll'
I0
tp1348
a(S'w'
I5
tp1349
a(S'w'
I1
tp1350
a(S'no_ll'
I1
tp1351
a(S'w'
I722
tp1352
a(S'tr_lr'
I31
tp1353
a(S'w'
I4
tp1354
a(S'w'
I3666
tp1355
a(S'p2_tl'
I40
tp1356
a(S'w'
I1
tp1357
a(S'p2_ll'
I0
tp1358
a(S'w'
I7
tp1359
a(S'tr_tl'
I64
tp1360
a(S'tr_ll'
I0
tp1361
a(S'w'
I5
tp1362
a(S'no_np'
I3
tp1363
a(S'w'
I1
tp1364
a(S'no_ll'
I1
tp1365
a(S'w'
I717
tp1366
a(S'p2_du'
I2
tp1367
a(S'p2_vo'
I4
tp1368
a(S'w'
I4
tp1369
a(S'w'
I5
tp1370
a(S'w'
I3660
tp1371
a(S'p2_du'
I0
tp1372
a(S'p2_vo'
I0
tp1373
a(S'w'
I6
tp1374
a(S'no_lh'
I1
tp1375
a(S'no_cv'
I1
tp1376
a(S'no_vo'
I0
tp1377
a(S'w'
I4400
tp1378
a(S'p2_tl'
I53
tp1379
a(S'w'
I1
tp1380
a(S'p2_ll'
I0
tp1381
a(S'w'
I7
tp1382
a(S'tr_tl'
I226
tp1383
a(S'tr_ll'
I0
tp1384
a(S'w'
I5
tp1385
a(S'no_np'
I2
tp1386
a(S'no_ll'
I1
tp1387
a(S'w'
I718
tp1388
a(S'p2_du'
I2
tp1389
a(S'p2_vo'
I4
tp1390
a(S'w'
I4
tp1391
a(S'w'
I5
tp1392
a(S'no_lh'
I0
tp1393
a(S'no_cv'
I0
tp1394
a(S'no_vo'
I1
tp1395
a(S'w'
I3660
tp1396
a(S'p2_du'
I0
tp1397
a(S'p2_vo'
I0
tp1398
a(S'w'
I6
tp1399
a(S'no_ll'
I1
tp1400
a(S'w'
I730
tp1401
a(S'w'
I3669
tp1402
a(S'p2_tl'
I35
tp1403
a(S'w'
I1
tp1404
a(S'p2_ll'
I0
tp1405
a(S'w'
I7
tp1406
a(S'tr_tl'
I103
tp1407
a(S'tr_ll'
I0
tp1408
a(S'w'
I8
tp1409
a(S'no_ll'
I1
tp1410
a(S'w'
I715
tp1411
a(S'p2_du'
I2
tp1412
a(S'p2_vo'
I4
tp1413
a(S'w'
I4
tp1414
a(S'w'
I5
tp1415
a(S'w'
I3663
tp1416
a(S'w'
I1
tp1417
a(S'p2_ll'
I0
tp1418
a(S'w'
I4
tp1419
a(S'tr_lr'
I48
tp1420
a(S'w'
I6
tp1421
a(S'no_lh'
I1
tp1422
a(S'no_cv'
I1
tp1423
a(S'no_vo'
I0
tp1424
a(S'w'
I720
tp1425
a(S'w'
I3669
tp1426
a(S'p2_du'
I0
tp1427
a(S'p2_vo'
I0
tp1428
a(S'w'
I6
tp1429
a(S'no_ll'
I1
tp1430
a(S'w'
I730
tp1431
a(S'no_lh'
I0
tp1432
a(S'no_cv'
I0
tp1433
a(S'no_vo'
I1
tp1434
a(S'w'
I3670
tp1435
a(S'p2_tl'
I44
tp1436
a(S'w'
I1
tp1437
a(S'p2_ll'
I0
tp1438
a(S'w'
I7
tp1439
a(S'tr_ll'
I0
tp1440
a(S'w'
I5
tp1441
a(S'w'
I1
tp1442
a(S'no_ll'
I1
tp1443
a(S'w'
I717
tp1444
a(S'p2_du'
I2
tp1445
a(S'p2_vo'
I4
tp1446
a(S'w'
I4
tp1447
a(S'tr_lr'
I31
tp1448
a(S'w'
I5
tp1449
a(S'w'
I3662
tp1450
a(S'p2_tl'
I35
tp1451
a(S'w'
I1
tp1452
a(S'p2_ll'
I0
tp1453
a(S'w'
I7
tp1454
a(S'tr_tl'
I226
tp1455
a(S'tr_ll'
I0
tp1456
a(S'w'
I5
tp1457
a(S'no_np'
I3
tp1458
a(S'no_ll'
I1
tp1459
a(S'w'
I718
tp1460
a(S'w'
I4
tp1461
a(S'w'
I5
tp1462
a(S'w'
I3660
tp1463
a(S'p2_du'
I0
tp1464
a(S'p2_vo'
I0
tp1465
a(S'w'
I6
tp1466
a(S'no_lh'
I1
tp1467
a(S'no_cv'
I1
tp1468
a(S'no_vo'
I0
tp1469
a(S'w'
I4400
tp1470
a(S'p2_tl'
I44
tp1471
a(S'w'
I1
tp1472
a(S'p2_ll'
I0
tp1473
a(S'w'
I7
tp1474
a(S'tr_tl'
I103
tp1475
a(S'tr_ll'
I0
tp1476
a(S'w'
I5
tp1477
a(S'no_np'
I2
tp1478
a(S'w'
I1
tp1479
a(S'no_ll'
I1
tp1480
a(S'w'
I717
tp1481
a(S'p2_du'
I2
tp1482
a(S'p2_vo'
I4
tp1483
a(S'w'
I4
tp1484
a(S'w'
I5
tp1485
a(S'no_lh'
I0
tp1486
a(S'no_cv'
I0
tp1487
a(S'no_vo'
I1
tp1488
a(S'w'
I3660
tp1489
a(S'p2_du'
I0
tp1490
a(S'p2_vo'
I0
tp1491
a(S'w'
I6
tp1492
a(S'no_ll'
I1
tp1493
a(S'w'
I730
tp1494
a(S'w'
I3670
tp1495
a(S'p2_tl'
I213
tp1496
a(S'p2_ll'
I0
tp1497
a(S'w'
I11
tp1498
a(S'tr_tl'
I27
tp1499
a(S'tr_ll'
I0
tp1500
a(S'tr_th'
I2
tp1501
a(S'w'
I8
tp1502
a(S'no_ll'
I1
tp1503
a(S'w'
I711
tp1504
a(S'p2_du'
I2
tp1505
a(S'p2_vo'
I4
tp1506
a(S'w'
I4
tp1507
a(S'w'
I5
tp1508
a(S'w'
I3661
tp1509
a(S'tr_lr'
I48
tp1510
a(S'w'
I5
tp1511
a(S'no_lh'
I1
tp1512
a(S'no_cv'
I1
tp1513
a(S'no_vo'
I0
tp1514
a(S'w'
I4399
tp1515
a(S'no_ll'
I1
tp1516
a(S'w'
I734
tp1517
a(S'no_lh'
I0
tp1518
a(S'no_cv'
I0
tp1519
a(S'no_vo'
I1
tp1520
a(S'w'
I3670
tp1521
a(S'tr_ll'
I0
tp1522
a(S'w'
I6
tp1523
a(S'no_ll'
I1
tp1524
a(S'w'
I726
tp1525
a(S'tr_lr'
I31
tp1526
a(S'w'
I4
tp1527
a(S'w'
I3667
tp1528
a(S'tr_tl'
I103
tp1529
a(S'tr_ll'
I0
tp1530
a(S'tr_th'
I1
tp1531
a(S'w'
I5
tp1532
a(S'no_np'
I3
tp1533
a(S'no_ll'
I1
tp1534
a(S'w'
I726
tp1535
a(S'w'
I4
tp1536
a(S'w'
I3666
tp1537
a(S'no_lh'
I1
tp1538
a(S'no_cv'
I1
tp1539
a(S'no_vo'
I0
tp1540
a(S'w'
I4404
tp1541
a(S'tr_tl'
I27
tp1542
a(S'tr_ll'
I0
tp1543
a(S'tr_th'
I2
tp1544
a(S'w'
I6
tp1545
a(S'no_np'
I2
tp1546
a(S'no_ll'
I1
tp1547
a(S'w'
I726
tp1548
a(S'w'
I4
tp1549
a(S'no_lh'
I0
tp1550
a(S'no_cv'
I0
tp1551
a(S'no_vo'
I1
tp1552
a(S'w'
I3666
tp1553
a(S'w'
I1
tp1554
a(S'no_ll'
I1
tp1555
a(S'w'
I733
tp1556
a(S'w'
I3669
tp1557
a(S'p2_tl'
I179
tp1558
a(S'p2_ll'
I0
tp1559
a(S'w'
I9
tp1560
a(S'w'
I1
tp1561
a(S'tr_ll'
I0
tp1562
a(S'w'
I7
tp1563
a(S'no_ll'
I1
tp1564
a(S'w'
I714
tp1565
a(S'w'
I4
tp1566
a(S'w'
I5
tp1567
a(S'w'
I3661
tp1568
a(S'tr_lr'
I48
tp1569
a(S'w'
I5
tp1570
a(S'no_lh'
I1
tp1571
a(S'no_cv'
I1
tp1572
a(S'no_vo'
I0
tp1573
a(S'w'
I4399
tp1574
a(S'w'
I1
tp1575
a(S'no_ll'
I1
tp1576
a(S'w'
I733
tp1577
a(S'no_lh'
I0
tp1578
a(S'no_cv'
I0
tp1579
a(S'no_vo'
I1
tp1580
a(S'w'
I3670
tp1581
a(S'tr_ll'
I0
tp1582
a(S'w'
I6
tp1583
a(S'no_ll'
I1
tp1584
a(S'w'
I726
tp1585
a(S'tr_lr'
I31
tp1586
a(S'w'
I4
tp1587
a(S'w'
I3666
tp1588
a(S'p2_tl'
I213
tp1589
a(S'p2_ll'
I0
tp1590
a(S'w'
I7
tp1591
a(S'tr_tl'
I103
tp1592
a(S'w'
I1
tp1593
a(S'tr_ll'
I0
tp1594
a(S'tr_th'
I1
tp1595
a(S'w'
I5
tp1596
a(S'no_np'
I3
tp1597
a(S'no_ll'
I1
tp1598
a(S'w'
I718
tp1599
a(S'w'
I4
tp1600
a(S'w'
I5
tp1601
a(S'w'
I3662
tp1602
a(S'no_lh'
I1
tp1603
a(S'no_cv'
I1
tp1604
a(S'no_vo'
I0
tp1605
a(S'w'
I4404
tp1606
a(S'tr_tl'
I27
tp1607
a(S'tr_ll'
I0
tp1608
a(S'tr_th'
I2
tp1609
a(S'w'
I6
tp1610
a(S'no_np'
I2
tp1611
a(S'no_ll'
I1
tp1612
a(S'w'
I726
tp1613
a(S'w'
I4
tp1614
a(S'no_lh'
I0
tp1615
a(S'no_cv'
I0
tp1616
a(S'no_vo'
I1
tp1617
a(S'w'
I3666
tp1618
a(S'w'
I1
tp1619
a(S'no_ll'
I1
tp1620
a(S'w'
I733
tp1621
a(S'w'
I3669
tp1622
a(S'p2_tl'
I190
tp1623
a(S'p2_ll'
I0
tp1624
a(S'w'
I9
tp1625
a(S'tr_tl'
I58
tp1626
a(S'tr_ll'
I0
tp1627
a(S'w'
I7
tp1628
a(S'no_ll'
I1
tp1629
a(S'w'
I715
tp1630
a(S'w'
I4
tp1631
a(S'w'
I5
tp1632
a(S'w'
I3661
tp1633
a(S'tr_lr'
I48
tp1634
a(S'w'
I5
tp1635
a(S'no_lh'
I1
tp1636
a(S'no_cv'
I1
tp1637
a(S'no_vo'
I0
tp1638
a(S'w'
I4399
tp1639
a(S'w'
I1
tp1640
a(S'no_ll'
I1
tp1641
a(S'w'
I733
tp1642
a(S'no_lh'
I0
tp1643
a(S'no_cv'
I0
tp1644
a(S'no_vo'
I1
tp1645
a(S'w'
I3670
tp1646
a(S'tr_ll'
I0
tp1647
a(S'w'
I6
tp1648
a(S'no_ll'
I1
tp1649
a(S'w'
I726
tp1650
a(S'tr_lr'
I31
tp1651
a(S'w'
I4
tp1652
a(S'w'
I3667
tp1653
a(S'tr_tl'
I125
tp1654
a(S'tr_ll'
I0
tp1655
a(S'tr_th'
I1
tp1656
a(S'w'
I5
tp1657
a(S'no_np'
I3
tp1658
a(S'no_ll'
I1
tp1659
a(S'w'
I726
tp1660
a(S'w'
I4
tp1661
a(S'w'
I3666
tp1662
a(S'no_lh'
I1
tp1663
a(S'no_cv'
I1
tp1664
a(S'no_vo'
I0
tp1665
a(S'w'
I4404
tp1666
a(S'tr_tl'
I58
tp1667
a(S'tr_ll'
I0
tp1668
a(S'tr_th'
I2
tp1669
a(S'w'
I6
tp1670
a(S'no_np'
I2
tp1671
a(S'no_ll'
I1
tp1672
a(S'w'
I726
tp1673
a(S'w'
I4
tp1674
a(S'no_lh'
I0
tp1675
a(S'no_cv'
I0
tp1676
a(S'no_vo'
I1
tp1677
a(S'w'
I3666
tp1678
a(S'w'
I1
tp1679
a(S'no_ll'
I1
tp1680
a(S'w'
I733
tp1681
a(S'w'
I3668
tp1682
a(S'p2_tl'
I241
tp1683
a(S'p2_ll'
I0
tp1684
a(S'w'
I8
tp1685
a(S'tr_ll'
I0
tp1686
a(S'w'
I7
tp1687
a(S'no_ll'
I1
tp1688
a(S'w'
I717
tp1689
a(S'w'
I4
tp1690
a(S'w'
I5
tp1691
a(S'w'
I3661
tp1692
a(S'tr_lr'
I48
tp1693
a(S'w'
I5
tp1694
a(S'no_lh'
I1
tp1695
a(S'no_cv'
I1
tp1696
a(S'no_vo'
I0
tp1697
a(S'w'
I4399
tp1698
a(S'w'
I1
tp1699
a(S'no_ll'
I1
tp1700
a(S'w'
I733
tp1701
a(S'no_lh'
I0
tp1702
a(S'no_cv'
I0
tp1703
a(S'no_vo'
I1
tp1704
a(S'w'
I3670
tp1705
a(S'tr_ll'
I0
tp1706
a(S'w'
I5
tp1707
a(S'w'
I1
tp1708
a(S'no_ll'
I1
tp1709
a(S'w'
I726
tp1710
a(S'tr_lr'
I31
tp1711
a(S'w'
I4
tp1712
a(S'w'
I3666
tp1713
a(S'p2_tl'
I190
tp1714
a(S'p2_ll'
I0
tp1715
a(S'w'
I7
tp1716
a(S'tr_tl'
I171
tp1717
a(S'w'
I1
tp1718
a(S'tr_ll'
I0
tp1719
a(S'tr_th'
I1
tp1720
a(S'w'
I5
tp1721
a(S'no_np'
I3
tp1722
a(S'no_ll'
I1
tp1723
a(S'w'
I718
tp1724
a(S'w'
I4
tp1725
a(S'w'
I5
tp1726
a(S'w'
I3662
tp1727
a(S'no_lh'
I1
tp1728
a(S'no_cv'
I1
tp1729
a(S'no_vo'
I0
tp1730
a(S'w'
I4404
tp1731
a(S'tr_tl'
I58
tp1732
a(S'tr_ll'
I0
tp1733
a(S'tr_th'
I2
tp1734
a(S'w'
I6
tp1735
a(S'no_np'
I2
tp1736
a(S'no_ll'
I1
tp1737
a(S'w'
I726
tp1738
a(S'w'
I4
tp1739
a(S'no_lh'
I0
tp1740
a(S'no_cv'
I0
tp1741
a(S'no_vo'
I1
tp1742
a(S'w'
I3666
tp1743
a(S'w'
I1
tp1744
a(S'no_ll'
I1
tp1745
a(S'w'
I733
tp1746
a(S'w'
I3669
tp1747
a(S'p2_tl'
I134
tp1748
a(S'p2_ll'
I0
tp1749
a(S'w'
I7
tp1750
a(S'tr_tl'
I27
tp1751
a(S'tr_ll'
I0
tp1752
a(S'w'
I8
tp1753
a(S'no_ll'
I1
tp1754
a(S'w'
I716
tp1755
a(S'w'
I4
tp1756
a(S'w'
I5
tp1757
a(S'w'
I3663
tp1758
a(S'p2_ll'
I0
tp1759
a(S'w'
I5
tp1760
a(S'tr_lr'
I48
tp1761
a(S'w'
I5
tp1762
a(S'no_lh'
I1
tp1763
a(S'no_cv'
I1
tp1764
a(S'no_vo'
I0
tp1765
a(S'w'
I721
tp1766
a(S'w'
I3672
tp1767
a(S'p2_ll'
I0
tp1768
a(S'w'
I6
tp1769
a(S'no_ll'
I1
tp1770
a(S'w'
I725
tp1771
a(S'w'
I6
tp1772
a(S'no_lh'
I0
tp1773
a(S'no_cv'
I0
tp1774
a(S'no_vo'
I1
tp1775
a(S'w'
I3666
tp1776
a(S'p2_ll'
I0
tp1777
a(S'w'
I7
tp1778
a(S'tr_ll'
I0
tp1779
a(S'w'
I5
tp1780
a(S'w'
I1
tp1781
a(S'no_ll'
I1
tp1782
a(S'w'
I718
tp1783
a(S'w'
I4
tp1784
a(S'tr_lr'
I31
tp1785
a(S'w'
I5
tp1786
a(S'w'
I3662
tp1787
a(S'p2_ll'
I0
tp1788
a(S'w'
I7
tp1789
a(S'tr_tl'
I103
tp1790
a(S'w'
I1
tp1791
a(S'tr_ll'
I0
tp1792
a(S'tr_th'
I1
tp1793
a(S'w'
I5
tp1794
a(S'no_np'
I3
tp1795
a(S'no_ll'
I1
tp1796
a(S'w'
I718
tp1797
a(S'w'
I4
tp1798
a(S'w'
I5
tp1799
a(S'w'
I3663
tp1800
a(S'p2_tl'
I160
tp1801
a(S'p2_ll'
I0
tp1802
a(S'w'
I6
tp1803
a(S'no_lh'
I1
tp1804
a(S'no_cv'
I1
tp1805
a(S'no_vo'
I0
tp1806
a(S'w'
I725
tp1807
a(S'w'
I3669
tp1808
a(S'p2_du'
I0
tp1809
a(S'p2_vo'
I0
tp1810
a(S'w'
I7
tp1811
a(S'tr_tl'
I27
tp1812
a(S'tr_ll'
I0
tp1813
a(S'tr_th'
I2
tp1814
a(S'w'
I5
tp1815
a(S'no_np'
I2
tp1816
a(S'w'
I1
tp1817
a(S'no_ll'
I1
tp1818
a(S'w'
I722
tp1819
a(S'w'
I4
tp1820
a(S'no_lh'
I0
tp1821
a(S'no_cv'
I0
tp1822
a(S'no_vo'
I1
tp1823
a(S'w'
I3667
tp1824
a(S'p2_tl'
I179
tp1825
a(S'p2_ll'
I0
tp1826
a(S'w'
I6
tp1827
a(S'no_ll'
I1
tp1828
a(S'w'
I725
tp1829
a(S'p2_du'
I2
tp1830
a(S'p2_vo'
I4
tp1831
a(S'w'
I6
tp1832
a(S'w'
I3662
tp1833
a(S'p2_du'
I0
tp1834
a(S'p2_vo'
I0
tp1835
a(S'w'
I7
tp1836
a(S'tr_tl'
I103
tp1837
a(S'w'
I1
tp1838
a(S'tr_ll'
I0
tp1839
a(S'tr_th'
I1
tp1840
a(S'w'
I7
tp1841
a(S'no_ll'
I1
tp1842
a(S'w'
I720
tp1843
a(S'w'
I4
tp1844
a(S'w'
I3667
tp1845
a(S'p2_tl'
I142
tp1846
a(S'p2_ll'
I0
tp1847
a(S'w'
I5
tp1848
a(S'tr_lr'
I48
tp1849
a(S'w'
I5
tp1850
a(S'no_lh'
I1
tp1851
a(S'no_cv'
I1
tp1852
a(S'no_vo'
I0
tp1853
a(S'w'
I721
tp1854
a(S'p2_du'
I2
tp1855
a(S'p2_vo'
I4
tp1856
a(S'w'
I3672
tp1857
a(S'p2_ll'
I0
tp1858
a(S'w'
I6
tp1859
a(S'no_ll'
I1
tp1860
a(S'w'
I725
tp1861
a(S'w'
I6
tp1862
a(S'no_lh'
I0
tp1863
a(S'no_cv'
I0
tp1864
a(S'no_vo'
I1
tp1865
a(S'w'
I3666
tp1866
a(S'p2_ll'
I0
tp1867
a(S'w'
I7
tp1868
a(S'w'
I1
tp1869
a(S'tr_ll'
I0
tp1870
a(S'w'
I5
tp1871
a(S'no_ll'
I1
tp1872
a(S'w'
I717
tp1873
a(S'w'
I4
tp1874
a(S'tr_lr'
I31
tp1875
a(S'w'
I5
tp1876
a(S'w'
I3660
tp1877
a(S'p2_du'
I0
tp1878
a(S'p2_vo'
I0
tp1879
a(S'w'
I7
tp1880
a(S'tr_tl'
I226
tp1881
a(S'tr_ll'
I0
tp1882
a(S'w'
I5
tp1883
a(S'no_np'
I3
tp1884
a(S'w'
I1
tp1885
a(S'no_ll'
I1
tp1886
a(S'w'
I722
tp1887
a(S'w'
I4
tp1888
a(S'w'
I3667
tp1889
a(S'p2_ll'
I0
tp1890
a(S'w'
I6
tp1891
a(S'no_lh'
I1
tp1892
a(S'no_cv'
I1
tp1893
a(S'no_vo'
I0
tp1894
a(S'w'
I725
tp1895
a(S'p2_du'
I2
tp1896
a(S'p2_vo'
I4
tp1897
a(S'w'
I3669
tp1898
a(S'p2_du'
I0
tp1899
a(S'p2_vo'
I0
tp1900
a(S'w'
I7
tp1901
a(S'tr_tl'
I103
tp1902
a(S'w'
I1
tp1903
a(S'tr_ll'
I0
tp1904
a(S'w'
I5
tp1905
a(S'no_np'
I2
tp1906
a(S'no_ll'
I1
tp1907
a(S'w'
I722
tp1908
a(S'w'
I4
tp1909
a(S'no_lh'
I0
tp1910
a(S'no_cv'
I0
tp1911
a(S'no_vo'
I1
tp1912
a(S'w'
I3667
tp1913
a(S'p2_tl'
I179
tp1914
a(S'p2_ll'
I0
tp1915
a(S'w'
I6
tp1916
a(S'no_ll'
I1
tp1917
a(S'w'
I724
tp1918
a(S'p2_du'
I2
tp1919
a(S'p2_vo'
I4
tp1920
a(S'w'
I6
tp1921
a(S'w'
I3666
tp1922
a(S'p2_tl'
I190
tp1923
a(S'p2_ll'
I0
tp1924
a(S'w'
I7
tp1925
a(S'tr_tl'
I226
tp1926
a(S'tr_ll'
I0
tp1927
a(S'w'
I7
tp1928
a(S'no_np'
I3
tp1929
a(S'no_ll'
I1
tp1930
a(S'w'
I717
tp1931
a(S'w'
I4
tp1932
a(S'w'
I5
tp1933
a(S'w'
I3663
tp1934
a(S'p2_ll'
I0
tp1935
a(S'w'
I5
tp1936
a(S'tr_lr'
I48
tp1937
a(S'w'
I5
tp1938
a(S'no_ll'
I1
tp1939
a(S'w'
I721
tp1940
a(S'w'
I6
tp1941
a(S'w'
I3666
tp1942
a(S'p2_ll'
I0
tp1943
a(S'w'
I6
tp1944
a(S'no_ll'
I1
tp1945
a(S'w'
I725
tp1946
a(S'w'
I6
tp1947
a(S'w'
I3666
tp1948
a(S'p2_ll'
I0
tp1949
a(S'w'
I7
tp1950
a(S'tr_ll'
I0
tp1951
a(S'w'
I5
tp1952
a(S'w'
I1
tp1953
a(S'no_ll'
I1
tp1954
a(S'w'
I717
tp1955
a(S'w'
I4
tp1956
a(S'tr_lr'
I31
tp1957
a(S'w'
I5
tp1958
a(S'w'
I3663
tp1959
a(S'p2_ll'
I0
tp1960
a(S'w'
I7
tp1961
a(S'tr_tl'
I64
tp1962
a(S'w'
I1
tp1963
a(S'tr_ll'
I0
tp1964
a(S'w'
I5
tp1965
a(S'no_ll'
I1
tp1966
a(S'w'
I718
tp1967
a(S'w'
I4
tp1968
a(S'w'
I5
tp1969
a(S'w'
I3662
tp1970
a(S'p2_tl'
I241
tp1971
a(S'w'
I1
tp1972
a(S'p2_ll'
I0
tp1973
a(S'w'
I7
tp1974
a(S'tr_tl'
I125
tp1975
a(S'tr_ll'
I0
tp1976
a(S'w'
I5
tp1977
a(S'w'
I1
tp1978
a(S'no_ll'
I1
tp1979
a(S'w'
I718
tp1980
a(S'w'
I4
tp1981
a(S'w'
I5
tp1982
a(S'w'
I8065
tp1983
a(S'w'
I1
tp1984
a(S'p2_ll'
I0
tp1985
a(S'w'
I7
tp1986
a(S'tr_tl'
I103
tp1987
a(S'tr_ll'
I0
tp1988
a(S'w'
I5
tp1989
a(S'w'
I1
tp1990
a(S'no_ll'
I1
tp1991
a(S'w'
I717
tp1992
a(S'w'
I4
tp1993
a(S'w'
I5
tp1994
a(S'w'
I3660
tp1995
a(S'p2_du'
I0
tp1996
a(S'p2_vo'
I0
tp1997
a(S'w'
I5
tp1998
a(S'tr_lr'
I48
tp1999
a(S'w'
I5
tp2000
a(S'no_lh'
I1
tp2001
a(S'no_cv'
I1
tp2002
a(S'no_vo'
I0
tp2003
a(S'w'
I13202
tp2004
a(S'p2_tl'
I120
tp2005
a(S'p2_ll'
I0
tp2006
a(S'w'
I7
tp2007
a(S'w'
I1
tp2008
a(S'tr_ll'
I0
tp2009
a(S'w'
I5
tp2010
a(S'no_ll'
I1
tp2011
a(S'w'
I717
tp2012
a(S'p2_du'
I2
tp2013
a(S'p2_vo'
I4
tp2014
a(S'w'
I4
tp2015
a(S'tr_lr'
I31
tp2016
a(S'w'
I5
tp2017
a(S'no_lh'
I0
tp2018
a(S'no_cv'
I0
tp2019
a(S'no_vo'
I1
tp2020
a(S'w'
I3663
tp2021
a(S'p2_ll'
I0
tp2022
a(S'w'
I7
tp2023
a(S'w'
I1
tp2024
a(S'tr_ll'
I0
tp2025
a(S'w'
I5
tp2026
a(S'no_ll'
I1
tp2027
a(S'w'
I718
tp2028
a(S'w'
I4
tp2029
a(S'w'
I5
tp2030
a(S'w'
I3660
tp2031
a(S'p2_du'
I0
tp2032
a(S'p2_vo'
I0
tp2033
a(S'w'
I5
tp2034
a(S'tr_lr'
I48
tp2035
a(S'w'
I5
tp2036
a(S'no_lh'
I1
tp2037
a(S'no_cv'
I1
tp2038
a(S'no_vo'
I0
tp2039
a(S'w'
I4396
tp2040
a(S'p2_ll'
I0
tp2041
a(S'w'
I7
tp2042
a(S'w'
I1
tp2043
a(S'tr_ll'
I0
tp2044
a(S'w'
I5
tp2045
a(S'no_ll'
I1
tp2046
a(S'w'
I718
tp2047
a(S'p2_du'
I2
tp2048
a(S'p2_vo'
I4
tp2049
a(S'w'
I4
tp2050
a(S'tr_lr'
I31
tp2051
a(S'w'
I5
tp2052
a(S'no_lh'
I0
tp2053
a(S'no_cv'
I0
tp2054
a(S'no_vo'
I1
tp2055
a(S'w'
I3660
tp2056
a(S'p2_du'
I0
tp2057
a(S'p2_vo'
I0
tp2058
a(S'w'
I5
tp2059
a(S'tr_lr'
I48
tp2060
a(S'w'
I5
tp2061
a(S'no_lh'
I1
tp2062
a(S'no_cv'
I1
tp2063
a(S'no_vo'
I0
tp2064
a(S'w'
I4400
tp2065
a(S'p2_tl'
I40
tp2066
a(S'p2_ll'
I0
tp2067
a(S'w'
I12
tp2068
a(S'tr_tl'
I64
tp2069
a(S'tr_ll'
I0
tp2070
a(S'w'
I10
tp2071
a(S'no_np'
I2
tp2072
a(S'no_ll'
I1
tp2073
a(S'w'
I9
tp2074
a.