(lp1
(S'clock'
p2
I1789772
tp3
a(S'ch_no'
I1
tp4
a(S'ch_tr'
I1
tp5
a(S'ch_p2'
I1
tp6
a(S'ch_p1'
I1
tp7
a(S'w'
I13
tp8
a(S'p1_cv'
I1
tp9
a(S'p2_cv'
I1
tp10
a(S'no_cv'
I1
tp11
a(S'w'
I37
tp12
a(S'p1_du'
I2
tp13
a(S'p1_lh'
I1
tp14
a(S'p1_sp'
I7
tp15
a(S'p1_sn'
I1
tp16
a(S'p1_ss'
I7
tp17
a(S'p1_tl'
I189
tp18
a(S'p1_ll'
I1
tp19
a(S'w'
I11
tp20
a(S'p2_sp'
I7
tp21
a(S'p2_sn'
I1
tp22
a(S'p2_ss'
I7
tp23
a(S'p2_ll'
I0
tp24
a(S'w'
I12
tp25
a(S'tr_lh'
I1
tp26
a(S'tr_lr'
I127
tp27
a(S'tr_tl'
I253
tp28
a(S'w'
I1
tp29
a(S'tr_ll'
I1
tp30
a(S'w'
I428
tp31
a(S'p1_vo'
I3
tp32
a(S'w'
I3
tp33
a(S'w'
I733
tp34
a(S'w'
I9
tp35
a(S'p2_du'
I2
tp36
a(S'p2_lh'
I1
tp37
a(S'w'
I1
tp38
a(S'p2_tl'
I168
tp39
a(S'p2_ll'
I1
tp40
a(S'w'
I725
tp41
a(S'w'
I9
tp42
a(S'p2_vo'
I4
tp43
a(S'w'
I4
tp44
a(S'w'
I715
tp45
a(S'p1_vo'
I0
tp46
a(S'p1_tl'
I178
tp47
a(S'w'
I13
tp48
a(S'w'
I7
tp49
a(S'tr_tl'
I238
tp50
a(S'w'
I716
tp51
a(S'p1_vo'
I3
tp52
a(S'w'
I3
tp53
a(S'w'
I13
tp54
a(S'w'
I721
tp55
a(S'w'
I7
tp56
a(S'p2_vo'
I0
tp57
a(S'w'
I1
tp58
a(S'p2_tl'
I159
tp59
a(S'w'
I726
tp60
a(S'w'
I10
tp61
a(S'p2_vo'
I4
tp62
a(S'w'
I3
tp63
a(S'w'
I715
tp64
a(S'p1_vo'
I0
tp65
a(S'p1_tl'
I168
tp66
a(S'w'
I13
tp67
a(S'w'
I7
tp68
a(S'tr_tl'
I225
tp69
a(S'w'
I716
tp70
a(S'p1_vo'
I3
tp71
a(S'w'
I3
tp72
a(S'w'
I13
tp73
a(S'w'
I721
tp74
a(S'w'
I7
tp75
a(S'p2_vo'
I0
tp76
a(S'w'
I1
tp77
a(S'p2_tl'
I150
tp78
a(S'w'
I726
tp79
a(S'w'
I10
tp80
a(S'p2_vo'
I4
tp81
a(S'w'
I3
tp82
a(S'w'
I715
tp83
a(S'p1_vo'
I0
tp84
a(S'w'
I1
tp85
a(S'p1_tl'
I159
tp86
a(S'w'
I12
tp87
a(S'w'
I7
tp88
a(S'tr_tl'
I212
tp89
a(S'w'
I717
tp90
a(S'p1_vo'
I3
tp91
a(S'w'
I3
tp92
a(S'w'
I13
tp93
a(S'w'
I720
tp94
a(S'w'
I8
tp95
a(S'p2_vo'
I0
tp96
a(S'p2_tl'
I141
tp97
a(S'w'
I726
tp98
a(S'w'
I10
tp99
a(S'p2_vo'
I4
tp100
a(S'w'
I3
tp101
a(S'w'
I716
tp102
a(S'p1_vo'
I0
tp103
a(S'p1_tl'
I150
tp104
a(S'w'
I13
tp105
a(S'w'
I7
tp106
a(S'tr_tl'
I200
tp107
a(S'w'
I716
tp108
a(S'p1_vo'
I3
tp109
a(S'w'
I3
tp110
a(S'w'
I13
tp111
a(S'w'
I720
tp112
a(S'w'
I8
tp113
a(S'p2_vo'
I0
tp114
a(S'p2_tl'
I133
tp115
a(S'w'
I727
tp116
a(S'w'
I9
tp117
a(S'p2_vo'
I4
tp118
a(S'w'
I4
tp119
a(S'w'
I714
tp120
a(S'p1_vo'
I0
tp121
a(S'w'
I1
tp122
a(S'p1_tl'
I141
tp123
a(S'w'
I12
tp124
a(S'w'
I8
tp125
a(S'tr_tl'
I189
tp126
a(S'w'
I716
tp127
a(S'p1_vo'
I3
tp128
a(S'w'
I3
tp129
a(S'w'
I13
tp130
a(S'w'
I721
tp131
a(S'w'
I7
tp132
a(S'p2_vo'
I0
tp133
a(S'w'
I1
tp134
a(S'p2_tl'
I126
tp135
a(S'w'
I726
tp136
a(S'w'
I9
tp137
a(S'p2_vo'
I4
tp138
a(S'w'
I4
tp139
a(S'w'
I719
tp140
a(S'p1_vo'
I0
tp141
a(S'p1_tl'
I133
tp142
a(S'w'
I12
tp143
a(S'w'
I10
tp144
a(S'tr_tl'
I178
tp145
a(S'w'
I708
tp146
a(S'p1_vo'
I2
tp147
a(S'w'
I3
tp148
a(S'w'
I13
tp149
a(S'w'
I717
tp150
a(S'p1_vo'
I3
tp151
a(S'w'
I3
tp152
a(S'w'
I12
tp153
a(S'p2_vo'
I0
tp154
a(S'p2_tl'
I118
tp155
a(S'w'
I719
tp156
a(S'p1_vo'
I5
tp157
a(S'w'
I4
tp158
a(S'w'
I8
tp159
a(S'p2_vo'
I2
tp160
a(S'w'
I3
tp161
a(S'w'
I719
tp162
a(S'p1_vo'
I6
tp163
a(S'w'
I3
tp164
a(S'w'
I7
tp165
a(S'p2_vo'
I3
tp166
a(S'w'
I4
tp167
a(S'w'
I720
tp168
a(S'p1_vo'
I7
tp169
a(S'w'
I3
tp170
a(S'w'
I8
tp171
a(S'p2_vo'
I5
tp172
a(S'w'
I3
tp173
a(S'w'
I719
tp174
a(S'p1_vo'
I8
tp175
a(S'w'
I4
tp176
a(S'w'
I7
tp177
a(S'p2_vo'
I6
tp178
a(S'w'
I3
tp179
a(S'w'
I724
tp180
a(S'w'
I8
tp181
a(S'p2_vo'
I7
tp182
a(S'w'
I3
tp183
a(S'w'
I722
tp184
a(S'w'
I8
tp185
a(S'p2_vo'
I8
tp186
a(S'w'
I3
tp187
a(S'w'
I723
tp188
a(S'w'
I12
tp189
a(S'w'
I722
tp190
a(S'w'
I10
tp191
a(S'w'
I724
tp192
a(S'w'
I11
tp193
a(S'w'
I719
tp194
a(S'p1_vo'
I7
tp195
a(S'w'
I3
tp196
a(S'w'
I11
tp197
a(S'w'
I719
tp198
a(S'p1_vo'
I5
tp199
a(S'w'
I3
tp200
a(S'w'
I12
tp201
a(S'w'
I722
tp202
a(S'w'
I8
tp203
a(S'p2_vo'
I7
tp204
a(S'w'
I3
tp205
a(S'w'
I723
tp206
a(S'w'
I7
tp207
a(S'p2_vo'
I5
tp208
a(S'w'
I3
tp209
a(S'w'
I724
tp210
a(S'p1_tl'
I134
tp211
a(S'w'
I10
tp212
a(S'w'
I5
tp213
a(S'tr_tl'
I179
tp214
a(S'w'
I719
tp215
a(S'p1_tl'
I133
tp216
a(S'w'
I10
tp217
a(S'w'
I5
tp218
a(S'tr_tl'
I178
tp219
a(S'w'
I718
tp220
a(S'w'
I10
tp221
a(S'p2_tl'
I119
tp222
a(S'w'
I724
tp223
a(S'w'
I10
tp224
a(S'p2_tl'
I118
tp225
a(S'w'
I724
tp226
a(S'w'
I10
tp227
a(S'w'
I724
tp228
a(S'p1_tl'
I132
tp229
a(S'w'
I10
tp230
a(S'w'
I5
tp231
a(S'tr_tl'
I177
tp232
a(S'w'
I719
tp233
a(S'p1_tl'
I133
tp234
a(S'w'
I9
tp235
a(S'w'
I6
tp236
a(S'tr_tl'
I178
tp237
a(S'w'
I719
tp238
a(S'w'
I9
tp239
a(S'p2_tl'
I117
tp240
a(S'w'
I724
tp241
a(S'w'
I10
tp242
a(S'p2_tl'
I118
tp243
a(S'w'
I724
tp244
a(S'w'
I10
tp245
a(S'w'
I724
tp246
a(S'p1_tl'
I134
tp247
a(S'w'
I10
tp248
a(S'w'
I5
tp249
a(S'tr_tl'
I179
tp250
a(S'w'
I719
tp251
a(S'w'
I10
tp252
a(S'w'
I723
tp253
a(S'p1_tl'
I133
tp254
a(S'w'
I10
tp255
a(S'p2_tl'
I119
tp256
a(S'w'
I6
tp257
a(S'tr_tl'
I178
tp258
a(S'w'
I718
tp259
a(S'w'
I10
tp260
a(S'w'
I724
tp261
a(S'w'
I10
tp262
a(S'p2_tl'
I118
tp263
a(S'w'
I724
tp264
a(S'p1_tl'
I132
tp265
a(S'w'
I10
tp266
a(S'w'
I5
tp267
a(S'tr_tl'
I177
tp268
a(S'w'
I718
tp269
a(S'p1_vo'
I0
tp270
a(S'p1_tl'
I141
tp271
a(S'w'
I10
tp272
a(S'w'
I10
tp273
a(S'tr_tl'
I103
tp274
a(S'tr_ll'
I1
tp275
a(S'tr_th'
I1
tp276
a(S'w'
I712
tp277
a(S'p1_vo'
I2
tp278
a(S'w'
I4
tp279
a(S'w'
I10
tp280
a(S'p2_tl'
I117
tp281
a(S'w'
I720
tp282
a(S'p1_vo'
I3
tp283
a(S'w'
I3
tp284
a(S'w'
I10
tp285
a(S'w'
I721
tp286
a(S'p1_vo'
I5
tp287
a(S'w'
I3
tp288
a(S'w'
I10
tp289
a(S'p2_tl'
I118
tp290
a(S'w'
I720
tp291
a(S'p1_vo'
I6
tp292
a(S'w'
I4
tp293
a(S'w'
I10
tp294
a(S'w'
I721
tp295
a(S'p1_vo'
I7
tp296
a(S'w'
I3
tp297
a(S'w'
I10
tp298
a(S'p2_tl'
I119
tp299
a(S'w'
I720
tp300
a(S'p1_vo'
I8
tp301
a(S'w'
I3
tp302
a(S'w'
I10
tp303
a(S'w'
I725
tp304
a(S'w'
I9
tp305
a(S'p2_tl'
I120
tp306
a(S'w'
I724
tp307
a(S'w'
I10
tp308
a(S'p2_tl'
I119
tp309
a(S'w'
I724
tp310
a(S'w'
I10
tp311
a(S'p2_tl'
I118
tp312
a(S'w'
I723
tp313
a(S'w'
I10
tp314
a(S'p2_tl'
I117
tp315
a(S'w'
I725
tp316
a(S'w'
I10
tp317
a(S'w'
I720
tp318
a(S'p1_vo'
I7
tp319
a(S'w'
I3
tp320
a(S'w'
I10
tp321
a(S'p2_tl'
I116
tp322
a(S'w'
I720
tp323
a(S'p1_vo'
I5
tp324
a(S'w'
I3
tp325
a(S'w'
I10
tp326
a(S'p2_tl'
I117
tp327
a(S'w'
I724
tp328
a(S'w'
I10
tp329
a(S'p2_tl'
I118
tp330
a(S'w'
I724
tp331
a(S'w'
I9
tp332
a(S'p2_tl'
I119
tp333
a(S'w'
I725
tp334
a(S'p1_tl'
I142
tp335
a(S'w'
I9
tp336
a(S'w'
I6
tp337
a(S'tr_tl'
I104
tp338
a(S'w'
I718
tp339
a(S'p1_tl'
I141
tp340
a(S'w'
I10
tp341
a(S'p2_tl'
I120
tp342
a(S'w'
I6
tp343
a(S'tr_tl'
I103
tp344
a(S'w'
I718
tp345
a(S'w'
I10
tp346
a(S'p2_tl'
I119
tp347
a(S'w'
I724
tp348
a(S'w'
I10
tp349
a(S'p2_tl'
I118
tp350
a(S'w'
I724
tp351
a(S'w'
I10
tp352
a(S'p2_tl'
I117
tp353
a(S'w'
I724
tp354
a(S'p1_tl'
I140
tp355
a(S'w'
I9
tp356
a(S'w'
I6
tp357
a(S'tr_tl'
I102
tp358
a(S'w'
I718
tp359
a(S'p1_tl'
I141
tp360
a(S'w'
I10
tp361
a(S'p2_tl'
I116
tp362
a(S'w'
I6
tp363
a(S'tr_tl'
I103
tp364
a(S'w'
I718
tp365
a(S'w'
I10
tp366
a(S'p2_tl'
I117
tp367
a(S'w'
I724
tp368
a(S'w'
I10
tp369
a(S'p2_tl'
I118
tp370
a(S'w'
I724
tp371
a(S'w'
I10
tp372
a(S'p2_tl'
I119
tp373
a(S'w'
I723
tp374
a(S'p1_tl'
I142
tp375
a(S'w'
I10
tp376
a(S'w'
I6
tp377
a(S'tr_tl'
I104
tp378
a(S'w'
I718
tp379
a(S'w'
I10
tp380
a(S'p2_tl'
I120
tp381
a(S'w'
I724
tp382
a(S'p1_tl'
I141
tp383
a(S'w'
I10
tp384
a(S'p2_tl'
I119
tp385
a(S'w'
I6
tp386
a(S'tr_tl'
I103
tp387
a(S'w'
I718
tp388
a(S'w'
I10
tp389
a(S'p2_tl'
I118
tp390
a(S'w'
I724
tp391
a(S'w'
I10
tp392
a(S'p2_tl'
I117
tp393
a(S'w'
I724
tp394
a(S'p1_tl'
I140
tp395
a(S'w'
I9
tp396
a(S'w'
I6
tp397
a(S'tr_tl'
I102
tp398
a(S'w'
I718
tp399
a(S'w'
I10
tp400
a(S'p2_tl'
I116
tp401
a(S'w'
I724
tp402
a(S'p1_tl'
I141
tp403
a(S'w'
I10
tp404
a(S'p2_tl'
I117
tp405
a(S'w'
I6
tp406
a(S'tr_tl'
I103
tp407
a(S'w'
I718
tp408
a(S'w'
I9
tp409
a(S'p2_vo'
I0
tp410
a(S'p2_tl'
I118
tp411
a(S'w'
I725
tp412
a(S'p1_tl'
I142
tp413
a(S'w'
I8
tp414
a(S'p2_vo'
I2
tp415
a(S'w'
I3
tp416
a(S'w'
I6
tp417
a(S'tr_tl'
I104
tp418
a(S'w'
I716
tp419
a(S'w'
I8
tp420
a(S'p2_vo'
I3
tp421
a(S'w'
I3
tp422
a(S'w'
I723
tp423
a(S'p1_tl'
I143
tp424
a(S'w'
I8
tp425
a(S'p2_vo'
I5
tp426
a(S'w'
I3
tp427
a(S'w'
I6
tp428
a(S'tr_tl'
I105
tp429
a(S'w'
I717
tp430
a(S'p1_tl'
I142
tp431
a(S'w'
I7
tp432
a(S'p2_vo'
I6
tp433
a(S'w'
I4
tp434
a(S'w'
I5
tp435
a(S'tr_tl'
I104
tp436
a(S'w'
I718
tp437
a(S'p1_tl'
I141
tp438
a(S'w'
I8
tp439
a(S'p2_vo'
I7
tp440
a(S'w'
I3
tp441
a(S'w'
I6
tp442
a(S'tr_tl'
I103
tp443
a(S'w'
I717
tp444
a(S'p1_tl'
I140
tp445
a(S'w'
I7
tp446
a(S'p2_vo'
I8
tp447
a(S'w'
I3
tp448
a(S'w'
I6
tp449
a(S'tr_tl'
I102
tp450
a(S'w'
I718
tp451
a(S'w'
I11
tp452
a(S'w'
I722
tp453
a(S'p1_tl'
I139
tp454
a(S'w'
I11
tp455
a(S'w'
I6
tp456
a(S'tr_tl'
I101
tp457
a(S'w'
I717
tp458
a(S'p1_tl'
I140
tp459
a(S'w'
I11
tp460
a(S'w'
I6
tp461
a(S'tr_tl'
I102
tp462
a(S'w'
I717
tp463
a(S'p1_tl'
I141
tp464
a(S'w'
I11
tp465
a(S'w'
I5
tp466
a(S'tr_tl'
I103
tp467
a(S'w'
I718
tp468
a(S'p1_tl'
I142
tp469
a(S'w'
I11
tp470
a(S'w'
I6
tp471
a(S'tr_tl'
I104
tp472
a(S'w'
I716
tp473
a(S'w'
I8
tp474
a(S'p2_vo'
I7
tp475
a(S'w'
I3
tp476
a(S'w'
I723
tp477
a(S'p1_tl'
I143
tp478
a(S'w'
I7
tp479
a(S'p2_vo'
I5
tp480
a(S'w'
I3
tp481
a(S'w'
I6
tp482
a(S'tr_tl'
I105
tp483
a(S'w'
I718
tp484
a(S'p1_tl'
I142
tp485
a(S'w'
I10
tp486
a(S'w'
I6
tp487
a(S'tr_tl'
I104
tp488
a(S'w'
I718
tp489
a(S'p1_tl'
I141
tp490
a(S'w'
I10
tp491
a(S'w'
I6
tp492
a(S'tr_tl'
I103
tp493
a(S'w'
I718
tp494
a(S'p1_tl'
I140
tp495
a(S'w'
I10
tp496
a(S'p2_tl'
I119
tp497
a(S'w'
I5
tp498
a(S'tr_tl'
I102
tp499
a(S'w'
I718
tp500
a(S'w'
I10
tp501
a(S'p2_tl'
I118
tp502
a(S'w'
I724
tp503
a(S'p1_tl'
I139
tp504
a(S'w'
I10
tp505
a(S'w'
I6
tp506
a(S'tr_tl'
I101
tp507
a(S'w'
I718
tp508
a(S'p1_tl'
I140
tp509
a(S'w'
I10
tp510
a(S'w'
I6
tp511
a(S'tr_tl'
I102
tp512
a(S'w'
I718
tp513
a(S'p1_tl'
I141
tp514
a(S'w'
I10
tp515
a(S'w'
I6
tp516
a(S'tr_tl'
I103
tp517
a(S'w'
I718
tp518
a(S'p1_tl'
I142
tp519
a(S'w'
I10
tp520
a(S'p2_tl'
I117
tp521
a(S'w'
I5
tp522
a(S'tr_tl'
I104
tp523
a(S'w'
I719
tp524
a(S'w'
I9
tp525
a(S'p2_tl'
I118
tp526
a(S'w'
I724
tp527
a(S'p1_tl'
I143
tp528
a(S'w'
I10
tp529
a(S'w'
I6
tp530
a(S'tr_tl'
I105
tp531
a(S'w'
I718
tp532
a(S'p1_tl'
I142
tp533
a(S'w'
I10
tp534
a(S'w'
I6
tp535
a(S'tr_tl'
I104
tp536
a(S'w'
I718
tp537
a(S'p1_tl'
I141
tp538
a(S'w'
I10
tp539
a(S'w'
I6
tp540
a(S'tr_tl'
I103
tp541
a(S'w'
I718
tp542
a(S'p1_tl'
I140
tp543
a(S'w'
I10
tp544
a(S'p2_tl'
I119
tp545
a(S'w'
I5
tp546
a(S'tr_tl'
I102
tp547
a(S'w'
I719
tp548
a(S'w'
I9
tp549
a(S'w'
I724
tp550
a(S'p1_tl'
I139
tp551
a(S'w'
I10
tp552
a(S'p2_tl'
I118
tp553
a(S'w'
I6
tp554
a(S'tr_tl'
I101
tp555
a(S'w'
I718
tp556
a(S'p1_tl'
I140
tp557
a(S'w'
I10
tp558
a(S'w'
I6
tp559
a(S'tr_tl'
I102
tp560
a(S'w'
I725
tp561
a(S'p1_du'
I0
tp562
a(S'p1_lh'
I0
tp563
a(S'p1_vo'
I0
tp564
a(S'w'
I1
tp565
a(S'p1_tl'
I141
tp566
a(S'w'
I10
tp567
a(S'w'
I13
tp568
a(S'tr_lh'
I0
tp569
a(S'tr_lr'
I0
tp570
a(S'tr_tl'
I103
tp571
a(S'w'
I707
tp572
a(S'p2_tl'
I117
tp573
a(S'w'
I742
tp574
a(S'p2_du'
I3
tp575
a(S'p2_vo'
I0
tp576
a(S'p2_tl'
I88
tp577
a(S'w'
I725
tp578
a(S'p2_vo'
I4
tp579
a(S'w'
I734
tp580
a(S'w'
I724
tp581
a(S'w'
I743
tp582
a(S'p2_vo'
I3
tp583
a(S'w'
I2935
tp584
a(S'p2_vo'
I2
tp585
a(S'w'
I2202
tp586
a(S'p2_vo'
I1
tp587
a(S'w'
I2204
tp588
a(S'p1_du'
I3
tp589
a(S'p1_lh'
I1
tp590
a(S'p1_tl'
I88
tp591
a(S'p1_ll'
I1
tp592
a(S'w'
I728
tp593
a(S'p1_vo'
I2
tp594
a(S'w'
I9
tp595
a(S'p2_du'
I0
tp596
a(S'p2_lh'
I0
tp597
a(S'p2_vo'
I0
tp598
a(S'w'
I4394
tp599
a(S'p1_vo'
I1
tp600
a(S'w'
I2209
tp601
a(S'p2_du'
I3
tp602
a(S'p2_lh'
I1
tp603
a(S'p2_tl'
I58
tp604
a(S'p2_ll'
I1
tp605
a(S'w'
I736
tp606
a(S'p2_vo'
I4
tp607
a(S'w'
I1456
tp608
a(S'p1_du'
I0
tp609
a(S'p1_lh'
I0
tp610
a(S'p1_vo'
I0
tp611
a(S'w'
I744
tp612
a(S'p2_vo'
I3
tp613
a(S'w'
I2935
tp614
a(S'p2_vo'
I2
tp615
a(S'w'
I2202
tp616
a(S'p2_vo'
I1
tp617
a(S'w'
I2189
tp618
a(S'p1_du'
I3
tp619
a(S'p1_lh'
I1
tp620
a(S'w'
I1
tp621
a(S'p1_tl'
I58
tp622
a(S'w'
I736
tp623
a(S'p1_vo'
I2
tp624
a(S'w'
I9
tp625
a(S'p2_du'
I0
tp626
a(S'p2_lh'
I0
tp627
a(S'p2_vo'
I0
tp628
a(S'w'
I4394
tp629
a(S'p1_vo'
I1
tp630
a(S'w'
I2209
tp631
a(S'p2_du'
I3
tp632
a(S'p2_lh'
I1
tp633
a(S'p2_tl'
I141
tp634
a(S'w'
I736
tp635
a(S'p2_vo'
I4
tp636
a(S'w'
I1457
tp637
a(S'p1_du'
I0
tp638
a(S'p1_lh'
I0
tp639
a(S'p1_vo'
I0
tp640
a(S'w'
I743
tp641
a(S'p2_vo'
I3
tp642
a(S'w'
I2935
tp643
a(S'p2_vo'
I2
tp644
a(S'w'
I2202
tp645
a(S'p2_vo'
I1
tp646
a(S'w'
I2190
tp647
a(S'p1_du'
I3
tp648
a(S'p1_lh'
I1
tp649
a(S'p1_tl'
I141
tp650
a(S'w'
I736
tp651
a(S'p1_vo'
I2
tp652
a(S'w'
I9
tp653
a(S'p2_du'
I0
tp654
a(S'p2_lh'
I0
tp655
a(S'p2_vo'
I0
tp656
a(S'w'
I4394
tp657
a(S'p1_vo'
I1
tp658
a(S'w'
I759
tp659
a(S'tr_ll'
I1
tp660
a(S'w'
I1454
tp661
a(S'p2_du'
I3
tp662
a(S'p2_lh'
I1
tp663
a(S'p2_tl'
I88
tp664
a(S'w'
I733
tp665
a(S'p2_vo'
I4
tp666
a(S'w'
I1456
tp667
a(S'p1_du'
I0
tp668
a(S'p1_lh'
I0
tp669
a(S'p1_vo'
I0
tp670
a(S'w'
I743
tp671
a(S'p2_vo'
I3
tp672
a(S'w'
I2936
tp673
a(S'p2_vo'
I2
tp674
a(S'w'
I2201
tp675
a(S'p2_vo'
I1
tp676
a(S'w'
I2193
tp677
a(S'p1_du'
I3
tp678
a(S'p1_lh'
I1
tp679
a(S'w'
I1
tp680
a(S'p1_tl'
I88
tp681
a(S'w'
I733
tp682
a(S'p1_vo'
I2
tp683
a(S'w'
I9
tp684
a(S'p2_du'
I0
tp685
a(S'p2_lh'
I0
tp686
a(S'p2_vo'
I0
tp687
a(S'w'
I4393
tp688
a(S'p1_vo'
I1
tp689
a(S'w'
I2209
tp690
a(S'p2_du'
I3
tp691
a(S'p2_lh'
I1
tp692
a(S'w'
I1
tp693
a(S'p2_tl'
I58
tp694
a(S'w'
I736
tp695
a(S'p2_vo'
I4
tp696
a(S'w'
I1456
tp697
a(S'p1_du'
I0
tp698
a(S'p1_lh'
I0
tp699
a(S'p1_vo'
I0
tp700
a(S'w'
I744
tp701
a(S'p2_vo'
I3
tp702
a(S'w'
I2935
tp703
a(S'p2_vo'
I2
tp704
a(S'w'
I2202
tp705
a(S'p2_vo'
I1
tp706
a(S'w'
I2189
tp707
a(S'p1_du'
I3
tp708
a(S'p1_lh'
I1
tp709
a(S'w'
I1
tp710
a(S'p1_tl'
I58
tp711
a(S'w'
I736
tp712
a(S'p1_vo'
I2
tp713
a(S'w'
I9
tp714
a(S'p2_du'
I0
tp715
a(S'p2_lh'
I0
tp716
a(S'p2_vo'
I0
tp717
a(S'w'
I4394
tp718
a(S'p1_vo'
I1
tp719
a(S'w'
I2209
tp720
a(S'p2_du'
I3
tp721
a(S'p2_lh'
I1
tp722
a(S'p2_tl'
I141
tp723
a(S'w'
I736
tp724
a(S'p2_vo'
I4
tp725
a(S'w'
I1456
tp726
a(S'p1_du'
I0
tp727
a(S'p1_lh'
I0
tp728
a(S'p1_vo'
I0
tp729
a(S'w'
I744
tp730
a(S'p2_vo'
I3
tp731
a(S'w'
I2935
tp732
a(S'p2_vo'
I2
tp733
a(S'w'
I2202
tp734
a(S'p2_vo'
I1
tp735
a(S'w'
I2190
tp736
a(S'p1_du'
I3
tp737
a(S'p1_lh'
I1
tp738
a(S'p1_tl'
I141
tp739
a(S'w'
I736
tp740
a(S'p1_vo'
I2
tp741
a(S'w'
I9
tp742
a(S'p2_du'
I0
tp743
a(S'p2_lh'
I0
tp744
a(S'p2_vo'
I0
tp745
a(S'w'
I4394
tp746
a(S'p1_vo'
I1
tp747
a(S'w'
I2212
tp748
a(S'p2_du'
I3
tp749
a(S'p2_lh'
I1
tp750
a(S'w'
I1
tp751
a(S'p2_tl'
I88
tp752
a(S'w'
I732
tp753
a(S'p2_vo'
I4
tp754
a(S'w'
I1457
tp755
a(S'p1_du'
I0
tp756
a(S'p1_lh'
I0
tp757
a(S'p1_vo'
I0
tp758
a(S'w'
I743
tp759
a(S'p2_vo'
I3
tp760
a(S'w'
I2935
tp761
a(S'p2_vo'
I2
tp762
a(S'w'
I2202
tp763
a(S'p2_vo'
I1
tp764
a(S'w'
I2193
tp765
a(S'p1_du'
I3
tp766
a(S'p1_lh'
I1
tp767
a(S'w'
I1
tp768
a(S'p1_tl'
I88
tp769
a(S'w'
I732
tp770
a(S'p1_vo'
I2
tp771
a(S'w'
I9
tp772
a(S'p2_du'
I0
tp773
a(S'p2_lh'
I0
tp774
a(S'p2_vo'
I0
tp775
a(S'w'
I4394
tp776
a(S'p1_vo'
I1
tp777
a(S'w'
I2209
tp778
a(S'p2_du'
I3
tp779
a(S'p2_lh'
I1
tp780
a(S'w'
I1
tp781
a(S'p2_tl'
I58
tp782
a(S'w'
I736
tp783
a(S'p2_vo'
I4
tp784
a(S'w'
I1456
tp785
a(S'p1_du'
I0
tp786
a(S'p1_lh'
I0
tp787
a(S'p1_vo'
I0
tp788
a(S'w'
I743
tp789
a(S'p2_vo'
I3
tp790
a(S'w'
I2935
tp791
a(S'p2_vo'
I2
tp792
a(S'w'
I2202
tp793
a(S'p2_vo'
I1
tp794
a(S'w'
I2190
tp795
a(S'p1_du'
I3
tp796
a(S'p1_lh'
I1
tp797
a(S'p1_tl'
I58
tp798
a(S'w'
I737
tp799
a(S'p1_vo'
I2
tp800
a(S'w'
I9
tp801
a(S'p2_du'
I0
tp802
a(S'p2_lh'
I0
tp803
a(S'p2_vo'
I0
tp804
a(S'w'
I4393
tp805
a(S'p1_vo'
I1
tp806
a(S'w'
I2209
tp807
a(S'p2_du'
I3
tp808
a(S'p2_lh'
I1
tp809
a(S'w'
I1
tp810
a(S'p2_tl'
I133
tp811
a(S'w'
I736
tp812
a(S'p2_vo'
I4
tp813
a(S'w'
I1456
tp814
a(S'p1_du'
I0
tp815
a(S'p1_lh'
I0
tp816
a(S'p1_vo'
I0
tp817
a(S'w'
I743
tp818
a(S'p2_vo'
I3
tp819
a(S'w'
I2936
tp820
a(S'p2_vo'
I2
tp821
a(S'w'
I2202
tp822
a(S'p2_vo'
I1
tp823
a(S'w'
I2189
tp824
a(S'p1_du'
I3
tp825
a(S'p1_lh'
I1
tp826
a(S'w'
I1
tp827
a(S'p1_tl'
I133
tp828
a(S'w'
I736
tp829
a(S'p1_vo'
I2
tp830
a(S'w'
I9
tp831
a(S'p2_du'
I0
tp832
a(S'p2_lh'
I0
tp833
a(S'p2_vo'
I0
tp834
a(S'w'
I4394
tp835
a(S'p1_vo'
I1
tp836
a(S'w'
I2211
tp837
a(S'p2_du'
I3
tp838
a(S'p2_lh'
I1
tp839
a(S'p2_tl'
I88
tp840
a(S'w'
I734
tp841
a(S'p2_vo'
I4
tp842
a(S'w'
I1456
tp843
a(S'p1_du'
I0
tp844
a(S'p1_lh'
I0
tp845
a(S'p1_vo'
I0
tp846
a(S'w'
I744
tp847
a(S'p2_vo'
I3
tp848
a(S'w'
I2935
tp849
a(S'p2_vo'
I2
tp850
a(S'w'
I2202
tp851
a(S'p2_vo'
I1
tp852
a(S'w'
I2191
tp853
a(S'p1_du'
I3
tp854
a(S'p1_lh'
I1
tp855
a(S'w'
I1
tp856
a(S'p1_tl'
I88
tp857
a(S'w'
I734
tp858
a(S'p1_vo'
I2
tp859
a(S'w'
I9
tp860
a(S'p2_du'
I0
tp861
a(S'p2_lh'
I0
tp862
a(S'p2_vo'
I0
tp863
a(S'w'
I4394
tp864
a(S'p1_vo'
I1
tp865
a(S'w'
I2209
tp866
a(S'p2_du'
I3
tp867
a(S'p2_lh'
I1
tp868
a(S'p2_tl'
I58
tp869
a(S'w'
I736
tp870
a(S'p2_vo'
I4
tp871
a(S'w'
I1456
tp872
a(S'p1_du'
I0
tp873
a(S'p1_lh'
I0
tp874
a(S'p1_vo'
I0
tp875
a(S'w'
I744
tp876
a(S'p2_vo'
I3
tp877
a(S'w'
I2935
tp878
a(S'p2_vo'
I2
tp879
a(S'w'
I2202
tp880
a(S'p2_vo'
I1
tp881
a(S'w'
I2190
tp882
a(S'p1_du'
I3
tp883
a(S'p1_lh'
I1
tp884
a(S'p1_tl'
I58
tp885
a(S'w'
I736
tp886
a(S'p1_vo'
I2
tp887
a(S'w'
I9
tp888
a(S'p2_du'
I0
tp889
a(S'p2_lh'
I0
tp890
a(S'p2_vo'
I0
tp891
a(S'w'
I4394
tp892
a(S'p1_vo'
I1
tp893
a(S'w'
I2209
tp894
a(S'p2_du'
I3
tp895
a(S'p2_lh'
I1
tp896
a(S'p2_tl'
I133
tp897
a(S'w'
I736
tp898
a(S'p2_vo'
I4
tp899
a(S'w'
I1457
tp900
a(S'p1_du'
I0
tp901
a(S'p1_lh'
I0
tp902
a(S'p1_vo'
I0
tp903
a(S'w'
I743
tp904
a(S'p2_vo'
I3
tp905
a(S'w'
I2935
tp906
a(S'p2_vo'
I2
tp907
a(S'w'
I2202
tp908
a(S'p2_vo'
I1
tp909
a(S'w'
I2190
tp910
a(S'p1_du'
I3
tp911
a(S'p1_lh'
I1
tp912
a(S'p1_tl'
I133
tp913
a(S'w'
I737
tp914
a(S'p1_vo'
I2
tp915
a(S'w'
I9
tp916
a(S'p2_du'
I0
tp917
a(S'p2_lh'
I0
tp918
a(S'p2_vo'
I0
tp919
a(S'w'
I4393
tp920
a(S'p1_vo'
I1
tp921
a(S'w'
I2224
tp922
a(S'p2_du'
I3
tp923
a(S'p2_lh'
I1
tp924
a(S'p2_tl'
I88
tp925
a(S'w'
I722
tp926
a(S'p2_vo'
I4
tp927
a(S'w'
I733
tp928
a.