(lp1
(S'clock'
p2
I1789772
tp3
a(S'ch_no'
I1
tp4
a(S'ch_tr'
I1
tp5
a(S'ch_p2'
I1
tp6
a(S'ch_p1'
I1
tp7
a(S'w'
I13
tp8
a(S'p1_cv'
I1
tp9
a(S'p2_cv'
I1
tp10
a(S'no_cv'
I1
tp11
a(S'w'
I37
tp12
a(S'p1_du'
I2
tp13
a(S'p1_lh'
I1
tp14
a(S'p1_sp'
I7
tp15
a(S'p1_sn'
I1
tp16
a(S'p1_ss'
I7
tp17
a(S'p1_tl'
I225
tp18
a(S'p1_ll'
I1
tp19
a(S'w'
I11
tp20
a(S'p2_sp'
I7
tp21
a(S'p2_sn'
I1
tp22
a(S'p2_ss'
I7
tp23
a(S'p2_ll'
I0
tp24
a(S'w'
I12
tp25
a(S'tr_lh'
I1
tp26
a(S'tr_lr'
I127
tp27
a(S'tr_tl'
I45
tp28
a(S'w'
I1
tp29
a(S'tr_ll'
I1
tp30
a(S'tr_th'
I1
tp31
a(S'w'
I428
tp32
a(S'p1_vo'
I3
tp33
a(S'w'
I3
tp34
a(S'w'
I733
tp35
a(S'w'
I735
tp36
a(S'w'
I9
tp37
a(S'p2_du'
I2
tp38
a(S'p2_lh'
I1
tp39
a(S'p2_tl'
I200
tp40
a(S'p2_ll'
I1
tp41
a(S'w'
I724
tp42
a(S'w'
I10
tp43
a(S'p2_vo'
I4
tp44
a(S'w'
I3
tp45
a(S'w'
I718
tp46
a(S'p1_vo'
I2
tp47
a(S'w'
I3
tp48
a(S'w'
I13
tp49
a(S'w'
I715
tp50
a(S'p1_vo'
I0
tp51
a(S'w'
I1
tp52
a(S'p1_tl'
I212
tp53
a(S'w'
I13
tp54
a(S'w'
I7
tp55
a(S'tr_tl'
I28
tp56
a(S'w'
I716
tp57
a(S'p1_vo'
I3
tp58
a(S'w'
I3
tp59
a(S'w'
I9
tp60
a(S'p2_vo'
I3
tp61
a(S'w'
I3
tp62
a(S'w'
I721
tp63
a(S'w'
I13
tp64
a(S'w'
I722
tp65
a(S'w'
I7
tp66
a(S'p2_vo'
I0
tp67
a(S'p2_tl'
I189
tp68
a(S'w'
I726
tp69
a(S'w'
I10
tp70
a(S'p2_vo'
I4
tp71
a(S'w'
I3
tp72
a(S'w'
I718
tp73
a(S'p1_vo'
I2
tp74
a(S'w'
I3
tp75
a(S'w'
I13
tp76
a(S'w'
I715
tp77
a(S'p1_vo'
I0
tp78
a(S'w'
I1
tp79
a(S'p1_tl'
I200
tp80
a(S'w'
I13
tp81
a(S'w'
I7
tp82
a(S'tr_tl'
I12
tp83
a(S'w'
I715
tp84
a(S'p1_vo'
I3
tp85
a(S'w'
I4
tp86
a(S'w'
I9
tp87
a(S'p2_vo'
I3
tp88
a(S'w'
I3
tp89
a(S'w'
I721
tp90
a(S'w'
I13
tp91
a(S'w'
I721
tp92
a(S'w'
I8
tp93
a(S'p2_vo'
I0
tp94
a(S'p2_tl'
I178
tp95
a(S'w'
I726
tp96
a(S'w'
I9
tp97
a(S'p2_vo'
I4
tp98
a(S'w'
I3
tp99
a(S'w'
I718
tp100
a(S'p1_vo'
I2
tp101
a(S'w'
I4
tp102
a(S'w'
I12
tp103
a(S'w'
I716
tp104
a(S'p1_vo'
I0
tp105
a(S'p1_tl'
I189
tp106
a(S'w'
I13
tp107
a(S'w'
I7
tp108
a(S'tr_tl'
I253
tp109
a(S'w'
I1
tp110
a(S'tr_ll'
I1
tp111
a(S'tr_th'
I0
tp112
a(S'w'
I715
tp113
a(S'p1_vo'
I3
tp114
a(S'w'
I3
tp115
a(S'w'
I10
tp116
a(S'p2_vo'
I3
tp117
a(S'w'
I3
tp118
a(S'w'
I721
tp119
a(S'w'
I13
tp120
a(S'w'
I721
tp121
a(S'w'
I7
tp122
a(S'p2_vo'
I0
tp123
a(S'w'
I1
tp124
a(S'p2_tl'
I168
tp125
a(S'w'
I725
tp126
a(S'w'
I10
tp127
a(S'p2_vo'
I4
tp128
a(S'w'
I3
tp129
a(S'w'
I718
tp130
a(S'p1_vo'
I2
tp131
a(S'w'
I4
tp132
a(S'w'
I12
tp133
a(S'w'
I716
tp134
a(S'p1_vo'
I0
tp135
a(S'p1_tl'
I178
tp136
a(S'w'
I13
tp137
a(S'w'
I7
tp138
a(S'tr_tl'
I238
tp139
a(S'w'
I716
tp140
a(S'p1_vo'
I3
tp141
a(S'w'
I3
tp142
a(S'w'
I9
tp143
a(S'p2_vo'
I3
tp144
a(S'w'
I4
tp145
a(S'w'
I720
tp146
a(S'w'
I13
tp147
a(S'w'
I722
tp148
a(S'w'
I7
tp149
a(S'p2_vo'
I0
tp150
a(S'w'
I1
tp151
a(S'p2_tl'
I159
tp152
a(S'w'
I725
tp153
a(S'w'
I10
tp154
a(S'p2_vo'
I4
tp155
a(S'w'
I3
tp156
a(S'w'
I718
tp157
a(S'p1_vo'
I2
tp158
a(S'w'
I3
tp159
a(S'w'
I13
tp160
a(S'w'
I715
tp161
a(S'p1_vo'
I0
tp162
a(S'w'
I1
tp163
a(S'p1_tl'
I168
tp164
a(S'w'
I13
tp165
a(S'w'
I7
tp166
a(S'tr_tl'
I225
tp167
a(S'w'
I716
tp168
a(S'p1_vo'
I3
tp169
a(S'w'
I3
tp170
a(S'w'
I9
tp171
a(S'p2_vo'
I3
tp172
a(S'w'
I3
tp173
a(S'w'
I721
tp174
a(S'w'
I13
tp175
a(S'w'
I722
tp176
a(S'w'
I7
tp177
a(S'p2_vo'
I0
tp178
a(S'w'
I1
tp179
a(S'p2_tl'
I150
tp180
a(S'w'
I725
tp181
a(S'w'
I9
tp182
a(S'p2_vo'
I4
tp183
a(S'w'
I4
tp184
a(S'w'
I718
tp185
a(S'p1_vo'
I2
tp186
a(S'w'
I3
tp187
a(S'w'
I13
tp188
a(S'w'
I719
tp189
a(S'p1_vo'
I0
tp190
a(S'w'
I1
tp191
a(S'p1_tl'
I159
tp192
a(S'w'
I13
tp193
a(S'w'
I9
tp194
a(S'tr_tl'
I212
tp195
a(S'w'
I707
tp196
a(S'p1_vo'
I2
tp197
a(S'w'
I4
tp198
a(S'w'
I9
tp199
a(S'p2_vo'
I3
tp200
a(S'w'
I3
tp201
a(S'w'
I718
tp202
a(S'p1_vo'
I3
tp203
a(S'w'
I3
tp204
a(S'w'
I13
tp205
a(S'w'
I718
tp206
a(S'p1_vo'
I5
tp207
a(S'w'
I3
tp208
a(S'w'
I12
tp209
a(S'p2_vo'
I0
tp210
a(S'p2_tl'
I141
tp211
a(S'w'
I718
tp212
a(S'p1_vo'
I6
tp213
a(S'w'
I4
tp214
a(S'w'
I8
tp215
a(S'p2_vo'
I2
tp216
a(S'w'
I3
tp217
a(S'w'
I720
tp218
a(S'p1_vo'
I7
tp219
a(S'w'
I3
tp220
a(S'w'
I7
tp221
a(S'p2_vo'
I3
tp222
a(S'w'
I3
tp223
a(S'w'
I720
tp224
a(S'p1_vo'
I8
tp225
a(S'w'
I3
tp226
a(S'w'
I8
tp227
a(S'p2_vo'
I5
tp228
a(S'w'
I3
tp229
a(S'w'
I724
tp230
a(S'w'
I7
tp231
a(S'p2_vo'
I6
tp232
a(S'w'
I3
tp233
a(S'w'
I723
tp234
a(S'w'
I8
tp235
a(S'p2_vo'
I7
tp236
a(S'w'
I3
tp237
a(S'w'
I723
tp238
a(S'w'
I7
tp239
a(S'p2_vo'
I8
tp240
a(S'w'
I4
tp241
a(S'w'
I722
tp242
a(S'w'
I12
tp243
a(S'w'
I723
tp244
a(S'w'
I10
tp245
a(S'w'
I720
tp246
a(S'p1_vo'
I7
tp247
a(S'w'
I3
tp248
a(S'w'
I11
tp249
a(S'w'
I719
tp250
a(S'p1_vo'
I5
tp251
a(S'w'
I3
tp252
a(S'w'
I11
tp253
a(S'w'
I723
tp254
a(S'w'
I11
tp255
a(S'w'
I723
tp256
a(S'w'
I7
tp257
a(S'p2_vo'
I7
tp258
a(S'w'
I3
tp259
a(S'w'
I723
tp260
a(S'p1_tl'
I160
tp261
a(S'w'
I7
tp262
a(S'p2_vo'
I5
tp263
a(S'w'
I3
tp264
a(S'w'
I6
tp265
a(S'tr_tl'
I213
tp266
a(S'w'
I718
tp267
a(S'p1_tl'
I159
tp268
a(S'w'
I10
tp269
a(S'w'
I6
tp270
a(S'tr_tl'
I212
tp271
a(S'w'
I718
tp272
a(S'w'
I10
tp273
a(S'w'
I724
tp274
a(S'w'
I10
tp275
a(S'p2_tl'
I142
tp276
a(S'w'
I724
tp277
a(S'w'
I10
tp278
a(S'p2_tl'
I141
tp279
a(S'w'
I724
tp280
a(S'p1_tl'
I158
tp281
a(S'w'
I9
tp282
a(S'w'
I6
tp283
a(S'tr_tl'
I211
tp284
a(S'w'
I718
tp285
a(S'p1_tl'
I159
tp286
a(S'w'
I10
tp287
a(S'w'
I6
tp288
a(S'tr_tl'
I212
tp289
a(S'w'
I718
tp290
a(S'w'
I10
tp291
a(S'w'
I724
tp292
a(S'w'
I10
tp293
a(S'p2_tl'
I140
tp294
a(S'w'
I724
tp295
a(S'w'
I10
tp296
a(S'p2_tl'
I141
tp297
a(S'w'
I723
tp298
a(S'p1_tl'
I160
tp299
a(S'w'
I10
tp300
a(S'w'
I6
tp301
a(S'tr_tl'
I213
tp302
a(S'w'
I718
tp303
a(S'w'
I10
tp304
a(S'w'
I724
tp305
a(S'p1_tl'
I159
tp306
a(S'w'
I10
tp307
a(S'w'
I6
tp308
a(S'tr_tl'
I212
tp309
a(S'w'
I718
tp310
a(S'w'
I10
tp311
a(S'p2_tl'
I142
tp312
a(S'w'
I724
tp313
a(S'w'
I10
tp314
a(S'w'
I723
tp315
a(S'p1_tl'
I158
tp316
a(S'w'
I10
tp317
a(S'p2_tl'
I141
tp318
a(S'w'
I6
tp319
a(S'tr_tl'
I211
tp320
a(S'w'
I718
tp321
a(S'w'
I10
tp322
a(S'w'
I724
tp323
a(S'p1_tl'
I159
tp324
a(S'w'
I10
tp325
a(S'w'
I6
tp326
a(S'tr_tl'
I212
tp327
a(S'w'
I718
tp328
a(S'w'
I10
tp329
a(S'p2_tl'
I140
tp330
a(S'w'
I724
tp331
a(S'p1_tl'
I160
tp332
a(S'w'
I10
tp333
a(S'w'
I5
tp334
a(S'tr_tl'
I213
tp335
a(S'w'
I719
tp336
a(S'w'
I9
tp337
a(S'p2_tl'
I141
tp338
a(S'w'
I724
tp339
a(S'p1_tl'
I161
tp340
a(S'w'
I10
tp341
a(S'w'
I6
tp342
a(S'tr_tl'
I214
tp343
a(S'w'
I718
tp344
a(S'p1_tl'
I160
tp345
a(S'w'
I10
tp346
a(S'p2_tl'
I142
tp347
a(S'w'
I6
tp348
a(S'tr_tl'
I213
tp349
a(S'w'
I718
tp350
a(S'p1_tl'
I159
tp351
a(S'w'
I10
tp352
a(S'w'
I6
tp353
a(S'tr_tl'
I212
tp354
a(S'w'
I718
tp355
a(S'p1_tl'
I158
tp356
a(S'w'
I10
tp357
a(S'p2_tl'
I143
tp358
a(S'w'
I5
tp359
a(S'tr_tl'
I211
tp360
a(S'w'
I719
tp361
a(S'w'
I9
tp362
a(S'p2_tl'
I142
tp363
a(S'w'
I724
tp364
a(S'p1_tl'
I157
tp365
a(S'w'
I10
tp366
a(S'p2_tl'
I141
tp367
a(S'w'
I6
tp368
a(S'tr_tl'
I210
tp369
a(S'w'
I718
tp370
a(S'p1_tl'
I158
tp371
a(S'w'
I10
tp372
a(S'p2_tl'
I140
tp373
a(S'w'
I6
tp374
a(S'tr_tl'
I211
tp375
a(S'w'
I718
tp376
a(S'p1_tl'
I159
tp377
a(S'w'
I10
tp378
a(S'w'
I6
tp379
a(S'tr_tl'
I212
tp380
a(S'w'
I718
tp381
a(S'p1_tl'
I160
tp382
a(S'w'
I10
tp383
a(S'p2_tl'
I139
tp384
a(S'w'
I5
tp385
a(S'tr_tl'
I213
tp386
a(S'w'
I718
tp387
a(S'w'
I10
tp388
a(S'p2_tl'
I140
tp389
a(S'w'
I724
tp390
a(S'p1_tl'
I161
tp391
a(S'w'
I10
tp392
a(S'p2_tl'
I141
tp393
a(S'w'
I6
tp394
a(S'tr_tl'
I214
tp395
a(S'w'
I717
tp396
a(S'p1_vo'
I0
tp397
a(S'w'
I1
tp398
a(S'p1_tl'
I168
tp399
a(S'w'
I9
tp400
a(S'p2_tl'
I142
tp401
a(S'w'
I10
tp402
a(S'tr_tl'
I171
tp403
a(S'tr_ll'
I1
tp404
a(S'tr_th'
I1
tp405
a(S'w'
I713
tp406
a(S'p1_vo'
I2
tp407
a(S'w'
I3
tp408
a(S'w'
I10
tp409
a(S'w'
I720
tp410
a(S'p1_vo'
I3
tp411
a(S'w'
I3
tp412
a(S'w'
I10
tp413
a(S'p2_tl'
I143
tp414
a(S'w'
I721
tp415
a(S'p1_vo'
I5
tp416
a(S'w'
I4
tp417
a(S'w'
I10
tp418
a(S'p2_tl'
I142
tp419
a(S'w'
I720
tp420
a(S'p1_vo'
I6
tp421
a(S'w'
I3
tp422
a(S'w'
I10
tp423
a(S'p2_tl'
I141
tp424
a(S'w'
I721
tp425
a(S'p1_vo'
I7
tp426
a(S'w'
I3
tp427
a(S'w'
I10
tp428
a(S'p2_tl'
I140
tp429
a(S'w'
I720
tp430
a(S'p1_vo'
I8
tp431
a(S'w'
I4
tp432
a(S'w'
I9
tp433
a(S'w'
I725
tp434
a(S'w'
I10
tp435
a(S'p2_tl'
I139
tp436
a(S'w'
I723
tp437
a(S'w'
I10
tp438
a(S'p2_tl'
I140
tp439
a(S'w'
I725
tp440
a(S'w'
I10
tp441
a(S'p2_tl'
I141
tp442
a(S'w'
I723
tp443
a(S'w'
I10
tp444
a(S'p2_tl'
I142
tp445
a(S'w'
I724
tp446
a(S'w'
I10
tp447
a(S'w'
I720
tp448
a(S'p1_vo'
I7
tp449
a(S'w'
I3
tp450
a(S'w'
I10
tp451
a(S'p2_tl'
I143
tp452
a(S'w'
I720
tp453
a(S'p1_vo'
I5
tp454
a(S'w'
I3
tp455
a(S'w'
I10
tp456
a(S'p2_tl'
I142
tp457
a(S'w'
I724
tp458
a(S'w'
I10
tp459
a(S'p2_tl'
I141
tp460
a(S'w'
I724
tp461
a(S'w'
I10
tp462
a(S'p2_tl'
I140
tp463
a(S'w'
I724
tp464
a(S'p1_tl'
I169
tp465
a(S'w'
I10
tp466
a(S'w'
I5
tp467
a(S'tr_tl'
I172
tp468
a(S'w'
I719
tp469
a(S'p1_tl'
I168
tp470
a(S'w'
I10
tp471
a(S'p2_tl'
I139
tp472
a(S'w'
I5
tp473
a(S'tr_tl'
I171
tp474
a(S'w'
I719
tp475
a(S'w'
I9
tp476
a(S'p2_tl'
I140
tp477
a(S'w'
I724
tp478
a(S'w'
I10
tp479
a(S'p2_tl'
I141
tp480
a(S'w'
I724
tp481
a(S'w'
I10
tp482
a(S'p2_tl'
I142
tp483
a(S'w'
I724
tp484
a(S'p1_tl'
I167
tp485
a(S'w'
I10
tp486
a(S'w'
I6
tp487
a(S'tr_tl'
I170
tp488
a(S'w'
I718
tp489
a(S'p1_tl'
I168
tp490
a(S'w'
I10
tp491
a(S'p2_tl'
I143
tp492
a(S'w'
I5
tp493
a(S'tr_tl'
I171
tp494
a(S'w'
I719
tp495
a(S'w'
I10
tp496
a(S'p2_tl'
I142
tp497
a(S'w'
I723
tp498
a(S'w'
I10
tp499
a(S'p2_tl'
I141
tp500
a(S'w'
I724
tp501
a(S'w'
I10
tp502
a(S'p2_tl'
I140
tp503
a(S'w'
I724
tp504
a(S'p1_tl'
I169
tp505
a(S'w'
I10
tp506
a(S'w'
I5
tp507
a(S'tr_tl'
I172
tp508
a(S'w'
I719
tp509
a(S'w'
I10
tp510
a(S'p2_tl'
I139
tp511
a(S'w'
I724
tp512
a(S'p1_tl'
I168
tp513
a(S'w'
I9
tp514
a(S'p2_tl'
I140
tp515
a(S'w'
I6
tp516
a(S'tr_tl'
I171
tp517
a(S'w'
I718
tp518
a(S'w'
I10
tp519
a(S'p2_tl'
I141
tp520
a(S'w'
I724
tp521
a(S'w'
I10
tp522
a(S'p2_tl'
I142
tp523
a(S'w'
I724
tp524
a(S'p1_tl'
I167
tp525
a(S'w'
I10
tp526
a(S'w'
I6
tp527
a(S'tr_tl'
I170
tp528
a(S'w'
I718
tp529
a(S'w'
I10
tp530
a(S'p2_tl'
I143
tp531
a(S'w'
I724
tp532
a(S'p1_tl'
I168
tp533
a(S'w'
I10
tp534
a(S'p2_tl'
I142
tp535
a(S'w'
I5
tp536
a(S'tr_tl'
I171
tp537
a(S'w'
I718
tp538
a(S'w'
I10
tp539
a(S'p2_tl'
I141
tp540
a(S'w'
I724
tp541
a(S'p1_tl'
I169
tp542
a(S'w'
I10
tp543
a(S'p2_tl'
I140
tp544
a(S'w'
I6
tp545
a(S'tr_tl'
I172
tp546
a(S'w'
I718
tp547
a(S'w'
I10
tp548
a(S'w'
I724
tp549
a(S'p1_tl'
I170
tp550
a(S'w'
I10
tp551
a(S'p2_tl'
I139
tp552
a(S'w'
I5
tp553
a(S'tr_tl'
I173
tp554
a(S'w'
I719
tp555
a(S'p1_tl'
I169
tp556
a(S'w'
I9
tp557
a(S'p2_tl'
I140
tp558
a(S'w'
I6
tp559
a(S'tr_tl'
I172
tp560
a(S'w'
I718
tp561
a(S'p1_tl'
I168
tp562
a(S'w'
I10
tp563
a(S'p2_tl'
I141
tp564
a(S'w'
I6
tp565
a(S'tr_tl'
I171
tp566
a(S'w'
I718
tp567
a(S'p1_tl'
I167
tp568
a(S'w'
I10
tp569
a(S'p2_tl'
I142
tp570
a(S'w'
I6
tp571
a(S'tr_tl'
I170
tp572
a(S'w'
I718
tp573
a(S'w'
I10
tp574
a(S'w'
I724
tp575
a(S'p1_tl'
I166
tp576
a(S'w'
I10
tp577
a(S'p2_tl'
I143
tp578
a(S'w'
I5
tp579
a(S'tr_tl'
I169
tp580
a(S'w'
I719
tp581
a(S'p1_tl'
I167
tp582
a(S'w'
I9
tp583
a(S'p2_tl'
I142
tp584
a(S'w'
I6
tp585
a(S'tr_tl'
I170
tp586
a(S'w'
I718
tp587
a(S'p1_tl'
I168
tp588
a(S'w'
I10
tp589
a(S'p2_tl'
I141
tp590
a(S'w'
I6
tp591
a(S'tr_tl'
I171
tp592
a(S'w'
I718
tp593
a(S'p1_tl'
I169
tp594
a(S'w'
I10
tp595
a(S'p2_tl'
I140
tp596
a(S'w'
I6
tp597
a(S'tr_tl'
I172
tp598
a(S'w'
I718
tp599
a(S'w'
I10
tp600
a(S'w'
I724
tp601
a(S'p1_tl'
I170
tp602
a(S'w'
I10
tp603
a(S'p2_tl'
I139
tp604
a(S'w'
I5
tp605
a(S'tr_tl'
I173
tp606
a(S'w'
I719
tp607
a(S'p1_tl'
I169
tp608
a(S'w'
I9
tp609
a(S'p2_tl'
I140
tp610
a(S'w'
I6
tp611
a(S'tr_tl'
I172
tp612
a(S'w'
I718
tp613
a(S'p1_tl'
I168
tp614
a(S'w'
I10
tp615
a(S'p2_tl'
I141
tp616
a(S'w'
I6
tp617
a(S'tr_tl'
I171
tp618
a(S'w'
I718
tp619
a(S'p1_tl'
I167
tp620
a(S'w'
I10
tp621
a(S'p2_tl'
I142
tp622
a(S'w'
I6
tp623
a(S'tr_tl'
I170
tp624
a(S'w'
I718
tp625
a(S'w'
I9
tp626
a(S'p2_vo'
I0
tp627
a(S'p2_tl'
I141
tp628
a(S'w'
I725
tp629
a(S'p1_tl'
I166
tp630
a(S'w'
I8
tp631
a(S'p2_vo'
I2
tp632
a(S'w'
I3
tp633
a(S'w'
I6
tp634
a(S'tr_tl'
I169
tp635
a(S'w'
I717
tp636
a(S'p1_tl'
I167
tp637
a(S'w'
I7
tp638
a(S'p2_vo'
I3
tp639
a(S'w'
I3
tp640
a(S'w'
I6
tp641
a(S'tr_tl'
I170
tp642
a(S'w'
I717
tp643
a(S'p1_tl'
I168
tp644
a(S'w'
I8
tp645
a(S'p2_vo'
I5
tp646
a(S'w'
I4
tp647
a(S'w'
I5
tp648
a(S'tr_tl'
I171
tp649
a(S'w'
I717
tp650
a(S'p1_tl'
I169
tp651
a(S'w'
I8
tp652
a(S'p2_vo'
I6
tp653
a(S'w'
I3
tp654
a(S'w'
I6
tp655
a(S'tr_tl'
I172
tp656
a(S'w'
I717
tp657
a(S'w'
I8
tp658
a(S'p2_vo'
I7
tp659
a(S'w'
I3
tp660
a(S'w'
I723
tp661
a(S'p1_tl'
I170
tp662
a(S'w'
I7
tp663
a(S'p2_vo'
I8
tp664
a(S'w'
I3
tp665
a(S'w'
I6
tp666
a(S'tr_tl'
I173
tp667
a(S'w'
I718
tp668
a(S'p1_tl'
I169
tp669
a(S'w'
I11
tp670
a(S'w'
I5
tp671
a(S'tr_tl'
I172
tp672
a(S'w'
I717
tp673
a(S'p1_tl'
I168
tp674
a(S'w'
I11
tp675
a(S'w'
I6
tp676
a(S'tr_tl'
I171
tp677
a(S'w'
I717
tp678
a(S'p1_tl'
I167
tp679
a(S'w'
I11
tp680
a(S'w'
I6
tp681
a(S'tr_tl'
I170
tp682
a(S'w'
I717
tp683
a(S'w'
I11
tp684
a(S'w'
I723
tp685
a(S'p1_tl'
I166
tp686
a(S'w'
I11
tp687
a(S'w'
I6
tp688
a(S'tr_tl'
I169
tp689
a(S'w'
I717
tp690
a(S'p1_tl'
I167
tp691
a(S'w'
I7
tp692
a(S'p2_vo'
I7
tp693
a(S'w'
I3
tp694
a(S'w'
I6
tp695
a(S'tr_tl'
I170
tp696
a(S'w'
I717
tp697
a(S'p1_tl'
I168
tp698
a(S'w'
I7
tp699
a(S'p2_vo'
I5
tp700
a(S'w'
I3
tp701
a(S'w'
I6
tp702
a(S'tr_tl'
I171
tp703
a(S'w'
I718
tp704
a(S'p1_tl'
I169
tp705
a(S'w'
I10
tp706
a(S'w'
I6
tp707
a(S'tr_tl'
I172
tp708
a(S'w'
I718
tp709
a(S'w'
I10
tp710
a(S'w'
I724
tp711
a(S'p1_tl'
I170
tp712
a(S'w'
I10
tp713
a(S'p2_tl'
I142
tp714
a(S'w'
I5
tp715
a(S'tr_tl'
I173
tp716
a(S'w'
I719
tp717
a(S'p1_tl'
I169
tp718
a(S'w'
I10
tp719
a(S'p2_tl'
I141
tp720
a(S'w'
I5
tp721
a(S'tr_tl'
I172
tp722
a(S'w'
I718
tp723
a(S'p1_tl'
I168
tp724
a(S'w'
I10
tp725
a(S'w'
I6
tp726
a(S'tr_tl'
I171
tp727
a(S'w'
I718
tp728
a(S'p1_tl'
I167
tp729
a(S'w'
I10
tp730
a(S'w'
I6
tp731
a(S'tr_tl'
I170
tp732
a(S'w'
I718
tp733
a(S'w'
I10
tp734
a(S'w'
I724
tp735
a(S'p1_tl'
I166
tp736
a(S'w'
I10
tp737
a(S'p2_tl'
I140
tp738
a(S'w'
I5
tp739
a(S'tr_tl'
I169
tp740
a(S'w'
I719
tp741
a(S'p1_tl'
I167
tp742
a(S'w'
I9
tp743
a(S'p2_tl'
I141
tp744
a(S'w'
I6
tp745
a(S'tr_tl'
I170
tp746
a(S'w'
I719
tp747
a(S'p1_tl'
I168
tp748
a(S'w'
I9
tp749
a(S'w'
I6
tp750
a(S'tr_tl'
I171
tp751
a(S'w'
I718
tp752
a(S'p1_tl'
I169
tp753
a(S'w'
I10
tp754
a(S'w'
I6
tp755
a(S'tr_tl'
I172
tp756
a(S'w'
I718
tp757
a(S'w'
I10
tp758
a(S'w'
I724
tp759
a(S'p1_tl'
I170
tp760
a(S'w'
I10
tp761
a(S'p2_tl'
I142
tp762
a(S'w'
I5
tp763
a(S'tr_tl'
I173
tp764
a(S'w'
I719
tp765
a(S'p1_tl'
I169
tp766
a(S'w'
I10
tp767
a(S'w'
I5
tp768
a(S'tr_tl'
I172
tp769
a(S'w'
I718
tp770
a(S'p1_tl'
I168
tp771
a(S'w'
I10
tp772
a(S'p2_tl'
I141
tp773
a(S'w'
I6
tp774
a(S'tr_tl'
I171
tp775
a(S'w'
I718
tp776
a(S'p1_tl'
I167
tp777
a(S'w'
I10
tp778
a(S'w'
I6
tp779
a(S'tr_tl'
I170
tp780
a(S'w'
I718
tp781
a(S'w'
I10
tp782
a(S'w'
I724
tp783
a(S'p1_tl'
I166
tp784
a(S'w'
I10
tp785
a(S'p2_tl'
I140
tp786
a(S'w'
I5
tp787
a(S'tr_tl'
I169
tp788
a(S'w'
I719
tp789
a(S'p1_tl'
I167
tp790
a(S'w'
I9
tp791
a(S'w'
I6
tp792
a(S'tr_tl'
I170
tp793
a(S'w'
I718
tp794
a(S'p1_tl'
I168
tp795
a(S'w'
I10
tp796
a(S'p2_tl'
I141
tp797
a(S'w'
I6
tp798
a(S'tr_tl'
I171
tp799
a(S'w'
I718
tp800
a(S'p1_tl'
I169
tp801
a(S'w'
I10
tp802
a(S'w'
I6
tp803
a(S'tr_tl'
I172
tp804
a(S'w'
I718
tp805
a(S'w'
I10
tp806
a(S'p2_tl'
I142
tp807
a(S'w'
I724
tp808
a(S'p1_tl'
I170
tp809
a(S'w'
I10
tp810
a(S'w'
I5
tp811
a(S'tr_tl'
I173
tp812
a(S'w'
I719
tp813
a(S'p1_tl'
I169
tp814
a(S'w'
I9
tp815
a(S'p2_tl'
I143
tp816
a(S'w'
I6
tp817
a(S'tr_tl'
I172
tp818
a(S'w'
I719
tp819
a(S'p1_tl'
I168
tp820
a(S'w'
I9
tp821
a(S'p2_tl'
I142
tp822
a(S'w'
I6
tp823
a(S'tr_tl'
I171
tp824
a(S'w'
I718
tp825
a(S'p1_tl'
I167
tp826
a(S'w'
I10
tp827
a(S'p2_tl'
I141
tp828
a(S'w'
I6
tp829
a(S'tr_tl'
I170
tp830
a(S'w'
I718
tp831
a(S'w'
I10
tp832
a(S'p2_tl'
I140
tp833
a(S'w'
I724
tp834
a(S'p1_tl'
I166
tp835
a(S'w'
I10
tp836
a(S'w'
I5
tp837
a(S'tr_tl'
I169
tp838
a(S'w'
I719
tp839
a(S'p1_tl'
I167
tp840
a(S'w'
I10
tp841
a(S'p2_tl'
I139
tp842
a(S'w'
I5
tp843
a(S'tr_tl'
I170
tp844
a(S'w'
I718
tp845
a(S'p1_tl'
I168
tp846
a(S'w'
I10
tp847
a(S'p2_tl'
I140
tp848
a(S'w'
I6
tp849
a(S'tr_tl'
I171
tp850
a(S'w'
I718
tp851
a(S'p1_tl'
I169
tp852
a(S'w'
I10
tp853
a(S'p2_tl'
I141
tp854
a(S'w'
I6
tp855
a(S'tr_tl'
I172
tp856
a(S'w'
I717
tp857
a(S'p1_du'
I0
tp858
a(S'p1_lh'
I0
tp859
a(S'p1_vo'
I0
tp860
a(S'p2_du'
I0
tp861
a(S'p2_lh'
I0
tp862
a(S'p2_vo'
I0
tp863
a(S'w'
I1
tp864
a(S'tr_lh'
I0
tp865
a(S'tr_lr'
I0
tp866
a.