(lp1
(S'clock'
p2
I1789772
tp3
a(S'ch_no'
I1
tp4
a(S'ch_tr'
I1
tp5
a(S'ch_p2'
I1
tp6
a(S'ch_p1'
I1
tp7
a(S'w'
I13
tp8
a(S'p1_cv'
I1
tp9
a(S'p2_cv'
I1
tp10
a(S'no_cv'
I1
tp11
a(S'w'
I38
tp12
a(S'p1_sp'
I7
tp13
a(S'p1_sn'
I1
tp14
a(S'p1_ss'
I7
tp15
a(S'p1_ll'
I0
tp16
a(S'w'
I14
tp17
a(S'p2_du'
I2
tp18
a(S'p2_lh'
I1
tp19
a(S'p2_sp'
I7
tp20
a(S'p2_sn'
I1
tp21
a(S'p2_ss'
I7
tp22
a(S'p2_tl'
I79
tp23
a(S'p2_ll'
I1
tp24
a(S'w'
I11
tp25
a(S'w'
I1
tp26
a(S'tr_ll'
I0
tp27
a(S'w'
I425
tp28
a(S'p2_vo'
I5
tp29
a(S'w'
I4
tp30
a(S'w'
I730
tp31
a(S'p2_vo'
I10
tp32
a(S'w'
I3
tp33
a(S'w'
I731
tp34
a(S'p2_vo'
I9
tp35
a(S'w'
I3
tp36
a(S'w'
I730
tp37
a(S'p2_vo'
I8
tp38
a(S'w'
I4
tp39
a(S'w'
I734
tp40
a(S'w'
I733
tp41
a(S'w'
I731
tp42
a(S'p2_vo'
I7
tp43
a(S'w'
I3
tp44
a(S'w'
I734
tp45
a(S'w'
I731
tp46
a(S'p2_vo'
I6
tp47
a(S'w'
I3
tp48
a(S'w'
I733
tp49
a(S'w'
I735
tp50
a(S'w'
I727
tp51
a(S'p1_du'
I2
tp52
a(S'p1_lh'
I1
tp53
a(S'w'
I1
tp54
a(S'p1_tl'
I159
tp55
a(S'p1_ll'
I1
tp56
a(S'w'
I7
tp57
a(S'p2_vo'
I0
tp58
a(S'w'
I1
tp59
a(S'p2_tl'
I94
tp60
a(S'p2_ll'
I1
tp61
a(S'w'
I9
tp62
a(S'tr_lh'
I1
tp63
a(S'tr_lr'
I127
tp64
a(S'tr_tl'
I118
tp65
a(S'w'
I1
tp66
a(S'tr_ll'
I1
tp67
a(S'w'
I716
tp68
a(S'p1_vo'
I2
tp69
a(S'w'
I4
tp70
a(S'w'
I6
tp71
a(S'p2_vo'
I5
tp72
a(S'w'
I3
tp73
a(S'w'
I720
tp74
a(S'p1_vo'
I3
tp75
a(S'w'
I4
tp76
a(S'w'
I5
tp77
a(S'p2_vo'
I10
tp78
a(S'w'
I3
tp79
a(S'w'
I722
tp80
a(S'p1_vo'
I4
tp81
a(S'w'
I4
tp82
a(S'w'
I6
tp83
a(S'p2_vo'
I9
tp84
a(S'w'
I3
tp85
a(S'w'
I724
tp86
a(S'w'
I6
tp87
a(S'p2_vo'
I8
tp88
a(S'w'
I3
tp89
a(S'w'
I722
tp90
a(S'p1_vo'
I3
tp91
a(S'w'
I3
tp92
a(S'w'
I9
tp93
a(S'w'
I724
tp94
a(S'w'
I9
tp95
a(S'w'
I726
tp96
a(S'w'
I6
tp97
a(S'p2_vo'
I7
tp98
a(S'w'
I3
tp99
a(S'w'
I724
tp100
a(S'w'
I9
tp101
a(S'w'
I725
tp102
a(S'w'
I6
tp103
a(S'p2_vo'
I6
tp104
a(S'w'
I4
tp105
a(S'w'
I724
tp106
a(S'w'
I9
tp107
a(S'w'
I725
tp108
a(S'w'
I9
tp109
a(S'w'
I721
tp110
a(S'p1_vo'
I0
tp111
a(S'p1_ll'
I1
tp112
a(S'w'
I8
tp113
a(S'p2_vo'
I0
tp114
a(S'p2_tl'
I118
tp115
a(S'p2_ll'
I1
tp116
a(S'w'
I726
tp117
a(S'p1_vo'
I2
tp118
a(S'w'
I4
tp119
a(S'w'
I6
tp120
a(S'p2_vo'
I5
tp121
a(S'w'
I3
tp122
a(S'w'
I721
tp123
a(S'p1_vo'
I3
tp124
a(S'w'
I3
tp125
a(S'w'
I5
tp126
a(S'p2_vo'
I10
tp127
a(S'w'
I4
tp128
a(S'w'
I722
tp129
a(S'p1_vo'
I4
tp130
a(S'w'
I3
tp131
a(S'w'
I6
tp132
a(S'p2_vo'
I9
tp133
a(S'w'
I3
tp134
a(S'w'
I724
tp135
a(S'w'
I6
tp136
a(S'p2_vo'
I8
tp137
a(S'w'
I3
tp138
a(S'w'
I6
tp139
a(S'tr_tl'
I119
tp140
a(S'w'
I716
tp141
a(S'p1_vo'
I3
tp142
a(S'w'
I4
tp143
a(S'w'
I9
tp144
a(S'w'
I6
tp145
a(S'tr_tl'
I118
tp146
a(S'w'
I718
tp147
a(S'w'
I9
tp148
a(S'w'
I725
tp149
a(S'w'
I6
tp150
a(S'p2_vo'
I7
tp151
a(S'w'
I4
tp152
a(S'w'
I724
tp153
a(S'w'
I9
tp154
a(S'w'
I725
tp155
a(S'w'
I6
tp156
a(S'p2_vo'
I6
tp157
a(S'w'
I3
tp158
a(S'w'
I6
tp159
a(S'tr_tl'
I117
tp160
a(S'w'
I718
tp161
a(S'w'
I9
tp162
a(S'w'
I6
tp163
a(S'tr_tl'
I118
tp164
a(S'w'
I720
tp165
a(S'w'
I9
tp166
a(S'w'
I719
tp167
a(S'p1_du'
I0
tp168
a(S'p1_lh'
I0
tp169
a(S'p1_vo'
I0
tp170
a(S'w'
I1
tp171
a(S'p1_ll'
I1
tp172
a(S'w'
I6
tp173
a(S'p2_du'
I0
tp174
a(S'p2_lh'
I0
tp175
a(S'p2_vo'
I0
tp176
a(S'w'
I1
tp177
a(S'p2_ll'
I1
tp178
a(S'w'
I1468
tp179
a(S'tr_tl'
I119
tp180
a(S'w'
I1467
tp181
a(S'tr_tl'
I118
tp182
a(S'w'
I2202
tp183
a(S'tr_tl'
I117
tp184
a(S'w'
I1468
tp185
a(S'tr_tl'
I118
tp186
a(S'w'
I1467
tp187
a(S'tr_tl'
I119
tp188
a(S'w'
I730
tp189
a(S'p1_ll'
I1
tp190
a(S'w'
I11
tp191
a(S'p2_du'
I2
tp192
a(S'p2_lh'
I1
tp193
a(S'p2_tl'
I79
tp194
a(S'p2_ll'
I1
tp195
a(S'w'
I723
tp196
a(S'p2_vo'
I5
tp197
a(S'w'
I3
tp198
a(S'w'
I6
tp199
a(S'tr_tl'
I120
tp200
a(S'w'
I724
tp201
a(S'p2_vo'
I10
tp202
a(S'w'
I3
tp203
a(S'w'
I6
tp204
a(S'tr_tl'
I119
tp205
a(S'w'
I725
tp206
a(S'p2_vo'
I9
tp207
a(S'w'
I4
tp208
a(S'w'
I5
tp209
a(S'tr_tl'
I118
tp210
a(S'w'
I725
tp211
a(S'p2_vo'
I8
tp212
a(S'w'
I3
tp213
a(S'w'
I6
tp214
a(S'tr_tl'
I117
tp215
a(S'w'
I728
tp216
a(S'w'
I733
tp217
a(S'w'
I6
tp218
a(S'tr_tl'
I116
tp219
a(S'w'
I725
tp220
a(S'p2_vo'
I7
tp221
a(S'w'
I4
tp222
a(S'w'
I5
tp223
a(S'tr_tl'
I117
tp224
a(S'w'
I728
tp225
a(S'w'
I6
tp226
a(S'tr_tl'
I118
tp227
a(S'w'
I725
tp228
a(S'p2_vo'
I6
tp229
a(S'w'
I3
tp230
a(S'w'
I6
tp231
a(S'tr_tl'
I119
tp232
a(S'w'
I728
tp233
a(S'w'
I734
tp234
a(S'w'
I5
tp235
a(S'tr_tl'
I120
tp236
a(S'w'
I722
tp237
a(S'p1_du'
I2
tp238
a(S'p1_lh'
I1
tp239
a(S'w'
I1
tp240
a(S'p1_ll'
I1
tp241
a(S'w'
I7
tp242
a(S'p2_vo'
I0
tp243
a(S'w'
I1
tp244
a(S'p2_tl'
I94
tp245
a(S'p2_ll'
I1
tp246
a(S'w'
I7
tp247
a(S'tr_tl'
I133
tp248
a(S'w'
I1
tp249
a(S'tr_ll'
I1
tp250
a(S'w'
I718
tp251
a(S'p1_vo'
I2
tp252
a(S'w'
I3
tp253
a(S'w'
I6
tp254
a(S'p2_vo'
I5
tp255
a(S'w'
I4
tp256
a(S'w'
I720
tp257
a(S'p1_vo'
I3
tp258
a(S'w'
I4
tp259
a(S'w'
I5
tp260
a(S'p2_vo'
I10
tp261
a(S'w'
I4
tp262
a(S'w'
I722
tp263
a(S'p1_vo'
I4
tp264
a(S'w'
I3
tp265
a(S'w'
I6
tp266
a(S'p2_vo'
I9
tp267
a(S'w'
I3
tp268
a(S'w'
I724
tp269
a(S'w'
I6
tp270
a(S'p2_vo'
I8
tp271
a(S'w'
I3
tp272
a(S'w'
I722
tp273
a(S'p1_vo'
I3
tp274
a(S'w'
I4
tp275
a(S'w'
I9
tp276
a(S'w'
I724
tp277
a(S'w'
I9
tp278
a(S'w'
I725
tp279
a(S'w'
I6
tp280
a(S'p2_vo'
I7
tp281
a(S'w'
I4
tp282
a(S'w'
I723
tp283
a(S'w'
I9
tp284
a(S'w'
I726
tp285
a(S'w'
I6
tp286
a(S'p2_vo'
I6
tp287
a(S'w'
I3
tp288
a(S'w'
I724
tp289
a(S'w'
I9
tp290
a(S'w'
I725
tp291
a(S'w'
I10
tp292
a(S'w'
I720
tp293
a(S'p1_vo'
I0
tp294
a(S'w'
I1
tp295
a(S'p1_ll'
I1
tp296
a(S'w'
I7
tp297
a(S'p2_vo'
I0
tp298
a(S'p2_tl'
I118
tp299
a(S'w'
I1
tp300
a(S'p2_ll'
I1
tp301
a(S'w'
I726
tp302
a(S'p1_vo'
I2
tp303
a(S'w'
I3
tp304
a(S'w'
I6
tp305
a(S'p2_vo'
I5
tp306
a(S'w'
I3
tp307
a(S'w'
I721
tp308
a(S'p1_vo'
I3
tp309
a(S'w'
I3
tp310
a(S'w'
I6
tp311
a(S'p2_vo'
I10
tp312
a(S'w'
I3
tp313
a(S'w'
I722
tp314
a(S'p1_vo'
I4
tp315
a(S'w'
I4
tp316
a(S'w'
I6
tp317
a(S'p2_vo'
I9
tp318
a(S'w'
I3
tp319
a(S'w'
I724
tp320
a(S'w'
I5
tp321
a(S'p2_vo'
I8
tp322
a(S'w'
I4
tp323
a(S'w'
I5
tp324
a(S'tr_tl'
I134
tp325
a(S'w'
I717
tp326
a(S'p1_vo'
I3
tp327
a(S'w'
I3
tp328
a(S'w'
I10
tp329
a(S'w'
I5
tp330
a(S'tr_tl'
I133
tp331
a(S'w'
I719
tp332
a(S'w'
I8
tp333
a(S'w'
I726
tp334
a(S'w'
I6
tp335
a(S'p2_vo'
I7
tp336
a(S'w'
I3
tp337
a(S'w'
I724
tp338
a(S'w'
I9
tp339
a(S'w'
I725
tp340
a(S'w'
I6
tp341
a(S'p2_vo'
I6
tp342
a(S'w'
I4
tp343
a(S'w'
I5
tp344
a(S'tr_tl'
I132
tp345
a(S'w'
I719
tp346
a(S'w'
I9
tp347
a(S'w'
I5
tp348
a(S'tr_tl'
I133
tp349
a(S'w'
I720
tp350
a(S'w'
I9
tp351
a(S'w'
I720
tp352
a(S'p1_du'
I0
tp353
a(S'p1_lh'
I0
tp354
a(S'p1_vo'
I0
tp355
a(S'p1_ll'
I1
tp356
a(S'w'
I7
tp357
a(S'p2_du'
I0
tp358
a(S'p2_lh'
I0
tp359
a(S'p2_vo'
I0
tp360
a(S'p2_ll'
I1
tp361
a(S'w'
I1468
tp362
a(S'tr_tl'
I134
tp363
a(S'w'
I1468
tp364
a(S'tr_tl'
I133
tp365
a(S'w'
I2201
tp366
a(S'tr_tl'
I132
tp367
a(S'w'
I1468
tp368
a(S'tr_tl'
I133
tp369
a(S'w'
I1468
tp370
a(S'tr_tl'
I134
tp371
a(S'w'
I729
tp372
a(S'p1_ll'
I1
tp373
a(S'w'
I11
tp374
a(S'p2_du'
I2
tp375
a(S'p2_lh'
I1
tp376
a(S'p2_tl'
I79
tp377
a(S'w'
I1
tp378
a(S'p2_ll'
I1
tp379
a(S'w'
I722
tp380
a(S'p2_vo'
I5
tp381
a(S'w'
I3
tp382
a(S'w'
I6
tp383
a(S'tr_tl'
I135
tp384
a(S'w'
I724
tp385
a(S'p2_vo'
I10
tp386
a(S'w'
I4
tp387
a(S'w'
I5
tp388
a(S'tr_tl'
I134
tp389
a(S'w'
I726
tp390
a(S'p2_vo'
I9
tp391
a(S'w'
I3
tp392
a(S'w'
I6
tp393
a(S'tr_tl'
I133
tp394
a(S'w'
I724
tp395
a(S'p2_vo'
I8
tp396
a(S'w'
I3
tp397
a(S'w'
I6
tp398
a(S'tr_tl'
I132
tp399
a(S'w'
I729
tp400
a(S'w'
I733
tp401
a(S'w'
I6
tp402
a(S'tr_tl'
I131
tp403
a(S'w'
I725
tp404
a(S'p2_vo'
I7
tp405
a(S'w'
I3
tp406
a(S'w'
I6
tp407
a(S'tr_tl'
I132
tp408
a(S'w'
I728
tp409
a(S'w'
I5
tp410
a(S'tr_tl'
I133
tp411
a(S'w'
I725
tp412
a(S'p2_vo'
I6
tp413
a(S'w'
I4
tp414
a(S'w'
I5
tp415
a(S'tr_tl'
I134
tp416
a(S'w'
I728
tp417
a(S'w'
I734
tp418
a(S'w'
I6
tp419
a(S'tr_tl'
I135
tp420
a(S'w'
I722
tp421
a(S'p1_du'
I2
tp422
a(S'p1_lh'
I1
tp423
a(S'w'
I1
tp424
a(S'p1_ll'
I1
tp425
a(S'w'
I7
tp426
a(S'p2_vo'
I0
tp427
a(S'p2_tl'
I94
tp428
a(S'w'
I1
tp429
a(S'p2_ll'
I1
tp430
a(S'w'
I9
tp431
a(S'tr_tl'
I141
tp432
a(S'tr_ll'
I1
tp433
a(S'w'
I717
tp434
a(S'p1_vo'
I2
tp435
a(S'w'
I3
tp436
a(S'w'
I6
tp437
a(S'p2_vo'
I5
tp438
a(S'w'
I3
tp439
a(S'w'
I721
tp440
a(S'p1_vo'
I3
tp441
a(S'w'
I3
tp442
a(S'w'
I6
tp443
a(S'p2_vo'
I10
tp444
a(S'w'
I3
tp445
a(S'w'
I722
tp446
a(S'p1_vo'
I4
tp447
a(S'w'
I3
tp448
a(S'w'
I6
tp449
a(S'p2_vo'
I9
tp450
a(S'w'
I4
tp451
a(S'w'
I724
tp452
a(S'w'
I5
tp453
a(S'p2_vo'
I8
tp454
a(S'w'
I4
tp455
a(S'w'
I722
tp456
a(S'p1_vo'
I3
tp457
a(S'w'
I3
tp458
a(S'w'
I9
tp459
a(S'w'
I724
tp460
a(S'w'
I9
tp461
a(S'w'
I726
tp462
a(S'w'
I6
tp463
a(S'p2_vo'
I7
tp464
a(S'w'
I3
tp465
a(S'w'
I724
tp466
a(S'w'
I9
tp467
a(S'w'
I725
tp468
a(S'w'
I6
tp469
a(S'p2_vo'
I6
tp470
a(S'w'
I4
tp471
a(S'w'
I724
tp472
a(S'w'
I9
tp473
a(S'w'
I725
tp474
a(S'w'
I9
tp475
a(S'w'
I720
tp476
a(S'p1_vo'
I0
tp477
a(S'w'
I1
tp478
a(S'p1_ll'
I1
tp479
a(S'w'
I7
tp480
a(S'p2_vo'
I0
tp481
a(S'w'
I1
tp482
a(S'p2_tl'
I118
tp483
a(S'p2_ll'
I1
tp484
a(S'w'
I726
tp485
a(S'p1_vo'
I2
tp486
a(S'w'
I4
tp487
a(S'w'
I6
tp488
a(S'p2_vo'
I5
tp489
a(S'w'
I3
tp490
a(S'w'
I721
tp491
a(S'p1_vo'
I3
tp492
a(S'w'
I3
tp493
a(S'w'
I5
tp494
a(S'p2_vo'
I10
tp495
a(S'w'
I4
tp496
a(S'w'
I722
tp497
a(S'p1_vo'
I4
tp498
a(S'w'
I3
tp499
a(S'w'
I6
tp500
a(S'p2_vo'
I9
tp501
a(S'w'
I3
tp502
a(S'w'
I724
tp503
a(S'w'
I6
tp504
a(S'p2_vo'
I8
tp505
a(S'w'
I3
tp506
a(S'w'
I6
tp507
a(S'tr_tl'
I142
tp508
a(S'w'
I716
tp509
a(S'p1_vo'
I3
tp510
a(S'w'
I4
tp511
a(S'w'
I9
tp512
a(S'w'
I6
tp513
a(S'tr_tl'
I141
tp514
a(S'w'
I718
tp515
a(S'w'
I9
tp516
a(S'w'
I725
tp517
a(S'w'
I6
tp518
a(S'p2_vo'
I7
tp519
a(S'w'
I4
tp520
a(S'w'
I724
tp521
a(S'w'
I9
tp522
a(S'w'
I725
tp523
a(S'w'
I6
tp524
a(S'p2_vo'
I6
tp525
a(S'w'
I3
tp526
a(S'w'
I6
tp527
a(S'tr_tl'
I140
tp528
a(S'w'
I718
tp529
a(S'w'
I9
tp530
a(S'w'
I6
tp531
a(S'tr_tl'
I141
tp532
a(S'w'
I720
tp533
a(S'w'
I9
tp534
a(S'w'
I719
tp535
a(S'p1_du'
I0
tp536
a(S'p1_lh'
I0
tp537
a(S'p1_vo'
I0
tp538
a(S'w'
I1
tp539
a(S'p1_ll'
I1
tp540
a(S'w'
I6
tp541
a(S'p2_du'
I0
tp542
a(S'p2_lh'
I0
tp543
a(S'p2_vo'
I0
tp544
a(S'w'
I1
tp545
a(S'p2_ll'
I1
tp546
a(S'w'
I8
tp547
a(S'tr_lh'
I0
tp548
a(S'tr_lr'
I0
tp549
a(S'w'
I1
tp550
a(S'tr_ll'
I1
tp551
a(S'w'
I8793
tp552
a(S'p1_du'
I2
tp553
a(S'p1_lh'
I1
tp554
a(S'p1_ll'
I1
tp555
a(S'w'
I10
tp556
a(S'p2_du'
I2
tp557
a(S'p2_lh'
I1
tp558
a(S'w'
I1
tp559
a(S'p2_ll'
I1
tp560
a(S'w'
I9
tp561
a(S'tr_lh'
I1
tp562
a(S'tr_lr'
I127
tp563
a(S'w'
I1
tp564
a(S'tr_tl'
I150
tp565
a(S'tr_ll'
I1
tp566
a(S'w'
I710
tp567
a(S'p1_vo'
I2
tp568
a(S'w'
I4
tp569
a(S'w'
I6
tp570
a(S'p2_vo'
I5
tp571
a(S'w'
I3
tp572
a(S'w'
I721
tp573
a(S'p1_vo'
I3
tp574
a(S'w'
I3
tp575
a(S'w'
I6
tp576
a(S'p2_vo'
I10
tp577
a(S'w'
I3
tp578
a(S'w'
I722
tp579
a(S'p1_vo'
I4
tp580
a(S'w'
I3
tp581
a(S'w'
I6
tp582
a(S'p2_vo'
I9
tp583
a(S'w'
I4
tp584
a(S'w'
I724
tp585
a(S'w'
I5
tp586
a(S'p2_vo'
I8
tp587
a(S'w'
I4
tp588
a(S'w'
I722
tp589
a(S'p1_vo'
I3
tp590
a(S'w'
I3
tp591
a(S'w'
I9
tp592
a(S'w'
I724
tp593
a(S'w'
I9
tp594
a(S'w'
I726
tp595
a(S'w'
I6
tp596
a(S'p2_vo'
I7
tp597
a(S'w'
I3
tp598
a(S'w'
I724
tp599
a(S'w'
I9
tp600
a(S'w'
I725
tp601
a(S'w'
I6
tp602
a(S'p2_vo'
I6
tp603
a(S'w'
I3
tp604
a(S'w'
I724
tp605
a(S'w'
I9
tp606
a(S'w'
I726
tp607
a(S'w'
I9
tp608
a(S'w'
I724
tp609
a(S'w'
I9
tp610
a(S'w'
I725
tp611
a(S'w'
I10
tp612
a(S'w'
I724
tp613
a(S'w'
I5
tp614
a(S'p2_vo'
I5
tp615
a(S'w'
I4
tp616
a(S'w'
I725
tp617
a(S'w'
I9
tp618
a(S'w'
I721
tp619
a(S'p1_vo'
I2
tp620
a(S'w'
I3
tp621
a(S'p1_tl'
I160
tp622
a(S'w'
I9
tp623
a(S'p2_tl'
I119
tp624
a(S'w'
I6
tp625
a(S'tr_tl'
I151
tp626
a(S'w'
I715
tp627
a(S'p1_vo'
I3
tp628
a(S'w'
I3
tp629
a(S'p1_tl'
I159
tp630
a(S'w'
I10
tp631
a(S'p2_tl'
I118
tp632
a(S'w'
I5
tp633
a(S'tr_tl'
I150
tp634
a(S'w'
I719
tp635
a(S'w'
I9
tp636
a(S'w'
I725
tp637
a(S'w'
I5
tp638
a(S'p2_vo'
I4
tp639
a(S'w'
I3
tp640
a(S'w'
I726
tp641
a(S'w'
I8
tp642
a(S'w'
I725
tp643
a(S'p1_tl'
I158
tp644
a(S'w'
I9
tp645
a(S'p2_tl'
I117
tp646
a(S'w'
I5
tp647
a(S'tr_tl'
I149
tp648
a(S'w'
I720
tp649
a(S'p1_tl'
I159
tp650
a(S'w'
I8
tp651
a(S'p2_tl'
I118
tp652
a(S'w'
I6
tp653
a(S'tr_tl'
I150
tp654
a(S'w'
I720
tp655
a(S'w'
I8
tp656
a(S'w'
I726
tp657
a(S'w'
I8
tp658
a(S'w'
I726
tp659
a(S'w'
I8
tp660
a(S'w'
I725
tp661
a(S'p1_tl'
I160
tp662
a(S'w'
I9
tp663
a(S'p2_tl'
I119
tp664
a(S'w'
I5
tp665
a(S'tr_tl'
I151
tp666
a(S'w'
I720
tp667
a(S'w'
I8
tp668
a(S'w'
I726
tp669
a(S'p1_tl'
I159
tp670
a(S'w'
I8
tp671
a(S'p2_tl'
I118
tp672
a(S'w'
I6
tp673
a(S'tr_tl'
I150
tp674
a(S'w'
I720
tp675
a(S'w'
I8
tp676
a(S'w'
I726
tp677
a(S'w'
I8
tp678
a(S'w'
I726
tp679
a(S'p1_tl'
I158
tp680
a(S'w'
I8
tp681
a(S'p2_tl'
I117
tp682
a(S'w'
I5
tp683
a(S'tr_tl'
I149
tp684
a(S'w'
I720
tp685
a(S'w'
I8
tp686
a(S'w'
I726
tp687
a(S'p1_tl'
I159
tp688
a(S'w'
I8
tp689
a(S'p2_tl'
I118
tp690
a(S'w'
I6
tp691
a(S'tr_tl'
I150
tp692
a(S'w'
I720
tp693
a(S'w'
I8
tp694
a(S'w'
I726
tp695
a(S'p1_tl'
I160
tp696
a(S'w'
I8
tp697
a(S'p2_tl'
I119
tp698
a(S'w'
I5
tp699
a(S'tr_tl'
I151
tp700
a(S'w'
I721
tp701
a(S'w'
I8
tp702
a(S'w'
I725
tp703
a(S'p1_tl'
I161
tp704
a(S'w'
I8
tp705
a(S'p2_tl'
I120
tp706
a(S'w'
I6
tp707
a(S'tr_tl'
I152
tp708
a(S'w'
I720
tp709
a(S'p1_tl'
I160
tp710
a(S'w'
I8
tp711
a(S'p2_tl'
I119
tp712
a(S'w'
I6
tp713
a(S'tr_tl'
I151
tp714
a(S'w'
I720
tp715
a(S'p1_tl'
I159
tp716
a(S'w'
I8
tp717
a(S'p2_tl'
I118
tp718
a(S'w'
I6
tp719
a(S'tr_tl'
I150
tp720
a(S'w'
I720
tp721
a(S'p1_tl'
I158
tp722
a(S'w'
I8
tp723
a(S'p2_tl'
I117
tp724
a(S'w'
I6
tp725
a(S'tr_tl'
I149
tp726
a(S'w'
I719
tp727
a(S'w'
I9
tp728
a(S'w'
I725
tp729
a(S'p1_tl'
I157
tp730
a(S'w'
I9
tp731
a(S'p2_tl'
I116
tp732
a(S'w'
I5
tp733
a(S'tr_tl'
I148
tp734
a(S'w'
I720
tp735
a(S'p1_tl'
I158
tp736
a(S'w'
I8
tp737
a(S'p2_tl'
I117
tp738
a(S'w'
I6
tp739
a(S'tr_tl'
I149
tp740
a(S'w'
I720
tp741
a(S'p1_tl'
I159
tp742
a(S'w'
I8
tp743
a(S'p2_tl'
I118
tp744
a(S'w'
I6
tp745
a(S'tr_tl'
I150
tp746
a(S'w'
I720
tp747
a(S'p1_tl'
I160
tp748
a(S'w'
I8
tp749
a(S'p2_tl'
I119
tp750
a(S'w'
I6
tp751
a(S'tr_tl'
I151
tp752
a(S'w'
I720
tp753
a(S'w'
I8
tp754
a(S'w'
I725
tp755
a(S'p1_tl'
I161
tp756
a(S'w'
I8
tp757
a(S'p2_tl'
I120
tp758
a(S'w'
I6
tp759
a(S'tr_tl'
I152
tp760
a(S'w'
I720
tp761
a(S'p1_tl'
I160
tp762
a(S'w'
I8
tp763
a(S'p2_tl'
I119
tp764
a(S'w'
I6
tp765
a(S'tr_tl'
I151
tp766
a(S'w'
I720
tp767
a(S'p1_tl'
I159
tp768
a(S'w'
I8
tp769
a(S'p2_tl'
I118
tp770
a(S'w'
I6
tp771
a(S'tr_tl'
I150
tp772
a(S'w'
I720
tp773
a(S'p1_tl'
I158
tp774
a(S'w'
I8
tp775
a(S'p2_tl'
I117
tp776
a(S'w'
I6
tp777
a(S'tr_tl'
I149
tp778
a(S'w'
I719
tp779
a(S'w'
I9
tp780
a(S'w'
I725
tp781
a(S'p1_tl'
I157
tp782
a(S'w'
I9
tp783
a(S'p2_tl'
I116
tp784
a(S'w'
I5
tp785
a(S'tr_tl'
I148
tp786
a(S'w'
I720
tp787
a(S'p1_tl'
I158
tp788
a(S'w'
I8
tp789
a(S'p2_tl'
I117
tp790
a(S'w'
I6
tp791
a(S'tr_tl'
I149
tp792
a(S'w'
I720
tp793
a(S'p1_tl'
I159
tp794
a(S'w'
I8
tp795
a(S'p2_tl'
I118
tp796
a(S'w'
I6
tp797
a(S'tr_tl'
I150
tp798
a(S'w'
I720
tp799
a(S'p1_tl'
I160
tp800
a(S'w'
I8
tp801
a(S'p2_tl'
I119
tp802
a(S'w'
I6
tp803
a(S'tr_tl'
I151
tp804
a(S'w'
I719
tp805
a(S'w'
I9
tp806
a(S'w'
I725
tp807
a(S'p1_tl'
I161
tp808
a(S'w'
I9
tp809
a(S'p2_tl'
I120
tp810
a(S'w'
I5
tp811
a(S'tr_tl'
I152
tp812
a(S'w'
I720
tp813
a(S'p1_tl'
I160
tp814
a(S'w'
I8
tp815
a(S'p2_tl'
I119
tp816
a(S'w'
I6
tp817
a(S'tr_tl'
I151
tp818
a(S'w'
I720
tp819
a(S'p1_tl'
I159
tp820
a(S'w'
I8
tp821
a(S'p2_tl'
I118
tp822
a(S'w'
I6
tp823
a(S'tr_tl'
I150
tp824
a(S'w'
I720
tp825
a(S'p1_tl'
I158
tp826
a(S'w'
I8
tp827
a(S'p2_tl'
I117
tp828
a(S'w'
I6
tp829
a(S'tr_tl'
I149
tp830
a(S'w'
I720
tp831
a(S'w'
I8
tp832
a(S'w'
I725
tp833
a(S'p1_tl'
I157
tp834
a(S'w'
I8
tp835
a(S'p2_tl'
I116
tp836
a(S'w'
I6
tp837
a(S'tr_tl'
I148
tp838
a(S'w'
I720
tp839
a(S'p1_tl'
I158
tp840
a(S'w'
I8
tp841
a(S'p2_tl'
I117
tp842
a(S'w'
I6
tp843
a(S'tr_tl'
I149
tp844
a(S'w'
I720
tp845
a(S'p1_tl'
I159
tp846
a(S'w'
I8
tp847
a(S'p2_tl'
I118
tp848
a(S'w'
I6
tp849
a(S'tr_tl'
I150
tp850
a(S'w'
I720
tp851
a(S'p1_tl'
I160
tp852
a(S'w'
I8
tp853
a(S'p2_tl'
I119
tp854
a(S'w'
I6
tp855
a(S'tr_tl'
I151
tp856
a(S'w'
I720
tp857
a(S'w'
I8
tp858
a(S'w'
I725
tp859
a(S'p1_tl'
I161
tp860
a(S'w'
I9
tp861
a(S'p2_tl'
I120
tp862
a(S'w'
I5
tp863
a(S'tr_tl'
I152
tp864
a(S'w'
I720
tp865
a(S'p1_tl'
I160
tp866
a(S'w'
I8
tp867
a(S'p2_tl'
I119
tp868
a(S'w'
I6
tp869
a(S'tr_tl'
I151
tp870
a(S'w'
I720
tp871
a(S'p1_tl'
I159
tp872
a(S'w'
I8
tp873
a(S'p2_tl'
I118
tp874
a(S'w'
I6
tp875
a(S'tr_tl'
I150
tp876
a(S'w'
I720
tp877
a(S'p1_tl'
I158
tp878
a(S'w'
I8
tp879
a(S'p2_tl'
I117
tp880
a(S'w'
I6
tp881
a(S'tr_tl'
I149
tp882
a(S'w'
I720
tp883
a(S'w'
I8
tp884
a(S'w'
I724
tp885
a(S'p1_du'
I0
tp886
a(S'p1_lh'
I0
tp887
a(S'p1_vo'
I0
tp888
a(S'p2_du'
I0
tp889
a(S'p2_lh'
I0
tp890
a(S'p2_vo'
I0
tp891
a(S'tr_lh'
I0
tp892
a(S'tr_lr'
I0
tp893
a.