(lp1
(S'clock'
p2
I1789772
tp3
a(S'ch_no'
I1
tp4
a(S'ch_tr'
I1
tp5
a(S'ch_p2'
I1
tp6
a(S'ch_p1'
I1
tp7
a(S'w'
I13
tp8
a(S'p1_cv'
I1
tp9
a(S'p2_cv'
I1
tp10
a(S'no_cv'
I1
tp11
a(S'w'
I37
tp12
a(S'p1_du'
I3
tp13
a(S'p1_lh'
I1
tp14
a(S'p1_sp'
I7
tp15
a(S'p1_sn'
I1
tp16
a(S'p1_ss'
I7
tp17
a(S'p1_tl'
I41
tp18
a(S'p1_ll'
I1
tp19
a(S'w'
I12
tp20
a(S'p2_du'
I3
tp21
a(S'p2_lh'
I1
tp22
a(S'p2_sp'
I7
tp23
a(S'p2_sn'
I1
tp24
a(S'p2_ss'
I7
tp25
a(S'p2_tl'
I46
tp26
a(S'p2_ll'
I1
tp27
a(S'w'
I443
tp28
a(S'p1_vo'
I1
tp29
a(S'w'
I4
tp30
a(S'w'
I13
tp31
a(S'p2_vo'
I1
tp32
a(S'w'
I3
tp33
a(S'w'
I717
tp34
a(S'p1_tl'
I42
tp35
a(S'w'
I16
tp36
a(S'p2_tl'
I47
tp37
a(S'w'
I718
tp38
a(S'w'
I17
tp39
a(S'w'
I717
tp40
a(S'p1_tl'
I43
tp41
a(S'w'
I16
tp42
a(S'p2_tl'
I48
tp43
a(S'w'
I715
tp44
a(S'p1_vo'
I2
tp45
a(S'w'
I3
tp46
a(S'p1_tl'
I42
tp47
a(S'w'
I13
tp48
a(S'p2_vo'
I2
tp49
a(S'w'
I4
tp50
a(S'p2_tl'
I47
tp51
a(S'w'
I716
tp52
a(S'p1_tl'
I41
tp53
a(S'w'
I16
tp54
a(S'p2_tl'
I46
tp55
a(S'w'
I719
tp56
a(S'p1_tl'
I40
tp57
a(S'w'
I16
tp58
a(S'p2_tl'
I45
tp59
a(S'w'
I717
tp60
a(S'w'
I16
tp61
a(S'w'
I715
tp62
a(S'p1_vo'
I3
tp63
a(S'w'
I3
tp64
a(S'p1_tl'
I39
tp65
a(S'w'
I14
tp66
a(S'p2_vo'
I3
tp67
a(S'w'
I3
tp68
a(S'p2_tl'
I44
tp69
a(S'w'
I717
tp70
a(S'p1_tl'
I40
tp71
a(S'w'
I16
tp72
a(S'p2_tl'
I45
tp73
a(S'w'
I718
tp74
a(S'p1_tl'
I41
tp75
a(S'w'
I16
tp76
a(S'p2_tl'
I46
tp77
a(S'w'
I717
tp78
a(S'p1_tl'
I42
tp79
a(S'w'
I16
tp80
a(S'p2_tl'
I47
tp81
a(S'w'
I715
tp82
a(S'p1_vo'
I4
tp83
a(S'w'
I4
tp84
a(S'w'
I13
tp85
a(S'p2_vo'
I4
tp86
a(S'w'
I3
tp87
a(S'w'
I717
tp88
a(S'p1_tl'
I43
tp89
a(S'w'
I16
tp90
a(S'p2_tl'
I48
tp91
a(S'w'
I718
tp92
a(S'p1_tl'
I42
tp93
a(S'w'
I17
tp94
a(S'p2_tl'
I47
tp95
a(S'w'
I717
tp96
a(S'p1_tl'
I41
tp97
a(S'w'
I16
tp98
a(S'p2_tl'
I46
tp99
a(S'w'
I717
tp100
a(S'p1_tl'
I40
tp101
a(S'w'
I17
tp102
a(S'p2_tl'
I45
tp103
a(S'w'
I717
tp104
a(S'w'
I16
tp105
a(S'w'
I719
tp106
a(S'p1_tl'
I39
tp107
a(S'w'
I16
tp108
a(S'p2_tl'
I44
tp109
a(S'w'
I713
tp110
a(S'p1_vo'
I5
tp111
a(S'w'
I4
tp112
a(S'p1_tl'
I40
tp113
a(S'w'
I12
tp114
a(S'p2_vo'
I5
tp115
a(S'w'
I4
tp116
a(S'p2_tl'
I45
tp117
a(S'w'
I718
tp118
a(S'p1_tl'
I41
tp119
a(S'w'
I16
tp120
a(S'p2_tl'
I46
tp121
a(S'w'
I717
tp122
a(S'p1_tl'
I42
tp123
a(S'w'
I17
tp124
a(S'p2_tl'
I47
tp125
a(S'w'
I717
tp126
a(S'w'
I17
tp127
a(S'w'
I716
tp128
a(S'p1_tl'
I43
tp129
a(S'w'
I17
tp130
a(S'p2_tl'
I48
tp131
a(S'w'
I718
tp132
a(S'p1_tl'
I42
tp133
a(S'w'
I16
tp134
a(S'p2_tl'
I47
tp135
a(S'w'
I717
tp136
a(S'p1_tl'
I41
tp137
a(S'w'
I16
tp138
a(S'p2_tl'
I46
tp139
a(S'w'
I715
tp140
a(S'p1_vo'
I6
tp141
a(S'w'
I3
tp142
a(S'p1_tl'
I40
tp143
a(S'w'
I14
tp144
a(S'p2_vo'
I6
tp145
a(S'w'
I3
tp146
a(S'p2_tl'
I45
tp147
a(S'w'
I717
tp148
a(S'w'
I16
tp149
a(S'w'
I718
tp150
a(S'p1_tl'
I39
tp151
a(S'w'
I17
tp152
a(S'p2_tl'
I44
tp153
a(S'w'
I716
tp154
a(S'p1_tl'
I40
tp155
a(S'w'
I17
tp156
a(S'p2_tl'
I45
tp157
a(S'w'
I714
tp158
a(S'p1_vo'
I7
tp159
a(S'w'
I4
tp160
a(S'p1_tl'
I41
tp161
a(S'w'
I13
tp162
a(S'p2_vo'
I7
tp163
a(S'w'
I3
tp164
a(S'p2_tl'
I46
tp165
a(S'w'
I717
tp166
a(S'p1_tl'
I42
tp167
a(S'w'
I16
tp168
a(S'p2_tl'
I47
tp169
a(S'w'
I718
tp170
a(S'w'
I17
tp171
a(S'w'
I713
tp172
a(S'p1_vo'
I8
tp173
a(S'w'
I4
tp174
a(S'p1_tl'
I43
tp175
a(S'w'
I12
tp176
a(S'p2_vo'
I8
tp177
a(S'w'
I4
tp178
a(S'p2_tl'
I48
tp179
a(S'w'
I718
tp180
a(S'p1_tl'
I42
tp181
a(S'w'
I16
tp182
a(S'p2_tl'
I47
tp183
a(S'w'
I717
tp184
a(S'p1_tl'
I41
tp185
a(S'w'
I16
tp186
a(S'p2_tl'
I46
tp187
a(S'w'
I715
tp188
a(S'p1_vo'
I7
tp189
a(S'w'
I3
tp190
a(S'p1_tl'
I40
tp191
a(S'w'
I14
tp192
a(S'p2_vo'
I7
tp193
a(S'w'
I3
tp194
a(S'p2_tl'
I45
tp195
a(S'w'
I713
tp196
a(S'p1_vo'
I6
tp197
a(S'w'
I4
tp198
a(S'w'
I13
tp199
a(S'p2_vo'
I6
tp200
a(S'w'
I3
tp201
a(S'w'
I715
tp202
a(S'p1_vo'
I5
tp203
a(S'w'
I3
tp204
a(S'p1_tl'
I39
tp205
a(S'w'
I13
tp206
a(S'p2_vo'
I5
tp207
a(S'w'
I4
tp208
a(S'p2_tl'
I44
tp209
a(S'w'
I713
tp210
a(S'p1_vo'
I4
tp211
a(S'w'
I3
tp212
a(S'p1_tl'
I40
tp213
a(S'w'
I13
tp214
a(S'p2_vo'
I4
tp215
a(S'w'
I4
tp216
a(S'p2_tl'
I45
tp217
a(S'w'
I714
tp218
a(S'p1_vo'
I3
tp219
a(S'w'
I4
tp220
a(S'p1_tl'
I41
tp221
a(S'w'
I13
tp222
a(S'p2_vo'
I3
tp223
a(S'w'
I3
tp224
a(S'p2_tl'
I46
tp225
a(S'w'
I714
tp226
a(S'p1_vo'
I2
tp227
a(S'w'
I3
tp228
a(S'p1_tl'
I42
tp229
a(S'w'
I13
tp230
a(S'p2_vo'
I2
tp231
a(S'w'
I3
tp232
a(S'p2_tl'
I47
tp233
a(S'w'
I714
tp234
a(S'p1_vo'
I1
tp235
a(S'w'
I3
tp236
a(S'w'
I12
tp237
a(S'p2_vo'
I1
tp238
a(S'w'
I3
tp239
a(S'w'
I719
tp240
a(S'p1_tl'
I43
tp241
a(S'w'
I15
tp242
a(S'p2_tl'
I48
tp243
a(S'w'
I719
tp244
a(S'p1_tl'
I42
tp245
a(S'w'
I15
tp246
a(S'p2_tl'
I47
tp247
a(S'w'
I718
tp248
a(S'p1_tl'
I41
tp249
a(S'w'
I16
tp250
a(S'p2_tl'
I46
tp251
a(S'w'
I718
tp252
a(S'p1_tl'
I40
tp253
a(S'w'
I16
tp254
a(S'p2_tl'
I45
tp255
a(S'w'
I718
tp256
a(S'w'
I15
tp257
a(S'w'
I719
tp258
a(S'p1_tl'
I39
tp259
a(S'w'
I15
tp260
a(S'p2_tl'
I44
tp261
a(S'w'
I719
tp262
a(S'p1_tl'
I40
tp263
a(S'w'
I15
tp264
a(S'p2_tl'
I45
tp265
a(S'w'
I718
tp266
a(S'p1_tl'
I41
tp267
a(S'w'
I16
tp268
a(S'p2_tl'
I46
tp269
a(S'w'
I718
tp270
a(S'p1_tl'
I42
tp271
a(S'w'
I16
tp272
a(S'p2_tl'
I47
tp273
a(S'w'
I718
tp274
a(S'w'
I15
tp275
a(S'w'
I719
tp276
a(S'p1_tl'
I43
tp277
a(S'w'
I15
tp278
a(S'p2_tl'
I48
tp279
a(S'w'
I719
tp280
a(S'p1_tl'
I42
tp281
a(S'w'
I15
tp282
a(S'p2_tl'
I47
tp283
a(S'w'
I718
tp284
a(S'p1_tl'
I41
tp285
a(S'w'
I16
tp286
a(S'p2_tl'
I46
tp287
a(S'w'
I718
tp288
a(S'p1_tl'
I40
tp289
a(S'w'
I16
tp290
a(S'p2_tl'
I45
tp291
a(S'w'
I718
tp292
a(S'w'
I15
tp293
a(S'w'
I719
tp294
a(S'p1_tl'
I39
tp295
a(S'w'
I15
tp296
a(S'p2_tl'
I44
tp297
a(S'w'
I719
tp298
a(S'p1_tl'
I40
tp299
a(S'w'
I15
tp300
a(S'p2_tl'
I45
tp301
a(S'w'
I718
tp302
a(S'p1_tl'
I41
tp303
a(S'w'
I16
tp304
a(S'p2_tl'
I46
tp305
a(S'w'
I718
tp306
a(S'p1_tl'
I42
tp307
a(S'w'
I16
tp308
a(S'p2_tl'
I47
tp309
a(S'w'
I718
tp310
a(S'w'
I15
tp311
a(S'w'
I719
tp312
a(S'p1_tl'
I43
tp313
a(S'w'
I15
tp314
a(S'p2_tl'
I48
tp315
a(S'w'
I719
tp316
a(S'p1_tl'
I42
tp317
a(S'w'
I15
tp318
a(S'p2_tl'
I47
tp319
a(S'w'
I718
tp320
a(S'p1_tl'
I41
tp321
a(S'w'
I16
tp322
a(S'p2_tl'
I46
tp323
a(S'w'
I718
tp324
a(S'p1_tl'
I40
tp325
a(S'w'
I16
tp326
a(S'p2_tl'
I45
tp327
a(S'w'
I718
tp328
a(S'w'
I15
tp329
a(S'w'
I719
tp330
a(S'p1_tl'
I39
tp331
a(S'w'
I15
tp332
a(S'p2_tl'
I44
tp333
a(S'w'
I719
tp334
a(S'p1_tl'
I40
tp335
a(S'w'
I15
tp336
a(S'p2_tl'
I45
tp337
a(S'w'
I718
tp338
a(S'p1_tl'
I41
tp339
a(S'w'
I16
tp340
a(S'p2_tl'
I46
tp341
a(S'w'
I718
tp342
a(S'p1_tl'
I42
tp343
a(S'w'
I16
tp344
a(S'p2_tl'
I47
tp345
a(S'w'
I718
tp346
a(S'w'
I15
tp347
a(S'w'
I719
tp348
a(S'p1_tl'
I43
tp349
a(S'w'
I15
tp350
a(S'p2_tl'
I48
tp351
a(S'w'
I719
tp352
a(S'p1_tl'
I42
tp353
a(S'w'
I15
tp354
a(S'p2_tl'
I47
tp355
a(S'w'
I718
tp356
a(S'p1_tl'
I41
tp357
a(S'w'
I16
tp358
a(S'p2_tl'
I46
tp359
a(S'w'
I718
tp360
a(S'p1_tl'
I40
tp361
a(S'w'
I16
tp362
a(S'p2_tl'
I45
tp363
a(S'w'
I718
tp364
a(S'w'
I15
tp365
a(S'w'
I719
tp366
a(S'p1_tl'
I39
tp367
a(S'w'
I15
tp368
a(S'p2_tl'
I44
tp369
a(S'w'
I719
tp370
a(S'p1_tl'
I40
tp371
a(S'w'
I15
tp372
a(S'p2_tl'
I45
tp373
a(S'w'
I718
tp374
a(S'p1_tl'
I41
tp375
a(S'w'
I16
tp376
a(S'p2_tl'
I46
tp377
a(S'w'
I718
tp378
a(S'p1_tl'
I42
tp379
a(S'w'
I16
tp380
a(S'p2_tl'
I47
tp381
a(S'w'
I718
tp382
a(S'w'
I15
tp383
a(S'w'
I719
tp384
a(S'p1_tl'
I43
tp385
a(S'w'
I15
tp386
a(S'p2_tl'
I48
tp387
a(S'w'
I719
tp388
a(S'p1_tl'
I42
tp389
a(S'w'
I15
tp390
a(S'p2_tl'
I47
tp391
a(S'w'
I718
tp392
a(S'p1_tl'
I41
tp393
a(S'w'
I16
tp394
a(S'p2_tl'
I46
tp395
a(S'w'
I718
tp396
a(S'p1_tl'
I40
tp397
a(S'w'
I16
tp398
a(S'p2_tl'
I45
tp399
a(S'w'
I718
tp400
a(S'w'
I15
tp401
a(S'w'
I719
tp402
a(S'p1_tl'
I39
tp403
a(S'w'
I15
tp404
a(S'p2_tl'
I44
tp405
a(S'w'
I719
tp406
a(S'p1_tl'
I40
tp407
a(S'w'
I15
tp408
a(S'p2_tl'
I45
tp409
a(S'w'
I718
tp410
a(S'p1_tl'
I41
tp411
a(S'w'
I16
tp412
a(S'p2_tl'
I46
tp413
a(S'w'
I718
tp414
a(S'p1_tl'
I42
tp415
a(S'w'
I16
tp416
a(S'p2_tl'
I47
tp417
a(S'w'
I718
tp418
a(S'w'
I15
tp419
a(S'w'
I719
tp420
a(S'p1_tl'
I43
tp421
a(S'w'
I15
tp422
a(S'p2_tl'
I48
tp423
a(S'w'
I719
tp424
a(S'p1_tl'
I42
tp425
a(S'w'
I15
tp426
a(S'p2_tl'
I47
tp427
a(S'w'
I718
tp428
a(S'p1_tl'
I41
tp429
a(S'w'
I16
tp430
a(S'p2_tl'
I46
tp431
a(S'w'
I718
tp432
a(S'p1_tl'
I40
tp433
a(S'w'
I16
tp434
a(S'p2_tl'
I45
tp435
a(S'w'
I718
tp436
a(S'w'
I15
tp437
a(S'w'
I719
tp438
a(S'p1_tl'
I39
tp439
a(S'w'
I15
tp440
a(S'p2_tl'
I44
tp441
a(S'w'
I719
tp442
a(S'p1_tl'
I40
tp443
a(S'w'
I15
tp444
a(S'p2_tl'
I45
tp445
a(S'w'
I718
tp446
a(S'p1_tl'
I41
tp447
a(S'w'
I16
tp448
a(S'p2_tl'
I46
tp449
a(S'w'
I718
tp450
a(S'p1_tl'
I42
tp451
a(S'w'
I16
tp452
a(S'p2_tl'
I47
tp453
a(S'w'
I718
tp454
a(S'w'
I16
tp455
a(S'w'
I718
tp456
a(S'p1_tl'
I43
tp457
a(S'w'
I15
tp458
a(S'p2_tl'
I48
tp459
a(S'w'
I719
tp460
a(S'p1_tl'
I42
tp461
a(S'w'
I15
tp462
a(S'p2_tl'
I47
tp463
a(S'w'
I718
tp464
a(S'p1_tl'
I41
tp465
a(S'w'
I16
tp466
a(S'p2_tl'
I46
tp467
a(S'w'
I718
tp468
a(S'p1_tl'
I40
tp469
a(S'w'
I16
tp470
a(S'p2_tl'
I45
tp471
a(S'w'
I721
tp472
a.