(lp1
(S'clock'
p2
I1789772
tp3
a(S'ch_no'
I1
tp4
a(S'ch_tr'
I1
tp5
a(S'ch_p2'
I1
tp6
a(S'ch_p1'
I1
tp7
a(S'w'
I13
tp8
a(S'p1_cv'
I1
tp9
a(S'p2_cv'
I1
tp10
a(S'no_cv'
I1
tp11
a(S'w'
I1
tp12
a(S'w'
I36
tp13
a(S'p1_du'
I2
tp14
a(S'p1_lh'
I1
tp15
a(S'p1_sp'
I7
tp16
a(S'p1_sn'
I1
tp17
a(S'p1_ss'
I7
tp18
a(S'p1_tl'
I159
tp19
a(S'w'
I1
tp20
a(S'p1_ll'
I1
tp21
a(S'w'
I11
tp22
a(S'p2_du'
I2
tp23
a(S'p2_lh'
I1
tp24
a(S'p2_sp'
I7
tp25
a(S'p2_sn'
I1
tp26
a(S'p2_ss'
I7
tp27
a(S'w'
I1
tp28
a(S'p2_tl'
I94
tp29
a(S'p2_ll'
I1
tp30
a(S'w'
I12
tp31
a(S'tr_lh'
I1
tp32
a(S'tr_lr'
I127
tp33
a(S'tr_tl'
I118
tp34
a(S'tr_ll'
I1
tp35
a(S'w'
I426
tp36
a(S'p1_vo'
I2
tp37
a(S'w'
I3
tp38
a(S'w'
I6
tp39
a(S'p2_vo'
I5
tp40
a(S'w'
I3
tp41
a(S'w'
I721
tp42
a(S'p1_vo'
I3
tp43
a(S'w'
I3
tp44
a(S'w'
I6
tp45
a(S'p2_vo'
I10
tp46
a(S'w'
I3
tp47
a(S'w'
I722
tp48
a(S'p1_vo'
I4
tp49
a(S'w'
I4
tp50
a(S'w'
I6
tp51
a(S'p2_vo'
I9
tp52
a(S'w'
I3
tp53
a(S'w'
I724
tp54
a(S'w'
I5
tp55
a(S'p2_vo'
I8
tp56
a(S'w'
I4
tp57
a(S'w'
I722
tp58
a(S'p1_vo'
I3
tp59
a(S'w'
I3
tp60
a(S'w'
I9
tp61
a(S'w'
I724
tp62
a(S'w'
I9
tp63
a(S'w'
I726
tp64
a(S'w'
I6
tp65
a(S'p2_vo'
I7
tp66
a(S'w'
I3
tp67
a(S'w'
I724
tp68
a(S'w'
I9
tp69
a(S'w'
I725
tp70
a(S'w'
I6
tp71
a(S'p2_vo'
I6
tp72
a(S'w'
I4
tp73
a(S'w'
I724
tp74
a(S'w'
I8
tp75
a(S'w'
I726
tp76
a(S'w'
I9
tp77
a(S'w'
I724
tp78
a(S'w'
I9
tp79
a(S'w'
I725
tp80
a(S'w'
I10
tp81
a(S'w'
I724
tp82
a(S'w'
I5
tp83
a(S'p2_vo'
I5
tp84
a(S'w'
I4
tp85
a(S'w'
I725
tp86
a(S'w'
I9
tp87
a(S'w'
I721
tp88
a(S'p1_vo'
I2
tp89
a(S'w'
I3
tp90
a(S'p1_tl'
I160
tp91
a(S'w'
I9
tp92
a(S'p2_tl'
I95
tp93
a(S'w'
I6
tp94
a(S'tr_tl'
I119
tp95
a(S'w'
I715
tp96
a(S'p1_vo'
I3
tp97
a(S'w'
I3
tp98
a(S'p1_tl'
I159
tp99
a(S'w'
I10
tp100
a(S'p2_tl'
I94
tp101
a(S'w'
I5
tp102
a(S'tr_tl'
I118
tp103
a(S'w'
I716
tp104
a(S'p1_vo'
I0
tp105
a(S'w'
I1
tp106
a(S'p1_tl'
I189
tp107
a(S'w'
I7
tp108
a(S'p2_vo'
I0
tp109
a(S'w'
I1
tp110
a(S'p2_tl'
I159
tp111
a(S'w'
I726
tp112
a(S'p1_vo'
I2
tp113
a(S'w'
I3
tp114
a(S'w'
I6
tp115
a(S'p2_vo'
I5
tp116
a(S'w'
I4
tp117
a(S'w'
I720
tp118
a(S'p1_vo'
I3
tp119
a(S'w'
I4
tp120
a(S'w'
I5
tp121
a(S'p2_vo'
I10
tp122
a(S'w'
I3
tp123
a(S'w'
I722
tp124
a(S'p1_vo'
I4
tp125
a(S'w'
I4
tp126
a(S'w'
I6
tp127
a(S'p2_vo'
I9
tp128
a(S'w'
I3
tp129
a(S'w'
I6
tp130
a(S'tr_tl'
I117
tp131
a(S'w'
I718
tp132
a(S'w'
I6
tp133
a(S'p2_vo'
I8
tp134
a(S'w'
I3
tp135
a(S'w'
I6
tp136
a(S'tr_tl'
I118
tp137
a(S'w'
I716
tp138
a(S'p1_vo'
I3
tp139
a(S'w'
I3
tp140
a(S'w'
I10
tp141
a(S'w'
I724
tp142
a(S'w'
I9
tp143
a(S'w'
I725
tp144
a(S'w'
I6
tp145
a(S'p2_vo'
I7
tp146
a(S'w'
I3
tp147
a(S'w'
I724
tp148
a(S'w'
I9
tp149
a(S'w'
I6
tp150
a(S'tr_tl'
I119
tp151
a(S'w'
I720
tp152
a(S'w'
I6
tp153
a(S'p2_vo'
I6
tp154
a(S'w'
I3
tp155
a(S'w'
I724
tp156
a(S'w'
I9
tp157
a(S'w'
I6
tp158
a(S'tr_tl'
I118
tp159
a(S'w'
I719
tp160
a(S'w'
I10
tp161
a(S'w'
I723
tp162
a(S'w'
I9
tp163
a(S'w'
I726
tp164
a(S'w'
I9
tp165
a(S'w'
I6
tp166
a(S'tr_tl'
I117
tp167
a(S'w'
I718
tp168
a(S'w'
I6
tp169
a(S'p2_vo'
I5
tp170
a(S'w'
I3
tp171
a(S'w'
I725
tp172
a(S'w'
I10
tp173
a(S'w'
I6
tp174
a(S'tr_tl'
I118
tp175
a(S'w'
I714
tp176
a(S'p1_vo'
I2
tp177
a(S'w'
I4
tp178
a(S'p1_tl'
I190
tp179
a(S'w'
I9
tp180
a(S'p2_tl'
I160
tp181
a(S'w'
I720
tp182
a(S'p1_vo'
I3
tp183
a(S'w'
I4
tp184
a(S'p1_tl'
I189
tp185
a(S'w'
I9
tp186
a(S'p2_tl'
I159
tp187
a(S'w'
I6
tp188
a(S'tr_tl'
I119
tp189
a(S'w'
I716
tp190
a(S'p1_vo'
I0
tp191
a(S'p1_tl'
I159
tp192
a(S'w'
I8
tp193
a(S'p2_vo'
I0
tp194
a(S'p2_tl'
I118
tp195
a(S'w'
I726
tp196
a(S'p1_vo'
I2
tp197
a(S'w'
I4
tp198
a(S'w'
I6
tp199
a(S'p2_vo'
I5
tp200
a(S'w'
I3
tp201
a(S'w'
I6
tp202
a(S'tr_tl'
I120
tp203
a(S'w'
I715
tp204
a(S'p1_vo'
I3
tp205
a(S'w'
I3
tp206
a(S'w'
I6
tp207
a(S'p2_vo'
I10
tp208
a(S'w'
I3
tp209
a(S'w'
I6
tp210
a(S'tr_tl'
I119
tp211
a(S'w'
I716
tp212
a(S'p1_vo'
I4
tp213
a(S'w'
I3
tp214
a(S'w'
I6
tp215
a(S'p2_vo'
I9
tp216
a(S'w'
I4
tp217
a(S'w'
I5
tp218
a(S'tr_tl'
I118
tp219
a(S'w'
I719
tp220
a(S'w'
I5
tp221
a(S'p2_vo'
I8
tp222
a(S'w'
I3
tp223
a(S'w'
I6
tp224
a(S'tr_tl'
I117
tp225
a(S'w'
I717
tp226
a(S'p1_vo'
I3
tp227
a(S'w'
I3
tp228
a(S'w'
I9
tp229
a(S'w'
I724
tp230
a(S'w'
I9
tp231
a(S'w'
I6
tp232
a(S'tr_tl'
I116
tp233
a(S'w'
I719
tp234
a(S'w'
I6
tp235
a(S'p2_vo'
I7
tp236
a(S'w'
I4
tp237
a(S'w'
I5
tp238
a(S'tr_tl'
I117
tp239
a(S'w'
I719
tp240
a(S'w'
I9
tp241
a(S'w'
I6
tp242
a(S'tr_tl'
I118
tp243
a(S'w'
I719
tp244
a(S'w'
I6
tp245
a(S'p2_vo'
I6
tp246
a(S'w'
I3
tp247
a(S'w'
I6
tp248
a(S'tr_tl'
I119
tp249
a(S'w'
I718
tp250
a(S'w'
I9
tp251
a(S'w'
I726
tp252
a(S'w'
I9
tp253
a(S'w'
I6
tp254
a(S'tr_tl'
I120
tp255
a(S'w'
I718
tp256
a(S'w'
I9
tp257
a(S'w'
I6
tp258
a(S'tr_tl'
I119
tp259
a(S'w'
I719
tp260
a(S'w'
I10
tp261
a(S'w'
I5
tp262
a(S'tr_tl'
I118
tp263
a(S'w'
I719
tp264
a(S'w'
I5
tp265
a(S'p2_vo'
I5
tp266
a(S'w'
I4
tp267
a(S'w'
I5
tp268
a(S'tr_tl'
I117
tp269
a(S'w'
I720
tp270
a(S'w'
I9
tp271
a(S'w'
I721
tp272
a(S'p1_vo'
I2
tp273
a(S'w'
I3
tp274
a(S'p1_tl'
I160
tp275
a(S'w'
I9
tp276
a(S'p2_tl'
I119
tp277
a(S'w'
I6
tp278
a(S'tr_tl'
I116
tp279
a(S'w'
I715
tp280
a(S'p1_vo'
I3
tp281
a(S'w'
I3
tp282
a(S'p1_tl'
I159
tp283
a(S'w'
I10
tp284
a(S'p2_tl'
I118
tp285
a(S'w'
I5
tp286
a(S'tr_tl'
I117
tp287
a(S'w'
I716
tp288
a(S'p1_vo'
I0
tp289
a(S'w'
I1
tp290
a(S'w'
I7
tp291
a(S'p2_vo'
I0
tp292
a(S'w'
I1
tp293
a(S'p2_tl'
I105
tp294
a(S'w'
I7
tp295
a(S'tr_tl'
I126
tp296
a(S'w'
I719
tp297
a(S'p1_vo'
I2
tp298
a(S'w'
I3
tp299
a(S'w'
I6
tp300
a(S'p2_vo'
I5
tp301
a(S'w'
I3
tp302
a(S'w'
I721
tp303
a(S'p1_vo'
I3
tp304
a(S'w'
I3
tp305
a(S'w'
I6
tp306
a(S'p2_vo'
I10
tp307
a(S'w'
I3
tp308
a(S'w'
I722
tp309
a(S'p1_vo'
I4
tp310
a(S'w'
I4
tp311
a(S'w'
I6
tp312
a(S'p2_vo'
I9
tp313
a(S'w'
I3
tp314
a(S'w'
I724
tp315
a(S'w'
I6
tp316
a(S'p2_vo'
I8
tp317
a(S'w'
I3
tp318
a(S'w'
I722
tp319
a(S'p1_vo'
I3
tp320
a(S'w'
I3
tp321
a(S'w'
I10
tp322
a(S'w'
I724
tp323
a(S'w'
I9
tp324
a(S'w'
I725
tp325
a(S'w'
I6
tp326
a(S'p2_vo'
I7
tp327
a(S'w'
I3
tp328
a(S'w'
I724
tp329
a(S'w'
I9
tp330
a(S'w'
I725
tp331
a(S'w'
I7
tp332
a(S'p2_vo'
I6
tp333
a(S'w'
I3
tp334
a(S'w'
I724
tp335
a(S'w'
I9
tp336
a(S'w'
I725
tp337
a(S'w'
I10
tp338
a(S'w'
I723
tp339
a(S'w'
I9
tp340
a(S'w'
I726
tp341
a(S'w'
I9
tp342
a(S'w'
I724
tp343
a(S'w'
I6
tp344
a(S'p2_vo'
I5
tp345
a(S'w'
I3
tp346
a(S'w'
I725
tp347
a(S'w'
I10
tp348
a(S'w'
I720
tp349
a(S'p1_vo'
I2
tp350
a(S'w'
I4
tp351
a(S'p1_tl'
I160
tp352
a(S'w'
I9
tp353
a(S'p2_tl'
I106
tp354
a(S'w'
I5
tp355
a(S'tr_tl'
I127
tp356
a(S'w'
I715
tp357
a(S'p1_vo'
I3
tp358
a(S'w'
I4
tp359
a(S'p1_tl'
I159
tp360
a(S'w'
I9
tp361
a(S'p2_tl'
I105
tp362
a(S'w'
I6
tp363
a(S'tr_tl'
I126
tp364
a(S'w'
I715
tp365
a(S'p1_vo'
I0
tp366
a(S'w'
I1
tp367
a(S'p1_tl'
I212
tp368
a(S'w'
I7
tp369
a(S'p2_vo'
I0
tp370
a(S'w'
I1
tp371
a(S'p2_tl'
I159
tp372
a(S'w'
I726
tp373
a(S'p1_vo'
I2
tp374
a(S'w'
I3
tp375
a(S'w'
I6
tp376
a(S'p2_vo'
I5
tp377
a(S'w'
I4
tp378
a(S'w'
I720
tp379
a(S'p1_vo'
I3
tp380
a(S'w'
I4
tp381
a(S'w'
I5
tp382
a(S'p2_vo'
I10
tp383
a(S'w'
I4
tp384
a(S'w'
I722
tp385
a(S'p1_vo'
I4
tp386
a(S'w'
I3
tp387
a(S'w'
I6
tp388
a(S'p2_vo'
I9
tp389
a(S'w'
I3
tp390
a(S'w'
I6
tp391
a(S'tr_tl'
I125
tp392
a(S'w'
I718
tp393
a(S'w'
I6
tp394
a(S'p2_vo'
I8
tp395
a(S'w'
I3
tp396
a(S'w'
I6
tp397
a(S'tr_tl'
I126
tp398
a(S'w'
I716
tp399
a(S'p1_vo'
I3
tp400
a(S'w'
I4
tp401
a(S'w'
I9
tp402
a(S'w'
I724
tp403
a(S'w'
I9
tp404
a(S'w'
I725
tp405
a(S'w'
I6
tp406
a(S'p2_vo'
I7
tp407
a(S'w'
I4
tp408
a(S'w'
I724
tp409
a(S'w'
I8
tp410
a(S'w'
I6
tp411
a(S'tr_tl'
I127
tp412
a(S'w'
I720
tp413
a(S'w'
I6
tp414
a(S'p2_vo'
I6
tp415
a(S'w'
I3
tp416
a(S'w'
I724
tp417
a(S'w'
I9
tp418
a(S'w'
I6
tp419
a(S'tr_tl'
I126
tp420
a(S'w'
I719
tp421
a(S'w'
I10
tp422
a(S'w'
I724
tp423
a(S'w'
I9
tp424
a(S'w'
I725
tp425
a(S'w'
I9
tp426
a(S'w'
I6
tp427
a(S'tr_tl'
I125
tp428
a(S'w'
I718
tp429
a(S'w'
I6
tp430
a(S'p2_vo'
I5
tp431
a(S'w'
I3
tp432
a(S'w'
I726
tp433
a(S'w'
I9
tp434
a(S'w'
I6
tp435
a(S'tr_tl'
I126
tp436
a(S'w'
I715
tp437
a(S'p1_vo'
I2
tp438
a(S'w'
I3
tp439
a(S'p1_tl'
I213
tp440
a(S'w'
I9
tp441
a(S'p2_tl'
I160
tp442
a(S'w'
I721
tp443
a(S'p1_vo'
I3
tp444
a(S'w'
I3
tp445
a(S'p1_tl'
I212
tp446
a(S'w'
I9
tp447
a(S'p2_tl'
I159
tp448
a(S'w'
I6
tp449
a(S'tr_tl'
I127
tp450
a(S'w'
I716
tp451
a(S'p1_vo'
I0
tp452
a(S'p1_tl'
I105
tp453
a(S'w'
I8
tp454
a(S'p2_vo'
I0
tp455
a(S'p2_tl'
I79
tp456
a(S'w'
I727
tp457
a(S'p1_vo'
I2
tp458
a(S'w'
I3
tp459
a(S'w'
I6
tp460
a(S'p2_vo'
I5
tp461
a(S'w'
I3
tp462
a(S'w'
I6
tp463
a(S'tr_tl'
I128
tp464
a(S'w'
I715
tp465
a(S'p1_vo'
I3
tp466
a(S'w'
I3
tp467
a(S'w'
I6
tp468
a(S'p2_vo'
I10
tp469
a(S'w'
I3
tp470
a(S'w'
I6
tp471
a(S'tr_tl'
I127
tp472
a(S'w'
I716
tp473
a(S'p1_vo'
I4
tp474
a(S'w'
I4
tp475
a(S'w'
I6
tp476
a(S'p2_vo'
I9
tp477
a(S'w'
I3
tp478
a(S'w'
I6
tp479
a(S'tr_tl'
I126
tp480
a(S'w'
I718
tp481
a(S'w'
I5
tp482
a(S'p2_vo'
I8
tp483
a(S'w'
I4
tp484
a(S'w'
I5
tp485
a(S'tr_tl'
I125
tp486
a(S'w'
I717
tp487
a(S'p1_vo'
I3
tp488
a(S'w'
I3
tp489
a(S'w'
I9
tp490
a(S'w'
I724
tp491
a(S'w'
I9
tp492
a(S'w'
I6
tp493
a(S'tr_tl'
I124
tp494
a(S'w'
I720
tp495
a(S'w'
I6
tp496
a(S'p2_vo'
I7
tp497
a(S'w'
I3
tp498
a(S'w'
I6
tp499
a(S'tr_tl'
I125
tp500
a(S'w'
I718
tp501
a(S'w'
I9
tp502
a(S'w'
I6
tp503
a(S'tr_tl'
I126
tp504
a(S'w'
I719
tp505
a(S'w'
I6
tp506
a(S'p2_vo'
I6
tp507
a(S'w'
I4
tp508
a(S'w'
I5
tp509
a(S'tr_tl'
I127
tp510
a(S'w'
I719
tp511
a(S'w'
I9
tp512
a(S'w'
I725
tp513
a(S'w'
I9
tp514
a(S'w'
I6
tp515
a(S'tr_tl'
I128
tp516
a(S'w'
I718
tp517
a(S'w'
I9
tp518
a(S'w'
I6
tp519
a(S'tr_tl'
I127
tp520
a(S'w'
I719
tp521
a(S'w'
I10
tp522
a(S'w'
I6
tp523
a(S'tr_tl'
I126
tp524
a(S'w'
I718
tp525
a(S'w'
I5
tp526
a(S'p2_vo'
I5
tp527
a(S'w'
I4
tp528
a(S'w'
I5
tp529
a(S'tr_tl'
I125
tp530
a(S'w'
I720
tp531
a(S'w'
I10
tp532
a(S'w'
I720
tp533
a(S'p1_vo'
I2
tp534
a(S'w'
I4
tp535
a(S'p1_tl'
I106
tp536
a(S'w'
I8
tp537
a(S'p2_tl'
I80
tp538
a(S'w'
I6
tp539
a(S'tr_tl'
I124
tp540
a(S'w'
I715
tp541
a(S'p1_vo'
I3
tp542
a(S'w'
I3
tp543
a(S'p1_tl'
I105
tp544
a(S'w'
I10
tp545
a(S'p2_tl'
I79
tp546
a(S'w'
I6
tp547
a(S'tr_tl'
I125
tp548
a(S'w'
I717
tp549
a(S'p1_vo'
I0
tp550
a(S'p1_tl'
I159
tp551
a(S'w'
I9
tp552
a(S'p2_vo'
I0
tp553
a(S'w'
I1
tp554
a(S'p2_tl'
I118
tp555
a(S'w'
I10
tp556
a(S'tr_tl'
I178
tp557
a(S'w'
I713
tp558
a(S'p1_vo'
I2
tp559
a(S'w'
I3
tp560
a(S'w'
I6
tp561
a(S'p2_vo'
I5
tp562
a(S'w'
I4
tp563
a(S'w'
I720
tp564
a(S'p1_vo'
I3
tp565
a(S'w'
I4
tp566
a(S'w'
I5
tp567
a(S'p2_vo'
I10
tp568
a(S'w'
I4
tp569
a(S'w'
I722
tp570
a(S'p1_vo'
I4
tp571
a(S'w'
I3
tp572
a(S'w'
I6
tp573
a(S'p2_vo'
I9
tp574
a(S'w'
I3
tp575
a(S'w'
I724
tp576
a(S'w'
I6
tp577
a(S'p2_vo'
I8
tp578
a(S'w'
I3
tp579
a(S'w'
I722
tp580
a(S'p1_vo'
I3
tp581
a(S'w'
I4
tp582
a(S'w'
I9
tp583
a(S'w'
I724
tp584
a(S'w'
I9
tp585
a(S'w'
I725
tp586
a(S'w'
I6
tp587
a(S'p2_vo'
I7
tp588
a(S'w'
I3
tp589
a(S'w'
I725
tp590
a(S'w'
I8
tp591
a(S'w'
I726
tp592
a(S'w'
I6
tp593
a(S'p2_vo'
I6
tp594
a(S'w'
I3
tp595
a(S'w'
I724
tp596
a(S'w'
I9
tp597
a(S'w'
I725
tp598
a(S'w'
I10
tp599
a(S'w'
I724
tp600
a(S'w'
I9
tp601
a(S'w'
I725
tp602
a(S'w'
I9
tp603
a(S'w'
I724
tp604
a(S'w'
I6
tp605
a(S'p2_vo'
I5
tp606
a(S'w'
I3
tp607
a(S'w'
I725
tp608
a(S'w'
I10
tp609
a(S'w'
I721
tp610
a(S'p1_vo'
I2
tp611
a(S'w'
I3
tp612
a(S'p1_tl'
I160
tp613
a(S'w'
I9
tp614
a(S'p2_tl'
I119
tp615
a(S'w'
I6
tp616
a(S'tr_tl'
I179
tp617
a(S'w'
I715
tp618
a(S'p1_vo'
I3
tp619
a(S'w'
I3
tp620
a(S'p1_tl'
I159
tp621
a(S'w'
I9
tp622
a(S'p2_tl'
I118
tp623
a(S'w'
I6
tp624
a(S'tr_tl'
I178
tp625
a(S'w'
I719
tp626
a(S'w'
I9
tp627
a(S'w'
I725
tp628
a(S'w'
I5
tp629
a(S'p2_vo'
I4
tp630
a(S'w'
I3
tp631
a(S'w'
I726
tp632
a(S'w'
I8
tp633
a(S'w'
I725
tp634
a(S'p1_tl'
I158
tp635
a(S'w'
I9
tp636
a(S'p2_tl'
I117
tp637
a(S'w'
I5
tp638
a(S'tr_tl'
I177
tp639
a(S'w'
I720
tp640
a(S'p1_tl'
I159
tp641
a(S'w'
I8
tp642
a(S'p2_tl'
I118
tp643
a(S'w'
I6
tp644
a(S'tr_tl'
I178
tp645
a(S'w'
I720
tp646
a(S'w'
I8
tp647
a(S'w'
I726
tp648
a(S'w'
I8
tp649
a(S'w'
I725
tp650
a(S'w'
I9
tp651
a(S'w'
I725
tp652
a(S'p1_tl'
I160
tp653
a(S'w'
I8
tp654
a(S'p2_tl'
I119
tp655
a(S'w'
I6
tp656
a(S'tr_tl'
I179
tp657
a(S'w'
I720
tp658
a(S'w'
I8
tp659
a(S'w'
I726
tp660
a(S'p1_tl'
I159
tp661
a(S'w'
I8
tp662
a(S'p2_tl'
I118
tp663
a(S'w'
I6
tp664
a(S'tr_tl'
I178
tp665
a(S'w'
I720
tp666
a(S'w'
I8
tp667
a(S'w'
I725
tp668
a(S'w'
I8
tp669
a(S'w'
I726
tp670
a(S'p1_tl'
I158
tp671
a(S'w'
I8
tp672
a(S'p2_tl'
I117
tp673
a(S'w'
I6
tp674
a(S'tr_tl'
I177
tp675
a(S'w'
I720
tp676
a(S'w'
I8
tp677
a(S'w'
I726
tp678
a(S'p1_tl'
I159
tp679
a(S'w'
I8
tp680
a(S'p2_tl'
I118
tp681
a(S'w'
I6
tp682
a(S'tr_tl'
I178
tp683
a(S'w'
I719
tp684
a(S'w'
I9
tp685
a(S'w'
I725
tp686
a(S'p1_tl'
I160
tp687
a(S'w'
I9
tp688
a(S'p2_tl'
I119
tp689
a(S'w'
I5
tp690
a(S'tr_tl'
I179
tp691
a(S'w'
I720
tp692
a(S'w'
I8
tp693
a(S'w'
I726
tp694
a(S'p1_tl'
I161
tp695
a(S'w'
I8
tp696
a(S'p2_tl'
I120
tp697
a(S'w'
I6
tp698
a(S'tr_tl'
I180
tp699
a(S'w'
I720
tp700
a(S'p1_tl'
I160
tp701
a(S'w'
I8
tp702
a(S'p2_tl'
I119
tp703
a(S'w'
I6
tp704
a(S'tr_tl'
I179
tp705
a(S'w'
I720
tp706
a(S'p1_tl'
I159
tp707
a(S'w'
I8
tp708
a(S'p2_tl'
I118
tp709
a(S'w'
I5
tp710
a(S'tr_tl'
I178
tp711
a(S'w'
I720
tp712
a(S'p1_tl'
I158
tp713
a(S'w'
I9
tp714
a(S'p2_tl'
I117
tp715
a(S'w'
I5
tp716
a(S'tr_tl'
I177
tp717
a(S'w'
I720
tp718
a(S'w'
I8
tp719
a(S'w'
I726
tp720
a(S'p1_tl'
I157
tp721
a(S'w'
I8
tp722
a(S'p2_tl'
I116
tp723
a(S'w'
I6
tp724
a(S'tr_tl'
I176
tp725
a(S'w'
I720
tp726
a(S'p1_tl'
I158
tp727
a(S'w'
I8
tp728
a(S'p2_tl'
I117
tp729
a(S'w'
I6
tp730
a(S'tr_tl'
I177
tp731
a(S'w'
I720
tp732
a(S'p1_tl'
I159
tp733
a(S'w'
I8
tp734
a(S'p2_tl'
I118
tp735
a(S'w'
I5
tp736
a(S'tr_tl'
I178
tp737
a(S'w'
I720
tp738
a(S'p1_tl'
I160
tp739
a(S'w'
I9
tp740
a(S'p2_tl'
I119
tp741
a(S'w'
I5
tp742
a(S'tr_tl'
I179
tp743
a(S'w'
I720
tp744
a(S'w'
I8
tp745
a(S'w'
I726
tp746
a(S'p1_tl'
I161
tp747
a(S'w'
I8
tp748
a(S'p2_tl'
I120
tp749
a(S'w'
I6
tp750
a(S'tr_tl'
I180
tp751
a(S'w'
I720
tp752
a(S'p1_tl'
I160
tp753
a(S'w'
I8
tp754
a(S'p2_tl'
I119
tp755
a(S'w'
I6
tp756
a(S'tr_tl'
I179
tp757
a(S'w'
I720
tp758
a(S'p1_tl'
I159
tp759
a(S'w'
I8
tp760
a(S'p2_tl'
I118
tp761
a(S'w'
I5
tp762
a(S'tr_tl'
I178
tp763
a(S'w'
I720
tp764
a(S'p1_tl'
I158
tp765
a(S'w'
I8
tp766
a(S'p2_tl'
I117
tp767
a(S'w'
I6
tp768
a(S'tr_tl'
I177
tp769
a(S'w'
I720
tp770
a(S'w'
I8
tp771
a(S'w'
I726
tp772
a(S'p1_tl'
I157
tp773
a(S'w'
I8
tp774
a(S'p2_tl'
I116
tp775
a(S'w'
I6
tp776
a(S'tr_tl'
I176
tp777
a(S'w'
I720
tp778
a(S'p1_tl'
I158
tp779
a(S'w'
I8
tp780
a(S'p2_tl'
I117
tp781
a(S'w'
I6
tp782
a(S'tr_tl'
I177
tp783
a(S'w'
I720
tp784
a(S'p1_tl'
I159
tp785
a(S'w'
I8
tp786
a(S'p2_tl'
I118
tp787
a(S'w'
I6
tp788
a(S'tr_tl'
I178
tp789
a(S'w'
I719
tp790
a(S'p1_tl'
I160
tp791
a(S'w'
I9
tp792
a(S'p2_tl'
I119
tp793
a(S'w'
I5
tp794
a(S'tr_tl'
I179
tp795
a(S'w'
I720
tp796
a(S'w'
I8
tp797
a(S'w'
I726
tp798
a(S'p1_tl'
I161
tp799
a(S'w'
I8
tp800
a(S'p2_tl'
I120
tp801
a(S'w'
I6
tp802
a(S'tr_tl'
I180
tp803
a(S'w'
I720
tp804
a(S'p1_tl'
I160
tp805
a(S'w'
I8
tp806
a(S'p2_tl'
I119
tp807
a(S'w'
I6
tp808
a(S'tr_tl'
I179
tp809
a(S'w'
I720
tp810
a(S'p1_tl'
I159
tp811
a(S'w'
I8
tp812
a(S'p2_tl'
I118
tp813
a(S'w'
I5
tp814
a(S'tr_tl'
I178
tp815
a(S'w'
I720
tp816
a(S'p1_tl'
I158
tp817
a(S'w'
I8
tp818
a(S'p2_tl'
I117
tp819
a(S'w'
I6
tp820
a(S'tr_tl'
I177
tp821
a(S'w'
I720
tp822
a(S'w'
I8
tp823
a(S'w'
I726
tp824
a(S'p1_tl'
I157
tp825
a(S'w'
I8
tp826
a(S'p2_tl'
I116
tp827
a(S'w'
I6
tp828
a(S'tr_tl'
I176
tp829
a(S'w'
I720
tp830
a(S'p1_tl'
I158
tp831
a(S'w'
I8
tp832
a(S'p2_tl'
I117
tp833
a(S'w'
I6
tp834
a(S'tr_tl'
I177
tp835
a(S'w'
I720
tp836
a(S'p1_tl'
I159
tp837
a(S'w'
I8
tp838
a(S'p2_tl'
I118
tp839
a(S'w'
I6
tp840
a(S'tr_tl'
I178
tp841
a(S'w'
I719
tp842
a(S'p1_tl'
I160
tp843
a(S'w'
I9
tp844
a(S'p2_tl'
I119
tp845
a(S'w'
I5
tp846
a(S'tr_tl'
I179
tp847
a(S'w'
I720
tp848
a(S'w'
I8
tp849
a(S'w'
I726
tp850
a(S'p1_tl'
I161
tp851
a(S'w'
I8
tp852
a(S'p2_tl'
I120
tp853
a(S'w'
I6
tp854
a(S'tr_tl'
I180
tp855
a(S'w'
I720
tp856
a(S'p1_tl'
I160
tp857
a(S'w'
I8
tp858
a(S'p2_tl'
I119
tp859
a(S'w'
I6
tp860
a(S'tr_tl'
I179
tp861
a(S'w'
I720
tp862
a(S'p1_tl'
I159
tp863
a(S'w'
I8
tp864
a(S'p2_tl'
I118
tp865
a(S'w'
I5
tp866
a(S'tr_tl'
I178
tp867
a(S'w'
I720
tp868
a(S'p1_tl'
I158
tp869
a(S'w'
I9
tp870
a(S'p2_tl'
I117
tp871
a(S'w'
I5
tp872
a(S'tr_tl'
I177
tp873
a(S'w'
I720
tp874
a(S'w'
I8
tp875
a(S'w'
I726
tp876
a(S'p1_tl'
I157
tp877
a(S'w'
I8
tp878
a(S'p2_tl'
I116
tp879
a(S'w'
I6
tp880
a(S'tr_tl'
I176
tp881
a(S'w'
I720
tp882
a(S'p1_tl'
I158
tp883
a(S'w'
I8
tp884
a(S'p2_tl'
I117
tp885
a(S'w'
I6
tp886
a(S'tr_tl'
I177
tp887
a(S'w'
I720
tp888
a(S'p1_tl'
I159
tp889
a(S'w'
I8
tp890
a(S'p2_tl'
I118
tp891
a(S'w'
I5
tp892
a(S'tr_tl'
I178
tp893
a(S'w'
I720
tp894
a(S'p1_tl'
I160
tp895
a(S'w'
I9
tp896
a(S'p2_tl'
I119
tp897
a(S'w'
I5
tp898
a(S'tr_tl'
I179
tp899
a(S'w'
I720
tp900
a(S'w'
I8
tp901
a(S'w'
I726
tp902
a(S'p1_tl'
I161
tp903
a(S'w'
I8
tp904
a(S'p2_tl'
I120
tp905
a(S'w'
I6
tp906
a(S'tr_tl'
I180
tp907
a(S'w'
I720
tp908
a(S'p1_tl'
I160
tp909
a(S'w'
I8
tp910
a(S'p2_tl'
I119
tp911
a(S'w'
I6
tp912
a(S'tr_tl'
I179
tp913
a(S'w'
I720
tp914
a(S'p1_tl'
I159
tp915
a(S'w'
I8
tp916
a(S'p2_tl'
I118
tp917
a(S'w'
I5
tp918
a(S'tr_tl'
I178
tp919
a(S'w'
I720
tp920
a(S'p1_tl'
I158
tp921
a(S'w'
I9
tp922
a(S'p2_tl'
I117
tp923
a(S'w'
I5
tp924
a(S'tr_tl'
I177
tp925
a(S'w'
I720
tp926
a(S'w'
I8
tp927
a(S'w'
I726
tp928
a(S'p1_tl'
I157
tp929
a(S'w'
I8
tp930
a(S'p2_tl'
I116
tp931
a(S'w'
I6
tp932
a(S'tr_tl'
I176
tp933
a(S'w'
I720
tp934
a(S'p1_tl'
I158
tp935
a(S'w'
I8
tp936
a(S'p2_tl'
I117
tp937
a(S'w'
I6
tp938
a(S'tr_tl'
I177
tp939
a(S'w'
I720
tp940
a(S'p1_tl'
I159
tp941
a(S'w'
I8
tp942
a(S'p2_tl'
I118
tp943
a(S'w'
I6
tp944
a(S'tr_tl'
I178
tp945
a(S'w'
I719
tp946
a(S'p1_tl'
I160
tp947
a(S'w'
I9
tp948
a(S'p2_tl'
I119
tp949
a(S'w'
I5
tp950
a(S'tr_tl'
I179
tp951
a(S'w'
I720
tp952
a(S'w'
I8
tp953
a(S'w'
I726
tp954
a(S'p1_tl'
I161
tp955
a(S'w'
I8
tp956
a(S'p2_tl'
I120
tp957
a(S'w'
I6
tp958
a(S'tr_tl'
I180
tp959
a(S'w'
I720
tp960
a(S'p1_tl'
I160
tp961
a(S'w'
I8
tp962
a(S'p2_tl'
I119
tp963
a(S'w'
I6
tp964
a(S'tr_tl'
I179
tp965
a(S'w'
I720
tp966
a(S'p1_tl'
I159
tp967
a(S'w'
I8
tp968
a(S'p2_tl'
I118
tp969
a(S'w'
I5
tp970
a(S'tr_tl'
I178
tp971
a(S'w'
I721
tp972
a(S'p1_tl'
I158
tp973
a(S'w'
I8
tp974
a(S'p2_tl'
I117
tp975
a(S'w'
I5
tp976
a(S'tr_tl'
I177
tp977
a(S'w'
I720
tp978
a(S'w'
I8
tp979
a(S'w'
I726
tp980
a(S'p1_tl'
I157
tp981
a(S'w'
I8
tp982
a(S'p2_tl'
I116
tp983
a(S'w'
I6
tp984
a(S'tr_tl'
I176
tp985
a(S'w'
I720
tp986
a(S'p1_tl'
I158
tp987
a(S'w'
I8
tp988
a(S'p2_tl'
I117
tp989
a(S'w'
I6
tp990
a(S'tr_tl'
I177
tp991
a(S'w'
I720
tp992
a(S'p1_tl'
I159
tp993
a(S'w'
I8
tp994
a(S'p2_tl'
I118
tp995
a(S'w'
I6
tp996
a(S'tr_tl'
I178
tp997
a(S'w'
I719
tp998
a(S'p1_tl'
I160
tp999
a(S'w'
I9
tp1000
a(S'p2_tl'
I119
tp1001
a(S'w'
I5
tp1002
a(S'tr_tl'
I179
tp1003
a(S'w'
I720
tp1004
a(S'w'
I8
tp1005
a(S'w'
I726
tp1006
a(S'p1_tl'
I161
tp1007
a(S'w'
I8
tp1008
a(S'p2_tl'
I120
tp1009
a(S'w'
I6
tp1010
a(S'tr_tl'
I180
tp1011
a(S'w'
I720
tp1012
a(S'p1_tl'
I160
tp1013
a(S'w'
I8
tp1014
a(S'p2_tl'
I119
tp1015
a(S'w'
I6
tp1016
a(S'tr_tl'
I179
tp1017
a(S'w'
I720
tp1018
a(S'p1_tl'
I159
tp1019
a(S'w'
I8
tp1020
a(S'p2_tl'
I118
tp1021
a(S'w'
I5
tp1022
a(S'tr_tl'
I178
tp1023
a(S'w'
I721
tp1024
a(S'p1_tl'
I158
tp1025
a(S'w'
I8
tp1026
a(S'p2_tl'
I117
tp1027
a(S'w'
I5
tp1028
a(S'tr_tl'
I177
tp1029
a(S'w'
I720
tp1030
a(S'w'
I8
tp1031
a(S'w'
I726
tp1032
a(S'p1_tl'
I157
tp1033
a(S'w'
I8
tp1034
a(S'p2_tl'
I116
tp1035
a(S'w'
I6
tp1036
a(S'tr_tl'
I176
tp1037
a(S'w'
I720
tp1038
a(S'p1_tl'
I158
tp1039
a(S'w'
I8
tp1040
a(S'p2_tl'
I117
tp1041
a(S'w'
I6
tp1042
a(S'tr_tl'
I177
tp1043
a(S'w'
I720
tp1044
a(S'p1_tl'
I159
tp1045
a(S'w'
I8
tp1046
a(S'p2_tl'
I118
tp1047
a(S'w'
I6
tp1048
a(S'tr_tl'
I178
tp1049
a(S'w'
I720
tp1050
a(S'p1_tl'
I160
tp1051
a(S'w'
I8
tp1052
a(S'p2_tl'
I119
tp1053
a(S'w'
I5
tp1054
a(S'tr_tl'
I179
tp1055
a(S'w'
I720
tp1056
a(S'w'
I8
tp1057
a(S'w'
I726
tp1058
a(S'p1_tl'
I161
tp1059
a(S'w'
I8
tp1060
a(S'p2_tl'
I120
tp1061
a(S'w'
I6
tp1062
a(S'tr_tl'
I180
tp1063
a(S'w'
I718
tp1064
a(S'p1_du'
I0
tp1065
a(S'p1_lh'
I0
tp1066
a(S'p1_vo'
I0
tp1067
a(S'p2_du'
I0
tp1068
a(S'p2_lh'
I0
tp1069
a(S'p2_vo'
I0
tp1070
a(S'w'
I1
tp1071
a(S'tr_lh'
I0
tp1072
a(S'tr_lr'
I0
tp1073
a.