(lp1
(S'clock'
p2
I1789772
tp3
a(S'fc_mo'
I1
tp4
a(S'ch_no'
I1
tp5
a(S'ch_tr'
I1
tp6
a(S'ch_p2'
I1
tp7
a(S'ch_p1'
I1
tp8
a(S'p1_du'
I2
tp9
a(S'p1_lh'
I1
tp10
a(S'p1_cv'
I1
tp11
a(S'p1_vo'
I13
tp12
a(S'p1_tl'
I29
tp13
a(S'p1_ll'
I0
tp14
a(S'p1_th'
I1
tp15
a(S'p2_lh'
I1
tp16
a(S'p2_cv'
I1
tp17
a(S'tr_lh'
I1
tp18
a(S'tr_ll'
I0
tp19
a(S'no_lh'
I1
tp20
a(S'no_cv'
I1
tp21
a(S'no_ll'
I0
tp22
a(S'w'
I26
tp23
a(S'w'
I7
tp24
a(S'w'
I14
tp25
a(S'no_ll'
I0
tp26
a(S'w'
I706
tp27
a(S'w'
I7
tp28
a(S'w'
I13
tp29
a(S'w'
I1
tp30
a(S'no_ll'
I0
tp31
a(S'w'
I713
tp32
a(S'w'
I7
tp33
a(S'w'
I13
tp34
a(S'w'
I1
tp35
a(S'no_ll'
I0
tp36
a(S'w'
I720
tp37
a(S'p1_tl'
I254
tp38
a(S'p1_ll'
I0
tp39
a(S'p1_th'
I0
tp40
a(S'w'
I7
tp41
a(S'w'
I13
tp42
a(S'no_ll'
I0
tp43
a(S'w'
I711
tp44
a(S'w'
I7
tp45
a(S'w'
I13
tp46
a(S'no_ll'
I0
tp47
a(S'w'
I709
tp48
a(S'w'
I7
tp49
a(S'w'
I13
tp50
a(S'w'
I1
tp51
a(S'no_ll'
I0
tp52
a(S'w'
I713
tp53
a(S'w'
I7
tp54
a(S'w'
I13
tp55
a(S'w'
I1
tp56
a(S'no_ll'
I0
tp57
a(S'w'
I722
tp58
a(S'p1_tl'
I226
tp59
a(S'w'
I1
tp60
a(S'p1_ll'
I0
tp61
a(S'w'
I6
tp62
a(S'w'
I14
tp63
a(S'no_ll'
I0
tp64
a(S'w'
I708
tp65
a(S'w'
I7
tp66
a(S'w'
I13
tp67
a(S'no_ll'
I0
tp68
a(S'w'
I710
tp69
a(S'w'
I7
tp70
a(S'w'
I13
tp71
a(S'w'
I1
tp72
a(S'no_ll'
I0
tp73
a(S'w'
I712
tp74
a(S'w'
I7
tp75
a(S'w'
I13
tp76
a(S'w'
I1
tp77
a(S'no_ll'
I0
tp78
a(S'w'
I713
tp79
a(S'w'
I7
tp80
a(S'w'
I13
tp81
a(S'w'
I1
tp82
a(S'no_ll'
I0
tp83
a(S'w'
I713
tp84
a(S'w'
I7
tp85
a(S'w'
I13
tp86
a(S'w'
I1
tp87
a(S'no_ll'
I0
tp88
a(S'w'
I713
tp89
a(S'p1_vo'
I12
tp90
a(S'w'
I1
tp91
a(S'w'
I6
tp92
a(S'w'
I14
tp93
a(S'no_ll'
I0
tp94
a(S'w'
I713
tp95
a(S'w'
I7
tp96
a(S'w'
I13
tp97
a(S'w'
I1
tp98
a(S'no_ll'
I0
tp99
a(S'w'
I730
tp100
a(S'p1_vo'
I13
tp101
a(S'p1_tl'
I214
tp102
a(S'w'
I1
tp103
a(S'p1_ll'
I0
tp104
a(S'w'
I6
tp105
a(S'w'
I8
tp106
a(S'tr_lr'
I15
tp107
a(S'tr_tl'
I172
tp108
a(S'tr_ll'
I0
tp109
a(S'tr_th'
I1
tp110
a(S'w'
I7
tp111
a(S'no_ll'
I0
tp112
a(S'w'
I701
tp113
a(S'w'
I7
tp114
a(S'w'
I14
tp115
a(S'w'
I1
tp116
a(S'no_ll'
I0
tp117
a(S'w'
I705
tp118
a(S'w'
I7
tp119
a(S'w'
I14
tp120
a(S'no_ll'
I0
tp121
a(S'w'
I713
tp122
a(S'w'
I7
tp123
a(S'w'
I14
tp124
a(S'no_ll'
I0
tp125
a(S'w'
I713
tp126
a(S'w'
I7
tp127
a(S'w'
I14
tp128
a(S'no_ll'
I0
tp129
a(S'w'
I712
tp130
a(S'w'
I7
tp131
a(S'w'
I14
tp132
a(S'no_ll'
I0
tp133
a(S'w'
I713
tp134
a(S'p1_vo'
I12
tp135
a(S'w'
I1
tp136
a(S'w'
I6
tp137
a(S'w'
I15
tp138
a(S'no_ll'
I0
tp139
a(S'w'
I712
tp140
a(S'w'
I7
tp141
a(S'w'
I14
tp142
a(S'no_ll'
I0
tp143
a(S'w'
I713
tp144
a(S'w'
I7
tp145
a(S'w'
I14
tp146
a(S'no_ll'
I0
tp147
a(S'w'
I713
tp148
a(S'w'
I7
tp149
a(S'w'
I14
tp150
a(S'no_ll'
I0
tp151
a(S'w'
I712
tp152
a(S'w'
I7
tp153
a(S'w'
I14
tp154
a(S'no_ll'
I0
tp155
a(S'w'
I713
tp156
a(S'w'
I7
tp157
a(S'w'
I14
tp158
a(S'no_ll'
I0
tp159
a(S'w'
I713
tp160
a(S'p1_vo'
I11
tp161
a(S'w'
I7
tp162
a(S'w'
I15
tp163
a(S'no_ll'
I0
tp164
a(S'w'
I712
tp165
a(S'w'
I7
tp166
a(S'w'
I14
tp167
a(S'no_ll'
I0
tp168
a(S'w'
I712
tp169
a(S'w'
I7
tp170
a(S'w'
I14
tp171
a(S'no_ll'
I0
tp172
a(S'w'
I713
tp173
a(S'w'
I7
tp174
a(S'w'
I14
tp175
a(S'no_ll'
I0
tp176
a(S'w'
I719
tp177
a(S'p1_vo'
I13
tp178
a(S'w'
I1
tp179
a(S'p1_tl'
I170
tp180
a(S'p1_ll'
I0
tp181
a(S'w'
I7
tp182
a(S'w'
I14
tp183
a(S'no_ll'
I0
tp184
a(S'w'
I710
tp185
a(S'w'
I7
tp186
a(S'w'
I14
tp187
a(S'no_ll'
I0
tp188
a(S'w'
I709
tp189
a(S'w'
I7
tp190
a(S'w'
I14
tp191
a(S'no_ll'
I0
tp192
a(S'w'
I712
tp193
a(S'w'
I7
tp194
a(S'w'
I14
tp195
a(S'no_ll'
I0
tp196
a(S'w'
I713
tp197
a(S'w'
I7
tp198
a(S'w'
I14
tp199
a(S'no_ll'
I0
tp200
a(S'w'
I713
tp201
a(S'w'
I7
tp202
a(S'w'
I14
tp203
a(S'no_ll'
I0
tp204
a(S'w'
I713
tp205
a(S'p1_vo'
I12
tp206
a(S'w'
I1
tp207
a(S'w'
I6
tp208
a(S'w'
I15
tp209
a(S'no_ll'
I0
tp210
a(S'w'
I712
tp211
a(S'w'
I7
tp212
a(S'w'
I14
tp213
a(S'no_ll'
I0
tp214
a(S'w'
I712
tp215
a(S'w'
I7
tp216
a(S'w'
I14
tp217
a(S'no_ll'
I0
tp218
a(S'w'
I713
tp219
a(S'w'
I7
tp220
a(S'w'
I14
tp221
a(S'no_ll'
I0
tp222
a(S'w'
I713
tp223
a(S'w'
I7
tp224
a(S'w'
I14
tp225
a(S'no_ll'
I0
tp226
a(S'w'
I713
tp227
a(S'w'
I7
tp228
a(S'w'
I14
tp229
a(S'no_ll'
I0
tp230
a(S'w'
I713
tp231
a(S'p1_vo'
I11
tp232
a(S'w'
I1
tp233
a(S'w'
I6
tp234
a(S'w'
I15
tp235
a(S'no_ll'
I0
tp236
a(S'w'
I711
tp237
a(S'w'
I7
tp238
a(S'w'
I14
tp239
a(S'no_ll'
I0
tp240
a(S'w'
I713
tp241
a(S'w'
I7
tp242
a(S'w'
I14
tp243
a(S'no_ll'
I0
tp244
a(S'w'
I713
tp245
a(S'w'
I7
tp246
a(S'w'
I14
tp247
a(S'no_ll'
I0
tp248
a(S'w'
I731
tp249
a(S'p1_vo'
I13
tp250
a(S'p1_tl'
I190
tp251
a(S'w'
I1
tp252
a(S'p1_ll'
I0
tp253
a(S'w'
I6
tp254
a(S'w'
I8
tp255
a(S'tr_tl'
I54
tp256
a(S'tr_ll'
I0
tp257
a(S'tr_th'
I2
tp258
a(S'w'
I7
tp259
a(S'no_ll'
I0
tp260
a(S'w'
I701
tp261
a(S'w'
I7
tp262
a(S'w'
I14
tp263
a(S'w'
I1
tp264
a(S'no_ll'
I0
tp265
a(S'w'
I704
tp266
a(S'w'
I7
tp267
a(S'w'
I14
tp268
a(S'no_ll'
I0
tp269
a(S'w'
I713
tp270
a(S'w'
I7
tp271
a(S'w'
I14
tp272
a(S'no_ll'
I0
tp273
a(S'w'
I713
tp274
a(S'w'
I7
tp275
a(S'w'
I14
tp276
a(S'no_ll'
I0
tp277
a(S'w'
I713
tp278
a(S'w'
I7
tp279
a(S'w'
I14
tp280
a(S'no_ll'
I0
tp281
a(S'w'
I712
tp282
a(S'p1_vo'
I12
tp283
a(S'w'
I1
tp284
a(S'w'
I6
tp285
a(S'w'
I15
tp286
a(S'no_ll'
I0
tp287
a(S'w'
I712
tp288
a(S'w'
I7
tp289
a(S'w'
I14
tp290
a(S'no_ll'
I0
tp291
a(S'w'
I713
tp292
a(S'w'
I7
tp293
a(S'w'
I14
tp294
a(S'no_ll'
I0
tp295
a(S'w'
I713
tp296
a(S'w'
I7
tp297
a(S'w'
I14
tp298
a(S'no_ll'
I0
tp299
a(S'w'
I713
tp300
a(S'w'
I7
tp301
a(S'w'
I14
tp302
a(S'no_ll'
I0
tp303
a(S'w'
I712
tp304
a(S'w'
I7
tp305
a(S'w'
I14
tp306
a(S'no_ll'
I0
tp307
a(S'w'
I713
tp308
a(S'p1_vo'
I11
tp309
a(S'w'
I1
tp310
a(S'w'
I6
tp311
a(S'w'
I15
tp312
a(S'no_ll'
I0
tp313
a(S'w'
I712
tp314
a(S'w'
I7
tp315
a(S'w'
I14
tp316
a(S'no_ll'
I0
tp317
a(S'w'
I713
tp318
a(S'w'
I7
tp319
a(S'w'
I14
tp320
a(S'no_ll'
I0
tp321
a(S'w'
I713
tp322
a(S'w'
I7
tp323
a(S'w'
I14
tp324
a(S'no_ll'
I0
tp325
a(S'w'
I718
tp326
a(S'p1_vo'
I13
tp327
a(S'w'
I1
tp328
a(S'p1_tl'
I160
tp329
a(S'p1_ll'
I0
tp330
a(S'w'
I7
tp331
a(S'w'
I14
tp332
a(S'no_ll'
I0
tp333
a(S'w'
I710
tp334
a(S'w'
I7
tp335
a(S'w'
I14
tp336
a(S'no_ll'
I0
tp337
a(S'w'
I709
tp338
a(S'w'
I7
tp339
a(S'w'
I14
tp340
a(S'no_ll'
I0
tp341
a(S'w'
I713
tp342
a(S'w'
I7
tp343
a(S'w'
I14
tp344
a(S'no_ll'
I0
tp345
a(S'w'
I713
tp346
a(S'w'
I7
tp347
a(S'w'
I14
tp348
a(S'no_ll'
I0
tp349
a(S'w'
I712
tp350
a(S'w'
I7
tp351
a(S'w'
I14
tp352
a(S'no_ll'
I0
tp353
a(S'w'
I713
tp354
a(S'p1_vo'
I12
tp355
a(S'w'
I1
tp356
a(S'w'
I6
tp357
a(S'w'
I15
tp358
a(S'no_ll'
I0
tp359
a(S'w'
I712
tp360
a(S'w'
I7
tp361
a(S'w'
I14
tp362
a(S'no_ll'
I0
tp363
a(S'w'
I713
tp364
a(S'w'
I7
tp365
a(S'w'
I14
tp366
a(S'no_ll'
I0
tp367
a(S'w'
I713
tp368
a(S'w'
I7
tp369
a(S'w'
I14
tp370
a(S'no_ll'
I0
tp371
a(S'w'
I712
tp372
a(S'w'
I7
tp373
a(S'w'
I14
tp374
a(S'no_ll'
I0
tp375
a(S'w'
I713
tp376
a(S'w'
I7
tp377
a(S'w'
I14
tp378
a(S'no_ll'
I0
tp379
a(S'w'
I713
tp380
a(S'p1_vo'
I11
tp381
a(S'w'
I1
tp382
a(S'w'
I6
tp383
a(S'w'
I15
tp384
a(S'no_ll'
I0
tp385
a(S'w'
I712
tp386
a(S'w'
I7
tp387
a(S'w'
I14
tp388
a(S'no_ll'
I0
tp389
a(S'w'
I712
tp390
a(S'w'
I7
tp391
a(S'w'
I14
tp392
a(S'no_ll'
I0
tp393
a(S'w'
I713
tp394
a(S'w'
I7
tp395
a(S'w'
I14
tp396
a(S'no_ll'
I0
tp397
a(S'w'
I731
tp398
a(S'p1_vo'
I13
tp399
a(S'p1_tl'
I170
tp400
a(S'w'
I1
tp401
a(S'p1_ll'
I0
tp402
a(S'w'
I6
tp403
a(S'w'
I8
tp404
a(S'tr_tl'
I172
tp405
a(S'tr_ll'
I0
tp406
a(S'tr_th'
I1
tp407
a(S'w'
I7
tp408
a(S'no_ll'
I0
tp409
a(S'w'
I701
tp410
a(S'w'
I7
tp411
a(S'w'
I15
tp412
a(S'no_ll'
I0
tp413
a(S'w'
I705
tp414
a(S'w'
I7
tp415
a(S'w'
I14
tp416
a(S'no_ll'
I0
tp417
a(S'w'
I712
tp418
a(S'w'
I7
tp419
a(S'w'
I14
tp420
a(S'no_ll'
I0
tp421
a(S'w'
I713
tp422
a(S'w'
I7
tp423
a(S'w'
I14
tp424
a(S'no_ll'
I0
tp425
a(S'w'
I713
tp426
a(S'w'
I7
tp427
a(S'w'
I14
tp428
a(S'no_ll'
I0
tp429
a(S'w'
I713
tp430
a(S'p1_vo'
I12
tp431
a(S'w'
I1
tp432
a(S'w'
I6
tp433
a(S'w'
I15
tp434
a(S'no_ll'
I0
tp435
a(S'w'
I712
tp436
a(S'w'
I7
tp437
a(S'w'
I14
tp438
a(S'no_ll'
I0
tp439
a(S'w'
I718
tp440
a(S'p1_vo'
I13
tp441
a(S'w'
I1
tp442
a(S'p1_tl'
I160
tp443
a(S'p1_ll'
I0
tp444
a(S'w'
I7
tp445
a(S'w'
I14
tp446
a(S'no_ll'
I0
tp447
a(S'w'
I710
tp448
a(S'w'
I7
tp449
a(S'w'
I14
tp450
a(S'no_ll'
I0
tp451
a(S'w'
I709
tp452
a(S'w'
I7
tp453
a(S'w'
I14
tp454
a(S'no_ll'
I0
tp455
a(S'w'
I713
tp456
a(S'w'
I7
tp457
a(S'w'
I14
tp458
a(S'no_ll'
I0
tp459
a(S'w'
I713
tp460
a(S'w'
I7
tp461
a(S'w'
I14
tp462
a(S'no_ll'
I0
tp463
a(S'w'
I712
tp464
a(S'w'
I7
tp465
a(S'w'
I14
tp466
a(S'no_ll'
I0
tp467
a(S'w'
I713
tp468
a(S'p1_vo'
I12
tp469
a(S'w'
I7
tp470
a(S'w'
I15
tp471
a(S'no_ll'
I0
tp472
a(S'w'
I712
tp473
a(S'w'
I7
tp474
a(S'w'
I14
tp475
a(S'no_ll'
I0
tp476
a(S'w'
I719
tp477
a(S'p1_vo'
I13
tp478
a(S'w'
I1
tp479
a(S'p1_tl'
I143
tp480
a(S'p1_ll'
I0
tp481
a(S'w'
I7
tp482
a(S'w'
I14
tp483
a(S'no_ll'
I0
tp484
a(S'w'
I710
tp485
a(S'w'
I7
tp486
a(S'w'
I14
tp487
a(S'no_ll'
I0
tp488
a(S'w'
I708
tp489
a(S'w'
I7
tp490
a(S'w'
I14
tp491
a(S'no_ll'
I0
tp492
a(S'w'
I713
tp493
a(S'w'
I7
tp494
a(S'w'
I14
tp495
a(S'no_ll'
I0
tp496
a(S'w'
I713
tp497
a(S'w'
I7
tp498
a(S'w'
I14
tp499
a(S'no_ll'
I0
tp500
a(S'w'
I713
tp501
a(S'w'
I7
tp502
a(S'w'
I14
tp503
a(S'no_ll'
I0
tp504
a(S'w'
I712
tp505
a(S'p1_vo'
I12
tp506
a(S'w'
I1
tp507
a(S'w'
I6
tp508
a(S'w'
I15
tp509
a(S'no_ll'
I0
tp510
a(S'w'
I712
tp511
a(S'w'
I7
tp512
a(S'w'
I14
tp513
a(S'no_ll'
I0
tp514
a(S'w'
I719
tp515
a(S'p1_vo'
I13
tp516
a(S'w'
I1
tp517
a(S'p1_tl'
I170
tp518
a(S'p1_ll'
I0
tp519
a(S'w'
I7
tp520
a(S'w'
I14
tp521
a(S'no_ll'
I0
tp522
a(S'w'
I710
tp523
a(S'w'
I7
tp524
a(S'w'
I14
tp525
a(S'no_ll'
I0
tp526
a(S'w'
I709
tp527
a(S'w'
I7
tp528
a(S'w'
I14
tp529
a(S'no_ll'
I0
tp530
a(S'w'
I712
tp531
a(S'w'
I7
tp532
a(S'w'
I14
tp533
a(S'no_ll'
I0
tp534
a(S'w'
I713
tp535
a(S'w'
I7
tp536
a(S'w'
I14
tp537
a(S'no_ll'
I0
tp538
a(S'w'
I713
tp539
a(S'w'
I7
tp540
a(S'w'
I14
tp541
a(S'no_ll'
I0
tp542
a(S'w'
I713
tp543
a(S'p1_vo'
I12
tp544
a(S'w'
I1
tp545
a(S'w'
I6
tp546
a(S'w'
I15
tp547
a(S'no_ll'
I0
tp548
a(S'w'
I712
tp549
a(S'w'
I7
tp550
a(S'w'
I14
tp551
a(S'no_ll'
I0
tp552
a(S'w'
I729
tp553
a(S'p1_vo'
I13
tp554
a(S'w'
I1
tp555
a(S'p1_tl'
I190
tp556
a(S'p1_ll'
I0
tp557
a(S'w'
I7
tp558
a(S'w'
I7
tp559
a(S'tr_tl'
I197
tp560
a(S'w'
I1
tp561
a(S'tr_ll'
I0
tp562
a(S'w'
I6
tp563
a(S'no_ll'
I0
tp564
a(S'w'
I702
tp565
a(S'w'
I7
tp566
a(S'w'
I14
tp567
a(S'w'
I1
tp568
a(S'no_ll'
I0
tp569
a(S'w'
I705
tp570
a(S'w'
I7
tp571
a(S'w'
I14
tp572
a(S'no_ll'
I0
tp573
a(S'w'
I713
tp574
a(S'w'
I7
tp575
a(S'w'
I14
tp576
a(S'no_ll'
I0
tp577
a(S'w'
I713
tp578
a(S'w'
I7
tp579
a(S'w'
I14
tp580
a(S'no_ll'
I0
tp581
a(S'w'
I712
tp582
a(S'w'
I7
tp583
a(S'w'
I14
tp584
a(S'no_ll'
I0
tp585
a(S'w'
I713
tp586
a(S'p1_vo'
I12
tp587
a(S'w'
I7
tp588
a(S'w'
I15
tp589
a(S'no_ll'
I0
tp590
a(S'w'
I712
tp591
a(S'w'
I7
tp592
a(S'w'
I14
tp593
a(S'no_ll'
I0
tp594
a(S'w'
I724
tp595
a(S'w'
I7
tp596
a(S'w'
I7
tp597
a(S'tr_tl'
I172
tp598
a(S'tr_ll'
I0
tp599
a(S'w'
I7
tp600
a(S'no_ll'
I0
tp601
a(S'w'
I705
tp602
a(S'w'
I7
tp603
a(S'w'
I15
tp604
a(S'no_ll'
I0
tp605
a(S'w'
I708
tp606
a(S'w'
I7
tp607
a(S'w'
I14
tp608
a(S'no_ll'
I0
tp609
a(S'w'
I713
tp610
a(S'w'
I7
tp611
a(S'w'
I14
tp612
a(S'no_ll'
I0
tp613
a(S'w'
I713
tp614
a(S'p1_vo'
I11
tp615
a(S'w'
I1
tp616
a(S'w'
I6
tp617
a(S'w'
I15
tp618
a(S'no_ll'
I0
tp619
a(S'w'
I712
tp620
a(S'w'
I7
tp621
a(S'w'
I14
tp622
a(S'no_ll'
I0
tp623
a(S'w'
I712
tp624
a(S'w'
I7
tp625
a(S'w'
I14
tp626
a(S'no_ll'
I0
tp627
a(S'w'
I713
tp628
a(S'w'
I7
tp629
a(S'w'
I14
tp630
a(S'no_ll'
I0
tp631
a(S'w'
I728
tp632
a(S'p1_vo'
I13
tp633
a(S'p1_tl'
I160
tp634
a(S'p1_ll'
I0
tp635
a(S'w'
I7
tp636
a(S'w'
I8
tp637
a(S'tr_tl'
I125
tp638
a(S'tr_ll'
I0
tp639
a(S'w'
I7
tp640
a(S'no_ll'
I0
tp641
a(S'w'
I704
tp642
a(S'w'
I7
tp643
a(S'w'
I15
tp644
a(S'no_ll'
I0
tp645
a(S'w'
I705
tp646
a(S'w'
I7
tp647
a(S'w'
I14
tp648
a(S'no_ll'
I0
tp649
a(S'w'
I712
tp650
a(S'w'
I7
tp651
a(S'w'
I14
tp652
a(S'no_ll'
I0
tp653
a(S'w'
I713
tp654
a(S'w'
I7
tp655
a(S'w'
I14
tp656
a(S'no_ll'
I0
tp657
a(S'w'
I713
tp658
a(S'w'
I7
tp659
a(S'w'
I14
tp660
a(S'no_ll'
I0
tp661
a(S'w'
I713
tp662
a(S'p1_vo'
I12
tp663
a(S'w'
I1
tp664
a(S'w'
I6
tp665
a(S'w'
I15
tp666
a(S'no_ll'
I0
tp667
a(S'w'
I712
tp668
a(S'w'
I7
tp669
a(S'w'
I14
tp670
a(S'no_ll'
I0
tp671
a(S'w'
I723
tp672
a(S'w'
I7
tp673
a(S'w'
I7
tp674
a(S'tr_tl'
I197
tp675
a(S'tr_ll'
I0
tp676
a(S'w'
I7
tp677
a(S'no_ll'
I0
tp678
a(S'w'
I705
tp679
a(S'w'
I7
tp680
a(S'w'
I15
tp681
a(S'no_ll'
I0
tp682
a(S'w'
I709
tp683
a(S'w'
I7
tp684
a(S'w'
I14
tp685
a(S'no_ll'
I0
tp686
a(S'w'
I713
tp687
a(S'w'
I7
tp688
a(S'w'
I14
tp689
a(S'no_ll'
I0
tp690
a(S'w'
I713
tp691
a(S'p1_vo'
I11
tp692
a(S'w'
I1
tp693
a(S'w'
I6
tp694
a(S'w'
I15
tp695
a(S'no_ll'
I0
tp696
a(S'w'
I711
tp697
a(S'w'
I7
tp698
a(S'w'
I14
tp699
a(S'no_ll'
I0
tp700
a(S'w'
I713
tp701
a(S'w'
I7
tp702
a(S'w'
I14
tp703
a(S'no_ll'
I0
tp704
a(S'w'
I713
tp705
a(S'w'
I7
tp706
a(S'w'
I14
tp707
a(S'no_ll'
I0
tp708
a(S'w'
I730
tp709
a(S'p1_vo'
I13
tp710
a(S'p1_tl'
I170
tp711
a(S'w'
I1
tp712
a(S'p1_ll'
I0
tp713
a(S'w'
I6
tp714
a(S'w'
I8
tp715
a(S'tr_tl'
I172
tp716
a(S'tr_ll'
I0
tp717
a(S'w'
I7
tp718
a(S'no_ll'
I0
tp719
a(S'w'
I702
tp720
a(S'w'
I7
tp721
a(S'w'
I14
tp722
a(S'w'
I1
tp723
a(S'no_ll'
I0
tp724
a(S'w'
I704
tp725
a(S'w'
I7
tp726
a(S'w'
I14
tp727
a(S'no_ll'
I0
tp728
a(S'w'
I713
tp729
a(S'w'
I7
tp730
a(S'w'
I14
tp731
a(S'no_ll'
I0
tp732
a(S'w'
I713
tp733
a(S'w'
I7
tp734
a(S'w'
I14
tp735
a(S'no_ll'
I0
tp736
a(S'w'
I713
tp737
a(S'w'
I7
tp738
a(S'w'
I14
tp739
a(S'no_ll'
I0
tp740
a(S'w'
I712
tp741
a(S'p1_vo'
I12
tp742
a(S'w'
I1
tp743
a(S'w'
I6
tp744
a(S'w'
I15
tp745
a(S'no_ll'
I0
tp746
a(S'w'
I712
tp747
a(S'w'
I7
tp748
a(S'w'
I14
tp749
a(S'no_ll'
I0
tp750
a(S'w'
I728
tp751
a(S'p1_vo'
I13
tp752
a(S'p1_tl'
I160
tp753
a(S'p1_ll'
I0
tp754
a(S'w'
I7
tp755
a(S'w'
I8
tp756
a(S'tr_tl'
I125
tp757
a(S'tr_ll'
I0
tp758
a(S'w'
I6
tp759
a(S'w'
I1
tp760
a(S'no_ll'
I0
tp761
a(S'w'
I704
tp762
a(S'w'
I7
tp763
a(S'w'
I15
tp764
a(S'no_ll'
I0
tp765
a(S'w'
I705
tp766
a(S'w'
I7
tp767
a(S'w'
I14
tp768
a(S'no_ll'
I0
tp769
a(S'w'
I712
tp770
a(S'w'
I7
tp771
a(S'w'
I14
tp772
a(S'no_ll'
I0
tp773
a(S'w'
I713
tp774
a(S'w'
I7
tp775
a(S'w'
I14
tp776
a(S'no_ll'
I0
tp777
a(S'w'
I713
tp778
a(S'w'
I7
tp779
a(S'w'
I14
tp780
a(S'no_ll'
I0
tp781
a(S'w'
I713
tp782
a(S'p1_vo'
I12
tp783
a(S'w'
I1
tp784
a(S'w'
I6
tp785
a(S'w'
I15
tp786
a(S'no_ll'
I0
tp787
a(S'w'
I712
tp788
a(S'w'
I7
tp789
a(S'w'
I14
tp790
a(S'no_ll'
I0
tp791
a(S'w'
I726
tp792
a(S'p1_vo'
I13
tp793
a(S'w'
I1
tp794
a(S'p1_tl'
I143
tp795
a(S'p1_ll'
I0
tp796
a(S'w'
I7
tp797
a(S'w'
I7
tp798
a(S'tr_tl'
I83
tp799
a(S'w'
I1
tp800
a(S'tr_ll'
I0
tp801
a(S'w'
I6
tp802
a(S'no_ll'
I0
tp803
a(S'w'
I705
tp804
a(S'w'
I7
tp805
a(S'w'
I14
tp806
a(S'w'
I1
tp807
a(S'no_ll'
I0
tp808
a(S'w'
I705
tp809
a(S'w'
I7
tp810
a(S'w'
I14
tp811
a(S'no_ll'
I0
tp812
a(S'w'
I713
tp813
a(S'w'
I7
tp814
a(S'w'
I14
tp815
a(S'no_ll'
I0
tp816
a(S'w'
I713
tp817
a(S'w'
I7
tp818
a(S'w'
I14
tp819
a(S'no_ll'
I0
tp820
a(S'w'
I712
tp821
a(S'w'
I7
tp822
a(S'w'
I14
tp823
a(S'no_ll'
I0
tp824
a(S'w'
I713
tp825
a(S'p1_vo'
I12
tp826
a(S'w'
I1
tp827
a(S'w'
I6
tp828
a(S'w'
I15
tp829
a(S'no_ll'
I0
tp830
a(S'w'
I712
tp831
a(S'w'
I7
tp832
a(S'w'
I14
tp833
a(S'no_ll'
I0
tp834
a(S'w'
I727
tp835
a(S'p1_vo'
I13
tp836
a(S'w'
I1
tp837
a(S'p1_tl'
I170
tp838
a(S'p1_ll'
I0
tp839
a(S'w'
I7
tp840
a(S'w'
I7
tp841
a(S'tr_tl'
I172
tp842
a(S'w'
I1
tp843
a(S'tr_ll'
I0
tp844
a(S'w'
I6
tp845
a(S'no_ll'
I0
tp846
a(S'w'
I705
tp847
a(S'w'
I7
tp848
a(S'w'
I14
tp849
a(S'w'
I1
tp850
a(S'no_ll'
I0
tp851
a(S'w'
I704
tp852
a(S'w'
I7
tp853
a(S'w'
I14
tp854
a(S'no_ll'
I0
tp855
a(S'w'
I713
tp856
a(S'w'
I7
tp857
a(S'w'
I14
tp858
a(S'no_ll'
I0
tp859
a(S'w'
I713
tp860
a(S'w'
I7
tp861
a(S'w'
I14
tp862
a(S'no_ll'
I0
tp863
a(S'w'
I713
tp864
a(S'w'
I7
tp865
a(S'w'
I14
tp866
a(S'no_ll'
I0
tp867
a(S'w'
I712
tp868
a(S'p1_vo'
I12
tp869
a(S'w'
I1
tp870
a(S'w'
I6
tp871
a(S'w'
I15
tp872
a(S'no_ll'
I0
tp873
a(S'w'
I712
tp874
a(S'w'
I7
tp875
a(S'w'
I14
tp876
a(S'no_ll'
I0
tp877
a(S'w'
I727
tp878
a(S'p1_vo'
I13
tp879
a(S'w'
I1
tp880
a(S'p1_tl'
I160
tp881
a(S'p1_ll'
I0
tp882
a(S'w'
I7
tp883
a(S'w'
I7
tp884
a(S'tr_tl'
I125
tp885
a(S'w'
I1
tp886
a(S'tr_ll'
I0
tp887
a(S'w'
I6
tp888
a(S'w'
I1
tp889
a(S'no_ll'
I0
tp890
a(S'w'
I704
tp891
a(S'w'
I7
tp892
a(S'w'
I15
tp893
a(S'no_ll'
I0
tp894
a(S'w'
I705
tp895
a(S'w'
I7
tp896
a(S'w'
I14
tp897
a(S'no_ll'
I0
tp898
a(S'w'
I712
tp899
a(S'w'
I7
tp900
a(S'w'
I14
tp901
a(S'no_ll'
I0
tp902
a(S'w'
I713
tp903
a(S'w'
I7
tp904
a(S'w'
I14
tp905
a(S'no_ll'
I0
tp906
a(S'w'
I713
tp907
a(S'w'
I7
tp908
a(S'w'
I14
tp909
a(S'no_ll'
I0
tp910
a(S'w'
I713
tp911
a(S'p1_vo'
I12
tp912
a(S'w'
I1
tp913
a(S'w'
I6
tp914
a(S'w'
I15
tp915
a(S'no_ll'
I0
tp916
a(S'w'
I712
tp917
a(S'w'
I7
tp918
a(S'w'
I14
tp919
a(S'no_ll'
I0
tp920
a(S'w'
I726
tp921
a(S'p1_vo'
I13
tp922
a(S'w'
I1
tp923
a(S'p1_tl'
I143
tp924
a(S'p1_ll'
I0
tp925
a(S'w'
I7
tp926
a(S'w'
I7
tp927
a(S'tr_tl'
I172
tp928
a(S'w'
I1
tp929
a(S'tr_ll'
I0
tp930
a(S'w'
I6
tp931
a(S'no_ll'
I0
tp932
a(S'w'
I705
tp933
a(S'w'
I7
tp934
a(S'w'
I14
tp935
a(S'w'
I1
tp936
a(S'no_ll'
I0
tp937
a(S'w'
I705
tp938
a(S'w'
I7
tp939
a(S'w'
I14
tp940
a(S'no_ll'
I0
tp941
a(S'w'
I713
tp942
a(S'w'
I7
tp943
a(S'w'
I14
tp944
a(S'no_ll'
I0
tp945
a(S'w'
I713
tp946
a(S'w'
I7
tp947
a(S'w'
I14
tp948
a(S'no_ll'
I0
tp949
a(S'w'
I712
tp950
a(S'w'
I7
tp951
a(S'w'
I14
tp952
a(S'no_ll'
I0
tp953
a(S'w'
I713
tp954
a(S'p1_vo'
I12
tp955
a(S'w'
I1
tp956
a(S'w'
I6
tp957
a(S'w'
I15
tp958
a(S'no_ll'
I0
tp959
a(S'w'
I712
tp960
a(S'w'
I7
tp961
a(S'w'
I14
tp962
a(S'no_ll'
I0
tp963
a(S'w'
I727
tp964
a(S'p1_vo'
I13
tp965
a(S'w'
I1
tp966
a(S'p1_tl'
I127
tp967
a(S'p1_ll'
I0
tp968
a(S'w'
I7
tp969
a(S'w'
I7
tp970
a(S'tr_tl'
I125
tp971
a(S'w'
I1
tp972
a(S'tr_ll'
I0
tp973
a(S'w'
I6
tp974
a(S'w'
I1
tp975
a(S'no_ll'
I0
tp976
a(S'w'
I704
tp977
a(S'w'
I7
tp978
a(S'w'
I15
tp979
a(S'no_ll'
I0
tp980
a(S'w'
I704
tp981
a(S'w'
I7
tp982
a(S'w'
I14
tp983
a(S'no_ll'
I0
tp984
a(S'w'
I713
tp985
a(S'w'
I7
tp986
a(S'w'
I14
tp987
a(S'no_ll'
I0
tp988
a(S'w'
I713
tp989
a(S'w'
I7
tp990
a(S'w'
I14
tp991
a(S'no_ll'
I0
tp992
a(S'w'
I713
tp993
a(S'w'
I7
tp994
a(S'w'
I14
tp995
a(S'no_ll'
I0
tp996
a(S'w'
I712
tp997
a(S'p1_vo'
I12
tp998
a(S'w'
I1
tp999
a(S'w'
I6
tp1000
a(S'w'
I15
tp1001
a(S'no_ll'
I0
tp1002
a(S'w'
I712
tp1003
a(S'w'
I7
tp1004
a(S'w'
I14
tp1005
a(S'no_ll'
I0
tp1006
a(S'w'
I727
tp1007
a(S'p1_vo'
I13
tp1008
a(S'w'
I1
tp1009
a(S'p1_tl'
I113
tp1010
a(S'p1_ll'
I0
tp1011
a(S'w'
I7
tp1012
a(S'w'
I7
tp1013
a(S'tr_tl'
I83
tp1014
a(S'w'
I1
tp1015
a(S'tr_ll'
I0
tp1016
a(S'w'
I6
tp1017
a(S'w'
I1
tp1018
a(S'no_ll'
I0
tp1019
a(S'w'
I704
tp1020
a(S'w'
I7
tp1021
a(S'w'
I15
tp1022
a(S'no_ll'
I0
tp1023
a(S'w'
I705
tp1024
a(S'w'
I7
tp1025
a(S'w'
I14
tp1026
a(S'no_ll'
I0
tp1027
a(S'w'
I712
tp1028
a(S'w'
I7
tp1029
a(S'w'
I14
tp1030
a(S'no_ll'
I0
tp1031
a(S'w'
I713
tp1032
a(S'w'
I7
tp1033
a(S'w'
I14
tp1034
a(S'no_ll'
I0
tp1035
a(S'w'
I713
tp1036
a(S'w'
I7
tp1037
a(S'w'
I14
tp1038
a(S'no_ll'
I0
tp1039
a(S'w'
I713
tp1040
a(S'p1_vo'
I12
tp1041
a(S'w'
I1
tp1042
a(S'w'
I6
tp1043
a(S'w'
I15
tp1044
a(S'no_ll'
I0
tp1045
a(S'w'
I712
tp1046
a(S'w'
I7
tp1047
a(S'w'
I14
tp1048
a(S'no_ll'
I0
tp1049
a(S'w'
I730
tp1050
a(S'p1_vo'
I13
tp1051
a(S'p1_tl'
I107
tp1052
a(S'p1_ll'
I0
tp1053
a(S'w'
I7
tp1054
a(S'w'
I7
tp1055
a(S'tr_tl'
I172
tp1056
a(S'w'
I1
tp1057
a(S'tr_ll'
I0
tp1058
a(S'w'
I6
tp1059
a(S'w'
I1
tp1060
a(S'no_ll'
I0
tp1061
a(S'w'
I701
tp1062
a(S'w'
I7
tp1063
a(S'w'
I14
tp1064
a(S'w'
I1
tp1065
a(S'no_ll'
I0
tp1066
a(S'w'
I705
tp1067
a(S'w'
I7
tp1068
a(S'w'
I14
tp1069
a(S'no_ll'
I0
tp1070
a(S'w'
I713
tp1071
a(S'w'
I7
tp1072
a(S'w'
I14
tp1073
a(S'no_ll'
I0
tp1074
a(S'w'
I713
tp1075
a(S'w'
I7
tp1076
a(S'w'
I14
tp1077
a(S'no_ll'
I0
tp1078
a(S'w'
I712
tp1079
a(S'w'
I7
tp1080
a(S'w'
I14
tp1081
a(S'no_ll'
I0
tp1082
a(S'w'
I713
tp1083
a(S'p1_vo'
I12
tp1084
a(S'w'
I1
tp1085
a(S'w'
I6
tp1086
a(S'w'
I15
tp1087
a(S'no_ll'
I0
tp1088
a(S'w'
I712
tp1089
a(S'w'
I7
tp1090
a(S'w'
I14
tp1091
a(S'no_ll'
I0
tp1092
a(S'w'
I713
tp1093
a(S'w'
I7
tp1094
a(S'w'
I14
tp1095
a(S'no_ll'
I0
tp1096
a(S'w'
I713
tp1097
a(S'w'
I7
tp1098
a(S'w'
I14
tp1099
a(S'no_ll'
I0
tp1100
a(S'w'
I712
tp1101
a(S'w'
I7
tp1102
a(S'w'
I14
tp1103
a(S'no_ll'
I0
tp1104
a(S'w'
I713
tp1105
a(S'w'
I7
tp1106
a(S'w'
I14
tp1107
a(S'no_ll'
I0
tp1108
a(S'w'
I713
tp1109
a(S'p1_vo'
I11
tp1110
a(S'w'
I1
tp1111
a(S'w'
I6
tp1112
a(S'w'
I15
tp1113
a(S'no_ll'
I0
tp1114
a(S'w'
I712
tp1115
a(S'w'
I7
tp1116
a(S'w'
I14
tp1117
a(S'no_ll'
I0
tp1118
a(S'w'
I712
tp1119
a(S'w'
I7
tp1120
a(S'w'
I14
tp1121
a(S'no_ll'
I0
tp1122
a(S'w'
I713
tp1123
a(S'w'
I7
tp1124
a(S'w'
I14
tp1125
a(S'no_ll'
I0
tp1126
a(S'w'
I733
tp1127
a(S'p1_vo'
I13
tp1128
a(S'p1_tl'
I113
tp1129
a(S'w'
I1
tp1130
a(S'p1_ll'
I0
tp1131
a(S'w'
I6
tp1132
a(S'w'
I8
tp1133
a(S'tr_tl'
I54
tp1134
a(S'tr_ll'
I0
tp1135
a(S'tr_th'
I2
tp1136
a(S'w'
I7
tp1137
a(S'no_ll'
I0
tp1138
a(S'w'
I699
tp1139
a(S'w'
I7
tp1140
a(S'w'
I14
tp1141
a(S'w'
I1
tp1142
a(S'no_ll'
I0
tp1143
a(S'w'
I705
tp1144
a(S'w'
I7
tp1145
a(S'w'
I14
tp1146
a(S'no_ll'
I0
tp1147
a(S'w'
I712
tp1148
a(S'w'
I7
tp1149
a(S'w'
I14
tp1150
a(S'no_ll'
I0
tp1151
a(S'w'
I713
tp1152
a(S'w'
I7
tp1153
a(S'w'
I14
tp1154
a(S'no_ll'
I0
tp1155
a(S'w'
I713
tp1156
a(S'w'
I7
tp1157
a(S'w'
I14
tp1158
a(S'no_ll'
I0
tp1159
a(S'w'
I713
tp1160
a(S'p1_vo'
I12
tp1161
a(S'w'
I1
tp1162
a(S'w'
I6
tp1163
a(S'w'
I15
tp1164
a(S'no_ll'
I0
tp1165
a(S'w'
I712
tp1166
a(S'w'
I7
tp1167
a(S'w'
I14
tp1168
a(S'no_ll'
I0
tp1169
a(S'w'
I712
tp1170
a(S'w'
I7
tp1171
a(S'w'
I14
tp1172
a(S'no_ll'
I0
tp1173
a(S'w'
I713
tp1174
a(S'w'
I7
tp1175
a(S'w'
I14
tp1176
a(S'no_ll'
I0
tp1177
a(S'w'
I713
tp1178
a(S'w'
I7
tp1179
a(S'w'
I14
tp1180
a(S'no_ll'
I0
tp1181
a(S'w'
I713
tp1182
a(S'w'
I7
tp1183
a(S'w'
I14
tp1184
a(S'no_ll'
I0
tp1185
a(S'w'
I713
tp1186
a(S'p1_vo'
I11
tp1187
a(S'w'
I7
tp1188
a(S'w'
I15
tp1189
a(S'no_ll'
I0
tp1190
a(S'w'
I711
tp1191
a(S'w'
I7
tp1192
a(S'w'
I14
tp1193
a(S'no_ll'
I0
tp1194
a(S'w'
I713
tp1195
a(S'w'
I7
tp1196
a(S'w'
I14
tp1197
a(S'no_ll'
I0
tp1198
a(S'w'
I713
tp1199
a(S'w'
I7
tp1200
a(S'w'
I14
tp1201
a(S'no_ll'
I0
tp1202
a(S'w'
I733
tp1203
a(S'p1_vo'
I13
tp1204
a(S'p1_tl'
I107
tp1205
a(S'w'
I1
tp1206
a(S'p1_ll'
I0
tp1207
a(S'w'
I6
tp1208
a(S'w'
I8
tp1209
a(S'tr_tl'
I172
tp1210
a(S'tr_ll'
I0
tp1211
a(S'tr_th'
I1
tp1212
a(S'w'
I7
tp1213
a(S'no_ll'
I0
tp1214
a(S'w'
I699
tp1215
a(S'w'
I7
tp1216
a(S'w'
I15
tp1217
a(S'no_ll'
I0
tp1218
a(S'w'
I704
tp1219
a(S'w'
I7
tp1220
a(S'w'
I14
tp1221
a(S'no_ll'
I0
tp1222
a(S'w'
I713
tp1223
a(S'w'
I7
tp1224
a(S'w'
I14
tp1225
a(S'no_ll'
I0
tp1226
a(S'w'
I713
tp1227
a(S'w'
I7
tp1228
a(S'w'
I14
tp1229
a(S'no_ll'
I0
tp1230
a(S'w'
I713
tp1231
a(S'w'
I7
tp1232
a(S'w'
I14
tp1233
a(S'no_ll'
I0
tp1234
a(S'w'
I712
tp1235
a(S'p1_vo'
I12
tp1236
a(S'w'
I1
tp1237
a(S'w'
I6
tp1238
a(S'w'
I15
tp1239
a(S'no_ll'
I0
tp1240
a(S'w'
I712
tp1241
a(S'w'
I7
tp1242
a(S'w'
I14
tp1243
a(S'no_ll'
I0
tp1244
a(S'w'
I713
tp1245
a(S'w'
I7
tp1246
a(S'w'
I14
tp1247
a(S'no_ll'
I0
tp1248
a(S'w'
I713
tp1249
a(S'w'
I7
tp1250
a(S'w'
I14
tp1251
a(S'no_ll'
I0
tp1252
a(S'w'
I713
tp1253
a(S'w'
I7
tp1254
a(S'w'
I14
tp1255
a(S'no_ll'
I0
tp1256
a(S'w'
I712
tp1257
a(S'w'
I7
tp1258
a(S'w'
I14
tp1259
a(S'no_ll'
I0
tp1260
a(S'w'
I713
tp1261
a(S'p1_vo'
I11
tp1262
a(S'w'
I1
tp1263
a(S'w'
I6
tp1264
a(S'w'
I15
tp1265
a(S'no_ll'
I0
tp1266
a(S'w'
I712
tp1267
a(S'w'
I7
tp1268
a(S'w'
I14
tp1269
a(S'no_ll'
I0
tp1270
a(S'w'
I713
tp1271
a(S'w'
I7
tp1272
a(S'w'
I14
tp1273
a(S'no_ll'
I0
tp1274
a(S'w'
I713
tp1275
a(S'w'
I7
tp1276
a(S'w'
I14
tp1277
a(S'no_ll'
I0
tp1278
a(S'w'
I717
tp1279
a(S'p1_du'
I0
tp1280
a(S'p1_vo'
I0
tp1281
a(S'w'
I1
tp1282
a(S'p1_tl'
I0
tp1283
a(S'w'
I7
tp1284
a(S'w'
I6
tp1285
a(S'tr_lr'
I0
tp1286
a(S'w'
I1
tp1287
a(S'tr_tl'
I0
tp1288
a(S'w'
I6
tp1289
a(S'w'
I1
tp1290
a(S'no_ll'
I0
tp1291
a(S'w'
I43237
tp1292
a.