(lp1
(S'clock'
p2
I1789773
tp3
a(S'w'
I1
tp4
a(S'fc_mo'
I1
tp5
a(S'ch_no'
I1
tp6
a(S'ch_tr'
I1
tp7
a(S'ch_p2'
I1
tp8
a(S'ch_p1'
I1
tp9
a(S'w'
I3
tp10
a(S'p1_du'
I2
tp11
a(S'p1_cv'
I1
tp12
a(S'p2_du'
I2
tp13
a(S'p2_cv'
I1
tp14
a(S'w'
I56
tp15
a(S'ch_no'
I1
tp16
a(S'ch_tr'
I0
tp17
a(S'ch_p2'
I1
tp18
a(S'ch_p1'
I1
tp19
a(S'ch_no'
I1
tp20
a(S'ch_tr'
I1
tp21
a(S'ch_p2'
I1
tp22
a(S'ch_p1'
I1
tp23
a(S'w'
I3
tp24
a(S'p2_du'
I0
tp25
a(S'p2_cv'
I0
tp26
a(S'p2_vo'
I4
tp27
a(S'w'
I1
tp28
a(S'p2_sn'
I1
tp29
a(S'w'
I1
tp30
a(S'p2_du'
I2
tp31
a(S'p2_cv'
I1
tp32
a(S'p2_vo'
I0
tp33
a(S'p2_sp'
I7
tp34
a(S'p2_ss'
I7
tp35
a(S'w'
I2
tp36
a(S'tr_lr'
I31
tp37
a(S'w'
I668
tp38
a(S'fc_mo'
I1
tp39
a(S'w'
I8076
tp40
a(S'p2_tl'
I171
tp41
a(S'p2_ll'
I1
tp42
a(S'p2_th'
I1
tp43
a(S'w'
I2
tp44
a(S'p2_cv'
I0
tp45
a(S'p2_vo'
I2
tp46
a(S'w'
I1
tp47
a(S'p2_du'
I3
tp48
a(S'p2_lh'
I1
tp49
a(S'p2_cv'
I1
tp50
a(S'p2_vo'
I15
tp51
a(S'w'
I2
tp52
a(S'tr_tl'
I171
tp53
a(S'tr_ll'
I1
tp54
a(S'tr_th'
I1
tp55
a(S'w'
I729
tp56
a(S'p2_du'
I2
tp57
a(S'p2_lh'
I0
tp58
a(S'p2_vo'
I7
tp59
a(S'w'
I2935
tp60
a(S'p2_vo'
I6
tp61
a(S'w'
I5137
tp62
a(S'p2_tl'
I103
tp63
a(S'p2_ll'
I1
tp64
a(S'w'
I2
tp65
a(S'p2_cv'
I0
tp66
a(S'p2_vo'
I2
tp67
a(S'w'
I1
tp68
a(S'p2_du'
I3
tp69
a(S'p2_lh'
I1
tp70
a(S'p2_cv'
I1
tp71
a(S'p2_vo'
I15
tp72
a(S'w'
I2
tp73
a(S'tr_tl'
I103
tp74
a(S'tr_ll'
I1
tp75
a(S'w'
I728
tp76
a(S'p2_du'
I2
tp77
a(S'p2_lh'
I0
tp78
a(S'p2_vo'
I7
tp79
a(S'w'
I2935
tp80
a(S'p2_vo'
I6
tp81
a(S'w'
I5138
tp82
a(S'p2_tl'
I196
tp83
a(S'w'
I1
tp84
a(S'p2_ll'
I1
tp85
a(S'w'
I1
tp86
a(S'p2_cv'
I0
tp87
a(S'p2_vo'
I2
tp88
a(S'w'
I2
tp89
a(S'p2_du'
I3
tp90
a(S'p2_lh'
I1
tp91
a(S'p2_cv'
I1
tp92
a(S'p2_vo'
I15
tp93
a(S'w'
I2
tp94
a(S'tr_tl'
I196
tp95
a(S'w'
I1
tp96
a(S'tr_ll'
I1
tp97
a(S'w'
I726
tp98
a(S'p2_du'
I2
tp99
a(S'p2_lh'
I0
tp100
a(S'p2_vo'
I7
tp101
a(S'w'
I2935
tp102
a(S'p2_vo'
I6
tp103
a(S'w'
I24215
tp104
a(S'p2_vo'
I5
tp105
a(S'w'
I4403
tp106
a(S'p2_vo'
I4
tp107
a(S'w'
I2936
tp108
a(S'p2_tl'
I92
tp109
a(S'w'
I1
tp110
a(S'p2_ll'
I1
tp111
a(S'p2_th'
I2
tp112
a(S'w'
I1
tp113
a(S'p2_cv'
I0
tp114
a(S'p2_vo'
I2
tp115
a(S'w'
I2
tp116
a(S'p2_du'
I3
tp117
a(S'p2_lh'
I1
tp118
a(S'p2_cv'
I1
tp119
a(S'p2_vo'
I15
tp120
a(S'w'
I2
tp121
a(S'tr_tl'
I92
tp122
a(S'w'
I1
tp123
a(S'tr_ll'
I1
tp124
a(S'tr_th'
I2
tp125
a(S'w'
I726
tp126
a(S'p2_du'
I2
tp127
a(S'p2_lh'
I0
tp128
a(S'p2_vo'
I7
tp129
a(S'w'
I2935
tp130
a(S'p2_vo'
I6
tp131
a(S'w'
I5138
tp132
a(S'p2_tl'
I252
tp133
a(S'w'
I1
tp134
a(S'p2_ll'
I1
tp135
a(S'p2_th'
I1
tp136
a(S'w'
I1
tp137
a(S'p2_cv'
I0
tp138
a(S'p2_vo'
I2
tp139
a(S'w'
I2
tp140
a(S'p2_du'
I3
tp141
a(S'p2_lh'
I1
tp142
a(S'p2_cv'
I1
tp143
a(S'p2_vo'
I15
tp144
a(S'w'
I2
tp145
a(S'tr_tl'
I252
tp146
a(S'w'
I1
tp147
a(S'tr_ll'
I1
tp148
a(S'tr_th'
I1
tp149
a(S'w'
I725
tp150
a(S'p2_du'
I2
tp151
a(S'p2_lh'
I0
tp152
a(S'p2_vo'
I7
tp153
a(S'w'
I2935
tp154
a(S'p2_vo'
I6
tp155
a(S'w'
I8072
tp156
a(S'p2_ll'
I1
tp157
a(S'w'
I2
tp158
a(S'p2_cv'
I0
tp159
a(S'p2_vo'
I2
tp160
a(S'w'
I1
tp161
a(S'p2_du'
I3
tp162
a(S'p2_lh'
I1
tp163
a(S'p2_cv'
I1
tp164
a(S'p2_vo'
I15
tp165
a(S'w'
I2
tp166
a(S'tr_ll'
I1
tp167
a(S'w'
I729
tp168
a(S'p2_du'
I2
tp169
a(S'p2_lh'
I0
tp170
a(S'p2_vo'
I7
tp171
a(S'w'
I2935
tp172
a(S'p2_vo'
I6
tp173
a(S'w'
I8072
tp174
a(S'p2_ll'
I1
tp175
a(S'w'
I2
tp176
a(S'p2_cv'
I0
tp177
a(S'p2_vo'
I2
tp178
a(S'w'
I1
tp179
a(S'p2_du'
I3
tp180
a(S'p2_lh'
I1
tp181
a(S'p2_cv'
I1
tp182
a(S'p2_vo'
I15
tp183
a(S'w'
I2
tp184
a(S'tr_ll'
I1
tp185
a(S'w'
I729
tp186
a(S'p2_du'
I2
tp187
a(S'p2_lh'
I0
tp188
a(S'p2_vo'
I7
tp189
a(S'w'
I2935
tp190
a(S'p2_vo'
I6
tp191
a(S'w'
I8073
tp192
a(S'p2_tl'
I26
tp193
a(S'w'
I1
tp194
a(S'p2_ll'
I1
tp195
a(S'p2_th'
I2
tp196
a(S'w'
I1
tp197
a(S'p2_cv'
I0
tp198
a(S'p2_vo'
I2
tp199
a(S'w'
I2
tp200
a(S'p2_du'
I3
tp201
a(S'p2_lh'
I1
tp202
a(S'p2_cv'
I1
tp203
a(S'p2_vo'
I15
tp204
a(S'w'
I2
tp205
a(S'tr_tl'
I26
tp206
a(S'w'
I1
tp207
a(S'tr_ll'
I1
tp208
a(S'tr_th'
I2
tp209
a(S'w'
I725
tp210
a(S'p2_du'
I2
tp211
a(S'p2_lh'
I0
tp212
a(S'p2_vo'
I7
tp213
a(S'w'
I2935
tp214
a(S'p2_vo'
I6
tp215
a(S'w'
I5137
tp216
a(S'p2_tl'
I249
tp217
a(S'p2_ll'
I1
tp218
a(S'w'
I2
tp219
a(S'p2_cv'
I0
tp220
a(S'p2_vo'
I2
tp221
a(S'w'
I1
tp222
a(S'p2_du'
I3
tp223
a(S'p2_lh'
I1
tp224
a(S'p2_cv'
I1
tp225
a(S'p2_vo'
I15
tp226
a(S'w'
I2
tp227
a(S'tr_tl'
I249
tp228
a(S'tr_ll'
I1
tp229
a(S'w'
I729
tp230
a(S'p2_du'
I2
tp231
a(S'p2_lh'
I0
tp232
a(S'p2_vo'
I7
tp233
a(S'w'
I2935
tp234
a(S'p2_vo'
I6
tp235
a(S'w'
I5139
tp236
a(S'p2_du'
I0
tp237
a(S'p2_cv'
I0
tp238
a(S'p2_vo'
I4
tp239
a(S'p2_sp'
I0
tp240
a(S'p2_ss'
I0
tp241
a(S'w'
I1
tp242
a(S'p2_du'
I2
tp243
a(S'p2_cv'
I1
tp244
a(S'p2_vo'
I0
tp245
a(S'w'
I1
tp246
a(S'p2_sp'
I7
tp247
a(S'p2_ss'
I7
tp248
a(S'w'
I17609
tp249
a(S'p2_du'
I0
tp250
a(S'p2_cv'
I0
tp251
a(S'p2_vo'
I4
tp252
a(S'p2_sp'
I0
tp253
a(S'p2_ss'
I0
tp254
a(S'w'
I1
tp255
a(S'p2_du'
I2
tp256
a(S'p2_cv'
I1
tp257
a(S'p2_vo'
I0
tp258
a(S'w'
I1
tp259
a(S'p2_sp'
I7
tp260
a(S'p2_ss'
I7
tp261
a(S'w'
I26413
tp262
a(S'w'
I1
tp263
a(S'p2_ll'
I1
tp264
a(S'w'
I1
tp265
a(S'p2_cv'
I0
tp266
a(S'p2_vo'
I2
tp267
a(S'w'
I2
tp268
a(S'p2_du'
I3
tp269
a(S'p2_lh'
I1
tp270
a(S'p2_cv'
I1
tp271
a(S'p2_vo'
I15
tp272
a(S'w'
I3
tp273
a(S'tr_ll'
I1
tp274
a(S'w'
I726
tp275
a(S'p2_du'
I2
tp276
a(S'p2_lh'
I0
tp277
a(S'p2_vo'
I7
tp278
a(S'w'
I2935
tp279
a(S'p2_vo'
I6
tp280
a(S'w'
I5137
tp281
a(S'p2_tl'
I39
tp282
a(S'p2_ll'
I1
tp283
a(S'p2_th'
I3
tp284
a(S'w'
I2
tp285
a(S'p2_cv'
I0
tp286
a(S'p2_vo'
I2
tp287
a(S'w'
I1
tp288
a(S'p2_du'
I3
tp289
a(S'p2_lh'
I1
tp290
a(S'p2_cv'
I1
tp291
a(S'p2_vo'
I15
tp292
a(S'w'
I2
tp293
a(S'tr_tl'
I39
tp294
a(S'tr_ll'
I1
tp295
a(S'tr_th'
I3
tp296
a(S'w'
I728
tp297
a(S'p2_du'
I2
tp298
a(S'p2_lh'
I0
tp299
a(S'p2_vo'
I7
tp300
a(S'w'
I2935
tp301
a(S'p2_vo'
I6
tp302
a(S'w'
I5138
tp303
a(S'p2_du'
I0
tp304
a(S'p2_cv'
I0
tp305
a(S'p2_vo'
I4
tp306
a(S'p2_sp'
I0
tp307
a(S'p2_ss'
I0
tp308
a(S'w'
I1
tp309
a(S'p2_du'
I2
tp310
a(S'p2_cv'
I1
tp311
a(S'p2_vo'
I0
tp312
a(S'p2_sp'
I7
tp313
a(S'p2_ss'
I7
tp314
a(S'w'
I8805
tp315
a(S'p2_du'
I0
tp316
a(S'p2_cv'
I0
tp317
a(S'p2_vo'
I4
tp318
a(S'p2_sp'
I0
tp319
a(S'p2_ss'
I0
tp320
a(S'w'
I1
tp321
a(S'p2_du'
I2
tp322
a(S'p2_cv'
I1
tp323
a(S'p2_vo'
I0
tp324
a(S'p2_sp'
I7
tp325
a(S'p2_ss'
I7
tp326
a(S'w'
I8803
tp327
a(S'p2_tl'
I166
tp328
a(S'p2_ll'
I1
tp329
a(S'p2_th'
I2
tp330
a(S'w'
I2
tp331
a(S'p2_cv'
I0
tp332
a(S'p2_vo'
I2
tp333
a(S'w'
I1
tp334
a(S'p2_du'
I3
tp335
a(S'p2_lh'
I1
tp336
a(S'p2_cv'
I1
tp337
a(S'p2_vo'
I15
tp338
a(S'w'
I2
tp339
a(S'tr_tl'
I166
tp340
a(S'tr_ll'
I1
tp341
a(S'tr_th'
I2
tp342
a(S'w'
I729
tp343
a(S'p2_du'
I2
tp344
a(S'p2_lh'
I0
tp345
a(S'p2_vo'
I7
tp346
a(S'w'
I2935
tp347
a(S'p2_vo'
I6
tp348
a(S'w'
I5137
tp349
a(S'p2_tl'
I207
tp350
a(S'p2_ll'
I1
tp351
a(S'w'
I2
tp352
a(S'p2_cv'
I0
tp353
a(S'p2_vo'
I2
tp354
a(S'w'
I1
tp355
a(S'p2_du'
I3
tp356
a(S'p2_lh'
I1
tp357
a(S'p2_cv'
I1
tp358
a(S'p2_vo'
I15
tp359
a(S'w'
I2
tp360
a(S'tr_tl'
I207
tp361
a(S'tr_ll'
I1
tp362
a(S'w'
I728
tp363
a(S'p2_du'
I2
tp364
a(S'p2_lh'
I0
tp365
a(S'p2_vo'
I7
tp366
a(S'w'
I2935
tp367
a(S'p2_vo'
I6
tp368
a(S'w'
I5138
tp369
a(S'p2_du'
I0
tp370
a(S'p2_cv'
I0
tp371
a(S'p2_vo'
I4
tp372
a(S'p2_sp'
I0
tp373
a(S'p2_ss'
I0
tp374
a(S'w'
I1
tp375
a(S'p2_du'
I2
tp376
a(S'p2_cv'
I1
tp377
a(S'p2_vo'
I0
tp378
a(S'p2_sp'
I7
tp379
a(S'p2_ss'
I7
tp380
a(S'w'
I8805
tp381
a(S'p2_du'
I0
tp382
a(S'p2_cv'
I0
tp383
a(S'p2_vo'
I4
tp384
a(S'p2_sp'
I0
tp385
a(S'p2_ss'
I0
tp386
a(S'w'
I1
tp387
a(S'p2_du'
I2
tp388
a(S'p2_cv'
I1
tp389
a(S'p2_vo'
I0
tp390
a(S'p2_sp'
I7
tp391
a(S'p2_ss'
I7
tp392
a(S'w'
I8803
tp393
a(S'p2_tl'
I92
tp394
a(S'p2_ll'
I1
tp395
a(S'w'
I2
tp396
a(S'p2_cv'
I0
tp397
a(S'p2_vo'
I2
tp398
a(S'w'
I1
tp399
a(S'p2_du'
I3
tp400
a(S'p2_lh'
I1
tp401
a(S'p2_cv'
I1
tp402
a(S'p2_vo'
I15
tp403
a(S'w'
I2
tp404
a(S'tr_tl'
I92
tp405
a(S'tr_ll'
I1
tp406
a(S'w'
I729
tp407
a(S'p2_du'
I2
tp408
a(S'p2_lh'
I0
tp409
a(S'p2_vo'
I7
tp410
a(S'w'
I2935
tp411
a(S'p2_vo'
I6
tp412
a(S'w'
I5137
tp413
a(S'p2_tl'
I128
tp414
a(S'p2_ll'
I1
tp415
a(S'w'
I2
tp416
a(S'p2_cv'
I0
tp417
a(S'p2_vo'
I2
tp418
a(S'w'
I1
tp419
a(S'p2_du'
I3
tp420
a(S'p2_lh'
I1
tp421
a(S'p2_cv'
I1
tp422
a(S'p2_vo'
I15
tp423
a(S'w'
I2
tp424
a(S'tr_tl'
I128
tp425
a(S'tr_ll'
I1
tp426
a(S'w'
I728
tp427
a(S'p2_du'
I2
tp428
a(S'p2_lh'
I0
tp429
a(S'p2_vo'
I7
tp430
a(S'w'
I2935
tp431
a(S'p2_vo'
I6
tp432
a(S'w'
I5137
tp433
a(S'p2_tl'
I223
tp434
a(S'p2_ll'
I1
tp435
a(S'p2_th'
I1
tp436
a(S'w'
I2
tp437
a(S'p2_cv'
I0
tp438
a(S'p2_vo'
I2
tp439
a(S'w'
I1
tp440
a(S'p2_du'
I3
tp441
a(S'p2_lh'
I1
tp442
a(S'p2_cv'
I1
tp443
a(S'p2_vo'
I15
tp444
a(S'w'
I2
tp445
a(S'tr_tl'
I223
tp446
a(S'tr_ll'
I1
tp447
a(S'tr_th'
I1
tp448
a(S'w'
I729
tp449
a(S'p2_du'
I2
tp450
a(S'p2_lh'
I0
tp451
a(S'p2_vo'
I7
tp452
a(S'w'
I2935
tp453
a(S'p2_vo'
I6
tp454
a(S'w'
I5137
tp455
a(S'p2_tl'
I196
tp456
a(S'p2_ll'
I1
tp457
a(S'w'
I2
tp458
a(S'p2_cv'
I0
tp459
a(S'p2_vo'
I2
tp460
a(S'w'
I1
tp461
a(S'p2_du'
I3
tp462
a(S'p2_lh'
I1
tp463
a(S'p2_cv'
I1
tp464
a(S'p2_vo'
I15
tp465
a(S'w'
I2
tp466
a(S'tr_tl'
I196
tp467
a(S'tr_ll'
I1
tp468
a(S'w'
I728
tp469
a(S'p2_du'
I2
tp470
a(S'p2_lh'
I0
tp471
a(S'p2_vo'
I7
tp472
a(S'w'
I2935
tp473
a(S'p2_vo'
I6
tp474
a(S'w'
I5138
tp475
a(S'p2_tl'
I124
tp476
a(S'w'
I1
tp477
a(S'p2_ll'
I1
tp478
a(S'w'
I1
tp479
a(S'p2_cv'
I0
tp480
a(S'p2_vo'
I2
tp481
a(S'w'
I2
tp482
a(S'p2_du'
I3
tp483
a(S'p2_lh'
I1
tp484
a(S'p2_cv'
I1
tp485
a(S'p2_vo'
I15
tp486
a(S'w'
I2
tp487
a(S'tr_tl'
I124
tp488
a(S'w'
I1
tp489
a(S'tr_ll'
I1
tp490
a(S'w'
I726
tp491
a(S'p2_du'
I2
tp492
a(S'p2_lh'
I0
tp493
a(S'p2_vo'
I7
tp494
a(S'w'
I2935
tp495
a(S'p2_vo'
I6
tp496
a(S'w'
I24215
tp497
a(S'p2_vo'
I5
tp498
a(S'w'
I4403
tp499
a(S'p2_vo'
I4
tp500
a(S'w'
I4403
tp501
a(S'p2_vo'
I3
tp502
a(S'w'
I2201
tp503
a(S'p2_vo'
I2
tp504
a(S'w'
I1468
tp505
a(S'p2_vo'
I1
tp506
a(S'w'
I733
tp507
a(S'p2_vo'
I0
tp508
a(S'w'
I29354
tp509
a(S'p2_du'
I0
tp510
a(S'p2_cv'
I0
tp511
a(S'p2_vo'
I4
tp512
a(S'p2_sp'
I0
tp513
a(S'p2_ss'
I0
tp514
a(S'w'
I1
tp515
a(S'p2_du'
I2
tp516
a(S'p2_cv'
I1
tp517
a(S'p2_vo'
I0
tp518
a(S'w'
I1
tp519
a(S'p2_sp'
I7
tp520
a(S'p2_ss'
I7
tp521
a(S'w'
I8806
tp522
a.