(lp1
(S'clock'
p2
I1789773
tp3
a(S'w'
I1
tp4
a(S'fc_mo'
I1
tp5
a(S'ch_no'
I1
tp6
a(S'ch_tr'
I1
tp7
a(S'ch_p2'
I1
tp8
a(S'ch_p1'
I1
tp9
a(S'w'
I3
tp10
a(S'p1_du'
I2
tp11
a(S'p1_cv'
I1
tp12
a(S'p2_du'
I2
tp13
a(S'p2_cv'
I1
tp14
a(S'w'
I57
tp15
a(S'ch_no'
I1
tp16
a(S'ch_tr'
I0
tp17
a(S'ch_p2'
I1
tp18
a(S'ch_p1'
I1
tp19
a(S'w'
I1
tp20
a(S'ch_no'
I1
tp21
a(S'ch_tr'
I1
tp22
a(S'ch_p2'
I1
tp23
a(S'ch_p1'
I1
tp24
a(S'w'
I2
tp25
a(S'p2_tl'
I142
tp26
a(S'p2_ll'
I1
tp27
a(S'w'
I2
tp28
a(S'p2_cv'
I0
tp29
a(S'p2_vo'
I2
tp30
a(S'p2_sp'
I7
tp31
a(S'p2_sn'
I1
tp32
a(S'p2_ss'
I7
tp33
a(S'w'
I1
tp34
a(S'p2_cv'
I1
tp35
a(S'p2_vo'
I0
tp36
a(S'w'
I3
tp37
a(S'p1_tl'
I58
tp38
a(S'p1_ll'
I1
tp39
a(S'p1_th'
I2
tp40
a(S'w'
I2
tp41
a(S'p1_sp'
I7
tp42
a(S'p1_sn'
I1
tp43
a(S'p1_ss'
I7
tp44
a(S'p1_cv'
I0
tp45
a(S'p1_vo'
I2
tp46
a(S'w'
I1
tp47
a(S'p1_cv'
I1
tp48
a(S'p1_vo'
I0
tp49
a(S'w'
I666
tp50
a(S'p2_vo'
I6
tp51
a(S'w'
I2
tp52
a(S'p1_vo'
I6
tp53
a(S'w'
I2200
tp54
a(S'p2_vo'
I5
tp55
a(S'w'
I2
tp56
a(S'p1_vo'
I5
tp57
a(S'w'
I3667
tp58
a(S'p2_vo'
I4
tp59
a(S'w'
I2
tp60
a(S'p1_vo'
I4
tp61
a(S'w'
I2933
tp62
a(S'p2_vo'
I3
tp63
a(S'w'
I2
tp64
a(S'p1_vo'
I3
tp65
a(S'w'
I2199
tp66
a(S'p2_tl'
I126
tp67
a(S'p2_ll'
I1
tp68
a(S'w'
I2
tp69
a(S'p2_cv'
I0
tp70
a(S'p2_vo'
I2
tp71
a(S'w'
I1
tp72
a(S'p2_cv'
I1
tp73
a(S'p2_vo'
I0
tp74
a(S'w'
I731
tp75
a(S'p2_vo'
I6
tp76
a(S'w'
I2201
tp77
a(S'p2_vo'
I5
tp78
a(S'w'
I2
tp79
a(S'p1_vo'
I2
tp80
a(S'w'
I2202
tp81
a(S'p1_vo'
I1
tp82
a(S'w'
I734
tp83
a(S'p1_vo'
I0
tp84
a(S'w'
I731
tp85
a(S'p2_vo'
I4
tp86
a(S'w'
I2935
tp87
a(S'p2_vo'
I3
tp88
a(S'w'
I2202
tp89
a(S'p2_tl'
I119
tp90
a(S'p2_ll'
I1
tp91
a(S'w'
I2
tp92
a(S'p2_cv'
I0
tp93
a(S'p2_vo'
I2
tp94
a(S'w'
I1
tp95
a(S'p2_cv'
I1
tp96
a(S'p2_vo'
I0
tp97
a(S'w'
I3
tp98
a(S'p1_tl'
I92
tp99
a(S'p1_ll'
I1
tp100
a(S'w'
I2
tp101
a(S'p1_cv'
I0
tp102
a(S'p1_vo'
I2
tp103
a(S'w'
I1
tp104
a(S'p1_cv'
I1
tp105
a(S'p1_vo'
I0
tp106
a(S'w'
I725
tp107
a(S'p2_vo'
I6
tp108
a(S'w'
I2
tp109
a(S'p1_vo'
I6
tp110
a(S'w'
I2199
tp111
a(S'p2_vo'
I5
tp112
a(S'w'
I2
tp113
a(S'p1_vo'
I5
tp114
a(S'w'
I3667
tp115
a(S'p2_vo'
I4
tp116
a(S'w'
I2
tp117
a(S'p1_vo'
I4
tp118
a(S'w'
I2933
tp119
a(S'p2_vo'
I3
tp120
a(S'w'
I2
tp121
a(S'p1_vo'
I3
tp122
a(S'w'
I2200
tp123
a(S'p2_tl'
I95
tp124
a(S'p2_ll'
I1
tp125
a(S'w'
I2
tp126
a(S'p2_cv'
I0
tp127
a(S'p2_vo'
I2
tp128
a(S'w'
I1
tp129
a(S'p2_cv'
I1
tp130
a(S'p2_vo'
I0
tp131
a(S'w'
I730
tp132
a(S'p2_vo'
I6
tp133
a(S'w'
I2202
tp134
a(S'p2_vo'
I5
tp135
a(S'w'
I2
tp136
a(S'p1_vo'
I2
tp137
a(S'w'
I2201
tp138
a(S'p1_vo'
I1
tp139
a(S'w'
I734
tp140
a(S'p1_vo'
I0
tp141
a(S'w'
I732
tp142
a(S'p2_vo'
I4
tp143
a(S'w'
I2935
tp144
a(S'p2_vo'
I3
tp145
a(S'w'
I2201
tp146
a(S'p2_tl'
I84
tp147
a(S'p2_ll'
I1
tp148
a(S'w'
I2
tp149
a(S'p2_cv'
I0
tp150
a(S'p2_vo'
I2
tp151
a(S'w'
I1
tp152
a(S'p2_cv'
I1
tp153
a(S'p2_vo'
I0
tp154
a(S'w'
I3
tp155
a(S'p1_tl'
I128
tp156
a(S'p1_ll'
I1
tp157
a(S'w'
I2
tp158
a(S'p1_cv'
I0
tp159
a(S'p1_vo'
I2
tp160
a(S'w'
I1
tp161
a(S'p1_cv'
I1
tp162
a(S'p1_vo'
I0
tp163
a(S'w'
I725
tp164
a(S'p2_vo'
I6
tp165
a(S'w'
I2
tp166
a(S'p1_vo'
I6
tp167
a(S'w'
I2199
tp168
a(S'p2_vo'
I5
tp169
a(S'w'
I2
tp170
a(S'p1_vo'
I5
tp171
a(S'w'
I3667
tp172
a(S'p2_vo'
I4
tp173
a(S'w'
I2
tp174
a(S'p1_vo'
I4
tp175
a(S'w'
I2933
tp176
a(S'p2_vo'
I3
tp177
a(S'w'
I2
tp178
a(S'p1_vo'
I3
tp179
a(S'w'
I2200
tp180
a(S'p2_tl'
I95
tp181
a(S'p2_ll'
I1
tp182
a(S'w'
I2
tp183
a(S'p2_cv'
I0
tp184
a(S'p2_vo'
I2
tp185
a(S'w'
I1
tp186
a(S'p2_cv'
I1
tp187
a(S'p2_vo'
I0
tp188
a(S'w'
I731
tp189
a(S'p2_vo'
I6
tp190
a(S'w'
I2201
tp191
a(S'p2_vo'
I5
tp192
a(S'w'
I2
tp193
a(S'p1_vo'
I2
tp194
a(S'w'
I2201
tp195
a(S'p1_vo'
I1
tp196
a(S'w'
I734
tp197
a(S'p1_vo'
I0
tp198
a(S'w'
I732
tp199
a(S'p2_vo'
I4
tp200
a(S'w'
I2935
tp201
a(S'p2_vo'
I3
tp202
a(S'w'
I2203
tp203
a(S'p2_tl'
I119
tp204
a(S'w'
I1
tp205
a(S'p2_ll'
I1
tp206
a(S'w'
I1
tp207
a(S'p2_cv'
I0
tp208
a(S'p2_vo'
I2
tp209
a(S'w'
I2
tp210
a(S'p2_cv'
I1
tp211
a(S'p2_vo'
I0
tp212
a(S'w'
I2
tp213
a(S'p1_tl'
I166
tp214
a(S'w'
I1
tp215
a(S'p1_ll'
I1
tp216
a(S'w'
I1
tp217
a(S'p1_cv'
I0
tp218
a(S'p1_vo'
I2
tp219
a(S'w'
I1
tp220
a(S'p1_cv'
I1
tp221
a(S'p1_vo'
I0
tp222
a(S'w'
I723
tp223
a(S'p2_vo'
I6
tp224
a(S'w'
I2
tp225
a(S'p1_vo'
I6
tp226
a(S'w'
I2200
tp227
a(S'p2_vo'
I5
tp228
a(S'w'
I2
tp229
a(S'p1_vo'
I5
tp230
a(S'w'
I3667
tp231
a(S'p2_vo'
I4
tp232
a(S'w'
I2
tp233
a(S'p1_vo'
I4
tp234
a(S'w'
I2933
tp235
a(S'p2_vo'
I3
tp236
a(S'w'
I2
tp237
a(S'p1_vo'
I3
tp238
a(S'w'
I5134
tp239
a(S'p2_vo'
I2
tp240
a(S'w'
I2
tp241
a(S'p1_vo'
I2
tp242
a(S'w'
I2200
tp243
a(S'p2_vo'
I1
tp244
a(S'w'
I2
tp245
a(S'p1_vo'
I1
tp246
a(S'w'
I732
tp247
a(S'p2_vo'
I0
tp248
a(S'w'
I1
tp249
a(S'p1_vo'
I0
tp250
a(S'w'
I5871
tp251
a(S'p2_du'
I0
tp252
a(S'p2_cv'
I0
tp253
a(S'p2_vo'
I4
tp254
a(S'p2_sp'
I0
tp255
a(S'p2_ss'
I0
tp256
a(S'w'
I1
tp257
a(S'p2_du'
I2
tp258
a(S'p2_cv'
I1
tp259
a(S'p2_vo'
I0
tp260
a(S'w'
I1
tp261
a(S'p2_sp'
I7
tp262
a(S'p2_ss'
I7
tp263
a(S'w'
I3
tp264
a(S'p1_sp'
I0
tp265
a(S'p1_ss'
I0
tp266
a(S'p1_du'
I0
tp267
a(S'p1_cv'
I0
tp268
a(S'w'
I1
tp269
a(S'p1_du'
I2
tp270
a(S'p1_cv'
I1
tp271
a(S'p1_sp'
I7
tp272
a(S'p1_ss'
I7
tp273
a(S'w'
I4396
tp274
a(S'p2_tl'
I126
tp275
a(S'w'
I1
tp276
a(S'p2_ll'
I1
tp277
a(S'w'
I1
tp278
a(S'p2_cv'
I0
tp279
a(S'p2_vo'
I2
tp280
a(S'w'
I2
tp281
a(S'p2_cv'
I1
tp282
a(S'p2_vo'
I0
tp283
a(S'w'
I2
tp284
a(S'p1_tl'
I254
tp285
a(S'w'
I1
tp286
a(S'p1_ll'
I1
tp287
a(S'p1_th'
I0
tp288
a(S'w'
I1
tp289
a(S'p1_cv'
I0
tp290
a(S'p1_vo'
I2
tp291
a(S'w'
I1
tp292
a(S'p1_cv'
I1
tp293
a(S'p1_vo'
I0
tp294
a(S'w'
I723
tp295
a(S'p2_vo'
I6
tp296
a(S'w'
I2
tp297
a(S'p1_vo'
I6
tp298
a(S'w'
I2200
tp299
a(S'p2_vo'
I5
tp300
a(S'w'
I2
tp301
a(S'p1_vo'
I5
tp302
a(S'w'
I3667
tp303
a(S'p2_vo'
I4
tp304
a(S'w'
I2
tp305
a(S'p1_vo'
I4
tp306
a(S'w'
I2933
tp307
a(S'p2_vo'
I3
tp308
a(S'w'
I2
tp309
a(S'p1_vo'
I3
tp310
a(S'w'
I5134
tp311
a(S'p2_vo'
I2
tp312
a(S'w'
I2
tp313
a(S'p1_vo'
I2
tp314
a(S'w'
I2200
tp315
a(S'p2_vo'
I1
tp316
a(S'w'
I2
tp317
a(S'p1_vo'
I1
tp318
a(S'w'
I732
tp319
a(S'p2_vo'
I0
tp320
a(S'w'
I1
tp321
a(S'p1_vo'
I0
tp322
a(S'w'
I5870
tp323
a(S'p2_tl'
I169
tp324
a(S'w'
I1
tp325
a(S'p2_ll'
I1
tp326
a(S'w'
I1
tp327
a(S'p2_cv'
I0
tp328
a(S'p2_vo'
I2
tp329
a(S'w'
I2
tp330
a(S'p2_cv'
I1
tp331
a(S'p2_vo'
I0
tp332
a(S'w'
I729
tp333
a(S'p2_vo'
I6
tp334
a(S'w'
I2201
tp335
a(S'p2_vo'
I5
tp336
a(S'w'
I3669
tp337
a(S'p2_vo'
I4
tp338
a(S'w'
I2935
tp339
a(S'p2_vo'
I3
tp340
a(S'w'
I2205
tp341
a(S'p1_tl'
I142
tp342
a(S'p1_ll'
I1
tp343
a(S'w'
I1
tp344
a(S'p1_cv'
I0
tp345
a(S'p1_vo'
I2
tp346
a(S'w'
I2
tp347
a(S'p1_cv'
I1
tp348
a(S'p1_vo'
I0
tp349
a(S'w'
I729
tp350
a(S'p1_vo'
I6
tp351
a(S'w'
I2200
tp352
a(S'p2_vo'
I2
tp353
a(S'w'
I2
tp354
a(S'p1_vo'
I5
tp355
a(S'w'
I2199
tp356
a(S'p2_vo'
I1
tp357
a(S'w'
I734
tp358
a(S'p2_vo'
I0
tp359
a(S'w'
I736
tp360
a(S'p1_vo'
I4
tp361
a(S'w'
I2935
tp362
a(S'p1_vo'
I3
tp363
a(S'w'
I5136
tp364
a(S'p1_vo'
I2
tp365
a(S'w'
I2202
tp366
a(S'p1_vo'
I1
tp367
a(S'w'
I733
tp368
a(S'p1_vo'
I0
tp369
a(S'w'
I5869
tp370
a(S'p2_tl'
I95
tp371
a(S'p2_ll'
I1
tp372
a(S'w'
I2
tp373
a(S'p2_cv'
I0
tp374
a(S'p2_vo'
I2
tp375
a(S'w'
I1
tp376
a(S'p2_cv'
I1
tp377
a(S'p2_vo'
I0
tp378
a(S'w'
I731
tp379
a(S'p2_vo'
I6
tp380
a(S'w'
I2201
tp381
a(S'p2_vo'
I5
tp382
a(S'w'
I3669
tp383
a(S'p2_vo'
I4
tp384
a(S'w'
I2935
tp385
a(S'p2_vo'
I3
tp386
a(S'w'
I2205
tp387
a(S'p1_tl'
I84
tp388
a(S'p1_ll'
I1
tp389
a(S'w'
I1
tp390
a(S'p1_cv'
I0
tp391
a(S'p1_vo'
I2
tp392
a(S'w'
I2
tp393
a(S'p1_cv'
I1
tp394
a(S'p1_vo'
I0
tp395
a(S'w'
I729
tp396
a(S'p1_vo'
I6
tp397
a(S'w'
I2200
tp398
a(S'p2_vo'
I2
tp399
a(S'w'
I2
tp400
a(S'p1_vo'
I5
tp401
a(S'w'
I2199
tp402
a(S'p2_vo'
I1
tp403
a(S'w'
I734
tp404
a(S'p2_vo'
I0
tp405
a(S'w'
I736
tp406
a(S'p1_vo'
I4
tp407
a(S'w'
I2935
tp408
a(S'p1_vo'
I3
tp409
a(S'w'
I5136
tp410
a(S'p1_vo'
I2
tp411
a(S'w'
I2202
tp412
a(S'p1_vo'
I1
tp413
a(S'w'
I733
tp414
a(S'p1_vo'
I0
tp415
a(S'w'
I5870
tp416
a(S'p2_tl'
I126
tp417
a(S'w'
I1
tp418
a(S'p2_ll'
I1
tp419
a(S'w'
I1
tp420
a(S'p2_cv'
I0
tp421
a(S'p2_vo'
I2
tp422
a(S'w'
I2
tp423
a(S'p2_cv'
I1
tp424
a(S'p2_vo'
I0
tp425
a(S'w'
I3
tp426
a(S'p1_sp'
I0
tp427
a(S'p1_ss'
I0
tp428
a(S'p1_du'
I0
tp429
a(S'p1_cv'
I0
tp430
a(S'w'
I1
tp431
a(S'p1_du'
I2
tp432
a(S'p1_cv'
I1
tp433
a(S'p1_sp'
I7
tp434
a(S'p1_ss'
I7
tp435
a(S'w'
I725
tp436
a(S'p2_vo'
I6
tp437
a(S'w'
I2201
tp438
a(S'p2_vo'
I5
tp439
a(S'w'
I1469
tp440
a(S'p2_du'
I0
tp441
a(S'p2_cv'
I0
tp442
a(S'p2_vo'
I4
tp443
a(S'p2_sp'
I0
tp444
a(S'p2_ss'
I0
tp445
a(S'w'
I1
tp446
a(S'p2_du'
I2
tp447
a(S'p2_cv'
I1
tp448
a(S'p2_vo'
I0
tp449
a(S'p2_sp'
I7
tp450
a(S'p2_ss'
I7
tp451
a(S'w'
I3
tp452
a(S'p1_tl'
I95
tp453
a(S'p1_ll'
I1
tp454
a(S'w'
I2
tp455
a(S'p1_cv'
I0
tp456
a(S'p1_vo'
I2
tp457
a(S'w'
I1
tp458
a(S'p1_cv'
I1
tp459
a(S'p1_vo'
I0
tp460
a(S'w'
I727
tp461
a(S'p1_vo'
I6
tp462
a(S'w'
I2202
tp463
a(S'p1_vo'
I5
tp464
a(S'w'
I1466
tp465
a(S'p2_du'
I0
tp466
a(S'p2_cv'
I0
tp467
a(S'p2_vo'
I4
tp468
a(S'p2_sp'
I0
tp469
a(S'p2_ss'
I0
tp470
a(S'w'
I1
tp471
a(S'p2_du'
I2
tp472
a(S'p2_cv'
I1
tp473
a(S'p2_vo'
I0
tp474
a(S'p2_sp'
I7
tp475
a(S'p2_ss'
I7
tp476
a(S'w'
I3
tp477
a(S'p1_sp'
I0
tp478
a(S'p1_ss'
I0
tp479
a(S'w'
I1
tp480
a(S'p1_du'
I0
tp481
a(S'p1_cv'
I0
tp482
a(S'p1_vo'
I0
tp483
a(S'w'
I1
tp484
a(S'p1_du'
I2
tp485
a(S'p1_cv'
I1
tp486
a(S'p1_sp'
I7
tp487
a(S'p1_ss'
I7
tp488
a(S'w'
I4397
tp489
a(S'p2_tl'
I63
tp490
a(S'w'
I1
tp491
a(S'p2_ll'
I1
tp492
a(S'w'
I1
tp493
a(S'p2_cv'
I0
tp494
a(S'p2_vo'
I2
tp495
a(S'w'
I2
tp496
a(S'p2_cv'
I1
tp497
a(S'p2_vo'
I0
tp498
a(S'w'
I3
tp499
a(S'p1_sp'
I0
tp500
a(S'p1_ss'
I0
tp501
a(S'p1_du'
I0
tp502
a(S'p1_cv'
I0
tp503
a(S'w'
I1
tp504
a(S'p1_du'
I2
tp505
a(S'p1_cv'
I1
tp506
a(S'p1_sp'
I7
tp507
a(S'p1_ss'
I7
tp508
a(S'w'
I725
tp509
a(S'p2_vo'
I6
tp510
a(S'w'
I2201
tp511
a(S'p2_vo'
I5
tp512
a(S'w'
I3669
tp513
a(S'p2_vo'
I4
tp514
a(S'w'
I2935
tp515
a(S'p2_vo'
I3
tp516
a(S'w'
I5137
tp517
a(S'p2_vo'
I2
tp518
a(S'w'
I2201
tp519
a(S'p2_vo'
I1
tp520
a(S'w'
I734
tp521
a(S'p2_vo'
I0
tp522
a(S'w'
I29352
tp523
a(S'w'
I20978
tp524
a.