(lp1
(S'clock'
p2
I1789773
tp3
a(S'ch_no'
I1
tp4
a(S'ch_tr'
I1
tp5
a(S'ch_p2'
I1
tp6
a(S'ch_p1'
I1
tp7
a(S'w'
I71
tp8
a(S'ch_no'
I1
tp9
a(S'ch_tr'
I1
tp10
a(S'ch_p2'
I1
tp11
a(S'ch_p1'
I1
tp12
a(S'w'
I13
tp13
a(S'no_lh'
I1
tp14
a(S'no_cv'
I1
tp15
a(S'w'
I6
tp16
a(S'p1_du'
I2
tp17
a(S'p1_lh'
I1
tp18
a(S'p1_cv'
I1
tp19
a(S'p1_vo'
I6
tp20
a(S'p1_sn'
I1
tp21
a(S'w'
I1
tp22
a(S'p1_tl'
I83
tp23
a(S'p1_ll'
I19
tp24
a(S'p1_th'
I1
tp25
a(S'w'
I4
tp26
a(S'p2_du'
I3
tp27
a(S'p2_lh'
I1
tp28
a(S'p2_cv'
I1
tp29
a(S'p2_vo'
I5
tp30
a(S'p2_sn'
I1
tp31
a(S'w'
I1
tp32
a(S'p2_tl'
I166
tp33
a(S'p2_ll'
I19
tp34
a(S'p2_th'
I2
tp35
a(S'w'
I4
tp36
a(S'tr_lh'
I1
tp37
a(S'tr_lr'
I14
tp38
a(S'tr_tl'
I147
tp39
a(S'w'
I1
tp40
a(S'tr_ll'
I3
tp41
a(S'tr_th'
I1
tp42
a(S'w'
I664
tp43
a(S'p1_vo'
I5
tp44
a(S'w'
I1
tp45
a(S'p1_tl'
I81
tp46
a(S'w'
I4
tp47
a(S'p2_vo'
I4
tp48
a(S'w'
I1
tp49
a(S'w'
I726
tp50
a(S'p1_tl'
I80
tp51
a(S'w'
I5
tp52
a(S'w'
I731
tp53
a(S'p1_vo'
I4
tp54
a(S'w'
I1
tp55
a(S'p1_tl'
I81
tp56
a(S'w'
I4
tp57
a(S'p2_vo'
I3
tp58
a(S'w'
I1
tp59
a(S'w'
I725
tp60
a(S'p1_tl'
I83
tp61
a(S'w'
I5
tp62
a(S'w'
I729
tp63
a(S'p1_tl'
I84
tp64
a(S'w'
I5
tp65
a(S'w'
I3
tp66
a(S'tr_lr'
I0
tp67
a(S'w'
I727
tp68
a(S'p1_vo'
I3
tp69
a(S'w'
I1
tp70
a(S'p1_tl'
I85
tp71
a(S'w'
I3
tp72
a(S'p2_vo'
I2
tp73
a(S'w'
I1
tp74
a(S'w'
I748
tp75
a(S'ch_no'
I1
tp76
a(S'ch_tr'
I1
tp77
a(S'ch_p2'
I1
tp78
a(S'ch_p1'
I1
tp79
a(S'w'
I1
tp80
a(S'ch_no'
I1
tp81
a(S'ch_tr'
I1
tp82
a(S'ch_p2'
I1
tp83
a(S'ch_p1'
I1
tp84
a(S'w'
I12
tp85
a(S'p1_vo'
I6
tp86
a(S'w'
I1
tp87
a(S'p1_tl'
I148
tp88
a(S'w'
I4
tp89
a(S'p2_vo'
I5
tp90
a(S'w'
I1
tp91
a(S'p2_tl'
I58
tp92
a(S'w'
I3
tp93
a(S'tr_lr'
I14
tp94
a(S'w'
I1
tp95
a(S'tr_tl'
I83
tp96
a(S'tr_ll'
I3
tp97
a(S'w'
I693
tp98
a(S'p1_vo'
I5
tp99
a(S'w'
I1
tp100
a(S'p1_tl'
I147
tp101
a(S'w'
I4
tp102
a(S'p2_vo'
I4
tp103
a(S'w'
I1
tp104
a(S'w'
I726
tp105
a(S'p1_tl'
I145
tp106
a(S'w'
I5
tp107
a(S'w'
I730
tp108
a(S'p1_vo'
I4
tp109
a(S'w'
I1
tp110
a(S'p1_tl'
I144
tp111
a(S'w'
I4
tp112
a(S'p2_vo'
I3
tp113
a(S'w'
I1
tp114
a(S'w'
I726
tp115
a(S'p1_tl'
I145
tp116
a(S'w'
I4
tp117
a(S'w'
I730
tp118
a(S'p1_tl'
I147
tp119
a(S'w'
I5
tp120
a(S'w'
I3
tp121
a(S'tr_lr'
I0
tp122
a(S'w'
I727
tp123
a(S'p1_vo'
I3
tp124
a(S'w'
I1
tp125
a(S'p1_tl'
I148
tp126
a(S'w'
I3
tp127
a(S'p2_vo'
I2
tp128
a(S'w'
I1
tp129
a(S'w'
I748
tp130
a(S'ch_no'
I1
tp131
a(S'ch_tr'
I1
tp132
a(S'ch_p2'
I1
tp133
a(S'ch_p1'
I1
tp134
a(S'w'
I1
tp135
a(S'ch_no'
I1
tp136
a(S'ch_tr'
I1
tp137
a(S'ch_p2'
I1
tp138
a(S'ch_p1'
I1
tp139
a(S'w'
I12
tp140
a(S'p1_vo'
I6
tp141
a(S'w'
I1
tp142
a(S'p1_tl'
I85
tp143
a(S'w'
I4
tp144
a(S'p2_vo'
I5
tp145
a(S'w'
I1
tp146
a(S'p2_tl'
I223
tp147
a(S'w'
I1
tp148
a(S'p2_ll'
I19
tp149
a(S'p2_th'
I1
tp150
a(S'w'
I3
tp151
a(S'tr_lr'
I14
tp152
a(S'tr_tl'
I29
tp153
a(S'w'
I1
tp154
a(S'tr_ll'
I3
tp155
a(S'w'
I691
tp156
a(S'p1_vo'
I5
tp157
a(S'w'
I1
tp158
a(S'p1_tl'
I84
tp159
a(S'w'
I4
tp160
a(S'p2_vo'
I4
tp161
a(S'w'
I1
tp162
a(S'w'
I726
tp163
a(S'p1_tl'
I83
tp164
a(S'w'
I5
tp165
a(S'w'
I731
tp166
a(S'p1_vo'
I4
tp167
a(S'w'
I1
tp168
a(S'p1_tl'
I81
tp169
a(S'w'
I4
tp170
a(S'p2_vo'
I3
tp171
a(S'w'
I1
tp172
a(S'w'
I726
tp173
a(S'p1_tl'
I80
tp174
a(S'w'
I4
tp175
a(S'w'
I730
tp176
a(S'p1_tl'
I81
tp177
a(S'w'
I5
tp178
a(S'w'
I3
tp179
a(S'tr_lr'
I0
tp180
a(S'w'
I726
tp181
a(S'p1_vo'
I3
tp182
a(S'w'
I1
tp183
a(S'p1_tl'
I83
tp184
a(S'w'
I3
tp185
a(S'p2_vo'
I2
tp186
a(S'w'
I1
tp187
a(S'w'
I748
tp188
a(S'ch_no'
I1
tp189
a(S'ch_tr'
I1
tp190
a(S'ch_p2'
I1
tp191
a(S'ch_p1'
I1
tp192
a(S'w'
I1
tp193
a(S'ch_no'
I1
tp194
a(S'ch_tr'
I1
tp195
a(S'ch_p2'
I1
tp196
a(S'ch_p1'
I1
tp197
a(S'w'
I12
tp198
a(S'p1_vo'
I6
tp199
a(S'w'
I1
tp200
a(S'p1_tl'
I30
tp201
a(S'w'
I4
tp202
a(S'p2_vo'
I5
tp203
a(S'w'
I1
tp204
a(S'p2_tl'
I58
tp205
a(S'p2_ll'
I19
tp206
a(S'p2_th'
I2
tp207
a(S'w'
I3
tp208
a(S'tr_lr'
I14
tp209
a(S'w'
I1
tp210
a(S'tr_tl'
I239
tp211
a(S'w'
I1
tp212
a(S'tr_ll'
I3
tp213
a(S'tr_th'
I0
tp214
a(S'w'
I692
tp215
a(S'p1_vo'
I5
tp216
a(S'w'
I1
tp217
a(S'p1_tl'
I31
tp218
a(S'w'
I4
tp219
a(S'p2_vo'
I4
tp220
a(S'w'
I1
tp221
a(S'w'
I726
tp222
a(S'p1_tl'
I30
tp223
a(S'w'
I5
tp224
a(S'w'
I731
tp225
a(S'p1_vo'
I4
tp226
a(S'w'
I1
tp227
a(S'p1_tl'
I29
tp228
a(S'w'
I4
tp229
a(S'p2_vo'
I3
tp230
a(S'w'
I1
tp231
a(S'w'
I725
tp232
a(S'p1_tl'
I27
tp233
a(S'w'
I4
tp234
a(S'w'
I730
tp235
a(S'p1_tl'
I26
tp236
a(S'w'
I5
tp237
a(S'w'
I3
tp238
a(S'tr_lr'
I0
tp239
a(S'w'
I727
tp240
a(S'p1_vo'
I3
tp241
a(S'w'
I1
tp242
a(S'p1_tl'
I27
tp243
a(S'w'
I3
tp244
a(S'p2_vo'
I2
tp245
a(S'w'
I1
tp246
a(S'w'
I748
tp247
a(S'ch_no'
I1
tp248
a(S'ch_tr'
I1
tp249
a(S'ch_p2'
I1
tp250
a(S'ch_p1'
I1
tp251
a(S'ch_no'
I1
tp252
a(S'ch_tr'
I1
tp253
a(S'ch_p2'
I1
tp254
a(S'ch_p1'
I1
tp255
a(S'w'
I13
tp256
a(S'p1_vo'
I6
tp257
a(S'w'
I1
tp258
a(S'p1_tl'
I83
tp259
a(S'w'
I4
tp260
a(S'p2_vo'
I5
tp261
a(S'w'
I1
tp262
a(S'p2_tl'
I223
tp263
a(S'p2_ll'
I19
tp264
a(S'p2_th'
I1
tp265
a(S'w'
I3
tp266
a(S'tr_lr'
I14
tp267
a(S'w'
I1
tp268
a(S'tr_tl'
I29
tp269
a(S'w'
I1
tp270
a(S'tr_ll'
I3
tp271
a(S'tr_th'
I1
tp272
a(S'w'
I691
tp273
a(S'p1_vo'
I5
tp274
a(S'w'
I1
tp275
a(S'p1_tl'
I84
tp276
a(S'w'
I4
tp277
a(S'p2_vo'
I4
tp278
a(S'w'
I1
tp279
a(S'w'
I726
tp280
a(S'p1_tl'
I85
tp281
a(S'w'
I5
tp282
a(S'w'
I731
tp283
a(S'p1_vo'
I4
tp284
a(S'w'
I1
tp285
a(S'p1_tl'
I84
tp286
a(S'w'
I4
tp287
a(S'p2_vo'
I3
tp288
a(S'w'
I1
tp289
a(S'w'
I725
tp290
a(S'p1_tl'
I83
tp291
a(S'w'
I5
tp292
a(S'w'
I730
tp293
a(S'p1_tl'
I81
tp294
a(S'w'
I5
tp295
a(S'w'
I3
tp296
a(S'tr_lr'
I0
tp297
a(S'w'
I726
tp298
a(S'p1_vo'
I3
tp299
a(S'w'
I1
tp300
a(S'p1_tl'
I80
tp301
a(S'w'
I3
tp302
a(S'p2_vo'
I2
tp303
a(S'w'
I1
tp304
a(S'w'
I748
tp305
a(S'ch_no'
I1
tp306
a(S'ch_tr'
I1
tp307
a(S'ch_p2'
I1
tp308
a(S'ch_p1'
I1
tp309
a(S'w'
I1
tp310
a(S'ch_no'
I1
tp311
a(S'ch_tr'
I1
tp312
a(S'ch_p2'
I1
tp313
a(S'ch_p1'
I1
tp314
a(S'w'
I12
tp315
a(S'p1_vo'
I6
tp316
a(S'w'
I1
tp317
a(S'p1_tl'
I27
tp318
a(S'w'
I4
tp319
a(S'p2_vo'
I5
tp320
a(S'w'
I1
tp321
a(S'p2_tl'
I147
tp322
a(S'w'
I3
tp323
a(S'tr_lr'
I14
tp324
a(S'w'
I1
tp325
a(S'tr_tl'
I83
tp326
a(S'w'
I1
tp327
a(S'tr_ll'
I3
tp328
a(S'w'
I692
tp329
a(S'p1_vo'
I5
tp330
a(S'w'
I1
tp331
a(S'p1_tl'
I29
tp332
a(S'w'
I4
tp333
a(S'p2_vo'
I4
tp334
a(S'w'
I1
tp335
a(S'w'
I726
tp336
a(S'p1_tl'
I30
tp337
a(S'w'
I5
tp338
a(S'w'
I731
tp339
a(S'p1_vo'
I4
tp340
a(S'w'
I1
tp341
a(S'p1_tl'
I31
tp342
a(S'w'
I4
tp343
a(S'p2_vo'
I3
tp344
a(S'w'
I1
tp345
a(S'w'
I725
tp346
a(S'p1_tl'
I30
tp347
a(S'w'
I4
tp348
a(S'w'
I730
tp349
a(S'p1_tl'
I29
tp350
a(S'w'
I5
tp351
a(S'w'
I3
tp352
a(S'tr_lr'
I0
tp353
a(S'w'
I727
tp354
a(S'p1_vo'
I3
tp355
a(S'w'
I1
tp356
a(S'p1_tl'
I27
tp357
a(S'w'
I3
tp358
a(S'p2_vo'
I2
tp359
a(S'w'
I1
tp360
a(S'w'
I748
tp361
a(S'ch_no'
I1
tp362
a(S'ch_tr'
I1
tp363
a(S'ch_p2'
I1
tp364
a(S'ch_p1'
I1
tp365
a(S'w'
I1
tp366
a(S'ch_no'
I1
tp367
a(S'ch_tr'
I1
tp368
a(S'ch_p2'
I1
tp369
a(S'ch_p1'
I1
tp370
a(S'w'
I12
tp371
a(S'p1_vo'
I6
tp372
a(S'w'
I1
tp373
a(S'p1_tl'
I236
tp374
a(S'w'
I1
tp375
a(S'p1_ll'
I19
tp376
a(S'p1_th'
I0
tp377
a(S'w'
I3
tp378
a(S'p2_vo'
I5
tp379
a(S'w'
I1
tp380
a(S'p2_tl'
I223
tp381
a(S'w'
I4
tp382
a(S'tr_lr'
I14
tp383
a(S'tr_tl'
I147
tp384
a(S'w'
I1
tp385
a(S'tr_ll'
I3
tp386
a(S'w'
I692
tp387
a(S'p1_vo'
I5
tp388
a(S'w'
I1
tp389
a(S'p1_tl'
I237
tp390
a(S'w'
I4
tp391
a(S'p2_vo'
I4
tp392
a(S'w'
I1
tp393
a(S'w'
I725
tp394
a(S'p1_tl'
I239
tp395
a(S'w'
I5
tp396
a(S'w'
I731
tp397
a(S'p1_vo'
I4
tp398
a(S'w'
I1
tp399
a(S'p1_tl'
I240
tp400
a(S'w'
I4
tp401
a(S'p2_vo'
I3
tp402
a(S'w'
I1
tp403
a(S'w'
I726
tp404
a(S'p1_tl'
I241
tp405
a(S'w'
I4
tp406
a(S'w'
I730
tp407
a(S'p1_tl'
I240
tp408
a(S'w'
I5
tp409
a(S'w'
I3
tp410
a(S'tr_lr'
I0
tp411
a(S'w'
I727
tp412
a(S'p1_vo'
I3
tp413
a(S'w'
I1
tp414
a(S'p1_tl'
I239
tp415
a(S'w'
I3
tp416
a(S'p2_vo'
I2
tp417
a(S'w'
I1
tp418
a(S'w'
I747
tp419
a(S'ch_no'
I1
tp420
a(S'ch_tr'
I1
tp421
a(S'ch_p2'
I1
tp422
a(S'ch_p1'
I1
tp423
a(S'w'
I1
tp424
a(S'ch_no'
I1
tp425
a(S'ch_tr'
I1
tp426
a(S'ch_p2'
I1
tp427
a(S'ch_p1'
I1
tp428
a(S'w'
I12
tp429
a(S'p1_vo'
I6
tp430
a(S'w'
I1
tp431
a(S'p1_tl'
I27
tp432
a(S'w'
I1
tp433
a(S'p1_ll'
I19
tp434
a(S'p1_th'
I1
tp435
a(S'w'
I4
tp436
a(S'p2_vo'
I5
tp437
a(S'w'
I1
tp438
a(S'p2_tl'
I147
tp439
a(S'w'
I3
tp440
a(S'tr_lr'
I14
tp441
a(S'w'
I1
tp442
a(S'tr_tl'
I83
tp443
a(S'tr_ll'
I3
tp444
a(S'w'
I692
tp445
a(S'p1_vo'
I5
tp446
a(S'w'
I1
tp447
a(S'p1_tl'
I26
tp448
a(S'w'
I4
tp449
a(S'p2_vo'
I4
tp450
a(S'w'
I1
tp451
a(S'w'
I726
tp452
a(S'p1_tl'
I27
tp453
a(S'w'
I5
tp454
a(S'w'
I731
tp455
a(S'p1_vo'
I4
tp456
a(S'w'
I1
tp457
a(S'p1_tl'
I29
tp458
a(S'w'
I4
tp459
a(S'p2_vo'
I3
tp460
a(S'w'
I1
tp461
a(S'w'
I725
tp462
a(S'p1_tl'
I30
tp463
a(S'w'
I4
tp464
a(S'w'
I730
tp465
a(S'p1_tl'
I31
tp466
a(S'w'
I5
tp467
a(S'w'
I3
tp468
a(S'tr_lr'
I0
tp469
a(S'w'
I727
tp470
a(S'p1_vo'
I3
tp471
a(S'w'
I1
tp472
a(S'p1_tl'
I30
tp473
a(S'w'
I3
tp474
a(S'p2_vo'
I2
tp475
a(S'w'
I1
tp476
a(S'w'
I748
tp477
a(S'ch_no'
I1
tp478
a(S'ch_tr'
I1
tp479
a(S'ch_p2'
I1
tp480
a(S'ch_p1'
I1
tp481
a(S'w'
I1
tp482
a(S'ch_no'
I1
tp483
a(S'ch_tr'
I1
tp484
a(S'ch_p2'
I1
tp485
a(S'ch_p1'
I1
tp486
a(S'w'
I12
tp487
a(S'p1_vo'
I6
tp488
a(S'w'
I1
tp489
a(S'p1_tl'
I239
tp490
a(S'w'
I1
tp491
a(S'p1_ll'
I19
tp492
a(S'p1_th'
I0
tp493
a(S'w'
I3
tp494
a(S'p2_vo'
I5
tp495
a(S'w'
I1
tp496
a(S'p2_tl'
I83
tp497
a(S'w'
I4
tp498
a(S'tr_lr'
I14
tp499
a(S'tr_tl'
I29
tp500
a(S'w'
I1
tp501
a(S'tr_ll'
I3
tp502
a(S'w'
I692
tp503
a(S'p1_vo'
I5
tp504
a(S'w'
I1
tp505
a(S'p1_tl'
I237
tp506
a(S'w'
I4
tp507
a(S'p2_vo'
I4
tp508
a(S'w'
I1
tp509
a(S'w'
I725
tp510
a(S'p1_tl'
I236
tp511
a(S'w'
I5
tp512
a(S'w'
I731
tp513
a(S'p1_vo'
I4
tp514
a(S'w'
I1
tp515
a(S'p1_tl'
I237
tp516
a(S'w'
I4
tp517
a(S'p2_vo'
I3
tp518
a(S'w'
I1
tp519
a(S'w'
I725
tp520
a(S'p1_tl'
I239
tp521
a(S'w'
I5
tp522
a(S'w'
I730
tp523
a(S'p1_tl'
I240
tp524
a(S'w'
I5
tp525
a(S'w'
I3
tp526
a(S'tr_lr'
I0
tp527
a(S'w'
I727
tp528
a(S'p1_vo'
I3
tp529
a(S'w'
I1
tp530
a(S'p1_tl'
I241
tp531
a(S'w'
I3
tp532
a(S'p2_vo'
I2
tp533
a(S'w'
I1
tp534
a(S'w'
I747
tp535
a(S'ch_no'
I1
tp536
a(S'ch_tr'
I1
tp537
a(S'ch_p2'
I1
tp538
a(S'ch_p1'
I1
tp539
a(S'w'
I1
tp540
a(S'ch_no'
I1
tp541
a(S'ch_tr'
I1
tp542
a(S'ch_p2'
I1
tp543
a(S'ch_p1'
I1
tp544
a(S'w'
I13
tp545
a(S'p1_vo'
I6
tp546
a(S'w'
I1
tp547
a(S'p1_tl'
I202
tp548
a(S'w'
I4
tp549
a(S'p2_vo'
I5
tp550
a(S'w'
I1
tp551
a(S'p2_tl'
I147
tp552
a(S'w'
I3
tp553
a(S'tr_lr'
I14
tp554
a(S'w'
I1
tp555
a(S'tr_tl'
I239
tp556
a(S'tr_ll'
I3
tp557
a(S'tr_th'
I0
tp558
a(S'w'
I692
tp559
a(S'p1_vo'
I5
tp560
a(S'w'
I1
tp561
a(S'p1_tl'
I201
tp562
a(S'w'
I4
tp563
a(S'p2_vo'
I4
tp564
a(S'w'
I1
tp565
a(S'w'
I726
tp566
a(S'p1_tl'
I199
tp567
a(S'w'
I5
tp568
a(S'w'
I731
tp569
a(S'p1_vo'
I4
tp570
a(S'w'
I1
tp571
a(S'p1_tl'
I198
tp572
a(S'w'
I4
tp573
a(S'p2_vo'
I3
tp574
a(S'w'
I1
tp575
a(S'w'
I726
tp576
a(S'p1_tl'
I199
tp577
a(S'w'
I4
tp578
a(S'w'
I729
tp579
a(S'p1_tl'
I201
tp580
a(S'w'
I5
tp581
a(S'w'
I3
tp582
a(S'tr_lr'
I0
tp583
a(S'w'
I727
tp584
a(S'p1_vo'
I3
tp585
a(S'w'
I1
tp586
a(S'p1_tl'
I202
tp587
a(S'w'
I3
tp588
a(S'p2_vo'
I2
tp589
a(S'w'
I1
tp590
a(S'w'
I748
tp591
a(S'ch_no'
I1
tp592
a(S'ch_tr'
I1
tp593
a(S'ch_p2'
I1
tp594
a(S'ch_p1'
I1
tp595
a(S'w'
I1
tp596
a(S'ch_no'
I1
tp597
a(S'ch_tr'
I1
tp598
a(S'ch_p2'
I1
tp599
a(S'ch_p1'
I1
tp600
a(S'w'
I13
tp601
a(S'p1_vo'
I6
tp602
a(S'w'
I1
tp603
a(S'p1_tl'
I241
tp604
a(S'w'
I3
tp605
a(S'p2_vo'
I5
tp606
a(S'w'
I1
tp607
a(S'p2_tl'
I83
tp608
a(S'w'
I4
tp609
a(S'tr_lr'
I14
tp610
a(S'tr_tl'
I29
tp611
a(S'w'
I1
tp612
a(S'tr_ll'
I3
tp613
a(S'tr_th'
I1
tp614
a(S'w'
I692
tp615
a(S'p1_vo'
I5
tp616
a(S'w'
I1
tp617
a(S'p1_tl'
I240
tp618
a(S'w'
I4
tp619
a(S'p2_vo'
I4
tp620
a(S'w'
I1
tp621
a(S'w'
I726
tp622
a(S'p1_tl'
I239
tp623
a(S'w'
I5
tp624
a(S'w'
I730
tp625
a(S'p1_vo'
I4
tp626
a(S'w'
I1
tp627
a(S'p1_tl'
I237
tp628
a(S'w'
I4
tp629
a(S'p2_vo'
I3
tp630
a(S'w'
I1
tp631
a(S'w'
I726
tp632
a(S'p1_tl'
I236
tp633
a(S'w'
I4
tp634
a(S'w'
I730
tp635
a(S'p1_tl'
I237
tp636
a(S'w'
I5
tp637
a(S'w'
I3
tp638
a(S'tr_lr'
I0
tp639
a(S'w'
I727
tp640
a(S'p1_vo'
I3
tp641
a(S'w'
I1
tp642
a(S'p1_tl'
I239
tp643
a(S'w'
I3
tp644
a(S'p2_vo'
I2
tp645
a(S'w'
I1
tp646
a(S'w'
I747
tp647
a(S'ch_no'
I1
tp648
a(S'ch_tr'
I1
tp649
a(S'ch_p2'
I1
tp650
a(S'ch_p1'
I1
tp651
a(S'w'
I1
tp652
a(S'ch_no'
I1
tp653
a(S'ch_tr'
I1
tp654
a(S'ch_p2'
I1
tp655
a(S'ch_p1'
I1
tp656
a(S'w'
I13
tp657
a(S'p1_vo'
I6
tp658
a(S'w'
I1
tp659
a(S'p1_tl'
I202
tp660
a(S'w'
I3
tp661
a(S'p2_vo'
I5
tp662
a(S'w'
I1
tp663
a(S'p2_tl'
I29
tp664
a(S'w'
I4
tp665
a(S'tr_lr'
I14
tp666
a(S'w'
I1
tp667
a(S'tr_tl'
I83
tp668
a(S'tr_ll'
I3
tp669
a(S'w'
I692
tp670
a(S'p1_vo'
I5
tp671
a(S'w'
I1
tp672
a(S'p1_tl'
I203
tp673
a(S'w'
I4
tp674
a(S'p2_vo'
I4
tp675
a(S'w'
I1
tp676
a(S'w'
I726
tp677
a(S'p1_tl'
I202
tp678
a(S'w'
I5
tp679
a(S'w'
I731
tp680
a(S'p1_vo'
I4
tp681
a(S'w'
I1
tp682
a(S'p1_tl'
I201
tp683
a(S'w'
I4
tp684
a(S'p2_vo'
I3
tp685
a(S'w'
I1
tp686
a(S'w'
I726
tp687
a(S'p1_tl'
I199
tp688
a(S'w'
I4
tp689
a(S'w'
I729
tp690
a(S'p1_tl'
I198
tp691
a(S'w'
I5
tp692
a(S'w'
I3
tp693
a(S'tr_lr'
I0
tp694
a(S'w'
I727
tp695
a(S'p1_vo'
I3
tp696
a(S'w'
I1
tp697
a(S'p1_tl'
I199
tp698
a(S'w'
I3
tp699
a(S'p2_vo'
I2
tp700
a(S'w'
I1
tp701
a(S'w'
I748
tp702
a(S'ch_no'
I1
tp703
a(S'ch_tr'
I1
tp704
a(S'ch_p2'
I1
tp705
a(S'ch_p1'
I1
tp706
a(S'w'
I1
tp707
a(S'ch_no'
I1
tp708
a(S'ch_tr'
I1
tp709
a(S'ch_p2'
I1
tp710
a(S'ch_p1'
I1
tp711
a(S'w'
I13
tp712
a(S'p1_vo'
I6
tp713
a(S'w'
I1
tp714
a(S'p1_tl'
I169
tp715
a(S'w'
I3
tp716
a(S'p2_vo'
I5
tp717
a(S'w'
I1
tp718
a(S'p2_tl'
I83
tp719
a(S'w'
I4
tp720
a(S'tr_lr'
I14
tp721
a(S'tr_tl'
I147
tp722
a(S'w'
I1
tp723
a(S'tr_ll'
I3
tp724
a(S'w'
I692
tp725
a(S'p1_vo'
I5
tp726
a(S'w'
I1
tp727
a(S'p1_tl'
I170
tp728
a(S'w'
I4
tp729
a(S'p2_vo'
I4
tp730
a(S'w'
I1
tp731
a(S'w'
I726
tp732
a(S'p1_tl'
I171
tp733
a(S'w'
I5
tp734
a(S'w'
I730
tp735
a(S'p1_vo'
I4
tp736
a(S'w'
I1
tp737
a(S'p1_tl'
I170
tp738
a(S'w'
I4
tp739
a(S'p2_vo'
I3
tp740
a(S'w'
I1
tp741
a(S'w'
I725
tp742
a(S'p1_tl'
I169
tp743
a(S'w'
I5
tp744
a(S'w'
I730
tp745
a(S'p1_tl'
I167
tp746
a(S'w'
I5
tp747
a(S'w'
I3
tp748
a(S'tr_lr'
I0
tp749
a(S'w'
I727
tp750
a(S'p1_vo'
I3
tp751
a(S'w'
I1
tp752
a(S'p1_tl'
I166
tp753
a(S'w'
I3
tp754
a(S'p2_vo'
I2
tp755
a(S'w'
I1
tp756
a(S'w'
I748
tp757
a(S'ch_no'
I1
tp758
a(S'ch_tr'
I1
tp759
a(S'ch_p2'
I1
tp760
a(S'ch_p1'
I1
tp761
a(S'w'
I1
tp762
a(S'ch_no'
I1
tp763
a(S'ch_tr'
I1
tp764
a(S'ch_p2'
I1
tp765
a(S'ch_p1'
I1
tp766
a(S'w'
I13
tp767
a(S'p1_vo'
I6
tp768
a(S'w'
I1
tp769
a(S'p1_tl'
I199
tp770
a(S'w'
I3
tp771
a(S'p2_vo'
I5
tp772
a(S'w'
I1
tp773
a(S'p2_tl'
I29
tp774
a(S'w'
I4
tp775
a(S'tr_lr'
I14
tp776
a(S'w'
I1
tp777
a(S'tr_tl'
I83
tp778
a(S'tr_ll'
I3
tp779
a(S'w'
I691
tp780
a(S'p1_vo'
I5
tp781
a(S'w'
I1
tp782
a(S'p1_tl'
I201
tp783
a(S'w'
I4
tp784
a(S'p2_vo'
I4
tp785
a(S'w'
I1
tp786
a(S'w'
I726
tp787
a(S'p1_tl'
I202
tp788
a(S'w'
I5
tp789
a(S'w'
I731
tp790
a(S'p1_vo'
I4
tp791
a(S'w'
I1
tp792
a(S'p1_tl'
I203
tp793
a(S'w'
I4
tp794
a(S'p2_vo'
I3
tp795
a(S'w'
I1
tp796
a(S'w'
I726
tp797
a(S'p1_tl'
I202
tp798
a(S'w'
I4
tp799
a(S'w'
I730
tp800
a(S'p1_tl'
I201
tp801
a(S'w'
I5
tp802
a(S'w'
I3
tp803
a(S'tr_lr'
I0
tp804
a(S'w'
I726
tp805
a(S'p1_vo'
I3
tp806
a(S'w'
I1
tp807
a(S'p1_tl'
I199
tp808
a(S'w'
I3
tp809
a(S'p2_vo'
I2
tp810
a(S'w'
I1
tp811
a(S'w'
I749
tp812
a(S'ch_no'
I1
tp813
a(S'ch_tr'
I1
tp814
a(S'ch_p2'
I1
tp815
a(S'ch_p1'
I1
tp816
a(S'ch_no'
I1
tp817
a(S'ch_tr'
I1
tp818
a(S'ch_p2'
I1
tp819
a(S'ch_p1'
I1
tp820
a(S'w'
I13
tp821
a(S'p1_vo'
I6
tp822
a(S'w'
I1
tp823
a(S'p1_tl'
I166
tp824
a(S'w'
I4
tp825
a(S'p2_vo'
I5
tp826
a(S'w'
I1
tp827
a(S'p2_tl'
I239
tp828
a(S'p2_ll'
I19
tp829
a(S'p2_th'
I0
tp830
a(S'w'
I3
tp831
a(S'tr_lr'
I14
tp832
a(S'w'
I1
tp833
a(S'tr_tl'
I29
tp834
a(S'w'
I1
tp835
a(S'tr_ll'
I3
tp836
a(S'w'
I691
tp837
a(S'p1_vo'
I5
tp838
a(S'w'
I1
tp839
a(S'p1_tl'
I167
tp840
a(S'w'
I4
tp841
a(S'p2_vo'
I4
tp842
a(S'w'
I1
tp843
a(S'w'
I726
tp844
a(S'p1_tl'
I169
tp845
a(S'w'
I5
tp846
a(S'w'
I730
tp847
a(S'p1_vo'
I4
tp848
a(S'w'
I1
tp849
a(S'p1_tl'
I170
tp850
a(S'w'
I4
tp851
a(S'p2_vo'
I3
tp852
a(S'w'
I1
tp853
a(S'w'
I726
tp854
a(S'p1_tl'
I171
tp855
a(S'w'
I4
tp856
a(S'w'
I730
tp857
a(S'p1_tl'
I170
tp858
a(S'w'
I5
tp859
a(S'w'
I3
tp860
a(S'tr_lr'
I0
tp861
a(S'w'
I727
tp862
a(S'p1_vo'
I3
tp863
a(S'w'
I1
tp864
a(S'p1_tl'
I169
tp865
a(S'w'
I3
tp866
a(S'p2_vo'
I2
tp867
a(S'w'
I1
tp868
a(S'w'
I748
tp869
a(S'ch_no'
I1
tp870
a(S'ch_tr'
I1
tp871
a(S'ch_p2'
I1
tp872
a(S'ch_p1'
I1
tp873
a(S'w'
I1
tp874
a(S'ch_no'
I1
tp875
a(S'ch_tr'
I1
tp876
a(S'ch_p2'
I1
tp877
a(S'ch_p1'
I1
tp878
a(S'w'
I13
tp879
a(S'p1_vo'
I6
tp880
a(S'w'
I1
tp881
a(S'p1_tl'
I140
tp882
a(S'w'
I3
tp883
a(S'p2_vo'
I5
tp884
a(S'w'
I2
tp885
a(S'p2_tl'
I29
tp886
a(S'p2_ll'
I19
tp887
a(S'p2_th'
I1
tp888
a(S'w'
I3
tp889
a(S'tr_lr'
I14
tp890
a(S'w'
I1
tp891
a(S'tr_tl'
I239
tp892
a(S'w'
I1
tp893
a(S'tr_ll'
I3
tp894
a(S'tr_th'
I0
tp895
a(S'w'
I690
tp896
a(S'p1_vo'
I5
tp897
a(S'w'
I1
tp898
a(S'p1_tl'
I139
tp899
a(S'w'
I4
tp900
a(S'p2_vo'
I4
tp901
a(S'w'
I1
tp902
a(S'w'
I726
tp903
a(S'p1_tl'
I140
tp904
a(S'w'
I5
tp905
a(S'w'
I731
tp906
a(S'p1_vo'
I4
tp907
a(S'w'
I1
tp908
a(S'p1_tl'
I142
tp909
a(S'w'
I4
tp910
a(S'p2_vo'
I3
tp911
a(S'w'
I1
tp912
a(S'w'
I726
tp913
a(S'p1_tl'
I143
tp914
a(S'w'
I4
tp915
a(S'w'
I730
tp916
a(S'p1_tl'
I144
tp917
a(S'w'
I5
tp918
a(S'w'
I3
tp919
a(S'tr_lr'
I0
tp920
a(S'w'
I726
tp921
a(S'p1_vo'
I3
tp922
a(S'w'
I1
tp923
a(S'p1_tl'
I143
tp924
a(S'w'
I3
tp925
a(S'p2_vo'
I2
tp926
a(S'w'
I1
tp927
a(S'w'
I748
tp928
a(S'ch_no'
I1
tp929
a(S'ch_tr'
I1
tp930
a(S'ch_p2'
I1
tp931
a(S'ch_p1'
I1
tp932
a(S'w'
I1
tp933
a(S'ch_no'
I1
tp934
a(S'ch_tr'
I1
tp935
a(S'ch_p2'
I1
tp936
a(S'ch_p1'
I1
tp937
a(S'w'
I13
tp938
a(S'p1_vo'
I6
tp939
a(S'w'
I1
tp940
a(S'p1_tl'
I169
tp941
a(S'w'
I3
tp942
a(S'p2_vo'
I5
tp943
a(S'w'
I1
tp944
a(S'p2_tl'
I239
tp945
a(S'w'
I1
tp946
a(S'p2_ll'
I19
tp947
a(S'p2_th'
I0
tp948
a(S'w'
I3
tp949
a(S'tr_lr'
I14
tp950
a(S'w'
I1
tp951
a(S'tr_tl'
I29
tp952
a(S'tr_ll'
I3
tp953
a(S'tr_th'
I1
tp954
a(S'w'
I692
tp955
a(S'p1_vo'
I5
tp956
a(S'w'
I1
tp957
a(S'p1_tl'
I167
tp958
a(S'w'
I4
tp959
a(S'p2_vo'
I4
tp960
a(S'w'
I1
tp961
a(S'w'
I726
tp962
a(S'p1_tl'
I166
tp963
a(S'w'
I5
tp964
a(S'w'
I731
tp965
a(S'p1_vo'
I4
tp966
a(S'w'
I1
tp967
a(S'p1_tl'
I167
tp968
a(S'w'
I4
tp969
a(S'p2_vo'
I3
tp970
a(S'w'
I1
tp971
a(S'w'
I724
tp972
a(S'p1_tl'
I169
tp973
a(S'w'
I5
tp974
a(S'w'
I730
tp975
a(S'p1_tl'
I170
tp976
a(S'w'
I5
tp977
a(S'w'
I3
tp978
a(S'tr_lr'
I0
tp979
a(S'w'
I727
tp980
a(S'p1_vo'
I3
tp981
a(S'w'
I1
tp982
a(S'p1_tl'
I171
tp983
a(S'w'
I3
tp984
a(S'p2_vo'
I2
tp985
a(S'w'
I1
tp986
a(S'w'
I749
tp987
a(S'ch_no'
I1
tp988
a(S'ch_tr'
I1
tp989
a(S'ch_p2'
I1
tp990
a(S'ch_p1'
I1
tp991
a(S'w'
I1
tp992
a(S'ch_no'
I1
tp993
a(S'ch_tr'
I1
tp994
a(S'ch_p2'
I1
tp995
a(S'ch_p1'
I1
tp996
a(S'w'
I12
tp997
a(S'p1_vo'
I6
tp998
a(S'w'
I1
tp999
a(S'p1_tl'
I143
tp1000
a(S'w'
I4
tp1001
a(S'p2_vo'
I5
tp1002
a(S'w'
I1
tp1003
a(S'p2_tl'
I201
tp1004
a(S'w'
I3
tp1005
a(S'tr_lr'
I14
tp1006
a(S'w'
I1
tp1007
a(S'tr_tl'
I83
tp1008
a(S'w'
I1
tp1009
a(S'tr_ll'
I3
tp1010
a(S'w'
I691
tp1011
a(S'p1_vo'
I5
tp1012
a(S'w'
I1
tp1013
a(S'p1_tl'
I142
tp1014
a(S'w'
I4
tp1015
a(S'p2_vo'
I4
tp1016
a(S'w'
I1
tp1017
a(S'w'
I725
tp1018
a(S'p1_tl'
I140
tp1019
a(S'w'
I5
tp1020
a(S'w'
I731
tp1021
a(S'p1_vo'
I4
tp1022
a(S'w'
I2
tp1023
a(S'p1_tl'
I139
tp1024
a(S'w'
I3
tp1025
a(S'p2_vo'
I3
tp1026
a(S'w'
I1
tp1027
a(S'w'
I726
tp1028
a(S'p1_tl'
I140
tp1029
a(S'w'
I4
tp1030
a(S'w'
I730
tp1031
a(S'p1_tl'
I142
tp1032
a(S'w'
I5
tp1033
a(S'w'
I3
tp1034
a(S'tr_lr'
I0
tp1035
a(S'w'
I726
tp1036
a(S'p1_vo'
I3
tp1037
a(S'w'
I1
tp1038
a(S'p1_tl'
I143
tp1039
a(S'w'
I3
tp1040
a(S'p2_vo'
I2
tp1041
a(S'w'
I1
tp1042
a(S'w'
I761
tp1043
a(S'tr_lh'
I0
tp1044
a(S'tr_lr'
I48
tp1045
a(S'w'
I7
tp1046
a(S'p1_vo'
I5
tp1047
a(S'w'
I1
tp1048
a(S'p1_tl'
I121
tp1049
a(S'w'
I4
tp1050
a(S'p2_vo'
I5
tp1051
a(S'w'
I1
tp1052
a(S'p2_tl'
I169
tp1053
a(S'w'
I3
tp1054
a(S'tr_lh'
I1
tp1055
a(S'tr_lr'
I14
tp1056
a(S'w'
I1
tp1057
a(S'tr_tl'
I147
tp1058
a(S'tr_ll'
I3
tp1059
a(S'w'
I680
tp1060
a(S'p1_tl'
I120
tp1061
a(S'w'
I5
tp1062
a(S'w'
I729
tp1063
a(S'p1_tl'
I119
tp1064
a(S'w'
I4
tp1065
a(S'w'
I730
tp1066
a(S'p1_tl'
I117
tp1067
a(S'w'
I5
tp1068
a(S'w'
I728
tp1069
a(S'p1_tl'
I116
tp1070
a(S'w'
I5
tp1071
a(S'w'
I729
tp1072
a(S'p1_tl'
I117
tp1073
a(S'w'
I5
tp1074
a(S'w'
I731
tp1075
a(S'p1_vo'
I4
tp1076
a(S'w'
I1
tp1077
a(S'p1_tl'
I119
tp1078
a(S'w'
I4
tp1079
a(S'p2_vo'
I4
tp1080
a(S'w'
I1
tp1081
a(S'w'
I710
tp1082
a(S'tr_lh'
I0
tp1083
a(S'tr_lr'
I48
tp1084
a(S'w'
I19
tp1085
a(S'p1_tl'
I120
tp1086
a(S'w'
I5
tp1087
a(S'w'
I723
tp1088
a(S'p1_tl'
I121
tp1089
a(S'w'
I5
tp1090
a(S'w'
I728
tp1091
a(S'p1_tl'
I120
tp1092
a(S'w'
I5
tp1093
a(S'w'
I729
tp1094
a(S'p1_tl'
I119
tp1095
a(S'w'
I5
tp1096
a(S'w'
I729
tp1097
a(S'p1_tl'
I117
tp1098
a(S'w'
I5
tp1099
a(S'w'
I729
tp1100
a(S'p1_tl'
I116
tp1101
a(S'w'
I5
tp1102
a(S'w'
I731
tp1103
a(S'p1_vo'
I3
tp1104
a(S'w'
I1
tp1105
a(S'p1_tl'
I117
tp1106
a(S'w'
I4
tp1107
a(S'p2_vo'
I3
tp1108
a(S'w'
I1
tp1109
a(S'w'
I725
tp1110
a(S'p1_tl'
I119
tp1111
a(S'w'
I5
tp1112
a(S'w'
I729
tp1113
a(S'p1_tl'
I120
tp1114
a(S'w'
I5
tp1115
a(S'w'
I729
tp1116
a(S'p1_tl'
I121
tp1117
a(S'w'
I5
tp1118
a(S'w'
I729
tp1119
a(S'p1_tl'
I120
tp1120
a(S'w'
I5
tp1121
a(S'w'
I729
tp1122
a(S'p1_tl'
I119
tp1123
a(S'w'
I5
tp1124
a(S'w'
I728
tp1125
a(S'p1_tl'
I117
tp1126
a(S'w'
I5
tp1127
a(S'w'
I729
tp1128
a(S'p1_tl'
I116
tp1129
a(S'w'
I5
tp1130
a(S'w'
I731
tp1131
a(S'p1_vo'
I2
tp1132
a(S'w'
I1
tp1133
a(S'p1_tl'
I117
tp1134
a(S'w'
I4
tp1135
a(S'p2_vo'
I2
tp1136
a(S'w'
I1
tp1137
a(S'w'
I726
tp1138
a(S'p1_tl'
I119
tp1139
a(S'w'
I5
tp1140
a(S'w'
I728
tp1141
a(S'p1_tl'
I120
tp1142
a(S'w'
I5
tp1143
a(S'w'
I729
tp1144
a(S'p1_tl'
I121
tp1145
a(S'w'
I5
tp1146
a(S'w'
I729
tp1147
a(S'p1_tl'
I120
tp1148
a(S'w'
I5
tp1149
a(S'w'
I729
tp1150
a(S'p1_tl'
I119
tp1151
a(S'w'
I5
tp1152
a(S'w'
I729
tp1153
a(S'p1_tl'
I117
tp1154
a(S'w'
I5
tp1155
a(S'w'
I728
tp1156
a(S'p1_tl'
I116
tp1157
a(S'w'
I5
tp1158
a(S'w'
I729
tp1159
a(S'p1_tl'
I117
tp1160
a(S'w'
I5
tp1161
a(S'w'
I731
tp1162
a(S'p1_vo'
I1
tp1163
a(S'w'
I1
tp1164
a(S'p1_tl'
I119
tp1165
a(S'w'
I4
tp1166
a(S'p2_vo'
I1
tp1167
a(S'w'
I1
tp1168
a(S'w'
I726
tp1169
a(S'p1_tl'
I120
tp1170
a(S'w'
I5
tp1171
a(S'w'
I729
tp1172
a(S'p1_tl'
I121
tp1173
a(S'w'
I5
tp1174
a(S'w'
I728
tp1175
a(S'p1_tl'
I120
tp1176
a(S'w'
I5
tp1177
a(S'w'
I729
tp1178
a(S'p1_tl'
I119
tp1179
a(S'w'
I5
tp1180
a(S'w'
I729
tp1181
a(S'p1_tl'
I117
tp1182
a(S'w'
I5
tp1183
a(S'w'
I729
tp1184
a(S'p1_tl'
I116
tp1185
a(S'w'
I5
tp1186
a(S'w'
I729
tp1187
a(S'p1_tl'
I117
tp1188
a(S'w'
I5
tp1189
a(S'w'
I728
tp1190
a(S'p1_tl'
I119
tp1191
a(S'w'
I5
tp1192
a(S'w'
I729
tp1193
a(S'p1_tl'
I120
tp1194
a(S'w'
I5
tp1195
a(S'w'
I731
tp1196
a(S'p1_vo'
I0
tp1197
a(S'w'
I2
tp1198
a(S'p1_tl'
I121
tp1199
a(S'w'
I3
tp1200
a(S'p2_vo'
I0
tp1201
a(S'w'
I1
tp1202
a(S'w'
I726
tp1203
a(S'p1_tl'
I120
tp1204
a(S'w'
I5
tp1205
a(S'w'
I729
tp1206
a(S'p1_tl'
I119
tp1207
a(S'w'
I5
tp1208
a(S'w'
I728
tp1209
a(S'p1_tl'
I117
tp1210
a(S'w'
I5
tp1211
a(S'w'
I729
tp1212
a(S'p1_tl'
I116
tp1213
a(S'w'
I5
tp1214
a(S'w'
I729
tp1215
a(S'p1_tl'
I117
tp1216
a(S'w'
I5
tp1217
a(S'w'
I729
tp1218
a(S'p1_tl'
I119
tp1219
a(S'w'
I5
tp1220
a(S'w'
I728
tp1221
a(S'p1_tl'
I120
tp1222
a(S'w'
I5
tp1223
a(S'w'
I729
tp1224
a(S'p1_tl'
I121
tp1225
a(S'w'
I5
tp1226
a(S'w'
I729
tp1227
a(S'p1_tl'
I120
tp1228
a(S'w'
I5
tp1229
a(S'w'
I729
tp1230
a(S'p1_tl'
I119
tp1231
a(S'w'
I5
tp1232
a(S'w'
I731
tp1233
a(S'p1_vo'
I1
tp1234
a(S'w'
I1
tp1235
a(S'p1_tl'
I117
tp1236
a(S'w'
I4
tp1237
a(S'p2_vo'
I1
tp1238
a(S'w'
I1
tp1239
a(S'w'
I725
tp1240
a(S'p1_tl'
I116
tp1241
a(S'w'
I5
tp1242
a(S'w'
I729
tp1243
a(S'p1_tl'
I117
tp1244
a(S'w'
I5
tp1245
a(S'w'
I729
tp1246
a(S'p1_tl'
I119
tp1247
a(S'w'
I5
tp1248
a(S'w'
I729
tp1249
a(S'p1_tl'
I120
tp1250
a(S'w'
I5
tp1251
a(S'w'
I718
tp1252
a(S'p1_du'
I0
tp1253
a(S'p1_vo'
I0
tp1254
a(S'w'
I9
tp1255
a(S'p2_du'
I0
tp1256
a(S'p2_vo'
I0
tp1257
a(S'w'
I79421
tp1258
a.