(lp1
(S'clock'
p2
I1789772
tp3
a(S'p1_du'
I2
tp4
a(S'p1_vo'
I9
tp5
a(S'p1_sn'
I1
tp6
a(S'p1_tl'
I253
tp7
a(S'p1_ll'
I1
tp8
a(S'p2_du'
I1
tp9
a(S'p2_vo'
I6
tp10
a(S'p2_sn'
I1
tp11
a(S'p2_tl'
I171
tp12
a(S'p2_ll'
I1
tp13
a(S'p2_th'
I1
tp14
a(S'tr_lr'
I24
tp15
a(S'tr_tl'
I159
tp16
a(S'tr_ll'
I1
tp17
a(S'ch_no'
I1
tp18
a(S'ch_tr'
I1
tp19
a(S'ch_p2'
I1
tp20
a(S'ch_p1'
I1
tp21
a(S'tr_lr'
I72
tp22
a(S'w'
I1
tp23
a(S'tr_tl'
I63
tp24
a(S'w'
I1
tp25
a(S'tr_ll'
I1
tp26
a(S'tr_th'
I1
tp27
a(S'w'
I4
tp28
a(S'p2_du'
I0
tp29
a(S'p2_vo'
I15
tp30
a(S'w'
I1
tp31
a(S'w'
I1
tp32
a(S'p2_ll'
I1
tp33
a(S'w'
I4
tp34
a(S'p1_du'
I0
tp35
a(S'p1_vo'
I15
tp36
a(S'w'
I1
tp37
a(S'p1_tl'
I12
tp38
a(S'w'
I1
tp39
a(S'p1_ll'
I1
tp40
a(S'p1_th'
I1
tp41
a(S'w'
I26399
tp42
a(S'tr_lr'
I127
tp43
a(S'w'
I1
tp44
a(S'tr_ll'
I1
tp45
a(S'w'
I26417
tp46
a(S'tr_lr'
I48
tp47
a(S'w'
I1
tp48
a(S'tr_ll'
I1
tp49
a(S'w'
I4
tp50
a(S'p2_tl'
I223
tp51
a(S'w'
I1
tp52
a(S'p2_ll'
I1
tp53
a(S'w'
I4
tp54
a(S'p1_tl'
I28
tp55
a(S'p1_ll'
I1
tp56
a(S'w'
I17599
tp57
a(S'tr_lr'
I24
tp58
a(S'w'
I1
tp59
a(S'tr_tl'
I28
tp60
a(S'tr_ll'
I1
tp61
a(S'w'
I8805
tp62
a(S'tr_lr'
I48
tp63
a(S'w'
I1
tp64
a(S'tr_tl'
I12
tp65
a(S'tr_ll'
I1
tp66
a(S'w'
I17610
tp67
a(S'tr_lr'
I24
tp68
a(S'w'
I1
tp69
a(S'tr_tl'
I212
tp70
a(S'tr_ll'
I1
tp71
a(S'tr_th'
I0
tp72
a(S'w'
I8805
tp73
a(S'tr_lr'
I72
tp74
a(S'w'
I1
tp75
a(S'tr_tl'
I225
tp76
a(S'tr_ll'
I1
tp77
a(S'w'
I4
tp78
a(S'p2_tl'
I124
tp79
a(S'p2_ll'
I1
tp80
a(S'w'
I5
tp81
a(S'p1_tl'
I12
tp82
a(S'p1_ll'
I1
tp83
a(S'w'
I26407
tp84
a(S'tr_lr'
I127
tp85
a(S'w'
I1
tp86
a(S'tr_ll'
I1
tp87
a(S'w'
I26416
tp88
a(S'tr_lr'
I72
tp89
a(S'w'
I1
tp90
a(S'tr_ll'
I1
tp91
a(S'w'
I4
tp92
a(S'p2_tl'
I196
tp93
a(S'w'
I1
tp94
a(S'p2_ll'
I1
tp95
a(S'w'
I4
tp96
a(S'p1_vo'
I9
tp97
a(S'w'
I1
tp98
a(S'p1_tl'
I28
tp99
a(S'w'
I1
tp100
a(S'p1_ll'
I1
tp101
a(S'w'
I26404
tp102
a(S'tr_tl'
I12
tp103
a(S'tr_ll'
I1
tp104
a(S'tr_th'
I1
tp105
a(S'w'
I5
tp106
a(S'p1_tl'
I63
tp107
a(S'p1_ll'
I1
tp108
a(S'w'
I26412
tp109
a(S'tr_tl'
I63
tp110
a(S'tr_ll'
I1
tp111
a(S'w'
I4
tp112
a(S'p2_tl'
I171
tp113
a(S'p2_ll'
I1
tp114
a(S'w'
I5
tp115
a(S'p1_vo'
I15
tp116
a(S'w'
I1
tp117
a(S'p1_tl'
I12
tp118
a(S'p1_ll'
I1
tp119
a(S'w'
I26408
tp120
a(S'tr_lr'
I127
tp121
a(S'w'
I1
tp122
a(S'tr_ll'
I1
tp123
a(S'w'
I26417
tp124
a(S'tr_lr'
I48
tp125
a(S'w'
I1
tp126
a(S'tr_ll'
I1
tp127
a(S'w'
I4
tp128
a(S'p2_tl'
I223
tp129
a(S'w'
I1
tp130
a(S'p2_ll'
I1
tp131
a(S'w'
I4
tp132
a(S'p1_tl'
I28
tp133
a(S'p1_ll'
I1
tp134
a(S'w'
I17599
tp135
a(S'tr_lr'
I24
tp136
a(S'w'
I1
tp137
a(S'tr_tl'
I28
tp138
a(S'tr_ll'
I1
tp139
a(S'w'
I8805
tp140
a(S'tr_lr'
I48
tp141
a(S'w'
I1
tp142
a(S'tr_tl'
I12
tp143
a(S'tr_ll'
I1
tp144
a(S'w'
I17610
tp145
a(S'tr_lr'
I24
tp146
a(S'w'
I1
tp147
a(S'tr_tl'
I212
tp148
a(S'tr_ll'
I1
tp149
a(S'tr_th'
I0
tp150
a(S'w'
I8805
tp151
a(S'tr_lr'
I72
tp152
a(S'tr_tl'
I225
tp153
a(S'w'
I1
tp154
a(S'tr_ll'
I1
tp155
a(S'w'
I4
tp156
a(S'p2_tl'
I124
tp157
a(S'p2_ll'
I1
tp158
a(S'w'
I4
tp159
a(S'p1_tl'
I12
tp160
a(S'w'
I1
tp161
a(S'p1_ll'
I1
tp162
a(S'w'
I26407
tp163
a(S'tr_lr'
I127
tp164
a(S'w'
I1
tp165
a(S'tr_ll'
I1
tp166
a(S'w'
I26416
tp167
a(S'tr_lr'
I72
tp168
a(S'w'
I1
tp169
a(S'tr_ll'
I1
tp170
a(S'w'
I5
tp171
a(S'p2_vo'
I9
tp172
a(S'w'
I1
tp173
a(S'p2_tl'
I196
tp174
a(S'p2_ll'
I1
tp175
a(S'w'
I5
tp176
a(S'p1_vo'
I9
tp177
a(S'w'
I1
tp178
a(S'p1_tl'
I28
tp179
a(S'p1_ll'
I1
tp180
a(S'w'
I26403
tp181
a(S'tr_tl'
I12
tp182
a(S'tr_ll'
I1
tp183
a(S'tr_th'
I1
tp184
a(S'w'
I4
tp185
a(S'p2_tl'
I124
tp186
a(S'p2_ll'
I1
tp187
a(S'w'
I5
tp188
a(S'p1_tl'
I63
tp189
a(S'p1_ll'
I1
tp190
a(S'w'
I26407
tp191
a(S'tr_tl'
I63
tp192
a(S'w'
I1
tp193
a(S'tr_ll'
I1
tp194
a(S'w'
I5
tp195
a(S'p2_vo'
I15
tp196
a(S'w'
I1
tp197
a(S'p2_tl'
I103
tp198
a(S'p2_ll'
I1
tp199
a(S'w'
I5
tp200
a(S'p1_vo'
I15
tp201
a(S'w'
I1
tp202
a(S'p1_tl'
I212
tp203
a(S'p1_ll'
I1
tp204
a(S'p1_th'
I0
tp205
a(S'w'
I26406
tp206
a(S'tr_lr'
I127
tp207
a(S'w'
I1
tp208
a(S'tr_ll'
I1
tp209
a(S'w'
I26417
tp210
a(S'tr_lr'
I48
tp211
a(S'w'
I1
tp212
a(S'tr_ll'
I1
tp213
a(S'w'
I4
tp214
a(S'p2_tl'
I124
tp215
a(S'p2_ll'
I1
tp216
a(S'w'
I5
tp217
a(S'p1_tl'
I12
tp218
a(S'p1_ll'
I1
tp219
a(S'p1_th'
I1
tp220
a(S'w'
I17599
tp221
a(S'tr_lr'
I24
tp222
a(S'w'
I1
tp223
a(S'tr_tl'
I28
tp224
a(S'tr_ll'
I1
tp225
a(S'w'
I8805
tp226
a(S'tr_lr'
I48
tp227
a(S'tr_tl'
I12
tp228
a(S'w'
I1
tp229
a(S'tr_ll'
I1
tp230
a(S'w'
I17610
tp231
a(S'tr_lr'
I24
tp232
a(S'w'
I1
tp233
a(S'tr_tl'
I212
tp234
a(S'tr_ll'
I1
tp235
a(S'tr_th'
I0
tp236
a(S'w'
I8805
tp237
a(S'tr_lr'
I72
tp238
a(S'tr_tl'
I189
tp239
a(S'w'
I1
tp240
a(S'tr_ll'
I1
tp241
a(S'w'
I4
tp242
a(S'p2_tl'
I63
tp243
a(S'p2_ll'
I1
tp244
a(S'w'
I4
tp245
a(S'p1_tl'
I225
tp246
a(S'w'
I1
tp247
a(S'p1_ll'
I1
tp248
a(S'p1_th'
I0
tp249
a(S'w'
I26407
tp250
a(S'tr_lr'
I127
tp251
a(S'w'
I1
tp252
a(S'tr_ll'
I1
tp253
a(S'w'
I26416
tp254
a(S'tr_lr'
I72
tp255
a(S'w'
I1
tp256
a(S'tr_ll'
I1
tp257
a(S'w'
I4
tp258
a(S'p2_tl'
I124
tp259
a(S'p2_ll'
I1
tp260
a(S'w'
I5
tp261
a(S'p1_vo'
I9
tp262
a(S'w'
I1
tp263
a(S'p1_tl'
I12
tp264
a(S'p1_ll'
I1
tp265
a(S'p1_th'
I1
tp266
a(S'w'
I26404
tp267
a(S'tr_tl'
I12
tp268
a(S'w'
I1
tp269
a(S'tr_ll'
I1
tp270
a(S'tr_th'
I1
tp271
a(S'w'
I4
tp272
a(S'p1_tl'
I63
tp273
a(S'w'
I1
tp274
a(S'p1_ll'
I1
tp275
a(S'w'
I26411
tp276
a(S'tr_tl'
I63
tp277
a(S'w'
I1
tp278
a(S'tr_ll'
I1
tp279
a(S'w'
I4
tp280
a(S'p2_tl'
I103
tp281
a(S'p2_ll'
I1
tp282
a(S'w'
I5
tp283
a(S'p1_vo'
I15
tp284
a(S'w'
I1
tp285
a(S'p1_tl'
I212
tp286
a(S'p1_ll'
I1
tp287
a(S'p1_th'
I0
tp288
a(S'w'
I26407
tp289
a(S'tr_lr'
I127
tp290
a(S'w'
I1
tp291
a(S'tr_ll'
I1
tp292
a(S'w'
I26418
tp293
a(S'tr_lr'
I48
tp294
a(S'w'
I1
tp295
a(S'tr_ll'
I1
tp296
a(S'w'
I4
tp297
a(S'p2_tl'
I171
tp298
a(S'p2_ll'
I1
tp299
a(S'w'
I4
tp300
a(S'p1_tl'
I12
tp301
a(S'w'
I1
tp302
a(S'p1_ll'
I1
tp303
a(S'p1_th'
I1
tp304
a(S'w'
I17599
tp305
a(S'tr_lr'
I24
tp306
a(S'w'
I1
tp307
a(S'tr_tl'
I28
tp308
a(S'tr_ll'
I1
tp309
a(S'w'
I8804
tp310
a(S'tr_lr'
I48
tp311
a(S'w'
I1
tp312
a(S'tr_tl'
I12
tp313
a(S'tr_ll'
I1
tp314
a(S'w'
I17611
tp315
a(S'tr_lr'
I24
tp316
a(S'tr_tl'
I212
tp317
a(S'w'
I1
tp318
a(S'tr_ll'
I1
tp319
a(S'tr_th'
I0
tp320
a(S'w'
I8804
tp321
a(S'tr_lr'
I72
tp322
a(S'w'
I1
tp323
a(S'tr_tl'
I189
tp324
a(S'tr_ll'
I1
tp325
a(S'w'
I5
tp326
a(S'p2_tl'
I63
tp327
a(S'p2_ll'
I1
tp328
a(S'w'
I4
tp329
a(S'p1_tl'
I225
tp330
a(S'p1_ll'
I1
tp331
a(S'p1_th'
I0
tp332
a(S'w'
I26408
tp333
a(S'tr_lr'
I127
tp334
a(S'w'
I1
tp335
a(S'tr_ll'
I1
tp336
a(S'w'
I26416
tp337
a(S'tr_lr'
I72
tp338
a(S'w'
I1
tp339
a(S'tr_ll'
I1
tp340
a(S'w'
I4
tp341
a(S'p2_vo'
I9
tp342
a(S'w'
I1
tp343
a(S'p2_tl'
I124
tp344
a(S'w'
I1
tp345
a(S'p2_ll'
I1
tp346
a(S'w'
I4
tp347
a(S'p1_vo'
I9
tp348
a(S'w'
I1
tp349
a(S'p1_tl'
I12
tp350
a(S'w'
I1
tp351
a(S'p1_ll'
I1
tp352
a(S'p1_th'
I1
tp353
a(S'w'
I26402
tp354
a(S'tr_tl'
I12
tp355
a(S'w'
I1
tp356
a(S'tr_ll'
I1
tp357
a(S'tr_th'
I1
tp358
a(S'w'
I4
tp359
a(S'p2_tl'
I196
tp360
a(S'p2_ll'
I1
tp361
a(S'w'
I4
tp362
a(S'p1_tl'
I28
tp363
a(S'p1_ll'
I1
tp364
a(S'w'
I26411
tp365
a.