(lp1
(S'clock'
p2
I1789772
tp3
a(S'p1_du'
I2
tp4
a(S'p1_vo'
I1
tp5
a(S'p1_sn'
I1
tp6
a(S'p1_tl'
I253
tp7
a(S'p1_ll'
I1
tp8
a(S'p2_du'
I1
tp9
a(S'p2_vo'
I1
tp10
a(S'p2_sn'
I1
tp11
a(S'p2_tl'
I171
tp12
a(S'p2_ll'
I1
tp13
a(S'p2_th'
I1
tp14
a(S'tr_lr'
I24
tp15
a(S'tr_tl'
I63
tp16
a(S'tr_ll'
I1
tp17
a(S'tr_th'
I1
tp18
a(S'ch_no'
I1
tp19
a(S'ch_tr'
I1
tp20
a(S'ch_p2'
I1
tp21
a(S'ch_p1'
I1
tp22
a(S'tr_lr'
I127
tp23
a(S'w'
I1
tp24
a(S'tr_tl'
I171
tp25
a(S'tr_ll'
I1
tp26
a(S'w'
I9
tp27
a(S'p1_vo'
I0
tp28
a(S'w'
I1
tp29
a(S'p1_tl'
I28
tp30
a(S'p1_ll'
I1
tp31
a(S'p1_th'
I1
tp32
a(S'w'
I2186
tp33
a(S'p1_tl'
I63
tp34
a(S'p1_ll'
I1
tp35
a(S'w'
I2202
tp36
a(S'p1_tl'
I82
tp37
a(S'p1_ll'
I1
tp38
a(S'w'
I2201
tp39
a(S'p1_tl'
I124
tp40
a(S'p1_ll'
I1
tp41
a(S'w'
I2202
tp42
a(S'p1_vo'
I1
tp43
a(S'w'
I1
tp44
a(S'p1_tl'
I171
tp45
a(S'p1_ll'
I1
tp46
a(S'w'
I4402
tp47
a(S'p1_vo'
I0
tp48
a(S'w'
I1
tp49
a(S'p1_ll'
I1
tp50
a(S'w'
I2200
tp51
a(S'p1_tl'
I124
tp52
a(S'p1_ll'
I1
tp53
a(S'w'
I2201
tp54
a(S'p1_tl'
I82
tp55
a(S'p1_ll'
I1
tp56
a(S'w'
I2201
tp57
a(S'p1_tl'
I63
tp58
a(S'w'
I1
tp59
a(S'p1_ll'
I1
tp60
a(S'w'
I2201
tp61
a(S'p1_vo'
I1
tp62
a(S'w'
I1
tp63
a(S'p1_tl'
I28
tp64
a(S'w'
I1
tp65
a(S'p1_ll'
I1
tp66
a(S'w'
I4401
tp67
a(S'p2_du'
I0
tp68
a(S'p2_vo'
I0
tp69
a(S'w'
I1
tp70
a(S'p2_tl'
I28
tp71
a(S'p2_ll'
I1
tp72
a(S'w'
I5
tp73
a(S'p1_vo'
I0
tp74
a(S'w'
I1
tp75
a(S'p1_tl'
I238
tp76
a(S'p1_ll'
I1
tp77
a(S'p1_th'
I0
tp78
a(S'w'
I2194
tp79
a(S'p2_tl'
I63
tp80
a(S'p2_ll'
I1
tp81
a(S'w'
I4
tp82
a(S'p1_tl'
I253
tp83
a(S'p1_ll'
I1
tp84
a(S'w'
I2197
tp85
a(S'p2_tl'
I82
tp86
a(S'p2_ll'
I1
tp87
a(S'w'
I4
tp88
a(S'p1_tl'
I28
tp89
a(S'w'
I1
tp90
a(S'p1_ll'
I1
tp91
a(S'p1_th'
I1
tp92
a(S'w'
I2196
tp93
a(S'p2_tl'
I124
tp94
a(S'w'
I1
tp95
a(S'p2_ll'
I1
tp96
a(S'w'
I4
tp97
a(S'p1_tl'
I63
tp98
a(S'p1_ll'
I1
tp99
a(S'w'
I2197
tp100
a(S'p2_vo'
I1
tp101
a(S'w'
I1
tp102
a(S'p2_tl'
I171
tp103
a(S'w'
I1
tp104
a(S'p2_ll'
I1
tp105
a(S'w'
I4
tp106
a(S'p1_vo'
I1
tp107
a(S'w'
I1
tp108
a(S'p1_tl'
I82
tp109
a(S'w'
I1
tp110
a(S'p1_ll'
I1
tp111
a(S'w'
I4395
tp112
a(S'p2_vo'
I0
tp113
a(S'w'
I1
tp114
a(S'p2_ll'
I1
tp115
a(S'w'
I5
tp116
a(S'p1_vo'
I0
tp117
a(S'w'
I1
tp118
a(S'p1_ll'
I1
tp119
a(S'w'
I2194
tp120
a(S'p2_tl'
I124
tp121
a(S'p2_ll'
I1
tp122
a(S'w'
I5
tp123
a(S'p1_tl'
I63
tp124
a(S'p1_ll'
I1
tp125
a(S'w'
I2196
tp126
a(S'p2_tl'
I82
tp127
a(S'w'
I1
tp128
a(S'p2_ll'
I1
tp129
a(S'w'
I4
tp130
a(S'p1_tl'
I28
tp131
a(S'p1_ll'
I1
tp132
a(S'w'
I2197
tp133
a(S'p2_tl'
I63
tp134
a(S'p2_ll'
I1
tp135
a(S'w'
I4
tp136
a(S'p1_tl'
I253
tp137
a(S'w'
I1
tp138
a(S'p1_ll'
I1
tp139
a(S'p1_th'
I0
tp140
a(S'w'
I2197
tp141
a(S'p2_vo'
I1
tp142
a(S'w'
I1
tp143
a(S'p2_tl'
I28
tp144
a(S'p2_ll'
I1
tp145
a(S'w'
I5
tp146
a(S'p1_vo'
I1
tp147
a(S'w'
I1
tp148
a(S'p1_tl'
I238
tp149
a(S'p1_ll'
I1
tp150
a(S'w'
I4397
tp151
a.