(lp1
(S'clock'
p2
I1789772
tp3
a(S'ch_no'
I1
tp4
a(S'ch_tr'
I1
tp5
a(S'ch_p2'
I1
tp6
a(S'ch_p1'
I1
tp7
a(S'tr_lr'
I24
tp8
a(S'tr_tl'
I63
tp9
a(S'w'
I1
tp10
a(S'tr_ll'
I1
tp11
a(S'tr_th'
I1
tp12
a(S'w'
I4
tp13
a(S'p2_du'
I2
tp14
a(S'p2_vo'
I1
tp15
a(S'w'
I1
tp16
a(S'p2_sn'
I1
tp17
a(S'p2_tl'
I238
tp18
a(S'w'
I1
tp19
a(S'p2_ll'
I1
tp20
a(S'w'
I4
tp21
a(S'p1_du'
I2
tp22
a(S'p1_vo'
I1
tp23
a(S'w'
I1
tp24
a(S'p1_sn'
I1
tp25
a(S'p1_tl'
I159
tp26
a(S'w'
I1
tp27
a(S'p1_ll'
I1
tp28
a(S'w'
I4384
tp29
a(S'p2_tl'
I253
tp30
a(S'w'
I1
tp31
a(S'p2_ll'
I1
tp32
a(S'w'
I4
tp33
a(S'p1_tl'
I212
tp34
a(S'p1_ll'
I1
tp35
a(S'w'
I4398
tp36
a(S'tr_lr'
I12
tp37
a(S'w'
I1
tp38
a(S'tr_tl'
I159
tp39
a(S'tr_ll'
I1
tp40
a(S'tr_th'
I0
tp41
a(S'w'
I5
tp42
a(S'p2_tl'
I28
tp43
a(S'p2_ll'
I1
tp44
a(S'p2_th'
I1
tp45
a(S'w'
I4
tp46
a(S'p1_tl'
I238
tp47
a(S'p1_ll'
I1
tp48
a(S'w'
I4392
tp49
a(S'tr_tl'
I212
tp50
a(S'w'
I1
tp51
a(S'tr_ll'
I1
tp52
a(S'w'
I4
tp53
a(S'p2_tl'
I63
tp54
a(S'p2_ll'
I1
tp55
a(S'w'
I4
tp56
a(S'p1_tl'
I253
tp57
a(S'w'
I1
tp58
a(S'p1_ll'
I1
tp59
a(S'w'
I4394
tp60
a(S'tr_lr'
I24
tp61
a(S'w'
I1
tp62
a(S'tr_tl'
I253
tp63
a(S'tr_ll'
I1
tp64
a(S'w'
I5
tp65
a(S'p2_vo'
I3
tp66
a(S'w'
I1
tp67
a(S'p2_tl'
I171
tp68
a(S'p2_ll'
I1
tp69
a(S'w'
I4
tp70
a(S'p1_tl'
I28
tp71
a(S'p1_ll'
I1
tp72
a(S'p1_th'
I1
tp73
a(S'w'
I4392
tp74
a(S'p1_tl'
I63
tp75
a(S'p1_ll'
I1
tp76
a(S'w'
I4403
tp77
a(S'tr_lr'
I48
tp78
a(S'tr_tl'
I12
tp79
a(S'w'
I1
tp80
a(S'tr_ll'
I1
tp81
a(S'tr_th'
I1
tp82
a(S'w'
I4
tp83
a(S'p2_tl'
I103
tp84
a(S'p2_ll'
I1
tp85
a(S'w'
I5
tp86
a(S'p1_vo'
I6
tp87
a(S'w'
I1
tp88
a(S'p1_tl'
I212
tp89
a(S'p1_ll'
I1
tp90
a(S'p1_th'
I0
tp91
a(S'w'
I8794
tp92
a(S'p2_tl'
I12
tp93
a(S'p2_ll'
I1
tp94
a(S'w'
I8806
tp95
a(S'tr_lr'
I24
tp96
a(S'w'
I1
tp97
a(S'tr_tl'
I103
tp98
a(S'tr_ll'
I1
tp99
a(S'w'
I4
tp100
a(S'p2_tl'
I171
tp101
a(S'p2_ll'
I1
tp102
a(S'w'
I5
tp103
a(S'p1_vo'
I3
tp104
a(S'w'
I1
tp105
a(S'p1_tl'
I103
tp106
a(S'p1_ll'
I1
tp107
a(S'p1_th'
I1
tp108
a(S'w'
I8794
tp109
a(S'tr_tl'
I12
tp110
a(S'tr_ll'
I1
tp111
a(S'w'
I4
tp112
a(S'p2_tl'
I103
tp113
a(S'w'
I1
tp114
a(S'p2_ll'
I1
tp115
a(S'w'
I4
tp116
a(S'p1_tl'
I12
tp117
a(S'p1_ll'
I1
tp118
a(S'w'
I8797
tp119
a(S'tr_ll'
I1
tp120
a(S'w'
I4
tp121
a(S'p2_tl'
I12
tp122
a(S'p2_ll'
I1
tp123
a(S'w'
I4
tp124
a(S'p1_tl'
I212
tp125
a(S'w'
I1
tp126
a(S'p1_ll'
I1
tp127
a(S'p1_th'
I0
tp128
a(S'w'
I8796
tp129
a(S'tr_tl'
I238
tp130
a(S'tr_ll'
I1
tp131
a(S'tr_th'
I0
tp132
a(S'w'
I5
tp133
a(S'p2_vo'
I1
tp134
a(S'w'
I1
tp135
a(S'p2_tl'
I238
tp136
a(S'p2_ll'
I1
tp137
a(S'p2_th'
I0
tp138
a(S'w'
I5
tp139
a(S'p1_vo'
I1
tp140
a(S'w'
I1
tp141
a(S'p1_tl'
I189
tp142
a(S'p1_ll'
I1
tp143
a(S'w'
I4391
tp144
a(S'p2_tl'
I63
tp145
a(S'w'
I1
tp146
a(S'p2_ll'
I1
tp147
a(S'p2_th'
I1
tp148
a(S'w'
I4
tp149
a(S'p1_tl'
I238
tp150
a(S'p1_ll'
I1
tp151
a(S'w'
I4398
tp152
a(S'tr_lr'
I12
tp153
a(S'w'
I1
tp154
a(S'tr_tl'
I159
tp155
a(S'tr_ll'
I1
tp156
a(S'w'
I5
tp157
a(S'p2_tl'
I124
tp158
a(S'p2_ll'
I1
tp159
a(S'w'
I4
tp160
a(S'p1_tl'
I63
tp161
a(S'p1_ll'
I1
tp162
a(S'p1_th'
I1
tp163
a(S'w'
I4392
tp164
a(S'tr_tl'
I189
tp165
a(S'w'
I1
tp166
a(S'tr_ll'
I1
tp167
a(S'w'
I4
tp168
a(S'p2_tl'
I63
tp169
a(S'p2_ll'
I1
tp170
a(S'w'
I4
tp171
a(S'p1_tl'
I238
tp172
a(S'w'
I1
tp173
a(S'p1_ll'
I1
tp174
a(S'p1_th'
I0
tp175
a(S'w'
I4394
tp176
a(S'tr_lr'
I24
tp177
a(S'w'
I1
tp178
a(S'tr_tl'
I238
tp179
a(S'tr_ll'
I1
tp180
a(S'w'
I4
tp181
a(S'p2_tl'
I238
tp182
a(S'p2_ll'
I1
tp183
a(S'p2_th'
I0
tp184
a(S'w'
I5
tp185
a(S'p1_tl'
I189
tp186
a(S'p1_ll'
I1
tp187
a(S'w'
I4393
tp188
a(S'p2_tl'
I63
tp189
a(S'p2_ll'
I1
tp190
a(S'p2_th'
I1
tp191
a(S'w'
I4
tp192
a(S'p1_tl'
I238
tp193
a(S'p1_ll'
I1
tp194
a(S'w'
I4398
tp195
a(S'tr_lr'
I48
tp196
a(S'w'
I1
tp197
a(S'tr_tl'
I212
tp198
a(S'w'
I1
tp199
a(S'tr_ll'
I1
tp200
a(S'w'
I4
tp201
a(S'p2_vo'
I6
tp202
a(S'w'
I1
tp203
a(S'p2_tl'
I28
tp204
a(S'w'
I1
tp205
a(S'p2_ll'
I1
tp206
a(S'w'
I4
tp207
a(S'p1_vo'
I6
tp208
a(S'w'
I1
tp209
a(S'p1_tl'
I159
tp210
a(S'w'
I1
tp211
a(S'p1_ll'
I1
tp212
a(S'w'
I17598
tp213
a(S'tr_lr'
I72
tp214
a(S'w'
I1
tp215
a(S'tr_tl'
I171
tp216
a(S'tr_ll'
I1
tp217
a(S'tr_th'
I1
tp218
a(S'w'
I5
tp219
a(S'p2_vo'
I3
tp220
a(S'w'
I1
tp221
a(S'p2_ll'
I1
tp222
a(S'w'
I5
tp223
a(S'p1_vo'
I9
tp224
a(S'w'
I1
tp225
a(S'p1_tl'
I168
tp226
a(S'p1_ll'
I1
tp227
a(S'w'
I8792
tp228
a(S'p2_tl'
I212
tp229
a(S'w'
I1
tp230
a(S'p2_ll'
I1
tp231
a(S'p2_th'
I0
tp232
a(S'w'
I8805
tp233
a(S'p2_tl'
I28
tp234
a(S'p2_ll'
I1
tp235
a(S'p2_th'
I1
tp236
a(S'w'
I17621
tp237
a(S'tr_lr'
I24
tp238
a.