(lp1
(S'clock'
p2
I1789772
tp3
a(S'tr_lr'
I23
tp4
a(S'w'
I1
tp5
a(S'tr_tl'
I254
tp6
a(S'tr_ll'
I1
tp7
a(S'w'
I3
tp8
a(S'p2_vo'
I15
tp9
a(S'w'
I1
tp10
a(S'p2_tl'
I254
tp11
a(S'w'
I1
tp12
a(S'p2_ll'
I1
tp13
a(S'w'
I3
tp14
a(S'p1_vo'
I15
tp15
a(S'w'
I1
tp16
a(S'p1_tl'
I254
tp17
a(S'w'
I1
tp18
a(S'p1_ll'
I1
tp19
a(S'w'
I11731
tp20
a(S'tr_ll'
I1
tp21
a(S'w'
I6
tp22
a(S'p1_tl'
I190
tp23
a(S'p1_ll'
I1
tp24
a(S'w'
I5866
tp25
a(S'p2_ll'
I1
tp26
a(S'w'
I5868
tp27
a(S'tr_ll'
I1
tp28
a(S'w'
I5
tp29
a(S'p2_tl'
I29
tp30
a(S'p2_ll'
I1
tp31
a(S'p2_th'
I1
tp32
a(S'w'
I11736
tp33
a(S'tr_ll'
I1
tp34
a(S'w'
I5
tp35
a(S'p2_tl'
I254
tp36
a(S'p2_ll'
I1
tp37
a(S'p2_th'
I0
tp38
a(S'w'
I5
tp39
a(S'p1_tl'
I142
tp40
a(S'p1_ll'
I1
tp41
a(S'w'
I11731
tp42
a(S'tr_ll'
I1
tp43
a(S'w'
I5872
tp44
a(S'p2_ll'
I1
tp45
a(S'w'
I5869
tp46
a(S'tr_ll'
I1
tp47
a(S'w'
I4
tp48
a(S'p2_tl'
I29
tp49
a(S'w'
I1
tp50
a(S'p2_ll'
I1
tp51
a(S'p2_th'
I1
tp52
a(S'w'
I4
tp53
a(S'p1_tl'
I151
tp54
a(S'w'
I1
tp55
a(S'p1_ll'
I1
tp56
a(S'w'
I11731
tp57
a(S'tr_ll'
I1
tp58
a(S'w'
I4
tp59
a(S'p2_tl'
I254
tp60
a(S'w'
I1
tp61
a(S'p2_ll'
I1
tp62
a(S'p2_th'
I0
tp63
a(S'w'
I4
tp64
a(S'p1_tl'
I169
tp65
a(S'p1_ll'
I1
tp66
a(S'w'
I11732
tp67
a(S'tr_ll'
I1
tp68
a(S'w'
I4
tp69
a(S'p2_ll'
I1
tp70
a(S'w'
I5
tp71
a(S'p1_tl'
I190
tp72
a(S'p1_ll'
I1
tp73
a(S'w'
I5862
tp74
a(S'p2_tl'
I29
tp75
a(S'w'
I1
tp76
a(S'p2_ll'
I1
tp77
a(S'p2_th'
I1
tp78
a(S'w'
I5868
tp79
a(S'tr_ll'
I1
tp80
a(S'w'
I5
tp81
a(S'p2_tl'
I254
tp82
a(S'p2_ll'
I1
tp83
a(S'p2_th'
I0
tp84
a(S'w'
I5
tp85
a(S'p1_tl'
I169
tp86
a(S'p1_ll'
I1
tp87
a(S'w'
I11731
tp88
a(S'tr_ll'
I1
tp89
a(S'w'
I5872
tp90
a(S'w'
I1
tp91
a(S'p2_ll'
I1
tp92
a(S'w'
I4
tp93
a(S'p1_tl'
I254
tp94
a(S'p1_ll'
I1
tp95
a(S'w'
I5864
tp96
a(S'tr_ll'
I1
tp97
a(S'w'
I4
tp98
a(S'p2_tl'
I29
tp99
a(S'w'
I1
tp100
a(S'p2_ll'
I1
tp101
a(S'p2_th'
I1
tp102
a(S'w'
I4
tp103
a(S'w'
I1
tp104
a(S'p1_ll'
I1
tp105
a(S'w'
I11731
tp106
a(S'tr_ll'
I1
tp107
a(S'w'
I4
tp108
a(S'p2_tl'
I254
tp109
a(S'w'
I1
tp110
a(S'p2_ll'
I1
tp111
a(S'p2_th'
I0
tp112
a(S'w'
I11736
tp113
a(S'tr_ll'
I1
tp114
a(S'w'
I5872
tp115
a(S'p2_ll'
I1
tp116
a(S'w'
I5868
tp117
a(S'tr_ll'
I1
tp118
a(S'w'
I5
tp119
a(S'p2_tl'
I29
tp120
a(S'p2_ll'
I1
tp121
a(S'p2_th'
I1
tp122
a(S'w'
I11736
tp123
a(S'tr_ll'
I1
tp124
a(S'w'
I5
tp125
a(S'p2_tl'
I254
tp126
a(S'p2_ll'
I1
tp127
a(S'p2_th'
I0
tp128
a(S'w'
I4
tp129
a(S'p1_tl'
I0
tp130
a(S'w'
I1
tp131
a(S'p1_ll'
I1
tp132
a(S'w'
I11731
tp133
a(S'tr_ll'
I1
tp134
a(S'w'
I5
tp135
a(S'p2_ll'
I1
tp136
a(S'w'
I5867
tp137
a(S'p2_tl'
I29
tp138
a(S'p2_ll'
I1
tp139
a(S'p2_th'
I1
tp140
a(S'w'
I5868
tp141
a(S'tr_tl'
I213
tp142
a(S'w'
I1
tp143
a(S'tr_ll'
I1
tp144
a(S'w'
I4
tp145
a(S'p2_tl'
I213
tp146
a(S'w'
I1
tp147
a(S'p2_ll'
I1
tp148
a(S'p2_th'
I0
tp149
a(S'w'
I4
tp150
a(S'p1_tl'
I213
tp151
a(S'w'
I1
tp152
a(S'p1_ll'
I1
tp153
a(S'w'
I11731
tp154
a(S'tr_ll'
I1
tp155
a(S'w'
I6
tp156
a(S'p1_tl'
I160
tp157
a(S'w'
I1
tp158
a(S'p1_ll'
I1
tp159
a(S'w'
I5865
tp160
a(S'p2_ll'
I1
tp161
a(S'w'
I5869
tp162
a(S'tr_ll'
I1
tp163
a(S'w'
I4
tp164
a(S'p2_tl'
I240
tp165
a(S'p2_ll'
I1
tp166
a(S'w'
I11737
tp167
a(S'tr_ll'
I1
tp168
a(S'w'
I4
tp169
a(S'p2_tl'
I213
tp170
a(S'p2_ll'
I1
tp171
a(S'w'
I5
tp172
a(S'p1_tl'
I120
tp173
a(S'p1_ll'
I1
tp174
a(S'w'
I11731
tp175
a(S'tr_ll'
I1
tp176
a(S'w'
I5872
tp177
a(S'w'
I1
tp178
a(S'p2_ll'
I1
tp179
a(S'w'
I5868
tp180
a(S'tr_ll'
I1
tp181
a(S'w'
I4
tp182
a(S'p2_tl'
I240
tp183
a(S'w'
I1
tp184
a(S'p2_ll'
I1
tp185
a(S'w'
I4
tp186
a(S'p1_tl'
I127
tp187
a(S'w'
I1
tp188
a(S'p1_ll'
I1
tp189
a(S'w'
I11731
tp190
a(S'tr_ll'
I1
tp191
a(S'w'
I4
tp192
a(S'p2_tl'
I213
tp193
a(S'w'
I1
tp194
a(S'p2_ll'
I1
tp195
a(S'w'
I4
tp196
a(S'p1_tl'
I142
tp197
a(S'w'
I1
tp198
a(S'p1_ll'
I1
tp199
a(S'w'
I11731
tp200
a(S'tr_ll'
I1
tp201
a(S'w'
I4
tp202
a(S'w'
I1
tp203
a(S'p2_ll'
I1
tp204
a(S'w'
I4
tp205
a(S'p1_tl'
I160
tp206
a(S'p1_ll'
I1
tp207
a(S'w'
I5863
tp208
a(S'p2_tl'
I240
tp209
a(S'p2_ll'
I1
tp210
a(S'w'
I5869
tp211
a(S'tr_ll'
I1
tp212
a(S'w'
I4
tp213
a(S'p2_tl'
I213
tp214
a(S'p2_ll'
I1
tp215
a(S'w'
I5
tp216
a(S'p1_tl'
I142
tp217
a(S'p1_ll'
I1
tp218
a(S'w'
I11731
tp219
a(S'tr_ll'
I1
tp220
a(S'w'
I5872
tp221
a(S'w'
I1
tp222
a(S'p2_ll'
I1
tp223
a(S'w'
I4
tp224
a(S'p1_tl'
I95
tp225
a(S'w'
I1
tp226
a(S'p1_ll'
I1
tp227
a(S'w'
I5863
tp228
a(S'tr_ll'
I1
tp229
a(S'w'
I5
tp230
a(S'p2_tl'
I240
tp231
a(S'p2_ll'
I1
tp232
a(S'w'
I5
tp233
a(S'p1_ll'
I1
tp234
a(S'w'
I11731
tp235
a(S'tr_ll'
I1
tp236
a(S'w'
I4
tp237
a(S'p2_tl'
I213
tp238
a(S'w'
I1
tp239
a(S'p2_ll'
I1
tp240
a(S'w'
I11736
tp241
a(S'tr_ll'
I1
tp242
a(S'w'
I5872
tp243
a(S'p2_ll'
I1
tp244
a(S'w'
I5869
tp245
a(S'tr_ll'
I1
tp246
a(S'w'
I4
tp247
a(S'p2_tl'
I240
tp248
a(S'p2_ll'
I1
tp249
a(S'w'
I11736
tp250
a(S'tr_ll'
I1
tp251
a(S'w'
I5
tp252
a(S'p2_tl'
I213
tp253
a(S'p2_ll'
I1
tp254
a(S'w'
I5
tp255
a(S'p1_tl'
I106
tp256
a(S'p1_ll'
I1
tp257
a(S'w'
I11731
tp258
a(S'tr_ll'
I1
tp259
a(S'w'
I5
tp260
a(S'p2_ll'
I1
tp261
a(S'w'
I5
tp262
a(S'p1_tl'
I95
tp263
a(S'p1_ll'
I1
tp264
a(S'w'
I5862
tp265
a(S'p2_tl'
I240
tp266
a(S'w'
I1
tp267
a(S'p2_ll'
I1
tp268
a(S'w'
I5868
tp269
a(S'tr_tl'
I254
tp270
a(S'tr_ll'
I1
tp271
a(S'w'
I5
tp272
a(S'p2_tl'
I254
tp273
a(S'p2_ll'
I1
tp274
a(S'w'
I4
tp275
a(S'p1_tl'
I84
tp276
a(S'w'
I1
tp277
a(S'p1_ll'
I1
tp278
a(S'w'
I11731
tp279
a(S'tr_ll'
I1
tp280
a(S'w'
I5872
tp281
a(S'p2_ll'
I1
tp282
a(S'w'
I5869
tp283
a(S'tr_ll'
I1
tp284
a(S'w'
I4
tp285
a(S'p2_tl'
I29
tp286
a(S'w'
I1
tp287
a(S'p2_ll'
I1
tp288
a(S'p2_th'
I1
tp289
a(S'w'
I11736
tp290
a(S'tr_ll'
I1
tp291
a(S'w'
I4
tp292
a(S'p2_tl'
I254
tp293
a(S'w'
I1
tp294
a(S'p2_ll'
I1
tp295
a(S'p2_th'
I0
tp296
a(S'w'
I11736
tp297
a(S'tr_ll'
I1
tp298
a(S'w'
I6
tp299
a(S'p1_tl'
I0
tp300
a(S'p1_ll'
I1
tp301
a(S'w'
I5865
tp302
a(S'w'
I1
tp303
a(S'p2_ll'
I1
tp304
a(S'w'
I5868
tp305
a(S'tr_ll'
I1
tp306
a(S'w'
I5
tp307
a(S'p2_tl'
I29
tp308
a(S'p2_ll'
I1
tp309
a(S'p2_th'
I1
tp310
a(S'w'
I11736
tp311
a(S'tr_ll'
I1
tp312
a(S'w'
I4
tp313
a(S'p2_tl'
I254
tp314
a(S'w'
I1
tp315
a(S'p2_ll'
I1
tp316
a(S'p2_th'
I0
tp317
a(S'w'
I4
tp318
a(S'p1_tl'
I127
tp319
a(S'w'
I1
tp320
a(S'p1_ll'
I1
tp321
a(S'w'
I11731
tp322
a(S'tr_ll'
I1
tp323
a(S'w'
I4
tp324
a(S'w'
I1
tp325
a(S'p2_ll'
I1
tp326
a(S'w'
I5867
tp327
a(S'p2_tl'
I29
tp328
a(S'p2_ll'
I1
tp329
a(S'p2_th'
I1
tp330
a(S'w'
I5869
tp331
a(S'tr_ll'
I1
tp332
a(S'w'
I4
tp333
a(S'p2_tl'
I254
tp334
a(S'w'
I1
tp335
a(S'p2_ll'
I1
tp336
a(S'p2_th'
I0
tp337
a(S'w'
I4
tp338
a(S'p1_tl'
I71
tp339
a(S'p1_ll'
I1
tp340
a(S'w'
I11731
tp341
a(S'tr_ll'
I1
tp342
a(S'w'
I5872
tp343
a(S'w'
I1
tp344
a(S'p2_ll'
I1
tp345
a(S'w'
I5868
tp346
a(S'tr_ll'
I1
tp347
a(S'w'
I5
tp348
a(S'p2_tl'
I29
tp349
a(S'p2_ll'
I1
tp350
a(S'p2_th'
I1
tp351
a(S'w'
I11736
tp352
a(S'tr_ll'
I1
tp353
a(S'w'
I5
tp354
a(S'p2_tl'
I254
tp355
a(S'p2_ll'
I1
tp356
a(S'p2_th'
I0
tp357
a(S'w'
I11736
tp358
a(S'tr_ll'
I1
tp359
a(S'w'
I6
tp360
a(S'p1_tl'
I75
tp361
a(S'w'
I1
tp362
a(S'p1_ll'
I1
tp363
a(S'w'
I5865
tp364
a(S'p2_ll'
I1
tp365
a(S'w'
I5869
tp366
a(S'tr_ll'
I1
tp367
a(S'w'
I4
tp368
a(S'p2_tl'
I29
tp369
a(S'w'
I1
tp370
a(S'p2_ll'
I1
tp371
a(S'p2_th'
I1
tp372
a(S'w'
I5869
tp373
a(S'p1_tl'
I84
tp374
a(S'p1_ll'
I1
tp375
a(S'w'
I5867
tp376
a(S'tr_ll'
I1
tp377
a(S'w'
I4
tp378
a(S'p2_tl'
I254
tp379
a(S'w'
I1
tp380
a(S'p2_ll'
I1
tp381
a(S'p2_th'
I0
tp382
a(S'w'
I11736
tp383
a(S'tr_ll'
I1
tp384
a(S'w'
I4
tp385
a(S'p2_ll'
I1
tp386
a(S'w'
I5
tp387
a(S'p1_tl'
I95
tp388
a(S'p1_ll'
I1
tp389
a(S'w'
I5862
tp390
a(S'p2_tl'
I29
tp391
a(S'w'
I1
tp392
a(S'p2_ll'
I1
tp393
a(S'p2_th'
I1
tp394
a(S'w'
I5868
tp395
a(S'tr_tl'
I213
tp396
a(S'tr_ll'
I1
tp397
a(S'w'
I5
tp398
a(S'p2_tl'
I213
tp399
a(S'p2_ll'
I1
tp400
a(S'p2_th'
I0
tp401
a(S'w'
I5
tp402
a(S'p1_tl'
I84
tp403
a(S'p1_ll'
I1
tp404
a(S'w'
I11731
tp405
a(S'tr_ll'
I1
tp406
a(S'w'
I5872
tp407
a(S'w'
I1
tp408
a(S'p2_ll'
I1
tp409
a(S'w'
I4
tp410
a(S'p1_tl'
I63
tp411
a(S'p1_ll'
I1
tp412
a(S'w'
I5864
tp413
a(S'tr_ll'
I1
tp414
a(S'w'
I4
tp415
a(S'p2_tl'
I240
tp416
a(S'w'
I1
tp417
a(S'p2_ll'
I1
tp418
a(S'w'
I4
tp419
a(S'w'
I1
tp420
a(S'p1_ll'
I1
tp421
a(S'w'
I11731
tp422
a(S'tr_ll'
I1
tp423
a(S'w'
I4
tp424
a(S'p2_tl'
I213
tp425
a(S'w'
I1
tp426
a(S'p2_ll'
I1
tp427
a(S'w'
I11736
tp428
a(S'tr_ll'
I1
tp429
a(S'w'
I5871
tp430
a(S'w'
I1
tp431
a(S'p2_ll'
I1
tp432
a(S'w'
I5868
tp433
a(S'tr_ll'
I1
tp434
a(S'w'
I5
tp435
a(S'p2_tl'
I240
tp436
a(S'p2_ll'
I1
tp437
a(S'w'
I11736
tp438
a(S'tr_ll'
I1
tp439
a(S'w'
I5
tp440
a(S'p2_tl'
I213
tp441
a(S'p2_ll'
I1
tp442
a(S'w'
I5
tp443
a(S'p1_tl'
I0
tp444
a(S'p1_ll'
I1
tp445
a(S'w'
I11731
tp446
a(S'tr_ll'
I1
tp447
a(S'w'
I4
tp448
a(S'w'
I1
tp449
a(S'p2_ll'
I1
tp450
a(S'w'
I5867
tp451
a(S'p2_tl'
I240
tp452
a(S'p2_ll'
I1
tp453
a(S'w'
I5869
tp454
a(S'tr_ll'
I1
tp455
a(S'w'
I4
tp456
a(S'p2_tl'
I213
tp457
a(S'w'
I1
tp458
a(S'p2_ll'
I1
tp459
a(S'w'
I11736
tp460
a(S'tr_ll'
I1
tp461
a(S'w'
I5872
tp462
a(S'p2_ll'
I1
tp463
a(S'w'
I5869
tp464
a(S'tr_ll'
I1
tp465
a(S'w'
I4
tp466
a(S'p2_tl'
I240
tp467
a(S'p2_ll'
I1
tp468
a(S'w'
I11736
tp469
a(S'tr_ll'
I1
tp470
a(S'w'
I5
tp471
a(S'p2_tl'
I213
tp472
a(S'p2_ll'
I1
tp473
a(S'w'
I11736
tp474
a(S'tr_ll'
I1
tp475
a(S'w'
I6
tp476
a(S'w'
I1
tp477
a(S'p1_ll'
I1
tp478
a(S'w'
I5865
tp479
a(S'w'
I1
tp480
a(S'p2_ll'
I1
tp481
a(S'w'
I5868
tp482
a(S'tr_ll'
I1
tp483
a(S'w'
I4
tp484
a(S'p2_tl'
I240
tp485
a(S'w'
I1
tp486
a(S'p2_ll'
I1
tp487
a(S'w'
I11736
tp488
a(S'tr_ll'
I1
tp489
a(S'w'
I4
tp490
a(S'p2_tl'
I213
tp491
a(S'w'
I1
tp492
a(S'p2_ll'
I1
tp493
a(S'w'
I11736
tp494
a(S'tr_ll'
I1
tp495
a(S'w'
I4
tp496
a(S'p2_ll'
I1
tp497
a(S'w'
I5867
tp498
a(S'p2_tl'
I240
tp499
a(S'w'
I1
tp500
a(S'p2_ll'
I1
tp501
a(S'w'
I6601
tp502
a.