(lp1
(S'clock'
p2
I1789772
tp3
a(S'tr_lr'
I127
tp4
a(S'w'
I1
tp5
a(S'tr_ll'
I1
tp6
a(S'w'
I4
tp7
a(S'p2_vo'
I15
tp8
a(S'p2_tl'
I190
tp9
a(S'w'
I1
tp10
a(S'p2_ll'
I1
tp11
a(S'w'
I3
tp12
a(S'p1_vo'
I15
tp13
a(S'w'
I1
tp14
a(S'p1_tl'
I95
tp15
a(S'w'
I1
tp16
a(S'p1_ll'
I1
tp17
a(S'w'
I11732
tp18
a(S'p2_tl'
I142
tp19
a(S'w'
I1
tp20
a(S'p2_ll'
I1
tp21
a(S'w'
I4
tp22
a(S'p1_tl'
I71
tp23
a(S'p1_ll'
I1
tp24
a(S'w'
I11736
tp25
a(S'p2_tl'
I127
tp26
a(S'p2_ll'
I1
tp27
a(S'w'
I5
tp28
a(S'p1_tl'
I63
tp29
a(S'p1_ll'
I1
tp30
a(S'w'
I11736
tp31
a(S'p2_tl'
I95
tp32
a(S'p2_ll'
I1
tp33
a(S'w'
I5
tp34
a(S'p1_tl'
I47
tp35
a(S'p1_ll'
I1
tp36
a(S'w'
I23476
tp37
a(S'p2_tl'
I106
tp38
a(S'w'
I1
tp39
a(S'p2_ll'
I1
tp40
a(S'w'
I4
tp41
a(S'p1_tl'
I53
tp42
a(S'w'
I1
tp43
a(S'p1_ll'
I1
tp44
a(S'w'
I5865
tp45
a(S'p2_tl'
I113
tp46
a(S'p2_ll'
I1
tp47
a(S'w'
I5
tp48
a(S'p1_tl'
I56
tp49
a(S'p1_ll'
I1
tp50
a(S'w'
I5865
tp51
a(S'p2_tl'
I127
tp52
a(S'w'
I1
tp53
a(S'p2_ll'
I1
tp54
a(S'w'
I4
tp55
a(S'p1_tl'
I63
tp56
a(S'w'
I1
tp57
a(S'p1_ll'
I1
tp58
a(S'w'
I11735
tp59
a(S'p2_tl'
I142
tp60
a(S'w'
I1
tp61
a(S'p2_ll'
I1
tp62
a(S'w'
I4
tp63
a(S'p1_tl'
I71
tp64
a(S'p1_ll'
I1
tp65
a(S'w'
I11735
tp66
a(S'tr_ll'
I1
tp67
a(S'w'
I4
tp68
a(S'p2_tl'
I127
tp69
a(S'p2_ll'
I1
tp70
a(S'w'
I5
tp71
a(S'p1_tl'
I63
tp72
a(S'p1_ll'
I1
tp73
a(S'w'
I17601
tp74
a(S'tr_tl'
I64
tp75
a(S'w'
I1
tp76
a(S'tr_ll'
I1
tp77
a(S'tr_th'
I1
tp78
a(S'w'
I4
tp79
a(S'p2_tl'
I63
tp80
a(S'p2_ll'
I1
tp81
a(S'w'
I5
tp82
a(S'p1_tl'
I47
tp83
a(S'p1_ll'
I1
tp84
a(S'w'
I5861
tp85
a(S'tr_ll'
I1
tp86
a(S'w'
I5
tp87
a(S'p2_ll'
I1
tp88
a(S'w'
I4
tp89
a(S'w'
I1
tp90
a(S'p1_ll'
I1
tp91
a(S'w'
I46953
tp92
a(S'tr_ll'
I1
tp93
a(S'w'
I5
tp94
a(S'p2_ll'
I1
tp95
a(S'w'
I5
tp96
a(S'p1_ll'
I1
tp97
a(S'w'
I23472
tp98
a(S'tr_tl'
I83
tp99
a(S'tr_ll'
I1
tp100
a(S'w'
I5
tp101
a(S'p2_tl'
I67
tp102
a(S'p2_ll'
I1
tp103
a(S'w'
I4
tp104
a(S'p1_tl'
I42
tp105
a(S'w'
I1
tp106
a(S'p1_ll'
I1
tp107
a(S'w'
I46955
tp108
a(S'p2_tl'
I0
tp109
a(S'p2_ll'
I1
tp110
a(S'w'
I5
tp111
a(S'p1_tl'
I0
tp112
a(S'p1_ll'
I1
tp113
a(S'w'
I46242
tp114
a(S'tr_lr'
I0
tp115
a(S'w'
I14
tp116
a(S'p2_vo'
I0
tp117
a(S'w'
I14
tp118
a(S'p1_vo'
I0
tp119
a(S'w'
I1
tp120
a.