(lp1
(S'clock'
p2
I1789772
tp3
a(S'tr_lr'
I23
tp4
a(S'w'
I1
tp5
a(S'tr_tl'
I125
tp6
a(S'tr_ll'
I1
tp7
a(S'tr_th'
I1
tp8
a(S'w'
I4
tp9
a(S'p2_vo'
I15
tp10
a(S'w'
I1
tp11
a(S'p2_ll'
I1
tp12
a(S'w'
I4
tp13
a(S'p1_vo'
I15
tp14
a(S'p1_tl'
I190
tp15
a(S'w'
I1
tp16
a(S'p1_ll'
I1
tp17
a(S'w'
I35216
tp18
a(S'p1_tl'
I169
tp19
a(S'p1_ll'
I1
tp20
a(S'w'
I11739
tp21
a(S'p2_tl'
I190
tp22
a(S'p2_ll'
I1
tp23
a(S'w'
I5
tp24
a(S'p1_tl'
I160
tp25
a(S'p1_ll'
I1
tp26
a(S'w'
I11736
tp27
a(S'p2_tl'
I169
tp28
a(S'p2_ll'
I1
tp29
a(S'w'
I5
tp30
a(S'p1_tl'
I142
tp31
a(S'p1_ll'
I1
tp32
a(S'w'
I11735
tp33
a(S'p2_tl'
I160
tp34
a(S'w'
I1
tp35
a(S'p2_ll'
I1
tp36
a(S'w'
I4
tp37
a(S'p1_tl'
I127
tp38
a(S'w'
I1
tp39
a(S'p1_ll'
I1
tp40
a(S'w'
I23474
tp41
a(S'tr_tl'
I254
tp42
a(S'w'
I1
tp43
a(S'tr_ll'
I1
tp44
a(S'tr_th'
I0
tp45
a(S'w'
I4
tp46
a(S'p2_tl'
I169
tp47
a(S'p2_ll'
I1
tp48
a(S'w'
I5
tp49
a(S'p1_tl'
I106
tp50
a(S'p1_ll'
I1
tp51
a(S'w'
I23474
tp52
a(S'p2_tl'
I190
tp53
a(S'p2_ll'
I1
tp54
a(S'w'
I4
tp55
a(S'p1_tl'
I113
tp56
a(S'w'
I1
tp57
a(S'p1_ll'
I1
tp58
a(S'w'
I11735
tp59
a(S'p2_tl'
I213
tp60
a(S'w'
I1
tp61
a(S'p2_ll'
I1
tp62
a(S'w'
I4
tp63
a(S'p1_tl'
I127
tp64
a(S'w'
I1
tp65
a(S'p1_ll'
I1
tp66
a(S'w'
I11733
tp67
a(S'tr_tl'
I83
tp68
a(S'w'
I1
tp69
a(S'tr_ll'
I1
tp70
a(S'tr_th'
I1
tp71
a(S'w'
I4
tp72
a(S'p2_tl'
I226
tp73
a(S'w'
I1
tp74
a(S'p2_ll'
I1
tp75
a(S'w'
I4
tp76
a(S'p1_tl'
I134
tp77
a(S'w'
I1
tp78
a(S'p1_ll'
I1
tp79
a(S'w'
I46238
tp80
a(S'tr_lr'
I0
tp81
a(S'w'
I14
tp82
a(S'p2_vo'
I0
tp83
a(S'w'
I14
tp84
a(S'p1_vo'
I0
tp85
a(S'w'
I1
tp86
a.