(lp1
(S'clock'
p2
I1789772
tp3
a(S'p2_du'
I3
tp4
a(S'p2_lh'
I1
tp5
a(S'p2_cv'
I1
tp6
a(S'p2_vo'
I5
tp7
a(S'w'
I4
tp8
a(S'p1_tl'
I66
tp9
a(S'w'
I2
tp10
a(S'p1_lh'
I1
tp11
a(S'p1_cv'
I1
tp12
a(S'p1_vo'
I1
tp13
a(S'w'
I718
tp14
a(S'no_np'
I7
tp15
a(S'w'
I2
tp16
a(S'no_lh'
I1
tp17
a(S'no_cv'
I1
tp18
a(S'w'
I6
tp19
a(S'p2_tl'
I64
tp20
a(S'w'
I2
tp21
a(S'p2_vo'
I1
tp22
a(S'w'
I4
tp23
a(S'w'
I719
tp24
a(S'w'
I7
tp25
a(S'w'
I6
tp26
a(S'p1_tl'
I65
tp27
a(S'w'
I725
tp28
a(S'w'
I7
tp29
a(S'p1_tl'
I64
tp30
a(S'w'
I726
tp31
a(S'w'
I2
tp32
a(S'p2_du'
I2
tp33
a(S'w'
I3
tp34
a(S'w'
I2
tp35
a(S'p1_du'
I2
tp36
a(S'w'
I726
tp37
a(S'p2_tl'
I250
tp38
a(S'w'
I2
tp39
a(S'p2_du'
I1
tp40
a(S'w'
I2
tp41
a(S'p2_ll'
I0
tp42
a(S'p2_th'
I2
tp43
a(S'w'
I4
tp44
a(S'p1_tl'
I252
tp45
a(S'w'
I2
tp46
a(S'p1_du'
I1
tp47
a(S'w'
I1
tp48
a(S'p1_ll'
I0
tp49
a(S'p1_th'
I1
tp50
a(S'w'
I723
tp51
a(S'w'
I2
tp52
a(S'p2_vo'
I2
tp53
a(S'w'
I4
tp54
a(S'p1_tl'
I253
tp55
a(S'w'
I2
tp56
a(S'p1_vo'
I3
tp57
a(S'w'
I726
tp58
a(S'w'
I2
tp59
a(S'p2_vo'
I3
tp60
a(S'w'
I4
tp61
a(S'w'
I2
tp62
a(S'p1_vo'
I4
tp63
a(S'w'
I726
tp64
a(S'w'
I2
tp65
a(S'p2_vo'
I4
tp66
a(S'w'
I4
tp67
a(S'w'
I2
tp68
a(S'p1_vo'
I5
tp69
a(S'w'
I726
tp70
a(S'w'
I2
tp71
a(S'p2_vo'
I5
tp72
a(S'w'
I3
tp73
a(S'w'
I2
tp74
a(S'p1_vo'
I6
tp75
a(S'w'
I726
tp76
a(S'w'
I2
tp77
a(S'p2_vo'
I6
tp78
a(S'w'
I4
tp79
a(S'w'
I2
tp80
a(S'p1_vo'
I7
tp81
a(S'w'
I726
tp82
a(S'w'
I6
tp83
a(S'w'
I2
tp84
a(S'p1_vo'
I8
tp85
a(S'w'
I726
tp86
a(S'w'
I2
tp87
a(S'p2_vo'
I7
tp88
a(S'w'
I4
tp89
a(S'w'
I2
tp90
a(S'p1_vo'
I9
tp91
a(S'w'
I726
tp92
a(S'w'
I6
tp93
a(S'w'
I728
tp94
a(S'w'
I5
tp95
a(S'w'
I2
tp96
a(S'p1_vo'
I10
tp97
a(S'w'
I726
tp98
a(S'w'
I6
tp99
a(S'w'
I728
tp100
a(S'w'
I6
tp101
a(S'w'
I728
tp102
a(S'w'
I6
tp103
a(S'w'
I728
tp104
a(S'w'
I6
tp105
a(S'w'
I728
tp106
a(S'w'
I5
tp107
a(S'w'
I728
tp108
a(S'w'
I6
tp109
a(S'w'
I729
tp110
a(S'p2_tl'
I251
tp111
a(S'w'
I5
tp112
a(S'w'
I728
tp113
a(S'w'
I6
tp114
a(S'w'
I729
tp115
a(S'w'
I2
tp116
a(S'p2_vo'
I6
tp117
a(S'w'
I4
tp118
a(S'p1_tl'
I254
tp119
a(S'w'
I728
tp120
a(S'w'
I2
tp121
a(S'p2_vo'
I5
tp122
a(S'w'
I4
tp123
a(S'w'
I726
tp124
a(S'p2_tl'
I253
tp125
a(S'w'
I4
tp126
a(S'p2_ll'
I0
tp127
a(S'p2_th'
I1
tp128
a(S'w'
I4
tp129
a(S'w'
I726
tp130
a(S'w'
I2
tp131
a(S'p2_vo'
I6
tp132
a(S'w'
I4
tp133
a(S'w'
I728
tp134
a(S'w'
I6
tp135
a(S'w'
I728
tp136
a(S'w'
I2
tp137
a(S'p2_vo'
I7
tp138
a(S'w'
I4
tp139
a(S'p1_tl'
I253
tp140
a(S'w'
I728
tp141
a(S'w'
I5
tp142
a(S'w'
I728
tp143
a(S'w'
I6
tp144
a(S'w'
I728
tp145
a(S'w'
I6
tp146
a(S'w'
I728
tp147
a(S'w'
I6
tp148
a(S'w'
I728
tp149
a(S'w'
I6
tp150
a(S'p1_tl'
I254
tp151
a(S'w'
I728
tp152
a(S'w'
I6
tp153
a(S'w'
I727
tp154
a(S'w'
I7
tp155
a(S'w'
I727
tp156
a(S'w'
I6
tp157
a(S'w'
I728
tp158
a(S'p2_tl'
I254
tp159
a(S'w'
I6
tp160
a(S'w'
I728
tp161
a(S'w'
I6
tp162
a(S'p1_tl'
I253
tp163
a(S'w'
I728
tp164
a(S'w'
I6
tp165
a(S'w'
I728
tp166
a(S'w'
I6
tp167
a(S'w'
I728
tp168
a(S'w'
I5
tp169
a(S'w'
I728
tp170
a(S'p2_tl'
I253
tp171
a(S'w'
I6
tp172
a(S'w'
I729
tp173
a(S'w'
I2
tp174
a(S'p2_vo'
I6
tp175
a(S'w'
I4
tp176
a(S'p1_tl'
I254
tp177
a(S'w'
I2
tp178
a(S'p1_vo'
I9
tp179
a(S'w'
I725
tp180
a(S'w'
I2
tp181
a(S'p2_vo'
I5
tp182
a(S'w'
I5
tp183
a(S'w'
I2
tp184
a(S'p1_vo'
I8
tp185
a(S'w'
I725
tp186
a(S'p2_tl'
I83
tp187
a(S'w'
I3
tp188
a(S'p2_ll'
I0
tp189
a(S'w'
I3
tp190
a(S'p1_tl'
I83
tp191
a(S'w'
I4
tp192
a(S'p1_ll'
I0
tp193
a(S'w'
I723
tp194
a(S'w'
I2
tp195
a(S'p2_vo'
I6
tp196
a(S'w'
I4
tp197
a(S'w'
I2
tp198
a(S'p1_vo'
I9
tp199
a(S'w'
I726
tp200
a(S'w'
I2
tp201
a(S'p2_vo'
I7
tp202
a(S'w'
I4
tp203
a(S'w'
I728
tp204
a(S'w'
I6
tp205
a(S'w'
I2
tp206
a(S'p1_vo'
I10
tp207
a(S'w'
I726
tp208
a(S'w'
I2
tp209
a(S'p2_vo'
I8
tp210
a(S'w'
I3
tp211
a(S'w'
I728
tp212
a(S'w'
I6
tp213
a(S'w'
I728
tp214
a(S'w'
I6
tp215
a(S'w'
I728
tp216
a(S'w'
I6
tp217
a(S'w'
I728
tp218
a(S'w'
I6
tp219
a(S'w'
I728
tp220
a(S'w'
I5
tp221
a(S'w'
I728
tp222
a(S'w'
I6
tp223
a(S'w'
I728
tp224
a(S'w'
I6
tp225
a(S'w'
I728
tp226
a(S'w'
I6
tp227
a(S'p1_tl'
I84
tp228
a(S'w'
I728
tp229
a(S'p2_tl'
I84
tp230
a(S'w'
I6
tp231
a(S'w'
I728
tp232
a(S'w'
I6
tp233
a(S'w'
I728
tp234
a(S'w'
I6
tp235
a(S'w'
I728
tp236
a(S'w'
I6
tp237
a(S'w'
I727
tp238
a(S'w'
I6
tp239
a(S'p1_tl'
I83
tp240
a(S'w'
I729
tp241
a(S'p2_tl'
I83
tp242
a(S'w'
I2
tp243
a(S'p2_vo'
I7
tp244
a(S'w'
I3
tp245
a(S'w'
I728
tp246
a(S'w'
I2
tp247
a(S'p2_vo'
I6
tp248
a(S'w'
I4
tp249
a(S'w'
I728
tp250
a(S'p2_tl'
I254
tp251
a(S'w'
I3
tp252
a(S'p2_ll'
I0
tp253
a(S'p2_th'
I0
tp254
a(S'w'
I3
tp255
a(S'w'
I727
tp256
a(S'w'
I2
tp257
a(S'p2_vo'
I7
tp258
a(S'w'
I4
tp259
a(S'w'
I728
tp260
a(S'w'
I6
tp261
a(S'p1_tl'
I84
tp262
a(S'w'
I728
tp263
a(S'w'
I2
tp264
a(S'p2_vo'
I8
tp265
a(S'w'
I4
tp266
a(S'w'
I728
tp267
a(S'w'
I6
tp268
a(S'w'
I728
tp269
a(S'w'
I6
tp270
a(S'w'
I727
tp271
a(S'w'
I6
tp272
a(S'w'
I728
tp273
a(S'w'
I6
tp274
a(S'p1_tl'
I83
tp275
a(S'w'
I728
tp276
a(S'w'
I6
tp277
a(S'w'
I728
tp278
a(S'w'
I6
tp279
a(S'w'
I727
tp280
a(S'w'
I6
tp281
a(S'w'
I728
tp282
a(S'w'
I6
tp283
a(S'w'
I728
tp284
a(S'p2_tl'
I255
tp285
a(S'w'
I6
tp286
a(S'p1_tl'
I84
tp287
a(S'w'
I728
tp288
a(S'w'
I6
tp289
a(S'w'
I728
tp290
a(S'w'
I6
tp291
a(S'w'
I728
tp292
a(S'w'
I6
tp293
a(S'w'
I728
tp294
a(S'w'
I6
tp295
a(S'w'
I727
tp296
a(S'p2_tl'
I254
tp297
a(S'w'
I6
tp298
a(S'p1_tl'
I83
tp299
a(S'w'
I728
tp300
a(S'w'
I6
tp301
a(S'w'
I2
tp302
a(S'p1_vo'
I9
tp303
a(S'w'
I726
tp304
a(S'w'
I6
tp305
a(S'w'
I2
tp306
a(S'p1_vo'
I8
tp307
a(S'w'
I726
tp308
a(S'w'
I5
tp309
a(S'p1_tl'
I125
tp310
a(S'w'
I4
tp311
a(S'p1_ll'
I0
tp312
a(S'w'
I724
tp313
a(S'w'
I6
tp314
a(S'w'
I2
tp315
a(S'p1_vo'
I9
tp316
a(S'w'
I726
tp317
a(S'p2_tl'
I255
tp318
a(S'w'
I6
tp319
a(S'w'
I2
tp320
a(S'p1_vo'
I10
tp321
a(S'w'
I726
tp322
a(S'w'
I6
tp323
a(S'w'
I728
tp324
a(S'w'
I6
tp325
a(S'w'
I2
tp326
a(S'p1_vo'
I11
tp327
a(S'w'
I726
tp328
a(S'w'
I6
tp329
a(S'w'
I728
tp330
a(S'w'
I5
tp331
a(S'w'
I728
tp332
a(S'p2_tl'
I254
tp333
a(S'w'
I6
tp334
a(S'w'
I728
tp335
a(S'w'
I6
tp336
a(S'w'
I728
tp337
a(S'w'
I6
tp338
a(S'w'
I728
tp339
a(S'w'
I5
tp340
a(S'w'
I728
tp341
a(S'w'
I6
tp342
a(S'w'
I728
tp343
a(S'p2_tl'
I255
tp344
a(S'w'
I6
tp345
a(S'w'
I728
tp346
a(S'w'
I6
tp347
a(S'p1_tl'
I126
tp348
a(S'w'
I728
tp349
a(S'w'
I6
tp350
a(S'w'
I728
tp351
a(S'w'
I6
tp352
a(S'w'
I728
tp353
a(S'w'
I6
tp354
a(S'w'
I727
tp355
a(S'p2_tl'
I254
tp356
a(S'w'
I6
tp357
a(S'w'
I728
tp358
a(S'w'
I6
tp359
a(S'p1_tl'
I125
tp360
a(S'w'
I2
tp361
a(S'p1_vo'
I10
tp362
a(S'w'
I726
tp363
a(S'w'
I6
tp364
a(S'w'
I2
tp365
a(S'p1_vo'
I9
tp366
a(S'w'
I726
tp367
a(S'w'
I5
tp368
a(S'p1_tl'
I83
tp369
a(S'w'
I4
tp370
a(S'p1_ll'
I0
tp371
a(S'w'
I724
tp372
a(S'w'
I6
tp373
a(S'w'
I2
tp374
a(S'p1_vo'
I10
tp375
a(S'w'
I726
tp376
a(S'p2_tl'
I255
tp377
a(S'w'
I6
tp378
a(S'w'
I728
tp379
a(S'w'
I6
tp380
a(S'w'
I2
tp381
a(S'p1_vo'
I11
tp382
a(S'w'
I726
tp383
a(S'w'
I6
tp384
a(S'w'
I728
tp385
a(S'w'
I6
tp386
a(S'w'
I728
tp387
a(S'w'
I5
tp388
a(S'w'
I728
tp389
a(S'p2_tl'
I254
tp390
a(S'w'
I6
tp391
a(S'w'
I728
tp392
a(S'w'
I6
tp393
a(S'w'
I728
tp394
a(S'w'
I6
tp395
a(S'w'
I728
tp396
a(S'w'
I5
tp397
a(S'w'
I728
tp398
a(S'w'
I6
tp399
a(S'w'
I728
tp400
a(S'p2_tl'
I255
tp401
a(S'w'
I7
tp402
a(S'p1_tl'
I84
tp403
a(S'w'
I727
tp404
a(S'w'
I6
tp405
a(S'w'
I728
tp406
a(S'w'
I6
tp407
a(S'w'
I728
tp408
a(S'w'
I6
tp409
a(S'w'
I728
tp410
a(S'w'
I6
tp411
a(S'w'
I727
tp412
a(S'p2_tl'
I254
tp413
a(S'w'
I6
tp414
a(S'p1_tl'
I83
tp415
a(S'w'
I728
tp416
a(S'w'
I6
tp417
a(S'w'
I3
tp418
a(S'p1_vo'
I10
tp419
a(S'w'
I725
tp420
a(S'w'
I6
tp421
a(S'w'
I2
tp422
a(S'p1_vo'
I9
tp423
a(S'w'
I726
tp424
a(S'w'
I5
tp425
a(S'p1_tl'
I64
tp426
a(S'w'
I4
tp427
a(S'p1_ll'
I0
tp428
a(S'w'
I724
tp429
a(S'w'
I6
tp430
a(S'w'
I2
tp431
a(S'p1_vo'
I10
tp432
a(S'w'
I727
tp433
a(S'p2_tl'
I255
tp434
a(S'w'
I5
tp435
a(S'w'
I728
tp436
a(S'w'
I6
tp437
a(S'w'
I2
tp438
a(S'p1_vo'
I11
tp439
a(S'w'
I726
tp440
a(S'w'
I6
tp441
a(S'w'
I728
tp442
a(S'w'
I6
tp443
a(S'w'
I728
tp444
a(S'w'
I6
tp445
a(S'w'
I727
tp446
a(S'p2_tl'
I254
tp447
a(S'w'
I6
tp448
a(S'w'
I728
tp449
a(S'w'
I6
tp450
a(S'w'
I728
tp451
a(S'w'
I6
tp452
a(S'w'
I728
tp453
a(S'w'
I5
tp454
a(S'w'
I728
tp455
a(S'w'
I6
tp456
a(S'w'
I729
tp457
a(S'p2_tl'
I255
tp458
a(S'w'
I6
tp459
a(S'p1_tl'
I65
tp460
a(S'w'
I727
tp461
a(S'w'
I6
tp462
a(S'w'
I728
tp463
a(S'w'
I6
tp464
a(S'w'
I728
tp465
a(S'w'
I6
tp466
a(S'w'
I728
tp467
a(S'w'
I6
tp468
a(S'w'
I727
tp469
a(S'p2_tl'
I254
tp470
a(S'w'
I6
tp471
a(S'p1_tl'
I64
tp472
a(S'w'
I729
tp473
a(S'w'
I2
tp474
a(S'p2_vo'
I7
tp475
a(S'w'
I4
tp476
a(S'w'
I2
tp477
a(S'p1_vo'
I10
tp478
a(S'w'
I726
tp479
a(S'w'
I2
tp480
a(S'p2_vo'
I6
tp481
a(S'w'
I4
tp482
a(S'w'
I2
tp483
a(S'p1_vo'
I9
tp484
a(S'w'
I725
tp485
a(S'p2_tl'
I253
tp486
a(S'w'
I3
tp487
a(S'p2_ll'
I0
tp488
a(S'p2_th'
I1
tp489
a(S'w'
I4
tp490
a(S'p1_tl'
I29
tp491
a(S'w'
I3
tp492
a(S'p1_ll'
I0
tp493
a(S'w'
I723
tp494
a(S'w'
I6
tp495
a(S'w'
I2
tp496
a(S'p1_vo'
I10
tp497
a(S'w'
I726
tp498
a(S'w'
I2
tp499
a(S'p2_vo'
I7
tp500
a(S'w'
I4
tp501
a(S'w'
I728
tp502
a(S'w'
I6
tp503
a(S'w'
I2
tp504
a(S'p1_vo'
I11
tp505
a(S'w'
I726
tp506
a(S'w'
I6
tp507
a(S'w'
I728
tp508
a(S'w'
I5
tp509
a(S'w'
I728
tp510
a(S'w'
I6
tp511
a(S'w'
I728
tp512
a(S'w'
I6
tp513
a(S'w'
I728
tp514
a(S'w'
I6
tp515
a(S'w'
I728
tp516
a(S'w'
I6
tp517
a(S'w'
I728
tp518
a(S'w'
I5
tp519
a(S'w'
I729
tp520
a(S'p2_tl'
I254
tp521
a(S'w'
I6
tp522
a(S'w'
I728
tp523
a(S'w'
I6
tp524
a(S'p1_tl'
I30
tp525
a(S'w'
I727
tp526
a(S'w'
I6
tp527
a(S'w'
I728
tp528
a(S'w'
I6
tp529
a(S'w'
I728
tp530
a(S'w'
I6
tp531
a(S'w'
I727
tp532
a(S'p2_tl'
I253
tp533
a(S'w'
I7
tp534
a(S'w'
I727
tp535
a(S'w'
I6
tp536
a(S'p1_tl'
I29
tp537
a(S'w'
I729
tp538
a(S'w'
I2
tp539
a(S'p2_vo'
I6
tp540
a(S'w'
I4
tp541
a(S'w'
I2
tp542
a(S'p1_vo'
I10
tp543
a(S'w'
I726
tp544
a(S'w'
I2
tp545
a(S'p2_vo'
I5
tp546
a(S'w'
I4
tp547
a(S'w'
I2
tp548
a(S'p1_vo'
I9
tp549
a(S'w'
I725
tp550
a(S'p2_tl'
I250
tp551
a(S'w'
I3
tp552
a(S'p2_ll'
I0
tp553
a(S'p2_th'
I2
tp554
a(S'w'
I4
tp555
a(S'p1_tl'
I239
tp556
a(S'w'
I3
tp557
a(S'p1_ll'
I0
tp558
a(S'p1_th'
I0
tp559
a(S'w'
I723
tp560
a(S'w'
I3
tp561
a(S'p2_vo'
I6
tp562
a(S'w'
I3
tp563
a(S'w'
I2
tp564
a(S'p1_vo'
I10
tp565
a(S'w'
I726
tp566
a(S'w'
I6
tp567
a(S'w'
I2
tp568
a(S'p1_vo'
I11
tp569
a(S'w'
I726
tp570
a(S'w'
I2
tp571
a(S'p2_vo'
I7
tp572
a(S'w'
I4
tp573
a(S'w'
I728
tp574
a(S'w'
I6
tp575
a(S'w'
I2
tp576
a(S'p1_vo'
I12
tp577
a(S'w'
I726
tp578
a(S'w'
I5
tp579
a(S'w'
I728
tp580
a(S'w'
I6
tp581
a(S'w'
I728
tp582
a(S'w'
I6
tp583
a(S'w'
I728
tp584
a(S'w'
I6
tp585
a(S'w'
I728
tp586
a(S'w'
I6
tp587
a(S'w'
I728
tp588
a(S'w'
I5
tp589
a(S'w'
I728
tp590
a(S'w'
I6
tp591
a(S'w'
I729
tp592
a(S'p2_tl'
I251
tp593
a(S'w'
I5
tp594
a(S'w'
I728
tp595
a(S'w'
I6
tp596
a(S'p1_tl'
I240
tp597
a(S'w'
I728
tp598
a(S'w'
I6
tp599
a(S'w'
I728
tp600
a(S'w'
I6
tp601
a(S'w'
I728
tp602
a(S'w'
I6
tp603
a(S'w'
I727
tp604
a(S'p2_tl'
I250
tp605
a(S'w'
I6
tp606
a(S'w'
I729
tp607
a(S'w'
I2
tp608
a(S'p2_vo'
I6
tp609
a(S'w'
I4
tp610
a(S'p1_tl'
I239
tp611
a(S'w'
I2
tp612
a(S'p1_vo'
I11
tp613
a(S'w'
I726
tp614
a(S'w'
I2
tp615
a(S'p2_vo'
I5
tp616
a(S'w'
I4
tp617
a(S'w'
I2
tp618
a(S'p1_vo'
I10
tp619
a(S'w'
I725
tp620
a(S'p2_tl'
I253
tp621
a(S'w'
I3
tp622
a(S'p2_ll'
I0
tp623
a(S'p2_th'
I1
tp624
a(S'w'
I4
tp625
a(S'p1_tl'
I254
tp626
a(S'w'
I3
tp627
a(S'p1_ll'
I0
tp628
a(S'w'
I724
tp629
a(S'w'
I2
tp630
a(S'p2_vo'
I6
tp631
a(S'w'
I3
tp632
a(S'w'
I2
tp633
a(S'p1_vo'
I11
tp634
a(S'w'
I726
tp635
a(S'w'
I6
tp636
a(S'w'
I728
tp637
a(S'w'
I2
tp638
a(S'p2_vo'
I7
tp639
a(S'w'
I4
tp640
a(S'w'
I2
tp641
a(S'p1_vo'
I12
tp642
a(S'w'
I726
tp643
a(S'w'
I6
tp644
a(S'w'
I728
tp645
a(S'w'
I6
tp646
a(S'w'
I728
tp647
a(S'w'
I5
tp648
a(S'w'
I728
tp649
a(S'w'
I6
tp650
a(S'w'
I728
tp651
a(S'w'
I6
tp652
a(S'w'
I728
tp653
a(S'w'
I6
tp654
a(S'w'
I728
tp655
a(S'w'
I5
tp656
a(S'w'
I728
tp657
a(S'w'
I6
tp658
a(S'w'
I729
tp659
a(S'p2_tl'
I254
tp660
a(S'w'
I6
tp661
a(S'p1_tl'
I255
tp662
a(S'w'
I727
tp663
a(S'w'
I6
tp664
a(S'w'
I728
tp665
a(S'w'
I6
tp666
a(S'w'
I728
tp667
a(S'w'
I6
tp668
a(S'w'
I728
tp669
a(S'w'
I6
tp670
a(S'w'
I727
tp671
a(S'p2_tl'
I253
tp672
a(S'w'
I6
tp673
a(S'p1_tl'
I254
tp674
a(S'w'
I729
tp675
a(S'w'
I2
tp676
a(S'p2_vo'
I6
tp677
a(S'w'
I4
tp678
a(S'w'
I2
tp679
a(S'p1_vo'
I11
tp680
a(S'w'
I726
tp681
a(S'w'
I2
tp682
a(S'p2_vo'
I5
tp683
a(S'w'
I4
tp684
a(S'w'
I2
tp685
a(S'p1_vo'
I10
tp686
a(S'w'
I725
tp687
a(S'p2_tl'
I83
tp688
a(S'w'
I3
tp689
a(S'p2_ll'
I0
tp690
a(S'w'
I4
tp691
a(S'p1_tl'
I29
tp692
a(S'w'
I3
tp693
a(S'p1_ll'
I0
tp694
a(S'p1_th'
I1
tp695
a(S'w'
I723
tp696
a(S'w'
I3
tp697
a(S'p2_vo'
I6
tp698
a(S'w'
I3
tp699
a(S'w'
I2
tp700
a(S'p1_vo'
I11
tp701
a(S'w'
I726
tp702
a(S'w'
I2
tp703
a(S'p2_vo'
I7
tp704
a(S'w'
I4
tp705
a(S'w'
I728
tp706
a(S'w'
I6
tp707
a(S'w'
I2
tp708
a(S'p1_vo'
I12
tp709
a(S'w'
I726
tp710
a(S'w'
I2
tp711
a(S'p2_vo'
I8
tp712
a(S'w'
I4
tp713
a(S'w'
I728
tp714
a(S'w'
I5
tp715
a(S'w'
I729
tp716
a(S'w'
I5
tp717
a(S'w'
I728
tp718
a(S'w'
I6
tp719
a(S'w'
I728
tp720
a(S'w'
I6
tp721
a(S'w'
I728
tp722
a(S'w'
I6
tp723
a(S'w'
I728
tp724
a(S'w'
I6
tp725
a(S'w'
I728
tp726
a(S'w'
I5
tp727
a(S'w'
I728
tp728
a(S'w'
I6
tp729
a(S'p1_tl'
I30
tp730
a(S'w'
I728
tp731
a(S'p2_tl'
I84
tp732
a(S'w'
I7
tp733
a(S'w'
I727
tp734
a(S'w'
I6
tp735
a(S'w'
I728
tp736
a(S'w'
I6
tp737
a(S'w'
I728
tp738
a(S'w'
I6
tp739
a(S'w'
I728
tp740
a(S'w'
I5
tp741
a(S'p1_tl'
I29
tp742
a(S'w'
I729
tp743
a(S'p2_tl'
I83
tp744
a(S'w'
I2
tp745
a(S'p2_vo'
I7
tp746
a(S'w'
I4
tp747
a(S'w'
I2
tp748
a(S'p1_vo'
I11
tp749
a(S'w'
I726
tp750
a(S'w'
I2
tp751
a(S'p2_vo'
I6
tp752
a(S'w'
I4
tp753
a(S'w'
I2
tp754
a(S'p1_vo'
I10
tp755
a(S'w'
I725
tp756
a(S'p2_tl'
I254
tp757
a(S'w'
I3
tp758
a(S'p2_ll'
I0
tp759
a(S'p2_th'
I0
tp760
a(S'w'
I4
tp761
a(S'p1_tl'
I64
tp762
a(S'w'
I3
tp763
a(S'p1_ll'
I0
tp764
a(S'w'
I724
tp765
a(S'w'
I2
tp766
a(S'p2_vo'
I7
tp767
a(S'w'
I3
tp768
a(S'w'
I2
tp769
a(S'p1_vo'
I11
tp770
a(S'w'
I726
tp771
a(S'w'
I6
tp772
a(S'w'
I2
tp773
a(S'p1_vo'
I12
tp774
a(S'w'
I726
tp775
a(S'w'
I2
tp776
a(S'p2_vo'
I8
tp777
a(S'w'
I4
tp778
a(S'w'
I728
tp779
a(S'w'
I6
tp780
a(S'w'
I2
tp781
a(S'p1_vo'
I13
tp782
a(S'w'
I726
tp783
a(S'w'
I6
tp784
a(S'w'
I728
tp785
a(S'w'
I5
tp786
a(S'w'
I728
tp787
a(S'w'
I6
tp788
a(S'w'
I728
tp789
a(S'w'
I6
tp790
a(S'w'
I728
tp791
a(S'w'
I6
tp792
a(S'w'
I728
tp793
a(S'w'
I6
tp794
a(S'w'
I728
tp795
a(S'w'
I5
tp796
a(S'w'
I729
tp797
a(S'p2_tl'
I255
tp798
a(S'w'
I5
tp799
a(S'w'
I728
tp800
a(S'w'
I7
tp801
a(S'p1_tl'
I65
tp802
a(S'w'
I727
tp803
a(S'w'
I6
tp804
a(S'w'
I728
tp805
a(S'w'
I6
tp806
a(S'w'
I728
tp807
a(S'w'
I6
tp808
a(S'w'
I727
tp809
a(S'p2_tl'
I254
tp810
a(S'w'
I6
tp811
a(S'w'
I728
tp812
a(S'w'
I7
tp813
a(S'p1_tl'
I64
tp814
a(S'w'
I2
tp815
a(S'p1_vo'
I12
tp816
a(S'w'
I725
tp817
a(S'w'
I6
tp818
a(S'w'
I2
tp819
a(S'p1_vo'
I11
tp820
a(S'w'
I724
tp821
a(S'tr_tl'
I59
tp822
a(S'w'
I3
tp823
a(S'tr_lh'
I1
tp824
a(S'tr_lr'
I127
tp825
a(S'w'
I1
tp826
a(S'tr_ll'
I0
tp827
a(S'w'
I3
tp828
a(S'w'
I6
tp829
a(S'p1_tl'
I83
tp830
a(S'w'
I3
tp831
a(S'p1_ll'
I0
tp832
a(S'w'
I724
tp833
a(S'w'
I6
tp834
a(S'w'
I2
tp835
a(S'p1_vo'
I12
tp836
a(S'w'
I726
tp837
a(S'p2_tl'
I255
tp838
a(S'w'
I6
tp839
a(S'w'
I728
tp840
a(S'w'
I6
tp841
a(S'w'
I2
tp842
a(S'p1_vo'
I13
tp843
a(S'w'
I726
tp844
a(S'w'
I6
tp845
a(S'w'
I728
tp846
a(S'w'
I5
tp847
a(S'w'
I728
tp848
a(S'w'
I6
tp849
a(S'w'
I728
tp850
a(S'p2_tl'
I254
tp851
a(S'w'
I6
tp852
a(S'w'
I728
tp853
a(S'w'
I5
tp854
a(S'w'
I729
tp855
a(S'w'
I5
tp856
a(S'w'
I728
tp857
a(S'w'
I6
tp858
a(S'w'
I728
tp859
a(S'w'
I6
tp860
a(S'w'
I728
tp861
a(S'p2_tl'
I255
tp862
a(S'w'
I6
tp863
a(S'p1_tl'
I84
tp864
a(S'w'
I728
tp865
a(S'w'
I6
tp866
a(S'w'
I728
tp867
a(S'w'
I6
tp868
a(S'w'
I728
tp869
a(S'w'
I6
tp870
a(S'w'
I727
tp871
a(S'w'
I6
tp872
a(S'w'
I728
tp873
a(S'p2_tl'
I254
tp874
a(S'w'
I6
tp875
a(S'p1_tl'
I83
tp876
a(S'w'
I724
tp877
a(S'tr_lh'
I0
tp878
a(S'tr_lr'
I0
tp879
a(S'w'
I4
tp880
a(S'w'
I6
tp881
a(S'w'
I2
tp882
a(S'p1_vo'
I12
tp883
a(S'w'
I721
tp884
a(S'w'
I6
tp885
a(S'w'
I3
tp886
a(S'p1_vo'
I11
tp887
a(S'w'
I724
tp888
a(S'tr_tl'
I63
tp889
a(S'w'
I2
tp890
a(S'tr_lh'
I1
tp891
a(S'tr_lr'
I127
tp892
a(S'w'
I1
tp893
a(S'tr_ll'
I0
tp894
a(S'w'
I4
tp895
a(S'w'
I6
tp896
a(S'w'
I2
tp897
a(S'p1_vo'
I10
tp898
a(S'w'
I724
tp899
a(S'w'
I7
tp900
a(S'w'
I2
tp901
a(S'p1_vo'
I9
tp902
a(S'w'
I725
tp903
a(S'p2_tl'
I255
tp904
a(S'w'
I7
tp905
a(S'p1_tl'
I84
tp906
a(S'w'
I2
tp907
a(S'p1_vo'
I8
tp908
a(S'w'
I725
tp909
a(S'w'
I7
tp910
a(S'w'
I2
tp911
a(S'p1_vo'
I7
tp912
a(S'w'
I725
tp913
a(S'w'
I7
tp914
a(S'w'
I2
tp915
a(S'p1_vo'
I6
tp916
a(S'w'
I725
tp917
a(S'w'
I6
tp918
a(S'w'
I2
tp919
a(S'p1_vo'
I5
tp920
a(S'w'
I725
tp921
a(S'w'
I7
tp922
a(S'w'
I2
tp923
a(S'p1_vo'
I4
tp924
a(S'w'
I725
tp925
a(S'p2_tl'
I254
tp926
a(S'w'
I6
tp927
a(S'p1_tl'
I83
tp928
a(S'w'
I2
tp929
a(S'p1_vo'
I3
tp930
a(S'w'
I726
tp931
a(S'w'
I6
tp932
a(S'w'
I2
tp933
a(S'p1_vo'
I2
tp934
a(S'w'
I726
tp935
a(S'w'
I6
tp936
a(S'w'
I2
tp937
a(S'p1_vo'
I1
tp938
a(S'w'
I725
tp939
a(S'w'
I7
tp940
a(S'w'
I727
tp941
a(S'w'
I6
tp942
a(S'w'
I728
tp943
a(S'p2_tl'
I255
tp944
a(S'w'
I6
tp945
a(S'p1_tl'
I84
tp946
a(S'w'
I728
tp947
a(S'w'
I6
tp948
a(S'w'
I728
tp949
a(S'w'
I6
tp950
a(S'w'
I728
tp951
a(S'w'
I6
tp952
a(S'w'
I727
tp953
a(S'w'
I7
tp954
a(S'w'
I2
tp955
a(S'p1_vo'
I0
tp956
a(S'w'
I725
tp957
a(S'p2_tl'
I254
tp958
a(S'w'
I730
tp959
a(S'tr_lh'
I0
tp960
a(S'tr_lr'
I0
tp961
a(S'w'
I5
tp962
a(S'w'
I2
tp963
a(S'p2_vo'
I7
tp964
a(S'w'
I727
tp965
a(S'w'
I2
tp966
a(S'p2_vo'
I6
tp967
a(S'w'
I730
tp968
a(S'tr_tl'
I70
tp969
a(S'w'
I2
tp970
a(S'tr_lh'
I1
tp971
a(S'tr_lr'
I127
tp972
a(S'w'
I1
tp973
a(S'tr_ll'
I0
tp974
a(S'w'
I4
tp975
a(S'w'
I2
tp976
a(S'p2_vo'
I5
tp977
a(S'w'
I4
tp978
a(S'p1_tl'
I146
tp979
a(S'w'
I2
tp980
a(S'p1_vo'
I2
tp981
a(S'w'
I2
tp982
a(S'p1_ll'
I0
tp983
a(S'w'
I723
tp984
a(S'w'
I2
tp985
a(S'p2_vo'
I4
tp986
a(S'w'
I4
tp987
a(S'p1_tl'
I147
tp988
a(S'w'
I2
tp989
a(S'p1_vo'
I4
tp990
a(S'w'
I726
tp991
a(S'p2_tl'
I255
tp992
a(S'w'
I2
tp993
a(S'p2_vo'
I3
tp994
a(S'w'
I4
tp995
a(S'w'
I2
tp996
a(S'p1_vo'
I5
tp997
a(S'w'
I726
tp998
a(S'w'
I2
tp999
a(S'p2_vo'
I2
tp1000
a(S'w'
I4
tp1001
a(S'w'
I2
tp1002
a(S'p1_vo'
I6
tp1003
a(S'w'
I726
tp1004
a(S'w'
I2
tp1005
a(S'p2_vo'
I1
tp1006
a(S'w'
I3
tp1007
a(S'w'
I2
tp1008
a(S'p1_vo'
I7
tp1009
a(S'w'
I727
tp1010
a(S'w'
I5
tp1011
a(S'w'
I3
tp1012
a(S'p1_vo'
I8
tp1013
a(S'w'
I724
tp1014
a(S'w'
I6
tp1015
a(S'w'
I2
tp1016
a(S'p1_vo'
I9
tp1017
a(S'w'
I726
tp1018
a(S'p2_tl'
I254
tp1019
a(S'w'
I6
tp1020
a(S'w'
I2
tp1021
a(S'p1_vo'
I10
tp1022
a(S'w'
I726
tp1023
a(S'w'
I5
tp1024
a(S'w'
I729
tp1025
a(S'w'
I5
tp1026
a(S'w'
I2
tp1027
a(S'p1_vo'
I11
tp1028
a(S'w'
I726
tp1029
a(S'w'
I6
tp1030
a(S'w'
I728
tp1031
a(S'w'
I2
tp1032
a(S'p2_vo'
I0
tp1033
a(S'w'
I4
tp1034
a(S'w'
I729
tp1035
a(S'w'
I734
tp1036
a(S'w'
I734
tp1037
a(S'w'
I734
tp1038
a(S'w'
I733
tp1039
a(S'w'
I734
tp1040
a(S'w'
I729
tp1041
a(S'tr_lh'
I0
tp1042
a(S'tr_lr'
I0
tp1043
a(S'w'
I6
tp1044
a(S'p1_tl'
I148
tp1045
a(S'w'
I2
tp1046
a(S'p1_vo'
I10
tp1047
a(S'w'
I727
tp1048
a(S'w'
I2
tp1049
a(S'p1_vo'
I9
tp1050
a(S'w'
I729
tp1051
a(S'tr_tl'
I79
tp1052
a(S'w'
I2
tp1053
a(S'tr_lh'
I1
tp1054
a(S'tr_lr'
I127
tp1055
a(S'w'
I1
tp1056
a(S'tr_ll'
I0
tp1057
a(S'w'
I4
tp1058
a(S'p2_tl'
I252
tp1059
a(S'w'
I3
tp1060
a(S'p2_ll'
I0
tp1061
a(S'p2_th'
I1
tp1062
a(S'w'
I5
tp1063
a(S'w'
I2
tp1064
a(S'p1_vo'
I8
tp1065
a(S'w'
I722
tp1066
a(S'p2_tl'
I253
tp1067
a(S'w'
I7
tp1068
a(S'w'
I2
tp1069
a(S'p1_vo'
I7
tp1070
a(S'w'
I725
tp1071
a(S'w'
I2
tp1072
a(S'p2_vo'
I1
tp1073
a(S'w'
I5
tp1074
a(S'w'
I2
tp1075
a(S'p1_vo'
I6
tp1076
a(S'w'
I725
tp1077
a(S'w'
I2
tp1078
a(S'p2_vo'
I2
tp1079
a(S'w'
I4
tp1080
a(S'p1_tl'
I147
tp1081
a(S'w'
I2
tp1082
a(S'p1_vo'
I5
tp1083
a(S'w'
I726
tp1084
a(S'w'
I2
tp1085
a(S'p2_vo'
I3
tp1086
a(S'w'
I4
tp1087
a(S'w'
I2
tp1088
a(S'p1_vo'
I4
tp1089
a(S'w'
I725
tp1090
a(S'w'
I2
tp1091
a(S'p2_vo'
I4
tp1092
a(S'w'
I5
tp1093
a(S'w'
I2
tp1094
a(S'p1_vo'
I3
tp1095
a(S'w'
I725
tp1096
a(S'w'
I2
tp1097
a(S'p2_vo'
I5
tp1098
a(S'w'
I5
tp1099
a(S'w'
I2
tp1100
a(S'p1_vo'
I2
tp1101
a(S'w'
I725
tp1102
a(S'w'
I2
tp1103
a(S'p2_vo'
I6
tp1104
a(S'w'
I4
tp1105
a(S'w'
I3
tp1106
a(S'p1_vo'
I1
tp1107
a(S'w'
I725
tp1108
a(S'w'
I7
tp1109
a(S'p1_tl'
I148
tp1110
a(S'w'
I727
tp1111
a(S'w'
I2
tp1112
a(S'p2_vo'
I7
tp1113
a(S'w'
I4
tp1114
a(S'w'
I727
tp1115
a(S'w'
I6
tp1116
a(S'w'
I728
tp1117
a(S'w'
I6
tp1118
a(S'w'
I728
tp1119
a(S'w'
I6
tp1120
a(S'w'
I728
tp1121
a(S'w'
I6
tp1122
a(S'p1_tl'
I147
tp1123
a(S'w'
I728
tp1124
a(S'w'
I6
tp1125
a(S'w'
I2
tp1126
a(S'p1_vo'
I0
tp1127
a(S'w'
I725
tp1128
a(S'w'
I734
tp1129
a(S'w'
I734
tp1130
a(S'w'
I730
tp1131
a(S'tr_lh'
I0
tp1132
a(S'tr_lr'
I0
tp1133
a(S'w'
I5
tp1134
a(S'p2_tl'
I254
tp1135
a(S'w'
I2
tp1136
a(S'p2_vo'
I6
tp1137
a(S'w'
I727
tp1138
a(S'w'
I2
tp1139
a(S'p2_vo'
I5
tp1140
a(S'w'
I730
tp1141
a(S'tr_tl'
I126
tp1142
a(S'w'
I2
tp1143
a(S'tr_lh'
I1
tp1144
a(S'tr_lr'
I127
tp1145
a(S'w'
I1
tp1146
a(S'tr_ll'
I0
tp1147
a(S'w'
I4
tp1148
a(S'p2_tl'
I125
tp1149
a(S'w'
I3
tp1150
a(S'p2_ll'
I0
tp1151
a(S'w'
I4
tp1152
a(S'p1_tl'
I124
tp1153
a(S'w'
I2
tp1154
a(S'p1_vo'
I2
tp1155
a(S'w'
I1
tp1156
a(S'p1_ll'
I0
tp1157
a(S'w'
I722
tp1158
a(S'w'
I2
tp1159
a(S'p2_vo'
I6
tp1160
a(S'w'
I4
tp1161
a(S'p1_tl'
I125
tp1162
a(S'w'
I2
tp1163
a(S'p1_vo'
I4
tp1164
a(S'w'
I726
tp1165
a(S'w'
I6
tp1166
a(S'w'
I2
tp1167
a(S'p1_vo'
I5
tp1168
a(S'w'
I726
tp1169
a(S'w'
I2
tp1170
a(S'p2_vo'
I7
tp1171
a(S'w'
I4
tp1172
a(S'w'
I2
tp1173
a(S'p1_vo'
I6
tp1174
a(S'w'
I726
tp1175
a(S'w'
I5
tp1176
a(S'w'
I2
tp1177
a(S'p1_vo'
I7
tp1178
a(S'w'
I726
tp1179
a(S'w'
I6
tp1180
a(S'w'
I2
tp1181
a(S'p1_vo'
I8
tp1182
a(S'w'
I726
tp1183
a(S'w'
I6
tp1184
a(S'w'
I2
tp1185
a(S'p1_vo'
I9
tp1186
a(S'w'
I726
tp1187
a(S'w'
I6
tp1188
a(S'w'
I2
tp1189
a(S'p1_vo'
I10
tp1190
a(S'w'
I726
tp1191
a(S'w'
I6
tp1192
a(S'w'
I728
tp1193
a(S'w'
I5
tp1194
a(S'w'
I2
tp1195
a(S'p1_vo'
I11
tp1196
a(S'w'
I726
tp1197
a(S'w'
I6
tp1198
a(S'w'
I728
tp1199
a(S'w'
I6
tp1200
a(S'w'
I728
tp1201
a(S'p2_tl'
I126
tp1202
a(S'w'
I6
tp1203
a(S'w'
I728
tp1204
a(S'w'
I6
tp1205
a(S'w'
I728
tp1206
a(S'w'
I6
tp1207
a(S'w'
I728
tp1208
a(S'w'
I6
tp1209
a(S'w'
I728
tp1210
a(S'w'
I5
tp1211
a(S'w'
I728
tp1212
a(S'p2_tl'
I125
tp1213
a(S'w'
I6
tp1214
a(S'w'
I729
tp1215
a(S'w'
I2
tp1216
a(S'p2_vo'
I6
tp1217
a(S'w'
I4
tp1218
a(S'p1_tl'
I126
tp1219
a(S'w'
I727
tp1220
a(S'w'
I2
tp1221
a(S'p2_vo'
I5
tp1222
a(S'w'
I4
tp1223
a(S'w'
I727
tp1224
a(S'p2_tl'
I64
tp1225
a(S'w'
I4
tp1226
a(S'p2_ll'
I0
tp1227
a(S'w'
I4
tp1228
a(S'w'
I726
tp1229
a(S'w'
I2
tp1230
a(S'p2_vo'
I6
tp1231
a(S'w'
I4
tp1232
a(S'w'
I728
tp1233
a(S'w'
I6
tp1234
a(S'w'
I728
tp1235
a(S'w'
I2
tp1236
a(S'p2_vo'
I7
tp1237
a(S'w'
I4
tp1238
a(S'p1_tl'
I125
tp1239
a(S'w'
I728
tp1240
a(S'w'
I5
tp1241
a(S'w'
I728
tp1242
a(S'w'
I6
tp1243
a(S'w'
I728
tp1244
a(S'w'
I6
tp1245
a(S'w'
I728
tp1246
a(S'w'
I6
tp1247
a(S'w'
I728
tp1248
a(S'w'
I6
tp1249
a(S'p1_tl'
I126
tp1250
a(S'w'
I728
tp1251
a(S'w'
I6
tp1252
a(S'w'
I727
tp1253
a(S'w'
I7
tp1254
a(S'w'
I727
tp1255
a(S'w'
I6
tp1256
a(S'w'
I728
tp1257
a(S'p2_tl'
I65
tp1258
a(S'w'
I6
tp1259
a(S'w'
I728
tp1260
a(S'w'
I6
tp1261
a(S'p1_tl'
I125
tp1262
a(S'w'
I728
tp1263
a(S'w'
I6
tp1264
a(S'w'
I728
tp1265
a(S'w'
I6
tp1266
a(S'w'
I728
tp1267
a(S'w'
I5
tp1268
a(S'w'
I728
tp1269
a(S'p2_tl'
I64
tp1270
a(S'w'
I6
tp1271
a(S'w'
I729
tp1272
a(S'w'
I2
tp1273
a(S'p2_vo'
I6
tp1274
a(S'w'
I4
tp1275
a(S'p1_tl'
I126
tp1276
a(S'w'
I727
tp1277
a(S'w'
I2
tp1278
a(S'p2_vo'
I5
tp1279
a(S'w'
I4
tp1280
a(S'w'
I727
tp1281
a(S'p2_tl'
I254
tp1282
a(S'w'
I4
tp1283
a(S'p2_ll'
I0
tp1284
a(S'p2_th'
I0
tp1285
a(S'w'
I4
tp1286
a(S'w'
I726
tp1287
a(S'w'
I2
tp1288
a(S'p2_vo'
I6
tp1289
a(S'w'
I4
tp1290
a(S'w'
I728
tp1291
a(S'w'
I6
tp1292
a(S'w'
I728
tp1293
a(S'w'
I2
tp1294
a(S'p2_vo'
I7
tp1295
a(S'w'
I4
tp1296
a(S'p1_tl'
I125
tp1297
a(S'w'
I728
tp1298
a(S'w'
I5
tp1299
a(S'w'
I728
tp1300
a(S'w'
I6
tp1301
a(S'w'
I728
tp1302
a(S'w'
I6
tp1303
a(S'w'
I728
tp1304
a(S'w'
I6
tp1305
a(S'w'
I728
tp1306
a(S'w'
I6
tp1307
a(S'p1_tl'
I126
tp1308
a(S'w'
I728
tp1309
a(S'w'
I6
tp1310
a(S'w'
I727
tp1311
a(S'w'
I7
tp1312
a(S'w'
I727
tp1313
a(S'w'
I7
tp1314
a(S'w'
I727
tp1315
a(S'p2_tl'
I255
tp1316
a(S'w'
I7
tp1317
a(S'w'
I727
tp1318
a(S'w'
I6
tp1319
a(S'p1_tl'
I125
tp1320
a(S'w'
I728
tp1321
a(S'w'
I6
tp1322
a(S'w'
I728
tp1323
a(S'w'
I6
tp1324
a(S'w'
I728
tp1325
a(S'w'
I5
tp1326
a(S'w'
I728
tp1327
a(S'p2_tl'
I254
tp1328
a(S'w'
I6
tp1329
a(S'w'
I729
tp1330
a(S'w'
I2
tp1331
a(S'p2_vo'
I6
tp1332
a(S'w'
I4
tp1333
a(S'p1_tl'
I126
tp1334
a(S'w'
I728
tp1335
a(S'w'
I2
tp1336
a(S'p2_vo'
I5
tp1337
a(S'w'
I4
tp1338
a(S'w'
I726
tp1339
a(S'p2_tl'
I190
tp1340
a(S'w'
I4
tp1341
a(S'p2_ll'
I0
tp1342
a(S'w'
I4
tp1343
a(S'w'
I726
tp1344
a(S'w'
I2
tp1345
a(S'p2_vo'
I6
tp1346
a(S'w'
I4
tp1347
a(S'w'
I728
tp1348
a(S'w'
I6
tp1349
a(S'w'
I728
tp1350
a(S'w'
I2
tp1351
a(S'p2_vo'
I7
tp1352
a(S'w'
I4
tp1353
a(S'p1_tl'
I125
tp1354
a(S'w'
I728
tp1355
a(S'w'
I6
tp1356
a(S'w'
I727
tp1357
a(S'w'
I6
tp1358
a(S'w'
I728
tp1359
a(S'w'
I6
tp1360
a(S'w'
I728
tp1361
a(S'w'
I6
tp1362
a(S'w'
I728
tp1363
a(S'w'
I6
tp1364
a(S'p1_tl'
I126
tp1365
a(S'w'
I728
tp1366
a(S'w'
I6
tp1367
a(S'w'
I728
tp1368
a(S'w'
I6
tp1369
a(S'w'
I727
tp1370
a(S'w'
I6
tp1371
a(S'w'
I728
tp1372
a(S'p2_tl'
I191
tp1373
a(S'w'
I7
tp1374
a(S'w'
I727
tp1375
a(S'w'
I6
tp1376
a(S'p1_tl'
I125
tp1377
a(S'w'
I728
tp1378
a(S'w'
I6
tp1379
a(S'w'
I728
tp1380
a(S'w'
I6
tp1381
a(S'w'
I728
tp1382
a(S'w'
I5
tp1383
a(S'w'
I728
tp1384
a(S'p2_tl'
I190
tp1385
a(S'w'
I6
tp1386
a(S'w'
I728
tp1387
a(S'w'
I6
tp1388
a(S'p1_tl'
I126
tp1389
a(S'w'
I728
tp1390
a(S'w'
I6
tp1391
a(S'w'
I728
tp1392
a(S'w'
I6
tp1393
a(S'w'
I727
tp1394
a(S'w'
I7
tp1395
a(S'w'
I727
tp1396
a(S'p2_tl'
I191
tp1397
a(S'w'
I7
tp1398
a(S'w'
I727
tp1399
a(S'w'
I6
tp1400
a(S'p1_tl'
I125
tp1401
a(S'w'
I728
tp1402
a(S'w'
I6
tp1403
a(S'w'
I728
tp1404
a(S'w'
I6
tp1405
a(S'w'
I728
tp1406
a(S'w'
I5
tp1407
a(S'w'
I728
tp1408
a(S'p2_tl'
I190
tp1409
a(S'w'
I6
tp1410
a(S'w'
I728
tp1411
a(S'w'
I6
tp1412
a(S'p1_tl'
I126
tp1413
a(S'w'
I728
tp1414
a(S'w'
I6
tp1415
a(S'w'
I728
tp1416
a(S'w'
I6
tp1417
a(S'w'
I728
tp1418
a(S'w'
I6
tp1419
a(S'w'
I727
tp1420
a(S'p2_tl'
I191
tp1421
a(S'w'
I7
tp1422
a(S'w'
I727
tp1423
a(S'w'
I6
tp1424
a(S'p1_tl'
I125
tp1425
a(S'w'
I728
tp1426
a(S'w'
I6
tp1427
a(S'w'
I728
tp1428
a(S'w'
I6
tp1429
a(S'w'
I728
tp1430
a(S'w'
I5
tp1431
a(S'w'
I728
tp1432
a(S'p2_tl'
I190
tp1433
a(S'w'
I6
tp1434
a(S'w'
I728
tp1435
a(S'w'
I6
tp1436
a(S'p1_tl'
I126
tp1437
a(S'w'
I728
tp1438
a(S'w'
I6
tp1439
a(S'w'
I728
tp1440
a(S'w'
I6
tp1441
a(S'w'
I727
tp1442
a(S'w'
I7
tp1443
a(S'w'
I727
tp1444
a(S'p2_tl'
I191
tp1445
a(S'w'
I7
tp1446
a(S'w'
I727
tp1447
a(S'w'
I6
tp1448
a(S'p1_tl'
I125
tp1449
a(S'w'
I728
tp1450
a(S'w'
I6
tp1451
a(S'w'
I728
tp1452
a(S'w'
I6
tp1453
a(S'w'
I728
tp1454
a(S'w'
I5
tp1455
a(S'w'
I728
tp1456
a(S'p2_tl'
I190
tp1457
a(S'w'
I6
tp1458
a(S'w'
I728
tp1459
a(S'w'
I6
tp1460
a(S'p1_tl'
I126
tp1461
a(S'w'
I728
tp1462
a(S'w'
I6
tp1463
a(S'w'
I728
tp1464
a(S'w'
I6
tp1465
a(S'w'
I727
tp1466
a(S'w'
I7
tp1467
a(S'w'
I727
tp1468
a(S'p2_tl'
I191
tp1469
a(S'w'
I7
tp1470
a(S'w'
I727
tp1471
a(S'w'
I6
tp1472
a(S'p1_tl'
I125
tp1473
a(S'w'
I728
tp1474
a(S'w'
I6
tp1475
a(S'w'
I728
tp1476
a(S'w'
I6
tp1477
a(S'w'
I728
tp1478
a(S'w'
I6
tp1479
a(S'w'
I727
tp1480
a(S'p2_tl'
I190
tp1481
a(S'w'
I6
tp1482
a(S'w'
I729
tp1483
a(S'w'
I2
tp1484
a(S'p2_vo'
I6
tp1485
a(S'w'
I4
tp1486
a(S'p1_tl'
I126
tp1487
a(S'w'
I727
tp1488
a(S'w'
I3
tp1489
a(S'p2_vo'
I5
tp1490
a(S'w'
I4
tp1491
a(S'w'
I727
tp1492
a(S'p2_tl'
I160
tp1493
a(S'w'
I3
tp1494
a(S'p2_ll'
I0
tp1495
a(S'w'
I4
tp1496
a(S'w'
I726
tp1497
a(S'w'
I2
tp1498
a(S'p2_vo'
I6
tp1499
a(S'w'
I4
tp1500
a(S'w'
I728
tp1501
a(S'w'
I6
tp1502
a(S'w'
I728
tp1503
a(S'w'
I2
tp1504
a(S'p2_vo'
I7
tp1505
a(S'w'
I4
tp1506
a(S'p1_tl'
I125
tp1507
a(S'w'
I728
tp1508
a(S'w'
I6
tp1509
a(S'w'
I728
tp1510
a(S'w'
I5
tp1511
a(S'w'
I728
tp1512
a(S'w'
I6
tp1513
a(S'w'
I728
tp1514
a(S'w'
I6
tp1515
a(S'w'
I728
tp1516
a(S'w'
I6
tp1517
a(S'p1_tl'
I126
tp1518
a(S'w'
I728
tp1519
a(S'w'
I6
tp1520
a(S'w'
I728
tp1521
a(S'w'
I6
tp1522
a(S'w'
I728
tp1523
a(S'w'
I6
tp1524
a(S'w'
I728
tp1525
a(S'p2_tl'
I161
tp1526
a(S'w'
I6
tp1527
a(S'w'
I727
tp1528
a(S'w'
I6
tp1529
a(S'p1_tl'
I125
tp1530
a(S'w'
I728
tp1531
a(S'w'
I6
tp1532
a(S'w'
I728
tp1533
a(S'w'
I6
tp1534
a(S'w'
I728
tp1535
a(S'w'
I5
tp1536
a(S'w'
I728
tp1537
a(S'p2_tl'
I160
tp1538
a(S'w'
I6
tp1539
a(S'w'
I728
tp1540
a(S'w'
I6
tp1541
a(S'p1_tl'
I126
tp1542
a(S'w'
I728
tp1543
a(S'w'
I6
tp1544
a(S'w'
I728
tp1545
a(S'w'
I6
tp1546
a(S'w'
I727
tp1547
a(S'w'
I7
tp1548
a(S'w'
I728
tp1549
a(S'p2_tl'
I161
tp1550
a(S'w'
I6
tp1551
a(S'w'
I727
tp1552
a(S'w'
I6
tp1553
a(S'p1_tl'
I125
tp1554
a(S'w'
I728
tp1555
a(S'w'
I6
tp1556
a(S'w'
I728
tp1557
a(S'w'
I6
tp1558
a(S'w'
I728
tp1559
a(S'w'
I6
tp1560
a(S'w'
I727
tp1561
a(S'p2_tl'
I160
tp1562
a(S'w'
I6
tp1563
a(S'w'
I728
tp1564
a(S'w'
I6
tp1565
a(S'p1_tl'
I126
tp1566
a(S'w'
I728
tp1567
a(S'w'
I6
tp1568
a(S'w'
I728
tp1569
a(S'w'
I6
tp1570
a(S'w'
I727
tp1571
a(S'w'
I7
tp1572
a(S'w'
I728
tp1573
a(S'p2_tl'
I161
tp1574
a(S'w'
I6
tp1575
a(S'w'
I727
tp1576
a(S'w'
I6
tp1577
a(S'p1_tl'
I125
tp1578
a(S'w'
I728
tp1579
a(S'w'
I6
tp1580
a(S'w'
I728
tp1581
a(S'w'
I6
tp1582
a(S'w'
I728
tp1583
a(S'w'
I6
tp1584
a(S'w'
I727
tp1585
a(S'p2_tl'
I160
tp1586
a(S'w'
I6
tp1587
a(S'w'
I724
tp1588
a(S'tr_lh'
I0
tp1589
a(S'tr_lr'
I0
tp1590
a(S'w'
I5
tp1591
a(S'w'
I2
tp1592
a(S'p2_vo'
I6
tp1593
a(S'w'
I5
tp1594
a(S'p1_tl'
I126
tp1595
a(S'w'
I2
tp1596
a(S'p1_vo'
I10
tp1597
a(S'w'
I720
tp1598
a(S'w'
I2
tp1599
a(S'p2_vo'
I5
tp1600
a(S'w'
I5
tp1601
a(S'w'
I2
tp1602
a(S'p1_vo'
I9
tp1603
a(S'w'
I724
tp1604
a(S'p2_tl'
I94
tp1605
a(S'w'
I3
tp1606
a(S'p2_ll'
I0
tp1607
a(S'w'
I5
tp1608
a(S'w'
I2
tp1609
a(S'p1_vo'
I8
tp1610
a(S'w'
I724
tp1611
a(S'w'
I2
tp1612
a(S'p2_vo'
I6
tp1613
a(S'w'
I5
tp1614
a(S'w'
I2
tp1615
a(S'p1_vo'
I7
tp1616
a(S'w'
I725
tp1617
a(S'w'
I7
tp1618
a(S'w'
I2
tp1619
a(S'p1_vo'
I6
tp1620
a(S'w'
I725
tp1621
a(S'w'
I2
tp1622
a(S'p2_vo'
I7
tp1623
a(S'w'
I4
tp1624
a(S'p1_tl'
I125
tp1625
a(S'w'
I2
tp1626
a(S'p1_vo'
I5
tp1627
a(S'w'
I725
tp1628
a(S'w'
I7
tp1629
a(S'w'
I2
tp1630
a(S'p1_vo'
I4
tp1631
a(S'w'
I725
tp1632
a(S'w'
I7
tp1633
a(S'w'
I2
tp1634
a(S'p1_vo'
I3
tp1635
a(S'w'
I725
tp1636
a(S'w'
I6
tp1637
a(S'w'
I2
tp1638
a(S'p1_vo'
I2
tp1639
a(S'w'
I726
tp1640
a(S'w'
I6
tp1641
a(S'w'
I2
tp1642
a(S'p1_vo'
I1
tp1643
a(S'w'
I726
tp1644
a(S'w'
I7
tp1645
a(S'p1_tl'
I126
tp1646
a(S'w'
I726
tp1647
a(S'w'
I6
tp1648
a(S'w'
I728
tp1649
a(S'w'
I6
tp1650
a(S'w'
I728
tp1651
a(S'w'
I6
tp1652
a(S'w'
I728
tp1653
a(S'p2_tl'
I95
tp1654
a(S'w'
I6
tp1655
a(S'w'
I728
tp1656
a(S'w'
I6
tp1657
a(S'p1_tl'
I125
tp1658
a(S'w'
I728
tp1659
a(S'w'
I6
tp1660
a(S'w'
I2
tp1661
a(S'p1_vo'
I0
tp1662
a(S'w'
I725
tp1663
a(S'w'
I734
tp1664
a(S'w'
I734
tp1665
a(S'p2_tl'
I94
tp1666
a(S'w'
I734
tp1667
a(S'w'
I733
tp1668
a(S'w'
I734
tp1669
a(S'w'
I734
tp1670
a(S'w'
I734
tp1671
a(S'p2_tl'
I95
tp1672
a(S'w'
I734
tp1673
a(S'w'
I734
tp1674
a(S'w'
I733
tp1675
a(S'w'
I734
tp1676
a(S'w'
I734
tp1677
a(S'p2_tl'
I94
tp1678
a(S'w'
I734
tp1679
a(S'w'
I733
tp1680
a(S'w'
I734
tp1681
a(S'w'
I734
tp1682
a(S'w'
I734
tp1683
a(S'p2_tl'
I95
tp1684
a(S'w'
I734
tp1685
a(S'w'
I734
tp1686
a(S'w'
I733
tp1687
a(S'w'
I734
tp1688
a(S'w'
I734
tp1689
a(S'p2_tl'
I94
tp1690
a(S'w'
I734
tp1691
a(S'w'
I733
tp1692
a(S'w'
I734
tp1693
a(S'w'
I734
tp1694
a(S'w'
I734
tp1695
a(S'p2_tl'
I95
tp1696
a(S'w'
I734
tp1697
a(S'w'
I734
tp1698
a(S'w'
I734
tp1699
a(S'w'
I733
tp1700
a(S'w'
I734
tp1701
a(S'p2_tl'
I94
tp1702
a(S'w'
I734
tp1703
a(S'w'
I733
tp1704
a(S'w'
I734
tp1705
a(S'w'
I734
tp1706
a(S'w'
I734
tp1707
a(S'p2_tl'
I95
tp1708
a(S'w'
I734
tp1709
a(S'w'
I734
tp1710
a(S'w'
I733
tp1711
a(S'w'
I734
tp1712
a(S'w'
I734
tp1713
a(S'p2_tl'
I94
tp1714
a(S'w'
I734
tp1715
a(S'w'
I733
tp1716
a(S'w'
I734
tp1717
a(S'w'
I734
tp1718
a(S'w'
I734
tp1719
a(S'p2_tl'
I95
tp1720
a(S'w'
I734
tp1721
a(S'w'
I734
tp1722
a(S'w'
I734
tp1723
a(S'w'
I733
tp1724
a(S'w'
I734
tp1725
a(S'p2_tl'
I94
tp1726
a(S'w'
I734
tp1727
a(S'w'
I733
tp1728
a(S'w'
I734
tp1729
a(S'w'
I734
tp1730
a(S'w'
I734
tp1731
a(S'p2_tl'
I95
tp1732
a(S'w'
I734
tp1733
a(S'w'
I734
tp1734
a(S'w'
I734
tp1735
a(S'w'
I733
tp1736
a(S'w'
I734
tp1737
a(S'p2_tl'
I94
tp1738
a(S'w'
I734
tp1739
a(S'w'
I733
tp1740
a(S'w'
I734
tp1741
a(S'w'
I734
tp1742
a(S'w'
I734
tp1743
a(S'p2_tl'
I95
tp1744
a(S'w'
I734
tp1745
a(S'w'
I734
tp1746
a(S'w'
I734
tp1747
a(S'w'
I733
tp1748
a(S'w'
I734
tp1749
a(S'p2_tl'
I94
tp1750
a(S'w'
I734
tp1751
a(S'w'
I733
tp1752
a(S'w'
I734
tp1753
a(S'w'
I734
tp1754
a(S'w'
I734
tp1755
a(S'p2_tl'
I95
tp1756
a(S'w'
I734
tp1757
a(S'w'
I734
tp1758
a(S'w'
I734
tp1759
a(S'w'
I733
tp1760
a(S'w'
I734
tp1761
a(S'p2_tl'
I94
tp1762
a(S'w'
I734
tp1763
a(S'w'
I733
tp1764
a(S'w'
I734
tp1765
a(S'w'
I734
tp1766
a(S'w'
I734
tp1767
a(S'p2_tl'
I95
tp1768
a(S'w'
I734
tp1769
a(S'w'
I734
tp1770
a(S'w'
I734
tp1771
a(S'w'
I733
tp1772
a(S'w'
I734
tp1773
a(S'p2_tl'
I94
tp1774
a(S'w'
I734
tp1775
a(S'w'
I733
tp1776
a(S'w'
I734
tp1777
a(S'w'
I734
tp1778
a(S'w'
I734
tp1779
a(S'p2_tl'
I95
tp1780
a(S'w'
I734
tp1781
a(S'w'
I734
tp1782
a(S'w'
I734
tp1783
a(S'w'
I733
tp1784
a(S'w'
I734
tp1785
a(S'p2_tl'
I94
tp1786
a(S'w'
I734
tp1787
a(S'w'
I2
tp1788
a(S'p2_vo'
I6
tp1789
a(S'w'
I732
tp1790
a(S'w'
I2
tp1791
a(S'p2_vo'
I5
tp1792
a(S'w'
I732
tp1793
a(S'w'
I2
tp1794
a(S'p2_vo'
I4
tp1795
a(S'w'
I732
tp1796
a(S'w'
I2
tp1797
a(S'p2_vo'
I3
tp1798
a(S'w'
I732
tp1799
a(S'p2_tl'
I95
tp1800
a(S'w'
I2
tp1801
a(S'p2_vo'
I2
tp1802
a(S'w'
I732
tp1803
a(S'w'
I2
tp1804
a(S'p2_vo'
I1
tp1805
a(S'w'
I732
tp1806
a(S'w'
I733
tp1807
a(S'w'
I733
tp1808
a(S'w'
I734
tp1809
a(S'p2_tl'
I94
tp1810
a(S'w'
I734
tp1811
a(S'w'
I733
tp1812
a(S'w'
I734
tp1813
a(S'w'
I2
tp1814
a(S'p2_vo'
I0
tp1815
a(S'w'
I1
tp1816
a.