(lp1
(S'clock'
p2
I1789772
tp3
a(S'ch_no'
I1
tp4
a(S'ch_tr'
I1
tp5
a(S'ch_p2'
I1
tp6
a(S'ch_p1'
I1
tp7
a(S'w'
I6
tp8
a(S'ch_no'
I1
tp9
a(S'ch_tr'
I0
tp10
a(S'ch_p2'
I0
tp11
a(S'ch_p1'
I0
tp12
a(S'w'
I1
tp13
a(S'w'
I1
tp14
a(S'no_np'
I14
tp15
a(S'w'
I1
tp16
a(S'no_ll'
I9
tp17
a(S'w'
I6
tp18
a(S'ch_no'
I1
tp19
a(S'ch_tr'
I1
tp20
a(S'ch_p2'
I0
tp21
a(S'ch_p1'
I0
tp22
a(S'w'
I1
tp23
a(S'tr_lr'
I58
tp24
a(S'w'
I1
tp25
a(S'w'
I1
tp26
a(S'tr_tl'
I213
tp27
a(S'w'
I1
tp28
a(S'tr_ll'
I6
tp29
a(S'w'
I7
tp30
a(S'ch_no'
I1
tp31
a(S'ch_tr'
I1
tp32
a(S'ch_p2'
I1
tp33
a(S'ch_p1'
I0
tp34
a(S'w'
I1
tp35
a(S'p2_du'
I1
tp36
a(S'p2_cv'
I1
tp37
a(S'p2_vo'
I6
tp38
a(S'w'
I2
tp39
a(S'p2_tl'
I171
tp40
a(S'p2_ll'
I4
tp41
a(S'p2_th'
I1
tp42
a(S'w'
I5850
tp43
a(S'p2_tl'
I213
tp44
a(S'p2_ll'
I4
tp45
a(S'p2_th'
I0
tp46
a(S'w'
I5869
tp47
a(S'no_cv'
I1
tp48
a(S'no_vo'
I5
tp49
a(S'w'
I1
tp50
a(S'no_np'
I10
tp51
a(S'w'
I1
tp52
a(S'no_ll'
I7
tp53
a(S'w'
I8
tp54
a(S'p2_tl'
I29
tp55
a(S'p2_ll'
I4
tp56
a(S'p2_th'
I1
tp57
a(S'w'
I5861
tp58
a(S'tr_tl'
I106
tp59
a(S'tr_ll'
I6
tp60
a(S'w'
I8
tp61
a(S'p2_tl'
I171
tp62
a(S'w'
I1
tp63
a(S'p2_ll'
I4
tp64
a(S'w'
I5861
tp65
a(S'no_cv'
I0
tp66
a(S'no_vo'
I0
tp67
a(S'w'
I1
tp68
a(S'no_np'
I14
tp69
a(S'w'
I1
tp70
a(S'no_ll'
I9
tp71
a(S'w'
I7
tp72
a(S'tr_tl'
I213
tp73
a(S'w'
I1
tp74
a(S'tr_ll'
I6
tp75
a(S'w'
I7
tp76
a(S'p2_tl'
I213
tp77
a(S'w'
I1
tp78
a(S'p2_ll'
I4
tp79
a(S'p2_th'
I0
tp80
a(S'w'
I5853
tp81
a(S'p2_tl'
I29
tp82
a(S'p2_ll'
I4
tp83
a(S'p2_th'
I1
tp84
a(S'w'
I5870
tp85
a(S'no_cv'
I1
tp86
a(S'no_vo'
I5
tp87
a(S'w'
I1
tp88
a(S'no_np'
I10
tp89
a(S'w'
I1
tp90
a(S'no_ll'
I7
tp91
a(S'w'
I7
tp92
a(S'tr_tl'
I106
tp93
a(S'w'
I1
tp94
a(S'tr_ll'
I6
tp95
a(S'w'
I7
tp96
a(S'p2_tl'
I171
tp97
a(S'w'
I1
tp98
a(S'p2_ll'
I4
tp99
a(S'w'
I5851
tp100
a(S'no_ll'
I7
tp101
a(S'w'
I5
tp102
a(S'ch_no'
I1
tp103
a(S'ch_tr'
I0
tp104
a(S'ch_p2'
I1
tp105
a(S'ch_p1'
I0
tp106
a(S'w'
I3
tp107
a(S'tr_tl'
I0
tp108
a(S'tr_ll'
I6
tp109
a(S'w'
I5
tp110
a(S'ch_no'
I1
tp111
a(S'ch_tr'
I0
tp112
a(S'ch_p2'
I0
tp113
a(S'ch_p1'
I0
tp114
a(S'w'
I3
tp115
a(S'p2_tl'
I0
tp116
a(S'p2_ll'
I4
tp117
a(S'p2_th'
I0
tp118
a(S'w'
I5855
tp119
a(S'no_cv'
I0
tp120
a(S'no_vo'
I0
tp121
a(S'w'
I1
tp122
a(S'no_np'
I14
tp123
a(S'no_ll'
I9
tp124
a(S'w'
I5
tp125
a(S'ch_no'
I1
tp126
a(S'ch_tr'
I1
tp127
a(S'ch_p2'
I0
tp128
a(S'ch_p1'
I0
tp129
a(S'w'
I3
tp130
a(S'tr_tl'
I201
tp131
a(S'w'
I1
tp132
a(S'tr_ll'
I6
tp133
a(S'w'
I4
tp134
a(S'ch_no'
I1
tp135
a(S'ch_tr'
I1
tp136
a(S'ch_p2'
I1
tp137
a(S'ch_p1'
I0
tp138
a(S'w'
I3
tp139
a(S'p2_tl'
I147
tp140
a(S'w'
I1
tp141
a(S'p2_ll'
I4
tp142
a(S'p2_th'
I1
tp143
a(S'w'
I5854
tp144
a(S'p2_tl'
I201
tp145
a(S'p2_ll'
I4
tp146
a(S'p2_th'
I0
tp147
a(S'w'
I5869
tp148
a(S'no_cv'
I1
tp149
a(S'no_vo'
I5
tp150
a(S'w'
I1
tp151
a(S'no_np'
I10
tp152
a(S'w'
I1
tp153
a(S'no_ll'
I7
tp154
a(S'w'
I8
tp155
a(S'p2_tl'
I13
tp156
a(S'p2_ll'
I4
tp157
a(S'p2_th'
I1
tp158
a(S'w'
I5860
tp159
a(S'tr_tl'
I100
tp160
a(S'tr_ll'
I6
tp161
a(S'w'
I8
tp162
a(S'p2_tl'
I147
tp163
a(S'w'
I1
tp164
a(S'p2_ll'
I4
tp165
a(S'w'
I5862
tp166
a(S'no_cv'
I0
tp167
a(S'no_vo'
I0
tp168
a(S'w'
I1
tp169
a(S'no_np'
I14
tp170
a(S'no_ll'
I9
tp171
a(S'w'
I8
tp172
a(S'tr_tl'
I201
tp173
a(S'w'
I1
tp174
a(S'tr_ll'
I6
tp175
a(S'w'
I7
tp176
a(S'p2_tl'
I201
tp177
a(S'w'
I1
tp178
a(S'p2_ll'
I4
tp179
a(S'p2_th'
I0
tp180
a(S'w'
I5853
tp181
a(S'p2_tl'
I13
tp182
a(S'p2_ll'
I4
tp183
a(S'p2_th'
I1
tp184
a(S'w'
I5869
tp185
a(S'no_cv'
I1
tp186
a(S'no_vo'
I5
tp187
a(S'w'
I1
tp188
a(S'no_np'
I10
tp189
a(S'w'
I1
tp190
a(S'no_ll'
I7
tp191
a(S'w'
I7
tp192
a(S'tr_tl'
I100
tp193
a(S'w'
I1
tp194
a(S'tr_ll'
I6
tp195
a(S'w'
I7
tp196
a(S'p2_tl'
I147
tp197
a(S'w'
I1
tp198
a(S'p2_ll'
I4
tp199
a(S'w'
I5852
tp200
a(S'no_ll'
I7
tp201
a(S'w'
I5
tp202
a(S'ch_no'
I1
tp203
a(S'ch_tr'
I1
tp204
a(S'ch_p2'
I0
tp205
a(S'ch_p1'
I0
tp206
a(S'w'
I3
tp207
a(S'p2_tl'
I0
tp208
a(S'w'
I1
tp209
a(S'p2_ll'
I4
tp210
a(S'p2_th'
I0
tp211
a(S'w'
I5862
tp212
a(S'no_cv'
I0
tp213
a(S'no_vo'
I0
tp214
a(S'w'
I1
tp215
a(S'no_np'
I14
tp216
a(S'no_ll'
I9
tp217
a(S'w'
I8
tp218
a(S'tr_tl'
I213
tp219
a(S'w'
I1
tp220
a(S'tr_ll'
I6
tp221
a(S'w'
I4
tp222
a(S'ch_no'
I1
tp223
a(S'ch_tr'
I1
tp224
a(S'ch_p2'
I1
tp225
a(S'ch_p1'
I0
tp226
a(S'w'
I3
tp227
a(S'p2_tl'
I171
tp228
a(S'w'
I1
tp229
a(S'p2_ll'
I4
tp230
a(S'p2_th'
I1
tp231
a(S'w'
I5853
tp232
a(S'p2_tl'
I213
tp233
a(S'p2_ll'
I4
tp234
a(S'p2_th'
I0
tp235
a(S'w'
I5870
tp236
a(S'no_cv'
I1
tp237
a(S'no_vo'
I5
tp238
a(S'w'
I1
tp239
a(S'no_np'
I10
tp240
a(S'w'
I1
tp241
a(S'no_ll'
I7
tp242
a(S'w'
I8
tp243
a(S'p2_tl'
I29
tp244
a(S'p2_ll'
I4
tp245
a(S'p2_th'
I1
tp246
a(S'w'
I5860
tp247
a(S'tr_tl'
I106
tp248
a(S'tr_ll'
I6
tp249
a(S'w'
I8
tp250
a(S'p2_tl'
I171
tp251
a(S'w'
I1
tp252
a(S'p2_ll'
I4
tp253
a(S'w'
I5861
tp254
a(S'no_cv'
I0
tp255
a(S'no_vo'
I0
tp256
a(S'w'
I1
tp257
a(S'no_np'
I14
tp258
a(S'no_ll'
I9
tp259
a(S'w'
I8
tp260
a(S'tr_tl'
I213
tp261
a(S'w'
I1
tp262
a(S'tr_ll'
I6
tp263
a(S'w'
I7
tp264
a(S'p2_tl'
I213
tp265
a(S'w'
I1
tp266
a(S'p2_ll'
I4
tp267
a(S'p2_th'
I0
tp268
a(S'w'
I5854
tp269
a(S'p2_tl'
I29
tp270
a(S'p2_ll'
I4
tp271
a(S'p2_th'
I1
tp272
a(S'w'
I5869
tp273
a(S'no_cv'
I1
tp274
a(S'no_vo'
I5
tp275
a(S'w'
I1
tp276
a(S'no_np'
I10
tp277
a(S'w'
I1
tp278
a(S'no_ll'
I7
tp279
a(S'w'
I7
tp280
a(S'tr_tl'
I106
tp281
a(S'w'
I1
tp282
a(S'tr_ll'
I6
tp283
a(S'w'
I7
tp284
a(S'p2_tl'
I171
tp285
a(S'w'
I1
tp286
a(S'p2_ll'
I4
tp287
a(S'w'
I5851
tp288
a(S'no_ll'
I7
tp289
a(S'w'
I5
tp290
a(S'ch_no'
I1
tp291
a(S'ch_tr'
I0
tp292
a(S'ch_p2'
I1
tp293
a(S'ch_p1'
I0
tp294
a(S'w'
I3
tp295
a(S'tr_tl'
I0
tp296
a(S'tr_ll'
I6
tp297
a(S'w'
I5
tp298
a(S'ch_no'
I1
tp299
a(S'ch_tr'
I0
tp300
a(S'ch_p2'
I0
tp301
a(S'ch_p1'
I0
tp302
a(S'w'
I3
tp303
a(S'p2_tl'
I0
tp304
a(S'p2_ll'
I4
tp305
a(S'p2_th'
I0
tp306
a(S'w'
I5857
tp307
a(S'w'
I1
tp308
a(S'no_ll'
I7
tp309
a(S'w'
I4
tp310
a(S'ch_no'
I1
tp311
a(S'ch_tr'
I1
tp312
a(S'ch_p2'
I0
tp313
a(S'ch_p1'
I0
tp314
a(S'w'
I3
tp315
a(S'tr_tl'
I142
tp316
a(S'w'
I1
tp317
a(S'tr_ll'
I6
tp318
a(S'w'
I4
tp319
a(S'ch_no'
I1
tp320
a(S'ch_tr'
I1
tp321
a(S'ch_p2'
I1
tp322
a(S'ch_p1'
I0
tp323
a(S'w'
I3
tp324
a(S'p2_tl'
I83
tp325
a(S'w'
I1
tp326
a(S'p2_ll'
I4
tp327
a(S'p2_th'
I1
tp328
a(S'w'
I4385
tp329
a(S'p2_tl'
I64
tp330
a(S'p2_ll'
I4
tp331
a(S'w'
I1466
tp332
a(S'no_ll'
I7
tp333
a(S'w'
I2203
tp334
a(S'p2_tl'
I46
tp335
a(S'p2_ll'
I4
tp336
a(S'w'
I3667
tp337
a(S'no_ll'
I7
tp338
a(S'w'
I8
tp339
a(S'tr_tl'
I127
tp340
a(S'w'
I1
tp341
a(S'tr_ll'
I6
tp342
a(S'w'
I7
tp343
a(S'p2_tl'
I29
tp344
a(S'w'
I1
tp345
a(S'p2_ll'
I4
tp346
a(S'w'
I4388
tp347
a(S'p2_tl'
I13
tp348
a(S'p2_ll'
I4
tp349
a(S'w'
I3669
tp350
a(S'p2_tl'
I254
tp351
a(S'p2_ll'
I4
tp352
a(S'p2_th'
I0
tp353
a(S'w'
I3667
tp354
a(S'no_ll'
I7
tp355
a(S'w'
I8
tp356
a(S'tr_tl'
I113
tp357
a(S'w'
I1
tp358
a(S'tr_ll'
I6
tp359
a(S'w'
I7
tp360
a(S'p2_tl'
I239
tp361
a(S'w'
I1
tp362
a(S'p2_ll'
I4
tp363
a(S'w'
I5853
tp364
a(S'no_ll'
I7
tp365
a(S'w'
I9
tp366
a(S'p2_tl'
I226
tp367
a(S'p2_ll'
I4
tp368
a(S'w'
I5862
tp369
a(S'no_ll'
I7
tp370
a(S'w'
I8
tp371
a(S'tr_tl'
I106
tp372
a(S'w'
I1
tp373
a(S'tr_ll'
I6
tp374
a(S'w'
I7
tp375
a(S'p2_tl'
I213
tp376
a(S'w'
I1
tp377
a(S'p2_ll'
I4
tp378
a(S'w'
I11721
tp379
a(S'ch_no'
I0
tp380
a(S'ch_tr'
I0
tp381
a(S'ch_p2'
I0
tp382
a(S'ch_p1'
I0
tp383
a(S'w'
I43569
tp384
a.