(lp1
(S'clock'
p2
I1789772
tp3
a(S'w'
I116
tp4
a(S'p1_lh'
I1
tp5
a(S'p1_cv'
I1
tp6
a(S'w'
I31
tp7
a(S'p2_du'
I2
tp8
a(S'p2_lh'
I1
tp9
a(S'p2_cv'
I1
tp10
a(S'p2_vo'
I7
tp11
a(S'w'
I11
tp12
a(S'p2_ll'
I1
tp13
a(S'p2_ll'
I1
tp14
a(S'w'
I1
tp15
a(S'p2_tl'
I179
tp16
a(S'w'
I9
tp17
a(S'tr_lh'
I1
tp18
a(S'tr_lr'
I16
tp19
a(S'w'
I7
tp20
a(S'tr_ll'
I1
tp21
a(S'tr_ll'
I1
tp22
a(S'w'
I1
tp23
a(S'tr_tl'
I113
tp24
a(S'w'
I28
tp25
a(S'no_lh'
I1
tp26
a(S'no_cv'
I1
tp27
a(S'no_vo'
I8
tp28
a(S'w'
I2
tp29
a(S'no_ll'
I1
tp30
a(S'w'
I1
tp31
a(S'no_ll'
I1
tp32
a(S'w'
I1
tp33
a(S'no_np'
I2
tp34
a(S'w'
I538
tp35
a(S'p2_du'
I1
tp36
a(S'p2_vo'
I6
tp37
a(S'w'
I12
tp38
a(S'no_vo'
I6
tp39
a(S'w'
I2
tp40
a(S'no_ll'
I1
tp41
a(S'no_ll'
I1
tp42
a(S'w'
I2
tp43
a(S'no_np'
I1
tp44
a(S'w'
I3662
tp45
a(S'no_vo'
I5
tp46
a(S'w'
I2
tp47
a(S'no_ll'
I1
tp48
a(S'no_ll'
I1
tp49
a(S'w'
I1
tp50
a(S'w'
I734
tp51
a(S'p1_du'
I1
tp52
a(S'p1_vo'
I3
tp53
a(S'w'
I12
tp54
a(S'p1_ll'
I1
tp55
a(S'p1_ll'
I1
tp56
a(S'w'
I1
tp57
a(S'p1_tl'
I178
tp58
a(S'w'
I13
tp59
a(S'w'
I15
tp60
a(S'tr_ll'
I1
tp61
a(S'w'
I1
tp62
a(S'tr_ll'
I1
tp63
a(S'w'
I1
tp64
a(S'tr_tl'
I179
tp65
a(S'w'
I2892
tp66
a(S'no_vo'
I4
tp67
a(S'w'
I2
tp68
a(S'no_ll'
I1
tp69
a(S'w'
I1
tp70
a(S'no_ll'
I1
tp71
a(S'w'
I1
tp72
a(S'w'
I2190
tp73
a(S'w'
I20
tp74
a(S'tr_ll'
I1
tp75
a(S'tr_ll'
I1
tp76
a(S'w'
I2
tp77
a(S'tr_tl'
I151
tp78
a(S'w'
I1453
tp79
a(S'no_vo'
I3
tp80
a(S'w'
I2
tp81
a(S'no_ll'
I1
tp82
a(S'w'
I1
tp83
a(S'no_ll'
I1
tp84
a(S'w'
I1
tp85
a(S'w'
I727
tp86
a(S'p2_tl'
I172
tp87
a(S'w'
I1468
tp88
a(S'p2_tl'
I158
tp89
a(S'w'
I1473
tp90
a(S'tr_ll'
I1
tp91
a(S'tr_ll'
I1
tp92
a(S'w'
I1
tp93
a(S'tr_tl'
I113
tp94
a(S'w'
I23
tp95
a(S'no_vo'
I7
tp96
a(S'w'
I2
tp97
a(S'no_ll'
I1
tp98
a(S'no_ll'
I1
tp99
a(S'w'
I1
tp100
a(S'no_np'
I2
tp101
a(S'w'
I701
tp102
a(S'p2_tl'
I151
tp103
a(S'w'
I13
tp104
a(S'no_vo'
I1
tp105
a(S'w'
I2
tp106
a(S'no_ll'
I1
tp107
a(S'no_ll'
I1
tp108
a(S'w'
I2
tp109
a(S'no_np'
I1
tp110
a(S'w'
I721
tp111
a(S'no_vo'
I0
tp112
a(S'w'
I725
tp113
a(S'p1_tl'
I171
tp114
a(S'w'
I1467
tp115
a(S'p1_tl'
I157
tp116
a(S'w'
I1490
tp117
a(S'no_vo'
I7
tp118
a(S'w'
I2
tp119
a(S'no_ll'
I1
tp120
a(S'no_ll'
I1
tp121
a(S'w'
I1
tp122
a(S'no_np'
I2
tp123
a(S'w'
I708
tp124
a(S'p1_tl'
I150
tp125
a(S'w'
I19
tp126
a(S'no_vo'
I1
tp127
a(S'w'
I2
tp128
a(S'no_ll'
I1
tp129
a(S'no_ll'
I1
tp130
a(S'w'
I1
tp131
a(S'no_np'
I1
tp132
a(S'w'
I720
tp133
a(S'no_vo'
I0
tp134
a(S'w'
I2194
tp135
a(S'p2_du'
I2
tp136
a(S'p2_vo'
I2
tp137
a(S'w'
I1491
tp138
a(S'no_vo'
I7
tp139
a(S'w'
I2
tp140
a(S'no_ll'
I1
tp141
a(S'no_ll'
I1
tp142
a(S'w'
I2
tp143
a(S'no_np'
I2
tp144
a(S'w'
I716
tp145
a(S'no_vo'
I1
tp146
a(S'w'
I2
tp147
a(S'no_ll'
I1
tp148
a(S'no_ll'
I1
tp149
a(S'w'
I1
tp150
a(S'no_np'
I1
tp151
a(S'w'
I731
tp152
a(S'no_vo'
I0
tp153
a(S'w'
I2186
tp154
a(S'p1_du'
I2
tp155
a(S'p1_vo'
I1
tp156
a(S'w'
I1484
tp157
a(S'p2_vo'
I7
tp158
a(S'w'
I12
tp159
a(S'p2_tl'
I201
tp160
a(S'w'
I13
tp161
a(S'tr_ll'
I1
tp162
a(S'tr_ll'
I1
tp163
a(S'w'
I1
tp164
a(S'tr_tl'
I127
tp165
a(S'w'
I28
tp166
a(S'no_vo'
I8
tp167
a(S'w'
I2
tp168
a(S'no_ll'
I1
tp169
a(S'no_ll'
I1
tp170
a(S'w'
I1
tp171
a(S'no_np'
I2
tp172
a(S'w'
I668
tp173
a(S'p2_du'
I1
tp174
a(S'p2_vo'
I6
tp175
a(S'w'
I12
tp176
a(S'no_vo'
I6
tp177
a(S'w'
I2
tp178
a(S'no_ll'
I1
tp179
a(S'no_ll'
I1
tp180
a(S'w'
I1
tp181
a(S'no_np'
I1
tp182
a(S'w'
I3663
tp183
a(S'no_vo'
I5
tp184
a(S'w'
I2
tp185
a(S'no_ll'
I1
tp186
a(S'no_ll'
I1
tp187
a(S'w'
I1
tp188
a(S'w'
I722
tp189
a(S'p1_du'
I1
tp190
a(S'p1_vo'
I3
tp191
a(S'w'
I13
tp192
a(S'p1_tl'
I200
tp193
a(S'w'
I14
tp194
a(S'w'
I15
tp195
a(S'tr_ll'
I1
tp196
a(S'tr_ll'
I1
tp197
a(S'w'
I1
tp198
a(S'tr_tl'
I201
tp199
a(S'w'
I2897
tp200
a(S'no_vo'
I4
tp201
a(S'w'
I2
tp202
a(S'no_ll'
I1
tp203
a(S'w'
I1
tp204
a(S'no_ll'
I1
tp205
a(S'w'
I1
tp206
a(S'w'
I2190
tp207
a(S'w'
I21
tp208
a(S'tr_ll'
I1
tp209
a(S'tr_ll'
I1
tp210
a(S'w'
I1
tp211
a(S'tr_tl'
I169
tp212
a(S'w'
I1453
tp213
a(S'no_vo'
I3
tp214
a(S'w'
I2
tp215
a(S'no_ll'
I1
tp216
a(S'w'
I1
tp217
a(S'no_ll'
I1
tp218
a(S'w'
I1
tp219
a(S'w'
I727
tp220
a(S'p2_tl'
I193
tp221
a(S'w'
I1468
tp222
a(S'p2_tl'
I177
tp223
a(S'w'
I1473
tp224
a(S'tr_ll'
I1
tp225
a(S'tr_ll'
I1
tp226
a(S'w'
I1
tp227
a(S'tr_tl'
I127
tp228
a(S'w'
I23
tp229
a(S'no_vo'
I7
tp230
a(S'w'
I2
tp231
a(S'no_ll'
I1
tp232
a(S'no_ll'
I1
tp233
a(S'w'
I1
tp234
a(S'no_np'
I2
tp235
a(S'w'
I701
tp236
a(S'p2_tl'
I169
tp237
a(S'w'
I14
tp238
a(S'no_vo'
I1
tp239
a(S'w'
I2
tp240
a(S'no_ll'
I1
tp241
a(S'no_ll'
I1
tp242
a(S'w'
I1
tp243
a(S'no_np'
I1
tp244
a(S'w'
I721
tp245
a(S'no_vo'
I0
tp246
a(S'w'
I725
tp247
a(S'p1_tl'
I192
tp248
a(S'w'
I1467
tp249
a(S'p1_tl'
I176
tp250
a(S'w'
I1490
tp251
a(S'no_vo'
I7
tp252
a(S'w'
I2
tp253
a(S'no_ll'
I1
tp254
a(S'no_ll'
I1
tp255
a(S'w'
I1
tp256
a(S'no_np'
I2
tp257
a(S'w'
I709
tp258
a(S'p1_tl'
I168
tp259
a(S'w'
I19
tp260
a(S'no_vo'
I1
tp261
a(S'w'
I2
tp262
a(S'no_ll'
I1
tp263
a(S'no_ll'
I1
tp264
a(S'w'
I1
tp265
a(S'no_np'
I1
tp266
a(S'w'
I720
tp267
a(S'no_vo'
I0
tp268
a(S'w'
I2193
tp269
a(S'p2_du'
I2
tp270
a(S'p2_vo'
I2
tp271
a(S'w'
I1491
tp272
a(S'no_vo'
I7
tp273
a(S'w'
I2
tp274
a(S'no_ll'
I1
tp275
a(S'no_ll'
I1
tp276
a(S'w'
I2
tp277
a(S'no_np'
I2
tp278
a(S'w'
I716
tp279
a(S'no_vo'
I1
tp280
a(S'w'
I2
tp281
a(S'no_ll'
I1
tp282
a(S'no_ll'
I1
tp283
a(S'w'
I1
tp284
a(S'no_np'
I1
tp285
a(S'w'
I731
tp286
a(S'no_vo'
I0
tp287
a(S'w'
I2186
tp288
a(S'p1_du'
I2
tp289
a(S'p1_vo'
I1
tp290
a(S'w'
I1486
tp291
a(S'p2_vo'
I7
tp292
a(S'w'
I11
tp293
a(S'p2_tl'
I226
tp294
a(S'w'
I13
tp295
a(S'tr_ll'
I1
tp296
a(S'tr_ll'
I1
tp297
a(S'w'
I2
tp298
a(S'tr_tl'
I142
tp299
a(S'w'
I27
tp300
a(S'no_vo'
I8
tp301
a(S'w'
I2
tp302
a(S'no_ll'
I1
tp303
a(S'no_ll'
I1
tp304
a(S'w'
I1
tp305
a(S'no_np'
I2
tp306
a(S'w'
I667
tp307
a(S'p2_du'
I1
tp308
a(S'p2_vo'
I6
tp309
a(S'w'
I12
tp310
a(S'no_vo'
I6
tp311
a(S'w'
I2
tp312
a(S'no_ll'
I1
tp313
a(S'no_ll'
I1
tp314
a(S'w'
I1
tp315
a(S'no_np'
I1
tp316
a(S'w'
I3663
tp317
a(S'no_vo'
I5
tp318
a(S'w'
I2
tp319
a(S'no_ll'
I1
tp320
a(S'no_ll'
I1
tp321
a(S'w'
I1
tp322
a(S'w'
I725
tp323
a(S'p1_du'
I1
tp324
a(S'p1_vo'
I3
tp325
a(S'w'
I12
tp326
a(S'p1_tl'
I225
tp327
a(S'w'
I14
tp328
a(S'w'
I15
tp329
a(S'tr_ll'
I1
tp330
a(S'tr_ll'
I1
tp331
a(S'w'
I2
tp332
a(S'tr_tl'
I190
tp333
a(S'w'
I2895
tp334
a(S'no_vo'
I4
tp335
a(S'w'
I2
tp336
a(S'no_ll'
I1
tp337
a(S'w'
I1
tp338
a(S'no_ll'
I1
tp339
a(S'w'
I1
tp340
a(S'w'
I2190
tp341
a(S'w'
I21
tp342
a(S'tr_ll'
I1
tp343
a(S'w'
I1
tp344
a(S'tr_ll'
I1
tp345
a(S'w'
I1
tp346
a(S'tr_tl'
I226
tp347
a(S'w'
I1452
tp348
a(S'no_vo'
I3
tp349
a(S'w'
I2
tp350
a(S'no_ll'
I1
tp351
a(S'w'
I1
tp352
a(S'no_ll'
I1
tp353
a(S'w'
I1
tp354
a(S'w'
I727
tp355
a(S'p2_tl'
I217
tp356
a(S'w'
I1468
tp357
a(S'p2_tl'
I199
tp358
a(S'w'
I1474
tp359
a(S'tr_ll'
I1
tp360
a(S'tr_ll'
I1
tp361
a(S'w'
I2
tp362
a(S'tr_tl'
I142
tp363
a(S'w'
I23
tp364
a(S'no_vo'
I7
tp365
a(S'w'
I2
tp366
a(S'no_ll'
I1
tp367
a(S'no_ll'
I1
tp368
a(S'w'
I1
tp369
a(S'no_np'
I2
tp370
a(S'w'
I699
tp371
a(S'p2_tl'
I190
tp372
a(S'w'
I13
tp373
a(S'no_vo'
I1
tp374
a(S'w'
I2
tp375
a(S'no_ll'
I1
tp376
a(S'no_ll'
I1
tp377
a(S'w'
I1
tp378
a(S'no_np'
I1
tp379
a(S'w'
I721
tp380
a(S'no_vo'
I0
tp381
a(S'w'
I726
tp382
a(S'p1_tl'
I216
tp383
a(S'w'
I1468
tp384
a(S'p1_tl'
I198
tp385
a(S'w'
I1488
tp386
a(S'no_vo'
I7
tp387
a(S'w'
I2
tp388
a(S'no_ll'
I1
tp389
a(S'no_ll'
I1
tp390
a(S'w'
I1
tp391
a(S'no_np'
I2
tp392
a(S'w'
I710
tp393
a(S'p1_tl'
I189
tp394
a(S'w'
I18
tp395
a(S'no_vo'
I1
tp396
a(S'w'
I2
tp397
a(S'no_ll'
I1
tp398
a(S'w'
I1
tp399
a(S'no_ll'
I1
tp400
a(S'w'
I1
tp401
a(S'no_np'
I1
tp402
a(S'w'
I719
tp403
a(S'no_vo'
I0
tp404
a(S'w'
I2193
tp405
a(S'p2_du'
I2
tp406
a(S'p2_vo'
I2
tp407
a(S'w'
I1492
tp408
a(S'no_vo'
I7
tp409
a(S'w'
I2
tp410
a(S'no_ll'
I1
tp411
a(S'no_ll'
I1
tp412
a(S'w'
I1
tp413
a(S'no_np'
I2
tp414
a(S'w'
I717
tp415
a(S'no_vo'
I1
tp416
a(S'w'
I2
tp417
a(S'no_ll'
I1
tp418
a(S'no_ll'
I1
tp419
a(S'w'
I1
tp420
a(S'no_np'
I1
tp421
a(S'w'
I730
tp422
a(S'no_vo'
I0
tp423
a(S'w'
I2187
tp424
a(S'p1_du'
I2
tp425
a(S'p1_vo'
I1
tp426
a(S'w'
I1483
tp427
a(S'p2_vo'
I7
tp428
a(S'w'
I12
tp429
a(S'p2_tl'
I254
tp430
a(S'w'
I13
tp431
a(S'tr_ll'
I1
tp432
a(S'tr_ll'
I1
tp433
a(S'w'
I1
tp434
a(S'tr_tl'
I160
tp435
a(S'w'
I27
tp436
a(S'no_vo'
I8
tp437
a(S'w'
I2
tp438
a(S'no_ll'
I1
tp439
a(S'w'
I1
tp440
a(S'no_ll'
I1
tp441
a(S'w'
I1
tp442
a(S'no_np'
I2
tp443
a(S'w'
I668
tp444
a(S'p2_du'
I1
tp445
a(S'p2_vo'
I6
tp446
a(S'w'
I12
tp447
a(S'no_vo'
I6
tp448
a(S'w'
I2
tp449
a(S'no_ll'
I1
tp450
a(S'no_ll'
I1
tp451
a(S'w'
I1
tp452
a(S'no_np'
I1
tp453
a(S'w'
I3663
tp454
a(S'no_vo'
I5
tp455
a(S'w'
I2
tp456
a(S'no_ll'
I1
tp457
a(S'no_ll'
I1
tp458
a(S'w'
I1
tp459
a(S'w'
I723
tp460
a(S'p1_du'
I1
tp461
a(S'p1_vo'
I3
tp462
a(S'w'
I12
tp463
a(S'p1_tl'
I253
tp464
a(S'w'
I15
tp465
a(S'w'
I16
tp466
a(S'tr_ll'
I1
tp467
a(S'tr_ll'
I1
tp468
a(S'w'
I2
tp469
a(S'tr_tl'
I226
tp470
a(S'w'
I2895
tp471
a(S'no_vo'
I4
tp472
a(S'w'
I2
tp473
a(S'no_ll'
I1
tp474
a(S'w'
I1
tp475
a(S'no_ll'
I1
tp476
a(S'w'
I1
tp477
a(S'w'
I2190
tp478
a(S'w'
I22
tp479
a(S'tr_ll'
I1
tp480
a(S'tr_ll'
I1
tp481
a(S'w'
I2
tp482
a(S'tr_tl'
I213
tp483
a(S'w'
I1451
tp484
a(S'no_vo'
I3
tp485
a(S'w'
I2
tp486
a(S'no_ll'
I1
tp487
a(S'no_ll'
I1
tp488
a(S'w'
I2
tp489
a(S'w'
I728
tp490
a(S'p2_tl'
I244
tp491
a(S'w'
I1467
tp492
a(S'p2_tl'
I224
tp493
a(S'w'
I1473
tp494
a(S'tr_ll'
I1
tp495
a(S'tr_ll'
I1
tp496
a(S'w'
I1
tp497
a(S'tr_tl'
I160
tp498
a(S'w'
I23
tp499
a(S'no_vo'
I7
tp500
a(S'w'
I2
tp501
a(S'no_ll'
I1
tp502
a(S'no_ll'
I1
tp503
a(S'w'
I1
tp504
a(S'no_np'
I2
tp505
a(S'w'
I702
tp506
a(S'p2_tl'
I214
tp507
a(S'w'
I14
tp508
a(S'no_vo'
I1
tp509
a(S'w'
I2
tp510
a(S'no_ll'
I1
tp511
a(S'no_ll'
I1
tp512
a(S'w'
I1
tp513
a(S'no_np'
I1
tp514
a(S'w'
I719
tp515
a(S'no_vo'
I0
tp516
a(S'w'
I726
tp517
a(S'p1_tl'
I243
tp518
a(S'w'
I1468
tp519
a(S'p1_tl'
I223
tp520
a(S'w'
I1488
tp521
a(S'no_vo'
I7
tp522
a(S'w'
I2
tp523
a(S'no_ll'
I1
tp524
a(S'no_ll'
I1
tp525
a(S'w'
I1
tp526
a(S'no_np'
I2
tp527
a(S'w'
I710
tp528
a(S'p1_tl'
I213
tp529
a(S'w'
I19
tp530
a(S'no_vo'
I1
tp531
a(S'w'
I2
tp532
a(S'no_ll'
I1
tp533
a(S'no_ll'
I1
tp534
a(S'w'
I1
tp535
a(S'no_np'
I1
tp536
a(S'w'
I719
tp537
a(S'no_vo'
I0
tp538
a(S'w'
I2193
tp539
a(S'p2_du'
I2
tp540
a(S'p2_vo'
I2
tp541
a(S'w'
I1492
tp542
a(S'no_vo'
I7
tp543
a(S'w'
I2
tp544
a(S'no_ll'
I1
tp545
a(S'no_ll'
I1
tp546
a(S'w'
I2
tp547
a(S'no_np'
I2
tp548
a(S'w'
I716
tp549
a(S'no_vo'
I1
tp550
a(S'w'
I2
tp551
a(S'no_ll'
I1
tp552
a(S'no_ll'
I1
tp553
a(S'w'
I1
tp554
a(S'no_np'
I1
tp555
a(S'w'
I731
tp556
a(S'no_vo'
I0
tp557
a(S'w'
I2186
tp558
a(S'p1_du'
I2
tp559
a(S'p1_vo'
I1
tp560
a(S'w'
I1493
tp561
a(S'p2_vo'
I7
tp562
a(S'w'
I12
tp563
a(S'p2_tl'
I226
tp564
a(S'w'
I14
tp565
a(S'tr_lh'
I0
tp566
a(S'tr_lr'
I57
tp567
a(S'w'
I6
tp568
a(S'tr_ll'
I1
tp569
a(S'tr_th'
I2
tp570
a(S'tr_ll'
I1
tp571
a(S'w'
I1
tp572
a(S'tr_tl'
I167
tp573
a(S'w'
I17
tp574
a(S'ch_no'
I1
tp575
a(S'ch_tr'
I1
tp576
a(S'ch_p2'
I1
tp577
a(S'ch_p1'
I1
tp578
a(S'w'
I1
tp579
a(S'ch_no'
I1
tp580
a(S'ch_tr'
I1
tp581
a(S'ch_p2'
I1
tp582
a(S'ch_p1'
I1
tp583
a(S'w'
I665
tp584
a(S'p2_du'
I1
tp585
a(S'p2_vo'
I6
tp586
a(S'w'
I4412
tp587
a(S'p1_du'
I1
tp588
a(S'p1_vo'
I3
tp589
a(S'w'
I13
tp590
a(S'p1_tl'
I225
tp591
a(S'w'
I33
tp592
a(S'no_vo'
I7
tp593
a(S'w'
I2
tp594
a(S'no_ll'
I1
tp595
a(S'no_ll'
I1
tp596
a(S'w'
I1
tp597
a(S'no_np'
I2
tp598
a(S'w'
I682
tp599
a(S'no_vo'
I1
tp600
a(S'w'
I2
tp601
a(S'no_ll'
I1
tp602
a(S'no_ll'
I1
tp603
a(S'w'
I1
tp604
a(S'no_np'
I1
tp605
a(S'w'
I731
tp606
a(S'no_vo'
I0
tp607
a(S'w'
I3684
tp608
a(S'no_vo'
I7
tp609
a(S'w'
I2
tp610
a(S'no_ll'
I1
tp611
a(S'no_ll'
I1
tp612
a(S'w'
I1
tp613
a(S'no_np'
I2
tp614
a(S'w'
I715
tp615
a(S'no_vo'
I1
tp616
a(S'w'
I2
tp617
a(S'no_ll'
I1
tp618
a(S'no_ll'
I1
tp619
a(S'w'
I1
tp620
a(S'no_np'
I1
tp621
a(S'w'
I731
tp622
a(S'no_vo'
I0
tp623
a(S'w'
I3674
tp624
a(S'tr_ll'
I1
tp625
a(S'w'
I1
tp626
a(S'tr_ll'
I1
tp627
a(S'w'
I17
tp628
a(S'ch_no'
I1
tp629
a(S'ch_tr'
I1
tp630
a(S'ch_p2'
I1
tp631
a(S'ch_p1'
I1
tp632
a(S'w'
I2
tp633
a(S'ch_no'
I1
tp634
a(S'ch_tr'
I1
tp635
a(S'ch_p2'
I1
tp636
a(S'ch_p1'
I1
tp637
a(S'w'
I5106
tp638
a(S'w'
I29
tp639
a(S'no_vo'
I7
tp640
a(S'w'
I2
tp641
a(S'no_ll'
I1
tp642
a(S'no_ll'
I1
tp643
a(S'w'
I1
tp644
a(S'no_np'
I2
tp645
a(S'w'
I706
tp646
a(S'no_vo'
I1
tp647
a(S'w'
I2
tp648
a(S'no_ll'
I1
tp649
a(S'w'
I1
tp650
a(S'no_ll'
I1
tp651
a(S'w'
I1
tp652
a(S'no_np'
I1
tp653
a(S'w'
I724
tp654
a(S'p2_tl'
I227
tp655
a(S'w'
I14
tp656
a(S'no_vo'
I0
tp657
a(S'w'
I2188
tp658
a(S'p2_tl'
I226
tp659
a(S'w'
I1463
tp660
a(S'w'
I13
tp661
a(S'p2_tl'
I225
tp662
a(S'w'
I29
tp663
a(S'no_vo'
I7
tp664
a(S'w'
I2
tp665
a(S'no_ll'
I1
tp666
a(S'no_ll'
I1
tp667
a(S'w'
I1
tp668
a(S'no_np'
I2
tp669
a(S'w'
I699
tp670
a(S'no_vo'
I1
tp671
a(S'w'
I2
tp672
a(S'no_ll'
I1
tp673
a(S'w'
I1
tp674
a(S'no_ll'
I1
tp675
a(S'w'
I1
tp676
a(S'no_np'
I1
tp677
a(S'w'
I719
tp678
a(S'p1_tl'
I226
tp679
a(S'w'
I20
tp680
a(S'no_vo'
I0
tp681
a(S'w'
I721
tp682
a(S'p2_tl'
I226
tp683
a(S'w'
I1460
tp684
a(S'p1_tl'
I225
tp685
a(S'w'
I13
tp686
a(S'p2_tl'
I227
tp687
a(S'w'
I1455
tp688
a(S'p1_tl'
I224
tp689
a(S'w'
I25
tp690
a(S'tr_ll'
I1
tp691
a(S'tr_ll'
I1
tp692
a(S'w'
I18
tp693
a(S'ch_no'
I1
tp694
a(S'ch_tr'
I1
tp695
a(S'ch_p2'
I1
tp696
a(S'ch_p1'
I1
tp697
a(S'w'
I1
tp698
a(S'ch_no'
I1
tp699
a(S'ch_tr'
I1
tp700
a(S'ch_p2'
I1
tp701
a(S'ch_p1'
I1
tp702
a(S'w'
I696
tp703
a(S'p2_tl'
I226
tp704
a(S'w'
I1463
tp705
a(S'p1_tl'
I225
tp706
a(S'w'
I13
tp707
a(S'p2_tl'
I225
tp708
a(S'w'
I1453
tp709
a(S'p1_tl'
I226
tp710
a(S'w'
I741
tp711
a(S'p2_tl'
I226
tp712
a(S'w'
I753
tp713
a(S'no_vo'
I7
tp714
a(S'w'
I2
tp715
a(S'no_ll'
I1
tp716
a(S'no_ll'
I1
tp717
a(S'w'
I1
tp718
a(S'no_np'
I2
tp719
a(S'w'
I704
tp720
a(S'p1_tl'
I225
tp721
a(S'w'
I13
tp722
a(S'p2_tl'
I227
tp723
a(S'w'
I14
tp724
a(S'no_vo'
I1
tp725
a(S'w'
I2
tp726
a(S'no_ll'
I1
tp727
a(S'no_ll'
I1
tp728
a(S'w'
I1
tp729
a(S'no_np'
I1
tp730
a(S'w'
I716
tp731
a(S'no_vo'
I0
tp732
a(S'w'
I722
tp733
a(S'p1_tl'
I224
tp734
a(S'w'
I738
tp735
a(S'p2_tl'
I226
tp736
a(S'w'
I733
tp737
a(S'p2_du'
I2
tp738
a(S'p2_vo'
I2
tp739
a(S'w'
I732
tp740
a(S'p1_tl'
I225
tp741
a(S'w'
I13
tp742
a(S'p2_tl'
I225
tp743
a(S'w'
I748
tp744
a(S'no_vo'
I7
tp745
a(S'w'
I2
tp746
a(S'no_ll'
I1
tp747
a(S'no_ll'
I1
tp748
a(S'w'
I2
tp749
a(S'no_np'
I2
tp750
a(S'w'
I701
tp751
a(S'p1_tl'
I226
tp752
a(S'w'
I22
tp753
a(S'no_vo'
I1
tp754
a(S'w'
I2
tp755
a(S'no_ll'
I1
tp756
a(S'no_ll'
I1
tp757
a(S'w'
I1
tp758
a(S'no_np'
I1
tp759
a(S'w'
I715
tp760
a(S'p2_tl'
I226
tp761
a(S'w'
I17
tp762
a(S'no_vo'
I0
tp763
a(S'w'
I1444
tp764
a(S'p1_tl'
I225
tp765
a(S'w'
I13
tp766
a(S'p2_tl'
I227
tp767
a(S'w'
I720
tp768
a(S'p1_du'
I2
tp769
a(S'p1_vo'
I1
tp770
a(S'w'
I735
tp771
a(S'p1_tl'
I224
tp772
a(S'w'
I741
tp773
a(S'p2_tl'
I226
tp774
a(S'w'
I22
tp775
a(S'tr_ll'
I1
tp776
a(S'tr_ll'
I1
tp777
a(S'w'
I18
tp778
a(S'ch_no'
I1
tp779
a(S'ch_tr'
I1
tp780
a(S'ch_p2'
I1
tp781
a(S'ch_p1'
I1
tp782
a(S'w'
I1
tp783
a(S'ch_no'
I1
tp784
a(S'ch_tr'
I1
tp785
a(S'ch_p2'
I1
tp786
a(S'ch_p1'
I1
tp787
a(S'w'
I1422
tp788
a(S'p1_tl'
I225
tp789
a(S'w'
I15
tp790
a(S'p2_tl'
I225
tp791
a(S'w'
I1450
tp792
a(S'p1_tl'
I226
tp793
a(S'w'
I743
tp794
a(S'p2_tl'
I226
tp795
a(S'w'
I1458
tp796
a(S'p1_tl'
I225
tp797
a(S'w'
I16
tp798
a(S'p2_tl'
I227
tp799
a(S'w'
I31
tp800
a(S'no_vo'
I7
tp801
a(S'w'
I2
tp802
a(S'no_ll'
I1
tp803
a(S'no_ll'
I1
tp804
a(S'w'
I2
tp805
a(S'no_np'
I2
tp806
a(S'w'
I700
tp807
a(S'no_vo'
I1
tp808
a(S'w'
I2
tp809
a(S'no_ll'
I1
tp810
a(S'no_ll'
I1
tp811
a(S'w'
I1
tp812
a(S'no_np'
I1
tp813
a(S'w'
I714
tp814
a(S'p1_tl'
I224
tp815
a(S'w'
I25
tp816
a(S'no_vo'
I0
tp817
a(S'w'
I716
tp818
a(S'p2_tl'
I226
tp819
a(S'w'
I1462
tp820
a(S'p1_tl'
I225
tp821
a(S'w'
I16
tp822
a(S'p2_tl'
I225
tp823
a(S'w'
I1449
tp824
a(S'p1_tl'
I226
tp825
a(S'w'
I26
tp826
a(S'p2_vo'
I7
tp827
a(S'w'
I12
tp828
a(S'p2_tl'
I201
tp829
a(S'w'
I27
tp830
a(S'no_vo'
I7
tp831
a(S'w'
I2
tp832
a(S'no_ll'
I1
tp833
a(S'no_ll'
I1
tp834
a(S'w'
I1
tp835
a(S'no_np'
I2
tp836
a(S'w'
I671
tp837
a(S'p2_du'
I1
tp838
a(S'p2_vo'
I6
tp839
a(S'w'
I11
tp840
a(S'no_vo'
I1
tp841
a(S'w'
I2
tp842
a(S'no_ll'
I1
tp843
a(S'no_ll'
I1
tp844
a(S'w'
I1
tp845
a(S'no_np'
I1
tp846
a(S'w'
I730
tp847
a(S'no_vo'
I0
tp848
a(S'w'
I719
tp849
a(S'p1_tl'
I225
tp850
a(S'w'
I1467
tp851
a(S'p1_tl'
I224
tp852
a(S'w'
I15
tp853
a(S'p2_du'
I2
tp854
a(S'p2_vo'
I2
tp855
a(S'w'
I1478
tp856
a(S'p1_du'
I1
tp857
a(S'p1_vo'
I8
tp858
a(S'w'
I11
tp859
a(S'p1_ll'
I1
tp860
a(S'p1_th'
I2
tp861
a(S'w'
I1
tp862
a(S'p1_ll'
I1
tp863
a(S'w'
I1
tp864
a(S'p1_tl'
I27
tp865
a(S'w'
I18
tp866
a(S'p2_vo'
I7
tp867
a(S'w'
I13
tp868
a(S'p2_tl'
I190
tp869
a(S'w'
I17
tp870
a(S'tr_ll'
I1
tp871
a(S'tr_ll'
I1
tp872
a(S'w'
I18
tp873
a(S'ch_no'
I1
tp874
a(S'ch_tr'
I1
tp875
a(S'ch_p2'
I1
tp876
a(S'ch_p1'
I1
tp877
a(S'w'
I1
tp878
a(S'ch_no'
I1
tp879
a(S'ch_tr'
I1
tp880
a(S'ch_p2'
I1
tp881
a(S'ch_p1'
I1
tp882
a(S'w'
I628
tp883
a(S'p1_vo'
I7
tp884
a(S'w'
I7
tp885
a(S'p2_du'
I1
tp886
a(S'p2_vo'
I6
tp887
a(S'w'
I726
tp888
a(S'p1_vo'
I6
tp889
a(S'w'
I733
tp890
a(S'p1_vo'
I5
tp891
a(S'w'
I1475
tp892
a(S'w'
I4
tp893
a(S'p1_du'
I0
tp894
a(S'p1_vo'
I2
tp895
a(S'w'
I1466
tp896
a(S'p1_du'
I1
tp897
a(S'p1_vo'
I8
tp898
a(S'w'
I11
tp899
a(S'p1_ll'
I1
tp900
a(S'p1_th'
I1
tp901
a(S'p1_ll'
I1
tp902
a(S'w'
I2
tp903
a(S'p1_tl'
I252
tp904
a(S'w'
I18
tp905
a(S'ch_no'
I1
tp906
a(S'ch_tr'
I1
tp907
a(S'ch_p2'
I1
tp908
a(S'ch_p1'
I1
tp909
a(S'w'
I1
tp910
a(S'ch_no'
I1
tp911
a(S'ch_tr'
I1
tp912
a(S'ch_p2'
I1
tp913
a(S'ch_p1'
I1
tp914
a(S'w'
I16
tp915
a(S'no_vo'
I7
tp916
a(S'w'
I2
tp917
a(S'no_ll'
I1
tp918
a(S'no_ll'
I1
tp919
a(S'w'
I1
tp920
a(S'no_np'
I15
tp921
a(S'w'
I674
tp922
a(S'p1_vo'
I7
tp923
a(S'w'
I16
tp924
a(S'no_vo'
I5
tp925
a(S'w'
I2
tp926
a(S'no_ll'
I1
tp927
a(S'no_ll'
I1
tp928
a(S'w'
I2
tp929
a(S'no_np'
I13
tp930
a(S'w'
I713
tp931
a(S'p1_vo'
I6
tp932
a(S'w'
I16
tp933
a(S'no_vo'
I3
tp934
a(S'w'
I2
tp935
a(S'no_ll'
I1
tp936
a(S'no_ll'
I1
tp937
a(S'w'
I1
tp938
a(S'no_np'
I8
tp939
a(S'w'
I715
tp940
a(S'p1_vo'
I5
tp941
a(S'w'
I16
tp942
a(S'no_vo'
I2
tp943
a(S'w'
I2
tp944
a(S'no_ll'
I1
tp945
a(S'no_ll'
I1
tp946
a(S'w'
I1
tp947
a(S'no_np'
I6
tp948
a(S'w'
I729
tp949
a(S'no_vo'
I1
tp950
a(S'w'
I2
tp951
a(S'no_ll'
I1
tp952
a(S'w'
I1
tp953
a(S'no_ll'
I1
tp954
a(S'w'
I1
tp955
a(S'w'
I723
tp956
a(S'p1_ll'
I1
tp957
a(S'p1_th'
I2
tp958
a(S'p1_ll'
I1
tp959
a(S'w'
I1
tp960
a(S'p1_tl'
I27
tp961
a(S'w'
I4
tp962
a(S'p1_du'
I0
tp963
a(S'p1_vo'
I2
tp964
a(S'w'
I17
tp965
a(S'no_vo'
I0
tp966
a(S'w'
I1447
tp967
a(S'p1_du'
I1
tp968
a(S'p1_vo'
I8
tp969
a(S'w'
I12
tp970
a(S'p1_ll'
I1
tp971
a(S'p1_th'
I1
tp972
a(S'p1_ll'
I1
tp973
a(S'w'
I1
tp974
a(S'p1_tl'
I197
tp975
a(S'w'
I19
tp976
a(S'ch_no'
I1
tp977
a(S'ch_tr'
I1
tp978
a(S'ch_p2'
I1
tp979
a(S'ch_p1'
I1
tp980
a(S'w'
I1
tp981
a(S'ch_no'
I1
tp982
a(S'ch_tr'
I1
tp983
a(S'ch_p2'
I1
tp984
a(S'ch_p1'
I1
tp985
a(S'w'
I15
tp986
a(S'no_vo'
I7
tp987
a(S'w'
I2
tp988
a(S'no_ll'
I1
tp989
a(S'w'
I1
tp990
a(S'no_ll'
I1
tp991
a(S'w'
I1
tp992
a(S'no_np'
I15
tp993
a(S'w'
I674
tp994
a(S'p1_vo'
I7
tp995
a(S'w'
I16
tp996
a(S'no_vo'
I5
tp997
a(S'w'
I2
tp998
a(S'no_ll'
I1
tp999
a(S'no_ll'
I1
tp1000
a(S'w'
I2
tp1001
a(S'no_np'
I13
tp1002
a(S'w'
I713
tp1003
a(S'p1_vo'
I6
tp1004
a(S'w'
I16
tp1005
a(S'no_vo'
I3
tp1006
a(S'w'
I2
tp1007
a(S'no_ll'
I1
tp1008
a(S'no_ll'
I1
tp1009
a(S'w'
I2
tp1010
a(S'no_np'
I8
tp1011
a(S'w'
I713
tp1012
a(S'p1_vo'
I5
tp1013
a(S'w'
I16
tp1014
a(S'no_vo'
I2
tp1015
a(S'w'
I2
tp1016
a(S'no_ll'
I1
tp1017
a(S'no_ll'
I1
tp1018
a(S'w'
I1
tp1019
a(S'no_np'
I6
tp1020
a(S'w'
I729
tp1021
a(S'no_vo'
I1
tp1022
a(S'w'
I2
tp1023
a(S'no_ll'
I1
tp1024
a(S'w'
I1
tp1025
a(S'no_ll'
I1
tp1026
a(S'w'
I1
tp1027
a(S'w'
I723
tp1028
a(S'p1_ll'
I1
tp1029
a(S'p1_th'
I2
tp1030
a(S'p1_ll'
I1
tp1031
a(S'w'
I1
tp1032
a(S'p1_tl'
I27
tp1033
a(S'w'
I4
tp1034
a(S'p1_du'
I0
tp1035
a(S'p1_vo'
I2
tp1036
a(S'w'
I16
tp1037
a(S'no_vo'
I0
tp1038
a(S'w'
I1451
tp1039
a(S'p1_du'
I1
tp1040
a(S'p1_vo'
I8
tp1041
a(S'w'
I12
tp1042
a(S'p1_ll'
I1
tp1043
a(S'p1_th'
I1
tp1044
a(S'p1_ll'
I1
tp1045
a(S'w'
I1
tp1046
a(S'p1_tl'
I147
tp1047
a(S'w'
I24
tp1048
a(S'tr_ll'
I1
tp1049
a(S'tr_ll'
I1
tp1050
a(S'w'
I11
tp1051
a(S'ch_no'
I1
tp1052
a(S'ch_tr'
I1
tp1053
a(S'ch_p2'
I1
tp1054
a(S'ch_p1'
I1
tp1055
a(S'w'
I1
tp1056
a(S'ch_no'
I1
tp1057
a(S'ch_tr'
I1
tp1058
a(S'ch_p2'
I1
tp1059
a(S'ch_p1'
I1
tp1060
a(S'w'
I16
tp1061
a(S'no_vo'
I7
tp1062
a(S'w'
I2
tp1063
a(S'no_ll'
I1
tp1064
a(S'no_ll'
I1
tp1065
a(S'w'
I1
tp1066
a(S'no_np'
I15
tp1067
a(S'w'
I655
tp1068
a(S'p1_vo'
I7
tp1069
a(S'w'
I16
tp1070
a(S'no_vo'
I5
tp1071
a(S'w'
I2
tp1072
a(S'no_ll'
I1
tp1073
a(S'no_ll'
I1
tp1074
a(S'w'
I2
tp1075
a(S'no_np'
I13
tp1076
a(S'w'
I713
tp1077
a(S'p1_vo'
I6
tp1078
a(S'w'
I16
tp1079
a(S'no_vo'
I3
tp1080
a(S'w'
I2
tp1081
a(S'no_ll'
I1
tp1082
a(S'no_ll'
I1
tp1083
a(S'w'
I1
tp1084
a(S'no_np'
I8
tp1085
a(S'w'
I715
tp1086
a(S'p1_vo'
I5
tp1087
a(S'w'
I16
tp1088
a(S'no_vo'
I2
tp1089
a(S'w'
I2
tp1090
a(S'no_ll'
I1
tp1091
a(S'no_ll'
I1
tp1092
a(S'w'
I1
tp1093
a(S'no_np'
I6
tp1094
a(S'w'
I729
tp1095
a(S'no_vo'
I1
tp1096
a(S'w'
I2
tp1097
a(S'no_ll'
I1
tp1098
a(S'w'
I1
tp1099
a(S'no_ll'
I1
tp1100
a(S'w'
I1
tp1101
a(S'w'
I722
tp1102
a(S'p1_ll'
I1
tp1103
a(S'p1_th'
I2
tp1104
a(S'p1_ll'
I1
tp1105
a(S'w'
I1
tp1106
a(S'p1_tl'
I27
tp1107
a(S'w'
I4
tp1108
a(S'p1_du'
I0
tp1109
a(S'p1_vo'
I2
tp1110
a(S'w'
I16
tp1111
a(S'no_vo'
I0
tp1112
a(S'w'
I1449
tp1113
a(S'p1_du'
I1
tp1114
a(S'p1_vo'
I8
tp1115
a(S'w'
I12
tp1116
a(S'p1_ll'
I1
tp1117
a(S'p1_th'
I1
tp1118
a(S'p1_ll'
I1
tp1119
a(S'w'
I2
tp1120
a(S'p1_tl'
I125
tp1121
a(S'w'
I11
tp1122
a(S'w'
I15
tp1123
a(S'ch_no'
I1
tp1124
a(S'ch_tr'
I1
tp1125
a(S'ch_p2'
I1
tp1126
a(S'ch_p1'
I1
tp1127
a(S'w'
I1
tp1128
a(S'ch_no'
I1
tp1129
a(S'ch_tr'
I1
tp1130
a(S'ch_p2'
I1
tp1131
a(S'ch_p1'
I1
tp1132
a(S'w'
I16
tp1133
a(S'no_vo'
I7
tp1134
a(S'w'
I2
tp1135
a(S'no_ll'
I1
tp1136
a(S'no_ll'
I1
tp1137
a(S'w'
I1
tp1138
a(S'no_np'
I15
tp1139
a(S'w'
I666
tp1140
a(S'p1_vo'
I7
tp1141
a(S'w'
I16
tp1142
a(S'no_vo'
I5
tp1143
a(S'w'
I2
tp1144
a(S'no_ll'
I1
tp1145
a(S'no_ll'
I1
tp1146
a(S'w'
I2
tp1147
a(S'no_np'
I13
tp1148
a(S'w'
I713
tp1149
a(S'p1_vo'
I6
tp1150
a(S'w'
I10
tp1151
a(S'p2_tl'
I191
tp1152
a(S'w'
I13
tp1153
a(S'no_vo'
I3
tp1154
a(S'w'
I2
tp1155
a(S'no_ll'
I1
tp1156
a(S'no_ll'
I1
tp1157
a(S'w'
I1
tp1158
a(S'no_np'
I8
tp1159
a(S'w'
I708
tp1160
a(S'p1_vo'
I5
tp1161
a(S'w'
I16
tp1162
a(S'no_vo'
I2
tp1163
a(S'w'
I2
tp1164
a(S'no_ll'
I1
tp1165
a(S'no_ll'
I1
tp1166
a(S'w'
I1
tp1167
a(S'no_np'
I6
tp1168
a(S'w'
I728
tp1169
a(S'no_vo'
I1
tp1170
a(S'w'
I2
tp1171
a(S'no_ll'
I1
tp1172
a(S'no_ll'
I1
tp1173
a(S'w'
I2
tp1174
a(S'w'
I722
tp1175
a(S'p1_ll'
I1
tp1176
a(S'p1_th'
I2
tp1177
a(S'p1_ll'
I1
tp1178
a(S'w'
I1
tp1179
a(S'p1_tl'
I27
tp1180
a(S'w'
I4
tp1181
a(S'p1_du'
I0
tp1182
a(S'p1_vo'
I2
tp1183
a(S'w'
I10
tp1184
a(S'p2_tl'
I190
tp1185
a(S'w'
I7
tp1186
a(S'p2_du'
I2
tp1187
a(S'p2_vo'
I2
tp1188
a(S'w'
I10
tp1189
a(S'no_vo'
I0
tp1190
a(S'w'
I1439
tp1191
a(S'p1_du'
I1
tp1192
a(S'p1_vo'
I8
tp1193
a(S'w'
I12
tp1194
a(S'p1_ll'
I1
tp1195
a(S'p1_th'
I1
tp1196
a(S'w'
I1
tp1197
a(S'p1_ll'
I1
tp1198
a(S'w'
I1
tp1199
a(S'p1_tl'
I83
tp1200
a(S'w'
I11
tp1201
a(S'p2_tl'
I189
tp1202
a(S'w'
I17
tp1203
a(S'ch_no'
I1
tp1204
a(S'ch_tr'
I1
tp1205
a(S'ch_p2'
I1
tp1206
a(S'ch_p1'
I1
tp1207
a(S'w'
I1
tp1208
a(S'ch_no'
I1
tp1209
a(S'ch_tr'
I1
tp1210
a(S'ch_p2'
I1
tp1211
a(S'ch_p1'
I1
tp1212
a(S'w'
I16
tp1213
a(S'no_vo'
I7
tp1214
a(S'w'
I2
tp1215
a(S'no_ll'
I1
tp1216
a(S'no_ll'
I1
tp1217
a(S'w'
I1
tp1218
a(S'no_np'
I15
tp1219
a(S'w'
I664
tp1220
a(S'p1_vo'
I7
tp1221
a(S'w'
I19
tp1222
a(S'no_vo'
I5
tp1223
a(S'w'
I2
tp1224
a(S'no_ll'
I1
tp1225
a(S'no_ll'
I1
tp1226
a(S'w'
I1
tp1227
a(S'no_np'
I13
tp1228
a(S'w'
I710
tp1229
a(S'p1_vo'
I6
tp1230
a(S'w'
I19
tp1231
a(S'no_vo'
I3
tp1232
a(S'w'
I2
tp1233
a(S'no_ll'
I1
tp1234
a(S'no_ll'
I1
tp1235
a(S'w'
I1
tp1236
a(S'no_np'
I8
tp1237
a(S'w'
I712
tp1238
a(S'p1_vo'
I5
tp1239
a(S'w'
I12
tp1240
a(S'p2_tl'
I190
tp1241
a(S'w'
I16
tp1242
a(S'no_vo'
I2
tp1243
a(S'w'
I2
tp1244
a(S'no_ll'
I1
tp1245
a(S'no_ll'
I1
tp1246
a(S'w'
I1
tp1247
a(S'no_np'
I6
tp1248
a(S'w'
I720
tp1249
a(S'no_vo'
I1
tp1250
a(S'w'
I2
tp1251
a(S'no_ll'
I1
tp1252
a(S'no_ll'
I1
tp1253
a(S'w'
I1
tp1254
a(S'w'
I721
tp1255
a(S'p1_tl'
I197
tp1256
a(S'w'
I4
tp1257
a(S'p1_du'
I0
tp1258
a(S'p1_vo'
I2
tp1259
a(S'w'
I9
tp1260
a(S'p2_tl'
I191
tp1261
a(S'w'
I17
tp1262
a(S'no_vo'
I0
tp1263
a(S'w'
I1443
tp1264
a(S'p1_vo'
I8
tp1265
a(S'w'
I13
tp1266
a(S'p1_tl'
I46
tp1267
a(S'w'
I32
tp1268
a(S'p2_du'
I0
tp1269
a(S'p2_vo'
I9
tp1270
a(S'w'
I11
tp1271
a(S'p2_ll'
I1
tp1272
a(S'p2_th'
I1
tp1273
a(S'p2_ll'
I1
tp1274
a(S'w'
I1
tp1275
a(S'p2_tl'
I197
tp1276
a(S'w'
I10
tp1277
a(S'tr_lr'
I19
tp1278
a(S'w'
I6
tp1279
a(S'tr_ll'
I1
tp1280
a(S'tr_th'
I1
tp1281
a(S'tr_ll'
I1
tp1282
a(S'w'
I1
tp1283
a(S'tr_tl'
I197
tp1284
a(S'w'
I10
tp1285
a(S'ch_no'
I1
tp1286
a(S'ch_tr'
I1
tp1287
a(S'ch_p2'
I1
tp1288
a(S'ch_p1'
I1
tp1289
a(S'w'
I1
tp1290
a(S'ch_no'
I1
tp1291
a(S'ch_tr'
I1
tp1292
a(S'ch_p2'
I1
tp1293
a(S'ch_p1'
I1
tp1294
a(S'w'
I637
tp1295
a(S'p1_du'
I1
tp1296
a(S'p1_vo'
I7
tp1297
a(S'w'
I8
tp1298
a(S'p2_du'
I1
tp1299
a(S'p2_vo'
I8
tp1300
a(S'w'
I726
tp1301
a(S'p1_vo'
I6
tp1302
a(S'w'
I8
tp1303
a(S'p2_vo'
I7
tp1304
a(S'w'
I726
tp1305
a(S'p1_vo'
I5
tp1306
a(S'w'
I8
tp1307
a(S'p2_vo'
I6
tp1308
a(S'w'
I1466
tp1309
a(S'p1_tl'
I147
tp1310
a(S'w'
I4
tp1311
a(S'p1_du'
I0
tp1312
a(S'p1_vo'
I2
tp1313
a(S'w'
I16
tp1314
a(S'w'
I4
tp1315
a(S'p2_du'
I0
tp1316
a(S'p2_vo'
I2
tp1317
a(S'w'
I1446
tp1318
a(S'p1_vo'
I8
tp1319
a(S'w'
I12
tp1320
a(S'p1_tl'
I13
tp1321
a(S'w'
I21
tp1322
a(S'p2_vo'
I9
tp1323
a(S'w'
I12
tp1324
a(S'p2_tl'
I147
tp1325
a(S'w'
I14
tp1326
a(S'tr_ll'
I1
tp1327
a(S'w'
I1
tp1328
a(S'tr_ll'
I1
tp1329
a(S'w'
I1
tp1330
a(S'tr_tl'
I147
tp1331
a(S'w'
I10
tp1332
a(S'ch_no'
I1
tp1333
a(S'ch_tr'
I1
tp1334
a(S'ch_p2'
I1
tp1335
a(S'ch_p1'
I1
tp1336
a(S'w'
I1
tp1337
a(S'ch_no'
I1
tp1338
a(S'ch_tr'
I1
tp1339
a(S'ch_p2'
I1
tp1340
a(S'ch_p1'
I1
tp1341
a(S'w'
I653
tp1342
a(S'p1_du'
I1
tp1343
a(S'p1_vo'
I7
tp1344
a(S'w'
I8
tp1345
a(S'p2_du'
I1
tp1346
a(S'p2_vo'
I8
tp1347
a(S'w'
I725
tp1348
a(S'p1_vo'
I6
tp1349
a(S'w'
I8
tp1350
a(S'p2_vo'
I7
tp1351
a(S'w'
I726
tp1352
a(S'p1_vo'
I5
tp1353
a(S'w'
I8
tp1354
a(S'p2_vo'
I6
tp1355
a(S'w'
I1467
tp1356
a(S'p1_tl'
I147
tp1357
a(S'w'
I4
tp1358
a(S'p1_du'
I0
tp1359
a(S'p1_vo'
I2
tp1360
a(S'w'
I16
tp1361
a(S'p2_tl'
I197
tp1362
a(S'w'
I4
tp1363
a(S'p2_du'
I0
tp1364
a(S'p2_vo'
I2
tp1365
a(S'w'
I1445
tp1366
a(S'p1_vo'
I8
tp1367
a(S'w'
I12
tp1368
a(S'p1_ll'
I1
tp1369
a(S'p1_th'
I0
tp1370
a(S'p1_ll'
I1
tp1371
a(S'w'
I2
tp1372
a(S'p1_tl'
I254
tp1373
a(S'w'
I19
tp1374
a(S'p2_vo'
I9
tp1375
a(S'w'
I12
tp1376
a(S'p2_tl'
I125
tp1377
a(S'w'
I13
tp1378
a(S'tr_ll'
I1
tp1379
a(S'tr_ll'
I1
tp1380
a(S'w'
I1
tp1381
a(S'tr_tl'
I125
tp1382
a(S'w'
I10
tp1383
a(S'ch_no'
I1
tp1384
a(S'ch_tr'
I1
tp1385
a(S'ch_p2'
I1
tp1386
a(S'ch_p1'
I1
tp1387
a(S'w'
I1
tp1388
a(S'ch_no'
I1
tp1389
a(S'ch_tr'
I1
tp1390
a(S'ch_p2'
I1
tp1391
a(S'ch_p1'
I1
tp1392
a(S'w'
I655
tp1393
a(S'p1_du'
I1
tp1394
a(S'p1_vo'
I7
tp1395
a(S'w'
I8
tp1396
a(S'p2_du'
I1
tp1397
a(S'p2_vo'
I8
tp1398
a(S'w'
I726
tp1399
a(S'p1_vo'
I6
tp1400
a(S'w'
I8
tp1401
a(S'p2_vo'
I7
tp1402
a(S'w'
I726
tp1403
a(S'p1_vo'
I5
tp1404
a(S'w'
I8
tp1405
a(S'p2_vo'
I6
tp1406
a(S'w'
I1466
tp1407
a(S'p1_ll'
I1
tp1408
a(S'p1_th'
I1
tp1409
a(S'p1_ll'
I1
tp1410
a(S'w'
I1
tp1411
a(S'p1_tl'
I83
tp1412
a(S'w'
I4
tp1413
a(S'p1_du'
I0
tp1414
a(S'p1_vo'
I2
tp1415
a(S'w'
I15
tp1416
a(S'p2_tl'
I197
tp1417
a(S'w'
I4
tp1418
a(S'p2_du'
I0
tp1419
a(S'p2_vo'
I2
tp1420
a(S'w'
I1446
tp1421
a(S'p1_vo'
I8
tp1422
a(S'w'
I12
tp1423
a(S'p1_ll'
I1
tp1424
a(S'p1_th'
I0
tp1425
a(S'p1_ll'
I1
tp1426
a(S'w'
I1
tp1427
a(S'p1_tl'
I226
tp1428
a(S'w'
I19
tp1429
a(S'p2_vo'
I9
tp1430
a(S'w'
I12
tp1431
a(S'p2_tl'
I83
tp1432
a(S'w'
I13
tp1433
a(S'tr_ll'
I1
tp1434
a(S'tr_ll'
I1
tp1435
a(S'w'
I1
tp1436
a(S'tr_tl'
I83
tp1437
a(S'w'
I10
tp1438
a(S'ch_no'
I1
tp1439
a(S'ch_tr'
I1
tp1440
a(S'ch_p2'
I1
tp1441
a(S'ch_p1'
I1
tp1442
a(S'w'
I1
tp1443
a(S'ch_no'
I1
tp1444
a(S'ch_tr'
I1
tp1445
a(S'ch_p2'
I1
tp1446
a(S'ch_p1'
I1
tp1447
a(S'w'
I656
tp1448
a(S'p1_du'
I1
tp1449
a(S'p1_vo'
I7
tp1450
a(S'w'
I7
tp1451
a(S'p2_du'
I1
tp1452
a(S'p2_vo'
I8
tp1453
a(S'w'
I726
tp1454
a(S'p1_vo'
I6
tp1455
a(S'w'
I8
tp1456
a(S'p2_vo'
I7
tp1457
a(S'w'
I726
tp1458
a(S'p1_vo'
I5
tp1459
a(S'w'
I8
tp1460
a(S'p2_vo'
I6
tp1461
a(S'w'
I1466
tp1462
a(S'p1_ll'
I1
tp1463
a(S'p1_th'
I1
tp1464
a(S'w'
I1
tp1465
a(S'p1_ll'
I1
tp1466
a(S'w'
I1
tp1467
a(S'p1_tl'
I46
tp1468
a(S'w'
I4
tp1469
a(S'p1_du'
I0
tp1470
a(S'p1_vo'
I2
tp1471
a(S'w'
I15
tp1472
a(S'p2_tl'
I147
tp1473
a(S'w'
I4
tp1474
a(S'p2_du'
I0
tp1475
a(S'p2_vo'
I2
tp1476
a(S'w'
I1447
tp1477
a(S'p1_vo'
I8
tp1478
a(S'w'
I13
tp1479
a(S'p1_ll'
I1
tp1480
a(S'p1_th'
I0
tp1481
a(S'p1_ll'
I1
tp1482
a(S'w'
I1
tp1483
a(S'p1_tl'
I201
tp1484
a(S'w'
I19
tp1485
a(S'p2_vo'
I9
tp1486
a(S'w'
I13
tp1487
a(S'p2_tl'
I46
tp1488
a(S'w'
I12
tp1489
a(S'tr_ll'
I1
tp1490
a(S'w'
I1
tp1491
a(S'tr_ll'
I1
tp1492
a(S'w'
I1
tp1493
a(S'tr_tl'
I46
tp1494
a(S'w'
I10
tp1495
a(S'ch_no'
I1
tp1496
a(S'ch_tr'
I1
tp1497
a(S'ch_p2'
I1
tp1498
a(S'ch_p1'
I1
tp1499
a(S'w'
I1
tp1500
a(S'ch_no'
I1
tp1501
a(S'ch_tr'
I1
tp1502
a(S'ch_p2'
I1
tp1503
a(S'ch_p1'
I1
tp1504
a(S'w'
I652
tp1505
a(S'p1_du'
I1
tp1506
a(S'p1_vo'
I7
tp1507
a(S'w'
I7
tp1508
a(S'p2_du'
I1
tp1509
a(S'p2_vo'
I8
tp1510
a(S'w'
I727
tp1511
a(S'p1_vo'
I6
tp1512
a(S'w'
I8
tp1513
a(S'p2_vo'
I7
tp1514
a(S'w'
I726
tp1515
a(S'p1_vo'
I5
tp1516
a(S'w'
I8
tp1517
a(S'p2_vo'
I6
tp1518
a(S'w'
I1465
tp1519
a(S'p1_ll'
I1
tp1520
a(S'p1_th'
I1
tp1521
a(S'w'
I1
tp1522
a(S'p1_ll'
I1
tp1523
a(S'w'
I1
tp1524
a(S'p1_tl'
I46
tp1525
a(S'w'
I4
tp1526
a(S'p1_du'
I0
tp1527
a(S'p1_vo'
I2
tp1528
a(S'w'
I15
tp1529
a(S'p2_tl'
I125
tp1530
a(S'w'
I4
tp1531
a(S'p2_du'
I0
tp1532
a(S'p2_vo'
I2
tp1533
a(S'w'
I1447
tp1534
a(S'p1_vo'
I8
tp1535
a(S'w'
I12
tp1536
a(S'p1_ll'
I1
tp1537
a(S'p1_th'
I0
tp1538
a(S'p1_ll'
I1
tp1539
a(S'w'
I1
tp1540
a(S'p1_tl'
I179
tp1541
a(S'w'
I19
tp1542
a(S'p2_vo'
I9
tp1543
a(S'w'
I13
tp1544
a(S'p2_tl'
I13
tp1545
a(S'w'
I12
tp1546
a(S'tr_ll'
I1
tp1547
a(S'tr_ll'
I1
tp1548
a(S'w'
I2
tp1549
a(S'tr_tl'
I13
tp1550
a(S'w'
I10
tp1551
a(S'ch_no'
I1
tp1552
a(S'ch_tr'
I1
tp1553
a(S'ch_p2'
I1
tp1554
a(S'ch_p1'
I1
tp1555
a(S'w'
I1
tp1556
a(S'ch_no'
I1
tp1557
a(S'ch_tr'
I1
tp1558
a(S'ch_p2'
I1
tp1559
a(S'ch_p1'
I1
tp1560
a(S'w'
I654
tp1561
a(S'p1_du'
I1
tp1562
a(S'p1_vo'
I7
tp1563
a(S'w'
I7
tp1564
a(S'p2_du'
I1
tp1565
a(S'p2_vo'
I8
tp1566
a(S'w'
I727
tp1567
a(S'p1_vo'
I6
tp1568
a(S'w'
I8
tp1569
a(S'p2_vo'
I7
tp1570
a(S'w'
I725
tp1571
a(S'p1_vo'
I5
tp1572
a(S'w'
I8
tp1573
a(S'p2_vo'
I6
tp1574
a(S'w'
I1467
tp1575
a(S'p1_tl'
I254
tp1576
a(S'w'
I4
tp1577
a(S'p1_du'
I0
tp1578
a(S'p1_vo'
I2
tp1579
a(S'w'
I15
tp1580
a(S'p2_tl'
I83
tp1581
a(S'w'
I4
tp1582
a(S'p2_du'
I0
tp1583
a(S'p2_vo'
I2
tp1584
a(S'w'
I1472
tp1585
a(S'p1_du'
I1
tp1586
a(S'w'
I11
tp1587
a(S'p1_ll'
I1
tp1588
a(S'p1_th'
I1
tp1589
a(S'p1_ll'
I1
tp1590
a(S'w'
I1
tp1591
a(S'p1_tl'
I83
tp1592
a(S'w'
I35
tp1593
a(S'p2_du'
I1
tp1594
a(S'p2_vo'
I8
tp1595
a(S'w'
I8
tp1596
a(S'p2_ll'
I1
tp1597
a(S'p2_th'
I0
tp1598
a(S'p2_ll'
I1
tp1599
a(S'w'
I2
tp1600
a(S'p2_tl'
I254
tp1601
a(S'w'
I23
tp1602
a(S'tr_lr'
I38
tp1603
a(S'w'
I5
tp1604
a(S'tr_ll'
I1
tp1605
a(S'w'
I1
tp1606
a(S'tr_ll'
I1
tp1607
a(S'w'
I1
tp1608
a(S'tr_tl'
I252
tp1609
a(S'w'
I18
tp1610
a(S'ch_no'
I1
tp1611
a(S'ch_tr'
I1
tp1612
a(S'ch_p2'
I1
tp1613
a(S'ch_p1'
I1
tp1614
a(S'w'
I1
tp1615
a(S'ch_no'
I1
tp1616
a(S'ch_tr'
I1
tp1617
a(S'ch_p2'
I1
tp1618
a(S'ch_p1'
I1
tp1619
a(S'w'
I16
tp1620
a(S'no_vo'
I7
tp1621
a(S'w'
I2
tp1622
a(S'no_ll'
I1
tp1623
a(S'no_ll'
I1
tp1624
a(S'w'
I1
tp1625
a(S'no_np'
I2
tp1626
a(S'w'
I577
tp1627
a(S'p1_du'
I2
tp1628
a(S'p1_vo'
I3
tp1629
a(S'w'
I7
tp1630
a(S'p2_du'
I2
tp1631
a(S'p2_vo'
I7
tp1632
a(S'w'
I10
tp1633
a(S'no_vo'
I1
tp1634
a(S'w'
I2
tp1635
a(S'no_ll'
I1
tp1636
a(S'no_ll'
I1
tp1637
a(S'w'
I1
tp1638
a(S'no_np'
I1
tp1639
a(S'w'
I714
tp1640
a(S'p1_vo'
I2
tp1641
a(S'w'
I7
tp1642
a(S'p2_vo'
I6
tp1643
a(S'w'
I10
tp1644
a(S'no_vo'
I0
tp1645
a(S'w'
I3677
tp1646
a(S'no_vo'
I7
tp1647
a(S'w'
I2
tp1648
a(S'no_ll'
I1
tp1649
a(S'no_ll'
I1
tp1650
a(S'w'
I1
tp1651
a(S'no_np'
I2
tp1652
a(S'w'
I715
tp1653
a(S'no_vo'
I1
tp1654
a(S'w'
I2
tp1655
a(S'no_ll'
I1
tp1656
a(S'no_ll'
I1
tp1657
a(S'w'
I1
tp1658
a(S'no_np'
I1
tp1659
a(S'w'
I731
tp1660
a(S'no_vo'
I0
tp1661
a(S'w'
I3658
tp1662
a(S'w'
I15
tp1663
a(S'tr_lr'
I19
tp1664
a(S'w'
I6
tp1665
a(S'tr_ll'
I1
tp1666
a(S'tr_ll'
I1
tp1667
a(S'w'
I26
tp1668
a(S'no_vo'
I7
tp1669
a(S'w'
I2
tp1670
a(S'no_ll'
I1
tp1671
a(S'no_ll'
I1
tp1672
a(S'w'
I1
tp1673
a(S'no_np'
I2
tp1674
a(S'w'
I695
tp1675
a(S'no_vo'
I1
tp1676
a(S'w'
I2
tp1677
a(S'no_ll'
I1
tp1678
a(S'no_ll'
I1
tp1679
a(S'w'
I1
tp1680
a(S'no_np'
I1
tp1681
a(S'w'
I719
tp1682
a(S'p1_tl'
I84
tp1683
a(S'w'
I19
tp1684
a(S'no_vo'
I0
tp1685
a(S'w'
I2183
tp1686
a(S'p1_tl'
I83
tp1687
a(S'w'
I1476
tp1688
a(S'p1_du'
I1
tp1689
a(S'w'
I11
tp1690
a(S'p1_tl'
I252
tp1691
a(S'w'
I18
tp1692
a(S'tr_ll'
I1
tp1693
a(S'tr_ll'
I1
tp1694
a(S'w'
I11
tp1695
a(S'ch_no'
I1
tp1696
a(S'ch_tr'
I1
tp1697
a(S'ch_p2'
I1
tp1698
a(S'ch_p1'
I1
tp1699
a(S'w'
I1
tp1700
a(S'ch_no'
I1
tp1701
a(S'ch_tr'
I1
tp1702
a(S'ch_p2'
I1
tp1703
a(S'ch_p1'
I1
tp1704
a(S'w'
I16
tp1705
a(S'no_vo'
I7
tp1706
a(S'w'
I2
tp1707
a(S'no_ll'
I1
tp1708
a(S'no_ll'
I1
tp1709
a(S'w'
I1
tp1710
a(S'no_np'
I15
tp1711
a(S'w'
I668
tp1712
a(S'p1_du'
I2
tp1713
a(S'p1_vo'
I3
tp1714
a(S'w'
I15
tp1715
a(S'no_vo'
I5
tp1716
a(S'w'
I2
tp1717
a(S'no_ll'
I1
tp1718
a(S'no_ll'
I1
tp1719
a(S'w'
I2
tp1720
a(S'no_np'
I13
tp1721
a(S'w'
I713
tp1722
a(S'p1_vo'
I2
tp1723
a(S'w'
I16
tp1724
a(S'no_vo'
I3
tp1725
a(S'w'
I2
tp1726
a(S'no_ll'
I1
tp1727
a(S'no_ll'
I1
tp1728
a(S'w'
I1
tp1729
a(S'no_np'
I8
tp1730
a(S'w'
I728
tp1731
a(S'no_vo'
I2
tp1732
a(S'w'
I2
tp1733
a(S'no_ll'
I1
tp1734
a(S'no_ll'
I1
tp1735
a(S'w'
I1
tp1736
a(S'no_np'
I6
tp1737
a(S'w'
I727
tp1738
a(S'no_vo'
I1
tp1739
a(S'w'
I2
tp1740
a(S'no_ll'
I1
tp1741
a(S'no_ll'
I1
tp1742
a(S'w'
I1
tp1743
a(S'w'
I734
tp1744
a(S'no_vo'
I0
tp1745
a(S'w'
I1463
tp1746
a(S'p1_du'
I1
tp1747
a(S'w'
I12
tp1748
a(S'p1_tl'
I147
tp1749
a(S'w'
I19
tp1750
a(S'tr_ll'
I1
tp1751
a(S'tr_ll'
I1
tp1752
a(S'w'
I2
tp1753
a(S'tr_tl'
I83
tp1754
a(S'w'
I24
tp1755
a(S'no_vo'
I7
tp1756
a(S'w'
I2
tp1757
a(S'no_ll'
I1
tp1758
a(S'no_ll'
I1
tp1759
a(S'w'
I1
tp1760
a(S'no_np'
I2
tp1761
a(S'w'
I665
tp1762
a(S'p1_du'
I2
tp1763
a(S'p1_vo'
I3
tp1764
a(S'w'
I16
tp1765
a(S'no_vo'
I1
tp1766
a(S'w'
I2
tp1767
a(S'no_ll'
I1
tp1768
a(S'no_ll'
I1
tp1769
a(S'w'
I1
tp1770
a(S'no_np'
I1
tp1771
a(S'w'
I715
tp1772
a(S'p1_vo'
I2
tp1773
a(S'w'
I16
tp1774
a(S'no_vo'
I0
tp1775
a(S'w'
I3660
tp1776
a(S'p1_du'
I1
tp1777
a(S'w'
I11
tp1778
a(S'p1_tl'
I83
tp1779
a(S'w'
I18
tp1780
a(S'tr_ll'
I1
tp1781
a(S'tr_th'
I0
tp1782
a(S'tr_ll'
I1
tp1783
a(S'w'
I1
tp1784
a(S'tr_tl'
I254
tp1785
a(S'w'
I10
tp1786
a(S'ch_no'
I1
tp1787
a(S'ch_tr'
I1
tp1788
a(S'ch_p2'
I1
tp1789
a(S'ch_p1'
I1
tp1790
a(S'w'
I1
tp1791
a(S'ch_no'
I1
tp1792
a(S'ch_tr'
I1
tp1793
a(S'ch_p2'
I1
tp1794
a(S'ch_p1'
I1
tp1795
a(S'w'
I16
tp1796
a(S'no_vo'
I7
tp1797
a(S'w'
I2
tp1798
a(S'no_ll'
I1
tp1799
a(S'no_ll'
I1
tp1800
a(S'w'
I1
tp1801
a(S'no_np'
I2
tp1802
a(S'w'
I668
tp1803
a(S'p1_du'
I2
tp1804
a(S'p1_vo'
I3
tp1805
a(S'w'
I16
tp1806
a(S'no_vo'
I1
tp1807
a(S'w'
I2
tp1808
a(S'no_ll'
I1
tp1809
a(S'no_ll'
I1
tp1810
a(S'w'
I1
tp1811
a(S'no_np'
I1
tp1812
a(S'w'
I715
tp1813
a(S'p1_vo'
I2
tp1814
a(S'w'
I15
tp1815
a(S'no_vo'
I0
tp1816
a(S'w'
I3667
tp1817
a(S'p1_du'
I1
tp1818
a(S'w'
I11
tp1819
a(S'p1_ll'
I1
tp1820
a(S'p1_th'
I0
tp1821
a(S'p1_ll'
I1
tp1822
a(S'w'
I1
tp1823
a(S'p1_tl'
I253
tp1824
a(S'w'
I18
tp1825
a(S'tr_lr'
I38
tp1826
a(S'w'
I6
tp1827
a(S'tr_ll'
I1
tp1828
a(S'tr_th'
I1
tp1829
a(S'tr_ll'
I1
tp1830
a(S'w'
I1
tp1831
a(S'tr_tl'
I252
tp1832
a(S'w'
I10
tp1833
a(S'ch_no'
I1
tp1834
a(S'ch_tr'
I1
tp1835
a(S'ch_p2'
I1
tp1836
a(S'ch_p1'
I1
tp1837
a(S'w'
I1
tp1838
a(S'ch_no'
I1
tp1839
a(S'ch_tr'
I1
tp1840
a(S'ch_p2'
I1
tp1841
a(S'ch_p1'
I1
tp1842
a(S'w'
I16
tp1843
a(S'no_vo'
I7
tp1844
a(S'w'
I2
tp1845
a(S'no_ll'
I1
tp1846
a(S'no_ll'
I1
tp1847
a(S'w'
I1
tp1848
a(S'no_np'
I2
tp1849
a(S'w'
I654
tp1850
a(S'p1_du'
I2
tp1851
a(S'p1_vo'
I3
tp1852
a(S'w'
I16
tp1853
a(S'no_vo'
I1
tp1854
a(S'w'
I2
tp1855
a(S'no_ll'
I1
tp1856
a(S'no_ll'
I1
tp1857
a(S'w'
I1
tp1858
a(S'no_np'
I1
tp1859
a(S'w'
I714
tp1860
a(S'p1_vo'
I2
tp1861
a(S'w'
I15
tp1862
a(S'no_vo'
I0
tp1863
a(S'w'
I3656
tp1864
a(S'p2_vo'
I5
tp1865
a(S'w'
I26
tp1866
a(S'no_vo'
I7
tp1867
a(S'w'
I2
tp1868
a(S'no_ll'
I1
tp1869
a(S'no_ll'
I1
tp1870
a(S'w'
I1
tp1871
a(S'no_np'
I2
tp1872
a(S'w'
I704
tp1873
a(S'p2_vo'
I4
tp1874
a(S'w'
I11
tp1875
a(S'no_vo'
I1
tp1876
a(S'w'
I2
tp1877
a(S'no_ll'
I1
tp1878
a(S'no_ll'
I1
tp1879
a(S'w'
I1
tp1880
a(S'no_np'
I1
tp1881
a(S'w'
I720
tp1882
a(S'p2_vo'
I3
tp1883
a(S'w'
I11
tp1884
a(S'no_vo'
I0
tp1885
a(S'w'
I723
tp1886
a(S'p2_vo'
I2
tp1887
a(S'w'
I2933
tp1888
a(S'w'
I15
tp1889
a(S'tr_lr'
I19
tp1890
a(S'w'
I5
tp1891
a(S'tr_ll'
I1
tp1892
a(S'w'
I1
tp1893
a(S'tr_ll'
I1
tp1894
a(S'w'
I11
tp1895
a(S'ch_no'
I1
tp1896
a(S'ch_tr'
I1
tp1897
a(S'ch_p2'
I1
tp1898
a(S'ch_p1'
I1
tp1899
a(S'w'
I1
tp1900
a(S'ch_no'
I1
tp1901
a(S'ch_tr'
I1
tp1902
a(S'ch_p2'
I1
tp1903
a(S'ch_p1'
I1
tp1904
a(S'w'
I15
tp1905
a(S'no_vo'
I7
tp1906
a(S'w'
I2
tp1907
a(S'no_ll'
I1
tp1908
a(S'w'
I1
tp1909
a(S'no_ll'
I1
tp1910
a(S'w'
I1
tp1911
a(S'no_np'
I2
tp1912
a(S'w'
I694
tp1913
a(S'no_vo'
I1
tp1914
a(S'w'
I2
tp1915
a(S'no_ll'
I1
tp1916
a(S'no_ll'
I1
tp1917
a(S'w'
I1
tp1918
a(S'no_np'
I1
tp1919
a(S'w'
I718
tp1920
a(S'p1_tl'
I254
tp1921
a(S'w'
I19
tp1922
a(S'no_vo'
I0
tp1923
a(S'w'
I2182
tp1924
a(S'p1_tl'
I253
tp1925
a(S'w'
I1467
tp1926
a(S'p1_tl'
I252
tp1927
a(S'w'
I18
tp1928
a(S'p2_du'
I1
tp1929
a(S'p2_vo'
I8
tp1930
a(S'w'
I11
tp1931
a(S'p2_ll'
I1
tp1932
a(S'p2_th'
I1
tp1933
a(S'p2_ll'
I1
tp1934
a(S'w'
I2
tp1935
a(S'p2_tl'
I83
tp1936
a(S'w'
I12
tp1937
a(S'tr_ll'
I1
tp1938
a(S'tr_ll'
I1
tp1939
a(S'w'
I11
tp1940
a(S'ch_no'
I1
tp1941
a(S'ch_tr'
I1
tp1942
a(S'ch_p2'
I1
tp1943
a(S'ch_p1'
I1
tp1944
a(S'w'
I1
tp1945
a(S'ch_no'
I1
tp1946
a(S'ch_tr'
I1
tp1947
a(S'ch_p2'
I1
tp1948
a(S'ch_p1'
I1
tp1949
a(S'w'
I16
tp1950
a(S'no_vo'
I7
tp1951
a(S'w'
I2
tp1952
a(S'no_ll'
I1
tp1953
a(S'no_ll'
I1
tp1954
a(S'w'
I1
tp1955
a(S'no_np'
I15
tp1956
a(S'w'
I664
tp1957
a(S'p2_du'
I2
tp1958
a(S'p2_vo'
I7
tp1959
a(S'w'
I11
tp1960
a(S'no_vo'
I5
tp1961
a(S'w'
I2
tp1962
a(S'no_ll'
I1
tp1963
a(S'no_ll'
I1
tp1964
a(S'w'
I1
tp1965
a(S'no_np'
I13
tp1966
a(S'w'
I719
tp1967
a(S'p2_vo'
I6
tp1968
a(S'w'
I10
tp1969
a(S'no_vo'
I3
tp1970
a(S'w'
I2
tp1971
a(S'no_ll'
I1
tp1972
a(S'no_ll'
I1
tp1973
a(S'w'
I1
tp1974
a(S'no_np'
I8
tp1975
a(S'w'
I720
tp1976
a(S'p1_tl'
I253
tp1977
a(S'w'
I20
tp1978
a(S'no_vo'
I2
tp1979
a(S'w'
I2
tp1980
a(S'no_ll'
I1
tp1981
a(S'no_ll'
I1
tp1982
a(S'w'
I1
tp1983
a(S'no_np'
I6
tp1984
a(S'w'
I720
tp1985
a(S'no_vo'
I1
tp1986
a(S'w'
I2
tp1987
a(S'no_ll'
I1
tp1988
a(S'w'
I1
tp1989
a(S'no_ll'
I1
tp1990
a(S'w'
I1
tp1991
a(S'w'
I718
tp1992
a(S'p1_tl'
I254
tp1993
a(S'w'
I20
tp1994
a(S'no_vo'
I0
tp1995
a(S'w'
I1455
tp1996
a(S'p2_du'
I1
tp1997
a(S'p2_vo'
I8
tp1998
a(S'w'
I11
tp1999
a(S'p2_ll'
I1
tp2000
a(S'p2_th'
I0
tp2001
a(S'p2_ll'
I1
tp2002
a(S'w'
I1
tp2003
a(S'p2_tl'
I254
tp2004
a(S'w'
I15
tp2005
a(S'tr_ll'
I1
tp2006
a(S'tr_ll'
I1
tp2007
a(S'w'
I1
tp2008
a(S'tr_tl'
I83
tp2009
a(S'w'
I25
tp2010
a(S'no_vo'
I7
tp2011
a(S'w'
I2
tp2012
a(S'no_ll'
I1
tp2013
a(S'no_ll'
I1
tp2014
a(S'w'
I1
tp2015
a(S'no_np'
I2
tp2016
a(S'w'
I671
tp2017
a(S'p1_tl'
I253
tp2018
a(S'w'
I11
tp2019
a(S'p2_du'
I2
tp2020
a(S'p2_vo'
I7
tp2021
a(S'w'
I10
tp2022
a(S'no_vo'
I1
tp2023
a(S'w'
I2
tp2024
a(S'no_ll'
I1
tp2025
a(S'no_ll'
I1
tp2026
a(S'w'
I1
tp2027
a(S'no_np'
I1
tp2028
a(S'w'
I713
tp2029
a(S'p2_vo'
I6
tp2030
a(S'w'
I10
tp2031
a(S'no_vo'
I0
tp2032
a(S'w'
I720
tp2033
a(S'p1_tl'
I252
tp2034
a(S'w'
I2204
tp2035
a(S'p1_tl'
I253
tp2036
a(S'w'
I740
tp2037
a(S'p2_du'
I1
tp2038
a(S'p2_vo'
I8
tp2039
a(S'w'
I12
tp2040
a(S'p2_tl'
I201
tp2041
a(S'w'
I13
tp2042
a(S'tr_ll'
I1
tp2043
a(S'tr_th'
I0
tp2044
a(S'tr_ll'
I1
tp2045
a(S'w'
I1
tp2046
a(S'tr_tl'
I254
tp2047
a(S'w'
I25
tp2048
a(S'no_vo'
I8
tp2049
a(S'w'
I2
tp2050
a(S'no_ll'
I1
tp2051
a(S'no_ll'
I1
tp2052
a(S'w'
I1
tp2053
a(S'no_np'
I2
tp2054
a(S'w'
I671
tp2055
a(S'p1_tl'
I254
tp2056
a(S'w'
I11
tp2057
a(S'p2_du'
I2
tp2058
a(S'p2_vo'
I7
tp2059
a(S'w'
I12
tp2060
a(S'no_vo'
I6
tp2061
a(S'w'
I2
tp2062
a(S'no_ll'
I1
tp2063
a(S'no_ll'
I1
tp2064
a(S'w'
I1
tp2065
a(S'no_np'
I1
tp2066
a(S'w'
I711
tp2067
a(S'p2_vo'
I6
tp2068
a(S'w'
I1465
tp2069
a(S'p1_tl'
I253
tp2070
a(S'w'
I1467
tp2071
a(S'p1_tl'
I252
tp2072
a(S'w'
I19
tp2073
a(S'no_vo'
I5
tp2074
a(S'w'
I2
tp2075
a(S'no_ll'
I1
tp2076
a(S'no_ll'
I1
tp2077
a(S'w'
I2
tp2078
a(S'w'
I725
tp2079
a(S'p2_du'
I1
tp2080
a(S'p2_vo'
I8
tp2081
a(S'w'
I12
tp2082
a(S'p2_tl'
I190
tp2083
a(S'w'
I12
tp2084
a(S'tr_lr'
I38
tp2085
a(S'w'
I6
tp2086
a(S'tr_ll'
I1
tp2087
a(S'tr_th'
I1
tp2088
a(S'tr_ll'
I1
tp2089
a(S'w'
I1
tp2090
a(S'tr_tl'
I252
tp2091
a(S'w'
I14
tp2092
a(S'ch_no'
I1
tp2093
a(S'ch_tr'
I1
tp2094
a(S'ch_p2'
I1
tp2095
a(S'ch_p1'
I1
tp2096
a(S'w'
I1
tp2097
a(S'ch_no'
I1
tp2098
a(S'ch_tr'
I1
tp2099
a(S'ch_p2'
I1
tp2100
a(S'ch_p1'
I1
tp2101
a(S'w'
I16
tp2102
a(S'no_vo'
I7
tp2103
a(S'w'
I2
tp2104
a(S'no_ll'
I1
tp2105
a(S'no_ll'
I1
tp2106
a(S'w'
I1
tp2107
a(S'no_np'
I2
tp2108
a(S'w'
I659
tp2109
a(S'p2_du'
I2
tp2110
a(S'p2_vo'
I7
tp2111
a(S'w'
I10
tp2112
a(S'no_vo'
I1
tp2113
a(S'w'
I2
tp2114
a(S'no_ll'
I1
tp2115
a(S'no_ll'
I1
tp2116
a(S'w'
I1
tp2117
a(S'no_np'
I1
tp2118
a(S'w'
I720
tp2119
a(S'p1_tl'
I253
tp2120
a(S'w'
I10
tp2121
a(S'p2_vo'
I6
tp2122
a(S'w'
I11
tp2123
a(S'no_vo'
I0
tp2124
a(S'w'
I1443
tp2125
a(S'p1_tl'
I254
tp2126
a(S'w'
I2202
tp2127
a(S'p1_tl'
I253
tp2128
a(S'w'
I38
tp2129
a(S'no_vo'
I7
tp2130
a(S'w'
I2
tp2131
a(S'no_ll'
I1
tp2132
a(S'no_ll'
I1
tp2133
a(S'w'
I1
tp2134
a(S'no_np'
I2
tp2135
a(S'w'
I704
tp2136
a(S'no_vo'
I1
tp2137
a(S'w'
I2
tp2138
a(S'no_ll'
I1
tp2139
a(S'no_ll'
I1
tp2140
a(S'w'
I1
tp2141
a(S'no_np'
I1
tp2142
a(S'w'
I719
tp2143
a(S'p1_tl'
I252
tp2144
a(S'w'
I20
tp2145
a(S'no_vo'
I0
tp2146
a(S'w'
I2184
tp2147
a(S'p1_tl'
I253
tp2148
a(S'w'
I735
tp2149
a(S'p2_vo'
I5
tp2150
a(S'w'
I730
tp2151
a(S'p1_tl'
I254
tp2152
a(S'w'
I15
tp2153
a(S'w'
I9
tp2154
a(S'tr_lr'
I19
tp2155
a(S'w'
I6
tp2156
a(S'tr_ll'
I1
tp2157
a(S'tr_ll'
I1
tp2158
a(S'w'
I25
tp2159
a(S'no_vo'
I7
tp2160
a(S'w'
I2
tp2161
a(S'no_ll'
I1
tp2162
a(S'w'
I1
tp2163
a(S'no_ll'
I1
tp2164
a(S'w'
I1
tp2165
a(S'no_np'
I2
tp2166
a(S'w'
I679
tp2167
a(S'p2_vo'
I4
tp2168
a(S'w'
I11
tp2169
a(S'no_vo'
I1
tp2170
a(S'w'
I2
tp2171
a(S'no_ll'
I1
tp2172
a(S'no_ll'
I1
tp2173
a(S'w'
I1
tp2174
a(S'no_np'
I1
tp2175
a(S'w'
I722
tp2176
a(S'p2_tl'
I192
tp2177
a(S'w'
I14
tp2178
a(S'no_vo'
I0
tp2179
a(S'w'
I713
tp2180
a(S'p1_tl'
I253
tp2181
a(S'w'
I12
tp2182
a(S'p2_vo'
I3
tp2183
a(S'w'
I1456
tp2184
a(S'p1_tl'
I252
tp2185
a(S'w'
I14
tp2186
a(S'p2_tl'
I190
tp2187
a(S'w'
I6
tp2188
a(S'p2_vo'
I2
tp2189
a(S'w'
I1459
tp2190
a(S'p2_du'
I1
tp2191
a(S'p2_vo'
I8
tp2192
a(S'w'
I12
tp2193
a(S'p2_tl'
I201
tp2194
a(S'w'
I12
tp2195
a(S'tr_ll'
I1
tp2196
a(S'tr_ll'
I1
tp2197
a(S'w'
I11
tp2198
a(S'ch_no'
I1
tp2199
a(S'ch_tr'
I1
tp2200
a(S'ch_p2'
I1
tp2201
a(S'ch_p1'
I1
tp2202
a(S'w'
I1
tp2203
a(S'ch_no'
I1
tp2204
a(S'ch_tr'
I1
tp2205
a(S'ch_p2'
I1
tp2206
a(S'ch_p1'
I1
tp2207
a(S'w'
I16
tp2208
a(S'no_vo'
I7
tp2209
a(S'w'
I2
tp2210
a(S'no_ll'
I1
tp2211
a(S'no_ll'
I1
tp2212
a(S'w'
I2
tp2213
a(S'no_np'
I15
tp2214
a(S'w'
I670
tp2215
a(S'p1_tl'
I253
tp2216
a(S'w'
I11
tp2217
a(S'p2_du'
I2
tp2218
a(S'p2_vo'
I7
tp2219
a(S'w'
I11
tp2220
a(S'no_vo'
I5
tp2221
a(S'w'
I2
tp2222
a(S'no_ll'
I1
tp2223
a(S'no_ll'
I1
tp2224
a(S'w'
I1
tp2225
a(S'no_np'
I13
tp2226
a(S'w'
I708
tp2227
a(S'p2_vo'
I6
tp2228
a(S'w'
I11
tp2229
a(S'no_vo'
I3
tp2230
a(S'w'
I2
tp2231
a(S'no_ll'
I1
tp2232
a(S'no_ll'
I1
tp2233
a(S'w'
I1
tp2234
a(S'no_np'
I8
tp2235
a(S'w'
I717
tp2236
a(S'p1_tl'
I254
tp2237
a(S'w'
I21
tp2238
a(S'no_vo'
I2
tp2239
a(S'w'
I2
tp2240
a(S'no_ll'
I1
tp2241
a(S'no_ll'
I1
tp2242
a(S'w'
I1
tp2243
a(S'no_np'
I6
tp2244
a(S'w'
I722
tp2245
a(S'no_vo'
I1
tp2246
a(S'w'
I2
tp2247
a(S'no_ll'
I1
tp2248
a(S'no_ll'
I1
tp2249
a(S'w'
I2
tp2250
a(S'w'
I730
tp2251
a(S'no_vo'
I0
tp2252
a(S'w'
I721
tp2253
a(S'p1_tl'
I253
tp2254
a(S'w'
I749
tp2255
a(S'tr_ll'
I1
tp2256
a(S'tr_ll'
I1
tp2257
a(S'w'
I2
tp2258
a(S'tr_tl'
I83
tp2259
a(S'w'
I24
tp2260
a(S'no_vo'
I7
tp2261
a(S'w'
I2
tp2262
a(S'no_ll'
I1
tp2263
a(S'no_ll'
I1
tp2264
a(S'w'
I1
tp2265
a(S'no_np'
I2
tp2266
a(S'w'
I690
tp2267
a(S'p1_tl'
I252
tp2268
a(S'w'
I20
tp2269
a(S'no_vo'
I1
tp2270
a(S'w'
I2
tp2271
a(S'no_ll'
I1
tp2272
a(S'no_ll'
I1
tp2273
a(S'w'
I1
tp2274
a(S'no_np'
I1
tp2275
a(S'w'
I723
tp2276
a(S'no_vo'
I0
tp2277
a(S'w'
I1457
tp2278
a(S'p1_tl'
I253
tp2279
a(S'w'
I737
tp2280
a(S'p2_vo'
I5
tp2281
a(S'w'
I729
tp2282
a(S'p1_tl'
I254
tp2283
a(S'w'
I741
tp2284
a(S'w'
I6
tp2285
a(S'p2_vo'
I4
tp2286
a(S'w'
I11
tp2287
a(S'tr_ll'
I1
tp2288
a(S'tr_th'
I0
tp2289
a(S'w'
I1
tp2290
a(S'tr_ll'
I1
tp2291
a(S'w'
I1
tp2292
a(S'tr_tl'
I254
tp2293
a(S'w'
I10
tp2294
a(S'ch_no'
I1
tp2295
a(S'ch_tr'
I1
tp2296
a(S'ch_p2'
I1
tp2297
a(S'ch_p1'
I1
tp2298
a(S'w'
I1
tp2299
a(S'ch_no'
I1
tp2300
a(S'ch_tr'
I1
tp2301
a(S'ch_p2'
I1
tp2302
a(S'ch_p1'
I1
tp2303
a(S'w'
I16
tp2304
a(S'no_vo'
I7
tp2305
a(S'w'
I2
tp2306
a(S'no_ll'
I1
tp2307
a(S'no_ll'
I1
tp2308
a(S'w'
I1
tp2309
a(S'no_np'
I2
tp2310
a(S'w'
I691
tp2311
a(S'no_vo'
I1
tp2312
a(S'w'
I2
tp2313
a(S'no_ll'
I1
tp2314
a(S'no_ll'
I1
tp2315
a(S'w'
I1
tp2316
a(S'no_np'
I1
tp2317
a(S'w'
I718
tp2318
a(S'p1_tl'
I253
tp2319
a(S'w'
I14
tp2320
a(S'p2_tl'
I203
tp2321
a(S'w'
I5
tp2322
a(S'p2_vo'
I3
tp2323
a(S'w'
I11
tp2324
a(S'no_vo'
I0
tp2325
a(S'w'
I1437
tp2326
a(S'p1_tl'
I252
tp2327
a(S'w'
I12
tp2328
a(S'p2_vo'
I2
tp2329
a(S'w'
I728
tp2330
a(S'p2_tl'
I201
tp2331
a(S'w'
I1477
tp2332
a(S'p1_du'
I1
tp2333
a(S'p1_vo'
I3
tp2334
a(S'w'
I11
tp2335
a(S'p1_tl'
I254
tp2336
a(S'w'
I17
tp2337
a(S'p2_du'
I1
tp2338
a(S'p2_vo'
I8
tp2339
a(S'w'
I12
tp2340
a(S'p2_tl'
I226
tp2341
a(S'w'
I15
tp2342
a(S'tr_lr'
I38
tp2343
a(S'w'
I5
tp2344
a(S'tr_ll'
I1
tp2345
a(S'tr_th'
I1
tp2346
a(S'tr_ll'
I1
tp2347
a(S'w'
I2
tp2348
a(S'tr_tl'
I252
tp2349
a(S'w'
I9
tp2350
a(S'ch_no'
I1
tp2351
a(S'ch_tr'
I1
tp2352
a(S'ch_p2'
I1
tp2353
a(S'ch_p1'
I1
tp2354
a(S'w'
I1
tp2355
a(S'ch_no'
I1
tp2356
a(S'ch_tr'
I1
tp2357
a(S'ch_p2'
I1
tp2358
a(S'ch_p1'
I1
tp2359
a(S'w'
I16
tp2360
a(S'no_vo'
I7
tp2361
a(S'w'
I2
tp2362
a(S'no_ll'
I1
tp2363
a(S'no_ll'
I1
tp2364
a(S'w'
I2
tp2365
a(S'no_np'
I2
tp2366
a(S'w'
I628
tp2367
a(S'p1_du'
I2
tp2368
a(S'p1_vo'
I4
tp2369
a(S'w'
I7
tp2370
a(S'p2_du'
I2
tp2371
a(S'p2_vo'
I7
tp2372
a(S'w'
I11
tp2373
a(S'no_vo'
I1
tp2374
a(S'w'
I2
tp2375
a(S'no_ll'
I1
tp2376
a(S'no_ll'
I1
tp2377
a(S'w'
I1
tp2378
a(S'no_np'
I1
tp2379
a(S'w'
I713
tp2380
a(S'p1_vo'
I3
tp2381
a(S'w'
I7
tp2382
a(S'p2_vo'
I6
tp2383
a(S'w'
I11
tp2384
a(S'no_vo'
I0
tp2385
a(S'w'
I3676
tp2386
a(S'no_vo'
I7
tp2387
a(S'w'
I2
tp2388
a(S'no_ll'
I1
tp2389
a(S'no_ll'
I1
tp2390
a(S'w'
I1
tp2391
a(S'no_np'
I2
tp2392
a(S'w'
I716
tp2393
a(S'no_vo'
I1
tp2394
a(S'w'
I2
tp2395
a(S'no_ll'
I1
tp2396
a(S'no_ll'
I1
tp2397
a(S'w'
I1
tp2398
a(S'no_np'
I1
tp2399
a(S'w'
I730
tp2400
a(S'no_vo'
I0
tp2401
a(S'w'
I2194
tp2402
a(S'p2_vo'
I5
tp2403
a(S'w'
I1463
tp2404
a(S'w'
I15
tp2405
a(S'w'
I5
tp2406
a(S'p2_vo'
I4
tp2407
a(S'w'
I6
tp2408
a(S'tr_lr'
I19
tp2409
a(S'w'
I6
tp2410
a(S'tr_ll'
I1
tp2411
a(S'tr_ll'
I1
tp2412
a(S'w'
I11
tp2413
a(S'ch_no'
I1
tp2414
a(S'ch_tr'
I1
tp2415
a(S'ch_p2'
I1
tp2416
a(S'ch_p1'
I1
tp2417
a(S'w'
I1
tp2418
a(S'ch_no'
I1
tp2419
a(S'ch_tr'
I1
tp2420
a(S'ch_p2'
I1
tp2421
a(S'ch_p1'
I1
tp2422
a(S'w'
I16
tp2423
a(S'no_vo'
I7
tp2424
a(S'w'
I2
tp2425
a(S'no_ll'
I1
tp2426
a(S'no_ll'
I1
tp2427
a(S'w'
I1
tp2428
a(S'no_np'
I2
tp2429
a(S'w'
I683
tp2430
a(S'no_vo'
I1
tp2431
a(S'w'
I2
tp2432
a(S'no_ll'
I1
tp2433
a(S'w'
I1
tp2434
a(S'no_ll'
I1
tp2435
a(S'w'
I1
tp2436
a(S'no_np'
I1
tp2437
a(S'w'
I718
tp2438
a(S'p1_tl'
I255
tp2439
a(S'w'
I7
tp2440
a(S'p1_vo'
I2
tp2441
a(S'w'
I10
tp2442
a(S'p2_tl'
I228
tp2443
a(S'w'
I5
tp2444
a(S'p2_vo'
I3
tp2445
a(S'w'
I11
tp2446
a(S'no_vo'
I0
tp2447
a(S'w'
I1438
tp2448
a(S'p2_vo'
I2
tp2449
a(S'w'
I730
tp2450
a(S'p1_tl'
I254
tp2451
a(S'w'
I14
tp2452
a(S'p2_tl'
I226
tp2453
a(S'w'
I1461
tp2454
a(S'p1_du'
I1
tp2455
a(S'p1_vo'
I3
tp2456
a(S'w'
I11
tp2457
a(S'w'
I17
tp2458
a(S'p2_du'
I1
tp2459
a(S'p2_vo'
I8
tp2460
a(S'w'
I12
tp2461
a(S'p2_tl'
I201
tp2462
a(S'w'
I13
tp2463
a(S'tr_ll'
I1
tp2464
a(S'tr_ll'
I1
tp2465
a(S'w'
I11
tp2466
a(S'ch_no'
I1
tp2467
a(S'ch_tr'
I1
tp2468
a(S'ch_p2'
I1
tp2469
a(S'ch_p1'
I1
tp2470
a(S'w'
I1
tp2471
a(S'ch_no'
I1
tp2472
a(S'ch_tr'
I1
tp2473
a(S'ch_p2'
I1
tp2474
a(S'ch_p1'
I1
tp2475
a(S'w'
I16
tp2476
a(S'no_vo'
I7
tp2477
a(S'w'
I2
tp2478
a(S'no_ll'
I1
tp2479
a(S'no_ll'
I1
tp2480
a(S'w'
I1
tp2481
a(S'no_np'
I15
tp2482
a(S'w'
I645
tp2483
a(S'p1_du'
I2
tp2484
a(S'p1_vo'
I4
tp2485
a(S'w'
I8
tp2486
a(S'p2_du'
I2
tp2487
a(S'p2_vo'
I7
tp2488
a(S'w'
I10
tp2489
a(S'no_vo'
I5
tp2490
a(S'w'
I2
tp2491
a(S'no_ll'
I1
tp2492
a(S'no_ll'
I1
tp2493
a(S'w'
I2
tp2494
a(S'no_np'
I13
tp2495
a(S'w'
I710
tp2496
a(S'p1_vo'
I3
tp2497
a(S'w'
I7
tp2498
a(S'p2_vo'
I6
tp2499
a(S'w'
I11
tp2500
a(S'no_vo'
I3
tp2501
a(S'w'
I2
tp2502
a(S'no_ll'
I1
tp2503
a(S'no_ll'
I1
tp2504
a(S'w'
I1
tp2505
a(S'no_np'
I8
tp2506
a(S'w'
I726
tp2507
a(S'no_vo'
I2
tp2508
a(S'w'
I2
tp2509
a(S'no_ll'
I1
tp2510
a(S'w'
I1
tp2511
a(S'no_ll'
I1
tp2512
a(S'w'
I1
tp2513
a(S'no_np'
I6
tp2514
a(S'w'
I728
tp2515
a(S'no_vo'
I1
tp2516
a(S'w'
I2
tp2517
a(S'no_ll'
I1
tp2518
a(S'no_ll'
I1
tp2519
a(S'w'
I1
tp2520
a(S'w'
I731
tp2521
a(S'no_vo'
I0
tp2522
a(S'w'
I1469
tp2523
a(S'tr_ll'
I1
tp2524
a(S'w'
I1
tp2525
a(S'tr_ll'
I1
tp2526
a(S'w'
I1
tp2527
a(S'tr_tl'
I83
tp2528
a(S'w'
I24
tp2529
a(S'no_vo'
I7
tp2530
a(S'w'
I2
tp2531
a(S'no_ll'
I1
tp2532
a(S'no_ll'
I1
tp2533
a(S'w'
I2
tp2534
a(S'no_np'
I2
tp2535
a(S'w'
I694
tp2536
a(S'p2_vo'
I5
tp2537
a(S'w'
I11
tp2538
a(S'no_vo'
I1
tp2539
a(S'w'
I2
tp2540
a(S'no_ll'
I1
tp2541
a(S'no_ll'
I1
tp2542
a(S'w'
I1
tp2543
a(S'no_np'
I1
tp2544
a(S'w'
I728
tp2545
a(S'no_vo'
I0
tp2546
a(S'w'
I726
tp2547
a(S'p2_vo'
I4
tp2548
a(S'w'
I729
tp2549
a(S'p1_vo'
I2
tp2550
a(S'w'
I739
tp2551
a(S'p2_vo'
I3
tp2552
a(S'w'
I1472
tp2553
a(S'p1_du'
I1
tp2554
a(S'p1_vo'
I3
tp2555
a(S'w'
I10
tp2556
a(S'p1_ll'
I1
tp2557
a(S'p1_th'
I1
tp2558
a(S'p1_ll'
I1
tp2559
a(S'w'
I2
tp2560
a(S'p1_tl'
I29
tp2561
a(S'w'
I20
tp2562
a(S'p2_du'
I1
tp2563
a(S'p2_vo'
I8
tp2564
a(S'w'
I11
tp2565
a(S'p2_tl'
I226
tp2566
a(S'w'
I10
tp2567
a(S'tr_lr'
I57
tp2568
a(S'w'
I6
tp2569
a(S'tr_ll'
I1
tp2570
a(S'tr_th'
I2
tp2571
a(S'tr_ll'
I1
tp2572
a(S'w'
I1
tp2573
a(S'tr_tl'
I59
tp2574
a(S'w'
I25
tp2575
a(S'no_vo'
I8
tp2576
a(S'w'
I2
tp2577
a(S'no_ll'
I1
tp2578
a(S'no_ll'
I1
tp2579
a(S'w'
I1
tp2580
a(S'no_np'
I2
tp2581
a(S'w'
I638
tp2582
a(S'p1_du'
I2
tp2583
a(S'p1_vo'
I4
tp2584
a(S'w'
I7
tp2585
a(S'p2_du'
I2
tp2586
a(S'p2_vo'
I7
tp2587
a(S'w'
I13
tp2588
a(S'no_vo'
I6
tp2589
a(S'w'
I2
tp2590
a(S'no_ll'
I1
tp2591
a(S'no_ll'
I1
tp2592
a(S'w'
I1
tp2593
a(S'no_np'
I1
tp2594
a(S'w'
I711
tp2595
a(S'p1_vo'
I3
tp2596
a(S'w'
I7
tp2597
a(S'p2_vo'
I6
tp2598
a(S'w'
I2939
tp2599
a(S'no_vo'
I5
tp2600
a(S'w'
I2
tp2601
a(S'no_ll'
I1
tp2602
a(S'no_ll'
I1
tp2603
a(S'w'
I1
tp2604
a(S'w'
I734
tp2605
a(S'ch_no'
I1
tp2606
a(S'ch_tr'
I1
tp2607
a(S'ch_p2'
I1
tp2608
a(S'ch_p1'
I1
tp2609
a(S'w'
I1
tp2610
a(S'ch_no'
I1
tp2611
a(S'ch_tr'
I1
tp2612
a(S'ch_p2'
I1
tp2613
a(S'ch_p1'
I1
tp2614
a(S'w'
I16
tp2615
a(S'no_vo'
I7
tp2616
a(S'w'
I2
tp2617
a(S'no_ll'
I1
tp2618
a(S'no_ll'
I1
tp2619
a(S'w'
I1
tp2620
a(S'no_np'
I2
tp2621
a(S'w'
I711
tp2622
a(S'no_vo'
I1
tp2623
a(S'w'
I2
tp2624
a(S'no_ll'
I1
tp2625
a(S'no_ll'
I1
tp2626
a(S'w'
I1
tp2627
a(S'no_np'
I1
tp2628
a(S'w'
I730
tp2629
a(S'no_vo'
I0
tp2630
a(S'w'
I3657
tp2631
a(S'w'
I15
tp2632
a(S'w'
I29
tp2633
a(S'no_vo'
I7
tp2634
a(S'w'
I2
tp2635
a(S'no_ll'
I1
tp2636
a(S'no_ll'
I1
tp2637
a(S'w'
I1
tp2638
a(S'no_np'
I2
tp2639
a(S'w'
I698
tp2640
a(S'no_vo'
I1
tp2641
a(S'w'
I2
tp2642
a(S'no_ll'
I1
tp2643
a(S'w'
I1
tp2644
a(S'no_ll'
I1
tp2645
a(S'w'
I1
tp2646
a(S'no_np'
I1
tp2647
a(S'w'
I719
tp2648
a(S'p1_tl'
I30
tp2649
a(S'w'
I13
tp2650
a(S'p2_tl'
I228
tp2651
a(S'w'
I14
tp2652
a(S'no_vo'
I0
tp2653
a(S'w'
I2174
tp2654
a(S'p1_tl'
I29
tp2655
a(S'w'
I13
tp2656
a(S'p2_tl'
I226
tp2657
a(S'w'
I1455
tp2658
a(S'p1_tl'
I28
tp2659
a(S'w'
I13
tp2660
a(S'p2_tl'
I224
tp2661
a(S'w'
I9
tp2662
a(S'tr_lr'
I19
tp2663
a(S'w'
I5
tp2664
a(S'tr_ll'
I1
tp2665
a(S'tr_ll'
I1
tp2666
a(S'w'
I26
tp2667
a(S'no_vo'
I7
tp2668
a(S'w'
I2
tp2669
a(S'no_ll'
I1
tp2670
a(S'no_ll'
I1
tp2671
a(S'w'
I1
tp2672
a(S'no_np'
I2
tp2673
a(S'w'
I688
tp2674
a(S'no_vo'
I1
tp2675
a(S'w'
I2
tp2676
a(S'no_ll'
I1
tp2677
a(S'w'
I1
tp2678
a(S'no_ll'
I1
tp2679
a(S'w'
I1
tp2680
a(S'no_np'
I1
tp2681
a(S'w'
I731
tp2682
a(S'no_vo'
I0
tp2683
a(S'w'
I724
tp2684
a(S'p1_tl'
I29
tp2685
a(S'w'
I15
tp2686
a(S'p2_tl'
I226
tp2687
a(S'w'
I1451
tp2688
a(S'p1_tl'
I30
tp2689
a(S'w'
I13
tp2690
a(S'p2_tl'
I228
tp2691
a(S'w'
I1466
tp2692
a(S'tr_ll'
I1
tp2693
a(S'tr_ll'
I1
tp2694
a(S'w'
I12
tp2695
a(S'ch_no'
I1
tp2696
a(S'ch_tr'
I1
tp2697
a(S'ch_p2'
I1
tp2698
a(S'ch_p1'
I1
tp2699
a(S'w'
I1
tp2700
a(S'ch_no'
I1
tp2701
a(S'ch_tr'
I1
tp2702
a(S'ch_p2'
I1
tp2703
a(S'ch_p1'
I1
tp2704
a(S'w'
I15
tp2705
a(S'no_vo'
I7
tp2706
a(S'w'
I2
tp2707
a(S'no_ll'
I1
tp2708
a(S'w'
I1
tp2709
a(S'no_ll'
I1
tp2710
a(S'w'
I1
tp2711
a(S'no_np'
I15
tp2712
a(S'w'
I691
tp2713
a(S'p1_tl'
I29
tp2714
a(S'w'
I14
tp2715
a(S'p2_tl'
I226
tp2716
a(S'w'
I13
tp2717
a(S'no_vo'
I5
tp2718
a(S'w'
I2
tp2719
a(S'no_ll'
I1
tp2720
a(S'no_ll'
I1
tp2721
a(S'w'
I1
tp2722
a(S'no_np'
I13
tp2723
a(S'w'
I714
tp2724
a(S'no_vo'
I3
tp2725
a(S'w'
I2
tp2726
a(S'no_ll'
I1
tp2727
a(S'w'
I1
tp2728
a(S'no_ll'
I1
tp2729
a(S'w'
I1
tp2730
a(S'no_np'
I8
tp2731
a(S'w'
I718
tp2732
a(S'p1_tl'
I28
tp2733
a(S'w'
I13
tp2734
a(S'p2_tl'
I224
tp2735
a(S'w'
I13
tp2736
a(S'no_vo'
I2
tp2737
a(S'w'
I2
tp2738
a(S'no_ll'
I1
tp2739
a(S'w'
I1
tp2740
a(S'no_ll'
I1
tp2741
a(S'w'
I1
tp2742
a(S'no_np'
I6
tp2743
a(S'w'
I715
tp2744
a(S'no_vo'
I1
tp2745
a(S'w'
I2
tp2746
a(S'no_ll'
I1
tp2747
a(S'w'
I1
tp2748
a(S'no_ll'
I1
tp2749
a(S'w'
I1
tp2750
a(S'w'
I731
tp2751
a(S'no_vo'
I0
tp2752
a(S'w'
I724
tp2753
a(S'p1_tl'
I29
tp2754
a(S'w'
I15
tp2755
a(S'p2_tl'
I226
tp2756
a(S'w'
I716
tp2757
a(S'p1_vo'
I2
tp2758
a(S'w'
I19
tp2759
a(S'tr_ll'
I1
tp2760
a(S'tr_th'
I1
tp2761
a(S'tr_ll'
I1
tp2762
a(S'w'
I1
tp2763
a(S'tr_tl'
I125
tp2764
a(S'w'
I24
tp2765
a(S'no_vo'
I7
tp2766
a(S'w'
I2
tp2767
a(S'no_ll'
I1
tp2768
a(S'w'
I1
tp2769
a(S'no_ll'
I1
tp2770
a(S'w'
I1
tp2771
a(S'no_np'
I2
tp2772
a(S'w'
I686
tp2773
a(S'p1_tl'
I30
tp2774
a(S'w'
I15
tp2775
a(S'p2_tl'
I228
tp2776
a(S'w'
I14
tp2777
a(S'no_vo'
I1
tp2778
a(S'w'
I2
tp2779
a(S'no_ll'
I1
tp2780
a(S'no_ll'
I1
tp2781
a(S'w'
I1
tp2782
a(S'no_np'
I1
tp2783
a(S'w'
I714
tp2784
a(S'no_vo'
I0
tp2785
a(S'w'
I727
tp2786
a(S'p2_vo'
I5
tp2787
a(S'w'
I729
tp2788
a(S'p1_tl'
I29
tp2789
a(S'w'
I14
tp2790
a(S'p2_tl'
I226
tp2791
a(S'w'
I5
tp2792
a(S'p2_vo'
I4
tp2793
a(S'w'
I719
tp2794
a(S'p2_vo'
I3
tp2795
a(S'w'
I729
tp2796
a(S'p1_tl'
I28
tp2797
a(S'w'
I14
tp2798
a(S'p2_tl'
I224
tp2799
a(S'w'
I5
tp2800
a(S'p2_vo'
I2
tp2801
a(S'w'
I730
tp2802
a(S'tr_ll'
I1
tp2803
a(S'tr_ll'
I1
tp2804
a(S'w'
I2
tp2805
a(S'tr_tl'
I29
tp2806
a(S'w'
I10
tp2807
a(S'ch_no'
I1
tp2808
a(S'ch_tr'
I1
tp2809
a(S'ch_p2'
I1
tp2810
a(S'ch_p1'
I1
tp2811
a(S'w'
I1
tp2812
a(S'ch_no'
I1
tp2813
a(S'ch_tr'
I1
tp2814
a(S'ch_p2'
I1
tp2815
a(S'ch_p1'
I1
tp2816
a(S'w'
I16
tp2817
a(S'no_vo'
I7
tp2818
a(S'w'
I2
tp2819
a(S'no_ll'
I1
tp2820
a(S'no_ll'
I1
tp2821
a(S'w'
I1
tp2822
a(S'no_np'
I2
tp2823
a(S'w'
I701
tp2824
a(S'no_vo'
I1
tp2825
a(S'w'
I2
tp2826
a(S'no_ll'
I1
tp2827
a(S'no_ll'
I1
tp2828
a(S'w'
I1
tp2829
a(S'no_np'
I1
tp2830
a(S'w'
I719
tp2831
a(S'p1_tl'
I29
tp2832
a(S'w'
I17
tp2833
a(S'p2_tl'
I226
tp2834
a(S'w'
I14
tp2835
a(S'no_vo'
I0
tp2836
a(S'w'
I1434
tp2837
a(S'p1_tl'
I30
tp2838
a(S'w'
I14
tp2839
a(S'p2_tl'
I228
tp2840
a(S'w'
I2196
tp2841
a(S'p1_du'
I1
tp2842
a(S'p1_vo'
I3
tp2843
a(S'w'
I12
tp2844
a(S'p1_tl'
I46
tp2845
a(S'w'
I17
tp2846
a(S'p2_du'
I1
tp2847
a(S'p2_vo'
I8
tp2848
a(S'w'
I9
tp2849
a(S'p2_tl'
I254
tp2850
a(S'w'
I12
tp2851
a(S'tr_lr'
I38
tp2852
a(S'w'
I5
tp2853
a(S'tr_ll'
I1
tp2854
a(S'tr_th'
I2
tp2855
a(S'w'
I1
tp2856
a(S'tr_ll'
I1
tp2857
a(S'w'
I1
tp2858
a(S'tr_tl'
I59
tp2859
a(S'w'
I10
tp2860
a(S'ch_no'
I1
tp2861
a(S'ch_tr'
I1
tp2862
a(S'ch_p2'
I1
tp2863
a(S'ch_p1'
I1
tp2864
a(S'w'
I1
tp2865
a(S'ch_no'
I1
tp2866
a(S'ch_tr'
I1
tp2867
a(S'ch_p2'
I1
tp2868
a(S'ch_p1'
I1
tp2869
a(S'w'
I16
tp2870
a(S'no_vo'
I7
tp2871
a(S'w'
I2
tp2872
a(S'no_ll'
I1
tp2873
a(S'no_ll'
I1
tp2874
a(S'w'
I1
tp2875
a(S'no_np'
I2
tp2876
a(S'w'
I641
tp2877
a(S'p1_du'
I2
tp2878
a(S'p1_vo'
I4
tp2879
a(S'w'
I7
tp2880
a(S'p2_du'
I2
tp2881
a(S'p2_vo'
I7
tp2882
a(S'w'
I10
tp2883
a(S'no_vo'
I1
tp2884
a(S'w'
I2
tp2885
a(S'no_ll'
I1
tp2886
a(S'no_ll'
I1
tp2887
a(S'w'
I2
tp2888
a(S'no_np'
I1
tp2889
a(S'w'
I712
tp2890
a(S'p1_vo'
I3
tp2891
a(S'w'
I6
tp2892
a(S'p2_vo'
I6
tp2893
a(S'w'
I11
tp2894
a(S'no_vo'
I0
tp2895
a(S'w'
I3677
tp2896
a(S'no_vo'
I7
tp2897
a(S'w'
I2
tp2898
a(S'no_ll'
I1
tp2899
a(S'no_ll'
I1
tp2900
a(S'w'
I1
tp2901
a(S'no_np'
I2
tp2902
a(S'w'
I715
tp2903
a(S'no_vo'
I1
tp2904
a(S'w'
I2
tp2905
a(S'no_ll'
I1
tp2906
a(S'no_ll'
I1
tp2907
a(S'w'
I1
tp2908
a(S'no_np'
I1
tp2909
a(S'w'
I731
tp2910
a(S'no_vo'
I0
tp2911
a(S'w'
I3658
tp2912
a(S'w'
I15
tp2913
a(S'tr_lr'
I19
tp2914
a(S'w'
I5
tp2915
a(S'tr_ll'
I1
tp2916
a(S'tr_ll'
I1
tp2917
a(S'w'
I11
tp2918
a(S'ch_no'
I1
tp2919
a(S'ch_tr'
I1
tp2920
a(S'ch_p2'
I1
tp2921
a(S'ch_p1'
I1
tp2922
a(S'w'
I1
tp2923
a(S'ch_no'
I1
tp2924
a(S'ch_tr'
I1
tp2925
a(S'ch_p2'
I1
tp2926
a(S'ch_p1'
I1
tp2927
a(S'w'
I16
tp2928
a(S'no_vo'
I7
tp2929
a(S'w'
I2
tp2930
a(S'no_ll'
I1
tp2931
a(S'no_ll'
I1
tp2932
a(S'w'
I2
tp2933
a(S'no_np'
I2
tp2934
a(S'w'
I694
tp2935
a(S'no_vo'
I1
tp2936
a(S'w'
I2
tp2937
a(S'no_ll'
I1
tp2938
a(S'no_ll'
I1
tp2939
a(S'w'
I1
tp2940
a(S'no_np'
I1
tp2941
a(S'w'
I718
tp2942
a(S'p1_tl'
I47
tp2943
a(S'w'
I19
tp2944
a(S'no_vo'
I0
tp2945
a(S'w'
I2183
tp2946
a(S'p1_tl'
I46
tp2947
a(S'w'
I1467
tp2948
a(S'p1_tl'
I45
tp2949
a(S'w'
I19
tp2950
a(S'tr_ll'
I1
tp2951
a(S'tr_ll'
I1
tp2952
a(S'w'
I12
tp2953
a(S'ch_no'
I1
tp2954
a(S'ch_tr'
I1
tp2955
a(S'ch_p2'
I1
tp2956
a(S'ch_p1'
I1
tp2957
a(S'w'
I1
tp2958
a(S'ch_no'
I1
tp2959
a(S'ch_tr'
I1
tp2960
a(S'ch_p2'
I1
tp2961
a(S'ch_p1'
I1
tp2962
a(S'w'
I15
tp2963
a(S'no_vo'
I7
tp2964
a(S'w'
I2
tp2965
a(S'no_ll'
I1
tp2966
a(S'no_ll'
I1
tp2967
a(S'w'
I2
tp2968
a(S'no_np'
I15
tp2969
a(S'w'
I696
tp2970
a(S'no_vo'
I5
tp2971
a(S'w'
I2
tp2972
a(S'no_ll'
I1
tp2973
a(S'no_ll'
I1
tp2974
a(S'w'
I1
tp2975
a(S'no_np'
I13
tp2976
a(S'w'
I729
tp2977
a(S'no_vo'
I3
tp2978
a(S'w'
I2
tp2979
a(S'no_ll'
I1
tp2980
a(S'no_ll'
I1
tp2981
a(S'w'
I1
tp2982
a(S'no_np'
I8
tp2983
a(S'w'
I722
tp2984
a(S'p1_tl'
I46
tp2985
a(S'w'
I19
tp2986
a(S'no_vo'
I2
tp2987
a(S'w'
I2
tp2988
a(S'no_ll'
I1
tp2989
a(S'no_ll'
I1
tp2990
a(S'w'
I1
tp2991
a(S'no_np'
I6
tp2992
a(S'w'
I721
tp2993
a(S'no_vo'
I1
tp2994
a(S'w'
I2
tp2995
a(S'no_ll'
I1
tp2996
a(S'no_ll'
I1
tp2997
a(S'w'
I1
tp2998
a(S'w'
I719
tp2999
a(S'p1_tl'
I47
tp3000
a(S'w'
I19
tp3001
a(S'no_vo'
I0
tp3002
a(S'w'
I1463
tp3003
a(S'tr_ll'
I1
tp3004
a(S'tr_th'
I1
tp3005
a(S'tr_ll'
I1
tp3006
a(S'w'
I1
tp3007
a(S'tr_tl'
I125
tp3008
a(S'w'
I25
tp3009
a(S'no_vo'
I7
tp3010
a(S'w'
I2
tp3011
a(S'no_ll'
I1
tp3012
a(S'no_ll'
I1
tp3013
a(S'w'
I1
tp3014
a(S'no_np'
I2
tp3015
a(S'w'
I691
tp3016
a(S'p1_tl'
I46
tp3017
a(S'w'
I18
tp3018
a(S'no_vo'
I1
tp3019
a(S'w'
I2
tp3020
a(S'no_ll'
I1
tp3021
a(S'w'
I1
tp3022
a(S'no_ll'
I1
tp3023
a(S'w'
I1
tp3024
a(S'no_np'
I1
tp3025
a(S'w'
I710
tp3026
a(S'p1_vo'
I2
tp3027
a(S'w'
I15
tp3028
a(S'no_vo'
I0
tp3029
a(S'w'
I720
tp3030
a(S'p1_tl'
I45
tp3031
a(S'w'
I1472
tp3032
a(S'p2_vo'
I5
tp3033
a(S'w'
I732
tp3034
a(S'p1_tl'
I46
tp3035
a(S'w'
I11
tp3036
a(S'p2_vo'
I4
tp3037
a(S'w'
I724
tp3038
a(S'p2_vo'
I3
tp3039
a(S'w'
I12
tp3040
a(S'tr_ll'
I1
tp3041
a(S'tr_ll'
I1
tp3042
a(S'w'
I1
tp3043
a(S'tr_tl'
I29
tp3044
a(S'w'
I24
tp3045
a(S'no_vo'
I8
tp3046
a(S'w'
I2
tp3047
a(S'no_ll'
I1
tp3048
a(S'w'
I1
tp3049
a(S'no_ll'
I1
tp3050
a(S'w'
I1
tp3051
a(S'no_np'
I2
tp3052
a(S'w'
I689
tp3053
a(S'p1_tl'
I47
tp3054
a(S'w'
I11
tp3055
a(S'p2_vo'
I2
tp3056
a(S'w'
I12
tp3057
a(S'no_vo'
I6
tp3058
a(S'w'
I2
tp3059
a(S'no_ll'
I1
tp3060
a(S'w'
I1
tp3061
a(S'no_ll'
I1
tp3062
a(S'w'
I1
tp3063
a(S'no_np'
I1
tp3064
a(S'w'
I2175
tp3065
a(S'p1_tl'
I46
tp3066
a(S'w'
I1467
tp3067
a(S'p1_tl'
I45
tp3068
a(S'w'
I20
tp3069
a(S'no_vo'
I5
tp3070
a(S'w'
I2
tp3071
a(S'no_ll'
I1
tp3072
a(S'no_ll'
I1
tp3073
a(S'w'
I1
tp3074
a(S'w'
I719
tp3075
a(S'p1_du'
I1
tp3076
a(S'p1_vo'
I3
tp3077
a(S'w'
I12
tp3078
a(S'p1_tl'
I83
tp3079
a(S'w'
I18
tp3080
a(S'p2_du'
I1
tp3081
a(S'p2_vo'
I8
tp3082
a(S'w'
I10
tp3083
a(S'p2_ll'
I1
tp3084
a(S'p2_th'
I1
tp3085
a(S'w'
I1
tp3086
a(S'p2_ll'
I1
tp3087
a(S'w'
I1
tp3088
a(S'p2_tl'
I29
tp3089
a(S'w'
I13
tp3090
a(S'tr_lr'
I38
tp3091
a(S'w'
I5
tp3092
a(S'tr_ll'
I1
tp3093
a(S'tr_th'
I2
tp3094
a(S'tr_ll'
I1
tp3095
a(S'w'
I2
tp3096
a(S'tr_tl'
I59
tp3097
a(S'w'
I13
tp3098
a(S'ch_no'
I1
tp3099
a(S'ch_tr'
I1
tp3100
a(S'ch_p2'
I1
tp3101
a(S'ch_p1'
I1
tp3102
a(S'w'
I1
tp3103
a(S'ch_no'
I1
tp3104
a(S'ch_tr'
I1
tp3105
a(S'ch_p2'
I1
tp3106
a(S'ch_p1'
I1
tp3107
a(S'w'
I16
tp3108
a(S'no_vo'
I7
tp3109
a(S'w'
I2
tp3110
a(S'no_ll'
I1
tp3111
a(S'no_ll'
I1
tp3112
a(S'w'
I1
tp3113
a(S'no_np'
I2
tp3114
a(S'w'
I633
tp3115
a(S'p1_du'
I2
tp3116
a(S'p1_vo'
I4
tp3117
a(S'w'
I7
tp3118
a(S'p2_du'
I2
tp3119
a(S'p2_vo'
I7
tp3120
a(S'w'
I11
tp3121
a(S'no_vo'
I1
tp3122
a(S'w'
I2
tp3123
a(S'no_ll'
I1
tp3124
a(S'no_ll'
I1
tp3125
a(S'w'
I1
tp3126
a(S'no_np'
I1
tp3127
a(S'w'
I713
tp3128
a(S'p1_vo'
I3
tp3129
a(S'w'
I7
tp3130
a(S'p2_vo'
I6
tp3131
a(S'w'
I10
tp3132
a(S'no_vo'
I0
tp3133
a(S'w'
I3677
tp3134
a(S'no_vo'
I7
tp3135
a(S'w'
I2
tp3136
a(S'no_ll'
I1
tp3137
a(S'no_ll'
I1
tp3138
a(S'w'
I1
tp3139
a(S'no_np'
I2
tp3140
a(S'w'
I715
tp3141
a(S'no_vo'
I1
tp3142
a(S'w'
I2
tp3143
a(S'no_ll'
I1
tp3144
a(S'no_ll'
I1
tp3145
a(S'w'
I1
tp3146
a(S'no_np'
I1
tp3147
a(S'w'
I731
tp3148
a(S'no_vo'
I0
tp3149
a(S'w'
I3657
tp3150
a(S'w'
I15
tp3151
a(S'w'
I8
tp3152
a(S'tr_lr'
I19
tp3153
a(S'w'
I6
tp3154
a(S'tr_ll'
I1
tp3155
a(S'tr_ll'
I1
tp3156
a(S'w'
I26
tp3157
a(S'no_vo'
I7
tp3158
a(S'w'
I2
tp3159
a(S'no_ll'
I1
tp3160
a(S'no_ll'
I1
tp3161
a(S'w'
I1
tp3162
a(S'no_np'
I2
tp3163
a(S'w'
I687
tp3164
a(S'no_vo'
I1
tp3165
a(S'w'
I2
tp3166
a(S'no_ll'
I1
tp3167
a(S'w'
I1
tp3168
a(S'no_ll'
I1
tp3169
a(S'w'
I1
tp3170
a(S'no_np'
I1
tp3171
a(S'w'
I719
tp3172
a(S'p1_tl'
I84
tp3173
a(S'w'
I13
tp3174
a(S'p2_tl'
I31
tp3175
a(S'w'
I14
tp3176
a(S'no_vo'
I0
tp3177
a(S'w'
I2174
tp3178
a(S'p1_tl'
I83
tp3179
a(S'w'
I13
tp3180
a(S'p2_tl'
I29
tp3181
a(S'w'
I1455
tp3182
a(S'p1_tl'
I82
tp3183
a(S'w'
I13
tp3184
a(S'p2_tl'
I27
tp3185
a(S'w'
I14
tp3186
a(S'tr_ll'
I1
tp3187
a(S'tr_ll'
I1
tp3188
a(S'w'
I12
tp3189
a(S'ch_no'
I1
tp3190
a(S'ch_tr'
I1
tp3191
a(S'ch_p2'
I1
tp3192
a(S'ch_p1'
I1
tp3193
a(S'w'
I1
tp3194
a(S'ch_no'
I1
tp3195
a(S'ch_tr'
I1
tp3196
a(S'ch_p2'
I1
tp3197
a(S'ch_p1'
I1
tp3198
a(S'w'
I15
tp3199
a(S'no_vo'
I7
tp3200
a(S'w'
I2
tp3201
a(S'no_ll'
I1
tp3202
a(S'w'
I1
tp3203
a(S'no_ll'
I1
tp3204
a(S'w'
I1
tp3205
a(S'no_np'
I15
tp3206
a(S'w'
I687
tp3207
a(S'no_vo'
I5
tp3208
a(S'w'
I2
tp3209
a(S'no_ll'
I1
tp3210
a(S'no_ll'
I1
tp3211
a(S'w'
I1
tp3212
a(S'no_np'
I13
tp3213
a(S'w'
I729
tp3214
a(S'no_vo'
I3
tp3215
a(S'w'
I2
tp3216
a(S'no_ll'
I1
tp3217
a(S'w'
I1
tp3218
a(S'no_ll'
I1
tp3219
a(S'w'
I1
tp3220
a(S'no_np'
I8
tp3221
a(S'w'
I721
tp3222
a(S'p1_tl'
I83
tp3223
a(S'w'
I15
tp3224
a(S'p2_tl'
I29
tp3225
a(S'w'
I14
tp3226
a(S'no_vo'
I2
tp3227
a(S'w'
I2
tp3228
a(S'no_ll'
I1
tp3229
a(S'no_ll'
I1
tp3230
a(S'w'
I1
tp3231
a(S'no_np'
I6
tp3232
a(S'w'
I711
tp3233
a(S'no_vo'
I1
tp3234
a(S'w'
I2
tp3235
a(S'no_ll'
I1
tp3236
a(S'w'
I1
tp3237
a(S'no_ll'
I1
tp3238
a(S'w'
I1
tp3239
a(S'w'
I719
tp3240
a(S'p1_tl'
I84
tp3241
a(S'w'
I13
tp3242
a(S'p2_tl'
I31
tp3243
a(S'w'
I14
tp3244
a(S'no_vo'
I0
tp3245
a(S'w'
I1454
tp3246
a(S'tr_ll'
I1
tp3247
a(S'tr_th'
I1
tp3248
a(S'tr_ll'
I1
tp3249
a(S'w'
I2
tp3250
a(S'tr_tl'
I125
tp3251
a(S'w'
I24
tp3252
a(S'no_vo'
I7
tp3253
a(S'w'
I2
tp3254
a(S'no_ll'
I1
tp3255
a(S'no_ll'
I1
tp3256
a(S'w'
I1
tp3257
a(S'no_np'
I2
tp3258
a(S'w'
I691
tp3259
a(S'p1_tl'
I83
tp3260
a(S'w'
I13
tp3261
a(S'p2_tl'
I29
tp3262
a(S'w'
I14
tp3263
a(S'no_vo'
I1
tp3264
a(S'w'
I2
tp3265
a(S'no_ll'
I1
tp3266
a(S'no_ll'
I1
tp3267
a(S'w'
I1
tp3268
a(S'no_np'
I1
tp3269
a(S'w'
I703
tp3270
a(S'p1_vo'
I2
tp3271
a(S'w'
I16
tp3272
a(S'no_vo'
I0
tp3273
a(S'w'
I719
tp3274
a(S'p1_tl'
I82
tp3275
a(S'w'
I15
tp3276
a(S'p2_tl'
I27
tp3277
a(S'w'
I1457
tp3278
a(S'p2_vo'
I5
tp3279
a(S'w'
I731
tp3280
a(S'p1_tl'
I83
tp3281
a(S'w'
I16
tp3282
a(S'p2_tl'
I29
tp3283
a(S'w'
I6
tp3284
a(S'p2_vo'
I4
tp3285
a(S'w'
I714
tp3286
a(S'p2_vo'
I3
tp3287
a(S'w'
I12
tp3288
a(S'tr_ll'
I1
tp3289
a(S'tr_ll'
I1
tp3290
a(S'w'
I1
tp3291
a(S'tr_tl'
I29
tp3292
a(S'w'
I10
tp3293
a(S'ch_no'
I1
tp3294
a(S'ch_tr'
I1
tp3295
a(S'ch_p2'
I1
tp3296
a(S'ch_p1'
I1
tp3297
a(S'w'
I1
tp3298
a(S'ch_no'
I1
tp3299
a(S'ch_tr'
I1
tp3300
a(S'ch_p2'
I1
tp3301
a(S'ch_p1'
I1
tp3302
a(S'w'
I16
tp3303
a(S'no_vo'
I7
tp3304
a(S'w'
I2
tp3305
a(S'no_ll'
I1
tp3306
a(S'no_ll'
I1
tp3307
a(S'w'
I1
tp3308
a(S'no_np'
I2
tp3309
a(S'w'
I687
tp3310
a(S'p1_tl'
I84
tp3311
a(S'w'
I14
tp3312
a(S'p2_tl'
I31
tp3313
a(S'w'
I5
tp3314
a(S'p2_vo'
I2
tp3315
a(S'w'
I11
tp3316
a(S'no_vo'
I1
tp3317
a(S'w'
I2
tp3318
a(S'no_ll'
I1
tp3319
a(S'no_ll'
I1
tp3320
a(S'w'
I1
tp3321
a(S'no_np'
I1
tp3322
a(S'w'
I715
tp3323
a(S'no_vo'
I0
tp3324
a(S'w'
I1453
tp3325
a(S'p1_tl'
I83
tp3326
a(S'w'
I14
tp3327
a(S'p2_tl'
I29
tp3328
a(S'w'
I1453
tp3329
a(S'p1_tl'
I82
tp3330
a(S'w'
I14
tp3331
a(S'p2_tl'
I27
tp3332
a(S'w'
I728
tp3333
a(S'p1_du'
I1
tp3334
a(S'p1_vo'
I3
tp3335
a(S'w'
I11
tp3336
a(S'p1_ll'
I1
tp3337
a(S'p1_th'
I0
tp3338
a(S'p1_ll'
I1
tp3339
a(S'w'
I2
tp3340
a(S'p1_tl'
I226
tp3341
a(S'w'
I16
tp3342
a(S'p2_du'
I1
tp3343
a(S'p2_vo'
I8
tp3344
a(S'w'
I11
tp3345
a(S'p2_ll'
I1
tp3346
a(S'p2_th'
I0
tp3347
a(S'p2_ll'
I1
tp3348
a(S'w'
I1
tp3349
a(S'p2_tl'
I190
tp3350
a(S'w'
I13
tp3351
a(S'tr_lr'
I38
tp3352
a(S'w'
I6
tp3353
a(S'tr_ll'
I1
tp3354
a(S'tr_th'
I2
tp3355
a(S'tr_ll'
I1
tp3356
a(S'w'
I1
tp3357
a(S'tr_tl'
I59
tp3358
a(S'w'
I10
tp3359
a(S'ch_no'
I1
tp3360
a(S'ch_tr'
I1
tp3361
a(S'ch_p2'
I1
tp3362
a(S'ch_p1'
I1
tp3363
a(S'w'
I1
tp3364
a(S'ch_no'
I1
tp3365
a(S'ch_tr'
I1
tp3366
a(S'ch_p2'
I1
tp3367
a(S'ch_p1'
I1
tp3368
a(S'w'
I16
tp3369
a(S'no_vo'
I7
tp3370
a(S'w'
I2
tp3371
a(S'no_ll'
I1
tp3372
a(S'no_ll'
I1
tp3373
a(S'w'
I1
tp3374
a(S'no_np'
I2
tp3375
a(S'w'
I637
tp3376
a(S'p1_du'
I2
tp3377
a(S'p1_vo'
I4
tp3378
a(S'w'
I7
tp3379
a(S'p2_du'
I2
tp3380
a(S'p2_vo'
I7
tp3381
a(S'w'
I11
tp3382
a(S'no_vo'
I1
tp3383
a(S'w'
I2
tp3384
a(S'no_ll'
I1
tp3385
a(S'no_ll'
I1
tp3386
a(S'w'
I1
tp3387
a(S'no_np'
I1
tp3388
a(S'w'
I713
tp3389
a(S'p1_vo'
I3
tp3390
a(S'w'
I7
tp3391
a(S'p2_vo'
I6
tp3392
a(S'w'
I10
tp3393
a(S'no_vo'
I0
tp3394
a(S'w'
I3677
tp3395
a(S'no_vo'
I7
tp3396
a(S'w'
I2
tp3397
a(S'no_ll'
I1
tp3398
a(S'no_ll'
I1
tp3399
a(S'w'
I1
tp3400
a(S'no_np'
I2
tp3401
a(S'w'
I716
tp3402
a(S'no_vo'
I1
tp3403
a(S'w'
I2
tp3404
a(S'no_ll'
I1
tp3405
a(S'no_ll'
I1
tp3406
a(S'w'
I1
tp3407
a(S'no_np'
I1
tp3408
a(S'w'
I730
tp3409
a(S'no_vo'
I0
tp3410
a(S'w'
I3657
tp3411
a(S'w'
I15
tp3412
a(S'w'
I8
tp3413
a(S'tr_lr'
I19
tp3414
a(S'w'
I6
tp3415
a(S'tr_ll'
I1
tp3416
a(S'tr_ll'
I1
tp3417
a(S'w'
I11
tp3418
a(S'ch_no'
I1
tp3419
a(S'ch_tr'
I1
tp3420
a(S'ch_p2'
I1
tp3421
a(S'ch_p1'
I1
tp3422
a(S'w'
I1
tp3423
a(S'ch_no'
I1
tp3424
a(S'ch_tr'
I1
tp3425
a(S'ch_p2'
I1
tp3426
a(S'ch_p1'
I1
tp3427
a(S'w'
I16
tp3428
a(S'no_vo'
I7
tp3429
a(S'w'
I2
tp3430
a(S'no_ll'
I1
tp3431
a(S'no_ll'
I1
tp3432
a(S'w'
I2
tp3433
a(S'no_np'
I2
tp3434
a(S'w'
I685
tp3435
a(S'no_vo'
I1
tp3436
a(S'w'
I2
tp3437
a(S'no_ll'
I1
tp3438
a(S'w'
I1
tp3439
a(S'no_ll'
I1
tp3440
a(S'w'
I1
tp3441
a(S'no_np'
I1
tp3442
a(S'w'
I718
tp3443
a(S'p1_tl'
I227
tp3444
a(S'w'
I14
tp3445
a(S'p2_tl'
I192
tp3446
a(S'w'
I13
tp3447
a(S'no_vo'
I0
tp3448
a(S'w'
I2174
tp3449
a(S'p1_tl'
I226
tp3450
a(S'w'
I13
tp3451
a(S'p2_tl'
I190
tp3452
a(S'w'
I1455
tp3453
a(S'p1_tl'
I225
tp3454
a(S'w'
I13
tp3455
a(S'p2_tl'
I188
tp3456
a(S'w'
I14
tp3457
a(S'tr_ll'
I1
tp3458
a(S'tr_ll'
I1
tp3459
a(S'w'
I12
tp3460
a(S'ch_no'
I1
tp3461
a(S'ch_tr'
I1
tp3462
a(S'ch_p2'
I1
tp3463
a(S'ch_p1'
I1
tp3464
a(S'w'
I1
tp3465
a(S'ch_no'
I1
tp3466
a(S'ch_tr'
I1
tp3467
a(S'ch_p2'
I1
tp3468
a(S'ch_p1'
I1
tp3469
a(S'w'
I15
tp3470
a(S'no_vo'
I7
tp3471
a(S'w'
I2
tp3472
a(S'no_ll'
I1
tp3473
a(S'w'
I1
tp3474
a(S'no_ll'
I1
tp3475
a(S'w'
I1
tp3476
a(S'no_np'
I15
tp3477
a(S'w'
I688
tp3478
a(S'no_vo'
I5
tp3479
a(S'w'
I2
tp3480
a(S'no_ll'
I1
tp3481
a(S'no_ll'
I1
tp3482
a(S'w'
I1
tp3483
a(S'no_np'
I13
tp3484
a(S'w'
I728
tp3485
a(S'no_vo'
I3
tp3486
a(S'w'
I2
tp3487
a(S'no_ll'
I1
tp3488
a(S'w'
I1
tp3489
a(S'no_ll'
I1
tp3490
a(S'w'
I1
tp3491
a(S'no_np'
I8
tp3492
a(S'w'
I721
tp3493
a(S'p1_tl'
I226
tp3494
a(S'w'
I15
tp3495
a(S'p2_tl'
I190
tp3496
a(S'w'
I14
tp3497
a(S'no_vo'
I2
tp3498
a(S'w'
I2
tp3499
a(S'no_ll'
I1
tp3500
a(S'no_ll'
I1
tp3501
a(S'w'
I1
tp3502
a(S'no_np'
I6
tp3503
a(S'w'
I711
tp3504
a(S'no_vo'
I1
tp3505
a(S'w'
I2
tp3506
a(S'no_ll'
I1
tp3507
a(S'w'
I1
tp3508
a(S'no_ll'
I1
tp3509
a(S'w'
I1
tp3510
a(S'w'
I719
tp3511
a(S'p1_tl'
I227
tp3512
a(S'w'
I13
tp3513
a(S'p2_tl'
I192
tp3514
a(S'w'
I14
tp3515
a(S'no_vo'
I0
tp3516
a(S'w'
I1454
tp3517
a(S'tr_ll'
I1
tp3518
a(S'tr_th'
I1
tp3519
a(S'tr_ll'
I1
tp3520
a(S'w'
I2
tp3521
a(S'tr_tl'
I125
tp3522
a(S'w'
I24
tp3523
a(S'no_vo'
I7
tp3524
a(S'w'
I2
tp3525
a(S'no_ll'
I1
tp3526
a(S'no_ll'
I1
tp3527
a(S'w'
I1
tp3528
a(S'no_np'
I2
tp3529
a(S'w'
I691
tp3530
a(S'p1_tl'
I226
tp3531
a(S'w'
I13
tp3532
a(S'p2_tl'
I190
tp3533
a(S'w'
I14
tp3534
a(S'no_vo'
I1
tp3535
a(S'w'
I2
tp3536
a(S'no_ll'
I1
tp3537
a(S'no_ll'
I1
tp3538
a(S'w'
I1
tp3539
a(S'no_np'
I1
tp3540
a(S'w'
I703
tp3541
a(S'p1_vo'
I2
tp3542
a(S'w'
I16
tp3543
a(S'no_vo'
I0
tp3544
a(S'w'
I719
tp3545
a(S'p1_tl'
I225
tp3546
a(S'w'
I15
tp3547
a(S'p2_tl'
I188
tp3548
a(S'w'
I1457
tp3549
a(S'p2_vo'
I5
tp3550
a(S'w'
I731
tp3551
a(S'p1_tl'
I226
tp3552
a(S'w'
I16
tp3553
a(S'p2_tl'
I190
tp3554
a(S'w'
I6
tp3555
a(S'p2_vo'
I4
tp3556
a(S'w'
I714
tp3557
a(S'p2_vo'
I3
tp3558
a(S'w'
I12
tp3559
a(S'tr_ll'
I1
tp3560
a(S'tr_ll'
I1
tp3561
a(S'w'
I1
tp3562
a(S'tr_tl'
I29
tp3563
a(S'w'
I25
tp3564
a(S'no_vo'
I8
tp3565
a(S'w'
I2
tp3566
a(S'no_ll'
I1
tp3567
a(S'no_ll'
I1
tp3568
a(S'w'
I1
tp3569
a(S'no_np'
I2
tp3570
a(S'w'
I689
tp3571
a(S'p1_tl'
I227
tp3572
a(S'w'
I14
tp3573
a(S'p2_tl'
I192
tp3574
a(S'w'
I5
tp3575
a(S'p2_vo'
I2
tp3576
a(S'w'
I13
tp3577
a(S'no_vo'
I6
tp3578
a(S'w'
I2
tp3579
a(S'no_ll'
I1
tp3580
a(S'no_ll'
I1
tp3581
a(S'w'
I1
tp3582
a(S'no_np'
I1
tp3583
a(S'w'
I2166
tp3584
a(S'p1_tl'
I226
tp3585
a(S'w'
I14
tp3586
a(S'p2_tl'
I190
tp3587
a(S'w'
I1454
tp3588
a(S'p1_tl'
I225
tp3589
a(S'w'
I14
tp3590
a(S'p2_tl'
I188
tp3591
a(S'w'
I14
tp3592
a(S'no_vo'
I5
tp3593
a(S'w'
I2
tp3594
a(S'no_ll'
I1
tp3595
a(S'no_ll'
I1
tp3596
a(S'w'
I1
tp3597
a(S'w'
I713
tp3598
a(S'p1_du'
I1
tp3599
a(S'p1_vo'
I3
tp3600
a(S'w'
I11
tp3601
a(S'p1_ll'
I1
tp3602
a(S'p1_th'
I1
tp3603
a(S'p1_ll'
I1
tp3604
a(S'w'
I2
tp3605
a(S'p1_tl'
I83
tp3606
a(S'w'
I15
tp3607
a(S'p2_du'
I1
tp3608
a(S'p2_vo'
I8
tp3609
a(S'w'
I12
tp3610
a(S'p2_tl'
I201
tp3611
a(S'w'
I19
tp3612
a(S'tr_lr'
I38
tp3613
a(S'w'
I6
tp3614
a(S'tr_ll'
I1
tp3615
a(S'tr_ll'
I1
tp3616
a(S'w'
I1
tp3617
a(S'tr_tl'
I252
tp3618
a(S'w'
I14
tp3619
a(S'ch_no'
I1
tp3620
a(S'ch_tr'
I1
tp3621
a(S'ch_p2'
I1
tp3622
a(S'ch_p1'
I1
tp3623
a(S'w'
I1
tp3624
a(S'ch_no'
I1
tp3625
a(S'ch_tr'
I1
tp3626
a(S'ch_p2'
I1
tp3627
a(S'ch_p1'
I1
tp3628
a(S'w'
I16
tp3629
a(S'no_vo'
I7
tp3630
a(S'w'
I2
tp3631
a(S'no_ll'
I1
tp3632
a(S'no_ll'
I1
tp3633
a(S'w'
I1
tp3634
a(S'no_np'
I2
tp3635
a(S'w'
I625
tp3636
a(S'p1_du'
I2
tp3637
a(S'p1_vo'
I4
tp3638
a(S'w'
I7
tp3639
a(S'p2_du'
I2
tp3640
a(S'p2_vo'
I7
tp3641
a(S'w'
I11
tp3642
a(S'no_vo'
I1
tp3643
a(S'w'
I2
tp3644
a(S'no_ll'
I1
tp3645
a(S'no_ll'
I1
tp3646
a(S'w'
I1
tp3647
a(S'no_np'
I1
tp3648
a(S'w'
I713
tp3649
a(S'p1_vo'
I3
tp3650
a(S'w'
I7
tp3651
a(S'p2_vo'
I6
tp3652
a(S'w'
I11
tp3653
a(S'no_vo'
I0
tp3654
a(S'w'
I3676
tp3655
a(S'no_vo'
I7
tp3656
a(S'w'
I2
tp3657
a(S'no_ll'
I1
tp3658
a(S'no_ll'
I1
tp3659
a(S'w'
I1
tp3660
a(S'no_np'
I2
tp3661
a(S'w'
I716
tp3662
a(S'no_vo'
I1
tp3663
a(S'w'
I2
tp3664
a(S'no_ll'
I1
tp3665
a(S'no_ll'
I1
tp3666
a(S'w'
I1
tp3667
a(S'no_np'
I1
tp3668
a(S'w'
I731
tp3669
a(S'no_vo'
I0
tp3670
a(S'w'
I3657
tp3671
a(S'w'
I15
tp3672
a(S'w'
I8
tp3673
a(S'tr_lr'
I19
tp3674
a(S'w'
I6
tp3675
a(S'tr_ll'
I1
tp3676
a(S'tr_ll'
I1
tp3677
a(S'w'
I26
tp3678
a(S'no_vo'
I7
tp3679
a(S'w'
I2
tp3680
a(S'no_ll'
I1
tp3681
a(S'no_ll'
I1
tp3682
a(S'w'
I1
tp3683
a(S'no_np'
I2
tp3684
a(S'w'
I687
tp3685
a(S'no_vo'
I1
tp3686
a(S'w'
I2
tp3687
a(S'no_ll'
I1
tp3688
a(S'no_ll'
I1
tp3689
a(S'w'
I1
tp3690
a(S'no_np'
I1
tp3691
a(S'w'
I719
tp3692
a(S'p1_tl'
I84
tp3693
a(S'w'
I13
tp3694
a(S'p2_tl'
I203
tp3695
a(S'w'
I14
tp3696
a(S'no_vo'
I0
tp3697
a(S'w'
I2175
tp3698
a(S'p1_tl'
I83
tp3699
a(S'w'
I5
tp3700
a(S'p1_vo'
I2
tp3701
a(S'w'
I11
tp3702
a(S'p2_tl'
I201
tp3703
a(S'w'
I1460
tp3704
a(S'p1_du'
I1
tp3705
a(S'p1_vo'
I3
tp3706
a(S'w'
I11
tp3707
a(S'p1_tl'
I252
tp3708
a(S'w'
I11
tp3709
a(S'p2_tl'
I199
tp3710
a(S'w'
I14
tp3711
a(S'tr_ll'
I1
tp3712
a(S'tr_ll'
I1
tp3713
a(S'w'
I12
tp3714
a(S'ch_no'
I1
tp3715
a(S'ch_tr'
I1
tp3716
a(S'ch_p2'
I1
tp3717
a(S'ch_p1'
I1
tp3718
a(S'w'
I1
tp3719
a(S'ch_no'
I1
tp3720
a(S'ch_tr'
I1
tp3721
a(S'ch_p2'
I1
tp3722
a(S'ch_p1'
I1
tp3723
a(S'w'
I15
tp3724
a(S'no_vo'
I7
tp3725
a(S'w'
I2
tp3726
a(S'no_ll'
I1
tp3727
a(S'w'
I1
tp3728
a(S'no_ll'
I1
tp3729
a(S'w'
I1
tp3730
a(S'no_np'
I15
tp3731
a(S'w'
I659
tp3732
a(S'p1_du'
I2
tp3733
a(S'p1_vo'
I4
tp3734
a(S'w'
I17
tp3735
a(S'no_vo'
I5
tp3736
a(S'w'
I2
tp3737
a(S'no_ll'
I1
tp3738
a(S'no_ll'
I1
tp3739
a(S'w'
I1
tp3740
a(S'no_np'
I13
tp3741
a(S'w'
I713
tp3742
a(S'p1_vo'
I3
tp3743
a(S'w'
I16
tp3744
a(S'no_vo'
I3
tp3745
a(S'w'
I2
tp3746
a(S'no_ll'
I1
tp3747
a(S'no_ll'
I1
tp3748
a(S'w'
I1
tp3749
a(S'no_np'
I8
tp3750
a(S'w'
I723
tp3751
a(S'p2_tl'
I201
tp3752
a(S'w'
I14
tp3753
a(S'no_vo'
I2
tp3754
a(S'w'
I2
tp3755
a(S'no_ll'
I1
tp3756
a(S'no_ll'
I1
tp3757
a(S'w'
I1
tp3758
a(S'no_np'
I6
tp3759
a(S'w'
I718
tp3760
a(S'no_vo'
I1
tp3761
a(S'w'
I2
tp3762
a(S'no_ll'
I1
tp3763
a(S'w'
I1
tp3764
a(S'no_ll'
I1
tp3765
a(S'w'
I1
tp3766
a(S'w'
I725
tp3767
a(S'p2_tl'
I203
tp3768
a(S'w'
I13
tp3769
a(S'no_vo'
I0
tp3770
a(S'w'
I1458
tp3771
a(S'p1_du'
I1
tp3772
a(S'w'
I11
tp3773
a(S'p1_tl'
I147
tp3774
a(S'w'
I20
tp3775
a(S'tr_ll'
I1
tp3776
a(S'tr_ll'
I1
tp3777
a(S'w'
I1
tp3778
a(S'tr_tl'
I83
tp3779
a(S'w'
I25
tp3780
a(S'no_vo'
I7
tp3781
a(S'w'
I2
tp3782
a(S'no_ll'
I1
tp3783
a(S'no_ll'
I1
tp3784
a(S'w'
I1
tp3785
a(S'no_np'
I2
tp3786
a(S'w'
I665
tp3787
a(S'p1_du'
I2
tp3788
a(S'p1_vo'
I4
tp3789
a(S'w'
I10
tp3790
a(S'p2_tl'
I201
tp3791
a(S'w'
I14
tp3792
a(S'no_vo'
I1
tp3793
a(S'w'
I2
tp3794
a(S'no_ll'
I1
tp3795
a(S'no_ll'
I1
tp3796
a(S'w'
I1
tp3797
a(S'no_np'
I1
tp3798
a(S'w'
I707
tp3799
a(S'p1_vo'
I3
tp3800
a(S'w'
I16
tp3801
a(S'no_vo'
I0
tp3802
a(S'w'
I725
tp3803
a(S'p2_tl'
I199
tp3804
a(S'w'
I2202
tp3805
a(S'p2_tl'
I201
tp3806
a(S'w'
I732
tp3807
a(S'p1_du'
I1
tp3808
a(S'w'
I11
tp3809
a(S'p1_tl'
I83
tp3810
a(S'w'
I19
tp3811
a(S'tr_ll'
I1
tp3812
a(S'tr_th'
I0
tp3813
a(S'tr_ll'
I1
tp3814
a(S'w'
I1
tp3815
a(S'tr_tl'
I254
tp3816
a(S'w'
I10
tp3817
a(S'ch_no'
I1
tp3818
a(S'ch_tr'
I1
tp3819
a(S'ch_p2'
I1
tp3820
a(S'ch_p1'
I1
tp3821
a(S'w'
I1
tp3822
a(S'ch_no'
I1
tp3823
a(S'ch_tr'
I1
tp3824
a(S'ch_p2'
I1
tp3825
a(S'ch_p1'
I1
tp3826
a(S'w'
I16
tp3827
a(S'no_vo'
I7
tp3828
a(S'w'
I2
tp3829
a(S'no_ll'
I1
tp3830
a(S'no_ll'
I1
tp3831
a(S'w'
I1
tp3832
a(S'no_np'
I2
tp3833
a(S'w'
I668
tp3834
a(S'p1_du'
I2
tp3835
a(S'p1_vo'
I4
tp3836
a(S'w'
I10
tp3837
a(S'p2_tl'
I203
tp3838
a(S'w'
I14
tp3839
a(S'no_vo'
I1
tp3840
a(S'w'
I2
tp3841
a(S'no_ll'
I1
tp3842
a(S'no_ll'
I1
tp3843
a(S'w'
I1
tp3844
a(S'no_np'
I1
tp3845
a(S'w'
I707
tp3846
a(S'p1_vo'
I3
tp3847
a(S'w'
I16
tp3848
a(S'no_vo'
I0
tp3849
a(S'w'
I1455
tp3850
a(S'p2_tl'
I201
tp3851
a(S'w'
I1468
tp3852
a(S'p2_tl'
I199
tp3853
a(S'w'
I739
tp3854
a(S'p1_du'
I1
tp3855
a(S'w'
I11
tp3856
a(S'p1_ll'
I1
tp3857
a(S'p1_th'
I0
tp3858
a(S'p1_ll'
I1
tp3859
a(S'w'
I1
tp3860
a(S'p1_tl'
I254
tp3861
a(S'w'
I19
tp3862
a(S'tr_lr'
I38
tp3863
a(S'w'
I5
tp3864
a(S'tr_ll'
I1
tp3865
a(S'tr_th'
I1
tp3866
a(S'tr_ll'
I1
tp3867
a(S'w'
I2
tp3868
a(S'tr_tl'
I252
tp3869
a(S'w'
I9
tp3870
a(S'ch_no'
I1
tp3871
a(S'ch_tr'
I1
tp3872
a(S'ch_p2'
I1
tp3873
a(S'ch_p1'
I1
tp3874
a(S'w'
I1
tp3875
a(S'ch_no'
I1
tp3876
a(S'ch_tr'
I1
tp3877
a(S'ch_p2'
I1
tp3878
a(S'ch_p1'
I1
tp3879
a(S'w'
I16
tp3880
a(S'no_vo'
I7
tp3881
a(S'w'
I2
tp3882
a(S'no_ll'
I1
tp3883
a(S'no_ll'
I1
tp3884
a(S'w'
I2
tp3885
a(S'no_np'
I2
tp3886
a(S'w'
I657
tp3887
a(S'p1_du'
I2
tp3888
a(S'p1_vo'
I4
tp3889
a(S'w'
I16
tp3890
a(S'no_vo'
I1
tp3891
a(S'w'
I2
tp3892
a(S'no_ll'
I1
tp3893
a(S'no_ll'
I1
tp3894
a(S'w'
I1
tp3895
a(S'no_np'
I1
tp3896
a(S'w'
I714
tp3897
a(S'p1_vo'
I3
tp3898
a(S'w'
I12
tp3899
a(S'p2_tl'
I201
tp3900
a(S'w'
I14
tp3901
a(S'no_vo'
I0
tp3902
a(S'w'
I1446
tp3903
a(S'p2_tl'
I203
tp3904
a(S'w'
I2201
tp3905
a(S'p2_tl'
I201
tp3906
a(S'w'
I6
tp3907
a(S'p2_vo'
I5
tp3908
a(S'w'
I26
tp3909
a(S'no_vo'
I7
tp3910
a(S'w'
I2
tp3911
a(S'no_ll'
I1
tp3912
a(S'no_ll'
I1
tp3913
a(S'w'
I1
tp3914
a(S'no_np'
I2
tp3915
a(S'w'
I696
tp3916
a(S'p2_vo'
I4
tp3917
a(S'w'
I11
tp3918
a(S'no_vo'
I1
tp3919
a(S'w'
I2
tp3920
a(S'no_ll'
I1
tp3921
a(S'no_ll'
I1
tp3922
a(S'w'
I1
tp3923
a(S'no_np'
I1
tp3924
a(S'w'
I723
tp3925
a(S'p2_tl'
I199
tp3926
a(S'w'
I5
tp3927
a(S'p2_vo'
I3
tp3928
a(S'w'
I11
tp3929
a(S'no_vo'
I0
tp3930
a(S'w'
I715
tp3931
a(S'p2_vo'
I2
tp3932
a(S'w'
I1472
tp3933
a(S'p2_tl'
I201
tp3934
a(S'w'
I1460
tp3935
a(S'w'
I14
tp3936
a(S'p2_tl'
I203
tp3937
a(S'w'
I9
tp3938
a(S'tr_lr'
I19
tp3939
a(S'w'
I6
tp3940
a(S'tr_ll'
I1
tp3941
a(S'tr_ll'
I1
tp3942
a(S'w'
I11
tp3943
a(S'ch_no'
I1
tp3944
a(S'ch_tr'
I1
tp3945
a(S'ch_p2'
I1
tp3946
a(S'ch_p1'
I1
tp3947
a(S'w'
I1
tp3948
a(S'ch_no'
I1
tp3949
a(S'ch_tr'
I1
tp3950
a(S'ch_p2'
I1
tp3951
a(S'ch_p1'
I1
tp3952
a(S'w'
I16
tp3953
a(S'no_vo'
I7
tp3954
a(S'w'
I2
tp3955
a(S'no_ll'
I1
tp3956
a(S'no_ll'
I1
tp3957
a(S'w'
I1
tp3958
a(S'no_np'
I2
tp3959
a(S'w'
I687
tp3960
a(S'no_vo'
I1
tp3961
a(S'w'
I2
tp3962
a(S'no_ll'
I1
tp3963
a(S'no_ll'
I1
tp3964
a(S'w'
I1
tp3965
a(S'no_np'
I1
tp3966
a(S'w'
I717
tp3967
a(S'p1_tl'
I255
tp3968
a(S'w'
I20
tp3969
a(S'no_vo'
I0
tp3970
a(S'w'
I720
tp3971
a(S'p2_tl'
I201
tp3972
a(S'w'
I1462
tp3973
a(S'p1_tl'
I254
tp3974
a(S'w'
I13
tp3975
a(S'p2_tl'
I199
tp3976
a(S'w'
I1454
tp3977
a(S'p1_tl'
I253
tp3978
a(S'w'
I16
tp3979
a(S'p2_du'
I1
tp3980
a(S'p2_vo'
I8
tp3981
a(S'w'
I12
tp3982
a(S'p2_tl'
I254
tp3983
a(S'w'
I12
tp3984
a(S'tr_ll'
I1
tp3985
a(S'tr_ll'
I1
tp3986
a(S'w'
I11
tp3987
a(S'ch_no'
I1
tp3988
a(S'ch_tr'
I1
tp3989
a(S'ch_p2'
I1
tp3990
a(S'ch_p1'
I1
tp3991
a(S'w'
I1
tp3992
a(S'ch_no'
I1
tp3993
a(S'ch_tr'
I1
tp3994
a(S'ch_p2'
I1
tp3995
a(S'ch_p1'
I1
tp3996
a(S'w'
I16
tp3997
a(S'no_vo'
I7
tp3998
a(S'w'
I2
tp3999
a(S'no_ll'
I1
tp4000
a(S'no_ll'
I1
tp4001
a(S'w'
I1
tp4002
a(S'no_np'
I15
tp4003
a(S'w'
I667
tp4004
a(S'p2_du'
I2
tp4005
a(S'p2_vo'
I7
tp4006
a(S'w'
I11
tp4007
a(S'no_vo'
I5
tp4008
a(S'w'
I2
tp4009
a(S'no_ll'
I1
tp4010
a(S'no_ll'
I1
tp4011
a(S'w'
I1
tp4012
a(S'no_np'
I13
tp4013
a(S'w'
I719
tp4014
a(S'p2_vo'
I6
tp4015
a(S'w'
I10
tp4016
a(S'no_vo'
I3
tp4017
a(S'w'
I2
tp4018
a(S'no_ll'
I1
tp4019
a(S'no_ll'
I1
tp4020
a(S'w'
I1
tp4021
a(S'no_np'
I8
tp4022
a(S'w'
I720
tp4023
a(S'p1_tl'
I254
tp4024
a(S'w'
I19
tp4025
a(S'no_vo'
I2
tp4026
a(S'w'
I2
tp4027
a(S'no_ll'
I1
tp4028
a(S'w'
I1
tp4029
a(S'no_ll'
I1
tp4030
a(S'w'
I1
tp4031
a(S'no_np'
I6
tp4032
a(S'w'
I720
tp4033
a(S'no_vo'
I1
tp4034
a(S'w'
I2
tp4035
a(S'no_ll'
I1
tp4036
a(S'w'
I1
tp4037
a(S'no_ll'
I1
tp4038
a(S'w'
I1
tp4039
a(S'w'
I718
tp4040
a(S'p1_tl'
I255
tp4041
a(S'w'
I19
tp4042
a(S'no_vo'
I0
tp4043
a(S'w'
I1458
tp4044
a(S'p2_du'
I1
tp4045
a(S'p2_vo'
I8
tp4046
a(S'w'
I12
tp4047
a(S'p2_tl'
I201
tp4048
a(S'w'
I14
tp4049
a(S'tr_ll'
I1
tp4050
a(S'tr_ll'
I1
tp4051
a(S'w'
I2
tp4052
a(S'tr_tl'
I83
tp4053
a(S'w'
I24
tp4054
a(S'no_vo'
I7
tp4055
a(S'w'
I2
tp4056
a(S'no_ll'
I1
tp4057
a(S'no_ll'
I1
tp4058
a(S'w'
I1
tp4059
a(S'no_np'
I2
tp4060
a(S'w'
I670
tp4061
a(S'p1_tl'
I254
tp4062
a(S'w'
I10
tp4063
a(S'p2_du'
I2
tp4064
a(S'p2_vo'
I7
tp4065
a(S'w'
I11
tp4066
a(S'no_vo'
I1
tp4067
a(S'w'
I2
tp4068
a(S'no_ll'
I1
tp4069
a(S'no_ll'
I1
tp4070
a(S'w'
I1
tp4071
a(S'no_np'
I1
tp4072
a(S'w'
I712
tp4073
a(S'p2_vo'
I6
tp4074
a(S'w'
I10
tp4075
a(S'no_vo'
I0
tp4076
a(S'w'
I721
tp4077
a(S'p1_tl'
I253
tp4078
a(S'w'
I2204
tp4079
a(S'p1_tl'
I254
tp4080
a(S'w'
I738
tp4081
a(S'p2_du'
I1
tp4082
a(S'p2_vo'
I8
tp4083
a(S'w'
I12
tp4084
a(S'p2_tl'
I169
tp4085
a(S'w'
I13
tp4086
a(S'tr_ll'
I1
tp4087
a(S'tr_th'
I0
tp4088
a(S'tr_ll'
I1
tp4089
a(S'w'
I1
tp4090
a(S'tr_tl'
I254
tp4091
a(S'w'
I25
tp4092
a(S'no_vo'
I8
tp4093
a(S'w'
I2
tp4094
a(S'no_ll'
I1
tp4095
a(S'no_ll'
I1
tp4096
a(S'w'
I1
tp4097
a(S'no_np'
I2
tp4098
a(S'w'
I673
tp4099
a(S'p1_tl'
I255
tp4100
a(S'w'
I10
tp4101
a(S'p2_du'
I2
tp4102
a(S'p2_vo'
I7
tp4103
a(S'w'
I12
tp4104
a(S'no_vo'
I6
tp4105
a(S'w'
I2
tp4106
a(S'no_ll'
I1
tp4107
a(S'no_ll'
I1
tp4108
a(S'w'
I2
tp4109
a(S'no_np'
I1
tp4110
a(S'w'
I711
tp4111
a(S'p2_vo'
I6
tp4112
a(S'w'
I1465
tp4113
a(S'p1_tl'
I254
tp4114
a(S'w'
I1467
tp4115
a(S'p1_tl'
I253
tp4116
a(S'w'
I19
tp4117
a(S'no_vo'
I5
tp4118
a(S'w'
I2
tp4119
a(S'no_ll'
I1
tp4120
a(S'no_ll'
I1
tp4121
a(S'w'
I1
tp4122
a(S'w'
I726
tp4123
a(S'p2_du'
I1
tp4124
a(S'p2_vo'
I8
tp4125
a(S'w'
I12
tp4126
a(S'p2_tl'
I142
tp4127
a(S'w'
I12
tp4128
a(S'tr_lr'
I38
tp4129
a(S'w'
I6
tp4130
a(S'tr_ll'
I1
tp4131
a(S'tr_th'
I1
tp4132
a(S'tr_ll'
I1
tp4133
a(S'w'
I1
tp4134
a(S'tr_tl'
I252
tp4135
a(S'w'
I14
tp4136
a(S'ch_no'
I1
tp4137
a(S'ch_tr'
I1
tp4138
a(S'ch_p2'
I1
tp4139
a(S'ch_p1'
I1
tp4140
a(S'w'
I1
tp4141
a(S'ch_no'
I1
tp4142
a(S'ch_tr'
I1
tp4143
a(S'ch_p2'
I1
tp4144
a(S'ch_p1'
I1
tp4145
a(S'w'
I16
tp4146
a(S'no_vo'
I7
tp4147
a(S'w'
I2
tp4148
a(S'no_ll'
I1
tp4149
a(S'no_ll'
I1
tp4150
a(S'w'
I1
tp4151
a(S'no_np'
I2
tp4152
a(S'w'
I659
tp4153
a(S'p2_du'
I2
tp4154
a(S'p2_vo'
I7
tp4155
a(S'w'
I10
tp4156
a(S'no_vo'
I1
tp4157
a(S'w'
I2
tp4158
a(S'no_ll'
I1
tp4159
a(S'no_ll'
I1
tp4160
a(S'w'
I1
tp4161
a(S'no_np'
I1
tp4162
a(S'w'
I719
tp4163
a(S'p1_tl'
I254
tp4164
a(S'w'
I11
tp4165
a(S'p2_vo'
I6
tp4166
a(S'w'
I10
tp4167
a(S'no_vo'
I0
tp4168
a(S'w'
I1444
tp4169
a(S'p1_tl'
I255
tp4170
a(S'w'
I2202
tp4171
a(S'p1_tl'
I254
tp4172
a(S'w'
I34
tp4173
a(S'no_vo'
I7
tp4174
a(S'w'
I2
tp4175
a(S'no_ll'
I1
tp4176
a(S'w'
I1
tp4177
a(S'no_ll'
I1
tp4178
a(S'w'
I1
tp4179
a(S'no_np'
I2
tp4180
a(S'w'
I706
tp4181
a(S'no_vo'
I1
tp4182
a(S'w'
I2
tp4183
a(S'no_ll'
I1
tp4184
a(S'w'
I1
tp4185
a(S'no_ll'
I1
tp4186
a(S'w'
I1
tp4187
a(S'no_np'
I1
tp4188
a(S'w'
I719
tp4189
a(S'p1_tl'
I253
tp4190
a(S'w'
I19
tp4191
a(S'no_vo'
I0
tp4192
a(S'w'
I2184
tp4193
a(S'p1_tl'
I254
tp4194
a(S'w'
I6
tp4195
a(S'p1_vo'
I2
tp4196
a(S'w'
I9
tp4197
a(S'p2_vo'
I5
tp4198
a(S'w'
I721
tp4199
a(S'p2_vo'
I4
tp4200
a(S'w'
I730
tp4201
a(S'p1_tl'
I255
tp4202
a(S'w'
I14
tp4203
a(S'w'
I5
tp4204
a(S'p2_vo'
I3
tp4205
a(S'w'
I6
tp4206
a(S'tr_lr'
I19
tp4207
a(S'w'
I6
tp4208
a(S'tr_ll'
I1
tp4209
a(S'tr_ll'
I1
tp4210
a(S'w'
I26
tp4211
a(S'no_vo'
I7
tp4212
a(S'w'
I2
tp4213
a(S'no_ll'
I1
tp4214
a(S'no_ll'
I1
tp4215
a(S'w'
I1
tp4216
a(S'no_np'
I2
tp4217
a(S'w'
I677
tp4218
a(S'p2_vo'
I2
tp4219
a(S'w'
I11
tp4220
a(S'no_vo'
I1
tp4221
a(S'w'
I2
tp4222
a(S'no_ll'
I1
tp4223
a(S'no_ll'
I1
tp4224
a(S'w'
I1
tp4225
a(S'no_np'
I1
tp4226
a(S'w'
I723
tp4227
a(S'p2_tl'
I144
tp4228
a(S'w'
I15
tp4229
a(S'no_vo'
I0
tp4230
a(S'w'
I712
tp4231
a(S'p1_tl'
I254
tp4232
a(S'w'
I1468
tp4233
a(S'p1_tl'
I253
tp4234
a(S'w'
I13
tp4235
a(S'p2_tl'
I142
tp4236
a(S'w'
I1466
tp4237
a(S'p2_du'
I1
tp4238
a(S'p2_vo'
I8
tp4239
a(S'w'
I12
tp4240
a(S'p2_tl'
I151
tp4241
a(S'w'
I12
tp4242
a(S'tr_ll'
I1
tp4243
a(S'tr_ll'
I1
tp4244
a(S'w'
I11
tp4245
a(S'ch_no'
I1
tp4246
a(S'ch_tr'
I1
tp4247
a(S'ch_p2'
I1
tp4248
a(S'ch_p1'
I1
tp4249
a(S'w'
I2
tp4250
a(S'ch_no'
I1
tp4251
a(S'ch_tr'
I1
tp4252
a(S'ch_p2'
I1
tp4253
a(S'ch_p1'
I1
tp4254
a(S'w'
I15
tp4255
a(S'no_vo'
I7
tp4256
a(S'w'
I2
tp4257
a(S'no_ll'
I1
tp4258
a(S'no_ll'
I1
tp4259
a(S'w'
I2
tp4260
a(S'no_np'
I15
tp4261
a(S'w'
I669
tp4262
a(S'p1_tl'
I254
tp4263
a(S'w'
I11
tp4264
a(S'p2_du'
I2
tp4265
a(S'p2_vo'
I7
tp4266
a(S'w'
I10
tp4267
a(S'no_vo'
I5
tp4268
a(S'w'
I2
tp4269
a(S'no_ll'
I1
tp4270
a(S'no_ll'
I1
tp4271
a(S'w'
I2
tp4272
a(S'no_np'
I13
tp4273
a(S'w'
I709
tp4274
a(S'p2_vo'
I6
tp4275
a(S'w'
I10
tp4276
a(S'no_vo'
I3
tp4277
a(S'w'
I2
tp4278
a(S'no_ll'
I1
tp4279
a(S'no_ll'
I1
tp4280
a(S'w'
I1
tp4281
a(S'no_np'
I8
tp4282
a(S'w'
I718
tp4283
a(S'p1_tl'
I255
tp4284
a(S'w'
I19
tp4285
a(S'no_vo'
I2
tp4286
a(S'w'
I2
tp4287
a(S'no_ll'
I1
tp4288
a(S'no_ll'
I1
tp4289
a(S'w'
I2
tp4290
a(S'no_np'
I6
tp4291
a(S'w'
I723
tp4292
a(S'no_vo'
I1
tp4293
a(S'w'
I1
tp4294
a(S'no_ll'
I1
tp4295
a(S'w'
I1
tp4296
a(S'no_ll'
I1
tp4297
a(S'w'
I1
tp4298
a(S'w'
I731
tp4299
a(S'no_vo'
I0
tp4300
a(S'w'
I721
tp4301
a(S'p1_tl'
I254
tp4302
a(S'w'
I748
tp4303
a(S'tr_ll'
I1
tp4304
a(S'w'
I1
tp4305
a(S'tr_ll'
I1
tp4306
a(S'w'
I1
tp4307
a(S'tr_tl'
I83
tp4308
a(S'w'
I24
tp4309
a(S'no_vo'
I7
tp4310
a(S'w'
I2
tp4311
a(S'no_ll'
I1
tp4312
a(S'no_ll'
I1
tp4313
a(S'w'
I2
tp4314
a(S'no_np'
I2
tp4315
a(S'w'
I690
tp4316
a(S'p1_tl'
I253
tp4317
a(S'w'
I19
tp4318
a(S'no_vo'
I1
tp4319
a(S'w'
I2
tp4320
a(S'no_ll'
I1
tp4321
a(S'no_ll'
I1
tp4322
a(S'w'
I1
tp4323
a(S'no_np'
I1
tp4324
a(S'w'
I724
tp4325
a(S'no_vo'
I0
tp4326
a(S'w'
I1457
tp4327
a(S'p1_tl'
I254
tp4328
a(S'w'
I736
tp4329
a(S'p2_vo'
I5
tp4330
a(S'w'
I730
tp4331
a(S'p1_tl'
I255
tp4332
a(S'w'
I11
tp4333
a(S'p2_vo'
I4
tp4334
a(S'w'
I729
tp4335
a(S'w'
I6
tp4336
a(S'p2_vo'
I3
tp4337
a(S'w'
I12
tp4338
a(S'tr_ll'
I1
tp4339
a(S'tr_th'
I0
tp4340
a(S'tr_ll'
I1
tp4341
a(S'w'
I1
tp4342
a(S'tr_tl'
I254
tp4343
a(S'w'
I10
tp4344
a(S'ch_no'
I1
tp4345
a(S'ch_tr'
I1
tp4346
a(S'ch_p2'
I1
tp4347
a(S'ch_p1'
I1
tp4348
a(S'w'
I1
tp4349
a(S'ch_no'
I1
tp4350
a(S'ch_tr'
I1
tp4351
a(S'ch_p2'
I1
tp4352
a(S'ch_p1'
I1
tp4353
a(S'w'
I16
tp4354
a(S'no_vo'
I7
tp4355
a(S'w'
I2
tp4356
a(S'no_ll'
I1
tp4357
a(S'no_ll'
I1
tp4358
a(S'w'
I1
tp4359
a(S'no_np'
I2
tp4360
a(S'w'
I683
tp4361
a(S'p2_vo'
I2
tp4362
a(S'w'
I11
tp4363
a(S'no_vo'
I1
tp4364
a(S'w'
I2
tp4365
a(S'no_ll'
I1
tp4366
a(S'no_ll'
I1
tp4367
a(S'w'
I1
tp4368
a(S'no_np'
I1
tp4369
a(S'w'
I715
tp4370
a(S'p1_tl'
I254
tp4371
a(S'w'
I14
tp4372
a(S'p2_tl'
I153
tp4373
a(S'w'
I15
tp4374
a(S'no_vo'
I0
tp4375
a(S'w'
I1439
tp4376
a(S'p1_tl'
I253
tp4377
a(S'w'
I740
tp4378
a(S'p2_tl'
I151
tp4379
a(S'w'
I1469
tp4380
a(S'p1_du'
I1
tp4381
a(S'p1_vo'
I3
tp4382
a(S'w'
I11
tp4383
a(S'p1_ll'
I1
tp4384
a(S'p1_th'
I1
tp4385
a(S'p1_ll'
I1
tp4386
a(S'w'
I1
tp4387
a(S'p1_tl'
I29
tp4388
a(S'w'
I16
tp4389
a(S'p2_du'
I1
tp4390
a(S'p2_vo'
I8
tp4391
a(S'w'
I12
tp4392
a(S'p2_tl'
I169
tp4393
a(S'w'
I15
tp4394
a(S'tr_lr'
I38
tp4395
a(S'w'
I5
tp4396
a(S'tr_ll'
I1
tp4397
a(S'tr_th'
I1
tp4398
a(S'tr_ll'
I1
tp4399
a(S'w'
I2
tp4400
a(S'tr_tl'
I252
tp4401
a(S'w'
I9
tp4402
a(S'ch_no'
I1
tp4403
a(S'ch_tr'
I1
tp4404
a(S'ch_p2'
I1
tp4405
a(S'ch_p1'
I1
tp4406
a(S'w'
I2
tp4407
a(S'ch_no'
I1
tp4408
a(S'ch_tr'
I1
tp4409
a(S'ch_p2'
I1
tp4410
a(S'ch_p1'
I1
tp4411
a(S'w'
I15
tp4412
a(S'no_vo'
I7
tp4413
a(S'w'
I2
tp4414
a(S'no_ll'
I1
tp4415
a(S'w'
I1
tp4416
a(S'no_ll'
I1
tp4417
a(S'w'
I1
tp4418
a(S'no_np'
I2
tp4419
a(S'w'
I636
tp4420
a(S'p1_du'
I2
tp4421
a(S'p1_vo'
I4
tp4422
a(S'w'
I7
tp4423
a(S'p2_du'
I2
tp4424
a(S'p2_vo'
I7
tp4425
a(S'w'
I11
tp4426
a(S'no_vo'
I1
tp4427
a(S'w'
I2
tp4428
a(S'no_ll'
I1
tp4429
a(S'no_ll'
I1
tp4430
a(S'w'
I1
tp4431
a(S'no_np'
I1
tp4432
a(S'w'
I713
tp4433
a(S'p1_vo'
I3
tp4434
a(S'w'
I7
tp4435
a(S'p2_vo'
I6
tp4436
a(S'w'
I10
tp4437
a(S'no_vo'
I0
tp4438
a(S'w'
I3677
tp4439
a(S'no_vo'
I7
tp4440
a(S'w'
I2
tp4441
a(S'no_ll'
I1
tp4442
a(S'no_ll'
I1
tp4443
a(S'w'
I1
tp4444
a(S'no_np'
I2
tp4445
a(S'w'
I716
tp4446
a(S'no_vo'
I1
tp4447
a(S'w'
I2
tp4448
a(S'no_ll'
I1
tp4449
a(S'no_ll'
I1
tp4450
a(S'w'
I1
tp4451
a(S'no_np'
I1
tp4452
a(S'w'
I730
tp4453
a(S'no_vo'
I0
tp4454
a(S'w'
I2194
tp4455
a(S'p2_vo'
I5
tp4456
a(S'w'
I734
tp4457
a(S'p2_vo'
I4
tp4458
a(S'w'
I729
tp4459
a(S'w'
I15
tp4460
a(S'w'
I5
tp4461
a(S'p2_vo'
I3
tp4462
a(S'w'
I6
tp4463
a(S'tr_lr'
I19
tp4464
a(S'w'
I6
tp4465
a(S'tr_ll'
I1
tp4466
a(S'tr_ll'
I1
tp4467
a(S'w'
I11
tp4468
a(S'ch_no'
I1
tp4469
a(S'ch_tr'
I1
tp4470
a(S'ch_p2'
I1
tp4471
a(S'ch_p1'
I1
tp4472
a(S'w'
I1
tp4473
a(S'ch_no'
I1
tp4474
a(S'ch_tr'
I1
tp4475
a(S'ch_p2'
I1
tp4476
a(S'ch_p1'
I1
tp4477
a(S'w'
I16
tp4478
a(S'no_vo'
I7
tp4479
a(S'w'
I2
tp4480
a(S'no_ll'
I1
tp4481
a(S'no_ll'
I1
tp4482
a(S'w'
I1
tp4483
a(S'no_np'
I2
tp4484
a(S'w'
I676
tp4485
a(S'p2_vo'
I2
tp4486
a(S'w'
I11
tp4487
a(S'no_vo'
I1
tp4488
a(S'w'
I2
tp4489
a(S'no_ll'
I1
tp4490
a(S'no_ll'
I1
tp4491
a(S'w'
I1
tp4492
a(S'no_np'
I1
tp4493
a(S'w'
I715
tp4494
a(S'p1_tl'
I30
tp4495
a(S'w'
I14
tp4496
a(S'p2_tl'
I171
tp4497
a(S'w'
I15
tp4498
a(S'no_vo'
I0
tp4499
a(S'w'
I2172
tp4500
a(S'p1_tl'
I29
tp4501
a(S'w'
I5
tp4502
a(S'p1_vo'
I2
tp4503
a(S'w'
I11
tp4504
a(S'p2_tl'
I169
tp4505
a(S'w'
I1460
tp4506
a(S'p1_du'
I1
tp4507
a(S'p1_vo'
I3
tp4508
a(S'w'
I10
tp4509
a(S'p1_ll'
I1
tp4510
a(S'p1_th'
I0
tp4511
a(S'p1_ll'
I1
tp4512
a(S'w'
I2
tp4513
a(S'p1_tl'
I254
tp4514
a(S'w'
I15
tp4515
a(S'p2_du'
I1
tp4516
a(S'p2_vo'
I8
tp4517
a(S'w'
I12
tp4518
a(S'p2_tl'
I151
tp4519
a(S'w'
I12
tp4520
a(S'tr_ll'
I1
tp4521
a(S'tr_ll'
I1
tp4522
a(S'w'
I12
tp4523
a(S'ch_no'
I1
tp4524
a(S'ch_tr'
I1
tp4525
a(S'ch_p2'
I1
tp4526
a(S'ch_p1'
I1
tp4527
a(S'w'
I1
tp4528
a(S'ch_no'
I1
tp4529
a(S'ch_tr'
I1
tp4530
a(S'ch_p2'
I1
tp4531
a(S'ch_p1'
I1
tp4532
a(S'w'
I16
tp4533
a(S'no_vo'
I7
tp4534
a(S'w'
I2
tp4535
a(S'no_ll'
I1
tp4536
a(S'no_ll'
I1
tp4537
a(S'w'
I1
tp4538
a(S'no_np'
I15
tp4539
a(S'w'
I645
tp4540
a(S'p1_du'
I2
tp4541
a(S'p1_vo'
I4
tp4542
a(S'w'
I8
tp4543
a(S'p2_du'
I2
tp4544
a(S'p2_vo'
I7
tp4545
a(S'w'
I10
tp4546
a(S'no_vo'
I5
tp4547
a(S'w'
I2
tp4548
a(S'no_ll'
I1
tp4549
a(S'no_ll'
I1
tp4550
a(S'w'
I2
tp4551
a(S'no_np'
I13
tp4552
a(S'w'
I710
tp4553
a(S'p1_vo'
I3
tp4554
a(S'w'
I7
tp4555
a(S'p2_vo'
I6
tp4556
a(S'w'
I11
tp4557
a(S'no_vo'
I3
tp4558
a(S'w'
I2
tp4559
a(S'no_ll'
I1
tp4560
a(S'no_ll'
I1
tp4561
a(S'w'
I1
tp4562
a(S'no_np'
I8
tp4563
a(S'w'
I726
tp4564
a(S'no_vo'
I2
tp4565
a(S'w'
I2
tp4566
a(S'no_ll'
I1
tp4567
a(S'w'
I1
tp4568
a(S'no_ll'
I1
tp4569
a(S'w'
I1
tp4570
a(S'no_np'
I6
tp4571
a(S'w'
I728
tp4572
a(S'no_vo'
I1
tp4573
a(S'w'
I2
tp4574
a(S'no_ll'
I1
tp4575
a(S'no_ll'
I1
tp4576
a(S'w'
I1
tp4577
a(S'w'
I731
tp4578
a(S'no_vo'
I0
tp4579
a(S'w'
I1469
tp4580
a(S'tr_ll'
I1
tp4581
a(S'w'
I1
tp4582
a(S'tr_ll'
I1
tp4583
a(S'w'
I1
tp4584
a(S'tr_tl'
I83
tp4585
a(S'w'
I24
tp4586
a(S'no_vo'
I7
tp4587
a(S'w'
I2
tp4588
a(S'no_ll'
I1
tp4589
a(S'no_ll'
I1
tp4590
a(S'w'
I2
tp4591
a(S'no_np'
I2
tp4592
a(S'w'
I694
tp4593
a(S'p2_vo'
I5
tp4594
a(S'w'
I11
tp4595
a(S'no_vo'
I1
tp4596
a(S'w'
I2
tp4597
a(S'no_ll'
I1
tp4598
a(S'no_ll'
I1
tp4599
a(S'w'
I1
tp4600
a(S'no_np'
I1
tp4601
a(S'w'
I720
tp4602
a(S'p2_vo'
I4
tp4603
a(S'w'
I10
tp4604
a(S'no_vo'
I0
tp4605
a(S'w'
I724
tp4606
a(S'p2_vo'
I3
tp4607
a(S'w'
I734
tp4608
a(S'p2_vo'
I2
tp4609
a(S'w'
I1461
tp4610
a(S'p1_vo'
I2
tp4611
a(S'w'
I746
tp4612
a(S'p1_du'
I1
tp4613
a(S'p1_vo'
I3
tp4614
a(S'w'
I11
tp4615
a(S'p1_ll'
I1
tp4616
a(S'p1_th'
I1
tp4617
a(S'p1_ll'
I1
tp4618
a(S'w'
I1
tp4619
a(S'p1_tl'
I29
tp4620
a(S'w'
I21
tp4621
a(S'p2_du'
I1
tp4622
a(S'p2_vo'
I8
tp4623
a(S'w'
I12
tp4624
a(S'p2_tl'
I169
tp4625
a(S'w'
I9
tp4626
a(S'tr_lr'
I57
tp4627
a(S'w'
I6
tp4628
a(S'tr_ll'
I1
tp4629
a(S'tr_th'
I2
tp4630
a(S'tr_ll'
I1
tp4631
a(S'w'
I1
tp4632
a(S'tr_tl'
I167
tp4633
a(S'w'
I25
tp4634
a(S'no_vo'
I8
tp4635
a(S'w'
I2
tp4636
a(S'no_ll'
I1
tp4637
a(S'no_ll'
I1
tp4638
a(S'w'
I1
tp4639
a(S'no_np'
I2
tp4640
a(S'w'
I636
tp4641
a(S'p1_du'
I2
tp4642
a(S'p1_vo'
I4
tp4643
a(S'w'
I7
tp4644
a(S'p2_du'
I2
tp4645
a(S'p2_vo'
I7
tp4646
a(S'w'
I13
tp4647
a(S'no_vo'
I6
tp4648
a(S'w'
I2
tp4649
a(S'no_ll'
I1
tp4650
a(S'no_ll'
I1
tp4651
a(S'w'
I1
tp4652
a(S'no_np'
I1
tp4653
a(S'w'
I711
tp4654
a(S'p1_vo'
I3
tp4655
a(S'w'
I7
tp4656
a(S'p2_vo'
I6
tp4657
a(S'w'
I2939
tp4658
a(S'no_vo'
I5
tp4659
a(S'w'
I2
tp4660
a(S'no_ll'
I1
tp4661
a(S'no_ll'
I1
tp4662
a(S'w'
I1
tp4663
a(S'w'
I734
tp4664
a(S'ch_no'
I1
tp4665
a(S'ch_tr'
I1
tp4666
a(S'ch_p2'
I1
tp4667
a(S'ch_p1'
I1
tp4668
a(S'w'
I1
tp4669
a(S'ch_no'
I1
tp4670
a(S'ch_tr'
I1
tp4671
a(S'ch_p2'
I1
tp4672
a(S'ch_p1'
I1
tp4673
a(S'w'
I16
tp4674
a(S'no_vo'
I7
tp4675
a(S'w'
I2
tp4676
a(S'no_ll'
I1
tp4677
a(S'no_ll'
I1
tp4678
a(S'w'
I1
tp4679
a(S'no_np'
I2
tp4680
a(S'w'
I711
tp4681
a(S'no_vo'
I1
tp4682
a(S'w'
I2
tp4683
a(S'no_ll'
I1
tp4684
a(S'no_ll'
I1
tp4685
a(S'w'
I1
tp4686
a(S'no_np'
I1
tp4687
a(S'w'
I730
tp4688
a(S'no_vo'
I0
tp4689
a(S'w'
I3657
tp4690
a(S'w'
I15
tp4691
a(S'w'
I29
tp4692
a(S'no_vo'
I7
tp4693
a(S'w'
I2
tp4694
a(S'no_ll'
I1
tp4695
a(S'no_ll'
I1
tp4696
a(S'w'
I1
tp4697
a(S'no_np'
I2
tp4698
a(S'w'
I698
tp4699
a(S'no_vo'
I1
tp4700
a(S'w'
I2
tp4701
a(S'no_ll'
I1
tp4702
a(S'no_ll'
I1
tp4703
a(S'w'
I2
tp4704
a(S'no_np'
I1
tp4705
a(S'w'
I719
tp4706
a(S'p1_tl'
I30
tp4707
a(S'w'
I13
tp4708
a(S'p2_tl'
I171
tp4709
a(S'w'
I14
tp4710
a(S'no_vo'
I0
tp4711
a(S'w'
I2174
tp4712
a(S'p1_tl'
I29
tp4713
a(S'w'
I13
tp4714
a(S'p2_tl'
I169
tp4715
a(S'w'
I1455
tp4716
a(S'p1_tl'
I28
tp4717
a(S'w'
I13
tp4718
a(S'p2_tl'
I167
tp4719
a(S'w'
I9
tp4720
a(S'tr_lr'
I19
tp4721
a(S'w'
I5
tp4722
a(S'tr_ll'
I1
tp4723
a(S'tr_ll'
I1
tp4724
a(S'w'
I26
tp4725
a(S'no_vo'
I7
tp4726
a(S'w'
I2
tp4727
a(S'no_ll'
I1
tp4728
a(S'no_ll'
I1
tp4729
a(S'w'
I1
tp4730
a(S'no_np'
I2
tp4731
a(S'w'
I688
tp4732
a(S'no_vo'
I1
tp4733
a(S'w'
I2
tp4734
a(S'no_ll'
I1
tp4735
a(S'w'
I1
tp4736
a(S'no_ll'
I1
tp4737
a(S'w'
I1
tp4738
a(S'no_np'
I1
tp4739
a(S'w'
I731
tp4740
a(S'no_vo'
I0
tp4741
a(S'w'
I724
tp4742
a(S'p1_tl'
I29
tp4743
a(S'w'
I15
tp4744
a(S'p2_tl'
I169
tp4745
a(S'w'
I1451
tp4746
a(S'p1_tl'
I30
tp4747
a(S'w'
I13
tp4748
a(S'p2_tl'
I171
tp4749
a(S'w'
I1466
tp4750
a(S'tr_ll'
I1
tp4751
a(S'tr_ll'
I1
tp4752
a(S'w'
I12
tp4753
a(S'ch_no'
I1
tp4754
a(S'ch_tr'
I1
tp4755
a(S'ch_p2'
I1
tp4756
a(S'ch_p1'
I1
tp4757
a(S'w'
I1
tp4758
a(S'ch_no'
I1
tp4759
a(S'ch_tr'
I1
tp4760
a(S'ch_p2'
I1
tp4761
a(S'ch_p1'
I1
tp4762
a(S'w'
I15
tp4763
a(S'no_vo'
I7
tp4764
a(S'w'
I2
tp4765
a(S'no_ll'
I1
tp4766
a(S'w'
I1
tp4767
a(S'no_ll'
I1
tp4768
a(S'w'
I1
tp4769
a(S'no_np'
I15
tp4770
a(S'w'
I691
tp4771
a(S'p1_tl'
I29
tp4772
a(S'w'
I14
tp4773
a(S'p2_tl'
I169
tp4774
a(S'w'
I13
tp4775
a(S'no_vo'
I5
tp4776
a(S'w'
I2
tp4777
a(S'no_ll'
I1
tp4778
a(S'no_ll'
I1
tp4779
a(S'w'
I1
tp4780
a(S'no_np'
I13
tp4781
a(S'w'
I714
tp4782
a(S'no_vo'
I3
tp4783
a(S'w'
I2
tp4784
a(S'no_ll'
I1
tp4785
a(S'w'
I1
tp4786
a(S'no_ll'
I1
tp4787
a(S'w'
I1
tp4788
a(S'no_np'
I8
tp4789
a(S'w'
I718
tp4790
a(S'p1_tl'
I28
tp4791
a(S'w'
I13
tp4792
a(S'p2_tl'
I167
tp4793
a(S'w'
I13
tp4794
a(S'no_vo'
I2
tp4795
a(S'w'
I2
tp4796
a(S'no_ll'
I1
tp4797
a(S'w'
I1
tp4798
a(S'no_ll'
I1
tp4799
a(S'w'
I1
tp4800
a(S'no_np'
I6
tp4801
a(S'w'
I715
tp4802
a(S'no_vo'
I1
tp4803
a(S'w'
I2
tp4804
a(S'no_ll'
I1
tp4805
a(S'no_ll'
I1
tp4806
a(S'w'
I2
tp4807
a(S'w'
I731
tp4808
a(S'no_vo'
I0
tp4809
a(S'w'
I724
tp4810
a(S'p1_tl'
I29
tp4811
a(S'w'
I15
tp4812
a(S'p2_tl'
I169
tp4813
a(S'w'
I729
tp4814
a(S'tr_ll'
I1
tp4815
a(S'tr_th'
I1
tp4816
a(S'tr_ll'
I1
tp4817
a(S'w'
I2
tp4818
a(S'tr_tl'
I197
tp4819
a(S'w'
I24
tp4820
a(S'no_vo'
I7
tp4821
a(S'w'
I2
tp4822
a(S'no_ll'
I1
tp4823
a(S'no_ll'
I1
tp4824
a(S'w'
I1
tp4825
a(S'no_np'
I2
tp4826
a(S'w'
I692
tp4827
a(S'p1_tl'
I30
tp4828
a(S'w'
I13
tp4829
a(S'p2_tl'
I171
tp4830
a(S'w'
I14
tp4831
a(S'no_vo'
I1
tp4832
a(S'w'
I2
tp4833
a(S'no_ll'
I1
tp4834
a(S'no_ll'
I1
tp4835
a(S'w'
I1
tp4836
a(S'no_np'
I1
tp4837
a(S'w'
I716
tp4838
a(S'no_vo'
I0
tp4839
a(S'w'
I1456
tp4840
a(S'p1_tl'
I29
tp4841
a(S'w'
I13
tp4842
a(S'p2_tl'
I169
tp4843
a(S'w'
I1454
tp4844
a(S'p1_tl'
I28
tp4845
a(S'w'
I14
tp4846
a(S'p2_tl'
I167
tp4847
a(S'w'
I6
tp4848
a(S'p2_vo'
I5
tp4849
a(S'w'
I717
tp4850
a(S'p2_vo'
I4
tp4851
a(S'w'
I14
tp4852
a(S'tr_ll'
I1
tp4853
a(S'tr_ll'
I1
tp4854
a(S'w'
I1
tp4855
a(S'tr_tl'
I83
tp4856
a(S'w'
I10
tp4857
a(S'ch_no'
I1
tp4858
a(S'ch_tr'
I1
tp4859
a(S'ch_p2'
I1
tp4860
a(S'ch_p1'
I1
tp4861
a(S'w'
I1
tp4862
a(S'ch_no'
I1
tp4863
a(S'ch_tr'
I1
tp4864
a(S'ch_p2'
I1
tp4865
a(S'ch_p1'
I1
tp4866
a(S'w'
I16
tp4867
a(S'no_vo'
I7
tp4868
a(S'w'
I2
tp4869
a(S'no_ll'
I1
tp4870
a(S'no_ll'
I1
tp4871
a(S'w'
I1
tp4872
a(S'no_np'
I2
tp4873
a(S'w'
I690
tp4874
a(S'p2_vo'
I3
tp4875
a(S'w'
I11
tp4876
a(S'no_vo'
I1
tp4877
a(S'w'
I2
tp4878
a(S'no_ll'
I1
tp4879
a(S'no_ll'
I1
tp4880
a(S'w'
I1
tp4881
a(S'no_np'
I1
tp4882
a(S'w'
I718
tp4883
a(S'p1_tl'
I29
tp4884
a(S'w'
I16
tp4885
a(S'p2_tl'
I169
tp4886
a(S'w'
I6
tp4887
a(S'p2_vo'
I2
tp4888
a(S'w'
I10
tp4889
a(S'no_vo'
I0
tp4890
a(S'w'
I698
tp4891
a(S'p1_vo'
I2
tp4892
a(S'w'
I735
tp4893
a(S'p1_tl'
I30
tp4894
a(S'w'
I13
tp4895
a(S'p2_tl'
I171
tp4896
a(S'w'
I2189
tp4897
a(S'p1_tl'
I29
tp4898
a(S'w'
I13
tp4899
a(S'p2_tl'
I169
tp4900
a(S'w'
I12
tp4901
a(S'tr_lr'
I38
tp4902
a(S'w'
I6
tp4903
a(S'tr_ll'
I1
tp4904
a(S'tr_th'
I2
tp4905
a(S'tr_ll'
I1
tp4906
a(S'w'
I1
tp4907
a(S'tr_tl'
I167
tp4908
a(S'w'
I10
tp4909
a(S'ch_no'
I1
tp4910
a(S'ch_tr'
I1
tp4911
a(S'ch_p2'
I1
tp4912
a(S'ch_p1'
I1
tp4913
a(S'w'
I1
tp4914
a(S'ch_no'
I1
tp4915
a(S'ch_tr'
I1
tp4916
a(S'ch_p2'
I1
tp4917
a(S'ch_p1'
I1
tp4918
a(S'w'
I16
tp4919
a(S'no_vo'
I7
tp4920
a(S'w'
I2
tp4921
a(S'no_ll'
I1
tp4922
a(S'no_ll'
I1
tp4923
a(S'w'
I1
tp4924
a(S'no_np'
I2
tp4925
a(S'w'
I686
tp4926
a(S'no_vo'
I1
tp4927
a(S'w'
I2
tp4928
a(S'no_ll'
I1
tp4929
a(S'no_ll'
I1
tp4930
a(S'w'
I2
tp4931
a(S'no_np'
I1
tp4932
a(S'w'
I715
tp4933
a(S'p1_tl'
I28
tp4934
a(S'w'
I13
tp4935
a(S'p2_tl'
I167
tp4936
a(S'w'
I15
tp4937
a(S'no_vo'
I0
tp4938
a(S'w'
I2176
tp4939
a(S'p1_tl'
I29
tp4940
a(S'w'
I16
tp4941
a(S'p2_tl'
I169
tp4942
a(S'w'
I1449
tp4943
a(S'p1_tl'
I30
tp4944
a(S'w'
I13
tp4945
a(S'p2_tl'
I171
tp4946
a(S'w'
I30
tp4947
a(S'no_vo'
I7
tp4948
a(S'w'
I2
tp4949
a(S'no_ll'
I1
tp4950
a(S'no_ll'
I1
tp4951
a(S'w'
I1
tp4952
a(S'no_np'
I2
tp4953
a(S'w'
I700
tp4954
a(S'no_vo'
I1
tp4955
a(S'w'
I2
tp4956
a(S'no_ll'
I1
tp4957
a(S'no_ll'
I1
tp4958
a(S'w'
I1
tp4959
a(S'no_np'
I1
tp4960
a(S'w'
I731
tp4961
a(S'no_vo'
I0
tp4962
a(S'w'
I722
tp4963
a(S'p1_tl'
I29
tp4964
a(S'w'
I14
tp4965
a(S'p2_tl'
I169
tp4966
a(S'w'
I1453
tp4967
a(S'p1_tl'
I28
tp4968
a(S'w'
I13
tp4969
a(S'p2_tl'
I167
tp4970
a(S'w'
I1462
tp4971
a(S'p1_du'
I1
tp4972
a(S'p1_vo'
I3
tp4973
a(S'w'
I11
tp4974
a(S'p1_tl'
I29
tp4975
a(S'w'
I14
tp4976
a(S'p2_du'
I1
tp4977
a(S'p2_vo'
I8
tp4978
a(S'w'
I12
tp4979
a(S'p2_tl'
I169
tp4980
a(S'w'
I7
tp4981
a(S'tr_lr'
I19
tp4982
a(S'w'
I6
tp4983
a(S'tr_ll'
I1
tp4984
a(S'tr_ll'
I1
tp4985
a(S'w'
I11
tp4986
a(S'ch_no'
I1
tp4987
a(S'ch_tr'
I1
tp4988
a(S'ch_p2'
I1
tp4989
a(S'ch_p1'
I1
tp4990
a(S'w'
I1
tp4991
a(S'ch_no'
I1
tp4992
a(S'ch_tr'
I1
tp4993
a(S'ch_p2'
I1
tp4994
a(S'ch_p1'
I1
tp4995
a(S'w'
I16
tp4996
a(S'no_vo'
I7
tp4997
a(S'w'
I2
tp4998
a(S'no_ll'
I1
tp4999
a(S'no_ll'
I1
tp5000
a(S'w'
I1
tp5001
a(S'no_np'
I2
tp5002
a(S'w'
I648
tp5003
a(S'p1_du'
I2
tp5004
a(S'p1_vo'
I4
tp5005
a(S'w'
I7
tp5006
a(S'p2_du'
I2
tp5007
a(S'p2_vo'
I7
tp5008
a(S'w'
I11
tp5009
a(S'no_vo'
I1
tp5010
a(S'w'
I2
tp5011
a(S'no_ll'
I1
tp5012
a(S'no_ll'
I1
tp5013
a(S'w'
I1
tp5014
a(S'no_np'
I1
tp5015
a(S'w'
I712
tp5016
a(S'p1_vo'
I3
tp5017
a(S'w'
I7
tp5018
a(S'p2_vo'
I6
tp5019
a(S'w'
I10
tp5020
a(S'no_vo'
I0
tp5021
a(S'w'
I2922
tp5022
a(S'p2_vo'
I5
tp5023
a(S'w'
I736
tp5024
a(S'p1_du'
I1
tp5025
a(S'w'
I10
tp5026
a(S'p1_ll'
I1
tp5027
a(S'p1_th'
I0
tp5028
a(S'p1_ll'
I1
tp5029
a(S'w'
I2
tp5030
a(S'p1_tl'
I254
tp5031
a(S'w'
I20
tp5032
a(S'p2_du'
I1
tp5033
a(S'p2_vo'
I8
tp5034
a(S'w'
I12
tp5035
a(S'p2_tl'
I151
tp5036
a(S'w'
I12
tp5037
a(S'tr_ll'
I1
tp5038
a(S'tr_ll'
I1
tp5039
a(S'w'
I11
tp5040
a(S'ch_no'
I1
tp5041
a(S'ch_tr'
I1
tp5042
a(S'ch_p2'
I1
tp5043
a(S'ch_p1'
I1
tp5044
a(S'w'
I1
tp5045
a(S'ch_no'
I1
tp5046
a(S'ch_tr'
I1
tp5047
a(S'ch_p2'
I1
tp5048
a(S'ch_p1'
I1
tp5049
a(S'w'
I16
tp5050
a(S'no_vo'
I7
tp5051
a(S'w'
I2
tp5052
a(S'no_ll'
I1
tp5053
a(S'no_ll'
I1
tp5054
a(S'w'
I1
tp5055
a(S'no_np'
I15
tp5056
a(S'w'
I641
tp5057
a(S'p1_du'
I2
tp5058
a(S'p1_vo'
I4
tp5059
a(S'w'
I8
tp5060
a(S'p2_du'
I2
tp5061
a(S'p2_vo'
I7
tp5062
a(S'w'
I10
tp5063
a(S'no_vo'
I5
tp5064
a(S'w'
I2
tp5065
a(S'no_ll'
I1
tp5066
a(S'no_ll'
I1
tp5067
a(S'w'
I2
tp5068
a(S'no_np'
I13
tp5069
a(S'w'
I711
tp5070
a(S'p1_vo'
I3
tp5071
a(S'w'
I7
tp5072
a(S'p2_vo'
I6
tp5073
a(S'w'
I11
tp5074
a(S'no_vo'
I3
tp5075
a(S'w'
I2
tp5076
a(S'no_ll'
I1
tp5077
a(S'no_ll'
I1
tp5078
a(S'w'
I1
tp5079
a(S'no_np'
I8
tp5080
a(S'w'
I726
tp5081
a(S'no_vo'
I2
tp5082
a(S'w'
I2
tp5083
a(S'no_ll'
I1
tp5084
a(S'w'
I1
tp5085
a(S'no_ll'
I1
tp5086
a(S'w'
I1
tp5087
a(S'no_np'
I6
tp5088
a(S'w'
I728
tp5089
a(S'no_vo'
I1
tp5090
a(S'w'
I2
tp5091
a(S'no_ll'
I1
tp5092
a(S'no_ll'
I1
tp5093
a(S'w'
I1
tp5094
a(S'w'
I730
tp5095
a(S'no_vo'
I0
tp5096
a(S'w'
I1460
tp5097
a(S'p2_vo'
I5
tp5098
a(S'w'
I11
tp5099
a(S'tr_ll'
I1
tp5100
a(S'tr_th'
I1
tp5101
a(S'w'
I1
tp5102
a(S'tr_ll'
I1
tp5103
a(S'w'
I1
tp5104
a(S'tr_tl'
I197
tp5105
a(S'w'
I24
tp5106
a(S'no_vo'
I7
tp5107
a(S'w'
I2
tp5108
a(S'no_ll'
I1
tp5109
a(S'no_ll'
I1
tp5110
a(S'w'
I2
tp5111
a(S'no_np'
I2
tp5112
a(S'w'
I693
tp5113
a(S'p2_vo'
I4
tp5114
a(S'w'
I10
tp5115
a(S'no_vo'
I1
tp5116
a(S'w'
I2
tp5117
a(S'no_ll'
I1
tp5118
a(S'no_ll'
I1
tp5119
a(S'w'
I1
tp5120
a(S'no_np'
I1
tp5121
a(S'w'
I720
tp5122
a(S'p2_vo'
I3
tp5123
a(S'w'
I10
tp5124
a(S'no_vo'
I0
tp5125
a(S'w'
I719
tp5126
a(S'p1_vo'
I2
tp5127
a(S'w'
I8
tp5128
a(S'p2_vo'
I2
tp5129
a(S'w'
I2937
tp5130
a(S'p1_du'
I1
tp5131
a(S'p1_vo'
I3
tp5132
a(S'w'
I12
tp5133
a(S'p1_tl'
I226
tp5134
a(S'w'
I19
tp5135
a(S'p2_du'
I1
tp5136
a(S'p2_vo'
I8
tp5137
a(S'w'
I12
tp5138
a(S'p2_tl'
I142
tp5139
a(S'w'
I15
tp5140
a(S'tr_ll'
I1
tp5141
a(S'tr_ll'
I1
tp5142
a(S'w'
I1
tp5143
a(S'tr_tl'
I83
tp5144
a(S'w'
I25
tp5145
a(S'no_vo'
I8
tp5146
a(S'w'
I2
tp5147
a(S'no_ll'
I1
tp5148
a(S'no_ll'
I1
tp5149
a(S'w'
I1
tp5150
a(S'no_np'
I2
tp5151
a(S'w'
I639
tp5152
a(S'p1_du'
I2
tp5153
a(S'p1_vo'
I4
tp5154
a(S'w'
I7
tp5155
a(S'p2_du'
I2
tp5156
a(S'p2_vo'
I7
tp5157
a(S'w'
I13
tp5158
a(S'no_vo'
I6
tp5159
a(S'w'
I2
tp5160
a(S'no_ll'
I1
tp5161
a(S'no_ll'
I1
tp5162
a(S'w'
I1
tp5163
a(S'no_np'
I1
tp5164
a(S'w'
I711
tp5165
a(S'p1_vo'
I3
tp5166
a(S'w'
I7
tp5167
a(S'p2_vo'
I6
tp5168
a(S'w'
I2939
tp5169
a(S'no_vo'
I5
tp5170
a(S'w'
I2
tp5171
a(S'no_ll'
I1
tp5172
a(S'no_ll'
I1
tp5173
a(S'w'
I1
tp5174
a(S'w'
I728
tp5175
a(S'tr_lr'
I38
tp5176
a(S'w'
I6
tp5177
a(S'tr_ll'
I1
tp5178
a(S'tr_th'
I2
tp5179
a(S'tr_ll'
I1
tp5180
a(S'w'
I1
tp5181
a(S'tr_tl'
I59
tp5182
a(S'w'
I13
tp5183
a(S'ch_no'
I1
tp5184
a(S'ch_tr'
I1
tp5185
a(S'ch_p2'
I1
tp5186
a(S'ch_p1'
I1
tp5187
a(S'w'
I1
tp5188
a(S'ch_no'
I1
tp5189
a(S'ch_tr'
I1
tp5190
a(S'ch_p2'
I1
tp5191
a(S'ch_p1'
I1
tp5192
a(S'w'
I16
tp5193
a(S'no_vo'
I7
tp5194
a(S'w'
I2
tp5195
a(S'no_ll'
I1
tp5196
a(S'no_ll'
I1
tp5197
a(S'w'
I1
tp5198
a(S'no_np'
I2
tp5199
a(S'w'
I698
tp5200
a(S'no_vo'
I1
tp5201
a(S'w'
I2
tp5202
a(S'no_ll'
I1
tp5203
a(S'no_ll'
I1
tp5204
a(S'w'
I1
tp5205
a(S'no_np'
I1
tp5206
a(S'w'
I730
tp5207
a(S'no_vo'
I0
tp5208
a(S'w'
I3657
tp5209
a(S'w'
I15
tp5210
a(S'w'
I29
tp5211
a(S'no_vo'
I7
tp5212
a(S'w'
I2
tp5213
a(S'no_ll'
I1
tp5214
a(S'no_ll'
I1
tp5215
a(S'w'
I1
tp5216
a(S'no_np'
I2
tp5217
a(S'w'
I697
tp5218
a(S'no_vo'
I1
tp5219
a(S'w'
I2
tp5220
a(S'no_ll'
I1
tp5221
a(S'w'
I1
tp5222
a(S'no_ll'
I1
tp5223
a(S'w'
I1
tp5224
a(S'no_np'
I1
tp5225
a(S'w'
I719
tp5226
a(S'p1_tl'
I227
tp5227
a(S'w'
I13
tp5228
a(S'p2_tl'
I144
tp5229
a(S'w'
I14
tp5230
a(S'no_vo'
I0
tp5231
a(S'w'
I2174
tp5232
a(S'p1_tl'
I226
tp5233
a(S'w'
I13
tp5234
a(S'p2_tl'
I142
tp5235
a(S'w'
I1455
tp5236
a(S'p1_tl'
I225
tp5237
a(S'w'
I13
tp5238
a(S'p2_tl'
I140
tp5239
a(S'w'
I11
tp5240
a(S'tr_lr'
I19
tp5241
a(S'w'
I6
tp5242
a(S'tr_ll'
I1
tp5243
a(S'tr_ll'
I1
tp5244
a(S'w'
I26
tp5245
a(S'no_vo'
I7
tp5246
a(S'w'
I2
tp5247
a(S'no_ll'
I1
tp5248
a(S'no_ll'
I1
tp5249
a(S'w'
I1
tp5250
a(S'no_np'
I2
tp5251
a(S'w'
I686
tp5252
a(S'no_vo'
I1
tp5253
a(S'w'
I2
tp5254
a(S'no_ll'
I1
tp5255
a(S'no_ll'
I1
tp5256
a(S'w'
I2
tp5257
a(S'no_np'
I1
tp5258
a(S'w'
I731
tp5259
a(S'no_vo'
I0
tp5260
a(S'w'
I723
tp5261
a(S'p1_tl'
I226
tp5262
a(S'w'
I15
tp5263
a(S'p2_tl'
I142
tp5264
a(S'w'
I1451
tp5265
a(S'p1_tl'
I227
tp5266
a(S'w'
I13
tp5267
a(S'p2_tl'
I144
tp5268
a(S'w'
I1467
tp5269
a(S'tr_ll'
I1
tp5270
a(S'tr_ll'
I1
tp5271
a(S'w'
I12
tp5272
a(S'ch_no'
I1
tp5273
a(S'ch_tr'
I1
tp5274
a(S'ch_p2'
I1
tp5275
a(S'ch_p1'
I1
tp5276
a(S'w'
I1
tp5277
a(S'ch_no'
I1
tp5278
a(S'ch_tr'
I1
tp5279
a(S'ch_p2'
I1
tp5280
a(S'ch_p1'
I1
tp5281
a(S'w'
I16
tp5282
a(S'no_vo'
I7
tp5283
a(S'w'
I2
tp5284
a(S'no_ll'
I1
tp5285
a(S'no_ll'
I1
tp5286
a(S'w'
I1
tp5287
a(S'no_np'
I15
tp5288
a(S'w'
I690
tp5289
a(S'p1_tl'
I226
tp5290
a(S'w'
I14
tp5291
a(S'p2_tl'
I142
tp5292
a(S'w'
I13
tp5293
a(S'no_vo'
I5
tp5294
a(S'w'
I2
tp5295
a(S'no_ll'
I1
tp5296
a(S'no_ll'
I1
tp5297
a(S'w'
I1
tp5298
a(S'no_np'
I13
tp5299
a(S'w'
I714
tp5300
a(S'no_vo'
I3
tp5301
a(S'w'
I2
tp5302
a(S'no_ll'
I1
tp5303
a(S'w'
I1
tp5304
a(S'no_ll'
I1
tp5305
a(S'w'
I1
tp5306
a(S'no_np'
I8
tp5307
a(S'w'
I719
tp5308
a(S'p1_tl'
I225
tp5309
a(S'w'
I13
tp5310
a(S'p2_tl'
I140
tp5311
a(S'w'
I13
tp5312
a(S'no_vo'
I2
tp5313
a(S'w'
I2
tp5314
a(S'no_ll'
I1
tp5315
a(S'w'
I1
tp5316
a(S'no_ll'
I1
tp5317
a(S'w'
I1
tp5318
a(S'no_np'
I6
tp5319
a(S'w'
I709
tp5320
a(S'p2_vo'
I5
tp5321
a(S'w'
I10
tp5322
a(S'no_vo'
I1
tp5323
a(S'w'
I2
tp5324
a(S'no_ll'
I1
tp5325
a(S'no_ll'
I1
tp5326
a(S'w'
I2
tp5327
a(S'w'
I713
tp5328
a(S'p1_vo'
I2
tp5329
a(S'w'
I8
tp5330
a(S'p2_vo'
I4
tp5331
a(S'w'
I11
tp5332
a(S'no_vo'
I0
tp5333
a(S'w'
I718
tp5334
a(S'p1_tl'
I226
tp5335
a(S'w'
I15
tp5336
a(S'p2_tl'
I142
tp5337
a(S'w'
I6
tp5338
a(S'p2_vo'
I3
tp5339
a(S'w'
I714
tp5340
a(S'p2_vo'
I2
tp5341
a(S'w'
I14
tp5342
a(S'tr_ll'
I1
tp5343
a(S'tr_th'
I1
tp5344
a(S'tr_ll'
I1
tp5345
a(S'w'
I2
tp5346
a(S'tr_tl'
I125
tp5347
a(S'w'
I10
tp5348
a(S'ch_no'
I1
tp5349
a(S'ch_tr'
I1
tp5350
a(S'ch_p2'
I1
tp5351
a(S'ch_p1'
I1
tp5352
a(S'w'
I1
tp5353
a(S'ch_no'
I1
tp5354
a(S'ch_tr'
I1
tp5355
a(S'ch_p2'
I1
tp5356
a(S'ch_p1'
I1
tp5357
a(S'w'
I16
tp5358
a(S'no_vo'
I7
tp5359
a(S'w'
I2
tp5360
a(S'no_ll'
I1
tp5361
a(S'no_ll'
I1
tp5362
a(S'w'
I1
tp5363
a(S'no_np'
I15
tp5364
a(S'w'
I686
tp5365
a(S'p1_tl'
I227
tp5366
a(S'w'
I14
tp5367
a(S'p2_tl'
I144
tp5368
a(S'w'
I15
tp5369
a(S'no_vo'
I5
tp5370
a(S'w'
I2
tp5371
a(S'no_ll'
I1
tp5372
a(S'no_ll'
I1
tp5373
a(S'w'
I1
tp5374
a(S'no_np'
I13
tp5375
a(S'w'
I713
tp5376
a(S'no_vo'
I3
tp5377
a(S'w'
I2
tp5378
a(S'no_ll'
I1
tp5379
a(S'no_ll'
I1
tp5380
a(S'w'
I1
tp5381
a(S'no_np'
I8
tp5382
a(S'w'
I732
tp5383
a(S'no_vo'
I2
tp5384
a(S'w'
I2
tp5385
a(S'no_ll'
I1
tp5386
a(S'no_ll'
I1
tp5387
a(S'w'
I2
tp5388
a(S'no_np'
I6
tp5389
a(S'w'
I716
tp5390
a(S'p1_tl'
I226
tp5391
a(S'w'
I13
tp5392
a(S'p2_tl'
I142
tp5393
a(S'w'
I14
tp5394
a(S'no_vo'
I1
tp5395
a(S'w'
I2
tp5396
a(S'no_ll'
I1
tp5397
a(S'w'
I1
tp5398
a(S'no_ll'
I1
tp5399
a(S'w'
I1
tp5400
a(S'w'
I715
tp5401
a(S'no_vo'
I0
tp5402
a(S'w'
I722
tp5403
a(S'p1_tl'
I225
tp5404
a(S'w'
I13
tp5405
a(S'p2_tl'
I140
tp5406
a(S'w'
I735
tp5407
a(S'tr_ll'
I1
tp5408
a(S'tr_ll'
I1
tp5409
a(S'w'
I1
tp5410
a(S'tr_tl'
I29
tp5411
a(S'w'
I11
tp5412
a(S'ch_no'
I1
tp5413
a(S'ch_tr'
I1
tp5414
a(S'ch_p2'
I1
tp5415
a(S'ch_p1'
I1
tp5416
a(S'w'
I1
tp5417
a(S'ch_no'
I1
tp5418
a(S'ch_tr'
I1
tp5419
a(S'ch_p2'
I1
tp5420
a(S'ch_p1'
I1
tp5421
a(S'w'
I16
tp5422
a(S'no_vo'
I7
tp5423
a(S'w'
I2
tp5424
a(S'no_ll'
I1
tp5425
a(S'no_ll'
I1
tp5426
a(S'w'
I1
tp5427
a(S'no_np'
I2
tp5428
a(S'w'
I700
tp5429
a(S'no_vo'
I1
tp5430
a(S'w'
I2
tp5431
a(S'no_ll'
I1
tp5432
a(S'no_ll'
I1
tp5433
a(S'w'
I2
tp5434
a(S'no_np'
I1
tp5435
a(S'w'
I719
tp5436
a(S'p1_tl'
I226
tp5437
a(S'w'
I16
tp5438
a(S'p2_tl'
I142
tp5439
a(S'w'
I14
tp5440
a(S'no_vo'
I0
tp5441
a(S'w'
I1436
tp5442
a(S'p1_tl'
I227
tp5443
a(S'w'
I13
tp5444
a(S'p2_tl'
I144
tp5445
a(S'w'
I2217
tp5446
a(S'p1_du'
I0
tp5447
a(S'p1_vo'
I6
tp5448
a(S'w'
I15
tp5449
a(S'p1_ll'
I1
tp5450
a(S'p1_th'
I1
tp5451
a(S'p1_ll'
I1
tp5452
a(S'w'
I2
tp5453
a(S'p1_tl'
I124
tp5454
a(S'w'
I38
tp5455
a(S'p2_du'
I0
tp5456
a(S'p2_vo'
I11
tp5457
a(S'w'
I10
tp5458
a(S'p2_ll'
I1
tp5459
a(S'p2_th'
I1
tp5460
a(S'w'
I1
tp5461
a(S'p2_ll'
I1
tp5462
a(S'w'
I1
tp5463
a(S'p2_tl'
I29
tp5464
a(S'w'
I13
tp5465
a(S'tr_ll'
I1
tp5466
a(S'tr_ll'
I1
tp5467
a(S'w'
I11
tp5468
a(S'ch_no'
I1
tp5469
a(S'ch_tr'
I1
tp5470
a(S'ch_p2'
I1
tp5471
a(S'ch_p1'
I1
tp5472
a(S'w'
I1
tp5473
a(S'ch_no'
I1
tp5474
a(S'ch_tr'
I1
tp5475
a(S'ch_p2'
I1
tp5476
a(S'ch_p1'
I1
tp5477
a(S'w'
I611
tp5478
a(S'p1_du'
I1
tp5479
a(S'p1_vo'
I5
tp5480
a(S'w'
I8
tp5481
a(S'p2_du'
I1
tp5482
a(S'p2_vo'
I10
tp5483
a(S'w'
I727
tp5484
a(S'p1_vo'
I4
tp5485
a(S'w'
I7
tp5486
a(S'p2_vo'
I9
tp5487
a(S'w'
I733
tp5488
a(S'p2_vo'
I8
tp5489
a(S'w'
I739
tp5490
a(S'w'
I4
tp5491
a(S'p1_du'
I0
tp5492
a(S'p1_vo'
I2
tp5493
a(S'w'
I16
tp5494
a(S'w'
I4
tp5495
a(S'p2_du'
I0
tp5496
a(S'p2_vo'
I3
tp5497
a(S'w'
I2177
tp5498
a(S'p1_vo'
I6
tp5499
a(S'w'
I16
tp5500
a(S'p1_tl'
I146
tp5501
a(S'w'
I20
tp5502
a(S'p2_vo'
I11
tp5503
a(S'w'
I12
tp5504
a(S'p2_tl'
I46
tp5505
a(S'w'
I12
tp5506
a(S'tr_ll'
I1
tp5507
a(S'tr_ll'
I1
tp5508
a(S'w'
I2
tp5509
a(S'tr_tl'
I46
tp5510
a(S'w'
I10
tp5511
a(S'ch_no'
I1
tp5512
a(S'ch_tr'
I1
tp5513
a(S'ch_p2'
I1
tp5514
a(S'ch_p1'
I1
tp5515
a(S'w'
I1
tp5516
a(S'ch_no'
I1
tp5517
a(S'ch_tr'
I1
tp5518
a(S'ch_p2'
I1
tp5519
a(S'ch_p1'
I1
tp5520
a(S'w'
I649
tp5521
a(S'p1_du'
I1
tp5522
a(S'p1_vo'
I5
tp5523
a(S'w'
I8
tp5524
a(S'p2_du'
I1
tp5525
a(S'p2_vo'
I10
tp5526
a(S'w'
I726
tp5527
a(S'p1_vo'
I4
tp5528
a(S'w'
I7
tp5529
a(S'p2_vo'
I9
tp5530
a(S'w'
I733
tp5531
a(S'p2_vo'
I8
tp5532
a(S'w'
I740
tp5533
a(S'p1_tl'
I124
tp5534
a(S'w'
I4
tp5535
a(S'p1_du'
I0
tp5536
a(S'p1_vo'
I2
tp5537
a(S'w'
I16
tp5538
a(S'p2_tl'
I29
tp5539
a(S'w'
I4
tp5540
a(S'p2_du'
I0
tp5541
a(S'p2_vo'
I3
tp5542
a(S'w'
I2176
tp5543
a(S'p1_vo'
I6
tp5544
a(S'w'
I16
tp5545
a(S'p1_tl'
I170
tp5546
a(S'w'
I20
tp5547
a(S'p2_vo'
I11
tp5548
a(S'w'
I12
tp5549
a(S'p2_tl'
I64
tp5550
a(S'w'
I13
tp5551
a(S'tr_ll'
I1
tp5552
a(S'tr_ll'
I1
tp5553
a(S'w'
I1
tp5554
a(S'tr_tl'
I64
tp5555
a(S'w'
I10
tp5556
a(S'ch_no'
I1
tp5557
a(S'ch_tr'
I1
tp5558
a(S'ch_p2'
I1
tp5559
a(S'ch_p1'
I1
tp5560
a(S'w'
I1
tp5561
a(S'ch_no'
I1
tp5562
a(S'ch_tr'
I1
tp5563
a(S'ch_p2'
I1
tp5564
a(S'ch_p1'
I1
tp5565
a(S'w'
I649
tp5566
a(S'p1_du'
I1
tp5567
a(S'p1_vo'
I5
tp5568
a(S'w'
I8
tp5569
a(S'p2_du'
I1
tp5570
a(S'p2_vo'
I10
tp5571
a(S'w'
I727
tp5572
a(S'p1_vo'
I4
tp5573
a(S'w'
I7
tp5574
a(S'p2_vo'
I9
tp5575
a(S'w'
I733
tp5576
a(S'p2_vo'
I8
tp5577
a(S'w'
I739
tp5578
a(S'p1_tl'
I124
tp5579
a(S'w'
I4
tp5580
a(S'p1_du'
I0
tp5581
a(S'p1_vo'
I2
tp5582
a(S'w'
I16
tp5583
a(S'p2_tl'
I29
tp5584
a(S'w'
I4
tp5585
a(S'p2_du'
I0
tp5586
a(S'p2_vo'
I3
tp5587
a(S'w'
I2177
tp5588
a(S'p1_vo'
I6
tp5589
a(S'w'
I16
tp5590
a(S'p1_tl'
I196
tp5591
a(S'w'
I20
tp5592
a(S'p2_vo'
I11
tp5593
a(S'w'
I12
tp5594
a(S'p2_tl'
I83
tp5595
a(S'w'
I12
tp5596
a(S'tr_ll'
I1
tp5597
a(S'tr_ll'
I1
tp5598
a(S'w'
I2
tp5599
a(S'tr_tl'
I83
tp5600
a(S'w'
I10
tp5601
a(S'ch_no'
I1
tp5602
a(S'ch_tr'
I1
tp5603
a(S'ch_p2'
I1
tp5604
a(S'ch_p1'
I1
tp5605
a(S'w'
I1
tp5606
a(S'ch_no'
I1
tp5607
a(S'ch_tr'
I1
tp5608
a(S'ch_p2'
I1
tp5609
a(S'ch_p1'
I1
tp5610
a(S'w'
I16
tp5611
a(S'no_vo'
I7
tp5612
a(S'w'
I2
tp5613
a(S'no_ll'
I1
tp5614
a(S'no_ll'
I1
tp5615
a(S'w'
I1
tp5616
a(S'no_np'
I15
tp5617
a(S'w'
I631
tp5618
a(S'p1_du'
I1
tp5619
a(S'p1_vo'
I5
tp5620
a(S'w'
I8
tp5621
a(S'p2_du'
I1
tp5622
a(S'p2_vo'
I10
tp5623
a(S'w'
I10
tp5624
a(S'no_vo'
I5
tp5625
a(S'w'
I2
tp5626
a(S'no_ll'
I1
tp5627
a(S'w'
I1
tp5628
a(S'no_ll'
I1
tp5629
a(S'w'
I1
tp5630
a(S'no_np'
I13
tp5631
a(S'w'
I710
tp5632
a(S'p1_vo'
I4
tp5633
a(S'w'
I8
tp5634
a(S'p2_vo'
I9
tp5635
a(S'w'
I10
tp5636
a(S'no_vo'
I3
tp5637
a(S'w'
I2
tp5638
a(S'no_ll'
I1
tp5639
a(S'no_ll'
I1
tp5640
a(S'w'
I1
tp5641
a(S'no_np'
I8
tp5642
a(S'w'
I719
tp5643
a(S'p2_vo'
I8
tp5644
a(S'w'
I11
tp5645
a(S'no_vo'
I2
tp5646
a(S'w'
I2
tp5647
a(S'no_ll'
I1
tp5648
a(S'no_ll'
I1
tp5649
a(S'w'
I1
tp5650
a(S'no_np'
I6
tp5651
a(S'w'
I725
tp5652
a(S'p1_tl'
I124
tp5653
a(S'w'
I4
tp5654
a(S'p1_du'
I0
tp5655
a(S'p1_vo'
I2
tp5656
a(S'w'
I15
tp5657
a(S'p2_tl'
I29
tp5658
a(S'w'
I4
tp5659
a(S'p2_du'
I0
tp5660
a(S'p2_vo'
I3
tp5661
a(S'w'
I10
tp5662
a(S'no_vo'
I1
tp5663
a(S'w'
I2
tp5664
a(S'no_ll'
I1
tp5665
a(S'no_ll'
I1
tp5666
a(S'w'
I2
tp5667
a(S'w'
I705
tp5668
a(S'no_vo'
I0
tp5669
a(S'w'
I1459
tp5670
a(S'p1_vo'
I6
tp5671
a(S'w'
I16
tp5672
a(S'p1_tl'
I224
tp5673
a(S'w'
I20
tp5674
a(S'p2_vo'
I11
tp5675
a(S'w'
I12
tp5676
a(S'p2_tl'
I103
tp5677
a(S'w'
I13
tp5678
a(S'tr_ll'
I1
tp5679
a(S'tr_ll'
I1
tp5680
a(S'w'
I1
tp5681
a(S'tr_tl'
I103
tp5682
a(S'w'
I10
tp5683
a(S'ch_no'
I1
tp5684
a(S'ch_tr'
I1
tp5685
a(S'ch_p2'
I1
tp5686
a(S'ch_p1'
I1
tp5687
a(S'w'
I2
tp5688
a(S'ch_no'
I1
tp5689
a(S'ch_tr'
I1
tp5690
a(S'ch_p2'
I1
tp5691
a(S'ch_p1'
I1
tp5692
a(S'w'
I15
tp5693
a(S'no_vo'
I7
tp5694
a(S'w'
I2
tp5695
a(S'no_ll'
I1
tp5696
a(S'no_ll'
I1
tp5697
a(S'w'
I2
tp5698
a(S'no_np'
I15
tp5699
a(S'w'
I631
tp5700
a(S'p1_du'
I1
tp5701
a(S'p1_vo'
I5
tp5702
a(S'w'
I8
tp5703
a(S'p2_du'
I1
tp5704
a(S'p2_vo'
I10
tp5705
a(S'w'
I10
tp5706
a(S'no_vo'
I5
tp5707
a(S'w'
I2
tp5708
a(S'no_ll'
I1
tp5709
a(S'w'
I1
tp5710
a(S'no_ll'
I1
tp5711
a(S'w'
I1
tp5712
a(S'no_np'
I13
tp5713
a(S'w'
I711
tp5714
a(S'p1_vo'
I4
tp5715
a(S'w'
I8
tp5716
a(S'p2_vo'
I9
tp5717
a(S'w'
I10
tp5718
a(S'no_vo'
I3
tp5719
a(S'w'
I2
tp5720
a(S'no_ll'
I1
tp5721
a(S'no_ll'
I1
tp5722
a(S'w'
I1
tp5723
a(S'no_np'
I8
tp5724
a(S'w'
I719
tp5725
a(S'p2_vo'
I8
tp5726
a(S'w'
I11
tp5727
a(S'no_vo'
I2
tp5728
a(S'w'
I2
tp5729
a(S'no_ll'
I1
tp5730
a(S'no_ll'
I1
tp5731
a(S'w'
I1
tp5732
a(S'no_np'
I6
tp5733
a(S'w'
I725
tp5734
a(S'p1_tl'
I146
tp5735
a(S'w'
I4
tp5736
a(S'p1_du'
I0
tp5737
a(S'p1_vo'
I2
tp5738
a(S'w'
I15
tp5739
a(S'p2_tl'
I46
tp5740
a(S'w'
I4
tp5741
a(S'p2_du'
I0
tp5742
a(S'p2_vo'
I3
tp5743
a(S'w'
I11
tp5744
a(S'no_vo'
I1
tp5745
a(S'w'
I2
tp5746
a(S'no_ll'
I1
tp5747
a(S'no_ll'
I1
tp5748
a(S'w'
I1
tp5749
a(S'w'
I704
tp5750
a(S'no_vo'
I0
tp5751
a(S'w'
I1460
tp5752
a(S'p1_vo'
I6
tp5753
a(S'w'
I16
tp5754
a(S'p1_tl'
I252
tp5755
a(S'w'
I20
tp5756
a(S'p2_vo'
I11
tp5757
a(S'w'
I12
tp5758
a(S'p2_tl'
I125
tp5759
a(S'w'
I12
tp5760
a(S'tr_ll'
I1
tp5761
a(S'tr_ll'
I1
tp5762
a(S'w'
I2
tp5763
a(S'tr_tl'
I125
tp5764
a(S'w'
I10
tp5765
a(S'ch_no'
I1
tp5766
a(S'ch_tr'
I1
tp5767
a(S'ch_p2'
I1
tp5768
a(S'ch_p1'
I1
tp5769
a(S'w'
I1
tp5770
a(S'ch_no'
I1
tp5771
a(S'ch_tr'
I1
tp5772
a(S'ch_p2'
I1
tp5773
a(S'ch_p1'
I1
tp5774
a(S'w'
I16
tp5775
a(S'no_vo'
I7
tp5776
a(S'w'
I2
tp5777
a(S'no_ll'
I1
tp5778
a(S'no_ll'
I1
tp5779
a(S'w'
I1
tp5780
a(S'no_np'
I15
tp5781
a(S'w'
I632
tp5782
a(S'p1_du'
I1
tp5783
a(S'p1_vo'
I5
tp5784
a(S'w'
I8
tp5785
a(S'p2_du'
I1
tp5786
a(S'p2_vo'
I10
tp5787
a(S'w'
I10
tp5788
a(S'no_vo'
I5
tp5789
a(S'w'
I2
tp5790
a(S'no_ll'
I1
tp5791
a(S'w'
I1
tp5792
a(S'no_ll'
I1
tp5793
a(S'w'
I1
tp5794
a(S'no_np'
I13
tp5795
a(S'w'
I711
tp5796
a(S'p1_vo'
I4
tp5797
a(S'w'
I8
tp5798
a(S'p2_vo'
I9
tp5799
a(S'w'
I10
tp5800
a(S'no_vo'
I3
tp5801
a(S'w'
I2
tp5802
a(S'no_ll'
I1
tp5803
a(S'no_ll'
I1
tp5804
a(S'w'
I1
tp5805
a(S'no_np'
I8
tp5806
a(S'w'
I718
tp5807
a(S'p2_vo'
I8
tp5808
a(S'w'
I11
tp5809
a(S'no_vo'
I2
tp5810
a(S'w'
I2
tp5811
a(S'no_ll'
I1
tp5812
a(S'no_ll'
I1
tp5813
a(S'w'
I1
tp5814
a(S'no_np'
I6
tp5815
a(S'w'
I725
tp5816
a(S'p1_tl'
I170
tp5817
a(S'w'
I4
tp5818
a(S'p1_du'
I0
tp5819
a(S'p1_vo'
I2
tp5820
a(S'w'
I15
tp5821
a(S'p2_tl'
I64
tp5822
a(S'w'
I4
tp5823
a(S'p2_du'
I0
tp5824
a(S'p2_vo'
I3
tp5825
a(S'w'
I11
tp5826
a(S'no_vo'
I1
tp5827
a(S'w'
I2
tp5828
a(S'no_ll'
I1
tp5829
a(S'no_ll'
I1
tp5830
a(S'w'
I1
tp5831
a(S'w'
I705
tp5832
a(S'no_vo'
I0
tp5833
a(S'w'
I1479
tp5834
a(S'p1_du'
I1
tp5835
a(S'p1_vo'
I5
tp5836
a(S'w'
I15
tp5837
a(S'p1_ll'
I1
tp5838
a(S'p1_th'
I0
tp5839
a(S'p1_ll'
I1
tp5840
a(S'w'
I2
tp5841
a(S'p1_tl'
I226
tp5842
a(S'w'
I49
tp5843
a(S'p2_vo'
I10
tp5844
a(S'w'
I11
tp5845
a(S'p2_ll'
I1
tp5846
a(S'p2_th'
I0
tp5847
a(S'p2_ll'
I1
tp5848
a(S'w'
I2
tp5849
a(S'p2_tl'
I169
tp5850
a(S'w'
I20
tp5851
a(S'tr_lr'
I42
tp5852
a(S'w'
I6
tp5853
a(S'tr_ll'
I1
tp5854
a(S'tr_th'
I2
tp5855
a(S'tr_ll'
I1
tp5856
a(S'w'
I1
tp5857
a(S'tr_tl'
I167
tp5858
a(S'w'
I19
tp5859
a(S'ch_no'
I1
tp5860
a(S'ch_tr'
I1
tp5861
a(S'ch_p2'
I1
tp5862
a(S'ch_p1'
I1
tp5863
a(S'w'
I1
tp5864
a(S'ch_no'
I1
tp5865
a(S'ch_tr'
I1
tp5866
a(S'ch_p2'
I1
tp5867
a(S'ch_p1'
I1
tp5868
a(S'w'
I580
tp5869
a(S'p1_vo'
I4
tp5870
a(S'w'
I13
tp5871
a(S'p2_du'
I1
tp5872
a(S'p2_vo'
I8
tp5873
a(S'w'
I722
tp5874
a(S'w'
I7
tp5875
a(S'p1_vo'
I3
tp5876
a(S'w'
I11
tp5877
a(S'w'
I11
tp5878
a(S'p2_vo'
I7
tp5879
a(S'w'
I704
tp5880
a(S'p1_vo'
I2
tp5881
a(S'w'
I13
tp5882
a(S'p2_vo'
I4
tp5883
a(S'w'
I721
tp5884
a(S'p1_tl'
I227
tp5885
a(S'w'
I7
tp5886
a(S'p1_vo'
I1
tp5887
a(S'w'
I10
tp5888
a(S'p2_tl'
I171
tp5889
a(S'w'
I12
tp5890
a(S'p2_vo'
I3
tp5891
a(S'w'
I716
tp5892
a(S'p2_vo'
I1
tp5893
a(S'w'
I1456
tp5894
a(S'p1_tl'
I226
tp5895
a(S'w'
I16
tp5896
a(S'p2_tl'
I169
tp5897
a(S'w'
I31
tp5898
a(S'no_vo'
I7
tp5899
a(S'w'
I2
tp5900
a(S'no_ll'
I1
tp5901
a(S'no_ll'
I1
tp5902
a(S'w'
I2
tp5903
a(S'no_np'
I2
tp5904
a(S'w'
I699
tp5905
a(S'no_vo'
I1
tp5906
a(S'w'
I2
tp5907
a(S'no_ll'
I1
tp5908
a(S'no_ll'
I1
tp5909
a(S'w'
I1
tp5910
a(S'no_np'
I1
tp5911
a(S'w'
I714
tp5912
a(S'p1_tl'
I225
tp5913
a(S'w'
I15
tp5914
a(S'p2_tl'
I167
tp5915
a(S'w'
I17
tp5916
a(S'no_vo'
I0
tp5917
a(S'w'
I713
tp5918
a(S'p1_tl'
I226
tp5919
a(S'w'
I732
tp5920
a(S'w'
I20
tp5921
a(S'p2_tl'
I169
tp5922
a(S'w'
I4
tp5923
a(S'p2_du'
I0
tp5924
a(S'w'
I710
tp5925
a(S'w'
I19
tp5926
a(S'w'
I715
tp5927
a(S'w'
I18
tp5928
a(S'w'
I713
tp5929
a(S'p1_vo'
I5
tp5930
a(S'w'
I16
tp5931
a(S'w'
I22
tp5932
a(S'p2_vo'
I10
tp5933
a(S'w'
I12
tp5934
a(S'w'
I8
tp5935
a(S'tr_lr'
I21
tp5936
a(S'w'
I6
tp5937
a(S'tr_ll'
I1
tp5938
a(S'tr_th'
I1
tp5939
a(S'tr_ll'
I1
tp5940
a(S'w'
I2
tp5941
a(S'tr_tl'
I83
tp5942
a(S'w'
I9
tp5943
a(S'ch_no'
I1
tp5944
a(S'ch_tr'
I1
tp5945
a(S'ch_p2'
I1
tp5946
a(S'ch_p1'
I1
tp5947
a(S'w'
I1
tp5948
a(S'ch_no'
I1
tp5949
a(S'ch_tr'
I1
tp5950
a(S'ch_p2'
I1
tp5951
a(S'ch_p1'
I1
tp5952
a(S'w'
I651
tp5953
a(S'p1_vo'
I4
tp5954
a(S'w'
I13
tp5955
a(S'p2_du'
I1
tp5956
a(S'p2_vo'
I8
tp5957
a(S'w'
I722
tp5958
a(S'w'
I7
tp5959
a(S'p1_vo'
I3
tp5960
a(S'w'
I11
tp5961
a(S'w'
I11
tp5962
a(S'p2_vo'
I7
tp5963
a(S'w'
I711
tp5964
a(S'p1_vo'
I5
tp5965
a(S'w'
I16
tp5966
a(S'p1_tl'
I212
tp5967
a(S'w'
I23
tp5968
a(S'p2_du'
I0
tp5969
a(S'p2_vo'
I10
tp5970
a(S'w'
I12
tp5971
a(S'p2_tl'
I160
tp5972
a(S'w'
I676
tp5973
a(S'p1_vo'
I4
tp5974
a(S'w'
I14
tp5975
a(S'p2_du'
I1
tp5976
a(S'p2_vo'
I8
tp5977
a(S'w'
I720
tp5978
a(S'w'
I7
tp5979
a(S'p1_vo'
I3
tp5980
a(S'w'
I11
tp5981
a(S'w'
I11
tp5982
a(S'p2_vo'
I7
tp5983
a(S'w'
I704
tp5984
a(S'p1_vo'
I2
tp5985
a(S'w'
I13
tp5986
a(S'p2_vo'
I4
tp5987
a(S'w'
I732
tp5988
a(S'p1_vo'
I5
tp5989
a(S'w'
I16
tp5990
a(S'p1_tl'
I226
tp5991
a(S'w'
I26
tp5992
a(S'p2_du'
I0
tp5993
a(S'p2_vo'
I10
tp5994
a(S'w'
I11
tp5995
a(S'p2_tl'
I169
tp5996
a(S'w'
I13
tp5997
a(S'tr_lr'
I42
tp5998
a(S'w'
I6
tp5999
a(S'tr_ll'
I1
tp6000
a(S'tr_th'
I2
tp6001
a(S'tr_ll'
I1
tp6002
a(S'w'
I1
tp6003
a(S'tr_tl'
I167
tp6004
a(S'w'
I10
tp6005
a(S'ch_no'
I1
tp6006
a(S'ch_tr'
I1
tp6007
a(S'ch_p2'
I1
tp6008
a(S'ch_p1'
I1
tp6009
a(S'w'
I1
tp6010
a(S'ch_no'
I1
tp6011
a(S'ch_tr'
I1
tp6012
a(S'ch_p2'
I1
tp6013
a(S'ch_p1'
I1
tp6014
a(S'w'
I639
tp6015
a(S'p1_vo'
I4
tp6016
a(S'w'
I14
tp6017
a(S'p2_du'
I1
tp6018
a(S'p2_vo'
I8
tp6019
a(S'w'
I721
tp6020
a(S'w'
I7
tp6021
a(S'p1_vo'
I3
tp6022
a(S'w'
I12
tp6023
a(S'w'
I11
tp6024
a(S'p2_vo'
I7
tp6025
a(S'w'
I702
tp6026
a(S'p1_vo'
I2
tp6027
a(S'w'
I14
tp6028
a(S'p2_vo'
I4
tp6029
a(S'w'
I720
tp6030
a(S'p1_tl'
I227
tp6031
a(S'w'
I8
tp6032
a(S'p1_vo'
I1
tp6033
a(S'w'
I10
tp6034
a(S'p2_tl'
I171
tp6035
a(S'w'
I11
tp6036
a(S'p2_vo'
I3
tp6037
a(S'w'
I718
tp6038
a(S'p2_vo'
I1
tp6039
a(S'w'
I1455
tp6040
a(S'p1_tl'
I226
tp6041
a(S'w'
I16
tp6042
a(S'p2_tl'
I169
tp6043
a(S'w'
I32
tp6044
a(S'no_vo'
I7
tp6045
a(S'w'
I2
tp6046
a(S'no_ll'
I1
tp6047
a(S'no_ll'
I1
tp6048
a(S'w'
I1
tp6049
a(S'no_np'
I2
tp6050
a(S'w'
I699
tp6051
a(S'no_vo'
I1
tp6052
a(S'w'
I2
tp6053
a(S'no_ll'
I1
tp6054
a(S'no_ll'
I1
tp6055
a(S'w'
I1
tp6056
a(S'no_np'
I1
tp6057
a(S'w'
I713
tp6058
a(S'p1_tl'
I225
tp6059
a(S'w'
I16
tp6060
a(S'p2_tl'
I167
tp6061
a(S'w'
I17
tp6062
a(S'no_vo'
I0
tp6063
a(S'w'
I712
tp6064
a(S'p1_tl'
I226
tp6065
a(S'w'
I733
tp6066
a(S'w'
I20
tp6067
a(S'p2_tl'
I169
tp6068
a(S'w'
I4
tp6069
a(S'p2_du'
I0
tp6070
a(S'w'
I710
tp6071
a(S'w'
I18
tp6072
a(S'w'
I715
tp6073
a(S'w'
I19
tp6074
a(S'w'
I713
tp6075
a(S'p1_vo'
I5
tp6076
a(S'w'
I16
tp6077
a(S'p1_tl'
I254
tp6078
a(S'w'
I24
tp6079
a(S'p2_vo'
I10
tp6080
a(S'w'
I12
tp6081
a(S'p2_tl'
I190
tp6082
a(S'w'
I8
tp6083
a(S'tr_lr'
I21
tp6084
a(S'w'
I6
tp6085
a(S'tr_ll'
I1
tp6086
a(S'tr_th'
I1
tp6087
a(S'tr_ll'
I1
tp6088
a(S'w'
I1
tp6089
a(S'tr_tl'
I83
tp6090
a(S'w'
I10
tp6091
a(S'ch_no'
I1
tp6092
a(S'ch_tr'
I1
tp6093
a(S'ch_p2'
I1
tp6094
a(S'ch_p1'
I1
tp6095
a(S'w'
I1
tp6096
a(S'ch_no'
I1
tp6097
a(S'ch_tr'
I1
tp6098
a(S'ch_p2'
I1
tp6099
a(S'ch_p1'
I1
tp6100
a(S'w'
I649
tp6101
a(S'p1_vo'
I4
tp6102
a(S'w'
I14
tp6103
a(S'p2_du'
I1
tp6104
a(S'p2_vo'
I8
tp6105
a(S'w'
I721
tp6106
a(S'w'
I7
tp6107
a(S'p1_vo'
I3
tp6108
a(S'w'
I12
tp6109
a(S'w'
I11
tp6110
a(S'p2_vo'
I7
tp6111
a(S'w'
I703
tp6112
a(S'p1_vo'
I2
tp6113
a(S'w'
I14
tp6114
a(S'p2_vo'
I4
tp6115
a(S'w'
I719
tp6116
a(S'p1_tl'
I255
tp6117
a(S'w'
I8
tp6118
a(S'p1_vo'
I1
tp6119
a(S'w'
I10
tp6120
a(S'p2_tl'
I192
tp6121
a(S'w'
I11
tp6122
a(S'p2_vo'
I3
tp6123
a(S'w'
I718
tp6124
a(S'p2_vo'
I1
tp6125
a(S'w'
I733
tp6126
a(S'p1_tl'
I254
tp6127
a(S'w'
I20
tp6128
a(S'p2_tl'
I190
tp6129
a(S'w'
I4
tp6130
a(S'p2_du'
I0
tp6131
a(S'w'
I713
tp6132
a(S'p1_vo'
I5
tp6133
a(S'w'
I16
tp6134
a(S'p1_tl'
I226
tp6135
a(S'w'
I30
tp6136
a(S'p2_vo'
I10
tp6137
a(S'w'
I12
tp6138
a(S'p2_tl'
I169
tp6139
a(S'w'
I12
tp6140
a(S'tr_lr'
I42
tp6141
a(S'w'
I6
tp6142
a(S'tr_ll'
I1
tp6143
a(S'tr_th'
I2
tp6144
a(S'tr_ll'
I1
tp6145
a(S'w'
I1
tp6146
a(S'tr_tl'
I167
tp6147
a(S'w'
I14
tp6148
a(S'ch_no'
I1
tp6149
a(S'ch_tr'
I1
tp6150
a(S'ch_p2'
I1
tp6151
a(S'ch_p1'
I1
tp6152
a(S'w'
I1
tp6153
a(S'ch_no'
I1
tp6154
a(S'ch_tr'
I1
tp6155
a(S'ch_p2'
I1
tp6156
a(S'ch_p1'
I1
tp6157
a(S'w'
I626
tp6158
a(S'p1_vo'
I4
tp6159
a(S'w'
I13
tp6160
a(S'p2_du'
I1
tp6161
a(S'p2_vo'
I8
tp6162
a(S'w'
I722
tp6163
a(S'w'
I7
tp6164
a(S'p1_vo'
I3
tp6165
a(S'w'
I11
tp6166
a(S'w'
I11
tp6167
a(S'p2_vo'
I7
tp6168
a(S'w'
I704
tp6169
a(S'p1_vo'
I2
tp6170
a(S'w'
I13
tp6171
a(S'p2_vo'
I4
tp6172
a(S'w'
I721
tp6173
a(S'p1_tl'
I227
tp6174
a(S'w'
I7
tp6175
a(S'p1_vo'
I1
tp6176
a(S'w'
I10
tp6177
a(S'p2_tl'
I171
tp6178
a(S'w'
I12
tp6179
a(S'p2_vo'
I3
tp6180
a(S'w'
I717
tp6181
a(S'p2_vo'
I1
tp6182
a(S'w'
I1455
tp6183
a(S'p1_tl'
I226
tp6184
a(S'w'
I16
tp6185
a(S'p2_tl'
I169
tp6186
a(S'w'
I31
tp6187
a(S'no_vo'
I7
tp6188
a(S'w'
I2
tp6189
a(S'no_ll'
I1
tp6190
a(S'no_ll'
I1
tp6191
a(S'w'
I2
tp6192
a(S'no_np'
I2
tp6193
a(S'w'
I699
tp6194
a(S'no_vo'
I1
tp6195
a(S'w'
I2
tp6196
a(S'no_ll'
I1
tp6197
a(S'no_ll'
I1
tp6198
a(S'w'
I1
tp6199
a(S'no_np'
I1
tp6200
a(S'w'
I714
tp6201
a(S'p1_tl'
I225
tp6202
a(S'w'
I15
tp6203
a(S'p2_tl'
I167
tp6204
a(S'w'
I17
tp6205
a(S'no_vo'
I0
tp6206
a(S'w'
I713
tp6207
a(S'p1_tl'
I226
tp6208
a(S'w'
I732
tp6209
a(S'w'
I20
tp6210
a(S'p2_tl'
I169
tp6211
a(S'w'
I4
tp6212
a(S'p2_du'
I0
tp6213
a(S'w'
I710
tp6214
a(S'w'
I19
tp6215
a(S'w'
I715
tp6216
a(S'w'
I18
tp6217
a(S'w'
I713
tp6218
a(S'p1_vo'
I5
tp6219
a(S'w'
I16
tp6220
a(S'w'
I22
tp6221
a(S'p2_vo'
I10
tp6222
a(S'w'
I12
tp6223
a(S'w'
I8
tp6224
a(S'tr_lr'
I21
tp6225
a(S'w'
I6
tp6226
a(S'tr_ll'
I1
tp6227
a(S'tr_th'
I1
tp6228
a(S'tr_ll'
I1
tp6229
a(S'w'
I2
tp6230
a(S'tr_tl'
I83
tp6231
a(S'w'
I9
tp6232
a(S'ch_no'
I1
tp6233
a(S'ch_tr'
I1
tp6234
a(S'ch_p2'
I1
tp6235
a(S'ch_p1'
I1
tp6236
a(S'w'
I1
tp6237
a(S'ch_no'
I1
tp6238
a(S'ch_tr'
I1
tp6239
a(S'ch_p2'
I1
tp6240
a(S'ch_p1'
I1
tp6241
a(S'w'
I652
tp6242
a(S'p1_vo'
I4
tp6243
a(S'w'
I13
tp6244
a(S'p2_du'
I1
tp6245
a(S'p2_vo'
I8
tp6246
a(S'w'
I721
tp6247
a(S'w'
I7
tp6248
a(S'p1_vo'
I3
tp6249
a(S'w'
I11
tp6250
a(S'w'
I11
tp6251
a(S'p2_vo'
I7
tp6252
a(S'w'
I711
tp6253
a(S'p1_vo'
I5
tp6254
a(S'w'
I16
tp6255
a(S'p1_tl'
I212
tp6256
a(S'w'
I23
tp6257
a(S'p2_du'
I0
tp6258
a(S'p2_vo'
I10
tp6259
a(S'w'
I12
tp6260
a(S'p2_tl'
I160
tp6261
a(S'w'
I676
tp6262
a(S'p1_vo'
I4
tp6263
a(S'w'
I14
tp6264
a(S'p2_du'
I1
tp6265
a(S'p2_vo'
I8
tp6266
a(S'w'
I721
tp6267
a(S'w'
I7
tp6268
a(S'p1_vo'
I3
tp6269
a(S'w'
I11
tp6270
a(S'w'
I11
tp6271
a(S'p2_vo'
I7
tp6272
a(S'w'
I704
tp6273
a(S'p1_vo'
I2
tp6274
a(S'w'
I13
tp6275
a(S'p2_vo'
I4
tp6276
a(S'w'
I731
tp6277
a(S'p1_vo'
I5
tp6278
a(S'w'
I16
tp6279
a(S'p1_tl'
I226
tp6280
a(S'w'
I26
tp6281
a(S'p2_du'
I0
tp6282
a(S'p2_vo'
I10
tp6283
a(S'w'
I11
tp6284
a(S'p2_tl'
I169
tp6285
a(S'w'
I13
tp6286
a(S'tr_lr'
I42
tp6287
a(S'w'
I6
tp6288
a(S'tr_ll'
I1
tp6289
a(S'tr_th'
I2
tp6290
a(S'tr_ll'
I1
tp6291
a(S'w'
I1
tp6292
a(S'tr_tl'
I167
tp6293
a(S'w'
I10
tp6294
a(S'ch_no'
I1
tp6295
a(S'ch_tr'
I1
tp6296
a(S'ch_p2'
I1
tp6297
a(S'ch_p1'
I1
tp6298
a(S'w'
I1
tp6299
a(S'ch_no'
I1
tp6300
a(S'ch_tr'
I1
tp6301
a(S'ch_p2'
I1
tp6302
a(S'ch_p1'
I1
tp6303
a(S'w'
I639
tp6304
a(S'p1_vo'
I4
tp6305
a(S'w'
I14
tp6306
a(S'p2_du'
I1
tp6307
a(S'p2_vo'
I8
tp6308
a(S'w'
I721
tp6309
a(S'w'
I7
tp6310
a(S'p1_vo'
I3
tp6311
a(S'w'
I12
tp6312
a(S'w'
I11
tp6313
a(S'p2_vo'
I7
tp6314
a(S'w'
I703
tp6315
a(S'p1_vo'
I2
tp6316
a(S'w'
I14
tp6317
a(S'p2_vo'
I4
tp6318
a(S'w'
I719
tp6319
a(S'p1_tl'
I227
tp6320
a(S'w'
I8
tp6321
a(S'p1_vo'
I1
tp6322
a(S'w'
I10
tp6323
a(S'p2_tl'
I171
tp6324
a(S'w'
I11
tp6325
a(S'p2_vo'
I3
tp6326
a(S'w'
I718
tp6327
a(S'p2_vo'
I1
tp6328
a(S'w'
I1455
tp6329
a(S'p1_tl'
I226
tp6330
a(S'w'
I16
tp6331
a(S'p2_tl'
I169
tp6332
a(S'w'
I32
tp6333
a(S'no_vo'
I7
tp6334
a(S'w'
I2
tp6335
a(S'no_ll'
I1
tp6336
a(S'no_ll'
I1
tp6337
a(S'w'
I1
tp6338
a(S'no_np'
I2
tp6339
a(S'w'
I700
tp6340
a(S'no_vo'
I1
tp6341
a(S'w'
I2
tp6342
a(S'no_ll'
I1
tp6343
a(S'no_ll'
I1
tp6344
a(S'w'
I1
tp6345
a(S'no_np'
I1
tp6346
a(S'w'
I712
tp6347
a(S'p1_tl'
I225
tp6348
a(S'w'
I16
tp6349
a(S'p2_tl'
I167
tp6350
a(S'w'
I17
tp6351
a(S'no_vo'
I0
tp6352
a(S'w'
I712
tp6353
a(S'p1_tl'
I226
tp6354
a(S'w'
I733
tp6355
a(S'w'
I20
tp6356
a(S'p2_tl'
I169
tp6357
a(S'w'
I4
tp6358
a(S'p2_du'
I0
tp6359
a(S'w'
I710
tp6360
a(S'w'
I18
tp6361
a(S'w'
I716
tp6362
a(S'w'
I19
tp6363
a(S'w'
I712
tp6364
a(S'p1_vo'
I5
tp6365
a(S'w'
I16
tp6366
a(S'p1_tl'
I254
tp6367
a(S'w'
I24
tp6368
a(S'p2_vo'
I10
tp6369
a(S'w'
I12
tp6370
a(S'p2_tl'
I190
tp6371
a(S'w'
I8
tp6372
a(S'tr_lr'
I21
tp6373
a(S'w'
I6
tp6374
a(S'tr_ll'
I1
tp6375
a(S'tr_th'
I1
tp6376
a(S'tr_ll'
I1
tp6377
a(S'w'
I1
tp6378
a(S'tr_tl'
I83
tp6379
a(S'w'
I10
tp6380
a(S'ch_no'
I1
tp6381
a(S'ch_tr'
I1
tp6382
a(S'ch_p2'
I1
tp6383
a(S'ch_p1'
I1
tp6384
a(S'w'
I1
tp6385
a(S'ch_no'
I1
tp6386
a(S'ch_tr'
I1
tp6387
a(S'ch_p2'
I1
tp6388
a(S'ch_p1'
I1
tp6389
a(S'w'
I649
tp6390
a(S'p1_vo'
I4
tp6391
a(S'w'
I14
tp6392
a(S'p2_du'
I1
tp6393
a(S'p2_vo'
I8
tp6394
a(S'w'
I721
tp6395
a(S'w'
I8
tp6396
a(S'p1_vo'
I3
tp6397
a(S'w'
I11
tp6398
a(S'w'
I11
tp6399
a(S'p2_vo'
I7
tp6400
a(S'w'
I703
tp6401
a(S'p1_vo'
I2
tp6402
a(S'w'
I14
tp6403
a(S'p2_vo'
I4
tp6404
a(S'w'
I720
tp6405
a(S'p1_tl'
I255
tp6406
a(S'w'
I8
tp6407
a(S'p1_vo'
I1
tp6408
a(S'w'
I10
tp6409
a(S'p2_tl'
I192
tp6410
a(S'w'
I11
tp6411
a(S'p2_vo'
I3
tp6412
a(S'w'
I717
tp6413
a(S'p2_vo'
I1
tp6414
a(S'w'
I733
tp6415
a(S'p1_tl'
I254
tp6416
a(S'w'
I20
tp6417
a(S'p2_tl'
I190
tp6418
a(S'w'
I4
tp6419
a(S'p2_du'
I0
tp6420
a(S'w'
I723
tp6421
a(S'p1_du'
I2
tp6422
a(S'p1_vo'
I5
tp6423
a(S'w'
I11
tp6424
a(S'p1_ll'
I1
tp6425
a(S'p1_th'
I1
tp6426
a(S'p1_ll'
I1
tp6427
a(S'w'
I1
tp6428
a(S'p1_tl'
I197
tp6429
a(S'w'
I38
tp6430
a(S'p2_du'
I1
tp6431
a(S'p2_vo'
I8
tp6432
a(S'w'
I11
tp6433
a(S'p2_ll'
I1
tp6434
a(S'p2_th'
I1
tp6435
a(S'p2_ll'
I1
tp6436
a(S'w'
I2
tp6437
a(S'p2_tl'
I83
tp6438
a(S'w'
I15
tp6439
a(S'tr_lr'
I63
tp6440
a(S'w'
I6
tp6441
a(S'tr_ll'
I1
tp6442
a(S'tr_th'
I2
tp6443
a(S'tr_ll'
I1
tp6444
a(S'w'
I1
tp6445
a(S'tr_tl'
I167
tp6446
a(S'w'
I31
tp6447
a(S'no_vo'
I7
tp6448
a(S'w'
I2
tp6449
a(S'no_ll'
I1
tp6450
a(S'no_ll'
I1
tp6451
a(S'w'
I1
tp6452
a(S'no_np'
I2
tp6453
a(S'w'
I588
tp6454
a(S'p1_du'
I0
tp6455
a(S'p1_vo'
I4
tp6456
a(S'w'
I10
tp6457
a(S'p2_du'
I0
tp6458
a(S'p2_vo'
I7
tp6459
a(S'w'
I10
tp6460
a(S'no_vo'
I1
tp6461
a(S'w'
I2
tp6462
a(S'no_ll'
I1
tp6463
a(S'w'
I1
tp6464
a(S'no_ll'
I1
tp6465
a(S'w'
I1
tp6466
a(S'no_np'
I1
tp6467
a(S'w'
I709
tp6468
a(S'p1_vo'
I3
tp6469
a(S'w'
I12
tp6470
a(S'w'
I7
tp6471
a(S'p2_vo'
I6
tp6472
a(S'w'
I10
tp6473
a(S'no_vo'
I0
tp6474
a(S'w'
I712
tp6475
a(S'p2_vo'
I5
tp6476
a(S'w'
I734
tp6477
a(S'p2_tl'
I85
tp6478
a(S'w'
I2203
tp6479
a(S'p2_tl'
I83
tp6480
a(S'w'
I32
tp6481
a(S'no_vo'
I7
tp6482
a(S'w'
I2
tp6483
a(S'no_ll'
I1
tp6484
a(S'no_ll'
I1
tp6485
a(S'w'
I1
tp6486
a(S'no_np'
I2
tp6487
a(S'w'
I706
tp6488
a(S'no_vo'
I1
tp6489
a(S'w'
I2
tp6490
a(S'no_ll'
I1
tp6491
a(S'no_ll'
I1
tp6492
a(S'w'
I1
tp6493
a(S'no_np'
I1
tp6494
a(S'w'
I725
tp6495
a(S'p1_ll'
I1
tp6496
a(S'p1_th'
I0
tp6497
a(S'p1_ll'
I1
tp6498
a(S'w'
I1
tp6499
a(S'p1_tl'
I254
tp6500
a(S'w'
I4
tp6501
a(S'p1_vo'
I1
tp6502
a(S'w'
I10
tp6503
a(S'p2_tl'
I81
tp6504
a(S'w'
I15
tp6505
a(S'p2_tl'
I83
tp6506
a(S'w'
I4
tp6507
a(S'p2_vo'
I1
tp6508
a(S'w'
I10
tp6509
a(S'no_vo'
I0
tp6510
a(S'w'
I695
tp6511
a(S'w'
I733
tp6512
a(S'w'
I734
tp6513
a(S'w'
I734
tp6514
a(S'w'
I729
tp6515
a(S'p1_du'
I2
tp6516
a(S'p1_vo'
I5
tp6517
a(S'w'
I11
tp6518
a(S'p1_tl'
I226
tp6519
a(S'w'
I22
tp6520
a(S'p2_du'
I1
tp6521
a(S'p2_vo'
I8
tp6522
a(S'w'
I12
tp6523
a(S'p2_ll'
I1
tp6524
a(S'p2_th'
I0
tp6525
a(S'p2_ll'
I1
tp6526
a(S'w'
I1
tp6527
a(S'p2_tl'
I169
tp6528
a(S'w'
I27
tp6529
a(S'no_vo'
I7
tp6530
a(S'w'
I2
tp6531
a(S'no_ll'
I1
tp6532
a(S'no_ll'
I1
tp6533
a(S'w'
I1
tp6534
a(S'no_np'
I2
tp6535
a(S'w'
I647
tp6536
a(S'p1_du'
I0
tp6537
a(S'p1_vo'
I4
tp6538
a(S'w'
I10
tp6539
a(S'p2_du'
I0
tp6540
a(S'p2_vo'
I7
tp6541
a(S'w'
I10
tp6542
a(S'no_vo'
I1
tp6543
a(S'w'
I2
tp6544
a(S'no_ll'
I1
tp6545
a(S'no_ll'
I1
tp6546
a(S'w'
I1
tp6547
a(S'no_np'
I1
tp6548
a(S'w'
I711
tp6549
a(S'p1_vo'
I3
tp6550
a(S'w'
I11
tp6551
a(S'w'
I7
tp6552
a(S'p2_vo'
I6
tp6553
a(S'w'
I11
tp6554
a(S'no_vo'
I0
tp6555
a(S'w'
I712
tp6556
a(S'p2_vo'
I5
tp6557
a(S'w'
I734
tp6558
a(S'p2_tl'
I171
tp6559
a(S'w'
I737
tp6560
a(S'p1_tl'
I254
tp6561
a(S'w'
I4
tp6562
a(S'p1_vo'
I1
tp6563
a(S'w'
I18
tp6564
a(S'p2_tl'
I169
tp6565
a(S'w'
I4
tp6566
a(S'p2_vo'
I1
tp6567
a(S'w'
I713
tp6568
a(S'w'
I727
tp6569
a(S'p1_du'
I2
tp6570
a(S'p1_vo'
I5
tp6571
a(S'w'
I11
tp6572
a(S'p1_ll'
I1
tp6573
a(S'p1_th'
I1
tp6574
a(S'p1_ll'
I1
tp6575
a(S'w'
I2
tp6576
a(S'p1_tl'
I171
tp6577
a(S'w'
I24
tp6578
a(S'p2_du'
I1
tp6579
a(S'p2_vo'
I8
tp6580
a(S'w'
I11
tp6581
a(S'p2_ll'
I1
tp6582
a(S'p2_th'
I1
tp6583
a(S'p2_ll'
I1
tp6584
a(S'w'
I1
tp6585
a(S'p2_tl'
I64
tp6586
a(S'w'
I14
tp6587
a(S'tr_ll'
I1
tp6588
a(S'tr_ll'
I1
tp6589
a(S'w'
I2
tp6590
a(S'tr_tl'
I128
tp6591
a(S'w'
I24
tp6592
a(S'no_vo'
I8
tp6593
a(S'w'
I2
tp6594
a(S'no_ll'
I1
tp6595
a(S'no_ll'
I1
tp6596
a(S'w'
I1
tp6597
a(S'no_np'
I2
tp6598
a(S'w'
I632
tp6599
a(S'p1_du'
I0
tp6600
a(S'p1_vo'
I4
tp6601
a(S'w'
I10
tp6602
a(S'p2_du'
I0
tp6603
a(S'p2_vo'
I7
tp6604
a(S'w'
I12
tp6605
a(S'no_vo'
I6
tp6606
a(S'w'
I2
tp6607
a(S'no_ll'
I1
tp6608
a(S'no_ll'
I1
tp6609
a(S'w'
I1
tp6610
a(S'no_np'
I1
tp6611
a(S'w'
I709
tp6612
a(S'p1_vo'
I3
tp6613
a(S'w'
I11
tp6614
a(S'w'
I7
tp6615
a(S'p2_vo'
I6
tp6616
a(S'w'
I724
tp6617
a(S'p2_vo'
I5
tp6618
a(S'w'
I734
tp6619
a(S'p2_tl'
I66
tp6620
a(S'w'
I1476
tp6621
a(S'no_vo'
I5
tp6622
a(S'w'
I2
tp6623
a(S'no_ll'
I1
tp6624
a(S'no_ll'
I1
tp6625
a(S'w'
I1
tp6626
a(S'w'
I724
tp6627
a(S'p2_tl'
I64
tp6628
a(S'w'
I32
tp6629
a(S'no_vo'
I8
tp6630
a(S'w'
I2
tp6631
a(S'no_ll'
I1
tp6632
a(S'no_ll'
I1
tp6633
a(S'w'
I1
tp6634
a(S'no_np'
I2
tp6635
a(S'w'
I707
tp6636
a(S'no_vo'
I6
tp6637
a(S'w'
I2
tp6638
a(S'no_ll'
I1
tp6639
a(S'no_ll'
I1
tp6640
a(S'w'
I2
tp6641
a(S'no_np'
I1
tp6642
a(S'w'
I719
tp6643
a(S'p1_tl'
I197
tp6644
a(S'w'
I3
tp6645
a(S'p1_vo'
I1
tp6646
a(S'w'
I11
tp6647
a(S'p2_tl'
I62
tp6648
a(S'w'
I14
tp6649
a(S'p2_tl'
I64
tp6650
a(S'w'
I4
tp6651
a(S'p2_vo'
I1
tp6652
a(S'w'
I709
tp6653
a(S'w'
I735
tp6654
a(S'w'
I734
tp6655
a(S'w'
I734
tp6656
a(S'w'
I14
tp6657
a(S'no_vo'
I5
tp6658
a(S'w'
I2
tp6659
a(S'no_ll'
I1
tp6660
a(S'no_ll'
I1
tp6661
a(S'w'
I1
tp6662
a(S'w'
I712
tp6663
a(S'p1_du'
I2
tp6664
a(S'p1_vo'
I5
tp6665
a(S'w'
I11
tp6666
a(S'p1_ll'
I1
tp6667
a(S'p1_th'
I0
tp6668
a(S'p1_ll'
I1
tp6669
a(S'w'
I2
tp6670
a(S'p1_tl'
I213
tp6671
a(S'w'
I22
tp6672
a(S'p2_du'
I1
tp6673
a(S'p2_vo'
I8
tp6674
a(S'w'
I11
tp6675
a(S'p2_ll'
I1
tp6676
a(S'p2_th'
I0
tp6677
a(S'p2_ll'
I1
tp6678
a(S'w'
I1
tp6679
a(S'p2_tl'
I160
tp6680
a(S'w'
I27
tp6681
a(S'no_vo'
I8
tp6682
a(S'w'
I2
tp6683
a(S'no_ll'
I1
tp6684
a(S'no_ll'
I1
tp6685
a(S'w'
I2
tp6686
a(S'no_np'
I2
tp6687
a(S'w'
I644
tp6688
a(S'p1_du'
I0
tp6689
a(S'p1_vo'
I4
tp6690
a(S'w'
I10
tp6691
a(S'p2_du'
I0
tp6692
a(S'p2_vo'
I7
tp6693
a(S'w'
I12
tp6694
a(S'no_vo'
I6
tp6695
a(S'w'
I2
tp6696
a(S'no_ll'
I1
tp6697
a(S'no_ll'
I1
tp6698
a(S'w'
I1
tp6699
a(S'no_np'
I1
tp6700
a(S'w'
I709
tp6701
a(S'p1_vo'
I3
tp6702
a(S'w'
I11
tp6703
a(S'w'
I7
tp6704
a(S'p2_vo'
I6
tp6705
a(S'w'
I724
tp6706
a(S'p2_vo'
I5
tp6707
a(S'w'
I734
tp6708
a(S'p2_tl'
I162
tp6709
a(S'w'
I733
tp6710
a(S'p1_tl'
I226
tp6711
a(S'w'
I4
tp6712
a(S'p1_vo'
I1
tp6713
a(S'w'
I18
tp6714
a(S'p2_tl'
I160
tp6715
a(S'w'
I3
tp6716
a(S'p2_vo'
I1
tp6717
a(S'w'
I717
tp6718
a(S'w'
I14
tp6719
a(S'no_vo'
I5
tp6720
a(S'w'
I2
tp6721
a(S'no_ll'
I1
tp6722
a(S'no_ll'
I1
tp6723
a(S'w'
I2
tp6724
a(S'w'
I711
tp6725
a(S'p1_du'
I2
tp6726
a(S'p1_vo'
I5
tp6727
a(S'w'
I11
tp6728
a(S'p1_ll'
I1
tp6729
a(S'p1_th'
I1
tp6730
a(S'p1_ll'
I1
tp6731
a(S'w'
I2
tp6732
a(S'p1_tl'
I147
tp6733
a(S'w'
I24
tp6734
a(S'p2_du'
I1
tp6735
a(S'p2_vo'
I8
tp6736
a(S'w'
I11
tp6737
a(S'p2_ll'
I1
tp6738
a(S'p2_th'
I1
tp6739
a(S'p2_ll'
I1
tp6740
a(S'w'
I1
tp6741
a(S'p2_tl'
I46
tp6742
a(S'w'
I14
tp6743
a(S'tr_ll'
I1
tp6744
a(S'tr_ll'
I1
tp6745
a(S'w'
I1
tp6746
a(S'tr_tl'
I92
tp6747
a(S'w'
I10
tp6748
a(S'ch_no'
I1
tp6749
a(S'ch_tr'
I1
tp6750
a(S'ch_p2'
I1
tp6751
a(S'ch_p1'
I1
tp6752
a(S'w'
I1
tp6753
a(S'ch_no'
I1
tp6754
a(S'ch_tr'
I1
tp6755
a(S'ch_p2'
I1
tp6756
a(S'ch_p1'
I1
tp6757
a(S'w'
I16
tp6758
a(S'no_vo'
I7
tp6759
a(S'w'
I2
tp6760
a(S'no_ll'
I1
tp6761
a(S'no_ll'
I1
tp6762
a(S'w'
I1
tp6763
a(S'no_np'
I15
tp6764
a(S'w'
I630
tp6765
a(S'p1_du'
I0
tp6766
a(S'p1_vo'
I4
tp6767
a(S'w'
I10
tp6768
a(S'p2_du'
I0
tp6769
a(S'p2_vo'
I7
tp6770
a(S'w'
I11
tp6771
a(S'no_vo'
I5
tp6772
a(S'w'
I2
tp6773
a(S'no_ll'
I1
tp6774
a(S'no_ll'
I1
tp6775
a(S'w'
I1
tp6776
a(S'no_np'
I13
tp6777
a(S'w'
I709
tp6778
a(S'p1_vo'
I3
tp6779
a(S'w'
I11
tp6780
a(S'w'
I7
tp6781
a(S'p2_vo'
I6
tp6782
a(S'w'
I11
tp6783
a(S'no_vo'
I3
tp6784
a(S'w'
I2
tp6785
a(S'no_ll'
I1
tp6786
a(S'no_ll'
I1
tp6787
a(S'w'
I1
tp6788
a(S'no_np'
I8
tp6789
a(S'w'
I710
tp6790
a(S'p2_vo'
I5
tp6791
a(S'w'
I11
tp6792
a(S'no_vo'
I2
tp6793
a(S'w'
I2
tp6794
a(S'no_ll'
I1
tp6795
a(S'no_ll'
I1
tp6796
a(S'w'
I1
tp6797
a(S'no_np'
I6
tp6798
a(S'w'
I719
tp6799
a(S'p2_tl'
I48
tp6800
a(S'w'
I17
tp6801
a(S'no_vo'
I1
tp6802
a(S'w'
I2
tp6803
a(S'no_ll'
I1
tp6804
a(S'no_ll'
I1
tp6805
a(S'w'
I1
tp6806
a(S'w'
I723
tp6807
a(S'no_vo'
I0
tp6808
a(S'w'
I1461
tp6809
a(S'p2_tl'
I46
tp6810
a(S'w'
I17
tp6811
a(S'ch_no'
I1
tp6812
a(S'ch_tr'
I1
tp6813
a(S'ch_p2'
I1
tp6814
a(S'ch_p1'
I1
tp6815
a(S'w'
I1
tp6816
a(S'ch_no'
I1
tp6817
a(S'ch_tr'
I1
tp6818
a(S'ch_p2'
I1
tp6819
a(S'ch_p1'
I1
tp6820
a(S'w'
I16
tp6821
a(S'no_vo'
I7
tp6822
a(S'w'
I2
tp6823
a(S'no_ll'
I1
tp6824
a(S'no_ll'
I1
tp6825
a(S'w'
I1
tp6826
a(S'no_np'
I15
tp6827
a(S'w'
I705
tp6828
a(S'no_vo'
I5
tp6829
a(S'w'
I2
tp6830
a(S'no_ll'
I1
tp6831
a(S'no_ll'
I1
tp6832
a(S'w'
I1
tp6833
a(S'no_np'
I13
tp6834
a(S'w'
I719
tp6835
a(S'p1_tl'
I171
tp6836
a(S'w'
I4
tp6837
a(S'p1_vo'
I1
tp6838
a(S'w'
I10
tp6839
a(S'p2_tl'
I44
tp6840
a(S'w'
I15
tp6841
a(S'p2_tl'
I46
tp6842
a(S'w'
I3
tp6843
a(S'p2_vo'
I1
tp6844
a(S'w'
I11
tp6845
a(S'no_vo'
I3
tp6846
a(S'w'
I2
tp6847
a(S'no_ll'
I1
tp6848
a(S'no_ll'
I1
tp6849
a(S'w'
I1
tp6850
a(S'no_np'
I8
tp6851
a(S'w'
I697
tp6852
a(S'w'
I14
tp6853
a(S'no_vo'
I2
tp6854
a(S'w'
I2
tp6855
a(S'no_ll'
I1
tp6856
a(S'no_ll'
I1
tp6857
a(S'w'
I1
tp6858
a(S'no_np'
I6
tp6859
a(S'w'
I717
tp6860
a(S'w'
I14
tp6861
a(S'no_vo'
I1
tp6862
a(S'w'
I2
tp6863
a(S'no_ll'
I1
tp6864
a(S'no_ll'
I1
tp6865
a(S'w'
I1
tp6866
a(S'w'
I717
tp6867
a(S'w'
I14
tp6868
a(S'no_vo'
I0
tp6869
a(S'w'
I718
tp6870
a(S'w'
I730
tp6871
a(S'p1_du'
I2
tp6872
a(S'p1_vo'
I5
tp6873
a(S'w'
I11
tp6874
a(S'p1_ll'
I1
tp6875
a(S'p1_th'
I0
tp6876
a(S'p1_ll'
I1
tp6877
a(S'w'
I2
tp6878
a(S'p1_tl'
I201
tp6879
a(S'w'
I22
tp6880
a(S'p2_du'
I1
tp6881
a(S'p2_vo'
I8
tp6882
a(S'w'
I11
tp6883
a(S'p2_ll'
I1
tp6884
a(S'p2_th'
I0
tp6885
a(S'p2_ll'
I1
tp6886
a(S'w'
I1
tp6887
a(S'p2_tl'
I151
tp6888
a(S'w'
I13
tp6889
a(S'ch_no'
I1
tp6890
a(S'ch_tr'
I1
tp6891
a(S'ch_p2'
I1
tp6892
a(S'ch_p1'
I1
tp6893
a(S'w'
I1
tp6894
a(S'ch_no'
I1
tp6895
a(S'ch_tr'
I1
tp6896
a(S'ch_p2'
I1
tp6897
a(S'ch_p1'
I1
tp6898
a(S'w'
I16
tp6899
a(S'no_vo'
I7
tp6900
a(S'w'
I2
tp6901
a(S'no_ll'
I1
tp6902
a(S'no_ll'
I1
tp6903
a(S'w'
I1
tp6904
a(S'no_np'
I15
tp6905
a(S'w'
I644
tp6906
a(S'p1_du'
I0
tp6907
a(S'p1_vo'
I4
tp6908
a(S'w'
I10
tp6909
a(S'p2_du'
I0
tp6910
a(S'p2_vo'
I7
tp6911
a(S'w'
I11
tp6912
a(S'no_vo'
I5
tp6913
a(S'w'
I2
tp6914
a(S'no_ll'
I1
tp6915
a(S'no_ll'
I1
tp6916
a(S'w'
I1
tp6917
a(S'no_np'
I13
tp6918
a(S'w'
I709
tp6919
a(S'p1_vo'
I3
tp6920
a(S'w'
I11
tp6921
a(S'w'
I7
tp6922
a(S'p2_vo'
I6
tp6923
a(S'w'
I11
tp6924
a(S'no_vo'
I3
tp6925
a(S'w'
I2
tp6926
a(S'no_ll'
I1
tp6927
a(S'no_ll'
I1
tp6928
a(S'w'
I1
tp6929
a(S'no_np'
I8
tp6930
a(S'w'
I710
tp6931
a(S'p2_vo'
I5
tp6932
a(S'w'
I11
tp6933
a(S'no_vo'
I2
tp6934
a(S'w'
I2
tp6935
a(S'no_ll'
I1
tp6936
a(S'no_ll'
I1
tp6937
a(S'w'
I1
tp6938
a(S'no_np'
I6
tp6939
a(S'w'
I719
tp6940
a(S'p2_tl'
I153
tp6941
a(S'w'
I17
tp6942
a(S'no_vo'
I1
tp6943
a(S'w'
I2
tp6944
a(S'no_ll'
I1
tp6945
a(S'no_ll'
I1
tp6946
a(S'w'
I1
tp6947
a(S'w'
I714
tp6948
a(S'p1_tl'
I213
tp6949
a(S'w'
I3
tp6950
a(S'p1_vo'
I1
tp6951
a(S'w'
I18
tp6952
a(S'p2_tl'
I151
tp6953
a(S'w'
I4
tp6954
a(S'p2_vo'
I1
tp6955
a(S'w'
I10
tp6956
a(S'no_vo'
I0
tp6957
a(S'w'
I707
tp6958
a(S'w'
I729
tp6959
a(S'p1_du'
I2
tp6960
a(S'p1_vo'
I5
tp6961
a(S'w'
I11
tp6962
a(S'p1_ll'
I1
tp6963
a(S'p1_th'
I1
tp6964
a(S'p1_ll'
I1
tp6965
a(S'w'
I1
tp6966
a(S'p1_tl'
I171
tp6967
a(S'w'
I25
tp6968
a(S'p2_du'
I1
tp6969
a(S'p2_vo'
I8
tp6970
a(S'w'
I11
tp6971
a(S'p2_ll'
I1
tp6972
a(S'p2_th'
I1
tp6973
a(S'p2_ll'
I1
tp6974
a(S'w'
I1
tp6975
a(S'p2_tl'
I64
tp6976
a(S'w'
I14
tp6977
a(S'tr_ll'
I1
tp6978
a(S'tr_ll'
I1
tp6979
a(S'w'
I1
tp6980
a(S'tr_tl'
I128
tp6981
a(S'w'
I10
tp6982
a(S'ch_no'
I1
tp6983
a(S'ch_tr'
I1
tp6984
a(S'ch_p2'
I1
tp6985
a(S'ch_p1'
I1
tp6986
a(S'w'
I1
tp6987
a(S'ch_no'
I1
tp6988
a(S'ch_tr'
I1
tp6989
a(S'ch_p2'
I1
tp6990
a(S'ch_p1'
I1
tp6991
a(S'w'
I649
tp6992
a(S'p1_du'
I0
tp6993
a(S'p1_vo'
I4
tp6994
a(S'w'
I10
tp6995
a(S'p2_du'
I0
tp6996
a(S'p2_vo'
I7
tp6997
a(S'w'
I723
tp6998
a(S'p1_vo'
I3
tp6999
a(S'w'
I11
tp7000
a(S'w'
I7
tp7001
a(S'p2_vo'
I6
tp7002
a(S'w'
I724
tp7003
a(S'p2_vo'
I5
tp7004
a(S'w'
I734
tp7005
a(S'p2_tl'
I66
tp7006
a(S'w'
I2203
tp7007
a(S'p2_tl'
I64
tp7008
a(S'w'
I16
tp7009
a(S'ch_no'
I1
tp7010
a(S'ch_tr'
I1
tp7011
a(S'ch_p2'
I1
tp7012
a(S'ch_p1'
I1
tp7013
a(S'w'
I2
tp7014
a(S'ch_no'
I1
tp7015
a(S'ch_tr'
I1
tp7016
a(S'ch_p2'
I1
tp7017
a(S'ch_p1'
I1
tp7018
a(S'w'
I1447
tp7019
a(S'p1_tl'
I147
tp7020
a(S'w'
I4
tp7021
a(S'p1_vo'
I1
tp7022
a(S'w'
I10
tp7023
a(S'p2_tl'
I62
tp7024
a(S'w'
I15
tp7025
a(S'p2_tl'
I64
tp7026
a(S'w'
I4
tp7027
a(S'p2_vo'
I1
tp7028
a(S'w'
I710
tp7029
a(S'w'
I734
tp7030
a(S'w'
I733
tp7031
a(S'w'
I734
tp7032
a(S'w'
I728
tp7033
a(S'p1_du'
I2
tp7034
a(S'p1_vo'
I5
tp7035
a(S'w'
I11
tp7036
a(S'p1_ll'
I1
tp7037
a(S'p1_th'
I0
tp7038
a(S'p1_ll'
I1
tp7039
a(S'w'
I2
tp7040
a(S'p1_tl'
I213
tp7041
a(S'w'
I22
tp7042
a(S'p2_du'
I1
tp7043
a(S'p2_vo'
I8
tp7044
a(S'w'
I11
tp7045
a(S'p2_ll'
I1
tp7046
a(S'p2_th'
I0
tp7047
a(S'p2_ll'
I1
tp7048
a(S'w'
I2
tp7049
a(S'p2_tl'
I160
tp7050
a(S'w'
I12
tp7051
a(S'ch_no'
I1
tp7052
a(S'ch_tr'
I1
tp7053
a(S'ch_p2'
I1
tp7054
a(S'ch_p1'
I1
tp7055
a(S'w'
I1
tp7056
a(S'ch_no'
I1
tp7057
a(S'ch_tr'
I1
tp7058
a(S'ch_p2'
I1
tp7059
a(S'ch_p1'
I1
tp7060
a(S'w'
I663
tp7061
a(S'p1_du'
I0
tp7062
a(S'p1_vo'
I4
tp7063
a(S'w'
I10
tp7064
a(S'p2_du'
I0
tp7065
a(S'p2_vo'
I7
tp7066
a(S'w'
I723
tp7067
a(S'p1_vo'
I3
tp7068
a(S'w'
I11
tp7069
a(S'w'
I7
tp7070
a(S'p2_vo'
I6
tp7071
a(S'w'
I725
tp7072
a(S'p2_vo'
I5
tp7073
a(S'w'
I733
tp7074
a(S'p2_tl'
I162
tp7075
a(S'w'
I734
tp7076
a(S'p1_tl'
I201
tp7077
a(S'w'
I4
tp7078
a(S'p1_vo'
I1
tp7079
a(S'w'
I17
tp7080
a(S'p2_tl'
I160
tp7081
a(S'w'
I4
tp7082
a(S'p2_vo'
I1
tp7083
a(S'w'
I717
tp7084
a(S'w'
I747
tp7085
a(S'p1_du'
I1
tp7086
a(S'p1_vo'
I5
tp7087
a(S'w'
I16
tp7088
a(S'p1_tl'
I226
tp7089
a(S'w'
I42
tp7090
a(S'p2_vo'
I9
tp7091
a(S'w'
I11
tp7092
a(S'p2_tl'
I169
tp7093
a(S'w'
I16
tp7094
a(S'tr_lr'
I42
tp7095
a(S'w'
I6
tp7096
a(S'tr_ll'
I1
tp7097
a(S'tr_ll'
I1
tp7098
a(S'w'
I1
tp7099
a(S'tr_tl'
I167
tp7100
a(S'w'
I17
tp7101
a(S'ch_no'
I1
tp7102
a(S'ch_tr'
I1
tp7103
a(S'ch_p2'
I1
tp7104
a(S'ch_p1'
I1
tp7105
a(S'w'
I1
tp7106
a(S'ch_no'
I1
tp7107
a(S'ch_tr'
I1
tp7108
a(S'ch_p2'
I1
tp7109
a(S'ch_p1'
I1
tp7110
a(S'w'
I596
tp7111
a(S'p1_vo'
I4
tp7112
a(S'w'
I13
tp7113
a(S'p2_du'
I1
tp7114
a(S'p2_vo'
I7
tp7115
a(S'w'
I722
tp7116
a(S'w'
I7
tp7117
a(S'p1_vo'
I3
tp7118
a(S'w'
I11
tp7119
a(S'w'
I11
tp7120
a(S'p2_vo'
I6
tp7121
a(S'w'
I704
tp7122
a(S'p1_vo'
I2
tp7123
a(S'w'
I13
tp7124
a(S'p2_vo'
I3
tp7125
a(S'w'
I721
tp7126
a(S'p1_tl'
I227
tp7127
a(S'w'
I7
tp7128
a(S'p1_vo'
I1
tp7129
a(S'w'
I10
tp7130
a(S'p2_tl'
I171
tp7131
a(S'w'
I12
tp7132
a(S'p2_vo'
I2
tp7133
a(S'w'
I716
tp7134
a(S'p2_vo'
I1
tp7135
a(S'w'
I1456
tp7136
a(S'p1_tl'
I226
tp7137
a(S'w'
I16
tp7138
a(S'p2_tl'
I169
tp7139
a(S'w'
I31
tp7140
a(S'no_vo'
I7
tp7141
a(S'w'
I2
tp7142
a(S'no_ll'
I1
tp7143
a(S'no_ll'
I1
tp7144
a(S'w'
I2
tp7145
a(S'no_np'
I2
tp7146
a(S'w'
I699
tp7147
a(S'no_vo'
I1
tp7148
a(S'w'
I2
tp7149
a(S'no_ll'
I1
tp7150
a(S'no_ll'
I1
tp7151
a(S'w'
I1
tp7152
a(S'no_np'
I1
tp7153
a(S'w'
I714
tp7154
a(S'p1_tl'
I225
tp7155
a(S'w'
I15
tp7156
a(S'p2_tl'
I167
tp7157
a(S'w'
I17
tp7158
a(S'no_vo'
I0
tp7159
a(S'w'
I713
tp7160
a(S'p1_tl'
I226
tp7161
a(S'w'
I732
tp7162
a(S'w'
I20
tp7163
a(S'p2_tl'
I169
tp7164
a(S'w'
I4
tp7165
a(S'p2_du'
I0
tp7166
a(S'w'
I710
tp7167
a(S'w'
I19
tp7168
a(S'w'
I715
tp7169
a(S'w'
I18
tp7170
a(S'w'
I713
tp7171
a(S'p1_vo'
I5
tp7172
a(S'w'
I16
tp7173
a(S'w'
I22
tp7174
a(S'p2_vo'
I9
tp7175
a(S'w'
I12
tp7176
a(S'w'
I8
tp7177
a(S'tr_lr'
I21
tp7178
a(S'w'
I6
tp7179
a(S'tr_ll'
I1
tp7180
a(S'tr_th'
I1
tp7181
a(S'tr_ll'
I1
tp7182
a(S'w'
I2
tp7183
a(S'tr_tl'
I83
tp7184
a(S'w'
I9
tp7185
a(S'ch_no'
I1
tp7186
a(S'ch_tr'
I1
tp7187
a(S'ch_p2'
I1
tp7188
a(S'ch_p1'
I1
tp7189
a(S'w'
I1
tp7190
a(S'ch_no'
I1
tp7191
a(S'ch_tr'
I1
tp7192
a(S'ch_p2'
I1
tp7193
a(S'ch_p1'
I1
tp7194
a(S'w'
I651
tp7195
a(S'p1_vo'
I4
tp7196
a(S'w'
I13
tp7197
a(S'p2_du'
I1
tp7198
a(S'p2_vo'
I7
tp7199
a(S'w'
I722
tp7200
a(S'w'
I7
tp7201
a(S'p1_vo'
I3
tp7202
a(S'w'
I11
tp7203
a(S'w'
I11
tp7204
a(S'p2_vo'
I6
tp7205
a(S'w'
I711
tp7206
a(S'p1_vo'
I5
tp7207
a(S'w'
I16
tp7208
a(S'p1_tl'
I212
tp7209
a(S'w'
I23
tp7210
a(S'p2_du'
I0
tp7211
a(S'p2_vo'
I9
tp7212
a(S'w'
I12
tp7213
a(S'p2_tl'
I160
tp7214
a(S'w'
I676
tp7215
a(S'p1_vo'
I4
tp7216
a(S'w'
I14
tp7217
a(S'p2_du'
I1
tp7218
a(S'p2_vo'
I7
tp7219
a(S'w'
I720
tp7220
a(S'w'
I7
tp7221
a(S'p1_vo'
I3
tp7222
a(S'w'
I11
tp7223
a(S'w'
I11
tp7224
a(S'p2_vo'
I6
tp7225
a(S'w'
I704
tp7226
a(S'p1_vo'
I2
tp7227
a(S'w'
I13
tp7228
a(S'p2_vo'
I3
tp7229
a(S'w'
I732
tp7230
a(S'p1_vo'
I5
tp7231
a(S'w'
I16
tp7232
a(S'p1_tl'
I226
tp7233
a(S'w'
I26
tp7234
a(S'p2_du'
I0
tp7235
a(S'p2_vo'
I9
tp7236
a(S'w'
I11
tp7237
a(S'p2_tl'
I169
tp7238
a(S'w'
I13
tp7239
a(S'tr_lr'
I42
tp7240
a(S'w'
I6
tp7241
a(S'tr_ll'
I1
tp7242
a(S'tr_th'
I2
tp7243
a(S'tr_ll'
I1
tp7244
a(S'w'
I1
tp7245
a(S'tr_tl'
I167
tp7246
a(S'w'
I10
tp7247
a(S'ch_no'
I1
tp7248
a(S'ch_tr'
I1
tp7249
a(S'ch_p2'
I1
tp7250
a(S'ch_p1'
I1
tp7251
a(S'w'
I1
tp7252
a(S'ch_no'
I1
tp7253
a(S'ch_tr'
I1
tp7254
a(S'ch_p2'
I1
tp7255
a(S'ch_p1'
I1
tp7256
a(S'w'
I639
tp7257
a(S'p1_vo'
I4
tp7258
a(S'w'
I14
tp7259
a(S'p2_du'
I1
tp7260
a(S'p2_vo'
I7
tp7261
a(S'w'
I721
tp7262
a(S'w'
I7
tp7263
a(S'p1_vo'
I3
tp7264
a(S'w'
I12
tp7265
a(S'w'
I11
tp7266
a(S'p2_vo'
I6
tp7267
a(S'w'
I702
tp7268
a(S'p1_vo'
I2
tp7269
a(S'w'
I14
tp7270
a(S'p2_vo'
I3
tp7271
a(S'w'
I720
tp7272
a(S'p1_tl'
I227
tp7273
a(S'w'
I8
tp7274
a(S'p1_vo'
I1
tp7275
a(S'w'
I10
tp7276
a(S'p2_tl'
I171
tp7277
a(S'w'
I11
tp7278
a(S'p2_vo'
I2
tp7279
a(S'w'
I718
tp7280
a(S'p2_vo'
I1
tp7281
a(S'w'
I1455
tp7282
a(S'p1_tl'
I226
tp7283
a(S'w'
I16
tp7284
a(S'p2_tl'
I169
tp7285
a(S'w'
I32
tp7286
a(S'no_vo'
I7
tp7287
a(S'w'
I2
tp7288
a(S'no_ll'
I1
tp7289
a(S'no_ll'
I1
tp7290
a(S'w'
I1
tp7291
a(S'no_np'
I2
tp7292
a(S'w'
I699
tp7293
a(S'no_vo'
I1
tp7294
a(S'w'
I2
tp7295
a(S'no_ll'
I1
tp7296
a(S'no_ll'
I1
tp7297
a(S'w'
I1
tp7298
a(S'no_np'
I1
tp7299
a(S'w'
I713
tp7300
a(S'p1_tl'
I225
tp7301
a(S'w'
I16
tp7302
a(S'p2_tl'
I167
tp7303
a(S'w'
I17
tp7304
a(S'no_vo'
I0
tp7305
a(S'w'
I712
tp7306
a(S'p1_tl'
I226
tp7307
a(S'w'
I733
tp7308
a(S'w'
I20
tp7309
a(S'p2_tl'
I169
tp7310
a(S'w'
I4
tp7311
a(S'p2_du'
I0
tp7312
a(S'w'
I710
tp7313
a(S'w'
I18
tp7314
a(S'w'
I715
tp7315
a(S'w'
I19
tp7316
a(S'w'
I713
tp7317
a(S'p1_vo'
I5
tp7318
a(S'w'
I16
tp7319
a(S'p1_tl'
I254
tp7320
a(S'w'
I24
tp7321
a(S'p2_vo'
I9
tp7322
a(S'w'
I11
tp7323
a(S'p2_tl'
I190
tp7324
a(S'w'
I9
tp7325
a(S'tr_lr'
I21
tp7326
a(S'w'
I6
tp7327
a(S'tr_ll'
I1
tp7328
a(S'tr_th'
I1
tp7329
a(S'tr_ll'
I1
tp7330
a(S'w'
I1
tp7331
a(S'tr_tl'
I83
tp7332
a(S'w'
I10
tp7333
a(S'ch_no'
I1
tp7334
a(S'ch_tr'
I1
tp7335
a(S'ch_p2'
I1
tp7336
a(S'ch_p1'
I1
tp7337
a(S'w'
I1
tp7338
a(S'ch_no'
I1
tp7339
a(S'ch_tr'
I1
tp7340
a(S'ch_p2'
I1
tp7341
a(S'ch_p1'
I1
tp7342
a(S'w'
I649
tp7343
a(S'p1_vo'
I4
tp7344
a(S'w'
I14
tp7345
a(S'p2_du'
I1
tp7346
a(S'p2_vo'
I7
tp7347
a(S'w'
I721
tp7348
a(S'w'
I7
tp7349
a(S'p1_vo'
I3
tp7350
a(S'w'
I12
tp7351
a(S'w'
I11
tp7352
a(S'p2_vo'
I6
tp7353
a(S'w'
I703
tp7354
a(S'p1_vo'
I2
tp7355
a(S'w'
I14
tp7356
a(S'p2_vo'
I3
tp7357
a(S'w'
I719
tp7358
a(S'p1_tl'
I255
tp7359
a(S'w'
I8
tp7360
a(S'p1_vo'
I1
tp7361
a(S'w'
I10
tp7362
a(S'p2_tl'
I192
tp7363
a(S'w'
I11
tp7364
a(S'p2_vo'
I2
tp7365
a(S'w'
I718
tp7366
a(S'p2_vo'
I1
tp7367
a(S'w'
I733
tp7368
a(S'p1_tl'
I254
tp7369
a(S'w'
I20
tp7370
a(S'p2_tl'
I190
tp7371
a(S'w'
I4
tp7372
a(S'p2_du'
I0
tp7373
a(S'w'
I713
tp7374
a(S'p1_vo'
I5
tp7375
a(S'w'
I16
tp7376
a(S'p1_tl'
I226
tp7377
a(S'w'
I30
tp7378
a(S'p2_vo'
I9
tp7379
a(S'w'
I12
tp7380
a(S'p2_tl'
I169
tp7381
a(S'w'
I12
tp7382
a(S'tr_lr'
I42
tp7383
a(S'w'
I6
tp7384
a(S'tr_ll'
I1
tp7385
a(S'tr_th'
I2
tp7386
a(S'tr_ll'
I1
tp7387
a(S'w'
I1
tp7388
a(S'tr_tl'
I167
tp7389
a(S'w'
I14
tp7390
a(S'ch_no'
I1
tp7391
a(S'ch_tr'
I1
tp7392
a(S'ch_p2'
I1
tp7393
a(S'ch_p1'
I1
tp7394
a(S'w'
I1
tp7395
a(S'ch_no'
I1
tp7396
a(S'ch_tr'
I1
tp7397
a(S'ch_p2'
I1
tp7398
a(S'ch_p1'
I1
tp7399
a(S'w'
I626
tp7400
a(S'p1_vo'
I4
tp7401
a(S'w'
I13
tp7402
a(S'p2_du'
I1
tp7403
a(S'p2_vo'
I7
tp7404
a(S'w'
I722
tp7405
a(S'w'
I7
tp7406
a(S'p1_vo'
I3
tp7407
a(S'w'
I11
tp7408
a(S'w'
I11
tp7409
a(S'p2_vo'
I6
tp7410
a(S'w'
I704
tp7411
a(S'p1_vo'
I2
tp7412
a(S'w'
I13
tp7413
a(S'p2_vo'
I3
tp7414
a(S'w'
I721
tp7415
a(S'p1_tl'
I227
tp7416
a(S'w'
I7
tp7417
a(S'p1_vo'
I1
tp7418
a(S'w'
I11
tp7419
a(S'p2_tl'
I171
tp7420
a(S'w'
I11
tp7421
a(S'p2_vo'
I2
tp7422
a(S'w'
I717
tp7423
a(S'p2_vo'
I1
tp7424
a(S'w'
I1455
tp7425
a(S'p1_tl'
I226
tp7426
a(S'w'
I16
tp7427
a(S'p2_tl'
I169
tp7428
a(S'w'
I31
tp7429
a(S'no_vo'
I7
tp7430
a(S'w'
I2
tp7431
a(S'no_ll'
I1
tp7432
a(S'no_ll'
I1
tp7433
a(S'w'
I2
tp7434
a(S'no_np'
I2
tp7435
a(S'w'
I699
tp7436
a(S'no_vo'
I1
tp7437
a(S'w'
I2
tp7438
a(S'no_ll'
I1
tp7439
a(S'no_ll'
I1
tp7440
a(S'w'
I1
tp7441
a(S'no_np'
I1
tp7442
a(S'w'
I714
tp7443
a(S'p1_tl'
I225
tp7444
a(S'w'
I15
tp7445
a(S'p2_tl'
I167
tp7446
a(S'w'
I17
tp7447
a(S'no_vo'
I0
tp7448
a(S'w'
I713
tp7449
a(S'p1_tl'
I226
tp7450
a(S'w'
I732
tp7451
a(S'w'
I20
tp7452
a(S'p2_tl'
I169
tp7453
a(S'w'
I4
tp7454
a(S'p2_du'
I0
tp7455
a(S'w'
I710
tp7456
a(S'w'
I19
tp7457
a(S'w'
I715
tp7458
a(S'w'
I18
tp7459
a(S'w'
I713
tp7460
a(S'p1_vo'
I5
tp7461
a(S'w'
I16
tp7462
a(S'w'
I22
tp7463
a(S'p2_vo'
I9
tp7464
a(S'w'
I12
tp7465
a(S'w'
I8
tp7466
a(S'tr_lr'
I21
tp7467
a(S'w'
I6
tp7468
a(S'tr_ll'
I1
tp7469
a(S'tr_th'
I1
tp7470
a(S'tr_ll'
I1
tp7471
a(S'w'
I2
tp7472
a(S'tr_tl'
I83
tp7473
a(S'w'
I9
tp7474
a(S'ch_no'
I1
tp7475
a(S'ch_tr'
I1
tp7476
a(S'ch_p2'
I1
tp7477
a(S'ch_p1'
I1
tp7478
a(S'w'
I1
tp7479
a(S'ch_no'
I1
tp7480
a(S'ch_tr'
I1
tp7481
a(S'ch_p2'
I1
tp7482
a(S'ch_p1'
I1
tp7483
a(S'w'
I652
tp7484
a(S'p1_vo'
I4
tp7485
a(S'w'
I13
tp7486
a(S'p2_du'
I1
tp7487
a(S'p2_vo'
I7
tp7488
a(S'w'
I721
tp7489
a(S'w'
I7
tp7490
a(S'p1_vo'
I3
tp7491
a(S'w'
I11
tp7492
a(S'w'
I11
tp7493
a(S'p2_vo'
I6
tp7494
a(S'w'
I711
tp7495
a(S'p1_vo'
I5
tp7496
a(S'w'
I16
tp7497
a(S'p1_tl'
I212
tp7498
a(S'w'
I23
tp7499
a(S'p2_du'
I0
tp7500
a(S'p2_vo'
I9
tp7501
a(S'w'
I12
tp7502
a(S'p2_tl'
I160
tp7503
a(S'w'
I676
tp7504
a(S'p1_vo'
I4
tp7505
a(S'w'
I14
tp7506
a(S'p2_du'
I1
tp7507
a(S'p2_vo'
I7
tp7508
a(S'w'
I721
tp7509
a(S'w'
I7
tp7510
a(S'p1_vo'
I3
tp7511
a(S'w'
I11
tp7512
a(S'w'
I11
tp7513
a(S'p2_vo'
I6
tp7514
a(S'w'
I704
tp7515
a(S'p1_vo'
I2
tp7516
a(S'w'
I13
tp7517
a(S'p2_vo'
I3
tp7518
a(S'w'
I731
tp7519
a(S'p1_vo'
I5
tp7520
a(S'w'
I16
tp7521
a(S'p1_tl'
I226
tp7522
a(S'w'
I26
tp7523
a(S'p2_du'
I0
tp7524
a(S'p2_vo'
I9
tp7525
a(S'w'
I11
tp7526
a(S'p2_tl'
I169
tp7527
a(S'w'
I13
tp7528
a(S'tr_lr'
I42
tp7529
a(S'w'
I6
tp7530
a(S'tr_ll'
I1
tp7531
a(S'tr_th'
I2
tp7532
a(S'tr_ll'
I1
tp7533
a(S'w'
I1
tp7534
a(S'tr_tl'
I167
tp7535
a(S'w'
I10
tp7536
a(S'ch_no'
I1
tp7537
a(S'ch_tr'
I1
tp7538
a(S'ch_p2'
I1
tp7539
a(S'ch_p1'
I1
tp7540
a(S'w'
I1
tp7541
a(S'ch_no'
I1
tp7542
a(S'ch_tr'
I1
tp7543
a(S'ch_p2'
I1
tp7544
a(S'ch_p1'
I1
tp7545
a(S'w'
I639
tp7546
a(S'p1_vo'
I4
tp7547
a(S'w'
I14
tp7548
a(S'p2_du'
I1
tp7549
a(S'p2_vo'
I7
tp7550
a(S'w'
I721
tp7551
a(S'w'
I7
tp7552
a(S'p1_vo'
I3
tp7553
a(S'w'
I12
tp7554
a(S'w'
I11
tp7555
a(S'p2_vo'
I6
tp7556
a(S'w'
I703
tp7557
a(S'p1_vo'
I2
tp7558
a(S'w'
I14
tp7559
a(S'p2_vo'
I3
tp7560
a(S'w'
I719
tp7561
a(S'p1_tl'
I227
tp7562
a(S'w'
I8
tp7563
a(S'p1_vo'
I1
tp7564
a(S'w'
I10
tp7565
a(S'p2_tl'
I171
tp7566
a(S'w'
I11
tp7567
a(S'p2_vo'
I2
tp7568
a(S'w'
I718
tp7569
a(S'p2_vo'
I1
tp7570
a(S'w'
I1455
tp7571
a(S'p1_tl'
I226
tp7572
a(S'w'
I16
tp7573
a(S'p2_tl'
I169
tp7574
a(S'w'
I32
tp7575
a(S'no_vo'
I7
tp7576
a(S'w'
I2
tp7577
a(S'no_ll'
I1
tp7578
a(S'no_ll'
I1
tp7579
a(S'w'
I1
tp7580
a(S'no_np'
I2
tp7581
a(S'w'
I700
tp7582
a(S'no_vo'
I1
tp7583
a(S'w'
I2
tp7584
a(S'no_ll'
I1
tp7585
a(S'no_ll'
I1
tp7586
a(S'w'
I1
tp7587
a(S'no_np'
I1
tp7588
a(S'w'
I712
tp7589
a(S'p1_tl'
I225
tp7590
a(S'w'
I16
tp7591
a(S'p2_tl'
I167
tp7592
a(S'w'
I17
tp7593
a(S'no_vo'
I0
tp7594
a(S'w'
I712
tp7595
a(S'p1_tl'
I226
tp7596
a(S'w'
I733
tp7597
a(S'w'
I20
tp7598
a(S'p2_tl'
I169
tp7599
a(S'w'
I4
tp7600
a(S'p2_du'
I0
tp7601
a(S'w'
I710
tp7602
a(S'w'
I18
tp7603
a(S'w'
I716
tp7604
a(S'w'
I19
tp7605
a(S'w'
I712
tp7606
a(S'p1_vo'
I5
tp7607
a(S'w'
I16
tp7608
a(S'p1_tl'
I254
tp7609
a(S'w'
I24
tp7610
a(S'p2_vo'
I9
tp7611
a(S'w'
I12
tp7612
a(S'p2_tl'
I190
tp7613
a(S'w'
I8
tp7614
a(S'tr_lr'
I21
tp7615
a(S'w'
I6
tp7616
a(S'tr_ll'
I1
tp7617
a(S'tr_th'
I1
tp7618
a(S'tr_ll'
I1
tp7619
a(S'w'
I1
tp7620
a(S'tr_tl'
I83
tp7621
a(S'w'
I10
tp7622
a(S'ch_no'
I1
tp7623
a(S'ch_tr'
I1
tp7624
a(S'ch_p2'
I1
tp7625
a(S'ch_p1'
I1
tp7626
a(S'w'
I1
tp7627
a(S'ch_no'
I1
tp7628
a(S'ch_tr'
I1
tp7629
a(S'ch_p2'
I1
tp7630
a(S'ch_p1'
I1
tp7631
a(S'w'
I649
tp7632
a(S'p1_vo'
I4
tp7633
a(S'w'
I14
tp7634
a(S'p2_du'
I1
tp7635
a(S'p2_vo'
I7
tp7636
a(S'w'
I721
tp7637
a(S'w'
I8
tp7638
a(S'p1_vo'
I3
tp7639
a(S'w'
I11
tp7640
a(S'w'
I11
tp7641
a(S'p2_vo'
I6
tp7642
a(S'w'
I703
tp7643
a(S'p1_vo'
I2
tp7644
a(S'w'
I14
tp7645
a(S'p2_vo'
I3
tp7646
a(S'w'
I720
tp7647
a(S'p1_tl'
I255
tp7648
a(S'w'
I8
tp7649
a(S'p1_vo'
I1
tp7650
a(S'w'
I10
tp7651
a(S'p2_tl'
I192
tp7652
a(S'w'
I11
tp7653
a(S'p2_vo'
I2
tp7654
a(S'w'
I717
tp7655
a(S'p2_vo'
I1
tp7656
a(S'w'
I733
tp7657
a(S'p1_tl'
I254
tp7658
a(S'w'
I20
tp7659
a(S'p2_tl'
I190
tp7660
a(S'w'
I4
tp7661
a(S'p2_du'
I0
tp7662
a(S'w'
I723
tp7663
a(S'p1_du'
I2
tp7664
a(S'p1_vo'
I5
tp7665
a(S'w'
I11
tp7666
a(S'p1_ll'
I1
tp7667
a(S'p1_th'
I1
tp7668
a(S'p1_ll'
I1
tp7669
a(S'w'
I2
tp7670
a(S'p1_tl'
I197
tp7671
a(S'w'
I37
tp7672
a(S'p2_du'
I2
tp7673
a(S'p2_vo'
I8
tp7674
a(S'w'
I11
tp7675
a(S'p2_ll'
I1
tp7676
a(S'p2_th'
I1
tp7677
a(S'p2_ll'
I1
tp7678
a(S'w'
I2
tp7679
a(S'p2_tl'
I83
tp7680
a(S'w'
I15
tp7681
a(S'tr_lr'
I63
tp7682
a(S'w'
I6
tp7683
a(S'tr_ll'
I1
tp7684
a(S'tr_th'
I2
tp7685
a(S'tr_ll'
I1
tp7686
a(S'w'
I1
tp7687
a(S'tr_tl'
I167
tp7688
a(S'w'
I16
tp7689
a(S'ch_no'
I1
tp7690
a(S'ch_tr'
I1
tp7691
a(S'ch_p2'
I1
tp7692
a(S'ch_p1'
I1
tp7693
a(S'w'
I1
tp7694
a(S'ch_no'
I1
tp7695
a(S'ch_tr'
I1
tp7696
a(S'ch_p2'
I1
tp7697
a(S'ch_p1'
I1
tp7698
a(S'w'
I605
tp7699
a(S'p1_du'
I0
tp7700
a(S'p1_vo'
I4
tp7701
a(S'w'
I9
tp7702
a(S'p2_du'
I0
tp7703
a(S'p2_vo'
I7
tp7704
a(S'w'
I724
tp7705
a(S'p1_vo'
I3
tp7706
a(S'w'
I11
tp7707
a(S'w'
I8
tp7708
a(S'p2_vo'
I6
tp7709
a(S'w'
I722
tp7710
a(S'p2_vo'
I5
tp7711
a(S'w'
I734
tp7712
a(S'p2_tl'
I85
tp7713
a(S'w'
I2203
tp7714
a(S'p2_tl'
I83
tp7715
a(S'w'
I32
tp7716
a(S'no_vo'
I7
tp7717
a(S'w'
I2
tp7718
a(S'no_ll'
I1
tp7719
a(S'no_ll'
I1
tp7720
a(S'w'
I1
tp7721
a(S'no_np'
I2
tp7722
a(S'w'
I706
tp7723
a(S'no_vo'
I1
tp7724
a(S'w'
I2
tp7725
a(S'no_ll'
I1
tp7726
a(S'no_ll'
I1
tp7727
a(S'w'
I1
tp7728
a(S'no_np'
I1
tp7729
a(S'w'
I725
tp7730
a(S'p1_ll'
I1
tp7731
a(S'p1_th'
I0
tp7732
a(S'p1_ll'
I1
tp7733
a(S'w'
I1
tp7734
a(S'p1_tl'
I254
tp7735
a(S'w'
I4
tp7736
a(S'p1_vo'
I1
tp7737
a(S'w'
I10
tp7738
a(S'p2_tl'
I81
tp7739
a(S'w'
I15
tp7740
a(S'p2_tl'
I83
tp7741
a(S'w'
I4
tp7742
a(S'p2_vo'
I1
tp7743
a(S'w'
I10
tp7744
a(S'no_vo'
I0
tp7745
a(S'w'
I695
tp7746
a(S'w'
I733
tp7747
a(S'w'
I734
tp7748
a(S'w'
I734
tp7749
a(S'w'
I729
tp7750
a(S'p1_du'
I2
tp7751
a(S'p1_vo'
I5
tp7752
a(S'w'
I11
tp7753
a(S'p1_tl'
I226
tp7754
a(S'w'
I22
tp7755
a(S'p2_du'
I2
tp7756
a(S'p2_vo'
I8
tp7757
a(S'w'
I12
tp7758
a(S'p2_ll'
I1
tp7759
a(S'p2_th'
I0
tp7760
a(S'p2_ll'
I1
tp7761
a(S'w'
I1
tp7762
a(S'p2_tl'
I169
tp7763
a(S'w'
I27
tp7764
a(S'no_vo'
I7
tp7765
a(S'w'
I2
tp7766
a(S'no_ll'
I1
tp7767
a(S'no_ll'
I1
tp7768
a(S'w'
I1
tp7769
a(S'no_np'
I2
tp7770
a(S'w'
I647
tp7771
a(S'p1_du'
I0
tp7772
a(S'p1_vo'
I4
tp7773
a(S'w'
I10
tp7774
a(S'p2_du'
I0
tp7775
a(S'p2_vo'
I7
tp7776
a(S'w'
I10
tp7777
a(S'no_vo'
I1
tp7778
a(S'w'
I2
tp7779
a(S'no_ll'
I1
tp7780
a(S'no_ll'
I1
tp7781
a(S'w'
I1
tp7782
a(S'no_np'
I1
tp7783
a(S'w'
I711
tp7784
a(S'p1_vo'
I3
tp7785
a(S'w'
I11
tp7786
a(S'w'
I7
tp7787
a(S'p2_vo'
I6
tp7788
a(S'w'
I11
tp7789
a(S'no_vo'
I0
tp7790
a(S'w'
I712
tp7791
a(S'p2_vo'
I5
tp7792
a(S'w'
I734
tp7793
a(S'p2_tl'
I171
tp7794
a(S'w'
I737
tp7795
a(S'p1_tl'
I254
tp7796
a(S'w'
I4
tp7797
a(S'p1_vo'
I1
tp7798
a(S'w'
I18
tp7799
a(S'p2_tl'
I169
tp7800
a(S'w'
I4
tp7801
a(S'p2_vo'
I1
tp7802
a(S'w'
I713
tp7803
a(S'w'
I727
tp7804
a(S'p1_du'
I2
tp7805
a(S'p1_vo'
I5
tp7806
a(S'w'
I11
tp7807
a(S'p1_ll'
I1
tp7808
a(S'p1_th'
I1
tp7809
a(S'p1_ll'
I1
tp7810
a(S'w'
I2
tp7811
a(S'p1_tl'
I147
tp7812
a(S'w'
I24
tp7813
a(S'p2_du'
I2
tp7814
a(S'p2_vo'
I8
tp7815
a(S'w'
I11
tp7816
a(S'p2_ll'
I1
tp7817
a(S'p2_th'
I1
tp7818
a(S'p2_ll'
I1
tp7819
a(S'w'
I1
tp7820
a(S'p2_tl'
I46
tp7821
a(S'w'
I14
tp7822
a(S'tr_ll'
I1
tp7823
a(S'tr_ll'
I1
tp7824
a(S'w'
I2
tp7825
a(S'tr_tl'
I92
tp7826
a(S'w'
I9
tp7827
a(S'ch_no'
I1
tp7828
a(S'ch_tr'
I1
tp7829
a(S'ch_p2'
I1
tp7830
a(S'ch_p1'
I1
tp7831
a(S'w'
I2
tp7832
a(S'ch_no'
I1
tp7833
a(S'ch_tr'
I1
tp7834
a(S'ch_p2'
I1
tp7835
a(S'ch_p1'
I1
tp7836
a(S'w'
I15
tp7837
a(S'no_vo'
I7
tp7838
a(S'w'
I2
tp7839
a(S'no_ll'
I1
tp7840
a(S'no_ll'
I1
tp7841
a(S'w'
I2
tp7842
a(S'no_np'
I15
tp7843
a(S'w'
I630
tp7844
a(S'p1_du'
I0
tp7845
a(S'p1_vo'
I4
tp7846
a(S'w'
I10
tp7847
a(S'p2_du'
I0
tp7848
a(S'p2_vo'
I7
tp7849
a(S'w'
I11
tp7850
a(S'no_vo'
I5
tp7851
a(S'w'
I2
tp7852
a(S'no_ll'
I1
tp7853
a(S'no_ll'
I1
tp7854
a(S'w'
I1
tp7855
a(S'no_np'
I13
tp7856
a(S'w'
I709
tp7857
a(S'p1_vo'
I3
tp7858
a(S'w'
I11
tp7859
a(S'w'
I7
tp7860
a(S'p2_vo'
I6
tp7861
a(S'w'
I11
tp7862
a(S'no_vo'
I3
tp7863
a(S'w'
I2
tp7864
a(S'no_ll'
I1
tp7865
a(S'no_ll'
I1
tp7866
a(S'w'
I1
tp7867
a(S'no_np'
I8
tp7868
a(S'w'
I710
tp7869
a(S'p2_vo'
I5
tp7870
a(S'w'
I11
tp7871
a(S'no_vo'
I2
tp7872
a(S'w'
I2
tp7873
a(S'no_ll'
I1
tp7874
a(S'no_ll'
I1
tp7875
a(S'w'
I1
tp7876
a(S'no_np'
I6
tp7877
a(S'w'
I720
tp7878
a(S'p2_tl'
I48
tp7879
a(S'w'
I17
tp7880
a(S'no_vo'
I1
tp7881
a(S'w'
I2
tp7882
a(S'no_ll'
I1
tp7883
a(S'no_ll'
I1
tp7884
a(S'w'
I1
tp7885
a(S'w'
I723
tp7886
a(S'no_vo'
I0
tp7887
a(S'w'
I1460
tp7888
a(S'p2_tl'
I46
tp7889
a(S'w'
I32
tp7890
a(S'no_vo'
I7
tp7891
a(S'w'
I2
tp7892
a(S'no_ll'
I1
tp7893
a(S'no_ll'
I1
tp7894
a(S'w'
I1
tp7895
a(S'no_np'
I2
tp7896
a(S'w'
I706
tp7897
a(S'no_vo'
I1
tp7898
a(S'w'
I2
tp7899
a(S'no_ll'
I1
tp7900
a(S'no_ll'
I1
tp7901
a(S'w'
I1
tp7902
a(S'no_np'
I1
tp7903
a(S'w'
I721
tp7904
a(S'p1_tl'
I197
tp7905
a(S'w'
I3
tp7906
a(S'p1_vo'
I1
tp7907
a(S'w'
I11
tp7908
a(S'p2_tl'
I44
tp7909
a(S'w'
I14
tp7910
a(S'p2_tl'
I46
tp7911
a(S'w'
I4
tp7912
a(S'p2_vo'
I1
tp7913
a(S'w'
I11
tp7914
a(S'no_vo'
I0
tp7915
a(S'w'
I698
tp7916
a(S'w'
I735
tp7917
a(S'w'
I734
tp7918
a(S'w'
I734
tp7919
a(S'w'
I729
tp7920
a(S'p1_du'
I2
tp7921
a(S'p1_vo'
I5
tp7922
a(S'w'
I11
tp7923
a(S'p1_ll'
I1
tp7924
a(S'p1_th'
I0
tp7925
a(S'p1_ll'
I1
tp7926
a(S'w'
I2
tp7927
a(S'p1_tl'
I201
tp7928
a(S'w'
I22
tp7929
a(S'p2_du'
I2
tp7930
a(S'p2_vo'
I8
tp7931
a(S'w'
I11
tp7932
a(S'p2_ll'
I1
tp7933
a(S'p2_th'
I0
tp7934
a(S'p2_ll'
I1
tp7935
a(S'w'
I1
tp7936
a(S'p2_tl'
I151
tp7937
a(S'w'
I27
tp7938
a(S'no_vo'
I7
tp7939
a(S'w'
I2
tp7940
a(S'no_ll'
I1
tp7941
a(S'no_ll'
I1
tp7942
a(S'w'
I1
tp7943
a(S'no_np'
I2
tp7944
a(S'w'
I645
tp7945
a(S'p1_du'
I0
tp7946
a(S'p1_vo'
I4
tp7947
a(S'w'
I10
tp7948
a(S'p2_du'
I0
tp7949
a(S'p2_vo'
I7
tp7950
a(S'w'
I10
tp7951
a(S'no_vo'
I1
tp7952
a(S'w'
I2
tp7953
a(S'no_ll'
I1
tp7954
a(S'no_ll'
I1
tp7955
a(S'w'
I1
tp7956
a(S'no_np'
I1
tp7957
a(S'w'
I711
tp7958
a(S'p1_vo'
I3
tp7959
a(S'w'
I11
tp7960
a(S'w'
I7
tp7961
a(S'p2_vo'
I6
tp7962
a(S'w'
I11
tp7963
a(S'no_vo'
I0
tp7964
a(S'w'
I713
tp7965
a(S'p2_vo'
I5
tp7966
a(S'w'
I734
tp7967
a(S'p2_tl'
I153
tp7968
a(S'w'
I733
tp7969
a(S'p1_tl'
I226
tp7970
a(S'w'
I4
tp7971
a(S'p1_vo'
I1
tp7972
a(S'w'
I18
tp7973
a(S'p2_tl'
I151
tp7974
a(S'w'
I3
tp7975
a(S'p2_vo'
I1
tp7976
a(S'w'
I717
tp7977
a(S'w'
I729
tp7978
a(S'p1_du'
I2
tp7979
a(S'p1_vo'
I5
tp7980
a(S'w'
I11
tp7981
a(S'p1_ll'
I1
tp7982
a(S'p1_th'
I1
tp7983
a(S'p1_ll'
I1
tp7984
a(S'w'
I2
tp7985
a(S'p1_tl'
I125
tp7986
a(S'w'
I26
tp7987
a(S'p2_du'
I2
tp7988
a(S'p2_vo'
I7
tp7989
a(S'w'
I11
tp7990
a(S'p2_ll'
I1
tp7991
a(S'p2_th'
I1
tp7992
a(S'p2_ll'
I1
tp7993
a(S'w'
I1
tp7994
a(S'p2_tl'
I29
tp7995
a(S'w'
I14
tp7996
a(S'tr_ll'
I1
tp7997
a(S'tr_ll'
I1
tp7998
a(S'w'
I1
tp7999
a(S'tr_tl'
I59
tp8000
a(S'w'
I10
tp8001
a(S'ch_no'
I1
tp8002
a(S'ch_tr'
I1
tp8003
a(S'ch_p2'
I1
tp8004
a(S'ch_p1'
I1
tp8005
a(S'w'
I1
tp8006
a(S'ch_no'
I1
tp8007
a(S'ch_tr'
I1
tp8008
a(S'ch_p2'
I1
tp8009
a(S'ch_p1'
I1
tp8010
a(S'w'
I647
tp8011
a(S'p1_du'
I0
tp8012
a(S'p1_vo'
I4
tp8013
a(S'w'
I10
tp8014
a(S'p2_du'
I0
tp8015
a(S'p2_vo'
I6
tp8016
a(S'w'
I724
tp8017
a(S'p1_vo'
I3
tp8018
a(S'w'
I11
tp8019
a(S'w'
I7
tp8020
a(S'p2_vo'
I5
tp8021
a(S'w'
I724
tp8022
a(S'p2_vo'
I4
tp8023
a(S'w'
I733
tp8024
a(S'p2_tl'
I31
tp8025
a(S'w'
I2204
tp8026
a(S'p2_tl'
I29
tp8027
a(S'w'
I17
tp8028
a(S'ch_no'
I1
tp8029
a(S'ch_tr'
I1
tp8030
a(S'ch_p2'
I1
tp8031
a(S'ch_p1'
I1
tp8032
a(S'w'
I1
tp8033
a(S'ch_no'
I1
tp8034
a(S'ch_tr'
I1
tp8035
a(S'ch_p2'
I1
tp8036
a(S'ch_p1'
I1
tp8037
a(S'w'
I1446
tp8038
a(S'p1_tl'
I147
tp8039
a(S'w'
I4
tp8040
a(S'p1_vo'
I1
tp8041
a(S'w'
I10
tp8042
a(S'p2_tl'
I27
tp8043
a(S'w'
I15
tp8044
a(S'p2_tl'
I29
tp8045
a(S'w'
I3
tp8046
a(S'p2_vo'
I1
tp8047
a(S'w'
I711
tp8048
a(S'w'
I734
tp8049
a(S'w'
I734
tp8050
a(S'w'
I733
tp8051
a(S'w'
I729
tp8052
a(S'p1_du'
I2
tp8053
a(S'p1_vo'
I5
tp8054
a(S'w'
I11
tp8055
a(S'p1_ll'
I1
tp8056
a(S'p1_th'
I0
tp8057
a(S'p1_ll'
I1
tp8058
a(S'w'
I2
tp8059
a(S'p1_tl'
I190
tp8060
a(S'w'
I22
tp8061
a(S'p2_du'
I2
tp8062
a(S'p2_vo'
I7
tp8063
a(S'w'
I11
tp8064
a(S'p2_ll'
I1
tp8065
a(S'p2_th'
I0
tp8066
a(S'p2_ll'
I1
tp8067
a(S'w'
I2
tp8068
a(S'p2_tl'
I142
tp8069
a(S'w'
I12
tp8070
a(S'ch_no'
I1
tp8071
a(S'ch_tr'
I1
tp8072
a(S'ch_p2'
I1
tp8073
a(S'ch_p1'
I1
tp8074
a(S'w'
I1
tp8075
a(S'ch_no'
I1
tp8076
a(S'ch_tr'
I1
tp8077
a(S'ch_p2'
I1
tp8078
a(S'ch_p1'
I1
tp8079
a(S'w'
I662
tp8080
a(S'p1_du'
I0
tp8081
a(S'p1_vo'
I4
tp8082
a(S'w'
I10
tp8083
a(S'p2_du'
I0
tp8084
a(S'p2_vo'
I6
tp8085
a(S'w'
I724
tp8086
a(S'p1_vo'
I3
tp8087
a(S'w'
I11
tp8088
a(S'w'
I7
tp8089
a(S'p2_vo'
I5
tp8090
a(S'w'
I724
tp8091
a(S'p2_vo'
I4
tp8092
a(S'w'
I733
tp8093
a(S'p2_tl'
I144
tp8094
a(S'w'
I734
tp8095
a(S'p1_tl'
I201
tp8096
a(S'w'
I3
tp8097
a(S'p1_vo'
I1
tp8098
a(S'w'
I18
tp8099
a(S'p2_tl'
I142
tp8100
a(S'w'
I4
tp8101
a(S'p2_vo'
I1
tp8102
a(S'w'
I717
tp8103
a(S'w'
I729
tp8104
a(S'p1_du'
I2
tp8105
a(S'p1_vo'
I5
tp8106
a(S'w'
I11
tp8107
a(S'p1_ll'
I1
tp8108
a(S'p1_th'
I1
tp8109
a(S'p1_ll'
I1
tp8110
a(S'w'
I2
tp8111
a(S'p1_tl'
I103
tp8112
a(S'w'
I26
tp8113
a(S'p2_du'
I2
tp8114
a(S'p2_vo'
I8
tp8115
a(S'w'
I11
tp8116
a(S'p2_ll'
I1
tp8117
a(S'p2_th'
I1
tp8118
a(S'p2_ll'
I1
tp8119
a(S'w'
I1
tp8120
a(S'p2_tl'
I13
tp8121
a(S'w'
I14
tp8122
a(S'tr_ll'
I1
tp8123
a(S'tr_ll'
I1
tp8124
a(S'w'
I1
tp8125
a(S'tr_tl'
I27
tp8126
a(S'w'
I10
tp8127
a(S'ch_no'
I1
tp8128
a(S'ch_tr'
I1
tp8129
a(S'ch_p2'
I1
tp8130
a(S'ch_p1'
I1
tp8131
a(S'w'
I1
tp8132
a(S'ch_no'
I1
tp8133
a(S'ch_tr'
I1
tp8134
a(S'ch_p2'
I1
tp8135
a(S'ch_p1'
I1
tp8136
a(S'w'
I646
tp8137
a(S'p1_du'
I0
tp8138
a(S'p1_vo'
I4
tp8139
a(S'w'
I10
tp8140
a(S'p2_du'
I0
tp8141
a(S'p2_vo'
I7
tp8142
a(S'w'
I723
tp8143
a(S'p1_vo'
I3
tp8144
a(S'w'
I11
tp8145
a(S'w'
I7
tp8146
a(S'p2_vo'
I6
tp8147
a(S'w'
I724
tp8148
a(S'p2_vo'
I5
tp8149
a(S'w'
I734
tp8150
a(S'p2_tl'
I15
tp8151
a(S'w'
I2203
tp8152
a(S'p2_tl'
I13
tp8153
a(S'w'
I17
tp8154
a(S'ch_no'
I1
tp8155
a(S'ch_tr'
I1
tp8156
a(S'ch_p2'
I1
tp8157
a(S'ch_p1'
I1
tp8158
a(S'w'
I1
tp8159
a(S'ch_no'
I1
tp8160
a(S'ch_tr'
I1
tp8161
a(S'ch_p2'
I1
tp8162
a(S'ch_p1'
I1
tp8163
a(S'w'
I1447
tp8164
a(S'p1_tl'
I125
tp8165
a(S'w'
I4
tp8166
a(S'p1_vo'
I1
tp8167
a(S'w'
I10
tp8168
a(S'p2_tl'
I11
tp8169
a(S'w'
I15
tp8170
a(S'p2_tl'
I13
tp8171
a(S'w'
I4
tp8172
a(S'p2_vo'
I1
tp8173
a(S'w'
I710
tp8174
a(S'w'
I734
tp8175
a(S'w'
I733
tp8176
a(S'w'
I734
tp8177
a(S'w'
I728
tp8178
a(S'p1_du'
I2
tp8179
a(S'p1_vo'
I5
tp8180
a(S'w'
I11
tp8181
a(S'p1_ll'
I1
tp8182
a(S'p1_th'
I0
tp8183
a(S'p1_ll'
I1
tp8184
a(S'w'
I2
tp8185
a(S'p1_tl'
I179
tp8186
a(S'w'
I22
tp8187
a(S'p2_du'
I2
tp8188
a(S'p2_vo'
I8
tp8189
a(S'w'
I11
tp8190
a(S'p2_ll'
I1
tp8191
a(S'p2_th'
I0
tp8192
a(S'p2_ll'
I1
tp8193
a(S'w'
I2
tp8194
a(S'p2_tl'
I134
tp8195
a(S'w'
I12
tp8196
a(S'ch_no'
I1
tp8197
a(S'ch_tr'
I1
tp8198
a(S'ch_p2'
I1
tp8199
a(S'ch_p1'
I1
tp8200
a(S'w'
I1
tp8201
a(S'ch_no'
I1
tp8202
a(S'ch_tr'
I1
tp8203
a(S'ch_p2'
I1
tp8204
a(S'ch_p1'
I1
tp8205
a(S'w'
I663
tp8206
a(S'p1_du'
I0
tp8207
a(S'p1_vo'
I4
tp8208
a(S'w'
I10
tp8209
a(S'p2_du'
I0
tp8210
a(S'p2_vo'
I7
tp8211
a(S'w'
I723
tp8212
a(S'p1_vo'
I3
tp8213
a(S'w'
I11
tp8214
a(S'w'
I7
tp8215
a(S'p2_vo'
I6
tp8216
a(S'w'
I724
tp8217
a(S'p2_vo'
I5
tp8218
a(S'w'
I734
tp8219
a(S'p2_tl'
I136
tp8220
a(S'w'
I734
tp8221
a(S'p1_tl'
I190
tp8222
a(S'w'
I4
tp8223
a(S'p1_vo'
I1
tp8224
a(S'w'
I17
tp8225
a(S'p2_tl'
I134
tp8226
a(S'w'
I4
tp8227
a(S'p2_vo'
I1
tp8228
a(S'w'
I717
tp8229
a(S'w'
I746
tp8230
a(S'p1_du'
I1
tp8231
a(S'p1_vo'
I2
tp8232
a(S'w'
I11
tp8233
a(S'p1_ll'
I1
tp8234
a(S'p1_th'
I1
tp8235
a(S'p1_ll'
I1
tp8236
a(S'w'
I1
tp8237
a(S'p1_tl'
I83
tp8238
a(S'w'
I35
tp8239
a(S'p2_du'
I1
tp8240
a(S'p2_vo'
I8
tp8241
a(S'w'
I9
tp8242
a.