(lp1
(S'clock'
p2
I1789772
tp3
a(S'ch_no'
I1
tp4
a(S'ch_tr'
I0
tp5
a(S'ch_p2'
I1
tp6
a(S'ch_p1'
I1
tp7
a(S'ch_no'
I1
tp8
a(S'ch_tr'
I1
tp9
a(S'ch_p2'
I1
tp10
a(S'ch_p1'
I1
tp11
a(S'p1_lh'
I1
tp12
a(S'p1_cv'
I1
tp13
a(S'p2_lh'
I1
tp14
a(S'p2_cv'
I1
tp15
a(S'no_lh'
I1
tp16
a(S'no_cv'
I1
tp17
a(S'p1_sp'
I7
tp18
a(S'p1_sn'
I1
tp19
a(S'p1_ss'
I7
tp20
a(S'p2_sp'
I7
tp21
a(S'p2_sn'
I1
tp22
a(S'p2_ss'
I7
tp23
a(S'w'
I57
tp24
a(S'p2_du'
I2
tp25
a(S'p2_vo'
I9
tp26
a(S'w'
I16
tp27
a(S'p2_ll'
I1
tp28
a(S'p2_th'
I1
tp29
a(S'p2_ll'
I1
tp30
a(S'w'
I1
tp31
a(S'p2_tl'
I125
tp32
a(S'w'
I13
tp33
a(S'tr_lr'
I63
tp34
a(S'w'
I6
tp35
a(S'tr_ll'
I1
tp36
a(S'tr_th'
I1
tp37
a(S'tr_ll'
I1
tp38
a(S'w'
I1
tp39
a(S'tr_tl'
I125
tp40
a(S'w'
I652
tp41
a(S'p2_du'
I1
tp42
a(S'p2_vo'
I8
tp43
a(S'w'
I734
tp44
a(S'p2_vo'
I7
tp45
a(S'w'
I753
tp46
a(S'p1_du'
I2
tp47
a(S'p1_vo'
I4
tp48
a(S'w'
I16
tp49
a(S'p1_ll'
I1
tp50
a(S'p1_th'
I1
tp51
a(S'p1_ll'
I1
tp52
a(S'w'
I1
tp53
a(S'p1_tl'
I124
tp54
a(S'w'
I9
tp55
a(S'p2_vo'
I6
tp56
a(S'w'
I4366
tp57
a(S'p2_tl'
I120
tp58
a(S'w'
I6
tp59
a(S'p2_du'
I2
tp60
a(S'p2_vo'
I1
tp61
a(S'w'
I727
tp62
a(S'p2_tl'
I115
tp63
a(S'w'
I734
tp64
a(S'p2_tl'
I110
tp65
a(S'w'
I729
tp66
a(S'p1_tl'
I119
tp67
a(S'w'
I6
tp68
a(S'p1_vo'
I1
tp69
a(S'w'
I12
tp70
a(S'p2_tl'
I105
tp71
a(S'w'
I716
tp72
a(S'p1_tl'
I114
tp73
a(S'w'
I17
tp74
a(S'p2_tl'
I95
tp75
a(S'w'
I717
tp76
a(S'p1_tl'
I109
tp77
a(S'w'
I733
tp78
a(S'p1_tl'
I104
tp79
a(S'w'
I734
tp80
a(S'p1_tl'
I94
tp81
a(S'w'
I25
tp82
a(S'p2_vo'
I9
tp83
a(S'w'
I16
tp84
a(S'p2_ll'
I1
tp85
a(S'p2_th'
I0
tp86
a(S'p2_ll'
I1
tp87
a(S'w'
I1
tp88
a(S'p2_tl'
I190
tp89
a(S'w'
I697
tp90
a(S'p2_du'
I1
tp91
a(S'p2_vo'
I8
tp92
a(S'w'
I732
tp93
a(S'p2_vo'
I7
tp94
a(S'w'
I738
tp95
a(S'p1_vo'
I4
tp96
a(S'w'
I17
tp97
a(S'p1_ll'
I1
tp98
a(S'p1_th'
I0
tp99
a(S'p1_ll'
I1
tp100
a(S'w'
I1
tp101
a(S'p1_tl'
I189
tp102
a(S'w'
I8
tp103
a(S'p2_vo'
I6
tp104
a(S'w'
I705
tp105
a(S'p2_tl'
I185
tp106
a(S'w'
I734
tp107
a(S'p2_tl'
I180
tp108
a(S'w'
I6
tp109
a(S'p2_du'
I2
tp110
a(S'p2_vo'
I1
tp111
a(S'w'
I728
tp112
a(S'p2_tl'
I175
tp113
a(S'w'
I729
tp114
a(S'p1_tl'
I184
tp115
a(S'w'
I14
tp116
a(S'p2_tl'
I170
tp117
a(S'w'
I720
tp118
a(S'p1_tl'
I179
tp119
a(S'w'
I6
tp120
a(S'p1_vo'
I1
tp121
a(S'w'
I20
tp122
a(S'p2_vo'
I9
tp123
a(S'w'
I15
tp124
a(S'p2_ll'
I1
tp125
a(S'p2_th'
I1
tp126
a(S'p2_ll'
I1
tp127
a(S'w'
I2
tp128
a(S'p2_tl'
I147
tp129
a(S'w'
I16
tp130
a(S'tr_ll'
I1
tp131
a(S'tr_ll'
I1
tp132
a(S'w'
I1
tp133
a(S'tr_tl'
I147
tp134
a(S'w'
I673
tp135
a(S'p1_tl'
I174
tp136
a(S'w'
I13
tp137
a(S'p2_du'
I1
tp138
a(S'p2_vo'
I8
tp139
a(S'w'
I721
tp140
a(S'p1_tl'
I169
tp141
a(S'w'
I13
tp142
a(S'p2_vo'
I7
tp143
a(S'w'
I728
tp144
a(S'p1_vo'
I4
tp145
a(S'w'
I17
tp146
a(S'p1_ll'
I1
tp147
a(S'p1_th'
I1
tp148
a(S'p1_ll'
I1
tp149
a(S'w'
I1
tp150
a(S'p1_tl'
I146
tp151
a(S'w'
I8
tp152
a(S'p2_vo'
I6
tp153
a(S'w'
I4375
tp154
a(S'p2_tl'
I142
tp155
a(S'w'
I6
tp156
a(S'p2_du'
I2
tp157
a(S'p2_vo'
I1
tp158
a(S'w'
I727
tp159
a(S'p2_tl'
I137
tp160
a(S'w'
I734
tp161
a(S'p2_tl'
I132
tp162
a(S'w'
I729
tp163
a(S'p1_tl'
I141
tp164
a(S'w'
I6
tp165
a(S'p1_vo'
I1
tp166
a(S'w'
I12
tp167
a(S'p2_tl'
I127
tp168
a(S'w'
I716
tp169
a(S'p1_tl'
I136
tp170
a(S'w'
I17
tp171
a(S'p2_tl'
I117
tp172
a(S'w'
I717
tp173
a(S'p1_tl'
I131
tp174
a(S'w'
I733
tp175
a(S'p1_tl'
I126
tp176
a(S'w'
I734
tp177
a(S'p1_tl'
I116
tp178
a(S'w'
I25
tp179
a(S'p2_vo'
I9
tp180
a(S'w'
I16
tp181
a(S'p2_ll'
I1
tp182
a(S'p2_th'
I0
tp183
a(S'p2_ll'
I1
tp184
a(S'w'
I1
tp185
a(S'p2_tl'
I201
tp186
a(S'w'
I697
tp187
a(S'p2_du'
I1
tp188
a(S'p2_vo'
I8
tp189
a(S'w'
I732
tp190
a(S'p2_vo'
I7
tp191
a(S'w'
I738
tp192
a(S'p1_vo'
I4
tp193
a(S'w'
I17
tp194
a(S'p1_ll'
I1
tp195
a(S'p1_th'
I0
tp196
a(S'p1_ll'
I1
tp197
a(S'w'
I1
tp198
a(S'p1_tl'
I200
tp199
a(S'w'
I8
tp200
a(S'p2_vo'
I6
tp201
a(S'w'
I705
tp202
a(S'p2_tl'
I196
tp203
a(S'w'
I734
tp204
a(S'p2_tl'
I191
tp205
a(S'w'
I6
tp206
a(S'p2_du'
I2
tp207
a(S'p2_vo'
I1
tp208
a(S'w'
I728
tp209
a(S'p2_tl'
I186
tp210
a(S'w'
I729
tp211
a(S'p1_tl'
I195
tp212
a(S'w'
I14
tp213
a(S'p2_tl'
I181
tp214
a(S'w'
I720
tp215
a(S'p1_tl'
I190
tp216
a(S'w'
I6
tp217
a(S'p1_vo'
I1
tp218
a(S'w'
I20
tp219
a(S'p2_vo'
I9
tp220
a(S'w'
I15
tp221
a(S'p2_ll'
I1
tp222
a(S'p2_th'
I1
tp223
a(S'p2_ll'
I1
tp224
a(S'w'
I2
tp225
a(S'p2_tl'
I171
tp226
a(S'w'
I16
tp227
a(S'tr_ll'
I1
tp228
a(S'tr_ll'
I1
tp229
a(S'w'
I1
tp230
a(S'tr_tl'
I171
tp231
a(S'w'
I673
tp232
a(S'p1_tl'
I185
tp233
a(S'w'
I13
tp234
a(S'p2_du'
I1
tp235
a(S'p2_vo'
I8
tp236
a(S'w'
I721
tp237
a(S'p1_tl'
I180
tp238
a(S'w'
I13
tp239
a(S'p2_vo'
I7
tp240
a(S'w'
I728
tp241
a(S'p1_vo'
I4
tp242
a(S'w'
I17
tp243
a(S'p1_ll'
I1
tp244
a(S'p1_th'
I1
tp245
a(S'p1_ll'
I1
tp246
a(S'w'
I1
tp247
a(S'p1_tl'
I170
tp248
a(S'w'
I8
tp249
a(S'p2_vo'
I6
tp250
a(S'w'
I4375
tp251
a(S'p2_tl'
I166
tp252
a(S'w'
I6
tp253
a(S'p2_du'
I2
tp254
a(S'p2_vo'
I1
tp255
a(S'w'
I727
tp256
a(S'p2_tl'
I161
tp257
a(S'w'
I734
tp258
a(S'p2_tl'
I156
tp259
a(S'w'
I729
tp260
a(S'p1_tl'
I165
tp261
a(S'w'
I6
tp262
a(S'p1_vo'
I1
tp263
a(S'w'
I12
tp264
a(S'p2_tl'
I151
tp265
a(S'w'
I716
tp266
a(S'p1_tl'
I160
tp267
a(S'w'
I17
tp268
a(S'p2_tl'
I141
tp269
a(S'w'
I717
tp270
a(S'p1_tl'
I155
tp271
a(S'w'
I733
tp272
a(S'p1_tl'
I150
tp273
a(S'w'
I734
tp274
a(S'p1_tl'
I140
tp275
a(S'w'
I25
tp276
a(S'p2_vo'
I9
tp277
a(S'w'
I16
tp278
a(S'p2_ll'
I1
tp279
a(S'p2_th'
I0
tp280
a(S'p2_ll'
I1
tp281
a(S'w'
I1
tp282
a(S'p2_tl'
I213
tp283
a(S'w'
I697
tp284
a(S'p2_du'
I1
tp285
a(S'p2_vo'
I8
tp286
a(S'w'
I732
tp287
a(S'p2_vo'
I7
tp288
a(S'w'
I738
tp289
a(S'p1_vo'
I4
tp290
a(S'w'
I17
tp291
a(S'p1_ll'
I1
tp292
a(S'p1_th'
I0
tp293
a(S'p1_ll'
I1
tp294
a(S'w'
I1
tp295
a(S'p1_tl'
I212
tp296
a(S'w'
I8
tp297
a(S'p2_vo'
I6
tp298
a(S'w'
I705
tp299
a(S'p2_tl'
I208
tp300
a(S'w'
I734
tp301
a(S'p2_tl'
I203
tp302
a(S'w'
I6
tp303
a(S'p2_du'
I2
tp304
a(S'p2_vo'
I1
tp305
a(S'w'
I728
tp306
a(S'p2_tl'
I198
tp307
a(S'w'
I729
tp308
a(S'p1_tl'
I207
tp309
a(S'w'
I14
tp310
a(S'p2_tl'
I193
tp311
a(S'w'
I720
tp312
a(S'p1_tl'
I202
tp313
a(S'w'
I6
tp314
a(S'p1_vo'
I1
tp315
a(S'w'
I20
tp316
a(S'p2_vo'
I9
tp317
a(S'w'
I15
tp318
a(S'p2_ll'
I1
tp319
a(S'p2_th'
I1
tp320
a(S'p2_ll'
I1
tp321
a(S'w'
I1
tp322
a(S'p2_tl'
I197
tp323
a(S'w'
I16
tp324
a(S'tr_ll'
I1
tp325
a(S'tr_ll'
I1
tp326
a(S'w'
I1
tp327
a(S'tr_tl'
I197
tp328
a(S'w'
I674
tp329
a(S'p1_tl'
I197
tp330
a(S'w'
I13
tp331
a(S'p2_du'
I1
tp332
a(S'p2_vo'
I8
tp333
a(S'w'
I721
tp334
a(S'p1_tl'
I192
tp335
a(S'w'
I13
tp336
a(S'p2_vo'
I7
tp337
a(S'w'
I728
tp338
a(S'p1_vo'
I4
tp339
a(S'w'
I16
tp340
a(S'p1_ll'
I1
tp341
a(S'p1_th'
I1
tp342
a(S'p1_ll'
I1
tp343
a(S'w'
I2
tp344
a(S'p1_tl'
I196
tp345
a(S'w'
I8
tp346
a(S'p2_vo'
I6
tp347
a(S'w'
I4375
tp348
a(S'p2_tl'
I192
tp349
a(S'w'
I6
tp350
a(S'p2_du'
I2
tp351
a(S'p2_vo'
I1
tp352
a(S'w'
I727
tp353
a(S'p2_tl'
I187
tp354
a(S'w'
I734
tp355
a(S'p2_tl'
I182
tp356
a(S'w'
I729
tp357
a(S'p1_tl'
I191
tp358
a(S'w'
I6
tp359
a(S'p1_vo'
I1
tp360
a(S'w'
I12
tp361
a(S'p2_tl'
I177
tp362
a(S'w'
I716
tp363
a(S'p1_tl'
I186
tp364
a(S'w'
I17
tp365
a(S'p2_tl'
I167
tp366
a(S'w'
I717
tp367
a(S'p1_tl'
I181
tp368
a(S'w'
I733
tp369
a(S'p1_tl'
I176
tp370
a(S'w'
I734
tp371
a(S'p1_tl'
I166
tp372
a(S'w'
I25
tp373
a(S'p2_vo'
I9
tp374
a(S'w'
I15
tp375
a(S'p2_ll'
I1
tp376
a(S'p2_th'
I0
tp377
a(S'p2_ll'
I1
tp378
a(S'w'
I2
tp379
a(S'p2_tl'
I226
tp380
a(S'w'
I697
tp381
a(S'p2_du'
I1
tp382
a(S'p2_vo'
I8
tp383
a(S'w'
I732
tp384
a(S'p2_vo'
I7
tp385
a(S'w'
I738
tp386
a(S'p1_vo'
I4
tp387
a(S'w'
I16
tp388
a(S'p1_ll'
I1
tp389
a(S'p1_th'
I0
tp390
a(S'p1_ll'
I1
tp391
a(S'w'
I2
tp392
a(S'p1_tl'
I225
tp393
a(S'w'
I8
tp394
a(S'p2_vo'
I6
tp395
a(S'w'
I705
tp396
a(S'p2_tl'
I221
tp397
a(S'w'
I734
tp398
a(S'p2_tl'
I216
tp399
a(S'w'
I6
tp400
a(S'p2_du'
I2
tp401
a(S'p2_vo'
I1
tp402
a(S'w'
I728
tp403
a(S'p2_tl'
I211
tp404
a(S'w'
I729
tp405
a(S'p1_tl'
I220
tp406
a(S'w'
I14
tp407
a(S'p2_tl'
I206
tp408
a(S'w'
I720
tp409
a(S'p1_tl'
I215
tp410
a(S'w'
I6
tp411
a(S'p1_vo'
I1
tp412
a(S'w'
I29
tp413
a(S'p2_vo'
I9
tp414
a(S'w'
I8
tp415
a(S'p2_ll'
I1
tp416
a(S'p2_th'
I1
tp417
a(S'p2_ll'
I1
tp418
a(S'w'
I2
tp419
a(S'p2_tl'
I224
tp420
a(S'w'
I15
tp421
a(S'tr_ll'
I1
tp422
a(S'tr_ll'
I1
tp423
a(S'w'
I1
tp424
a(S'tr_tl'
I224
tp425
a(S'w'
I672
tp426
a(S'p1_tl'
I210
tp427
a(S'w'
I12
tp428
a(S'p2_du'
I1
tp429
a(S'p2_vo'
I8
tp430
a(S'w'
I722
tp431
a(S'p1_tl'
I205
tp432
a(S'w'
I12
tp433
a(S'p2_vo'
I7
tp434
a(S'w'
I743
tp435
a(S'p1_vo'
I4
tp436
a(S'w'
I8
tp437
a(S'p1_ll'
I1
tp438
a(S'p1_th'
I1
tp439
a(S'p1_ll'
I1
tp440
a(S'w'
I2
tp441
a(S'p1_tl'
I223
tp442
a(S'w'
I8
tp443
a(S'p2_vo'
I6
tp444
a(S'w'
I7300
tp445
a(S'p2_du'
I2
tp446
a(S'p2_vo'
I1
tp447
a(S'w'
I1462
tp448
a(S'p1_vo'
I1
tp449
a(S'w'
I6623
tp450
a(S'p1_vo'
I8
tp451
a(S'w'
I9
tp452
a(S'p1_ll'
I1
tp453
a(S'p1_th'
I0
tp454
a(S'p1_ll'
I1
tp455
a(S'w'
I1
tp456
a(S'p1_tl'
I127
tp457
a(S'w'
I23
tp458
a(S'p2_vo'
I9
tp459
a(S'w'
I9
tp460
a(S'p2_ll'
I1
tp461
a(S'p2_th'
I0
tp462
a(S'p2_ll'
I1
tp463
a(S'w'
I1
tp464
a(S'p2_tl'
I134
tp465
a(S'w'
I15
tp466
a(S'tr_lh'
I1
tp467
a(S'tr_lr'
I16
tp468
a(S'w'
I8
tp469
a(S'tr_ll'
I1
tp470
a(S'tr_th'
I0
tp471
a(S'tr_ll'
I1
tp472
a(S'w'
I1
tp473
a(S'tr_tl'
I84
tp474
a(S'w'
I647
tp475
a(S'p1_du'
I0
tp476
a(S'p1_vo'
I7
tp477
a(S'w'
I7
tp478
a(S'p2_du'
I0
tp479
a(S'p2_vo'
I8
tp480
a(S'w'
I12
tp481
a(S'tr_ll'
I1
tp482
a(S'tr_ll'
I1
tp483
a(S'w'
I720
tp484
a(S'p2_vo'
I7
tp485
a(S'w'
I13
tp486
a(S'tr_ll'
I1
tp487
a(S'tr_ll'
I1
tp488
a(S'w'
I1
tp489
a(S'tr_tl'
I100
tp490
a(S'w'
I720
tp491
a(S'p2_vo'
I6
tp492
a(S'w'
I14
tp493
a(S'tr_ll'
I1
tp494
a(S'tr_ll'
I1
tp495
a(S'w'
I1
tp496
a(S'tr_tl'
I120
tp497
a(S'w'
I729
tp498
a(S'tr_ll'
I1
tp499
a(S'tr_ll'
I1
tp500
a(S'w'
I2
tp501
a(S'tr_tl'
I134
tp502
a(S'w'
I731
tp503
a(S'tr_ll'
I1
tp504
a(S'w'
I1
tp505
a(S'tr_ll'
I1
tp506
a(S'w'
I1
tp507
a(S'tr_tl'
I169
tp508
a(S'w'
I732
tp509
a(S'tr_ll'
I1
tp510
a(S'tr_ll'
I1
tp511
a(S'w'
I1
tp512
a(S'tr_tl'
I201
tp513
a(S'w'
I735
tp514
a(S'tr_ll'
I1
tp515
a(S'tr_ll'
I1
tp516
a(S'w'
I1
tp517
a(S'tr_tl'
I240
tp518
a(S'w'
I731
tp519
a(S'tr_ll'
I1
tp520
a(S'tr_th'
I1
tp521
a(S'tr_ll'
I1
tp522
a(S'w'
I1
tp523
a(S'tr_tl'
I29
tp524
a(S'w'
I733
tp525
a(S'tr_ll'
I1
tp526
a(S'tr_ll'
I1
tp527
a(S'w'
I1
tp528
a(S'tr_tl'
I64
tp529
a(S'w'
I732
tp530
a(S'tr_ll'
I1
tp531
a(S'tr_ll'
I1
tp532
a(S'w'
I1
tp533
a(S'tr_tl'
I125
tp534
a(S'w'
I719
tp535
a(S'p1_vo'
I6
tp536
a(S'w'
I18
tp537
a(S'tr_ll'
I1
tp538
a(S'w'
I1
tp539
a(S'tr_ll'
I1
tp540
a(S'w'
I1
tp541
a(S'tr_tl'
I197
tp542
a(S'w'
I714
tp543
a(S'p1_vo'
I5
tp544
a(S'w'
I8
tp545
a(S'p2_du'
I2
tp546
a(S'p2_vo'
I1
tp547
a(S'w'
I9
tp548
a(S'ch_no'
I1
tp549
a(S'ch_tr'
I0
tp550
a(S'ch_p2'
I1
tp551
a(S'ch_p1'
I1
tp552
a(S'tr_lh'
I0
tp553
a(S'tr_lr'
I0
tp554
a(S'ch_no'
I1
tp555
a(S'ch_tr'
I1
tp556
a(S'ch_p2'
I1
tp557
a(S'ch_p1'
I1
tp558
a(S'w'
I717
tp559
a(S'p1_vo'
I4
tp560
a(S'w'
I734
tp561
a(S'p1_vo'
I3
tp562
a(S'w'
I733
tp563
a(S'p1_vo'
I2
tp564
a(S'w'
I825
tp565
a(S'p1_vo'
I0
tp566
a(S'w'
I100
tp567
a(S'p2_du'
I0
tp568
a(S'p2_vo'
I0
tp569
a(S'w'
I5688
tp570
a(S'p1_du'
I2
tp571
a(S'p1_vo'
I8
tp572
a(S'w'
I9
tp573
a(S'w'
I14
tp574
a(S'p2_du'
I2
tp575
a(S'p2_vo'
I9
tp576
a(S'w'
I10
tp577
a(S'w'
I11
tp578
a(S'tr_lh'
I1
tp579
a(S'tr_lr'
I16
tp580
a(S'w'
I8
tp581
a(S'tr_ll'
I1
tp582
a(S'tr_th'
I0
tp583
a(S'tr_ll'
I1
tp584
a(S'w'
I1
tp585
a(S'tr_tl'
I84
tp586
a(S'w'
I671
tp587
a(S'p1_du'
I0
tp588
a(S'p1_vo'
I7
tp589
a(S'w'
I7
tp590
a(S'p2_du'
I0
tp591
a(S'p2_vo'
I8
tp592
a(S'w'
I12
tp593
a(S'tr_ll'
I1
tp594
a(S'tr_ll'
I1
tp595
a(S'w'
I720
tp596
a(S'p2_vo'
I7
tp597
a(S'w'
I13
tp598
a(S'tr_ll'
I1
tp599
a(S'tr_ll'
I1
tp600
a(S'w'
I2
tp601
a(S'tr_tl'
I100
tp602
a(S'w'
I719
tp603
a(S'p2_vo'
I6
tp604
a(S'w'
I14
tp605
a(S'tr_ll'
I1
tp606
a(S'tr_ll'
I1
tp607
a(S'w'
I1
tp608
a(S'tr_tl'
I120
tp609
a(S'w'
I1463
tp610
a(S'tr_ll'
I1
tp611
a(S'tr_ll'
I1
tp612
a(S'w'
I1
tp613
a(S'tr_tl'
I134
tp614
a(S'w'
I733
tp615
a(S'tr_ll'
I1
tp616
a(S'tr_ll'
I1
tp617
a(S'w'
I1
tp618
a(S'tr_tl'
I169
tp619
a(S'w'
I732
tp620
a(S'tr_ll'
I1
tp621
a(S'tr_ll'
I1
tp622
a(S'w'
I2
tp623
a(S'tr_tl'
I201
tp624
a(S'w'
I734
tp625
a(S'tr_ll'
I1
tp626
a(S'tr_ll'
I1
tp627
a(S'w'
I1
tp628
a(S'tr_tl'
I240
tp629
a(S'w'
I1464
tp630
a(S'tr_ll'
I1
tp631
a(S'tr_th'
I1
tp632
a(S'tr_ll'
I1
tp633
a(S'w'
I1
tp634
a(S'tr_tl'
I29
tp635
a(S'w'
I733
tp636
a(S'tr_ll'
I1
tp637
a(S'tr_ll'
I1
tp638
a(S'w'
I2
tp639
a(S'tr_tl'
I64
tp640
a(S'w'
I732
tp641
a(S'tr_ll'
I1
tp642
a(S'tr_ll'
I1
tp643
a(S'w'
I1
tp644
a(S'tr_tl'
I125
tp645
a(S'w'
I719
tp646
a(S'p1_vo'
I6
tp647
a(S'w'
I19
tp648
a(S'tr_ll'
I1
tp649
a(S'tr_ll'
I1
tp650
a(S'w'
I1
tp651
a(S'tr_tl'
I197
tp652
a(S'w'
I1447
tp653
a(S'p1_vo'
I5
tp654
a(S'w'
I8
tp655
a(S'p2_du'
I2
tp656
a(S'p2_vo'
I1
tp657
a(S'w'
I9
tp658
a(S'ch_no'
I1
tp659
a(S'ch_tr'
I0
tp660
a(S'ch_p2'
I1
tp661
a(S'ch_p1'
I1
tp662
a(S'tr_lh'
I0
tp663
a(S'tr_lr'
I0
tp664
a(S'ch_no'
I1
tp665
a(S'ch_tr'
I1
tp666
a(S'ch_p2'
I1
tp667
a(S'ch_p1'
I1
tp668
a(S'w'
I717
tp669
a(S'p1_vo'
I4
tp670
a(S'w'
I734
tp671
a(S'p1_vo'
I3
tp672
a(S'w'
I734
tp673
a(S'p1_vo'
I2
tp674
a(S'w'
I1465
tp675
a(S'p1_vo'
I0
tp676
a(S'w'
I7
tp677
a(S'p2_du'
I0
tp678
a(S'p2_vo'
I0
tp679
a(S'w'
I7335
tp680
a(S'ch_no'
I1
tp681
a(S'ch_tr'
I0
tp682
a(S'ch_p2'
I1
tp683
a(S'ch_p1'
I1
tp684
a(S'ch_no'
I1
tp685
a(S'ch_tr'
I1
tp686
a(S'ch_p2'
I1
tp687
a(S'ch_p1'
I1
tp688
a(S'w'
I42291
tp689
a.