(lp1
(S'clock'
p2
I1789772
tp3
a(S'p1_du'
I2
tp4
a(S'p1_lh'
I1
tp5
a(S'p1_cv'
I1
tp6
a(S'p1_vo'
I4
tp7
a(S'p1_sn'
I1
tp8
a(S'p1_tl'
I168
tp9
a(S'p1_ll'
I24
tp10
a(S'p2_lh'
I1
tp11
a(S'p2_cv'
I1
tp12
a(S'p2_vo'
I6
tp13
a(S'p2_sn'
I1
tp14
a(S'p2_tl'
I113
tp15
a(S'p2_ll'
I24
tp16
a(S'tr_lh'
I1
tp17
a(S'tr_lr'
I1
tp18
a(S'tr_tl'
I83
tp19
a(S'tr_ll'
I24
tp20
a(S'tr_th'
I1
tp21
a(S'no_np'
I7
tp22
a(S'no_ll'
I1
tp23
a(S'ch_no'
I0
tp24
a(S'ch_tr'
I0
tp25
a(S'ch_p2'
I0
tp26
a(S'ch_p1'
I0
tp27
a(S'ch_no'
I0
tp28
a(S'ch_tr'
I1
tp29
a(S'ch_p2'
I0
tp30
a(S'ch_p1'
I0
tp31
a(S'w'
I1
tp32
a(S'tr_tl'
I250
tp33
a(S'tr_ll'
I24
tp34
a(S'tr_th'
I2
tp35
a(S'w'
I36
tp36
a(S'ch_no'
I0
tp37
a(S'ch_tr'
I1
tp38
a(S'ch_p2'
I1
tp39
a(S'ch_p1'
I0
tp40
a(S'w'
I1
tp41
a(S'p2_du'
I2
tp42
a(S'p2_lh'
I0
tp43
a(S'p2_cv'
I0
tp44
a(S'p2_vo'
I15
tp45
a(S'p2_tl'
I190
tp46
a(S'p2_ll'
I24
tp47
a(S'w'
I5
tp48
a(S'p2_du'
I0
tp49
a(S'p2_lh'
I1
tp50
a(S'p2_cv'
I1
tp51
a(S'p2_vo'
I10
tp52
a(S'w'
I1
tp53
a(S'w'
I34
tp54
a(S'ch_no'
I0
tp55
a(S'ch_tr'
I1
tp56
a(S'ch_p2'
I1
tp57
a(S'ch_p1'
I1
tp58
a(S'p1_du'
I1
tp59
a(S'p1_lh'
I0
tp60
a(S'p1_cv'
I0
tp61
a(S'p1_vo'
I10
tp62
a(S'p1_tl'
I125
tp63
a(S'w'
I1
tp64
a(S'p1_ll'
I24
tp65
a(S'p1_th'
I1
tp66
a(S'w'
I4
tp67
a(S'p1_lh'
I1
tp68
a(S'p1_cv'
I1
tp69
a(S'w'
I2
tp70
a(S'p1_tl'
I123
tp71
a(S'w'
I618
tp72
a(S'w'
I6
tp73
a(S'w'
I729
tp74
a(S'w'
I6
tp75
a(S'w'
I729
tp76
a(S'w'
I5
tp77
a(S'w'
I728
tp78
a(S'w'
I5
tp79
a(S'w'
I729
tp80
a(S'w'
I5
tp81
a(S'w'
I723
tp82
a(S'tr_lr'
I0
tp83
a(S'w'
I6
tp84
a(S'w'
I5
tp85
a(S'w'
I726
tp86
a(S'tr_tl'
I166
tp87
a(S'w'
I1
tp88
a(S'tr_ll'
I24
tp89
a(S'w'
I4
tp90
a(S'tr_lr'
I1
tp91
a(S'w'
I11
tp92
a(S'p2_du'
I2
tp93
a(S'p2_lh'
I0
tp94
a(S'p2_cv'
I0
tp95
a(S'p2_vo'
I15
tp96
a(S'p2_tl'
I169
tp97
a(S'w'
I1
tp98
a(S'p2_ll'
I24
tp99
a(S'w'
I4
tp100
a(S'p2_du'
I0
tp101
a(S'p2_lh'
I1
tp102
a(S'p2_cv'
I1
tp103
a(S'p2_vo'
I10
tp104
a(S'w'
I2
tp105
a(S'w'
I9
tp106
a(S'p1_lh'
I0
tp107
a(S'p1_cv'
I0
tp108
a(S'p1_tl'
I83
tp109
a(S'w'
I1
tp110
a(S'p1_ll'
I24
tp111
a(S'w'
I4
tp112
a(S'p1_lh'
I1
tp113
a(S'p1_cv'
I1
tp114
a(S'w'
I2
tp115
a(S'p1_tl'
I81
tp116
a(S'w'
I697
tp117
a(S'w'
I5
tp118
a(S'w'
I729
tp119
a(S'w'
I6
tp120
a(S'w'
I728
tp121
a(S'w'
I5
tp122
a(S'w'
I728
tp123
a(S'w'
I6
tp124
a(S'w'
I729
tp125
a(S'w'
I5
tp126
a(S'w'
I726
tp127
a(S'tr_tl'
I58
tp128
a(S'tr_ll'
I24
tp129
a(S'w'
I16
tp130
a(S'p2_du'
I2
tp131
a(S'p2_lh'
I0
tp132
a(S'p2_cv'
I0
tp133
a(S'p2_vo'
I15
tp134
a(S'p2_tl'
I142
tp135
a(S'p2_ll'
I24
tp136
a(S'w'
I5
tp137
a(S'p2_du'
I0
tp138
a(S'p2_lh'
I1
tp139
a(S'p2_cv'
I1
tp140
a(S'p2_vo'
I10
tp141
a(S'w'
I2
tp142
a(S'w'
I9
tp143
a(S'p1_lh'
I0
tp144
a(S'p1_cv'
I0
tp145
a(S'p1_tl'
I29
tp146
a(S'p1_ll'
I24
tp147
a(S'w'
I5
tp148
a(S'p1_lh'
I1
tp149
a(S'p1_cv'
I1
tp150
a(S'w'
I1
tp151
a(S'p1_tl'
I27
tp152
a(S'w'
I698
tp153
a(S'w'
I5
tp154
a(S'w'
I729
tp155
a(S'w'
I5
tp156
a(S'w'
I728
tp157
a(S'w'
I6
tp158
a(S'w'
I728
tp159
a(S'w'
I6
tp160
a(S'w'
I729
tp161
a(S'w'
I5
tp162
a(S'w'
I726
tp163
a(S'tr_tl'
I166
tp164
a(S'tr_ll'
I24
tp165
a(S'w'
I16
tp166
a(S'p2_du'
I2
tp167
a(S'p2_lh'
I0
tp168
a(S'p2_cv'
I0
tp169
a(S'p2_vo'
I15
tp170
a(S'p2_tl'
I169
tp171
a(S'p2_ll'
I24
tp172
a(S'w'
I5
tp173
a(S'p2_du'
I0
tp174
a(S'p2_lh'
I1
tp175
a(S'p2_cv'
I1
tp176
a(S'p2_vo'
I10
tp177
a(S'w'
I1
tp178
a(S'w'
I10
tp179
a(S'p1_lh'
I0
tp180
a(S'p1_cv'
I0
tp181
a(S'p1_tl'
I83
tp182
a(S'p1_ll'
I24
tp183
a(S'w'
I5
tp184
a(S'p1_lh'
I1
tp185
a(S'p1_cv'
I1
tp186
a(S'w'
I1
tp187
a(S'p1_tl'
I81
tp188
a(S'w'
I698
tp189
a(S'w'
I5
tp190
a(S'w'
I729
tp191
a(S'w'
I5
tp192
a(S'w'
I728
tp193
a(S'w'
I6
tp194
a(S'w'
I728
tp195
a(S'w'
I5
tp196
a(S'w'
I730
tp197
a(S'w'
I5
tp198
a(S'w'
I726
tp199
a(S'tr_tl'
I58
tp200
a(S'tr_ll'
I24
tp201
a(S'w'
I15
tp202
a(S'p2_du'
I2
tp203
a(S'p2_lh'
I0
tp204
a(S'p2_cv'
I0
tp205
a(S'p2_vo'
I15
tp206
a(S'w'
I1
tp207
a(S'p2_tl'
I142
tp208
a(S'p2_ll'
I24
tp209
a(S'w'
I5
tp210
a(S'p2_du'
I0
tp211
a(S'p2_lh'
I1
tp212
a(S'p2_cv'
I1
tp213
a(S'p2_vo'
I10
tp214
a(S'w'
I1
tp215
a(S'w'
I9
tp216
a(S'p1_lh'
I0
tp217
a(S'p1_cv'
I0
tp218
a(S'w'
I1
tp219
a(S'p1_tl'
I29
tp220
a(S'p1_ll'
I24
tp221
a(S'w'
I5
tp222
a(S'p1_lh'
I1
tp223
a(S'p1_cv'
I1
tp224
a(S'w'
I1
tp225
a(S'p1_tl'
I27
tp226
a(S'w'
I697
tp227
a(S'w'
I6
tp228
a(S'w'
I729
tp229
a(S'w'
I5
tp230
a(S'w'
I728
tp231
a(S'w'
I6
tp232
a(S'w'
I728
tp233
a(S'w'
I5
tp234
a(S'w'
I729
tp235
a(S'w'
I5
tp236
a(S'w'
I727
tp237
a(S'tr_tl'
I252
tp238
a(S'tr_ll'
I24
tp239
a(S'tr_th'
I1
tp240
a(S'w'
I15
tp241
a(S'p2_du'
I2
tp242
a(S'p2_lh'
I0
tp243
a(S'p2_cv'
I0
tp244
a(S'p2_vo'
I15
tp245
a(S'w'
I1
tp246
a(S'p2_tl'
I127
tp247
a(S'p2_ll'
I24
tp248
a(S'w'
I4
tp249
a(S'p2_du'
I0
tp250
a(S'p2_lh'
I1
tp251
a(S'p2_cv'
I1
tp252
a(S'p2_vo'
I10
tp253
a(S'w'
I2
tp254
a(S'w'
I9
tp255
a(S'p1_lh'
I0
tp256
a(S'p1_cv'
I0
tp257
a(S'p1_tl'
I254
tp258
a(S'w'
I1
tp259
a(S'p1_ll'
I24
tp260
a(S'p1_th'
I0
tp261
a(S'w'
I4
tp262
a(S'p1_lh'
I1
tp263
a(S'p1_cv'
I1
tp264
a(S'w'
I2
tp265
a(S'p1_tl'
I252
tp266
a(S'w'
I697
tp267
a(S'w'
I6
tp268
a(S'w'
I729
tp269
a(S'w'
I5
tp270
a(S'w'
I728
tp271
a(S'w'
I5
tp272
a(S'w'
I729
tp273
a(S'w'
I5
tp274
a(S'w'
I729
tp275
a(S'w'
I5
tp276
a(S'w'
I726
tp277
a(S'tr_tl'
I58
tp278
a(S'w'
I1
tp279
a(S'tr_ll'
I24
tp280
a(S'tr_th'
I2
tp281
a(S'w'
I15
tp282
a(S'p2_du'
I2
tp283
a(S'p2_lh'
I0
tp284
a(S'p2_cv'
I0
tp285
a(S'p2_vo'
I15
tp286
a(S'p2_tl'
I142
tp287
a(S'w'
I1
tp288
a(S'p2_ll'
I24
tp289
a(S'w'
I4
tp290
a(S'p2_du'
I0
tp291
a(S'p2_lh'
I1
tp292
a(S'p2_cv'
I1
tp293
a(S'p2_vo'
I10
tp294
a(S'w'
I2
tp295
a(S'w'
I9
tp296
a(S'p1_lh'
I0
tp297
a(S'p1_cv'
I0
tp298
a(S'p1_tl'
I29
tp299
a(S'w'
I1
tp300
a(S'p1_ll'
I24
tp301
a(S'p1_th'
I1
tp302
a(S'w'
I4
tp303
a(S'p1_lh'
I1
tp304
a(S'p1_cv'
I1
tp305
a(S'w'
I2
tp306
a(S'p1_tl'
I27
tp307
a(S'w'
I697
tp308
a(S'w'
I6
tp309
a(S'w'
I728
tp310
a(S'w'
I6
tp311
a(S'w'
I728
tp312
a(S'w'
I5
tp313
a(S'w'
I728
tp314
a(S'w'
I6
tp315
a(S'w'
I729
tp316
a(S'w'
I5
tp317
a(S'w'
I726
tp318
a(S'tr_tl'
I252
tp319
a(S'w'
I1
tp320
a(S'tr_ll'
I24
tp321
a(S'tr_th'
I1
tp322
a(S'w'
I15
tp323
a(S'p2_du'
I2
tp324
a(S'p2_lh'
I0
tp325
a(S'p2_cv'
I0
tp326
a(S'p2_vo'
I15
tp327
a(S'p2_tl'
I127
tp328
a(S'w'
I1
tp329
a(S'p2_ll'
I24
tp330
a(S'w'
I4
tp331
a(S'p2_du'
I0
tp332
a(S'p2_lh'
I1
tp333
a(S'p2_cv'
I1
tp334
a(S'p2_vo'
I10
tp335
a(S'w'
I2
tp336
a(S'w'
I9
tp337
a(S'p1_lh'
I0
tp338
a(S'p1_cv'
I0
tp339
a(S'p1_tl'
I254
tp340
a(S'p1_ll'
I24
tp341
a(S'p1_th'
I0
tp342
a(S'w'
I5
tp343
a(S'p1_lh'
I1
tp344
a(S'p1_cv'
I1
tp345
a(S'w'
I1
tp346
a(S'p1_tl'
I252
tp347
a(S'w'
I698
tp348
a(S'w'
I5
tp349
a(S'w'
I729
tp350
a(S'w'
I5
tp351
a(S'w'
I728
tp352
a(S'w'
I6
tp353
a(S'w'
I728
tp354
a(S'w'
I6
tp355
a(S'w'
I729
tp356
a(S'w'
I5
tp357
a(S'w'
I726
tp358
a(S'tr_tl'
I196
tp359
a(S'tr_ll'
I24
tp360
a(S'w'
I16
tp361
a(S'p2_du'
I2
tp362
a(S'p2_lh'
I0
tp363
a(S'p2_cv'
I0
tp364
a(S'p2_vo'
I15
tp365
a(S'p2_tl'
I113
tp366
a(S'p2_ll'
I24
tp367
a(S'w'
I5
tp368
a(S'p2_du'
I0
tp369
a(S'p2_lh'
I1
tp370
a(S'p2_cv'
I1
tp371
a(S'p2_vo'
I10
tp372
a(S'w'
I1
tp373
a(S'w'
I10
tp374
a(S'p1_lh'
I0
tp375
a(S'p1_cv'
I0
tp376
a(S'p1_tl'
I226
tp377
a(S'p1_ll'
I24
tp378
a(S'w'
I5
tp379
a(S'p1_lh'
I1
tp380
a(S'p1_cv'
I1
tp381
a(S'w'
I1
tp382
a(S'p1_tl'
I224
tp383
a(S'w'
I698
tp384
a(S'w'
I5
tp385
a(S'w'
I729
tp386
a(S'w'
I5
tp387
a(S'w'
I728
tp388
a(S'w'
I6
tp389
a(S'w'
I728
tp390
a(S'w'
I6
tp391
a(S'w'
I728
tp392
a(S'w'
I6
tp393
a(S'w'
I726
tp394
a(S'tr_tl'
I252
tp395
a(S'tr_ll'
I24
tp396
a(S'w'
I16
tp397
a(S'p2_du'
I2
tp398
a(S'p2_lh'
I0
tp399
a(S'p2_cv'
I0
tp400
a(S'p2_vo'
I15
tp401
a(S'p2_tl'
I127
tp402
a(S'p2_ll'
I24
tp403
a(S'w'
I5
tp404
a(S'p2_du'
I0
tp405
a(S'p2_lh'
I1
tp406
a(S'p2_cv'
I1
tp407
a(S'p2_vo'
I10
tp408
a(S'w'
I1
tp409
a(S'w'
I9
tp410
a(S'p1_lh'
I0
tp411
a(S'p1_cv'
I0
tp412
a(S'w'
I1
tp413
a(S'p1_tl'
I254
tp414
a(S'p1_ll'
I24
tp415
a(S'w'
I5
tp416
a(S'p1_lh'
I1
tp417
a(S'p1_cv'
I1
tp418
a(S'w'
I1
tp419
a(S'p1_tl'
I252
tp420
a(S'w'
I697
tp421
a(S'w'
I6
tp422
a(S'w'
I729
tp423
a(S'w'
I5
tp424
a(S'w'
I728
tp425
a(S'w'
I6
tp426
a(S'w'
I728
tp427
a(S'w'
I5
tp428
a(S'w'
I729
tp429
a(S'w'
I6
tp430
a(S'w'
I726
tp431
a(S'tr_tl'
I196
tp432
a(S'tr_ll'
I24
tp433
a(S'w'
I15
tp434
a(S'p2_du'
I2
tp435
a(S'p2_lh'
I0
tp436
a(S'p2_cv'
I0
tp437
a(S'p2_vo'
I15
tp438
a(S'w'
I1
tp439
a(S'p2_tl'
I113
tp440
a(S'p2_ll'
I24
tp441
a(S'w'
I5
tp442
a(S'p2_du'
I0
tp443
a(S'p2_lh'
I1
tp444
a(S'p2_cv'
I1
tp445
a(S'p2_vo'
I10
tp446
a(S'w'
I1
tp447
a(S'w'
I9
tp448
a(S'p1_lh'
I0
tp449
a(S'p1_cv'
I0
tp450
a(S'w'
I1
tp451
a(S'p1_tl'
I226
tp452
a(S'p1_ll'
I24
tp453
a(S'w'
I4
tp454
a(S'p1_lh'
I1
tp455
a(S'p1_cv'
I1
tp456
a(S'w'
I2
tp457
a(S'p1_tl'
I224
tp458
a(S'w'
I697
tp459
a(S'w'
I6
tp460
a(S'w'
I729
tp461
a(S'w'
I5
tp462
a(S'w'
I728
tp463
a(S'w'
I5
tp464
a(S'w'
I729
tp465
a(S'w'
I5
tp466
a(S'w'
I729
tp467
a(S'w'
I5
tp468
a(S'w'
I729
tp469
a(S'tr_tl'
I125
tp470
a(S'tr_ll'
I24
tp471
a(S'w'
I18
tp472
a(S'p2_du'
I2
tp473
a(S'p2_lh'
I0
tp474
a(S'p2_cv'
I0
tp475
a(S'p2_vo'
I15
tp476
a(S'p2_tl'
I95
tp477
a(S'w'
I1
tp478
a(S'p2_ll'
I24
tp479
a(S'w'
I4
tp480
a(S'p2_du'
I0
tp481
a(S'p2_lh'
I1
tp482
a(S'p2_cv'
I1
tp483
a(S'p2_vo'
I10
tp484
a(S'w'
I2
tp485
a(S'w'
I12
tp486
a(S'p1_lh'
I0
tp487
a(S'p1_cv'
I0
tp488
a(S'p1_tl'
I190
tp489
a(S'p1_ll'
I24
tp490
a(S'w'
I5
tp491
a(S'p1_lh'
I1
tp492
a(S'p1_cv'
I1
tp493
a(S'w'
I1
tp494
a(S'p1_tl'
I188
tp495
a(S'w'
I690
tp496
a(S'w'
I6
tp497
a(S'w'
I729
tp498
a(S'w'
I5
tp499
a(S'w'
I728
tp500
a(S'w'
I5
tp501
a(S'w'
I728
tp502
a(S'w'
I6
tp503
a(S'w'
I729
tp504
a(S'w'
I5
tp505
a(S'w'
I729
tp506
a(S'tr_tl'
I196
tp507
a(S'tr_ll'
I24
tp508
a(S'w'
I17
tp509
a(S'p2_du'
I2
tp510
a(S'p2_lh'
I0
tp511
a(S'p2_cv'
I0
tp512
a(S'p2_vo'
I15
tp513
a(S'w'
I1
tp514
a(S'p2_tl'
I113
tp515
a(S'p2_ll'
I24
tp516
a(S'w'
I5
tp517
a(S'p2_du'
I0
tp518
a(S'p2_lh'
I1
tp519
a(S'p2_cv'
I1
tp520
a(S'p2_vo'
I10
tp521
a(S'w'
I1
tp522
a(S'w'
I12
tp523
a(S'p1_lh'
I0
tp524
a(S'p1_cv'
I0
tp525
a(S'p1_tl'
I226
tp526
a(S'p1_ll'
I24
tp527
a(S'w'
I5
tp528
a(S'p1_lh'
I1
tp529
a(S'p1_cv'
I1
tp530
a(S'w'
I1
tp531
a(S'p1_tl'
I224
tp532
a(S'w'
I691
tp533
a(S'w'
I5
tp534
a(S'w'
I729
tp535
a(S'w'
I5
tp536
a(S'w'
I728
tp537
a(S'w'
I6
tp538
a(S'w'
I728
tp539
a(S'w'
I6
tp540
a(S'w'
I729
tp541
a(S'w'
I5
tp542
a(S'w'
I729
tp543
a(S'tr_tl'
I125
tp544
a(S'tr_ll'
I24
tp545
a(S'w'
I18
tp546
a(S'p2_du'
I2
tp547
a(S'p2_lh'
I0
tp548
a(S'p2_cv'
I0
tp549
a(S'p2_vo'
I15
tp550
a(S'p2_tl'
I95
tp551
a(S'p2_ll'
I24
tp552
a(S'w'
I5
tp553
a(S'p2_du'
I0
tp554
a(S'p2_lh'
I1
tp555
a(S'p2_cv'
I1
tp556
a(S'p2_vo'
I10
tp557
a(S'w'
I1
tp558
a(S'w'
I12
tp559
a(S'p1_lh'
I0
tp560
a(S'p1_cv'
I0
tp561
a(S'p1_tl'
I190
tp562
a(S'w'
I1
tp563
a(S'p1_ll'
I24
tp564
a(S'w'
I4
tp565
a(S'p1_lh'
I1
tp566
a(S'p1_cv'
I1
tp567
a(S'w'
I2
tp568
a(S'p1_tl'
I188
tp569
a(S'w'
I690
tp570
a(S'w'
I5
tp571
a(S'w'
I729
tp572
a(S'w'
I5
tp573
a(S'w'
I728
tp574
a(S'w'
I6
tp575
a(S'w'
I728
tp576
a(S'w'
I6
tp577
a(S'w'
I729
tp578
a(S'w'
I5
tp579
a(S'w'
I726
tp580
a(S'tr_tl'
I83
tp581
a(S'w'
I1
tp582
a(S'tr_ll'
I24
tp583
a(S'w'
I15
tp584
a(S'p2_du'
I2
tp585
a(S'p2_lh'
I0
tp586
a(S'p2_cv'
I0
tp587
a(S'p2_vo'
I15
tp588
a(S'w'
I1
tp589
a(S'p2_tl'
I84
tp590
a(S'p2_ll'
I24
tp591
a(S'w'
I4
tp592
a(S'p2_du'
I0
tp593
a(S'p2_lh'
I1
tp594
a(S'p2_cv'
I1
tp595
a(S'p2_vo'
I10
tp596
a(S'w'
I2
tp597
a(S'w'
I10
tp598
a(S'p1_lh'
I0
tp599
a(S'p1_cv'
I0
tp600
a(S'p1_tl'
I169
tp601
a(S'p1_ll'
I24
tp602
a(S'w'
I5
tp603
a(S'p1_lh'
I1
tp604
a(S'p1_cv'
I1
tp605
a(S'w'
I1
tp606
a(S'p1_tl'
I167
tp607
a(S'w'
I696
tp608
a(S'w'
I6
tp609
a(S'w'
I729
tp610
a(S'w'
I5
tp611
a(S'w'
I728
tp612
a(S'w'
I6
tp613
a(S'w'
I728
tp614
a(S'w'
I5
tp615
a(S'w'
I730
tp616
a(S'w'
I5
tp617
a(S'w'
I726
tp618
a(S'tr_tl'
I125
tp619
a(S'tr_ll'
I24
tp620
a(S'w'
I16
tp621
a(S'p2_du'
I2
tp622
a(S'p2_lh'
I0
tp623
a(S'p2_cv'
I0
tp624
a(S'p2_vo'
I15
tp625
a(S'p2_tl'
I95
tp626
a(S'w'
I1
tp627
a(S'p2_ll'
I24
tp628
a(S'w'
I4
tp629
a(S'p2_du'
I0
tp630
a(S'p2_lh'
I1
tp631
a(S'p2_cv'
I1
tp632
a(S'p2_vo'
I10
tp633
a(S'w'
I2
tp634
a(S'w'
I9
tp635
a(S'p1_lh'
I0
tp636
a(S'p1_cv'
I0
tp637
a(S'w'
I1
tp638
a(S'p1_tl'
I190
tp639
a(S'p1_ll'
I24
tp640
a(S'w'
I5
tp641
a(S'p1_lh'
I1
tp642
a(S'p1_cv'
I1
tp643
a(S'w'
I1
tp644
a(S'p1_tl'
I188
tp645
a(S'w'
I696
tp646
a(S'w'
I6
tp647
a(S'w'
I729
tp648
a(S'w'
I5
tp649
a(S'w'
I728
tp650
a(S'w'
I5
tp651
a(S'w'
I729
tp652
a(S'w'
I5
tp653
a(S'w'
I729
tp654
a(S'w'
I5
tp655
a(S'w'
I727
tp656
a(S'tr_tl'
I83
tp657
a(S'tr_ll'
I24
tp658
a(S'w'
I16
tp659
a(S'p2_du'
I2
tp660
a(S'p2_lh'
I0
tp661
a(S'p2_cv'
I0
tp662
a(S'p2_vo'
I15
tp663
a(S'p2_tl'
I84
tp664
a(S'w'
I1
tp665
a(S'p2_ll'
I24
tp666
a(S'w'
I4
tp667
a(S'p2_du'
I0
tp668
a(S'p2_lh'
I1
tp669
a(S'p2_cv'
I1
tp670
a(S'p2_vo'
I10
tp671
a(S'w'
I2
tp672
a(S'w'
I9
tp673
a(S'p1_lh'
I0
tp674
a(S'p1_cv'
I0
tp675
a(S'p1_tl'
I169
tp676
a(S'w'
I1
tp677
a(S'p1_ll'
I24
tp678
a(S'w'
I4
tp679
a(S'p1_lh'
I1
tp680
a(S'p1_cv'
I1
tp681
a(S'w'
I2
tp682
a(S'p1_tl'
I167
tp683
a(S'w'
I696
tp684
a(S'w'
I6
tp685
a(S'w'
I729
tp686
a(S'w'
I5
tp687
a(S'w'
I728
tp688
a(S'w'
I5
tp689
a(S'w'
I729
tp690
a(S'w'
I5
tp691
a(S'w'
I729
tp692
a(S'w'
I5
tp693
a(S'w'
I727
tp694
a(S'tr_tl'
I29
tp695
a(S'tr_ll'
I24
tp696
a(S'w'
I16
tp697
a(S'p2_du'
I2
tp698
a(S'p2_lh'
I0
tp699
a(S'p2_cv'
I0
tp700
a(S'p2_vo'
I15
tp701
a(S'p2_tl'
I71
tp702
a(S'p2_ll'
I24
tp703
a(S'w'
I5
tp704
a(S'p2_du'
I0
tp705
a(S'p2_lh'
I1
tp706
a(S'p2_cv'
I1
tp707
a(S'p2_vo'
I10
tp708
a(S'w'
I1
tp709
a(S'w'
I10
tp710
a(S'p1_lh'
I0
tp711
a(S'p1_cv'
I0
tp712
a(S'p1_tl'
I142
tp713
a(S'w'
I1
tp714
a(S'p1_ll'
I24
tp715
a(S'w'
I4
tp716
a(S'p1_lh'
I1
tp717
a(S'p1_cv'
I1
tp718
a(S'w'
I2
tp719
a(S'p1_tl'
I140
tp720
a(S'w'
I696
tp721
a(S'w'
I5
tp722
a(S'w'
I729
tp723
a(S'w'
I5
tp724
a(S'w'
I728
tp725
a(S'w'
I6
tp726
a(S'w'
I728
tp727
a(S'w'
I6
tp728
a(S'w'
I729
tp729
a(S'w'
I5
tp730
a(S'w'
I726
tp731
a(S'tr_tl'
I254
tp732
a(S'w'
I1
tp733
a(S'tr_ll'
I24
tp734
a(S'tr_th'
I0
tp735
a(S'w'
I16
tp736
a(S'p2_du'
I2
tp737
a(S'p2_lh'
I0
tp738
a(S'p2_cv'
I0
tp739
a(S'p2_vo'
I15
tp740
a(S'p2_tl'
I63
tp741
a(S'p2_ll'
I24
tp742
a(S'w'
I5
tp743
a(S'p2_du'
I0
tp744
a(S'p2_lh'
I1
tp745
a(S'p2_cv'
I1
tp746
a(S'p2_vo'
I10
tp747
a(S'w'
I1
tp748
a(S'w'
I10
tp749
a(S'p1_lh'
I0
tp750
a(S'p1_cv'
I0
tp751
a(S'p1_tl'
I127
tp752
a(S'p1_ll'
I24
tp753
a(S'w'
I5
tp754
a(S'p1_lh'
I1
tp755
a(S'p1_cv'
I1
tp756
a(S'w'
I1
tp757
a(S'p1_tl'
I125
tp758
a(S'w'
I697
tp759
a(S'w'
I5
tp760
a(S'w'
I729
tp761
a(S'w'
I5
tp762
a(S'w'
I728
tp763
a(S'w'
I6
tp764
a(S'w'
I728
tp765
a(S'w'
I6
tp766
a(S'w'
I729
tp767
a(S'w'
I5
tp768
a(S'w'
I726
tp769
a(S'tr_tl'
I226
tp770
a(S'w'
I1
tp771
a(S'tr_ll'
I24
tp772
a(S'w'
I15
tp773
a(S'p2_du'
I2
tp774
a(S'p2_lh'
I0
tp775
a(S'p2_cv'
I0
tp776
a(S'p2_vo'
I15
tp777
a(S'w'
I1
tp778
a(S'p2_tl'
I56
tp779
a(S'p2_ll'
I24
tp780
a(S'w'
I5
tp781
a(S'p2_du'
I0
tp782
a(S'p2_lh'
I1
tp783
a(S'p2_cv'
I1
tp784
a(S'p2_vo'
I10
tp785
a(S'w'
I1
tp786
a(S'w'
I10
tp787
a(S'p1_lh'
I0
tp788
a(S'p1_cv'
I0
tp789
a(S'p1_tl'
I113
tp790
a(S'p1_ll'
I24
tp791
a(S'w'
I5
tp792
a(S'p1_lh'
I1
tp793
a(S'p1_cv'
I1
tp794
a(S'w'
I1
tp795
a(S'p1_tl'
I111
tp796
a(S'w'
I696
tp797
a(S'w'
I6
tp798
a(S'w'
I729
tp799
a(S'w'
I5
tp800
a(S'w'
I728
tp801
a(S'w'
I6
tp802
a(S'w'
I728
tp803
a(S'w'
I5
tp804
a(S'w'
I729
tp805
a(S'w'
I6
tp806
a(S'w'
I731
tp807
a(S'tr_tl'
I190
tp808
a(S'tr_ll'
I24
tp809
a(S'w'
I21
tp810
a(S'p2_du'
I2
tp811
a(S'p2_lh'
I0
tp812
a(S'p2_cv'
I0
tp813
a(S'p2_vo'
I15
tp814
a(S'p2_tl'
I47
tp815
a(S'w'
I1
tp816
a(S'p2_ll'
I24
tp817
a(S'w'
I4
tp818
a(S'p2_du'
I0
tp819
a(S'p2_lh'
I1
tp820
a(S'p2_cv'
I1
tp821
a(S'p2_vo'
I10
tp822
a(S'w'
I2
tp823
a(S'w'
I14
tp824
a(S'p1_lh'
I0
tp825
a(S'p1_cv'
I0
tp826
a(S'w'
I1
tp827
a(S'p1_tl'
I95
tp828
a(S'p1_ll'
I24
tp829
a(S'w'
I5
tp830
a(S'p1_lh'
I1
tp831
a(S'p1_cv'
I1
tp832
a(S'w'
I1
tp833
a(S'p1_tl'
I93
tp834
a(S'w'
I681
tp835
a(S'w'
I6
tp836
a(S'w'
I729
tp837
a(S'w'
I5
tp838
a(S'w'
I728
tp839
a(S'w'
I5
tp840
a(S'w'
I729
tp841
a(S'w'
I5
tp842
a(S'w'
I729
tp843
a(S'w'
I5
tp844
a(S'w'
I722
tp845
a(S'tr_lr'
I0
tp846
a(S'w'
I6
tp847
a(S'w'
I6
tp848
a(S'w'
I728
tp849
a(S'w'
I6
tp850
a(S'w'
I729
tp851
a(S'w'
I5
tp852
a(S'w'
I728
tp853
a(S'w'
I5
tp854
a(S'w'
I728
tp855
a(S'w'
I5
tp856
a(S'w'
I731
tp857
a(S'w'
I5
tp858
a(S'w'
I727
tp859
a(S'w'
I6
tp860
a(S'w'
I727
tp861
a(S'w'
I5
tp862
a(S'w'
I731
tp863
a(S'w'
I6
tp864
a(S'w'
I727
tp865
a(S'w'
I4
tp866
a(S'p1_vo'
I9
tp867
a(S'w'
I1
tp868
a(S'w'
I727
tp869
a(S'w'
I6
tp870
a(S'w'
I731
tp871
a(S'w'
I5
tp872
a(S'w'
I727
tp873
a(S'w'
I5
tp874
a(S'w'
I728
tp875
a(S'w'
I5
tp876
a(S'w'
I731
tp877
a(S'w'
I6
tp878
a(S'w'
I726
tp879
a(S'w'
I4
tp880
a(S'p1_vo'
I8
tp881
a(S'w'
I2
tp882
a(S'w'
I727
tp883
a(S'w'
I5
tp884
a(S'w'
I732
tp885
a(S'w'
I5
tp886
a(S'w'
I727
tp887
a(S'w'
I5
tp888
a(S'w'
I728
tp889
a(S'w'
I5
tp890
a(S'w'
I731
tp891
a(S'w'
I4
tp892
a(S'p1_vo'
I7
tp893
a(S'w'
I1
tp894
a(S'w'
I727
tp895
a(S'w'
I6
tp896
a(S'w'
I727
tp897
a(S'w'
I5
tp898
a(S'w'
I731
tp899
a(S'w'
I4
tp900
a(S'p1_vo'
I6
tp901
a(S'w'
I2
tp902
a(S'w'
I727
tp903
a(S'w'
I5
tp904
a(S'w'
I727
tp905
a(S'w'
I6
tp906
a(S'w'
I731
tp907
a(S'w'
I4
tp908
a(S'p1_vo'
I5
tp909
a(S'w'
I1
tp910
a(S'w'
I727
tp911
a(S'w'
I5
tp912
a(S'w'
I728
tp913
a(S'w'
I5
tp914
a(S'w'
I731
tp915
a(S'w'
I6
tp916
a(S'w'
I726
tp917
a(S'w'
I6
tp918
a(S'w'
I727
tp919
a(S'w'
I5
tp920
a(S'w'
I732
tp921
a(S'w'
I5
tp922
a(S'w'
I727
tp923
a(S'w'
I5
tp924
a(S'w'
I728
tp925
a(S'w'
I5
tp926
a(S'w'
I731
tp927
a(S'w'
I5
tp928
a(S'w'
I727
tp929
a(S'w'
I6
tp930
a(S'w'
I727
tp931
a(S'w'
I5
tp932
a(S'w'
I731
tp933
a(S'w'
I6
tp934
a(S'w'
I727
tp935
a(S'w'
I5
tp936
a(S'w'
I727
tp937
a(S'w'
I6
tp938
a(S'w'
I731
tp939
a(S'w'
I5
tp940
a(S'w'
I727
tp941
a(S'w'
I5
tp942
a(S'w'
I728
tp943
a(S'w'
I4
tp944
a(S'p1_vo'
I4
tp945
a(S'w'
I1
tp946
a(S'w'
I731
tp947
a(S'w'
I6
tp948
a(S'w'
I726
tp949
a(S'w'
I6
tp950
a(S'w'
I727
tp951
a(S'w'
I4
tp952
a(S'p1_vo'
I3
tp953
a(S'w'
I1
tp954
a(S'w'
I732
tp955
a(S'w'
I5
tp956
a(S'w'
I727
tp957
a(S'w'
I5
tp958
a(S'w'
I728
tp959
a(S'w'
I3
tp960
a(S'p1_vo'
I2
tp961
a(S'w'
I2
tp962
a(S'w'
I731
tp963
a(S'w'
I6
tp964
a(S'w'
I726
tp965
a(S'w'
I6
tp966
a(S'w'
I727
tp967
a(S'w'
I4
tp968
a(S'p1_vo'
I1
tp969
a(S'w'
I1
tp970
a(S'w'
I731
tp971
a(S'w'
I6
tp972
a(S'w'
I727
tp973
a(S'w'
I5
tp974
a(S'w'
I727
tp975
a(S'w'
I6
tp976
a(S'w'
I731
tp977
a(S'w'
I5
tp978
a(S'w'
I726
tp979
a(S'p2_vo'
I0
tp980
a(S'w'
I1
tp981
a(S'w'
I4
tp982
a(S'p1_vo'
I0
tp983
a(S'w'
I2
tp984
a(S'w'
I24231
tp985
a(S'ch_no'
I0
tp986
a(S'ch_tr'
I0
tp987
a(S'ch_p2'
I1
tp988
a(S'ch_p1'
I1
tp989
a.