(lp1
(S'clock'
p2
I1789772
tp3
a(S'p1_du'
I2
tp4
a(S'p1_lh'
I1
tp5
a(S'p1_cv'
I1
tp6
a(S'p1_sn'
I1
tp7
a(S'ch_no'
I0
tp8
a(S'ch_tr'
I1
tp9
a(S'ch_p2'
I1
tp10
a(S'ch_p1'
I1
tp11
a(S'p1_tl'
I239
tp12
a(S'p1_ll'
I1
tp13
a(S'p2_du'
I2
tp14
a(S'p2_lh'
I1
tp15
a(S'p2_cv'
I1
tp16
a(S'p2_sn'
I1
tp17
a(S'p2_tl'
I46
tp18
a(S'p2_ll'
I1
tp19
a(S'tr_lh'
I1
tp20
a(S'tr_tl'
I239
tp21
a(S'tr_ll'
I1
tp22
a(S'p2_tl'
I64
tp23
a(S'w'
I28
tp24
a(S'p2_tl'
I65
tp25
a(S'w'
I2
tp26
a(S'p2_vo'
I10
tp27
a(S'w'
I88
tp28
a(S'p2_vo'
I0
tp29
a(S'w'
I109
tp30
a(S'p2_tl'
I67
tp31
a(S'w'
I3
tp32
a(S'p2_vo'
I10
tp33
a(S'w'
I427
tp34
a(S'p2_vo'
I0
tp35
a(S'w'
I28
tp36
a(S'p2_tl'
I70
tp37
a(S'w'
I3
tp38
a(S'p2_vo'
I10
tp39
a(S'w'
I29
tp40
a(S'p2_vo'
I0
tp41
a(S'w'
I26
tp42
a(S'p2_tl'
I74
tp43
a(S'w'
I2
tp44
a(S'p2_vo'
I10
tp45
a(S'w'
I89
tp46
a(S'p2_vo'
I0
tp47
a(S'w'
I109
tp48
a(S'p2_tl'
I79
tp49
a(S'w'
I3
tp50
a(S'p2_vo'
I10
tp51
a(S'w'
I444
tp52
a(S'p2_vo'
I0
tp53
a(S'w'
I29
tp54
a(S'p2_tl'
I85
tp55
a(S'w'
I3
tp56
a(S'p2_vo'
I10
tp57
a(S'w'
I37
tp58
a(S'p2_vo'
I0
tp59
a(S'w'
I25
tp60
a(S'p2_tl'
I92
tp61
a(S'w'
I3
tp62
a(S'p2_vo'
I10
tp63
a(S'w'
I87
tp64
a(S'p2_vo'
I0
tp65
a(S'w'
I110
tp66
a(S'p2_tl'
I100
tp67
a(S'w'
I2
tp68
a(S'p2_vo'
I10
tp69
a(S'w'
I438
tp70
a(S'p2_vo'
I0
tp71
a(S'w'
I30
tp72
a(S'p2_tl'
I109
tp73
a(S'w'
I2
tp74
a(S'p2_vo'
I10
tp75
a(S'w'
I30
tp76
a(S'p2_vo'
I0
tp77
a(S'w'
I25
tp78
a(S'p2_tl'
I119
tp79
a(S'w'
I2
tp80
a(S'p2_vo'
I10
tp81
a(S'w'
I88
tp82
a(S'p2_vo'
I0
tp83
a(S'w'
I109
tp84
a(S'p2_tl'
I130
tp85
a(S'w'
I2
tp86
a(S'p2_vo'
I10
tp87
a(S'w'
I446
tp88
a(S'p2_vo'
I0
tp89
a(S'w'
I29
tp90
a(S'p2_tl'
I142
tp91
a(S'w'
I2
tp92
a(S'p2_vo'
I10
tp93
a(S'w'
I30
tp94
a(S'p2_vo'
I0
tp95
a(S'w'
I25
tp96
a(S'p2_tl'
I155
tp97
a(S'w'
I2
tp98
a(S'p2_vo'
I10
tp99
a(S'w'
I89
tp100
a(S'p2_vo'
I0
tp101
a(S'w'
I110
tp102
a(S'p2_tl'
I169
tp103
a(S'w'
I2
tp104
a(S'p2_vo'
I10
tp105
a(S'w'
I445
tp106
a(S'p2_vo'
I0
tp107
a(S'w'
I29
tp108
a(S'p2_tl'
I184
tp109
a(S'w'
I2
tp110
a(S'p2_vo'
I10
tp111
a(S'w'
I38
tp112
a(S'p2_vo'
I0
tp113
a(S'w'
I25
tp114
a(S'p2_tl'
I200
tp115
a(S'w'
I2
tp116
a(S'p2_vo'
I10
tp117
a(S'w'
I190
tp118
a(S'p2_vo'
I0
tp119
a(S'w'
I492
tp120
a(S'tr_lr'
I1
tp121
a(S'w'
I3009
tp122
a(S'p1_tl'
I63
tp123
a(S'w'
I2
tp124
a(S'p1_vo'
I7
tp125
a(S'w'
I42
tp126
a(S'tr_lr'
I0
tp127
a(S'w'
I599
tp128
a(S'p1_vo'
I6
tp129
a(S'w'
I981
tp130
a(S'p1_vo'
I5
tp131
a(S'w'
I636
tp132
a(S'p1_tl'
I71
tp133
a(S'w'
I2
tp134
a(S'p1_vo'
I7
tp135
a(S'w'
I652
tp136
a(S'p1_vo'
I6
tp137
a(S'w'
I1398
tp138
a(S'p1_vo'
I5
tp139
a(S'w'
I704
tp140
a(S'p1_tl'
I80
tp141
a(S'w'
I3
tp142
a(S'p1_vo'
I7
tp143
a(S'w'
I290
tp144
a(S'p1_vo'
I6
tp145
a(S'w'
I1266
tp146
a(S'p1_vo'
I5
tp147
a(S'w'
I716
tp148
a(S'p1_tl'
I89
tp149
a(S'w'
I3
tp150
a(S'p1_vo'
I7
tp151
a(S'w'
I687
tp152
a(S'p1_vo'
I6
tp153
a(S'w'
I993
tp154
a(S'p1_vo'
I5
tp155
a(S'w'
I626
tp156
a(S'p1_tl'
I95
tp157
a(S'w'
I2
tp158
a(S'p1_vo'
I7
tp159
a(S'w'
I642
tp160
a(S'p1_vo'
I6
tp161
a(S'w'
I1406
tp162
a(S'p1_vo'
I5
tp163
a(S'w'
I705
tp164
a(S'p1_tl'
I106
tp165
a(S'w'
I2
tp166
a(S'p1_vo'
I7
tp167
a(S'w'
I292
tp168
a(S'p1_vo'
I6
tp169
a(S'w'
I1272
tp170
a(S'p1_vo'
I5
tp171
a(S'w'
I700
tp172
a(S'p1_tl'
I119
tp173
a(S'w'
I2
tp174
a(S'p1_vo'
I7
tp175
a(S'w'
I696
tp176
a(S'p1_vo'
I6
tp177
a(S'w'
I997
tp178
a(S'p1_vo'
I5
tp179
a(S'w'
I619
tp180
a(S'p1_tl'
I127
tp181
a(S'w'
I3
tp182
a(S'p1_vo'
I7
tp183
a(S'w'
I644
tp184
a(S'p1_vo'
I6
tp185
a(S'w'
I1406
tp186
a(S'p1_vo'
I5
tp187
a(S'w'
I704
tp188
a(S'p1_tl'
I142
tp189
a(S'w'
I3
tp190
a(S'p1_vo'
I7
tp191
a(S'w'
I295
tp192
a(S'p1_vo'
I6
tp193
a(S'w'
I1259
tp194
a(S'p1_vo'
I5
tp195
a(S'w'
I711
tp196
a(S'p1_tl'
I160
tp197
a(S'w'
I3
tp198
a(S'p1_vo'
I7
tp199
a(S'w'
I694
tp200
a(S'p1_vo'
I6
tp201
a(S'w'
I991
tp202
a(S'p1_vo'
I5
tp203
a(S'w'
I629
tp204
a(S'p1_tl'
I179
tp205
a(S'w'
I2
tp206
a(S'p1_vo'
I7
tp207
a(S'w'
I650
tp208
a(S'p1_vo'
I6
tp209
a(S'w'
I1397
tp210
a(S'p1_vo'
I5
tp211
a(S'w'
I705
tp212
a(S'p1_tl'
I190
tp213
a(S'w'
I2
tp214
a(S'p1_vo'
I7
tp215
a(S'w'
I303
tp216
a(S'p1_vo'
I6
tp217
a(S'w'
I1256
tp218
a(S'p1_vo'
I5
tp219
a(S'w'
I714
tp220
a(S'p1_tl'
I213
tp221
a(S'w'
I2
tp222
a(S'p1_vo'
I7
tp223
a(S'w'
I687
tp224
a(S'p1_vo'
I6
tp225
a(S'w'
I991
tp226
a(S'p1_vo'
I5
tp227
a(S'w'
I637
tp228
a(S'p1_tl'
I239
tp229
a(S'w'
I2
tp230
a(S'p1_vo'
I7
tp231
a(S'w'
I646
tp232
a(S'p1_vo'
I6
tp233
a(S'w'
I1393
tp234
a(S'p1_vo'
I5
tp235
a(S'w'
I705
tp236
a(S'p1_tl'
I254
tp237
a(S'w'
I2
tp238
a(S'p1_vo'
I7
tp239
a(S'w'
I295
tp240
a(S'p1_vo'
I6
tp241
a(S'w'
I1273
tp242
a(S'p1_vo'
I5
tp243
a(S'w'
I697
tp244
a(S'p1_tl'
I29
tp245
a(S'w'
I1
tp246
a(S'p1_ll'
I1
tp247
a(S'p1_th'
I1
tp248
a(S'w'
I2
tp249
a(S'p1_vo'
I7
tp250
a(S'w'
I694
tp251
a(S'p1_vo'
I6
tp252
a(S'w'
I999
tp253
a(S'p1_vo'
I5
tp254
a(S'w'
I621
tp255
a(S'p1_tl'
I64
tp256
a(S'w'
I2
tp257
a(S'p1_vo'
I7
tp258
a(S'w'
I642
tp259
a(S'p1_vo'
I6
tp260
a(S'w'
I1405
tp261
a(S'p1_vo'
I5
tp262
a(S'w'
I709
tp263
a(S'p1_tl'
I103
tp264
a(S'w'
I2
tp265
a(S'p1_vo'
I7
tp266
a(S'w'
I295
tp267
a(S'p1_vo'
I6
tp268
a(S'w'
I1261
tp269
a(S'p1_vo'
I5
tp270
a(S'w'
I705
tp271
a(S'p1_tl'
I124
tp272
a(S'w'
I2
tp273
a(S'p1_vo'
I7
tp274
a(S'w'
I689
tp275
a(S'p1_vo'
I6
tp276
a(S'w'
I997
tp277
a(S'p1_vo'
I5
tp278
a(S'w'
I637
tp279
a(S'p1_tl'
I171
tp280
a(S'w'
I3
tp281
a(S'p1_vo'
I7
tp282
a(S'w'
I643
tp283
a(S'p1_vo'
I6
tp284
a(S'w'
I1395
tp285
a(S'p1_vo'
I5
tp286
a(S'w'
I705
tp287
a(S'p1_tl'
I223
tp288
a(S'w'
I2
tp289
a(S'p1_vo'
I7
tp290
a(S'w'
I316
tp291
a(S'p1_vo'
I6
tp292
a(S'w'
I1245
tp293
a(S'p1_vo'
I5
tp294
a(S'w'
I714
tp295
a(S'p1_tl'
I252
tp296
a(S'w'
I2
tp297
a(S'p1_vo'
I7
tp298
a(S'w'
I685
tp299
a(S'p1_vo'
I6
tp300
a(S'w'
I1004
tp301
a(S'p1_vo'
I5
tp302
a(S'w'
I626
tp303
a(S'p1_tl'
I58
tp304
a(S'p1_ll'
I1
tp305
a(S'p1_th'
I2
tp306
a(S'w'
I2
tp307
a(S'p1_vo'
I7
tp308
a(S'w'
I634
tp309
a(S'p1_vo'
I6
tp310
a(S'w'
I1403
tp311
a(S'p1_vo'
I5
tp312
a(S'w'
I699
tp313
a(S'p1_tl'
I128
tp314
a(S'w'
I2
tp315
a(S'p1_vo'
I7
tp316
a(S'w'
I308
tp317
a(S'p1_vo'
I6
tp318
a(S'w'
I1268
tp319
a(S'p1_vo'
I5
tp320
a(S'w'
I670
tp321
a(S'p2_vo'
I12
tp322
a(S'w'
I3
tp323
a(S'p2_tl'
I128
tp324
a(S'w'
I29
tp325
a(S'p1_tl'
I207
tp326
a(S'w'
I2
tp327
a(S'p1_vo'
I7
tp328
a(S'w'
I11
tp329
a(S'p2_tl'
I129
tp330
a(S'w'
I28
tp331
a(S'p2_tl'
I131
tp332
a(S'w'
I81
tp333
a(S'p2_tl'
I134
tp334
a(S'w'
I121
tp335
a(S'p2_tl'
I138
tp336
a(S'w'
I422
tp337
a(S'p2_tl'
I143
tp338
a(S'w'
I23
tp339
a(S'p1_vo'
I6
tp340
a(S'w'
I11
tp341
a(S'p2_tl'
I149
tp342
a(S'w'
I36
tp343
a(S'p2_tl'
I156
tp344
a(S'w'
I28
tp345
a(S'p2_tl'
I164
tp346
a(S'w'
I81
tp347
a(S'p2_tl'
I173
tp348
a(S'w'
I121
tp349
a(S'p2_tl'
I183
tp350
a(S'w'
I434
tp351
a(S'p2_tl'
I194
tp352
a(S'w'
I32
tp353
a(S'p2_tl'
I206
tp354
a(S'w'
I41
tp355
a(S'p2_tl'
I219
tp356
a(S'w'
I28
tp357
a(S'p2_tl'
I233
tp358
a(S'w'
I81
tp359
a(S'p2_tl'
I248
tp360
a(S'w'
I112
tp361
a(S'p1_vo'
I5
tp362
a(S'w'
I11
tp363
a(S'p2_tl'
I8
tp364
a(S'w'
I1
tp365
a(S'p2_ll'
I1
tp366
a(S'p2_th'
I1
tp367
a(S'w'
I428
tp368
a(S'p2_tl'
I25
tp369
a(S'w'
I31
tp370
a(S'p2_tl'
I43
tp371
a(S'w'
I36
tp372
a(S'p2_tl'
I62
tp373
a(S'w'
I28
tp374
a(S'p2_tl'
I82
tp375
a(S'w'
I77
tp376
a(S'p1_tl'
I249
tp377
a(S'w'
I2
tp378
a(S'p1_vo'
I7
tp379
a(S'w'
I11
tp380
a(S'p2_tl'
I103
tp381
a(S'w'
I121
tp382
a(S'p2_tl'
I125
tp383
a(S'w'
I428
tp384
a(S'p2_tl'
I148
tp385
a(S'w'
I31
tp386
a(S'p2_tl'
I172
tp387
a(S'w'
I33
tp388
a(S'p2_tl'
I197
tp389
a(S'w'
I19
tp390
a(S'p1_vo'
I6
tp391
a(S'w'
I11
tp392
a(S'p2_tl'
I223
tp393
a(S'w'
I82
tp394
a(S'p2_tl'
I250
tp395
a(S'w'
I121
tp396
a(S'p2_tl'
I22
tp397
a(S'p2_ll'
I1
tp398
a(S'p2_th'
I2
tp399
a(S'w'
I436
tp400
a(S'p2_tl'
I51
tp401
a(S'w'
I32
tp402
a(S'p2_tl'
I81
tp403
a(S'w'
I44
tp404
a(S'p2_tl'
I112
tp405
a(S'w'
I28
tp406
a(S'p2_tl'
I144
tp407
a(S'w'
I82
tp408
a(S'p2_tl'
I177
tp409
a(S'w'
I120
tp410
a(S'p2_tl'
I211
tp411
a(S'w'
I428
tp412
a(S'p2_tl'
I246
tp413
a(S'w'
I23
tp414
a(S'p1_vo'
I5
tp415
a(S'w'
I11
tp416
a(S'p2_tl'
I26
tp417
a(S'p2_ll'
I1
tp418
a(S'p2_th'
I3
tp419
a(S'w'
I33
tp420
a(S'p2_tl'
I63
tp421
a(S'w'
I28
tp422
a(S'p2_tl'
I101
tp423
a(S'w'
I82
tp424
a(S'p2_tl'
I140
tp425
a(S'w'
I120
tp426
a(S'p2_tl'
I180
tp427
a(S'w'
I433
tp428
a(S'p1_tl'
I87
tp429
a(S'p1_ll'
I1
tp430
a(S'p1_th'
I3
tp431
a(S'w'
I2
tp432
a(S'p1_vo'
I7
tp433
a(S'w'
I11
tp434
a(S'p2_tl'
I221
tp435
a(S'w'
I31
tp436
a(S'p2_tl'
I7
tp437
a(S'w'
I1
tp438
a(S'p2_ll'
I1
tp439
a(S'p2_th'
I4
tp440
a(S'w'
I35
tp441
a(S'p2_tl'
I50
tp442
a(S'w'
I28
tp443
a(S'p2_tl'
I94
tp444
a(S'w'
I82
tp445
a(S'p2_tl'
I139
tp446
a(S'w'
I112
tp447
a(S'p1_vo'
I6
tp448
a(S'w'
I11
tp449
a(S'p2_tl'
I185
tp450
a(S'w'
I425
tp451
a(S'p2_tl'
I232
tp452
a(S'w'
I31
tp453
a(S'p2_tl'
I24
tp454
a(S'p2_ll'
I1
tp455
a(S'p2_th'
I5
tp456
a(S'w'
I41
tp457
a(S'p2_tl'
I73
tp458
a(S'w'
I28
tp459
a(S'p2_tl'
I123
tp460
a(S'w'
I82
tp461
a(S'p2_tl'
I174
tp462
a(S'w'
I121
tp463
a(S'p2_tl'
I226
tp464
a(S'w'
I431
tp465
a(S'p2_tl'
I23
tp466
a(S'p2_ll'
I1
tp467
a(S'p2_th'
I6
tp468
a(S'w'
I31
tp469
a(S'p2_tl'
I77
tp470
a(S'w'
I36
tp471
a(S'p2_tl'
I132
tp472
a(S'w'
I20
tp473
a(S'p1_vo'
I5
tp474
a(S'w'
I11
tp475
a(S'p2_tl'
I188
tp476
a(S'w'
I81
tp477
a(S'p2_tl'
I245
tp478
a(S'w'
I121
tp479
a(S'p2_tl'
I47
tp480
a(S'p2_ll'
I1
tp481
a(S'p2_th'
I7
tp482
a(S'w'
I433
tp483
a(S'p2_tl'
I106
tp484
a(S'w'
I32
tp485
a(S'p2_tl'
I166
tp486
a(S'w'
I28
tp487
a(S'p1_tl'
I191
tp488
a(S'w'
I3
tp489
a(S'p1_vo'
I7
tp490
a(S'w'
I11
tp491
a(S'p2_tl'
I227
tp492
a(S'w'
I27
tp493
a(S'p2_vo'
I8
tp494
a(S'w'
I2
tp495
a(S'p2_tl'
I128
tp496
a(S'p2_ll'
I1
tp497
a(S'p2_th'
I0
tp498
a(S'w'
I82
tp499
a(S'p2_tl'
I129
tp500
a(S'w'
I120
tp501
a(S'p2_tl'
I131
tp502
a(S'w'
I429
tp503
a(S'p2_tl'
I134
tp504
a(S'w'
I23
tp505
a(S'p1_vo'
I6
tp506
a(S'w'
I11
tp507
a(S'p2_tl'
I138
tp508
a(S'w'
I44
tp509
a(S'p2_tl'
I143
tp510
a(S'w'
I28
tp511
a(S'p2_tl'
I149
tp512
a(S'w'
I81
tp513
a(S'p2_tl'
I156
tp514
a(S'w'
I121
tp515
a(S'p2_tl'
I164
tp516
a(S'w'
I426
tp517
a(S'p2_tl'
I173
tp518
a(S'w'
I32
tp519
a(S'p2_tl'
I183
tp520
a(S'w'
I33
tp521
a(S'p2_tl'
I194
tp522
a(S'w'
I40
tp523
a(S'p2_tl'
I206
tp524
a(S'w'
I81
tp525
a(S'p2_tl'
I219
tp526
a(S'w'
I112
tp527
a(S'p1_vo'
I5
tp528
a(S'w'
I11
tp529
a(S'p2_tl'
I233
tp530
a(S'w'
I419
tp531
a(S'p2_tl'
I248
tp532
a(S'w'
I31
tp533
a(S'p2_tl'
I8
tp534
a(S'w'
I1
tp535
a(S'p2_ll'
I1
tp536
a(S'p2_th'
I1
tp537
a(S'w'
I35
tp538
a(S'p2_tl'
I25
tp539
a(S'w'
I28
tp540
a(S'p2_tl'
I43
tp541
a(S'w'
I77
tp542
a(S'p1_tl'
I248
tp543
a(S'w'
I3
tp544
a(S'p1_vo'
I7
tp545
a(S'w'
I11
tp546
a(S'p2_tl'
I62
tp547
a(S'w'
I120
tp548
a(S'p2_tl'
I82
tp549
a(S'w'
I434
tp550
a(S'p2_tl'
I103
tp551
a(S'w'
I31
tp552
a(S'p2_tl'
I125
tp553
a(S'w'
I41
tp554
a(S'p2_tl'
I148
tp555
a(S'w'
I20
tp556
a(S'p1_vo'
I6
tp557
a(S'w'
I11
tp558
a(S'p2_tl'
I172
tp559
a(S'w'
I81
tp560
a(S'p2_tl'
I197
tp561
a(S'w'
I130
tp562
a(S'p2_tl'
I223
tp563
a(S'w'
I419
tp564
a(S'p2_tl'
I250
tp565
a(S'w'
I32
tp566
a(S'p2_tl'
I22
tp567
a(S'p2_ll'
I1
tp568
a(S'p2_th'
I2
tp569
a(S'w'
I35
tp570
a(S'p2_tl'
I51
tp571
a(S'w'
I28
tp572
a(S'p2_tl'
I81
tp573
a(S'w'
I82
tp574
a(S'p2_tl'
I112
tp575
a(S'w'
I129
tp576
a(S'p2_tl'
I144
tp577
a(S'w'
I428
tp578
a(S'p2_tl'
I177
tp579
a(S'w'
I23
tp580
a(S'p1_vo'
I5
tp581
a(S'w'
I11
tp582
a(S'p2_tl'
I211
tp583
a(S'w'
I32
tp584
a(S'p2_tl'
I246
tp585
a(S'w'
I28
tp586
a(S'p2_tl'
I26
tp587
a(S'w'
I1
tp588
a(S'p2_ll'
I1
tp589
a(S'p2_th'
I3
tp590
a(S'w'
I81
tp591
a(S'p2_tl'
I63
tp592
a(S'w'
I130
tp593
a(S'p2_tl'
I101
tp594
a(S'w'
I424
tp595
a(S'p1_tl'
I117
tp596
a(S'p1_ll'
I1
tp597
a(S'p1_th'
I4
tp598
a(S'w'
I2
tp599
a(S'p1_vo'
I7
tp600
a(S'w'
I11
tp601
a(S'p2_tl'
I140
tp602
a(S'w'
I31
tp603
a(S'p2_tl'
I180
tp604
a(S'w'
I43
tp605
a(S'p2_tl'
I221
tp606
a(S'w'
I28
tp607
a(S'p2_tl'
I7
tp608
a(S'w'
I1
tp609
a(S'p2_ll'
I1
tp610
a(S'p2_th'
I4
tp611
a(S'w'
I81
tp612
a(S'p2_tl'
I50
tp613
a(S'w'
I121
tp614
a(S'p1_vo'
I6
tp615
a(S'w'
I11
tp616
a(S'p2_tl'
I94
tp617
a(S'w'
I409
tp618
a(S'p2_tl'
I139
tp619
a(S'w'
I31
tp620
a(S'p2_tl'
I185
tp621
a(S'w'
I33
tp622
a(S'p2_tl'
I232
tp623
a(S'w'
I28
tp624
a(S'p2_tl'
I24
tp625
a(S'p2_ll'
I1
tp626
a(S'p2_th'
I5
tp627
a(S'w'
I82
tp628
a(S'p2_tl'
I73
tp629
a(S'w'
I129
tp630
a(S'p2_tl'
I123
tp631
a(S'w'
I431
tp632
a(S'p2_tl'
I174
tp633
a(S'w'
I31
tp634
a(S'p2_tl'
I226
tp635
a(S'w'
I35
tp636
a(S'p2_tl'
I23
tp637
a(S'p2_ll'
I1
tp638
a(S'p2_th'
I6
tp639
a(S'w'
I19
tp640
a(S'p1_vo'
I5
tp641
a(S'w'
I11
tp642
a(S'p2_tl'
I77
tp643
a(S'w'
I82
tp644
a(S'p2_tl'
I132
tp645
a(S'w'
I129
tp646
a(S'p2_tl'
I188
tp647
a(S'w'
I427
tp648
a(S'p2_tl'
I245
tp649
a(S'w'
I31
tp650
a(S'p2_tl'
I47
tp651
a(S'p2_ll'
I1
tp652
a(S'p2_th'
I7
tp653
a(S'w'
I36
tp654
a(S'p1_tl'
I1
tp655
a(S'p1_ll'
I1
tp656
a(S'p1_th'
I5
tp657
a(S'w'
I2
tp658
a(S'p1_vo'
I7
tp659
a(S'w'
I11
tp660
a(S'p2_tl'
I106
tp661
a(S'w'
I28
tp662
a(S'p2_tl'
I166
tp663
a(S'w'
I82
tp664
a(S'p2_tl'
I227
tp665
a(S'w'
I129
tp666
a(S'p2_vo'
I4
tp667
a(S'w'
I2
tp668
a(S'p2_tl'
I128
tp669
a(S'p2_ll'
I1
tp670
a(S'p2_th'
I0
tp671
a(S'w'
I412
tp672
a(S'p2_tl'
I129
tp673
a(S'w'
I23
tp674
a(S'p1_vo'
I6
tp675
a(S'w'
I11
tp676
a(S'p2_tl'
I131
tp677
a(S'w'
I35
tp678
a(S'p2_tl'
I134
tp679
a(S'w'
I28
tp680
a(S'p2_tl'
I138
tp681
a(S'w'
I82
tp682
a(S'p2_tl'
I143
tp683
a(S'w'
I129
tp684
a(S'p2_tl'
I149
tp685
a(S'w'
I426
tp686
a(S'p2_tl'
I156
tp687
a(S'w'
I32
tp688
a(S'p2_tl'
I164
tp689
a(S'w'
I32
tp690
a(S'p2_tl'
I173
tp691
a(S'w'
I28
tp692
a(S'p2_tl'
I183
tp693
a(S'w'
I82
tp694
a(S'p2_tl'
I194
tp695
a(S'w'
I121
tp696
a(S'p1_vo'
I5
tp697
a(S'w'
I11
tp698
a(S'p2_tl'
I206
tp699
a(S'w'
I428
tp700
a(S'p2_tl'
I219
tp701
a(S'w'
I31
tp702
a(S'p2_tl'
I233
tp703
a(S'w'
I43
tp704
a(S'p2_tl'
I248
tp705
a(S'w'
I28
tp706
a(S'p2_tl'
I8
tp707
a(S'p2_ll'
I1
tp708
a(S'p2_th'
I1
tp709
a(S'w'
I77
tp710
a(S'p1_tl'
I158
tp711
a(S'w'
I2
tp712
a(S'p1_vo'
I7
tp713
a(S'w'
I11
tp714
a(S'p2_tl'
I25
tp715
a(S'w'
I130
tp716
a(S'p2_tl'
I43
tp717
a(S'w'
I412
tp718
a(S'p2_tl'
I62
tp719
a(S'w'
I31
tp720
a(S'p2_tl'
I82
tp721
a(S'w'
I33
tp722
a(S'p2_tl'
I103
tp723
a(S'w'
I19
tp724
a(S'p1_vo'
I6
tp725
a(S'w'
I11
tp726
a(S'p2_tl'
I125
tp727
a(S'w'
I81
tp728
a(S'p2_tl'
I148
tp729
a(S'w'
I130
tp730
a(S'p2_tl'
I172
tp731
a(S'w'
I429
tp732
a(S'p2_tl'
I197
tp733
a(S'w'
I31
tp734
a(S'p2_tl'
I223
tp735
a(S'w'
I35
tp736
a(S'p2_tl'
I250
tp737
a(S'w'
I28
tp738
a(S'p2_tl'
I22
tp739
a(S'w'
I1
tp740
a(S'p2_ll'
I1
tp741
a(S'p2_th'
I2
tp742
a(S'w'
I81
tp743
a(S'p2_tl'
I51
tp744
a(S'w'
I130
tp745
a(S'p2_tl'
I81
tp746
a(S'w'
I427
tp747
a(S'p2_tl'
I112
tp748
a(S'w'
I23
tp749
a(S'p1_vo'
I5
tp750
a(S'w'
I11
tp751
a(S'p2_tl'
I144
tp752
a(S'w'
I42
tp753
a(S'p2_tl'
I177
tp754
a(S'w'
I28
tp755
a(S'p2_tl'
I211
tp756
a(S'w'
I81
tp757
a(S'p2_tl'
I246
tp758
a(S'w'
I130
tp759
a(S'p2_tl'
I26
tp760
a(S'p2_ll'
I1
tp761
a(S'p2_th'
I3
tp762
a(S'w'
I415
tp763
a(S'p1_tl'
I243
tp764
a(S'w'
I2
tp765
a(S'p1_vo'
I7
tp766
a(S'w'
I11
tp767
a(S'p2_tl'
I63
tp768
a(S'w'
I31
tp769
a(S'p2_tl'
I101
tp770
a(S'w'
I38
tp771
a(S'p2_tl'
I140
tp772
a(S'w'
I28
tp773
a(S'p2_tl'
I180
tp774
a(S'w'
I82
tp775
a(S'p2_tl'
I221
tp776
a(S'w'
I121
tp777
a(S'p1_vo'
I6
tp778
a(S'w'
I11
tp779
a(S'p2_tl'
I7
tp780
a(S'p2_ll'
I1
tp781
a(S'p2_th'
I4
tp782
a(S'w'
I414
tp783
a(S'p2_tl'
I50
tp784
a(S'w'
I31
tp785
a(S'p2_tl'
I94
tp786
a(S'w'
I34
tp787
a(S'p2_tl'
I139
tp788
a(S'w'
I40
tp789
a(S'p2_tl'
I185
tp790
a(S'w'
I82
tp791
a(S'p2_tl'
I232
tp792
a(S'w'
I130
tp793
a(S'p2_tl'
I24
tp794
a(S'p2_ll'
I1
tp795
a(S'p2_th'
I5
tp796
a(S'w'
I411
tp797
a(S'p2_tl'
I73
tp798
a(S'w'
I31
tp799
a(S'p2_tl'
I123
tp800
a(S'w'
I46
tp801
a(S'p2_tl'
I174
tp802
a(S'w'
I20
tp803
a(S'p1_vo'
I5
tp804
a(S'w'
I10
tp805
a(S'p2_tl'
I226
tp806
a(S'w'
I82
tp807
a(S'p2_tl'
I23
tp808
a(S'p2_ll'
I1
tp809
a(S'p2_th'
I6
tp810
a(S'w'
I130
tp811
a(S'p2_tl'
I77
tp812
a(S'w'
I420
tp813
a(S'p2_tl'
I132
tp814
a(S'w'
I32
tp815
a(S'p2_tl'
I188
tp816
a(S'w'
I29
tp817
a(S'p1_tl'
I174
tp818
a(S'w'
I1
tp819
a(S'p1_ll'
I1
tp820
a(S'p1_th'
I6
tp821
a(S'w'
I2
tp822
a(S'p1_vo'
I7
tp823
a(S'w'
I11
tp824
a(S'p2_tl'
I245
tp825
a(S'w'
I28
tp826
a(S'p2_tl'
I47
tp827
a(S'p2_ll'
I1
tp828
a(S'p2_th'
I7
tp829
a(S'w'
I81
tp830
a(S'p2_tl'
I106
tp831
a(S'w'
I130
tp832
a(S'p2_tl'
I166
tp833
a(S'w'
I420
tp834
a(S'p2_tl'
I227
tp835
a(S'w'
I23
tp836
a(S'p1_vo'
I6
tp837
a(S'w'
I10
tp838
a(S'p2_vo'
I1
tp839
a(S'w'
I2
tp840
a(S'p2_tl'
I128
tp841
a(S'w'
I1
tp842
a(S'p2_ll'
I1
tp843
a(S'p2_th'
I0
tp844
a(S'w'
I38
tp845
a(S'p2_tl'
I129
tp846
a(S'w'
I28
tp847
a(S'p2_tl'
I131
tp848
a(S'w'
I81
tp849
a(S'p2_tl'
I134
tp850
a(S'w'
I130
tp851
a(S'p2_tl'
I138
tp852
a(S'w'
I421
tp853
a(S'p2_tl'
I143
tp854
a(S'w'
I32
tp855
a(S'p2_tl'
I149
tp856
a(S'w'
I42
tp857
a(S'p2_tl'
I156
tp858
a(S'w'
I27
tp859
a(S'p2_tl'
I164
tp860
a(S'w'
I82
tp861
a(S'p2_tl'
I173
tp862
a(S'w'
I121
tp863
a(S'p1_vo'
I5
tp864
a(S'w'
I11
tp865
a(S'p2_tl'
I183
tp866
a(S'w'
I419
tp867
a(S'p2_tl'
I194
tp868
a(S'w'
I31
tp869
a(S'p2_tl'
I206
tp870
a(S'w'
I38
tp871
a(S'p2_tl'
I219
tp872
a(S'w'
I28
tp873
a(S'p2_tl'
I233
tp874
a(S'w'
I77
tp875
a(S'p1_tl'
I126
tp876
a(S'w'
I1
tp877
a(S'p1_ll'
I1
tp878
a(S'p1_th'
I7
tp879
a(S'w'
I2
tp880
a(S'p1_vo'
I7
tp881
a(S'w'
I11
tp882
a(S'p2_tl'
I248
tp883
a(S'w'
I129
tp884
a(S'p2_tl'
I8
tp885
a(S'w'
I1
tp886
a(S'p2_ll'
I1
tp887
a(S'p2_th'
I1
tp888
a(S'w'
I416
tp889
a(S'p2_tl'
I25
tp890
a(S'w'
I31
tp891
a(S'p2_tl'
I43
tp892
a(S'w'
I34
tp893
a(S'p2_tl'
I62
tp894
a(S'w'
I19
tp895
a(S'p1_vo'
I6
tp896
a(S'w'
I11
tp897
a(S'p2_tl'
I82
tp898
a(S'w'
I82
tp899
a(S'p2_tl'
I103
tp900
a(S'w'
I129
tp901
a(S'p2_tl'
I125
tp902
a(S'w'
I427
tp903
a(S'p2_tl'
I148
tp904
a(S'w'
I32
tp905
a(S'p2_tl'
I172
tp906
a(S'w'
I46
tp907
a(S'p2_tl'
I197
tp908
a(S'w'
I28
tp909
a(S'p2_tl'
I223
tp910
a(S'w'
I82
tp911
a(S'p2_tl'
I250
tp912
a(S'w'
I129
tp913
a(S'p2_tl'
I22
tp914
a(S'w'
I1
tp915
a(S'p2_ll'
I1
tp916
a(S'p2_th'
I2
tp917
a(S'w'
I416
tp918
a(S'p2_tl'
I51
tp919
a(S'w'
I23
tp920
a(S'p1_vo'
I5
tp921
a(S'w'
I11
tp922
a(S'p2_tl'
I81
tp923
a(S'w'
I34
tp924
a(S'p2_tl'
I112
tp925
a(S'w'
I28
tp926
a(S'p2_tl'
I144
tp927
a(S'w'
I81
tp928
a(S'p2_tl'
I177
tp929
a(S'w'
I130
tp930
a(S'p2_tl'
I211
tp931
a(S'w'
I431
tp932
a(S'p2_tl'
I246
tp933
a(S'w'
I21
tp934
a(S'p1_vo'
I0
tp935
a(S'w'
I11
tp936
a(S'p2_tl'
I26
tp937
a(S'w'
I1
tp938
a(S'p2_ll'
I1
tp939
a(S'p2_th'
I3
tp940
a(S'w'
I39
tp941
a(S'p2_tl'
I63
tp942
a(S'w'
I28
tp943
a(S'p2_tl'
I101
tp944
a(S'w'
I83
tp945
a(S'p2_tl'
I140
tp946
a(S'w'
I130
tp947
a(S'p2_tl'
I180
tp948
a(S'w'
I417
tp949
a(S'p2_tl'
I221
tp950
a(S'w'
I32
tp951
a(S'p2_tl'
I7
tp952
a(S'w'
I1
tp953
a(S'p2_ll'
I1
tp954
a(S'p2_th'
I4
tp955
a(S'w'
I42
tp956
a(S'p2_tl'
I50
tp957
a(S'w'
I29
tp958
a(S'p2_tl'
I94
tp959
a(S'w'
I82
tp960
a(S'p2_tl'
I139
tp961
a(S'w'
I122
tp962
a(S'p2_tl'
I185
tp963
a(S'w'
I426
tp964
a(S'p2_tl'
I232
tp965
a(S'w'
I32
tp966
a(S'p2_tl'
I24
tp967
a(S'w'
I1
tp968
a(S'p2_ll'
I1
tp969
a(S'p2_th'
I5
tp970
a(S'w'
I38
tp971
a(S'p2_tl'
I73
tp972
a(S'w'
I28
tp973
a(S'p2_tl'
I123
tp974
a(S'w'
I83
tp975
a(S'p2_tl'
I174
tp976
a(S'w'
I121
tp977
a(S'p2_tl'
I226
tp978
a(S'w'
I431
tp979
a(S'p2_tl'
I23
tp980
a(S'p2_ll'
I1
tp981
a(S'p2_th'
I6
tp982
a(S'w'
I32
tp983
a(S'p2_tl'
I77
tp984
a(S'w'
I34
tp985
a(S'p2_tl'
I132
tp986
a(S'w'
I29
tp987
a(S'p2_tl'
I188
tp988
a(S'w'
I82
tp989
a(S'p2_tl'
I245
tp990
a(S'w'
I122
tp991
a(S'p2_tl'
I47
tp992
a(S'p2_ll'
I1
tp993
a(S'p2_th'
I7
tp994
a(S'w'
I435
tp995
a(S'p2_tl'
I106
tp996
a(S'w'
I32
tp997
a(S'p2_tl'
I166
tp998
a(S'w'
I43
tp999
a(S'p2_tl'
I227
tp1000
a(S'w'
I102
tp1001
a(S'p2_vo'
I0
tp1002
a(S'w'
I1
tp1003
a.