(lp1
(S'clock'
p2
I1789772
tp3
a(S'ch_no'
I1
tp4
a(S'ch_tr'
I1
tp5
a(S'ch_p2'
I1
tp6
a(S'ch_p1'
I1
tp7
a(S'w'
I2
tp8
a(S'ch_no'
I1
tp9
a(S'ch_tr'
I1
tp10
a(S'ch_p2'
I1
tp11
a(S'ch_p1'
I1
tp12
a(S'w'
I5
tp13
a(S'p1_lh'
I1
tp14
a(S'p1_cv'
I1
tp15
a(S'p1_vo'
I8
tp16
a(S'w'
I2
tp17
a(S'p1_tl'
I45
tp18
a(S'p1_ll'
I31
tp19
a(S'p1_th'
I1
tp20
a(S'w'
I3
tp21
a(S'p2_du'
I3
tp22
a(S'p2_lh'
I1
tp23
a(S'p2_cv'
I1
tp24
a(S'p2_vo'
I7
tp25
a(S'w'
I1
tp26
a(S'p2_tl'
I120
tp27
a(S'p2_ll'
I31
tp28
a(S'p2_th'
I1
tp29
a(S'w'
I3
tp30
a(S'tr_lr'
I19
tp31
a(S'w'
I1
tp32
a(S'tr_tl'
I41
tp33
a(S'tr_ll'
I31
tp34
a(S'tr_th'
I1
tp35
a(S'w'
I656
tp36
a(S'p1_du'
I3
tp37
a(S'w'
I1
tp38
a(S'p1_tl'
I41
tp39
a(S'w'
I3
tp40
a(S'p2_du'
I0
tp41
a(S'w'
I1
tp42
a(S'p2_tl'
I116
tp43
a(S'w'
I4
tp44
a(S'tr_tl'
I38
tp45
a(S'w'
I713
tp46
a(S'p1_tl'
I37
tp47
a(S'w'
I4
tp48
a(S'p2_tl'
I112
tp49
a(S'w'
I4
tp50
a(S'tr_tl'
I35
tp51
a(S'w'
I728
tp52
a(S'p1_tl'
I33
tp53
a(S'w'
I3
tp54
a(S'p2_tl'
I108
tp55
a(S'w'
I4
tp56
a(S'tr_tl'
I32
tp57
a(S'w'
I727
tp58
a(S'p1_tl'
I29
tp59
a(S'w'
I4
tp60
a(S'p2_tl'
I104
tp61
a(S'w'
I4
tp62
a(S'tr_tl'
I29
tp63
a(S'w'
I2229
tp64
a(S'ch_no'
I1
tp65
a(S'ch_tr'
I1
tp66
a(S'ch_p2'
I1
tp67
a(S'ch_p1'
I1
tp68
a(S'w'
I1
tp69
a(S'ch_no'
I1
tp70
a(S'ch_tr'
I1
tp71
a(S'ch_p2'
I1
tp72
a(S'ch_p1'
I1
tp73
a(S'w'
I6
tp74
a(S'p1_du'
I0
tp75
a(S'w'
I1
tp76
a(S'p1_tl'
I120
tp77
a(S'w'
I1
tp78
a(S'p1_ll'
I31
tp79
a(S'w'
I2
tp80
a(S'p2_du'
I3
tp81
a(S'w'
I1
tp82
a(S'p2_tl'
I213
tp83
a(S'w'
I1
tp84
a(S'p2_ll'
I31
tp85
a(S'w'
I3
tp86
a(S'tr_tl'
I116
tp87
a(S'w'
I1
tp88
a(S'tr_ll'
I31
tp89
a(S'w'
I691
tp90
a(S'p1_du'
I3
tp91
a(S'w'
I1
tp92
a(S'p1_tl'
I116
tp93
a(S'w'
I3
tp94
a(S'p2_du'
I0
tp95
a(S'w'
I1
tp96
a(S'p2_tl'
I209
tp97
a(S'w'
I4
tp98
a(S'tr_tl'
I113
tp99
a(S'w'
I713
tp100
a(S'p1_tl'
I112
tp101
a(S'w'
I3
tp102
a(S'p2_tl'
I205
tp103
a(S'w'
I4
tp104
a(S'tr_tl'
I110
tp105
a(S'w'
I728
tp106
a(S'p1_tl'
I108
tp107
a(S'w'
I4
tp108
a(S'p2_tl'
I201
tp109
a(S'w'
I3
tp110
a(S'tr_tl'
I107
tp111
a(S'w'
I728
tp112
a(S'p1_tl'
I104
tp113
a(S'w'
I3
tp114
a(S'p2_tl'
I197
tp115
a(S'w'
I4
tp116
a(S'tr_tl'
I104
tp117
a(S'w'
I2233
tp118
a(S'ch_no'
I1
tp119
a(S'ch_tr'
I1
tp120
a(S'ch_p2'
I1
tp121
a(S'ch_p1'
I1
tp122
a(S'w'
I2
tp123
a(S'ch_no'
I1
tp124
a(S'ch_tr'
I1
tp125
a(S'ch_p2'
I1
tp126
a(S'ch_p1'
I1
tp127
a(S'w'
I6
tp128
a(S'p1_du'
I0
tp129
a(S'p1_vo'
I6
tp130
a(S'w'
I1
tp131
a(S'p1_tl'
I62
tp132
a(S'p1_ll'
I31
tp133
a(S'w'
I3
tp134
a(S'p2_du'
I3
tp135
a(S'p2_vo'
I5
tp136
a(S'w'
I1
tp137
a(S'p2_tl'
I141
tp138
a(S'w'
I1
tp139
a(S'p2_ll'
I31
tp140
a(S'w'
I3
tp141
a(S'tr_tl'
I58
tp142
a(S'tr_ll'
I31
tp143
a(S'w'
I687
tp144
a(S'p1_du'
I3
tp145
a(S'w'
I2
tp146
a(S'p1_tl'
I58
tp147
a(S'w'
I2
tp148
a(S'p2_du'
I0
tp149
a(S'w'
I1
tp150
a(S'p2_tl'
I137
tp151
a(S'w'
I4
tp152
a(S'tr_tl'
I55
tp153
a(S'w'
I713
tp154
a(S'p1_tl'
I54
tp155
a(S'w'
I4
tp156
a(S'p2_tl'
I133
tp157
a(S'w'
I4
tp158
a(S'tr_tl'
I52
tp159
a(S'w'
I728
tp160
a(S'p1_tl'
I50
tp161
a(S'w'
I3
tp162
a(S'p2_tl'
I129
tp163
a(S'w'
I4
tp164
a(S'tr_tl'
I49
tp165
a(S'w'
I727
tp166
a(S'p1_tl'
I46
tp167
a(S'w'
I4
tp168
a(S'p2_tl'
I125
tp169
a(S'w'
I4
tp170
a(S'tr_tl'
I46
tp171
a(S'w'
I2229
tp172
a(S'ch_no'
I1
tp173
a(S'ch_tr'
I1
tp174
a(S'ch_p2'
I1
tp175
a(S'ch_p1'
I1
tp176
a(S'w'
I2
tp177
a(S'ch_no'
I1
tp178
a(S'ch_tr'
I1
tp179
a(S'ch_p2'
I1
tp180
a(S'ch_p1'
I1
tp181
a(S'w'
I5
tp182
a(S'p1_du'
I0
tp183
a(S'w'
I1
tp184
a(S'p1_tl'
I141
tp185
a(S'w'
I1
tp186
a(S'p1_ll'
I31
tp187
a(S'w'
I2
tp188
a(S'p2_du'
I3
tp189
a(S'w'
I1
tp190
a(S'p2_tl'
I240
tp191
a(S'w'
I1
tp192
a(S'p2_ll'
I31
tp193
a(S'w'
I3
tp194
a(S'tr_tl'
I137
tp195
a(S'w'
I1
tp196
a(S'tr_ll'
I31
tp197
a(S'w'
I691
tp198
a(S'p1_du'
I3
tp199
a(S'w'
I1
tp200
a(S'p1_tl'
I137
tp201
a(S'w'
I3
tp202
a(S'p2_du'
I0
tp203
a(S'w'
I1
tp204
a(S'p2_tl'
I236
tp205
a(S'w'
I4
tp206
a(S'tr_tl'
I134
tp207
a(S'w'
I713
tp208
a(S'p1_tl'
I133
tp209
a(S'w'
I4
tp210
a(S'p2_tl'
I232
tp211
a(S'w'
I3
tp212
a(S'tr_tl'
I131
tp213
a(S'w'
I728
tp214
a(S'p1_tl'
I129
tp215
a(S'w'
I4
tp216
a(S'p2_tl'
I228
tp217
a(S'w'
I4
tp218
a(S'tr_tl'
I128
tp219
a(S'w'
I727
tp220
a(S'p1_tl'
I125
tp221
a(S'w'
I4
tp222
a(S'p2_tl'
I224
tp223
a(S'w'
I3
tp224
a(S'tr_tl'
I125
tp225
a(S'w'
I2233
tp226
a(S'ch_no'
I1
tp227
a(S'ch_tr'
I1
tp228
a(S'ch_p2'
I1
tp229
a(S'ch_p1'
I1
tp230
a(S'w'
I2
tp231
a(S'ch_no'
I1
tp232
a(S'ch_tr'
I1
tp233
a(S'ch_p2'
I1
tp234
a(S'ch_p1'
I1
tp235
a(S'w'
I6
tp236
a(S'p1_du'
I0
tp237
a(S'p1_vo'
I4
tp238
a(S'w'
I1
tp239
a(S'p1_tl'
I80
tp240
a(S'w'
I1
tp241
a(S'p1_ll'
I31
tp242
a(S'w'
I2
tp243
a(S'p2_du'
I3
tp244
a(S'p2_vo'
I4
tp245
a(S'w'
I1
tp246
a(S'p2_tl'
I164
tp247
a(S'w'
I1
tp248
a(S'p2_ll'
I31
tp249
a(S'w'
I3
tp250
a(S'tr_tl'
I76
tp251
a(S'tr_ll'
I31
tp252
a(S'w'
I688
tp253
a(S'p1_du'
I3
tp254
a(S'w'
I1
tp255
a(S'p1_tl'
I76
tp256
a(S'w'
I3
tp257
a(S'p2_du'
I0
tp258
a(S'w'
I1
tp259
a(S'p2_tl'
I160
tp260
a(S'w'
I3
tp261
a(S'tr_tl'
I73
tp262
a(S'w'
I714
tp263
a(S'p1_tl'
I72
tp264
a(S'w'
I3
tp265
a(S'p2_tl'
I156
tp266
a(S'w'
I4
tp267
a(S'tr_tl'
I70
tp268
a(S'w'
I728
tp269
a(S'p1_tl'
I68
tp270
a(S'w'
I4
tp271
a(S'p2_tl'
I152
tp272
a(S'w'
I3
tp273
a(S'tr_tl'
I67
tp274
a(S'w'
I727
tp275
a(S'p1_tl'
I64
tp276
a(S'w'
I4
tp277
a(S'p2_tl'
I148
tp278
a(S'w'
I4
tp279
a(S'tr_tl'
I64
tp280
a(S'w'
I2229
tp281
a(S'ch_no'
I1
tp282
a(S'ch_tr'
I1
tp283
a(S'ch_p2'
I1
tp284
a(S'ch_p1'
I1
tp285
a(S'w'
I2
tp286
a(S'ch_no'
I1
tp287
a(S'ch_tr'
I1
tp288
a(S'ch_p2'
I1
tp289
a(S'ch_p1'
I1
tp290
a(S'w'
I5
tp291
a(S'p1_du'
I0
tp292
a(S'w'
I2
tp293
a(S'p1_tl'
I164
tp294
a(S'p1_ll'
I31
tp295
a(S'w'
I2
tp296
a(S'p2_du'
I3
tp297
a(S'w'
I2
tp298
a(S'p2_tl'
I12
tp299
a(S'p2_ll'
I31
tp300
a(S'p2_th'
I2
tp301
a(S'w'
I3
tp302
a(S'tr_tl'
I160
tp303
a(S'w'
I1
tp304
a(S'tr_ll'
I31
tp305
a(S'w'
I691
tp306
a(S'p1_du'
I3
tp307
a(S'w'
I1
tp308
a(S'p1_tl'
I160
tp309
a(S'w'
I3
tp310
a(S'p2_du'
I0
tp311
a(S'w'
I1
tp312
a(S'p2_tl'
I8
tp313
a(S'w'
I4
tp314
a(S'tr_tl'
I157
tp315
a(S'w'
I713
tp316
a(S'p1_tl'
I156
tp317
a(S'w'
I4
tp318
a(S'p2_tl'
I4
tp319
a(S'w'
I4
tp320
a(S'tr_tl'
I154
tp321
a(S'w'
I728
tp322
a(S'p1_tl'
I152
tp323
a(S'w'
I3
tp324
a(S'p2_tl'
I0
tp325
a(S'w'
I4
tp326
a(S'tr_tl'
I151
tp327
a(S'w'
I727
tp328
a(S'p1_tl'
I148
tp329
a(S'w'
I4
tp330
a(S'p2_tl'
I252
tp331
a(S'w'
I1
tp332
a(S'p2_ll'
I31
tp333
a(S'p2_th'
I1
tp334
a(S'w'
I3
tp335
a(S'tr_tl'
I148
tp336
a(S'w'
I2233
tp337
a(S'ch_no'
I1
tp338
a(S'ch_tr'
I1
tp339
a(S'ch_p2'
I1
tp340
a(S'ch_p1'
I1
tp341
a(S'w'
I1
tp342
a(S'ch_no'
I1
tp343
a(S'ch_tr'
I1
tp344
a(S'ch_p2'
I1
tp345
a(S'ch_p1'
I1
tp346
a(S'w'
I6
tp347
a(S'p1_du'
I0
tp348
a(S'p1_vo'
I6
tp349
a(S'w'
I1
tp350
a(S'p1_tl'
I99
tp351
a(S'w'
I1
tp352
a(S'p1_ll'
I31
tp353
a(S'w'
I2
tp354
a(S'p2_du'
I3
tp355
a(S'p2_vo'
I5
tp356
a(S'w'
I1
tp357
a(S'p2_tl'
I188
tp358
a(S'w'
I1
tp359
a(S'p2_ll'
I31
tp360
a(S'w'
I3
tp361
a(S'tr_tl'
I95
tp362
a(S'w'
I1
tp363
a(S'tr_ll'
I31
tp364
a(S'w'
I687
tp365
a(S'p1_du'
I3
tp366
a(S'w'
I1
tp367
a(S'p1_tl'
I95
tp368
a(S'w'
I3
tp369
a(S'p2_du'
I0
tp370
a(S'w'
I1
tp371
a(S'p2_tl'
I184
tp372
a(S'w'
I4
tp373
a(S'tr_tl'
I92
tp374
a(S'w'
I713
tp375
a(S'p1_tl'
I91
tp376
a(S'w'
I3
tp377
a(S'p2_tl'
I180
tp378
a(S'w'
I4
tp379
a(S'tr_tl'
I89
tp380
a(S'w'
I728
tp381
a(S'p1_tl'
I87
tp382
a(S'w'
I4
tp383
a(S'p2_tl'
I176
tp384
a(S'w'
I4
tp385
a(S'tr_tl'
I86
tp386
a(S'w'
I727
tp387
a(S'p1_tl'
I83
tp388
a(S'w'
I3
tp389
a(S'p2_tl'
I172
tp390
a(S'w'
I4
tp391
a(S'tr_tl'
I83
tp392
a(S'w'
I2229
tp393
a(S'ch_no'
I1
tp394
a(S'ch_tr'
I1
tp395
a(S'ch_p2'
I1
tp396
a(S'ch_p1'
I1
tp397
a(S'w'
I2
tp398
a(S'ch_no'
I1
tp399
a(S'ch_tr'
I1
tp400
a(S'ch_p2'
I1
tp401
a(S'ch_p1'
I1
tp402
a(S'w'
I6
tp403
a(S'p1_du'
I0
tp404
a(S'w'
I1
tp405
a(S'p1_tl'
I188
tp406
a(S'p1_ll'
I31
tp407
a(S'w'
I3
tp408
a(S'p2_du'
I3
tp409
a(S'w'
I1
tp410
a(S'p2_tl'
I43
tp411
a(S'p2_ll'
I31
tp412
a(S'p2_th'
I2
tp413
a(S'w'
I4
tp414
a(S'tr_tl'
I184
tp415
a(S'tr_ll'
I31
tp416
a(S'w'
I691
tp417
a(S'p1_du'
I3
tp418
a(S'w'
I2
tp419
a(S'p1_tl'
I184
tp420
a(S'w'
I2
tp421
a(S'p2_du'
I0
tp422
a(S'w'
I2
tp423
a(S'p2_tl'
I39
tp424
a(S'w'
I3
tp425
a(S'tr_tl'
I181
tp426
a(S'w'
I713
tp427
a(S'p1_tl'
I180
tp428
a(S'w'
I4
tp429
a(S'p2_tl'
I35
tp430
a(S'w'
I4
tp431
a(S'tr_tl'
I178
tp432
a(S'w'
I728
tp433
a(S'p1_tl'
I176
tp434
a(S'w'
I3
tp435
a(S'p2_tl'
I31
tp436
a(S'w'
I4
tp437
a(S'tr_tl'
I175
tp438
a(S'w'
I727
tp439
a(S'p1_tl'
I172
tp440
a(S'w'
I4
tp441
a(S'p2_tl'
I27
tp442
a(S'w'
I4
tp443
a(S'tr_tl'
I172
tp444
a(S'w'
I2231
tp445
a(S'ch_no'
I1
tp446
a(S'ch_tr'
I1
tp447
a(S'ch_p2'
I1
tp448
a(S'ch_p1'
I1
tp449
a(S'w'
I2
tp450
a(S'ch_no'
I1
tp451
a(S'ch_tr'
I1
tp452
a(S'ch_p2'
I1
tp453
a(S'ch_p1'
I1
tp454
a(S'w'
I5
tp455
a(S'p1_du'
I0
tp456
a(S'p1_vo'
I8
tp457
a(S'w'
I1
tp458
a(S'p1_tl'
I120
tp459
a(S'w'
I1
tp460
a(S'p1_ll'
I31
tp461
a(S'w'
I2
tp462
a(S'p2_du'
I3
tp463
a(S'p2_vo'
I7
tp464
a(S'w'
I1
tp465
a(S'p2_tl'
I213
tp466
a(S'w'
I1
tp467
a(S'p2_ll'
I31
tp468
a(S'p2_th'
I1
tp469
a(S'w'
I3
tp470
a(S'tr_tl'
I116
tp471
a(S'w'
I1
tp472
a(S'tr_ll'
I31
tp473
a(S'w'
I689
tp474
a(S'p1_du'
I3
tp475
a(S'w'
I1
tp476
a(S'p1_tl'
I116
tp477
a(S'w'
I3
tp478
a(S'p2_du'
I0
tp479
a(S'w'
I1
tp480
a(S'p2_tl'
I209
tp481
a(S'w'
I4
tp482
a(S'tr_tl'
I113
tp483
a(S'w'
I713
tp484
a(S'p1_tl'
I112
tp485
a(S'w'
I4
tp486
a(S'p2_tl'
I205
tp487
a(S'w'
I3
tp488
a(S'tr_tl'
I110
tp489
a(S'w'
I728
tp490
a(S'p1_tl'
I108
tp491
a(S'w'
I4
tp492
a(S'p2_tl'
I201
tp493
a(S'w'
I4
tp494
a(S'tr_tl'
I107
tp495
a(S'w'
I727
tp496
a(S'p1_tl'
I104
tp497
a(S'w'
I4
tp498
a(S'p2_tl'
I197
tp499
a(S'w'
I3
tp500
a(S'tr_tl'
I104
tp501
a(S'w'
I2272
tp502
a(S'ch_no'
I1
tp503
a(S'ch_tr'
I1
tp504
a(S'ch_p2'
I1
tp505
a(S'ch_p1'
I1
tp506
a(S'w'
I1
tp507
a(S'ch_no'
I1
tp508
a(S'ch_tr'
I1
tp509
a(S'ch_p2'
I1
tp510
a(S'ch_p1'
I1
tp511
a(S'w'
I6
tp512
a(S'p1_du'
I0
tp513
a(S'p1_vo'
I6
tp514
a(S'w'
I1
tp515
a(S'p1_tl'
I253
tp516
a(S'w'
I1
tp517
a(S'p1_ll'
I31
tp518
a(S'w'
I2
tp519
a(S'p2_du'
I3
tp520
a(S'p2_vo'
I6
tp521
a(S'w'
I1
tp522
a(S'p2_tl'
I115
tp523
a(S'w'
I1
tp524
a(S'p2_ll'
I31
tp525
a(S'p2_th'
I2
tp526
a(S'w'
I2
tp527
a(S'tr_lh'
I1
tp528
a(S'tr_lr'
I16
tp529
a(S'w'
I1
tp530
a(S'tr_tl'
I253
tp531
a(S'w'
I1
tp532
a(S'tr_ll'
I31
tp533
a(S'w'
I637
tp534
a(S'p1_du'
I3
tp535
a(S'p1_vo'
I7
tp536
a(S'w'
I1
tp537
a(S'p1_tl'
I249
tp538
a(S'w'
I3
tp539
a(S'p2_du'
I0
tp540
a(S'p2_vo'
I7
tp541
a(S'w'
I1
tp542
a(S'p2_tl'
I111
tp543
a(S'w'
I4
tp544
a(S'tr_tl'
I249
tp545
a(S'w'
I722
tp546
a(S'p1_tl'
I245
tp547
a(S'w'
I3
tp548
a(S'p2_tl'
I107
tp549
a(S'w'
I4
tp550
a(S'tr_tl'
I245
tp551
a(S'w'
I729
tp552
a(S'p1_vo'
I8
tp553
a(S'w'
I2
tp554
a(S'p1_tl'
I241
tp555
a(S'w'
I2
tp556
a(S'p2_vo'
I8
tp557
a(S'w'
I2
tp558
a(S'p2_tl'
I103
tp559
a(S'w'
I3
tp560
a(S'tr_tl'
I241
tp561
a(S'w'
I732
tp562
a(S'no_lh'
I1
tp563
a(S'no_cv'
I1
tp564
a(S'w'
I1
tp565
a(S'no_ll'
I31
tp566
a(S'w'
I12
tp567
a(S'p1_vo'
I7
tp568
a(S'w'
I1
tp569
a(S'p1_tl'
I237
tp570
a(S'w'
I3
tp571
a(S'p2_vo'
I7
tp572
a(S'w'
I1
tp573
a(S'p2_tl'
I99
tp574
a(S'w'
I4
tp575
a(S'tr_tl'
I237
tp576
a(S'w'
I2
tp577
a(S'no_vo'
I7
tp578
a(S'w'
I1
tp579
a(S'no_np'
I2
tp580
a(S'w'
I1
tp581
a(S'no_ll'
I31
tp582
a(S'w'
I702
tp583
a(S'p1_tl'
I233
tp584
a(S'w'
I4
tp585
a(S'p2_tl'
I95
tp586
a(S'w'
I4
tp587
a(S'tr_tl'
I233
tp588
a(S'w'
I3
tp589
a(S'no_vo'
I3
tp590
a(S'w'
I1
tp591
a(S'no_np'
I1
tp592
a(S'no_ll'
I31
tp593
a(S'w'
I727
tp594
a(S'p1_vo'
I6
tp595
a(S'w'
I2
tp596
a(S'p1_tl'
I229
tp597
a(S'w'
I2
tp598
a(S'p2_vo'
I6
tp599
a(S'w'
I2
tp600
a(S'p2_tl'
I91
tp601
a(S'w'
I3
tp602
a(S'tr_tl'
I229
tp603
a(S'w'
I3
tp604
a(S'no_vo'
I2
tp605
a(S'w'
I1
tp606
a(S'no_ll'
I31
tp607
a(S'w'
I713
tp608
a(S'p1_tl'
I225
tp609
a(S'w'
I4
tp610
a(S'p2_tl'
I87
tp611
a(S'w'
I3
tp612
a(S'tr_tl'
I225
tp613
a(S'w'
I739
tp614
a(S'no_vo'
I0
tp615
a(S'w'
I1
tp616
a(S'no_np'
I0
tp617
a(S'no_ll'
I31
tp618
a(S'w'
I12
tp619
a(S'p1_vo'
I5
tp620
a(S'w'
I1
tp621
a(S'p1_tl'
I221
tp622
a(S'w'
I3
tp623
a(S'p2_vo'
I5
tp624
a(S'w'
I1
tp625
a(S'p2_tl'
I83
tp626
a(S'w'
I4
tp627
a(S'tr_tl'
I221
tp628
a(S'w'
I3
tp629
a(S'no_vo'
I7
tp630
a(S'w'
I1
tp631
a(S'no_np'
I2
tp632
a(S'no_ll'
I31
tp633
a(S'w'
I704
tp634
a(S'p1_vo'
I4
tp635
a(S'w'
I1
tp636
a(S'p1_tl'
I217
tp637
a(S'w'
I3
tp638
a(S'p2_vo'
I4
tp639
a(S'w'
I1
tp640
a(S'p2_tl'
I79
tp641
a(S'w'
I4
tp642
a(S'tr_tl'
I217
tp643
a(S'w'
I3
tp644
a(S'no_vo'
I3
tp645
a(S'w'
I1
tp646
a(S'no_np'
I1
tp647
a(S'no_ll'
I31
tp648
a(S'w'
I720
tp649
a(S'p1_tl'
I213
tp650
a(S'w'
I4
tp651
a(S'p2_tl'
I75
tp652
a(S'w'
I4
tp653
a(S'tr_tl'
I213
tp654
a(S'w'
I2
tp655
a(S'no_vo'
I2
tp656
a(S'w'
I2
tp657
a(S'no_ll'
I31
tp658
a(S'w'
I720
tp659
a(S'p1_vo'
I3
tp660
a(S'w'
I1
tp661
a(S'p1_tl'
I209
tp662
a(S'w'
I3
tp663
a(S'p2_vo'
I3
tp664
a(S'w'
I1
tp665
a(S'p2_tl'
I71
tp666
a(S'w'
I4
tp667
a(S'tr_tl'
I209
tp668
a(S'w'
I728
tp669
a(S'no_vo'
I0
tp670
a(S'no_np'
I0
tp671
a(S'w'
I1
tp672
a(S'no_ll'
I31
tp673
a(S'w'
I13
tp674
a(S'p1_tl'
I205
tp675
a(S'w'
I4
tp676
a(S'p2_tl'
I67
tp677
a(S'w'
I3
tp678
a(S'tr_tl'
I205
tp679
a(S'w'
I3
tp680
a(S'no_vo'
I4
tp681
a(S'w'
I1
tp682
a(S'no_np'
I1
tp683
a(S'w'
I1
tp684
a(S'no_ll'
I31
tp685
a(S'w'
I708
tp686
a(S'p1_vo'
I2
tp687
a(S'w'
I1
tp688
a(S'p1_tl'
I201
tp689
a(S'w'
I2
tp690
a(S'p2_vo'
I2
tp691
a(S'w'
I2
tp692
a(S'p2_tl'
I63
tp693
a(S'w'
I3
tp694
a(S'tr_tl'
I201
tp695
a(S'w'
I3
tp696
a(S'no_vo'
I6
tp697
a(S'w'
I1
tp698
a(S'no_np'
I5
tp699
a(S'w'
I1
tp700
a(S'no_ll'
I31
tp701
a(S'w'
I725
tp702
a(S'p1_vo'
I1
tp703
a(S'w'
I1
tp704
a(S'p1_tl'
I197
tp705
a(S'w'
I3
tp706
a(S'p2_vo'
I1
tp707
a(S'w'
I1
tp708
a(S'p2_tl'
I59
tp709
a(S'w'
I4
tp710
a(S'tr_tl'
I197
tp711
a(S'w'
I2
tp712
a(S'no_vo'
I7
tp713
a(S'w'
I2
tp714
a(S'no_np'
I1
tp715
a(S'no_ll'
I31
tp716
a(S'w'
I708
tp717
a(S'no_vo'
I0
tp718
a(S'w'
I1
tp719
a(S'no_np'
I0
tp720
a(S'no_ll'
I31
tp721
a(S'w'
I20
tp722
a(S'tr_tl'
I191
tp723
a(S'w'
I3
tp724
a(S'no_vo'
I4
tp725
a(S'w'
I1
tp726
a(S'no_np'
I1
tp727
a(S'no_ll'
I31
tp728
a(S'w'
I715
tp729
a(S'tr_tl'
I190
tp730
a(S'w'
I2
tp731
a(S'no_vo'
I6
tp732
a(S'w'
I1
tp733
a(S'no_np'
I5
tp734
a(S'w'
I1
tp735
a(S'no_ll'
I31
tp736
a(S'w'
I728
tp737
a(S'p1_vo'
I2
tp738
a(S'w'
I4
tp739
a(S'p2_vo'
I2
tp740
a(S'w'
I4
tp741
a(S'tr_tl'
I191
tp742
a(S'w'
I3
tp743
a(S'no_vo'
I7
tp744
a(S'w'
I1
tp745
a(S'no_np'
I1
tp746
a(S'no_ll'
I31
tp747
a(S'w'
I722
tp748
a(S'no_vo'
I0
tp749
a(S'no_np'
I0
tp750
a(S'w'
I1
tp751
a(S'no_ll'
I31
tp752
a(S'w'
I12
tp753
a(S'p1_vo'
I3
tp754
a(S'w'
I4
tp755
a(S'p2_vo'
I3
tp756
a(S'w'
I4
tp757
a(S'tr_tl'
I195
tp758
a(S'w'
I3
tp759
a(S'no_vo'
I4
tp760
a(S'w'
I1
tp761
a(S'no_np'
I1
tp762
a(S'no_ll'
I31
tp763
a(S'w'
I706
tp764
a(S'p1_vo'
I4
tp765
a(S'w'
I4
tp766
a(S'p2_vo'
I4
tp767
a(S'w'
I4
tp768
a(S'tr_tl'
I197
tp769
a(S'w'
I3
tp770
a(S'no_vo'
I6
tp771
a(S'w'
I1
tp772
a(S'no_np'
I5
tp773
a(S'no_ll'
I31
tp774
a(S'w'
I729
tp775
a(S'tr_tl'
I199
tp776
a(S'w'
I3
tp777
a(S'no_vo'
I7
tp778
a(S'w'
I1
tp779
a(S'no_np'
I1
tp780
a(S'w'
I1
tp781
a(S'no_ll'
I31
tp782
a(S'w'
I720
tp783
a(S'no_vo'
I0
tp784
a(S'no_np'
I0
tp785
a(S'w'
I1
tp786
a(S'no_ll'
I31
tp787
a(S'w'
I20
tp788
a(S'tr_tl'
I202
tp789
a(S'w'
I2
tp790
a(S'no_vo'
I4
tp791
a(S'w'
I1
tp792
a(S'no_np'
I1
tp793
a(S'w'
I1
tp794
a(S'no_ll'
I31
tp795
a(S'w'
I714
tp796
a(S'tr_tl'
I204
tp797
a(S'w'
I3
tp798
a(S'no_vo'
I6
tp799
a(S'w'
I1
tp800
a(S'no_np'
I5
tp801
a(S'no_ll'
I31
tp802
a(S'w'
I729
tp803
a(S'p1_vo'
I3
tp804
a(S'w'
I3
tp805
a(S'p2_vo'
I3
tp806
a(S'w'
I5
tp807
a(S'tr_tl'
I202
tp808
a(S'w'
I2
tp809
a(S'no_vo'
I7
tp810
a(S'w'
I1
tp811
a(S'no_np'
I1
tp812
a(S'w'
I1
tp813
a(S'no_ll'
I31
tp814
a(S'w'
I721
tp815
a(S'no_vo'
I0
tp816
a(S'w'
I1
tp817
a(S'no_np'
I0
tp818
a(S'no_ll'
I31
tp819
a(S'w'
I20
tp820
a(S'tr_tl'
I199
tp821
a(S'w'
I3
tp822
a(S'no_vo'
I4
tp823
a(S'w'
I1
tp824
a(S'no_np'
I1
tp825
a(S'no_ll'
I31
tp826
a(S'w'
I707
tp827
a(S'p1_vo'
I2
tp828
a(S'w'
I4
tp829
a(S'p2_vo'
I2
tp830
a(S'w'
I4
tp831
a(S'tr_tl'
I197
tp832
a(S'w'
I3
tp833
a(S'no_vo'
I6
tp834
a(S'w'
I1
tp835
a(S'no_np'
I5
tp836
a(S'no_ll'
I31
tp837
a(S'w'
I725
tp838
a(S'no_vo'
I0
tp839
a(S'no_np'
I0
tp840
a(S'w'
I1
tp841
a(S'no_ll'
I31
tp842
a(S'w'
I19
tp843
a(S'tr_tl'
I195
tp844
a(S'w'
I3
tp845
a(S'no_vo'
I4
tp846
a(S'w'
I1
tp847
a(S'no_np'
I1
tp848
a(S'w'
I1
tp849
a(S'no_ll'
I31
tp850
a(S'w'
I706
tp851
a(S'p1_vo'
I1
tp852
a(S'w'
I3
tp853
a(S'p2_vo'
I1
tp854
a(S'w'
I5
tp855
a(S'tr_tl'
I191
tp856
a(S'w'
I3
tp857
a(S'no_vo'
I6
tp858
a(S'w'
I1
tp859
a(S'no_np'
I5
tp860
a(S'no_ll'
I31
tp861
a(S'w'
I724
tp862
a(S'no_vo'
I0
tp863
a(S'w'
I1
tp864
a(S'no_np'
I0
tp865
a(S'no_ll'
I31
tp866
a(S'w'
I20
tp867
a(S'tr_tl'
I190
tp868
a(S'w'
I3
tp869
a(S'no_vo'
I4
tp870
a(S'w'
I1
tp871
a(S'no_np'
I1
tp872
a(S'no_ll'
I31
tp873
a(S'w'
I709
tp874
a(S'p1_vo'
I2
tp875
a(S'w'
I4
tp876
a(S'p2_vo'
I2
tp877
a(S'w'
I4
tp878
a(S'tr_tl'
I191
tp879
a(S'w'
I3
tp880
a(S'no_vo'
I6
tp881
a(S'w'
I1
tp882
a(S'no_np'
I5
tp883
a(S'no_ll'
I31
tp884
a(S'w'
I722
tp885
a(S'no_vo'
I0
tp886
a(S'no_np'
I0
tp887
a(S'w'
I1
tp888
a(S'no_ll'
I31
tp889
a(S'w'
I20
tp890
a(S'tr_tl'
I195
tp891
a(S'w'
I2
tp892
a(S'no_vo'
I4
tp893
a(S'w'
I1
tp894
a(S'no_np'
I1
tp895
a(S'w'
I1
tp896
a(S'no_ll'
I31
tp897
a(S'w'
I706
tp898
a(S'p1_vo'
I3
tp899
a(S'w'
I3
tp900
a(S'p2_vo'
I3
tp901
a(S'w'
I5
tp902
a(S'tr_tl'
I197
tp903
a(S'w'
I2
tp904
a(S'no_vo'
I6
tp905
a(S'w'
I2
tp906
a(S'no_np'
I5
tp907
a(S'no_ll'
I31
tp908
a(S'w'
I726
tp909
a(S'no_vo'
I0
tp910
a(S'no_np'
I0
tp911
a(S'w'
I1
tp912
a(S'no_ll'
I31
tp913
a(S'w'
I19
tp914
a(S'tr_tl'
I199
tp915
a(S'w'
I3
tp916
a(S'no_vo'
I4
tp917
a(S'w'
I1
tp918
a(S'no_np'
I1
tp919
a(S'w'
I1
tp920
a(S'no_ll'
I31
tp921
a(S'w'
I708
tp922
a(S'tr_tl'
I202
tp923
a(S'w'
I3
tp924
a(S'no_vo'
I6
tp925
a(S'w'
I1
tp926
a(S'no_np'
I5
tp927
a(S'no_ll'
I31
tp928
a(S'w'
I733
tp929
a(S'no_vo'
I0
tp930
a(S'no_np'
I0
tp931
a(S'w'
I1
tp932
a(S'no_ll'
I31
tp933
a(S'w'
I12
tp934
a(S'p1_vo'
I2
tp935
a(S'w'
I3
tp936
a(S'p2_vo'
I2
tp937
a(S'w'
I5
tp938
a(S'tr_tl'
I204
tp939
a(S'w'
I2
tp940
a(S'no_vo'
I4
tp941
a(S'w'
I2
tp942
a(S'no_np'
I1
tp943
a(S'no_ll'
I31
tp944
a(S'w'
I706
tp945
a(S'tr_tl'
I202
tp946
a(S'w'
I2
tp947
a(S'no_vo'
I6
tp948
a(S'w'
I1
tp949
a(S'no_np'
I5
tp950
a(S'w'
I1
tp951
a(S'no_ll'
I31
tp952
a(S'w'
I728
tp953
a(S'no_vo'
I0
tp954
a(S'w'
I1
tp955
a(S'no_np'
I0
tp956
a(S'no_ll'
I31
tp957
a(S'w'
I20
tp958
a(S'tr_tl'
I199
tp959
a(S'w'
I3
tp960
a(S'no_vo'
I4
tp961
a(S'w'
I1
tp962
a(S'no_np'
I1
tp963
a(S'no_ll'
I31
tp964
a(S'w'
I707
tp965
a(S'p1_vo'
I1
tp966
a(S'w'
I3
tp967
a(S'p2_vo'
I1
tp968
a(S'w'
I5
tp969
a(S'tr_tl'
I197
tp970
a(S'w'
I2
tp971
a(S'no_vo'
I6
tp972
a(S'w'
I1
tp973
a(S'no_np'
I5
tp974
a(S'w'
I1
tp975
a(S'no_ll'
I31
tp976
a(S'w'
I724
tp977
a(S'no_vo'
I0
tp978
a(S'w'
I1
tp979
a(S'no_np'
I0
tp980
a(S'no_ll'
I31
tp981
a(S'w'
I20
tp982
a(S'tr_tl'
I195
tp983
a(S'w'
I3
tp984
a(S'no_vo'
I4
tp985
a(S'w'
I1
tp986
a(S'no_np'
I1
tp987
a(S'no_ll'
I31
tp988
a(S'w'
I710
tp989
a(S'tr_tl'
I191
tp990
a(S'w'
I3
tp991
a(S'no_vo'
I6
tp992
a(S'w'
I1
tp993
a(S'no_np'
I5
tp994
a(S'no_ll'
I31
tp995
a(S'w'
I704
tp996
a(S'p1_du'
I0
tp997
a(S'p1_vo'
I0
tp998
a(S'p1_sp'
I7
tp999
a(S'p1_sn'
I1
tp1000
a(S'p1_ss'
I7
tp1001
a(S'p1_tl'
I0
tp1002
a(S'p1_ll'
I31
tp1003
a(S'p1_th'
I7
tp1004
a(S'w'
I7
tp1005
a(S'p2_vo'
I0
tp1006
a(S'w'
I1
tp1007
a(S'p2_sp'
I7
tp1008
a(S'p2_sn'
I1
tp1009
a(S'p2_ss'
I7
tp1010
a(S'p2_tl'
I0
tp1011
a(S'p2_ll'
I31
tp1012
a(S'p2_th'
I7
tp1013
a(S'w'
I7
tp1014
a(S'tr_tl'
I255
tp1015
a(S'tr_ll'
I31
tp1016
a(S'tr_th'
I7
tp1017
a(S'tr_lh'
I0
tp1018
a(S'tr_lr'
I0
tp1019
a(S'w'
I22
tp1020
a(S'no_vo'
I7
tp1021
a(S'w'
I1
tp1022
a(S'no_np'
I1
tp1023
a(S'w'
I1
tp1024
a(S'no_ll'
I31
tp1025
a(S'w'
I2169
tp1026
a(S'no_vo'
I6
tp1027
a(S'w'
I1
tp1028
a(S'no_ll'
I31
tp1029
a(S'w'
I2200
tp1030
a(S'no_vo'
I5
tp1031
a(S'w'
I1
tp1032
a(S'no_ll'
I31
tp1033
a(S'w'
I2203
tp1034
a(S'no_vo'
I4
tp1035
a(S'w'
I1
tp1036
a(S'no_ll'
I31
tp1037
a(S'w'
I2932
tp1038
a(S'no_vo'
I3
tp1039
a(S'w'
I1
tp1040
a(S'no_ll'
I31
tp1041
a(S'w'
I2930
tp1042
a(S'no_vo'
I0
tp1043
a(S'w'
I1
tp1044
a(S'no_np'
I0
tp1045
a(S'no_ll'
I31
tp1046
a.