(lp1
(S'clock'
p2
I1789772
tp3
a(S'p1_lh'
I1
tp4
a(S'p1_cv'
I1
tp5
a(S'p1_sp'
I7
tp6
a(S'p1_sn'
I1
tp7
a(S'p1_ss'
I7
tp8
a(S'p1_ll'
I31
tp9
a(S'p1_th'
I7
tp10
a(S'p2_lh'
I1
tp11
a(S'p2_cv'
I1
tp12
a(S'p2_sp'
I7
tp13
a(S'p2_sn'
I1
tp14
a(S'p2_ss'
I7
tp15
a(S'p2_ll'
I31
tp16
a(S'p2_th'
I7
tp17
a(S'tr_tl'
I255
tp18
a(S'tr_ll'
I31
tp19
a(S'tr_th'
I7
tp20
a(S'no_lh'
I1
tp21
a(S'no_cv'
I1
tp22
a(S'ch_no'
I1
tp23
a(S'ch_tr'
I1
tp24
a(S'ch_p2'
I1
tp25
a(S'ch_p1'
I1
tp26
a(S'fc_mo'
I0
tp27
a(S'w'
I1243
tp28
a(S'p1_ll'
I31
tp29
a(S'w'
I6
tp30
a(S'w'
I1
tp31
a(S'p2_ll'
I31
tp32
a(S'w'
I5
tp33
a(S'tr_ll'
I31
tp34
a(S'w'
I1
tp35
a(S'w'
I789
tp36
a(S'w'
I1
tp37
a(S'no_ll'
I31
tp38
a(S'w'
I12
tp39
a(S'p1_vo'
I4
tp40
a(S'w'
I1
tp41
a(S'p1_tl'
I27
tp42
a(S'w'
I1
tp43
a(S'p1_ll'
I31
tp44
a(S'p1_th'
I2
tp45
a(S'w'
I2
tp46
a(S'p2_du'
I3
tp47
a(S'p2_vo'
I2
tp48
a(S'w'
I1
tp49
a(S'p2_tl'
I29
tp50
a(S'w'
I1
tp51
a(S'p2_ll'
I31
tp52
a(S'p2_th'
I2
tp53
a(S'w'
I2
tp54
a(S'tr_lr'
I19
tp55
a(S'w'
I1
tp56
a(S'w'
I1
tp57
a(S'tr_tl'
I53
tp58
a(S'tr_ll'
I31
tp59
a(S'tr_th'
I4
tp60
a(S'w'
I2
tp61
a(S'no_vo'
I7
tp62
a(S'w'
I1
tp63
a(S'no_np'
I2
tp64
a(S'w'
I1
tp65
a(S'no_ll'
I31
tp66
a(S'w'
I651
tp67
a(S'p1_du'
I3
tp68
a(S'p1_vo'
I3
tp69
a(S'w'
I10
tp70
a(S'no_vo'
I3
tp71
a(S'w'
I1
tp72
a(S'no_np'
I1
tp73
a(S'w'
I1
tp74
a(S'no_ll'
I31
tp75
a(S'w'
I734
tp76
a(S'no_vo'
I2
tp77
a(S'w'
I1
tp78
a(S'no_ll'
I31
tp79
a(S'w'
I1453
tp80
a(S'no_vo'
I1
tp81
a(S'w'
I1
tp82
a(S'no_np'
I0
tp83
a(S'w'
I1
tp84
a(S'no_ll'
I31
tp85
a(S'w'
I745
tp86
a(S'no_vo'
I0
tp87
a(S'w'
I1
tp88
a(S'no_ll'
I31
tp89
a(S'w'
I12
tp90
a(S'p1_du'
I0
tp91
a(S'p1_vo'
I4
tp92
a(S'w'
I1
tp93
a(S'p1_tl'
I197
tp94
a(S'p1_ll'
I31
tp95
a(S'p1_th'
I1
tp96
a(S'w'
I7
tp97
a(S'tr_tl'
I138
tp98
a(S'w'
I1
tp99
a(S'tr_ll'
I31
tp100
a(S'tr_th'
I3
tp101
a(S'w'
I2
tp102
a(S'no_vo'
I7
tp103
a(S'w'
I1
tp104
a(S'no_np'
I2
tp105
a(S'no_ll'
I31
tp106
a(S'w'
I691
tp107
a(S'p1_du'
I3
tp108
a(S'p1_vo'
I3
tp109
a(S'w'
I10
tp110
a(S'no_vo'
I3
tp111
a(S'w'
I1
tp112
a(S'no_np'
I1
tp113
a(S'no_ll'
I31
tp114
a(S'w'
I728
tp115
a(S'p2_vo'
I1
tp116
a(S'w'
I7
tp117
a(S'no_vo'
I2
tp118
a(S'w'
I1
tp119
a(S'no_ll'
I31
tp120
a(S'w'
I1458
tp121
a(S'no_vo'
I1
tp122
a(S'w'
I1
tp123
a(S'no_np'
I0
tp124
a(S'w'
I1
tp125
a(S'no_ll'
I31
tp126
a(S'w'
I760
tp127
a(S'no_vo'
I0
tp128
a(S'w'
I1
tp129
a(S'no_ll'
I31
tp130
a(S'w'
I12
tp131
a(S'p1_du'
I0
tp132
a(S'p1_vo'
I4
tp133
a(S'w'
I1
tp134
a(S'p1_tl'
I148
tp135
a(S'w'
I1
tp136
a(S'p1_ll'
I31
tp137
a(S'w'
I2
tp138
a(S'p2_vo'
I2
tp139
a(S'w'
I2
tp140
a(S'p2_tl'
I199
tp141
a(S'p2_ll'
I31
tp142
a(S'p2_th'
I1
tp143
a(S'w'
I3
tp144
a(S'tr_tl'
I39
tp145
a(S'w'
I1
tp146
a(S'tr_ll'
I31
tp147
a(S'w'
I2
tp148
a(S'no_vo'
I7
tp149
a(S'w'
I1
tp150
a(S'no_np'
I2
tp151
a(S'w'
I1
tp152
a(S'no_ll'
I31
tp153
a(S'w'
I681
tp154
a(S'p1_du'
I3
tp155
a(S'p1_vo'
I3
tp156
a(S'w'
I10
tp157
a(S'no_vo'
I3
tp158
a(S'w'
I1
tp159
a(S'no_np'
I1
tp160
a(S'w'
I1
tp161
a(S'no_ll'
I31
tp162
a(S'w'
I734
tp163
a(S'no_vo'
I2
tp164
a(S'w'
I1
tp165
a(S'no_ll'
I31
tp166
a(S'w'
I1453
tp167
a(S'no_vo'
I1
tp168
a(S'w'
I1
tp169
a(S'no_np'
I0
tp170
a(S'w'
I1
tp171
a(S'no_ll'
I31
tp172
a(S'w'
I764
tp173
a(S'no_vo'
I0
tp174
a(S'w'
I1
tp175
a(S'no_ll'
I31
tp176
a(S'w'
I13
tp177
a(S'p1_du'
I0
tp178
a(S'p1_vo'
I6
tp179
a(S'w'
I1
tp180
a(S'p1_tl'
I197
tp181
a(S'p1_ll'
I31
tp182
a(S'w'
I3
tp183
a(S'p2_tl'
I150
tp184
a(S'w'
I1
tp185
a(S'p2_ll'
I31
tp186
a(S'w'
I3
tp187
a(S'tr_tl'
I138
tp188
a(S'w'
I1
tp189
a(S'tr_ll'
I31
tp190
a(S'w'
I2
tp191
a(S'no_vo'
I7
tp192
a(S'w'
I1
tp193
a(S'no_np'
I2
tp194
a(S'w'
I1
tp195
a(S'no_ll'
I31
tp196
a(S'w'
I676
tp197
a(S'p1_du'
I3
tp198
a(S'p1_vo'
I5
tp199
a(S'w'
I10
tp200
a(S'no_vo'
I3
tp201
a(S'w'
I1
tp202
a(S'no_np'
I1
tp203
a(S'w'
I1
tp204
a(S'no_ll'
I31
tp205
a(S'w'
I734
tp206
a(S'no_vo'
I2
tp207
a(S'w'
I1
tp208
a(S'no_ll'
I31
tp209
a(S'w'
I1453
tp210
a(S'no_vo'
I1
tp211
a(S'w'
I1
tp212
a(S'no_np'
I0
tp213
a(S'w'
I1
tp214
a(S'no_ll'
I31
tp215
a(S'w'
I763
tp216
a(S'no_vo'
I0
tp217
a(S'w'
I1
tp218
a(S'no_ll'
I31
tp219
a(S'w'
I12
tp220
a(S'p1_du'
I0
tp221
a(S'p1_vo'
I6
tp222
a(S'w'
I1
tp223
a(S'p1_tl'
I148
tp224
a(S'w'
I1
tp225
a(S'p1_ll'
I31
tp226
a(S'w'
I2
tp227
a(S'p2_vo'
I4
tp228
a(S'w'
I1
tp229
a(S'p2_tl'
I199
tp230
a(S'w'
I1
tp231
a(S'p2_ll'
I31
tp232
a(S'w'
I3
tp233
a(S'tr_tl'
I39
tp234
a(S'tr_ll'
I31
tp235
a(S'w'
I3
tp236
a(S'no_vo'
I7
tp237
a(S'w'
I1
tp238
a(S'no_np'
I2
tp239
a(S'no_ll'
I31
tp240
a(S'w'
I678
tp241
a(S'p1_du'
I3
tp242
a(S'p1_vo'
I5
tp243
a(S'w'
I4
tp244
a(S'p2_vo'
I3
tp245
a(S'w'
I6
tp246
a(S'no_vo'
I3
tp247
a(S'w'
I2
tp248
a(S'no_np'
I1
tp249
a(S'no_ll'
I31
tp250
a(S'w'
I734
tp251
a(S'no_vo'
I2
tp252
a(S'w'
I1
tp253
a(S'no_ll'
I31
tp254
a(S'w'
I1459
tp255
a(S'no_vo'
I1
tp256
a(S'w'
I1
tp257
a(S'no_np'
I0
tp258
a(S'no_ll'
I31
tp259
a(S'w'
I755
tp260
a(S'no_vo'
I0
tp261
a(S'w'
I1
tp262
a(S'no_ll'
I31
tp263
a(S'w'
I12
tp264
a(S'p1_du'
I0
tp265
a(S'p1_vo'
I6
tp266
a(S'w'
I1
tp267
a(S'p1_tl'
I83
tp268
a(S'w'
I1
tp269
a(S'p1_ll'
I31
tp270
a(S'w'
I2
tp271
a(S'p2_vo'
I5
tp272
a(S'w'
I1
tp273
a(S'p2_tl'
I150
tp274
a(S'w'
I1
tp275
a(S'p2_ll'
I31
tp276
a(S'w'
I3
tp277
a(S'tr_tl'
I167
tp278
a(S'tr_ll'
I31
tp279
a(S'tr_th'
I2
tp280
a(S'w'
I3
tp281
a(S'no_vo'
I7
tp282
a(S'w'
I1
tp283
a(S'no_np'
I2
tp284
a(S'no_ll'
I31
tp285
a(S'w'
I681
tp286
a(S'p1_du'
I3
tp287
a(S'p1_vo'
I5
tp288
a(S'w'
I4
tp289
a(S'p2_vo'
I4
tp290
a(S'w'
I6
tp291
a(S'no_vo'
I3
tp292
a(S'w'
I2
tp293
a(S'no_np'
I1
tp294
a(S'no_ll'
I31
tp295
a(S'w'
I734
tp296
a(S'no_vo'
I2
tp297
a(S'w'
I1
tp298
a(S'no_ll'
I31
tp299
a(S'w'
I1459
tp300
a(S'no_vo'
I1
tp301
a(S'w'
I1
tp302
a(S'no_np'
I0
tp303
a(S'no_ll'
I31
tp304
a(S'w'
I755
tp305
a(S'no_vo'
I0
tp306
a(S'w'
I1
tp307
a(S'no_ll'
I31
tp308
a(S'w'
I12
tp309
a(S'p1_du'
I0
tp310
a(S'p1_vo'
I8
tp311
a(S'w'
I1
tp312
a(S'p1_tl'
I148
tp313
a(S'w'
I1
tp314
a(S'p1_ll'
I31
tp315
a(S'w'
I2
tp316
a(S'p2_vo'
I5
tp317
a(S'w'
I1
tp318
a(S'p2_tl'
I85
tp319
a(S'w'
I1
tp320
a(S'p2_ll'
I31
tp321
a(S'w'
I3
tp322
a(S'tr_tl'
I39
tp323
a(S'w'
I1
tp324
a(S'tr_ll'
I31
tp325
a(S'tr_th'
I3
tp326
a(S'w'
I2
tp327
a(S'no_vo'
I7
tp328
a(S'w'
I1
tp329
a(S'no_np'
I2
tp330
a(S'w'
I1
tp331
a(S'no_ll'
I31
tp332
a(S'w'
I680
tp333
a(S'p1_du'
I3
tp334
a(S'p1_vo'
I6
tp335
a(S'w'
I4
tp336
a(S'p2_vo'
I4
tp337
a(S'w'
I6
tp338
a(S'no_vo'
I3
tp339
a(S'w'
I2
tp340
a(S'no_np'
I1
tp341
a(S'no_ll'
I31
tp342
a(S'w'
I734
tp343
a(S'no_vo'
I2
tp344
a(S'w'
I1
tp345
a(S'no_ll'
I31
tp346
a(S'w'
I1459
tp347
a(S'no_vo'
I1
tp348
a(S'w'
I1
tp349
a(S'no_np'
I0
tp350
a(S'no_ll'
I31
tp351
a(S'w'
I751
tp352
a(S'no_vo'
I0
tp353
a(S'w'
I1
tp354
a(S'no_ll'
I31
tp355
a(S'w'
I12
tp356
a(S'p1_du'
I0
tp357
a(S'p1_vo'
I8
tp358
a(S'w'
I2
tp359
a(S'p1_tl'
I83
tp360
a(S'p1_ll'
I31
tp361
a(S'w'
I2
tp362
a(S'p2_vo'
I5
tp363
a(S'w'
I2
tp364
a(S'p2_tl'
I150
tp365
a(S'p2_ll'
I31
tp366
a(S'w'
I3
tp367
a(S'tr_tl'
I167
tp368
a(S'w'
I1
tp369
a(S'tr_ll'
I31
tp370
a(S'tr_th'
I2
tp371
a(S'w'
I2
tp372
a(S'no_vo'
I7
tp373
a(S'w'
I1
tp374
a(S'no_np'
I2
tp375
a(S'w'
I1
tp376
a(S'no_ll'
I31
tp377
a(S'w'
I684
tp378
a(S'p1_du'
I3
tp379
a(S'p1_vo'
I6
tp380
a(S'w'
I4
tp381
a(S'p2_vo'
I4
tp382
a(S'w'
I6
tp383
a(S'no_vo'
I3
tp384
a(S'w'
I2
tp385
a(S'no_np'
I1
tp386
a(S'no_ll'
I31
tp387
a(S'w'
I734
tp388
a(S'no_vo'
I2
tp389
a(S'w'
I1
tp390
a(S'no_ll'
I31
tp391
a(S'w'
I1459
tp392
a(S'no_vo'
I1
tp393
a(S'w'
I1
tp394
a(S'no_np'
I0
tp395
a(S'no_ll'
I31
tp396
a(S'w'
I751
tp397
a(S'no_vo'
I0
tp398
a(S'w'
I1
tp399
a(S'no_ll'
I31
tp400
a(S'w'
I12
tp401
a(S'p1_du'
I0
tp402
a(S'p1_vo'
I8
tp403
a(S'w'
I2
tp404
a(S'p1_tl'
I46
tp405
a(S'p1_ll'
I31
tp406
a(S'w'
I2
tp407
a(S'p2_vo'
I5
tp408
a(S'w'
I2
tp409
a(S'p2_tl'
I85
tp410
a(S'p2_ll'
I31
tp411
a(S'w'
I3
tp412
a(S'tr_tl'
I93
tp413
a(S'w'
I1
tp414
a(S'tr_ll'
I31
tp415
a(S'w'
I2
tp416
a(S'no_vo'
I7
tp417
a(S'w'
I1
tp418
a(S'no_np'
I2
tp419
a(S'w'
I1
tp420
a(S'no_ll'
I31
tp421
a(S'w'
I684
tp422
a(S'p1_du'
I3
tp423
a(S'p1_vo'
I6
tp424
a(S'w'
I4
tp425
a(S'p2_vo'
I4
tp426
a(S'w'
I6
tp427
a(S'no_vo'
I3
tp428
a(S'w'
I2
tp429
a(S'no_np'
I1
tp430
a(S'no_ll'
I31
tp431
a(S'w'
I734
tp432
a(S'no_vo'
I2
tp433
a(S'w'
I1
tp434
a(S'no_ll'
I31
tp435
a(S'w'
I1459
tp436
a(S'no_vo'
I1
tp437
a(S'w'
I1
tp438
a(S'no_np'
I0
tp439
a(S'no_ll'
I31
tp440
a(S'w'
I751
tp441
a(S'no_vo'
I0
tp442
a(S'w'
I1
tp443
a(S'no_ll'
I31
tp444
a(S'w'
I12
tp445
a(S'p1_du'
I0
tp446
a(S'p1_vo'
I8
tp447
a(S'w'
I2
tp448
a(S'p1_tl'
I83
tp449
a(S'p1_ll'
I31
tp450
a(S'w'
I2
tp451
a(S'p2_vo'
I5
tp452
a(S'w'
I2
tp453
a(S'p2_tl'
I48
tp454
a(S'p2_ll'
I31
tp455
a(S'w'
I3
tp456
a(S'tr_tl'
I167
tp457
a(S'w'
I1
tp458
a(S'tr_ll'
I31
tp459
a(S'w'
I2
tp460
a(S'no_vo'
I7
tp461
a(S'w'
I1
tp462
a(S'no_np'
I2
tp463
a(S'w'
I1
tp464
a(S'no_ll'
I31
tp465
a(S'w'
I684
tp466
a(S'p1_du'
I3
tp467
a(S'p1_vo'
I6
tp468
a(S'w'
I4
tp469
a(S'p2_vo'
I4
tp470
a(S'w'
I6
tp471
a(S'no_vo'
I3
tp472
a(S'w'
I2
tp473
a(S'no_np'
I1
tp474
a(S'no_ll'
I31
tp475
a(S'w'
I734
tp476
a(S'no_vo'
I2
tp477
a(S'w'
I1
tp478
a(S'no_ll'
I31
tp479
a(S'w'
I1459
tp480
a(S'no_vo'
I1
tp481
a(S'w'
I1
tp482
a(S'no_np'
I0
tp483
a(S'no_ll'
I31
tp484
a(S'w'
I751
tp485
a(S'no_vo'
I0
tp486
a(S'w'
I1
tp487
a(S'no_ll'
I31
tp488
a(S'w'
I12
tp489
a(S'p1_du'
I0
tp490
a(S'p1_vo'
I8
tp491
a(S'w'
I2
tp492
a(S'p1_tl'
I46
tp493
a(S'p1_ll'
I31
tp494
a(S'w'
I2
tp495
a(S'p2_vo'
I5
tp496
a(S'w'
I2
tp497
a(S'p2_tl'
I85
tp498
a(S'p2_ll'
I31
tp499
a(S'w'
I3
tp500
a(S'tr_tl'
I93
tp501
a(S'w'
I1
tp502
a(S'tr_ll'
I31
tp503
a(S'w'
I2
tp504
a(S'no_vo'
I7
tp505
a(S'w'
I1
tp506
a(S'no_np'
I2
tp507
a(S'w'
I1
tp508
a(S'no_ll'
I31
tp509
a(S'w'
I684
tp510
a(S'p1_du'
I3
tp511
a(S'p1_vo'
I6
tp512
a(S'w'
I4
tp513
a(S'p2_vo'
I4
tp514
a(S'w'
I6
tp515
a(S'no_vo'
I3
tp516
a(S'w'
I2
tp517
a(S'no_np'
I1
tp518
a(S'no_ll'
I31
tp519
a(S'w'
I734
tp520
a(S'no_vo'
I2
tp521
a(S'w'
I1
tp522
a(S'no_ll'
I31
tp523
a(S'w'
I1459
tp524
a(S'no_vo'
I1
tp525
a(S'w'
I1
tp526
a(S'no_np'
I0
tp527
a(S'no_ll'
I31
tp528
a(S'w'
I757
tp529
a(S'no_vo'
I0
tp530
a(S'w'
I1
tp531
a(S'no_ll'
I31
tp532
a(S'w'
I12
tp533
a(S'p1_du'
I0
tp534
a(S'p1_vo'
I8
tp535
a(S'w'
I1
tp536
a(S'p1_tl'
I226
tp537
a(S'w'
I1
tp538
a(S'p1_ll'
I31
tp539
a(S'p1_th'
I0
tp540
a(S'w'
I2
tp541
a(S'p2_vo'
I5
tp542
a(S'w'
I1
tp543
a(S'p2_tl'
I48
tp544
a(S'w'
I1
tp545
a(S'p2_ll'
I31
tp546
a(S'w'
I2
tp547
a(S'tr_lh'
I1
tp548
a(S'tr_lr'
I48
tp549
a(S'w'
I1
tp550
a(S'tr_tl'
I197
tp551
a(S'w'
I1
tp552
a(S'tr_ll'
I31
tp553
a(S'tr_th'
I1
tp554
a(S'w'
I2
tp555
a(S'no_vo'
I7
tp556
a(S'w'
I1
tp557
a(S'no_np'
I2
tp558
a(S'w'
I1
tp559
a(S'no_ll'
I31
tp560
a(S'w'
I678
tp561
a(S'p1_du'
I3
tp562
a(S'p1_vo'
I6
tp563
a(S'w'
I4
tp564
a(S'p2_vo'
I4
tp565
a(S'w'
I6
tp566
a(S'no_vo'
I3
tp567
a(S'w'
I2
tp568
a(S'no_np'
I1
tp569
a(S'no_ll'
I31
tp570
a(S'w'
I734
tp571
a(S'no_vo'
I2
tp572
a(S'w'
I1
tp573
a(S'no_ll'
I31
tp574
a(S'w'
I1459
tp575
a(S'no_vo'
I1
tp576
a(S'w'
I1
tp577
a(S'no_np'
I0
tp578
a(S'no_ll'
I31
tp579
a(S'w'
I738
tp580
a(S'no_vo'
I0
tp581
a(S'no_ll'
I31
tp582
a(S'w'
I3
tp583
a(S'ch_no'
I1
tp584
a(S'ch_tr'
I1
tp585
a(S'ch_p2'
I1
tp586
a(S'ch_p1'
I1
tp587
a(S'w'
I16
tp588
a(S'p2_vo'
I5
tp589
a(S'w'
I1
tp590
a(S'p2_tl'
I228
tp591
a(S'p2_ll'
I31
tp592
a(S'p2_th'
I0
tp593
a(S'w'
I6
tp594
a(S'no_vo'
I7
tp595
a(S'w'
I1
tp596
a(S'no_np'
I2
tp597
a(S'w'
I1
tp598
a(S'no_ll'
I31
tp599
a(S'w'
I693
tp600
a(S'p2_vo'
I4
tp601
a(S'w'
I7
tp602
a(S'no_vo'
I3
tp603
a(S'w'
I1
tp604
a(S'no_np'
I1
tp605
a(S'no_ll'
I31
tp606
a(S'w'
I735
tp607
a(S'no_vo'
I2
tp608
a(S'w'
I2
tp609
a(S'no_ll'
I31
tp610
a(S'w'
I1448
tp611
a(S'p1_vo'
I5
tp612
a(S'w'
I10
tp613
a(S'no_vo'
I1
tp614
a(S'w'
I1
tp615
a(S'no_np'
I0
tp616
a(S'w'
I1
tp617
a(S'no_ll'
I31
tp618
a(S'w'
I723
tp619
a(S'no_vo'
I0
tp620
a(S'w'
I1
tp621
a(S'no_ll'
I31
tp622
a(S'w'
I1
tp623
a(S'ch_no'
I1
tp624
a(S'ch_tr'
I1
tp625
a(S'ch_p2'
I1
tp626
a(S'ch_p1'
I1
tp627
a(S'w'
I1
tp628
a(S'ch_no'
I1
tp629
a(S'ch_tr'
I1
tp630
a(S'ch_p2'
I1
tp631
a(S'ch_p1'
I1
tp632
a(S'w'
I22
tp633
a(S'no_vo'
I7
tp634
a(S'w'
I1
tp635
a(S'no_np'
I2
tp636
a(S'w'
I1
tp637
a(S'no_ll'
I31
tp638
a(S'w'
I705
tp639
a(S'p1_vo'
I4
tp640
a(S'w'
I10
tp641
a(S'no_vo'
I3
tp642
a(S'w'
I1
tp643
a(S'no_np'
I1
tp644
a(S'w'
I1
tp645
a(S'no_ll'
I31
tp646
a(S'w'
I727
tp647
a(S'p2_vo'
I3
tp648
a(S'w'
I7
tp649
a(S'no_vo'
I2
tp650
a(S'w'
I1
tp651
a(S'no_ll'
I31
tp652
a(S'w'
I717
tp653
a(S'p1_vo'
I3
tp654
a(S'w'
I747
tp655
a(S'no_vo'
I1
tp656
a(S'w'
I1
tp657
a(S'no_np'
I0
tp658
a(S'no_ll'
I31
tp659
a(S'w'
I730
tp660
a(S'no_vo'
I0
tp661
a(S'w'
I1
tp662
a(S'no_ll'
I31
tp663
a(S'w'
I12
tp664
a(S'p1_vo'
I2
tp665
a(S'w'
I1
tp666
a(S'p1_tl'
I227
tp667
a(S'w'
I3
tp668
a(S'p2_vo'
I2
tp669
a(S'w'
I7
tp670
a(S'no_vo'
I7
tp671
a(S'w'
I1
tp672
a(S'no_np'
I2
tp673
a(S'no_ll'
I31
tp674
a(S'w'
I705
tp675
a(S'p1_tl'
I228
tp676
a(S'w'
I9
tp677
a(S'no_vo'
I3
tp678
a(S'w'
I1
tp679
a(S'no_np'
I1
tp680
a(S'w'
I1
tp681
a(S'no_ll'
I31
tp682
a(S'w'
I725
tp683
a(S'p1_vo'
I1
tp684
a(S'w'
I1
tp685
a(S'p1_tl'
I229
tp686
a(S'w'
I9
tp687
a(S'no_vo'
I2
tp688
a(S'w'
I1
tp689
a(S'no_ll'
I31
tp690
a(S'w'
I718
tp691
a(S'p1_tl'
I228
tp692
a(S'w'
I3
tp693
a(S'p2_vo'
I1
tp694
a(S'w'
I734
tp695
a(S'p1_tl'
I227
tp696
a(S'w'
I9
tp697
a(S'no_vo'
I1
tp698
a(S'w'
I1
tp699
a(S'no_np'
I0
tp700
a(S'w'
I1
tp701
a(S'no_ll'
I31
tp702
a(S'w'
I765
tp703
a(S'no_vo'
I0
tp704
a(S'w'
I1
tp705
a(S'no_ll'
I31
tp706
a(S'w'
I1
tp707
a(S'ch_no'
I1
tp708
a(S'ch_tr'
I1
tp709
a(S'ch_p2'
I1
tp710
a(S'ch_p1'
I1
tp711
a(S'w'
I2
tp712
a(S'ch_no'
I1
tp713
a(S'ch_tr'
I1
tp714
a(S'ch_p2'
I1
tp715
a(S'ch_p1'
I1
tp716
a(S'w'
I12
tp717
a(S'p1_du'
I0
tp718
a(S'p1_vo'
I8
tp719
a(S'w'
I1
tp720
a(S'p1_tl'
I202
tp721
a(S'w'
I1
tp722
a(S'p1_ll'
I31
tp723
a(S'w'
I2
tp724
a(S'p2_vo'
I8
tp725
a(S'w'
I1
tp726
a(S'p2_tl'
I15
tp727
a(S'w'
I1
tp728
a(S'p2_ll'
I31
tp729
a(S'p2_th'
I1
tp730
a(S'w'
I2
tp731
a(S'tr_lh'
I0
tp732
a(S'tr_lr'
I21
tp733
a(S'w'
I1
tp734
a(S'tr_tl'
I148
tp735
a(S'w'
I1
tp736
a(S'tr_ll'
I31
tp737
a(S'w'
I2
tp738
a(S'no_vo'
I7
tp739
a(S'w'
I1
tp740
a(S'no_np'
I2
tp741
a(S'w'
I1
tp742
a(S'no_ll'
I31
tp743
a(S'w'
I670
tp744
a(S'p1_du'
I3
tp745
a(S'p1_vo'
I6
tp746
a(S'w'
I4
tp747
a(S'p2_vo'
I7
tp748
a(S'w'
I7
tp749
a(S'no_vo'
I3
tp750
a(S'w'
I1
tp751
a(S'no_np'
I1
tp752
a(S'no_ll'
I31
tp753
a(S'w'
I728
tp754
a(S'p2_vo'
I6
tp755
a(S'w'
I6
tp756
a(S'no_vo'
I2
tp757
a(S'w'
I2
tp758
a(S'no_ll'
I31
tp759
a(S'w'
I1458
tp760
a(S'no_vo'
I1
tp761
a(S'w'
I1
tp762
a(S'no_np'
I0
tp763
a(S'no_ll'
I31
tp764
a(S'w'
I1449
tp765
a(S'no_vo'
I0
tp766
a(S'no_ll'
I31
tp767
a(S'w'
I7
tp768
a(S'p2_vo'
I5
tp769
a(S'w'
I1460
tp770
a(S'p2_vo'
I4
tp771
a(S'w'
I731
tp772
a(S'p1_vo'
I5
tp773
a(S'w'
I737
tp774
a(S'p2_vo'
I3
tp775
a(S'w'
I730
tp776
a(S'p1_vo'
I4
tp777
a(S'w'
I738
tp778
a(S'p2_vo'
I2
tp779
a(S'w'
I730
tp780
a(S'p1_vo'
I3
tp781
a(S'w'
I737
tp782
a(S'p2_vo'
I1
tp783
a(S'w'
I739
tp784
a(S'p1_vo'
I2
tp785
a(S'w'
I1
tp786
a(S'p1_tl'
I203
tp787
a(S'w'
I4
tp788
a(S'p2_tl'
I16
tp789
a(S'w'
I727
tp790
a(S'p1_tl'
I204
tp791
a(S'w'
I3
tp792
a(S'p2_tl'
I17
tp793
a(S'w'
I730
tp794
a(S'p1_vo'
I1
tp795
a(S'w'
I1
tp796
a(S'p1_tl'
I205
tp797
a(S'w'
I3
tp798
a(S'p2_tl'
I18
tp799
a(S'w'
I730
tp800
a(S'p1_tl'
I204
tp801
a(S'w'
I4
tp802
a(S'p2_tl'
I17
tp803
a(S'w'
I730
tp804
a(S'p1_tl'
I203
tp805
a(S'w'
I4
tp806
a(S'p2_tl'
I16
tp807
a(S'w'
I771
tp808
a(S'w'
I1
tp809
a(S'no_ll'
I31
tp810
a(S'w'
I1
tp811
a(S'ch_no'
I1
tp812
a(S'ch_tr'
I1
tp813
a(S'ch_p2'
I1
tp814
a(S'ch_p1'
I1
tp815
a(S'w'
I1
tp816
a(S'ch_no'
I1
tp817
a(S'ch_tr'
I1
tp818
a(S'ch_p2'
I1
tp819
a(S'ch_p1'
I1
tp820
a(S'w'
I13
tp821
a(S'p1_du'
I0
tp822
a(S'p1_vo'
I9
tp823
a(S'w'
I1
tp824
a(S'p1_tl'
I202
tp825
a(S'p1_ll'
I31
tp826
a(S'w'
I3
tp827
a(S'p2_vo'
I9
tp828
a(S'w'
I1
tp829
a(S'p2_tl'
I15
tp830
a(S'p2_ll'
I31
tp831
a(S'w'
I3
tp832
a(S'tr_lh'
I1
tp833
a(S'tr_lr'
I48
tp834
a(S'w'
I1
tp835
a(S'tr_ll'
I31
tp836
a(S'w'
I2
tp837
a(S'no_vo'
I7
tp838
a(S'w'
I1
tp839
a(S'no_np'
I2
tp840
a(S'w'
I1
tp841
a(S'no_ll'
I31
tp842
a(S'w'
I674
tp843
a(S'p1_du'
I3
tp844
a(S'p1_vo'
I7
tp845
a(S'w'
I4
tp846
a(S'p2_vo'
I8
tp847
a(S'w'
I7
tp848
a(S'no_vo'
I3
tp849
a(S'w'
I1
tp850
a(S'no_np'
I1
tp851
a(S'no_ll'
I31
tp852
a(S'w'
I728
tp853
a(S'p2_vo'
I7
tp854
a(S'w'
I6
tp855
a(S'no_vo'
I2
tp856
a(S'w'
I2
tp857
a(S'no_ll'
I31
tp858
a(S'w'
I1458
tp859
a(S'no_vo'
I1
tp860
a(S'w'
I1
tp861
a(S'no_np'
I0
tp862
a(S'no_ll'
I31
tp863
a(S'w'
I1448
tp864
a(S'no_vo'
I0
tp865
a(S'w'
I1
tp866
a(S'no_ll'
I31
tp867
a(S'w'
I4403
tp868
a(S'p2_vo'
I6
tp869
a(S'w'
I2206
tp870
a(S'p1_vo'
I6
tp871
a(S'w'
I1
tp872
a(S'p1_tl'
I203
tp873
a(S'w'
I4
tp874
a(S'p2_tl'
I16
tp875
a(S'w'
I726
tp876
a(S'p1_tl'
I204
tp877
a(S'w'
I4
tp878
a(S'p2_tl'
I17
tp879
a(S'w'
I730
tp880
a(S'p1_tl'
I205
tp881
a(S'w'
I4
tp882
a(S'p2_tl'
I18
tp883
a(S'w'
I730
tp884
a(S'p1_tl'
I204
tp885
a(S'w'
I4
tp886
a(S'p2_tl'
I17
tp887
a(S'w'
I730
tp888
a(S'p1_tl'
I203
tp889
a(S'w'
I3
tp890
a(S'p2_tl'
I16
tp891
a(S'w'
I766
tp892
a(S'p1_vo'
I5
tp893
a(S'w'
I1
tp894
a(S'p1_tl'
I214
tp895
a(S'w'
I1
tp896
a(S'p1_ll'
I31
tp897
a(S'w'
I2
tp898
a(S'p2_vo'
I5
tp899
a(S'w'
I1
tp900
a(S'p2_tl'
I31
tp901
a(S'w'
I1
tp902
a(S'p2_ll'
I31
tp903
a(S'w'
I2
tp904
a(S'tr_lh'
I0
tp905
a(S'tr_lr'
I19
tp906
a(S'w'
I1
tp907
a(S'tr_tl'
I172
tp908
a(S'w'
I1
tp909
a(S'tr_ll'
I31
tp910
a(S'w'
I716
tp911
a(S'p1_tl'
I226
tp912
a(S'p1_ll'
I31
tp913
a(S'w'
I4
tp914
a(S'p2_tl'
I48
tp915
a(S'p2_ll'
I31
tp916
a(S'w'
I3
tp917
a(S'tr_tl'
I197
tp918
a(S'w'
I1
tp919
a(S'tr_ll'
I31
tp920
a(S'w'
I722
tp921
a(S'p1_tl'
I240
tp922
a(S'w'
I1
tp923
a(S'p1_ll'
I31
tp924
a(S'w'
I3
tp925
a(S'p2_tl'
I66
tp926
a(S'p2_ll'
I31
tp927
a(S'w'
I4
tp928
a(S'tr_tl'
I224
tp929
a(S'tr_ll'
I31
tp930
a(S'w'
I729
tp931
a(S'p1_vo'
I4
tp932
a(S'w'
I1
tp933
a(S'p1_tl'
I254
tp934
a(S'w'
I1
tp935
a(S'p1_ll'
I31
tp936
a(S'w'
I2
tp937
a(S'p2_vo'
I4
tp938
a(S'w'
I1
tp939
a(S'p2_tl'
I85
tp940
a(S'w'
I1
tp941
a(S'p2_ll'
I31
tp942
a(S'w'
I3
tp943
a(S'tr_tl'
I252
tp944
a(S'tr_ll'
I31
tp945
a(S'w'
I722
tp946
a(S'p1_tl'
I13
tp947
a(S'p1_ll'
I31
tp948
a(S'p1_th'
I1
tp949
a(S'w'
I4
tp950
a(S'p2_tl'
I106
tp951
a(S'p2_ll'
I31
tp952
a(S'w'
I3
tp953
a(S'tr_tl'
I27
tp954
a(S'w'
I1
tp955
a(S'tr_ll'
I31
tp956
a(S'tr_th'
I2
tp957
a(S'w'
I729
tp958
a(S'p1_vo'
I3
tp959
a(S'w'
I1
tp960
a(S'p1_tl'
I29
tp961
a(S'p1_ll'
I31
tp962
a(S'w'
I3
tp963
a(S'p2_vo'
I3
tp964
a(S'w'
I1
tp965
a(S'p2_tl'
I127
tp966
a(S'p2_ll'
I31
tp967
a(S'w'
I4
tp968
a(S'tr_tl'
I59
tp969
a(S'tr_ll'
I31
tp970
a(S'w'
I721
tp971
a(S'p1_tl'
I46
tp972
a(S'w'
I1
tp973
a(S'p1_ll'
I31
tp974
a(S'w'
I3
tp975
a(S'p2_tl'
I150
tp976
a(S'w'
I1
tp977
a(S'p2_ll'
I31
tp978
a(S'w'
I3
tp979
a(S'tr_tl'
I93
tp980
a(S'tr_ll'
I31
tp981
a(S'w'
I726
tp982
a(S'p1_tl'
I64
tp983
a(S'w'
I1
tp984
a(S'p1_ll'
I31
tp985
a(S'w'
I3
tp986
a(S'p2_tl'
I174
tp987
a(S'w'
I1
tp988
a(S'p2_ll'
I31
tp989
a(S'w'
I3
tp990
a(S'tr_tl'
I129
tp991
a(S'tr_ll'
I31
tp992
a(S'w'
I730
tp993
a(S'p1_vo'
I2
tp994
a(S'w'
I1
tp995
a(S'p1_tl'
I83
tp996
a(S'w'
I1
tp997
a(S'p1_ll'
I31
tp998
a(S'w'
I2
tp999
a(S'p2_vo'
I2
tp1000
a(S'w'
I1
tp1001
a(S'p2_tl'
I199
tp1002
a(S'w'
I1
tp1003
a(S'p2_ll'
I31
tp1004
a(S'w'
I3
tp1005
a(S'tr_tl'
I167
tp1006
a(S'w'
I1
tp1007
a(S'tr_ll'
I31
tp1008
a(S'w'
I719
tp1009
a(S'p1_tl'
I104
tp1010
a(S'w'
I1
tp1011
a(S'p1_ll'
I31
tp1012
a(S'w'
I3
tp1013
a(S'p2_tl'
I226
tp1014
a(S'w'
I1
tp1015
a(S'p2_ll'
I31
tp1016
a(S'w'
I3
tp1017
a(S'tr_tl'
I207
tp1018
a(S'w'
I1
tp1019
a(S'tr_ll'
I31
tp1020
a(S'w'
I725
tp1021
a(S'p1_tl'
I125
tp1022
a(S'w'
I1
tp1023
a(S'p1_ll'
I31
tp1024
a(S'w'
I3
tp1025
a(S'p2_tl'
I254
tp1026
a(S'w'
I1
tp1027
a(S'p2_ll'
I31
tp1028
a(S'w'
I3
tp1029
a(S'tr_tl'
I250
tp1030
a(S'tr_ll'
I31
tp1031
a(S'w'
I726
tp1032
a(S'p1_tl'
I148
tp1033
a(S'w'
I1
tp1034
a(S'p1_ll'
I31
tp1035
a(S'w'
I3
tp1036
a(S'p2_tl'
I29
tp1037
a(S'p2_ll'
I31
tp1038
a(S'p2_th'
I2
tp1039
a(S'w'
I4
tp1040
a(S'tr_tl'
I39
tp1041
a(S'tr_ll'
I31
tp1042
a(S'tr_th'
I3
tp1043
a(S'w'
I726
tp1044
a(S'p1_tl'
I172
tp1045
a(S'p1_ll'
I31
tp1046
a(S'w'
I4
tp1047
a(S'p2_tl'
I61
tp1048
a(S'p2_ll'
I31
tp1049
a(S'w'
I4
tp1050
a(S'tr_tl'
I87
tp1051
a(S'tr_ll'
I31
tp1052
a(S'w'
I680
tp1053
a(S'p1_du'
I0
tp1054
a(S'p1_vo'
I0
tp1055
a(S'w'
I1
tp1056
a(S'p1_tl'
I0
tp1057
a(S'p1_ll'
I31
tp1058
a(S'p1_th'
I7
tp1059
a(S'w'
I7
tp1060
a(S'p2_du'
I0
tp1061
a(S'p2_vo'
I0
tp1062
a(S'w'
I1
tp1063
a(S'p2_tl'
I0
tp1064
a(S'p2_ll'
I31
tp1065
a(S'p2_th'
I7
tp1066
a(S'w'
I7
tp1067
a(S'tr_tl'
I255
tp1068
a(S'tr_ll'
I31
tp1069
a(S'tr_th'
I7
tp1070
a(S'tr_lr'
I0
tp1071
a(S'w'
I159
tp1072
a.