(lp1
(S'clock'
p2
I1789772
tp3
a(S'p1_lh'
I1
tp4
a(S'p1_cv'
I1
tp5
a(S'p2_lh'
I1
tp6
a(S'p2_cv'
I1
tp7
a(S'no_lh'
I1
tp8
a(S'no_cv'
I1
tp9
a(S'w'
I1
tp10
a(S'tr_tl'
I255
tp11
a(S'p1_sp'
I7
tp12
a(S'p1_sn'
I1
tp13
a(S'p1_ss'
I7
tp14
a(S'p2_sp'
I7
tp15
a(S'p2_sn'
I1
tp16
a(S'p2_ss'
I7
tp17
a(S'p1_ll'
I31
tp18
a(S'p1_th'
I7
tp19
a(S'w'
I1
tp20
a(S'p2_ll'
I31
tp21
a(S'p2_th'
I7
tp22
a(S'tr_ll'
I31
tp23
a(S'tr_th'
I7
tp24
a(S'w'
I17
tp25
a(S'p2_du'
I3
tp26
a(S'p2_vo'
I14
tp27
a(S'w'
I1
tp28
a(S'p2_tl'
I70
tp29
a(S'p2_ll'
I31
tp30
a(S'p2_th'
I0
tp31
a(S'w'
I2932
tp32
a(S'p2_vo'
I2
tp33
a(S'w'
I1
tp34
a(S'p2_ll'
I31
tp35
a(S'w'
I1466
tp36
a(S'p2_vo'
I13
tp37
a(S'w'
I1
tp38
a(S'p2_tl'
I106
tp39
a(S'w'
I1
tp40
a(S'p2_ll'
I31
tp41
a(S'w'
I2933
tp42
a(S'p2_vo'
I2
tp43
a(S'w'
I2
tp44
a(S'p2_ll'
I31
tp45
a(S'w'
I1466
tp46
a(S'p2_vo'
I13
tp47
a(S'w'
I1
tp48
a(S'p2_tl'
I84
tp49
a(S'w'
I1
tp50
a(S'p2_ll'
I31
tp51
a(S'w'
I2933
tp52
a(S'p2_vo'
I2
tp53
a(S'w'
I1
tp54
a(S'p2_ll'
I31
tp55
a(S'w'
I1467
tp56
a(S'p2_vo'
I13
tp57
a(S'w'
I1
tp58
a(S'p2_tl'
I106
tp59
a(S'w'
I1
tp60
a(S'p2_ll'
I31
tp61
a(S'w'
I2933
tp62
a(S'p2_vo'
I3
tp63
a(S'w'
I1
tp64
a(S'p2_ll'
I31
tp65
a(S'w'
I4400
tp66
a(S'p2_vo'
I1
tp67
a(S'w'
I1
tp68
a(S'p2_ll'
I31
tp69
a(S'w'
I4398
tp70
a(S'p2_du'
I0
tp71
a(S'p2_vo'
I0
tp72
a(S'p2_tl'
I0
tp73
a(S'w'
I1
tp74
a(S'p2_ll'
I31
tp75
a(S'p2_th'
I7
tp76
a.