(lp1
(S'clock'
p2
I1789772
tp3
a(S'fc_mo'
I1
tp4
a(S'ch_no'
I0
tp5
a(S'ch_tr'
I0
tp6
a(S'ch_p2'
I0
tp7
a(S'ch_p1'
I0
tp8
a(S'w'
I735
tp9
a(S'ch_no'
I0
tp10
a(S'ch_tr'
I1
tp11
a(S'ch_p2'
I0
tp12
a(S'ch_p1'
I1
tp13
a(S'p1_du'
I2
tp14
a(S'p1_vo'
I3
tp15
a(S'w'
I1
tp16
a(S'p1_sp'
I7
tp17
a(S'p1_sn'
I1
tp18
a(S'p1_tl'
I106
tp19
a(S'w'
I1
tp20
a(S'p1_ll'
I1
tp21
a(S'w'
I2
tp22
a(S'tr_lr'
I32
tp23
a(S'w'
I1
tp24
a(S'tr_tl'
I213
tp25
a(S'tr_ll'
I1
tp26
a(S'w'
I15406
tp27
a(S'p1_tl'
I95
tp28
a(S'w'
I1
tp29
a(S'p1_ll'
I1
tp30
a(S'w'
I5135
tp31
a(S'p1_tl'
I89
tp32
a(S'w'
I1
tp33
a(S'p1_ll'
I1
tp34
a(S'w'
I3
tp35
a(S'tr_tl'
I240
tp36
a(S'tr_ll'
I1
tp37
a(S'w'
I11737
tp38
a(S'p1_tl'
I106
tp39
a(S'w'
I1
tp40
a(S'p1_ll'
I1
tp41
a(S'w'
I13206
tp42
a(S'p1_vo'
I8
tp43
a(S'w'
I1
tp44
a(S'p1_tl'
I71
tp45
a(S'w'
I1
tp46
a(S'p1_ll'
I1
tp47
a(S'w'
I2
tp48
a(S'tr_lr'
I80
tp49
a(S'w'
I1
tp50
a(S'tr_tl'
I254
tp51
a(S'tr_ll'
I1
tp52
a(S'w'
I44023
tp53
a(S'ch_no'
I0
tp54
a(S'ch_tr'
I0
tp55
a(S'ch_p2'
I0
tp56
a(S'ch_p1'
I1
tp57
a(S'p1_du'
I0
tp58
a(S'p1_vo'
I0
tp59
a(S'w'
I1
tp60
a(S'p1_tl'
I242
tp61
a(S'w'
I1
tp62
a(S'p1_ll'
I1
tp63
a(S'p1_th'
I7
tp64
a(S'w'
I51052
tp65
a.