(lp1
(S'clock'
p2
I1789772
tp3
a(S'fc_mo'
I1
tp4
a(S'ch_no'
I0
tp5
a(S'ch_tr'
I0
tp6
a(S'ch_p2'
I0
tp7
a(S'ch_p1'
I0
tp8
a(S'w'
I735
tp9
a(S'ch_no'
I0
tp10
a(S'ch_tr'
I0
tp11
a(S'ch_p2'
I1
tp12
a(S'ch_p1'
I1
tp13
a(S'p1_du'
I2
tp14
a(S'p1_vo'
I2
tp15
a(S'w'
I1
tp16
a(S'p1_sp'
I7
tp17
a(S'p1_sn'
I1
tp18
a(S'p1_tl'
I160
tp19
a(S'w'
I1
tp20
a(S'p1_ll'
I1
tp21
a(S'p2_du'
I2
tp22
a(S'p2_vo'
I1
tp23
a(S'w'
I1
tp24
a(S'p2_sp'
I7
tp25
a(S'p2_sn'
I1
tp26
a(S'p2_tl'
I160
tp27
a(S'w'
I1
tp28
a(S'p2_ll'
I1
tp29
a(S'w'
I6600
tp30
a(S'ch_no'
I1
tp31
a(S'ch_tr'
I1
tp32
a(S'ch_p2'
I1
tp33
a(S'ch_p1'
I1
tp34
a(S'p1_vo'
I8
tp35
a(S'w'
I1
tp36
a(S'p1_tl'
I80
tp37
a(S'w'
I1
tp38
a(S'p1_ll'
I1
tp39
a(S'p2_vo'
I7
tp40
a(S'w'
I1
tp41
a(S'p2_tl'
I127
tp42
a(S'w'
I1
tp43
a(S'p2_ll'
I1
tp44
a(S'w'
I1
tp45
a(S'tr_lr'
I19
tp46
a(S'tr_tl'
I64
tp47
a(S'w'
I1
tp48
a(S'tr_ll'
I0
tp49
a(S'tr_th'
I1
tp50
a(S'w'
I1
tp51
a(S'no_np'
I7
tp52
a(S'w'
I1
tp53
a(S'no_ll'
I9
tp54
a(S'w'
I19810
tp55
a(S'tr_ll'
I0
tp56
a(S'w'
I2
tp57
a(S'no_ll'
I9
tp58
a(S'w'
I6603
tp59
a(S'w'
I1
tp60
a(S'no_ll'
I9
tp61
a(S'w'
I6603
tp62
a(S'w'
I1
tp63
a(S'no_ll'
I9
tp64
a(S'w'
I6597
tp65
a(S'p1_vo'
I7
tp66
a(S'w'
I1
tp67
a(S'p1_tl'
I84
tp68
a(S'w'
I1
tp69
a(S'p1_ll'
I1
tp70
a(S'p2_vo'
I5
tp71
a(S'w'
I1
tp72
a(S'p2_tl'
I142
tp73
a(S'w'
I1
tp74
a(S'p2_ll'
I1
tp75
a(S'w'
I1
tp76
a(S'tr_tl'
I254
tp77
a(S'w'
I1
tp78
a(S'tr_ll'
I0
tp79
a(S'tr_th'
I0
tp80
a(S'w'
I1
tp81
a(S'w'
I1
tp82
a(S'no_ll'
I9
tp83
a(S'w'
I19810
tp84
a(S'tr_ll'
I0
tp85
a(S'w'
I2
tp86
a(S'no_ll'
I9
tp87
a(S'w'
I6603
tp88
a(S'w'
I1
tp89
a(S'no_ll'
I9
tp90
a(S'w'
I6597
tp91
a(S'p1_vo'
I2
tp92
a(S'w'
I1
tp93
a(S'p1_tl'
I80
tp94
a(S'w'
I1
tp95
a(S'p1_ll'
I1
tp96
a(S'p2_vo'
I1
tp97
a(S'w'
I1
tp98
a(S'p2_tl'
I106
tp99
a(S'w'
I1
tp100
a(S'p2_ll'
I1
tp101
a(S'w'
I3
tp102
a(S'w'
I1
tp103
a(S'no_ll'
I9
tp104
a(S'w'
I6596
tp105
a(S'p1_vo'
I7
tp106
a(S'w'
I1
tp107
a(S'p1_tl'
I84
tp108
a(S'w'
I1
tp109
a(S'p1_ll'
I1
tp110
a(S'p2_vo'
I3
tp111
a(S'w'
I1
tp112
a(S'p2_tl'
I120
tp113
a(S'w'
I1
tp114
a(S'p2_ll'
I1
tp115
a(S'w'
I1
tp116
a(S'tr_tl'
I240
tp117
a(S'w'
I1
tp118
a(S'tr_ll'
I0
tp119
a(S'w'
I1
tp120
a(S'w'
I1
tp121
a(S'no_ll'
I9
tp122
a(S'w'
I6602
tp123
a(S'w'
I1
tp124
a(S'no_ll'
I9
tp125
a(S'w'
I6603
tp126
a(S'w'
I1
tp127
a(S'no_ll'
I9
tp128
a(S'w'
I6597
tp129
a(S'p1_vo'
I2
tp130
a(S'w'
I1
tp131
a(S'p1_tl'
I95
tp132
a(S'w'
I1
tp133
a(S'p1_ll'
I1
tp134
a(S'p2_vo'
I1
tp135
a(S'w'
I1
tp136
a(S'w'
I1
tp137
a(S'p2_ll'
I1
tp138
a(S'w'
I2
tp139
a(S'tr_ll'
I0
tp140
a(S'w'
I1
tp141
a(S'w'
I1
tp142
a(S'no_ll'
I9
tp143
a(S'w'
I6597
tp144
a(S'p1_tl'
I84
tp145
a(S'w'
I1
tp146
a(S'p1_ll'
I1
tp147
a(S'w'
I1
tp148
a(S'p2_tl'
I106
tp149
a(S'w'
I1
tp150
a(S'p2_ll'
I1
tp151
a(S'w'
I1
tp152
a(S'tr_tl'
I64
tp153
a(S'w'
I1
tp154
a(S'tr_ll'
I0
tp155
a(S'tr_th'
I1
tp156
a(S'w'
I1
tp157
a(S'w'
I1
tp158
a(S'no_ll'
I9
tp159
a(S'w'
I6598
tp160
a(S'p1_tl'
I95
tp161
a(S'w'
I1
tp162
a(S'p1_ll'
I1
tp163
a(S'w'
I1
tp164
a(S'p2_tl'
I120
tp165
a(S'w'
I1
tp166
a(S'p2_ll'
I1
tp167
a(S'w'
I1
tp168
a(S'tr_tl'
I240
tp169
a(S'w'
I1
tp170
a(S'tr_ll'
I0
tp171
a(S'tr_th'
I0
tp172
a(S'w'
I1
tp173
a(S'w'
I1
tp174
a(S'no_ll'
I9
tp175
a(S'w'
I6596
tp176
a(S'p1_vo'
I8
tp177
a(S'w'
I1
tp178
a(S'p1_tl'
I106
tp179
a(S'w'
I1
tp180
a(S'p1_ll'
I1
tp181
a(S'w'
I1
tp182
a(S'p2_vo'
I7
tp183
a(S'p2_tl'
I127
tp184
a(S'w'
I1
tp185
a(S'p2_ll'
I1
tp186
a(S'w'
I1
tp187
a(S'tr_tl'
I254
tp188
a(S'w'
I1
tp189
a(S'tr_ll'
I0
tp190
a(S'w'
I1
tp191
a(S'w'
I1
tp192
a(S'no_ll'
I9
tp193
a(S'w'
I19809
tp194
a(S'tr_ll'
I0
tp195
a(S'w'
I2
tp196
a(S'no_ll'
I9
tp197
a(S'w'
I6603
tp198
a(S'w'
I1
tp199
a(S'no_ll'
I9
tp200
a(S'w'
I6603
tp201
a(S'w'
I1
tp202
a(S'no_ll'
I9
tp203
a(S'w'
I6597
tp204
a(S'p1_vo'
I2
tp205
a(S'w'
I1
tp206
a(S'p1_tl'
I95
tp207
a(S'w'
I1
tp208
a(S'p1_ll'
I1
tp209
a(S'p2_vo'
I1
tp210
a(S'w'
I1
tp211
a(S'p2_tl'
I120
tp212
a(S'w'
I1
tp213
a(S'p2_ll'
I1
tp214
a(S'w'
I1
tp215
a(S'tr_tl'
I240
tp216
a(S'w'
I1
tp217
a(S'tr_ll'
I0
tp218
a(S'w'
I1
tp219
a(S'w'
I1
tp220
a(S'no_ll'
I9
tp221
a(S'w'
I6598
tp222
a(S'p1_tl'
I84
tp223
a(S'w'
I1
tp224
a(S'p1_ll'
I1
tp225
a(S'w'
I1
tp226
a(S'p2_tl'
I106
tp227
a(S'w'
I1
tp228
a(S'p2_ll'
I1
tp229
a(S'w'
I6601
tp230
a(S'p1_tl'
I80
tp231
a(S'w'
I1
tp232
a(S'p1_ll'
I1
tp233
a(S'w'
I1
tp234
a(S'p2_tl'
I95
tp235
a(S'w'
I1
tp236
a(S'p2_ll'
I1
tp237
a(S'w'
I6601
tp238
a(S'p1_tl'
I84
tp239
a(S'w'
I1
tp240
a(S'p1_ll'
I1
tp241
a(S'w'
I1
tp242
a(S'p2_tl'
I106
tp243
a(S'w'
I1
tp244
a(S'p2_ll'
I1
tp245
a(S'w'
I2
tp246
a(S'tr_ll'
I0
tp247
a(S'w'
I1
tp248
a(S'w'
I1
tp249
a(S'no_ll'
I9
tp250
a(S'w'
I6597
tp251
a(S'p1_tl'
I95
tp252
a(S'w'
I1
tp253
a(S'p1_ll'
I1
tp254
a(S'w'
I1
tp255
a(S'p2_tl'
I120
tp256
a(S'w'
I1
tp257
a(S'p2_ll'
I1
tp258
a(S'w'
I1
tp259
a(S'tr_tl'
I64
tp260
a(S'w'
I1
tp261
a(S'tr_ll'
I0
tp262
a(S'tr_th'
I1
tp263
a(S'w'
I1
tp264
a(S'w'
I1
tp265
a(S'no_ll'
I9
tp266
a(S'w'
I6597
tp267
a(S'p1_tl'
I106
tp268
a(S'w'
I1
tp269
a(S'p1_ll'
I1
tp270
a(S'w'
I1
tp271
a(S'p2_tl'
I127
tp272
a(S'w'
I1
tp273
a(S'p2_ll'
I1
tp274
a(S'w'
I1
tp275
a(S'tr_tl'
I240
tp276
a(S'w'
I1
tp277
a(S'tr_ll'
I0
tp278
a(S'tr_th'
I0
tp279
a(S'w'
I1
tp280
a(S'w'
I1
tp281
a(S'no_ll'
I9
tp282
a(S'w'
I6597
tp283
a(S'p1_tl'
I95
tp284
a(S'w'
I1
tp285
a(S'p1_ll'
I1
tp286
a(S'w'
I1
tp287
a(S'p2_tl'
I120
tp288
a(S'w'
I1
tp289
a(S'p2_ll'
I1
tp290
a(S'w'
I1
tp291
a(S'tr_tl'
I254
tp292
a(S'w'
I1
tp293
a(S'tr_ll'
I0
tp294
a(S'w'
I1
tp295
a(S'w'
I1
tp296
a(S'no_ll'
I9
tp297
a(S'w'
I6597
tp298
a(S'p1_tl'
I106
tp299
a(S'w'
I1
tp300
a(S'p1_ll'
I1
tp301
a(S'w'
I1
tp302
a(S'p2_tl'
I127
tp303
a(S'w'
I1
tp304
a(S'p2_ll'
I1
tp305
a(S'w'
I6601
tp306
a(S'p1_tl'
I120
tp307
a(S'w'
I1
tp308
a(S'p1_ll'
I1
tp309
a(S'w'
I1
tp310
a(S'p2_tl'
I142
tp311
a(S'w'
I1
tp312
a(S'p2_ll'
I1
tp313
a(S'w'
I6601
tp314
a(S'p1_vo'
I7
tp315
a(S'w'
I1
tp316
a(S'p1_tl'
I127
tp317
a(S'w'
I1
tp318
a(S'p1_ll'
I1
tp319
a(S'w'
I1
tp320
a(S'p2_vo'
I3
tp321
a(S'p2_tl'
I169
tp322
a(S'w'
I1
tp323
a(S'p2_ll'
I1
tp324
a(S'w'
I2
tp325
a(S'tr_ll'
I0
tp326
a(S'w'
I1
tp327
a(S'w'
I1
tp328
a(S'no_ll'
I9
tp329
a(S'w'
I6601
tp330
a(S'tr_tl'
I83
tp331
a(S'tr_ll'
I0
tp332
a(S'tr_th'
I1
tp333
a(S'w'
I2
tp334
a(S'no_ll'
I9
tp335
a(S'w'
I6602
tp336
a(S'tr_tl'
I254
tp337
a(S'tr_ll'
I0
tp338
a(S'tr_th'
I0
tp339
a(S'w'
I2
tp340
a(S'no_ll'
I9
tp341
a(S'w'
I6597
tp342
a(S'p1_vo'
I4
tp343
a(S'w'
I1
tp344
a(S'p1_tl'
I142
tp345
a(S'w'
I1
tp346
a(S'p1_ll'
I1
tp347
a(S'p2_vo'
I2
tp348
a(S'w'
I1
tp349
a(S'p2_tl'
I142
tp350
a(S'w'
I1
tp351
a(S'p2_ll'
I1
tp352
a(S'w'
I1
tp353
a(S'tr_tl'
I29
tp354
a(S'w'
I1
tp355
a(S'tr_ll'
I0
tp356
a(S'tr_th'
I1
tp357
a(S'w'
I1
tp358
a(S'w'
I1
tp359
a(S'no_ll'
I9
tp360
a(S'w'
I6601
tp361
a(S'tr_tl'
I254
tp362
a(S'tr_ll'
I0
tp363
a(S'tr_th'
I0
tp364
a(S'w'
I2
tp365
a(S'no_ll'
I9
tp366
a(S'w'
I6598
tp367
a(S'p1_tl'
I63
tp368
a(S'w'
I1
tp369
a(S'p1_ll'
I1
tp370
a(S'w'
I1
tp371
a(S'p2_tl'
I80
tp372
a(S'w'
I1
tp373
a(S'p2_ll'
I1
tp374
a(S'w'
I1
tp375
a(S'tr_tl'
I240
tp376
a(S'w'
I1
tp377
a(S'tr_ll'
I0
tp378
a(S'w'
I1
tp379
a(S'w'
I1
tp380
a(S'no_ll'
I9
tp381
a(S'w'
I6601
tp382
a(S'tr_tl'
I190
tp383
a(S'tr_ll'
I0
tp384
a(S'w'
I2
tp385
a(S'no_ll'
I9
tp386
a(S'w'
I6598
tp387
a(S'p1_tl'
I71
tp388
a(S'w'
I1
tp389
a(S'p1_ll'
I1
tp390
a(S'w'
I1
tp391
a(S'p2_tl'
I95
tp392
a(S'w'
I1
tp393
a(S'p2_ll'
I1
tp394
a(S'w'
I1
tp395
a(S'tr_tl'
I213
tp396
a(S'w'
I1
tp397
a(S'tr_ll'
I0
tp398
a(S'w'
I1
tp399
a(S'w'
I1
tp400
a(S'no_ll'
I9
tp401
a(S'w'
I6598
tp402
a(S'p1_tl'
I80
tp403
a(S'w'
I1
tp404
a(S'p1_ll'
I1
tp405
a(S'w'
I1
tp406
a(S'p2_tl'
I120
tp407
a(S'w'
I1
tp408
a(S'p2_ll'
I1
tp409
a(S'w'
I1
tp410
a(S'tr_tl'
I240
tp411
a(S'w'
I1
tp412
a(S'tr_ll'
I0
tp413
a(S'w'
I1
tp414
a(S'w'
I1
tp415
a(S'no_ll'
I9
tp416
a(S'w'
I6597
tp417
a(S'p1_tl'
I84
tp418
a(S'w'
I1
tp419
a(S'p1_ll'
I1
tp420
a(S'w'
I1
tp421
a(S'p2_tl'
I106
tp422
a(S'w'
I1
tp423
a(S'p2_ll'
I1
tp424
a(S'w'
I1
tp425
a(S'tr_tl'
I213
tp426
a(S'w'
I1
tp427
a(S'tr_ll'
I0
tp428
a(S'w'
I1
tp429
a(S'w'
I1
tp430
a(S'no_ll'
I9
tp431
a(S'w'
I13201
tp432
a(S'p1_tl'
I95
tp433
a(S'w'
I1
tp434
a(S'p1_ll'
I1
tp435
a(S'w'
I1
tp436
a(S'p2_tl'
I120
tp437
a(S'w'
I1
tp438
a(S'p2_ll'
I1
tp439
a(S'w'
I6605
tp440
a(S'tr_tl'
I171
tp441
a(S'tr_ll'
I0
tp442
a(S'tr_th'
I1
tp443
a(S'w'
I2
tp444
a(S'no_ll'
I9
tp445
a(S'w'
I6597
tp446
a(S'p1_vo'
I2
tp447
a(S'w'
I1
tp448
a(S'p1_tl'
I84
tp449
a(S'w'
I1
tp450
a(S'p1_ll'
I1
tp451
a(S'w'
I1
tp452
a(S'p2_tl'
I106
tp453
a(S'w'
I1
tp454
a(S'p2_ll'
I1
tp455
a(S'w'
I1
tp456
a(S'tr_tl'
I125
tp457
a(S'w'
I1
tp458
a(S'tr_ll'
I0
tp459
a(S'w'
I1
tp460
a(S'w'
I1
tp461
a(S'no_ll'
I9
tp462
a(S'w'
I6597
tp463
a(S'p1_tl'
I106
tp464
a(S'w'
I1
tp465
a(S'p1_ll'
I1
tp466
a(S'w'
I1
tp467
a(S'p2_tl'
I142
tp468
a(S'w'
I1
tp469
a(S'p2_ll'
I1
tp470
a(S'w'
I1
tp471
a(S'tr_tl'
I83
tp472
a(S'w'
I1
tp473
a(S'tr_ll'
I0
tp474
a(S'w'
I1
tp475
a(S'w'
I1
tp476
a(S'no_ll'
I9
tp477
a(S'w'
I6596
tp478
a(S'p1_vo'
I8
tp479
a(S'w'
I1
tp480
a(S'p1_tl'
I80
tp481
a(S'w'
I1
tp482
a(S'p1_ll'
I1
tp483
a(S'p2_vo'
I7
tp484
a(S'w'
I1
tp485
a(S'p2_tl'
I127
tp486
a(S'w'
I1
tp487
a(S'p2_ll'
I1
tp488
a(S'w'
I1
tp489
a(S'tr_tl'
I64
tp490
a(S'w'
I1
tp491
a(S'tr_ll'
I0
tp492
a(S'w'
I1
tp493
a(S'w'
I1
tp494
a(S'no_ll'
I9
tp495
a(S'w'
I19810
tp496
a(S'tr_ll'
I0
tp497
a(S'w'
I2
tp498
a(S'no_ll'
I9
tp499
a(S'w'
I6603
tp500
a(S'w'
I1
tp501
a(S'no_ll'
I9
tp502
a(S'w'
I6603
tp503
a(S'w'
I1
tp504
a(S'no_ll'
I9
tp505
a(S'w'
I6602
tp506
a(S'tr_tl'
I254
tp507
a(S'tr_ll'
I0
tp508
a(S'tr_th'
I0
tp509
a(S'w'
I2
tp510
a(S'no_ll'
I9
tp511
a(S'w'
I19806
tp512
a(S'p1_vo'
I2
tp513
a(S'w'
I1
tp514
a(S'p1_tl'
I84
tp515
a(S'w'
I1
tp516
a(S'p1_ll'
I1
tp517
a(S'p2_vo'
I1
tp518
a(S'w'
I1
tp519
a(S'p2_tl'
I106
tp520
a(S'w'
I1
tp521
a(S'p2_ll'
I1
tp522
a(S'w'
I2
tp523
a(S'tr_ll'
I0
tp524
a(S'w'
I1
tp525
a(S'w'
I1
tp526
a(S'no_ll'
I9
tp527
a(S'w'
I6597
tp528
a(S'p1_tl'
I80
tp529
a(S'w'
I1
tp530
a(S'p1_ll'
I1
tp531
a(S'w'
I1
tp532
a(S'p2_tl'
I95
tp533
a(S'w'
I1
tp534
a(S'p2_ll'
I1
tp535
a(S'w'
I3
tp536
a(S'w'
I1
tp537
a(S'no_ll'
I9
tp538
a(S'w'
I6597
tp539
a(S'p1_tl'
I71
tp540
a(S'w'
I1
tp541
a(S'p1_ll'
I1
tp542
a(S'w'
I1
tp543
a(S'p2_tl'
I84
tp544
a(S'w'
I1
tp545
a(S'p2_ll'
I1
tp546
a(S'w'
I3
tp547
a(S'w'
I1
tp548
a(S'no_ll'
I9
tp549
a(S'w'
I6596
tp550
a(S'p1_vo'
I5
tp551
a(S'w'
I1
tp552
a(S'p1_tl'
I63
tp553
a(S'w'
I1
tp554
a(S'p1_ll'
I1
tp555
a(S'p2_vo'
I3
tp556
a(S'w'
I1
tp557
a(S'p2_tl'
I80
tp558
a(S'w'
I1
tp559
a(S'p2_ll'
I1
tp560
a(S'w'
I1
tp561
a(S'tr_tl'
I240
tp562
a(S'w'
I1
tp563
a(S'tr_ll'
I0
tp564
a(S'w'
I1
tp565
a(S'w'
I1
tp566
a(S'no_ll'
I9
tp567
a(S'w'
I6602
tp568
a(S'w'
I1
tp569
a(S'no_ll'
I9
tp570
a(S'w'
I6598
tp571
a(S'p1_tl'
I53
tp572
a(S'w'
I1
tp573
a(S'p1_ll'
I1
tp574
a(S'w'
I1
tp575
a(S'p2_tl'
I63
tp576
a(S'w'
I1
tp577
a(S'p2_ll'
I1
tp578
a(S'w'
I3
tp579
a(S'w'
I1
tp580
a(S'no_ll'
I9
tp581
a(S'w'
I6601
tp582
a(S'tr_ll'
I0
tp583
a(S'w'
I2
tp584
a(S'no_ll'
I9
tp585
a(S'w'
I6598
tp586
a(S'p1_tl'
I60
tp587
a(S'w'
I1
tp588
a(S'p1_ll'
I1
tp589
a(S'p2_vo'
I1
tp590
a(S'w'
I1
tp591
a(S'p2_tl'
I95
tp592
a(S'w'
I1
tp593
a(S'p2_ll'
I1
tp594
a(S'w'
I1
tp595
a(S'tr_tl'
I64
tp596
a(S'w'
I1
tp597
a(S'tr_ll'
I0
tp598
a(S'tr_th'
I1
tp599
a(S'w'
I1
tp600
a(S'w'
I1
tp601
a(S'no_ll'
I9
tp602
a(S'w'
I6602
tp603
a(S'tr_tl'
I240
tp604
a(S'tr_ll'
I0
tp605
a(S'tr_th'
I0
tp606
a(S'w'
I2
tp607
a(S'no_ll'
I9
tp608
a(S'w'
I6597
tp609
a(S'p1_vo'
I7
tp610
a(S'w'
I1
tp611
a(S'p1_tl'
I63
tp612
a(S'w'
I1
tp613
a(S'p1_ll'
I1
tp614
a(S'w'
I1
tp615
a(S'p2_vo'
I4
tp616
a(S'p2_tl'
I106
tp617
a(S'w'
I1
tp618
a(S'p2_ll'
I1
tp619
a(S'w'
I1
tp620
a(S'tr_tl'
I254
tp621
a(S'w'
I1
tp622
a(S'tr_ll'
I0
tp623
a(S'w'
I1
tp624
a(S'w'
I1
tp625
a(S'no_ll'
I9
tp626
a(S'w'
I19805
tp627
a(S'p1_tl'
I71
tp628
a(S'w'
I1
tp629
a(S'p1_ll'
I1
tp630
a(S'w'
I1
tp631
a(S'p2_tl'
I84
tp632
a(S'w'
I1
tp633
a(S'p2_ll'
I1
tp634
a(S'w'
I2
tp635
a(S'tr_ll'
I0
tp636
a(S'w'
I1
tp637
a(S'w'
I1
tp638
a(S'no_ll'
I9
tp639
a(S'w'
I6602
tp640
a(S'w'
I1
tp641
a(S'no_ll'
I9
tp642
a(S'w'
I6603
tp643
a(S'w'
I1
tp644
a(S'no_ll'
I9
tp645
a(S'w'
I6597
tp646
a(S'p1_vo'
I2
tp647
a(S'w'
I1
tp648
a(S'p1_tl'
I60
tp649
a(S'w'
I1
tp650
a(S'p1_ll'
I1
tp651
a(S'p2_vo'
I1
tp652
a(S'w'
I1
tp653
a(S'p2_tl'
I95
tp654
a(S'w'
I1
tp655
a(S'p2_ll'
I1
tp656
a(S'w'
I1
tp657
a(S'tr_tl'
I29
tp658
a(S'w'
I1
tp659
a(S'tr_ll'
I0
tp660
a(S'tr_th'
I1
tp661
a(S'w'
I1
tp662
a(S'w'
I1
tp663
a(S'no_ll'
I9
tp664
a(S'w'
I6598
tp665
a(S'w'
I1
tp666
a(S'p1_ll'
I1
tp667
a(S'w'
I1
tp668
a(S'w'
I1
tp669
a(S'p2_ll'
I1
tp670
a(S'w'
I2
tp671
a(S'tr_ll'
I0
tp672
a(S'w'
I1
tp673
a(S'w'
I1
tp674
a(S'no_ll'
I9
tp675
a(S'w'
I6597
tp676
a(S'w'
I1
tp677
a(S'p1_ll'
I1
tp678
a(S'w'
I1
tp679
a(S'w'
I1
tp680
a(S'p2_ll'
I1
tp681
a(S'w'
I2
tp682
a(S'tr_ll'
I0
tp683
a(S'w'
I1
tp684
a(S'w'
I1
tp685
a(S'no_ll'
I9
tp686
a(S'w'
I6597
tp687
a(S'w'
I1
tp688
a(S'p1_ll'
I1
tp689
a(S'w'
I1
tp690
a(S'w'
I1
tp691
a(S'p2_ll'
I1
tp692
a(S'w'
I2
tp693
a(S'tr_ll'
I0
tp694
a(S'w'
I1
tp695
a(S'w'
I1
tp696
a(S'no_ll'
I9
tp697
a(S'w'
I6597
tp698
a(S'w'
I1
tp699
a(S'p1_ll'
I1
tp700
a(S'w'
I1
tp701
a(S'w'
I1
tp702
a(S'p2_ll'
I1
tp703
a(S'w'
I2
tp704
a(S'tr_ll'
I0
tp705
a(S'w'
I1
tp706
a(S'w'
I1
tp707
a(S'no_ll'
I9
tp708
a(S'w'
I6597
tp709
a(S'w'
I1
tp710
a(S'p1_ll'
I1
tp711
a(S'w'
I1
tp712
a(S'w'
I1
tp713
a(S'p2_ll'
I1
tp714
a(S'w'
I2
tp715
a(S'tr_ll'
I0
tp716
a(S'w'
I1
tp717
a(S'w'
I1
tp718
a(S'no_ll'
I9
tp719
a(S'w'
I6597
tp720
a(S'p1_tl'
I63
tp721
a(S'w'
I1
tp722
a(S'p1_ll'
I1
tp723
a(S'w'
I1
tp724
a(S'p2_tl'
I106
tp725
a(S'w'
I1
tp726
a(S'p2_ll'
I1
tp727
a(S'w'
I1
tp728
a(S'tr_tl'
I213
tp729
a(S'w'
I1
tp730
a(S'tr_ll'
I0
tp731
a(S'tr_th'
I0
tp732
a(S'w'
I1
tp733
a(S'w'
I1
tp734
a(S'no_ll'
I9
tp735
a(S'w'
I6597
tp736
a(S'w'
I1
tp737
a(S'p1_ll'
I1
tp738
a(S'w'
I1
tp739
a(S'w'
I1
tp740
a(S'p2_ll'
I1
tp741
a(S'w'
I2
tp742
a(S'tr_ll'
I0
tp743
a(S'w'
I1
tp744
a(S'w'
I1
tp745
a(S'no_ll'
I9
tp746
a(S'w'
I6597
tp747
a(S'w'
I1
tp748
a(S'p1_ll'
I1
tp749
a(S'w'
I1
tp750
a(S'w'
I1
tp751
a(S'p2_ll'
I1
tp752
a(S'w'
I2
tp753
a(S'tr_ll'
I0
tp754
a(S'w'
I1
tp755
a(S'w'
I1
tp756
a(S'no_ll'
I9
tp757
a(S'w'
I6598
tp758
a(S'w'
I1
tp759
a(S'p1_ll'
I1
tp760
a(S'w'
I1
tp761
a(S'w'
I1
tp762
a(S'p2_ll'
I1
tp763
a(S'w'
I2
tp764
a(S'tr_ll'
I0
tp765
a(S'w'
I1
tp766
a(S'w'
I1
tp767
a(S'no_ll'
I9
tp768
a(S'w'
I6597
tp769
a(S'w'
I1
tp770
a(S'p1_ll'
I1
tp771
a(S'w'
I1
tp772
a(S'w'
I1
tp773
a(S'p2_ll'
I1
tp774
a(S'w'
I2
tp775
a(S'tr_ll'
I0
tp776
a(S'w'
I1
tp777
a(S'w'
I1
tp778
a(S'no_ll'
I9
tp779
a(S'w'
I6597
tp780
a(S'p1_tl'
I71
tp781
a(S'w'
I1
tp782
a(S'p1_ll'
I1
tp783
a(S'w'
I1
tp784
a(S'w'
I1
tp785
a(S'p2_ll'
I1
tp786
a(S'w'
I2
tp787
a(S'tr_ll'
I0
tp788
a(S'w'
I1
tp789
a(S'w'
I1
tp790
a(S'no_ll'
I9
tp791
a(S'w'
I6597
tp792
a(S'p1_tl'
I80
tp793
a(S'w'
I1
tp794
a(S'p1_ll'
I1
tp795
a(S'p2_vo'
I2
tp796
a(S'w'
I1
tp797
a(S'p2_tl'
I127
tp798
a(S'w'
I1
tp799
a(S'p2_ll'
I1
tp800
a(S'w'
I1
tp801
a(S'tr_tl'
I64
tp802
a(S'w'
I1
tp803
a(S'tr_ll'
I0
tp804
a(S'tr_th'
I1
tp805
a(S'w'
I1
tp806
a(S'w'
I1
tp807
a(S'no_ll'
I9
tp808
a(S'w'
I6597
tp809
a(S'w'
I1
tp810
a(S'p1_ll'
I1
tp811
a(S'w'
I1
tp812
a(S'w'
I1
tp813
a(S'p2_ll'
I1
tp814
a(S'w'
I2
tp815
a(S'tr_ll'
I0
tp816
a(S'w'
I1
tp817
a(S'w'
I1
tp818
a(S'no_ll'
I9
tp819
a(S'w'
I6597
tp820
a(S'w'
I1
tp821
a(S'p1_ll'
I1
tp822
a(S'w'
I1
tp823
a(S'w'
I1
tp824
a(S'p2_ll'
I1
tp825
a(S'w'
I2
tp826
a(S'tr_ll'
I0
tp827
a(S'w'
I1
tp828
a(S'w'
I1
tp829
a(S'no_ll'
I9
tp830
a(S'w'
I6597
tp831
a(S'w'
I1
tp832
a(S'p1_ll'
I1
tp833
a(S'w'
I1
tp834
a(S'w'
I1
tp835
a(S'p2_ll'
I1
tp836
a(S'w'
I2
tp837
a(S'tr_ll'
I0
tp838
a(S'w'
I1
tp839
a(S'w'
I1
tp840
a(S'no_ll'
I9
tp841
a(S'w'
I6597
tp842
a(S'w'
I1
tp843
a(S'p1_ll'
I1
tp844
a(S'w'
I1
tp845
a(S'w'
I1
tp846
a(S'p2_ll'
I1
tp847
a(S'w'
I2
tp848
a(S'tr_ll'
I0
tp849
a(S'w'
I1
tp850
a(S'w'
I1
tp851
a(S'no_ll'
I9
tp852
a(S'w'
I6598
tp853
a(S'w'
I1
tp854
a(S'p1_ll'
I1
tp855
a(S'w'
I1
tp856
a(S'w'
I1
tp857
a(S'p2_ll'
I1
tp858
a(S'w'
I2
tp859
a(S'tr_ll'
I0
tp860
a(S'w'
I1
tp861
a(S'w'
I1
tp862
a(S'no_ll'
I9
tp863
a(S'w'
I6597
tp864
a(S'w'
I1
tp865
a(S'p1_ll'
I1
tp866
a(S'w'
I1
tp867
a(S'w'
I1
tp868
a(S'p2_ll'
I1
tp869
a(S'w'
I2
tp870
a(S'tr_ll'
I0
tp871
a(S'w'
I1
tp872
a(S'w'
I1
tp873
a(S'no_ll'
I9
tp874
a(S'w'
I19804
tp875
a(S'ch_no'
I1
tp876
a(S'ch_tr'
I0
tp877
a(S'ch_p2'
I0
tp878
a(S'ch_p1'
I0
tp879
a(S'w'
I6
tp880
a(S'w'
I1
tp881
a(S'no_ll'
I9
tp882
a(S'w'
I6603
tp883
a(S'w'
I1
tp884
a(S'no_ll'
I9
tp885
a(S'w'
I6597
tp886
a(S'ch_no'
I1
tp887
a(S'ch_tr'
I0
tp888
a(S'ch_p2'
I1
tp889
a(S'ch_p1'
I1
tp890
a(S'w'
I1
tp891
a(S'p1_tl'
I160
tp892
a(S'w'
I1
tp893
a(S'p1_ll'
I1
tp894
a(S'w'
I1
tp895
a(S'p2_tl'
I160
tp896
a(S'w'
I1
tp897
a(S'p2_ll'
I1
tp898
a(S'w'
I3
tp899
a(S'w'
I1
tp900
a(S'no_ll'
I9
tp901
a(S'w'
I6596
tp902
a.