(lp1
(S'clock'
p2
I1789772
tp3
a(S'fc_mo'
I1
tp4
a(S'ch_no'
I0
tp5
a(S'ch_tr'
I0
tp6
a(S'ch_p2'
I0
tp7
a(S'ch_p1'
I0
tp8
a(S'w'
I735
tp9
a(S'ch_no'
I0
tp10
a(S'ch_tr'
I0
tp11
a(S'ch_p2'
I1
tp12
a(S'ch_p1'
I1
tp13
a(S'p1_du'
I2
tp14
a(S'p1_vo'
I2
tp15
a(S'w'
I1
tp16
a(S'p1_sp'
I7
tp17
a(S'p1_sn'
I1
tp18
a(S'p1_tl'
I142
tp19
a(S'w'
I1
tp20
a(S'p1_ll'
I1
tp21
a(S'p2_du'
I2
tp22
a(S'p2_vo'
I2
tp23
a(S'w'
I1
tp24
a(S'p2_sp'
I7
tp25
a(S'p2_sn'
I1
tp26
a(S'p2_tl'
I169
tp27
a(S'w'
I1
tp28
a(S'p2_ll'
I1
tp29
a(S'w'
I5134
tp30
a(S'p1_tl'
I127
tp31
a(S'w'
I1
tp32
a(S'p1_ll'
I1
tp33
a(S'w'
I1
tp34
a(S'p2_tl'
I160
tp35
a(S'w'
I1
tp36
a(S'p2_ll'
I1
tp37
a(S'w'
I5133
tp38
a(S'p1_tl'
I113
tp39
a(S'w'
I1
tp40
a(S'p1_ll'
I1
tp41
a(S'w'
I1
tp42
a(S'p2_tl'
I142
tp43
a(S'w'
I1
tp44
a(S'p2_ll'
I1
tp45
a(S'w'
I5133
tp46
a(S'ch_no'
I1
tp47
a(S'ch_tr'
I1
tp48
a(S'ch_p2'
I1
tp49
a(S'ch_p1'
I1
tp50
a(S'p1_vo'
I8
tp51
a(S'w'
I1
tp52
a(S'p1_tl'
I106
tp53
a(S'w'
I1
tp54
a(S'p1_ll'
I1
tp55
a(S'p2_vo'
I5
tp56
a(S'w'
I1
tp57
a(S'p2_tl'
I169
tp58
a(S'w'
I1
tp59
a(S'p2_ll'
I1
tp60
a(S'w'
I1
tp61
a(S'tr_lr'
I19
tp62
a(S'tr_tl'
I213
tp63
a(S'w'
I1
tp64
a(S'tr_ll'
I0
tp65
a(S'w'
I1
tp66
a(S'no_np'
I7
tp67
a(S'w'
I1
tp68
a(S'no_ll'
I9
tp69
a(S'w'
I5128
tp70
a(S'ch_no'
I0
tp71
a(S'ch_tr'
I1
tp72
a(S'ch_p2'
I1
tp73
a(S'ch_p1'
I1
tp74
a(S'w'
I5137
tp75
a(S'ch_no'
I1
tp76
a(S'ch_tr'
I1
tp77
a(S'ch_p2'
I1
tp78
a(S'ch_p1'
I1
tp79
a(S'w'
I6
tp80
a(S'w'
I1
tp81
a(S'no_ll'
I9
tp82
a(S'w'
I5135
tp83
a(S'tr_tl'
I83
tp84
a(S'tr_ll'
I0
tp85
a(S'tr_th'
I1
tp86
a(S'w'
I2
tp87
a(S'no_ll'
I9
tp88
a(S'w'
I5129
tp89
a(S'ch_no'
I0
tp90
a(S'ch_tr'
I1
tp91
a(S'ch_p2'
I1
tp92
a(S'ch_p1'
I1
tp93
a(S'w'
I5137
tp94
a(S'ch_no'
I1
tp95
a(S'ch_tr'
I1
tp96
a(S'ch_p2'
I1
tp97
a(S'ch_p1'
I1
tp98
a(S'w'
I6
tp99
a(S'w'
I1
tp100
a(S'no_ll'
I9
tp101
a(S'w'
I5129
tp102
a(S'p1_vo'
I7
tp103
a(S'w'
I1
tp104
a(S'p1_tl'
I120
tp105
a(S'w'
I1
tp106
a(S'p1_ll'
I1
tp107
a(S'p2_vo'
I4
tp108
a(S'w'
I1
tp109
a(S'p2_tl'
I160
tp110
a(S'w'
I1
tp111
a(S'p2_ll'
I1
tp112
a(S'w'
I1
tp113
a(S'tr_tl'
I64
tp114
a(S'w'
I1
tp115
a(S'tr_ll'
I0
tp116
a(S'w'
I1
tp117
a(S'w'
I1
tp118
a(S'no_ll'
I9
tp119
a(S'w'
I5129
tp120
a(S'ch_no'
I0
tp121
a(S'ch_tr'
I1
tp122
a(S'ch_p2'
I1
tp123
a(S'ch_p1'
I1
tp124
a(S'w'
I5136
tp125
a(S'ch_no'
I1
tp126
a(S'ch_tr'
I1
tp127
a(S'ch_p2'
I1
tp128
a(S'ch_p1'
I1
tp129
a(S'w'
I6
tp130
a(S'w'
I1
tp131
a(S'no_ll'
I9
tp132
a(S'w'
I5130
tp133
a(S'p1_vo'
I2
tp134
a(S'w'
I1
tp135
a(S'p1_tl'
I127
tp136
a(S'w'
I1
tp137
a(S'p1_ll'
I1
tp138
a(S'p2_vo'
I2
tp139
a(S'w'
I1
tp140
a(S'w'
I1
tp141
a(S'p2_ll'
I1
tp142
a(S'w'
I2
tp143
a(S'tr_ll'
I0
tp144
a(S'w'
I1
tp145
a(S'w'
I1
tp146
a(S'no_ll'
I9
tp147
a(S'w'
I5129
tp148
a(S'p1_tl'
I142
tp149
a(S'w'
I1
tp150
a(S'p1_ll'
I1
tp151
a(S'w'
I1
tp152
a(S'p2_tl'
I169
tp153
a(S'w'
I1
tp154
a(S'p2_ll'
I1
tp155
a(S'w'
I3
tp156
a(S'w'
I1
tp157
a(S'no_ll'
I9
tp158
a(S'w'
I5130
tp159
a(S'p1_tl'
I160
tp160
a(S'w'
I1
tp161
a(S'p1_ll'
I1
tp162
a(S'w'
I1
tp163
a(S'p2_tl'
I190
tp164
a(S'w'
I1
tp165
a(S'p2_ll'
I1
tp166
a(S'w'
I3
tp167
a(S'w'
I1
tp168
a(S'no_ll'
I9
tp169
a(S'w'
I5128
tp170
a(S'p1_vo'
I8
tp171
a(S'w'
I1
tp172
a(S'p1_tl'
I142
tp173
a(S'w'
I1
tp174
a(S'p1_ll'
I1
tp175
a(S'p2_vo'
I5
tp176
a(S'w'
I1
tp177
a(S'p2_tl'
I169
tp178
a(S'w'
I1
tp179
a(S'p2_ll'
I1
tp180
a(S'w'
I1
tp181
a(S'tr_tl'
I213
tp182
a(S'w'
I1
tp183
a(S'tr_ll'
I0
tp184
a(S'tr_th'
I0
tp185
a(S'w'
I1
tp186
a(S'w'
I1
tp187
a(S'no_ll'
I9
tp188
a(S'w'
I5129
tp189
a(S'ch_no'
I0
tp190
a(S'ch_tr'
I1
tp191
a(S'ch_p2'
I1
tp192
a(S'ch_p1'
I1
tp193
a(S'w'
I5137
tp194
a(S'ch_no'
I1
tp195
a(S'ch_tr'
I1
tp196
a(S'ch_p2'
I1
tp197
a(S'ch_p1'
I1
tp198
a(S'w'
I6
tp199
a(S'w'
I1
tp200
a(S'no_ll'
I9
tp201
a(S'w'
I5134
tp202
a(S'tr_tl'
I83
tp203
a(S'tr_ll'
I0
tp204
a(S'tr_th'
I1
tp205
a(S'w'
I2
tp206
a(S'no_ll'
I9
tp207
a(S'w'
I5136
tp208
a(S'w'
I1
tp209
a(S'no_ll'
I9
tp210
a(S'w'
I5135
tp211
a(S'w'
I1
tp212
a(S'no_ll'
I9
tp213
a(S'w'
I5135
tp214
a(S'tr_tl'
I213
tp215
a(S'tr_ll'
I0
tp216
a(S'tr_th'
I0
tp217
a(S'w'
I2
tp218
a(S'no_ll'
I9
tp219
a(S'w'
I5135
tp220
a(S'w'
I1
tp221
a(S'no_ll'
I9
tp222
a(S'w'
I5136
tp223
a(S'w'
I1
tp224
a(S'no_ll'
I9
tp225
a(S'w'
I5129
tp226
a(S'p1_vo'
I3
tp227
a(S'w'
I1
tp228
a(S'w'
I1
tp229
a(S'p1_ll'
I1
tp230
a(S'p2_vo'
I2
tp231
a(S'w'
I1
tp232
a(S'p2_tl'
I190
tp233
a(S'w'
I1
tp234
a(S'p2_ll'
I1
tp235
a(S'w'
I1
tp236
a(S'tr_tl'
I226
tp237
a(S'w'
I1
tp238
a(S'tr_ll'
I0
tp239
a(S'w'
I1
tp240
a(S'w'
I1
tp241
a(S'no_ll'
I9
tp242
a(S'w'
I5135
tp243
a(S'w'
I1
tp244
a(S'no_ll'
I9
tp245
a(S'w'
I5135
tp246
a(S'w'
I1
tp247
a(S'no_ll'
I9
tp248
a(S'w'
I5130
tp249
a(S'p1_vo'
I8
tp250
a(S'w'
I1
tp251
a(S'p1_tl'
I71
tp252
a(S'w'
I1
tp253
a(S'p1_ll'
I1
tp254
a(S'w'
I1
tp255
a(S'p2_vo'
I5
tp256
a(S'p2_tl'
I84
tp257
a(S'w'
I1
tp258
a(S'p2_ll'
I1
tp259
a(S'w'
I1
tp260
a(S'tr_tl'
I254
tp261
a(S'w'
I1
tp262
a(S'tr_ll'
I0
tp263
a(S'w'
I1
tp264
a(S'w'
I1
tp265
a(S'no_ll'
I9
tp266
a(S'w'
I5128
tp267
a(S'ch_no'
I0
tp268
a(S'ch_tr'
I1
tp269
a(S'ch_p2'
I1
tp270
a(S'ch_p1'
I1
tp271
a(S'w'
I5137
tp272
a(S'ch_no'
I1
tp273
a(S'ch_tr'
I1
tp274
a(S'ch_p2'
I1
tp275
a(S'ch_p1'
I1
tp276
a(S'w'
I6
tp277
a(S'w'
I1
tp278
a(S'no_ll'
I9
tp279
a(S'w'
I5135
tp280
a(S'tr_tl'
I213
tp281
a(S'tr_ll'
I0
tp282
a(S'w'
I2
tp283
a(S'no_ll'
I9
tp284
a(S'w'
I5129
tp285
a(S'ch_no'
I0
tp286
a(S'ch_tr'
I1
tp287
a(S'ch_p2'
I1
tp288
a(S'ch_p1'
I1
tp289
a(S'w'
I5137
tp290
a(S'ch_no'
I1
tp291
a(S'ch_tr'
I1
tp292
a(S'ch_p2'
I1
tp293
a(S'ch_p1'
I1
tp294
a(S'w'
I6
tp295
a(S'w'
I1
tp296
a(S'no_ll'
I9
tp297
a(S'w'
I5129
tp298
a(S'p1_vo'
I2
tp299
a(S'w'
I1
tp300
a(S'p1_tl'
I80
tp301
a(S'w'
I1
tp302
a(S'p1_ll'
I1
tp303
a(S'w'
I1
tp304
a(S'p2_vo'
I2
tp305
a(S'p2_tl'
I95
tp306
a(S'w'
I1
tp307
a(S'p2_ll'
I1
tp308
a(S'w'
I1
tp309
a(S'tr_tl'
I190
tp310
a(S'w'
I1
tp311
a(S'tr_ll'
I0
tp312
a(S'w'
I1
tp313
a(S'w'
I1
tp314
a(S'no_ll'
I9
tp315
a(S'w'
I5130
tp316
a(S'p1_tl'
I84
tp317
a(S'w'
I1
tp318
a(S'p1_ll'
I1
tp319
a(S'w'
I1
tp320
a(S'p2_tl'
I106
tp321
a(S'w'
I1
tp322
a(S'p2_ll'
I1
tp323
a(S'w'
I3
tp324
a(S'w'
I1
tp325
a(S'no_ll'
I9
tp326
a(S'w'
I5129
tp327
a(S'p1_tl'
I95
tp328
a(S'w'
I1
tp329
a(S'p1_ll'
I1
tp330
a(S'w'
I1
tp331
a(S'p2_tl'
I95
tp332
a(S'w'
I1
tp333
a(S'p2_ll'
I1
tp334
a(S'w'
I3
tp335
a(S'w'
I1
tp336
a(S'no_ll'
I9
tp337
a(S'w'
I5130
tp338
a(S'p1_tl'
I53
tp339
a(S'w'
I1
tp340
a(S'p1_ll'
I1
tp341
a(S'w'
I1
tp342
a(S'p2_tl'
I63
tp343
a(S'w'
I1
tp344
a(S'p2_ll'
I1
tp345
a(S'w'
I1
tp346
a(S'tr_tl'
I125
tp347
a(S'w'
I1
tp348
a(S'tr_ll'
I0
tp349
a(S'tr_th'
I1
tp350
a(S'w'
I1
tp351
a(S'w'
I1
tp352
a(S'no_ll'
I9
tp353
a(S'w'
I5129
tp354
a(S'p1_tl'
I56
tp355
a(S'w'
I1
tp356
a(S'p1_ll'
I1
tp357
a(S'w'
I1
tp358
a(S'p2_tl'
I71
tp359
a(S'w'
I1
tp360
a(S'p2_ll'
I1
tp361
a(S'w'
I3
tp362
a(S'w'
I1
tp363
a(S'no_ll'
I9
tp364
a(S'w'
I5130
tp365
a(S'p1_tl'
I63
tp366
a(S'w'
I1
tp367
a(S'p1_ll'
I1
tp368
a(S'w'
I1
tp369
a(S'p2_tl'
I80
tp370
a(S'w'
I1
tp371
a(S'p2_ll'
I1
tp372
a(S'w'
I3
tp373
a(S'w'
I1
tp374
a(S'no_ll'
I9
tp375
a(S'w'
I5128
tp376
a(S'p1_vo'
I8
tp377
a(S'w'
I1
tp378
a(S'p1_tl'
I71
tp379
a(S'w'
I1
tp380
a(S'p1_ll'
I1
tp381
a(S'p2_vo'
I5
tp382
a(S'w'
I1
tp383
a(S'p2_tl'
I95
tp384
a(S'w'
I1
tp385
a(S'p2_ll'
I1
tp386
a(S'w'
I1
tp387
a(S'tr_tl'
I29
tp388
a(S'w'
I1
tp389
a(S'tr_ll'
I0
tp390
a(S'w'
I1
tp391
a(S'w'
I1
tp392
a(S'no_ll'
I9
tp393
a(S'w'
I15407
tp394
a(S'tr_ll'
I0
tp395
a(S'w'
I2
tp396
a(S'no_ll'
I9
tp397
a(S'w'
I5135
tp398
a(S'tr_tl'
I254
tp399
a(S'tr_ll'
I0
tp400
a(S'tr_th'
I0
tp401
a(S'w'
I2
tp402
a(S'no_ll'
I9
tp403
a(S'w'
I5134
tp404
a(S'tr_tl'
I226
tp405
a(S'tr_ll'
I0
tp406
a(S'w'
I2
tp407
a(S'no_ll'
I9
tp408
a(S'w'
I5135
tp409
a(S'tr_tl'
I29
tp410
a(S'tr_ll'
I0
tp411
a(S'tr_th'
I1
tp412
a(S'w'
I2
tp413
a(S'no_ll'
I9
tp414
a(S'w'
I15402
tp415
a(S'p1_vo'
I2
tp416
a(S'w'
I1
tp417
a(S'w'
I1
tp418
a(S'p1_ll'
I1
tp419
a(S'p2_vo'
I2
tp420
a(S'w'
I1
tp421
a(S'p2_tl'
I71
tp422
a(S'w'
I1
tp423
a(S'p2_ll'
I1
tp424
a(S'w'
I2
tp425
a(S'tr_ll'
I0
tp426
a(S'w'
I1
tp427
a(S'w'
I1
tp428
a(S'no_ll'
I9
tp429
a(S'w'
I5130
tp430
a(S'w'
I1
tp431
a(S'p1_ll'
I1
tp432
a(S'w'
I1
tp433
a(S'w'
I1
tp434
a(S'p2_ll'
I1
tp435
a(S'w'
I1
tp436
a(S'tr_tl'
I254
tp437
a(S'w'
I1
tp438
a(S'tr_ll'
I0
tp439
a(S'tr_th'
I0
tp440
a(S'w'
I1
tp441
a(S'w'
I1
tp442
a(S'no_ll'
I9
tp443
a(S'w'
I5129
tp444
a(S'p1_tl'
I63
tp445
a(S'w'
I1
tp446
a(S'p1_ll'
I1
tp447
a(S'w'
I1
tp448
a(S'p2_tl'
I80
tp449
a(S'w'
I1
tp450
a(S'p2_ll'
I1
tp451
a(S'w'
I1
tp452
a(S'tr_tl'
I226
tp453
a(S'w'
I1
tp454
a(S'tr_ll'
I0
tp455
a(S'w'
I1
tp456
a(S'w'
I1
tp457
a(S'no_ll'
I9
tp458
a(S'w'
I5129
tp459
a(S'p1_vo'
I8
tp460
a(S'w'
I1
tp461
a(S'p1_tl'
I60
tp462
a(S'w'
I1
tp463
a(S'p1_ll'
I1
tp464
a(S'p2_vo'
I5
tp465
a(S'w'
I1
tp466
a(S'w'
I1
tp467
a(S'p2_ll'
I1
tp468
a(S'w'
I1
tp469
a(S'tr_tl'
I29
tp470
a(S'w'
I1
tp471
a(S'tr_ll'
I0
tp472
a(S'tr_th'
I1
tp473
a(S'w'
I1
tp474
a(S'w'
I1
tp475
a(S'no_ll'
I9
tp476
a(S'w'
I5128
tp477
a(S'ch_no'
I0
tp478
a(S'ch_tr'
I1
tp479
a(S'ch_p2'
I1
tp480
a(S'ch_p1'
I1
tp481
a(S'w'
I5137
tp482
a(S'ch_no'
I1
tp483
a(S'ch_tr'
I1
tp484
a(S'ch_p2'
I1
tp485
a(S'ch_p1'
I1
tp486
a(S'w'
I6
tp487
a(S'w'
I1
tp488
a(S'no_ll'
I9
tp489
a(S'w'
I5135
tp490
a(S'tr_tl'
I240
tp491
a(S'tr_ll'
I0
tp492
a(S'tr_th'
I0
tp493
a(S'w'
I2
tp494
a(S'no_ll'
I9
tp495
a(S'w'
I5129
tp496
a(S'ch_no'
I0
tp497
a(S'ch_tr'
I1
tp498
a(S'ch_p2'
I1
tp499
a(S'ch_p1'
I1
tp500
a(S'w'
I5137
tp501
a(S'ch_no'
I1
tp502
a(S'ch_tr'
I1
tp503
a(S'ch_p2'
I1
tp504
a(S'ch_p1'
I1
tp505
a(S'w'
I6
tp506
a(S'w'
I1
tp507
a(S'no_ll'
I9
tp508
a(S'w'
I5129
tp509
a(S'p1_vo'
I7
tp510
a(S'w'
I1
tp511
a(S'p1_tl'
I63
tp512
a(S'w'
I1
tp513
a(S'p1_ll'
I1
tp514
a(S'p2_vo'
I3
tp515
a(S'w'
I1
tp516
a(S'p2_tl'
I84
tp517
a(S'w'
I1
tp518
a(S'p2_ll'
I1
tp519
a(S'w'
I1
tp520
a(S'tr_tl'
I213
tp521
a(S'w'
I1
tp522
a(S'tr_ll'
I0
tp523
a(S'w'
I1
tp524
a(S'w'
I1
tp525
a(S'no_ll'
I9
tp526
a(S'w'
I5129
tp527
a(S'ch_no'
I0
tp528
a(S'ch_tr'
I1
tp529
a(S'ch_p2'
I1
tp530
a(S'ch_p1'
I1
tp531
a(S'w'
I5136
tp532
a(S'ch_no'
I1
tp533
a(S'ch_tr'
I1
tp534
a(S'ch_p2'
I1
tp535
a(S'ch_p1'
I1
tp536
a(S'w'
I6
tp537
a(S'w'
I1
tp538
a(S'no_ll'
I9
tp539
a(S'w'
I5130
tp540
a(S'p1_vo'
I3
tp541
a(S'w'
I1
tp542
a(S'p1_tl'
I71
tp543
a(S'w'
I1
tp544
a(S'p1_ll'
I1
tp545
a(S'w'
I1
tp546
a(S'p2_vo'
I2
tp547
a(S'w'
I1
tp548
a(S'p2_ll'
I1
tp549
a(S'w'
I1
tp550
a(S'tr_tl'
I171
tp551
a(S'w'
I1
tp552
a(S'tr_ll'
I0
tp553
a(S'tr_th'
I1
tp554
a(S'w'
I1
tp555
a(S'w'
I1
tp556
a(S'no_ll'
I9
tp557
a(S'w'
I5134
tp558
a(S'w'
I1
tp559
a(S'no_ll'
I9
tp560
a(S'w'
I5131
tp561
a(S'p1_tl'
I80
tp562
a(S'w'
I1
tp563
a(S'p1_ll'
I1
tp564
a(S'w'
I1
tp565
a(S'p2_tl'
I95
tp566
a(S'w'
I1
tp567
a(S'p2_ll'
I1
tp568
a(S'w'
I3
tp569
a(S'w'
I1
tp570
a(S'no_ll'
I9
tp571
a(S'w'
I5129
tp572
a(S'p1_tl'
I84
tp573
a(S'w'
I1
tp574
a(S'p1_ll'
I1
tp575
a(S'p2_vo'
I3
tp576
a(S'w'
I1
tp577
a(S'p2_tl'
I127
tp578
a(S'w'
I1
tp579
a(S'p2_ll'
I1
tp580
a(S'w'
I1
tp581
a(S'tr_tl'
I64
tp582
a(S'w'
I1
tp583
a(S'tr_ll'
I0
tp584
a(S'w'
I1
tp585
a(S'w'
I1
tp586
a(S'no_ll'
I9
tp587
a(S'w'
I5129
tp588
a(S'ch_no'
I0
tp589
a(S'ch_tr'
I1
tp590
a(S'ch_p2'
I1
tp591
a(S'ch_p1'
I1
tp592
a(S'w'
I1
tp593
a(S'p1_tl'
I80
tp594
a(S'w'
I1
tp595
a(S'p1_ll'
I1
tp596
a(S'w'
I5135
tp597
a(S'ch_no'
I1
tp598
a(S'ch_tr'
I1
tp599
a(S'ch_p2'
I1
tp600
a(S'ch_p1'
I1
tp601
a(S'w'
I1
tp602
a(S'p1_tl'
I84
tp603
a(S'w'
I1
tp604
a(S'p1_ll'
I1
tp605
a(S'w'
I5
tp606
a(S'no_ll'
I9
tp607
a(S'w'
I5130
tp608
a(S'p1_tl'
I95
tp609
a(S'w'
I1
tp610
a(S'p1_ll'
I1
tp611
a(S'w'
I3
tp612
a(S'tr_ll'
I0
tp613
a(S'w'
I2
tp614
a(S'w'
I1
tp615
a(S'no_ll'
I9
tp616
a(S'w'
I5129
tp617
a(S'ch_no'
I0
tp618
a(S'ch_tr'
I1
tp619
a(S'ch_p2'
I1
tp620
a(S'ch_p1'
I1
tp621
a(S'w'
I1
tp622
a(S'p1_tl'
I84
tp623
a(S'w'
I1
tp624
a(S'p1_ll'
I1
tp625
a(S'w'
I5134
tp626
a(S'ch_no'
I1
tp627
a(S'ch_tr'
I1
tp628
a(S'ch_p2'
I1
tp629
a(S'ch_p1'
I1
tp630
a(S'w'
I1
tp631
a(S'p1_tl'
I95
tp632
a(S'w'
I1
tp633
a(S'p1_ll'
I1
tp634
a(S'w'
I5
tp635
a(S'no_ll'
I9
tp636
a(S'w'
I5130
tp637
a(S'p1_vo'
I8
tp638
a(S'w'
I1
tp639
a(S'p1_tl'
I127
tp640
a(S'w'
I1
tp641
a(S'p1_ll'
I1
tp642
a(S'w'
I1
tp643
a(S'p2_tl'
I106
tp644
a(S'w'
I1
tp645
a(S'p2_ll'
I1
tp646
a(S'w'
I1
tp647
a(S'tr_tl'
I83
tp648
a(S'w'
I1
tp649
a(S'tr_ll'
I0
tp650
a(S'w'
I1
tp651
a(S'w'
I1
tp652
a(S'no_ll'
I9
tp653
a(S'w'
I5128
tp654
a(S'ch_no'
I0
tp655
a(S'ch_tr'
I1
tp656
a(S'ch_p2'
I1
tp657
a(S'ch_p1'
I1
tp658
a(S'w'
I5137
tp659
a(S'ch_no'
I1
tp660
a(S'ch_tr'
I1
tp661
a(S'ch_p2'
I1
tp662
a(S'ch_p1'
I1
tp663
a(S'w'
I6
tp664
a(S'w'
I1
tp665
a(S'no_ll'
I9
tp666
a(S'w'
I5134
tp667
a(S'tr_ll'
I0
tp668
a(S'w'
I2
tp669
a(S'no_ll'
I9
tp670
a(S'w'
I5136
tp671
a(S'w'
I1
tp672
a(S'no_ll'
I9
tp673
a(S'w'
I5135
tp674
a(S'w'
I1
tp675
a(S'no_ll'
I9
tp676
a(S'w'
I5130
tp677
a(S'p1_vo'
I2
tp678
a(S'w'
I1
tp679
a(S'w'
I1
tp680
a(S'p1_ll'
I1
tp681
a(S'w'
I1
tp682
a(S'p2_tl'
I160
tp683
a(S'w'
I1
tp684
a(S'p2_ll'
I1
tp685
a(S'w'
I1
tp686
a(S'tr_tl'
I125
tp687
a(S'w'
I1
tp688
a(S'tr_ll'
I0
tp689
a(S'w'
I1
tp690
a(S'w'
I1
tp691
a(S'no_ll'
I9
tp692
a(S'w'
I5128
tp693
a(S'ch_no'
I0
tp694
a(S'ch_tr'
I1
tp695
a(S'ch_p2'
I1
tp696
a(S'ch_p1'
I1
tp697
a(S'w'
I1
tp698
a(S'p1_tl'
I134
tp699
a(S'w'
I1
tp700
a(S'p1_ll'
I1
tp701
a(S'w'
I5135
tp702
a(S'ch_no'
I1
tp703
a(S'ch_tr'
I1
tp704
a(S'ch_p2'
I1
tp705
a(S'ch_p1'
I1
tp706
a(S'w'
I1
tp707
a(S'p1_tl'
I127
tp708
a(S'w'
I1
tp709
a(S'p1_ll'
I1
tp710
a(S'w'
I5
tp711
a(S'no_ll'
I9
tp712
a(S'w'
I5131
tp713
a(S'p1_tl'
I113
tp714
a(S'w'
I1
tp715
a(S'p1_ll'
I1
tp716
a(S'w'
I3
tp717
a(S'tr_ll'
I0
tp718
a(S'w'
I2
tp719
a(S'w'
I1
tp720
a(S'no_ll'
I9
tp721
a(S'w'
I5129
tp722
a(S'p1_tl'
I127
tp723
a(S'w'
I1
tp724
a(S'p1_ll'
I1
tp725
a(S'w'
I3
tp726
a(S'tr_tl'
I190
tp727
a(S'tr_ll'
I0
tp728
a(S'tr_th'
I0
tp729
a(S'w'
I2
tp730
a(S'w'
I1
tp731
a(S'no_ll'
I9
tp732
a(S'w'
I5130
tp733
a(S'p1_tl'
I113
tp734
a(S'w'
I1
tp735
a(S'p1_ll'
I1
tp736
a(S'w'
I1
tp737
a(S'w'
I1
tp738
a(S'p2_ll'
I1
tp739
a(S'w'
I2
tp740
a(S'tr_ll'
I0
tp741
a(S'w'
I1
tp742
a(S'w'
I1
tp743
a(S'no_ll'
I9
tp744
a(S'w'
I5129
tp745
a(S'p1_tl'
I106
tp746
a(S'w'
I1
tp747
a(S'p1_ll'
I1
tp748
a(S'w'
I1
tp749
a(S'p2_tl'
I127
tp750
a(S'w'
I1
tp751
a(S'p2_ll'
I1
tp752
a(S'w'
I1
tp753
a(S'tr_tl'
I46
tp754
a(S'w'
I1
tp755
a(S'tr_ll'
I0
tp756
a(S'tr_th'
I1
tp757
a(S'w'
I1
tp758
a(S'w'
I1
tp759
a(S'no_ll'
I9
tp760
a(S'w'
I5129
tp761
a(S'ch_no'
I0
tp762
a(S'ch_tr'
I1
tp763
a(S'ch_p2'
I1
tp764
a(S'ch_p1'
I1
tp765
a(S'w'
I1
tp766
a(S'p1_tl'
I113
tp767
a(S'w'
I1
tp768
a(S'p1_ll'
I1
tp769
a(S'w'
I5134
tp770
a(S'ch_no'
I1
tp771
a(S'ch_tr'
I1
tp772
a(S'ch_p2'
I1
tp773
a(S'ch_p1'
I1
tp774
a(S'w'
I1
tp775
a(S'p1_tl'
I106
tp776
a(S'w'
I1
tp777
a(S'p1_ll'
I1
tp778
a(S'w'
I5
tp779
a(S'no_ll'
I9
tp780
a(S'w'
I5131
tp781
a(S'p1_tl'
I95
tp782
a(S'w'
I1
tp783
a(S'p1_ll'
I1
tp784
a(S'w'
I3
tp785
a(S'tr_ll'
I0
tp786
a(S'w'
I2
tp787
a(S'w'
I1
tp788
a(S'no_ll'
I9
tp789
a(S'w'
I5133
tp790
a(S'tr_ll'
I0
tp791
a(S'w'
I2
tp792
a(S'no_ll'
I9
tp793
a(S'w'
I5131
tp794
a(S'p1_tl'
I63
tp795
a(S'w'
I1
tp796
a(S'p1_ll'
I1
tp797
a(S'w'
I1
tp798
a(S'w'
I1
tp799
a(S'p2_ll'
I1
tp800
a(S'w'
I2
tp801
a(S'tr_ll'
I0
tp802
a(S'w'
I1
tp803
a(S'w'
I1
tp804
a(S'no_ll'
I9
tp805
a(S'w'
I5129
tp806
a(S'p1_tl'
I71
tp807
a(S'w'
I1
tp808
a(S'p1_ll'
I1
tp809
a(S'w'
I1
tp810
a(S'p2_tl'
I95
tp811
a(S'w'
I1
tp812
a(S'p2_ll'
I1
tp813
a(S'w'
I1
tp814
a(S'tr_tl'
I29
tp815
a(S'w'
I1
tp816
a(S'tr_ll'
I0
tp817
a(S'w'
I1
tp818
a(S'w'
I1
tp819
a(S'no_ll'
I9
tp820
a(S'w'
I5130
tp821
a(S'w'
I1
tp822
a(S'p1_ll'
I1
tp823
a(S'w'
I1
tp824
a(S'w'
I1
tp825
a(S'p2_ll'
I1
tp826
a(S'w'
I2
tp827
a(S'tr_ll'
I0
tp828
a(S'w'
I1
tp829
a(S'w'
I1
tp830
a(S'no_ll'
I9
tp831
a(S'w'
I5129
tp832
a(S'w'
I1
tp833
a(S'p1_ll'
I1
tp834
a(S'w'
I1
tp835
a(S'w'
I1
tp836
a(S'p2_ll'
I1
tp837
a(S'w'
I2
tp838
a(S'tr_ll'
I0
tp839
a(S'w'
I1
tp840
a(S'w'
I1
tp841
a(S'no_ll'
I9
tp842
a(S'w'
I5130
tp843
a(S'p1_tl'
I56
tp844
a(S'w'
I1
tp845
a(S'p1_ll'
I1
tp846
a(S'w'
I1
tp847
a(S'w'
I1
tp848
a(S'p2_ll'
I1
tp849
a(S'w'
I2
tp850
a(S'tr_ll'
I0
tp851
a(S'w'
I1
tp852
a(S'w'
I1
tp853
a(S'no_ll'
I9
tp854
a(S'w'
I5130
tp855
a(S'w'
I1
tp856
a(S'p1_ll'
I1
tp857
a(S'w'
I1
tp858
a(S'w'
I1
tp859
a(S'p2_ll'
I1
tp860
a(S'w'
I2
tp861
a(S'tr_ll'
I0
tp862
a(S'w'
I1
tp863
a(S'w'
I1
tp864
a(S'no_ll'
I9
tp865
a(S'w'
I5129
tp866
a(S'p1_tl'
I63
tp867
a(S'w'
I1
tp868
a(S'p1_ll'
I1
tp869
a(S'w'
I1
tp870
a(S'w'
I1
tp871
a(S'p2_ll'
I1
tp872
a(S'w'
I2
tp873
a(S'tr_ll'
I0
tp874
a(S'w'
I1
tp875
a(S'w'
I1
tp876
a(S'no_ll'
I9
tp877
a(S'w'
I5130
tp878
a(S'p1_tl'
I71
tp879
a(S'w'
I1
tp880
a(S'p1_ll'
I1
tp881
a(S'w'
I1
tp882
a(S'w'
I1
tp883
a(S'p2_ll'
I1
tp884
a(S'w'
I2
tp885
a(S'tr_ll'
I0
tp886
a(S'w'
I1
tp887
a(S'w'
I1
tp888
a(S'no_ll'
I9
tp889
a(S'w'
I15401
tp890
a(S'ch_no'
I1
tp891
a(S'ch_tr'
I1
tp892
a(S'ch_p2'
I0
tp893
a(S'ch_p1'
I1
tp894
a(S'w'
I5
tp895
a(S'tr_ll'
I0
tp896
a(S'w'
I2
tp897
a(S'no_ll'
I9
tp898
a(S'w'
I5135
tp899
a(S'tr_tl'
I254
tp900
a(S'tr_ll'
I0
tp901
a(S'tr_th'
I0
tp902
a(S'w'
I2
tp903
a(S'no_ll'
I9
tp904
a(S'w'
I5130
tp905
a(S'w'
I1
tp906
a(S'p1_ll'
I1
tp907
a(S'w'
I3
tp908
a(S'tr_tl'
I226
tp909
a(S'tr_ll'
I0
tp910
a(S'w'
I2
tp911
a(S'w'
I1
tp912
a(S'no_ll'
I9
tp913
a(S'w'
I5129
tp914
a(S'ch_no'
I1
tp915
a(S'ch_tr'
I1
tp916
a(S'ch_p2'
I1
tp917
a(S'ch_p1'
I1
tp918
a(S'p1_vo'
I8
tp919
a(S'w'
I1
tp920
a(S'p1_tl'
I53
tp921
a(S'w'
I1
tp922
a(S'p1_ll'
I1
tp923
a(S'w'
I1
tp924
a(S'p2_vo'
I5
tp925
a(S'p2_tl'
I84
tp926
a(S'w'
I1
tp927
a(S'p2_ll'
I1
tp928
a(S'w'
I1
tp929
a(S'tr_tl'
I213
tp930
a(S'w'
I1
tp931
a(S'tr_ll'
I0
tp932
a(S'w'
I1
tp933
a(S'w'
I1
tp934
a(S'no_ll'
I9
tp935
a(S'w'
I5128
tp936
a(S'ch_no'
I0
tp937
a(S'ch_tr'
I1
tp938
a(S'ch_p2'
I1
tp939
a(S'ch_p1'
I1
tp940
a(S'w'
I5137
tp941
a(S'ch_no'
I1
tp942
a(S'ch_tr'
I1
tp943
a(S'ch_p2'
I1
tp944
a(S'ch_p1'
I1
tp945
a(S'w'
I6
tp946
a(S'w'
I1
tp947
a(S'no_ll'
I9
tp948
a(S'w'
I5135
tp949
a(S'tr_tl'
I83
tp950
a(S'tr_ll'
I0
tp951
a(S'tr_th'
I1
tp952
a(S'w'
I2
tp953
a(S'no_ll'
I9
tp954
a(S'w'
I5129
tp955
a(S'ch_no'
I0
tp956
a(S'ch_tr'
I1
tp957
a(S'ch_p2'
I1
tp958
a(S'ch_p1'
I1
tp959
a(S'w'
I5137
tp960
a(S'ch_no'
I1
tp961
a(S'ch_tr'
I1
tp962
a(S'ch_p2'
I1
tp963
a(S'ch_p1'
I1
tp964
a(S'w'
I6
tp965
a(S'w'
I1
tp966
a(S'no_ll'
I9
tp967
a(S'w'
I5129
tp968
a(S'p1_vo'
I7
tp969
a(S'w'
I1
tp970
a(S'p1_tl'
I60
tp971
a(S'w'
I1
tp972
a(S'p1_ll'
I1
tp973
a(S'w'
I1
tp974
a(S'p2_vo'
I3
tp975
a(S'p2_tl'
I80
tp976
a(S'w'
I1
tp977
a(S'p2_ll'
I1
tp978
a(S'w'
I1
tp979
a(S'tr_tl'
I64
tp980
a(S'w'
I1
tp981
a(S'tr_ll'
I0
tp982
a(S'w'
I1
tp983
a(S'w'
I1
tp984
a(S'no_ll'
I9
tp985
a(S'w'
I5129
tp986
a(S'ch_no'
I0
tp987
a(S'ch_tr'
I1
tp988
a(S'ch_p2'
I1
tp989
a(S'ch_p1'
I1
tp990
a(S'w'
I5136
tp991
a(S'ch_no'
I1
tp992
a(S'ch_tr'
I1
tp993
a(S'ch_p2'
I1
tp994
a(S'ch_p1'
I1
tp995
a(S'w'
I6
tp996
a(S'w'
I1
tp997
a(S'no_ll'
I9
tp998
a(S'w'
I5130
tp999
a(S'p1_vo'
I2
tp1000
a(S'w'
I1
tp1001
a(S'p1_tl'
I63
tp1002
a(S'w'
I1
tp1003
a(S'p1_ll'
I1
tp1004
a(S'w'
I1
tp1005
a(S'w'
I1
tp1006
a(S'p2_ll'
I1
tp1007
a(S'w'
I2
tp1008
a(S'tr_ll'
I0
tp1009
a(S'w'
I1
tp1010
a(S'w'
I1
tp1011
a(S'no_ll'
I9
tp1012
a(S'w'
I5129
tp1013
a(S'p1_tl'
I71
tp1014
a(S'w'
I1
tp1015
a(S'p1_ll'
I1
tp1016
a(S'w'
I1
tp1017
a(S'p2_tl'
I84
tp1018
a(S'w'
I1
tp1019
a(S'p2_ll'
I1
tp1020
a(S'w'
I3
tp1021
a(S'w'
I1
tp1022
a(S'no_ll'
I9
tp1023
a(S'w'
I5130
tp1024
a(S'p1_tl'
I80
tp1025
a(S'w'
I1
tp1026
a(S'p1_ll'
I1
tp1027
a(S'w'
I1
tp1028
a(S'p2_tl'
I95
tp1029
a(S'w'
I1
tp1030
a(S'p2_ll'
I1
tp1031
a(S'w'
I3
tp1032
a(S'w'
I1
tp1033
a(S'no_ll'
I9
tp1034
a(S'w'
I5128
tp1035
a(S'p1_vo'
I8
tp1036
a(S'w'
I1
tp1037
a(S'p1_tl'
I71
tp1038
a(S'w'
I1
tp1039
a(S'p1_ll'
I1
tp1040
a(S'w'
I1
tp1041
a(S'p2_vo'
I4
tp1042
a(S'p2_tl'
I84
tp1043
a(S'w'
I1
tp1044
a(S'p2_ll'
I1
tp1045
a(S'w'
I1
tp1046
a(S'tr_tl'
I213
tp1047
a(S'w'
I1
tp1048
a(S'tr_ll'
I0
tp1049
a(S'tr_th'
I0
tp1050
a(S'w'
I1
tp1051
a(S'w'
I1
tp1052
a(S'no_ll'
I9
tp1053
a(S'w'
I5129
tp1054
a(S'ch_no'
I0
tp1055
a(S'ch_tr'
I1
tp1056
a(S'ch_p2'
I1
tp1057
a(S'ch_p1'
I1
tp1058
a(S'w'
I5136
tp1059
a(S'ch_no'
I1
tp1060
a(S'ch_tr'
I1
tp1061
a(S'ch_p2'
I1
tp1062
a(S'ch_p1'
I1
tp1063
a(S'w'
I6
tp1064
a(S'w'
I1
tp1065
a(S'no_ll'
I9
tp1066
a(S'w'
I5135
tp1067
a(S'tr_tl'
I83
tp1068
a(S'tr_ll'
I0
tp1069
a(S'tr_th'
I1
tp1070
a(S'w'
I2
tp1071
a(S'no_ll'
I9
tp1072
a(S'w'
I5130
tp1073
a(S'ch_no'
I0
tp1074
a(S'ch_tr'
I1
tp1075
a(S'ch_p2'
I1
tp1076
a(S'ch_p1'
I1
tp1077
a(S'w'
I5136
tp1078
a(S'ch_no'
I1
tp1079
a(S'ch_tr'
I1
tp1080
a(S'ch_p2'
I1
tp1081
a(S'ch_p1'
I1
tp1082
a(S'w'
I1
tp1083
a(S'p1_tl'
I84
tp1084
a(S'w'
I1
tp1085
a(S'p1_ll'
I1
tp1086
a(S'w'
I1
tp1087
a(S'p2_tl'
I106
tp1088
a(S'w'
I1
tp1089
a(S'p2_ll'
I1
tp1090
a(S'w'
I3
tp1091
a(S'w'
I1
tp1092
a(S'no_ll'
I9
tp1093
a(S'w'
I5129
tp1094
a(S'p1_vo'
I7
tp1095
a(S'w'
I1
tp1096
a(S'p1_tl'
I106
tp1097
a(S'w'
I1
tp1098
a(S'p1_ll'
I1
tp1099
a(S'w'
I1
tp1100
a(S'p2_tl'
I142
tp1101
a(S'w'
I1
tp1102
a(S'p2_ll'
I1
tp1103
a(S'w'
I1
tp1104
a(S'tr_tl'
I213
tp1105
a(S'w'
I1
tp1106
a(S'tr_ll'
I0
tp1107
a(S'tr_th'
I0
tp1108
a(S'w'
I1
tp1109
a(S'w'
I1
tp1110
a(S'no_ll'
I9
tp1111
a(S'w'
I5128
tp1112
a(S'ch_no'
I0
tp1113
a(S'ch_tr'
I1
tp1114
a(S'ch_p2'
I1
tp1115
a(S'ch_p1'
I1
tp1116
a(S'w'
I5137
tp1117
a(S'ch_no'
I1
tp1118
a(S'ch_tr'
I1
tp1119
a(S'ch_p2'
I1
tp1120
a(S'ch_p1'
I1
tp1121
a(S'w'
I6
tp1122
a(S'w'
I1
tp1123
a(S'no_ll'
I9
tp1124
a(S'w'
I5129
tp1125
a(S'p1_vo'
I3
tp1126
a(S'w'
I1
tp1127
a(S'w'
I1
tp1128
a(S'p1_ll'
I1
tp1129
a(S'p2_vo'
I3
tp1130
a(S'w'
I1
tp1131
a(S'p2_tl'
I106
tp1132
a(S'w'
I1
tp1133
a(S'p2_ll'
I1
tp1134
a(S'w'
I1
tp1135
a(S'tr_tl'
I226
tp1136
a(S'w'
I1
tp1137
a(S'tr_ll'
I0
tp1138
a(S'w'
I1
tp1139
a(S'w'
I1
tp1140
a(S'no_ll'
I9
tp1141
a(S'w'
I5135
tp1142
a(S'w'
I1
tp1143
a(S'no_ll'
I9
tp1144
a(S'w'
I5130
tp1145
a(S'p1_tl'
I95
tp1146
a(S'w'
I1
tp1147
a(S'p1_ll'
I1
tp1148
a(S'w'
I1
tp1149
a(S'p2_tl'
I95
tp1150
a(S'w'
I1
tp1151
a(S'p2_ll'
I1
tp1152
a(S'w'
I3
tp1153
a(S'w'
I1
tp1154
a(S'no_ll'
I9
tp1155
a(S'w'
I5130
tp1156
a(S'p1_tl'
I84
tp1157
a(S'w'
I1
tp1158
a(S'p1_ll'
I1
tp1159
a(S'w'
I1
tp1160
a(S'p2_tl'
I106
tp1161
a(S'w'
I1
tp1162
a(S'p2_ll'
I1
tp1163
a(S'w'
I1
tp1164
a(S'tr_tl'
I254
tp1165
a(S'w'
I1
tp1166
a(S'tr_ll'
I0
tp1167
a(S'w'
I1
tp1168
a(S'w'
I1
tp1169
a(S'no_ll'
I9
tp1170
a(S'w'
I5129
tp1171
a(S'p1_tl'
I106
tp1172
a(S'w'
I1
tp1173
a(S'p1_ll'
I1
tp1174
a(S'w'
I1
tp1175
a(S'p2_tl'
I127
tp1176
a(S'w'
I1
tp1177
a(S'p2_ll'
I1
tp1178
a(S'w'
I3
tp1179
a(S'w'
I1
tp1180
a(S'no_ll'
I9
tp1181
a(S'w'
I5130
tp1182
a(S'p1_tl'
I84
tp1183
a(S'w'
I1
tp1184
a(S'p1_ll'
I1
tp1185
a(S'w'
I1
tp1186
a(S'p2_tl'
I106
tp1187
a(S'w'
I1
tp1188
a(S'p2_ll'
I1
tp1189
a(S'w'
I3
tp1190
a(S'w'
I1
tp1191
a(S'no_ll'
I9
tp1192
a(S'w'
I5130
tp1193
a(S'p1_tl'
I71
tp1194
a(S'w'
I1
tp1195
a(S'p1_ll'
I1
tp1196
a(S'w'
I1
tp1197
a(S'p2_tl'
I84
tp1198
a(S'w'
I1
tp1199
a(S'p2_ll'
I1
tp1200
a(S'w'
I2
tp1201
a(S'tr_ll'
I0
tp1202
a(S'w'
I1
tp1203
a(S'w'
I1
tp1204
a(S'no_ll'
I9
tp1205
a(S'w'
I5129
tp1206
a(S'p1_tl'
I84
tp1207
a(S'w'
I1
tp1208
a(S'p1_ll'
I1
tp1209
a(S'w'
I1
tp1210
a(S'p2_tl'
I106
tp1211
a(S'w'
I1
tp1212
a(S'p2_ll'
I1
tp1213
a(S'w'
I2
tp1214
a(S'tr_ll'
I0
tp1215
a(S'w'
I1
tp1216
a(S'w'
I1
tp1217
a(S'no_ll'
I9
tp1218
a(S'w'
I5130
tp1219
a(S'p1_tl'
I71
tp1220
a(S'w'
I1
tp1221
a(S'p1_ll'
I1
tp1222
a(S'w'
I1
tp1223
a(S'p2_tl'
I84
tp1224
a(S'w'
I1
tp1225
a(S'p2_ll'
I1
tp1226
a(S'w'
I2
tp1227
a(S'tr_ll'
I0
tp1228
a(S'w'
I1
tp1229
a(S'w'
I1
tp1230
a(S'no_ll'
I9
tp1231
a(S'w'
I5129
tp1232
a(S'p1_tl'
I56
tp1233
a(S'w'
I1
tp1234
a(S'p1_ll'
I1
tp1235
a(S'w'
I1
tp1236
a(S'p2_tl'
I71
tp1237
a(S'w'
I1
tp1238
a(S'p2_ll'
I1
tp1239
a(S'w'
I1
tp1240
a(S'tr_tl'
I29
tp1241
a(S'w'
I1
tp1242
a(S'tr_ll'
I0
tp1243
a(S'tr_th'
I1
tp1244
a(S'w'
I1
tp1245
a(S'w'
I1
tp1246
a(S'no_ll'
I9
tp1247
a(S'w'
I5130
tp1248
a(S'p1_tl'
I71
tp1249
a(S'w'
I1
tp1250
a(S'p1_ll'
I1
tp1251
a(S'w'
I1
tp1252
a(S'p2_tl'
I95
tp1253
a(S'w'
I1
tp1254
a(S'p2_ll'
I1
tp1255
a(S'w'
I3
tp1256
a(S'w'
I1
tp1257
a(S'no_ll'
I9
tp1258
a(S'w'
I5129
tp1259
a(S'p1_tl'
I56
tp1260
a(S'w'
I1
tp1261
a(S'p1_ll'
I1
tp1262
a(S'w'
I1
tp1263
a(S'p2_tl'
I71
tp1264
a(S'w'
I1
tp1265
a(S'p2_ll'
I1
tp1266
a(S'w'
I3
tp1267
a(S'w'
I1
tp1268
a(S'no_ll'
I9
tp1269
a(S'w'
I5130
tp1270
a(S'p1_tl'
I47
tp1271
a(S'w'
I1
tp1272
a(S'p1_ll'
I1
tp1273
a(S'w'
I1
tp1274
a(S'p2_tl'
I56
tp1275
a(S'w'
I1
tp1276
a(S'p2_ll'
I1
tp1277
a(S'w'
I2
tp1278
a(S'tr_ll'
I0
tp1279
a(S'w'
I1
tp1280
a(S'w'
I1
tp1281
a(S'no_ll'
I9
tp1282
a(S'w'
I5129
tp1283
a(S'p1_tl'
I71
tp1284
a(S'w'
I1
tp1285
a(S'p1_ll'
I1
tp1286
a(S'w'
I1
tp1287
a(S'p2_tl'
I95
tp1288
a(S'w'
I1
tp1289
a(S'p2_ll'
I1
tp1290
a(S'w'
I2
tp1291
a(S'tr_ll'
I0
tp1292
a(S'w'
I1
tp1293
a(S'w'
I1
tp1294
a(S'no_ll'
I9
tp1295
a(S'w'
I5130
tp1296
a(S'p1_tl'
I42
tp1297
a(S'w'
I1
tp1298
a(S'p1_ll'
I1
tp1299
a(S'w'
I1
tp1300
a(S'p2_tl'
I71
tp1301
a(S'w'
I1
tp1302
a(S'p2_ll'
I1
tp1303
a(S'w'
I2
tp1304
a(S'tr_ll'
I0
tp1305
a(S'w'
I1
tp1306
a(S'w'
I1
tp1307
a(S'no_ll'
I9
tp1308
a(S'w'
I5129
tp1309
a(S'p1_tl'
I47
tp1310
a(S'w'
I1
tp1311
a(S'p1_ll'
I1
tp1312
a(S'w'
I1
tp1313
a(S'p2_tl'
I67
tp1314
a(S'w'
I1
tp1315
a(S'p2_ll'
I1
tp1316
a(S'w'
I1
tp1317
a(S'tr_tl'
I213
tp1318
a(S'w'
I1
tp1319
a(S'tr_ll'
I0
tp1320
a(S'tr_th'
I0
tp1321
a(S'w'
I1
tp1322
a(S'w'
I1
tp1323
a(S'no_ll'
I9
tp1324
a(S'w'
I5130
tp1325
a(S'w'
I1
tp1326
a(S'p1_ll'
I1
tp1327
a(S'w'
I1
tp1328
a(S'w'
I1
tp1329
a(S'p2_ll'
I1
tp1330
a(S'w'
I2
tp1331
a(S'tr_ll'
I0
tp1332
a(S'w'
I1
tp1333
a(S'w'
I1
tp1334
a(S'no_ll'
I9
tp1335
a(S'w'
I5129
tp1336
a(S'w'
I1
tp1337
a(S'p1_ll'
I1
tp1338
a(S'w'
I1
tp1339
a(S'w'
I1
tp1340
a(S'p2_ll'
I1
tp1341
a(S'w'
I2
tp1342
a(S'tr_ll'
I0
tp1343
a(S'w'
I1
tp1344
a(S'w'
I1
tp1345
a(S'no_ll'
I9
tp1346
a(S'w'
I5130
tp1347
a(S'w'
I1
tp1348
a(S'p1_ll'
I1
tp1349
a(S'w'
I1
tp1350
a(S'w'
I1
tp1351
a(S'p2_ll'
I1
tp1352
a(S'w'
I2
tp1353
a(S'tr_ll'
I0
tp1354
a(S'w'
I1
tp1355
a(S'w'
I1
tp1356
a(S'no_ll'
I9
tp1357
a(S'w'
I5130
tp1358
a(S'w'
I1
tp1359
a(S'p1_ll'
I1
tp1360
a(S'w'
I1
tp1361
a(S'w'
I1
tp1362
a(S'p2_ll'
I1
tp1363
a(S'w'
I2
tp1364
a(S'tr_ll'
I0
tp1365
a(S'w'
I1
tp1366
a(S'w'
I1
tp1367
a(S'no_ll'
I9
tp1368
a(S'w'
I5129
tp1369
a(S'w'
I1
tp1370
a(S'p1_ll'
I1
tp1371
a(S'w'
I1
tp1372
a(S'p2_tl'
I80
tp1373
a(S'w'
I1
tp1374
a(S'p2_ll'
I1
tp1375
a(S'w'
I2
tp1376
a(S'tr_ll'
I0
tp1377
a(S'w'
I1
tp1378
a(S'w'
I1
tp1379
a(S'no_ll'
I9
tp1380
a(S'w'
I5130
tp1381
a(S'p1_tl'
I53
tp1382
a(S'w'
I1
tp1383
a(S'p1_ll'
I1
tp1384
a(S'w'
I1
tp1385
a(S'p2_tl'
I84
tp1386
a(S'w'
I1
tp1387
a(S'p2_ll'
I1
tp1388
a(S'w'
I2
tp1389
a(S'tr_ll'
I0
tp1390
a(S'w'
I1
tp1391
a(S'w'
I1
tp1392
a(S'no_ll'
I9
tp1393
a(S'w'
I15406
tp1394
a(S'tr_tl'
I29
tp1395
a(S'tr_ll'
I0
tp1396
a(S'tr_th'
I1
tp1397
a(S'w'
I2
tp1398
a(S'no_ll'
I9
tp1399
a(S'w'
I5135
tp1400
a(S'tr_tl'
I254
tp1401
a(S'tr_ll'
I0
tp1402
a(S'tr_th'
I0
tp1403
a(S'w'
I2
tp1404
a(S'no_ll'
I9
tp1405
a(S'w'
I5134
tp1406
a(S'tr_tl'
I226
tp1407
a(S'tr_ll'
I0
tp1408
a(S'w'
I2
tp1409
a(S'no_ll'
I9
tp1410
a(S'w'
I5130
tp1411
a.