(lp1
(S'clock'
p2
I1789772
tp3
a(S'fc_mo'
I1
tp4
a(S'ch_no'
I0
tp5
a(S'ch_tr'
I0
tp6
a(S'ch_p2'
I0
tp7
a(S'ch_p1'
I0
tp8
a(S'w'
I735
tp9
a(S'ch_no'
I0
tp10
a(S'ch_tr'
I1
tp11
a(S'ch_p2'
I0
tp12
a(S'ch_p1'
I1
tp13
a(S'p1_du'
I1
tp14
a(S'p1_vo'
I2
tp15
a(S'w'
I1
tp16
a(S'p1_sp'
I7
tp17
a(S'p1_sn'
I1
tp18
a(S'p1_tl'
I106
tp19
a(S'w'
I1
tp20
a(S'p1_ll'
I1
tp21
a(S'w'
I2
tp22
a(S'tr_lr'
I19
tp23
a(S'w'
I1
tp24
a(S'tr_tl'
I213
tp25
a(S'tr_ll'
I1
tp26
a(S'w'
I8806
tp27
a(S'tr_tl'
I106
tp28
a(S'tr_ll'
I1
tp29
a(S'w'
I8801
tp30
a(S'p1_tl'
I95
tp31
a(S'w'
I1
tp32
a(S'p1_ll'
I1
tp33
a(S'w'
I3
tp34
a(S'tr_tl'
I226
tp35
a(S'tr_ll'
I1
tp36
a(S'w'
I8806
tp37
a(S'tr_tl'
I113
tp38
a(S'tr_ll'
I1
tp39
a(S'w'
I8801
tp40
a(S'p1_tl'
I106
tp41
a(S'w'
I1
tp42
a(S'p1_ll'
I1
tp43
a(S'w'
I3
tp44
a(S'tr_tl'
I254
tp45
a(S'tr_ll'
I1
tp46
a(S'w'
I8802
tp47
a(S'w'
I1
tp48
a(S'p1_ll'
I1
tp49
a(S'w'
I3
tp50
a(S'tr_ll'
I1
tp51
a(S'w'
I4399
tp52
a(S'w'
I1
tp53
a(S'p1_ll'
I1
tp54
a(S'w'
I3
tp55
a(S'tr_ll'
I1
tp56
a(S'w'
I4398
tp57
a(S'p1_tl'
I80
tp58
a(S'w'
I1
tp59
a(S'p1_ll'
I1
tp60
a(S'w'
I3
tp61
a(S'tr_ll'
I1
tp62
a(S'w'
I11737
tp63
a(S'p1_tl'
I63
tp64
a(S'w'
I1
tp65
a(S'p1_ll'
I1
tp66
a(S'w'
I3
tp67
a(S'tr_ll'
I1
tp68
a(S'w'
I13203
tp69
a(S'p1_vo'
I8
tp70
a(S'w'
I1
tp71
a(S'p1_tl'
I53
tp72
a(S'w'
I1
tp73
a(S'p1_ll'
I1
tp74
a(S'w'
I2
tp75
a(S'tr_lr'
I80
tp76
a(S'w'
I1
tp77
a(S'tr_tl'
I13
tp78
a(S'tr_ll'
I1
tp79
a(S'tr_th'
I1
tp80
a(S'w'
I36685
tp81
a(S'ch_no'
I0
tp82
a(S'ch_tr'
I0
tp83
a(S'ch_p2'
I0
tp84
a(S'ch_p1'
I1
tp85
a(S'p1_du'
I0
tp86
a(S'p1_vo'
I0
tp87
a(S'w'
I1
tp88
a(S'p1_tl'
I242
tp89
a(S'w'
I1
tp90
a(S'p1_ll'
I1
tp91
a(S'p1_th'
I7
tp92
a(S'w'
I58871
tp93
a.