(lp1
(S'clock'
p2
I1789772
tp3
a(S'ch_no'
I0
tp4
a(S'ch_tr'
I0
tp5
a(S'ch_p2'
I0
tp6
a(S'ch_p1'
I0
tp7
a(S'p1_ll'
I0
tp8
a(S'p2_ll'
I0
tp9
a(S'tr_ll'
I0
tp10
a(S'no_ll'
I0
tp11
a(S'ch_no'
I1
tp12
a(S'ch_tr'
I1
tp13
a(S'ch_p2'
I1
tp14
a(S'ch_p1'
I1
tp15
a(S'w'
I736
tp16
a(S'p1_cv'
I1
tp17
a(S'w'
I4
tp18
a(S'p2_lh'
I1
tp19
a(S'p2_vo'
I6
tp20
a(S'w'
I1
tp21
a(S'p2_tl'
I160
tp22
a(S'w'
I1
tp23
a(S'p2_ll'
I31
tp24
a(S'w'
I2
tp25
a(S'tr_lr'
I127
tp26
a(S'w'
I1
tp27
a(S'tr_tl'
I39
tp28
a(S'w'
I1
tp29
a(S'tr_ll'
I31
tp30
a(S'tr_th'
I3
tp31
a(S'w'
I1463
tp32
a(S'p2_tl'
I158
tp33
a(S'w'
I1
tp34
a(S'p2_ll'
I31
tp35
a(S'w'
I733
tp36
a(S'p2_tl'
I157
tp37
a(S'w'
I1
tp38
a(S'p2_ll'
I31
tp39
a(S'w'
I732
tp40
a(S'p2_tl'
I156
tp41
a(S'w'
I1
tp42
a(S'p2_ll'
I31
tp43
a(S'w'
I749
tp44
a(S'p2_tl'
I155
tp45
a(S'w'
I1
tp46
a(S'p2_ll'
I31
tp47
a(S'w'
I713
tp48
a(S'p1_lh'
I1
tp49
a(S'p1_cv'
I0
tp50
a(S'p1_vo'
I8
tp51
a(S'w'
I1
tp52
a(S'p1_tl'
I157
tp53
a(S'w'
I1
tp54
a(S'p1_ll'
I31
tp55
a(S'w'
I3
tp56
a(S'p2_tl'
I154
tp57
a(S'w'
I1
tp58
a(S'p2_ll'
I31
tp59
a(S'w'
I13
tp60
a(S'tr_tl'
I93
tp61
a(S'w'
I1
tp62
a(S'tr_ll'
I31
tp63
a(S'tr_th'
I2
tp64
a(S'w'
I728
tp65
a(S'p2_tl'
I153
tp66
a(S'p2_ll'
I31
tp67
a(S'w'
I721
tp68
a(S'p1_tl'
I156
tp69
a(S'p1_ll'
I31
tp70
a(S'w'
I14
tp71
a(S'p2_tl'
I152
tp72
a(S'p2_ll'
I31
tp73
a(S'w'
I719
tp74
a(S'p1_tl'
I155
tp75
a(S'p1_ll'
I31
tp76
a(S'w'
I14
tp77
a(S'p2_tl'
I151
tp78
a(S'p2_ll'
I31
tp79
a(S'w'
I720
tp80
a(S'p1_tl'
I154
tp81
a(S'p1_ll'
I31
tp82
a(S'w'
I734
tp83
a(S'p1_tl'
I153
tp84
a(S'p1_ll'
I31
tp85
a(S'w'
I734
tp86
a(S'p1_tl'
I152
tp87
a(S'p1_ll'
I31
tp88
a(S'w'
I17
tp89
a(S'tr_tl'
I224
tp90
a(S'tr_ll'
I31
tp91
a(S'tr_th'
I1
tp92
a(S'w'
I717
tp93
a(S'p1_tl'
I151
tp94
a(S'p1_ll'
I31
tp95
a(S'w'
I733
tp96
a(S'p1_tl'
I150
tp97
a(S'p1_ll'
I31
tp98
a(S'w'
I734
tp99
a(S'p1_tl'
I149
tp100
a(S'p1_ll'
I31
tp101
a(S'w'
I2208
tp102
a(S'tr_tl'
I197
tp103
a(S'tr_ll'
I31
tp104
a(S'w'
I4399
tp105
a(S'p2_tl'
I160
tp106
a(S'w'
I1
tp107
a(S'p2_ll'
I31
tp108
a(S'w'
I4399
tp109
a(S'p1_tl'
I158
tp110
a(S'p1_ll'
I31
tp111
a(S'w'
I7
tp112
a(S'tr_tl'
I39
tp113
a(S'tr_ll'
I31
tp114
a(S'tr_th'
I3
tp115
a(S'w'
I4399
tp116
a(S'p2_tl'
I151
tp117
a(S'w'
I1
tp118
a(S'p2_ll'
I31
tp119
a(S'w'
I3
tp120
a(S'tr_tl'
I148
tp121
a(S'tr_ll'
I31
tp122
a(S'tr_th'
I1
tp123
a(S'w'
I4396
tp124
a(S'p1_tl'
I149
tp125
a(S'p1_ll'
I31
tp126
a(S'w'
I7
tp127
a(S'tr_tl'
I172
tp128
a(S'tr_ll'
I31
tp129
a(S'w'
I4397
tp130
a(S'p2_lh'
I0
tp131
a(S'p2_cv'
I1
tp132
a(S'p2_vo'
I0
tp133
a(S'w'
I4
tp134
a(S'tr_tl'
I104
tp135
a(S'w'
I1
tp136
a(S'tr_ll'
I31
tp137
a(S'w'
I4402
tp138
a(S'tr_tl'
I39
tp139
a(S'tr_ll'
I31
tp140
a(S'tr_th'
I3
tp141
a(S'w'
I4399
tp142
a(S'p2_lh'
I1
tp143
a(S'p2_cv'
I0
tp144
a(S'p2_vo'
I6
tp145
a(S'w'
I1
tp146
a(S'p2_tl'
I160
tp147
a(S'w'
I1
tp148
a(S'p2_ll'
I31
tp149
a(S'w'
I3
tp150
a(S'tr_tl'
I27
tp151
a(S'tr_ll'
I31
tp152
a(S'tr_th'
I2
tp153
a(S'w'
I4396
tp154
a(S'p1_tl'
I158
tp155
a(S'p1_ll'
I31
tp156
a(S'w'
I7
tp157
a(S'tr_tl'
I148
tp158
a(S'tr_ll'
I31
tp159
a(S'tr_th'
I1
tp160
a(S'w'
I4397
tp161
a(S'p2_lh'
I0
tp162
a(S'p2_cv'
I1
tp163
a(S'p2_vo'
I0
tp164
a(S'w'
I4
tp165
a(S'tr_tl'
I39
tp166
a(S'w'
I1
tp167
a(S'tr_ll'
I31
tp168
a(S'tr_th'
I3
tp169
a(S'w'
I4402
tp170
a(S'tr_tl'
I172
tp171
a(S'tr_ll'
I31
tp172
a(S'tr_th'
I1
tp173
a(S'w'
I4399
tp174
a(S'p2_lh'
I1
tp175
a(S'p2_cv'
I0
tp176
a(S'p2_vo'
I6
tp177
a(S'w'
I1
tp178
a(S'p2_tl'
I202
tp179
a(S'w'
I1
tp180
a(S'p2_ll'
I31
tp181
a(S'w'
I3
tp182
a(S'tr_tl'
I39
tp183
a(S'tr_ll'
I31
tp184
a(S'tr_th'
I3
tp185
a(S'w'
I4396
tp186
a(S'p1_tl'
I200
tp187
a(S'p1_ll'
I31
tp188
a(S'w'
I7
tp189
a(S'tr_tl'
I172
tp190
a(S'tr_ll'
I31
tp191
a(S'tr_th'
I1
tp192
a(S'w'
I4401
tp193
a(S'tr_tl'
I104
tp194
a(S'tr_ll'
I31
tp195
a(S'w'
I4403
tp196
a(S'tr_tl'
I39
tp197
a(S'tr_ll'
I31
tp198
a(S'tr_th'
I3
tp199
a(S'w'
I4400
tp200
a(S'p2_tl'
I180
tp201
a(S'w'
I1
tp202
a(S'p2_ll'
I31
tp203
a(S'w'
I3
tp204
a(S'tr_tl'
I224
tp205
a(S'tr_ll'
I31
tp206
a(S'tr_th'
I1
tp207
a(S'w'
I4396
tp208
a(S'p1_tl'
I178
tp209
a(S'p1_ll'
I31
tp210
a(S'w'
I7
tp211
a(S'tr_tl'
I197
tp212
a(S'tr_ll'
I31
tp213
a(S'w'
I4397
tp214
a(S'p2_lh'
I0
tp215
a(S'p2_cv'
I1
tp216
a(S'p2_vo'
I0
tp217
a(S'w'
I4407
tp218
a(S'tr_tl'
I39
tp219
a(S'tr_ll'
I31
tp220
a(S'tr_th'
I3
tp221
a(S'w'
I4399
tp222
a(S'p2_lh'
I1
tp223
a(S'p2_cv'
I0
tp224
a(S'p2_vo'
I6
tp225
a(S'w'
I1
tp226
a(S'p2_tl'
I226
tp227
a(S'w'
I1
tp228
a(S'p2_ll'
I31
tp229
a(S'w'
I3
tp230
a(S'tr_tl'
I148
tp231
a(S'tr_ll'
I31
tp232
a(S'tr_th'
I1
tp233
a(S'w'
I4396
tp234
a(S'p1_tl'
I224
tp235
a(S'p1_ll'
I31
tp236
a(S'w'
I7
tp237
a(S'tr_tl'
I172
tp238
a(S'tr_ll'
I31
tp239
a(S'w'
I4398
tp240
a(S'p2_tl'
I202
tp241
a(S'w'
I1
tp242
a(S'p2_ll'
I31
tp243
a(S'w'
I3
tp244
a(S'tr_tl'
I104
tp245
a(S'tr_ll'
I31
tp246
a(S'w'
I4396
tp247
a(S'p1_tl'
I200
tp248
a(S'p1_ll'
I31
tp249
a(S'w'
I7
tp250
a(S'tr_tl'
I39
tp251
a(S'tr_ll'
I31
tp252
a(S'tr_th'
I3
tp253
a(S'w'
I4402
tp254
a(S'tr_tl'
I27
tp255
a(S'tr_ll'
I31
tp256
a(S'tr_th'
I2
tp257
a(S'w'
I4403
tp258
a(S'tr_tl'
I148
tp259
a(S'tr_ll'
I31
tp260
a(S'tr_th'
I1
tp261
a(S'w'
I4399
tp262
a(S'p2_tl'
I226
tp263
a(S'w'
I1
tp264
a(S'p2_ll'
I31
tp265
a(S'w'
I3
tp266
a(S'tr_tl'
I39
tp267
a(S'tr_ll'
I31
tp268
a(S'tr_th'
I3
tp269
a(S'w'
I4396
tp270
a(S'p1_tl'
I224
tp271
a(S'p1_ll'
I31
tp272
a(S'w'
I7
tp273
a(S'tr_tl'
I172
tp274
a(S'tr_ll'
I31
tp275
a(S'tr_th'
I1
tp276
a(S'w'
I4399
tp277
a(S'p2_tl'
I180
tp278
a(S'w'
I1
tp279
a(S'p2_ll'
I31
tp280
a(S'w'
I3
tp281
a(S'tr_tl'
I39
tp282
a(S'tr_ll'
I31
tp283
a(S'tr_th'
I3
tp284
a(S'w'
I4396
tp285
a(S'p1_tl'
I178
tp286
a(S'p1_ll'
I31
tp287
a(S'w'
I7
tp288
a(S'tr_tl'
I172
tp289
a(S'tr_ll'
I31
tp290
a(S'tr_th'
I1
tp291
a(S'w'
I4398
tp292
a(S'p2_tl'
I160
tp293
a(S'w'
I1
tp294
a(S'p2_ll'
I31
tp295
a(S'w'
I3
tp296
a(S'tr_tl'
I104
tp297
a(S'tr_ll'
I31
tp298
a(S'w'
I1464
tp299
a(S'p2_tl'
I158
tp300
a(S'w'
I1
tp301
a(S'p2_ll'
I31
tp302
a(S'w'
I733
tp303
a(S'p2_tl'
I157
tp304
a(S'w'
I1
tp305
a(S'p2_ll'
I31
tp306
a(S'w'
I732
tp307
a(S'p2_tl'
I156
tp308
a(S'w'
I1
tp309
a(S'p2_ll'
I31
tp310
a(S'w'
I743
tp311
a(S'p2_tl'
I155
tp312
a(S'p2_ll'
I31
tp313
a(S'w'
I721
tp314
a(S'p1_tl'
I157
tp315
a(S'p1_ll'
I31
tp316
a(S'w'
I4
tp317
a(S'p2_tl'
I154
tp318
a(S'w'
I1
tp319
a(S'p2_ll'
I31
tp320
a(S'w'
I13
tp321
a(S'tr_tl'
I39
tp322
a(S'tr_ll'
I31
tp323
a(S'tr_th'
I3
tp324
a(S'w'
I729
tp325
a(S'p2_tl'
I153
tp326
a(S'p2_ll'
I31
tp327
a(S'w'
I721
tp328
a(S'p1_tl'
I156
tp329
a(S'p1_ll'
I31
tp330
a(S'w'
I14
tp331
a(S'p2_tl'
I152
tp332
a(S'p2_ll'
I31
tp333
a(S'w'
I719
tp334
a(S'p1_tl'
I155
tp335
a(S'p1_ll'
I31
tp336
a(S'w'
I14
tp337
a(S'p2_tl'
I151
tp338
a(S'p2_ll'
I31
tp339
a(S'w'
I720
tp340
a(S'p1_tl'
I154
tp341
a(S'p1_ll'
I31
tp342
a(S'w'
I734
tp343
a(S'p1_tl'
I153
tp344
a(S'p1_ll'
I31
tp345
a(S'w'
I734
tp346
a(S'p1_tl'
I152
tp347
a(S'p1_ll'
I31
tp348
a(S'w'
I17
tp349
a(S'tr_tl'
I224
tp350
a(S'tr_ll'
I31
tp351
a(S'tr_th'
I1
tp352
a(S'w'
I717
tp353
a(S'p1_tl'
I151
tp354
a(S'p1_ll'
I31
tp355
a(S'w'
I733
tp356
a(S'p1_tl'
I150
tp357
a(S'p1_ll'
I31
tp358
a(S'w'
I734
tp359
a(S'p1_tl'
I149
tp360
a(S'p1_ll'
I31
tp361
a(S'w'
I2208
tp362
a(S'tr_tl'
I197
tp363
a(S'tr_ll'
I31
tp364
a(S'w'
I4399
tp365
a(S'p2_tl'
I160
tp366
a(S'w'
I1
tp367
a(S'p2_ll'
I31
tp368
a(S'w'
I4399
tp369
a(S'p1_tl'
I158
tp370
a(S'p1_ll'
I31
tp371
a(S'w'
I7
tp372
a(S'tr_tl'
I39
tp373
a(S'tr_ll'
I31
tp374
a(S'tr_th'
I3
tp375
a(S'w'
I4399
tp376
a(S'p2_tl'
I151
tp377
a(S'w'
I1
tp378
a(S'p2_ll'
I31
tp379
a(S'w'
I3
tp380
a(S'tr_tl'
I148
tp381
a(S'tr_ll'
I31
tp382
a(S'tr_th'
I1
tp383
a(S'w'
I4396
tp384
a(S'p1_tl'
I149
tp385
a(S'p1_ll'
I31
tp386
a(S'w'
I7
tp387
a(S'tr_tl'
I172
tp388
a(S'tr_ll'
I31
tp389
a(S'w'
I4397
tp390
a(S'p2_lh'
I0
tp391
a(S'p2_cv'
I1
tp392
a(S'p2_vo'
I0
tp393
a(S'w'
I4
tp394
a(S'tr_tl'
I104
tp395
a(S'tr_ll'
I31
tp396
a(S'w'
I4403
tp397
a(S'tr_tl'
I39
tp398
a(S'tr_ll'
I31
tp399
a(S'tr_th'
I3
tp400
a(S'w'
I4399
tp401
a(S'p2_lh'
I1
tp402
a(S'p2_cv'
I0
tp403
a(S'p2_vo'
I6
tp404
a(S'w'
I1
tp405
a(S'p2_tl'
I160
tp406
a(S'w'
I1
tp407
a(S'p2_ll'
I31
tp408
a(S'w'
I3
tp409
a(S'tr_tl'
I27
tp410
a(S'tr_ll'
I31
tp411
a(S'tr_th'
I2
tp412
a(S'w'
I4396
tp413
a(S'p1_tl'
I158
tp414
a(S'p1_ll'
I31
tp415
a(S'w'
I7
tp416
a(S'tr_tl'
I148
tp417
a(S'tr_ll'
I31
tp418
a(S'tr_th'
I1
tp419
a(S'w'
I4397
tp420
a(S'p2_lh'
I0
tp421
a(S'p2_cv'
I1
tp422
a(S'p2_vo'
I0
tp423
a(S'w'
I4
tp424
a(S'tr_tl'
I39
tp425
a(S'tr_ll'
I31
tp426
a(S'tr_th'
I3
tp427
a(S'w'
I4403
tp428
a(S'tr_tl'
I172
tp429
a(S'tr_ll'
I31
tp430
a(S'tr_th'
I1
tp431
a(S'w'
I4399
tp432
a(S'p2_lh'
I1
tp433
a(S'p2_cv'
I0
tp434
a(S'p2_vo'
I6
tp435
a(S'w'
I1
tp436
a(S'p2_tl'
I202
tp437
a(S'w'
I1
tp438
a(S'p2_ll'
I31
tp439
a(S'w'
I3
tp440
a(S'tr_tl'
I39
tp441
a(S'tr_ll'
I31
tp442
a(S'tr_th'
I3
tp443
a(S'w'
I4396
tp444
a(S'p1_tl'
I200
tp445
a(S'p1_ll'
I31
tp446
a(S'w'
I7
tp447
a(S'tr_tl'
I172
tp448
a(S'tr_ll'
I31
tp449
a(S'tr_th'
I1
tp450
a(S'w'
I4401
tp451
a(S'tr_tl'
I104
tp452
a(S'tr_ll'
I31
tp453
a(S'w'
I4403
tp454
a(S'tr_tl'
I39
tp455
a(S'tr_ll'
I31
tp456
a(S'tr_th'
I3
tp457
a(S'w'
I4400
tp458
a(S'p2_tl'
I180
tp459
a(S'w'
I1
tp460
a(S'p2_ll'
I31
tp461
a(S'w'
I3
tp462
a(S'tr_tl'
I224
tp463
a(S'tr_ll'
I31
tp464
a(S'tr_th'
I1
tp465
a(S'w'
I4396
tp466
a(S'p1_tl'
I178
tp467
a(S'p1_ll'
I31
tp468
a(S'w'
I7
tp469
a(S'tr_tl'
I197
tp470
a(S'tr_ll'
I31
tp471
a(S'w'
I4397
tp472
a(S'p2_lh'
I0
tp473
a(S'p2_cv'
I1
tp474
a(S'p2_vo'
I0
tp475
a(S'w'
I4407
tp476
a(S'tr_tl'
I39
tp477
a(S'tr_ll'
I31
tp478
a(S'tr_th'
I3
tp479
a(S'w'
I4399
tp480
a(S'p2_lh'
I1
tp481
a(S'p2_cv'
I0
tp482
a(S'p2_vo'
I6
tp483
a(S'w'
I1
tp484
a(S'p2_tl'
I226
tp485
a(S'w'
I1
tp486
a(S'p2_ll'
I31
tp487
a(S'w'
I3
tp488
a(S'tr_tl'
I148
tp489
a(S'tr_ll'
I31
tp490
a(S'tr_th'
I1
tp491
a(S'w'
I4396
tp492
a(S'p1_tl'
I224
tp493
a(S'p1_ll'
I31
tp494
a(S'w'
I7
tp495
a(S'tr_tl'
I172
tp496
a(S'tr_ll'
I31
tp497
a(S'w'
I4398
tp498
a(S'p2_tl'
I202
tp499
a(S'w'
I1
tp500
a(S'p2_ll'
I31
tp501
a(S'w'
I3
tp502
a(S'tr_tl'
I104
tp503
a(S'tr_ll'
I31
tp504
a(S'w'
I4396
tp505
a(S'p1_tl'
I200
tp506
a(S'p1_ll'
I31
tp507
a(S'w'
I7
tp508
a(S'tr_tl'
I39
tp509
a(S'tr_ll'
I31
tp510
a(S'tr_th'
I3
tp511
a(S'w'
I4402
tp512
a(S'tr_tl'
I27
tp513
a(S'tr_ll'
I31
tp514
a(S'tr_th'
I2
tp515
a(S'w'
I4403
tp516
a(S'tr_tl'
I148
tp517
a(S'tr_ll'
I31
tp518
a(S'tr_th'
I1
tp519
a(S'w'
I4399
tp520
a(S'p2_tl'
I226
tp521
a(S'w'
I1
tp522
a(S'p2_ll'
I31
tp523
a(S'w'
I3
tp524
a(S'tr_tl'
I39
tp525
a(S'tr_ll'
I31
tp526
a(S'tr_th'
I3
tp527
a(S'w'
I4396
tp528
a(S'p1_tl'
I224
tp529
a(S'p1_ll'
I31
tp530
a(S'w'
I7
tp531
a(S'tr_tl'
I172
tp532
a(S'tr_ll'
I31
tp533
a(S'tr_th'
I1
tp534
a(S'w'
I4399
tp535
a(S'p2_tl'
I180
tp536
a(S'w'
I1
tp537
a(S'p2_ll'
I31
tp538
a(S'w'
I3
tp539
a(S'tr_tl'
I39
tp540
a(S'tr_ll'
I31
tp541
a(S'tr_th'
I3
tp542
a(S'w'
I4396
tp543
a(S'p1_tl'
I178
tp544
a(S'p1_ll'
I31
tp545
a(S'w'
I7
tp546
a(S'tr_tl'
I172
tp547
a(S'tr_ll'
I31
tp548
a(S'tr_th'
I1
tp549
a(S'w'
I4397
tp550
a(S'p2_vo'
I4
tp551
a(S'w'
I1
tp552
a(S'p2_tl'
I226
tp553
a(S'w'
I1
tp554
a(S'p2_ll'
I31
tp555
a(S'w'
I3
tp556
a(S'tr_tl'
I39
tp557
a(S'tr_ll'
I31
tp558
a(S'tr_th'
I3
tp559
a(S'w'
I4395
tp560
a(S'p1_vo'
I4
tp561
a(S'w'
I1
tp562
a(S'p1_tl'
I223
tp563
a(S'p1_ll'
I31
tp564
a(S'w'
I7
tp565
a(S'tr_tl'
I160
tp566
a(S'tr_ll'
I31
tp567
a(S'tr_th'
I0
tp568
a(S'w'
I4399
tp569
a(S'w'
I1
tp570
a(S'p2_ll'
I31
tp571
a(S'w'
I3
tp572
a(S'tr_tl'
I39
tp573
a(S'tr_ll'
I31
tp574
a(S'tr_th'
I3
tp575
a(S'w'
I4396
tp576
a(S'p1_ll'
I31
tp577
a(S'w'
I4
tp578
a(S'p2_tl'
I80
tp579
a(S'w'
I1
tp580
a(S'p2_ll'
I31
tp581
a(S'w'
I3
tp582
a(S'tr_tl'
I160
tp583
a(S'w'
I1
tp584
a(S'tr_ll'
I31
tp585
a(S'tr_th'
I0
tp586
a(S'w'
I4393
tp587
a(S'p1_tl'
I77
tp588
a(S'p1_ll'
I31
tp589
a(S'w'
I4
tp590
a(S'p2_tl'
I107
tp591
a(S'w'
I1
tp592
a(S'p2_ll'
I31
tp593
a(S'w'
I3
tp594
a(S'tr_tl'
I172
tp595
a(S'w'
I1
tp596
a(S'tr_ll'
I31
tp597
a(S'tr_th'
I1
tp598
a(S'w'
I4394
tp599
a(S'p1_tl'
I104
tp600
a(S'p1_ll'
I31
tp601
a(S'w'
I4
tp602
a(S'p2_tl'
I135
tp603
a(S'w'
I1
tp604
a(S'p2_ll'
I31
tp605
a(S'w'
I3
tp606
a(S'tr_tl'
I13
tp607
a(S'w'
I1
tp608
a(S'tr_ll'
I31
tp609
a(S'w'
I4394
tp610
a(S'p1_tl'
I132
tp611
a(S'p1_ll'
I31
tp612
a(S'w'
I4
tp613
a(S'p2_tl'
I71
tp614
a(S'w'
I1
tp615
a(S'p2_ll'
I31
tp616
a(S'w'
I3
tp617
a(S'tr_tl'
I29
tp618
a(S'w'
I1
tp619
a(S'tr_ll'
I31
tp620
a(S'w'
I4394
tp621
a(S'p1_tl'
I68
tp622
a(S'p1_ll'
I31
tp623
a(S'w'
I4
tp624
a(S'p2_tl'
I80
tp625
a(S'w'
I1
tp626
a(S'p2_ll'
I31
tp627
a(S'w'
I3
tp628
a(S'tr_tl'
I64
tp629
a(S'w'
I1
tp630
a(S'tr_ll'
I31
tp631
a(S'w'
I4393
tp632
a(S'p1_tl'
I77
tp633
a(S'p1_ll'
I31
tp634
a(S'w'
I4
tp635
a(S'p2_tl'
I226
tp636
a(S'w'
I1
tp637
a(S'p2_ll'
I31
tp638
a(S'w'
I3
tp639
a(S'tr_tl'
I39
tp640
a(S'w'
I1
tp641
a(S'tr_ll'
I31
tp642
a(S'tr_th'
I3
tp643
a(S'w'
I4394
tp644
a(S'p1_tl'
I223
tp645
a(S'p1_ll'
I31
tp646
a(S'w'
I7
tp647
a(S'tr_tl'
I160
tp648
a(S'tr_ll'
I31
tp649
a(S'tr_th'
I0
tp650
a(S'w'
I4399
tp651
a(S'w'
I1
tp652
a(S'p2_ll'
I31
tp653
a(S'w'
I3
tp654
a(S'tr_tl'
I39
tp655
a(S'tr_ll'
I31
tp656
a(S'tr_th'
I3
tp657
a(S'w'
I4396
tp658
a(S'p1_ll'
I31
tp659
a(S'w'
I4
tp660
a(S'p2_tl'
I80
tp661
a(S'w'
I1
tp662
a(S'p2_ll'
I31
tp663
a(S'w'
I3
tp664
a(S'tr_tl'
I160
tp665
a(S'w'
I1
tp666
a(S'tr_ll'
I31
tp667
a(S'tr_th'
I0
tp668
a(S'w'
I4393
tp669
a(S'p1_tl'
I77
tp670
a(S'p1_ll'
I31
tp671
a(S'w'
I4
tp672
a(S'p2_tl'
I107
tp673
a(S'w'
I1
tp674
a(S'p2_ll'
I31
tp675
a(S'w'
I3
tp676
a(S'tr_tl'
I172
tp677
a(S'w'
I1
tp678
a(S'tr_ll'
I31
tp679
a(S'tr_th'
I1
tp680
a(S'w'
I4394
tp681
a(S'p1_tl'
I104
tp682
a(S'p1_ll'
I31
tp683
a(S'w'
I4
tp684
a(S'p2_tl'
I143
tp685
a(S'w'
I1
tp686
a(S'p2_ll'
I31
tp687
a(S'w'
I3
tp688
a(S'tr_tl'
I197
tp689
a(S'w'
I1
tp690
a(S'tr_ll'
I31
tp691
a(S'w'
I4394
tp692
a(S'p1_tl'
I140
tp693
a(S'p1_ll'
I31
tp694
a(S'w'
I4
tp695
a(S'p2_tl'
I226
tp696
a(S'w'
I1
tp697
a(S'p2_ll'
I31
tp698
a(S'w'
I3
tp699
a(S'tr_tl'
I39
tp700
a(S'w'
I1
tp701
a(S'tr_ll'
I31
tp702
a(S'tr_th'
I3
tp703
a(S'w'
I4394
tp704
a(S'p1_tl'
I223
tp705
a(S'p1_ll'
I31
tp706
a(S'w'
I7
tp707
a(S'tr_tl'
I160
tp708
a(S'tr_ll'
I31
tp709
a(S'tr_th'
I0
tp710
a(S'w'
I4394
tp711
a(S'p1_vo'
I6
tp712
a(S'w'
I1
tp713
a(S'p1_tl'
I111
tp714
a(S'p1_ll'
I31
tp715
a(S'w'
I3
tp716
a(S'p2_vo'
I6
tp717
a(S'w'
I1
tp718
a(S'p2_tl'
I113
tp719
a(S'w'
I1
tp720
a(S'p2_ll'
I31
tp721
a(S'w'
I3
tp722
a(S'tr_tl'
I39
tp723
a(S'tr_ll'
I31
tp724
a(S'tr_th'
I3
tp725
a(S'w'
I4401
tp726
a(S'tr_tl'
I160
tp727
a(S'tr_ll'
I31
tp728
a(S'tr_th'
I0
tp729
a(S'w'
I4399
tp730
a(S'p2_lh'
I0
tp731
a(S'p2_cv'
I1
tp732
a(S'p2_vo'
I0
tp733
a(S'w'
I4
tp734
a(S'tr_tl'
I214
tp735
a(S'tr_ll'
I31
tp736
a(S'w'
I4403
tp737
a(S'tr_tl'
I226
tp738
a(S'tr_ll'
I31
tp739
a(S'w'
I4396
tp740
a(S'p1_ll'
I31
tp741
a(S'w'
I3
tp742
a(S'p2_lh'
I1
tp743
a(S'p2_cv'
I0
tp744
a(S'p2_vo'
I6
tp745
a(S'w'
I1
tp746
a(S'w'
I1
tp747
a(S'p2_ll'
I31
tp748
a(S'w'
I3
tp749
a(S'tr_tl'
I39
tp750
a(S'w'
I1
tp751
a(S'tr_ll'
I31
tp752
a(S'tr_th'
I3
tp753
a(S'w'
I4400
tp754
a(S'tr_tl'
I143
tp755
a(S'tr_ll'
I31
tp756
a(S'tr_th'
I0
tp757
a(S'w'
I4397
tp758
a(S'p1_ll'
I31
tp759
a(S'w'
I4
tp760
a(S'w'
I1
tp761
a(S'p2_ll'
I31
tp762
a(S'w'
I3
tp763
a(S'tr_tl'
I39
tp764
a(S'w'
I1
tp765
a(S'tr_ll'
I31
tp766
a(S'tr_th'
I3
tp767
a(S'w'
I4400
tp768
a(S'tr_tl'
I172
tp769
a(S'tr_ll'
I31
tp770
a(S'tr_th'
I1
tp771
a(S'w'
I4398
tp772
a(S'p2_lh'
I0
tp773
a(S'p2_cv'
I1
tp774
a(S'p2_vo'
I0
tp775
a(S'w'
I4
tp776
a(S'tr_tl'
I226
tp777
a(S'w'
I1
tp778
a(S'tr_ll'
I31
tp779
a(S'tr_th'
I0
tp780
a(S'w'
I4402
tp781
a(S'tr_tl'
I29
tp782
a(S'tr_ll'
I31
tp783
a(S'tr_th'
I1
tp784
a(S'w'
I4397
tp785
a(S'p1_ll'
I31
tp786
a(S'w'
I3
tp787
a(S'p2_lh'
I1
tp788
a(S'p2_cv'
I0
tp789
a(S'p2_vo'
I6
tp790
a(S'w'
I1
tp791
a(S'w'
I1
tp792
a(S'p2_ll'
I31
tp793
a(S'w'
I3
tp794
a(S'tr_tl'
I39
tp795
a(S'w'
I1
tp796
a(S'tr_ll'
I31
tp797
a(S'tr_th'
I3
tp798
a(S'w'
I4400
tp799
a(S'tr_tl'
I226
tp800
a(S'tr_ll'
I31
tp801
a(S'tr_th'
I0
tp802
a(S'w'
I4396
tp803
a(S'p1_ll'
I31
tp804
a(S'w'
I4
tp805
a(S'w'
I1
tp806
a(S'p2_ll'
I31
tp807
a(S'w'
I3
tp808
a(S'tr_tl'
I39
tp809
a(S'w'
I1
tp810
a(S'tr_ll'
I31
tp811
a(S'tr_th'
I3
tp812
a(S'w'
I4400
tp813
a(S'tr_tl'
I160
tp814
a(S'tr_ll'
I31
tp815
a(S'tr_th'
I0
tp816
a(S'w'
I4403
tp817
a(S'tr_tl'
I113
tp818
a(S'tr_ll'
I31
tp819
a(S'w'
I4397
tp820
a(S'p1_ll'
I31
tp821
a(S'w'
I4
tp822
a(S'w'
I1
tp823
a(S'p2_ll'
I31
tp824
a(S'w'
I3
tp825
a(S'tr_tl'
I39
tp826
a(S'w'
I1
tp827
a(S'tr_ll'
I31
tp828
a(S'tr_th'
I3
tp829
a(S'w'
I3657
tp830
a(S'p1_lh'
I0
tp831
a(S'p1_cv'
I1
tp832
a(S'p1_vo'
I0
tp833
a(S'w'
I5
tp834
a(S'p2_tl'
I160
tp835
a(S'w'
I1
tp836
a(S'p2_ll'
I31
tp837
a(S'w'
I4
tp838
a.