(lp1
(S'clock'
p2
I1789772
tp3
a(S'ch_no'
I0
tp4
a(S'ch_tr'
I0
tp5
a(S'ch_p2'
I0
tp6
a(S'ch_p1'
I0
tp7
a(S'p1_ll'
I0
tp8
a(S'p2_ll'
I0
tp9
a(S'tr_ll'
I0
tp10
a(S'no_ll'
I0
tp11
a(S'ch_no'
I1
tp12
a(S'ch_tr'
I1
tp13
a(S'ch_p2'
I1
tp14
a(S'ch_p1'
I1
tp15
a(S'w'
I736
tp16
a(S'p1_cv'
I1
tp17
a(S'w'
I4
tp18
a(S'p2_cv'
I1
tp19
a(S'w'
I3
tp20
a(S'tr_lr'
I127
tp21
a(S'w'
I1
tp22
a(S'tr_tl'
I172
tp23
a(S'w'
I1
tp24
a(S'tr_ll'
I31
tp25
a(S'tr_th'
I1
tp26
a(S'w'
I6599
tp27
a(S'p2_cv'
I0
tp28
a(S'p2_vo'
I4
tp29
a(S'w'
I1
tp30
a(S'p2_tl'
I104
tp31
a(S'w'
I1
tp32
a(S'p2_ll'
I31
tp33
a(S'p2_th'
I1
tp34
a(S'w'
I3
tp35
a(S'tr_ll'
I31
tp36
a(S'w'
I3661
tp37
a(S'p1_lh'
I1
tp38
a(S'p1_vo'
I5
tp39
a(S'w'
I1
tp40
a(S'p1_tl'
I102
tp41
a(S'w'
I1
tp42
a(S'p1_ll'
I31
tp43
a(S'p1_th'
I1
tp44
a(S'w'
I2938
tp45
a(S'p2_tl'
I83
tp46
a(S'w'
I1
tp47
a(S'p2_ll'
I31
tp48
a(S'w'
I3
tp49
a(S'tr_tl'
I29
tp50
a(S'tr_ll'
I31
tp51
a(S'w'
I3662
tp52
a(S'p1_tl'
I81
tp53
a(S'p1_ll'
I31
tp54
a(S'w'
I2938
tp55
a(S'p2_tl'
I29
tp56
a(S'w'
I1
tp57
a(S'p2_ll'
I31
tp58
a(S'w'
I3
tp59
a(S'tr_tl'
I172
tp60
a(S'tr_ll'
I31
tp61
a(S'w'
I3662
tp62
a(S'p1_tl'
I27
tp63
a(S'p1_ll'
I31
tp64
a(S'w'
I2941
tp65
a(S'tr_tl'
I214
tp66
a(S'tr_ll'
I31
tp67
a(S'tr_th'
I0
tp68
a(S'w'
I6601
tp69
a(S'p2_tl'
I240
tp70
a(S'w'
I1
tp71
a(S'p2_ll'
I31
tp72
a(S'p2_th'
I0
tp73
a(S'w'
I3
tp74
a(S'tr_tl'
I240
tp75
a(S'tr_ll'
I31
tp76
a(S'w'
I3662
tp77
a(S'p1_tl'
I238
tp78
a(S'p1_ll'
I31
tp79
a(S'p1_th'
I0
tp80
a(S'w'
I9542
tp81
a(S'p2_tl'
I254
tp82
a(S'w'
I1
tp83
a(S'p2_ll'
I31
tp84
a(S'w'
I3
tp85
a(S'tr_tl'
I29
tp86
a(S'tr_ll'
I31
tp87
a(S'tr_th'
I1
tp88
a(S'w'
I3662
tp89
a(S'p1_tl'
I252
tp90
a(S'p1_ll'
I31
tp91
a(S'w'
I2941
tp92
a(S'tr_tl'
I172
tp93
a(S'tr_ll'
I31
tp94
a(S'w'
I6601
tp95
a(S'p2_tl'
I64
tp96
a(S'w'
I1
tp97
a(S'p2_ll'
I31
tp98
a(S'p2_th'
I1
tp99
a(S'w'
I3
tp100
a(S'tr_ll'
I31
tp101
a(S'w'
I3662
tp102
a(S'p1_tl'
I62
tp103
a(S'p1_ll'
I31
tp104
a(S'p1_th'
I1
tp105
a(S'w'
I2939
tp106
a(S'p2_tl'
I29
tp107
a(S'w'
I1
tp108
a(S'p2_ll'
I31
tp109
a(S'w'
I3
tp110
a(S'tr_tl'
I29
tp111
a(S'tr_ll'
I31
tp112
a(S'w'
I3662
tp113
a(S'p1_tl'
I27
tp114
a(S'p1_ll'
I31
tp115
a(S'w'
I2941
tp116
a(S'tr_tl'
I172
tp117
a(S'tr_ll'
I31
tp118
a(S'w'
I6601
tp119
a(S'p2_tl'
I172
tp120
a(S'w'
I1
tp121
a(S'p2_ll'
I31
tp122
a(S'w'
I3665
tp123
a(S'p1_tl'
I170
tp124
a(S'p1_ll'
I31
tp125
a(S'w'
I2941
tp126
a(S'tr_tl'
I240
tp127
a(S'tr_ll'
I31
tp128
a(S'tr_th'
I0
tp129
a(S'w'
I6601
tp130
a(S'p2_tl'
I125
tp131
a(S'w'
I1
tp132
a(S'p2_ll'
I31
tp133
a(S'w'
I3665
tp134
a(S'p1_tl'
I123
tp135
a(S'p1_ll'
I31
tp136
a(S'w'
I2938
tp137
a(S'p2_tl'
I104
tp138
a(S'w'
I1
tp139
a(S'p2_ll'
I31
tp140
a(S'w'
I3
tp141
a(S'tr_tl'
I83
tp142
a(S'tr_ll'
I31
tp143
a(S'tr_th'
I1
tp144
a(S'w'
I3662
tp145
a(S'p1_tl'
I102
tp146
a(S'p1_ll'
I31
tp147
a(S'w'
I2938
tp148
a(S'p2_tl'
I125
tp149
a(S'w'
I1
tp150
a(S'p2_ll'
I31
tp151
a(S'w'
I3
tp152
a(S'tr_tl'
I172
tp153
a(S'tr_ll'
I31
tp154
a(S'w'
I3662
tp155
a(S'p1_tl'
I123
tp156
a(S'p1_ll'
I31
tp157
a(S'w'
I2938
tp158
a(S'p2_tl'
I172
tp159
a(S'w'
I1
tp160
a(S'p2_ll'
I31
tp161
a(S'w'
I3
tp162
a(S'tr_ll'
I31
tp163
a(S'w'
I3662
tp164
a(S'p1_tl'
I170
tp165
a(S'p1_ll'
I31
tp166
a(S'w'
I2939
tp167
a(S'p2_tl'
I224
tp168
a(S'w'
I1
tp169
a(S'p2_ll'
I31
tp170
a(S'w'
I3
tp171
a(S'tr_tl'
I29
tp172
a(S'tr_ll'
I31
tp173
a(S'w'
I3662
tp174
a(S'p1_tl'
I222
tp175
a(S'p1_ll'
I31
tp176
a(S'w'
I2941
tp177
a(S'tr_tl'
I172
tp178
a(S'tr_ll'
I31
tp179
a(S'w'
I6601
tp180
a(S'p2_tl'
I252
tp181
a(S'w'
I1
tp182
a(S'p2_ll'
I31
tp183
a(S'w'
I3
tp184
a(S'tr_tl'
I214
tp185
a(S'tr_ll'
I31
tp186
a(S'tr_th'
I0
tp187
a(S'w'
I3662
tp188
a(S'p1_tl'
I250
tp189
a(S'p1_ll'
I31
tp190
a(S'w'
I2941
tp191
a(S'tr_tl'
I240
tp192
a(S'tr_ll'
I31
tp193
a(S'w'
I6601
tp194
a(S'p2_tl'
I59
tp195
a(S'w'
I1
tp196
a(S'p2_ll'
I31
tp197
a(S'p2_th'
I2
tp198
a(S'w'
I3665
tp199
a(S'p1_tl'
I57
tp200
a(S'p1_ll'
I31
tp201
a(S'p1_th'
I2
tp202
a(S'w'
I2941
tp203
a(S'tr_tl'
I29
tp204
a(S'tr_ll'
I31
tp205
a(S'tr_th'
I1
tp206
a(S'w'
I6597
tp207
a(S'p1_du'
I2
tp208
a(S'p1_cv'
I0
tp209
a(S'p1_vo'
I3
tp210
a(S'w'
I1
tp211
a(S'p1_tl'
I141
tp212
a(S'p1_ll'
I31
tp213
a(S'p1_th'
I0
tp214
a(S'w'
I3
tp215
a(S'p2_du'
I2
tp216
a(S'p2_lh'
I1
tp217
a(S'p2_vo'
I3
tp218
a(S'w'
I1
tp219
a(S'p2_tl'
I143
tp220
a(S'w'
I1
tp221
a(S'p2_ll'
I31
tp222
a(S'p2_th'
I0
tp223
a(S'w'
I3
tp224
a(S'tr_tl'
I172
tp225
a(S'w'
I1
tp226
a(S'tr_ll'
I31
tp227
a(S'w'
I6595
tp228
a(S'p1_ll'
I31
tp229
a(S'w'
I4
tp230
a(S'w'
I1
tp231
a(S'p2_ll'
I31
tp232
a(S'w'
I4
tp233
a(S'tr_ll'
I31
tp234
a(S'w'
I6594
tp235
a(S'p1_du'
I0
tp236
a(S'p1_lh'
I0
tp237
a(S'p1_cv'
I1
tp238
a(S'p1_vo'
I0
tp239
a(S'w'
I4
tp240
a(S'p2_du'
I0
tp241
a(S'p2_lh'
I0
tp242
a(S'p2_cv'
I1
tp243
a(S'p2_vo'
I0
tp244
a(S'w'
I4
tp245
a(S'tr_tl'
I29
tp246
a(S'w'
I1
tp247
a(S'tr_ll'
I31
tp248
a(S'w'
I6596
tp249
a(S'p1_du'
I2
tp250
a(S'p1_lh'
I1
tp251
a(S'p1_cv'
I0
tp252
a(S'p1_vo'
I3
tp253
a(S'w'
I1
tp254
a(S'p1_ll'
I31
tp255
a(S'w'
I3
tp256
a(S'p2_du'
I2
tp257
a(S'p2_lh'
I1
tp258
a(S'p2_cv'
I0
tp259
a(S'p2_vo'
I3
tp260
a(S'w'
I1
tp261
a(S'w'
I1
tp262
a(S'p2_ll'
I31
tp263
a(S'w'
I3
tp264
a(S'tr_tl'
I172
tp265
a(S'w'
I1
tp266
a(S'tr_ll'
I31
tp267
a(S'w'
I6595
tp268
a(S'p1_ll'
I31
tp269
a(S'w'
I4
tp270
a(S'w'
I1
tp271
a(S'p2_ll'
I31
tp272
a(S'w'
I6597
tp273
a(S'p1_du'
I0
tp274
a(S'p1_lh'
I0
tp275
a(S'p1_cv'
I1
tp276
a(S'p1_vo'
I0
tp277
a(S'w'
I4
tp278
a(S'p2_du'
I0
tp279
a(S'p2_lh'
I0
tp280
a(S'p2_cv'
I1
tp281
a(S'p2_vo'
I0
tp282
a(S'w'
I4
tp283
a(S'tr_tl'
I240
tp284
a(S'w'
I1
tp285
a(S'tr_ll'
I31
tp286
a(S'tr_th'
I0
tp287
a(S'w'
I6596
tp288
a(S'p1_du'
I2
tp289
a(S'p1_lh'
I1
tp290
a(S'p1_cv'
I0
tp291
a(S'p1_vo'
I3
tp292
a(S'w'
I1
tp293
a(S'p1_ll'
I31
tp294
a(S'w'
I3
tp295
a(S'p2_du'
I2
tp296
a(S'p2_lh'
I1
tp297
a(S'p2_cv'
I0
tp298
a(S'p2_vo'
I3
tp299
a(S'w'
I1
tp300
a(S'w'
I1
tp301
a(S'p2_ll'
I31
tp302
a(S'w'
I6597
tp303
a(S'p1_du'
I0
tp304
a(S'p1_lh'
I0
tp305
a(S'p1_cv'
I1
tp306
a(S'p1_vo'
I0
tp307
a(S'w'
I4
tp308
a(S'p2_du'
I0
tp309
a(S'p2_lh'
I0
tp310
a(S'p2_cv'
I1
tp311
a(S'p2_vo'
I0
tp312
a(S'w'
I4
tp313
a(S'tr_tl'
I83
tp314
a(S'w'
I1
tp315
a(S'tr_ll'
I31
tp316
a(S'tr_th'
I1
tp317
a(S'w'
I6599
tp318
a(S'p2_cv'
I0
tp319
a(S'p2_vo'
I4
tp320
a(S'w'
I1
tp321
a(S'p2_tl'
I104
tp322
a(S'w'
I1
tp323
a(S'p2_ll'
I31
tp324
a(S'p2_th'
I1
tp325
a(S'w'
I3
tp326
a(S'tr_tl'
I172
tp327
a(S'tr_ll'
I31
tp328
a(S'w'
I3661
tp329
a(S'p1_lh'
I1
tp330
a(S'p1_vo'
I5
tp331
a(S'w'
I1
tp332
a(S'p1_tl'
I102
tp333
a(S'p1_ll'
I31
tp334
a(S'p1_th'
I1
tp335
a(S'w'
I2938
tp336
a(S'p2_tl'
I83
tp337
a(S'w'
I1
tp338
a(S'p2_ll'
I31
tp339
a(S'w'
I3
tp340
a(S'tr_ll'
I31
tp341
a(S'w'
I3662
tp342
a(S'p1_tl'
I81
tp343
a(S'p1_ll'
I31
tp344
a(S'w'
I2939
tp345
a(S'p2_tl'
I29
tp346
a(S'w'
I1
tp347
a(S'p2_ll'
I31
tp348
a(S'w'
I3
tp349
a(S'tr_tl'
I29
tp350
a(S'tr_ll'
I31
tp351
a(S'w'
I3662
tp352
a(S'p1_tl'
I27
tp353
a(S'p1_ll'
I31
tp354
a(S'w'
I2941
tp355
a(S'tr_tl'
I172
tp356
a(S'tr_ll'
I31
tp357
a(S'w'
I6601
tp358
a(S'p2_tl'
I240
tp359
a(S'w'
I1
tp360
a(S'p2_ll'
I31
tp361
a(S'p2_th'
I0
tp362
a(S'w'
I3
tp363
a(S'tr_tl'
I214
tp364
a(S'tr_ll'
I31
tp365
a(S'tr_th'
I0
tp366
a(S'w'
I3662
tp367
a(S'p1_tl'
I238
tp368
a(S'p1_ll'
I31
tp369
a(S'p1_th'
I0
tp370
a(S'w'
I2941
tp371
a(S'tr_tl'
I240
tp372
a(S'tr_ll'
I31
tp373
a(S'w'
I6601
tp374
a(S'p2_tl'
I254
tp375
a(S'w'
I1
tp376
a(S'p2_ll'
I31
tp377
a(S'w'
I3665
tp378
a(S'p1_tl'
I252
tp379
a(S'p1_ll'
I31
tp380
a(S'w'
I2941
tp381
a(S'tr_tl'
I29
tp382
a(S'tr_ll'
I31
tp383
a(S'tr_th'
I1
tp384
a(S'w'
I6601
tp385
a(S'p2_tl'
I64
tp386
a(S'w'
I1
tp387
a(S'p2_ll'
I31
tp388
a(S'p2_th'
I1
tp389
a(S'w'
I3
tp390
a(S'tr_tl'
I172
tp391
a(S'tr_ll'
I31
tp392
a(S'w'
I3662
tp393
a(S'p1_tl'
I62
tp394
a(S'p1_ll'
I31
tp395
a(S'p1_th'
I1
tp396
a(S'w'
I2941
tp397
a(S'tr_ll'
I31
tp398
a(S'w'
I6602
tp399
a(S'p2_tl'
I29
tp400
a(S'w'
I1
tp401
a(S'p2_ll'
I31
tp402
a(S'w'
I3
tp403
a(S'tr_tl'
I29
tp404
a(S'tr_ll'
I31
tp405
a(S'w'
I3662
tp406
a(S'p1_tl'
I27
tp407
a(S'p1_ll'
I31
tp408
a(S'w'
I2941
tp409
a(S'tr_tl'
I172
tp410
a(S'tr_ll'
I31
tp411
a(S'w'
I6601
tp412
a(S'p2_tl'
I172
tp413
a(S'w'
I1
tp414
a(S'p2_ll'
I31
tp415
a(S'w'
I3665
tp416
a(S'p1_tl'
I170
tp417
a(S'p1_ll'
I31
tp418
a(S'w'
I2941
tp419
a(S'tr_tl'
I240
tp420
a(S'tr_ll'
I31
tp421
a(S'tr_th'
I0
tp422
a(S'w'
I6601
tp423
a(S'p2_tl'
I125
tp424
a(S'w'
I1
tp425
a(S'p2_ll'
I31
tp426
a(S'w'
I3665
tp427
a(S'p1_tl'
I123
tp428
a(S'p1_ll'
I31
tp429
a(S'w'
I2938
tp430
a(S'p2_tl'
I104
tp431
a(S'w'
I1
tp432
a(S'p2_ll'
I31
tp433
a(S'w'
I3
tp434
a(S'tr_tl'
I83
tp435
a(S'tr_ll'
I31
tp436
a(S'tr_th'
I1
tp437
a(S'w'
I3662
tp438
a(S'p1_tl'
I102
tp439
a(S'p1_ll'
I31
tp440
a(S'w'
I2938
tp441
a(S'w'
I1
tp442
a(S'p2_ll'
I31
tp443
a(S'w'
I3
tp444
a(S'tr_tl'
I172
tp445
a(S'tr_ll'
I31
tp446
a(S'w'
I3662
tp447
a(S'p1_ll'
I31
tp448
a(S'w'
I2938
tp449
a(S'p2_tl'
I125
tp450
a(S'w'
I1
tp451
a(S'p2_ll'
I31
tp452
a(S'w'
I3
tp453
a(S'tr_ll'
I31
tp454
a(S'w'
I3662
tp455
a(S'p1_tl'
I123
tp456
a(S'p1_ll'
I31
tp457
a(S'w'
I2942
tp458
a(S'tr_tl'
I29
tp459
a(S'tr_ll'
I31
tp460
a(S'w'
I6601
tp461
a(S'p2_tl'
I172
tp462
a(S'w'
I1
tp463
a(S'p2_ll'
I31
tp464
a(S'w'
I3
tp465
a(S'tr_tl'
I172
tp466
a(S'tr_ll'
I31
tp467
a(S'w'
I3662
tp468
a(S'p1_tl'
I170
tp469
a(S'p1_ll'
I31
tp470
a(S'w'
I2938
tp471
a(S'p2_tl'
I224
tp472
a(S'w'
I1
tp473
a(S'p2_ll'
I31
tp474
a(S'w'
I3
tp475
a(S'tr_tl'
I214
tp476
a(S'tr_ll'
I31
tp477
a(S'tr_th'
I0
tp478
a(S'w'
I3662
tp479
a(S'p1_tl'
I222
tp480
a(S'p1_ll'
I31
tp481
a(S'w'
I2941
tp482
a(S'tr_tl'
I240
tp483
a(S'tr_ll'
I31
tp484
a(S'w'
I6601
tp485
a(S'p2_tl'
I172
tp486
a(S'w'
I1
tp487
a(S'p2_ll'
I31
tp488
a(S'w'
I3664
tp489
a(S'p1_vo'
I7
tp490
a(S'w'
I1
tp491
a(S'p1_tl'
I170
tp492
a(S'p1_ll'
I31
tp493
a(S'w'
I2941
tp494
a(S'tr_tl'
I29
tp495
a(S'tr_ll'
I31
tp496
a(S'tr_th'
I1
tp497
a(S'w'
I6604
tp498
a(S'tr_tl'
I172
tp499
a(S'tr_ll'
I31
tp500
a(S'w'
I6604
tp501
a(S'tr_ll'
I31
tp502
a(S'w'
I6605
tp503
a(S'tr_tl'
I29
tp504
a(S'tr_ll'
I31
tp505
a(S'w'
I3661
tp506
a(S'p1_vo'
I4
tp507
a(S'w'
I2943
tp508
a(S'tr_tl'
I172
tp509
a(S'tr_ll'
I31
tp510
a(S'w'
I4395
tp511
a(S'p1_vo'
I2
tp512
a(S'w'
I3669
tp513
a(S'p1_vo'
I1
tp514
a(S'w'
I5144
tp515
a(S'tr_tl'
I240
tp516
a(S'tr_ll'
I31
tp517
a(S'tr_th'
I0
tp518
a(S'w'
I13208
tp519
a(S'tr_tl'
I83
tp520
a(S'tr_ll'
I31
tp521
a(S'tr_th'
I1
tp522
a(S'w'
I6597
tp523
a(S'p1_cv'
I0
tp524
a(S'p1_vo'
I5
tp525
a(S'w'
I1
tp526
a(S'p1_tl'
I125
tp527
a(S'p1_ll'
I31
tp528
a(S'w'
I7
tp529
a(S'tr_tl'
I125
tp530
a(S'tr_ll'
I31
tp531
a(S'w'
I3666
tp532
a(S'tr_lr'
I0
tp533
a(S'w'
I2221
tp534
a(S'tr_lr'
I127
tp535
a(S'w'
I710
tp536
a(S'p1_tl'
I29
tp537
a(S'p1_ll'
I31
tp538
a(S'w'
I4
tp539
a(S'p2_tl'
I250
tp540
a(S'w'
I1
tp541
a(S'p2_ll'
I31
tp542
a(S'p2_th'
I2
tp543
a(S'w'
I6600
tp544
a(S'p1_tl'
I46
tp545
a(S'p1_ll'
I31
tp546
a(S'w'
I7
tp547
a(S'tr_ll'
I31
tp548
a(S'w'
I3665
tp549
a(S'tr_lr'
I0
tp550
a(S'w'
I2218
tp551
a(S'tr_lr'
I127
tp552
a(S'w'
I714
tp553
a(S'p1_tl'
I125
tp554
a(S'p1_ll'
I31
tp555
a(S'w'
I4
tp556
a(S'p2_tl'
I252
tp557
a(S'w'
I1
tp558
a(S'p2_ll'
I31
tp559
a(S'p2_th'
I1
tp560
a(S'w'
I6605
tp561
a(S'tr_ll'
I31
tp562
a(S'w'
I3667
tp563
a(S'tr_lr'
I0
tp564
a(S'w'
I2212
tp565
a(S'tr_lr'
I127
tp566
a(S'w'
I719
tp567
a(S'p1_tl'
I172
tp568
a(S'p1_ll'
I31
tp569
a(S'w'
I6610
tp570
a(S'tr_ll'
I31
tp571
a(S'w'
I3667
tp572
a(S'tr_lr'
I0
tp573
a(S'w'
I2217
tp574
a(S'tr_lr'
I127
tp575
a(S'w'
I714
tp576
a(S'p1_tl'
I125
tp577
a(S'p1_ll'
I31
tp578
a(S'w'
I4
tp579
a(S'w'
I1
tp580
a(S'p2_ll'
I31
tp581
a(S'w'
I6602
tp582
a(S'w'
I1
tp583
a(S'p2_ll'
I31
tp584
a(S'w'
I3
tp585
a(S'tr_ll'
I31
tp586
a(S'w'
I6597
tp587
a(S'p1_tl'
I214
tp588
a(S'p1_ll'
I31
tp589
a(S'p1_th'
I0
tp590
a(S'w'
I7
tp591
a(S'tr_tl'
I214
tp592
a(S'tr_ll'
I31
tp593
a(S'tr_th'
I0
tp594
a(S'w'
I6598
tp595
a(S'p1_tl'
I226
tp596
a(S'p1_ll'
I31
tp597
a(S'w'
I4
tp598
a(S'p2_tl'
I29
tp599
a(S'w'
I1
tp600
a(S'p2_ll'
I31
tp601
a(S'w'
I3
tp602
a(S'tr_tl'
I125
tp603
a(S'w'
I1
tp604
a(S'tr_ll'
I31
tp605
a(S'tr_th'
I1
tp606
a(S'w'
I6595
tp607
a(S'p1_tl'
I29
tp608
a(S'p1_ll'
I31
tp609
a(S'p1_th'
I1
tp610
a(S'w'
I7
tp611
a(S'tr_tl'
I214
tp612
a(S'tr_ll'
I31
tp613
a(S'tr_th'
I0
tp614
a(S'w'
I6597
tp615
a(S'p1_tl'
I125
tp616
a(S'p1_ll'
I31
tp617
a(S'w'
I4
tp618
a(S'w'
I1
tp619
a(S'p2_ll'
I31
tp620
a(S'w'
I3
tp621
a(S'tr_tl'
I125
tp622
a(S'w'
I1
tp623
a(S'tr_ll'
I31
tp624
a(S'tr_th'
I1
tp625
a(S'w'
I6595
tp626
a(S'p1_tl'
I29
tp627
a(S'p1_ll'
I31
tp628
a(S'w'
I4
tp629
a(S'p2_tl'
I125
tp630
a(S'w'
I1
tp631
a(S'p2_ll'
I31
tp632
a(S'w'
I3
tp633
a(S'tr_tl'
I143
tp634
a(S'w'
I1
tp635
a(S'tr_ll'
I31
tp636
a(S'tr_th'
I0
tp637
a(S'w'
I4393
tp638
a(S'p1_cv'
I1
tp639
a(S'p1_vo'
I6
tp640
a(S'w'
I1
tp641
a(S'p1_tl'
I123
tp642
a(S'p1_ll'
I31
tp643
a(S'w'
I2207
tp644
a(S'tr_tl'
I125
tp645
a(S'tr_ll'
I31
tp646
a(S'tr_th'
I1
tp647
a(S'w'
I13205
tp648
a(S'p2_tl'
I148
tp649
a(S'w'
I1
tp650
a(S'p2_ll'
I31
tp651
a(S'w'
I3
tp652
a(S'tr_tl'
I250
tp653
a(S'tr_ll'
I31
tp654
a(S'tr_th'
I2
tp655
a(S'w'
I3674
tp656
a(S'tr_lr'
I0
tp657
a(S'w'
I722
tp658
a(S'p1_tl'
I146
tp659
a(S'p1_ll'
I31
tp660
a(S'w'
I8084
tp661
a(S'tr_lr'
I127
tp662
a(S'w'
I725
tp663
a(S'p2_tl'
I125
tp664
a(S'w'
I1
tp665
a(S'p2_ll'
I31
tp666
a(S'w'
I3
tp667
a(S'tr_tl'
I125
tp668
a(S'tr_ll'
I31
tp669
a(S'tr_th'
I1
tp670
a(S'w'
I3673
tp671
a(S'tr_lr'
I0
tp672
a(S'w'
I722
tp673
a(S'p1_tl'
I123
tp674
a(S'p1_ll'
I31
tp675
a(S'w'
I8087
tp676
a(S'tr_lr'
I127
tp677
a(S'w'
I722
tp678
a(S'p2_tl'
I29
tp679
a(S'w'
I1
tp680
a(S'p2_ll'
I31
tp681
a(S'w'
I3
tp682
a(S'tr_ll'
I31
tp683
a(S'w'
I3679
tp684
a(S'tr_lr'
I0
tp685
a(S'w'
I716
tp686
a(S'p1_vo'
I7
tp687
a(S'w'
I1
tp688
a(S'p1_tl'
I40
tp689
a(S'p1_ll'
I31
tp690
a(S'w'
I1482
tp691
a(S'tr_lr'
I127
tp692
a(S'w'
I722
tp693
a(S'p2_tl'
I46
tp694
a(S'w'
I1
tp695
a(S'p2_ll'
I31
tp696
a(S'w'
I4399
tp697
a(S'p1_tl'
I57
tp698
a(S'p1_ll'
I31
tp699
a(S'w'
I2204
tp700
a(S'p2_tl'
I125
tp701
a(S'w'
I1
tp702
a(S'p2_ll'
I31
tp703
a(S'w'
I3
tp704
a(S'tr_ll'
I31
tp705
a(S'w'
I4396
tp706
a(S'p1_tl'
I123
tp707
a(S'p1_ll'
I31
tp708
a(S'w'
I2207
tp709
a(S'tr_tl'
I29
tp710
a(S'tr_ll'
I31
tp711
a(S'w'
I5862
tp712
a(S'p1_lh'
I0
tp713
a(S'p1_vo'
I0
tp714
a(S'w'
I4
tp715
a(S'p2_cv'
I1
tp716
a(S'p2_vo'
I0
tp717
a(S'w'
I4
tp718
a.