(lp1
(S'clock'
p2
I1789772
tp3
a(S'w'
I1
tp4
a(S'ch_no'
I0
tp5
a(S'ch_tr'
I0
tp6
a(S'ch_p2'
I0
tp7
a(S'ch_p1'
I0
tp8
a(S'w'
I485
tp9
a(S'ch_no'
I1
tp10
a(S'ch_tr'
I0
tp11
a(S'ch_p2'
I1
tp12
a(S'ch_p1'
I1
tp13
a(S'p1_du'
I2
tp14
a(S'p1_vo'
I2
tp15
a(S'w'
I1
tp16
a(S'p1_sp'
I7
tp17
a(S'p1_sn'
I1
tp18
a(S'p1_tl'
I254
tp19
a(S'p1_ll'
I1
tp20
a(S'w'
I1
tp21
a(S'p2_du'
I1
tp22
a(S'p2_vo'
I2
tp23
a(S'w'
I1
tp24
a(S'p2_sp'
I7
tp25
a(S'p2_sn'
I1
tp26
a(S'p2_tl'
I252
tp27
a(S'p2_ll'
I1
tp28
a(S'p2_th'
I1
tp29
a(S'w'
I3
tp30
a(S'w'
I1
tp31
a(S'no_np'
I2
tp32
a(S'no_ll'
I9
tp33
a(S'w'
I5131
tp34
a(S'p1_ll'
I1
tp35
a(S'w'
I2
tp36
a(S'p2_ll'
I1
tp37
a(S'w'
I3
tp38
a(S'w'
I1
tp39
a(S'no_ll'
I9
tp40
a(S'w'
I5130
tp41
a(S'w'
I1
tp42
a(S'p1_ll'
I1
tp43
a(S'w'
I1
tp44
a(S'w'
I1
tp45
a(S'p2_ll'
I1
tp46
a(S'w'
I3
tp47
a(S'no_ll'
I9
tp48
a(S'w'
I5131
tp49
a(S'p1_ll'
I1
tp50
a(S'w'
I2
tp51
a(S'p2_ll'
I1
tp52
a(S'w'
I3
tp53
a(S'w'
I1
tp54
a(S'no_ll'
I9
tp55
a(S'w'
I10267
tp56
a(S'p1_tl'
I29
tp57
a(S'p1_ll'
I1
tp58
a(S'p1_th'
I1
tp59
a(S'w'
I2
tp60
a(S'p2_tl'
I59
tp61
a(S'p2_ll'
I1
tp62
a(S'p2_th'
I2
tp63
a(S'w'
I3
tp64
a(S'no_np'
I5
tp65
a(S'w'
I1
tp66
a(S'no_ll'
I9
tp67
a(S'w'
I5130
tp68
a(S'p1_tl'
I254
tp69
a(S'w'
I1
tp70
a(S'p1_ll'
I1
tp71
a(S'p1_th'
I0
tp72
a(S'w'
I2
tp73
a(S'p2_tl'
I252
tp74
a(S'p2_ll'
I1
tp75
a(S'p2_th'
I1
tp76
a(S'w'
I3
tp77
a(S'no_np'
I2
tp78
a(S'w'
I1
tp79
a(S'no_ll'
I9
tp80
a(S'w'
I15402
tp81
a(S'ch_no'
I1
tp82
a(S'ch_tr'
I1
tp83
a(S'ch_p2'
I0
tp84
a(S'ch_p1'
I0
tp85
a(S'w'
I4
tp86
a(S'tr_lr'
I19
tp87
a(S'w'
I1
tp88
a(S'tr_tl'
I252
tp89
a(S'tr_ll'
I1
tp90
a(S'tr_th'
I1
tp91
a(S'w'
I2
tp92
a(S'no_np'
I3
tp93
a(S'no_ll'
I9
tp94
a(S'w'
I5136
tp95
a(S'no_ll'
I9
tp96
a(S'w'
I5137
tp97
a(S'no_ll'
I9
tp98
a(S'w'
I5130
tp99
a(S'ch_no'
I1
tp100
a(S'ch_tr'
I0
tp101
a(S'ch_p2'
I1
tp102
a(S'ch_p1'
I1
tp103
a(S'w'
I1
tp104
a(S'p1_tl'
I127
tp105
a(S'p1_ll'
I1
tp106
a(S'w'
I2
tp107
a(S'w'
I1
tp108
a(S'p2_ll'
I1
tp109
a(S'w'
I3
tp110
a(S'no_np'
I2
tp111
a(S'no_ll'
I9
tp112
a(S'w'
I5131
tp113
a(S'p1_ll'
I1
tp114
a(S'w'
I2
tp115
a(S'p2_ll'
I1
tp116
a(S'w'
I3
tp117
a(S'w'
I1
tp118
a(S'no_ll'
I9
tp119
a(S'w'
I5130
tp120
a(S'w'
I1
tp121
a(S'p1_ll'
I1
tp122
a(S'w'
I1
tp123
a(S'w'
I1
tp124
a(S'p2_ll'
I1
tp125
a(S'w'
I3
tp126
a(S'no_ll'
I9
tp127
a(S'w'
I5131
tp128
a(S'p1_ll'
I1
tp129
a(S'w'
I2
tp130
a(S'p2_ll'
I1
tp131
a(S'w'
I4
tp132
a(S'no_ll'
I9
tp133
a(S'w'
I10267
tp134
a(S'p1_tl'
I142
tp135
a(S'w'
I1
tp136
a(S'p1_ll'
I1
tp137
a(S'w'
I1
tp138
a(S'p2_tl'
I59
tp139
a(S'w'
I1
tp140
a(S'p2_ll'
I1
tp141
a(S'p2_th'
I2
tp142
a(S'w'
I3
tp143
a(S'no_np'
I5
tp144
a(S'no_ll'
I9
tp145
a(S'w'
I5131
tp146
a(S'p1_tl'
I127
tp147
a(S'p1_ll'
I1
tp148
a(S'w'
I2
tp149
a(S'p2_tl'
I252
tp150
a(S'p2_ll'
I1
tp151
a(S'p2_th'
I1
tp152
a(S'w'
I4
tp153
a(S'no_np'
I2
tp154
a(S'no_ll'
I9
tp155
a(S'w'
I15402
tp156
a(S'ch_no'
I1
tp157
a(S'ch_tr'
I1
tp158
a(S'ch_p2'
I0
tp159
a(S'ch_p1'
I0
tp160
a(S'w'
I5
tp161
a(S'tr_ll'
I1
tp162
a(S'w'
I2
tp163
a(S'no_np'
I3
tp164
a(S'no_ll'
I9
tp165
a(S'w'
I5136
tp166
a(S'w'
I1
tp167
a(S'no_ll'
I9
tp168
a(S'w'
I5136
tp169
a(S'no_ll'
I9
tp170
a(S'w'
I5130
tp171
a(S'ch_no'
I1
tp172
a(S'ch_tr'
I1
tp173
a(S'ch_p2'
I1
tp174
a(S'ch_p1'
I1
tp175
a(S'w'
I1
tp176
a(S'p1_tl'
I254
tp177
a(S'w'
I1
tp178
a(S'p1_ll'
I1
tp179
a(S'w'
I1
tp180
a(S'p2_tl'
I144
tp181
a(S'w'
I1
tp182
a(S'p2_ll'
I1
tp183
a(S'w'
I2
tp184
a(S'tr_ll'
I1
tp185
a(S'w'
I2
tp186
a(S'no_np'
I2
tp187
a(S'no_ll'
I9
tp188
a(S'w'
I5130
tp189
a(S'w'
I1
tp190
a(S'p1_ll'
I1
tp191
a(S'w'
I1
tp192
a(S'w'
I1
tp193
a(S'p2_ll'
I1
tp194
a(S'w'
I2
tp195
a(S'tr_ll'
I1
tp196
a(S'w'
I1
tp197
a(S'w'
I1
tp198
a(S'no_ll'
I9
tp199
a(S'w'
I5130
tp200
a(S'p1_ll'
I1
tp201
a(S'w'
I2
tp202
a(S'p2_ll'
I1
tp203
a(S'w'
I2
tp204
a(S'tr_ll'
I1
tp205
a(S'w'
I2
tp206
a(S'no_ll'
I9
tp207
a(S'w'
I5130
tp208
a(S'w'
I1
tp209
a(S'p1_ll'
I1
tp210
a(S'w'
I1
tp211
a(S'w'
I1
tp212
a(S'p2_ll'
I1
tp213
a(S'w'
I2
tp214
a(S'tr_ll'
I1
tp215
a(S'w'
I1
tp216
a(S'w'
I1
tp217
a(S'no_ll'
I9
tp218
a(S'w'
I10266
tp219
a(S'p1_tl'
I29
tp220
a(S'w'
I1
tp221
a(S'p1_ll'
I1
tp222
a(S'p1_th'
I1
tp223
a(S'w'
I1
tp224
a(S'p2_tl'
I197
tp225
a(S'w'
I1
tp226
a(S'p2_ll'
I1
tp227
a(S'w'
I2
tp228
a(S'tr_ll'
I1
tp229
a(S'w'
I2
tp230
a(S'no_np'
I5
tp231
a(S'no_ll'
I9
tp232
a(S'w'
I5130
tp233
a(S'p1_tl'
I46
tp234
a(S'p1_ll'
I1
tp235
a(S'w'
I2
tp236
a(S'p2_tl'
I252
tp237
a(S'w'
I1
tp238
a(S'p2_ll'
I1
tp239
a(S'w'
I1
tp240
a(S'tr_tl'
I254
tp241
a(S'w'
I1
tp242
a(S'tr_ll'
I1
tp243
a(S'tr_th'
I0
tp244
a(S'w'
I1
tp245
a(S'no_np'
I2
tp246
a(S'w'
I1
tp247
a(S'no_ll'
I9
tp248
a(S'w'
I5133
tp249
a(S'tr_ll'
I1
tp250
a(S'w'
I2
tp251
a(S'no_ll'
I9
tp252
a(S'w'
I5131
tp253
a(S'p1_tl'
I29
tp254
a(S'w'
I1
tp255
a(S'p1_ll'
I1
tp256
a(S'w'
I1
tp257
a(S'p2_tl'
I197
tp258
a(S'w'
I1
tp259
a(S'p2_ll'
I1
tp260
a(S'w'
I2
tp261
a(S'tr_ll'
I1
tp262
a(S'w'
I2
tp263
a(S'no_ll'
I9
tp264
a(S'w'
I5130
tp265
a(S'p1_tl'
I254
tp266
a(S'p1_ll'
I1
tp267
a(S'p1_th'
I0
tp268
a(S'w'
I2
tp269
a(S'p2_tl'
I144
tp270
a(S'p2_ll'
I1
tp271
a(S'w'
I2
tp272
a(S'tr_ll'
I1
tp273
a(S'w'
I2
tp274
a(S'no_ll'
I9
tp275
a(S'w'
I10267
tp276
a(S'p1_tl'
I226
tp277
a(S'w'
I1
tp278
a(S'p1_ll'
I1
tp279
a(S'w'
I1
tp280
a(S'p2_tl'
I125
tp281
a(S'w'
I1
tp282
a(S'p2_ll'
I1
tp283
a(S'w'
I2
tp284
a(S'tr_ll'
I1
tp285
a(S'w'
I1
tp286
a(S'no_np'
I5
tp287
a(S'w'
I1
tp288
a(S'no_ll'
I9
tp289
a(S'w'
I5130
tp290
a(S'p1_tl'
I254
tp291
a(S'p1_ll'
I1
tp292
a(S'w'
I2
tp293
a(S'p2_tl'
I144
tp294
a(S'p2_ll'
I1
tp295
a(S'w'
I2
tp296
a(S'tr_tl'
I252
tp297
a(S'tr_ll'
I1
tp298
a(S'tr_th'
I1
tp299
a(S'w'
I2
tp300
a(S'no_np'
I2
tp301
a(S'no_ll'
I9
tp302
a(S'w'
I15404
tp303
a(S'p1_ll'
I1
tp304
a(S'w'
I2
tp305
a(S'p2_ll'
I1
tp306
a(S'w'
I2
tp307
a(S'tr_ll'
I1
tp308
a(S'w'
I2
tp309
a(S'no_ll'
I9
tp310
a(S'w'
I15402
tp311
a(S'ch_no'
I0
tp312
a(S'ch_tr'
I0
tp313
a(S'ch_p2'
I0
tp314
a(S'ch_p1'
I0
tp315
a(S'w'
I15410
tp316
a(S'ch_no'
I1
tp317
a(S'ch_tr'
I1
tp318
a(S'ch_p2'
I1
tp319
a(S'ch_p1'
I1
tp320
a(S'w'
I1
tp321
a(S'w'
I1
tp322
a(S'p1_ll'
I1
tp323
a(S'w'
I1
tp324
a(S'p2_tl'
I254
tp325
a(S'w'
I1
tp326
a(S'p2_ll'
I1
tp327
a(S'p2_th'
I0
tp328
a(S'w'
I1
tp329
a(S'tr_tl'
I254
tp330
a(S'w'
I1
tp331
a(S'tr_ll'
I1
tp332
a(S'tr_th'
I0
tp333
a(S'w'
I1
tp334
a(S'w'
I1
tp335
a(S'no_ll'
I9
tp336
a(S'w'
I5130
tp337
a(S'p1_tl'
I226
tp338
a(S'p1_ll'
I1
tp339
a(S'w'
I2
tp340
a(S'p2_ll'
I1
tp341
a(S'w'
I2
tp342
a(S'tr_tl'
I13
tp343
a(S'tr_ll'
I1
tp344
a(S'tr_th'
I1
tp345
a(S'w'
I2
tp346
a(S'no_ll'
I9
tp347
a(S'w'
I5130
tp348
a(S'p1_tl'
I200
tp349
a(S'w'
I1
tp350
a(S'p1_ll'
I1
tp351
a(S'w'
I1
tp352
a(S'w'
I1
tp353
a(S'p2_ll'
I1
tp354
a(S'w'
I2
tp355
a(S'tr_tl'
I29
tp356
a(S'tr_ll'
I1
tp357
a(S'w'
I2
tp358
a(S'no_ll'
I9
tp359
a(S'w'
I5129
tp360
a(S'p1_du'
I1
tp361
a(S'p1_vo'
I4
tp362
a(S'w'
I1
tp363
a(S'p1_tl'
I190
tp364
a(S'w'
I1
tp365
a(S'p1_ll'
I1
tp366
a(S'p2_vo'
I4
tp367
a(S'w'
I1
tp368
a(S'p2_tl'
I46
tp369
a(S'w'
I1
tp370
a(S'p2_ll'
I1
tp371
a(S'p2_th'
I1
tp372
a(S'w'
I1
tp373
a(S'tr_tl'
I125
tp374
a(S'w'
I1
tp375
a(S'tr_ll'
I1
tp376
a(S'w'
I1
tp377
a(S'w'
I1
tp378
a(S'no_ll'
I9
tp379
a(S'w'
I10270
tp380
a(S'tr_tl'
I190
tp381
a(S'tr_ll'
I1
tp382
a(S'tr_th'
I0
tp383
a(S'w'
I2
tp384
a(S'no_np'
I4
tp385
a(S'no_ll'
I9
tp386
a(S'w'
I5131
tp387
a(S'p1_tl'
I254
tp388
a(S'p1_ll'
I1
tp389
a(S'w'
I2
tp390
a(S'p2_ll'
I1
tp391
a(S'w'
I2
tp392
a(S'tr_tl'
I125
tp393
a(S'tr_ll'
I1
tp394
a(S'tr_th'
I1
tp395
a(S'w'
I2
tp396
a(S'no_np'
I2
tp397
a(S'w'
I1
tp398
a(S'no_ll'
I9
tp399
a(S'w'
I10269
tp400
a(S'tr_tl'
I190
tp401
a(S'w'
I1
tp402
a(S'tr_ll'
I1
tp403
a(S'tr_th'
I0
tp404
a(S'w'
I2
tp405
a(S'no_np'
I4
tp406
a(S'no_ll'
I9
tp407
a(S'w'
I5131
tp408
a(S'p1_tl'
I46
tp409
a(S'p1_ll'
I1
tp410
a(S'p1_th'
I1
tp411
a(S'w'
I2
tp412
a(S'p2_tl'
I252
tp413
a(S'p2_ll'
I1
tp414
a(S'w'
I2
tp415
a(S'tr_tl'
I125
tp416
a(S'tr_ll'
I1
tp417
a(S'tr_th'
I1
tp418
a(S'w'
I2
tp419
a(S'no_np'
I2
tp420
a(S'no_ll'
I9
tp421
a(S'w'
I10270
tp422
a(S'tr_tl'
I190
tp423
a(S'w'
I1
tp424
a(S'tr_ll'
I1
tp425
a(S'tr_th'
I0
tp426
a(S'w'
I1
tp427
a(S'no_np'
I4
tp428
a(S'w'
I1
tp429
a(S'no_ll'
I9
tp430
a(S'w'
I5131
tp431
a(S'p1_tl'
I125
tp432
a(S'p1_ll'
I1
tp433
a(S'w'
I2
tp434
a(S'p2_ll'
I1
tp435
a(S'w'
I2
tp436
a(S'tr_tl'
I200
tp437
a(S'tr_ll'
I1
tp438
a(S'w'
I2
tp439
a(S'no_np'
I1
tp440
a(S'no_ll'
I9
tp441
a(S'w'
I5133
tp442
a(S'tr_tl'
I226
tp443
a(S'w'
I1
tp444
a(S'tr_ll'
I1
tp445
a(S'w'
I1
tp446
a(S'w'
I1
tp447
a(S'no_ll'
I9
tp448
a(S'w'
I5134
tp449
a(S'tr_tl'
I254
tp450
a(S'w'
I1
tp451
a(S'tr_ll'
I1
tp452
a(S'w'
I1
tp453
a(S'w'
I1
tp454
a(S'no_ll'
I9
tp455
a(S'w'
I5130
tp456
a(S'p1_vo'
I11
tp457
a(S'p1_tl'
I226
tp458
a(S'w'
I1
tp459
a(S'p1_ll'
I1
tp460
a(S'p1_th'
I0
tp461
a(S'w'
I1
tp462
a(S'p2_vo'
I11
tp463
a(S'p2_tl'
I125
tp464
a(S'w'
I1
tp465
a(S'p2_ll'
I1
tp466
a(S'w'
I2
tp467
a(S'tr_tl'
I29
tp468
a(S'tr_ll'
I1
tp469
a(S'tr_th'
I1
tp470
a(S'w'
I2
tp471
a(S'no_np'
I2
tp472
a(S'no_ll'
I9
tp473
a(S'w'
I10270
tp474
a(S'tr_tl'
I142
tp475
a(S'tr_ll'
I1
tp476
a(S'tr_th'
I0
tp477
a(S'w'
I2
tp478
a(S'no_np'
I4
tp479
a(S'no_ll'
I9
tp480
a(S'w'
I5132
tp481
a(S'p2_vo'
I1
tp482
a(S'w'
I1
tp483
a(S'p2_tl'
I29
tp484
a(S'p2_ll'
I1
tp485
a(S'w'
I2
tp486
a(S'tr_tl'
I29
tp487
a(S'tr_ll'
I1
tp488
a(S'tr_th'
I1
tp489
a(S'w'
I2
tp490
a(S'no_np'
I2
tp491
a(S'no_ll'
I9
tp492
a(S'w'
I5133
tp493
a(S'p2_tl'
I226
tp494
a(S'p2_ll'
I1
tp495
a(S'p2_th'
I0
tp496
a(S'w'
I5136
tp497
a(S'p2_tl'
I190
tp498
a(S'w'
I1
tp499
a(S'p2_ll'
I1
tp500
a(S'w'
I1
tp501
a(S'tr_tl'
I142
tp502
a(S'w'
I1
tp503
a(S'tr_ll'
I1
tp504
a(S'tr_th'
I0
tp505
a(S'w'
I1
tp506
a(S'no_np'
I4
tp507
a(S'w'
I1
tp508
a(S'no_ll'
I9
tp509
a(S'w'
I5132
tp510
a(S'p2_tl'
I142
tp511
a(S'p2_ll'
I1
tp512
a(S'w'
I2
tp513
a(S'tr_tl'
I29
tp514
a(S'tr_ll'
I1
tp515
a(S'tr_th'
I1
tp516
a(S'w'
I2
tp517
a(S'no_np'
I2
tp518
a(S'no_ll'
I9
tp519
a(S'w'
I10271
tp520
a(S'tr_tl'
I142
tp521
a(S'tr_ll'
I1
tp522
a(S'tr_th'
I0
tp523
a(S'w'
I2
tp524
a(S'no_np'
I4
tp525
a(S'no_ll'
I9
tp526
a(S'w'
I5130
tp527
a(S'p1_du'
I2
tp528
a(S'p1_vo'
I3
tp529
a(S'w'
I1
tp530
a(S'p1_ll'
I1
tp531
a(S'w'
I1
tp532
a(S'p2_du'
I2
tp533
a(S'p2_vo'
I3
tp534
a(S'w'
I1
tp535
a(S'p2_tl'
I125
tp536
a(S'p2_ll'
I1
tp537
a(S'p2_th'
I1
tp538
a(S'w'
I2
tp539
a(S'tr_ll'
I1
tp540
a(S'w'
I2
tp541
a(S'no_np'
I1
tp542
a(S'w'
I1
tp543
a(S'no_ll'
I9
tp544
a(S'w'
I5129
tp545
a(S'p1_tl'
I200
tp546
a(S'w'
I1
tp547
a(S'p1_ll'
I1
tp548
a(S'w'
I2
tp549
a(S'p2_tl'
I83
tp550
a(S'p2_ll'
I1
tp551
a(S'w'
I2
tp552
a(S'tr_tl'
I190
tp553
a(S'tr_ll'
I1
tp554
a(S'w'
I2
tp555
a(S'no_ll'
I9
tp556
a(S'w'
I5130
tp557
a(S'p1_tl'
I226
tp558
a(S'w'
I1
tp559
a(S'p1_ll'
I1
tp560
a(S'w'
I1
tp561
a(S'p2_tl'
I125
tp562
a(S'w'
I1
tp563
a(S'p2_ll'
I1
tp564
a(S'w'
I1
tp565
a(S'tr_tl'
I142
tp566
a(S'w'
I1
tp567
a(S'tr_ll'
I1
tp568
a(S'w'
I1
tp569
a(S'w'
I1
tp570
a(S'no_ll'
I9
tp571
a(S'w'
I5129
tp572
a(S'p1_du'
I1
tp573
a(S'p1_vo'
I2
tp574
a(S'w'
I1
tp575
a(S'p1_tl'
I254
tp576
a(S'p1_ll'
I1
tp577
a(S'w'
I1
tp578
a(S'p2_du'
I1
tp579
a(S'p2_vo'
I4
tp580
a(S'w'
I1
tp581
a(S'p2_tl'
I254
tp582
a(S'p2_ll'
I1
tp583
a(S'p2_th'
I0
tp584
a(S'w'
I2
tp585
a(S'tr_tl'
I252
tp586
a(S'tr_ll'
I1
tp587
a(S'tr_th'
I1
tp588
a(S'w'
I2
tp589
a(S'no_np'
I2
tp590
a(S'no_ll'
I9
tp591
a(S'w'
I5130
tp592
a(S'p1_tl'
I13
tp593
a(S'w'
I1
tp594
a(S'p1_ll'
I1
tp595
a(S'p1_th'
I1
tp596
a(S'w'
I5136
tp597
a(S'p1_tl'
I254
tp598
a(S'p1_ll'
I1
tp599
a(S'p1_th'
I0
tp600
a(S'w'
I4
tp601
a(S'tr_tl'
I254
tp602
a(S'tr_ll'
I1
tp603
a(S'tr_th'
I0
tp604
a(S'w'
I2
tp605
a(S'no_np'
I4
tp606
a(S'no_ll'
I9
tp607
a(S'w'
I5131
tp608
a(S'p1_tl'
I226
tp609
a(S'p1_ll'
I1
tp610
a(S'w'
I2
tp611
a(S'p2_ll'
I1
tp612
a(S'w'
I2
tp613
a(S'tr_tl'
I29
tp614
a(S'tr_ll'
I1
tp615
a(S'tr_th'
I1
tp616
a(S'w'
I2
tp617
a(S'no_np'
I2
tp618
a(S'no_ll'
I9
tp619
a(S'w'
I5130
tp620
a(S'p1_tl'
I254
tp621
a(S'w'
I1
tp622
a(S'p1_ll'
I1
tp623
a(S'w'
I5136
tp624
a(S'p1_tl'
I226
tp625
a(S'p1_ll'
I1
tp626
a(S'w'
I3
tp627
a(S'tr_tl'
I142
tp628
a(S'w'
I1
tp629
a(S'tr_ll'
I1
tp630
a(S'tr_th'
I0
tp631
a(S'w'
I2
tp632
a(S'no_np'
I4
tp633
a(S'no_ll'
I9
tp634
a(S'w'
I5130
tp635
a(S'p1_vo'
I4
tp636
a(S'p1_tl'
I200
tp637
a(S'w'
I1
tp638
a(S'p1_ll'
I1
tp639
a(S'w'
I1
tp640
a(S'w'
I1
tp641
a(S'p2_ll'
I1
tp642
a(S'w'
I1
tp643
a(S'tr_tl'
I46
tp644
a(S'w'
I1
tp645
a(S'tr_ll'
I1
tp646
a(S'tr_th'
I1
tp647
a(S'w'
I2
tp648
a(S'no_np'
I2
tp649
a(S'no_ll'
I9
tp650
a(S'w'
I10270
tp651
a(S'tr_tl'
I151
tp652
a(S'tr_ll'
I1
tp653
a(S'tr_th'
I0
tp654
a(S'w'
I2
tp655
a(S'no_np'
I4
tp656
a(S'no_ll'
I9
tp657
a(S'w'
I5131
tp658
a(S'p1_tl'
I169
tp659
a(S'w'
I1
tp660
a(S'p1_ll'
I1
tp661
a(S'w'
I1
tp662
a(S'w'
I1
tp663
a(S'p2_ll'
I1
tp664
a(S'w'
I1
tp665
a(S'tr_tl'
I83
tp666
a(S'w'
I1
tp667
a(S'tr_ll'
I1
tp668
a(S'tr_th'
I1
tp669
a(S'w'
I1
tp670
a(S'no_np'
I1
tp671
a(S'w'
I1
tp672
a(S'no_ll'
I9
tp673
a(S'w'
I5135
tp674
a(S'no_ll'
I9
tp675
a(S'w'
I5135
tp676
a(S'tr_tl'
I169
tp677
a(S'tr_ll'
I1
tp678
a(S'tr_th'
I0
tp679
a(S'w'
I2
tp680
a(S'no_ll'
I9
tp681
a(S'w'
I5130
tp682
a(S'p1_vo'
I11
tp683
a(S'w'
I1
tp684
a(S'p1_tl'
I190
tp685
a(S'p1_ll'
I1
tp686
a(S'w'
I1
tp687
a(S'p2_vo'
I11
tp688
a(S'w'
I1
tp689
a(S'p2_tl'
I46
tp690
a(S'p2_ll'
I1
tp691
a(S'p2_th'
I1
tp692
a(S'w'
I2
tp693
a(S'tr_tl'
I125
tp694
a(S'w'
I1
tp695
a(S'tr_ll'
I1
tp696
a(S'tr_th'
I1
tp697
a(S'w'
I1
tp698
a(S'no_np'
I2
tp699
a(S'w'
I1
tp700
a(S'no_ll'
I9
tp701
a(S'w'
I10270
tp702
a(S'tr_tl'
I252
tp703
a(S'tr_ll'
I1
tp704
a(S'w'
I2
tp705
a(S'no_np'
I4
tp706
a(S'no_ll'
I9
tp707
a(S'w'
I5134
tp708
a(S'tr_tl'
I197
tp709
a(S'w'
I1
tp710
a(S'tr_ll'
I1
tp711
a(S'w'
I1
tp712
a(S'no_np'
I2
tp713
a(S'w'
I1
tp714
a(S'no_ll'
I9
tp715
a(S'w'
I5134
tp716
a(S'tr_ll'
I1
tp717
a(S'w'
I2
tp718
a(S'no_ll'
I9
tp719
a(S'w'
I5135
tp720
a(S'tr_ll'
I1
tp721
a(S'w'
I1
tp722
a(S'w'
I1
tp723
a(S'no_ll'
I9
tp724
a(S'w'
I5134
tp725
a(S'tr_tl'
I125
tp726
a(S'w'
I1
tp727
a(S'tr_ll'
I1
tp728
a(S'w'
I1
tp729
a(S'no_np'
I3
tp730
a(S'w'
I1
tp731
a(S'no_ll'
I9
tp732
a(S'w'
I15402
tp733
a(S'ch_no'
I1
tp734
a(S'ch_tr'
I1
tp735
a(S'ch_p2'
I0
tp736
a(S'ch_p1'
I0
tp737
a(S'w'
I5
tp738
a(S'tr_ll'
I1
tp739
a(S'w'
I2
tp740
a(S'no_np'
I2
tp741
a(S'no_ll'
I9
tp742
a(S'w'
I15403
tp743
a(S'ch_no'
I0
tp744
a(S'ch_tr'
I0
tp745
a(S'ch_p2'
I0
tp746
a(S'ch_p1'
I0
tp747
a(S'w'
I10985
tp748
a.