(lp1
(S'clock'
p2
I1789773
tp3
a(S'fc_mo'
I0
tp4
a(S'p1_cv'
I1
tp5
a(S'p2_cv'
I1
tp6
a(S'tr_lr'
I16
tp7
a(S'no_cv'
I1
tp8
a(S'ch_no'
I1
tp9
a(S'ch_tr'
I1
tp10
a(S'ch_p2'
I1
tp11
a(S'ch_p1'
I1
tp12
a(S'p1_sp'
I2
tp13
a(S'p1_ss'
I4
tp14
a(S'p2_sp'
I2
tp15
a(S'p2_ss'
I4
tp16
a(S'w'
I11
tp17
a(S'tr_lr'
I60
tp18
a(S'tr_tl'
I213
tp19
a(S'w'
I1
tp20
a(S'tr_ll'
I0
tp21
a(S'w'
I7331
tp22
a(S'tr_tl'
I89
tp23
a(S'tr_ll'
I0
tp24
a(S'w'
I7338
tp25
a(S'tr_tl'
I106
tp26
a(S'tr_ll'
I0
tp27
a(S'w'
I7338
tp28
a(S'tr_tl'
I239
tp29
a(S'tr_ll'
I0
tp30
a(S'w'
I7338
tp31
a(S'tr_tl'
I94
tp32
a(S'tr_ll'
I0
tp33
a(S'w'
I7338
tp34
a(S'tr_tl'
I119
tp35
a(S'tr_ll'
I0
tp36
a(S'w'
I14678
tp37
a(S'tr_tl'
I142
tp38
a(S'tr_ll'
I0
tp39
a(S'w'
I7336
tp40
a(S'p2_du'
I1
tp41
a(S'p2_cv'
I0
tp42
a(S'p2_vo'
I1
tp43
a(S'w'
I1
tp44
a(S'p2_tl'
I53
tp45
a(S'p2_ll'
I1
tp46
a(S'p2_th'
I4
tp47
a(S'w'
I7334
tp48
a(S'p1_du'
I1
tp49
a(S'p1_cv'
I0
tp50
a(S'p1_vo'
I1
tp51
a(S'w'
I1
tp52
a(S'p1_tl'
I179
tp53
a(S'p1_ll'
I1
tp54
a(S'w'
I7338
tp55
a(S'p1_tl'
I213
tp56
a(S'p1_ll'
I1
tp57
a(S'w'
I7338
tp58
a(S'p1_tl'
I63
tp59
a(S'p1_ll'
I1
tp60
a(S'p1_th'
I1
tp61
a(S'w'
I4
tp62
a(S'p2_tl'
I191
tp63
a(S'w'
I1
tp64
a(S'p2_ll'
I1
tp65
a(S'p2_th'
I3
tp66
a(S'w'
I7333
tp67
a(S'p1_tl'
I189
tp68
a(S'p1_ll'
I1
tp69
a(S'p1_th'
I0
tp70
a(S'w'
I7337
tp71
a(S'p1_tl'
I213
tp72
a(S'p1_ll'
I1
tp73
a(S'w'
I7338
tp74
a(S'p1_tl'
I28
tp75
a(S'p1_ll'
I1
tp76
a(S'p1_th'
I1
tp77
a(S'w'
I4
tp78
a(S'p2_tl'
I86
tp79
a(S'w'
I1
tp80
a(S'p2_ll'
I1
tp81
a(S'w'
I14674
tp82
a(S'p2_ll'
I1
tp83
a(S'w'
I7
tp84
a(S'tr_tl'
I213
tp85
a(S'tr_ll'
I0
tp86
a(S'w'
I7
tp87
a(S'no_cv'
I0
tp88
a(S'no_vo'
I15
tp89
a(S'w'
I1
tp90
a(S'no_np'
I15
tp91
a(S'no_ll'
I3
tp92
a(S'w'
I7320
tp93
a(S'p1_ll'
I1
tp94
a(S'w'
I5
tp95
a(S'tr_tl'
I89
tp96
a(S'w'
I1
tp97
a(S'tr_ll'
I0
tp98
a(S'w'
I4
tp99
a(S'no_vo'
I0
tp100
a(S'w'
I1
tp101
a(S'no_np'
I2
tp102
a(S'no_ll'
I21
tp103
a(S'w'
I7327
tp104
a(S'p1_tl'
I142
tp105
a(S'p1_ll'
I1
tp106
a(S'p1_th'
I0
tp107
a(S'w'
I5
tp108
a(S'tr_tl'
I106
tp109
a(S'w'
I1
tp110
a(S'tr_ll'
I0
tp111
a(S'w'
I4
tp112
a(S'no_vo'
I3
tp113
a(S'no_np'
I11
tp114
a(S'w'
I1
tp115
a(S'no_ll'
I1
tp116
a(S'w'
I7327
tp117
a(S'p1_tl'
I179
tp118
a(S'p1_ll'
I1
tp119
a(S'w'
I4
tp120
a(S'p2_tl'
I191
tp121
a(S'w'
I1
tp122
a(S'p2_ll'
I1
tp123
a(S'w'
I3
tp124
a(S'tr_tl'
I239
tp125
a(S'w'
I1
tp126
a(S'tr_ll'
I0
tp127
a(S'w'
I5
tp128
a(S'no_np'
I2
tp129
a(S'no_ll'
I21
tp130
a(S'w'
I7324
tp131
a(S'p1_tl'
I189
tp132
a(S'p1_ll'
I1
tp133
a(S'w'
I5
tp134
a(S'tr_tl'
I94
tp135
a(S'w'
I1
tp136
a(S'tr_ll'
I0
tp137
a(S'w'
I5
tp138
a(S'no_vo'
I15
tp139
a(S'w'
I1
tp140
a(S'no_np'
I15
tp141
a(S'no_ll'
I3
tp142
a(S'w'
I7326
tp143
a(S'p1_tl'
I28
tp144
a(S'p1_ll'
I1
tp145
a(S'p1_th'
I1
tp146
a(S'w'
I5
tp147
a(S'tr_tl'
I119
tp148
a(S'w'
I1
tp149
a(S'tr_ll'
I0
tp150
a(S'w'
I4
tp151
a(S'no_vo'
I0
tp152
a(S'no_np'
I2
tp153
a(S'w'
I1
tp154
a(S'no_ll'
I21
tp155
a(S'w'
I7327
tp156
a(S'p1_tl'
I239
tp157
a(S'p1_ll'
I1
tp158
a(S'p1_th'
I0
tp159
a(S'w'
I4
tp160
a(S'p2_tl'
I53
tp161
a(S'w'
I1
tp162
a(S'p2_ll'
I1
tp163
a(S'p2_th'
I4
tp164
a(S'w'
I7
tp165
a(S'no_vo'
I3
tp166
a(S'no_np'
I11
tp167
a(S'w'
I1
tp168
a(S'no_ll'
I1
tp169
a(S'w'
I7325
tp170
a(S'p1_tl'
I213
tp171
a(S'p1_ll'
I1
tp172
a(S'w'
I7
tp173
a(S'tr_tl'
I134
tp174
a(S'tr_ll'
I0
tp175
a(S'w'
I5
tp176
a(S'no_np'
I2
tp177
a(S'no_ll'
I21
tp178
a(S'w'
I7329
tp179
a(S'p2_ll'
I1
tp180
a(S'w'
I9
tp181
a(S'no_vo'
I15
tp182
a(S'w'
I1
tp183
a(S'no_np'
I15
tp184
a(S'no_ll'
I3
tp185
a(S'w'
I7324
tp186
a(S'p1_tl'
I28
tp187
a(S'p1_ll'
I1
tp188
a(S'p1_th'
I1
tp189
a(S'w'
I7
tp190
a(S'no_vo'
I0
tp191
a(S'no_np'
I2
tp192
a(S'w'
I1
tp193
a(S'no_ll'
I21
tp194
a(S'w'
I7330
tp195
a(S'p1_tl'
I213
tp196
a(S'p1_ll'
I1
tp197
a(S'p1_th'
I0
tp198
a(S'w'
I7
tp199
a(S'no_vo'
I3
tp200
a(S'no_np'
I11
tp201
a(S'w'
I1
tp202
a(S'no_ll'
I1
tp203
a(S'w'
I7330
tp204
a(S'p1_tl'
I179
tp205
a(S'p1_ll'
I1
tp206
a(S'w'
I4
tp207
a(S'p2_tl'
I191
tp208
a(S'w'
I1
tp209
a(S'p2_ll'
I1
tp210
a(S'p2_th'
I3
tp211
a(S'w'
I5
tp212
a(S'no_vo'
I15
tp213
a(S'no_np'
I15
tp214
a(S'w'
I1
tp215
a(S'no_ll'
I3
tp216
a(S'w'
I7327
tp217
a(S'p1_tl'
I189
tp218
a(S'p1_ll'
I1
tp219
a(S'w'
I7
tp220
a(S'no_vo'
I0
tp221
a(S'no_np'
I2
tp222
a(S'w'
I1
tp223
a(S'no_ll'
I21
tp224
a(S'w'
I7330
tp225
a(S'p1_tl'
I239
tp226
a(S'p1_ll'
I1
tp227
a(S'w'
I7
tp228
a(S'w'
I1
tp229
a(S'no_ll'
I21
tp230
a(S'w'
I7330
tp231
a(S'p1_tl'
I63
tp232
a(S'p1_ll'
I1
tp233
a(S'p1_th'
I1
tp234
a(S'w'
I4
tp235
a(S'p2_tl'
I86
tp236
a(S'w'
I1
tp237
a(S'p2_ll'
I1
tp238
a(S'w'
I5
tp239
a(S'no_vo'
I3
tp240
a(S'no_np'
I11
tp241
a(S'w'
I1
tp242
a(S'no_ll'
I1
tp243
a(S'w'
I7327
tp244
a(S'p1_tl'
I103
tp245
a(S'p1_ll'
I1
tp246
a(S'w'
I4
tp247
a(S'w'
I1
tp248
a(S'p2_ll'
I1
tp249
a(S'w'
I6
tp250
a(S'no_ll'
I1
tp251
a(S'w'
I7327
tp252
a(S'p1_du'
I0
tp253
a(S'p1_cv'
I1
tp254
a(S'p1_vo'
I0
tp255
a(S'w'
I3
tp256
a(S'p2_du'
I0
tp257
a(S'p2_cv'
I1
tp258
a(S'p2_vo'
I0
tp259
a(S'w'
I2
tp260
a(S'tr_lr'
I16
tp261
a(S'w'
I3
tp262
a(S'no_cv'
I1
tp263
a(S'no_vo'
I0
tp264
a.