(lp1
(S'clock'
p2
I1789773
tp3
a(S'fc_mo'
I0
tp4
a(S'p1_cv'
I1
tp5
a(S'p2_cv'
I1
tp6
a(S'tr_lr'
I16
tp7
a(S'no_cv'
I1
tp8
a(S'ch_no'
I1
tp9
a(S'ch_tr'
I1
tp10
a(S'ch_p2'
I1
tp11
a(S'ch_p1'
I1
tp12
a(S'p1_se'
I1
tp13
a(S'p1_sp'
I2
tp14
a(S'p2_sn'
I1
tp15
a(S'w'
I2
tp16
a(S'p1_du'
I1
tp17
a(S'p1_cv'
I0
tp18
a(S'p1_vo'
I3
tp19
a(S'w'
I1
tp20
a(S'p1_tl'
I166
tp21
a(S'p1_ll'
I4
tp22
a(S'p1_th'
I2
tp23
a(S'w'
I5
tp24
a(S'p2_du'
I1
tp25
a(S'p2_cv'
I0
tp26
a(S'p2_vo'
I2
tp27
a(S'p2_tl'
I78
tp28
a(S'w'
I1
tp29
a(S'p2_ll'
I4
tp30
a(S'p2_th'
I5
tp31
a(S'w'
I4
tp32
a(S'tr_lr'
I66
tp33
a(S'w'
I1
tp34
a(S'tr_tl'
I82
tp35
a(S'tr_ll'
I2
tp36
a(S'tr_th'
I1
tp37
a(S'w'
I7328
tp38
a(S'p2_ll'
I4
tp39
a(S'w'
I4
tp40
a(S'tr_ll'
I2
tp41
a(S'w'
I730
tp42
a(S'p1_tl'
I166
tp43
a(S'w'
I1
tp44
a(S'p1_ll'
I4
tp45
a(S'w'
I6603
tp46
a(S'p2_tl'
I166
tp47
a(S'p2_ll'
I4
tp48
a(S'p2_th'
I2
tp49
a(S'w'
I4
tp50
a(S'tr_tl'
I169
tp51
a(S'tr_ll'
I2
tp52
a(S'tr_th'
I0
tp53
a(S'w'
I729
tp54
a(S'p1_tl'
I82
tp55
a(S'p1_ll'
I4
tp56
a(S'p1_th'
I1
tp57
a(S'w'
I6605
tp58
a(S'p2_tl'
I78
tp59
a(S'p2_ll'
I4
tp60
a(S'p2_th'
I5
tp61
a(S'w'
I4
tp62
a(S'tr_tl'
I82
tp63
a(S'tr_ll'
I2
tp64
a(S'tr_th'
I1
tp65
a(S'w'
I729
tp66
a(S'p1_tl'
I166
tp67
a(S'p1_ll'
I4
tp68
a(S'p1_th'
I2
tp69
a(S'w'
I6605
tp70
a(S'p2_ll'
I4
tp71
a(S'w'
I4
tp72
a(S'tr_ll'
I2
tp73
a(S'w'
I729
tp74
a(S'p1_tl'
I166
tp75
a(S'p1_ll'
I4
tp76
a(S'w'
I6605
tp77
a(S'p2_tl'
I249
tp78
a(S'p2_ll'
I4
tp79
a(S'p2_th'
I2
tp80
a(S'w'
I4
tp81
a(S'tr_tl'
I189
tp82
a(S'tr_ll'
I2
tp83
a(S'tr_th'
I0
tp84
a(S'w'
I729
tp85
a(S'p1_tl'
I124
tp86
a(S'p1_ll'
I4
tp87
a(S'p1_th'
I1
tp88
a(S'w'
I6605
tp89
a(S'p2_tl'
I78
tp90
a(S'p2_ll'
I4
tp91
a(S'p2_th'
I5
tp92
a(S'w'
I4
tp93
a(S'tr_tl'
I82
tp94
a(S'tr_ll'
I2
tp95
a(S'tr_th'
I1
tp96
a(S'w'
I729
tp97
a(S'p1_tl'
I166
tp98
a(S'p1_ll'
I4
tp99
a(S'p1_th'
I2
tp100
a(S'w'
I6605
tp101
a(S'p2_tl'
I166
tp102
a(S'p2_ll'
I4
tp103
a(S'p2_th'
I2
tp104
a(S'w'
I4
tp105
a(S'tr_tl'
I169
tp106
a(S'tr_ll'
I2
tp107
a(S'tr_th'
I0
tp108
a(S'w'
I729
tp109
a(S'p1_tl'
I82
tp110
a(S'p1_ll'
I4
tp111
a(S'p1_th'
I1
tp112
a(S'w'
I6605
tp113
a(S'p2_tl'
I78
tp114
a(S'p2_ll'
I4
tp115
a(S'p2_th'
I5
tp116
a(S'w'
I4
tp117
a(S'tr_tl'
I82
tp118
a(S'tr_ll'
I2
tp119
a(S'tr_th'
I1
tp120
a(S'w'
I729
tp121
a(S'p1_tl'
I166
tp122
a(S'p1_ll'
I4
tp123
a(S'p1_th'
I2
tp124
a(S'w'
I6605
tp125
a(S'p2_ll'
I4
tp126
a(S'w'
I4
tp127
a(S'tr_ll'
I2
tp128
a(S'w'
I729
tp129
a(S'p1_tl'
I166
tp130
a(S'p1_ll'
I4
tp131
a(S'w'
I6605
tp132
a(S'p2_tl'
I249
tp133
a(S'p2_ll'
I4
tp134
a(S'p2_th'
I2
tp135
a(S'w'
I4
tp136
a(S'tr_tl'
I189
tp137
a(S'tr_ll'
I2
tp138
a(S'tr_th'
I0
tp139
a(S'w'
I728
tp140
a(S'p1_tl'
I124
tp141
a(S'p1_ll'
I4
tp142
a(S'p1_th'
I1
tp143
a(S'w'
I6606
tp144
a(S'p2_tl'
I78
tp145
a(S'p2_ll'
I4
tp146
a(S'p2_th'
I5
tp147
a(S'w'
I4
tp148
a(S'tr_tl'
I82
tp149
a(S'tr_ll'
I2
tp150
a(S'tr_th'
I1
tp151
a(S'w'
I728
tp152
a(S'p1_tl'
I166
tp153
a(S'p1_ll'
I4
tp154
a(S'p1_th'
I2
tp155
a(S'w'
I6606
tp156
a(S'p2_tl'
I38
tp157
a(S'p2_ll'
I4
tp158
a(S'p2_th'
I3
tp159
a(S'w'
I4
tp160
a(S'tr_tl'
I201
tp161
a(S'tr_ll'
I2
tp162
a(S'tr_th'
I0
tp163
a(S'w'
I4
tp164
a(S'no_cv'
I0
tp165
a(S'no_np'
I4
tp166
a(S'w'
I1
tp167
a(S'no_ll'
I1
tp168
a(S'w'
I723
tp169
a(S'p1_tl'
I147
tp170
a(S'p1_ll'
I4
tp171
a(S'p1_th'
I1
tp172
a(S'w'
I2938
tp173
a(S'no_ll'
I1
tp174
a(S'w'
I3667
tp175
a(S'p2_tl'
I78
tp176
a(S'p2_ll'
I4
tp177
a(S'p2_th'
I5
tp178
a(S'w'
I4
tp179
a(S'tr_tl'
I82
tp180
a(S'tr_ll'
I2
tp181
a(S'tr_th'
I1
tp182
a(S'w'
I4
tp183
a(S'w'
I1
tp184
a(S'no_ll'
I1
tp185
a(S'w'
I724
tp186
a(S'p1_tl'
I166
tp187
a(S'p1_ll'
I4
tp188
a(S'p1_th'
I2
tp189
a(S'w'
I6605
tp190
a(S'p2_tl'
I248
tp191
a(S'p2_ll'
I4
tp192
a(S'p2_th'
I3
tp193
a(S'w'
I4
tp194
a(S'tr_tl'
I253
tp195
a(S'tr_ll'
I2
tp196
a(S'tr_th'
I0
tp197
a(S'w'
I4
tp198
a(S'w'
I1
tp199
a(S'no_ll'
I1
tp200
a(S'w'
I724
tp201
a(S'p1_tl'
I252
tp202
a(S'p1_ll'
I4
tp203
a(S'p1_th'
I1
tp204
a(S'w'
I2938
tp205
a(S'no_ll'
I1
tp206
a(S'w'
I3667
tp207
a(S'p2_tl'
I137
tp208
a(S'p2_ll'
I4
tp209
a(S'w'
I4
tp210
a(S'tr_tl'
I226
tp211
a(S'tr_ll'
I2
tp212
a(S'w'
I4
tp213
a(S'w'
I1
tp214
a(S'no_ll'
I1
tp215
a(S'w'
I725
tp216
a(S'p1_tl'
I196
tp217
a(S'w'
I1
tp218
a(S'p1_ll'
I4
tp219
a(S'w'
I6603
tp220
a(S'p1_du'
I2
tp221
a(S'p1_vo'
I7
tp222
a(S'w'
I1
tp223
a(S'p1_tl'
I82
tp224
a(S'p1_ll'
I4
tp225
a(S'w'
I7
tp226
a(S'p2_du'
I2
tp227
a(S'p2_vo'
I7
tp228
a(S'p2_se'
I1
tp229
a(S'p2_sp'
I2
tp230
a(S'p2_sn'
I0
tp231
a(S'p2_tl'
I166
tp232
a(S'w'
I1
tp233
a(S'p2_ll'
I4
tp234
a(S'p2_th'
I2
tp235
a(S'w'
I6
tp236
a(S'tr_lr'
I71
tp237
a(S'w'
I1
tp238
a(S'tr_tl'
I169
tp239
a(S'tr_ll'
I4
tp240
a(S'w'
I4
tp241
a(S'w'
I1
tp242
a(S'no_ll'
I1
tp243
a(S'w'
I3650
tp244
a(S'no_cv'
I1
tp245
a(S'w'
I25680
tp246
a(S'p1_tl'
I82
tp247
a(S'p1_ll'
I4
tp248
a(S'w'
I4
tp249
a(S'p2_tl'
I166
tp250
a(S'w'
I1
tp251
a(S'p2_ll'
I4
tp252
a(S'w'
I4
tp253
a(S'tr_ll'
I4
tp254
a(S'w'
I22005
tp255
a(S'p1_tl'
I169
tp256
a(S'p1_ll'
I4
tp257
a(S'p1_th'
I0
tp258
a(S'w'
I4
tp259
a(S'p2_tl'
I82
tp260
a(S'w'
I1
tp261
a(S'p2_ll'
I4
tp262
a(S'p2_th'
I1
tp263
a(S'w'
I3
tp264
a(S'tr_tl'
I84
tp265
a(S'w'
I1
tp266
a(S'tr_ll'
I4
tp267
a(S'w'
I29342
tp268
a(S'p1_du'
I0
tp269
a(S'p1_cv'
I1
tp270
a(S'p1_vo'
I0
tp271
a.