(lp1
(S'clock'
p2
I1789772
tp3
a(S'p1_ll'
I0
tp4
a(S'p2_ll'
I0
tp5
a(S'tr_ll'
I0
tp6
a(S'no_ll'
I0
tp7
a(S'ch_no'
I1
tp8
a(S'ch_tr'
I1
tp9
a(S'ch_p2'
I1
tp10
a(S'ch_p1'
I1
tp11
a(S'fc_mo'
I1
tp12
a(S'p1_ll'
I0
tp13
a(S'p2_ll'
I0
tp14
a(S'tr_ll'
I0
tp15
a(S'no_ll'
I0
tp16
a(S'p2_se'
I1
tp17
a(S'p2_sp'
I1
tp18
a(S'tr_lh'
I1
tp19
a(S'tr_lr'
I15
tp20
a(S'w'
I2
tp21
a(S'p1_tl'
I167
tp22
a(S'w'
I1
tp23
a(S'p1_ll'
I1
tp24
a(S'p1_th'
I2
tp25
a(S'w'
I3
tp26
a(S'p1_du'
I3
tp27
a(S'p1_cv'
I1
tp28
a(S'p1_vo'
I13
tp29
a(S'w'
I2
tp30
a(S'p2_tl'
I83
tp31
a(S'w'
I1
tp32
a(S'p2_ll'
I1
tp33
a(S'p2_th'
I1
tp34
a(S'w'
I3
tp35
a(S'p2_du'
I1
tp36
a(S'p2_lh'
I1
tp37
a(S'p2_cv'
I1
tp38
a(S'p2_vo'
I15
tp39
a(S'w'
I2
tp40
a(S'tr_tl'
I170
tp41
a(S'w'
I1
tp42
a(S'tr_ll'
I1
tp43
a(S'w'
I722
tp44
a(S'p1_vo'
I11
tp45
a(S'w'
I737
tp46
a(S'p2_vo'
I11
tp47
a(S'w'
I731
tp48
a(S'p1_vo'
I10
tp49
a(S'w'
I734
tp50
a(S'p1_vo'
I9
tp51
a(S'w'
I3
tp52
a(S'p2_vo'
I10
tp53
a(S'w'
I730
tp54
a(S'p1_vo'
I8
tp55
a(S'w'
I734
tp56
a(S'p1_vo'
I7
tp57
a(S'w'
I3
tp58
a(S'p2_vo'
I9
tp59
a(S'w'
I732
tp60
a(S'p1_vo'
I6
tp61
a(S'w'
I733
tp62
a(S'p1_vo'
I5
tp63
a(S'w'
I3
tp64
a(S'p2_vo'
I8
tp65
a(S'w'
I731
tp66
a(S'p1_vo'
I4
tp67
a(S'w'
I733
tp68
a(S'p1_vo'
I6
tp69
a(S'w'
I3
tp70
a(S'p2_vo'
I7
tp71
a(S'w'
I731
tp72
a(S'p1_vo'
I5
tp73
a(S'w'
I734
tp74
a(S'p1_vo'
I4
tp75
a(S'w'
I3
tp76
a(S'p2_vo'
I6
tp77
a(S'w'
I731
tp78
a(S'p1_vo'
I3
tp79
a(S'w'
I3
tp80
a(S'p2_vo'
I5
tp81
a(S'w'
I730
tp82
a(S'p1_tl'
I197
tp83
a(S'w'
I1
tp84
a(S'p1_ll'
I1
tp85
a(S'p1_th'
I1
tp86
a(S'w'
I4
tp87
a(S'p1_vo'
I13
tp88
a(S'w'
I3
tp89
a(S'p2_vo'
I4
tp90
a(S'w'
I726
tp91
a(S'p1_vo'
I11
tp92
a(S'w'
I3
tp93
a(S'p2_vo'
I3
tp94
a(S'w'
I1465
tp95
a(S'p1_vo'
I10
tp96
a(S'w'
I3
tp97
a(S'p2_vo'
I2
tp98
a(S'w'
I731
tp99
a(S'p1_vo'
I9
tp100
a(S'w'
I734
tp101
a(S'p1_vo'
I8
tp102
a(S'w'
I3
tp103
a(S'p2_vo'
I1
tp104
a(S'w'
I730
tp105
a(S'p1_vo'
I7
tp106
a(S'w'
I735
tp107
a(S'p1_vo'
I6
tp108
a(S'w'
I3
tp109
a(S'p2_vo'
I2
tp110
a(S'w'
I730
tp111
a(S'p1_vo'
I5
tp112
a(S'w'
I3
tp113
a(S'p2_vo'
I3
tp114
a(S'w'
I731
tp115
a(S'p1_vo'
I4
tp116
a(S'w'
I3
tp117
a(S'p2_vo'
I4
tp118
a(S'w'
I731
tp119
a(S'p1_vo'
I6
tp120
a(S'w'
I733
tp121
a(S'p1_vo'
I5
tp122
a(S'w'
I734
tp123
a(S'p1_vo'
I4
tp124
a(S'w'
I734
tp125
a(S'p1_vo'
I3
tp126
a(S'w'
I733
tp127
a(S'p1_tl'
I83
tp128
a(S'w'
I1
tp129
a(S'p1_ll'
I1
tp130
a(S'w'
I4
tp131
a(S'p1_vo'
I13
tp132
a(S'w'
I3
tp133
a(S'p2_vo'
I3
tp134
a(S'w'
I726
tp135
a(S'p1_vo'
I11
tp136
a(S'w'
I1468
tp137
a(S'p1_vo'
I10
tp138
a(S'w'
I734
tp139
a(S'p1_vo'
I9
tp140
a(S'w'
I3
tp141
a(S'p2_vo'
I2
tp142
a(S'w'
I731
tp143
a(S'p1_vo'
I8
tp144
a(S'w'
I3
tp145
a(S'p2_vo'
I1
tp146
a(S'w'
I730
tp147
a(S'p1_vo'
I7
tp148
a(S'w'
I735
tp149
a(S'p1_vo'
I6
tp150
a(S'w'
I733
tp151
a(S'p1_vo'
I5
tp152
a(S'w'
I734
tp153
a(S'p1_vo'
I4
tp154
a(S'w'
I734
tp155
a(S'p1_vo'
I6
tp156
a(S'w'
I733
tp157
a(S'p1_vo'
I5
tp158
a(S'w'
I734
tp159
a(S'p1_vo'
I4
tp160
a(S'w'
I3
tp161
a(S'p2_vo'
I2
tp162
a(S'w'
I731
tp163
a(S'p1_vo'
I3
tp164
a(S'w'
I733
tp165
a(S'p1_tl'
I253
tp166
a(S'w'
I1
tp167
a(S'p1_ll'
I1
tp168
a(S'w'
I4
tp169
a(S'p1_vo'
I13
tp170
a(S'w'
I730
tp171
a(S'p1_vo'
I11
tp172
a(S'w'
I1467
tp173
a(S'p1_vo'
I10
tp174
a(S'w'
I734
tp175
a(S'p1_vo'
I9
tp176
a(S'w'
I3
tp177
a(S'p2_vo'
I1
tp178
a(S'w'
I731
tp179
a(S'p1_vo'
I8
tp180
a(S'w'
I734
tp181
a(S'p1_vo'
I7
tp182
a(S'w'
I734
tp183
a(S'p1_vo'
I6
tp184
a(S'w'
I733
tp185
a(S'p1_vo'
I5
tp186
a(S'w'
I734
tp187
a(S'p1_vo'
I4
tp188
a(S'w'
I734
tp189
a(S'p1_vo'
I6
tp190
a(S'w'
I3
tp191
a(S'p2_vo'
I2
tp192
a(S'w'
I730
tp193
a(S'p1_vo'
I5
tp194
a(S'w'
I734
tp195
a(S'p1_vo'
I4
tp196
a(S'w'
I734
tp197
a(S'p1_vo'
I3
tp198
a(S'w'
I733
tp199
a(S'p1_tl'
I125
tp200
a(S'w'
I1
tp201
a(S'p1_ll'
I1
tp202
a(S'w'
I4
tp203
a(S'p1_vo'
I13
tp204
a(S'w'
I1
tp205
a(S'p2_tl'
I46
tp206
a(S'w'
I1
tp207
a(S'p2_ll'
I1
tp208
a(S'w'
I4
tp209
a(S'p2_vo'
I15
tp210
a(S'w'
I1
tp211
a(S'tr_tl'
I151
tp212
a(S'w'
I1
tp213
a(S'tr_ll'
I1
tp214
a(S'w'
I722
tp215
a(S'p1_vo'
I11
tp216
a(S'w'
I736
tp217
a(S'p2_vo'
I11
tp218
a(S'w'
I731
tp219
a(S'p1_vo'
I10
tp220
a(S'w'
I734
tp221
a(S'p1_vo'
I9
tp222
a(S'w'
I3
tp223
a(S'p2_vo'
I10
tp224
a(S'w'
I731
tp225
a(S'p1_vo'
I8
tp226
a(S'w'
I734
tp227
a(S'p1_vo'
I7
tp228
a(S'w'
I3
tp229
a(S'p2_vo'
I9
tp230
a(S'w'
I731
tp231
a(S'p1_vo'
I6
tp232
a(S'w'
I733
tp233
a(S'p1_vo'
I5
tp234
a(S'w'
I3
tp235
a(S'p2_vo'
I8
tp236
a(S'w'
I731
tp237
a(S'p1_vo'
I4
tp238
a(S'w'
I734
tp239
a(S'p1_vo'
I6
tp240
a(S'w'
I3
tp241
a(S'p2_vo'
I7
tp242
a(S'w'
I731
tp243
a(S'p1_vo'
I5
tp244
a(S'w'
I733
tp245
a(S'p1_vo'
I4
tp246
a(S'w'
I3
tp247
a(S'p2_vo'
I6
tp248
a(S'w'
I731
tp249
a(S'p1_vo'
I3
tp250
a(S'w'
I3
tp251
a(S'p2_vo'
I5
tp252
a(S'w'
I730
tp253
a(S'p1_tl'
I83
tp254
a(S'w'
I1
tp255
a(S'p1_ll'
I1
tp256
a(S'w'
I4
tp257
a(S'p1_vo'
I13
tp258
a(S'w'
I3
tp259
a(S'p2_vo'
I4
tp260
a(S'w'
I727
tp261
a(S'p1_vo'
I11
tp262
a(S'w'
I3
tp263
a(S'p2_vo'
I3
tp264
a(S'w'
I1464
tp265
a(S'p1_vo'
I10
tp266
a(S'w'
I3
tp267
a(S'p2_vo'
I2
tp268
a(S'w'
I731
tp269
a(S'p1_vo'
I9
tp270
a(S'w'
I734
tp271
a(S'p1_vo'
I8
tp272
a(S'w'
I3
tp273
a(S'p2_vo'
I1
tp274
a(S'w'
I731
tp275
a(S'p1_vo'
I7
tp276
a(S'w'
I734
tp277
a(S'p1_vo'
I6
tp278
a(S'w'
I3
tp279
a(S'p2_vo'
I2
tp280
a(S'w'
I730
tp281
a(S'p1_vo'
I5
tp282
a(S'w'
I3
tp283
a(S'p2_vo'
I3
tp284
a(S'w'
I731
tp285
a(S'p1_vo'
I4
tp286
a(S'w'
I3
tp287
a(S'p2_vo'
I4
tp288
a(S'w'
I731
tp289
a(S'p1_vo'
I6
tp290
a(S'w'
I734
tp291
a(S'p1_vo'
I5
tp292
a(S'w'
I733
tp293
a(S'p1_vo'
I4
tp294
a(S'w'
I734
tp295
a(S'p1_vo'
I3
tp296
a(S'w'
I733
tp297
a(S'p1_tl'
I46
tp298
a(S'w'
I1
tp299
a(S'p1_ll'
I1
tp300
a(S'w'
I4
tp301
a(S'p1_vo'
I13
tp302
a(S'w'
I1
tp303
a(S'p2_tl'
I29
tp304
a(S'w'
I1
tp305
a(S'p2_ll'
I1
tp306
a(S'w'
I4
tp307
a(S'p2_vo'
I15
tp308
a(S'w'
I1
tp309
a(S'tr_tl'
I143
tp310
a(S'w'
I1
tp311
a(S'tr_ll'
I1
tp312
a(S'w'
I722
tp313
a(S'p1_vo'
I11
tp314
a(S'w'
I737
tp315
a(S'p2_vo'
I11
tp316
a(S'w'
I730
tp317
a(S'p1_vo'
I10
tp318
a(S'w'
I734
tp319
a(S'p1_vo'
I9
tp320
a(S'w'
I3
tp321
a(S'p2_vo'
I10
tp322
a(S'w'
I731
tp323
a(S'p1_vo'
I8
tp324
a(S'w'
I734
tp325
a(S'p1_vo'
I7
tp326
a(S'w'
I3
tp327
a(S'p2_vo'
I9
tp328
a(S'w'
I730
tp329
a(S'p1_tl'
I148
tp330
a(S'w'
I1
tp331
a(S'p1_ll'
I1
tp332
a(S'w'
I4
tp333
a(S'p1_vo'
I13
tp334
a(S'w'
I729
tp335
a(S'p1_vo'
I11
tp336
a(S'w'
I3
tp337
a(S'p2_vo'
I8
tp338
a(S'w'
I1465
tp339
a(S'p1_vo'
I10
tp340
a(S'w'
I3
tp341
a(S'p2_vo'
I7
tp342
a(S'w'
I731
tp343
a(S'p1_vo'
I9
tp344
a(S'w'
I734
tp345
a(S'p1_vo'
I8
tp346
a(S'w'
I3
tp347
a(S'p2_vo'
I6
tp348
a(S'w'
I730
tp349
a(S'p1_vo'
I7
tp350
a(S'w'
I3
tp351
a(S'p2_vo'
I5
tp352
a(S'w'
I730
tp353
a(S'p1_tl'
I59
tp354
a(S'w'
I1
tp355
a(S'p1_ll'
I1
tp356
a(S'p1_th'
I2
tp357
a(S'w'
I4
tp358
a(S'p1_vo'
I13
tp359
a(S'w'
I3
tp360
a(S'p2_vo'
I4
tp361
a(S'w'
I727
tp362
a(S'p1_vo'
I11
tp363
a(S'w'
I3
tp364
a(S'p2_vo'
I3
tp365
a(S'w'
I1464
tp366
a(S'p1_vo'
I10
tp367
a(S'w'
I3
tp368
a(S'p2_vo'
I2
tp369
a(S'w'
I731
tp370
a(S'p1_vo'
I9
tp371
a(S'w'
I734
tp372
a(S'p1_vo'
I8
tp373
a(S'w'
I3
tp374
a(S'p2_vo'
I1
tp375
a(S'w'
I731
tp376
a(S'p1_vo'
I7
tp377
a(S'w'
I735
tp378
a(S'p1_vo'
I6
tp379
a(S'w'
I3
tp380
a(S'p2_vo'
I2
tp381
a(S'w'
I729
tp382
a(S'p1_vo'
I5
tp383
a(S'w'
I3
tp384
a(S'p2_vo'
I3
tp385
a(S'w'
I731
tp386
a(S'p1_vo'
I4
tp387
a(S'w'
I3
tp388
a(S'p2_vo'
I4
tp389
a(S'w'
I731
tp390
a(S'p1_vo'
I6
tp391
a(S'w'
I734
tp392
a(S'p1_vo'
I5
tp393
a(S'w'
I734
tp394
a(S'p1_vo'
I4
tp395
a(S'w'
I733
tp396
a(S'p1_vo'
I3
tp397
a(S'w'
I733
tp398
a(S'p1_tl'
I167
tp399
a(S'w'
I1
tp400
a(S'p1_ll'
I1
tp401
a(S'w'
I4
tp402
a(S'p1_vo'
I13
tp403
a(S'w'
I1
tp404
a(S'p2_tl'
I190
tp405
a(S'w'
I1
tp406
a(S'p2_ll'
I1
tp407
a(S'p2_th'
I0
tp408
a(S'w'
I4
tp409
a(S'p2_vo'
I15
tp410
a(S'w'
I1
tp411
a(S'tr_tl'
I95
tp412
a(S'w'
I1
tp413
a(S'tr_ll'
I1
tp414
a(S'w'
I722
tp415
a(S'p1_vo'
I11
tp416
a(S'w'
I737
tp417
a(S'p2_vo'
I11
tp418
a(S'w'
I731
tp419
a(S'p1_vo'
I10
tp420
a(S'w'
I733
tp421
a(S'p1_vo'
I9
tp422
a(S'w'
I3
tp423
a(S'p2_vo'
I10
tp424
a(S'w'
I731
tp425
a(S'p1_vo'
I8
tp426
a(S'w'
I734
tp427
a(S'p1_vo'
I7
tp428
a(S'w'
I3
tp429
a(S'p2_vo'
I9
tp430
a(S'w'
I732
tp431
a(S'p1_vo'
I6
tp432
a(S'w'
I733
tp433
a(S'p1_vo'
I5
tp434
a(S'w'
I3
tp435
a(S'p2_vo'
I8
tp436
a(S'w'
I730
tp437
a(S'p1_vo'
I4
tp438
a(S'w'
I734
tp439
a(S'p1_vo'
I6
tp440
a(S'w'
I3
tp441
a(S'p2_vo'
I7
tp442
a(S'w'
I731
tp443
a(S'p1_vo'
I5
tp444
a(S'w'
I734
tp445
a(S'p1_vo'
I4
tp446
a(S'w'
I3
tp447
a(S'p2_vo'
I6
tp448
a(S'w'
I730
tp449
a(S'p1_vo'
I3
tp450
a(S'w'
I3
tp451
a(S'p2_vo'
I5
tp452
a(S'w'
I730
tp453
a(S'p1_tl'
I197
tp454
a(S'w'
I1
tp455
a(S'p1_ll'
I1
tp456
a(S'p1_th'
I1
tp457
a(S'w'
I4
tp458
a(S'p1_vo'
I13
tp459
a(S'w'
I3
tp460
a(S'p2_vo'
I4
tp461
a(S'w'
I727
tp462
a(S'p1_vo'
I11
tp463
a(S'w'
I3
tp464
a(S'p2_vo'
I3
tp465
a(S'w'
I1465
tp466
a(S'p1_vo'
I10
tp467
a(S'w'
I3
tp468
a(S'p2_vo'
I2
tp469
a(S'w'
I730
tp470
a(S'p1_vo'
I9
tp471
a(S'w'
I734
tp472
a(S'p1_vo'
I8
tp473
a(S'w'
I3
tp474
a(S'p2_vo'
I1
tp475
a(S'w'
I731
tp476
a(S'p1_vo'
I7
tp477
a(S'w'
I735
tp478
a(S'p1_vo'
I6
tp479
a(S'w'
I3
tp480
a(S'p2_vo'
I2
tp481
a(S'w'
I730
tp482
a(S'p1_vo'
I5
tp483
a(S'w'
I3
tp484
a(S'p2_vo'
I3
tp485
a(S'w'
I730
tp486
a(S'p1_vo'
I4
tp487
a(S'w'
I3
tp488
a(S'p2_vo'
I4
tp489
a(S'w'
I731
tp490
a(S'p1_vo'
I6
tp491
a(S'w'
I734
tp492
a(S'p1_vo'
I5
tp493
a(S'w'
I734
tp494
a(S'p1_vo'
I4
tp495
a(S'w'
I734
tp496
a(S'p1_vo'
I3
tp497
a(S'w'
I732
tp498
a(S'p1_tl'
I83
tp499
a(S'w'
I1
tp500
a(S'p1_ll'
I1
tp501
a(S'w'
I4
tp502
a(S'p1_vo'
I13
tp503
a(S'w'
I3
tp504
a(S'p2_vo'
I3
tp505
a(S'w'
I727
tp506
a(S'p1_vo'
I11
tp507
a(S'w'
I1468
tp508
a(S'p1_vo'
I10
tp509
a(S'w'
I734
tp510
a(S'p1_vo'
I9
tp511
a(S'w'
I3
tp512
a(S'p2_vo'
I2
tp513
a(S'w'
I730
tp514
a(S'p1_vo'
I8
tp515
a(S'w'
I3
tp516
a(S'p2_vo'
I1
tp517
a(S'w'
I731
tp518
a(S'p1_vo'
I7
tp519
a(S'w'
I735
tp520
a(S'p1_vo'
I6
tp521
a(S'w'
I733
tp522
a(S'p1_vo'
I5
tp523
a(S'w'
I733
tp524
a(S'p1_vo'
I4
tp525
a(S'w'
I734
tp526
a(S'p1_vo'
I6
tp527
a(S'w'
I734
tp528
a(S'p1_vo'
I5
tp529
a(S'w'
I734
tp530
a(S'p1_vo'
I4
tp531
a(S'w'
I3
tp532
a(S'p2_vo'
I2
tp533
a(S'w'
I731
tp534
a(S'p1_vo'
I3
tp535
a(S'w'
I732
tp536
a(S'p1_tl'
I253
tp537
a(S'w'
I1
tp538
a(S'p1_ll'
I1
tp539
a(S'w'
I4
tp540
a(S'p1_vo'
I13
tp541
a(S'w'
I730
tp542
a(S'p1_vo'
I11
tp543
a(S'w'
I1468
tp544
a(S'p1_vo'
I10
tp545
a(S'w'
I734
tp546
a(S'p1_vo'
I9
tp547
a(S'w'
I3
tp548
a(S'p2_vo'
I1
tp549
a(S'w'
I730
tp550
a(S'p1_vo'
I8
tp551
a(S'w'
I734
tp552
a(S'p1_vo'
I7
tp553
a(S'w'
I735
tp554
a(S'p1_vo'
I6
tp555
a(S'w'
I733
tp556
a(S'p1_vo'
I5
tp557
a(S'w'
I734
tp558
a(S'p1_vo'
I4
tp559
a(S'w'
I733
tp560
a(S'p1_vo'
I6
tp561
a(S'w'
I3
tp562
a(S'p2_vo'
I2
tp563
a(S'w'
I731
tp564
a(S'p1_vo'
I5
tp565
a(S'w'
I734
tp566
a(S'p1_vo'
I4
tp567
a(S'w'
I734
tp568
a(S'p1_vo'
I3
tp569
a(S'w'
I733
tp570
a(S'p1_tl'
I125
tp571
a(S'w'
I1
tp572
a(S'p1_ll'
I1
tp573
a(S'w'
I4
tp574
a(S'p1_vo'
I13
tp575
a(S'w'
I1
tp576
a(S'p2_tl'
I202
tp577
a(S'w'
I1
tp578
a(S'p2_ll'
I1
tp579
a(S'w'
I4
tp580
a(S'p2_vo'
I15
tp581
a(S'w'
I1
tp582
a(S'tr_tl'
I101
tp583
a(S'w'
I1
tp584
a(S'tr_ll'
I1
tp585
a(S'w'
I721
tp586
a(S'p1_vo'
I11
tp587
a(S'w'
I737
tp588
a(S'p2_vo'
I11
tp589
a(S'w'
I731
tp590
a(S'p1_vo'
I10
tp591
a(S'w'
I734
tp592
a(S'p1_vo'
I9
tp593
a(S'w'
I3
tp594
a(S'p2_vo'
I10
tp595
a(S'w'
I730
tp596
a(S'p1_vo'
I8
tp597
a(S'w'
I734
tp598
a(S'p1_vo'
I7
tp599
a(S'w'
I3
tp600
a(S'p2_vo'
I9
tp601
a(S'w'
I732
tp602
a(S'p1_vo'
I6
tp603
a(S'w'
I733
tp604
a(S'p1_vo'
I5
tp605
a(S'w'
I3
tp606
a(S'p2_vo'
I8
tp607
a(S'w'
I731
tp608
a(S'p1_vo'
I4
tp609
a(S'w'
I733
tp610
a(S'p1_vo'
I6
tp611
a(S'w'
I3
tp612
a(S'p2_vo'
I7
tp613
a(S'w'
I731
tp614
a(S'p1_vo'
I5
tp615
a(S'w'
I734
tp616
a(S'p1_vo'
I4
tp617
a(S'w'
I3
tp618
a(S'p2_vo'
I6
tp619
a(S'w'
I731
tp620
a(S'p1_vo'
I3
tp621
a(S'w'
I3
tp622
a(S'p2_vo'
I5
tp623
a(S'w'
I730
tp624
a(S'p1_tl'
I83
tp625
a(S'w'
I1
tp626
a(S'p1_ll'
I1
tp627
a(S'w'
I4
tp628
a(S'p1_vo'
I13
tp629
a(S'w'
I3
tp630
a(S'p2_vo'
I4
tp631
a(S'w'
I726
tp632
a(S'p1_vo'
I11
tp633
a(S'w'
I3
tp634
a(S'p2_vo'
I3
tp635
a(S'w'
I1465
tp636
a(S'p1_vo'
I10
tp637
a(S'w'
I3
tp638
a(S'p2_vo'
I2
tp639
a(S'w'
I731
tp640
a(S'p1_vo'
I9
tp641
a(S'w'
I734
tp642
a(S'p1_vo'
I8
tp643
a(S'w'
I3
tp644
a(S'p2_vo'
I1
tp645
a(S'w'
I730
tp646
a(S'p1_vo'
I7
tp647
a(S'w'
I735
tp648
a(S'p1_vo'
I6
tp649
a(S'w'
I3
tp650
a(S'p2_vo'
I2
tp651
a(S'w'
I730
tp652
a(S'p1_vo'
I5
tp653
a(S'w'
I3
tp654
a(S'p2_vo'
I3
tp655
a(S'w'
I731
tp656
a(S'p1_vo'
I4
tp657
a(S'w'
I3
tp658
a(S'p2_vo'
I4
tp659
a(S'w'
I731
tp660
a(S'p1_vo'
I6
tp661
a(S'w'
I733
tp662
a(S'p1_vo'
I5
tp663
a(S'w'
I734
tp664
a(S'p1_vo'
I4
tp665
a(S'w'
I734
tp666
a(S'p1_vo'
I3
tp667
a(S'w'
I733
tp668
a(S'p1_tl'
I46
tp669
a(S'w'
I1
tp670
a(S'p1_ll'
I1
tp671
a(S'w'
I4
tp672
a(S'p1_vo'
I13
tp673
a(S'w'
I1
tp674
a(S'p2_tl'
I254
tp675
a(S'w'
I1
tp676
a(S'p2_ll'
I1
tp677
a(S'w'
I4
tp678
a(S'p2_vo'
I15
tp679
a(S'w'
I1
tp680
a(S'tr_tl'
I127
tp681
a(S'w'
I1
tp682
a(S'tr_ll'
I1
tp683
a(S'w'
I721
tp684
a(S'p1_vo'
I11
tp685
a(S'w'
I737
tp686
a(S'p2_vo'
I11
tp687
a(S'w'
I731
tp688
a(S'p1_vo'
I10
tp689
a(S'w'
I734
tp690
a(S'p1_vo'
I9
tp691
a(S'w'
I3
tp692
a(S'p2_vo'
I10
tp693
a(S'w'
I731
tp694
a(S'p1_vo'
I8
tp695
a(S'w'
I733
tp696
a(S'p1_vo'
I7
tp697
a(S'w'
I3
tp698
a(S'p2_vo'
I9
tp699
a(S'w'
I730
tp700
a(S'p1_tl'
I148
tp701
a(S'w'
I1
tp702
a(S'p1_ll'
I1
tp703
a(S'w'
I4
tp704
a(S'p1_vo'
I13
tp705
a(S'w'
I730
tp706
a(S'p1_vo'
I11
tp707
a(S'w'
I3
tp708
a(S'p2_vo'
I8
tp709
a(S'w'
I1465
tp710
a(S'p1_vo'
I10
tp711
a(S'w'
I3
tp712
a(S'p2_vo'
I7
tp713
a(S'w'
I730
tp714
a(S'p1_vo'
I9
tp715
a(S'w'
I734
tp716
a(S'p1_vo'
I8
tp717
a(S'w'
I3
tp718
a(S'p2_vo'
I6
tp719
a(S'w'
I731
tp720
a(S'p1_vo'
I7
tp721
a(S'w'
I3
tp722
a(S'p2_vo'
I5
tp723
a(S'w'
I730
tp724
a(S'p1_tl'
I59
tp725
a(S'w'
I1
tp726
a(S'p1_ll'
I1
tp727
a(S'p1_th'
I2
tp728
a(S'w'
I4
tp729
a(S'p1_vo'
I13
tp730
a(S'w'
I3
tp731
a(S'p2_vo'
I4
tp732
a(S'w'
I727
tp733
a(S'p1_vo'
I11
tp734
a(S'w'
I3
tp735
a(S'p2_vo'
I3
tp736
a(S'w'
I1464
tp737
a(S'p1_vo'
I10
tp738
a(S'w'
I3
tp739
a(S'p2_vo'
I2
tp740
a(S'w'
I731
tp741
a(S'p1_vo'
I9
tp742
a(S'w'
I734
tp743
a(S'p1_vo'
I8
tp744
a(S'w'
I3
tp745
a(S'p2_vo'
I1
tp746
a(S'w'
I731
tp747
a(S'p1_vo'
I7
tp748
a(S'w'
I734
tp749
a(S'p1_vo'
I6
tp750
a(S'w'
I3
tp751
a(S'p2_vo'
I2
tp752
a(S'w'
I730
tp753
a(S'p1_vo'
I5
tp754
a(S'w'
I3
tp755
a(S'p2_vo'
I3
tp756
a(S'w'
I731
tp757
a(S'p1_vo'
I4
tp758
a(S'w'
I3
tp759
a(S'p2_vo'
I4
tp760
a(S'w'
I731
tp761
a(S'p1_vo'
I6
tp762
a(S'w'
I733
tp763
a(S'p1_vo'
I5
tp764
a(S'w'
I734
tp765
a(S'p1_vo'
I4
tp766
a(S'w'
I734
tp767
a(S'p1_vo'
I3
tp768
a(S'w'
I735
tp769
a(S'p1_cv'
I0
tp770
a(S'p1_vo'
I8
tp771
a(S'w'
I4
tp772
a(S'p1_tl'
I138
tp773
a(S'w'
I1
tp774
a(S'p1_ll'
I1
tp775
a(S'p1_th'
I3
tp776
a(S'w'
I5
tp777
a(S'p2_lh'
I0
tp778
a(S'p2_cv'
I0
tp779
a(S'p2_vo'
I5
tp780
a(S'w'
I1
tp781
a(S'p2_sp'
I7
tp782
a(S'w'
I2
tp783
a(S'p2_tl'
I113
tp784
a(S'w'
I1
tp785
a(S'p2_ll'
I1
tp786
a(S'w'
I5
tp787
a(S'tr_lh'
I0
tp788
a(S'tr_lr'
I24
tp789
a(S'w'
I1
tp790
a(S'w'
I2
tp791
a(S'tr_tl'
I67
tp792
a(S'w'
I1
tp793
a(S'tr_ll'
I1
tp794
a(S'w'
I5113
tp795
a(S'p2_tl'
I113
tp796
a(S'w'
I1
tp797
a(S'p2_ll'
I1
tp798
a(S'w'
I4
tp799
a(S'tr_ll'
I1
tp800
a(S'w'
I5132
tp801
a(S'p2_tl'
I127
tp802
a(S'w'
I1
tp803
a(S'p2_ll'
I1
tp804
a(S'w'
I3
tp805
a(S'tr_tl'
I76
tp806
a(S'w'
I1
tp807
a(S'tr_ll'
I1
tp808
a(S'w'
I10268
tp809
a(S'p2_tl'
I135
tp810
a(S'w'
I1
tp811
a(S'p2_ll'
I1
tp812
a(S'w'
I3
tp813
a(S'tr_tl'
I85
tp814
a(S'w'
I1
tp815
a(S'tr_ll'
I1
tp816
a(S'w'
I10268
tp817
a(S'p2_tl'
I113
tp818
a(S'w'
I1
tp819
a(S'p2_ll'
I1
tp820
a(S'w'
I3
tp821
a(S'tr_tl'
I67
tp822
a(S'w'
I1
tp823
a(S'tr_ll'
I1
tp824
a(S'w'
I10266
tp825
a(S'p1_tl'
I39
tp826
a(S'w'
I1
tp827
a(S'p1_ll'
I1
tp828
a(S'w'
I3
tp829
a(S'p2_tl'
I127
tp830
a(S'w'
I1
tp831
a(S'p2_ll'
I1
tp832
a(S'w'
I3
tp833
a(S'tr_tl'
I76
tp834
a(S'w'
I1
tp835
a(S'tr_ll'
I1
tp836
a(S'w'
I5130
tp837
a(S'p2_tl'
I127
tp838
a(S'w'
I1
tp839
a(S'p2_ll'
I1
tp840
a(S'w'
I4
tp841
a(S'tr_ll'
I1
tp842
a(S'w'
I5131
tp843
a(S'p2_tl'
I135
tp844
a(S'w'
I1
tp845
a(S'p2_ll'
I1
tp846
a(S'w'
I3
tp847
a(S'tr_tl'
I85
tp848
a(S'w'
I1
tp849
a(S'tr_ll'
I1
tp850
a(S'w'
I10266
tp851
a(S'p1_tl'
I207
tp852
a(S'w'
I1
tp853
a(S'p1_ll'
I1
tp854
a(S'p1_th'
I2
tp855
a(S'w'
I3
tp856
a(S'p2_tl'
I151
tp857
a(S'w'
I1
tp858
a(S'p2_ll'
I1
tp859
a(S'w'
I3
tp860
a(S'tr_tl'
I90
tp861
a(S'w'
I1
tp862
a(S'tr_ll'
I1
tp863
a(S'w'
I10266
tp864
a(S'p2_tl'
I90
tp865
a(S'w'
I1
tp866
a(S'p2_ll'
I1
tp867
a(S'w'
I3
tp868
a(S'tr_tl'
I76
tp869
a(S'w'
I1
tp870
a(S'tr_ll'
I1
tp871
a(S'w'
I10272
tp872
a(S'p1_tl'
I83
tp873
a(S'w'
I1
tp874
a(S'p1_ll'
I1
tp875
a(S'p1_th'
I1
tp876
a(S'w'
I4
tp877
a(S'p1_cv'
I1
tp878
a(S'p1_vo'
I13
tp879
a(S'w'
I2
tp880
a(S'p2_tl'
I85
tp881
a(S'w'
I1
tp882
a(S'p2_ll'
I1
tp883
a(S'w'
I2
tp884
a(S'tr_tl'
I57
tp885
a(S'w'
I2
tp886
a(S'tr_ll'
I1
tp887
a(S'w'
I717
tp888
a(S'p1_vo'
I11
tp889
a(S'w'
I1468
tp890
a(S'p1_vo'
I10
tp891
a(S'w'
I734
tp892
a(S'p1_vo'
I9
tp893
a(S'w'
I733
tp894
a(S'p1_vo'
I8
tp895
a(S'w'
I734
tp896
a(S'p1_vo'
I7
tp897
a(S'w'
I735
tp898
a(S'p1_vo'
I6
tp899
a(S'w'
I733
tp900
a(S'p1_vo'
I5
tp901
a(S'w'
I734
tp902
a(S'p1_vo'
I4
tp903
a(S'w'
I733
tp904
a(S'p1_vo'
I6
tp905
a(S'w'
I734
tp906
a(S'p1_vo'
I5
tp907
a(S'w'
I734
tp908
a(S'p1_vo'
I4
tp909
a(S'w'
I734
tp910
a(S'p1_vo'
I3
tp911
a(S'w'
I733
tp912
a(S'p1_tl'
I197
tp913
a(S'w'
I1
tp914
a(S'p1_ll'
I1
tp915
a(S'w'
I4
tp916
a(S'p1_vo'
I13
tp917
a(S'w'
I1
tp918
a(S'p2_tl'
I113
tp919
a(S'w'
I1
tp920
a(S'p2_ll'
I1
tp921
a(S'w'
I3
tp922
a(S'tr_tl'
I67
tp923
a(S'w'
I1
tp924
a(S'tr_ll'
I1
tp925
a(S'w'
I723
tp926
a(S'p1_vo'
I11
tp927
a(S'w'
I1468
tp928
a(S'p1_vo'
I10
tp929
a(S'w'
I734
tp930
a(S'p1_vo'
I9
tp931
a(S'w'
I734
tp932
a(S'p1_vo'
I8
tp933
a(S'w'
I733
tp934
a(S'p1_vo'
I7
tp935
a(S'w'
I735
tp936
a(S'p1_vo'
I6
tp937
a(S'w'
I733
tp938
a(S'p1_vo'
I5
tp939
a(S'w'
I734
tp940
a(S'p1_vo'
I4
tp941
a(S'w'
I734
tp942
a(S'p1_vo'
I6
tp943
a(S'w'
I733
tp944
a(S'p1_vo'
I5
tp945
a(S'w'
I734
tp946
a(S'p1_vo'
I4
tp947
a(S'w'
I734
tp948
a(S'p1_vo'
I3
tp949
a(S'w'
I733
tp950
a(S'p1_tl'
I27
tp951
a(S'w'
I1
tp952
a(S'p1_ll'
I1
tp953
a(S'p1_th'
I2
tp954
a(S'w'
I4
tp955
a(S'p1_vo'
I13
tp956
a(S'w'
I1
tp957
a(S'p2_tl'
I135
tp958
a(S'w'
I1
tp959
a(S'p2_ll'
I1
tp960
a(S'w'
I3
tp961
a(S'tr_tl'
I85
tp962
a(S'w'
I1
tp963
a(S'tr_ll'
I1
tp964
a(S'w'
I723
tp965
a(S'p1_vo'
I11
tp966
a(S'w'
I1468
tp967
a(S'p1_vo'
I10
tp968
a(S'w'
I734
tp969
a(S'p1_vo'
I9
tp970
a(S'w'
I734
tp971
a(S'p1_vo'
I8
tp972
a(S'w'
I733
tp973
a(S'p1_vo'
I7
tp974
a(S'w'
I735
tp975
a(S'p1_vo'
I6
tp976
a(S'w'
I733
tp977
a(S'p1_vo'
I5
tp978
a(S'w'
I734
tp979
a(S'p1_vo'
I4
tp980
a(S'w'
I734
tp981
a(S'p1_vo'
I6
tp982
a(S'w'
I733
tp983
a(S'p1_vo'
I5
tp984
a(S'w'
I734
tp985
a(S'p1_vo'
I4
tp986
a(S'w'
I734
tp987
a(S'p1_vo'
I3
tp988
a(S'w'
I733
tp989
a(S'p1_tl'
I167
tp990
a(S'w'
I1
tp991
a(S'p1_ll'
I1
tp992
a(S'w'
I4
tp993
a(S'p1_vo'
I13
tp994
a(S'w'
I1
tp995
a(S'p2_tl'
I170
tp996
a(S'w'
I1
tp997
a(S'p2_ll'
I1
tp998
a(S'w'
I3
tp999
a(S'tr_tl'
I113
tp1000
a(S'w'
I1
tp1001
a(S'tr_ll'
I1
tp1002
a(S'w'
I724
tp1003
a(S'p1_vo'
I11
tp1004
a(S'w'
I1467
tp1005
a(S'p1_vo'
I10
tp1006
a(S'w'
I734
tp1007
a(S'p1_vo'
I9
tp1008
a(S'w'
I734
tp1009
a(S'p1_vo'
I8
tp1010
a(S'w'
I734
tp1011
a(S'p1_vo'
I7
tp1012
a(S'w'
I734
tp1013
a(S'p1_vo'
I6
tp1014
a(S'w'
I733
tp1015
a(S'p1_vo'
I5
tp1016
a(S'w'
I734
tp1017
a(S'p1_vo'
I4
tp1018
a(S'w'
I734
tp1019
a(S'p1_vo'
I6
tp1020
a(S'w'
I733
tp1021
a(S'p1_vo'
I5
tp1022
a(S'w'
I734
tp1023
a(S'p1_vo'
I4
tp1024
a(S'w'
I734
tp1025
a(S'p1_vo'
I3
tp1026
a(S'w'
I735
tp1027
a(S'p1_vo'
I2
tp1028
a(S'w'
I733
tp1029
a(S'p1_vo'
I0
tp1030
a(S'w'
I9538
tp1031
a(S'p1_tl'
I1
tp1032
a(S'w'
I1
tp1033
a(S'p1_ll'
I1
tp1034
a(S'p1_th'
I0
tp1035
a(S'w'
I4
tp1036
a(S'p1_vo'
I13
tp1037
a(S'w'
I1
tp1038
a(S'p2_tl'
I1
tp1039
a(S'w'
I1
tp1040
a(S'p2_ll'
I1
tp1041
a(S'w'
I3
tp1042
a(S'tr_tl'
I1
tp1043
a(S'w'
I1
tp1044
a(S'tr_ll'
I1
tp1045
a(S'w'
I724
tp1046
a(S'p1_vo'
I11
tp1047
a(S'w'
I1467
tp1048
a(S'p1_vo'
I10
tp1049
a(S'w'
I734
tp1050
a(S'p1_vo'
I9
tp1051
a(S'w'
I734
tp1052
a(S'p1_vo'
I8
tp1053
a(S'w'
I734
tp1054
a(S'p1_vo'
I7
tp1055
a(S'w'
I734
tp1056
a(S'p1_vo'
I6
tp1057
a(S'w'
I733
tp1058
a(S'p1_vo'
I5
tp1059
a(S'w'
I734
tp1060
a(S'p1_vo'
I4
tp1061
a(S'w'
I734
tp1062
a(S'p1_vo'
I6
tp1063
a(S'w'
I734
tp1064
a(S'p1_vo'
I5
tp1065
a(S'w'
I733
tp1066
a(S'p1_vo'
I4
tp1067
a(S'w'
I734
tp1068
a(S'p1_vo'
I3
tp1069
a(S'w'
I735
tp1070
a(S'p1_du'
I0
tp1071
a(S'p1_cv'
I0
tp1072
a(S'p1_vo'
I0
tp1073
a(S'w'
I4
tp1074
a(S'p2_du'
I0
tp1075
a(S'p2_vo'
I0
tp1076
a(S'w'
I3
tp1077
a(S'tr_lr'
I0
tp1078
a(S'w'
I38932
tp1079
a.