(lp1
(S'clock'
p2
I1789772
tp3
a(S'p1_ll'
I0
tp4
a(S'p2_ll'
I0
tp5
a(S'tr_ll'
I0
tp6
a(S'no_ll'
I0
tp7
a(S'ch_no'
I1
tp8
a(S'ch_tr'
I1
tp9
a(S'ch_p2'
I1
tp10
a(S'ch_p1'
I1
tp11
a(S'fc_mo'
I1
tp12
a(S'p1_ll'
I0
tp13
a(S'p2_ll'
I0
tp14
a(S'tr_ll'
I0
tp15
a(S'no_ll'
I0
tp16
a(S'tr_lh'
I1
tp17
a(S'tr_lr'
I24
tp18
a(S'w'
I2
tp19
a(S'p2_tl'
I214
tp20
a(S'w'
I1
tp21
a(S'p2_ll'
I1
tp22
a(S'w'
I4
tp23
a(S'p2_du'
I2
tp24
a(S'p2_cv'
I1
tp25
a(S'p2_vo'
I13
tp26
a(S'w'
I1
tp27
a(S'tr_tl'
I172
tp28
a(S'w'
I1
tp29
a(S'tr_ll'
I1
tp30
a(S'tr_th'
I1
tp31
a(S'w'
I1463
tp32
a(S'p2_vo'
I10
tp33
a(S'w'
I1468
tp34
a(S'p2_vo'
I9
tp35
a(S'w'
I1
tp36
a(S'tr_tl'
I0
tp37
a(S'w'
I1
tp38
a(S'tr_ll'
I1
tp39
a(S'tr_th'
I0
tp40
a(S'w'
I729
tp41
a(S'p2_tl'
I107
tp42
a(S'w'
I2
tp43
a(S'p2_ll'
I1
tp44
a(S'w'
I3
tp45
a(S'p2_vo'
I13
tp46
a(S'w'
I2
tp47
a(S'tr_tl'
I1
tp48
a(S'w'
I1
tp49
a(S'tr_ll'
I1
tp50
a(S'w'
I1462
tp51
a(S'p2_vo'
I10
tp52
a(S'w'
I1468
tp53
a(S'p2_vo'
I9
tp54
a(S'w'
I731
tp55
a(S'p2_tl'
I170
tp56
a(S'w'
I1
tp57
a(S'p2_ll'
I1
tp58
a(S'w'
I4
tp59
a(S'p2_vo'
I13
tp60
a(S'w'
I1
tp61
a(S'tr_tl'
I214
tp62
a(S'w'
I2
tp63
a(S'tr_ll'
I1
tp64
a(S'w'
I1462
tp65
a(S'p2_vo'
I10
tp66
a(S'w'
I1468
tp67
a(S'p2_vo'
I9
tp68
a(S'w'
I1
tp69
a(S'tr_tl'
I0
tp70
a(S'w'
I1
tp71
a(S'tr_ll'
I1
tp72
a(S'w'
I729
tp73
a(S'p2_tl'
I85
tp74
a(S'w'
I1
tp75
a(S'p2_ll'
I1
tp76
a(S'w'
I4
tp77
a(S'p2_vo'
I13
tp78
a(S'w'
I1
tp79
a(S'tr_tl'
I1
tp80
a(S'w'
I2
tp81
a(S'tr_ll'
I1
tp82
a(S'w'
I1462
tp83
a(S'p2_vo'
I10
tp84
a(S'w'
I1468
tp85
a(S'p2_vo'
I9
tp86
a(S'w'
I731
tp87
a(S'p2_tl'
I143
tp88
a(S'w'
I1
tp89
a(S'p2_ll'
I1
tp90
a(S'w'
I4
tp91
a(S'p2_vo'
I13
tp92
a(S'w'
I4
tp93
a(S'tr_tl'
I172
tp94
a(S'w'
I1
tp95
a(S'tr_ll'
I1
tp96
a(S'tr_th'
I1
tp97
a(S'w'
I1460
tp98
a(S'p2_vo'
I10
tp99
a(S'w'
I1468
tp100
a(S'p2_vo'
I9
tp101
a(S'w'
I1
tp102
a(S'tr_tl'
I0
tp103
a(S'w'
I1
tp104
a(S'tr_ll'
I1
tp105
a(S'tr_th'
I0
tp106
a(S'w'
I729
tp107
a(S'p2_tl'
I71
tp108
a(S'w'
I2
tp109
a(S'p2_ll'
I1
tp110
a(S'w'
I3
tp111
a(S'p2_vo'
I13
tp112
a(S'w'
I2
tp113
a(S'tr_tl'
I1
tp114
a(S'w'
I1
tp115
a(S'tr_ll'
I1
tp116
a(S'w'
I1462
tp117
a(S'p2_vo'
I10
tp118
a(S'w'
I1467
tp119
a(S'p2_vo'
I9
tp120
a(S'w'
I732
tp121
a(S'p2_tl'
I107
tp122
a(S'w'
I2
tp123
a(S'p2_ll'
I1
tp124
a(S'w'
I3
tp125
a(S'p2_vo'
I13
tp126
a(S'w'
I2
tp127
a(S'tr_tl'
I214
tp128
a(S'w'
I1
tp129
a(S'tr_ll'
I1
tp130
a(S'w'
I1462
tp131
a(S'p2_vo'
I10
tp132
a(S'w'
I1467
tp133
a(S'p2_vo'
I9
tp134
a(S'w'
I1
tp135
a(S'tr_tl'
I0
tp136
a(S'w'
I1
tp137
a(S'tr_ll'
I1
tp138
a(S'w'
I730
tp139
a(S'p2_tl'
I53
tp140
a(S'w'
I1
tp141
a(S'p2_ll'
I1
tp142
a(S'w'
I4
tp143
a(S'p2_vo'
I13
tp144
a(S'w'
I1
tp145
a(S'tr_tl'
I1
tp146
a(S'w'
I2
tp147
a(S'tr_ll'
I1
tp148
a(S'w'
I1462
tp149
a(S'p2_vo'
I10
tp150
a(S'w'
I1467
tp151
a(S'p2_vo'
I9
tp152
a(S'w'
I732
tp153
a(S'p2_tl'
I107
tp154
a(S'w'
I1
tp155
a(S'p2_ll'
I1
tp156
a(S'w'
I4
tp157
a(S'p2_vo'
I13
tp158
a(S'w'
I4
tp159
a(S'tr_tl'
I172
tp160
a(S'w'
I1
tp161
a(S'tr_ll'
I1
tp162
a(S'tr_th'
I1
tp163
a(S'w'
I1460
tp164
a(S'p2_vo'
I10
tp165
a(S'w'
I1467
tp166
a(S'p2_vo'
I9
tp167
a(S'w'
I1
tp168
a(S'tr_tl'
I0
tp169
a(S'w'
I1
tp170
a(S'tr_ll'
I1
tp171
a(S'tr_th'
I0
tp172
a(S'w'
I730
tp173
a(S'p2_tl'
I53
tp174
a(S'w'
I1
tp175
a(S'p2_ll'
I1
tp176
a(S'w'
I4
tp177
a(S'p2_vo'
I13
tp178
a(S'w'
I1
tp179
a(S'tr_tl'
I1
tp180
a(S'w'
I2
tp181
a(S'tr_ll'
I1
tp182
a(S'w'
I1462
tp183
a(S'p2_vo'
I10
tp184
a(S'w'
I1467
tp185
a(S'p2_vo'
I9
tp186
a(S'w'
I732
tp187
a(S'p2_tl'
I143
tp188
a(S'w'
I2
tp189
a(S'p2_ll'
I1
tp190
a(S'w'
I3
tp191
a(S'p2_vo'
I13
tp192
a(S'w'
I2
tp193
a(S'tr_tl'
I214
tp194
a(S'w'
I1
tp195
a(S'tr_ll'
I1
tp196
a(S'w'
I1462
tp197
a(S'p2_vo'
I10
tp198
a(S'w'
I1467
tp199
a(S'p2_vo'
I9
tp200
a(S'w'
I1
tp201
a(S'tr_tl'
I0
tp202
a(S'w'
I1
tp203
a(S'tr_ll'
I1
tp204
a(S'w'
I730
tp205
a(S'p2_tl'
I71
tp206
a(S'w'
I2
tp207
a(S'p2_ll'
I1
tp208
a(S'w'
I3
tp209
a(S'p2_vo'
I13
tp210
a(S'w'
I2
tp211
a(S'tr_tl'
I1
tp212
a(S'w'
I1
tp213
a(S'tr_ll'
I1
tp214
a(S'w'
I1462
tp215
a(S'p2_vo'
I10
tp216
a(S'w'
I1467
tp217
a(S'p2_vo'
I9
tp218
a(S'w'
I732
tp219
a(S'p2_tl'
I170
tp220
a(S'w'
I1
tp221
a(S'p2_ll'
I1
tp222
a(S'w'
I4
tp223
a(S'p2_vo'
I13
tp224
a(S'w'
I4
tp225
a(S'tr_tl'
I172
tp226
a(S'w'
I1
tp227
a(S'tr_ll'
I1
tp228
a(S'tr_th'
I1
tp229
a(S'w'
I1460
tp230
a(S'p2_vo'
I10
tp231
a(S'w'
I1467
tp232
a(S'p2_vo'
I9
tp233
a(S'w'
I1
tp234
a(S'tr_tl'
I0
tp235
a(S'w'
I1
tp236
a(S'tr_ll'
I1
tp237
a(S'tr_th'
I0
tp238
a(S'w'
I730
tp239
a(S'p2_tl'
I85
tp240
a(S'w'
I1
tp241
a(S'p2_ll'
I1
tp242
a(S'w'
I4
tp243
a(S'p2_vo'
I13
tp244
a(S'w'
I1
tp245
a(S'tr_tl'
I1
tp246
a(S'w'
I2
tp247
a(S'tr_ll'
I1
tp248
a(S'w'
I1462
tp249
a(S'p2_vo'
I10
tp250
a(S'w'
I1467
tp251
a(S'p2_vo'
I9
tp252
a(S'w'
I732
tp253
a(S'p2_tl'
I214
tp254
a(S'w'
I1
tp255
a(S'p2_ll'
I1
tp256
a(S'w'
I4
tp257
a(S'p2_vo'
I13
tp258
a(S'w'
I1
tp259
a(S'tr_tl'
I214
tp260
a(S'w'
I2
tp261
a(S'tr_ll'
I1
tp262
a(S'w'
I1462
tp263
a(S'p2_vo'
I10
tp264
a(S'w'
I1467
tp265
a(S'p2_vo'
I9
tp266
a(S'w'
I1
tp267
a(S'tr_tl'
I0
tp268
a(S'w'
I1
tp269
a(S'tr_ll'
I1
tp270
a(S'w'
I730
tp271
a(S'p2_tl'
I107
tp272
a(S'w'
I2
tp273
a(S'p2_ll'
I1
tp274
a(S'w'
I3
tp275
a(S'p2_vo'
I13
tp276
a(S'w'
I2
tp277
a(S'tr_tl'
I1
tp278
a(S'w'
I1
tp279
a(S'tr_ll'
I1
tp280
a(S'w'
I1461
tp281
a(S'p2_vo'
I10
tp282
a(S'w'
I1468
tp283
a(S'p2_vo'
I9
tp284
a(S'w'
I735
tp285
a(S'p2_tl'
I190
tp286
a(S'w'
I1
tp287
a(S'p2_ll'
I1
tp288
a(S'w'
I3
tp289
a(S'p2_vo'
I13
tp290
a(S'w'
I4
tp291
a(S'tr_tl'
I125
tp292
a(S'w'
I1
tp293
a(S'tr_ll'
I1
tp294
a(S'tr_th'
I1
tp295
a(S'w'
I1457
tp296
a(S'p2_vo'
I10
tp297
a(S'w'
I1468
tp298
a(S'p2_vo'
I9
tp299
a(S'w'
I1
tp300
a(S'tr_tl'
I0
tp301
a(S'w'
I1
tp302
a(S'tr_ll'
I1
tp303
a(S'tr_th'
I0
tp304
a(S'w'
I730
tp305
a(S'p2_tl'
I95
tp306
a(S'w'
I1
tp307
a(S'p2_ll'
I1
tp308
a(S'w'
I4
tp309
a(S'p2_vo'
I13
tp310
a(S'w'
I1
tp311
a(S'tr_tl'
I1
tp312
a(S'w'
I2
tp313
a(S'tr_ll'
I1
tp314
a(S'w'
I1461
tp315
a(S'p2_vo'
I10
tp316
a(S'w'
I1468
tp317
a(S'p2_vo'
I9
tp318
a(S'w'
I732
tp319
a(S'p2_tl'
I160
tp320
a(S'w'
I1
tp321
a(S'p2_ll'
I1
tp322
a(S'w'
I4
tp323
a(S'p2_vo'
I13
tp324
a(S'w'
I1
tp325
a(S'tr_tl'
I190
tp326
a(S'w'
I2
tp327
a(S'tr_ll'
I1
tp328
a(S'w'
I1461
tp329
a(S'p2_vo'
I10
tp330
a(S'w'
I1468
tp331
a(S'p2_vo'
I9
tp332
a(S'w'
I1
tp333
a(S'tr_tl'
I0
tp334
a(S'w'
I1
tp335
a(S'tr_ll'
I1
tp336
a(S'w'
I730
tp337
a(S'p2_tl'
I80
tp338
a(S'w'
I1
tp339
a(S'p2_ll'
I1
tp340
a(S'w'
I4
tp341
a(S'p2_vo'
I13
tp342
a(S'w'
I1
tp343
a(S'tr_tl'
I1
tp344
a(S'w'
I2
tp345
a(S'tr_ll'
I1
tp346
a(S'w'
I1461
tp347
a(S'p2_vo'
I10
tp348
a(S'w'
I1468
tp349
a(S'p2_vo'
I9
tp350
a(S'w'
I732
tp351
a(S'p2_tl'
I127
tp352
a(S'w'
I2
tp353
a(S'p2_ll'
I1
tp354
a(S'w'
I3
tp355
a(S'p2_vo'
I13
tp356
a(S'w'
I4
tp357
a(S'tr_tl'
I125
tp358
a(S'w'
I1
tp359
a(S'tr_ll'
I1
tp360
a(S'tr_th'
I1
tp361
a(S'w'
I1459
tp362
a(S'p2_vo'
I10
tp363
a(S'w'
I1468
tp364
a(S'p2_vo'
I9
tp365
a(S'w'
I1
tp366
a(S'tr_tl'
I0
tp367
a(S'w'
I1
tp368
a(S'tr_ll'
I1
tp369
a(S'tr_th'
I0
tp370
a(S'w'
I730
tp371
a(S'p2_tl'
I64
tp372
a(S'w'
I2
tp373
a(S'p2_ll'
I1
tp374
a(S'w'
I3
tp375
a(S'p2_vo'
I13
tp376
a(S'w'
I2
tp377
a(S'tr_tl'
I1
tp378
a(S'w'
I1
tp379
a(S'tr_ll'
I1
tp380
a(S'w'
I1461
tp381
a(S'p2_vo'
I10
tp382
a(S'w'
I1468
tp383
a(S'p2_vo'
I9
tp384
a(S'w'
I732
tp385
a(S'p2_tl'
I95
tp386
a(S'w'
I1
tp387
a(S'p2_ll'
I1
tp388
a(S'w'
I4
tp389
a(S'p2_vo'
I13
tp390
a(S'w'
I1
tp391
a(S'tr_tl'
I190
tp392
a(S'w'
I2
tp393
a(S'tr_ll'
I1
tp394
a(S'w'
I1461
tp395
a(S'p2_vo'
I10
tp396
a(S'w'
I1468
tp397
a(S'p2_vo'
I9
tp398
a(S'w'
I1
tp399
a(S'tr_tl'
I0
tp400
a(S'w'
I1
tp401
a(S'tr_ll'
I1
tp402
a(S'w'
I730
tp403
a(S'p2_tl'
I48
tp404
a(S'w'
I1
tp405
a(S'p2_ll'
I1
tp406
a(S'w'
I4
tp407
a(S'p2_vo'
I13
tp408
a(S'w'
I1
tp409
a(S'tr_tl'
I1
tp410
a(S'w'
I2
tp411
a(S'tr_ll'
I1
tp412
a(S'w'
I1461
tp413
a(S'p2_vo'
I10
tp414
a(S'w'
I1468
tp415
a(S'p2_vo'
I9
tp416
a(S'w'
I732
tp417
a(S'p2_tl'
I95
tp418
a(S'w'
I1
tp419
a(S'p2_ll'
I1
tp420
a(S'w'
I4
tp421
a(S'p2_vo'
I13
tp422
a(S'w'
I4
tp423
a(S'tr_tl'
I125
tp424
a(S'w'
I1
tp425
a(S'tr_ll'
I1
tp426
a(S'tr_th'
I1
tp427
a(S'w'
I1459
tp428
a(S'p2_vo'
I10
tp429
a(S'w'
I1468
tp430
a(S'p2_vo'
I9
tp431
a(S'w'
I1
tp432
a(S'tr_tl'
I0
tp433
a(S'w'
I1
tp434
a(S'tr_ll'
I1
tp435
a(S'tr_th'
I0
tp436
a(S'w'
I729
tp437
a(S'p2_tl'
I48
tp438
a(S'w'
I1
tp439
a(S'p2_ll'
I1
tp440
a(S'w'
I4
tp441
a(S'p2_vo'
I13
tp442
a(S'w'
I1
tp443
a(S'tr_tl'
I1
tp444
a(S'w'
I2
tp445
a(S'tr_ll'
I1
tp446
a(S'w'
I1462
tp447
a(S'p2_vo'
I10
tp448
a(S'w'
I1468
tp449
a(S'p2_vo'
I9
tp450
a(S'w'
I731
tp451
a(S'p2_tl'
I127
tp452
a(S'w'
I1
tp453
a(S'p2_ll'
I1
tp454
a(S'w'
I4
tp455
a(S'p2_vo'
I13
tp456
a(S'w'
I1
tp457
a(S'tr_tl'
I190
tp458
a(S'w'
I2
tp459
a(S'tr_ll'
I1
tp460
a(S'w'
I1462
tp461
a(S'p2_vo'
I10
tp462
a(S'w'
I1468
tp463
a(S'p2_vo'
I9
tp464
a(S'w'
I1
tp465
a(S'tr_tl'
I0
tp466
a(S'w'
I1
tp467
a(S'tr_ll'
I1
tp468
a(S'w'
I729
tp469
a(S'p2_tl'
I64
tp470
a(S'w'
I1
tp471
a(S'p2_ll'
I1
tp472
a(S'w'
I4
tp473
a(S'p2_vo'
I13
tp474
a(S'w'
I1
tp475
a(S'tr_tl'
I1
tp476
a(S'w'
I2
tp477
a(S'tr_ll'
I1
tp478
a(S'w'
I1462
tp479
a(S'p2_vo'
I10
tp480
a(S'w'
I1468
tp481
a(S'p2_vo'
I9
tp482
a(S'w'
I731
tp483
a(S'p2_tl'
I160
tp484
a(S'w'
I2
tp485
a(S'p2_ll'
I1
tp486
a(S'w'
I3
tp487
a(S'p2_vo'
I13
tp488
a(S'w'
I4
tp489
a(S'tr_tl'
I125
tp490
a(S'w'
I1
tp491
a(S'tr_ll'
I1
tp492
a(S'tr_th'
I1
tp493
a(S'w'
I1460
tp494
a(S'p2_vo'
I10
tp495
a(S'w'
I1468
tp496
a(S'p2_vo'
I9
tp497
a(S'w'
I1
tp498
a(S'tr_tl'
I0
tp499
a(S'w'
I1
tp500
a(S'tr_ll'
I1
tp501
a(S'tr_th'
I0
tp502
a(S'w'
I729
tp503
a(S'p2_tl'
I80
tp504
a(S'w'
I1
tp505
a(S'p2_ll'
I1
tp506
a(S'w'
I4
tp507
a(S'p2_vo'
I13
tp508
a(S'w'
I2
tp509
a(S'tr_tl'
I1
tp510
a(S'w'
I1
tp511
a(S'tr_ll'
I1
tp512
a(S'w'
I1462
tp513
a(S'p2_vo'
I10
tp514
a(S'w'
I1467
tp515
a(S'p2_vo'
I9
tp516
a(S'w'
I732
tp517
a(S'p2_tl'
I190
tp518
a(S'w'
I1
tp519
a(S'p2_ll'
I1
tp520
a(S'w'
I4
tp521
a(S'p2_vo'
I13
tp522
a(S'w'
I1
tp523
a(S'tr_tl'
I190
tp524
a(S'w'
I2
tp525
a(S'tr_ll'
I1
tp526
a(S'w'
I1462
tp527
a(S'p2_vo'
I10
tp528
a(S'w'
I1467
tp529
a(S'p2_vo'
I9
tp530
a(S'w'
I1
tp531
a(S'tr_tl'
I0
tp532
a(S'w'
I1
tp533
a(S'tr_ll'
I1
tp534
a(S'w'
I730
tp535
a(S'p2_tl'
I95
tp536
a(S'w'
I1
tp537
a(S'p2_ll'
I1
tp538
a(S'w'
I4
tp539
a(S'p2_vo'
I13
tp540
a(S'w'
I1
tp541
a(S'tr_tl'
I1
tp542
a(S'w'
I2
tp543
a(S'tr_ll'
I1
tp544
a(S'w'
I1462
tp545
a(S'p2_vo'
I10
tp546
a(S'w'
I1467
tp547
a(S'p2_vo'
I9
tp548
a(S'w'
I735
tp549
a(S'p2_tl'
I170
tp550
a(S'w'
I1
tp551
a(S'p2_ll'
I1
tp552
a(S'w'
I3
tp553
a(S'p2_vo'
I13
tp554
a(S'w'
I4
tp555
a(S'tr_tl'
I83
tp556
a(S'w'
I1
tp557
a(S'tr_ll'
I1
tp558
a(S'tr_th'
I1
tp559
a(S'w'
I1458
tp560
a(S'p2_vo'
I10
tp561
a(S'w'
I1467
tp562
a(S'p2_vo'
I9
tp563
a(S'w'
I1
tp564
a(S'tr_tl'
I0
tp565
a(S'w'
I1
tp566
a(S'tr_ll'
I1
tp567
a(S'tr_th'
I0
tp568
a(S'w'
I730
tp569
a(S'p2_tl'
I85
tp570
a(S'w'
I2
tp571
a(S'p2_ll'
I1
tp572
a(S'w'
I3
tp573
a(S'p2_vo'
I13
tp574
a(S'w'
I2
tp575
a(S'tr_tl'
I1
tp576
a(S'w'
I1
tp577
a(S'tr_ll'
I1
tp578
a(S'w'
I1462
tp579
a(S'p2_vo'
I10
tp580
a(S'w'
I1467
tp581
a(S'p2_vo'
I9
tp582
a(S'w'
I732
tp583
a(S'p2_tl'
I143
tp584
a(S'w'
I1
tp585
a(S'p2_ll'
I1
tp586
a(S'w'
I4
tp587
a(S'p2_vo'
I13
tp588
a(S'w'
I2
tp589
a(S'tr_tl'
I170
tp590
a(S'w'
I1
tp591
a(S'tr_ll'
I1
tp592
a(S'w'
I1462
tp593
a(S'p2_vo'
I10
tp594
a(S'w'
I1467
tp595
a(S'p2_vo'
I9
tp596
a(S'w'
I1
tp597
a(S'tr_tl'
I0
tp598
a(S'w'
I1
tp599
a(S'tr_ll'
I1
tp600
a(S'w'
I730
tp601
a(S'p2_tl'
I71
tp602
a(S'w'
I1
tp603
a(S'p2_ll'
I1
tp604
a(S'w'
I4
tp605
a(S'p2_vo'
I13
tp606
a(S'w'
I1
tp607
a(S'tr_tl'
I1
tp608
a(S'w'
I2
tp609
a(S'tr_ll'
I1
tp610
a(S'w'
I1462
tp611
a(S'p2_vo'
I10
tp612
a(S'w'
I1467
tp613
a(S'p2_vo'
I9
tp614
a(S'w'
I732
tp615
a(S'p2_tl'
I113
tp616
a(S'w'
I1
tp617
a(S'p2_ll'
I1
tp618
a(S'w'
I4
tp619
a(S'p2_vo'
I13
tp620
a(S'w'
I4
tp621
a(S'tr_tl'
I83
tp622
a(S'w'
I1
tp623
a(S'tr_ll'
I1
tp624
a(S'tr_th'
I1
tp625
a(S'w'
I1460
tp626
a(S'p2_vo'
I10
tp627
a(S'w'
I1467
tp628
a(S'p2_vo'
I9
tp629
a(S'w'
I1
tp630
a(S'tr_tl'
I0
tp631
a(S'w'
I1
tp632
a(S'tr_ll'
I1
tp633
a(S'tr_th'
I0
tp634
a(S'w'
I730
tp635
a(S'p2_tl'
I57
tp636
a(S'w'
I1
tp637
a(S'p2_ll'
I1
tp638
a(S'w'
I4
tp639
a(S'p2_vo'
I13
tp640
a(S'w'
I1
tp641
a(S'tr_tl'
I1
tp642
a(S'w'
I2
tp643
a(S'tr_ll'
I1
tp644
a(S'w'
I1462
tp645
a(S'p2_vo'
I10
tp646
a(S'w'
I1467
tp647
a(S'p2_vo'
I9
tp648
a(S'w'
I732
tp649
a(S'p2_tl'
I85
tp650
a(S'w'
I2
tp651
a(S'p2_ll'
I1
tp652
a(S'w'
I3
tp653
a(S'p2_vo'
I13
tp654
a(S'w'
I2
tp655
a(S'tr_tl'
I170
tp656
a(S'w'
I1
tp657
a(S'tr_ll'
I1
tp658
a(S'w'
I1462
tp659
a(S'p2_vo'
I10
tp660
a(S'w'
I1467
tp661
a(S'p2_vo'
I9
tp662
a(S'w'
I1
tp663
a(S'tr_tl'
I0
tp664
a(S'w'
I1
tp665
a(S'tr_ll'
I1
tp666
a(S'w'
I730
tp667
a(S'p2_tl'
I42
tp668
a(S'w'
I1
tp669
a(S'p2_ll'
I1
tp670
a(S'w'
I4
tp671
a(S'p2_vo'
I13
tp672
a(S'w'
I2
tp673
a(S'tr_tl'
I1
tp674
a(S'w'
I1
tp675
a(S'tr_ll'
I1
tp676
a(S'w'
I1461
tp677
a(S'p2_vo'
I10
tp678
a(S'w'
I1468
tp679
a(S'p2_vo'
I9
tp680
a(S'w'
I732
tp681
a(S'p2_tl'
I85
tp682
a(S'w'
I1
tp683
a(S'p2_ll'
I1
tp684
a(S'w'
I4
tp685
a(S'p2_vo'
I13
tp686
a(S'w'
I4
tp687
a(S'tr_tl'
I83
tp688
a(S'w'
I1
tp689
a(S'tr_ll'
I1
tp690
a(S'tr_th'
I1
tp691
a(S'w'
I1459
tp692
a(S'p2_vo'
I10
tp693
a(S'w'
I1468
tp694
a(S'p2_vo'
I9
tp695
a(S'w'
I1
tp696
a(S'tr_tl'
I0
tp697
a(S'w'
I1
tp698
a(S'tr_ll'
I1
tp699
a(S'tr_th'
I0
tp700
a(S'w'
I730
tp701
a(S'p2_tl'
I42
tp702
a(S'w'
I1
tp703
a(S'p2_ll'
I1
tp704
a(S'w'
I4
tp705
a(S'p2_vo'
I13
tp706
a(S'w'
I1
tp707
a(S'tr_tl'
I1
tp708
a(S'w'
I2
tp709
a(S'tr_ll'
I1
tp710
a(S'w'
I1461
tp711
a(S'p2_vo'
I10
tp712
a(S'w'
I1468
tp713
a(S'p2_vo'
I9
tp714
a(S'w'
I732
tp715
a(S'p2_tl'
I113
tp716
a(S'w'
I1
tp717
a(S'p2_ll'
I1
tp718
a(S'w'
I4
tp719
a(S'p2_vo'
I13
tp720
a(S'w'
I1
tp721
a(S'tr_tl'
I170
tp722
a(S'w'
I2
tp723
a(S'tr_ll'
I1
tp724
a(S'w'
I1461
tp725
a(S'p2_vo'
I10
tp726
a(S'w'
I1468
tp727
a(S'p2_vo'
I9
tp728
a(S'w'
I1
tp729
a(S'tr_tl'
I0
tp730
a(S'w'
I1
tp731
a(S'tr_ll'
I1
tp732
a(S'w'
I730
tp733
a(S'p2_tl'
I57
tp734
a(S'w'
I2
tp735
a(S'p2_ll'
I1
tp736
a(S'w'
I3
tp737
a(S'p2_vo'
I13
tp738
a(S'w'
I2
tp739
a(S'tr_tl'
I1
tp740
a(S'w'
I1
tp741
a(S'tr_ll'
I1
tp742
a(S'w'
I1461
tp743
a(S'p2_vo'
I10
tp744
a(S'w'
I1468
tp745
a(S'p2_vo'
I9
tp746
a(S'w'
I732
tp747
a(S'p2_tl'
I143
tp748
a(S'w'
I1
tp749
a(S'p2_ll'
I1
tp750
a(S'w'
I4
tp751
a(S'p2_vo'
I13
tp752
a(S'w'
I4
tp753
a(S'tr_tl'
I83
tp754
a(S'w'
I1
tp755
a(S'tr_ll'
I1
tp756
a(S'tr_th'
I1
tp757
a(S'w'
I1459
tp758
a(S'p2_vo'
I10
tp759
a(S'w'
I1468
tp760
a(S'p2_vo'
I9
tp761
a(S'w'
I1
tp762
a(S'tr_tl'
I0
tp763
a(S'w'
I1
tp764
a(S'tr_ll'
I1
tp765
a(S'tr_th'
I0
tp766
a(S'w'
I730
tp767
a(S'p2_tl'
I71
tp768
a(S'w'
I1
tp769
a(S'p2_ll'
I1
tp770
a(S'w'
I4
tp771
a(S'p2_vo'
I13
tp772
a(S'w'
I1
tp773
a(S'tr_tl'
I1
tp774
a(S'w'
I2
tp775
a(S'tr_ll'
I1
tp776
a(S'w'
I1461
tp777
a(S'p2_vo'
I10
tp778
a(S'w'
I1468
tp779
a(S'p2_vo'
I9
tp780
a(S'w'
I732
tp781
a(S'p2_tl'
I170
tp782
a(S'w'
I1
tp783
a(S'p2_ll'
I1
tp784
a(S'w'
I4
tp785
a(S'p2_vo'
I13
tp786
a(S'w'
I1
tp787
a(S'tr_tl'
I170
tp788
a(S'w'
I2
tp789
a(S'tr_ll'
I1
tp790
a(S'w'
I1461
tp791
a(S'p2_vo'
I10
tp792
a(S'w'
I1468
tp793
a(S'p2_vo'
I9
tp794
a(S'w'
I1
tp795
a(S'tr_tl'
I0
tp796
a(S'w'
I1
tp797
a(S'tr_ll'
I1
tp798
a(S'w'
I730
tp799
a(S'p2_tl'
I85
tp800
a(S'w'
I1
tp801
a(S'p2_ll'
I1
tp802
a(S'w'
I4
tp803
a(S'p2_vo'
I13
tp804
a(S'w'
I1
tp805
a(S'tr_tl'
I1
tp806
a(S'w'
I2
tp807
a(S'tr_ll'
I1
tp808
a(S'w'
I1461
tp809
a(S'p2_vo'
I10
tp810
a(S'w'
I1468
tp811
a(S'p2_vo'
I9
tp812
a(S'w'
I735
tp813
a(S'p2_tl'
I190
tp814
a(S'w'
I1
tp815
a(S'p2_ll'
I1
tp816
a(S'w'
I3
tp817
a(S'p2_vo'
I13
tp818
a(S'w'
I4
tp819
a(S'tr_tl'
I125
tp820
a(S'w'
I1
tp821
a(S'tr_ll'
I1
tp822
a(S'tr_th'
I1
tp823
a(S'w'
I1457
tp824
a(S'p2_vo'
I10
tp825
a(S'w'
I1468
tp826
a(S'p2_vo'
I9
tp827
a(S'w'
I1
tp828
a(S'tr_tl'
I0
tp829
a(S'w'
I1
tp830
a(S'tr_ll'
I1
tp831
a(S'tr_th'
I0
tp832
a(S'w'
I729
tp833
a(S'p2_tl'
I95
tp834
a(S'w'
I1
tp835
a(S'p2_ll'
I1
tp836
a(S'w'
I4
tp837
a(S'p2_vo'
I13
tp838
a(S'w'
I1
tp839
a(S'tr_tl'
I1
tp840
a(S'w'
I2
tp841
a(S'tr_ll'
I1
tp842
a(S'w'
I1462
tp843
a(S'p2_vo'
I10
tp844
a(S'w'
I1468
tp845
a(S'p2_vo'
I9
tp846
a(S'w'
I731
tp847
a(S'p2_tl'
I160
tp848
a(S'w'
I1
tp849
a(S'p2_ll'
I1
tp850
a(S'w'
I4
tp851
a(S'p2_vo'
I13
tp852
a(S'w'
I1
tp853
a(S'tr_tl'
I190
tp854
a(S'w'
I2
tp855
a(S'tr_ll'
I1
tp856
a(S'w'
I1462
tp857
a(S'p2_vo'
I10
tp858
a(S'w'
I1468
tp859
a(S'p2_vo'
I9
tp860
a(S'w'
I1
tp861
a(S'tr_tl'
I0
tp862
a(S'w'
I1
tp863
a(S'tr_ll'
I1
tp864
a(S'w'
I729
tp865
a(S'p2_tl'
I80
tp866
a(S'w'
I2
tp867
a(S'p2_ll'
I1
tp868
a(S'w'
I3
tp869
a(S'p2_vo'
I13
tp870
a(S'w'
I2
tp871
a(S'tr_tl'
I1
tp872
a(S'w'
I1
tp873
a(S'tr_ll'
I1
tp874
a(S'w'
I1462
tp875
a(S'p2_vo'
I10
tp876
a(S'w'
I1468
tp877
a(S'p2_vo'
I9
tp878
a(S'w'
I731
tp879
a(S'p2_tl'
I127
tp880
a(S'w'
I1
tp881
a(S'p2_ll'
I1
tp882
a(S'w'
I4
tp883
a(S'p2_vo'
I13
tp884
a(S'w'
I4
tp885
a(S'tr_tl'
I125
tp886
a(S'w'
I1
tp887
a(S'tr_ll'
I1
tp888
a(S'tr_th'
I1
tp889
a(S'w'
I1460
tp890
a(S'p2_vo'
I10
tp891
a(S'w'
I1468
tp892
a(S'p2_vo'
I9
tp893
a(S'w'
I1
tp894
a(S'tr_tl'
I0
tp895
a(S'w'
I1
tp896
a(S'tr_ll'
I1
tp897
a(S'tr_th'
I0
tp898
a(S'w'
I729
tp899
a(S'p2_tl'
I64
tp900
a(S'w'
I1
tp901
a(S'p2_ll'
I1
tp902
a(S'w'
I4
tp903
a(S'p2_vo'
I13
tp904
a(S'w'
I1
tp905
a(S'tr_tl'
I1
tp906
a(S'w'
I2
tp907
a(S'tr_ll'
I1
tp908
a(S'w'
I1462
tp909
a(S'p2_vo'
I10
tp910
a(S'w'
I1467
tp911
a(S'p2_vo'
I9
tp912
a(S'w'
I732
tp913
a(S'p2_tl'
I95
tp914
a(S'w'
I1
tp915
a(S'p2_ll'
I1
tp916
a(S'w'
I4
tp917
a(S'p2_vo'
I13
tp918
a(S'w'
I1
tp919
a(S'tr_tl'
I190
tp920
a(S'w'
I2
tp921
a(S'tr_ll'
I1
tp922
a(S'w'
I1462
tp923
a(S'p2_vo'
I10
tp924
a(S'w'
I1467
tp925
a(S'p2_vo'
I9
tp926
a(S'w'
I1
tp927
a(S'tr_tl'
I0
tp928
a(S'w'
I1
tp929
a(S'tr_ll'
I1
tp930
a(S'w'
I730
tp931
a(S'p2_tl'
I48
tp932
a(S'w'
I1
tp933
a(S'p2_ll'
I1
tp934
a(S'w'
I4
tp935
a(S'p2_vo'
I13
tp936
a(S'w'
I1
tp937
a(S'tr_tl'
I1
tp938
a(S'w'
I2
tp939
a(S'tr_ll'
I1
tp940
a(S'w'
I1462
tp941
a(S'p2_vo'
I10
tp942
a(S'w'
I1467
tp943
a(S'p2_vo'
I9
tp944
a(S'w'
I732
tp945
a(S'p2_tl'
I95
tp946
a(S'w'
I2
tp947
a(S'p2_ll'
I1
tp948
a(S'w'
I3
tp949
a(S'p2_vo'
I13
tp950
a(S'w'
I4
tp951
a(S'tr_tl'
I125
tp952
a(S'w'
I1
tp953
a(S'tr_ll'
I1
tp954
a(S'tr_th'
I1
tp955
a(S'w'
I1460
tp956
a(S'p2_vo'
I10
tp957
a(S'w'
I1467
tp958
a(S'p2_vo'
I9
tp959
a(S'w'
I1
tp960
a(S'tr_tl'
I0
tp961
a(S'w'
I1
tp962
a(S'tr_ll'
I1
tp963
a(S'tr_th'
I0
tp964
a(S'w'
I730
tp965
a(S'p2_tl'
I48
tp966
a(S'w'
I1
tp967
a(S'p2_ll'
I1
tp968
a(S'w'
I4
tp969
a(S'p2_vo'
I13
tp970
a(S'w'
I1
tp971
a(S'tr_tl'
I1
tp972
a(S'w'
I2
tp973
a(S'tr_ll'
I1
tp974
a(S'w'
I1462
tp975
a(S'p2_vo'
I10
tp976
a(S'w'
I1467
tp977
a(S'p2_vo'
I9
tp978
a(S'w'
I732
tp979
a(S'p2_tl'
I127
tp980
a(S'w'
I1
tp981
a(S'p2_ll'
I1
tp982
a(S'w'
I4
tp983
a(S'p2_vo'
I13
tp984
a(S'w'
I1
tp985
a(S'tr_tl'
I190
tp986
a(S'w'
I2
tp987
a(S'tr_ll'
I1
tp988
a(S'w'
I1462
tp989
a(S'p2_vo'
I10
tp990
a(S'w'
I1467
tp991
a(S'p2_vo'
I9
tp992
a(S'w'
I1
tp993
a(S'tr_tl'
I0
tp994
a(S'w'
I1
tp995
a(S'tr_ll'
I1
tp996
a(S'w'
I730
tp997
a(S'p2_tl'
I64
tp998
a(S'w'
I1
tp999
a(S'p2_ll'
I1
tp1000
a(S'w'
I4
tp1001
a(S'p2_vo'
I13
tp1002
a(S'w'
I1
tp1003
a(S'tr_tl'
I1
tp1004
a(S'w'
I2
tp1005
a(S'tr_ll'
I1
tp1006
a(S'w'
I1462
tp1007
a(S'p2_vo'
I10
tp1008
a(S'w'
I1467
tp1009
a(S'p2_vo'
I9
tp1010
a(S'w'
I732
tp1011
a(S'p2_tl'
I160
tp1012
a(S'w'
I1
tp1013
a(S'p2_ll'
I1
tp1014
a(S'w'
I4
tp1015
a(S'p2_vo'
I13
tp1016
a(S'w'
I4
tp1017
a(S'tr_tl'
I125
tp1018
a(S'w'
I1
tp1019
a(S'tr_ll'
I1
tp1020
a(S'tr_th'
I1
tp1021
a(S'w'
I1460
tp1022
a(S'p2_vo'
I10
tp1023
a(S'w'
I1467
tp1024
a(S'p2_vo'
I9
tp1025
a(S'w'
I1
tp1026
a(S'tr_tl'
I0
tp1027
a(S'w'
I1
tp1028
a(S'tr_ll'
I1
tp1029
a(S'tr_th'
I0
tp1030
a(S'w'
I730
tp1031
a(S'p2_tl'
I80
tp1032
a(S'w'
I2
tp1033
a(S'p2_ll'
I1
tp1034
a(S'w'
I3
tp1035
a(S'p2_vo'
I13
tp1036
a(S'w'
I2
tp1037
a(S'tr_tl'
I1
tp1038
a(S'w'
I1
tp1039
a(S'tr_ll'
I1
tp1040
a(S'w'
I1462
tp1041
a(S'p2_vo'
I10
tp1042
a(S'w'
I1467
tp1043
a(S'p2_vo'
I9
tp1044
a(S'w'
I732
tp1045
a(S'p2_tl'
I190
tp1046
a(S'w'
I1
tp1047
a(S'p2_ll'
I1
tp1048
a(S'w'
I4
tp1049
a(S'p2_vo'
I13
tp1050
a(S'w'
I1
tp1051
a(S'tr_tl'
I190
tp1052
a(S'w'
I2
tp1053
a(S'tr_ll'
I1
tp1054
a(S'w'
I1462
tp1055
a(S'p2_vo'
I10
tp1056
a(S'w'
I1467
tp1057
a(S'p2_vo'
I9
tp1058
a(S'w'
I1
tp1059
a(S'tr_tl'
I0
tp1060
a(S'w'
I1
tp1061
a(S'tr_ll'
I1
tp1062
a(S'w'
I730
tp1063
a(S'p2_tl'
I95
tp1064
a(S'w'
I1
tp1065
a(S'p2_ll'
I1
tp1066
a(S'w'
I4
tp1067
a(S'p2_vo'
I13
tp1068
a(S'w'
I1
tp1069
a(S'tr_tl'
I1
tp1070
a(S'w'
I2
tp1071
a(S'tr_ll'
I1
tp1072
a(S'w'
I1461
tp1073
a(S'p2_vo'
I10
tp1074
a(S'w'
I1468
tp1075
a(S'p2_vo'
I9
tp1076
a(S'w'
I738
tp1077
a.