(lp1
(S'clock'
p2
I1789772
tp3
a(S'ch_no'
I1
tp4
a(S'ch_tr'
I1
tp5
a(S'ch_p2'
I1
tp6
a(S'ch_p1'
I1
tp7
a(S'p1_du'
I2
tp8
a(S'p1_lh'
I1
tp9
a(S'p1_cv'
I1
tp10
a(S'p1_vo'
I7
tp11
a(S'p2_du'
I2
tp12
a(S'p2_lh'
I1
tp13
a(S'p2_cv'
I1
tp14
a(S'p2_vo'
I7
tp15
a(S'tr_lh'
I1
tp16
a(S'tr_lr'
I96
tp17
a(S'no_vo'
I1
tp18
a(S'w'
I5
tp19
a(S'p1_tl'
I13
tp20
a(S'p1_ll'
I8
tp21
a(S'p1_th'
I1
tp22
a(S'w'
I5
tp23
a(S'p2_tl'
I104
tp24
a(S'p2_ll'
I8
tp25
a(S'p2_th'
I1
tp26
a(S'w'
I5
tp27
a(S'tr_tl'
I13
tp28
a(S'tr_ll'
I8
tp29
a(S'tr_th'
I1
tp30
a(S'w'
I70435
tp31
a(S'p1_tl'
I254
tp32
a(S'p1_ll'
I8
tp33
a(S'p1_th'
I0
tp34
a(S'w'
I5
tp35
a(S'p2_tl'
I46
tp36
a(S'p2_ll'
I8
tp37
a(S'w'
I5
tp38
a(S'tr_tl'
I125
tp39
a(S'tr_ll'
I8
tp40
a(S'w'
I52823
tp41
a(S'p1_tl'
I125
tp42
a(S'p1_ll'
I8
tp43
a(S'p1_th'
I1
tp44
a(S'w'
I6
tp45
a(S'tr_tl'
I0
tp46
a(S'tr_ll'
I8
tp47
a(S'tr_th'
I0
tp48
a(S'w'
I8799
tp49
a(S'p1_ll'
I8
tp50
a(S'w'
I8806
tp51
a(S'p1_tl'
I29
tp52
a(S'p1_ll'
I8
tp53
a(S'w'
I5
tp54
a(S'p2_tl'
I125
tp55
a(S'p2_ll'
I8
tp56
a(S'w'
I5
tp57
a(S'tr_tl'
I29
tp58
a(S'tr_ll'
I8
tp59
a(S'tr_th'
I1
tp60
a(S'w'
I17601
tp61
a(S'p1_ll'
I8
tp62
a(S'w'
I5870
tp63
a(S'p1_tl'
I254
tp64
a(S'p1_ll'
I8
tp65
a(S'p1_th'
I0
tp66
a(S'w'
I5870
tp67
a(S'p1_ll'
I8
tp68
a(S'w'
I5871
tp69
a(S'p1_tl'
I240
tp70
a(S'p1_ll'
I8
tp71
a(S'w'
I17611
tp72
a(S'p1_tl'
I29
tp73
a(S'p1_ll'
I8
tp74
a(S'p1_th'
I1
tp75
a(S'w'
I17611
tp76
a(S'p1_tl'
I214
tp77
a(S'p1_ll'
I8
tp78
a(S'p1_th'
I0
tp79
a(S'w'
I5
tp80
a(S'p2_tl'
I172
tp81
a(S'p2_ll'
I8
tp82
a(S'w'
I5
tp83
a(S'tr_tl'
I64
tp84
a(S'tr_ll'
I8
tp85
a(S'w'
I26406
tp86
a(S'p1_tl'
I254
tp87
a(S'p1_ll'
I8
tp88
a(S'w'
I8806
tp89
a(S'p1_tl'
I64
tp90
a(S'p1_ll'
I8
tp91
a(S'p1_th'
I1
tp92
a(S'w'
I17611
tp93
a(S'p1_ll'
I8
tp94
a(S'w'
I8805
tp95
a(S'p1_tl'
I254
tp96
a(S'p1_ll'
I8
tp97
a(S'p1_th'
I0
tp98
a(S'w'
I8806
tp99
a(S'p1_tl'
I29
tp100
a(S'p1_ll'
I8
tp101
a(S'p1_th'
I1
tp102
a(S'w'
I5
tp103
a(S'p2_tl'
I125
tp104
a(S'p2_ll'
I8
tp105
a(S'w'
I5
tp106
a(S'tr_tl'
I29
tp107
a(S'tr_ll'
I8
tp108
a(S'w'
I17601
tp109
a(S'p1_ll'
I8
tp110
a(S'w'
I5870
tp111
a(S'p1_tl'
I46
tp112
a(S'p1_ll'
I8
tp113
a(S'w'
I5870
tp114
a(S'p1_tl'
I29
tp115
a(S'p1_ll'
I8
tp116
a(S'w'
I5871
tp117
a(S'p1_tl'
I254
tp118
a(S'p1_ll'
I8
tp119
a(S'p1_th'
I0
tp120
a(S'w'
I5
tp121
a(S'p2_tl'
I172
tp122
a(S'p2_ll'
I8
tp123
a(S'w'
I5
tp124
a(S'tr_tl'
I64
tp125
a(S'tr_ll'
I8
tp126
a(S'w'
I17601
tp127
a(S'p1_ll'
I8
tp128
a(S'w'
I5870
tp129
a(S'p1_tl'
I29
tp130
a(S'p1_ll'
I8
tp131
a(S'p1_th'
I1
tp132
a(S'w'
I5870
tp133
a(S'p1_tl'
I254
tp134
a(S'p1_ll'
I8
tp135
a(S'p1_th'
I0
tp136
a(S'w'
I5870
tp137
a(S'p1_tl'
I240
tp138
a(S'p1_ll'
I8
tp139
a(S'w'
I5
tp140
a(S'p2_tl'
I104
tp141
a(S'p2_ll'
I8
tp142
a(S'w'
I5
tp143
a(S'tr_tl'
I104
tp144
a(S'tr_ll'
I8
tp145
a(S'w'
I5861
tp146
a(S'p1_tl'
I254
tp147
a(S'p1_ll'
I8
tp148
a(S'w'
I5870
tp149
a(S'p1_tl'
I240
tp150
a(S'p1_ll'
I8
tp151
a(S'w'
I5870
tp152
a(S'p1_tl'
I214
tp153
a(S'p1_ll'
I8
tp154
a(S'w'
I5
tp155
a(S'p2_tl'
I172
tp156
a(S'p2_ll'
I8
tp157
a(S'w'
I5
tp158
a(S'tr_tl'
I64
tp159
a(S'tr_ll'
I8
tp160
a(S'w'
I5861
tp161
a(S'p1_tl'
I240
tp162
a(S'p1_ll'
I8
tp163
a(S'w'
I5870
tp164
a(S'p1_tl'
I214
tp165
a(S'p1_ll'
I8
tp166
a(S'w'
I5870
tp167
a(S'p1_tl'
I190
tp168
a(S'p1_ll'
I8
tp169
a(S'w'
I5
tp170
a(S'p2_tl'
I224
tp171
a(S'p2_ll'
I8
tp172
a(S'w'
I5
tp173
a(S'tr_tl'
I29
tp174
a(S'tr_ll'
I8
tp175
a(S'w'
I17601
tp176
a(S'p1_ll'
I8
tp177
a(S'w'
I5
tp178
a(S'p2_tl'
I197
tp179
a(S'p2_ll'
I8
tp180
a(S'w'
I17606
tp181
a(S'p1_tl'
I180
tp182
a(S'p1_ll'
I8
tp183
a(S'w'
I5
tp184
a(S'p2_tl'
I172
tp185
a(S'p2_ll'
I8
tp186
a(S'w'
I5
tp187
a(S'tr_tl'
I172
tp188
a(S'tr_ll'
I8
tp189
a(S'w'
I26407
tp190
a(S'p1_tl'
I190
tp191
a(S'p1_ll'
I8
tp192
a(S'w'
I8805
tp193
a(S'p1_tl'
I214
tp194
a(S'p1_ll'
I8
tp195
a(S'w'
I8806
tp196
a(S'p1_tl'
I240
tp197
a(S'p1_ll'
I8
tp198
a(S'w'
I8805
tp199
a(S'p1_tl'
I254
tp200
a(S'p1_ll'
I8
tp201
a(S'w'
I8806
tp202
a(S'p1_tl'
I240
tp203
a(S'p1_ll'
I8
tp204
a(S'w'
I8805
tp205
a(S'p1_tl'
I214
tp206
a(S'p1_ll'
I8
tp207
a(S'w'
I5
tp208
a(S'p2_tl'
I104
tp209
a(S'p2_ll'
I8
tp210
a(S'w'
I5
tp211
a(S'tr_tl'
I13
tp212
a(S'tr_ll'
I8
tp213
a(S'w'
I26407
tp214
a(S'p1_tl'
I13
tp215
a(S'p1_ll'
I8
tp216
a(S'p1_th'
I1
tp217
a(S'w'
I8805
tp218
a(S'p1_tl'
I104
tp219
a(S'p1_ll'
I8
tp220
a(S'w'
I17611
tp221
a(S'p1_ll'
I8
tp222
a(S'w'
I8806
tp223
a(S'p1_tl'
I214
tp224
a(S'p1_ll'
I8
tp225
a(S'p1_th'
I0
tp226
a(S'w'
I8805
tp227
a(S'p1_tl'
I190
tp228
a(S'p1_ll'
I8
tp229
a(S'w'
I5
tp230
a(S'p2_tl'
I125
tp231
a(S'p2_ll'
I8
tp232
a(S'w'
I5
tp233
a(S'tr_tl'
I29
tp234
a(S'tr_ll'
I8
tp235
a(S'w'
I26407
tp236
a(S'p1_tl'
I214
tp237
a(S'p1_ll'
I8
tp238
a(S'w'
I8805
tp239
a(S'p1_tl'
I240
tp240
a(S'p1_ll'
I8
tp241
a(S'w'
I8806
tp242
a(S'p1_tl'
I254
tp243
a(S'p1_ll'
I8
tp244
a(S'w'
I8805
tp245
a(S'p1_tl'
I240
tp246
a(S'p1_ll'
I8
tp247
a(S'w'
I8806
tp248
a(S'p1_tl'
I214
tp249
a(S'p1_ll'
I8
tp250
a(S'w'
I8805
tp251
a(S'p1_tl'
I190
tp252
a(S'p1_ll'
I8
tp253
a(S'w'
I5
tp254
a(S'p2_ll'
I8
tp255
a(S'w'
I5
tp256
a(S'tr_tl'
I125
tp257
a(S'tr_ll'
I8
tp258
a(S'w'
I17601
tp259
a(S'p1_ll'
I8
tp260
a(S'w'
I5
tp261
a(S'p2_tl'
I252
tp262
a(S'p2_ll'
I8
tp263
a(S'w'
I8801
tp264
a(S'p1_tl'
I180
tp265
a(S'p1_ll'
I8
tp266
a(S'w'
I8805
tp267
a(S'p1_tl'
I190
tp268
a(S'p1_ll'
I8
tp269
a(S'w'
I5
tp270
a(S'p2_tl'
I224
tp271
a(S'p2_ll'
I8
tp272
a(S'w'
I17606
tp273
a(S'p1_tl'
I125
tp274
a(S'p1_ll'
I8
tp275
a(S'p1_th'
I1
tp276
a(S'w'
I5
tp277
a(S'p2_tl'
I172
tp278
a(S'p2_ll'
I8
tp279
a(S'w'
I8801
tp280
a(S'p1_ll'
I8
tp281
a(S'w'
I8805
tp282
a(S'p1_tl'
I29
tp283
a(S'p1_ll'
I8
tp284
a(S'w'
I5
tp285
a(S'p2_tl'
I125
tp286
a(S'p2_ll'
I8
tp287
a(S'w'
I5
tp288
a(S'tr_tl'
I29
tp289
a(S'tr_ll'
I8
tp290
a(S'w'
I17601
tp291
a(S'p1_ll'
I8
tp292
a(S'w'
I5871
tp293
a(S'p1_tl'
I254
tp294
a(S'p1_ll'
I8
tp295
a(S'p1_th'
I0
tp296
a(S'w'
I5870
tp297
a(S'p1_ll'
I8
tp298
a(S'w'
I5870
tp299
a(S'p1_tl'
I240
tp300
a(S'p1_ll'
I8
tp301
a(S'w'
I17611
tp302
a(S'p1_tl'
I29
tp303
a(S'p1_ll'
I8
tp304
a(S'p1_th'
I1
tp305
a(S'w'
I17611
tp306
a(S'p1_tl'
I214
tp307
a(S'p1_ll'
I8
tp308
a(S'p1_th'
I0
tp309
a(S'w'
I5
tp310
a(S'p2_tl'
I172
tp311
a(S'p2_ll'
I8
tp312
a(S'w'
I5
tp313
a(S'tr_tl'
I64
tp314
a(S'tr_ll'
I8
tp315
a(S'w'
I26407
tp316
a(S'p1_tl'
I254
tp317
a(S'p1_ll'
I8
tp318
a(S'w'
I8805
tp319
a(S'p1_tl'
I64
tp320
a(S'p1_ll'
I8
tp321
a(S'p1_th'
I1
tp322
a(S'w'
I17611
tp323
a(S'p1_ll'
I8
tp324
a(S'w'
I8806
tp325
a(S'p1_tl'
I254
tp326
a(S'p1_ll'
I8
tp327
a(S'p1_th'
I0
tp328
a(S'w'
I8805
tp329
a(S'p1_tl'
I29
tp330
a(S'p1_ll'
I8
tp331
a(S'p1_th'
I1
tp332
a(S'w'
I5
tp333
a(S'p2_tl'
I125
tp334
a(S'p2_ll'
I8
tp335
a(S'w'
I5
tp336
a(S'tr_tl'
I29
tp337
a(S'tr_ll'
I8
tp338
a(S'w'
I17601
tp339
a(S'p1_ll'
I8
tp340
a(S'w'
I5871
tp341
a(S'p1_tl'
I46
tp342
a(S'p1_ll'
I8
tp343
a(S'w'
I5870
tp344
a(S'p1_tl'
I29
tp345
a(S'p1_ll'
I8
tp346
a(S'w'
I5870
tp347
a(S'p1_tl'
I254
tp348
a(S'p1_ll'
I8
tp349
a(S'p1_th'
I0
tp350
a(S'w'
I5
tp351
a(S'p2_tl'
I172
tp352
a(S'p2_ll'
I8
tp353
a(S'w'
I5
tp354
a(S'tr_tl'
I64
tp355
a(S'tr_ll'
I8
tp356
a(S'w'
I17601
tp357
a(S'p1_ll'
I8
tp358
a(S'w'
I5871
tp359
a(S'p1_tl'
I29
tp360
a(S'p1_ll'
I8
tp361
a(S'p1_th'
I1
tp362
a(S'w'
I5870
tp363
a(S'p1_tl'
I254
tp364
a(S'p1_ll'
I8
tp365
a(S'p1_th'
I0
tp366
a(S'w'
I5870
tp367
a(S'p1_tl'
I240
tp368
a(S'p1_ll'
I8
tp369
a(S'w'
I5
tp370
a(S'p2_tl'
I104
tp371
a(S'p2_ll'
I8
tp372
a(S'w'
I5
tp373
a(S'tr_tl'
I104
tp374
a(S'tr_ll'
I8
tp375
a(S'w'
I5861
tp376
a(S'p1_tl'
I254
tp377
a(S'p1_ll'
I8
tp378
a(S'w'
I5870
tp379
a(S'p1_tl'
I240
tp380
a(S'p1_ll'
I8
tp381
a(S'w'
I5870
tp382
a(S'p1_tl'
I214
tp383
a(S'p1_ll'
I8
tp384
a(S'w'
I5
tp385
a(S'p2_tl'
I172
tp386
a(S'p2_ll'
I8
tp387
a(S'w'
I5
tp388
a(S'tr_tl'
I64
tp389
a(S'tr_ll'
I8
tp390
a(S'w'
I5861
tp391
a(S'p1_tl'
I240
tp392
a(S'p1_ll'
I8
tp393
a(S'w'
I5870
tp394
a(S'p1_tl'
I214
tp395
a(S'p1_ll'
I8
tp396
a(S'w'
I5870
tp397
a(S'p1_tl'
I190
tp398
a(S'p1_ll'
I8
tp399
a(S'w'
I5
tp400
a(S'p2_tl'
I224
tp401
a(S'p2_ll'
I8
tp402
a(S'w'
I5
tp403
a(S'tr_tl'
I29
tp404
a(S'tr_ll'
I8
tp405
a(S'w'
I17601
tp406
a(S'p1_ll'
I8
tp407
a(S'w'
I5
tp408
a(S'p2_tl'
I197
tp409
a(S'p2_ll'
I8
tp410
a(S'w'
I17606
tp411
a(S'p1_tl'
I180
tp412
a(S'p1_ll'
I8
tp413
a(S'w'
I5
tp414
a(S'p2_tl'
I172
tp415
a(S'p2_ll'
I8
tp416
a(S'w'
I5
tp417
a(S'tr_tl'
I172
tp418
a(S'tr_ll'
I8
tp419
a(S'w'
I26407
tp420
a(S'p1_tl'
I190
tp421
a(S'p1_ll'
I8
tp422
a(S'w'
I8805
tp423
a(S'p1_tl'
I214
tp424
a(S'p1_ll'
I8
tp425
a(S'w'
I8806
tp426
a(S'p1_tl'
I240
tp427
a(S'p1_ll'
I8
tp428
a(S'w'
I8805
tp429
a(S'p1_tl'
I254
tp430
a(S'p1_ll'
I8
tp431
a(S'w'
I8806
tp432
a(S'p1_tl'
I240
tp433
a(S'p1_ll'
I8
tp434
a(S'w'
I8805
tp435
a(S'p1_tl'
I214
tp436
a(S'p1_ll'
I8
tp437
a(S'w'
I5
tp438
a(S'p2_tl'
I104
tp439
a(S'p2_ll'
I8
tp440
a(S'w'
I5
tp441
a(S'tr_tl'
I13
tp442
a(S'tr_ll'
I8
tp443
a(S'w'
I26407
tp444
a(S'p1_tl'
I13
tp445
a(S'p1_ll'
I8
tp446
a(S'p1_th'
I1
tp447
a(S'w'
I8805
tp448
a(S'p1_tl'
I104
tp449
a(S'p1_ll'
I8
tp450
a(S'w'
I17611
tp451
a(S'p1_ll'
I8
tp452
a(S'w'
I8806
tp453
a(S'p1_tl'
I214
tp454
a(S'p1_ll'
I8
tp455
a(S'p1_th'
I0
tp456
a(S'w'
I8805
tp457
a(S'p1_tl'
I240
tp458
a(S'p1_ll'
I8
tp459
a(S'w'
I5
tp460
a(S'p2_tl'
I125
tp461
a(S'p2_ll'
I8
tp462
a(S'w'
I5
tp463
a(S'tr_tl'
I29
tp464
a(S'tr_ll'
I8
tp465
a(S'w'
I17601
tp466
a(S'p1_ll'
I8
tp467
a(S'w'
I17611
tp468
a(S'p1_tl'
I254
tp469
a(S'p1_ll'
I8
tp470
a(S'w'
I5
tp471
a(S'p2_tl'
I252
tp472
a(S'p2_ll'
I8
tp473
a(S'w'
I5
tp474
a(S'tr_tl'
I125
tp475
a(S'tr_ll'
I8
tp476
a(S'w'
I8796
tp477
a(S'p1_tl'
I29
tp478
a(S'p1_ll'
I8
tp479
a(S'p1_th'
I1
tp480
a(S'w'
I8805
tp481
a(S'p1_tl'
I254
tp482
a(S'p1_ll'
I8
tp483
a(S'p1_th'
I0
tp484
a(S'w'
I8806
tp485
a(S'p1_tl'
I240
tp486
a(S'p1_ll'
I8
tp487
a(S'w'
I8805
tp488
a(S'p1_tl'
I29
tp489
a(S'p1_ll'
I8
tp490
a(S'p1_th'
I1
tp491
a(S'w'
I5
tp492
a(S'p2_tl'
I224
tp493
a(S'p2_ll'
I8
tp494
a(S'w'
I5
tp495
a(S'tr_tl'
I104
tp496
a(S'tr_ll'
I8
tp497
a(S'w'
I70434
tp498
a(S'p1_tl'
I46
tp499
a(S'p1_ll'
I8
tp500
a(S'w'
I5
tp501
a(S'p2_tl'
I125
tp502
a(S'p2_ll'
I8
tp503
a(S'w'
I5
tp504
a(S'tr_tl'
I254
tp505
a(S'tr_ll'
I8
tp506
a(S'tr_th'
I0
tp507
a(S'w'
I52823
tp508
a(S'p1_tl'
I125
tp509
a(S'p1_ll'
I8
tp510
a(S'w'
I8806
tp511
a.