(lp1
(S'clock'
p2
I1789772
tp3
a(S'ch_no'
I1
tp4
a(S'ch_tr'
I1
tp5
a(S'ch_p2'
I1
tp6
a(S'ch_p1'
I1
tp7
a(S'p1_du'
I2
tp8
a(S'p1_cv'
I1
tp9
a(S'p1_vo'
I6
tp10
a(S'p2_du'
I2
tp11
a(S'p2_cv'
I1
tp12
a(S'p2_vo'
I6
tp13
a(S'tr_lr'
I31
tp14
a(S'no_vo'
I1
tp15
a(S'w'
I5
tp16
a(S'p1_tl'
I160
tp17
a(S'p1_ll'
I8
tp18
a(S'w'
I5
tp19
a(S'p2_tl'
I254
tp20
a(S'p2_ll'
I8
tp21
a(S'w'
I5
tp22
a(S'tr_tl'
I129
tp23
a(S'tr_ll'
I8
tp24
a(S'tr_th'
I2
tp25
a(S'w'
I5
tp26
a(S'no_np'
I2
tp27
a(S'no_ll'
I2
tp28
a(S'w'
I4388
tp29
a(S'p1_ll'
I8
tp30
a(S'w'
I5
tp31
a(S'p2_ll'
I8
tp32
a(S'w'
I6
tp33
a(S'no_ll'
I2
tp34
a(S'w'
I4395
tp35
a(S'no_np'
I0
tp36
a(S'no_ll'
I2
tp37
a(S'w'
I4400
tp38
a(S'p1_ll'
I8
tp39
a(S'w'
I5
tp40
a(S'p2_ll'
I8
tp41
a(S'w'
I6
tp42
a(S'no_np'
I2
tp43
a(S'no_ll'
I2
tp44
a(S'w'
I4392
tp45
a(S'p1_tl'
I190
tp46
a(S'p1_ll'
I8
tp47
a(S'w'
I5
tp48
a(S'p2_tl'
I46
tp49
a(S'p2_ll'
I8
tp50
a(S'p2_th'
I1
tp51
a(S'w'
I5
tp52
a(S'tr_tl'
I125
tp53
a(S'tr_ll'
I8
tp54
a(S'tr_th'
I1
tp55
a(S'w'
I5
tp56
a(S'no_ll'
I2
tp57
a(S'w'
I4387
tp58
a(S'p1_ll'
I8
tp59
a(S'w'
I5
tp60
a(S'p2_ll'
I8
tp61
a(S'w'
I6
tp62
a(S'no_ll'
I2
tp63
a(S'w'
I4395
tp64
a(S'no_np'
I0
tp65
a(S'no_ll'
I2
tp66
a(S'w'
I4400
tp67
a(S'p1_ll'
I8
tp68
a(S'w'
I5
tp69
a(S'p2_ll'
I8
tp70
a(S'w'
I6
tp71
a(S'no_np'
I2
tp72
a(S'no_ll'
I2
tp73
a(S'w'
I4392
tp74
a(S'p1_tl'
I160
tp75
a(S'p1_ll'
I8
tp76
a(S'w'
I5
tp77
a(S'p2_tl'
I254
tp78
a(S'p2_ll'
I8
tp79
a(S'p2_th'
I0
tp80
a(S'w'
I5
tp81
a(S'tr_tl'
I129
tp82
a(S'tr_ll'
I8
tp83
a(S'tr_th'
I2
tp84
a(S'w'
I5
tp85
a(S'no_ll'
I2
tp86
a(S'w'
I5855
tp87
a(S'p1_tl'
I190
tp88
a(S'p1_ll'
I8
tp89
a(S'w'
I5
tp90
a(S'p2_tl'
I64
tp91
a(S'p2_ll'
I8
tp92
a(S'p2_th'
I1
tp93
a(S'w'
I6
tp94
a(S'no_ll'
I2
tp95
a(S'w'
I5859
tp96
a(S'p1_tl'
I160
tp97
a(S'p1_ll'
I8
tp98
a(S'w'
I5
tp99
a(S'p2_tl'
I254
tp100
a(S'p2_ll'
I8
tp101
a(S'p2_th'
I0
tp102
a(S'w'
I6
tp103
a(S'no_ll'
I2
tp104
a(S'w'
I5860
tp105
a(S'p1_tl'
I143
tp106
a(S'p1_ll'
I8
tp107
a(S'w'
I5
tp108
a(S'p2_tl'
I226
tp109
a(S'p2_ll'
I8
tp110
a(S'w'
I5
tp111
a(S'tr_tl'
I125
tp112
a(S'tr_ll'
I8
tp113
a(S'tr_th'
I1
tp114
a(S'w'
I5
tp115
a(S'no_ll'
I2
tp116
a(S'w'
I5855
tp117
a(S'p1_tl'
I0
tp118
a(S'p1_ll'
I8
tp119
a(S'w'
I5
tp120
a(S'p2_tl'
I0
tp121
a(S'p2_ll'
I8
tp122
a(S'w'
I5
tp123
a(S'tr_tl'
I0
tp124
a(S'tr_ll'
I8
tp125
a(S'tr_th'
I0
tp126
a(S'w'
I5
tp127
a(S'no_np'
I0
tp128
a(S'no_ll'
I2
tp129
a(S'w'
I5855
tp130
a(S'p1_tl'
I107
tp131
a(S'p1_ll'
I8
tp132
a(S'w'
I5
tp133
a(S'p2_tl'
I170
tp134
a(S'p2_ll'
I8
tp135
a(S'w'
I5
tp136
a(S'tr_tl'
I172
tp137
a(S'tr_ll'
I8
tp138
a(S'tr_th'
I1
tp139
a(S'w'
I5
tp140
a(S'no_np'
I2
tp141
a(S'no_ll'
I2
tp142
a(S'w'
I5856
tp143
a(S'p1_tl'
I127
tp144
a(S'p1_ll'
I8
tp145
a(S'w'
I5
tp146
a(S'p2_tl'
I202
tp147
a(S'p2_ll'
I8
tp148
a(S'w'
I5
tp149
a(S'tr_tl'
I252
tp150
a(S'tr_ll'
I8
tp151
a(S'w'
I5
tp152
a(S'no_ll'
I2
tp153
a(S'w'
I35207
tp154
a(S'p1_tl'
I0
tp155
a(S'p1_ll'
I8
tp156
a(S'w'
I5
tp157
a(S'p2_tl'
I0
tp158
a(S'p2_ll'
I8
tp159
a(S'w'
I5
tp160
a(S'tr_tl'
I0
tp161
a(S'tr_ll'
I8
tp162
a(S'tr_th'
I0
tp163
a(S'w'
I68398
tp164
a.