(lp1
(S'clock'
p2
I1789772
tp3
a(S'ch_no'
I1
tp4
a(S'ch_tr'
I1
tp5
a(S'ch_p2'
I1
tp6
a(S'ch_p1'
I1
tp7
a(S'p1_lh'
I1
tp8
a(S'p1_cv'
I1
tp9
a(S'p1_sp'
I3
tp10
a(S'p2_lh'
I1
tp11
a(S'p2_cv'
I1
tp12
a(S'p2_sp'
I3
tp13
a(S'w'
I3
tp14
a(S'p1_du'
I1
tp15
a(S'p1_vo'
I15
tp16
a(S'w'
I8
tp17
a(S'p1_ll'
I1
tp18
a(S'p1_th'
I1
tp19
a(S'p1_tl'
I147
tp20
a(S'w'
I3
tp21
a(S'p2_du'
I1
tp22
a(S'p2_vo'
I14
tp23
a(S'w'
I7
tp24
a(S'p2_ll'
I1
tp25
a(S'p2_th'
I1
tp26
a(S'p2_tl'
I197
tp27
a(S'w'
I4
tp28
a(S'tr_lr'
I18
tp29
a(S'w'
I4
tp30
a(S'tr_lr'
I0
tp31
a(S'w'
I5113
tp32
a(S'p1_vo'
I14
tp33
a(S'w'
I4
tp34
a(S'p2_vo'
I13
tp35
a(S'w'
I729
tp36
a(S'p1_vo'
I13
tp37
a(S'w'
I5
tp38
a(S'p2_vo'
I12
tp39
a(S'w'
I729
tp40
a(S'p1_vo'
I12
tp41
a(S'w'
I5
tp42
a(S'p2_vo'
I11
tp43
a(S'w'
I728
tp44
a(S'p1_vo'
I11
tp45
a(S'w'
I5
tp46
a(S'p2_vo'
I10
tp47
a(S'w'
I729
tp48
a(S'p1_vo'
I10
tp49
a(S'w'
I5
tp50
a(S'p2_vo'
I9
tp51
a(S'w'
I729
tp52
a(S'p1_vo'
I9
tp53
a(S'w'
I5
tp54
a(S'p2_vo'
I8
tp55
a(S'w'
I729
tp56
a(S'p1_vo'
I8
tp57
a(S'w'
I5
tp58
a(S'p2_vo'
I7
tp59
a(S'w'
I730
tp60
a(S'p1_vo'
I15
tp61
a(S'w'
I3
tp62
a(S'w'
I5
tp63
a(S'p2_vo'
I14
tp64
a(S'w'
I4
tp65
a(S'w'
I720
tp66
a(S'p1_vo'
I14
tp67
a(S'w'
I5
tp68
a(S'p2_vo'
I13
tp69
a(S'w'
I729
tp70
a(S'p1_vo'
I13
tp71
a(S'w'
I5
tp72
a(S'p2_vo'
I12
tp73
a(S'w'
I729
tp74
a(S'p1_vo'
I12
tp75
a(S'w'
I5
tp76
a(S'p2_vo'
I11
tp77
a(S'w'
I729
tp78
a(S'p1_vo'
I11
tp79
a(S'w'
I5
tp80
a(S'p2_vo'
I10
tp81
a(S'w'
I729
tp82
a(S'p1_vo'
I10
tp83
a(S'w'
I5
tp84
a(S'p2_vo'
I9
tp85
a(S'w'
I728
tp86
a(S'p1_vo'
I9
tp87
a(S'w'
I5
tp88
a(S'p2_vo'
I8
tp89
a(S'w'
I731
tp90
a(S'p1_vo'
I15
tp91
a(S'w'
I4
tp92
a(S'p1_tl'
I46
tp93
a(S'w'
I6
tp94
a(S'p2_vo'
I14
tp95
a(S'w'
I3
tp96
a(S'p2_tl'
I224
tp97
a(S'w'
I5
tp98
a(S'tr_lr'
I18
tp99
a(S'w'
I4
tp100
a(S'tr_ll'
I1
tp101
a(S'tr_th'
I1
tp102
a(S'tr_tl'
I46
tp103
a(S'w'
I10261
tp104
a(S'tr_ll'
I1
tp105
a(S'w'
I5138
tp106
a(S'tr_ll'
I1
tp107
a(S'w'
I5124
tp108
a(S'p1_vo'
I14
tp109
a(S'w'
I4
tp110
a(S'p2_vo'
I13
tp111
a(S'w'
I729
tp112
a(S'p1_vo'
I13
tp113
a(S'w'
I5
tp114
a(S'p2_vo'
I12
tp115
a(S'w'
I729
tp116
a(S'p1_vo'
I12
tp117
a(S'w'
I5
tp118
a(S'p2_vo'
I11
tp119
a(S'w'
I729
tp120
a(S'p1_vo'
I11
tp121
a(S'w'
I5
tp122
a(S'p2_vo'
I10
tp123
a(S'w'
I728
tp124
a(S'p1_vo'
I10
tp125
a(S'w'
I5
tp126
a(S'p2_vo'
I9
tp127
a(S'w'
I729
tp128
a(S'p1_vo'
I9
tp129
a(S'w'
I5
tp130
a(S'p2_vo'
I8
tp131
a(S'w'
I729
tp132
a(S'p1_vo'
I8
tp133
a(S'w'
I5
tp134
a(S'p2_vo'
I7
tp135
a(S'w'
I730
tp136
a(S'p1_vo'
I15
tp137
a(S'w'
I3
tp138
a(S'p1_tl'
I13
tp139
a(S'w'
I5
tp140
a(S'p2_vo'
I14
tp141
a(S'w'
I4
tp142
a(S'p2_tl'
I197
tp143
a(S'w'
I8
tp144
a(S'tr_ll'
I1
tp145
a(S'w'
I713
tp146
a(S'p1_vo'
I14
tp147
a(S'w'
I5
tp148
a(S'p2_vo'
I13
tp149
a(S'w'
I728
tp150
a(S'p1_vo'
I13
tp151
a(S'w'
I5
tp152
a(S'p2_vo'
I12
tp153
a(S'w'
I729
tp154
a(S'p1_vo'
I12
tp155
a(S'w'
I5
tp156
a(S'p2_vo'
I11
tp157
a(S'w'
I729
tp158
a(S'p1_vo'
I11
tp159
a(S'w'
I5
tp160
a(S'p2_vo'
I10
tp161
a(S'w'
I729
tp162
a(S'p1_vo'
I10
tp163
a(S'w'
I5
tp164
a(S'p2_vo'
I9
tp165
a(S'w'
I729
tp166
a(S'p1_vo'
I9
tp167
a(S'w'
I5
tp168
a(S'p2_vo'
I8
tp169
a(S'w'
I730
tp170
a(S'p1_vo'
I15
tp171
a(S'w'
I3
tp172
a(S'p1_ll'
I1
tp173
a(S'p1_th'
I0
tp174
a(S'p1_tl'
I240
tp175
a(S'w'
I6
tp176
a(S'p2_vo'
I14
tp177
a(S'w'
I4
tp178
a(S'p2_tl'
I147
tp179
a(S'w'
I3
tp180
a(S'tr_lr'
I112
tp181
a(S'w'
I8
tp182
a(S'tr_ll'
I1
tp183
a(S'w'
I10248
tp184
a(S'p1_vo'
I14
tp185
a(S'w'
I4
tp186
a(S'p2_vo'
I13
tp187
a(S'w'
I729
tp188
a(S'p1_vo'
I13
tp189
a(S'w'
I5
tp190
a(S'p2_vo'
I12
tp191
a(S'w'
I729
tp192
a(S'p1_vo'
I12
tp193
a(S'w'
I5
tp194
a(S'p2_vo'
I11
tp195
a(S'w'
I729
tp196
a(S'p1_vo'
I11
tp197
a(S'w'
I5
tp198
a(S'p2_vo'
I10
tp199
a(S'w'
I729
tp200
a(S'p1_vo'
I10
tp201
a(S'w'
I5
tp202
a(S'p2_vo'
I9
tp203
a(S'w'
I728
tp204
a(S'p1_vo'
I9
tp205
a(S'w'
I5
tp206
a(S'p2_vo'
I8
tp207
a(S'w'
I729
tp208
a(S'p1_vo'
I8
tp209
a(S'w'
I5
tp210
a(S'p2_vo'
I7
tp211
a(S'w'
I730
tp212
a(S'p1_vo'
I15
tp213
a(S'w'
I3
tp214
a(S'p1_tl'
I226
tp215
a(S'w'
I5
tp216
a(S'p2_vo'
I14
tp217
a(S'w'
I4
tp218
a(S'p2_tl'
I103
tp219
a(S'w'
I721
tp220
a(S'p1_vo'
I14
tp221
a(S'w'
I5
tp222
a(S'p2_vo'
I13
tp223
a(S'w'
I729
tp224
a(S'p1_vo'
I13
tp225
a(S'w'
I5
tp226
a(S'p2_vo'
I12
tp227
a(S'w'
I728
tp228
a(S'p1_vo'
I12
tp229
a(S'w'
I5
tp230
a(S'p2_vo'
I11
tp231
a(S'w'
I729
tp232
a(S'p1_vo'
I11
tp233
a(S'w'
I5
tp234
a(S'p2_vo'
I10
tp235
a(S'w'
I729
tp236
a(S'p1_vo'
I10
tp237
a(S'w'
I5
tp238
a(S'p2_vo'
I9
tp239
a(S'w'
I729
tp240
a(S'p1_vo'
I9
tp241
a(S'w'
I5
tp242
a(S'p2_vo'
I8
tp243
a(S'w'
I730
tp244
a(S'p1_vo'
I15
tp245
a(S'w'
I3
tp246
a(S'p1_tl'
I240
tp247
a(S'w'
I5
tp248
a(S'p2_vo'
I14
tp249
a(S'w'
I4
tp250
a(S'w'
I720
tp251
a(S'p1_vo'
I14
tp252
a(S'w'
I5
tp253
a(S'p2_vo'
I13
tp254
a(S'w'
I729
tp255
a(S'p1_vo'
I13
tp256
a(S'w'
I5
tp257
a(S'p2_vo'
I12
tp258
a(S'w'
I729
tp259
a(S'p1_vo'
I12
tp260
a(S'w'
I5
tp261
a(S'p2_vo'
I11
tp262
a(S'w'
I729
tp263
a(S'p1_vo'
I11
tp264
a(S'w'
I5
tp265
a(S'p2_vo'
I10
tp266
a(S'w'
I729
tp267
a(S'p1_vo'
I10
tp268
a(S'w'
I5
tp269
a(S'p2_vo'
I9
tp270
a(S'w'
I728
tp271
a(S'p1_vo'
I9
tp272
a(S'w'
I5
tp273
a(S'p2_vo'
I8
tp274
a(S'w'
I730
tp275
a(S'p1_vo'
I15
tp276
a(S'w'
I3
tp277
a(S'p1_ll'
I1
tp278
a(S'p1_th'
I1
tp279
a(S'p1_tl'
I13
tp280
a(S'w'
I5
tp281
a(S'p2_vo'
I14
tp282
a(S'w'
I4
tp283
a(S'w'
I721
tp284
a(S'p1_vo'
I14
tp285
a(S'w'
I5
tp286
a(S'p2_vo'
I13
tp287
a(S'w'
I729
tp288
a(S'p1_vo'
I13
tp289
a(S'w'
I5
tp290
a(S'p2_vo'
I12
tp291
a(S'w'
I728
tp292
a(S'p1_vo'
I12
tp293
a(S'w'
I5
tp294
a(S'p2_vo'
I11
tp295
a(S'w'
I729
tp296
a(S'p1_vo'
I11
tp297
a(S'w'
I5
tp298
a(S'p2_vo'
I10
tp299
a(S'w'
I729
tp300
a(S'p1_vo'
I10
tp301
a(S'w'
I5
tp302
a(S'p2_vo'
I9
tp303
a(S'w'
I729
tp304
a(S'p1_vo'
I9
tp305
a(S'w'
I5
tp306
a(S'p2_vo'
I8
tp307
a(S'w'
I732
tp308
a(S'p1_vo'
I15
tp309
a(S'w'
I3
tp310
a(S'p1_ll'
I1
tp311
a(S'p1_th'
I0
tp312
a(S'w'
I1
tp313
a(S'p1_tl'
I240
tp314
a(S'w'
I7
tp315
a(S'p2_vo'
I14
tp316
a(S'w'
I3
tp317
a(S'p2_tl'
I147
tp318
a(S'w'
I5128
tp319
a(S'tr_lr'
I0
tp320
a(S'w'
I5135
tp321
a(S'tr_lr'
I18
tp322
a(S'w'
I6
tp323
a(S'tr_ll'
I1
tp324
a(S'w'
I5136
tp325
a(S'tr_ll'
I1
tp326
a(S'w'
I10272
tp327
a(S'tr_ll'
I1
tp328
a(S'w'
I5132
tp329
a(S'tr_lr'
I112
tp330
a(S'w'
I8
tp331
a(S'tr_ll'
I1
tp332
a(S'w'
I5122
tp333
a(S'p1_vo'
I14
tp334
a(S'w'
I4
tp335
a(S'p2_vo'
I13
tp336
a(S'w'
I729
tp337
a(S'p1_vo'
I13
tp338
a(S'w'
I5
tp339
a(S'p2_vo'
I12
tp340
a(S'w'
I729
tp341
a(S'p1_vo'
I12
tp342
a(S'w'
I5
tp343
a(S'p2_vo'
I11
tp344
a(S'w'
I729
tp345
a(S'p1_vo'
I11
tp346
a(S'w'
I5
tp347
a(S'p2_vo'
I10
tp348
a(S'w'
I729
tp349
a(S'p1_vo'
I10
tp350
a(S'w'
I5
tp351
a(S'p2_vo'
I9
tp352
a(S'w'
I728
tp353
a(S'p1_vo'
I9
tp354
a(S'w'
I5
tp355
a(S'p2_vo'
I8
tp356
a(S'w'
I729
tp357
a(S'p1_vo'
I8
tp358
a(S'w'
I5
tp359
a(S'p2_vo'
I7
tp360
a(S'w'
I728
tp361
a(S'p1_vo'
I13
tp362
a(S'w'
I7
tp363
a(S'p1_ll'
I1
tp364
a(S'p1_th'
I1
tp365
a(S'p1_tl'
I147
tp366
a(S'w'
I4
tp367
a(S'p2_vo'
I14
tp368
a(S'w'
I5
tp369
a(S'p2_du'
I0
tp370
a(S'p2_vo'
I0
tp371
a(S'w'
I719
tp372
a(S'p1_vo'
I12
tp373
a(S'w'
I734
tp374
a(S'p1_vo'
I11
tp375
a(S'w'
I733
tp376
a(S'p1_vo'
I10
tp377
a(S'w'
I734
tp378
a(S'p1_vo'
I9
tp379
a(S'w'
I734
tp380
a(S'p1_vo'
I8
tp381
a(S'w'
I735
tp382
a(S'p1_vo'
I13
tp383
a(S'w'
I3
tp384
a(S'p1_tl'
I46
tp385
a(S'w'
I730
tp386
a(S'p1_vo'
I12
tp387
a(S'w'
I733
tp388
a(S'p1_vo'
I11
tp389
a(S'w'
I733
tp390
a(S'p1_vo'
I13
tp391
a(S'w'
I8
tp392
a(S'p1_ll'
I1
tp393
a(S'p1_th'
I0
tp394
a(S'p1_tl'
I201
tp395
a(S'w'
I4
tp396
a(S'p2_du'
I1
tp397
a(S'p2_vo'
I14
tp398
a(S'w'
I6
tp399
a(S'p2_ll'
I1
tp400
a(S'p2_th'
I0
tp401
a(S'w'
I1
tp402
a(S'p2_tl'
I240
tp403
a(S'w'
I720
tp404
a(S'p2_vo'
I13
tp405
a(S'w'
I734
tp406
a(S'p2_vo'
I12
tp407
a(S'w'
I733
tp408
a(S'p2_vo'
I11
tp409
a(S'w'
I734
tp410
a(S'p2_vo'
I10
tp411
a(S'w'
I734
tp412
a(S'p2_vo'
I9
tp413
a(S'w'
I734
tp414
a(S'p2_vo'
I8
tp415
a(S'w'
I731
tp416
a(S'p1_vo'
I12
tp417
a(S'w'
I3
tp418
a(S'p2_vo'
I14
tp419
a(S'w'
I4
tp420
a(S'p2_du'
I0
tp421
a(S'p2_vo'
I0
tp422
a(S'w'
I725
tp423
a(S'p1_vo'
I11
tp424
a(S'w'
I734
tp425
a(S'p1_vo'
I10
tp426
a(S'w'
I734
tp427
a(S'p1_vo'
I9
tp428
a(S'w'
I734
tp429
a(S'p1_vo'
I8
tp430
a(S'w'
I734
tp431
a(S'p1_vo'
I7
tp432
a(S'w'
I733
tp433
a(S'p1_vo'
I6
tp434
a(S'w'
I4
tp435
a(S'p2_du'
I1
tp436
a(S'p2_vo'
I14
tp437
a(S'w'
I7
tp438
a(S'w'
I722
tp439
a(S'p1_vo'
I13
tp440
a(S'w'
I8
tp441
a(S'w'
I5
tp442
a(S'p2_vo'
I13
tp443
a(S'w'
I722
tp444
a(S'p1_vo'
I12
tp445
a(S'w'
I5
tp446
a(S'p2_vo'
I12
tp447
a(S'w'
I729
tp448
a(S'p1_vo'
I11
tp449
a(S'w'
I5
tp450
a(S'p2_vo'
I11
tp451
a(S'w'
I729
tp452
a(S'p1_vo'
I10
tp453
a(S'w'
I5
tp454
a(S'p2_vo'
I10
tp455
a(S'w'
I728
tp456
a(S'p1_vo'
I9
tp457
a(S'w'
I5
tp458
a(S'p2_vo'
I9
tp459
a(S'w'
I729
tp460
a(S'p1_vo'
I8
tp461
a(S'w'
I5
tp462
a(S'p2_vo'
I8
tp463
a(S'w'
I728
tp464
a(S'p1_vo'
I15
tp465
a(S'w'
I10
tp466
a(S'p1_tl'
I190
tp467
a(S'w'
I7
tp468
a(S'p2_vo'
I14
tp469
a(S'w'
I4
tp470
a(S'p2_tl'
I254
tp471
a(S'w'
I4392
tp472
a(S'tr_lr'
I0
tp473
a(S'w'
I5134
tp474
a(S'tr_lr'
I18
tp475
a(S'w'
I6
tp476
a(S'tr_ll'
I1
tp477
a(S'w'
I5136
tp478
a(S'tr_ll'
I1
tp479
a(S'w'
I10273
tp480
a(S'tr_ll'
I1
tp481
a(S'w'
I5131
tp482
a(S'tr_lr'
I112
tp483
a(S'w'
I8
tp484
a(S'tr_ll'
I1
tp485
a(S'w'
I5857
tp486
a(S'p1_vo'
I14
tp487
a(S'w'
I4
tp488
a(S'p2_vo'
I13
tp489
a(S'w'
I729
tp490
a(S'p1_vo'
I13
tp491
a(S'w'
I5
tp492
a(S'p2_vo'
I12
tp493
a(S'w'
I728
tp494
a(S'p1_vo'
I12
tp495
a(S'w'
I5
tp496
a(S'p2_vo'
I11
tp497
a(S'w'
I729
tp498
a(S'p1_vo'
I11
tp499
a(S'w'
I5
tp500
a(S'p2_vo'
I10
tp501
a(S'w'
I729
tp502
a(S'p1_vo'
I10
tp503
a(S'w'
I5
tp504
a(S'p2_vo'
I9
tp505
a(S'w'
I729
tp506
a(S'p1_vo'
I9
tp507
a(S'w'
I5
tp508
a(S'p2_vo'
I8
tp509
a(S'w'
I728
tp510
a(S'p1_vo'
I8
tp511
a(S'w'
I5
tp512
a(S'p2_vo'
I7
tp513
a(S'w'
I730
tp514
a(S'p1_vo'
I15
tp515
a(S'w'
I4
tp516
a(S'w'
I5
tp517
a(S'p2_vo'
I14
tp518
a(S'w'
I4
tp519
a(S'w'
I720
tp520
a(S'p1_vo'
I14
tp521
a(S'w'
I5
tp522
a(S'p2_vo'
I13
tp523
a(S'w'
I729
tp524
a(S'p1_vo'
I13
tp525
a(S'w'
I5
tp526
a(S'p2_vo'
I12
tp527
a(S'w'
I729
tp528
a(S'p1_vo'
I12
tp529
a(S'w'
I5
tp530
a(S'p2_vo'
I11
tp531
a(S'w'
I728
tp532
a(S'p1_vo'
I11
tp533
a(S'w'
I5
tp534
a(S'p2_vo'
I10
tp535
a(S'w'
I729
tp536
a(S'p1_vo'
I10
tp537
a(S'w'
I5
tp538
a(S'p2_vo'
I9
tp539
a(S'w'
I729
tp540
a(S'p1_vo'
I9
tp541
a(S'w'
I5
tp542
a(S'p2_vo'
I8
tp543
a(S'w'
I730
tp544
a(S'p1_vo'
I15
tp545
a(S'w'
I4
tp546
a(S'p1_tl'
I169
tp547
a(S'w'
I5
tp548
a(S'p2_vo'
I14
tp549
a(S'w'
I4
tp550
a(S'p2_tl'
I226
tp551
a(S'w'
I720
tp552
a(S'p1_vo'
I14
tp553
a(S'w'
I5
tp554
a(S'p2_vo'
I13
tp555
a(S'w'
I728
tp556
a(S'p1_vo'
I13
tp557
a(S'w'
I5
tp558
a(S'p2_vo'
I12
tp559
a(S'w'
I729
tp560
a(S'p1_vo'
I12
tp561
a(S'w'
I5
tp562
a(S'p2_vo'
I11
tp563
a(S'w'
I729
tp564
a(S'p1_vo'
I11
tp565
a(S'w'
I5
tp566
a(S'p2_vo'
I10
tp567
a(S'w'
I729
tp568
a(S'p1_vo'
I10
tp569
a(S'w'
I5
tp570
a(S'p2_vo'
I9
tp571
a(S'w'
I729
tp572
a(S'p1_vo'
I9
tp573
a(S'w'
I5
tp574
a(S'p2_vo'
I8
tp575
a(S'w'
I729
tp576
a(S'p1_vo'
I15
tp577
a(S'w'
I4
tp578
a(S'p1_tl'
I190
tp579
a(S'w'
I5
tp580
a(S'p2_vo'
I14
tp581
a(S'w'
I4
tp582
a(S'p2_tl'
I254
tp583
a(S'w'
I720
tp584
a(S'p1_vo'
I14
tp585
a(S'w'
I5
tp586
a(S'p2_vo'
I13
tp587
a(S'w'
I729
tp588
a(S'p1_vo'
I13
tp589
a(S'w'
I5
tp590
a(S'p2_vo'
I12
tp591
a(S'w'
I729
tp592
a(S'p1_vo'
I12
tp593
a(S'w'
I5
tp594
a(S'p2_vo'
I11
tp595
a(S'w'
I729
tp596
a(S'p1_vo'
I11
tp597
a(S'w'
I5
tp598
a(S'p2_vo'
I10
tp599
a(S'w'
I728
tp600
a(S'p1_vo'
I10
tp601
a(S'w'
I5
tp602
a(S'p2_vo'
I9
tp603
a(S'w'
I729
tp604
a(S'p1_vo'
I9
tp605
a(S'w'
I5
tp606
a(S'p2_vo'
I8
tp607
a(S'w'
I730
tp608
a(S'p1_vo'
I15
tp609
a(S'w'
I4
tp610
a(S'p1_tl'
I169
tp611
a(S'w'
I5
tp612
a(S'p2_vo'
I14
tp613
a(S'w'
I4
tp614
a(S'p2_tl'
I226
tp615
a(S'w'
I720
tp616
a(S'p1_vo'
I14
tp617
a(S'w'
I5
tp618
a(S'p2_vo'
I13
tp619
a(S'w'
I728
tp620
a(S'p1_vo'
I13
tp621
a(S'w'
I5
tp622
a(S'p2_vo'
I12
tp623
a(S'w'
I729
tp624
a(S'p1_vo'
I12
tp625
a(S'w'
I5
tp626
a(S'p2_vo'
I11
tp627
a(S'w'
I729
tp628
a(S'p1_vo'
I11
tp629
a(S'w'
I5
tp630
a(S'p2_vo'
I10
tp631
a(S'w'
I729
tp632
a(S'p1_vo'
I10
tp633
a(S'w'
I5
tp634
a(S'p2_vo'
I9
tp635
a(S'w'
I729
tp636
a(S'p1_vo'
I9
tp637
a(S'w'
I5
tp638
a(S'p2_vo'
I8
tp639
a(S'w'
I732
tp640
a(S'p1_vo'
I15
tp641
a(S'w'
I4
tp642
a(S'p1_tl'
I151
tp643
a(S'w'
I7
tp644
a(S'p2_vo'
I14
tp645
a(S'w'
I4
tp646
a(S'p2_tl'
I240
tp647
a(S'w'
I4393
tp648
a(S'tr_lr'
I0
tp649
a(S'w'
I5135
tp650
a(S'tr_lr'
I18
tp651
a(S'w'
I6
tp652
a(S'tr_ll'
I1
tp653
a(S'w'
I5135
tp654
a(S'tr_ll'
I1
tp655
a(S'w'
I10273
tp656
a(S'tr_ll'
I1
tp657
a(S'w'
I5132
tp658
a(S'tr_lr'
I112
tp659
a(S'w'
I7
tp660
a(S'tr_ll'
I1
tp661
a(S'w'
I16130
tp662
a(S'p1_vo'
I14
tp663
a(S'w'
I4
tp664
a(S'p2_vo'
I13
tp665
a(S'w'
I729
tp666
a(S'p1_vo'
I13
tp667
a(S'w'
I5
tp668
a(S'p2_vo'
I12
tp669
a(S'w'
I729
tp670
a(S'p1_vo'
I12
tp671
a(S'w'
I5
tp672
a(S'p2_vo'
I11
tp673
a(S'w'
I729
tp674
a(S'p1_vo'
I11
tp675
a(S'w'
I5
tp676
a(S'p2_vo'
I10
tp677
a(S'w'
I728
tp678
a(S'p1_vo'
I10
tp679
a(S'w'
I5
tp680
a(S'p2_vo'
I9
tp681
a(S'w'
I729
tp682
a(S'p1_vo'
I9
tp683
a(S'w'
I5
tp684
a(S'p2_vo'
I8
tp685
a(S'w'
I729
tp686
a(S'p1_vo'
I8
tp687
a(S'w'
I5
tp688
a(S'p2_vo'
I7
tp689
a(S'w'
I3
tp690
a(S'tr_lr'
I0
tp691
a(S'w'
I725
tp692
a(S'p1_du'
I0
tp693
a(S'p1_vo'
I0
tp694
a(S'w'
I3
tp695
a(S'p2_du'
I0
tp696
a(S'p2_vo'
I0
tp697
a(S'w'
I45553
tp698
a.