(lp1
(S'clock'
p2
I1789772
tp3
a(S'ch_no'
I1
tp4
a(S'ch_tr'
I1
tp5
a(S'ch_p2'
I1
tp6
a(S'ch_p1'
I1
tp7
a(S'p1_lh'
I1
tp8
a(S'p1_cv'
I1
tp9
a(S'p1_sp'
I3
tp10
a(S'p2_lh'
I1
tp11
a(S'p2_cv'
I1
tp12
a(S'p2_sp'
I3
tp13
a(S'w'
I3
tp14
a(S'p1_du'
I1
tp15
a(S'p1_vo'
I13
tp16
a(S'w'
I8
tp17
a(S'p1_ll'
I1
tp18
a(S'p1_tl'
I106
tp19
a(S'w'
I4
tp20
a(S'p2_du'
I1
tp21
a(S'p2_vo'
I13
tp22
a(S'w'
I10
tp23
a(S'p2_ll'
I1
tp24
a(S'p2_th'
I1
tp25
a(S'p2_tl'
I171
tp26
a(S'w'
I4
tp27
a(S'tr_lh'
I1
tp28
a(S'tr_lr'
I124
tp29
a(S'w'
I9
tp30
a(S'tr_ll'
I1
tp31
a(S'tr_tl'
I254
tp32
a(S'w'
I700
tp33
a(S'p1_vo'
I12
tp34
a(S'w'
I5
tp35
a(S'p2_vo'
I12
tp36
a(S'w'
I729
tp37
a(S'p1_vo'
I11
tp38
a(S'w'
I5
tp39
a(S'p2_vo'
I11
tp40
a(S'w'
I1464
tp41
a(S'p1_vo'
I10
tp42
a(S'w'
I732
tp43
a(S'p1_vo'
I9
tp44
a(S'w'
I734
tp45
a(S'p1_vo'
I8
tp46
a(S'w'
I735
tp47
a(S'p1_vo'
I13
tp48
a(S'w'
I4
tp49
a(S'p1_tl'
I160
tp50
a(S'w'
I729
tp51
a(S'p1_vo'
I12
tp52
a(S'w'
I734
tp53
a(S'p1_vo'
I11
tp54
a(S'w'
I1468
tp55
a(S'p1_vo'
I10
tp56
a(S'w'
I733
tp57
a(S'p1_vo'
I9
tp58
a(S'w'
I734
tp59
a(S'p1_vo'
I8
tp60
a(S'w'
I735
tp61
a(S'p1_vo'
I13
tp62
a(S'w'
I4
tp63
a(S'p1_tl'
I127
tp64
a(S'w'
I728
tp65
a(S'p1_vo'
I12
tp66
a(S'w'
I734
tp67
a(S'p1_vo'
I11
tp68
a(S'w'
I1469
tp69
a(S'p1_vo'
I10
tp70
a(S'w'
I733
tp71
a(S'p1_vo'
I9
tp72
a(S'w'
I733
tp73
a(S'p1_vo'
I8
tp74
a(S'w'
I735
tp75
a(S'p1_vo'
I13
tp76
a(S'w'
I4
tp77
a(S'p1_tl'
I160
tp78
a(S'w'
I729
tp79
a(S'p1_vo'
I12
tp80
a(S'w'
I734
tp81
a(S'p1_vo'
I11
tp82
a(S'w'
I1468
tp83
a(S'p1_vo'
I10
tp84
a(S'w'
I733
tp85
a(S'p1_vo'
I9
tp86
a(S'w'
I734
tp87
a(S'p1_vo'
I8
tp88
a(S'w'
I735
tp89
a(S'p1_vo'
I13
tp90
a(S'w'
I5
tp91
a(S'p1_tl'
I106
tp92
a(S'w'
I727
tp93
a(S'p1_vo'
I12
tp94
a(S'w'
I734
tp95
a(S'p1_vo'
I11
tp96
a(S'w'
I1469
tp97
a(S'p1_vo'
I10
tp98
a(S'w'
I733
tp99
a(S'p1_vo'
I9
tp100
a(S'w'
I733
tp101
a(S'p1_vo'
I8
tp102
a(S'w'
I735
tp103
a(S'p1_vo'
I13
tp104
a(S'w'
I4
tp105
a(S'p1_tl'
I127
tp106
a(S'w'
I729
tp107
a(S'p1_vo'
I12
tp108
a(S'w'
I734
tp109
a(S'p1_vo'
I11
tp110
a(S'w'
I1468
tp111
a(S'p1_vo'
I10
tp112
a(S'w'
I733
tp113
a(S'p1_vo'
I9
tp114
a(S'w'
I734
tp115
a(S'p1_vo'
I8
tp116
a(S'w'
I735
tp117
a(S'p1_vo'
I13
tp118
a(S'w'
I5
tp119
a(S'p1_tl'
I106
tp120
a(S'w'
I728
tp121
a(S'p1_vo'
I12
tp122
a(S'w'
I733
tp123
a(S'p1_vo'
I11
tp124
a(S'w'
I1469
tp125
a(S'p1_vo'
I10
tp126
a(S'w'
I733
tp127
a(S'p1_vo'
I9
tp128
a(S'w'
I734
tp129
a(S'p1_vo'
I8
tp130
a(S'w'
I734
tp131
a(S'p1_vo'
I13
tp132
a(S'w'
I4
tp133
a(S'p1_tl'
I160
tp134
a(S'w'
I729
tp135
a(S'p1_vo'
I12
tp136
a(S'w'
I734
tp137
a(S'p1_vo'
I11
tp138
a(S'w'
I1468
tp139
a(S'p1_vo'
I10
tp140
a(S'w'
I733
tp141
a(S'p1_vo'
I9
tp142
a(S'w'
I734
tp143
a(S'p1_vo'
I8
tp144
a(S'w'
I735
tp145
a(S'p1_vo'
I13
tp146
a(S'w'
I4
tp147
a(S'p1_tl'
I127
tp148
a(S'w'
I729
tp149
a(S'p1_vo'
I12
tp150
a(S'w'
I733
tp151
a(S'p1_vo'
I11
tp152
a(S'w'
I1469
tp153
a(S'p1_vo'
I10
tp154
a(S'w'
I733
tp155
a(S'p1_vo'
I9
tp156
a(S'w'
I734
tp157
a(S'p1_vo'
I8
tp158
a(S'w'
I734
tp159
a(S'p1_vo'
I13
tp160
a(S'w'
I3
tp161
a(S'p1_ll'
I1
tp162
a(S'p1_th'
I1
tp163
a(S'w'
I1
tp164
a(S'p1_tl'
I64
tp165
a(S'w'
I729
tp166
a(S'p1_vo'
I12
tp167
a(S'w'
I734
tp168
a(S'p1_vo'
I11
tp169
a(S'w'
I1469
tp170
a(S'p1_vo'
I10
tp171
a(S'w'
I732
tp172
a(S'p1_vo'
I9
tp173
a(S'w'
I734
tp174
a(S'p1_vo'
I8
tp175
a(S'w'
I735
tp176
a(S'p1_vo'
I13
tp177
a(S'w'
I3
tp178
a(S'p1_ll'
I1
tp179
a(S'p1_th'
I0
tp180
a(S'p1_tl'
I254
tp181
a(S'w'
I730
tp182
a(S'p1_vo'
I12
tp183
a(S'w'
I734
tp184
a(S'p1_vo'
I11
tp185
a(S'w'
I1468
tp186
a(S'p1_vo'
I10
tp187
a(S'w'
I733
tp188
a(S'p1_vo'
I9
tp189
a(S'w'
I734
tp190
a(S'p1_vo'
I8
tp191
a(S'w'
I734
tp192
a(S'p1_vo'
I13
tp193
a(S'w'
I4
tp194
a(S'p1_tl'
I213
tp195
a(S'w'
I729
tp196
a(S'p1_vo'
I12
tp197
a(S'w'
I734
tp198
a(S'p1_vo'
I11
tp199
a(S'w'
I1469
tp200
a(S'p1_vo'
I10
tp201
a(S'w'
I4
tp202
a(S'p2_vo'
I10
tp203
a(S'w'
I728
tp204
a(S'p1_vo'
I9
tp205
a(S'w'
I5
tp206
a(S'p2_vo'
I9
tp207
a(S'w'
I729
tp208
a(S'p1_vo'
I8
tp209
a(S'w'
I5
tp210
a(S'p2_vo'
I8
tp211
a(S'w'
I730
tp212
a(S'p1_vo'
I13
tp213
a(S'w'
I4
tp214
a(S'p1_tl'
I160
tp215
a(S'w'
I3
tp216
a(S'p2_vo'
I11
tp217
a(S'w'
I7
tp218
a(S'p2_ll'
I1
tp219
a(S'p2_th'
I0
tp220
a(S'w'
I1
tp221
a(S'p2_tl'
I240
tp222
a(S'w'
I8
tp223
a(S'tr_ll'
I1
tp224
a(S'w'
I1
tp225
a(S'tr_tl'
I240
tp226
a(S'w'
I709
tp227
a(S'p1_vo'
I12
tp228
a(S'w'
I5
tp229
a(S'p2_vo'
I10
tp230
a(S'w'
I729
tp231
a(S'p1_vo'
I11
tp232
a(S'w'
I5
tp233
a(S'p2_vo'
I9
tp234
a(S'w'
I732
tp235
a(S'p2_vo'
I8
tp236
a(S'w'
I731
tp237
a(S'p1_vo'
I10
tp238
a(S'w'
I733
tp239
a(S'p1_vo'
I9
tp240
a(S'w'
I734
tp241
a(S'p1_vo'
I8
tp242
a(S'w'
I735
tp243
a(S'p1_vo'
I13
tp244
a(S'w'
I4
tp245
a(S'w'
I728
tp246
a(S'p1_vo'
I12
tp247
a(S'w'
I734
tp248
a(S'p1_vo'
I11
tp249
a(S'w'
I1469
tp250
a(S'p1_vo'
I10
tp251
a(S'w'
I4
tp252
a(S'p2_vo'
I7
tp253
a(S'w'
I729
tp254
a(S'p1_vo'
I9
tp255
a(S'w'
I5
tp256
a(S'p2_vo'
I6
tp257
a(S'w'
I728
tp258
a(S'p1_vo'
I8
tp259
a(S'w'
I5
tp260
a(S'p2_vo'
I5
tp261
a(S'w'
I730
tp262
a(S'p1_vo'
I13
tp263
a(S'w'
I4
tp264
a(S'w'
I5
tp265
a(S'p2_vo'
I11
tp266
a(S'w'
I4
tp267
a(S'w'
I8
tp268
a(S'tr_ll'
I1
tp269
a(S'w'
I712
tp270
a(S'p1_vo'
I12
tp271
a(S'w'
I5
tp272
a(S'p2_vo'
I10
tp273
a(S'w'
I729
tp274
a(S'p1_vo'
I11
tp275
a(S'w'
I5
tp276
a(S'p2_vo'
I9
tp277
a(S'w'
I732
tp278
a(S'p2_vo'
I8
tp279
a(S'w'
I731
tp280
a(S'p1_vo'
I10
tp281
a(S'w'
I4
tp282
a(S'p2_vo'
I7
tp283
a(S'w'
I729
tp284
a(S'p1_vo'
I9
tp285
a(S'w'
I5
tp286
a(S'p2_vo'
I6
tp287
a(S'w'
I729
tp288
a(S'p1_vo'
I8
tp289
a(S'w'
I5
tp290
a(S'p2_vo'
I5
tp291
a(S'w'
I731
tp292
a(S'p1_vo'
I13
tp293
a(S'w'
I4
tp294
a(S'w'
I5
tp295
a(S'p2_vo'
I11
tp296
a(S'w'
I4
tp297
a(S'w'
I9
tp298
a(S'tr_ll'
I1
tp299
a(S'w'
I709
tp300
a(S'p1_vo'
I12
tp301
a(S'w'
I5
tp302
a(S'p2_vo'
I10
tp303
a(S'w'
I729
tp304
a(S'p1_vo'
I11
tp305
a(S'w'
I5
tp306
a(S'p2_vo'
I9
tp307
a(S'w'
I733
tp308
a(S'p2_vo'
I8
tp309
a(S'w'
I11004
tp310
a(S'p1_vo'
I10
tp311
a(S'w'
I4
tp312
a(S'p2_vo'
I7
tp313
a(S'w'
I729
tp314
a(S'p1_vo'
I9
tp315
a(S'w'
I5
tp316
a(S'p2_vo'
I6
tp317
a(S'w'
I728
tp318
a(S'p1_vo'
I8
tp319
a(S'w'
I5
tp320
a(S'p2_vo'
I5
tp321
a(S'w'
I730
tp322
a(S'p1_vo'
I13
tp323
a(S'w'
I4
tp324
a(S'p1_tl'
I240
tp325
a(S'w'
I7
tp326
a(S'p2_vo'
I11
tp327
a(S'w'
I2
tp328
a(S'p2_ll'
I1
tp329
a(S'p2_th'
I1
tp330
a(S'w'
I1
tp331
a(S'p2_tl'
I224
tp332
a(S'w'
I9
tp333
a(S'tr_ll'
I1
tp334
a(S'tr_th'
I1
tp335
a(S'w'
I1
tp336
a(S'tr_tl'
I224
tp337
a(S'w'
I709
tp338
a(S'p1_vo'
I12
tp339
a(S'w'
I5
tp340
a(S'p2_vo'
I10
tp341
a(S'w'
I729
tp342
a(S'p1_vo'
I11
tp343
a(S'w'
I5
tp344
a(S'p2_vo'
I9
tp345
a(S'w'
I733
tp346
a(S'p2_vo'
I8
tp347
a(S'w'
I730
tp348
a(S'p1_vo'
I10
tp349
a(S'w'
I733
tp350
a(S'p1_vo'
I9
tp351
a(S'w'
I734
tp352
a(S'p1_vo'
I8
tp353
a(S'w'
I735
tp354
a(S'p1_vo'
I13
tp355
a(S'w'
I3
tp356
a(S'p1_tl'
I254
tp357
a(S'w'
I730
tp358
a(S'p1_vo'
I12
tp359
a(S'w'
I733
tp360
a(S'p1_vo'
I11
tp361
a(S'w'
I1469
tp362
a(S'p1_vo'
I10
tp363
a(S'w'
I733
tp364
a(S'p1_vo'
I9
tp365
a(S'w'
I734
tp366
a(S'p1_vo'
I8
tp367
a(S'w'
I734
tp368
a(S'p1_vo'
I13
tp369
a(S'w'
I3
tp370
a(S'p1_ll'
I1
tp371
a(S'p1_th'
I1
tp372
a(S'p1_tl'
I29
tp373
a(S'w'
I730
tp374
a(S'p1_vo'
I12
tp375
a(S'w'
I734
tp376
a(S'p1_vo'
I11
tp377
a(S'w'
I1469
tp378
a(S'p1_vo'
I10
tp379
a(S'w'
I732
tp380
a(S'p1_vo'
I9
tp381
a(S'w'
I734
tp382
a(S'p1_vo'
I8
tp383
a(S'w'
I735
tp384
a(S'p1_vo'
I13
tp385
a(S'w'
I4
tp386
a(S'p1_ll'
I1
tp387
a(S'p1_th'
I0
tp388
a(S'p1_tl'
I190
tp389
a(S'w'
I729
tp390
a(S'p1_vo'
I12
tp391
a(S'w'
I733
tp392
a(S'p1_vo'
I11
tp393
a(S'w'
I1469
tp394
a(S'p1_vo'
I10
tp395
a(S'w'
I733
tp396
a(S'p1_vo'
I9
tp397
a(S'w'
I734
tp398
a(S'p1_vo'
I8
tp399
a(S'w'
I734
tp400
a(S'p1_vo'
I13
tp401
a(S'w'
I4
tp402
a(S'p1_tl'
I213
tp403
a(S'w'
I729
tp404
a(S'p1_vo'
I12
tp405
a(S'w'
I734
tp406
a(S'p1_vo'
I11
tp407
a(S'w'
I1469
tp408
a(S'p1_vo'
I10
tp409
a(S'w'
I732
tp410
a(S'p1_vo'
I9
tp411
a(S'w'
I734
tp412
a(S'p1_vo'
I8
tp413
a(S'w'
I735
tp414
a(S'p1_vo'
I13
tp415
a(S'w'
I4
tp416
a(S'p1_tl'
I240
tp417
a(S'w'
I729
tp418
a(S'p1_vo'
I12
tp419
a(S'w'
I734
tp420
a(S'p1_vo'
I11
tp421
a(S'w'
I1468
tp422
a(S'p1_vo'
I10
tp423
a(S'w'
I4
tp424
a(S'p2_vo'
I7
tp425
a(S'w'
I729
tp426
a(S'p1_vo'
I9
tp427
a(S'w'
I5
tp428
a(S'p2_vo'
I6
tp429
a(S'w'
I729
tp430
a(S'p1_vo'
I8
tp431
a(S'w'
I5
tp432
a(S'p2_vo'
I5
tp433
a(S'w'
I731
tp434
a(S'p1_vo'
I13
tp435
a(S'w'
I4
tp436
a(S'p1_tl'
I160
tp437
a(S'w'
I6
tp438
a(S'p2_vo'
I11
tp439
a(S'w'
I3
tp440
a(S'p2_ll'
I1
tp441
a(S'p2_th'
I0
tp442
a(S'w'
I1
tp443
a(S'p2_tl'
I240
tp444
a(S'w'
I9
tp445
a(S'tr_ll'
I1
tp446
a(S'tr_tl'
I125
tp447
a(S'w'
I708
tp448
a(S'p1_vo'
I12
tp449
a(S'w'
I5
tp450
a(S'p2_vo'
I10
tp451
a(S'w'
I729
tp452
a(S'p1_vo'
I11
tp453
a(S'w'
I5
tp454
a(S'p2_vo'
I9
tp455
a(S'w'
I733
tp456
a(S'p2_vo'
I8
tp457
a(S'w'
I11004
tp458
a(S'p1_vo'
I10
tp459
a(S'w'
I4
tp460
a(S'p2_vo'
I7
tp461
a(S'w'
I729
tp462
a(S'p1_vo'
I9
tp463
a(S'w'
I5
tp464
a(S'p2_vo'
I6
tp465
a(S'w'
I728
tp466
a(S'p1_vo'
I8
tp467
a(S'w'
I5
tp468
a(S'p2_vo'
I5
tp469
a(S'w'
I730
tp470
a(S'p1_vo'
I13
tp471
a(S'w'
I4
tp472
a(S'w'
I5
tp473
a(S'p2_vo'
I11
tp474
a(S'w'
I4
tp475
a(S'w'
I8
tp476
a(S'tr_ll'
I1
tp477
a(S'w'
I712
tp478
a(S'p1_vo'
I12
tp479
a(S'w'
I5
tp480
a(S'p2_vo'
I10
tp481
a(S'w'
I729
tp482
a(S'p1_vo'
I11
tp483
a(S'w'
I5
tp484
a(S'p2_vo'
I9
tp485
a(S'w'
I733
tp486
a(S'p2_vo'
I8
tp487
a(S'w'
I730
tp488
a(S'p1_vo'
I10
tp489
a(S'w'
I4
tp490
a(S'p2_vo'
I7
tp491
a(S'w'
I729
tp492
a(S'p1_vo'
I9
tp493
a(S'w'
I5
tp494
a(S'p2_vo'
I6
tp495
a(S'w'
I729
tp496
a(S'p1_vo'
I8
tp497
a(S'w'
I5
tp498
a(S'p2_vo'
I5
tp499
a(S'w'
I730
tp500
a(S'p1_vo'
I13
tp501
a(S'w'
I4
tp502
a(S'w'
I5
tp503
a(S'p2_vo'
I11
tp504
a(S'w'
I4
tp505
a(S'w'
I8
tp506
a(S'tr_ll'
I1
tp507
a(S'w'
I711
tp508
a(S'p1_vo'
I12
tp509
a(S'w'
I5
tp510
a(S'p2_vo'
I10
tp511
a(S'w'
I729
tp512
a(S'p1_vo'
I11
tp513
a(S'w'
I5
tp514
a(S'p2_vo'
I9
tp515
a(S'w'
I733
tp516
a(S'p2_vo'
I8
tp517
a(S'w'
I731
tp518
a(S'p1_vo'
I10
tp519
a(S'w'
I4
tp520
a(S'p2_vo'
I7
tp521
a(S'w'
I729
tp522
a(S'p1_vo'
I9
tp523
a(S'w'
I5
tp524
a(S'p2_vo'
I6
tp525
a(S'w'
I728
tp526
a(S'p1_vo'
I8
tp527
a(S'w'
I5
tp528
a(S'p2_vo'
I5
tp529
a(S'w'
I730
tp530
a(S'p1_vo'
I13
tp531
a(S'w'
I4
tp532
a(S'w'
I5
tp533
a(S'p2_vo'
I11
tp534
a(S'w'
I4
tp535
a(S'w'
I8
tp536
a(S'tr_ll'
I1
tp537
a(S'w'
I713
tp538
a(S'p1_vo'
I12
tp539
a(S'w'
I4
tp540
a(S'p2_vo'
I10
tp541
a(S'w'
I730
tp542
a(S'p1_vo'
I11
tp543
a(S'w'
I4
tp544
a(S'p2_vo'
I9
tp545
a(S'w'
I733
tp546
a(S'p2_vo'
I8
tp547
a(S'w'
I730
tp548
a(S'p1_vo'
I10
tp549
a(S'w'
I4
tp550
a(S'p2_vo'
I7
tp551
a(S'w'
I730
tp552
a(S'p1_vo'
I9
tp553
a(S'w'
I4
tp554
a(S'p2_vo'
I6
tp555
a(S'w'
I730
tp556
a(S'p1_vo'
I8
tp557
a(S'w'
I4
tp558
a(S'p2_vo'
I5
tp559
a(S'w'
I730
tp560
a(S'p1_vo'
I13
tp561
a(S'w'
I4
tp562
a(S'p1_tl'
I240
tp563
a(S'w'
I6
tp564
a(S'p2_vo'
I11
tp565
a(S'w'
I4
tp566
a(S'p2_ll'
I1
tp567
a(S'p2_th'
I1
tp568
a(S'p2_tl'
I64
tp569
a(S'w'
I10
tp570
a(S'tr_ll'
I1
tp571
a(S'w'
I709
tp572
a(S'p1_vo'
I12
tp573
a(S'w'
I5
tp574
a(S'p2_vo'
I10
tp575
a(S'w'
I728
tp576
a(S'p1_vo'
I11
tp577
a(S'w'
I5
tp578
a(S'p2_vo'
I9
tp579
a(S'w'
I733
tp580
a(S'p2_vo'
I8
tp581
a(S'w'
I731
tp582
a(S'p1_vo'
I10
tp583
a(S'w'
I733
tp584
a(S'p1_vo'
I9
tp585
a(S'w'
I734
tp586
a(S'p1_vo'
I8
tp587
a(S'w'
I734
tp588
a(S'p1_vo'
I13
tp589
a(S'w'
I3
tp590
a(S'p1_tl'
I254
tp591
a(S'w'
I730
tp592
a(S'p1_vo'
I12
tp593
a(S'w'
I734
tp594
a(S'p1_vo'
I11
tp595
a(S'w'
I1468
tp596
a(S'p1_vo'
I10
tp597
a(S'w'
I733
tp598
a(S'p1_vo'
I9
tp599
a(S'w'
I734
tp600
a(S'p1_vo'
I8
tp601
a(S'w'
I735
tp602
a(S'p1_vo'
I13
tp603
a(S'w'
I3
tp604
a(S'p1_ll'
I1
tp605
a(S'p1_th'
I1
tp606
a(S'p1_tl'
I29
tp607
a(S'w'
I730
tp608
a(S'p1_vo'
I12
tp609
a(S'w'
I733
tp610
a(S'p1_vo'
I11
tp611
a(S'w'
I1469
tp612
a(S'p1_vo'
I10
tp613
a(S'w'
I733
tp614
a(S'p1_vo'
I9
tp615
a(S'w'
I734
tp616
a(S'p1_vo'
I8
tp617
a(S'w'
I734
tp618
a(S'p1_vo'
I13
tp619
a(S'w'
I4
tp620
a(S'p1_ll'
I1
tp621
a(S'p1_th'
I0
tp622
a(S'p1_tl'
I190
tp623
a(S'w'
I729
tp624
a(S'p1_vo'
I12
tp625
a(S'w'
I734
tp626
a(S'p1_vo'
I11
tp627
a(S'w'
I1469
tp628
a(S'p1_vo'
I10
tp629
a(S'w'
I732
tp630
a(S'p1_vo'
I9
tp631
a(S'w'
I734
tp632
a(S'p1_vo'
I8
tp633
a(S'w'
I735
tp634
a(S'p1_vo'
I13
tp635
a(S'w'
I4
tp636
a(S'p1_tl'
I213
tp637
a(S'w'
I729
tp638
a(S'p1_vo'
I12
tp639
a(S'w'
I734
tp640
a(S'p1_vo'
I11
tp641
a(S'w'
I1468
tp642
a(S'p1_vo'
I10
tp643
a(S'w'
I733
tp644
a(S'p1_vo'
I9
tp645
a(S'w'
I734
tp646
a(S'p1_vo'
I8
tp647
a(S'w'
I734
tp648
a(S'p1_vo'
I13
tp649
a(S'w'
I4
tp650
a(S'p1_tl'
I240
tp651
a(S'w'
I729
tp652
a(S'p1_vo'
I12
tp653
a(S'w'
I734
tp654
a(S'p1_vo'
I11
tp655
a(S'w'
I1469
tp656
a(S'p1_vo'
I10
tp657
a(S'w'
I4
tp658
a(S'p2_vo'
I7
tp659
a(S'w'
I728
tp660
a(S'p1_vo'
I9
tp661
a(S'w'
I5
tp662
a(S'p2_vo'
I6
tp663
a(S'w'
I729
tp664
a(S'p1_vo'
I8
tp665
a(S'w'
I5
tp666
a(S'p2_vo'
I5
tp667
a(S'w'
I731
tp668
a(S'p1_vo'
I13
tp669
a(S'w'
I4
tp670
a(S'p1_tl'
I169
tp671
a(S'w'
I6
tp672
a(S'p2_vo'
I11
tp673
a(S'w'
I4
tp674
a(S'p2_ll'
I1
tp675
a(S'p2_th'
I0
tp676
a(S'p2_tl'
I213
tp677
a(S'w'
I9
tp678
a(S'tr_ll'
I1
tp679
a(S'w'
I1
tp680
a(S'tr_tl'
I171
tp681
a(S'w'
I708
tp682
a(S'p1_vo'
I12
tp683
a(S'w'
I5
tp684
a(S'p2_vo'
I10
tp685
a(S'w'
I729
tp686
a(S'p1_vo'
I11
tp687
a(S'w'
I5
tp688
a(S'p2_vo'
I9
tp689
a(S'w'
I732
tp690
a(S'p2_vo'
I8
tp691
a(S'w'
I11004
tp692
a(S'p1_vo'
I10
tp693
a(S'w'
I4
tp694
a(S'p2_vo'
I7
tp695
a(S'w'
I729
tp696
a(S'p1_vo'
I9
tp697
a(S'w'
I5
tp698
a(S'p2_vo'
I6
tp699
a(S'w'
I729
tp700
a(S'p1_vo'
I8
tp701
a(S'w'
I5
tp702
a(S'p2_vo'
I5
tp703
a(S'w'
I730
tp704
a(S'p1_vo'
I13
tp705
a(S'w'
I4
tp706
a(S'w'
I5
tp707
a(S'p2_vo'
I11
tp708
a(S'w'
I4
tp709
a(S'w'
I9
tp710
a(S'tr_ll'
I1
tp711
a(S'w'
I710
tp712
a(S'p1_vo'
I12
tp713
a(S'w'
I5
tp714
a(S'p2_vo'
I10
tp715
a(S'w'
I729
tp716
a(S'p1_vo'
I11
tp717
a(S'w'
I5
tp718
a(S'p2_vo'
I9
tp719
a(S'w'
I733
tp720
a(S'p2_vo'
I8
tp721
a(S'w'
I731
tp722
a(S'p1_vo'
I10
tp723
a(S'w'
I4
tp724
a(S'p2_vo'
I7
tp725
a(S'w'
I729
tp726
a(S'p1_vo'
I9
tp727
a(S'w'
I5
tp728
a(S'p2_vo'
I6
tp729
a(S'w'
I728
tp730
a(S'p1_vo'
I8
tp731
a(S'w'
I5
tp732
a(S'p2_vo'
I5
tp733
a(S'w'
I730
tp734
a(S'p1_vo'
I13
tp735
a(S'w'
I4
tp736
a(S'w'
I5
tp737
a(S'p2_vo'
I11
tp738
a(S'w'
I4
tp739
a(S'w'
I720
tp740
a(S'p1_vo'
I12
tp741
a(S'w'
I5
tp742
a(S'p2_vo'
I10
tp743
a(S'w'
I729
tp744
a(S'p1_vo'
I11
tp745
a(S'w'
I5
tp746
a(S'p2_vo'
I9
tp747
a(S'w'
I733
tp748
a(S'p2_vo'
I8
tp749
a(S'w'
I730
tp750
a(S'p1_vo'
I10
tp751
a(S'w'
I4
tp752
a(S'p2_vo'
I7
tp753
a(S'w'
I729
tp754
a(S'p1_vo'
I9
tp755
a(S'w'
I5
tp756
a(S'p2_vo'
I6
tp757
a(S'w'
I729
tp758
a(S'p1_vo'
I8
tp759
a(S'w'
I5
tp760
a(S'p2_vo'
I5
tp761
a(S'w'
I730
tp762
a(S'p1_vo'
I13
tp763
a(S'w'
I4
tp764
a(S'w'
I5
tp765
a(S'p2_vo'
I11
tp766
a(S'w'
I4
tp767
a(S'w'
I9
tp768
a(S'tr_ll'
I1
tp769
a(S'w'
I711
tp770
a(S'p1_vo'
I12
tp771
a(S'w'
I5
tp772
a(S'p2_vo'
I10
tp773
a(S'w'
I728
tp774
a(S'p1_vo'
I11
tp775
a(S'w'
I5
tp776
a(S'p2_vo'
I9
tp777
a(S'w'
I733
tp778
a(S'p2_vo'
I8
tp779
a(S'w'
I731
tp780
a(S'p1_vo'
I10
tp781
a(S'w'
I4
tp782
a(S'p2_vo'
I7
tp783
a(S'w'
I729
tp784
a(S'p1_vo'
I9
tp785
a(S'w'
I5
tp786
a(S'p2_vo'
I6
tp787
a(S'w'
I728
tp788
a(S'p1_vo'
I8
tp789
a(S'w'
I5
tp790
a(S'p2_vo'
I5
tp791
a(S'w'
I731
tp792
a(S'p1_vo'
I13
tp793
a(S'w'
I4
tp794
a(S'p1_tl'
I142
tp795
a(S'w'
I5
tp796
a(S'p2_vo'
I11
tp797
a(S'w'
I4
tp798
a(S'w'
I10
tp799
a(S'tr_ll'
I1
tp800
a(S'w'
I709
tp801
a(S'p1_vo'
I12
tp802
a(S'w'
I5
tp803
a(S'p2_vo'
I10
tp804
a(S'w'
I729
tp805
a(S'p1_vo'
I11
tp806
a(S'w'
I5
tp807
a(S'p2_vo'
I9
tp808
a(S'w'
I733
tp809
a(S'p2_vo'
I8
tp810
a(S'w'
I11004
tp811
a(S'p1_vo'
I10
tp812
a(S'w'
I4
tp813
a(S'p2_vo'
I7
tp814
a(S'w'
I728
tp815
a(S'p1_vo'
I9
tp816
a(S'w'
I5
tp817
a(S'p2_vo'
I6
tp818
a(S'w'
I729
tp819
a(S'p1_vo'
I8
tp820
a(S'w'
I5
tp821
a(S'p2_vo'
I5
tp822
a(S'w'
I731
tp823
a(S'p1_vo'
I13
tp824
a(S'w'
I4
tp825
a(S'w'
I5
tp826
a(S'p2_vo'
I11
tp827
a(S'w'
I4
tp828
a(S'w'
I4
tp829
a(S'tr_lh'
I0
tp830
a(S'tr_lr'
I48
tp831
a(S'w'
I6
tp832
a(S'tr_ll'
I1
tp833
a(S'w'
I709
tp834
a(S'p1_vo'
I12
tp835
a(S'w'
I5
tp836
a(S'p2_vo'
I10
tp837
a(S'w'
I728
tp838
a(S'p1_vo'
I11
tp839
a(S'w'
I5
tp840
a(S'p2_vo'
I9
tp841
a(S'w'
I733
tp842
a(S'p2_vo'
I8
tp843
a(S'w'
I11004
tp844
a(S'p1_vo'
I10
tp845
a(S'w'
I4
tp846
a(S'p2_vo'
I7
tp847
a(S'w'
I729
tp848
a(S'p1_vo'
I9
tp849
a(S'w'
I5
tp850
a(S'p2_vo'
I6
tp851
a(S'w'
I729
tp852
a(S'p1_vo'
I8
tp853
a(S'w'
I5
tp854
a(S'p2_vo'
I5
tp855
a(S'w'
I731
tp856
a(S'p1_vo'
I13
tp857
a(S'w'
I4
tp858
a(S'p1_tl'
I127
tp859
a(S'w'
I5
tp860
a(S'p2_vo'
I11
tp861
a(S'w'
I4
tp862
a(S'w'
I10
tp863
a(S'tr_ll'
I1
tp864
a(S'tr_tl'
I64
tp865
a(S'w'
I708
tp866
a(S'p1_vo'
I12
tp867
a(S'w'
I5
tp868
a(S'p2_vo'
I10
tp869
a(S'w'
I729
tp870
a(S'p1_vo'
I11
tp871
a(S'w'
I5
tp872
a(S'p2_vo'
I9
tp873
a(S'w'
I733
tp874
a(S'p2_vo'
I8
tp875
a(S'w'
I11004
tp876
a(S'p1_vo'
I10
tp877
a(S'w'
I4
tp878
a(S'p2_vo'
I7
tp879
a(S'w'
I729
tp880
a(S'p1_vo'
I9
tp881
a(S'w'
I5
tp882
a(S'p2_vo'
I6
tp883
a(S'w'
I728
tp884
a(S'p1_vo'
I8
tp885
a(S'w'
I5
tp886
a(S'p2_vo'
I5
tp887
a(S'w'
I730
tp888
a(S'p1_vo'
I13
tp889
a(S'w'
I4
tp890
a(S'p1_tl'
I142
tp891
a(S'w'
I5
tp892
a(S'p2_vo'
I11
tp893
a(S'w'
I4
tp894
a(S'w'
I9
tp895
a(S'tr_ll'
I1
tp896
a(S'w'
I1
tp897
a(S'tr_tl'
I171
tp898
a(S'w'
I710
tp899
a(S'p1_vo'
I12
tp900
a(S'w'
I5
tp901
a(S'p2_vo'
I10
tp902
a(S'w'
I729
tp903
a(S'p1_vo'
I11
tp904
a(S'w'
I5
tp905
a(S'p2_vo'
I9
tp906
a(S'w'
I733
tp907
a(S'p2_vo'
I8
tp908
a(S'w'
I730
tp909
a(S'p1_vo'
I10
tp910
a(S'w'
I4
tp911
a(S'p2_vo'
I7
tp912
a(S'w'
I729
tp913
a(S'p1_vo'
I9
tp914
a(S'w'
I5
tp915
a(S'p2_vo'
I6
tp916
a(S'w'
I729
tp917
a(S'p1_vo'
I8
tp918
a(S'w'
I5
tp919
a(S'p2_vo'
I5
tp920
a(S'w'
I730
tp921
a(S'p1_vo'
I13
tp922
a(S'w'
I4
tp923
a(S'w'
I5
tp924
a(S'p2_vo'
I11
tp925
a(S'w'
I4
tp926
a(S'w'
I719
tp927
a(S'p1_vo'
I12
tp928
a(S'w'
I5
tp929
a(S'p2_vo'
I10
tp930
a(S'w'
I729
tp931
a(S'p1_vo'
I11
tp932
a(S'w'
I5
tp933
a(S'p2_vo'
I9
tp934
a(S'w'
I733
tp935
a(S'p2_vo'
I8
tp936
a(S'w'
I731
tp937
a(S'p1_vo'
I10
tp938
a(S'w'
I4
tp939
a(S'p2_vo'
I7
tp940
a(S'w'
I729
tp941
a(S'p1_vo'
I9
tp942
a(S'w'
I5
tp943
a(S'p2_vo'
I6
tp944
a(S'w'
I728
tp945
a(S'p1_vo'
I8
tp946
a(S'w'
I5
tp947
a(S'p2_vo'
I5
tp948
a(S'w'
I730
tp949
a(S'p1_vo'
I13
tp950
a(S'w'
I4
tp951
a(S'w'
I5
tp952
a(S'p2_vo'
I11
tp953
a(S'w'
I4
tp954
a(S'w'
I720
tp955
a(S'p1_vo'
I12
tp956
a(S'w'
I5
tp957
a(S'p2_vo'
I10
tp958
a(S'w'
I729
tp959
a(S'p1_vo'
I11
tp960
a(S'w'
I5
tp961
a(S'p2_vo'
I9
tp962
a(S'w'
I733
tp963
a(S'p2_vo'
I8
tp964
a(S'w'
I730
tp965
a(S'p1_vo'
I10
tp966
a(S'w'
I4
tp967
a(S'p2_vo'
I7
tp968
a(S'w'
I729
tp969
a(S'p1_vo'
I9
tp970
a(S'w'
I5
tp971
a(S'p2_vo'
I6
tp972
a(S'w'
I729
tp973
a(S'p1_vo'
I8
tp974
a(S'w'
I5
tp975
a(S'p2_vo'
I5
tp976
a(S'w'
I731
tp977
a(S'p1_vo'
I13
tp978
a(S'w'
I4
tp979
a(S'p1_tl'
I127
tp980
a(S'w'
I5
tp981
a(S'p2_vo'
I11
tp982
a(S'w'
I4
tp983
a(S'w'
I10
tp984
a(S'tr_ll'
I1
tp985
a(S'tr_tl'
I64
tp986
a(S'w'
I709
tp987
a(S'p1_vo'
I12
tp988
a(S'w'
I5
tp989
a(S'p2_vo'
I10
tp990
a(S'w'
I728
tp991
a(S'p1_vo'
I11
tp992
a(S'w'
I5
tp993
a(S'p2_vo'
I9
tp994
a(S'w'
I733
tp995
a(S'p2_vo'
I8
tp996
a(S'w'
I11004
tp997
a(S'p1_vo'
I10
tp998
a(S'w'
I4
tp999
a(S'p2_vo'
I7
tp1000
a(S'w'
I729
tp1001
a(S'p1_vo'
I9
tp1002
a(S'w'
I5
tp1003
a(S'p2_vo'
I6
tp1004
a(S'w'
I729
tp1005
a(S'p1_vo'
I8
tp1006
a(S'w'
I5
tp1007
a(S'p2_vo'
I5
tp1008
a(S'w'
I729
tp1009
a(S'p1_vo'
I13
tp1010
a(S'w'
I4
tp1011
a(S'p1_tl'
I142
tp1012
a(S'w'
I5
tp1013
a(S'p2_vo'
I11
tp1014
a(S'w'
I4
tp1015
a(S'w'
I9
tp1016
a(S'tr_ll'
I1
tp1017
a(S'w'
I1
tp1018
a(S'tr_tl'
I171
tp1019
a(S'w'
I710
tp1020
a(S'p1_vo'
I12
tp1021
a(S'w'
I5
tp1022
a(S'p2_vo'
I10
tp1023
a(S'w'
I729
tp1024
a(S'p1_vo'
I11
tp1025
a(S'w'
I5
tp1026
a(S'p2_vo'
I9
tp1027
a(S'w'
I733
tp1028
a(S'p2_vo'
I8
tp1029
a(S'w'
I731
tp1030
a(S'p1_vo'
I10
tp1031
a(S'w'
I4
tp1032
a(S'p2_vo'
I7
tp1033
a(S'w'
I728
tp1034
a(S'p1_vo'
I9
tp1035
a(S'w'
I5
tp1036
a(S'p2_vo'
I6
tp1037
a(S'w'
I729
tp1038
a(S'p1_vo'
I8
tp1039
a(S'w'
I5
tp1040
a(S'p2_vo'
I5
tp1041
a(S'w'
I730
tp1042
a(S'p1_vo'
I13
tp1043
a(S'w'
I4
tp1044
a(S'w'
I5
tp1045
a(S'p2_vo'
I11
tp1046
a(S'w'
I4
tp1047
a(S'w'
I720
tp1048
a(S'p1_vo'
I12
tp1049
a(S'w'
I5
tp1050
a(S'p2_vo'
I10
tp1051
a(S'w'
I729
tp1052
a(S'p1_vo'
I11
tp1053
a(S'w'
I5
tp1054
a(S'p2_vo'
I9
tp1055
a(S'w'
I732
tp1056
a(S'p2_vo'
I8
tp1057
a(S'w'
I731
tp1058
a(S'p1_vo'
I10
tp1059
a(S'w'
I4
tp1060
a(S'p2_vo'
I7
tp1061
a(S'w'
I729
tp1062
a(S'p1_vo'
I9
tp1063
a(S'w'
I5
tp1064
a(S'p2_vo'
I6
tp1065
a(S'w'
I729
tp1066
a(S'p1_vo'
I8
tp1067
a(S'w'
I5
tp1068
a(S'p2_vo'
I5
tp1069
a(S'w'
I729
tp1070
a(S'p1_vo'
I13
tp1071
a(S'w'
I4
tp1072
a(S'w'
I5
tp1073
a(S'p2_vo'
I11
tp1074
a(S'w'
I4
tp1075
a(S'w'
I720
tp1076
a(S'p1_vo'
I12
tp1077
a(S'w'
I5
tp1078
a(S'p2_vo'
I10
tp1079
a(S'w'
I729
tp1080
a(S'p1_vo'
I11
tp1081
a(S'w'
I5
tp1082
a(S'p2_vo'
I9
tp1083
a(S'w'
I733
tp1084
a(S'p2_vo'
I8
tp1085
a(S'w'
I731
tp1086
a(S'p1_vo'
I10
tp1087
a(S'w'
I4
tp1088
a(S'p2_vo'
I7
tp1089
a(S'w'
I728
tp1090
a(S'p1_vo'
I9
tp1091
a(S'w'
I5
tp1092
a(S'p2_vo'
I6
tp1093
a(S'w'
I729
tp1094
a(S'p1_vo'
I8
tp1095
a(S'w'
I5
tp1096
a(S'p2_vo'
I5
tp1097
a(S'w'
I731
tp1098
a(S'p1_vo'
I13
tp1099
a(S'w'
I4
tp1100
a(S'p1_tl'
I127
tp1101
a(S'w'
I5
tp1102
a(S'p2_vo'
I11
tp1103
a(S'w'
I4
tp1104
a(S'w'
I10
tp1105
a(S'tr_ll'
I1
tp1106
a(S'tr_tl'
I64
tp1107
a(S'w'
I709
tp1108
a(S'p1_vo'
I12
tp1109
a(S'w'
I5
tp1110
a(S'p2_vo'
I10
tp1111
a(S'w'
I729
tp1112
a(S'p1_vo'
I11
tp1113
a(S'w'
I5
tp1114
a(S'p2_vo'
I9
tp1115
a(S'w'
I732
tp1116
a(S'p2_vo'
I8
tp1117
a(S'w'
I11004
tp1118
a(S'p1_vo'
I10
tp1119
a(S'w'
I4
tp1120
a(S'p2_vo'
I7
tp1121
a(S'w'
I729
tp1122
a(S'p1_vo'
I9
tp1123
a(S'w'
I5
tp1124
a(S'p2_vo'
I6
tp1125
a(S'w'
I729
tp1126
a(S'p1_vo'
I8
tp1127
a(S'w'
I5
tp1128
a(S'p2_vo'
I5
tp1129
a(S'w'
I731
tp1130
a(S'p1_vo'
I13
tp1131
a(S'w'
I4
tp1132
a(S'w'
I5
tp1133
a(S'p2_vo'
I11
tp1134
a(S'w'
I4
tp1135
a(S'w'
I8
tp1136
a(S'tr_ll'
I1
tp1137
a(S'tr_th'
I2
tp1138
a(S'w'
I1
tp1139
a(S'tr_tl'
I128
tp1140
a(S'w'
I709
tp1141
a(S'p1_vo'
I12
tp1142
a(S'w'
I5
tp1143
a(S'p2_vo'
I10
tp1144
a(S'w'
I729
tp1145
a(S'p1_vo'
I11
tp1146
a(S'w'
I5
tp1147
a(S'p2_vo'
I9
tp1148
a(S'w'
I733
tp1149
a(S'p2_vo'
I8
tp1150
a(S'w'
I2943
tp1151
a(S'tr_ll'
I1
tp1152
a(S'w'
I5137
tp1153
a(S'tr_ll'
I1
tp1154
a(S'w'
I2924
tp1155
a(S'p1_vo'
I10
tp1156
a(S'w'
I4
tp1157
a(S'p2_vo'
I7
tp1158
a(S'w'
I729
tp1159
a(S'p1_vo'
I9
tp1160
a(S'w'
I5
tp1161
a(S'p2_vo'
I6
tp1162
a(S'w'
I728
tp1163
a(S'p1_vo'
I8
tp1164
a(S'w'
I5
tp1165
a(S'p2_vo'
I5
tp1166
a(S'w'
I731
tp1167
a(S'p1_vo'
I13
tp1168
a(S'w'
I5
tp1169
a(S'p1_tl'
I106
tp1170
a(S'w'
I5
tp1171
a(S'p2_vo'
I11
tp1172
a(S'w'
I4
tp1173
a(S'p2_tl'
I169
tp1174
a(S'w'
I10
tp1175
a(S'tr_ll'
I1
tp1176
a(S'tr_th'
I1
tp1177
a(S'tr_tl'
I29
tp1178
a(S'w'
I708
tp1179
a(S'p1_vo'
I12
tp1180
a(S'w'
I5
tp1181
a(S'p2_vo'
I10
tp1182
a(S'w'
I729
tp1183
a(S'p1_vo'
I11
tp1184
a(S'w'
I5
tp1185
a(S'p2_vo'
I9
tp1186
a(S'w'
I733
tp1187
a(S'p2_vo'
I8
tp1188
a(S'w'
I11003
tp1189
a(S'p1_vo'
I10
tp1190
a(S'w'
I4
tp1191
a(S'p2_vo'
I7
tp1192
a(S'w'
I729
tp1193
a(S'p1_vo'
I9
tp1194
a(S'w'
I5
tp1195
a(S'p2_vo'
I6
tp1196
a(S'w'
I729
tp1197
a(S'p1_vo'
I8
tp1198
a(S'w'
I5
tp1199
a(S'p2_vo'
I5
tp1200
a(S'w'
I731
tp1201
a(S'p1_vo'
I13
tp1202
a(S'w'
I4
tp1203
a(S'w'
I6
tp1204
a(S'p2_vo'
I11
tp1205
a(S'w'
I4
tp1206
a(S'w'
I9
tp1207
a(S'tr_ll'
I1
tp1208
a(S'tr_tl'
I171
tp1209
a(S'w'
I709
tp1210
a(S'p1_vo'
I12
tp1211
a(S'w'
I5
tp1212
a(S'p2_vo'
I10
tp1213
a(S'w'
I728
tp1214
a(S'p1_vo'
I11
tp1215
a(S'w'
I5
tp1216
a(S'p2_vo'
I9
tp1217
a(S'w'
I733
tp1218
a(S'p2_vo'
I8
tp1219
a(S'w'
I11004
tp1220
a(S'p1_vo'
I10
tp1221
a(S'w'
I4
tp1222
a(S'p2_vo'
I7
tp1223
a(S'w'
I729
tp1224
a(S'p1_vo'
I9
tp1225
a(S'w'
I5
tp1226
a(S'p2_vo'
I6
tp1227
a(S'w'
I729
tp1228
a(S'p1_vo'
I8
tp1229
a(S'w'
I5
tp1230
a(S'p2_vo'
I5
tp1231
a(S'w'
I732
tp1232
a(S'p1_vo'
I13
tp1233
a(S'w'
I4
tp1234
a(S'p1_tl'
I80
tp1235
a(S'w'
I8
tp1236
a(S'p2_vo'
I11
tp1237
a(S'w'
I4
tp1238
a(S'p2_tl'
I127
tp1239
a(S'w'
I4
tp1240
a(S'tr_lh'
I1
tp1241
a(S'tr_lr'
I127
tp1242
a(S'w'
I8
tp1243
a(S'tr_ll'
I1
tp1244
a(S'tr_tl'
I64
tp1245
a(S'w'
I702
tp1246
a(S'p1_vo'
I12
tp1247
a(S'w'
I5
tp1248
a(S'p2_vo'
I10
tp1249
a(S'w'
I729
tp1250
a(S'p1_vo'
I11
tp1251
a(S'w'
I5
tp1252
a(S'p2_vo'
I9
tp1253
a(S'w'
I733
tp1254
a(S'p2_vo'
I8
tp1255
a(S'w'
I46960
tp1256
a(S'p1_vo'
I10
tp1257
a(S'w'
I4
tp1258
a(S'p2_vo'
I7
tp1259
a(S'w'
I728
tp1260
a(S'p1_vo'
I9
tp1261
a(S'w'
I5
tp1262
a(S'p2_vo'
I6
tp1263
a(S'w'
I729
tp1264
a(S'p1_vo'
I8
tp1265
a(S'w'
I5
tp1266
a(S'p2_vo'
I5
tp1267
a(S'w'
I728
tp1268
a(S'p1_du'
I0
tp1269
a(S'p1_vo'
I0
tp1270
a(S'w'
I3
tp1271
a(S'p2_du'
I0
tp1272
a(S'p2_vo'
I0
tp1273
a(S'w'
I2
tp1274
a(S'tr_lh'
I0
tp1275
a(S'tr_lr'
I0
tp1276
a(S'w'
I68267
tp1277
a.