(lp1
(S'clock'
p2
I1789772
tp3
a(S'p1_cv'
I1
tp4
a(S'p2_cv'
I1
tp5
a(S'no_cv'
I1
tp6
a(S'p1_ll'
I0
tp7
a(S'p2_ll'
I0
tp8
a(S'tr_ll'
I0
tp9
a(S'no_ll'
I0
tp10
a(S'p1_tl'
I169
tp11
a(S'p1_ll'
I15
tp12
a(S'tr_lr'
I7
tp13
a(S'p1_du'
I1
tp14
a(S'p1_vo'
I13
tp15
a(S'p2_du'
I1
tp16
a(S'w'
I5
tp17
a(S'p1_vo'
I11
tp18
a(S'w'
I734
tp19
a(S'p1_vo'
I9
tp20
a(S'w'
I734
tp21
a(S'p1_vo'
I7
tp22
a(S'w'
I3672
tp23
a(S'p1_tl'
I239
tp24
a(S'w'
I1
tp25
a(S'p1_ll'
I15
tp26
a(S'tr_lr'
I23
tp27
a(S'w'
I5
tp28
a(S'p1_vo'
I13
tp29
a(S'w'
I725
tp30
a(S'p1_vo'
I11
tp31
a(S'w'
I734
tp32
a(S'p1_vo'
I9
tp33
a(S'w'
I733
tp34
a(S'p1_vo'
I7
tp35
a(S'w'
I738
tp36
a(S'w'
I4
tp37
a(S'p2_tl'
I80
tp38
a(S'w'
I1
tp39
a(S'p2_ll'
I15
tp40
a(S'p2_th'
I1
tp41
a(S'tr_lr'
I55
tp42
a(S'w'
I5
tp43
a(S'p2_vo'
I13
tp44
a(S'w'
I725
tp45
a(S'p2_vo'
I11
tp46
a(S'w'
I734
tp47
a(S'p2_vo'
I9
tp48
a(S'w'
I734
tp49
a(S'p2_vo'
I7
tp50
a(S'w'
I732
tp51
a(S'p1_tl'
I190
tp52
a(S'w'
I1
tp53
a(S'p1_ll'
I15
tp54
a(S'w'
I4
tp55
a(S'p1_vo'
I13
tp56
a(S'w'
I725
tp57
a(S'p1_vo'
I11
tp58
a(S'w'
I734
tp59
a(S'p1_vo'
I9
tp60
a(S'w'
I734
tp61
a(S'p1_vo'
I7
tp62
a(S'w'
I742
tp63
a(S'p2_tl'
I220
tp64
a(S'p2_ll'
I15
tp65
a(S'w'
I5
tp66
a(S'p2_vo'
I13
tp67
a(S'w'
I725
tp68
a(S'p2_vo'
I11
tp69
a(S'w'
I734
tp70
a(S'p2_vo'
I9
tp71
a(S'w'
I734
tp72
a(S'p2_vo'
I7
tp73
a(S'w'
I732
tp74
a(S'p1_tl'
I13
tp75
a(S'w'
I1
tp76
a(S'p1_ll'
I15
tp77
a(S'p1_th'
I1
tp78
a(S'w'
I5
tp79
a(S'p1_vo'
I13
tp80
a(S'w'
I12
tp81
a(S'w'
I5
tp82
a(S'tr_tl'
I169
tp83
a(S'tr_ll'
I1
tp84
a(S'tr_lr'
I23
tp85
a(S'w'
I708
tp86
a(S'p1_vo'
I11
tp87
a(S'w'
I733
tp88
a(S'p1_vo'
I9
tp89
a(S'w'
I734
tp90
a(S'p1_vo'
I7
tp91
a(S'w'
I742
tp92
a(S'p2_tl'
I121
tp93
a(S'w'
I1
tp94
a(S'p2_ll'
I15
tp95
a(S'w'
I5
tp96
a(S'p2_vo'
I13
tp97
a(S'w'
I725
tp98
a(S'p2_vo'
I11
tp99
a(S'w'
I733
tp100
a(S'p2_vo'
I9
tp101
a(S'w'
I734
tp102
a(S'p2_vo'
I7
tp103
a(S'w'
I733
tp104
a(S'p1_tl'
I134
tp105
a(S'w'
I1
tp106
a(S'p1_ll'
I15
tp107
a(S'p1_th'
I0
tp108
a(S'w'
I4
tp109
a(S'p1_vo'
I13
tp110
a(S'w'
I14
tp111
a(S'tr_tl'
I239
tp112
a(S'tr_ll'
I1
tp113
a(S'w'
I711
tp114
a(S'p1_vo'
I11
tp115
a(S'w'
I734
tp116
a(S'p1_vo'
I9
tp117
a(S'w'
I733
tp118
a(S'p1_vo'
I7
tp119
a(S'w'
I742
tp120
a(S'p2_tl'
I23
tp121
a(S'p2_ll'
I15
tp122
a(S'p2_th'
I2
tp123
a(S'w'
I5
tp124
a(S'p2_vo'
I13
tp125
a(S'w'
I726
tp126
a(S'p2_vo'
I11
tp127
a(S'w'
I734
tp128
a(S'p2_vo'
I9
tp129
a(S'w'
I734
tp130
a(S'p2_vo'
I7
tp131
a(S'w'
I735
tp132
a(S'p1_tl'
I190
tp133
a(S'w'
I1
tp134
a(S'p1_ll'
I15
tp135
a(S'w'
I5
tp136
a(S'p1_vo'
I11
tp137
a(S'w'
I14
tp138
a(S'tr_tl'
I190
tp139
a(S'tr_ll'
I1
tp140
a(S'w'
I707
tp141
a(S'p1_vo'
I9
tp142
a(S'w'
I734
tp143
a(S'p1_vo'
I7
tp144
a(S'w'
I734
tp145
a(S'p1_vo'
I5
tp146
a(S'w'
I746
tp147
a(S'p2_tl'
I10
tp148
a(S'p2_ll'
I15
tp149
a(S'p2_th'
I1
tp150
a(S'w'
I5
tp151
a(S'p2_vo'
I11
tp152
a(S'w'
I721
tp153
a(S'p2_vo'
I9
tp154
a(S'w'
I734
tp155
a(S'p2_vo'
I7
tp156
a(S'w'
I734
tp157
a(S'p2_vo'
I5
tp158
a(S'w'
I732
tp159
a(S'p1_tl'
I13
tp160
a(S'w'
I1
tp161
a(S'p1_ll'
I15
tp162
a(S'p1_th'
I1
tp163
a(S'w'
I5
tp164
a(S'p1_vo'
I11
tp165
a(S'w'
I13
tp166
a(S'tr_tl'
I13
tp167
a(S'w'
I1
tp168
a(S'tr_ll'
I1
tp169
a(S'tr_th'
I1
tp170
a(S'w'
I711
tp171
a(S'p1_vo'
I9
tp172
a(S'w'
I733
tp173
a(S'p1_vo'
I7
tp174
a(S'w'
I734
tp175
a(S'p1_vo'
I5
tp176
a(S'w'
I742
tp177
a(S'p2_tl'
I121
tp178
a(S'w'
I1
tp179
a(S'p2_ll'
I15
tp180
a(S'w'
I5
tp181
a(S'p2_vo'
I11
tp182
a(S'w'
I725
tp183
a(S'p2_vo'
I9
tp184
a(S'w'
I733
tp185
a(S'p2_vo'
I7
tp186
a(S'w'
I734
tp187
a(S'p2_vo'
I5
tp188
a(S'w'
I733
tp189
a(S'p1_tl'
I213
tp190
a(S'w'
I1
tp191
a(S'p1_ll'
I15
tp192
a(S'p1_th'
I0
tp193
a(S'w'
I4
tp194
a(S'p1_vo'
I11
tp195
a(S'w'
I14
tp196
a(S'tr_tl'
I134
tp197
a(S'w'
I1
tp198
a(S'tr_ll'
I1
tp199
a(S'tr_th'
I0
tp200
a(S'w'
I710
tp201
a(S'p1_vo'
I9
tp202
a(S'w'
I734
tp203
a(S'p1_vo'
I7
tp204
a(S'w'
I733
tp205
a(S'p1_vo'
I5
tp206
a(S'w'
I742
tp207
a(S'p2_tl'
I23
tp208
a(S'p2_ll'
I15
tp209
a(S'p2_th'
I2
tp210
a(S'w'
I5
tp211
a(S'p2_vo'
I11
tp212
a(S'w'
I726
tp213
a(S'p2_vo'
I9
tp214
a(S'w'
I734
tp215
a(S'p2_vo'
I7
tp216
a(S'w'
I734
tp217
a(S'p2_vo'
I5
tp218
a(S'w'
I731
tp219
a(S'p1_tl'
I46
tp220
a(S'w'
I1
tp221
a(S'p1_ll'
I15
tp222
a(S'p1_th'
I1
tp223
a(S'w'
I5
tp224
a(S'p1_vo'
I11
tp225
a(S'w'
I14
tp226
a(S'tr_tl'
I190
tp227
a(S'tr_ll'
I1
tp228
a(S'w'
I711
tp229
a(S'p1_vo'
I9
tp230
a(S'w'
I734
tp231
a(S'p1_vo'
I7
tp232
a(S'w'
I734
tp233
a(S'p1_vo'
I5
tp234
a(S'w'
I742
tp235
a(S'p2_tl'
I168
tp236
a(S'w'
I1
tp237
a(S'p2_ll'
I15
tp238
a(S'p2_th'
I1
tp239
a(S'w'
I5
tp240
a(S'p2_vo'
I11
tp241
a(S'w'
I724
tp242
a(S'p2_vo'
I9
tp243
a(S'w'
I734
tp244
a(S'p2_vo'
I7
tp245
a(S'w'
I734
tp246
a(S'p2_vo'
I5
tp247
a(S'w'
I733
tp248
a(S'p1_tl'
I151
tp249
a(S'w'
I1
tp250
a(S'p1_ll'
I15
tp251
a(S'p1_th'
I0
tp252
a(S'w'
I4
tp253
a(S'p1_vo'
I11
tp254
a(S'w'
I14
tp255
a(S'tr_tl'
I13
tp256
a(S'tr_ll'
I1
tp257
a(S'tr_th'
I1
tp258
a(S'w'
I711
tp259
a(S'p1_vo'
I9
tp260
a(S'w'
I733
tp261
a(S'p1_vo'
I7
tp262
a(S'w'
I734
tp263
a(S'p1_vo'
I5
tp264
a(S'w'
I742
tp265
a(S'p2_tl'
I89
tp266
a(S'p2_ll'
I15
tp267
a(S'p2_th'
I2
tp268
a(S'w'
I5
tp269
a(S'p2_vo'
I11
tp270
a(S'w'
I726
tp271
a(S'p2_vo'
I9
tp272
a(S'w'
I733
tp273
a(S'p2_vo'
I7
tp274
a(S'w'
I734
tp275
a(S'p2_vo'
I5
tp276
a(S'w'
I736
tp277
a(S'p1_tl'
I169
tp278
a(S'w'
I1
tp279
a(S'p1_ll'
I15
tp280
a(S'w'
I5
tp281
a(S'p1_vo'
I9
tp282
a(S'w'
I14
tp283
a(S'tr_tl'
I213
tp284
a(S'tr_ll'
I1
tp285
a(S'tr_th'
I0
tp286
a(S'w'
I707
tp287
a(S'p1_vo'
I7
tp288
a(S'w'
I734
tp289
a(S'p1_vo'
I5
tp290
a(S'w'
I733
tp291
a(S'p1_vo'
I3
tp292
a(S'w'
I746
tp293
a(S'p2_tl'
I43
tp294
a(S'p2_ll'
I15
tp295
a(S'p2_th'
I1
tp296
a(S'w'
I5
tp297
a(S'p2_vo'
I9
tp298
a(S'w'
I722
tp299
a(S'p2_vo'
I7
tp300
a(S'w'
I734
tp301
a(S'p2_vo'
I5
tp302
a(S'w'
I734
tp303
a(S'p2_vo'
I3
tp304
a(S'w'
I731
tp305
a(S'p1_tl'
I239
tp306
a(S'w'
I1
tp307
a(S'p1_ll'
I15
tp308
a(S'w'
I5
tp309
a(S'p1_vo'
I9
tp310
a(S'w'
I13
tp311
a(S'tr_tl'
I46
tp312
a(S'w'
I1
tp313
a(S'tr_ll'
I1
tp314
a(S'tr_th'
I1
tp315
a(S'w'
I711
tp316
a(S'p1_vo'
I7
tp317
a(S'w'
I734
tp318
a(S'p1_vo'
I5
tp319
a(S'w'
I734
tp320
a(S'p1_vo'
I3
tp321
a(S'w'
I742
tp322
a(S'p2_tl'
I80
tp323
a(S'w'
I1
tp324
a(S'p2_ll'
I15
tp325
a(S'w'
I5
tp326
a(S'p2_vo'
I9
tp327
a(S'w'
I724
tp328
a(S'p2_vo'
I7
tp329
a(S'w'
I734
tp330
a(S'p2_vo'
I5
tp331
a(S'w'
I734
tp332
a(S'p2_vo'
I3
tp333
a(S'w'
I733
tp334
a(S'p1_tl'
I190
tp335
a(S'w'
I1
tp336
a(S'p1_ll'
I15
tp337
a(S'w'
I4
tp338
a(S'p1_vo'
I9
tp339
a(S'w'
I14
tp340
a(S'tr_tl'
I151
tp341
a(S'w'
I1
tp342
a(S'tr_ll'
I1
tp343
a(S'tr_th'
I0
tp344
a(S'w'
I710
tp345
a(S'p1_vo'
I7
tp346
a(S'w'
I733
tp347
a(S'p1_vo'
I5
tp348
a(S'w'
I734
tp349
a(S'p1_vo'
I3
tp350
a(S'w'
I742
tp351
a(S'p2_tl'
I220
tp352
a(S'p2_ll'
I15
tp353
a(S'w'
I5
tp354
a(S'p2_vo'
I9
tp355
a(S'w'
I726
tp356
a(S'p2_vo'
I7
tp357
a(S'w'
I733
tp358
a(S'p2_vo'
I5
tp359
a(S'w'
I734
tp360
a(S'p2_vo'
I3
tp361
a(S'w'
I732
tp362
a(S'p1_tl'
I13
tp363
a(S'w'
I1
tp364
a(S'p1_ll'
I15
tp365
a(S'p1_th'
I1
tp366
a(S'w'
I5
tp367
a(S'p1_vo'
I9
tp368
a(S'w'
I14
tp369
a(S'tr_tl'
I169
tp370
a(S'tr_ll'
I1
tp371
a(S'w'
I711
tp372
a(S'p1_vo'
I7
tp373
a(S'w'
I734
tp374
a(S'p1_vo'
I5
tp375
a(S'w'
I733
tp376
a(S'p1_vo'
I3
tp377
a(S'w'
I742
tp378
a(S'p2_tl'
I121
tp379
a(S'w'
I1
tp380
a(S'p2_ll'
I15
tp381
a(S'w'
I5
tp382
a(S'p2_vo'
I9
tp383
a(S'w'
I725
tp384
a(S'p2_vo'
I7
tp385
a(S'w'
I734
tp386
a(S'p2_vo'
I5
tp387
a(S'w'
I734
tp388
a(S'p2_vo'
I3
tp389
a(S'w'
I732
tp390
a(S'p1_tl'
I134
tp391
a(S'w'
I1
tp392
a(S'p1_ll'
I15
tp393
a(S'p1_th'
I0
tp394
a(S'w'
I4
tp395
a(S'p1_vo'
I9
tp396
a(S'w'
I14
tp397
a(S'tr_tl'
I239
tp398
a(S'tr_ll'
I1
tp399
a(S'w'
I711
tp400
a(S'p1_vo'
I7
tp401
a(S'w'
I734
tp402
a(S'p1_vo'
I5
tp403
a(S'w'
I734
tp404
a(S'p1_vo'
I3
tp405
a(S'w'
I742
tp406
a(S'p2_tl'
I23
tp407
a(S'p2_ll'
I15
tp408
a(S'p2_th'
I2
tp409
a(S'w'
I5
tp410
a(S'p2_vo'
I9
tp411
a(S'w'
I725
tp412
a(S'p2_vo'
I7
tp413
a(S'w'
I734
tp414
a(S'p2_vo'
I5
tp415
a(S'w'
I734
tp416
a(S'p2_vo'
I3
tp417
a(S'w'
I736
tp418
a(S'p1_tl'
I190
tp419
a(S'w'
I1
tp420
a(S'p1_ll'
I15
tp421
a(S'w'
I5
tp422
a(S'p1_vo'
I7
tp423
a(S'w'
I14
tp424
a(S'tr_tl'
I190
tp425
a(S'tr_ll'
I1
tp426
a(S'w'
I707
tp427
a(S'p1_vo'
I5
tp428
a(S'w'
I733
tp429
a(S'p1_vo'
I3
tp430
a(S'w'
I734
tp431
a(S'p1_vo'
I1
tp432
a(S'w'
I746
tp433
a(S'p2_tl'
I10
tp434
a(S'p2_ll'
I15
tp435
a(S'p2_th'
I1
tp436
a(S'w'
I5
tp437
a(S'p2_vo'
I7
tp438
a(S'w'
I722
tp439
a(S'p2_vo'
I5
tp440
a(S'w'
I733
tp441
a(S'p2_vo'
I3
tp442
a(S'w'
I734
tp443
a(S'p2_vo'
I1
tp444
a(S'w'
I732
tp445
a(S'p1_tl'
I13
tp446
a(S'w'
I1
tp447
a(S'p1_ll'
I15
tp448
a(S'p1_th'
I1
tp449
a(S'w'
I5
tp450
a(S'p1_vo'
I7
tp451
a(S'w'
I13
tp452
a(S'tr_tl'
I13
tp453
a(S'w'
I1
tp454
a(S'tr_ll'
I1
tp455
a(S'tr_th'
I1
tp456
a(S'w'
I711
tp457
a(S'p1_vo'
I5
tp458
a(S'w'
I734
tp459
a(S'p1_vo'
I3
tp460
a(S'w'
I733
tp461
a(S'p1_vo'
I1
tp462
a(S'w'
I742
tp463
a(S'p2_tl'
I121
tp464
a(S'w'
I1
tp465
a(S'p2_ll'
I15
tp466
a(S'w'
I5
tp467
a(S'p2_vo'
I7
tp468
a(S'w'
I725
tp469
a(S'p2_vo'
I5
tp470
a(S'w'
I734
tp471
a(S'p2_vo'
I3
tp472
a(S'w'
I734
tp473
a(S'p2_vo'
I1
tp474
a(S'w'
I732
tp475
a(S'p1_tl'
I213
tp476
a(S'w'
I1
tp477
a(S'p1_ll'
I15
tp478
a(S'p1_th'
I0
tp479
a(S'w'
I4
tp480
a(S'p1_vo'
I7
tp481
a(S'w'
I14
tp482
a(S'tr_tl'
I134
tp483
a(S'w'
I1
tp484
a(S'tr_ll'
I1
tp485
a(S'tr_th'
I0
tp486
a(S'w'
I710
tp487
a(S'p1_vo'
I5
tp488
a(S'w'
I734
tp489
a(S'p1_vo'
I3
tp490
a(S'w'
I734
tp491
a(S'p1_vo'
I1
tp492
a(S'w'
I742
tp493
a(S'p2_tl'
I23
tp494
a(S'p2_ll'
I15
tp495
a(S'p2_th'
I2
tp496
a(S'w'
I5
tp497
a(S'p2_vo'
I7
tp498
a(S'w'
I725
tp499
a(S'p2_vo'
I5
tp500
a(S'w'
I734
tp501
a(S'p2_vo'
I3
tp502
a(S'w'
I734
tp503
a(S'p2_vo'
I1
tp504
a(S'w'
I732
tp505
a(S'p1_tl'
I46
tp506
a(S'w'
I1
tp507
a(S'p1_ll'
I15
tp508
a(S'p1_th'
I1
tp509
a(S'w'
I5
tp510
a(S'p1_vo'
I7
tp511
a(S'w'
I14
tp512
a(S'tr_tl'
I190
tp513
a(S'tr_ll'
I1
tp514
a(S'w'
I711
tp515
a(S'p1_vo'
I5
tp516
a(S'w'
I733
tp517
a(S'p1_vo'
I3
tp518
a(S'w'
I734
tp519
a(S'p1_vo'
I1
tp520
a(S'w'
I742
tp521
a(S'p2_tl'
I168
tp522
a(S'w'
I1
tp523
a(S'p2_ll'
I15
tp524
a(S'p2_th'
I1
tp525
a(S'w'
I5
tp526
a(S'p2_vo'
I7
tp527
a(S'w'
I725
tp528
a(S'p2_vo'
I5
tp529
a(S'w'
I733
tp530
a(S'p2_vo'
I3
tp531
a(S'w'
I734
tp532
a(S'p2_vo'
I1
tp533
a(S'w'
I733
tp534
a(S'p1_tl'
I151
tp535
a(S'w'
I1
tp536
a(S'p1_ll'
I15
tp537
a(S'p1_th'
I0
tp538
a(S'w'
I4
tp539
a(S'p1_vo'
I7
tp540
a(S'w'
I14
tp541
a(S'tr_tl'
I13
tp542
a(S'tr_ll'
I1
tp543
a(S'tr_th'
I1
tp544
a(S'w'
I711
tp545
a(S'p1_vo'
I5
tp546
a(S'w'
I734
tp547
a(S'p1_vo'
I3
tp548
a(S'w'
I733
tp549
a(S'p1_vo'
I1
tp550
a(S'w'
I745
tp551
a(S'p2_tl'
I89
tp552
a(S'p2_ll'
I15
tp553
a(S'p2_th'
I2
tp554
a(S'w'
I5
tp555
a(S'p2_vo'
I5
tp556
a(S'w'
I723
tp557
a(S'p2_vo'
I3
tp558
a(S'w'
I734
tp559
a(S'p2_vo'
I1
tp560
a(S'w'
I734
tp561
a(S'p2_vo'
I0
tp562
a(S'w'
I735
tp563
a(S'p1_tl'
I169
tp564
a(S'w'
I1
tp565
a(S'p1_ll'
I15
tp566
a(S'w'
I5
tp567
a(S'p1_vo'
I5
tp568
a(S'w'
I14
tp569
a(S'tr_tl'
I213
tp570
a(S'tr_ll'
I1
tp571
a(S'tr_th'
I0
tp572
a(S'w'
I707
tp573
a(S'p1_vo'
I3
tp574
a(S'w'
I734
tp575
a(S'p1_vo'
I1
tp576
a(S'w'
I734
tp577
a(S'p1_vo'
I0
tp578
a(S'w'
I742
tp579
a(S'p2_tl'
I43
tp580
a(S'w'
I1
tp581
a(S'p2_ll'
I15
tp582
a(S'p2_th'
I1
tp583
a(S'w'
I5
tp584
a(S'p2_vo'
I5
tp585
a(S'w'
I724
tp586
a(S'p2_vo'
I3
tp587
a(S'w'
I734
tp588
a(S'p2_vo'
I1
tp589
a(S'w'
I734
tp590
a(S'p2_vo'
I0
tp591
a(S'w'
I732
tp592
a(S'p1_tl'
I239
tp593
a(S'w'
I1
tp594
a(S'p1_ll'
I15
tp595
a(S'w'
I5
tp596
a(S'p1_vo'
I5
tp597
a(S'w'
I13
tp598
a(S'tr_tl'
I46
tp599
a(S'w'
I1
tp600
a(S'tr_ll'
I1
tp601
a(S'tr_th'
I1
tp602
a(S'w'
I711
tp603
a(S'p1_vo'
I3
tp604
a(S'w'
I733
tp605
a(S'p1_vo'
I1
tp606
a(S'w'
I734
tp607
a(S'p1_vo'
I0
tp608
a(S'w'
I742
tp609
a(S'p2_tl'
I80
tp610
a(S'w'
I1
tp611
a(S'p2_ll'
I15
tp612
a(S'w'
I5
tp613
a(S'p2_vo'
I5
tp614
a(S'w'
I725
tp615
a(S'p2_vo'
I3
tp616
a(S'w'
I733
tp617
a(S'p2_vo'
I1
tp618
a(S'w'
I734
tp619
a(S'p2_vo'
I0
tp620
a(S'w'
I733
tp621
a(S'p1_tl'
I190
tp622
a(S'w'
I1
tp623
a(S'p1_ll'
I15
tp624
a(S'w'
I4
tp625
a(S'p1_vo'
I5
tp626
a(S'w'
I14
tp627
a(S'tr_tl'
I151
tp628
a(S'w'
I1
tp629
a(S'tr_ll'
I1
tp630
a(S'tr_th'
I0
tp631
a(S'w'
I710
tp632
a(S'p1_vo'
I3
tp633
a(S'w'
I734
tp634
a(S'p1_vo'
I1
tp635
a(S'w'
I733
tp636
a(S'p1_vo'
I0
tp637
a(S'w'
I742
tp638
a(S'p2_tl'
I220
tp639
a(S'p2_ll'
I15
tp640
a(S'w'
I5
tp641
a(S'p2_vo'
I5
tp642
a(S'w'
I726
tp643
a(S'p2_vo'
I3
tp644
a(S'w'
I734
tp645
a(S'p2_vo'
I1
tp646
a(S'w'
I734
tp647
a(S'p2_vo'
I0
tp648
a(S'w'
I731
tp649
a(S'p1_tl'
I13
tp650
a(S'w'
I1
tp651
a(S'p1_ll'
I15
tp652
a(S'p1_th'
I1
tp653
a(S'w'
I5
tp654
a(S'p1_vo'
I5
tp655
a(S'w'
I14
tp656
a(S'tr_tl'
I169
tp657
a(S'tr_ll'
I1
tp658
a(S'w'
I711
tp659
a(S'p1_vo'
I3
tp660
a(S'w'
I734
tp661
a(S'p1_vo'
I1
tp662
a(S'w'
I734
tp663
a(S'p1_vo'
I0
tp664
a(S'w'
I742
tp665
a(S'p2_tl'
I121
tp666
a(S'w'
I1
tp667
a(S'p2_ll'
I15
tp668
a(S'w'
I5
tp669
a(S'p2_vo'
I5
tp670
a(S'w'
I724
tp671
a(S'p2_vo'
I3
tp672
a(S'w'
I734
tp673
a(S'p2_vo'
I1
tp674
a(S'w'
I734
tp675
a(S'p2_vo'
I0
tp676
a(S'w'
I733
tp677
a(S'p1_tl'
I134
tp678
a(S'w'
I1
tp679
a(S'p1_ll'
I15
tp680
a(S'p1_th'
I0
tp681
a(S'w'
I4
tp682
a(S'p1_vo'
I5
tp683
a(S'w'
I14
tp684
a(S'tr_tl'
I239
tp685
a(S'tr_ll'
I1
tp686
a(S'w'
I711
tp687
a(S'p1_vo'
I3
tp688
a(S'w'
I733
tp689
a(S'p1_vo'
I1
tp690
a(S'w'
I734
tp691
a(S'p1_vo'
I0
tp692
a(S'w'
I742
tp693
a(S'p2_tl'
I23
tp694
a(S'p2_ll'
I15
tp695
a(S'p2_th'
I2
tp696
a(S'w'
I5
tp697
a(S'p2_vo'
I5
tp698
a(S'w'
I726
tp699
a(S'p2_vo'
I3
tp700
a(S'w'
I733
tp701
a(S'p2_vo'
I1
tp702
a(S'w'
I734
tp703
a(S'p2_vo'
I0
tp704
a(S'w'
I736
tp705
a(S'p1_tl'
I190
tp706
a(S'w'
I1
tp707
a(S'p1_ll'
I15
tp708
a(S'w'
I5
tp709
a(S'p1_vo'
I3
tp710
a(S'w'
I721
tp711
a(S'p1_vo'
I1
tp712
a(S'w'
I734
tp713
a(S'p1_vo'
I0
tp714
a(S'w'
I1479
tp715
a(S'p2_tl'
I10
tp716
a(S'p2_ll'
I15
tp717
a(S'p2_th'
I1
tp718
a(S'w'
I5
tp719
a(S'p2_vo'
I3
tp720
a(S'w'
I722
tp721
a(S'p2_vo'
I1
tp722
a(S'w'
I734
tp723
a(S'p2_vo'
I0
tp724
a(S'w'
I1465
tp725
a(S'p1_tl'
I13
tp726
a(S'w'
I1
tp727
a(S'p1_ll'
I15
tp728
a(S'p1_th'
I1
tp729
a(S'w'
I5
tp730
a(S'p1_vo'
I3
tp731
a(S'w'
I725
tp732
a(S'p1_vo'
I1
tp733
a(S'w'
I734
tp734
a(S'p1_vo'
I0
tp735
a(S'w'
I1476
tp736
a(S'p2_tl'
I121
tp737
a(S'w'
I1
tp738
a(S'p2_ll'
I15
tp739
a(S'w'
I5
tp740
a(S'p2_vo'
I3
tp741
a(S'w'
I724
tp742
a(S'p2_vo'
I1
tp743
a(S'w'
I734
tp744
a(S'p2_vo'
I0
tp745
a(S'w'
I1467
tp746
a(S'p1_tl'
I213
tp747
a(S'w'
I1
tp748
a(S'p1_ll'
I15
tp749
a(S'p1_th'
I0
tp750
a(S'w'
I4
tp751
a(S'p1_vo'
I3
tp752
a(S'w'
I725
tp753
a(S'p1_vo'
I1
tp754
a(S'w'
I733
tp755
a(S'p1_vo'
I0
tp756
a(S'w'
I1476
tp757
a(S'p2_tl'
I23
tp758
a(S'p2_ll'
I15
tp759
a(S'p2_th'
I2
tp760
a(S'w'
I5
tp761
a(S'p2_vo'
I3
tp762
a(S'w'
I726
tp763
a(S'p2_vo'
I1
tp764
a(S'w'
I733
tp765
a(S'p2_vo'
I0
tp766
a(S'w'
I1466
tp767
a(S'p1_tl'
I46
tp768
a(S'w'
I1
tp769
a(S'p1_ll'
I15
tp770
a(S'p1_th'
I1
tp771
a(S'w'
I5
tp772
a(S'p1_vo'
I3
tp773
a(S'w'
I725
tp774
a(S'p1_vo'
I1
tp775
a(S'w'
I734
tp776
a(S'p1_vo'
I0
tp777
a(S'w'
I1475
tp778
a(S'p2_tl'
I168
tp779
a(S'w'
I1
tp780
a(S'p2_ll'
I15
tp781
a(S'p2_th'
I1
tp782
a(S'w'
I5
tp783
a(S'p2_vo'
I3
tp784
a(S'w'
I725
tp785
a(S'p2_vo'
I1
tp786
a(S'w'
I734
tp787
a(S'p2_vo'
I0
tp788
a(S'w'
I1466
tp789
a(S'p1_tl'
I151
tp790
a(S'w'
I1
tp791
a(S'p1_ll'
I15
tp792
a(S'p1_th'
I0
tp793
a(S'w'
I4
tp794
a(S'p1_vo'
I3
tp795
a(S'w'
I725
tp796
a(S'p1_vo'
I1
tp797
a(S'w'
I734
tp798
a(S'p1_vo'
I0
tp799
a(S'w'
I1476
tp800
a(S'p2_tl'
I89
tp801
a(S'p2_ll'
I15
tp802
a(S'p2_th'
I2
tp803
a(S'w'
I5
tp804
a(S'p2_vo'
I3
tp805
a(S'w'
I725
tp806
a(S'p2_vo'
I1
tp807
a(S'w'
I734
tp808
a(S'p2_vo'
I0
tp809
a(S'w'
I5129
tp810
a(S'p1_du'
I0
tp811
a(S'p2_du'
I0
tp812
a(S'w'
I1
tp813
a(S'tr_lr'
I0
tp814
a(S'tr_tl'
I0
tp815
a(S'tr_ll'
I0
tp816
a(S'w'
I733
tp817
a(S'tr_ll'
I0
tp818
a(S'w'
I734
tp819
a(S'tr_ll'
I0
tp820
a(S'w'
I734
tp821
a(S'tr_ll'
I0
tp822
a(S'w'
I734
tp823
a(S'tr_ll'
I0
tp824
a(S'w'
I734
tp825
a(S'tr_ll'
I0
tp826
a(S'w'
I733
tp827
a(S'tr_ll'
I0
tp828
a(S'w'
I734
tp829
a(S'tr_ll'
I0
tp830
a(S'w'
I734
tp831
a(S'tr_ll'
I0
tp832
a(S'w'
I734
tp833
a(S'tr_ll'
I0
tp834
a(S'w'
I734
tp835
a(S'tr_ll'
I0
tp836
a(S'w'
I733
tp837
a(S'tr_ll'
I0
tp838
a(S'w'
I734
tp839
a(S'tr_ll'
I0
tp840
a(S'w'
I734
tp841
a(S'tr_ll'
I0
tp842
a(S'w'
I734
tp843
a(S'tr_ll'
I0
tp844
a(S'w'
I734
tp845
a(S'tr_ll'
I0
tp846
a(S'w'
I733
tp847
a(S'tr_ll'
I0
tp848
a(S'w'
I734
tp849
a(S'tr_ll'
I0
tp850
a(S'w'
I734
tp851
a(S'tr_ll'
I0
tp852
a(S'w'
I734
tp853
a(S'tr_ll'
I0
tp854
a(S'w'
I734
tp855
a(S'tr_ll'
I0
tp856
a(S'w'
I733
tp857
a(S'tr_ll'
I0
tp858
a(S'w'
I734
tp859
a(S'tr_ll'
I0
tp860
a(S'w'
I734
tp861
a(S'tr_ll'
I0
tp862
a(S'w'
I734
tp863
a(S'tr_ll'
I0
tp864
a(S'w'
I733
tp865
a(S'tr_ll'
I0
tp866
a(S'w'
I734
tp867
a(S'tr_ll'
I0
tp868
a(S'w'
I734
tp869
a(S'tr_ll'
I0
tp870
a(S'w'
I734
tp871
a(S'tr_ll'
I0
tp872
a(S'w'
I734
tp873
a(S'tr_ll'
I0
tp874
a(S'w'
I733
tp875
a(S'tr_ll'
I0
tp876
a(S'w'
I734
tp877
a(S'tr_ll'
I0
tp878
a(S'w'
I734
tp879
a(S'tr_ll'
I0
tp880
a(S'w'
I734
tp881
a(S'tr_ll'
I0
tp882
a(S'w'
I734
tp883
a(S'tr_ll'
I0
tp884
a(S'w'
I733
tp885
a(S'tr_ll'
I0
tp886
a(S'w'
I734
tp887
a(S'tr_ll'
I0
tp888
a(S'w'
I734
tp889
a(S'tr_ll'
I0
tp890
a(S'w'
I734
tp891
a(S'tr_ll'
I0
tp892
a(S'w'
I734
tp893
a(S'tr_ll'
I0
tp894
a(S'w'
I733
tp895
a(S'tr_ll'
I0
tp896
a(S'w'
I734
tp897
a(S'tr_ll'
I0
tp898
a(S'w'
I734
tp899
a(S'tr_ll'
I0
tp900
a(S'w'
I734
tp901
a(S'tr_ll'
I0
tp902
a(S'w'
I734
tp903
a(S'tr_ll'
I0
tp904
a(S'w'
I733
tp905
a(S'tr_ll'
I0
tp906
a(S'w'
I734
tp907
a(S'tr_ll'
I0
tp908
a(S'w'
I734
tp909
a(S'tr_ll'
I0
tp910
a(S'w'
I734
tp911
a(S'tr_ll'
I0
tp912
a(S'w'
I733
tp913
a(S'tr_ll'
I0
tp914
a(S'w'
I734
tp915
a(S'tr_ll'
I0
tp916
a(S'w'
I734
tp917
a(S'tr_ll'
I0
tp918
a(S'w'
I734
tp919
a(S'tr_ll'
I0
tp920
a(S'w'
I734
tp921
a(S'tr_ll'
I0
tp922
a(S'w'
I733
tp923
a(S'tr_ll'
I0
tp924
a(S'w'
I734
tp925
a(S'tr_ll'
I0
tp926
a(S'w'
I734
tp927
a(S'tr_ll'
I0
tp928
a(S'w'
I734
tp929
a(S'tr_ll'
I0
tp930
a(S'w'
I734
tp931
a(S'tr_ll'
I0
tp932
a(S'w'
I733
tp933
a(S'tr_ll'
I0
tp934
a(S'w'
I734
tp935
a(S'tr_ll'
I0
tp936
a(S'w'
I734
tp937
a(S'tr_ll'
I0
tp938
a(S'w'
I734
tp939
a(S'tr_ll'
I0
tp940
a(S'w'
I734
tp941
a(S'tr_ll'
I0
tp942
a(S'w'
I733
tp943
a(S'tr_ll'
I0
tp944
a(S'w'
I734
tp945
a(S'tr_ll'
I0
tp946
a(S'w'
I734
tp947
a(S'tr_ll'
I0
tp948
a(S'w'
I734
tp949
a(S'tr_ll'
I0
tp950
a(S'w'
I139
tp951
a.