(lp1
(S'clock'
p2
I1789772
tp3
a(S'ch_no'
I1
tp4
a(S'ch_tr'
I1
tp5
a(S'ch_p2'
I1
tp6
a(S'ch_p1'
I1
tp7
a(S'p1_sn'
I1
tp8
a(S'p2_sn'
I1
tp9
a(S'tr_lh'
I1
tp10
a(S'p2_du'
I2
tp11
a(S'p1_du'
I2
tp12
a(S'w'
I35
tp13
a(S'no_np'
I13
tp14
a(S'no_ll'
I1
tp15
a(S'w'
I2
tp16
a(S'no_lh'
I1
tp17
a(S'no_cv'
I1
tp18
a(S'no_vo'
I15
tp19
a(S'w'
I18
tp20
a(S'tr_tl'
I128
tp21
a(S'w'
I1
tp22
a(S'tr_ll'
I1
tp23
a(S'tr_th'
I2
tp24
a(S'tr_lr'
I127
tp25
a(S'w'
I18
tp26
a(S'p2_tl'
I254
tp27
a(S'w'
I1
tp28
a(S'p2_ll'
I1
tp29
a(S'w'
I2
tp30
a(S'p2_du'
I0
tp31
a(S'p2_lh'
I1
tp32
a(S'p2_cv'
I1
tp33
a(S'p2_vo'
I6
tp34
a(S'w'
I18
tp35
a(S'p1_tl'
I64
tp36
a(S'p1_ll'
I1
tp37
a(S'p1_th'
I1
tp38
a(S'w'
I2
tp39
a(S'p1_du'
I0
tp40
a(S'p1_lh'
I1
tp41
a(S'p1_cv'
I1
tp42
a(S'p1_vo'
I5
tp43
a(S'w'
I1382
tp44
a(S'no_np'
I0
tp45
a(S'no_ll'
I1
tp46
a(S'w'
I1472
tp47
a(S'no_vo'
I0
tp48
a(S'w'
I1472
tp49
a(S'p2_vo'
I5
tp50
a(S'w'
I7
tp51
a(S'p1_vo'
I4
tp52
a(S'w'
I1452
tp53
a(S'w'
I1
tp54
a(S'no_ll'
I1
tp55
a(S'w'
I7
tp56
a(S'tr_lr'
I0
tp57
a(S'w'
I1464
tp58
a(S'p2_vo'
I4
tp59
a(S'w'
I1463
tp60
a(S'no_ll'
I1
tp61
a(S'w'
I2
tp62
a(S'no_vo'
I15
tp63
a(S'w'
I12
tp64
a(S'tr_ll'
I1
tp65
a(S'w'
I1
tp66
a(S'tr_lr'
I127
tp67
a(S'w'
I12
tp68
a(S'p1_vo'
I3
tp69
a(S'w'
I1445
tp70
a(S'no_vo'
I0
tp71
a(S'w'
I1472
tp72
a(S'p2_vo'
I3
tp73
a(S'w'
I1474
tp74
a(S'p1_vo'
I2
tp75
a(S'w'
I1455
tp76
a(S'tr_lr'
I0
tp77
a(S'w'
I7
tp78
a(S'p2_vo'
I2
tp79
a(S'w'
I2928
tp80
a(S'no_np'
I9
tp81
a(S'no_ll'
I1
tp82
a(S'w'
I2
tp83
a(S'no_vo'
I15
tp84
a(S'w'
I12
tp85
a(S'tr_ll'
I1
tp86
a(S'w'
I1
tp87
a(S'tr_lr'
I127
tp88
a(S'w'
I12
tp89
a(S'p2_ll'
I1
tp90
a(S'w'
I2
tp91
a(S'p2_vo'
I6
tp92
a(S'w'
I13
tp93
a(S'w'
I1
tp94
a(S'p1_ll'
I1
tp95
a(S'w'
I2
tp96
a(S'p1_vo'
I5
tp97
a(S'w'
I1422
tp98
a(S'no_np'
I0
tp99
a(S'no_ll'
I1
tp100
a(S'w'
I15
tp101
a(S'p2_vo'
I5
tp102
a(S'w'
I1455
tp103
a(S'no_vo'
I0
tp104
a(S'w'
I14
tp105
a(S'p2_vo'
I4
tp106
a(S'w'
I6
tp107
a(S'p1_vo'
I4
tp108
a(S'w'
I1452
tp109
a(S'p2_vo'
I3
tp110
a(S'w'
I7
tp111
a(S'p1_vo'
I3
tp112
a(S'w'
I1453
tp113
a(S'no_ll'
I1
tp114
a(S'w'
I7
tp115
a(S'tr_lr'
I0
tp116
a(S'w'
I7
tp117
a(S'p2_vo'
I2
tp118
a(S'w'
I7
tp119
a(S'p1_vo'
I2
tp120
a(S'w'
I1450
tp121
a(S'p2_vo'
I1
tp122
a(S'w'
I7
tp123
a(S'p1_vo'
I1
tp124
a(S'w'
I1456
tp125
a(S'no_ll'
I1
tp126
a(S'w'
I2
tp127
a(S'no_vo'
I15
tp128
a(S'w'
I12
tp129
a(S'tr_ll'
I1
tp130
a(S'w'
I1
tp131
a(S'tr_lr'
I127
tp132
a(S'w'
I11
tp133
a(S'p2_ll'
I1
tp134
a(S'w'
I3
tp135
a(S'p2_vo'
I6
tp136
a(S'w'
I11
tp137
a(S'w'
I1
tp138
a(S'p1_ll'
I1
tp139
a(S'w'
I2
tp140
a(S'p1_vo'
I5
tp141
a(S'w'
I1429
tp142
a(S'no_vo'
I0
tp143
a(S'w'
I4401
tp144
a(S'tr_lr'
I0
tp145
a(S'w'
I2944
tp146
a(S'no_np'
I13
tp147
a(S'no_ll'
I1
tp148
a(S'w'
I2
tp149
a(S'no_vo'
I15
tp150
a(S'w'
I12
tp151
a(S'tr_ll'
I1
tp152
a(S'w'
I1
tp153
a(S'tr_lr'
I127
tp154
a(S'w'
I1441
tp155
a(S'no_np'
I0
tp156
a(S'no_ll'
I1
tp157
a(S'w'
I1472
tp158
a(S'no_vo'
I0
tp159
a(S'w'
I2932
tp160
a(S'no_ll'
I1
tp161
a(S'w'
I7
tp162
a(S'tr_lr'
I0
tp163
a(S'w'
I2927
tp164
a(S'no_ll'
I1
tp165
a(S'w'
I2
tp166
a(S'no_vo'
I15
tp167
a(S'w'
I12
tp168
a(S'tr_ll'
I1
tp169
a(S'tr_lr'
I127
tp170
a(S'w'
I1458
tp171
a(S'no_vo'
I0
tp172
a(S'w'
I13
tp173
a(S'p2_vo'
I5
tp174
a(S'w'
I1465
tp175
a(S'p1_vo'
I4
tp176
a(S'w'
I2923
tp177
a(S'tr_lr'
I0
tp178
a(S'w'
I2935
tp179
a(S'no_np'
I9
tp180
a(S'no_ll'
I1
tp181
a(S'w'
I2
tp182
a(S'no_vo'
I15
tp183
a(S'w'
I12
tp184
a(S'tr_ll'
I1
tp185
a(S'w'
I1
tp186
a(S'tr_lr'
I127
tp187
a(S'w'
I1452
tp188
a(S'no_np'
I0
tp189
a(S'no_ll'
I1
tp190
a(S'w'
I1470
tp191
a(S'no_vo'
I0
tp192
a(S'w'
I14
tp193
a(S'p2_vo'
I4
tp194
a(S'w'
I2918
tp195
a(S'no_ll'
I1
tp196
a(S'w'
I7
tp197
a(S'tr_lr'
I0
tp198
a(S'w'
I13
tp199
a(S'p1_vo'
I3
tp200
a(S'w'
I2914
tp201
a(S'no_ll'
I1
tp202
a(S'w'
I2
tp203
a(S'no_vo'
I15
tp204
a(S'w'
I12
tp205
a(S'tr_ll'
I1
tp206
a(S'tr_lr'
I127
tp207
a(S'w'
I1458
tp208
a(S'no_vo'
I0
tp209
a(S'w'
I1472
tp210
a(S'p2_vo'
I3
tp211
a(S'w'
I2929
tp212
a(S'tr_lr'
I0
tp213
a(S'w'
I2944
tp214
a(S'no_np'
I13
tp215
a(S'no_ll'
I1
tp216
a(S'w'
I2
tp217
a(S'no_vo'
I15
tp218
a(S'w'
I12
tp219
a(S'tr_ll'
I1
tp220
a(S'w'
I1
tp221
a(S'tr_lr'
I127
tp222
a(S'w'
I12
tp223
a(S'p2_tl'
I29
tp224
a(S'w'
I1
tp225
a(S'p2_ll'
I1
tp226
a(S'p2_th'
I1
tp227
a(S'w'
I2
tp228
a(S'p2_vo'
I6
tp229
a(S'w'
I14
tp230
a(S'p1_tl'
I196
tp231
a(S'w'
I1
tp232
a(S'p1_ll'
I1
tp233
a(S'w'
I2
tp234
a(S'p1_vo'
I5
tp235
a(S'w'
I1409
tp236
a(S'no_np'
I0
tp237
a(S'no_ll'
I1
tp238
a(S'w'
I1472
tp239
a(S'no_vo'
I0
tp240
a(S'w'
I14
tp241
a(S'p2_vo'
I5
tp242
a(S'w'
I6
tp243
a(S'p1_vo'
I4
tp244
a(S'w'
I2912
tp245
a(S'no_ll'
I1
tp246
a(S'w'
I7
tp247
a(S'tr_lr'
I0
tp248
a(S'w'
I7
tp249
a(S'p2_vo'
I4
tp250
a(S'w'
I7
tp251
a(S'p1_vo'
I3
tp252
a(S'w'
I1450
tp253
a(S'p2_vo'
I3
tp254
a(S'w'
I1463
tp255
a(S'no_ll'
I1
tp256
a(S'w'
I2
tp257
a(S'no_vo'
I15
tp258
a(S'w'
I12
tp259
a(S'tr_ll'
I1
tp260
a(S'tr_lr'
I127
tp261
a(S'w'
I10
tp262
a(S'w'
I1
tp263
a(S'p2_ll'
I1
tp264
a(S'w'
I2
tp265
a(S'p2_vo'
I6
tp266
a(S'w'
I10
tp267
a(S'p1_ll'
I1
tp268
a(S'w'
I3
tp269
a(S'p1_vo'
I5
tp270
a(S'w'
I1432
tp271
a(S'no_vo'
I0
tp272
a(S'w'
I1472
tp273
a(S'p2_vo'
I5
tp274
a(S'w'
I7
tp275
a(S'p1_vo'
I4
tp276
a(S'w'
I2922
tp277
a(S'tr_lr'
I0
tp278
a(S'w'
I7
tp279
a(S'p2_vo'
I4
tp280
a(S'w'
I7
tp281
a(S'p1_vo'
I3
tp282
a(S'w'
I1458
tp283
a(S'p2_vo'
I3
tp284
a(S'w'
I1463
tp285
a(S'no_np'
I9
tp286
a(S'no_ll'
I1
tp287
a(S'w'
I2
tp288
a(S'no_vo'
I15
tp289
a(S'w'
I12
tp290
a(S'tr_ll'
I1
tp291
a(S'w'
I1
tp292
a(S'tr_lr'
I127
tp293
a(S'w'
I9
tp294
a(S'w'
I1
tp295
a(S'p2_ll'
I1
tp296
a(S'w'
I2
tp297
a(S'p2_vo'
I6
tp298
a(S'w'
I10
tp299
a(S'w'
I1
tp300
a(S'p1_ll'
I1
tp301
a(S'w'
I2
tp302
a(S'p1_vo'
I5
tp303
a(S'w'
I1427
tp304
a(S'no_np'
I0
tp305
a(S'no_ll'
I1
tp306
a(S'w'
I1470
tp307
a(S'no_vo'
I0
tp308
a(S'w'
I14
tp309
a(S'p2_vo'
I5
tp310
a(S'w'
I6
tp311
a(S'p1_vo'
I4
tp312
a(S'w'
I2912
tp313
a(S'no_ll'
I1
tp314
a(S'w'
I7
tp315
a(S'tr_lr'
I0
tp316
a(S'w'
I7
tp317
a(S'p2_vo'
I4
tp318
a(S'w'
I7
tp319
a(S'p1_vo'
I3
tp320
a(S'w'
I1450
tp321
a(S'p2_vo'
I3
tp322
a(S'w'
I1463
tp323
a(S'no_ll'
I1
tp324
a(S'w'
I2
tp325
a(S'no_vo'
I15
tp326
a(S'w'
I12
tp327
a(S'tr_ll'
I1
tp328
a(S'tr_lr'
I127
tp329
a(S'w'
I12
tp330
a(S'p2_ll'
I1
tp331
a(S'w'
I3
tp332
a(S'p2_vo'
I6
tp333
a(S'w'
I11
tp334
a(S'w'
I1
tp335
a(S'p1_ll'
I1
tp336
a(S'w'
I2
tp337
a(S'p1_vo'
I5
tp338
a(S'w'
I1429
tp339
a(S'no_vo'
I0
tp340
a(S'w'
I4401
tp341
a(S'tr_lr'
I0
tp342
a(S'w'
I2210
tp343
a(S'no_np'
I13
tp344
a(S'no_ll'
I1
tp345
a(S'w'
I2
tp346
a(S'no_vo'
I15
tp347
a(S'w'
I12
tp348
a(S'tr_ll'
I1
tp349
a(S'w'
I1
tp350
a(S'tr_lr'
I127
tp351
a(S'w'
I1441
tp352
a(S'no_np'
I0
tp353
a(S'no_ll'
I1
tp354
a(S'w'
I1472
tp355
a(S'no_vo'
I0
tp356
a(S'w'
I2932
tp357
a(S'no_ll'
I1
tp358
a(S'w'
I7
tp359
a(S'tr_lr'
I0
tp360
a(S'w'
I2927
tp361
a(S'no_ll'
I1
tp362
a(S'w'
I2
tp363
a(S'no_vo'
I15
tp364
a(S'w'
I12
tp365
a(S'tr_ll'
I1
tp366
a(S'tr_lr'
I127
tp367
a(S'w'
I1458
tp368
a(S'no_vo'
I0
tp369
a(S'w'
I13
tp370
a(S'p2_vo'
I5
tp371
a(S'w'
I1465
tp372
a(S'p1_vo'
I4
tp373
a(S'w'
I2924
tp374
a(S'tr_lr'
I0
tp375
a(S'w'
I2934
tp376
a(S'no_np'
I9
tp377
a(S'no_ll'
I1
tp378
a(S'w'
I2
tp379
a(S'no_vo'
I15
tp380
a(S'w'
I12
tp381
a(S'tr_ll'
I1
tp382
a(S'w'
I1
tp383
a(S'tr_lr'
I127
tp384
a(S'w'
I1452
tp385
a(S'no_np'
I0
tp386
a(S'no_ll'
I1
tp387
a(S'w'
I1470
tp388
a(S'no_vo'
I0
tp389
a(S'w'
I14
tp390
a(S'p2_vo'
I4
tp391
a(S'w'
I2918
tp392
a(S'no_ll'
I1
tp393
a(S'w'
I7
tp394
a(S'tr_lr'
I0
tp395
a(S'w'
I13
tp396
a(S'p1_vo'
I3
tp397
a(S'w'
I2914
tp398
a(S'no_ll'
I1
tp399
a(S'w'
I2
tp400
a(S'no_vo'
I15
tp401
a(S'w'
I12
tp402
a(S'tr_ll'
I1
tp403
a(S'tr_lr'
I127
tp404
a(S'w'
I1458
tp405
a(S'no_vo'
I0
tp406
a(S'w'
I1472
tp407
a(S'p2_vo'
I3
tp408
a(S'w'
I2930
tp409
a(S'tr_lr'
I0
tp410
a(S'w'
I2943
tp411
a(S'no_np'
I13
tp412
a(S'no_ll'
I1
tp413
a(S'w'
I2
tp414
a(S'no_vo'
I15
tp415
a(S'w'
I12
tp416
a(S'tr_ll'
I1
tp417
a(S'w'
I1
tp418
a(S'tr_lr'
I127
tp419
a(S'w'
I14
tp420
a(S'p2_tl'
I213
tp421
a(S'p2_ll'
I1
tp422
a(S'p2_th'
I0
tp423
a(S'w'
I3
tp424
a(S'p2_vo'
I6
tp425
a(S'w'
I14
tp426
a(S'p1_tl'
I254
tp427
a(S'p1_ll'
I1
tp428
a(S'p1_th'
I0
tp429
a(S'w'
I3
tp430
a(S'p1_vo'
I5
tp431
a(S'w'
I1407
tp432
a(S'no_np'
I0
tp433
a(S'no_ll'
I1
tp434
a(S'w'
I1472
tp435
a(S'no_vo'
I0
tp436
a(S'w'
I1472
tp437
a(S'p2_vo'
I5
tp438
a(S'w'
I7
tp439
a(S'p1_vo'
I4
tp440
a(S'w'
I1453
tp441
a(S'no_ll'
I1
tp442
a(S'w'
I7
tp443
a(S'tr_lr'
I0
tp444
a(S'w'
I1465
tp445
a(S'p2_vo'
I4
tp446
a(S'w'
I1462
tp447
a(S'no_ll'
I1
tp448
a(S'w'
I2
tp449
a(S'no_vo'
I15
tp450
a(S'w'
I12
tp451
a(S'tr_ll'
I1
tp452
a(S'tr_lr'
I127
tp453
a(S'w'
I13
tp454
a(S'p1_vo'
I3
tp455
a(S'w'
I1445
tp456
a(S'no_vo'
I0
tp457
a(S'w'
I1472
tp458
a(S'p2_vo'
I3
tp459
a(S'w'
I1474
tp460
a(S'p1_vo'
I2
tp461
a(S'w'
I1456
tp462
a(S'tr_lr'
I0
tp463
a(S'w'
I7
tp464
a(S'p2_vo'
I2
tp465
a(S'w'
I2927
tp466
a(S'no_np'
I9
tp467
a(S'no_ll'
I1
tp468
a(S'w'
I2
tp469
a(S'no_vo'
I15
tp470
a(S'w'
I12
tp471
a(S'tr_ll'
I1
tp472
a(S'w'
I1
tp473
a(S'tr_lr'
I127
tp474
a(S'w'
I12
tp475
a(S'p2_ll'
I1
tp476
a(S'w'
I3
tp477
a(S'p2_vo'
I6
tp478
a(S'w'
I12
tp479
a(S'w'
I1
tp480
a(S'p1_ll'
I1
tp481
a(S'w'
I2
tp482
a(S'p1_vo'
I5
tp483
a(S'w'
I1422
tp484
a(S'no_np'
I0
tp485
a(S'no_ll'
I1
tp486
a(S'w'
I15
tp487
a(S'p2_vo'
I5
tp488
a(S'w'
I1455
tp489
a(S'no_vo'
I0
tp490
a(S'w'
I14
tp491
a(S'p2_vo'
I4
tp492
a(S'w'
I6
tp493
a(S'p1_vo'
I4
tp494
a(S'w'
I1452
tp495
a(S'p2_vo'
I3
tp496
a(S'w'
I7
tp497
a(S'p1_vo'
I3
tp498
a(S'w'
I1453
tp499
a(S'no_ll'
I1
tp500
a(S'w'
I7
tp501
a(S'tr_lr'
I0
tp502
a(S'w'
I7
tp503
a(S'p2_vo'
I2
tp504
a(S'w'
I7
tp505
a(S'p1_vo'
I2
tp506
a(S'w'
I1451
tp507
a(S'p2_vo'
I1
tp508
a(S'w'
I7
tp509
a(S'p1_vo'
I1
tp510
a(S'w'
I1455
tp511
a(S'no_ll'
I1
tp512
a(S'w'
I2
tp513
a(S'no_vo'
I15
tp514
a(S'w'
I12
tp515
a(S'tr_ll'
I1
tp516
a(S'tr_lr'
I127
tp517
a(S'w'
I12
tp518
a(S'p2_ll'
I1
tp519
a(S'w'
I3
tp520
a(S'p2_vo'
I6
tp521
a(S'w'
I11
tp522
a(S'w'
I1
tp523
a(S'p1_ll'
I1
tp524
a(S'w'
I2
tp525
a(S'p1_vo'
I5
tp526
a(S'w'
I1429
tp527
a(S'no_vo'
I0
tp528
a(S'w'
I4402
tp529
a(S'tr_lr'
I0
tp530
a(S'w'
I2943
tp531
a(S'no_np'
I13
tp532
a(S'no_ll'
I1
tp533
a(S'w'
I2
tp534
a(S'no_vo'
I15
tp535
a(S'w'
I12
tp536
a(S'tr_ll'
I1
tp537
a(S'w'
I1
tp538
a(S'tr_lr'
I127
tp539
a(S'w'
I1441
tp540
a(S'no_np'
I0
tp541
a(S'no_ll'
I1
tp542
a(S'w'
I1472
tp543
a(S'no_vo'
I0
tp544
a(S'w'
I2932
tp545
a(S'no_ll'
I1
tp546
a(S'w'
I7
tp547
a(S'tr_lr'
I0
tp548
a(S'w'
I2927
tp549
a(S'no_ll'
I1
tp550
a(S'w'
I2
tp551
a(S'no_vo'
I15
tp552
a(S'w'
I12
tp553
a(S'tr_ll'
I1
tp554
a(S'tr_lr'
I127
tp555
a(S'w'
I1458
tp556
a(S'no_vo'
I0
tp557
a(S'w'
I13
tp558
a(S'p2_vo'
I5
tp559
a(S'w'
I1465
tp560
a(S'p1_vo'
I4
tp561
a(S'w'
I2924
tp562
a(S'tr_lr'
I0
tp563
a(S'w'
I2934
tp564
a(S'no_np'
I9
tp565
a(S'no_ll'
I1
tp566
a(S'w'
I2
tp567
a(S'no_vo'
I15
tp568
a(S'w'
I12
tp569
a(S'tr_ll'
I1
tp570
a(S'w'
I1
tp571
a(S'tr_lr'
I127
tp572
a(S'w'
I1452
tp573
a(S'no_np'
I0
tp574
a(S'no_ll'
I1
tp575
a(S'w'
I1470
tp576
a(S'no_vo'
I0
tp577
a(S'w'
I14
tp578
a(S'p2_vo'
I4
tp579
a(S'w'
I2918
tp580
a(S'no_ll'
I1
tp581
a(S'w'
I7
tp582
a(S'tr_lr'
I0
tp583
a(S'w'
I13
tp584
a(S'p1_vo'
I3
tp585
a(S'w'
I2914
tp586
a(S'no_ll'
I1
tp587
a(S'w'
I2
tp588
a(S'no_vo'
I15
tp589
a(S'w'
I12
tp590
a(S'tr_ll'
I1
tp591
a(S'tr_lr'
I127
tp592
a(S'w'
I1458
tp593
a(S'no_vo'
I0
tp594
a(S'w'
I1472
tp595
a(S'p2_vo'
I3
tp596
a(S'w'
I2196
tp597
a(S'tr_lr'
I0
tp598
a(S'w'
I2943
tp599
a(S'no_np'
I13
tp600
a(S'no_ll'
I1
tp601
a(S'w'
I2
tp602
a(S'no_vo'
I15
tp603
a(S'w'
I14
tp604
a(S'tr_tl'
I207
tp605
a(S'w'
I1
tp606
a(S'tr_ll'
I1
tp607
a(S'tr_lr'
I127
tp608
a(S'w'
I13
tp609
a(S'p2_tl'
I179
tp610
a(S'p2_ll'
I1
tp611
a(S'w'
I2
tp612
a(S'p2_vo'
I6
tp613
a(S'w'
I13
tp614
a(S'p1_tl'
I13
tp615
a(S'p1_ll'
I1
tp616
a(S'p1_th'
I1
tp617
a(S'w'
I3
tp618
a(S'p1_vo'
I5
tp619
a(S'w'
I1409
tp620
a(S'no_np'
I0
tp621
a(S'no_ll'
I1
tp622
a(S'w'
I1471
tp623
a(S'no_vo'
I0
tp624
a(S'w'
I14
tp625
a(S'p2_vo'
I5
tp626
a(S'w'
I6
tp627
a(S'p1_vo'
I4
tp628
a(S'w'
I2912
tp629
a(S'no_ll'
I1
tp630
a(S'w'
I7
tp631
a(S'tr_lr'
I0
tp632
a(S'w'
I7
tp633
a(S'p2_vo'
I4
tp634
a(S'w'
I7
tp635
a(S'p1_vo'
I3
tp636
a(S'w'
I1451
tp637
a(S'p2_vo'
I3
tp638
a(S'w'
I1462
tp639
a(S'no_ll'
I1
tp640
a(S'w'
I2
tp641
a(S'no_vo'
I15
tp642
a(S'w'
I12
tp643
a(S'tr_ll'
I1
tp644
a(S'w'
I1
tp645
a(S'tr_lr'
I127
tp646
a(S'w'
I9
tp647
a(S'w'
I1
tp648
a(S'p2_ll'
I1
tp649
a(S'w'
I2
tp650
a(S'p2_vo'
I6
tp651
a(S'w'
I10
tp652
a(S'p1_ll'
I1
tp653
a(S'w'
I3
tp654
a(S'p1_vo'
I5
tp655
a(S'w'
I1432
tp656
a(S'no_vo'
I0
tp657
a(S'w'
I1473
tp658
a(S'p2_vo'
I5
tp659
a(S'w'
I7
tp660
a(S'p1_vo'
I4
tp661
a(S'w'
I2922
tp662
a(S'tr_lr'
I0
tp663
a(S'w'
I7
tp664
a(S'p2_vo'
I4
tp665
a(S'w'
I7
tp666
a(S'p1_vo'
I3
tp667
a(S'w'
I1457
tp668
a(S'p2_vo'
I3
tp669
a(S'w'
I1463
tp670
a(S'no_np'
I9
tp671
a(S'no_ll'
I1
tp672
a(S'w'
I2
tp673
a(S'no_vo'
I15
tp674
a(S'w'
I12
tp675
a(S'tr_ll'
I1
tp676
a(S'w'
I1
tp677
a(S'tr_lr'
I127
tp678
a(S'w'
I9
tp679
a(S'w'
I1
tp680
a(S'p2_ll'
I1
tp681
a(S'w'
I2
tp682
a(S'p2_vo'
I6
tp683
a(S'w'
I10
tp684
a(S'w'
I1
tp685
a(S'p1_ll'
I1
tp686
a(S'w'
I2
tp687
a(S'p1_vo'
I5
tp688
a(S'w'
I1428
tp689
a(S'no_np'
I0
tp690
a(S'no_ll'
I1
tp691
a(S'w'
I1469
tp692
a(S'no_vo'
I0
tp693
a(S'w'
I14
tp694
a(S'p2_vo'
I5
tp695
a(S'w'
I6
tp696
a(S'p1_vo'
I4
tp697
a(S'w'
I2912
tp698
a(S'no_ll'
I1
tp699
a(S'w'
I7
tp700
a(S'tr_lr'
I0
tp701
a(S'w'
I7
tp702
a(S'p2_vo'
I4
tp703
a(S'w'
I7
tp704
a(S'p1_vo'
I3
tp705
a(S'w'
I1451
tp706
a(S'p2_vo'
I3
tp707
a(S'w'
I1462
tp708
a(S'no_ll'
I1
tp709
a(S'w'
I2
tp710
a(S'no_vo'
I15
tp711
a(S'w'
I12
tp712
a(S'tr_ll'
I1
tp713
a(S'w'
I1
tp714
a(S'tr_lr'
I127
tp715
a(S'w'
I11
tp716
a(S'p2_ll'
I1
tp717
a(S'w'
I3
tp718
a(S'p2_vo'
I6
tp719
a(S'w'
I11
tp720
a(S'p1_tl'
I29
tp721
a(S'w'
I1
tp722
a(S'p1_ll'
I1
tp723
a(S'w'
I2
tp724
a(S'p1_vo'
I5
tp725
a(S'w'
I1429
tp726
a(S'no_vo'
I0
tp727
a(S'w'
I4402
tp728
a(S'tr_lr'
I0
tp729
a(S'w'
I2941
tp730
a(S'no_np'
I4
tp731
a(S'no_ll'
I1
tp732
a(S'w'
I2
tp733
a(S'no_vo'
I15
tp734
a(S'w'
I12
tp735
a(S'tr_ll'
I1
tp736
a(S'w'
I1
tp737
a(S'tr_lr'
I127
tp738
a(S'w'
I1443
tp739
a(S'no_vo'
I10
tp740
a(S'w'
I1467
tp741
a(S'no_vo'
I5
tp742
a(S'w'
I1471
tp743
a(S'no_np'
I0
tp744
a(S'no_ll'
I1
tp745
a(S'w'
I2
tp746
a(S'no_vo'
I15
tp747
a(S'w'
I1460
tp748
a(S'no_vo'
I14
tp749
a(S'w'
I7
tp750
a(S'tr_lr'
I0
tp751
a(S'w'
I1462
tp752
a(S'no_vo'
I12
tp753
a(S'w'
I1466
tp754
a(S'no_vo'
I11
tp755
a(S'w'
I13
tp756
a(S'tr_ll'
I1
tp757
a(S'tr_lr'
I127
tp758
a(S'w'
I1456
tp759
a(S'no_vo'
I9
tp760
a(S'w'
I13
tp761
a(S'p2_vo'
I5
tp762
a(S'w'
I1454
tp763
a(S'no_vo'
I8
tp764
a(S'w'
I20
tp765
a(S'p1_vo'
I4
tp766
a(S'w'
I1452
tp767
a(S'no_np'
I5
tp768
a(S'no_ll'
I1
tp769
a(S'w'
I2
tp770
a(S'no_vo'
I15
tp771
a(S'w'
I1463
tp772
a(S'no_vo'
I10
tp773
a(S'w'
I8
tp774
a(S'tr_lr'
I0
tp775
a(S'w'
I1459
tp776
a(S'no_vo'
I5
tp777
a(S'w'
I1469
tp778
a(S'no_np'
I9
tp779
a(S'no_ll'
I1
tp780
a(S'w'
I1
tp781
a(S'no_vo'
I15
tp782
a(S'w'
I13
tp783
a(S'tr_ll'
I1
tp784
a(S'tr_lr'
I127
tp785
a(S'w'
I1453
tp786
a(S'no_vo'
I10
tp787
a(S'w'
I1467
tp788
a(S'no_vo'
I5
tp789
a(S'w'
I14
tp790
a(S'p2_vo'
I4
tp791
a(S'w'
I1455
tp792
a(S'no_ll'
I1
tp793
a(S'w'
I1
tp794
a(S'no_vo'
I15
tp795
a(S'w'
I1465
tp796
a(S'no_vo'
I10
tp797
a(S'w'
I8
tp798
a(S'tr_lr'
I0
tp799
a(S'w'
I12
tp800
a(S'p1_vo'
I3
tp801
a(S'w'
I1448
tp802
a(S'no_vo'
I5
tp803
a(S'w'
I1468
tp804
a(S'no_np'
I11
tp805
a(S'no_ll'
I1
tp806
a(S'w'
I2
tp807
a(S'no_vo'
I15
tp808
a(S'w'
I12
tp809
a(S'tr_ll'
I1
tp810
a(S'w'
I1
tp811
a(S'tr_lr'
I127
tp812
a(S'w'
I1452
tp813
a(S'no_vo'
I10
tp814
a(S'w'
I1468
tp815
a(S'no_vo'
I5
tp816
a(S'w'
I14
tp817
a(S'p2_vo'
I3
tp818
a(S'w'
I1453
tp819
a(S'no_vo'
I0
tp820
a(S'w'
I1472
tp821
a(S'tr_lr'
I0
tp822
a(S'w'
I2944
tp823
a(S'no_np'
I13
tp824
a(S'no_ll'
I1
tp825
a(S'w'
I2
tp826
a(S'no_vo'
I15
tp827
a(S'w'
I14
tp828
a(S'tr_tl'
I128
tp829
a(S'w'
I1
tp830
a(S'tr_ll'
I1
tp831
a(S'tr_lr'
I127
tp832
a(S'w'
I9
tp833
a(S'p2_vo'
I0
tp834
a(S'w'
I2
tp835
a(S'w'
I1
tp836
a(S'p2_ll'
I1
tp837
a(S'w'
I9
tp838
a(S'p1_vo'
I0
tp839
a(S'w'
I2
tp840
a(S'w'
I1
tp841
a(S'p1_ll'
I1
tp842
a(S'w'
I1415
tp843
a(S'no_np'
I0
tp844
a(S'no_ll'
I1
tp845
a(S'w'
I2
tp846
a(S'w'
I1469
tp847
a(S'no_vo'
I0
tp848
a(S'w'
I2931
tp849
a(S'w'
I1
tp850
a(S'no_ll'
I1
tp851
a(S'w'
I7
tp852
a(S'tr_lr'
I0
tp853
a(S'w'
I2927
tp854
a(S'no_ll'
I1
tp855
a(S'w'
I2
tp856
a(S'no_vo'
I15
tp857
a(S'w'
I11
tp858
a(S'w'
I1
tp859
a(S'tr_ll'
I1
tp860
a(S'w'
I1
tp861
a(S'tr_lr'
I127
tp862
a(S'w'
I11
tp863
a(S'p2_tl'
I254
tp864
a(S'w'
I1
tp865
a(S'p2_ll'
I1
tp866
a(S'w'
I2
tp867
a(S'p2_vo'
I6
tp868
a(S'w'
I9
tp869
a(S'w'
I1
tp870
a(S'p1_tl'
I64
tp871
a(S'p1_ll'
I1
tp872
a(S'w'
I2
tp873
a(S'p1_vo'
I5
tp874
a(S'w'
I1431
tp875
a(S'no_vo'
I0
tp876
a(S'w'
I4402
tp877
a(S'tr_lr'
I0
tp878
a(S'w'
I2934
tp879
a(S'no_np'
I9
tp880
a(S'no_ll'
I1
tp881
a(S'w'
I2
tp882
a(S'no_vo'
I15
tp883
a(S'w'
I12
tp884
a(S'tr_ll'
I1
tp885
a(S'w'
I1
tp886
a(S'tr_lr'
I127
tp887
a(S'w'
I11
tp888
a(S'p2_tl'
I213
tp889
a(S'w'
I1
tp890
a(S'p2_ll'
I1
tp891
a(S'w'
I12
tp892
a(S'p1_tl'
I254
tp893
a(S'p1_ll'
I1
tp894
a(S'p1_th'
I0
tp895
a(S'w'
I1429
tp896
a(S'no_np'
I0
tp897
a(S'no_ll'
I1
tp898
a(S'w'
I1469
tp899
a(S'no_vo'
I0
tp900
a(S'w'
I2932
tp901
a(S'no_ll'
I1
tp902
a(S'w'
I7
tp903
a(S'tr_lr'
I0
tp904
a(S'w'
I2927
tp905
a(S'no_ll'
I1
tp906
a(S'w'
I2
tp907
a(S'no_vo'
I15
tp908
a(S'w'
I12
tp909
a(S'tr_ll'
I1
tp910
a(S'w'
I1
tp911
a(S'tr_lr'
I127
tp912
a(S'w'
I11
tp913
a(S'p2_tl'
I254
tp914
a(S'w'
I1
tp915
a(S'p2_ll'
I1
tp916
a(S'w'
I12
tp917
a(S'p1_tl'
I64
tp918
a(S'p1_ll'
I1
tp919
a(S'p1_th'
I1
tp920
a(S'w'
I1433
tp921
a(S'no_vo'
I0
tp922
a(S'w'
I3668
tp923
a(S'tr_lr'
I0
tp924
a(S'w'
I2943
tp925
a(S'no_np'
I13
tp926
a(S'no_ll'
I1
tp927
a(S'w'
I2
tp928
a(S'no_vo'
I15
tp929
a(S'w'
I12
tp930
a(S'tr_ll'
I1
tp931
a(S'w'
I1
tp932
a(S'tr_lr'
I127
tp933
a(S'w'
I10
tp934
a(S'p2_tl'
I226
tp935
a(S'w'
I1
tp936
a(S'p2_ll'
I1
tp937
a(S'w'
I12
tp938
a(S'p1_tl'
I29
tp939
a(S'w'
I1
tp940
a(S'p1_ll'
I1
tp941
a(S'w'
I1418
tp942
a(S'no_np'
I0
tp943
a(S'no_ll'
I1
tp944
a(S'w'
I1471
tp945
a(S'no_vo'
I0
tp946
a(S'w'
I2932
tp947
a(S'no_ll'
I1
tp948
a(S'w'
I7
tp949
a(S'tr_lr'
I0
tp950
a(S'w'
I2928
tp951
a(S'no_ll'
I1
tp952
a(S'w'
I2
tp953
a(S'no_vo'
I15
tp954
a(S'w'
I12
tp955
a(S'tr_ll'
I1
tp956
a(S'tr_lr'
I127
tp957
a(S'w'
I1457
tp958
a(S'no_vo'
I0
tp959
a(S'w'
I13
tp960
a(S'p2_vo'
I5
tp961
a(S'w'
I1466
tp962
a(S'p1_vo'
I4
tp963
a(S'w'
I2923
tp964
a(S'tr_lr'
I0
tp965
a(S'w'
I2934
tp966
a(S'no_np'
I9
tp967
a(S'no_ll'
I1
tp968
a(S'w'
I2
tp969
a(S'no_vo'
I15
tp970
a(S'w'
I12
tp971
a(S'tr_ll'
I1
tp972
a(S'w'
I1
tp973
a(S'tr_lr'
I127
tp974
a(S'w'
I11
tp975
a(S'p2_tl'
I190
tp976
a(S'w'
I1
tp977
a(S'p2_ll'
I1
tp978
a(S'w'
I2
tp979
a(S'p2_vo'
I6
tp980
a(S'w'
I10
tp981
a(S'p1_tl'
I226
tp982
a(S'p1_ll'
I1
tp983
a(S'p1_th'
I0
tp984
a(S'w'
I2
tp985
a(S'p1_vo'
I5
tp986
a(S'w'
I1427
tp987
a(S'no_np'
I0
tp988
a(S'no_ll'
I1
tp989
a(S'w'
I1469
tp990
a(S'no_vo'
I0
tp991
a(S'w'
I2932
tp992
a(S'no_ll'
I1
tp993
a(S'w'
I7
tp994
a(S'tr_lr'
I0
tp995
a(S'w'
I2928
tp996
a(S'no_ll'
I1
tp997
a(S'w'
I2
tp998
a(S'no_vo'
I15
tp999
a(S'w'
I12
tp1000
a(S'tr_ll'
I1
tp1001
a(S'w'
I1
tp1002
a(S'tr_lr'
I127
tp1003
a(S'w'
I1456
tp1004
a(S'no_vo'
I0
tp1005
a(S'w'
I13
tp1006
a(S'p2_vo'
I5
tp1007
a(S'w'
I1466
tp1008
a(S'p1_vo'
I4
tp1009
a(S'w'
I2923
tp1010
a(S'tr_lr'
I0
tp1011
a(S'w'
I2943
tp1012
a(S'no_np'
I13
tp1013
a(S'no_ll'
I1
tp1014
a(S'w'
I2
tp1015
a(S'no_vo'
I15
tp1016
a(S'w'
I12
tp1017
a(S'tr_ll'
I1
tp1018
a(S'w'
I1
tp1019
a(S'tr_lr'
I127
tp1020
a(S'w'
I8
tp1021
a(S'p2_vo'
I0
tp1022
a(S'w'
I3
tp1023
a(S'p2_ll'
I1
tp1024
a(S'w'
I9
tp1025
a(S'p1_vo'
I0
tp1026
a(S'w'
I3
tp1027
a(S'p1_ll'
I1
tp1028
a(S'w'
I1419
tp1029
a(S'no_np'
I0
tp1030
a(S'no_ll'
I1
tp1031
a(S'w'
I1471
tp1032
a(S'no_vo'
I0
tp1033
a(S'w'
I2932
tp1034
a(S'no_ll'
I1
tp1035
a(S'w'
I7
tp1036
a(S'tr_lr'
I0
tp1037
a(S'w'
I2928
tp1038
a(S'no_ll'
I1
tp1039
a(S'w'
I2
tp1040
a(S'no_vo'
I15
tp1041
a(S'w'
I12
tp1042
a(S'tr_ll'
I1
tp1043
a(S'w'
I1
tp1044
a(S'tr_lr'
I127
tp1045
a(S'w'
I11
tp1046
a(S'p2_tl'
I254
tp1047
a(S'w'
I1
tp1048
a(S'p2_ll'
I1
tp1049
a(S'w'
I2
tp1050
a(S'p2_vo'
I6
tp1051
a(S'w'
I10
tp1052
a(S'p1_tl'
I64
tp1053
a(S'p1_ll'
I1
tp1054
a(S'p1_th'
I1
tp1055
a(S'w'
I2
tp1056
a(S'p1_vo'
I5
tp1057
a(S'w'
I1430
tp1058
a(S'no_vo'
I0
tp1059
a(S'w'
I4402
tp1060
a(S'tr_lr'
I0
tp1061
a(S'w'
I2934
tp1062
a(S'no_np'
I9
tp1063
a(S'no_ll'
I1
tp1064
a(S'w'
I2
tp1065
a(S'no_vo'
I15
tp1066
a(S'w'
I12
tp1067
a(S'tr_ll'
I1
tp1068
a(S'w'
I1
tp1069
a(S'tr_lr'
I127
tp1070
a(S'w'
I11
tp1071
a(S'p2_tl'
I213
tp1072
a(S'w'
I1
tp1073
a(S'p2_ll'
I1
tp1074
a(S'w'
I12
tp1075
a(S'p1_tl'
I254
tp1076
a(S'p1_ll'
I1
tp1077
a(S'p1_th'
I0
tp1078
a(S'w'
I1429
tp1079
a(S'no_np'
I0
tp1080
a(S'no_ll'
I1
tp1081
a(S'w'
I1469
tp1082
a(S'no_vo'
I0
tp1083
a(S'w'
I2932
tp1084
a(S'no_ll'
I1
tp1085
a(S'w'
I7
tp1086
a(S'tr_lr'
I0
tp1087
a(S'w'
I2928
tp1088
a(S'no_ll'
I1
tp1089
a(S'w'
I2
tp1090
a(S'no_vo'
I15
tp1091
a(S'w'
I12
tp1092
a(S'tr_ll'
I1
tp1093
a(S'w'
I1
tp1094
a(S'tr_lr'
I127
tp1095
a(S'w'
I11
tp1096
a(S'p2_tl'
I254
tp1097
a(S'w'
I1
tp1098
a(S'p2_ll'
I1
tp1099
a(S'w'
I12
tp1100
a(S'p1_tl'
I64
tp1101
a(S'p1_ll'
I1
tp1102
a(S'p1_th'
I1
tp1103
a(S'w'
I1432
tp1104
a(S'no_vo'
I0
tp1105
a(S'w'
I4402
tp1106
a(S'tr_lr'
I0
tp1107
a(S'w'
I2943
tp1108
a(S'no_np'
I13
tp1109
a(S'no_ll'
I1
tp1110
a(S'w'
I2
tp1111
a(S'no_vo'
I15
tp1112
a(S'w'
I12
tp1113
a(S'tr_ll'
I1
tp1114
a(S'w'
I1
tp1115
a(S'tr_lr'
I127
tp1116
a(S'w'
I10
tp1117
a(S'p2_tl'
I226
tp1118
a(S'w'
I1
tp1119
a(S'p2_ll'
I1
tp1120
a(S'w'
I12
tp1121
a(S'p1_tl'
I29
tp1122
a(S'w'
I1
tp1123
a(S'p1_ll'
I1
tp1124
a(S'w'
I1418
tp1125
a(S'no_np'
I0
tp1126
a(S'no_ll'
I1
tp1127
a(S'w'
I1471
tp1128
a(S'no_vo'
I0
tp1129
a(S'w'
I2932
tp1130
a(S'no_ll'
I1
tp1131
a(S'w'
I7
tp1132
a(S'tr_lr'
I0
tp1133
a(S'w'
I2928
tp1134
a(S'no_ll'
I1
tp1135
a(S'w'
I2
tp1136
a(S'no_vo'
I15
tp1137
a(S'w'
I12
tp1138
a(S'tr_ll'
I1
tp1139
a(S'w'
I1
tp1140
a(S'tr_lr'
I127
tp1141
a(S'w'
I1456
tp1142
a(S'no_vo'
I0
tp1143
a(S'w'
I13
tp1144
a(S'p2_vo'
I5
tp1145
a(S'w'
I1466
tp1146
a(S'p1_vo'
I4
tp1147
a(S'w'
I2923
tp1148
a(S'tr_lr'
I0
tp1149
a(S'w'
I2934
tp1150
a(S'no_np'
I9
tp1151
a(S'no_ll'
I1
tp1152
a(S'w'
I2
tp1153
a(S'no_vo'
I15
tp1154
a(S'w'
I12
tp1155
a(S'tr_ll'
I1
tp1156
a(S'w'
I1
tp1157
a(S'tr_lr'
I127
tp1158
a(S'w'
I1453
tp1159
a(S'no_np'
I0
tp1160
a(S'no_ll'
I1
tp1161
a(S'w'
I1469
tp1162
a(S'no_vo'
I0
tp1163
a(S'w'
I14
tp1164
a(S'p2_vo'
I4
tp1165
a(S'w'
I2918
tp1166
a(S'no_ll'
I1
tp1167
a(S'w'
I7
tp1168
a(S'tr_lr'
I0
tp1169
a(S'w'
I13
tp1170
a(S'p1_vo'
I3
tp1171
a(S'w'
I2915
tp1172
a(S'no_ll'
I1
tp1173
a(S'w'
I2
tp1174
a(S'no_vo'
I15
tp1175
a(S'w'
I12
tp1176
a(S'tr_ll'
I1
tp1177
a(S'w'
I1
tp1178
a(S'tr_lr'
I127
tp1179
a(S'w'
I1456
tp1180
a(S'no_vo'
I0
tp1181
a(S'w'
I739
tp1182
a(S'p2_vo'
I3
tp1183
a(S'w'
I2929
tp1184
a(S'tr_lr'
I0
tp1185
a(S'w'
I2943
tp1186
a(S'no_np'
I13
tp1187
a(S'no_ll'
I1
tp1188
a(S'w'
I2
tp1189
a(S'no_vo'
I15
tp1190
a(S'w'
I12
tp1191
a(S'tr_ll'
I1
tp1192
a(S'w'
I1
tp1193
a(S'tr_lr'
I127
tp1194
a(S'w'
I8
tp1195
a(S'p2_vo'
I0
tp1196
a(S'w'
I3
tp1197
a(S'p2_ll'
I1
tp1198
a(S'w'
I9
tp1199
a(S'p1_vo'
I0
tp1200
a(S'w'
I3
tp1201
a(S'p1_ll'
I1
tp1202
a(S'w'
I1419
tp1203
a(S'no_np'
I0
tp1204
a(S'no_ll'
I1
tp1205
a(S'w'
I1471
tp1206
a(S'no_vo'
I0
tp1207
a(S'w'
I2933
tp1208
a(S'no_ll'
I1
tp1209
a(S'w'
I7
tp1210
a(S'tr_lr'
I0
tp1211
a(S'w'
I2927
tp1212
a(S'no_ll'
I1
tp1213
a(S'w'
I2
tp1214
a(S'no_vo'
I15
tp1215
a(S'w'
I12
tp1216
a(S'tr_ll'
I1
tp1217
a(S'w'
I1
tp1218
a(S'tr_lr'
I127
tp1219
a(S'w'
I9
tp1220
a(S'p2_tl'
I254
tp1221
a(S'w'
I1
tp1222
a(S'p2_ll'
I1
tp1223
a(S'w'
I2
tp1224
a(S'p2_vo'
I6
tp1225
a(S'w'
I10
tp1226
a(S'p1_tl'
I64
tp1227
a(S'p1_ll'
I1
tp1228
a(S'w'
I3
tp1229
a(S'p1_vo'
I5
tp1230
a(S'w'
I1431
tp1231
a(S'no_vo'
I0
tp1232
a(S'w'
I4402
tp1233
a(S'tr_lr'
I0
tp1234
a(S'w'
I2934
tp1235
a(S'no_np'
I9
tp1236
a(S'no_ll'
I1
tp1237
a(S'w'
I2
tp1238
a(S'no_vo'
I15
tp1239
a(S'w'
I12
tp1240
a(S'tr_ll'
I1
tp1241
a(S'w'
I1
tp1242
a(S'tr_lr'
I127
tp1243
a(S'w'
I11
tp1244
a(S'p2_tl'
I213
tp1245
a(S'w'
I1
tp1246
a(S'p2_ll'
I1
tp1247
a(S'w'
I12
tp1248
a(S'p1_tl'
I254
tp1249
a(S'p1_ll'
I1
tp1250
a(S'p1_th'
I0
tp1251
a(S'w'
I1429
tp1252
a(S'no_np'
I0
tp1253
a(S'no_ll'
I1
tp1254
a(S'w'
I1469
tp1255
a(S'no_vo'
I0
tp1256
a(S'w'
I2933
tp1257
a(S'no_ll'
I1
tp1258
a(S'w'
I7
tp1259
a(S'tr_lr'
I0
tp1260
a(S'w'
I2927
tp1261
a(S'no_ll'
I1
tp1262
a(S'w'
I2
tp1263
a(S'no_vo'
I15
tp1264
a(S'w'
I12
tp1265
a(S'tr_ll'
I1
tp1266
a(S'w'
I1
tp1267
a(S'tr_lr'
I127
tp1268
a(S'w'
I11
tp1269
a(S'p2_tl'
I254
tp1270
a(S'w'
I1
tp1271
a(S'p2_ll'
I1
tp1272
a(S'w'
I12
tp1273
a(S'p1_tl'
I64
tp1274
a(S'p1_ll'
I1
tp1275
a(S'p1_th'
I1
tp1276
a(S'w'
I1432
tp1277
a(S'no_vo'
I0
tp1278
a(S'w'
I4402
tp1279
a(S'tr_lr'
I0
tp1280
a(S'w'
I2943
tp1281
a(S'no_np'
I13
tp1282
a(S'no_ll'
I1
tp1283
a(S'w'
I2
tp1284
a(S'no_vo'
I15
tp1285
a(S'w'
I12
tp1286
a(S'tr_ll'
I1
tp1287
a(S'w'
I1
tp1288
a(S'tr_lr'
I127
tp1289
a(S'w'
I10
tp1290
a(S'p2_tl'
I226
tp1291
a(S'w'
I1
tp1292
a(S'p2_ll'
I1
tp1293
a(S'w'
I12
tp1294
a(S'p1_tl'
I29
tp1295
a(S'w'
I1
tp1296
a(S'p1_ll'
I1
tp1297
a(S'w'
I1418
tp1298
a(S'no_np'
I0
tp1299
a(S'no_ll'
I1
tp1300
a(S'w'
I1471
tp1301
a(S'no_vo'
I0
tp1302
a(S'w'
I2933
tp1303
a(S'no_ll'
I1
tp1304
a(S'w'
I7
tp1305
a(S'tr_lr'
I0
tp1306
a(S'w'
I2927
tp1307
a(S'no_ll'
I1
tp1308
a(S'w'
I2
tp1309
a(S'no_vo'
I15
tp1310
a(S'w'
I12
tp1311
a(S'tr_ll'
I1
tp1312
a(S'tr_lr'
I127
tp1313
a(S'w'
I1457
tp1314
a(S'no_vo'
I0
tp1315
a(S'w'
I13
tp1316
a(S'p2_vo'
I5
tp1317
a(S'w'
I1466
tp1318
a(S'p1_vo'
I4
tp1319
a(S'w'
I2923
tp1320
a(S'tr_lr'
I0
tp1321
a(S'w'
I2934
tp1322
a(S'no_np'
I9
tp1323
a(S'no_ll'
I1
tp1324
a(S'w'
I2
tp1325
a(S'no_vo'
I15
tp1326
a(S'w'
I12
tp1327
a(S'tr_ll'
I1
tp1328
a(S'w'
I1
tp1329
a(S'tr_lr'
I127
tp1330
a(S'w'
I11
tp1331
a(S'p2_tl'
I190
tp1332
a(S'w'
I1
tp1333
a(S'p2_ll'
I1
tp1334
a(S'w'
I2
tp1335
a(S'p2_vo'
I6
tp1336
a(S'w'
I10
tp1337
a(S'p1_tl'
I226
tp1338
a(S'p1_ll'
I1
tp1339
a(S'p1_th'
I0
tp1340
a(S'w'
I2
tp1341
a(S'p1_vo'
I5
tp1342
a(S'w'
I1427
tp1343
a(S'no_np'
I0
tp1344
a(S'no_ll'
I1
tp1345
a(S'w'
I1469
tp1346
a(S'no_vo'
I0
tp1347
a(S'w'
I2933
tp1348
a(S'no_ll'
I1
tp1349
a(S'w'
I7
tp1350
a(S'tr_lr'
I0
tp1351
a(S'w'
I2927
tp1352
a(S'no_ll'
I1
tp1353
a(S'w'
I2
tp1354
a(S'no_vo'
I15
tp1355
a(S'w'
I12
tp1356
a(S'tr_ll'
I1
tp1357
a(S'tr_lr'
I127
tp1358
a(S'w'
I1457
tp1359
a(S'no_vo'
I0
tp1360
a(S'w'
I13
tp1361
a(S'p2_vo'
I5
tp1362
a(S'w'
I1466
tp1363
a(S'p1_vo'
I4
tp1364
a(S'w'
I2923
tp1365
a(S'tr_lr'
I0
tp1366
a(S'w'
I2943
tp1367
a(S'no_np'
I13
tp1368
a(S'no_ll'
I1
tp1369
a(S'w'
I2
tp1370
a(S'no_vo'
I15
tp1371
a(S'w'
I14
tp1372
a(S'tr_tl'
I166
tp1373
a(S'w'
I1
tp1374
a(S'tr_ll'
I1
tp1375
a(S'tr_lr'
I127
tp1376
a(S'w'
I14
tp1377
a(S'p2_tl'
I29
tp1378
a(S'w'
I1
tp1379
a(S'p2_ll'
I1
tp1380
a(S'p2_th'
I1
tp1381
a(S'w'
I2
tp1382
a(S'p2_vo'
I6
tp1383
a(S'w'
I10
tp1384
a(S'p1_tl'
I83
tp1385
a(S'w'
I1
tp1386
a(S'p1_ll'
I1
tp1387
a(S'p1_th'
I1
tp1388
a(S'w'
I2
tp1389
a(S'p1_vo'
I5
tp1390
a(S'w'
I1410
tp1391
a(S'no_np'
I0
tp1392
a(S'no_ll'
I1
tp1393
a(S'w'
I1471
tp1394
a(S'no_vo'
I0
tp1395
a(S'w'
I2933
tp1396
a(S'no_ll'
I1
tp1397
a(S'w'
I7
tp1398
a(S'tr_lr'
I0
tp1399
a(S'w'
I2927
tp1400
a(S'no_ll'
I1
tp1401
a(S'w'
I2
tp1402
a(S'no_vo'
I15
tp1403
a(S'w'
I12
tp1404
a(S'tr_ll'
I1
tp1405
a(S'tr_lr'
I127
tp1406
a(S'w'
I1457
tp1407
a(S'no_vo'
I0
tp1408
a(S'w'
I1476
tp1409
a(S'p1_vo'
I4
tp1410
a(S'w'
I2926
tp1411
a(S'tr_lr'
I0
tp1412
a(S'w'
I2934
tp1413
a(S'no_np'
I9
tp1414
a(S'no_ll'
I1
tp1415
a(S'w'
I2
tp1416
a(S'no_vo'
I15
tp1417
a(S'w'
I12
tp1418
a(S'tr_ll'
I1
tp1419
a(S'w'
I1
tp1420
a(S'tr_lr'
I127
tp1421
a(S'w'
I1453
tp1422
a(S'no_np'
I0
tp1423
a(S'no_ll'
I1
tp1424
a(S'w'
I1469
tp1425
a(S'no_vo'
I0
tp1426
a(S'w'
I2933
tp1427
a(S'no_ll'
I1
tp1428
a(S'w'
I7
tp1429
a(S'tr_lr'
I0
tp1430
a(S'w'
I10
tp1431
a(S'p1_vo'
I3
tp1432
a(S'w'
I2917
tp1433
a(S'no_ll'
I1
tp1434
a(S'w'
I2
tp1435
a(S'no_vo'
I15
tp1436
a(S'w'
I12
tp1437
a(S'tr_ll'
I1
tp1438
a(S'tr_lr'
I127
tp1439
a(S'w'
I724
tp1440
a(S'no_vo'
I0
tp1441
a(S'w'
I4401
tp1442
a(S'tr_lr'
I0
tp1443
a(S'w'
I2942
tp1444
a(S'no_np'
I13
tp1445
a(S'no_ll'
I1
tp1446
a(S'w'
I2
tp1447
a(S'no_vo'
I15
tp1448
a(S'w'
I13
tp1449
a(S'tr_tl'
I83
tp1450
a(S'w'
I1
tp1451
a(S'tr_ll'
I1
tp1452
a(S'tr_th'
I1
tp1453
a(S'tr_lr'
I127
tp1454
a(S'w'
I20
tp1455
a(S'p1_tl'
I226
tp1456
a(S'p1_ll'
I1
tp1457
a(S'p1_th'
I0
tp1458
a(S'w'
I2
tp1459
a(S'p1_vo'
I5
tp1460
a(S'w'
I1420
tp1461
a(S'no_np'
I0
tp1462
a(S'no_ll'
I1
tp1463
a(S'w'
I1472
tp1464
a(S'no_vo'
I0
tp1465
a(S'w'
I2932
tp1466
a(S'no_ll'
I1
tp1467
a(S'w'
I7
tp1468
a(S'tr_lr'
I0
tp1469
a(S'w'
I2927
tp1470
a(S'no_ll'
I1
tp1471
a(S'w'
I2
tp1472
a(S'no_vo'
I15
tp1473
a(S'w'
I9
tp1474
a(S'tr_tl'
I124
tp1475
a(S'w'
I1
tp1476
a(S'tr_ll'
I1
tp1477
a(S'tr_lr'
I127
tp1478
a(S'w'
I1460
tp1479
a(S'no_vo'
I0
tp1480
a(S'w'
I13
tp1481
a(S'p2_vo'
I5
tp1482
a(S'w'
I1465
tp1483
a(S'p1_vo'
I4
tp1484
a(S'w'
I2923
tp1485
a(S'tr_lr'
I0
tp1486
a(S'w'
I2933
tp1487
a(S'no_np'
I9
tp1488
a(S'no_ll'
I1
tp1489
a(S'w'
I2
tp1490
a(S'no_vo'
I15
tp1491
a(S'w'
I9
tp1492
a(S'tr_tl'
I171
tp1493
a(S'w'
I1
tp1494
a(S'tr_ll'
I1
tp1495
a(S'tr_lr'
I127
tp1496
a(S'w'
I1459
tp1497
a(S'no_vo'
I0
tp1498
a(S'w'
I1473
tp1499
a(S'p2_vo'
I4
tp1500
a(S'w'
I1458
tp1501
a(S'no_ll'
I1
tp1502
a(S'w'
I1
tp1503
a(S'no_vo'
I15
tp1504
a(S'w'
I1471
tp1505
a(S'no_vo'
I0
tp1506
a(S'w'
I8
tp1507
a(S'tr_lr'
I0
tp1508
a(S'w'
I12
tp1509
a(S'p1_vo'
I3
tp1510
a(S'w'
I2913
tp1511
a(S'no_np'
I0
tp1512
a(S'no_ll'
I1
tp1513
a(S'w'
I2
tp1514
a(S'no_vo'
I15
tp1515
a(S'w'
I11
tp1516
a(S'tr_tl'
I196
tp1517
a(S'w'
I1
tp1518
a(S'tr_ll'
I1
tp1519
a(S'tr_lr'
I127
tp1520
a(S'w'
I1449
tp1521
a(S'no_vo'
I14
tp1522
a(S'w'
I1468
tp1523
a(S'no_vo'
I12
tp1524
a(S'w'
I13
tp1525
a(S'p2_vo'
I3
tp1526
a(S'w'
I1454
tp1527
a(S'no_vo'
I11
tp1528
a(S'w'
I1468
tp1529
a(S'no_vo'
I9
tp1530
a(S'w'
I7
tp1531
a(S'tr_lr'
I0
tp1532
a(S'w'
I1460
tp1533
a(S'no_vo'
I8
tp1534
a(S'w'
I1483
tp1535
a(S'no_np'
I13
tp1536
a(S'no_ll'
I1
tp1537
a(S'w'
I2
tp1538
a(S'no_vo'
I15
tp1539
a(S'w'
I13
tp1540
a(S'tr_tl'
I128
tp1541
a(S'tr_ll'
I1
tp1542
a(S'tr_th'
I2
tp1543
a(S'w'
I1
tp1544
a(S'tr_lr'
I127
tp1545
a(S'w'
I8
tp1546
a(S'p2_vo'
I0
tp1547
a(S'w'
I2
tp1548
a(S'w'
I1
tp1549
a(S'p2_ll'
I1
tp1550
a(S'w'
I9
tp1551
a(S'p1_vo'
I0
tp1552
a(S'w'
I2
tp1553
a(S'w'
I1
tp1554
a(S'p1_ll'
I1
tp1555
a(S'w'
I1416
tp1556
a(S'no_np'
I0
tp1557
a(S'no_ll'
I1
tp1558
a(S'w'
I1472
tp1559
a(S'no_vo'
I0
tp1560
a(S'w'
I2932
tp1561
a(S'no_ll'
I1
tp1562
a(S'w'
I7
tp1563
a(S'tr_lr'
I0
tp1564
a(S'w'
I2927
tp1565
a(S'no_ll'
I1
tp1566
a(S'w'
I2
tp1567
a(S'no_vo'
I15
tp1568
a(S'w'
I12
tp1569
a(S'tr_ll'
I1
tp1570
a(S'tr_lr'
I127
tp1571
a(S'w'
I10
tp1572
a(S'p2_tl'
I254
tp1573
a(S'w'
I1
tp1574
a(S'p2_ll'
I1
tp1575
a(S'p2_th'
I0
tp1576
a(S'w'
I2
tp1577
a(S'p2_vo'
I6
tp1578
a(S'w'
I10
tp1579
a(S'p1_tl'
I64
tp1580
a(S'p1_ll'
I1
tp1581
a(S'p1_th'
I1
tp1582
a(S'w'
I3
tp1583
a(S'p1_vo'
I5
tp1584
a(S'w'
I1432
tp1585
a(S'no_vo'
I0
tp1586
a(S'w'
I4401
tp1587
a(S'tr_lr'
I0
tp1588
a(S'w'
I2935
tp1589
a(S'no_np'
I9
tp1590
a(S'no_ll'
I1
tp1591
a(S'w'
I2
tp1592
a(S'no_vo'
I15
tp1593
a(S'w'
I12
tp1594
a(S'tr_ll'
I1
tp1595
a(S'w'
I1
tp1596
a(S'tr_lr'
I127
tp1597
a(S'w'
I11
tp1598
a(S'p2_tl'
I213
tp1599
a(S'w'
I1
tp1600
a(S'p2_ll'
I1
tp1601
a(S'w'
I12
tp1602
a(S'p1_tl'
I254
tp1603
a(S'p1_ll'
I1
tp1604
a(S'p1_th'
I0
tp1605
a(S'w'
I1428
tp1606
a(S'no_np'
I0
tp1607
a(S'no_ll'
I1
tp1608
a(S'w'
I1470
tp1609
a(S'no_vo'
I0
tp1610
a(S'w'
I2932
tp1611
a(S'no_ll'
I1
tp1612
a(S'w'
I7
tp1613
a(S'tr_lr'
I0
tp1614
a(S'w'
I2927
tp1615
a(S'no_ll'
I1
tp1616
a(S'w'
I2
tp1617
a(S'no_vo'
I15
tp1618
a(S'w'
I12
tp1619
a(S'tr_ll'
I1
tp1620
a(S'tr_lr'
I127
tp1621
a(S'w'
I12
tp1622
a(S'p2_tl'
I254
tp1623
a(S'w'
I1
tp1624
a(S'p2_ll'
I1
tp1625
a(S'w'
I12
tp1626
a(S'p1_tl'
I64
tp1627
a(S'p1_ll'
I1
tp1628
a(S'p1_th'
I1
tp1629
a(S'w'
I1433
tp1630
a(S'no_vo'
I0
tp1631
a(S'w'
I4401
tp1632
a(S'tr_lr'
I0
tp1633
a(S'w'
I2944
tp1634
a(S'no_np'
I13
tp1635
a(S'no_ll'
I1
tp1636
a(S'w'
I2
tp1637
a(S'no_vo'
I15
tp1638
a(S'w'
I12
tp1639
a(S'tr_ll'
I1
tp1640
a(S'w'
I1
tp1641
a(S'tr_lr'
I127
tp1642
a(S'w'
I10
tp1643
a(S'p2_tl'
I226
tp1644
a(S'w'
I1
tp1645
a(S'p2_ll'
I1
tp1646
a(S'w'
I12
tp1647
a(S'p1_tl'
I29
tp1648
a(S'w'
I1
tp1649
a(S'p1_ll'
I1
tp1650
a(S'w'
I1417
tp1651
a(S'no_np'
I0
tp1652
a(S'no_ll'
I1
tp1653
a(S'w'
I1472
tp1654
a(S'no_vo'
I0
tp1655
a(S'w'
I2932
tp1656
a(S'no_ll'
I1
tp1657
a(S'w'
I7
tp1658
a(S'tr_lr'
I0
tp1659
a(S'w'
I2927
tp1660
a(S'no_ll'
I1
tp1661
a(S'w'
I2
tp1662
a(S'no_vo'
I15
tp1663
a(S'w'
I12
tp1664
a(S'tr_ll'
I1
tp1665
a(S'tr_lr'
I127
tp1666
a(S'w'
I1458
tp1667
a(S'no_vo'
I0
tp1668
a(S'w'
I13
tp1669
a(S'p2_vo'
I5
tp1670
a(S'w'
I1465
tp1671
a(S'p1_vo'
I4
tp1672
a(S'w'
I2923
tp1673
a(S'tr_lr'
I0
tp1674
a(S'w'
I2935
tp1675
a(S'no_np'
I9
tp1676
a(S'no_ll'
I1
tp1677
a(S'w'
I2
tp1678
a(S'no_vo'
I15
tp1679
a(S'w'
I12
tp1680
a(S'tr_ll'
I1
tp1681
a(S'w'
I1
tp1682
a(S'tr_lr'
I127
tp1683
a(S'w'
I11
tp1684
a(S'p2_tl'
I190
tp1685
a(S'w'
I1
tp1686
a(S'p2_ll'
I1
tp1687
a(S'w'
I2
tp1688
a(S'p2_vo'
I6
tp1689
a(S'w'
I10
tp1690
a(S'p1_tl'
I226
tp1691
a(S'p1_ll'
I1
tp1692
a(S'p1_th'
I0
tp1693
a(S'w'
I2
tp1694
a(S'p1_vo'
I5
tp1695
a(S'w'
I1426
tp1696
a(S'no_np'
I0
tp1697
a(S'no_ll'
I1
tp1698
a(S'w'
I1470
tp1699
a(S'no_vo'
I0
tp1700
a(S'w'
I2932
tp1701
a(S'no_ll'
I1
tp1702
a(S'w'
I7
tp1703
a(S'tr_lr'
I0
tp1704
a(S'w'
I2193
tp1705
a(S'no_ll'
I1
tp1706
a(S'w'
I2
tp1707
a(S'no_vo'
I15
tp1708
a(S'w'
I12
tp1709
a(S'tr_ll'
I1
tp1710
a(S'tr_lr'
I127
tp1711
a(S'w'
I1458
tp1712
a(S'no_vo'
I0
tp1713
a(S'w'
I13
tp1714
a(S'p2_vo'
I5
tp1715
a(S'w'
I1465
tp1716
a(S'p1_vo'
I4
tp1717
a(S'w'
I2924
tp1718
a(S'tr_lr'
I0
tp1719
a(S'w'
I2943
tp1720
a(S'no_np'
I13
tp1721
a(S'no_ll'
I1
tp1722
a(S'w'
I2
tp1723
a(S'no_vo'
I15
tp1724
a(S'w'
I12
tp1725
a(S'tr_ll'
I1
tp1726
a(S'w'
I1
tp1727
a(S'tr_lr'
I127
tp1728
a(S'w'
I8
tp1729
a(S'p2_vo'
I0
tp1730
a(S'w'
I3
tp1731
a(S'p2_ll'
I1
tp1732
a(S'w'
I9
tp1733
a(S'p1_vo'
I0
tp1734
a(S'w'
I3
tp1735
a(S'p1_ll'
I1
tp1736
a(S'w'
I1418
tp1737
a(S'no_np'
I0
tp1738
a(S'no_ll'
I1
tp1739
a(S'w'
I1472
tp1740
a(S'no_vo'
I0
tp1741
a(S'w'
I2932
tp1742
a(S'no_ll'
I1
tp1743
a(S'w'
I7
tp1744
a(S'tr_lr'
I0
tp1745
a(S'w'
I2927
tp1746
a(S'no_ll'
I1
tp1747
a(S'w'
I2
tp1748
a(S'no_vo'
I15
tp1749
a(S'w'
I12
tp1750
a(S'tr_ll'
I1
tp1751
a(S'w'
I1
tp1752
a(S'tr_lr'
I127
tp1753
a(S'w'
I9
tp1754
a(S'w'
I1
tp1755
a(S'p2_ll'
I1
tp1756
a(S'w'
I2
tp1757
a(S'p2_vo'
I6
tp1758
a(S'w'
I10
tp1759
a(S'p1_ll'
I1
tp1760
a(S'w'
I3
tp1761
a(S'p1_vo'
I5
tp1762
a(S'w'
I1432
tp1763
a(S'no_vo'
I0
tp1764
a(S'w'
I4402
tp1765
a(S'tr_lr'
I0
tp1766
a(S'w'
I2934
tp1767
a(S'no_np'
I9
tp1768
a(S'no_ll'
I1
tp1769
a(S'w'
I2
tp1770
a(S'no_vo'
I15
tp1771
a(S'w'
I12
tp1772
a(S'tr_ll'
I1
tp1773
a(S'w'
I1
tp1774
a(S'tr_lr'
I127
tp1775
a(S'w'
I9
tp1776
a(S'p2_tl'
I160
tp1777
a(S'w'
I1
tp1778
a(S'p2_ll'
I1
tp1779
a(S'w'
I14
tp1780
a(S'p1_tl'
I190
tp1781
a(S'p1_ll'
I1
tp1782
a(S'w'
I1428
tp1783
a(S'no_np'
I0
tp1784
a(S'no_ll'
I1
tp1785
a(S'w'
I1470
tp1786
a(S'no_vo'
I0
tp1787
a(S'w'
I2932
tp1788
a(S'no_ll'
I1
tp1789
a(S'w'
I7
tp1790
a(S'tr_lr'
I0
tp1791
a(S'w'
I2927
tp1792
a(S'no_ll'
I1
tp1793
a(S'w'
I2
tp1794
a(S'no_vo'
I15
tp1795
a(S'w'
I12
tp1796
a(S'tr_ll'
I1
tp1797
a(S'w'
I1
tp1798
a(S'tr_lr'
I127
tp1799
a(S'w'
I9
tp1800
a(S'p2_tl'
I190
tp1801
a(S'w'
I1
tp1802
a(S'p2_ll'
I1
tp1803
a(S'w'
I14
tp1804
a(S'p1_tl'
I226
tp1805
a(S'p1_ll'
I1
tp1806
a(S'w'
I1433
tp1807
a(S'no_vo'
I0
tp1808
a(S'w'
I4402
tp1809
a(S'tr_lr'
I0
tp1810
a(S'w'
I2943
tp1811
a(S'no_np'
I13
tp1812
a(S'no_ll'
I1
tp1813
a(S'w'
I2
tp1814
a(S'no_vo'
I15
tp1815
a(S'w'
I11
tp1816
a(S'tr_tl'
I252
tp1817
a(S'w'
I1
tp1818
a(S'tr_ll'
I1
tp1819
a(S'tr_th'
I1
tp1820
a(S'tr_lr'
I127
tp1821
a(S'w'
I11
tp1822
a(S'p2_tl'
I127
tp1823
a(S'p2_ll'
I1
tp1824
a(S'w'
I15
tp1825
a(S'p1_tl'
I213
tp1826
a(S'p1_ll'
I1
tp1827
a(S'w'
I1416
tp1828
a(S'no_np'
I0
tp1829
a(S'no_ll'
I1
tp1830
a(S'w'
I1472
tp1831
a(S'no_vo'
I0
tp1832
a(S'w'
I2932
tp1833
a(S'no_ll'
I1
tp1834
a(S'w'
I7
tp1835
a(S'tr_lr'
I0
tp1836
a(S'w'
I2927
tp1837
a(S'no_ll'
I1
tp1838
a(S'w'
I2
tp1839
a(S'no_vo'
I15
tp1840
a(S'w'
I10
tp1841
a(S'tr_ll'
I1
tp1842
a(S'tr_lr'
I127
tp1843
a(S'w'
I1460
tp1844
a(S'no_vo'
I0
tp1845
a(S'w'
I13
tp1846
a(S'p2_vo'
I5
tp1847
a(S'w'
I1465
tp1848
a(S'p1_vo'
I4
tp1849
a(S'w'
I2924
tp1850
a(S'tr_lr'
I0
tp1851
a(S'w'
I2934
tp1852
a(S'no_np'
I9
tp1853
a(S'no_ll'
I1
tp1854
a(S'w'
I2
tp1855
a(S'no_vo'
I15
tp1856
a(S'w'
I9
tp1857
a(S'tr_tl'
I58
tp1858
a(S'w'
I1
tp1859
a(S'tr_ll'
I1
tp1860
a(S'tr_th'
I2
tp1861
a(S'tr_lr'
I127
tp1862
a(S'w'
I1455
tp1863
a(S'no_np'
I0
tp1864
a(S'no_ll'
I1
tp1865
a(S'w'
I1470
tp1866
a(S'no_vo'
I0
tp1867
a(S'w'
I14
tp1868
a(S'p2_vo'
I4
tp1869
a(S'w'
I2918
tp1870
a(S'no_ll'
I1
tp1871
a(S'w'
I7
tp1872
a(S'tr_lr'
I0
tp1873
a(S'w'
I13
tp1874
a(S'p1_vo'
I3
tp1875
a(S'w'
I2914
tp1876
a(S'no_ll'
I1
tp1877
a(S'w'
I2
tp1878
a(S'no_vo'
I15
tp1879
a(S'w'
I10
tp1880
a(S'tr_ll'
I1
tp1881
a(S'tr_lr'
I127
tp1882
a(S'w'
I1460
tp1883
a(S'no_vo'
I0
tp1884
a(S'w'
I1472
tp1885
a(S'p2_vo'
I3
tp1886
a(S'w'
I2930
tp1887
a(S'tr_lr'
I0
tp1888
a(S'w'
I2943
tp1889
a(S'no_np'
I13
tp1890
a(S'no_ll'
I1
tp1891
a(S'w'
I2
tp1892
a(S'no_vo'
I15
tp1893
a(S'w'
I13
tp1894
a(S'tr_tl'
I128
tp1895
a(S'tr_ll'
I1
tp1896
a(S'w'
I1
tp1897
a(S'tr_lr'
I127
tp1898
a(S'w'
I8
tp1899
a(S'p2_vo'
I0
tp1900
a(S'w'
I3
tp1901
a(S'p2_ll'
I1
tp1902
a(S'w'
I9
tp1903
a(S'p1_vo'
I0
tp1904
a(S'w'
I3
tp1905
a(S'p1_ll'
I1
tp1906
a(S'w'
I1417
tp1907
a(S'no_np'
I0
tp1908
a(S'no_ll'
I1
tp1909
a(S'w'
I1472
tp1910
a(S'no_vo'
I0
tp1911
a(S'w'
I2932
tp1912
a(S'no_ll'
I1
tp1913
a(S'w'
I7
tp1914
a(S'tr_lr'
I0
tp1915
a(S'w'
I2927
tp1916
a(S'no_ll'
I1
tp1917
a(S'w'
I2
tp1918
a(S'no_vo'
I15
tp1919
a(S'w'
I12
tp1920
a(S'tr_ll'
I1
tp1921
a(S'w'
I1
tp1922
a(S'tr_lr'
I127
tp1923
a(S'w'
I9
tp1924
a(S'w'
I1
tp1925
a(S'p2_ll'
I1
tp1926
a(S'w'
I2
tp1927
a(S'p2_vo'
I6
tp1928
a(S'w'
I10
tp1929
a(S'p1_tl'
I160
tp1930
a(S'p1_ll'
I1
tp1931
a(S'w'
I3
tp1932
a(S'p1_vo'
I5
tp1933
a(S'w'
I1432
tp1934
a(S'no_vo'
I0
tp1935
a(S'w'
I4402
tp1936
a(S'tr_lr'
I0
tp1937
a(S'w'
I2934
tp1938
a(S'no_np'
I9
tp1939
a(S'no_ll'
I1
tp1940
a(S'w'
I2
tp1941
a(S'no_vo'
I15
tp1942
a(S'w'
I12
tp1943
a(S'tr_ll'
I1
tp1944
a(S'w'
I1
tp1945
a(S'tr_lr'
I127
tp1946
a(S'w'
I11
tp1947
a(S'p2_tl'
I106
tp1948
a(S'w'
I1
tp1949
a(S'p2_ll'
I1
tp1950
a(S'w'
I12
tp1951
a(S'p1_tl'
I127
tp1952
a(S'p1_ll'
I1
tp1953
a(S'w'
I1428
tp1954
a(S'no_np'
I0
tp1955
a(S'no_ll'
I1
tp1956
a(S'w'
I1470
tp1957
a(S'no_vo'
I0
tp1958
a(S'w'
I2198
tp1959
a(S'no_ll'
I1
tp1960
a(S'w'
I7
tp1961
a(S'tr_lr'
I0
tp1962
a(S'w'
I2927
tp1963
a(S'no_ll'
I1
tp1964
a(S'w'
I2
tp1965
a(S'no_vo'
I15
tp1966
a(S'w'
I12
tp1967
a(S'tr_ll'
I1
tp1968
a(S'w'
I1
tp1969
a(S'tr_lr'
I127
tp1970
a(S'w'
I11
tp1971
a(S'p2_tl'
I127
tp1972
a(S'w'
I1
tp1973
a(S'p2_ll'
I1
tp1974
a(S'w'
I12
tp1975
a(S'p1_tl'
I160
tp1976
a(S'p1_ll'
I1
tp1977
a(S'w'
I1433
tp1978
a(S'no_vo'
I0
tp1979
a(S'w'
I4402
tp1980
a(S'tr_lr'
I0
tp1981
a(S'w'
I2943
tp1982
a(S'no_np'
I13
tp1983
a(S'no_ll'
I1
tp1984
a(S'w'
I2
tp1985
a(S'no_vo'
I15
tp1986
a(S'w'
I12
tp1987
a(S'tr_ll'
I1
tp1988
a(S'w'
I1
tp1989
a(S'tr_lr'
I127
tp1990
a(S'w'
I12
tp1991
a(S'p2_tl'
I84
tp1992
a(S'p2_ll'
I1
tp1993
a(S'w'
I15
tp1994
a(S'p1_tl'
I106
tp1995
a(S'p1_ll'
I1
tp1996
a(S'w'
I1415
tp1997
a(S'no_np'
I0
tp1998
a(S'no_ll'
I1
tp1999
a(S'w'
I1471
tp2000
a(S'no_vo'
I0
tp2001
a(S'w'
I2932
tp2002
a(S'no_ll'
I1
tp2003
a(S'w'
I7
tp2004
a(S'tr_lr'
I0
tp2005
a(S'w'
I2927
tp2006
a(S'no_ll'
I1
tp2007
a(S'w'
I2
tp2008
a(S'no_vo'
I15
tp2009
a(S'w'
I12
tp2010
a(S'tr_ll'
I1
tp2011
a(S'w'
I1
tp2012
a(S'tr_lr'
I127
tp2013
a(S'w'
I1457
tp2014
a(S'no_vo'
I0
tp2015
a(S'w'
I13
tp2016
a(S'p2_vo'
I5
tp2017
a(S'w'
I1466
tp2018
a(S'p1_vo'
I4
tp2019
a(S'w'
I2923
tp2020
a(S'tr_lr'
I0
tp2021
a(S'w'
I2934
tp2022
a(S'no_np'
I9
tp2023
a(S'no_ll'
I1
tp2024
a(S'w'
I2
tp2025
a(S'no_vo'
I15
tp2026
a(S'w'
I12
tp2027
a(S'tr_ll'
I1
tp2028
a(S'w'
I1
tp2029
a(S'tr_lr'
I127
tp2030
a(S'w'
I9
tp2031
a(S'p2_tl'
I106
tp2032
a(S'w'
I1
tp2033
a(S'p2_ll'
I1
tp2034
a(S'w'
I2
tp2035
a(S'p2_vo'
I6
tp2036
a(S'w'
I12
tp2037
a(S'p1_tl'
I127
tp2038
a(S'p1_ll'
I1
tp2039
a(S'w'
I2
tp2040
a(S'p1_vo'
I5
tp2041
a(S'w'
I1426
tp2042
a(S'no_np'
I0
tp2043
a(S'no_ll'
I1
tp2044
a(S'w'
I1470
tp2045
a(S'no_vo'
I0
tp2046
a(S'w'
I2932
tp2047
a(S'no_ll'
I1
tp2048
a(S'w'
I7
tp2049
a(S'tr_lr'
I0
tp2050
a(S'w'
I2927
tp2051
a(S'no_ll'
I1
tp2052
a(S'w'
I2
tp2053
a(S'no_vo'
I15
tp2054
a(S'w'
I12
tp2055
a(S'tr_ll'
I1
tp2056
a(S'tr_lr'
I127
tp2057
a(S'w'
I1458
tp2058
a(S'no_vo'
I0
tp2059
a(S'w'
I13
tp2060
a(S'p2_vo'
I5
tp2061
a(S'w'
I1466
tp2062
a(S'p1_vo'
I4
tp2063
a(S'w'
I2923
tp2064
a(S'tr_lr'
I0
tp2065
a(S'w'
I2943
tp2066
a(S'no_np'
I13
tp2067
a(S'no_ll'
I1
tp2068
a(S'w'
I2
tp2069
a(S'no_vo'
I15
tp2070
a(S'w'
I14
tp2071
a(S'tr_tl'
I58
tp2072
a(S'w'
I1
tp2073
a(S'tr_ll'
I1
tp2074
a(S'tr_lr'
I127
tp2075
a(S'w'
I11
tp2076
a(S'p2_tl'
I95
tp2077
a(S'p2_ll'
I1
tp2078
a(S'w'
I2
tp2079
a(S'p2_vo'
I6
tp2080
a(S'w'
I11
tp2081
a(S'p1_tl'
I113
tp2082
a(S'p1_ll'
I1
tp2083
a(S'w'
I2
tp2084
a(S'p1_vo'
I5
tp2085
a(S'w'
I1413
tp2086
a(S'no_np'
I0
tp2087
a(S'no_ll'
I1
tp2088
a(S'w'
I1472
tp2089
a(S'no_vo'
I0
tp2090
a(S'w'
I2932
tp2091
a(S'no_ll'
I1
tp2092
a(S'w'
I7
tp2093
a(S'tr_lr'
I0
tp2094
a(S'w'
I2927
tp2095
a(S'no_ll'
I1
tp2096
a(S'w'
I2
tp2097
a(S'no_vo'
I15
tp2098
a(S'w'
I12
tp2099
a(S'tr_ll'
I1
tp2100
a(S'tr_lr'
I127
tp2101
a(S'w'
I1458
tp2102
a(S'no_vo'
I0
tp2103
a(S'w'
I13
tp2104
a(S'p2_vo'
I5
tp2105
a(S'w'
I1466
tp2106
a(S'p1_vo'
I4
tp2107
a(S'w'
I2923
tp2108
a(S'tr_lr'
I0
tp2109
a(S'w'
I2934
tp2110
a(S'no_np'
I9
tp2111
a(S'no_ll'
I1
tp2112
a(S'w'
I2
tp2113
a(S'no_vo'
I15
tp2114
a(S'w'
I12
tp2115
a(S'tr_ll'
I1
tp2116
a(S'w'
I1
tp2117
a(S'tr_lr'
I127
tp2118
a(S'w'
I1452
tp2119
a(S'no_np'
I0
tp2120
a(S'no_ll'
I1
tp2121
a(S'w'
I1470
tp2122
a(S'no_vo'
I0
tp2123
a(S'w'
I14
tp2124
a(S'p2_vo'
I4
tp2125
a(S'w'
I2918
tp2126
a(S'no_ll'
I1
tp2127
a(S'w'
I7
tp2128
a(S'tr_lr'
I0
tp2129
a(S'w'
I13
tp2130
a(S'p1_vo'
I3
tp2131
a(S'w'
I2914
tp2132
a(S'no_ll'
I1
tp2133
a(S'w'
I2
tp2134
a(S'no_vo'
I15
tp2135
a(S'w'
I12
tp2136
a(S'tr_ll'
I1
tp2137
a(S'tr_lr'
I127
tp2138
a(S'w'
I1458
tp2139
a(S'no_vo'
I0
tp2140
a(S'w'
I1473
tp2141
a(S'p2_vo'
I3
tp2142
a(S'w'
I2929
tp2143
a(S'tr_lr'
I0
tp2144
a(S'w'
I2943
tp2145
a(S'no_np'
I13
tp2146
a(S'no_ll'
I1
tp2147
a(S'w'
I2
tp2148
a(S'no_vo'
I15
tp2149
a(S'w'
I12
tp2150
a(S'tr_ll'
I1
tp2151
a(S'w'
I1
tp2152
a(S'tr_lr'
I127
tp2153
a(S'w'
I12
tp2154
a(S'p1_vo'
I2
tp2155
a(S'w'
I1429
tp2156
a(S'no_np'
I0
tp2157
a(S'no_ll'
I1
tp2158
a(S'w'
I1472
tp2159
a(S'no_vo'
I0
tp2160
a(S'w'
I1473
tp2161
a(S'p2_vo'
I2
tp2162
a(S'w'
I1459
tp2163
a(S'no_ll'
I1
tp2164
a(S'w'
I7
tp2165
a(S'tr_lr'
I0
tp2166
a(S'w'
I2927
tp2167
a(S'no_ll'
I1
tp2168
a(S'w'
I2
tp2169
a(S'no_vo'
I15
tp2170
a(S'w'
I12
tp2171
a(S'tr_ll'
I1
tp2172
a(S'tr_lr'
I127
tp2173
a(S'w'
I1458
tp2174
a(S'no_vo'
I0
tp2175
a(S'w'
I1479
tp2176
a(S'p1_vo'
I1
tp2177
a(S'w'
I2923
tp2178
a(S'tr_lr'
I0
tp2179
a(S'w'
I7
tp2180
a(S'p2_vo'
I1
tp2181
a(S'w'
I2927
tp2182
a(S'no_np'
I9
tp2183
a(S'no_ll'
I1
tp2184
a(S'w'
I2
tp2185
a(S'no_vo'
I15
tp2186
a(S'w'
I12
tp2187
a(S'tr_ll'
I1
tp2188
a(S'w'
I1
tp2189
a(S'tr_lr'
I127
tp2190
a(S'w'
I10
tp2191
a(S'p2_vo'
I0
tp2192
a(S'w'
I3
tp2193
a(S'p2_ll'
I1
tp2194
a(S'w'
I11
tp2195
a(S'p1_vo'
I0
tp2196
a(S'w'
I3
tp2197
a(S'p1_ll'
I1
tp2198
a(S'w'
I1425
tp2199
a(S'no_np'
I0
tp2200
a(S'no_ll'
I1
tp2201
a(S'w'
I1470
tp2202
a(S'no_vo'
I0
tp2203
a(S'w'
I2198
tp2204
a(S'no_ll'
I1
tp2205
a(S'w'
I7
tp2206
a(S'tr_lr'
I0
tp2207
a(S'w'
I2928
tp2208
a(S'no_ll'
I1
tp2209
a(S'w'
I2
tp2210
a(S'no_vo'
I15
tp2211
a(S'w'
I12
tp2212
a(S'tr_ll'
I1
tp2213
a(S'w'
I1
tp2214
a(S'tr_lr'
I127
tp2215
a(S'w'
I10
tp2216
a(S'p2_ll'
I1
tp2217
a(S'w'
I2
tp2218
a(S'p2_vo'
I6
tp2219
a(S'w'
I11
tp2220
a(S'p1_ll'
I1
tp2221
a(S'w'
I2
tp2222
a(S'p1_vo'
I5
tp2223
a(S'w'
I1431
tp2224
a(S'no_vo'
I0
tp2225
a(S'w'
I13
tp2226
a(S'p2_vo'
I5
tp2227
a(S'w'
I7
tp2228
a(S'p1_vo'
I4
tp2229
a(S'w'
I1453
tp2230
a(S'p2_vo'
I4
tp2231
a(S'w'
I7
tp2232
a(S'p1_vo'
I3
tp2233
a(S'w'
I1464
tp2234
a(S'p2_ll'
I1
tp2235
a(S'w'
I2
tp2236
a(S'p2_vo'
I6
tp2237
a(S'w'
I10
tp2238
a(S'w'
I1
tp2239
a(S'p1_ll'
I1
tp2240
a(S'w'
I2
tp2241
a(S'p1_vo'
I5
tp2242
a(S'w'
I1443
tp2243
a(S'tr_lr'
I0
tp2244
a(S'w'
I7
tp2245
a(S'p2_vo'
I5
tp2246
a(S'w'
I7
tp2247
a(S'p1_vo'
I4
tp2248
a(S'w'
I1458
tp2249
a(S'p2_vo'
I4
tp2250
a(S'w'
I7
tp2251
a(S'p1_vo'
I3
tp2252
a(S'w'
I1464
tp2253
a(S'no_np'
I13
tp2254
a(S'no_ll'
I1
tp2255
a(S'w'
I2
tp2256
a(S'no_vo'
I15
tp2257
a(S'w'
I14
tp2258
a(S'tr_tl'
I166
tp2259
a(S'w'
I1
tp2260
a(S'tr_ll'
I1
tp2261
a(S'tr_lr'
I127
tp2262
a(S'w'
I14
tp2263
a(S'p2_tl'
I84
tp2264
a(S'w'
I1
tp2265
a(S'p2_ll'
I1
tp2266
a(S'w'
I2
tp2267
a(S'p2_vo'
I6
tp2268
a(S'w'
I13
tp2269
a(S'p1_tl'
I127
tp2270
a(S'p1_ll'
I1
tp2271
a(S'w'
I2
tp2272
a(S'p1_vo'
I5
tp2273
a(S'w'
I1408
tp2274
a(S'no_np'
I0
tp2275
a(S'no_ll'
I1
tp2276
a(S'w'
I1471
tp2277
a(S'no_vo'
I0
tp2278
a(S'w'
I2932
tp2279
a(S'no_ll'
I1
tp2280
a(S'w'
I7
tp2281
a(S'tr_lr'
I0
tp2282
a(S'w'
I2928
tp2283
a(S'no_ll'
I1
tp2284
a(S'w'
I2
tp2285
a(S'no_vo'
I15
tp2286
a(S'w'
I12
tp2287
a(S'tr_ll'
I1
tp2288
a(S'w'
I1
tp2289
a(S'tr_lr'
I127
tp2290
a(S'w'
I1456
tp2291
a(S'no_vo'
I0
tp2292
a(S'w'
I1476
tp2293
a(S'p1_vo'
I4
tp2294
a(S'w'
I2926
tp2295
a(S'tr_lr'
I0
tp2296
a(S'w'
I2934
tp2297
a(S'no_np'
I9
tp2298
a(S'no_ll'
I1
tp2299
a(S'w'
I2
tp2300
a(S'no_vo'
I15
tp2301
a(S'w'
I12
tp2302
a(S'tr_ll'
I1
tp2303
a(S'w'
I1
tp2304
a(S'tr_lr'
I127
tp2305
a(S'w'
I1453
tp2306
a(S'no_np'
I0
tp2307
a(S'no_ll'
I1
tp2308
a(S'w'
I1469
tp2309
a(S'no_vo'
I0
tp2310
a(S'w'
I2932
tp2311
a(S'no_ll'
I1
tp2312
a(S'w'
I7
tp2313
a(S'tr_lr'
I0
tp2314
a(S'w'
I10
tp2315
a(S'p1_vo'
I3
tp2316
a(S'w'
I2918
tp2317
a(S'no_ll'
I1
tp2318
a(S'w'
I2
tp2319
a(S'no_vo'
I15
tp2320
a(S'w'
I12
tp2321
a(S'tr_ll'
I1
tp2322
a(S'w'
I1
tp2323
a(S'tr_lr'
I127
tp2324
a(S'w'
I1456
tp2325
a(S'no_vo'
I0
tp2326
a(S'w'
I4402
tp2327
a(S'tr_lr'
I0
tp2328
a(S'w'
I2941
tp2329
a(S'no_np'
I3
tp2330
a(S'no_ll'
I1
tp2331
a(S'w'
I2
tp2332
a(S'no_vo'
I15
tp2333
a(S'w'
I13
tp2334
a(S'tr_tl'
I83
tp2335
a(S'w'
I1
tp2336
a(S'tr_ll'
I1
tp2337
a(S'tr_th'
I1
tp2338
a(S'tr_lr'
I127
tp2339
a(S'w'
I20
tp2340
a(S'p1_tl'
I134
tp2341
a(S'p1_ll'
I1
tp2342
a(S'w'
I2
tp2343
a(S'p1_vo'
I5
tp2344
a(S'w'
I1420
tp2345
a(S'no_vo'
I10
tp2346
a(S'w'
I1467
tp2347
a(S'no_vo'
I5
tp2348
a(S'w'
I1468
tp2349
a(S'no_vo'
I0
tp2350
a(S'w'
I1471
tp2351
a(S'tr_lr'
I0
tp2352
a(S'w'
I2933
tp2353
a(S'no_np'
I6
tp2354
a(S'no_ll'
I1
tp2355
a(S'w'
I1
tp2356
a(S'no_vo'
I15
tp2357
a(S'w'
I10
tp2358
a(S'tr_tl'
I124
tp2359
a(S'tr_ll'
I1
tp2360
a(S'w'
I1
tp2361
a(S'tr_lr'
I127
tp2362
a(S'w'
I1454
tp2363
a(S'no_vo'
I10
tp2364
a(S'w'
I13
tp2365
a(S'p2_vo'
I5
tp2366
a(S'w'
I1455
tp2367
a(S'no_vo'
I5
tp2368
a(S'w'
I20
tp2369
a(S'p1_vo'
I4
tp2370
a(S'w'
I1447
tp2371
a(S'no_vo'
I0
tp2372
a(S'w'
I1472
tp2373
a(S'tr_lr'
I0
tp2374
a(S'w'
I2932
tp2375
a(S'no_np'
I9
tp2376
a(S'no_ll'
I1
tp2377
a(S'w'
I1
tp2378
a(S'no_vo'
I15
tp2379
a(S'w'
I10
tp2380
a(S'tr_tl'
I171
tp2381
a(S'tr_ll'
I1
tp2382
a(S'w'
I1
tp2383
a(S'tr_lr'
I127
tp2384
a(S'w'
I1455
tp2385
a(S'no_vo'
I10
tp2386
a(S'w'
I1467
tp2387
a(S'no_vo'
I5
tp2388
a(S'w'
I14
tp2389
a(S'p2_vo'
I4
tp2390
a(S'w'
I1454
tp2391
a(S'no_vo'
I0
tp2392
a(S'w'
I1471
tp2393
a(S'tr_lr'
I0
tp2394
a(S'w'
I13
tp2395
a(S'p1_vo'
I3
tp2396
a(S'w'
I2922
tp2397
a(S'no_np'
I0
tp2398
a(S'no_ll'
I1
tp2399
a(S'w'
I2
tp2400
a(S'no_vo'
I15
tp2401
a(S'w'
I11
tp2402
a(S'tr_tl'
I196
tp2403
a(S'w'
I1
tp2404
a(S'tr_ll'
I1
tp2405
a(S'tr_lr'
I127
tp2406
a(S'w'
I1455
tp2407
a(S'no_vo'
I0
tp2408
a(S'w'
I1473
tp2409
a(S'p2_vo'
I3
tp2410
a(S'w'
I1458
tp2411
a(S'no_ll'
I1
tp2412
a(S'w'
I1
tp2413
a(S'no_vo'
I15
tp2414
a(S'w'
I1471
tp2415
a(S'no_vo'
I0
tp2416
a(S'w'
I8
tp2417
a(S'tr_lr'
I0
tp2418
a(S'w'
I2937
tp2419
a(S'no_np'
I13
tp2420
a(S'no_ll'
I1
tp2421
a(S'w'
I2
tp2422
a(S'no_vo'
I15
tp2423
a(S'w'
I15
tp2424
a(S'tr_tl'
I128
tp2425
a(S'tr_ll'
I1
tp2426
a(S'tr_th'
I2
tp2427
a(S'w'
I1
tp2428
a(S'tr_lr'
I127
tp2429
a(S'w'
I12
tp2430
a(S'p2_vo'
I0
tp2431
a(S'w'
I3
tp2432
a(S'p2_tl'
I169
tp2433
a(S'p2_ll'
I1
tp2434
a(S'w'
I13
tp2435
a(S'p1_vo'
I0
tp2436
a(S'w'
I3
tp2437
a.