(lp1
(S'clock'
p2
I1789772
tp3
a(S'ch_no'
I0
tp4
a(S'ch_tr'
I0
tp5
a(S'ch_p2'
I0
tp6
a(S'ch_p1'
I0
tp7
a(S'p1_ll'
I0
tp8
a(S'p1_ll'
I0
tp9
a(S'fc_mo'
I1
tp10
a(S'w'
I34
tp11
a(S'p1_tl'
I60
tp12
a(S'w'
I1
tp13
a(S'p1_ll'
I0
tp14
a(S'p1_th'
I2
tp15
a(S'w'
I1
tp16
a(S'p1_lh'
I1
tp17
a(S'p1_cv'
I1
tp18
a(S'p1_vo'
I13
tp19
a(S'w'
I1
tp20
a(S'ch_no'
I1
tp21
a(S'ch_tr'
I1
tp22
a(S'ch_p2'
I1
tp23
a(S'ch_p1'
I1
tp24
a(S'w'
I9
tp25
a(S'w'
I33
tp26
a(S'tr_lh'
I1
tp27
a(S'tr_lr'
I15
tp28
a(S'w'
I1
tp29
a(S'ch_no'
I1
tp30
a(S'ch_tr'
I0
tp31
a(S'ch_p2'
I1
tp32
a(S'ch_p1'
I1
tp33
a(S'w'
I33
tp34
a(S'ch_no'
I1
tp35
a(S'ch_tr'
I1
tp36
a(S'ch_p2'
I1
tp37
a(S'ch_p1'
I1
tp38
a(S'w'
I630
tp39
a(S'p1_vo'
I14
tp40
a(S'w'
I17
tp41
a(S'ch_no'
I1
tp42
a(S'ch_tr'
I0
tp43
a(S'ch_p2'
I1
tp44
a(S'ch_p1'
I1
tp45
a(S'w'
I9
tp46
a(S'ch_no'
I1
tp47
a(S'ch_tr'
I1
tp48
a(S'ch_p2'
I1
tp49
a(S'ch_p1'
I1
tp50
a(S'w'
I724
tp51
a(S'ch_no'
I1
tp52
a(S'ch_tr'
I0
tp53
a(S'ch_p2'
I1
tp54
a(S'ch_p1'
I1
tp55
a(S'w'
I9
tp56
a(S'ch_no'
I1
tp57
a(S'ch_tr'
I1
tp58
a(S'ch_p2'
I1
tp59
a(S'ch_p1'
I1
tp60
a(S'w'
I709
tp61
a(S'p1_vo'
I12
tp62
a(S'w'
I17
tp63
a(S'ch_no'
I1
tp64
a(S'ch_tr'
I0
tp65
a(S'ch_p2'
I1
tp66
a(S'ch_p1'
I1
tp67
a(S'w'
I9
tp68
a(S'ch_no'
I1
tp69
a(S'ch_tr'
I1
tp70
a(S'ch_p2'
I1
tp71
a(S'ch_p1'
I1
tp72
a(S'w'
I724
tp73
a(S'ch_no'
I1
tp74
a(S'ch_tr'
I0
tp75
a(S'ch_p2'
I1
tp76
a(S'ch_p1'
I1
tp77
a(S'w'
I9
tp78
a(S'ch_no'
I1
tp79
a(S'ch_tr'
I1
tp80
a(S'ch_p2'
I1
tp81
a(S'ch_p1'
I1
tp82
a(S'w'
I724
tp83
a(S'ch_no'
I1
tp84
a(S'ch_tr'
I0
tp85
a(S'ch_p2'
I1
tp86
a(S'ch_p1'
I1
tp87
a(S'w'
I9
tp88
a(S'ch_no'
I1
tp89
a(S'ch_tr'
I1
tp90
a(S'ch_p2'
I1
tp91
a(S'ch_p1'
I1
tp92
a(S'w'
I730
tp93
a(S'p1_tl'
I223
tp94
a(S'w'
I1
tp95
a(S'p1_ll'
I0
tp96
a(S'p1_th'
I1
tp97
a(S'w'
I1
tp98
a(S'p1_vo'
I13
tp99
a(S'w'
I17
tp100
a(S'ch_no'
I1
tp101
a(S'ch_tr'
I0
tp102
a(S'ch_p2'
I1
tp103
a(S'ch_p1'
I1
tp104
a(S'w'
I9
tp105
a(S'ch_no'
I1
tp106
a(S'ch_tr'
I1
tp107
a(S'ch_p2'
I1
tp108
a(S'ch_p1'
I1
tp109
a(S'w'
I685
tp110
a(S'p1_vo'
I14
tp111
a(S'w'
I17
tp112
a(S'ch_no'
I1
tp113
a(S'ch_tr'
I0
tp114
a(S'ch_p2'
I1
tp115
a(S'ch_p1'
I1
tp116
a(S'w'
I9
tp117
a(S'ch_no'
I1
tp118
a(S'ch_tr'
I1
tp119
a(S'ch_p2'
I1
tp120
a(S'ch_p1'
I1
tp121
a(S'w'
I724
tp122
a(S'ch_no'
I1
tp123
a(S'ch_tr'
I0
tp124
a(S'ch_p2'
I1
tp125
a(S'ch_p1'
I1
tp126
a(S'w'
I10
tp127
a(S'ch_no'
I1
tp128
a(S'ch_tr'
I1
tp129
a(S'ch_p2'
I1
tp130
a(S'ch_p1'
I1
tp131
a(S'w'
I708
tp132
a(S'p1_vo'
I12
tp133
a(S'w'
I17
tp134
a(S'ch_no'
I1
tp135
a(S'ch_tr'
I0
tp136
a(S'ch_p2'
I1
tp137
a(S'ch_p1'
I1
tp138
a(S'w'
I9
tp139
a(S'ch_no'
I1
tp140
a(S'ch_tr'
I1
tp141
a(S'ch_p2'
I1
tp142
a(S'ch_p1'
I1
tp143
a(S'w'
I723
tp144
a(S'ch_no'
I1
tp145
a(S'ch_tr'
I0
tp146
a(S'ch_p2'
I1
tp147
a(S'ch_p1'
I1
tp148
a(S'w'
I9
tp149
a(S'ch_no'
I1
tp150
a(S'ch_tr'
I1
tp151
a(S'ch_p2'
I1
tp152
a(S'ch_p1'
I1
tp153
a(S'w'
I725
tp154
a(S'ch_no'
I1
tp155
a(S'ch_tr'
I0
tp156
a(S'ch_p2'
I1
tp157
a(S'ch_p1'
I1
tp158
a(S'w'
I10
tp159
a(S'ch_no'
I1
tp160
a(S'ch_tr'
I1
tp161
a(S'ch_p2'
I1
tp162
a(S'ch_p1'
I1
tp163
a(S'w'
I729
tp164
a(S'p1_tl'
I45
tp165
a(S'w'
I1
tp166
a(S'p1_ll'
I0
tp167
a(S'w'
I1
tp168
a(S'p1_vo'
I13
tp169
a(S'w'
I17
tp170
a(S'ch_no'
I1
tp171
a(S'ch_tr'
I0
tp172
a(S'ch_p2'
I1
tp173
a(S'ch_p1'
I1
tp174
a(S'w'
I9
tp175
a(S'ch_no'
I1
tp176
a(S'ch_tr'
I1
tp177
a(S'ch_p2'
I1
tp178
a(S'ch_p1'
I1
tp179
a(S'w'
I685
tp180
a(S'p1_vo'
I14
tp181
a(S'w'
I17
tp182
a(S'ch_no'
I1
tp183
a(S'ch_tr'
I0
tp184
a(S'ch_p2'
I1
tp185
a(S'ch_p1'
I1
tp186
a(S'w'
I9
tp187
a(S'ch_no'
I1
tp188
a(S'ch_tr'
I1
tp189
a(S'ch_p2'
I1
tp190
a(S'ch_p1'
I1
tp191
a(S'w'
I724
tp192
a(S'ch_no'
I1
tp193
a(S'ch_tr'
I0
tp194
a(S'ch_p2'
I1
tp195
a(S'ch_p1'
I1
tp196
a(S'w'
I10
tp197
a(S'ch_no'
I1
tp198
a(S'ch_tr'
I1
tp199
a(S'ch_p2'
I1
tp200
a(S'ch_p1'
I1
tp201
a(S'w'
I707
tp202
a(S'p1_vo'
I12
tp203
a(S'w'
I18
tp204
a(S'ch_no'
I1
tp205
a(S'ch_tr'
I0
tp206
a(S'ch_p2'
I1
tp207
a(S'ch_p1'
I1
tp208
a(S'w'
I10
tp209
a(S'ch_no'
I1
tp210
a(S'ch_tr'
I1
tp211
a(S'ch_p2'
I1
tp212
a(S'ch_p1'
I1
tp213
a(S'w'
I723
tp214
a(S'ch_no'
I1
tp215
a(S'ch_tr'
I0
tp216
a(S'ch_p2'
I1
tp217
a(S'ch_p1'
I1
tp218
a(S'w'
I10
tp219
a(S'ch_no'
I1
tp220
a(S'ch_tr'
I1
tp221
a(S'ch_p2'
I1
tp222
a(S'ch_p1'
I1
tp223
a(S'w'
I724
tp224
a(S'ch_no'
I1
tp225
a(S'ch_tr'
I0
tp226
a(S'ch_p2'
I1
tp227
a(S'ch_p1'
I1
tp228
a(S'w'
I10
tp229
a(S'ch_no'
I1
tp230
a(S'ch_tr'
I1
tp231
a(S'ch_p2'
I1
tp232
a(S'ch_p1'
I1
tp233
a(S'w'
I728
tp234
a(S'p1_tl'
I253
tp235
a(S'w'
I1
tp236
a(S'p1_ll'
I0
tp237
a(S'p1_th'
I0
tp238
a(S'w'
I1
tp239
a(S'p1_vo'
I13
tp240
a(S'w'
I38
tp241
a(S'tr_tl'
I60
tp242
a(S'tr_ll'
I0
tp243
a(S'tr_th'
I2
tp244
a(S'w'
I31
tp245
a(S'no_np'
I6
tp246
a(S'no_ll'
I0
tp247
a(S'w'
I1
tp248
a(S'no_lh'
I1
tp249
a(S'no_cv'
I1
tp250
a(S'no_vo'
I9
tp251
a(S'w'
I641
tp252
a(S'p1_vo'
I14
tp253
a(S'w'
I26
tp254
a(S'no_vo'
I10
tp255
a(S'w'
I1441
tp256
a(S'p1_vo'
I12
tp257
a(S'w'
I26
tp258
a(S'no_vo'
I8
tp259
a(S'w'
I2197
tp260
a(S'p1_tl'
I0
tp261
a(S'p1_ll'
I0
tp262
a(S'w'
I2
tp263
a(S'p1_lh'
I0
tp264
a(S'p1_cv'
I0
tp265
a(S'p1_vo'
I0
tp266
a(S'w'
I38
tp267
a(S'tr_tl'
I0
tp268
a(S'tr_ll'
I0
tp269
a(S'tr_th'
I0
tp270
a(S'w'
I1
tp271
a(S'ch_no'
I1
tp272
a(S'ch_tr'
I0
tp273
a(S'ch_p2'
I1
tp274
a(S'ch_p1'
I1
tp275
a(S'w'
I9
tp276
a(S'no_vo'
I4
tp277
a(S'ch_no'
I1
tp278
a(S'ch_tr'
I1
tp279
a(S'ch_p2'
I1
tp280
a(S'ch_p1'
I1
tp281
a(S'w'
I679
tp282
a(S'ch_no'
I1
tp283
a(S'ch_tr'
I0
tp284
a(S'ch_p2'
I1
tp285
a(S'ch_p1'
I1
tp286
a(S'w'
I9
tp287
a(S'no_vo'
I3
tp288
a(S'ch_no'
I1
tp289
a(S'ch_tr'
I1
tp290
a(S'ch_p2'
I1
tp291
a(S'ch_p1'
I1
tp292
a(S'w'
I725
tp293
a(S'ch_no'
I1
tp294
a(S'ch_tr'
I0
tp295
a(S'ch_p2'
I1
tp296
a(S'ch_p1'
I1
tp297
a(S'w'
I9
tp298
a(S'no_vo'
I2
tp299
a(S'ch_no'
I1
tp300
a(S'ch_tr'
I1
tp301
a(S'ch_p2'
I1
tp302
a(S'ch_p1'
I1
tp303
a(S'w'
I725
tp304
a(S'ch_no'
I1
tp305
a(S'ch_tr'
I0
tp306
a(S'ch_p2'
I1
tp307
a(S'ch_p1'
I1
tp308
a(S'w'
I9
tp309
a(S'no_vo'
I1
tp310
a(S'ch_no'
I1
tp311
a(S'ch_tr'
I1
tp312
a(S'ch_p2'
I1
tp313
a(S'ch_p1'
I1
tp314
a(S'w'
I725
tp315
a(S'ch_no'
I1
tp316
a(S'ch_tr'
I0
tp317
a(S'ch_p2'
I1
tp318
a(S'ch_p1'
I1
tp319
a(S'w'
I9
tp320
a(S'no_vo'
I0
tp321
a(S'ch_no'
I1
tp322
a(S'ch_tr'
I1
tp323
a(S'ch_p2'
I1
tp324
a(S'ch_p1'
I1
tp325
a(S'w'
I724
tp326
a(S'ch_no'
I1
tp327
a(S'ch_tr'
I0
tp328
a(S'ch_p2'
I1
tp329
a(S'ch_p1'
I1
tp330
a(S'w'
I9
tp331
a(S'ch_no'
I1
tp332
a(S'ch_tr'
I1
tp333
a(S'ch_p2'
I1
tp334
a(S'ch_p1'
I1
tp335
a(S'w'
I729
tp336
a(S'p1_tl'
I253
tp337
a(S'w'
I1
tp338
a(S'p1_ll'
I0
tp339
a(S'w'
I1
tp340
a(S'p1_lh'
I1
tp341
a(S'p1_cv'
I1
tp342
a(S'p1_vo'
I13
tp343
a(S'w'
I38
tp344
a(S'tr_tl'
I28
tp345
a(S'tr_ll'
I0
tp346
a(S'tr_th'
I1
tp347
a(S'w'
I673
tp348
a(S'p1_vo'
I14
tp349
a(S'w'
I1468
tp350
a(S'p1_vo'
I12
tp351
a(S'w'
I2222
tp352
a(S'p1_tl'
I0
tp353
a(S'w'
I1
tp354
a(S'p1_ll'
I0
tp355
a(S'w'
I1
tp356
a(S'p1_lh'
I0
tp357
a(S'p1_cv'
I0
tp358
a(S'p1_vo'
I0
tp359
a(S'w'
I38
tp360
a(S'tr_tl'
I0
tp361
a(S'tr_ll'
I0
tp362
a(S'tr_th'
I0
tp363
a(S'w'
I1
tp364
a(S'ch_no'
I1
tp365
a(S'ch_tr'
I0
tp366
a(S'ch_p2'
I1
tp367
a(S'ch_p1'
I1
tp368
a(S'w'
I31
tp369
a(S'no_vo'
I9
tp370
a(S'ch_no'
I1
tp371
a(S'ch_tr'
I1
tp372
a(S'ch_p2'
I1
tp373
a(S'ch_p1'
I1
tp374
a(S'w'
I658
tp375
a(S'ch_no'
I1
tp376
a(S'ch_tr'
I0
tp377
a(S'ch_p2'
I1
tp378
a(S'ch_p1'
I1
tp379
a(S'w'
I9
tp380
a(S'no_vo'
I10
tp381
a(S'ch_no'
I1
tp382
a(S'ch_tr'
I1
tp383
a(S'ch_p2'
I1
tp384
a(S'ch_p1'
I1
tp385
a(S'w'
I725
tp386
a(S'ch_no'
I1
tp387
a(S'ch_tr'
I0
tp388
a(S'ch_p2'
I1
tp389
a(S'ch_p1'
I1
tp390
a(S'w'
I9
tp391
a(S'ch_no'
I1
tp392
a(S'ch_tr'
I1
tp393
a(S'ch_p2'
I1
tp394
a(S'ch_p1'
I1
tp395
a(S'w'
I724
tp396
a(S'ch_no'
I1
tp397
a(S'ch_tr'
I0
tp398
a(S'ch_p2'
I1
tp399
a(S'ch_p1'
I1
tp400
a(S'w'
I9
tp401
a(S'no_vo'
I8
tp402
a(S'ch_no'
I1
tp403
a(S'ch_tr'
I1
tp404
a(S'ch_p2'
I1
tp405
a(S'ch_p1'
I1
tp406
a(S'w'
I725
tp407
a(S'ch_no'
I1
tp408
a(S'ch_tr'
I0
tp409
a(S'ch_p2'
I1
tp410
a(S'ch_p1'
I1
tp411
a(S'w'
I9
tp412
a(S'ch_no'
I1
tp413
a(S'ch_tr'
I1
tp414
a(S'ch_p2'
I1
tp415
a(S'ch_p1'
I1
tp416
a(S'w'
I725
tp417
a(S'ch_no'
I1
tp418
a(S'ch_tr'
I0
tp419
a(S'ch_p2'
I1
tp420
a(S'ch_p1'
I1
tp421
a(S'w'
I9
tp422
a(S'ch_no'
I1
tp423
a(S'ch_tr'
I1
tp424
a(S'ch_p2'
I1
tp425
a(S'ch_p1'
I1
tp426
a(S'w'
I729
tp427
a(S'p1_tl'
I253
tp428
a(S'w'
I1
tp429
a(S'p1_ll'
I0
tp430
a(S'w'
I1
tp431
a(S'p1_lh'
I1
tp432
a(S'p1_cv'
I1
tp433
a(S'p1_vo'
I13
tp434
a(S'w'
I38
tp435
a(S'tr_tl'
I124
tp436
a(S'tr_ll'
I0
tp437
a(S'tr_th'
I1
tp438
a(S'w'
I10
tp439
a(S'no_vo'
I4
tp440
a(S'w'
I663
tp441
a(S'p1_vo'
I14
tp442
a(S'w'
I26
tp443
a(S'no_vo'
I3
tp444
a(S'w'
I732
tp445
a(S'no_vo'
I2
tp446
a(S'w'
I709
tp447
a(S'p1_vo'
I12
tp448
a(S'w'
I26
tp449
a(S'no_vo'
I1
tp450
a(S'w'
I733
tp451
a(S'no_vo'
I0
tp452
a(S'w'
I1464
tp453
a(S'p1_tl'
I0
tp454
a(S'p1_ll'
I0
tp455
a(S'w'
I2
tp456
a(S'p1_lh'
I0
tp457
a(S'p1_cv'
I0
tp458
a(S'p1_vo'
I0
tp459
a(S'w'
I38
tp460
a(S'tr_tl'
I28
tp461
a(S'tr_ll'
I0
tp462
a(S'w'
I4364
tp463
a(S'p1_tl'
I253
tp464
a(S'p1_ll'
I0
tp465
a(S'w'
I2
tp466
a(S'p1_lh'
I1
tp467
a(S'p1_cv'
I1
tp468
a(S'p1_vo'
I13
tp469
a(S'w'
I37
tp470
a(S'tr_tl'
I223
tp471
a(S'w'
I1
tp472
a(S'tr_ll'
I0
tp473
a(S'w'
I31
tp474
a(S'no_vo'
I9
tp475
a(S'w'
I640
tp476
a(S'p1_vo'
I14
tp477
a(S'w'
I26
tp478
a(S'no_vo'
I10
tp479
a(S'w'
I1467
tp480
a(S'no_vo'
I8
tp481
a(S'w'
I708
tp482
a(S'p1_vo'
I13
tp483
a(S'w'
I1468
tp484
a(S'p1_vo'
I12
tp485
a(S'w'
I26
tp486
a(S'no_vo'
I4
tp487
a(S'w'
I733
tp488
a(S'no_vo'
I3
tp489
a(S'w'
I734
tp490
a(S'no_vo'
I2
tp491
a(S'w'
I708
tp492
a(S'p1_vo'
I11
tp493
a(S'w'
I26
tp494
a(S'no_vo'
I1
tp495
a(S'w'
I733
tp496
a(S'no_vo'
I0
tp497
a(S'w'
I709
tp498
a(S'p1_vo'
I10
tp499
a(S'w'
I771
tp500
a(S'tr_tl'
I171
tp501
a(S'w'
I1
tp502
a(S'tr_ll'
I0
tp503
a(S'w'
I696
tp504
a(S'p1_vo'
I11
tp505
a(S'w'
I1467
tp506
a(S'p1_vo'
I12
tp507
a(S'w'
I1468
tp508
a(S'p1_vo'
I13
tp509
a(S'w'
I781
tp510
a(S'no_vo'
I9
tp511
a(S'w'
I712
tp512
a(S'no_vo'
I10
tp513
a(S'w'
I1468
tp514
a(S'no_vo'
I8
tp515
a(S'w'
I2213
tp516
a(S'tr_tl'
I124
tp517
a(S'tr_ll'
I0
tp518
a(S'w'
I10
tp519
a(S'no_vo'
I4
tp520
a(S'w'
I712
tp521
a(S'no_vo'
I3
tp522
a(S'w'
I734
tp523
a(S'no_vo'
I2
tp524
a(S'w'
I734
tp525
a(S'no_vo'
I1
tp526
a(S'w'
I733
tp527
a(S'no_vo'
I0
tp528
a(S'w'
I5866
tp529
a(S'p1_tl'
I117
tp530
a(S'w'
I1
tp531
a(S'p1_ll'
I0
tp532
a(S'p1_th'
I4
tp533
a(S'w'
I40
tp534
a(S'tr_tl'
I60
tp535
a(S'tr_ll'
I0
tp536
a(S'tr_th'
I2
tp537
a(S'w'
I31
tp538
a(S'no_vo'
I9
tp539
a(S'w'
I641
tp540
a(S'p1_vo'
I14
tp541
a(S'w'
I26
tp542
a(S'no_vo'
I10
tp543
a(S'w'
I1466
tp544
a(S'no_vo'
I8
tp545
a(S'w'
I709
tp546
a(S'p1_vo'
I13
tp547
a(S'w'
I1468
tp548
a(S'p1_vo'
I12
tp549
a(S'w'
I26
tp550
a(S'no_vo'
I4
tp551
a(S'w'
I732
tp552
a(S'no_vo'
I3
tp553
a(S'w'
I734
tp554
a(S'no_vo'
I2
tp555
a(S'w'
I709
tp556
a(S'p1_vo'
I11
tp557
a(S'w'
I26
tp558
a(S'no_vo'
I1
tp559
a(S'w'
I733
tp560
a(S'no_vo'
I0
tp561
a(S'w'
I708
tp562
a(S'p1_vo'
I10
tp563
a(S'w'
I1468
tp564
a(S'p1_vo'
I11
tp565
a(S'w'
I1468
tp566
a(S'p1_vo'
I12
tp567
a(S'w'
I1467
tp568
a(S'p1_vo'
I13
tp569
a(S'w'
I780
tp570
a(S'no_np'
I0
tp571
a(S'no_ll'
I0
tp572
a(S'w'
I1
tp573
a(S'no_lh'
I0
tp574
a(S'no_cv'
I0
tp575
a(S'w'
I39576
tp576
a(S'p1_vo'
I0
tp577
a(S'w'
I19
tp578
a(S'ch_no'
I1
tp579
a(S'ch_tr'
I0
tp580
a(S'ch_p2'
I1
tp581
a(S'ch_p1'
I1
tp582
a(S'w'
I15
tp583
a(S'ch_no'
I1
tp584
a(S'ch_tr'
I1
tp585
a(S'ch_p2'
I1
tp586
a(S'ch_p1'
I1
tp587
a(S'w'
I47996
tp588
a.