(lp1
(S'clock'
p2
I1789772
tp3
a(S'w'
I481
tp4
a(S'ch_no'
I0
tp5
a(S'ch_tr'
I0
tp6
a(S'ch_p2'
I0
tp7
a(S'ch_p1'
I1
tp8
a(S'w'
I1
tp9
a(S'p1_du'
I1
tp10
a(S'p1_vo'
I6
tp11
a(S'w'
I1
tp12
a(S'p1_tl'
I29
tp13
a(S'w'
I1
tp14
a(S'p1_ll'
I1
tp15
a(S'p1_th'
I1
tp16
a(S'w'
I14
tp17
a(S'ch_no'
I0
tp18
a(S'ch_tr'
I0
tp19
a(S'ch_p2'
I1
tp20
a(S'ch_p1'
I1
tp21
a(S'w'
I1
tp22
a(S'p2_du'
I1
tp23
a(S'p2_vo'
I6
tp24
a(S'w'
I1
tp25
a(S'p2_tl'
I29
tp26
a(S'w'
I1
tp27
a(S'p2_ll'
I1
tp28
a(S'p2_th'
I1
tp29
a(S'w'
I14
tp30
a(S'ch_no'
I0
tp31
a(S'ch_tr'
I1
tp32
a(S'ch_p2'
I1
tp33
a(S'ch_p1'
I1
tp34
a(S'tr_lr'
I64
tp35
a(S'w'
I1
tp36
a(S'tr_tl'
I171
tp37
a(S'w'
I1
tp38
a(S'tr_ll'
I1
tp39
a(S'tr_th'
I1
tp40
a(S'w'
I688
tp41
a(S'p1_tl'
I30
tp42
a(S'w'
I8
tp43
a(S'p2_tl'
I31
tp44
a(S'w'
I8
tp45
a(S'tr_tl'
I170
tp46
a(S'w'
I718
tp47
a(S'p1_tl'
I29
tp48
a(S'w'
I8
tp49
a(S'w'
I8
tp50
a(S'tr_tl'
I171
tp51
a(S'w'
I717
tp52
a(S'w'
I9
tp53
a(S'w'
I8
tp54
a(S'tr_tl'
I172
tp55
a(S'w'
I717
tp56
a(S'w'
I9
tp57
a(S'w'
I8
tp58
a(S'tr_tl'
I173
tp59
a(S'w'
I717
tp60
a(S'w'
I8
tp61
a(S'w'
I8
tp62
a(S'tr_tl'
I172
tp63
a(S'w'
I718
tp64
a(S'p1_tl'
I28
tp65
a(S'w'
I9
tp66
a(S'w'
I10
tp67
a(S'tr_tl'
I171
tp68
a(S'w'
I715
tp69
a(S'w'
I8
tp70
a(S'w'
I8
tp71
a(S'tr_tl'
I170
tp72
a(S'w'
I717
tp73
a(S'w'
I9
tp74
a(S'w'
I8
tp75
a(S'tr_tl'
I169
tp76
a(S'w'
I717
tp77
a(S'w'
I8
tp78
a(S'w'
I9
tp79
a(S'tr_tl'
I170
tp80
a(S'w'
I717
tp81
a(S'p1_tl'
I29
tp82
a(S'w'
I8
tp83
a(S'w'
I9
tp84
a(S'tr_tl'
I171
tp85
a(S'w'
I717
tp86
a(S'w'
I8
tp87
a(S'w'
I8
tp88
a(S'tr_tl'
I172
tp89
a(S'w'
I718
tp90
a(S'w'
I11
tp91
a(S'p1_tl'
I103
tp92
a(S'w'
I1
tp93
a(S'p1_ll'
I1
tp94
a(S'w'
I4
tp95
a(S'w'
I11
tp96
a(S'p2_tl'
I103
tp97
a(S'w'
I1
tp98
a(S'p2_ll'
I1
tp99
a(S'w'
I4
tp100
a(S'tr_tl'
I173
tp101
a(S'w'
I701
tp102
a(S'w'
I9
tp103
a(S'p2_tl'
I105
tp104
a(S'w'
I8
tp105
a(S'tr_tl'
I172
tp106
a(S'w'
I717
tp107
a(S'p1_tl'
I104
tp108
a(S'w'
I8
tp109
a(S'w'
I9
tp110
a(S'tr_tl'
I171
tp111
a(S'w'
I717
tp112
a(S'w'
I8
tp113
a(S'w'
I8
tp114
a(S'tr_tl'
I170
tp115
a(S'w'
I718
tp116
a(S'w'
I8
tp117
a(S'w'
I8
tp118
a(S'tr_tl'
I169
tp119
a(S'w'
I718
tp120
a(S'w'
I8
tp121
a(S'w'
I8
tp122
a(S'tr_tl'
I170
tp123
a(S'w'
I717
tp124
a(S'p1_tl'
I103
tp125
a(S'w'
I12
tp126
a(S'p1_tl'
I171
tp127
a(S'p1_ll'
I1
tp128
a(S'w'
I5
tp129
a(S'w'
I11
tp130
a(S'p2_tl'
I171
tp131
a(S'w'
I1
tp132
a(S'p2_ll'
I1
tp133
a(S'w'
I4
tp134
a(S'tr_tl'
I171
tp135
a(S'w'
I701
tp136
a(S'w'
I8
tp137
a(S'p2_tl'
I173
tp138
a(S'w'
I9
tp139
a(S'tr_tl'
I172
tp140
a(S'w'
I717
tp141
a(S'w'
I8
tp142
a(S'w'
I8
tp143
a(S'tr_tl'
I173
tp144
a(S'w'
I718
tp145
a(S'w'
I8
tp146
a(S'w'
I8
tp147
a(S'tr_tl'
I172
tp148
a(S'w'
I718
tp149
a(S'p1_tl'
I170
tp150
a(S'w'
I8
tp151
a(S'w'
I8
tp152
a(S'tr_tl'
I171
tp153
a(S'w'
I717
tp154
a(S'w'
I9
tp155
a(S'w'
I8
tp156
a(S'tr_tl'
I170
tp157
a(S'w'
I717
tp158
a(S'w'
I11
tp159
a(S'p1_tl'
I29
tp160
a(S'w'
I1
tp161
a(S'p1_ll'
I1
tp162
a(S'w'
I5
tp163
a(S'w'
I11
tp164
a(S'p2_tl'
I29
tp165
a(S'p2_ll'
I1
tp166
a(S'w'
I5
tp167
a(S'tr_tl'
I169
tp168
a(S'w'
I10
tp169
a(S'tr_tl'
I171
tp170
a(S'w'
I1
tp171
a(S'tr_ll'
I1
tp172
a(S'w'
I690
tp173
a(S'p1_tl'
I28
tp174
a(S'w'
I8
tp175
a(S'p2_tl'
I31
tp176
a(S'w'
I8
tp177
a(S'tr_tl'
I170
tp178
a(S'w'
I718
tp179
a(S'p1_tl'
I29
tp180
a(S'w'
I8
tp181
a(S'w'
I8
tp182
a(S'tr_tl'
I171
tp183
a(S'w'
I718
tp184
a(S'w'
I8
tp185
a(S'w'
I8
tp186
a(S'tr_tl'
I172
tp187
a(S'w'
I718
tp188
a(S'w'
I8
tp189
a(S'w'
I8
tp190
a(S'tr_tl'
I173
tp191
a(S'w'
I717
tp192
a(S'w'
I8
tp193
a(S'w'
I9
tp194
a(S'tr_tl'
I172
tp195
a(S'w'
I717
tp196
a(S'p1_tl'
I30
tp197
a(S'w'
I11
tp198
a(S'p1_tl'
I103
tp199
a(S'w'
I1
tp200
a(S'p1_ll'
I1
tp201
a(S'w'
I4
tp202
a(S'w'
I12
tp203
a(S'p2_tl'
I103
tp204
a(S'p2_ll'
I1
tp205
a(S'w'
I5
tp206
a(S'tr_tl'
I171
tp207
a(S'w'
I701
tp208
a(S'p1_tl'
I104
tp209
a(S'w'
I8
tp210
a(S'p2_tl'
I105
tp211
a(S'w'
I8
tp212
a(S'tr_tl'
I170
tp213
a(S'w'
I718
tp214
a(S'w'
I8
tp215
a(S'w'
I8
tp216
a(S'tr_tl'
I169
tp217
a(S'w'
I717
tp218
a(S'w'
I9
tp219
a(S'w'
I8
tp220
a(S'tr_tl'
I170
tp221
a(S'w'
I718
tp222
a(S'p1_tl'
I103
tp223
a(S'w'
I8
tp224
a(S'w'
I8
tp225
a(S'tr_tl'
I171
tp226
a(S'w'
I717
tp227
a(S'w'
I8
tp228
a(S'w'
I8
tp229
a(S'tr_tl'
I172
tp230
a(S'w'
I718
tp231
a(S'w'
I11
tp232
a(S'p1_tl'
I171
tp233
a(S'w'
I1
tp234
a(S'p1_ll'
I1
tp235
a(S'w'
I4
tp236
a(S'w'
I11
tp237
a(S'p2_tl'
I171
tp238
a(S'w'
I1
tp239
a(S'p2_ll'
I1
tp240
a(S'w'
I4
tp241
a(S'tr_tl'
I173
tp242
a(S'w'
I702
tp243
a(S'w'
I8
tp244
a(S'p2_tl'
I173
tp245
a(S'w'
I8
tp246
a(S'tr_tl'
I172
tp247
a(S'w'
I717
tp248
a(S'p1_tl'
I170
tp249
a(S'w'
I9
tp250
a(S'w'
I8
tp251
a(S'tr_tl'
I171
tp252
a(S'w'
I717
tp253
a(S'w'
I8
tp254
a(S'w'
I9
tp255
a(S'tr_tl'
I170
tp256
a(S'w'
I717
tp257
a(S'w'
I8
tp258
a(S'w'
I9
tp259
a(S'tr_tl'
I169
tp260
a(S'w'
I717
tp261
a(S'w'
I8
tp262
a(S'w'
I8
tp263
a(S'tr_tl'
I170
tp264
a(S'w'
I718
tp265
a(S'p1_tl'
I171
tp266
a(S'w'
I9
tp267
a(S'w'
I10
tp268
a(S'tr_tl'
I171
tp269
a(S'w'
I714
tp270
a(S'w'
I9
tp271
a(S'w'
I8
tp272
a(S'tr_tl'
I172
tp273
a(S'w'
I717
tp274
a(S'w'
I8
tp275
a(S'w'
I9
tp276
a(S'tr_tl'
I173
tp277
a(S'w'
I717
tp278
a(S'w'
I8
tp279
a(S'w'
I8
tp280
a(S'tr_tl'
I172
tp281
a(S'w'
I718
tp282
a(S'p1_tl'
I172
tp283
a(S'w'
I8
tp284
a(S'w'
I8
tp285
a(S'tr_tl'
I171
tp286
a(S'w'
I718
tp287
a(S'w'
I8
tp288
a(S'w'
I8
tp289
a(S'tr_tl'
I170
tp290
a(S'w'
I717
tp291
a(S'w'
I11
tp292
a(S'p1_tl'
I224
tp293
a(S'w'
I1
tp294
a(S'p1_ll'
I1
tp295
a(S'w'
I4
tp296
a(S'w'
I11
tp297
a(S'p2_tl'
I224
tp298
a(S'w'
I1
tp299
a(S'p2_ll'
I1
tp300
a(S'w'
I4
tp301
a(S'tr_tl'
I169
tp302
a(S'w'
I10
tp303
a(S'tr_tl'
I224
tp304
a(S'w'
I1
tp305
a(S'tr_ll'
I1
tp306
a(S'w'
I691
tp307
a(S'p1_tl'
I225
tp308
a(S'w'
I8
tp309
a(S'p2_tl'
I226
tp310
a(S'w'
I9
tp311
a(S'tr_tl'
I223
tp312
a(S'w'
I717
tp313
a(S'p1_tl'
I224
tp314
a(S'w'
I8
tp315
a(S'w'
I8
tp316
a(S'tr_tl'
I224
tp317
a(S'w'
I718
tp318
a(S'w'
I8
tp319
a(S'w'
I8
tp320
a(S'tr_tl'
I225
tp321
a(S'w'
I718
tp322
a(S'w'
I8
tp323
a(S'w'
I8
tp324
a(S'tr_tl'
I226
tp325
a(S'w'
I718
tp326
a(S'w'
I8
tp327
a(S'w'
I8
tp328
a(S'tr_tl'
I225
tp329
a(S'w'
I717
tp330
a(S'p1_tl'
I223
tp331
a(S'w'
I10
tp332
a(S'w'
I9
tp333
a(S'tr_tl'
I224
tp334
a(S'w'
I715
tp335
a(S'w'
I8
tp336
a(S'w'
I8
tp337
a(S'tr_tl'
I223
tp338
a(S'w'
I718
tp339
a(S'w'
I8
tp340
a(S'w'
I8
tp341
a(S'tr_tl'
I222
tp342
a(S'w'
I718
tp343
a(S'w'
I8
tp344
a(S'w'
I8
tp345
a(S'tr_tl'
I223
tp346
a(S'w'
I718
tp347
a(S'p1_tl'
I224
tp348
a(S'w'
I8
tp349
a(S'w'
I8
tp350
a(S'tr_tl'
I224
tp351
a(S'w'
I717
tp352
a(S'w'
I8
tp353
a(S'w'
I9
tp354
a(S'tr_tl'
I225
tp355
a(S'w'
I717
tp356
a(S'w'
I10
tp357
a(S'w'
I9
tp358
a(S'tr_tl'
I226
tp359
a(S'w'
I715
tp360
a(S'w'
I8
tp361
a(S'w'
I8
tp362
a(S'tr_tl'
I225
tp363
a(S'w'
I718
tp364
a(S'p1_tl'
I225
tp365
a(S'w'
I8
tp366
a(S'w'
I8
tp367
a(S'tr_tl'
I224
tp368
a(S'w'
I718
tp369
a(S'w'
I8
tp370
a(S'w'
I8
tp371
a(S'tr_tl'
I223
tp372
a(S'w'
I718
tp373
a(S'w'
I8
tp374
a(S'w'
I8
tp375
a(S'tr_tl'
I222
tp376
a(S'w'
I717
tp377
a(S'w'
I8
tp378
a(S'w'
I8
tp379
a(S'tr_tl'
I223
tp380
a(S'w'
I718
tp381
a(S'p1_tl'
I224
tp382
a(S'w'
I9
tp383
a(S'w'
I10
tp384
a(S'tr_tl'
I224
tp385
a(S'w'
I715
tp386
a(S'w'
I8
tp387
a(S'w'
I8
tp388
a(S'tr_tl'
I225
tp389
a(S'w'
I718
tp390
a(S'w'
I8
tp391
a(S'w'
I8
tp392
a(S'tr_tl'
I226
tp393
a(S'w'
I717
tp394
a(S'w'
I9
tp395
a(S'w'
I8
tp396
a(S'tr_tl'
I225
tp397
a(S'w'
I717
tp398
a(S'p1_tl'
I223
tp399
a(S'w'
I9
tp400
a(S'w'
I8
tp401
a(S'tr_tl'
I224
tp402
a(S'w'
I717
tp403
a(S'w'
I8
tp404
a(S'w'
I8
tp405
a(S'tr_tl'
I223
tp406
a(S'w'
I718
tp407
a(S'w'
I11
tp408
a(S'p1_tl'
I125
tp409
a(S'w'
I1
tp410
a(S'p1_ll'
I1
tp411
a(S'w'
I4
tp412
a(S'w'
I11
tp413
a(S'p2_tl'
I125
tp414
a(S'w'
I1
tp415
a(S'p2_ll'
I1
tp416
a(S'w'
I4
tp417
a(S'tr_tl'
I222
tp418
a(S'w'
I10
tp419
a(S'tr_tl'
I224
tp420
a(S'w'
I1
tp421
a(S'tr_ll'
I1
tp422
a(S'w'
I691
tp423
a(S'p1_tl'
I124
tp424
a(S'w'
I8
tp425
a(S'p2_tl'
I127
tp426
a(S'w'
I8
tp427
a(S'tr_tl'
I223
tp428
a(S'w'
I717
tp429
a(S'p1_tl'
I125
tp430
a(S'w'
I9
tp431
a(S'w'
I8
tp432
a(S'tr_tl'
I224
tp433
a(S'w'
I717
tp434
a(S'w'
I8
tp435
a(S'w'
I8
tp436
a(S'tr_tl'
I225
tp437
a(S'w'
I718
tp438
a(S'w'
I8
tp439
a(S'w'
I9
tp440
a(S'tr_tl'
I226
tp441
a(S'w'
I717
tp442
a(S'w'
I8
tp443
a(S'w'
I8
tp444
a(S'tr_tl'
I225
tp445
a(S'w'
I718
tp446
a(S'p1_tl'
I126
tp447
a(S'w'
I9
tp448
a(S'w'
I9
tp449
a(S'tr_tl'
I224
tp450
a(S'w'
I715
tp451
a(S'w'
I9
tp452
a(S'w'
I8
tp453
a(S'tr_tl'
I223
tp454
a(S'w'
I717
tp455
a(S'w'
I8
tp456
a(S'w'
I9
tp457
a(S'tr_tl'
I222
tp458
a(S'w'
I717
tp459
a(S'w'
I8
tp460
a(S'w'
I8
tp461
a(S'tr_tl'
I223
tp462
a(S'w'
I718
tp463
a(S'p1_tl'
I125
tp464
a(S'w'
I8
tp465
a(S'w'
I8
tp466
a(S'tr_tl'
I224
tp467
a(S'w'
I718
tp468
a(S'w'
I8
tp469
a(S'w'
I8
tp470
a(S'tr_tl'
I225
tp471
a(S'w'
I717
tp472
a(S'w'
I10
tp473
a(S'w'
I9
tp474
a(S'tr_tl'
I226
tp475
a(S'w'
I715
tp476
a(S'w'
I8
tp477
a(S'w'
I9
tp478
a(S'tr_tl'
I225
tp479
a(S'w'
I717
tp480
a(S'p1_tl'
I124
tp481
a(S'w'
I8
tp482
a(S'w'
I8
tp483
a(S'tr_tl'
I224
tp484
a(S'w'
I718
tp485
a(S'w'
I8
tp486
a(S'w'
I8
tp487
a(S'tr_tl'
I223
tp488
a(S'w'
I718
tp489
a(S'w'
I8
tp490
a(S'w'
I8
tp491
a(S'tr_tl'
I222
tp492
a(S'w'
I717
tp493
a(S'w'
I9
tp494
a(S'w'
I8
tp495
a(S'tr_tl'
I223
tp496
a(S'w'
I717
tp497
a(S'p1_tl'
I125
tp498
a(S'w'
I10
tp499
a(S'w'
I9
tp500
a(S'tr_tl'
I224
tp501
a(S'w'
I715
tp502
a(S'w'
I8
tp503
a(S'w'
I8
tp504
a(S'tr_tl'
I225
tp505
a(S'w'
I718
tp506
a(S'w'
I8
tp507
a(S'w'
I8
tp508
a(S'tr_tl'
I226
tp509
a(S'w'
I718
tp510
a(S'w'
I8
tp511
a(S'w'
I8
tp512
a(S'tr_tl'
I225
tp513
a(S'w'
I718
tp514
a(S'p1_tl'
I126
tp515
a(S'w'
I8
tp516
a(S'w'
I8
tp517
a(S'tr_tl'
I224
tp518
a(S'w'
I717
tp519
a(S'w'
I8
tp520
a(S'w'
I9
tp521
a(S'tr_tl'
I223
tp522
a(S'w'
I717
tp523
a(S'w'
I11
tp524
a(S'p1_tl'
I171
tp525
a(S'w'
I1
tp526
a(S'p1_ll'
I1
tp527
a(S'w'
I4
tp528
a(S'w'
I11
tp529
a(S'p2_tl'
I171
tp530
a(S'w'
I1
tp531
a(S'p2_ll'
I1
tp532
a(S'w'
I5
tp533
a(S'tr_tl'
I222
tp534
a(S'w'
I10
tp535
a(S'tr_tl'
I171
tp536
a(S'w'
I1
tp537
a(S'tr_ll'
I1
tp538
a(S'w'
I690
tp539
a(S'p1_tl'
I172
tp540
a(S'w'
I8
tp541
a(S'p2_tl'
I173
tp542
a(S'w'
I8
tp543
a(S'tr_tl'
I170
tp544
a(S'w'
I718
tp545
a(S'p1_tl'
I171
tp546
a(S'w'
I8
tp547
a(S'w'
I8
tp548
a(S'tr_tl'
I171
tp549
a(S'w'
I717
tp550
a(S'w'
I9
tp551
a(S'w'
I8
tp552
a(S'tr_tl'
I172
tp553
a(S'w'
I717
tp554
a(S'w'
I9
tp555
a(S'w'
I8
tp556
a(S'tr_tl'
I173
tp557
a(S'w'
I717
tp558
a(S'w'
I8
tp559
a(S'w'
I8
tp560
a(S'tr_tl'
I172
tp561
a(S'w'
I718
tp562
a(S'p1_tl'
I170
tp563
a(S'w'
I9
tp564
a(S'w'
I10
tp565
a(S'tr_tl'
I171
tp566
a(S'w'
I715
tp567
a(S'w'
I8
tp568
a(S'w'
I8
tp569
a(S'tr_tl'
I170
tp570
a(S'w'
I717
tp571
a(S'w'
I9
tp572
a(S'w'
I8
tp573
a(S'tr_tl'
I169
tp574
a(S'w'
I717
tp575
a(S'w'
I8
tp576
a(S'w'
I9
tp577
a(S'tr_tl'
I170
tp578
a(S'w'
I717
tp579
a(S'p1_tl'
I171
tp580
a(S'w'
I8
tp581
a(S'w'
I9
tp582
a(S'tr_tl'
I171
tp583
a(S'w'
I717
tp584
a(S'w'
I8
tp585
a(S'w'
I8
tp586
a(S'tr_tl'
I172
tp587
a(S'w'
I718
tp588
a(S'w'
I6
tp589
a(S'ch_no'
I0
tp590
a(S'ch_tr'
I1
tp591
a(S'ch_p2'
I1
tp592
a(S'ch_p1'
I0
tp593
a(S'w'
I5
tp594
a(S'w'
I7
tp595
a(S'ch_no'
I0
tp596
a(S'ch_tr'
I1
tp597
a(S'ch_p2'
I0
tp598
a(S'ch_p1'
I0
tp599
a(S'w'
I4
tp600
a(S'tr_tl'
I173
tp601
a(S'w'
I7
tp602
a(S'ch_no'
I0
tp603
a(S'ch_tr'
I0
tp604
a(S'ch_p2'
I0
tp605
a(S'ch_p1'
I0
tp606
a.