(lp1
(S'clock'
p2
I1789772
tp3
a(S'w'
I326
tp4
a(S'fc_mo'
I0
tp5
a(S'fc_mo'
I0
tp6
a(S'w'
I671
tp7
a(S'ch_no'
I0
tp8
a(S'ch_tr'
I0
tp9
a(S'ch_p2'
I0
tp10
a(S'ch_p1'
I1
tp11
a(S'w'
I4
tp12
a(S'p1_du'
I1
tp13
a(S'p1_lh'
I1
tp14
a(S'p1_cv'
I1
tp15
a(S'p1_vo'
I15
tp16
a(S'w'
I1
tp17
a(S'p1_tl'
I213
tp18
a(S'p1_ll'
I1
tp19
a(S'w'
I13
tp20
a(S'ch_no'
I0
tp21
a(S'ch_tr'
I1
tp22
a(S'ch_p2'
I0
tp23
a(S'ch_p1'
I1
tp24
a(S'w'
I1
tp25
a(S'tr_lr'
I16
tp26
a(S'tr_tl'
I171
tp27
a(S'w'
I1
tp28
a(S'tr_ll'
I1
tp29
a(S'tr_th'
I1
tp30
a(S'w'
I11
tp31
a(S'fc_mo'
I0
tp32
a(S'fc_mo'
I0
tp33
a(S'w'
I76
tp34
a(S'p1_vo'
I10
tp35
a(S'w'
I112
tp36
a(S'fc_mo'
I0
tp37
a(S'fc_mo'
I0
tp38
a(S'w'
I512
tp39
a(S'p1_vo'
I15
tp40
a(S'w'
I222
tp41
a(S'fc_mo'
I0
tp42
a(S'fc_mo'
I0
tp43
a(S'w'
I512
tp44
a(S'p1_vo'
I10
tp45
a(S'w'
I221
tp46
a(S'fc_mo'
I0
tp47
a(S'w'
I1
tp48
a(S'fc_mo'
I0
tp49
a(S'w'
I512
tp50
a(S'p1_vo'
I7
tp51
a(S'w'
I221
tp52
a(S'fc_mo'
I0
tp53
a(S'fc_mo'
I0
tp54
a(S'w'
I513
tp55
a(S'p1_vo'
I6
tp56
a(S'w'
I221
tp57
a(S'fc_mo'
I0
tp58
a(S'fc_mo'
I0
tp59
a(S'w'
I513
tp60
a(S'p1_vo'
I5
tp61
a(S'w'
I221
tp62
a(S'fc_mo'
I0
tp63
a(S'fc_mo'
I0
tp64
a(S'w'
I512
tp65
a(S'p1_vo'
I4
tp66
a(S'w'
I222
tp67
a(S'fc_mo'
I0
tp68
a(S'fc_mo'
I0
tp69
a(S'w'
I513
tp70
a(S'p1_vo'
I2
tp71
a(S'w'
I220
tp72
a(S'fc_mo'
I0
tp73
a(S'w'
I1
tp74
a(S'fc_mo'
I0
tp75
a(S'w'
I521
tp76
a(S'p1_vo'
I14
tp77
a(S'w'
I1
tp78
a(S'p1_tl'
I169
tp79
a(S'p1_ll'
I1
tp80
a(S'w'
I211
tp81
a(S'fc_mo'
I0
tp82
a(S'fc_mo'
I0
tp83
a(S'w'
I512
tp84
a(S'p1_vo'
I9
tp85
a(S'w'
I222
tp86
a(S'fc_mo'
I0
tp87
a(S'fc_mo'
I0
tp88
a(S'w'
I513
tp89
a(S'p1_vo'
I14
tp90
a(S'w'
I221
tp91
a(S'fc_mo'
I0
tp92
a(S'fc_mo'
I0
tp93
a(S'w'
I512
tp94
a(S'p1_vo'
I9
tp95
a(S'w'
I222
tp96
a(S'fc_mo'
I0
tp97
a(S'fc_mo'
I0
tp98
a(S'w'
I512
tp99
a(S'p1_vo'
I7
tp100
a(S'w'
I221
tp101
a(S'fc_mo'
I0
tp102
a(S'w'
I1
tp103
a(S'fc_mo'
I0
tp104
a(S'w'
I512
tp105
a(S'p1_vo'
I6
tp106
a(S'w'
I221
tp107
a(S'fc_mo'
I0
tp108
a(S'fc_mo'
I0
tp109
a(S'w'
I513
tp110
a(S'p1_vo'
I5
tp111
a(S'w'
I221
tp112
a(S'fc_mo'
I0
tp113
a(S'fc_mo'
I0
tp114
a(S'w'
I513
tp115
a(S'p1_vo'
I4
tp116
a(S'w'
I221
tp117
a(S'fc_mo'
I0
tp118
a(S'fc_mo'
I0
tp119
a(S'w'
I513
tp120
a(S'p1_vo'
I2
tp121
a(S'w'
I221
tp122
a(S'fc_mo'
I0
tp123
a(S'fc_mo'
I0
tp124
a(S'w'
I522
tp125
a(S'p1_vo'
I13
tp126
a(S'p1_tl'
I142
tp127
a(S'w'
I1
tp128
a(S'p1_ll'
I1
tp129
a(S'w'
I211
tp130
a(S'fc_mo'
I0
tp131
a(S'fc_mo'
I0
tp132
a(S'w'
I512
tp133
a(S'p1_vo'
I9
tp134
a(S'w'
I221
tp135
a(S'fc_mo'
I0
tp136
a(S'fc_mo'
I0
tp137
a(S'w'
I513
tp138
a(S'p1_vo'
I13
tp139
a(S'w'
I221
tp140
a(S'fc_mo'
I0
tp141
a(S'fc_mo'
I0
tp142
a(S'w'
I513
tp143
a(S'p1_vo'
I9
tp144
a(S'w'
I221
tp145
a(S'fc_mo'
I0
tp146
a(S'fc_mo'
I0
tp147
a(S'w'
I512
tp148
a(S'p1_vo'
I6
tp149
a(S'w'
I222
tp150
a(S'fc_mo'
I0
tp151
a(S'fc_mo'
I0
tp152
a(S'w'
I512
tp153
a(S'p1_vo'
I5
tp154
a(S'w'
I221
tp155
a(S'fc_mo'
I0
tp156
a(S'w'
I1
tp157
a(S'fc_mo'
I0
tp158
a(S'w'
I512
tp159
a(S'p1_vo'
I4
tp160
a(S'w'
I221
tp161
a(S'fc_mo'
I0
tp162
a(S'w'
I1
tp163
a(S'fc_mo'
I0
tp164
a(S'w'
I512
tp165
a(S'p1_vo'
I3
tp166
a(S'w'
I221
tp167
a(S'fc_mo'
I0
tp168
a(S'fc_mo'
I0
tp169
a(S'w'
I513
tp170
a(S'p1_vo'
I2
tp171
a(S'w'
I221
tp172
a(S'fc_mo'
I0
tp173
a(S'fc_mo'
I0
tp174
a(S'w'
I525
tp175
a(S'p1_vo'
I12
tp176
a(S'p1_tl'
I213
tp177
a(S'w'
I1
tp178
a(S'p1_ll'
I1
tp179
a(S'w'
I16
tp180
a(S'tr_ll'
I1
tp181
a(S'w'
I192
tp182
a(S'fc_mo'
I0
tp183
a(S'fc_mo'
I0
tp184
a(S'w'
I512
tp185
a(S'p1_vo'
I8
tp186
a(S'w'
I221
tp187
a(S'fc_mo'
I0
tp188
a(S'fc_mo'
I0
tp189
a(S'w'
I513
tp190
a(S'p1_vo'
I12
tp191
a(S'w'
I221
tp192
a(S'fc_mo'
I0
tp193
a(S'fc_mo'
I0
tp194
a(S'w'
I513
tp195
a(S'p1_vo'
I8
tp196
a(S'w'
I221
tp197
a(S'fc_mo'
I0
tp198
a(S'fc_mo'
I0
tp199
a(S'w'
I513
tp200
a(S'p1_vo'
I6
tp201
a(S'w'
I221
tp202
a(S'fc_mo'
I0
tp203
a(S'fc_mo'
I0
tp204
a(S'w'
I512
tp205
a(S'p1_vo'
I5
tp206
a(S'w'
I222
tp207
a(S'fc_mo'
I0
tp208
a(S'fc_mo'
I0
tp209
a(S'w'
I512
tp210
a(S'p1_vo'
I4
tp211
a(S'w'
I221
tp212
a(S'fc_mo'
I0
tp213
a(S'w'
I1
tp214
a(S'fc_mo'
I0
tp215
a(S'w'
I512
tp216
a(S'p1_vo'
I3
tp217
a(S'w'
I221
tp218
a(S'fc_mo'
I0
tp219
a(S'fc_mo'
I0
tp220
a(S'w'
I513
tp221
a(S'p1_vo'
I2
tp222
a(S'w'
I221
tp223
a(S'fc_mo'
I0
tp224
a(S'fc_mo'
I0
tp225
a(S'w'
I522
tp226
a(S'p1_vo'
I11
tp227
a(S'p1_tl'
I169
tp228
a(S'w'
I1
tp229
a(S'p1_ll'
I1
tp230
a(S'w'
I16
tp231
a(S'tr_ll'
I1
tp232
a(S'w'
I195
tp233
a(S'fc_mo'
I0
tp234
a(S'fc_mo'
I0
tp235
a(S'w'
I512
tp236
a(S'p1_vo'
I7
tp237
a(S'w'
I222
tp238
a(S'fc_mo'
I0
tp239
a(S'fc_mo'
I0
tp240
a(S'w'
I512
tp241
a(S'p1_vo'
I11
tp242
a(S'w'
I222
tp243
a(S'fc_mo'
I0
tp244
a(S'fc_mo'
I0
tp245
a(S'w'
I512
tp246
a(S'p1_vo'
I7
tp247
a(S'w'
I221
tp248
a(S'fc_mo'
I0
tp249
a(S'w'
I1
tp250
a(S'fc_mo'
I0
tp251
a(S'w'
I512
tp252
a(S'p1_vo'
I5
tp253
a(S'w'
I221
tp254
a(S'fc_mo'
I0
tp255
a(S'fc_mo'
I0
tp256
a(S'w'
I513
tp257
a(S'p1_vo'
I4
tp258
a(S'w'
I221
tp259
a(S'fc_mo'
I0
tp260
a(S'fc_mo'
I0
tp261
a(S'w'
I734
tp262
a(S'fc_mo'
I0
tp263
a(S'fc_mo'
I0
tp264
a(S'w'
I512
tp265
a(S'p1_vo'
I3
tp266
a(S'w'
I222
tp267
a(S'fc_mo'
I0
tp268
a(S'fc_mo'
I0
tp269
a(S'w'
I512
tp270
a(S'p1_vo'
I1
tp271
a(S'w'
I221
tp272
a(S'fc_mo'
I0
tp273
a(S'fc_mo'
I0
tp274
a(S'w'
I522
tp275
a(S'p1_vo'
I10
tp276
a(S'w'
I1
tp277
a(S'p1_tl'
I142
tp278
a(S'p1_ll'
I1
tp279
a(S'w'
I16
tp280
a(S'tr_ll'
I1
tp281
a(S'w'
I195
tp282
a(S'fc_mo'
I0
tp283
a(S'fc_mo'
I0
tp284
a(S'w'
I512
tp285
a(S'p1_vo'
I7
tp286
a(S'w'
I222
tp287
a(S'fc_mo'
I0
tp288
a(S'fc_mo'
I0
tp289
a(S'w'
I512
tp290
a(S'p1_vo'
I10
tp291
a(S'w'
I222
tp292
a(S'fc_mo'
I0
tp293
a(S'fc_mo'
I0
tp294
a(S'w'
I512
tp295
a(S'p1_vo'
I7
tp296
a(S'w'
I222
tp297
a(S'fc_mo'
I0
tp298
a(S'fc_mo'
I0
tp299
a(S'w'
I512
tp300
a(S'p1_vo'
I5
tp301
a(S'w'
I221
tp302
a(S'fc_mo'
I0
tp303
a(S'fc_mo'
I0
tp304
a(S'w'
I513
tp305
a(S'p1_vo'
I4
tp306
a(S'w'
I221
tp307
a(S'fc_mo'
I0
tp308
a(S'fc_mo'
I0
tp309
a(S'w'
I512
tp310
a(S'p1_vo'
I3
tp311
a(S'w'
I222
tp312
a(S'fc_mo'
I0
tp313
a(S'fc_mo'
I0
tp314
a(S'w'
I734
tp315
a(S'fc_mo'
I0
tp316
a(S'fc_mo'
I0
tp317
a(S'w'
I513
tp318
a(S'p1_vo'
I1
tp319
a(S'w'
I221
tp320
a(S'fc_mo'
I0
tp321
a(S'fc_mo'
I0
tp322
a(S'w'
I524
tp323
a(S'p1_vo'
I9
tp324
a(S'w'
I1
tp325
a(S'p1_tl'
I213
tp326
a(S'w'
I1
tp327
a(S'p1_ll'
I1
tp328
a(S'w'
I18
tp329
a(S'tr_ll'
I1
tp330
a(S'w'
I189
tp331
a(S'fc_mo'
I0
tp332
a(S'w'
I1
tp333
a(S'fc_mo'
I0
tp334
a(S'w'
I511
tp335
a(S'p1_vo'
I6
tp336
a(S'w'
I222
tp337
a(S'fc_mo'
I0
tp338
a(S'fc_mo'
I0
tp339
a(S'w'
I513
tp340
a(S'p1_vo'
I9
tp341
a(S'w'
I221
tp342
a(S'fc_mo'
I0
tp343
a(S'fc_mo'
I0
tp344
a(S'w'
I512
tp345
a(S'p1_vo'
I6
tp346
a(S'w'
I222
tp347
a(S'fc_mo'
I0
tp348
a(S'fc_mo'
I0
tp349
a(S'w'
I512
tp350
a(S'p1_vo'
I4
tp351
a(S'w'
I222
tp352
a(S'fc_mo'
I0
tp353
a(S'fc_mo'
I0
tp354
a(S'w'
I733
tp355
a(S'fc_mo'
I0
tp356
a(S'w'
I1
tp357
a(S'fc_mo'
I0
tp358
a(S'w'
I512
tp359
a(S'p1_vo'
I3
tp360
a(S'w'
I221
tp361
a(S'fc_mo'
I0
tp362
a(S'fc_mo'
I0
tp363
a(S'w'
I513
tp364
a(S'p1_vo'
I2
tp365
a(S'w'
I221
tp366
a(S'fc_mo'
I0
tp367
a(S'fc_mo'
I0
tp368
a(S'w'
I513
tp369
a(S'p1_vo'
I1
tp370
a(S'w'
I221
tp371
a(S'fc_mo'
I0
tp372
a(S'fc_mo'
I0
tp373
a(S'w'
I522
tp374
a(S'p1_vo'
I8
tp375
a(S'p1_tl'
I169
tp376
a(S'w'
I1
tp377
a(S'p1_ll'
I1
tp378
a(S'w'
I211
tp379
a(S'fc_mo'
I0
tp380
a(S'fc_mo'
I0
tp381
a(S'w'
I512
tp382
a(S'p1_vo'
I5
tp383
a(S'w'
I221
tp384
a(S'fc_mo'
I0
tp385
a(S'w'
I1
tp386
a(S'fc_mo'
I0
tp387
a(S'w'
I512
tp388
a(S'p1_vo'
I8
tp389
a(S'w'
I221
tp390
a(S'fc_mo'
I0
tp391
a(S'fc_mo'
I0
tp392
a(S'w'
I512
tp393
a(S'p1_vo'
I5
tp394
a(S'w'
I222
tp395
a(S'fc_mo'
I0
tp396
a(S'fc_mo'
I0
tp397
a(S'w'
I512
tp398
a(S'p1_vo'
I4
tp399
a(S'w'
I222
tp400
a(S'fc_mo'
I0
tp401
a(S'fc_mo'
I0
tp402
a(S'w'
I512
tp403
a(S'p1_vo'
I3
tp404
a(S'w'
I221
tp405
a(S'fc_mo'
I0
tp406
a(S'w'
I1
tp407
a(S'fc_mo'
I0
tp408
a(S'w'
I733
tp409
a(S'fc_mo'
I0
tp410
a(S'fc_mo'
I0
tp411
a(S'w'
I513
tp412
a(S'p1_vo'
I2
tp413
a(S'w'
I221
tp414
a(S'fc_mo'
I0
tp415
a(S'fc_mo'
I0
tp416
a(S'w'
I513
tp417
a(S'p1_vo'
I1
tp418
a(S'w'
I221
tp419
a(S'fc_mo'
I0
tp420
a(S'fc_mo'
I0
tp421
a(S'w'
I522
tp422
a(S'p1_vo'
I7
tp423
a(S'p1_tl'
I142
tp424
a(S'w'
I1
tp425
a(S'p1_ll'
I1
tp426
a(S'w'
I211
tp427
a(S'fc_mo'
I0
tp428
a(S'fc_mo'
I0
tp429
a(S'w'
I512
tp430
a(S'p1_vo'
I5
tp431
a(S'w'
I222
tp432
a(S'fc_mo'
I0
tp433
a(S'fc_mo'
I0
tp434
a(S'w'
I512
tp435
a(S'p1_vo'
I7
tp436
a(S'w'
I221
tp437
a(S'fc_mo'
I0
tp438
a(S'w'
I1
tp439
a(S'fc_mo'
I0
tp440
a(S'w'
I512
tp441
a(S'p1_vo'
I5
tp442
a(S'w'
I221
tp443
a(S'fc_mo'
I0
tp444
a(S'fc_mo'
I0
tp445
a(S'w'
I513
tp446
a(S'p1_vo'
I3
tp447
a(S'w'
I221
tp448
a(S'fc_mo'
I0
tp449
a(S'fc_mo'
I0
tp450
a(S'w'
I734
tp451
a(S'fc_mo'
I0
tp452
a(S'fc_mo'
I0
tp453
a(S'w'
I512
tp454
a(S'p1_vo'
I2
tp455
a(S'w'
I222
tp456
a(S'fc_mo'
I0
tp457
a(S'fc_mo'
I0
tp458
a(S'w'
I733
tp459
a(S'fc_mo'
I0
tp460
a(S'w'
I1
tp461
a(S'fc_mo'
I0
tp462
a(S'w'
I512
tp463
a(S'p1_vo'
I1
tp464
a(S'w'
I221
tp465
a(S'fc_mo'
I0
tp466
a(S'fc_mo'
I0
tp467
a(S'w'
I525
tp468
a(S'p1_vo'
I6
tp469
a(S'p1_tl'
I213
tp470
a(S'w'
I1
tp471
a(S'p1_ll'
I1
tp472
a(S'w'
I16
tp473
a(S'tr_ll'
I1
tp474
a(S'w'
I192
tp475
a(S'fc_mo'
I0
tp476
a(S'fc_mo'
I0
tp477
a(S'w'
I512
tp478
a(S'p1_vo'
I4
tp479
a(S'w'
I222
tp480
a(S'fc_mo'
I0
tp481
a(S'fc_mo'
I0
tp482
a(S'w'
I512
tp483
a(S'p1_vo'
I6
tp484
a(S'w'
I222
tp485
a(S'fc_mo'
I0
tp486
a(S'fc_mo'
I0
tp487
a(S'w'
I512
tp488
a(S'p1_vo'
I4
tp489
a(S'w'
I221
tp490
a(S'fc_mo'
I0
tp491
a(S'fc_mo'
I0
tp492
a(S'w'
I513
tp493
a(S'p1_vo'
I3
tp494
a(S'w'
I221
tp495
a(S'fc_mo'
I0
tp496
a(S'fc_mo'
I0
tp497
a(S'w'
I513
tp498
a(S'p1_vo'
I2
tp499
a(S'w'
I221
tp500
a(S'fc_mo'
I0
tp501
a(S'fc_mo'
I0
tp502
a(S'w'
I734
tp503
a(S'fc_mo'
I0
tp504
a(S'fc_mo'
I0
tp505
a(S'w'
I733
tp506
a(S'fc_mo'
I0
tp507
a(S'w'
I1
tp508
a(S'fc_mo'
I0
tp509
a(S'w'
I513
tp510
a(S'p1_vo'
I1
tp511
a(S'w'
I220
tp512
a(S'fc_mo'
I0
tp513
a(S'fc_mo'
I0
tp514
a(S'w'
I522
tp515
a(S'p1_vo'
I5
tp516
a(S'w'
I1
tp517
a(S'p1_tl'
I169
tp518
a(S'w'
I1
tp519
a(S'p1_ll'
I1
tp520
a(S'w'
I15
tp521
a(S'tr_ll'
I1
tp522
a(S'w'
I195
tp523
a(S'fc_mo'
I0
tp524
a(S'fc_mo'
I0
tp525
a(S'w'
I512
tp526
a(S'p1_vo'
I3
tp527
a(S'w'
I222
tp528
a(S'fc_mo'
I0
tp529
a(S'fc_mo'
I0
tp530
a(S'w'
I512
tp531
a(S'p1_vo'
I5
tp532
a(S'w'
I222
tp533
a(S'fc_mo'
I0
tp534
a(S'fc_mo'
I0
tp535
a(S'w'
I512
tp536
a(S'p1_vo'
I3
tp537
a(S'w'
I222
tp538
a(S'fc_mo'
I0
tp539
a(S'fc_mo'
I0
tp540
a(S'w'
I512
tp541
a(S'p1_vo'
I2
tp542
a(S'w'
I221
tp543
a(S'fc_mo'
I0
tp544
a(S'w'
I1
tp545
a(S'fc_mo'
I0
tp546
a(S'w'
I733
tp547
a(S'fc_mo'
I0
tp548
a(S'fc_mo'
I0
tp549
a(S'w'
I734
tp550
a(S'fc_mo'
I0
tp551
a(S'fc_mo'
I0
tp552
a(S'w'
I512
tp553
a(S'p1_vo'
I1
tp554
a(S'w'
I222
tp555
a(S'fc_mo'
I0
tp556
a(S'fc_mo'
I0
tp557
a(S'w'
I734
tp558
a(S'fc_mo'
I0
tp559
a(S'fc_mo'
I0
tp560
a(S'w'
I521
tp561
a(S'p1_vo'
I4
tp562
a(S'w'
I1
tp563
a(S'p1_tl'
I142
tp564
a(S'w'
I1
tp565
a(S'p1_ll'
I1
tp566
a(S'w'
I15
tp567
a(S'tr_ll'
I1
tp568
a(S'w'
I195
tp569
a(S'fc_mo'
I0
tp570
a(S'fc_mo'
I0
tp571
a(S'w'
I513
tp572
a(S'p1_vo'
I3
tp573
a(S'w'
I221
tp574
a(S'fc_mo'
I0
tp575
a(S'fc_mo'
I0
tp576
a(S'w'
I513
tp577
a(S'p1_vo'
I4
tp578
a(S'w'
I221
tp579
a(S'fc_mo'
I0
tp580
a(S'fc_mo'
I0
tp581
a(S'w'
I512
tp582
a(S'p1_vo'
I3
tp583
a(S'w'
I222
tp584
a(S'fc_mo'
I0
tp585
a(S'fc_mo'
I0
tp586
a(S'w'
I512
tp587
a(S'p1_vo'
I2
tp588
a(S'w'
I222
tp589
a(S'fc_mo'
I0
tp590
a(S'fc_mo'
I0
tp591
a(S'w'
I733
tp592
a(S'fc_mo'
I0
tp593
a(S'w'
I1
tp594
a(S'fc_mo'
I0
tp595
a(S'w'
I512
tp596
a(S'p1_vo'
I1
tp597
a(S'w'
I221
tp598
a(S'fc_mo'
I0
tp599
a(S'fc_mo'
I0
tp600
a(S'w'
I734
tp601
a(S'fc_mo'
I0
tp602
a(S'fc_mo'
I0
tp603
a(S'w'
I734
tp604
a(S'fc_mo'
I0
tp605
a(S'fc_mo'
I0
tp606
a(S'w'
I528
tp607
a(S'p1_vo'
I15
tp608
a(S'w'
I1
tp609
a(S'p1_tl'
I190
tp610
a(S'w'
I1
tp611
a(S'p1_ll'
I1
tp612
a(S'w'
I18
tp613
a(S'tr_ll'
I1
tp614
a(S'w'
I186
tp615
a(S'fc_mo'
I0
tp616
a(S'fc_mo'
I0
tp617
a(S'w'
I512
tp618
a(S'p1_vo'
I10
tp619
a(S'w'
I221
tp620
a(S'fc_mo'
I0
tp621
a(S'w'
I1
tp622
a(S'fc_mo'
I0
tp623
a(S'w'
I512
tp624
a(S'p1_vo'
I15
tp625
a(S'w'
I221
tp626
a(S'fc_mo'
I0
tp627
a(S'fc_mo'
I0
tp628
a(S'w'
I513
tp629
a(S'p1_vo'
I10
tp630
a(S'w'
I221
tp631
a(S'fc_mo'
I0
tp632
a(S'fc_mo'
I0
tp633
a(S'w'
I513
tp634
a(S'p1_vo'
I7
tp635
a(S'w'
I221
tp636
a(S'fc_mo'
I0
tp637
a(S'fc_mo'
I0
tp638
a(S'w'
I512
tp639
a(S'p1_vo'
I6
tp640
a(S'w'
I222
tp641
a(S'fc_mo'
I0
tp642
a(S'fc_mo'
I0
tp643
a(S'w'
I512
tp644
a(S'p1_vo'
I5
tp645
a(S'w'
I222
tp646
a(S'fc_mo'
I0
tp647
a(S'fc_mo'
I0
tp648
a(S'w'
I512
tp649
a(S'p1_vo'
I4
tp650
a(S'w'
I221
tp651
a(S'fc_mo'
I0
tp652
a(S'fc_mo'
I0
tp653
a(S'w'
I513
tp654
a(S'p1_vo'
I2
tp655
a(S'w'
I221
tp656
a(S'fc_mo'
I0
tp657
a(S'fc_mo'
I0
tp658
a(S'w'
I522
tp659
a(S'p1_vo'
I14
tp660
a(S'p1_tl'
I151
tp661
a(S'w'
I1
tp662
a(S'p1_ll'
I1
tp663
a(S'w'
I211
tp664
a(S'fc_mo'
I0
tp665
a(S'fc_mo'
I0
tp666
a(S'w'
I512
tp667
a(S'p1_vo'
I9
tp668
a(S'w'
I222
tp669
a(S'fc_mo'
I0
tp670
a(S'fc_mo'
I0
tp671
a(S'w'
I512
tp672
a(S'p1_vo'
I14
tp673
a(S'w'
I221
tp674
a(S'fc_mo'
I0
tp675
a(S'w'
I1
tp676
a(S'fc_mo'
I0
tp677
a(S'w'
I512
tp678
a(S'p1_vo'
I9
tp679
a(S'w'
I221
tp680
a(S'fc_mo'
I0
tp681
a(S'fc_mo'
I0
tp682
a(S'w'
I513
tp683
a(S'p1_vo'
I7
tp684
a(S'w'
I221
tp685
a(S'fc_mo'
I0
tp686
a(S'fc_mo'
I0
tp687
a(S'w'
I512
tp688
a(S'p1_vo'
I6
tp689
a(S'w'
I222
tp690
a(S'fc_mo'
I0
tp691
a(S'fc_mo'
I0
tp692
a(S'w'
I512
tp693
a(S'p1_vo'
I5
tp694
a(S'w'
I222
tp695
a(S'fc_mo'
I0
tp696
a(S'fc_mo'
I0
tp697
a(S'w'
I512
tp698
a(S'p1_vo'
I4
tp699
a(S'w'
I221
tp700
a(S'fc_mo'
I0
tp701
a(S'w'
I1
tp702
a(S'fc_mo'
I0
tp703
a(S'w'
I512
tp704
a(S'p1_vo'
I2
tp705
a(S'w'
I221
tp706
a(S'fc_mo'
I0
tp707
a(S'fc_mo'
I0
tp708
a(S'w'
I522
tp709
a(S'p1_vo'
I13
tp710
a(S'w'
I1
tp711
a(S'p1_tl'
I127
tp712
a(S'p1_ll'
I1
tp713
a(S'w'
I211
tp714
a(S'fc_mo'
I0
tp715
a(S'fc_mo'
I0
tp716
a(S'w'
I512
tp717
a(S'p1_vo'
I9
tp718
a(S'w'
I222
tp719
a(S'fc_mo'
I0
tp720
a(S'fc_mo'
I0
tp721
a(S'w'
I512
tp722
a(S'p1_vo'
I13
tp723
a(S'w'
I222
tp724
a(S'fc_mo'
I0
tp725
a(S'fc_mo'
I0
tp726
a(S'w'
I512
tp727
a(S'p1_vo'
I9
tp728
a(S'w'
I221
tp729
a(S'fc_mo'
I0
tp730
a(S'fc_mo'
I0
tp731
a(S'w'
I513
tp732
a(S'p1_vo'
I6
tp733
a(S'w'
I221
tp734
a(S'fc_mo'
I0
tp735
a(S'fc_mo'
I0
tp736
a(S'w'
I513
tp737
a(S'p1_vo'
I5
tp738
a(S'w'
I221
tp739
a(S'fc_mo'
I0
tp740
a(S'fc_mo'
I0
tp741
a(S'w'
I513
tp742
a(S'p1_vo'
I4
tp743
a(S'w'
I221
tp744
a(S'fc_mo'
I0
tp745
a(S'fc_mo'
I0
tp746
a(S'w'
I512
tp747
a(S'p1_vo'
I3
tp748
a(S'w'
I222
tp749
a(S'fc_mo'
I0
tp750
a(S'fc_mo'
I0
tp751
a(S'w'
I512
tp752
a(S'p1_vo'
I2
tp753
a(S'w'
I222
tp754
a(S'fc_mo'
I0
tp755
a(S'fc_mo'
I0
tp756
a(S'w'
I524
tp757
a(S'p1_vo'
I12
tp758
a(S'w'
I1
tp759
a(S'p1_tl'
I190
tp760
a(S'w'
I1
tp761
a(S'p1_ll'
I1
tp762
a(S'w'
I15
tp763
a(S'tr_ll'
I1
tp764
a(S'w'
I192
tp765
a(S'fc_mo'
I0
tp766
a(S'fc_mo'
I0
tp767
a(S'w'
I513
tp768
a(S'p1_vo'
I8
tp769
a(S'w'
I221
tp770
a(S'fc_mo'
I0
tp771
a(S'fc_mo'
I0
tp772
a(S'w'
I512
tp773
a(S'p1_vo'
I12
tp774
a(S'w'
I222
tp775
a(S'fc_mo'
I0
tp776
a(S'fc_mo'
I0
tp777
a(S'w'
I512
tp778
a(S'p1_vo'
I8
tp779
a(S'w'
I222
tp780
a(S'fc_mo'
I0
tp781
a(S'fc_mo'
I0
tp782
a(S'w'
I512
tp783
a(S'p1_vo'
I6
tp784
a(S'w'
I221
tp785
a(S'fc_mo'
I0
tp786
a(S'fc_mo'
I0
tp787
a(S'w'
I513
tp788
a(S'p1_vo'
I5
tp789
a(S'w'
I221
tp790
a(S'fc_mo'
I0
tp791
a(S'fc_mo'
I0
tp792
a(S'w'
I513
tp793
a(S'p1_vo'
I4
tp794
a(S'w'
I221
tp795
a(S'fc_mo'
I0
tp796
a(S'fc_mo'
I0
tp797
a(S'w'
I513
tp798
a(S'p1_vo'
I3
tp799
a(S'w'
I221
tp800
a(S'fc_mo'
I0
tp801
a(S'fc_mo'
I0
tp802
a(S'w'
I513
tp803
a(S'p1_vo'
I2
tp804
a(S'w'
I221
tp805
a(S'fc_mo'
I0
tp806
a(S'fc_mo'
I0
tp807
a(S'w'
I522
tp808
a(S'p1_vo'
I11
tp809
a(S'p1_tl'
I151
tp810
a(S'w'
I1
tp811
a(S'p1_ll'
I1
tp812
a(S'w'
I16
tp813
a(S'tr_ll'
I1
tp814
a(S'w'
I194
tp815
a(S'fc_mo'
I0
tp816
a(S'w'
I1
tp817
a(S'fc_mo'
I0
tp818
a(S'w'
I512
tp819
a(S'p1_vo'
I7
tp820
a(S'w'
I221
tp821
a(S'fc_mo'
I0
tp822
a(S'fc_mo'
I0
tp823
a(S'w'
I513
tp824
a(S'p1_vo'
I11
tp825
a(S'w'
I221
tp826
a(S'fc_mo'
I0
tp827
a(S'fc_mo'
I0
tp828
a(S'w'
I512
tp829
a(S'p1_vo'
I7
tp830
a(S'w'
I222
tp831
a(S'fc_mo'
I0
tp832
a(S'fc_mo'
I0
tp833
a(S'w'
I512
tp834
a(S'p1_vo'
I5
tp835
a(S'w'
I222
tp836
a(S'fc_mo'
I0
tp837
a(S'fc_mo'
I0
tp838
a(S'w'
I512
tp839
a(S'p1_vo'
I4
tp840
a(S'w'
I221
tp841
a(S'fc_mo'
I0
tp842
a(S'w'
I1
tp843
a(S'fc_mo'
I0
tp844
a(S'w'
I733
tp845
a(S'fc_mo'
I0
tp846
a(S'fc_mo'
I0
tp847
a(S'w'
I513
tp848
a(S'p1_vo'
I3
tp849
a(S'w'
I221
tp850
a(S'fc_mo'
I0
tp851
a(S'fc_mo'
I0
tp852
a(S'w'
I513
tp853
a(S'p1_vo'
I1
tp854
a(S'w'
I221
tp855
a(S'fc_mo'
I0
tp856
a(S'fc_mo'
I0
tp857
a(S'w'
I522
tp858
a(S'p1_vo'
I10
tp859
a(S'p1_tl'
I127
tp860
a(S'w'
I1
tp861
a(S'p1_ll'
I1
tp862
a(S'w'
I16
tp863
a(S'tr_ll'
I1
tp864
a(S'w'
I195
tp865
a(S'fc_mo'
I0
tp866
a(S'fc_mo'
I0
tp867
a(S'w'
I512
tp868
a(S'p1_vo'
I7
tp869
a(S'w'
I221
tp870
a(S'fc_mo'
I0
tp871
a(S'w'
I1
tp872
a(S'fc_mo'
I0
tp873
a(S'w'
I512
tp874
a(S'p1_vo'
I10
tp875
a(S'w'
I221
tp876
a(S'fc_mo'
I0
tp877
a(S'fc_mo'
I0
tp878
a(S'w'
I513
tp879
a(S'p1_vo'
I7
tp880
a(S'w'
I221
tp881
a(S'fc_mo'
I0
tp882
a(S'fc_mo'
I0
tp883
a(S'w'
I513
tp884
a(S'p1_vo'
I5
tp885
a(S'w'
I221
tp886
a(S'fc_mo'
I0
tp887
a(S'fc_mo'
I0
tp888
a(S'w'
I512
tp889
a(S'p1_vo'
I4
tp890
a(S'w'
I222
tp891
a(S'fc_mo'
I0
tp892
a(S'fc_mo'
I0
tp893
a(S'w'
I512
tp894
a(S'p1_vo'
I3
tp895
a(S'w'
I221
tp896
a(S'fc_mo'
I0
tp897
a(S'w'
I1
tp898
a(S'fc_mo'
I0
tp899
a(S'w'
I733
tp900
a(S'fc_mo'
I0
tp901
a(S'fc_mo'
I0
tp902
a(S'w'
I513
tp903
a(S'p1_vo'
I1
tp904
a(S'w'
I221
tp905
a(S'fc_mo'
I0
tp906
a(S'fc_mo'
I0
tp907
a(S'w'
I525
tp908
a(S'p1_vo'
I9
tp909
a(S'p1_tl'
I190
tp910
a(S'w'
I1
tp911
a(S'p1_ll'
I1
tp912
a(S'w'
I18
tp913
a(S'tr_ll'
I1
tp914
a(S'w'
I190
tp915
a(S'fc_mo'
I0
tp916
a(S'fc_mo'
I0
tp917
a(S'w'
I512
tp918
a(S'p1_vo'
I6
tp919
a(S'w'
I222
tp920
a(S'fc_mo'
I0
tp921
a(S'fc_mo'
I0
tp922
a(S'w'
I512
tp923
a(S'p1_vo'
I9
tp924
a(S'w'
I221
tp925
a(S'fc_mo'
I0
tp926
a(S'fc_mo'
I0
tp927
a(S'w'
I513
tp928
a(S'p1_vo'
I6
tp929
a(S'w'
I221
tp930
a(S'fc_mo'
I0
tp931
a(S'w'
I1
tp932
a(S'fc_mo'
I0
tp933
a(S'w'
I512
tp934
a(S'p1_vo'
I4
tp935
a(S'w'
I221
tp936
a(S'fc_mo'
I0
tp937
a(S'fc_mo'
I0
tp938
a(S'w'
I734
tp939
a(S'fc_mo'
I0
tp940
a(S'fc_mo'
I0
tp941
a(S'w'
I512
tp942
a(S'p1_vo'
I3
tp943
a(S'w'
I222
tp944
a(S'fc_mo'
I0
tp945
a(S'fc_mo'
I0
tp946
a(S'w'
I512
tp947
a(S'p1_vo'
I2
tp948
a(S'w'
I222
tp949
a(S'fc_mo'
I0
tp950
a(S'fc_mo'
I0
tp951
a(S'w'
I512
tp952
a(S'p1_vo'
I1
tp953
a(S'w'
I221
tp954
a(S'fc_mo'
I0
tp955
a(S'fc_mo'
I0
tp956
a(S'w'
I522
tp957
a(S'p1_vo'
I8
tp958
a(S'w'
I1
tp959
a(S'p1_tl'
I151
tp960
a(S'p1_ll'
I1
tp961
a(S'w'
I211
tp962
a(S'fc_mo'
I0
tp963
a(S'fc_mo'
I0
tp964
a(S'w'
I512
tp965
a(S'p1_vo'
I5
tp966
a(S'w'
I222
tp967
a(S'fc_mo'
I0
tp968
a(S'fc_mo'
I0
tp969
a(S'w'
I512
tp970
a(S'p1_vo'
I8
tp971
a(S'w'
I222
tp972
a(S'fc_mo'
I0
tp973
a(S'fc_mo'
I0
tp974
a(S'w'
I512
tp975
a(S'p1_vo'
I5
tp976
a(S'w'
I222
tp977
a(S'fc_mo'
I0
tp978
a(S'fc_mo'
I0
tp979
a(S'w'
I512
tp980
a(S'p1_vo'
I4
tp981
a(S'w'
I221
tp982
a(S'fc_mo'
I0
tp983
a(S'fc_mo'
I0
tp984
a(S'w'
I513
tp985
a(S'p1_vo'
I3
tp986
a(S'w'
I221
tp987
a(S'fc_mo'
I0
tp988
a(S'fc_mo'
I0
tp989
a(S'w'
I734
tp990
a(S'fc_mo'
I0
tp991
a(S'fc_mo'
I0
tp992
a(S'w'
I513
tp993
a(S'p1_vo'
I2
tp994
a(S'w'
I221
tp995
a(S'fc_mo'
I0
tp996
a(S'fc_mo'
I0
tp997
a(S'w'
I513
tp998
a(S'p1_vo'
I1
tp999
a(S'w'
I220
tp1000
a(S'fc_mo'
I0
tp1001
a(S'w'
I1
tp1002
a(S'fc_mo'
I0
tp1003
a(S'w'
I521
tp1004
a(S'p1_vo'
I7
tp1005
a(S'w'
I1
tp1006
a(S'p1_tl'
I127
tp1007
a(S'w'
I1
tp1008
a(S'p1_ll'
I1
tp1009
a(S'w'
I210
tp1010
a(S'fc_mo'
I0
tp1011
a(S'fc_mo'
I0
tp1012
a(S'w'
I513
tp1013
a(S'p1_vo'
I5
tp1014
a(S'w'
I221
tp1015
a(S'fc_mo'
I0
tp1016
a(S'fc_mo'
I0
tp1017
a(S'w'
I512
tp1018
a(S'p1_vo'
I7
tp1019
a(S'w'
I222
tp1020
a(S'fc_mo'
I0
tp1021
a(S'fc_mo'
I0
tp1022
a(S'w'
I512
tp1023
a(S'p1_vo'
I5
tp1024
a(S'w'
I222
tp1025
a(S'fc_mo'
I0
tp1026
a(S'fc_mo'
I0
tp1027
a(S'w'
I512
tp1028
a(S'p1_vo'
I3
tp1029
a(S'w'
I221
tp1030
a(S'fc_mo'
I0
tp1031
a(S'w'
I1
tp1032
a(S'fc_mo'
I0
tp1033
a(S'w'
I733
tp1034
a(S'fc_mo'
I0
tp1035
a(S'w'
I1
tp1036
a(S'fc_mo'
I0
tp1037
a(S'w'
I512
tp1038
a(S'p1_vo'
I2
tp1039
a(S'w'
I221
tp1040
a(S'fc_mo'
I0
tp1041
a(S'fc_mo'
I0
tp1042
a(S'w'
I734
tp1043
a(S'fc_mo'
I0
tp1044
a(S'fc_mo'
I0
tp1045
a(S'w'
I513
tp1046
a(S'p1_vo'
I1
tp1047
a(S'w'
I221
tp1048
a(S'fc_mo'
I0
tp1049
a(S'fc_mo'
I0
tp1050
a(S'w'
I524
tp1051
a(S'p1_vo'
I6
tp1052
a(S'w'
I1
tp1053
a(S'p1_tl'
I190
tp1054
a(S'w'
I1
tp1055
a(S'p1_ll'
I1
tp1056
a(S'w'
I15
tp1057
a(S'tr_ll'
I1
tp1058
a(S'w'
I192
tp1059
a(S'fc_mo'
I0
tp1060
a(S'w'
I1
tp1061
a(S'fc_mo'
I0
tp1062
a(S'w'
I512
tp1063
a(S'p1_vo'
I4
tp1064
a(S'w'
I221
tp1065
a(S'fc_mo'
I0
tp1066
a(S'fc_mo'
I0
tp1067
a(S'w'
I513
tp1068
a(S'p1_vo'
I6
tp1069
a(S'w'
I221
tp1070
a(S'fc_mo'
I0
tp1071
a(S'fc_mo'
I0
tp1072
a(S'w'
I513
tp1073
a(S'p1_vo'
I4
tp1074
a(S'w'
I221
tp1075
a(S'fc_mo'
I0
tp1076
a(S'fc_mo'
I0
tp1077
a(S'w'
I512
tp1078
a(S'p1_vo'
I3
tp1079
a(S'w'
I222
tp1080
a(S'fc_mo'
I0
tp1081
a(S'fc_mo'
I0
tp1082
a(S'w'
I512
tp1083
a(S'p1_vo'
I2
tp1084
a(S'w'
I222
tp1085
a(S'fc_mo'
I0
tp1086
a(S'fc_mo'
I0
tp1087
a(S'w'
I733
tp1088
a(S'fc_mo'
I0
tp1089
a(S'w'
I1
tp1090
a(S'fc_mo'
I0
tp1091
a(S'w'
I733
tp1092
a(S'fc_mo'
I0
tp1093
a(S'fc_mo'
I0
tp1094
a(S'w'
I513
tp1095
a(S'p1_vo'
I1
tp1096
a(S'w'
I221
tp1097
a(S'fc_mo'
I0
tp1098
a(S'fc_mo'
I0
tp1099
a(S'w'
I522
tp1100
a(S'p1_vo'
I5
tp1101
a(S'p1_tl'
I151
tp1102
a(S'w'
I1
tp1103
a(S'p1_ll'
I1
tp1104
a(S'w'
I16
tp1105
a(S'tr_ll'
I1
tp1106
a(S'w'
I195
tp1107
a(S'fc_mo'
I0
tp1108
a(S'fc_mo'
I0
tp1109
a(S'w'
I512
tp1110
a(S'p1_vo'
I3
tp1111
a(S'w'
I222
tp1112
a(S'fc_mo'
I0
tp1113
a(S'fc_mo'
I0
tp1114
a(S'w'
I512
tp1115
a(S'p1_vo'
I5
tp1116
a(S'w'
I221
tp1117
a(S'fc_mo'
I0
tp1118
a(S'fc_mo'
I0
tp1119
a(S'w'
I513
tp1120
a(S'p1_vo'
I3
tp1121
a(S'w'
I221
tp1122
a(S'fc_mo'
I0
tp1123
a(S'fc_mo'
I0
tp1124
a(S'w'
I512
tp1125
a(S'p1_vo'
I2
tp1126
a(S'w'
I222
tp1127
a(S'fc_mo'
I0
tp1128
a(S'fc_mo'
I0
tp1129
a(S'w'
I734
tp1130
a(S'fc_mo'
I0
tp1131
a(S'fc_mo'
I0
tp1132
a(S'w'
I734
tp1133
a(S'fc_mo'
I0
tp1134
a(S'fc_mo'
I0
tp1135
a(S'w'
I512
tp1136
a(S'p1_vo'
I1
tp1137
a(S'w'
I221
tp1138
a(S'fc_mo'
I0
tp1139
a(S'w'
I1
tp1140
a(S'fc_mo'
I0
tp1141
a(S'w'
I733
tp1142
a(S'fc_mo'
I0
tp1143
a(S'fc_mo'
I0
tp1144
a(S'w'
I522
tp1145
a(S'p1_vo'
I4
tp1146
a(S'p1_tl'
I127
tp1147
a(S'w'
I1
tp1148
a(S'p1_ll'
I1
tp1149
a(S'w'
I16
tp1150
a(S'tr_ll'
I1
tp1151
a(S'w'
I195
tp1152
a(S'fc_mo'
I0
tp1153
a(S'fc_mo'
I0
tp1154
a(S'w'
I512
tp1155
a(S'p1_vo'
I3
tp1156
a(S'w'
I222
tp1157
a(S'fc_mo'
I0
tp1158
a(S'fc_mo'
I0
tp1159
a(S'w'
I512
tp1160
a(S'p1_vo'
I4
tp1161
a(S'w'
I222
tp1162
a(S'fc_mo'
I0
tp1163
a(S'fc_mo'
I0
tp1164
a(S'w'
I512
tp1165
a(S'p1_vo'
I3
tp1166
a(S'w'
I221
tp1167
a(S'fc_mo'
I0
tp1168
a(S'fc_mo'
I0
tp1169
a(S'w'
I513
tp1170
a(S'p1_vo'
I2
tp1171
a(S'w'
I221
tp1172
a(S'fc_mo'
I0
tp1173
a(S'fc_mo'
I0
tp1174
a(S'w'
I734
tp1175
a(S'fc_mo'
I0
tp1176
a(S'fc_mo'
I0
tp1177
a(S'w'
I512
tp1178
a(S'p1_vo'
I1
tp1179
a(S'w'
I222
tp1180
a(S'fc_mo'
I0
tp1181
a(S'fc_mo'
I0
tp1182
a(S'w'
I734
tp1183
a(S'fc_mo'
I0
tp1184
a(S'fc_mo'
I0
tp1185
a(S'w'
I733
tp1186
a(S'fc_mo'
I0
tp1187
a(S'fc_mo'
I0
tp1188
a(S'w'
I533
tp1189
a.