(lp1
(S'clock'
p2
I1789772
tp3
a(S'p1_lh'
I1
tp4
a(S'p1_cv'
I1
tp5
a(S'p1_se'
I1
tp6
a(S'p1_sn'
I1
tp7
a(S'p1_tl'
I0
tp8
a(S'p1_ll'
I0
tp9
a(S'p2_lh'
I1
tp10
a(S'p2_cv'
I1
tp11
a(S'p2_se'
I1
tp12
a(S'p2_sn'
I1
tp13
a(S'p2_tl'
I0
tp14
a(S'p2_ll'
I0
tp15
a(S'tr_ll'
I0
tp16
a(S'no_lh'
I1
tp17
a(S'no_cv'
I1
tp18
a(S'no_np'
I3
tp19
a(S'no_ll'
I24
tp20
a(S'ch_no'
I1
tp21
a(S'ch_tr'
I1
tp22
a(S'ch_p2'
I1
tp23
a(S'ch_p1'
I1
tp24
a(S'w'
I1317
tp25
a(S'p1_tl'
I136
tp26
a(S'w'
I2
tp27
a(S'p1_ll'
I17
tp28
a(S'w'
I23
tp29
a(S'p2_tl'
I136
tp30
a(S'w'
I1
tp31
a(S'p2_ll'
I17
tp32
a(S'w'
I23
tp33
a(S'tr_ll'
I31
tp34
a(S'tr_th'
I7
tp35
a(S'w'
I21
tp36
a(S'no_np'
I0
tp37
a(S'no_ll'
I0
tp38
a(S'w'
I665
tp39
a(S'p1_du'
I1
tp40
a(S'p1_vo'
I8
tp41
a(S'w'
I6
tp42
a(S'p1_tl'
I28
tp43
a(S'w'
I2
tp44
a(S'p1_ll'
I24
tp45
a(S'p1_th'
I1
tp46
a(S'w'
I23
tp47
a(S'p2_du'
I1
tp48
a(S'p2_vo'
I8
tp49
a(S'w'
I6
tp50
a(S'p2_tl'
I213
tp51
a(S'w'
I2
tp52
a(S'p2_ll'
I24
tp53
a(S'w'
I18
tp54
a(S'tr_lr'
I18
tp55
a(S'w'
I3
tp56
a(S'tr_tl'
I213
tp57
a(S'w'
I2
tp58
a(S'tr_ll'
I24
tp59
a(S'tr_th'
I0
tp60
a(S'w'
I17
tp61
a(S'no_np'
I2
tp62
a(S'w'
I1
tp63
a(S'no_vo'
I11
tp64
a(S'no_ll'
I24
tp65
a(S'w'
I637
tp66
a(S'p1_vo'
I9
tp67
a(S'w'
I9
tp68
a(S'p2_vo'
I9
tp69
a(S'w'
I11
tp70
a(S'no_np'
I1
tp71
a(S'w'
I2
tp72
a(S'no_vo'
I10
tp73
a(S'no_ll'
I24
tp74
a(S'w'
I712
tp75
a(S'p1_vo'
I6
tp76
a(S'w'
I8
tp77
a(S'p2_vo'
I6
tp78
a(S'w'
I12
tp79
a(S'no_np'
I0
tp80
a(S'w'
I1
tp81
a(S'no_ll'
I24
tp82
a(S'w'
I2180
tp83
a(S'p1_vo'
I5
tp84
a(S'w'
I2
tp85
a(S'p1_vo'
I0
tp86
a(S'w'
I7
tp87
a(S'p2_vo'
I5
tp88
a(S'w'
I2
tp89
a(S'p2_vo'
I0
tp90
a(S'w'
I725
tp91
a(S'p1_vo'
I8
tp92
a(S'w'
I6
tp93
a(S'p1_tl'
I239
tp94
a(S'w'
I2
tp95
a(S'p1_ll'
I24
tp96
a(S'p1_th'
I0
tp97
a(S'w'
I9
tp98
a(S'p2_vo'
I8
tp99
a(S'w'
I5
tp100
a(S'p2_tl'
I179
tp101
a(S'w'
I14
tp102
a(S'tr_tl'
I179
tp103
a(S'w'
I1
tp104
a(S'tr_ll'
I24
tp105
a(S'w'
I695
tp106
a(S'p1_vo'
I9
tp107
a(S'w'
I8
tp108
a(S'p2_vo'
I9
tp109
a(S'w'
I726
tp110
a(S'p1_vo'
I6
tp111
a(S'w'
I8
tp112
a(S'p2_vo'
I6
tp113
a(S'w'
I2193
tp114
a(S'p1_vo'
I5
tp115
a(S'w'
I2
tp116
a(S'p1_vo'
I0
tp117
a(S'w'
I7
tp118
a(S'p2_vo'
I5
tp119
a(S'w'
I2
tp120
a(S'p2_vo'
I0
tp121
a(S'w'
I10
tp122
a(S'no_vo'
I9
tp123
a(S'no_ll'
I24
tp124
a(S'w'
I715
tp125
a(S'p1_vo'
I8
tp126
a(S'w'
I6
tp127
a(S'p1_tl'
I124
tp128
a(S'w'
I2
tp129
a(S'p1_ll'
I24
tp130
a(S'p1_th'
I1
tp131
a(S'w'
I11
tp132
a(S'p2_vo'
I8
tp133
a(S'w'
I6
tp134
a(S'p2_tl'
I28
tp135
a(S'w'
I2
tp136
a(S'p2_ll'
I24
tp137
a(S'p2_th'
I1
tp138
a(S'w'
I14
tp139
a(S'tr_tl'
I28
tp140
a(S'w'
I2
tp141
a(S'tr_ll'
I24
tp142
a(S'tr_th'
I1
tp143
a(S'w'
I688
tp144
a(S'p1_vo'
I9
tp145
a(S'w'
I9
tp146
a(S'p2_vo'
I9
tp147
a(S'w'
I726
tp148
a(S'p1_vo'
I6
tp149
a(S'w'
I8
tp150
a(S'p2_vo'
I6
tp151
a(S'w'
I2192
tp152
a(S'p1_vo'
I5
tp153
a(S'w'
I3
tp154
a(S'p1_vo'
I0
tp155
a(S'w'
I7
tp156
a(S'p2_vo'
I5
tp157
a(S'w'
I2
tp158
a(S'p2_vo'
I0
tp159
a(S'w'
I725
tp160
a(S'p1_vo'
I8
tp161
a(S'w'
I6
tp162
a(S'p1_tl'
I63
tp163
a(S'w'
I9
tp164
a(S'p2_vo'
I8
tp165
a(S'w'
I6
tp166
a(S'p2_tl'
I239
tp167
a(S'w'
I2
tp168
a(S'p2_ll'
I24
tp169
a(S'p2_th'
I0
tp170
a(S'w'
I12
tp171
a(S'tr_tl'
I239
tp172
a(S'w'
I2
tp173
a(S'tr_ll'
I24
tp174
a(S'tr_th'
I0
tp175
a(S'w'
I694
tp176
a(S'p1_vo'
I9
tp177
a(S'w'
I9
tp178
a(S'p2_vo'
I9
tp179
a(S'w'
I726
tp180
a(S'p1_vo'
I6
tp181
a(S'w'
I8
tp182
a(S'p2_vo'
I6
tp183
a(S'w'
I10
tp184
a(S'no_vo'
I8
tp185
a(S'no_ll'
I24
tp186
a(S'w'
I2182
tp187
a(S'p1_vo'
I5
tp188
a(S'w'
I3
tp189
a(S'p1_vo'
I0
tp190
a(S'w'
I6
tp191
a(S'p2_vo'
I5
tp192
a(S'w'
I3
tp193
a(S'p2_vo'
I0
tp194
a(S'w'
I725
tp195
a(S'p1_vo'
I8
tp196
a(S'w'
I5
tp197
a(S'p1_tl'
I28
tp198
a(S'w'
I12
tp199
a(S'p2_vo'
I8
tp200
a(S'w'
I6
tp201
a(S'p2_tl'
I213
tp202
a(S'w'
I15
tp203
a(S'tr_tl'
I213
tp204
a(S'w'
I2
tp205
a(S'tr_ll'
I24
tp206
a(S'w'
I13
tp207
a(S'no_np'
I2
tp208
a(S'w'
I1
tp209
a(S'no_vo'
I11
tp210
a(S'w'
I1
tp211
a(S'no_ll'
I24
tp212
a(S'w'
I676
tp213
a(S'p1_vo'
I9
tp214
a(S'w'
I9
tp215
a(S'p2_vo'
I9
tp216
a(S'w'
I11
tp217
a(S'no_np'
I1
tp218
a(S'w'
I2
tp219
a(S'no_vo'
I10
tp220
a(S'no_ll'
I24
tp221
a(S'w'
I712
tp222
a(S'p1_vo'
I6
tp223
a(S'w'
I8
tp224
a(S'p2_vo'
I6
tp225
a(S'w'
I12
tp226
a(S'no_np'
I0
tp227
a(S'w'
I2
tp228
a(S'no_ll'
I24
tp229
a(S'w'
I2179
tp230
a(S'p1_vo'
I5
tp231
a(S'w'
I3
tp232
a(S'p1_vo'
I0
tp233
a(S'w'
I6
tp234
a(S'p2_vo'
I5
tp235
a(S'w'
I3
tp236
a(S'p2_vo'
I0
tp237
a(S'w'
I725
tp238
a(S'p1_vo'
I8
tp239
a(S'w'
I5
tp240
a(S'p1_tl'
I63
tp241
a(S'w'
I12
tp242
a(S'p2_vo'
I8
tp243
a(S'w'
I6
tp244
a(S'p2_tl'
I239
tp245
a(S'w'
I15
tp246
a(S'tr_tl'
I239
tp247
a(S'w'
I2
tp248
a(S'tr_ll'
I24
tp249
a(S'w'
I691
tp250
a(S'p1_vo'
I9
tp251
a(S'w'
I9
tp252
a(S'p2_vo'
I9
tp253
a(S'w'
I725
tp254
a(S'p1_vo'
I6
tp255
a(S'w'
I8
tp256
a(S'p2_vo'
I6
tp257
a(S'w'
I2193
tp258
a(S'p1_vo'
I5
tp259
a(S'w'
I2
tp260
a(S'p1_vo'
I0
tp261
a(S'w'
I7
tp262
a(S'p2_vo'
I5
tp263
a(S'w'
I2
tp264
a(S'p2_vo'
I0
tp265
a(S'w'
I10
tp266
a(S'no_vo'
I9
tp267
a(S'no_ll'
I24
tp268
a(S'w'
I715
tp269
a(S'p1_vo'
I8
tp270
a(S'w'
I6
tp271
a(S'p1_tl'
I124
tp272
a(S'w'
I10
tp273
a(S'p2_vo'
I8
tp274
a(S'w'
I5
tp275
a(S'p2_tl'
I28
tp276
a(S'w'
I2
tp277
a(S'p2_ll'
I24
tp278
a(S'p2_th'
I1
tp279
a(S'w'
I13
tp280
a(S'tr_tl'
I28
tp281
a(S'w'
I1
tp282
a(S'tr_ll'
I24
tp283
a(S'tr_th'
I1
tp284
a(S'w'
I695
tp285
a(S'p1_vo'
I9
tp286
a(S'w'
I8
tp287
a(S'p2_vo'
I9
tp288
a(S'w'
I726
tp289
a(S'p1_vo'
I6
tp290
a(S'w'
I8
tp291
a(S'p2_vo'
I6
tp292
a(S'w'
I2193
tp293
a(S'p1_vo'
I5
tp294
a(S'w'
I2
tp295
a(S'p1_vo'
I0
tp296
a(S'w'
I7
tp297
a(S'p2_vo'
I5
tp298
a(S'w'
I2
tp299
a(S'p2_vo'
I0
tp300
a(S'w'
I725
tp301
a(S'p1_vo'
I8
tp302
a(S'w'
I6
tp303
a(S'p1_tl'
I146
tp304
a(S'w'
I9
tp305
a(S'p2_vo'
I8
tp306
a(S'w'
I6
tp307
a(S'p2_tl'
I45
tp308
a(S'w'
I13
tp309
a(S'tr_tl'
I45
tp310
a(S'w'
I2
tp311
a(S'tr_ll'
I24
tp312
a(S'w'
I695
tp313
a(S'p1_vo'
I9
tp314
a(S'w'
I9
tp315
a(S'p2_vo'
I9
tp316
a(S'w'
I726
tp317
a(S'p1_vo'
I6
tp318
a(S'w'
I8
tp319
a(S'p2_vo'
I6
tp320
a(S'w'
I10
tp321
a(S'no_vo'
I8
tp322
a(S'no_ll'
I24
tp323
a(S'w'
I2182
tp324
a(S'p1_vo'
I5
tp325
a(S'w'
I3
tp326
a(S'p1_vo'
I0
tp327
a(S'w'
I7
tp328
a(S'p2_vo'
I5
tp329
a(S'w'
I2
tp330
a(S'p2_vo'
I0
tp331
a(S'w'
I725
tp332
a(S'p1_vo'
I8
tp333
a(S'w'
I6
tp334
a(S'p1_tl'
I170
tp335
a(S'w'
I9
tp336
a(S'p2_vo'
I8
tp337
a(S'w'
I6
tp338
a(S'p2_tl'
I63
tp339
a(S'w'
I13
tp340
a(S'tr_tl'
I63
tp341
a(S'w'
I2
tp342
a(S'tr_ll'
I24
tp343
a(S'w'
I13
tp344
a(S'no_np'
I2
tp345
a(S'w'
I1
tp346
a(S'no_vo'
I11
tp347
a(S'w'
I1
tp348
a(S'no_ll'
I24
tp349
a(S'w'
I680
tp350
a(S'p1_vo'
I9
tp351
a(S'w'
I9
tp352
a(S'p2_vo'
I9
tp353
a(S'w'
I11
tp354
a(S'no_np'
I1
tp355
a(S'w'
I2
tp356
a(S'no_vo'
I10
tp357
a(S'no_ll'
I24
tp358
a(S'w'
I712
tp359
a(S'p1_vo'
I6
tp360
a(S'w'
I9
tp361
a(S'p2_vo'
I6
tp362
a(S'w'
I11
tp363
a(S'no_np'
I0
tp364
a(S'w'
I2
tp365
a(S'no_ll'
I24
tp366
a(S'w'
I2179
tp367
a(S'p1_vo'
I5
tp368
a(S'w'
I3
tp369
a(S'p1_vo'
I0
tp370
a(S'w'
I6
tp371
a(S'p2_vo'
I5
tp372
a(S'w'
I3
tp373
a(S'p2_vo'
I0
tp374
a(S'w'
I727
tp375
a(S'p1_vo'
I8
tp376
a(S'w'
I6
tp377
a(S'p1_tl'
I223
tp378
a(S'w'
I9
tp379
a(S'p2_vo'
I8
tp380
a(S'w'
I6
tp381
a(S'p2_tl'
I102
tp382
a(S'w'
I13
tp383
a(S'tr_tl'
I102
tp384
a(S'w'
I2
tp385
a(S'tr_ll'
I24
tp386
a(S'w'
I693
tp387
a(S'p1_vo'
I9
tp388
a(S'w'
I9
tp389
a(S'p2_vo'
I9
tp390
a(S'w'
I725
tp391
a(S'p1_vo'
I6
tp392
a(S'w'
I8
tp393
a(S'p2_vo'
I6
tp394
a(S'w'
I2193
tp395
a(S'p1_vo'
I5
tp396
a(S'w'
I3
tp397
a(S'p1_vo'
I0
tp398
a(S'w'
I6
tp399
a(S'p2_vo'
I5
tp400
a(S'w'
I3
tp401
a(S'p2_vo'
I0
tp402
a(S'w'
I9
tp403
a(S'no_vo'
I9
tp404
a(S'no_ll'
I24
tp405
a(S'w'
I716
tp406
a(S'p1_vo'
I8
tp407
a(S'w'
I5
tp408
a(S'p1_tl'
I251
tp409
a(S'w'
I10
tp410
a(S'p2_vo'
I8
tp411
a(S'w'
I5
tp412
a(S'p2_tl'
I124
tp413
a(S'w'
I14
tp414
a(S'tr_tl'
I124
tp415
a(S'w'
I1
tp416
a(S'tr_ll'
I24
tp417
a(S'w'
I696
tp418
a(S'p1_vo'
I9
tp419
a(S'w'
I9
tp420
a(S'p2_vo'
I9
tp421
a(S'w'
I725
tp422
a(S'p1_vo'
I6
tp423
a(S'w'
I8
tp424
a(S'p2_vo'
I6
tp425
a(S'w'
I2193
tp426
a(S'p1_vo'
I5
tp427
a(S'w'
I2
tp428
a(S'p1_vo'
I0
tp429
a(S'w'
I7
tp430
a(S'p2_vo'
I5
tp431
a(S'w'
I2
tp432
a(S'p2_vo'
I0
tp433
a(S'w'
I725
tp434
a(S'p1_vo'
I8
tp435
a(S'w'
I6
tp436
a(S'p1_tl'
I26
tp437
a(S'w'
I2
tp438
a(S'p1_ll'
I24
tp439
a(S'p1_th'
I2
tp440
a(S'w'
I9
tp441
a(S'p2_vo'
I8
tp442
a(S'w'
I6
tp443
a(S'p2_tl'
I146
tp444
a(S'w'
I13
tp445
a(S'tr_tl'
I146
tp446
a(S'w'
I2
tp447
a(S'tr_ll'
I24
tp448
a(S'w'
I694
tp449
a(S'p1_vo'
I9
tp450
a(S'w'
I8
tp451
a(S'p2_vo'
I9
tp452
a(S'w'
I726
tp453
a(S'p1_vo'
I6
tp454
a(S'w'
I8
tp455
a(S'p2_vo'
I6
tp456
a(S'w'
I10
tp457
a(S'no_vo'
I8
tp458
a(S'w'
I1
tp459
a(S'no_ll'
I24
tp460
a(S'w'
I2182
tp461
a(S'p1_vo'
I5
tp462
a(S'w'
I2
tp463
a(S'p1_vo'
I0
tp464
a(S'w'
I7
tp465
a(S'p2_vo'
I5
tp466
a(S'w'
I2
tp467
a(S'p2_vo'
I0
tp468
a(S'w'
I725
tp469
a(S'p1_vo'
I8
tp470
a(S'w'
I6
tp471
a(S'p1_tl'
I57
tp472
a(S'w'
I9
tp473
a(S'p2_vo'
I8
tp474
a(S'w'
I6
tp475
a(S'p2_tl'
I170
tp476
a(S'w'
I14
tp477
a(S'tr_lh'
I1
tp478
a(S'tr_lr'
I16
tp479
a(S'w'
I3
tp480
a(S'tr_tl'
I170
tp481
a(S'w'
I2
tp482
a(S'tr_ll'
I24
tp483
a(S'w'
I12
tp484
a(S'no_np'
I8
tp485
a(S'w'
I2
tp486
a(S'no_vo'
I11
tp487
a(S'no_ll'
I24
tp488
a(S'w'
I678
tp489
a(S'p1_vo'
I9
tp490
a(S'w'
I8
tp491
a(S'p2_vo'
I9
tp492
a(S'w'
I12
tp493
a(S'no_np'
I6
tp494
a(S'w'
I1
tp495
a(S'no_ll'
I24
tp496
a(S'w'
I713
tp497
a(S'p1_vo'
I6
tp498
a(S'w'
I8
tp499
a(S'p2_vo'
I6
tp500
a(S'w'
I10
tp501
a(S'no_np'
I3
tp502
a(S'w'
I3
tp503
a(S'no_vo'
I5
tp504
a(S'no_ll'
I24
tp505
a(S'w'
I2180
tp506
a(S'p1_vo'
I5
tp507
a(S'w'
I2
tp508
a(S'p1_vo'
I0
tp509
a(S'w'
I7
tp510
a(S'p2_vo'
I5
tp511
a(S'w'
I2
tp512
a(S'p2_vo'
I0
tp513
a(S'w'
I725
tp514
a(S'p1_vo'
I8
tp515
a(S'w'
I6
tp516
a(S'p1_tl'
I127
tp517
a(S'w'
I11
tp518
a(S'p2_vo'
I8
tp519
a(S'w'
I6
tp520
a(S'p2_tl'
I223
tp521
a(S'w'
I16
tp522
a(S'no_np'
I2
tp523
a(S'w'
I1
tp524
a(S'no_vo'
I10
tp525
a(S'w'
I1
tp526
a(S'no_ll'
I24
tp527
a(S'w'
I690
tp528
a(S'p1_vo'
I9
tp529
a(S'w'
I9
tp530
a(S'p2_vo'
I9
tp531
a(S'w'
I11
tp532
a(S'no_np'
I1
tp533
a(S'w'
I2
tp534
a(S'no_vo'
I6
tp535
a(S'no_ll'
I24
tp536
a(S'w'
I712
tp537
a(S'p1_vo'
I6
tp538
a(S'w'
I9
tp539
a(S'p2_vo'
I6
tp540
a(S'w'
I10
tp541
a(S'no_np'
I0
tp542
a(S'w'
I2
tp543
a(S'no_vo'
I3
tp544
a(S'no_ll'
I24
tp545
a(S'w'
I723
tp546
a(S'no_vo'
I0
tp547
a(S'w'
I1
tp548
a(S'no_ll'
I0
tp549
a(S'w'
I1456
tp550
a(S'p1_vo'
I5
tp551
a(S'w'
I3
tp552
a(S'p1_vo'
I0
tp553
a(S'w'
I7
tp554
a(S'p2_vo'
I5
tp555
a(S'w'
I2
tp556
a(S'p2_vo'
I0
tp557
a(S'w'
I725
tp558
a(S'p1_vo'
I8
tp559
a(S'w'
I6
tp560
a(S'p1_tl'
I57
tp561
a(S'w'
I11
tp562
a(S'p2_vo'
I8
tp563
a(S'w'
I6
tp564
a(S'p2_tl'
I170
tp565
a(S'w'
I16
tp566
a(S'no_np'
I2
tp567
a(S'w'
I1
tp568
a(S'no_vo'
I10
tp569
a(S'no_ll'
I24
tp570
a(S'w'
I691
tp571
a(S'p1_vo'
I9
tp572
a(S'w'
I9
tp573
a(S'p2_vo'
I9
tp574
a(S'w'
I11
tp575
a(S'no_np'
I1
tp576
a(S'w'
I2
tp577
a(S'no_vo'
I6
tp578
a(S'no_ll'
I24
tp579
a(S'w'
I712
tp580
a(S'p1_vo'
I6
tp581
a(S'w'
I8
tp582
a(S'p2_vo'
I6
tp583
a(S'w'
I11
tp584
a(S'no_np'
I0
tp585
a(S'w'
I1
tp586
a(S'no_vo'
I3
tp587
a(S'w'
I1
tp588
a(S'no_ll'
I24
tp589
a(S'w'
I723
tp590
a(S'no_vo'
I0
tp591
a(S'no_ll'
I0
tp592
a(S'w'
I1457
tp593
a(S'p1_vo'
I5
tp594
a(S'w'
I3
tp595
a(S'p1_vo'
I0
tp596
a(S'w'
I6
tp597
a(S'p2_vo'
I5
tp598
a(S'w'
I3
tp599
a(S'p2_vo'
I0
tp600
a(S'w'
I725
tp601
a(S'p1_vo'
I8
tp602
a(S'w'
I6
tp603
a(S'p1_tl'
I223
tp604
a(S'w'
I2
tp605
a(S'p1_ll'
I24
tp606
a(S'p1_th'
I1
tp607
a(S'w'
I9
tp608
a(S'p2_vo'
I8
tp609
a(S'w'
I5
tp610
a(S'p2_tl'
I102
tp611
a(S'w'
I17
tp612
a(S'tr_tl'
I223
tp613
a(S'w'
I1
tp614
a(S'tr_ll'
I24
tp615
a(S'w'
I13
tp616
a(S'no_np'
I8
tp617
a(S'w'
I1
tp618
a(S'no_vo'
I10
tp619
a(S'w'
I1
tp620
a(S'no_ll'
I24
tp621
a(S'w'
I676
tp622
a(S'p1_vo'
I9
tp623
a(S'w'
I9
tp624
a(S'p2_vo'
I9
tp625
a(S'w'
I11
tp626
a(S'no_np'
I6
tp627
a(S'w'
I2
tp628
a(S'no_ll'
I24
tp629
a(S'w'
I712
tp630
a(S'p1_vo'
I6
tp631
a(S'w'
I8
tp632
a(S'p2_vo'
I6
tp633
a(S'w'
I11
tp634
a(S'no_vo'
I7
tp635
a(S'no_ll'
I24
tp636
a(S'w'
I727
tp637
a(S'no_np'
I3
tp638
a(S'w'
I1
tp639
a(S'no_vo'
I5
tp640
a(S'w'
I1
tp641
a(S'no_ll'
I24
tp642
a(S'w'
I2932
tp643
a(S'no_vo'
I4
tp644
a(S'no_ll'
I24
tp645
a(S'w'
I2924
tp646
a(S'p1_vo'
I5
tp647
a(S'w'
I2
tp648
a(S'p1_vo'
I0
tp649
a(S'w'
I7
tp650
a(S'p2_vo'
I5
tp651
a(S'w'
I2
tp652
a(S'p2_vo'
I0
tp653
a(S'w'
I10
tp654
a(S'no_vo'
I3
tp655
a(S'no_ll'
I24
tp656
a(S'w'
I715
tp657
a(S'p1_vo'
I8
tp658
a(S'w'
I6
tp659
a(S'p1_tl'
I57
tp660
a(S'w'
I2
tp661
a(S'p1_ll'
I24
tp662
a(S'p1_th'
I2
tp663
a(S'w'
I9
tp664
a(S'p2_vo'
I8
tp665
a(S'w'
I5
tp666
a(S'p2_tl'
I170
tp667
a(S'w'
I16
tp668
a(S'no_np'
I2
tp669
a(S'w'
I2
tp670
a(S'no_vo'
I10
tp671
a(S'no_ll'
I24
tp672
a(S'w'
I691
tp673
a(S'p1_vo'
I9
tp674
a(S'w'
I9
tp675
a(S'p2_vo'
I9
tp676
a(S'w'
I12
tp677
a(S'no_np'
I1
tp678
a(S'w'
I1
tp679
a(S'no_vo'
I6
tp680
a(S'no_ll'
I24
tp681
a(S'w'
I713
tp682
a(S'p1_vo'
I6
tp683
a(S'w'
I8
tp684
a(S'p2_vo'
I6
tp685
a(S'w'
I10
tp686
a(S'no_np'
I0
tp687
a(S'w'
I2
tp688
a(S'no_vo'
I3
tp689
a(S'no_ll'
I24
tp690
a(S'w'
I723
tp691
a(S'no_vo'
I0
tp692
a(S'w'
I1
tp693
a(S'no_ll'
I0
tp694
a(S'w'
I1456
tp695
a(S'p1_vo'
I5
tp696
a(S'w'
I3
tp697
a(S'p1_vo'
I0
tp698
a(S'w'
I7
tp699
a(S'p2_vo'
I5
tp700
a(S'w'
I2
tp701
a(S'p2_vo'
I0
tp702
a(S'w'
I725
tp703
a(S'p1_vo'
I8
tp704
a(S'w'
I6
tp705
a(S'p1_tl'
I223
tp706
a(S'w'
I2
tp707
a(S'p1_ll'
I24
tp708
a(S'p1_th'
I1
tp709
a(S'w'
I9
tp710
a(S'p2_vo'
I8
tp711
a(S'w'
I5
tp712
a(S'p2_tl'
I102
tp713
a(S'w'
I16
tp714
a(S'no_np'
I2
tp715
a(S'w'
I2
tp716
a(S'no_vo'
I13
tp717
a(S'no_ll'
I24
tp718
a(S'w'
I691
tp719
a(S'p1_vo'
I9
tp720
a(S'w'
I9
tp721
a(S'p2_vo'
I9
tp722
a(S'w'
I11
tp723
a(S'no_np'
I1
tp724
a(S'w'
I2
tp725
a(S'no_vo'
I9
tp726
a(S'no_ll'
I24
tp727
a(S'w'
I713
tp728
a(S'p1_vo'
I6
tp729
a(S'w'
I8
tp730
a(S'p2_vo'
I6
tp731
a(S'w'
I10
tp732
a(S'no_np'
I0
tp733
a(S'w'
I2
tp734
a(S'no_vo'
I4
tp735
a(S'no_ll'
I24
tp736
a(S'w'
I723
tp737
a(S'no_vo'
I0
tp738
a(S'w'
I1
tp739
a(S'no_ll'
I0
tp740
a(S'w'
I1456
tp741
a(S'p1_vo'
I5
tp742
a(S'w'
I3
tp743
a(S'p1_vo'
I0
tp744
a(S'w'
I6
tp745
a(S'p2_vo'
I5
tp746
a(S'w'
I3
tp747
a(S'p2_vo'
I0
tp748
a(S'w'
I725
tp749
a(S'p1_vo'
I8
tp750
a(S'w'
I6
tp751
a(S'p1_tl'
I196
tp752
a(S'w'
I9
tp753
a(S'p2_vo'
I8
tp754
a(S'w'
I6
tp755
a(S'p2_tl'
I82
tp756
a(S'w'
I16
tp757
a(S'no_np'
I2
tp758
a(S'w'
I1
tp759
a(S'no_vo'
I10
tp760
a(S'no_ll'
I24
tp761
a(S'w'
I693
tp762
a(S'p1_vo'
I9
tp763
a(S'w'
I9
tp764
a(S'p2_vo'
I9
tp765
a(S'w'
I11
tp766
a(S'no_np'
I1
tp767
a(S'w'
I2
tp768
a(S'no_vo'
I6
tp769
a(S'no_ll'
I24
tp770
a(S'w'
I712
tp771
a(S'p1_vo'
I6
tp772
a(S'w'
I8
tp773
a(S'p2_vo'
I6
tp774
a(S'w'
I11
tp775
a(S'no_np'
I0
tp776
a(S'w'
I1
tp777
a(S'no_vo'
I3
tp778
a(S'w'
I1
tp779
a(S'no_ll'
I24
tp780
a(S'w'
I723
tp781
a(S'no_vo'
I0
tp782
a(S'no_ll'
I0
tp783
a(S'w'
I1457
tp784
a(S'p1_vo'
I5
tp785
a(S'w'
I3
tp786
a(S'p1_vo'
I0
tp787
a(S'w'
I6
tp788
a(S'p2_vo'
I5
tp789
a(S'w'
I3
tp790
a(S'p2_vo'
I0
tp791
a(S'w'
I725
tp792
a(S'p1_vo'
I8
tp793
a(S'w'
I5
tp794
a(S'p1_tl'
I86
tp795
a(S'w'
I3
tp796
a(S'p1_ll'
I24
tp797
a(S'p1_th'
I3
tp798
a(S'w'
I8
tp799
a(S'p2_vo'
I8
tp800
a(S'w'
I6
tp801
a(S'p2_tl'
I63
tp802
a(S'w'
I15
tp803
a(S'tr_lh'
I0
tp804
a(S'w'
I4
tp805
a(S'tr_tl'
I253
tp806
a(S'w'
I1
tp807
a(S'tr_ll'
I24
tp808
a(S'tr_th'
I0
tp809
a(S'w'
I13
tp810
a(S'no_np'
I8
tp811
a(S'w'
I1
tp812
a(S'no_vo'
I10
tp813
a(S'w'
I1
tp814
a(S'no_ll'
I24
tp815
a(S'w'
I674
tp816
a(S'p1_vo'
I9
tp817
a(S'w'
I9
tp818
a(S'p2_vo'
I9
tp819
a(S'w'
I11
tp820
a(S'no_np'
I6
tp821
a(S'w'
I2
tp822
a(S'no_ll'
I24
tp823
a(S'w'
I712
tp824
a(S'p1_vo'
I6
tp825
a(S'w'
I8
tp826
a(S'p2_vo'
I6
tp827
a(S'w'
I11
tp828
a(S'no_vo'
I7
tp829
a(S'no_ll'
I24
tp830
a(S'w'
I727
tp831
a(S'no_np'
I3
tp832
a(S'w'
I2
tp833
a(S'no_vo'
I5
tp834
a(S'no_ll'
I24
tp835
a(S'w'
I1453
tp836
a(S'p1_vo'
I5
tp837
a(S'w'
I3
tp838
a(S'p1_vo'
I0
tp839
a(S'w'
I6
tp840
a(S'p2_vo'
I5
tp841
a(S'w'
I3
tp842
a(S'p2_vo'
I0
tp843
a(S'w'
I725
tp844
a(S'p1_vo'
I8
tp845
a(S'w'
I5
tp846
a(S'p1_tl'
I86
tp847
a(S'w'
I10
tp848
a(S'p2_vo'
I8
tp849
a(S'w'
I5
tp850
a(S'p2_tl'
I63
tp851
a(S'w'
I15
tp852
a(S'tr_ll'
I24
tp853
a(S'w'
I13
tp854
a(S'no_np'
I8
tp855
a(S'w'
I1
tp856
a(S'no_vo'
I10
tp857
a(S'no_ll'
I24
tp858
a(S'w'
I682
tp859
a(S'p1_vo'
I9
tp860
a(S'w'
I8
tp861
a(S'p2_vo'
I9
tp862
a(S'w'
I12
tp863
a(S'no_np'
I6
tp864
a(S'w'
I2
tp865
a(S'no_ll'
I24
tp866
a(S'w'
I712
tp867
a(S'p1_vo'
I6
tp868
a(S'w'
I8
tp869
a(S'p2_vo'
I6
tp870
a(S'w'
I11
tp871
a(S'no_vo'
I7
tp872
a(S'no_ll'
I24
tp873
a(S'w'
I727
tp874
a(S'no_np'
I3
tp875
a(S'w'
I1
tp876
a(S'no_vo'
I5
tp877
a(S'w'
I1
tp878
a(S'no_ll'
I24
tp879
a(S'w'
I1453
tp880
a(S'p1_vo'
I5
tp881
a(S'w'
I2
tp882
a(S'p1_vo'
I0
tp883
a(S'w'
I7
tp884
a(S'p2_vo'
I5
tp885
a(S'w'
I2
tp886
a(S'p2_vo'
I0
tp887
a(S'w'
I731
tp888
a(S'p1_vo'
I2
tp889
a(S'w'
I4
tp890
a(S'p1_tl'
I196
tp891
a(S'w'
I3
tp892
a(S'p1_ll'
I24
tp893
a(S'p1_th'
I1
tp894
a(S'w'
I12
tp895
a(S'p2_vo'
I2
tp896
a(S'w'
I4
tp897
a(S'p2_tl'
I82
tp898
a(S'w'
I8
tp899
a(S'tr_lr'
I0
tp900
a(S'w'
I12
tp901
a(S'no_np'
I2
tp902
a(S'w'
I2
tp903
a(S'no_vo'
I10
tp904
a(S'no_ll'
I24
tp905
a(S'w'
I688
tp906
a(S'no_np'
I1
tp907
a(S'w'
I2
tp908
a(S'no_vo'
I6
tp909
a(S'no_ll'
I24
tp910
a(S'w'
I732
tp911
a(S'no_np'
I0
tp912
a(S'w'
I2
tp913
a(S'no_vo'
I3
tp914
a(S'no_ll'
I24
tp915
a(S'w'
I731
tp916
a(S'no_vo'
I0
tp917
a(S'no_ll'
I0
tp918
a(S'w'
I2203
tp919
a(S'p1_vo'
I8
tp920
a(S'w'
I6
tp921
a(S'p1_tl'
I170
tp922
a(S'w'
I13
tp923
a(S'p2_vo'
I8
tp924
a(S'w'
I6
tp925
a(S'p2_tl'
I45
tp926
a(S'w'
I9
tp927
a(S'tr_lr'
I16
tp928
a(S'w'
I4
tp929
a(S'tr_tl'
I12
tp930
a(S'w'
I2
tp931
a(S'tr_ll'
I24
tp932
a(S'tr_th'
I1
tp933
a(S'w'
I12
tp934
a(S'no_np'
I8
tp935
a(S'w'
I2
tp936
a(S'no_vo'
I10
tp937
a(S'no_ll'
I24
tp938
a(S'w'
I671
tp939
a(S'p1_vo'
I9
tp940
a(S'w'
I9
tp941
a(S'p2_vo'
I9
tp942
a(S'w'
I12
tp943
a(S'no_np'
I6
tp944
a(S'w'
I1
tp945
a(S'no_ll'
I24
tp946
a(S'w'
I713
tp947
a(S'p1_vo'
I6
tp948
a(S'w'
I8
tp949
a(S'p2_vo'
I6
tp950
a(S'w'
I10
tp951
a(S'no_vo'
I7
tp952
a(S'no_ll'
I24
tp953
a(S'w'
I727
tp954
a(S'no_np'
I3
tp955
a(S'w'
I2
tp956
a(S'no_vo'
I5
tp957
a(S'no_ll'
I24
tp958
a(S'w'
I1453
tp959
a(S'p1_vo'
I5
tp960
a(S'w'
I3
tp961
a(S'p1_vo'
I0
tp962
a(S'w'
I7
tp963
a(S'p2_vo'
I5
tp964
a(S'w'
I2
tp965
a(S'p2_vo'
I0
tp966
a(S'w'
I729
tp967
a(S'p1_vo'
I2
tp968
a(S'w'
I4
tp969
a(S'p1_tl'
I170
tp970
a(S'w'
I13
tp971
a(S'p2_vo'
I2
tp972
a(S'w'
I4
tp973
a(S'p2_tl'
I63
tp974
a(S'w'
I8
tp975
a(S'tr_lr'
I0
tp976
a(S'w'
I13
tp977
a(S'no_np'
I2
tp978
a(S'w'
I1
tp979
a(S'no_vo'
I10
tp980
a(S'no_ll'
I24
tp981
a(S'w'
I692
tp982
a(S'no_np'
I1
tp983
a(S'w'
I2
tp984
a(S'no_vo'
I6
tp985
a(S'no_ll'
I24
tp986
a(S'w'
I732
tp987
a(S'no_np'
I0
tp988
a(S'w'
I1
tp989
a(S'no_vo'
I3
tp990
a(S'no_ll'
I24
tp991
a(S'w'
I732
tp992
a(S'no_vo'
I0
tp993
a(S'no_ll'
I0
tp994
a(S'w'
I2201
tp995
a(S'p1_vo'
I8
tp996
a(S'w'
I5
tp997
a(S'p1_tl'
I170
tp998
a(S'w'
I14
tp999
a(S'p2_vo'
I8
tp1000
a(S'w'
I5
tp1001
a(S'p2_tl'
I45
tp1002
a(S'w'
I10
tp1003
a(S'tr_lr'
I16
tp1004
a(S'w'
I5
tp1005
a(S'tr_ll'
I24
tp1006
a(S'w'
I13
tp1007
a(S'no_np'
I8
tp1008
a(S'w'
I1
tp1009
a(S'no_vo'
I10
tp1010
a(S'no_ll'
I24
tp1011
a(S'w'
I674
tp1012
a(S'p1_vo'
I9
tp1013
a(S'w'
I9
tp1014
a(S'p2_vo'
I9
tp1015
a(S'w'
I11
tp1016
a(S'no_np'
I6
tp1017
a(S'w'
I2
tp1018
a(S'no_ll'
I24
tp1019
a(S'w'
I712
tp1020
a(S'p1_vo'
I6
tp1021
a(S'w'
I8
tp1022
a(S'p2_vo'
I6
tp1023
a(S'w'
I11
tp1024
a(S'no_vo'
I7
tp1025
a(S'no_ll'
I24
tp1026
a(S'w'
I727
tp1027
a(S'no_np'
I3
tp1028
a(S'w'
I2
tp1029
a(S'no_vo'
I5
tp1030
a(S'no_ll'
I24
tp1031
a(S'w'
I1453
tp1032
a(S'p1_vo'
I5
tp1033
a(S'w'
I3
tp1034
a(S'p1_vo'
I0
tp1035
a(S'w'
I6
tp1036
a(S'p2_vo'
I5
tp1037
a(S'w'
I3
tp1038
a(S'p2_vo'
I0
tp1039
a(S'w'
I733
tp1040
a(S'p1_vo'
I8
tp1041
a(S'w'
I7
tp1042
a(S'p1_tl'
I196
tp1043
a(S'w'
I15
tp1044
a(S'p2_vo'
I8
tp1045
a(S'w'
I7
tp1046
a(S'p2_tl'
I28
tp1047
a(S'w'
I14
tp1048
a(S'tr_lh'
I1
tp1049
a(S'w'
I4
tp1050
a(S'tr_tl'
I28
tp1051
a(S'w'
I2
tp1052
a(S'tr_ll'
I24
tp1053
a(S'w'
I13
tp1054
a(S'no_np'
I8
tp1055
a(S'w'
I2
tp1056
a(S'no_vo'
I12
tp1057
a(S'no_ll'
I24
tp1058
a(S'w'
I659
tp1059
a(S'p1_vo'
I9
tp1060
a(S'w'
I9
tp1061
a(S'p2_vo'
I9
tp1062
a(S'w'
I12
tp1063
a(S'no_np'
I6
tp1064
a(S'w'
I2
tp1065
a(S'no_ll'
I24
tp1066
a(S'w'
I711
tp1067
a(S'p1_vo'
I6
tp1068
a(S'w'
I9
tp1069
a(S'p2_vo'
I6
tp1070
a(S'w'
I11
tp1071
a(S'no_vo'
I9
tp1072
a(S'no_ll'
I24
tp1073
a(S'w'
I727
tp1074
a(S'no_np'
I3
tp1075
a(S'w'
I1
tp1076
a(S'no_vo'
I5
tp1077
a(S'w'
I1
tp1078
a(S'no_ll'
I24
tp1079
a(S'w'
I2932
tp1080
a(S'no_vo'
I4
tp1081
a(S'no_ll'
I24
tp1082
a(S'w'
I2925
tp1083
a(S'p1_tl'
I193
tp1084
a(S'w'
I9
tp1085
a(S'p2_tl'
I25
tp1086
a(S'w'
I9
tp1087
a(S'no_vo'
I3
tp1088
a(S'no_ll'
I24
tp1089
a(S'w'
I2928
tp1090
a(S'no_vo'
I2
tp1091
a(S'no_ll'
I24
tp1092
a(S'w'
I723
tp1093
a(S'p1_tl'
I196
tp1094
a(S'w'
I8
tp1095
a(S'p2_tl'
I28
tp1096
a(S'w'
I2203
tp1097
a(S'no_vo'
I0
tp1098
a(S'no_np'
I0
tp1099
a(S'no_ll'
I0
tp1100
a(S'w'
I1458
tp1101
a(S'p1_tl'
I193
tp1102
a(S'w'
I8
tp1103
a(S'p2_tl'
I25
tp1104
a(S'w'
I3661
tp1105
a(S'p1_tl'
I196
tp1106
a(S'w'
I8
tp1107
a(S'p2_tl'
I28
tp1108
a(S'w'
I3661
tp1109
a(S'p1_tl'
I193
tp1110
a(S'w'
I8
tp1111
a(S'p2_tl'
I25
tp1112
a(S'w'
I2925
tp1113
a(S'p1_vo'
I5
tp1114
a(S'w'
I2
tp1115
a(S'p1_vo'
I0
tp1116
a(S'w'
I8
tp1117
a(S'p2_vo'
I5
tp1118
a(S'w'
I2
tp1119
a(S'p2_vo'
I0
tp1120
a(S'w'
I723
tp1121
a(S'p1_du'
I0
tp1122
a(S'w'
I4
tp1123
a(S'p1_tl'
I0
tp1124
a(S'w'
I1
tp1125
a(S'p1_ll'
I0
tp1126
a(S'p1_th'
I0
tp1127
a(S'w'
I8
tp1128
a(S'p2_du'
I0
tp1129
a(S'w'
I3
tp1130
a(S'p2_tl'
I0
tp1131
a(S'w'
I1
tp1132
a(S'p2_ll'
I0
tp1133
a(S'p2_th'
I0
tp1134
a(S'w'
I9
tp1135
a(S'tr_lh'
I0
tp1136
a(S'tr_lr'
I0
tp1137
a(S'w'
I2
tp1138
a(S'tr_tl'
I0
tp1139
a(S'w'
I2
tp1140
a(S'tr_ll'
I0
tp1141
a(S'tr_th'
I0
tp1142
a(S'w'
I178
tp1143
a.