(lp1
(S'clock'
p2
I1789773
tp3
a(S'fc_mo'
I1
tp4
a(S'w'
I1
tp5
a(S'p1_ll'
I0
tp6
a(S'w'
I5
tp7
a(S'w'
I1
tp8
a(S'p2_ll'
I0
tp9
a(S'w'
I12
tp10
a(S'w'
I1
tp11
a(S'tr_lr'
I31
tp12
a(S'tr_tl'
I86
tp13
a(S'w'
I1
tp14
a(S'tr_ll'
I0
tp15
a(S'tr_th'
I3
tp16
a(S'w'
I10
tp17
a(S'no_cv'
I1
tp18
a(S'no_vo'
I4
tp19
a(S'w'
I1
tp20
a(S'no_np'
I12
tp21
a(S'no_ll'
I5
tp22
a(S'w'
I699
tp23
a(S'w'
I3
tp24
a(S'w'
I6
tp25
a(S'w'
I1456
tp26
a(S'w'
I3
tp27
a(S'w'
I6
tp28
a(S'tr_tl'
I85
tp29
a(S'w'
I3
tp30
a(S'w'
I1453
tp31
a(S'w'
I3
tp32
a(S'w'
I6
tp33
a(S'w'
I1456
tp34
a(S'w'
I3
tp35
a(S'w'
I6
tp36
a(S'tr_tl'
I86
tp37
a(S'w'
I3
tp38
a(S'w'
I1454
tp39
a(S'w'
I3
tp40
a(S'w'
I6
tp41
a(S'w'
I2188
tp42
a(S'w'
I3
tp43
a(S'w'
I6
tp44
a(S'tr_tl'
I85
tp45
a(S'w'
I3
tp46
a(S'w'
I1454
tp47
a(S'w'
I3
tp48
a(S'w'
I6
tp49
a(S'w'
I1456
tp50
a(S'w'
I3
tp51
a(S'w'
I6
tp52
a(S'tr_tl'
I86
tp53
a(S'w'
I3
tp54
a(S'w'
I1453
tp55
a(S'w'
I3
tp56
a(S'w'
I6
tp57
a(S'w'
I1456
tp58
a(S'w'
I3
tp59
a(S'w'
I6
tp60
a(S'tr_tl'
I85
tp61
a(S'w'
I3
tp62
a(S'w'
I1453
tp63
a(S'w'
I3
tp64
a(S'w'
I6
tp65
a(S'w'
I729
tp66
a(S'tr_tl'
I86
tp67
a(S'w'
I1
tp68
a(S'tr_ll'
I0
tp69
a(S'w'
I6
tp70
a(S'no_np'
I2
tp71
a(S'no_ll'
I5
tp72
a(S'w'
I1453
tp73
a(S'w'
I3
tp74
a(S'w'
I6
tp75
a(S'tr_tl'
I87
tp76
a(S'w'
I3
tp77
a(S'w'
I1453
tp78
a(S'w'
I3
tp79
a(S'w'
I6
tp80
a(S'w'
I1457
tp81
a(S'w'
I3
tp82
a(S'w'
I6
tp83
a(S'tr_tl'
I86
tp84
a(S'w'
I3
tp85
a(S'w'
I726
tp86
a(S'tr_ll'
I0
tp87
a(S'w'
I6
tp88
a(S'no_ll'
I5
tp89
a(S'w'
I721
tp90
a(S'w'
I3
tp91
a(S'w'
I6
tp92
a(S'w'
I1456
tp93
a(S'w'
I3
tp94
a(S'w'
I6
tp95
a(S'tr_tl'
I87
tp96
a(S'w'
I3
tp97
a(S'w'
I1453
tp98
a(S'w'
I3
tp99
a(S'w'
I6
tp100
a(S'w'
I1461
tp101
a(S'tr_tl'
I86
tp102
a(S'w'
I1
tp103
a(S'tr_ll'
I0
tp104
a(S'w'
I6
tp105
a(S'no_ll'
I5
tp106
a(S'w'
I721
tp107
a(S'w'
I3
tp108
a(S'w'
I6
tp109
a(S'tr_tl'
I85
tp110
a(S'w'
I3
tp111
a(S'w'
I1453
tp112
a(S'w'
I3
tp113
a(S'w'
I6
tp114
a(S'w'
I1456
tp115
a(S'w'
I3
tp116
a(S'w'
I6
tp117
a(S'tr_tl'
I86
tp118
a(S'w'
I3
tp119
a(S'w'
I1454
tp120
a(S'w'
I3
tp121
a(S'w'
I6
tp122
a(S'w'
I729
tp123
a(S'tr_ll'
I0
tp124
a(S'w'
I6
tp125
a(S'no_np'
I8
tp126
a(S'no_ll'
I5
tp127
a(S'w'
I721
tp128
a(S'w'
I3
tp129
a(S'w'
I6
tp130
a(S'tr_tl'
I85
tp131
a(S'w'
I3
tp132
a(S'w'
I1453
tp133
a(S'w'
I3
tp134
a(S'w'
I6
tp135
a(S'w'
I2189
tp136
a(S'w'
I3
tp137
a(S'w'
I6
tp138
a(S'tr_tl'
I86
tp139
a(S'w'
I3
tp140
a(S'w'
I1453
tp141
a(S'w'
I3
tp142
a(S'w'
I6
tp143
a(S'w'
I1456
tp144
a(S'w'
I3
tp145
a(S'w'
I6
tp146
a(S'tr_tl'
I85
tp147
a(S'w'
I3
tp148
a(S'w'
I1453
tp149
a(S'w'
I3
tp150
a(S'w'
I6
tp151
a(S'w'
I1457
tp152
a(S'w'
I3
tp153
a(S'w'
I6
tp154
a(S'tr_tl'
I86
tp155
a(S'w'
I3
tp156
a(S'w'
I1453
tp157
a(S'w'
I3
tp158
a(S'w'
I6
tp159
a(S'w'
I2189
tp160
a(S'w'
I3
tp161
a(S'w'
I6
tp162
a(S'tr_tl'
I85
tp163
a(S'w'
I3
tp164
a(S'w'
I1453
tp165
a(S'w'
I3
tp166
a(S'w'
I6
tp167
a(S'w'
I729
tp168
a(S'tr_tl'
I86
tp169
a(S'w'
I1
tp170
a(S'tr_ll'
I0
tp171
a(S'w'
I6
tp172
a(S'no_np'
I2
tp173
a(S'no_ll'
I5
tp174
a(S'w'
I720
tp175
a(S'w'
I3
tp176
a(S'w'
I6
tp177
a(S'tr_tl'
I87
tp178
a(S'w'
I3
tp179
a(S'w'
I1453
tp180
a(S'w'
I3
tp181
a(S'w'
I6
tp182
a(S'w'
I1457
tp183
a(S'w'
I3
tp184
a(S'w'
I6
tp185
a(S'tr_tl'
I86
tp186
a(S'w'
I3
tp187
a(S'w'
I1453
tp188
a(S'w'
I3
tp189
a(S'w'
I6
tp190
a(S'w'
I729
tp191
a(S'tr_ll'
I0
tp192
a(S'w'
I6
tp193
a(S'no_ll'
I5
tp194
a(S'w'
I1454
tp195
a(S'w'
I3
tp196
a(S'w'
I6
tp197
a(S'tr_tl'
I87
tp198
a(S'w'
I3
tp199
a(S'w'
I1453
tp200
a(S'w'
I3
tp201
a(S'w'
I6
tp202
a(S'w'
I1456
tp203
a(S'w'
I3
tp204
a(S'w'
I6
tp205
a(S'tr_tl'
I86
tp206
a(S'w'
I3
tp207
a(S'w'
I727
tp208
a(S'tr_ll'
I0
tp209
a(S'w'
I6
tp210
a(S'no_ll'
I5
tp211
a(S'w'
I720
tp212
a(S'w'
I3
tp213
a(S'w'
I6
tp214
a(S'w'
I1456
tp215
a(S'w'
I3
tp216
a(S'w'
I6
tp217
a(S'tr_tl'
I87
tp218
a(S'w'
I3
tp219
a(S'w'
I1454
tp220
a(S'w'
I3
tp221
a(S'w'
I6
tp222
a(S'w'
I1469
tp223
a(S'p1_sp'
I4
tp224
a(S'p1_ss'
I3
tp225
a(S'w'
I1
tp226
a(S'p1_lh'
I1
tp227
a(S'p1_cv'
I1
tp228
a(S'p1_vo'
I7
tp229
a(S'p1_tl'
I58
tp230
a(S'p1_ll'
I19
tp231
a(S'p1_th'
I2
tp232
a(S'w'
I18
tp233
a(S'p2_sp'
I4
tp234
a(S'p2_ss'
I3
tp235
a(S'p2_lh'
I1
tp236
a(S'p2_cv'
I1
tp237
a(S'p2_vo'
I4
tp238
a(S'w'
I1
tp239
a(S'p2_ll'
I19
tp240
a(S'w'
I7
tp241
a(S'w'
I1
tp242
a(S'tr_tl'
I86
tp243
a(S'tr_ll'
I0
tp244
a(S'w'
I10
tp245
a(S'no_np'
I12
tp246
a(S'w'
I1
tp247
a(S'no_ll'
I5
tp248
a(S'w'
I681
tp249
a(S'w'
I4
tp250
a(S'w'
I6
tp251
a(S'tr_tl'
I85
tp252
a(S'w'
I3
tp253
a(S'w'
I1456
tp254
a(S'p1_vo'
I6
tp255
a(S'p1_tl'
I57
tp256
a(S'w'
I4
tp257
a(S'w'
I7
tp258
a(S'w'
I1451
tp259
a(S'w'
I5
tp260
a(S'p2_vo'
I3
tp261
a(S'w'
I6
tp262
a(S'tr_tl'
I86
tp263
a(S'w'
I3
tp264
a(S'w'
I1454
tp265
a(S'p1_vo'
I5
tp266
a(S'p1_tl'
I58
tp267
a(S'w'
I4
tp268
a(S'w'
I7
tp269
a(S'w'
I1451
tp270
a(S'w'
I5
tp271
a(S'p2_vo'
I2
tp272
a(S'w'
I6
tp273
a(S'tr_tl'
I85
tp274
a(S'w'
I3
tp275
a(S'w'
I1454
tp276
a(S'p1_vo'
I4
tp277
a(S'p1_tl'
I57
tp278
a(S'w'
I4
tp279
a(S'w'
I7
tp280
a(S'w'
I1457
tp281
a(S'p2_vo'
I4
tp282
a(S'p2_tl'
I58
tp283
a(S'p2_ll'
I19
tp284
a(S'p2_th'
I2
tp285
a(S'w'
I727
tp286
a(S'w'
I5
tp287
a(S'p2_tl'
I55
tp288
a(S'w'
I6
tp289
a(S'tr_tl'
I86
tp290
a(S'w'
I3
tp291
a(S'w'
I1454
tp292
a(S'p1_vo'
I3
tp293
a(S'p1_tl'
I58
tp294
a(S'w'
I7
tp295
a(S'p2_vo'
I3
tp296
a(S'p2_tl'
I52
tp297
a(S'w'
I7
tp298
a(S'w'
I1449
tp299
a(S'w'
I5
tp300
a(S'p2_tl'
I55
tp301
a(S'w'
I6
tp302
a(S'tr_tl'
I85
tp303
a(S'w'
I3
tp304
a(S'w'
I1454
tp305
a(S'p1_vo'
I2
tp306
a(S'p1_tl'
I57
tp307
a(S'w'
I6
tp308
a(S'p2_vo'
I2
tp309
a(S'w'
I1
tp310
a(S'p2_tl'
I58
tp311
a(S'w'
I6
tp312
a(S'w'
I1449
tp313
a(S'w'
I5
tp314
a(S'p2_tl'
I61
tp315
a(S'w'
I6
tp316
a(S'tr_tl'
I86
tp317
a(S'w'
I3
tp318
a(S'w'
I720
tp319
a(S'w'
I1
tp320
a(S'p1_vo'
I7
tp321
a(S'p1_tl'
I58
tp322
a(S'p1_ll'
I19
tp323
a(S'w'
I8
tp324
a(S'tr_ll'
I0
tp325
a(S'w'
I7
tp326
a(S'no_np'
I2
tp327
a(S'no_ll'
I5
tp328
a(S'w'
I718
tp329
a(S'p1_vo'
I6
tp330
a(S'p1_tl'
I59
tp331
a(S'w'
I7
tp332
a(S'p2_vo'
I1
tp333
a(S'p2_tl'
I64
tp334
a(S'w'
I7
tp335
a(S'w'
I2181
tp336
a(S'w'
I5
tp337
a(S'p2_tl'
I61
tp338
a(S'w'
I5
tp339
a(S'tr_tl'
I85
tp340
a(S'w'
I3
tp341
a(S'w'
I1455
tp342
a(S'p1_vo'
I5
tp343
a(S'p1_tl'
I58
tp344
a(S'w'
I5
tp345
a(S'p2_tl'
I58
tp346
a(S'w'
I6
tp347
a(S'w'
I721
tp348
a(S'p1_vo'
I7
tp349
a(S'p1_tl'
I166
tp350
a(S'p1_ll'
I19
tp351
a(S'w'
I8
tp352
a(S'tr_tl'
I86
tp353
a(S'tr_ll'
I0
tp354
a(S'w'
I7
tp355
a(S'no_ll'
I5
tp356
a(S'w'
I715
tp357
a(S'w'
I5
tp358
a(S'p2_tl'
I55
tp359
a(S'w'
I5
tp360
a(S'tr_tl'
I87
tp361
a(S'w'
I3
tp362
a(S'w'
I1456
tp363
a(S'p1_vo'
I6
tp364
a(S'p1_tl'
I167
tp365
a(S'w'
I6
tp366
a(S'p2_tl'
I52
tp367
a(S'w'
I6
tp368
a(S'w'
I1450
tp369
a(S'w'
I5
tp370
a(S'p2_tl'
I55
tp371
a(S'w'
I5
tp372
a(S'tr_tl'
I86
tp373
a(S'w'
I3
tp374
a(S'w'
I722
tp375
a(S'p2_vo'
I4
tp376
a(S'p2_tl'
I58
tp377
a(S'w'
I1
tp378
a(S'p2_ll'
I19
tp379
a(S'w'
I731
tp380
a(S'p1_vo'
I7
tp381
a(S'p1_tl'
I86
tp382
a(S'p1_ll'
I19
tp383
a(S'p1_th'
I3
tp384
a(S'w'
I8
tp385
a(S'tr_ll'
I0
tp386
a(S'w'
I7
tp387
a(S'no_ll'
I5
tp388
a(S'w'
I719
tp389
a(S'p1_vo'
I6
tp390
a(S'p1_tl'
I85
tp391
a(S'w'
I5
tp392
a(S'p2_tl'
I61
tp393
a(S'w'
I7
tp394
a(S'w'
I1450
tp395
a(S'w'
I6
tp396
a(S'p2_tl'
I64
tp397
a(S'w'
I5
tp398
a(S'tr_tl'
I87
tp399
a(S'w'
I3
tp400
a(S'w'
I1454
tp401
a(S'p1_vo'
I5
tp402
a(S'p1_tl'
I86
tp403
a(S'w'
I6
tp404
a(S'p2_vo'
I3
tp405
a(S'w'
I1
tp406
a(S'p2_tl'
I61
tp407
a(S'w'
I6
tp408
a(S'w'
I720
tp409
a(S'p2_vo'
I4
tp410
a(S'p2_tl'
I166
tp411
a(S'w'
I1
tp412
a(S'p2_ll'
I19
tp413
a(S'w'
I728
tp414
a(S'w'
I5
tp415
a(S'p2_tl'
I163
tp416
a(S'w'
I6
tp417
a(S'tr_tl'
I86
tp418
a(S'w'
I3
tp419
a(S'w'
I721
tp420
a(S'p1_vo'
I7
tp421
a(S'p1_tl'
I58
tp422
a(S'p1_ll'
I19
tp423
a(S'p1_th'
I2
tp424
a(S'w'
I8
tp425
a(S'tr_ll'
I0
tp426
a(S'w'
I7
tp427
a(S'no_np'
I8
tp428
a(S'no_ll'
I5
tp429
a(S'w'
I718
tp430
a(S'p1_vo'
I6
tp431
a(S'p1_tl'
I57
tp432
a(S'w'
I6
tp433
a(S'p2_tl'
I160
tp434
a(S'w'
I6
tp435
a(S'w'
I1451
tp436
a(S'w'
I6
tp437
a(S'p2_vo'
I3
tp438
a(S'p2_tl'
I163
tp439
a(S'w'
I6
tp440
a(S'tr_tl'
I87
tp441
a(S'w'
I3
tp442
a(S'w'
I1453
tp443
a(S'p2_vo'
I4
tp444
a(S'p2_tl'
I86
tp445
a(S'w'
I1
tp446
a(S'p2_ll'
I19
tp447
a(S'p2_th'
I3
tp448
a(S'w'
I732
tp449
a(S'p1_vo'
I5
tp450
a(S'p1_tl'
I58
tp451
a(S'w'
I5
tp452
a(S'p2_tl'
I89
tp453
a(S'w'
I7
tp454
a(S'w'
I1450
tp455
a(S'w'
I6
tp456
a(S'p2_tl'
I92
tp457
a(S'w'
I5
tp458
a(S'tr_tl'
I86
tp459
a(S'w'
I3
tp460
a(S'w'
I1454
tp461
a(S'p1_vo'
I4
tp462
a(S'p1_tl'
I57
tp463
a(S'w'
I6
tp464
a(S'p2_vo'
I3
tp465
a(S'w'
I1
tp466
a(S'p2_tl'
I89
tp467
a(S'w'
I6
tp468
a(S'w'
I1449
tp469
a(S'w'
I5
tp470
a(S'p2_tl'
I86
tp471
a(S'w'
I6
tp472
a(S'tr_tl'
I87
tp473
a(S'w'
I3
tp474
a(S'w'
I722
tp475
a(S'p2_vo'
I4
tp476
a(S'p2_tl'
I58
tp477
a(S'w'
I1
tp478
a(S'p2_ll'
I19
tp479
a(S'p2_th'
I2
tp480
a(S'w'
I731
tp481
a(S'p1_vo'
I3
tp482
a(S'p1_tl'
I58
tp483
a(S'w'
I5
tp484
a(S'p2_tl'
I55
tp485
a(S'w'
I7
tp486
a(S'w'
I1451
tp487
a(S'w'
I7
tp488
a(S'p2_vo'
I3
tp489
a(S'p2_tl'
I52
tp490
a(S'w'
I5
tp491
a(S'tr_tl'
I86
tp492
a(S'w'
I3
tp493
a(S'w'
I2185
tp494
a(S'p1_vo'
I2
tp495
a(S'p1_tl'
I57
tp496
a(S'w'
I5
tp497
a(S'p2_tl'
I55
tp498
a(S'w'
I7
tp499
a(S'w'
I1451
tp500
a(S'w'
I6
tp501
a(S'p2_vo'
I2
tp502
a(S'p2_tl'
I58
tp503
a(S'w'
I6
tp504
a(S'tr_tl'
I87
tp505
a(S'w'
I3
tp506
a(S'w'
I721
tp507
a(S'tr_tl'
I86
tp508
a(S'w'
I1
tp509
a(S'tr_ll'
I0
tp510
a(S'w'
I6
tp511
a(S'no_np'
I2
tp512
a(S'no_ll'
I5
tp513
a(S'w'
I725
tp514
a(S'p1_vo'
I1
tp515
a(S'p1_tl'
I58
tp516
a(S'w'
I6
tp517
a(S'p2_tl'
I61
tp518
a(S'w'
I6
tp519
a(S'w'
I1449
tp520
a(S'w'
I7
tp521
a(S'p2_vo'
I1
tp522
a(S'p2_tl'
I64
tp523
a(S'w'
I6
tp524
a(S'tr_tl'
I85
tp525
a(S'w'
I3
tp526
a(S'w'
I1451
tp527
a(S'p1_tl'
I57
tp528
a(S'w'
I5
tp529
a(S'p2_tl'
I61
tp530
a(S'w'
I7
tp531
a(S'w'
I1451
tp532
a(S'w'
I5
tp533
a(S'p2_tl'
I58
tp534
a(S'w'
I6
tp535
a(S'tr_tl'
I86
tp536
a(S'w'
I3
tp537
a(S'w'
I725
tp538
a(S'tr_ll'
I0
tp539
a(S'w'
I6
tp540
a(S'no_ll'
I5
tp541
a(S'w'
I1455
tp542
a(S'p1_tl'
I58
tp543
a(S'w'
I5
tp544
a(S'p2_tl'
I55
tp545
a(S'w'
I7
tp546
a(S'w'
I1451
tp547
a(S'w'
I6
tp548
a(S'p2_tl'
I52
tp549
a(S'w'
I5
tp550
a(S'tr_tl'
I85
tp551
a(S'w'
I3
tp552
a(S'w'
I1454
tp553
a(S'p1_tl'
I57
tp554
a(S'w'
I5
tp555
a(S'p2_tl'
I55
tp556
a(S'w'
I7
tp557
a(S'w'
I723
tp558
a(S'tr_tl'
I86
tp559
a(S'w'
I1
tp560
a(S'tr_ll'
I0
tp561
a(S'w'
I6
tp562
a(S'no_ll'
I5
tp563
a(S'w'
I721
tp564
a(S'w'
I5
tp565
a(S'p2_tl'
I58
tp566
a(S'w'
I6
tp567
a(S'tr_tl'
I87
tp568
a(S'w'
I3
tp569
a(S'w'
I1453
tp570
a(S'p1_tl'
I58
tp571
a(S'w'
I5
tp572
a(S'p2_tl'
I61
tp573
a(S'w'
I7
tp574
a(S'w'
I1451
tp575
a(S'w'
I6
tp576
a(S'p2_tl'
I64
tp577
a(S'w'
I5
tp578
a(S'tr_tl'
I86
tp579
a(S'w'
I3
tp580
a(S'w'
I1454
tp581
a(S'p1_vo'
I7
tp582
a(S'p1_tl'
I171
tp583
a(S'p1_ll'
I19
tp584
a(S'p1_th'
I1
tp585
a(S'w'
I10
tp586
a(S'tr_ll'
I0
tp587
a(S'w'
I10
tp588
a(S'no_np'
I12
tp589
a(S'w'
I1
tp590
a(S'no_ll'
I5
tp591
a(S'w'
I712
tp592
a(S'p1_tl'
I170
tp593
a(S'w'
I5
tp594
a(S'p2_tl'
I61
tp595
a(S'w'
I6
tp596
a(S'w'
I1453
tp597
a(S'p1_vo'
I6
tp598
a(S'w'
I5
tp599
a(S'p2_tl'
I58
tp600
a(S'w'
I5
tp601
a(S'tr_tl'
I87
tp602
a(S'w'
I3
tp603
a(S'w'
I1453
tp604
a(S'p1_tl'
I171
tp605
a(S'w'
I5
tp606
a(S'p2_tl'
I55
tp607
a(S'w'
I6
tp608
a(S'w'
I1454
tp609
a(S'p1_vo'
I5
tp610
a(S'w'
I5
tp611
a(S'p2_tl'
I52
tp612
a(S'w'
I6
tp613
a(S'tr_tl'
I86
tp614
a(S'w'
I3
tp615
a(S'w'
I1452
tp616
a(S'p1_tl'
I170
tp617
a(S'w'
I5
tp618
a(S'p2_tl'
I55
tp619
a(S'w'
I6
tp620
a(S'w'
I1453
tp621
a(S'p1_vo'
I4
tp622
a(S'w'
I5
tp623
a(S'p2_tl'
I58
tp624
a(S'w'
I5
tp625
a(S'tr_tl'
I87
tp626
a(S'w'
I3
tp627
a(S'w'
I1454
tp628
a(S'p2_vo'
I4
tp629
a(S'p2_tl'
I171
tp630
a(S'w'
I1
tp631
a(S'p2_ll'
I19
tp632
a(S'p2_th'
I1
tp633
a(S'w'
I731
tp634
a(S'p1_tl'
I171
tp635
a(S'w'
I5
tp636
a(S'p2_tl'
I174
tp637
a(S'w'
I7
tp638
a(S'w'
I1452
tp639
a(S'p1_vo'
I3
tp640
a(S'w'
I6
tp641
a(S'p2_tl'
I177
tp642
a(S'w'
I5
tp643
a(S'tr_tl'
I86
tp644
a(S'w'
I3
tp645
a(S'w'
I1452
tp646
a(S'p1_tl'
I170
tp647
a(S'w'
I6
tp648
a(S'p2_vo'
I3
tp649
a(S'p2_tl'
I174
tp650
a(S'w'
I7
tp651
a(S'w'
I1451
tp652
a(S'p1_vo'
I2
tp653
a(S'w'
I5
tp654
a(S'p2_tl'
I171
tp655
a(S'w'
I6
tp656
a(S'tr_tl'
I87
tp657
a(S'w'
I3
tp658
a(S'w'
I1453
tp659
a(S'p1_tl'
I171
tp660
a(S'w'
I6
tp661
a(S'p2_vo'
I2
tp662
a(S'p2_tl'
I168
tp663
a(S'w'
I7
tp664
a(S'w'
I719
tp665
a(S'p1_vo'
I7
tp666
a(S'p1_tl'
I58
tp667
a(S'p1_ll'
I19
tp668
a(S'p1_th'
I2
tp669
a(S'w'
I8
tp670
a(S'tr_tl'
I86
tp671
a(S'tr_ll'
I0
tp672
a(S'w'
I7
tp673
a(S'no_np'
I2
tp674
a(S'no_ll'
I5
tp675
a(S'w'
I717
tp676
a(S'p1_vo'
I6
tp677
a(S'w'
I6
tp678
a(S'p2_tl'
I165
tp679
a(S'w'
I5
tp680
a(S'tr_tl'
I85
tp681
a(S'w'
I3
tp682
a(S'w'
I2185
tp683
a(S'p1_tl'
I57
tp684
a(S'w'
I6
tp685
a(S'p2_vo'
I1
tp686
a(S'w'
I1
tp687
a(S'p2_tl'
I168
tp688
a(S'w'
I6
tp689
a(S'w'
I1451
tp690
a(S'p1_vo'
I5
tp691
a(S'w'
I5
tp692
a(S'p2_tl'
I171
tp693
a(S'w'
I5
tp694
a(S'tr_tl'
I86
tp695
a(S'w'
I3
tp696
a(S'w'
I723
tp697
a(S'tr_ll'
I0
tp698
a(S'w'
I6
tp699
a(S'no_ll'
I5
tp700
a(S'w'
I724
tp701
a(S'p1_tl'
I58
tp702
a(S'w'
I5
tp703
a(S'p2_tl'
I174
tp704
a(S'w'
I6
tp705
a(S'w'
I1453
tp706
a(S'p1_vo'
I4
tp707
a(S'w'
I5
tp708
a(S'p2_tl'
I177
tp709
a(S'w'
I6
tp710
a(S'tr_tl'
I85
tp711
a(S'w'
I3
tp712
a(S'w'
I1452
tp713
a(S'p1_tl'
I57
tp714
a(S'w'
I5
tp715
a(S'p2_tl'
I174
tp716
a(S'w'
I6
tp717
a(S'w'
I723
tp718
a(S'p2_vo'
I4
tp719
a(S'p2_tl'
I58
tp720
a(S'w'
I1
tp721
a(S'p2_ll'
I19
tp722
a(S'p2_th'
I2
tp723
a(S'w'
I730
tp724
a(S'p1_vo'
I3
tp725
a(S'w'
I5
tp726
a(S'p2_tl'
I55
tp727
a(S'w'
I6
tp728
a(S'tr_tl'
I86
tp729
a(S'w'
I3
tp730
a(S'w'
I722
tp731
a(S'tr_ll'
I0
tp732
a(S'w'
I6
tp733
a(S'no_ll'
I5
tp734
a(S'w'
I1457
tp735
a(S'p1_tl'
I58
tp736
a(S'w'
I6
tp737
a(S'p2_tl'
I52
tp738
a(S'w'
I6
tp739
a(S'w'
I1452
tp740
a(S'p1_vo'
I2
tp741
a(S'w'
I6
tp742
a(S'p2_vo'
I3
tp743
a(S'p2_tl'
I55
tp744
a(S'w'
I6
tp745
a(S'tr_tl'
I85
tp746
a(S'w'
I3
tp747
a(S'w'
I1451
tp748
a(S'p1_tl'
I57
tp749
a(S'w'
I5
tp750
a(S'p2_tl'
I58
tp751
a(S'w'
I7
tp752
a(S'w'
I721
tp753
a(S'p1_vo'
I7
tp754
a(S'p1_tl'
I86
tp755
a(S'p1_ll'
I19
tp756
a(S'p1_th'
I3
tp757
a(S'w'
I8
tp758
a(S'tr_tl'
I86
tp759
a(S'tr_ll'
I0
tp760
a(S'w'
I7
tp761
a(S'no_np'
I8
tp762
a(S'no_ll'
I5
tp763
a(S'w'
I716
tp764
a(S'p1_vo'
I6
tp765
a(S'w'
I6
tp766
a(S'p2_vo'
I2
tp767
a(S'p2_tl'
I61
tp768
a(S'w'
I6
tp769
a(S'tr_tl'
I87
tp770
a(S'w'
I3
tp771
a(S'w'
I1451
tp772
a(S'p1_tl'
I87
tp773
a(S'w'
I6
tp774
a(S'p2_tl'
I64
tp775
a(S'w'
I6
tp776
a(S'w'
I1453
tp777
a(S'p1_vo'
I5
tp778
a(S'w'
I6
tp779
a(S'p2_vo'
I1
tp780
a(S'w'
I1
tp781
a(S'p2_tl'
I61
tp782
a(S'w'
I5
tp783
a(S'tr_tl'
I86
tp784
a(S'w'
I3
tp785
a(S'w'
I2183
tp786
a(S'p1_tl'
I86
tp787
a(S'w'
I5
tp788
a(S'p2_tl'
I58
tp789
a(S'w'
I6
tp790
a(S'w'
I1454
tp791
a(S'p1_vo'
I4
tp792
a(S'w'
I5
tp793
a(S'p2_tl'
I55
tp794
a(S'w'
I5
tp795
a(S'tr_tl'
I87
tp796
a(S'w'
I3
tp797
a(S'w'
I1453
tp798
a(S'p1_tl'
I87
tp799
a(S'w'
I5
tp800
a(S'p2_tl'
I52
tp801
a(S'w'
I7
tp802
a(S'w'
I721
tp803
a(S'p2_vo'
I4
tp804
a(S'p2_tl'
I86
tp805
a(S'w'
I1
tp806
a(S'p2_ll'
I19
tp807
a(S'p2_th'
I3
tp808
a(S'w'
I730
tp809
a(S'p1_vo'
I3
tp810
a(S'w'
I5
tp811
a(S'p2_tl'
I89
tp812
a(S'w'
I6
tp813
a(S'tr_tl'
I86
tp814
a(S'w'
I3
tp815
a(S'w'
I1452
tp816
a(S'p1_tl'
I86
tp817
a(S'w'
I6
tp818
a(S'p2_tl'
I92
tp819
a(S'w'
I6
tp820
a(S'w'
I1452
tp821
a(S'p1_vo'
I2
tp822
a(S'w'
I6
tp823
a(S'p2_vo'
I3
tp824
a(S'p2_tl'
I89
tp825
a(S'w'
I6
tp826
a(S'tr_tl'
I87
tp827
a(S'w'
I3
tp828
a(S'w'
I2184
tp829
a(S'p1_tl'
I87
tp830
a(S'w'
I5
tp831
a(S'p2_tl'
I86
tp832
a(S'w'
I7
tp833
a(S'w'
I723
tp834
a(S'tr_tl'
I86
tp835
a(S'w'
I1
tp836
a(S'tr_ll'
I0
tp837
a(S'w'
I6
tp838
a(S'no_np'
I2
tp839
a(S'no_ll'
I5
tp840
a(S'w'
I722
tp841
a(S'p1_vo'
I1
tp842
a(S'w'
I6
tp843
a(S'p2_vo'
I2
tp844
a(S'w'
I1
tp845
a(S'p2_tl'
I83
tp846
a(S'w'
I5
tp847
a(S'tr_tl'
I85
tp848
a(S'w'
I3
tp849
a(S'w'
I1451
tp850
a(S'p1_tl'
I86
tp851
a(S'w'
I6
tp852
a(S'p2_tl'
I80
tp853
a(S'w'
I7
tp854
a(S'w'
I1450
tp855
a(S'w'
I7
tp856
a(S'p2_vo'
I1
tp857
a(S'p2_tl'
I83
tp858
a(S'w'
I5
tp859
a(S'tr_tl'
I86
tp860
a(S'w'
I3
tp861
a(S'w'
I1452
tp862
a(S'p1_tl'
I87
tp863
a(S'w'
I5
tp864
a(S'p2_tl'
I86
tp865
a(S'w'
I7
tp866
a(S'w'
I725
tp867
a(S'tr_ll'
I0
tp868
a(S'w'
I6
tp869
a(S'no_ll'
I5
tp870
a(S'w'
I1453
tp871
a(S'w'
I5
tp872
a(S'p2_tl'
I89
tp873
a(S'w'
I6
tp874
a(S'tr_tl'
I85
tp875
a(S'w'
I3
tp876
a(S'w'
I1453
tp877
a(S'p1_tl'
I86
tp878
a(S'w'
I6
tp879
a(S'p2_tl'
I92
tp880
a(S'w'
I6
tp881
a(S'w'
I1451
tp882
a(S'w'
I5
tp883
a(S'p2_tl'
I89
tp884
a(S'w'
I6
tp885
a(S'tr_tl'
I86
tp886
a(S'w'
I3
tp887
a(S'w'
I725
tp888
a(S'tr_ll'
I0
tp889
a(S'w'
I6
tp890
a(S'no_ll'
I5
tp891
a(S'w'
I722
tp892
a(S'p1_tl'
I87
tp893
a(S'w'
I5
tp894
a(S'p2_tl'
I86
tp895
a(S'w'
I7
tp896
a(S'w'
I1452
tp897
a(S'w'
I5
tp898
a(S'p2_tl'
I83
tp899
a(S'w'
I6
tp900
a(S'tr_tl'
I85
tp901
a(S'w'
I3
tp902
a(S'w'
I1453
tp903
a(S'p1_tl'
I86
tp904
a(S'w'
I6
tp905
a(S'p2_tl'
I80
tp906
a(S'w'
I6
tp907
a(S'w'
I1454
tp908
a(S'p1_vo'
I7
tp909
a(S'p1_tl'
I252
tp910
a(S'p1_ll'
I19
tp911
a(S'p1_th'
I1
tp912
a(S'w'
I10
tp913
a(S'tr_tl'
I86
tp914
a(S'tr_ll'
I0
tp915
a(S'w'
I10
tp916
a(S'no_np'
I12
tp917
a(S'w'
I1
tp918
a(S'no_ll'
I5
tp919
a(S'w'
I710
tp920
a(S'w'
I5
tp921
a(S'p2_tl'
I83
tp922
a(S'w'
I5
tp923
a(S'tr_tl'
I87
tp924
a(S'w'
I3
tp925
a(S'w'
I1455
tp926
a(S'p1_vo'
I6
tp927
a(S'p1_tl'
I253
tp928
a(S'w'
I5
tp929
a(S'p2_tl'
I86
tp930
a(S'w'
I6
tp931
a(S'w'
I1451
tp932
a(S'w'
I5
tp933
a(S'p2_tl'
I89
tp934
a(S'w'
I5
tp935
a(S'tr_tl'
I86
tp936
a(S'w'
I3
tp937
a(S'w'
I1455
tp938
a(S'p1_vo'
I5
tp939
a(S'p1_tl'
I252
tp940
a(S'w'
I6
tp941
a(S'p2_tl'
I92
tp942
a(S'w'
I6
tp943
a(S'w'
I1450
tp944
a(S'w'
I5
tp945
a(S'p2_tl'
I89
tp946
a(S'w'
I5
tp947
a(S'tr_tl'
I87
tp948
a(S'w'
I3
tp949
a(S'w'
I1456
tp950
a(S'p1_vo'
I4
tp951
a(S'p1_tl'
I253
tp952
a(S'w'
I5
tp953
a(S'p2_tl'
I86
tp954
a(S'w'
I6
tp955
a(S'w'
I1454
tp956
a(S'p2_vo'
I4
tp957
a(S'p2_tl'
I252
tp958
a(S'w'
I1
tp959
a(S'p2_ll'
I19
tp960
a(S'p2_th'
I1
tp961
a(S'w'
I728
tp962
a(S'w'
I5
tp963
a(S'p2_tl'
I249
tp964
a(S'w'
I6
tp965
a(S'tr_tl'
I86
tp966
a(S'w'
I3
tp967
a(S'w'
I1455
tp968
a(S'p1_vo'
I3
tp969
a(S'p1_tl'
I252
tp970
a(S'w'
I6
tp971
a(S'p2_tl'
I246
tp972
a(S'w'
I6
tp973
a(S'w'
I1450
tp974
a(S'w'
I6
tp975
a(S'p2_vo'
I3
tp976
a(S'p2_tl'
I249
tp977
a(S'w'
I6
tp978
a(S'tr_tl'
I87
tp979
a(S'w'
I3
tp980
a(S'w'
I1453
tp981
a(S'p1_vo'
I2
tp982
a(S'p1_tl'
I253
tp983
a(S'w'
I5
tp984
a(S'p2_tl'
I252
tp985
a(S'w'
I7
tp986
a(S'w'
I1450
tp987
a(S'w'
I6
tp988
a(S'p2_vo'
I2
tp989
a(S'p2_tl'
I255
tp990
a(S'w'
I6
tp991
a(S'tr_tl'
I86
tp992
a(S'w'
I3
tp993
a(S'w'
I720
tp994
a(S'p1_vo'
I7
tp995
a(S'p1_tl'
I252
tp996
a(S'p1_ll'
I19
tp997
a(S'w'
I8
tp998
a(S'tr_ll'
I0
tp999
a(S'w'
I7
tp1000
a(S'no_np'
I2
tp1001
a(S'no_ll'
I5
tp1002
a(S'w'
I719
tp1003
a(S'p1_vo'
I6
tp1004
a(S'p1_tl'
I251
tp1005
a(S'w'
I6
tp1006
a(S'p2_tl'
I2
tp1007
a(S'p2_ll'
I19
tp1008
a(S'p2_th'
I2
tp1009
a(S'w'
I7
tp1010
a(S'w'
I2181
tp1011
a(S'w'
I6
tp1012
a(S'p2_vo'
I1
tp1013
a(S'p2_tl'
I255
tp1014
a(S'w'
I1
tp1015
a(S'p2_ll'
I19
tp1016
a(S'p2_th'
I1
tp1017
a(S'w'
I5
tp1018
a(S'tr_tl'
I87
tp1019
a(S'w'
I3
tp1020
a(S'w'
I1454
tp1021
a(S'p1_vo'
I5
tp1022
a(S'p1_tl'
I252
tp1023
a(S'w'
I5
tp1024
a(S'p2_tl'
I252
tp1025
a(S'w'
I6
tp1026
a(S'w'
I720
tp1027
a(S'p1_vo'
I7
tp1028
a(S'p1_tl'
I128
tp1029
a(S'p1_ll'
I19
tp1030
a(S'p1_th'
I2
tp1031
a(S'w'
I8
tp1032
a(S'tr_tl'
I86
tp1033
a(S'tr_ll'
I0
tp1034
a(S'w'
I7
tp1035
a(S'no_ll'
I5
tp1036
a(S'w'
I716
tp1037
a(S'w'
I5
tp1038
a(S'p2_tl'
I249
tp1039
a(S'w'
I5
tp1040
a(S'tr_tl'
I85
tp1041
a(S'w'
I3
tp1042
a(S'w'
I1455
tp1043
a(S'p1_vo'
I6
tp1044
a(S'p1_tl'
I127
tp1045
a(S'w'
I6
tp1046
a(S'p2_tl'
I246
tp1047
a(S'w'
I6
tp1048
a(S'w'
I1450
tp1049
a(S'w'
I5
tp1050
a(S'p2_tl'
I249
tp1051
a(S'w'
I5
tp1052
a(S'tr_tl'
I86
tp1053
a(S'w'
I3
tp1054
a(S'w'
I723
tp1055
a(S'p2_vo'
I4
tp1056
a(S'p2_tl'
I252
tp1057
a(S'w'
I1
tp1058
a(S'p2_ll'
I19
tp1059
a(S'w'
I731
tp1060
a(S'p1_vo'
I5
tp1061
a(S'p1_tl'
I128
tp1062
a(S'w'
I5
tp1063
a(S'p2_tl'
I255
tp1064
a(S'w'
I7
tp1065
a(S'w'
I720
tp1066
a(S'p1_vo'
I7
tp1067
a(S'p1_tl'
I86
tp1068
a(S'p1_ll'
I19
tp1069
a(S'p1_th'
I3
tp1070
a(S'w'
I8
tp1071
a(S'tr_ll'
I0
tp1072
a(S'w'
I7
tp1073
a(S'no_ll'
I5
tp1074
a(S'w'
I1448
tp1075
a(S'w'
I6
tp1076
a(S'p2_tl'
I2
tp1077
a(S'p2_ll'
I19
tp1078
a(S'p2_th'
I2
tp1079
a(S'w'
I5
tp1080
a(S'tr_tl'
I85
tp1081
a(S'w'
I3
tp1082
a(S'w'
I1454
tp1083
a(S'p1_vo'
I6
tp1084
a(S'p1_tl'
I85
tp1085
a(S'w'
I6
tp1086
a(S'p2_vo'
I3
tp1087
a(S'w'
I1
tp1088
a(S'p2_tl'
I255
tp1089
a(S'p2_ll'
I19
tp1090
a(S'p2_th'
I1
tp1091
a(S'w'
I6
tp1092
a(S'w'
I720
tp1093
a(S'p2_vo'
I4
tp1094
a(S'p2_tl'
I128
tp1095
a(S'w'
I1
tp1096
a(S'p2_ll'
I19
tp1097
a(S'p2_th'
I2
tp1098
a(S'w'
I729
tp1099
a(S'w'
I5
tp1100
a(S'p2_tl'
I125
tp1101
a(S'w'
I6
tp1102
a(S'tr_tl'
I86
tp1103
a(S'w'
I3
tp1104
a(S'w'
I720
tp1105
a(S'p1_vo'
I7
tp1106
a(S'p1_tl'
I252
tp1107
a(S'p1_ll'
I19
tp1108
a(S'p1_th'
I1
tp1109
a(S'w'
I8
tp1110
a(S'tr_ll'
I0
tp1111
a(S'w'
I7
tp1112
a(S'no_np'
I8
tp1113
a(S'no_ll'
I5
tp1114
a(S'w'
I719
tp1115
a(S'p1_vo'
I6
tp1116
a(S'p1_tl'
I253
tp1117
a(S'w'
I6
tp1118
a(S'p2_tl'
I122
tp1119
a(S'w'
I6
tp1120
a(S'w'
I1450
tp1121
a(S'w'
I6
tp1122
a(S'p2_vo'
I3
tp1123
a(S'p2_tl'
I125
tp1124
a(S'w'
I6
tp1125
a(S'tr_tl'
I85
tp1126
a(S'w'
I3
tp1127
a(S'w'
I1453
tp1128
a(S'p1_vo'
I5
tp1129
a(S'p1_tl'
I252
tp1130
a(S'w'
I5
tp1131
a(S'p2_tl'
I128
tp1132
a(S'w'
I7
tp1133
a(S'w'
I721
tp1134
a(S'p2_vo'
I4
tp1135
a(S'p2_tl'
I86
tp1136
a(S'w'
I1
tp1137
a(S'p2_ll'
I19
tp1138
a(S'p2_th'
I3
tp1139
a(S'w'
I1461
tp1140
a(S'w'
I5
tp1141
a(S'p2_tl'
I89
tp1142
a(S'w'
I6
tp1143
a(S'tr_tl'
I86
tp1144
a(S'w'
I3
tp1145
a(S'w'
I1454
tp1146
a(S'p1_vo'
I4
tp1147
a(S'p1_tl'
I253
tp1148
a(S'w'
I7
tp1149
a(S'p2_vo'
I3
tp1150
a(S'p2_tl'
I92
tp1151
a(S'w'
I7
tp1152
a(S'w'
I1448
tp1153
a(S'w'
I5
tp1154
a(S'p2_tl'
I89
tp1155
a(S'w'
I6
tp1156
a(S'tr_tl'
I85
tp1157
a(S'w'
I3
tp1158
a(S'w'
I722
tp1159
a(S'p2_vo'
I4
tp1160
a(S'p2_tl'
I252
tp1161
a(S'w'
I1
tp1162
a(S'p2_ll'
I19
tp1163
a(S'p2_th'
I1
tp1164
a(S'w'
I732
tp1165
a(S'p1_vo'
I3
tp1166
a(S'p1_tl'
I252
tp1167
a(S'w'
I5
tp1168
a(S'p2_tl'
I249
tp1169
a(S'w'
I7
tp1170
a(S'w'
I1450
tp1171
a(S'w'
I7
tp1172
a(S'p2_vo'
I3
tp1173
a(S'p2_tl'
I246
tp1174
a(S'w'
I5
tp1175
a(S'tr_tl'
I86
tp1176
a(S'w'
I3
tp1177
a(S'w'
I1453
tp1178
a(S'p1_vo'
I2
tp1179
a(S'p1_tl'
I253
tp1180
a(S'w'
I5
tp1181
a(S'p2_tl'
I249
tp1182
a(S'w'
I7
tp1183
a(S'w'
I2183
tp1184
a(S'w'
I6
tp1185
a(S'p2_vo'
I2
tp1186
a(S'p2_tl'
I252
tp1187
a(S'w'
I6
tp1188
a(S'tr_tl'
I85
tp1189
a(S'w'
I3
tp1190
a(S'w'
I721
tp1191
a(S'tr_tl'
I86
tp1192
a(S'w'
I1
tp1193
a(S'tr_ll'
I0
tp1194
a(S'w'
I6
tp1195
a(S'no_np'
I2
tp1196
a(S'no_ll'
I5
tp1197
a(S'w'
I725
tp1198
a(S'p1_vo'
I1
tp1199
a(S'p1_tl'
I252
tp1200
a(S'w'
I6
tp1201
a(S'p2_tl'
I255
tp1202
a(S'w'
I6
tp1203
a(S'w'
I1449
tp1204
a(S'w'
I7
tp1205
a(S'p2_vo'
I1
tp1206
a(S'p2_tl'
I2
tp1207
a(S'w'
I1
tp1208
a(S'p2_ll'
I19
tp1209
a(S'p2_th'
I2
tp1210
a(S'w'
I5
tp1211
a(S'tr_tl'
I87
tp1212
a(S'w'
I3
tp1213
a(S'w'
I1451
tp1214
a(S'p1_tl'
I253
tp1215
a(S'w'
I5
tp1216
a(S'p2_tl'
I255
tp1217
a(S'w'
I1
tp1218
a(S'p2_ll'
I19
tp1219
a(S'p2_th'
I1
tp1220
a(S'w'
I6
tp1221
a(S'w'
I1452
tp1222
a(S'w'
I5
tp1223
a(S'p2_tl'
I252
tp1224
a(S'w'
I6
tp1225
a(S'tr_tl'
I86
tp1226
a(S'w'
I3
tp1227
a(S'w'
I724
tp1228
a(S'tr_ll'
I0
tp1229
a(S'w'
I6
tp1230
a(S'no_ll'
I5
tp1231
a(S'w'
I723
tp1232
a(S'p1_tl'
I252
tp1233
a(S'w'
I5
tp1234
a(S'p2_tl'
I249
tp1235
a(S'w'
I7
tp1236
a(S'w'
I2184
tp1237
a(S'w'
I6
tp1238
a(S'p2_tl'
I246
tp1239
a(S'w'
I5
tp1240
a(S'tr_tl'
I87
tp1241
a(S'w'
I3
tp1242
a(S'w'
I1453
tp1243
a(S'p1_tl'
I253
tp1244
a(S'w'
I5
tp1245
a(S'p2_tl'
I249
tp1246
a(S'w'
I7
tp1247
a(S'w'
I723
tp1248
a(S'tr_tl'
I86
tp1249
a(S'w'
I1
tp1250
a(S'tr_ll'
I0
tp1251
a(S'w'
I6
tp1252
a(S'no_ll'
I5
tp1253
a(S'w'
I721
tp1254
a(S'w'
I5
tp1255
a(S'p2_tl'
I252
tp1256
a(S'w'
I6
tp1257
a(S'tr_tl'
I85
tp1258
a(S'w'
I3
tp1259
a(S'w'
I1453
tp1260
a(S'p1_tl'
I252
tp1261
a(S'w'
I5
tp1262
a(S'p2_tl'
I255
tp1263
a(S'w'
I7
tp1264
a(S'w'
I1451
tp1265
a(S'w'
I6
tp1266
a(S'p2_tl'
I2
tp1267
a(S'p2_ll'
I19
tp1268
a(S'p2_th'
I2
tp1269
a(S'w'
I5
tp1270
a(S'tr_tl'
I86
tp1271
a(S'w'
I3
tp1272
a(S'w'
I1454
tp1273
a(S'p1_tl'
I253
tp1274
a(S'w'
I5
tp1275
a(S'p2_tl'
I255
tp1276
a(S'w'
I1
tp1277
a(S'p2_ll'
I19
tp1278
a(S'p2_th'
I1
tp1279
a(S'w'
I6
tp1280
a(S'w'
I721
tp1281
a(S'p1_vo'
I7
tp1282
a(S'p1_tl'
I63
tp1283
a(S'p1_ll'
I19
tp1284
a(S'w'
I10
tp1285
a(S'tr_ll'
I0
tp1286
a(S'w'
I10
tp1287
a(S'no_np'
I12
tp1288
a(S'w'
I1
tp1289
a(S'no_ll'
I5
tp1290
a(S'w'
I1443
tp1291
a(S'w'
I5
tp1292
a(S'p2_tl'
I252
tp1293
a(S'w'
I5
tp1294
a(S'tr_tl'
I85
tp1295
a(S'w'
I3
tp1296
a(S'w'
I1455
tp1297
a(S'p1_vo'
I6
tp1298
a(S'p1_tl'
I62
tp1299
a(S'w'
I5
tp1300
a(S'p2_tl'
I249
tp1301
a(S'w'
I6
tp1302
a(S'w'
I1451
tp1303
a(S'w'
I5
tp1304
a(S'p2_tl'
I246
tp1305
a(S'w'
I6
tp1306
a(S'tr_tl'
I86
tp1307
a(S'w'
I3
tp1308
a(S'w'
I1454
tp1309
a(S'p1_vo'
I5
tp1310
a(S'p1_tl'
I63
tp1311
a(S'w'
I5
tp1312
a(S'p2_tl'
I249
tp1313
a(S'w'
I6
tp1314
a(S'w'
I1451
tp1315
a(S'w'
I5
tp1316
a(S'p2_tl'
I252
tp1317
a(S'w'
I5
tp1318
a(S'tr_tl'
I85
tp1319
a(S'w'
I3
tp1320
a(S'w'
I1456
tp1321
a(S'p1_vo'
I4
tp1322
a(S'p1_tl'
I62
tp1323
a(S'w'
I5
tp1324
a(S'p2_tl'
I255
tp1325
a(S'w'
I6
tp1326
a(S'w'
I721
tp1327
a(S'p2_vo'
I4
tp1328
a(S'p2_tl'
I63
tp1329
a(S'w'
I1
tp1330
a(S'p2_ll'
I19
tp1331
a(S'w'
I1461
tp1332
a(S'w'
I5
tp1333
a(S'p2_tl'
I66
tp1334
a(S'w'
I6
tp1335
a(S'tr_tl'
I86
tp1336
a(S'w'
I3
tp1337
a(S'w'
I1455
tp1338
a(S'p1_vo'
I3
tp1339
a(S'p1_tl'
I63
tp1340
a(S'w'
I6
tp1341
a(S'p2_tl'
I69
tp1342
a(S'w'
I6
tp1343
a(S'w'
I1450
tp1344
a(S'w'
I6
tp1345
a(S'p2_vo'
I3
tp1346
a(S'p2_tl'
I66
tp1347
a(S'w'
I6
tp1348
a(S'tr_tl'
I85
tp1349
a(S'w'
I3
tp1350
a(S'w'
I1453
tp1351
a(S'p1_vo'
I2
tp1352
a(S'p1_tl'
I62
tp1353
a(S'w'
I5
tp1354
a(S'p2_tl'
I63
tp1355
a(S'w'
I7
tp1356
a(S'w'
I720
tp1357
a(S'p1_vo'
I7
tp1358
a(S'p1_tl'
I171
tp1359
a(S'p1_ll'
I19
tp1360
a(S'w'
I8
tp1361
a(S'tr_tl'
I86
tp1362
a(S'tr_ll'
I0
tp1363
a(S'w'
I7
tp1364
a(S'no_np'
I2
tp1365
a(S'no_ll'
I5
tp1366
a(S'w'
I715
tp1367
a(S'w'
I6
tp1368
a(S'p2_vo'
I2
tp1369
a(S'p2_tl'
I60
tp1370
a(S'w'
I6
tp1371
a(S'tr_tl'
I87
tp1372
a(S'w'
I3
tp1373
a(S'w'
I2186
tp1374
a(S'p1_vo'
I6
tp1375
a(S'p1_tl'
I172
tp1376
a(S'w'
I6
tp1377
a(S'p2_tl'
I57
tp1378
a(S'w'
I6
tp1379
a(S'w'
I1450
tp1380
a(S'w'
I6
tp1381
a(S'p2_vo'
I1
tp1382
a(S'p2_tl'
I60
tp1383
a(S'w'
I6
tp1384
a(S'tr_tl'
I86
tp1385
a(S'w'
I3
tp1386
a(S'w'
I723
tp1387
a(S'tr_ll'
I0
tp1388
a(S'w'
I6
tp1389
a(S'no_ll'
I5
tp1390
a(S'w'
I724
tp1391
a(S'p1_vo'
I5
tp1392
a(S'p1_tl'
I171
tp1393
a(S'w'
I5
tp1394
a(S'p2_tl'
I63
tp1395
a(S'w'
I6
tp1396
a(S'w'
I1452
tp1397
a(S'w'
I5
tp1398
a(S'p2_tl'
I66
tp1399
a(S'w'
I5
tp1400
a(S'tr_tl'
I87
tp1401
a(S'w'
I3
tp1402
a(S'w'
I1455
tp1403
a(S'p1_vo'
I4
tp1404
a(S'p1_tl'
I172
tp1405
a(S'w'
I6
tp1406
a(S'p2_tl'
I69
tp1407
a(S'w'
I6
tp1408
a(S'w'
I720
tp1409
a(S'p2_vo'
I4
tp1410
a(S'p2_tl'
I171
tp1411
a(S'w'
I1
tp1412
a(S'p2_ll'
I19
tp1413
a(S'w'
I729
tp1414
a(S'w'
I5
tp1415
a(S'p2_tl'
I168
tp1416
a(S'w'
I6
tp1417
a(S'tr_tl'
I86
tp1418
a(S'w'
I3
tp1419
a(S'w'
I724
tp1420
a(S'tr_ll'
I0
tp1421
a(S'w'
I6
tp1422
a(S'no_ll'
I5
tp1423
a(S'w'
I1457
tp1424
a(S'p1_vo'
I3
tp1425
a(S'p1_tl'
I171
tp1426
a(S'w'
I6
tp1427
a(S'p2_tl'
I165
tp1428
a(S'w'
I6
tp1429
a(S'w'
I1450
tp1430
a(S'w'
I6
tp1431
a(S'p2_vo'
I3
tp1432
a(S'p2_tl'
I168
tp1433
a(S'w'
I6
tp1434
a(S'tr_tl'
I87
tp1435
a(S'w'
I3
tp1436
a(S'w'
I1453
tp1437
a(S'p1_vo'
I2
tp1438
a(S'p1_tl'
I172
tp1439
a(S'w'
I5
tp1440
a(S'p2_tl'
I171
tp1441
a(S'w'
I7
tp1442
a(S'w'
I720
tp1443
a(S'p1_vo'
I7
tp1444
a(S'p1_tl'
I128
tp1445
a(S'p1_ll'
I19
tp1446
a(S'p1_th'
I2
tp1447
a(S'w'
I8
tp1448
a(S'tr_tl'
I86
tp1449
a(S'tr_ll'
I0
tp1450
a(S'w'
I7
tp1451
a(S'no_np'
I8
tp1452
a(S'no_ll'
I5
tp1453
a(S'w'
I715
tp1454
a(S'w'
I6
tp1455
a(S'p2_vo'
I2
tp1456
a(S'p2_tl'
I174
tp1457
a(S'w'
I6
tp1458
a(S'tr_tl'
I85
tp1459
a(S'w'
I3
tp1460
a(S'w'
I1454
tp1461
a(S'p1_vo'
I6
tp1462
a(S'p1_tl'
I127
tp1463
a(S'w'
I6
tp1464
a(S'p2_tl'
I177
tp1465
a(S'w'
I6
tp1466
a(S'w'
I1450
tp1467
a(S'w'
I6
tp1468
a(S'p2_vo'
I1
tp1469
a(S'p2_tl'
I174
tp1470
a(S'w'
I6
tp1471
a(S'tr_tl'
I86
tp1472
a(S'w'
I3
tp1473
a(S'w'
I2186
tp1474
a(S'p1_vo'
I5
tp1475
a(S'p1_tl'
I128
tp1476
a(S'w'
I5
tp1477
a(S'p2_tl'
I171
tp1478
a(S'w'
I6
tp1479
a(S'w'
I1451
tp1480
a(S'w'
I5
tp1481
a(S'p2_tl'
I168
tp1482
a(S'w'
I5
tp1483
a(S'tr_tl'
I85
tp1484
a(S'w'
I3
tp1485
a(S'w'
I1455
tp1486
a(S'p1_vo'
I4
tp1487
a(S'p1_tl'
I127
tp1488
a(S'w'
I6
tp1489
a(S'p2_tl'
I165
tp1490
a(S'w'
I6
tp1491
a(S'w'
I721
tp1492
a(S'p2_vo'
I4
tp1493
a(S'p2_tl'
I128
tp1494
a(S'w'
I1
tp1495
a(S'p2_ll'
I19
tp1496
a(S'p2_th'
I2
tp1497
a(S'w'
I728
tp1498
a(S'w'
I5
tp1499
a(S'p2_tl'
I131
tp1500
a(S'w'
I6
tp1501
a(S'tr_tl'
I86
tp1502
a(S'w'
I3
tp1503
a(S'w'
I1454
tp1504
a(S'p1_vo'
I3
tp1505
a(S'p1_tl'
I128
tp1506
a(S'w'
I6
tp1507
a(S'p2_tl'
I134
tp1508
a(S'w'
I6
tp1509
a(S'w'
I1451
tp1510
a(S'w'
I6
tp1511
a(S'p2_vo'
I3
tp1512
a(S'p2_tl'
I131
tp1513
a(S'w'
I6
tp1514
a(S'tr_tl'
I85
tp1515
a(S'w'
I3
tp1516
a(S'w'
I2185
tp1517
a(S'p1_vo'
I2
tp1518
a(S'p1_tl'
I127
tp1519
a(S'w'
I5
tp1520
a(S'p2_tl'
I128
tp1521
a(S'w'
I7
tp1522
a(S'w'
I722
tp1523
a(S'tr_tl'
I86
tp1524
a(S'w'
I1
tp1525
a(S'tr_ll'
I0
tp1526
a(S'w'
I6
tp1527
a(S'no_np'
I2
tp1528
a(S'no_ll'
I5
tp1529
a(S'w'
I722
tp1530
a(S'w'
I6
tp1531
a(S'p2_vo'
I2
tp1532
a(S'p2_tl'
I125
tp1533
a(S'w'
I6
tp1534
a(S'tr_tl'
I87
tp1535
a(S'w'
I3
tp1536
a(S'w'
I1453
tp1537
a(S'p1_vo'
I1
tp1538
a(S'p1_tl'
I128
tp1539
a(S'w'
I6
tp1540
a(S'p2_tl'
I122
tp1541
a(S'w'
I7
tp1542
a(S'w'
I1448
tp1543
a(S'w'
I7
tp1544
a(S'p2_vo'
I1
tp1545
a(S'p2_tl'
I125
tp1546
a(S'w'
I5
tp1547
a(S'tr_tl'
I86
tp1548
a(S'w'
I3
tp1549
a(S'w'
I1452
tp1550
a(S'p1_tl'
I127
tp1551
a(S'w'
I5
tp1552
a(S'p2_tl'
I128
tp1553
a(S'w'
I7
tp1554
a(S'w'
I725
tp1555
a(S'tr_ll'
I0
tp1556
a(S'w'
I6
tp1557
a(S'no_ll'
I5
tp1558
a(S'w'
I721
tp1559
a(S'w'
I5
tp1560
a(S'p2_tl'
I131
tp1561
a(S'w'
I6
tp1562
a(S'tr_tl'
I87
tp1563
a(S'w'
I3
tp1564
a(S'w'
I2185
tp1565
a(S'p1_tl'
I128
tp1566
a(S'w'
I6
tp1567
a(S'p2_tl'
I134
tp1568
a(S'w'
I6
tp1569
a(S'w'
I1452
tp1570
a(S'w'
I5
tp1571
a(S'p2_tl'
I131
tp1572
a(S'w'
I6
tp1573
a(S'tr_tl'
I86
tp1574
a(S'w'
I3
tp1575
a(S'w'
I724
tp1576
a(S'tr_ll'
I0
tp1577
a(S'w'
I6
tp1578
a(S'no_ll'
I5
tp1579
a(S'w'
I723
tp1580
a(S'p1_tl'
I127
tp1581
a(S'w'
I5
tp1582
a(S'p2_tl'
I128
tp1583
a(S'w'
I7
tp1584
a(S'w'
I1451
tp1585
a(S'w'
I5
tp1586
a(S'p2_tl'
I125
tp1587
a(S'w'
I6
tp1588
a(S'tr_tl'
I87
tp1589
a(S'w'
I3
tp1590
a(S'w'
I1453
tp1591
a(S'p1_tl'
I128
tp1592
a(S'w'
I6
tp1593
a(S'p2_tl'
I122
tp1594
a(S'w'
I6
tp1595
a(S'w'
I1451
tp1596
a(S'w'
I5
tp1597
a(S'p2_tl'
I125
tp1598
a(S'w'
I6
tp1599
a(S'tr_tl'
I86
tp1600
a(S'w'
I3
tp1601
a(S'w'
I722
tp1602
a(S'p1_vo'
I7
tp1603
a(S'p1_tl'
I196
tp1604
a(S'p1_ll'
I19
tp1605
a(S'p1_th'
I1
tp1606
a(S'w'
I10
tp1607
a(S'tr_ll'
I0
tp1608
a(S'w'
I10
tp1609
a(S'no_np'
I12
tp1610
a(S'w'
I1
tp1611
a(S'no_ll'
I5
tp1612
a(S'w'
I1444
tp1613
a(S'p1_tl'
I195
tp1614
a(S'w'
I5
tp1615
a(S'p2_tl'
I128
tp1616
a(S'w'
I6
tp1617
a(S'w'
I1453
tp1618
a(S'p1_vo'
I6
tp1619
a(S'w'
I5
tp1620
a(S'p2_tl'
I131
tp1621
a(S'w'
I5
tp1622
a(S'tr_tl'
I87
tp1623
a(S'w'
I3
tp1624
a(S'w'
I1454
tp1625
a(S'p1_tl'
I196
tp1626
a(S'w'
I5
tp1627
a(S'p2_tl'
I134
tp1628
a(S'w'
I7
tp1629
a(S'w'
I1452
tp1630
a(S'p1_vo'
I5
tp1631
a(S'w'
I5
tp1632
a(S'p2_tl'
I131
tp1633
a(S'w'
I5
tp1634
a(S'tr_tl'
I86
tp1635
a(S'w'
I3
tp1636
a(S'w'
I1453
tp1637
a(S'p1_tl'
I195
tp1638
a(S'w'
I5
tp1639
a(S'p2_tl'
I128
tp1640
a(S'w'
I6
tp1641
a(S'w'
I1453
tp1642
a(S'p1_vo'
I4
tp1643
a(S'w'
I5
tp1644
a(S'p2_tl'
I125
tp1645
a(S'w'
I5
tp1646
a(S'tr_tl'
I87
tp1647
a(S'w'
I3
tp1648
a(S'w'
I722
tp1649
a(S'p2_vo'
I4
tp1650
a(S'p2_tl'
I196
tp1651
a(S'w'
I1
tp1652
a(S'p2_ll'
I19
tp1653
a(S'p2_th'
I1
tp1654
a(S'w'
I1463
tp1655
a(S'p1_tl'
I196
tp1656
a(S'w'
I5
tp1657
a(S'p2_tl'
I193
tp1658
a(S'w'
I7
tp1659
a(S'w'
I1452
tp1660
a(S'p1_vo'
I3
tp1661
a(S'w'
I6
tp1662
a(S'p2_tl'
I190
tp1663
a(S'w'
I6
tp1664
a(S'tr_tl'
I86
tp1665
a(S'w'
I2
tp1666
a(S'w'
I1452
tp1667
a(S'p1_tl'
I195
tp1668
a(S'w'
I6
tp1669
a(S'p2_vo'
I3
tp1670
a(S'p2_tl'
I193
tp1671
a(S'w'
I7
tp1672
a(S'w'
I1452
tp1673
a(S'p1_vo'
I2
tp1674
a(S'w'
I5
tp1675
a(S'p2_tl'
I196
tp1676
a(S'w'
I6
tp1677
a(S'tr_tl'
I87
tp1678
a(S'w'
I3
tp1679
a(S'w'
I719
tp1680
a(S'p1_vo'
I7
tp1681
a(S'p1_tl'
I196
tp1682
a(S'p1_ll'
I19
tp1683
a(S'w'
I8
tp1684
a(S'tr_tl'
I86
tp1685
a(S'tr_ll'
I0
tp1686
a(S'w'
I7
tp1687
a(S'no_np'
I2
tp1688
a(S'no_ll'
I5
tp1689
a(S'w'
I718
tp1690
a(S'p1_tl'
I197
tp1691
a(S'w'
I6
tp1692
a(S'p2_vo'
I2
tp1693
a(S'p2_tl'
I199
tp1694
a(S'w'
I7
tp1695
a(S'w'
I1451
tp1696
a(S'p1_vo'
I6
tp1697
a(S'w'
I6
tp1698
a(S'p2_tl'
I202
tp1699
a(S'w'
I5
tp1700
a(S'tr_tl'
I85
tp1701
a(S'w'
I3
tp1702
a(S'w'
I2185
tp1703
a(S'p1_tl'
I196
tp1704
a(S'w'
I6
tp1705
a(S'p2_vo'
I1
tp1706
a(S'w'
I1
tp1707
a(S'p2_tl'
I199
tp1708
a(S'w'
I6
tp1709
a(S'w'
I719
tp1710
a(S'p1_vo'
I7
tp1711
a(S'p1_tl'
I58
tp1712
a(S'p1_ll'
I19
tp1713
a(S'p1_th'
I2
tp1714
a(S'w'
I8
tp1715
a(S'tr_tl'
I86
tp1716
a(S'tr_ll'
I0
tp1717
a(S'w'
I7
tp1718
a(S'no_ll'
I5
tp1719
a(S'w'
I717
tp1720
a(S'p1_vo'
I6
tp1721
a(S'w'
I5
tp1722
a(S'p2_tl'
I196
tp1723
a(S'w'
I5
tp1724
a(S'tr_tl'
I87
tp1725
a(S'w'
I3
tp1726
a(S'w'
I1453
tp1727
a(S'p1_tl'
I59
tp1728
a(S'w'
I5
tp1729
a(S'p2_tl'
I193
tp1730
a(S'w'
I6
tp1731
a(S'w'
I1453
tp1732
a(S'p1_vo'
I5
tp1733
a(S'w'
I5
tp1734
a(S'p2_tl'
I190
tp1735
a(S'w'
I6
tp1736
a(S'tr_tl'
I86
tp1737
a(S'w'
I3
tp1738
a(S'w'
I721
tp1739
a(S'p2_vo'
I4
tp1740
a(S'p2_tl'
I196
tp1741
a(S'w'
I1
tp1742
a(S'p2_ll'
I19
tp1743
a(S'w'
I731
tp1744
a(S'p1_tl'
I58
tp1745
a(S'w'
I5
tp1746
a(S'p2_tl'
I199
tp1747
a(S'w'
I7
tp1748
a(S'w'
I720
tp1749
a(S'p1_vo'
I7
tp1750
a(S'p1_tl'
I249
tp1751
a(S'p1_ll'
I19
tp1752
a(S'w'
I8
tp1753
a(S'tr_ll'
I0
tp1754
a(S'w'
I7
tp1755
a(S'no_ll'
I5
tp1756
a(S'w'
I717
tp1757
a(S'p1_vo'
I6
tp1758
a(S'w'
I6
tp1759
a(S'p2_tl'
I202
tp1760
a(S'w'
I5
tp1761
a(S'tr_tl'
I87
tp1762
a(S'w'
I3
tp1763
a(S'w'
I2185
tp1764
a(S'p1_tl'
I250
tp1765
a(S'w'
I6
tp1766
a(S'p2_vo'
I3
tp1767
a(S'p2_tl'
I199
tp1768
a(S'w'
I7
tp1769
a(S'w'
I720
tp1770
a(S'p2_vo'
I4
tp1771
a(S'p2_tl'
I58
tp1772
a(S'w'
I1
tp1773
a(S'p2_ll'
I19
tp1774
a(S'p2_th'
I2
tp1775
a(S'w'
I730
tp1776
a(S'p1_vo'
I5
tp1777
a(S'w'
I5
tp1778
a(S'p2_tl'
I55
tp1779
a(S'w'
I6
tp1780
a(S'tr_tl'
I86
tp1781
a(S'w'
I3
tp1782
a(S'w'
I719
tp1783
a(S'p1_vo'
I7
tp1784
a(S'p1_tl'
I196
tp1785
a(S'p1_ll'
I19
tp1786
a(S'p1_th'
I1
tp1787
a(S'w'
I8
tp1788
a(S'tr_ll'
I0
tp1789
a(S'w'
I7
tp1790
a(S'no_np'
I8
tp1791
a(S'no_ll'
I5
tp1792
a(S'w'
I718
tp1793
a(S'p1_tl'
I195
tp1794
a(S'w'
I6
tp1795
a(S'p2_tl'
I52
tp1796
a(S'w'
I6
tp1797
a(S'w'
I1452
tp1798
a(S'p1_vo'
I6
tp1799
a(S'w'
I6
tp1800
a(S'p2_vo'
I3
tp1801
a(S'p2_tl'
I55
tp1802
a(S'w'
I6
tp1803
a(S'tr_tl'
I87
tp1804
a(S'w'
I3
tp1805
a(S'w'
I1451
tp1806
a(S'p1_tl'
I196
tp1807
a(S'w'
I5
tp1808
a(S'p2_tl'
I58
tp1809
a(S'w'
I7
tp1810
a(S'w'
I722
tp1811
a(S'p2_vo'
I4
tp1812
a(S'p2_tl'
I249
tp1813
a(S'w'
I1
tp1814
a(S'p2_ll'
I19
tp1815
a(S'w'
I730
tp1816
a(S'p1_vo'
I5
tp1817
a(S'w'
I5
tp1818
a(S'p2_tl'
I252
tp1819
a(S'w'
I6
tp1820
a(S'tr_tl'
I86
tp1821
a(S'w'
I3
tp1822
a(S'w'
I2184
tp1823
a(S'p1_tl'
I195
tp1824
a(S'w'
I7
tp1825
a(S'p2_vo'
I3
tp1826
a(S'p2_tl'
I255
tp1827
a(S'w'
I6
tp1828
a(S'w'
I1452
tp1829
a(S'p1_vo'
I4
tp1830
a(S'w'
I5
tp1831
a(S'p2_tl'
I252
tp1832
a(S'w'
I6
tp1833
a(S'tr_tl'
I87
tp1834
a(S'w'
I3
tp1835
a(S'w'
I720
tp1836
a(S'p2_vo'
I4
tp1837
a(S'p2_tl'
I196
tp1838
a(S'w'
I1
tp1839
a(S'p2_ll'
I19
tp1840
a(S'p2_th'
I1
tp1841
a(S'w'
I731
tp1842
a(S'p1_tl'
I196
tp1843
a(S'w'
I5
tp1844
a(S'p2_tl'
I193
tp1845
a(S'w'
I7
tp1846
a(S'w'
I1452
tp1847
a(S'p1_vo'
I3
tp1848
a(S'w'
I7
tp1849
a(S'p2_vo'
I3
tp1850
a(S'p2_tl'
I190
tp1851
a(S'w'
I6
tp1852
a(S'tr_tl'
I86
tp1853
a(S'w'
I3
tp1854
a(S'w'
I1450
tp1855
a(S'p1_tl'
I195
tp1856
a(S'w'
I5
tp1857
a(S'p2_tl'
I193
tp1858
a(S'w'
I7
tp1859
a(S'w'
I2185
tp1860
a(S'p1_vo'
I2
tp1861
a(S'w'
I6
tp1862
a(S'p2_vo'
I2
tp1863
a(S'p2_tl'
I196
tp1864
a(S'w'
I6
tp1865
a(S'tr_tl'
I87
tp1866
a(S'w'
I3
tp1867
a(S'w'
I721
tp1868
a(S'tr_tl'
I86
tp1869
a(S'w'
I1
tp1870
a(S'tr_ll'
I0
tp1871
a(S'w'
I6
tp1872
a(S'no_np'
I2
tp1873
a(S'no_ll'
I5
tp1874
a(S'w'
I723
tp1875
a(S'p1_tl'
I196
tp1876
a(S'w'
I5
tp1877
a(S'p2_tl'
I199
tp1878
a(S'w'
I7
tp1879
a(S'w'
I1453
tp1880
a(S'p1_vo'
I1
tp1881
a(S'w'
I7
tp1882
a(S'p2_vo'
I1
tp1883
a(S'p2_tl'
I202
tp1884
a(S'w'
I6
tp1885
a(S'tr_tl'
I85
tp1886
a(S'w'
I3
tp1887
a(S'w'
I1449
tp1888
a(S'p1_tl'
I195
tp1889
a(S'w'
I5
tp1890
a(S'p2_tl'
I199
tp1891
a(S'w'
I7
tp1892
a(S'w'
I1451
tp1893
a(S'w'
I5
tp1894
a(S'p2_tl'
I196
tp1895
a(S'w'
I6
tp1896
a(S'tr_tl'
I86
tp1897
a(S'w'
I3
tp1898
a(S'w'
I725
tp1899
a(S'tr_ll'
I0
tp1900
a(S'w'
I6
tp1901
a(S'no_ll'
I5
tp1902
a(S'w'
I722
tp1903
a(S'p1_tl'
I196
tp1904
a(S'w'
I5
tp1905
a(S'p2_tl'
I193
tp1906
a(S'w'
I7
tp1907
a(S'w'
I2184
tp1908
a(S'w'
I6
tp1909
a(S'p2_tl'
I190
tp1910
a(S'w'
I5
tp1911
a(S'tr_tl'
I85
tp1912
a(S'w'
I3
tp1913
a(S'w'
I1453
tp1914
a(S'p1_tl'
I195
tp1915
a(S'w'
I5
tp1916
a(S'p2_tl'
I193
tp1917
a(S'w'
I7
tp1918
a(S'w'
I724
tp1919
a(S'tr_tl'
I86
tp1920
a(S'w'
I1
tp1921
a(S'tr_ll'
I0
tp1922
a(S'w'
I6
tp1923
a(S'no_ll'
I5
tp1924
a(S'w'
I720
tp1925
a(S'w'
I5
tp1926
a(S'p2_tl'
I196
tp1927
a(S'w'
I6
tp1928
a(S'tr_tl'
I87
tp1929
a(S'w'
I3
tp1930
a(S'w'
I1454
tp1931
a(S'p1_tl'
I196
tp1932
a(S'w'
I5
tp1933
a(S'p2_tl'
I199
tp1934
a(S'w'
I7
tp1935
a(S'w'
I1451
tp1936
a(S'w'
I6
tp1937
a(S'p2_tl'
I202
tp1938
a(S'w'
I5
tp1939
a(S'tr_tl'
I86
tp1940
a(S'w'
I3
tp1941
a(S'w'
I1453
tp1942
a(S'p1_tl'
I195
tp1943
a(S'w'
I5
tp1944
a(S'p2_tl'
I199
tp1945
a(S'w'
I7
tp1946
a(S'w'
I722
tp1947
a(S'p1_vo'
I7
tp1948
a(S'p1_tl'
I28
tp1949
a(S'p1_ll'
I19
tp1950
a(S'w'
I10
tp1951
a(S'tr_ll'
I0
tp1952
a(S'w'
I10
tp1953
a(S'no_np'
I12
tp1954
a(S'w'
I1
tp1955
a(S'no_ll'
I5
tp1956
a(S'w'
I1442
tp1957
a(S'w'
I5
tp1958
a(S'p2_tl'
I196
tp1959
a(S'w'
I5
tp1960
a(S'tr_tl'
I87
tp1961
a(S'w'
I3
tp1962
a(S'w'
I1455
tp1963
a(S'p1_vo'
I6
tp1964
a(S'p1_tl'
I29
tp1965
a(S'w'
I5
tp1966
a(S'p2_tl'
I193
tp1967
a(S'w'
I6
tp1968
a(S'w'
I1451
tp1969
a(S'w'
I5
tp1970
a(S'p2_tl'
I190
tp1971
a(S'w'
I6
tp1972
a(S'tr_tl'
I86
tp1973
a(S'w'
I3
tp1974
a(S'w'
I1454
tp1975
a(S'p1_vo'
I5
tp1976
a(S'p1_tl'
I28
tp1977
a(S'w'
I5
tp1978
a(S'p2_tl'
I193
tp1979
a(S'w'
I6
tp1980
a(S'w'
I1452
tp1981
a(S'w'
I5
tp1982
a(S'p2_tl'
I196
tp1983
a(S'w'
I5
tp1984
a(S'tr_tl'
I87
tp1985
a(S'w'
I3
tp1986
a(S'w'
I1455
tp1987
a(S'p1_vo'
I4
tp1988
a(S'p1_tl'
I29
tp1989
a(S'w'
I5
tp1990
a(S'p2_tl'
I199
tp1991
a(S'w'
I6
tp1992
a(S'w'
I721
tp1993
a(S'p2_vo'
I4
tp1994
a(S'p2_tl'
I28
tp1995
a(S'w'
I1
tp1996
a(S'p2_ll'
I19
tp1997
a(S'w'
I1462
tp1998
a(S'w'
I5
tp1999
a(S'p2_tl'
I31
tp2000
a(S'w'
I6
tp2001
a(S'tr_tl'
I86
tp2002
a(S'w'
I3
tp2003
a(S'w'
I1454
tp2004
a(S'p1_vo'
I3
tp2005
a(S'p1_tl'
I28
tp2006
a(S'w'
I6
tp2007
a(S'p2_tl'
I34
tp2008
a(S'w'
I6
tp2009
a(S'w'
I1450
tp2010
a(S'w'
I6
tp2011
a(S'p2_vo'
I3
tp2012
a(S'p2_tl'
I31
tp2013
a(S'w'
I6
tp2014
a(S'tr_tl'
I87
tp2015
a(S'w'
I3
tp2016
a(S'w'
I1453
tp2017
a(S'p1_vo'
I2
tp2018
a(S'p1_tl'
I29
tp2019
a(S'w'
I5
tp2020
a(S'p2_tl'
I28
tp2021
a(S'w'
I7
tp2022
a(S'w'
I720
tp2023
a(S'p1_vo'
I7
tp2024
a(S'p1_tl'
I124
tp2025
a(S'p1_ll'
I19
tp2026
a(S'w'
I8
tp2027
a(S'tr_tl'
I86
tp2028
a(S'tr_ll'
I0
tp2029
a(S'w'
I7
tp2030
a(S'no_np'
I2
tp2031
a(S'no_ll'
I5
tp2032
a(S'w'
I715
tp2033
a(S'w'
I6
tp2034
a(S'p2_vo'
I2
tp2035
a(S'p2_tl'
I25
tp2036
a(S'w'
I6
tp2037
a(S'tr_tl'
I85
tp2038
a(S'w'
I3
tp2039
a(S'w'
I1454
tp2040
a(S'p1_vo'
I6
tp2041
a(S'p1_tl'
I123
tp2042
a(S'w'
I6
tp2043
a(S'p2_tl'
I22
tp2044
a(S'w'
I6
tp2045
a(S'w'
I2182
tp2046
a(S'w'
I6
tp2047
a(S'p2_vo'
I1
tp2048
a(S'p2_tl'
I25
tp2049
a(S'w'
I6
tp2050
a(S'tr_tl'
I86
tp2051
a(S'w'
I3
tp2052
a(S'w'
I723
tp2053
a(S'tr_ll'
I0
tp2054
a(S'w'
I6
tp2055
a(S'no_ll'
I5
tp2056
a(S'w'
I725
tp2057
a(S'p1_vo'
I5
tp2058
a(S'p1_tl'
I124
tp2059
a(S'w'
I5
tp2060
a(S'p2_tl'
I28
tp2061
a(S'w'
I6
tp2062
a(S'w'
I1451
tp2063
a(S'w'
I5
tp2064
a(S'p2_tl'
I31
tp2065
a(S'w'
I5
tp2066
a(S'tr_tl'
I85
tp2067
a(S'w'
I3
tp2068
a(S'w'
I1455
tp2069
a(S'p1_vo'
I4
tp2070
a(S'p1_tl'
I123
tp2071
a(S'w'
I6
tp2072
a(S'p2_tl'
I34
tp2073
a(S'w'
I6
tp2074
a(S'w'
I721
tp2075
a(S'p2_vo'
I4
tp2076
a(S'p2_tl'
I124
tp2077
a(S'w'
I1
tp2078
a(S'p2_ll'
I19
tp2079
a(S'w'
I728
tp2080
a(S'w'
I5
tp2081
a(S'p2_tl'
I121
tp2082
a(S'w'
I6
tp2083
a(S'tr_tl'
I86
tp2084
a(S'w'
I3
tp2085
a(S'w'
I724
tp2086
a(S'tr_ll'
I0
tp2087
a(S'w'
I6
tp2088
a(S'no_ll'
I5
tp2089
a(S'w'
I724
tp2090
a(S'p1_vo'
I3
tp2091
a(S'p1_tl'
I124
tp2092
a(S'w'
I6
tp2093
a(S'p2_tl'
I118
tp2094
a(S'w'
I6
tp2095
a(S'w'
I2183
tp2096
a(S'w'
I6
tp2097
a(S'p2_vo'
I3
tp2098
a(S'p2_tl'
I121
tp2099
a(S'w'
I6
tp2100
a(S'tr_tl'
I85
tp2101
a(S'w'
I3
tp2102
a(S'w'
I1453
tp2103
a(S'p1_vo'
I2
tp2104
a(S'p1_tl'
I123
tp2105
a(S'w'
I5
tp2106
a(S'p2_tl'
I124
tp2107
a(S'w'
I7
tp2108
a(S'w'
I720
tp2109
a(S'p1_vo'
I7
tp2110
a(S'p1_tl'
I196
tp2111
a(S'p1_ll'
I19
tp2112
a(S'w'
I8
tp2113
a(S'tr_tl'
I86
tp2114
a(S'tr_ll'
I0
tp2115
a(S'w'
I7
tp2116
a(S'no_np'
I8
tp2117
a(S'no_ll'
I5
tp2118
a(S'w'
I716
tp2119
a(S'w'
I6
tp2120
a(S'p2_vo'
I2
tp2121
a(S'p2_tl'
I127
tp2122
a(S'w'
I6
tp2123
a(S'tr_tl'
I87
tp2124
a(S'w'
I3
tp2125
a(S'w'
I1453
tp2126
a(S'p1_vo'
I6
tp2127
a(S'p1_tl'
I197
tp2128
a(S'w'
I6
tp2129
a(S'p2_tl'
I130
tp2130
a(S'w'
I6
tp2131
a(S'w'
I1450
tp2132
a(S'w'
I6
tp2133
a(S'p2_vo'
I1
tp2134
a(S'p2_tl'
I127
tp2135
a(S'w'
I6
tp2136
a(S'tr_tl'
I86
tp2137
a(S'w'
I3
tp2138
a(S'w'
I1453
tp2139
a(S'p1_vo'
I5
tp2140
a(S'p1_tl'
I196
tp2141
a(S'w'
I5
tp2142
a(S'p2_tl'
I124
tp2143
a(S'w'
I6
tp2144
a(S'w'
I2184
tp2145
a(S'w'
I5
tp2146
a(S'p2_tl'
I121
tp2147
a(S'w'
I5
tp2148
a(S'tr_tl'
I87
tp2149
a(S'w'
I3
tp2150
a(S'w'
I1455
tp2151
a(S'p1_vo'
I4
tp2152
a(S'p1_tl'
I197
tp2153
a(S'w'
I6
tp2154
a(S'p2_tl'
I118
tp2155
a(S'w'
I6
tp2156
a(S'w'
I721
tp2157
a(S'p2_vo'
I4
tp2158
a(S'p2_tl'
I196
tp2159
a(S'w'
I1
tp2160
a(S'p2_ll'
I19
tp2161
a(S'w'
I729
tp2162
a(S'w'
I5
tp2163
a(S'p2_tl'
I199
tp2164
a(S'w'
I6
tp2165
a(S'tr_tl'
I86
tp2166
a(S'w'
I3
tp2167
a(S'w'
I1454
tp2168
a(S'p1_vo'
I3
tp2169
a(S'p1_tl'
I196
tp2170
a(S'w'
I6
tp2171
a(S'p2_tl'
I202
tp2172
a(S'w'
I6
tp2173
a(S'w'
I1450
tp2174
a(S'w'
I6
tp2175
a(S'p2_vo'
I3
tp2176
a(S'p2_tl'
I199
tp2177
a(S'w'
I6
tp2178
a(S'tr_tl'
I87
tp2179
a(S'w'
I3
tp2180
a(S'w'
I1453
tp2181
a(S'p1_vo'
I2
tp2182
a(S'p1_tl'
I197
tp2183
a(S'w'
I5
tp2184
a(S'p2_tl'
I196
tp2185
a(S'w'
I7
tp2186
a(S'w'
I1452
tp2187
a(S'p1_vo'
I7
tp2188
a(S'p1_tl'
I28
tp2189
a(S'p1_ll'
I19
tp2190
a(S'w'
I8
tp2191
a(S'tr_tl'
I86
tp2192
a(S'tr_ll'
I0
tp2193
a(S'w'
I7
tp2194
a(S'no_np'
I2
tp2195
a(S'no_ll'
I5
tp2196
a(S'w'
I716
tp2197
a(S'w'
I6
tp2198
a(S'p2_vo'
I2
tp2199
a(S'p2_tl'
I193
tp2200
a(S'w'
I6
tp2201
a(S'tr_tl'
I85
tp2202
a(S'w'
I3
tp2203
a(S'w'
I1453
tp2204
a(S'p1_vo'
I6
tp2205
a(S'p1_tl'
I27
tp2206
a(S'w'
I6
tp2207
a(S'p2_tl'
I190
tp2208
a(S'w'
I6
tp2209
a(S'w'
I1450
tp2210
a(S'w'
I6
tp2211
a(S'p2_vo'
I1
tp2212
a(S'p2_tl'
I193
tp2213
a(S'w'
I6
tp2214
a(S'tr_tl'
I86
tp2215
a(S'w'
I3
tp2216
a(S'w'
I1454
tp2217
a(S'p1_vo'
I5
tp2218
a(S'p1_tl'
I28
tp2219
a(S'w'
I5
tp2220
a(S'p2_tl'
I196
tp2221
a(S'w'
I6
tp2222
a(S'w'
I723
tp2223
a(S'tr_ll'
I0
tp2224
a(S'w'
I6
tp2225
a(S'no_ll'
I5
tp2226
a(S'w'
I722
tp2227
a(S'w'
I5
tp2228
a(S'p2_tl'
I199
tp2229
a(S'w'
I5
tp2230
a(S'tr_tl'
I85
tp2231
a(S'w'
I3
tp2232
a(S'w'
I1455
tp2233
a(S'p1_vo'
I4
tp2234
a(S'p1_tl'
I27
tp2235
a(S'w'
I6
tp2236
a(S'p2_tl'
I202
tp2237
a(S'w'
I6
tp2238
a(S'w'
I1453
tp2239
a(S'p2_vo'
I4
tp2240
a(S'p2_tl'
I28
tp2241
a(S'w'
I1
tp2242
a(S'p2_ll'
I19
tp2243
a(S'w'
I729
tp2244
a(S'w'
I5
tp2245
a(S'p2_tl'
I25
tp2246
a(S'w'
I6
tp2247
a(S'tr_tl'
I86
tp2248
a(S'w'
I3
tp2249
a(S'w'
I723
tp2250
a(S'tr_ll'
I0
tp2251
a(S'w'
I6
tp2252
a(S'no_ll'
I5
tp2253
a(S'w'
I725
tp2254
a(S'p1_vo'
I3
tp2255
a(S'p1_tl'
I28
tp2256
a(S'w'
I6
tp2257
a(S'p2_tl'
I22
tp2258
a(S'w'
I6
tp2259
a(S'w'
I1450
tp2260
a(S'w'
I6
tp2261
a(S'p2_vo'
I3
tp2262
a(S'p2_tl'
I25
tp2263
a(S'w'
I6
tp2264
a(S'tr_tl'
I85
tp2265
a(S'w'
I3
tp2266
a(S'w'
I1453
tp2267
a(S'p1_vo'
I2
tp2268
a(S'p1_tl'
I27
tp2269
a(S'w'
I5
tp2270
a(S'p2_tl'
I28
tp2271
a(S'w'
I7
tp2272
a(S'w'
I1451
tp2273
a(S'w'
I6
tp2274
a(S'p2_vo'
I2
tp2275
a(S'p2_tl'
I31
tp2276
a(S'w'
I6
tp2277
a(S'tr_tl'
I86
tp2278
a(S'w'
I3
tp2279
a(S'w'
I719
tp2280
a(S'p1_vo'
I7
tp2281
a(S'p1_tl'
I82
tp2282
a(S'p1_ll'
I19
tp2283
a(S'w'
I10
tp2284
a(S'tr_ll'
I0
tp2285
a(S'w'
I10
tp2286
a(S'no_np'
I12
tp2287
a(S'w'
I1
tp2288
a(S'no_ll'
I5
tp2289
a(S'w'
I713
tp2290
a(S'p1_vo'
I6
tp2291
a(S'p1_tl'
I83
tp2292
a(S'w'
I6
tp2293
a(S'p2_tl'
I34
tp2294
a(S'w'
I6
tp2295
a(S'w'
I2183
tp2296
a(S'w'
I6
tp2297
a(S'p2_vo'
I1
tp2298
a(S'p2_tl'
I31
tp2299
a(S'w'
I6
tp2300
a(S'tr_tl'
I85
tp2301
a(S'w'
I3
tp2302
a(S'w'
I1453
tp2303
a(S'p1_vo'
I5
tp2304
a(S'p1_tl'
I82
tp2305
a(S'w'
I5
tp2306
a(S'p2_tl'
I28
tp2307
a(S'w'
I6
tp2308
a(S'w'
I1451
tp2309
a(S'w'
I5
tp2310
a(S'p2_tl'
I25
tp2311
a(S'w'
I5
tp2312
a(S'tr_tl'
I86
tp2313
a(S'w'
I3
tp2314
a(S'w'
I1455
tp2315
a(S'p1_vo'
I4
tp2316
a(S'p1_tl'
I83
tp2317
a(S'w'
I6
tp2318
a(S'p2_tl'
I22
tp2319
a(S'w'
I6
tp2320
a(S'w'
I1450
tp2321
a(S'w'
I5
tp2322
a(S'p2_tl'
I25
tp2323
a(S'w'
I5
tp2324
a(S'tr_tl'
I85
tp2325
a(S'w'
I3
tp2326
a(S'w'
I723
tp2327
a(S'p2_vo'
I4
tp2328
a(S'p2_tl'
I82
tp2329
a(S'w'
I1
tp2330
a(S'p2_ll'
I19
tp2331
a(S'w'
I1464
tp2332
a(S'p1_vo'
I3
tp2333
a(S'p1_tl'
I82
tp2334
a(S'w'
I5
tp2335
a(S'p2_tl'
I85
tp2336
a(S'w'
I7
tp2337
a(S'w'
I1450
tp2338
a(S'w'
I6
tp2339
a(S'p2_tl'
I88
tp2340
a(S'w'
I5
tp2341
a(S'tr_tl'
I86
tp2342
a(S'w'
I3
tp2343
a(S'w'
I1455
tp2344
a(S'p1_vo'
I2
tp2345
a(S'p1_tl'
I83
tp2346
a(S'w'
I6
tp2347
a(S'p2_vo'
I3
tp2348
a(S'w'
I1
tp2349
a(S'p2_tl'
I85
tp2350
a(S'w'
I6
tp2351
a(S'w'
I1449
tp2352
a(S'w'
I5
tp2353
a(S'p2_tl'
I82
tp2354
a(S'w'
I6
tp2355
a(S'tr_tl'
I85
tp2356
a(S'w'
I3
tp2357
a(S'w'
I722
tp2358
a(S'tr_tl'
I86
tp2359
a(S'w'
I1
tp2360
a(S'tr_ll'
I0
tp2361
a(S'w'
I6
tp2362
a(S'no_np'
I2
tp2363
a(S'no_ll'
I5
tp2364
a(S'w'
I725
tp2365
a(S'p1_vo'
I1
tp2366
a(S'p1_tl'
I82
tp2367
a(S'w'
I7
tp2368
a(S'p2_vo'
I2
tp2369
a(S'p2_tl'
I79
tp2370
a(S'w'
I6
tp2371
a(S'w'
I1448
tp2372
a(S'w'
I6
tp2373
a(S'p2_tl'
I76
tp2374
a(S'w'
I6
tp2375
a(S'tr_tl'
I87
tp2376
a(S'w'
I3
tp2377
a(S'w'
I2185
tp2378
a(S'p1_tl'
I83
tp2379
a(S'w'
I7
tp2380
a(S'p2_vo'
I1
tp2381
a(S'p2_tl'
I79
tp2382
a(S'w'
I6
tp2383
a(S'w'
I723
tp2384
a(S'tr_tl'
I86
tp2385
a(S'w'
I1
tp2386
a(S'tr_ll'
I0
tp2387
a(S'w'
I6
tp2388
a(S'no_ll'
I5
tp2389
a(S'w'
I720
tp2390
a(S'w'
I5
tp2391
a(S'p2_tl'
I82
tp2392
a(S'w'
I6
tp2393
a(S'tr_tl'
I85
tp2394
a(S'w'
I3
tp2395
a(S'w'
I1454
tp2396
a(S'p1_tl'
I82
tp2397
a(S'w'
I5
tp2398
a(S'p2_tl'
I85
tp2399
a(S'w'
I7
tp2400
a(S'w'
I1451
tp2401
a(S'w'
I6
tp2402
a(S'p2_tl'
I88
tp2403
a(S'w'
I5
tp2404
a(S'tr_tl'
I86
tp2405
a(S'w'
I3
tp2406
a(S'w'
I1453
tp2407
a(S'p1_tl'
I83
tp2408
a(S'w'
I5
tp2409
a(S'p2_tl'
I85
tp2410
a(S'w'
I7
tp2411
a(S'w'
I725
tp2412
a(S'tr_ll'
I0
tp2413
a(S'w'
I6
tp2414
a(S'no_ll'
I5
tp2415
a(S'w'
I720
tp2416
a(S'w'
I5
tp2417
a(S'p2_tl'
I82
tp2418
a(S'w'
I6
tp2419
a(S'tr_tl'
I85
tp2420
a(S'w'
I3
tp2421
a(S'w'
I2186
tp2422
a(S'p1_tl'
I82
tp2423
a(S'w'
I5
tp2424
a(S'p2_tl'
I79
tp2425
a(S'w'
I7
tp2426
a(S'w'
I1451
tp2427
a(S'w'
I6
tp2428
a(S'p2_tl'
I76
tp2429
a(S'w'
I5
tp2430
a(S'tr_tl'
I86
tp2431
a(S'w'
I3
tp2432
a(S'w'
I725
tp2433
a(S'tr_ll'
I0
tp2434
a(S'w'
I6
tp2435
a(S'no_np'
I8
tp2436
a(S'no_ll'
I5
tp2437
a(S'w'
I722
tp2438
a(S'p1_tl'
I83
tp2439
a(S'w'
I5
tp2440
a(S'p2_tl'
I79
tp2441
a(S'w'
I7
tp2442
a(S'w'
I1452
tp2443
a(S'w'
I5
tp2444
a(S'p2_tl'
I82
tp2445
a(S'w'
I6
tp2446
a(S'tr_tl'
I85
tp2447
a(S'w'
I3
tp2448
a(S'w'
I1453
tp2449
a(S'p1_tl'
I82
tp2450
a(S'w'
I5
tp2451
a(S'p2_tl'
I85
tp2452
a(S'w'
I7
tp2453
a(S'w'
I1451
tp2454
a(S'w'
I6
tp2455
a(S'p2_tl'
I88
tp2456
a(S'w'
I5
tp2457
a(S'tr_tl'
I86
tp2458
a(S'w'
I3
tp2459
a(S'w'
I2186
tp2460
a(S'p1_tl'
I83
tp2461
a(S'w'
I5
tp2462
a(S'p2_tl'
I85
tp2463
a(S'w'
I7
tp2464
a(S'w'
I1451
tp2465
a(S'w'
I5
tp2466
a(S'p2_tl'
I82
tp2467
a(S'w'
I6
tp2468
a(S'tr_tl'
I85
tp2469
a(S'w'
I3
tp2470
a(S'w'
I1453
tp2471
a(S'p1_tl'
I82
tp2472
a(S'w'
I5
tp2473
a(S'p2_tl'
I79
tp2474
a(S'w'
I7
tp2475
a(S'w'
I1451
tp2476
a(S'w'
I6
tp2477
a(S'p2_tl'
I76
tp2478
a(S'w'
I5
tp2479
a(S'tr_tl'
I86
tp2480
a(S'w'
I3
tp2481
a(S'w'
I1454
tp2482
a(S'p1_tl'
I83
tp2483
a(S'w'
I5
tp2484
a(S'p2_tl'
I79
tp2485
a(S'w'
I7
tp2486
a(S'w'
I1451
tp2487
a(S'w'
I5
tp2488
a(S'p2_tl'
I82
tp2489
a(S'w'
I6
tp2490
a(S'tr_tl'
I85
tp2491
a(S'w'
I3
tp2492
a(S'w'
I1456
tp2493
a(S'tr_tl'
I86
tp2494
a(S'w'
I1
tp2495
a(S'tr_ll'
I0
tp2496
a(S'w'
I6
tp2497
a(S'no_np'
I2
tp2498
a(S'no_ll'
I5
tp2499
a(S'w'
I723
tp2500
a(S'p1_tl'
I82
tp2501
a(S'w'
I5
tp2502
a(S'p2_tl'
I85
tp2503
a(S'w'
I7
tp2504
a(S'w'
I1451
tp2505
a(S'w'
I6
tp2506
a(S'p2_tl'
I88
tp2507
a(S'w'
I5
tp2508
a(S'tr_tl'
I87
tp2509
a(S'w'
I3
tp2510
a(S'w'
I1453
tp2511
a(S'p1_tl'
I83
tp2512
a(S'w'
I5
tp2513
a(S'p2_tl'
I85
tp2514
a(S'w'
I7
tp2515
a(S'w'
I1451
tp2516
a(S'w'
I5
tp2517
a(S'p2_tl'
I82
tp2518
a(S'w'
I6
tp2519
a(S'tr_tl'
I86
tp2520
a(S'w'
I3
tp2521
a(S'w'
I725
tp2522
a(S'tr_ll'
I0
tp2523
a(S'w'
I6
tp2524
a(S'no_ll'
I5
tp2525
a(S'w'
I722
tp2526
a(S'p1_tl'
I82
tp2527
a(S'w'
I5
tp2528
a(S'p2_tl'
I79
tp2529
a(S'w'
I7
tp2530
a(S'w'
I1452
tp2531
a(S'w'
I6
tp2532
a(S'p2_tl'
I76
tp2533
a(S'w'
I5
tp2534
a(S'tr_tl'
I87
tp2535
a(S'w'
I3
tp2536
a(S'w'
I2185
tp2537
a(S'p1_tl'
I83
tp2538
a(S'w'
I5
tp2539
a(S'p2_tl'
I79
tp2540
a(S'w'
I7
tp2541
a(S'w'
I724
tp2542
a(S'tr_tl'
I86
tp2543
a(S'w'
I1
tp2544
a(S'tr_ll'
I0
tp2545
a(S'w'
I6
tp2546
a(S'no_ll'
I5
tp2547
a(S'w'
I721
tp2548
a(S'w'
I5
tp2549
a(S'p2_tl'
I82
tp2550
a(S'w'
I6
tp2551
a(S'tr_tl'
I85
tp2552
a(S'w'
I3
tp2553
a(S'w'
I1453
tp2554
a(S'p1_tl'
I82
tp2555
a(S'w'
I5
tp2556
a(S'p2_tl'
I85
tp2557
a(S'w'
I7
tp2558
a(S'w'
I1451
tp2559
a(S'w'
I6
tp2560
a(S'p2_tl'
I88
tp2561
a(S'w'
I5
tp2562
a(S'tr_tl'
I86
tp2563
a(S'w'
I3
tp2564
a(S'w'
I1453
tp2565
a(S'p1_tl'
I83
tp2566
a(S'w'
I5
tp2567
a(S'p2_tl'
I85
tp2568
a(S'w'
I7
tp2569
a(S'w'
I726
tp2570
a(S'tr_ll'
I0
tp2571
a(S'w'
I11
tp2572
a(S'no_np'
I12
tp2573
a(S'no_ll'
I5
tp2574
a(S'w'
I714
tp2575
a(S'w'
I5
tp2576
a(S'p2_tl'
I82
tp2577
a(S'w'
I6
tp2578
a(S'tr_tl'
I85
tp2579
a(S'w'
I3
tp2580
a(S'w'
I2186
tp2581
a(S'p1_tl'
I82
tp2582
a(S'w'
I5
tp2583
a(S'p2_tl'
I79
tp2584
a(S'w'
I7
tp2585
a(S'w'
I1451
tp2586
a(S'w'
I6
tp2587
a(S'p2_tl'
I76
tp2588
a(S'w'
I5
tp2589
a(S'tr_tl'
I86
tp2590
a(S'w'
I3
tp2591
a(S'w'
I1454
tp2592
a(S'p1_tl'
I83
tp2593
a(S'w'
I5
tp2594
a(S'p2_tl'
I79
tp2595
a(S'w'
I7
tp2596
a(S'w'
I1451
tp2597
a(S'w'
I5
tp2598
a(S'p2_tl'
I82
tp2599
a(S'w'
I6
tp2600
a(S'tr_tl'
I85
tp2601
a(S'w'
I3
tp2602
a(S'w'
I1453
tp2603
a(S'p1_tl'
I82
tp2604
a(S'w'
I5
tp2605
a(S'p2_tl'
I85
tp2606
a(S'w'
I7
tp2607
a(S'w'
I1451
tp2608
a(S'w'
I6
tp2609
a(S'p2_tl'
I88
tp2610
a(S'w'
I5
tp2611
a(S'tr_tl'
I86
tp2612
a(S'w'
I3
tp2613
a(S'w'
I2186
tp2614
a(S'p1_tl'
I83
tp2615
a(S'w'
I5
tp2616
a(S'p2_tl'
I85
tp2617
a(S'w'
I7
tp2618
a(S'w'
I1451
tp2619
a(S'w'
I5
tp2620
a(S'p2_tl'
I82
tp2621
a(S'w'
I6
tp2622
a(S'tr_tl'
I85
tp2623
a(S'w'
I3
tp2624
a(S'w'
I1454
tp2625
a(S'p1_tl'
I82
tp2626
a(S'w'
I5
tp2627
a(S'p2_tl'
I79
tp2628
a(S'w'
I7
tp2629
a(S'w'
I723
tp2630
a(S'tr_tl'
I86
tp2631
a(S'w'
I1
tp2632
a(S'tr_ll'
I0
tp2633
a(S'w'
I6
tp2634
a(S'no_np'
I2
tp2635
a(S'no_ll'
I5
tp2636
a(S'w'
I721
tp2637
a(S'w'
I6
tp2638
a(S'p2_tl'
I76
tp2639
a(S'w'
I5
tp2640
a(S'tr_tl'
I87
tp2641
a(S'w'
I3
tp2642
a(S'w'
I1453
tp2643
a(S'p1_tl'
I83
tp2644
a(S'w'
I5
tp2645
a(S'p2_tl'
I79
tp2646
a(S'w'
I7
tp2647
a(S'w'
I1451
tp2648
a(S'w'
I5
tp2649
a(S'p2_tl'
I82
tp2650
a(S'w'
I6
tp2651
a(S'tr_tl'
I86
tp2652
a(S'w'
I3
tp2653
a(S'w'
I1457
tp2654
a(S'tr_ll'
I0
tp2655
a(S'w'
I6
tp2656
a(S'no_ll'
I5
tp2657
a(S'w'
I723
tp2658
a(S'p1_tl'
I82
tp2659
a(S'w'
I5
tp2660
a(S'p2_tl'
I85
tp2661
a(S'w'
I7
tp2662
a(S'w'
I1451
tp2663
a(S'w'
I6
tp2664
a(S'p2_tl'
I88
tp2665
a(S'w'
I5
tp2666
a(S'tr_tl'
I87
tp2667
a(S'w'
I3
tp2668
a(S'w'
I1453
tp2669
a(S'p1_tl'
I83
tp2670
a(S'w'
I5
tp2671
a(S'p2_tl'
I85
tp2672
a(S'w'
I7
tp2673
a(S'w'
I1452
tp2674
a(S'w'
I5
tp2675
a(S'p2_tl'
I82
tp2676
a(S'w'
I6
tp2677
a(S'tr_tl'
I86
tp2678
a(S'w'
I3
tp2679
a(S'w'
I724
tp2680
a(S'tr_ll'
I0
tp2681
a(S'w'
I6
tp2682
a(S'no_ll'
I5
tp2683
a(S'w'
I723
tp2684
a(S'p1_tl'
I82
tp2685
a(S'w'
I5
tp2686
a(S'p2_tl'
I79
tp2687
a(S'w'
I7
tp2688
a(S'w'
I1451
tp2689
a(S'w'
I6
tp2690
a(S'p2_tl'
I76
tp2691
a(S'w'
I5
tp2692
a(S'tr_tl'
I87
tp2693
a(S'w'
I3
tp2694
a(S'w'
I2186
tp2695
a(S'p1_tl'
I83
tp2696
a(S'w'
I5
tp2697
a(S'p2_tl'
I79
tp2698
a(S'w'
I7
tp2699
a(S'w'
I723
tp2700
a(S'tr_tl'
I86
tp2701
a(S'w'
I1
tp2702
a(S'tr_ll'
I0
tp2703
a(S'w'
I6
tp2704
a(S'no_np'
I8
tp2705
a(S'no_ll'
I5
tp2706
a(S'w'
I721
tp2707
a(S'w'
I5
tp2708
a(S'p2_tl'
I82
tp2709
a(S'w'
I6
tp2710
a(S'tr_tl'
I85
tp2711
a(S'w'
I3
tp2712
a(S'w'
I1453
tp2713
a(S'p1_tl'
I82
tp2714
a(S'w'
I5
tp2715
a(S'p2_tl'
I85
tp2716
a(S'w'
I7
tp2717
a(S'w'
I1451
tp2718
a(S'w'
I6
tp2719
a(S'p2_tl'
I88
tp2720
a(S'w'
I5
tp2721
a(S'tr_tl'
I86
tp2722
a(S'w'
I3
tp2723
a(S'w'
I1454
tp2724
a(S'p1_tl'
I83
tp2725
a(S'w'
I5
tp2726
a(S'p2_tl'
I85
tp2727
a(S'w'
I7
tp2728
a(S'w'
I2183
tp2729
a(S'w'
I5
tp2730
a(S'p2_tl'
I82
tp2731
a(S'w'
I6
tp2732
a(S'tr_tl'
I85
tp2733
a(S'w'
I3
tp2734
a(S'w'
I1454
tp2735
a(S'p1_tl'
I82
tp2736
a(S'w'
I5
tp2737
a(S'p2_tl'
I79
tp2738
a(S'w'
I7
tp2739
a(S'w'
I1451
tp2740
a(S'w'
I6
tp2741
a(S'p2_tl'
I76
tp2742
a(S'w'
I5
tp2743
a(S'tr_tl'
I86
tp2744
a(S'w'
I3
tp2745
a(S'w'
I1453
tp2746
a(S'p1_tl'
I83
tp2747
a(S'w'
I5
tp2748
a(S'p2_tl'
I79
tp2749
a(S'w'
I7
tp2750
a(S'w'
I1451
tp2751
a(S'w'
I5
tp2752
a(S'p2_tl'
I82
tp2753
a(S'w'
I6
tp2754
a(S'tr_tl'
I85
tp2755
a(S'w'
I3
tp2756
a(S'w'
I1453
tp2757
a(S'p1_tl'
I82
tp2758
a(S'w'
I5
tp2759
a(S'p2_tl'
I85
tp2760
a(S'w'
I7
tp2761
a(S'w'
I1457
tp2762
a(S'tr_tl'
I86
tp2763
a(S'w'
I1
tp2764
a(S'tr_ll'
I0
tp2765
a(S'w'
I6
tp2766
a(S'no_np'
I2
tp2767
a(S'no_ll'
I5
tp2768
a(S'w'
I720
tp2769
a(S'w'
I6
tp2770
a(S'p2_tl'
I88
tp2771
a(S'w'
I5
tp2772
a(S'tr_tl'
I87
tp2773
a(S'w'
I3
tp2774
a(S'w'
I1453
tp2775
a(S'p1_tl'
I83
tp2776
a(S'w'
I5
tp2777
a(S'p2_tl'
I85
tp2778
a(S'w'
I7
tp2779
a(S'w'
I1452
tp2780
a(S'w'
I5
tp2781
a(S'p2_tl'
I82
tp2782
a(S'w'
I6
tp2783
a(S'tr_tl'
I86
tp2784
a(S'w'
I3
tp2785
a(S'w'
I1453
tp2786
a(S'p1_tl'
I82
tp2787
a(S'w'
I5
tp2788
a(S'p2_tl'
I79
tp2789
a(S'w'
I7
tp2790
a(S'w'
I724
tp2791
a(S'tr_ll'
I0
tp2792
a(S'w'
I6
tp2793
a(S'no_ll'
I5
tp2794
a(S'w'
I721
tp2795
a(S'w'
I6
tp2796
a(S'p2_tl'
I76
tp2797
a(S'w'
I5
tp2798
a(S'tr_tl'
I87
tp2799
a(S'w'
I3
tp2800
a(S'w'
I1453
tp2801
a(S'p1_tl'
I83
tp2802
a(S'w'
I5
tp2803
a(S'p2_tl'
I79
tp2804
a(S'w'
I7
tp2805
a(S'w'
I2184
tp2806
a(S'w'
I5
tp2807
a(S'p2_tl'
I82
tp2808
a(S'w'
I6
tp2809
a(S'tr_tl'
I86
tp2810
a(S'w'
I3
tp2811
a(S'w'
I725
tp2812
a(S'tr_ll'
I0
tp2813
a(S'w'
I6
tp2814
a(S'no_ll'
I5
tp2815
a(S'w'
I722
tp2816
a(S'p1_tl'
I82
tp2817
a(S'w'
I5
tp2818
a(S'p2_tl'
I85
tp2819
a(S'w'
I7
tp2820
a(S'w'
I1451
tp2821
a(S'w'
I6
tp2822
a(S'p2_tl'
I88
tp2823
a(S'w'
I5
tp2824
a(S'tr_tl'
I87
tp2825
a(S'w'
I3
tp2826
a(S'w'
I1454
tp2827
a(S'p1_tl'
I83
tp2828
a(S'w'
I5
tp2829
a(S'p2_tl'
I85
tp2830
a(S'w'
I7
tp2831
a(S'w'
I1451
tp2832
a(S'w'
I5
tp2833
a(S'p2_tl'
I82
tp2834
a(S'w'
I6
tp2835
a(S'tr_tl'
I86
tp2836
a(S'w'
I3
tp2837
a(S'w'
I723
tp2838
a.