(lp1
(S'clock'
p2
I1789772
tp3
a(S'p1_lh'
I1
tp4
a(S'p1_cv'
I1
tp5
a(S'p1_sp'
I1
tp6
a(S'p1_sn'
I1
tp7
a(S'p1_ss'
I1
tp8
a(S'p2_lh'
I1
tp9
a(S'p2_cv'
I1
tp10
a(S'p2_sp'
I1
tp11
a(S'p2_sn'
I1
tp12
a(S'p2_ss'
I1
tp13
a(S'tr_lh'
I1
tp14
a(S'no_lh'
I1
tp15
a(S'no_cv'
I1
tp16
a(S'no_ll'
I20
tp17
a(S'ch_no'
I1
tp18
a(S'ch_tr'
I1
tp19
a(S'ch_p2'
I1
tp20
a(S'ch_p1'
I1
tp21
a(S'fc_mo'
I0
tp22
a(S'p1_vo'
I11
tp23
a(S'w'
I1
tp24
a(S'p1_tl'
I58
tp25
a(S'w'
I1
tp26
a(S'p1_ll'
I20
tp27
a(S'p1_th'
I2
tp28
a(S'w'
I3
tp29
a(S'p2_vo'
I11
tp30
a(S'w'
I2
tp31
a(S'p2_tl'
I142
tp32
a(S'p2_ll'
I20
tp33
a(S'w'
I8
tp34
a(S'no_vo'
I11
tp35
a(S'w'
I1
tp36
a(S'no_np'
I4
tp37
a(S'no_ll'
I20
tp38
a(S'w'
I644
tp39
a(S'p1_tl'
I26
tp40
a(S'w'
I1
tp41
a(S'p1_ll'
I20
tp42
a(S'w'
I5
tp43
a(S'p2_tl'
I134
tp44
a(S'p2_ll'
I20
tp45
a(S'w'
I8
tp46
a(S'no_vo'
I9
tp47
a(S'w'
I705
tp48
a(S'p1_tl'
I252
tp49
a(S'w'
I1
tp50
a(S'p1_ll'
I20
tp51
a(S'p1_th'
I1
tp52
a(S'w'
I4
tp53
a(S'p2_tl'
I127
tp54
a(S'w'
I1
tp55
a(S'p2_ll'
I20
tp56
a(S'w'
I8
tp57
a(S'no_vo'
I7
tp58
a(S'w'
I720
tp59
a(S'p1_tl'
I223
tp60
a(S'p1_ll'
I20
tp61
a(S'w'
I5
tp62
a(S'p2_tl'
I119
tp63
a(S'p2_ll'
I20
tp64
a(S'w'
I8
tp65
a(S'no_vo'
I5
tp66
a(S'w'
I721
tp67
a(S'p1_tl'
I196
tp68
a(S'p1_ll'
I20
tp69
a(S'w'
I5
tp70
a(S'p2_tl'
I113
tp71
a(S'p2_ll'
I20
tp72
a(S'w'
I8
tp73
a(S'no_vo'
I3
tp74
a(S'w'
I721
tp75
a(S'p1_tl'
I171
tp76
a(S'p1_ll'
I20
tp77
a(S'w'
I5
tp78
a(S'p2_tl'
I106
tp79
a(S'w'
I1
tp80
a(S'p2_ll'
I20
tp81
a(S'w'
I8
tp82
a(S'no_vo'
I1
tp83
a(S'w'
I726
tp84
a(S'p1_tl'
I103
tp85
a(S'w'
I1
tp86
a(S'p1_ll'
I20
tp87
a(S'w'
I5
tp88
a(S'p2_tl'
I89
tp89
a(S'p2_ll'
I20
tp90
a(S'w'
I8
tp91
a(S'no_vo'
I11
tp92
a(S'w'
I1
tp93
a(S'w'
I1
tp94
a(S'no_ll'
I20
tp95
a(S'w'
I698
tp96
a(S'p1_vo'
I12
tp97
a(S'w'
I5
tp98
a(S'p2_vo'
I12
tp99
a(S'w'
I8
tp100
a(S'no_vo'
I9
tp101
a(S'w'
I722
tp102
a(S'p1_vo'
I13
tp103
a(S'w'
I4
tp104
a(S'p2_vo'
I13
tp105
a(S'w'
I8
tp106
a(S'no_vo'
I7
tp107
a(S'w'
I721
tp108
a(S'p1_vo'
I14
tp109
a(S'w'
I4
tp110
a(S'p2_vo'
I14
tp111
a(S'w'
I9
tp112
a(S'no_vo'
I5
tp113
a(S'w'
I721
tp114
a(S'p1_vo'
I15
tp115
a(S'w'
I4
tp116
a(S'p2_vo'
I15
tp117
a(S'w'
I9
tp118
a(S'no_vo'
I3
tp119
a(S'w'
I730
tp120
a(S'no_vo'
I1
tp121
a(S'w'
I731
tp122
a(S'p1_vo'
I14
tp123
a(S'w'
I4
tp124
a(S'p2_vo'
I14
tp125
a(S'w'
I9
tp126
a(S'no_vo'
I13
tp127
a(S'w'
I1
tp128
a(S'no_np'
I8
tp129
a(S'w'
I1
tp130
a(S'no_ll'
I20
tp131
a(S'w'
I722
tp132
a(S'no_vo'
I11
tp133
a(S'w'
I724
tp134
a(S'p1_vo'
I13
tp135
a(S'w'
I5
tp136
a(S'p2_vo'
I13
tp137
a(S'w'
I8
tp138
a(S'no_vo'
I9
tp139
a(S'w'
I730
tp140
a(S'no_vo'
I7
tp141
a(S'w'
I725
tp142
a(S'p1_vo'
I12
tp143
a(S'w'
I4
tp144
a(S'p2_vo'
I12
tp145
a(S'w'
I9
tp146
a(S'no_vo'
I5
tp147
a(S'w'
I729
tp148
a(S'no_vo'
I3
tp149
a(S'w'
I743
tp150
a(S'p1_vo'
I11
tp151
a(S'w'
I2
tp152
a(S'p1_tl'
I124
tp153
a(S'p1_ll'
I20
tp154
a(S'w'
I4
tp155
a(S'p2_vo'
I11
tp156
a(S'w'
I1
tp157
a(S'p2_tl'
I95
tp158
a(S'p2_ll'
I20
tp159
a(S'w'
I8
tp160
a(S'no_vo'
I13
tp161
a(S'w'
I1
tp162
a(S'w'
I1
tp163
a(S'no_ll'
I20
tp164
a(S'w'
I699
tp165
a(S'p1_vo'
I12
tp166
a(S'w'
I4
tp167
a(S'p2_vo'
I12
tp168
a(S'w'
I9
tp169
a(S'no_vo'
I11
tp170
a(S'w'
I722
tp171
a(S'p1_vo'
I13
tp172
a(S'w'
I4
tp173
a(S'p2_vo'
I13
tp174
a(S'w'
I9
tp175
a(S'no_vo'
I9
tp176
a(S'w'
I720
tp177
a(S'p1_vo'
I14
tp178
a(S'w'
I4
tp179
a(S'p2_vo'
I14
tp180
a(S'w'
I9
tp181
a(S'no_vo'
I7
tp182
a(S'w'
I721
tp183
a(S'p1_vo'
I15
tp184
a(S'w'
I4
tp185
a(S'p2_vo'
I15
tp186
a(S'w'
I9
tp187
a(S'no_vo'
I5
tp188
a(S'w'
I729
tp189
a(S'no_vo'
I3
tp190
a(S'w'
I747
tp191
a(S'p1_vo'
I11
tp192
a(S'w'
I2
tp193
a(S'p1_tl'
I196
tp194
a(S'p1_ll'
I20
tp195
a(S'w'
I4
tp196
a(S'p2_vo'
I11
tp197
a(S'w'
I1
tp198
a(S'p2_tl'
I113
tp199
a(S'p2_ll'
I20
tp200
a(S'w'
I8
tp201
a(S'no_vo'
I11
tp202
a(S'w'
I1
tp203
a(S'no_np'
I4
tp204
a(S'w'
I1
tp205
a(S'no_ll'
I20
tp206
a(S'w'
I695
tp207
a(S'p1_vo'
I12
tp208
a(S'w'
I4
tp209
a(S'p2_vo'
I12
tp210
a(S'w'
I9
tp211
a(S'no_vo'
I9
tp212
a(S'w'
I721
tp213
a(S'p1_vo'
I13
tp214
a(S'w'
I5
tp215
a(S'p2_vo'
I13
tp216
a(S'w'
I8
tp217
a(S'no_vo'
I7
tp218
a(S'w'
I721
tp219
a(S'p1_vo'
I14
tp220
a(S'w'
I4
tp221
a(S'p2_vo'
I14
tp222
a(S'w'
I8
tp223
a(S'no_vo'
I5
tp224
a(S'w'
I722
tp225
a(S'p1_vo'
I15
tp226
a(S'w'
I4
tp227
a(S'p2_vo'
I15
tp228
a(S'w'
I8
tp229
a(S'no_vo'
I3
tp230
a(S'w'
I730
tp231
a(S'no_vo'
I1
tp232
a(S'w'
I729
tp233
a(S'p1_vo'
I14
tp234
a(S'w'
I5
tp235
a(S'p2_vo'
I14
tp236
a(S'w'
I8
tp237
a(S'no_vo'
I11
tp238
a(S'w'
I1
tp239
a(S'w'
I1
tp240
a(S'no_ll'
I20
tp241
a(S'w'
I724
tp242
a(S'no_vo'
I9
tp243
a(S'w'
I725
tp244
a(S'p1_vo'
I13
tp245
a(S'w'
I4
tp246
a(S'p2_vo'
I13
tp247
a(S'w'
I9
tp248
a(S'no_vo'
I7
tp249
a(S'w'
I730
tp250
a(S'no_vo'
I5
tp251
a(S'w'
I724
tp252
a(S'p1_vo'
I12
tp253
a(S'w'
I5
tp254
a(S'p2_vo'
I12
tp255
a(S'w'
I8
tp256
a(S'no_vo'
I3
tp257
a(S'w'
I730
tp258
a(S'no_vo'
I1
tp259
a(S'w'
I743
tp260
a(S'p1_vo'
I11
tp261
a(S'w'
I1
tp262
a(S'p1_tl'
I171
tp263
a(S'w'
I1
tp264
a(S'p1_ll'
I20
tp265
a(S'w'
I3
tp266
a(S'p2_vo'
I11
tp267
a(S'w'
I2
tp268
a(S'p2_tl'
I106
tp269
a(S'p2_ll'
I20
tp270
a(S'w'
I8
tp271
a(S'no_vo'
I13
tp272
a(S'w'
I1
tp273
a(S'no_np'
I8
tp274
a(S'w'
I1
tp275
a(S'no_ll'
I20
tp276
a(S'w'
I698
tp277
a(S'p1_vo'
I12
tp278
a(S'w'
I5
tp279
a(S'p2_vo'
I12
tp280
a(S'w'
I8
tp281
a(S'no_vo'
I11
tp282
a(S'w'
I722
tp283
a(S'p1_vo'
I13
tp284
a(S'w'
I4
tp285
a(S'p2_vo'
I13
tp286
a(S'w'
I8
tp287
a(S'no_vo'
I9
tp288
a(S'w'
I721
tp289
a(S'p1_vo'
I14
tp290
a(S'w'
I4
tp291
a(S'p2_vo'
I14
tp292
a(S'w'
I9
tp293
a(S'no_vo'
I7
tp294
a(S'w'
I722
tp295
a(S'p1_vo'
I15
tp296
a(S'w'
I4
tp297
a(S'p2_vo'
I15
tp298
a(S'w'
I9
tp299
a(S'no_vo'
I5
tp300
a(S'w'
I729
tp301
a(S'no_vo'
I3
tp302
a(S'w'
I729
tp303
a(S'p1_vo'
I14
tp304
a(S'w'
I4
tp305
a(S'p2_vo'
I14
tp306
a(S'w'
I9
tp307
a(S'no_vo'
I13
tp308
a(S'w'
I1
tp309
a(S'no_ll'
I20
tp310
a(S'w'
I724
tp311
a(S'no_vo'
I11
tp312
a(S'w'
I725
tp313
a(S'p1_vo'
I13
tp314
a(S'w'
I5
tp315
a(S'p2_vo'
I13
tp316
a(S'w'
I8
tp317
a(S'no_vo'
I9
tp318
a(S'w'
I730
tp319
a(S'no_vo'
I7
tp320
a(S'w'
I725
tp321
a(S'p1_vo'
I12
tp322
a(S'w'
I5
tp323
a(S'p2_vo'
I12
tp324
a(S'w'
I8
tp325
a(S'no_vo'
I5
tp326
a(S'w'
I729
tp327
a(S'no_vo'
I3
tp328
a(S'w'
I747
tp329
a(S'p1_vo'
I11
tp330
a(S'w'
I2
tp331
a(S'p1_tl'
I26
tp332
a(S'p1_ll'
I20
tp333
a(S'p1_th'
I2
tp334
a(S'w'
I4
tp335
a(S'p2_vo'
I11
tp336
a(S'w'
I1
tp337
a(S'p2_tl'
I134
tp338
a(S'p2_ll'
I20
tp339
a(S'w'
I8
tp340
a(S'no_vo'
I11
tp341
a(S'w'
I1
tp342
a(S'no_np'
I4
tp343
a(S'w'
I1
tp344
a(S'no_ll'
I20
tp345
a(S'w'
I707
tp346
a(S'p1_tl'
I252
tp347
a(S'w'
I1
tp348
a(S'p1_ll'
I20
tp349
a(S'p1_th'
I1
tp350
a(S'w'
I5
tp351
a(S'p2_tl'
I127
tp352
a(S'p2_ll'
I20
tp353
a(S'w'
I8
tp354
a(S'no_vo'
I9
tp355
a(S'w'
I721
tp356
a(S'p1_tl'
I223
tp357
a(S'p1_ll'
I20
tp358
a(S'w'
I5
tp359
a(S'p2_tl'
I119
tp360
a(S'p2_ll'
I20
tp361
a(S'w'
I8
tp362
a(S'no_vo'
I7
tp363
a(S'w'
I720
tp364
a(S'p1_tl'
I196
tp365
a(S'p1_ll'
I20
tp366
a(S'w'
I5
tp367
a(S'p2_tl'
I113
tp368
a(S'w'
I1
tp369
a(S'p2_ll'
I20
tp370
a(S'w'
I8
tp371
a(S'no_vo'
I5
tp372
a(S'w'
I721
tp373
a(S'p1_tl'
I171
tp374
a(S'p1_ll'
I20
tp375
a(S'w'
I5
tp376
a(S'p2_tl'
I106
tp377
a(S'p2_ll'
I20
tp378
a(S'w'
I8
tp379
a(S'no_vo'
I3
tp380
a(S'w'
I721
tp381
a(S'p1_tl'
I147
tp382
a(S'p1_ll'
I20
tp383
a(S'w'
I5
tp384
a(S'p2_tl'
I100
tp385
a(S'w'
I1
tp386
a(S'p2_ll'
I20
tp387
a(S'w'
I7
tp388
a(S'no_vo'
I1
tp389
a(S'w'
I725
tp390
a(S'p1_tl'
I124
tp391
a(S'p1_ll'
I20
tp392
a(S'w'
I5
tp393
a(S'p2_tl'
I95
tp394
a(S'p2_ll'
I20
tp395
a(S'w'
I8
tp396
a(S'no_vo'
I11
tp397
a(S'w'
I1
tp398
a(S'w'
I1
tp399
a(S'no_ll'
I20
tp400
a(S'w'
I714
tp401
a(S'p1_tl'
I103
tp402
a(S'p1_ll'
I20
tp403
a(S'w'
I5
tp404
a(S'p2_tl'
I89
tp405
a(S'w'
I1
tp406
a(S'p2_ll'
I20
tp407
a(S'w'
I8
tp408
a(S'no_vo'
I9
tp409
a(S'w'
I720
tp410
a(S'p1_tl'
I83
tp411
a(S'p1_ll'
I20
tp412
a(S'w'
I5
tp413
a(S'p2_tl'
I84
tp414
a(S'w'
I1
tp415
a(S'p2_ll'
I20
tp416
a(S'w'
I8
tp417
a(S'no_vo'
I7
tp418
a(S'w'
I720
tp419
a(S'p1_tl'
I64
tp420
a(S'p1_ll'
I20
tp421
a(S'w'
I5
tp422
a(S'p2_tl'
I80
tp423
a(S'p2_ll'
I20
tp424
a(S'w'
I8
tp425
a(S'no_vo'
I5
tp426
a(S'w'
I721
tp427
a(S'p1_tl'
I46
tp428
a(S'p1_ll'
I20
tp429
a(S'w'
I5
tp430
a(S'p2_tl'
I75
tp431
a(S'p2_ll'
I20
tp432
a(S'w'
I8
tp433
a(S'no_vo'
I3
tp434
a(S'w'
I720
tp435
a(S'p1_tl'
I29
tp436
a(S'w'
I1
tp437
a(S'p1_ll'
I20
tp438
a(S'w'
I4
tp439
a(S'p2_tl'
I71
tp440
a(S'w'
I1
tp441
a(S'p2_ll'
I20
tp442
a(S'w'
I8
tp443
a(S'no_vo'
I1
tp444
a(S'w'
I730
tp445
a(S'p1_tl'
I13
tp446
a(S'p1_ll'
I20
tp447
a(S'w'
I5
tp448
a(S'p2_tl'
I67
tp449
a(S'w'
I1
tp450
a(S'p2_ll'
I20
tp451
a(S'w'
I7
tp452
a(S'no_vo'
I14
tp453
a(S'w'
I2
tp454
a(S'no_np'
I8
tp455
a(S'no_ll'
I20
tp456
a(S'w'
I696
tp457
a(S'p1_vo'
I12
tp458
a(S'w'
I4
tp459
a(S'p2_vo'
I12
tp460
a(S'w'
I8
tp461
a(S'no_vo'
I12
tp462
a(S'w'
I722
tp463
a(S'p1_vo'
I13
tp464
a(S'w'
I4
tp465
a(S'p2_vo'
I13
tp466
a(S'w'
I9
tp467
a(S'no_vo'
I10
tp468
a(S'w'
I720
tp469
a(S'p1_vo'
I14
tp470
a(S'w'
I5
tp471
a(S'p2_vo'
I14
tp472
a(S'w'
I8
tp473
a(S'no_vo'
I8
tp474
a(S'w'
I722
tp475
a(S'p1_vo'
I15
tp476
a(S'w'
I4
tp477
a(S'p2_vo'
I15
tp478
a(S'w'
I8
tp479
a(S'no_vo'
I6
tp480
a(S'w'
I730
tp481
a(S'no_vo'
I4
tp482
a(S'w'
I725
tp483
a(S'p1_vo'
I14
tp484
a(S'w'
I5
tp485
a(S'p2_vo'
I14
tp486
a(S'w'
I8
tp487
a(S'no_vo'
I2
tp488
a(S'w'
I729
tp489
a(S'no_vo'
I0
tp490
a(S'w'
I726
tp491
a(S'p1_vo'
I13
tp492
a(S'w'
I4
tp493
a(S'p2_vo'
I13
tp494
a(S'w'
I1461
tp495
a(S'p1_vo'
I12
tp496
a(S'w'
I5
tp497
a(S'p2_vo'
I12
tp498
a(S'w'
I1481
tp499
a(S'p1_vo'
I11
tp500
a(S'w'
I1
tp501
a(S'p1_tl'
I29
tp502
a(S'p1_ll'
I20
tp503
a(S'w'
I4
tp504
a(S'p2_vo'
I11
tp505
a(S'w'
I1
tp506
a(S'p2_tl'
I71
tp507
a(S'w'
I1
tp508
a(S'p2_ll'
I20
tp509
a(S'w'
I8
tp510
a(S'no_vo'
I14
tp511
a(S'w'
I1
tp512
a(S'no_ll'
I20
tp513
a(S'w'
I702
tp514
a(S'p1_vo'
I12
tp515
a(S'w'
I4
tp516
a(S'p2_vo'
I12
tp517
a(S'w'
I9
tp518
a(S'no_vo'
I12
tp519
a(S'w'
I721
tp520
a(S'p1_vo'
I13
tp521
a(S'w'
I4
tp522
a(S'p2_vo'
I13
tp523
a(S'w'
I8
tp524
a(S'no_vo'
I10
tp525
a(S'w'
I721
tp526
a(S'p1_vo'
I14
tp527
a(S'w'
I4
tp528
a(S'p2_vo'
I14
tp529
a(S'w'
I9
tp530
a(S'no_vo'
I8
tp531
a(S'w'
I721
tp532
a(S'p1_vo'
I15
tp533
a(S'w'
I4
tp534
a(S'p2_vo'
I15
tp535
a(S'w'
I9
tp536
a(S'no_vo'
I6
tp537
a(S'w'
I729
tp538
a(S'no_vo'
I4
tp539
a(S'w'
I726
tp540
a(S'p1_vo'
I14
tp541
a(S'w'
I4
tp542
a(S'p2_vo'
I14
tp543
a(S'w'
I9
tp544
a(S'no_vo'
I2
tp545
a(S'w'
I729
tp546
a(S'no_vo'
I0
tp547
a(S'w'
I726
tp548
a(S'p1_vo'
I13
tp549
a(S'w'
I4
tp550
a(S'p2_vo'
I13
tp551
a(S'w'
I1461
tp552
a(S'p1_vo'
I12
tp553
a(S'w'
I4
tp554
a(S'p2_vo'
I12
tp555
a(S'w'
I1473
tp556
a(S'p1_vo'
I0
tp557
a(S'w'
I4
tp558
a(S'p2_vo'
I0
tp559
a(S'w'
I10
tp560
a(S'no_np'
I0
tp561
a(S'w'
I1
tp562
a(S'no_ll'
I20
tp563
a(S'w'
I1
tp564
a.