(lp1
(S'clock'
p2
I1789772
tp3
a(S'p1_lh'
I1
tp4
a(S'p1_cv'
I1
tp5
a(S'p1_sp'
I1
tp6
a(S'p1_sn'
I1
tp7
a(S'p1_ss'
I1
tp8
a(S'p2_lh'
I1
tp9
a(S'p2_cv'
I1
tp10
a(S'p2_sp'
I1
tp11
a(S'p2_sn'
I1
tp12
a(S'p2_ss'
I1
tp13
a(S'tr_lh'
I1
tp14
a(S'no_lh'
I1
tp15
a(S'no_cv'
I1
tp16
a(S'no_ll'
I20
tp17
a(S'ch_no'
I1
tp18
a(S'ch_tr'
I1
tp19
a(S'ch_p2'
I1
tp20
a(S'ch_p1'
I1
tp21
a(S'fc_mo'
I0
tp22
a(S'p1_du'
I2
tp23
a(S'p1_vo'
I7
tp24
a(S'w'
I1
tp25
a(S'p1_tl'
I35
tp26
a(S'p1_ll'
I20
tp27
a(S'w'
I4
tp28
a(S'p2_du'
I2
tp29
a(S'w'
I4
tp30
a(S'tr_lr'
I15
tp31
a(S'w'
I2
tp32
a(S'tr_tl'
I14
tp33
a(S'tr_ll'
I20
tp34
a(S'w'
I5
tp35
a(S'no_np'
I1
tp36
a(S'no_ll'
I20
tp37
a(S'w'
I1396
tp38
a(S'tr_tl'
I17
tp39
a(S'tr_ll'
I20
tp40
a(S'w'
I1467
tp41
a(S'tr_tl'
I14
tp42
a(S'w'
I1
tp43
a(S'tr_ll'
I20
tp44
a(S'w'
I718
tp45
a(S'p1_vo'
I6
tp46
a(S'w'
I749
tp47
a(S'tr_tl'
I18
tp48
a(S'w'
I1
tp49
a(S'tr_ll'
I20
tp50
a(S'w'
I1466
tp51
a(S'tr_tl'
I15
tp52
a(S'w'
I1
tp53
a(S'tr_ll'
I20
tp54
a(S'w'
I1461
tp55
a(S'p1_vo'
I5
tp56
a(S'w'
I10
tp57
a(S'tr_tl'
I20
tp58
a(S'tr_ll'
I20
tp59
a(S'w'
I1464
tp60
a(S'tr_tl'
I16
tp61
a(S'tr_ll'
I20
tp62
a(S'w'
I1467
tp63
a(S'tr_tl'
I21
tp64
a(S'w'
I1
tp65
a(S'tr_ll'
I20
tp66
a(S'w'
I725
tp67
a(S'p1_vo'
I3
tp68
a(S'w'
I5
tp69
a(S'p2_vo'
I7
tp70
a(S'w'
I1
tp71
a(S'p2_tl'
I42
tp72
a(S'p2_ll'
I20
tp73
a(S'w'
I736
tp74
a(S'tr_tl'
I17
tp75
a(S'tr_ll'
I20
tp76
a(S'w'
I1467
tp77
a(S'tr_tl'
I22
tp78
a(S'w'
I1
tp79
a(S'tr_ll'
I20
tp80
a(S'w'
I1461
tp81
a(S'p1_vo'
I2
tp82
a(S'w'
I4
tp83
a(S'p2_vo'
I6
tp84
a(S'w'
I6
tp85
a(S'tr_tl'
I18
tp86
a(S'tr_ll'
I20
tp87
a(S'w'
I1464
tp88
a(S'tr_tl'
I23
tp89
a(S'tr_ll'
I20
tp90
a(S'w'
I1467
tp91
a(S'tr_tl'
I20
tp92
a(S'w'
I1
tp93
a(S'tr_ll'
I20
tp94
a(S'w'
I718
tp95
a(S'p1_vo'
I1
tp96
a(S'w'
I4
tp97
a(S'p2_vo'
I5
tp98
a(S'w'
I745
tp99
a(S'tr_tl'
I25
tp100
a(S'w'
I1
tp101
a(S'tr_ll'
I20
tp102
a(S'w'
I1466
tp103
a(S'tr_tl'
I21
tp104
a(S'w'
I1
tp105
a(S'tr_ll'
I20
tp106
a(S'w'
I1468
tp107
a(S'p1_vo'
I7
tp108
a(S'w'
I1
tp109
a(S'p1_tl'
I53
tp110
a(S'p1_ll'
I20
tp111
a(S'w'
I4
tp112
a(S'p2_vo'
I3
tp113
a(S'w'
I6
tp114
a(S'tr_tl'
I26
tp115
a(S'tr_ll'
I20
tp116
a(S'w'
I1456
tp117
a(S'tr_tl'
I22
tp118
a(S'tr_ll'
I20
tp119
a(S'w'
I1467
tp120
a(S'tr_tl'
I28
tp121
a(S'tr_ll'
I20
tp122
a(S'w'
I719
tp123
a(S'p1_vo'
I6
tp124
a(S'w'
I4
tp125
a(S'p2_vo'
I2
tp126
a(S'w'
I745
tp127
a(S'tr_tl'
I23
tp128
a(S'tr_ll'
I20
tp129
a(S'w'
I1467
tp130
a(S'tr_tl'
I29
tp131
a(S'tr_ll'
I20
tp132
a(S'w'
I1462
tp133
a(S'p1_vo'
I5
tp134
a(S'w'
I4
tp135
a(S'p2_vo'
I1
tp136
a(S'w'
I6
tp137
a(S'tr_tl'
I25
tp138
a(S'tr_ll'
I20
tp139
a(S'w'
I1463
tp140
a(S'tr_tl'
I31
tp141
a(S'w'
I1
tp142
a(S'tr_ll'
I20
tp143
a(S'w'
I1467
tp144
a(S'tr_tl'
I26
tp145
a(S'w'
I1
tp146
a(S'tr_ll'
I20
tp147
a(S'w'
I724
tp148
a(S'p1_vo'
I3
tp149
a(S'w'
I4
tp150
a(S'p2_vo'
I7
tp151
a(S'w'
I2
tp152
a(S'p2_tl'
I63
tp153
a(S'p2_ll'
I20
tp154
a(S'w'
I737
tp155
a(S'tr_tl'
I33
tp156
a(S'tr_ll'
I20
tp157
a(S'w'
I1467
tp158
a(S'tr_tl'
I28
tp159
a(S'tr_ll'
I20
tp160
a(S'w'
I1462
tp161
a(S'p1_vo'
I2
tp162
a(S'w'
I4
tp163
a(S'p2_vo'
I6
tp164
a(S'w'
I6
tp165
a(S'tr_tl'
I35
tp166
a(S'tr_ll'
I20
tp167
a(S'w'
I1464
tp168
a(S'tr_tl'
I29
tp169
a(S'tr_ll'
I20
tp170
a(S'w'
I1467
tp171
a(S'tr_tl'
I37
tp172
a(S'tr_ll'
I20
tp173
a(S'w'
I719
tp174
a(S'p1_vo'
I1
tp175
a(S'w'
I4
tp176
a(S'p2_vo'
I5
tp177
a(S'w'
I745
tp178
a(S'tr_tl'
I31
tp179
a(S'tr_ll'
I20
tp180
a(S'w'
I1467
tp181
a(S'tr_tl'
I40
tp182
a(S'w'
I1
tp183
a(S'tr_ll'
I20
tp184
a(S'w'
I1466
tp185
a(S'p1_vo'
I7
tp186
a(S'w'
I2
tp187
a(S'p1_tl'
I35
tp188
a(S'p1_ll'
I20
tp189
a(S'w'
I4
tp190
a(S'p2_vo'
I3
tp191
a(S'w'
I5
tp192
a(S'tr_tl'
I171
tp193
a(S'w'
I1
tp194
a(S'tr_ll'
I20
tp195
a(S'tr_th'
I1
tp196
a(S'w'
I1455
tp197
a(S'tr_tl'
I147
tp198
a(S'w'
I1
tp199
a(S'tr_ll'
I20
tp200
a(S'w'
I1467
tp201
a(S'tr_tl'
I124
tp202
a(S'tr_ll'
I20
tp203
a(S'w'
I720
tp204
a(S'p1_vo'
I6
tp205
a(S'w'
I4
tp206
a(S'p2_vo'
I2
tp207
a(S'w'
I744
tp208
a(S'tr_tl'
I103
tp209
a(S'tr_ll'
I20
tp210
a(S'w'
I1467
tp211
a(S'tr_tl'
I83
tp212
a(S'tr_ll'
I20
tp213
a(S'w'
I1462
tp214
a(S'p1_vo'
I5
tp215
a(S'w'
I4
tp216
a(S'p2_vo'
I1
tp217
a(S'w'
I5
tp218
a(S'tr_tl'
I64
tp219
a(S'w'
I1
tp220
a(S'tr_ll'
I20
tp221
a(S'w'
I1464
tp222
a(S'tr_tl'
I46
tp223
a(S'tr_ll'
I20
tp224
a(S'w'
I1467
tp225
a(S'tr_tl'
I29
tp226
a(S'tr_ll'
I20
tp227
a(S'w'
I727
tp228
a(S'p1_vo'
I3
tp229
a(S'w'
I4
tp230
a(S'p2_vo'
I7
tp231
a(S'w'
I1
tp232
a(S'p2_tl'
I42
tp233
a(S'p2_ll'
I20
tp234
a(S'w'
I735
tp235
a(S'tr_tl'
I13
tp236
a(S'w'
I1
tp237
a(S'tr_ll'
I20
tp238
a(S'w'
I1467
tp239
a(S'tr_tl'
I254
tp240
a(S'tr_ll'
I20
tp241
a(S'tr_th'
I0
tp242
a(S'w'
I1462
tp243
a(S'p1_vo'
I2
tp244
a(S'w'
I4
tp245
a(S'p2_vo'
I6
tp246
a(S'w'
I6
tp247
a(S'tr_tl'
I239
tp248
a(S'tr_ll'
I20
tp249
a(S'w'
I1463
tp250
a(S'tr_tl'
I226
tp251
a(S'w'
I1
tp252
a(S'tr_ll'
I20
tp253
a(S'w'
I1467
tp254
a(S'tr_tl'
I213
tp255
a(S'w'
I1
tp256
a(S'tr_ll'
I20
tp257
a(S'w'
I719
tp258
a(S'p1_vo'
I1
tp259
a(S'w'
I4
tp260
a(S'p2_vo'
I5
tp261
a(S'w'
I744
tp262
a(S'tr_tl'
I201
tp263
a(S'w'
I1
tp264
a(S'tr_ll'
I20
tp265
a(S'w'
I1466
tp266
a(S'tr_tl'
I190
tp267
a(S'w'
I1
tp268
a(S'tr_ll'
I20
tp269
a(S'w'
I1468
tp270
a(S'p1_vo'
I7
tp271
a(S'w'
I1
tp272
a(S'p1_tl'
I53
tp273
a(S'p1_ll'
I20
tp274
a(S'w'
I4
tp275
a(S'p2_vo'
I3
tp276
a(S'w'
I6
tp277
a(S'tr_tl'
I179
tp278
a(S'tr_ll'
I20
tp279
a(S'w'
I1456
tp280
a(S'tr_tl'
I169
tp281
a(S'tr_ll'
I20
tp282
a(S'w'
I1467
tp283
a(S'tr_tl'
I160
tp284
a(S'w'
I1
tp285
a(S'tr_ll'
I20
tp286
a(S'w'
I719
tp287
a(S'p1_vo'
I6
tp288
a(S'w'
I4
tp289
a(S'p2_vo'
I2
tp290
a(S'w'
I744
tp291
a(S'tr_tl'
I151
tp292
a(S'tr_ll'
I20
tp293
a(S'w'
I1467
tp294
a(S'tr_tl'
I142
tp295
a(S'w'
I1
tp296
a(S'tr_ll'
I20
tp297
a(S'w'
I1461
tp298
a(S'p1_vo'
I5
tp299
a(S'w'
I4
tp300
a(S'p2_vo'
I1
tp301
a(S'w'
I6
tp302
a(S'tr_tl'
I134
tp303
a(S'tr_ll'
I20
tp304
a(S'w'
I1464
tp305
a(S'tr_tl'
I127
tp306
a(S'tr_ll'
I20
tp307
a(S'w'
I1467
tp308
a(S'tr_tl'
I119
tp309
a(S'w'
I1
tp310
a(S'tr_ll'
I20
tp311
a(S'w'
I725
tp312
a(S'p1_vo'
I3
tp313
a(S'w'
I4
tp314
a(S'p2_vo'
I7
tp315
a(S'w'
I2
tp316
a(S'p2_tl'
I63
tp317
a(S'p2_ll'
I20
tp318
a(S'w'
I736
tp319
a(S'tr_tl'
I113
tp320
a(S'w'
I1
tp321
a(S'tr_ll'
I20
tp322
a(S'w'
I1467
tp323
a(S'tr_tl'
I106
tp324
a(S'tr_ll'
I20
tp325
a(S'w'
I1461
tp326
a(S'p1_vo'
I2
tp327
a(S'w'
I5
tp328
a(S'p2_vo'
I6
tp329
a(S'w'
I5
tp330
a(S'tr_tl'
I100
tp331
a(S'w'
I1
tp332
a(S'tr_ll'
I20
tp333
a(S'w'
I1463
tp334
a(S'tr_tl'
I95
tp335
a(S'w'
I1
tp336
a(S'tr_ll'
I20
tp337
a(S'w'
I1467
tp338
a(S'tr_tl'
I89
tp339
a(S'tr_ll'
I20
tp340
a(S'w'
I719
tp341
a(S'p1_vo'
I1
tp342
a(S'w'
I4
tp343
a(S'p2_vo'
I5
tp344
a(S'w'
I744
tp345
a(S'tr_tl'
I84
tp346
a(S'w'
I1
tp347
a(S'tr_ll'
I20
tp348
a(S'w'
I1467
tp349
a(S'tr_tl'
I80
tp350
a(S'tr_ll'
I20
tp351
a(S'w'
I1459
tp352
a(S'p1_du'
I0
tp353
a(S'p1_vo'
I0
tp354
a(S'w'
I4
tp355
a(S'p2_vo'
I3
tp356
a(S'w'
I5
tp357
a(S'tr_lr'
I0
tp358
a(S'w'
I3652
tp359
a(S'p2_vo'
I2
tp360
a(S'w'
I3669
tp361
a(S'p2_vo'
I1
tp362
a(S'w'
I3672
tp363
a(S'p2_du'
I0
tp364
a(S'p2_vo'
I0
tp365
a(S'w'
I1
tp366
a.