(lp1
(S'clock'
p2
I1789772
tp3
a(S'ch_no'
I1
tp4
a(S'ch_tr'
I1
tp5
a(S'ch_p2'
I1
tp6
a(S'ch_p1'
I1
tp7
a(S'w'
I29
tp8
a(S'p1_du'
I2
tp9
a(S'p1_lh'
I1
tp10
a(S'p1_cv'
I1
tp11
a(S'p1_vo'
I10
tp12
a(S'w'
I5
tp13
a(S'p1_tl'
I252
tp14
a(S'p1_ll'
I0
tp15
a(S'p1_th'
I1
tp16
a(S'w'
I6
tp17
a(S'p2_du'
I2
tp18
a(S'p2_lh'
I1
tp19
a(S'p2_cv'
I1
tp20
a(S'p2_vo'
I12
tp21
a(S'p2_se'
I1
tp22
a(S'w'
I3
tp23
a(S'p2_du'
I0
tp24
a(S'p2_vo'
I0
tp25
a(S'w'
I5
tp26
a(S'tr_lh'
I1
tp27
a(S'tr_lr'
I127
tp28
a(S'w'
I6
tp29
a(S'tr_tl'
I254
tp30
a(S'tr_ll'
I0
tp31
a(S'w'
I5
tp32
a(S'no_cv'
I1
tp33
a(S'no_vo'
I6
tp34
a(S'w'
I8
tp35
a(S'no_np'
I6
tp36
a(S'no_ll'
I1
tp37
a(S'w'
I2143
tp38
a(S'no_vo'
I3
tp39
a(S'w'
I1467
tp40
a(S'no_vo'
I1
tp41
a(S'w'
I1468
tp42
a(S'no_vo'
I0
tp43
a(S'w'
I1465
tp44
a(S'p1_vo'
I8
tp45
a(S'w'
I5870
tp46
a(S'p1_vo'
I6
tp47
a(S'w'
I5140
tp48
a(S'p1_tl'
I254
tp49
a(S'p1_ll'
I0
tp50
a(S'p1_th'
I0
tp51
a(S'w'
I730
tp52
a(S'p1_vo'
I10
tp53
a(S'w'
I5871
tp54
a(S'p1_vo'
I8
tp55
a(S'w'
I5870
tp56
a(S'p1_vo'
I6
tp57
a(S'w'
I5140
tp58
a(S'p2_tl'
I171
tp59
a(S'w'
I1
tp60
a(S'p2_ll'
I0
tp61
a(S'p2_th'
I1
tp62
a(S'w'
I5
tp63
a(S'w'
I1
tp64
a(S'no_ll'
I1
tp65
a(S'w'
I723
tp66
a(S'p1_vo'
I4
tp67
a(S'w'
I5
tp68
a(S'p2_du'
I2
tp69
a(S'p2_vo'
I12
tp70
a(S'w'
I6
tp71
a(S'no_vo'
I6
tp72
a(S'w'
I1460
tp73
a(S'no_vo'
I3
tp74
a(S'w'
I1468
tp75
a(S'no_vo'
I1
tp76
a(S'w'
I1468
tp77
a(S'no_vo'
I0
tp78
a(S'w'
I1464
tp79
a(S'p1_vo'
I2
tp80
a(S'w'
I735
tp81
a(S'p2_vo'
I14
tp82
a(S'w'
I5135
tp83
a(S'p1_vo'
I0
tp84
a(S'w'
I1470
tp85
a(S'p2_vo'
I12
tp86
a(S'w'
I3671
tp87
a(S'p2_tl'
I125
tp88
a(S'p2_ll'
I0
tp89
a(S'w'
I7334
tp90
a(S'p2_vo'
I14
tp91
a(S'w'
I6605
tp92
a(S'p2_vo'
I12
tp93
a(S'w'
I3670
tp94
a(S'p1_tl'
I252
tp95
a(S'p1_ll'
I0
tp96
a(S'p1_th'
I1
tp97
a(S'w'
I8
tp98
a(S'p2_tl'
I83
tp99
a(S'p2_ll'
I0
tp100
a(S'w'
I7
tp101
a(S'tr_tl'
I64
tp102
a(S'tr_ll'
I0
tp103
a(S'tr_th'
I1
tp104
a(S'w'
I7
tp105
a(S'no_ll'
I1
tp106
a(S'w'
I709
tp107
a(S'p1_vo'
I10
tp108
a(S'w'
I14
tp109
a(S'no_vo'
I12
tp110
a(S'w'
I1458
tp111
a(S'no_vo'
I9
tp112
a(S'w'
I1466
tp113
a(S'no_vo'
I7
tp114
a(S'w'
I1469
tp115
a(S'no_vo'
I5
tp116
a(S'w'
I1464
tp117
a(S'p1_vo'
I8
tp118
a(S'w'
I7
tp119
a(S'no_vo'
I3
tp120
a(S'w'
I728
tp121
a(S'p2_vo'
I14
tp122
a(S'w'
I735
tp123
a(S'no_vo'
I1
tp124
a(S'w'
I1468
tp125
a(S'no_vo'
I0
tp126
a(S'w'
I2932
tp127
a(S'p1_vo'
I6
tp128
a(S'w'
I1470
tp129
a(S'p2_vo'
I12
tp130
a(S'w'
I3671
tp131
a(S'p2_tl'
I125
tp132
a(S'p2_ll'
I0
tp133
a(S'w'
I729
tp134
a(S'p1_vo'
I4
tp135
a(S'w'
I5871
tp136
a(S'p1_vo'
I2
tp137
a(S'w'
I735
tp138
a(S'p2_vo'
I14
tp139
a(S'w'
I5135
tp140
a(S'p1_vo'
I0
tp141
a(S'w'
I1470
tp142
a(S'p2_vo'
I12
tp143
a(S'w'
I3673
tp144
a(S'no_ll'
I1
tp145
a(S'w'
I732
tp146
a(S'no_vo'
I6
tp147
a(S'w'
I1466
tp148
a(S'no_vo'
I3
tp149
a(S'w'
I732
tp150
a(S'p2_vo'
I8
tp151
a(S'w'
I735
tp152
a(S'no_vo'
I1
tp153
a(S'w'
I1468
tp154
a(S'no_vo'
I0
tp155
a(S'w'
I4401
tp156
a(S'p2_vo'
I12
tp157
a(S'w'
I6604
tp158
a(S'p2_vo'
I14
tp159
a(S'w'
I1
tp160
a(S'p2_se'
I0
tp161
a(S'w'
I1469
tp162
a(S'p2_tl'
I171
tp163
a(S'w'
I1
tp164
a(S'p2_ll'
I0
tp165
a(S'w'
I730
tp166
a(S'p2_vo'
I12
tp167
a(S'w'
I1
tp168
a(S'p2_se'
I1
tp169
a(S'w'
I6603
tp170
a(S'p2_vo'
I14
tp171
a(S'w'
I6605
tp172
a(S'p2_vo'
I12
tp173
a(S'w'
I3670
tp174
a(S'p1_tl'
I195
tp175
a(S'p1_ll'
I0
tp176
a(S'w'
I8
tp177
a(S'p2_tl'
I29
tp178
a(S'p2_ll'
I0
tp179
a(S'w'
I7
tp180
a(S'tr_tl'
I83
tp181
a(S'tr_ll'
I0
tp182
a(S'w'
I9
tp183
a(S'no_ll'
I1
tp184
a(S'w'
I707
tp185
a(S'p1_vo'
I10
tp186
a(S'w'
I14
tp187
a(S'no_vo'
I6
tp188
a(S'w'
I1458
tp189
a(S'no_vo'
I3
tp190
a(S'w'
I1466
tp191
a(S'no_vo'
I1
tp192
a(S'w'
I1468
tp193
a(S'no_vo'
I0
tp194
a(S'w'
I1465
tp195
a(S'p1_vo'
I8
tp196
a(S'w'
I735
tp197
a(S'p2_vo'
I14
tp198
a(S'w'
I5135
tp199
a(S'p1_vo'
I6
tp200
a(S'w'
I1470
tp201
a(S'p2_vo'
I12
tp202
a(S'w'
I4400
tp203
a(S'p1_vo'
I4
tp204
a(S'w'
I2204
tp205
a(S'p2_vo'
I8
tp206
a(S'w'
I3667
tp207
a(S'p1_vo'
I2
tp208
a(S'w'
I2937
tp209
a(S'p2_vo'
I12
tp210
a(S'w'
I2933
tp211
a(S'p1_vo'
I0
tp212
a(S'w'
I3671
tp213
a(S'p2_vo'
I14
tp214
a(S'p2_se'
I0
tp215
a(S'w'
I1470
tp216
a(S'p2_tl'
I64
tp217
a(S'p2_ll'
I0
tp218
a(S'w'
I6
tp219
a(S'no_ll'
I1
tp220
a(S'w'
I726
tp221
a(S'p2_vo'
I12
tp222
a(S'p2_se'
I1
tp223
a(S'w'
I6
tp224
a(S'no_vo'
I6
tp225
a(S'w'
I1462
tp226
a(S'no_vo'
I3
tp227
a(S'w'
I1467
tp228
a(S'no_vo'
I1
tp229
a(S'w'
I1468
tp230
a(S'no_vo'
I0
tp231
a(S'w'
I2199
tp232
a(S'p2_vo'
I14
tp233
a(S'w'
I6605
tp234
a(S'p2_vo'
I12
tp235
a(S'w'
I3671
tp236
a(S'p2_tl'
I83
tp237
a(S'w'
I1
tp238
a(S'p2_ll'
I0
tp239
a(S'w'
I7334
tp240
a(S'p2_vo'
I14
tp241
a(S'w'
I6605
tp242
a(S'p2_vo'
I12
tp243
a(S'w'
I3670
tp244
a(S'p1_ll'
I0
tp245
a(S'w'
I8
tp246
a(S'p2_tl'
I125
tp247
a(S'p2_ll'
I0
tp248
a(S'w'
I7
tp249
a(S'tr_tl'
I29
tp250
a(S'tr_ll'
I0
tp251
a(S'w'
I7
tp252
a(S'no_ll'
I1
tp253
a(S'w'
I709
tp254
a(S'p1_vo'
I10
tp255
a(S'w'
I14
tp256
a(S'no_vo'
I12
tp257
a(S'w'
I1457
tp258
a(S'no_vo'
I9
tp259
a(S'w'
I1467
tp260
a(S'no_vo'
I7
tp261
a(S'w'
I1468
tp262
a(S'no_vo'
I5
tp263
a(S'w'
I1465
tp264
a(S'p1_vo'
I8
tp265
a(S'w'
I7
tp266
a(S'no_vo'
I3
tp267
a(S'w'
I728
tp268
a(S'p2_vo'
I14
tp269
a(S'w'
I735
tp270
a(S'no_vo'
I1
tp271
a(S'w'
I1468
tp272
a(S'no_vo'
I0
tp273
a(S'w'
I2932
tp274
a(S'p1_vo'
I6
tp275
a(S'w'
I1470
tp276
a(S'p2_vo'
I12
tp277
a(S'w'
I3667
tp278
a(S'p1_du'
I0
tp279
a(S'p1_vo'
I0
tp280
a(S'w'
I5
tp281
a(S'p2_du'
I0
tp282
a(S'p2_vo'
I0
tp283
a(S'w'
I4
tp284
a(S'tr_lr'
I0
tp285
a(S'w'
I17604
tp286
a(S'p1_tl'
I252
tp287
a(S'p1_ll'
I0
tp288
a(S'w'
I7
tp289
a(S'p2_tl'
I83
tp290
a(S'p2_ll'
I0
tp291
a(S'w'
I7
tp292
a(S'tr_tl'
I64
tp293
a(S'tr_ll'
I0
tp294
a(S'w'
I7
tp295
a(S'no_ll'
I1
tp296
a(S'w'
I710
tp297
a(S'p1_du'
I2
tp298
a(S'p1_vo'
I10
tp299
a(S'w'
I5
tp300
a(S'p2_du'
I2
tp301
a(S'p2_vo'
I12
tp302
a(S'w'
I5
tp303
a(S'tr_lr'
I127
tp304
a(S'w'
I4
tp305
a(S'no_vo'
I6
tp306
a(S'w'
I1457
tp307
a(S'no_vo'
I3
tp308
a(S'w'
I1467
tp309
a(S'no_vo'
I1
tp310
a(S'w'
I1468
tp311
a(S'no_vo'
I0
tp312
a(S'w'
I1465
tp313
a(S'p1_vo'
I8
tp314
a(S'w'
I735
tp315
a(S'p2_vo'
I14
tp316
a(S'w'
I5135
tp317
a(S'p1_vo'
I6
tp318
a(S'w'
I1470
tp319
a(S'p2_vo'
I12
tp320
a(S'w'
I3667
tp321
a(S'p1_du'
I0
tp322
a(S'p1_vo'
I0
tp323
a(S'w'
I5
tp324
a(S'p2_du'
I0
tp325
a(S'p2_vo'
I0
tp326
a(S'w'
I4
tp327
a(S'tr_lr'
I0
tp328
a(S'w'
I17604
tp329
a(S'p1_tl'
I58
tp330
a(S'p1_ll'
I0
tp331
a(S'p1_th'
I2
tp332
a(S'w'
I8
tp333
a(S'p2_tl'
I171
tp334
a(S'p2_ll'
I0
tp335
a(S'w'
I7
tp336
a(S'tr_tl'
I83
tp337
a(S'tr_ll'
I0
tp338
a(S'w'
I10
tp339
a(S'no_ll'
I1
tp340
a(S'w'
I706
tp341
a(S'p1_du'
I2
tp342
a(S'p1_vo'
I10
tp343
a(S'w'
I5
tp344
a(S'p2_du'
I2
tp345
a(S'p2_vo'
I12
tp346
a(S'w'
I5
tp347
a(S'tr_lr'
I127
tp348
a(S'w'
I4
tp349
a(S'no_vo'
I6
tp350
a(S'w'
I1457
tp351
a(S'no_vo'
I3
tp352
a(S'w'
I1468
tp353
a(S'no_vo'
I1
tp354
a(S'w'
I1467
tp355
a(S'no_vo'
I0
tp356
a(S'w'
I1465
tp357
a(S'p1_vo'
I8
tp358
a(S'w'
I735
tp359
a(S'p2_vo'
I14
tp360
a(S'w'
I5135
tp361
a(S'p1_vo'
I6
tp362
a(S'w'
I1470
tp363
a(S'p2_vo'
I12
tp364
a(S'w'
I4400
tp365
a(S'p1_vo'
I4
tp366
a(S'w'
I2204
tp367
a(S'p2_vo'
I8
tp368
a(S'w'
I3667
tp369
a(S'p1_vo'
I2
tp370
a(S'w'
I2937
tp371
a(S'p2_vo'
I12
tp372
a(S'w'
I2933
tp373
a(S'p1_vo'
I0
tp374
a(S'w'
I3671
tp375
a(S'p2_vo'
I14
tp376
a(S'p2_se'
I0
tp377
a(S'w'
I1469
tp378
a(S'no_ll'
I1
tp379
a(S'w'
I735
tp380
a(S'no_vo'
I6
tp381
a(S'w'
I1466
tp382
a(S'no_vo'
I3
tp383
a(S'w'
I1467
tp384
a(S'no_vo'
I1
tp385
a(S'w'
I1466
tp386
a(S'p2_vo'
I12
tp387
a(S'w'
I1
tp388
a(S'p2_se'
I1
tp389
a(S'w'
I5
tp390
a(S'no_vo'
I0
tp391
a(S'w'
I6598
tp392
a(S'p2_vo'
I8
tp393
a(S'w'
I5873
tp394
a(S'p2_tl'
I87
tp395
a(S'p2_ll'
I0
tp396
a(S'p2_th'
I3
tp397
a(S'w'
I731
tp398
a(S'p2_vo'
I12
tp399
a(S'w'
I6604
tp400
a(S'p2_vo'
I14
tp401
a(S'w'
I6605
tp402
a(S'p2_vo'
I12
tp403
a(S'w'
I3670
tp404
a(S'p2_tl'
I167
tp405
a(S'p2_ll'
I0
tp406
a(S'p2_th'
I2
tp407
a(S'w'
I9
tp408
a(S'no_ll'
I1
tp409
a(S'w'
I729
tp410
a(S'no_vo'
I12
tp411
a(S'w'
I1464
tp412
a(S'no_vo'
I9
tp413
a(S'w'
I1467
tp414
a(S'no_vo'
I7
tp415
a(S'w'
I1468
tp416
a(S'no_vo'
I5
tp417
a(S'w'
I1468
tp418
a(S'no_vo'
I3
tp419
a(S'w'
I731
tp420
a(S'p2_vo'
I14
tp421
a(S'w'
I736
tp422
a(S'no_vo'
I1
tp423
a(S'w'
I1468
tp424
a(S'no_vo'
I0
tp425
a(S'w'
I4401
tp426
a(S'p2_vo'
I12
tp427
a(S'w'
I6604
tp428
a(S'p2_vo'
I8
tp429
a(S'w'
I6604
tp430
a(S'p2_vo'
I12
tp431
a(S'w'
I6604
tp432
a(S'p2_vo'
I14
tp433
a(S'w'
I1
tp434
a(S'p2_se'
I0
tp435
a(S'w'
I1468
tp436
a(S'p2_tl'
I58
tp437
a(S'p2_ll'
I0
tp438
a(S'w'
I9
tp439
a(S'no_ll'
I1
tp440
a(S'w'
I723
tp441
a(S'p2_vo'
I12
tp442
a(S'w'
I1
tp443
a(S'p2_se'
I1
tp444
a(S'w'
I5
tp445
a(S'no_vo'
I6
tp446
a(S'w'
I1464
tp447
a(S'no_vo'
I3
tp448
a(S'w'
I1467
tp449
a(S'no_vo'
I1
tp450
a(S'w'
I1468
tp451
a(S'no_vo'
I0
tp452
a(S'w'
I2199
tp453
a(S'p2_vo'
I14
tp454
a(S'w'
I6605
tp455
a(S'p2_vo'
I12
tp456
a(S'w'
I6604
tp457
a(S'p2_vo'
I8
tp458
a(S'w'
I6604
tp459
a(S'p2_vo'
I12
tp460
a(S'w'
I6604
tp461
a(S'p2_vo'
I14
tp462
a(S'w'
I1
tp463
a(S'p2_se'
I0
tp464
a(S'w'
I1467
tp465
a(S'p1_ll'
I0
tp466
a(S'w'
I8
tp467
a(S'p2_tl'
I171
tp468
a(S'p2_ll'
I0
tp469
a(S'p2_th'
I1
tp470
a(S'w'
I8
tp471
a(S'tr_ll'
I0
tp472
a(S'w'
I9
tp473
a(S'no_ll'
I1
tp474
a(S'w'
I707
tp475
a(S'p1_vo'
I10
tp476
a(S'w'
I5
tp477
a(S'p2_vo'
I12
tp478
a(S'w'
I1
tp479
a(S'p2_se'
I1
tp480
a(S'w'
I8
tp481
a(S'no_vo'
I12
tp482
a(S'w'
I1458
tp483
a(S'no_vo'
I9
tp484
a(S'w'
I1466
tp485
a(S'no_vo'
I7
tp486
a(S'w'
I1468
tp487
a(S'no_vo'
I5
tp488
a(S'w'
I1465
tp489
a(S'p1_vo'
I8
tp490
a(S'w'
I7
tp491
a(S'no_vo'
I3
tp492
a(S'w'
I728
tp493
a(S'p2_vo'
I14
tp494
a(S'w'
I735
tp495
a(S'no_vo'
I1
tp496
a(S'w'
I1468
tp497
a(S'no_vo'
I0
tp498
a(S'w'
I2932
tp499
a(S'p1_vo'
I6
tp500
a(S'w'
I1470
tp501
a(S'p2_vo'
I12
tp502
a(S'w'
I4400
tp503
a(S'p1_vo'
I4
tp504
a(S'w'
I2204
tp505
a(S'p2_vo'
I8
tp506
a(S'w'
I3667
tp507
a(S'p1_vo'
I2
tp508
a(S'w'
I2937
tp509
a(S'p2_vo'
I12
tp510
a(S'w'
I2933
tp511
a(S'p1_vo'
I0
tp512
a(S'w'
I3671
tp513
a(S'p2_vo'
I14
tp514
a(S'p2_se'
I0
tp515
a(S'w'
I1468
tp516
a(S'no_lh'
I1
tp517
a(S'w'
I1
tp518
a(S'w'
I5134
tp519
a(S'p2_vo'
I12
tp520
a(S'w'
I1
tp521
a(S'p2_se'
I1
tp522
a(S'w'
I6603
tp523
a(S'p2_vo'
I8
tp524
a(S'w'
I6604
tp525
a(S'p2_vo'
I6
tp526
a(S'w'
I6604
tp527
a(S'p2_vo'
I7
tp528
a(S'w'
I6605
tp529
a(S'p2_vo'
I3
tp530
a(S'w'
I6604
tp531
a(S'p2_vo'
I5
tp532
a(S'w'
I6604
tp533
a(S'p2_vo'
I2
tp534
a(S'w'
I6604
tp535
a(S'p2_vo'
I3
tp536
a(S'w'
I6604
tp537
a(S'p2_vo'
I1
tp538
a(S'w'
I6604
tp539
a(S'p2_vo'
I0
tp540
a(S'w'
I5869
tp541
a(S'p1_du'
I0
tp542
a(S'w'
I5
tp543
a(S'p2_du'
I0
tp544
a(S'p2_se'
I0
tp545
a(S'w'
I4
tp546
a(S'tr_lh'
I0
tp547
a(S'tr_lr'
I48
tp548
a(S'w'
I56360
tp549
a.