(lp1
(S'clock'
p2
I1789772
tp3
a(S'p1_lh'
I1
tp4
a(S'p1_cv'
I1
tp5
a(S'p1_sp'
I1
tp6
a(S'p1_sn'
I1
tp7
a(S'p1_ss'
I1
tp8
a(S'p2_lh'
I1
tp9
a(S'p2_cv'
I1
tp10
a(S'p2_sp'
I1
tp11
a(S'p2_sn'
I1
tp12
a(S'p2_ss'
I1
tp13
a(S'tr_lh'
I1
tp14
a(S'no_lh'
I1
tp15
a(S'no_cv'
I1
tp16
a(S'ch_no'
I1
tp17
a(S'ch_tr'
I1
tp18
a(S'ch_p2'
I1
tp19
a(S'ch_p1'
I1
tp20
a(S'fc_mo'
I0
tp21
a(S'p1_du'
I2
tp22
a(S'p1_vo'
I13
tp23
a(S'w'
I2
tp24
a(S'p1_tl'
I106
tp25
a(S'p1_ll'
I20
tp26
a(S'w'
I4
tp27
a(S'p2_du'
I2
tp28
a(S'w'
I771
tp29
a(S'p1_vo'
I12
tp30
a(S'w'
I638
tp31
a(S'p1_vo'
I11
tp32
a(S'w'
I816
tp33
a(S'p1_vo'
I10
tp34
a(S'w'
I651
tp35
a(S'p1_vo'
I9
tp36
a(S'w'
I830
tp37
a(S'p1_vo'
I8
tp38
a(S'w'
I648
tp39
a(S'p1_vo'
I7
tp40
a(S'w'
I1
tp41
a(S'w'
I4
tp42
a(S'p2_vo'
I14
tp43
a(S'w'
I1
tp44
a(S'p2_tl'
I75
tp45
a(S'p2_ll'
I20
tp46
a(S'w'
I4
tp47
a(S'w'
I4
tp48
a(S'w'
I1
tp49
a(S'w'
I1
tp50
a(S'ch_no'
I1
tp51
a(S'ch_tr'
I1
tp52
a(S'ch_p2'
I1
tp53
a(S'ch_p1'
I1
tp54
a(S'w'
I790
tp55
a(S'p1_vo'
I6
tp56
a(S'w'
I4
tp57
a(S'p2_vo'
I13
tp58
a(S'w'
I647
tp59
a(S'p1_vo'
I5
tp60
a(S'w'
I5
tp61
a(S'p2_vo'
I12
tp62
a(S'w'
I825
tp63
a(S'p1_vo'
I4
tp64
a(S'w'
I4
tp65
a(S'p2_vo'
I11
tp66
a(S'w'
I634
tp67
a(S'p1_vo'
I3
tp68
a(S'w'
I5
tp69
a(S'p2_vo'
I10
tp70
a(S'w'
I811
tp71
a(S'p1_vo'
I2
tp72
a(S'w'
I4
tp73
a(S'p2_vo'
I9
tp74
a(S'w'
I654
tp75
a(S'p1_vo'
I13
tp76
a(S'w'
I1
tp77
a(S'p1_tl'
I71
tp78
a(S'w'
I1
tp79
a(S'p1_ll'
I20
tp80
a(S'w'
I3
tp81
a(S'p2_vo'
I8
tp82
a(S'w'
I818
tp83
a(S'p1_vo'
I12
tp84
a(S'w'
I5
tp85
a(S'p2_vo'
I7
tp86
a(S'w'
I633
tp87
a(S'p1_vo'
I11
tp88
a(S'w'
I5
tp89
a(S'p2_vo'
I6
tp90
a(S'w'
I811
tp91
a(S'p1_vo'
I10
tp92
a(S'w'
I4
tp93
a(S'p2_vo'
I5
tp94
a(S'w'
I648
tp95
a(S'p1_vo'
I9
tp96
a(S'w'
I4
tp97
a(S'p2_vo'
I4
tp98
a(S'w'
I826
tp99
a(S'p1_vo'
I8
tp100
a(S'w'
I4
tp101
a(S'p2_vo'
I3
tp102
a(S'w'
I643
tp103
a(S'p1_vo'
I7
tp104
a(S'w'
I5
tp105
a(S'p2_vo'
I14
tp106
a(S'w'
I1
tp107
a(S'p2_ll'
I20
tp108
a(S'w'
I800
tp109
a(S'p1_vo'
I6
tp110
a(S'w'
I5
tp111
a(S'p2_vo'
I13
tp112
a(S'w'
I647
tp113
a(S'p1_vo'
I5
tp114
a(S'w'
I4
tp115
a(S'p2_vo'
I12
tp116
a(S'w'
I826
tp117
a(S'p1_vo'
I4
tp118
a(S'w'
I4
tp119
a(S'p2_vo'
I11
tp120
a(S'w'
I634
tp121
a(S'p1_vo'
I3
tp122
a(S'w'
I4
tp123
a(S'p2_vo'
I10
tp124
a(S'w'
I812
tp125
a(S'p1_vo'
I2
tp126
a(S'w'
I4
tp127
a(S'p2_vo'
I9
tp128
a(S'w'
I657
tp129
a(S'p1_vo'
I13
tp130
a(S'w'
I1
tp131
a(S'p1_tl'
I106
tp132
a(S'w'
I1
tp133
a(S'p1_ll'
I20
tp134
a(S'w'
I3
tp135
a(S'p2_vo'
I8
tp136
a(S'w'
I815
tp137
a(S'p1_vo'
I12
tp138
a(S'w'
I4
tp139
a(S'p2_vo'
I7
tp140
a(S'w'
I634
tp141
a(S'p1_vo'
I11
tp142
a(S'w'
I4
tp143
a(S'p2_vo'
I6
tp144
a(S'w'
I812
tp145
a(S'p1_vo'
I10
tp146
a(S'w'
I4
tp147
a(S'p2_vo'
I5
tp148
a(S'w'
I648
tp149
a(S'p1_vo'
I9
tp150
a(S'w'
I4
tp151
a(S'p2_vo'
I4
tp152
a(S'w'
I825
tp153
a(S'p1_vo'
I8
tp154
a(S'w'
I4
tp155
a(S'p2_vo'
I3
tp156
a(S'w'
I644
tp157
a(S'p1_vo'
I7
tp158
a(S'w'
I4
tp159
a(S'p2_vo'
I14
tp160
a(S'w'
I2
tp161
a(S'p2_ll'
I20
tp162
a(S'w'
I800
tp163
a(S'p1_vo'
I6
tp164
a(S'w'
I4
tp165
a(S'p2_vo'
I13
tp166
a(S'w'
I648
tp167
a(S'p1_vo'
I5
tp168
a(S'w'
I4
tp169
a(S'p2_vo'
I12
tp170
a(S'w'
I825
tp171
a(S'p1_vo'
I4
tp172
a(S'w'
I5
tp173
a(S'p2_vo'
I11
tp174
a(S'w'
I633
tp175
a(S'p1_vo'
I3
tp176
a(S'w'
I5
tp177
a(S'p2_vo'
I10
tp178
a(S'w'
I811
tp179
a(S'p1_vo'
I2
tp180
a(S'w'
I5
tp181
a(S'p2_vo'
I9
tp182
a(S'w'
I653
tp183
a(S'p1_vo'
I13
tp184
a(S'w'
I1
tp185
a(S'p1_tl'
I71
tp186
a(S'w'
I1
tp187
a(S'p1_ll'
I20
tp188
a(S'w'
I3
tp189
a(S'p2_vo'
I8
tp190
a(S'w'
I819
tp191
a(S'p1_vo'
I12
tp192
a(S'w'
I4
tp193
a(S'p2_vo'
I7
tp194
a(S'w'
I633
tp195
a(S'p1_vo'
I11
tp196
a(S'w'
I5
tp197
a(S'p2_vo'
I6
tp198
a(S'w'
I811
tp199
a(S'p1_vo'
I10
tp200
a(S'w'
I5
tp201
a(S'p2_vo'
I5
tp202
a(S'w'
I647
tp203
a(S'p1_vo'
I9
tp204
a(S'w'
I4
tp205
a(S'p2_vo'
I4
tp206
a(S'w'
I826
tp207
a(S'p1_vo'
I8
tp208
a(S'w'
I4
tp209
a(S'p2_vo'
I3
tp210
a(S'w'
I644
tp211
a(S'p1_vo'
I7
tp212
a(S'w'
I4
tp213
a(S'p2_vo'
I14
tp214
a(S'w'
I1
tp215
a(S'w'
I1
tp216
a(S'p2_ll'
I20
tp217
a(S'w'
I800
tp218
a(S'p1_vo'
I6
tp219
a(S'w'
I4
tp220
a(S'p2_vo'
I13
tp221
a(S'w'
I647
tp222
a(S'p1_vo'
I5
tp223
a(S'w'
I5
tp224
a(S'p2_vo'
I12
tp225
a(S'w'
I825
tp226
a(S'p1_vo'
I4
tp227
a(S'w'
I4
tp228
a(S'p2_vo'
I11
tp229
a(S'w'
I634
tp230
a(S'p1_vo'
I3
tp231
a(S'w'
I4
tp232
a(S'p2_vo'
I10
tp233
a(S'w'
I812
tp234
a(S'p1_vo'
I2
tp235
a(S'w'
I4
tp236
a(S'p2_vo'
I9
tp237
a(S'w'
I657
tp238
a(S'p1_vo'
I13
tp239
a(S'w'
I2
tp240
a(S'p1_tl'
I106
tp241
a(S'p1_ll'
I20
tp242
a(S'w'
I4
tp243
a(S'p2_vo'
I8
tp244
a(S'w'
I814
tp245
a(S'p1_vo'
I12
tp246
a(S'w'
I5
tp247
a(S'p2_vo'
I7
tp248
a(S'w'
I633
tp249
a(S'p1_vo'
I11
tp250
a(S'w'
I4
tp251
a(S'p2_vo'
I6
tp252
a(S'w'
I812
tp253
a(S'p1_vo'
I10
tp254
a(S'w'
I4
tp255
a(S'p2_vo'
I5
tp256
a(S'w'
I648
tp257
a(S'p1_vo'
I9
tp258
a(S'w'
I4
tp259
a(S'p2_vo'
I4
tp260
a(S'w'
I825
tp261
a(S'p1_vo'
I8
tp262
a(S'w'
I5
tp263
a(S'p2_vo'
I3
tp264
a(S'w'
I643
tp265
a(S'p1_vo'
I7
tp266
a(S'w'
I4
tp267
a(S'p2_vo'
I14
tp268
a(S'w'
I2
tp269
a(S'p2_ll'
I20
tp270
a(S'w'
I800
tp271
a(S'p1_vo'
I6
tp272
a(S'w'
I5
tp273
a(S'p2_vo'
I13
tp274
a(S'w'
I647
tp275
a(S'p1_vo'
I5
tp276
a(S'w'
I4
tp277
a(S'p2_vo'
I12
tp278
a(S'w'
I826
tp279
a(S'p1_vo'
I4
tp280
a(S'w'
I4
tp281
a(S'p2_vo'
I11
tp282
a(S'w'
I634
tp283
a(S'p1_vo'
I3
tp284
a(S'w'
I4
tp285
a(S'p2_vo'
I10
tp286
a(S'w'
I811
tp287
a(S'p1_vo'
I2
tp288
a(S'w'
I5
tp289
a(S'p2_vo'
I9
tp290
a(S'w'
I653
tp291
a(S'p1_vo'
I13
tp292
a(S'w'
I2
tp293
a(S'p1_tl'
I71
tp294
a(S'p1_ll'
I20
tp295
a(S'w'
I4
tp296
a(S'p2_vo'
I8
tp297
a(S'w'
I818
tp298
a(S'p1_vo'
I12
tp299
a(S'w'
I4
tp300
a(S'p2_vo'
I7
tp301
a(S'w'
I634
tp302
a(S'p1_vo'
I11
tp303
a(S'w'
I4
tp304
a(S'p2_vo'
I6
tp305
a(S'w'
I812
tp306
a(S'p1_vo'
I10
tp307
a(S'w'
I4
tp308
a(S'p2_vo'
I5
tp309
a(S'w'
I647
tp310
a(S'p1_vo'
I9
tp311
a(S'w'
I5
tp312
a(S'p2_vo'
I4
tp313
a(S'w'
I825
tp314
a(S'p1_vo'
I8
tp315
a(S'w'
I4
tp316
a(S'p2_vo'
I3
tp317
a(S'w'
I643
tp318
a(S'p1_vo'
I7
tp319
a(S'w'
I4
tp320
a(S'p2_vo'
I14
tp321
a(S'w'
I2
tp322
a(S'p2_tl'
I53
tp323
a(S'p2_ll'
I20
tp324
a(S'w'
I801
tp325
a(S'p1_vo'
I6
tp326
a(S'w'
I4
tp327
a(S'p2_vo'
I13
tp328
a(S'w'
I648
tp329
a(S'p1_vo'
I5
tp330
a(S'w'
I4
tp331
a(S'p2_vo'
I12
tp332
a(S'w'
I825
tp333
a(S'p1_vo'
I4
tp334
a(S'w'
I4
tp335
a(S'p2_vo'
I11
tp336
a(S'w'
I634
tp337
a(S'p1_vo'
I3
tp338
a(S'w'
I4
tp339
a(S'p2_vo'
I10
tp340
a(S'w'
I812
tp341
a(S'p1_vo'
I2
tp342
a(S'w'
I4
tp343
a(S'p2_vo'
I9
tp344
a(S'w'
I657
tp345
a(S'p1_vo'
I13
tp346
a(S'w'
I1
tp347
a(S'p1_tl'
I53
tp348
a(S'w'
I1
tp349
a(S'p1_ll'
I20
tp350
a(S'w'
I3
tp351
a(S'p2_vo'
I8
tp352
a(S'w'
I815
tp353
a(S'p1_vo'
I12
tp354
a(S'w'
I5
tp355
a(S'p2_vo'
I7
tp356
a(S'w'
I634
tp357
a(S'p1_vo'
I11
tp358
a(S'w'
I4
tp359
a(S'p2_vo'
I6
tp360
a(S'w'
I811
tp361
a(S'p1_vo'
I10
tp362
a(S'w'
I5
tp363
a(S'p2_vo'
I5
tp364
a(S'w'
I647
tp365
a(S'p1_vo'
I9
tp366
a(S'w'
I4
tp367
a(S'p2_vo'
I4
tp368
a(S'w'
I826
tp369
a(S'p1_vo'
I8
tp370
a(S'w'
I4
tp371
a(S'p2_vo'
I3
tp372
a(S'w'
I640
tp373
a(S'p1_vo'
I7
tp374
a(S'w'
I5
tp375
a(S'p2_vo'
I14
tp376
a(S'w'
I1
tp377
a(S'p2_tl'
I35
tp378
a(S'p2_ll'
I20
tp379
a(S'w'
I804
tp380
a(S'p1_vo'
I6
tp381
a(S'w'
I4
tp382
a(S'p2_vo'
I13
tp383
a(S'w'
I647
tp384
a(S'p1_vo'
I5
tp385
a(S'w'
I4
tp386
a(S'p2_vo'
I12
tp387
a(S'w'
I826
tp388
a(S'p1_vo'
I4
tp389
a(S'w'
I4
tp390
a(S'p2_vo'
I11
tp391
a(S'w'
I634
tp392
a(S'p1_vo'
I3
tp393
a(S'w'
I4
tp394
a(S'p2_vo'
I10
tp395
a(S'w'
I812
tp396
a(S'p1_vo'
I2
tp397
a(S'w'
I4
tp398
a(S'p2_vo'
I9
tp399
a(S'w'
I654
tp400
a(S'p1_vo'
I13
tp401
a(S'w'
I1
tp402
a(S'w'
I1
tp403
a(S'p1_ll'
I20
tp404
a(S'w'
I3
tp405
a(S'p2_vo'
I8
tp406
a(S'w'
I818
tp407
a(S'p1_vo'
I12
tp408
a(S'w'
I4
tp409
a(S'p2_vo'
I7
tp410
a(S'w'
I634
tp411
a(S'p1_vo'
I11
tp412
a(S'w'
I4
tp413
a(S'p2_vo'
I6
tp414
a(S'w'
I812
tp415
a(S'p1_vo'
I10
tp416
a(S'w'
I4
tp417
a(S'p2_vo'
I5
tp418
a(S'w'
I648
tp419
a(S'p1_vo'
I9
tp420
a(S'w'
I4
tp421
a(S'p2_vo'
I4
tp422
a(S'w'
I825
tp423
a(S'p1_vo'
I8
tp424
a(S'w'
I5
tp425
a(S'p2_vo'
I3
tp426
a(S'w'
I640
tp427
a(S'p1_vo'
I7
tp428
a(S'w'
I4
tp429
a(S'p2_vo'
I14
tp430
a(S'w'
I2
tp431
a(S'p2_tl'
I53
tp432
a(S'p2_ll'
I20
tp433
a(S'w'
I803
tp434
a(S'p1_vo'
I6
tp435
a(S'w'
I4
tp436
a(S'p2_vo'
I13
tp437
a(S'w'
I648
tp438
a(S'p1_vo'
I5
tp439
a(S'w'
I4
tp440
a(S'p2_vo'
I12
tp441
a(S'w'
I825
tp442
a(S'p1_vo'
I4
tp443
a(S'w'
I5
tp444
a(S'p2_vo'
I11
tp445
a(S'w'
I633
tp446
a(S'p1_vo'
I3
tp447
a(S'w'
I5
tp448
a(S'p2_vo'
I10
tp449
a(S'w'
I811
tp450
a(S'p1_vo'
I2
tp451
a(S'w'
I5
tp452
a(S'p2_vo'
I9
tp453
a(S'w'
I666
tp454
a(S'p1_vo'
I13
tp455
a(S'w'
I1
tp456
a(S'p1_tl'
I106
tp457
a(S'w'
I1
tp458
a(S'p1_ll'
I20
tp459
a(S'w'
I3
tp460
a(S'p2_vo'
I8
tp461
a(S'w'
I806
tp462
a(S'p1_vo'
I12
tp463
a(S'w'
I4
tp464
a(S'p2_vo'
I7
tp465
a(S'w'
I634
tp466
a(S'p1_vo'
I11
tp467
a(S'w'
I4
tp468
a(S'p2_vo'
I6
tp469
a(S'w'
I812
tp470
a(S'p1_vo'
I10
tp471
a(S'w'
I4
tp472
a(S'p2_vo'
I5
tp473
a(S'w'
I647
tp474
a(S'p1_vo'
I9
tp475
a(S'w'
I4
tp476
a(S'p2_vo'
I4
tp477
a(S'w'
I826
tp478
a(S'p1_vo'
I8
tp479
a(S'w'
I4
tp480
a(S'p2_vo'
I3
tp481
a(S'w'
I646
tp482
a.