(lp1
(S'clock'
p2
I1789772
tp3
a(S'p1_du'
I2
tp4
a(S'p1_vo'
I4
tp5
a(S'p1_sn'
I1
tp6
a(S'p1_ll'
I1
tp7
a(S'p2_du'
I2
tp8
a(S'p2_vo'
I4
tp9
a(S'p2_sn'
I1
tp10
a(S'p2_ll'
I1
tp11
a(S'tr_lr'
I36
tp12
a(S'tr_tl'
I252
tp13
a(S'tr_ll'
I1
tp14
a(S'tr_th'
I1
tp15
a(S'w'
I3676
tp16
a(S'p1_tl'
I83
tp17
a(S'w'
I1
tp18
a(S'p1_ll'
I1
tp19
a(S'p1_th'
I1
tp20
a(S'w'
I6
tp21
a(S'p2_tl'
I147
tp22
a(S'p2_ll'
I1
tp23
a(S'p2_th'
I1
tp24
a(S'w'
I4396
tp25
a(S'p1_tl'
I147
tp26
a(S'w'
I1
tp27
a(S'p1_ll'
I1
tp28
a(S'w'
I6
tp29
a(S'p2_tl'
I252
tp30
a(S'p2_ll'
I1
tp31
a(S'w'
I6
tp32
a(S'tr_tl'
I254
tp33
a(S'w'
I1
tp34
a(S'tr_ll'
I1
tp35
a(S'tr_th'
I0
tp36
a(S'w'
I4389
tp37
a(S'p1_tl'
I83
tp38
a(S'w'
I1
tp39
a(S'p1_ll'
I1
tp40
a(S'w'
I6
tp41
a(S'p2_tl'
I147
tp42
a(S'p2_ll'
I1
tp43
a(S'w'
I4396
tp44
a(S'p1_tl'
I254
tp45
a(S'w'
I1
tp46
a(S'p1_ll'
I1
tp47
a(S'p1_th'
I0
tp48
a(S'w'
I6
tp49
a(S'p2_tl'
I83
tp50
a(S'p2_ll'
I1
tp51
a(S'w'
I6
tp52
a(S'tr_tl'
I252
tp53
a(S'w'
I1
tp54
a(S'tr_ll'
I1
tp55
a(S'tr_th'
I1
tp56
a(S'w'
I4388
tp57
a(S'p1_tl'
I83
tp58
a(S'w'
I1
tp59
a(S'p1_ll'
I1
tp60
a(S'p1_th'
I1
tp61
a(S'w'
I6
tp62
a(S'p2_tl'
I147
tp63
a(S'p2_ll'
I1
tp64
a(S'w'
I4396
tp65
a(S'p1_tl'
I254
tp66
a(S'w'
I1
tp67
a(S'p1_ll'
I1
tp68
a(S'p1_th'
I0
tp69
a(S'w'
I6
tp70
a(S'p2_tl'
I83
tp71
a(S'p2_ll'
I1
tp72
a(S'w'
I7
tp73
a(S'tr_tl'
I254
tp74
a(S'tr_ll'
I1
tp75
a(S'tr_th'
I0
tp76
a(S'w'
I4390
tp77
a(S'p1_tl'
I201
tp78
a(S'p1_ll'
I1
tp79
a(S'w'
I7
tp80
a(S'p2_tl'
I254
tp81
a(S'p2_ll'
I1
tp82
a(S'p2_th'
I0
tp83
a(S'w'
I4395
tp84
a(S'p1_tl'
I254
tp85
a(S'w'
I1
tp86
a(S'p1_ll'
I1
tp87
a(S'w'
I6
tp88
a(S'p2_tl'
I83
tp89
a(S'p2_ll'
I1
tp90
a(S'p2_th'
I1
tp91
a(S'w'
I6
tp92
a(S'tr_tl'
I252
tp93
a(S'w'
I1
tp94
a(S'tr_ll'
I1
tp95
a(S'tr_th'
I1
tp96
a(S'w'
I4389
tp97
a(S'p1_tl'
I201
tp98
a(S'p1_ll'
I1
tp99
a(S'w'
I7
tp100
a(S'p2_tl'
I254
tp101
a(S'p2_ll'
I1
tp102
a(S'p2_th'
I0
tp103
a(S'w'
I4396
tp104
a(S'p1_tl'
I169
tp105
a(S'p1_ll'
I1
tp106
a(S'w'
I7
tp107
a(S'p2_tl'
I201
tp108
a(S'w'
I1
tp109
a(S'p2_ll'
I1
tp110
a(S'w'
I6
tp111
a(S'tr_tl'
I254
tp112
a(S'tr_ll'
I1
tp113
a(S'tr_th'
I0
tp114
a(S'w'
I4389
tp115
a(S'p1_tl'
I201
tp116
a(S'p1_ll'
I1
tp117
a(S'w'
I7
tp118
a(S'p2_tl'
I254
tp119
a(S'p2_ll'
I1
tp120
a(S'w'
I4396
tp121
a(S'p1_tl'
I169
tp122
a(S'p1_ll'
I1
tp123
a(S'w'
I7
tp124
a(S'p2_tl'
I201
tp125
a(S'w'
I1
tp126
a(S'p2_ll'
I1
tp127
a(S'w'
I5
tp128
a(S'tr_tl'
I252
tp129
a(S'w'
I1
tp130
a(S'tr_ll'
I1
tp131
a(S'tr_th'
I1
tp132
a(S'w'
I4388
tp133
a(S'p1_tl'
I127
tp134
a(S'p1_ll'
I1
tp135
a(S'w'
I7
tp136
a(S'p2_tl'
I169
tp137
a(S'w'
I1
tp138
a(S'p2_ll'
I1
tp139
a(S'w'
I4395
tp140
a(S'p1_tl'
I169
tp141
a(S'p1_ll'
I1
tp142
a(S'w'
I7
tp143
a(S'p2_tl'
I201
tp144
a(S'w'
I1
tp145
a(S'p2_ll'
I1
tp146
a(S'w'
I7
tp147
a(S'tr_tl'
I201
tp148
a(S'tr_ll'
I1
tp149
a(S'tr_th'
I0
tp150
a(S'w'
I4388
tp151
a(S'p1_tl'
I127
tp152
a(S'p1_ll'
I1
tp153
a(S'w'
I7
tp154
a(S'p2_tl'
I169
tp155
a(S'w'
I1
tp156
a(S'p2_ll'
I1
tp157
a(S'w'
I4395
tp158
a(S'p1_tl'
I134
tp159
a(S'p1_ll'
I1
tp160
a(S'w'
I7
tp161
a(S'p2_tl'
I179
tp162
a(S'w'
I1
tp163
a(S'p2_ll'
I1
tp164
a(S'w'
I5
tp165
a(S'tr_lr'
I54
tp166
a(S'w'
I4
tp167
a(S'tr_tl'
I213
tp168
a(S'tr_ll'
I1
tp169
a(S'w'
I4385
tp170
a(S'p1_tl'
I127
tp171
a(S'p1_ll'
I1
tp172
a(S'w'
I9
tp173
a(S'p2_tl'
I213
tp174
a(S'p2_ll'
I1
tp175
a(S'w'
I4394
tp176
a(S'p1_tl'
I134
tp177
a(S'p1_ll'
I1
tp178
a(S'w'
I4403
tp179
a(S'p1_tl'
I179
tp180
a(S'p1_ll'
I1
tp181
a(S'w'
I7
tp182
a(S'p2_tl'
I13
tp183
a(S'p2_ll'
I1
tp184
a(S'p2_th'
I1
tp185
a(S'w'
I5
tp186
a(S'tr_lr'
I18
tp187
a(S'w'
I4
tp188
a(S'tr_tl'
I13
tp189
a(S'tr_ll'
I1
tp190
a(S'tr_th'
I1
tp191
a(S'w'
I4387
tp192
a(S'p1_tl'
I213
tp193
a(S'p1_ll'
I1
tp194
a(S'w'
I6
tp195
a(S'tr_lr'
I36
tp196
a(S'w'
I3
tp197
a(S'tr_tl'
I103
tp198
a(S'w'
I1
tp199
a(S'tr_ll'
I1
tp200
a(S'w'
I4391
tp201
a(S'p1_tl'
I13
tp202
a(S'w'
I1
tp203
a(S'p1_ll'
I1
tp204
a(S'p1_th'
I1
tp205
a(S'w'
I6
tp206
a(S'p2_tl'
I103
tp207
a(S'p2_ll'
I1
tp208
a(S'w'
I4396
tp209
a(S'p1_tl'
I103
tp210
a(S'w'
I1
tp211
a(S'p1_ll'
I1
tp212
a(S'w'
I6
tp213
a(S'tr_tl'
I26
tp214
a(S'tr_ll'
I1
tp215
a(S'tr_th'
I2
tp216
a(S'w'
I4396
tp217
a(S'p1_tl'
I171
tp218
a(S'w'
I1
tp219
a(S'p1_ll'
I1
tp220
a(S'w'
I7
tp221
a(S'p2_tl'
I26
tp222
a(S'w'
I1
tp223
a(S'p2_ll'
I1
tp224
a(S'p2_th'
I2
tp225
a(S'w'
I4395
tp226
a(S'p1_tl'
I151
tp227
a(S'p1_ll'
I1
tp228
a(S'p1_th'
I0
tp229
a(S'w'
I7
tp230
a(S'p2_tl'
I201
tp231
a(S'w'
I1
tp232
a(S'p2_ll'
I1
tp233
a(S'p2_th'
I0
tp234
a(S'w'
I5
tp235
a(S'tr_lr'
I18
tp236
a(S'w'
I3
tp237
a(S'tr_tl'
I13
tp238
a(S'w'
I1
tp239
a(S'tr_ll'
I1
tp240
a(S'tr_th'
I1
tp241
a(S'w'
I4385
tp242
a(S'p1_ll'
I1
tp243
a(S'w'
I7
tp244
a(S'p2_tl'
I239
tp245
a(S'p2_ll'
I1
tp246
a(S'w'
I6
tp247
a(S'tr_tl'
I26
tp248
a(S'tr_ll'
I1
tp249
a(S'tr_th'
I2
tp250
a(S'w'
I4399
tp251
a(S'p1_tl'
I0
tp252
a(S'w'
I1
tp253
a(S'p1_ll'
I1
tp254
a(S'w'
I16
tp255
a(S'p2_tl'
I0
tp256
a(S'w'
I1
tp257
a(S'p2_ll'
I1
tp258
a(S'w'
I4378
tp259
a(S'p1_tl'
I134
tp260
a(S'p1_ll'
I1
tp261
a(S'w'
I9
tp262
a(S'p2_tl'
I213
tp263
a(S'p2_ll'
I1
tp264
a(S'w'
I5
tp265
a(S'tr_lr'
I54
tp266
a(S'w'
I4
tp267
a(S'tr_tl'
I13
tp268
a(S'tr_ll'
I1
tp269
a(S'tr_th'
I1
tp270
a(S'w'
I13187
tp271
a(S'tr_lr'
I36
tp272
a(S'w'
I4
tp273
a(S'tr_tl'
I171
tp274
a(S'tr_ll'
I1
tp275
a(S'w'
I9533
tp276
a(S'tr_lr'
I0
tp277
a(S'w'
I1
tp278
a(S'p1_du'
I0
tp279
a(S'p1_cv'
I1
tp280
a(S'p1_vo'
I0
tp281
a(S'p2_du'
I0
tp282
a(S'p2_cv'
I1
tp283
a(S'p2_vo'
I0
tp284
a(S'ch_no'
I1
tp285
a(S'ch_tr'
I1
tp286
a(S'ch_p2'
I1
tp287
a(S'ch_p1'
I1
tp288
a(S'w'
I39330
tp289
a.