(lp1
(S'clock'
p2
I1789772
tp3
a(S'p1_du'
I2
tp4
a(S'p1_vo'
I5
tp5
a(S'p1_sn'
I1
tp6
a(S'p1_tl'
I201
tp7
a(S'p1_ll'
I1
tp8
a(S'p2_du'
I2
tp9
a(S'p2_vo'
I5
tp10
a(S'p2_sn'
I1
tp11
a(S'p2_tl'
I254
tp12
a(S'p2_ll'
I1
tp13
a(S'tr_lr'
I54
tp14
a(S'tr_tl'
I252
tp15
a(S'tr_ll'
I1
tp16
a(S'tr_th'
I1
tp17
a(S'w'
I3677
tp18
a(S'p2_tl'
I83
tp19
a(S'p2_ll'
I1
tp20
a(S'p2_th'
I1
tp21
a(S'w'
I4403
tp22
a(S'p2_tl'
I254
tp23
a(S'p2_ll'
I1
tp24
a(S'p2_th'
I0
tp25
a(S'w'
I4404
tp26
a(S'p1_tl'
I226
tp27
a(S'p1_ll'
I1
tp28
a(S'w'
I7
tp29
a(S'p2_tl'
I13
tp30
a(S'p2_ll'
I1
tp31
a(S'p2_th'
I1
tp32
a(S'w'
I5
tp33
a(S'tr_lr'
I18
tp34
a(S'w'
I4
tp35
a(S'tr_tl'
I254
tp36
a(S'tr_ll'
I1
tp37
a(S'tr_th'
I0
tp38
a(S'w'
I4386
tp39
a(S'p1_tl'
I201
tp40
a(S'p1_ll'
I1
tp41
a(S'w'
I7
tp42
a(S'p2_tl'
I254
tp43
a(S'p2_ll'
I1
tp44
a(S'p2_th'
I0
tp45
a(S'w'
I4395
tp46
a(S'p1_ll'
I1
tp47
a(S'w'
I7
tp48
a(S'p2_tl'
I83
tp49
a(S'p2_ll'
I1
tp50
a(S'p2_th'
I1
tp51
a(S'w'
I7
tp52
a(S'tr_ll'
I1
tp53
a(S'w'
I4391
tp54
a(S'p1_tl'
I179
tp55
a(S'p1_ll'
I1
tp56
a(S'w'
I6
tp57
a(S'p2_tl'
I226
tp58
a(S'w'
I1
tp59
a(S'p2_ll'
I1
tp60
a(S'p2_th'
I0
tp61
a(S'w'
I5
tp62
a(S'tr_lr'
I54
tp63
a(S'w'
I3
tp64
a(S'tr_tl'
I196
tp65
a(S'tr_ll'
I1
tp66
a(S'tr_th'
I1
tp67
a(S'w'
I4386
tp68
a(S'p2_tl'
I46
tp69
a(S'p2_ll'
I1
tp70
a(S'p2_th'
I1
tp71
a(S'w'
I4403
tp72
a(S'p2_tl'
I226
tp73
a(S'p2_ll'
I1
tp74
a(S'p2_th'
I0
tp75
a(S'w'
I4404
tp76
a(S'p1_tl'
I201
tp77
a(S'p1_ll'
I1
tp78
a(S'w'
I6
tp79
a(S'p2_tl'
I254
tp80
a(S'w'
I1
tp81
a(S'p2_ll'
I1
tp82
a(S'w'
I5
tp83
a(S'tr_lr'
I18
tp84
a(S'w'
I3
tp85
a(S'tr_tl'
I226
tp86
a(S'w'
I1
tp87
a(S'tr_ll'
I1
tp88
a(S'tr_th'
I0
tp89
a(S'w'
I4385
tp90
a(S'p1_tl'
I179
tp91
a(S'p1_ll'
I1
tp92
a(S'w'
I7
tp93
a(S'p2_tl'
I226
tp94
a(S'p2_ll'
I1
tp95
a(S'w'
I4396
tp96
a(S'p1_ll'
I1
tp97
a(S'w'
I7
tp98
a(S'p2_tl'
I46
tp99
a(S'p2_ll'
I1
tp100
a(S'p2_th'
I1
tp101
a(S'w'
I7
tp102
a(S'tr_ll'
I1
tp103
a(S'w'
I4391
tp104
a(S'p1_tl'
I169
tp105
a(S'p1_ll'
I1
tp106
a(S'w'
I7
tp107
a(S'p2_tl'
I201
tp108
a(S'p2_ll'
I1
tp109
a(S'p2_th'
I0
tp110
a(S'w'
I8
tp111
a(S'tr_lr'
I54
tp112
a(S'w'
I3
tp113
a(S'tr_tl'
I252
tp114
a(S'w'
I1
tp115
a(S'tr_ll'
I1
tp116
a(S'tr_th'
I1
tp117
a(S'w'
I4381
tp118
a(S'p2_tl'
I226
tp119
a(S'p2_ll'
I1
tp120
a(S'w'
I4403
tp121
a(S'p2_tl'
I254
tp122
a(S'p2_ll'
I1
tp123
a(S'w'
I4405
tp124
a(S'p1_tl'
I179
tp125
a(S'p1_ll'
I1
tp126
a(S'w'
I6
tp127
a(S'p2_tl'
I226
tp128
a(S'w'
I1
tp129
a(S'p2_ll'
I1
tp130
a(S'w'
I5
tp131
a(S'tr_lr'
I18
tp132
a(S'w'
I3
tp133
a(S'tr_tl'
I254
tp134
a(S'w'
I1
tp135
a(S'tr_ll'
I1
tp136
a(S'tr_th'
I0
tp137
a(S'w'
I4385
tp138
a(S'p1_tl'
I169
tp139
a(S'p1_ll'
I1
tp140
a(S'w'
I7
tp141
a(S'p2_tl'
I201
tp142
a(S'w'
I1
tp143
a(S'p2_ll'
I1
tp144
a(S'w'
I4394
tp145
a(S'p1_ll'
I1
tp146
a(S'w'
I7
tp147
a(S'p2_tl'
I254
tp148
a(S'p2_ll'
I1
tp149
a(S'w'
I7
tp150
a(S'tr_ll'
I1
tp151
a(S'w'
I4391
tp152
a(S'p1_tl'
I151
tp153
a(S'p1_ll'
I1
tp154
a(S'w'
I7
tp155
a(S'p2_tl'
I179
tp156
a(S'p2_ll'
I1
tp157
a(S'w'
I5
tp158
a(S'tr_lr'
I54
tp159
a(S'w'
I3
tp160
a(S'tr_tl'
I196
tp161
a(S'w'
I1
tp162
a(S'tr_ll'
I1
tp163
a(S'tr_th'
I1
tp164
a(S'w'
I4385
tp165
a(S'p2_tl'
I201
tp166
a(S'w'
I1
tp167
a(S'p2_ll'
I1
tp168
a(S'w'
I4402
tp169
a(S'p2_tl'
I226
tp170
a(S'p2_ll'
I1
tp171
a(S'w'
I4404
tp172
a(S'p1_tl'
I169
tp173
a(S'p1_ll'
I1
tp174
a(S'w'
I7
tp175
a(S'p2_tl'
I201
tp176
a(S'p2_ll'
I1
tp177
a(S'w'
I5
tp178
a(S'tr_lr'
I18
tp179
a(S'w'
I4
tp180
a(S'tr_tl'
I226
tp181
a(S'tr_ll'
I1
tp182
a(S'tr_th'
I0
tp183
a(S'w'
I4385
tp184
a(S'p1_tl'
I151
tp185
a(S'p1_ll'
I1
tp186
a(S'w'
I7
tp187
a(S'p2_tl'
I179
tp188
a(S'w'
I1
tp189
a(S'p2_ll'
I1
tp190
a(S'w'
I4395
tp191
a(S'p1_ll'
I1
tp192
a(S'w'
I7
tp193
a(S'p2_tl'
I226
tp194
a(S'p2_ll'
I1
tp195
a(S'w'
I7
tp196
a(S'tr_ll'
I1
tp197
a(S'w'
I4389
tp198
a(S'p1_tl'
I134
tp199
a(S'p1_ll'
I1
tp200
a(S'w'
I9
tp201
a(S'p2_tl'
I160
tp202
a(S'p2_ll'
I1
tp203
a(S'w'
I8
tp204
a(S'tr_lr'
I108
tp205
a(S'w'
I3
tp206
a(S'tr_tl'
I147
tp207
a(S'w'
I1
tp208
a(S'tr_ll'
I1
tp209
a(S'tr_th'
I1
tp210
a(S'w'
I4381
tp211
a(S'p1_tl'
I201
tp212
a(S'p1_ll'
I1
tp213
a(S'w'
I4403
tp214
a(S'p1_tl'
I151
tp215
a(S'p1_ll'
I1
tp216
a(S'w'
I4403
tp217
a(S'p1_tl'
I160
tp218
a(S'p1_ll'
I1
tp219
a(S'w'
I9
tp220
a(S'p2_tl'
I134
tp221
a(S'p2_ll'
I1
tp222
a(S'w'
I4394
tp223
a(S'p1_tl'
I201
tp224
a(S'p1_ll'
I1
tp225
a(S'w'
I7
tp226
a(S'p2_tl'
I201
tp227
a(S'w'
I1
tp228
a(S'p2_ll'
I1
tp229
a(S'w'
I4394
tp230
a(S'p1_tl'
I100
tp231
a(S'w'
I1
tp232
a(S'p1_ll'
I1
tp233
a(S'w'
I7
tp234
a(S'p2_tl'
I151
tp235
a(S'p2_ll'
I1
tp236
a(S'w'
I4395
tp237
a(S'p1_tl'
I113
tp238
a(S'p1_ll'
I1
tp239
a(S'w'
I7
tp240
a(S'p2_tl'
I160
tp241
a(S'w'
I1
tp242
a(S'p2_ll'
I1
tp243
a(S'w'
I5
tp244
a(S'tr_lr'
I18
tp245
a(S'w'
I4
tp246
a(S'tr_tl'
I134
tp247
a(S'tr_ll'
I1
tp248
a(S'tr_th'
I0
tp249
a(S'w'
I4386
tp250
a(S'p1_tl'
I151
tp251
a(S'p1_ll'
I1
tp252
a(S'w'
I7
tp253
a(S'p2_tl'
I201
tp254
a(S'w'
I1
tp255
a(S'p2_ll'
I1
tp256
a(S'w'
I7
tp257
a(S'tr_tl'
I201
tp258
a(S'tr_ll'
I1
tp259
a(S'w'
I4388
tp260
a(S'p1_tl'
I119
tp261
a(S'p1_ll'
I1
tp262
a(S'w'
I8
tp263
a(S'p2_tl'
I100
tp264
a(S'p2_ll'
I1
tp265
a(S'w'
I7
tp266
a(S'tr_tl'
I151
tp267
a(S'w'
I1
tp268
a(S'tr_ll'
I1
tp269
a(S'w'
I4386
tp270
a(S'p1_tl'
I134
tp271
a(S'p1_ll'
I1
tp272
a(S'w'
I7
tp273
a(S'p2_tl'
I113
tp274
a(S'w'
I1
tp275
a(S'p2_ll'
I1
tp276
a(S'w'
I7
tp277
a(S'tr_tl'
I160
tp278
a(S'tr_ll'
I1
tp279
a(S'w'
I4388
tp280
a(S'p1_tl'
I100
tp281
a(S'w'
I1
tp282
a(S'p1_ll'
I1
tp283
a(S'w'
I7
tp284
a(S'p2_tl'
I151
tp285
a(S'p2_ll'
I1
tp286
a(S'w'
I7
tp287
a(S'tr_tl'
I201
tp288
a(S'w'
I1
tp289
a(S'tr_ll'
I1
tp290
a(S'w'
I4387
tp291
a(S'p1_tl'
I75
tp292
a(S'w'
I1
tp293
a(S'p1_ll'
I1
tp294
a(S'w'
I7
tp295
a(S'p2_tl'
I119
tp296
a(S'p2_ll'
I1
tp297
a(S'w'
I8
tp298
a(S'tr_tl'
I100
tp299
a(S'tr_ll'
I1
tp300
a(S'w'
I4387
tp301
a(S'p1_tl'
I80
tp302
a(S'w'
I1
tp303
a(S'p1_ll'
I1
tp304
a(S'w'
I7
tp305
a(S'p2_tl'
I134
tp306
a(S'p2_ll'
I1
tp307
a(S'w'
I7
tp308
a(S'tr_tl'
I113
tp309
a(S'w'
I1
tp310
a(S'tr_ll'
I1
tp311
a(S'w'
I4386
tp312
a(S'p1_tl'
I100
tp313
a(S'w'
I1
tp314
a(S'p1_ll'
I1
tp315
a(S'w'
I7
tp316
a(S'p2_tl'
I100
tp317
a(S'w'
I1
tp318
a(S'p2_ll'
I1
tp319
a(S'w'
I7
tp320
a(S'tr_tl'
I151
tp321
a(S'tr_ll'
I1
tp322
a(S'w'
I4387
tp323
a(S'p1_tl'
I67
tp324
a(S'w'
I1
tp325
a(S'p1_ll'
I1
tp326
a(S'w'
I7
tp327
a(S'p2_tl'
I75
tp328
a(S'w'
I1
tp329
a(S'p2_ll'
I1
tp330
a(S'w'
I7
tp331
a(S'tr_tl'
I119
tp332
a(S'tr_ll'
I1
tp333
a(S'w'
I4387
tp334
a(S'p1_tl'
I75
tp335
a(S'w'
I1
tp336
a(S'p1_ll'
I1
tp337
a(S'w'
I7
tp338
a(S'p2_tl'
I80
tp339
a(S'w'
I1
tp340
a(S'p2_ll'
I1
tp341
a(S'w'
I7
tp342
a(S'tr_tl'
I134
tp343
a(S'tr_ll'
I1
tp344
a(S'w'
I4387
tp345
a(S'p1_tl'
I80
tp346
a(S'w'
I1
tp347
a(S'p1_ll'
I1
tp348
a(S'w'
I7
tp349
a(S'p2_tl'
I100
tp350
a(S'w'
I1
tp351
a(S'p2_ll'
I1
tp352
a(S'w'
I7
tp353
a(S'tr_tl'
I100
tp354
a(S'w'
I1
tp355
a(S'tr_ll'
I1
tp356
a(S'w'
I4385
tp357
a(S'p1_tl'
I100
tp358
a(S'w'
I1
tp359
a(S'p1_ll'
I1
tp360
a(S'w'
I7
tp361
a(S'p2_tl'
I67
tp362
a(S'w'
I1
tp363
a(S'p2_ll'
I1
tp364
a(S'w'
I7
tp365
a(S'tr_tl'
I75
tp366
a(S'w'
I1
tp367
a(S'tr_ll'
I1
tp368
a(S'w'
I4388
tp369
a(S'p1_tl'
I67
tp370
a(S'w'
I1
tp371
a(S'p1_ll'
I1
tp372
a(S'w'
I7
tp373
a(S'p2_tl'
I75
tp374
a(S'w'
I1
tp375
a(S'p2_ll'
I1
tp376
a(S'w'
I7
tp377
a(S'tr_tl'
I80
tp378
a(S'tr_ll'
I1
tp379
a(S'w'
I4386
tp380
a(S'p2_tl'
I80
tp381
a(S'p2_ll'
I1
tp382
a(S'w'
I8
tp383
a(S'tr_tl'
I100
tp384
a(S'tr_ll'
I1
tp385
a(S'w'
I4395
tp386
a(S'p2_tl'
I100
tp387
a(S'p2_ll'
I1
tp388
a(S'w'
I8
tp389
a(S'tr_tl'
I67
tp390
a(S'tr_ll'
I1
tp391
a(S'w'
I4396
tp392
a(S'p2_tl'
I67
tp393
a(S'p2_ll'
I1
tp394
a(S'w'
I8
tp395
a(S'tr_tl'
I75
tp396
a(S'tr_ll'
I1
tp397
a(S'w'
I4394
tp398
a(S'tr_tl'
I80
tp399
a(S'tr_ll'
I1
tp400
a(S'w'
I4403
tp401
a(S'tr_tl'
I100
tp402
a(S'tr_ll'
I1
tp403
a(S'w'
I5131
tp404
a(S'tr_lr'
I0
tp405
a(S'w'
I1
tp406
a(S'p1_du'
I0
tp407
a(S'p1_cv'
I1
tp408
a(S'p1_vo'
I0
tp409
a(S'p2_du'
I0
tp410
a(S'p2_cv'
I1
tp411
a(S'p2_vo'
I0
tp412
a(S'ch_no'
I1
tp413
a(S'ch_tr'
I1
tp414
a(S'ch_p2'
I1
tp415
a(S'ch_p1'
I1
tp416
a(S'w'
I52854
tp417
a.