(lp1
(S'clock'
p2
I1789772
tp3
a(S'p1_du'
I3
tp4
a(S'p1_lh'
I1
tp5
a(S'p1_cv'
I1
tp6
a(S'p1_vo'
I6
tp7
a(S'p1_ss'
I7
tp8
a(S'p1_tl'
I63
tp9
a(S'p1_ll'
I0
tp10
a(S'p1_th'
I1
tp11
a(S'p2_du'
I3
tp12
a(S'p2_lh'
I1
tp13
a(S'p2_cv'
I1
tp14
a(S'p2_vo'
I6
tp15
a(S'p2_ss'
I7
tp16
a(S'p2_tl'
I222
tp17
a(S'p2_ll'
I0
tp18
a(S'p2_th'
I1
tp19
a(S'tr_lh'
I1
tp20
a(S'tr_lr'
I127
tp21
a(S'tr_tl'
I189
tp22
a(S'tr_ll'
I0
tp23
a(S'no_lh'
I1
tp24
a(S'no_cv'
I1
tp25
a(S'no_ll'
I0
tp26
a(S'ch_no'
I1
tp27
a(S'ch_tr'
I1
tp28
a(S'ch_p2'
I1
tp29
a(S'ch_p1'
I1
tp30
a(S'fc_mo'
I1
tp31
a(S'w'
I546
tp32
a(S'w'
I2
tp33
a(S'p2_vo'
I11
tp34
a(S'w'
I2
tp35
a(S'p1_vo'
I11
tp36
a(S'w'
I583
tp37
a(S'w'
I1
tp38
a(S'p2_vo'
I15
tp39
a(S'w'
I2
tp40
a(S'p1_vo'
I15
tp41
a(S'w'
I845
tp42
a(S'w'
I2
tp43
a(S'p2_vo'
I14
tp44
a(S'w'
I2
tp45
a(S'p1_vo'
I14
tp46
a(S'w'
I584
tp47
a(S'w'
I2
tp48
a(S'p2_vo'
I13
tp49
a(S'w'
I2
tp50
a(S'p1_vo'
I13
tp51
a(S'w'
I833
tp52
a(S'tr_lr'
I0
tp53
a(S'w'
I1
tp54
a(S'tr_tl'
I0
tp55
a(S'tr_ll'
I0
tp56
a(S'w'
I17
tp57
a(S'p2_vo'
I12
tp58
a(S'w'
I2
tp59
a(S'p1_vo'
I12
tp60
a(S'w'
I585
tp61
a(S'p2_vo'
I11
tp62
a(S'w'
I2
tp63
a(S'p1_vo'
I11
tp64
a(S'w'
I875
tp65
a(S'tr_lr'
I127
tp66
a(S'w'
I1
tp67
a(S'tr_tl'
I189
tp68
a(S'tr_ll'
I0
tp69
a(S'w'
I3
tp70
a(S'p2_vo'
I1
tp71
a(S'w'
I3
tp72
a(S'p1_vo'
I1
tp73
a(S'w'
I1
tp74
a(S'w'
I583
tp75
a(S'w'
I2
tp76
a(S'p2_vo'
I6
tp77
a(S'w'
I2
tp78
a(S'p1_vo'
I6
tp79
a(S'w'
I843
tp80
a(S'w'
I2
tp81
a(S'p2_vo'
I11
tp82
a(S'w'
I2
tp83
a(S'p1_vo'
I11
tp84
a(S'w'
I584
tp85
a(S'w'
I2
tp86
a(S'p2_vo'
I15
tp87
a(S'w'
I2
tp88
a(S'p1_vo'
I15
tp89
a(S'w'
I845
tp90
a(S'w'
I2
tp91
a(S'p2_vo'
I14
tp92
a(S'w'
I2
tp93
a(S'p1_vo'
I14
tp94
a(S'w'
I844
tp95
a(S'w'
I2
tp96
a(S'p2_vo'
I13
tp97
a(S'w'
I2
tp98
a(S'p1_vo'
I13
tp99
a(S'w'
I583
tp100
a(S'w'
I2
tp101
a(S'p2_vo'
I12
tp102
a(S'w'
I2
tp103
a(S'p1_vo'
I12
tp104
a(S'w'
I844
tp105
a(S'w'
I2
tp106
a(S'p2_vo'
I11
tp107
a(S'w'
I2
tp108
a(S'p1_vo'
I11
tp109
a(S'w'
I583
tp110
a(S'w'
I2
tp111
a(S'p2_vo'
I10
tp112
a(S'w'
I2
tp113
a(S'p1_vo'
I10
tp114
a(S'w'
I844
tp115
a(S'w'
I2
tp116
a(S'p2_vo'
I9
tp117
a(S'w'
I2
tp118
a(S'p1_vo'
I9
tp119
a(S'w'
I584
tp120
a(S'w'
I2
tp121
a(S'p2_vo'
I8
tp122
a(S'w'
I2
tp123
a(S'p1_vo'
I8
tp124
a(S'w'
I843
tp125
a(S'w'
I2
tp126
a(S'p2_vo'
I7
tp127
a(S'w'
I2
tp128
a(S'p1_vo'
I7
tp129
a(S'w'
I844
tp130
a(S'w'
I2
tp131
a(S'p2_vo'
I6
tp132
a(S'w'
I2
tp133
a(S'p1_vo'
I6
tp134
a(S'w'
I584
tp135
a(S'w'
I2
tp136
a(S'p2_vo'
I5
tp137
a(S'w'
I1
tp138
a(S'p1_vo'
I5
tp139
a(S'w'
I844
tp140
a(S'w'
I2
tp141
a(S'p2_vo'
I4
tp142
a(S'w'
I2
tp143
a(S'p1_vo'
I4
tp144
a(S'w'
I581
tp145
a(S'w'
I2
tp146
a(S'w'
I2
tp147
a(S'w'
I839
tp148
a(S'w'
I2
tp149
a(S'w'
I2
tp150
a(S'w'
I578
tp151
a(S'w'
I2
tp152
a(S'w'
I2
tp153
a(S'w'
I839
tp154
a(S'w'
I1
tp155
a(S'w'
I2
tp156
a(S'w'
I840
tp157
a(S'w'
I2
tp158
a(S'w'
I2
tp159
a(S'w'
I578
tp160
a(S'w'
I2
tp161
a(S'w'
I2
tp162
a(S'w'
I838
tp163
a(S'w'
I2
tp164
a(S'w'
I2
tp165
a(S'w'
I579
tp166
a(S'w'
I2
tp167
a(S'w'
I2
tp168
a(S'w'
I839
tp169
a(S'w'
I1
tp170
a(S'w'
I2
tp171
a(S'w'
I578
tp172
a(S'w'
I2
tp173
a(S'w'
I2
tp174
a(S'w'
I840
tp175
a(S'w'
I2
tp176
a(S'w'
I1
tp177
a(S'w'
I839
tp178
a(S'w'
I2
tp179
a(S'w'
I2
tp180
a(S'w'
I578
tp181
a(S'w'
I2
tp182
a(S'w'
I2
tp183
a(S'w'
I839
tp184
a(S'w'
I2
tp185
a(S'w'
I2
tp186
a(S'w'
I578
tp187
a(S'w'
I2
tp188
a(S'w'
I2
tp189
a(S'w'
I833
tp190
a(S'tr_lr'
I0
tp191
a(S'w'
I1
tp192
a(S'tr_tl'
I0
tp193
a(S'tr_ll'
I0
tp194
a(S'w'
I17
tp195
a(S'p2_vo'
I3
tp196
a(S'w'
I2
tp197
a(S'p1_vo'
I3
tp198
a(S'w'
I579
tp199
a(S'w'
I2
tp200
a(S'w'
I871
tp201
a(S'tr_lr'
I127
tp202
a(S'tr_tl'
I225
tp203
a(S'w'
I1
tp204
a(S'tr_ll'
I0
tp205
a(S'w'
I2
tp206
a(S'p2_vo'
I1
tp207
a(S'w'
I1
tp208
a(S'p2_tl'
I58
tp209
a(S'w'
I1
tp210
a(S'p2_ll'
I0
tp211
a(S'p2_th'
I2
tp212
a(S'w'
I2
tp213
a(S'p1_vo'
I1
tp214
a(S'p1_tl'
I123
tp215
a(S'w'
I845
tp216
a(S'w'
I2
tp217
a(S'p2_vo'
I6
tp218
a(S'w'
I1
tp219
a(S'p1_vo'
I6
tp220
a(S'w'
I583
tp221
a(S'w'
I2
tp222
a(S'p2_vo'
I11
tp223
a(S'w'
I2
tp224
a(S'p1_vo'
I11
tp225
a(S'w'
I844
tp226
a(S'w'
I2
tp227
a(S'p2_vo'
I15
tp228
a(S'w'
I2
tp229
a(S'p1_vo'
I15
tp230
a(S'w'
I584
tp231
a(S'w'
I2
tp232
a(S'p2_vo'
I14
tp233
a(S'w'
I2
tp234
a(S'p1_vo'
I14
tp235
a(S'w'
I844
tp236
a(S'w'
I2
tp237
a(S'p2_vo'
I13
tp238
a(S'w'
I2
tp239
a(S'p1_vo'
I13
tp240
a(S'w'
I584
tp241
a(S'w'
I2
tp242
a(S'p2_vo'
I12
tp243
a(S'w'
I1
tp244
a(S'p1_vo'
I12
tp245
a(S'w'
I844
tp246
a(S'w'
I2
tp247
a(S'p2_vo'
I11
tp248
a(S'w'
I2
tp249
a(S'p1_vo'
I11
tp250
a(S'w'
I583
tp251
a(S'w'
I2
tp252
a(S'p2_vo'
I10
tp253
a(S'w'
I2
tp254
a(S'p1_vo'
I10
tp255
a(S'w'
I845
tp256
a(S'w'
I1
tp257
a(S'p2_vo'
I9
tp258
a(S'w'
I2
tp259
a(S'p1_vo'
I9
tp260
a(S'w'
I844
tp261
a(S'w'
I2
tp262
a(S'p2_vo'
I8
tp263
a(S'w'
I2
tp264
a(S'p1_vo'
I8
tp265
a(S'w'
I583
tp266
a(S'w'
I2
tp267
a(S'p2_vo'
I7
tp268
a(S'w'
I2
tp269
a(S'p1_vo'
I7
tp270
a(S'w'
I845
tp271
a(S'w'
I1
tp272
a(S'p2_vo'
I6
tp273
a(S'w'
I2
tp274
a(S'p1_vo'
I6
tp275
a(S'w'
I584
tp276
a(S'w'
I1
tp277
a(S'p2_vo'
I5
tp278
a(S'w'
I2
tp279
a(S'p1_vo'
I5
tp280
a(S'w'
I844
tp281
a(S'w'
I2
tp282
a(S'p2_vo'
I4
tp283
a(S'w'
I2
tp284
a(S'p1_vo'
I4
tp285
a(S'w'
I581
tp286
a(S'w'
I2
tp287
a(S'w'
I2
tp288
a(S'w'
I829
tp289
a(S'tr_lr'
I0
tp290
a(S'tr_tl'
I0
tp291
a(S'tr_ll'
I0
tp292
a(S'w'
I18
tp293
a(S'w'
I1
tp294
a(S'w'
I841
tp295
a(S'w'
I2
tp296
a(S'w'
I580
tp297
a(S'w'
I2
tp298
a(S'w'
I840
tp299
a(S'w'
I2
tp300
a(S'w'
I579
tp301
a(S'w'
I2
tp302
a(S'w'
I841
tp303
a(S'w'
I2
tp304
a(S'w'
I579
tp305
a(S'w'
I2
tp306
a(S'w'
I840
tp307
a(S'w'
I2
tp308
a(S'w'
I870
tp309
a(S'tr_lr'
I127
tp310
a(S'w'
I1
tp311
a(S'tr_tl'
I159
tp312
a(S'w'
I1
tp313
a(S'tr_ll'
I0
tp314
a(S'w'
I2
tp315
a(S'p2_vo'
I1
tp316
a(S'w'
I1
tp317
a(S'p2_tl'
I146
tp318
a(S'p2_ll'
I0
tp319
a(S'p2_th'
I1
tp320
a(S'w'
I3
tp321
a(S'p1_vo'
I1
tp322
a(S'p1_tl'
I12
tp323
a(S'w'
I584
tp324
a(S'w'
I2
tp325
a(S'p2_vo'
I6
tp326
a(S'w'
I2
tp327
a(S'p1_vo'
I6
tp328
a(S'w'
I843
tp329
a(S'w'
I2
tp330
a(S'p2_vo'
I11
tp331
a(S'w'
I2
tp332
a(S'p1_vo'
I11
tp333
a(S'w'
I583
tp334
a(S'w'
I2
tp335
a(S'p2_vo'
I15
tp336
a(S'w'
I2
tp337
a(S'p1_vo'
I15
tp338
a(S'w'
I845
tp339
a(S'w'
I2
tp340
a(S'p2_vo'
I14
tp341
a(S'w'
I2
tp342
a(S'p1_vo'
I14
tp343
a(S'w'
I583
tp344
a(S'w'
I2
tp345
a(S'p2_vo'
I13
tp346
a(S'w'
I2
tp347
a(S'p1_vo'
I13
tp348
a(S'w'
I834
tp349
a(S'tr_lr'
I0
tp350
a(S'tr_tl'
I0
tp351
a(S'tr_ll'
I0
tp352
a(S'w'
I18
tp353
a(S'p2_vo'
I12
tp354
a(S'w'
I1
tp355
a(S'p1_vo'
I12
tp356
a(S'w'
I586
tp357
a(S'p2_vo'
I11
tp358
a(S'w'
I2
tp359
a(S'p1_vo'
I11
tp360
a(S'w'
I874
tp361
a(S'tr_lr'
I127
tp362
a(S'w'
I1
tp363
a(S'tr_tl'
I159
tp364
a(S'w'
I1
tp365
a(S'tr_ll'
I0
tp366
a(S'w'
I2
tp367
a(S'p2_vo'
I1
tp368
a(S'w'
I1
tp369
a(S'w'
I2
tp370
a(S'p1_vo'
I1
tp371
a(S'w'
I1
tp372
a(S'w'
I584
tp373
a(S'w'
I1
tp374
a(S'p2_vo'
I6
tp375
a(S'w'
I2
tp376
a(S'p1_vo'
I6
tp377
a(S'w'
I844
tp378
a(S'w'
I2
tp379
a(S'p2_vo'
I11
tp380
a(S'w'
I2
tp381
a(S'p1_vo'
I11
tp382
a(S'w'
I844
tp383
a(S'w'
I2
tp384
a(S'p2_vo'
I15
tp385
a(S'w'
I2
tp386
a(S'p1_vo'
I15
tp387
a(S'w'
I584
tp388
a(S'w'
I2
tp389
a(S'p2_vo'
I14
tp390
a(S'w'
I2
tp391
a(S'p1_vo'
I14
tp392
a(S'w'
I844
tp393
a(S'w'
I2
tp394
a(S'p2_vo'
I13
tp395
a(S'w'
I2
tp396
a(S'p1_vo'
I13
tp397
a(S'w'
I583
tp398
a(S'w'
I2
tp399
a(S'p2_vo'
I12
tp400
a(S'w'
I2
tp401
a(S'p1_vo'
I12
tp402
a(S'w'
I844
tp403
a(S'w'
I2
tp404
a(S'p2_vo'
I11
tp405
a(S'w'
I2
tp406
a(S'p1_vo'
I11
tp407
a(S'w'
I583
tp408
a(S'w'
I2
tp409
a(S'p2_vo'
I10
tp410
a(S'w'
I2
tp411
a(S'p1_vo'
I10
tp412
a(S'w'
I844
tp413
a(S'w'
I2
tp414
a(S'p2_vo'
I9
tp415
a(S'w'
I2
tp416
a(S'p1_vo'
I9
tp417
a(S'w'
I583
tp418
a(S'w'
I2
tp419
a(S'p2_vo'
I8
tp420
a(S'w'
I2
tp421
a(S'p1_vo'
I8
tp422
a(S'w'
I844
tp423
a(S'w'
I2
tp424
a(S'p2_vo'
I7
tp425
a(S'w'
I2
tp426
a(S'p1_vo'
I7
tp427
a(S'w'
I844
tp428
a(S'w'
I2
tp429
a(S'p2_vo'
I6
tp430
a(S'w'
I2
tp431
a(S'p1_vo'
I6
tp432
a(S'w'
I583
tp433
a(S'w'
I2
tp434
a(S'p2_vo'
I5
tp435
a(S'w'
I2
tp436
a(S'p1_vo'
I5
tp437
a(S'w'
I844
tp438
a(S'w'
I2
tp439
a(S'p2_vo'
I4
tp440
a(S'w'
I2
tp441
a(S'p1_vo'
I4
tp442
a(S'w'
I581
tp443
a(S'w'
I2
tp444
a(S'w'
I2
tp445
a(S'w'
I838
tp446
a(S'w'
I2
tp447
a(S'w'
I2
tp448
a(S'w'
I578
tp449
a(S'w'
I2
tp450
a(S'w'
I2
tp451
a(S'w'
I840
tp452
a(S'w'
I1
tp453
a(S'w'
I2
tp454
a(S'w'
I839
tp455
a(S'w'
I2
tp456
a(S'w'
I2
tp457
a(S'w'
I578
tp458
a(S'w'
I2
tp459
a(S'w'
I2
tp460
a(S'w'
I839
tp461
a(S'w'
I2
tp462
a(S'w'
I2
tp463
a(S'w'
I578
tp464
a(S'w'
I2
tp465
a(S'w'
I2
tp466
a(S'w'
I839
tp467
a(S'w'
I2
tp468
a(S'w'
I2
tp469
a(S'w'
I839
tp470
a(S'w'
I2
tp471
a(S'w'
I2
tp472
a(S'w'
I578
tp473
a(S'w'
I2
tp474
a(S'w'
I2
tp475
a(S'w'
I839
tp476
a(S'w'
I1
tp477
a(S'w'
I2
tp478
a(S'w'
I579
tp479
a(S'w'
I2
tp480
a(S'w'
I2
tp481
a(S'w'
I839
tp482
a(S'w'
I2
tp483
a(S'w'
I1
tp484
a(S'w'
I579
tp485
a(S'w'
I2
tp486
a(S'w'
I1
tp487
a(S'w'
I834
tp488
a(S'tr_lr'
I0
tp489
a(S'w'
I1
tp490
a(S'tr_tl'
I0
tp491
a(S'tr_ll'
I0
tp492
a(S'w'
I17
tp493
a(S'p2_vo'
I3
tp494
a(S'w'
I2
tp495
a(S'p1_vo'
I3
tp496
a(S'w'
I840
tp497
a(S'w'
I2
tp498
a(S'w'
I609
tp499
a(S'tr_lr'
I127
tp500
a(S'w'
I1
tp501
a(S'tr_tl'
I169
tp502
a(S'w'
I1
tp503
a(S'tr_ll'
I0
tp504
a(S'w'
I2
tp505
a(S'p2_vo'
I1
tp506
a(S'p2_tl'
I170
tp507
a(S'w'
I3
tp508
a(S'p1_vo'
I1
tp509
a(S'w'
I1
tp510
a(S'p1_tl'
I28
tp511
a(S'w'
I845
tp512
a(S'w'
I1
tp513
a(S'p2_vo'
I6
tp514
a(S'w'
I2
tp515
a(S'p1_vo'
I6
tp516
a(S'w'
I583
tp517
a(S'w'
I2
tp518
a(S'p2_vo'
I11
tp519
a(S'w'
I2
tp520
a(S'p1_vo'
I11
tp521
a(S'w'
I844
tp522
a(S'w'
I1
tp523
a(S'p2_vo'
I15
tp524
a(S'w'
I2
tp525
a(S'p1_vo'
I15
tp526
a(S'w'
I585
tp527
a(S'w'
I2
tp528
a(S'p2_vo'
I14
tp529
a(S'w'
I2
tp530
a(S'p1_vo'
I14
tp531
a(S'w'
I844
tp532
a(S'w'
I2
tp533
a(S'p2_vo'
I13
tp534
a(S'w'
I2
tp535
a(S'p1_vo'
I13
tp536
a(S'w'
I583
tp537
a(S'w'
I2
tp538
a(S'p2_vo'
I12
tp539
a(S'w'
I2
tp540
a(S'p1_vo'
I12
tp541
a(S'w'
I844
tp542
a(S'w'
I2
tp543
a(S'p2_vo'
I11
tp544
a(S'w'
I2
tp545
a(S'p1_vo'
I11
tp546
a(S'w'
I844
tp547
a(S'w'
I2
tp548
a(S'p2_vo'
I10
tp549
a(S'w'
I2
tp550
a(S'p1_vo'
I10
tp551
a(S'w'
I583
tp552
a(S'w'
I2
tp553
a(S'p2_vo'
I9
tp554
a(S'w'
I2
tp555
a(S'p1_vo'
I9
tp556
a(S'w'
I844
tp557
a(S'w'
I2
tp558
a(S'p2_vo'
I8
tp559
a(S'w'
I2
tp560
a(S'p1_vo'
I8
tp561
a(S'w'
I583
tp562
a(S'w'
I2
tp563
a(S'p2_vo'
I7
tp564
a(S'w'
I2
tp565
a(S'p1_vo'
I7
tp566
a(S'w'
I844
tp567
a(S'w'
I2
tp568
a(S'p2_vo'
I6
tp569
a(S'w'
I2
tp570
a(S'p1_vo'
I6
tp571
a(S'w'
I583
tp572
a(S'w'
I2
tp573
a(S'p2_vo'
I5
tp574
a(S'w'
I2
tp575
a(S'p1_vo'
I5
tp576
a(S'w'
I844
tp577
a(S'w'
I2
tp578
a(S'p2_vo'
I4
tp579
a(S'w'
I2
tp580
a(S'p1_vo'
I4
tp581
a(S'w'
I581
tp582
a(S'w'
I2
tp583
a(S'w'
I1
tp584
a(S'w'
I839
tp585
a(S'w'
I2
tp586
a(S'w'
I2
tp587
a(S'w'
I839
tp588
a(S'w'
I2
tp589
a(S'w'
I2
tp590
a(S'w'
I578
tp591
a(S'w'
I2
tp592
a(S'w'
I2
tp593
a(S'w'
I839
tp594
a(S'w'
I2
tp595
a(S'w'
I2
tp596
a(S'w'
I579
tp597
a(S'w'
I1
tp598
a(S'w'
I2
tp599
a(S'w'
I839
tp600
a(S'w'
I2
tp601
a(S'w'
I2
tp602
a(S'w'
I828
tp603
a(S'tr_lr'
I0
tp604
a(S'w'
I1
tp605
a(S'tr_tl'
I0
tp606
a(S'tr_ll'
I0
tp607
a(S'w'
I17
tp608
a(S'w'
I2
tp609
a(S'w'
I580
tp610
a(S'w'
I2
tp611
a(S'w'
I870
tp612
a(S'tr_lr'
I127
tp613
a(S'w'
I1
tp614
a(S'tr_tl'
I159
tp615
a(S'tr_ll'
I0
tp616
a(S'w'
I3
tp617
a(S'p2_vo'
I1
tp618
a(S'p2_tl'
I146
tp619
a(S'w'
I3
tp620
a(S'p1_vo'
I1
tp621
a(S'w'
I1
tp622
a(S'p1_tl'
I12
tp623
a(S'w'
I583
tp624
a(S'w'
I2
tp625
a(S'p2_vo'
I6
tp626
a(S'w'
I2
tp627
a(S'p1_vo'
I6
tp628
a(S'w'
I844
tp629
a(S'w'
I2
tp630
a(S'p2_vo'
I11
tp631
a(S'w'
I2
tp632
a(S'p1_vo'
I11
tp633
a(S'w'
I573
tp634
a(S'tr_lr'
I0
tp635
a(S'tr_tl'
I0
tp636
a(S'tr_ll'
I0
tp637
a(S'w'
I17
tp638
a(S'p2_vo'
I15
tp639
a(S'w'
I2
tp640
a(S'p1_vo'
I15
tp641
a(S'w'
I876
tp642
a(S'tr_lr'
I127
tp643
a(S'w'
I1
tp644
a(S'tr_tl'
I169
tp645
a(S'w'
I1
tp646
a(S'tr_ll'
I0
tp647
a(S'w'
I2
tp648
a(S'p2_vo'
I1
tp649
a(S'p2_tl'
I170
tp650
a(S'w'
I3
tp651
a(S'p1_vo'
I1
tp652
a(S'w'
I1
tp653
a(S'p1_tl'
I28
tp654
a(S'w'
I584
tp655
a(S'w'
I2
tp656
a(S'p2_vo'
I6
tp657
a(S'w'
I2
tp658
a(S'p1_vo'
I6
tp659
a(S'w'
I843
tp660
a(S'w'
I2
tp661
a(S'p2_vo'
I11
tp662
a(S'w'
I2
tp663
a(S'p1_vo'
I11
tp664
a(S'w'
I573
tp665
a(S'tr_lr'
I0
tp666
a(S'tr_tl'
I0
tp667
a(S'tr_ll'
I0
tp668
a(S'w'
I18
tp669
a(S'p2_vo'
I15
tp670
a(S'w'
I1
tp671
a(S'p1_vo'
I15
tp672
a(S'w'
I877
tp673
a(S'tr_lr'
I127
tp674
a(S'tr_tl'
I189
tp675
a(S'w'
I1
tp676
a(S'tr_ll'
I0
tp677
a(S'w'
I2
tp678
a(S'p2_vo'
I1
tp679
a(S'w'
I1
tp680
a(S'p2_tl'
I222
tp681
a(S'w'
I3
tp682
a(S'p1_vo'
I1
tp683
a(S'p1_tl'
I63
tp684
a(S'w'
I584
tp685
a(S'w'
I2
tp686
a(S'p2_vo'
I6
tp687
a(S'w'
I2
tp688
a(S'p1_vo'
I6
tp689
a(S'w'
I843
tp690
a(S'w'
I2
tp691
a(S'p2_vo'
I11
tp692
a(S'w'
I2
tp693
a(S'p1_vo'
I11
tp694
a(S'w'
I583
tp695
a(S'w'
I2
tp696
a(S'p2_vo'
I15
tp697
a(S'w'
I2
tp698
a(S'p1_vo'
I15
tp699
a(S'w'
I845
tp700
a(S'w'
I2
tp701
a(S'p2_vo'
I14
tp702
a(S'w'
I2
tp703
a(S'p1_vo'
I14
tp704
a(S'w'
I844
tp705
a(S'w'
I2
tp706
a(S'p2_vo'
I13
tp707
a(S'w'
I2
tp708
a(S'p1_vo'
I13
tp709
a(S'w'
I573
tp710
a(S'tr_lr'
I0
tp711
a(S'tr_tl'
I0
tp712
a(S'tr_ll'
I0
tp713
a(S'w'
I18
tp714
a(S'p2_vo'
I12
tp715
a(S'w'
I2
tp716
a(S'p1_vo'
I12
tp717
a(S'w'
I845
tp718
a(S'p2_vo'
I11
tp719
a(S'w'
I2
tp720
a(S'p1_vo'
I11
tp721
a(S'w'
I565
tp722
a(S'p1_vo'
I0
tp723
a(S'w'
I1
tp724
a(S'p1_ss'
I0
tp725
a(S'p1_tl'
I0
tp726
a(S'p1_ll'
I0
tp727
a(S'p1_th'
I0
tp728
a(S'w'
I12
tp729
a(S'p2_vo'
I0
tp730
a(S'p2_ss'
I0
tp731
a(S'w'
I1
tp732
a(S'p2_tl'
I0
tp733
a(S'p2_ll'
I0
tp734
a(S'p2_th'
I0
tp735
a(S'w'
I7
tp736
a(S'w'
I1
tp737
a(S'tr_ll'
I0
tp738
a(S'w'
I6027
tp739
a(S'tr_lr'
I127
tp740
a(S'w'
I1
tp741
a(S'tr_tl'
I225
tp742
a(S'w'
I1
tp743
a(S'tr_ll'
I0
tp744
a(S'w'
I2
tp745
a(S'p2_vo'
I1
tp746
a(S'p2_ss'
I7
tp747
a(S'w'
I1
tp748
a(S'p2_tl'
I58
tp749
a(S'p2_ll'
I0
tp750
a(S'p2_th'
I2
tp751
a(S'w'
I3
tp752
a(S'p1_vo'
I1
tp753
a(S'p1_ss'
I7
tp754
a(S'p1_tl'
I123
tp755
a(S'w'
I1
tp756
a(S'p1_ll'
I0
tp757
a(S'p1_th'
I1
tp758
a(S'w'
I583
tp759
a(S'w'
I2
tp760
a(S'p2_vo'
I6
tp761
a(S'w'
I2
tp762
a(S'p1_vo'
I6
tp763
a(S'w'
I843
tp764
a(S'w'
I2
tp765
a(S'p2_vo'
I11
tp766
a(S'w'
I2
tp767
a(S'p1_vo'
I11
tp768
a(S'w'
I584
tp769
a(S'w'
I2
tp770
a(S'p2_vo'
I15
tp771
a(S'w'
I2
tp772
a(S'p1_vo'
I15
tp773
a(S'w'
I844
tp774
a(S'w'
I2
tp775
a(S'p2_vo'
I14
tp776
a(S'w'
I2
tp777
a(S'p1_vo'
I14
tp778
a(S'w'
I584
tp779
a(S'w'
I1
tp780
a(S'p2_vo'
I13
tp781
a(S'w'
I2
tp782
a(S'p1_vo'
I13
tp783
a(S'w'
I845
tp784
a(S'w'
I2
tp785
a(S'p2_vo'
I12
tp786
a(S'w'
I2
tp787
a(S'p1_vo'
I12
tp788
a(S'w'
I583
tp789
a(S'w'
I2
tp790
a(S'p2_vo'
I11
tp791
a(S'w'
I2
tp792
a(S'p1_vo'
I11
tp793
a(S'w'
I843
tp794
a(S'w'
I2
tp795
a(S'p2_vo'
I10
tp796
a(S'w'
I2
tp797
a(S'p1_vo'
I10
tp798
a(S'w'
I845
tp799
a(S'w'
I2
tp800
a(S'p2_vo'
I9
tp801
a(S'w'
I1
tp802
a(S'p1_vo'
I9
tp803
a(S'w'
I584
tp804
a(S'w'
I2
tp805
a(S'p2_vo'
I8
tp806
a(S'w'
I2
tp807
a(S'p1_vo'
I8
tp808
a(S'w'
I843
tp809
a(S'w'
I2
tp810
a(S'p2_vo'
I7
tp811
a(S'w'
I2
tp812
a(S'p1_vo'
I7
tp813
a(S'w'
I583
tp814
a(S'w'
I2
tp815
a(S'p2_vo'
I6
tp816
a(S'w'
I2
tp817
a(S'p1_vo'
I6
tp818
a(S'w'
I845
tp819
a(S'w'
I2
tp820
a(S'p2_vo'
I5
tp821
a(S'w'
I1
tp822
a(S'p1_vo'
I5
tp823
a(S'w'
I584
tp824
a(S'w'
I2
tp825
a(S'p2_vo'
I4
tp826
a(S'w'
I2
tp827
a(S'p1_vo'
I4
tp828
a(S'w'
I841
tp829
a(S'w'
I2
tp830
a(S'w'
I2
tp831
a(S'w'
I839
tp832
a(S'w'
I2
tp833
a(S'w'
I2
tp834
a(S'w'
I578
tp835
a(S'w'
I2
tp836
a(S'w'
I2
tp837
a(S'w'
I839
tp838
a(S'w'
I1
tp839
a(S'w'
I2
tp840
a(S'w'
I579
tp841
a(S'w'
I2
tp842
a(S'w'
I2
tp843
a(S'w'
I839
tp844
a(S'w'
I2
tp845
a(S'w'
I2
tp846
a(S'w'
I578
tp847
a(S'w'
I2
tp848
a(S'w'
I1
tp849
a(S'w'
I840
tp850
a(S'w'
I2
tp851
a(S'w'
I2
tp852
a(S'w'
I838
tp853
a(S'w'
I2
tp854
a(S'w'
I2
tp855
a(S'w'
I578
tp856
a(S'w'
I2
tp857
a(S'w'
I2
tp858
a(S'w'
I840
tp859
a(S'w'
I2
tp860
a(S'w'
I1
tp861
a(S'w'
I579
tp862
a(S'w'
I2
tp863
a(S'w'
I1
tp864
a(S'w'
I839
tp865
a(S'w'
I2
tp866
a(S'w'
I2
tp867
a(S'w'
I839
tp868
a(S'w'
I2
tp869
a(S'w'
I2
tp870
a(S'w'
I578
tp871
a(S'w'
I2
tp872
a(S'w'
I2
tp873
a(S'w'
I844
tp874
a(S'w'
I1
tp875
a(S'p2_vo'
I3
tp876
a(S'w'
I2
tp877
a(S'p1_vo'
I3
tp878
a(S'w'
I579
tp879
a(S'w'
I2
tp880
a(S'w'
I2
tp881
a(S'w'
I839
tp882
a(S'w'
I2
tp883
a(S'w'
I1
tp884
a(S'w'
I579
tp885
a(S'w'
I2
tp886
a(S'w'
I1
tp887
a(S'w'
I840
tp888
a(S'w'
I2
tp889
a(S'w'
I2
tp890
a(S'w'
I838
tp891
a(S'w'
I2
tp892
a(S'w'
I2
tp893
a(S'w'
I578
tp894
a(S'w'
I2
tp895
a(S'w'
I2
tp896
a(S'w'
I840
tp897
a(S'w'
I1
tp898
a(S'w'
I2
tp899
a(S'w'
I579
tp900
a(S'w'
I1
tp901
a(S'w'
I2
tp902
a(S'w'
I839
tp903
a(S'w'
I2
tp904
a(S'w'
I2
tp905
a(S'w'
I839
tp906
a(S'w'
I2
tp907
a(S'w'
I2
tp908
a(S'w'
I578
tp909
a(S'w'
I2
tp910
a(S'w'
I2
tp911
a(S'w'
I839
tp912
a(S'w'
I2
tp913
a(S'w'
I2
tp914
a(S'w'
I578
tp915
a(S'w'
I2
tp916
a(S'w'
I2
tp917
a(S'w'
I839
tp918
a(S'w'
I2
tp919
a(S'w'
I2
tp920
a(S'w'
I578
tp921
a(S'w'
I2
tp922
a(S'w'
I2
tp923
a(S'w'
I843
tp924
a(S'w'
I2
tp925
a(S'p2_vo'
I2
tp926
a(S'w'
I2
tp927
a(S'p1_vo'
I2
tp928
a(S'w'
I839
tp929
a(S'w'
I2
tp930
a(S'w'
I2
tp931
a(S'w'
I578
tp932
a(S'w'
I2
tp933
a(S'w'
I2
tp934
a(S'w'
I839
tp935
a(S'w'
I2
tp936
a(S'w'
I2
tp937
a(S'w'
I578
tp938
a(S'w'
I2
tp939
a(S'w'
I2
tp940
a(S'w'
I839
tp941
a(S'w'
I2
tp942
a(S'w'
I2
tp943
a(S'w'
I579
tp944
a(S'w'
I2
tp945
a(S'w'
I2
tp946
a(S'w'
I839
tp947
a(S'w'
I2
tp948
a(S'w'
I2
tp949
a(S'w'
I839
tp950
a(S'w'
I2
tp951
a(S'w'
I1
tp952
a(S'w'
I579
tp953
a(S'w'
I2
tp954
a(S'w'
I1
tp955
a(S'w'
I840
tp956
a(S'w'
I2
tp957
a(S'w'
I2
tp958
a(S'w'
I578
tp959
a(S'w'
I2
tp960
a(S'w'
I2
tp961
a(S'w'
I838
tp962
a(S'w'
I2
tp963
a(S'w'
I2
tp964
a(S'w'
I840
tp965
a(S'w'
I1
tp966
a(S'w'
I2
tp967
a(S'w'
I568
tp968
a(S'tr_lr'
I0
tp969
a(S'w'
I1
tp970
a(S'tr_tl'
I0
tp971
a(S'tr_ll'
I0
tp972
a(S'w'
I16
tp973
a(S'w'
I2
tp974
a(S'w'
I839
tp975
a(S'w'
I2
tp976
a(S'w'
I584
tp977
a(S'p2_vo'
I1
tp978
a(S'w'
I2
tp979
a(S'p1_vo'
I1
tp980
a(S'w'
I840
tp981
a(S'w'
I1
tp982
a(S'w'
I579
tp983
a(S'w'
I2
tp984
a(S'w'
I840
tp985
a(S'w'
I2
tp986
a(S'w'
I840
tp987
a(S'w'
I1
tp988
a(S'w'
I579
tp989
a(S'w'
I2
tp990
a(S'w'
I840
tp991
a(S'w'
I2
tp992
a(S'w'
I579
tp993
a(S'w'
I2
tp994
a(S'w'
I839
tp995
a(S'w'
I2
tp996
a(S'w'
I840
tp997
a(S'w'
I2
tp998
a(S'w'
I579
tp999
a(S'w'
I2
tp1000
a(S'w'
I839
tp1001
a(S'w'
I2
tp1002
a(S'w'
I579
tp1003
a(S'w'
I2
tp1004
a(S'w'
I840
tp1005
a(S'w'
I2
tp1006
a(S'w'
I579
tp1007
a(S'w'
I1
tp1008
a(S'w'
I840
tp1009
a(S'w'
I2
tp1010
a(S'w'
I844
tp1011
a(S'p2_vo'
I0
tp1012
a(S'w'
I2
tp1013
a(S'p1_vo'
I0
tp1014
a(S'w'
I578
tp1015
a(S'w'
I2
tp1016
a(S'w'
I839
tp1017
a(S'w'
I2
tp1018
a(S'w'
I578
tp1019
a(S'w'
I2
tp1020
a(S'w'
I839
tp1021
a(S'w'
I2
tp1022
a(S'w'
I839
tp1023
a(S'w'
I2
tp1024
a(S'w'
I578
tp1025
a(S'w'
I2
tp1026
a(S'w'
I839
tp1027
a(S'w'
I2
tp1028
a(S'w'
I578
tp1029
a(S'w'
I2
tp1030
a(S'w'
I839
tp1031
a(S'w'
I2
tp1032
a(S'w'
I839
tp1033
a(S'w'
I1
tp1034
a(S'w'
I579
tp1035
a(S'w'
I1
tp1036
a(S'w'
I840
tp1037
a(S'w'
I2
tp1038
a(S'w'
I578
tp1039
a(S'w'
I2
tp1040
a(S'w'
I838
tp1041
a(S'w'
I2
tp1042
a(S'w'
I579
tp1043
a(S'w'
I2
tp1044
a(S'w'
I838
tp1045
a(S'w'
I2
tp1046
a(S'w'
I839
tp1047
a(S'w'
I2
tp1048
a(S'w'
I579
tp1049
a(S'w'
I1
tp1050
a(S'w'
I839
tp1051
a(S'w'
I2
tp1052
a(S'w'
I578
tp1053
a(S'w'
I2
tp1054
a(S'w'
I839
tp1055
a(S'w'
I2
tp1056
a(S'w'
I839
tp1057
a(S'w'
I2
tp1058
a(S'w'
I578
tp1059
a(S'w'
I2
tp1060
a(S'w'
I839
tp1061
a(S'w'
I2
tp1062
a(S'w'
I578
tp1063
a(S'w'
I2
tp1064
a(S'w'
I839
tp1065
a(S'w'
I1
tp1066
a(S'w'
I840
tp1067
a(S'w'
I2
tp1068
a(S'w'
I578
tp1069
a(S'w'
I2
tp1070
a(S'w'
I838
tp1071
a(S'w'
I2
tp1072
a(S'w'
I578
tp1073
a(S'w'
I2
tp1074
a(S'w'
I839
tp1075
a(S'w'
I2
tp1076
a(S'w'
I459
tp1077
a.