(lp1
(S'clock'
p2
I1789772
tp3
a(S'p1_du'
I3
tp4
a(S'p1_lh'
I1
tp5
a(S'p1_cv'
I1
tp6
a(S'p1_vo'
I1
tp7
a(S'p1_ss'
I7
tp8
a(S'p1_tl'
I222
tp9
a(S'p1_ll'
I0
tp10
a(S'p1_th'
I1
tp11
a(S'p2_lh'
I1
tp12
a(S'p2_cv'
I1
tp13
a(S'p2_vo'
I14
tp14
a(S'p2_ss'
I7
tp15
a(S'p2_tl'
I122
tp16
a(S'p2_ll'
I0
tp17
a(S'p2_th'
I7
tp18
a(S'tr_lh'
I1
tp19
a(S'tr_ll'
I0
tp20
a(S'no_lh'
I1
tp21
a(S'no_cv'
I1
tp22
a(S'no_ll'
I0
tp23
a(S'ch_no'
I1
tp24
a(S'ch_tr'
I1
tp25
a(S'ch_p2'
I1
tp26
a(S'ch_p1'
I1
tp27
a(S'fc_mo'
I1
tp28
a(S'w'
I475
tp29
a(S'tr_lr'
I127
tp30
a(S'w'
I1
tp31
a(S'tr_tl'
I222
tp32
a(S'tr_ll'
I0
tp33
a(S'tr_th'
I1
tp34
a(S'w'
I2
tp35
a(S'p2_vo'
I13
tp36
a(S'w'
I2
tp37
a(S'p1_vo'
I5
tp38
a(S'w'
I844
tp39
a(S'w'
I2
tp40
a(S'p2_vo'
I12
tp41
a(S'w'
I2
tp42
a(S'p1_vo'
I9
tp43
a(S'w'
I583
tp44
a(S'w'
I2
tp45
a(S'p2_vo'
I11
tp46
a(S'w'
I2
tp47
a(S'p1_vo'
I10
tp48
a(S'w'
I845
tp49
a(S'w'
I2
tp50
a(S'p2_vo'
I10
tp51
a(S'w'
I1
tp52
a(S'p1_vo'
I9
tp53
a(S'w'
I584
tp54
a(S'w'
I2
tp55
a(S'p2_vo'
I9
tp56
a(S'w'
I1
tp57
a(S'p1_vo'
I8
tp58
a(S'w'
I844
tp59
a(S'w'
I2
tp60
a(S'p2_vo'
I8
tp61
a(S'w'
I2
tp62
a(S'p1_vo'
I7
tp63
a(S'w'
I583
tp64
a(S'w'
I2
tp65
a(S'w'
I2
tp66
a(S'p1_vo'
I6
tp67
a(S'w'
I840
tp68
a(S'w'
I2
tp69
a(S'w'
I1
tp70
a(S'w'
I579
tp71
a(S'w'
I1
tp72
a(S'w'
I2
tp73
a(S'w'
I840
tp74
a(S'w'
I2
tp75
a(S'w'
I2
tp76
a(S'w'
I838
tp77
a(S'w'
I2
tp78
a(S'w'
I2
tp79
a(S'w'
I578
tp80
a(S'w'
I2
tp81
a(S'w'
I2
tp82
a(S'w'
I840
tp83
a(S'w'
I1
tp84
a(S'w'
I2
tp85
a(S'w'
I578
tp86
a(S'w'
I2
tp87
a(S'w'
I2
tp88
a(S'w'
I839
tp89
a(S'w'
I2
tp90
a(S'w'
I2
tp91
a(S'w'
I839
tp92
a(S'w'
I2
tp93
a(S'w'
I2
tp94
a(S'w'
I578
tp95
a(S'w'
I2
tp96
a(S'w'
I2
tp97
a(S'w'
I839
tp98
a(S'w'
I2
tp99
a(S'w'
I2
tp100
a(S'w'
I578
tp101
a(S'w'
I2
tp102
a(S'w'
I1
tp103
a(S'w'
I840
tp104
a(S'w'
I2
tp105
a(S'w'
I2
tp106
a(S'w'
I578
tp107
a(S'w'
I2
tp108
a(S'w'
I2
tp109
a(S'w'
I841
tp110
a(S'w'
I2
tp111
a(S'p2_vo'
I7
tp112
a(S'w'
I2
tp113
a(S'w'
I841
tp114
a(S'w'
I2
tp115
a(S'w'
I2
tp116
a(S'p1_vo'
I5
tp117
a(S'w'
I578
tp118
a(S'w'
I2
tp119
a(S'w'
I2
tp120
a(S'w'
I839
tp121
a(S'w'
I2
tp122
a(S'w'
I2
tp123
a(S'w'
I578
tp124
a(S'w'
I2
tp125
a(S'w'
I2
tp126
a(S'w'
I839
tp127
a(S'w'
I2
tp128
a(S'w'
I2
tp129
a(S'w'
I839
tp130
a(S'w'
I1
tp131
a(S'w'
I2
tp132
a(S'w'
I579
tp133
a(S'w'
I2
tp134
a(S'w'
I2
tp135
a(S'w'
I839
tp136
a(S'w'
I2
tp137
a(S'w'
I1
tp138
a(S'w'
I579
tp139
a(S'w'
I2
tp140
a(S'w'
I1
tp141
a(S'w'
I840
tp142
a(S'w'
I2
tp143
a(S'w'
I2
tp144
a(S'w'
I578
tp145
a(S'w'
I2
tp146
a(S'w'
I2
tp147
a(S'w'
I838
tp148
a(S'w'
I2
tp149
a(S'w'
I2
tp150
a(S'w'
I840
tp151
a(S'w'
I1
tp152
a(S'w'
I2
tp153
a(S'w'
I579
tp154
a(S'w'
I1
tp155
a(S'w'
I2
tp156
a(S'w'
I827
tp157
a(S'p2_vo'
I0
tp158
a(S'p2_ss'
I0
tp159
a(S'w'
I1
tp160
a(S'p2_tl'
I0
tp161
a(S'p2_ll'
I0
tp162
a(S'p2_th'
I0
tp163
a(S'w'
I18
tp164
a(S'w'
I3
tp165
a(S'w'
I563
tp166
a(S'p1_vo'
I0
tp167
a(S'p1_ss'
I0
tp168
a(S'p1_tl'
I0
tp169
a(S'p1_ll'
I0
tp170
a(S'p1_th'
I0
tp171
a(S'w'
I24
tp172
a(S'w'
I846
tp173
a(S'tr_lr'
I0
tp174
a(S'tr_tl'
I0
tp175
a(S'tr_ll'
I0
tp176
a(S'tr_th'
I0
tp177
a(S'w'
I18
tp178
a(S'p2_vo'
I15
tp179
a(S'p2_ss'
I7
tp180
a(S'p2_tl'
I122
tp181
a(S'w'
I1
tp182
a(S'p2_ll'
I0
tp183
a(S'p2_th'
I7
tp184
a(S'w'
I596
tp185
a(S'p2_vo'
I14
tp186
a(S'w'
I2
tp187
a(S'p1_vo'
I1
tp188
a(S'w'
I1
tp189
a(S'p1_ss'
I7
tp190
a(S'p1_tl'
I222
tp191
a(S'w'
I1
tp192
a(S'p1_ll'
I0
tp193
a(S'p1_th'
I1
tp194
a(S'w'
I851
tp195
a(S'tr_lr'
I127
tp196
a(S'w'
I1
tp197
a(S'tr_tl'
I222
tp198
a(S'w'
I1
tp199
a(S'tr_ll'
I0
tp200
a(S'tr_th'
I1
tp201
a(S'w'
I2
tp202
a(S'p2_vo'
I13
tp203
a(S'w'
I2
tp204
a(S'p1_vo'
I5
tp205
a(S'w'
I583
tp206
a(S'w'
I2
tp207
a(S'p2_vo'
I12
tp208
a(S'w'
I1
tp209
a(S'p1_vo'
I9
tp210
a(S'w'
I844
tp211
a(S'w'
I2
tp212
a(S'p2_vo'
I11
tp213
a(S'w'
I2
tp214
a(S'p1_vo'
I10
tp215
a(S'w'
I857
tp216
a(S'w'
I2
tp217
a(S'p2_vo'
I15
tp218
a(S'w'
I1
tp219
a(S'p2_tl'
I234
tp220
a(S'w'
I2
tp221
a(S'p1_vo'
I9
tp222
a(S'w'
I596
tp223
a(S'w'
I2
tp224
a(S'p2_vo'
I14
tp225
a(S'w'
I2
tp226
a(S'p1_vo'
I1
tp227
a(S'p1_tl'
I251
tp228
a(S'w'
I852
tp229
a(S'tr_tl'
I251
tp230
a(S'w'
I3
tp231
a(S'p2_vo'
I13
tp232
a(S'w'
I2
tp233
a(S'p1_vo'
I5
tp234
a(S'w'
I583
tp235
a(S'w'
I2
tp236
a(S'p2_vo'
I12
tp237
a(S'w'
I2
tp238
a(S'p1_vo'
I9
tp239
a(S'w'
I844
tp240
a(S'w'
I2
tp241
a(S'p2_vo'
I11
tp242
a(S'w'
I2
tp243
a(S'p1_vo'
I10
tp244
a(S'w'
I596
tp245
a(S'w'
I2
tp246
a(S'p2_vo'
I15
tp247
a(S'p2_tl'
I122
tp248
a(S'w'
I3
tp249
a(S'p1_vo'
I9
tp250
a(S'w'
I856
tp251
a(S'w'
I2
tp252
a(S'p2_vo'
I14
tp253
a(S'w'
I2
tp254
a(S'p1_vo'
I1
tp255
a(S'w'
I1
tp256
a(S'p1_tl'
I222
tp257
a(S'w'
I591
tp258
a(S'w'
I1
tp259
a(S'tr_tl'
I222
tp260
a(S'w'
I2
tp261
a(S'p2_vo'
I13
tp262
a(S'w'
I2
tp263
a(S'p1_vo'
I5
tp264
a(S'w'
I844
tp265
a(S'w'
I2
tp266
a(S'p2_vo'
I12
tp267
a(S'w'
I1
tp268
a(S'p1_vo'
I9
tp269
a(S'w'
I584
tp270
a(S'w'
I1
tp271
a(S'p2_vo'
I11
tp272
a(S'w'
I2
tp273
a(S'p1_vo'
I10
tp274
a(S'w'
I857
tp275
a(S'w'
I2
tp276
a(S'p2_vo'
I15
tp277
a(S'w'
I1
tp278
a(S'p2_tl'
I234
tp279
a(S'w'
I2
tp280
a(S'p1_vo'
I9
tp281
a(S'w'
I596
tp282
a(S'w'
I2
tp283
a(S'p2_vo'
I14
tp284
a(S'w'
I2
tp285
a(S'p1_vo'
I1
tp286
a(S'w'
I1
tp287
a(S'p1_tl'
I251
tp288
a(S'w'
I851
tp289
a(S'w'
I1
tp290
a(S'tr_tl'
I251
tp291
a(S'w'
I2
tp292
a(S'p2_vo'
I13
tp293
a(S'w'
I2
tp294
a(S'p1_vo'
I5
tp295
a(S'w'
I584
tp296
a(S'w'
I2
tp297
a(S'p2_vo'
I12
tp298
a(S'w'
I2
tp299
a(S'p1_vo'
I9
tp300
a(S'w'
I843
tp301
a(S'w'
I2
tp302
a(S'p2_vo'
I11
tp303
a(S'w'
I2
tp304
a(S'p1_vo'
I10
tp305
a(S'w'
I856
tp306
a(S'w'
I2
tp307
a(S'p2_vo'
I15
tp308
a(S'w'
I1
tp309
a(S'p2_tl'
I122
tp310
a(S'w'
I3
tp311
a(S'p1_vo'
I9
tp312
a(S'w'
I596
tp313
a(S'w'
I2
tp314
a(S'p2_vo'
I14
tp315
a(S'w'
I2
tp316
a(S'p1_vo'
I1
tp317
a(S'w'
I1
tp318
a(S'p1_tl'
I222
tp319
a(S'w'
I851
tp320
a(S'tr_tl'
I222
tp321
a(S'w'
I3
tp322
a(S'p2_vo'
I13
tp323
a(S'w'
I2
tp324
a(S'p1_vo'
I5
tp325
a(S'w'
I583
tp326
a(S'w'
I2
tp327
a(S'p2_vo'
I12
tp328
a(S'w'
I2
tp329
a(S'p1_vo'
I9
tp330
a(S'w'
I844
tp331
a(S'w'
I2
tp332
a(S'p2_vo'
I11
tp333
a(S'w'
I2
tp334
a(S'p1_vo'
I10
tp335
a(S'w'
I596
tp336
a(S'w'
I2
tp337
a(S'p2_vo'
I15
tp338
a(S'p2_tl'
I234
tp339
a(S'w'
I3
tp340
a(S'p1_vo'
I9
tp341
a(S'w'
I856
tp342
a(S'w'
I2
tp343
a(S'p2_vo'
I14
tp344
a(S'w'
I2
tp345
a(S'p1_vo'
I1
tp346
a(S'w'
I1
tp347
a(S'p1_tl'
I251
tp348
a(S'w'
I590
tp349
a(S'w'
I1
tp350
a(S'tr_tl'
I251
tp351
a(S'w'
I3
tp352
a(S'p2_vo'
I13
tp353
a(S'w'
I2
tp354
a(S'p1_vo'
I5
tp355
a(S'w'
I844
tp356
a(S'w'
I2
tp357
a(S'p2_vo'
I12
tp358
a(S'w'
I2
tp359
a(S'p1_vo'
I9
tp360
a(S'w'
I583
tp361
a(S'w'
I2
tp362
a(S'p2_vo'
I11
tp363
a(S'w'
I2
tp364
a(S'p1_vo'
I10
tp365
a(S'w'
I856
tp366
a(S'w'
I2
tp367
a(S'p2_vo'
I15
tp368
a(S'p2_tl'
I122
tp369
a(S'w'
I3
tp370
a(S'p1_vo'
I9
tp371
a(S'w'
I596
tp372
a(S'w'
I2
tp373
a(S'p2_vo'
I14
tp374
a(S'w'
I2
tp375
a(S'p1_vo'
I1
tp376
a(S'w'
I1
tp377
a(S'p1_tl'
I222
tp378
a(S'w'
I851
tp379
a(S'w'
I1
tp380
a(S'tr_tl'
I222
tp381
a(S'w'
I2
tp382
a(S'p2_vo'
I13
tp383
a(S'w'
I2
tp384
a(S'p1_vo'
I5
tp385
a(S'w'
I583
tp386
a(S'w'
I2
tp387
a(S'p2_vo'
I12
tp388
a(S'w'
I2
tp389
a(S'p1_vo'
I9
tp390
a(S'w'
I845
tp391
a(S'w'
I1
tp392
a(S'p2_vo'
I11
tp393
a(S'w'
I2
tp394
a(S'p1_vo'
I10
tp395
a(S'w'
I857
tp396
a(S'w'
I2
tp397
a(S'p2_vo'
I15
tp398
a(S'p2_tl'
I234
tp399
a(S'w'
I3
tp400
a(S'p1_vo'
I9
tp401
a(S'w'
I596
tp402
a(S'w'
I1
tp403
a(S'p2_vo'
I14
tp404
a(S'w'
I2
tp405
a(S'p1_vo'
I1
tp406
a(S'w'
I1
tp407
a(S'p1_tl'
I251
tp408
a(S'w'
I852
tp409
a(S'w'
I1
tp410
a(S'tr_tl'
I251
tp411
a(S'w'
I2
tp412
a(S'p2_vo'
I13
tp413
a(S'w'
I2
tp414
a(S'p1_vo'
I5
tp415
a(S'w'
I583
tp416
a(S'w'
I2
tp417
a(S'p2_vo'
I12
tp418
a(S'w'
I2
tp419
a(S'p1_vo'
I9
tp420
a(S'w'
I832
tp421
a(S'p2_vo'
I0
tp422
a(S'p2_ss'
I0
tp423
a(S'p2_tl'
I0
tp424
a(S'p2_ll'
I0
tp425
a(S'p2_th'
I0
tp426
a(S'w'
I18
tp427
a(S'w'
I3
tp428
a(S'p1_vo'
I10
tp429
a(S'w'
I567
tp430
a(S'p1_vo'
I0
tp431
a(S'p1_ss'
I0
tp432
a(S'p1_tl'
I0
tp433
a(S'p1_ll'
I0
tp434
a(S'p1_th'
I0
tp435
a(S'w'
I36
tp436
a(S'w'
I2
tp437
a(S'p2_vo'
I15
tp438
a(S'p2_ss'
I7
tp439
a(S'w'
I1
tp440
a(S'p2_tl'
I122
tp441
a(S'w'
I1
tp442
a(S'p2_ll'
I0
tp443
a(S'p2_th'
I7
tp444
a(S'w'
I847
tp445
a(S'tr_lr'
I0
tp446
a(S'w'
I1
tp447
a(S'tr_tl'
I0
tp448
a(S'tr_ll'
I0
tp449
a(S'tr_th'
I0
tp450
a(S'w'
I17
tp451
a(S'p2_vo'
I14
tp452
a(S'w'
I2
tp453
a(S'p1_vo'
I1
tp454
a(S'p1_ss'
I7
tp455
a(S'w'
I1
tp456
a(S'p1_tl'
I222
tp457
a(S'w'
I1
tp458
a(S'p1_ll'
I0
tp459
a(S'p1_th'
I1
tp460
a(S'w'
I590
tp461
a(S'tr_lr'
I127
tp462
a(S'tr_tl'
I222
tp463
a(S'w'
I1
tp464
a(S'tr_ll'
I0
tp465
a(S'tr_th'
I1
tp466
a(S'w'
I2
tp467
a(S'p2_vo'
I13
tp468
a(S'w'
I2
tp469
a(S'p1_vo'
I5
tp470
a(S'w'
I845
tp471
a(S'w'
I1
tp472
a(S'p2_vo'
I12
tp473
a(S'w'
I2
tp474
a(S'p1_vo'
I9
tp475
a(S'w'
I583
tp476
a(S'w'
I2
tp477
a(S'p2_vo'
I11
tp478
a(S'w'
I2
tp479
a(S'p1_vo'
I10
tp480
a(S'w'
I845
tp481
a(S'w'
I2
tp482
a(S'p2_vo'
I10
tp483
a(S'w'
I1
tp484
a(S'p1_vo'
I9
tp485
a(S'w'
I584
tp486
a(S'w'
I2
tp487
a(S'p2_vo'
I9
tp488
a(S'w'
I1
tp489
a(S'p1_vo'
I8
tp490
a(S'w'
I845
tp491
a(S'w'
I2
tp492
a(S'p2_vo'
I8
tp493
a(S'w'
I2
tp494
a(S'p1_vo'
I7
tp495
a(S'w'
I842
tp496
a(S'w'
I2
tp497
a(S'w'
I2
tp498
a(S'p1_vo'
I6
tp499
a(S'w'
I580
tp500
a(S'w'
I1
tp501
a(S'w'
I2
tp502
a(S'w'
I828
tp503
a(S'p2_vo'
I0
tp504
a(S'p2_ss'
I0
tp505
a(S'p2_tl'
I0
tp506
a(S'p2_ll'
I0
tp507
a(S'p2_th'
I0
tp508
a(S'w'
I18
tp509
a(S'w'
I4
tp510
a(S'w'
I562
tp511
a(S'p1_vo'
I0
tp512
a(S'p1_ss'
I0
tp513
a(S'p1_tl'
I0
tp514
a(S'w'
I1
tp515
a(S'p1_ll'
I0
tp516
a(S'p1_th'
I0
tp517
a(S'w'
I21
tp518
a(S'w'
I831
tp519
a(S'tr_lr'
I0
tp520
a(S'w'
I1
tp521
a(S'tr_tl'
I0
tp522
a(S'tr_ll'
I0
tp523
a(S'tr_th'
I0
tp524
a(S'w'
I5977
tp525
a(S'p2_vo'
I15
tp526
a(S'p2_ss'
I7
tp527
a(S'w'
I1
tp528
a(S'p2_tl'
I234
tp529
a(S'p2_ll'
I0
tp530
a(S'p2_th'
I7
tp531
a(S'w'
I597
tp532
a(S'p2_vo'
I14
tp533
a(S'w'
I2
tp534
a(S'p1_vo'
I1
tp535
a(S'p1_ss'
I7
tp536
a(S'p1_tl'
I251
tp537
a(S'w'
I1
tp538
a(S'p1_ll'
I0
tp539
a(S'p1_th'
I1
tp540
a(S'w'
I851
tp541
a(S'tr_lr'
I127
tp542
a(S'w'
I1
tp543
a(S'tr_tl'
I251
tp544
a(S'w'
I1
tp545
a(S'tr_ll'
I0
tp546
a(S'tr_th'
I1
tp547
a(S'w'
I2
tp548
a(S'p2_vo'
I13
tp549
a(S'w'
I2
tp550
a(S'p1_vo'
I5
tp551
a(S'w'
I583
tp552
a(S'w'
I2
tp553
a(S'p2_vo'
I12
tp554
a(S'w'
I2
tp555
a(S'p1_vo'
I9
tp556
a(S'w'
I843
tp557
a(S'w'
I2
tp558
a(S'p2_vo'
I11
tp559
a(S'w'
I2
tp560
a(S'p1_vo'
I10
tp561
a(S'w'
I585
tp562
a(S'w'
I1
tp563
a(S'p2_vo'
I10
tp564
a(S'w'
I2
tp565
a(S'p1_vo'
I9
tp566
a(S'w'
I844
tp567
a(S'w'
I2
tp568
a(S'p2_vo'
I9
tp569
a(S'w'
I2
tp570
a(S'p1_vo'
I8
tp571
a(S'w'
I583
tp572
a(S'w'
I2
tp573
a(S'p2_vo'
I8
tp574
a(S'w'
I2
tp575
a(S'p1_vo'
I7
tp576
a(S'w'
I843
tp577
a(S'w'
I2
tp578
a(S'w'
I2
tp579
a(S'p1_vo'
I6
tp580
a(S'w'
I580
tp581
a(S'w'
I1
tp582
a(S'w'
I2
tp583
a(S'w'
I827
tp584
a(S'p2_vo'
I0
tp585
a(S'p2_ss'
I0
tp586
a(S'w'
I1
tp587
a(S'p2_tl'
I0
tp588
a(S'p2_ll'
I0
tp589
a(S'p2_th'
I0
tp590
a(S'w'
I18
tp591
a(S'w'
I3
tp592
a(S'w'
I824
tp593
a(S'p1_vo'
I0
tp594
a(S'p1_ss'
I0
tp595
a(S'p1_tl'
I0
tp596
a(S'p1_ll'
I0
tp597
a(S'p1_th'
I0
tp598
a(S'w'
I22
tp599
a(S'w'
I570
tp600
a(S'tr_lr'
I0
tp601
a(S'w'
I1
tp602
a(S'tr_tl'
I0
tp603
a(S'tr_ll'
I0
tp604
a(S'tr_th'
I0
tp605
a(S'w'
I5976
tp606
a(S'p2_vo'
I15
tp607
a(S'p2_ss'
I7
tp608
a(S'w'
I1
tp609
a(S'p2_tl'
I74
tp610
a(S'w'
I1
tp611
a(S'p2_ll'
I0
tp612
a(S'p2_th'
I6
tp613
a(S'w'
I596
tp614
a(S'p2_vo'
I14
tp615
a(S'w'
I2
tp616
a(S'p1_vo'
I1
tp617
a(S'w'
I1
tp618
a(S'p1_ss'
I7
tp619
a(S'p1_tl'
I146
tp620
a(S'w'
I1
tp621
a(S'p1_ll'
I0
tp622
a(S'p1_th'
I1
tp623
a(S'w'
I851
tp624
a(S'tr_lr'
I127
tp625
a(S'tr_tl'
I146
tp626
a(S'w'
I1
tp627
a(S'tr_ll'
I0
tp628
a(S'tr_th'
I1
tp629
a(S'w'
I2
tp630
a(S'p2_vo'
I13
tp631
a(S'w'
I2
tp632
a(S'p1_vo'
I5
tp633
a(S'w'
I583
tp634
a(S'w'
I2
tp635
a(S'p2_vo'
I12
tp636
a(S'w'
I2
tp637
a(S'p1_vo'
I9
tp638
a(S'w'
I844
tp639
a(S'w'
I2
tp640
a(S'p2_vo'
I11
tp641
a(S'w'
I2
tp642
a(S'p1_vo'
I10
tp643
a(S'w'
I844
tp644
a(S'w'
I2
tp645
a(S'p2_vo'
I10
tp646
a(S'w'
I2
tp647
a(S'p1_vo'
I9
tp648
a(S'w'
I583
tp649
a(S'w'
I2
tp650
a(S'p2_vo'
I9
tp651
a(S'w'
I2
tp652
a(S'p1_vo'
I8
tp653
a(S'w'
I845
tp654
a(S'w'
I2
tp655
a(S'p2_vo'
I8
tp656
a(S'w'
I1
tp657
a(S'p1_vo'
I7
tp658
a(S'w'
I582
tp659
a(S'w'
I2
tp660
a(S'w'
I2
tp661
a(S'p1_vo'
I6
tp662
a(S'w'
I829
tp663
a(S'p2_vo'
I0
tp664
a(S'p2_ss'
I0
tp665
a(S'p2_tl'
I0
tp666
a(S'p2_ll'
I0
tp667
a(S'p2_th'
I0
tp668
a(S'w'
I18
tp669
a(S'w'
I3
tp670
a(S'w'
I563
tp671
a(S'p1_vo'
I0
tp672
a(S'p1_ss'
I0
tp673
a(S'p1_tl'
I0
tp674
a(S'w'
I1
tp675
a(S'p1_ll'
I0
tp676
a(S'p1_th'
I0
tp677
a(S'w'
I40
tp678
a(S'w'
I2
tp679
a(S'p2_vo'
I10
tp680
a(S'w'
I1
tp681
a(S'p2_ss'
I7
tp682
a(S'p2_tl'
I75
tp683
a(S'w'
I1
tp684
a(S'p2_ll'
I0
tp685
a(S'p2_th'
I5
tp686
a(S'w'
I852
tp687
a(S'tr_lr'
I0
tp688
a(S'tr_tl'
I0
tp689
a(S'tr_ll'
I0
tp690
a(S'tr_th'
I0
tp691
a(S'w'
I18
tp692
a(S'p2_vo'
I15
tp693
a(S'w'
I2
tp694
a(S'p1_vo'
I1
tp695
a(S'p1_ss'
I7
tp696
a(S'p1_tl'
I82
tp697
a(S'w'
I1
tp698
a(S'p1_ll'
I0
tp699
a(S'p1_th'
I1
tp700
a(S'w'
I591
tp701
a(S'tr_lr'
I127
tp702
a(S'tr_tl'
I82
tp703
a(S'w'
I1
tp704
a(S'tr_ll'
I0
tp705
a(S'tr_th'
I1
tp706
a(S'w'
I2
tp707
a(S'p2_vo'
I14
tp708
a(S'w'
I2
tp709
a(S'p1_vo'
I2
tp710
a(S'w'
I844
tp711
a(S'w'
I2
tp712
a(S'p2_vo'
I13
tp713
a(S'w'
I2
tp714
a(S'p1_vo'
I3
tp715
a(S'w'
I583
tp716
a(S'w'
I2
tp717
a(S'p2_vo'
I12
tp718
a(S'w'
I2
tp719
a(S'p1_vo'
I4
tp720
a(S'w'
I844
tp721
a(S'w'
I2
tp722
a(S'p2_vo'
I11
tp723
a(S'w'
I1
tp724
a(S'p1_vo'
I5
tp725
a(S'w'
I845
tp726
a(S'w'
I2
tp727
a(S'p2_vo'
I10
tp728
a(S'w'
I1
tp729
a(S'p1_vo'
I6
tp730
a(S'w'
I584
tp731
a(S'w'
I1
tp732
a(S'p2_vo'
I9
tp733
a(S'w'
I2
tp734
a(S'p1_vo'
I7
tp735
a(S'w'
I844
tp736
a(S'w'
I2
tp737
a(S'p2_vo'
I8
tp738
a(S'w'
I2
tp739
a(S'p1_vo'
I8
tp740
a(S'w'
I583
tp741
a(S'w'
I2
tp742
a(S'p2_vo'
I7
tp743
a(S'w'
I2
tp744
a(S'p1_vo'
I9
tp745
a(S'w'
I844
tp746
a(S'w'
I2
tp747
a(S'p2_vo'
I6
tp748
a(S'w'
I2
tp749
a(S'p1_vo'
I10
tp750
a(S'w'
I582
tp751
a(S'w'
I2
tp752
a(S'w'
I2
tp753
a(S'p1_vo'
I9
tp754
a(S'w'
I841
tp755
a(S'w'
I2
tp756
a(S'w'
I2
tp757
a(S'p1_vo'
I8
tp758
a(S'w'
I582
tp759
a(S'w'
I1
tp760
a(S'w'
I2
tp761
a(S'p1_vo'
I7
tp762
a(S'w'
I842
tp763
a(S'w'
I2
tp764
a(S'w'
I1
tp765
a(S'p1_vo'
I6
tp766
a(S'w'
I840
tp767
a(S'w'
I2
tp768
a(S'w'
I2
tp769
a(S'w'
I579
tp770
a(S'w'
I2
tp771
a(S'w'
I2
tp772
a(S'w'
I839
tp773
a(S'w'
I2
tp774
a(S'w'
I1
tp775
a(S'w'
I579
tp776
a(S'w'
I1
tp777
a(S'w'
I2
tp778
a(S'w'
I840
tp779
a(S'w'
I2
tp780
a(S'w'
I2
tp781
a(S'w'
I838
tp782
a(S'w'
I2
tp783
a(S'w'
I2
tp784
a(S'w'
I578
tp785
a(S'w'
I2
tp786
a(S'w'
I2
tp787
a(S'w'
I840
tp788
a(S'w'
I1
tp789
a(S'w'
I2
tp790
a(S'w'
I578
tp791
a(S'w'
I2
tp792
a(S'w'
I2
tp793
a(S'w'
I839
tp794
a(S'w'
I2
tp795
a(S'w'
I2
tp796
a(S'w'
I579
tp797
a(S'w'
I2
tp798
a(S'w'
I1
tp799
a(S'w'
I842
tp800
a(S'w'
I1
tp801
a(S'p2_vo'
I5
tp802
a(S'w'
I2
tp803
a(S'w'
I839
tp804
a(S'w'
I2
tp805
a(S'w'
I2
tp806
a(S'w'
I579
tp807
a(S'w'
I2
tp808
a(S'w'
I1
tp809
a(S'w'
I839
tp810
a(S'w'
I2
tp811
a(S'w'
I2
tp812
a(S'w'
I581
tp813
a(S'w'
I1
tp814
a(S'w'
I2
tp815
a(S'p1_vo'
I5
tp816
a(S'w'
I840
tp817
a(S'w'
I2
tp818
a(S'w'
I1
tp819
a(S'w'
I839
tp820
a(S'w'
I2
tp821
a(S'w'
I2
tp822
a(S'w'
I578
tp823
a(S'w'
I2
tp824
a(S'w'
I2
tp825
a(S'w'
I839
tp826
a(S'w'
I2
tp827
a(S'w'
I2
tp828
a(S'w'
I578
tp829
a(S'w'
I2
tp830
a(S'w'
I2
tp831
a(S'w'
I839
tp832
a(S'w'
I2
tp833
a(S'w'
I2
tp834
a(S'w'
I578
tp835
a(S'w'
I2
tp836
a(S'w'
I2
tp837
a(S'w'
I839
tp838
a(S'w'
I2
tp839
a(S'w'
I2
tp840
a(S'w'
I839
tp841
a(S'w'
I2
tp842
a(S'w'
I1
tp843
a(S'w'
I579
tp844
a(S'w'
I2
tp845
a(S'w'
I1
tp846
a(S'w'
I840
tp847
a(S'w'
I2
tp848
a(S'w'
I2
tp849
a(S'w'
I580
tp850
a(S'w'
I2
tp851
a(S'p2_vo'
I4
tp852
a(S'w'
I2
tp853
a(S'w'
I839
tp854
a(S'w'
I2
tp855
a(S'w'
I1
tp856
a(S'w'
I579
tp857
a(S'w'
I2
tp858
a(S'w'
I2
tp859
a(S'w'
I839
tp860
a(S'w'
I2
tp861
a(S'w'
I2
tp862
a(S'w'
I841
tp863
a(S'w'
I2
tp864
a(S'w'
I1
tp865
a(S'p1_vo'
I4
tp866
a(S'w'
I579
tp867
a(S'w'
I2
tp868
a(S'w'
I2
tp869
a(S'w'
I839
tp870
a(S'w'
I2
tp871
a(S'w'
I2
tp872
a(S'w'
I578
tp873
a(S'w'
I2
tp874
a(S'w'
I2
tp875
a(S'w'
I839
tp876
a(S'w'
I2
tp877
a(S'w'
I2
tp878
a(S'w'
I839
tp879
a(S'w'
I1
tp880
a(S'w'
I2
tp881
a(S'w'
I579
tp882
a(S'w'
I1
tp883
a(S'w'
I2
tp884
a(S'w'
I840
tp885
a(S'w'
I2
tp886
a(S'w'
I1
tp887
a(S'w'
I579
tp888
a(S'w'
I2
tp889
a(S'w'
I1
tp890
a(S'w'
I839
tp891
a(S'w'
I2
tp892
a(S'w'
I2
tp893
a(S'w'
I579
tp894
a(S'w'
I2
tp895
a(S'w'
I2
tp896
a(S'w'
I838
tp897
a(S'w'
I2
tp898
a(S'w'
I2
tp899
a(S'w'
I841
tp900
a(S'w'
I2
tp901
a(S'p2_vo'
I3
tp902
a(S'w'
I2
tp903
a(S'w'
I579
tp904
a(S'w'
I2
tp905
a(S'w'
I2
tp906
a(S'w'
I838
tp907
a(S'w'
I2
tp908
a(S'w'
I2
tp909
a(S'w'
I578
tp910
a(S'w'
I2
tp911
a(S'w'
I2
tp912
a(S'w'
I842
tp913
a(S'w'
I2
tp914
a(S'w'
I2
tp915
a(S'p1_vo'
I3
tp916
a(S'w'
I838
tp917
a(S'w'
I2
tp918
a(S'w'
I2
tp919
a(S'w'
I578
tp920
a(S'w'
I2
tp921
a(S'w'
I2
tp922
a(S'w'
I840
tp923
a(S'w'
I1
tp924
a(S'w'
I2
tp925
a(S'w'
I579
tp926
a(S'w'
I1
tp927
a(S'w'
I2
tp928
a(S'w'
I839
tp929
a(S'w'
I2
tp930
a(S'w'
I2
tp931
a(S'w'
I578
tp932
a(S'w'
I2
tp933
a(S'w'
I2
tp934
a(S'w'
I839
tp935
a(S'w'
I2
tp936
a(S'w'
I2
tp937
a(S'w'
I839
tp938
a(S'w'
I2
tp939
a(S'w'
I2
tp940
a(S'w'
I578
tp941
a(S'w'
I2
tp942
a(S'w'
I2
tp943
a(S'w'
I839
tp944
a(S'w'
I2
tp945
a(S'w'
I2
tp946
a(S'w'
I578
tp947
a(S'w'
I2
tp948
a(S'w'
I2
tp949
a(S'w'
I841
tp950
a(S'w'
I2
tp951
a(S'p2_vo'
I2
tp952
a(S'w'
I2
tp953
a(S'w'
I578
tp954
a(S'w'
I2
tp955
a(S'w'
I2
tp956
a(S'w'
I839
tp957
a(S'w'
I2
tp958
a(S'w'
I2
tp959
a(S'w'
I839
tp960
a(S'w'
I1
tp961
a(S'w'
I2
tp962
a(S'w'
I581
tp963
a(S'w'
I2
tp964
a(S'w'
I2
tp965
a(S'p1_vo'
I2
tp966
a(S'w'
I839
tp967
a(S'w'
I2
tp968
a(S'w'
I2
tp969
a(S'w'
I578
tp970
a(S'w'
I2
tp971
a(S'w'
I2
tp972
a(S'w'
I839
tp973
a(S'w'
I2
tp974
a(S'w'
I2
tp975
a(S'w'
I839
tp976
a(S'w'
I2
tp977
a(S'w'
I1
tp978
a(S'w'
I579
tp979
a(S'w'
I2
tp980
a(S'w'
I1
tp981
a(S'w'
I840
tp982
a(S'w'
I2
tp983
a(S'w'
I2
tp984
a(S'w'
I578
tp985
a(S'w'
I2
tp986
a(S'w'
I2
tp987
a(S'w'
I838
tp988
a(S'w'
I2
tp989
a(S'w'
I2
tp990
a(S'w'
I579
tp991
a(S'w'
I2
tp992
a(S'w'
I2
tp993
a(S'w'
I839
tp994
a(S'w'
I1
tp995
a(S'w'
I2
tp996
a(S'w'
I839
tp997
a(S'w'
I2
tp998
a(S'w'
I2
tp999
a(S'w'
I581
tp1000
a(S'w'
I2
tp1001
a(S'p2_vo'
I1
tp1002
a(S'w'
I2
tp1003
a(S'w'
I839
tp1004
a(S'w'
I1
tp1005
a(S'w'
I2
tp1006
a(S'w'
I579
tp1007
a(S'w'
I1
tp1008
a(S'w'
I2
tp1009
a(S'w'
I840
tp1010
a(S'w'
I2
tp1011
a(S'w'
I1
tp1012
a(S'w'
I842
tp1013
a(S'w'
I1
tp1014
a(S'w'
I2
tp1015
a(S'p1_vo'
I1
tp1016
a(S'w'
I579
tp1017
a(S'w'
I1
tp1018
a(S'w'
I2
tp1019
a(S'w'
I840
tp1020
a(S'w'
I2
tp1021
a(S'w'
I2
tp1022
a(S'w'
I578
tp1023
a(S'w'
I2
tp1024
a(S'w'
I1
tp1025
a(S'w'
I839
tp1026
a(S'w'
I2
tp1027
a(S'w'
I2
tp1028
a(S'w'
I568
tp1029
a(S'tr_lr'
I0
tp1030
a(S'tr_tl'
I0
tp1031
a(S'tr_ll'
I0
tp1032
a(S'tr_th'
I0
tp1033
a(S'w'
I18
tp1034
a(S'w'
I2
tp1035
a(S'w'
I828
tp1036
a(S'p2_vo'
I0
tp1037
a(S'p2_ss'
I0
tp1038
a(S'p2_tl'
I0
tp1039
a(S'p2_ll'
I0
tp1040
a(S'p2_th'
I0
tp1041
a(S'w'
I19
tp1042
a(S'w'
I824
tp1043
a(S'p1_vo'
I0
tp1044
a(S'p1_ss'
I0
tp1045
a(S'p1_tl'
I0
tp1046
a(S'p1_ll'
I0
tp1047
a(S'p1_th'
I0
tp1048
a(S'w'
I582
tp1049
a(S'w'
I1
tp1050
a(S'tr_ll'
I0
tp1051
a(S'w'
I17312
tp1052
a.