(lp1
(S'clock'
p2
I1789772
tp3
a(S'w'
I1
tp4
a(S'no_ll'
I0
tp5
a(S'w'
I5
tp6
a(S'ch_no'
I1
tp7
a(S'ch_tr'
I1
tp8
a(S'ch_p2'
I1
tp9
a(S'ch_p1'
I1
tp10
a(S'w'
I59
tp11
a(S'tr_lh'
I1
tp12
a(S'tr_ll'
I0
tp13
a(S'w'
I10
tp14
a(S'no_lh'
I1
tp15
a(S'no_cv'
I1
tp16
a(S'no_ll'
I0
tp17
a(S'w'
I29
tp18
a(S'p2_lh'
I1
tp19
a(S'p2_cv'
I1
tp20
a(S'p2_vo'
I2
tp21
a(S'p2_ss'
I7
tp22
a(S'w'
I1
tp23
a(S'p2_tl'
I254
tp24
a(S'w'
I1
tp25
a(S'p2_ll'
I0
tp26
a(S'p2_th'
I4
tp27
a(S'w'
I2
tp28
a(S'p1_lh'
I1
tp29
a(S'p1_cv'
I1
tp30
a(S'p1_vo'
I4
tp31
a(S'p1_ss'
I7
tp32
a(S'p1_tl'
I129
tp33
a(S'w'
I1
tp34
a(S'p1_ll'
I0
tp35
a(S'p1_th'
I2
tp36
a(S'w'
I589
tp37
a(S'tr_lr'
I127
tp38
a(S'tr_tl'
I63
tp39
a(S'w'
I1
tp40
a(S'tr_ll'
I0
tp41
a(S'tr_th'
I1
tp42
a(S'w'
I2
tp43
a(S'p2_vo'
I12
tp44
a(S'w'
I2
tp45
a(S'w'
I582
tp46
a(S'w'
I2
tp47
a(S'p2_vo'
I11
tp48
a(S'w'
I2
tp49
a(S'w'
I842
tp50
a(S'w'
I2
tp51
a(S'p2_vo'
I10
tp52
a(S'w'
I2
tp53
a(S'w'
I841
tp54
a(S'w'
I2
tp55
a(S'p2_vo'
I9
tp56
a(S'w'
I2
tp57
a(S'w'
I581
tp58
a(S'w'
I2
tp59
a(S'p2_vo'
I8
tp60
a(S'w'
I2
tp61
a(S'w'
I842
tp62
a(S'w'
I2
tp63
a(S'p2_vo'
I7
tp64
a(S'w'
I2
tp65
a(S'w'
I581
tp66
a(S'w'
I2
tp67
a(S'p2_vo'
I6
tp68
a(S'w'
I2
tp69
a(S'w'
I841
tp70
a(S'w'
I2
tp71
a(S'p2_vo'
I5
tp72
a(S'w'
I2
tp73
a(S'w'
I582
tp74
a(S'w'
I2
tp75
a(S'p2_vo'
I4
tp76
a(S'w'
I2
tp77
a(S'w'
I840
tp78
a(S'w'
I2
tp79
a(S'w'
I2
tp80
a(S'w'
I839
tp81
a(S'w'
I2
tp82
a(S'w'
I2
tp83
a(S'w'
I579
tp84
a(S'w'
I2
tp85
a(S'w'
I2
tp86
a(S'w'
I839
tp87
a(S'w'
I2
tp88
a(S'w'
I1
tp89
a(S'w'
I579
tp90
a(S'w'
I2
tp91
a(S'w'
I2
tp92
a(S'w'
I839
tp93
a(S'w'
I2
tp94
a(S'w'
I2
tp95
a(S'w'
I581
tp96
a(S'w'
I2
tp97
a(S'w'
I2
tp98
a(S'p1_vo'
I3
tp99
a(S'w'
I839
tp100
a(S'w'
I2
tp101
a(S'w'
I2
tp102
a(S'w'
I839
tp103
a(S'w'
I2
tp104
a(S'w'
I2
tp105
a(S'w'
I579
tp106
a(S'w'
I2
tp107
a(S'w'
I1
tp108
a(S'w'
I840
tp109
a(S'w'
I1
tp110
a(S'w'
I2
tp111
a(S'w'
I563
tp112
a(S'p1_vo'
I0
tp113
a(S'p1_ss'
I0
tp114
a(S'p1_tl'
I0
tp115
a(S'w'
I1
tp116
a(S'p1_ll'
I0
tp117
a(S'p1_th'
I0
tp118
a(S'w'
I10
tp119
a(S'p2_vo'
I0
tp120
a(S'p2_ss'
I0
tp121
a(S'p2_tl'
I0
tp122
a(S'p2_ll'
I0
tp123
a(S'p2_th'
I0
tp124
a(S'w'
I8
tp125
a(S'tr_lr'
I0
tp126
a(S'tr_tl'
I0
tp127
a(S'tr_ll'
I0
tp128
a(S'tr_th'
I0
tp129
a(S'w'
I1464
tp130
a(S'p2_vo'
I2
tp131
a(S'p2_ss'
I7
tp132
a(S'w'
I1
tp133
a(S'p2_tl'
I254
tp134
a(S'w'
I1
tp135
a(S'p2_ll'
I0
tp136
a(S'p2_th'
I4
tp137
a(S'w'
I2
tp138
a(S'p1_vo'
I1
tp139
a(S'p1_ss'
I7
tp140
a(S'p1_tl'
I129
tp141
a(S'w'
I1
tp142
a(S'p1_ll'
I0
tp143
a(S'p1_th'
I2
tp144
a(S'w'
I843
tp145
a(S'w'
I2
tp146
a(S'p1_vo'
I4
tp147
a(S'w'
I849
tp148
a(S'tr_lr'
I127
tp149
a(S'w'
I1
tp150
a(S'tr_tl'
I63
tp151
a(S'w'
I1
tp152
a(S'tr_ll'
I0
tp153
a(S'tr_th'
I1
tp154
a(S'w'
I2
tp155
a(S'p2_vo'
I12
tp156
a(S'w'
I2
tp157
a(S'w'
I581
tp158
a(S'w'
I2
tp159
a(S'p2_vo'
I11
tp160
a(S'w'
I2
tp161
a(S'w'
I842
tp162
a(S'w'
I2
tp163
a(S'p2_vo'
I10
tp164
a(S'w'
I2
tp165
a(S'w'
I581
tp166
a(S'w'
I2
tp167
a(S'p2_vo'
I9
tp168
a(S'w'
I2
tp169
a(S'w'
I842
tp170
a(S'w'
I2
tp171
a(S'p2_vo'
I8
tp172
a(S'w'
I2
tp173
a(S'w'
I581
tp174
a(S'w'
I1
tp175
a(S'p2_vo'
I7
tp176
a(S'w'
I2
tp177
a(S'w'
I843
tp178
a(S'w'
I2
tp179
a(S'p2_vo'
I6
tp180
a(S'w'
I1
tp181
a(S'w'
I581
tp182
a(S'w'
I2
tp183
a(S'p2_vo'
I5
tp184
a(S'w'
I2
tp185
a(S'w'
I842
tp186
a(S'w'
I2
tp187
a(S'p2_vo'
I4
tp188
a(S'w'
I2
tp189
a(S'w'
I841
tp190
a(S'w'
I2
tp191
a(S'w'
I1
tp192
a(S'w'
I579
tp193
a(S'w'
I2
tp194
a(S'w'
I2
tp195
a(S'w'
I839
tp196
a(S'w'
I2
tp197
a(S'w'
I2
tp198
a(S'w'
I579
tp199
a(S'w'
I2
tp200
a(S'w'
I1
tp201
a(S'w'
I840
tp202
a(S'w'
I2
tp203
a(S'w'
I1
tp204
a(S'w'
I840
tp205
a(S'w'
I1
tp206
a(S'w'
I2
tp207
a(S'w'
I582
tp208
a(S'w'
I2
tp209
a(S'w'
I1
tp210
a(S'p1_vo'
I3
tp211
a(S'w'
I840
tp212
a(S'w'
I1
tp213
a(S'w'
I2
tp214
a(S'w'
I579
tp215
a(S'w'
I2
tp216
a(S'w'
I2
tp217
a(S'w'
I839
tp218
a(S'w'
I2
tp219
a(S'w'
I2
tp220
a(S'w'
I579
tp221
a(S'w'
I1
tp222
a(S'w'
I2
tp223
a(S'w'
I824
tp224
a(S'p1_vo'
I0
tp225
a(S'p1_ss'
I0
tp226
a(S'p1_tl'
I0
tp227
a(S'p1_ll'
I0
tp228
a(S'p1_th'
I0
tp229
a(S'w'
I10
tp230
a(S'p2_vo'
I0
tp231
a(S'p2_ss'
I0
tp232
a(S'w'
I1
tp233
a(S'p2_tl'
I0
tp234
a(S'p2_ll'
I0
tp235
a(S'p2_th'
I0
tp236
a(S'w'
I7
tp237
a(S'tr_lr'
I0
tp238
a(S'tr_tl'
I0
tp239
a(S'w'
I1
tp240
a(S'tr_ll'
I0
tp241
a(S'tr_th'
I0
tp242
a(S'w'
I1464
tp243
a(S'p2_vo'
I2
tp244
a(S'p2_ss'
I7
tp245
a(S'p2_tl'
I254
tp246
a(S'w'
I1
tp247
a(S'p2_ll'
I0
tp248
a(S'p2_th'
I4
tp249
a(S'w'
I2
tp250
a(S'p1_vo'
I1
tp251
a(S'w'
I1
tp252
a(S'p1_ss'
I7
tp253
a(S'p1_tl'
I129
tp254
a(S'w'
I1
tp255
a(S'p1_ll'
I0
tp256
a(S'p1_th'
I2
tp257
a(S'w'
I843
tp258
a(S'w'
I2
tp259
a(S'p1_vo'
I4
tp260
a(S'w'
I588
tp261
a(S'tr_lr'
I127
tp262
a(S'w'
I1
tp263
a(S'tr_tl'
I63
tp264
a(S'tr_ll'
I0
tp265
a(S'tr_th'
I1
tp266
a(S'w'
I2
tp267
a(S'p2_vo'
I12
tp268
a(S'w'
I2
tp269
a(S'w'
I843
tp270
a(S'w'
I2
tp271
a(S'p2_vo'
I11
tp272
a(S'w'
I2
tp273
a(S'w'
I581
tp274
a(S'w'
I2
tp275
a(S'p2_vo'
I10
tp276
a(S'w'
I2
tp277
a(S'w'
I841
tp278
a(S'w'
I2
tp279
a(S'p2_vo'
I9
tp280
a(S'w'
I2
tp281
a(S'w'
I582
tp282
a(S'w'
I2
tp283
a(S'p2_vo'
I8
tp284
a(S'w'
I2
tp285
a(S'w'
I841
tp286
a(S'w'
I2
tp287
a(S'p2_vo'
I7
tp288
a(S'w'
I2
tp289
a(S'w'
I842
tp290
a(S'w'
I2
tp291
a(S'p2_vo'
I6
tp292
a(S'w'
I1
tp293
a(S'w'
I582
tp294
a(S'w'
I2
tp295
a(S'p2_vo'
I5
tp296
a(S'w'
I2
tp297
a(S'w'
I842
tp298
a(S'w'
I1
tp299
a(S'p2_vo'
I4
tp300
a(S'w'
I2
tp301
a(S'w'
I580
tp302
a(S'w'
I2
tp303
a(S'w'
I2
tp304
a(S'w'
I840
tp305
a(S'w'
I1
tp306
a(S'w'
I2
tp307
a(S'w'
I579
tp308
a(S'w'
I2
tp309
a(S'w'
I2
tp310
a(S'w'
I839
tp311
a(S'w'
I2
tp312
a(S'w'
I2
tp313
a(S'w'
I839
tp314
a(S'w'
I2
tp315
a(S'w'
I2
tp316
a(S'w'
I579
tp317
a(S'w'
I1
tp318
a(S'w'
I2
tp319
a(S'w'
I842
tp320
a(S'w'
I2
tp321
a(S'w'
I1
tp322
a(S'p1_vo'
I3
tp323
a(S'w'
I580
tp324
a(S'w'
I1
tp325
a(S'w'
I2
tp326
a(S'w'
I840
tp327
a(S'w'
I1
tp328
a(S'w'
I2
tp329
a(S'w'
I579
tp330
a(S'w'
I2
tp331
a(S'w'
I2
tp332
a(S'w'
I839
tp333
a(S'w'
I2
tp334
a(S'w'
I2
tp335
a(S'w'
I824
tp336
a(S'p1_vo'
I0
tp337
a(S'p1_ss'
I0
tp338
a(S'p1_tl'
I0
tp339
a(S'p1_ll'
I0
tp340
a(S'p1_th'
I0
tp341
a(S'w'
I10
tp342
a(S'p2_vo'
I0
tp343
a(S'p2_ss'
I0
tp344
a(S'p2_tl'
I0
tp345
a(S'p2_ll'
I0
tp346
a(S'p2_th'
I0
tp347
a(S'w'
I8
tp348
a(S'tr_lr'
I0
tp349
a(S'tr_tl'
I0
tp350
a(S'tr_ll'
I0
tp351
a(S'tr_th'
I0
tp352
a(S'w'
I1464
tp353
a(S'p2_vo'
I2
tp354
a(S'w'
I1
tp355
a(S'p2_ss'
I7
tp356
a(S'p2_tl'
I74
tp357
a(S'w'
I1
tp358
a(S'p2_ll'
I0
tp359
a(S'p2_th'
I6
tp360
a(S'w'
I2
tp361
a(S'p1_vo'
I1
tp362
a(S'p1_ss'
I7
tp363
a(S'w'
I1
tp364
a(S'p1_tl'
I39
tp365
a(S'p1_ll'
I0
tp366
a(S'p1_th'
I3
tp367
a(S'w'
I583
tp368
a(S'w'
I2
tp369
a(S'p1_vo'
I4
tp370
a(S'w'
I849
tp371
a(S'tr_lr'
I127
tp372
a(S'tr_tl'
I146
tp373
a(S'w'
I1
tp374
a(S'tr_ll'
I0
tp375
a(S'tr_th'
I1
tp376
a(S'w'
I2
tp377
a(S'p2_vo'
I12
tp378
a(S'w'
I2
tp379
a(S'w'
I582
tp380
a(S'w'
I1
tp381
a(S'p2_vo'
I11
tp382
a(S'w'
I2
tp383
a(S'w'
I843
tp384
a(S'w'
I1
tp385
a(S'p2_vo'
I10
tp386
a(S'w'
I2
tp387
a(S'w'
I581
tp388
a(S'w'
I2
tp389
a(S'p2_vo'
I9
tp390
a(S'w'
I2
tp391
a(S'w'
I842
tp392
a(S'w'
I2
tp393
a(S'p2_vo'
I8
tp394
a(S'w'
I2
tp395
a(S'w'
I842
tp396
a(S'w'
I2
tp397
a(S'p2_vo'
I7
tp398
a(S'w'
I2
tp399
a(S'w'
I581
tp400
a(S'w'
I2
tp401
a(S'p2_vo'
I6
tp402
a(S'w'
I1
tp403
a(S'w'
I842
tp404
a(S'w'
I2
tp405
a(S'p2_vo'
I5
tp406
a(S'w'
I2
tp407
a(S'w'
I582
tp408
a(S'w'
I1
tp409
a(S'p2_vo'
I4
tp410
a(S'w'
I2
tp411
a(S'w'
I841
tp412
a(S'w'
I2
tp413
a(S'w'
I1
tp414
a(S'w'
I579
tp415
a(S'w'
I2
tp416
a(S'w'
I2
tp417
a(S'w'
I840
tp418
a(S'w'
I1
tp419
a(S'w'
I2
tp420
a(S'w'
I839
tp421
a(S'w'
I2
tp422
a(S'w'
I2
tp423
a(S'w'
I579
tp424
a(S'w'
I2
tp425
a(S'w'
I1
tp426
a(S'w'
I840
tp427
a(S'w'
I2
tp428
a(S'w'
I2
tp429
a(S'w'
I581
tp430
a(S'w'
I2
tp431
a(S'w'
I1
tp432
a(S'p1_vo'
I3
tp433
a(S'w'
I864
tp434
a(S'w'
I2
tp435
a(S'p2_vo'
I2
tp436
a(S'p2_tl'
I48
tp437
a(S'w'
I1
tp438
a(S'p2_ll'
I0
tp439
a(S'p2_th'
I4
tp440
a(S'w'
I2
tp441
a(S'p1_vo'
I1
tp442
a(S'w'
I1
tp443
a(S'p1_tl'
I27
tp444
a(S'w'
I1
tp445
a(S'p1_ll'
I0
tp446
a(S'p1_th'
I2
tp447
a(S'w'
I581
tp448
a(S'w'
I2
tp449
a(S'w'
I2
tp450
a(S'p1_vo'
I4
tp451
a(S'w'
I849
tp452
a(S'tr_tl'
I12
tp453
a(S'w'
I3
tp454
a(S'p2_vo'
I12
tp455
a(S'w'
I2
tp456
a(S'w'
I582
tp457
a(S'w'
I1
tp458
a(S'p2_vo'
I11
tp459
a(S'w'
I2
tp460
a(S'w'
I843
tp461
a(S'w'
I1
tp462
a(S'p2_vo'
I10
tp463
a(S'w'
I2
tp464
a(S'w'
I842
tp465
a(S'w'
I2
tp466
a(S'p2_vo'
I9
tp467
a(S'w'
I2
tp468
a(S'w'
I605
tp469
a(S'w'
I2
tp470
a(S'p2_vo'
I2
tp471
a(S'p2_tl'
I254
tp472
a(S'w'
I3
tp473
a(S'p1_vo'
I1
tp474
a(S'w'
I1
tp475
a(S'p1_tl'
I129
tp476
a(S'w'
I842
tp477
a(S'w'
I2
tp478
a(S'w'
I2
tp479
a(S'p1_vo'
I4
tp480
a(S'w'
I589
tp481
a(S'tr_tl'
I63
tp482
a(S'w'
I3
tp483
a(S'p2_vo'
I12
tp484
a(S'w'
I2
tp485
a(S'w'
I842
tp486
a(S'w'
I2
tp487
a(S'p2_vo'
I11
tp488
a(S'w'
I2
tp489
a(S'w'
I581
tp490
a(S'w'
I1
tp491
a(S'p2_vo'
I10
tp492
a(S'w'
I2
tp493
a(S'w'
I843
tp494
a(S'w'
I2
tp495
a(S'p2_vo'
I9
tp496
a(S'w'
I1
tp497
a(S'w'
I581
tp498
a(S'w'
I2
tp499
a(S'p2_vo'
I8
tp500
a(S'w'
I2
tp501
a(S'w'
I842
tp502
a(S'w'
I2
tp503
a(S'p2_vo'
I7
tp504
a(S'w'
I2
tp505
a(S'w'
I842
tp506
a(S'w'
I2
tp507
a(S'p2_vo'
I6
tp508
a(S'w'
I2
tp509
a(S'w'
I581
tp510
a(S'w'
I2
tp511
a(S'p2_vo'
I5
tp512
a(S'w'
I2
tp513
a(S'w'
I841
tp514
a(S'w'
I2
tp515
a(S'p2_vo'
I4
tp516
a(S'w'
I2
tp517
a(S'w'
I580
tp518
a(S'w'
I2
tp519
a(S'w'
I2
tp520
a(S'w'
I839
tp521
a(S'w'
I2
tp522
a(S'w'
I2
tp523
a(S'w'
I839
tp524
a(S'w'
I2
tp525
a(S'w'
I2
tp526
a(S'w'
I579
tp527
a(S'w'
I2
tp528
a(S'w'
I2
tp529
a(S'w'
I839
tp530
a(S'w'
I2
tp531
a(S'w'
I2
tp532
a(S'w'
I578
tp533
a(S'w'
I2
tp534
a(S'w'
I2
tp535
a(S'w'
I842
tp536
a(S'w'
I2
tp537
a(S'w'
I2
tp538
a(S'p1_vo'
I3
tp539
a(S'w'
I578
tp540
a(S'w'
I2
tp541
a(S'w'
I2
tp542
a(S'w'
I839
tp543
a(S'w'
I2
tp544
a(S'w'
I2
tp545
a(S'w'
I840
tp546
a(S'w'
I2
tp547
a(S'w'
I1
tp548
a(S'w'
I579
tp549
a(S'w'
I2
tp550
a(S'w'
I2
tp551
a(S'w'
I823
tp552
a(S'p1_vo'
I0
tp553
a(S'p1_ss'
I0
tp554
a(S'p1_tl'
I0
tp555
a(S'w'
I1
tp556
a(S'p1_ll'
I0
tp557
a(S'p1_th'
I0
tp558
a(S'w'
I10
tp559
a(S'p2_vo'
I0
tp560
a(S'p2_ss'
I0
tp561
a(S'p2_tl'
I0
tp562
a(S'p2_ll'
I0
tp563
a(S'p2_th'
I0
tp564
a(S'w'
I8
tp565
a(S'tr_lr'
I0
tp566
a(S'tr_tl'
I0
tp567
a(S'tr_ll'
I0
tp568
a(S'tr_th'
I0
tp569
a(S'w'
I1464
tp570
a(S'p2_vo'
I2
tp571
a(S'p2_ss'
I7
tp572
a(S'w'
I1
tp573
a(S'p2_tl'
I254
tp574
a(S'w'
I1
tp575
a(S'p2_ll'
I0
tp576
a(S'p2_th'
I4
tp577
a(S'w'
I2
tp578
a(S'p1_vo'
I1
tp579
a(S'p1_ss'
I7
tp580
a(S'p1_tl'
I129
tp581
a(S'w'
I1
tp582
a(S'p1_ll'
I0
tp583
a(S'p1_th'
I2
tp584
a(S'w'
I582
tp585
a(S'w'
I2
tp586
a(S'p1_vo'
I4
tp587
a(S'w'
I850
tp588
a(S'tr_lr'
I127
tp589
a(S'w'
I1
tp590
a(S'tr_tl'
I63
tp591
a(S'tr_ll'
I0
tp592
a(S'tr_th'
I1
tp593
a(S'w'
I2
tp594
a(S'p2_vo'
I12
tp595
a(S'w'
I2
tp596
a(S'w'
I582
tp597
a(S'w'
I2
tp598
a(S'p2_vo'
I11
tp599
a(S'w'
I2
tp600
a(S'w'
I841
tp601
a(S'w'
I2
tp602
a(S'p2_vo'
I10
tp603
a(S'w'
I2
tp604
a(S'w'
I842
tp605
a(S'w'
I2
tp606
a(S'p2_vo'
I9
tp607
a(S'w'
I2
tp608
a(S'w'
I581
tp609
a(S'w'
I2
tp610
a(S'p2_vo'
I8
tp611
a(S'w'
I2
tp612
a(S'w'
I842
tp613
a(S'w'
I1
tp614
a(S'p2_vo'
I7
tp615
a(S'w'
I2
tp616
a(S'w'
I581
tp617
a(S'w'
I2
tp618
a(S'p2_vo'
I6
tp619
a(S'w'
I2
tp620
a(S'w'
I842
tp621
a(S'w'
I2
tp622
a(S'p2_vo'
I5
tp623
a(S'w'
I2
tp624
a(S'w'
I581
tp625
a(S'w'
I2
tp626
a(S'p2_vo'
I4
tp627
a(S'w'
I2
tp628
a(S'w'
I840
tp629
a(S'w'
I2
tp630
a(S'w'
I2
tp631
a(S'w'
I840
tp632
a(S'w'
I2
tp633
a(S'w'
I2
tp634
a(S'w'
I578
tp635
a(S'w'
I2
tp636
a(S'w'
I2
tp637
a(S'w'
I839
tp638
a(S'w'
I2
tp639
a(S'w'
I2
tp640
a(S'w'
I579
tp641
a(S'w'
I2
tp642
a(S'w'
I2
tp643
a(S'w'
I839
tp644
a(S'w'
I2
tp645
a(S'w'
I2
tp646
a(S'w'
I580
tp647
a(S'w'
I2
tp648
a(S'w'
I2
tp649
a(S'p1_vo'
I3
tp650
a(S'w'
I840
tp651
a(S'w'
I2
tp652
a(S'w'
I2
tp653
a(S'w'
I839
tp654
a(S'w'
I2
tp655
a(S'w'
I2
tp656
a(S'w'
I578
tp657
a(S'w'
I2
tp658
a(S'w'
I2
tp659
a(S'w'
I840
tp660
a(S'w'
I2
tp661
a(S'w'
I1
tp662
a(S'w'
I563
tp663
a(S'p1_vo'
I0
tp664
a(S'p1_ss'
I0
tp665
a(S'w'
I1
tp666
a(S'p1_tl'
I0
tp667
a(S'p1_ll'
I0
tp668
a(S'p1_th'
I0
tp669
a(S'w'
I10
tp670
a(S'p2_vo'
I0
tp671
a(S'p2_ss'
I0
tp672
a(S'p2_tl'
I0
tp673
a(S'p2_ll'
I0
tp674
a(S'p2_th'
I0
tp675
a(S'w'
I8
tp676
a(S'tr_lr'
I0
tp677
a(S'tr_tl'
I0
tp678
a(S'tr_ll'
I0
tp679
a(S'tr_th'
I0
tp680
a(S'w'
I1464
tp681
a(S'p2_vo'
I2
tp682
a(S'p2_ss'
I7
tp683
a(S'w'
I1
tp684
a(S'p2_tl'
I254
tp685
a(S'w'
I1
tp686
a(S'p2_ll'
I0
tp687
a(S'p2_th'
I4
tp688
a(S'w'
I2
tp689
a(S'p1_vo'
I1
tp690
a(S'p1_ss'
I7
tp691
a(S'p1_tl'
I129
tp692
a(S'w'
I1
tp693
a(S'p1_ll'
I0
tp694
a(S'p1_th'
I2
tp695
a(S'w'
I843
tp696
a(S'w'
I2
tp697
a(S'p1_vo'
I4
tp698
a(S'w'
I849
tp699
a(S'tr_lr'
I127
tp700
a(S'w'
I1
tp701
a(S'tr_tl'
I63
tp702
a(S'tr_ll'
I0
tp703
a(S'tr_th'
I1
tp704
a(S'w'
I2
tp705
a(S'p2_vo'
I12
tp706
a(S'w'
I2
tp707
a(S'w'
I583
tp708
a(S'w'
I1
tp709
a(S'p2_vo'
I11
tp710
a(S'w'
I2
tp711
a(S'w'
I842
tp712
a(S'w'
I2
tp713
a(S'p2_vo'
I10
tp714
a(S'w'
I2
tp715
a(S'w'
I581
tp716
a(S'w'
I2
tp717
a(S'p2_vo'
I9
tp718
a(S'w'
I2
tp719
a(S'w'
I842
tp720
a(S'w'
I2
tp721
a(S'p2_vo'
I8
tp722
a(S'w'
I2
tp723
a(S'w'
I581
tp724
a(S'w'
I2
tp725
a(S'p2_vo'
I7
tp726
a(S'w'
I1
tp727
a(S'w'
I842
tp728
a(S'w'
I2
tp729
a(S'p2_vo'
I6
tp730
a(S'w'
I2
tp731
a(S'w'
I581
tp732
a(S'w'
I2
tp733
a(S'p2_vo'
I5
tp734
a(S'w'
I2
tp735
a(S'w'
I842
tp736
a(S'w'
I2
tp737
a(S'p2_vo'
I4
tp738
a(S'w'
I2
tp739
a(S'w'
I840
tp740
a(S'w'
I2
tp741
a(S'w'
I2
tp742
a(S'w'
I578
tp743
a(S'w'
I2
tp744
a(S'w'
I2
tp745
a(S'w'
I840
tp746
a(S'w'
I2
tp747
a(S'w'
I2
tp748
a(S'w'
I578
tp749
a(S'w'
I2
tp750
a(S'w'
I2
tp751
a(S'w'
I839
tp752
a(S'w'
I2
tp753
a(S'w'
I2
tp754
a(S'w'
I840
tp755
a(S'w'
I1
tp756
a(S'w'
I2
tp757
a(S'w'
I581
tp758
a(S'w'
I2
tp759
a(S'w'
I2
tp760
a(S'p1_vo'
I3
tp761
a(S'w'
I839
tp762
a(S'w'
I2
tp763
a(S'w'
I2
tp764
a(S'w'
I579
tp765
a(S'w'
I2
tp766
a(S'w'
I2
tp767
a(S'w'
I839
tp768
a(S'w'
I2
tp769
a(S'w'
I2
tp770
a(S'w'
I578
tp771
a(S'w'
I2
tp772
a(S'w'
I2
tp773
a(S'w'
I824
tp774
a(S'p1_vo'
I0
tp775
a(S'p1_ss'
I0
tp776
a(S'p1_tl'
I0
tp777
a(S'p1_ll'
I0
tp778
a(S'p1_th'
I0
tp779
a(S'w'
I10
tp780
a(S'p2_vo'
I0
tp781
a(S'p2_ss'
I0
tp782
a(S'w'
I1
tp783
a(S'p2_tl'
I0
tp784
a(S'p2_ll'
I0
tp785
a(S'p2_th'
I0
tp786
a(S'w'
I7
tp787
a(S'tr_lr'
I0
tp788
a(S'w'
I1
tp789
a(S'tr_tl'
I0
tp790
a(S'tr_ll'
I0
tp791
a(S'tr_th'
I0
tp792
a(S'w'
I1464
tp793
a(S'p2_vo'
I2
tp794
a(S'p2_ss'
I7
tp795
a(S'w'
I1
tp796
a(S'p2_tl'
I155
tp797
a(S'w'
I1
tp798
a(S'p2_ll'
I0
tp799
a(S'p2_th'
I5
tp800
a(S'w'
I2
tp801
a(S'p1_vo'
I1
tp802
a(S'p1_ss'
I7
tp803
a(S'p1_tl'
I207
tp804
a(S'w'
I1
tp805
a(S'p1_ll'
I0
tp806
a(S'p1_th'
I2
tp807
a(S'w'
I844
tp808
a(S'w'
I2
tp809
a(S'p1_vo'
I4
tp810
a(S'w'
I588
tp811
a(S'tr_lr'
I127
tp812
a(S'w'
I1
tp813
a(S'tr_tl'
I102
tp814
a(S'tr_ll'
I0
tp815
a(S'tr_th'
I1
tp816
a(S'w'
I2
tp817
a(S'p2_vo'
I12
tp818
a(S'w'
I2
tp819
a(S'w'
I843
tp820
a(S'w'
I1
tp821
a(S'p2_vo'
I11
tp822
a(S'w'
I2
tp823
a(S'w'
I582
tp824
a(S'w'
I2
tp825
a(S'p2_vo'
I10
tp826
a(S'w'
I2
tp827
a(S'w'
I841
tp828
a(S'w'
I2
tp829
a(S'p2_vo'
I9
tp830
a(S'w'
I2
tp831
a(S'w'
I581
tp832
a(S'w'
I2
tp833
a(S'p2_vo'
I8
tp834
a(S'w'
I2
tp835
a(S'w'
I842
tp836
a(S'w'
I2
tp837
a(S'p2_vo'
I7
tp838
a(S'w'
I2
tp839
a(S'w'
I842
tp840
a(S'w'
I2
tp841
a(S'p2_vo'
I6
tp842
a(S'w'
I1
tp843
a(S'w'
I581
tp844
a(S'w'
I2
tp845
a(S'p2_vo'
I5
tp846
a(S'w'
I2
tp847
a(S'w'
I843
tp848
a(S'w'
I1
tp849
a(S'p2_vo'
I4
tp850
a(S'w'
I2
tp851
a(S'w'
I580
tp852
a(S'w'
I2
tp853
a(S'w'
I2
tp854
a(S'w'
I839
tp855
a(S'w'
I2
tp856
a(S'w'
I2
tp857
a(S'w'
I578
tp858
a(S'w'
I2
tp859
a(S'w'
I2
tp860
a(S'w'
I840
tp861
a(S'w'
I2
tp862
a(S'w'
I2
tp863
a(S'w'
I839
tp864
a(S'w'
I2
tp865
a(S'w'
I1
tp866
a(S'w'
I579
tp867
a(S'w'
I2
tp868
a(S'w'
I2
tp869
a(S'w'
I842
tp870
a(S'w'
I2
tp871
a(S'w'
I1
tp872
a(S'p1_vo'
I3
tp873
a(S'w'
I603
tp874
a(S'w'
I2
tp875
a(S'p2_vo'
I2
tp876
a(S'w'
I1
tp877
a(S'p2_tl'
I189
tp878
a(S'p2_ll'
I0
tp879
a(S'p2_th'
I3
tp880
a(S'w'
I3
tp881
a(S'p1_vo'
I1
tp882
a(S'p1_tl'
I224
tp883
a(S'w'
I1
tp884
a(S'p1_ll'
I0
tp885
a(S'p1_th'
I1
tp886
a(S'w'
I842
tp887
a(S'w'
I1
tp888
a(S'w'
I2
tp889
a(S'p1_vo'
I4
tp890
a(S'w'
I589
tp891
a(S'w'
I1
tp892
a(S'tr_tl'
I239
tp893
a(S'w'
I1
tp894
a(S'tr_ll'
I0
tp895
a(S'tr_th'
I0
tp896
a(S'w'
I2
tp897
a(S'p2_vo'
I12
tp898
a(S'w'
I2
tp899
a(S'w'
I842
tp900
a(S'w'
I2
tp901
a(S'p2_vo'
I11
tp902
a(S'w'
I2
tp903
a(S'w'
I581
tp904
a(S'w'
I2
tp905
a(S'p2_vo'
I10
tp906
a(S'w'
I1
tp907
a(S'w'
I843
tp908
a(S'w'
I2
tp909
a(S'p2_vo'
I9
tp910
a(S'w'
I1
tp911
a(S'w'
I866
tp912
a(S'w'
I2
tp913
a(S'p2_vo'
I2
tp914
a(S'w'
I1
tp915
a(S'p2_tl'
I245
tp916
a(S'w'
I2
tp917
a(S'p1_vo'
I1
tp918
a(S'w'
I1
tp919
a(S'p1_tl'
I148
tp920
a(S'w'
I581
tp921
a(S'w'
I2
tp922
a(S'w'
I2
tp923
a(S'p1_vo'
I4
tp924
a(S'w'
I850
tp925
a(S'tr_tl'
I45
tp926
a(S'w'
I1
tp927
a(S'tr_ll'
I0
tp928
a(S'tr_th'
I1
tp929
a(S'w'
I2
tp930
a(S'p2_vo'
I12
tp931
a(S'w'
I2
tp932
a(S'w'
I582
tp933
a(S'w'
I2
tp934
a(S'p2_vo'
I11
tp935
a(S'w'
I2
tp936
a(S'w'
I841
tp937
a(S'w'
I2
tp938
a(S'p2_vo'
I10
tp939
a(S'w'
I2
tp940
a(S'w'
I582
tp941
a(S'w'
I2
tp942
a(S'p2_vo'
I9
tp943
a(S'w'
I1
tp944
a(S'w'
I842
tp945
a(S'w'
I2
tp946
a(S'p2_vo'
I8
tp947
a(S'w'
I2
tp948
a(S'w'
I581
tp949
a(S'w'
I2
tp950
a(S'p2_vo'
I7
tp951
a(S'w'
I2
tp952
a(S'w'
I842
tp953
a(S'w'
I2
tp954
a(S'p2_vo'
I6
tp955
a(S'w'
I2
tp956
a(S'w'
I841
tp957
a(S'w'
I2
tp958
a(S'p2_vo'
I5
tp959
a(S'w'
I2
tp960
a(S'w'
I581
tp961
a(S'w'
I2
tp962
a(S'p2_vo'
I4
tp963
a(S'w'
I2
tp964
a(S'w'
I841
tp965
a(S'w'
I2
tp966
a(S'w'
I2
tp967
a(S'w'
I578
tp968
a(S'w'
I2
tp969
a(S'w'
I2
tp970
a(S'w'
I839
tp971
a(S'w'
I2
tp972
a(S'w'
I2
tp973
a(S'w'
I578
tp974
a(S'w'
I2
tp975
a(S'w'
I2
tp976
a(S'w'
I840
tp977
a(S'w'
I2
tp978
a(S'w'
I2
tp979
a(S'w'
I839
tp980
a(S'w'
I2
tp981
a(S'w'
I2
tp982
a(S'w'
I580
tp983
a(S'w'
I2
tp984
a(S'w'
I2
tp985
a(S'p1_vo'
I3
tp986
a(S'w'
I840
tp987
a(S'w'
I2
tp988
a(S'w'
I2
tp989
a(S'w'
I578
tp990
a(S'w'
I2
tp991
a(S'w'
I2
tp992
a(S'w'
I839
tp993
a(S'w'
I2
tp994
a(S'w'
I2
tp995
a(S'w'
I829
tp996
a(S'tr_lr'
I0
tp997
a(S'w'
I1
tp998
a(S'tr_tl'
I0
tp999
a(S'tr_ll'
I0
tp1000
a(S'tr_th'
I0
tp1001
a(S'w'
I17
tp1002
a(S'w'
I2
tp1003
a(S'w'
I580
tp1004
a(S'w'
I2
tp1005
a(S'w'
I840
tp1006
a(S'w'
I2
tp1007
a(S'w'
I581
tp1008
a(S'w'
I2
tp1009
a(S'w'
I840
tp1010
a(S'w'
I2
tp1011
a(S'w'
I588
tp1012
a(S'tr_lr'
I127
tp1013
a(S'tr_tl'
I45
tp1014
a(S'w'
I1
tp1015
a(S'tr_ll'
I0
tp1016
a(S'tr_th'
I1
tp1017
a(S'w'
I2
tp1018
a(S'p2_vo'
I3
tp1019
a(S'w'
I2
tp1020
a(S'w'
I840
tp1021
a(S'w'
I2
tp1022
a(S'w'
I2
tp1023
a(S'w'
I839
tp1024
a(S'w'
I2
tp1025
a(S'w'
I1
tp1026
a(S'w'
I579
tp1027
a(S'w'
I2
tp1028
a(S'w'
I2
tp1029
a(S'w'
I839
tp1030
a(S'w'
I2
tp1031
a(S'w'
I2
tp1032
a(S'w'
I579
tp1033
a(S'w'
I2
tp1034
a(S'w'
I2
tp1035
a(S'w'
I839
tp1036
a(S'w'
I2
tp1037
a(S'w'
I1
tp1038
a(S'w'
I582
tp1039
a(S'w'
I2
tp1040
a(S'w'
I2
tp1041
a(S'p1_vo'
I2
tp1042
a(S'w'
I840
tp1043
a(S'w'
I2
tp1044
a(S'w'
I1
tp1045
a(S'w'
I839
tp1046
a(S'w'
I2
tp1047
a(S'w'
I2
tp1048
a(S'w'
I579
tp1049
a(S'w'
I2
tp1050
a(S'w'
I2
tp1051
a(S'w'
I838
tp1052
a(S'w'
I2
tp1053
a(S'w'
I2
tp1054
a(S'w'
I578
tp1055
a(S'w'
I2
tp1056
a(S'w'
I2
tp1057
a(S'w'
I840
tp1058
a(S'w'
I1
tp1059
a(S'w'
I2
tp1060
a(S'w'
I579
tp1061
a(S'w'
I2
tp1062
a(S'w'
I2
tp1063
a(S'w'
I839
tp1064
a(S'w'
I2
tp1065
a(S'w'
I2
tp1066
a(S'w'
I842
tp1067
a(S'w'
I1
tp1068
a(S'p2_vo'
I2
tp1069
a(S'w'
I2
tp1070
a(S'w'
I579
tp1071
a(S'w'
I1
tp1072
a(S'w'
I2
tp1073
a(S'w'
I839
tp1074
a(S'w'
I2
tp1075
a(S'w'
I2
tp1076
a(S'w'
I568
tp1077
a(S'tr_lr'
I0
tp1078
a(S'tr_tl'
I0
tp1079
a(S'tr_ll'
I0
tp1080
a(S'tr_th'
I0
tp1081
a(S'w'
I18
tp1082
a(S'w'
I2
tp1083
a(S'w'
I823
tp1084
a(S'p1_vo'
I0
tp1085
a(S'w'
I1
tp1086
a(S'p1_ss'
I0
tp1087
a(S'p1_tl'
I0
tp1088
a(S'p1_ll'
I0
tp1089
a(S'p1_th'
I0
tp1090
a(S'w'
I23
tp1091
a(S'w'
I581
tp1092
a(S'w'
I853
tp1093
a(S'w'
I2
tp1094
a(S'p1_vo'
I1
tp1095
a(S'p1_ss'
I7
tp1096
a(S'w'
I1
tp1097
a(S'p1_tl'
I47
tp1098
a(S'w'
I1
tp1099
a(S'p1_ll'
I0
tp1100
a(S'p1_th'
I1
tp1101
a(S'w'
I843
tp1102
a(S'w'
I2
tp1103
a(S'p1_vo'
I4
tp1104
a(S'w'
I586
tp1105
a(S'tr_lr'
I127
tp1106
a(S'tr_tl'
I45
tp1107
a(S'w'
I1
tp1108
a(S'tr_ll'
I0
tp1109
a(S'tr_th'
I1
tp1110
a(S'w'
I2
tp1111
a(S'w'
I2
tp1112
a(S'w'
I839
tp1113
a(S'w'
I2
tp1114
a(S'w'
I2
tp1115
a(S'w'
I579
tp1116
a(S'w'
I2
tp1117
a(S'w'
I2
tp1118
a(S'w'
I839
tp1119
a(S'w'
I2
tp1120
a(S'w'
I2
tp1121
a(S'w'
I578
tp1122
a(S'w'
I2
tp1123
a(S'w'
I2
tp1124
a(S'w'
I840
tp1125
a(S'w'
I2
tp1126
a(S'w'
I2
tp1127
a(S'w'
I839
tp1128
a(S'w'
I2
tp1129
a(S'w'
I2
tp1130
a(S'w'
I578
tp1131
a(S'w'
I2
tp1132
a(S'w'
I2
tp1133
a(S'w'
I842
tp1134
a(S'w'
I2
tp1135
a(S'p2_vo'
I1
tp1136
a(S'w'
I2
tp1137
a(S'w'
I578
tp1138
a(S'w'
I2
tp1139
a(S'w'
I2
tp1140
a(S'w'
I839
tp1141
a(S'w'
I2
tp1142
a(S'w'
I2
tp1143
a(S'w'
I840
tp1144
a(S'w'
I1
tp1145
a(S'w'
I2
tp1146
a(S'w'
I579
tp1147
a(S'w'
I2
tp1148
a(S'w'
I2
tp1149
a(S'w'
I839
tp1150
a(S'w'
I2
tp1151
a(S'w'
I2
tp1152
a(S'w'
I579
tp1153
a(S'w'
I2
tp1154
a(S'w'
I1
tp1155
a(S'w'
I842
tp1156
a(S'w'
I2
tp1157
a(S'w'
I2
tp1158
a(S'p1_vo'
I3
tp1159
a(S'w'
I578
tp1160
a(S'w'
I2
tp1161
a(S'w'
I2
tp1162
a(S'w'
I840
tp1163
a(S'w'
I1
tp1164
a(S'w'
I2
tp1165
a(S'w'
I839
tp1166
a(S'w'
I2
tp1167
a(S'w'
I2
tp1168
a(S'w'
I568
tp1169
a(S'tr_lr'
I0
tp1170
a(S'w'
I1
tp1171
a(S'tr_tl'
I0
tp1172
a(S'tr_ll'
I0
tp1173
a(S'tr_th'
I0
tp1174
a(S'w'
I17
tp1175
a(S'w'
I2
tp1176
a(S'w'
I824
tp1177
a(S'p1_vo'
I0
tp1178
a(S'w'
I1
tp1179
a(S'p1_ss'
I0
tp1180
a(S'p1_tl'
I0
tp1181
a(S'p1_ll'
I0
tp1182
a(S'p1_th'
I0
tp1183
a(S'w'
I23
tp1184
a(S'w'
I581
tp1185
a(S'w'
I854
tp1186
a(S'w'
I2
tp1187
a(S'p1_vo'
I1
tp1188
a(S'p1_ss'
I7
tp1189
a(S'p1_tl'
I253
tp1190
a(S'w'
I1
tp1191
a(S'p1_ll'
I0
tp1192
a(S'p1_th'
I1
tp1193
a(S'w'
I582
tp1194
a(S'w'
I2
tp1195
a(S'p1_vo'
I4
tp1196
a(S'w'
I850
tp1197
a(S'tr_lr'
I127
tp1198
a(S'tr_tl'
I253
tp1199
a(S'w'
I1
tp1200
a(S'tr_ll'
I0
tp1201
a(S'w'
I2
tp1202
a(S'p2_vo'
I0
tp1203
a(S'w'
I2
tp1204
a(S'w'
I839
tp1205
a(S'w'
I2
tp1206
a(S'w'
I2
tp1207
a(S'w'
I578
tp1208
a(S'w'
I2
tp1209
a(S'w'
I2
tp1210
a(S'w'
I839
tp1211
a(S'w'
I2
tp1212
a(S'w'
I2
tp1213
a(S'w'
I578
tp1214
a(S'w'
I2
tp1215
a(S'w'
I2
tp1216
a(S'w'
I838
tp1217
a(S'w'
I2
tp1218
a(S'w'
I2
tp1219
a(S'w'
I579
tp1220
a(S'w'
I2
tp1221
a(S'w'
I2
tp1222
a(S'w'
I838
tp1223
a(S'w'
I2
tp1224
a(S'w'
I2
tp1225
a(S'w'
I839
tp1226
a(S'w'
I2
tp1227
a(S'w'
I2
tp1228
a(S'w'
I579
tp1229
a(S'w'
I1
tp1230
a(S'w'
I2
tp1231
a(S'w'
I839
tp1232
a(S'w'
I2
tp1233
a(S'w'
I2
tp1234
a(S'w'
I578
tp1235
a(S'w'
I2
tp1236
a(S'w'
I2
tp1237
a(S'w'
I839
tp1238
a(S'w'
I2
tp1239
a(S'w'
I2
tp1240
a(S'w'
I578
tp1241
a(S'w'
I2
tp1242
a(S'w'
I2
tp1243
a(S'w'
I839
tp1244
a(S'w'
I1
tp1245
a(S'w'
I2
tp1246
a(S'w'
I842
tp1247
a(S'w'
I2
tp1248
a(S'w'
I2
tp1249
a(S'p1_vo'
I3
tp1250
a(S'w'
I590
tp1251
a(S'w'
I2
tp1252
a(S'w'
I2
tp1253
a(S'p1_vo'
I1
tp1254
a(S'p1_tl'
I30
tp1255
a(S'w'
I842
tp1256
a(S'w'
I2
tp1257
a(S'w'
I2
tp1258
a(S'p1_vo'
I4
tp1259
a(S'w'
I586
tp1260
a(S'tr_tl'
I142
tp1261
a(S'w'
I3
tp1262
a(S'w'
I2
tp1263
a(S'w'
I839
tp1264
a(S'w'
I2
tp1265
a(S'w'
I1
tp1266
a(S'w'
I567
tp1267
a(S'p2_ss'
I0
tp1268
a(S'p2_tl'
I0
tp1269
a(S'p2_ll'
I0
tp1270
a(S'p2_th'
I0
tp1271
a(S'w'
I18
tp1272
a(S'w'
I3
tp1273
a(S'w'
I840
tp1274
a(S'w'
I3
tp1275
a(S'w'
I863
tp1276
a(S'w'
I2
tp1277
a(S'p2_vo'
I2
tp1278
a(S'p2_ss'
I7
tp1279
a(S'p2_tl'
I48
tp1280
a(S'w'
I1
tp1281
a(S'p2_ll'
I0
tp1282
a(S'p2_th'
I4
tp1283
a(S'w'
I2
tp1284
a(S'p1_vo'
I1
tp1285
a(S'w'
I1
tp1286
a(S'p1_tl'
I47
tp1287
a(S'w'
I581
tp1288
a(S'w'
I2
tp1289
a(S'w'
I2
tp1290
a(S'p1_vo'
I4
tp1291
a(S'w'
I850
tp1292
a(S'tr_tl'
I201
tp1293
a(S'w'
I3
tp1294
a(S'p2_vo'
I12
tp1295
a(S'w'
I2
tp1296
a(S'w'
I581
tp1297
a(S'w'
I2
tp1298
a(S'p2_vo'
I11
tp1299
a(S'w'
I2
tp1300
a(S'w'
I842
tp1301
a(S'w'
I2
tp1302
a(S'p2_vo'
I10
tp1303
a(S'w'
I1
tp1304
a(S'w'
I582
tp1305
a(S'w'
I1
tp1306
a(S'p2_vo'
I9
tp1307
a(S'w'
I2
tp1308
a(S'w'
I843
tp1309
a(S'w'
I1
tp1310
a(S'p2_vo'
I8
tp1311
a(S'w'
I2
tp1312
a(S'w'
I581
tp1313
a(S'w'
I2
tp1314
a(S'p2_vo'
I7
tp1315
a(S'w'
I2
tp1316
a(S'w'
I842
tp1317
a(S'w'
I2
tp1318
a(S'p2_vo'
I6
tp1319
a(S'w'
I2
tp1320
a(S'w'
I842
tp1321
a(S'w'
I2
tp1322
a(S'p2_vo'
I5
tp1323
a(S'w'
I2
tp1324
a(S'w'
I581
tp1325
a(S'w'
I2
tp1326
a(S'p2_vo'
I4
tp1327
a(S'w'
I1
tp1328
a(S'w'
I841
tp1329
a(S'w'
I2
tp1330
a(S'w'
I2
tp1331
a(S'w'
I579
tp1332
a(S'w'
I2
tp1333
a(S'w'
I2
tp1334
a(S'w'
I839
tp1335
a(S'w'
I2
tp1336
a(S'w'
I1
tp1337
a(S'w'
I840
tp1338
a(S'w'
I1
tp1339
a(S'w'
I2
tp1340
a(S'w'
I579
tp1341
a(S'w'
I2
tp1342
a(S'w'
I2
tp1343
a(S'w'
I839
tp1344
a(S'w'
I2
tp1345
a(S'w'
I2
tp1346
a(S'w'
I581
tp1347
a(S'w'
I2
tp1348
a(S'w'
I2
tp1349
a(S'p1_vo'
I3
tp1350
a(S'w'
I839
tp1351
a(S'w'
I2
tp1352
a(S'w'
I2
tp1353
a(S'w'
I579
tp1354
a(S'w'
I2
tp1355
a(S'w'
I1
tp1356
a(S'w'
I840
tp1357
a(S'w'
I1
tp1358
a(S'w'
I2
tp1359
a(S'w'
I840
tp1360
a(S'w'
I2
tp1361
a(S'w'
I2
tp1362
a(S'w'
I578
tp1363
a(S'w'
I2
tp1364
a(S'w'
I2
tp1365
a(S'w'
I839
tp1366
a(S'w'
I2
tp1367
a(S'w'
I2
tp1368
a(S'w'
I579
tp1369
a(S'w'
I2
tp1370
a(S'w'
I2
tp1371
a(S'w'
I839
tp1372
a(S'w'
I2
tp1373
a(S'w'
I2
tp1374
a(S'w'
I581
tp1375
a(S'w'
I2
tp1376
a(S'p2_vo'
I3
tp1377
a(S'w'
I1
tp1378
a(S'w'
I840
tp1379
a(S'w'
I2
tp1380
a(S'w'
I2
tp1381
a(S'w'
I839
tp1382
a(S'w'
I2
tp1383
a(S'w'
I2
tp1384
a(S'w'
I578
tp1385
a(S'w'
I2
tp1386
a(S'w'
I2
tp1387
a(S'w'
I840
tp1388
a(S'w'
I2
tp1389
a(S'w'
I2
tp1390
a(S'w'
I578
tp1391
a(S'w'
I2
tp1392
a(S'w'
I2
tp1393
a(S'w'
I839
tp1394
a(S'w'
I2
tp1395
a(S'w'
I2
tp1396
a(S'w'
I842
tp1397
a(S'w'
I2
tp1398
a(S'w'
I1
tp1399
a(S'p1_vo'
I2
tp1400
a(S'w'
I580
tp1401
a(S'w'
I2
tp1402
a(S'w'
I2
tp1403
a(S'w'
I839
tp1404
a(S'w'
I1
tp1405
a(S'w'
I2
tp1406
a(S'w'
I579
tp1407
a(S'w'
I1
tp1408
a(S'w'
I2
tp1409
a(S'w'
I840
tp1410
a(S'w'
I2
tp1411
a(S'w'
I1
tp1412
a(S'w'
I579
tp1413
a(S'w'
I2
tp1414
a(S'w'
I1
tp1415
a(S'w'
I839
tp1416
a(S'w'
I2
tp1417
a(S'w'
I2
tp1418
a(S'w'
I839
tp1419
a(S'w'
I2
tp1420
a(S'w'
I2
tp1421
a(S'w'
I578
tp1422
a(S'w'
I2
tp1423
a(S'w'
I2
tp1424
a(S'w'
I853
tp1425
a(S'w'
I2
tp1426
a(S'p2_vo'
I2
tp1427
a(S'w'
I2
tp1428
a(S'p1_vo'
I1
tp1429
a(S'w'
I1
tp1430
a(S'p1_tl'
I27
tp1431
a(S'w'
I1
tp1432
a(S'p1_ll'
I0
tp1433
a(S'p1_th'
I2
tp1434
a(S'w'
I581
tp1435
a(S'w'
I2
tp1436
a(S'w'
I2
tp1437
a(S'p1_vo'
I4
tp1438
a(S'w'
I839
tp1439
a(S'w'
I2
tp1440
a(S'w'
I2
tp1441
a(S'w'
I579
tp1442
a(S'w'
I2
tp1443
a(S'w'
I1
tp1444
a(S'w'
I840
tp1445
a(S'w'
I2
tp1446
a(S'w'
I2
tp1447
a(S'w'
I839
tp1448
a(S'w'
I2
tp1449
a(S'w'
I2
tp1450
a(S'w'
I580
tp1451
a(S'tr_lr'
I0
tp1452
a(S'tr_tl'
I0
tp1453
a(S'tr_ll'
I0
tp1454
a(S'w'
I18
tp1455
a(S'w'
I2
tp1456
a(S'p1_vo'
I1
tp1457
a(S'w'
I1
tp1458
a(S'w'
I843
tp1459
a(S'w'
I2
tp1460
a(S'p1_vo'
I4
tp1461
a(S'w'
I586
tp1462
a(S'tr_lr'
I127
tp1463
a(S'w'
I1
tp1464
a(S'tr_tl'
I201
tp1465
a(S'w'
I1
tp1466
a(S'tr_ll'
I0
tp1467
a(S'w'
I2
tp1468
a(S'w'
I2
tp1469
a(S'w'
I839
tp1470
a(S'w'
I2
tp1471
a(S'w'
I2
tp1472
a(S'w'
I579
tp1473
a(S'w'
I2
tp1474
a(S'w'
I1
tp1475
a(S'w'
I840
tp1476
a(S'w'
I1
tp1477
a(S'w'
I2
tp1478
a(S'w'
I840
tp1479
a(S'w'
I1
tp1480
a(S'w'
I2
tp1481
a(S'w'
I579
tp1482
a(S'w'
I2
tp1483
a(S'w'
I2
tp1484
a(S'w'
I839
tp1485
a(S'w'
I2
tp1486
a(S'w'
I2
tp1487
a(S'w'
I579
tp1488
a(S'w'
I1
tp1489
a(S'w'
I2
tp1490
a(S'w'
I842
tp1491
a(S'w'
I2
tp1492
a(S'p2_vo'
I1
tp1493
a(S'w'
I2
tp1494
a(S'w'
I579
tp1495
a(S'w'
I2
tp1496
a(S'w'
I1
tp1497
a(S'w'
I840
tp1498
a(S'w'
I1
tp1499
a(S'w'
I2
tp1500
a(S'w'
I840
tp1501
a(S'w'
I2
tp1502
a(S'w'
I2
tp1503
a(S'w'
I578
tp1504
a(S'w'
I2
tp1505
a(S'w'
I2
tp1506
a(S'w'
I839
tp1507
a(S'w'
I2
tp1508
a(S'w'
I2
tp1509
a(S'w'
I579
tp1510
a(S'w'
I1
tp1511
a(S'w'
I2
tp1512
a(S'w'
I842
tp1513
a(S'w'
I2
tp1514
a(S'w'
I2
tp1515
a(S'p1_vo'
I3
tp1516
a(S'w'
I579
tp1517
a(S'w'
I1
tp1518
a(S'w'
I2
tp1519
a(S'w'
I839
tp1520
a(S'w'
I2
tp1521
a(S'w'
I2
tp1522
a(S'w'
I840
tp1523
a(S'w'
I2
tp1524
a(S'w'
I2
tp1525
a(S'w'
I578
tp1526
a(S'w'
I2
tp1527
a(S'w'
I2
tp1528
a(S'w'
I839
tp1529
a(S'w'
I2
tp1530
a(S'w'
I2
tp1531
a(S'w'
I579
tp1532
a(S'w'
I2
tp1533
a(S'w'
I2
tp1534
a(S'w'
I829
tp1535
a(S'tr_lr'
I0
tp1536
a(S'tr_tl'
I0
tp1537
a(S'tr_ll'
I0
tp1538
a(S'w'
I18
tp1539
a(S'w'
I1
tp1540
a(S'w'
I841
tp1541
a(S'w'
I2
tp1542
a(S'w'
I588
tp1543
a(S'tr_lr'
I127
tp1544
a(S'w'
I1
tp1545
a(S'tr_tl'
I225
tp1546
a(S'w'
I1
tp1547
a(S'tr_ll'
I0
tp1548
a(S'w'
I2
tp1549
a(S'p2_vo'
I0
tp1550
a(S'w'
I2
tp1551
a(S'w'
I838
tp1552
a(S'w'
I2
tp1553
a(S'w'
I2
tp1554
a(S'w'
I578
tp1555
a(S'w'
I2
tp1556
a(S'w'
I2
tp1557
a(S'w'
I839
tp1558
a(S'w'
I2
tp1559
a(S'w'
I2
tp1560
a(S'w'
I578
tp1561
a(S'w'
I2
tp1562
a(S'w'
I2
tp1563
a(S'w'
I839
tp1564
a(S'w'
I2
tp1565
a(S'w'
I2
tp1566
a(S'w'
I839
tp1567
a(S'w'
I2
tp1568
a(S'w'
I2
tp1569
a(S'w'
I580
tp1570
a(S'w'
I2
tp1571
a(S'w'
I2
tp1572
a(S'p1_vo'
I2
tp1573
a(S'w'
I840
tp1574
a(S'w'
I1
tp1575
a(S'w'
I2
tp1576
a(S'w'
I579
tp1577
a(S'w'
I2
tp1578
a(S'w'
I2
tp1579
a(S'w'
I838
tp1580
a(S'w'
I2
tp1581
a(S'w'
I2
tp1582
a(S'w'
I578
tp1583
a(S'w'
I1
tp1584
a(S'w'
I2
tp1585
a(S'w'
I839
tp1586
a(S'w'
I2
tp1587
a(S'w'
I2
tp1588
a(S'w'
I839
tp1589
a(S'w'
I2
tp1590
a(S'w'
I1
tp1591
a(S'w'
I578
tp1592
a(S'w'
I2
tp1593
a(S'w'
I2
tp1594
a(S'w'
I839
tp1595
a(S'w'
I2
tp1596
a(S'w'
I2
tp1597
a(S'w'
I567
tp1598
a(S'tr_lr'
I0
tp1599
a(S'w'
I1
tp1600
a(S'tr_tl'
I0
tp1601
a(S'tr_ll'
I0
tp1602
a(S'w'
I17
tp1603
a(S'w'
I2
tp1604
a(S'w'
I840
tp1605
a(S'w'
I2
tp1606
a(S'w'
I846
tp1607
a(S'tr_lr'
I127
tp1608
a(S'tr_tl'
I189
tp1609
a(S'w'
I1
tp1610
a(S'tr_ll'
I0
tp1611
a(S'w'
I2
tp1612
a(S'w'
I2
tp1613
a(S'w'
I578
tp1614
a(S'w'
I2
tp1615
a(S'w'
I2
tp1616
a(S'w'
I826
tp1617
a(S'w'
I1
tp1618
a(S'p2_ss'
I0
tp1619
a(S'p2_tl'
I0
tp1620
a(S'p2_ll'
I0
tp1621
a(S'p2_th'
I0
tp1622
a(S'w'
I18
tp1623
a(S'w'
I3
tp1624
a(S'w'
I578
tp1625
a(S'w'
I3
tp1626
a(S'w'
I853
tp1627
a(S'tr_lr'
I0
tp1628
a(S'tr_tl'
I0
tp1629
a(S'tr_ll'
I0
tp1630
a(S'w'
I18
tp1631
a(S'p2_vo'
I2
tp1632
a(S'p2_ss'
I7
tp1633
a(S'p2_tl'
I115
tp1634
a(S'w'
I1
tp1635
a(S'p2_ll'
I0
tp1636
a(S'p2_th'
I4
tp1637
a(S'w'
I2
tp1638
a(S'p1_vo'
I1
tp1639
a(S'w'
I1
tp1640
a(S'p1_tl'
I197
tp1641
a(S'w'
I1
tp1642
a(S'p1_ll'
I0
tp1643
a(S'p1_th'
I1
tp1644
a(S'w'
I582
tp1645
a(S'w'
I2
tp1646
a(S'p1_vo'
I4
tp1647
a(S'w'
I849
tp1648
a(S'tr_lr'
I127
tp1649
a(S'w'
I1
tp1650
a(S'tr_tl'
I189
tp1651
a(S'tr_ll'
I0
tp1652
a(S'w'
I3
tp1653
a(S'p2_vo'
I12
tp1654
a(S'w'
I1
tp1655
a(S'w'
I583
tp1656
a(S'w'
I1
tp1657
a(S'p2_vo'
I11
tp1658
a(S'w'
I2
tp1659
a(S'w'
I842
tp1660
a(S'w'
I2
tp1661
a(S'p2_vo'
I10
tp1662
a(S'w'
I2
tp1663
a(S'w'
I581
tp1664
a(S'w'
I2
tp1665
a(S'p2_vo'
I9
tp1666
a(S'w'
I2
tp1667
a(S'w'
I842
tp1668
a(S'w'
I2
tp1669
a(S'p2_vo'
I8
tp1670
a(S'w'
I2
tp1671
a(S'w'
I841
tp1672
a(S'w'
I2
tp1673
a(S'p2_vo'
I7
tp1674
a(S'w'
I2
tp1675
a(S'w'
I581
tp1676
a(S'w'
I2
tp1677
a(S'p2_vo'
I6
tp1678
a(S'w'
I2
tp1679
a(S'w'
I842
tp1680
a(S'w'
I2
tp1681
a(S'p2_vo'
I5
tp1682
a(S'w'
I2
tp1683
a(S'w'
I581
tp1684
a(S'w'
I2
tp1685
a(S'p2_vo'
I4
tp1686
a(S'w'
I2
tp1687
a(S'w'
I840
tp1688
a(S'w'
I2
tp1689
a(S'w'
I2
tp1690
a(S'w'
I579
tp1691
a(S'w'
I2
tp1692
a(S'w'
I2
tp1693
a(S'w'
I839
tp1694
a(S'w'
I2
tp1695
a(S'w'
I2
tp1696
a(S'w'
I839
tp1697
a(S'w'
I2
tp1698
a(S'w'
I2
tp1699
a(S'w'
I579
tp1700
a(S'w'
I2
tp1701
a(S'w'
I1
tp1702
a(S'w'
I840
tp1703
a(S'w'
I2
tp1704
a(S'w'
I1
tp1705
a(S'w'
I581
tp1706
a(S'w'
I2
tp1707
a(S'w'
I2
tp1708
a(S'p1_vo'
I3
tp1709
a(S'w'
I840
tp1710
a(S'w'
I2
tp1711
a(S'w'
I1
tp1712
a(S'w'
I840
tp1713
a(S'w'
I1
tp1714
a(S'w'
I2
tp1715
a(S'w'
I579
tp1716
a(S'w'
I2
tp1717
a(S'w'
I2
tp1718
a(S'w'
I839
tp1719
a(S'w'
I2
tp1720
a(S'w'
I2
tp1721
a(S'w'
I579
tp1722
a(S'w'
I2
tp1723
a(S'w'
I1
tp1724
a(S'w'
I840
tp1725
a(S'w'
I1
tp1726
a(S'w'
I2
tp1727
a(S'w'
I579
tp1728
a(S'w'
I2
tp1729
a(S'w'
I2
tp1730
a(S'w'
I839
tp1731
a(S'w'
I2
tp1732
a(S'w'
I2
tp1733
a(S'w'
I841
tp1734
a(S'w'
I2
tp1735
a(S'p2_vo'
I3
tp1736
a(S'w'
I2
tp1737
a(S'w'
I579
tp1738
a(S'w'
I2
tp1739
a(S'w'
I2
tp1740
a(S'w'
I839
tp1741
a(S'w'
I2
tp1742
a(S'w'
I2
tp1743
a(S'w'
I579
tp1744
a(S'w'
I1
tp1745
a(S'w'
I2
tp1746
a(S'w'
I839
tp1747
a(S'w'
I2
tp1748
a(S'w'
I2
tp1749
a(S'w'
I840
tp1750
a(S'w'
I2
tp1751
a(S'w'
I2
tp1752
a(S'w'
I578
tp1753
a(S'w'
I2
tp1754
a(S'w'
I2
tp1755
a(S'w'
I841
tp1756
a(S'w'
I2
tp1757
a(S'w'
I2
tp1758
a(S'p1_vo'
I2
tp1759
a(S'w'
I580
tp1760
a(S'w'
I2
tp1761
a(S'w'
I2
tp1762
a(S'w'
I839
tp1763
a(S'w'
I2
tp1764
a(S'w'
I2
tp1765
a(S'w'
I578
tp1766
a(S'w'
I2
tp1767
a(S'w'
I2
tp1768
a(S'w'
I839
tp1769
a(S'w'
I2
tp1770
a(S'w'
I2
tp1771
a(S'w'
I839
tp1772
a(S'w'
I1
tp1773
a(S'w'
I2
tp1774
a(S'w'
I579
tp1775
a(S'w'
I1
tp1776
a(S'w'
I2
tp1777
a(S'w'
I840
tp1778
a(S'w'
I2
tp1779
a(S'w'
I1
tp1780
a(S'w'
I579
tp1781
a(S'w'
I2
tp1782
a(S'w'
I1
tp1783
a(S'w'
I842
tp1784
a(S'w'
I1
tp1785
a(S'p2_vo'
I2
tp1786
a(S'w'
I2
tp1787
a(S'w'
I579
tp1788
a(S'w'
I2
tp1789
a(S'w'
I2
tp1790
a(S'w'
I839
tp1791
a(S'w'
I2
tp1792
a(S'w'
I1
tp1793
a(S'w'
I839
tp1794
a(S'w'
I2
tp1795
a(S'w'
I2
tp1796
a(S'w'
I579
tp1797
a(S'w'
I2
tp1798
a(S'w'
I2
tp1799
a(S'w'
I838
tp1800
a(S'w'
I2
tp1801
a(S'w'
I2
tp1802
a(S'w'
I578
tp1803
a(S'w'
I2
tp1804
a(S'w'
I2
tp1805
a(S'w'
I842
tp1806
a(S'w'
I2
tp1807
a(S'w'
I2
tp1808
a(S'p1_vo'
I1
tp1809
a(S'w'
I838
tp1810
a(S'w'
I2
tp1811
a(S'w'
I2
tp1812
a(S'w'
I578
tp1813
a(S'w'
I2
tp1814
a(S'w'
I2
tp1815
a(S'w'
I840
tp1816
a(S'w'
I1
tp1817
a(S'w'
I2
tp1818
a(S'w'
I579
tp1819
a(S'w'
I1
tp1820
a(S'w'
I2
tp1821
a(S'w'
I839
tp1822
a(S'w'
I2
tp1823
a(S'w'
I2
tp1824
a(S'w'
I578
tp1825
a(S'w'
I2
tp1826
a(S'w'
I2
tp1827
a(S'w'
I839
tp1828
a(S'w'
I2
tp1829
a(S'w'
I2
tp1830
a(S'w'
I839
tp1831
a(S'w'
I2
tp1832
a(S'w'
I2
tp1833
a(S'w'
I580
tp1834
a(S'w'
I2
tp1835
a(S'p2_vo'
I1
tp1836
a(S'w'
I2
tp1837
a(S'w'
I839
tp1838
a(S'w'
I2
tp1839
a(S'w'
I2
tp1840
a(S'w'
I578
tp1841
a(S'w'
I2
tp1842
a(S'w'
I2
tp1843
a(S'w'
I839
tp1844
a(S'w'
I2
tp1845
a(S'w'
I2
tp1846
a(S'w'
I839
tp1847
a(S'w'
I2
tp1848
a(S'w'
I2
tp1849
a(S'w'
I578
tp1850
a(S'w'
I2
tp1851
a(S'w'
I2
tp1852
a(S'w'
I839
tp1853
a(S'w'
I1
tp1854
a(S'w'
I2
tp1855
a(S'w'
I581
tp1856
a(S'w'
I2
tp1857
a(S'w'
I2
tp1858
a(S'p1_vo'
I0
tp1859
a(S'w'
I839
tp1860
a(S'w'
I1
tp1861
a(S'w'
I2
tp1862
a(S'w'
I578
tp1863
a(S'w'
I2
tp1864
a(S'w'
I2
tp1865
a(S'w'
I839
tp1866
a(S'w'
I2
tp1867
a(S'w'
I2
tp1868
a(S'w'
I838
tp1869
a(S'w'
I2
tp1870
a(S'w'
I2
tp1871
a(S'w'
I566
tp1872
a(S'p2_vo'
I0
tp1873
a(S'p2_ss'
I0
tp1874
a(S'p2_tl'
I0
tp1875
a(S'p2_ll'
I0
tp1876
a(S'p2_th'
I0
tp1877
a(S'w'
I18
tp1878
a(S'w'
I4
tp1879
a(S'w'
I839
tp1880
a(S'w'
I3
tp1881
a(S'w'
I562
tp1882
a(S'p1_ss'
I0
tp1883
a(S'p1_tl'
I0
tp1884
a(S'w'
I1
tp1885
a(S'p1_ll'
I0
tp1886
a(S'p1_th'
I0
tp1887
a(S'w'
I9
tp1888
a(S'p2_ll'
I0
tp1889
a(S'w'
I17
tp1890
a(S'w'
I838
tp1891
a(S'w'
I571
tp1892
a(S'tr_lr'
I0
tp1893
a(S'tr_tl'
I0
tp1894
a(S'w'
I1
tp1895
a(S'tr_ll'
I0
tp1896
a(S'w'
I12231
tp1897
a.