(lp1
(S'clock'
p2
I1789772
tp3
a(S'p1_cv'
I1
tp4
a(S'p1_tl'
I169
tp5
a(S'p1_ll'
I0
tp6
a(S'p2_cv'
I1
tp7
a(S'p2_tl'
I201
tp8
a(S'p2_ll'
I0
tp9
a(S'tr_ll'
I0
tp10
a(S'no_cv'
I1
tp11
a(S'no_np'
I15
tp12
a(S'no_ll'
I0
tp13
a(S'ch_no'
I1
tp14
a(S'ch_tr'
I1
tp15
a(S'ch_p2'
I1
tp16
a(S'ch_p1'
I1
tp17
a(S'p1_tl'
I226
tp18
a(S'w'
I1
tp19
a(S'p1_ll'
I4
tp20
a(S'tr_lh'
I1
tp21
a(S'tr_lr'
I55
tp22
a(S'w'
I3
tp23
a(S'p1_du'
I1
tp24
a(S'p1_vo'
I13
tp25
a(S'w'
I20
tp26
a(S'p2_du'
I1
tp27
a(S'w'
I18
tp28
a(S'tr_tl'
I171
tp29
a(S'w'
I1
tp30
a(S'tr_ll'
I1
tp31
a(S'tr_th'
I1
tp32
a(S'tr_lh'
I0
tp33
a(S'tr_lr'
I39
tp34
a(S'w'
I664
tp35
a(S'p1_vo'
I11
tp36
a(S'w'
I734
tp37
a(S'p1_vo'
I9
tp38
a(S'w'
I734
tp39
a(S'p1_vo'
I7
tp40
a(S'w'
I6616
tp41
a(S'tr_tl'
I29
tp42
a(S'tr_ll'
I1
tp43
a(S'w'
I3658
tp44
a(S'w'
I4
tp45
a(S'w'
I730
tp46
a(S'w'
I4
tp47
a(S'w'
I730
tp48
a(S'p1_tl'
I222
tp49
a(S'w'
I4
tp50
a(S'p2_tl'
I197
tp51
a(S'w'
I729
tp52
a(S'w'
I5
tp53
a(S'w'
I729
tp54
a(S'w'
I5
tp55
a(S'w'
I729
tp56
a(S'w'
I4
tp57
a(S'w'
I730
tp58
a(S'p1_tl'
I226
tp59
a(S'w'
I4
tp60
a(S'p2_tl'
I201
tp61
a(S'w'
I733
tp62
a(S'p1_tl'
I29
tp63
a(S'w'
I1
tp64
a(S'p1_ll'
I4
tp65
a(S'p1_th'
I1
tp66
a(S'w'
I3
tp67
a(S'p1_vo'
I13
tp68
a(S'w'
I13
tp69
a(S'p2_tl'
I58
tp70
a(S'p2_ll'
I23
tp71
a(S'p2_th'
I2
tp72
a(S'w'
I4
tp73
a(S'p2_vo'
I13
tp74
a(S'w'
I12
tp75
a(S'tr_tl'
I169
tp76
a(S'w'
I1
tp77
a(S'tr_ll'
I1
tp78
a(S'tr_th'
I0
tp79
a(S'tr_lr'
I71
tp80
a(S'w'
I696
tp81
a(S'p1_vo'
I11
tp82
a(S'w'
I4
tp83
a(S'p2_vo'
I11
tp84
a(S'w'
I729
tp85
a(S'p1_vo'
I9
tp86
a(S'w'
I5
tp87
a(S'p2_vo'
I9
tp88
a(S'w'
I729
tp89
a(S'p1_vo'
I7
tp90
a(S'w'
I4
tp91
a(S'p2_vo'
I7
tp92
a(S'w'
I6615
tp93
a(S'p2_tl'
I171
tp94
a(S'w'
I1
tp95
a(S'p2_ll'
I10
tp96
a(S'p2_th'
I1
tp97
a(S'w'
I4
tp98
a(S'p2_vo'
I13
tp99
a(S'w'
I718
tp100
a(S'p2_vo'
I11
tp101
a(S'w'
I734
tp102
a(S'p2_vo'
I9
tp103
a(S'w'
I734
tp104
a(S'p2_vo'
I7
tp105
a(S'w'
I1464
tp106
a(S'w'
I734
tp107
a(S'w'
I734
tp108
a(S'p1_tl'
I25
tp109
a(S'w'
I734
tp110
a(S'w'
I733
tp111
a(S'w'
I734
tp112
a(S'w'
I734
tp113
a(S'p1_tl'
I29
tp114
a(S'w'
I737
tp115
a(S'p1_tl'
I83
tp116
a(S'w'
I1
tp117
a(S'p1_ll'
I4
tp118
a(S'w'
I3
tp119
a(S'p1_vo'
I13
tp120
a(S'w'
I13
tp121
a(S'tr_tl'
I213
tp122
a(S'w'
I1
tp123
a(S'tr_ll'
I1
tp124
a(S'w'
I712
tp125
a(S'p1_vo'
I11
tp126
a(S'w'
I734
tp127
a(S'p1_vo'
I9
tp128
a(S'w'
I733
tp129
a(S'p1_vo'
I7
tp130
a(S'w'
I1473
tp131
a(S'w'
I734
tp132
a(S'w'
I733
tp133
a(S'p2_tl'
I167
tp134
a(S'w'
I734
tp135
a(S'w'
I734
tp136
a(S'w'
I734
tp137
a(S'w'
I733
tp138
a(S'p2_tl'
I171
tp139
a(S'w'
I734
tp140
a(S'w'
I734
tp141
a(S'w'
I734
tp142
a(S'w'
I734
tp143
a(S'p2_tl'
I167
tp144
a(S'w'
I734
tp145
a(S'w'
I730
tp146
a(S'w'
I4
tp147
a(S'w'
I729
tp148
a(S'w'
I5
tp149
a(S'w'
I729
tp150
a(S'p1_tl'
I79
tp151
a(S'w'
I5
tp152
a(S'p2_tl'
I171
tp153
a(S'w'
I729
tp154
a(S'w'
I4
tp155
a(S'w'
I730
tp156
a(S'w'
I4
tp157
a(S'w'
I729
tp158
a(S'w'
I5
tp159
a(S'w'
I729
tp160
a(S'p1_tl'
I83
tp161
a(S'w'
I5
tp162
a(S'p2_tl'
I167
tp163
a(S'w'
I737
tp164
a(S'p1_tl'
I254
tp165
a(S'w'
I1
tp166
a(S'p1_ll'
I23
tp167
a(S'p1_th'
I0
tp168
a(S'w'
I4
tp169
a(S'p1_vo'
I13
tp170
a(S'w'
I14
tp171
a(S'w'
I11
tp172
a(S'tr_tl'
I171
tp173
a(S'tr_ll'
I1
tp174
a(S'tr_th'
I1
tp175
a(S'w'
I1
tp176
a(S'tr_lr'
I39
tp177
a(S'w'
I694
tp178
a(S'p1_vo'
I11
tp179
a(S'w'
I5
tp180
a(S'w'
I729
tp181
a(S'p1_vo'
I9
tp182
a(S'w'
I5
tp183
a(S'w'
I729
tp184
a(S'p1_vo'
I7
tp185
a(S'w'
I5
tp186
a(S'p2_tl'
I171
tp187
a(S'w'
I733
tp188
a(S'w'
I734
tp189
a(S'w'
I734
tp190
a(S'w'
I734
tp191
a(S'p2_tl'
I167
tp192
a(S'w'
I733
tp193
a(S'w'
I734
tp194
a(S'w'
I734
tp195
a(S'w'
I734
tp196
a(S'p2_tl'
I171
tp197
a(S'w'
I739
tp198
a(S'p1_tl'
I190
tp199
a(S'w'
I1
tp200
a(S'p1_ll'
I22
tp201
a(S'w'
I4
tp202
a(S'p1_vo'
I13
tp203
a(S'w'
I5
tp204
a(S'w'
I8
tp205
a(S'tr_tl'
I213
tp206
a(S'w'
I1
tp207
a(S'tr_ll'
I1
tp208
a(S'tr_th'
I0
tp209
a(S'w'
I705
tp210
a(S'p1_vo'
I11
tp211
a(S'w'
I5
tp212
a(S'w'
I728
tp213
a(S'p1_vo'
I9
tp214
a(S'w'
I5
tp215
a(S'w'
I729
tp216
a(S'p1_vo'
I7
tp217
a(S'w'
I5
tp218
a(S'p2_tl'
I167
tp219
a(S'w'
I734
tp220
a(S'w'
I734
tp221
a(S'w'
I733
tp222
a(S'w'
I734
tp223
a(S'p2_tl'
I171
tp224
a(S'w'
I734
tp225
a(S'w'
I734
tp226
a(S'w'
I734
tp227
a(S'w'
I733
tp228
a(S'p2_tl'
I167
tp229
a(S'w'
I742
tp230
a(S'p2_tl'
I252
tp231
a(S'p2_ll'
I23
tp232
a(S'w'
I4
tp233
a(S'p2_vo'
I13
tp234
a(S'w'
I12
tp235
a(S'tr_tl'
I151
tp236
a(S'w'
I1
tp237
a(S'tr_ll'
I1
tp238
a(S'tr_lr'
I103
tp239
a(S'w'
I708
tp240
a(S'p2_vo'
I11
tp241
a(S'w'
I734
tp242
a(S'p2_vo'
I9
tp243
a(S'w'
I734
tp244
a(S'p2_vo'
I7
tp245
a(S'w'
I1464
tp246
a(S'w'
I734
tp247
a(S'w'
I734
tp248
a(S'p1_tl'
I186
tp249
a(S'w'
I734
tp250
a(S'w'
I734
tp251
a(S'w'
I733
tp252
a(S'w'
I734
tp253
a(S'p1_tl'
I190
tp254
a(S'w'
I734
tp255
a(S'w'
I15
tp256
a(S'p2_tl'
I124
tp257
a(S'w'
I1
tp258
a(S'p2_ll'
I4
tp259
a(S'w'
I3
tp260
a(S'p2_vo'
I13
tp261
a(S'w'
I715
tp262
a(S'w'
I3
tp263
a(S'p2_vo'
I11
tp264
a(S'w'
I731
tp265
a(S'w'
I3
tp266
a(S'p2_vo'
I9
tp267
a(S'w'
I730
tp268
a(S'p1_tl'
I186
tp269
a(S'w'
I4
tp270
a(S'p2_vo'
I7
tp271
a(S'w'
I730
tp272
a(S'w'
I734
tp273
a(S'w'
I734
tp274
a(S'w'
I734
tp275
a(S'p1_tl'
I190
tp276
a(S'w'
I733
tp277
a(S'w'
I734
tp278
a(S'w'
I734
tp279
a(S'w'
I734
tp280
a(S'p1_tl'
I186
tp281
a(S'w'
I734
tp282
a(S'w'
I733
tp283
a(S'w'
I734
tp284
a(S'w'
I734
tp285
a(S'p1_tl'
I190
tp286
a(S'w'
I734
tp287
a(S'w'
I734
tp288
a(S'w'
I4
tp289
a(S'w'
I729
tp290
a(S'w'
I5
tp291
a(S'w'
I729
tp292
a(S'p1_tl'
I186
tp293
a(S'w'
I5
tp294
a(S'p2_tl'
I120
tp295
a(S'w'
I729
tp296
a(S'w'
I4
tp297
a(S'w'
I730
tp298
a(S'w'
I4
tp299
a(S'w'
I730
tp300
a(S'w'
I4
tp301
a(S'w'
I729
tp302
a(S'p1_tl'
I190
tp303
a(S'w'
I5
tp304
a(S'p2_tl'
I124
tp305
a(S'w'
I729
tp306
a(S'w'
I13
tp307
a(S'p2_tl'
I46
tp308
a(S'p2_ll'
I23
tp309
a(S'w'
I4
tp310
a(S'p2_vo'
I13
tp311
a(S'w'
I12
tp312
a(S'tr_tl'
I124
tp313
a(S'tr_ll'
I1
tp314
a(S'tr_th'
I1
tp315
a(S'tr_lr'
I39
tp316
a(S'w'
I705
tp317
a(S'w'
I4
tp318
a(S'p2_vo'
I11
tp319
a(S'w'
I730
tp320
a(S'w'
I3
tp321
a(S'p2_vo'
I9
tp322
a(S'w'
I731
tp323
a(S'p1_tl'
I186
tp324
a(S'w'
I3
tp325
a(S'p2_vo'
I7
tp326
a(S'w'
I730
tp327
a(S'w'
I734
tp328
a(S'w'
I734
tp329
a(S'w'
I734
tp330
a(S'p1_tl'
I190
tp331
a(S'w'
I734
tp332
a(S'w'
I733
tp333
a(S'w'
I734
tp334
a(S'w'
I734
tp335
a(S'p1_tl'
I186
tp336
a(S'w'
I745
tp337
a(S'p1_tl'
I169
tp338
a(S'w'
I1
tp339
a(S'p1_ll'
I4
tp340
a(S'w'
I3
tp341
a(S'p1_vo'
I13
tp342
a(S'w'
I22
tp343
a(S'tr_tl'
I171
tp344
a(S'tr_ll'
I1
tp345
a(S'w'
I696
tp346
a(S'p1_vo'
I11
tp347
a(S'w'
I733
tp348
a(S'p1_vo'
I9
tp349
a(S'w'
I734
tp350
a(S'p1_vo'
I7
tp351
a(S'w'
I1473
tp352
a(S'w'
I733
tp353
a(S'w'
I734
tp354
a(S'p2_tl'
I42
tp355
a(S'w'
I734
tp356
a(S'w'
I734
tp357
a(S'w'
I734
tp358
a(S'w'
I733
tp359
a(S'p2_tl'
I46
tp360
a(S'w'
I734
tp361
a(S'w'
I8
tp362
a(S'tr_tl'
I29
tp363
a(S'tr_ll'
I1
tp364
a(S'w'
I726
tp365
a(S'w'
I734
tp366
a(S'w'
I734
tp367
a(S'p2_tl'
I42
tp368
a(S'w'
I733
tp369
a(S'w'
I730
tp370
a(S'w'
I5
tp371
a(S'w'
I729
tp372
a(S'w'
I5
tp373
a(S'w'
I729
tp374
a(S'p1_tl'
I165
tp375
a(S'w'
I4
tp376
a(S'p2_tl'
I46
tp377
a(S'w'
I730
tp378
a(S'w'
I4
tp379
a(S'w'
I730
tp380
a(S'w'
I4
tp381
a(S'w'
I729
tp382
a(S'w'
I5
tp383
a(S'w'
I729
tp384
a(S'p1_tl'
I169
tp385
a(S'w'
I5
tp386
a(S'p2_tl'
I42
tp387
a(S'w'
I732
tp388
a(S'p1_tl'
I226
tp389
a(S'w'
I1
tp390
a(S'p1_ll'
I4
tp391
a(S'w'
I4
tp392
a(S'p1_vo'
I13
tp393
a(S'w'
I12
tp394
a(S'p2_tl'
I58
tp395
a(S'w'
I1
tp396
a(S'p2_ll'
I23
tp397
a(S'p2_th'
I2
tp398
a(S'w'
I4
tp399
a(S'p2_vo'
I13
tp400
a(S'w'
I12
tp401
a(S'tr_tl'
I169
tp402
a(S'tr_ll'
I1
tp403
a(S'tr_th'
I0
tp404
a(S'w'
I1
tp405
a(S'tr_lr'
I71
tp406
a(S'w'
I695
tp407
a(S'p1_vo'
I11
tp408
a(S'w'
I4
tp409
a(S'p2_vo'
I11
tp410
a(S'w'
I730
tp411
a(S'p1_vo'
I9
tp412
a(S'w'
I4
tp413
a(S'p2_vo'
I9
tp414
a(S'w'
I729
tp415
a(S'p1_vo'
I7
tp416
a(S'w'
I5
tp417
a(S'p2_vo'
I7
tp418
a(S'w'
I6608
tp419
a(S'p2_tl'
I171
tp420
a(S'p2_ll'
I23
tp421
a(S'p2_th'
I1
tp422
a(S'w'
I4
tp423
a(S'p2_vo'
I13
tp424
a(S'w'
I725
tp425
a(S'p2_vo'
I11
tp426
a(S'w'
I734
tp427
a(S'p2_vo'
I9
tp428
a(S'w'
I734
tp429
a(S'p2_vo'
I7
tp430
a(S'w'
I1465
tp431
a(S'w'
I733
tp432
a(S'w'
I734
tp433
a(S'p1_tl'
I222
tp434
a(S'w'
I734
tp435
a(S'w'
I734
tp436
a(S'w'
I734
tp437
a(S'w'
I733
tp438
a(S'p1_tl'
I226
tp439
a(S'w'
I738
tp440
a(S'p1_tl'
I169
tp441
a(S'w'
I1
tp442
a(S'p1_ll'
I4
tp443
a(S'w'
I3
tp444
a(S'p1_vo'
I13
tp445
a(S'w'
I16
tp446
a(S'p2_tl'
I83
tp447
a(S'w'
I1
tp448
a(S'p2_ll'
I4
tp449
a(S'w'
I4
tp450
a(S'p2_vo'
I13
tp451
a(S'w'
I9
tp452
a(S'tr_tl'
I213
tp453
a(S'tr_ll'
I1
tp454
a(S'w'
I695
tp455
a(S'p1_vo'
I11
tp456
a(S'w'
I4
tp457
a(S'p2_vo'
I11
tp458
a(S'w'
I730
tp459
a(S'p1_vo'
I9
tp460
a(S'w'
I4
tp461
a(S'p2_vo'
I9
tp462
a(S'w'
I730
tp463
a(S'p1_vo'
I7
tp464
a(S'w'
I4
tp465
a(S'p2_vo'
I7
tp466
a(S'w'
I10270
tp467
a(S'w'
I4
tp468
a(S'w'
I730
tp469
a(S'w'
I4
tp470
a(S'w'
I729
tp471
a(S'p1_tl'
I165
tp472
a(S'w'
I5
tp473
a(S'p2_tl'
I79
tp474
a(S'w'
I729
tp475
a(S'w'
I5
tp476
a(S'w'
I729
tp477
a(S'w'
I5
tp478
a(S'w'
I729
tp479
a(S'w'
I4
tp480
a(S'w'
I730
tp481
a(S'p1_tl'
I169
tp482
a(S'w'
I4
tp483
a(S'p2_tl'
I83
tp484
a(S'w'
I738
tp485
a(S'p1_tl'
I190
tp486
a(S'w'
I1
tp487
a(S'p1_ll'
I23
tp488
a(S'w'
I4
tp489
a(S'p1_vo'
I13
tp490
a(S'w'
I13
tp491
a(S'w'
I10
tp492
a(S'tr_tl'
I196
tp493
a(S'w'
I1
tp494
a(S'tr_ll'
I1
tp495
a(S'tr_th'
I1
tp496
a(S'tr_lr'
I39
tp497
a(S'w'
I695
tp498
a(S'p1_vo'
I11
tp499
a(S'w'
I6
tp500
a(S'w'
I728
tp501
a(S'p1_vo'
I9
tp502
a(S'w'
I5
tp503
a(S'w'
I729
tp504
a(S'p1_vo'
I7
tp505
a(S'w'
I5
tp506
a(S'p2_tl'
I79
tp507
a(S'w'
I734
tp508
a(S'w'
I733
tp509
a(S'w'
I734
tp510
a(S'w'
I734
tp511
a(S'p2_tl'
I83
tp512
a(S'w'
I734
tp513
a(S'w'
I734
tp514
a(S'w'
I733
tp515
a(S'w'
I734
tp516
a(S'p2_tl'
I79
tp517
a(S'w'
I739
tp518
a(S'p1_tl'
I254
tp519
a(S'w'
I1
tp520
a(S'p1_ll'
I22
tp521
a(S'w'
I3
tp522
a(S'p1_vo'
I13
tp523
a(S'w'
I5
tp524
a(S'w'
I8
tp525
a(S'tr_tl'
I46
tp526
a(S'w'
I1
tp527
a(S'tr_ll'
I1
tp528
a(S'w'
I706
tp529
a(S'p1_vo'
I11
tp530
a(S'w'
I5
tp531
a(S'w'
I729
tp532
a(S'p1_vo'
I9
tp533
a(S'w'
I5
tp534
a(S'w'
I729
tp535
a(S'p1_vo'
I7
tp536
a(S'w'
I5
tp537
a(S'p2_tl'
I83
tp538
a(S'w'
I733
tp539
a(S'w'
I734
tp540
a(S'w'
I734
tp541
a(S'w'
I734
tp542
a(S'p2_tl'
I79
tp543
a(S'w'
I733
tp544
a(S'w'
I734
tp545
a(S'w'
I734
tp546
a(S'w'
I734
tp547
a(S'p2_tl'
I83
tp548
a(S'w'
I734
tp549
a(S'w'
I8
tp550
a(S'tr_tl'
I151
tp551
a(S'tr_ll'
I1
tp552
a(S'tr_th'
I0
tp553
a(S'w'
I725
tp554
a(S'w'
I734
tp555
a(S'w'
I734
tp556
a(S'p2_tl'
I79
tp557
a(S'w'
I734
tp558
a(S'w'
I730
tp559
a(S'w'
I4
tp560
a(S'w'
I730
tp561
a(S'w'
I4
tp562
a(S'w'
I729
tp563
a(S'p1_tl'
I250
tp564
a(S'w'
I5
tp565
a(S'p2_tl'
I83
tp566
a(S'w'
I729
tp567
a(S'w'
I5
tp568
a(S'w'
I729
tp569
a(S'w'
I4
tp570
a(S'w'
I730
tp571
a(S'w'
I4
tp572
a(S'w'
I730
tp573
a(S'p1_tl'
I254
tp574
a(S'w'
I4
tp575
a(S'p2_tl'
I79
tp576
a(S'w'
I729
tp577
a(S'w'
I13
tp578
a(S'p2_tl'
I64
tp579
a(S'p2_ll'
I7
tp580
a(S'w'
I4
tp581
a(S'p2_vo'
I13
tp582
a(S'w'
I12
tp583
a(S'tr_tl'
I190
tp584
a(S'w'
I1
tp585
a(S'tr_ll'
I1
tp586
a(S'tr_lr'
I71
tp587
a(S'w'
I704
tp588
a(S'w'
I4
tp589
a(S'p2_vo'
I11
tp590
a(S'w'
I730
tp591
a(S'w'
I3
tp592
a(S'p2_vo'
I9
tp593
a(S'w'
I731
tp594
a(S'p1_tl'
I250
tp595
a(S'w'
I12
tp596
a(S'p2_tl'
I46
tp597
a(S'w'
I1
tp598
a(S'p2_ll'
I17
tp599
a(S'w'
I4
tp600
a(S'p2_vo'
I13
tp601
a(S'w'
I717
tp602
a(S'w'
I3
tp603
a(S'p2_vo'
I11
tp604
a(S'w'
I730
tp605
a(S'w'
I4
tp606
a(S'p2_vo'
I9
tp607
a(S'w'
I730
tp608
a(S'w'
I4
tp609
a(S'p2_vo'
I7
tp610
a(S'w'
I730
tp611
a(S'p1_tl'
I254
tp612
a(S'w'
I734
tp613
a(S'w'
I734
tp614
a(S'w'
I733
tp615
a(S'w'
I734
tp616
a(S'p1_tl'
I250
tp617
a(S'w'
I734
tp618
a(S'w'
I13
tp619
a(S'p2_tl'
I83
tp620
a(S'p2_ll'
I23
tp621
a(S'w'
I4
tp622
a(S'p2_vo'
I13
tp623
a(S'w'
I717
tp624
a(S'w'
I3
tp625
a(S'p2_vo'
I11
tp626
a(S'w'
I731
tp627
a(S'w'
I3
tp628
a(S'p2_vo'
I9
tp629
a(S'w'
I730
tp630
a(S'p1_tl'
I254
tp631
a(S'w'
I4
tp632
a(S'p2_vo'
I7
tp633
a(S'w'
I730
tp634
a(S'w'
I734
tp635
a(S'w'
I734
tp636
a(S'w'
I734
tp637
a(S'p1_tl'
I250
tp638
a(S'w'
I733
tp639
a(S'w'
I734
tp640
a(S'w'
I734
tp641
a(S'w'
I734
tp642
a(S'p1_tl'
I254
tp643
a(S'w'
I734
tp644
a(S'w'
I7
tp645
a(S'p2_tl'
I124
tp646
a(S'w'
I1
tp647
a(S'p2_ll'
I23
tp648
a(S'w'
I4
tp649
a(S'p2_vo'
I13
tp650
a(S'w'
I11
tp651
a(S'tr_tl'
I226
tp652
a(S'w'
I1
tp653
a(S'tr_ll'
I1
tp654
a(S'tr_lr'
I39
tp655
a(S'w'
I709
tp656
a(S'w'
I4
tp657
a(S'p2_vo'
I11
tp658
a(S'w'
I730
tp659
a(S'w'
I4
tp660
a(S'p2_vo'
I9
tp661
a(S'w'
I730
tp662
a(S'p1_tl'
I250
tp663
a(S'w'
I4
tp664
a(S'p2_vo'
I7
tp665
a(S'w'
I730
tp666
a(S'w'
I734
tp667
a(S'w'
I733
tp668
a(S'w'
I734
tp669
a(S'p1_tl'
I254
tp670
a(S'w'
I734
tp671
a(S'w'
I734
tp672
a(S'w'
I734
tp673
a(S'w'
I733
tp674
a(S'p1_tl'
I250
tp675
a(S'w'
I743
tp676
a(S'p1_tl'
I213
tp677
a(S'w'
I1
tp678
a(S'p1_ll'
I23
tp679
a(S'w'
I3
tp680
a(S'p1_vo'
I13
tp681
a(S'w'
I16
tp682
a(S'p2_tl'
I83
tp683
a(S'w'
I1
tp684
a(S'p2_ll'
I4
tp685
a(S'w'
I3
tp686
a(S'p2_vo'
I13
tp687
a(S'w'
I12
tp688
a(S'tr_tl'
I254
tp689
a(S'tr_ll'
I1
tp690
a(S'w'
I1
tp691
a(S'tr_lr'
I71
tp692
a(S'w'
I687
tp693
a(S'p1_vo'
I11
tp694
a(S'w'
I4
tp695
a(S'p2_vo'
I11
tp696
a(S'w'
I730
tp697
a(S'p1_vo'
I9
tp698
a(S'w'
I4
tp699
a(S'p2_vo'
I9
tp700
a(S'w'
I730
tp701
a(S'p1_vo'
I7
tp702
a(S'w'
I4
tp703
a(S'p2_vo'
I7
tp704
a(S'w'
I6604
tp705
a(S'p1_tl'
I226
tp706
a(S'w'
I1
tp707
a(S'p1_ll'
I23
tp708
a(S'w'
I3
tp709
a(S'p1_vo'
I13
tp710
a(S'w'
I726
tp711
a(S'p1_vo'
I11
tp712
a(S'w'
I734
tp713
a(S'p1_vo'
I9
tp714
a(S'w'
I733
tp715
a(S'p1_vo'
I7
tp716
a(S'w'
I1473
tp717
a(S'w'
I733
tp718
a(S'w'
I734
tp719
a(S'p2_tl'
I79
tp720
a(S'w'
I734
tp721
a(S'w'
I734
tp722
a(S'w'
I734
tp723
a(S'w'
I733
tp724
a(S'p2_tl'
I83
tp725
a(S'w'
I734
tp726
a(S'p1_tl'
I29
tp727
a(S'p1_ll'
I23
tp728
a(S'p1_th'
I1
tp729
a(S'w'
I4
tp730
a(S'p1_vo'
I13
tp731
a(S'w'
I14
tp732
a(S'p2_tl'
I171
tp733
a(S'w'
I1
tp734
a(S'p2_ll'
I6
tp735
a(S'w'
I4
tp736
a(S'p2_vo'
I13
tp737
a(S'w'
I12
tp738
a(S'tr_tl'
I127
tp739
a(S'tr_ll'
I1
tp740
a(S'w'
I1
tp741
a(S'tr_lr'
I103
tp742
a(S'w'
I693
tp743
a(S'p1_vo'
I11
tp744
a(S'w'
I4
tp745
a(S'p2_vo'
I11
tp746
a(S'w'
I730
tp747
a(S'p1_vo'
I9
tp748
a(S'w'
I4
tp749
a(S'p2_vo'
I9
tp750
a(S'w'
I730
tp751
a(S'p1_vo'
I7
tp752
a(S'w'
I4
tp753
a(S'p2_vo'
I7
tp754
a(S'w'
I6611
tp755
a(S'p1_tl'
I83
tp756
a(S'w'
I1
tp757
a(S'p1_ll'
I10
tp758
a(S'w'
I3
tp759
a(S'p1_vo'
I13
tp760
a(S'w'
I719
tp761
a(S'p1_vo'
I11
tp762
a(S'w'
I734
tp763
a(S'p1_vo'
I9
tp764
a(S'w'
I734
tp765
a(S'p1_vo'
I7
tp766
a(S'w'
I1472
tp767
a(S'w'
I734
tp768
a(S'w'
I734
tp769
a(S'p2_tl'
I167
tp770
a(S'w'
I733
tp771
a(S'w'
I734
tp772
a(S'w'
I734
tp773
a(S'w'
I734
tp774
a(S'p2_tl'
I171
tp775
a(S'w'
I734
tp776
a(S'w'
I733
tp777
a(S'w'
I734
tp778
a(S'w'
I734
tp779
a(S'p2_tl'
I167
tp780
a(S'w'
I734
tp781
a(S'w'
I730
tp782
a(S'w'
I4
tp783
a(S'w'
I730
tp784
a(S'w'
I4
tp785
a(S'w'
I729
tp786
a(S'p1_tl'
I79
tp787
a(S'w'
I5
tp788
a(S'p2_tl'
I171
tp789
a(S'w'
I729
tp790
a(S'w'
I5
tp791
a(S'w'
I729
tp792
a(S'w'
I4
tp793
a(S'w'
I730
tp794
a(S'w'
I4
tp795
a(S'w'
I729
tp796
a(S'p1_tl'
I83
tp797
a(S'w'
I5
tp798
a(S'p2_tl'
I167
tp799
a(S'w'
I729
tp800
a(S'w'
I5
tp801
a(S'w'
I11
tp802
a(S'tr_tl'
I169
tp803
a(S'w'
I1
tp804
a(S'tr_ll'
I1
tp805
a(S'tr_lr'
I39
tp806
a(S'w'
I717
tp807
a(S'w'
I5
tp808
a(S'w'
I729
tp809
a(S'w'
I4
tp810
a(S'w'
I730
tp811
a(S'p1_tl'
I79
tp812
a(S'w'
I4
tp813
a(S'p2_tl'
I171
tp814
a(S'w'
I730
tp815
a(S'w'
I4
tp816
a(S'w'
I729
tp817
a(S'w'
I5
tp818
a(S'w'
I729
tp819
a(S'w'
I5
tp820
a(S'w'
I729
tp821
a(S'p1_tl'
I83
tp822
a(S'w'
I4
tp823
a(S'p2_tl'
I167
tp824
a(S'w'
I730
tp825
a(S'w'
I4
tp826
a(S'w'
I730
tp827
a(S'w'
I4
tp828
a(S'w'
I729
tp829
a(S'w'
I5
tp830
a(S'w'
I729
tp831
a(S'p1_tl'
I79
tp832
a(S'w'
I5
tp833
a(S'p2_tl'
I171
tp834
a(S'w'
I738
tp835
a(S'p1_tl'
I213
tp836
a(S'p1_ll'
I23
tp837
a(S'p1_th'
I0
tp838
a(S'w'
I4
tp839
a(S'p1_vo'
I13
tp840
a(S'w'
I16
tp841
a(S'p2_tl'
I46
tp842
a(S'p2_ll'
I4
tp843
a(S'w'
I4
tp844
a(S'p2_vo'
I13
tp845
a(S'w'
I12
tp846
a(S'tr_tl'
I190
tp847
a(S'w'
I1
tp848
a(S'tr_ll'
I1
tp849
a(S'tr_lr'
I71
tp850
a(S'w'
I687
tp851
a(S'p1_vo'
I11
tp852
a(S'w'
I4
tp853
a(S'p2_vo'
I11
tp854
a(S'w'
I730
tp855
a(S'p1_vo'
I9
tp856
a(S'w'
I4
tp857
a(S'p2_vo'
I9
tp858
a(S'w'
I729
tp859
a(S'p1_vo'
I7
tp860
a(S'w'
I5
tp861
a(S'p2_vo'
I7
tp862
a(S'w'
I6604
tp863
a(S'p1_tl'
I226
tp864
a(S'p1_ll'
I23
tp865
a(S'w'
I4
tp866
a(S'p1_vo'
I13
tp867
a(S'w'
I725
tp868
a(S'p1_vo'
I11
tp869
a(S'w'
I734
tp870
a(S'p1_vo'
I9
tp871
a(S'w'
I734
tp872
a(S'p1_vo'
I7
tp873
a(S'w'
I1472
tp874
a(S'w'
I734
tp875
a(S'w'
I734
tp876
a(S'p2_tl'
I42
tp877
a(S'w'
I734
tp878
a(S'w'
I734
tp879
a(S'w'
I733
tp880
a(S'w'
I734
tp881
a(S'p2_tl'
I46
tp882
a(S'w'
I733
tp883
a(S'p1_tl'
I29
tp884
a(S'w'
I1
tp885
a(S'p1_ll'
I23
tp886
a(S'p1_th'
I1
tp887
a(S'w'
I4
tp888
a(S'p1_vo'
I13
tp889
a(S'w'
I14
tp890
a(S'p2_tl'
I171
tp891
a(S'w'
I1
tp892
a(S'p2_ll'
I6
tp893
a(S'w'
I4
tp894
a(S'p2_vo'
I13
tp895
a(S'w'
I11
tp896
a(S'tr_tl'
I124
tp897
a(S'tr_ll'
I1
tp898
a(S'tr_th'
I1
tp899
a(S'w'
I1
tp900
a(S'tr_lr'
I103
tp901
a(S'w'
I694
tp902
a(S'p1_vo'
I11
tp903
a(S'w'
I4
tp904
a(S'p2_vo'
I11
tp905
a(S'w'
I730
tp906
a(S'p1_vo'
I9
tp907
a(S'w'
I4
tp908
a(S'p2_vo'
I9
tp909
a(S'w'
I730
tp910
a(S'p1_vo'
I7
tp911
a(S'w'
I4
tp912
a(S'p2_vo'
I7
tp913
a(S'w'
I6611
tp914
a(S'p1_tl'
I103
tp915
a(S'p1_ll'
I10
tp916
a(S'w'
I4
tp917
a(S'p1_vo'
I13
tp918
a(S'w'
I719
tp919
a(S'p1_vo'
I11
tp920
a(S'w'
I733
tp921
a(S'p1_vo'
I9
tp922
a(S'w'
I734
tp923
a(S'p1_vo'
I7
tp924
a(S'w'
I1473
tp925
a(S'w'
I733
tp926
a(S'w'
I734
tp927
a(S'p2_tl'
I167
tp928
a(S'w'
I734
tp929
a(S'w'
I734
tp930
a(S'w'
I734
tp931
a(S'w'
I733
tp932
a(S'p2_tl'
I171
tp933
a(S'w'
I734
tp934
a(S'w'
I734
tp935
a(S'w'
I734
tp936
a(S'w'
I734
tp937
a(S'p2_tl'
I167
tp938
a(S'w'
I733
tp939
a(S'w'
I730
tp940
a(S'w'
I5
tp941
a(S'w'
I729
tp942
a(S'w'
I5
tp943
a(S'w'
I729
tp944
a(S'p1_tl'
I99
tp945
a(S'w'
I4
tp946
a(S'p2_tl'
I171
tp947
a(S'w'
I730
tp948
a(S'w'
I4
tp949
a(S'w'
I730
tp950
a(S'w'
I4
tp951
a(S'w'
I729
tp952
a(S'w'
I5
tp953
a(S'w'
I729
tp954
a(S'p1_tl'
I103
tp955
a(S'w'
I5
tp956
a(S'p2_tl'
I167
tp957
a(S'w'
I729
tp958
a(S'w'
I4
tp959
a(S'w'
I11
tp960
a(S'tr_tl'
I254
tp961
a(S'w'
I1
tp962
a(S'tr_ll'
I1
tp963
a(S'tr_th'
I0
tp964
a(S'tr_lr'
I39
tp965
a(S'w'
I718
tp966
a(S'w'
I4
tp967
a(S'w'
I730
tp968
a(S'w'
I4
tp969
a(S'w'
I729
tp970
a(S'p1_tl'
I99
tp971
a(S'w'
I5
tp972
a(S'p2_tl'
I171
tp973
a(S'w'
I729
tp974
a(S'w'
I5
tp975
a(S'w'
I729
tp976
a(S'w'
I4
tp977
a(S'w'
I730
tp978
a(S'w'
I4
tp979
a(S'w'
I730
tp980
a(S'p1_tl'
I103
tp981
a(S'w'
I4
tp982
a(S'p2_tl'
I167
tp983
a(S'w'
I729
tp984
a(S'w'
I5
tp985
a(S'w'
I729
tp986
a(S'w'
I5
tp987
a(S'w'
I729
tp988
a(S'w'
I4
tp989
a(S'w'
I730
tp990
a(S'p1_tl'
I99
tp991
a(S'w'
I4
tp992
a(S'p2_tl'
I171
tp993
a(S'w'
I739
tp994
a(S'p1_tl'
I46
tp995
a(S'p1_ll'
I6
tp996
a(S'w'
I4
tp997
a(S'p1_vo'
I13
tp998
a(S'w'
I9
tp999
a(S'p2_tl'
I124
tp1000
a(S'p2_ll'
I6
tp1001
a(S'w'
I4
tp1002
a(S'p2_vo'
I13
tp1003
a(S'w'
I11
tp1004
a(S'tr_tl'
I29
tp1005
a(S'w'
I1
tp1006
a(S'tr_ll'
I1
tp1007
a(S'tr_th'
I1
tp1008
a(S'tr_lr'
I71
tp1009
a(S'w'
I695
tp1010
a(S'p1_vo'
I11
tp1011
a(S'w'
I4
tp1012
a(S'p2_vo'
I11
tp1013
a(S'w'
I729
tp1014
a(S'p1_vo'
I9
tp1015
a(S'w'
I4
tp1016
a(S'p2_vo'
I9
tp1017
a(S'w'
I730
tp1018
a(S'p1_vo'
I7
tp1019
a(S'w'
I4
tp1020
a(S'p2_vo'
I7
tp1021
a(S'w'
I10270
tp1022
a(S'w'
I5
tp1023
a(S'w'
I729
tp1024
a(S'w'
I4
tp1025
a(S'w'
I730
tp1026
a(S'p1_tl'
I42
tp1027
a(S'w'
I4
tp1028
a(S'p2_tl'
I120
tp1029
a(S'w'
I730
tp1030
a(S'w'
I4
tp1031
a(S'w'
I729
tp1032
a(S'w'
I5
tp1033
a(S'w'
I729
tp1034
a(S'w'
I5
tp1035
a(S'w'
I729
tp1036
a(S'p1_tl'
I46
tp1037
a(S'w'
I5
tp1038
a(S'p2_tl'
I124
tp1039
a(S'w'
I729
tp1040
a(S'w'
I4
tp1041
a(S'w'
I9
tp1042
a(S'tr_tl'
I113
tp1043
a(S'tr_ll'
I1
tp1044
a(S'tr_th'
I0
tp1045
a(S'w'
I721
tp1046
a(S'w'
I4
tp1047
a(S'w'
I729
tp1048
a(S'w'
I5
tp1049
a(S'w'
I729
tp1050
a(S'p1_tl'
I42
tp1051
a(S'w'
I5
tp1052
a(S'p2_tl'
I120
tp1053
a(S'w'
I729
tp1054
a(S'w'
I5
tp1055
a(S'w'
I729
tp1056
a(S'w'
I4
tp1057
a(S'w'
I730
tp1058
a(S'w'
I4
tp1059
a(S'w'
I729
tp1060
a(S'p1_tl'
I46
tp1061
a(S'w'
I5
tp1062
a(S'p2_tl'
I124
tp1063
a(S'w'
I729
tp1064
a(S'w'
I5
tp1065
a(S'w'
I729
tp1066
a(S'w'
I4
tp1067
a(S'w'
I730
tp1068
a(S'w'
I4
tp1069
a(S'w'
I730
tp1070
a(S'p1_tl'
I42
tp1071
a(S'w'
I4
tp1072
a(S'p2_tl'
I120
tp1073
a(S'w'
I730
tp1074
a(S'w'
I4
tp1075
a(S'w'
I729
tp1076
a(S'w'
I5
tp1077
a(S'w'
I729
tp1078
a(S'w'
I4
tp1079
a(S'w'
I730
tp1080
a(S'p1_tl'
I46
tp1081
a(S'w'
I4
tp1082
a(S'p2_tl'
I124
tp1083
a(S'w'
I730
tp1084
a(S'w'
I4
tp1085
a(S'w'
I729
tp1086
a(S'w'
I5
tp1087
a(S'w'
I729
tp1088
a(S'w'
I5
tp1089
a(S'w'
I729
tp1090
a(S'p1_tl'
I42
tp1091
a(S'w'
I5
tp1092
a(S'p2_tl'
I120
tp1093
a(S'w'
I729
tp1094
a(S'w'
I4
tp1095
a(S'w'
I730
tp1096
a(S'w'
I4
tp1097
a(S'w'
I730
tp1098
a(S'w'
I4
tp1099
a(S'w'
I729
tp1100
a(S'p1_tl'
I46
tp1101
a(S'w'
I5
tp1102
a(S'p2_tl'
I124
tp1103
a(S'w'
I737
tp1104
a(S'p1_tl'
I29
tp1105
a(S'w'
I1
tp1106
a(S'p1_ll'
I23
tp1107
a(S'w'
I4
tp1108
a(S'p1_vo'
I13
tp1109
a(S'w'
I15
tp1110
a(S'p2_tl'
I196
tp1111
a(S'p2_ll'
I4
tp1112
a(S'w'
I4
tp1113
a(S'p2_vo'
I13
tp1114
a(S'w'
I9
tp1115
a(S'tr_tl'
I151
tp1116
a(S'tr_ll'
I1
tp1117
a(S'w'
I692
tp1118
a(S'p1_vo'
I11
tp1119
a(S'w'
I4
tp1120
a(S'p2_vo'
I11
tp1121
a(S'w'
I730
tp1122
a(S'p1_vo'
I9
tp1123
a(S'w'
I4
tp1124
a(S'p2_vo'
I9
tp1125
a(S'w'
I730
tp1126
a(S'p1_vo'
I7
tp1127
a(S'w'
I4
tp1128
a(S'p2_vo'
I7
tp1129
a(S'w'
I6604
tp1130
a(S'p1_tl'
I254
tp1131
a(S'w'
I1
tp1132
a(S'p1_ll'
I23
tp1133
a(S'p1_th'
I0
tp1134
a(S'w'
I3
tp1135
a(S'p1_vo'
I13
tp1136
a(S'w'
I726
tp1137
a(S'p1_vo'
I11
tp1138
a(S'w'
I733
tp1139
a(S'p1_vo'
I9
tp1140
a(S'w'
I734
tp1141
a(S'p1_vo'
I7
tp1142
a(S'w'
I1473
tp1143
a(S'w'
I733
tp1144
a(S'w'
I734
tp1145
a(S'p2_tl'
I192
tp1146
a(S'w'
I734
tp1147
a(S'w'
I734
tp1148
a(S'w'
I734
tp1149
a(S'w'
I733
tp1150
a(S'p2_tl'
I196
tp1151
a(S'w'
I734
tp1152
a(S'p1_tl'
I226
tp1153
a(S'p1_ll'
I23
tp1154
a(S'w'
I4
tp1155
a(S'p1_vo'
I13
tp1156
a(S'w'
I13
tp1157
a(S'p2_tl'
I64
tp1158
a(S'w'
I1
tp1159
a(S'p2_ll'
I23
tp1160
a(S'w'
I4
tp1161
a(S'p2_vo'
I13
tp1162
a(S'w'
I9
tp1163
a(S'tr_tl'
I169
tp1164
a(S'tr_ll'
I1
tp1165
a(S'w'
I698
tp1166
a(S'p1_vo'
I11
tp1167
a(S'w'
I4
tp1168
a(S'p2_vo'
I11
tp1169
a(S'w'
I730
tp1170
a(S'p1_vo'
I9
tp1171
a(S'w'
I4
tp1172
a(S'p2_vo'
I9
tp1173
a(S'w'
I730
tp1174
a(S'p1_vo'
I7
tp1175
a(S'w'
I4
tp1176
a(S'p2_vo'
I7
tp1177
a(S'w'
I6605
tp1178
a(S'p1_tl'
I169
tp1179
a(S'p1_ll'
I23
tp1180
a(S'w'
I4
tp1181
a(S'p1_vo'
I13
tp1182
a(S'w'
I9
tp1183
a(S'p2_tl'
I13
tp1184
a(S'p2_ll'
I23
tp1185
a(S'w'
I4
tp1186
a(S'p2_vo'
I13
tp1187
a(S'w'
I712
tp1188
a(S'p1_vo'
I11
tp1189
a(S'w'
I4
tp1190
a(S'p2_vo'
I11
tp1191
a(S'w'
I730
tp1192
a(S'p1_vo'
I9
tp1193
a(S'w'
I4
tp1194
a(S'p2_vo'
I9
tp1195
a(S'w'
I730
tp1196
a(S'p1_vo'
I7
tp1197
a(S'w'
I4
tp1198
a(S'p2_vo'
I7
tp1199
a(S'w'
I6611
tp1200
a(S'p1_tl'
I190
tp1201
a(S'p1_ll'
I6
tp1202
a(S'w'
I4
tp1203
a(S'p1_vo'
I13
tp1204
a(S'w'
I13
tp1205
a(S'p2_tl'
I226
tp1206
a(S'w'
I1
tp1207
a(S'p2_ll'
I7
tp1208
a(S'p2_th'
I0
tp1209
a(S'w'
I4
tp1210
a(S'p2_vo'
I13
tp1211
a(S'w'
I8
tp1212
a(S'tr_tl'
I226
tp1213
a(S'tr_ll'
I1
tp1214
a(S'w'
I693
tp1215
a(S'p1_vo'
I11
tp1216
a(S'w'
I4
tp1217
a(S'p2_vo'
I11
tp1218
a(S'w'
I729
tp1219
a(S'p1_vo'
I9
tp1220
a(S'w'
I4
tp1221
a(S'p2_vo'
I9
tp1222
a(S'w'
I730
tp1223
a(S'p1_vo'
I7
tp1224
a(S'w'
I13
tp1225
a(S'p2_tl'
I254
tp1226
a(S'w'
I1
tp1227
a(S'p2_ll'
I17
tp1228
a(S'w'
I4
tp1229
a(S'p2_vo'
I13
tp1230
a(S'w'
I720
tp1231
a(S'p2_vo'
I11
tp1232
a(S'w'
I733
tp1233
a(S'p2_vo'
I9
tp1234
a(S'w'
I734
tp1235
a(S'p2_vo'
I7
tp1236
a(S'w'
I4412
tp1237
a(S'p2_tl'
I13
tp1238
a(S'w'
I1
tp1239
a(S'p2_ll'
I23
tp1240
a(S'p2_th'
I1
tp1241
a(S'w'
I4
tp1242
a(S'p2_vo'
I13
tp1243
a(S'w'
I720
tp1244
a(S'p2_vo'
I11
tp1245
a(S'w'
I734
tp1246
a(S'p2_vo'
I9
tp1247
a(S'w'
I734
tp1248
a(S'p2_vo'
I7
tp1249
a(S'w'
I1464
tp1250
a(S'w'
I734
tp1251
a(S'w'
I734
tp1252
a(S'p1_tl'
I186
tp1253
a(S'w'
I734
tp1254
a(S'w'
I733
tp1255
a(S'w'
I734
tp1256
a(S'w'
I734
tp1257
a(S'p1_tl'
I190
tp1258
a(S'w'
I734
tp1259
a(S'w'
I8
tp1260
a(S'p2_tl'
I83
tp1261
a(S'p2_ll'
I23
tp1262
a(S'w'
I4
tp1263
a(S'p2_vo'
I13
tp1264
a(S'w'
I11
tp1265
a(S'tr_tl'
I83
tp1266
a(S'w'
I1
tp1267
a(S'tr_ll'
I1
tp1268
a(S'tr_th'
I1
tp1269
a(S'tr_lr'
I39
tp1270
a(S'w'
I710
tp1271
a(S'w'
I3
tp1272
a(S'p2_vo'
I11
tp1273
a(S'w'
I730
tp1274
a(S'w'
I4
tp1275
a(S'p2_vo'
I9
tp1276
a(S'w'
I730
tp1277
a(S'p1_tl'
I186
tp1278
a(S'w'
I4
tp1279
a(S'p2_vo'
I7
tp1280
a(S'w'
I730
tp1281
a(S'w'
I734
tp1282
a(S'w'
I734
tp1283
a(S'w'
I733
tp1284
a(S'p1_tl'
I190
tp1285
a(S'w'
I734
tp1286
a(S'w'
I734
tp1287
a(S'w'
I734
tp1288
a(S'w'
I734
tp1289
a(S'p1_tl'
I186
tp1290
a(S'w'
I733
tp1291
a(S'w'
I8
tp1292
a(S'p2_tl'
I196
tp1293
a(S'p2_ll'
I23
tp1294
a(S'w'
I4
tp1295
a(S'p2_vo'
I13
tp1296
a(S'w'
I8
tp1297
a(S'tr_tl'
I124
tp1298
a(S'w'
I1
tp1299
a(S'tr_ll'
I1
tp1300
a(S'w'
I713
tp1301
a(S'w'
I4
tp1302
a(S'p2_vo'
I11
tp1303
a(S'w'
I730
tp1304
a(S'w'
I4
tp1305
a(S'p2_vo'
I9
tp1306
a(S'w'
I730
tp1307
a(S'p1_tl'
I190
tp1308
a(S'w'
I3
tp1309
a(S'p2_vo'
I7
tp1310
a(S'w'
I731
tp1311
a(S'w'
I733
tp1312
a(S'w'
I734
tp1313
a(S'w'
I734
tp1314
a(S'p1_tl'
I186
tp1315
a(S'w'
I734
tp1316
a(S'w'
I734
tp1317
a(S'w'
I733
tp1318
a(S'w'
I734
tp1319
a(S'p1_tl'
I190
tp1320
a(S'w'
I745
tp1321
a(S'p1_tl'
I169
tp1322
a(S'p1_ll'
I10
tp1323
a(S'w'
I4
tp1324
a(S'p1_vo'
I13
tp1325
a(S'w'
I16
tp1326
a(S'p2_tl'
I226
tp1327
a(S'p2_ll'
I4
tp1328
a(S'p2_th'
I0
tp1329
a(S'w'
I4
tp1330
a(S'p2_vo'
I13
tp1331
a(S'w'
I8
tp1332
a(S'tr_tl'
I171
tp1333
a(S'w'
I1
tp1334
a(S'tr_ll'
I1
tp1335
a(S'w'
I689
tp1336
a(S'p1_vo'
I11
tp1337
a(S'w'
I4
tp1338
a(S'p2_vo'
I11
tp1339
a(S'w'
I730
tp1340
a(S'p1_vo'
I9
tp1341
a(S'w'
I4
tp1342
a(S'p2_vo'
I9
tp1343
a(S'w'
I729
tp1344
a(S'p1_vo'
I7
tp1345
a(S'w'
I5
tp1346
a(S'p2_vo'
I7
tp1347
a(S'w'
I6612
tp1348
a(S'tr_tl'
I29
tp1349
a(S'tr_ll'
I1
tp1350
a(S'w'
I3658
tp1351
a(S'w'
I4
tp1352
a(S'w'
I729
tp1353
a(S'w'
I5
tp1354
a(S'w'
I729
tp1355
a(S'p1_tl'
I165
tp1356
a(S'w'
I5
tp1357
a(S'p2_tl'
I222
tp1358
a(S'w'
I729
tp1359
a(S'w'
I4
tp1360
a(S'w'
I730
tp1361
a(S'w'
I4
tp1362
a(S'w'
I730
tp1363
a(S'w'
I4
tp1364
a(S'w'
I729
tp1365
a(S'p1_tl'
I169
tp1366
a(S'w'
I5
tp1367
a(S'p2_tl'
I226
tp1368
a(S'w'
I729
tp1369
a(S'w'
I8
tp1370
a(S'p2_tl'
I171
tp1371
a(S'w'
I1
tp1372
a(S'p2_ll'
I4
tp1373
a(S'p2_th'
I1
tp1374
a(S'w'
I4
tp1375
a(S'p2_vo'
I13
tp1376
a(S'w'
I11
tp1377
a(S'tr_tl'
I169
tp1378
a(S'w'
I1
tp1379
a(S'tr_ll'
I1
tp1380
a(S'tr_th'
I0
tp1381
a(S'tr_lr'
I71
tp1382
a(S'w'
I709
tp1383
a(S'w'
I4
tp1384
a(S'p2_vo'
I11
tp1385
a(S'w'
I730
tp1386
a(S'w'
I3
tp1387
a(S'p2_vo'
I9
tp1388
a(S'w'
I731
tp1389
a(S'p1_tl'
I165
tp1390
a(S'w'
I3
tp1391
a(S'p2_vo'
I7
tp1392
a(S'w'
I730
tp1393
a(S'w'
I734
tp1394
a(S'w'
I734
tp1395
a(S'w'
I734
tp1396
a(S'p1_tl'
I169
tp1397
a(S'w'
I734
tp1398
a(S'w'
I734
tp1399
a(S'w'
I733
tp1400
a(S'w'
I734
tp1401
a(S'p1_tl'
I165
tp1402
a(S'w'
I742
tp1403
a(S'p1_tl'
I254
tp1404
a(S'w'
I1
tp1405
a(S'p1_ll'
I7
tp1406
a(S'w'
I3
tp1407
a(S'p1_vo'
I13
tp1408
a(S'w'
I721
tp1409
a(S'p1_vo'
I11
tp1410
a(S'w'
I734
tp1411
a(S'p1_vo'
I9
tp1412
a(S'w'
I742
tp1413
a(S'p1_tl'
I226
tp1414
a(S'w'
I1
tp1415
a(S'p1_ll'
I17
tp1416
a(S'w'
I4
tp1417
a(S'p1_vo'
I13
tp1418
a(S'w'
I720
tp1419
a(S'p1_vo'
I11
tp1420
a(S'w'
I734
tp1421
a(S'p1_vo'
I9
tp1422
a(S'w'
I5
tp1423
a(S'w'
I729
tp1424
a(S'p1_vo'
I7
tp1425
a(S'w'
I5
tp1426
a(S'w'
I733
tp1427
a(S'p2_tl'
I167
tp1428
a(S'w'
I734
tp1429
a(S'w'
I734
tp1430
a(S'w'
I734
tp1431
a(S'w'
I734
tp1432
a(S'p2_tl'
I171
tp1433
a(S'w'
I738
tp1434
a(S'p1_tl'
I254
tp1435
a(S'p1_ll'
I23
tp1436
a(S'w'
I4
tp1437
a(S'p1_vo'
I13
tp1438
a(S'w'
I13
tp1439
a(S'p2_tl'
I83
tp1440
a(S'w'
I1
tp1441
a(S'p2_ll'
I23
tp1442
a(S'w'
I4
tp1443
a(S'p2_vo'
I13
tp1444
a(S'w'
I9
tp1445
a(S'tr_tl'
I213
tp1446
a(S'tr_ll'
I1
tp1447
a(S'w'
I693
tp1448
a(S'p1_vo'
I11
tp1449
a(S'w'
I5
tp1450
a(S'p2_vo'
I11
tp1451
a(S'w'
I729
tp1452
a(S'p1_vo'
I9
tp1453
a(S'w'
I4
tp1454
a(S'p2_vo'
I9
tp1455
a(S'w'
I730
tp1456
a(S'p1_vo'
I7
tp1457
a(S'w'
I4
tp1458
a(S'p2_vo'
I7
tp1459
a(S'w'
I6604
tp1460
a(S'p1_tl'
I29
tp1461
a(S'w'
I1
tp1462
a(S'p1_ll'
I23
tp1463
a(S'p1_th'
I1
tp1464
a(S'w'
I4
tp1465
a(S'p1_vo'
I13
tp1466
a(S'w'
I8
tp1467
a(S'p2_tl'
I171
tp1468
a(S'w'
I1
tp1469
a(S'p2_ll'
I23
tp1470
a(S'w'
I4
tp1471
a(S'p2_vo'
I13
tp1472
a(S'w'
I712
tp1473
a(S'p1_vo'
I11
tp1474
a(S'w'
I4
tp1475
a(S'p2_vo'
I11
tp1476
a(S'w'
I730
tp1477
a(S'p1_vo'
I9
tp1478
a(S'w'
I4
tp1479
a(S'p2_vo'
I9
tp1480
a(S'w'
I730
tp1481
a(S'p1_vo'
I7
tp1482
a(S'w'
I4
tp1483
a(S'p2_vo'
I7
tp1484
a(S'w'
I6604
tp1485
a(S'p1_tl'
I254
tp1486
a(S'w'
I1
tp1487
a(S'p1_ll'
I23
tp1488
a(S'p1_th'
I0
tp1489
a(S'w'
I3
tp1490
a(S'p1_vo'
I13
tp1491
a(S'w'
I16
tp1492
a(S'p2_tl'
I46
tp1493
a(S'w'
I1
tp1494
a(S'p2_ll'
I4
tp1495
a(S'w'
I4
tp1496
a(S'p2_vo'
I13
tp1497
a(S'w'
I11
tp1498
a(S'tr_tl'
I171
tp1499
a(S'tr_ll'
I1
tp1500
a(S'tr_th'
I1
tp1501
a(S'w'
I1
tp1502
a(S'tr_lr'
I39
tp1503
a(S'w'
I693
tp1504
a(S'p1_vo'
I11
tp1505
a(S'w'
I4
tp1506
a(S'p2_vo'
I11
tp1507
a(S'w'
I729
tp1508
a(S'p1_vo'
I9
tp1509
a(S'w'
I5
tp1510
a(S'p2_vo'
I9
tp1511
a(S'w'
I729
tp1512
a(S'p1_vo'
I7
tp1513
a(S'w'
I4
tp1514
a(S'p2_vo'
I7
tp1515
a(S'w'
I6605
tp1516
a(S'p1_tl'
I190
tp1517
a(S'w'
I1
tp1518
a(S'p1_ll'
I23
tp1519
a(S'w'
I4
tp1520
a(S'p1_vo'
I13
tp1521
a(S'w'
I12
tp1522
a(S'tr_tl'
I213
tp1523
a(S'w'
I1
tp1524
a(S'tr_ll'
I1
tp1525
a(S'tr_th'
I0
tp1526
a(S'w'
I711
tp1527
a(S'p1_vo'
I11
tp1528
a(S'w'
I734
tp1529
a(S'p1_vo'
I9
tp1530
a(S'w'
I734
tp1531
a(S'p1_vo'
I7
tp1532
a(S'w'
I1472
tp1533
a(S'w'
I734
tp1534
a(S'w'
I734
tp1535
a(S'p2_tl'
I42
tp1536
a(S'w'
I734
tp1537
a(S'w'
I733
tp1538
a(S'w'
I734
tp1539
a(S'w'
I734
tp1540
a(S'p2_tl'
I46
tp1541
a(S'w'
I740
tp1542
a(S'p1_tl'
I151
tp1543
a(S'p1_ll'
I6
tp1544
a(S'w'
I4
tp1545
a(S'p1_vo'
I13
tp1546
a(S'w'
I13
tp1547
a(S'p2_tl'
I171
tp1548
a(S'w'
I1
tp1549
a(S'p2_ll'
I23
tp1550
a(S'w'
I4
tp1551
a(S'p2_vo'
I13
tp1552
a(S'w'
I12
tp1553
a(S'tr_tl'
I127
tp1554
a(S'tr_ll'
I1
tp1555
a(S'w'
I1
tp1556
a(S'tr_lr'
I103
tp1557
a(S'w'
I688
tp1558
a(S'p1_vo'
I11
tp1559
a(S'w'
I4
tp1560
a(S'p2_vo'
I11
tp1561
a(S'w'
I730
tp1562
a(S'p1_vo'
I9
tp1563
a(S'w'
I4
tp1564
a(S'p2_vo'
I9
tp1565
a(S'w'
I730
tp1566
a(S'p1_vo'
I7
tp1567
a(S'w'
I4
tp1568
a(S'p2_vo'
I7
tp1569
a(S'w'
I6608
tp1570
a(S'p2_tl'
I46
tp1571
a(S'p2_ll'
I23
tp1572
a(S'w'
I4
tp1573
a(S'p2_vo'
I13
tp1574
a(S'w'
I725
tp1575
a(S'p2_vo'
I11
tp1576
a(S'w'
I734
tp1577
a(S'p2_vo'
I9
tp1578
a(S'w'
I734
tp1579
a(S'p2_vo'
I7
tp1580
a(S'w'
I1465
tp1581
a(S'w'
I733
tp1582
a(S'w'
I734
tp1583
a(S'p1_tl'
I147
tp1584
a(S'w'
I734
tp1585
a(S'w'
I734
tp1586
a(S'w'
I734
tp1587
a(S'w'
I733
tp1588
a(S'p1_tl'
I151
tp1589
a(S'w'
I734
tp1590
a(S'w'
I8
tp1591
a(S'p2_tl'
I254
tp1592
a(S'p2_ll'
I23
tp1593
a(S'p2_th'
I0
tp1594
a(S'w'
I4
tp1595
a(S'p2_vo'
I13
tp1596
a(S'w'
I722
tp1597
a(S'w'
I3
tp1598
a(S'p2_vo'
I11
tp1599
a(S'w'
I731
tp1600
a(S'w'
I3
tp1601
a(S'p2_vo'
I9
tp1602
a(S'w'
I731
tp1603
a(S'p1_tl'
I147
tp1604
a(S'w'
I3
tp1605
a(S'p2_vo'
I7
tp1606
a(S'w'
I730
tp1607
a(S'w'
I734
tp1608
a(S'w'
I734
tp1609
a(S'w'
I734
tp1610
a(S'p1_tl'
I151
tp1611
a(S'w'
I734
tp1612
a(S'w'
I733
tp1613
a(S'w'
I734
tp1614
a(S'w'
I734
tp1615
a(S'p1_tl'
I147
tp1616
a(S'w'
I734
tp1617
a(S'w'
I8
tp1618
a(S'p2_tl'
I190
tp1619
a(S'w'
I1
tp1620
a(S'p2_ll'
I23
tp1621
a(S'w'
I4
tp1622
a(S'p2_vo'
I13
tp1623
a(S'w'
I11
tp1624
a(S'tr_tl'
I124
tp1625
a(S'w'
I1
tp1626
a(S'tr_ll'
I1
tp1627
a(S'tr_th'
I1
tp1628
a(S'tr_lr'
I39
tp1629
a(S'w'
I709
tp1630
a(S'w'
I3
tp1631
a(S'p2_vo'
I11
tp1632
a(S'w'
I730
tp1633
a(S'w'
I4
tp1634
a(S'p2_vo'
I9
tp1635
a(S'w'
I730
tp1636
a(S'p1_tl'
I151
tp1637
a(S'w'
I4
tp1638
a(S'p2_vo'
I7
tp1639
a(S'w'
I730
tp1640
a(S'w'
I734
tp1641
a(S'w'
I734
tp1642
a(S'w'
I733
tp1643
a(S'p1_tl'
I147
tp1644
a(S'w'
I734
tp1645
a(S'w'
I734
tp1646
a(S'w'
I734
tp1647
a(S'w'
I734
tp1648
a(S'p1_tl'
I151
tp1649
a(S'w'
I740
tp1650
a(S'w'
I8
tp1651
a(S'p2_tl'
I166
tp1652
a(S'p2_ll'
I23
tp1653
a(S'p2_th'
I2
tp1654
a(S'w'
I4
tp1655
a(S'p2_vo'
I13
tp1656
a(S'w'
I8
tp1657
a(S'tr_tl'
I171
tp1658
a(S'w'
I1
tp1659
a(S'tr_ll'
I1
tp1660
a(S'w'
I706
tp1661
a(S'w'
I4
tp1662
a(S'p2_vo'
I11
tp1663
a(S'w'
I730
tp1664
a(S'w'
I4
tp1665
a(S'p2_vo'
I9
tp1666
a(S'w'
I730
tp1667
a(S'p1_tl'
I147
tp1668
a(S'w'
I3
tp1669
a(S'p2_vo'
I7
tp1670
a(S'w'
I731
tp1671
a(S'w'
I733
tp1672
a(S'w'
I734
tp1673
a(S'w'
I734
tp1674
a(S'p1_tl'
I151
tp1675
a(S'w'
I734
tp1676
a(S'w'
I734
tp1677
a(S'w'
I733
tp1678
a(S'w'
I734
tp1679
a(S'p1_tl'
I147
tp1680
a(S'w'
I738
tp1681
a(S'p1_tl'
I142
tp1682
a(S'w'
I1
tp1683
a(S'p1_ll'
I23
tp1684
a(S'w'
I3
tp1685
a(S'p1_vo'
I13
tp1686
a(S'w'
I9
tp1687
a(S'p2_tl'
I226
tp1688
a(S'p2_ll'
I23
tp1689
a(S'p2_th'
I0
tp1690
a(S'w'
I4
tp1691
a(S'p2_vo'
I13
tp1692
a(S'w'
I8
tp1693
a(S'tr_tl'
I29
tp1694
a(S'w'
I1
tp1695
a(S'tr_ll'
I1
tp1696
a(S'w'
I703
tp1697
a(S'p1_vo'
I11
tp1698
a(S'w'
I4
tp1699
a(S'p2_vo'
I11
tp1700
a(S'w'
I730
tp1701
a(S'p1_vo'
I9
tp1702
a(S'w'
I4
tp1703
a(S'p2_vo'
I9
tp1704
a(S'w'
I730
tp1705
a(S'p1_vo'
I7
tp1706
a(S'w'
I4
tp1707
a(S'p2_vo'
I7
tp1708
a(S'w'
I6605
tp1709
a(S'p1_tl'
I169
tp1710
a(S'p1_ll'
I23
tp1711
a(S'w'
I4
tp1712
a(S'p1_vo'
I13
tp1713
a(S'w'
I9
tp1714
a(S'p2_tl'
I213
tp1715
a(S'w'
I1
tp1716
a(S'p2_ll'
I23
tp1717
a(S'w'
I3
tp1718
a(S'p2_vo'
I13
tp1719
a(S'w'
I12
tp1720
a(S'tr_tl'
I142
tp1721
a(S'w'
I1
tp1722
a(S'tr_ll'
I1
tp1723
a(S'tr_th'
I0
tp1724
a(S'tr_lr'
I71
tp1725
a(S'w'
I699
tp1726
a(S'p1_vo'
I11
tp1727
a(S'w'
I4
tp1728
a(S'p2_vo'
I11
tp1729
a(S'w'
I729
tp1730
a(S'p1_vo'
I9
tp1731
a(S'w'
I5
tp1732
a(S'p2_vo'
I9
tp1733
a(S'w'
I729
tp1734
a(S'p1_vo'
I7
tp1735
a(S'w'
I4
tp1736
a(S'p2_vo'
I7
tp1737
a(S'w'
I6605
tp1738
a(S'p1_tl'
I226
tp1739
a(S'p1_ll'
I23
tp1740
a(S'w'
I4
tp1741
a(S'p1_vo'
I13
tp1742
a(S'w'
I8
tp1743
a(S'p2_tl'
I83
tp1744
a(S'w'
I1
tp1745
a(S'p2_ll'
I23
tp1746
a(S'p2_th'
I1
tp1747
a(S'w'
I4
tp1748
a(S'p2_vo'
I13
tp1749
a(S'w'
I712
tp1750
a(S'p1_vo'
I11
tp1751
a(S'w'
I4
tp1752
a(S'p2_vo'
I11
tp1753
a(S'w'
I730
tp1754
a(S'p1_vo'
I9
tp1755
a(S'w'
I4
tp1756
a(S'p2_vo'
I9
tp1757
a(S'w'
I730
tp1758
a(S'p1_vo'
I7
tp1759
a(S'w'
I4
tp1760
a(S'p2_vo'
I7
tp1761
a(S'w'
I6605
tp1762
a(S'p1_tl'
I213
tp1763
a(S'p1_ll'
I23
tp1764
a(S'w'
I4
tp1765
a(S'p1_vo'
I13
tp1766
a(S'w'
I9
tp1767
a(S'p2_tl'
I29
tp1768
a(S'p2_ll'
I23
tp1769
a(S'w'
I4
tp1770
a(S'p2_vo'
I13
tp1771
a(S'w'
I9
tp1772
a(S'tr_tl'
I169
tp1773
a(S'tr_ll'
I1
tp1774
a(S'w'
I703
tp1775
a(S'p1_vo'
I11
tp1776
a(S'w'
I4
tp1777
a(S'p2_vo'
I11
tp1778
a(S'w'
I730
tp1779
a(S'p1_vo'
I9
tp1780
a(S'w'
I4
tp1781
a(S'p2_vo'
I9
tp1782
a(S'w'
I729
tp1783
a(S'p1_vo'
I7
tp1784
a(S'w'
I5
tp1785
a(S'p2_vo'
I7
tp1786
a(S'w'
I6604
tp1787
a(S'p1_tl'
I142
tp1788
a(S'w'
I1
tp1789
a(S'p1_ll'
I23
tp1790
a(S'w'
I4
tp1791
a(S'p1_vo'
I13
tp1792
a(S'w'
I9
tp1793
a(S'p2_tl'
I213
tp1794
a(S'p2_ll'
I23
tp1795
a(S'p2_th'
I0
tp1796
a(S'w'
I4
tp1797
a(S'p2_vo'
I13
tp1798
a(S'w'
I711
tp1799
a(S'p1_vo'
I11
tp1800
a(S'w'
I5
tp1801
a(S'p2_vo'
I11
tp1802
a(S'w'
I729
tp1803
a(S'p1_vo'
I9
tp1804
a(S'w'
I4
tp1805
a(S'p2_vo'
I9
tp1806
a(S'w'
I730
tp1807
a(S'p1_vo'
I7
tp1808
a(S'w'
I4
tp1809
a(S'p2_vo'
I7
tp1810
a(S'w'
I6612
tp1811
a(S'p1_tl'
I151
tp1812
a(S'w'
I1
tp1813
a(S'p1_ll'
I4
tp1814
a(S'w'
I4
tp1815
a(S'p1_vo'
I13
tp1816
a(S'w'
I16
tp1817
a(S'p2_tl'
I190
tp1818
a(S'w'
I1
tp1819
a(S'p2_ll'
I4
tp1820
a(S'w'
I3
tp1821
a(S'p2_vo'
I13
tp1822
a(S'w'
I12
tp1823
a(S'tr_tl'
I226
tp1824
a(S'tr_ll'
I1
tp1825
a(S'w'
I1
tp1826
a(S'tr_lr'
I39
tp1827
a(S'w'
I684
tp1828
a(S'p1_vo'
I11
tp1829
a(S'w'
I4
tp1830
a(S'p2_vo'
I11
tp1831
a(S'w'
I730
tp1832
a(S'p1_vo'
I9
tp1833
a(S'w'
I4
tp1834
a(S'p2_vo'
I9
tp1835
a(S'w'
I730
tp1836
a(S'p1_vo'
I7
tp1837
a(S'w'
I4
tp1838
a(S'p2_vo'
I7
tp1839
a(S'w'
I6612
tp1840
a(S'tr_tl'
I46
tp1841
a(S'tr_ll'
I1
tp1842
a(S'tr_th'
I1
tp1843
a(S'w'
I3658
tp1844
a(S'w'
I4
tp1845
a(S'w'
I730
tp1846
a(S'w'
I4
tp1847
a(S'w'
I729
tp1848
a(S'p1_tl'
I147
tp1849
a(S'w'
I5
tp1850
a(S'p2_tl'
I186
tp1851
a(S'w'
I729
tp1852
a(S'w'
I5
tp1853
a(S'w'
I729
tp1854
a(S'w'
I4
tp1855
a(S'w'
I730
tp1856
a(S'w'
I4
tp1857
a(S'w'
I730
tp1858
a(S'p1_tl'
I151
tp1859
a(S'w'
I4
tp1860
a(S'p2_tl'
I190
tp1861
a(S'w'
I739
tp1862
a(S'p1_tl'
I190
tp1863
a(S'w'
I1
tp1864
a(S'p1_ll'
I6
tp1865
a(S'w'
I4
tp1866
a(S'p1_vo'
I13
tp1867
a(S'w'
I13
tp1868
a(S'p2_tl'
I226
tp1869
a(S'p2_ll'
I23
tp1870
a(S'w'
I4
tp1871
a(S'p2_vo'
I13
tp1872
a(S'w'
I11
tp1873
a(S'tr_tl'
I196
tp1874
a(S'w'
I1
tp1875
a(S'tr_ll'
I1
tp1876
a(S'tr_lr'
I103
tp1877
a(S'w'
I689
tp1878
a(S'p1_vo'
I11
tp1879
a(S'w'
I4
tp1880
a(S'p2_vo'
I11
tp1881
a(S'w'
I730
tp1882
a(S'p1_vo'
I9
tp1883
a(S'w'
I4
tp1884
a(S'p2_vo'
I9
tp1885
a(S'w'
I730
tp1886
a(S'p1_vo'
I7
tp1887
a(S'w'
I4
tp1888
a(S'p2_vo'
I7
tp1889
a(S'w'
I6608
tp1890
a(S'p2_tl'
I46
tp1891
a(S'w'
I1
tp1892
a(S'p2_ll'
I23
tp1893
a(S'p2_th'
I1
tp1894
a(S'w'
I4
tp1895
a(S'p2_vo'
I13
tp1896
a(S'w'
I725
tp1897
a(S'p2_vo'
I11
tp1898
a(S'w'
I734
tp1899
a(S'p2_vo'
I9
tp1900
a(S'w'
I733
tp1901
a(S'p2_vo'
I7
tp1902
a(S'w'
I1465
tp1903
a(S'w'
I734
tp1904
a(S'w'
I734
tp1905
a(S'p1_tl'
I186
tp1906
a(S'w'
I733
tp1907
a(S'w'
I734
tp1908
a(S'w'
I734
tp1909
a(S'w'
I734
tp1910
a(S'p1_tl'
I190
tp1911
a(S'w'
I734
tp1912
a(S'w'
I15
tp1913
a(S'p2_tl'
I124
tp1914
a(S'p2_ll'
I4
tp1915
a(S'w'
I4
tp1916
a(S'p2_vo'
I13
tp1917
a(S'w'
I714
tp1918
a(S'w'
I4
tp1919
a(S'p2_vo'
I11
tp1920
a(S'w'
I730
tp1921
a(S'w'
I4
tp1922
a(S'p2_vo'
I9
tp1923
a(S'w'
I730
tp1924
a(S'p1_tl'
I186
tp1925
a(S'w'
I4
tp1926
a(S'p2_vo'
I7
tp1927
a(S'w'
I730
tp1928
a(S'w'
I734
tp1929
a(S'w'
I733
tp1930
a(S'w'
I734
tp1931
a(S'p1_tl'
I190
tp1932
a(S'w'
I734
tp1933
a(S'w'
I734
tp1934
a(S'w'
I734
tp1935
a(S'w'
I733
tp1936
a(S'p1_tl'
I186
tp1937
a(S'w'
I734
tp1938
a(S'w'
I15
tp1939
a(S'tr_tl'
I226
tp1940
a(S'tr_ll'
I1
tp1941
a(S'tr_th'
I0
tp1942
a(S'w'
I1
tp1943
a(S'tr_lr'
I39
tp1944
a(S'w'
I718
tp1945
a(S'w'
I734
tp1946
a(S'w'
I734
tp1947
a(S'p1_tl'
I190
tp1948
a(S'w'
I733
tp1949
a(S'w'
I734
tp1950
a(S'w'
I5
tp1951
a(S'w'
I729
tp1952
a(S'w'
I4
tp1953
a(S'w'
I730
tp1954
a(S'p1_tl'
I186
tp1955
a(S'w'
I4
tp1956
a(S'p2_tl'
I120
tp1957
a(S'w'
I730
tp1958
a(S'w'
I4
tp1959
a(S'w'
I729
tp1960
a(S'w'
I5
tp1961
a(S'w'
I729
tp1962
a(S'w'
I5
tp1963
a(S'w'
I729
tp1964
a(S'p1_tl'
I190
tp1965
a(S'w'
I5
tp1966
a(S'p2_tl'
I124
tp1967
a(S'w'
I738
tp1968
a(S'p1_tl'
I213
tp1969
a(S'p1_ll'
I23
tp1970
a(S'w'
I4
tp1971
a(S'p1_vo'
I13
tp1972
a(S'w'
I13
tp1973
a(S'p2_tl'
I29
tp1974
a(S'w'
I1
tp1975
a(S'p2_ll'
I23
tp1976
a(S'w'
I4
tp1977
a(S'p2_vo'
I13
tp1978
a(S'w'
I11
tp1979
a(S'tr_tl'
I254
tp1980
a(S'tr_ll'
I1
tp1981
a(S'w'
I1
tp1982
a(S'tr_lr'
I119
tp1983
a(S'w'
I690
tp1984
a(S'p1_vo'
I11
tp1985
a(S'w'
I4
tp1986
a(S'p2_vo'
I11
tp1987
a(S'w'
I730
tp1988
a(S'p1_vo'
I9
tp1989
a(S'w'
I4
tp1990
a(S'p2_vo'
I9
tp1991
a(S'w'
I729
tp1992
a(S'p1_vo'
I7
tp1993
a(S'w'
I5
tp1994
a(S'p2_vo'
I7
tp1995
a(S'w'
I6604
tp1996
a(S'p1_tl'
I226
tp1997
a(S'p1_ll'
I23
tp1998
a(S'w'
I4
tp1999
a(S'p1_vo'
I13
tp2000
a(S'w'
I8
tp2001
a(S'p2_tl'
I83
tp2002
a(S'w'
I1
tp2003
a(S'p2_ll'
I23
tp2004
a(S'w'
I4
tp2005
a(S'p2_vo'
I13
tp2006
a(S'w'
I712
tp2007
a(S'p1_vo'
I11
tp2008
a(S'w'
I4
tp2009
a(S'p2_vo'
I11
tp2010
a(S'w'
I730
tp2011
a(S'p1_vo'
I9
tp2012
a(S'w'
I4
tp2013
a(S'p2_vo'
I9
tp2014
a(S'w'
I730
tp2015
a(S'p1_vo'
I7
tp2016
a(S'w'
I4
tp2017
a(S'p2_vo'
I7
tp2018
a(S'w'
I6604
tp2019
a(S'p1_tl'
I29
tp2020
a(S'w'
I1
tp2021
a(S'p1_ll'
I23
tp2022
a(S'p1_th'
I1
tp2023
a(S'w'
I4
tp2024
a(S'p1_vo'
I13
tp2025
a(S'w'
I8
tp2026
a(S'p2_tl'
I171
tp2027
a(S'w'
I1
tp2028
a(S'p2_ll'
I23
tp2029
a(S'w'
I3
tp2030
a(S'p2_vo'
I13
tp2031
a(S'w'
I713
tp2032
a(S'p1_vo'
I11
tp2033
a(S'w'
I4
tp2034
a(S'p2_vo'
I11
tp2035
a(S'w'
I730
tp2036
a(S'p1_vo'
I9
tp2037
a(S'w'
I4
tp2038
a(S'p2_vo'
I9
tp2039
a(S'w'
I730
tp2040
a(S'p1_vo'
I7
tp2041
a(S'w'
I4
tp2042
a(S'p2_vo'
I7
tp2043
a(S'w'
I6611
tp2044
a(S'p1_tl'
I83
tp2045
a(S'p1_ll'
I10
tp2046
a(S'w'
I4
tp2047
a(S'p1_vo'
I13
tp2048
a(S'w'
I14
tp2049
a(S'p2_tl'
I252
tp2050
a(S'w'
I1
tp2051
a(S'p2_ll'
I10
tp2052
a(S'w'
I4
tp2053
a(S'p2_vo'
I13
tp2054
a(S'w'
I700
tp2055
a(S'p1_vo'
I11
tp2056
a(S'w'
I4
tp2057
a(S'p2_vo'
I11
tp2058
a(S'w'
I729
tp2059
a(S'p1_vo'
I9
tp2060
a(S'w'
I5
tp2061
a(S'p2_vo'
I9
tp2062
a(S'w'
I729
tp2063
a(S'p1_vo'
I7
tp2064
a(S'w'
I4
tp2065
a(S'p2_vo'
I7
tp2066
a(S'w'
I10270
tp2067
a(S'w'
I5
tp2068
a(S'w'
I729
tp2069
a(S'w'
I5
tp2070
a(S'w'
I729
tp2071
a(S'p1_tl'
I79
tp2072
a(S'w'
I4
tp2073
a(S'p2_tl'
I248
tp2074
a(S'w'
I730
tp2075
a(S'w'
I4
tp2076
a(S'w'
I730
tp2077
a(S'w'
I4
tp2078
a(S'w'
I729
tp2079
a(S'w'
I5
tp2080
a(S'w'
I729
tp2081
a(S'p1_tl'
I83
tp2082
a(S'w'
I5
tp2083
a(S'p2_tl'
I252
tp2084
a(S'w'
I729
tp2085
a(S'w'
I4
tp2086
a(S'w'
I730
tp2087
a(S'w'
I4
tp2088
a(S'w'
I730
tp2089
a(S'w'
I4
tp2090
a(S'w'
I729
tp2091
a(S'p1_tl'
I79
tp2092
a(S'w'
I5
tp2093
a(S'p2_tl'
I248
tp2094
a(S'w'
I729
tp2095
a(S'w'
I5
tp2096
a(S'w'
I729
tp2097
a(S'w'
I4
tp2098
a(S'w'
I730
tp2099
a(S'w'
I4
tp2100
a(S'w'
I730
tp2101
a(S'p1_tl'
I83
tp2102
a(S'w'
I4
tp2103
a(S'p2_tl'
I252
tp2104
a(S'w'
I729
tp2105
a(S'w'
I5
tp2106
a(S'w'
I729
tp2107
a(S'w'
I5
tp2108
a(S'w'
I729
tp2109
a(S'w'
I4
tp2110
a(S'w'
I730
tp2111
a(S'p1_tl'
I79
tp2112
a(S'w'
I4
tp2113
a(S'p2_tl'
I248
tp2114
a(S'w'
I738
tp2115
a(S'p1_tl'
I213
tp2116
a(S'w'
I1
tp2117
a(S'p1_ll'
I23
tp2118
a(S'p1_th'
I0
tp2119
a(S'w'
I4
tp2120
a(S'p1_vo'
I13
tp2121
a(S'w'
I13
tp2122
a(S'p2_tl'
I103
tp2123
a(S'p2_ll'
I23
tp2124
a(S'w'
I4
tp2125
a(S'p2_vo'
I13
tp2126
a(S'w'
I9
tp2127
a(S'tr_tl'
I124
tp2128
a(S'tr_ll'
I1
tp2129
a(S'tr_th'
I1
tp2130
a(S'w'
I693
tp2131
a(S'p1_vo'
I11
tp2132
a(S'w'
I5
tp2133
a(S'p2_vo'
I11
tp2134
a(S'w'
I729
tp2135
a(S'p1_vo'
I9
tp2136
a(S'w'
I4
tp2137
a(S'p2_vo'
I9
tp2138
a(S'w'
I730
tp2139
a(S'p1_vo'
I7
tp2140
a(S'w'
I4
tp2141
a(S'p2_vo'
I7
tp2142
a(S'w'
I6605
tp2143
a(S'p1_tl'
I226
tp2144
a(S'p1_ll'
I23
tp2145
a(S'w'
I4
tp2146
a(S'p1_vo'
I13
tp2147
a(S'w'
I8
tp2148
a(S'p2_tl'
I29
tp2149
a(S'w'
I1
tp2150
a(S'p2_ll'
I23
tp2151
a(S'w'
I4
tp2152
a(S'p2_vo'
I13
tp2153
a(S'w'
I712
tp2154
a(S'p1_vo'
I11
tp2155
a(S'w'
I4
tp2156
a(S'p2_vo'
I11
tp2157
a(S'w'
I730
tp2158
a(S'p1_vo'
I9
tp2159
a(S'w'
I4
tp2160
a(S'p2_vo'
I9
tp2161
a(S'w'
I730
tp2162
a(S'p1_vo'
I7
tp2163
a(S'w'
I4
tp2164
a(S'p2_vo'
I7
tp2165
a(S'w'
I6604
tp2166
a(S'p1_tl'
I29
tp2167
a(S'w'
I1
tp2168
a(S'p1_ll'
I23
tp2169
a(S'p1_th'
I1
tp2170
a(S'w'
I3
tp2171
a(S'p1_vo'
I13
tp2172
a(S'w'
I9
tp2173
a(S'p2_tl'
I171
tp2174
a(S'p2_ll'
I23
tp2175
a(S'w'
I4
tp2176
a(S'p2_vo'
I13
tp2177
a(S'w'
I713
tp2178
a(S'p1_vo'
I11
tp2179
a(S'w'
I4
tp2180
a(S'p2_vo'
I11
tp2181
a(S'w'
I729
tp2182
a(S'p1_vo'
I9
tp2183
a(S'w'
I5
tp2184
a(S'p2_vo'
I9
tp2185
a(S'w'
I729
tp2186
a(S'p1_vo'
I7
tp2187
a(S'w'
I4
tp2188
a(S'p2_vo'
I7
tp2189
a(S'w'
I6611
tp2190
a(S'p1_tl'
I103
tp2191
a(S'w'
I1
tp2192
a(S'p1_ll'
I10
tp2193
a(S'w'
I4
tp2194
a(S'p1_vo'
I13
tp2195
a(S'w'
I14
tp2196
a(S'p2_tl'
I252
tp2197
a(S'w'
I1
tp2198
a(S'p2_ll'
I10
tp2199
a(S'w'
I4
tp2200
a(S'p2_vo'
I13
tp2201
a(S'w'
I699
tp2202
a(S'p1_vo'
I11
tp2203
a(S'w'
I4
tp2204
a(S'p2_vo'
I11
tp2205
a(S'w'
I730
tp2206
a(S'p1_vo'
I9
tp2207
a(S'w'
I4
tp2208
a(S'p2_vo'
I9
tp2209
a(S'w'
I730
tp2210
a(S'p1_vo'
I7
tp2211
a(S'w'
I4
tp2212
a(S'p2_vo'
I7
tp2213
a(S'w'
I10270
tp2214
a(S'w'
I4
tp2215
a(S'w'
I730
tp2216
a(S'w'
I4
tp2217
a(S'w'
I730
tp2218
a(S'p1_tl'
I99
tp2219
a(S'w'
I4
tp2220
a(S'p2_tl'
I248
tp2221
a(S'w'
I729
tp2222
a(S'w'
I5
tp2223
a(S'w'
I729
tp2224
a(S'w'
I5
tp2225
a(S'w'
I729
tp2226
a(S'w'
I4
tp2227
a(S'w'
I730
tp2228
a(S'p1_tl'
I103
tp2229
a(S'w'
I4
tp2230
a(S'p2_tl'
I252
tp2231
a(S'w'
I730
tp2232
a(S'w'
I4
tp2233
a(S'w'
I729
tp2234
a(S'w'
I5
tp2235
a(S'w'
I729
tp2236
a(S'w'
I5
tp2237
a(S'w'
I729
tp2238
a(S'p1_tl'
I99
tp2239
a(S'w'
I5
tp2240
a(S'p2_tl'
I248
tp2241
a(S'w'
I729
tp2242
a(S'w'
I4
tp2243
a(S'w'
I730
tp2244
a(S'w'
I4
tp2245
a(S'w'
I729
tp2246
a(S'w'
I5
tp2247
a(S'w'
I729
tp2248
a(S'p1_tl'
I103
tp2249
a(S'w'
I5
tp2250
a(S'p2_tl'
I252
tp2251
a(S'w'
I729
tp2252
a(S'w'
I4
tp2253
a(S'w'
I730
tp2254
a(S'w'
I4
tp2255
a(S'w'
I730
tp2256
a(S'w'
I4
tp2257
a(S'w'
I729
tp2258
a(S'p1_tl'
I99
tp2259
a(S'w'
I5
tp2260
a(S'p2_tl'
I248
tp2261
a(S'w'
I738
tp2262
a(S'p1_tl'
I46
tp2263
a(S'w'
I1
tp2264
a(S'p1_ll'
I22
tp2265
a(S'w'
I4
tp2266
a(S'p1_vo'
I13
tp2267
a(S'w'
I13
tp2268
a(S'p2_tl'
I196
tp2269
a(S'w'
I1
tp2270
a(S'p2_ll'
I22
tp2271
a(S'w'
I4
tp2272
a(S'p2_vo'
I13
tp2273
a(S'w'
I11
tp2274
a(S'tr_tl'
I29
tp2275
a(S'tr_ll'
I1
tp2276
a(S'w'
I1
tp2277
a(S'tr_lr'
I87
tp2278
a(S'w'
I689
tp2279
a(S'p1_vo'
I11
tp2280
a(S'w'
I4
tp2281
a(S'p2_vo'
I11
tp2282
a(S'w'
I730
tp2283
a(S'p1_vo'
I9
tp2284
a(S'w'
I4
tp2285
a(S'p2_vo'
I9
tp2286
a(S'w'
I730
tp2287
a(S'p1_vo'
I7
tp2288
a(S'w'
I4
tp2289
a(S'p2_vo'
I7
tp2290
a(S'w'
I10270
tp2291
a(S'w'
I4
tp2292
a(S'w'
I730
tp2293
a(S'w'
I4
tp2294
a(S'w'
I729
tp2295
a(S'p1_tl'
I42
tp2296
a(S'w'
I5
tp2297
a(S'p2_tl'
I192
tp2298
a(S'w'
I729
tp2299
a(S'w'
I5
tp2300
a(S'w'
I729
tp2301
a(S'w'
I5
tp2302
a(S'w'
I729
tp2303
a(S'w'
I4
tp2304
a(S'w'
I730
tp2305
a(S'p1_tl'
I46
tp2306
a(S'w'
I4
tp2307
a(S'p2_tl'
I196
tp2308
a(S'w'
I729
tp2309
a(S'w'
I5
tp2310
a(S'w'
I729
tp2311
a(S'w'
I5
tp2312
a(S'w'
I729
tp2313
a(S'w'
I5
tp2314
a(S'w'
I729
tp2315
a(S'p1_tl'
I42
tp2316
a(S'w'
I4
tp2317
a(S'p2_tl'
I192
tp2318
a(S'w'
I12
tp2319
a(S'tr_tl'
I113
tp2320
a(S'tr_ll'
I1
tp2321
a(S'tr_th'
I0
tp2322
a(S'w'
I718
tp2323
a(S'w'
I4
tp2324
a(S'w'
I729
tp2325
a(S'w'
I5
tp2326
a(S'w'
I729
tp2327
a(S'w'
I5
tp2328
a(S'w'
I729
tp2329
a(S'p1_tl'
I46
tp2330
a(S'w'
I5
tp2331
a(S'p2_tl'
I196
tp2332
a(S'w'
I729
tp2333
a(S'w'
I4
tp2334
a(S'w'
I730
tp2335
a(S'w'
I4
tp2336
a(S'w'
I730
tp2337
a(S'w'
I4
tp2338
a(S'w'
I729
tp2339
a(S'p1_tl'
I42
tp2340
a(S'w'
I5
tp2341
a(S'p2_tl'
I192
tp2342
a(S'w'
I729
tp2343
a(S'w'
I5
tp2344
a(S'w'
I729
tp2345
a(S'w'
I4
tp2346
a(S'w'
I730
tp2347
a(S'w'
I4
tp2348
a(S'w'
I729
tp2349
a(S'p1_tl'
I46
tp2350
a(S'w'
I5
tp2351
a(S'p2_tl'
I196
tp2352
a(S'w'
I729
tp2353
a(S'w'
I5
tp2354
a(S'w'
I729
tp2355
a(S'w'
I5
tp2356
a(S'w'
I729
tp2357
a(S'w'
I4
tp2358
a(S'w'
I730
tp2359
a(S'p1_tl'
I42
tp2360
a(S'w'
I4
tp2361
a(S'p2_tl'
I192
tp2362
a(S'w'
I730
tp2363
a(S'w'
I4
tp2364
a(S'w'
I729
tp2365
a(S'w'
I5
tp2366
a(S'w'
I729
tp2367
a(S'w'
I5
tp2368
a(S'w'
I729
tp2369
a(S'p1_tl'
I46
tp2370
a(S'w'
I4
tp2371
a(S'p2_tl'
I196
tp2372
a(S'w'
I730
tp2373
a(S'w'
I4
tp2374
a(S'w'
I730
tp2375
a(S'w'
I4
tp2376
a(S'w'
I729
tp2377
a(S'w'
I5
tp2378
a(S'w'
I729
tp2379
a(S'p1_tl'
I42
tp2380
a(S'w'
I5
tp2381
a(S'p2_tl'
I192
tp2382
a(S'w'
I729
tp2383
a(S'w'
I4
tp2384
a(S'w'
I730
tp2385
a(S'w'
I4
tp2386
a(S'w'
I730
tp2387
a(S'w'
I4
tp2388
a(S'w'
I729
tp2389
a(S'p1_tl'
I46
tp2390
a(S'w'
I5
tp2391
a(S'p2_tl'
I196
tp2392
a(S'w'
I729
tp2393
a(S'w'
I5
tp2394
a(S'w'
I737
tp2395
a(S'p1_tl'
I226
tp2396
a(S'w'
I1
tp2397
a(S'p1_ll'
I29
tp2398
a(S'p1_th'
I0
tp2399
a(S'w'
I3
tp2400
a(S'p1_vo'
I13
tp2401
a(S'w'
I16
tp2402
a(S'p2_tl'
I124
tp2403
a(S'p2_ll'
I20
tp2404
a(S'w'
I4
tp2405
a(S'p2_vo'
I13
tp2406
a(S'w'
I12
tp2407
a(S'tr_tl'
I151
tp2408
a(S'w'
I1
tp2409
a(S'tr_ll'
I1
tp2410
a(S'tr_lr'
I103
tp2411
a(S'w'
I688
tp2412
a(S'p1_vo'
I11
tp2413
a(S'w'
I4
tp2414
a(S'p2_vo'
I11
tp2415
a(S'w'
I730
tp2416
a(S'p1_vo'
I9
tp2417
a(S'w'
I4
tp2418
a(S'p2_vo'
I9
tp2419
a(S'w'
I729
tp2420
a(S'p1_vo'
I7
tp2421
a(S'w'
I5
tp2422
a(S'p2_vo'
I7
tp2423
a(S'w'
I8814
tp2424
a(S'p1_tl'
I169
tp2425
a(S'p1_ll'
I30
tp2426
a(S'w'
I4
tp2427
a(S'p1_vo'
I13
tp2428
a(S'w'
I717
tp2429
a(S'p1_vo'
I11
tp2430
a(S'w'
I734
tp2431
a(S'p1_vo'
I9
tp2432
a(S'w'
I5
tp2433
a(S'w'
I728
tp2434
a(S'p1_vo'
I7
tp2435
a(S'w'
I6
tp2436
a(S'w'
I733
tp2437
a(S'p2_tl'
I120
tp2438
a(S'w'
I734
tp2439
a(S'w'
I734
tp2440
a(S'w'
I733
tp2441
a(S'w'
I734
tp2442
a(S'p2_tl'
I124
tp2443
a(S'w'
I734
tp2444
a(S'w'
I734
tp2445
a(S'w'
I734
tp2446
a(S'w'
I733
tp2447
a(S'p2_tl'
I120
tp2448
a(S'w'
I734
tp2449
a(S'w'
I734
tp2450
a(S'w'
I734
tp2451
a(S'w'
I734
tp2452
a(S'p2_tl'
I124
tp2453
a(S'w'
I730
tp2454
a(S'w'
I4
tp2455
a(S'w'
I739
tp2456
a(S'p1_tl'
I190
tp2457
a(S'p1_ll'
I8
tp2458
a(S'w'
I4
tp2459
a(S'p1_vo'
I13
tp2460
a(S'w'
I14
tp2461
a(S'p2_tl'
I46
tp2462
a(S'p2_ll'
I8
tp2463
a(S'w'
I4
tp2464
a(S'p2_vo'
I13
tp2465
a(S'w'
I11
tp2466
a(S'tr_tl'
I58
tp2467
a(S'tr_ll'
I1
tp2468
a(S'tr_th'
I2
tp2469
a(S'w'
I1
tp2470
a(S'tr_lr'
I119
tp2471
a(S'w'
I689
tp2472
a(S'p1_vo'
I11
tp2473
a(S'w'
I4
tp2474
a(S'p2_vo'
I11
tp2475
a(S'w'
I730
tp2476
a(S'p1_vo'
I9
tp2477
a(S'w'
I4
tp2478
a(S'p2_vo'
I9
tp2479
a(S'w'
I730
tp2480
a(S'p1_vo'
I7
tp2481
a(S'w'
I4
tp2482
a(S'p2_vo'
I7
tp2483
a(S'w'
I10270
tp2484
a(S'w'
I4
tp2485
a(S'w'
I730
tp2486
a(S'w'
I4
tp2487
a(S'w'
I730
tp2488
a(S'p1_tl'
I186
tp2489
a(S'w'
I4
tp2490
a(S'p2_tl'
I42
tp2491
a(S'w'
I729
tp2492
a(S'w'
I5
tp2493
a(S'w'
I729
tp2494
a(S'w'
I5
tp2495
a(S'w'
I729
tp2496
a(S'w'
I4
tp2497
a(S'w'
I730
tp2498
a(S'p1_tl'
I190
tp2499
a(S'w'
I4
tp2500
a(S'p2_tl'
I46
tp2501
a(S'w'
I730
tp2502
a(S'w'
I4
tp2503
a(S'w'
I729
tp2504
a(S'w'
I5
tp2505
a(S'w'
I729
tp2506
a(S'w'
I5
tp2507
a(S'w'
I729
tp2508
a(S'p1_tl'
I186
tp2509
a(S'w'
I4
tp2510
a(S'p2_tl'
I42
tp2511
a(S'w'
I730
tp2512
a(S'w'
I4
tp2513
a(S'w'
I730
tp2514
a(S'w'
I4
tp2515
a(S'w'
I729
tp2516
a(S'w'
I5
tp2517
a(S'w'
I729
tp2518
a(S'p1_tl'
I190
tp2519
a(S'w'
I5
tp2520
a(S'p2_tl'
I46
tp2521
a(S'w'
I729
tp2522
a(S'w'
I4
tp2523
a(S'w'
I730
tp2524
a(S'w'
I4
tp2525
a(S'w'
I730
tp2526
a(S'w'
I4
tp2527
a(S'w'
I729
tp2528
a(S'p1_tl'
I186
tp2529
a(S'w'
I5
tp2530
a(S'p2_tl'
I42
tp2531
a(S'w'
I729
tp2532
a(S'w'
I5
tp2533
a(S'w'
I729
tp2534
a(S'w'
I4
tp2535
a(S'w'
I730
tp2536
a(S'w'
I4
tp2537
a(S'w'
I730
tp2538
a(S'p1_tl'
I190
tp2539
a(S'w'
I4
tp2540
a(S'p2_tl'
I46
tp2541
a(S'w'
I729
tp2542
a(S'w'
I5
tp2543
a(S'w'
I729
tp2544
a(S'w'
I5
tp2545
a(S'w'
I729
tp2546
a(S'w'
I4
tp2547
a(S'w'
I730
tp2548
a(S'p1_tl'
I186
tp2549
a(S'w'
I4
tp2550
a(S'p2_tl'
I42
tp2551
a(S'w'
I730
tp2552
a(S'w'
I4
tp2553
a(S'w'
I729
tp2554
a(S'w'
I5
tp2555
a(S'w'
I729
tp2556
a(S'w'
I5
tp2557
a(S'w'
I729
tp2558
a(S'p1_tl'
I190
tp2559
a(S'w'
I5
tp2560
a(S'p2_tl'
I46
tp2561
a(S'w'
I729
tp2562
a(S'w'
I4
tp2563
a(S'w'
I730
tp2564
a(S'w'
I4
tp2565
a(S'w'
I729
tp2566
a(S'w'
I5
tp2567
a(S'w'
I729
tp2568
a(S'p1_tl'
I186
tp2569
a(S'w'
I5
tp2570
a(S'p2_tl'
I42
tp2571
a(S'w'
I729
tp2572
a(S'w'
I4
tp2573
a(S'w'
I730
tp2574
a(S'w'
I4
tp2575
a(S'w'
I730
tp2576
a(S'w'
I4
tp2577
a(S'w'
I729
tp2578
a(S'p1_tl'
I190
tp2579
a(S'w'
I5
tp2580
a(S'p2_tl'
I46
tp2581
a(S'w'
I729
tp2582
a(S'w'
I5
tp2583
a(S'w'
I729
tp2584
a(S'w'
I5
tp2585
a(S'w'
I729
tp2586
a(S'w'
I4
tp2587
a(S'w'
I730
tp2588
a(S'p1_tl'
I186
tp2589
a(S'w'
I4
tp2590
a(S'p2_tl'
I42
tp2591
a(S'w'
I729
tp2592
a(S'w'
I5
tp2593
a(S'w'
I729
tp2594
a(S'w'
I5
tp2595
a(S'w'
I729
tp2596
a(S'w'
I5
tp2597
a(S'w'
I729
tp2598
a(S'p1_tl'
I190
tp2599
a(S'w'
I4
tp2600
a(S'p2_tl'
I46
tp2601
a(S'w'
I730
tp2602
a(S'w'
I4
tp2603
a(S'w'
I730
tp2604
a(S'w'
I4
tp2605
a(S'w'
I729
tp2606
a(S'w'
I5
tp2607
a(S'w'
I729
tp2608
a(S'p1_tl'
I186
tp2609
a(S'w'
I4
tp2610
a(S'p2_tl'
I42
tp2611
a(S'w'
I730
tp2612
a(S'w'
I4
tp2613
a(S'w'
I730
tp2614
a(S'w'
I4
tp2615
a(S'w'
I729
tp2616
a(S'w'
I5
tp2617
a(S'w'
I729
tp2618
a(S'p1_tl'
I190
tp2619
a(S'w'
I5
tp2620
a(S'p2_tl'
I46
tp2621
a(S'w'
I729
tp2622
a(S'w'
I5
tp2623
a(S'w'
I729
tp2624
a(S'w'
I4
tp2625
a(S'w'
I730
tp2626
a(S'w'
I4
tp2627
a(S'w'
I730
tp2628
a(S'p1_tl'
I186
tp2629
a(S'w'
I4
tp2630
a(S'p2_tl'
I42
tp2631
a(S'w'
I729
tp2632
a(S'w'
I5
tp2633
a(S'w'
I729
tp2634
a(S'w'
I5
tp2635
a(S'w'
I729
tp2636
a(S'w'
I4
tp2637
a(S'w'
I730
tp2638
a(S'p1_tl'
I190
tp2639
a(S'w'
I4
tp2640
a(S'p2_tl'
I46
tp2641
a(S'w'
I730
tp2642
a(S'w'
I4
tp2643
a(S'w'
I117
tp2644
a.