(lp1
(S'clock'
p2
I1789772
tp3
a(S'p1_lh'
I1
tp4
a(S'p1_cv'
I1
tp5
a(S'p1_sp'
I3
tp6
a(S'p2_lh'
I1
tp7
a(S'p2_cv'
I1
tp8
a(S'p2_sp'
I3
tp9
a(S'w'
I14
tp10
a(S'p1_du'
I3
tp11
a(S'p1_vo'
I4
tp12
a(S'w'
I5
tp13
a(S'p1_ll'
I1
tp14
a(S'p1_th'
I1
tp15
a(S'w'
I1
tp16
a(S'p1_tl'
I126
tp17
a(S'w'
I11
tp18
a(S'p2_du'
I3
tp19
a(S'p2_vo'
I4
tp20
a(S'w'
I5
tp21
a(S'p2_ll'
I1
tp22
a(S'w'
I1
tp23
a(S'p2_tl'
I190
tp24
a(S'w'
I10
tp25
a(S'tr_lr'
I48
tp26
a(S'w'
I4
tp27
a(S'tr_ll'
I1
tp28
a(S'w'
I1
tp29
a(S'tr_tl'
I190
tp30
a(S'w'
I11701
tp31
a(S'p1_vo'
I3
tp32
a(S'w'
I4
tp33
a(S'p1_tl'
I253
tp34
a(S'w'
I12
tp35
a(S'p2_vo'
I3
tp36
a(S'w'
I4
tp37
a(S'p2_tl'
I254
tp38
a(S'w'
I13
tp39
a(S'tr_ll'
I1
tp40
a(S'w'
I1
tp41
a(S'tr_tl'
I254
tp42
a(S'w'
I11707
tp43
a(S'p1_vo'
I4
tp44
a(S'w'
I5
tp45
a(S'p1_tl'
I148
tp46
a(S'w'
I11
tp47
a(S'p2_vo'
I4
tp48
a(S'w'
I5
tp49
a(S'p2_tl'
I201
tp50
a(S'w'
I14
tp51
a(S'tr_ll'
I1
tp52
a(S'w'
I1
tp53
a(S'tr_tl'
I201
tp54
a(S'w'
I11704
tp55
a(S'p1_vo'
I3
tp56
a(S'w'
I5
tp57
a(S'p1_tl'
I253
tp58
a(S'w'
I12
tp59
a(S'p2_vo'
I3
tp60
a(S'w'
I4
tp61
a(S'p2_tl'
I254
tp62
a(S'w'
I13
tp63
a(S'tr_ll'
I1
tp64
a(S'w'
I1
tp65
a(S'tr_tl'
I254
tp66
a(S'w'
I11711
tp67
a(S'p1_vo'
I4
tp68
a(S'w'
I5
tp69
a(S'p1_tl'
I126
tp70
a(S'w'
I14
tp71
a(S'p2_vo'
I4
tp72
a(S'w'
I5
tp73
a(S'p2_tl'
I190
tp74
a(S'w'
I17
tp75
a(S'tr_ll'
I1
tp76
a(S'w'
I1
tp77
a(S'tr_tl'
I190
tp78
a(S'w'
I11694
tp79
a(S'p1_vo'
I3
tp80
a(S'w'
I4
tp81
a(S'p1_tl'
I253
tp82
a(S'w'
I12
tp83
a(S'p2_vo'
I3
tp84
a(S'w'
I4
tp85
a(S'p2_tl'
I254
tp86
a(S'w'
I13
tp87
a(S'tr_ll'
I1
tp88
a(S'w'
I1
tp89
a(S'tr_tl'
I254
tp90
a(S'w'
I11706
tp91
a(S'p1_vo'
I4
tp92
a(S'w'
I6
tp93
a(S'p1_tl'
I148
tp94
a(S'w'
I11
tp95
a(S'p2_vo'
I4
tp96
a(S'w'
I5
tp97
a(S'p2_tl'
I201
tp98
a(S'w'
I14
tp99
a(S'tr_ll'
I1
tp100
a(S'w'
I1
tp101
a(S'tr_tl'
I201
tp102
a(S'w'
I11703
tp103
a(S'p1_vo'
I3
tp104
a(S'w'
I5
tp105
a(S'p1_tl'
I253
tp106
a(S'w'
I12
tp107
a(S'p2_vo'
I3
tp108
a(S'w'
I4
tp109
a(S'p2_tl'
I254
tp110
a(S'w'
I13
tp111
a(S'tr_ll'
I1
tp112
a(S'w'
I1
tp113
a(S'tr_tl'
I254
tp114
a(S'w'
I11712
tp115
a(S'p1_vo'
I4
tp116
a(S'w'
I5
tp117
a(S'p1_tl'
I126
tp118
a(S'w'
I14
tp119
a(S'p2_vo'
I4
tp120
a(S'w'
I5
tp121
a(S'p2_tl'
I190
tp122
a(S'w'
I17
tp123
a(S'tr_ll'
I1
tp124
a(S'w'
I1
tp125
a(S'tr_tl'
I190
tp126
a(S'w'
I11693
tp127
a(S'p1_vo'
I3
tp128
a(S'w'
I5
tp129
a(S'p1_tl'
I253
tp130
a(S'w'
I12
tp131
a(S'p2_vo'
I3
tp132
a(S'w'
I4
tp133
a(S'p2_tl'
I254
tp134
a(S'w'
I13
tp135
a(S'tr_ll'
I1
tp136
a(S'w'
I1
tp137
a(S'tr_tl'
I254
tp138
a(S'w'
I11705
tp139
a(S'p1_vo'
I4
tp140
a(S'w'
I6
tp141
a(S'p1_tl'
I148
tp142
a(S'w'
I11
tp143
a(S'p2_vo'
I4
tp144
a(S'w'
I5
tp145
a(S'p2_tl'
I201
tp146
a(S'w'
I14
tp147
a(S'tr_ll'
I1
tp148
a(S'w'
I1
tp149
a(S'tr_tl'
I201
tp150
a(S'w'
I11705
tp151
a(S'p1_vo'
I3
tp152
a(S'w'
I4
tp153
a(S'p1_tl'
I253
tp154
a(S'w'
I12
tp155
a(S'p2_vo'
I3
tp156
a(S'w'
I4
tp157
a(S'p2_tl'
I254
tp158
a(S'w'
I13
tp159
a(S'tr_ll'
I1
tp160
a(S'w'
I1
tp161
a(S'tr_tl'
I254
tp162
a(S'w'
I11712
tp163
a(S'p1_vo'
I4
tp164
a(S'w'
I5
tp165
a(S'p1_tl'
I126
tp166
a(S'w'
I14
tp167
a(S'p2_vo'
I4
tp168
a(S'w'
I5
tp169
a(S'p2_tl'
I190
tp170
a(S'w'
I17
tp171
a(S'tr_ll'
I1
tp172
a(S'w'
I1
tp173
a(S'tr_tl'
I190
tp174
a(S'w'
I11692
tp175
a(S'p1_vo'
I3
tp176
a(S'w'
I5
tp177
a(S'p1_tl'
I253
tp178
a(S'w'
I12
tp179
a(S'p2_vo'
I3
tp180
a(S'w'
I4
tp181
a(S'p2_tl'
I254
tp182
a(S'w'
I13
tp183
a(S'tr_ll'
I1
tp184
a(S'w'
I1
tp185
a(S'tr_tl'
I254
tp186
a(S'w'
I11707
tp187
a(S'p1_vo'
I4
tp188
a(S'w'
I5
tp189
a(S'p1_tl'
I148
tp190
a(S'w'
I11
tp191
a(S'p2_vo'
I4
tp192
a(S'w'
I5
tp193
a(S'p2_tl'
I201
tp194
a(S'w'
I14
tp195
a(S'tr_ll'
I1
tp196
a(S'w'
I1
tp197
a(S'tr_tl'
I201
tp198
a(S'w'
I11705
tp199
a(S'p1_vo'
I3
tp200
a(S'w'
I4
tp201
a(S'p1_tl'
I253
tp202
a(S'w'
I12
tp203
a(S'p2_vo'
I3
tp204
a(S'w'
I4
tp205
a(S'p2_tl'
I254
tp206
a(S'w'
I13
tp207
a(S'tr_ll'
I1
tp208
a(S'w'
I1
tp209
a(S'tr_tl'
I254
tp210
a(S'w'
I11711
tp211
a(S'p1_vo'
I4
tp212
a(S'w'
I5
tp213
a(S'p1_tl'
I126
tp214
a(S'w'
I14
tp215
a(S'p2_vo'
I4
tp216
a(S'w'
I5
tp217
a(S'p2_tl'
I190
tp218
a(S'w'
I17
tp219
a(S'tr_ll'
I1
tp220
a(S'w'
I1
tp221
a(S'tr_tl'
I190
tp222
a(S'w'
I11693
tp223
a(S'p1_vo'
I3
tp224
a(S'w'
I5
tp225
a(S'p1_tl'
I253
tp226
a(S'w'
I12
tp227
a(S'p2_vo'
I3
tp228
a(S'w'
I4
tp229
a(S'p2_tl'
I254
tp230
a(S'w'
I13
tp231
a(S'tr_ll'
I1
tp232
a(S'w'
I1
tp233
a(S'tr_tl'
I254
tp234
a(S'w'
I11707
tp235
a(S'p1_vo'
I4
tp236
a(S'w'
I5
tp237
a(S'p1_tl'
I148
tp238
a(S'w'
I11
tp239
a(S'p2_vo'
I4
tp240
a(S'w'
I5
tp241
a(S'p2_tl'
I201
tp242
a(S'w'
I14
tp243
a(S'tr_ll'
I1
tp244
a(S'w'
I1
tp245
a(S'tr_tl'
I201
tp246
a(S'w'
I11704
tp247
a(S'p1_vo'
I3
tp248
a(S'w'
I4
tp249
a(S'p1_tl'
I253
tp250
a(S'w'
I12
tp251
a(S'p2_vo'
I3
tp252
a(S'w'
I4
tp253
a(S'p2_tl'
I254
tp254
a(S'w'
I13
tp255
a(S'tr_ll'
I1
tp256
a(S'w'
I1
tp257
a(S'tr_tl'
I254
tp258
a(S'w'
I11712
tp259
a(S'p1_vo'
I4
tp260
a(S'w'
I5
tp261
a(S'p1_tl'
I126
tp262
a(S'w'
I14
tp263
a(S'p2_vo'
I4
tp264
a(S'w'
I5
tp265
a(S'p2_tl'
I190
tp266
a(S'w'
I17
tp267
a(S'tr_ll'
I1
tp268
a(S'w'
I1
tp269
a(S'tr_tl'
I190
tp270
a(S'w'
I11694
tp271
a(S'p1_vo'
I3
tp272
a(S'w'
I4
tp273
a(S'p1_tl'
I253
tp274
a(S'w'
I12
tp275
a(S'p2_vo'
I3
tp276
a(S'w'
I4
tp277
a(S'p2_tl'
I254
tp278
a(S'w'
I13
tp279
a(S'tr_ll'
I1
tp280
a(S'w'
I1
tp281
a(S'tr_tl'
I254
tp282
a(S'w'
I11706
tp283
a(S'p1_vo'
I4
tp284
a(S'w'
I5
tp285
a(S'p1_tl'
I148
tp286
a(S'w'
I11
tp287
a(S'p2_vo'
I4
tp288
a(S'w'
I5
tp289
a(S'p2_tl'
I201
tp290
a(S'w'
I14
tp291
a(S'tr_ll'
I1
tp292
a(S'w'
I1
tp293
a(S'tr_tl'
I201
tp294
a(S'w'
I11704
tp295
a(S'p1_vo'
I3
tp296
a(S'w'
I5
tp297
a(S'p1_tl'
I253
tp298
a(S'w'
I12
tp299
a(S'p2_vo'
I3
tp300
a(S'w'
I4
tp301
a(S'p2_tl'
I254
tp302
a(S'w'
I13
tp303
a(S'tr_ll'
I1
tp304
a(S'w'
I1
tp305
a(S'tr_tl'
I254
tp306
a(S'w'
I11712
tp307
a(S'p1_vo'
I4
tp308
a(S'w'
I5
tp309
a(S'p1_tl'
I126
tp310
a(S'w'
I14
tp311
a(S'p2_vo'
I4
tp312
a(S'w'
I5
tp313
a(S'p2_tl'
I190
tp314
a(S'w'
I17
tp315
a(S'tr_ll'
I1
tp316
a(S'w'
I1
tp317
a(S'tr_tl'
I190
tp318
a(S'w'
I11693
tp319
a(S'p1_vo'
I3
tp320
a(S'w'
I4
tp321
a(S'p1_tl'
I253
tp322
a(S'w'
I12
tp323
a(S'p2_vo'
I3
tp324
a(S'w'
I4
tp325
a(S'p2_tl'
I254
tp326
a(S'w'
I13
tp327
a(S'tr_ll'
I1
tp328
a(S'w'
I1
tp329
a(S'tr_tl'
I254
tp330
a(S'w'
I11706
tp331
a(S'p1_vo'
I4
tp332
a(S'w'
I6
tp333
a(S'p1_tl'
I148
tp334
a(S'w'
I11
tp335
a(S'p2_vo'
I4
tp336
a(S'w'
I5
tp337
a(S'p2_tl'
I201
tp338
a(S'w'
I14
tp339
a(S'tr_ll'
I1
tp340
a(S'w'
I1
tp341
a(S'tr_tl'
I201
tp342
a(S'w'
I11705
tp343
a(S'p1_vo'
I3
tp344
a(S'w'
I4
tp345
a(S'p1_tl'
I253
tp346
a(S'w'
I12
tp347
a(S'p2_vo'
I3
tp348
a(S'w'
I4
tp349
a(S'p2_tl'
I254
tp350
a(S'w'
I13
tp351
a(S'tr_ll'
I1
tp352
a(S'w'
I1
tp353
a(S'tr_tl'
I254
tp354
a(S'w'
I11711
tp355
a(S'p1_vo'
I4
tp356
a(S'w'
I5
tp357
a(S'p1_tl'
I126
tp358
a(S'w'
I14
tp359
a(S'p2_vo'
I4
tp360
a(S'w'
I5
tp361
a(S'p2_tl'
I190
tp362
a(S'w'
I17
tp363
a(S'tr_ll'
I1
tp364
a(S'w'
I1
tp365
a(S'tr_tl'
I190
tp366
a(S'w'
I11694
tp367
a(S'p1_vo'
I3
tp368
a(S'w'
I4
tp369
a(S'p1_tl'
I253
tp370
a(S'w'
I12
tp371
a(S'p2_vo'
I3
tp372
a(S'w'
I4
tp373
a(S'p2_tl'
I254
tp374
a(S'w'
I13
tp375
a(S'tr_ll'
I1
tp376
a(S'w'
I1
tp377
a(S'tr_tl'
I254
tp378
a(S'w'
I11706
tp379
a(S'p1_vo'
I4
tp380
a(S'w'
I5
tp381
a(S'p1_tl'
I148
tp382
a(S'w'
I11
tp383
a(S'p2_vo'
I4
tp384
a(S'w'
I5
tp385
a(S'p2_tl'
I201
tp386
a(S'w'
I14
tp387
a(S'tr_ll'
I1
tp388
a(S'w'
I1
tp389
a(S'tr_tl'
I201
tp390
a(S'w'
I11704
tp391
a(S'p1_vo'
I3
tp392
a(S'w'
I5
tp393
a(S'p1_tl'
I253
tp394
a(S'w'
I12
tp395
a(S'p2_vo'
I3
tp396
a(S'w'
I4
tp397
a(S'p2_tl'
I254
tp398
a(S'w'
I13
tp399
a(S'tr_ll'
I1
tp400
a(S'w'
I1
tp401
a(S'tr_tl'
I254
tp402
a(S'w'
I11712
tp403
a(S'p1_vo'
I4
tp404
a(S'w'
I5
tp405
a(S'p1_tl'
I126
tp406
a(S'w'
I14
tp407
a(S'p2_vo'
I4
tp408
a(S'w'
I5
tp409
a(S'p2_tl'
I190
tp410
a(S'w'
I12
tp411
a(S'w'
I4
tp412
a(S'tr_ll'
I1
tp413
a(S'w'
I1
tp414
a(S'tr_tl'
I190
tp415
a(S'w'
I5833
tp416
a(S'tr_ll'
I1
tp417
a(S'w'
I1
tp418
a(S'tr_tl'
I254
tp419
a(S'w'
I5860
tp420
a(S'p1_vo'
I3
tp421
a(S'w'
I4
tp422
a(S'p1_tl'
I253
tp423
a(S'w'
I12
tp424
a(S'p2_vo'
I3
tp425
a(S'w'
I4
tp426
a(S'p2_tl'
I254
tp427
a(S'w'
I13
tp428
a(S'tr_ll'
I1
tp429
a(S'w'
I1
tp430
a(S'tr_tl'
I190
tp431
a(S'w'
I5846
tp432
a(S'tr_ll'
I1
tp433
a(S'w'
I1
tp434
a(S'tr_tl'
I254
tp435
a(S'w'
I5859
tp436
a(S'p1_vo'
I4
tp437
a(S'w'
I6
tp438
a(S'p1_tl'
I148
tp439
a(S'w'
I11
tp440
a(S'p2_vo'
I4
tp441
a(S'w'
I5
tp442
a(S'p2_tl'
I201
tp443
a(S'w'
I13
tp444
a(S'tr_ll'
I1
tp445
a(S'w'
I1
tp446
a(S'tr_tl'
I201
tp447
a(S'w'
I5844
tp448
a(S'tr_ll'
I1
tp449
a(S'w'
I1
tp450
a(S'tr_tl'
I254
tp451
a(S'w'
I5861
tp452
a(S'p1_vo'
I3
tp453
a(S'w'
I4
tp454
a(S'p1_tl'
I253
tp455
a(S'w'
I12
tp456
a(S'p2_vo'
I3
tp457
a(S'w'
I4
tp458
a(S'p2_tl'
I254
tp459
a(S'w'
I13
tp460
a(S'tr_ll'
I1
tp461
a(S'w'
I1
tp462
a(S'tr_tl'
I201
tp463
a(S'w'
I5845
tp464
a(S'tr_ll'
I1
tp465
a(S'w'
I1
tp466
a(S'tr_tl'
I254
tp467
a(S'w'
I5865
tp468
a(S'p1_vo'
I4
tp469
a(S'w'
I5
tp470
a(S'p1_tl'
I126
tp471
a(S'w'
I14
tp472
a(S'p2_vo'
I4
tp473
a(S'w'
I5
tp474
a(S'p2_tl'
I190
tp475
a(S'w'
I16
tp476
a(S'tr_ll'
I1
tp477
a(S'w'
I1
tp478
a(S'tr_tl'
I190
tp479
a(S'w'
I5834
tp480
a(S'tr_ll'
I1
tp481
a(S'w'
I1
tp482
a(S'tr_tl'
I254
tp483
a(S'w'
I5859
tp484
a(S'p1_vo'
I3
tp485
a(S'w'
I5
tp486
a(S'p1_tl'
I253
tp487
a(S'w'
I12
tp488
a(S'p2_vo'
I3
tp489
a(S'w'
I4
tp490
a(S'p2_tl'
I254
tp491
a(S'w'
I13
tp492
a(S'tr_ll'
I1
tp493
a(S'w'
I1
tp494
a(S'tr_tl'
I190
tp495
a(S'w'
I5845
tp496
a(S'tr_ll'
I1
tp497
a(S'w'
I1
tp498
a(S'tr_tl'
I254
tp499
a(S'w'
I5861
tp500
a(S'p1_vo'
I4
tp501
a(S'w'
I5
tp502
a(S'p1_tl'
I148
tp503
a(S'w'
I11
tp504
a(S'p2_vo'
I4
tp505
a(S'w'
I5
tp506
a(S'p2_tl'
I201
tp507
a(S'w'
I13
tp508
a(S'tr_ll'
I1
tp509
a(S'w'
I2
tp510
a(S'tr_tl'
I201
tp511
a(S'w'
I5843
tp512
a(S'tr_ll'
I1
tp513
a(S'w'
I1
tp514
a(S'tr_tl'
I254
tp515
a(S'w'
I5860
tp516
a(S'p1_vo'
I3
tp517
a(S'w'
I4
tp518
a(S'p1_tl'
I253
tp519
a(S'w'
I12
tp520
a(S'p2_vo'
I3
tp521
a(S'w'
I4
tp522
a(S'p2_tl'
I254
tp523
a(S'w'
I13
tp524
a(S'tr_ll'
I1
tp525
a(S'w'
I1
tp526
a(S'tr_tl'
I201
tp527
a(S'w'
I5846
tp528
a(S'tr_ll'
I1
tp529
a(S'w'
I1
tp530
a(S'tr_tl'
I254
tp531
a(S'w'
I5865
tp532
a(S'p1_vo'
I4
tp533
a(S'w'
I5
tp534
a(S'p1_tl'
I126
tp535
a(S'w'
I14
tp536
a(S'p2_vo'
I4
tp537
a(S'w'
I5
tp538
a(S'p2_tl'
I190
tp539
a(S'w'
I16
tp540
a(S'tr_ll'
I1
tp541
a(S'w'
I1
tp542
a(S'tr_tl'
I190
tp543
a(S'w'
I5833
tp544
a(S'tr_ll'
I1
tp545
a(S'w'
I1
tp546
a(S'tr_tl'
I254
tp547
a(S'w'
I5861
tp548
a(S'p1_vo'
I3
tp549
a(S'w'
I4
tp550
a(S'p1_tl'
I253
tp551
a(S'w'
I12
tp552
a(S'p2_vo'
I3
tp553
a(S'w'
I4
tp554
a(S'p2_tl'
I254
tp555
a(S'w'
I13
tp556
a(S'tr_ll'
I1
tp557
a(S'w'
I1
tp558
a(S'tr_tl'
I190
tp559
a(S'w'
I5845
tp560
a(S'tr_ll'
I1
tp561
a(S'w'
I1
tp562
a(S'tr_tl'
I254
tp563
a(S'w'
I5860
tp564
a(S'p1_vo'
I4
tp565
a(S'w'
I5
tp566
a(S'p1_tl'
I148
tp567
a(S'w'
I11
tp568
a(S'p2_vo'
I4
tp569
a(S'w'
I5
tp570
a(S'p2_tl'
I201
tp571
a(S'w'
I13
tp572
a(S'tr_ll'
I1
tp573
a(S'w'
I2
tp574
a(S'tr_tl'
I201
tp575
a(S'w'
I5844
tp576
a(S'tr_ll'
I1
tp577
a(S'w'
I1
tp578
a(S'tr_tl'
I254
tp579
a(S'w'
I5860
tp580
a(S'p1_vo'
I3
tp581
a(S'w'
I4
tp582
a(S'p1_tl'
I253
tp583
a(S'w'
I12
tp584
a(S'p2_vo'
I3
tp585
a(S'w'
I4
tp586
a(S'p2_tl'
I254
tp587
a(S'w'
I13
tp588
a(S'tr_ll'
I1
tp589
a(S'w'
I1
tp590
a(S'tr_tl'
I201
tp591
a(S'w'
I5845
tp592
a(S'tr_ll'
I1
tp593
a(S'w'
I1
tp594
a(S'tr_tl'
I254
tp595
a(S'w'
I5866
tp596
a(S'p1_vo'
I4
tp597
a(S'w'
I5
tp598
a(S'p1_tl'
I126
tp599
a(S'w'
I14
tp600
a(S'p2_vo'
I4
tp601
a(S'w'
I5
tp602
a(S'p2_tl'
I190
tp603
a(S'w'
I16
tp604
a(S'tr_ll'
I1
tp605
a(S'w'
I1
tp606
a(S'tr_tl'
I190
tp607
a(S'w'
I5833
tp608
a(S'tr_ll'
I1
tp609
a(S'w'
I1
tp610
a(S'tr_tl'
I254
tp611
a(S'w'
I5860
tp612
a(S'p1_vo'
I3
tp613
a(S'w'
I4
tp614
a(S'p1_tl'
I253
tp615
a(S'w'
I12
tp616
a(S'p2_vo'
I3
tp617
a(S'w'
I4
tp618
a(S'p2_tl'
I254
tp619
a(S'w'
I13
tp620
a(S'tr_ll'
I1
tp621
a(S'w'
I1
tp622
a(S'tr_tl'
I190
tp623
a(S'w'
I5846
tp624
a(S'tr_ll'
I1
tp625
a(S'w'
I1
tp626
a(S'tr_tl'
I254
tp627
a(S'w'
I5860
tp628
a(S'p1_vo'
I4
tp629
a(S'w'
I5
tp630
a(S'p1_tl'
I148
tp631
a(S'w'
I11
tp632
a(S'p2_vo'
I4
tp633
a(S'w'
I5
tp634
a(S'p2_tl'
I201
tp635
a(S'w'
I13
tp636
a(S'tr_ll'
I1
tp637
a(S'w'
I2
tp638
a(S'tr_tl'
I201
tp639
a(S'w'
I5843
tp640
a(S'tr_ll'
I1
tp641
a(S'w'
I1
tp642
a(S'tr_tl'
I254
tp643
a(S'w'
I5860
tp644
a(S'p1_vo'
I3
tp645
a(S'w'
I5
tp646
a(S'p1_tl'
I253
tp647
a(S'w'
I12
tp648
a(S'p2_vo'
I3
tp649
a(S'w'
I4
tp650
a(S'p2_tl'
I254
tp651
a(S'w'
I13
tp652
a(S'tr_ll'
I1
tp653
a(S'w'
I1
tp654
a(S'tr_tl'
I201
tp655
a(S'w'
I5845
tp656
a(S'tr_ll'
I1
tp657
a(S'w'
I1
tp658
a(S'tr_tl'
I254
tp659
a(S'w'
I5632
tp660
a.