(lp1
(S'clock'
p2
I1789772
tp3
a(S'p2_lh'
I1
tp4
a(S'p2_cv'
I1
tp5
a(S'p2_sp'
I3
tp6
a(S'w'
I15
tp7
a(S'p2_du'
I3
tp8
a(S'p2_vo'
I6
tp9
a(S'w'
I5
tp10
a(S'p2_ll'
I1
tp11
a(S'w'
I1
tp12
a(S'p2_tl'
I213
tp13
a(S'w'
I10
tp14
a(S'tr_lr'
I12
tp15
a(S'w'
I4
tp16
a(S'tr_ll'
I1
tp17
a(S'w'
I1
tp18
a(S'tr_tl'
I213
tp19
a(S'w'
I705
tp20
a(S'p2_vo'
I5
tp21
a(S'w'
I1469
tp22
a(S'p2_vo'
I6
tp23
a(S'w'
I5
tp24
a(S'p2_tl'
I190
tp25
a(S'w'
I728
tp26
a(S'p2_vo'
I5
tp27
a(S'w'
I1468
tp28
a(S'p2_vo'
I6
tp29
a(S'w'
I5
tp30
a(S'p2_tl'
I179
tp31
a(S'w'
I11
tp32
a(S'tr_ll'
I1
tp33
a(S'w'
I717
tp34
a(S'p2_vo'
I5
tp35
a(S'w'
I1470
tp36
a(S'p2_vo'
I6
tp37
a(S'w'
I5
tp38
a(S'p2_tl'
I169
tp39
a(S'w'
I726
tp40
a(S'p2_vo'
I5
tp41
a(S'w'
I1477
tp42
a(S'tr_ll'
I1
tp43
a(S'w'
I4403
tp44
a(S'tr_ll'
I1
tp45
a(S'w'
I4397
tp46
a(S'p2_vo'
I6
tp47
a(S'w'
I6
tp48
a(S'p2_tl'
I213
tp49
a(S'w'
I16
tp50
a(S'tr_ll'
I1
tp51
a(S'w'
I708
tp52
a(S'p2_vo'
I5
tp53
a(S'w'
I1469
tp54
a(S'p2_vo'
I6
tp55
a(S'w'
I5
tp56
a(S'p2_tl'
I190
tp57
a(S'w'
I728
tp58
a(S'p2_vo'
I5
tp59
a(S'w'
I1468
tp60
a(S'p2_vo'
I6
tp61
a(S'w'
I5
tp62
a(S'p2_tl'
I179
tp63
a(S'w'
I11
tp64
a(S'tr_ll'
I1
tp65
a(S'w'
I717
tp66
a(S'p2_vo'
I5
tp67
a(S'w'
I1470
tp68
a(S'p2_vo'
I6
tp69
a(S'w'
I5
tp70
a(S'p2_tl'
I169
tp71
a(S'w'
I726
tp72
a(S'p2_vo'
I5
tp73
a(S'w'
I1477
tp74
a(S'tr_ll'
I1
tp75
a(S'w'
I4403
tp76
a(S'tr_ll'
I1
tp77
a(S'w'
I4397
tp78
a(S'p2_vo'
I6
tp79
a(S'w'
I6
tp80
a(S'p2_tl'
I213
tp81
a(S'w'
I16
tp82
a(S'tr_ll'
I1
tp83
a(S'w'
I708
tp84
a(S'p2_vo'
I5
tp85
a(S'w'
I1469
tp86
a(S'p2_vo'
I6
tp87
a(S'w'
I5
tp88
a(S'p2_tl'
I190
tp89
a(S'w'
I728
tp90
a(S'p2_vo'
I5
tp91
a(S'w'
I1468
tp92
a(S'p2_vo'
I6
tp93
a(S'w'
I5
tp94
a(S'p2_tl'
I179
tp95
a(S'w'
I11
tp96
a(S'tr_ll'
I1
tp97
a(S'w'
I717
tp98
a(S'p2_vo'
I5
tp99
a(S'w'
I1470
tp100
a(S'p2_vo'
I6
tp101
a(S'w'
I5
tp102
a(S'p2_tl'
I169
tp103
a(S'w'
I726
tp104
a(S'p2_vo'
I5
tp105
a(S'w'
I1477
tp106
a(S'tr_ll'
I1
tp107
a(S'w'
I4403
tp108
a(S'tr_ll'
I1
tp109
a(S'w'
I4397
tp110
a(S'p2_vo'
I6
tp111
a(S'w'
I6
tp112
a(S'p2_tl'
I213
tp113
a(S'w'
I16
tp114
a(S'tr_ll'
I1
tp115
a(S'w'
I708
tp116
a(S'p2_vo'
I5
tp117
a(S'w'
I1469
tp118
a(S'p2_vo'
I6
tp119
a(S'w'
I5
tp120
a(S'p2_tl'
I190
tp121
a(S'w'
I728
tp122
a(S'p2_vo'
I5
tp123
a(S'w'
I1468
tp124
a(S'p2_vo'
I6
tp125
a(S'w'
I5
tp126
a(S'p2_tl'
I179
tp127
a(S'w'
I11
tp128
a(S'tr_ll'
I1
tp129
a(S'w'
I717
tp130
a(S'p2_vo'
I5
tp131
a(S'w'
I1470
tp132
a(S'p2_vo'
I6
tp133
a(S'w'
I5
tp134
a(S'p2_tl'
I169
tp135
a(S'w'
I726
tp136
a(S'p2_vo'
I5
tp137
a(S'w'
I1477
tp138
a(S'tr_ll'
I1
tp139
a(S'w'
I4403
tp140
a(S'tr_ll'
I1
tp141
a(S'w'
I4400
tp142
a(S'p2_vo'
I6
tp143
a(S'w'
I5
tp144
a(S'p2_tl'
I240
tp145
a(S'w'
I15
tp146
a(S'tr_ll'
I1
tp147
a(S'w'
I1
tp148
a(S'tr_tl'
I240
tp149
a(S'w'
I706
tp150
a(S'p2_vo'
I5
tp151
a(S'w'
I1471
tp152
a(S'p2_vo'
I6
tp153
a(S'w'
I6
tp154
a(S'p2_tl'
I213
tp155
a(S'w'
I725
tp156
a(S'p2_vo'
I5
tp157
a(S'w'
I1468
tp158
a(S'p2_vo'
I6
tp159
a(S'w'
I5
tp160
a(S'p2_tl'
I201
tp161
a(S'w'
I10
tp162
a(S'tr_ll'
I1
tp163
a(S'w'
I718
tp164
a(S'p2_vo'
I5
tp165
a(S'w'
I1470
tp166
a(S'p2_vo'
I6
tp167
a(S'w'
I5
tp168
a(S'p2_tl'
I190
tp169
a(S'w'
I726
tp170
a(S'p2_vo'
I5
tp171
a(S'w'
I1477
tp172
a(S'tr_ll'
I1
tp173
a(S'w'
I4403
tp174
a(S'tr_ll'
I1
tp175
a(S'w'
I4397
tp176
a(S'p2_vo'
I6
tp177
a(S'w'
I5
tp178
a(S'p2_tl'
I240
tp179
a(S'w'
I11
tp180
a(S'tr_ll'
I1
tp181
a(S'w'
I714
tp182
a(S'p2_vo'
I5
tp183
a(S'w'
I1471
tp184
a(S'p2_vo'
I6
tp185
a(S'w'
I6
tp186
a(S'p2_tl'
I213
tp187
a(S'w'
I725
tp188
a(S'p2_vo'
I5
tp189
a(S'w'
I1468
tp190
a(S'p2_vo'
I6
tp191
a(S'w'
I5
tp192
a(S'p2_tl'
I201
tp193
a(S'w'
I10
tp194
a(S'tr_ll'
I1
tp195
a(S'w'
I718
tp196
a(S'p2_vo'
I5
tp197
a(S'w'
I1470
tp198
a(S'p2_vo'
I6
tp199
a(S'w'
I5
tp200
a(S'p2_tl'
I190
tp201
a(S'w'
I726
tp202
a(S'p2_vo'
I5
tp203
a(S'w'
I1477
tp204
a(S'tr_ll'
I1
tp205
a(S'w'
I4403
tp206
a(S'tr_ll'
I1
tp207
a(S'w'
I4397
tp208
a(S'p2_vo'
I6
tp209
a(S'w'
I5
tp210
a(S'p2_tl'
I240
tp211
a(S'w'
I11
tp212
a(S'tr_ll'
I1
tp213
a(S'w'
I714
tp214
a(S'p2_vo'
I5
tp215
a(S'w'
I1471
tp216
a(S'p2_vo'
I6
tp217
a(S'w'
I6
tp218
a(S'p2_tl'
I213
tp219
a(S'w'
I725
tp220
a(S'p2_vo'
I5
tp221
a(S'w'
I1468
tp222
a(S'p2_vo'
I6
tp223
a(S'w'
I5
tp224
a(S'p2_tl'
I201
tp225
a(S'w'
I10
tp226
a(S'tr_ll'
I1
tp227
a(S'w'
I718
tp228
a(S'p2_vo'
I5
tp229
a(S'w'
I1470
tp230
a(S'p2_vo'
I6
tp231
a(S'w'
I5
tp232
a(S'p2_tl'
I190
tp233
a(S'w'
I726
tp234
a(S'p2_vo'
I5
tp235
a(S'w'
I1477
tp236
a(S'tr_ll'
I1
tp237
a(S'w'
I4403
tp238
a(S'tr_ll'
I1
tp239
a(S'w'
I4397
tp240
a(S'p2_vo'
I6
tp241
a(S'w'
I5
tp242
a(S'p2_tl'
I240
tp243
a(S'w'
I11
tp244
a(S'tr_ll'
I1
tp245
a(S'w'
I714
tp246
a(S'p2_vo'
I5
tp247
a(S'w'
I1471
tp248
a(S'p2_vo'
I6
tp249
a(S'w'
I6
tp250
a(S'p2_tl'
I213
tp251
a(S'w'
I725
tp252
a(S'p2_vo'
I5
tp253
a(S'w'
I1468
tp254
a(S'p2_vo'
I6
tp255
a(S'w'
I5
tp256
a(S'p2_tl'
I201
tp257
a(S'w'
I10
tp258
a(S'tr_ll'
I1
tp259
a(S'w'
I718
tp260
a(S'p2_vo'
I5
tp261
a(S'w'
I1470
tp262
a(S'p2_vo'
I6
tp263
a(S'w'
I5
tp264
a(S'p2_tl'
I190
tp265
a(S'w'
I726
tp266
a(S'p2_vo'
I5
tp267
a(S'w'
I1477
tp268
a(S'tr_ll'
I1
tp269
a(S'w'
I4403
tp270
a(S'tr_ll'
I1
tp271
a(S'w'
I4400
tp272
a(S'p2_vo'
I6
tp273
a(S'w'
I5
tp274
a(S'p2_tl'
I213
tp275
a(S'w'
I14
tp276
a(S'tr_ll'
I1
tp277
a(S'w'
I1
tp278
a(S'tr_tl'
I213
tp279
a(S'w'
I707
tp280
a(S'p2_vo'
I5
tp281
a(S'w'
I1469
tp282
a(S'p2_vo'
I6
tp283
a(S'w'
I5
tp284
a(S'p2_tl'
I190
tp285
a(S'w'
I728
tp286
a(S'p2_vo'
I5
tp287
a(S'w'
I1468
tp288
a(S'p2_vo'
I6
tp289
a(S'w'
I5
tp290
a(S'p2_tl'
I179
tp291
a(S'w'
I11
tp292
a(S'tr_ll'
I1
tp293
a(S'w'
I717
tp294
a(S'p2_vo'
I5
tp295
a(S'w'
I1470
tp296
a(S'p2_vo'
I6
tp297
a(S'w'
I5
tp298
a(S'p2_tl'
I169
tp299
a(S'w'
I726
tp300
a(S'p2_vo'
I5
tp301
a(S'w'
I1477
tp302
a(S'tr_ll'
I1
tp303
a(S'w'
I4403
tp304
a(S'tr_ll'
I1
tp305
a(S'w'
I4397
tp306
a(S'p2_vo'
I6
tp307
a(S'w'
I6
tp308
a(S'p2_tl'
I213
tp309
a(S'w'
I16
tp310
a(S'tr_ll'
I1
tp311
a(S'w'
I708
tp312
a(S'p2_vo'
I5
tp313
a(S'w'
I1469
tp314
a(S'p2_vo'
I6
tp315
a(S'w'
I5
tp316
a(S'p2_tl'
I190
tp317
a(S'w'
I728
tp318
a(S'p2_vo'
I5
tp319
a(S'w'
I1468
tp320
a(S'p2_vo'
I6
tp321
a(S'w'
I5
tp322
a(S'p2_tl'
I179
tp323
a(S'w'
I11
tp324
a(S'tr_ll'
I1
tp325
a(S'w'
I717
tp326
a(S'p2_vo'
I5
tp327
a(S'w'
I1470
tp328
a(S'p2_vo'
I6
tp329
a(S'w'
I5
tp330
a(S'p2_tl'
I169
tp331
a(S'w'
I726
tp332
a(S'p2_vo'
I5
tp333
a(S'w'
I1477
tp334
a(S'tr_ll'
I1
tp335
a(S'w'
I4403
tp336
a(S'tr_ll'
I1
tp337
a(S'w'
I4397
tp338
a(S'p2_vo'
I6
tp339
a(S'w'
I6
tp340
a(S'p2_tl'
I213
tp341
a(S'w'
I16
tp342
a(S'tr_ll'
I1
tp343
a(S'w'
I708
tp344
a(S'p2_vo'
I5
tp345
a(S'w'
I1469
tp346
a(S'p2_vo'
I6
tp347
a(S'w'
I5
tp348
a(S'p2_tl'
I190
tp349
a(S'w'
I728
tp350
a(S'p2_vo'
I5
tp351
a(S'w'
I1468
tp352
a(S'p2_vo'
I6
tp353
a(S'w'
I5
tp354
a(S'p2_tl'
I179
tp355
a(S'w'
I11
tp356
a(S'tr_ll'
I1
tp357
a(S'w'
I717
tp358
a(S'p2_vo'
I5
tp359
a(S'w'
I1470
tp360
a(S'p2_vo'
I6
tp361
a(S'w'
I5
tp362
a(S'p2_tl'
I169
tp363
a(S'w'
I726
tp364
a(S'p2_vo'
I5
tp365
a(S'w'
I1477
tp366
a(S'tr_ll'
I1
tp367
a(S'w'
I4403
tp368
a(S'tr_ll'
I1
tp369
a(S'w'
I4397
tp370
a(S'p2_vo'
I6
tp371
a(S'w'
I6
tp372
a(S'p2_tl'
I213
tp373
a(S'w'
I16
tp374
a(S'tr_ll'
I1
tp375
a(S'w'
I708
tp376
a(S'p2_vo'
I5
tp377
a(S'w'
I1469
tp378
a(S'p2_vo'
I6
tp379
a(S'w'
I5
tp380
a(S'p2_tl'
I190
tp381
a(S'w'
I728
tp382
a(S'p2_vo'
I5
tp383
a(S'w'
I1468
tp384
a(S'p2_vo'
I6
tp385
a(S'w'
I5
tp386
a(S'p2_tl'
I179
tp387
a(S'w'
I11
tp388
a(S'tr_ll'
I1
tp389
a(S'w'
I717
tp390
a(S'p2_vo'
I5
tp391
a(S'w'
I1470
tp392
a(S'p2_vo'
I6
tp393
a(S'w'
I5
tp394
a(S'p2_tl'
I169
tp395
a(S'w'
I726
tp396
a(S'p2_vo'
I5
tp397
a(S'w'
I1477
tp398
a(S'tr_ll'
I1
tp399
a(S'w'
I4403
tp400
a(S'tr_ll'
I1
tp401
a(S'w'
I4400
tp402
a(S'p2_vo'
I6
tp403
a(S'w'
I5
tp404
a(S'p2_tl'
I240
tp405
a(S'w'
I15
tp406
a(S'tr_ll'
I1
tp407
a(S'w'
I1
tp408
a(S'tr_tl'
I240
tp409
a(S'w'
I706
tp410
a(S'p2_vo'
I5
tp411
a(S'w'
I1471
tp412
a(S'p2_vo'
I6
tp413
a(S'w'
I6
tp414
a(S'p2_tl'
I213
tp415
a(S'w'
I725
tp416
a(S'p2_vo'
I5
tp417
a(S'w'
I1468
tp418
a(S'p2_vo'
I6
tp419
a(S'w'
I5
tp420
a(S'p2_tl'
I201
tp421
a(S'w'
I10
tp422
a(S'tr_ll'
I1
tp423
a(S'w'
I718
tp424
a(S'p2_vo'
I5
tp425
a(S'w'
I1470
tp426
a(S'p2_vo'
I6
tp427
a(S'w'
I5
tp428
a(S'p2_tl'
I190
tp429
a(S'w'
I726
tp430
a(S'p2_vo'
I5
tp431
a(S'w'
I1477
tp432
a(S'tr_ll'
I1
tp433
a(S'w'
I4403
tp434
a(S'tr_ll'
I1
tp435
a(S'w'
I4397
tp436
a(S'p2_vo'
I6
tp437
a(S'w'
I5
tp438
a(S'p2_tl'
I240
tp439
a(S'w'
I11
tp440
a(S'tr_ll'
I1
tp441
a(S'w'
I714
tp442
a(S'p2_vo'
I5
tp443
a(S'w'
I1471
tp444
a(S'p2_vo'
I6
tp445
a(S'w'
I6
tp446
a(S'p2_tl'
I213
tp447
a(S'w'
I725
tp448
a(S'p2_vo'
I5
tp449
a(S'w'
I1468
tp450
a(S'p2_vo'
I6
tp451
a(S'w'
I5
tp452
a(S'p2_tl'
I201
tp453
a(S'w'
I10
tp454
a(S'tr_ll'
I1
tp455
a(S'w'
I718
tp456
a(S'p2_vo'
I5
tp457
a(S'w'
I1470
tp458
a(S'p2_vo'
I6
tp459
a(S'w'
I5
tp460
a(S'p2_tl'
I190
tp461
a(S'w'
I726
tp462
a(S'p2_vo'
I5
tp463
a(S'w'
I1477
tp464
a(S'tr_ll'
I1
tp465
a(S'w'
I4403
tp466
a(S'tr_ll'
I1
tp467
a(S'w'
I4397
tp468
a(S'p2_vo'
I6
tp469
a(S'w'
I5
tp470
a(S'p2_tl'
I240
tp471
a(S'w'
I11
tp472
a(S'tr_ll'
I1
tp473
a(S'w'
I714
tp474
a(S'p2_vo'
I5
tp475
a(S'w'
I1471
tp476
a(S'p2_vo'
I6
tp477
a(S'w'
I6
tp478
a(S'p2_tl'
I213
tp479
a(S'w'
I725
tp480
a(S'p2_vo'
I5
tp481
a(S'w'
I1468
tp482
a(S'p2_vo'
I6
tp483
a(S'w'
I5
tp484
a(S'p2_tl'
I201
tp485
a(S'w'
I10
tp486
a(S'tr_ll'
I1
tp487
a(S'w'
I718
tp488
a(S'p2_vo'
I5
tp489
a(S'w'
I1470
tp490
a(S'p2_vo'
I6
tp491
a(S'w'
I5
tp492
a(S'p2_tl'
I190
tp493
a(S'w'
I726
tp494
a(S'p2_vo'
I5
tp495
a(S'w'
I1477
tp496
a(S'tr_ll'
I1
tp497
a(S'w'
I4403
tp498
a(S'tr_ll'
I1
tp499
a(S'w'
I4397
tp500
a(S'p2_vo'
I6
tp501
a(S'w'
I5
tp502
a(S'p2_tl'
I240
tp503
a(S'w'
I11
tp504
a(S'tr_ll'
I1
tp505
a(S'w'
I714
tp506
a(S'p2_vo'
I5
tp507
a(S'w'
I1471
tp508
a(S'p2_vo'
I6
tp509
a(S'w'
I6
tp510
a(S'p2_tl'
I213
tp511
a(S'w'
I725
tp512
a(S'p2_vo'
I5
tp513
a(S'w'
I1468
tp514
a(S'p2_vo'
I6
tp515
a(S'w'
I5
tp516
a(S'p2_tl'
I201
tp517
a(S'w'
I10
tp518
a(S'tr_ll'
I1
tp519
a(S'w'
I718
tp520
a(S'p2_vo'
I5
tp521
a(S'w'
I1470
tp522
a(S'p2_vo'
I6
tp523
a(S'w'
I5
tp524
a(S'p2_tl'
I190
tp525
a(S'w'
I726
tp526
a(S'p2_vo'
I5
tp527
a(S'w'
I1477
tp528
a(S'tr_ll'
I1
tp529
a(S'w'
I4403
tp530
a(S'tr_ll'
I1
tp531
a(S'w'
I4397
tp532
a(S'p2_vo'
I6
tp533
a(S'w'
I5
tp534
a(S'p2_tl'
I213
tp535
a(S'w'
I14
tp536
a(S'tr_ll'
I1
tp537
a(S'w'
I1
tp538
a(S'tr_tl'
I160
tp539
a(S'w'
I710
tp540
a(S'p2_vo'
I5
tp541
a(S'w'
I1469
tp542
a(S'p2_vo'
I6
tp543
a(S'w'
I5
tp544
a(S'p2_tl'
I190
tp545
a(S'w'
I728
tp546
a(S'p2_vo'
I5
tp547
a(S'w'
I1468
tp548
a(S'p2_vo'
I6
tp549
a(S'w'
I5
tp550
a(S'p2_tl'
I169
tp551
a(S'w'
I11
tp552
a(S'tr_ll'
I1
tp553
a(S'w'
I717
tp554
a(S'p2_vo'
I5
tp555
a(S'w'
I1470
tp556
a(S'p2_vo'
I6
tp557
a(S'w'
I5
tp558
a(S'p2_tl'
I160
tp559
a(S'w'
I726
tp560
a(S'p2_vo'
I5
tp561
a(S'w'
I1477
tp562
a(S'tr_ll'
I1
tp563
a(S'w'
I4403
tp564
a(S'tr_ll'
I1
tp565
a(S'w'
I4397
tp566
a(S'p2_vo'
I6
tp567
a(S'w'
I6
tp568
a(S'p2_tl'
I213
tp569
a(S'w'
I16
tp570
a(S'tr_ll'
I1
tp571
a(S'w'
I708
tp572
a(S'p2_vo'
I5
tp573
a(S'w'
I1469
tp574
a(S'p2_vo'
I6
tp575
a(S'w'
I5
tp576
a(S'p2_tl'
I190
tp577
a(S'w'
I728
tp578
a(S'p2_vo'
I5
tp579
a(S'w'
I1468
tp580
a(S'p2_vo'
I6
tp581
a(S'w'
I5
tp582
a(S'p2_tl'
I169
tp583
a(S'w'
I11
tp584
a(S'tr_ll'
I1
tp585
a(S'w'
I717
tp586
a(S'p2_vo'
I5
tp587
a(S'w'
I1470
tp588
a(S'p2_vo'
I6
tp589
a(S'w'
I5
tp590
a(S'p2_tl'
I160
tp591
a(S'w'
I726
tp592
a(S'p2_vo'
I5
tp593
a(S'w'
I1477
tp594
a(S'tr_ll'
I1
tp595
a(S'w'
I4403
tp596
a(S'tr_ll'
I1
tp597
a(S'w'
I4397
tp598
a(S'p2_vo'
I6
tp599
a(S'w'
I6
tp600
a(S'p2_tl'
I213
tp601
a(S'w'
I16
tp602
a(S'tr_ll'
I1
tp603
a(S'w'
I708
tp604
a(S'p2_vo'
I5
tp605
a(S'w'
I1469
tp606
a(S'p2_vo'
I6
tp607
a(S'w'
I5
tp608
a(S'p2_tl'
I190
tp609
a(S'w'
I728
tp610
a(S'p2_vo'
I5
tp611
a(S'w'
I1468
tp612
a(S'p2_vo'
I6
tp613
a(S'w'
I5
tp614
a(S'p2_tl'
I169
tp615
a(S'w'
I11
tp616
a(S'tr_ll'
I1
tp617
a(S'w'
I717
tp618
a(S'p2_vo'
I5
tp619
a(S'w'
I1470
tp620
a(S'p2_vo'
I6
tp621
a(S'w'
I5
tp622
a(S'p2_tl'
I160
tp623
a(S'w'
I726
tp624
a(S'p2_vo'
I5
tp625
a(S'w'
I1477
tp626
a(S'tr_ll'
I1
tp627
a(S'w'
I4403
tp628
a(S'tr_ll'
I1
tp629
a(S'w'
I4397
tp630
a(S'p2_vo'
I6
tp631
a(S'w'
I6
tp632
a(S'p2_tl'
I213
tp633
a(S'w'
I16
tp634
a(S'tr_ll'
I1
tp635
a(S'w'
I708
tp636
a(S'p2_vo'
I5
tp637
a(S'w'
I1469
tp638
a(S'p2_vo'
I6
tp639
a(S'w'
I5
tp640
a(S'p2_tl'
I190
tp641
a(S'w'
I728
tp642
a(S'p2_vo'
I5
tp643
a(S'w'
I1468
tp644
a(S'p2_vo'
I6
tp645
a(S'w'
I5
tp646
a(S'p2_tl'
I169
tp647
a(S'w'
I11
tp648
a(S'tr_ll'
I1
tp649
a(S'w'
I717
tp650
a(S'p2_vo'
I5
tp651
a(S'w'
I1470
tp652
a(S'p2_vo'
I6
tp653
a(S'w'
I5
tp654
a(S'p2_tl'
I160
tp655
a(S'w'
I726
tp656
a(S'p2_vo'
I5
tp657
a(S'w'
I1477
tp658
a(S'tr_ll'
I1
tp659
a(S'w'
I4403
tp660
a(S'tr_ll'
I1
tp661
a(S'w'
I4399
tp662
a(S'p2_vo'
I6
tp663
a(S'w'
I5
tp664
a(S'p2_tl'
I240
tp665
a(S'w'
I13
tp666
a(S'tr_ll'
I1
tp667
a(S'w'
I1
tp668
a(S'tr_tl'
I151
tp669
a(S'w'
I709
tp670
a(S'p2_vo'
I5
tp671
a(S'w'
I1471
tp672
a(S'p2_vo'
I6
tp673
a(S'w'
I6
tp674
a(S'p2_tl'
I213
tp675
a(S'w'
I725
tp676
a(S'p2_vo'
I5
tp677
a(S'w'
I1468
tp678
a(S'p2_vo'
I6
tp679
a(S'w'
I5
tp680
a(S'p2_tl'
I190
tp681
a(S'w'
I11
tp682
a(S'tr_ll'
I1
tp683
a(S'w'
I717
tp684
a(S'p2_vo'
I5
tp685
a(S'w'
I1470
tp686
a(S'p2_vo'
I6
tp687
a(S'w'
I5
tp688
a(S'p2_tl'
I127
tp689
a(S'w'
I726
tp690
a(S'p2_vo'
I5
tp691
a(S'w'
I1477
tp692
a(S'tr_ll'
I1
tp693
a(S'w'
I4403
tp694
a(S'tr_ll'
I1
tp695
a(S'w'
I4396
tp696
a(S'p2_vo'
I6
tp697
a(S'w'
I5
tp698
a(S'p2_tl'
I240
tp699
a(S'w'
I11
tp700
a(S'tr_ll'
I1
tp701
a(S'w'
I715
tp702
a(S'p2_vo'
I5
tp703
a(S'w'
I1471
tp704
a(S'p2_vo'
I6
tp705
a(S'w'
I6
tp706
a(S'p2_tl'
I213
tp707
a(S'w'
I725
tp708
a(S'p2_vo'
I5
tp709
a(S'w'
I1468
tp710
a(S'p2_vo'
I6
tp711
a(S'w'
I5
tp712
a(S'p2_tl'
I190
tp713
a(S'w'
I11
tp714
a(S'tr_ll'
I1
tp715
a(S'w'
I717
tp716
a(S'p2_vo'
I5
tp717
a(S'w'
I1470
tp718
a(S'p2_vo'
I6
tp719
a(S'w'
I5
tp720
a(S'p2_tl'
I127
tp721
a(S'w'
I726
tp722
a(S'p2_vo'
I5
tp723
a(S'w'
I1477
tp724
a(S'tr_ll'
I1
tp725
a(S'w'
I4403
tp726
a(S'tr_ll'
I1
tp727
a(S'w'
I4396
tp728
a(S'p2_vo'
I6
tp729
a(S'w'
I5
tp730
a(S'p2_tl'
I240
tp731
a(S'w'
I11
tp732
a(S'tr_ll'
I1
tp733
a(S'w'
I715
tp734
a(S'p2_vo'
I5
tp735
a(S'w'
I1471
tp736
a(S'p2_vo'
I6
tp737
a(S'w'
I6
tp738
a(S'p2_tl'
I213
tp739
a(S'w'
I725
tp740
a(S'p2_vo'
I5
tp741
a(S'w'
I1468
tp742
a(S'p2_vo'
I6
tp743
a(S'w'
I5
tp744
a(S'p2_tl'
I190
tp745
a(S'w'
I11
tp746
a(S'tr_ll'
I1
tp747
a(S'w'
I717
tp748
a(S'p2_vo'
I5
tp749
a(S'w'
I1470
tp750
a(S'p2_vo'
I6
tp751
a(S'w'
I5
tp752
a(S'p2_tl'
I127
tp753
a(S'w'
I726
tp754
a(S'p2_vo'
I5
tp755
a(S'w'
I1477
tp756
a(S'tr_ll'
I1
tp757
a(S'w'
I4403
tp758
a(S'tr_ll'
I1
tp759
a(S'w'
I4396
tp760
a(S'p2_vo'
I6
tp761
a(S'w'
I5
tp762
a(S'p2_tl'
I240
tp763
a(S'w'
I11
tp764
a(S'tr_ll'
I1
tp765
a(S'w'
I715
tp766
a(S'p2_vo'
I5
tp767
a(S'w'
I1471
tp768
a(S'p2_vo'
I6
tp769
a(S'w'
I6
tp770
a(S'p2_tl'
I213
tp771
a(S'w'
I725
tp772
a(S'p2_vo'
I5
tp773
a(S'w'
I1468
tp774
a(S'p2_vo'
I6
tp775
a(S'w'
I5
tp776
a(S'p2_tl'
I190
tp777
a(S'w'
I11
tp778
a(S'tr_ll'
I1
tp779
a(S'w'
I717
tp780
a(S'p2_vo'
I5
tp781
a(S'w'
I1470
tp782
a(S'p2_vo'
I6
tp783
a(S'w'
I5
tp784
a(S'p2_tl'
I127
tp785
a(S'w'
I726
tp786
a(S'p2_vo'
I5
tp787
a(S'w'
I1477
tp788
a(S'tr_ll'
I1
tp789
a(S'w'
I4403
tp790
a(S'tr_ll'
I1
tp791
a(S'w'
I4394
tp792
a(S'p2_vo'
I6
tp793
a(S'w'
I5
tp794
a(S'p2_tl'
I190
tp795
a(S'w'
I11
tp796
a(S'tr_ll'
I1
tp797
a(S'w'
I1
tp798
a(S'tr_tl'
I142
tp799
a(S'w'
I716
tp800
a(S'p2_vo'
I5
tp801
a(S'w'
I1469
tp802
a(S'p2_vo'
I6
tp803
a(S'w'
I5
tp804
a(S'p2_tl'
I169
tp805
a(S'w'
I728
tp806
a(S'p2_vo'
I5
tp807
a(S'w'
I1468
tp808
a(S'p2_vo'
I6
tp809
a(S'w'
I5
tp810
a(S'p2_tl'
I142
tp811
a(S'w'
I11
tp812
a(S'tr_ll'
I1
tp813
a(S'w'
I717
tp814
a(S'p2_vo'
I5
tp815
a(S'w'
I1470
tp816
a(S'p2_vo'
I6
tp817
a(S'w'
I5
tp818
a(S'p2_tl'
I113
tp819
a(S'w'
I726
tp820
a(S'p2_vo'
I5
tp821
a(S'w'
I1477
tp822
a(S'tr_ll'
I1
tp823
a(S'w'
I4403
tp824
a(S'tr_ll'
I1
tp825
a(S'w'
I4397
tp826
a(S'p2_vo'
I6
tp827
a(S'w'
I6
tp828
a(S'p2_tl'
I106
tp829
a(S'w'
I11
tp830
a(S'tr_ll'
I1
tp831
a(S'w'
I713
tp832
a(S'p2_vo'
I5
tp833
a(S'w'
I3672
tp834
a(S'p2_vo'
I6
tp835
a(S'w'
I6
tp836
a(S'p2_tl'
I95
tp837
a(S'w'
I9
tp838
a(S'tr_lr'
I112
tp839
a(S'w'
I5
tp840
a(S'tr_ll'
I1
tp841
a(S'w'
I711
tp842
a(S'p2_vo'
I5
tp843
a(S'w'
I19082
tp844
a(S'tr_lr'
I71
tp845
a(S'w'
I2201
tp846
a(S'p2_vo'
I4
tp847
a(S'w'
I6
tp848
a(S'w'
I4397
tp849
a(S'p2_vo'
I3
tp850
a(S'w'
I6
tp851
a(S'w'
I4396
tp852
a(S'p2_vo'
I2
tp853
a(S'w'
I6
tp854
a(S'w'
I4399
tp855
a(S'p1_lh'
I1
tp856
a(S'p1_cv'
I1
tp857
a(S'p1_sp'
I3
tp858
a(S'w'
I5
tp859
a(S'p2_du'
I0
tp860
a(S'p2_vo'
I0
tp861
a(S'w'
I4
tp862
a(S'tr_lr'
I0
tp863
a(S'w'
I4
tp864
a(S'no_lh'
I1
tp865
a(S'no_cv'
I1
tp866
a(S'w'
I51531
tp867
a.