(lp1
(S'clock'
p2
I1789772
tp3
a(S'p1_lh'
I1
tp4
a(S'p1_cv'
I1
tp5
a(S'p1_sp'
I3
tp6
a(S'p2_lh'
I1
tp7
a(S'p2_cv'
I1
tp8
a(S'p2_sp'
I3
tp9
a(S'w'
I17
tp10
a(S'p1_du'
I3
tp11
a(S'p1_vo'
I5
tp12
a(S'w'
I5
tp13
a(S'p1_ll'
I1
tp14
a(S'p1_th'
I1
tp15
a(S'w'
I1
tp16
a(S'p1_tl'
I84
tp17
a(S'w'
I14
tp18
a(S'p2_du'
I3
tp19
a(S'p2_vo'
I6
tp20
a(S'w'
I5
tp21
a(S'p2_ll'
I1
tp22
a(S'p2_th'
I1
tp23
a(S'w'
I1
tp24
a(S'p2_tl'
I83
tp25
a(S'w'
I9
tp26
a(S'tr_lr'
I35
tp27
a(S'w'
I4
tp28
a(S'tr_ll'
I1
tp29
a(S'w'
I1
tp30
a(S'tr_tl'
I254
tp31
a(S'w'
I683
tp32
a(S'p1_vo'
I4
tp33
a(S'w'
I6
tp34
a(S'p2_vo'
I5
tp35
a(S'w'
I728
tp36
a(S'p1_vo'
I3
tp37
a(S'w'
I6
tp38
a(S'p2_vo'
I4
tp39
a(S'w'
I7345
tp40
a(S'tr_ll'
I1
tp41
a(S'tr_th'
I1
tp42
a(S'w'
I1
tp43
a(S'tr_tl'
I13
tp44
a(S'w'
I8805
tp45
a(S'tr_ll'
I1
tp46
a(S'w'
I1
tp47
a(S'tr_tl'
I46
tp48
a(S'w'
I8804
tp49
a(S'tr_ll'
I1
tp50
a(S'w'
I1
tp51
a(S'tr_tl'
I83
tp52
a(S'w'
I8805
tp53
a(S'tr_ll'
I1
tp54
a(S'tr_th'
I0
tp55
a(S'w'
I1
tp56
a(S'tr_tl'
I254
tp57
a(S'w'
I8804
tp58
a(S'tr_ll'
I1
tp59
a(S'tr_th'
I1
tp60
a(S'w'
I1
tp61
a(S'tr_tl'
I13
tp62
a(S'w'
I6590
tp63
a(S'p1_vo'
I2
tp64
a(S'w'
I6
tp65
a(S'p2_vo'
I3
tp66
a(S'w'
I728
tp67
a(S'p1_vo'
I1
tp68
a(S'w'
I6
tp69
a(S'p2_vo'
I2
tp70
a(S'w'
I728
tp71
a(S'p1_vo'
I0
tp72
a(S'w'
I6
tp73
a(S'p2_vo'
I1
tp74
a(S'w'
I733
tp75
a(S'p1_du'
I2
tp76
a(S'p1_vo'
I4
tp77
a(S'w'
I6
tp78
a(S'p1_ll'
I1
tp79
a(S'p1_th'
I0
tp80
a(S'w'
I1
tp81
a(S'p1_tl'
I202
tp82
a(S'w'
I11
tp83
a(S'p2_du'
I2
tp84
a(S'p2_vo'
I5
tp85
a(S'w'
I5
tp86
a(S'p2_ll'
I1
tp87
a(S'p2_th'
I0
tp88
a(S'w'
I1
tp89
a(S'p2_tl'
I201
tp90
a(S'w'
I10
tp91
a(S'tr_ll'
I1
tp92
a(S'w'
I2
tp93
a(S'tr_tl'
I46
tp94
a(S'w'
I692
tp95
a(S'p1_vo'
I3
tp96
a(S'w'
I6
tp97
a(S'p2_vo'
I4
tp98
a(S'w'
I728
tp99
a(S'p1_vo'
I2
tp100
a(S'w'
I6
tp101
a(S'p2_vo'
I3
tp102
a(S'w'
I2195
tp103
a(S'p1_vo'
I1
tp104
a(S'w'
I6
tp105
a(S'p2_vo'
I2
tp106
a(S'w'
I728
tp107
a(S'p1_vo'
I0
tp108
a(S'w'
I6
tp109
a(S'p2_vo'
I1
tp110
a(S'w'
I732
tp111
a(S'p2_vo'
I0
tp112
a(S'w'
I734
tp113
a(S'p1_vo'
I4
tp114
a(S'w'
I5
tp115
a(S'p1_tl'
I227
tp116
a(S'w'
I10
tp117
a(S'p2_vo'
I5
tp118
a(S'w'
I5
tp119
a(S'p2_tl'
I226
tp120
a(S'w'
I710
tp121
a(S'p1_vo'
I3
tp122
a(S'w'
I6
tp123
a(S'p2_vo'
I4
tp124
a(S'w'
I727
tp125
a(S'p1_vo'
I2
tp126
a(S'w'
I6
tp127
a(S'p2_vo'
I3
tp128
a(S'w'
I1475
tp129
a(S'tr_ll'
I1
tp130
a(S'w'
I1
tp131
a(S'tr_tl'
I83
tp132
a(S'w'
I720
tp133
a(S'p1_vo'
I1
tp134
a(S'w'
I6
tp135
a(S'p2_vo'
I2
tp136
a(S'w'
I728
tp137
a(S'p1_vo'
I0
tp138
a(S'w'
I6
tp139
a(S'p2_vo'
I1
tp140
a(S'w'
I731
tp141
a(S'p2_vo'
I0
tp142
a(S'w'
I731
tp143
a(S'p1_vo'
I4
tp144
a(S'w'
I5
tp145
a(S'p1_tl'
I255
tp146
a(S'w'
I7
tp147
a(S'p2_vo'
I5
tp148
a(S'w'
I5
tp149
a(S'p2_tl'
I254
tp150
a(S'w'
I716
tp151
a(S'p1_vo'
I3
tp152
a(S'w'
I6
tp153
a(S'p2_vo'
I4
tp154
a(S'w'
I728
tp155
a(S'p1_vo'
I2
tp156
a(S'w'
I6
tp157
a(S'p2_vo'
I3
tp158
a(S'w'
I2195
tp159
a(S'p1_vo'
I1
tp160
a(S'w'
I6
tp161
a(S'p2_vo'
I2
tp162
a(S'w'
I728
tp163
a(S'p1_vo'
I0
tp164
a(S'w'
I6
tp165
a(S'p2_vo'
I1
tp166
a(S'w'
I732
tp167
a(S'p2_vo'
I0
tp168
a(S'w'
I731
tp169
a(S'p1_vo'
I4
tp170
a(S'w'
I5
tp171
a(S'p1_tl'
I227
tp172
a(S'w'
I7
tp173
a(S'p2_vo'
I5
tp174
a(S'w'
I5
tp175
a(S'p2_tl'
I226
tp176
a(S'w'
I11
tp177
a(S'tr_ll'
I1
tp178
a(S'w'
I1
tp179
a(S'tr_tl'
I29
tp180
a(S'w'
I703
tp181
a(S'p1_vo'
I3
tp182
a(S'w'
I6
tp183
a(S'p2_vo'
I4
tp184
a(S'w'
I728
tp185
a(S'p1_vo'
I2
tp186
a(S'w'
I6
tp187
a(S'p2_vo'
I3
tp188
a(S'w'
I2195
tp189
a(S'p1_vo'
I1
tp190
a(S'w'
I6
tp191
a(S'p2_vo'
I2
tp192
a(S'w'
I728
tp193
a(S'p1_vo'
I0
tp194
a(S'w'
I6
tp195
a(S'p2_vo'
I1
tp196
a(S'w'
I732
tp197
a(S'p2_vo'
I0
tp198
a(S'w'
I731
tp199
a(S'p1_vo'
I4
tp200
a(S'w'
I2
tp201
a(S'p1_vo'
I0
tp202
a(S'w'
I7
tp203
a(S'p2_vo'
I5
tp204
a(S'w'
I2
tp205
a(S'p2_vo'
I0
tp206
a(S'w'
I2934
tp207
a(S'tr_ll'
I1
tp208
a(S'w'
I1
tp209
a(S'tr_tl'
I46
tp210
a(S'w'
I2924
tp211
a(S'p1_vo'
I4
tp212
a(S'w'
I5
tp213
a(S'w'
I7
tp214
a(S'p2_vo'
I5
tp215
a(S'w'
I5
tp216
a(S'w'
I716
tp217
a(S'p1_vo'
I3
tp218
a(S'w'
I6
tp219
a(S'p2_vo'
I4
tp220
a(S'w'
I728
tp221
a(S'p1_vo'
I2
tp222
a(S'w'
I6
tp223
a(S'p2_vo'
I3
tp224
a(S'w'
I2195
tp225
a(S'p1_vo'
I1
tp226
a(S'w'
I6
tp227
a(S'p2_vo'
I2
tp228
a(S'w'
I728
tp229
a(S'p1_vo'
I0
tp230
a(S'w'
I6
tp231
a(S'p2_vo'
I1
tp232
a(S'w'
I732
tp233
a(S'p2_vo'
I0
tp234
a(S'w'
I736
tp235
a(S'p1_du'
I3
tp236
a(S'p1_vo'
I4
tp237
a(S'w'
I6
tp238
a(S'p1_tl'
I170
tp239
a(S'w'
I12
tp240
a(S'p2_du'
I3
tp241
a(S'p2_vo'
I5
tp242
a(S'w'
I5
tp243
a(S'p2_tl'
I169
tp244
a(S'w'
I10
tp245
a(S'tr_ll'
I1
tp246
a(S'w'
I2
tp247
a(S'tr_tl'
I83
tp248
a(S'w'
I692
tp249
a(S'p1_vo'
I3
tp250
a(S'w'
I6
tp251
a(S'p2_vo'
I4
tp252
a(S'w'
I728
tp253
a(S'p1_vo'
I2
tp254
a(S'w'
I6
tp255
a(S'p2_vo'
I3
tp256
a(S'w'
I7345
tp257
a(S'tr_ll'
I1
tp258
a(S'w'
I1
tp259
a(S'tr_tl'
I125
tp260
a(S'w'
I6590
tp261
a(S'p1_vo'
I1
tp262
a(S'w'
I6
tp263
a(S'p2_vo'
I2
tp264
a(S'w'
I728
tp265
a(S'p1_vo'
I0
tp266
a(S'w'
I6
tp267
a(S'p2_vo'
I1
tp268
a(S'w'
I732
tp269
a(S'p2_vo'
I0
tp270
a(S'w'
I733
tp271
a(S'p1_vo'
I4
tp272
a(S'w'
I2
tp273
a(S'p1_vo'
I0
tp274
a(S'w'
I8
tp275
a(S'p2_vo'
I5
tp276
a(S'w'
I2
tp277
a(S'p2_vo'
I0
tp278
a(S'w'
I10
tp279
a(S'tr_ll'
I1
tp280
a(S'w'
I2
tp281
a(S'tr_tl'
I29
tp282
a(S'w'
I5844
tp283
a(S'p1_vo'
I4
tp284
a(S'w'
I6
tp285
a(S'p1_tl'
I114
tp286
a(S'w'
I7
tp287
a(S'p2_vo'
I5
tp288
a(S'w'
I5
tp289
a(S'p2_tl'
I113
tp290
a(S'w'
I715
tp291
a(S'p1_vo'
I3
tp292
a(S'w'
I6
tp293
a(S'p2_vo'
I4
tp294
a(S'w'
I727
tp295
a(S'p1_vo'
I2
tp296
a(S'w'
I6
tp297
a(S'p2_vo'
I3
tp298
a(S'w'
I1475
tp299
a(S'tr_ll'
I1
tp300
a(S'w'
I2
tp301
a(S'tr_tl'
I46
tp302
a(S'w'
I719
tp303
a(S'p1_vo'
I1
tp304
a(S'w'
I6
tp305
a(S'p2_vo'
I2
tp306
a(S'w'
I728
tp307
a(S'p1_vo'
I0
tp308
a(S'w'
I6
tp309
a(S'p2_vo'
I1
tp310
a(S'w'
I731
tp311
a(S'p2_vo'
I0
tp312
a(S'w'
I731
tp313
a(S'p1_vo'
I4
tp314
a(S'w'
I6
tp315
a(S'w'
I7
tp316
a(S'p2_vo'
I5
tp317
a(S'w'
I5
tp318
a(S'w'
I715
tp319
a(S'p1_vo'
I3
tp320
a(S'w'
I6
tp321
a(S'p2_vo'
I4
tp322
a(S'w'
I728
tp323
a(S'p1_vo'
I2
tp324
a(S'w'
I6
tp325
a(S'p2_vo'
I3
tp326
a(S'w'
I2195
tp327
a(S'p1_vo'
I1
tp328
a(S'w'
I6
tp329
a(S'p2_vo'
I2
tp330
a(S'w'
I728
tp331
a(S'p1_vo'
I0
tp332
a(S'w'
I6
tp333
a(S'p2_vo'
I1
tp334
a(S'w'
I732
tp335
a(S'p2_vo'
I0
tp336
a(S'w'
I736
tp337
a(S'p1_vo'
I4
tp338
a(S'w'
I6
tp339
a(S'p1_tl'
I85
tp340
a(S'w'
I12
tp341
a(S'p2_vo'
I5
tp342
a(S'w'
I6
tp343
a(S'p2_tl'
I84
tp344
a(S'w'
I10
tp345
a(S'tr_ll'
I1
tp346
a(S'w'
I2
tp347
a(S'tr_tl'
I83
tp348
a(S'w'
I691
tp349
a(S'p1_vo'
I3
tp350
a(S'w'
I6
tp351
a(S'p2_vo'
I4
tp352
a(S'w'
I728
tp353
a(S'p1_vo'
I2
tp354
a(S'w'
I6
tp355
a(S'p2_vo'
I3
tp356
a(S'w'
I7345
tp357
a(S'tr_ll'
I1
tp358
a(S'w'
I1
tp359
a(S'tr_tl'
I125
tp360
a(S'w'
I6590
tp361
a(S'p1_vo'
I1
tp362
a(S'w'
I6
tp363
a(S'p2_vo'
I2
tp364
a(S'w'
I728
tp365
a(S'p1_vo'
I0
tp366
a(S'w'
I6
tp367
a(S'p2_vo'
I1
tp368
a(S'w'
I732
tp369
a(S'p2_vo'
I0
tp370
a(S'w'
I737
tp371
a(S'p1_vo'
I4
tp372
a(S'w'
I4
tp373
a(S'p1_ll'
I1
tp374
a(S'p1_th'
I1
tp375
a(S'w'
I2
tp376
a(S'p1_tl'
I84
tp377
a(S'w'
I12
tp378
a(S'p2_vo'
I5
tp379
a(S'w'
I5
tp380
a(S'p2_ll'
I1
tp381
a(S'p2_th'
I1
tp382
a(S'w'
I1
tp383
a(S'p2_tl'
I83
tp384
a(S'w'
I10
tp385
a(S'tr_ll'
I1
tp386
a(S'tr_th'
I0
tp387
a(S'w'
I1
tp388
a(S'tr_tl'
I254
tp389
a(S'w'
I691
tp390
a(S'p1_vo'
I3
tp391
a(S'w'
I6
tp392
a(S'p2_vo'
I4
tp393
a(S'w'
I728
tp394
a(S'p1_vo'
I2
tp395
a(S'w'
I6
tp396
a(S'p2_vo'
I3
tp397
a(S'w'
I7345
tp398
a(S'tr_ll'
I1
tp399
a(S'tr_th'
I1
tp400
a(S'w'
I1
tp401
a(S'tr_tl'
I13
tp402
a(S'w'
I8805
tp403
a(S'tr_ll'
I1
tp404
a(S'w'
I1
tp405
a(S'tr_tl'
I46
tp406
a(S'w'
I8804
tp407
a(S'tr_ll'
I1
tp408
a(S'w'
I1
tp409
a(S'tr_tl'
I83
tp410
a(S'w'
I8805
tp411
a(S'tr_ll'
I1
tp412
a(S'tr_th'
I0
tp413
a(S'w'
I1
tp414
a(S'tr_tl'
I254
tp415
a(S'w'
I8804
tp416
a(S'tr_ll'
I1
tp417
a(S'tr_th'
I1
tp418
a(S'w'
I1
tp419
a(S'tr_tl'
I13
tp420
a(S'w'
I6590
tp421
a(S'p1_vo'
I1
tp422
a(S'w'
I6
tp423
a(S'p2_vo'
I2
tp424
a(S'w'
I728
tp425
a(S'p1_vo'
I0
tp426
a(S'w'
I6
tp427
a(S'p2_vo'
I1
tp428
a(S'w'
I732
tp429
a(S'p2_vo'
I0
tp430
a(S'w'
I736
tp431
a(S'p1_du'
I2
tp432
a(S'p1_vo'
I4
tp433
a(S'w'
I5
tp434
a(S'p1_ll'
I1
tp435
a(S'p1_th'
I0
tp436
a(S'w'
I1
tp437
a(S'p1_tl'
I202
tp438
a(S'w'
I11
tp439
a(S'p2_du'
I2
tp440
a(S'p2_vo'
I5
tp441
a(S'w'
I5
tp442
a(S'p2_ll'
I1
tp443
a(S'p2_th'
I0
tp444
a(S'w'
I1
tp445
a(S'p2_tl'
I201
tp446
a(S'w'
I11
tp447
a(S'tr_ll'
I1
tp448
a(S'w'
I1
tp449
a(S'tr_tl'
I46
tp450
a(S'w'
I692
tp451
a(S'p1_vo'
I3
tp452
a(S'w'
I6
tp453
a(S'p2_vo'
I4
tp454
a(S'w'
I728
tp455
a(S'p1_vo'
I2
tp456
a(S'w'
I6
tp457
a(S'p2_vo'
I3
tp458
a(S'w'
I2195
tp459
a(S'p1_vo'
I1
tp460
a(S'w'
I6
tp461
a(S'p2_vo'
I2
tp462
a(S'w'
I728
tp463
a(S'p1_vo'
I0
tp464
a(S'w'
I6
tp465
a(S'p2_vo'
I1
tp466
a(S'w'
I732
tp467
a(S'p2_vo'
I0
tp468
a(S'w'
I734
tp469
a(S'p1_vo'
I4
tp470
a(S'w'
I5
tp471
a(S'p1_tl'
I227
tp472
a(S'w'
I10
tp473
a(S'p2_vo'
I5
tp474
a(S'w'
I5
tp475
a(S'p2_tl'
I226
tp476
a(S'w'
I710
tp477
a(S'p1_vo'
I3
tp478
a(S'w'
I6
tp479
a(S'p2_vo'
I4
tp480
a(S'w'
I727
tp481
a(S'p1_vo'
I2
tp482
a(S'w'
I6
tp483
a(S'p2_vo'
I3
tp484
a(S'w'
I1475
tp485
a(S'tr_ll'
I1
tp486
a(S'w'
I1
tp487
a(S'tr_tl'
I83
tp488
a(S'w'
I720
tp489
a(S'p1_vo'
I1
tp490
a(S'w'
I6
tp491
a(S'p2_vo'
I2
tp492
a(S'w'
I728
tp493
a(S'p1_vo'
I0
tp494
a(S'w'
I6
tp495
a(S'p2_vo'
I1
tp496
a(S'w'
I731
tp497
a(S'p2_vo'
I0
tp498
a(S'w'
I731
tp499
a(S'p1_vo'
I4
tp500
a(S'w'
I5
tp501
a(S'p1_tl'
I255
tp502
a(S'w'
I7
tp503
a(S'p2_vo'
I5
tp504
a(S'w'
I5
tp505
a(S'p2_tl'
I254
tp506
a(S'w'
I716
tp507
a(S'p1_vo'
I3
tp508
a(S'w'
I6
tp509
a(S'p2_vo'
I4
tp510
a(S'w'
I728
tp511
a(S'p1_vo'
I2
tp512
a(S'w'
I6
tp513
a(S'p2_vo'
I3
tp514
a(S'w'
I2195
tp515
a(S'p1_vo'
I1
tp516
a(S'w'
I6
tp517
a(S'p2_vo'
I2
tp518
a(S'w'
I728
tp519
a(S'p1_vo'
I0
tp520
a(S'w'
I6
tp521
a(S'p2_vo'
I1
tp522
a(S'w'
I732
tp523
a(S'p2_vo'
I0
tp524
a(S'w'
I731
tp525
a(S'p1_vo'
I4
tp526
a(S'w'
I5
tp527
a(S'p1_tl'
I227
tp528
a(S'w'
I7
tp529
a(S'p2_vo'
I5
tp530
a(S'w'
I5
tp531
a(S'p2_tl'
I226
tp532
a(S'w'
I11
tp533
a(S'tr_ll'
I1
tp534
a(S'w'
I1
tp535
a(S'tr_tl'
I29
tp536
a(S'w'
I703
tp537
a(S'p1_vo'
I3
tp538
a(S'w'
I6
tp539
a(S'p2_vo'
I4
tp540
a(S'w'
I728
tp541
a(S'p1_vo'
I2
tp542
a(S'w'
I6
tp543
a(S'p2_vo'
I3
tp544
a(S'w'
I2195
tp545
a(S'p1_vo'
I1
tp546
a(S'w'
I6
tp547
a(S'p2_vo'
I2
tp548
a(S'w'
I728
tp549
a(S'p1_vo'
I0
tp550
a(S'w'
I6
tp551
a(S'p2_vo'
I1
tp552
a(S'w'
I732
tp553
a(S'p2_vo'
I0
tp554
a(S'w'
I731
tp555
a(S'p1_vo'
I4
tp556
a(S'w'
I2
tp557
a(S'p1_vo'
I0
tp558
a(S'w'
I7
tp559
a(S'p2_vo'
I5
tp560
a(S'w'
I2
tp561
a(S'p2_vo'
I0
tp562
a(S'w'
I2934
tp563
a(S'tr_ll'
I1
tp564
a(S'w'
I1
tp565
a(S'tr_tl'
I46
tp566
a(S'w'
I2924
tp567
a(S'p1_vo'
I4
tp568
a(S'w'
I5
tp569
a(S'w'
I7
tp570
a(S'p2_vo'
I5
tp571
a(S'w'
I5
tp572
a(S'w'
I716
tp573
a(S'p1_vo'
I3
tp574
a(S'w'
I6
tp575
a(S'p2_vo'
I4
tp576
a(S'w'
I728
tp577
a(S'p1_vo'
I2
tp578
a(S'w'
I6
tp579
a(S'p2_vo'
I3
tp580
a(S'w'
I2195
tp581
a(S'p1_vo'
I1
tp582
a(S'w'
I6
tp583
a(S'p2_vo'
I2
tp584
a(S'w'
I728
tp585
a(S'p1_vo'
I0
tp586
a(S'w'
I6
tp587
a(S'p2_vo'
I1
tp588
a(S'w'
I732
tp589
a(S'p2_vo'
I0
tp590
a(S'w'
I736
tp591
a(S'p1_du'
I3
tp592
a(S'p1_vo'
I4
tp593
a(S'w'
I6
tp594
a(S'p1_tl'
I170
tp595
a(S'w'
I12
tp596
a(S'p2_du'
I3
tp597
a(S'p2_vo'
I5
tp598
a(S'w'
I5
tp599
a(S'p2_tl'
I169
tp600
a(S'w'
I10
tp601
a(S'tr_ll'
I1
tp602
a(S'w'
I2
tp603
a(S'tr_tl'
I83
tp604
a(S'w'
I692
tp605
a(S'p1_vo'
I3
tp606
a(S'w'
I6
tp607
a(S'p2_vo'
I4
tp608
a(S'w'
I728
tp609
a(S'p1_vo'
I2
tp610
a(S'w'
I6
tp611
a(S'p2_vo'
I3
tp612
a(S'w'
I7345
tp613
a(S'tr_ll'
I1
tp614
a(S'w'
I1
tp615
a(S'tr_tl'
I125
tp616
a(S'w'
I6590
tp617
a(S'p1_vo'
I1
tp618
a(S'w'
I6
tp619
a(S'p2_vo'
I2
tp620
a(S'w'
I728
tp621
a(S'p1_vo'
I0
tp622
a(S'w'
I6
tp623
a(S'p2_vo'
I1
tp624
a(S'w'
I732
tp625
a(S'p2_vo'
I0
tp626
a(S'w'
I733
tp627
a(S'p1_vo'
I5
tp628
a(S'w'
I2
tp629
a(S'p1_vo'
I0
tp630
a(S'w'
I8
tp631
a(S'p2_vo'
I6
tp632
a(S'w'
I2
tp633
a(S'p2_vo'
I0
tp634
a(S'w'
I10
tp635
a(S'tr_ll'
I1
tp636
a(S'w'
I2
tp637
a(S'tr_tl'
I29
tp638
a(S'w'
I5844
tp639
a(S'p1_vo'
I5
tp640
a(S'w'
I6
tp641
a(S'p1_tl'
I114
tp642
a(S'w'
I7
tp643
a(S'p2_vo'
I6
tp644
a(S'w'
I5
tp645
a(S'p2_tl'
I113
tp646
a(S'w'
I715
tp647
a(S'p1_vo'
I4
tp648
a(S'w'
I6
tp649
a(S'p2_vo'
I5
tp650
a(S'w'
I727
tp651
a(S'p1_vo'
I3
tp652
a(S'w'
I6
tp653
a(S'p2_vo'
I4
tp654
a(S'w'
I1475
tp655
a(S'tr_ll'
I1
tp656
a(S'w'
I1
tp657
a(S'tr_tl'
I46
tp658
a(S'w'
I720
tp659
a(S'p1_vo'
I2
tp660
a(S'w'
I6
tp661
a(S'p2_vo'
I3
tp662
a(S'w'
I728
tp663
a(S'p1_vo'
I1
tp664
a(S'w'
I6
tp665
a(S'p2_vo'
I2
tp666
a(S'w'
I727
tp667
a(S'p1_vo'
I0
tp668
a(S'w'
I6
tp669
a(S'p2_vo'
I1
tp670
a(S'w'
I729
tp671
a(S'p1_vo'
I5
tp672
a(S'w'
I6
tp673
a(S'w'
I7
tp674
a(S'p2_vo'
I6
tp675
a(S'w'
I5
tp676
a(S'w'
I715
tp677
a(S'p1_vo'
I4
tp678
a(S'w'
I6
tp679
a(S'p2_vo'
I5
tp680
a(S'w'
I728
tp681
a(S'p1_vo'
I3
tp682
a(S'w'
I6
tp683
a(S'p2_vo'
I4
tp684
a(S'w'
I2195
tp685
a(S'p1_vo'
I2
tp686
a(S'w'
I6
tp687
a(S'p2_vo'
I3
tp688
a(S'w'
I728
tp689
a(S'p1_vo'
I1
tp690
a(S'w'
I6
tp691
a(S'p2_vo'
I2
tp692
a(S'w'
I728
tp693
a(S'p1_vo'
I0
tp694
a(S'w'
I6
tp695
a(S'p2_vo'
I1
tp696
a(S'w'
I729
tp697
a(S'p1_vo'
I5
tp698
a(S'w'
I6
tp699
a(S'w'
I7
tp700
a(S'p2_vo'
I6
tp701
a(S'w'
I5
tp702
a(S'w'
I11
tp703
a(S'tr_ll'
I1
tp704
a(S'w'
I1
tp705
a(S'tr_tl'
I83
tp706
a(S'w'
I702
tp707
a(S'p1_vo'
I4
tp708
a(S'w'
I6
tp709
a(S'p2_vo'
I5
tp710
a(S'w'
I728
tp711
a(S'p1_vo'
I3
tp712
a(S'w'
I6
tp713
a(S'p2_vo'
I4
tp714
a(S'w'
I2195
tp715
a(S'p1_vo'
I2
tp716
a(S'w'
I6
tp717
a(S'p2_vo'
I3
tp718
a(S'w'
I728
tp719
a(S'p1_vo'
I1
tp720
a(S'w'
I6
tp721
a(S'p2_vo'
I2
tp722
a(S'w'
I728
tp723
a(S'p1_vo'
I0
tp724
a(S'w'
I6
tp725
a(S'p2_vo'
I1
tp726
a(S'w'
I729
tp727
a(S'p1_vo'
I5
tp728
a(S'w'
I2
tp729
a(S'p1_vo'
I0
tp730
a(S'w'
I7
tp731
a(S'p2_vo'
I6
tp732
a(S'w'
I2
tp733
a(S'p2_vo'
I0
tp734
a(S'w'
I2934
tp735
a(S'tr_ll'
I1
tp736
a(S'w'
I1
tp737
a(S'tr_tl'
I125
tp738
a(S'w'
I2927
tp739
a(S'p1_vo'
I5
tp740
a(S'w'
I6
tp741
a(S'p1_tl'
I85
tp742
a(S'w'
I10
tp743
a(S'p2_vo'
I6
tp744
a(S'w'
I6
tp745
a(S'p2_tl'
I84
tp746
a(S'w'
I708
tp747
a(S'p1_vo'
I4
tp748
a(S'w'
I6
tp749
a(S'p2_vo'
I5
tp750
a(S'w'
I728
tp751
a(S'p1_vo'
I3
tp752
a(S'w'
I6
tp753
a(S'p2_vo'
I4
tp754
a(S'w'
I2195
tp755
a(S'p1_vo'
I2
tp756
a(S'w'
I6
tp757
a(S'p2_vo'
I3
tp758
a(S'w'
I728
tp759
a(S'p1_vo'
I1
tp760
a(S'w'
I6
tp761
a(S'p2_vo'
I2
tp762
a(S'w'
I728
tp763
a(S'p1_vo'
I0
tp764
a(S'w'
I6
tp765
a(S'p2_vo'
I1
tp766
a(S'w'
I730
tp767
a(S'p1_vo'
I5
tp768
a(S'w'
I7
tp769
a(S'p1_tl'
I101
tp770
a(S'w'
I8
tp771
a(S'p2_vo'
I6
tp772
a(S'w'
I6
tp773
a(S'w'
I11
tp774
a(S'tr_lh'
I1
tp775
a(S'tr_lr'
I15
tp776
a(S'w'
I4
tp777
a(S'tr_ll'
I1
tp778
a(S'tr_th'
I0
tp779
a(S'w'
I1
tp780
a(S'tr_tl'
I254
tp781
a(S'w'
I2169
tp782
a(S'w'
I13
tp783
a(S'w'
I2188
tp784
a(S'w'
I13
tp785
a(S'w'
I2189
tp786
a(S'w'
I13
tp787
a(S'w'
I2188
tp788
a(S'w'
I13
tp789
a(S'w'
I2188
tp790
a(S'w'
I13
tp791
a(S'w'
I2189
tp792
a(S'w'
I13
tp793
a(S'w'
I2183
tp794
a(S'p1_vo'
I4
tp795
a(S'w'
I7
tp796
a(S'w'
I9
tp797
a(S'p2_vo'
I5
tp798
a(S'w'
I5
tp799
a(S'w'
I2186
tp800
a(S'w'
I2201
tp801
a(S'w'
I2203
tp802
a(S'w'
I14
tp803
a(S'w'
I2186
tp804
a(S'w'
I2201
tp805
a(S'w'
I2203
tp806
a(S'w'
I9
tp807
a(S'p2_vo'
I4
tp808
a(S'w'
I5
tp809
a(S'w'
I2186
tp810
a(S'w'
I2201
tp811
a(S'w'
I2197
tp812
a(S'p1_vo'
I3
tp813
a(S'w'
I7
tp814
a(S'w'
I9
tp815
a(S'p2_vo'
I3
tp816
a(S'w'
I5
tp817
a(S'w'
I2919
tp818
a(S'w'
I2935
tp819
a(S'w'
I734
tp820
a(S'p2_vo'
I2
tp821
a(S'w'
I6
tp822
a(S'w'
I2190
tp823
a(S'p1_vo'
I2
tp824
a(S'w'
I7
tp825
a(S'w'
I2199
tp826
a(S'w'
I2202
tp827
a(S'w'
I9
tp828
a(S'p2_vo'
I1
tp829
a(S'w'
I6
tp830
a(S'w'
I2181
tp831
a(S'p1_vo'
I1
tp832
a(S'w'
I7
tp833
a(S'w'
I2200
tp834
a(S'w'
I2201
tp835
a(S'w'
I16
tp836
a(S'w'
I2188
tp837
a(S'w'
I13201
tp838
a(S'p2_du'
I0
tp839
a(S'p2_vo'
I0
tp840
a(S'w'
I5
tp841
a(S'tr_lh'
I0
tp842
a(S'tr_lr'
I91
tp843
a(S'w'
I2199
tp844
a(S'p1_du'
I0
tp845
a(S'p1_vo'
I0
tp846
a(S'w'
I9
tp847
a(S'tr_lr'
I0
tp848
a(S'w'
I4
tp849
a(S'no_lh'
I1
tp850
a(S'no_cv'
I1
tp851
a(S'w'
I63346
tp852
a.