(lp1
(S'clock'
p2
I1789772
tp3
a(S'p1_du'
I2
tp4
a(S'p1_lh'
I1
tp5
a(S'p1_cv'
I1
tp6
a(S'p1_vo'
I5
tp7
a(S'p1_se'
I1
tp8
a(S'p1_sp'
I2
tp9
a(S'p1_sn'
I1
tp10
a(S'p1_tl'
I244
tp11
a(S'p1_ll'
I0
tp12
a(S'p1_th'
I5
tp13
a(S'p2_vo'
I1
tp14
a(S'tr_lr'
I64
tp15
a(S'ch_no'
I1
tp16
a(S'ch_tr'
I1
tp17
a(S'ch_p2'
I0
tp18
a(S'ch_p1'
I1
tp19
a(S'w'
I10930
tp20
a(S'tr_lr'
I32
tp21
a(S'w'
I1
tp22
a(S'w'
I1
tp23
a(S'tr_tl'
I189
tp24
a(S'tr_ll'
I23
tp25
a(S'w'
I1
tp26
a(S'no_vo'
I1
tp27
a(S'w'
I14
tp28
a(S'w'
I1
tp29
a(S'w'
I1
tp30
a(S'p1_tl'
I250
tp31
a(S'p1_ll'
I0
tp32
a(S'p1_th'
I2
tp33
a(S'w'
I1
tp34
a(S'w'
I14
tp35
a(S'no_vo'
I0
tp36
a(S'w'
I1
tp37
a(S'w'
I1
tp38
a(S'no_ll'
I0
tp39
a(S'w'
I11706
tp40
a(S'tr_tl'
I168
tp41
a(S'w'
I1
tp42
a(S'tr_ll'
I23
tp43
a(S'w'
I1
tp44
a(S'no_vo'
I1
tp45
a(S'w'
I15
tp46
a(S'p1_tl'
I244
tp47
a(S'w'
I1
tp48
a(S'p1_ll'
I0
tp49
a(S'p1_th'
I5
tp50
a(S'w'
I11723
tp51
a(S'tr_tl'
I159
tp52
a(S'w'
I1
tp53
a(S'tr_ll'
I23
tp54
a(S'w'
I16
tp55
a(S'p1_tl'
I250
tp56
a(S'w'
I1
tp57
a(S'p1_ll'
I0
tp58
a(S'p1_th'
I2
tp59
a(S'w'
I14
tp60
a(S'no_vo'
I0
tp61
a(S'w'
I2
tp62
a(S'w'
I1
tp63
a(S'no_ll'
I0
tp64
a(S'w'
I11706
tp65
a(S'tr_tl'
I126
tp66
a(S'w'
I1
tp67
a(S'tr_ll'
I23
tp68
a(S'w'
I1
tp69
a(S'no_vo'
I1
tp70
a(S'w'
I15
tp71
a(S'p1_tl'
I248
tp72
a(S'w'
I1
tp73
a(S'p1_ll'
I0
tp74
a(S'p1_th'
I3
tp75
a(S'w'
I11723
tp76
a(S'tr_tl'
I142
tp77
a(S'w'
I1
tp78
a(S'tr_ll'
I23
tp79
a(S'w'
I16
tp80
a(S'p1_tl'
I250
tp81
a(S'w'
I1
tp82
a(S'p1_ll'
I0
tp83
a(S'p1_th'
I1
tp84
a(S'w'
I14
tp85
a(S'no_vo'
I0
tp86
a(S'w'
I2
tp87
a(S'w'
I1
tp88
a(S'no_ll'
I0
tp89
a(S'w'
I11706
tp90
a(S'tr_tl'
I159
tp91
a(S'w'
I1
tp92
a(S'tr_ll'
I23
tp93
a(S'no_vo'
I1
tp94
a(S'w'
I16
tp95
a(S'p1_tl'
I248
tp96
a(S'p1_ll'
I0
tp97
a(S'p1_th'
I3
tp98
a(S'w'
I5853
tp99
a(S'tr_tl'
I168
tp100
a(S'w'
I1
tp101
a(S'tr_ll'
I23
tp102
a(S'w'
I5869
tp103
a(S'tr_tl'
I189
tp104
a(S'w'
I1
tp105
a(S'tr_ll'
I23
tp106
a(S'w'
I16
tp107
a(S'p1_tl'
I250
tp108
a(S'w'
I1
tp109
a(S'p1_ll'
I0
tp110
a(S'p1_th'
I1
tp111
a(S'w'
I15
tp112
a(S'no_vo'
I0
tp113
a(S'w'
I1
tp114
a(S'w'
I1
tp115
a(S'no_ll'
I0
tp116
a(S'w'
I5837
tp117
a(S'w'
I1
tp118
a(S'no_ll'
I0
tp119
a(S'w'
I5879
tp120
a(S'p1_tl'
I244
tp121
a(S'w'
I1
tp122
a(S'p1_ll'
I0
tp123
a(S'p1_th'
I5
tp124
a(S'w'
I13
tp125
a(S'w'
I11717
tp126
a(S'tr_ll'
I23
tp127
a(S'w'
I1
tp128
a(S'no_vo'
I1
tp129
a(S'w'
I15
tp130
a(S'p1_tl'
I250
tp131
a(S'w'
I1
tp132
a(S'p1_ll'
I0
tp133
a(S'p1_th'
I2
tp134
a(S'w'
I14
tp135
a(S'no_vo'
I0
tp136
a(S'w'
I1
tp137
a(S'w'
I1
tp138
a(S'w'
I1
tp139
a(S'no_ll'
I0
tp140
a(S'w'
I11706
tp141
a(S'tr_tl'
I168
tp142
a(S'w'
I1
tp143
a(S'tr_ll'
I23
tp144
a(S'w'
I1
tp145
a(S'no_vo'
I1
tp146
a(S'w'
I15
tp147
a(S'p1_tl'
I244
tp148
a(S'w'
I1
tp149
a(S'p1_ll'
I0
tp150
a(S'p1_th'
I5
tp151
a(S'w'
I11723
tp152
a(S'tr_tl'
I159
tp153
a(S'w'
I1
tp154
a(S'tr_ll'
I23
tp155
a(S'w'
I16
tp156
a(S'p1_tl'
I250
tp157
a(S'w'
I1
tp158
a(S'p1_ll'
I0
tp159
a(S'p1_th'
I2
tp160
a(S'w'
I14
tp161
a(S'no_vo'
I0
tp162
a(S'w'
I2
tp163
a(S'w'
I1
tp164
a(S'no_ll'
I0
tp165
a(S'w'
I11706
tp166
a(S'tr_tl'
I126
tp167
a(S'tr_ll'
I23
tp168
a(S'w'
I1
tp169
a(S'no_vo'
I1
tp170
a(S'w'
I16
tp171
a(S'p1_tl'
I248
tp172
a(S'p1_ll'
I0
tp173
a(S'p1_th'
I3
tp174
a(S'w'
I11724
tp175
a(S'p1_tl'
I250
tp176
a(S'w'
I1
tp177
a(S'p1_ll'
I0
tp178
a(S'p1_th'
I1
tp179
a(S'w'
I14
tp180
a(S'no_vo'
I0
tp181
a(S'w'
I2
tp182
a(S'w'
I1
tp183
a(S'no_ll'
I0
tp184
a(S'w'
I11722
tp185
a(S'tr_tl'
I159
tp186
a(S'w'
I1
tp187
a(S'tr_ll'
I23
tp188
a(S'w'
I1
tp189
a(S'no_vo'
I1
tp190
a(S'w'
I15
tp191
a(S'p1_tl'
I248
tp192
a(S'w'
I1
tp193
a(S'p1_ll'
I0
tp194
a(S'p1_th'
I3
tp195
a(S'w'
I5853
tp196
a(S'tr_tl'
I168
tp197
a(S'w'
I1
tp198
a(S'tr_ll'
I23
tp199
a(S'w'
I5869
tp200
a(S'tr_tl'
I159
tp201
a(S'w'
I1
tp202
a(S'tr_ll'
I23
tp203
a(S'w'
I16
tp204
a(S'p1_tl'
I250
tp205
a(S'w'
I1
tp206
a(S'p1_ll'
I0
tp207
a(S'p1_th'
I1
tp208
a(S'w'
I14
tp209
a(S'no_vo'
I0
tp210
a(S'w'
I2
tp211
a(S'w'
I1
tp212
a(S'no_ll'
I0
tp213
a(S'w'
I5837
tp214
a(S'w'
I1
tp215
a(S'no_ll'
I0
tp216
a(S'w'
I5878
tp217
a(S'p1_tl'
I71
tp218
a(S'w'
I1
tp219
a(S'p1_ll'
I0
tp220
a(S'p1_th'
I5
tp221
a(S'w'
I13
tp222
a(S'w'
I1
tp223
a(S'w'
I11716
tp224
a(S'tr_tl'
I168
tp225
a(S'w'
I1
tp226
a(S'tr_ll'
I23
tp227
a(S'no_vo'
I1
tp228
a(S'w'
I16
tp229
a(S'p1_tl'
I165
tp230
a(S'w'
I1
tp231
a(S'p1_ll'
I0
tp232
a(S'p1_th'
I2
tp233
a(S'w'
I14
tp234
a(S'no_vo'
I0
tp235
a(S'w'
I1
tp236
a(S'w'
I1
tp237
a(S'w'
I1
tp238
a(S'no_ll'
I0
tp239
a(S'w'
I11706
tp240
a(S'tr_tl'
I159
tp241
a(S'tr_ll'
I23
tp242
a(S'w'
I1
tp243
a(S'no_vo'
I1
tp244
a(S'w'
I16
tp245
a(S'p1_tl'
I71
tp246
a(S'p1_ll'
I0
tp247
a(S'p1_th'
I5
tp248
a(S'w'
I11723
tp249
a(S'tr_tl'
I142
tp250
a(S'w'
I1
tp251
a(S'tr_ll'
I23
tp252
a(S'w'
I16
tp253
a(S'p1_tl'
I165
tp254
a(S'w'
I1
tp255
a(S'p1_ll'
I0
tp256
a(S'p1_th'
I2
tp257
a(S'w'
I15
tp258
a(S'no_vo'
I0
tp259
a(S'w'
I1
tp260
a(S'w'
I1
tp261
a(S'no_ll'
I0
tp262
a(S'w'
I11706
tp263
a(S'tr_tl'
I126
tp264
a(S'w'
I1
tp265
a(S'tr_ll'
I23
tp266
a(S'w'
I1
tp267
a(S'no_vo'
I1
tp268
a(S'w'
I15
tp269
a(S'p1_tl'
I248
tp270
a(S'w'
I1
tp271
a(S'p1_ll'
I0
tp272
a(S'p1_th'
I3
tp273
a(S'w'
I11724
tp274
a(S'p1_tl'
I250
tp275
a(S'w'
I1
tp276
a(S'p1_ll'
I0
tp277
a(S'p1_th'
I1
tp278
a(S'w'
I14
tp279
a(S'no_vo'
I0
tp280
a(S'w'
I2
tp281
a(S'w'
I1
tp282
a(S'no_ll'
I0
tp283
a(S'w'
I11722
tp284
a(S'tr_tl'
I142
tp285
a(S'w'
I1
tp286
a(S'tr_ll'
I23
tp287
a(S'w'
I1
tp288
a(S'no_vo'
I1
tp289
a(S'w'
I15
tp290
a(S'p1_tl'
I248
tp291
a(S'w'
I1
tp292
a(S'p1_ll'
I0
tp293
a(S'p1_th'
I3
tp294
a(S'w'
I5852
tp295
a(S'tr_tl'
I159
tp296
a(S'w'
I1
tp297
a(S'tr_ll'
I23
tp298
a(S'w'
I5870
tp299
a(S'tr_tl'
I168
tp300
a(S'w'
I1
tp301
a(S'tr_ll'
I23
tp302
a(S'w'
I16
tp303
a(S'p1_tl'
I250
tp304
a(S'w'
I1
tp305
a(S'p1_ll'
I0
tp306
a(S'p1_th'
I1
tp307
a(S'w'
I14
tp308
a(S'no_vo'
I0
tp309
a(S'w'
I2
tp310
a(S'w'
I1
tp311
a(S'no_ll'
I0
tp312
a(S'w'
I5837
tp313
a(S'w'
I1
tp314
a(S'no_ll'
I0
tp315
a(S'w'
I5868
tp316
a(S'tr_tl'
I126
tp317
a(S'tr_ll'
I23
tp318
a(S'w'
I1
tp319
a(S'no_vo'
I1
tp320
a(S'w'
I16
tp321
a(S'p1_tl'
I244
tp322
a(S'p1_ll'
I0
tp323
a(S'p1_th'
I5
tp324
a(S'w'
I13
tp325
a(S'no_vo'
I0
tp326
a(S'w'
I1
tp327
a(S'w'
I11709
tp328
a(S'tr_tl'
I159
tp329
a(S'w'
I1
tp330
a(S'tr_ll'
I23
tp331
a(S'w'
I1
tp332
a(S'no_vo'
I1
tp333
a(S'w'
I15
tp334
a(S'p1_tl'
I250
tp335
a(S'w'
I1
tp336
a(S'p1_ll'
I0
tp337
a(S'p1_th'
I2
tp338
a(S'w'
I15
tp339
a(S'no_vo'
I0
tp340
a(S'w'
I1
tp341
a(S'w'
I1
tp342
a(S'no_ll'
I0
tp343
a(S'w'
I11706
tp344
a(S'tr_tl'
I168
tp345
a(S'w'
I1
tp346
a(S'tr_ll'
I23
tp347
a(S'w'
I1
tp348
a(S'no_vo'
I1
tp349
a(S'w'
I15
tp350
a(S'p1_tl'
I244
tp351
a(S'w'
I1
tp352
a(S'p1_ll'
I0
tp353
a(S'p1_th'
I5
tp354
a(S'w'
I5853
tp355
a(S'tr_tl'
I189
tp356
a(S'tr_ll'
I23
tp357
a(S'w'
I5870
tp358
a(S'tr_tl'
I168
tp359
a(S'w'
I1
tp360
a(S'tr_ll'
I23
tp361
a(S'w'
I16
tp362
a(S'p1_tl'
I250
tp363
a(S'w'
I1
tp364
a(S'p1_ll'
I0
tp365
a(S'p1_th'
I2
tp366
a(S'w'
I14
tp367
a(S'no_vo'
I0
tp368
a(S'w'
I2
tp369
a(S'w'
I1
tp370
a(S'no_ll'
I0
tp371
a(S'w'
I11706
tp372
a(S'tr_tl'
I126
tp373
a(S'w'
I1
tp374
a(S'tr_ll'
I23
tp375
a(S'w'
I1
tp376
a(S'no_vo'
I1
tp377
a(S'w'
I15
tp378
a(S'p1_tl'
I248
tp379
a(S'w'
I1
tp380
a(S'p1_ll'
I0
tp381
a(S'p1_th'
I3
tp382
a(S'w'
I11723
tp383
a(S'tr_tl'
I142
tp384
a(S'tr_ll'
I23
tp385
a(S'w'
I17
tp386
a(S'p1_tl'
I117
tp387
a(S'p1_ll'
I0
tp388
a(S'p1_th'
I4
tp389
a(S'w'
I15
tp390
a(S'no_vo'
I0
tp391
a(S'w'
I2
tp392
a(S'no_ll'
I0
tp393
a(S'w'
I11707
tp394
a(S'tr_tl'
I159
tp395
a(S'tr_ll'
I23
tp396
a(S'w'
I1
tp397
a(S'no_vo'
I1
tp398
a(S'w'
I15
tp399
a(S'p1_tl'
I253
tp400
a(S'w'
I1
tp401
a(S'p1_ll'
I0
tp402
a(S'w'
I5853
tp403
a(S'tr_tl'
I168
tp404
a(S'w'
I1
tp405
a(S'tr_ll'
I23
tp406
a(S'w'
I5869
tp407
a(S'tr_tl'
I159
tp408
a(S'w'
I1
tp409
a(S'tr_ll'
I23
tp410
a(S'w'
I15
tp411
a(S'no_vo'
I0
tp412
a(S'w'
I2
tp413
a(S'w'
I1
tp414
a(S'no_ll'
I0
tp415
a(S'w'
I5853
tp416
a(S'w'
I1
tp417
a(S'no_ll'
I0
tp418
a(S'w'
I5866
tp419
a(S'w'
I1
tp420
a(S'w'
I762
tp421
a(S'p1_tl'
I244
tp422
a(S'w'
I1
tp423
a(S'p1_ll'
I0
tp424
a(S'p1_th'
I5
tp425
a(S'w'
I10979
tp426
a(S'tr_tl'
I189
tp427
a(S'w'
I1
tp428
a(S'tr_ll'
I23
tp429
a(S'w'
I1
tp430
a(S'no_vo'
I1
tp431
a(S'w'
I15
tp432
a(S'p1_tl'
I250
tp433
a(S'w'
I1
tp434
a(S'p1_ll'
I0
tp435
a(S'p1_th'
I2
tp436
a(S'w'
I14
tp437
a(S'no_vo'
I0
tp438
a(S'w'
I1
tp439
a(S'w'
I1
tp440
a(S'w'
I1
tp441
a(S'no_ll'
I0
tp442
a(S'w'
I11706
tp443
a(S'tr_tl'
I168
tp444
a(S'w'
I1
tp445
a(S'tr_ll'
I23
tp446
a(S'no_vo'
I1
tp447
a(S'w'
I16
tp448
a(S'p1_tl'
I244
tp449
a(S'w'
I1
tp450
a(S'p1_ll'
I0
tp451
a(S'p1_th'
I5
tp452
a(S'w'
I11723
tp453
a(S'tr_tl'
I159
tp454
a(S'tr_ll'
I23
tp455
a(S'w'
I17
tp456
a(S'p1_tl'
I250
tp457
a(S'p1_ll'
I0
tp458
a(S'p1_th'
I2
tp459
a(S'w'
I15
tp460
a(S'no_vo'
I0
tp461
a(S'w'
I1
tp462
a(S'w'
I1
tp463
a(S'no_ll'
I0
tp464
a(S'w'
I11706
tp465
a(S'tr_tl'
I126
tp466
a(S'w'
I1
tp467
a(S'tr_ll'
I23
tp468
a(S'w'
I1
tp469
a(S'no_vo'
I1
tp470
a(S'w'
I15
tp471
a(S'p1_tl'
I248
tp472
a(S'w'
I1
tp473
a(S'p1_ll'
I0
tp474
a(S'p1_th'
I3
tp475
a(S'w'
I11723
tp476
a(S'tr_tl'
I142
tp477
a(S'w'
I1
tp478
a(S'tr_ll'
I23
tp479
a(S'w'
I16
tp480
a(S'p1_tl'
I250
tp481
a(S'w'
I1
tp482
a(S'p1_ll'
I0
tp483
a(S'p1_th'
I1
tp484
a(S'w'
I14
tp485
a(S'no_vo'
I0
tp486
a(S'w'
I2
tp487
a(S'w'
I1
tp488
a(S'no_ll'
I0
tp489
a(S'w'
I11706
tp490
a(S'tr_tl'
I159
tp491
a(S'w'
I1
tp492
a(S'tr_ll'
I23
tp493
a(S'w'
I1
tp494
a(S'no_vo'
I1
tp495
a(S'w'
I15
tp496
a(S'p1_tl'
I248
tp497
a(S'w'
I1
tp498
a(S'p1_ll'
I0
tp499
a(S'p1_th'
I3
tp500
a(S'w'
I5853
tp501
a(S'tr_tl'
I168
tp502
a(S'tr_ll'
I23
tp503
a(S'w'
I5870
tp504
a(S'tr_tl'
I189
tp505
a(S'w'
I1
tp506
a(S'tr_ll'
I23
tp507
a(S'w'
I16
tp508
a(S'p1_tl'
I250
tp509
a(S'w'
I1
tp510
a(S'p1_ll'
I0
tp511
a(S'p1_th'
I1
tp512
a(S'w'
I14
tp513
a(S'no_vo'
I0
tp514
a(S'w'
I2
tp515
a(S'w'
I1
tp516
a(S'no_ll'
I0
tp517
a(S'w'
I5837
tp518
a(S'w'
I1
tp519
a(S'no_ll'
I0
tp520
a(S'w'
I5878
tp521
a(S'p1_tl'
I244
tp522
a(S'w'
I1
tp523
a(S'p1_ll'
I0
tp524
a(S'p1_th'
I5
tp525
a(S'w'
I13
tp526
a(S'w'
I11717
tp527
a(S'tr_ll'
I23
tp528
a(S'w'
I1
tp529
a(S'no_vo'
I1
tp530
a(S'w'
I15
tp531
a(S'p1_tl'
I250
tp532
a(S'w'
I1
tp533
a(S'p1_ll'
I0
tp534
a(S'p1_th'
I2
tp535
a(S'w'
I15
tp536
a(S'no_vo'
I0
tp537
a(S'w'
I1
tp538
a(S'w'
I1
tp539
a(S'no_ll'
I0
tp540
a(S'w'
I11706
tp541
a(S'tr_tl'
I168
tp542
a(S'w'
I1
tp543
a(S'tr_ll'
I23
tp544
a(S'w'
I1
tp545
a(S'no_vo'
I1
tp546
a(S'w'
I15
tp547
a(S'p1_tl'
I244
tp548
a(S'w'
I1
tp549
a(S'p1_ll'
I0
tp550
a(S'p1_th'
I5
tp551
a(S'w'
I11723
tp552
a(S'tr_tl'
I159
tp553
a(S'w'
I1
tp554
a(S'tr_ll'
I23
tp555
a(S'w'
I16
tp556
a(S'p1_tl'
I250
tp557
a(S'w'
I1
tp558
a(S'p1_ll'
I0
tp559
a(S'p1_th'
I2
tp560
a(S'w'
I14
tp561
a(S'no_vo'
I0
tp562
a(S'w'
I2
tp563
a(S'w'
I1
tp564
a(S'no_ll'
I0
tp565
a(S'w'
I11706
tp566
a(S'tr_tl'
I126
tp567
a(S'w'
I1
tp568
a(S'tr_ll'
I23
tp569
a(S'w'
I1
tp570
a(S'no_vo'
I1
tp571
a(S'w'
I15
tp572
a(S'p1_tl'
I248
tp573
a(S'w'
I1
tp574
a(S'p1_ll'
I0
tp575
a(S'p1_th'
I3
tp576
a(S'w'
I11724
tp577
a(S'p1_tl'
I250
tp578
a(S'p1_ll'
I0
tp579
a(S'p1_th'
I1
tp580
a(S'w'
I15
tp581
a(S'no_vo'
I0
tp582
a(S'w'
I2
tp583
a(S'no_ll'
I0
tp584
a(S'w'
I11723
tp585
a(S'tr_tl'
I159
tp586
a(S'tr_ll'
I23
tp587
a(S'w'
I1
tp588
a(S'no_vo'
I1
tp589
a(S'w'
I16
tp590
a(S'p1_tl'
I248
tp591
a(S'p1_ll'
I0
tp592
a(S'p1_th'
I3
tp593
a(S'w'
I5853
tp594
a(S'tr_tl'
I168
tp595
a(S'w'
I1
tp596
a(S'tr_ll'
I23
tp597
a(S'w'
I5869
tp598
a(S'tr_tl'
I159
tp599
a(S'w'
I1
tp600
a(S'tr_ll'
I23
tp601
a(S'w'
I16
tp602
a(S'p1_tl'
I250
tp603
a(S'w'
I1
tp604
a(S'p1_ll'
I0
tp605
a(S'p1_th'
I1
tp606
a(S'w'
I15
tp607
a(S'no_vo'
I0
tp608
a(S'w'
I1
tp609
a(S'w'
I1
tp610
a(S'no_ll'
I0
tp611
a(S'w'
I5837
tp612
a(S'w'
I1
tp613
a(S'no_ll'
I0
tp614
a(S'w'
I5879
tp615
a(S'p1_tl'
I71
tp616
a(S'w'
I1
tp617
a(S'p1_ll'
I0
tp618
a(S'p1_th'
I5
tp619
a(S'w'
I12
tp620
a(S'w'
I1
tp621
a(S'w'
I11716
tp622
a(S'tr_tl'
I168
tp623
a(S'w'
I1
tp624
a(S'tr_ll'
I23
tp625
a(S'w'
I1
tp626
a(S'no_vo'
I1
tp627
a(S'w'
I15
tp628
a(S'p1_tl'
I165
tp629
a(S'w'
I1
tp630
a(S'p1_ll'
I0
tp631
a(S'p1_th'
I2
tp632
a(S'w'
I14
tp633
a(S'no_vo'
I0
tp634
a(S'w'
I1
tp635
a(S'w'
I1
tp636
a(S'w'
I1
tp637
a(S'no_ll'
I0
tp638
a(S'w'
I11706
tp639
a(S'tr_tl'
I159
tp640
a(S'w'
I1
tp641
a(S'tr_ll'
I23
tp642
a(S'w'
I1
tp643
a(S'no_vo'
I1
tp644
a(S'w'
I15
tp645
a(S'p1_tl'
I71
tp646
a(S'w'
I1
tp647
a(S'p1_ll'
I0
tp648
a(S'p1_th'
I5
tp649
a(S'w'
I11723
tp650
a(S'tr_tl'
I142
tp651
a(S'w'
I1
tp652
a(S'tr_ll'
I23
tp653
a(S'w'
I16
tp654
a(S'p1_tl'
I165
tp655
a(S'w'
I1
tp656
a(S'p1_ll'
I0
tp657
a(S'p1_th'
I2
tp658
a(S'w'
I14
tp659
a(S'no_vo'
I0
tp660
a(S'w'
I2
tp661
a(S'w'
I1
tp662
a(S'no_ll'
I0
tp663
a(S'w'
I11706
tp664
a(S'tr_tl'
I126
tp665
a(S'tr_ll'
I23
tp666
a(S'w'
I1
tp667
a(S'no_vo'
I1
tp668
a(S'w'
I16
tp669
a(S'p1_tl'
I248
tp670
a(S'p1_ll'
I0
tp671
a(S'p1_th'
I3
tp672
a(S'w'
I11724
tp673
a(S'p1_tl'
I250
tp674
a(S'w'
I1
tp675
a(S'p1_ll'
I0
tp676
a(S'p1_th'
I1
tp677
a(S'w'
I14
tp678
a(S'no_vo'
I0
tp679
a(S'w'
I2
tp680
a(S'w'
I1
tp681
a(S'no_ll'
I0
tp682
a(S'w'
I11722
tp683
a(S'tr_tl'
I142
tp684
a(S'w'
I1
tp685
a(S'tr_ll'
I23
tp686
a(S'w'
I1
tp687
a(S'no_vo'
I1
tp688
a(S'w'
I15
tp689
a(S'p1_tl'
I248
tp690
a(S'w'
I1
tp691
a(S'p1_ll'
I0
tp692
a(S'p1_th'
I3
tp693
a(S'w'
I5853
tp694
a(S'tr_tl'
I159
tp695
a(S'tr_ll'
I23
tp696
a(S'w'
I5870
tp697
a(S'tr_tl'
I168
tp698
a(S'w'
I1
tp699
a(S'tr_ll'
I23
tp700
a(S'w'
I16
tp701
a(S'p1_tl'
I250
tp702
a(S'w'
I1
tp703
a(S'p1_ll'
I0
tp704
a(S'p1_th'
I1
tp705
a(S'w'
I14
tp706
a(S'no_vo'
I0
tp707
a(S'w'
I2
tp708
a(S'w'
I1
tp709
a(S'no_ll'
I0
tp710
a(S'w'
I5837
tp711
a(S'w'
I1
tp712
a(S'no_ll'
I0
tp713
a(S'w'
I5868
tp714
a(S'tr_tl'
I126
tp715
a(S'w'
I1
tp716
a(S'tr_ll'
I23
tp717
a(S'w'
I1
tp718
a(S'no_vo'
I1
tp719
a(S'w'
I15
tp720
a(S'p1_tl'
I244
tp721
a(S'w'
I1
tp722
a(S'p1_ll'
I0
tp723
a(S'p1_th'
I5
tp724
a(S'w'
I13
tp725
a(S'no_vo'
I0
tp726
a(S'w'
I11710
tp727
a(S'tr_tl'
I159
tp728
a(S'w'
I1
tp729
a(S'tr_ll'
I23
tp730
a(S'no_vo'
I1
tp731
a(S'w'
I16
tp732
a(S'p1_tl'
I250
tp733
a(S'w'
I1
tp734
a(S'p1_ll'
I0
tp735
a(S'p1_th'
I2
tp736
a(S'w'
I14
tp737
a(S'no_vo'
I0
tp738
a(S'w'
I1
tp739
a(S'w'
I1
tp740
a(S'no_ll'
I0
tp741
a(S'w'
I11706
tp742
a(S'tr_tl'
I168
tp743
a(S'w'
I1
tp744
a(S'tr_ll'
I23
tp745
a(S'w'
I1
tp746
a(S'no_vo'
I1
tp747
a(S'w'
I15
tp748
a(S'p1_tl'
I244
tp749
a(S'w'
I1
tp750
a(S'p1_ll'
I0
tp751
a(S'p1_th'
I5
tp752
a(S'w'
I5853
tp753
a(S'tr_tl'
I189
tp754
a(S'w'
I1
tp755
a(S'tr_ll'
I23
tp756
a(S'w'
I5869
tp757
a(S'tr_tl'
I168
tp758
a(S'w'
I1
tp759
a(S'tr_ll'
I23
tp760
a(S'w'
I16
tp761
a(S'p1_tl'
I250
tp762
a(S'w'
I1
tp763
a(S'p1_ll'
I0
tp764
a(S'p1_th'
I2
tp765
a(S'w'
I15
tp766
a(S'no_vo'
I0
tp767
a(S'w'
I1
tp768
a(S'w'
I1
tp769
a(S'no_ll'
I0
tp770
a(S'w'
I11706
tp771
a(S'tr_tl'
I126
tp772
a(S'w'
I1
tp773
a(S'tr_ll'
I23
tp774
a(S'w'
I1
tp775
a(S'no_vo'
I1
tp776
a(S'w'
I15
tp777
a(S'p1_tl'
I248
tp778
a(S'w'
I1
tp779
a(S'p1_ll'
I0
tp780
a(S'p1_th'
I3
tp781
a(S'w'
I11723
tp782
a(S'tr_tl'
I142
tp783
a(S'w'
I1
tp784
a(S'tr_ll'
I23
tp785
a(S'w'
I16
tp786
a(S'p1_tl'
I117
tp787
a(S'w'
I1
tp788
a(S'p1_ll'
I0
tp789
a(S'p1_th'
I4
tp790
a(S'w'
I14
tp791
a(S'no_vo'
I0
tp792
a(S'w'
I2
tp793
a(S'w'
I1
tp794
a(S'no_ll'
I0
tp795
a(S'w'
I11706
tp796
a(S'tr_tl'
I159
tp797
a(S'w'
I1
tp798
a(S'tr_ll'
I23
tp799
a(S'no_vo'
I1
tp800
a(S'w'
I16
tp801
a(S'p1_tl'
I253
tp802
a(S'w'
I1
tp803
a(S'p1_ll'
I0
tp804
a(S'w'
I5852
tp805
a(S'tr_tl'
I168
tp806
a(S'w'
I1
tp807
a(S'tr_ll'
I23
tp808
a(S'w'
I5870
tp809
a(S'tr_tl'
I159
tp810
a(S'tr_ll'
I23
tp811
a(S'w'
I16
tp812
a(S'no_vo'
I0
tp813
a(S'w'
I1
tp814
a(S'w'
I1
tp815
a(S'no_ll'
I0
tp816
a(S'w'
I5854
tp817
a(S'no_ll'
I0
tp818
a(S'w'
I5867
tp819
a(S'w'
I765
tp820
a(S'p1_tl'
I168
tp821
a(S'w'
I1
tp822
a(S'p1_ll'
I0
tp823
a(S'p1_th'
I6
tp824
a(S'w'
I10977
tp825
a(S'p1_tl'
I85
tp826
a(S'w'
I1
tp827
a(S'p1_ll'
I0
tp828
a(S'p1_th'
I3
tp829
a(S'w'
I14
tp830
a(S'w'
I1
tp831
a(S'w'
I1
tp832
a(S'w'
I1
tp833
a(S'no_ll'
I0
tp834
a(S'w'
I11722
tp835
a(S'tr_tl'
I142
tp836
a(S'w'
I1
tp837
a(S'tr_ll'
I23
tp838
a(S'w'
I1
tp839
a(S'no_vo'
I1
tp840
a(S'w'
I15
tp841
a(S'p1_tl'
I168
tp842
a(S'w'
I1
tp843
a(S'p1_ll'
I0
tp844
a(S'p1_th'
I6
tp845
a(S'w'
I11724
tp846
a(S'p1_tl'
I85
tp847
a(S'w'
I1
tp848
a(S'p1_ll'
I0
tp849
a(S'p1_th'
I3
tp850
a(S'w'
I14
tp851
a(S'no_vo'
I0
tp852
a(S'w'
I2
tp853
a(S'w'
I1
tp854
a(S'no_ll'
I0
tp855
a(S'w'
I11722
tp856
a(S'tr_tl'
I168
tp857
a(S'w'
I1
tp858
a(S'tr_ll'
I23
tp859
a(S'no_vo'
I1
tp860
a(S'w'
I23
tp861
a(S'p1_tl'
I168
tp862
a(S'w'
I1
tp863
a(S'p1_ll'
I0
tp864
a(S'p1_th'
I6
tp865
a(S'w'
I11716
tp866
a(S'p1_tl'
I85
tp867
a(S'w'
I1
tp868
a(S'p1_ll'
I0
tp869
a(S'p1_th'
I3
tp870
a(S'w'
I15
tp871
a(S'no_vo'
I0
tp872
a(S'w'
I1
tp873
a(S'w'
I1
tp874
a(S'no_ll'
I0
tp875
a(S'w'
I11722
tp876
a(S'tr_tl'
I142
tp877
a(S'w'
I1
tp878
a(S'tr_ll'
I23
tp879
a(S'w'
I1
tp880
a(S'no_vo'
I1
tp881
a(S'w'
I23
tp882
a(S'p1_tl'
I168
tp883
a(S'w'
I1
tp884
a(S'p1_ll'
I0
tp885
a(S'p1_th'
I6
tp886
a(S'w'
I11716
tp887
a(S'p1_tl'
I85
tp888
a(S'w'
I1
tp889
a(S'p1_ll'
I0
tp890
a(S'p1_th'
I3
tp891
a(S'w'
I14
tp892
a(S'no_vo'
I0
tp893
a(S'w'
I2
tp894
a(S'w'
I1
tp895
a(S'no_ll'
I0
tp896
a(S'w'
I5853
tp897
a(S'w'
I1
tp898
a(S'no_ll'
I0
tp899
a(S'w'
I5868
tp900
a(S'tr_tl'
I168
tp901
a(S'w'
I1
tp902
a(S'tr_ll'
I23
tp903
a(S'w'
I1
tp904
a(S'no_vo'
I1
tp905
a(S'w'
I23
tp906
a(S'p1_tl'
I168
tp907
a(S'p1_ll'
I0
tp908
a(S'p1_th'
I6
tp909
a(S'w'
I13
tp910
a(S'no_vo'
I0
tp911
a(S'w'
I1
tp912
a(S'w'
I11702
tp913
a(S'tr_tl'
I213
tp914
a(S'w'
I1
tp915
a(S'tr_ll'
I23
tp916
a(S'w'
I1
tp917
a(S'no_vo'
I1
tp918
a(S'w'
I15
tp919
a(S'p1_tl'
I85
tp920
a(S'w'
I1
tp921
a(S'p1_ll'
I0
tp922
a(S'p1_th'
I3
tp923
a(S'w'
I14
tp924
a(S'no_vo'
I0
tp925
a(S'w'
I1
tp926
a(S'w'
I1
tp927
a(S'w'
I1
tp928
a(S'no_ll'
I0
tp929
a(S'w'
I5835
tp930
a(S'tr_tl'
I168
tp931
a(S'w'
I1
tp932
a(S'tr_ll'
I23
tp933
a(S'w'
I1
tp934
a(S'no_vo'
I1
tp935
a(S'w'
I5877
tp936
a(S'p1_tl'
I168
tp937
a(S'w'
I1
tp938
a(S'p1_ll'
I0
tp939
a(S'p1_th'
I6
tp940
a(S'w'
I5861
tp941
a(S'tr_tl'
I213
tp942
a(S'w'
I1
tp943
a(S'tr_ll'
I23
tp944
a(S'w'
I5870
tp945
a(S'tr_tl'
I168
tp946
a(S'tr_ll'
I23
tp947
a(S'w'
I16
tp948
a(S'p1_tl'
I85
tp949
a(S'w'
I1
tp950
a(S'p1_ll'
I0
tp951
a(S'p1_th'
I3
tp952
a(S'w'
I15
tp953
a(S'no_vo'
I0
tp954
a(S'w'
I1
tp955
a(S'w'
I1
tp956
a(S'no_ll'
I0
tp957
a(S'w'
I11706
tp958
a(S'tr_tl'
I213
tp959
a(S'w'
I1
tp960
a(S'tr_ll'
I23
tp961
a(S'w'
I1
tp962
a(S'no_vo'
I1
tp963
a(S'w'
I23
tp964
a(S'p1_tl'
I168
tp965
a(S'w'
I1
tp966
a(S'p1_ll'
I0
tp967
a(S'p1_th'
I6
tp968
a(S'w'
I5845
tp969
a(S'tr_tl'
I142
tp970
a(S'w'
I1
tp971
a(S'tr_ll'
I23
tp972
a(S'w'
I5869
tp973
a(S'tr_tl'
I159
tp974
a(S'w'
I1
tp975
a(S'tr_ll'
I23
tp976
a(S'w'
I16
tp977
a(S'p1_tl'
I85
tp978
a(S'w'
I1
tp979
a(S'p1_ll'
I0
tp980
a(S'p1_th'
I3
tp981
a(S'w'
I14
tp982
a(S'no_vo'
I0
tp983
a(S'w'
I2
tp984
a(S'w'
I1
tp985
a(S'no_ll'
I0
tp986
a(S'w'
I11706
tp987
a(S'tr_tl'
I168
tp988
a(S'w'
I1
tp989
a(S'tr_ll'
I23
tp990
a(S'w'
I1
tp991
a(S'no_vo'
I1
tp992
a(S'w'
I23
tp993
a(S'p1_tl'
I168
tp994
a(S'p1_ll'
I0
tp995
a(S'p1_th'
I6
tp996
a(S'w'
I11716
tp997
a(S'tr_tl'
I189
tp998
a(S'w'
I1
tp999
a(S'tr_ll'
I23
tp1000
a(S'w'
I16
tp1001
a(S'p1_tl'
I85
tp1002
a(S'w'
I1
tp1003
a(S'p1_ll'
I0
tp1004
a(S'p1_th'
I3
tp1005
a(S'w'
I14
tp1006
a(S'no_vo'
I0
tp1007
a(S'w'
I2
tp1008
a(S'w'
I1
tp1009
a(S'no_ll'
I0
tp1010
a(S'w'
I5837
tp1011
a(S'w'
I1
tp1012
a(S'no_ll'
I0
tp1013
a(S'w'
I5887
tp1014
a(S'p1_tl'
I71
tp1015
a(S'w'
I1
tp1016
a(S'p1_ll'
I0
tp1017
a(S'p1_th'
I5
tp1018
a(S'w'
I13
tp1019
a(S'w'
I1
tp1020
a(S'w'
I11707
tp1021
a(S'tr_ll'
I23
tp1022
a(S'w'
I1
tp1023
a(S'no_vo'
I1
tp1024
a(S'w'
I15
tp1025
a(S'p1_tl'
I165
tp1026
a(S'w'
I1
tp1027
a(S'p1_ll'
I0
tp1028
a(S'p1_th'
I2
tp1029
a(S'w'
I15
tp1030
a(S'no_vo'
I0
tp1031
a(S'w'
I1
tp1032
a(S'w'
I1
tp1033
a(S'no_ll'
I0
tp1034
a(S'w'
I11706
tp1035
a(S'tr_tl'
I142
tp1036
a(S'w'
I1
tp1037
a(S'tr_ll'
I23
tp1038
a(S'w'
I1
tp1039
a(S'no_vo'
I1
tp1040
a(S'w'
I23
tp1041
a(S'p1_tl'
I71
tp1042
a(S'w'
I1
tp1043
a(S'p1_ll'
I0
tp1044
a(S'p1_th'
I5
tp1045
a(S'w'
I11715
tp1046
a(S'tr_tl'
I159
tp1047
a(S'w'
I1
tp1048
a(S'tr_ll'
I23
tp1049
a(S'w'
I16
tp1050
a(S'p1_tl'
I165
tp1051
a(S'w'
I1
tp1052
a(S'p1_ll'
I0
tp1053
a(S'p1_th'
I2
tp1054
a(S'w'
I14
tp1055
a(S'no_vo'
I0
tp1056
a(S'w'
I2
tp1057
a(S'w'
I1
tp1058
a(S'no_ll'
I0
tp1059
a(S'w'
I11706
tp1060
a(S'tr_tl'
I213
tp1061
a(S'w'
I1
tp1062
a(S'tr_ll'
I23
tp1063
a(S'w'
I1
tp1064
a(S'no_vo'
I1
tp1065
a(S'w'
I23
tp1066
a(S'p1_tl'
I71
tp1067
a(S'w'
I1
tp1068
a(S'p1_ll'
I0
tp1069
a(S'p1_th'
I5
tp1070
a(S'w'
I5844
tp1071
a(S'tr_tl'
I189
tp1072
a(S'w'
I1
tp1073
a(S'tr_ll'
I23
tp1074
a(S'w'
I5870
tp1075
a(S'tr_tl'
I159
tp1076
a(S'w'
I1
tp1077
a(S'tr_ll'
I23
tp1078
a(S'w'
I16
tp1079
a(S'p1_tl'
I165
tp1080
a(S'w'
I1
tp1081
a(S'p1_ll'
I0
tp1082
a(S'p1_th'
I2
tp1083
a(S'w'
I14
tp1084
a(S'no_vo'
I0
tp1085
a(S'w'
I2
tp1086
a(S'w'
I1
tp1087
a(S'no_ll'
I0
tp1088
a(S'w'
I11706
tp1089
a(S'tr_tl'
I189
tp1090
a(S'tr_ll'
I23
tp1091
a(S'w'
I1
tp1092
a(S'no_vo'
I1
tp1093
a(S'w'
I23
tp1094
a(S'p1_tl'
I71
tp1095
a(S'w'
I1
tp1096
a(S'p1_ll'
I0
tp1097
a(S'p1_th'
I5
tp1098
a(S'w'
I11716
tp1099
a(S'p1_tl'
I165
tp1100
a(S'w'
I1
tp1101
a(S'p1_ll'
I0
tp1102
a(S'p1_th'
I2
tp1103
a(S'w'
I14
tp1104
a(S'no_vo'
I0
tp1105
a(S'w'
I2
tp1106
a(S'w'
I1
tp1107
a(S'no_ll'
I0
tp1108
a(S'w'
I5853
tp1109
a(S'w'
I1
tp1110
a(S'no_ll'
I0
tp1111
a(S'w'
I5868
tp1112
a(S'tr_tl'
I168
tp1113
a(S'w'
I1
tp1114
a(S'tr_ll'
I23
tp1115
a(S'w'
I1
tp1116
a(S'no_vo'
I1
tp1117
a(S'w'
I24
tp1118
a(S'p1_tl'
I168
tp1119
a(S'w'
I1
tp1120
a(S'p1_ll'
I0
tp1121
a(S'p1_th'
I6
tp1122
a(S'w'
I13
tp1123
a(S'no_vo'
I0
tp1124
a(S'w'
I1
tp1125
a(S'w'
I11700
tp1126
a(S'tr_tl'
I213
tp1127
a(S'w'
I1
tp1128
a(S'tr_ll'
I23
tp1129
a(S'w'
I1
tp1130
a(S'no_vo'
I1
tp1131
a(S'w'
I15
tp1132
a(S'p1_tl'
I85
tp1133
a(S'w'
I1
tp1134
a(S'p1_ll'
I0
tp1135
a(S'p1_th'
I3
tp1136
a(S'w'
I14
tp1137
a(S'no_vo'
I0
tp1138
a(S'w'
I1
tp1139
a(S'w'
I1
tp1140
a(S'w'
I1
tp1141
a(S'no_ll'
I0
tp1142
a(S'w'
I5835
tp1143
a(S'tr_tl'
I168
tp1144
a(S'w'
I1
tp1145
a(S'tr_ll'
I23
tp1146
a(S'w'
I1
tp1147
a(S'no_vo'
I1
tp1148
a(S'w'
I5877
tp1149
a(S'p1_tl'
I168
tp1150
a(S'w'
I1
tp1151
a(S'p1_ll'
I0
tp1152
a(S'p1_th'
I6
tp1153
a(S'w'
I5861
tp1154
a(S'tr_tl'
I213
tp1155
a(S'w'
I1
tp1156
a(S'tr_ll'
I23
tp1157
a(S'w'
I5870
tp1158
a(S'tr_tl'
I168
tp1159
a(S'w'
I1
tp1160
a(S'tr_ll'
I23
tp1161
a(S'w'
I16
tp1162
a(S'p1_tl'
I85
tp1163
a(S'w'
I1
tp1164
a(S'p1_ll'
I0
tp1165
a(S'p1_th'
I3
tp1166
a(S'w'
I14
tp1167
a(S'no_vo'
I0
tp1168
a(S'w'
I2
tp1169
a(S'no_ll'
I0
tp1170
a(S'w'
I11706
tp1171
a(S'tr_tl'
I213
tp1172
a(S'w'
I1
tp1173
a(S'tr_ll'
I23
tp1174
a(S'w'
I1
tp1175
a(S'no_vo'
I1
tp1176
a(S'w'
I23
tp1177
a(S'p1_tl'
I168
tp1178
a(S'w'
I1
tp1179
a(S'p1_ll'
I0
tp1180
a(S'p1_th'
I6
tp1181
a(S'w'
I5845
tp1182
a(S'tr_tl'
I142
tp1183
a(S'w'
I1
tp1184
a(S'tr_ll'
I23
tp1185
a(S'w'
I5870
tp1186
a(S'p1_tl'
I85
tp1187
a(S'w'
I1
tp1188
a(S'p1_ll'
I0
tp1189
a(S'p1_th'
I3
tp1190
a(S'w'
I14
tp1191
a(S'no_vo'
I0
tp1192
a(S'w'
I2
tp1193
a(S'w'
I1
tp1194
a(S'no_ll'
I0
tp1195
a(S'w'
I5852
tp1196
a(S'tr_tl'
I159
tp1197
a(S'w'
I1
tp1198
a(S'tr_ll'
I23
tp1199
a(S'no_vo'
I1
tp1200
a(S'w'
I5877
tp1201
a(S'p1_tl'
I168
tp1202
a(S'w'
I1
tp1203
a(S'p1_ll'
I0
tp1204
a(S'p1_th'
I6
tp1205
a(S'w'
I5862
tp1206
a(S'tr_tl'
I168
tp1207
a(S'tr_ll'
I23
tp1208
a(S'w'
I5871
tp1209
a(S'p1_tl'
I85
tp1210
a(S'w'
I1
tp1211
a(S'p1_ll'
I0
tp1212
a(S'p1_th'
I3
tp1213
a(S'w'
I14
tp1214
a(S'no_vo'
I0
tp1215
a(S'w'
I2
tp1216
a(S'w'
I1
tp1217
a(S'no_ll'
I0
tp1218
a(S'w'
I5851
tp1219
a(S'tr_tl'
I189
tp1220
a(S'w'
I1
tp1221
a(S'tr_ll'
I23
tp1222
a(S'w'
I1
tp1223
a(S'no_vo'
I1
tp1224
a(S'w'
I14
tp1225
a(S'no_vo'
I0
tp1226
a(S'w'
I2
tp1227
a(S'w'
I1
tp1228
a(S'no_ll'
I0
tp1229
a(S'w'
I5872
tp1230
a(S'p1_tl'
I117
tp1231
a(S'p1_ll'
I0
tp1232
a(S'p1_th'
I4
tp1233
a(S'w'
I13
tp1234
a(S'w'
I1
tp1235
a(S'w'
I11707
tp1236
a(S'p1_tl'
I58
tp1237
a(S'w'
I1
tp1238
a(S'p1_ll'
I0
tp1239
a(S'p1_th'
I2
tp1240
a(S'w'
I15
tp1241
a(S'w'
I1
tp1242
a(S'w'
I1
tp1243
a(S'no_ll'
I0
tp1244
a(S'w'
I11731
tp1245
a(S'p1_tl'
I117
tp1246
a(S'w'
I1
tp1247
a(S'p1_ll'
I0
tp1248
a(S'p1_th'
I4
tp1249
a(S'w'
I11732
tp1250
a(S'p1_tl'
I58
tp1251
a(S'w'
I1
tp1252
a(S'p1_ll'
I0
tp1253
a(S'p1_th'
I2
tp1254
a(S'w'
I16
tp1255
a(S'w'
I1
tp1256
a(S'no_ll'
I0
tp1257
a(S'w'
I11730
tp1258
a(S'p1_tl'
I117
tp1259
a(S'w'
I1
tp1260
a(S'p1_ll'
I0
tp1261
a(S'p1_th'
I4
tp1262
a(S'w'
I11733
tp1263
a(S'p1_tl'
I58
tp1264
a(S'w'
I1
tp1265
a(S'p1_ll'
I0
tp1266
a(S'p1_th'
I2
tp1267
a(S'w'
I16
tp1268
a(S'no_ll'
I0
tp1269
a(S'w'
I11731
tp1270
a(S'p1_tl'
I117
tp1271
a(S'w'
I1
tp1272
a(S'p1_ll'
I0
tp1273
a(S'p1_th'
I4
tp1274
a(S'w'
I11732
tp1275
a(S'p1_tl'
I58
tp1276
a(S'w'
I1
tp1277
a(S'p1_ll'
I0
tp1278
a(S'p1_th'
I2
tp1279
a(S'w'
I16
tp1280
a(S'w'
I1
tp1281
a(S'no_ll'
I0
tp1282
a(S'w'
I5853
tp1283
a(S'w'
I1
tp1284
a(S'no_ll'
I0
tp1285
a(S'w'
I5888
tp1286
a(S'p1_tl'
I253
tp1287
a(S'w'
I1
tp1288
a(S'p1_ll'
I0
tp1289
a(S'p1_th'
I4
tp1290
a(S'w'
I13
tp1291
a(S'w'
I11708
tp1292
a(S'p1_tl'
I126
tp1293
a(S'w'
I1
tp1294
a(S'p1_ll'
I0
tp1295
a(S'p1_th'
I2
tp1296
a(S'w'
I14
tp1297
a(S'w'
I1
tp1298
a(S'w'
I1
tp1299
a(S'w'
I1
tp1300
a(S'no_ll'
I0
tp1301
a(S'w'
I11731
tp1302
a(S'p1_tl'
I253
tp1303
a(S'p1_ll'
I0
tp1304
a(S'p1_th'
I4
tp1305
a(S'w'
I11733
tp1306
a(S'p1_tl'
I126
tp1307
a(S'w'
I1
tp1308
a(S'p1_ll'
I0
tp1309
a(S'p1_th'
I2
tp1310
a(S'w'
I16
tp1311
a(S'w'
I1
tp1312
a(S'no_ll'
I0
tp1313
a(S'w'
I11730
tp1314
a(S'p1_tl'
I253
tp1315
a(S'w'
I1
tp1316
a(S'p1_ll'
I0
tp1317
a(S'p1_th'
I4
tp1318
a(S'w'
I11732
tp1319
a(S'p1_tl'
I126
tp1320
a(S'w'
I1
tp1321
a(S'p1_ll'
I0
tp1322
a(S'p1_th'
I2
tp1323
a(S'w'
I16
tp1324
a(S'w'
I1
tp1325
a(S'no_ll'
I0
tp1326
a(S'w'
I11731
tp1327
a(S'p1_tl'
I253
tp1328
a(S'w'
I1
tp1329
a(S'p1_ll'
I0
tp1330
a(S'p1_th'
I4
tp1331
a(S'w'
I11732
tp1332
a(S'p1_tl'
I126
tp1333
a(S'w'
I1
tp1334
a(S'p1_ll'
I0
tp1335
a(S'p1_th'
I2
tp1336
a(S'w'
I16
tp1337
a(S'w'
I1
tp1338
a(S'no_ll'
I0
tp1339
a(S'w'
I5853
tp1340
a(S'w'
I1
tp1341
a(S'no_ll'
I0
tp1342
a(S'w'
I5888
tp1343
a(S'p1_tl'
I168
tp1344
a(S'w'
I1
tp1345
a(S'p1_ll'
I0
tp1346
a(S'p1_th'
I6
tp1347
a(S'w'
I12
tp1348
a(S'w'
I1
tp1349
a(S'w'
I11708
tp1350
a(S'p1_tl'
I85
tp1351
a(S'p1_ll'
I0
tp1352
a(S'p1_th'
I3
tp1353
a(S'w'
I15
tp1354
a(S'w'
I1
tp1355
a(S'w'
I1
tp1356
a(S'no_ll'
I0
tp1357
a(S'w'
I11723
tp1358
a(S'tr_tl'
I142
tp1359
a(S'tr_ll'
I23
tp1360
a(S'w'
I1
tp1361
a(S'no_vo'
I1
tp1362
a(S'w'
I16
tp1363
a(S'p1_tl'
I168
tp1364
a(S'p1_ll'
I0
tp1365
a(S'p1_th'
I6
tp1366
a(S'w'
I11724
tp1367
a(S'p1_tl'
I85
tp1368
a(S'w'
I1
tp1369
a(S'p1_ll'
I0
tp1370
a(S'p1_th'
I3
tp1371
a(S'w'
I14
tp1372
a(S'no_vo'
I0
tp1373
a(S'w'
I2
tp1374
a(S'w'
I1
tp1375
a(S'no_ll'
I0
tp1376
a(S'w'
I11722
tp1377
a(S'tr_tl'
I168
tp1378
a(S'w'
I1
tp1379
a(S'tr_ll'
I23
tp1380
a(S'w'
I1
tp1381
a(S'no_vo'
I1
tp1382
a(S'w'
I15
tp1383
a(S'p1_tl'
I168
tp1384
a(S'w'
I1
tp1385
a(S'p1_ll'
I0
tp1386
a(S'p1_th'
I6
tp1387
a(S'w'
I11724
tp1388
a(S'p1_tl'
I85
tp1389
a(S'w'
I1
tp1390
a(S'p1_ll'
I0
tp1391
a(S'p1_th'
I3
tp1392
a(S'w'
I14
tp1393
a(S'no_vo'
I0
tp1394
a(S'w'
I2
tp1395
a(S'w'
I1
tp1396
a(S'no_ll'
I0
tp1397
a(S'w'
I11722
tp1398
a(S'tr_tl'
I142
tp1399
a(S'w'
I1
tp1400
a(S'tr_ll'
I23
tp1401
a(S'w'
I1
tp1402
a(S'no_vo'
I1
tp1403
a(S'w'
I15
tp1404
a(S'p1_tl'
I133
tp1405
a(S'w'
I1
tp1406
a(S'p1_ll'
I0
tp1407
a(S'w'
I11723
tp1408
a(S'p1_tl'
I196
tp1409
a(S'w'
I1
tp1410
a(S'p1_ll'
I0
tp1411
a(S'p1_th'
I1
tp1412
a(S'w'
I15
tp1413
a(S'no_vo'
I0
tp1414
a(S'w'
I1
tp1415
a(S'w'
I1
tp1416
a(S'no_ll'
I0
tp1417
a(S'w'
I5854
tp1418
a(S'w'
I1
tp1419
a(S'no_ll'
I0
tp1420
a(S'w'
I5868
tp1421
a(S'tr_tl'
I168
tp1422
a(S'tr_ll'
I23
tp1423
a(S'w'
I1
tp1424
a(S'no_vo'
I1
tp1425
a(S'w'
I16
tp1426
a(S'p1_tl'
I168
tp1427
a(S'p1_ll'
I0
tp1428
a(S'p1_th'
I6
tp1429
a(S'w'
I13
tp1430
a(S'no_vo'
I0
tp1431
a(S'w'
I1
tp1432
a(S'w'
I11709
tp1433
a(S'tr_tl'
I213
tp1434
a(S'w'
I1
tp1435
a(S'tr_ll'
I23
tp1436
a(S'w'
I1
tp1437
a(S'no_vo'
I1
tp1438
a(S'w'
I15
tp1439
a(S'p1_tl'
I85
tp1440
a(S'w'
I1
tp1441
a(S'p1_ll'
I0
tp1442
a(S'p1_th'
I3
tp1443
a(S'w'
I15
tp1444
a(S'no_vo'
I0
tp1445
a(S'w'
I1
tp1446
a(S'w'
I1
tp1447
a(S'no_ll'
I0
tp1448
a(S'w'
I5836
tp1449
a(S'tr_tl'
I168
tp1450
a(S'w'
I1
tp1451
a(S'tr_ll'
I23
tp1452
a(S'no_vo'
I1
tp1453
a(S'w'
I5870
tp1454
a(S'p1_tl'
I168
tp1455
a(S'w'
I1
tp1456
a(S'p1_ll'
I0
tp1457
a(S'p1_th'
I6
tp1458
a(S'w'
I5869
tp1459
a(S'tr_tl'
I213
tp1460
a(S'w'
I1
tp1461
a(S'tr_ll'
I23
tp1462
a(S'w'
I5869
tp1463
a(S'tr_tl'
I168
tp1464
a(S'w'
I1
tp1465
a(S'tr_ll'
I23
tp1466
a(S'w'
I16
tp1467
a(S'p1_tl'
I85
tp1468
a(S'w'
I1
tp1469
a(S'p1_ll'
I0
tp1470
a(S'p1_th'
I3
tp1471
a(S'w'
I14
tp1472
a(S'no_vo'
I0
tp1473
a(S'w'
I2
tp1474
a(S'w'
I1
tp1475
a(S'no_ll'
I0
tp1476
a(S'w'
I11706
tp1477
a(S'tr_tl'
I213
tp1478
a(S'w'
I1
tp1479
a(S'tr_ll'
I23
tp1480
a(S'w'
I1
tp1481
a(S'no_vo'
I1
tp1482
a(S'w'
I15
tp1483
a(S'p1_tl'
I168
tp1484
a(S'w'
I1
tp1485
a(S'p1_ll'
I0
tp1486
a(S'p1_th'
I6
tp1487
a(S'w'
I5852
tp1488
a(S'tr_tl'
I142
tp1489
a(S'w'
I1
tp1490
a(S'tr_ll'
I23
tp1491
a(S'w'
I5870
tp1492
a(S'tr_tl'
I159
tp1493
a(S'tr_ll'
I23
tp1494
a(S'w'
I17
tp1495
a(S'p1_tl'
I85
tp1496
a(S'p1_ll'
I0
tp1497
a(S'p1_th'
I3
tp1498
a(S'w'
I15
tp1499
a(S'no_vo'
I0
tp1500
a(S'w'
I2
tp1501
a(S'no_ll'
I0
tp1502
a(S'w'
I11706
tp1503
a(S'tr_tl'
I168
tp1504
a(S'w'
I1
tp1505
a(S'tr_ll'
I23
tp1506
a(S'w'
I1
tp1507
a(S'no_vo'
I1
tp1508
a(S'w'
I15
tp1509
a(S'p1_tl'
I168
tp1510
a(S'w'
I1
tp1511
a(S'p1_ll'
I0
tp1512
a(S'p1_th'
I6
tp1513
a(S'w'
I11723
tp1514
a(S'tr_tl'
I189
tp1515
a(S'w'
I1
tp1516
a(S'tr_ll'
I23
tp1517
a(S'w'
I16
tp1518
a(S'p1_tl'
I133
tp1519
a(S'w'
I1
tp1520
a(S'p1_ll'
I0
tp1521
a(S'p1_th'
I3
tp1522
a(S'w'
I15
tp1523
a(S'no_vo'
I0
tp1524
a(S'w'
I1
tp1525
a(S'w'
I1
tp1526
a(S'no_ll'
I0
tp1527
a(S'w'
I5837
tp1528
a(S'w'
I1
tp1529
a(S'no_ll'
I0
tp1530
a(S'w'
I5865
tp1531
a(S'tr_lr'
I64
tp1532
a(S'w'
I10
tp1533
a(S'p1_du'
I1
tp1534
a(S'p1_lh'
I0
tp1535
a(S'p1_cv'
I0
tp1536
a(S'p1_vo'
I0
tp1537
a(S'w'
I1
tp1538
a(S'p1_se'
I0
tp1539
a(S'p1_sp'
I0
tp1540
a(S'p1_sn'
I0
tp1541
a(S'w'
I9
tp1542
a(S'w'
I1
tp1543
a(S'w'
I726
tp1544
a(S'p1_du'
I2
tp1545
a(S'p1_lh'
I1
tp1546
a(S'p1_cv'
I1
tp1547
a(S'p1_vo'
I5
tp1548
a(S'w'
I1
tp1549
a(S'p1_se'
I1
tp1550
a(S'p1_sp'
I2
tp1551
a(S'p1_sn'
I1
tp1552
a(S'p1_tl'
I244
tp1553
a(S'w'
I1
tp1554
a(S'p1_ll'
I0
tp1555
a(S'p1_th'
I5
tp1556
a(S'w'
I48
tp1557
a.