(lp1
(S'clock'
p2
I1789772
tp3
a(S'p1_vo'
I10
tp4
a(S'p1_tl'
I106
tp5
a(S'p1_ll'
I1
tp6
a(S'ch_no'
I0
tp7
a(S'ch_tr'
I0
tp8
a(S'ch_p2'
I0
tp9
a(S'ch_p1'
I1
tp10
a(S'p1_tl'
I169
tp11
a(S'p1_ll'
I1
tp12
a(S'w'
I8779
tp13
a(S'ch_no'
I0
tp14
a(S'ch_tr'
I0
tp15
a(S'ch_p2'
I0
tp16
a(S'ch_p1'
I1
tp17
a(S'w'
I1
tp18
a(S'p1_tl'
I160
tp19
a(S'p1_ll'
I1
tp20
a(S'w'
I8830
tp21
a(S'p1_tl'
I134
tp22
a(S'w'
I1
tp23
a(S'p1_ll'
I1
tp24
a(S'w'
I8776
tp25
a(S'p1_tl'
I127
tp26
a(S'p1_ll'
I1
tp27
a(S'w'
I8831
tp28
a(S'p1_tl'
I113
tp29
a(S'p1_ll'
I1
tp30
a(S'w'
I8785
tp31
a(S'p1_tl'
I106
tp32
a(S'p1_ll'
I1
tp33
a(S'w'
I8826
tp34
a(S'p1_tl'
I113
tp35
a(S'p1_ll'
I1
tp36
a(S'w'
I8780
tp37
a(S'p1_tl'
I127
tp38
a(S'p1_ll'
I1
tp39
a(S'w'
I8832
tp40
a(S'p1_tl'
I134
tp41
a(S'w'
I1
tp42
a(S'p1_ll'
I1
tp43
a(S'w'
I8779
tp44
a(S'p1_tl'
I127
tp45
a(S'p1_ll'
I1
tp46
a(S'w'
I8826
tp47
a(S'p1_tl'
I134
tp48
a(S'p1_ll'
I1
tp49
a(S'w'
I8783
tp50
a(S'p1_tl'
I160
tp51
a(S'p1_ll'
I1
tp52
a(S'w'
I8830
tp53
a(S'p1_tl'
I169
tp54
a(S'w'
I1
tp55
a(S'p1_ll'
I1
tp56
a(S'w'
I35230
tp57
a(S'p1_ll'
I1
tp58
a(S'w'
I8772
tp59
a(S'p1_tl'
I160
tp60
a(S'w'
I1
tp61
a(S'p1_ll'
I1
tp62
a(S'w'
I8830
tp63
a(S'p1_tl'
I134
tp64
a(S'p1_ll'
I1
tp65
a(S'w'
I8785
tp66
a(S'p1_tl'
I127
tp67
a(S'p1_ll'
I1
tp68
a(S'w'
I8829
tp69
a(S'p1_tl'
I113
tp70
a(S'p1_ll'
I1
tp71
a(S'w'
I8780
tp72
a(S'p1_tl'
I106
tp73
a(S'w'
I1
tp74
a(S'p1_ll'
I1
tp75
a(S'w'
I8825
tp76
a(S'p1_tl'
I113
tp77
a(S'w'
I1
tp78
a(S'p1_ll'
I1
tp79
a(S'w'
I8787
tp80
a(S'p1_tl'
I127
tp81
a(S'w'
I1
tp82
a(S'p1_ll'
I1
tp83
a(S'w'
I8830
tp84
a(S'p1_tl'
I134
tp85
a(S'p1_ll'
I1
tp86
a(S'w'
I8783
tp87
a(S'p1_tl'
I127
tp88
a(S'p1_ll'
I1
tp89
a(S'w'
I8831
tp90
a(S'p1_tl'
I134
tp91
a(S'p1_ll'
I1
tp92
a(S'w'
I8781
tp93
a(S'p1_tl'
I160
tp94
a(S'p1_ll'
I1
tp95
a(S'w'
I8822
tp96
a(S'p1_tl'
I169
tp97
a(S'p1_ll'
I1
tp98
a(S'w'
I35225
tp99
a(S'p1_tl'
I84
tp100
a(S'p1_ll'
I1
tp101
a(S'w'
I8784
tp102
a(S'p1_ll'
I1
tp103
a(S'w'
I8829
tp104
a(S'p1_tl'
I169
tp105
a(S'w'
I1
tp106
a(S'p1_ll'
I1
tp107
a(S'w'
I8779
tp108
a(S'w'
I1
tp109
a(S'p1_ll'
I1
tp110
a(S'w'
I8833
tp111
a(S'p1_tl'
I84
tp112
a(S'p1_ll'
I1
tp113
a(S'w'
I8783
tp114
a(S'w'
I1
tp115
a(S'p1_ll'
I1
tp116
a(S'w'
I8826
tp117
a(S'p1_tl'
I169
tp118
a(S'p1_ll'
I1
tp119
a(S'w'
I8783
tp120
a(S'p1_ll'
I1
tp121
a(S'w'
I8833
tp122
a(S'p1_tl'
I84
tp123
a(S'p1_ll'
I1
tp124
a(S'w'
I8773
tp125
a(S'p1_tl'
I169
tp126
a(S'p1_ll'
I1
tp127
a(S'w'
I8835
tp128
a(S'p1_ll'
I1
tp129
a(S'w'
I8783
tp130
a(S'p1_tl'
I84
tp131
a(S'p1_ll'
I1
tp132
a(S'w'
I8826
tp133
a(S'p1_tl'
I169
tp134
a(S'p1_ll'
I1
tp135
a(S'w'
I8786
tp136
a(S'p1_tl'
I84
tp137
a(S'p1_ll'
I1
tp138
a(S'w'
I8819
tp139
a(S'p1_tl'
I169
tp140
a(S'w'
I1
tp141
a(S'p1_ll'
I1
tp142
a(S'w'
I8789
tp143
a(S'p1_ll'
I1
tp144
a(S'w'
I8825
tp145
a(S'p1_tl'
I84
tp146
a(S'p1_ll'
I1
tp147
a(S'w'
I8786
tp148
a(S'p1_tl'
I89
tp149
a(S'p1_ll'
I1
tp150
a(S'w'
I8830
tp151
a(S'p1_tl'
I113
tp152
a(S'p1_ll'
I1
tp153
a(S'w'
I8783
tp154
a(S'p1_tl'
I95
tp155
a(S'w'
I1
tp156
a(S'p1_ll'
I1
tp157
a(S'w'
I8825
tp158
a(S'p1_tl'
I100
tp159
a(S'p1_ll'
I1
tp160
a(S'w'
I8785
tp161
a(S'p1_tl'
I127
tp162
a(S'p1_ll'
I1
tp163
a(S'w'
I8827
tp164
a(S'p1_tl'
I106
tp165
a(S'p1_ll'
I1
tp166
a(S'w'
I8782
tp167
a(S'p1_tl'
I113
tp168
a(S'w'
I1
tp169
a(S'p1_ll'
I1
tp170
a(S'w'
I8830
tp171
a(S'p1_tl'
I134
tp172
a(S'p1_ll'
I1
tp173
a(S'w'
I8774
tp174
a(S'p1_tl'
I160
tp175
a(S'p1_ll'
I1
tp176
a(S'w'
I8835
tp177
a(S'p1_tl'
I179
tp178
a(S'p1_ll'
I1
tp179
a(S'w'
I8782
tp180
a(S'p1_tl'
I160
tp181
a(S'p1_ll'
I1
tp182
a(S'w'
I8827
tp183
a(S'p1_tl'
I169
tp184
a(S'p1_ll'
I1
tp185
a(S'w'
I8781
tp186
a(S'p1_tl'
I160
tp187
a(S'p1_ll'
I1
tp188
a(S'w'
I8830
tp189
a(S'p1_tl'
I169
tp190
a(S'p1_ll'
I1
tp191
a(S'w'
I8783
tp192
a(S'p1_tl'
I160
tp193
a(S'w'
I1
tp194
a(S'p1_ll'
I1
tp195
a(S'w'
I8825
tp196
a.