(lp1
(S'clock'
p2
I1789772
tp3
a(S'w'
I429
tp4
a(S'p1_lh'
I1
tp5
a(S'p1_cv'
I1
tp6
a(S'w'
I28
tp7
a(S'p2_lh'
I1
tp8
a(S'p2_cv'
I1
tp9
a(S'w'
I15
tp10
a(S'ch_no'
I1
tp11
a(S'ch_tr'
I0
tp12
a(S'ch_p2'
I1
tp13
a(S'ch_p1'
I1
tp14
a(S'w'
I1
tp15
a(S'ch_no'
I1
tp16
a(S'ch_tr'
I1
tp17
a(S'ch_p2'
I1
tp18
a(S'ch_p1'
I1
tp19
a(S'w'
I5081
tp20
a(S'p1_vo'
I5
tp21
a(S'w'
I8
tp22
a(S'p1_ll'
I1
tp23
a(S'w'
I3
tp24
a(S'p1_tl'
I240
tp25
a(S'w'
I15
tp26
a(S'p2_vo'
I5
tp27
a(S'w'
I9
tp28
a(S'p2_ll'
I1
tp29
a(S'w'
I2
tp30
a(S'p2_tl'
I160
tp31
a(S'w'
I8
tp32
a(S'tr_lr'
I12
tp33
a(S'w'
I6
tp34
a(S'tr_ll'
I1
tp35
a(S'tr_th'
I2
tp36
a(S'w'
I2
tp37
a(S'tr_tl'
I128
tp38
a(S'w'
I13
tp39
a(S'ch_no'
I1
tp40
a(S'ch_tr'
I1
tp41
a(S'ch_p2'
I1
tp42
a(S'ch_p1'
I1
tp43
a(S'w'
I661
tp44
a(S'p1_du'
I1
tp45
a(S'p1_vo'
I4
tp46
a(S'w'
I9
tp47
a(S'p2_du'
I1
tp48
a(S'p2_vo'
I4
tp49
a(S'w'
I725
tp50
a(S'p1_vo'
I3
tp51
a(S'w'
I8
tp52
a(S'p2_vo'
I3
tp53
a(S'w'
I726
tp54
a(S'p1_vo'
I2
tp55
a(S'w'
I8
tp56
a(S'p2_vo'
I2
tp57
a(S'w'
I2195
tp58
a(S'p1_vo'
I1
tp59
a(S'w'
I10
tp60
a(S'p2_vo'
I1
tp61
a(S'w'
I729
tp62
a(S'p1_du'
I0
tp63
a(S'p1_vo'
I5
tp64
a(S'w'
I9
tp65
a(S'w'
I15
tp66
a(S'p2_du'
I0
tp67
a(S'p2_vo'
I5
tp68
a(S'w'
I10
tp69
a(S'w'
I14
tp70
a(S'tr_ll'
I1
tp71
a(S'w'
I13
tp72
a(S'ch_no'
I1
tp73
a(S'ch_tr'
I1
tp74
a(S'ch_p2'
I1
tp75
a(S'ch_p1'
I1
tp76
a(S'ch_no'
I1
tp77
a(S'ch_tr'
I1
tp78
a(S'ch_p2'
I1
tp79
a(S'ch_p1'
I1
tp80
a(S'w'
I666
tp81
a(S'p1_du'
I1
tp82
a(S'p1_vo'
I4
tp83
a(S'w'
I8
tp84
a(S'p2_du'
I1
tp85
a(S'p2_vo'
I4
tp86
a(S'w'
I726
tp87
a(S'p1_vo'
I3
tp88
a(S'w'
I8
tp89
a(S'p2_vo'
I3
tp90
a(S'w'
I726
tp91
a(S'p1_vo'
I2
tp92
a(S'w'
I8
tp93
a(S'p2_vo'
I2
tp94
a(S'w'
I2194
tp95
a(S'p1_vo'
I1
tp96
a(S'w'
I10
tp97
a(S'p2_vo'
I1
tp98
a(S'w'
I729
tp99
a(S'p1_du'
I0
tp100
a(S'p1_vo'
I5
tp101
a(S'w'
I9
tp102
a(S'w'
I16
tp103
a(S'p2_du'
I0
tp104
a(S'p2_vo'
I5
tp105
a(S'w'
I9
tp106
a(S'w'
I14
tp107
a(S'tr_ll'
I1
tp108
a(S'w'
I13
tp109
a(S'ch_no'
I1
tp110
a(S'ch_tr'
I1
tp111
a(S'ch_p2'
I1
tp112
a(S'ch_p1'
I1
tp113
a(S'w'
I1
tp114
a(S'ch_no'
I1
tp115
a(S'ch_tr'
I1
tp116
a(S'ch_p2'
I1
tp117
a(S'ch_p1'
I1
tp118
a(S'w'
I666
tp119
a(S'p1_du'
I1
tp120
a(S'p1_vo'
I4
tp121
a(S'w'
I8
tp122
a(S'p2_du'
I1
tp123
a(S'p2_vo'
I4
tp124
a(S'w'
I725
tp125
a(S'p1_vo'
I3
tp126
a(S'w'
I9
tp127
a(S'p2_vo'
I3
tp128
a(S'w'
I725
tp129
a(S'p1_vo'
I2
tp130
a(S'w'
I8
tp131
a(S'p2_vo'
I2
tp132
a(S'w'
I2195
tp133
a(S'p1_vo'
I1
tp134
a(S'w'
I10
tp135
a(S'p2_vo'
I1
tp136
a(S'w'
I729
tp137
a(S'p1_du'
I0
tp138
a(S'p1_vo'
I5
tp139
a(S'w'
I9
tp140
a(S'w'
I16
tp141
a(S'p2_du'
I0
tp142
a(S'p2_vo'
I5
tp143
a(S'w'
I9
tp144
a(S'w'
I15
tp145
a(S'tr_ll'
I1
tp146
a(S'w'
I12
tp147
a(S'ch_no'
I1
tp148
a(S'ch_tr'
I1
tp149
a(S'ch_p2'
I1
tp150
a(S'ch_p1'
I1
tp151
a(S'w'
I1
tp152
a(S'ch_no'
I1
tp153
a(S'ch_tr'
I1
tp154
a(S'ch_p2'
I1
tp155
a(S'ch_p1'
I1
tp156
a(S'w'
I665
tp157
a(S'p1_du'
I1
tp158
a(S'p1_vo'
I4
tp159
a(S'w'
I8
tp160
a(S'p2_du'
I1
tp161
a(S'p2_vo'
I4
tp162
a(S'w'
I726
tp163
a(S'p1_vo'
I3
tp164
a(S'w'
I8
tp165
a(S'p2_vo'
I3
tp166
a(S'w'
I726
tp167
a(S'p1_vo'
I2
tp168
a(S'w'
I8
tp169
a(S'p2_vo'
I2
tp170
a(S'w'
I2195
tp171
a(S'p1_vo'
I1
tp172
a(S'w'
I10
tp173
a(S'p2_vo'
I1
tp174
a(S'w'
I727
tp175
a(S'p1_du'
I0
tp176
a(S'p1_vo'
I0
tp177
a(S'w'
I13
tp178
a(S'p2_du'
I0
tp179
a(S'p2_vo'
I0
tp180
a(S'w'
I5127
tp181
a(S'p1_vo'
I2
tp182
a(S'w'
I10
tp183
a(S'w'
I18
tp184
a(S'p2_vo'
I2
tp185
a(S'w'
I9
tp186
a(S'w'
I688
tp187
a(S'p1_du'
I1
tp188
a(S'p1_vo'
I1
tp189
a(S'w'
I9
tp190
a(S'p2_du'
I1
tp191
a(S'p2_vo'
I1
tp192
a(S'w'
I4403
tp193
a(S'p1_du'
I0
tp194
a(S'p1_vo'
I5
tp195
a(S'w'
I9
tp196
a(S'p1_tl'
I213
tp197
a(S'w'
I18
tp198
a(S'p2_du'
I0
tp199
a(S'p2_vo'
I5
tp200
a(S'w'
I10
tp201
a(S'p2_tl'
I142
tp202
a(S'w'
I13
tp203
a(S'tr_ll'
I1
tp204
a(S'w'
I2
tp205
a(S'tr_tl'
I59
tp206
a(S'w'
I11
tp207
a(S'ch_no'
I1
tp208
a(S'ch_tr'
I1
tp209
a(S'ch_p2'
I1
tp210
a(S'ch_p1'
I1
tp211
a(S'w'
I1
tp212
a(S'ch_no'
I1
tp213
a(S'ch_tr'
I1
tp214
a(S'ch_p2'
I1
tp215
a(S'ch_p1'
I1
tp216
a(S'w'
I661
tp217
a(S'p1_du'
I1
tp218
a(S'p1_vo'
I4
tp219
a(S'w'
I8
tp220
a(S'p2_du'
I1
tp221
a(S'p2_vo'
I4
tp222
a(S'w'
I726
tp223
a(S'p1_vo'
I3
tp224
a(S'w'
I8
tp225
a(S'p2_vo'
I3
tp226
a(S'w'
I726
tp227
a(S'p1_vo'
I2
tp228
a(S'w'
I8
tp229
a(S'p2_vo'
I2
tp230
a(S'w'
I2195
tp231
a(S'p1_vo'
I1
tp232
a(S'w'
I9
tp233
a(S'p2_vo'
I1
tp234
a(S'w'
I729
tp235
a(S'p1_du'
I0
tp236
a(S'p1_vo'
I5
tp237
a(S'w'
I9
tp238
a(S'w'
I16
tp239
a(S'p2_du'
I0
tp240
a(S'p2_vo'
I5
tp241
a(S'w'
I9
tp242
a(S'w'
I14
tp243
a(S'tr_ll'
I1
tp244
a(S'w'
I13
tp245
a(S'ch_no'
I1
tp246
a(S'ch_tr'
I1
tp247
a(S'ch_p2'
I1
tp248
a(S'ch_p1'
I1
tp249
a(S'w'
I1
tp250
a(S'ch_no'
I1
tp251
a(S'ch_tr'
I1
tp252
a(S'ch_p2'
I1
tp253
a(S'ch_p1'
I1
tp254
a(S'w'
I666
tp255
a(S'p1_du'
I1
tp256
a(S'p1_vo'
I4
tp257
a(S'w'
I8
tp258
a(S'p2_du'
I1
tp259
a(S'p2_vo'
I4
tp260
a(S'w'
I725
tp261
a(S'p1_vo'
I3
tp262
a(S'w'
I9
tp263
a(S'p2_vo'
I3
tp264
a(S'w'
I725
tp265
a(S'p1_vo'
I2
tp266
a(S'w'
I8
tp267
a(S'p2_vo'
I2
tp268
a(S'w'
I2195
tp269
a(S'p1_vo'
I1
tp270
a(S'w'
I10
tp271
a(S'p2_vo'
I1
tp272
a(S'w'
I729
tp273
a(S'p1_du'
I0
tp274
a(S'p1_vo'
I5
tp275
a(S'w'
I9
tp276
a(S'w'
I16
tp277
a(S'p2_du'
I0
tp278
a(S'p2_vo'
I5
tp279
a(S'w'
I9
tp280
a(S'w'
I14
tp281
a(S'tr_ll'
I1
tp282
a(S'w'
I13
tp283
a(S'ch_no'
I1
tp284
a(S'ch_tr'
I1
tp285
a(S'ch_p2'
I1
tp286
a(S'ch_p1'
I1
tp287
a(S'w'
I1
tp288
a(S'ch_no'
I1
tp289
a(S'ch_tr'
I1
tp290
a(S'ch_p2'
I1
tp291
a(S'ch_p1'
I1
tp292
a(S'w'
I665
tp293
a(S'p1_du'
I1
tp294
a(S'p1_vo'
I4
tp295
a(S'w'
I8
tp296
a(S'p2_du'
I1
tp297
a(S'p2_vo'
I4
tp298
a(S'w'
I726
tp299
a(S'p1_vo'
I3
tp300
a(S'w'
I8
tp301
a(S'p2_vo'
I3
tp302
a(S'w'
I726
tp303
a(S'p1_vo'
I2
tp304
a(S'w'
I8
tp305
a(S'p2_vo'
I2
tp306
a(S'w'
I2195
tp307
a(S'p1_vo'
I1
tp308
a(S'w'
I10
tp309
a(S'p2_vo'
I1
tp310
a(S'w'
I728
tp311
a(S'p1_du'
I0
tp312
a(S'p1_vo'
I5
tp313
a(S'w'
I10
tp314
a(S'w'
I15
tp315
a(S'p2_du'
I0
tp316
a(S'p2_vo'
I5
tp317
a(S'w'
I10
tp318
a(S'w'
I14
tp319
a(S'tr_ll'
I1
tp320
a(S'w'
I12
tp321
a(S'ch_no'
I1
tp322
a(S'ch_tr'
I1
tp323
a(S'ch_p2'
I1
tp324
a(S'ch_p1'
I1
tp325
a(S'w'
I1
tp326
a(S'ch_no'
I1
tp327
a(S'ch_tr'
I1
tp328
a(S'ch_p2'
I1
tp329
a(S'ch_p1'
I1
tp330
a(S'w'
I666
tp331
a(S'p1_du'
I1
tp332
a(S'p1_vo'
I4
tp333
a(S'w'
I8
tp334
a(S'p2_du'
I1
tp335
a(S'p2_vo'
I4
tp336
a(S'w'
I726
tp337
a(S'p1_vo'
I3
tp338
a(S'w'
I8
tp339
a(S'p2_vo'
I3
tp340
a(S'w'
I725
tp341
a(S'p1_vo'
I2
tp342
a(S'w'
I9
tp343
a(S'p2_vo'
I2
tp344
a(S'w'
I2194
tp345
a(S'p1_vo'
I1
tp346
a(S'w'
I10
tp347
a(S'p2_vo'
I1
tp348
a(S'w'
I729
tp349
a(S'p1_du'
I0
tp350
a(S'p1_vo'
I5
tp351
a(S'w'
I9
tp352
a(S'p1_ll'
I1
tp353
a(S'p1_th'
I1
tp354
a(S'w'
I2
tp355
a(S'p1_tl'
I13
tp356
a(S'w'
I15
tp357
a(S'p2_du'
I0
tp358
a(S'p2_vo'
I5
tp359
a(S'w'
I10
tp360
a(S'p2_tl'
I179
tp361
a(S'w'
I14
tp362
a(S'tr_ll'
I1
tp363
a(S'w'
I2
tp364
a(S'tr_tl'
I207
tp365
a(S'w'
I11
tp366
a(S'ch_no'
I1
tp367
a(S'ch_tr'
I1
tp368
a(S'ch_p2'
I1
tp369
a(S'ch_p1'
I1
tp370
a(S'w'
I1
tp371
a(S'ch_no'
I1
tp372
a(S'ch_tr'
I1
tp373
a(S'ch_p2'
I1
tp374
a(S'ch_p1'
I1
tp375
a(S'w'
I663
tp376
a(S'p1_du'
I1
tp377
a(S'p1_vo'
I4
tp378
a(S'w'
I9
tp379
a(S'p2_du'
I1
tp380
a(S'p2_vo'
I4
tp381
a(S'w'
I725
tp382
a(S'p1_vo'
I3
tp383
a(S'w'
I8
tp384
a(S'p2_vo'
I3
tp385
a(S'w'
I726
tp386
a(S'p1_vo'
I2
tp387
a(S'w'
I8
tp388
a(S'p2_vo'
I2
tp389
a(S'w'
I2195
tp390
a(S'p1_vo'
I1
tp391
a(S'w'
I10
tp392
a(S'p2_vo'
I1
tp393
a(S'w'
I729
tp394
a(S'p1_du'
I0
tp395
a(S'p1_vo'
I5
tp396
a(S'w'
I9
tp397
a(S'w'
I15
tp398
a(S'p2_du'
I0
tp399
a(S'p2_vo'
I5
tp400
a(S'w'
I10
tp401
a(S'w'
I14
tp402
a(S'tr_ll'
I1
tp403
a(S'w'
I13
tp404
a(S'ch_no'
I1
tp405
a(S'ch_tr'
I1
tp406
a(S'ch_p2'
I1
tp407
a(S'ch_p1'
I1
tp408
a(S'w'
I1
tp409
a(S'ch_no'
I1
tp410
a(S'ch_tr'
I1
tp411
a(S'ch_p2'
I1
tp412
a(S'ch_p1'
I1
tp413
a(S'w'
I665
tp414
a(S'p1_du'
I1
tp415
a(S'p1_vo'
I4
tp416
a(S'w'
I8
tp417
a(S'p2_du'
I1
tp418
a(S'p2_vo'
I4
tp419
a(S'w'
I726
tp420
a(S'p1_vo'
I3
tp421
a(S'w'
I8
tp422
a(S'p2_vo'
I3
tp423
a(S'w'
I726
tp424
a(S'p1_vo'
I2
tp425
a(S'w'
I8
tp426
a(S'p2_vo'
I2
tp427
a(S'w'
I2195
tp428
a(S'p1_vo'
I1
tp429
a(S'w'
I10
tp430
a(S'p2_vo'
I1
tp431
a(S'w'
I728
tp432
a(S'p1_du'
I0
tp433
a(S'p1_vo'
I5
tp434
a(S'w'
I10
tp435
a(S'w'
I15
tp436
a(S'p2_du'
I0
tp437
a(S'p2_vo'
I5
tp438
a(S'w'
I10
tp439
a(S'w'
I13
tp440
a(S'tr_ll'
I1
tp441
a(S'w'
I13
tp442
a(S'ch_no'
I1
tp443
a(S'ch_tr'
I1
tp444
a(S'ch_p2'
I1
tp445
a(S'ch_p1'
I1
tp446
a(S'w'
I1
tp447
a(S'ch_no'
I1
tp448
a(S'ch_tr'
I1
tp449
a(S'ch_p2'
I1
tp450
a(S'ch_p1'
I1
tp451
a(S'w'
I666
tp452
a(S'p1_du'
I1
tp453
a(S'p1_vo'
I4
tp454
a(S'w'
I8
tp455
a(S'p2_du'
I1
tp456
a(S'p2_vo'
I4
tp457
a(S'w'
I725
tp458
a(S'p1_vo'
I3
tp459
a(S'w'
I9
tp460
a(S'p2_vo'
I3
tp461
a(S'w'
I725
tp462
a(S'p1_vo'
I2
tp463
a(S'w'
I8
tp464
a(S'p2_vo'
I2
tp465
a(S'w'
I2195
tp466
a(S'p1_vo'
I1
tp467
a(S'w'
I10
tp468
a(S'p2_vo'
I1
tp469
a(S'w'
I729
tp470
a(S'p1_du'
I0
tp471
a(S'p1_vo'
I5
tp472
a(S'w'
I9
tp473
a(S'w'
I16
tp474
a(S'p2_du'
I0
tp475
a(S'p2_vo'
I5
tp476
a(S'w'
I9
tp477
a(S'w'
I14
tp478
a(S'tr_ll'
I1
tp479
a(S'w'
I13
tp480
a(S'ch_no'
I1
tp481
a(S'ch_tr'
I1
tp482
a(S'ch_p2'
I1
tp483
a(S'ch_p1'
I1
tp484
a(S'w'
I1
tp485
a(S'ch_no'
I1
tp486
a(S'ch_tr'
I1
tp487
a(S'ch_p2'
I1
tp488
a(S'ch_p1'
I1
tp489
a(S'w'
I665
tp490
a(S'p1_du'
I1
tp491
a(S'p1_vo'
I4
tp492
a(S'w'
I9
tp493
a(S'p2_du'
I1
tp494
a(S'p2_vo'
I4
tp495
a(S'w'
I725
tp496
a(S'p1_vo'
I3
tp497
a(S'w'
I8
tp498
a(S'p2_vo'
I3
tp499
a(S'w'
I726
tp500
a(S'p1_vo'
I2
tp501
a(S'w'
I8
tp502
a(S'p2_vo'
I2
tp503
a(S'w'
I2195
tp504
a(S'p1_vo'
I1
tp505
a(S'w'
I10
tp506
a(S'p2_vo'
I1
tp507
a(S'w'
I727
tp508
a(S'p1_du'
I0
tp509
a(S'p1_vo'
I0
tp510
a(S'w'
I13
tp511
a(S'p2_du'
I0
tp512
a(S'p2_vo'
I0
tp513
a(S'w'
I5135
tp514
a(S'p1_vo'
I6
tp515
a(S'w'
I9
tp516
a(S'p1_tl'
I64
tp517
a(S'w'
I25
tp518
a(S'p2_du'
I1
tp519
a(S'p2_vo'
I6
tp520
a(S'w'
I9
tp521
a(S'p2_tl'
I240
tp522
a(S'w'
I12
tp523
a(S'tr_lr'
I17
tp524
a(S'w'
I6
tp525
a(S'tr_ll'
I1
tp526
a(S'w'
I2
tp527
a(S'tr_tl'
I27
tp528
a(S'w'
I11
tp529
a(S'ch_no'
I1
tp530
a(S'ch_tr'
I1
tp531
a(S'ch_p2'
I1
tp532
a(S'ch_p1'
I1
tp533
a(S'w'
I1
tp534
a(S'ch_no'
I1
tp535
a(S'ch_tr'
I1
tp536
a(S'ch_p2'
I1
tp537
a(S'ch_p1'
I1
tp538
a(S'w'
I643
tp539
a(S'p1_du'
I1
tp540
a(S'p1_vo'
I5
tp541
a(S'w'
I8
tp542
a(S'p2_du'
I0
tp543
a(S'p2_vo'
I5
tp544
a(S'w'
I725
tp545
a(S'p1_vo'
I4
tp546
a(S'w'
I9
tp547
a(S'p2_vo'
I4
tp548
a(S'w'
I725
tp549
a(S'p1_vo'
I3
tp550
a(S'w'
I8
tp551
a(S'p2_vo'
I3
tp552
a(S'w'
I13
tp553
a(S'ch_no'
I1
tp554
a(S'ch_tr'
I1
tp555
a(S'ch_p2'
I1
tp556
a(S'ch_p1'
I1
tp557
a(S'w'
I1
tp558
a(S'ch_no'
I1
tp559
a(S'ch_tr'
I1
tp560
a(S'ch_p2'
I1
tp561
a(S'ch_p1'
I1
tp562
a(S'w'
I2919
tp563
a(S'p1_du'
I0
tp564
a(S'p1_vo'
I6
tp565
a(S'w'
I9
tp566
a(S'p1_tl'
I46
tp567
a(S'w'
I14
tp568
a(S'p2_du'
I1
tp569
a(S'p2_vo'
I6
tp570
a(S'w'
I9
tp571
a(S'p2_tl'
I213
tp572
a(S'w'
I14
tp573
a(S'tr_ll'
I1
tp574
a(S'tr_th'
I1
tp575
a(S'w'
I2
tp576
a(S'tr_tl'
I224
tp577
a(S'w'
I10
tp578
a(S'ch_no'
I1
tp579
a(S'ch_tr'
I1
tp580
a(S'ch_p2'
I1
tp581
a(S'ch_p1'
I1
tp582
a(S'ch_no'
I1
tp583
a(S'ch_tr'
I1
tp584
a(S'ch_p2'
I1
tp585
a(S'ch_p1'
I1
tp586
a(S'w'
I670
tp587
a(S'p1_du'
I1
tp588
a(S'p1_vo'
I5
tp589
a(S'w'
I8
tp590
a(S'p2_du'
I0
tp591
a(S'p2_vo'
I5
tp592
a(S'w'
I28
tp593
a(S'no_lh'
I1
tp594
a(S'no_cv'
I1
tp595
a(S'no_vo'
I10
tp596
a(S'w'
I3
tp597
a(S'no_ll'
I1
tp598
a(S'w'
I2
tp599
a(S'no_np'
I2
tp600
a(S'w'
I693
tp601
a(S'p1_vo'
I4
tp602
a(S'w'
I8
tp603
a(S'p2_vo'
I4
tp604
a(S'w'
I16
tp605
a(S'no_ll'
I1
tp606
a(S'w'
I2
tp607
a(S'no_np'
I1
tp608
a(S'w'
I708
tp609
a(S'p1_vo'
I3
tp610
a(S'w'
I8
tp611
a(S'p2_vo'
I3
tp612
a(S'w'
I13
tp613
a(S'no_vo'
I7
tp614
a(S'w'
I2
tp615
a(S'no_ll'
I1
tp616
a(S'w'
I3
tp617
a(S'w'
I723
tp618
a(S'no_vo'
I6
tp619
a(S'w'
I3
tp620
a(S'no_ll'
I1
tp621
a(S'w'
I2
tp622
a(S'w'
I729
tp623
a(S'no_vo'
I5
tp624
a(S'w'
I3
tp625
a(S'no_ll'
I1
tp626
a(S'w'
I2
tp627
a(S'w'
I731
tp628
a(S'no_ll'
I1
tp629
a(S'w'
I2
tp630
a(S'no_np'
I0
tp631
a(S'w'
I719
tp632
a(S'p1_du'
I0
tp633
a(S'p1_vo'
I6
tp634
a(S'w'
I9
tp635
a(S'p1_ll'
I1
tp636
a(S'p1_th'
I0
tp637
a(S'w'
I2
tp638
a(S'p1_tl'
I240
tp639
a(S'w'
I17
tp640
a(S'p2_du'
I1
tp641
a(S'p2_vo'
I6
tp642
a(S'w'
I9
tp643
a(S'p2_tl'
I179
tp644
a(S'w'
I17
tp645
a(S'tr_ll'
I1
tp646
a(S'w'
I2
tp647
a(S'tr_tl'
I147
tp648
a(S'w'
I9
tp649
a(S'ch_no'
I1
tp650
a(S'ch_tr'
I1
tp651
a(S'ch_p2'
I1
tp652
a(S'ch_p1'
I1
tp653
a(S'w'
I1
tp654
a(S'ch_no'
I1
tp655
a(S'ch_tr'
I1
tp656
a(S'ch_p2'
I1
tp657
a(S'ch_p1'
I1
tp658
a(S'w'
I9
tp659
a(S'no_ll'
I1
tp660
a(S'w'
I2
tp661
a(S'no_np'
I1
tp662
a(S'w'
I652
tp663
a(S'p1_du'
I1
tp664
a(S'p1_vo'
I5
tp665
a(S'w'
I8
tp666
a(S'p2_du'
I0
tp667
a(S'p2_vo'
I5
tp668
a(S'w'
I27
tp669
a(S'no_vo'
I10
tp670
a(S'w'
I3
tp671
a(S'no_ll'
I1
tp672
a(S'w'
I2
tp673
a(S'no_np'
I2
tp674
a(S'w'
I693
tp675
a(S'p1_vo'
I4
tp676
a(S'w'
I9
tp677
a(S'p2_vo'
I4
tp678
a(S'w'
I15
tp679
a(S'no_ll'
I1
tp680
a(S'w'
I2
tp681
a(S'no_np'
I1
tp682
a(S'w'
I708
tp683
a(S'p1_vo'
I3
tp684
a(S'w'
I9
tp685
a(S'p2_vo'
I3
tp686
a(S'w'
I12
tp687
a(S'no_vo'
I7
tp688
a(S'w'
I3
tp689
a(S'no_ll'
I1
tp690
a(S'w'
I2
tp691
a(S'w'
I724
tp692
a(S'no_vo'
I6
tp693
a(S'w'
I3
tp694
a(S'no_ll'
I1
tp695
a(S'w'
I2
tp696
a(S'w'
I728
tp697
a(S'no_vo'
I5
tp698
a(S'w'
I3
tp699
a(S'no_ll'
I1
tp700
a(S'w'
I2
tp701
a(S'w'
I732
tp702
a(S'no_ll'
I1
tp703
a(S'w'
I2
tp704
a(S'no_np'
I0
tp705
a(S'w'
I726
tp706
a(S'p1_du'
I0
tp707
a(S'p1_vo'
I6
tp708
a(S'w'
I9
tp709
a(S'p1_tl'
I213
tp710
a(S'w'
I22
tp711
a(S'p2_du'
I1
tp712
a(S'p2_vo'
I6
tp713
a(S'w'
I9
tp714
a(S'p2_tl'
I160
tp715
a(S'w'
I14
tp716
a(S'tr_lh'
I1
tp717
a(S'tr_lr'
I16
tp718
a(S'w'
I7
tp719
a(S'tr_ll'
I1
tp720
a(S'w'
I2
tp721
a(S'tr_tl'
I64
tp722
a(S'w'
I9
tp723
a(S'ch_no'
I1
tp724
a(S'ch_tr'
I1
tp725
a(S'ch_p2'
I1
tp726
a(S'ch_p1'
I1
tp727
a(S'w'
I1
tp728
a(S'ch_no'
I1
tp729
a(S'ch_tr'
I1
tp730
a(S'ch_p2'
I1
tp731
a(S'ch_p1'
I1
tp732
a(S'w'
I9
tp733
a(S'no_ll'
I1
tp734
a(S'w'
I2
tp735
a(S'no_np'
I1
tp736
a(S'w'
I637
tp737
a(S'p1_du'
I1
tp738
a(S'p1_vo'
I5
tp739
a(S'w'
I9
tp740
a(S'p2_du'
I0
tp741
a(S'p2_vo'
I5
tp742
a(S'w'
I27
tp743
a(S'no_vo'
I10
tp744
a(S'w'
I3
tp745
a(S'no_ll'
I1
tp746
a(S'w'
I2
tp747
a(S'no_np'
I2
tp748
a(S'w'
I693
tp749
a(S'p1_vo'
I4
tp750
a(S'w'
I8
tp751
a(S'p2_vo'
I4
tp752
a(S'w'
I16
tp753
a(S'no_ll'
I1
tp754
a(S'w'
I2
tp755
a(S'no_np'
I1
tp756
a(S'w'
I708
tp757
a(S'p1_vo'
I3
tp758
a(S'w'
I8
tp759
a(S'p2_vo'
I3
tp760
a(S'w'
I13
tp761
a(S'no_vo'
I7
tp762
a(S'w'
I3
tp763
a(S'no_ll'
I1
tp764
a(S'w'
I2
tp765
a(S'w'
I724
tp766
a(S'no_vo'
I6
tp767
a(S'w'
I2
tp768
a(S'no_ll'
I1
tp769
a(S'w'
I2
tp770
a(S'w'
I729
tp771
a(S'no_vo'
I5
tp772
a(S'w'
I3
tp773
a(S'no_ll'
I1
tp774
a(S'w'
I2
tp775
a(S'w'
I731
tp776
a(S'no_ll'
I1
tp777
a(S'w'
I3
tp778
a(S'no_np'
I0
tp779
a(S'w'
I725
tp780
a(S'no_vo'
I0
tp781
a(S'w'
I7
tp782
a(S'no_vo'
I5
tp783
a(S'w'
I3
tp784
a(S'no_ll'
I1
tp785
a(S'w'
I2
tp786
a(S'no_np'
I1
tp787
a(S'w'
I726
tp788
a(S'no_ll'
I1
tp789
a(S'w'
I2
tp790
a(S'no_np'
I0
tp791
a(S'w'
I732
tp792
a(S'no_ll'
I1
tp793
a(S'w'
I2
tp794
a(S'no_np'
I1
tp795
a(S'w'
I732
tp796
a(S'no_ll'
I1
tp797
a(S'w'
I2
tp798
a(S'no_np'
I0
tp799
a(S'w'
I729
tp800
a(S'no_vo'
I4
tp801
a(S'w'
I3
tp802
a(S'no_ll'
I1
tp803
a(S'w'
I2
tp804
a(S'no_np'
I1
tp805
a(S'w'
I729
tp806
a(S'no_vo'
I0
tp807
a(S'w'
I59426
tp808
a(S'p1_vo'
I2
tp809
a(S'w'
I10
tp810
a(S'p2_vo'
I2
tp811
a(S'w'
I722
tp812
a(S'p1_vo'
I1
tp813
a(S'w'
I9
tp814
a(S'p2_vo'
I1
tp815
a(S'w'
I2925
tp816
a(S'p1_du'
I0
tp817
a(S'p1_vo'
I0
tp818
a(S'w'
I8
tp819
a(S'p2_vo'
I0
tp820
a(S'w'
I7
tp821
a(S'ch_no'
I1
tp822
a(S'ch_tr'
I0
tp823
a(S'ch_p2'
I1
tp824
a(S'ch_p1'
I1
tp825
a(S'tr_lh'
I0
tp826
a(S'tr_lr'
I0
tp827
a(S'ch_no'
I1
tp828
a(S'ch_tr'
I1
tp829
a(S'ch_p2'
I1
tp830
a(S'ch_p1'
I1
tp831
a(S'w'
I222
tp832
a.