(lp1
(S'clock'
p2
I1789773
tp3
a(S'p1_du'
I2
tp4
a(S'p1_vo'
I15
tp5
a(S'p2_du'
I2
tp6
a(S'p2_vo'
I15
tp7
a(S'ch_no'
I1
tp8
a(S'ch_tr'
I1
tp9
a(S'ch_p2'
I1
tp10
a(S'ch_p1'
I1
tp11
a(S'fc_mo'
I1
tp12
a(S'w'
I8
tp13
a(S'p1_du'
I1
tp14
a(S'p1_vo'
I1
tp15
a(S'w'
I4
tp16
a(S'p1_tl'
I249
tp17
a(S'p1_ll'
I1
tp18
a(S'p1_th'
I2
tp19
a(S'w'
I8
tp20
a(S'tr_lr'
I65
tp21
a(S'w'
I4
tp22
a(S'tr_tl'
I253
tp23
a(S'tr_ll'
I1
tp24
a(S'w'
I2917
tp25
a(S'ch_no'
I1
tp26
a(S'ch_tr'
I0
tp27
a(S'ch_p2'
I1
tp28
a(S'ch_p1'
I1
tp29
a(S'w'
I2927
tp30
a(S'w'
I1
tp31
a(S'p1_ll'
I1
tp32
a(S'w'
I7
tp33
a(S'ch_no'
I1
tp34
a(S'ch_tr'
I1
tp35
a(S'ch_p2'
I1
tp36
a(S'ch_p1'
I1
tp37
a(S'w'
I3
tp38
a(S'tr_ll'
I1
tp39
a(S'w'
I5850
tp40
a(S'ch_no'
I1
tp41
a(S'ch_tr'
I1
tp42
a(S'ch_p2'
I1
tp43
a(S'ch_p1'
I0
tp44
a(S'w'
I5862
tp45
a(S'ch_no'
I1
tp46
a(S'ch_tr'
I1
tp47
a(S'ch_p2'
I1
tp48
a(S'ch_p1'
I1
tp49
a(S'w'
I3
tp50
a(S'p1_ll'
I1
tp51
a(S'w'
I5857
tp52
a(S'ch_no'
I1
tp53
a(S'ch_tr'
I1
tp54
a(S'ch_p2'
I1
tp55
a(S'ch_p1'
I0
tp56
a(S'w'
I7
tp57
a(S'ch_no'
I1
tp58
a(S'ch_tr'
I0
tp59
a(S'ch_p2'
I1
tp60
a(S'ch_p1'
I0
tp61
a(S'w'
I5855
tp62
a(S'ch_no'
I1
tp63
a(S'ch_tr'
I0
tp64
a(S'ch_p2'
I1
tp65
a(S'ch_p1'
I1
tp66
a(S'w'
I3
tp67
a(S'p1_ll'
I1
tp68
a(S'w'
I5856
tp69
a(S'p1_tl'
I87
tp70
a(S'w'
I1
tp71
a(S'p1_ll'
I1
tp72
a(S'p1_th'
I3
tp73
a(S'w'
I5860
tp74
a(S'p1_tl'
I249
tp75
a(S'w'
I1
tp76
a(S'p1_ll'
I1
tp77
a(S'p1_th'
I2
tp78
a(S'w'
I5860
tp79
a(S'w'
I1
tp80
a(S'p1_ll'
I1
tp81
a(S'w'
I7
tp82
a(S'ch_no'
I1
tp83
a(S'ch_tr'
I1
tp84
a(S'ch_p2'
I1
tp85
a(S'ch_p1'
I1
tp86
a(S'w'
I3
tp87
a(S'tr_tl'
I225
tp88
a(S'tr_ll'
I1
tp89
a(S'w'
I2920
tp90
a(S'ch_no'
I1
tp91
a(S'ch_tr'
I1
tp92
a(S'ch_p2'
I1
tp93
a(S'ch_p1'
I0
tp94
a(S'w'
I7
tp95
a(S'ch_no'
I1
tp96
a(S'ch_tr'
I0
tp97
a(S'ch_p2'
I1
tp98
a(S'ch_p1'
I0
tp99
a(S'w'
I2924
tp100
a(S'ch_no'
I1
tp101
a(S'ch_tr'
I0
tp102
a(S'ch_p2'
I1
tp103
a(S'ch_p1'
I1
tp104
a(S'w'
I3
tp105
a(S'p1_ll'
I1
tp106
a(S'w'
I7
tp107
a(S'ch_no'
I1
tp108
a(S'ch_tr'
I1
tp109
a(S'ch_p2'
I1
tp110
a(S'ch_p1'
I1
tp111
a(S'w'
I4
tp112
a(S'tr_ll'
I1
tp113
a(S'w'
I5846
tp114
a(S'ch_no'
I1
tp115
a(S'ch_tr'
I1
tp116
a(S'ch_p2'
I1
tp117
a(S'ch_p1'
I0
tp118
a(S'w'
I5862
tp119
a(S'ch_no'
I1
tp120
a(S'ch_tr'
I1
tp121
a(S'ch_p2'
I1
tp122
a(S'ch_p1'
I1
tp123
a(S'w'
I3
tp124
a(S'p1_ll'
I1
tp125
a(S'w'
I5856
tp126
a(S'ch_no'
I1
tp127
a(S'ch_tr'
I1
tp128
a(S'ch_p2'
I1
tp129
a(S'ch_p1'
I0
tp130
a(S'w'
I7
tp131
a(S'ch_no'
I1
tp132
a(S'ch_tr'
I0
tp133
a(S'ch_p2'
I1
tp134
a(S'ch_p1'
I0
tp135
a(S'w'
I5855
tp136
a(S'ch_no'
I1
tp137
a(S'ch_tr'
I0
tp138
a(S'ch_p2'
I1
tp139
a(S'ch_p1'
I1
tp140
a(S'w'
I3
tp141
a(S'p1_ll'
I1
tp142
a(S'w'
I5857
tp143
a(S'p1_tl'
I252
tp144
a(S'w'
I1
tp145
a(S'p1_ll'
I1
tp146
a(S'p1_th'
I1
tp147
a(S'w'
I5860
tp148
a(S'p1_tl'
I249
tp149
a(S'w'
I1
tp150
a(S'p1_ll'
I1
tp151
a(S'p1_th'
I2
tp152
a(S'w'
I5860
tp153
a(S'w'
I1
tp154
a(S'p1_ll'
I1
tp155
a(S'w'
I7
tp156
a(S'ch_no'
I1
tp157
a(S'ch_tr'
I1
tp158
a(S'ch_p2'
I1
tp159
a(S'ch_p1'
I1
tp160
a(S'w'
I3
tp161
a(S'tr_tl'
I212
tp162
a(S'tr_ll'
I1
tp163
a(S'w'
I2922
tp164
a(S'ch_no'
I1
tp165
a(S'ch_tr'
I0
tp166
a(S'ch_p2'
I1
tp167
a(S'ch_p1'
I1
tp168
a(S'w'
I2927
tp169
a(S'w'
I1
tp170
a(S'p1_ll'
I1
tp171
a(S'w'
I7
tp172
a(S'ch_no'
I1
tp173
a(S'ch_tr'
I1
tp174
a(S'ch_p2'
I1
tp175
a(S'ch_p1'
I1
tp176
a(S'w'
I3
tp177
a(S'tr_ll'
I1
tp178
a(S'w'
I5850
tp179
a(S'ch_no'
I1
tp180
a(S'ch_tr'
I1
tp181
a(S'ch_p2'
I1
tp182
a(S'ch_p1'
I0
tp183
a(S'w'
I5862
tp184
a(S'ch_no'
I1
tp185
a(S'ch_tr'
I1
tp186
a(S'ch_p2'
I1
tp187
a(S'ch_p1'
I1
tp188
a(S'w'
I3
tp189
a(S'p1_ll'
I1
tp190
a(S'w'
I5857
tp191
a(S'ch_no'
I1
tp192
a(S'ch_tr'
I1
tp193
a(S'ch_p2'
I1
tp194
a(S'ch_p1'
I0
tp195
a(S'w'
I7
tp196
a(S'ch_no'
I1
tp197
a(S'ch_tr'
I0
tp198
a(S'ch_p2'
I1
tp199
a(S'ch_p1'
I0
tp200
a(S'w'
I5855
tp201
a(S'ch_no'
I1
tp202
a(S'ch_tr'
I0
tp203
a(S'ch_p2'
I1
tp204
a(S'ch_p1'
I1
tp205
a(S'w'
I3
tp206
a(S'p1_ll'
I1
tp207
a(S'w'
I5857
tp208
a(S'p1_tl'
I87
tp209
a(S'w'
I1
tp210
a(S'p1_ll'
I1
tp211
a(S'p1_th'
I3
tp212
a(S'w'
I5859
tp213
a(S'p1_tl'
I249
tp214
a(S'w'
I1
tp215
a(S'p1_ll'
I1
tp216
a(S'p1_th'
I2
tp217
a(S'w'
I5860
tp218
a(S'ch_no'
I1
tp219
a(S'ch_tr'
I0
tp220
a(S'ch_p2'
I1
tp221
a(S'ch_p1'
I0
tp222
a(S'w'
I7
tp223
a(S'ch_no'
I1
tp224
a(S'ch_tr'
I1
tp225
a(S'ch_p2'
I1
tp226
a(S'ch_p1'
I0
tp227
a(S'w'
I3
tp228
a(S'tr_tl'
I225
tp229
a(S'w'
I1
tp230
a(S'tr_ll'
I1
tp231
a(S'w'
I2923
tp232
a(S'ch_no'
I1
tp233
a(S'ch_tr'
I0
tp234
a(S'ch_p2'
I1
tp235
a(S'ch_p1'
I0
tp236
a(S'w'
I2928
tp237
a(S'ch_no'
I1
tp238
a(S'ch_tr'
I0
tp239
a(S'ch_p2'
I1
tp240
a(S'ch_p1'
I1
tp241
a(S'w'
I3
tp242
a(S'p1_ll'
I1
tp243
a(S'w'
I7
tp244
a(S'ch_no'
I1
tp245
a(S'ch_tr'
I1
tp246
a(S'ch_p2'
I1
tp247
a(S'ch_p1'
I1
tp248
a(S'w'
I4
tp249
a(S'tr_ll'
I1
tp250
a(S'w'
I5846
tp251
a(S'ch_no'
I1
tp252
a(S'ch_tr'
I1
tp253
a(S'ch_p2'
I1
tp254
a(S'ch_p1'
I0
tp255
a(S'w'
I5862
tp256
a(S'ch_no'
I1
tp257
a(S'ch_tr'
I1
tp258
a(S'ch_p2'
I1
tp259
a(S'ch_p1'
I1
tp260
a(S'w'
I3
tp261
a(S'p1_ll'
I1
tp262
a(S'w'
I5857
tp263
a(S'p1_tl'
I128
tp264
a(S'w'
I1
tp265
a(S'p1_ll'
I1
tp266
a(S'w'
I7
tp267
a(S'ch_no'
I1
tp268
a(S'ch_tr'
I0
tp269
a(S'ch_p2'
I1
tp270
a(S'ch_p1'
I1
tp271
a(S'w'
I5852
tp272
a(S'p1_tl'
I166
tp273
a(S'w'
I1
tp274
a(S'p1_ll'
I1
tp275
a(S'w'
I5860
tp276
a(S'p1_tl'
I249
tp277
a(S'w'
I1
tp278
a(S'p1_ll'
I1
tp279
a(S'w'
I5860
tp280
a(S'ch_no'
I1
tp281
a(S'ch_tr'
I0
tp282
a(S'ch_p2'
I1
tp283
a(S'ch_p1'
I0
tp284
a(S'w'
I5862
tp285
a(S'ch_no'
I1
tp286
a(S'ch_tr'
I0
tp287
a(S'ch_p2'
I1
tp288
a(S'ch_p1'
I1
tp289
a(S'w'
I3
tp290
a(S'p1_ll'
I1
tp291
a(S'w'
I7
tp292
a(S'ch_no'
I1
tp293
a(S'ch_tr'
I1
tp294
a(S'ch_p2'
I1
tp295
a(S'ch_p1'
I1
tp296
a(S'w'
I3
tp297
a(S'tr_tl'
I253
tp298
a(S'w'
I1
tp299
a(S'tr_ll'
I1
tp300
a(S'w'
I2918
tp301
a(S'ch_no'
I1
tp302
a(S'ch_tr'
I0
tp303
a(S'ch_p2'
I1
tp304
a(S'ch_p1'
I1
tp305
a(S'w'
I2928
tp306
a(S'w'
I1
tp307
a(S'p1_ll'
I1
tp308
a(S'w'
I7
tp309
a(S'ch_no'
I1
tp310
a(S'ch_tr'
I1
tp311
a(S'ch_p2'
I1
tp312
a(S'ch_p1'
I1
tp313
a(S'w'
I3
tp314
a(S'tr_ll'
I1
tp315
a(S'w'
I5849
tp316
a(S'ch_no'
I1
tp317
a(S'ch_tr'
I1
tp318
a(S'ch_p2'
I1
tp319
a(S'ch_p1'
I0
tp320
a(S'w'
I5862
tp321
a(S'ch_no'
I1
tp322
a(S'ch_tr'
I1
tp323
a(S'ch_p2'
I1
tp324
a(S'ch_p1'
I1
tp325
a(S'w'
I3
tp326
a(S'p1_ll'
I1
tp327
a(S'w'
I5857
tp328
a(S'ch_no'
I1
tp329
a(S'ch_tr'
I1
tp330
a(S'ch_p2'
I1
tp331
a(S'ch_p1'
I0
tp332
a(S'w'
I7
tp333
a(S'ch_no'
I1
tp334
a(S'ch_tr'
I0
tp335
a(S'ch_p2'
I1
tp336
a(S'ch_p1'
I0
tp337
a(S'w'
I5855
tp338
a(S'ch_no'
I1
tp339
a(S'ch_tr'
I0
tp340
a(S'ch_p2'
I1
tp341
a(S'ch_p1'
I1
tp342
a(S'w'
I3
tp343
a(S'p1_ll'
I1
tp344
a(S'w'
I5857
tp345
a(S'p1_tl'
I252
tp346
a(S'w'
I1
tp347
a(S'p1_ll'
I1
tp348
a(S'p1_th'
I1
tp349
a(S'w'
I5860
tp350
a(S'p1_tl'
I249
tp351
a(S'w'
I1
tp352
a(S'p1_ll'
I1
tp353
a(S'p1_th'
I2
tp354
a(S'w'
I5859
tp355
a(S'w'
I1
tp356
a(S'p1_ll'
I1
tp357
a(S'w'
I7
tp358
a(S'ch_no'
I1
tp359
a(S'ch_tr'
I1
tp360
a(S'ch_p2'
I1
tp361
a(S'ch_p1'
I1
tp362
a(S'w'
I3
tp363
a(S'tr_tl'
I225
tp364
a(S'tr_ll'
I1
tp365
a(S'w'
I2923
tp366
a(S'ch_no'
I1
tp367
a(S'ch_tr'
I0
tp368
a(S'ch_p2'
I1
tp369
a(S'ch_p1'
I1
tp370
a(S'w'
I2927
tp371
a(S'w'
I1
tp372
a(S'p1_ll'
I1
tp373
a(S'w'
I7
tp374
a(S'ch_no'
I1
tp375
a(S'ch_tr'
I1
tp376
a(S'ch_p2'
I1
tp377
a(S'ch_p1'
I1
tp378
a(S'w'
I3
tp379
a(S'tr_ll'
I1
tp380
a(S'w'
I5850
tp381
a(S'ch_no'
I1
tp382
a(S'ch_tr'
I1
tp383
a(S'ch_p2'
I1
tp384
a(S'ch_p1'
I0
tp385
a(S'w'
I5862
tp386
a(S'ch_no'
I1
tp387
a(S'ch_tr'
I1
tp388
a(S'ch_p2'
I1
tp389
a(S'ch_p1'
I1
tp390
a(S'w'
I3
tp391
a(S'p1_ll'
I1
tp392
a(S'w'
I5857
tp393
a(S'ch_no'
I1
tp394
a(S'ch_tr'
I1
tp395
a(S'ch_p2'
I1
tp396
a(S'ch_p1'
I0
tp397
a(S'w'
I7
tp398
a(S'ch_no'
I1
tp399
a(S'ch_tr'
I0
tp400
a(S'ch_p2'
I1
tp401
a(S'ch_p1'
I0
tp402
a(S'w'
I5855
tp403
a(S'ch_no'
I1
tp404
a(S'ch_tr'
I0
tp405
a(S'ch_p2'
I1
tp406
a(S'ch_p1'
I1
tp407
a(S'w'
I3
tp408
a(S'p1_ll'
I1
tp409
a(S'w'
I5856
tp410
a(S'p1_tl'
I58
tp411
a(S'w'
I1
tp412
a(S'p1_ll'
I1
tp413
a(S'w'
I5860
tp414
a(S'p1_tl'
I249
tp415
a(S'w'
I1
tp416
a(S'p1_ll'
I1
tp417
a(S'w'
I5860
tp418
a(S'w'
I1
tp419
a(S'p1_ll'
I1
tp420
a(S'w'
I7
tp421
a(S'ch_no'
I1
tp422
a(S'ch_tr'
I1
tp423
a(S'ch_p2'
I1
tp424
a(S'ch_p1'
I1
tp425
a(S'w'
I3
tp426
a(S'tr_tl'
I212
tp427
a(S'tr_ll'
I1
tp428
a(S'w'
I2922
tp429
a(S'ch_no'
I1
tp430
a(S'ch_tr'
I0
tp431
a(S'ch_p2'
I1
tp432
a(S'ch_p1'
I1
tp433
a(S'w'
I2928
tp434
a(S'w'
I1
tp435
a(S'p1_ll'
I1
tp436
a(S'w'
I7
tp437
a(S'ch_no'
I1
tp438
a(S'ch_tr'
I1
tp439
a(S'ch_p2'
I1
tp440
a(S'ch_p1'
I1
tp441
a(S'w'
I3
tp442
a(S'tr_ll'
I1
tp443
a(S'w'
I5850
tp444
a(S'ch_no'
I1
tp445
a(S'ch_tr'
I1
tp446
a(S'ch_p2'
I1
tp447
a(S'ch_p1'
I0
tp448
a(S'w'
I5861
tp449
a(S'ch_no'
I1
tp450
a(S'ch_tr'
I1
tp451
a(S'ch_p2'
I1
tp452
a(S'ch_p1'
I1
tp453
a(S'w'
I3
tp454
a(S'p1_ll'
I1
tp455
a(S'w'
I5857
tp456
a(S'ch_no'
I1
tp457
a(S'ch_tr'
I1
tp458
a(S'ch_p2'
I1
tp459
a(S'ch_p1'
I0
tp460
a(S'w'
I7
tp461
a(S'ch_no'
I1
tp462
a(S'ch_tr'
I0
tp463
a(S'ch_p2'
I1
tp464
a(S'ch_p1'
I0
tp465
a(S'w'
I5855
tp466
a(S'ch_no'
I1
tp467
a(S'ch_tr'
I0
tp468
a(S'ch_p2'
I1
tp469
a(S'ch_p1'
I1
tp470
a(S'w'
I3
tp471
a(S'p1_ll'
I1
tp472
a(S'w'
I5857
tp473
a(S'p1_tl'
I128
tp474
a(S'w'
I1
tp475
a(S'p1_ll'
I1
tp476
a(S'w'
I5860
tp477
a(S'p1_tl'
I249
tp478
a(S'w'
I1
tp479
a(S'p1_ll'
I1
tp480
a(S'w'
I5860
tp481
a(S'ch_no'
I1
tp482
a(S'ch_tr'
I0
tp483
a(S'ch_p2'
I1
tp484
a(S'ch_p1'
I0
tp485
a(S'w'
I7
tp486
a(S'ch_no'
I1
tp487
a(S'ch_tr'
I1
tp488
a(S'ch_p2'
I1
tp489
a(S'ch_p1'
I0
tp490
a(S'w'
I3
tp491
a(S'tr_tl'
I189
tp492
a(S'w'
I1
tp493
a(S'tr_ll'
I1
tp494
a(S'w'
I2922
tp495
a(S'ch_no'
I1
tp496
a(S'ch_tr'
I0
tp497
a(S'ch_p2'
I1
tp498
a(S'ch_p1'
I0
tp499
a(S'w'
I2928
tp500
a(S'ch_no'
I1
tp501
a(S'ch_tr'
I0
tp502
a(S'ch_p2'
I1
tp503
a(S'ch_p1'
I1
tp504
a(S'w'
I3
tp505
a(S'p1_ll'
I1
tp506
a(S'w'
I7
tp507
a(S'ch_no'
I1
tp508
a(S'ch_tr'
I1
tp509
a(S'ch_p2'
I1
tp510
a(S'ch_p1'
I1
tp511
a(S'w'
I4
tp512
a(S'tr_ll'
I1
tp513
a(S'w'
I5846
tp514
a(S'ch_no'
I1
tp515
a(S'ch_tr'
I1
tp516
a(S'ch_p2'
I1
tp517
a(S'ch_p1'
I0
tp518
a(S'w'
I5862
tp519
a(S'ch_no'
I1
tp520
a(S'ch_tr'
I1
tp521
a(S'ch_p2'
I1
tp522
a(S'ch_p1'
I1
tp523
a(S'w'
I3
tp524
a(S'p1_ll'
I1
tp525
a(S'w'
I5857
tp526
a(S'p1_tl'
I58
tp527
a(S'w'
I1
tp528
a(S'p1_ll'
I1
tp529
a(S'w'
I7
tp530
a(S'ch_no'
I1
tp531
a(S'ch_tr'
I0
tp532
a(S'ch_p2'
I1
tp533
a(S'ch_p1'
I1
tp534
a(S'w'
I5853
tp535
a(S'p1_tl'
I92
tp536
a(S'w'
I1
tp537
a(S'p1_ll'
I1
tp538
a(S'w'
I5859
tp539
a(S'p1_tl'
I166
tp540
a(S'w'
I1
tp541
a(S'p1_ll'
I1
tp542
a(S'w'
I5860
tp543
a(S'ch_no'
I1
tp544
a(S'ch_tr'
I0
tp545
a(S'ch_p2'
I1
tp546
a(S'ch_p1'
I0
tp547
a(S'w'
I5862
tp548
a(S'ch_no'
I1
tp549
a(S'ch_tr'
I0
tp550
a(S'ch_p2'
I1
tp551
a(S'ch_p1'
I1
tp552
a(S'w'
I3
tp553
a(S'p1_tl'
I82
tp554
a(S'p1_ll'
I1
tp555
a(S'p1_th'
I1
tp556
a(S'w'
I7
tp557
a(S'ch_no'
I1
tp558
a(S'ch_tr'
I1
tp559
a(S'ch_p2'
I1
tp560
a(S'ch_p1'
I1
tp561
a(S'w'
I3
tp562
a(S'tr_tl'
I225
tp563
a(S'w'
I1
tp564
a(S'tr_ll'
I1
tp565
a(S'w'
I5846
tp566
a(S'w'
I1
tp567
a(S'p1_ll'
I1
tp568
a(S'w'
I7
tp569
a(S'ch_no'
I1
tp570
a(S'ch_tr'
I0
tp571
a(S'ch_p2'
I1
tp572
a(S'ch_p1'
I1
tp573
a(S'w'
I5853
tp574
a(S'ch_no'
I1
tp575
a(S'ch_tr'
I0
tp576
a(S'ch_p2'
I1
tp577
a(S'ch_p1'
I0
tp578
a(S'w'
I7
tp579
a(S'ch_no'
I1
tp580
a(S'ch_tr'
I1
tp581
a(S'ch_p2'
I1
tp582
a(S'ch_p1'
I0
tp583
a(S'w'
I3
tp584
a(S'tr_tl'
I168
tp585
a(S'w'
I1
tp586
a(S'tr_ll'
I1
tp587
a(S'w'
I5853
tp588
a(S'ch_no'
I1
tp589
a(S'ch_tr'
I0
tp590
a(S'ch_p2'
I1
tp591
a(S'ch_p1'
I0
tp592
a(S'w'
I5860
tp593
a(S'ch_no'
I1
tp594
a(S'ch_tr'
I1
tp595
a(S'ch_p2'
I1
tp596
a(S'ch_p1'
I0
tp597
a(S'w'
I3
tp598
a(S'tr_tl'
I225
tp599
a(S'tr_ll'
I1
tp600
a(S'w'
I5858
tp601
a(S'ch_no'
I1
tp602
a(S'ch_tr'
I0
tp603
a(S'ch_p2'
I1
tp604
a(S'ch_p1'
I0
tp605
a(S'w'
I5859
tp606
a(S'ch_no'
I1
tp607
a(S'ch_tr'
I0
tp608
a(S'ch_p2'
I1
tp609
a(S'ch_p1'
I1
tp610
a(S'w'
I3
tp611
a(S'p1_tl'
I225
tp612
a(S'p1_ll'
I1
tp613
a(S'p1_th'
I0
tp614
a(S'w'
I7
tp615
a(S'ch_no'
I1
tp616
a(S'ch_tr'
I1
tp617
a(S'ch_p2'
I1
tp618
a(S'ch_p1'
I1
tp619
a(S'w'
I3
tp620
a(S'tr_tl'
I168
tp621
a(S'w'
I1
tp622
a(S'tr_ll'
I1
tp623
a(S'w'
I5846
tp624
a(S'ch_no'
I1
tp625
a(S'ch_tr'
I1
tp626
a(S'ch_p2'
I1
tp627
a(S'ch_p1'
I0
tp628
a(S'w'
I7
tp629
a(S'ch_no'
I1
tp630
a(S'ch_tr'
I0
tp631
a(S'ch_p2'
I1
tp632
a(S'ch_p1'
I0
tp633
a(S'w'
I5855
tp634
a(S'ch_no'
I1
tp635
a(S'ch_tr'
I0
tp636
a(S'ch_p2'
I1
tp637
a(S'ch_p1'
I1
tp638
a(S'w'
I3
tp639
a(S'p1_tl'
I124
tp640
a(S'p1_ll'
I1
tp641
a(S'p1_th'
I1
tp642
a(S'w'
I7
tp643
a(S'ch_no'
I1
tp644
a(S'ch_tr'
I1
tp645
a(S'ch_p2'
I1
tp646
a(S'ch_p1'
I1
tp647
a(S'w'
I3
tp648
a(S'tr_tl'
I253
tp649
a(S'w'
I1
tp650
a(S'tr_ll'
I1
tp651
a(S'w'
I5846
tp652
a(S'w'
I1
tp653
a(S'p1_ll'
I1
tp654
a(S'w'
I7
tp655
a(S'ch_no'
I1
tp656
a(S'ch_tr'
I0
tp657
a(S'ch_p2'
I1
tp658
a(S'ch_p1'
I1
tp659
a(S'w'
I5855
tp660
a(S'ch_no'
I1
tp661
a(S'ch_tr'
I1
tp662
a(S'ch_p2'
I1
tp663
a(S'ch_p1'
I1
tp664
a(S'w'
I3
tp665
a(S'tr_tl'
I189
tp666
a(S'tr_ll'
I1
tp667
a(S'w'
I5855
tp668
a(S'ch_no'
I1
tp669
a(S'ch_tr'
I1
tp670
a(S'ch_p2'
I1
tp671
a(S'ch_p1'
I0
tp672
a(S'w'
I7
tp673
a(S'ch_no'
I1
tp674
a(S'ch_tr'
I0
tp675
a(S'ch_p2'
I1
tp676
a(S'ch_p1'
I0
tp677
a(S'w'
I5857
tp678
a(S'ch_no'
I1
tp679
a(S'ch_tr'
I1
tp680
a(S'ch_p2'
I1
tp681
a(S'ch_p1'
I0
tp682
a(S'w'
I3
tp683
a(S'tr_tl'
I253
tp684
a(S'tr_ll'
I1
tp685
a(S'w'
I5858
tp686
a(S'ch_no'
I1
tp687
a(S'ch_tr'
I0
tp688
a(S'ch_p2'
I1
tp689
a(S'ch_p1'
I0
tp690
a(S'w'
I5859
tp691
a(S'ch_no'
I1
tp692
a(S'ch_tr'
I0
tp693
a(S'ch_p2'
I1
tp694
a(S'ch_p1'
I1
tp695
a(S'w'
I3
tp696
a(S'p1_tl'
I253
tp697
a(S'p1_ll'
I1
tp698
a(S'p1_th'
I0
tp699
a(S'w'
I7
tp700
a(S'ch_no'
I1
tp701
a(S'ch_tr'
I1
tp702
a(S'ch_p2'
I1
tp703
a(S'ch_p1'
I1
tp704
a(S'w'
I3
tp705
a(S'tr_tl'
I189
tp706
a(S'w'
I1
tp707
a(S'tr_ll'
I1
tp708
a(S'w'
I5845
tp709
a(S'ch_no'
I1
tp710
a(S'ch_tr'
I1
tp711
a(S'ch_p2'
I1
tp712
a(S'ch_p1'
I0
tp713
a(S'w'
I7
tp714
a(S'ch_no'
I1
tp715
a(S'ch_tr'
I0
tp716
a(S'ch_p2'
I1
tp717
a(S'ch_p1'
I0
tp718
a(S'w'
I5855
tp719
a(S'ch_no'
I1
tp720
a(S'ch_tr'
I0
tp721
a(S'ch_p2'
I1
tp722
a(S'ch_p1'
I1
tp723
a(S'w'
I3
tp724
a(S'p1_tl'
I171
tp725
a(S'p1_ll'
I1
tp726
a(S'p1_th'
I1
tp727
a(S'w'
I7
tp728
a(S'ch_no'
I1
tp729
a(S'ch_tr'
I1
tp730
a(S'ch_p2'
I1
tp731
a(S'ch_p1'
I1
tp732
a(S'w'
I3
tp733
a(S'tr_tl'
I28
tp734
a(S'w'
I1
tp735
a(S'tr_ll'
I1
tp736
a(S'tr_th'
I1
tp737
a(S'w'
I5846
tp738
a(S'w'
I1
tp739
a(S'p1_ll'
I1
tp740
a(S'w'
I7
tp741
a(S'ch_no'
I1
tp742
a(S'ch_tr'
I0
tp743
a(S'ch_p2'
I1
tp744
a(S'ch_p1'
I1
tp745
a(S'w'
I5853
tp746
a(S'p1_tl'
I28
tp747
a(S'w'
I1
tp748
a(S'p1_ll'
I1
tp749
a(S'w'
I7
tp750
a(S'ch_no'
I1
tp751
a(S'ch_tr'
I1
tp752
a(S'ch_p2'
I1
tp753
a(S'ch_p1'
I1
tp754
a(S'w'
I3
tp755
a(S'tr_tl'
I212
tp756
a(S'tr_ll'
I1
tp757
a(S'tr_th'
I0
tp758
a(S'w'
I5850
tp759
a(S'ch_no'
I1
tp760
a(S'ch_tr'
I1
tp761
a(S'ch_p2'
I1
tp762
a(S'ch_p1'
I0
tp763
a(S'w'
I7
tp764
a(S'ch_no'
I1
tp765
a(S'ch_tr'
I0
tp766
a(S'ch_p2'
I1
tp767
a(S'ch_p1'
I0
tp768
a(S'w'
I5855
tp769
a(S'ch_no'
I1
tp770
a(S'ch_tr'
I0
tp771
a(S'ch_p2'
I1
tp772
a(S'ch_p1'
I1
tp773
a(S'w'
I3
tp774
a(S'ch_no'
I1
tp775
a(S'ch_tr'
I0
tp776
a(S'ch_p2'
I1
tp777
a(S'ch_p1'
I0
tp778
a(S'w'
I7
tp779
a(S'ch_no'
I1
tp780
a(S'ch_tr'
I1
tp781
a(S'ch_p2'
I1
tp782
a(S'ch_p1'
I0
tp783
a(S'w'
I3
tp784
a(S'tr_tl'
I28
tp785
a(S'tr_ll'
I1
tp786
a(S'tr_th'
I1
tp787
a(S'w'
I5849
tp788
a(S'ch_no'
I1
tp789
a(S'ch_tr'
I0
tp790
a(S'ch_p2'
I1
tp791
a(S'ch_p1'
I0
tp792
a(S'w'
I5859
tp793
a(S'ch_no'
I1
tp794
a(S'ch_tr'
I0
tp795
a(S'ch_p2'
I1
tp796
a(S'ch_p1'
I1
tp797
a(S'w'
I3
tp798
a(S'p1_ll'
I1
tp799
a(S'w'
I7
tp800
a(S'ch_no'
I1
tp801
a(S'ch_tr'
I1
tp802
a(S'ch_p2'
I1
tp803
a(S'ch_p1'
I1
tp804
a(S'w'
I3
tp805
a(S'tr_tl'
I212
tp806
a(S'w'
I1
tp807
a(S'tr_ll'
I1
tp808
a(S'tr_th'
I0
tp809
a(S'w'
I5846
tp810
a(S'ch_no'
I1
tp811
a(S'ch_tr'
I1
tp812
a(S'ch_p2'
I1
tp813
a(S'ch_p1'
I0
tp814
a(S'w'
I7
tp815
a(S'ch_no'
I1
tp816
a(S'ch_tr'
I0
tp817
a(S'ch_p2'
I1
tp818
a(S'ch_p1'
I0
tp819
a(S'w'
I5855
tp820
a(S'ch_no'
I1
tp821
a(S'ch_tr'
I0
tp822
a(S'ch_p2'
I1
tp823
a(S'ch_p1'
I1
tp824
a(S'w'
I3
tp825
a(S'p1_tl'
I45
tp826
a(S'p1_ll'
I1
tp827
a(S'w'
I7
tp828
a(S'ch_no'
I1
tp829
a(S'ch_tr'
I1
tp830
a(S'ch_p2'
I1
tp831
a(S'ch_p1'
I1
tp832
a(S'w'
I3
tp833
a(S'tr_tl'
I168
tp834
a(S'w'
I1
tp835
a(S'tr_ll'
I1
tp836
a(S'w'
I5846
tp837
a(S'ch_no'
I1
tp838
a(S'ch_tr'
I1
tp839
a(S'ch_p2'
I1
tp840
a(S'ch_p1'
I0
tp841
a(S'w'
I7
tp842
a(S'ch_no'
I1
tp843
a(S'ch_tr'
I0
tp844
a(S'ch_p2'
I1
tp845
a(S'ch_p1'
I0
tp846
a(S'w'
I5854
tp847
a(S'ch_no'
I1
tp848
a(S'ch_tr'
I0
tp849
a(S'ch_p2'
I1
tp850
a(S'ch_p1'
I1
tp851
a(S'w'
I3
tp852
a(S'p1_tl'
I82
tp853
a(S'p1_ll'
I1
tp854
a(S'w'
I7
tp855
a(S'ch_no'
I1
tp856
a(S'ch_tr'
I1
tp857
a(S'ch_p2'
I1
tp858
a(S'ch_p1'
I1
tp859
a(S'w'
I3
tp860
a(S'tr_tl'
I189
tp861
a(S'w'
I1
tp862
a(S'tr_ll'
I1
tp863
a(S'w'
I5846
tp864
a(S'p1_tl'
I28
tp865
a(S'w'
I1
tp866
a(S'p1_ll'
I1
tp867
a(S'w'
I7
tp868
a(S'ch_no'
I1
tp869
a(S'ch_tr'
I0
tp870
a(S'ch_p2'
I1
tp871
a(S'ch_p1'
I1
tp872
a(S'w'
I5853
tp873
a(S'p1_tl'
I45
tp874
a(S'w'
I1
tp875
a(S'p1_ll'
I1
tp876
a(S'w'
I7
tp877
a(S'ch_no'
I1
tp878
a(S'ch_tr'
I1
tp879
a(S'ch_p2'
I1
tp880
a(S'ch_p1'
I1
tp881
a(S'w'
I3
tp882
a(S'tr_tl'
I212
tp883
a(S'tr_ll'
I1
tp884
a(S'w'
I5850
tp885
a(S'p1_tl'
I82
tp886
a(S'w'
I1
tp887
a(S'p1_ll'
I1
tp888
a(S'w'
I7
tp889
a(S'ch_no'
I1
tp890
a(S'ch_tr'
I0
tp891
a(S'ch_p2'
I1
tp892
a(S'ch_p1'
I1
tp893
a(S'w'
I5856
tp894
a(S'ch_no'
I1
tp895
a(S'ch_tr'
I1
tp896
a(S'ch_p2'
I1
tp897
a(S'ch_p1'
I1
tp898
a(S'w'
I3
tp899
a(S'tr_tl'
I189
tp900
a(S'tr_ll'
I1
tp901
a(S'w'
I5858
tp902
a(S'ch_no'
I1
tp903
a(S'ch_tr'
I0
tp904
a(S'ch_p2'
I1
tp905
a(S'ch_p1'
I1
tp906
a(S'w'
I5857
tp907
a(S'p1_tl'
I166
tp908
a(S'w'
I1
tp909
a(S'p1_ll'
I1
tp910
a(S'p1_th'
I2
tp911
a(S'w'
I7
tp912
a(S'ch_no'
I1
tp913
a(S'ch_tr'
I1
tp914
a(S'ch_p2'
I1
tp915
a(S'ch_p1'
I1
tp916
a(S'w'
I3
tp917
a(S'tr_tl'
I168
tp918
a(S'tr_ll'
I1
tp919
a(S'w'
I5850
tp920
a(S'w'
I1
tp921
a(S'p1_ll'
I1
tp922
a(S'w'
I5860
tp923
a(S'ch_no'
I1
tp924
a(S'ch_tr'
I1
tp925
a(S'ch_p2'
I1
tp926
a(S'ch_p1'
I0
tp927
a(S'w'
I7
tp928
a(S'ch_no'
I1
tp929
a(S'ch_tr'
I0
tp930
a(S'ch_p2'
I1
tp931
a(S'ch_p1'
I0
tp932
a(S'w'
I17577
tp933
a(S'ch_no'
I1
tp934
a(S'ch_tr'
I0
tp935
a(S'ch_p2'
I1
tp936
a(S'ch_p1'
I1
tp937
a(S'w'
I3
tp938
a(S'p1_tl'
I196
tp939
a(S'p1_ll'
I1
tp940
a(S'p1_th'
I1
tp941
a(S'w'
I5856
tp942
a(S'p1_tl'
I171
tp943
a(S'w'
I1
tp944
a(S'p1_ll'
I1
tp945
a(S'w'
I7
tp946
a(S'ch_no'
I1
tp947
a(S'ch_tr'
I1
tp948
a(S'ch_p2'
I1
tp949
a(S'ch_p1'
I1
tp950
a(S'w'
I3
tp951
a(S'tr_ll'
I1
tp952
a(S'w'
I5850
tp953
a(S'p1_tl'
I196
tp954
a(S'w'
I1
tp955
a(S'p1_ll'
I1
tp956
a(S'w'
I7
tp957
a(S'ch_no'
I1
tp958
a(S'ch_tr'
I0
tp959
a(S'ch_p2'
I1
tp960
a(S'ch_p1'
I1
tp961
a(S'w'
I5853
tp962
a(S'p1_tl'
I249
tp963
a(S'w'
I1
tp964
a(S'p1_ll'
I1
tp965
a(S'p1_th'
I2
tp966
a(S'w'
I7
tp967
a(S'ch_no'
I1
tp968
a(S'ch_tr'
I1
tp969
a(S'ch_p2'
I1
tp970
a(S'ch_p1'
I1
tp971
a(S'w'
I3
tp972
a(S'tr_tl'
I189
tp973
a(S'tr_ll'
I1
tp974
a(S'w'
I5850
tp975
a(S'w'
I1
tp976
a(S'p1_ll'
I1
tp977
a(S'w'
I7
tp978
a(S'ch_no'
I1
tp979
a(S'ch_tr'
I0
tp980
a(S'ch_p2'
I1
tp981
a(S'ch_p1'
I1
tp982
a(S'w'
I17574
tp983
a(S'ch_no'
I1
tp984
a(S'ch_tr'
I0
tp985
a(S'ch_p2'
I1
tp986
a(S'ch_p1'
I0
tp987
a(S'w'
I7
tp988
a(S'ch_no'
I1
tp989
a(S'ch_tr'
I1
tp990
a(S'ch_p2'
I1
tp991
a(S'ch_p1'
I0
tp992
a(S'w'
I3
tp993
a(S'ch_no'
I1
tp994
a(S'ch_tr'
I0
tp995
a(S'ch_p2'
I1
tp996
a(S'ch_p1'
I0
tp997
a(S'w'
I5852
tp998
a(S'ch_no'
I1
tp999
a(S'ch_tr'
I0
tp1000
a(S'ch_p2'
I1
tp1001
a(S'ch_p1'
I1
tp1002
a(S'w'
I3
tp1003
a(S'p1_tl'
I252
tp1004
a(S'p1_ll'
I1
tp1005
a(S'p1_th'
I1
tp1006
a(S'w'
I5857
tp1007
a(S'p1_tl'
I196
tp1008
a(S'w'
I1
tp1009
a(S'p1_ll'
I1
tp1010
a(S'w'
I7
tp1011
a(S'ch_no'
I1
tp1012
a(S'ch_tr'
I1
tp1013
a(S'ch_p2'
I1
tp1014
a(S'ch_p1'
I1
tp1015
a(S'w'
I3
tp1016
a(S'tr_ll'
I1
tp1017
a(S'w'
I5850
tp1018
a(S'p1_tl'
I252
tp1019
a(S'w'
I1
tp1020
a(S'p1_ll'
I1
tp1021
a(S'w'
I7
tp1022
a(S'ch_no'
I1
tp1023
a(S'ch_tr'
I0
tp1024
a(S'ch_p2'
I1
tp1025
a(S'ch_p1'
I1
tp1026
a(S'w'
I5853
tp1027
a(S'p1_tl'
I87
tp1028
a(S'w'
I1
tp1029
a(S'p1_ll'
I1
tp1030
a(S'p1_th'
I3
tp1031
a(S'w'
I7
tp1032
a(S'ch_no'
I1
tp1033
a(S'ch_tr'
I1
tp1034
a(S'ch_p2'
I1
tp1035
a(S'ch_p1'
I1
tp1036
a(S'w'
I3
tp1037
a(S'tr_tl'
I212
tp1038
a(S'tr_ll'
I1
tp1039
a(S'w'
I5849
tp1040
a(S'w'
I1
tp1041
a(S'p1_ll'
I1
tp1042
a(S'w'
I5860
tp1043
a(S'ch_no'
I1
tp1044
a(S'ch_tr'
I1
tp1045
a(S'ch_p2'
I1
tp1046
a(S'ch_p1'
I0
tp1047
a(S'w'
I7
tp1048
a(S'ch_no'
I1
tp1049
a(S'ch_tr'
I0
tp1050
a(S'ch_p2'
I1
tp1051
a(S'ch_p1'
I0
tp1052
a(S'w'
I17577
tp1053
a(S'ch_no'
I1
tp1054
a(S'ch_tr'
I0
tp1055
a(S'ch_p2'
I1
tp1056
a(S'ch_p1'
I1
tp1057
a(S'w'
I3
tp1058
a(S'p1_tl'
I58
tp1059
a(S'p1_ll'
I1
tp1060
a(S'p1_th'
I2
tp1061
a(S'w'
I5857
tp1062
a(S'p1_tl'
I252
tp1063
a(S'w'
I1
tp1064
a(S'p1_ll'
I1
tp1065
a(S'p1_th'
I1
tp1066
a(S'w'
I7
tp1067
a(S'ch_no'
I1
tp1068
a(S'ch_tr'
I1
tp1069
a(S'ch_p2'
I1
tp1070
a(S'ch_p1'
I1
tp1071
a(S'w'
I3
tp1072
a(S'tr_ll'
I1
tp1073
a(S'w'
I5849
tp1074
a(S'p1_tl'
I58
tp1075
a(S'w'
I1
tp1076
a(S'p1_ll'
I1
tp1077
a(S'p1_th'
I2
tp1078
a(S'w'
I7
tp1079
a(S'ch_no'
I1
tp1080
a(S'ch_tr'
I0
tp1081
a(S'ch_p2'
I1
tp1082
a(S'ch_p1'
I1
tp1083
a(S'w'
I5853
tp1084
a(S'ch_no'
I1
tp1085
a(S'ch_tr'
I0
tp1086
a(S'ch_p2'
I1
tp1087
a(S'ch_p1'
I0
tp1088
a(S'w'
I7
tp1089
a(S'ch_no'
I1
tp1090
a(S'ch_tr'
I1
tp1091
a(S'ch_p2'
I1
tp1092
a(S'ch_p1'
I0
tp1093
a(S'w'
I3
tp1094
a(S'tr_tl'
I225
tp1095
a(S'w'
I1
tp1096
a(S'tr_ll'
I1
tp1097
a(S'w'
I5853
tp1098
a(S'ch_no'
I1
tp1099
a(S'ch_tr'
I0
tp1100
a(S'ch_p2'
I1
tp1101
a(S'ch_p1'
I0
tp1102
a(S'w'
I5859
tp1103
a(S'ch_no'
I1
tp1104
a(S'ch_tr'
I0
tp1105
a(S'ch_p2'
I1
tp1106
a(S'ch_p1'
I1
tp1107
a(S'w'
I3
tp1108
a(S'p1_tl'
I92
tp1109
a(S'p1_ll'
I1
tp1110
a(S'w'
I7
tp1111
a(S'ch_no'
I1
tp1112
a(S'ch_tr'
I1
tp1113
a(S'ch_p2'
I1
tp1114
a(S'ch_p1'
I1
tp1115
a(S'w'
I4
tp1116
a(S'tr_ll'
I1
tp1117
a(S'w'
I5846
tp1118
a(S'p1_tl'
I58
tp1119
a(S'w'
I1
tp1120
a(S'p1_ll'
I1
tp1121
a(S'w'
I7
tp1122
a(S'ch_no'
I1
tp1123
a(S'ch_tr'
I0
tp1124
a(S'ch_p2'
I1
tp1125
a(S'ch_p1'
I1
tp1126
a(S'w'
I5852
tp1127
a(S'p1_tl'
I92
tp1128
a(S'w'
I1
tp1129
a(S'p1_ll'
I1
tp1130
a(S'w'
I7
tp1131
a(S'ch_no'
I1
tp1132
a(S'ch_tr'
I1
tp1133
a(S'ch_p2'
I1
tp1134
a(S'ch_p1'
I1
tp1135
a(S'w'
I3
tp1136
a(S'tr_tl'
I253
tp1137
a(S'tr_ll'
I1
tp1138
a(S'w'
I5850
tp1139
a(S'p1_tl'
I166
tp1140
a(S'w'
I1
tp1141
a(S'p1_ll'
I1
tp1142
a(S'w'
I7
tp1143
a(S'tr_ll'
I1
tp1144
a(S'w'
I5856
tp1145
a(S'tr_tl'
I225
tp1146
a(S'tr_ll'
I1
tp1147
a(S'w'
I5861
tp1148
a(S'ch_no'
I1
tp1149
a(S'ch_tr'
I0
tp1150
a(S'ch_p2'
I1
tp1151
a(S'ch_p1'
I1
tp1152
a(S'w'
I5863
tp1153
a.