(lp1
(S'clock'
p2
I1789773
tp3
a(S'fc_mo'
I1
tp4
a(S'ch_no'
I1
tp5
a(S'ch_tr'
I1
tp6
a(S'ch_p2'
I1
tp7
a(S'ch_p1'
I1
tp8
a(S'p1_cv'
I1
tp9
a(S'p2_cv'
I1
tp10
a(S'no_cv'
I1
tp11
a(S'w'
I86
tp12
a(S'p1_du'
I3
tp13
a(S'p1_cv'
I0
tp14
a(S'p1_vo'
I8
tp15
a(S'w'
I1
tp16
a(S'p1_sp'
I7
tp17
a(S'p1_sn'
I1
tp18
a(S'p1_ss'
I7
tp19
a(S'p1_tl'
I58
tp20
a(S'p1_ll'
I8
tp21
a(S'p1_th'
I2
tp22
a(S'w'
I17543
tp23
a(S'p1_tl'
I166
tp24
a(S'p1_ll'
I8
tp25
a(S'w'
I8804
tp26
a(S'p1_tl'
I250
tp27
a(S'p1_ll'
I8
tp28
a(S'w'
I17611
tp29
a(S'p1_ll'
I8
tp30
a(S'w'
I8806
tp31
a(S'p1_tl'
I166
tp32
a(S'p1_ll'
I8
tp33
a(S'w'
I8805
tp34
a(S'p1_tl'
I58
tp35
a(S'p1_ll'
I8
tp36
a(S'w'
I8831
tp37
a(S'w'
I1
tp38
a(S'p1_ll'
I8
tp39
a(S'w'
I17586
tp40
a(S'p1_tl'
I166
tp41
a(S'p1_ll'
I8
tp42
a(S'w'
I8804
tp43
a(S'p1_tl'
I250
tp44
a(S'p1_ll'
I8
tp45
a(S'w'
I17611
tp46
a(S'p1_ll'
I8
tp47
a(S'w'
I8806
tp48
a(S'p1_tl'
I166
tp49
a(S'p1_ll'
I8
tp50
a(S'w'
I8805
tp51
a(S'p1_tl'
I58
tp52
a(S'p1_ll'
I8
tp53
a(S'w'
I8831
tp54
a(S'p1_ll'
I8
tp55
a(S'w'
I3
tp56
a(S'no_cv'
I0
tp57
a(S'no_vo'
I1
tp58
a(S'no_np'
I1
tp59
a(S'no_ll'
I0
tp60
a(S'w'
I8777
tp61
a(S'no_ll'
I0
tp62
a(S'w'
I4403
tp63
a(S'no_ll'
I0
tp64
a(S'w'
I4407
tp65
a(S'p1_tl'
I166
tp66
a(S'p1_ll'
I8
tp67
a(S'w'
I2
tp68
a(S'w'
I1
tp69
a(S'no_ll'
I0
tp70
a(S'w'
I8800
tp71
a(S'p1_tl'
I250
tp72
a(S'w'
I1
tp73
a(S'p1_ll'
I8
tp74
a(S'w'
I2
tp75
a(S'no_ll'
I0
tp76
a(S'w'
I4398
tp77
a(S'no_ll'
I0
tp78
a(S'w'
I4406
tp79
a(S'no_ll'
I0
tp80
a(S'w'
I8804
tp81
a(S'w'
I1
tp82
a(S'p1_ll'
I8
tp83
a(S'w'
I2
tp84
a(S'no_ll'
I0
tp85
a(S'w'
I4398
tp86
a(S'no_ll'
I0
tp87
a(S'w'
I4405
tp88
a(S'p1_tl'
I166
tp89
a(S'w'
I1
tp90
a(S'p1_ll'
I8
tp91
a(S'w'
I2
tp92
a(S'no_ll'
I0
tp93
a(S'w'
I8802
tp94
a(S'p1_tl'
I58
tp95
a(S'w'
I1
tp96
a(S'p1_ll'
I8
tp97
a(S'w'
I2
tp98
a(S'no_ll'
I0
tp99
a(S'w'
I4398
tp100
a(S'no_ll'
I0
tp101
a(S'w'
I4429
tp102
a(S'w'
I1
tp103
a(S'p1_ll'
I8
tp104
a(S'w'
I2
tp105
a(S'no_ll'
I0
tp106
a(S'w'
I8776
tp107
a(S'no_ll'
I0
tp108
a(S'w'
I4403
tp109
a(S'no_ll'
I0
tp110
a(S'w'
I4407
tp111
a(S'p1_tl'
I166
tp112
a(S'p1_ll'
I8
tp113
a(S'w'
I2
tp114
a(S'w'
I1
tp115
a(S'no_ll'
I0
tp116
a(S'w'
I8800
tp117
a(S'p1_tl'
I250
tp118
a(S'w'
I1
tp119
a(S'p1_ll'
I8
tp120
a(S'w'
I2
tp121
a(S'no_ll'
I0
tp122
a(S'w'
I4398
tp123
a(S'no_ll'
I0
tp124
a(S'w'
I4411
tp125
a(S'p2_cv'
I0
tp126
a(S'p2_vo'
I1
tp127
a(S'p2_sp'
I7
tp128
a(S'p2_sn'
I1
tp129
a(S'p2_ss'
I7
tp130
a(S'p2_tl'
I106
tp131
a(S'p2_ll'
I8
tp132
a(S'w'
I2
tp133
a(S'no_ll'
I0
tp134
a(S'w'
I4396
tp135
a(S'p2_tl'
I142
tp136
a(S'p2_ll'
I8
tp137
a(S'w'
I4407
tp138
a(S'p1_ll'
I8
tp139
a(S'w'
I1
tp140
a(S'p2_tl'
I106
tp141
a(S'w'
I1
tp142
a(S'p2_ll'
I8
tp143
a(S'w'
I2
tp144
a(S'no_ll'
I0
tp145
a(S'w'
I4395
tp146
a(S'p2_tl'
I142
tp147
a(S'p2_ll'
I8
tp148
a(S'w'
I2
tp149
a(S'no_ll'
I0
tp150
a(S'w'
I4405
tp151
a(S'p1_tl'
I166
tp152
a(S'p1_ll'
I8
tp153
a(S'w'
I1
tp154
a(S'p2_tl'
I106
tp155
a(S'w'
I1
tp156
a(S'p2_ll'
I8
tp157
a(S'w'
I2
tp158
a(S'no_ll'
I0
tp159
a(S'w'
I4394
tp160
a(S'w'
I1
tp161
a(S'p2_ll'
I8
tp162
a(S'w'
I4405
tp163
a(S'p1_tl'
I58
tp164
a(S'w'
I1
tp165
a(S'p1_ll'
I8
tp166
a(S'w'
I1
tp167
a(S'p2_tl'
I142
tp168
a(S'p2_ll'
I8
tp169
a(S'w'
I2
tp170
a(S'no_ll'
I0
tp171
a(S'w'
I4396
tp172
a(S'p2_tl'
I213
tp173
a(S'p2_ll'
I8
tp174
a(S'w'
I2
tp175
a(S'no_ll'
I0
tp176
a(S'w'
I4432
tp177
a(S'p1_ll'
I8
tp178
a(S'w'
I1
tp179
a(S'w'
I1
tp180
a(S'p2_ll'
I8
tp181
a(S'w'
I1
tp182
a(S'w'
I1
tp183
a(S'no_ll'
I0
tp184
a(S'w'
I4367
tp185
a(S'p2_ll'
I8
tp186
a(S'w'
I4402
tp187
a(S'no_ll'
I0
tp188
a(S'w'
I4404
tp189
a(S'p2_ll'
I8
tp190
a(S'w'
I2
tp191
a(S'no_ll'
I0
tp192
a(S'w'
I4403
tp193
a(S'p1_tl'
I166
tp194
a(S'w'
I1
tp195
a(S'p1_ll'
I8
tp196
a(S'w'
I2
tp197
a(S'no_ll'
I0
tp198
a(S'w'
I4397
tp199
a(S'p2_ll'
I8
tp200
a(S'w'
I4406
tp201
a(S'p1_tl'
I250
tp202
a(S'w'
I1
tp203
a(S'p1_ll'
I8
tp204
a(S'w'
I1
tp205
a(S'p2_ll'
I8
tp206
a(S'w'
I2
tp207
a(S'no_ll'
I0
tp208
a(S'w'
I4396
tp209
a(S'p2_ll'
I8
tp210
a(S'w'
I2
tp211
a(S'no_ll'
I0
tp212
a(S'w'
I4403
tp213
a(S'p2_tl'
I29
tp214
a(S'p2_ll'
I8
tp215
a(S'p2_th'
I1
tp216
a(S'w'
I2
tp217
a(S'no_ll'
I0
tp218
a(S'w'
I4398
tp219
a(S'p2_tl'
I213
tp220
a(S'p2_ll'
I8
tp221
a(S'p2_th'
I0
tp222
a(S'w'
I4404
tp223
a(S'p1_ll'
I8
tp224
a(S'w'
I3
tp225
a(S'no_ll'
I0
tp226
a(S'w'
I4399
tp227
a(S'p2_ll'
I8
tp228
a(S'w'
I2
tp229
a(S'no_ll'
I0
tp230
a(S'w'
I4404
tp231
a(S'p1_tl'
I166
tp232
a(S'p1_ll'
I8
tp233
a(S'w'
I1
tp234
a(S'p2_tl'
I29
tp235
a(S'w'
I1
tp236
a(S'p2_ll'
I8
tp237
a(S'p2_th'
I1
tp238
a(S'w'
I2
tp239
a(S'no_ll'
I0
tp240
a(S'w'
I4395
tp241
a(S'p2_tl'
I213
tp242
a(S'p2_ll'
I8
tp243
a(S'p2_th'
I0
tp244
a(S'w'
I4404
tp245
a(S'p1_tl'
I58
tp246
a(S'p1_ll'
I8
tp247
a(S'w'
I3
tp248
a(S'no_ll'
I0
tp249
a(S'w'
I4399
tp250
a(S'p2_ll'
I8
tp251
a(S'w'
I2
tp252
a(S'no_ll'
I0
tp253
a(S'w'
I4432
tp254
a(S'p1_ll'
I8
tp255
a(S'w'
I1
tp256
a(S'w'
I1
tp257
a(S'p2_ll'
I8
tp258
a(S'w'
I2
tp259
a(S'no_ll'
I0
tp260
a(S'w'
I4367
tp261
a(S'p2_ll'
I8
tp262
a(S'w'
I4402
tp263
a(S'no_ll'
I0
tp264
a(S'w'
I4404
tp265
a(S'p2_ll'
I8
tp266
a(S'w'
I2
tp267
a(S'no_ll'
I0
tp268
a(S'w'
I4402
tp269
a(S'p1_tl'
I166
tp270
a(S'w'
I1
tp271
a(S'p1_ll'
I8
tp272
a(S'w'
I2
tp273
a(S'no_ll'
I0
tp274
a(S'w'
I4398
tp275
a(S'p2_ll'
I8
tp276
a(S'w'
I4406
tp277
a(S'p1_tl'
I250
tp278
a(S'w'
I1
tp279
a(S'p1_ll'
I8
tp280
a(S'w'
I1
tp281
a(S'p2_ll'
I8
tp282
a(S'w'
I2
tp283
a(S'no_ll'
I0
tp284
a(S'w'
I4396
tp285
a(S'p2_ll'
I8
tp286
a(S'w'
I2
tp287
a(S'no_ll'
I0
tp288
a(S'w'
I4402
tp289
a(S'p2_tl'
I29
tp290
a(S'p2_ll'
I8
tp291
a(S'p2_th'
I1
tp292
a(S'w'
I2
tp293
a(S'no_ll'
I0
tp294
a(S'w'
I4399
tp295
a(S'p2_tl'
I213
tp296
a(S'p2_ll'
I8
tp297
a(S'p2_th'
I0
tp298
a(S'w'
I4404
tp299
a(S'p1_ll'
I8
tp300
a(S'w'
I3
tp301
a(S'no_ll'
I0
tp302
a(S'w'
I4399
tp303
a(S'p2_ll'
I8
tp304
a(S'w'
I2
tp305
a(S'no_ll'
I0
tp306
a(S'w'
I4410
tp307
a(S'p1_tl'
I166
tp308
a(S'p1_ll'
I8
tp309
a(S'w'
I2
tp310
a(S'p2_tl'
I29
tp311
a(S'p2_ll'
I8
tp312
a(S'p2_th'
I1
tp313
a(S'w'
I1
tp314
a(S'tr_lr'
I15
tp315
a(S'tr_tl'
I106
tp316
a(S'tr_ll'
I12
tp317
a(S'w'
I2
tp318
a(S'no_ll'
I0
tp319
a(S'w'
I717
tp320
a(S'tr_tl'
I113
tp321
a(S'tr_ll'
I12
tp322
a(S'w'
I734
tp323
a(S'tr_tl'
I120
tp324
a(S'tr_ll'
I12
tp325
a(S'w'
I734
tp326
a(S'tr_tl'
I127
tp327
a(S'tr_ll'
I12
tp328
a(S'w'
I734
tp329
a(S'tr_tl'
I134
tp330
a(S'tr_ll'
I12
tp331
a(S'w'
I733
tp332
a(S'tr_tl'
I142
tp333
a(S'tr_ll'
I12
tp334
a(S'w'
I741
tp335
a(S'p2_tl'
I213
tp336
a(S'w'
I1
tp337
a(S'p2_ll'
I8
tp338
a(S'p2_th'
I0
tp339
a(S'w'
I1
tp340
a(S'tr_tl'
I151
tp341
a(S'tr_ll'
I12
tp342
a(S'w'
I725
tp343
a(S'tr_tl'
I160
tp344
a(S'tr_ll'
I12
tp345
a(S'w'
I734
tp346
a(S'tr_tl'
I169
tp347
a(S'tr_ll'
I12
tp348
a(S'w'
I734
tp349
a(S'tr_tl'
I179
tp350
a(S'tr_ll'
I12
tp351
a(S'w'
I733
tp352
a(S'tr_tl'
I190
tp353
a(S'tr_ll'
I12
tp354
a(S'w'
I734
tp355
a(S'tr_tl'
I201
tp356
a(S'tr_ll'
I12
tp357
a(S'w'
I743
tp358
a(S'p1_tl'
I58
tp359
a(S'p1_ll'
I8
tp360
a(S'w'
I2
tp361
a(S'tr_tl'
I213
tp362
a(S'tr_ll'
I12
tp363
a(S'w'
I1
tp364
a(S'w'
I1
tp365
a(S'no_ll'
I0
tp366
a(S'w'
I721
tp367
a(S'tr_tl'
I226
tp368
a(S'tr_ll'
I12
tp369
a(S'w'
I734
tp370
a(S'tr_tl'
I240
tp371
a(S'tr_ll'
I12
tp372
a(S'w'
I733
tp373
a(S'tr_tl'
I254
tp374
a(S'tr_ll'
I12
tp375
a(S'w'
I734
tp376
a(S'tr_tl'
I13
tp377
a(S'tr_ll'
I12
tp378
a(S'tr_th'
I1
tp379
a(S'w'
I734
tp380
a(S'tr_tl'
I29
tp381
a(S'tr_ll'
I12
tp382
a(S'w'
I741
tp383
a(S'p2_ll'
I8
tp384
a(S'w'
I1
tp385
a(S'tr_tl'
I46
tp386
a(S'tr_ll'
I12
tp387
a(S'w'
I2
tp388
a(S'no_ll'
I0
tp389
a(S'w'
I724
tp390
a(S'tr_tl'
I64
tp391
a(S'tr_ll'
I12
tp392
a(S'w'
I733
tp393
a(S'tr_tl'
I83
tp394
a(S'tr_ll'
I12
tp395
a(S'w'
I734
tp396
a(S'tr_tl'
I103
tp397
a(S'tr_ll'
I12
tp398
a(S'w'
I734
tp399
a(S'tr_tl'
I125
tp400
a(S'tr_ll'
I12
tp401
a(S'w'
I734
tp402
a(S'tr_tl'
I147
tp403
a(S'tr_ll'
I12
tp404
a(S'w'
I775
tp405
a(S'w'
I1
tp406
a(S'p1_ll'
I8
tp407
a(S'w'
I1
tp408
a(S'p2_ll'
I8
tp409
a(S'w'
I1
tp410
a(S'tr_tl'
I171
tp411
a(S'w'
I1
tp412
a(S'tr_ll'
I12
tp413
a(S'w'
I1
tp414
a(S'no_ll'
I0
tp415
a(S'w'
I4358
tp416
a(S'p2_ll'
I8
tp417
a(S'w'
I4407
tp418
a(S'tr_tl'
I213
tp419
a(S'tr_ll'
I12
tp420
a(S'tr_th'
I0
tp421
a(S'w'
I1
tp422
a(S'no_ll'
I0
tp423
a(S'w'
I4398
tp424
a(S'p2_ll'
I8
tp425
a(S'w'
I2
tp426
a(S'no_ll'
I0
tp427
a(S'w'
I4407
tp428
a(S'p1_tl'
I166
tp429
a(S'w'
I1
tp430
a(S'p1_ll'
I8
tp431
a(S'w'
I1
tp432
a(S'tr_tl'
I29
tp433
a(S'w'
I1
tp434
a(S'tr_ll'
I12
tp435
a(S'tr_th'
I1
tp436
a(S'w'
I1
tp437
a(S'no_ll'
I0
tp438
a(S'w'
I4392
tp439
a(S'p2_ll'
I8
tp440
a(S'w'
I4411
tp441
a(S'p1_tl'
I250
tp442
a(S'w'
I1
tp443
a(S'p1_ll'
I8
tp444
a(S'w'
I1
tp445
a(S'p2_ll'
I8
tp446
a(S'w'
I1
tp447
a(S'tr_tl'
I171
tp448
a(S'w'
I1
tp449
a(S'tr_ll'
I12
tp450
a(S'w'
I1
tp451
a(S'no_ll'
I0
tp452
a(S'w'
I4390
tp453
a(S'p2_ll'
I8
tp454
a(S'w'
I2
tp455
a(S'no_ll'
I0
tp456
a(S'w'
I4408
tp457
a(S'p2_tl'
I29
tp458
a(S'p2_ll'
I8
tp459
a(S'p2_th'
I1
tp460
a(S'w'
I2
tp461
a(S'tr_ll'
I12
tp462
a(S'w'
I1
tp463
a(S'no_ll'
I0
tp464
a(S'w'
I4397
tp465
a(S'p2_tl'
I213
tp466
a(S'w'
I1
tp467
a(S'p2_ll'
I8
tp468
a(S'p2_th'
I0
tp469
a(S'w'
I1
tp470
a(S'tr_tl'
I213
tp471
a(S'tr_ll'
I12
tp472
a(S'tr_th'
I0
tp473
a(S'w'
I4403
tp474
a(S'w'
I1
tp475
a(S'p1_ll'
I8
tp476
a(S'w'
I1
tp477
a(S'tr_tl'
I171
tp478
a(S'w'
I1
tp479
a(S'tr_ll'
I12
tp480
a(S'tr_th'
I1
tp481
a(S'w'
I1
tp482
a(S'no_ll'
I0
tp483
a(S'w'
I4392
tp484
a(S'p2_ll'
I8
tp485
a(S'w'
I2
tp486
a(S'no_ll'
I0
tp487
a(S'w'
I4408
tp488
a(S'p1_tl'
I166
tp489
a(S'w'
I1
tp490
a(S'p1_ll'
I8
tp491
a(S'w'
I1
tp492
a(S'p2_tl'
I29
tp493
a(S'p2_ll'
I8
tp494
a(S'p2_th'
I1
tp495
a(S'w'
I1
tp496
a(S'tr_tl'
I213
tp497
a(S'w'
I1
tp498
a(S'tr_ll'
I12
tp499
a(S'tr_th'
I0
tp500
a(S'w'
I1
tp501
a(S'no_ll'
I0
tp502
a(S'w'
I4390
tp503
a(S'p2_tl'
I213
tp504
a(S'p2_ll'
I8
tp505
a(S'p2_th'
I0
tp506
a(S'w'
I4409
tp507
a(S'p1_tl'
I58
tp508
a(S'p1_ll'
I8
tp509
a(S'w'
I2
tp510
a(S'tr_tl'
I171
tp511
a(S'w'
I1
tp512
a(S'tr_ll'
I12
tp513
a(S'tr_th'
I1
tp514
a(S'w'
I1
tp515
a(S'no_ll'
I0
tp516
a(S'w'
I4393
tp517
a(S'p2_ll'
I8
tp518
a(S'w'
I2
tp519
a(S'no_ll'
I0
tp520
a(S'w'
I4440
tp521
a(S'w'
I1
tp522
a(S'p1_ll'
I8
tp523
a(S'w'
I1
tp524
a(S'p2_ll'
I8
tp525
a(S'w'
I2
tp526
a(S'tr_ll'
I12
tp527
a(S'w'
I1
tp528
a(S'no_ll'
I0
tp529
a(S'w'
I4358
tp530
a(S'p2_ll'
I8
tp531
a(S'w'
I4407
tp532
a(S'tr_tl'
I213
tp533
a(S'tr_ll'
I12
tp534
a(S'tr_th'
I0
tp535
a(S'w'
I1
tp536
a(S'no_ll'
I0
tp537
a(S'w'
I4398
tp538
a(S'p2_ll'
I8
tp539
a(S'w'
I2
tp540
a(S'no_ll'
I0
tp541
a(S'w'
I4407
tp542
a(S'p1_tl'
I166
tp543
a(S'w'
I1
tp544
a(S'p1_ll'
I8
tp545
a(S'w'
I1
tp546
a(S'tr_tl'
I29
tp547
a(S'w'
I1
tp548
a(S'tr_ll'
I12
tp549
a(S'tr_th'
I1
tp550
a(S'w'
I1
tp551
a(S'no_ll'
I0
tp552
a(S'w'
I4392
tp553
a(S'p2_ll'
I8
tp554
a(S'w'
I4411
tp555
a(S'p1_tl'
I250
tp556
a(S'w'
I1
tp557
a(S'p1_ll'
I8
tp558
a(S'w'
I1
tp559
a(S'p2_ll'
I8
tp560
a(S'w'
I1
tp561
a(S'tr_tl'
I171
tp562
a(S'w'
I1
tp563
a(S'tr_ll'
I12
tp564
a(S'w'
I1
tp565
a(S'no_ll'
I0
tp566
a(S'w'
I4390
tp567
a(S'p2_ll'
I8
tp568
a(S'w'
I2
tp569
a(S'no_ll'
I0
tp570
a(S'w'
I4408
tp571
a(S'p2_tl'
I29
tp572
a(S'p2_ll'
I8
tp573
a(S'p2_th'
I1
tp574
a(S'w'
I2
tp575
a(S'tr_ll'
I12
tp576
a(S'w'
I1
tp577
a(S'no_ll'
I0
tp578
a(S'w'
I4397
tp579
a(S'p2_tl'
I213
tp580
a(S'w'
I1
tp581
a(S'p2_ll'
I8
tp582
a(S'p2_th'
I0
tp583
a(S'w'
I1
tp584
a(S'tr_tl'
I213
tp585
a(S'tr_ll'
I12
tp586
a(S'tr_th'
I0
tp587
a(S'w'
I4403
tp588
a(S'w'
I1
tp589
a(S'p1_ll'
I8
tp590
a(S'w'
I1
tp591
a(S'tr_tl'
I171
tp592
a(S'w'
I1
tp593
a(S'tr_ll'
I12
tp594
a(S'tr_th'
I1
tp595
a(S'w'
I1
tp596
a(S'no_ll'
I0
tp597
a(S'w'
I4392
tp598
a(S'p2_ll'
I8
tp599
a(S'w'
I2
tp600
a(S'no_ll'
I0
tp601
a(S'w'
I4408
tp602
a(S'p1_tl'
I166
tp603
a(S'w'
I1
tp604
a(S'p1_ll'
I8
tp605
a(S'w'
I1
tp606
a(S'p2_tl'
I29
tp607
a(S'p2_ll'
I8
tp608
a(S'p2_th'
I1
tp609
a(S'w'
I1
tp610
a(S'tr_tl'
I213
tp611
a(S'w'
I1
tp612
a(S'tr_ll'
I12
tp613
a(S'tr_th'
I0
tp614
a(S'w'
I1
tp615
a(S'no_ll'
I0
tp616
a(S'w'
I4390
tp617
a(S'p2_tl'
I213
tp618
a(S'p2_ll'
I8
tp619
a(S'p2_th'
I0
tp620
a(S'w'
I4409
tp621
a(S'p1_tl'
I58
tp622
a(S'p1_ll'
I8
tp623
a(S'w'
I2
tp624
a(S'tr_tl'
I171
tp625
a(S'w'
I1
tp626
a(S'tr_ll'
I12
tp627
a(S'tr_th'
I1
tp628
a(S'w'
I1
tp629
a(S'no_ll'
I0
tp630
a(S'w'
I4393
tp631
a(S'p2_ll'
I8
tp632
a(S'w'
I2
tp633
a(S'no_ll'
I0
tp634
a(S'w'
I13211
tp635
a(S'p1_du'
I0
tp636
a(S'p1_vo'
I1
tp637
a(S'p1_tl'
I224
tp638
a(S'w'
I1
tp639
a(S'p1_ll'
I8
tp640
a(S'p1_th'
I1
tp641
a(S'w'
I1
tp642
a(S'p2_tl'
I103
tp643
a(S'p2_ll'
I8
tp644
a(S'p2_th'
I1
tp645
a(S'w'
I1
tp646
a(S'tr_tl'
I240
tp647
a(S'w'
I1
tp648
a(S'tr_ll'
I12
tp649
a(S'tr_th'
I0
tp650
a(S'w'
I8802
tp651
a(S'p1_tl'
I252
tp652
a(S'p1_ll'
I8
tp653
a(S'w'
I1
tp654
a(S'p2_tl'
I125
tp655
a(S'w'
I1
tp656
a(S'p2_ll'
I8
tp657
a(S'w'
I1
tp658
a(S'tr_tl'
I127
tp659
a(S'tr_ll'
I12
tp660
a(S'w'
I8803
tp661
a(S'p1_tl'
I58
tp662
a(S'p1_ll'
I8
tp663
a(S'p1_th'
I2
tp664
a(S'w'
I1
tp665
a(S'p2_tl'
I171
tp666
a(S'p2_ll'
I8
tp667
a(S'w'
I2
tp668
a(S'tr_tl'
I29
tp669
a(S'tr_ll'
I12
tp670
a(S'tr_th'
I1
tp671
a(S'w'
I8801
tp672
a(S'p1_tl'
I252
tp673
a(S'w'
I1
tp674
a(S'p1_ll'
I8
tp675
a(S'p1_th'
I1
tp676
a(S'w'
I1
tp677
a(S'p2_tl'
I125
tp678
a(S'p2_ll'
I8
tp679
a(S'w'
I1
tp680
a(S'tr_tl'
I254
tp681
a(S'w'
I1
tp682
a(S'tr_ll'
I12
tp683
a(S'tr_th'
I0
tp684
a(S'w'
I8802
tp685
a(S'p1_tl'
I224
tp686
a(S'w'
I1
tp687
a(S'p1_ll'
I8
tp688
a(S'w'
I1
tp689
a(S'p2_tl'
I83
tp690
a(S'p2_ll'
I8
tp691
a(S'w'
I1
tp692
a(S'tr_tl'
I29
tp693
a(S'w'
I1
tp694
a(S'tr_ll'
I12
tp695
a(S'tr_th'
I1
tp696
a(S'w'
I8801
tp697
a(S'p1_tl'
I58
tp698
a(S'w'
I1
tp699
a(S'p1_ll'
I8
tp700
a(S'p1_th'
I2
tp701
a(S'w'
I1
tp702
a(S'p2_tl'
I171
tp703
a(S'p2_ll'
I8
tp704
a(S'w'
I2
tp705
a(S'tr_ll'
I12
tp706
a(S'w'
I17645
tp707
a(S'p1_du'
I3
tp708
a(S'p1_vo'
I8
tp709
a(S'p1_ll'
I8
tp710
a(S'w'
I1
tp711
a(S'p2_du'
I3
tp712
a(S'p2_lh'
I1
tp713
a(S'p2_cv'
I1
tp714
a(S'p2_vo'
I15
tp715
a(S'w'
I1
tp716
a(S'p2_tl'
I169
tp717
a(S'p2_ll'
I8
tp718
a(S'p2_th'
I0
tp719
a(S'w'
I1
tp720
a(S'tr_tl'
I171
tp721
a(S'tr_ll'
I12
tp722
a(S'w'
I8761
tp723
a(S'tr_tl'
I213
tp724
a(S'tr_ll'
I12
tp725
a(S'tr_th'
I0
tp726
a(S'w'
I8809
tp727
a(S'p1_tl'
I166
tp728
a(S'p1_ll'
I8
tp729
a(S'w'
I2
tp730
a(S'tr_tl'
I29
tp731
a(S'tr_ll'
I12
tp732
a(S'tr_th'
I1
tp733
a(S'w'
I1
tp734
a(S'no_ll'
I0
tp735
a(S'w'
I8802
tp736
a(S'p1_tl'
I250
tp737
a(S'p1_ll'
I8
tp738
a(S'w'
I2
tp739
a(S'tr_tl'
I171
tp740
a(S'tr_ll'
I12
tp741
a(S'w'
I8804
tp742
a(S'tr_ll'
I12
tp743
a(S'w'
I4396
tp744
a(S'tr_tl'
I213
tp745
a(S'tr_ll'
I12
tp746
a(S'tr_th'
I0
tp747
a(S'w'
I4408
tp748
a(S'w'
I1
tp749
a(S'p1_ll'
I8
tp750
a(S'w'
I2
tp751
a(S'tr_tl'
I171
tp752
a(S'tr_ll'
I12
tp753
a(S'tr_th'
I1
tp754
a(S'w'
I1
tp755
a(S'no_ll'
I0
tp756
a(S'w'
I8802
tp757
a(S'p1_tl'
I166
tp758
a(S'p1_ll'
I8
tp759
a(S'w'
I2
tp760
a(S'tr_tl'
I213
tp761
a(S'w'
I1
tp762
a(S'tr_ll'
I12
tp763
a(S'tr_th'
I0
tp764
a(S'w'
I8802
tp765
a(S'p1_tl'
I58
tp766
a(S'w'
I1
tp767
a(S'p1_ll'
I8
tp768
a(S'w'
I2
tp769
a(S'tr_tl'
I171
tp770
a(S'tr_ll'
I12
tp771
a(S'tr_th'
I1
tp772
a(S'w'
I1
tp773
a(S'no_ll'
I0
tp774
a(S'w'
I8814
tp775
a(S'p2_tl'
I160
tp776
a(S'p2_ll'
I8
tp777
a(S'w'
I2
tp778
a(S'tr_tl'
I29
tp779
a(S'tr_ll'
I12
tp780
a(S'w'
I4383
tp781
a(S'tr_tl'
I142
tp782
a(S'tr_ll'
I12
tp783
a(S'tr_th'
I0
tp784
a(S'w'
I4409
tp785
a(S'p1_tl'
I224
tp786
a(S'p1_ll'
I8
tp787
a(S'p1_th'
I1
tp788
a(S'w'
I2
tp789
a(S'tr_tl'
I29
tp790
a(S'tr_ll'
I12
tp791
a(S'tr_th'
I1
tp792
a(S'w'
I8804
tp793
a(S'p1_tl'
I252
tp794
a(S'p1_ll'
I8
tp795
a(S'w'
I2
tp796
a(S'tr_tl'
I190
tp797
a(S'tr_ll'
I12
tp798
a(S'tr_th'
I0
tp799
a(S'w'
I2
tp800
a(S'no_ll'
I0
tp801
a(S'w'
I8801
tp802
a(S'p1_tl'
I58
tp803
a(S'p1_ll'
I8
tp804
a(S'p1_th'
I2
tp805
a(S'w'
I2
tp806
a(S'tr_tl'
I29
tp807
a(S'tr_ll'
I12
tp808
a(S'tr_th'
I1
tp809
a(S'w'
I8808
tp810
a(S'p1_tl'
I252
tp811
a(S'p1_ll'
I8
tp812
a(S'p1_th'
I1
tp813
a(S'w'
I1
tp814
a(S'p2_tl'
I142
tp815
a(S'p2_ll'
I8
tp816
a(S'w'
I2
tp817
a(S'tr_tl'
I171
tp818
a(S'tr_ll'
I12
tp819
a(S'w'
I8798
tp820
a(S'p1_tl'
I224
tp821
a(S'p1_ll'
I8
tp822
a(S'w'
I2
tp823
a(S'tr_tl'
I213
tp824
a(S'tr_ll'
I12
tp825
a(S'tr_th'
I0
tp826
a(S'w'
I2
tp827
a(S'no_ll'
I0
tp828
a(S'w'
I8802
tp829
a(S'p1_tl'
I58
tp830
a(S'p1_ll'
I8
tp831
a(S'p1_th'
I2
tp832
a(S'w'
I2
tp833
a(S'tr_tl'
I29
tp834
a(S'tr_ll'
I12
tp835
a(S'tr_th'
I1
tp836
a(S'w'
I8799
tp837
a(S'tr_tl'
I171
tp838
a(S'tr_ll'
I12
tp839
a(S'w'
I2
tp840
a(S'no_ll'
I0
tp841
a(S'w'
I8822
tp842
a(S'p1_tl'
I166
tp843
a(S'w'
I1
tp844
a(S'p1_ll'
I8
tp845
a(S'w'
I1
tp846
a(S'p2_ll'
I8
tp847
a(S'w'
I2
tp848
a(S'tr_ll'
I12
tp849
a(S'w'
I4381
tp850
a(S'p1_tl'
I250
tp851
a(S'w'
I1
tp852
a(S'p1_ll'
I8
tp853
a(S'w'
I2
tp854
a(S'tr_tl'
I213
tp855
a(S'tr_ll'
I12
tp856
a(S'tr_th'
I0
tp857
a(S'w'
I4403
tp858
a(S'p1_tl'
I58
tp859
a(S'p1_ll'
I8
tp860
a(S'w'
I2
tp861
a(S'tr_tl'
I29
tp862
a(S'tr_ll'
I12
tp863
a(S'tr_th'
I1
tp864
a(S'w'
I4396
tp865
a(S'p1_tl'
I252
tp866
a(S'p1_ll'
I8
tp867
a(S'p1_th'
I1
tp868
a(S'w'
I4406
tp869
a(S'p1_tl'
I58
tp870
a(S'w'
I1
tp871
a(S'p1_ll'
I8
tp872
a(S'p1_th'
I2
tp873
a(S'w'
I2
tp874
a(S'tr_tl'
I46
tp875
a(S'tr_ll'
I12
tp876
a(S'w'
I1
tp877
a(S'no_ll'
I0
tp878
a(S'w'
I4395
tp879
a(S'p1_tl'
I125
tp880
a(S'p1_ll'
I8
tp881
a(S'p1_th'
I1
tp882
a(S'w'
I4415
tp883
a(S'p1_tl'
I250
tp884
a(S'p1_ll'
I8
tp885
a(S'p1_th'
I2
tp886
a(S'w'
I1
tp887
a(S'w'
I1
tp888
a(S'p2_ll'
I8
tp889
a(S'w'
I1
tp890
a(S'tr_tl'
I64
tp891
a(S'tr_ll'
I12
tp892
a(S'w'
I8792
tp893
a(S'tr_ll'
I12
tp894
a(S'w'
I4400
tp895
a(S'tr_tl'
I213
tp896
a(S'tr_ll'
I12
tp897
a(S'tr_th'
I0
tp898
a(S'w'
I4404
tp899
a(S'no_ll'
I0
tp900
a(S'w'
I4402
tp901
a(S'tr_ll'
I12
tp902
a(S'w'
I4404
tp903
a(S'tr_tl'
I64
tp904
a(S'w'
I1
tp905
a(S'tr_ll'
I12
tp906
a(S'tr_th'
I1
tp907
a(S'w'
I4400
tp908
a(S'tr_tl'
I213
tp909
a(S'tr_ll'
I12
tp910
a(S'tr_th'
I0
tp911
a(S'w'
I4404
tp912
a(S'no_ll'
I0
tp913
a(S'w'
I4402
tp914
a(S'tr_ll'
I12
tp915
a(S'w'
I4422
tp916
a(S'p1_tl'
I128
tp917
a(S'p1_ll'
I8
tp918
a(S'w'
I2
tp919
a(S'p2_ll'
I8
tp920
a(S'w'
I1
tp921
a(S'tr_tl'
I29
tp922
a(S'tr_ll'
I12
tp923
a(S'tr_th'
I1
tp924
a(S'w'
I8788
tp925
a(S'tr_tl'
I252
tp926
a(S'tr_ll'
I12
tp927
a(S'w'
I8805
tp928
a(S'p1_tl'
I58
tp929
a(S'p1_ll'
I8
tp930
a(S'w'
I2
tp931
a(S'tr_tl'
I224
tp932
a(S'tr_ll'
I12
tp933
a(S'w'
I2
tp934
a(S'no_ll'
I0
tp935
a(S'w'
I8809
tp936
a(S'p1_tl'
I166
tp937
a(S'w'
I1
tp938
a(S'p1_ll'
I8
tp939
a(S'w'
I1
tp940
a(S'p2_ll'
I8
tp941
a(S'w'
I1
tp942
a(S'tr_tl'
I197
tp943
a(S'w'
I1
tp944
a(S'tr_ll'
I12
tp945
a(S'w'
I8791
tp946
a(S'tr_tl'
I171
tp947
a(S'w'
I1
tp948
a(S'tr_ll'
I12
tp949
a(S'w'
I4400
tp950
a(S'tr_tl'
I213
tp951
a(S'tr_ll'
I12
tp952
a(S'tr_th'
I0
tp953
a(S'w'
I4405
tp954
a(S'tr_tl'
I171
tp955
a(S'tr_ll'
I12
tp956
a(S'tr_th'
I1
tp957
a(S'w'
I2
tp958
a(S'no_ll'
I0
tp959
a(S'w'
I8805
tp960
a(S'tr_tl'
I147
tp961
a(S'tr_ll'
I12
tp962
a(S'w'
I730
tp963
a(S'tr_tl'
I125
tp964
a(S'tr_ll'
I12
tp965
a(S'w'
I734
tp966
a(S'tr_tl'
I103
tp967
a(S'tr_ll'
I12
tp968
a(S'w'
I734
tp969
a(S'tr_tl'
I83
tp970
a(S'tr_ll'
I12
tp971
a(S'w'
I734
tp972
a(S'tr_tl'
I64
tp973
a(S'tr_ll'
I12
tp974
a(S'w'
I733
tp975
a(S'tr_tl'
I46
tp976
a(S'tr_ll'
I12
tp977
a(S'w'
I734
tp978
a(S'tr_tl'
I29
tp979
a(S'tr_ll'
I12
tp980
a(S'w'
I734
tp981
a(S'tr_tl'
I13
tp982
a(S'tr_ll'
I12
tp983
a(S'w'
I734
tp984
a(S'tr_tl'
I254
tp985
a(S'tr_ll'
I12
tp986
a(S'tr_th'
I0
tp987
a(S'w'
I734
tp988
a(S'tr_tl'
I240
tp989
a(S'tr_ll'
I12
tp990
a(S'w'
I733
tp991
a(S'tr_tl'
I226
tp992
a(S'tr_ll'
I12
tp993
a(S'w'
I734
tp994
a(S'tr_tl'
I213
tp995
a(S'tr_ll'
I12
tp996
a(S'w'
I736
tp997
a(S'tr_tl'
I226
tp998
a(S'tr_ll'
I12
tp999
a(S'w'
I2
tp1000
a(S'no_ll'
I0
tp1001
a(S'w'
I730
tp1002
a(S'tr_tl'
I240
tp1003
a(S'tr_ll'
I12
tp1004
a(S'w'
I734
tp1005
a(S'tr_tl'
I254
tp1006
a(S'tr_ll'
I12
tp1007
a(S'w'
I733
tp1008
a(S'tr_tl'
I13
tp1009
a(S'tr_ll'
I12
tp1010
a(S'tr_th'
I1
tp1011
a(S'w'
I734
tp1012
a(S'tr_tl'
I29
tp1013
a(S'tr_ll'
I12
tp1014
a(S'w'
I734
tp1015
a(S'tr_tl'
I46
tp1016
a(S'tr_ll'
I12
tp1017
a(S'w'
I734
tp1018
a(S'tr_tl'
I64
tp1019
a(S'tr_ll'
I12
tp1020
a(S'w'
I733
tp1021
a(S'tr_tl'
I83
tp1022
a(S'tr_ll'
I12
tp1023
a(S'w'
I734
tp1024
a(S'tr_tl'
I103
tp1025
a(S'tr_ll'
I12
tp1026
a(S'w'
I734
tp1027
a(S'tr_tl'
I125
tp1028
a(S'tr_ll'
I12
tp1029
a(S'w'
I734
tp1030
a(S'tr_tl'
I147
tp1031
a(S'tr_ll'
I12
tp1032
a(S'w'
I734
tp1033
a(S'tr_tl'
I171
tp1034
a(S'tr_ll'
I12
tp1035
a(S'w'
I769
tp1036
a(S'p1_tl'
I58
tp1037
a(S'w'
I1
tp1038
a(S'p1_ll'
I8
tp1039
a(S'w'
I1
tp1040
a(S'p2_tl'
I169
tp1041
a(S'p2_ll'
I8
tp1042
a(S'w'
I2
tp1043
a(S'tr_ll'
I12
tp1044
a(S'w'
I8769
tp1045
a(S'tr_tl'
I213
tp1046
a(S'tr_ll'
I12
tp1047
a(S'tr_th'
I0
tp1048
a(S'w'
I8809
tp1049
a(S'p1_tl'
I166
tp1050
a(S'p1_ll'
I8
tp1051
a(S'w'
I2
tp1052
a(S'tr_tl'
I29
tp1053
a(S'tr_ll'
I12
tp1054
a(S'tr_th'
I1
tp1055
a(S'w'
I1
tp1056
a(S'no_ll'
I0
tp1057
a(S'w'
I8802
tp1058
a(S'p1_tl'
I250
tp1059
a(S'p1_ll'
I8
tp1060
a(S'w'
I2
tp1061
a(S'tr_tl'
I171
tp1062
a(S'tr_ll'
I12
tp1063
a(S'w'
I8804
tp1064
a(S'tr_ll'
I12
tp1065
a(S'w'
I4396
tp1066
a(S'tr_tl'
I213
tp1067
a(S'tr_ll'
I12
tp1068
a(S'tr_th'
I0
tp1069
a(S'w'
I4408
tp1070
a(S'w'
I1
tp1071
a(S'p1_ll'
I8
tp1072
a(S'w'
I2
tp1073
a(S'tr_tl'
I171
tp1074
a(S'tr_ll'
I12
tp1075
a(S'tr_th'
I1
tp1076
a(S'w'
I1
tp1077
a(S'no_ll'
I0
tp1078
a(S'w'
I8802
tp1079
a(S'p1_tl'
I166
tp1080
a(S'p1_ll'
I8
tp1081
a(S'w'
I2
tp1082
a(S'tr_tl'
I213
tp1083
a(S'w'
I1
tp1084
a(S'tr_ll'
I12
tp1085
a(S'tr_th'
I0
tp1086
a(S'w'
I8802
tp1087
a(S'p1_tl'
I58
tp1088
a(S'w'
I1
tp1089
a(S'p1_ll'
I8
tp1090
a(S'w'
I2
tp1091
a(S'tr_tl'
I171
tp1092
a(S'tr_ll'
I12
tp1093
a(S'tr_th'
I1
tp1094
a(S'w'
I1
tp1095
a(S'no_ll'
I0
tp1096
a(S'w'
I8814
tp1097
a(S'p2_tl'
I160
tp1098
a(S'p2_ll'
I8
tp1099
a(S'w'
I1
tp1100
a(S'tr_tl'
I29
tp1101
a(S'w'
I1
tp1102
a(S'tr_ll'
I12
tp1103
a(S'w'
I4383
tp1104
a(S'tr_tl'
I142
tp1105
a(S'tr_ll'
I12
tp1106
a(S'tr_th'
I0
tp1107
a(S'w'
I4409
tp1108
a(S'p1_tl'
I224
tp1109
a(S'p1_ll'
I8
tp1110
a(S'p1_th'
I1
tp1111
a(S'w'
I2
tp1112
a(S'tr_tl'
I29
tp1113
a(S'tr_ll'
I12
tp1114
a(S'tr_th'
I1
tp1115
a(S'w'
I8804
tp1116
a(S'p1_tl'
I252
tp1117
a(S'p1_ll'
I8
tp1118
a(S'w'
I2
tp1119
a(S'tr_tl'
I190
tp1120
a(S'tr_ll'
I12
tp1121
a(S'tr_th'
I0
tp1122
a(S'w'
I2
tp1123
a(S'no_ll'
I0
tp1124
a(S'w'
I8801
tp1125
a(S'p1_tl'
I58
tp1126
a(S'p1_ll'
I8
tp1127
a(S'p1_th'
I2
tp1128
a(S'w'
I2
tp1129
a(S'tr_tl'
I29
tp1130
a(S'tr_ll'
I12
tp1131
a(S'tr_th'
I1
tp1132
a(S'w'
I8808
tp1133
a(S'p1_tl'
I252
tp1134
a(S'p1_ll'
I8
tp1135
a(S'p1_th'
I1
tp1136
a(S'w'
I1
tp1137
a(S'p2_tl'
I142
tp1138
a(S'p2_ll'
I8
tp1139
a(S'w'
I2
tp1140
a(S'tr_tl'
I171
tp1141
a(S'tr_ll'
I12
tp1142
a(S'w'
I8798
tp1143
a(S'p1_tl'
I224
tp1144
a(S'p1_ll'
I8
tp1145
a(S'w'
I2
tp1146
a(S'tr_tl'
I213
tp1147
a(S'tr_ll'
I12
tp1148
a(S'tr_th'
I0
tp1149
a(S'w'
I2
tp1150
a(S'no_ll'
I0
tp1151
a(S'w'
I8802
tp1152
a(S'p1_tl'
I58
tp1153
a(S'p1_ll'
I8
tp1154
a(S'p1_th'
I2
tp1155
a(S'w'
I2
tp1156
a(S'tr_tl'
I29
tp1157
a(S'tr_ll'
I12
tp1158
a(S'tr_th'
I1
tp1159
a(S'w'
I8799
tp1160
a(S'tr_tl'
I171
tp1161
a(S'tr_ll'
I12
tp1162
a(S'w'
I2
tp1163
a(S'no_ll'
I0
tp1164
a(S'w'
I8822
tp1165
a(S'p1_tl'
I166
tp1166
a(S'w'
I1
tp1167
a(S'p1_ll'
I8
tp1168
a(S'w'
I1
tp1169
a(S'p2_ll'
I8
tp1170
a(S'w'
I2
tp1171
a(S'tr_ll'
I12
tp1172
a(S'w'
I4381
tp1173
a(S'p1_tl'
I250
tp1174
a(S'w'
I1
tp1175
a(S'p1_ll'
I8
tp1176
a(S'w'
I2
tp1177
a(S'tr_tl'
I213
tp1178
a(S'tr_ll'
I12
tp1179
a(S'tr_th'
I0
tp1180
a(S'w'
I4403
tp1181
a(S'p1_tl'
I58
tp1182
a(S'p1_ll'
I8
tp1183
a(S'w'
I2
tp1184
a(S'tr_tl'
I29
tp1185
a(S'tr_ll'
I12
tp1186
a(S'tr_th'
I1
tp1187
a(S'w'
I4396
tp1188
a(S'p1_tl'
I252
tp1189
a(S'p1_ll'
I8
tp1190
a(S'p1_th'
I1
tp1191
a(S'w'
I4406
tp1192
a(S'p1_tl'
I58
tp1193
a(S'w'
I1
tp1194
a(S'p1_ll'
I8
tp1195
a(S'p1_th'
I2
tp1196
a(S'w'
I2
tp1197
a(S'tr_tl'
I46
tp1198
a(S'tr_ll'
I12
tp1199
a(S'w'
I1
tp1200
a(S'no_ll'
I0
tp1201
a(S'w'
I4395
tp1202
a(S'p1_tl'
I125
tp1203
a(S'p1_ll'
I8
tp1204
a(S'p1_th'
I1
tp1205
a(S'w'
I4415
tp1206
a(S'p1_tl'
I250
tp1207
a(S'p1_ll'
I8
tp1208
a(S'p1_th'
I2
tp1209
a(S'w'
I1
tp1210
a(S'p2_tl'
I127
tp1211
a(S'w'
I1
tp1212
a(S'p2_ll'
I8
tp1213
a(S'w'
I1
tp1214
a(S'tr_tl'
I64
tp1215
a(S'tr_ll'
I12
tp1216
a(S'w'
I8792
tp1217
a(S'tr_ll'
I12
tp1218
a(S'w'
I4400
tp1219
a(S'tr_tl'
I213
tp1220
a(S'tr_ll'
I12
tp1221
a(S'tr_th'
I0
tp1222
a(S'w'
I4404
tp1223
a(S'no_ll'
I0
tp1224
a(S'w'
I4402
tp1225
a(S'tr_ll'
I12
tp1226
a(S'w'
I4404
tp1227
a(S'tr_tl'
I64
tp1228
a(S'w'
I1
tp1229
a(S'tr_ll'
I12
tp1230
a(S'tr_th'
I1
tp1231
a(S'w'
I4400
tp1232
a(S'tr_tl'
I213
tp1233
a(S'tr_ll'
I12
tp1234
a(S'tr_th'
I0
tp1235
a(S'w'
I4404
tp1236
a(S'no_ll'
I0
tp1237
a(S'w'
I4402
tp1238
a(S'tr_ll'
I12
tp1239
a(S'w'
I4422
tp1240
a(S'p1_tl'
I128
tp1241
a(S'p1_ll'
I8
tp1242
a(S'w'
I2
tp1243
a(S'p2_tl'
I113
tp1244
a(S'p2_ll'
I8
tp1245
a(S'w'
I1
tp1246
a(S'tr_tl'
I29
tp1247
a(S'tr_ll'
I12
tp1248
a(S'tr_th'
I1
tp1249
a(S'w'
I8788
tp1250
a(S'tr_tl'
I252
tp1251
a(S'tr_ll'
I12
tp1252
a(S'w'
I8805
tp1253
a(S'p1_tl'
I58
tp1254
a(S'p1_ll'
I8
tp1255
a(S'w'
I2
tp1256
a(S'tr_tl'
I224
tp1257
a(S'tr_ll'
I12
tp1258
a(S'w'
I2
tp1259
a(S'no_ll'
I0
tp1260
a(S'w'
I8812
tp1261
a(S'p1_tl'
I166
tp1262
a(S'w'
I1
tp1263
a(S'p1_ll'
I8
tp1264
a(S'w'
I1
tp1265
a(S'p2_du'
I0
tp1266
a(S'p2_lh'
I0
tp1267
a(S'p2_cv'
I0
tp1268
a(S'p2_tl'
I106
tp1269
a(S'p2_ll'
I8
tp1270
a(S'w'
I1
tp1271
a(S'tr_tl'
I197
tp1272
a(S'w'
I1
tp1273
a(S'tr_ll'
I12
tp1274
a(S'w'
I8788
tp1275
a(S'tr_tl'
I171
tp1276
a(S'w'
I1
tp1277
a(S'tr_ll'
I12
tp1278
a(S'w'
I4400
tp1279
a(S'tr_tl'
I213
tp1280
a(S'tr_ll'
I12
tp1281
a(S'tr_th'
I0
tp1282
a(S'w'
I4405
tp1283
a(S'tr_tl'
I171
tp1284
a(S'tr_ll'
I12
tp1285
a(S'tr_th'
I1
tp1286
a(S'w'
I2
tp1287
a(S'no_ll'
I0
tp1288
a(S'w'
I8805
tp1289
a(S'tr_tl'
I147
tp1290
a(S'tr_ll'
I12
tp1291
a(S'w'
I730
tp1292
a(S'tr_tl'
I125
tp1293
a(S'tr_ll'
I12
tp1294
a(S'w'
I734
tp1295
a(S'tr_tl'
I103
tp1296
a(S'tr_ll'
I12
tp1297
a(S'w'
I734
tp1298
a(S'tr_tl'
I83
tp1299
a(S'tr_ll'
I12
tp1300
a(S'w'
I734
tp1301
a(S'tr_tl'
I64
tp1302
a(S'tr_ll'
I12
tp1303
a(S'w'
I733
tp1304
a(S'tr_tl'
I46
tp1305
a(S'tr_ll'
I12
tp1306
a(S'w'
I734
tp1307
a(S'tr_tl'
I29
tp1308
a(S'tr_ll'
I12
tp1309
a(S'w'
I734
tp1310
a(S'tr_tl'
I13
tp1311
a(S'tr_ll'
I12
tp1312
a(S'w'
I734
tp1313
a(S'tr_tl'
I254
tp1314
a(S'tr_ll'
I12
tp1315
a(S'tr_th'
I0
tp1316
a(S'w'
I734
tp1317
a(S'tr_tl'
I240
tp1318
a(S'tr_ll'
I12
tp1319
a(S'w'
I733
tp1320
a(S'tr_tl'
I226
tp1321
a(S'tr_ll'
I12
tp1322
a(S'w'
I734
tp1323
a(S'tr_tl'
I213
tp1324
a(S'tr_ll'
I12
tp1325
a(S'w'
I736
tp1326
a(S'tr_tl'
I226
tp1327
a(S'tr_ll'
I12
tp1328
a(S'w'
I2
tp1329
a(S'no_ll'
I0
tp1330
a(S'w'
I730
tp1331
a(S'tr_tl'
I240
tp1332
a(S'tr_ll'
I12
tp1333
a(S'w'
I734
tp1334
a(S'tr_tl'
I254
tp1335
a(S'tr_ll'
I12
tp1336
a(S'w'
I733
tp1337
a(S'tr_tl'
I13
tp1338
a(S'tr_ll'
I12
tp1339
a(S'tr_th'
I1
tp1340
a(S'w'
I734
tp1341
a(S'tr_tl'
I29
tp1342
a(S'tr_ll'
I12
tp1343
a(S'w'
I734
tp1344
a(S'tr_tl'
I46
tp1345
a(S'tr_ll'
I12
tp1346
a(S'w'
I734
tp1347
a(S'tr_tl'
I64
tp1348
a(S'tr_ll'
I12
tp1349
a(S'w'
I733
tp1350
a(S'tr_tl'
I83
tp1351
a(S'tr_ll'
I12
tp1352
a(S'w'
I734
tp1353
a(S'tr_tl'
I103
tp1354
a(S'tr_ll'
I12
tp1355
a(S'w'
I734
tp1356
a(S'tr_tl'
I125
tp1357
a(S'tr_ll'
I12
tp1358
a(S'w'
I734
tp1359
a(S'tr_tl'
I147
tp1360
a(S'tr_ll'
I12
tp1361
a(S'w'
I734
tp1362
a(S'tr_tl'
I171
tp1363
a(S'tr_ll'
I12
tp1364
a(S'w'
I771
tp1365
a(S'p1_du'
I0
tp1366
a(S'p1_vo'
I1
tp1367
a(S'w'
I1
tp1368
a(S'p1_tl'
I128
tp1369
a(S'p1_ll'
I8
tp1370
a(S'w'
I1
tp1371
a(S'p2_vo'
I1
tp1372
a(S'p2_tl'
I213
tp1373
a(S'w'
I1
tp1374
a(S'p2_ll'
I8
tp1375
a(S'w'
I1
tp1376
a(S'tr_tl'
I125
tp1377
a(S'tr_ll'
I12
tp1378
a(S'w'
I1
tp1379
a(S'w'
I1
tp1380
a(S'no_ll'
I0
tp1381
a(S'w'
I26383
tp1382
a(S'w'
I1
tp1383
a(S'p1_ll'
I8
tp1384
a(S'w'
I1
tp1385
a(S'p2_ll'
I8
tp1386
a(S'w'
I2
tp1387
a(S'tr_ll'
I12
tp1388
a(S'w'
I1
tp1389
a(S'no_ll'
I0
tp1390
a(S'w'
I26414
tp1391
a(S'p1_ll'
I8
tp1392
a(S'w'
I1
tp1393
a(S'p2_ll'
I8
tp1394
a(S'w'
I2
tp1395
a(S'tr_ll'
I12
tp1396
a(S'w'
I1
tp1397
a(S'no_ll'
I0
tp1398
a(S'w'
I8799
tp1399
a(S'p1_ll'
I8
tp1400
a(S'w'
I1
tp1401
a(S'p2_tl'
I226
tp1402
a(S'w'
I1
tp1403
a(S'p2_ll'
I8
tp1404
a(S'w'
I1
tp1405
a(S'tr_tl'
I29
tp1406
a(S'tr_ll'
I12
tp1407
a(S'w'
I1
tp1408
a(S'w'
I1
tp1409
a(S'no_ll'
I0
tp1410
a(S'w'
I8799
tp1411
a(S'w'
I1
tp1412
a(S'no_ll'
I0
tp1413
a(S'w'
I17599
tp1414
a(S'no_ll'
I0
tp1415
a(S'w'
I17611
tp1416
a(S'no_ll'
I0
tp1417
a(S'w'
I8806
tp1418
a(S'no_ll'
I0
tp1419
a(S'w'
I8807
tp1420
a(S'no_vo'
I6
tp1421
a(S'w'
I1
tp1422
a(S'no_ll'
I0
tp1423
a(S'w'
I17696
tp1424
a.