(lp1
(S'clock'
p2
I1789773
tp3
a(S'fc_mo'
I1
tp4
a(S'ch_no'
I1
tp5
a(S'ch_tr'
I1
tp6
a(S'ch_p2'
I1
tp7
a(S'ch_p1'
I1
tp8
a(S'p1_cv'
I1
tp9
a(S'p2_cv'
I1
tp10
a(S'no_cv'
I1
tp11
a(S'w'
I78
tp12
a(S'p1_du'
I1
tp13
a(S'p1_cv'
I0
tp14
a(S'p1_vo'
I13
tp15
a(S'p1_sp'
I7
tp16
a(S'p1_sn'
I1
tp17
a(S'p1_ss'
I7
tp18
a(S'w'
I1
tp19
a(S'p1_tl'
I29
tp20
a(S'p1_ll'
I1
tp21
a(S'p1_th'
I1
tp22
a(S'w'
I1
tp23
a(S'p2_du'
I2
tp24
a(S'p2_cv'
I0
tp25
a(S'p2_vo'
I13
tp26
a(S'p2_sp'
I7
tp27
a(S'p2_sn'
I1
tp28
a(S'p2_ss'
I7
tp29
a(S'p2_tl'
I171
tp30
a(S'p2_ll'
I1
tp31
a(S'p2_th'
I1
tp32
a(S'w'
I32962
tp33
a(S'p2_ll'
I1
tp34
a(S'w'
I11003
tp35
a(S'p1_tl'
I254
tp36
a(S'w'
I1
tp37
a(S'p1_ll'
I1
tp38
a(S'p1_th'
I0
tp39
a(S'w'
I11006
tp40
a(S'p1_tl'
I226
tp41
a(S'w'
I1
tp42
a(S'p1_ll'
I1
tp43
a(S'w'
I11018
tp44
a(S'p1_tl'
I213
tp45
a(S'p1_ll'
I1
tp46
a(S'w'
I2
tp47
a(S'p2_tl'
I252
tp48
a(S'p2_ll'
I1
tp49
a(S'w'
I33011
tp50
a(S'p1_tl'
I83
tp51
a(S'w'
I1
tp52
a(S'p1_ll'
I1
tp53
a(S'p1_th'
I1
tp54
a(S'w'
I1
tp55
a(S'p2_tl'
I171
tp56
a(S'p2_ll'
I1
tp57
a(S'w'
I33025
tp58
a(S'p1_tl'
I64
tp59
a(S'p1_ll'
I1
tp60
a(S'w'
I1
tp61
a(S'p2_tl'
I125
tp62
a(S'w'
I1
tp63
a(S'p2_ll'
I1
tp64
a(S'w'
I33013
tp65
a(S'p1_tl'
I213
tp66
a(S'w'
I1
tp67
a(S'p1_ll'
I1
tp68
a(S'p1_th'
I0
tp69
a(S'w'
I1
tp70
a(S'p2_tl'
I252
tp71
a(S'p2_ll'
I1
tp72
a(S'w'
I33026
tp73
a(S'p1_tl'
I226
tp74
a(S'p1_ll'
I1
tp75
a(S'w'
I2
tp76
a(S'p2_tl'
I29
tp77
a(S'p2_ll'
I1
tp78
a(S'w'
I22004
tp79
a(S'p1_tl'
I254
tp80
a(S'w'
I1
tp81
a(S'p1_ll'
I1
tp82
a(S'w'
I1
tp83
a(S'p2_tl'
I64
tp84
a(S'p2_ll'
I1
tp85
a(S'w'
I22012
tp86
a(S'p1_tl'
I29
tp87
a(S'w'
I1
tp88
a(S'p1_ll'
I1
tp89
a(S'p1_th'
I1
tp90
a(S'w'
I1
tp91
a(S'p2_tl'
I83
tp92
a(S'p2_ll'
I1
tp93
a(S'w'
I11005
tp94
a(S'p1_tl'
I64
tp95
a(S'w'
I1
tp96
a(S'p1_ll'
I1
tp97
a(S'w'
I1
tp98
a(S'p2_tl'
I125
tp99
a(S'p2_ll'
I1
tp100
a(S'w'
I11019
tp101
a(S'p1_tl'
I29
tp102
a(S'w'
I1
tp103
a(S'p1_ll'
I1
tp104
a(S'w'
I1
tp105
a(S'p2_tl'
I171
tp106
a(S'p2_ll'
I1
tp107
a(S'w'
I33003
tp108
a(S'p2_tl'
I83
tp109
a(S'p2_ll'
I1
tp110
a(S'w'
I11003
tp111
a(S'p1_tl'
I254
tp112
a(S'w'
I1
tp113
a(S'p1_ll'
I1
tp114
a(S'p1_th'
I0
tp115
a(S'w'
I11006
tp116
a(S'p1_tl'
I29
tp117
a(S'w'
I1
tp118
a(S'p1_ll'
I1
tp119
a(S'p1_th'
I1
tp120
a(S'w'
I11016
tp121
a(S'p1_tl'
I240
tp122
a(S'w'
I1
tp123
a(S'p1_ll'
I1
tp124
a(S'p1_th'
I0
tp125
a(S'w'
I1
tp126
a(S'p2_tl'
I58
tp127
a(S'p2_ll'
I1
tp128
a(S'p2_th'
I2
tp129
a(S'w'
I22001
tp130
a(S'p1_tl'
I254
tp131
a(S'w'
I1
tp132
a(S'p1_ll'
I1
tp133
a(S'w'
I11009
tp134
a(S'p2_tl'
I224
tp135
a(S'p2_ll'
I1
tp136
a(S'p2_th'
I1
tp137
a(S'w'
I11004
tp138
a(S'p1_tl'
I83
tp139
a(S'w'
I1
tp140
a(S'p1_ll'
I1
tp141
a(S'p1_th'
I1
tp142
a(S'w'
I11006
tp143
a(S'p1_tl'
I29
tp144
a(S'w'
I1
tp145
a(S'p1_ll'
I1
tp146
a(S'w'
I11016
tp147
a(S'p1_tl'
I64
tp148
a(S'w'
I1
tp149
a(S'p1_ll'
I1
tp150
a(S'w'
I1
tp151
a(S'p2_tl'
I252
tp152
a(S'p2_ll'
I1
tp153
a(S'w'
I33015
tp154
a(S'p1_ll'
I1
tp155
a(S'w'
I2
tp156
a(S'p2_ll'
I1
tp157
a(S'w'
I11003
tp158
a(S'p1_tl'
I83
tp159
a(S'p1_ll'
I1
tp160
a(S'w'
I1
tp161
a(S'p2_tl'
I58
tp162
a(S'w'
I1
tp163
a(S'p2_ll'
I1
tp164
a(S'p2_th'
I2
tp165
a(S'w'
I11005
tp166
a(S'p1_tl'
I64
tp167
a(S'p1_ll'
I1
tp168
a(S'w'
I1
tp169
a(S'p2_tl'
I252
tp170
a(S'w'
I1
tp171
a(S'p2_ll'
I1
tp172
a(S'p2_th'
I1
tp173
a(S'w'
I11012
tp174
a(S'p1_tl'
I125
tp175
a(S'p1_ll'
I1
tp176
a(S'w'
I1
tp177
a(S'p2_tl'
I128
tp178
a(S'p2_ll'
I1
tp179
a(S'p2_th'
I2
tp180
a(S'w'
I44015
tp181
a(S'p1_tl'
I83
tp182
a(S'w'
I1
tp183
a(S'p1_ll'
I1
tp184
a(S'w'
I11006
tp185
a(S'p1_tl'
I64
tp186
a(S'w'
I1
tp187
a(S'p1_ll'
I1
tp188
a(S'w'
I11024
tp189
a(S'p1_tl'
I29
tp190
a(S'p1_ll'
I1
tp191
a(S'w'
I1
tp192
a(S'p2_tl'
I166
tp193
a(S'w'
I1
tp194
a(S'p2_ll'
I1
tp195
a(S'w'
I10989
tp196
a(S'p2_tl'
I58
tp197
a(S'w'
I1
tp198
a(S'p2_ll'
I1
tp199
a(S'w'
I11007
tp200
a(S'p2_tl'
I171
tp201
a(S'p2_ll'
I1
tp202
a(S'p2_th'
I1
tp203
a(S'w'
I11007
tp204
a(S'p2_tl'
I83
tp205
a(S'p2_ll'
I1
tp206
a(S'w'
I11006
tp207
a(S'p1_tl'
I254
tp208
a(S'p1_ll'
I1
tp209
a(S'p1_th'
I0
tp210
a(S'w'
I11007
tp211
a(S'p1_tl'
I226
tp212
a(S'p1_ll'
I1
tp213
a(S'w'
I11014
tp214
a(S'p1_tl'
I254
tp215
a(S'w'
I1
tp216
a(S'p1_ll'
I1
tp217
a(S'w'
I1
tp218
a(S'p2_tl'
I252
tp219
a(S'p2_ll'
I1
tp220
a(S'w'
I10999
tp221
a(S'p2_tl'
I147
tp222
a(S'p2_ll'
I1
tp223
a(S'w'
I11006
tp224
a(S'p2_tl'
I83
tp225
a(S'p2_ll'
I1
tp226
a(S'w'
I11007
tp227
a(S'p2_tl'
I254
tp228
a(S'p2_ll'
I1
tp229
a(S'p2_th'
I0
tp230
a(S'w'
I11006
tp231
a(S'p1_tl'
I13
tp232
a(S'p1_ll'
I1
tp233
a(S'p1_th'
I1
tp234
a(S'w'
I11007
tp235
a(S'p1_tl'
I254
tp236
a(S'p1_ll'
I1
tp237
a(S'p1_th'
I0
tp238
a(S'w'
I11017
tp239
a(S'p1_tl'
I213
tp240
a(S'p1_ll'
I1
tp241
a(S'w'
I1
tp242
a(S'p2_ll'
I1
tp243
a(S'w'
I22005
tp244
a(S'p1_tl'
I254
tp245
a(S'w'
I1
tp246
a(S'p1_ll'
I1
tp247
a(S'w'
I1
tp248
a(S'p2_tl'
I64
tp249
a(S'p2_ll'
I1
tp250
a(S'p2_th'
I1
tp251
a(S'w'
I22011
tp252
a(S'p1_tl'
I64
tp253
a(S'w'
I1
tp254
a(S'p1_ll'
I1
tp255
a(S'p1_th'
I1
tp256
a(S'w'
I1
tp257
a(S'p2_tl'
I171
tp258
a(S'p2_ll'
I1
tp259
a(S'w'
I11000
tp260
a(S'p1_tl'
I83
tp261
a(S'w'
I1
tp262
a(S'p1_ll'
I1
tp263
a(S'w'
I11019
tp264
a(S'p1_tl'
I125
tp265
a(S'p1_ll'
I1
tp266
a(S'w'
I1
tp267
a(S'p2_tl'
I58
tp268
a(S'p2_ll'
I1
tp269
a(S'p2_th'
I2
tp270
a(S'w'
I10994
tp271
a(S'p2_tl'
I197
tp272
a(S'p2_ll'
I1
tp273
a(S'p2_th'
I1
tp274
a(S'w'
I11007
tp275
a(S'p2_tl'
I103
tp276
a(S'p2_ll'
I1
tp277
a(S'w'
I11007
tp278
a(S'p2_tl'
I29
tp279
a(S'p2_ll'
I1
tp280
a(S'w'
I33081
tp281
a(S'p1_tl'
I29
tp282
a(S'p1_ll'
I1
tp283
a(S'w'
I1
tp284
a(S'w'
I1
tp285
a(S'p2_tl'
I171
tp286
a(S'p2_ll'
I1
tp287
a(S'w'
I1
tp288
a(S'tr_lr'
I111
tp289
a(S'tr_tl'
I171
tp290
a(S'tr_ll'
I8
tp291
a(S'tr_th'
I1
tp292
a(S'w'
I1
tp293
a(S'no_cv'
I0
tp294
a(S'no_vo'
I1
tp295
a(S'w'
I1
tp296
a(S'no_np'
I1
tp297
a(S'no_ll'
I12
tp298
a(S'w'
I10947
tp299
a(S'tr_tl'
I83
tp300
a(S'tr_ll'
I8
tp301
a(S'w'
I11007
tp302
a(S'tr_tl'
I29
tp303
a(S'tr_ll'
I8
tp304
a(S'w'
I11012
tp305
a(S'p2_ll'
I1
tp306
a(S'w'
I1
tp307
a(S'tr_tl'
I213
tp308
a(S'w'
I1
tp309
a(S'tr_ll'
I8
tp310
a(S'tr_th'
I0
tp311
a(S'w'
I1
tp312
a(S'no_np'
I3
tp313
a(S'no_ll'
I12
tp314
a(S'w'
I11000
tp315
a(S'p1_tl'
I254
tp316
a(S'p1_ll'
I1
tp317
a(S'p1_th'
I0
tp318
a(S'w'
I2
tp319
a(S'tr_tl'
I29
tp320
a(S'w'
I1
tp321
a(S'tr_ll'
I8
tp322
a(S'tr_th'
I1
tp323
a(S'w'
I11004
tp324
a(S'p1_tl'
I226
tp325
a(S'p1_ll'
I1
tp326
a(S'w'
I2
tp327
a(S'tr_tl'
I83
tp328
a(S'tr_ll'
I8
tp329
a(S'w'
I2
tp330
a(S'no_np'
I1
tp331
a(S'no_ll'
I12
tp332
a(S'w'
I11016
tp333
a(S'p1_tl'
I213
tp334
a(S'p1_ll'
I1
tp335
a(S'w'
I1
tp336
a(S'p2_tl'
I252
tp337
a(S'w'
I1
tp338
a(S'p2_ll'
I1
tp339
a(S'w'
I1
tp340
a(S'tr_tl'
I252
tp341
a(S'tr_ll'
I8
tp342
a(S'w'
I1
tp343
a(S'w'
I1
tp344
a(S'no_ll'
I12
tp345
a(S'w'
I10985
tp346
a(S'tr_tl'
I171
tp347
a(S'w'
I1
tp348
a(S'tr_ll'
I8
tp349
a(S'w'
I11005
tp350
a(S'tr_tl'
I83
tp351
a(S'w'
I1
tp352
a(S'tr_ll'
I8
tp353
a(S'w'
I11015
tp354
a(S'p1_tl'
I83
tp355
a(S'p1_ll'
I1
tp356
a(S'p1_th'
I1
tp357
a(S'w'
I1
tp358
a(S'p2_tl'
I171
tp359
a(S'w'
I1
tp360
a(S'p2_ll'
I1
tp361
a(S'w'
I1
tp362
a(S'tr_tl'
I254
tp363
a(S'tr_ll'
I8
tp364
a(S'tr_th'
I0
tp365
a(S'w'
I1
tp366
a(S'no_np'
I3
tp367
a(S'w'
I1
tp368
a(S'no_ll'
I12
tp369
a(S'w'
I10993
tp370
a(S'tr_tl'
I83
tp371
a(S'w'
I1
tp372
a(S'tr_ll'
I8
tp373
a(S'tr_th'
I1
tp374
a(S'w'
I11006
tp375
a(S'tr_tl'
I171
tp376
a(S'tr_ll'
I8
tp377
a(S'w'
I2
tp378
a(S'no_np'
I1
tp379
a(S'no_ll'
I12
tp380
a(S'w'
I11021
tp381
a(S'p1_tl'
I64
tp382
a(S'w'
I1
tp383
a(S'p1_ll'
I1
tp384
a(S'w'
I1
tp385
a(S'p2_tl'
I125
tp386
a(S'p2_ll'
I1
tp387
a(S'w'
I1
tp388
a(S'tr_tl'
I125
tp389
a(S'w'
I1
tp390
a(S'tr_ll'
I8
tp391
a(S'w'
I1
tp392
a(S'no_ll'
I12
tp393
a(S'w'
I10986
tp394
a(S'tr_tl'
I64
tp395
a(S'w'
I1
tp396
a(S'tr_ll'
I8
tp397
a(S'w'
I11006
tp398
a(S'tr_tl'
I254
tp399
a(S'w'
I1
tp400
a(S'tr_ll'
I8
tp401
a(S'tr_th'
I0
tp402
a(S'w'
I11015
tp403
a(S'p1_tl'
I213
tp404
a(S'w'
I1
tp405
a(S'p1_ll'
I1
tp406
a(S'p1_th'
I0
tp407
a(S'w'
I1
tp408
a(S'p2_tl'
I252
tp409
a(S'p2_ll'
I1
tp410
a(S'w'
I1
tp411
a(S'tr_tl'
I213
tp412
a(S'w'
I1
tp413
a(S'tr_ll'
I8
tp414
a(S'w'
I1
tp415
a(S'no_np'
I3
tp416
a(S'no_ll'
I12
tp417
a(S'w'
I10992
tp418
a(S'tr_tl'
I254
tp419
a(S'w'
I1
tp420
a(S'tr_ll'
I8
tp421
a(S'w'
I11006
tp422
a(S'tr_tl'
I64
tp423
a(S'tr_ll'
I8
tp424
a(S'tr_th'
I1
tp425
a(S'w'
I2
tp426
a(S'no_np'
I1
tp427
a(S'no_ll'
I12
tp428
a(S'w'
I11024
tp429
a(S'p1_tl'
I226
tp430
a(S'p1_ll'
I1
tp431
a(S'w'
I1
tp432
a(S'p2_tl'
I29
tp433
a(S'p2_ll'
I1
tp434
a(S'w'
I2
tp435
a(S'tr_tl'
I29
tp436
a(S'tr_ll'
I8
tp437
a(S'w'
I1
tp438
a(S'no_ll'
I12
tp439
a(S'w'
I10990
tp440
a(S'tr_tl'
I226
tp441
a(S'tr_ll'
I8
tp442
a(S'tr_th'
I0
tp443
a(S'w'
I11010
tp444
a(S'p1_tl'
I254
tp445
a(S'p1_ll'
I1
tp446
a(S'w'
I2
tp447
a(S'p2_tl'
I64
tp448
a(S'p2_ll'
I1
tp449
a(S'w'
I1
tp450
a(S'tr_tl'
I29
tp451
a(S'tr_ll'
I8
tp452
a(S'tr_th'
I1
tp453
a(S'w'
I11001
tp454
a(S'tr_tl'
I64
tp455
a(S'tr_ll'
I8
tp456
a(S'w'
I1
tp457
a(S'no_np'
I3
tp458
a(S'no_ll'
I12
tp459
a(S'w'
I11009
tp460
a(S'p1_tl'
I29
tp461
a(S'p1_ll'
I1
tp462
a(S'p1_th'
I1
tp463
a(S'w'
I2
tp464
a(S'p2_tl'
I83
tp465
a(S'p2_ll'
I1
tp466
a(S'w'
I1
tp467
a(S'tr_tl'
I29
tp468
a(S'tr_ll'
I8
tp469
a(S'w'
I11004
tp470
a(S'p1_tl'
I64
tp471
a(S'p1_ll'
I1
tp472
a(S'w'
I1
tp473
a(S'p2_tl'
I125
tp474
a(S'w'
I1
tp475
a(S'p2_ll'
I1
tp476
a(S'w'
I1
tp477
a(S'tr_tl'
I226
tp478
a(S'tr_ll'
I8
tp479
a(S'tr_th'
I0
tp480
a(S'w'
I2
tp481
a(S'no_np'
I1
tp482
a(S'no_ll'
I12
tp483
a(S'w'
I11009
tp484
a(S'p1_tl'
I29
tp485
a(S'w'
I1
tp486
a(S'p1_ll'
I1
tp487
a(S'w'
I1
tp488
a(S'p2_tl'
I171
tp489
a(S'p2_ll'
I1
tp490
a(S'w'
I1
tp491
a(S'tr_tl'
I171
tp492
a(S'w'
I1
tp493
a(S'tr_ll'
I8
tp494
a(S'tr_th'
I1
tp495
a(S'w'
I1
tp496
a(S'no_ll'
I12
tp497
a(S'w'
I10988
tp498
a(S'tr_tl'
I83
tp499
a(S'tr_ll'
I8
tp500
a(S'w'
I11007
tp501
a(S'tr_tl'
I29
tp502
a(S'tr_ll'
I8
tp503
a(S'w'
I11012
tp504
a(S'p2_tl'
I83
tp505
a(S'p2_ll'
I1
tp506
a(S'w'
I1
tp507
a(S'tr_tl'
I213
tp508
a(S'w'
I1
tp509
a(S'tr_ll'
I8
tp510
a(S'tr_th'
I0
tp511
a(S'w'
I1
tp512
a(S'no_np'
I3
tp513
a(S'no_ll'
I12
tp514
a(S'w'
I10998
tp515
a(S'p1_tl'
I254
tp516
a(S'p1_ll'
I1
tp517
a(S'p1_th'
I0
tp518
a(S'w'
I11007
tp519
a(S'p1_tl'
I29
tp520
a(S'p1_ll'
I1
tp521
a(S'p1_th'
I1
tp522
a(S'w'
I3
tp523
a(S'no_np'
I1
tp524
a(S'no_ll'
I12
tp525
a(S'w'
I11018
tp526
a(S'p1_tl'
I240
tp527
a(S'p1_ll'
I1
tp528
a(S'p1_th'
I0
tp529
a(S'w'
I1
tp530
a(S'p2_tl'
I58
tp531
a(S'w'
I1
tp532
a(S'p2_ll'
I1
tp533
a(S'p2_th'
I2
tp534
a(S'w'
I1
tp535
a(S'tr_tl'
I171
tp536
a(S'tr_ll'
I8
tp537
a(S'tr_th'
I1
tp538
a(S'w'
I1
tp539
a(S'w'
I1
tp540
a(S'no_ll'
I12
tp541
a(S'w'
I10989
tp542
a(S'tr_tl'
I83
tp543
a(S'tr_ll'
I8
tp544
a(S'w'
I11007
tp545
a(S'p1_tl'
I254
tp546
a(S'p1_ll'
I1
tp547
a(S'w'
I2
tp548
a(S'tr_tl'
I29
tp549
a(S'w'
I1
tp550
a(S'tr_ll'
I8
tp551
a(S'w'
I11007
tp552
a(S'p2_tl'
I224
tp553
a(S'p2_ll'
I1
tp554
a(S'p2_th'
I1
tp555
a(S'w'
I1
tp556
a(S'tr_tl'
I240
tp557
a(S'w'
I1
tp558
a(S'tr_ll'
I8
tp559
a(S'tr_th'
I0
tp560
a(S'w'
I1
tp561
a(S'no_np'
I3
tp562
a(S'no_ll'
I12
tp563
a(S'w'
I10999
tp564
a(S'p1_tl'
I83
tp565
a(S'p1_ll'
I1
tp566
a(S'p1_th'
I1
tp567
a(S'w'
I11007
tp568
a(S'p1_tl'
I29
tp569
a(S'p1_ll'
I1
tp570
a(S'w'
I3
tp571
a(S'no_np'
I1
tp572
a(S'no_ll'
I12
tp573
a(S'w'
I11018
tp574
a(S'p1_tl'
I64
tp575
a(S'p1_ll'
I1
tp576
a(S'w'
I1
tp577
a(S'p2_tl'
I252
tp578
a(S'w'
I1
tp579
a(S'p2_ll'
I1
tp580
a(S'w'
I1
tp581
a(S'tr_tl'
I64
tp582
a(S'tr_ll'
I8
tp583
a(S'tr_th'
I1
tp584
a(S'w'
I1
tp585
a(S'w'
I1
tp586
a(S'no_ll'
I12
tp587
a(S'w'
I10989
tp588
a(S'tr_tl'
I254
tp589
a(S'tr_ll'
I8
tp590
a(S'tr_th'
I0
tp591
a(S'w'
I11008
tp592
a(S'tr_tl'
I213
tp593
a(S'tr_ll'
I8
tp594
a(S'w'
I11013
tp595
a(S'p1_ll'
I1
tp596
a(S'w'
I1
tp597
a(S'p2_ll'
I1
tp598
a(S'w'
I2
tp599
a(S'tr_tl'
I64
tp600
a(S'tr_ll'
I8
tp601
a(S'tr_th'
I1
tp602
a(S'w'
I1
tp603
a(S'no_np'
I3
tp604
a(S'no_ll'
I12
tp605
a(S'w'
I11001
tp606
a(S'p1_tl'
I83
tp607
a(S'p1_ll'
I1
tp608
a(S'w'
I1
tp609
a(S'p2_tl'
I58
tp610
a(S'p2_ll'
I1
tp611
a(S'p2_th'
I2
tp612
a(S'w'
I2
tp613
a(S'tr_tl'
I254
tp614
a(S'tr_ll'
I8
tp615
a(S'tr_th'
I0
tp616
a(S'w'
I11004
tp617
a(S'p1_tl'
I64
tp618
a(S'p1_ll'
I1
tp619
a(S'w'
I1
tp620
a(S'p2_tl'
I252
tp621
a(S'w'
I1
tp622
a(S'p2_ll'
I1
tp623
a(S'p2_th'
I1
tp624
a(S'w'
I1
tp625
a(S'tr_tl'
I213
tp626
a(S'tr_ll'
I8
tp627
a(S'w'
I1
tp628
a(S'no_np'
I1
tp629
a(S'w'
I1
tp630
a(S'no_ll'
I12
tp631
a(S'w'
I11010
tp632
a(S'p1_tl'
I125
tp633
a(S'p1_ll'
I1
tp634
a(S'w'
I1
tp635
a(S'p2_tl'
I128
tp636
a(S'w'
I1
tp637
a(S'p2_ll'
I1
tp638
a(S'p2_th'
I2
tp639
a(S'w'
I1
tp640
a(S'tr_tl'
I64
tp641
a(S'tr_ll'
I8
tp642
a(S'tr_th'
I1
tp643
a(S'w'
I1
tp644
a(S'w'
I1
tp645
a(S'no_ll'
I12
tp646
a(S'w'
I10988
tp647
a(S'tr_tl'
I13
tp648
a(S'tr_ll'
I8
tp649
a(S'w'
I11008
tp650
a(S'tr_tl'
I213
tp651
a(S'tr_ll'
I8
tp652
a(S'tr_th'
I0
tp653
a(S'w'
I11007
tp654
a(S'tr_tl'
I160
tp655
a(S'tr_ll'
I8
tp656
a(S'w'
I1
tp657
a(S'no_np'
I3
tp658
a(S'no_ll'
I12
tp659
a(S'w'
I11007
tp660
a(S'p1_tl'
I83
tp661
a(S'p1_ll'
I1
tp662
a(S'w'
I2
tp663
a(S'tr_tl'
I213
tp664
a(S'tr_ll'
I8
tp665
a(S'w'
I11004
tp666
a(S'p1_tl'
I64
tp667
a(S'p1_ll'
I1
tp668
a(S'w'
I2
tp669
a(S'tr_tl'
I13
tp670
a(S'tr_ll'
I8
tp671
a(S'tr_th'
I1
tp672
a(S'w'
I2
tp673
a(S'no_np'
I1
tp674
a(S'no_ll'
I12
tp675
a(S'w'
I11015
tp676
a(S'p1_tl'
I29
tp677
a(S'p1_ll'
I1
tp678
a(S'w'
I1
tp679
a(S'p2_tl'
I166
tp680
a(S'w'
I1
tp681
a(S'p2_ll'
I1
tp682
a(S'w'
I1
tp683
a(S'tr_tl'
I171
tp684
a(S'tr_ll'
I8
tp685
a(S'w'
I1
tp686
a(S'w'
I1
tp687
a(S'no_ll'
I12
tp688
a(S'w'
I10992
tp689
a(S'p2_tl'
I58
tp690
a(S'p2_ll'
I1
tp691
a(S'w'
I2
tp692
a(S'tr_tl'
I83
tp693
a(S'tr_ll'
I8
tp694
a(S'w'
I11005
tp695
a(S'p2_tl'
I171
tp696
a(S'w'
I1
tp697
a(S'p2_ll'
I1
tp698
a(S'p2_th'
I1
tp699
a(S'w'
I1
tp700
a(S'tr_tl'
I29
tp701
a(S'tr_ll'
I8
tp702
a(S'w'
I1
tp703
a(S'no_np'
I2
tp704
a(S'w'
I1
tp705
a(S'no_ll'
I12
tp706
a(S'w'
I11004
tp707
a(S'p2_tl'
I83
tp708
a(S'p2_ll'
I1
tp709
a(S'w'
I1
tp710
a(S'tr_tl'
I213
tp711
a(S'w'
I1
tp712
a(S'tr_ll'
I8
tp713
a(S'tr_th'
I0
tp714
a(S'w'
I1
tp715
a(S'no_np'
I3
tp716
a(S'no_ll'
I12
tp717
a(S'w'
I11001
tp718
a(S'p1_tl'
I254
tp719
a(S'p1_ll'
I1
tp720
a(S'p1_th'
I0
tp721
a(S'w'
I11007
tp722
a(S'p1_tl'
I226
tp723
a(S'p1_ll'
I1
tp724
a(S'w'
I11010
tp725
a(S'p1_tl'
I254
tp726
a(S'w'
I1
tp727
a(S'p1_ll'
I1
tp728
a(S'w'
I1
tp729
a(S'p2_tl'
I252
tp730
a(S'p2_ll'
I1
tp731
a(S'w'
I1
tp732
a(S'tr_tl'
I83
tp733
a(S'w'
I1
tp734
a(S'tr_ll'
I8
tp735
a(S'tr_th'
I1
tp736
a(S'w'
I1
tp737
a(S'no_np'
I1
tp738
a(S'no_ll'
I12
tp739
a(S'w'
I11002
tp740
a(S'p2_tl'
I147
tp741
a(S'p2_ll'
I1
tp742
a(S'w'
I1
tp743
a(S'tr_tl'
I254
tp744
a(S'tr_ll'
I8
tp745
a(S'tr_th'
I0
tp746
a(S'w'
I11005
tp747
a(S'p2_tl'
I83
tp748
a(S'p2_ll'
I1
tp749
a(S'w'
I1
tp750
a(S'tr_tl'
I201
tp751
a(S'w'
I1
tp752
a(S'tr_ll'
I8
tp753
a(S'w'
I1
tp754
a(S'no_np'
I2
tp755
a(S'no_ll'
I12
tp756
a(S'w'
I11004
tp757
a(S'p2_tl'
I254
tp758
a(S'p2_ll'
I1
tp759
a(S'p2_th'
I0
tp760
a(S'w'
I1
tp761
a(S'tr_tl'
I169
tp762
a(S'w'
I1
tp763
a(S'tr_ll'
I8
tp764
a(S'w'
I1
tp765
a(S'no_np'
I3
tp766
a(S'no_ll'
I12
tp767
a(S'w'
I11001
tp768
a(S'p1_tl'
I13
tp769
a(S'p1_ll'
I1
tp770
a(S'p1_th'
I1
tp771
a(S'w'
I11007
tp772
a(S'p1_tl'
I254
tp773
a(S'p1_ll'
I1
tp774
a(S'p1_th'
I0
tp775
a(S'w'
I11014
tp776
a(S'p1_tl'
I213
tp777
a(S'p1_ll'
I1
tp778
a(S'w'
I1
tp779
a(S'p2_ll'
I1
tp780
a(S'w'
I2
tp781
a(S'tr_tl'
I125
tp782
a(S'tr_ll'
I8
tp783
a(S'tr_th'
I1
tp784
a(S'w'
I1
tp785
a(S'no_np'
I2
tp786
a(S'no_ll'
I12
tp787
a(S'w'
I10991
tp788
a(S'tr_tl'
I64
tp789
a(S'w'
I1
tp790
a(S'tr_ll'
I8
tp791
a(S'w'
I11015
tp792
a(S'p1_tl'
I254
tp793
a(S'p1_ll'
I1
tp794
a(S'w'
I1
tp795
a(S'p2_tl'
I64
tp796
a(S'w'
I1
tp797
a(S'p2_ll'
I1
tp798
a(S'p2_th'
I1
tp799
a(S'w'
I1
tp800
a(S'tr_tl'
I254
tp801
a(S'tr_ll'
I8
tp802
a(S'tr_th'
I0
tp803
a(S'w'
I1
tp804
a(S'w'
I1
tp805
a(S'no_ll'
I12
tp806
a(S'w'
I10993
tp807
a(S'tr_tl'
I171
tp808
a(S'w'
I1
tp809
a(S'tr_ll'
I8
tp810
a(S'tr_th'
I1
tp811
a(S'w'
I11014
tp812
a(S'p1_tl'
I64
tp813
a(S'p1_ll'
I1
tp814
a(S'p1_th'
I1
tp815
a(S'w'
I1
tp816
a(S'p2_tl'
I171
tp817
a(S'w'
I1
tp818
a(S'p2_ll'
I1
tp819
a(S'w'
I1
tp820
a(S'tr_tl'
I64
tp821
a(S'tr_ll'
I8
tp822
a(S'w'
I1
tp823
a(S'w'
I1
tp824
a(S'no_ll'
I12
tp825
a(S'w'
I10994
tp826
a(S'p1_tl'
I83
tp827
a(S'w'
I1
tp828
a(S'p1_ll'
I1
tp829
a(S'w'
I2
tp830
a(S'tr_tl'
I254
tp831
a(S'tr_ll'
I8
tp832
a(S'tr_th'
I0
tp833
a(S'w'
I11015
tp834
a(S'p1_tl'
I125
tp835
a(S'p1_ll'
I1
tp836
a(S'w'
I1
tp837
a(S'p2_tl'
I58
tp838
a(S'w'
I1
tp839
a(S'p2_ll'
I1
tp840
a(S'p2_th'
I2
tp841
a(S'w'
I1
tp842
a(S'tr_tl'
I29
tp843
a(S'tr_ll'
I8
tp844
a(S'tr_th'
I1
tp845
a(S'w'
I1
tp846
a(S'no_np'
I1
tp847
a(S'w'
I1
tp848
a(S'no_ll'
I12
tp849
a(S'w'
I10992
tp850
a(S'p2_tl'
I197
tp851
a(S'p2_ll'
I1
tp852
a(S'p2_th'
I1
tp853
a(S'w'
I11007
tp854
a(S'p2_tl'
I103
tp855
a(S'w'
I1
tp856
a(S'p2_ll'
I1
tp857
a(S'w'
I1
tp858
a(S'no_np'
I2
tp859
a(S'w'
I1
tp860
a(S'no_ll'
I12
tp861
a(S'w'
I11004
tp862
a(S'p2_tl'
I29
tp863
a(S'w'
I1
tp864
a(S'p2_ll'
I1
tp865
a(S'w'
I1
tp866
a(S'no_np'
I3
tp867
a(S'w'
I1
tp868
a(S'no_ll'
I12
tp869
a(S'w'
I11005
tp870
a(S'tr_tl'
I254
tp871
a(S'tr_ll'
I8
tp872
a(S'tr_th'
I0
tp873
a(S'w'
I11007
tp874
a(S'tr_tl'
I226
tp875
a(S'w'
I1
tp876
a(S'tr_ll'
I8
tp877
a(S'w'
I11062
tp878
a.