(lp1
(S'clock'
p2
I1789773
tp3
a(S'fc_mo'
I1
tp4
a(S'ch_no'
I1
tp5
a(S'ch_tr'
I1
tp6
a(S'ch_p2'
I1
tp7
a(S'ch_p1'
I1
tp8
a(S'p1_cv'
I1
tp9
a(S'p2_cv'
I1
tp10
a(S'no_cv'
I1
tp11
a(S'w'
I95
tp12
a(S'p1_du'
I3
tp13
a(S'p1_cv'
I0
tp14
a(S'p1_vo'
I8
tp15
a(S'p1_sp'
I7
tp16
a(S'p1_sn'
I1
tp17
a(S'p1_ss'
I7
tp18
a(S'p1_tl'
I58
tp19
a(S'p1_ll'
I8
tp20
a(S'p1_th'
I2
tp21
a(S'w'
I1
tp22
a(S'p2_vo'
I9
tp23
a(S'p2_sp'
I7
tp24
a(S'p2_sn'
I1
tp25
a(S'p2_ss'
I7
tp26
a(S'w'
I1
tp27
a(S'p2_tl'
I213
tp28
a(S'p2_ll'
I8
tp29
a(S'w'
I1
tp30
a(S'tr_lr'
I15
tp31
a(S'tr_tl'
I171
tp32
a(S'tr_ll'
I12
tp33
a(S'tr_th'
I1
tp34
a(S'w'
I2856
tp35
a(S'p2_tl'
I169
tp36
a(S'p2_ll'
I8
tp37
a(S'w'
I2935
tp38
a(S'p2_tl'
I142
tp39
a(S'p2_ll'
I8
tp40
a(S'w'
I2949
tp41
a(S'p1_ll'
I8
tp42
a(S'w'
I1
tp43
a(S'p2_tl'
I106
tp44
a(S'p2_ll'
I8
tp45
a(S'w'
I2
tp46
a(S'tr_tl'
I213
tp47
a(S'tr_ll'
I12
tp48
a(S'tr_th'
I0
tp49
a(S'w'
I1
tp50
a(S'no_cv'
I0
tp51
a(S'no_vo'
I1
tp52
a(S'no_np'
I2
tp53
a(S'no_ll'
I0
tp54
a(S'w'
I8800
tp55
a(S'p1_tl'
I166
tp56
a(S'p1_ll'
I8
tp57
a(S'w'
I1
tp58
a(S'p2_tl'
I127
tp59
a(S'p2_ll'
I8
tp60
a(S'w'
I2
tp61
a(S'tr_tl'
I29
tp62
a(S'tr_ll'
I12
tp63
a(S'tr_th'
I1
tp64
a(S'w'
I8801
tp65
a(S'p1_tl'
I250
tp66
a(S'w'
I1
tp67
a(S'p1_ll'
I8
tp68
a(S'w'
I1
tp69
a(S'p2_tl'
I142
tp70
a(S'p2_ll'
I8
tp71
a(S'w'
I1
tp72
a(S'tr_tl'
I171
tp73
a(S'w'
I1
tp74
a(S'tr_ll'
I12
tp75
a(S'w'
I1
tp76
a(S'no_ll'
I0
tp77
a(S'w'
I4389
tp78
a(S'no_ll'
I0
tp79
a(S'w'
I4426
tp80
a(S'p2_tl'
I213
tp81
a(S'p2_ll'
I8
tp82
a(S'w'
I1
tp83
a(S'tr_ll'
I12
tp84
a(S'w'
I4385
tp85
a(S'p2_tl'
I106
tp86
a(S'p2_ll'
I8
tp87
a(S'w'
I1
tp88
a(S'tr_tl'
I213
tp89
a(S'w'
I1
tp90
a(S'tr_ll'
I12
tp91
a(S'tr_th'
I0
tp92
a(S'w'
I4401
tp93
a(S'p1_ll'
I8
tp94
a(S'w'
I2
tp95
a(S'tr_tl'
I171
tp96
a(S'w'
I1
tp97
a(S'tr_ll'
I12
tp98
a(S'tr_th'
I1
tp99
a(S'w'
I1
tp100
a(S'no_ll'
I0
tp101
a(S'w'
I4396
tp102
a(S'p2_tl'
I142
tp103
a(S'p2_ll'
I8
tp104
a(S'w'
I4409
tp105
a(S'p1_tl'
I166
tp106
a(S'p1_ll'
I8
tp107
a(S'w'
I2
tp108
a(S'p2_tl'
I127
tp109
a(S'p2_ll'
I8
tp110
a(S'w'
I1
tp111
a(S'tr_tl'
I213
tp112
a(S'tr_ll'
I12
tp113
a(S'tr_th'
I0
tp114
a(S'w'
I8801
tp115
a(S'p1_tl'
I58
tp116
a(S'w'
I1
tp117
a(S'p1_ll'
I8
tp118
a(S'w'
I1
tp119
a(S'p2_tl'
I142
tp120
a(S'p2_ll'
I8
tp121
a(S'w'
I1
tp122
a(S'tr_tl'
I171
tp123
a(S'w'
I1
tp124
a(S'tr_ll'
I12
tp125
a(S'tr_th'
I1
tp126
a(S'w'
I1
tp127
a(S'no_ll'
I0
tp128
a(S'w'
I4391
tp129
a(S'w'
I1
tp130
a(S'no_ll'
I0
tp131
a(S'w'
I4421
tp132
a(S'p2_tl'
I29
tp133
a(S'p2_ll'
I8
tp134
a(S'p2_th'
I1
tp135
a(S'w'
I2
tp136
a(S'tr_tl'
I29
tp137
a(S'tr_ll'
I12
tp138
a(S'w'
I4385
tp139
a(S'p2_tl'
I142
tp140
a(S'w'
I1
tp141
a(S'p2_ll'
I8
tp142
a(S'p2_th'
I0
tp143
a(S'w'
I1
tp144
a(S'tr_tl'
I142
tp145
a(S'tr_ll'
I12
tp146
a(S'tr_th'
I0
tp147
a(S'w'
I4402
tp148
a(S'p1_tl'
I224
tp149
a(S'p1_ll'
I8
tp150
a(S'p1_th'
I1
tp151
a(S'w'
I2
tp152
a(S'tr_tl'
I29
tp153
a(S'w'
I1
tp154
a(S'tr_ll'
I12
tp155
a(S'tr_th'
I1
tp156
a(S'w'
I1
tp157
a(S'no_ll'
I0
tp158
a(S'w'
I4396
tp159
a(S'p2_tl'
I190
tp160
a(S'p2_ll'
I8
tp161
a(S'w'
I4408
tp162
a(S'p1_tl'
I252
tp163
a(S'p1_ll'
I8
tp164
a(S'w'
I2
tp165
a(S'p2_tl'
I254
tp166
a(S'p2_ll'
I8
tp167
a(S'w'
I1
tp168
a(S'tr_tl'
I125
tp169
a(S'tr_ll'
I12
tp170
a(S'w'
I8802
tp171
a(S'p1_tl'
I58
tp172
a(S'p1_ll'
I8
tp173
a(S'p1_th'
I2
tp174
a(S'w'
I1
tp175
a(S'p2_tl'
I29
tp176
a(S'w'
I1
tp177
a(S'p2_ll'
I8
tp178
a(S'p2_th'
I1
tp179
a(S'w'
I1
tp180
a(S'tr_tl'
I29
tp181
a(S'tr_ll'
I12
tp182
a(S'w'
I1
tp183
a(S'w'
I1
tp184
a(S'no_ll'
I0
tp185
a(S'w'
I4391
tp186
a(S'w'
I1
tp187
a(S'no_ll'
I0
tp188
a(S'w'
I4424
tp189
a(S'p1_tl'
I252
tp190
a(S'p1_ll'
I8
tp191
a(S'p1_th'
I1
tp192
a(S'w'
I1
tp193
a(S'p2_tl'
I213
tp194
a(S'w'
I1
tp195
a(S'p2_ll'
I8
tp196
a(S'p2_th'
I0
tp197
a(S'w'
I1
tp198
a(S'tr_tl'
I171
tp199
a(S'tr_ll'
I12
tp200
a(S'w'
I8788
tp201
a(S'p1_tl'
I224
tp202
a(S'w'
I1
tp203
a(S'p1_ll'
I8
tp204
a(S'w'
I1
tp205
a(S'p2_tl'
I106
tp206
a(S'p2_ll'
I8
tp207
a(S'w'
I2
tp208
a(S'tr_tl'
I213
tp209
a(S'tr_ll'
I12
tp210
a(S'tr_th'
I0
tp211
a(S'w'
I1
tp212
a(S'no_ll'
I0
tp213
a(S'w'
I8801
tp214
a(S'p1_tl'
I58
tp215
a(S'p1_ll'
I8
tp216
a(S'p1_th'
I2
tp217
a(S'w'
I1
tp218
a(S'p2_tl'
I127
tp219
a(S'p2_ll'
I8
tp220
a(S'w'
I2
tp221
a(S'tr_tl'
I29
tp222
a(S'tr_ll'
I12
tp223
a(S'tr_th'
I1
tp224
a(S'w'
I8801
tp225
a(S'w'
I1
tp226
a(S'p1_ll'
I8
tp227
a(S'w'
I1
tp228
a(S'p2_tl'
I142
tp229
a(S'p2_ll'
I8
tp230
a(S'w'
I1
tp231
a(S'tr_tl'
I171
tp232
a(S'w'
I1
tp233
a(S'tr_ll'
I12
tp234
a(S'w'
I1
tp235
a(S'no_ll'
I0
tp236
a(S'w'
I4389
tp237
a(S'no_ll'
I0
tp238
a(S'w'
I4454
tp239
a(S'p1_tl'
I171
tp240
a(S'w'
I1
tp241
a(S'p1_ll'
I8
tp242
a(S'p1_th'
I1
tp243
a(S'w'
I1
tp244
a(S'p2_tl'
I64
tp245
a(S'p2_ll'
I8
tp246
a(S'p2_th'
I1
tp247
a(S'w'
I1
tp248
a(S'tr_tl'
I64
tp249
a(S'w'
I1
tp250
a(S'tr_ll'
I12
tp251
a(S'w'
I2878
tp252
a(S'p2_tl'
I254
tp253
a(S'p2_ll'
I8
tp254
a(S'p2_th'
I0
tp255
a(S'w'
I2935
tp256
a(S'p2_tl'
I213
tp257
a(S'p2_ll'
I8
tp258
a(S'w'
I2949
tp259
a(S'p1_ll'
I8
tp260
a(S'w'
I1
tp261
a(S'p2_tl'
I160
tp262
a(S'p2_ll'
I8
tp263
a(S'w'
I2
tp264
a(S'tr_tl'
I160
tp265
a(S'tr_ll'
I12
tp266
a(S'tr_th'
I0
tp267
a(S'w'
I1
tp268
a(S'no_ll'
I0
tp269
a(S'w'
I8800
tp270
a(S'p1_tl'
I252
tp271
a(S'p1_ll'
I8
tp272
a(S'w'
I1
tp273
a(S'p2_tl'
I190
tp274
a(S'p2_ll'
I8
tp275
a(S'w'
I2
tp276
a(S'tr_tl'
I213
tp277
a(S'tr_ll'
I12
tp278
a(S'w'
I8801
tp279
a(S'p1_tl'
I58
tp280
a(S'w'
I1
tp281
a(S'p1_ll'
I8
tp282
a(S'p1_th'
I2
tp283
a(S'w'
I1
tp284
a(S'p2_tl'
I213
tp285
a(S'p2_ll'
I8
tp286
a(S'w'
I1
tp287
a(S'tr_tl'
I64
tp288
a(S'w'
I1
tp289
a(S'tr_ll'
I12
tp290
a(S'tr_th'
I1
tp291
a(S'w'
I1
tp292
a(S'no_ll'
I0
tp293
a(S'w'
I4389
tp294
a(S'no_ll'
I0
tp295
a(S'w'
I4426
tp296
a(S'p2_tl'
I64
tp297
a(S'p2_ll'
I8
tp298
a(S'p2_th'
I1
tp299
a(S'w'
I1
tp300
a(S'tr_ll'
I12
tp301
a(S'w'
I4385
tp302
a(S'p2_tl'
I160
tp303
a(S'p2_ll'
I8
tp304
a(S'p2_th'
I0
tp305
a(S'w'
I1
tp306
a(S'tr_tl'
I160
tp307
a(S'w'
I1
tp308
a(S'tr_ll'
I12
tp309
a(S'tr_th'
I0
tp310
a(S'w'
I4401
tp311
a(S'p1_ll'
I8
tp312
a(S'w'
I2
tp313
a(S'tr_tl'
I64
tp314
a(S'w'
I1
tp315
a(S'tr_ll'
I12
tp316
a(S'tr_th'
I1
tp317
a(S'w'
I1
tp318
a(S'no_ll'
I0
tp319
a(S'w'
I4396
tp320
a(S'p2_tl'
I213
tp321
a(S'p2_ll'
I8
tp322
a(S'w'
I4409
tp323
a(S'p1_tl'
I252
tp324
a(S'p1_ll'
I8
tp325
a(S'p1_th'
I1
tp326
a(S'w'
I2
tp327
a(S'p2_tl'
I190
tp328
a(S'p2_ll'
I8
tp329
a(S'w'
I1
tp330
a(S'tr_tl'
I160
tp331
a(S'tr_ll'
I12
tp332
a(S'tr_th'
I0
tp333
a(S'w'
I8801
tp334
a(S'p1_tl'
I171
tp335
a(S'w'
I1
tp336
a(S'p1_ll'
I8
tp337
a(S'w'
I1
tp338
a(S'p2_tl'
I213
tp339
a(S'p2_ll'
I8
tp340
a(S'w'
I1
tp341
a(S'tr_tl'
I64
tp342
a(S'w'
I1
tp343
a(S'tr_ll'
I12
tp344
a(S'tr_th'
I1
tp345
a(S'w'
I1
tp346
a(S'no_ll'
I0
tp347
a(S'w'
I4391
tp348
a(S'w'
I1
tp349
a(S'no_ll'
I0
tp350
a(S'w'
I4421
tp351
a(S'p2_tl'
I171
tp352
a(S'p2_ll'
I8
tp353
a(S'p2_th'
I1
tp354
a(S'w'
I2
tp355
a(S'tr_tl'
I213
tp356
a(S'tr_ll'
I12
tp357
a(S'tr_th'
I0
tp358
a(S'w'
I4385
tp359
a(S'p2_tl'
I213
tp360
a(S'w'
I1
tp361
a(S'p2_ll'
I8
tp362
a(S'p2_th'
I0
tp363
a(S'w'
I1
tp364
a(S'tr_tl'
I106
tp365
a(S'tr_ll'
I12
tp366
a(S'w'
I4402
tp367
a(S'p1_tl'
I103
tp368
a(S'p1_ll'
I8
tp369
a(S'w'
I2
tp370
a(S'tr_tl'
I213
tp371
a(S'w'
I1
tp372
a(S'tr_ll'
I12
tp373
a(S'w'
I1
tp374
a(S'no_ll'
I0
tp375
a(S'w'
I4396
tp376
a(S'p2_tl'
I29
tp377
a(S'p2_ll'
I8
tp378
a(S'p2_th'
I1
tp379
a(S'w'
I4408
tp380
a(S'p1_tl'
I125
tp381
a(S'p1_ll'
I8
tp382
a(S'w'
I2
tp383
a(S'p2_tl'
I125
tp384
a(S'p2_ll'
I8
tp385
a(S'w'
I1
tp386
a(S'tr_tl'
I29
tp387
a(S'tr_ll'
I12
tp388
a(S'tr_th'
I1
tp389
a(S'w'
I8802
tp390
a(S'p1_tl'
I171
tp391
a(S'p1_ll'
I8
tp392
a(S'w'
I1
tp393
a(S'p2_tl'
I171
tp394
a(S'w'
I1
tp395
a(S'p2_ll'
I8
tp396
a(S'w'
I1
tp397
a(S'tr_tl'
I213
tp398
a(S'tr_ll'
I12
tp399
a(S'tr_th'
I0
tp400
a(S'w'
I1
tp401
a(S'w'
I1
tp402
a(S'no_ll'
I0
tp403
a(S'w'
I4391
tp404
a(S'w'
I1
tp405
a(S'no_ll'
I0
tp406
a(S'w'
I4424
tp407
a(S'p1_tl'
I125
tp408
a(S'p1_ll'
I8
tp409
a(S'w'
I1
tp410
a(S'p2_tl'
I64
tp411
a(S'w'
I1
tp412
a(S'p2_ll'
I8
tp413
a(S'w'
I1
tp414
a(S'tr_tl'
I64
tp415
a(S'tr_ll'
I12
tp416
a(S'tr_th'
I1
tp417
a(S'w'
I8789
tp418
a(S'p1_tl'
I103
tp419
a(S'p1_ll'
I8
tp420
a(S'w'
I1
tp421
a(S'p2_tl'
I160
tp422
a(S'p2_ll'
I8
tp423
a(S'p2_th'
I0
tp424
a(S'w'
I2
tp425
a(S'tr_tl'
I160
tp426
a(S'tr_ll'
I12
tp427
a(S'tr_th'
I0
tp428
a(S'w'
I1
tp429
a(S'no_ll'
I0
tp430
a(S'w'
I8801
tp431
a(S'p1_tl'
I171
tp432
a(S'p1_ll'
I8
tp433
a(S'w'
I1
tp434
a(S'p2_tl'
I190
tp435
a(S'p2_ll'
I8
tp436
a(S'w'
I2
tp437
a(S'tr_tl'
I213
tp438
a(S'tr_ll'
I12
tp439
a(S'w'
I8801
tp440
a(S'w'
I1
tp441
a(S'p1_ll'
I8
tp442
a(S'w'
I1
tp443
a(S'p2_tl'
I213
tp444
a(S'p2_ll'
I8
tp445
a(S'w'
I1
tp446
a(S'tr_tl'
I64
tp447
a(S'w'
I1
tp448
a(S'tr_ll'
I12
tp449
a(S'tr_th'
I1
tp450
a(S'w'
I1
tp451
a(S'no_ll'
I0
tp452
a(S'w'
I4389
tp453
a(S'no_ll'
I0
tp454
a(S'w'
I4504
tp455
a.