(lp1
(S'clock'
p2
I1789772
tp3
a(S'w'
I1
tp4
a(S'fc_mo'
I1
tp5
a(S'ch_no'
I1
tp6
a(S'ch_tr'
I1
tp7
a(S'ch_p2'
I1
tp8
a(S'ch_p1'
I1
tp9
a(S'w'
I3
tp10
a(S'ch_no'
I1
tp11
a(S'ch_tr'
I1
tp12
a(S'ch_p2'
I1
tp13
a(S'ch_p1'
I0
tp14
a(S'ch_no'
I1
tp15
a(S'ch_tr'
I1
tp16
a(S'ch_p2'
I1
tp17
a(S'ch_p1'
I1
tp18
a(S'w'
I1
tp19
a(S'ch_no'
I1
tp20
a(S'ch_tr'
I1
tp21
a(S'ch_p2'
I0
tp22
a(S'ch_p1'
I1
tp23
a(S'ch_no'
I1
tp24
a(S'ch_tr'
I1
tp25
a(S'ch_p2'
I1
tp26
a(S'ch_p1'
I1
tp27
a(S'w'
I3
tp28
a(S'ch_no'
I1
tp29
a(S'ch_tr'
I0
tp30
a(S'ch_p2'
I1
tp31
a(S'ch_p1'
I1
tp32
a(S'ch_no'
I1
tp33
a(S'ch_tr'
I1
tp34
a(S'ch_p2'
I1
tp35
a(S'ch_p1'
I1
tp36
a(S'w'
I3
tp37
a(S'p2_vo'
I4
tp38
a(S'p2_ss'
I4
tp39
a(S'w'
I2
tp40
a(S'p1_du'
I2
tp41
a(S'p1_vo'
I3
tp42
a(S'p1_se'
I1
tp43
a(S'p1_sp'
I1
tp44
a(S'p1_ss'
I4
tp45
a(S'w'
I2
tp46
a(S'p1_tl'
I239
tp47
a(S'w'
I1
tp48
a(S'p1_ll'
I1
tp49
a(S'w'
I1
tp50
a(S'p1_se'
I0
tp51
a(S'p1_sp'
I7
tp52
a(S'p1_sn'
I1
tp53
a(S'p1_ss'
I7
tp54
a(S'p1_vo'
I2
tp55
a(S'w'
I1
tp56
a(S'p1_se'
I1
tp57
a(S'p1_sp'
I1
tp58
a(S'p1_sn'
I0
tp59
a(S'p1_ss'
I4
tp60
a(S'w'
I1
tp61
a(S'tr_lr'
I31
tp62
a(S'w'
I2190
tp63
a(S'p1_tl'
I226
tp64
a(S'p1_ll'
I1
tp65
a(S'w'
I2
tp66
a(S'p1_se'
I0
tp67
a(S'p1_sp'
I7
tp68
a(S'p1_sn'
I1
tp69
a(S'p1_ss'
I7
tp70
a(S'w'
I1
tp71
a(S'p1_se'
I1
tp72
a(S'p1_sp'
I1
tp73
a(S'p1_sn'
I0
tp74
a(S'p1_ss'
I4
tp75
a(S'w'
I2198
tp76
a(S'p1_tl'
I213
tp77
a(S'p1_ll'
I1
tp78
a(S'w'
I2
tp79
a(S'p1_se'
I0
tp80
a(S'p1_sp'
I7
tp81
a(S'p1_sn'
I1
tp82
a(S'p1_ss'
I7
tp83
a(S'w'
I1
tp84
a(S'p1_se'
I1
tp85
a(S'p1_sp'
I1
tp86
a(S'p1_sn'
I0
tp87
a(S'p1_ss'
I4
tp88
a(S'w'
I2200
tp89
a(S'p1_se'
I0
tp90
a(S'p1_sp'
I0
tp91
a(S'p1_du'
I0
tp92
a(S'p1_vo'
I0
tp93
a(S'w'
I1
tp94
a(S'p1_se'
I1
tp95
a(S'p1_sp'
I1
tp96
a(S'w'
I19810
tp97
a(S'p2_tl'
I226
tp98
a(S'p2_ll'
I1
tp99
a(S'w'
I1
tp100
a(S'p2_du'
I2
tp101
a(S'p2_vo'
I2
tp102
a(S'p2_sp'
I7
tp103
a(S'p2_sn'
I1
tp104
a(S'p2_ss'
I7
tp105
a(S'w'
I4
tp106
a(S'p1_tl'
I29
tp107
a(S'p1_ll'
I1
tp108
a(S'p1_th'
I1
tp109
a(S'w'
I1
tp110
a(S'p1_se'
I0
tp111
a(S'p1_sp'
I7
tp112
a(S'p1_sn'
I1
tp113
a(S'p1_ss'
I7
tp114
a(S'p1_du'
I2
tp115
a(S'p1_vo'
I2
tp116
a(S'w'
I1
tp117
a(S'p1_se'
I1
tp118
a(S'p1_sp'
I1
tp119
a(S'p1_sn'
I0
tp120
a(S'p1_ss'
I4
tp121
a(S'w'
I3
tp122
a(S'tr_tl'
I29
tp123
a(S'tr_ll'
I1
tp124
a(S'tr_th'
I1
tp125
a(S'w'
I6592
tp126
a(S'p2_tl'
I160
tp127
a(S'w'
I1
tp128
a(S'p2_ll'
I1
tp129
a(S'w'
I4
tp130
a(S'p1_tl'
I190
tp131
a(S'w'
I1
tp132
a(S'p1_ll'
I1
tp133
a(S'p1_th'
I0
tp134
a(S'w'
I1
tp135
a(S'p1_se'
I0
tp136
a(S'p1_sp'
I7
tp137
a(S'p1_sn'
I1
tp138
a(S'p1_ss'
I7
tp139
a(S'w'
I1
tp140
a(S'p1_se'
I1
tp141
a(S'p1_sp'
I1
tp142
a(S'p1_sn'
I0
tp143
a(S'p1_ss'
I4
tp144
a(S'w'
I6597
tp145
a(S'p2_du'
I0
tp146
a(S'p2_vo'
I4
tp147
a(S'p2_sp'
I0
tp148
a(S'p2_sn'
I0
tp149
a(S'p2_ss'
I4
tp150
a(S'w'
I6603
tp151
a(S'w'
I1
tp152
a(S'p2_ll'
I1
tp153
a(S'w'
I1
tp154
a(S'p2_du'
I2
tp155
a(S'p2_vo'
I2
tp156
a(S'p2_sp'
I7
tp157
a(S'p2_sn'
I1
tp158
a(S'p2_ss'
I7
tp159
a(S'w'
I3
tp160
a(S'p1_tl'
I190
tp161
a(S'w'
I1
tp162
a(S'p1_ll'
I1
tp163
a(S'w'
I1
tp164
a(S'p1_se'
I0
tp165
a(S'p1_sp'
I7
tp166
a(S'p1_sn'
I1
tp167
a(S'p1_ss'
I7
tp168
a(S'w'
I1
tp169
a(S'p1_se'
I1
tp170
a(S'p1_sp'
I1
tp171
a(S'p1_sn'
I0
tp172
a(S'p1_ss'
I4
tp173
a(S'w'
I3
tp174
a(S'tr_ll'
I1
tp175
a(S'w'
I6596
tp176
a(S'p2_ll'
I1
tp177
a(S'w'
I5
tp178
a(S'p1_tl'
I190
tp179
a(S'p1_ll'
I1
tp180
a(S'w'
I1
tp181
a(S'p1_se'
I0
tp182
a(S'p1_sp'
I7
tp183
a(S'p1_sn'
I1
tp184
a(S'p1_ss'
I7
tp185
a(S'w'
I1
tp186
a(S'p1_se'
I1
tp187
a(S'p1_sp'
I1
tp188
a(S'p1_sn'
I0
tp189
a(S'p1_ss'
I4
tp190
a(S'w'
I3
tp191
a(S'tr_ll'
I1
tp192
a(S'w'
I8793
tp193
a(S'p2_tl'
I169
tp194
a(S'w'
I1
tp195
a(S'p2_ll'
I1
tp196
a(S'w'
I4
tp197
a(S'p1_tl'
I213
tp198
a(S'w'
I1
tp199
a(S'p1_ll'
I1
tp200
a(S'w'
I1
tp201
a(S'p1_se'
I0
tp202
a(S'p1_sp'
I7
tp203
a(S'p1_sn'
I1
tp204
a(S'p1_ss'
I7
tp205
a(S'w'
I1
tp206
a(S'p1_se'
I1
tp207
a(S'p1_sp'
I1
tp208
a(S'p1_sn'
I0
tp209
a(S'p1_ss'
I4
tp210
a(S'w'
I1
tp211
a(S'tr_tl'
I254
tp212
a(S'w'
I1
tp213
a(S'tr_ll'
I1
tp214
a(S'tr_th'
I0
tp215
a(S'w'
I8796
tp216
a(S'p2_tl'
I190
tp217
a(S'w'
I1
tp218
a(S'p2_ll'
I1
tp219
a(S'w'
I4
tp220
a(S'p1_tl'
I226
tp221
a(S'w'
I1
tp222
a(S'p1_ll'
I1
tp223
a(S'w'
I1
tp224
a(S'p1_se'
I0
tp225
a(S'p1_sp'
I7
tp226
a(S'p1_sn'
I1
tp227
a(S'p1_ss'
I7
tp228
a(S'w'
I1
tp229
a(S'p1_se'
I1
tp230
a(S'p1_sp'
I1
tp231
a(S'p1_sn'
I0
tp232
a(S'p1_ss'
I4
tp233
a(S'w'
I1
tp234
a(S'tr_tl'
I226
tp235
a(S'w'
I1
tp236
a(S'tr_ll'
I1
tp237
a(S'w'
I8797
tp238
a(S'p2_tl'
I213
tp239
a(S'p2_ll'
I1
tp240
a(S'w'
I5
tp241
a(S'p1_tl'
I29
tp242
a(S'p1_ll'
I1
tp243
a(S'p1_th'
I1
tp244
a(S'w'
I1
tp245
a(S'p1_se'
I0
tp246
a(S'p1_sp'
I7
tp247
a(S'p1_sn'
I1
tp248
a(S'p1_ss'
I7
tp249
a(S'w'
I1
tp250
a(S'p1_se'
I1
tp251
a(S'p1_sp'
I1
tp252
a(S'p1_sn'
I0
tp253
a(S'p1_ss'
I4
tp254
a(S'w'
I3
tp255
a(S'tr_tl'
I213
tp256
a(S'tr_ll'
I1
tp257
a(S'w'
I6594
tp258
a(S'p1_tl'
I83
tp259
a(S'p1_ll'
I1
tp260
a(S'w'
I2
tp261
a(S'p1_se'
I0
tp262
a(S'p1_sp'
I7
tp263
a(S'p1_sn'
I1
tp264
a(S'p1_ss'
I7
tp265
a(S'w'
I1
tp266
a(S'p1_se'
I1
tp267
a(S'p1_sp'
I1
tp268
a(S'p1_sn'
I0
tp269
a(S'p1_ss'
I4
tp270
a(S'w'
I6601
tp271
a(S'tr_tl'
I29
tp272
a(S'tr_ll'
I1
tp273
a(S'tr_th'
I1
tp274
a(S'w'
I6604
tp275
a(S'p1_tl'
I83
tp276
a(S'p1_ll'
I1
tp277
a(S'w'
I2
tp278
a(S'p1_se'
I0
tp279
a(S'p1_sp'
I7
tp280
a(S'p1_sn'
I1
tp281
a(S'p1_ss'
I7
tp282
a(S'w'
I1
tp283
a(S'p1_se'
I1
tp284
a(S'p1_sp'
I1
tp285
a(S'p1_sn'
I0
tp286
a(S'p1_ss'
I4
tp287
a(S'w'
I6601
tp288
a(S'p2_du'
I0
tp289
a(S'p2_vo'
I4
tp290
a(S'p2_sp'
I0
tp291
a(S'p2_sn'
I0
tp292
a(S'p2_ss'
I4
tp293
a(S'w'
I3
tp294
a(S'p1_tl'
I171
tp295
a(S'p1_ll'
I1
tp296
a(S'w'
I2
tp297
a(S'p1_se'
I0
tp298
a(S'p1_sp'
I7
tp299
a(S'p1_sn'
I1
tp300
a(S'p1_ss'
I7
tp301
a(S'w'
I1
tp302
a(S'p1_se'
I1
tp303
a(S'p1_sp'
I1
tp304
a(S'p1_sn'
I0
tp305
a(S'p1_ss'
I4
tp306
a(S'w'
I2
tp307
a(S'tr_tl'
I171
tp308
a(S'w'
I1
tp309
a(S'tr_ll'
I1
tp310
a(S'w'
I26406
tp311
a(S'tr_lr'
I0
tp312
a(S'w'
I1
tp313
a(S'p1_cv'
I1
tp314
a(S'p1_vo'
I0
tp315
a(S'p2_du'
I2
tp316
a(S'p2_cv'
I1
tp317
a(S'p2_vo'
I0
tp318
a(S'w'
I36871
tp319
a.