(lp1
(S'clock'
p2
I1789772
tp3
a(S'w'
I1
tp4
a(S'fc_mo'
I1
tp5
a(S'ch_no'
I1
tp6
a(S'ch_tr'
I1
tp7
a(S'ch_p2'
I1
tp8
a(S'ch_p1'
I1
tp9
a(S'w'
I6
tp10
a(S'ch_no'
I1
tp11
a(S'ch_tr'
I0
tp12
a(S'ch_p2'
I1
tp13
a(S'ch_p1'
I1
tp14
a(S'w'
I1
tp15
a(S'ch_no'
I1
tp16
a(S'ch_tr'
I1
tp17
a(S'ch_p2'
I1
tp18
a(S'ch_p1'
I1
tp19
a(S'w'
I2
tp20
a(S'p2_tl'
I213
tp21
a(S'p2_ll'
I1
tp22
a(S'w'
I2
tp23
a(S'p2_du'
I2
tp24
a(S'p2_vo'
I2
tp25
a(S'p2_sp'
I7
tp26
a(S'p2_sn'
I1
tp27
a(S'p2_ss'
I7
tp28
a(S'w'
I2
tp29
a(S'p2_cv'
I1
tp30
a(S'p2_vo'
I0
tp31
a(S'w'
I3
tp32
a(S'p1_tl'
I64
tp33
a(S'p1_ll'
I1
tp34
a(S'p1_th'
I1
tp35
a(S'w'
I1
tp36
a(S'p1_sp'
I7
tp37
a(S'p1_sn'
I1
tp38
a(S'p1_ss'
I7
tp39
a(S'p1_du'
I2
tp40
a(S'p1_vo'
I2
tp41
a(S'w'
I2
tp42
a(S'p1_cv'
I1
tp43
a(S'p1_vo'
I0
tp44
a(S'w'
I2
tp45
a(S'tr_lr'
I31
tp46
a(S'w'
I1
tp47
a(S'tr_tl'
I124
tp48
a(S'tr_ll'
I1
tp49
a(S'tr_th'
I1
tp50
a(S'w'
I4
tp51
a(S'no_cv'
I1
tp52
a(S'no_vo'
I12
tp53
a(S'no_np'
I12
tp54
a(S'no_ll'
I3
tp55
a(S'w'
I713
tp56
a(S'p2_vo'
I8
tp57
a(S'w'
I2
tp58
a(S'p1_vo'
I8
tp59
a(S'w'
I732
tp60
a(S'p2_vo'
I7
tp61
a(S'w'
I2
tp62
a(S'p1_vo'
I7
tp63
a(S'w'
I732
tp64
a(S'p2_vo'
I6
tp65
a(S'w'
I2
tp66
a(S'p1_vo'
I6
tp67
a(S'w'
I732
tp68
a(S'p2_vo'
I5
tp69
a(S'w'
I2
tp70
a(S'p1_vo'
I5
tp71
a(S'w'
I1465
tp72
a(S'p2_vo'
I4
tp73
a(S'w'
I2
tp74
a(S'p1_vo'
I4
tp75
a(S'w'
I1466
tp76
a(S'p2_vo'
I0
tp77
a(S'w'
I2
tp78
a(S'p1_vo'
I0
tp79
a(S'w'
I2932
tp80
a(S'w'
I1
tp81
a(S'p2_ll'
I1
tp82
a(S'w'
I1
tp83
a(S'p2_cv'
I0
tp84
a(S'p2_vo'
I2
tp85
a(S'w'
I2
tp86
a(S'p2_cv'
I1
tp87
a(S'p2_vo'
I0
tp88
a(S'w'
I3
tp89
a(S'p1_ll'
I1
tp90
a(S'w'
I2
tp91
a(S'p1_cv'
I0
tp92
a(S'p1_vo'
I2
tp93
a(S'w'
I1
tp94
a(S'p1_cv'
I1
tp95
a(S'p1_vo'
I0
tp96
a(S'w'
I4
tp97
a(S'no_np'
I3
tp98
a(S'no_ll'
I3
tp99
a(S'w'
I721
tp100
a(S'p2_vo'
I8
tp101
a(S'w'
I2
tp102
a(S'p1_vo'
I8
tp103
a(S'w'
I732
tp104
a(S'p2_vo'
I7
tp105
a(S'w'
I2
tp106
a(S'p1_vo'
I7
tp107
a(S'w'
I731
tp108
a(S'p2_vo'
I6
tp109
a(S'w'
I2
tp110
a(S'p1_vo'
I6
tp111
a(S'w'
I732
tp112
a(S'p2_vo'
I5
tp113
a(S'w'
I2
tp114
a(S'p1_vo'
I5
tp115
a(S'w'
I3
tp116
a(S'no_vo'
I0
tp117
a(S'no_nl'
I1
tp118
a(S'no_np'
I4
tp119
a(S'no_ll'
I4
tp120
a(S'w'
I1463
tp121
a(S'p2_vo'
I4
tp122
a(S'w'
I2
tp123
a(S'p1_vo'
I4
tp124
a(S'w'
I1465
tp125
a(S'p2_vo'
I0
tp126
a(S'w'
I2
tp127
a(S'p1_vo'
I0
tp128
a(S'w'
I3
tp129
a(S'no_vo'
I12
tp130
a(S'no_nl'
I0
tp131
a(S'no_np'
I3
tp132
a(S'no_ll'
I3
tp133
a(S'w'
I2930
tp134
a(S'w'
I1
tp135
a(S'p2_ll'
I1
tp136
a(S'w'
I1
tp137
a(S'p2_cv'
I0
tp138
a(S'p2_vo'
I2
tp139
a(S'w'
I2
tp140
a(S'p2_cv'
I1
tp141
a(S'p2_vo'
I0
tp142
a(S'w'
I3
tp143
a(S'p1_ll'
I1
tp144
a(S'w'
I2
tp145
a(S'p1_cv'
I0
tp146
a(S'p1_vo'
I2
tp147
a(S'w'
I1
tp148
a(S'p1_cv'
I1
tp149
a(S'p1_vo'
I0
tp150
a(S'w'
I3
tp151
a(S'tr_tl'
I254
tp152
a(S'tr_ll'
I1
tp153
a(S'tr_th'
I0
tp154
a(S'w'
I4
tp155
a(S'no_ll'
I11
tp156
a(S'w'
I717
tp157
a(S'p2_vo'
I8
tp158
a(S'w'
I2
tp159
a(S'p1_vo'
I8
tp160
a(S'w'
I732
tp161
a(S'p2_vo'
I7
tp162
a(S'w'
I2
tp163
a(S'p1_vo'
I7
tp164
a(S'w'
I732
tp165
a(S'p2_vo'
I6
tp166
a(S'w'
I2
tp167
a(S'p1_vo'
I6
tp168
a(S'w'
I732
tp169
a(S'p2_vo'
I5
tp170
a(S'w'
I2
tp171
a(S'p1_vo'
I5
tp172
a(S'w'
I1465
tp173
a(S'p2_vo'
I4
tp174
a(S'w'
I2
tp175
a(S'p1_vo'
I4
tp176
a(S'w'
I1466
tp177
a(S'p2_vo'
I0
tp178
a(S'w'
I2
tp179
a(S'p1_vo'
I0
tp180
a(S'w'
I2934
tp181
a(S'p2_du'
I0
tp182
a(S'p2_cv'
I0
tp183
a(S'p2_vo'
I4
tp184
a(S'p2_sp'
I0
tp185
a(S'p2_sn'
I0
tp186
a(S'p2_ss'
I4
tp187
a(S'w'
I2
tp188
a(S'p2_du'
I2
tp189
a(S'p2_cv'
I1
tp190
a(S'p2_vo'
I0
tp191
a(S'p2_sp'
I7
tp192
a(S'p2_sn'
I1
tp193
a(S'p2_ss'
I7
tp194
a(S'w'
I3
tp195
a(S'p1_tl'
I124
tp196
a(S'p1_ll'
I1
tp197
a(S'w'
I1
tp198
a(S'p1_cv'
I0
tp199
a(S'p1_vo'
I2
tp200
a(S'w'
I2
tp201
a(S'p1_cv'
I1
tp202
a(S'p1_vo'
I0
tp203
a(S'w'
I3
tp204
a(S'w'
I1
tp205
a(S'no_ll'
I3
tp206
a(S'w'
I723
tp207
a(S'p1_vo'
I8
tp208
a(S'w'
I734
tp209
a(S'p1_vo'
I7
tp210
a(S'w'
I733
tp211
a(S'p1_vo'
I6
tp212
a(S'w'
I734
tp213
a(S'p1_vo'
I5
tp214
a(S'w'
I3
tp215
a(S'no_vo'
I0
tp216
a(S'no_nl'
I1
tp217
a(S'no_np'
I4
tp218
a(S'no_ll'
I4
tp219
a(S'w'
I1462
tp220
a(S'w'
I1
tp221
a(S'p2_ll'
I1
tp222
a(S'w'
I1
tp223
a(S'p2_cv'
I0
tp224
a(S'p2_vo'
I2
tp225
a(S'w'
I2
tp226
a(S'p2_cv'
I1
tp227
a(S'p2_vo'
I0
tp228
a(S'w'
I3
tp229
a(S'p1_tl'
I64
tp230
a(S'p1_ll'
I1
tp231
a(S'w'
I2
tp232
a(S'p1_cv'
I0
tp233
a(S'p1_vo'
I2
tp234
a(S'w'
I1
tp235
a(S'p1_cv'
I1
tp236
a(S'p1_vo'
I0
tp237
a(S'w'
I2
tp238
a(S'tr_tl'
I190
tp239
a(S'tr_ll'
I1
tp240
a(S'w'
I723
tp241
a(S'p2_vo'
I8
tp242
a(S'w'
I2
tp243
a(S'p1_vo'
I8
tp244
a(S'w'
I731
tp245
a(S'p2_vo'
I7
tp246
a(S'w'
I2
tp247
a(S'p1_vo'
I7
tp248
a(S'w'
I3
tp249
a(S'no_vo'
I12
tp250
a(S'no_nl'
I0
tp251
a(S'no_np'
I3
tp252
a(S'no_ll'
I3
tp253
a(S'w'
I729
tp254
a(S'p2_vo'
I6
tp255
a(S'w'
I2
tp256
a(S'p1_vo'
I6
tp257
a(S'w'
I732
tp258
a(S'p2_vo'
I5
tp259
a(S'w'
I2
tp260
a(S'p1_vo'
I5
tp261
a(S'w'
I1466
tp262
a(S'p2_du'
I0
tp263
a(S'p2_cv'
I0
tp264
a(S'p2_vo'
I4
tp265
a(S'p2_sp'
I0
tp266
a(S'p2_sn'
I0
tp267
a(S'p2_ss'
I4
tp268
a(S'w'
I2
tp269
a(S'p2_du'
I2
tp270
a(S'p2_cv'
I1
tp271
a(S'p2_vo'
I0
tp272
a(S'p2_sp'
I7
tp273
a(S'p2_sn'
I1
tp274
a(S'p2_ss'
I7
tp275
a(S'w'
I2
tp276
a(S'p1_vo'
I4
tp277
a(S'w'
I4
tp278
a(S'no_np'
I12
tp279
a(S'no_ll'
I3
tp280
a(S'w'
I1461
tp281
a(S'p1_vo'
I0
tp282
a(S'w'
I2934
tp283
a(S'p2_ll'
I1
tp284
a(S'w'
I1
tp285
a(S'p2_cv'
I0
tp286
a(S'p2_vo'
I2
tp287
a(S'w'
I2
tp288
a(S'p2_cv'
I1
tp289
a(S'p2_vo'
I0
tp290
a(S'w'
I3
tp291
a(S'p1_ll'
I1
tp292
a(S'w'
I2
tp293
a(S'p1_cv'
I0
tp294
a(S'p1_vo'
I2
tp295
a(S'w'
I1
tp296
a(S'p1_cv'
I1
tp297
a(S'p1_vo'
I0
tp298
a(S'w'
I724
tp299
a(S'p2_vo'
I8
tp300
a(S'w'
I2
tp301
a(S'p1_vo'
I8
tp302
a(S'w'
I732
tp303
a(S'p2_vo'
I7
tp304
a(S'w'
I2
tp305
a(S'p1_vo'
I7
tp306
a(S'w'
I732
tp307
a(S'p2_vo'
I6
tp308
a(S'w'
I2
tp309
a(S'p1_vo'
I6
tp310
a(S'w'
I731
tp311
a(S'p2_vo'
I5
tp312
a(S'w'
I2
tp313
a(S'p1_vo'
I5
tp314
a(S'w'
I1466
tp315
a(S'p2_vo'
I4
tp316
a(S'w'
I2
tp317
a(S'p1_vo'
I4
tp318
a(S'w'
I6
tp319
a(S'no_np'
I3
tp320
a(S'no_ll'
I3
tp321
a(S'w'
I1460
tp322
a(S'p2_vo'
I0
tp323
a(S'w'
I2
tp324
a(S'p1_vo'
I0
tp325
a(S'w'
I1470
tp326
a(S'no_vo'
I0
tp327
a(S'no_nl'
I1
tp328
a(S'no_np'
I4
tp329
a(S'no_ll'
I4
tp330
a(S'w'
I1465
tp331
a(S'p1_tl'
I124
tp332
a(S'w'
I1
tp333
a(S'p1_ll'
I1
tp334
a(S'w'
I1
tp335
a(S'p1_cv'
I0
tp336
a(S'p1_vo'
I2
tp337
a(S'w'
I2
tp338
a(S'p1_cv'
I1
tp339
a(S'p1_vo'
I0
tp340
a(S'w'
I730
tp341
a(S'p1_vo'
I8
tp342
a(S'w'
I733
tp343
a(S'p1_vo'
I7
tp344
a(S'w'
I3
tp345
a(S'no_vo'
I12
tp346
a(S'no_nl'
I0
tp347
a(S'no_np'
I3
tp348
a(S'no_ll'
I3
tp349
a(S'w'
I731
tp350
a(S'p1_vo'
I6
tp351
a(S'w'
I734
tp352
a(S'p1_vo'
I5
tp353
a(S'w'
I1467
tp354
a(S'p2_ll'
I1
tp355
a(S'w'
I1
tp356
a(S'p2_cv'
I0
tp357
a(S'p2_vo'
I2
tp358
a(S'w'
I2
tp359
a(S'p2_cv'
I1
tp360
a(S'p2_vo'
I0
tp361
a(S'w'
I3
tp362
a(S'p1_tl'
I64
tp363
a(S'p1_ll'
I1
tp364
a(S'w'
I2
tp365
a(S'p1_cv'
I0
tp366
a(S'p1_vo'
I2
tp367
a(S'w'
I1
tp368
a(S'p1_cv'
I1
tp369
a(S'p1_vo'
I0
tp370
a(S'w'
I2
tp371
a(S'tr_tl'
I254
tp372
a(S'tr_ll'
I1
tp373
a(S'w'
I4
tp374
a(S'no_ll'
I11
tp375
a(S'w'
I717
tp376
a(S'p2_vo'
I8
tp377
a(S'w'
I2
tp378
a(S'p1_vo'
I8
tp379
a(S'w'
I732
tp380
a(S'p2_vo'
I7
tp381
a(S'w'
I2
tp382
a(S'p1_vo'
I7
tp383
a(S'w'
I732
tp384
a(S'p2_vo'
I6
tp385
a(S'w'
I2
tp386
a(S'p1_vo'
I6
tp387
a(S'w'
I732
tp388
a(S'p2_vo'
I5
tp389
a(S'w'
I2
tp390
a(S'p1_vo'
I5
tp391
a(S'w'
I1465
tp392
a(S'p2_vo'
I4
tp393
a(S'w'
I2
tp394
a(S'p1_tl'
I124
tp395
a(S'w'
I1
tp396
a(S'p1_ll'
I1
tp397
a(S'w'
I1
tp398
a(S'p1_cv'
I0
tp399
a(S'p1_vo'
I2
tp400
a(S'w'
I2
tp401
a(S'p1_cv'
I1
tp402
a(S'p1_vo'
I0
tp403
a(S'w'
I730
tp404
a(S'p1_vo'
I8
tp405
a(S'w'
I732
tp406
a(S'p2_vo'
I0
tp407
a(S'w'
I2
tp408
a(S'p1_vo'
I7
tp409
a(S'w'
I734
tp410
a(S'p1_vo'
I6
tp411
a(S'w'
I733
tp412
a(S'p1_vo'
I5
tp413
a(S'w'
I1465
tp414
a(S'w'
I1
tp415
a(S'p2_ll'
I1
tp416
a(S'w'
I1
tp417
a(S'p2_cv'
I0
tp418
a(S'p2_vo'
I2
tp419
a(S'w'
I2
tp420
a(S'p2_cv'
I1
tp421
a(S'p2_vo'
I0
tp422
a(S'w'
I3
tp423
a(S'p1_tl'
I64
tp424
a(S'p1_ll'
I1
tp425
a(S'w'
I2
tp426
a(S'p1_cv'
I0
tp427
a(S'p1_vo'
I2
tp428
a(S'w'
I1
tp429
a(S'p1_cv'
I1
tp430
a(S'p1_vo'
I0
tp431
a(S'w'
I2
tp432
a(S'tr_tl'
I190
tp433
a(S'tr_ll'
I1
tp434
a(S'w'
I4
tp435
a(S'no_ll'
I3
tp436
a(S'w'
I719
tp437
a(S'p2_vo'
I8
tp438
a(S'w'
I2
tp439
a(S'p1_vo'
I8
tp440
a(S'w'
I732
tp441
a(S'p2_vo'
I7
tp442
a(S'w'
I2
tp443
a(S'p1_vo'
I7
tp444
a(S'w'
I731
tp445
a(S'p2_vo'
I6
tp446
a(S'w'
I2
tp447
a(S'p1_vo'
I6
tp448
a(S'w'
I732
tp449
a(S'p2_vo'
I5
tp450
a(S'w'
I2
tp451
a(S'p1_vo'
I5
tp452
a(S'w'
I3
tp453
a(S'no_vo'
I0
tp454
a(S'no_nl'
I1
tp455
a(S'no_np'
I4
tp456
a(S'no_ll'
I4
tp457
a(S'w'
I1463
tp458
a(S'p2_vo'
I4
tp459
a(S'w'
I2
tp460
a(S'p1_vo'
I4
tp461
a(S'w'
I1465
tp462
a(S'p2_vo'
I0
tp463
a(S'w'
I2
tp464
a(S'p1_vo'
I0
tp465
a(S'w'
I3
tp466
a(S'no_vo'
I12
tp467
a(S'no_nl'
I0
tp468
a(S'no_np'
I3
tp469
a(S'no_ll'
I3
tp470
a(S'w'
I2930
tp471
a(S'p2_tl'
I226
tp472
a(S'w'
I1
tp473
a(S'p2_ll'
I1
tp474
a(S'w'
I1
tp475
a(S'p2_cv'
I0
tp476
a(S'p2_vo'
I2
tp477
a(S'w'
I2
tp478
a(S'p2_cv'
I1
tp479
a(S'p2_vo'
I0
tp480
a(S'w'
I3
tp481
a(S'p1_tl'
I83
tp482
a(S'p1_ll'
I1
tp483
a(S'w'
I2
tp484
a(S'p1_cv'
I0
tp485
a(S'p1_vo'
I2
tp486
a(S'w'
I1
tp487
a(S'p1_cv'
I1
tp488
a(S'p1_vo'
I0
tp489
a(S'w'
I3
tp490
a(S'tr_tl'
I171
tp491
a(S'tr_ll'
I1
tp492
a(S'tr_th'
I1
tp493
a(S'w'
I5
tp494
a(S'no_np'
I12
tp495
a(S'no_ll'
I3
tp496
a(S'w'
I716
tp497
a(S'p2_vo'
I8
tp498
a(S'w'
I2
tp499
a(S'p1_vo'
I8
tp500
a(S'w'
I732
tp501
a(S'p2_vo'
I7
tp502
a(S'w'
I2
tp503
a(S'p1_vo'
I7
tp504
a(S'w'
I732
tp505
a(S'p2_vo'
I6
tp506
a(S'w'
I2
tp507
a(S'p1_vo'
I6
tp508
a(S'w'
I732
tp509
a(S'p2_vo'
I5
tp510
a(S'w'
I2
tp511
a(S'p1_vo'
I5
tp512
a(S'w'
I1465
tp513
a(S'p2_vo'
I4
tp514
a(S'w'
I2
tp515
a(S'p1_vo'
I4
tp516
a(S'w'
I1466
tp517
a(S'p2_vo'
I0
tp518
a(S'w'
I2
tp519
a(S'p1_vo'
I0
tp520
a(S'w'
I2932
tp521
a(S'w'
I1
tp522
a(S'p2_ll'
I1
tp523
a(S'w'
I1
tp524
a(S'p2_cv'
I0
tp525
a(S'p2_vo'
I2
tp526
a(S'w'
I2
tp527
a(S'p2_cv'
I1
tp528
a(S'p2_vo'
I0
tp529
a(S'w'
I3
tp530
a(S'p1_ll'
I1
tp531
a(S'w'
I2
tp532
a(S'p1_cv'
I0
tp533
a(S'p1_vo'
I2
tp534
a(S'w'
I1
tp535
a(S'p1_cv'
I1
tp536
a(S'p1_vo'
I0
tp537
a(S'w'
I4
tp538
a(S'no_np'
I3
tp539
a(S'no_ll'
I3
tp540
a(S'w'
I721
tp541
a(S'p2_vo'
I8
tp542
a(S'w'
I2
tp543
a(S'p1_vo'
I8
tp544
a(S'w'
I732
tp545
a(S'p2_vo'
I7
tp546
a(S'w'
I2
tp547
a(S'p1_vo'
I7
tp548
a(S'w'
I731
tp549
a(S'p2_vo'
I6
tp550
a(S'w'
I2
tp551
a(S'p1_vo'
I6
tp552
a(S'w'
I732
tp553
a(S'p2_vo'
I5
tp554
a(S'w'
I2
tp555
a(S'p1_vo'
I5
tp556
a(S'w'
I3
tp557
a(S'no_vo'
I0
tp558
a(S'no_nl'
I1
tp559
a(S'no_np'
I4
tp560
a(S'no_ll'
I4
tp561
a(S'w'
I1463
tp562
a(S'p2_vo'
I4
tp563
a(S'w'
I2
tp564
a(S'p1_vo'
I4
tp565
a(S'w'
I1465
tp566
a(S'p2_vo'
I0
tp567
a(S'w'
I2
tp568
a(S'p1_vo'
I0
tp569
a(S'w'
I3
tp570
a(S'no_vo'
I12
tp571
a(S'no_nl'
I0
tp572
a(S'no_np'
I3
tp573
a(S'no_ll'
I3
tp574
a(S'w'
I2930
tp575
a(S'w'
I1
tp576
a(S'p2_ll'
I1
tp577
a(S'w'
I1
tp578
a(S'p2_cv'
I0
tp579
a(S'p2_vo'
I2
tp580
a(S'w'
I2
tp581
a(S'p2_cv'
I1
tp582
a(S'p2_vo'
I0
tp583
a(S'w'
I3
tp584
a(S'p1_ll'
I1
tp585
a(S'w'
I2
tp586
a(S'p1_cv'
I0
tp587
a(S'p1_vo'
I2
tp588
a(S'w'
I1
tp589
a(S'p1_cv'
I1
tp590
a(S'p1_vo'
I0
tp591
a(S'w'
I3
tp592
a(S'tr_tl'
I29
tp593
a(S'tr_ll'
I1
tp594
a(S'w'
I4
tp595
a(S'no_ll'
I11
tp596
a(S'w'
I717
tp597
a(S'p2_vo'
I8
tp598
a(S'w'
I2
tp599
a(S'p1_vo'
I8
tp600
a(S'w'
I732
tp601
a(S'p2_vo'
I7
tp602
a(S'w'
I2
tp603
a(S'p1_vo'
I7
tp604
a(S'w'
I732
tp605
a(S'p2_vo'
I6
tp606
a(S'w'
I2
tp607
a(S'p1_vo'
I6
tp608
a(S'w'
I732
tp609
a(S'p2_vo'
I5
tp610
a(S'w'
I2
tp611
a(S'p1_vo'
I5
tp612
a(S'w'
I1465
tp613
a(S'p2_vo'
I4
tp614
a(S'w'
I2
tp615
a(S'p1_vo'
I4
tp616
a(S'w'
I1466
tp617
a(S'p2_vo'
I0
tp618
a(S'w'
I2
tp619
a(S'p1_vo'
I0
tp620
a(S'w'
I2934
tp621
a(S'p2_du'
I0
tp622
a(S'p2_cv'
I0
tp623
a(S'p2_vo'
I4
tp624
a(S'p2_sp'
I0
tp625
a(S'p2_sn'
I0
tp626
a(S'p2_ss'
I4
tp627
a(S'w'
I2
tp628
a(S'p2_du'
I2
tp629
a(S'p2_cv'
I1
tp630
a(S'p2_vo'
I0
tp631
a(S'p2_sp'
I7
tp632
a(S'p2_sn'
I1
tp633
a(S'p2_ss'
I7
tp634
a(S'w'
I3
tp635
a(S'p1_tl'
I171
tp636
a(S'p1_ll'
I1
tp637
a(S'w'
I1
tp638
a(S'p1_cv'
I0
tp639
a(S'p1_vo'
I2
tp640
a(S'w'
I2
tp641
a(S'p1_cv'
I1
tp642
a(S'p1_vo'
I0
tp643
a(S'w'
I3
tp644
a(S'w'
I1
tp645
a(S'no_ll'
I3
tp646
a(S'w'
I723
tp647
a(S'p1_vo'
I8
tp648
a(S'w'
I734
tp649
a(S'p1_vo'
I7
tp650
a(S'w'
I733
tp651
a(S'p1_vo'
I6
tp652
a(S'w'
I734
tp653
a(S'p1_vo'
I5
tp654
a(S'w'
I3
tp655
a(S'no_vo'
I0
tp656
a(S'no_nl'
I1
tp657
a(S'no_np'
I4
tp658
a(S'no_ll'
I4
tp659
a(S'w'
I1462
tp660
a(S'w'
I1
tp661
a(S'p2_ll'
I1
tp662
a(S'w'
I1
tp663
a(S'p2_cv'
I0
tp664
a(S'p2_vo'
I2
tp665
a(S'w'
I2
tp666
a(S'p2_cv'
I1
tp667
a(S'p2_vo'
I0
tp668
a(S'w'
I3
tp669
a(S'p1_tl'
I83
tp670
a(S'p1_ll'
I1
tp671
a(S'w'
I2
tp672
a(S'p1_cv'
I0
tp673
a(S'p1_vo'
I2
tp674
a(S'w'
I1
tp675
a(S'p1_cv'
I1
tp676
a(S'p1_vo'
I0
tp677
a(S'w'
I2
tp678
a(S'tr_tl'
I213
tp679
a(S'tr_ll'
I1
tp680
a(S'tr_th'
I0
tp681
a(S'w'
I723
tp682
a(S'p2_vo'
I8
tp683
a(S'w'
I2
tp684
a(S'p1_vo'
I8
tp685
a(S'w'
I731
tp686
a(S'p2_vo'
I7
tp687
a(S'w'
I2
tp688
a(S'p1_vo'
I7
tp689
a(S'w'
I3
tp690
a(S'no_vo'
I12
tp691
a(S'no_nl'
I0
tp692
a(S'no_np'
I3
tp693
a(S'no_ll'
I3
tp694
a(S'w'
I729
tp695
a(S'p2_vo'
I6
tp696
a(S'w'
I2
tp697
a(S'p1_vo'
I6
tp698
a(S'w'
I732
tp699
a(S'p2_vo'
I5
tp700
a(S'w'
I2
tp701
a(S'p1_vo'
I5
tp702
a(S'w'
I1466
tp703
a(S'p2_du'
I0
tp704
a(S'p2_cv'
I0
tp705
a(S'p2_vo'
I4
tp706
a(S'p2_sp'
I0
tp707
a(S'p2_sn'
I0
tp708
a(S'p2_ss'
I4
tp709
a(S'w'
I2
tp710
a(S'p2_du'
I2
tp711
a(S'p2_cv'
I1
tp712
a(S'p2_vo'
I0
tp713
a(S'p2_sp'
I7
tp714
a(S'p2_sn'
I1
tp715
a(S'p2_ss'
I7
tp716
a(S'w'
I2
tp717
a(S'p1_vo'
I4
tp718
a(S'w'
I4
tp719
a(S'no_np'
I12
tp720
a(S'no_ll'
I3
tp721
a(S'w'
I1461
tp722
a(S'p1_vo'
I0
tp723
a(S'w'
I2934
tp724
a(S'p2_ll'
I1
tp725
a(S'w'
I1
tp726
a(S'p2_cv'
I0
tp727
a(S'p2_vo'
I2
tp728
a(S'w'
I2
tp729
a(S'p2_cv'
I1
tp730
a(S'p2_vo'
I0
tp731
a(S'w'
I3
tp732
a(S'p1_ll'
I1
tp733
a(S'w'
I2
tp734
a(S'p1_cv'
I0
tp735
a(S'p1_vo'
I2
tp736
a(S'w'
I1
tp737
a(S'p1_cv'
I1
tp738
a(S'p1_vo'
I0
tp739
a(S'w'
I724
tp740
a(S'p2_vo'
I8
tp741
a(S'w'
I2
tp742
a(S'p1_vo'
I8
tp743
a(S'w'
I732
tp744
a(S'p2_vo'
I7
tp745
a(S'w'
I2
tp746
a(S'p1_vo'
I7
tp747
a(S'w'
I732
tp748
a(S'p2_vo'
I6
tp749
a(S'w'
I2
tp750
a(S'p1_vo'
I6
tp751
a(S'w'
I731
tp752
a(S'p2_vo'
I5
tp753
a(S'w'
I2
tp754
a(S'p1_vo'
I5
tp755
a(S'w'
I1466
tp756
a(S'p2_vo'
I4
tp757
a(S'w'
I2
tp758
a(S'p1_vo'
I4
tp759
a(S'w'
I6
tp760
a(S'no_np'
I3
tp761
a(S'no_ll'
I3
tp762
a(S'w'
I1460
tp763
a(S'p2_vo'
I0
tp764
a(S'w'
I2
tp765
a(S'p1_vo'
I0
tp766
a(S'w'
I1470
tp767
a(S'no_vo'
I0
tp768
a(S'no_nl'
I1
tp769
a(S'no_np'
I4
tp770
a(S'no_ll'
I4
tp771
a(S'w'
I1465
tp772
a(S'p1_tl'
I171
tp773
a(S'w'
I1
tp774
a(S'p1_ll'
I1
tp775
a(S'w'
I1
tp776
a(S'p1_cv'
I0
tp777
a(S'p1_vo'
I2
tp778
a(S'w'
I2
tp779
a(S'p1_cv'
I1
tp780
a(S'p1_vo'
I0
tp781
a(S'w'
I730
tp782
a(S'p1_vo'
I8
tp783
a(S'w'
I733
tp784
a(S'p1_vo'
I7
tp785
a(S'w'
I3
tp786
a(S'no_vo'
I12
tp787
a(S'no_nl'
I0
tp788
a(S'no_np'
I3
tp789
a(S'no_ll'
I3
tp790
a(S'w'
I731
tp791
a(S'p1_vo'
I6
tp792
a(S'w'
I734
tp793
a(S'p1_vo'
I5
tp794
a(S'w'
I1467
tp795
a(S'p2_ll'
I1
tp796
a(S'w'
I1
tp797
a(S'p2_cv'
I0
tp798
a(S'p2_vo'
I2
tp799
a(S'w'
I2
tp800
a(S'p2_cv'
I1
tp801
a(S'p2_vo'
I0
tp802
a(S'w'
I3
tp803
a(S'p1_tl'
I83
tp804
a(S'p1_ll'
I1
tp805
a(S'w'
I2
tp806
a(S'p1_cv'
I0
tp807
a(S'p1_vo'
I2
tp808
a(S'w'
I1
tp809
a(S'p1_cv'
I1
tp810
a(S'p1_vo'
I0
tp811
a(S'w'
I2
tp812
a(S'tr_tl'
I29
tp813
a(S'tr_ll'
I1
tp814
a(S'tr_th'
I1
tp815
a(S'w'
I4
tp816
a(S'no_ll'
I11
tp817
a(S'w'
I717
tp818
a(S'p2_vo'
I8
tp819
a(S'w'
I2
tp820
a(S'p1_vo'
I8
tp821
a(S'w'
I732
tp822
a(S'p2_vo'
I7
tp823
a(S'w'
I2
tp824
a(S'p1_vo'
I7
tp825
a(S'w'
I732
tp826
a(S'p2_vo'
I6
tp827
a(S'w'
I2
tp828
a(S'p1_vo'
I6
tp829
a(S'w'
I732
tp830
a(S'p2_vo'
I5
tp831
a(S'w'
I2
tp832
a(S'p1_vo'
I5
tp833
a(S'w'
I1465
tp834
a(S'p2_vo'
I4
tp835
a(S'w'
I2
tp836
a(S'p1_tl'
I171
tp837
a(S'w'
I1
tp838
a(S'p1_ll'
I1
tp839
a(S'w'
I1
tp840
a(S'p1_cv'
I0
tp841
a(S'p1_vo'
I2
tp842
a(S'w'
I2
tp843
a(S'p1_cv'
I1
tp844
a(S'p1_vo'
I0
tp845
a(S'w'
I730
tp846
a(S'p1_vo'
I8
tp847
a(S'w'
I732
tp848
a(S'p2_vo'
I0
tp849
a(S'w'
I2
tp850
a(S'p1_vo'
I7
tp851
a(S'w'
I734
tp852
a(S'p1_vo'
I6
tp853
a(S'w'
I733
tp854
a(S'p1_vo'
I5
tp855
a(S'w'
I1465
tp856
a(S'w'
I1
tp857
a(S'p2_ll'
I1
tp858
a(S'w'
I1
tp859
a(S'p2_cv'
I0
tp860
a(S'p2_vo'
I2
tp861
a(S'w'
I2
tp862
a(S'p2_cv'
I1
tp863
a(S'p2_vo'
I0
tp864
a(S'w'
I3
tp865
a(S'p1_tl'
I83
tp866
a(S'p1_ll'
I1
tp867
a(S'w'
I2
tp868
a(S'p1_cv'
I0
tp869
a(S'p1_vo'
I2
tp870
a(S'w'
I1
tp871
a(S'p1_cv'
I1
tp872
a(S'p1_vo'
I0
tp873
a(S'w'
I2
tp874
a(S'tr_tl'
I213
tp875
a(S'tr_ll'
I1
tp876
a(S'tr_th'
I0
tp877
a(S'w'
I4
tp878
a(S'no_ll'
I3
tp879
a(S'w'
I719
tp880
a(S'p2_vo'
I8
tp881
a(S'w'
I2
tp882
a(S'p1_vo'
I8
tp883
a(S'w'
I732
tp884
a(S'p2_vo'
I7
tp885
a(S'w'
I2
tp886
a(S'p1_vo'
I7
tp887
a(S'w'
I731
tp888
a(S'p2_vo'
I6
tp889
a(S'w'
I2
tp890
a(S'p1_vo'
I6
tp891
a(S'w'
I732
tp892
a(S'p2_vo'
I5
tp893
a(S'w'
I2
tp894
a(S'p1_vo'
I5
tp895
a(S'w'
I3
tp896
a(S'no_vo'
I0
tp897
a(S'no_nl'
I1
tp898
a(S'no_np'
I4
tp899
a(S'no_ll'
I4
tp900
a(S'w'
I1463
tp901
a(S'p2_vo'
I4
tp902
a(S'w'
I2
tp903
a(S'p1_vo'
I4
tp904
a(S'w'
I1465
tp905
a(S'p2_vo'
I0
tp906
a(S'w'
I2
tp907
a(S'p1_vo'
I0
tp908
a(S'w'
I3
tp909
a(S'no_vo'
I12
tp910
a(S'no_nl'
I0
tp911
a(S'no_np'
I3
tp912
a(S'no_ll'
I3
tp913
a(S'w'
I2934
tp914
a(S'ch_no'
I1
tp915
a(S'ch_tr'
I0
tp916
a(S'ch_p2'
I1
tp917
a(S'ch_p1'
I1
tp918
a(S'ch_no'
I1
tp919
a(S'ch_tr'
I1
tp920
a(S'ch_p2'
I1
tp921
a(S'ch_p1'
I1
tp922
a(S'w'
I2
tp923
a(S'p2_tl'
I213
tp924
a(S'w'
I1
tp925
a(S'p2_ll'
I1
tp926
a(S'w'
I1
tp927
a(S'p2_cv'
I0
tp928
a(S'p2_vo'
I2
tp929
a(S'w'
I2
tp930
a(S'p2_cv'
I1
tp931
a(S'p2_vo'
I0
tp932
a(S'w'
I3
tp933
a(S'p1_tl'
I64
tp934
a(S'p1_ll'
I1
tp935
a(S'w'
I2
tp936
a(S'p1_cv'
I0
tp937
a(S'p1_vo'
I2
tp938
a(S'w'
I1
tp939
a(S'p1_cv'
I1
tp940
a(S'p1_vo'
I0
tp941
a(S'w'
I3
tp942
a(S'tr_tl'
I124
tp943
a(S'tr_ll'
I1
tp944
a(S'tr_th'
I1
tp945
a(S'w'
I4
tp946
a(S'no_np'
I12
tp947
a(S'no_ll'
I3
tp948
a(S'w'
I711
tp949
a(S'p2_vo'
I8
tp950
a(S'w'
I2
tp951
a(S'p1_vo'
I8
tp952
a(S'w'
I732
tp953
a(S'p2_vo'
I7
tp954
a(S'w'
I2
tp955
a(S'p1_vo'
I7
tp956
a(S'w'
I732
tp957
a(S'p2_vo'
I6
tp958
a(S'w'
I2
tp959
a(S'p1_vo'
I6
tp960
a(S'w'
I732
tp961
a(S'p2_vo'
I5
tp962
a(S'w'
I2
tp963
a(S'p1_vo'
I5
tp964
a(S'w'
I1465
tp965
a(S'p2_vo'
I4
tp966
a(S'w'
I2
tp967
a(S'p1_vo'
I4
tp968
a(S'w'
I1466
tp969
a(S'p2_vo'
I0
tp970
a(S'w'
I2
tp971
a(S'p1_vo'
I0
tp972
a(S'w'
I2932
tp973
a(S'w'
I1
tp974
a(S'p2_ll'
I1
tp975
a(S'w'
I1
tp976
a(S'p2_cv'
I0
tp977
a(S'p2_vo'
I2
tp978
a(S'w'
I2
tp979
a(S'p2_cv'
I1
tp980
a(S'p2_vo'
I0
tp981
a(S'w'
I3
tp982
a(S'p1_ll'
I1
tp983
a(S'w'
I2
tp984
a(S'p1_cv'
I0
tp985
a(S'p1_vo'
I2
tp986
a(S'w'
I1
tp987
a(S'p1_cv'
I1
tp988
a(S'p1_vo'
I0
tp989
a(S'w'
I4
tp990
a(S'no_np'
I3
tp991
a(S'no_ll'
I3
tp992
a(S'w'
I721
tp993
a(S'p2_vo'
I8
tp994
a(S'w'
I2
tp995
a(S'p1_vo'
I8
tp996
a(S'w'
I732
tp997
a(S'p2_vo'
I7
tp998
a(S'w'
I2
tp999
a(S'p1_vo'
I7
tp1000
a(S'w'
I731
tp1001
a(S'p2_vo'
I6
tp1002
a(S'w'
I2
tp1003
a(S'p1_vo'
I6
tp1004
a(S'w'
I732
tp1005
a(S'p2_vo'
I5
tp1006
a(S'w'
I2
tp1007
a(S'p1_vo'
I5
tp1008
a(S'w'
I3
tp1009
a(S'no_vo'
I0
tp1010
a(S'no_nl'
I1
tp1011
a(S'no_np'
I4
tp1012
a(S'no_ll'
I4
tp1013
a(S'w'
I1463
tp1014
a(S'p2_vo'
I4
tp1015
a(S'w'
I2
tp1016
a(S'p1_vo'
I4
tp1017
a(S'w'
I1465
tp1018
a(S'p2_vo'
I0
tp1019
a(S'w'
I2
tp1020
a(S'p1_vo'
I0
tp1021
a(S'w'
I3
tp1022
a(S'no_vo'
I12
tp1023
a(S'no_nl'
I0
tp1024
a(S'no_np'
I3
tp1025
a(S'no_ll'
I3
tp1026
a(S'w'
I2930
tp1027
a(S'w'
I1
tp1028
a(S'p2_ll'
I1
tp1029
a(S'w'
I1
tp1030
a(S'p2_cv'
I0
tp1031
a(S'p2_vo'
I2
tp1032
a(S'w'
I2
tp1033
a(S'p2_cv'
I1
tp1034
a(S'p2_vo'
I0
tp1035
a(S'w'
I3
tp1036
a(S'p1_ll'
I1
tp1037
a(S'w'
I2
tp1038
a(S'p1_cv'
I0
tp1039
a(S'p1_vo'
I2
tp1040
a(S'w'
I1
tp1041
a(S'p1_cv'
I1
tp1042
a(S'p1_vo'
I0
tp1043
a(S'w'
I3
tp1044
a(S'tr_tl'
I254
tp1045
a(S'tr_ll'
I1
tp1046
a(S'tr_th'
I0
tp1047
a(S'w'
I4
tp1048
a(S'no_ll'
I11
tp1049
a(S'w'
I717
tp1050
a(S'p2_vo'
I8
tp1051
a(S'w'
I2
tp1052
a(S'p1_vo'
I8
tp1053
a(S'w'
I732
tp1054
a(S'p2_vo'
I7
tp1055
a(S'w'
I2
tp1056
a(S'p1_vo'
I7
tp1057
a(S'w'
I732
tp1058
a(S'p2_vo'
I6
tp1059
a(S'w'
I2
tp1060
a(S'p1_vo'
I6
tp1061
a(S'w'
I732
tp1062
a(S'p2_vo'
I5
tp1063
a(S'w'
I2
tp1064
a(S'p1_vo'
I5
tp1065
a(S'w'
I1465
tp1066
a(S'p2_vo'
I4
tp1067
a(S'w'
I2
tp1068
a(S'p1_vo'
I4
tp1069
a(S'w'
I1466
tp1070
a(S'p2_vo'
I0
tp1071
a(S'w'
I2
tp1072
a(S'p1_vo'
I0
tp1073
a(S'w'
I2934
tp1074
a(S'p2_du'
I0
tp1075
a(S'p2_cv'
I0
tp1076
a(S'p2_vo'
I4
tp1077
a(S'p2_sp'
I0
tp1078
a(S'p2_sn'
I0
tp1079
a(S'p2_ss'
I4
tp1080
a(S'w'
I2
tp1081
a(S'p2_du'
I2
tp1082
a(S'p2_cv'
I1
tp1083
a(S'p2_vo'
I0
tp1084
a(S'p2_sp'
I7
tp1085
a(S'p2_sn'
I1
tp1086
a(S'p2_ss'
I7
tp1087
a(S'w'
I3
tp1088
a(S'p1_tl'
I124
tp1089
a(S'p1_ll'
I1
tp1090
a(S'w'
I1
tp1091
a(S'p1_cv'
I0
tp1092
a(S'p1_vo'
I2
tp1093
a(S'w'
I2
tp1094
a(S'p1_cv'
I1
tp1095
a(S'p1_vo'
I0
tp1096
a(S'w'
I3
tp1097
a(S'w'
I1
tp1098
a(S'no_ll'
I3
tp1099
a(S'w'
I723
tp1100
a(S'p1_vo'
I8
tp1101
a(S'w'
I734
tp1102
a(S'p1_vo'
I7
tp1103
a(S'w'
I733
tp1104
a(S'p1_vo'
I6
tp1105
a(S'w'
I734
tp1106
a(S'p1_vo'
I5
tp1107
a(S'w'
I3
tp1108
a(S'no_vo'
I0
tp1109
a(S'no_nl'
I1
tp1110
a(S'no_np'
I4
tp1111
a(S'no_ll'
I4
tp1112
a(S'w'
I1462
tp1113
a(S'w'
I1
tp1114
a(S'p2_ll'
I1
tp1115
a(S'w'
I1
tp1116
a(S'p2_cv'
I0
tp1117
a(S'p2_vo'
I2
tp1118
a(S'w'
I2
tp1119
a(S'p2_cv'
I1
tp1120
a(S'p2_vo'
I0
tp1121
a(S'w'
I3
tp1122
a(S'p1_tl'
I64
tp1123
a(S'p1_ll'
I1
tp1124
a(S'w'
I2
tp1125
a(S'p1_cv'
I0
tp1126
a(S'p1_vo'
I2
tp1127
a(S'w'
I1
tp1128
a(S'p1_cv'
I1
tp1129
a(S'p1_vo'
I0
tp1130
a(S'w'
I2
tp1131
a(S'tr_tl'
I190
tp1132
a(S'tr_ll'
I1
tp1133
a(S'w'
I723
tp1134
a(S'p2_vo'
I8
tp1135
a(S'w'
I2
tp1136
a(S'p1_vo'
I8
tp1137
a(S'w'
I731
tp1138
a(S'p2_vo'
I7
tp1139
a(S'w'
I2
tp1140
a(S'p1_vo'
I7
tp1141
a(S'w'
I3
tp1142
a(S'no_vo'
I12
tp1143
a(S'no_nl'
I0
tp1144
a(S'no_np'
I3
tp1145
a(S'no_ll'
I3
tp1146
a(S'w'
I729
tp1147
a(S'p2_vo'
I6
tp1148
a(S'w'
I2
tp1149
a(S'p1_vo'
I6
tp1150
a(S'w'
I732
tp1151
a(S'p2_vo'
I5
tp1152
a(S'w'
I2
tp1153
a(S'p1_vo'
I5
tp1154
a(S'w'
I1466
tp1155
a.