(lp1
(S'clock'
p2
I1789773
tp3
a(S'ch_no'
I1
tp4
a(S'ch_tr'
I1
tp5
a(S'ch_p2'
I1
tp6
a(S'ch_p1'
I1
tp7
a(S'p1_du'
I1
tp8
a(S'p1_lh'
I1
tp9
a(S'p1_cv'
I1
tp10
a(S'p2_du'
I1
tp11
a(S'p2_lh'
I1
tp12
a(S'p2_cv'
I1
tp13
a(S'tr_lr'
I112
tp14
a(S'w'
I1018
tp15
a(S'p1_du'
I2
tp16
a(S'p1_lh'
I0
tp17
a(S'p1_vo'
I15
tp18
a(S'w'
I1
tp19
a(S'p1_se'
I1
tp20
a(S'p1_sp'
I7
tp21
a(S'w'
I1
tp22
a(S'p1_tl'
I113
tp23
a(S'w'
I1
tp24
a(S'p1_ll'
I1
tp25
a(S'w'
I5
tp26
a(S'p2_du'
I2
tp27
a(S'p2_lh'
I0
tp28
a(S'p2_vo'
I15
tp29
a(S'p2_se'
I1
tp30
a(S'p2_sp'
I7
tp31
a(S'w'
I1
tp32
a(S'p2_tl'
I142
tp33
a(S'w'
I1
tp34
a(S'p2_ll'
I1
tp35
a(S'w'
I6
tp36
a(S'tr_lr'
I127
tp37
a(S'w'
I1
tp38
a(S'tr_tl'
I29
tp39
a(S'w'
I1
tp40
a(S'tr_ll'
I1
tp41
a(S'tr_th'
I1
tp42
a(S'w'
I10991
tp43
a(S'p1_tl'
I0
tp44
a(S'w'
I1
tp45
a(S'p1_ll'
I1
tp46
a(S'w'
I6
tp47
a(S'p2_tl'
I0
tp48
a(S'w'
I1
tp49
a(S'p2_ll'
I1
tp50
a(S'w'
I3668
tp51
a(S'tr_tl'
I190
tp52
a(S'w'
I1
tp53
a(S'tr_ll'
I1
tp54
a(S'tr_th'
I0
tp55
a(S'w'
I7330
tp56
a(S'p1_tl'
I113
tp57
a(S'w'
I1
tp58
a(S'p1_ll'
I1
tp59
a(S'w'
I6
tp60
a(S'p2_tl'
I142
tp61
a(S'w'
I1
tp62
a(S'p2_ll'
I1
tp63
a(S'w'
I7
tp64
a(S'tr_tl'
I142
tp65
a(S'w'
I1
tp66
a(S'tr_ll'
I1
tp67
a(S'w'
I14660
tp68
a(S'p1_tl'
I190
tp69
a(S'w'
I1
tp70
a(S'p1_ll'
I1
tp71
a(S'w'
I6
tp72
a(S'p2_tl'
I0
tp73
a(S'w'
I1
tp74
a(S'p2_ll'
I1
tp75
a(S'w'
I7330
tp76
a(S'p1_tl'
I106
tp77
a(S'w'
I1
tp78
a(S'p1_ll'
I1
tp79
a(S'w'
I6
tp80
a(S'p2_tl'
I127
tp81
a(S'w'
I1
tp82
a(S'p2_ll'
I1
tp83
a(S'w'
I7
tp84
a(S'tr_tl'
I29
tp85
a(S'w'
I1
tp86
a(S'tr_ll'
I1
tp87
a(S'tr_th'
I1
tp88
a(S'w'
I10991
tp89
a(S'p1_tl'
I0
tp90
a(S'w'
I1
tp91
a(S'p1_ll'
I1
tp92
a(S'w'
I6
tp93
a(S'p2_tl'
I0
tp94
a(S'w'
I1
tp95
a(S'p2_ll'
I1
tp96
a(S'w'
I3668
tp97
a(S'tr_tl'
I190
tp98
a(S'w'
I1
tp99
a(S'tr_ll'
I1
tp100
a(S'tr_th'
I0
tp101
a(S'w'
I7330
tp102
a(S'p1_tl'
I106
tp103
a(S'w'
I1
tp104
a(S'p1_ll'
I1
tp105
a(S'w'
I6
tp106
a(S'p2_tl'
I127
tp107
a(S'w'
I1
tp108
a(S'p2_ll'
I1
tp109
a(S'w'
I7
tp110
a(S'tr_tl'
I142
tp111
a(S'w'
I1
tp112
a(S'tr_ll'
I1
tp113
a(S'w'
I14659
tp114
a(S'p1_tl'
I190
tp115
a(S'w'
I1
tp116
a(S'p1_ll'
I1
tp117
a(S'w'
I6
tp118
a(S'p2_tl'
I0
tp119
a(S'w'
I1
tp120
a(S'p2_ll'
I1
tp121
a(S'w'
I7330
tp122
a(S'p1_tl'
I95
tp123
a(S'w'
I1
tp124
a(S'p1_ll'
I1
tp125
a(S'w'
I6
tp126
a(S'p2_tl'
I113
tp127
a(S'w'
I1
tp128
a(S'p2_ll'
I1
tp129
a(S'w'
I7
tp130
a(S'tr_tl'
I29
tp131
a(S'w'
I1
tp132
a(S'tr_ll'
I1
tp133
a(S'tr_th'
I1
tp134
a(S'w'
I10991
tp135
a(S'p1_tl'
I0
tp136
a(S'w'
I1
tp137
a(S'p1_ll'
I1
tp138
a(S'w'
I6
tp139
a(S'p2_tl'
I0
tp140
a(S'w'
I1
tp141
a(S'p2_ll'
I1
tp142
a(S'w'
I3668
tp143
a(S'tr_tl'
I190
tp144
a(S'w'
I1
tp145
a(S'tr_ll'
I1
tp146
a(S'tr_th'
I0
tp147
a(S'w'
I7330
tp148
a(S'p1_tl'
I95
tp149
a(S'w'
I1
tp150
a(S'p1_ll'
I1
tp151
a(S'w'
I6
tp152
a(S'p2_tl'
I113
tp153
a(S'w'
I1
tp154
a(S'p2_ll'
I1
tp155
a(S'w'
I7
tp156
a(S'tr_tl'
I142
tp157
a(S'w'
I1
tp158
a(S'tr_ll'
I1
tp159
a(S'w'
I14660
tp160
a(S'p1_tl'
I190
tp161
a(S'w'
I1
tp162
a(S'p1_ll'
I1
tp163
a(S'w'
I6
tp164
a(S'p2_tl'
I0
tp165
a(S'w'
I1
tp166
a(S'p2_ll'
I1
tp167
a(S'w'
I7330
tp168
a(S'p1_tl'
I106
tp169
a(S'w'
I1
tp170
a(S'p1_ll'
I1
tp171
a(S'w'
I6
tp172
a(S'p2_tl'
I127
tp173
a(S'w'
I1
tp174
a(S'p2_ll'
I1
tp175
a(S'w'
I7
tp176
a(S'tr_tl'
I29
tp177
a(S'w'
I1
tp178
a(S'tr_ll'
I1
tp179
a(S'tr_th'
I1
tp180
a(S'w'
I14660
tp181
a(S'p1_tl'
I95
tp182
a(S'w'
I1
tp183
a(S'p1_ll'
I1
tp184
a(S'w'
I6
tp185
a(S'p2_tl'
I151
tp186
a(S'w'
I1
tp187
a(S'p2_ll'
I1
tp188
a(S'w'
I7
tp189
a(S'tr_tl'
I190
tp190
a(S'w'
I1
tp191
a(S'tr_ll'
I1
tp192
a(S'tr_th'
I0
tp193
a(S'w'
I7322
tp194
a(S'p1_tl'
I106
tp195
a(S'w'
I1
tp196
a(S'p1_ll'
I1
tp197
a(S'w'
I6
tp198
a(S'p2_tl'
I127
tp199
a(S'w'
I1
tp200
a(S'p2_ll'
I1
tp201
a(S'w'
I7
tp202
a(S'tr_tl'
I142
tp203
a(S'w'
I1
tp204
a(S'tr_ll'
I1
tp205
a(S'w'
I10990
tp206
a(S'p1_tl'
I0
tp207
a(S'w'
I1
tp208
a(S'p1_ll'
I1
tp209
a(S'w'
I6
tp210
a(S'p2_tl'
I0
tp211
a(S'w'
I1
tp212
a(S'p2_ll'
I1
tp213
a(S'w'
I10999
tp214
a(S'p1_tl'
I113
tp215
a(S'w'
I1
tp216
a(S'p1_ll'
I1
tp217
a(S'w'
I6
tp218
a(S'p2_tl'
I142
tp219
a(S'w'
I1
tp220
a(S'p2_ll'
I1
tp221
a(S'w'
I7
tp222
a(S'tr_tl'
I29
tp223
a(S'w'
I1
tp224
a(S'tr_ll'
I1
tp225
a(S'tr_th'
I1
tp226
a(S'w'
I10991
tp227
a(S'p1_tl'
I0
tp228
a(S'w'
I1
tp229
a(S'p1_ll'
I1
tp230
a(S'w'
I6
tp231
a(S'p2_tl'
I0
tp232
a(S'w'
I1
tp233
a(S'p2_ll'
I1
tp234
a(S'w'
I3668
tp235
a(S'tr_tl'
I190
tp236
a(S'w'
I1
tp237
a(S'tr_ll'
I1
tp238
a(S'tr_th'
I0
tp239
a(S'w'
I7330
tp240
a(S'p1_tl'
I113
tp241
a(S'w'
I1
tp242
a(S'p1_ll'
I1
tp243
a(S'w'
I6
tp244
a(S'p2_tl'
I142
tp245
a(S'w'
I1
tp246
a(S'p2_ll'
I1
tp247
a(S'w'
I7
tp248
a(S'tr_tl'
I142
tp249
a(S'w'
I1
tp250
a(S'tr_ll'
I1
tp251
a(S'w'
I14660
tp252
a(S'p1_tl'
I190
tp253
a(S'w'
I1
tp254
a(S'p1_ll'
I1
tp255
a(S'w'
I6
tp256
a(S'p2_tl'
I0
tp257
a(S'w'
I1
tp258
a(S'p2_ll'
I1
tp259
a(S'w'
I7330
tp260
a(S'p1_tl'
I106
tp261
a(S'w'
I1
tp262
a(S'p1_ll'
I1
tp263
a(S'w'
I6
tp264
a(S'p2_tl'
I127
tp265
a(S'w'
I1
tp266
a(S'p2_ll'
I1
tp267
a(S'w'
I7
tp268
a(S'tr_tl'
I29
tp269
a(S'w'
I1
tp270
a(S'tr_ll'
I1
tp271
a(S'tr_th'
I1
tp272
a(S'w'
I10991
tp273
a(S'p1_tl'
I0
tp274
a(S'w'
I1
tp275
a(S'p1_ll'
I1
tp276
a(S'w'
I6
tp277
a(S'p2_tl'
I0
tp278
a(S'w'
I1
tp279
a(S'p2_ll'
I1
tp280
a(S'w'
I3668
tp281
a(S'tr_tl'
I190
tp282
a(S'w'
I1
tp283
a(S'tr_ll'
I1
tp284
a(S'tr_th'
I0
tp285
a(S'w'
I7330
tp286
a(S'p1_tl'
I106
tp287
a(S'w'
I1
tp288
a(S'p1_ll'
I1
tp289
a(S'w'
I6
tp290
a(S'p2_tl'
I127
tp291
a(S'w'
I1
tp292
a(S'p2_ll'
I1
tp293
a(S'w'
I7
tp294
a(S'tr_tl'
I142
tp295
a(S'w'
I1
tp296
a(S'tr_ll'
I1
tp297
a(S'w'
I14659
tp298
a(S'p1_tl'
I190
tp299
a(S'w'
I1
tp300
a(S'p1_ll'
I1
tp301
a(S'w'
I6
tp302
a(S'p2_tl'
I0
tp303
a(S'w'
I1
tp304
a(S'p2_ll'
I1
tp305
a(S'w'
I7330
tp306
a(S'p1_tl'
I95
tp307
a(S'w'
I1
tp308
a(S'p1_ll'
I1
tp309
a(S'w'
I6
tp310
a(S'p2_tl'
I113
tp311
a(S'w'
I1
tp312
a(S'p2_ll'
I1
tp313
a(S'w'
I7
tp314
a(S'tr_tl'
I29
tp315
a(S'w'
I1
tp316
a(S'tr_ll'
I1
tp317
a(S'tr_th'
I1
tp318
a(S'w'
I10991
tp319
a(S'p1_tl'
I0
tp320
a(S'w'
I1
tp321
a(S'p1_ll'
I1
tp322
a(S'w'
I6
tp323
a(S'p2_tl'
I0
tp324
a(S'w'
I1
tp325
a(S'p2_ll'
I1
tp326
a(S'w'
I3668
tp327
a(S'tr_tl'
I190
tp328
a(S'w'
I1
tp329
a(S'tr_ll'
I1
tp330
a(S'tr_th'
I0
tp331
a(S'w'
I7330
tp332
a(S'p1_tl'
I95
tp333
a(S'w'
I1
tp334
a(S'p1_ll'
I1
tp335
a(S'w'
I6
tp336
a(S'p2_tl'
I113
tp337
a(S'w'
I1
tp338
a(S'p2_ll'
I1
tp339
a(S'w'
I7
tp340
a(S'tr_tl'
I142
tp341
a(S'w'
I1
tp342
a(S'tr_ll'
I1
tp343
a(S'w'
I14660
tp344
a(S'p1_tl'
I190
tp345
a(S'w'
I1
tp346
a(S'p1_ll'
I1
tp347
a(S'w'
I6
tp348
a(S'p2_tl'
I0
tp349
a(S'w'
I1
tp350
a(S'p2_ll'
I1
tp351
a(S'w'
I7330
tp352
a(S'p1_tl'
I106
tp353
a(S'w'
I1
tp354
a(S'p1_ll'
I1
tp355
a(S'w'
I6
tp356
a(S'p2_tl'
I127
tp357
a(S'w'
I1
tp358
a(S'p2_ll'
I1
tp359
a(S'w'
I7
tp360
a(S'tr_tl'
I29
tp361
a(S'w'
I1
tp362
a(S'tr_ll'
I1
tp363
a(S'tr_th'
I1
tp364
a(S'w'
I14660
tp365
a(S'p1_tl'
I95
tp366
a(S'w'
I1
tp367
a(S'p1_ll'
I1
tp368
a(S'w'
I6
tp369
a(S'p2_tl'
I151
tp370
a(S'w'
I1
tp371
a(S'p2_ll'
I1
tp372
a(S'w'
I7
tp373
a(S'tr_tl'
I190
tp374
a(S'w'
I1
tp375
a(S'tr_ll'
I1
tp376
a(S'tr_th'
I0
tp377
a(S'w'
I7322
tp378
a(S'p1_tl'
I106
tp379
a(S'w'
I1
tp380
a(S'p1_ll'
I1
tp381
a(S'w'
I6
tp382
a(S'p2_tl'
I127
tp383
a(S'w'
I1
tp384
a(S'p2_ll'
I1
tp385
a(S'w'
I7
tp386
a(S'tr_tl'
I142
tp387
a(S'w'
I1
tp388
a(S'tr_ll'
I1
tp389
a(S'w'
I10990
tp390
a(S'p1_tl'
I0
tp391
a(S'w'
I1
tp392
a(S'p1_ll'
I1
tp393
a(S'w'
I6
tp394
a(S'p2_tl'
I0
tp395
a(S'w'
I1
tp396
a(S'p2_ll'
I1
tp397
a(S'w'
I10999
tp398
a(S'p1_tl'
I113
tp399
a(S'w'
I1
tp400
a(S'p1_ll'
I1
tp401
a(S'w'
I6
tp402
a(S'p2_tl'
I142
tp403
a(S'w'
I1
tp404
a(S'p2_ll'
I1
tp405
a(S'w'
I7
tp406
a(S'tr_tl'
I29
tp407
a(S'w'
I1
tp408
a(S'tr_ll'
I1
tp409
a(S'tr_th'
I1
tp410
a(S'w'
I22005
tp411
a(S'tr_tl'
I190
tp412
a(S'w'
I1
tp413
a(S'tr_ll'
I1
tp414
a(S'tr_th'
I0
tp415
a(S'w'
I22013
tp416
a(S'tr_tl'
I160
tp417
a(S'w'
I1
tp418
a(S'tr_ll'
I1
tp419
a(S'w'
I10999
tp420
a(S'p1_tl'
I120
tp421
a(S'w'
I1
tp422
a(S'p1_ll'
I1
tp423
a(S'w'
I6
tp424
a(S'p2_tl'
I0
tp425
a(S'w'
I1
tp426
a(S'p2_ll'
I1
tp427
a(S'w'
I10999
tp428
a(S'p1_tl'
I113
tp429
a(S'w'
I1
tp430
a(S'p1_ll'
I1
tp431
a(S'w'
I11005
tp432
a(S'p1_tl'
I95
tp433
a(S'w'
I1
tp434
a(S'p1_ll'
I1
tp435
a(S'w'
I11006
tp436
a(S'p1_tl'
I84
tp437
a(S'w'
I1
tp438
a(S'p1_ll'
I1
tp439
a(S'w'
I6
tp440
a(S'p2_tl'
I0
tp441
a(S'w'
I1
tp442
a(S'p2_ll'
I1
tp443
a(S'w'
I7
tp444
a(S'tr_tl'
I64
tp445
a(S'w'
I1
tp446
a(S'tr_ll'
I1
tp447
a(S'tr_th'
I1
tp448
a(S'w'
I10991
tp449
a(S'p1_tl'
I95
tp450
a(S'w'
I1
tp451
a(S'p1_ll'
I1
tp452
a(S'w'
I11006
tp453
a(S'p1_tl'
I113
tp454
a(S'w'
I1
tp455
a(S'p1_ll'
I1
tp456
a(S'w'
I6
tp457
a(S'p2_tl'
I142
tp458
a(S'w'
I1
tp459
a(S'p2_ll'
I1
tp460
a(S'w'
I7
tp461
a(S'tr_tl'
I226
tp462
a(S'w'
I1
tp463
a(S'tr_ll'
I1
tp464
a(S'tr_th'
I0
tp465
a(S'w'
I22005
tp466
a(S'tr_tl'
I190
tp467
a(S'w'
I1
tp468
a(S'tr_ll'
I1
tp469
a(S'w'
I44019
tp470
a(S'p1_tl'
I169
tp471
a(S'w'
I1
tp472
a(S'p1_ll'
I1
tp473
a(S'w'
I6
tp474
a(S'p2_tl'
I213
tp475
a(S'w'
I1
tp476
a(S'p2_ll'
I1
tp477
a(S'w'
I7
tp478
a(S'tr_tl'
I254
tp479
a(S'w'
I1
tp480
a(S'tr_ll'
I1
tp481
a(S'w'
I21998
tp482
a(S'p1_tl'
I142
tp483
a(S'w'
I1
tp484
a(S'p1_ll'
I1
tp485
a(S'w'
I6
tp486
a(S'p2_tl'
I169
tp487
a(S'w'
I1
tp488
a(S'p2_ll'
I1
tp489
a(S'w'
I7
tp490
a(S'tr_tl'
I142
tp491
a(S'w'
I1
tp492
a(S'tr_ll'
I1
tp493
a(S'w'
I21998
tp494
a(S'p1_tl'
I151
tp495
a(S'w'
I1
tp496
a(S'p1_ll'
I1
tp497
a(S'w'
I6
tp498
a(S'p2_tl'
I190
tp499
a(S'w'
I1
tp500
a(S'p2_ll'
I1
tp501
a(S'w'
I7
tp502
a(S'tr_tl'
I226
tp503
a(S'w'
I1
tp504
a(S'tr_ll'
I1
tp505
a(S'w'
I21998
tp506
a(S'p1_tl'
I127
tp507
a(S'w'
I1
tp508
a(S'p1_ll'
I1
tp509
a(S'w'
I6
tp510
a(S'p2_tl'
I151
tp511
a(S'w'
I1
tp512
a(S'p2_ll'
I1
tp513
a(S'w'
I7
tp514
a(S'tr_tl'
I127
tp515
a(S'w'
I1
tp516
a(S'tr_ll'
I1
tp517
a(S'w'
I21997
tp518
a(S'p1_tl'
I142
tp519
a(S'w'
I1
tp520
a(S'p1_ll'
I1
tp521
a(S'w'
I6
tp522
a(S'p2_tl'
I169
tp523
a(S'w'
I1
tp524
a(S'p2_ll'
I1
tp525
a(S'w'
I7
tp526
a(S'tr_tl'
I213
tp527
a(S'w'
I1
tp528
a(S'tr_ll'
I1
tp529
a(S'w'
I21998
tp530
a(S'p1_tl'
I113
tp531
a(S'w'
I1
tp532
a(S'p1_ll'
I1
tp533
a(S'w'
I6
tp534
a(S'p2_tl'
I142
tp535
a(S'w'
I1
tp536
a(S'p2_ll'
I1
tp537
a(S'w'
I7
tp538
a(S'tr_tl'
I113
tp539
a(S'w'
I1
tp540
a(S'tr_ll'
I1
tp541
a(S'w'
I21998
tp542
a(S'p1_tl'
I127
tp543
a(S'w'
I1
tp544
a(S'p1_ll'
I1
tp545
a(S'w'
I6
tp546
a(S'p2_tl'
I151
tp547
a(S'w'
I1
tp548
a(S'p2_ll'
I1
tp549
a(S'w'
I7
tp550
a(S'tr_tl'
I190
tp551
a(S'w'
I1
tp552
a(S'tr_ll'
I1
tp553
a(S'w'
I21996
tp554
a(S'p1_vo'
I10
tp555
a(S'w'
I2
tp556
a(S'p1_tl'
I95
tp557
a(S'w'
I1
tp558
a(S'p1_ll'
I1
tp559
a(S'w'
I5
tp560
a(S'p2_vo'
I10
tp561
a(S'w'
I1
tp562
a(S'p2_tl'
I151
tp563
a(S'w'
I1
tp564
a(S'p2_ll'
I1
tp565
a(S'w'
I7
tp566
a(S'tr_tl'
I106
tp567
a(S'w'
I1
tp568
a(S'tr_ll'
I1
tp569
a(S'w'
I22004
tp570
a(S'tr_tl'
I0
tp571
a(S'w'
I1
tp572
a(S'tr_ll'
I1
tp573
a(S'w'
I88045
tp574
a.