(lp1
(S'clock'
p2
I1789773
tp3
a(S'ch_no'
I1
tp4
a(S'ch_tr'
I1
tp5
a(S'ch_p2'
I1
tp6
a(S'ch_p1'
I1
tp7
a(S'p1_du'
I1
tp8
a(S'p1_lh'
I1
tp9
a(S'p1_cv'
I1
tp10
a(S'p2_du'
I1
tp11
a(S'p2_lh'
I1
tp12
a(S'p2_cv'
I1
tp13
a(S'tr_lr'
I112
tp14
a(S'w'
I764
tp15
a(S'p1_du'
I2
tp16
a(S'p1_lh'
I0
tp17
a(S'p1_cv'
I0
tp18
a(S'p1_vo'
I15
tp19
a(S'w'
I1
tp20
a(S'p1_sp'
I7
tp21
a(S'p1_sn'
I1
tp22
a(S'w'
I1
tp23
a(S'p1_tl'
I151
tp24
a(S'p1_ll'
I8
tp25
a(S'w'
I190
tp26
a(S'p2_du'
I2
tp27
a(S'p2_lh'
I0
tp28
a(S'p2_cv'
I0
tp29
a(S'p2_vo'
I15
tp30
a(S'p2_sp'
I7
tp31
a(S'p2_sn'
I1
tp32
a(S'w'
I1
tp33
a(S'p2_tl'
I250
tp34
a(S'w'
I1
tp35
a(S'p2_ll'
I8
tp36
a(S'p2_th'
I2
tp37
a(S'w'
I6
tp38
a(S'w'
I1
tp39
a(S'no_np'
I2
tp40
a(S'w'
I1
tp41
a(S'no_ll'
I31
tp42
a(S'w'
I13933
tp43
a(S'w'
I1
tp44
a(S'no_ll'
I31
tp45
a(S'w'
I13937
tp46
a(S'p2_tl'
I252
tp47
a(S'w'
I1
tp48
a(S'p2_ll'
I8
tp49
a(S'p2_th'
I1
tp50
a(S'w'
I7
tp51
a(S'w'
I1
tp52
a(S'no_ll'
I31
tp53
a(S'w'
I13746
tp54
a(S'p1_tl'
I160
tp55
a(S'p1_ll'
I8
tp56
a(S'w'
I191
tp57
a(S'p2_tl'
I249
tp58
a(S'w'
I1
tp59
a(S'p2_ll'
I8
tp60
a(S'p2_th'
I3
tp61
a(S'w'
I7
tp62
a(S'w'
I1
tp63
a(S'no_ll'
I31
tp64
a(S'w'
I13742
tp65
a(S'p1_tl'
I151
tp66
a(S'p1_ll'
I8
tp67
a(S'w'
I194
tp68
a(S'w'
I1
tp69
a(S'no_np'
I3
tp70
a(S'w'
I1
tp71
a(S'no_ll'
I31
tp72
a(S'w'
I6600
tp73
a(S'w'
I1
tp74
a(S'no_ll'
I31
tp75
a(S'w'
I7146
tp76
a(S'p1_tl'
I127
tp77
a(S'p1_ll'
I8
tp78
a(S'w'
I191
tp79
a(S'p2_tl'
I252
tp80
a(S'w'
I1
tp81
a(S'p2_ll'
I8
tp82
a(S'p2_th'
I1
tp83
a(S'w'
I7
tp84
a(S'w'
I1
tp85
a(S'no_ll'
I31
tp86
a(S'w'
I13742
tp87
a(S'p1_tl'
I95
tp88
a(S'p1_ll'
I8
tp89
a(S'w'
I191
tp90
a(S'p2_tl'
I250
tp91
a(S'w'
I1
tp92
a(S'p2_ll'
I8
tp93
a(S'p2_th'
I2
tp94
a(S'w'
I6
tp95
a(S'w'
I1
tp96
a(S'no_np'
I2
tp97
a(S'w'
I1
tp98
a(S'no_ll'
I31
tp99
a(S'w'
I13933
tp100
a(S'w'
I1
tp101
a(S'no_ll'
I31
tp102
a(S'w'
I13937
tp103
a(S'p2_tl'
I252
tp104
a(S'w'
I1
tp105
a(S'p2_ll'
I8
tp106
a(S'p2_th'
I1
tp107
a(S'w'
I7
tp108
a(S'w'
I1
tp109
a(S'no_ll'
I31
tp110
a(S'w'
I13746
tp111
a(S'p1_tl'
I0
tp112
a(S'p1_ll'
I8
tp113
a(S'w'
I191
tp114
a(S'p2_tl'
I249
tp115
a(S'w'
I1
tp116
a(S'p2_ll'
I8
tp117
a(S'p2_th'
I3
tp118
a(S'w'
I7
tp119
a(S'w'
I1
tp120
a(S'no_ll'
I31
tp121
a(S'w'
I13742
tp122
a(S'p1_tl'
I100
tp123
a(S'p1_ll'
I8
tp124
a(S'w'
I194
tp125
a(S'w'
I1
tp126
a(S'no_np'
I3
tp127
a(S'w'
I1
tp128
a(S'no_ll'
I31
tp129
a(S'w'
I6599
tp130
a(S'w'
I1
tp131
a(S'no_ll'
I31
tp132
a(S'w'
I7146
tp133
a(S'p1_tl'
I95
tp134
a(S'p1_ll'
I8
tp135
a(S'w'
I191
tp136
a(S'p2_tl'
I252
tp137
a(S'w'
I1
tp138
a(S'p2_ll'
I8
tp139
a(S'p2_th'
I1
tp140
a(S'w'
I7
tp141
a(S'w'
I1
tp142
a(S'no_ll'
I31
tp143
a(S'w'
I13742
tp144
a(S'p1_tl'
I84
tp145
a(S'p1_ll'
I8
tp146
a(S'w'
I191
tp147
a(S'p2_tl'
I250
tp148
a(S'w'
I1
tp149
a(S'p2_ll'
I8
tp150
a(S'p2_th'
I2
tp151
a(S'w'
I6
tp152
a(S'w'
I1
tp153
a(S'no_np'
I2
tp154
a(S'w'
I1
tp155
a(S'no_ll'
I31
tp156
a(S'w'
I13742
tp157
a(S'p1_tl'
I95
tp158
a(S'p1_ll'
I8
tp159
a(S'w'
I195
tp160
a(S'w'
I1
tp161
a(S'no_ll'
I31
tp162
a(S'w'
I13746
tp163
a(S'p1_tl'
I100
tp164
a(S'p1_ll'
I8
tp165
a(S'w'
I191
tp166
a(S'p2_tl'
I252
tp167
a(S'w'
I1
tp168
a(S'p2_ll'
I8
tp169
a(S'p2_th'
I1
tp170
a(S'w'
I7
tp171
a(S'w'
I1
tp172
a(S'no_ll'
I31
tp173
a(S'w'
I13742
tp174
a(S'p1_tl'
I95
tp175
a(S'p1_ll'
I8
tp176
a(S'w'
I191
tp177
a(S'p2_tl'
I249
tp178
a(S'w'
I1
tp179
a(S'p2_ll'
I8
tp180
a(S'p2_th'
I3
tp181
a(S'w'
I7
tp182
a(S'w'
I1
tp183
a(S'no_ll'
I31
tp184
a(S'w'
I13742
tp185
a(S'p1_tl'
I151
tp186
a(S'p1_ll'
I8
tp187
a(S'w'
I194
tp188
a(S'w'
I1
tp189
a(S'no_np'
I3
tp190
a(S'w'
I1
tp191
a(S'no_ll'
I31
tp192
a(S'w'
I6599
tp193
a(S'w'
I1
tp194
a(S'no_ll'
I31
tp195
a(S'w'
I7146
tp196
a(S'p1_tl'
I127
tp197
a(S'p1_ll'
I8
tp198
a(S'w'
I191
tp199
a(S'p2_tl'
I252
tp200
a(S'w'
I1
tp201
a(S'p2_ll'
I8
tp202
a(S'p2_th'
I1
tp203
a(S'w'
I7
tp204
a(S'w'
I1
tp205
a(S'no_ll'
I31
tp206
a(S'w'
I13742
tp207
a(S'p1_tl'
I100
tp208
a(S'p1_ll'
I8
tp209
a(S'w'
I191
tp210
a(S'p2_tl'
I250
tp211
a(S'w'
I1
tp212
a(S'p2_ll'
I8
tp213
a(S'p2_th'
I2
tp214
a(S'w'
I6
tp215
a(S'w'
I1
tp216
a(S'no_np'
I2
tp217
a(S'w'
I1
tp218
a(S'no_ll'
I31
tp219
a(S'w'
I13933
tp220
a(S'w'
I1
tp221
a(S'no_ll'
I31
tp222
a(S'w'
I13937
tp223
a(S'p2_tl'
I252
tp224
a(S'w'
I1
tp225
a(S'p2_ll'
I8
tp226
a(S'p2_th'
I1
tp227
a(S'w'
I7
tp228
a(S'w'
I1
tp229
a(S'no_ll'
I31
tp230
a(S'w'
I13933
tp231
a(S'p2_tl'
I249
tp232
a(S'w'
I1
tp233
a(S'p2_ll'
I8
tp234
a(S'p2_th'
I3
tp235
a(S'w'
I7
tp236
a(S'w'
I1
tp237
a(S'no_ll'
I31
tp238
a(S'w'
I13936
tp239
a(S'w'
I1
tp240
a(S'no_np'
I3
tp241
a(S'w'
I1
tp242
a(S'no_ll'
I31
tp243
a(S'w'
I6603
tp244
a(S'w'
I1
tp245
a(S'no_ll'
I31
tp246
a(S'w'
I7333
tp247
a(S'p2_tl'
I252
tp248
a(S'w'
I1
tp249
a(S'p2_ll'
I8
tp250
a(S'p2_th'
I1
tp251
a(S'w'
I7
tp252
a(S'w'
I1
tp253
a(S'no_ll'
I31
tp254
a(S'w'
I13746
tp255
a(S'p1_tl'
I142
tp256
a(S'p1_ll'
I8
tp257
a(S'w'
I191
tp258
a(S'p2_tl'
I167
tp259
a(S'w'
I1
tp260
a(S'p2_ll'
I8
tp261
a(S'p2_th'
I2
tp262
a(S'w'
I6
tp263
a(S'w'
I1
tp264
a(S'no_np'
I2
tp265
a(S'w'
I1
tp266
a(S'no_ll'
I31
tp267
a(S'w'
I13933
tp268
a(S'w'
I1
tp269
a(S'no_ll'
I31
tp270
a(S'w'
I13937
tp271
a(S'p2_tl'
I252
tp272
a(S'w'
I1
tp273
a(S'p2_ll'
I8
tp274
a(S'p2_th'
I1
tp275
a(S'w'
I7
tp276
a(S'w'
I1
tp277
a(S'no_ll'
I31
tp278
a(S'w'
I13746
tp279
a(S'p1_tl'
I151
tp280
a(S'p1_ll'
I8
tp281
a(S'w'
I191
tp282
a(S'p2_tl'
I249
tp283
a(S'w'
I1
tp284
a(S'p2_ll'
I8
tp285
a(S'p2_th'
I3
tp286
a(S'w'
I7
tp287
a(S'w'
I1
tp288
a(S'no_ll'
I31
tp289
a(S'w'
I13742
tp290
a(S'p1_tl'
I142
tp291
a(S'p1_ll'
I8
tp292
a(S'w'
I194
tp293
a(S'w'
I1
tp294
a(S'no_np'
I3
tp295
a(S'w'
I1
tp296
a(S'no_ll'
I31
tp297
a(S'w'
I6600
tp298
a(S'w'
I1
tp299
a(S'no_ll'
I31
tp300
a(S'w'
I7145
tp301
a(S'p1_tl'
I127
tp302
a(S'p1_ll'
I8
tp303
a(S'w'
I191
tp304
a(S'p2_tl'
I252
tp305
a(S'w'
I1
tp306
a(S'p2_ll'
I8
tp307
a(S'p2_th'
I1
tp308
a(S'w'
I7
tp309
a(S'w'
I1
tp310
a(S'no_ll'
I31
tp311
a(S'w'
I13743
tp312
a(S'p1_tl'
I113
tp313
a(S'p1_ll'
I8
tp314
a(S'w'
I191
tp315
a(S'p2_tl'
I167
tp316
a(S'w'
I1
tp317
a(S'p2_ll'
I8
tp318
a(S'p2_th'
I2
tp319
a(S'w'
I6
tp320
a(S'w'
I1
tp321
a(S'no_np'
I2
tp322
a(S'w'
I1
tp323
a(S'no_ll'
I31
tp324
a(S'w'
I13933
tp325
a(S'w'
I1
tp326
a(S'no_ll'
I31
tp327
a(S'w'
I13937
tp328
a(S'p2_tl'
I252
tp329
a(S'w'
I1
tp330
a(S'p2_ll'
I8
tp331
a(S'p2_th'
I1
tp332
a(S'w'
I7
tp333
a(S'w'
I1
tp334
a(S'no_ll'
I31
tp335
a(S'w'
I13746
tp336
a(S'p1_tl'
I0
tp337
a(S'p1_ll'
I8
tp338
a(S'w'
I191
tp339
a(S'p2_tl'
I249
tp340
a(S'w'
I1
tp341
a(S'p2_ll'
I8
tp342
a(S'p2_th'
I3
tp343
a(S'w'
I7
tp344
a(S'w'
I1
tp345
a(S'no_ll'
I31
tp346
a(S'w'
I13742
tp347
a(S'p1_tl'
I106
tp348
a(S'p1_ll'
I8
tp349
a(S'w'
I194
tp350
a(S'w'
I1
tp351
a(S'no_np'
I3
tp352
a(S'w'
I1
tp353
a(S'no_ll'
I31
tp354
a(S'w'
I6599
tp355
a(S'w'
I1
tp356
a(S'no_ll'
I31
tp357
a(S'w'
I7146
tp358
a(S'p1_tl'
I100
tp359
a(S'p1_ll'
I8
tp360
a(S'w'
I191
tp361
a(S'p2_tl'
I252
tp362
a(S'w'
I1
tp363
a(S'p2_ll'
I8
tp364
a(S'p2_th'
I1
tp365
a(S'w'
I7
tp366
a(S'w'
I1
tp367
a(S'no_ll'
I31
tp368
a(S'w'
I13742
tp369
a(S'p1_tl'
I95
tp370
a(S'p1_ll'
I8
tp371
a(S'w'
I191
tp372
a(S'p2_tl'
I167
tp373
a(S'w'
I1
tp374
a(S'p2_ll'
I8
tp375
a(S'p2_th'
I2
tp376
a(S'w'
I6
tp377
a(S'w'
I1
tp378
a(S'no_np'
I2
tp379
a(S'w'
I1
tp380
a(S'no_ll'
I31
tp381
a(S'w'
I13742
tp382
a(S'p1_tl'
I100
tp383
a(S'p1_ll'
I8
tp384
a(S'w'
I195
tp385
a(S'w'
I1
tp386
a(S'no_ll'
I31
tp387
a(S'w'
I13746
tp388
a(S'p1_tl'
I106
tp389
a(S'p1_ll'
I8
tp390
a(S'w'
I191
tp391
a(S'p2_tl'
I252
tp392
a(S'w'
I1
tp393
a(S'p2_ll'
I8
tp394
a(S'p2_th'
I1
tp395
a(S'w'
I7
tp396
a(S'w'
I1
tp397
a(S'no_ll'
I31
tp398
a(S'w'
I13742
tp399
a(S'p1_tl'
I100
tp400
a(S'p1_ll'
I8
tp401
a(S'w'
I191
tp402
a(S'p2_tl'
I249
tp403
a(S'w'
I1
tp404
a(S'p2_ll'
I8
tp405
a(S'p2_th'
I3
tp406
a(S'w'
I7
tp407
a(S'w'
I1
tp408
a(S'no_ll'
I31
tp409
a(S'w'
I13742
tp410
a(S'p1_tl'
I142
tp411
a(S'p1_ll'
I8
tp412
a(S'w'
I194
tp413
a(S'w'
I1
tp414
a(S'no_np'
I3
tp415
a(S'w'
I1
tp416
a(S'no_ll'
I31
tp417
a(S'w'
I6599
tp418
a(S'w'
I1
tp419
a(S'no_ll'
I31
tp420
a(S'w'
I7146
tp421
a(S'p1_tl'
I100
tp422
a(S'p1_ll'
I8
tp423
a(S'w'
I191
tp424
a(S'p2_tl'
I252
tp425
a(S'w'
I1
tp426
a(S'p2_ll'
I8
tp427
a(S'p2_th'
I1
tp428
a(S'w'
I7
tp429
a(S'w'
I1
tp430
a(S'no_ll'
I31
tp431
a(S'w'
I13742
tp432
a(S'p1_tl'
I151
tp433
a(S'p1_ll'
I8
tp434
a(S'w'
I191
tp435
a(S'p2_tl'
I167
tp436
a(S'w'
I1
tp437
a(S'p2_ll'
I8
tp438
a(S'p2_th'
I2
tp439
a(S'w'
I6
tp440
a(S'w'
I1
tp441
a(S'no_np'
I2
tp442
a(S'w'
I1
tp443
a(S'no_ll'
I31
tp444
a(S'w'
I13933
tp445
a(S'w'
I1
tp446
a(S'no_ll'
I31
tp447
a(S'w'
I13937
tp448
a(S'p2_tl'
I252
tp449
a(S'w'
I1
tp450
a(S'p2_ll'
I8
tp451
a(S'p2_th'
I1
tp452
a(S'w'
I7
tp453
a(S'w'
I1
tp454
a(S'no_ll'
I31
tp455
a(S'w'
I13933
tp456
a(S'p2_tl'
I249
tp457
a(S'w'
I1
tp458
a(S'p2_ll'
I8
tp459
a(S'p2_th'
I3
tp460
a(S'w'
I7
tp461
a(S'w'
I1
tp462
a(S'no_ll'
I31
tp463
a(S'w'
I13936
tp464
a(S'w'
I1
tp465
a(S'no_np'
I3
tp466
a(S'w'
I1
tp467
a(S'no_ll'
I31
tp468
a(S'w'
I6603
tp469
a(S'w'
I1
tp470
a(S'no_ll'
I31
tp471
a(S'w'
I7333
tp472
a(S'p2_tl'
I252
tp473
a(S'w'
I1
tp474
a(S'p2_ll'
I8
tp475
a(S'p2_th'
I1
tp476
a(S'w'
I7
tp477
a(S'w'
I1
tp478
a(S'no_ll'
I31
tp479
a(S'w'
I13746
tp480
a(S'p1_ll'
I8
tp481
a(S'w'
I191
tp482
a(S'p2_tl'
I250
tp483
a(S'w'
I1
tp484
a(S'p2_ll'
I8
tp485
a(S'p2_th'
I2
tp486
a(S'w'
I6
tp487
a(S'w'
I1
tp488
a(S'no_np'
I2
tp489
a(S'w'
I1
tp490
a(S'no_ll'
I31
tp491
a(S'w'
I13933
tp492
a(S'w'
I1
tp493
a(S'no_ll'
I31
tp494
a(S'w'
I13937
tp495
a(S'p2_tl'
I252
tp496
a(S'w'
I1
tp497
a(S'p2_ll'
I8
tp498
a(S'p2_th'
I1
tp499
a(S'w'
I7
tp500
a(S'w'
I1
tp501
a(S'no_ll'
I31
tp502
a(S'w'
I13746
tp503
a(S'p1_tl'
I160
tp504
a(S'p1_ll'
I8
tp505
a(S'w'
I191
tp506
a(S'p2_tl'
I249
tp507
a(S'w'
I1
tp508
a(S'p2_ll'
I8
tp509
a(S'p2_th'
I3
tp510
a(S'w'
I7
tp511
a(S'w'
I1
tp512
a(S'no_ll'
I31
tp513
a(S'w'
I13742
tp514
a(S'p1_tl'
I151
tp515
a(S'p1_ll'
I8
tp516
a(S'w'
I194
tp517
a(S'w'
I1
tp518
a(S'no_np'
I3
tp519
a(S'w'
I1
tp520
a(S'no_ll'
I31
tp521
a(S'w'
I6600
tp522
a(S'w'
I1
tp523
a(S'no_ll'
I31
tp524
a(S'w'
I7145
tp525
a(S'p1_tl'
I127
tp526
a(S'p1_ll'
I8
tp527
a(S'w'
I191
tp528
a(S'p2_tl'
I252
tp529
a(S'w'
I1
tp530
a(S'p2_ll'
I8
tp531
a(S'p2_th'
I1
tp532
a(S'w'
I7
tp533
a(S'w'
I1
tp534
a(S'no_ll'
I31
tp535
a(S'w'
I13742
tp536
a(S'p1_tl'
I95
tp537
a(S'p1_ll'
I8
tp538
a(S'w'
I191
tp539
a(S'p2_tl'
I250
tp540
a(S'w'
I1
tp541
a(S'p2_ll'
I8
tp542
a(S'p2_th'
I2
tp543
a(S'w'
I6
tp544
a(S'w'
I1
tp545
a(S'no_np'
I2
tp546
a(S'w'
I1
tp547
a(S'no_ll'
I31
tp548
a(S'w'
I13934
tp549
a(S'w'
I1
tp550
a(S'no_ll'
I31
tp551
a(S'w'
I13937
tp552
a(S'p2_tl'
I252
tp553
a(S'w'
I1
tp554
a(S'p2_ll'
I8
tp555
a(S'p2_th'
I1
tp556
a(S'w'
I7
tp557
a(S'w'
I1
tp558
a(S'no_ll'
I31
tp559
a(S'w'
I13746
tp560
a(S'p1_tl'
I0
tp561
a(S'p1_ll'
I8
tp562
a(S'w'
I191
tp563
a(S'p2_tl'
I249
tp564
a(S'w'
I1
tp565
a(S'p2_ll'
I8
tp566
a(S'p2_th'
I3
tp567
a(S'w'
I7
tp568
a(S'w'
I1
tp569
a(S'no_ll'
I31
tp570
a(S'w'
I13742
tp571
a(S'p1_tl'
I100
tp572
a(S'p1_ll'
I8
tp573
a(S'w'
I194
tp574
a(S'w'
I1
tp575
a(S'no_np'
I3
tp576
a(S'w'
I1
tp577
a(S'no_ll'
I31
tp578
a(S'w'
I6599
tp579
a(S'w'
I1
tp580
a(S'no_ll'
I31
tp581
a(S'w'
I7146
tp582
a(S'p1_tl'
I95
tp583
a(S'p1_ll'
I8
tp584
a(S'w'
I191
tp585
a(S'p2_tl'
I252
tp586
a(S'w'
I1
tp587
a(S'p2_ll'
I8
tp588
a(S'p2_th'
I1
tp589
a(S'w'
I7
tp590
a(S'w'
I1
tp591
a(S'no_ll'
I31
tp592
a(S'w'
I13742
tp593
a(S'p1_tl'
I84
tp594
a(S'p1_ll'
I8
tp595
a(S'w'
I191
tp596
a(S'p2_tl'
I250
tp597
a(S'w'
I1
tp598
a(S'p2_ll'
I8
tp599
a(S'p2_th'
I2
tp600
a(S'w'
I6
tp601
a(S'w'
I1
tp602
a(S'no_np'
I2
tp603
a(S'w'
I1
tp604
a(S'no_ll'
I31
tp605
a(S'w'
I13742
tp606
a(S'p1_tl'
I95
tp607
a(S'p1_ll'
I8
tp608
a(S'w'
I195
tp609
a(S'w'
I1
tp610
a(S'no_ll'
I31
tp611
a(S'w'
I13746
tp612
a(S'p1_tl'
I100
tp613
a(S'p1_ll'
I8
tp614
a(S'w'
I191
tp615
a(S'p2_tl'
I252
tp616
a(S'w'
I1
tp617
a(S'p2_ll'
I8
tp618
a(S'p2_th'
I1
tp619
a(S'w'
I7
tp620
a(S'w'
I1
tp621
a(S'no_ll'
I31
tp622
a(S'w'
I13742
tp623
a(S'p1_tl'
I95
tp624
a(S'p1_ll'
I8
tp625
a(S'w'
I191
tp626
a(S'p2_tl'
I249
tp627
a(S'w'
I1
tp628
a(S'p2_ll'
I8
tp629
a(S'p2_th'
I3
tp630
a(S'w'
I7
tp631
a(S'w'
I1
tp632
a(S'no_ll'
I31
tp633
a(S'w'
I13742
tp634
a(S'p1_tl'
I151
tp635
a(S'p1_ll'
I8
tp636
a(S'w'
I194
tp637
a(S'w'
I1
tp638
a(S'no_np'
I3
tp639
a(S'w'
I1
tp640
a(S'no_ll'
I31
tp641
a(S'w'
I6599
tp642
a(S'w'
I1
tp643
a(S'no_ll'
I31
tp644
a(S'w'
I7146
tp645
a(S'p1_tl'
I127
tp646
a(S'p1_ll'
I8
tp647
a(S'w'
I191
tp648
a(S'p2_tl'
I252
tp649
a(S'w'
I1
tp650
a(S'p2_ll'
I8
tp651
a(S'p2_th'
I1
tp652
a(S'w'
I7
tp653
a(S'w'
I1
tp654
a(S'no_ll'
I31
tp655
a(S'w'
I13742
tp656
a(S'p1_tl'
I100
tp657
a(S'p1_ll'
I8
tp658
a(S'w'
I191
tp659
a(S'p2_tl'
I59
tp660
a(S'w'
I1
tp661
a(S'p2_ll'
I8
tp662
a(S'p2_th'
I2
tp663
a(S'w'
I6
tp664
a(S'w'
I1
tp665
a(S'no_np'
I2
tp666
a(S'w'
I1
tp667
a(S'no_ll'
I31
tp668
a(S'w'
I13933
tp669
a(S'w'
I1
tp670
a(S'no_ll'
I31
tp671
a(S'w'
I13936
tp672
a(S'p2_cv'
I1
tp673
a(S'p2_vo'
I7
tp674
a(S'w'
I1
tp675
a(S'p2_tl'
I29
tp676
a(S'w'
I1
tp677
a(S'p2_ll'
I8
tp678
a(S'p2_th'
I1
tp679
a(S'w'
I7
tp680
a(S'w'
I1
tp681
a(S'no_ll'
I31
tp682
a(S'w'
I13932
tp683
a(S'p2_cv'
I0
tp684
a(S'p2_vo'
I15
tp685
a(S'w'
I1
tp686
a(S'p2_tl'
I59
tp687
a(S'w'
I1
tp688
a(S'p2_ll'
I8
tp689
a(S'p2_th'
I2
tp690
a(S'w'
I7
tp691
a(S'w'
I1
tp692
a(S'no_ll'
I31
tp693
a(S'w'
I13936
tp694
a(S'w'
I1
tp695
a(S'no_np'
I3
tp696
a(S'w'
I1
tp697
a(S'no_ll'
I31
tp698
a(S'w'
I6603
tp699
a(S'w'
I1
tp700
a(S'no_ll'
I31
tp701
a(S'w'
I7332
tp702
a(S'p2_cv'
I1
tp703
a(S'p2_vo'
I7
tp704
a(S'w'
I1
tp705
a(S'p2_tl'
I29
tp706
a(S'w'
I1
tp707
a(S'p2_ll'
I8
tp708
a(S'p2_th'
I1
tp709
a(S'w'
I7
tp710
a(S'w'
I1
tp711
a(S'no_ll'
I31
tp712
a(S'w'
I13746
tp713
a(S'p1_tl'
I113
tp714
a(S'p1_ll'
I8
tp715
a(S'w'
I190
tp716
a(S'p2_cv'
I0
tp717
a(S'p2_vo'
I15
tp718
a(S'w'
I1
tp719
a(S'p2_tl'
I59
tp720
a(S'w'
I1
tp721
a(S'p2_ll'
I8
tp722
a(S'p2_th'
I2
tp723
a(S'w'
I6
tp724
a(S'w'
I1
tp725
a(S'no_np'
I2
tp726
a(S'w'
I1
tp727
a(S'no_ll'
I31
tp728
a(S'w'
I13933
tp729
a(S'w'
I1
tp730
a(S'no_ll'
I31
tp731
a(S'w'
I13936
tp732
a(S'p2_cv'
I1
tp733
a(S'p2_vo'
I7
tp734
a(S'w'
I1
tp735
a(S'p2_tl'
I83
tp736
a(S'w'
I1
tp737
a(S'p2_ll'
I8
tp738
a(S'p2_th'
I1
tp739
a(S'w'
I7
tp740
a(S'w'
I1
tp741
a(S'no_ll'
I31
tp742
a(S'w'
I13746
tp743
a(S'p1_tl'
I169
tp744
a(S'p1_ll'
I8
tp745
a(S'w'
I190
tp746
a(S'p2_cv'
I0
tp747
a(S'p2_vo'
I15
tp748
a(S'w'
I1
tp749
a(S'p2_tl'
I59
tp750
a(S'w'
I1
tp751
a(S'p2_ll'
I8
tp752
a(S'p2_th'
I2
tp753
a(S'w'
I7
tp754
a(S'w'
I1
tp755
a(S'no_ll'
I31
tp756
a(S'w'
I13742
tp757
a(S'p1_tl'
I142
tp758
a(S'p1_ll'
I8
tp759
a(S'w'
I194
tp760
a(S'w'
I1
tp761
a(S'no_np'
I3
tp762
a(S'w'
I1
tp763
a(S'no_ll'
I31
tp764
a(S'w'
I6600
tp765
a(S'w'
I1
tp766
a(S'no_ll'
I31
tp767
a(S'w'
I7145
tp768
a(S'p1_tl'
I113
tp769
a(S'p1_ll'
I8
tp770
a(S'w'
I190
tp771
a(S'p2_cv'
I1
tp772
a(S'p2_vo'
I7
tp773
a(S'w'
I1
tp774
a(S'p2_tl'
I83
tp775
a(S'w'
I1
tp776
a(S'p2_ll'
I8
tp777
a(S'p2_th'
I1
tp778
a(S'w'
I7
tp779
a(S'w'
I1
tp780
a(S'no_ll'
I31
tp781
a(S'w'
I13742
tp782
a(S'p1_tl'
I127
tp783
a(S'p1_ll'
I8
tp784
a(S'w'
I190
tp785
a(S'p2_cv'
I0
tp786
a(S'p2_vo'
I15
tp787
a(S'w'
I1
tp788
a(S'p2_tl'
I252
tp789
a(S'w'
I1
tp790
a(S'p2_ll'
I8
tp791
a(S'w'
I6
tp792
a(S'w'
I1
tp793
a(S'no_np'
I2
tp794
a(S'w'
I1
tp795
a(S'no_ll'
I31
tp796
a(S'w'
I13934
tp797
a(S'w'
I1
tp798
a(S'no_ll'
I31
tp799
a(S'w'
I13936
tp800
a(S'p2_cv'
I1
tp801
a(S'p2_vo'
I7
tp802
a(S'w'
I1
tp803
a(S'p2_tl'
I46
tp804
a(S'w'
I1
tp805
a(S'p2_ll'
I8
tp806
a(S'w'
I7
tp807
a(S'w'
I1
tp808
a(S'no_ll'
I31
tp809
a(S'w'
I13746
tp810
a(S'p1_tl'
I0
tp811
a(S'p1_ll'
I8
tp812
a(S'w'
I190
tp813
a(S'p2_cv'
I0
tp814
a(S'p2_vo'
I15
tp815
a(S'w'
I1
tp816
a(S'p2_tl'
I252
tp817
a(S'w'
I1
tp818
a(S'p2_ll'
I8
tp819
a(S'w'
I7
tp820
a(S'w'
I1
tp821
a(S'no_ll'
I31
tp822
a(S'w'
I13742
tp823
a(S'p1_tl'
I142
tp824
a(S'p1_ll'
I8
tp825
a(S'w'
I194
tp826
a(S'w'
I1
tp827
a(S'no_np'
I3
tp828
a(S'w'
I1
tp829
a(S'no_ll'
I31
tp830
a(S'w'
I6599
tp831
a(S'w'
I1
tp832
a(S'no_ll'
I31
tp833
a(S'w'
I7146
tp834
a(S'p1_tl'
I151
tp835
a(S'p1_ll'
I8
tp836
a(S'w'
I190
tp837
a(S'p2_cv'
I1
tp838
a(S'p2_vo'
I7
tp839
a(S'w'
I1
tp840
a(S'p2_tl'
I46
tp841
a(S'w'
I1
tp842
a(S'p2_ll'
I8
tp843
a(S'w'
I7
tp844
a(S'w'
I1
tp845
a(S'no_ll'
I31
tp846
a(S'w'
I13742
tp847
a(S'p1_tl'
I169
tp848
a(S'p1_ll'
I8
tp849
a(S'w'
I190
tp850
a(S'p2_cv'
I0
tp851
a(S'p2_vo'
I15
tp852
a(S'w'
I1
tp853
a(S'p2_tl'
I252
tp854
a(S'w'
I1
tp855
a(S'p2_ll'
I8
tp856
a(S'w'
I6
tp857
a(S'w'
I1
tp858
a(S'no_np'
I2
tp859
a(S'w'
I1
tp860
a(S'no_ll'
I31
tp861
a(S'w'
I13742
tp862
a(S'p1_tl'
I190
tp863
a(S'p1_ll'
I8
tp864
a(S'w'
I195
tp865
a(S'w'
I1
tp866
a(S'no_ll'
I31
tp867
a(S'w'
I13746
tp868
a(S'p1_tl'
I201
tp869
a(S'p1_ll'
I8
tp870
a(S'w'
I190
tp871
a(S'p2_cv'
I1
tp872
a(S'p2_vo'
I7
tp873
a(S'w'
I1
tp874
a(S'p2_tl'
I83
tp875
a(S'w'
I1
tp876
a(S'p2_ll'
I8
tp877
a(S'w'
I7
tp878
a(S'w'
I1
tp879
a(S'no_ll'
I31
tp880
a(S'w'
I13742
tp881
a(S'p1_tl'
I226
tp882
a(S'p1_ll'
I8
tp883
a(S'w'
I190
tp884
a(S'p2_cv'
I0
tp885
a(S'p2_vo'
I15
tp886
a(S'w'
I1
tp887
a(S'p2_tl'
I252
tp888
a(S'w'
I1
tp889
a(S'p2_ll'
I8
tp890
a(S'w'
I7
tp891
a(S'w'
I1
tp892
a(S'no_ll'
I31
tp893
a(S'w'
I13742
tp894
a(S'p1_tl'
I201
tp895
a(S'p1_ll'
I8
tp896
a(S'w'
I194
tp897
a(S'w'
I1
tp898
a(S'no_np'
I3
tp899
a(S'w'
I1
tp900
a(S'no_ll'
I31
tp901
a(S'w'
I6599
tp902
a(S'w'
I1
tp903
a(S'no_ll'
I31
tp904
a(S'w'
I7146
tp905
a(S'p1_tl'
I169
tp906
a(S'p1_ll'
I8
tp907
a(S'w'
I190
tp908
a(S'p2_cv'
I1
tp909
a(S'p2_vo'
I7
tp910
a(S'w'
I1
tp911
a(S'p2_tl'
I83
tp912
a(S'w'
I1
tp913
a(S'p2_ll'
I8
tp914
a(S'w'
I7
tp915
a(S'w'
I1
tp916
a(S'no_ll'
I31
tp917
a(S'w'
I13742
tp918
a(S'p1_tl'
I190
tp919
a(S'p1_ll'
I8
tp920
a(S'w'
I191
tp921
a(S'p2_tl'
I125
tp922
a(S'w'
I1
tp923
a(S'p2_ll'
I8
tp924
a(S'w'
I6
tp925
a(S'w'
I1
tp926
a(S'no_np'
I2
tp927
a(S'w'
I1
tp928
a(S'no_ll'
I31
tp929
a(S'w'
I13928
tp930
a(S'p2_cv'
I0
tp931
a(S'p2_vo'
I15
tp932
a(S'w'
I1
tp933
a(S'p2_tl'
I252
tp934
a(S'w'
I1
tp935
a(S'p2_ll'
I8
tp936
a(S'w'
I7
tp937
a(S'w'
I1
tp938
a(S'no_ll'
I31
tp939
a(S'w'
I13933
tp940
a(S'p2_tl'
I93
tp941
a(S'w'
I1
tp942
a(S'p2_ll'
I8
tp943
a(S'p2_th'
I2
tp944
a(S'w'
I7
tp945
a(S'w'
I1
tp946
a(S'no_ll'
I31
tp947
a(S'w'
I13933
tp948
a(S'p2_tl'
I250
tp949
a(S'w'
I1
tp950
a(S'p2_ll'
I8
tp951
a(S'w'
I7
tp952
a(S'w'
I1
tp953
a(S'no_ll'
I31
tp954
a(S'w'
I13936
tp955
a(S'w'
I1
tp956
a(S'no_np'
I3
tp957
a(S'w'
I1
tp958
a(S'no_ll'
I31
tp959
a(S'w'
I6603
tp960
a(S'w'
I1
tp961
a(S'no_ll'
I31
tp962
a(S'w'
I7337
tp963
a(S'w'
I1
tp964
a(S'no_ll'
I31
tp965
a(S'w'
I13748
tp966
a.