(lp1
(S'clock'
p2
I1789773
tp3
a(S'ch_no'
I1
tp4
a(S'ch_tr'
I1
tp5
a(S'ch_p2'
I1
tp6
a(S'ch_p1'
I1
tp7
a(S'p1_du'
I1
tp8
a(S'p1_lh'
I1
tp9
a(S'p1_cv'
I1
tp10
a(S'p2_du'
I1
tp11
a(S'p2_lh'
I1
tp12
a(S'p2_cv'
I1
tp13
a(S'tr_lr'
I112
tp14
a(S'w'
I796
tp15
a(S'p1_du'
I2
tp16
a(S'p1_lh'
I0
tp17
a(S'p1_cv'
I0
tp18
a(S'p1_vo'
I7
tp19
a(S'w'
I1
tp20
a(S'p1_sp'
I7
tp21
a(S'p1_sn'
I1
tp22
a(S'p1_tl'
I190
tp23
a(S'w'
I1
tp24
a(S'p1_ll'
I8
tp25
a(S'w'
I5
tp26
a(S'p2_du'
I2
tp27
a(S'p2_lh'
I0
tp28
a(S'p2_cv'
I0
tp29
a(S'p2_vo'
I7
tp30
a(S'w'
I1
tp31
a(S'p2_sp'
I7
tp32
a(S'p2_sn'
I1
tp33
a(S'w'
I1
tp34
a(S'p2_ll'
I8
tp35
a(S'w'
I6
tp36
a(S'tr_lr'
I79
tp37
a(S'w'
I1
tp38
a(S'w'
I1
tp39
a(S'w'
I1
tp40
a(S'tr_ll'
I8
tp41
a(S'w'
I5858
tp42
a(S'p2_tl'
I64
tp43
a(S'p2_ll'
I8
tp44
a(S'p2_th'
I1
tp45
a(S'w'
I8
tp46
a(S'tr_tl'
I240
tp47
a(S'tr_ll'
I8
tp48
a(S'w'
I11728
tp49
a(S'w'
I1
tp50
a(S'p1_ll'
I8
tp51
a(S'w'
I5874
tp52
a(S'p2_ll'
I8
tp53
a(S'w'
I8
tp54
a(S'tr_ll'
I8
tp55
a(S'w'
I11728
tp56
a(S'p1_tl'
I160
tp57
a(S'w'
I1
tp58
a(S'p1_ll'
I8
tp59
a(S'w'
I11740
tp60
a(S'p1_tl'
I169
tp61
a(S'w'
I1
tp62
a(S'p1_ll'
I8
tp63
a(S'w'
I5873
tp64
a(S'p2_tl'
I29
tp65
a(S'p2_ll'
I8
tp66
a(S'w'
I8
tp67
a(S'tr_tl'
I213
tp68
a(S'tr_ll'
I8
tp69
a(S'w'
I11729
tp70
a(S'w'
I1
tp71
a(S'p1_ll'
I8
tp72
a(S'w'
I5873
tp73
a(S'p2_ll'
I8
tp74
a(S'w'
I8
tp75
a(S'tr_ll'
I8
tp76
a(S'w'
I11729
tp77
a(S'p1_tl'
I142
tp78
a(S'w'
I1
tp79
a(S'p1_ll'
I8
tp80
a(S'w'
I11740
tp81
a(S'p1_tl'
I80
tp82
a(S'w'
I1
tp83
a(S'p1_ll'
I8
tp84
a(S'w'
I7
tp85
a(S'p2_tl'
I160
tp86
a(S'p2_ll'
I8
tp87
a(S'p2_th'
I0
tp88
a(S'w'
I8
tp89
a(S'tr_tl'
I64
tp90
a(S'w'
I1
tp91
a(S'tr_ll'
I8
tp92
a(S'tr_th'
I1
tp93
a(S'w'
I11723
tp94
a(S'p1_tl'
I127
tp95
a(S'w'
I1
tp96
a(S'p1_ll'
I8
tp97
a(S'w'
I7
tp98
a(S'p2_tl'
I254
tp99
a(S'p2_ll'
I8
tp100
a(S'w'
I8
tp101
a(S'tr_tl'
I252
tp102
a(S'w'
I1
tp103
a(S'tr_ll'
I8
tp104
a(S'w'
I11724
tp105
a(S'p1_tl'
I80
tp106
a(S'w'
I1
tp107
a(S'p1_ll'
I8
tp108
a(S'w'
I7
tp109
a(S'p2_tl'
I64
tp110
a(S'p2_ll'
I8
tp111
a(S'p2_th'
I1
tp112
a(S'w'
I8
tp113
a(S'tr_tl'
I64
tp114
a(S'w'
I1
tp115
a(S'tr_ll'
I8
tp116
a(S'w'
I11724
tp117
a(S'p1_tl'
I127
tp118
a(S'w'
I1
tp119
a(S'p1_ll'
I8
tp120
a(S'w'
I7
tp121
a(S'p2_tl'
I252
tp122
a(S'p2_ll'
I8
tp123
a(S'w'
I8
tp124
a(S'tr_tl'
I252
tp125
a(S'w'
I1
tp126
a(S'tr_ll'
I8
tp127
a(S'w'
I11723
tp128
a(S'p1_tl'
I80
tp129
a(S'w'
I1
tp130
a(S'p1_ll'
I8
tp131
a(S'w'
I7
tp132
a(S'p2_tl'
I129
tp133
a(S'p2_ll'
I8
tp134
a(S'p2_th'
I2
tp135
a(S'w'
I8
tp136
a(S'tr_tl'
I129
tp137
a(S'w'
I1
tp138
a(S'tr_ll'
I8
tp139
a(S'tr_th'
I2
tp140
a(S'w'
I78458
tp141
a.