(lp1
(S'clock'
p2
I1789772
tp3
a(S'ch_no'
I0
tp4
a(S'ch_tr'
I0
tp5
a(S'ch_p2'
I0
tp6
a(S'ch_p1'
I0
tp7
a(S'ch_no'
I0
tp8
a(S'ch_tr'
I1
tp9
a(S'ch_p2'
I1
tp10
a(S'ch_p1'
I1
tp11
a(S'w'
I1
tp12
a(S'p1_cv'
I1
tp13
a(S'p1_vo'
I15
tp14
a(S'p1_sn'
I1
tp15
a(S'p1_tl'
I105
tp16
a(S'w'
I1
tp17
a(S'p1_ll'
I1
tp18
a(S'p2_cv'
I1
tp19
a(S'p2_vo'
I15
tp20
a(S'w'
I1
tp21
a(S'p2_sn'
I1
tp22
a(S'p2_tl'
I61
tp23
a(S'p2_ll'
I1
tp24
a(S'p2_th'
I1
tp25
a(S'w'
I1
tp26
a(S'tr_lr'
I95
tp27
a(S'w'
I1
tp28
a(S'tr_tl'
I52
tp29
a(S'tr_ll'
I1
tp30
a(S'w'
I5760
tp31
a(S'p1_vo'
I9
tp32
a(S'w'
I1
tp33
a(S'p2_vo'
I8
tp34
a(S'p2_tl'
I211
tp35
a(S'w'
I1
tp36
a(S'p2_ll'
I1
tp37
a(S'p2_th'
I0
tp38
a(S'w'
I1
tp39
a(S'tr_tl'
I70
tp40
a(S'tr_ll'
I1
tp41
a(S'w'
I1
tp42
a(S'w'
I688
tp43
a(S'ch_no'
I0
tp44
a(S'ch_tr'
I1
tp45
a(S'ch_p2'
I1
tp46
a(S'ch_p1'
I1
tp47
a(S'w'
I1
tp48
a(S'w'
I1
tp49
a(S'w'
I5164
tp50
a(S'p1_vo'
I8
tp51
a(S'w'
I1
tp52
a(S'p2_vo'
I7
tp53
a(S'w'
I2
tp54
a(S'tr_tl'
I52
tp55
a(S'tr_ll'
I1
tp56
a(S'w'
I5862
tp57
a(S'p1_vo'
I7
tp58
a(S'w'
I1
tp59
a(S'p2_vo'
I6
tp60
a(S'w'
I2
tp61
a(S'tr_tl'
I70
tp62
a(S'w'
I1
tp63
a(S'tr_ll'
I1
tp64
a(S'w'
I5887
tp65
a(S'p1_vo'
I10
tp66
a(S'w'
I1
tp67
a(S'p1_tl'
I70
tp68
a(S'p1_ll'
I1
tp69
a(S'w'
I1
tp70
a(S'p2_vo'
I5
tp71
a(S'w'
I1
tp72
a(S'tr_tl'
I52
tp73
a(S'w'
I1
tp74
a(S'tr_ll'
I1
tp75
a(S'w'
I5861
tp76
a(S'p1_vo'
I9
tp77
a(S'w'
I1
tp78
a(S'p2_vo'
I8
tp79
a(S'w'
I1
tp80
a(S'p2_tl'
I141
tp81
a(S'p2_ll'
I1
tp82
a(S'w'
I1
tp83
a(S'tr_tl'
I70
tp84
a(S'tr_ll'
I1
tp85
a(S'w'
I5858
tp86
a(S'p1_vo'
I8
tp87
a(S'w'
I1
tp88
a(S'p2_vo'
I7
tp89
a(S'w'
I2
tp90
a(S'tr_tl'
I52
tp91
a(S'tr_ll'
I1
tp92
a(S'w'
I5862
tp93
a(S'p1_vo'
I7
tp94
a(S'w'
I1
tp95
a(S'p2_vo'
I6
tp96
a(S'w'
I2
tp97
a(S'tr_tl'
I70
tp98
a(S'tr_ll'
I1
tp99
a(S'w'
I5887
tp100
a(S'p1_vo'
I10
tp101
a(S'w'
I1
tp102
a(S'p1_tl'
I52
tp103
a(S'p1_ll'
I1
tp104
a(S'w'
I1
tp105
a(S'p2_vo'
I5
tp106
a(S'w'
I2
tp107
a(S'tr_tl'
I52
tp108
a(S'tr_ll'
I1
tp109
a(S'w'
I5861
tp110
a(S'p1_vo'
I9
tp111
a(S'w'
I1
tp112
a(S'p2_vo'
I8
tp113
a(S'w'
I1
tp114
a(S'p2_tl'
I105
tp115
a(S'p2_ll'
I1
tp116
a(S'w'
I2
tp117
a(S'tr_tl'
I70
tp118
a(S'tr_ll'
I1
tp119
a(S'w'
I5858
tp120
a(S'p1_vo'
I8
tp121
a(S'w'
I1
tp122
a(S'p2_vo'
I7
tp123
a(S'w'
I1
tp124
a(S'tr_tl'
I52
tp125
a(S'w'
I1
tp126
a(S'tr_ll'
I1
tp127
a(S'w'
I5862
tp128
a(S'p1_vo'
I7
tp129
a(S'w'
I1
tp130
a(S'p2_vo'
I6
tp131
a(S'w'
I2
tp132
a(S'tr_tl'
I70
tp133
a(S'tr_ll'
I1
tp134
a(S'w'
I5887
tp135
a(S'p1_vo'
I10
tp136
a(S'w'
I1
tp137
a(S'p1_tl'
I70
tp138
a(S'p1_ll'
I1
tp139
a(S'w'
I1
tp140
a(S'p2_vo'
I5
tp141
a(S'w'
I2
tp142
a(S'tr_tl'
I52
tp143
a(S'tr_ll'
I1
tp144
a(S'w'
I5861
tp145
a(S'p1_vo'
I9
tp146
a(S'w'
I1
tp147
a(S'p2_vo'
I8
tp148
a(S'w'
I1
tp149
a(S'p2_tl'
I141
tp150
a(S'p2_ll'
I1
tp151
a(S'w'
I2
tp152
a(S'tr_tl'
I70
tp153
a(S'tr_ll'
I1
tp154
a(S'w'
I5857
tp155
a(S'p1_vo'
I8
tp156
a(S'w'
I1
tp157
a(S'p2_vo'
I7
tp158
a(S'w'
I2
tp159
a(S'tr_tl'
I52
tp160
a(S'tr_ll'
I1
tp161
a(S'w'
I5862
tp162
a(S'p1_vo'
I7
tp163
a(S'w'
I1
tp164
a(S'p2_vo'
I6
tp165
a(S'w'
I2
tp166
a(S'tr_tl'
I70
tp167
a(S'tr_ll'
I1
tp168
a(S'w'
I5888
tp169
a(S'p1_vo'
I10
tp170
a(S'w'
I1
tp171
a(S'p1_tl'
I84
tp172
a(S'p1_ll'
I1
tp173
a(S'p2_vo'
I5
tp174
a(S'w'
I2
tp175
a(S'tr_tl'
I52
tp176
a(S'tr_ll'
I1
tp177
a(S'w'
I5862
tp178
a(S'p1_vo'
I9
tp179
a(S'w'
I1
tp180
a(S'p2_vo'
I8
tp181
a(S'w'
I1
tp182
a(S'p2_tl'
I168
tp183
a(S'p2_ll'
I1
tp184
a(S'w'
I1
tp185
a(S'tr_tl'
I70
tp186
a(S'tr_ll'
I1
tp187
a(S'w'
I5858
tp188
a(S'p1_vo'
I8
tp189
a(S'w'
I1
tp190
a(S'p2_vo'
I7
tp191
a(S'w'
I2
tp192
a(S'tr_tl'
I52
tp193
a(S'tr_ll'
I1
tp194
a(S'w'
I5862
tp195
a(S'p1_vo'
I7
tp196
a(S'w'
I1
tp197
a(S'p2_vo'
I6
tp198
a(S'w'
I2
tp199
a(S'tr_tl'
I70
tp200
a(S'tr_ll'
I1
tp201
a(S'w'
I5887
tp202
a(S'p1_vo'
I10
tp203
a(S'w'
I1
tp204
a(S'p1_tl'
I105
tp205
a(S'p1_ll'
I1
tp206
a(S'w'
I1
tp207
a(S'p2_vo'
I5
tp208
a(S'w'
I2
tp209
a(S'tr_tl'
I52
tp210
a(S'tr_ll'
I1
tp211
a(S'w'
I5861
tp212
a(S'p1_vo'
I9
tp213
a(S'w'
I1
tp214
a(S'p2_vo'
I8
tp215
a(S'w'
I1
tp216
a(S'p2_tl'
I211
tp217
a(S'p2_ll'
I1
tp218
a(S'w'
I2
tp219
a(S'tr_tl'
I70
tp220
a(S'tr_ll'
I1
tp221
a(S'w'
I5857
tp222
a(S'p1_vo'
I8
tp223
a(S'w'
I2
tp224
a(S'p2_vo'
I7
tp225
a(S'w'
I1
tp226
a(S'tr_tl'
I52
tp227
a(S'w'
I1
tp228
a(S'tr_ll'
I1
tp229
a(S'w'
I5862
tp230
a(S'p1_vo'
I7
tp231
a(S'w'
I1
tp232
a(S'p2_vo'
I6
tp233
a(S'w'
I1
tp234
a(S'tr_tl'
I70
tp235
a(S'w'
I1
tp236
a(S'tr_ll'
I1
tp237
a(S'w'
I5887
tp238
a(S'p1_vo'
I10
tp239
a(S'w'
I1
tp240
a(S'p1_tl'
I118
tp241
a(S'p1_ll'
I1
tp242
a(S'p2_vo'
I5
tp243
a(S'w'
I2
tp244
a(S'tr_tl'
I52
tp245
a(S'tr_ll'
I1
tp246
a(S'w'
I5862
tp247
a(S'p1_vo'
I9
tp248
a(S'w'
I1
tp249
a(S'p2_vo'
I8
tp250
a(S'p2_tl'
I237
tp251
a(S'w'
I1
tp252
a(S'p2_ll'
I1
tp253
a(S'w'
I1
tp254
a(S'tr_tl'
I70
tp255
a(S'tr_ll'
I1
tp256
a(S'w'
I5862
tp257
a(S'p1_vo'
I8
tp258
a(S'w'
I1
tp259
a(S'p2_vo'
I7
tp260
a(S'w'
I2
tp261
a(S'tr_tl'
I59
tp262
a(S'tr_ll'
I1
tp263
a(S'w'
I5858
tp264
a(S'p1_vo'
I7
tp265
a(S'w'
I1
tp266
a(S'p2_vo'
I6
tp267
a(S'w'
I2
tp268
a(S'tr_tl'
I79
tp269
a(S'tr_ll'
I1
tp270
a(S'w'
I5888
tp271
a(S'p1_vo'
I10
tp272
a(S'p1_tl'
I79
tp273
a(S'w'
I1
tp274
a(S'p1_ll'
I1
tp275
a(S'p2_vo'
I5
tp276
a(S'w'
I2
tp277
a(S'tr_tl'
I59
tp278
a(S'tr_ll'
I1
tp279
a(S'w'
I5862
tp280
a(S'p1_vo'
I9
tp281
a(S'w'
I1
tp282
a(S'p2_vo'
I8
tp283
a(S'w'
I1
tp284
a(S'p2_tl'
I158
tp285
a(S'p2_ll'
I1
tp286
a(S'w'
I1
tp287
a(S'tr_tl'
I79
tp288
a(S'tr_ll'
I1
tp289
a(S'w'
I5858
tp290
a(S'p1_vo'
I8
tp291
a(S'w'
I1
tp292
a(S'p2_vo'
I7
tp293
a(S'w'
I2
tp294
a(S'tr_tl'
I59
tp295
a(S'tr_ll'
I1
tp296
a(S'w'
I5862
tp297
a(S'p1_vo'
I7
tp298
a(S'w'
I1
tp299
a(S'p2_vo'
I6
tp300
a(S'w'
I2
tp301
a(S'tr_tl'
I79
tp302
a(S'tr_ll'
I1
tp303
a(S'w'
I5887
tp304
a(S'p1_vo'
I10
tp305
a(S'w'
I1
tp306
a(S'p1_tl'
I59
tp307
a(S'p1_ll'
I1
tp308
a(S'w'
I1
tp309
a(S'p2_vo'
I5
tp310
a(S'w'
I2
tp311
a(S'tr_tl'
I59
tp312
a(S'tr_ll'
I1
tp313
a(S'w'
I5861
tp314
a(S'p1_vo'
I9
tp315
a(S'w'
I1
tp316
a(S'p2_vo'
I8
tp317
a(S'w'
I1
tp318
a(S'p2_tl'
I118
tp319
a(S'p2_ll'
I1
tp320
a(S'w'
I2
tp321
a(S'tr_tl'
I79
tp322
a(S'tr_ll'
I1
tp323
a(S'w'
I5857
tp324
a(S'p1_vo'
I8
tp325
a(S'w'
I2
tp326
a(S'p2_vo'
I7
tp327
a(S'w'
I1
tp328
a(S'tr_tl'
I59
tp329
a(S'w'
I1
tp330
a(S'tr_ll'
I1
tp331
a(S'w'
I5862
tp332
a(S'p1_vo'
I7
tp333
a(S'w'
I1
tp334
a(S'p2_vo'
I6
tp335
a(S'w'
I1
tp336
a(S'tr_tl'
I79
tp337
a(S'w'
I1
tp338
a(S'tr_ll'
I1
tp339
a(S'w'
I5887
tp340
a(S'p1_vo'
I10
tp341
a(S'w'
I1
tp342
a(S'p1_tl'
I79
tp343
a(S'p1_ll'
I1
tp344
a(S'w'
I1
tp345
a(S'p2_vo'
I5
tp346
a(S'w'
I2
tp347
a(S'tr_tl'
I59
tp348
a(S'tr_ll'
I1
tp349
a(S'w'
I5861
tp350
a(S'p1_vo'
I9
tp351
a(S'w'
I1
tp352
a(S'p2_vo'
I8
tp353
a(S'w'
I1
tp354
a(S'p2_tl'
I158
tp355
a(S'p2_ll'
I1
tp356
a(S'w'
I1
tp357
a(S'tr_tl'
I79
tp358
a(S'w'
I1
tp359
a(S'tr_ll'
I1
tp360
a(S'w'
I5857
tp361
a(S'p1_vo'
I8
tp362
a(S'w'
I1
tp363
a(S'p2_vo'
I7
tp364
a(S'w'
I2
tp365
a(S'tr_tl'
I59
tp366
a(S'tr_ll'
I1
tp367
a(S'w'
I5862
tp368
a(S'p1_vo'
I7
tp369
a(S'w'
I1
tp370
a(S'p2_vo'
I6
tp371
a(S'w'
I2
tp372
a(S'tr_tl'
I79
tp373
a(S'tr_ll'
I1
tp374
a(S'w'
I5887
tp375
a(S'p1_vo'
I10
tp376
a(S'w'
I1
tp377
a(S'p1_tl'
I94
tp378
a(S'p1_ll'
I1
tp379
a(S'w'
I1
tp380
a(S'p2_vo'
I5
tp381
a(S'w'
I2
tp382
a(S'tr_tl'
I59
tp383
a(S'tr_ll'
I1
tp384
a(S'w'
I5861
tp385
a(S'p1_vo'
I9
tp386
a(S'w'
I1
tp387
a(S'p2_vo'
I8
tp388
a(S'w'
I1
tp389
a(S'p2_tl'
I188
tp390
a(S'p2_ll'
I1
tp391
a(S'w'
I2
tp392
a(S'tr_tl'
I79
tp393
a(S'tr_ll'
I1
tp394
a(S'w'
I5858
tp395
a(S'p1_vo'
I8
tp396
a(S'w'
I1
tp397
a(S'p2_vo'
I7
tp398
a(S'w'
I2
tp399
a(S'tr_tl'
I59
tp400
a(S'tr_ll'
I1
tp401
a(S'w'
I5862
tp402
a(S'p1_vo'
I7
tp403
a(S'w'
I1
tp404
a(S'p2_vo'
I6
tp405
a(S'w'
I2
tp406
a(S'tr_tl'
I79
tp407
a(S'tr_ll'
I1
tp408
a(S'w'
I5887
tp409
a(S'p1_vo'
I10
tp410
a(S'w'
I1
tp411
a(S'p1_tl'
I118
tp412
a(S'p1_ll'
I1
tp413
a(S'w'
I1
tp414
a(S'p2_vo'
I5
tp415
a(S'w'
I1
tp416
a(S'tr_tl'
I59
tp417
a(S'w'
I1
tp418
a(S'tr_ll'
I1
tp419
a(S'w'
I5861
tp420
a(S'p1_vo'
I9
tp421
a(S'w'
I1
tp422
a(S'p2_vo'
I8
tp423
a(S'w'
I1
tp424
a(S'p2_tl'
I237
tp425
a(S'p2_ll'
I1
tp426
a(S'w'
I1
tp427
a(S'tr_tl'
I79
tp428
a(S'w'
I1
tp429
a(S'tr_ll'
I1
tp430
a(S'w'
I5857
tp431
a(S'p1_vo'
I8
tp432
a(S'w'
I1
tp433
a(S'p2_vo'
I7
tp434
a(S'w'
I2
tp435
a(S'tr_tl'
I59
tp436
a(S'tr_ll'
I1
tp437
a(S'w'
I5862
tp438
a(S'p1_vo'
I7
tp439
a(S'w'
I2
tp440
a(S'p2_vo'
I6
tp441
a(S'w'
I1
tp442
a(S'tr_tl'
I79
tp443
a(S'w'
I1
tp444
a(S'tr_ll'
I1
tp445
a(S'w'
I5907
tp446
a(S'p1_vo'
I10
tp447
a(S'p1_tl'
I105
tp448
a(S'w'
I1
tp449
a(S'p1_ll'
I1
tp450
a(S'p2_vo'
I5
tp451
a(S'w'
I2
tp452
a(S'tr_tl'
I59
tp453
a(S'tr_ll'
I1
tp454
a(S'w'
I5849
tp455
a(S'p1_vo'
I9
tp456
a(S'w'
I2
tp457
a(S'p2_vo'
I8
tp458
a(S'p2_tl'
I211
tp459
a(S'w'
I1
tp460
a(S'p2_ll'
I1
tp461
a(S'w'
I1
tp462
a.