(lp1
(S'clock'
p2
I1789772
tp3
a(S'ch_no'
I0
tp4
a(S'ch_tr'
I0
tp5
a(S'ch_p2'
I0
tp6
a(S'ch_p1'
I0
tp7
a(S'ch_no'
I0
tp8
a(S'ch_tr'
I1
tp9
a(S'ch_p2'
I0
tp10
a(S'ch_p1'
I1
tp11
a(S'p1_cv'
I1
tp12
a(S'p1_vo'
I11
tp13
a(S'w'
I1
tp14
a(S'p1_sn'
I1
tp15
a(S'p1_tl'
I200
tp16
a(S'p1_ll'
I1
tp17
a(S'p1_th'
I2
tp18
a(S'w'
I1
tp19
a(S'p2_cv'
I1
tp20
a(S'p2_vo'
I11
tp21
a(S'w'
I1
tp22
a(S'tr_lr'
I23
tp23
a(S'w'
I1
tp24
a(S'tr_tl'
I100
tp25
a(S'tr_ll'
I1
tp26
a(S'tr_th'
I1
tp27
a(S'w'
I2035
tp28
a(S'tr_tl'
I219
tp29
a(S'tr_ll'
I1
tp30
a(S'w'
I2207
tp31
a(S'tr_tl'
I100
tp32
a(S'tr_ll'
I1
tp33
a(S'w'
I1452
tp34
a(S'p1_vo'
I10
tp35
a(S'w'
I743
tp36
a(S'tr_tl'
I219
tp37
a(S'w'
I1
tp38
a(S'tr_ll'
I1
tp39
a(S'w'
I725
tp40
a(S'p2_vo'
I10
tp41
a(S'w'
I1481
tp42
a(S'tr_tl'
I100
tp43
a(S'w'
I1
tp44
a(S'tr_ll'
I1
tp45
a(S'w'
I2195
tp46
a(S'tr_tl'
I219
tp47
a(S'tr_ll'
I1
tp48
a(S'w'
I724
tp49
a(S'p1_vo'
I9
tp50
a(S'w'
I1483
tp51
a(S'tr_tl'
I100
tp52
a(S'tr_ll'
I1
tp53
a(S'w'
I1454
tp54
a(S'p2_vo'
I9
tp55
a(S'w'
I742
tp56
a(S'tr_tl'
I219
tp57
a(S'tr_ll'
I1
tp58
a(S'w'
I2210
tp59
a(S'p1_vo'
I8
tp60
a(S'w'
I2
tp61
a(S'tr_tl'
I100
tp62
a(S'w'
I1
tp63
a(S'tr_ll'
I1
tp64
a(S'w'
I2190
tp65
a(S'tr_tl'
I219
tp66
a(S'tr_ll'
I1
tp67
a(S'w'
I2207
tp68
a(S'tr_tl'
I100
tp69
a(S'tr_ll'
I1
tp70
a(S'w'
I1452
tp71
a(S'p1_vo'
I7
tp72
a(S'w'
I744
tp73
a(S'tr_tl'
I219
tp74
a(S'tr_ll'
I1
tp75
a(S'w'
I2207
tp76
a(S'tr_tl'
I100
tp77
a(S'tr_ll'
I1
tp78
a(S'w'
I2195
tp79
a(S'tr_tl'
I219
tp80
a(S'w'
I1
tp81
a(S'tr_ll'
I1
tp82
a(S'w'
I724
tp83
a(S'p1_vo'
I6
tp84
a(S'w'
I1482
tp85
a(S'tr_tl'
I100
tp86
a(S'w'
I1
tp87
a(S'tr_ll'
I1
tp88
a(S'w'
I2195
tp89
a(S'tr_tl'
I219
tp90
a(S'tr_ll'
I1
tp91
a(S'w'
I2210
tp92
a(S'p1_vo'
I5
tp93
a(S'w'
I3
tp94
a(S'tr_tl'
I100
tp95
a(S'tr_ll'
I1
tp96
a(S'w'
I2190
tp97
a(S'tr_tl'
I219
tp98
a(S'tr_ll'
I1
tp99
a(S'w'
I2207
tp100
a(S'tr_tl'
I100
tp101
a(S'tr_ll'
I1
tp102
a(S'w'
I1452
tp103
a(S'p1_vo'
I4
tp104
a(S'w'
I744
tp105
a(S'tr_tl'
I219
tp106
a(S'tr_ll'
I1
tp107
a(S'w'
I2207
tp108
a(S'tr_tl'
I100
tp109
a(S'tr_ll'
I1
tp110
a(S'w'
I2196
tp111
a(S'tr_tl'
I219
tp112
a(S'tr_ll'
I1
tp113
a(S'w'
I724
tp114
a(S'p1_vo'
I3
tp115
a(S'w'
I1483
tp116
a(S'tr_tl'
I100
tp117
a(S'tr_ll'
I1
tp118
a(S'w'
I2195
tp119
a(S'tr_tl'
I219
tp120
a(S'w'
I1
tp121
a(S'tr_ll'
I1
tp122
a(S'w'
I2209
tp123
a(S'p1_vo'
I2
tp124
a(S'w'
I3
tp125
a(S'tr_tl'
I100
tp126
a(S'tr_ll'
I1
tp127
a(S'w'
I2190
tp128
a(S'tr_tl'
I219
tp129
a(S'tr_ll'
I1
tp130
a(S'w'
I2207
tp131
a(S'tr_tl'
I100
tp132
a(S'w'
I1
tp133
a(S'tr_ll'
I1
tp134
a(S'w'
I1452
tp135
a(S'p1_vo'
I0
tp136
a(S'w'
I743
tp137
a(S'tr_tl'
I219
tp138
a(S'tr_ll'
I1
tp139
a(S'w'
I2207
tp140
a(S'tr_tl'
I100
tp141
a(S'tr_ll'
I1
tp142
a(S'w'
I2196
tp143
a(S'tr_tl'
I219
tp144
a(S'tr_ll'
I1
tp145
a(S'w'
I2207
tp146
a(S'tr_tl'
I100
tp147
a(S'tr_ll'
I1
tp148
a(S'w'
I2196
tp149
a(S'tr_tl'
I219
tp150
a(S'tr_ll'
I1
tp151
a(S'w'
I2241
tp152
a(S'p1_vo'
I11
tp153
a(S'w'
I1
tp154
a(S'p1_tl'
I160
tp155
a(S'p1_ll'
I1
tp156
a(S'w'
I1
tp157
a(S'p2_vo'
I11
tp158
a(S'w'
I2
tp159
a(S'tr_tl'
I80
tp160
a(S'tr_ll'
I1
tp161
a(S'w'
I2157
tp162
a(S'tr_tl'
I192
tp163
a(S'w'
I1
tp164
a(S'tr_ll'
I1
tp165
a(S'w'
I2207
tp166
a(S'tr_tl'
I80
tp167
a(S'tr_ll'
I1
tp168
a(S'w'
I1452
tp169
a(S'p1_vo'
I10
tp170
a(S'w'
I743
tp171
a(S'tr_tl'
I192
tp172
a(S'tr_ll'
I1
tp173
a(S'w'
I726
tp174
a(S'p2_vo'
I10
tp175
a(S'w'
I1481
tp176
a(S'tr_tl'
I80
tp177
a(S'w'
I1
tp178
a(S'tr_ll'
I1
tp179
a(S'w'
I2195
tp180
a(S'tr_tl'
I192
tp181
a(S'tr_ll'
I1
tp182
a(S'w'
I724
tp183
a(S'p1_vo'
I9
tp184
a(S'w'
I1483
tp185
a(S'tr_tl'
I80
tp186
a(S'tr_ll'
I1
tp187
a(S'w'
I1454
tp188
a(S'p2_vo'
I9
tp189
a(S'w'
I742
tp190
a(S'tr_tl'
I192
tp191
a(S'tr_ll'
I1
tp192
a(S'w'
I2210
tp193
a(S'p1_vo'
I8
tp194
a(S'w'
I2
tp195
a(S'tr_tl'
I80
tp196
a(S'w'
I1
tp197
a(S'tr_ll'
I1
tp198
a(S'w'
I2190
tp199
a(S'tr_tl'
I192
tp200
a(S'tr_ll'
I1
tp201
a(S'w'
I2207
tp202
a(S'tr_tl'
I80
tp203
a(S'tr_ll'
I1
tp204
a(S'w'
I1452
tp205
a(S'p1_vo'
I7
tp206
a(S'w'
I744
tp207
a(S'tr_tl'
I192
tp208
a(S'tr_ll'
I1
tp209
a(S'w'
I2207
tp210
a(S'tr_tl'
I80
tp211
a(S'tr_ll'
I1
tp212
a(S'w'
I2195
tp213
a(S'tr_tl'
I192
tp214
a(S'w'
I1
tp215
a(S'tr_ll'
I1
tp216
a(S'w'
I724
tp217
a(S'p1_vo'
I6
tp218
a(S'w'
I1482
tp219
a(S'tr_tl'
I80
tp220
a(S'w'
I1
tp221
a(S'tr_ll'
I1
tp222
a(S'w'
I2195
tp223
a(S'tr_tl'
I192
tp224
a(S'tr_ll'
I1
tp225
a(S'w'
I2210
tp226
a(S'p1_vo'
I5
tp227
a(S'w'
I3
tp228
a(S'tr_tl'
I80
tp229
a(S'tr_ll'
I1
tp230
a(S'w'
I2190
tp231
a(S'tr_tl'
I192
tp232
a(S'tr_ll'
I1
tp233
a(S'w'
I2207
tp234
a(S'tr_tl'
I80
tp235
a(S'tr_ll'
I1
tp236
a(S'w'
I1452
tp237
a(S'p1_vo'
I4
tp238
a(S'w'
I744
tp239
a(S'tr_tl'
I192
tp240
a(S'tr_ll'
I1
tp241
a(S'w'
I2207
tp242
a(S'tr_tl'
I80
tp243
a(S'tr_ll'
I1
tp244
a(S'w'
I2196
tp245
a(S'tr_tl'
I192
tp246
a(S'tr_ll'
I1
tp247
a(S'w'
I724
tp248
a(S'p1_vo'
I3
tp249
a(S'w'
I1483
tp250
a(S'tr_tl'
I80
tp251
a(S'tr_ll'
I1
tp252
a(S'w'
I2195
tp253
a(S'tr_tl'
I192
tp254
a(S'w'
I1
tp255
a(S'tr_ll'
I1
tp256
a(S'w'
I2209
tp257
a(S'p1_vo'
I2
tp258
a(S'w'
I3
tp259
a(S'tr_tl'
I80
tp260
a(S'tr_ll'
I1
tp261
a(S'w'
I2190
tp262
a(S'tr_tl'
I192
tp263
a(S'tr_ll'
I1
tp264
a(S'w'
I2207
tp265
a(S'tr_tl'
I80
tp266
a(S'tr_ll'
I1
tp267
a(S'w'
I1453
tp268
a(S'p1_vo'
I0
tp269
a(S'w'
I743
tp270
a(S'tr_tl'
I192
tp271
a(S'tr_ll'
I1
tp272
a(S'w'
I2207
tp273
a(S'tr_tl'
I80
tp274
a(S'tr_ll'
I1
tp275
a(S'w'
I2196
tp276
a(S'tr_tl'
I192
tp277
a(S'tr_ll'
I1
tp278
a(S'w'
I2207
tp279
a(S'tr_tl'
I80
tp280
a(S'tr_ll'
I1
tp281
a(S'w'
I2196
tp282
a(S'tr_tl'
I192
tp283
a(S'tr_ll'
I1
tp284
a(S'w'
I2241
tp285
a(S'p1_vo'
I11
tp286
a(S'p1_tl'
I183
tp287
a(S'w'
I1
tp288
a(S'p1_ll'
I1
tp289
a(S'p1_th'
I3
tp290
a(S'p2_vo'
I11
tp291
a(S'w'
I2
tp292
a(S'tr_tl'
I219
tp293
a(S'tr_ll'
I1
tp294
a(S'w'
I2158
tp295
a(S'tr_tl'
I122
tp296
a(S'w'
I1
tp297
a(S'tr_ll'
I1
tp298
a(S'tr_th'
I2
tp299
a(S'w'
I2206
tp300
a(S'tr_tl'
I219
tp301
a(S'tr_ll'
I1
tp302
a(S'tr_th'
I1
tp303
a(S'w'
I1453
tp304
a(S'p1_vo'
I10
tp305
a(S'w'
I743
tp306
a(S'tr_tl'
I122
tp307
a(S'tr_ll'
I1
tp308
a(S'tr_th'
I2
tp309
a(S'w'
I726
tp310
a(S'p2_vo'
I10
tp311
a(S'w'
I1481
tp312
a(S'tr_tl'
I219
tp313
a(S'tr_ll'
I1
tp314
a(S'tr_th'
I1
tp315
a(S'w'
I2196
tp316
a(S'tr_tl'
I122
tp317
a(S'tr_ll'
I1
tp318
a(S'tr_th'
I2
tp319
a(S'w'
I724
tp320
a(S'p1_vo'
I9
tp321
a(S'w'
I1483
tp322
a(S'tr_tl'
I219
tp323
a(S'tr_ll'
I1
tp324
a(S'tr_th'
I1
tp325
a(S'w'
I1454
tp326
a(S'p2_vo'
I9
tp327
a(S'w'
I742
tp328
a(S'tr_tl'
I122
tp329
a(S'tr_ll'
I1
tp330
a(S'tr_th'
I2
tp331
a(S'w'
I2209
tp332
a(S'p1_vo'
I8
tp333
a(S'w'
I3
tp334
a(S'tr_tl'
I219
tp335
a(S'tr_ll'
I1
tp336
a(S'tr_th'
I1
tp337
a(S'w'
I2191
tp338
a(S'tr_tl'
I122
tp339
a(S'tr_ll'
I1
tp340
a(S'tr_th'
I2
tp341
a(S'w'
I2206
tp342
a(S'tr_tl'
I219
tp343
a(S'w'
I1
tp344
a(S'tr_ll'
I1
tp345
a(S'tr_th'
I1
tp346
a(S'w'
I1452
tp347
a(S'p1_vo'
I7
tp348
a(S'w'
I743
tp349
a(S'tr_tl'
I122
tp350
a(S'w'
I1
tp351
a(S'tr_ll'
I1
tp352
a(S'tr_th'
I2
tp353
a(S'w'
I2206
tp354
a(S'tr_tl'
I219
tp355
a(S'tr_ll'
I1
tp356
a(S'tr_th'
I1
tp357
a(S'w'
I2196
tp358
a(S'tr_tl'
I122
tp359
a(S'tr_ll'
I1
tp360
a(S'tr_th'
I2
tp361
a(S'w'
I724
tp362
a(S'p1_vo'
I6
tp363
a(S'w'
I1483
tp364
a(S'tr_tl'
I219
tp365
a(S'tr_ll'
I1
tp366
a(S'tr_th'
I1
tp367
a(S'w'
I2196
tp368
a(S'tr_tl'
I122
tp369
a(S'tr_ll'
I1
tp370
a(S'tr_th'
I2
tp371
a(S'w'
I2209
tp372
a(S'p1_vo'
I5
tp373
a(S'w'
I3
tp374
a(S'tr_tl'
I219
tp375
a(S'tr_ll'
I1
tp376
a(S'tr_th'
I1
tp377
a(S'w'
I2191
tp378
a(S'tr_tl'
I122
tp379
a(S'tr_ll'
I1
tp380
a(S'tr_th'
I2
tp381
a(S'w'
I2207
tp382
a(S'tr_tl'
I219
tp383
a(S'tr_ll'
I1
tp384
a(S'tr_th'
I1
tp385
a(S'w'
I1452
tp386
a(S'p1_vo'
I4
tp387
a(S'w'
I744
tp388
a(S'tr_tl'
I122
tp389
a(S'tr_ll'
I1
tp390
a(S'tr_th'
I2
tp391
a(S'w'
I2206
tp392
a(S'tr_tl'
I219
tp393
a(S'w'
I1
tp394
a(S'tr_ll'
I1
tp395
a(S'tr_th'
I1
tp396
a(S'w'
I2195
tp397
a(S'tr_tl'
I122
tp398
a(S'w'
I1
tp399
a(S'tr_ll'
I1
tp400
a(S'tr_th'
I2
tp401
a(S'w'
I724
tp402
a(S'p1_vo'
I3
tp403
a(S'w'
I1482
tp404
a(S'tr_tl'
I219
tp405
a(S'tr_ll'
I1
tp406
a(S'tr_th'
I1
tp407
a(S'w'
I2196
tp408
a(S'tr_tl'
I122
tp409
a(S'w'
I1
tp410
a(S'tr_ll'
I1
tp411
a(S'tr_th'
I2
tp412
a(S'w'
I2209
tp413
a(S'p1_vo'
I2
tp414
a(S'w'
I2
tp415
a(S'tr_tl'
I219
tp416
a(S'w'
I1
tp417
a(S'tr_ll'
I1
tp418
a(S'tr_th'
I1
tp419
a(S'w'
I2190
tp420
a(S'tr_tl'
I122
tp421
a(S'tr_ll'
I1
tp422
a(S'tr_th'
I2
tp423
a(S'w'
I2207
tp424
a(S'tr_tl'
I219
tp425
a(S'tr_ll'
I1
tp426
a(S'tr_th'
I1
tp427
a(S'w'
I1452
tp428
a(S'p1_vo'
I0
tp429
a(S'w'
I744
tp430
a(S'tr_tl'
I122
tp431
a(S'tr_ll'
I1
tp432
a(S'tr_th'
I2
tp433
a(S'w'
I2207
tp434
a(S'tr_tl'
I219
tp435
a(S'tr_ll'
I1
tp436
a(S'tr_th'
I1
tp437
a(S'w'
I2196
tp438
a(S'tr_tl'
I122
tp439
a(S'tr_ll'
I1
tp440
a(S'tr_th'
I2
tp441
a(S'w'
I2206
tp442
a(S'tr_tl'
I219
tp443
a(S'w'
I1
tp444
a(S'tr_ll'
I1
tp445
a(S'tr_th'
I1
tp446
a(S'w'
I2196
tp447
a(S'tr_tl'
I122
tp448
a(S'tr_ll'
I1
tp449
a(S'tr_th'
I2
tp450
a(S'w'
I2241
tp451
a(S'p1_vo'
I11
tp452
a(S'p1_tl'
I129
tp453
a(S'p1_ll'
I1
tp454
a(S'w'
I1
tp455
a(S'p2_vo'
I11
tp456
a(S'w'
I2
tp457
a(S'tr_tl'
I192
tp458
a(S'tr_ll'
I1
tp459
a(S'tr_th'
I1
tp460
a(S'w'
I2158
tp461
a(S'tr_tl'
I87
tp462
a(S'w'
I1
tp463
a(S'tr_ll'
I1
tp464
a(S'tr_th'
I2
tp465
a(S'w'
I2206
tp466
a(S'tr_tl'
I192
tp467
a(S'tr_ll'
I1
tp468
a(S'tr_th'
I1
tp469
a(S'w'
I1453
tp470
a(S'p1_vo'
I10
tp471
a(S'w'
I743
tp472
a(S'tr_tl'
I87
tp473
a(S'tr_ll'
I1
tp474
a(S'tr_th'
I2
tp475
a(S'w'
I725
tp476
a(S'p2_vo'
I10
tp477
a(S'w'
I1482
tp478
a(S'tr_tl'
I192
tp479
a(S'tr_ll'
I1
tp480
a(S'tr_th'
I1
tp481
a(S'w'
I2196
tp482
a(S'tr_tl'
I87
tp483
a(S'tr_ll'
I1
tp484
a(S'tr_th'
I2
tp485
a(S'w'
I724
tp486
a(S'p1_vo'
I9
tp487
a(S'w'
I1483
tp488
a(S'tr_tl'
I192
tp489
a(S'tr_ll'
I1
tp490
a(S'tr_th'
I1
tp491
a(S'w'
I1453
tp492
a(S'p2_vo'
I9
tp493
a(S'w'
I743
tp494
a(S'tr_tl'
I87
tp495
a(S'tr_ll'
I1
tp496
a(S'tr_th'
I2
tp497
a(S'w'
I2209
tp498
a(S'p1_vo'
I8
tp499
a(S'w'
I3
tp500
a(S'tr_tl'
I192
tp501
a(S'tr_ll'
I1
tp502
a(S'tr_th'
I1
tp503
a(S'w'
I2191
tp504
a(S'tr_tl'
I87
tp505
a(S'tr_ll'
I1
tp506
a(S'tr_th'
I2
tp507
a(S'w'
I2206
tp508
a(S'tr_tl'
I192
tp509
a(S'tr_ll'
I1
tp510
a(S'tr_th'
I1
tp511
a(S'w'
I1453
tp512
a(S'p1_vo'
I7
tp513
a(S'w'
I743
tp514
a(S'tr_tl'
I87
tp515
a(S'w'
I1
tp516
a(S'tr_ll'
I1
tp517
a(S'tr_th'
I2
tp518
a(S'w'
I2206
tp519
a(S'tr_tl'
I192
tp520
a(S'tr_ll'
I1
tp521
a(S'tr_th'
I1
tp522
a(S'w'
I2196
tp523
a(S'tr_tl'
I87
tp524
a(S'tr_ll'
I1
tp525
a(S'tr_th'
I2
tp526
a(S'w'
I724
tp527
a(S'p1_vo'
I6
tp528
a(S'w'
I1483
tp529
a(S'tr_tl'
I192
tp530
a(S'tr_ll'
I1
tp531
a(S'tr_th'
I1
tp532
a(S'w'
I2196
tp533
a(S'tr_tl'
I87
tp534
a(S'tr_ll'
I1
tp535
a(S'tr_th'
I2
tp536
a(S'w'
I2209
tp537
a(S'p1_vo'
I5
tp538
a(S'w'
I3
tp539
a(S'tr_tl'
I192
tp540
a(S'tr_ll'
I1
tp541
a(S'tr_th'
I1
tp542
a(S'w'
I2191
tp543
a(S'tr_tl'
I87
tp544
a(S'tr_ll'
I1
tp545
a(S'tr_th'
I2
tp546
a(S'w'
I2207
tp547
a(S'tr_tl'
I192
tp548
a(S'tr_ll'
I1
tp549
a(S'tr_th'
I1
tp550
a(S'w'
I1452
tp551
a(S'p1_vo'
I4
tp552
a(S'w'
I744
tp553
a(S'tr_tl'
I87
tp554
a(S'tr_ll'
I1
tp555
a(S'tr_th'
I2
tp556
a(S'w'
I2206
tp557
a(S'tr_tl'
I192
tp558
a(S'w'
I1
tp559
a(S'tr_ll'
I1
tp560
a(S'tr_th'
I1
tp561
a(S'w'
I2195
tp562
a(S'tr_tl'
I87
tp563
a(S'w'
I1
tp564
a(S'tr_ll'
I1
tp565
a(S'tr_th'
I2
tp566
a(S'w'
I724
tp567
a(S'p1_vo'
I3
tp568
a(S'w'
I1482
tp569
a(S'tr_tl'
I192
tp570
a(S'tr_ll'
I1
tp571
a(S'tr_th'
I1
tp572
a(S'w'
I2196
tp573
a(S'tr_tl'
I87
tp574
a(S'tr_ll'
I1
tp575
a(S'tr_th'
I2
tp576
a(S'w'
I2210
tp577
a(S'p1_vo'
I2
tp578
a(S'w'
I2
tp579
a(S'tr_tl'
I192
tp580
a(S'w'
I1
tp581
a(S'tr_ll'
I1
tp582
a(S'tr_th'
I1
tp583
a(S'w'
I2190
tp584
a(S'tr_tl'
I87
tp585
a(S'tr_ll'
I1
tp586
a(S'tr_th'
I2
tp587
a(S'w'
I2207
tp588
a(S'tr_tl'
I192
tp589
a(S'tr_ll'
I1
tp590
a(S'tr_th'
I1
tp591
a(S'w'
I1452
tp592
a(S'p1_vo'
I0
tp593
a(S'w'
I744
tp594
a(S'tr_tl'
I87
tp595
a(S'tr_ll'
I1
tp596
a(S'tr_th'
I2
tp597
a(S'w'
I2207
tp598
a(S'tr_tl'
I192
tp599
a(S'tr_ll'
I1
tp600
a(S'tr_th'
I1
tp601
a(S'w'
I2196
tp602
a(S'tr_tl'
I87
tp603
a(S'tr_ll'
I1
tp604
a(S'tr_th'
I2
tp605
a(S'w'
I2206
tp606
a(S'tr_tl'
I192
tp607
a(S'w'
I1
tp608
a(S'tr_ll'
I1
tp609
a(S'tr_th'
I1
tp610
a(S'w'
I2195
tp611
a(S'tr_tl'
I87
tp612
a(S'w'
I1
tp613
a(S'tr_ll'
I1
tp614
a(S'tr_th'
I2
tp615
a(S'w'
I1455
tp616
a.