(lp1
(S'clock'
p2
I1789772
tp3
a(S'ch_no'
I0
tp4
a(S'ch_tr'
I0
tp5
a(S'ch_p2'
I0
tp6
a(S'ch_p1'
I0
tp7
a(S'fc_mo'
I0
tp8
a(S'fc_mo'
I0
tp9
a(S'w'
I737
tp10
a(S'p1_du'
I1
tp11
a(S'p1_vo'
I15
tp12
a(S'w'
I6
tp13
a(S'ch_no'
I0
tp14
a(S'ch_tr'
I0
tp15
a(S'ch_p2'
I0
tp16
a(S'ch_p1'
I1
tp17
a(S'w'
I1
tp18
a(S'p1_tl'
I26
tp19
a(S'p1_ll'
I1
tp20
a(S'p1_th'
I2
tp21
a(S'w'
I3
tp22
a(S'p2_du'
I1
tp23
a(S'p2_vo'
I15
tp24
a(S'w'
I6
tp25
a(S'ch_no'
I0
tp26
a(S'ch_tr'
I0
tp27
a(S'ch_p2'
I1
tp28
a(S'ch_p1'
I1
tp29
a(S'w'
I1
tp30
a(S'p2_tl'
I58
tp31
a(S'p2_ll'
I1
tp32
a(S'p2_th'
I2
tp33
a(S'w'
I723
tp34
a(S'p1_tl'
I58
tp35
a(S'p1_ll'
I1
tp36
a(S'w'
I8
tp37
a(S'p2_tl'
I92
tp38
a(S'p2_ll'
I1
tp39
a(S'w'
I727
tp40
a(S'p1_tl'
I92
tp41
a(S'p1_ll'
I1
tp42
a(S'w'
I8
tp43
a(S'p2_tl'
I128
tp44
a(S'p2_ll'
I1
tp45
a(S'w'
I727
tp46
a(S'p1_tl'
I128
tp47
a(S'p1_ll'
I1
tp48
a(S'w'
I8
tp49
a(S'p2_tl'
I166
tp50
a(S'p2_ll'
I1
tp51
a(S'w'
I727
tp52
a(S'p1_tl'
I166
tp53
a(S'p1_ll'
I1
tp54
a(S'w'
I8
tp55
a(S'p2_tl'
I207
tp56
a(S'p2_ll'
I1
tp57
a(S'w'
I727
tp58
a(S'p1_tl'
I207
tp59
a(S'p1_ll'
I1
tp60
a(S'w'
I8
tp61
a(S'p2_tl'
I250
tp62
a(S'p2_ll'
I1
tp63
a(S'w'
I727
tp64
a(S'p1_tl'
I250
tp65
a(S'p1_ll'
I1
tp66
a(S'w'
I8
tp67
a(S'p2_tl'
I39
tp68
a(S'p2_ll'
I1
tp69
a(S'p2_th'
I3
tp70
a(S'w'
I727
tp71
a(S'p1_tl'
I39
tp72
a(S'p1_ll'
I1
tp73
a(S'p1_th'
I3
tp74
a(S'w'
I8
tp75
a(S'p2_tl'
I87
tp76
a(S'p2_ll'
I1
tp77
a(S'w'
I727
tp78
a(S'p1_tl'
I13
tp79
a(S'w'
I1
tp80
a(S'p1_ll'
I1
tp81
a(S'p1_th'
I1
tp82
a(S'w'
I8
tp83
a(S'p2_tl'
I29
tp84
a(S'p2_ll'
I1
tp85
a(S'p2_th'
I1
tp86
a(S'w'
I726
tp87
a(S'p1_tl'
I29
tp88
a(S'w'
I1
tp89
a(S'p1_ll'
I1
tp90
a(S'w'
I8
tp91
a(S'p2_tl'
I46
tp92
a(S'p2_ll'
I1
tp93
a(S'w'
I727
tp94
a(S'p1_tl'
I46
tp95
a(S'p1_ll'
I1
tp96
a(S'w'
I8
tp97
a(S'p2_tl'
I64
tp98
a(S'p2_ll'
I1
tp99
a(S'w'
I727
tp100
a(S'p1_tl'
I64
tp101
a(S'p1_ll'
I1
tp102
a(S'w'
I8
tp103
a(S'p2_tl'
I83
tp104
a(S'p2_ll'
I1
tp105
a(S'w'
I726
tp106
a(S'p1_tl'
I83
tp107
a(S'w'
I1
tp108
a(S'p1_ll'
I1
tp109
a(S'w'
I8
tp110
a(S'p2_tl'
I103
tp111
a(S'p2_ll'
I1
tp112
a(S'w'
I726
tp113
a(S'p1_tl'
I103
tp114
a(S'w'
I1
tp115
a(S'p1_ll'
I1
tp116
a(S'w'
I8
tp117
a(S'p2_tl'
I125
tp118
a(S'p2_ll'
I1
tp119
a(S'w'
I726
tp120
a(S'p1_tl'
I125
tp121
a(S'w'
I1
tp122
a(S'p1_ll'
I1
tp123
a(S'w'
I8
tp124
a(S'p2_tl'
I147
tp125
a(S'p2_ll'
I1
tp126
a(S'w'
I726
tp127
a(S'p1_tl'
I147
tp128
a(S'w'
I1
tp129
a(S'p1_ll'
I1
tp130
a(S'w'
I8
tp131
a(S'p2_tl'
I171
tp132
a(S'p2_ll'
I1
tp133
a(S'w'
I727
tp134
a(S'p1_tl'
I134
tp135
a(S'p1_ll'
I1
tp136
a(S'p1_th'
I0
tp137
a(S'w'
I8
tp138
a(S'p2_tl'
I142
tp139
a(S'w'
I1
tp140
a(S'p2_ll'
I1
tp141
a(S'p2_th'
I0
tp142
a(S'w'
I726
tp143
a(S'p1_tl'
I142
tp144
a(S'p1_ll'
I1
tp145
a(S'w'
I8
tp146
a(S'p2_tl'
I151
tp147
a(S'w'
I1
tp148
a(S'p2_ll'
I1
tp149
a(S'w'
I726
tp150
a(S'p1_tl'
I151
tp151
a(S'p1_ll'
I1
tp152
a(S'w'
I8
tp153
a(S'p2_tl'
I160
tp154
a(S'w'
I1
tp155
a(S'p2_ll'
I1
tp156
a(S'w'
I726
tp157
a(S'p1_tl'
I160
tp158
a(S'p1_ll'
I1
tp159
a(S'w'
I8
tp160
a(S'p2_tl'
I169
tp161
a(S'w'
I1
tp162
a(S'p2_ll'
I1
tp163
a(S'w'
I726
tp164
a(S'p1_tl'
I169
tp165
a(S'p1_ll'
I1
tp166
a(S'w'
I8
tp167
a(S'p2_tl'
I179
tp168
a(S'w'
I1
tp169
a(S'p2_ll'
I1
tp170
a(S'w'
I726
tp171
a(S'p1_tl'
I179
tp172
a(S'p1_ll'
I1
tp173
a(S'w'
I8
tp174
a(S'p2_tl'
I190
tp175
a(S'w'
I1
tp176
a(S'p2_ll'
I1
tp177
a(S'w'
I726
tp178
a(S'p1_tl'
I190
tp179
a(S'p1_ll'
I1
tp180
a(S'w'
I8
tp181
a(S'p2_tl'
I201
tp182
a(S'w'
I1
tp183
a(S'p2_ll'
I1
tp184
a(S'w'
I726
tp185
a(S'p1_tl'
I201
tp186
a(S'p1_ll'
I1
tp187
a(S'w'
I8
tp188
a(S'p2_tl'
I213
tp189
a(S'w'
I1
tp190
a(S'p2_ll'
I1
tp191
a(S'w'
I726
tp192
a(S'p1_tl'
I67
tp193
a(S'p1_ll'
I1
tp194
a(S'w'
I9
tp195
a(S'p2_tl'
I71
tp196
a(S'p2_ll'
I1
tp197
a(S'w'
I726
tp198
a(S'p1_tl'
I71
tp199
a(S'p1_ll'
I1
tp200
a(S'w'
I9
tp201
a(S'p2_tl'
I75
tp202
a(S'p2_ll'
I1
tp203
a(S'w'
I726
tp204
a(S'p1_tl'
I75
tp205
a(S'p1_ll'
I1
tp206
a(S'w'
I9
tp207
a(S'p2_tl'
I80
tp208
a(S'p2_ll'
I1
tp209
a(S'w'
I726
tp210
a(S'p1_tl'
I80
tp211
a(S'p1_ll'
I1
tp212
a(S'w'
I9
tp213
a(S'p2_tl'
I84
tp214
a(S'p2_ll'
I1
tp215
a(S'w'
I726
tp216
a(S'p1_tl'
I84
tp217
a(S'w'
I1
tp218
a(S'p1_ll'
I1
tp219
a(S'w'
I8
tp220
a(S'p2_tl'
I89
tp221
a(S'p2_ll'
I1
tp222
a(S'w'
I726
tp223
a(S'p1_tl'
I89
tp224
a(S'p1_ll'
I1
tp225
a(S'w'
I9
tp226
a(S'p2_tl'
I95
tp227
a(S'p2_ll'
I1
tp228
a(S'w'
I726
tp229
a(S'p1_tl'
I95
tp230
a(S'p1_ll'
I1
tp231
a(S'w'
I9
tp232
a(S'p2_tl'
I100
tp233
a(S'p2_ll'
I1
tp234
a(S'w'
I726
tp235
a(S'p1_tl'
I100
tp236
a(S'p1_ll'
I1
tp237
a(S'w'
I9
tp238
a(S'p2_tl'
I106
tp239
a(S'p2_ll'
I1
tp240
a(S'w'
I721
tp241
a(S'ch_no'
I0
tp242
a(S'ch_tr'
I0
tp243
a(S'ch_p2'
I1
tp244
a(S'ch_p1'
I0
tp245
a(S'w'
I4
tp246
a(S'ch_no'
I0
tp247
a(S'ch_tr'
I0
tp248
a(S'ch_p2'
I0
tp249
a(S'ch_p1'
I0
tp250
a(S'w'
I25535
tp251
a.