(lp1
(S'clock'
p2
I1789772
tp3
a(S'ch_no'
I0
tp4
a(S'ch_tr'
I1
tp5
a(S'ch_p2'
I0
tp6
a(S'ch_p1'
I1
tp7
a(S'p1_du'
I2
tp8
a(S'p1_vo'
I15
tp9
a(S'w'
I1
tp10
a(S'p1_tl'
I166
tp11
a(S'p1_ll'
I1
tp12
a(S'p1_th'
I2
tp13
a(S'w'
I2225
tp14
a(S'ch_no'
I0
tp15
a(S'ch_tr'
I1
tp16
a(S'ch_p2'
I0
tp17
a(S'ch_p1'
I1
tp18
a(S'w'
I1
tp19
a(S'p1_tl'
I87
tp20
a(S'p1_ll'
I1
tp21
a(S'p1_th'
I3
tp22
a(S'w'
I2182
tp23
a(S'ch_no'
I0
tp24
a(S'ch_tr'
I1
tp25
a(S'ch_p2'
I0
tp26
a(S'ch_p1'
I1
tp27
a(S'w'
I1
tp28
a(S'p1_tl'
I58
tp29
a(S'p1_ll'
I1
tp30
a(S'p1_th'
I2
tp31
a(S'w'
I2177
tp32
a(S'ch_no'
I0
tp33
a(S'ch_tr'
I1
tp34
a(S'ch_p2'
I0
tp35
a(S'ch_p1'
I1
tp36
a(S'w'
I1
tp37
a(S'p1_tl'
I207
tp38
a(S'p1_ll'
I1
tp39
a(S'w'
I2225
tp40
a(S'ch_no'
I0
tp41
a(S'ch_tr'
I1
tp42
a(S'ch_p2'
I0
tp43
a(S'ch_p1'
I1
tp44
a(S'w'
I1
tp45
a(S'p1_tl'
I26
tp46
a(S'p1_ll'
I1
tp47
a(S'w'
I2202
tp48
a(S'ch_no'
I0
tp49
a(S'ch_tr'
I1
tp50
a(S'ch_p2'
I0
tp51
a(S'ch_p1'
I1
tp52
a(S'w'
I1
tp53
a(S'p1_tl'
I242
tp54
a(S'p1_ll'
I1
tp55
a(S'p1_th'
I7
tp56
a(S'w'
I2174
tp57
a.