(lp1
(S'clock'
p2
I1789772
tp3
a(S'ch_no'
I0
tp4
a(S'ch_tr'
I1
tp5
a(S'ch_p2'
I0
tp6
a(S'ch_p1'
I1
tp7
a(S'w'
I8
tp8
a(S'ch_no'
I0
tp9
a(S'ch_tr'
I1
tp10
a(S'ch_p2'
I0
tp11
a(S'ch_p1'
I1
tp12
a(S'w'
I1
tp13
a(S'p1_du'
I1
tp14
a(S'p1_lh'
I1
tp15
a(S'p1_cv'
I1
tp16
a(S'p1_vo'
I15
tp17
a(S'p1_tl'
I87
tp18
a(S'p1_ll'
I1
tp19
a(S'p1_th'
I3
tp20
a(S'w'
I1437
tp21
a(S'ch_no'
I0
tp22
a(S'ch_tr'
I1
tp23
a(S'ch_p2'
I0
tp24
a(S'ch_p1'
I1
tp25
a(S'w'
I1
tp26
a(S'p1_tl'
I250
tp27
a(S'w'
I1
tp28
a(S'p1_ll'
I1
tp29
a(S'p1_th'
I2
tp30
a(S'w'
I1521
tp31
a(S'ch_no'
I0
tp32
a(S'ch_tr'
I1
tp33
a(S'ch_p2'
I0
tp34
a(S'ch_p1'
I1
tp35
a(S'w'
I1
tp36
a(S'p1_tl'
I87
tp37
a(S'w'
I1
tp38
a(S'p1_ll'
I1
tp39
a(S'p1_th'
I3
tp40
a(S'w'
I1488
tp41
a(S'ch_no'
I0
tp42
a(S'ch_tr'
I1
tp43
a(S'ch_p2'
I0
tp44
a(S'ch_p1'
I1
tp45
a(S'w'
I1
tp46
a(S'p1_tl'
I207
tp47
a(S'p1_ll'
I1
tp48
a(S'p1_th'
I2
tp49
a(S'w'
I1426
tp50
a(S'ch_no'
I0
tp51
a(S'ch_tr'
I1
tp52
a(S'ch_p2'
I0
tp53
a(S'ch_p1'
I1
tp54
a(S'w'
I1
tp55
a(S'p1_tl'
I87
tp56
a(S'p1_ll'
I1
tp57
a(S'p1_th'
I3
tp58
a(S'w'
I1441
tp59
a(S'ch_no'
I0
tp60
a(S'ch_tr'
I1
tp61
a(S'ch_p2'
I0
tp62
a(S'ch_p1'
I1
tp63
a(S'w'
I1
tp64
a(S'p1_tl'
I207
tp65
a(S'p1_ll'
I1
tp66
a(S'p1_th'
I2
tp67
a(S'w'
I1541
tp68
a(S'ch_no'
I0
tp69
a(S'ch_tr'
I1
tp70
a(S'ch_p2'
I0
tp71
a(S'ch_p1'
I1
tp72
a(S'w'
I1
tp73
a(S'p1_tl'
I87
tp74
a(S'p1_ll'
I1
tp75
a(S'p1_th'
I3
tp76
a(S'w'
I1465
tp77
a(S'ch_no'
I0
tp78
a(S'ch_tr'
I1
tp79
a(S'ch_p2'
I0
tp80
a(S'ch_p1'
I1
tp81
a(S'w'
I1
tp82
a(S'p1_tl'
I207
tp83
a(S'p1_ll'
I1
tp84
a(S'p1_th'
I2
tp85
a(S'w'
I1422
tp86
a(S'ch_no'
I0
tp87
a(S'ch_tr'
I1
tp88
a(S'ch_p2'
I0
tp89
a(S'ch_p1'
I1
tp90
a(S'p1_tl'
I87
tp91
a(S'w'
I1
tp92
a(S'p1_ll'
I1
tp93
a(S'p1_th'
I3
tp94
a(S'w'
I1441
tp95
a(S'ch_no'
I0
tp96
a(S'ch_tr'
I1
tp97
a(S'ch_p2'
I0
tp98
a(S'ch_p1'
I1
tp99
a(S'w'
I1
tp100
a(S'p1_tl'
I250
tp101
a(S'p1_ll'
I1
tp102
a(S'p1_th'
I2
tp103
a(S'w'
I1542
tp104
a(S'ch_no'
I0
tp105
a(S'ch_tr'
I1
tp106
a(S'ch_p2'
I0
tp107
a(S'ch_p1'
I1
tp108
a(S'w'
I1
tp109
a(S'p1_tl'
I87
tp110
a(S'p1_ll'
I1
tp111
a(S'p1_th'
I3
tp112
a(S'w'
I1449
tp113
a(S'ch_no'
I0
tp114
a(S'ch_tr'
I1
tp115
a(S'ch_p2'
I0
tp116
a(S'ch_p1'
I1
tp117
a(S'w'
I1
tp118
a(S'p1_tl'
I39
tp119
a(S'w'
I1
tp120
a(S'p1_ll'
I1
tp121
a(S'w'
I1424
tp122
a(S'ch_no'
I0
tp123
a(S'ch_tr'
I1
tp124
a(S'ch_p2'
I0
tp125
a(S'ch_p1'
I1
tp126
a(S'w'
I1
tp127
a(S'p1_tl'
I87
tp128
a(S'p1_ll'
I1
tp129
a(S'w'
I1439
tp130
a(S'ch_no'
I0
tp131
a(S'ch_tr'
I1
tp132
a(S'ch_p2'
I0
tp133
a(S'ch_p1'
I1
tp134
a(S'w'
I1
tp135
a(S'p1_tl'
I39
tp136
a(S'p1_ll'
I1
tp137
a(S'w'
I1533
tp138
a(S'ch_no'
I0
tp139
a(S'ch_tr'
I1
tp140
a(S'ch_p2'
I0
tp141
a(S'ch_p1'
I1
tp142
a(S'p1_tl'
I87
tp143
a(S'w'
I1
tp144
a(S'p1_ll'
I1
tp145
a(S'w'
I1468
tp146
a(S'ch_no'
I0
tp147
a(S'ch_tr'
I1
tp148
a(S'ch_p2'
I0
tp149
a(S'ch_p1'
I1
tp150
a(S'w'
I1
tp151
a(S'p1_tl'
I250
tp152
a(S'w'
I1
tp153
a(S'p1_ll'
I1
tp154
a(S'p1_th'
I2
tp155
a(S'w'
I1424
tp156
a(S'ch_no'
I0
tp157
a(S'ch_tr'
I1
tp158
a(S'ch_p2'
I0
tp159
a(S'ch_p1'
I1
tp160
a(S'w'
I1
tp161
a(S'p1_tl'
I87
tp162
a(S'w'
I1
tp163
a(S'p1_ll'
I1
tp164
a(S'p1_th'
I3
tp165
a(S'w'
I1441
tp166
a(S'ch_no'
I0
tp167
a(S'ch_tr'
I1
tp168
a(S'ch_p2'
I0
tp169
a(S'ch_p1'
I1
tp170
a(S'w'
I1
tp171
a(S'p1_tl'
I207
tp172
a(S'p1_ll'
I1
tp173
a(S'p1_th'
I2
tp174
a(S'w'
I1533
tp175
a(S'ch_no'
I0
tp176
a(S'ch_tr'
I1
tp177
a(S'ch_p2'
I0
tp178
a(S'ch_p1'
I1
tp179
a(S'w'
I1
tp180
a(S'p1_tl'
I87
tp181
a(S'p1_ll'
I1
tp182
a(S'p1_th'
I3
tp183
a(S'w'
I1488
tp184
a(S'ch_no'
I0
tp185
a(S'ch_tr'
I1
tp186
a(S'ch_p2'
I0
tp187
a(S'ch_p1'
I1
tp188
a(S'p1_tl'
I207
tp189
a(S'w'
I1
tp190
a(S'p1_ll'
I1
tp191
a(S'p1_th'
I2
tp192
a(S'w'
I1426
tp193
a(S'ch_no'
I0
tp194
a(S'ch_tr'
I1
tp195
a(S'ch_p2'
I0
tp196
a(S'ch_p1'
I1
tp197
a(S'w'
I1
tp198
a(S'p1_tl'
I87
tp199
a(S'p1_ll'
I1
tp200
a(S'p1_th'
I3
tp201
a(S'w'
I1436
tp202
a(S'ch_no'
I0
tp203
a(S'ch_tr'
I1
tp204
a(S'ch_p2'
I0
tp205
a(S'ch_p1'
I1
tp206
a(S'w'
I1
tp207
a(S'p1_tl'
I207
tp208
a(S'p1_ll'
I1
tp209
a(S'p1_th'
I2
tp210
a(S'w'
I1539
tp211
a(S'ch_no'
I0
tp212
a(S'ch_tr'
I1
tp213
a(S'ch_p2'
I0
tp214
a(S'ch_p1'
I1
tp215
a(S'w'
I1
tp216
a(S'p1_tl'
I87
tp217
a(S'w'
I1
tp218
a(S'p1_ll'
I1
tp219
a(S'p1_th'
I3
tp220
a(S'w'
I1455
tp221
a(S'ch_no'
I0
tp222
a(S'ch_tr'
I1
tp223
a(S'ch_p2'
I0
tp224
a(S'ch_p1'
I1
tp225
a(S'w'
I1
tp226
a(S'p1_tl'
I250
tp227
a(S'w'
I1
tp228
a(S'p1_ll'
I1
tp229
a(S'p1_th'
I2
tp230
a(S'w'
I1426
tp231
a(S'ch_no'
I0
tp232
a(S'ch_tr'
I1
tp233
a(S'ch_p2'
I0
tp234
a(S'ch_p1'
I1
tp235
a(S'w'
I1
tp236
a(S'p1_tl'
I87
tp237
a(S'p1_ll'
I1
tp238
a(S'p1_th'
I3
tp239
a(S'w'
I1445
tp240
a(S'ch_no'
I0
tp241
a(S'ch_tr'
I1
tp242
a(S'ch_p2'
I0
tp243
a(S'ch_p1'
I1
tp244
a(S'w'
I1
tp245
a(S'p1_tl'
I39
tp246
a(S'p1_ll'
I1
tp247
a(S'w'
I1546
tp248
a(S'ch_no'
I0
tp249
a(S'ch_tr'
I1
tp250
a(S'ch_p2'
I0
tp251
a(S'ch_p1'
I1
tp252
a(S'w'
I1
tp253
a(S'p1_tl'
I87
tp254
a(S'p1_ll'
I1
tp255
a(S'w'
I1461
tp256
a(S'ch_no'
I0
tp257
a(S'ch_tr'
I1
tp258
a(S'ch_p2'
I0
tp259
a(S'ch_p1'
I1
tp260
a(S'w'
I1
tp261
a(S'p1_tl'
I39
tp262
a(S'p1_ll'
I1
tp263
a(S'w'
I1436
tp264
a(S'ch_no'
I0
tp265
a(S'ch_tr'
I1
tp266
a(S'ch_p2'
I0
tp267
a(S'ch_p1'
I1
tp268
a(S'w'
I1
tp269
a(S'p1_tl'
I87
tp270
a(S'p1_ll'
I1
tp271
a(S'w'
I1440
tp272
a(S'ch_no'
I0
tp273
a(S'ch_tr'
I1
tp274
a(S'ch_p2'
I0
tp275
a(S'ch_p1'
I1
tp276
a(S'w'
I1
tp277
a(S'p1_tl'
I250
tp278
a(S'p1_ll'
I1
tp279
a(S'p1_th'
I2
tp280
a(S'w'
I1545
tp281
a(S'ch_no'
I0
tp282
a(S'ch_tr'
I1
tp283
a(S'ch_p2'
I0
tp284
a(S'ch_p1'
I1
tp285
a(S'w'
I1
tp286
a(S'p1_tl'
I87
tp287
a(S'w'
I1
tp288
a(S'p1_ll'
I1
tp289
a(S'p1_th'
I3
tp290
a(S'w'
I1466
tp291
a(S'ch_no'
I0
tp292
a(S'ch_tr'
I1
tp293
a(S'ch_p2'
I0
tp294
a(S'ch_p1'
I1
tp295
a(S'w'
I1
tp296
a(S'p1_tl'
I207
tp297
a(S'p1_ll'
I1
tp298
a(S'p1_th'
I2
tp299
a(S'w'
I1431
tp300
a(S'ch_no'
I0
tp301
a(S'ch_tr'
I1
tp302
a(S'ch_p2'
I0
tp303
a(S'ch_p1'
I1
tp304
a(S'w'
I1
tp305
a(S'p1_tl'
I87
tp306
a(S'w'
I1
tp307
a(S'p1_ll'
I1
tp308
a(S'p1_th'
I3
tp309
a(S'w'
I1439
tp310
a(S'ch_no'
I0
tp311
a(S'ch_tr'
I1
tp312
a(S'ch_p2'
I0
tp313
a(S'ch_p1'
I1
tp314
a(S'w'
I1
tp315
a(S'p1_tl'
I207
tp316
a(S'p1_ll'
I1
tp317
a(S'p1_th'
I2
tp318
a(S'w'
I1545
tp319
a(S'ch_no'
I0
tp320
a(S'ch_tr'
I1
tp321
a(S'ch_p2'
I0
tp322
a(S'ch_p1'
I1
tp323
a(S'w'
I1
tp324
a(S'p1_tl'
I87
tp325
a(S'p1_ll'
I1
tp326
a(S'p1_th'
I3
tp327
a(S'w'
I1475
tp328
a(S'ch_no'
I0
tp329
a(S'ch_tr'
I1
tp330
a(S'ch_p2'
I0
tp331
a(S'ch_p1'
I1
tp332
a(S'w'
I1
tp333
a(S'p1_tl'
I207
tp334
a(S'p1_ll'
I1
tp335
a(S'p1_th'
I2
tp336
a(S'w'
I1435
tp337
a(S'ch_no'
I0
tp338
a(S'ch_tr'
I1
tp339
a(S'ch_p2'
I0
tp340
a(S'ch_p1'
I1
tp341
a(S'w'
I1
tp342
a(S'p1_tl'
I87
tp343
a(S'p1_ll'
I1
tp344
a(S'p1_th'
I3
tp345
a(S'w'
I1430
tp346
a(S'ch_no'
I0
tp347
a(S'ch_tr'
I1
tp348
a(S'ch_p2'
I0
tp349
a(S'ch_p1'
I1
tp350
a(S'w'
I1
tp351
a(S'p1_tl'
I250
tp352
a(S'p1_ll'
I1
tp353
a(S'p1_th'
I2
tp354
a(S'w'
I1558
tp355
a(S'ch_no'
I0
tp356
a(S'ch_tr'
I1
tp357
a(S'ch_p2'
I0
tp358
a(S'ch_p1'
I1
tp359
a(S'w'
I1
tp360
a(S'p1_tl'
I87
tp361
a(S'w'
I1
tp362
a(S'p1_ll'
I1
tp363
a(S'p1_th'
I3
tp364
a(S'w'
I1444
tp365
a(S'ch_no'
I0
tp366
a(S'ch_tr'
I1
tp367
a(S'ch_p2'
I0
tp368
a(S'ch_p1'
I1
tp369
a(S'w'
I1
tp370
a(S'p1_tl'
I39
tp371
a(S'w'
I1
tp372
a(S'p1_ll'
I1
tp373
a(S'w'
I1441
tp374
a(S'ch_no'
I0
tp375
a(S'ch_tr'
I1
tp376
a(S'ch_p2'
I0
tp377
a(S'ch_p1'
I1
tp378
a(S'w'
I1
tp379
a(S'p1_tl'
I87
tp380
a(S'w'
I1
tp381
a(S'p1_ll'
I1
tp382
a(S'w'
I1421
tp383
a(S'ch_no'
I0
tp384
a(S'ch_tr'
I1
tp385
a(S'ch_p2'
I0
tp386
a(S'ch_p1'
I1
tp387
a(S'w'
I1
tp388
a(S'p1_tl'
I39
tp389
a(S'p1_ll'
I1
tp390
a(S'w'
I1538
tp391
a.