(lp1
(S'clock'
p2
I1789772
tp3
a(S'p1_du'
I2
tp4
a(S'p1_cv'
I1
tp5
a(S'p1_vo'
I10
tp6
a(S'p1_tl'
I240
tp7
a(S'p1_ll'
I1
tp8
a(S'p2_du'
I1
tp9
a(S'p2_vo'
I11
tp10
a(S'p2_tl'
I125
tp11
a(S'p2_ll'
I1
tp12
a(S'p2_th'
I1
tp13
a(S'tr_lr'
I127
tp14
a(S'tr_tl'
I224
tp15
a(S'tr_ll'
I1
tp16
a(S'tr_th'
I1
tp17
a(S'no_np'
I2
tp18
a(S'no_ll'
I1
tp19
a(S'ch_no'
I0
tp20
a(S'ch_tr'
I0
tp21
a(S'ch_p2'
I0
tp22
a(S'ch_p1'
I0
tp23
a(S'fc_mo'
I0
tp24
a(S'ch_no'
I0
tp25
a(S'ch_tr'
I1
tp26
a(S'ch_p2'
I0
tp27
a(S'ch_p1'
I1
tp28
a(S'w'
I1
tp29
a(S'p1_tl'
I87
tp30
a(S'w'
I1
tp31
a(S'p1_ll'
I1
tp32
a(S'p1_th'
I3
tp33
a(S'w'
I4396
tp34
a(S'ch_no'
I0
tp35
a(S'ch_tr'
I1
tp36
a(S'ch_p2'
I0
tp37
a(S'ch_p1'
I1
tp38
a(S'w'
I1
tp39
a(S'p1_tl'
I92
tp40
a(S'p1_ll'
I1
tp41
a(S'p1_th'
I2
tp42
a(S'w'
I4380
tp43
a(S'ch_no'
I0
tp44
a(S'ch_tr'
I1
tp45
a(S'ch_p2'
I0
tp46
a(S'ch_p1'
I1
tp47
a(S'w'
I1
tp48
a(S'p1_tl'
I252
tp49
a(S'w'
I1
tp50
a(S'p1_ll'
I1
tp51
a(S'p1_th'
I1
tp52
a(S'w'
I4410
tp53
a(S'ch_no'
I0
tp54
a(S'ch_tr'
I1
tp55
a(S'ch_p2'
I0
tp56
a(S'ch_p1'
I1
tp57
a(S'w'
I1
tp58
a(S'p1_tl'
I103
tp59
a(S'p1_ll'
I1
tp60
a(S'w'
I4420
tp61
a(S'ch_no'
I0
tp62
a(S'ch_tr'
I1
tp63
a(S'ch_p2'
I0
tp64
a(S'ch_p1'
I1
tp65
a(S'w'
I1
tp66
a(S'p1_tl'
I252
tp67
a(S'w'
I1
tp68
a(S'p1_ll'
I1
tp69
a(S'w'
I4408
tp70
a(S'ch_no'
I0
tp71
a(S'ch_tr'
I1
tp72
a(S'ch_p2'
I0
tp73
a(S'ch_p1'
I1
tp74
a(S'w'
I1
tp75
a(S'p1_tl'
I92
tp76
a(S'w'
I1
tp77
a(S'p1_ll'
I1
tp78
a(S'p1_th'
I2
tp79
a(S'w'
I4373
tp80
a(S'ch_no'
I0
tp81
a(S'ch_tr'
I1
tp82
a(S'ch_p2'
I0
tp83
a(S'ch_p1'
I1
tp84
a(S'w'
I1
tp85
a(S'p1_tl'
I39
tp86
a(S'p1_ll'
I1
tp87
a(S'p1_th'
I3
tp88
a(S'w'
I4401
tp89
a(S'ch_no'
I0
tp90
a(S'ch_tr'
I1
tp91
a(S'ch_p2'
I0
tp92
a(S'ch_p1'
I1
tp93
a(S'w'
I1
tp94
a(S'p1_tl'
I58
tp95
a(S'w'
I1
tp96
a(S'p1_ll'
I1
tp97
a(S'p1_th'
I2
tp98
a(S'w'
I4423
tp99
a(S'ch_no'
I0
tp100
a(S'ch_tr'
I1
tp101
a(S'ch_p2'
I0
tp102
a(S'ch_p1'
I1
tp103
a(S'w'
I1
tp104
a(S'p1_tl'
I224
tp105
a(S'w'
I1
tp106
a(S'p1_ll'
I1
tp107
a(S'p1_th'
I1
tp108
a(S'w'
I4401
tp109
a(S'ch_no'
I0
tp110
a(S'ch_tr'
I1
tp111
a(S'ch_p2'
I0
tp112
a(S'ch_p1'
I1
tp113
a(S'w'
I1
tp114
a(S'p1_tl'
I83
tp115
a(S'w'
I1
tp116
a(S'p1_ll'
I1
tp117
a(S'w'
I4380
tp118
a(S'ch_no'
I0
tp119
a(S'ch_tr'
I1
tp120
a(S'ch_p2'
I0
tp121
a(S'ch_p1'
I1
tp122
a(S'w'
I1
tp123
a(S'p1_tl'
I224
tp124
a(S'p1_ll'
I1
tp125
a(S'w'
I4404
tp126
a(S'ch_no'
I0
tp127
a(S'ch_tr'
I1
tp128
a(S'ch_p2'
I0
tp129
a(S'ch_p1'
I1
tp130
a(S'w'
I1
tp131
a(S'p1_tl'
I58
tp132
a(S'p1_ll'
I1
tp133
a(S'p1_th'
I2
tp134
a(S'w'
I4423
tp135
a.