(lp1
(S'clock'
p2
I1789772
tp3
a(S'p1_du'
I1
tp4
a(S'p1_cv'
I1
tp5
a(S'p1_vo'
I10
tp6
a(S'p1_tl'
I240
tp7
a(S'p1_ll'
I1
tp8
a(S'p2_du'
I1
tp9
a(S'p2_vo'
I11
tp10
a(S'p2_tl'
I125
tp11
a(S'p2_ll'
I1
tp12
a(S'p2_th'
I1
tp13
a(S'tr_lr'
I127
tp14
a(S'tr_tl'
I224
tp15
a(S'tr_ll'
I1
tp16
a(S'tr_th'
I1
tp17
a(S'no_np'
I2
tp18
a(S'no_ll'
I1
tp19
a(S'ch_no'
I0
tp20
a(S'ch_tr'
I0
tp21
a(S'ch_p2'
I0
tp22
a(S'ch_p1'
I0
tp23
a(S'fc_mo'
I0
tp24
a(S'ch_no'
I0
tp25
a(S'ch_tr'
I1
tp26
a(S'ch_p2'
I0
tp27
a(S'ch_p1'
I1
tp28
a(S'p1_tl'
I64
tp29
a(S'w'
I1
tp30
a(S'p1_ll'
I1
tp31
a(S'p1_th'
I1
tp32
a(S'w'
I4430
tp33
a(S'ch_no'
I0
tp34
a(S'ch_tr'
I1
tp35
a(S'ch_p2'
I0
tp36
a(S'ch_p1'
I1
tp37
a(S'w'
I1
tp38
a(S'p1_tl'
I240
tp39
a(S'p1_ll'
I1
tp40
a(S'p1_th'
I0
tp41
a(S'w'
I4394
tp42
a(S'ch_no'
I0
tp43
a(S'ch_tr'
I1
tp44
a(S'ch_p2'
I0
tp45
a(S'ch_p1'
I1
tp46
a(S'w'
I1
tp47
a(S'p1_tl'
I179
tp48
a(S'p1_ll'
I1
tp49
a(S'w'
I4376
tp50
a(S'ch_no'
I0
tp51
a(S'ch_tr'
I1
tp52
a(S'ch_p2'
I0
tp53
a(S'ch_p1'
I1
tp54
a(S'w'
I1
tp55
a(S'p1_tl'
I190
tp56
a(S'w'
I1
tp57
a(S'p1_ll'
I1
tp58
a(S'w'
I4401
tp59
a(S'ch_no'
I0
tp60
a(S'ch_tr'
I1
tp61
a(S'ch_p2'
I0
tp62
a(S'ch_p1'
I1
tp63
a(S'w'
I1
tp64
a(S'p1_tl'
I240
tp65
a(S'p1_ll'
I1
tp66
a(S'w'
I4567
tp67
a(S'ch_no'
I0
tp68
a(S'ch_tr'
I1
tp69
a(S'ch_p2'
I0
tp70
a(S'ch_p1'
I1
tp71
a(S'w'
I1
tp72
a(S'p1_tl'
I213
tp73
a(S'w'
I1
tp74
a(S'p1_ll'
I1
tp75
a(S'w'
I4261
tp76
a(S'ch_no'
I0
tp77
a(S'ch_tr'
I1
tp78
a(S'ch_p2'
I0
tp79
a(S'ch_p1'
I1
tp80
a(S'w'
I1
tp81
a(S'p1_tl'
I179
tp82
a(S'w'
I1
tp83
a(S'p1_ll'
I1
tp84
a(S'w'
I4376
tp85
a(S'ch_no'
I0
tp86
a(S'ch_tr'
I1
tp87
a(S'ch_p2'
I0
tp88
a(S'ch_p1'
I1
tp89
a(S'w'
I1
tp90
a(S'p1_tl'
I160
tp91
a(S'w'
I1
tp92
a(S'p1_ll'
I1
tp93
a(S'w'
I4403
tp94
a.