(lp1
(S'clock'
p2
I1789772
tp3
a(S'p1_du'
I2
tp4
a(S'p1_lh'
I1
tp5
a(S'p1_cv'
I1
tp6
a(S'p1_ll'
I0
tp7
a(S'p2_du'
I2
tp8
a(S'p2_lh'
I1
tp9
a(S'p2_cv'
I1
tp10
a(S'p2_ll'
I0
tp11
a(S'tr_lh'
I1
tp12
a(S'tr_ll'
I0
tp13
a(S'no_lh'
I1
tp14
a(S'no_cv'
I1
tp15
a(S'no_ll'
I0
tp16
a(S'ch_no'
I1
tp17
a(S'ch_tr'
I1
tp18
a(S'ch_p2'
I1
tp19
a(S'ch_p1'
I1
tp20
a(S'fc_mo'
I0
tp21
a(S'p1_tl'
I95
tp22
a(S'p1_ll'
I31
tp23
a(S'w'
I3
tp24
a(S'p1_vo'
I6
tp25
a(S'w'
I5
tp26
a(S'p2_du'
I0
tp27
a(S'p2_lh'
I0
tp28
a(S'p2_cv'
I0
tp29
a(S'w'
I8
tp30
a(S'w'
I1
tp31
a(S'tr_tl'
I125
tp32
a(S'tr_ll'
I31
tp33
a(S'tr_th'
I1
tp34
a(S'w'
I2
tp35
a(S'tr_lr'
I127
tp36
a(S'w'
I5
tp37
a(S'w'
I2175
tp38
a(S'p1_vo'
I5
tp39
a(S'w'
I2196
tp40
a(S'p1_vo'
I4
tp41
a(S'w'
I2207
tp42
a(S'p1_vo'
I3
tp43
a(S'w'
I2196
tp44
a(S'p1_vo'
I2
tp45
a(S'w'
I2207
tp46
a(S'p1_vo'
I1
tp47
a(S'w'
I729
tp48
a(S'p1_tl'
I160
tp49
a(S'p1_ll'
I31
tp50
a(S'w'
I2
tp51
a(S'p1_vo'
I6
tp52
a(S'w'
I2204
tp53
a(S'p1_vo'
I5
tp54
a(S'w'
I2196
tp55
a(S'p1_vo'
I4
tp56
a(S'w'
I1480
tp57
a(S'p2_tl'
I96
tp58
a(S'p2_ll'
I31
tp59
a(S'w'
I3
tp60
a(S'p2_du'
I2
tp61
a(S'p2_lh'
I1
tp62
a(S'p2_cv'
I1
tp63
a(S'p2_vo'
I3
tp64
a(S'w'
I724
tp65
a(S'p1_vo'
I3
tp66
a(S'w'
I1469
tp67
a(S'p2_vo'
I2
tp68
a(S'w'
I727
tp69
a(S'p1_vo'
I2
tp70
a(S'w'
I1468
tp71
a(S'p2_vo'
I1
tp72
a(S'w'
I739
tp73
a(S'p1_vo'
I1
tp74
a(S'w'
I728
tp75
a(S'w'
I1
tp76
a(S'p1_tl'
I127
tp77
a(S'p1_ll'
I31
tp78
a(S'w'
I2
tp79
a(S'p1_vo'
I6
tp80
a(S'w'
I737
tp81
a(S'p2_vo'
I0
tp82
a(S'w'
I1467
tp83
a(S'p1_vo'
I5
tp84
a(S'w'
I2196
tp85
a(S'p1_vo'
I4
tp86
a(S'w'
I1469
tp87
a(S'p2_tl'
I161
tp88
a(S'p2_ll'
I31
tp89
a(S'w'
I3
tp90
a(S'p2_vo'
I3
tp91
a(S'w'
I735
tp92
a(S'p1_vo'
I3
tp93
a(S'w'
I1468
tp94
a(S'p2_vo'
I2
tp95
a(S'w'
I728
tp96
a(S'p1_vo'
I2
tp97
a(S'w'
I1468
tp98
a(S'p2_vo'
I1
tp99
a(S'w'
I739
tp100
a(S'p1_vo'
I1
tp101
a(S'w'
I728
tp102
a(S'p1_tl'
I160
tp103
a(S'w'
I1
tp104
a(S'p1_ll'
I31
tp105
a(S'w'
I2
tp106
a(S'p1_vo'
I6
tp107
a(S'w'
I737
tp108
a(S'p2_vo'
I0
tp109
a(S'w'
I1467
tp110
a(S'p1_vo'
I5
tp111
a(S'w'
I2196
tp112
a(S'p1_vo'
I4
tp113
a(S'w'
I1469
tp114
a(S'p2_tl'
I128
tp115
a(S'p2_ll'
I31
tp116
a(S'w'
I2
tp117
a(S'p2_vo'
I3
tp118
a(S'w'
I736
tp119
a(S'p1_vo'
I3
tp120
a(S'w'
I1468
tp121
a(S'p2_vo'
I2
tp122
a(S'w'
I727
tp123
a(S'p1_vo'
I2
tp124
a(S'w'
I1469
tp125
a(S'p2_vo'
I1
tp126
a(S'w'
I739
tp127
a(S'p1_vo'
I1
tp128
a(S'w'
I728
tp129
a(S'p1_tl'
I113
tp130
a(S'w'
I1
tp131
a(S'p1_ll'
I31
tp132
a(S'w'
I2
tp133
a(S'p1_vo'
I6
tp134
a(S'w'
I6
tp135
a(S'tr_tl'
I197
tp136
a(S'w'
I1
tp137
a(S'tr_ll'
I31
tp138
a(S'w'
I2
tp139
a(S'w'
I728
tp140
a(S'p2_vo'
I0
tp141
a(S'w'
I1467
tp142
a(S'p1_vo'
I5
tp143
a(S'w'
I2195
tp144
a(S'p1_vo'
I4
tp145
a(S'w'
I1469
tp146
a(S'p2_tl'
I161
tp147
a(S'w'
I1
tp148
a(S'p2_ll'
I31
tp149
a(S'w'
I2
tp150
a(S'p2_vo'
I3
tp151
a(S'w'
I736
tp152
a(S'p1_vo'
I3
tp153
a(S'w'
I1468
tp154
a(S'p2_vo'
I2
tp155
a(S'w'
I727
tp156
a(S'p1_vo'
I2
tp157
a(S'w'
I1469
tp158
a(S'p2_vo'
I1
tp159
a(S'w'
I738
tp160
a(S'p1_vo'
I1
tp161
a(S'w'
I729
tp162
a(S'p1_tl'
I160
tp163
a(S'p1_ll'
I31
tp164
a(S'w'
I3
tp165
a(S'p1_vo'
I6
tp166
a(S'w'
I737
tp167
a(S'p2_vo'
I0
tp168
a(S'w'
I1467
tp169
a(S'p1_vo'
I5
tp170
a(S'w'
I2195
tp171
a(S'p1_vo'
I4
tp172
a(S'w'
I1469
tp173
a(S'p2_tl'
I114
tp174
a(S'w'
I1
tp175
a(S'p2_ll'
I31
tp176
a(S'w'
I2
tp177
a(S'p2_vo'
I3
tp178
a(S'w'
I735
tp179
a(S'p1_vo'
I3
tp180
a(S'w'
I1469
tp181
a(S'p2_vo'
I2
tp182
a(S'w'
I727
tp183
a(S'p1_vo'
I2
tp184
a(S'w'
I1468
tp185
a(S'p2_vo'
I1
tp186
a(S'w'
I739
tp187
a(S'p1_vo'
I1
tp188
a(S'w'
I729
tp189
a(S'p1_tl'
I107
tp190
a(S'p1_ll'
I31
tp191
a(S'w'
I3
tp192
a(S'p1_vo'
I6
tp193
a(S'w'
I737
tp194
a(S'p2_vo'
I0
tp195
a(S'w'
I1466
tp196
a(S'p1_vo'
I5
tp197
a(S'w'
I2196
tp198
a(S'p1_vo'
I4
tp199
a(S'w'
I1469
tp200
a(S'p2_tl'
I161
tp201
a(S'w'
I1
tp202
a(S'p2_ll'
I31
tp203
a(S'w'
I2
tp204
a(S'p2_vo'
I3
tp205
a(S'w'
I735
tp206
a(S'p1_vo'
I3
tp207
a(S'w'
I1469
tp208
a(S'p2_vo'
I2
tp209
a(S'w'
I727
tp210
a(S'p1_vo'
I2
tp211
a(S'w'
I1468
tp212
a(S'p2_vo'
I1
tp213
a(S'w'
I739
tp214
a(S'p1_vo'
I1
tp215
a(S'w'
I729
tp216
a(S'p1_tl'
I95
tp217
a(S'p1_ll'
I31
tp218
a(S'w'
I2
tp219
a(S'p1_vo'
I6
tp220
a(S'w'
I737
tp221
a(S'p2_vo'
I0
tp222
a(S'w'
I1467
tp223
a(S'p1_vo'
I5
tp224
a(S'w'
I2196
tp225
a(S'p1_vo'
I4
tp226
a(S'w'
I1469
tp227
a(S'p2_tl'
I108
tp228
a(S'p2_ll'
I31
tp229
a(S'w'
I3
tp230
a(S'p2_vo'
I3
tp231
a(S'w'
I735
tp232
a(S'p1_vo'
I3
tp233
a(S'w'
I1468
tp234
a(S'p2_vo'
I2
tp235
a(S'w'
I728
tp236
a(S'p1_vo'
I2
tp237
a(S'w'
I1468
tp238
a(S'p2_vo'
I1
tp239
a(S'w'
I739
tp240
a(S'p1_vo'
I1
tp241
a(S'w'
I728
tp242
a(S'p1_tl'
I107
tp243
a(S'w'
I1
tp244
a(S'p1_ll'
I31
tp245
a(S'w'
I2
tp246
a(S'p1_vo'
I6
tp247
a(S'w'
I8
tp248
a(S'tr_tl'
I172
tp249
a(S'tr_ll'
I31
tp250
a(S'w'
I729
tp251
a(S'p2_vo'
I0
tp252
a(S'w'
I1467
tp253
a(S'p1_vo'
I5
tp254
a(S'w'
I2196
tp255
a(S'p1_vo'
I4
tp256
a(S'w'
I1469
tp257
a(S'p2_tl'
I96
tp258
a(S'p2_ll'
I31
tp259
a(S'w'
I3
tp260
a(S'p2_vo'
I3
tp261
a(S'w'
I735
tp262
a(S'p1_vo'
I3
tp263
a(S'w'
I1468
tp264
a(S'p2_vo'
I2
tp265
a(S'w'
I727
tp266
a(S'p1_vo'
I2
tp267
a(S'w'
I1469
tp268
a(S'p2_vo'
I1
tp269
a(S'w'
I739
tp270
a(S'p1_vo'
I1
tp271
a(S'w'
I728
tp272
a(S'p1_tl'
I170
tp273
a(S'w'
I1
tp274
a(S'p1_ll'
I31
tp275
a(S'w'
I2
tp276
a(S'p1_vo'
I6
tp277
a(S'w'
I737
tp278
a(S'p2_vo'
I0
tp279
a(S'w'
I1467
tp280
a(S'p1_vo'
I5
tp281
a(S'w'
I2196
tp282
a(S'p1_vo'
I4
tp283
a(S'w'
I1469
tp284
a(S'p2_tl'
I108
tp285
a(S'p2_ll'
I31
tp286
a(S'w'
I2
tp287
a(S'p2_vo'
I3
tp288
a(S'w'
I736
tp289
a(S'p1_vo'
I3
tp290
a(S'w'
I1468
tp291
a(S'p2_vo'
I2
tp292
a(S'w'
I727
tp293
a(S'p1_vo'
I2
tp294
a(S'w'
I1469
tp295
a(S'p2_vo'
I1
tp296
a(S'w'
I738
tp297
a(S'p1_vo'
I1
tp298
a(S'w'
I729
tp299
a(S'p1_tl'
I143
tp300
a(S'w'
I1
tp301
a(S'p1_ll'
I31
tp302
a(S'w'
I2
tp303
a(S'p1_vo'
I6
tp304
a(S'w'
I737
tp305
a(S'p2_vo'
I0
tp306
a(S'w'
I1467
tp307
a(S'p1_vo'
I5
tp308
a(S'w'
I2195
tp309
a(S'p1_vo'
I4
tp310
a(S'w'
I1469
tp311
a(S'p2_tl'
I171
tp312
a(S'w'
I1
tp313
a(S'p2_ll'
I31
tp314
a(S'w'
I2
tp315
a(S'p2_vo'
I3
tp316
a(S'w'
I735
tp317
a(S'p1_vo'
I3
tp318
a(S'w'
I1469
tp319
a(S'p2_vo'
I2
tp320
a(S'w'
I727
tp321
a(S'p1_vo'
I2
tp322
a(S'w'
I1469
tp323
a(S'p2_vo'
I1
tp324
a(S'w'
I738
tp325
a(S'p1_vo'
I1
tp326
a(S'w'
I729
tp327
a(S'p1_tl'
I170
tp328
a(S'p1_ll'
I31
tp329
a(S'w'
I3
tp330
a(S'p1_vo'
I6
tp331
a(S'w'
I737
tp332
a(S'p2_vo'
I0
tp333
a(S'w'
I1466
tp334
a(S'p1_vo'
I5
tp335
a(S'w'
I2196
tp336
a(S'p1_vo'
I4
tp337
a(S'w'
I1469
tp338
a(S'p2_tl'
I144
tp339
a(S'w'
I1
tp340
a(S'p2_ll'
I31
tp341
a(S'w'
I2
tp342
a(S'p2_vo'
I3
tp343
a(S'w'
I735
tp344
a(S'p1_vo'
I3
tp345
a(S'w'
I1469
tp346
a(S'p2_vo'
I2
tp347
a(S'w'
I727
tp348
a(S'p1_vo'
I2
tp349
a(S'w'
I1468
tp350
a(S'p2_vo'
I1
tp351
a(S'w'
I739
tp352
a(S'p1_vo'
I1
tp353
a(S'w'
I729
tp354
a(S'p1_tl'
I107
tp355
a(S'p1_ll'
I31
tp356
a(S'w'
I3
tp357
a(S'p1_vo'
I6
tp358
a(S'w'
I737
tp359
a(S'p2_vo'
I0
tp360
a(S'w'
I1466
tp361
a(S'p1_vo'
I5
tp362
a(S'w'
I2196
tp363
a(S'p1_vo'
I4
tp364
a(S'w'
I1469
tp365
a(S'p2_tl'
I171
tp366
a(S'p2_ll'
I31
tp367
a(S'w'
I3
tp368
a(S'p2_vo'
I3
tp369
a(S'w'
I735
tp370
a(S'p1_vo'
I3
tp371
a(S'w'
I1469
tp372
a(S'p2_vo'
I2
tp373
a(S'w'
I727
tp374
a(S'p1_vo'
I2
tp375
a(S'w'
I1468
tp376
a(S'p2_vo'
I1
tp377
a(S'w'
I739
tp378
a(S'p1_vo'
I1
tp379
a(S'w'
I729
tp380
a(S'p1_tl'
I113
tp381
a(S'p1_ll'
I31
tp382
a(S'w'
I2
tp383
a(S'p1_vo'
I6
tp384
a(S'w'
I737
tp385
a(S'p2_vo'
I0
tp386
a(S'w'
I1467
tp387
a(S'p1_vo'
I5
tp388
a(S'w'
I2196
tp389
a(S'p1_vo'
I4
tp390
a(S'w'
I1469
tp391
a(S'p2_tl'
I108
tp392
a(S'p2_ll'
I31
tp393
a(S'w'
I3
tp394
a(S'p2_vo'
I3
tp395
a(S'w'
I735
tp396
a(S'p1_vo'
I3
tp397
a(S'w'
I1468
tp398
a(S'p2_vo'
I2
tp399
a(S'w'
I728
tp400
a(S'p1_vo'
I2
tp401
a(S'w'
I1468
tp402
a(S'p2_vo'
I1
tp403
a(S'w'
I739
tp404
a(S'p1_vo'
I1
tp405
a(S'w'
I728
tp406
a(S'p1_tl'
I85
tp407
a(S'w'
I1
tp408
a(S'p1_ll'
I31
tp409
a(S'w'
I2
tp410
a(S'p1_vo'
I6
tp411
a(S'w'
I7
tp412
a(S'tr_tl'
I83
tp413
a(S'w'
I1
tp414
a(S'tr_ll'
I31
tp415
a(S'w'
I729
tp416
a(S'p2_vo'
I0
tp417
a(S'w'
I1467
tp418
a(S'p1_vo'
I5
tp419
a(S'w'
I2196
tp420
a(S'p1_vo'
I4
tp421
a(S'w'
I1469
tp422
a(S'p2_tl'
I114
tp423
a(S'p2_ll'
I31
tp424
a(S'w'
I2
tp425
a(S'p2_vo'
I3
tp426
a(S'w'
I736
tp427
a(S'p1_vo'
I3
tp428
a(S'w'
I1468
tp429
a(S'p2_vo'
I2
tp430
a(S'w'
I727
tp431
a(S'p1_vo'
I2
tp432
a(S'w'
I1469
tp433
a(S'p2_vo'
I1
tp434
a(S'w'
I739
tp435
a(S'p1_vo'
I1
tp436
a(S'w'
I728
tp437
a(S'p1_tl'
I143
tp438
a(S'w'
I1
tp439
a(S'p1_ll'
I31
tp440
a(S'w'
I2
tp441
a(S'p1_vo'
I6
tp442
a(S'w'
I737
tp443
a(S'p2_vo'
I0
tp444
a(S'w'
I1467
tp445
a(S'p1_vo'
I5
tp446
a(S'w'
I2196
tp447
a(S'p1_vo'
I4
tp448
a(S'w'
I1469
tp449
a(S'p2_tl'
I86
tp450
a(S'p2_ll'
I31
tp451
a(S'w'
I2
tp452
a(S'p2_vo'
I3
tp453
a(S'w'
I736
tp454
a(S'p1_vo'
I3
tp455
a(S'w'
I1468
tp456
a(S'p2_vo'
I2
tp457
a(S'w'
I727
tp458
a(S'p1_vo'
I2
tp459
a(S'w'
I1469
tp460
a(S'p2_vo'
I1
tp461
a(S'w'
I738
tp462
a(S'p1_vo'
I1
tp463
a(S'w'
I729
tp464
a(S'p1_tl'
I95
tp465
a(S'p1_ll'
I31
tp466
a(S'w'
I3
tp467
a(S'p1_vo'
I6
tp468
a(S'w'
I7
tp469
a(S'tr_tl'
I125
tp470
a(S'tr_ll'
I31
tp471
a(S'w'
I730
tp472
a(S'p2_vo'
I0
tp473
a(S'w'
I1467
tp474
a(S'p1_vo'
I5
tp475
a(S'w'
I2195
tp476
a(S'p1_vo'
I4
tp477
a(S'w'
I1469
tp478
a(S'p2_tl'
I144
tp479
a(S'w'
I1
tp480
a(S'p2_ll'
I31
tp481
a(S'w'
I2
tp482
a(S'p2_vo'
I3
tp483
a(S'w'
I735
tp484
a(S'p1_vo'
I3
tp485
a(S'w'
I1469
tp486
a(S'p2_vo'
I2
tp487
a(S'w'
I727
tp488
a(S'p1_vo'
I2
tp489
a(S'w'
I1469
tp490
a(S'p2_vo'
I1
tp491
a(S'w'
I738
tp492
a(S'p1_vo'
I1
tp493
a(S'w'
I729
tp494
a(S'p1_tl'
I160
tp495
a(S'p1_ll'
I31
tp496
a(S'w'
I3
tp497
a(S'p1_vo'
I6
tp498
a(S'w'
I737
tp499
a(S'p2_vo'
I0
tp500
a(S'w'
I1466
tp501
a(S'p1_vo'
I5
tp502
a(S'w'
I2196
tp503
a(S'p1_vo'
I4
tp504
a(S'w'
I1469
tp505
a(S'p2_tl'
I96
tp506
a(S'w'
I1
tp507
a(S'p2_ll'
I31
tp508
a(S'w'
I2
tp509
a(S'p2_vo'
I3
tp510
a(S'w'
I735
tp511
a(S'p1_vo'
I3
tp512
a(S'w'
I1469
tp513
a(S'p2_vo'
I2
tp514
a(S'w'
I727
tp515
a(S'p1_vo'
I2
tp516
a(S'w'
I1468
tp517
a(S'p2_vo'
I1
tp518
a(S'w'
I739
tp519
a(S'p1_vo'
I1
tp520
a(S'w'
I729
tp521
a(S'p1_tl'
I127
tp522
a(S'p1_ll'
I31
tp523
a(S'w'
I2
tp524
a(S'p1_vo'
I6
tp525
a(S'w'
I738
tp526
a(S'p2_vo'
I0
tp527
a(S'w'
I1466
tp528
a(S'p1_vo'
I5
tp529
a(S'w'
I2196
tp530
a(S'p1_vo'
I4
tp531
a(S'w'
I1469
tp532
a(S'p2_tl'
I161
tp533
a(S'p2_ll'
I31
tp534
a(S'w'
I3
tp535
a(S'p2_vo'
I3
tp536
a(S'w'
I735
tp537
a(S'p1_vo'
I3
tp538
a(S'w'
I1469
tp539
a(S'p2_vo'
I2
tp540
a(S'w'
I727
tp541
a(S'p1_vo'
I2
tp542
a(S'w'
I1468
tp543
a(S'p2_vo'
I1
tp544
a(S'w'
I739
tp545
a(S'p1_vo'
I1
tp546
a(S'w'
I729
tp547
a(S'p1_tl'
I160
tp548
a(S'p1_ll'
I31
tp549
a(S'w'
I2
tp550
a(S'p1_vo'
I6
tp551
a(S'w'
I737
tp552
a(S'p2_vo'
I0
tp553
a(S'w'
I1467
tp554
a(S'p1_vo'
I5
tp555
a(S'w'
I2196
tp556
a(S'p1_vo'
I4
tp557
a(S'w'
I1469
tp558
a(S'p2_tl'
I128
tp559
a(S'p2_ll'
I31
tp560
a(S'w'
I3
tp561
a(S'p2_vo'
I3
tp562
a(S'w'
I735
tp563
a(S'p1_vo'
I3
tp564
a(S'w'
I1468
tp565
a(S'p2_vo'
I2
tp566
a(S'w'
I728
tp567
a(S'p1_vo'
I2
tp568
a(S'w'
I1468
tp569
a(S'p2_vo'
I1
tp570
a(S'w'
I739
tp571
a(S'p1_vo'
I1
tp572
a(S'w'
I728
tp573
a(S'p1_tl'
I113
tp574
a(S'w'
I1
tp575
a(S'p1_ll'
I31
tp576
a(S'w'
I2
tp577
a(S'p1_vo'
I6
tp578
a(S'w'
I6
tp579
a(S'tr_tl'
I197
tp580
a(S'w'
I1
tp581
a(S'tr_ll'
I31
tp582
a(S'w'
I730
tp583
a(S'p2_vo'
I0
tp584
a(S'w'
I1467
tp585
a(S'p1_vo'
I5
tp586
a(S'w'
I2196
tp587
a(S'p1_vo'
I4
tp588
a(S'w'
I1469
tp589
a(S'p2_tl'
I161
tp590
a(S'p2_ll'
I31
tp591
a(S'w'
I2
tp592
a(S'p2_vo'
I3
tp593
a(S'w'
I736
tp594
a(S'p1_vo'
I3
tp595
a(S'w'
I1468
tp596
a(S'p2_vo'
I2
tp597
a(S'w'
I727
tp598
a(S'p1_vo'
I2
tp599
a(S'w'
I1469
tp600
a(S'p2_vo'
I1
tp601
a(S'w'
I739
tp602
a(S'p1_vo'
I1
tp603
a(S'w'
I728
tp604
a(S'p1_tl'
I160
tp605
a(S'w'
I1
tp606
a(S'p1_ll'
I31
tp607
a(S'w'
I2
tp608
a(S'p1_vo'
I6
tp609
a(S'w'
I737
tp610
a(S'p2_vo'
I0
tp611
a(S'w'
I1467
tp612
a(S'p1_vo'
I5
tp613
a(S'w'
I2195
tp614
a(S'p1_vo'
I4
tp615
a(S'w'
I1469
tp616
a(S'p2_tl'
I114
tp617
a(S'w'
I1
tp618
a(S'p2_ll'
I31
tp619
a(S'w'
I2
tp620
a(S'p2_vo'
I3
tp621
a(S'w'
I736
tp622
a(S'p1_vo'
I3
tp623
a(S'w'
I1468
tp624
a(S'p2_vo'
I2
tp625
a(S'w'
I727
tp626
a(S'p1_vo'
I2
tp627
a(S'w'
I1469
tp628
a(S'p2_vo'
I1
tp629
a(S'w'
I738
tp630
a(S'p1_vo'
I1
tp631
a(S'w'
I729
tp632
a(S'p1_tl'
I127
tp633
a(S'p1_ll'
I31
tp634
a(S'w'
I3
tp635
a(S'p1_vo'
I6
tp636
a(S'w'
I737
tp637
a(S'p2_vo'
I0
tp638
a(S'w'
I1467
tp639
a(S'p1_vo'
I5
tp640
a(S'w'
I2195
tp641
a(S'p1_vo'
I4
tp642
a(S'w'
I1469
tp643
a(S'p2_tl'
I161
tp644
a(S'w'
I1
tp645
a(S'p2_ll'
I31
tp646
a(S'w'
I2
tp647
a(S'p2_vo'
I3
tp648
a(S'w'
I735
tp649
a(S'p1_vo'
I3
tp650
a(S'w'
I1469
tp651
a(S'p2_vo'
I2
tp652
a(S'w'
I727
tp653
a(S'p1_vo'
I2
tp654
a(S'w'
I1469
tp655
a(S'p2_vo'
I1
tp656
a(S'w'
I738
tp657
a(S'p1_vo'
I1
tp658
a(S'w'
I730
tp659
a(S'p1_tl'
I107
tp660
a(S'p1_ll'
I31
tp661
a(S'w'
I3
tp662
a(S'p1_vo'
I6
tp663
a(S'w'
I736
tp664
a(S'p2_vo'
I0
tp665
a(S'w'
I1466
tp666
a(S'p1_vo'
I5
tp667
a(S'w'
I2196
tp668
a(S'p1_vo'
I4
tp669
a(S'w'
I1468
tp670
a(S'p1_tl'
I95
tp671
a(S'w'
I1
tp672
a(S'p1_ll'
I31
tp673
a(S'w'
I2
tp674
a(S'p1_vo'
I6
tp675
a(S'w'
I5
tp676
a(S'p2_tl'
I128
tp677
a(S'w'
I1
tp678
a(S'p2_ll'
I31
tp679
a(S'w'
I2
tp680
a(S'p2_vo'
I3
tp681
a(S'w'
I2196
tp682
a(S'p1_vo'
I5
tp683
a(S'w'
I4
tp684
a(S'p2_vo'
I2
tp685
a(S'w'
I2191
tp686
a(S'p1_vo'
I4
tp687
a(S'w'
I4
tp688
a(S'p2_vo'
I1
tp689
a(S'w'
I1466
tp690
a(S'p1_tl'
I107
tp691
a(S'p1_ll'
I31
tp692
a(S'w'
I3
tp693
a(S'p1_vo'
I6
tp694
a(S'w'
I7
tp695
a(S'tr_tl'
I172
tp696
a(S'tr_ll'
I31
tp697
a(S'w'
I729
tp698
a(S'p2_vo'
I0
tp699
a(S'w'
I1466
tp700
a(S'p1_vo'
I5
tp701
a(S'w'
I2196
tp702
a(S'p1_vo'
I4
tp703
a(S'w'
I1470
tp704
a(S'p2_tl'
I108
tp705
a(S'p2_ll'
I31
tp706
a(S'w'
I3
tp707
a(S'p2_vo'
I3
tp708
a(S'w'
I734
tp709
a(S'p1_vo'
I3
tp710
a(S'w'
I1468
tp711
a(S'p2_vo'
I2
tp712
a(S'w'
I728
tp713
a(S'p1_vo'
I2
tp714
a(S'w'
I1468
tp715
a(S'p2_vo'
I1
tp716
a(S'w'
I739
tp717
a(S'p1_vo'
I1
tp718
a(S'w'
I728
tp719
a(S'p1_tl'
I170
tp720
a(S'w'
I1
tp721
a(S'p1_ll'
I31
tp722
a(S'w'
I2
tp723
a(S'p1_vo'
I6
tp724
a(S'w'
I6
tp725
a(S'p2_tl'
I96
tp726
a(S'p2_ll'
I31
tp727
a(S'w'
I2
tp728
a(S'p2_vo'
I3
tp729
a(S'w'
I2196
tp730
a(S'p1_vo'
I5
tp731
a(S'w'
I4
tp732
a(S'p2_vo'
I2
tp733
a(S'w'
I2192
tp734
a(S'p1_vo'
I4
tp735
a(S'w'
I4
tp736
a(S'p2_vo'
I1
tp737
a(S'w'
I1466
tp738
a(S'p2_tl'
I108
tp739
a(S'p2_ll'
I31
tp740
a(S'w'
I3
tp741
a(S'p2_vo'
I3
tp742
a(S'w'
I734
tp743
a(S'p1_vo'
I3
tp744
a(S'w'
I1468
tp745
a(S'p2_vo'
I2
tp746
a(S'w'
I727
tp747
a(S'p1_vo'
I2
tp748
a(S'w'
I1469
tp749
a(S'p2_vo'
I1
tp750
a(S'w'
I739
tp751
a(S'p1_vo'
I1
tp752
a(S'w'
I728
tp753
a(S'p1_tl'
I143
tp754
a(S'w'
I1
tp755
a(S'p1_ll'
I31
tp756
a(S'w'
I2
tp757
a(S'p1_vo'
I6
tp758
a(S'w'
I737
tp759
a(S'p2_vo'
I0
tp760
a(S'w'
I1467
tp761
a(S'p1_vo'
I5
tp762
a(S'w'
I2196
tp763
a(S'p1_vo'
I4
tp764
a(S'w'
I1469
tp765
a(S'p2_tl'
I171
tp766
a(S'p2_ll'
I31
tp767
a(S'w'
I2
tp768
a(S'p2_vo'
I3
tp769
a(S'w'
I736
tp770
a(S'p1_vo'
I3
tp771
a(S'w'
I1468
tp772
a(S'p2_vo'
I2
tp773
a(S'w'
I727
tp774
a(S'p1_vo'
I2
tp775
a(S'w'
I1469
tp776
a(S'p2_vo'
I1
tp777
a(S'w'
I739
tp778
a(S'p1_vo'
I1
tp779
a(S'w'
I728
tp780
a(S'p1_tl'
I226
tp781
a(S'p1_ll'
I31
tp782
a(S'w'
I3
tp783
a(S'p1_vo'
I6
tp784
a(S'w'
I737
tp785
a(S'p2_vo'
I0
tp786
a(S'w'
I1467
tp787
a(S'p1_vo'
I5
tp788
a(S'w'
I2195
tp789
a(S'p1_vo'
I4
tp790
a(S'w'
I1469
tp791
a(S'p2_tl'
I144
tp792
a(S'w'
I1
tp793
a(S'p2_ll'
I31
tp794
a(S'w'
I2
tp795
a(S'p2_vo'
I3
tp796
a(S'w'
I736
tp797
a(S'p1_vo'
I3
tp798
a(S'w'
I1468
tp799
a(S'p2_vo'
I2
tp800
a(S'w'
I727
tp801
a(S'p1_vo'
I2
tp802
a(S'w'
I1469
tp803
a(S'p2_vo'
I1
tp804
a(S'w'
I738
tp805
a(S'p1_vo'
I1
tp806
a(S'w'
I729
tp807
a(S'p1_tl'
I127
tp808
a(S'p1_ll'
I31
tp809
a(S'w'
I3
tp810
a(S'p1_vo'
I6
tp811
a(S'w'
I737
tp812
a(S'p2_vo'
I0
tp813
a(S'w'
I1467
tp814
a(S'p1_vo'
I5
tp815
a(S'w'
I2195
tp816
a(S'p1_vo'
I4
tp817
a(S'w'
I1469
tp818
a(S'p2_tl'
I227
tp819
a(S'w'
I1
tp820
a(S'p2_ll'
I31
tp821
a(S'w'
I2
tp822
a(S'p2_vo'
I3
tp823
a(S'w'
I735
tp824
a(S'p1_vo'
I3
tp825
a(S'w'
I1469
tp826
a(S'p2_vo'
I2
tp827
a(S'w'
I727
tp828
a(S'p1_vo'
I2
tp829
a(S'w'
I1468
tp830
a(S'p2_vo'
I1
tp831
a(S'w'
I739
tp832
a(S'p1_vo'
I1
tp833
a(S'w'
I729
tp834
a(S'p1_tl'
I113
tp835
a(S'p1_ll'
I31
tp836
a(S'w'
I3
tp837
a(S'p1_vo'
I6
tp838
a(S'w'
I737
tp839
a(S'p2_vo'
I0
tp840
a(S'w'
I1466
tp841
a(S'p1_vo'
I5
tp842
a(S'w'
I2196
tp843
a(S'p1_vo'
I4
tp844
a(S'w'
I1469
tp845
a(S'p2_tl'
I128
tp846
a(S'p2_ll'
I31
tp847
a(S'w'
I3
tp848
a(S'p2_vo'
I3
tp849
a(S'w'
I735
tp850
a(S'p1_vo'
I3
tp851
a(S'w'
I1469
tp852
a(S'p2_vo'
I2
tp853
a(S'w'
I727
tp854
a(S'p1_vo'
I2
tp855
a(S'w'
I1468
tp856
a(S'p2_vo'
I1
tp857
a(S'w'
I739
tp858
a(S'p1_vo'
I1
tp859
a(S'w'
I729
tp860
a(S'p1_tl'
I127
tp861
a(S'p1_ll'
I31
tp862
a(S'w'
I2
tp863
a(S'p1_vo'
I6
tp864
a(S'w'
I737
tp865
a(S'p2_vo'
I0
tp866
a(S'w'
I1467
tp867
a(S'p1_vo'
I5
tp868
a(S'w'
I2196
tp869
a(S'p1_vo'
I4
tp870
a(S'w'
I1469
tp871
a(S'p2_tl'
I114
tp872
a(S'p2_ll'
I31
tp873
a(S'w'
I3
tp874
a(S'p2_vo'
I3
tp875
a(S'w'
I735
tp876
a(S'p1_vo'
I3
tp877
a(S'w'
I1468
tp878
a(S'p2_vo'
I2
tp879
a(S'w'
I728
tp880
a(S'p1_vo'
I2
tp881
a(S'w'
I1468
tp882
a(S'p2_vo'
I1
tp883
a(S'w'
I739
tp884
a(S'p1_vo'
I1
tp885
a(S'w'
I728
tp886
a(S'p1_tl'
I170
tp887
a(S'w'
I1
tp888
a(S'p1_ll'
I31
tp889
a(S'w'
I2
tp890
a(S'p1_vo'
I6
tp891
a(S'w'
I737
tp892
a(S'p2_vo'
I0
tp893
a(S'w'
I1467
tp894
a(S'p1_vo'
I5
tp895
a(S'w'
I2196
tp896
a(S'p1_vo'
I4
tp897
a(S'w'
I1469
tp898
a(S'p2_tl'
I128
tp899
a(S'p2_ll'
I31
tp900
a(S'w'
I2
tp901
a(S'p2_vo'
I3
tp902
a(S'w'
I736
tp903
a(S'p1_vo'
I3
tp904
a(S'w'
I1468
tp905
a(S'p2_vo'
I2
tp906
a(S'w'
I727
tp907
a(S'p1_vo'
I2
tp908
a(S'w'
I1469
tp909
a(S'p2_vo'
I1
tp910
a(S'w'
I739
tp911
a(S'p1_vo'
I1
tp912
a(S'w'
I730
tp913
a(S'p1_tl'
I95
tp914
a(S'w'
I1
tp915
a(S'p1_ll'
I31
tp916
a(S'w'
I2
tp917
a(S'p1_vo'
I6
tp918
a(S'w'
I9
tp919
a(S'tr_tl'
I125
tp920
a(S'w'
I1
tp921
a(S'tr_ll'
I31
tp922
a(S'w'
I725
tp923
a(S'p2_vo'
I0
tp924
a(S'w'
I1467
tp925
a(S'p1_vo'
I5
tp926
a(S'w'
I2195
tp927
a(S'p1_vo'
I4
tp928
a(S'w'
I1470
tp929
a(S'p2_tl'
I171
tp930
a(S'p2_ll'
I31
tp931
a(S'w'
I2
tp932
a(S'p2_vo'
I3
tp933
a(S'w'
I736
tp934
a(S'p1_vo'
I3
tp935
a(S'w'
I1468
tp936
a(S'p2_vo'
I2
tp937
a(S'w'
I727
tp938
a(S'p1_vo'
I2
tp939
a(S'w'
I1469
tp940
a(S'p2_vo'
I1
tp941
a(S'w'
I738
tp942
a(S'p1_vo'
I1
tp943
a(S'w'
I729
tp944
a(S'p1_tl'
I160
tp945
a(S'p1_ll'
I31
tp946
a(S'w'
I3
tp947
a(S'p1_vo'
I6
tp948
a(S'w'
I737
tp949
a(S'p2_vo'
I0
tp950
a(S'w'
I1467
tp951
a(S'p1_vo'
I5
tp952
a(S'w'
I2195
tp953
a(S'p1_vo'
I4
tp954
a(S'w'
I1471
tp955
a.