(lp1
(S'clock'
p2
I1789772
tp3
a(S'p1_du'
I2
tp4
a(S'p1_lh'
I1
tp5
a(S'p1_cv'
I1
tp6
a(S'p1_ll'
I0
tp7
a(S'p2_du'
I2
tp8
a(S'p2_lh'
I1
tp9
a(S'p2_cv'
I1
tp10
a(S'p2_ll'
I0
tp11
a(S'tr_lh'
I1
tp12
a(S'tr_ll'
I0
tp13
a(S'no_lh'
I1
tp14
a(S'no_cv'
I1
tp15
a(S'no_ll'
I0
tp16
a(S'ch_no'
I1
tp17
a(S'ch_tr'
I1
tp18
a(S'ch_p2'
I1
tp19
a(S'ch_p1'
I1
tp20
a(S'fc_mo'
I0
tp21
a(S'p1_tl'
I197
tp22
a(S'w'
I1
tp23
a(S'p1_ll'
I31
tp24
a(S'p1_th'
I1
tp25
a(S'w'
I2
tp26
a(S'p1_vo'
I6
tp27
a(S'w'
I14
tp28
a(S'w'
I10
tp29
a(S'tr_lh'
I0
tp30
a(S'w'
I14
tp31
a(S'no_np'
I2
tp32
a(S'w'
I1
tp33
a(S'no_ll'
I31
tp34
a(S'w'
I2
tp35
a(S'no_vo'
I6
tp36
a(S'w'
I674
tp37
a(S'no_vo'
I0
tp38
a(S'w'
I737
tp39
a(S'p1_vo'
I5
tp40
a(S'w'
I1468
tp41
a(S'p1_vo'
I4
tp42
a(S'w'
I1467
tp43
a(S'p1_vo'
I3
tp44
a(S'w'
I1469
tp45
a(S'p1_ll'
I31
tp46
a(S'w'
I2
tp47
a(S'p1_vo'
I6
tp48
a(S'w'
I1465
tp49
a(S'p1_vo'
I5
tp50
a(S'w'
I1467
tp51
a(S'p1_vo'
I4
tp52
a(S'w'
I1468
tp53
a(S'p1_vo'
I3
tp54
a(S'w'
I1468
tp55
a(S'p1_tl'
I252
tp56
a(S'p1_ll'
I31
tp57
a(S'w'
I3
tp58
a(S'p1_vo'
I6
tp59
a(S'w'
I7
tp60
a(S'no_ll'
I31
tp61
a(S'w'
I3
tp62
a(S'no_vo'
I6
tp63
a(S'w'
I717
tp64
a(S'no_vo'
I0
tp65
a(S'w'
I737
tp66
a(S'p1_vo'
I5
tp67
a(S'w'
I1468
tp68
a(S'p1_vo'
I4
tp69
a(S'w'
I1467
tp70
a(S'p1_vo'
I3
tp71
a(S'w'
I1468
tp72
a(S'p1_tl'
I197
tp73
a(S'w'
I1
tp74
a(S'p1_ll'
I31
tp75
a(S'w'
I2
tp76
a(S'p1_vo'
I6
tp77
a(S'w'
I6
tp78
a(S'no_ll'
I31
tp79
a(S'w'
I3
tp80
a(S'no_vo'
I6
tp81
a(S'w'
I719
tp82
a(S'no_vo'
I0
tp83
a(S'w'
I736
tp84
a(S'p1_vo'
I5
tp85
a(S'w'
I1468
tp86
a(S'p1_vo'
I4
tp87
a(S'w'
I1468
tp88
a(S'p1_vo'
I3
tp89
a(S'w'
I1468
tp90
a(S'p1_vo'
I0
tp91
a(S'w'
I9
tp92
a(S'no_ll'
I31
tp93
a(S'w'
I3
tp94
a(S'no_vo'
I6
tp95
a(S'w'
I718
tp96
a(S'no_vo'
I0
tp97
a(S'w'
I11015
tp98
a(S'w'
I1
tp99
a(S'tr_tl'
I197
tp100
a(S'tr_ll'
I31
tp101
a(S'tr_th'
I1
tp102
a(S'w'
I2
tp103
a(S'tr_lh'
I1
tp104
a(S'tr_lr'
I127
tp105
a(S'w'
I6
tp106
a(S'no_ll'
I31
tp107
a(S'w'
I2
tp108
a(S'no_vo'
I6
tp109
a(S'w'
I715
tp110
a(S'no_vo'
I0
tp111
a(S'w'
I3673
tp112
a(S'tr_lh'
I0
tp113
a(S'tr_lr'
I0
tp114
a(S'w'
I1469
tp115
a(S'tr_ll'
I31
tp116
a(S'w'
I2
tp117
a(S'tr_lh'
I1
tp118
a(S'tr_lr'
I127
tp119
a(S'w'
I4
tp120
a(S'w'
I1
tp121
a(S'no_ll'
I31
tp122
a(S'w'
I2
tp123
a(S'no_vo'
I6
tp124
a(S'w'
I719
tp125
a(S'no_vo'
I0
tp126
a(S'w'
I3674
tp127
a(S'tr_lh'
I0
tp128
a(S'tr_lr'
I0
tp129
a(S'w'
I1467
tp130
a(S'p1_tl'
I125
tp131
a(S'w'
I1
tp132
a(S'p1_ll'
I31
tp133
a(S'w'
I2
tp134
a(S'p1_vo'
I6
tp135
a(S'w'
I6
tp136
a(S'tr_tl'
I125
tp137
a(S'w'
I1
tp138
a(S'tr_ll'
I31
tp139
a(S'w'
I2
tp140
a(S'tr_lh'
I1
tp141
a(S'tr_lr'
I127
tp142
a(S'w'
I7
tp143
a(S'w'
I1
tp144
a(S'no_ll'
I31
tp145
a(S'w'
I2
tp146
a(S'no_vo'
I6
tp147
a(S'w'
I708
tp148
a(S'no_vo'
I0
tp149
a(S'w'
I736
tp150
a(S'p1_vo'
I5
tp151
a(S'w'
I1468
tp152
a(S'p1_vo'
I4
tp153
a(S'w'
I1468
tp154
a(S'p1_vo'
I3
tp155
a(S'w'
I4
tp156
a(S'tr_lh'
I0
tp157
a(S'tr_lr'
I0
tp158
a(S'w'
I1463
tp159
a(S'p1_vo'
I2
tp160
a(S'w'
I6
tp161
a(S'tr_tl'
I83
tp162
a(S'tr_ll'
I31
tp163
a(S'w'
I2
tp164
a(S'tr_lh'
I1
tp165
a(S'tr_lr'
I127
tp166
a(S'w'
I1460
tp167
a(S'p1_vo'
I1
tp168
a(S'w'
I1467
tp169
a(S'p1_vo'
I0
tp170
a(S'w'
I1473
tp171
a(S'tr_lh'
I0
tp172
a(S'tr_lr'
I0
tp173
a(S'w'
I1463
tp174
a(S'p1_tl'
I83
tp175
a(S'w'
I1
tp176
a(S'p1_ll'
I31
tp177
a(S'w'
I2
tp178
a(S'p1_vo'
I6
tp179
a(S'w'
I10
tp180
a(S'w'
I1
tp181
a(S'no_ll'
I31
tp182
a(S'w'
I2
tp183
a(S'no_vo'
I6
tp184
a(S'w'
I714
tp185
a(S'no_vo'
I0
tp186
a(S'w'
I737
tp187
a(S'p1_vo'
I5
tp188
a(S'w'
I1468
tp189
a(S'p1_vo'
I4
tp190
a(S'w'
I1467
tp191
a(S'p1_vo'
I3
tp192
a(S'w'
I1468
tp193
a(S'p1_vo'
I2
tp194
a(S'w'
I6
tp195
a(S'tr_tl'
I46
tp196
a(S'tr_ll'
I31
tp197
a(S'w'
I2
tp198
a(S'tr_lh'
I1
tp199
a(S'tr_lr'
I127
tp200
a(S'w'
I4
tp201
a(S'no_ll'
I31
tp202
a(S'w'
I3
tp203
a(S'no_vo'
I6
tp204
a(S'w'
I716
tp205
a(S'no_vo'
I0
tp206
a(S'w'
I737
tp207
a(S'p1_vo'
I1
tp208
a(S'w'
I1467
tp209
a(S'p1_vo'
I0
tp210
a(S'w'
I1472
tp211
a(S'tr_lh'
I0
tp212
a(S'tr_lr'
I0
tp213
a(S'w'
I1464
tp214
a(S'p1_tl'
I252
tp215
a(S'p1_ll'
I31
tp216
a(S'w'
I3
tp217
a(S'p1_vo'
I6
tp218
a(S'w'
I6
tp219
a(S'tr_ll'
I31
tp220
a(S'w'
I2
tp221
a(S'tr_lh'
I1
tp222
a(S'tr_lr'
I127
tp223
a(S'w'
I8
tp224
a(S'no_ll'
I31
tp225
a(S'w'
I2
tp226
a(S'no_vo'
I6
tp227
a(S'w'
I709
tp228
a(S'no_vo'
I0
tp229
a(S'w'
I737
tp230
a(S'p1_vo'
I5
tp231
a(S'w'
I1468
tp232
a(S'p1_vo'
I4
tp233
a(S'w'
I1467
tp234
a(S'p1_vo'
I3
tp235
a(S'w'
I5
tp236
a(S'tr_lh'
I0
tp237
a(S'tr_lr'
I0
tp238
a(S'w'
I1463
tp239
a(S'p1_vo'
I2
tp240
a(S'w'
I1468
tp241
a(S'p1_vo'
I1
tp242
a(S'w'
I1467
tp243
a(S'p1_vo'
I0
tp244
a(S'w'
I2936
tp245
a(S'p1_tl'
I197
tp246
a(S'p1_ll'
I31
tp247
a(S'w'
I3
tp248
a(S'p1_vo'
I6
tp249
a(S'w'
I6
tp250
a(S'tr_tl'
I197
tp251
a(S'tr_ll'
I31
tp252
a(S'w'
I2
tp253
a(S'tr_lh'
I1
tp254
a(S'tr_lr'
I127
tp255
a(S'w'
I5
tp256
a(S'w'
I1
tp257
a(S'no_ll'
I31
tp258
a(S'w'
I2
tp259
a(S'no_vo'
I6
tp260
a(S'w'
I711
tp261
a(S'no_vo'
I0
tp262
a(S'w'
I737
tp263
a(S'p1_vo'
I5
tp264
a(S'w'
I1467
tp265
a(S'p1_vo'
I4
tp266
a(S'w'
I1468
tp267
a(S'p1_vo'
I3
tp268
a(S'w'
I5
tp269
a(S'tr_lh'
I0
tp270
a(S'tr_lr'
I0
tp271
a(S'w'
I1463
tp272
a(S'p1_vo'
I2
tp273
a(S'w'
I5
tp274
a(S'tr_ll'
I31
tp275
a(S'w'
I3
tp276
a(S'tr_lh'
I1
tp277
a(S'tr_lr'
I127
tp278
a(S'w'
I4
tp279
a(S'no_ll'
I31
tp280
a(S'w'
I3
tp281
a(S'no_vo'
I6
tp282
a(S'w'
I715
tp283
a(S'no_vo'
I0
tp284
a(S'w'
I737
tp285
a(S'p1_vo'
I1
tp286
a(S'w'
I1468
tp287
a(S'p1_vo'
I0
tp288
a(S'w'
I1472
tp289
a(S'tr_lh'
I0
tp290
a(S'tr_lr'
I0
tp291
a(S'w'
I1467
tp292
a(S'p1_tl'
I125
tp293
a(S'p1_ll'
I31
tp294
a(S'w'
I2
tp295
a(S'p1_vo'
I6
tp296
a(S'w'
I19
tp297
a(S'no_ll'
I31
tp298
a(S'w'
I2
tp299
a(S'no_vo'
I6
tp300
a(S'w'
I704
tp301
a(S'no_vo'
I0
tp302
a(S'w'
I737
tp303
a(S'p1_vo'
I5
tp304
a(S'w'
I1467
tp305
a(S'p1_vo'
I4
tp306
a(S'w'
I1468
tp307
a(S'p1_vo'
I3
tp308
a(S'w'
I1468
tp309
a(S'p1_vo'
I2
tp310
a(S'w'
I5
tp311
a(S'tr_tl'
I125
tp312
a(S'tr_ll'
I31
tp313
a(S'w'
I2
tp314
a(S'tr_lh'
I1
tp315
a(S'tr_lr'
I127
tp316
a(S'w'
I1460
tp317
a(S'p1_vo'
I1
tp318
a(S'w'
I1468
tp319
a(S'p1_vo'
I0
tp320
a(S'w'
I1472
tp321
a(S'tr_lh'
I0
tp322
a(S'tr_lr'
I0
tp323
a(S'w'
I1468
tp324
a(S'w'
I1
tp325
a(S'p2_tl'
I172
tp326
a(S'p2_ll'
I31
tp327
a(S'p2_th'
I1
tp328
a(S'w'
I2
tp329
a(S'p2_vo'
I7
tp330
a(S'w'
I6
tp331
a(S'tr_ll'
I31
tp332
a(S'w'
I2
tp333
a(S'tr_lh'
I1
tp334
a(S'tr_lr'
I127
tp335
a(S'w'
I10
tp336
a(S'no_np'
I8
tp337
a(S'no_ll'
I31
tp338
a(S'w'
I2
tp339
a(S'no_vo'
I7
tp340
a(S'w'
I702
tp341
a(S'p2_tl'
I27
tp342
a(S'p2_ll'
I31
tp343
a(S'p2_th'
I2
tp344
a(S'w'
I739
tp345
a(S'p2_vo'
I0
tp346
a(S'w'
I6
tp347
a(S'no_vo'
I6
tp348
a(S'w'
I723
tp349
a(S'no_vo'
I4
tp350
a(S'w'
I740
tp351
a(S'no_vo'
I3
tp352
a(S'w'
I1466
tp353
a(S'tr_lh'
I0
tp354
a(S'tr_lr'
I0
tp355
a(S'w'
I4
tp356
a(S'no_vo'
I2
tp357
a(S'w'
I1463
tp358
a(S'p1_tl'
I83
tp359
a(S'p1_ll'
I31
tp360
a(S'w'
I3
tp361
a(S'p1_vo'
I6
tp362
a(S'w'
I6
tp363
a(S'p2_tl'
I172
tp364
a(S'p2_ll'
I31
tp365
a(S'p2_th'
I1
tp366
a(S'w'
I3
tp367
a(S'p2_vo'
I7
tp368
a(S'w'
I5
tp369
a(S'tr_tl'
I83
tp370
a(S'tr_ll'
I31
tp371
a(S'w'
I3
tp372
a(S'tr_lh'
I1
tp373
a(S'tr_lr'
I127
tp374
a(S'w'
I4
tp375
a(S'no_ll'
I31
tp376
a(S'w'
I2
tp377
a(S'no_vo'
I7
tp378
a(S'w'
I703
tp379
a(S'p2_tl'
I27
tp380
a(S'p2_ll'
I31
tp381
a(S'p2_th'
I2
tp382
a(S'w'
I738
tp383
a(S'p1_vo'
I5
tp384
a(S'w'
I5
tp385
a(S'p2_vo'
I0
tp386
a(S'w'
I5
tp387
a(S'no_vo'
I6
tp388
a(S'w'
I721
tp389
a(S'no_vo'
I4
tp390
a(S'w'
I737
tp391
a(S'p1_vo'
I4
tp392
a(S'w'
I5
tp393
a(S'no_vo'
I3
tp394
a(S'w'
I1462
tp395
a(S'p1_vo'
I3
tp396
a(S'w'
I5
tp397
a(S'tr_lh'
I0
tp398
a(S'tr_lr'
I0
tp399
a(S'w'
I4
tp400
a(S'no_vo'
I2
tp401
a(S'w'
I1459
tp402
a(S'p1_vo'
I2
tp403
a(S'w'
I5
tp404
a(S'p2_tl'
I172
tp405
a(S'w'
I1
tp406
a(S'p2_ll'
I31
tp407
a(S'p2_th'
I1
tp408
a(S'w'
I2
tp409
a(S'p2_vo'
I7
tp410
a(S'w'
I10
tp411
a(S'no_ll'
I31
tp412
a(S'w'
I2
tp413
a(S'no_vo'
I7
tp414
a(S'w'
I709
tp415
a(S'p2_tl'
I27
tp416
a(S'w'
I1
tp417
a(S'p2_ll'
I31
tp418
a(S'p2_th'
I2
tp419
a(S'w'
I737
tp420
a(S'p1_vo'
I1
tp421
a(S'w'
I5
tp422
a(S'p2_vo'
I0
tp423
a(S'w'
I6
tp424
a(S'no_vo'
I6
tp425
a(S'w'
I720
tp426
a(S'no_vo'
I4
tp427
a(S'w'
I737
tp428
a(S'p1_vo'
I0
tp429
a(S'w'
I6
tp430
a(S'no_vo'
I3
tp431
a(S'w'
I1467
tp432
a(S'no_vo'
I2
tp433
a(S'w'
I2193
tp434
a(S'no_vo'
I1
tp435
a(S'w'
I2935
tp436
a(S'no_vo'
I0
tp437
a(S'w'
I2206
tp438
a(S'p1_tl'
I252
tp439
a(S'w'
I1
tp440
a(S'p1_ll'
I31
tp441
a(S'w'
I2
tp442
a(S'p1_vo'
I6
tp443
a(S'w'
I11
tp444
a(S'tr_tl'
I252
tp445
a(S'tr_ll'
I31
tp446
a(S'w'
I2
tp447
a(S'tr_lh'
I1
tp448
a(S'tr_lr'
I127
tp449
a(S'w'
I9
tp450
a(S'no_np'
I2
tp451
a(S'w'
I1
tp452
a(S'no_ll'
I31
tp453
a(S'w'
I2
tp454
a(S'no_vo'
I6
tp455
a(S'w'
I701
tp456
a(S'no_vo'
I0
tp457
a(S'w'
I737
tp458
a(S'p1_vo'
I5
tp459
a(S'w'
I1468
tp460
a(S'p1_vo'
I4
tp461
a(S'w'
I1467
tp462
a(S'p1_vo'
I3
tp463
a(S'w'
I5
tp464
a(S'tr_lh'
I0
tp465
a(S'tr_lr'
I0
tp466
a(S'w'
I1463
tp467
a(S'p1_vo'
I2
tp468
a(S'w'
I9
tp469
a(S'no_ll'
I31
tp470
a(S'w'
I2
tp471
a(S'no_vo'
I6
tp472
a(S'w'
I720
tp473
a(S'no_vo'
I0
tp474
a(S'w'
I737
tp475
a(S'p1_vo'
I1
tp476
a(S'w'
I1467
tp477
a(S'p1_vo'
I0
tp478
a(S'w'
I2939
tp479
a(S'p1_tl'
I197
tp480
a(S'w'
I1
tp481
a(S'p1_ll'
I31
tp482
a(S'w'
I2
tp483
a(S'p1_vo'
I6
tp484
a(S'w'
I10
tp485
a(S'tr_tl'
I197
tp486
a(S'tr_ll'
I31
tp487
a(S'w'
I2
tp488
a(S'tr_lh'
I1
tp489
a(S'tr_lr'
I127
tp490
a(S'w'
I5
tp491
a(S'w'
I1
tp492
a(S'no_ll'
I31
tp493
a(S'w'
I2
tp494
a(S'no_vo'
I6
tp495
a(S'w'
I704
tp496
a(S'no_vo'
I0
tp497
a(S'w'
I8075
tp498
a(S'p1_vo'
I5
tp499
a(S'w'
I2938
tp500
a(S'p2_tl'
I172
tp501
a(S'p2_ll'
I31
tp502
a(S'p2_th'
I1
tp503
a(S'w'
I2
tp504
a(S'p2_vo'
I7
tp505
a(S'w'
I11
tp506
a(S'no_np'
I8
tp507
a(S'no_ll'
I31
tp508
a(S'w'
I3
tp509
a(S'no_vo'
I7
tp510
a(S'w'
I711
tp511
a(S'p2_tl'
I27
tp512
a(S'p2_ll'
I31
tp513
a(S'p2_th'
I2
tp514
a(S'w'
I739
tp515
a(S'p2_vo'
I0
tp516
a(S'w'
I6
tp517
a(S'no_vo'
I6
tp518
a(S'w'
I724
tp519
a(S'no_vo'
I4
tp520
a(S'w'
I739
tp521
a(S'no_vo'
I3
tp522
a(S'w'
I1468
tp523
a(S'no_vo'
I2
tp524
a(S'w'
I1465
tp525
a(S'p1_vo'
I4
tp526
a(S'w'
I5
tp527
a(S'p2_tl'
I172
tp528
a(S'w'
I1
tp529
a(S'p2_ll'
I31
tp530
a(S'p2_th'
I1
tp531
a(S'w'
I2
tp532
a(S'p2_vo'
I7
tp533
a(S'w'
I5
tp534
a(S'w'
I1
tp535
a(S'no_ll'
I31
tp536
a(S'w'
I2
tp537
a(S'no_vo'
I7
tp538
a(S'w'
I713
tp539
a(S'p2_tl'
I27
tp540
a(S'p2_ll'
I31
tp541
a(S'p2_th'
I2
tp542
a(S'w'
I740
tp543
a(S'p2_vo'
I0
tp544
a(S'w'
I5
tp545
a(S'no_vo'
I6
tp546
a(S'w'
I724
tp547
a(S'no_vo'
I4
tp548
a(S'w'
I740
tp549
a(S'no_vo'
I3
tp550
a(S'w'
I1467
tp551
a(S'no_vo'
I2
tp552
a(S'w'
I1468
tp553
a(S'p2_tl'
I224
tp554
a(S'p2_ll'
I31
tp555
a(S'p2_th'
I1
tp556
a(S'w'
I2
tp557
a(S'p2_vo'
I7
tp558
a(S'w'
I5
tp559
a(S'no_np'
I9
tp560
a(S'w'
I1
tp561
a(S'no_ll'
I31
tp562
a(S'w'
I2
tp563
a(S'no_vo'
I7
tp564
a(S'w'
I717
tp565
a(S'p2_tl'
I27
tp566
a(S'p2_ll'
I31
tp567
a(S'p2_th'
I2
tp568
a(S'w'
I739
tp569
a(S'p2_vo'
I0
tp570
a(S'w'
I6
tp571
a(S'no_vo'
I6
tp572
a(S'w'
I723
tp573
a(S'no_vo'
I4
tp574
a(S'w'
I737
tp575
a(S'p1_vo'
I3
tp576
a(S'w'
I6
tp577
a(S'no_vo'
I3
tp578
a(S'w'
I1465
tp579
a(S'no_vo'
I2
tp580
a(S'w'
I1467
tp581
a(S'p2_tl'
I224
tp582
a(S'p2_ll'
I31
tp583
a(S'p2_th'
I1
tp584
a(S'w'
I3
tp585
a(S'p2_vo'
I7
tp586
a(S'w'
I5
tp587
a(S'no_ll'
I31
tp588
a(S'w'
I3
tp589
a(S'no_vo'
I7
tp590
a(S'w'
I716
tp591
a(S'p2_tl'
I27
tp592
a(S'p2_ll'
I31
tp593
a(S'p2_th'
I2
tp594
a(S'w'
I740
tp595
a(S'p2_vo'
I0
tp596
a(S'w'
I5
tp597
a(S'no_vo'
I6
tp598
a(S'w'
I724
tp599
a(S'no_vo'
I4
tp600
a(S'w'
I739
tp601
a(S'no_vo'
I3
tp602
a(S'w'
I1468
tp603
a(S'no_vo'
I2
tp604
a(S'w'
I1465
tp605
a(S'p1_vo'
I2
tp606
a(S'w'
I11
tp607
a(S'tr_tl'
I172
tp608
a(S'tr_ll'
I31
tp609
a(S'w'
I6
tp610
a(S'no_np'
I10
tp611
a(S'w'
I1
tp612
a(S'no_ll'
I31
tp613
a(S'w'
I2
tp614
a(S'no_vo'
I7
tp615
a(S'w'
I710
tp616
a(S'tr_tl'
I27
tp617
a(S'w'
I1
tp618
a(S'tr_ll'
I31
tp619
a(S'tr_th'
I2
tp620
a(S'w'
I739
tp621
a(S'tr_lh'
I0
tp622
a(S'tr_lr'
I0
tp623
a(S'w'
I5
tp624
a(S'no_vo'
I6
tp625
a(S'w'
I723
tp626
a(S'no_vo'
I4
tp627
a(S'w'
I740
tp628
a(S'no_vo'
I3
tp629
a(S'w'
I1467
tp630
a(S'no_vo'
I2
tp631
a(S'w'
I1469
tp632
a(S'tr_tl'
I172
tp633
a(S'tr_ll'
I31
tp634
a(S'tr_th'
I1
tp635
a(S'w'
I2
tp636
a(S'tr_lh'
I1
tp637
a(S'tr_lr'
I127
tp638
a(S'w'
I4
tp639
a(S'w'
I1
tp640
a(S'no_ll'
I31
tp641
a(S'w'
I2
tp642
a(S'no_vo'
I7
tp643
a(S'w'
I718
tp644
a(S'tr_tl'
I27
tp645
a(S'tr_ll'
I31
tp646
a(S'tr_th'
I2
tp647
a(S'w'
I739
tp648
a(S'tr_lh'
I0
tp649
a(S'tr_lr'
I0
tp650
a(S'w'
I5
tp651
a(S'no_vo'
I6
tp652
a(S'w'
I724
tp653
a(S'no_vo'
I4
tp654
a(S'w'
I737
tp655
a(S'p1_vo'
I1
tp656
a(S'w'
I5
tp657
a(S'no_vo'
I3
tp658
a(S'w'
I1465
tp659
a(S'no_vo'
I2
tp660
a(S'w'
I1473
tp661
a(S'w'
I1
tp662
a(S'p1_ll'
I31
tp663
a(S'w'
I2
tp664
a(S'p1_vo'
I6
tp665
a(S'w'
I34
tp666
a(S'no_np'
I2
tp667
a(S'no_ll'
I31
tp668
a(S'w'
I3
tp669
a(S'no_vo'
I6
tp670
a(S'w'
I682
tp671
a(S'no_vo'
I0
tp672
a(S'w'
I737
tp673
a(S'p1_vo'
I5
tp674
a(S'w'
I1468
tp675
a(S'p1_vo'
I4
tp676
a(S'w'
I1468
tp677
a(S'p1_vo'
I3
tp678
a(S'w'
I1468
tp679
a(S'p1_ll'
I31
tp680
a(S'w'
I2
tp681
a(S'p1_vo'
I6
tp682
a(S'w'
I1465
tp683
a(S'p1_vo'
I5
tp684
a(S'w'
I1467
tp685
a(S'p1_vo'
I4
tp686
a(S'w'
I1468
tp687
a(S'p1_vo'
I3
tp688
a(S'w'
I1468
tp689
a(S'p1_tl'
I252
tp690
a(S'p1_ll'
I31
tp691
a(S'w'
I3
tp692
a(S'p1_vo'
I6
tp693
a(S'w'
I7
tp694
a(S'no_ll'
I31
tp695
a(S'w'
I3
tp696
a(S'no_vo'
I6
tp697
a(S'w'
I717
tp698
a(S'no_vo'
I0
tp699
a(S'w'
I737
tp700
a(S'p1_vo'
I5
tp701
a(S'w'
I1468
tp702
a(S'p1_vo'
I4
tp703
a(S'w'
I1467
tp704
a(S'p1_vo'
I3
tp705
a(S'w'
I1468
tp706
a(S'p1_tl'
I197
tp707
a(S'w'
I1
tp708
a(S'p1_ll'
I31
tp709
a(S'w'
I2
tp710
a(S'p1_vo'
I6
tp711
a(S'w'
I6
tp712
a(S'w'
I1
tp713
a(S'no_ll'
I31
tp714
a(S'w'
I2
tp715
a(S'no_vo'
I6
tp716
a(S'w'
I719
tp717
a(S'no_vo'
I0
tp718
a(S'w'
I737
tp719
a(S'p1_vo'
I5
tp720
a(S'w'
I1467
tp721
a(S'p1_vo'
I4
tp722
a(S'w'
I1468
tp723
a(S'p1_vo'
I3
tp724
a(S'w'
I1468
tp725
a(S'p1_vo'
I0
tp726
a(S'w'
I9
tp727
a(S'no_ll'
I31
tp728
a(S'w'
I3
tp729
a(S'no_vo'
I6
tp730
a(S'w'
I718
tp731
a(S'no_vo'
I0
tp732
a(S'w'
I11016
tp733
a(S'tr_tl'
I197
tp734
a(S'tr_ll'
I31
tp735
a(S'tr_th'
I1
tp736
a(S'w'
I2
tp737
a(S'tr_lh'
I1
tp738
a(S'tr_lr'
I127
tp739
a(S'w'
I6
tp740
a(S'no_ll'
I31
tp741
a(S'w'
I2
tp742
a(S'no_vo'
I6
tp743
a(S'w'
I715
tp744
a(S'no_vo'
I0
tp745
a(S'w'
I3673
tp746
a(S'tr_lh'
I0
tp747
a(S'tr_lr'
I0
tp748
a(S'w'
I1469
tp749
a(S'tr_ll'
I31
tp750
a(S'w'
I2
tp751
a(S'tr_lh'
I1
tp752
a(S'tr_lr'
I127
tp753
a(S'w'
I5
tp754
a(S'no_ll'
I31
tp755
a(S'w'
I2
tp756
a(S'no_vo'
I6
tp757
a(S'w'
I719
tp758
a(S'no_vo'
I0
tp759
a(S'w'
I3674
tp760
a(S'tr_lh'
I0
tp761
a(S'tr_lr'
I0
tp762
a(S'w'
I1468
tp763
a(S'p1_tl'
I125
tp764
a(S'p1_ll'
I31
tp765
a(S'w'
I2
tp766
a(S'p1_vo'
I6
tp767
a(S'w'
I7
tp768
a(S'tr_tl'
I125
tp769
a(S'tr_ll'
I31
tp770
a(S'w'
I2
tp771
a(S'tr_lh'
I1
tp772
a(S'tr_lr'
I127
tp773
a(S'w'
I7
tp774
a(S'w'
I1
tp775
a(S'no_ll'
I31
tp776
a(S'w'
I2
tp777
a(S'no_vo'
I6
tp778
a(S'w'
I708
tp779
a(S'no_vo'
I0
tp780
a(S'w'
I737
tp781
a(S'p1_vo'
I5
tp782
a(S'w'
I1467
tp783
a(S'p1_vo'
I4
tp784
a(S'w'
I1468
tp785
a(S'p1_vo'
I3
tp786
a(S'w'
I4
tp787
a(S'tr_lh'
I0
tp788
a(S'tr_lr'
I0
tp789
a(S'w'
I1463
tp790
a(S'p1_vo'
I2
tp791
a(S'w'
I6
tp792
a(S'tr_tl'
I83
tp793
a(S'tr_ll'
I31
tp794
a(S'w'
I2
tp795
a(S'tr_lh'
I1
tp796
a(S'tr_lr'
I127
tp797
a(S'w'
I1460
tp798
a(S'p1_vo'
I1
tp799
a(S'w'
I1468
tp800
a(S'p1_vo'
I0
tp801
a(S'w'
I1472
tp802
a(S'tr_lh'
I0
tp803
a(S'tr_lr'
I0
tp804
a(S'w'
I1463
tp805
a(S'p1_tl'
I83
tp806
a(S'w'
I1
tp807
a(S'p1_ll'
I31
tp808
a(S'w'
I2
tp809
a(S'p1_vo'
I6
tp810
a(S'w'
I10
tp811
a(S'w'
I1
tp812
a(S'no_ll'
I31
tp813
a(S'w'
I2
tp814
a(S'no_vo'
I6
tp815
a(S'w'
I715
tp816
a(S'no_vo'
I0
tp817
a(S'w'
I736
tp818
a(S'p1_vo'
I5
tp819
a(S'w'
I1468
tp820
a(S'p1_vo'
I4
tp821
a(S'w'
I1468
tp822
a(S'p1_vo'
I3
tp823
a(S'w'
I1467
tp824
a(S'p1_vo'
I2
tp825
a(S'w'
I6
tp826
a(S'tr_tl'
I46
tp827
a(S'tr_ll'
I31
tp828
a(S'w'
I2
tp829
a(S'tr_lh'
I1
tp830
a(S'tr_lr'
I127
tp831
a(S'w'
I4
tp832
a(S'w'
I1
tp833
a(S'no_ll'
I31
tp834
a(S'w'
I2
tp835
a(S'no_vo'
I6
tp836
a(S'w'
I716
tp837
a(S'no_vo'
I0
tp838
a(S'w'
I737
tp839
a(S'p1_vo'
I1
tp840
a(S'w'
I1467
tp841
a(S'p1_vo'
I0
tp842
a(S'w'
I1473
tp843
a(S'tr_lh'
I0
tp844
a(S'tr_lr'
I0
tp845
a(S'w'
I1463
tp846
a(S'p1_tl'
I252
tp847
a(S'p1_ll'
I31
tp848
a(S'w'
I3
tp849
a(S'p1_vo'
I6
tp850
a(S'w'
I6
tp851
a(S'tr_ll'
I31
tp852
a(S'w'
I2
tp853
a(S'tr_lh'
I1
tp854
a(S'tr_lr'
I127
tp855
a(S'w'
I8
tp856
a(S'no_ll'
I31
tp857
a(S'w'
I3
tp858
a(S'no_vo'
I6
tp859
a(S'w'
I708
tp860
a(S'no_vo'
I0
tp861
a(S'w'
I737
tp862
a(S'p1_vo'
I5
tp863
a(S'w'
I1468
tp864
a(S'p1_vo'
I4
tp865
a(S'w'
I1467
tp866
a(S'p1_vo'
I3
tp867
a(S'w'
I5
tp868
a(S'tr_lh'
I0
tp869
a(S'tr_lr'
I0
tp870
a(S'w'
I1463
tp871
a(S'p1_vo'
I2
tp872
a(S'w'
I1468
tp873
a(S'p1_vo'
I1
tp874
a(S'w'
I1467
tp875
a(S'p1_vo'
I0
tp876
a(S'w'
I2936
tp877
a(S'p1_tl'
I197
tp878
a(S'p1_ll'
I31
tp879
a(S'w'
I3
tp880
a(S'p1_vo'
I6
tp881
a(S'w'
I6
tp882
a(S'tr_tl'
I197
tp883
a(S'tr_ll'
I31
tp884
a(S'w'
I2
tp885
a(S'tr_lh'
I1
tp886
a(S'tr_lr'
I127
tp887
a(S'w'
I6
tp888
a(S'no_ll'
I31
tp889
a(S'w'
I2
tp890
a(S'no_vo'
I6
tp891
a(S'w'
I711
tp892
a(S'no_vo'
I0
tp893
a(S'w'
I737
tp894
a(S'p1_vo'
I5
tp895
a(S'w'
I1468
tp896
a(S'p1_vo'
I4
tp897
a(S'w'
I1467
tp898
a(S'p1_vo'
I3
tp899
a(S'w'
I5
tp900
a(S'tr_lh'
I0
tp901
a(S'tr_lr'
I0
tp902
a(S'w'
I1463
tp903
a(S'p1_vo'
I2
tp904
a(S'w'
I6
tp905
a(S'tr_ll'
I31
tp906
a(S'w'
I2
tp907
a(S'tr_lh'
I1
tp908
a(S'tr_lr'
I127
tp909
a(S'w'
I4
tp910
a(S'no_ll'
I31
tp911
a(S'w'
I3
tp912
a(S'no_vo'
I6
tp913
a(S'w'
I716
tp914
a(S'no_vo'
I0
tp915
a(S'w'
I737
tp916
a(S'p1_vo'
I1
tp917
a(S'w'
I1467
tp918
a(S'p1_vo'
I0
tp919
a(S'w'
I1472
tp920
a(S'tr_lh'
I0
tp921
a(S'tr_lr'
I0
tp922
a(S'w'
I1467
tp923
a(S'p1_tl'
I125
tp924
a(S'p1_ll'
I31
tp925
a(S'w'
I2
tp926
a(S'p1_vo'
I6
tp927
a(S'w'
I19
tp928
a(S'no_ll'
I31
tp929
a(S'w'
I2
tp930
a(S'no_vo'
I6
tp931
a(S'w'
I704
tp932
a(S'no_vo'
I0
tp933
a(S'w'
I737
tp934
a(S'p1_vo'
I5
tp935
a(S'w'
I1467
tp936
a(S'p1_vo'
I4
tp937
a(S'w'
I1468
tp938
a(S'p1_vo'
I3
tp939
a(S'w'
I1468
tp940
a(S'p1_vo'
I2
tp941
a(S'w'
I5
tp942
a(S'tr_tl'
I125
tp943
a(S'tr_ll'
I31
tp944
a(S'w'
I3
tp945
a(S'tr_lh'
I1
tp946
a(S'tr_lr'
I127
tp947
a(S'w'
I1459
tp948
a(S'p1_vo'
I1
tp949
a(S'w'
I1468
tp950
a(S'p1_vo'
I0
tp951
a(S'w'
I1472
tp952
a(S'tr_lh'
I0
tp953
a(S'tr_lr'
I0
tp954
a(S'w'
I1469
tp955
a(S'p2_tl'
I172
tp956
a(S'p2_ll'
I31
tp957
a(S'p2_th'
I1
tp958
a(S'w'
I3
tp959
a(S'p2_vo'
I7
tp960
a(S'w'
I5
tp961
a(S'tr_ll'
I31
tp962
a(S'w'
I2
tp963
a(S'tr_lh'
I1
tp964
a(S'tr_lr'
I127
tp965
a(S'w'
I10
tp966
a(S'no_np'
I8
tp967
a(S'no_ll'
I31
tp968
a(S'w'
I2
tp969
a(S'no_vo'
I7
tp970
a(S'w'
I702
tp971
a(S'p2_tl'
I27
tp972
a(S'p2_ll'
I31
tp973
a(S'p2_th'
I2
tp974
a(S'w'
I739
tp975
a(S'p2_vo'
I0
tp976
a(S'w'
I6
tp977
a(S'no_vo'
I6
tp978
a(S'w'
I723
tp979
a(S'no_vo'
I4
tp980
a(S'w'
I740
tp981
a(S'no_vo'
I3
tp982
a(S'w'
I1466
tp983
a(S'tr_lh'
I0
tp984
a(S'tr_lr'
I0
tp985
a(S'w'
I4
tp986
a(S'no_vo'
I2
tp987
a(S'w'
I1463
tp988
a(S'p1_tl'
I83
tp989
a(S'p1_ll'
I31
tp990
a(S'w'
I3
tp991
a(S'p1_vo'
I6
tp992
a(S'w'
I6
tp993
a(S'p2_tl'
I172
tp994
a(S'w'
I1
tp995
a(S'p2_ll'
I31
tp996
a(S'p2_th'
I1
tp997
a(S'w'
I2
tp998
a(S'p2_vo'
I7
tp999
a(S'w'
I5
tp1000
a(S'tr_tl'
I83
tp1001
a(S'w'
I1
tp1002
a(S'tr_ll'
I31
tp1003
a(S'w'
I2
tp1004
a(S'tr_lh'
I1
tp1005
a(S'tr_lr'
I127
tp1006
a(S'w'
I4
tp1007
a(S'no_ll'
I31
tp1008
a(S'w'
I3
tp1009
a(S'no_vo'
I7
tp1010
a(S'w'
I702
tp1011
a(S'p2_tl'
I27
tp1012
a(S'p2_ll'
I31
tp1013
a(S'p2_th'
I2
tp1014
a(S'w'
I738
tp1015
a(S'p1_vo'
I5
tp1016
a(S'w'
I5
tp1017
a(S'p2_vo'
I0
tp1018
a(S'w'
I5
tp1019
a(S'no_vo'
I6
tp1020
a(S'w'
I721
tp1021
a(S'no_vo'
I4
tp1022
a(S'w'
I737
tp1023
a(S'p1_vo'
I4
tp1024
a(S'w'
I5
tp1025
a(S'no_vo'
I3
tp1026
a(S'w'
I1462
tp1027
a(S'p1_vo'
I3
tp1028
a(S'w'
I5
tp1029
a(S'tr_lh'
I0
tp1030
a(S'tr_lr'
I0
tp1031
a(S'w'
I4
tp1032
a(S'no_vo'
I2
tp1033
a(S'w'
I1459
tp1034
a(S'p1_vo'
I2
tp1035
a(S'w'
I6
tp1036
a(S'p2_tl'
I172
tp1037
a(S'p2_ll'
I31
tp1038
a(S'p2_th'
I1
tp1039
a(S'w'
I2
tp1040
a(S'p2_vo'
I7
tp1041
a(S'w'
I10
tp1042
a(S'no_ll'
I31
tp1043
a(S'w'
I3
tp1044
a(S'no_vo'
I7
tp1045
a(S'w'
I708
tp1046
a(S'p2_tl'
I27
tp1047
a(S'w'
I1
tp1048
a(S'p2_ll'
I31
tp1049
a(S'p2_th'
I2
tp1050
a(S'w'
I738
tp1051
a(S'p1_vo'
I1
tp1052
a(S'w'
I4
tp1053
a(S'p2_vo'
I0
tp1054
a(S'w'
I6
tp1055
a(S'no_vo'
I6
tp1056
a(S'w'
I720
tp1057
a(S'no_vo'
I4
tp1058
a(S'w'
I737
tp1059
a(S'p1_vo'
I0
tp1060
a(S'w'
I6
tp1061
a(S'no_vo'
I3
tp1062
a(S'w'
I1468
tp1063
a(S'no_vo'
I2
tp1064
a(S'w'
I2192
tp1065
a(S'no_vo'
I1
tp1066
a(S'w'
I2935
tp1067
a(S'no_vo'
I0
tp1068
a(S'w'
I2206
tp1069
a(S'p1_tl'
I252
tp1070
a(S'w'
I1
tp1071
a(S'p1_ll'
I31
tp1072
a(S'w'
I2
tp1073
a(S'p1_vo'
I6
tp1074
a(S'w'
I11
tp1075
a(S'tr_tl'
I252
tp1076
a(S'tr_ll'
I31
tp1077
a(S'w'
I2
tp1078
a(S'tr_lh'
I1
tp1079
a(S'tr_lr'
I127
tp1080
a(S'w'
I10
tp1081
a(S'no_np'
I2
tp1082
a(S'no_ll'
I31
tp1083
a(S'w'
I2
tp1084
a(S'no_vo'
I6
tp1085
a(S'w'
I702
tp1086
a(S'no_vo'
I0
tp1087
a(S'w'
I736
tp1088
a(S'p1_vo'
I5
tp1089
a(S'w'
I1468
tp1090
a(S'p1_vo'
I4
tp1091
a(S'w'
I1468
tp1092
a(S'p1_vo'
I3
tp1093
a(S'w'
I4
tp1094
a(S'tr_lh'
I0
tp1095
a(S'tr_lr'
I0
tp1096
a(S'w'
I1463
tp1097
a(S'p1_vo'
I2
tp1098
a(S'w'
I9
tp1099
a(S'no_ll'
I31
tp1100
a(S'w'
I2
tp1101
a(S'no_vo'
I6
tp1102
a(S'w'
I720
tp1103
a(S'no_vo'
I0
tp1104
a(S'w'
I737
tp1105
a(S'p1_vo'
I1
tp1106
a(S'w'
I1467
tp1107
a(S'p1_vo'
I0
tp1108
a(S'w'
I2940
tp1109
a(S'p1_tl'
I197
tp1110
a(S'p1_ll'
I31
tp1111
a(S'w'
I2
tp1112
a(S'p1_vo'
I6
tp1113
a(S'w'
I10
tp1114
a(S'tr_tl'
I197
tp1115
a(S'tr_ll'
I31
tp1116
a(S'w'
I2
tp1117
a(S'tr_lh'
I1
tp1118
a(S'tr_lr'
I127
tp1119
a(S'w'
I6
tp1120
a(S'no_ll'
I31
tp1121
a(S'w'
I2
tp1122
a(S'no_vo'
I6
tp1123
a(S'w'
I704
tp1124
a(S'no_vo'
I0
tp1125
a(S'w'
I8075
tp1126
a(S'p1_vo'
I5
tp1127
a(S'w'
I2938
tp1128
a(S'p2_tl'
I172
tp1129
a(S'p2_ll'
I31
tp1130
a(S'p2_th'
I1
tp1131
a(S'w'
I3
tp1132
a(S'p2_vo'
I7
tp1133
a(S'w'
I10
tp1134
a(S'no_np'
I8
tp1135
a(S'no_ll'
I31
tp1136
a(S'w'
I3
tp1137
a(S'no_vo'
I7
tp1138
a(S'w'
I711
tp1139
a(S'p2_tl'
I27
tp1140
a(S'p2_ll'
I31
tp1141
a(S'p2_th'
I2
tp1142
a(S'w'
I739
tp1143
a(S'p2_vo'
I0
tp1144
a(S'w'
I6
tp1145
a(S'no_vo'
I6
tp1146
a(S'w'
I724
tp1147
a(S'no_vo'
I4
tp1148
a(S'w'
I739
tp1149
a(S'no_vo'
I3
tp1150
a(S'w'
I1468
tp1151
a(S'no_vo'
I2
tp1152
a(S'w'
I1465
tp1153
a(S'p1_vo'
I4
tp1154
a(S'w'
I6
tp1155
a(S'p2_tl'
I172
tp1156
a(S'p2_ll'
I31
tp1157
a(S'p2_th'
I1
tp1158
a(S'w'
I2
tp1159
a(S'p2_vo'
I7
tp1160
a(S'w'
I5
tp1161
a(S'w'
I1
tp1162
a(S'no_ll'
I31
tp1163
a(S'w'
I2
tp1164
a(S'no_vo'
I7
tp1165
a(S'w'
I713
tp1166
a(S'p2_tl'
I27
tp1167
a(S'w'
I1
tp1168
a(S'p2_ll'
I31
tp1169
a(S'p2_th'
I2
tp1170
a(S'w'
I739
tp1171
a(S'p2_vo'
I0
tp1172
a(S'w'
I6
tp1173
a(S'no_vo'
I6
tp1174
a(S'w'
I723
tp1175
a(S'no_vo'
I4
tp1176
a(S'w'
I740
tp1177
a(S'no_vo'
I3
tp1178
a(S'w'
I1467
tp1179
a(S'no_vo'
I2
tp1180
a(S'w'
I1468
tp1181
a(S'p2_tl'
I224
tp1182
a(S'p2_ll'
I31
tp1183
a(S'p2_th'
I1
tp1184
a(S'w'
I2
tp1185
a(S'p2_vo'
I7
tp1186
a(S'w'
I6
tp1187
a(S'no_np'
I9
tp1188
a(S'no_ll'
I31
tp1189
a(S'w'
I2
tp1190
a(S'no_vo'
I7
tp1191
a(S'w'
I717
tp1192
a(S'p2_tl'
I27
tp1193
a(S'p2_ll'
I31
tp1194
a(S'p2_th'
I2
tp1195
a(S'w'
I739
tp1196
a(S'p2_vo'
I0
tp1197
a(S'w'
I6
tp1198
a(S'no_vo'
I6
tp1199
a(S'w'
I724
tp1200
a(S'no_vo'
I4
tp1201
a(S'w'
I736
tp1202
a(S'p1_vo'
I3
tp1203
a(S'w'
I6
tp1204
a(S'no_vo'
I3
tp1205
a(S'w'
I1465
tp1206
a(S'no_vo'
I2
tp1207
a(S'w'
I1467
tp1208
a(S'p2_tl'
I224
tp1209
a(S'w'
I1
tp1210
a(S'p2_ll'
I31
tp1211
a(S'p2_th'
I1
tp1212
a(S'w'
I2
tp1213
a(S'p2_vo'
I7
tp1214
a(S'w'
I5
tp1215
a(S'no_ll'
I31
tp1216
a(S'w'
I3
tp1217
a(S'no_vo'
I7
tp1218
a(S'w'
I716
tp1219
a(S'p2_tl'
I27
tp1220
a(S'p2_ll'
I31
tp1221
a(S'p2_th'
I2
tp1222
a(S'w'
I740
tp1223
a(S'p2_vo'
I0
tp1224
a(S'w'
I5
tp1225
a(S'no_vo'
I6
tp1226
a(S'w'
I724
tp1227
a(S'no_vo'
I4
tp1228
a(S'w'
I740
tp1229
a(S'no_vo'
I3
tp1230
a(S'w'
I1467
tp1231
a(S'no_vo'
I2
tp1232
a(S'w'
I1465
tp1233
a(S'p1_vo'
I2
tp1234
a(S'w'
I11
tp1235
a(S'tr_tl'
I172
tp1236
a(S'tr_ll'
I31
tp1237
a(S'w'
I7
tp1238
a(S'no_np'
I10
tp1239
a(S'no_ll'
I31
tp1240
a(S'w'
I2
tp1241
a(S'no_vo'
I7
tp1242
a(S'w'
I710
tp1243
a(S'tr_tl'
I27
tp1244
a(S'w'
I1
tp1245
a(S'tr_ll'
I31
tp1246
a(S'tr_th'
I2
tp1247
a(S'w'
I739
tp1248
a(S'tr_lh'
I0
tp1249
a(S'tr_lr'
I0
tp1250
a(S'w'
I5
tp1251
a(S'no_vo'
I6
tp1252
a(S'w'
I723
tp1253
a(S'no_vo'
I4
tp1254
a(S'w'
I740
tp1255
a(S'no_vo'
I3
tp1256
a(S'w'
I1468
tp1257
a(S'no_vo'
I2
tp1258
a(S'w'
I1468
tp1259
a(S'tr_tl'
I172
tp1260
a(S'tr_ll'
I31
tp1261
a(S'tr_th'
I1
tp1262
a(S'w'
I2
tp1263
a(S'tr_lh'
I1
tp1264
a(S'tr_lr'
I127
tp1265
a(S'w'
I5
tp1266
a(S'no_ll'
I31
tp1267
a(S'w'
I2
tp1268
a(S'no_vo'
I7
tp1269
a(S'w'
I718
tp1270
a(S'tr_tl'
I27
tp1271
a(S'tr_ll'
I31
tp1272
a(S'tr_th'
I2
tp1273
a(S'w'
I739
tp1274
a(S'tr_lh'
I0
tp1275
a(S'tr_lr'
I0
tp1276
a(S'w'
I5
tp1277
a(S'no_vo'
I6
tp1278
a(S'w'
I724
tp1279
a(S'no_vo'
I4
tp1280
a(S'w'
I737
tp1281
a(S'p1_vo'
I1
tp1282
a(S'w'
I5
tp1283
a(S'no_vo'
I3
tp1284
a(S'w'
I1465
tp1285
a(S'no_vo'
I2
tp1286
a(S'w'
I1473
tp1287
a(S'p1_ll'
I31
tp1288
a(S'w'
I3
tp1289
a(S'p1_vo'
I6
tp1290
a(S'w'
I28
tp1291
a(S'no_np'
I2
tp1292
a(S'w'
I1
tp1293
a(S'no_ll'
I31
tp1294
a(S'w'
I2
tp1295
a(S'no_vo'
I7
tp1296
a(S'w'
I689
tp1297
a(S'no_vo'
I0
tp1298
a(S'w'
I736
tp1299
a(S'p1_vo'
I5
tp1300
a(S'w'
I1468
tp1301
a(S'p1_vo'
I4
tp1302
a(S'w'
I1468
tp1303
a(S'p1_vo'
I3
tp1304
a(S'w'
I1468
tp1305
a(S'p1_ll'
I31
tp1306
a(S'w'
I3
tp1307
a(S'p1_vo'
I6
tp1308
a(S'w'
I1464
tp1309
a(S'p1_vo'
I5
tp1310
a(S'w'
I1468
tp1311
a(S'p1_vo'
I4
tp1312
a(S'w'
I1467
tp1313
a(S'p1_vo'
I3
tp1314
a(S'w'
I1468
tp1315
a(S'p1_tl'
I252
tp1316
a(S'w'
I1
tp1317
a(S'p1_ll'
I31
tp1318
a(S'w'
I2
tp1319
a(S'p1_vo'
I6
tp1320
a(S'w'
I7
tp1321
a(S'w'
I1
tp1322
a(S'no_ll'
I31
tp1323
a(S'w'
I2
tp1324
a(S'no_vo'
I7
tp1325
a(S'w'
I718
tp1326
a(S'no_vo'
I0
tp1327
a(S'w'
I736
tp1328
a(S'p1_vo'
I5
tp1329
a(S'w'
I1468
tp1330
a(S'p1_vo'
I4
tp1331
a(S'w'
I1468
tp1332
a(S'p1_vo'
I3
tp1333
a(S'w'
I1468
tp1334
a(S'p1_tl'
I197
tp1335
a(S'p1_ll'
I31
tp1336
a(S'w'
I2
tp1337
a(S'p1_vo'
I6
tp1338
a(S'w'
I6
tp1339
a(S'w'
I1
tp1340
a(S'no_ll'
I31
tp1341
a(S'w'
I2
tp1342
a(S'no_vo'
I7
tp1343
a(S'w'
I719
tp1344
a(S'no_vo'
I0
tp1345
a(S'w'
I737
tp1346
a(S'p1_vo'
I5
tp1347
a(S'w'
I1467
tp1348
a(S'p1_vo'
I4
tp1349
a(S'w'
I1468
tp1350
a(S'p1_vo'
I3
tp1351
a(S'w'
I1468
tp1352
a(S'p1_vo'
I0
tp1353
a(S'w'
I9
tp1354
a(S'w'
I1
tp1355
a(S'no_ll'
I31
tp1356
a(S'w'
I2
tp1357
a(S'no_vo'
I7
tp1358
a(S'w'
I718
tp1359
a(S'no_vo'
I0
tp1360
a(S'w'
I11016
tp1361
a(S'tr_tl'
I197
tp1362
a(S'tr_ll'
I31
tp1363
a(S'tr_th'
I1
tp1364
a(S'w'
I2
tp1365
a(S'tr_lh'
I1
tp1366
a(S'tr_lr'
I127
tp1367
a(S'w'
I6
tp1368
a(S'no_ll'
I31
tp1369
a(S'w'
I3
tp1370
a(S'no_vo'
I7
tp1371
a(S'w'
I714
tp1372
a(S'no_vo'
I0
tp1373
a(S'w'
I3674
tp1374
a(S'tr_lh'
I0
tp1375
a(S'tr_lr'
I0
tp1376
a(S'w'
I1468
tp1377
a(S'tr_ll'
I31
tp1378
a(S'w'
I2
tp1379
a(S'tr_lh'
I1
tp1380
a(S'tr_lr'
I127
tp1381
a(S'w'
I5
tp1382
a(S'no_ll'
I31
tp1383
a(S'w'
I2
tp1384
a(S'no_vo'
I7
tp1385
a(S'w'
I720
tp1386
a(S'no_vo'
I0
tp1387
a(S'w'
I3673
tp1388
a(S'tr_lh'
I0
tp1389
a(S'tr_lr'
I0
tp1390
a(S'w'
I1468
tp1391
a(S'p1_tl'
I125
tp1392
a(S'p1_ll'
I31
tp1393
a(S'w'
I3
tp1394
a(S'p1_vo'
I6
tp1395
a(S'w'
I6
tp1396
a(S'tr_tl'
I125
tp1397
a(S'tr_ll'
I31
tp1398
a(S'w'
I2
tp1399
a(S'tr_lh'
I1
tp1400
a(S'tr_lr'
I127
tp1401
a(S'w'
I8
tp1402
a(S'no_ll'
I31
tp1403
a(S'w'
I2
tp1404
a(S'no_vo'
I7
tp1405
a(S'w'
I708
tp1406
a(S'no_vo'
I0
tp1407
a(S'w'
I737
tp1408
a(S'p1_vo'
I5
tp1409
a(S'w'
I1467
tp1410
a(S'p1_vo'
I4
tp1411
a(S'w'
I1468
tp1412
a(S'p1_vo'
I3
tp1413
a(S'w'
I5
tp1414
a(S'tr_lh'
I0
tp1415
a(S'tr_lr'
I0
tp1416
a(S'w'
I1463
tp1417
a(S'p1_vo'
I2
tp1418
a(S'w'
I5
tp1419
a(S'tr_tl'
I83
tp1420
a(S'tr_ll'
I31
tp1421
a(S'w'
I2
tp1422
a(S'tr_lh'
I1
tp1423
a(S'tr_lr'
I127
tp1424
a(S'w'
I1460
tp1425
a(S'p1_vo'
I1
tp1426
a(S'w'
I1468
tp1427
a(S'p1_vo'
I0
tp1428
a(S'w'
I1472
tp1429
a(S'tr_lh'
I0
tp1430
a(S'tr_lr'
I0
tp1431
a(S'w'
I1463
tp1432
a(S'p1_tl'
I83
tp1433
a(S'w'
I1
tp1434
a(S'p1_ll'
I31
tp1435
a(S'w'
I2
tp1436
a(S'p1_vo'
I6
tp1437
a(S'w'
I11
tp1438
a(S'no_ll'
I31
tp1439
a(S'w'
I2
tp1440
a(S'no_vo'
I7
tp1441
a(S'w'
I715
tp1442
a(S'no_vo'
I0
tp1443
a(S'w'
I737
tp1444
a(S'p1_vo'
I5
tp1445
a(S'w'
I1467
tp1446
a(S'p1_vo'
I4
tp1447
a(S'w'
I1468
tp1448
a(S'p1_vo'
I3
tp1449
a(S'w'
I1467
tp1450
a(S'p1_vo'
I2
tp1451
a(S'w'
I6
tp1452
a(S'tr_tl'
I46
tp1453
a(S'tr_ll'
I31
tp1454
a(S'w'
I2
tp1455
a(S'tr_lh'
I1
tp1456
a(S'tr_lr'
I127
tp1457
a(S'w'
I4
tp1458
a(S'w'
I1
tp1459
a(S'no_ll'
I31
tp1460
a(S'w'
I2
tp1461
a(S'no_vo'
I7
tp1462
a(S'w'
I716
tp1463
a(S'no_vo'
I0
tp1464
a(S'w'
I737
tp1465
a(S'p1_vo'
I1
tp1466
a(S'w'
I1468
tp1467
a(S'p1_vo'
I0
tp1468
a(S'w'
I1472
tp1469
a(S'tr_lh'
I0
tp1470
a(S'tr_lr'
I0
tp1471
a(S'w'
I1463
tp1472
a(S'p1_tl'
I252
tp1473
a(S'w'
I1
tp1474
a(S'p1_ll'
I31
tp1475
a(S'w'
I2
tp1476
a(S'p1_vo'
I6
tp1477
a(S'w'
I7
tp1478
a(S'tr_ll'
I31
tp1479
a(S'w'
I2
tp1480
a(S'tr_lh'
I1
tp1481
a(S'tr_lr'
I127
tp1482
a(S'w'
I7
tp1483
a(S'no_ll'
I31
tp1484
a(S'w'
I3
tp1485
a(S'no_vo'
I7
tp1486
a(S'w'
I709
tp1487
a(S'no_vo'
I0
tp1488
a(S'w'
I736
tp1489
a(S'p1_vo'
I5
tp1490
a(S'w'
I1468
tp1491
a(S'p1_vo'
I4
tp1492
a(S'w'
I1468
tp1493
a(S'p1_vo'
I3
tp1494
a(S'w'
I4
tp1495
a(S'tr_lh'
I0
tp1496
a(S'tr_lr'
I0
tp1497
a(S'w'
I1463
tp1498
a(S'p1_vo'
I2
tp1499
a(S'w'
I1468
tp1500
a(S'p1_vo'
I1
tp1501
a(S'w'
I1467
tp1502
a(S'p1_vo'
I0
tp1503
a(S'w'
I2936
tp1504
a(S'p1_tl'
I197
tp1505
a(S'w'
I1
tp1506
a(S'p1_ll'
I31
tp1507
a(S'w'
I2
tp1508
a(S'p1_vo'
I6
tp1509
a(S'w'
I6
tp1510
a(S'tr_tl'
I197
tp1511
a(S'tr_ll'
I31
tp1512
a(S'w'
I3
tp1513
a(S'tr_lh'
I1
tp1514
a(S'tr_lr'
I127
tp1515
a(S'w'
I5
tp1516
a(S'no_ll'
I31
tp1517
a(S'w'
I3
tp1518
a(S'no_vo'
I7
tp1519
a(S'w'
I710
tp1520
a(S'no_vo'
I0
tp1521
a(S'w'
I737
tp1522
a(S'p1_vo'
I5
tp1523
a(S'w'
I1468
tp1524
a(S'p1_vo'
I4
tp1525
a(S'w'
I1468
tp1526
a(S'p1_vo'
I3
tp1527
a(S'w'
I4
tp1528
a(S'tr_lh'
I0
tp1529
a(S'tr_lr'
I0
tp1530
a(S'w'
I1463
tp1531
a(S'p1_vo'
I2
tp1532
a(S'w'
I6
tp1533
a(S'tr_ll'
I31
tp1534
a(S'w'
I2
tp1535
a(S'tr_lh'
I1
tp1536
a(S'tr_lr'
I127
tp1537
a(S'w'
I4
tp1538
a(S'no_ll'
I31
tp1539
a(S'w'
I3
tp1540
a(S'no_vo'
I7
tp1541
a(S'w'
I716
tp1542
a(S'no_vo'
I0
tp1543
a(S'w'
I737
tp1544
a(S'p1_vo'
I1
tp1545
a(S'w'
I1467
tp1546
a(S'p1_vo'
I0
tp1547
a(S'w'
I1472
tp1548
a(S'tr_lh'
I0
tp1549
a(S'tr_lr'
I0
tp1550
a(S'w'
I1469
tp1551
a(S'p1_tl'
I190
tp1552
a(S'p1_ll'
I31
tp1553
a(S'p1_th'
I0
tp1554
a(S'w'
I3
tp1555
a(S'p1_vo'
I4
tp1556
a(S'w'
I9
tp1557
a(S'p2_tl'
I254
tp1558
a(S'p2_ll'
I31
tp1559
a(S'p2_th'
I0
tp1560
a(S'w'
I2
tp1561
a(S'p2_vo'
I5
tp1562
a(S'w'
I708
tp1563
a(S'p1_vo'
I6
tp1564
a(S'w'
I5
tp1565
a(S'p2_vo'
I7
tp1566
a(S'w'
I22750
tp1567
a(S'p1_ll'
I31
tp1568
a(S'w'
I2
tp1569
a(S'p1_vo'
I4
tp1570
a(S'w'
I6
tp1571
a(S'p2_ll'
I31
tp1572
a(S'w'
I2
tp1573
a(S'p2_vo'
I5
tp1574
a(S'w'
I717
tp1575
a(S'p1_vo'
I6
tp1576
a(S'w'
I4
tp1577
a(S'p2_vo'
I7
tp1578
a(S'w'
I22750
tp1579
a(S'p1_tl'
I170
tp1580
a(S'w'
I1
tp1581
a(S'p1_ll'
I31
tp1582
a(S'w'
I2
tp1583
a(S'p1_vo'
I4
tp1584
a(S'w'
I5
tp1585
a(S'p2_tl'
I226
tp1586
a(S'w'
I1
tp1587
a(S'p2_ll'
I31
tp1588
a(S'w'
I2
tp1589
a(S'p2_vo'
I5
tp1590
a(S'w'
I7
tp1591
a(S'tr_tl'
I13
tp1592
a(S'tr_ll'
I31
tp1593
a(S'w'
I2
tp1594
a(S'tr_lh'
I1
tp1595
a(S'tr_lr'
I127
tp1596
a(S'w'
I10
tp1597
a(S'no_np'
I9
tp1598
a(S'no_ll'
I31
tp1599
a(S'w'
I2
tp1600
a(S'no_vo'
I6
tp1601
a(S'w'
I696
tp1602
a(S'p1_vo'
I6
tp1603
a(S'w'
I4
tp1604
a(S'p2_vo'
I7
tp1605
a(S'w'
I4
tp1606
a(S'tr_tl'
I83
tp1607
a(S'w'
I1
tp1608
a(S'tr_ll'
I31
tp1609
a(S'w'
I733
tp1610
a(S'tr_lh'
I0
tp1611
a(S'tr_lr'
I0
tp1612
a(S'w'
I728
tp1613
a(S'no_vo'
I5
tp1614
a(S'w'
I2207
tp1615
a(S'no_vo'
I4
tp1616
a(S'w'
I2196
tp1617
a(S'no_vo'
I3
tp1618
a(S'w'
I2207
tp1619
a(S'no_vo'
I2
tp1620
a(S'w'
I2196
tp1621
a(S'no_vo'
I1
tp1622
a(S'w'
I2207
tp1623
a(S'no_vo'
I0
tp1624
a(S'w'
I10271
tp1625
a(S'p1_ll'
I31
tp1626
a(S'w'
I3
tp1627
a(S'p1_vo'
I4
tp1628
a(S'w'
I5
tp1629
a(S'p2_ll'
I31
tp1630
a(S'w'
I3
tp1631
a(S'p2_vo'
I5
tp1632
a(S'w'
I6
tp1633
a(S'tr_tl'
I13
tp1634
a(S'w'
I1
tp1635
a(S'tr_ll'
I31
tp1636
a(S'w'
I2
tp1637
a(S'tr_lh'
I1
tp1638
a(S'tr_lr'
I127
tp1639
a(S'w'
I4
tp1640
a(S'no_ll'
I31
tp1641
a(S'w'
I3
tp1642
a(S'no_vo'
I6
tp1643
a(S'w'
I700
tp1644
a(S'p1_vo'
I6
tp1645
a(S'w'
I4
tp1646
a(S'p2_vo'
I7
tp1647
a(S'w'
I5
tp1648
a(S'tr_tl'
I83
tp1649
a(S'tr_ll'
I31
tp1650
a(S'w'
I733
tp1651
a(S'tr_lh'
I0
tp1652
a(S'tr_lr'
I0
tp1653
a(S'w'
I729
tp1654
a(S'no_vo'
I5
tp1655
a(S'w'
I2207
tp1656
a(S'no_vo'
I4
tp1657
a(S'w'
I2195
tp1658
a(S'no_vo'
I3
tp1659
a(S'w'
I2208
tp1660
a(S'no_vo'
I2
tp1661
a(S'w'
I2195
tp1662
a(S'no_vo'
I1
tp1663
a(S'w'
I2207
tp1664
a(S'no_vo'
I0
tp1665
a(S'w'
I10282
tp1666
a.