(lp1
(S'clock'
p2
I1789772
tp3
a(S'w'
I39
tp4
a(S'p1_sn'
I1
tp5
a(S'p1_tl'
I170
tp6
a(S'w'
I1
tp7
a(S'p1_ll'
I0
tp8
a(S'w'
I4
tp9
a(S'p1_du'
I2
tp10
a(S'p1_lh'
I1
tp11
a(S'p1_cv'
I1
tp12
a(S'p1_vo'
I7
tp13
a(S'w'
I39
tp14
a(S'p2_sn'
I1
tp15
a(S'p2_tl'
I249
tp16
a(S'p2_ll'
I0
tp17
a(S'p2_th'
I3
tp18
a(S'w'
I4
tp19
a(S'p2_du'
I1
tp20
a(S'p2_lh'
I1
tp21
a(S'p2_cv'
I1
tp22
a(S'p2_vo'
I5
tp23
a(S'w'
I29
tp24
a(S'w'
I1
tp25
a(S'no_np'
I4
tp26
a(S'no_ll'
I1
tp27
a(S'w'
I5
tp28
a(S'no_lh'
I1
tp29
a(S'no_cv'
I1
tp30
a(S'no_vo'
I6
tp31
a(S'w'
I1353
tp32
a(S'p1_vo'
I8
tp33
a(S'w'
I6
tp34
a(S'p2_vo'
I7
tp35
a(S'w'
I8
tp36
a(S'no_vo'
I0
tp37
a(S'w'
I1454
tp38
a(S'p1_vo'
I9
tp39
a(S'w'
I7
tp40
a(S'p2_vo'
I9
tp41
a(S'w'
I1462
tp42
a(S'p1_vo'
I8
tp43
a(S'w'
I6
tp44
a(S'p2_vo'
I11
tp45
a(S'w'
I14
tp46
a(S'no_ll'
I1
tp47
a(S'w'
I5
tp48
a(S'no_vo'
I6
tp49
a(S'w'
I1442
tp50
a(S'p1_vo'
I7
tp51
a(S'w'
I6
tp52
a(S'p2_vo'
I12
tp53
a(S'w'
I8
tp54
a(S'no_vo'
I0
tp55
a(S'w'
I1453
tp56
a(S'p1_vo'
I6
tp57
a(S'w'
I1471
tp58
a(S'p1_ll'
I0
tp59
a(S'w'
I4
tp60
a(S'p1_vo'
I7
tp61
a(S'w'
I8
tp62
a(S'p2_vo'
I11
tp63
a(S'w'
I14
tp64
a(S'no_ll'
I1
tp65
a(S'w'
I5
tp66
a(S'no_vo'
I6
tp67
a(S'w'
I1433
tp68
a(S'p1_vo'
I8
tp69
a(S'w'
I7
tp70
a(S'p2_vo'
I10
tp71
a(S'w'
I8
tp72
a(S'no_vo'
I0
tp73
a(S'w'
I1452
tp74
a(S'p1_vo'
I9
tp75
a(S'w'
I8
tp76
a(S'p2_vo'
I9
tp77
a(S'w'
I1462
tp78
a(S'p1_vo'
I8
tp79
a(S'w'
I7
tp80
a(S'p2_vo'
I8
tp81
a(S'w'
I14
tp82
a(S'no_ll'
I1
tp83
a(S'w'
I5
tp84
a(S'no_vo'
I6
tp85
a(S'w'
I1440
tp86
a(S'p1_vo'
I7
tp87
a(S'w'
I7
tp88
a(S'p2_vo'
I7
tp89
a(S'w'
I8
tp90
a(S'no_vo'
I0
tp91
a(S'w'
I1453
tp92
a(S'p1_vo'
I6
tp93
a(S'w'
I7
tp94
a(S'p2_vo'
I6
tp95
a(S'w'
I1464
tp96
a(S'p1_tl'
I151
tp97
a(S'p1_ll'
I0
tp98
a(S'w'
I4
tp99
a(S'p1_vo'
I7
tp100
a(S'w'
I12
tp101
a(S'p2_vo'
I5
tp102
a(S'w'
I19
tp103
a(S'no_np'
I12
tp104
a(S'no_ll'
I1
tp105
a(S'w'
I5
tp106
a(S'no_vo'
I7
tp107
a(S'w'
I1423
tp108
a(S'p1_vo'
I8
tp109
a(S'w'
I7
tp110
a(S'p2_vo'
I4
tp111
a(S'w'
I1461
tp112
a(S'p1_vo'
I9
tp113
a(S'w'
I8
tp114
a(S'p2_vo'
I3
tp115
a(S'w'
I6
tp116
a(S'no_vo'
I6
tp117
a(S'w'
I1455
tp118
a(S'p1_vo'
I8
tp119
a(S'w'
I7
tp120
a(S'p2_vo'
I2
tp121
a(S'w'
I7
tp122
a(S'no_vo'
I0
tp123
a(S'w'
I1453
tp124
a(S'p1_vo'
I7
tp125
a(S'w'
I7
tp126
a(S'p2_vo'
I1
tp127
a(S'w'
I1460
tp128
a(S'p1_vo'
I6
tp129
a(S'w'
I7
tp130
a(S'p2_vo'
I0
tp131
a(S'w'
I1466
tp132
a(S'p1_vo'
I5
tp133
a(S'w'
I25
tp134
a(S'no_np'
I4
tp135
a(S'w'
I1
tp136
a(S'no_ll'
I1
tp137
a(S'w'
I4
tp138
a(S'no_vo'
I6
tp139
a(S'w'
I1433
tp140
a(S'p1_vo'
I4
tp141
a(S'w'
I14
tp142
a(S'no_vo'
I0
tp143
a(S'w'
I1453
tp144
a(S'p1_vo'
I3
tp145
a(S'w'
I1468
tp146
a(S'p1_vo'
I2
tp147
a(S'w'
I21
tp148
a(S'no_ll'
I1
tp149
a(S'w'
I5
tp150
a(S'no_vo'
I6
tp151
a(S'w'
I1441
tp152
a(S'p1_vo'
I1
tp153
a(S'w'
I15
tp154
a(S'no_vo'
I0
tp155
a(S'w'
I1453
tp156
a(S'p1_vo'
I0
tp157
a(S'w'
I1471
tp158
a(S'p1_tl'
I143
tp159
a(S'p1_ll'
I0
tp160
a(S'w'
I4
tp161
a(S'p1_vo'
I7
tp162
a(S'w'
I10
tp163
a(S'p2_ll'
I0
tp164
a(S'w'
I5
tp165
a(S'p2_vo'
I5
tp166
a(S'w'
I14
tp167
a(S'no_ll'
I1
tp168
a(S'w'
I5
tp169
a(S'no_vo'
I6
tp170
a(S'w'
I1425
tp171
a(S'p1_vo'
I8
tp172
a(S'w'
I6
tp173
a(S'p2_vo'
I7
tp174
a(S'w'
I8
tp175
a(S'no_vo'
I0
tp176
a(S'w'
I1454
tp177
a(S'p1_vo'
I9
tp178
a(S'w'
I7
tp179
a(S'p2_vo'
I9
tp180
a(S'w'
I1462
tp181
a(S'p1_vo'
I8
tp182
a(S'w'
I7
tp183
a(S'p2_vo'
I8
tp184
a(S'w'
I14
tp185
a(S'no_ll'
I1
tp186
a(S'w'
I5
tp187
a(S'no_vo'
I6
tp188
a(S'w'
I1441
tp189
a(S'p1_vo'
I7
tp190
a(S'w'
I7
tp191
a(S'p2_vo'
I7
tp192
a(S'w'
I8
tp193
a(S'no_vo'
I0
tp194
a(S'w'
I1452
tp195
a(S'p1_vo'
I6
tp196
a(S'w'
I8
tp197
a(S'p2_vo'
I6
tp198
a(S'w'
I1465
tp199
a(S'p1_vo'
I5
tp200
a(S'w'
I9
tp201
a(S'w'
I1
tp202
a(S'p2_ll'
I0
tp203
a(S'w'
I4
tp204
a(S'p2_vo'
I5
tp205
a(S'w'
I14
tp206
a(S'w'
I1
tp207
a(S'no_ll'
I1
tp208
a(S'w'
I4
tp209
a(S'no_vo'
I6
tp210
a(S'w'
I1430
tp211
a(S'p1_vo'
I4
tp212
a(S'w'
I6
tp213
a(S'p2_vo'
I7
tp214
a(S'w'
I8
tp215
a(S'no_vo'
I0
tp216
a(S'w'
I1453
tp217
a(S'p1_vo'
I3
tp218
a(S'w'
I6
tp219
a(S'p2_vo'
I9
tp220
a(S'w'
I1462
tp221
a(S'p1_vo'
I2
tp222
a(S'w'
I8
tp223
a(S'p2_vo'
I8
tp224
a(S'w'
I14
tp225
a(S'no_ll'
I1
tp226
a(S'w'
I5
tp227
a(S'no_vo'
I6
tp228
a(S'w'
I1440
tp229
a(S'p1_vo'
I1
tp230
a(S'w'
I7
tp231
a(S'p2_vo'
I7
tp232
a(S'w'
I8
tp233
a(S'no_vo'
I0
tp234
a(S'w'
I1453
tp235
a(S'p1_vo'
I0
tp236
a(S'w'
I7
tp237
a(S'p2_vo'
I6
tp238
a(S'w'
I1473
tp239
a(S'p2_vo'
I5
tp240
a(S'w'
I18
tp241
a(S'no_np'
I12
tp242
a(S'no_ll'
I1
tp243
a(S'w'
I5
tp244
a(S'no_vo'
I7
tp245
a(S'w'
I1439
tp246
a(S'p2_vo'
I4
tp247
a(S'w'
I1468
tp248
a(S'p2_vo'
I3
tp249
a(S'w'
I7
tp250
a(S'no_vo'
I6
tp251
a(S'w'
I1460
tp252
a(S'p2_vo'
I2
tp253
a(S'w'
I7
tp254
a(S'no_vo'
I0
tp255
a(S'w'
I1461
tp256
a(S'p2_vo'
I1
tp257
a(S'w'
I1467
tp258
a(S'p2_vo'
I0
tp259
a(S'w'
I1464
tp260
a(S'p1_tl'
I151
tp261
a(S'p1_ll'
I0
tp262
a(S'w'
I4
tp263
a(S'p1_vo'
I7
tp264
a(S'w'
I21
tp265
a(S'no_np'
I4
tp266
a(S'no_ll'
I1
tp267
a(S'w'
I5
tp268
a(S'no_vo'
I6
tp269
a(S'w'
I1434
tp270
a(S'p1_vo'
I8
tp271
a(S'w'
I14
tp272
a(S'no_vo'
I0
tp273
a(S'w'
I1453
tp274
a(S'p1_vo'
I9
tp275
a(S'w'
I1484
tp276
a(S'no_ll'
I1
tp277
a(S'w'
I5
tp278
a(S'no_vo'
I6
tp279
a(S'w'
I1461
tp280
a(S'no_vo'
I0
tp281
a(S'w'
I2963
tp282
a(S'no_ll'
I1
tp283
a(S'w'
I5
tp284
a(S'no_vo'
I6
tp285
a(S'w'
I1434
tp286
a(S'no_vo'
I0
tp287
a(S'w'
I2942
tp288
a(S'no_ll'
I1
tp289
a(S'w'
I5
tp290
a(S'no_vo'
I6
tp291
a(S'w'
I1444
tp292
a(S'p1_vo'
I8
tp293
a(S'w'
I14
tp294
a(S'no_vo'
I0
tp295
a(S'w'
I1452
tp296
a(S'p1_vo'
I7
tp297
a(S'w'
I1471
tp298
a(S'p1_tl'
I143
tp299
a(S'p1_ll'
I0
tp300
a(S'w'
I14
tp301
a(S'p2_tl'
I252
tp302
a(S'p2_ll'
I0
tp303
a(S'p2_th'
I1
tp304
a(S'w'
I5
tp305
a(S'p2_vo'
I5
tp306
a(S'w'
I14
tp307
a(S'no_ll'
I1
tp308
a(S'w'
I5
tp309
a(S'no_vo'
I6
tp310
a(S'w'
I1426
tp311
a(S'p1_vo'
I8
tp312
a(S'w'
I6
tp313
a(S'p2_vo'
I7
tp314
a(S'w'
I8
tp315
a(S'no_vo'
I0
tp316
a(S'w'
I1453
tp317
a(S'p1_vo'
I9
tp318
a(S'w'
I7
tp319
a(S'p2_vo'
I9
tp320
a(S'w'
I1463
tp321
a(S'p1_vo'
I8
tp322
a(S'w'
I7
tp323
a(S'p2_vo'
I8
tp324
a(S'w'
I14
tp325
a(S'no_ll'
I1
tp326
a(S'w'
I5
tp327
a(S'no_vo'
I6
tp328
a(S'w'
I1440
tp329
a(S'p1_vo'
I7
tp330
a(S'w'
I7
tp331
a(S'p2_vo'
I7
tp332
a(S'w'
I8
tp333
a(S'no_vo'
I0
tp334
a(S'w'
I1453
tp335
a(S'p1_vo'
I6
tp336
a(S'w'
I8
tp337
a(S'p2_vo'
I6
tp338
a(S'w'
I1463
tp339
a(S'p1_tl'
I151
tp340
a(S'p1_ll'
I0
tp341
a(S'w'
I4
tp342
a(S'p1_vo'
I7
tp343
a(S'w'
I12
tp344
a(S'p2_vo'
I5
tp345
a(S'w'
I19
tp346
a(S'no_np'
I12
tp347
a(S'no_ll'
I1
tp348
a(S'w'
I4
tp349
a(S'no_vo'
I7
tp350
a(S'w'
I1424
tp351
a(S'p1_vo'
I8
tp352
a(S'w'
I7
tp353
a(S'p2_vo'
I4
tp354
a(S'w'
I1461
tp355
a(S'p1_vo'
I9
tp356
a(S'w'
I8
tp357
a(S'p2_vo'
I3
tp358
a(S'w'
I6
tp359
a(S'no_vo'
I6
tp360
a(S'w'
I1455
tp361
a(S'p1_vo'
I8
tp362
a(S'w'
I7
tp363
a(S'p2_vo'
I2
tp364
a(S'w'
I7
tp365
a(S'no_vo'
I0
tp366
a(S'w'
I1453
tp367
a(S'p1_vo'
I7
tp368
a(S'w'
I7
tp369
a(S'p2_vo'
I1
tp370
a(S'w'
I1460
tp371
a(S'p1_vo'
I6
tp372
a(S'w'
I7
tp373
a(S'p2_vo'
I0
tp374
a(S'w'
I1464
tp375
a(S'p1_tl'
I170
tp376
a(S'p1_ll'
I0
tp377
a(S'w'
I4
tp378
a(S'p1_vo'
I7
tp379
a(S'w'
I26
tp380
a(S'no_np'
I4
tp381
a(S'no_ll'
I1
tp382
a(S'w'
I5
tp383
a(S'no_vo'
I6
tp384
a(S'w'
I1429
tp385
a(S'p1_vo'
I8
tp386
a(S'w'
I14
tp387
a(S'no_vo'
I0
tp388
a(S'w'
I1453
tp389
a(S'p1_vo'
I9
tp390
a(S'w'
I1470
tp391
a(S'p1_vo'
I8
tp392
a(S'w'
I9
tp393
a(S'p2_tl'
I249
tp394
a(S'w'
I1
tp395
a(S'p2_ll'
I0
tp396
a(S'p2_th'
I3
tp397
a(S'w'
I4
tp398
a(S'p2_vo'
I5
tp399
a(S'w'
I14
tp400
a(S'no_ll'
I1
tp401
a(S'w'
I5
tp402
a(S'no_vo'
I6
tp403
a(S'w'
I1433
tp404
a(S'p1_vo'
I7
tp405
a(S'w'
I6
tp406
a(S'p2_vo'
I7
tp407
a(S'w'
I8
tp408
a(S'no_vo'
I0
tp409
a(S'w'
I1454
tp410
a(S'p1_vo'
I6
tp411
a(S'w'
I6
tp412
a(S'p2_vo'
I9
tp413
a(S'w'
I1467
tp414
a(S'p1_vo'
I5
tp415
a(S'w'
I10
tp416
a(S'p2_tl'
I77
tp417
a(S'p2_ll'
I0
tp418
a(S'p2_th'
I5
tp419
a(S'w'
I4
tp420
a(S'p2_vo'
I5
tp421
a(S'w'
I15
tp422
a(S'no_ll'
I1
tp423
a(S'w'
I5
tp424
a(S'no_vo'
I6
tp425
a(S'w'
I1428
tp426
a(S'p1_vo'
I4
tp427
a(S'w'
I6
tp428
a(S'p2_vo'
I7
tp429
a(S'w'
I8
tp430
a(S'no_vo'
I0
tp431
a(S'w'
I1454
tp432
a(S'p1_vo'
I3
tp433
a(S'w'
I6
tp434
a(S'p2_vo'
I9
tp435
a(S'w'
I1461
tp436
a(S'p1_vo'
I2
tp437
a(S'w'
I8
tp438
a(S'p2_vo'
I8
tp439
a(S'w'
I14
tp440
a(S'no_ll'
I1
tp441
a(S'w'
I5
tp442
a(S'no_vo'
I6
tp443
a(S'w'
I1441
tp444
a(S'p1_vo'
I1
tp445
a(S'w'
I7
tp446
a(S'p2_vo'
I7
tp447
a(S'w'
I8
tp448
a(S'no_vo'
I0
tp449
a(S'w'
I1452
tp450
a(S'p1_vo'
I0
tp451
a(S'w'
I7
tp452
a(S'p2_vo'
I6
tp453
a(S'w'
I1471
tp454
a(S'p2_tl'
I117
tp455
a(S'p2_ll'
I0
tp456
a(S'p2_th'
I4
tp457
a(S'w'
I4
tp458
a(S'p2_vo'
I5
tp459
a(S'w'
I15
tp460
a(S'no_ll'
I1
tp461
a(S'w'
I5
tp462
a(S'no_vo'
I6
tp463
a(S'w'
I1440
tp464
a(S'p2_vo'
I7
tp465
a(S'w'
I7
tp466
a(S'no_vo'
I0
tp467
a(S'w'
I1460
tp468
a(S'p2_vo'
I9
tp469
a(S'w'
I1469
tp470
a(S'p2_vo'
I8
tp471
a(S'w'
I14
tp472
a(S'w'
I1
tp473
a(S'no_ll'
I1
tp474
a(S'w'
I4
tp475
a(S'no_vo'
I6
tp476
a(S'w'
I1448
tp477
a(S'p2_vo'
I7
tp478
a(S'w'
I8
tp479
a(S'no_vo'
I0
tp480
a(S'w'
I1460
tp481
a(S'p2_vo'
I6
tp482
a(S'w'
I1471
tp483
a(S'p2_tl'
I249
tp484
a(S'p2_ll'
I0
tp485
a(S'p2_th'
I3
tp486
a(S'w'
I4
tp487
a(S'p2_vo'
I5
tp488
a(S'w'
I19
tp489
a(S'no_np'
I12
tp490
a(S'no_ll'
I1
tp491
a(S'w'
I5
tp492
a(S'no_vo'
I7
tp493
a(S'w'
I1435
tp494
a(S'p2_vo'
I7
tp495
a(S'w'
I1468
tp496
a(S'p2_vo'
I9
tp497
a(S'w'
I7
tp498
a(S'no_vo'
I6
tp499
a(S'w'
I1461
tp500
a(S'p2_vo'
I8
tp501
a(S'w'
I8
tp502
a(S'no_vo'
I0
tp503
a(S'w'
I1460
tp504
a(S'p2_vo'
I7
tp505
a(S'w'
I1467
tp506
a(S'p2_vo'
I6
tp507
a(S'w'
I1464
tp508
a(S'p1_ll'
I0
tp509
a(S'w'
I4
tp510
a(S'p1_vo'
I7
tp511
a(S'w'
I10
tp512
a(S'p2_tl'
I117
tp513
a(S'p2_ll'
I0
tp514
a(S'p2_th'
I4
tp515
a(S'w'
I5
tp516
a(S'p2_vo'
I5
tp517
a(S'w'
I14
tp518
a(S'no_np'
I4
tp519
a(S'no_ll'
I1
tp520
a(S'w'
I5
tp521
a(S'no_vo'
I6
tp522
a(S'w'
I1426
tp523
a(S'p1_vo'
I8
tp524
a(S'w'
I6
tp525
a(S'p2_vo'
I7
tp526
a(S'w'
I8
tp527
a(S'no_vo'
I0
tp528
a(S'w'
I1453
tp529
a(S'p1_vo'
I9
tp530
a(S'w'
I7
tp531
a(S'p2_vo'
I9
tp532
a(S'w'
I1469
tp533
a(S'p2_vo'
I8
tp534
a(S'w'
I8
tp535
a(S'w'
I1
tp536
a(S'no_ll'
I1
tp537
a(S'w'
I4
tp538
a(S'no_vo'
I6
tp539
a(S'w'
I1453
tp540
a(S'p2_vo'
I7
tp541
a(S'w'
I8
tp542
a(S'no_vo'
I0
tp543
a(S'w'
I1460
tp544
a(S'p2_vo'
I6
tp545
a(S'w'
I1477
tp546
a(S'p2_tl'
I249
tp547
a(S'p2_ll'
I0
tp548
a(S'p2_th'
I3
tp549
a(S'w'
I4
tp550
a(S'p2_vo'
I5
tp551
a(S'w'
I30
tp552
a(S'w'
I1
tp553
a(S'no_ll'
I1
tp554
a(S'w'
I4
tp555
a(S'no_vo'
I6
tp556
a(S'w'
I1418
tp557
a(S'p2_vo'
I7
tp558
a(S'w'
I8
tp559
a(S'no_vo'
I0
tp560
a(S'w'
I1456
tp561
a(S'p1_vo'
I8
tp562
a(S'w'
I6
tp563
a(S'p2_vo'
I9
tp564
a(S'w'
I1460
tp565
a(S'p1_vo'
I7
tp566
a(S'w'
I6
tp567
a(S'p2_vo'
I11
tp568
a(S'w'
I14
tp569
a(S'w'
I1
tp570
a(S'no_ll'
I1
tp571
a(S'w'
I4
tp572
a(S'no_vo'
I6
tp573
a(S'w'
I1443
tp574
a(S'p1_vo'
I6
tp575
a(S'w'
I6
tp576
a(S'p2_vo'
I12
tp577
a(S'w'
I8
tp578
a(S'no_vo'
I0
tp579
a(S'w'
I1453
tp580
a(S'p1_vo'
I5
tp581
a(S'w'
I1471
tp582
a(S'p1_ll'
I0
tp583
a(S'w'
I4
tp584
a(S'p1_vo'
I7
tp585
a(S'w'
I8
tp586
a(S'p2_vo'
I11
tp587
a(S'w'
I14
tp588
a(S'no_ll'
I1
tp589
a(S'w'
I5
tp590
a(S'no_vo'
I6
tp591
a(S'w'
I1433
tp592
a(S'p1_vo'
I8
tp593
a(S'w'
I7
tp594
a(S'p2_vo'
I10
tp595
a(S'w'
I8
tp596
a(S'no_vo'
I0
tp597
a(S'w'
I1452
tp598
a(S'p1_vo'
I9
tp599
a(S'w'
I8
tp600
a(S'p2_vo'
I9
tp601
a(S'w'
I1462
tp602
a(S'p1_vo'
I8
tp603
a(S'w'
I7
tp604
a(S'p2_vo'
I8
tp605
a(S'w'
I14
tp606
a(S'no_ll'
I1
tp607
a(S'w'
I5
tp608
a(S'no_vo'
I6
tp609
a(S'w'
I1440
tp610
a(S'p1_vo'
I7
tp611
a(S'w'
I7
tp612
a(S'p2_vo'
I7
tp613
a(S'w'
I8
tp614
a(S'no_vo'
I0
tp615
a(S'w'
I1453
tp616
a(S'p1_vo'
I6
tp617
a(S'w'
I7
tp618
a(S'p2_vo'
I6
tp619
a(S'w'
I1464
tp620
a(S'p1_tl'
I151
tp621
a(S'p1_ll'
I0
tp622
a(S'w'
I4
tp623
a(S'p1_vo'
I7
tp624
a(S'w'
I12
tp625
a(S'p2_vo'
I5
tp626
a(S'w'
I19
tp627
a(S'no_np'
I12
tp628
a(S'no_ll'
I1
tp629
a(S'w'
I5
tp630
a(S'no_vo'
I7
tp631
a(S'w'
I1423
tp632
a(S'p1_vo'
I8
tp633
a(S'w'
I7
tp634
a(S'p2_vo'
I4
tp635
a(S'w'
I1461
tp636
a(S'p1_vo'
I9
tp637
a(S'w'
I8
tp638
a(S'p2_vo'
I3
tp639
a(S'w'
I6
tp640
a(S'no_vo'
I6
tp641
a(S'w'
I1455
tp642
a(S'p1_vo'
I8
tp643
a(S'w'
I7
tp644
a(S'p2_vo'
I2
tp645
a(S'w'
I7
tp646
a(S'no_vo'
I0
tp647
a(S'w'
I1453
tp648
a(S'p1_vo'
I7
tp649
a(S'w'
I7
tp650
a(S'p2_vo'
I1
tp651
a(S'w'
I1460
tp652
a(S'p1_vo'
I6
tp653
a(S'w'
I7
tp654
a(S'p2_vo'
I0
tp655
a(S'w'
I1466
tp656
a(S'p1_vo'
I5
tp657
a(S'w'
I25
tp658
a(S'no_np'
I4
tp659
a(S'w'
I1
tp660
a(S'no_ll'
I1
tp661
a(S'w'
I4
tp662
a(S'no_vo'
I6
tp663
a(S'w'
I1433
tp664
a(S'p1_vo'
I4
tp665
a(S'w'
I14
tp666
a(S'no_vo'
I0
tp667
a(S'w'
I1453
tp668
a(S'p1_vo'
I3
tp669
a(S'w'
I1468
tp670
a(S'p1_vo'
I2
tp671
a(S'w'
I21
tp672
a(S'no_ll'
I1
tp673
a(S'w'
I5
tp674
a(S'no_vo'
I6
tp675
a(S'w'
I1441
tp676
a(S'p1_vo'
I1
tp677
a(S'w'
I15
tp678
a(S'no_vo'
I0
tp679
a(S'w'
I1453
tp680
a(S'p1_vo'
I0
tp681
a(S'w'
I1471
tp682
a(S'p1_tl'
I143
tp683
a(S'p1_ll'
I0
tp684
a(S'w'
I4
tp685
a(S'p1_vo'
I7
tp686
a(S'w'
I10
tp687
a(S'p2_ll'
I0
tp688
a(S'w'
I5
tp689
a(S'p2_vo'
I5
tp690
a(S'w'
I14
tp691
a(S'no_ll'
I1
tp692
a(S'w'
I5
tp693
a(S'no_vo'
I6
tp694
a(S'w'
I1425
tp695
a(S'p1_vo'
I8
tp696
a(S'w'
I6
tp697
a(S'p2_vo'
I7
tp698
a(S'w'
I8
tp699
a(S'no_vo'
I0
tp700
a(S'w'
I1454
tp701
a(S'p1_vo'
I9
tp702
a(S'w'
I7
tp703
a(S'p2_vo'
I9
tp704
a(S'w'
I1462
tp705
a(S'p1_vo'
I8
tp706
a(S'w'
I7
tp707
a(S'p2_vo'
I8
tp708
a(S'w'
I14
tp709
a(S'no_ll'
I1
tp710
a(S'w'
I5
tp711
a(S'no_vo'
I6
tp712
a(S'w'
I1441
tp713
a(S'p1_vo'
I7
tp714
a(S'w'
I7
tp715
a(S'p2_vo'
I7
tp716
a(S'w'
I8
tp717
a(S'no_vo'
I0
tp718
a(S'w'
I1452
tp719
a(S'p1_vo'
I6
tp720
a(S'w'
I8
tp721
a(S'p2_vo'
I6
tp722
a(S'w'
I1465
tp723
a(S'p1_vo'
I5
tp724
a(S'w'
I9
tp725
a(S'w'
I1
tp726
a(S'p2_ll'
I0
tp727
a(S'w'
I4
tp728
a(S'p2_vo'
I5
tp729
a(S'w'
I14
tp730
a(S'w'
I1
tp731
a(S'no_ll'
I1
tp732
a(S'w'
I4
tp733
a(S'no_vo'
I6
tp734
a(S'w'
I1430
tp735
a(S'p1_vo'
I4
tp736
a(S'w'
I6
tp737
a(S'p2_vo'
I7
tp738
a(S'w'
I8
tp739
a(S'no_vo'
I0
tp740
a(S'w'
I1453
tp741
a(S'p1_vo'
I3
tp742
a(S'w'
I6
tp743
a(S'p2_vo'
I9
tp744
a(S'w'
I1462
tp745
a(S'p1_vo'
I2
tp746
a(S'w'
I8
tp747
a(S'p2_vo'
I8
tp748
a(S'w'
I14
tp749
a(S'no_ll'
I1
tp750
a(S'w'
I5
tp751
a(S'no_vo'
I6
tp752
a(S'w'
I1440
tp753
a(S'p1_vo'
I1
tp754
a(S'w'
I7
tp755
a(S'p2_vo'
I7
tp756
a(S'w'
I8
tp757
a(S'no_vo'
I0
tp758
a(S'w'
I1453
tp759
a(S'p1_vo'
I0
tp760
a(S'w'
I7
tp761
a(S'p2_vo'
I6
tp762
a(S'w'
I1473
tp763
a(S'p2_vo'
I5
tp764
a(S'w'
I18
tp765
a(S'no_np'
I12
tp766
a(S'no_ll'
I1
tp767
a(S'w'
I5
tp768
a(S'no_vo'
I7
tp769
a(S'w'
I1439
tp770
a(S'p2_vo'
I4
tp771
a(S'w'
I1468
tp772
a(S'p2_vo'
I3
tp773
a(S'w'
I7
tp774
a(S'no_vo'
I6
tp775
a(S'w'
I1460
tp776
a(S'p2_vo'
I2
tp777
a(S'w'
I7
tp778
a(S'no_vo'
I0
tp779
a(S'w'
I1461
tp780
a(S'p2_vo'
I1
tp781
a(S'w'
I1467
tp782
a(S'p2_vo'
I0
tp783
a(S'w'
I1464
tp784
a(S'p1_tl'
I151
tp785
a(S'p1_ll'
I0
tp786
a(S'w'
I4
tp787
a(S'p1_vo'
I7
tp788
a(S'w'
I21
tp789
a(S'no_np'
I4
tp790
a(S'no_ll'
I1
tp791
a(S'w'
I5
tp792
a(S'no_vo'
I6
tp793
a(S'w'
I1434
tp794
a(S'p1_vo'
I8
tp795
a(S'w'
I14
tp796
a(S'no_vo'
I0
tp797
a(S'w'
I1453
tp798
a(S'p1_vo'
I9
tp799
a(S'w'
I1484
tp800
a(S'no_ll'
I1
tp801
a(S'w'
I5
tp802
a(S'no_vo'
I6
tp803
a(S'w'
I1461
tp804
a(S'no_vo'
I0
tp805
a(S'w'
I2963
tp806
a(S'no_ll'
I1
tp807
a(S'w'
I5
tp808
a(S'no_vo'
I6
tp809
a(S'w'
I1434
tp810
a(S'no_vo'
I0
tp811
a(S'w'
I1456
tp812
a(S'p1_vo'
I8
tp813
a(S'w'
I1466
tp814
a(S'p1_vo'
I7
tp815
a(S'w'
I21
tp816
a(S'no_ll'
I1
tp817
a(S'w'
I5
tp818
a(S'no_vo'
I6
tp819
a(S'w'
I1442
tp820
a(S'p1_vo'
I6
tp821
a(S'w'
I15
tp822
a(S'no_vo'
I0
tp823
a(S'w'
I1452
tp824
a(S'p1_vo'
I5
tp825
a(S'w'
I1471
tp826
a(S'p1_tl'
I143
tp827
a(S'p1_ll'
I0
tp828
a(S'w'
I4
tp829
a(S'p1_vo'
I7
tp830
a(S'w'
I10
tp831
a(S'p2_tl'
I252
tp832
a(S'p2_ll'
I0
tp833
a(S'p2_th'
I1
tp834
a(S'w'
I5
tp835
a(S'p2_vo'
I5
tp836
a(S'w'
I14
tp837
a(S'no_ll'
I1
tp838
a(S'w'
I5
tp839
a(S'no_vo'
I6
tp840
a(S'w'
I1426
tp841
a(S'p1_vo'
I8
tp842
a(S'w'
I6
tp843
a(S'p2_vo'
I7
tp844
a(S'w'
I8
tp845
a(S'no_vo'
I0
tp846
a(S'w'
I1453
tp847
a(S'p1_vo'
I9
tp848
a(S'w'
I7
tp849
a(S'p2_vo'
I9
tp850
a(S'w'
I1463
tp851
a(S'p1_vo'
I8
tp852
a(S'w'
I7
tp853
a(S'p2_vo'
I8
tp854
a(S'w'
I14
tp855
a(S'no_ll'
I1
tp856
a(S'w'
I5
tp857
a(S'no_vo'
I6
tp858
a(S'w'
I1440
tp859
a(S'p1_vo'
I7
tp860
a(S'w'
I7
tp861
a(S'p2_vo'
I7
tp862
a(S'w'
I8
tp863
a(S'no_vo'
I0
tp864
a(S'w'
I1453
tp865
a(S'p1_vo'
I6
tp866
a(S'w'
I8
tp867
a(S'p2_vo'
I6
tp868
a(S'w'
I1463
tp869
a(S'p1_tl'
I151
tp870
a(S'p1_ll'
I0
tp871
a(S'w'
I4
tp872
a(S'p1_vo'
I7
tp873
a(S'w'
I12
tp874
a(S'p2_vo'
I5
tp875
a(S'w'
I19
tp876
a(S'no_np'
I12
tp877
a(S'no_ll'
I1
tp878
a(S'w'
I5
tp879
a(S'no_vo'
I7
tp880
a(S'w'
I1423
tp881
a(S'p1_vo'
I8
tp882
a(S'w'
I7
tp883
a(S'p2_vo'
I4
tp884
a(S'w'
I1461
tp885
a(S'p1_vo'
I9
tp886
a(S'w'
I8
tp887
a(S'p2_vo'
I3
tp888
a(S'w'
I6
tp889
a(S'no_vo'
I6
tp890
a(S'w'
I1455
tp891
a(S'p1_vo'
I8
tp892
a(S'w'
I7
tp893
a(S'p2_vo'
I2
tp894
a(S'w'
I7
tp895
a(S'no_vo'
I0
tp896
a(S'w'
I1453
tp897
a(S'p1_vo'
I7
tp898
a(S'w'
I7
tp899
a(S'p2_vo'
I1
tp900
a(S'w'
I1460
tp901
a(S'p1_vo'
I6
tp902
a(S'w'
I7
tp903
a(S'p2_vo'
I0
tp904
a(S'w'
I1464
tp905
a(S'p1_tl'
I170
tp906
a(S'p1_ll'
I0
tp907
a(S'w'
I4
tp908
a(S'p1_vo'
I7
tp909
a(S'w'
I26
tp910
a(S'no_np'
I4
tp911
a(S'no_ll'
I1
tp912
a(S'w'
I5
tp913
a(S'no_vo'
I6
tp914
a(S'w'
I1429
tp915
a(S'p1_vo'
I8
tp916
a(S'w'
I14
tp917
a(S'no_vo'
I0
tp918
a(S'w'
I1453
tp919
a(S'p1_vo'
I9
tp920
a(S'w'
I1470
tp921
a(S'p1_vo'
I8
tp922
a(S'w'
I9
tp923
a(S'p2_tl'
I249
tp924
a(S'w'
I1
tp925
a(S'p2_ll'
I0
tp926
a(S'p2_th'
I3
tp927
a(S'w'
I4
tp928
a(S'p2_vo'
I5
tp929
a(S'w'
I14
tp930
a(S'no_ll'
I1
tp931
a(S'w'
I5
tp932
a(S'no_vo'
I6
tp933
a(S'w'
I1433
tp934
a(S'p1_vo'
I7
tp935
a(S'w'
I6
tp936
a(S'p2_vo'
I7
tp937
a(S'w'
I8
tp938
a(S'no_vo'
I0
tp939
a(S'w'
I1454
tp940
a(S'p1_vo'
I6
tp941
a(S'w'
I6
tp942
a(S'p2_vo'
I9
tp943
a(S'w'
I1467
tp944
a(S'p1_vo'
I5
tp945
a(S'w'
I10
tp946
a(S'p2_tl'
I77
tp947
a(S'p2_ll'
I0
tp948
a(S'p2_th'
I5
tp949
a(S'w'
I4
tp950
a(S'p2_vo'
I5
tp951
a(S'w'
I15
tp952
a(S'no_ll'
I1
tp953
a(S'w'
I5
tp954
a(S'no_vo'
I6
tp955
a(S'w'
I1428
tp956
a(S'p1_vo'
I4
tp957
a(S'w'
I6
tp958
a(S'p2_vo'
I7
tp959
a(S'w'
I8
tp960
a(S'no_vo'
I0
tp961
a(S'w'
I1454
tp962
a(S'p1_vo'
I3
tp963
a(S'w'
I6
tp964
a(S'p2_vo'
I9
tp965
a(S'w'
I1461
tp966
a(S'p1_vo'
I2
tp967
a(S'w'
I8
tp968
a(S'p2_vo'
I8
tp969
a(S'w'
I14
tp970
a(S'no_ll'
I1
tp971
a(S'w'
I5
tp972
a(S'no_vo'
I6
tp973
a(S'w'
I1441
tp974
a(S'p1_vo'
I1
tp975
a(S'w'
I7
tp976
a(S'p2_vo'
I7
tp977
a(S'w'
I8
tp978
a(S'no_vo'
I0
tp979
a(S'w'
I1452
tp980
a(S'p1_vo'
I0
tp981
a(S'w'
I7
tp982
a(S'p2_vo'
I6
tp983
a(S'w'
I1471
tp984
a(S'p2_tl'
I117
tp985
a(S'p2_ll'
I0
tp986
a(S'p2_th'
I4
tp987
a(S'w'
I4
tp988
a(S'p2_vo'
I5
tp989
a(S'w'
I15
tp990
a(S'no_ll'
I1
tp991
a(S'w'
I5
tp992
a(S'no_vo'
I6
tp993
a(S'w'
I1440
tp994
a(S'p2_vo'
I7
tp995
a(S'w'
I7
tp996
a(S'no_vo'
I0
tp997
a(S'w'
I1460
tp998
a(S'p2_vo'
I9
tp999
a(S'w'
I1469
tp1000
a(S'p2_vo'
I8
tp1001
a(S'w'
I14
tp1002
a(S'w'
I1
tp1003
a(S'no_ll'
I1
tp1004
a(S'w'
I4
tp1005
a(S'no_vo'
I6
tp1006
a(S'w'
I1448
tp1007
a(S'p2_vo'
I7
tp1008
a(S'w'
I8
tp1009
a(S'no_vo'
I0
tp1010
a(S'w'
I1460
tp1011
a(S'p2_vo'
I6
tp1012
a(S'w'
I1471
tp1013
a(S'p2_tl'
I249
tp1014
a(S'p2_ll'
I0
tp1015
a(S'p2_th'
I3
tp1016
a(S'w'
I4
tp1017
a(S'p2_vo'
I5
tp1018
a(S'w'
I19
tp1019
a(S'no_np'
I12
tp1020
a(S'no_ll'
I1
tp1021
a(S'w'
I5
tp1022
a(S'no_vo'
I7
tp1023
a(S'w'
I1435
tp1024
a(S'p2_vo'
I7
tp1025
a(S'w'
I1468
tp1026
a(S'p2_vo'
I9
tp1027
a(S'w'
I7
tp1028
a(S'no_vo'
I6
tp1029
a(S'w'
I1461
tp1030
a(S'p2_vo'
I8
tp1031
a(S'w'
I8
tp1032
a(S'no_vo'
I0
tp1033
a(S'w'
I1460
tp1034
a(S'p2_vo'
I7
tp1035
a(S'w'
I1467
tp1036
a(S'p2_vo'
I6
tp1037
a(S'w'
I1471
tp1038
a(S'p2_tl'
I117
tp1039
a(S'p2_ll'
I0
tp1040
a(S'p2_th'
I4
tp1041
a(S'w'
I5
tp1042
a(S'p2_vo'
I5
tp1043
a(S'w'
I13
tp1044
a(S'no_np'
I4
tp1045
a(S'w'
I1
tp1046
a(S'no_ll'
I1
tp1047
a(S'w'
I4
tp1048
a(S'no_vo'
I6
tp1049
a(S'w'
I1441
tp1050
a(S'p2_vo'
I7
tp1051
a(S'w'
I8
tp1052
a(S'no_vo'
I0
tp1053
a(S'w'
I1459
tp1054
a(S'p2_vo'
I9
tp1055
a(S'w'
I1465
tp1056
a(S'p1_tl'
I151
tp1057
a(S'p1_ll'
I0
tp1058
a(S'w'
I4
tp1059
a(S'p1_vo'
I7
tp1060
a(S'w'
I8
tp1061
a(S'p2_vo'
I8
tp1062
a(S'w'
I9
tp1063
a(S'no_ll'
I1
tp1064
a(S'w'
I4
tp1065
a(S'no_vo'
I6
tp1066
a(S'w'
I1438
tp1067
a(S'p1_vo'
I8
tp1068
a(S'w'
I7
tp1069
a(S'p2_vo'
I7
tp1070
a(S'w'
I8
tp1071
a(S'no_vo'
I0
tp1072
a(S'w'
I1453
tp1073
a(S'p1_vo'
I9
tp1074
a(S'w'
I8
tp1075
a(S'p2_vo'
I6
tp1076
a(S'w'
I1475
tp1077
a(S'p2_tl'
I250
tp1078
a(S'p2_ll'
I0
tp1079
a(S'p2_th'
I2
tp1080
a(S'w'
I4
tp1081
a(S'p2_vo'
I5
tp1082
a(S'w'
I31
tp1083
a(S'no_ll'
I1
tp1084
a(S'w'
I4
tp1085
a(S'no_vo'
I6
tp1086
a(S'w'
I1419
tp1087
a(S'p2_vo'
I7
tp1088
a(S'w'
I8
tp1089
a(S'no_vo'
I0
tp1090
a(S'w'
I1460
tp1091
a(S'p2_vo'
I9
tp1092
a(S'w'
I1469
tp1093
a(S'p2_vo'
I8
tp1094
a(S'w'
I14
tp1095
a(S'no_ll'
I1
tp1096
a(S'w'
I5
tp1097
a(S'no_vo'
I6
tp1098
a(S'w'
I1448
tp1099
a(S'p2_vo'
I7
tp1100
a(S'w'
I8
tp1101
a(S'no_vo'
I0
tp1102
a(S'w'
I1460
tp1103
a(S'p2_vo'
I6
tp1104
a(S'w'
I1472
tp1105
a(S'p2_vo'
I5
tp1106
a(S'w'
I14
tp1107
a(S'no_ll'
I1
tp1108
a(S'w'
I5
tp1109
a(S'no_vo'
I6
tp1110
a(S'w'
I1444
tp1111
a(S'p2_vo'
I4
tp1112
a(S'w'
I8
tp1113
a(S'no_vo'
I0
tp1114
a(S'w'
I1459
tp1115
a(S'p2_vo'
I3
tp1116
a(S'w'
I1461
tp1117
a(S'p1_vo'
I8
tp1118
a(S'w'
I7
tp1119
a(S'p2_vo'
I2
tp1120
a(S'w'
I15
tp1121
a(S'no_ll'
I1
tp1122
a(S'w'
I4
tp1123
a(S'no_vo'
I6
tp1124
a(S'w'
I1441
tp1125
a(S'p1_vo'
I7
tp1126
a(S'w'
I7
tp1127
a(S'p2_vo'
I1
tp1128
a(S'w'
I8
tp1129
a(S'no_vo'
I0
tp1130
a(S'w'
I1460
tp1131
a(S'p2_vo'
I0
tp1132
a(S'w'
I1487
tp1133
a(S'no_np'
I12
tp1134
a(S'no_ll'
I1
tp1135
a(S'w'
I5
tp1136
a(S'no_vo'
I7
tp1137
a(S'w'
I1436
tp1138
a(S'p1_vo'
I6
tp1139
a(S'w'
I1481
tp1140
a(S'no_vo'
I6
tp1141
a(S'w'
I1469
tp1142
a(S'no_vo'
I0
tp1143
a(S'w'
I2920
tp1144
a(S'p1_vo'
I5
tp1145
a(S'w'
I1494
tp1146
a(S'no_np'
I4
tp1147
a(S'no_ll'
I1
tp1148
a(S'w'
I5
tp1149
a(S'no_vo'
I6
tp1150
a(S'w'
I1452
tp1151
a(S'no_vo'
I0
tp1152
a(S'w'
I2930
tp1153
a(S'p2_tl'
I138
tp1154
a(S'p2_ll'
I0
tp1155
a(S'p2_th'
I3
tp1156
a(S'w'
I5
tp1157
a(S'p2_vo'
I5
tp1158
a(S'w'
I14
tp1159
a(S'no_ll'
I1
tp1160
a(S'w'
I5
tp1161
a(S'no_vo'
I6
tp1162
a(S'w'
I1439
tp1163
a(S'p2_vo'
I7
tp1164
a(S'w'
I8
tp1165
a(S'no_vo'
I0
tp1166
a(S'w'
I1454
tp1167
a(S'p1_vo'
I4
tp1168
a(S'w'
I7
tp1169
a(S'p2_vo'
I9
tp1170
a(S'w'
I1471
tp1171
a(S'p2_tl'
I249
tp1172
a(S'p2_ll'
I0
tp1173
a(S'w'
I5
tp1174
a(S'p2_vo'
I5
tp1175
a(S'w'
I14
tp1176
a(S'no_ll'
I1
tp1177
a(S'w'
I5
tp1178
a(S'no_vo'
I6
tp1179
a(S'w'
I1439
tp1180
a(S'p2_vo'
I7
tp1181
a(S'w'
I8
tp1182
a(S'no_vo'
I0
tp1183
a(S'w'
I1460
tp1184
a(S'p2_vo'
I9
tp1185
a(S'w'
I1469
tp1186
a(S'p2_vo'
I8
tp1187
a(S'w'
I14
tp1188
a(S'no_ll'
I1
tp1189
a(S'w'
I5
tp1190
a(S'no_vo'
I6
tp1191
a(S'w'
I1448
tp1192
a(S'p2_vo'
I7
tp1193
a(S'w'
I8
tp1194
a(S'no_vo'
I0
tp1195
a(S'w'
I1460
tp1196
a(S'p2_vo'
I6
tp1197
a(S'w'
I1464
tp1198
a(S'p1_tl'
I170
tp1199
a(S'p1_ll'
I0
tp1200
a(S'w'
I5
tp1201
a(S'p1_vo'
I7
tp1202
a(S'w'
I10
tp1203
a(S'p2_tl'
I138
tp1204
a(S'p2_ll'
I0
tp1205
a(S'w'
I4
tp1206
a(S'p2_vo'
I5
tp1207
a(S'w'
I14
tp1208
a(S'w'
I1
tp1209
a(S'no_ll'
I1
tp1210
a(S'w'
I4
tp1211
a(S'no_vo'
I6
tp1212
a(S'w'
I1426
tp1213
a(S'p1_vo'
I8
tp1214
a(S'w'
I6
tp1215
a(S'p2_vo'
I7
tp1216
a(S'w'
I8
tp1217
a(S'no_vo'
I0
tp1218
a(S'w'
I1453
tp1219
a(S'p1_vo'
I9
tp1220
a(S'w'
I7
tp1221
a(S'p2_vo'
I9
tp1222
a(S'w'
I1469
tp1223
a(S'p2_vo'
I8
tp1224
a(S'w'
I14
tp1225
a(S'no_ll'
I1
tp1226
a(S'w'
I5
tp1227
a(S'no_vo'
I6
tp1228
a(S'w'
I1442
tp1229
a(S'p1_vo'
I8
tp1230
a(S'w'
I7
tp1231
a(S'p2_vo'
I7
tp1232
a(S'w'
I7
tp1233
a(S'no_vo'
I0
tp1234
a(S'w'
I1453
tp1235
a(S'p1_vo'
I7
tp1236
a(S'w'
I7
tp1237
a(S'p2_vo'
I6
tp1238
a(S'w'
I1464
tp1239
a(S'p1_tl'
I190
tp1240
a(S'p1_ll'
I0
tp1241
a(S'w'
I14
tp1242
a(S'p2_tl'
I250
tp1243
a(S'p2_ll'
I0
tp1244
a(S'p2_th'
I2
tp1245
a(S'w'
I5
tp1246
a(S'p2_vo'
I5
tp1247
a(S'w'
I18
tp1248
a(S'no_np'
I12
tp1249
a(S'w'
I1
tp1250
a(S'no_ll'
I1
tp1251
a(S'w'
I4
tp1252
a(S'no_vo'
I7
tp1253
a(S'w'
I1421
tp1254
a(S'p1_vo'
I8
tp1255
a(S'w'
I6
tp1256
a(S'p2_vo'
I7
tp1257
a(S'w'
I1462
tp1258
a(S'p1_vo'
I9
tp1259
a(S'w'
I7
tp1260
a(S'p2_vo'
I9
tp1261
a(S'w'
I6
tp1262
a(S'no_vo'
I6
tp1263
a(S'w'
I1462
tp1264
a(S'p2_vo'
I8
tp1265
a(S'w'
I7
tp1266
a(S'no_vo'
I0
tp1267
a(S'w'
I1455
tp1268
a(S'p1_vo'
I8
tp1269
a(S'w'
I7
tp1270
a(S'p2_vo'
I7
tp1271
a(S'w'
I1459
tp1272
a(S'p1_vo'
I7
tp1273
a(S'w'
I7
tp1274
a(S'p2_vo'
I6
tp1275
a(S'w'
I1464
tp1276
a(S'p1_tl'
I202
tp1277
a(S'p1_ll'
I0
tp1278
a(S'w'
I14
tp1279
a(S'p2_tl'
I138
tp1280
a(S'p2_ll'
I0
tp1281
a(S'p2_th'
I3
tp1282
a(S'w'
I5
tp1283
a(S'p2_vo'
I5
tp1284
a(S'w'
I14
tp1285
a(S'no_np'
I4
tp1286
a(S'no_ll'
I1
tp1287
a(S'w'
I5
tp1288
a(S'no_vo'
I6
tp1289
a(S'w'
I1426
tp1290
a(S'p1_vo'
I8
tp1291
a(S'w'
I6
tp1292
a(S'p2_vo'
I7
tp1293
a(S'w'
I8
tp1294
a(S'no_vo'
I0
tp1295
a(S'w'
I1453
tp1296
a(S'p1_vo'
I9
tp1297
a(S'w'
I7
tp1298
a(S'p2_vo'
I9
tp1299
a(S'w'
I1469
tp1300
a(S'p2_vo'
I8
tp1301
a(S'w'
I8
tp1302
a(S'w'
I1
tp1303
a(S'no_ll'
I1
tp1304
a(S'w'
I4
tp1305
a(S'no_vo'
I6
tp1306
a(S'w'
I1448
tp1307
a(S'p1_vo'
I8
tp1308
a(S'w'
I7
tp1309
a(S'p2_vo'
I7
tp1310
a(S'w'
I7
tp1311
a(S'no_vo'
I0
tp1312
a(S'w'
I1453
tp1313
a(S'p1_vo'
I7
tp1314
a(S'w'
I7
tp1315
a(S'p2_vo'
I6
tp1316
a(S'w'
I1465
tp1317
a(S'p1_vo'
I6
tp1318
a(S'w'
I9
tp1319
a(S'p2_tl'
I167
tp1320
a(S'w'
I1
tp1321
a(S'p2_ll'
I0
tp1322
a(S'p2_th'
I2
tp1323
a(S'w'
I4
tp1324
a(S'p2_vo'
I5
tp1325
a(S'w'
I30
tp1326
a(S'w'
I1
tp1327
a(S'no_ll'
I1
tp1328
a(S'w'
I4
tp1329
a(S'no_vo'
I6
tp1330
a(S'w'
I1414
tp1331
a(S'p1_vo'
I5
tp1332
a(S'w'
I6
tp1333
a(S'p2_vo'
I7
tp1334
a(S'w'
I8
tp1335
a(S'no_vo'
I0
tp1336
a(S'w'
I1454
tp1337
a(S'p1_vo'
I4
tp1338
a(S'w'
I6
tp1339
a(S'p2_vo'
I9
tp1340
a(S'w'
I1461
tp1341
a(S'p1_vo'
I3
tp1342
a(S'w'
I8
tp1343
a(S'p2_vo'
I8
tp1344
a(S'w'
I14
tp1345
a(S'no_ll'
I1
tp1346
a(S'w'
I5
tp1347
a(S'no_vo'
I6
tp1348
a(S'w'
I1441
tp1349
a(S'p1_vo'
I2
tp1350
a(S'w'
I7
tp1351
a(S'p2_vo'
I7
tp1352
a(S'w'
I8
tp1353
a(S'no_vo'
I0
tp1354
a(S'w'
I1452
tp1355
a(S'p1_vo'
I1
tp1356
a(S'w'
I7
tp1357
a(S'p2_vo'
I6
tp1358
a(S'w'
I1464
tp1359
a(S'p1_tl'
I226
tp1360
a(S'p1_ll'
I0
tp1361
a(S'w'
I4
tp1362
a(S'p1_vo'
I7
tp1363
a(S'w'
I10
tp1364
a(S'p2_ll'
I0
tp1365
a(S'w'
I5
tp1366
a(S'p2_vo'
I5
tp1367
a(S'w'
I14
tp1368
a(S'no_ll'
I1
tp1369
a(S'w'
I5
tp1370
a(S'no_vo'
I6
tp1371
a(S'w'
I1426
tp1372
a(S'p1_vo'
I8
tp1373
a(S'w'
I6
tp1374
a(S'p2_vo'
I7
tp1375
a(S'w'
I8
tp1376
a(S'no_vo'
I0
tp1377
a(S'w'
I1453
tp1378
a(S'p1_vo'
I9
tp1379
a(S'w'
I7
tp1380
a(S'p2_vo'
I9
tp1381
a(S'w'
I1469
tp1382
a(S'p2_vo'
I8
tp1383
a(S'w'
I14
tp1384
a(S'no_ll'
I1
tp1385
a(S'w'
I5
tp1386
a(S'no_vo'
I6
tp1387
a(S'w'
I1442
tp1388
a(S'p1_vo'
I8
tp1389
a(S'w'
I7
tp1390
a(S'p2_vo'
I7
tp1391
a(S'w'
I7
tp1392
a(S'no_vo'
I0
tp1393
a(S'w'
I1453
tp1394
a(S'p1_vo'
I7
tp1395
a(S'w'
I7
tp1396
a(S'p2_vo'
I6
tp1397
a(S'w'
I1465
tp1398
a(S'p1_vo'
I6
tp1399
a(S'w'
I11
tp1400
a(S'p2_vo'
I5
tp1401
a(S'w'
I19
tp1402
a(S'no_np'
I12
tp1403
a(S'no_ll'
I1
tp1404
a(S'w'
I5
tp1405
a(S'no_vo'
I7
tp1406
a(S'w'
I1428
tp1407
a(S'p1_vo'
I5
tp1408
a(S'w'
I7
tp1409
a(S'p2_vo'
I4
tp1410
a(S'w'
I1461
tp1411
a(S'p1_vo'
I4
tp1412
a(S'w'
I8
tp1413
a(S'p2_vo'
I3
tp1414
a(S'w'
I6
tp1415
a(S'no_vo'
I6
tp1416
a(S'w'
I1453
tp1417
a(S'p1_vo'
I3
tp1418
a(S'w'
I7
tp1419
a(S'p2_vo'
I2
tp1420
a(S'w'
I8
tp1421
a(S'no_vo'
I0
tp1422
a(S'w'
I1453
tp1423
a(S'p1_vo'
I2
tp1424
a(S'w'
I8
tp1425
a(S'p2_vo'
I1
tp1426
a(S'w'
I1459
tp1427
a(S'p1_vo'
I1
tp1428
a(S'w'
I7
tp1429
a(S'p2_vo'
I0
tp1430
a(S'w'
I1461
tp1431
a(S'p1_vo'
I0
tp1432
a(S'w'
I10
tp1433
a(S'p2_tl'
I138
tp1434
a(S'p2_ll'
I0
tp1435
a(S'p2_th'
I3
tp1436
a(S'w'
I5
tp1437
a(S'p2_vo'
I5
tp1438
a(S'w'
I18
tp1439
a(S'no_np'
I4
tp1440
a(S'w'
I1
tp1441
a(S'no_ll'
I1
tp1442
a(S'w'
I4
tp1443
a(S'no_vo'
I6
tp1444
a(S'w'
I1436
tp1445
a(S'p2_vo'
I7
tp1446
a(S'w'
I7
tp1447
a(S'no_vo'
I0
tp1448
a(S'w'
I1460
tp1449
a(S'p2_vo'
I9
tp1450
a(S'w'
I1472
tp1451
a(S'p2_tl'
I167
tp1452
a(S'p2_ll'
I0
tp1453
a(S'p2_th'
I2
tp1454
a(S'w'
I5
tp1455
a(S'p2_vo'
I5
tp1456
a(S'w'
I14
tp1457
a(S'no_ll'
I1
tp1458
a(S'w'
I5
tp1459
a(S'no_vo'
I6
tp1460
a(S'w'
I1439
tp1461
a(S'p2_vo'
I7
tp1462
a(S'w'
I8
tp1463
a(S'no_vo'
I0
tp1464
a(S'w'
I1460
tp1465
a(S'p2_vo'
I9
tp1466
a(S'w'
I1471
tp1467
a(S'p2_tl'
I39
tp1468
a(S'p2_ll'
I0
tp1469
a(S'p2_th'
I3
tp1470
a(S'w'
I5
tp1471
a(S'p2_vo'
I5
tp1472
a(S'w'
I14
tp1473
a(S'no_ll'
I1
tp1474
a(S'w'
I5
tp1475
a(S'no_vo'
I6
tp1476
a(S'w'
I1440
tp1477
a(S'p2_vo'
I7
tp1478
a(S'w'
I7
tp1479
a(S'no_vo'
I0
tp1480
a(S'w'
I1461
tp1481
a(S'p2_vo'
I9
tp1482
a(S'w'
I1468
tp1483
a(S'p2_vo'
I8
tp1484
a(S'w'
I14
tp1485
a(S'w'
I1
tp1486
a(S'no_ll'
I1
tp1487
a(S'w'
I4
tp1488
a(S'no_vo'
I6
tp1489
a(S'w'
I1449
tp1490
a(S'p2_vo'
I7
tp1491
a(S'w'
I8
tp1492
a(S'no_vo'
I0
tp1493
a(S'w'
I1459
tp1494
a(S'p2_vo'
I6
tp1495
a(S'w'
I1471
tp1496
a(S'p2_tl'
I138
tp1497
a(S'p2_ll'
I0
tp1498
a(S'w'
I5
tp1499
a(S'p2_vo'
I5
tp1500
a(S'w'
I14
tp1501
a(S'no_ll'
I1
tp1502
a(S'w'
I5
tp1503
a(S'no_vo'
I6
tp1504
a(S'w'
I1440
tp1505
a(S'p2_vo'
I7
tp1506
a(S'w'
I8
tp1507
a(S'no_vo'
I0
tp1508
a(S'w'
I1459
tp1509
a(S'p2_vo'
I9
tp1510
a(S'w'
I1470
tp1511
a(S'p2_vo'
I8
tp1512
a(S'w'
I14
tp1513
a(S'no_ll'
I1
tp1514
a(S'w'
I5
tp1515
a(S'no_vo'
I6
tp1516
a(S'w'
I1447
tp1517
a(S'p2_vo'
I7
tp1518
a(S'w'
I8
tp1519
a(S'no_vo'
I0
tp1520
a(S'w'
I1460
tp1521
a(S'p2_vo'
I6
tp1522
a(S'w'
I1463
tp1523
a(S'p1_tl'
I202
tp1524
a(S'p1_ll'
I0
tp1525
a(S'w'
I4
tp1526
a(S'p1_vo'
I7
tp1527
a(S'w'
I10
tp1528
a(S'p2_tl'
I53
tp1529
a(S'p2_ll'
I0
tp1530
a(S'p2_th'
I4
tp1531
a(S'w'
I5
tp1532
a(S'p2_vo'
I5
tp1533
a(S'w'
I18
tp1534
a(S'no_np'
I12
tp1535
a(S'w'
I1
tp1536
a(S'no_ll'
I1
tp1537
a(S'w'
I4
tp1538
a(S'no_vo'
I7
tp1539
a(S'w'
I1422
tp1540
a(S'p1_vo'
I8
tp1541
a(S'w'
I6
tp1542
a(S'p2_vo'
I7
tp1543
a(S'w'
I1462
tp1544
a(S'p1_vo'
I9
tp1545
a(S'w'
I7
tp1546
a(S'p2_vo'
I9
tp1547
a(S'w'
I6
tp1548
a(S'no_vo'
I6
tp1549
a(S'w'
I1462
tp1550
a(S'p2_vo'
I8
tp1551
a(S'w'
I7
tp1552
a(S'no_vo'
I0
tp1553
a(S'w'
I1455
tp1554
a(S'p1_vo'
I8
tp1555
a(S'w'
I7
tp1556
a(S'p2_vo'
I7
tp1557
a(S'w'
I1459
tp1558
a(S'p1_vo'
I7
tp1559
a(S'w'
I7
tp1560
a(S'p2_vo'
I6
tp1561
a(S'w'
I1464
tp1562
a(S'p1_tl'
I190
tp1563
a(S'p1_ll'
I0
tp1564
a(S'w'
I14
tp1565
a(S'p2_tl'
I77
tp1566
a(S'p2_ll'
I0
tp1567
a(S'p2_th'
I5
tp1568
a(S'w'
I5
tp1569
a(S'p2_vo'
I5
tp1570
a(S'w'
I14
tp1571
a(S'no_np'
I4
tp1572
a(S'no_ll'
I1
tp1573
a(S'w'
I5
tp1574
a(S'no_vo'
I6
tp1575
a(S'w'
I1426
tp1576
a(S'p1_vo'
I8
tp1577
a(S'w'
I6
tp1578
a(S'p2_vo'
I7
tp1579
a(S'w'
I8
tp1580
a(S'no_vo'
I0
tp1581
a(S'w'
I1453
tp1582
a(S'p1_vo'
I9
tp1583
a(S'w'
I7
tp1584
a(S'p2_vo'
I9
tp1585
a(S'w'
I1469
tp1586
a(S'p2_vo'
I8
tp1587
a(S'w'
I8
tp1588
a(S'w'
I1
tp1589
a(S'no_ll'
I1
tp1590
a(S'w'
I4
tp1591
a(S'no_vo'
I6
tp1592
a(S'w'
I1448
tp1593
a(S'p1_vo'
I8
tp1594
a(S'w'
I7
tp1595
a(S'p2_vo'
I7
tp1596
a(S'w'
I7
tp1597
a(S'no_vo'
I0
tp1598
a(S'w'
I1453
tp1599
a(S'p1_vo'
I7
tp1600
a(S'w'
I7
tp1601
a(S'p2_vo'
I6
tp1602
a(S'w'
I1463
tp1603
a(S'p1_tl'
I170
tp1604
a(S'p1_ll'
I0
tp1605
a(S'w'
I14
tp1606
a(S'p2_tl'
I249
tp1607
a(S'p2_ll'
I0
tp1608
a(S'p2_th'
I3
tp1609
a(S'w'
I5
tp1610
a(S'p2_vo'
I5
tp1611
a(S'w'
I30
tp1612
a(S'no_ll'
I1
tp1613
a(S'w'
I5
tp1614
a(S'no_vo'
I6
tp1615
a(S'w'
I1410
tp1616
a(S'p1_vo'
I8
tp1617
a(S'w'
I6
tp1618
a(S'p2_vo'
I7
tp1619
a(S'w'
I8
tp1620
a(S'no_vo'
I0
tp1621
a(S'w'
I1454
tp1622
a(S'p1_vo'
I9
tp1623
a(S'w'
I7
tp1624
a(S'p2_vo'
I9
tp1625
a(S'w'
I1468
tp1626
a(S'p2_vo'
I8
tp1627
a(S'w'
I14
tp1628
a(S'no_ll'
I1
tp1629
a(S'w'
I5
tp1630
a(S'no_vo'
I6
tp1631
a(S'w'
I1448
tp1632
a(S'p2_vo'
I7
tp1633
a(S'w'
I8
tp1634
a(S'no_vo'
I0
tp1635
a(S'w'
I1459
tp1636
a(S'p2_vo'
I6
tp1637
a(S'w'
I1471
tp1638
a(S'p2_ll'
I0
tp1639
a(S'w'
I5
tp1640
a(S'p2_vo'
I5
tp1641
a(S'w'
I14
tp1642
a(S'no_ll'
I1
tp1643
a(S'w'
I5
tp1644
a(S'no_vo'
I6
tp1645
a(S'w'
I1440
tp1646
a(S'p2_vo'
I7
tp1647
a(S'w'
I8
tp1648
a(S'no_vo'
I0
tp1649
a(S'w'
I1460
tp1650
a(S'p2_vo'
I9
tp1651
a(S'w'
I1469
tp1652
a(S'p2_vo'
I8
tp1653
a(S'w'
I14
tp1654
a(S'no_ll'
I1
tp1655
a(S'w'
I5
tp1656
a(S'no_vo'
I6
tp1657
a(S'w'
I1447
tp1658
a(S'p2_vo'
I7
tp1659
a(S'w'
I8
tp1660
a(S'no_vo'
I0
tp1661
a(S'w'
I1460
tp1662
a(S'p2_vo'
I6
tp1663
a(S'w'
I1460
tp1664
a(S'p1_vo'
I8
tp1665
a(S'w'
I12
tp1666
a(S'p2_vo'
I5
tp1667
a(S'w'
I19
tp1668
a(S'no_np'
I12
tp1669
a(S'no_ll'
I1
tp1670
a(S'w'
I4
tp1671
a(S'no_vo'
I7
tp1672
a(S'w'
I1433
tp1673
a(S'p1_vo'
I7
tp1674
a(S'w'
I7
tp1675
a(S'p2_vo'
I4
tp1676
a(S'w'
I1469
tp1677
a(S'p2_vo'
I3
tp1678
a(S'w'
I6
tp1679
a(S'no_vo'
I6
tp1680
a(S'w'
I1460
tp1681
a(S'p2_vo'
I2
tp1682
a(S'w'
I8
tp1683
a(S'no_vo'
I0
tp1684
a(S'w'
I1453
tp1685
a(S'p1_vo'
I6
tp1686
a(S'w'
I8
tp1687
a(S'p2_vo'
I1
tp1688
a(S'w'
I1466
tp1689
a(S'p2_vo'
I0
tp1690
a(S'w'
I1487
tp1691
a(S'no_np'
I4
tp1692
a(S'no_ll'
I1
tp1693
a(S'w'
I5
tp1694
a(S'no_vo'
I6
tp1695
a(S'w'
I1451
tp1696
a(S'no_vo'
I0
tp1697
a(S'w'
I1453
tp1698
a(S'p1_vo'
I5
tp1699
a(S'w'
I1489
tp1700
a(S'no_ll'
I1
tp1701
a(S'w'
I5
tp1702
a(S'no_vo'
I6
tp1703
a(S'w'
I1456
tp1704
a(S'no_vo'
I0
tp1705
a(S'w'
I2930
tp1706
a(S'p2_ll'
I0
tp1707
a(S'w'
I5
tp1708
a(S'p2_vo'
I5
tp1709
a(S'w'
I14
tp1710
a(S'no_ll'
I1
tp1711
a(S'w'
I5
tp1712
a(S'no_vo'
I6
tp1713
a(S'w'
I1440
tp1714
a(S'p2_vo'
I7
tp1715
a(S'w'
I8
tp1716
a(S'no_vo'
I0
tp1717
a(S'w'
I1454
tp1718
a(S'p1_vo'
I4
tp1719
a(S'w'
I7
tp1720
a(S'p2_vo'
I9
tp1721
a(S'w'
I1468
tp1722
a(S'p2_vo'
I8
tp1723
a(S'w'
I14
tp1724
a(S'no_ll'
I1
tp1725
a(S'w'
I5
tp1726
a(S'no_vo'
I6
tp1727
a(S'w'
I1448
tp1728
a(S'p2_vo'
I7
tp1729
a(S'w'
I8
tp1730
a(S'no_vo'
I0
tp1731
a(S'w'
I1459
tp1732
a(S'p2_vo'
I6
tp1733
a(S'w'
I1465
tp1734
a(S'p1_tl'
I202
tp1735
a(S'p1_ll'
I0
tp1736
a(S'w'
I5
tp1737
a(S'p1_vo'
I7
tp1738
a(S'w'
I9
tp1739
a(S'p2_tl'
I117
tp1740
a(S'w'
I1
tp1741
a(S'p2_ll'
I0
tp1742
a(S'p2_th'
I4
tp1743
a(S'w'
I4
tp1744
a(S'p2_vo'
I5
tp1745
a(S'w'
I14
tp1746
a(S'w'
I1
tp1747
a(S'no_ll'
I1
tp1748
a(S'w'
I4
tp1749
a(S'no_vo'
I6
tp1750
a(S'w'
I1426
tp1751
a(S'p1_vo'
I8
tp1752
a(S'w'
I6
tp1753
a(S'p2_vo'
I7
tp1754
a(S'w'
I8
tp1755
a(S'no_vo'
I0
tp1756
a(S'w'
I1453
tp1757
a(S'p1_vo'
I9
tp1758
a(S'w'
I7
tp1759
a(S'p2_vo'
I9
tp1760
a(S'w'
I1469
tp1761
a(S'p2_vo'
I8
tp1762
a(S'w'
I14
tp1763
a(S'no_ll'
I1
tp1764
a(S'w'
I5
tp1765
a(S'no_vo'
I6
tp1766
a(S'w'
I1442
tp1767
a(S'p1_vo'
I8
tp1768
a(S'w'
I7
tp1769
a(S'p2_vo'
I7
tp1770
a(S'w'
I7
tp1771
a(S'no_vo'
I0
tp1772
a(S'w'
I1453
tp1773
a(S'p1_vo'
I7
tp1774
a(S'w'
I7
tp1775
a(S'p2_vo'
I6
tp1776
a(S'w'
I1463
tp1777
a(S'p1_tl'
I83
tp1778
a(S'p1_ll'
I0
tp1779
a(S'p1_th'
I1
tp1780
a(S'w'
I14
tp1781
a(S'p2_tl'
I77
tp1782
a(S'p2_ll'
I0
tp1783
a(S'p2_th'
I5
tp1784
a(S'w'
I5
tp1785
a(S'p2_vo'
I5
tp1786
a(S'w'
I18
tp1787
a(S'no_np'
I12
tp1788
a(S'w'
I1
tp1789
a(S'no_ll'
I1
tp1790
a(S'w'
I4
tp1791
a(S'no_vo'
I7
tp1792
a(S'w'
I1422
tp1793
a(S'p1_vo'
I8
tp1794
a(S'w'
I6
tp1795
a(S'p2_vo'
I7
tp1796
a(S'w'
I1462
tp1797
a(S'p1_vo'
I9
tp1798
a(S'w'
I7
tp1799
a(S'p2_vo'
I9
tp1800
a(S'w'
I6
tp1801
a(S'no_vo'
I6
tp1802
a(S'w'
I1462
tp1803
a(S'p2_vo'
I8
tp1804
a(S'w'
I7
tp1805
a(S'no_vo'
I0
tp1806
a(S'w'
I1455
tp1807
a(S'p1_vo'
I8
tp1808
a(S'w'
I7
tp1809
a(S'p2_vo'
I7
tp1810
a(S'w'
I1459
tp1811
a(S'p1_vo'
I7
tp1812
a(S'w'
I7
tp1813
a(S'p2_vo'
I6
tp1814
a(S'w'
I1464
tp1815
a(S'p1_tl'
I254
tp1816
a(S'p1_ll'
I0
tp1817
a(S'p1_th'
I0
tp1818
a(S'w'
I14
tp1819
a(S'p2_tl'
I249
tp1820
a(S'p2_ll'
I0
tp1821
a(S'p2_th'
I3
tp1822
a(S'w'
I5
tp1823
a(S'p2_vo'
I5
tp1824
a(S'w'
I14
tp1825
a(S'no_np'
I4
tp1826
a(S'no_ll'
I1
tp1827
a(S'w'
I5
tp1828
a(S'no_vo'
I6
tp1829
a(S'w'
I1426
tp1830
a(S'p1_vo'
I8
tp1831
a(S'w'
I6
tp1832
a(S'p2_vo'
I7
tp1833
a(S'w'
I8
tp1834
a(S'no_vo'
I0
tp1835
a(S'w'
I1453
tp1836
a(S'p1_vo'
I9
tp1837
a(S'w'
I7
tp1838
a(S'p2_vo'
I9
tp1839
a(S'w'
I1469
tp1840
a(S'p2_vo'
I8
tp1841
a(S'w'
I8
tp1842
a(S'w'
I1
tp1843
a(S'no_ll'
I1
tp1844
a(S'w'
I4
tp1845
a(S'no_vo'
I6
tp1846
a(S'w'
I1448
tp1847
a(S'p1_vo'
I8
tp1848
a(S'w'
I7
tp1849
a(S'p2_vo'
I7
tp1850
a(S'w'
I7
tp1851
a(S'no_vo'
I0
tp1852
a(S'w'
I1453
tp1853
a(S'p1_vo'
I7
tp1854
a(S'w'
I7
tp1855
a(S'p2_vo'
I6
tp1856
a(S'w'
I1465
tp1857
a(S'p1_vo'
I6
tp1858
a(S'w'
I11
tp1859
a(S'p2_vo'
I5
tp1860
a(S'w'
I30
tp1861
a(S'w'
I1
tp1862
a(S'no_ll'
I1
tp1863
a(S'w'
I4
tp1864
a(S'no_vo'
I6
tp1865
a(S'w'
I1417
tp1866
a(S'p1_vo'
I5
tp1867
a(S'w'
I7
tp1868
a(S'p2_vo'
I4
tp1869
a(S'w'
I8
tp1870
a(S'no_vo'
I0
tp1871
a(S'w'
I1453
tp1872
a(S'p1_vo'
I4
tp1873
a(S'w'
I8
tp1874
a(S'p2_vo'
I3
tp1875
a(S'w'
I1459
tp1876
a(S'p1_vo'
I3
tp1877
a(S'w'
I7
tp1878
a(S'p2_vo'
I2
tp1879
a(S'w'
I14
tp1880
a(S'w'
I1
tp1881
a(S'no_ll'
I1
tp1882
a(S'w'
I4
tp1883
a(S'no_vo'
I6
tp1884
a(S'w'
I1442
tp1885
a(S'p1_vo'
I2
tp1886
a(S'w'
I8
tp1887
a(S'p2_vo'
I1
tp1888
a(S'w'
I7
tp1889
a(S'no_vo'
I0
tp1890
a(S'w'
I1452
tp1891
a(S'p1_vo'
I1
tp1892
a(S'w'
I7
tp1893
a(S'p2_vo'
I0
tp1894
a(S'w'
I1464
tp1895
a(S'p1_tl'
I29
tp1896
a(S'p1_ll'
I0
tp1897
a(S'p1_th'
I1
tp1898
a(S'w'
I4
tp1899
a(S'p1_vo'
I7
tp1900
a(S'w'
I10
tp1901
a(S'p2_tl'
I105
tp1902
a(S'p2_ll'
I0
tp1903
a(S'p2_th'
I4
tp1904
a(S'w'
I5
tp1905
a(S'p2_vo'
I5
tp1906
a(S'w'
I14
tp1907
a(S'no_ll'
I1
tp1908
a(S'w'
I5
tp1909
a(S'no_vo'
I6
tp1910
a(S'w'
I1426
tp1911
a(S'p1_vo'
I8
tp1912
a(S'w'
I6
tp1913
a(S'p2_vo'
I7
tp1914
a(S'w'
I8
tp1915
a(S'no_vo'
I0
tp1916
a(S'w'
I1453
tp1917
a(S'p1_vo'
I9
tp1918
a(S'w'
I7
tp1919
a(S'p2_vo'
I9
tp1920
a(S'w'
I1469
tp1921
a(S'p2_vo'
I8
tp1922
a(S'w'
I14
tp1923
a(S'no_ll'
I1
tp1924
a(S'w'
I5
tp1925
a(S'no_vo'
I6
tp1926
a(S'w'
I1447
tp1927
a(S'p2_vo'
I7
tp1928
a(S'w'
I8
tp1929
a(S'no_vo'
I0
tp1930
a(S'w'
I1460
tp1931
a(S'p2_vo'
I6
tp1932
a(S'w'
I1472
tp1933
a(S'p2_vo'
I5
tp1934
a(S'w'
I18
tp1935
a(S'no_np'
I12
tp1936
a(S'w'
I1
tp1937
a(S'no_ll'
I1
tp1938
a(S'w'
I4
tp1939
a(S'no_vo'
I7
tp1940
a(S'w'
I1440
tp1941
a(S'p2_vo'
I4
tp1942
a(S'w'
I1469
tp1943
a(S'p2_vo'
I3
tp1944
a(S'w'
I6
tp1945
a(S'no_vo'
I6
tp1946
a(S'w'
I1460
tp1947
a(S'p2_vo'
I2
tp1948
a(S'w'
I8
tp1949
a(S'no_vo'
I0
tp1950
a(S'w'
I1461
tp1951
a(S'p2_vo'
I1
tp1952
a(S'w'
I1466
tp1953
a(S'p2_vo'
I0
tp1954
a(S'w'
I1467
tp1955
a(S'p1_vo'
I8
tp1956
a(S'w'
I10
tp1957
a(S'p2_ll'
I0
tp1958
a(S'w'
I4
tp1959
a(S'p2_vo'
I5
tp1960
a(S'w'
I19
tp1961
a(S'no_np'
I4
tp1962
a(S'no_ll'
I1
tp1963
a(S'w'
I5
tp1964
a(S'no_vo'
I6
tp1965
a(S'w'
I1425
tp1966
a(S'p1_vo'
I7
tp1967
a(S'w'
I6
tp1968
a(S'p2_vo'
I7
tp1969
a(S'w'
I8
tp1970
a(S'no_vo'
I0
tp1971
a(S'w'
I1453
tp1972
a(S'p1_vo'
I6
tp1973
a(S'w'
I6
tp1974
a(S'p2_vo'
I9
tp1975
a(S'w'
I1462
tp1976
a(S'p1_vo'
I5
tp1977
a(S'w'
I10
tp1978
a(S'p2_tl'
I117
tp1979
a(S'p2_ll'
I0
tp1980
a(S'w'
I5
tp1981
a(S'p2_vo'
I5
tp1982
a(S'w'
I14
tp1983
a(S'no_ll'
I1
tp1984
a(S'w'
I5
tp1985
a(S'no_vo'
I6
tp1986
a(S'w'
I1433
tp1987
a(S'p1_vo'
I4
tp1988
a(S'w'
I6
tp1989
a(S'p2_vo'
I7
tp1990
a(S'w'
I8
tp1991
a(S'no_vo'
I0
tp1992
a(S'w'
I1454
tp1993
a(S'p1_vo'
I3
tp1994
a(S'w'
I6
tp1995
a(S'p2_vo'
I9
tp1996
a(S'w'
I1461
tp1997
a(S'p1_vo'
I2
tp1998
a(S'w'
I10
tp1999
a(S'p2_tl'
I105
tp2000
a(S'w'
I1
tp2001
a(S'p2_ll'
I0
tp2002
a(S'w'
I4
tp2003
a(S'p2_vo'
I5
tp2004
a(S'w'
I14
tp2005
a(S'no_ll'
I1
tp2006
a(S'w'
I5
tp2007
a(S'no_vo'
I6
tp2008
a(S'w'
I1434
tp2009
a(S'p1_vo'
I1
tp2010
a(S'w'
I6
tp2011
a(S'p2_vo'
I7
tp2012
a(S'w'
I8
tp2013
a(S'no_vo'
I0
tp2014
a(S'w'
I1454
tp2015
a(S'p1_vo'
I0
tp2016
a(S'w'
I6
tp2017
a(S'p2_vo'
I9
tp2018
a(S'w'
I1468
tp2019
a(S'p2_vo'
I8
tp2020
a(S'w'
I14
tp2021
a(S'w'
I1
tp2022
a(S'no_ll'
I1
tp2023
a(S'w'
I4
tp2024
a(S'no_vo'
I6
tp2025
a(S'w'
I1449
tp2026
a(S'p2_vo'
I7
tp2027
a(S'w'
I8
tp2028
a(S'no_vo'
I0
tp2029
a(S'w'
I1459
tp2030
a(S'p2_vo'
I6
tp2031
a(S'w'
I1471
tp2032
a(S'p2_tl'
I54
tp2033
a(S'p2_ll'
I0
tp2034
a(S'p2_th'
I2
tp2035
a(S'w'
I4
tp2036
a(S'p2_vo'
I5
tp2037
a(S'w'
I15
tp2038
a(S'no_ll'
I1
tp2039
a(S'w'
I5
tp2040
a(S'no_vo'
I6
tp2041
a(S'w'
I1440
tp2042
a(S'p2_vo'
I7
tp2043
a(S'w'
I7
tp2044
a(S'no_vo'
I0
tp2045
a(S'w'
I1460
tp2046
a(S'p2_vo'
I9
tp2047
a(S'w'
I1472
tp2048
a(S'p2_tl'
I105
tp2049
a(S'p2_ll'
I0
tp2050
a(S'p2_th'
I4
tp2051
a(S'w'
I5
tp2052
a(S'p2_vo'
I5
tp2053
a(S'w'
I14
tp2054
a(S'no_ll'
I1
tp2055
a(S'w'
I5
tp2056
a(S'no_vo'
I6
tp2057
a(S'w'
I1439
tp2058
a(S'p2_vo'
I7
tp2059
a(S'w'
I8
tp2060
a(S'no_vo'
I0
tp2061
a(S'w'
I1460
tp2062
a(S'p2_vo'
I9
tp2063
a(S'w'
I1471
tp2064
a(S'p2_tl'
I117
tp2065
a(S'p2_ll'
I0
tp2066
a(S'w'
I5
tp2067
a(S'p2_vo'
I5
tp2068
a(S'w'
I19
tp2069
a(S'no_np'
I12
tp2070
a(S'no_ll'
I1
tp2071
a(S'w'
I4
tp2072
a(S'no_vo'
I7
tp2073
a(S'w'
I1436
tp2074
a(S'p2_vo'
I7
tp2075
a(S'w'
I1468
tp2076
a(S'p2_vo'
I9
tp2077
a(S'w'
I7
tp2078
a(S'no_vo'
I6
tp2079
a(S'w'
I1462
tp2080
a(S'p2_vo'
I8
tp2081
a(S'w'
I7
tp2082
a(S'no_vo'
I0
tp2083
a(S'w'
I1460
tp2084
a(S'p2_vo'
I7
tp2085
a(S'w'
I1467
tp2086
a(S'p2_vo'
I6
tp2087
a(S'w'
I1471
tp2088
a(S'p2_tl'
I93
tp2089
a(S'p2_ll'
I0
tp2090
a(S'p2_th'
I2
tp2091
a(S'w'
I5
tp2092
a(S'p2_vo'
I5
tp2093
a(S'w'
I13
tp2094
a(S'no_np'
I4
tp2095
a(S'w'
I1
tp2096
a(S'no_ll'
I1
tp2097
a(S'w'
I4
tp2098
a(S'no_vo'
I6
tp2099
a(S'w'
I1441
tp2100
a(S'p2_vo'
I7
tp2101
a(S'w'
I8
tp2102
a(S'no_vo'
I0
tp2103
a(S'w'
I1459
tp2104
a(S'p2_vo'
I9
tp2105
a(S'w'
I1472
tp2106
a(S'p2_tl'
I117
tp2107
a(S'p2_ll'
I0
tp2108
a(S'p2_th'
I4
tp2109
a(S'w'
I5
tp2110
a(S'p2_vo'
I5
tp2111
a(S'w'
I8
tp2112
a(S'w'
I1
tp2113
a(S'no_ll'
I1
tp2114
a(S'w'
I4
tp2115
a(S'no_vo'
I6
tp2116
a(S'w'
I1445
tp2117
a(S'p2_vo'
I7
tp2118
a(S'w'
I8
tp2119
a(S'no_vo'
I0
tp2120
a(S'w'
I1460
tp2121
a(S'p2_vo'
I9
tp2122
a(S'w'
I1464
tp2123
a(S'p1_tl'
I46
tp2124
a(S'p1_ll'
I0
tp2125
a(S'w'
I4
tp2126
a(S'p1_vo'
I7
tp2127
a(S'w'
I10
tp2128
a(S'p2_tl'
I250
tp2129
a(S'w'
I1
tp2130
a(S'p2_ll'
I0
tp2131
a(S'p2_th'
I2
tp2132
a(S'w'
I4
tp2133
a(S'p2_vo'
I5
tp2134
a(S'w'
I30
tp2135
a(S'w'
I1
tp2136
a(S'no_ll'
I1
tp2137
a(S'w'
I4
tp2138
a(S'no_vo'
I6
tp2139
a(S'w'
I1410
tp2140
a(S'p1_vo'
I8
tp2141
a(S'w'
I6
tp2142
a(S'p2_vo'
I7
tp2143
a(S'w'
I8
tp2144
a(S'no_vo'
I0
tp2145
a(S'w'
I1454
tp2146
a(S'p1_vo'
I9
tp2147
a(S'w'
I7
tp2148
a(S'p2_vo'
I9
tp2149
a(S'w'
I1468
tp2150
a(S'p2_vo'
I8
tp2151
a(S'w'
I14
tp2152
a(S'no_ll'
I1
tp2153
a(S'w'
I5
tp2154
a(S'no_vo'
I6
tp2155
a(S'w'
I1448
tp2156
a(S'p2_vo'
I7
tp2157
a(S'w'
I8
tp2158
a(S'no_vo'
I0
tp2159
a(S'w'
I1459
tp2160
a(S'p2_vo'
I6
tp2161
a(S'w'
I1471
tp2162
a(S'p2_ll'
I0
tp2163
a(S'w'
I5
tp2164
a(S'p2_vo'
I5
tp2165
a(S'w'
I14
tp2166
a(S'no_ll'
I1
tp2167
a(S'w'
I5
tp2168
a(S'no_vo'
I6
tp2169
a(S'w'
I1440
tp2170
a(S'p2_vo'
I7
tp2171
a(S'w'
I8
tp2172
a(S'no_vo'
I0
tp2173
a(S'w'
I1460
tp2174
a(S'p2_vo'
I9
tp2175
a(S'w'
I1469
tp2176
a(S'p2_vo'
I8
tp2177
a(S'w'
I14
tp2178
a(S'no_ll'
I1
tp2179
a(S'w'
I5
tp2180
a(S'no_vo'
I6
tp2181
a(S'w'
I1447
tp2182
a(S'p2_vo'
I7
tp2183
a(S'w'
I8
tp2184
a(S'no_vo'
I0
tp2185
a(S'w'
I1460
tp2186
a(S'p2_vo'
I6
tp2187
a(S'w'
I1460
tp2188
a(S'p1_vo'
I8
tp2189
a(S'w'
I12
tp2190
a(S'p2_vo'
I5
tp2191
a(S'w'
I18
tp2192
a(S'no_np'
I12
tp2193
a(S'w'
I1
tp2194
a(S'no_ll'
I1
tp2195
a(S'w'
I4
tp2196
a(S'no_vo'
I7
tp2197
a(S'w'
I1433
tp2198
a(S'p1_vo'
I7
tp2199
a(S'w'
I7
tp2200
a(S'p2_vo'
I4
tp2201
a(S'w'
I1469
tp2202
a(S'p2_vo'
I3
tp2203
a(S'w'
I6
tp2204
a(S'no_vo'
I6
tp2205
a(S'w'
I1460
tp2206
a(S'p2_vo'
I2
tp2207
a(S'w'
I8
tp2208
a(S'no_vo'
I0
tp2209
a(S'w'
I1453
tp2210
a(S'p1_vo'
I6
tp2211
a(S'w'
I8
tp2212
a(S'p2_vo'
I1
tp2213
a(S'w'
I1466
tp2214
a(S'p2_vo'
I0
tp2215
a(S'w'
I1487
tp2216
a(S'no_np'
I4
tp2217
a(S'no_ll'
I1
tp2218
a(S'w'
I5
tp2219
a(S'no_vo'
I6
tp2220
a(S'w'
I1451
tp2221
a(S'no_vo'
I0
tp2222
a(S'w'
I1453
tp2223
a(S'p1_vo'
I5
tp2224
a(S'w'
I1478
tp2225
a(S'p2_ll'
I0
tp2226
a(S'w'
I5
tp2227
a(S'p2_vo'
I5
tp2228
a(S'w'
I14
tp2229
a(S'no_ll'
I1
tp2230
a(S'w'
I5
tp2231
a(S'no_vo'
I6
tp2232
a(S'w'
I1439
tp2233
a(S'p2_vo'
I7
tp2234
a(S'w'
I8
tp2235
a(S'no_vo'
I0
tp2236
a(S'w'
I1460
tp2237
a(S'p2_vo'
I9
tp2238
a(S'w'
I1471
tp2239
a(S'p2_tl'
I244
tp2240
a(S'w'
I1
tp2241
a(S'p2_ll'
I0
tp2242
a(S'p2_th'
I5
tp2243
a(S'w'
I4
tp2244
a(S'p2_vo'
I5
tp2245
a(S'w'
I14
tp2246
a(S'w'
I1
tp2247
a(S'no_ll'
I1
tp2248
a(S'w'
I4
tp2249
a(S'no_vo'
I6
tp2250
a(S'w'
I1440
tp2251
a(S'p2_vo'
I7
tp2252
a(S'w'
I8
tp2253
a(S'no_vo'
I0
tp2254
a(S'w'
I1454
tp2255
a(S'p1_vo'
I4
tp2256
a(S'w'
I7
tp2257
a(S'p2_vo'
I9
tp2258
a(S'w'
I1468
tp2259
a(S'p2_vo'
I8
tp2260
a(S'w'
I14
tp2261
a(S'no_ll'
I1
tp2262
a(S'w'
I5
tp2263
a(S'no_vo'
I6
tp2264
a(S'w'
I1448
tp2265
a(S'p2_vo'
I7
tp2266
a(S'w'
I8
tp2267
a(S'no_vo'
I0
tp2268
a(S'w'
I1459
tp2269
a(S'p2_vo'
I6
tp2270
a(S'w'
I1465
tp2271
a(S'p1_tl'
I254
tp2272
a(S'p1_ll'
I0
tp2273
a(S'p1_th'
I0
tp2274
a(S'w'
I5
tp2275
a(S'p1_vo'
I7
tp2276
a(S'w'
I10
tp2277
a(S'p2_tl'
I1
tp2278
a(S'p2_ll'
I0
tp2279
a(S'w'
I4
tp2280
a(S'p2_vo'
I5
tp2281
a(S'w'
I14
tp2282
a(S'w'
I1
tp2283
a(S'no_ll'
I1
tp2284
a(S'w'
I4
tp2285
a(S'no_vo'
I6
tp2286
a(S'w'
I1426
tp2287
a(S'p1_vo'
I8
tp2288
a(S'w'
I6
tp2289
a(S'p2_vo'
I7
tp2290
a(S'w'
I8
tp2291
a(S'no_vo'
I0
tp2292
a(S'w'
I1453
tp2293
a(S'p1_vo'
I9
tp2294
a(S'w'
I7
tp2295
a(S'p2_vo'
I9
tp2296
a(S'w'
I1469
tp2297
a(S'p2_vo'
I8
tp2298
a(S'w'
I14
tp2299
a(S'no_ll'
I1
tp2300
a(S'w'
I5
tp2301
a(S'no_vo'
I6
tp2302
a(S'w'
I1442
tp2303
a(S'p1_vo'
I8
tp2304
a(S'w'
I7
tp2305
a(S'p2_vo'
I7
tp2306
a(S'w'
I7
tp2307
a(S'no_vo'
I0
tp2308
a(S'w'
I1453
tp2309
a(S'p1_vo'
I7
tp2310
a(S'w'
I7
tp2311
a(S'p2_vo'
I6
tp2312
a(S'w'
I1463
tp2313
a(S'p1_tl'
I226
tp2314
a(S'p1_ll'
I0
tp2315
a(S'w'
I14
tp2316
a(S'p2_tl'
I249
tp2317
a(S'p2_ll'
I0
tp2318
a(S'p2_th'
I3
tp2319
a(S'w'
I5
tp2320
a(S'p2_vo'
I5
tp2321
a(S'w'
I18
tp2322
a(S'no_np'
I12
tp2323
a(S'w'
I1
tp2324
a(S'no_ll'
I1
tp2325
a(S'w'
I4
tp2326
a(S'no_vo'
I7
tp2327
a(S'w'
I1422
tp2328
a(S'p1_vo'
I8
tp2329
a(S'w'
I6
tp2330
a(S'p2_vo'
I7
tp2331
a(S'w'
I1462
tp2332
a(S'p1_vo'
I9
tp2333
a(S'w'
I7
tp2334
a(S'p2_vo'
I9
tp2335
a(S'w'
I6
tp2336
a(S'no_vo'
I6
tp2337
a(S'w'
I1462
tp2338
a(S'p2_vo'
I8
tp2339
a(S'w'
I7
tp2340
a(S'no_vo'
I0
tp2341
a(S'w'
I1455
tp2342
a(S'p1_vo'
I8
tp2343
a(S'w'
I7
tp2344
a(S'p2_vo'
I7
tp2345
a(S'w'
I1459
tp2346
a(S'p1_vo'
I7
tp2347
a(S'w'
I7
tp2348
a(S'p2_vo'
I6
tp2349
a(S'w'
I1464
tp2350
a(S'p1_tl'
I202
tp2351
a(S'p1_ll'
I0
tp2352
a(S'w'
I14
tp2353
a(S'p2_tl'
I138
tp2354
a(S'p2_ll'
I0
tp2355
a(S'w'
I5
tp2356
a(S'p2_vo'
I5
tp2357
a(S'w'
I14
tp2358
a(S'no_np'
I4
tp2359
a(S'no_ll'
I1
tp2360
a(S'w'
I5
tp2361
a(S'no_vo'
I6
tp2362
a(S'w'
I1426
tp2363
a(S'p1_vo'
I8
tp2364
a(S'w'
I6
tp2365
a(S'p2_vo'
I7
tp2366
a(S'w'
I8
tp2367
a(S'no_vo'
I0
tp2368
a(S'w'
I1453
tp2369
a(S'p1_vo'
I9
tp2370
a(S'w'
I7
tp2371
a(S'p2_vo'
I9
tp2372
a(S'w'
I1469
tp2373
a(S'p2_vo'
I8
tp2374
a(S'w'
I8
tp2375
a(S'w'
I1
tp2376
a(S'no_ll'
I1
tp2377
a(S'w'
I4
tp2378
a(S'no_vo'
I6
tp2379
a(S'w'
I1448
tp2380
a(S'p1_vo'
I8
tp2381
a(S'w'
I7
tp2382
a(S'p2_vo'
I7
tp2383
a(S'w'
I7
tp2384
a(S'no_vo'
I0
tp2385
a(S'w'
I1453
tp2386
a(S'p1_vo'
I7
tp2387
a(S'w'
I7
tp2388
a(S'p2_vo'
I6
tp2389
a(S'w'
I1465
tp2390
a(S'p1_vo'
I6
tp2391
a(S'w'
I9
tp2392
a(S'p2_tl'
I87
tp2393
a(S'w'
I1
tp2394
a(S'p2_ll'
I0
tp2395
a(S'w'
I4
tp2396
a(S'p2_vo'
I5
tp2397
a(S'w'
I30
tp2398
a(S'w'
I1
tp2399
a(S'no_ll'
I1
tp2400
a(S'w'
I4
tp2401
a(S'no_vo'
I6
tp2402
a(S'w'
I1414
tp2403
a(S'p1_vo'
I5
tp2404
a(S'w'
I6
tp2405
a(S'p2_vo'
I7
tp2406
a(S'w'
I8
tp2407
a(S'no_vo'
I0
tp2408
a(S'w'
I1454
tp2409
a(S'p1_vo'
I4
tp2410
a(S'w'
I6
tp2411
a(S'p2_vo'
I9
tp2412
a(S'w'
I1461
tp2413
a(S'p1_vo'
I3
tp2414
a(S'w'
I8
tp2415
a(S'p2_vo'
I8
tp2416
a(S'w'
I14
tp2417
a(S'no_ll'
I1
tp2418
a(S'w'
I5
tp2419
a(S'no_vo'
I6
tp2420
a(S'w'
I1441
tp2421
a(S'p1_vo'
I2
tp2422
a(S'w'
I7
tp2423
a(S'p2_vo'
I7
tp2424
a(S'w'
I8
tp2425
a(S'no_vo'
I0
tp2426
a(S'w'
I1452
tp2427
a(S'p1_vo'
I1
tp2428
a(S'w'
I7
tp2429
a(S'p2_vo'
I6
tp2430
a(S'w'
I1464
tp2431
a(S'p1_tl'
I226
tp2432
a(S'p1_ll'
I0
tp2433
a(S'w'
I4
tp2434
a(S'p1_vo'
I7
tp2435
a(S'w'
I10
tp2436
a(S'p2_ll'
I0
tp2437
a(S'w'
I5
tp2438
a(S'p2_vo'
I5
tp2439
a(S'w'
I14
tp2440
a(S'no_ll'
I1
tp2441
a(S'w'
I5
tp2442
a(S'no_vo'
I6
tp2443
a(S'w'
I1426
tp2444
a(S'p1_vo'
I8
tp2445
a(S'w'
I6
tp2446
a(S'p2_vo'
I7
tp2447
a(S'w'
I8
tp2448
a(S'no_vo'
I0
tp2449
a(S'w'
I1453
tp2450
a(S'p1_vo'
I9
tp2451
a(S'w'
I7
tp2452
a(S'p2_vo'
I9
tp2453
a(S'w'
I1469
tp2454
a(S'p2_vo'
I8
tp2455
a(S'w'
I14
tp2456
a(S'no_ll'
I1
tp2457
a(S'w'
I5
tp2458
a(S'no_vo'
I6
tp2459
a(S'w'
I1442
tp2460
a(S'p1_vo'
I8
tp2461
a(S'w'
I7
tp2462
a(S'p2_vo'
I7
tp2463
a(S'w'
I7
tp2464
a(S'no_vo'
I0
tp2465
a(S'w'
I1453
tp2466
a(S'p1_vo'
I7
tp2467
a(S'w'
I7
tp2468
a(S'p2_vo'
I6
tp2469
a(S'w'
I1465
tp2470
a(S'p1_vo'
I6
tp2471
a(S'w'
I11
tp2472
a(S'p2_vo'
I5
tp2473
a(S'w'
I19
tp2474
a(S'no_np'
I12
tp2475
a(S'no_ll'
I1
tp2476
a(S'w'
I5
tp2477
a(S'no_vo'
I7
tp2478
a(S'w'
I1428
tp2479
a(S'p1_vo'
I5
tp2480
a(S'w'
I7
tp2481
a(S'p2_vo'
I4
tp2482
a(S'w'
I1461
tp2483
a(S'p1_vo'
I4
tp2484
a(S'w'
I8
tp2485
a(S'p2_vo'
I3
tp2486
a(S'w'
I6
tp2487
a(S'no_vo'
I6
tp2488
a(S'w'
I1453
tp2489
a(S'p1_vo'
I3
tp2490
a(S'w'
I7
tp2491
a(S'p2_vo'
I2
tp2492
a(S'w'
I8
tp2493
a(S'no_vo'
I0
tp2494
a(S'w'
I1453
tp2495
a(S'p1_vo'
I2
tp2496
a(S'w'
I8
tp2497
a(S'p2_vo'
I1
tp2498
a(S'w'
I1459
tp2499
a(S'p1_vo'
I1
tp2500
a(S'w'
I7
tp2501
a(S'p2_vo'
I0
tp2502
a(S'w'
I1464
tp2503
a(S'p1_tl'
I254
tp2504
a(S'p1_ll'
I0
tp2505
a(S'w'
I4
tp2506
a(S'p1_vo'
I7
tp2507
a(S'w'
I26
tp2508
a(S'no_np'
I4
tp2509
a(S'no_ll'
I1
tp2510
a(S'w'
I5
tp2511
a(S'no_vo'
I6
tp2512
a(S'w'
I1429
tp2513
a(S'p1_vo'
I8
tp2514
a(S'w'
I14
tp2515
a(S'no_vo'
I0
tp2516
a(S'w'
I1453
tp2517
a(S'p1_vo'
I9
tp2518
a(S'w'
I1478
tp2519
a(S'p2_ll'
I0
tp2520
a(S'w'
I5
tp2521
a(S'p2_vo'
I5
tp2522
a(S'w'
I14
tp2523
a(S'no_ll'
I1
tp2524
a(S'w'
I5
tp2525
a(S'no_vo'
I6
tp2526
a(S'w'
I1435
tp2527
a(S'p1_vo'
I8
tp2528
a(S'w'
I6
tp2529
a(S'p2_vo'
I7
tp2530
a(S'w'
I7
tp2531
a(S'no_vo'
I0
tp2532
a(S'w'
I1454
tp2533
a(S'p1_vo'
I7
tp2534
a(S'w'
I6
tp2535
a(S'p2_vo'
I9
tp2536
a(S'w'
I1466
tp2537
a(S'p1_vo'
I6
tp2538
a(S'w'
I10
tp2539
a(S'p2_ll'
I0
tp2540
a(S'w'
I4
tp2541
a(S'p2_vo'
I5
tp2542
a(S'w'
I15
tp2543
a(S'no_ll'
I1
tp2544
a(S'w'
I5
tp2545
a(S'no_vo'
I6
tp2546
a(S'w'
I1429
tp2547
a(S'p1_vo'
I5
tp2548
a(S'w'
I6
tp2549
a(S'p2_vo'
I7
tp2550
a(S'w'
I8
tp2551
a(S'no_vo'
I0
tp2552
a(S'w'
I1454
tp2553
a(S'p1_vo'
I4
tp2554
a(S'w'
I6
tp2555
a(S'p2_vo'
I9
tp2556
a(S'w'
I1461
tp2557
a(S'p1_vo'
I3
tp2558
a(S'w'
I8
tp2559
a(S'p2_vo'
I8
tp2560
a(S'w'
I14
tp2561
a(S'no_ll'
I1
tp2562
a(S'w'
I5
tp2563
a(S'no_vo'
I6
tp2564
a(S'w'
I1441
tp2565
a(S'p1_vo'
I2
tp2566
a(S'w'
I7
tp2567
a(S'p2_vo'
I7
tp2568
a(S'w'
I8
tp2569
a(S'no_vo'
I0
tp2570
a(S'w'
I1452
tp2571
a(S'p1_vo'
I1
tp2572
a(S'w'
I7
tp2573
a(S'p2_vo'
I6
tp2574
a(S'w'
I1464
tp2575
a(S'p1_tl'
I29
tp2576
a(S'p1_ll'
I0
tp2577
a(S'p1_th'
I1
tp2578
a(S'w'
I4
tp2579
a(S'p1_vo'
I7
tp2580
a(S'w'
I10
tp2581
a(S'p2_tl'
I138
tp2582
a(S'p2_ll'
I0
tp2583
a(S'w'
I5
tp2584
a(S'p2_vo'
I5
tp2585
a(S'w'
I14
tp2586
a(S'no_ll'
I1
tp2587
a(S'w'
I5
tp2588
a(S'no_vo'
I6
tp2589
a(S'w'
I1426
tp2590
a(S'p1_vo'
I8
tp2591
a(S'w'
I6
tp2592
a(S'p2_vo'
I7
tp2593
a(S'w'
I8
tp2594
a(S'no_vo'
I0
tp2595
a(S'w'
I1453
tp2596
a(S'p1_vo'
I9
tp2597
a(S'w'
I7
tp2598
a(S'p2_vo'
I9
tp2599
a(S'w'
I1469
tp2600
a(S'p2_vo'
I8
tp2601
a(S'w'
I14
tp2602
a(S'no_ll'
I1
tp2603
a(S'w'
I5
tp2604
a(S'no_vo'
I6
tp2605
a(S'w'
I1442
tp2606
a(S'p1_vo'
I8
tp2607
a(S'w'
I7
tp2608
a(S'p2_vo'
I7
tp2609
a(S'w'
I7
tp2610
a(S'no_vo'
I0
tp2611
a(S'w'
I1453
tp2612
a(S'p1_vo'
I7
tp2613
a(S'w'
I7
tp2614
a(S'p2_vo'
I6
tp2615
a(S'w'
I1465
tp2616
a(S'p1_vo'
I6
tp2617
a(S'w'
I10
tp2618
a(S'p2_tl'
I249
tp2619
a(S'p2_ll'
I0
tp2620
a(S'w'
I4
tp2621
a(S'p2_vo'
I5
tp2622
a(S'w'
I19
tp2623
a(S'no_np'
I12
tp2624
a(S'no_ll'
I1
tp2625
a(S'w'
I5
tp2626
a(S'no_vo'
I7
tp2627
a(S'w'
I1425
tp2628
a(S'p1_vo'
I5
tp2629
a(S'w'
I6
tp2630
a(S'p2_vo'
I7
tp2631
a(S'w'
I1462
tp2632
a(S'p1_vo'
I4
tp2633
a(S'w'
I6
tp2634
a(S'p2_vo'
I9
tp2635
a(S'w'
I7
tp2636
a(S'no_vo'
I6
tp2637
a(S'w'
I1454
tp2638
a(S'p1_vo'
I3
tp2639
a(S'w'
I8
tp2640
a(S'p2_vo'
I8
tp2641
a(S'w'
I7
tp2642
a(S'no_vo'
I0
tp2643
a(S'w'
I1453
tp2644
a(S'p1_vo'
I2
tp2645
a(S'w'
I7
tp2646
a(S'p2_vo'
I7
tp2647
a(S'w'
I1460
tp2648
a(S'p1_vo'
I1
tp2649
a(S'w'
I7
tp2650
a(S'p2_vo'
I6
tp2651
a(S'w'
I1464
tp2652
a(S'p1_tl'
I226
tp2653
a(S'p1_ll'
I0
tp2654
a(S'p1_th'
I0
tp2655
a(S'w'
I4
tp2656
a(S'p1_vo'
I7
tp2657
a(S'w'
I10
tp2658
a(S'p2_tl'
I117
tp2659
a(S'p2_ll'
I0
tp2660
a(S'p2_th'
I4
tp2661
a(S'w'
I5
tp2662
a(S'p2_vo'
I5
tp2663
a(S'w'
I14
tp2664
a(S'no_np'
I4
tp2665
a(S'no_ll'
I1
tp2666
a(S'w'
I5
tp2667
a(S'no_vo'
I6
tp2668
a(S'w'
I1426
tp2669
a(S'p1_vo'
I8
tp2670
a(S'w'
I6
tp2671
a(S'p2_vo'
I7
tp2672
a(S'w'
I8
tp2673
a(S'no_vo'
I0
tp2674
a(S'w'
I1453
tp2675
a(S'p1_vo'
I9
tp2676
a(S'w'
I7
tp2677
a(S'p2_vo'
I9
tp2678
a(S'w'
I1469
tp2679
a(S'p2_vo'
I8
tp2680
a(S'w'
I8
tp2681
a(S'w'
I1
tp2682
a(S'no_ll'
I1
tp2683
a(S'w'
I4
tp2684
a(S'no_vo'
I6
tp2685
a(S'w'
I1448
tp2686
a(S'p1_vo'
I8
tp2687
a(S'w'
I7
tp2688
a(S'p2_vo'
I7
tp2689
a(S'w'
I7
tp2690
a(S'no_vo'
I0
tp2691
a(S'w'
I1453
tp2692
a(S'p1_vo'
I7
tp2693
a(S'w'
I7
tp2694
a(S'p2_vo'
I6
tp2695
a(S'w'
I1465
tp2696
a(S'p1_vo'
I6
tp2697
a(S'w'
I9
tp2698
a(S'p2_tl'
I105
tp2699
a(S'w'
I1
tp2700
a(S'p2_ll'
I0
tp2701
a(S'w'
I4
tp2702
a(S'p2_vo'
I5
tp2703
a(S'w'
I30
tp2704
a(S'w'
I1
tp2705
a(S'no_ll'
I1
tp2706
a(S'w'
I4
tp2707
a(S'no_vo'
I6
tp2708
a(S'w'
I1414
tp2709
a(S'p1_vo'
I5
tp2710
a(S'w'
I6
tp2711
a(S'p2_vo'
I7
tp2712
a(S'w'
I8
tp2713
a(S'no_vo'
I0
tp2714
a(S'w'
I1454
tp2715
a(S'p1_vo'
I4
tp2716
a(S'w'
I6
tp2717
a(S'p2_vo'
I9
tp2718
a(S'w'
I1461
tp2719
a(S'p1_vo'
I3
tp2720
a(S'w'
I8
tp2721
a(S'p2_vo'
I8
tp2722
a(S'w'
I14
tp2723
a(S'no_ll'
I1
tp2724
a(S'w'
I5
tp2725
a(S'no_vo'
I6
tp2726
a(S'w'
I1441
tp2727
a(S'p1_vo'
I2
tp2728
a(S'w'
I7
tp2729
a(S'p2_vo'
I7
tp2730
a(S'w'
I8
tp2731
a(S'no_vo'
I0
tp2732
a(S'w'
I1452
tp2733
a(S'p1_vo'
I1
tp2734
a(S'w'
I7
tp2735
a(S'p2_vo'
I6
tp2736
a(S'w'
I1464
tp2737
a(S'p1_tl'
I254
tp2738
a(S'p1_ll'
I0
tp2739
a(S'w'
I4
tp2740
a(S'p1_vo'
I7
tp2741
a(S'w'
I10
tp2742
a(S'p2_ll'
I0
tp2743
a(S'w'
I5
tp2744
a(S'p2_vo'
I5
tp2745
a(S'w'
I14
tp2746
a(S'no_ll'
I1
tp2747
a(S'w'
I5
tp2748
a(S'no_vo'
I6
tp2749
a(S'w'
I1426
tp2750
a(S'p1_vo'
I8
tp2751
a(S'w'
I6
tp2752
a(S'p2_vo'
I7
tp2753
a(S'w'
I8
tp2754
a(S'no_vo'
I0
tp2755
a(S'w'
I1453
tp2756
a(S'p1_vo'
I9
tp2757
a(S'w'
I7
tp2758
a(S'p2_vo'
I9
tp2759
a(S'w'
I1469
tp2760
a(S'p2_vo'
I8
tp2761
a(S'w'
I14
tp2762
a(S'no_ll'
I1
tp2763
a(S'w'
I5
tp2764
a(S'no_vo'
I6
tp2765
a(S'w'
I1442
tp2766
a(S'p1_vo'
I8
tp2767
a(S'w'
I7
tp2768
a(S'p2_vo'
I7
tp2769
a(S'w'
I7
tp2770
a(S'no_vo'
I0
tp2771
a(S'w'
I1453
tp2772
a(S'p1_vo'
I7
tp2773
a(S'w'
I7
tp2774
a(S'p2_vo'
I6
tp2775
a(S'w'
I1465
tp2776
a(S'p1_vo'
I6
tp2777
a(S'w'
I11
tp2778
a(S'p2_vo'
I5
tp2779
a(S'w'
I19
tp2780
a(S'no_np'
I12
tp2781
a(S'no_ll'
I1
tp2782
a(S'w'
I5
tp2783
a(S'no_vo'
I7
tp2784
a(S'w'
I1428
tp2785
a(S'p1_vo'
I5
tp2786
a(S'w'
I7
tp2787
a(S'p2_vo'
I4
tp2788
a(S'w'
I1461
tp2789
a(S'p1_vo'
I4
tp2790
a(S'w'
I8
tp2791
a(S'p2_vo'
I3
tp2792
a(S'w'
I6
tp2793
a(S'no_vo'
I6
tp2794
a(S'w'
I1453
tp2795
a(S'p1_vo'
I3
tp2796
a(S'w'
I7
tp2797
a(S'p2_vo'
I2
tp2798
a(S'w'
I8
tp2799
a(S'no_vo'
I0
tp2800
a(S'w'
I1453
tp2801
a(S'p1_vo'
I2
tp2802
a(S'w'
I8
tp2803
a(S'p2_vo'
I1
tp2804
a(S'w'
I1459
tp2805
a(S'p1_vo'
I1
tp2806
a(S'w'
I7
tp2807
a(S'p2_vo'
I0
tp2808
a(S'w'
I1464
tp2809
a(S'p1_tl'
I29
tp2810
a(S'p1_ll'
I0
tp2811
a(S'p1_th'
I1
tp2812
a(S'w'
I4
tp2813
a(S'p1_vo'
I7
tp2814
a(S'w'
I26
tp2815
a(S'no_np'
I4
tp2816
a(S'no_ll'
I1
tp2817
a(S'w'
I5
tp2818
a(S'no_vo'
I6
tp2819
a(S'w'
I1429
tp2820
a(S'p1_vo'
I8
tp2821
a(S'w'
I14
tp2822
a(S'no_vo'
I0
tp2823
a(S'w'
I1453
tp2824
a(S'p1_vo'
I9
tp2825
a(S'w'
I1478
tp2826
a(S'p2_ll'
I0
tp2827
a(S'w'
I5
tp2828
a(S'p2_vo'
I5
tp2829
a(S'w'
I14
tp2830
a(S'no_ll'
I1
tp2831
a(S'w'
I5
tp2832
a(S'no_vo'
I6
tp2833
a(S'w'
I1435
tp2834
a(S'p1_vo'
I8
tp2835
a(S'w'
I6
tp2836
a(S'p2_vo'
I7
tp2837
a(S'w'
I7
tp2838
a(S'no_vo'
I0
tp2839
a(S'w'
I1454
tp2840
a(S'p1_vo'
I7
tp2841
a(S'w'
I6
tp2842
a(S'p2_vo'
I9
tp2843
a(S'w'
I1466
tp2844
a(S'p1_vo'
I6
tp2845
a(S'w'
I10
tp2846
a(S'p2_ll'
I0
tp2847
a(S'w'
I4
tp2848
a(S'p2_vo'
I5
tp2849
a(S'w'
I15
tp2850
a(S'no_ll'
I1
tp2851
a(S'w'
I5
tp2852
a(S'no_vo'
I6
tp2853
a(S'w'
I1429
tp2854
a(S'p1_vo'
I5
tp2855
a(S'w'
I6
tp2856
a(S'p2_vo'
I7
tp2857
a(S'w'
I8
tp2858
a(S'no_vo'
I0
tp2859
a(S'w'
I1454
tp2860
a(S'p1_vo'
I4
tp2861
a(S'w'
I6
tp2862
a(S'p2_vo'
I9
tp2863
a(S'w'
I1461
tp2864
a(S'p1_vo'
I3
tp2865
a(S'w'
I8
tp2866
a(S'p2_vo'
I8
tp2867
a(S'w'
I14
tp2868
a(S'no_ll'
I1
tp2869
a(S'w'
I5
tp2870
a(S'no_vo'
I6
tp2871
a(S'w'
I1441
tp2872
a(S'p1_vo'
I2
tp2873
a(S'w'
I7
tp2874
a(S'p2_vo'
I7
tp2875
a(S'w'
I8
tp2876
a(S'no_vo'
I0
tp2877
a(S'w'
I1452
tp2878
a(S'p1_vo'
I1
tp2879
a(S'w'
I7
tp2880
a(S'p2_vo'
I6
tp2881
a(S'w'
I1464
tp2882
a(S'p1_tl'
I226
tp2883
a(S'p1_ll'
I0
tp2884
a(S'p1_th'
I0
tp2885
a(S'w'
I4
tp2886
a(S'p1_vo'
I7
tp2887
a(S'w'
I10
tp2888
a(S'p2_tl'
I117
tp2889
a(S'p2_ll'
I0
tp2890
a(S'w'
I5
tp2891
a(S'p2_vo'
I5
tp2892
a(S'w'
I14
tp2893
a(S'no_ll'
I1
tp2894
a(S'w'
I5
tp2895
a(S'no_vo'
I6
tp2896
a(S'w'
I1426
tp2897
a(S'p1_vo'
I8
tp2898
a(S'w'
I6
tp2899
a(S'p2_vo'
I7
tp2900
a(S'w'
I8
tp2901
a(S'no_vo'
I0
tp2902
a(S'w'
I1453
tp2903
a(S'p1_vo'
I9
tp2904
a(S'w'
I7
tp2905
a(S'p2_vo'
I9
tp2906
a(S'w'
I1469
tp2907
a(S'p2_vo'
I8
tp2908
a(S'w'
I14
tp2909
a(S'no_ll'
I1
tp2910
a(S'w'
I5
tp2911
a(S'no_vo'
I6
tp2912
a(S'w'
I1442
tp2913
a(S'p1_vo'
I8
tp2914
a(S'w'
I7
tp2915
a(S'p2_vo'
I7
tp2916
a(S'w'
I7
tp2917
a(S'no_vo'
I0
tp2918
a(S'w'
I1453
tp2919
a(S'p1_vo'
I7
tp2920
a(S'w'
I7
tp2921
a(S'p2_vo'
I6
tp2922
a(S'w'
I1463
tp2923
a(S'p1_tl'
I13
tp2924
a(S'p1_ll'
I0
tp2925
a(S'p1_th'
I1
tp2926
a(S'w'
I14
tp2927
a(S'p2_tl'
I1
tp2928
a(S'p2_ll'
I0
tp2929
a(S'p2_th'
I5
tp2930
a(S'w'
I5
tp2931
a(S'p2_vo'
I5
tp2932
a(S'w'
I18
tp2933
a(S'no_np'
I12
tp2934
a(S'w'
I1
tp2935
a(S'no_ll'
I1
tp2936
a(S'w'
I4
tp2937
a(S'no_vo'
I7
tp2938
a(S'w'
I1422
tp2939
a(S'p1_vo'
I8
tp2940
a(S'w'
I6
tp2941
a(S'p2_vo'
I7
tp2942
a(S'w'
I1462
tp2943
a(S'p1_vo'
I9
tp2944
a(S'w'
I7
tp2945
a(S'p2_vo'
I9
tp2946
a(S'w'
I6
tp2947
a(S'no_vo'
I6
tp2948
a(S'w'
I1462
tp2949
a(S'p2_vo'
I8
tp2950
a(S'w'
I7
tp2951
a(S'no_vo'
I0
tp2952
a(S'w'
I1460
tp2953
a(S'p2_vo'
I7
tp2954
a(S'w'
I1467
tp2955
a(S'p2_vo'
I6
tp2956
a(S'w'
I1471
tp2957
a(S'p2_tl'
I77
tp2958
a(S'p2_ll'
I0
tp2959
a(S'w'
I5
tp2960
a(S'p2_vo'
I5
tp2961
a(S'w'
I14
tp2962
a(S'no_np'
I4
tp2963
a(S'no_ll'
I1
tp2964
a(S'w'
I4
tp2965
a(S'no_vo'
I6
tp2966
a(S'w'
I1441
tp2967
a(S'p2_vo'
I7
tp2968
a(S'w'
I8
tp2969
a(S'no_vo'
I0
tp2970
a(S'w'
I1460
tp2971
a(S'p2_vo'
I9
tp2972
a(S'w'
I1467
tp2973
a(S'p2_vo'
I11
tp2974
a(S'w'
I9
tp2975
a(S'no_ll'
I1
tp2976
a(S'w'
I5
tp2977
a(S'no_vo'
I6
tp2978
a(S'w'
I1454
tp2979
a(S'p2_vo'
I12
tp2980
a(S'w'
I7
tp2981
a(S'no_vo'
I0
tp2982
a(S'w'
I2927
tp2983
a(S'p1_vo'
I8
tp2984
a(S'w'
I8
tp2985
a(S'p2_vo'
I11
tp2986
a(S'w'
I19
tp2987
a(S'no_ll'
I1
tp2988
a(S'w'
I5
tp2989
a(S'no_vo'
I6
tp2990
a(S'w'
I1431
tp2991
a(S'p1_vo'
I7
tp2992
a(S'w'
I7
tp2993
a(S'p2_vo'
I10
tp2994
a(S'w'
I6
tp2995
a(S'no_vo'
I5
tp2996
a(S'w'
I1455
tp2997
a(S'p1_vo'
I6
tp2998
a(S'w'
I8
tp2999
a(S'p2_vo'
I9
tp3000
a(S'w'
I6
tp3001
a(S'no_vo'
I0
tp3002
a(S'w'
I1453
tp3003
a(S'p1_vo'
I5
tp3004
a(S'w'
I7
tp3005
a(S'p2_vo'
I8
tp3006
a(S'w'
I1461
tp3007
a(S'p1_vo'
I4
tp3008
a(S'w'
I8
tp3009
a(S'p2_vo'
I7
tp3010
a(S'w'
I1459
tp3011
a(S'p1_vo'
I3
tp3012
a(S'w'
I7
tp3013
a(S'p2_vo'
I6
tp3014
a(S'w'
I1461
tp3015
a(S'p1_vo'
I2
tp3016
a(S'w'
I10
tp3017
a(S'p2_tl'
I167
tp3018
a(S'p2_ll'
I0
tp3019
a(S'p2_th'
I2
tp3020
a(S'w'
I5
tp3021
a(S'p2_vo'
I5
tp3022
a(S'w'
I8
tp3023
a(S'no_np'
I7
tp3024
a(S'w'
I1
tp3025
a(S'no_ll'
I1
tp3026
a(S'w'
I4
tp3027
a(S'no_vo'
I6
tp3028
a(S'w'
I1440
tp3029
a(S'p1_vo'
I1
tp3030
a(S'w'
I6
tp3031
a(S'p2_vo'
I7
tp3032
a(S'w'
I8
tp3033
a(S'no_vo'
I0
tp3034
a(S'w'
I1453
tp3035
a(S'p1_vo'
I0
tp3036
a(S'w'
I6
tp3037
a(S'p2_vo'
I9
tp3038
a(S'w'
I1472
tp3039
a(S'p2_tl'
I77
tp3040
a(S'p2_ll'
I0
tp3041
a(S'p2_th'
I5
tp3042
a(S'w'
I5
tp3043
a(S'p2_vo'
I5
tp3044
a(S'w'
I8
tp3045
a(S'w'
I1
tp3046
a(S'no_ll'
I1
tp3047
a(S'w'
I4
tp3048
a(S'no_vo'
I6
tp3049
a(S'w'
I1445
tp3050
a(S'p2_vo'
I7
tp3051
a(S'w'
I8
tp3052
a(S'no_vo'
I0
tp3053
a(S'w'
I1460
tp3054
a(S'p2_vo'
I9
tp3055
a(S'w'
I1471
tp3056
a(S'p2_tl'
I117
tp3057
a(S'p2_ll'
I0
tp3058
a(S'p2_th'
I4
tp3059
a(S'w'
I5
tp3060
a(S'p2_vo'
I5
tp3061
a(S'w'
I8
tp3062
a(S'no_np'
I4
tp3063
a(S'w'
I1
tp3064
a(S'no_ll'
I1
tp3065
a(S'w'
I4
tp3066
a(S'no_vo'
I6
tp3067
a(S'w'
I1446
tp3068
a(S'p2_vo'
I7
tp3069
a(S'w'
I6
tp3070
a(S'no_vo'
I5
tp3071
a(S'w'
I1462
tp3072
a(S'p2_vo'
I9
tp3073
a(S'w'
I7
tp3074
a(S'no_vo'
I0
tp3075
a(S'w'
I1461
tp3076
a(S'p2_vo'
I8
tp3077
a(S'w'
I1468
tp3078
a(S'p2_vo'
I7
tp3079
a(S'w'
I1467
tp3080
a(S'p2_vo'
I6
tp3081
a(S'w'
I1471
tp3082
a(S'p2_tl'
I93
tp3083
a(S'p2_ll'
I0
tp3084
a(S'p2_th'
I2
tp3085
a(S'w'
I5
tp3086
a(S'p2_vo'
I5
tp3087
a(S'w'
I8
tp3088
a(S'no_np'
I7
tp3089
a(S'w'
I1
tp3090
a(S'no_ll'
I1
tp3091
a(S'w'
I4
tp3092
a(S'no_vo'
I6
tp3093
a(S'w'
I1446
tp3094
a(S'p2_vo'
I7
tp3095
a(S'w'
I8
tp3096
a(S'no_vo'
I0
tp3097
a(S'w'
I1459
tp3098
a(S'p2_vo'
I9
tp3099
a(S'w'
I1472
tp3100
a(S'p2_tl'
I117
tp3101
a(S'p2_ll'
I0
tp3102
a(S'p2_th'
I4
tp3103
a(S'w'
I5
tp3104
a(S'p2_vo'
I5
tp3105
a(S'w'
I8
tp3106
a(S'w'
I1
tp3107
a(S'no_ll'
I1
tp3108
a(S'w'
I4
tp3109
a(S'no_vo'
I6
tp3110
a(S'w'
I1445
tp3111
a(S'p2_vo'
I7
tp3112
a(S'w'
I8
tp3113
a(S'no_vo'
I0
tp3114
a(S'w'
I1460
tp3115
a(S'p2_vo'
I9
tp3116
a(S'w'
I1471
tp3117
a(S'p2_tl'
I105
tp3118
a(S'p2_ll'
I0
tp3119
a(S'w'
I5
tp3120
a(S'p2_vo'
I5
tp3121
a(S'w'
I9
tp3122
a(S'no_np'
I9
tp3123
a(S'no_ll'
I1
tp3124
a(S'w'
I5
tp3125
a(S'no_vo'
I6
tp3126
a(S'w'
I1445
tp3127
a(S'p2_vo'
I7
tp3128
a(S'w'
I6
tp3129
a(S'no_vo'
I5
tp3130
a(S'w'
I1462
tp3131
a(S'p2_vo'
I9
tp3132
a(S'w'
I7
tp3133
a(S'no_vo'
I0
tp3134
a(S'w'
I1462
tp3135
a(S'p2_vo'
I8
tp3136
a(S'w'
I1467
tp3137
a(S'p2_vo'
I7
tp3138
a(S'w'
I1467
tp3139
a(S'p2_vo'
I6
tp3140
a(S'w'
I1471
tp3141
a(S'p2_tl'
I54
tp3142
a(S'p2_ll'
I0
tp3143
a(S'p2_th'
I2
tp3144
a(S'w'
I5
tp3145
a(S'p2_vo'
I5
tp3146
a(S'w'
I8
tp3147
a(S'w'
I1
tp3148
a(S'no_ll'
I1
tp3149
a(S'w'
I4
tp3150
a(S'no_vo'
I6
tp3151
a(S'w'
I1446
tp3152
a(S'p2_vo'
I7
tp3153
a(S'w'
I8
tp3154
a(S'no_vo'
I0
tp3155
a(S'w'
I1459
tp3156
a(S'p2_vo'
I9
tp3157
a(S'w'
I1472
tp3158
a(S'p2_tl'
I105
tp3159
a(S'p2_ll'
I0
tp3160
a(S'p2_th'
I4
tp3161
a(S'w'
I5
tp3162
a(S'p2_vo'
I5
tp3163
a(S'w'
I13
tp3164
a(S'no_np'
I12
tp3165
a(S'w'
I1
tp3166
a(S'no_ll'
I1
tp3167
a(S'w'
I4
tp3168
a(S'no_vo'
I6
tp3169
a(S'w'
I1440
tp3170
a(S'p2_vo'
I7
tp3171
a(S'w'
I8
tp3172
a(S'no_vo'
I0
tp3173
a(S'w'
I1460
tp3174
a(S'p2_vo'
I9
tp3175
a(S'w'
I1471
tp3176
a(S'p2_tl'
I53
tp3177
a(S'p2_ll'
I0
tp3178
a(S'w'
I5
tp3179
a(S'p2_vo'
I5
tp3180
a(S'w'
I14
tp3181
a(S'no_ll'
I1
tp3182
a(S'w'
I5
tp3183
a(S'no_vo'
I6
tp3184
a(S'w'
I1440
tp3185
a(S'p2_vo'
I7
tp3186
a(S'w'
I8
tp3187
a(S'no_vo'
I0
tp3188
a(S'w'
I1460
tp3189
a(S'p2_vo'
I9
tp3190
a(S'w'
I1469
tp3191
a(S'p2_vo'
I8
tp3192
a(S'w'
I14
tp3193
a(S'no_ll'
I1
tp3194
a(S'w'
I5
tp3195
a(S'no_vo'
I6
tp3196
a(S'w'
I1448
tp3197
a(S'p2_vo'
I7
tp3198
a(S'w'
I8
tp3199
a(S'no_vo'
I0
tp3200
a(S'w'
I1459
tp3201
a(S'p2_vo'
I6
tp3202
a(S'w'
I1471
tp3203
a(S'p2_tl'
I22
tp3204
a(S'p2_ll'
I0
tp3205
a(S'p2_th'
I2
tp3206
a(S'w'
I5
tp3207
a(S'p2_vo'
I5
tp3208
a(S'w'
I14
tp3209
a(S'no_ll'
I1
tp3210
a(S'w'
I5
tp3211
a(S'no_vo'
I6
tp3212
a(S'w'
I1440
tp3213
a(S'p2_vo'
I7
tp3214
a(S'w'
I8
tp3215
a(S'no_vo'
I0
tp3216
a(S'w'
I1459
tp3217
a(S'p2_vo'
I9
tp3218
a(S'w'
I1472
tp3219
a(S'p2_tl'
I53
tp3220
a(S'p2_ll'
I0
tp3221
a(S'p2_th'
I4
tp3222
a(S'w'
I5
tp3223
a(S'p2_vo'
I5
tp3224
a(S'w'
I14
tp3225
a(S'no_ll'
I1
tp3226
a(S'w'
I5
tp3227
a(S'no_vo'
I6
tp3228
a(S'w'
I1439
tp3229
a(S'p2_vo'
I7
tp3230
a(S'w'
I8
tp3231
a(S'no_vo'
I0
tp3232
a(S'w'
I1460
tp3233
a(S'p2_vo'
I9
tp3234
a(S'w'
I1470
tp3235
a(S'p1_tl'
I254
tp3236
a(S'p1_ll'
I0
tp3237
a(S'p1_th'
I0
tp3238
a(S'w'
I4
tp3239
a(S'p1_vo'
I7
tp3240
a(S'w'
I16
tp3241
a(S'p2_tl'
I249
tp3242
a(S'p2_ll'
I0
tp3243
a(S'p2_th'
I3
tp3244
a(S'w'
I5
tp3245
a(S'p2_vo'
I5
tp3246
a(S'w'
I29
tp3247
a(S'no_nl'
I1
tp3248
a(S'no_np'
I4
tp3249
a(S'w'
I1
tp3250
a(S'no_ll'
I1
tp3251
a(S'w'
I4
tp3252
a(S'no_vo'
I6
tp3253
a(S'w'
I1399
tp3254
a(S'p1_vo'
I8
tp3255
a(S'w'
I6
tp3256
a(S'p2_vo'
I7
tp3257
a(S'w'
I8
tp3258
a(S'no_vo'
I0
tp3259
a(S'w'
I1454
tp3260
a(S'p1_vo'
I9
tp3261
a(S'w'
I7
tp3262
a(S'p2_vo'
I9
tp3263
a(S'w'
I1468
tp3264
a(S'p2_vo'
I8
tp3265
a(S'w'
I1462
tp3266
a(S'p1_vo'
I8
tp3267
a(S'w'
I7
tp3268
a(S'p2_vo'
I7
tp3269
a(S'w'
I1459
tp3270
a(S'p1_vo'
I7
tp3271
a(S'w'
I7
tp3272
a(S'p2_vo'
I6
tp3273
a(S'w'
I1466
tp3274
a(S'p1_vo'
I6
tp3275
a(S'w'
I11
tp3276
a(S'p2_vo'
I5
tp3277
a(S'w'
I14
tp3278
a(S'w'
I1
tp3279
a(S'no_ll'
I1
tp3280
a(S'w'
I4
tp3281
a(S'no_vo'
I6
tp3282
a(S'w'
I1433
tp3283
a(S'p1_vo'
I5
tp3284
a(S'w'
I7
tp3285
a(S'p2_vo'
I4
tp3286
a(S'w'
I8
tp3287
a(S'no_vo'
I0
tp3288
a(S'w'
I1452
tp3289
a(S'p1_vo'
I4
tp3290
a(S'w'
I8
tp3291
a(S'p2_vo'
I3
tp3292
a(S'w'
I1460
tp3293
a(S'p1_vo'
I3
tp3294
a(S'w'
I7
tp3295
a(S'p2_vo'
I2
tp3296
a(S'w'
I1460
tp3297
a(S'p1_vo'
I2
tp3298
a(S'w'
I8
tp3299
a(S'p2_vo'
I1
tp3300
a(S'w'
I1460
tp3301
a(S'p1_vo'
I1
tp3302
a(S'w'
I7
tp3303
a(S'p2_vo'
I0
tp3304
a(S'w'
I1460
tp3305
a(S'p1_vo'
I0
tp3306
a(S'w'
I21
tp3307
a(S'w'
I1
tp3308
a(S'no_ll'
I1
tp3309
a(S'w'
I4
tp3310
a(S'no_vo'
I6
tp3311
a(S'w'
I1456
tp3312
a(S'no_vo'
I0
tp3313
a(S'w'
I7327
tp3314
a(S'p1_tl'
I29
tp3315
a(S'p1_ll'
I0
tp3316
a(S'p1_th'
I1
tp3317
a(S'w'
I4
tp3318
a(S'p1_vo'
I7
tp3319
a(S'w'
I10
tp3320
a(S'p2_tl'
I105
tp3321
a(S'p2_ll'
I0
tp3322
a(S'p2_th'
I4
tp3323
a(S'w'
I5
tp3324
a(S'p2_vo'
I5
tp3325
a(S'w'
I13
tp3326
a(S'w'
I1
tp3327
a(S'no_ll'
I1
tp3328
a(S'w'
I4
tp3329
a(S'no_vo'
I6
tp3330
a(S'w'
I1427
tp3331
a(S'p1_vo'
I8
tp3332
a(S'w'
I6
tp3333
a(S'p2_vo'
I7
tp3334
a(S'w'
I8
tp3335
a(S'no_vo'
I0
tp3336
a(S'w'
I1453
tp3337
a(S'p1_vo'
I9
tp3338
a(S'w'
I7
tp3339
a(S'p2_vo'
I9
tp3340
a(S'w'
I1467
tp3341
a(S'p2_vo'
I11
tp3342
a(S'w'
I9
tp3343
a(S'no_ll'
I1
tp3344
a(S'w'
I5
tp3345
a(S'no_vo'
I6
tp3346
a(S'w'
I1454
tp3347
a(S'p2_vo'
I12
tp3348
a(S'w'
I7
tp3349
a(S'no_vo'
I0
tp3350
a(S'w'
I2929
tp3351
a(S'p2_vo'
I11
tp3352
a(S'w'
I1467
tp3353
a(S'p2_vo'
I10
tp3354
a(S'w'
I1469
tp3355
a(S'p2_vo'
I9
tp3356
a(S'w'
I1466
tp3357
a(S'p2_vo'
I8
tp3358
a(S'w'
I9
tp3359
a(S'no_ll'
I1
tp3360
a(S'w'
I5
tp3361
a(S'no_vo'
I6
tp3362
a(S'w'
I1455
tp3363
a(S'p2_vo'
I7
tp3364
a(S'w'
I7
tp3365
a(S'no_vo'
I0
tp3366
a(S'w'
I1459
tp3367
a(S'p2_vo'
I6
tp3368
a(S'w'
I1461
tp3369
a(S'p1_vo'
I8
tp3370
a(S'w'
I10
tp3371
a(S'p2_ll'
I0
tp3372
a(S'w'
I5
tp3373
a(S'p2_vo'
I5
tp3374
a(S'w'
I9
tp3375
a(S'no_ll'
I1
tp3376
a(S'w'
I4
tp3377
a(S'no_vo'
I6
tp3378
a(S'w'
I1440
tp3379
a(S'p1_vo'
I7
tp3380
a(S'w'
I6
tp3381
a(S'p2_vo'
I7
tp3382
a(S'w'
I8
tp3383
a(S'no_vo'
I0
tp3384
a(S'w'
I1460
tp3385
a(S'p2_vo'
I9
tp3386
a(S'w'
I1471
tp3387
a(S'p2_tl'
I117
tp3388
a(S'p2_ll'
I0
tp3389
a(S'w'
I5
tp3390
a(S'p2_vo'
I5
tp3391
a(S'w'
I1452
tp3392
a(S'p1_vo'
I6
tp3393
a(S'w'
I6
tp3394
a(S'p2_vo'
I7
tp3395
a(S'w'
I1468
tp3396
a(S'p2_vo'
I9
tp3397
a(S'w'
I1471
tp3398
a(S'p2_tl'
I105
tp3399
a(S'w'
I1
tp3400
a(S'p2_ll'
I0
tp3401
a(S'w'
I4
tp3402
a(S'p2_vo'
I5
tp3403
a(S'w'
I9
tp3404
a(S'no_ll'
I1
tp3405
a(S'w'
I5
tp3406
a(S'no_vo'
I6
tp3407
a(S'w'
I1445
tp3408
a(S'p2_vo'
I7
tp3409
a(S'w'
I8
tp3410
a(S'no_vo'
I0
tp3411
a(S'w'
I1454
tp3412
a(S'p1_vo'
I5
tp3413
a(S'w'
I7
tp3414
a(S'p2_vo'
I9
tp3415
a(S'w'
I1468
tp3416
a(S'p2_vo'
I8
tp3417
a(S'w'
I1467
tp3418
a(S'p2_vo'
I7
tp3419
a(S'w'
I1467
tp3420
a(S'p2_vo'
I6
tp3421
a(S'w'
I1473
tp3422
a(S'p2_vo'
I5
tp3423
a(S'w'
I9
tp3424
a(S'no_ll'
I1
tp3425
a(S'w'
I5
tp3426
a(S'no_vo'
I6
tp3427
a(S'w'
I1449
tp3428
a(S'p2_vo'
I4
tp3429
a(S'w'
I8
tp3430
a(S'no_vo'
I0
tp3431
a(S'w'
I1452
tp3432
a(S'p1_vo'
I4
tp3433
a(S'w'
I8
tp3434
a(S'p2_vo'
I3
tp3435
a(S'w'
I1467
tp3436
a(S'p2_vo'
I2
tp3437
a(S'w'
I9
tp3438
a(S'no_ll'
I1
tp3439
a(S'w'
I5
tp3440
a(S'no_vo'
I6
tp3441
a(S'w'
I1454
tp3442
a(S'p2_vo'
I1
tp3443
a(S'w'
I7
tp3444
a(S'no_vo'
I0
tp3445
a(S'w'
I1460
tp3446
a(S'p2_vo'
I0
tp3447
a(S'w'
I1469
tp3448
a(S'p1_ll'
I0
tp3449
a(S'w'
I5
tp3450
a(S'p1_vo'
I7
tp3451
a(S'w'
I9
tp3452
a(S'w'
I1
tp3453
a(S'p2_ll'
I0
tp3454
a(S'w'
I4
tp3455
a(S'p2_vo'
I5
tp3456
a(S'w'
I30
tp3457
a(S'no_nl'
I0
tp3458
a(S'w'
I1
tp3459
a(S'no_ll'
I1
tp3460
a(S'w'
I4
tp3461
a(S'no_vo'
I6
tp3462
a(S'w'
I1405
tp3463
a(S'p1_vo'
I8
tp3464
a(S'w'
I6
tp3465
a(S'p2_vo'
I7
tp3466
a(S'w'
I8
tp3467
a(S'no_vo'
I0
tp3468
a(S'w'
I1454
tp3469
a(S'p1_vo'
I9
tp3470
a(S'w'
I7
tp3471
a(S'p2_vo'
I9
tp3472
a(S'w'
I1464
tp3473
a(S'p1_tl'
I254
tp3474
a(S'p1_ll'
I0
tp3475
a(S'p1_th'
I0
tp3476
a(S'w'
I5
tp3477
a(S'p1_vo'
I7
tp3478
a(S'w'
I7
tp3479
a(S'p2_vo'
I8
tp3480
a(S'w'
I14
tp3481
a(S'w'
I1
tp3482
a(S'no_ll'
I1
tp3483
a(S'w'
I4
tp3484
a(S'no_vo'
I6
tp3485
a(S'w'
I1433
tp3486
a(S'p1_vo'
I8
tp3487
a(S'w'
I7
tp3488
a(S'p2_vo'
I7
tp3489
a(S'w'
I8
tp3490
a(S'no_vo'
I0
tp3491
a(S'w'
I1452
tp3492
a(S'p1_vo'
I9
tp3493
a(S'w'
I8
tp3494
a(S'p2_vo'
I6
tp3495
a(S'w'
I1464
tp3496
a(S'p1_tl'
I226
tp3497
a(S'p1_ll'
I0
tp3498
a(S'w'
I5
tp3499
a(S'p1_vo'
I7
tp3500
a(S'w'
I10
tp3501
a(S'p2_tl'
I54
tp3502
a(S'p2_ll'
I0
tp3503
a(S'p2_th'
I2
tp3504
a(S'w'
I4
tp3505
a(S'p2_vo'
I5
tp3506
a(S'w'
I14
tp3507
a(S'w'
I1
tp3508
a(S'no_ll'
I1
tp3509
a(S'w'
I4
tp3510
a(S'no_vo'
I6
tp3511
a(S'w'
I1426
tp3512
a(S'p1_vo'
I8
tp3513
a(S'w'
I6
tp3514
a(S'p2_vo'
I7
tp3515
a(S'w'
I8
tp3516
a(S'no_vo'
I0
tp3517
a(S'w'
I1453
tp3518
a(S'p1_vo'
I9
tp3519
a(S'w'
I7
tp3520
a(S'p2_vo'
I9
tp3521
a(S'w'
I1465
tp3522
a(S'p1_tl'
I202
tp3523
a(S'p1_ll'
I0
tp3524
a(S'w'
I5
tp3525
a(S'p1_vo'
I7
tp3526
a(S'w'
I10
tp3527
a(S'p2_tl'
I105
tp3528
a(S'p2_ll'
I0
tp3529
a(S'p2_th'
I4
tp3530
a(S'w'
I4
tp3531
a(S'p2_vo'
I5
tp3532
a(S'w'
I15
tp3533
a(S'no_ll'
I1
tp3534
a(S'w'
I5
tp3535
a(S'no_vo'
I6
tp3536
a(S'w'
I1424
tp3537
a(S'p1_vo'
I8
tp3538
a(S'w'
I6
tp3539
a(S'p2_vo'
I7
tp3540
a(S'w'
I8
tp3541
a(S'no_vo'
I0
tp3542
a(S'w'
I1454
tp3543
a(S'p1_vo'
I9
tp3544
a(S'w'
I7
tp3545
a(S'p2_vo'
I9
tp3546
a(S'w'
I1464
tp3547
a(S'p1_tl'
I190
tp3548
a(S'p1_ll'
I0
tp3549
a(S'w'
I5
tp3550
a(S'p1_vo'
I7
tp3551
a(S'w'
I10
tp3552
a(S'p2_tl'
I117
tp3553
a(S'p2_ll'
I0
tp3554
a(S'w'
I4
tp3555
a(S'p2_vo'
I5
tp3556
a(S'w'
I19
tp3557
a(S'no_np'
I12
tp3558
a(S'no_ll'
I1
tp3559
a(S'w'
I5
tp3560
a(S'no_vo'
I7
tp3561
a(S'w'
I1421
tp3562
a(S'p1_vo'
I8
tp3563
a(S'w'
I6
tp3564
a(S'p2_vo'
I7
tp3565
a(S'w'
I1462
tp3566
a(S'p1_vo'
I9
tp3567
a(S'w'
I7
tp3568
a(S'p2_vo'
I9
tp3569
a(S'w'
I6
tp3570
a(S'no_vo'
I6
tp3571
a(S'w'
I1458
tp3572
a(S'p1_tl'
I202
tp3573
a(S'p1_ll'
I0
tp3574
a(S'w'
I5
tp3575
a(S'p1_vo'
I7
tp3576
a(S'w'
I7
tp3577
a(S'p2_vo'
I8
tp3578
a(S'w'
I8
tp3579
a(S'no_vo'
I0
tp3580
a(S'w'
I1444
tp3581
a(S'p1_vo'
I8
tp3582
a(S'w'
I7
tp3583
a(S'p2_vo'
I7
tp3584
a(S'w'
I1460
tp3585
a(S'p1_vo'
I9
tp3586
a(S'w'
I8
tp3587
a(S'p2_vo'
I6
tp3588
a(S'w'
I1464
tp3589
a(S'p1_tl'
I226
tp3590
a(S'p1_ll'
I0
tp3591
a(S'w'
I5
tp3592
a(S'p1_vo'
I7
tp3593
a(S'w'
I10
tp3594
a(S'p2_tl'
I93
tp3595
a(S'p2_ll'
I0
tp3596
a(S'p2_th'
I2
tp3597
a(S'w'
I4
tp3598
a(S'p2_vo'
I5
tp3599
a(S'w'
I19
tp3600
a(S'no_np'
I4
tp3601
a(S'no_ll'
I1
tp3602
a(S'w'
I5
tp3603
a(S'no_vo'
I6
tp3604
a(S'w'
I1421
tp3605
a(S'p1_vo'
I8
tp3606
a(S'w'
I6
tp3607
a(S'p2_vo'
I7
tp3608
a(S'w'
I8
tp3609
a(S'no_vo'
I0
tp3610
a(S'w'
I1453
tp3611
a(S'p1_vo'
I9
tp3612
a(S'w'
I7
tp3613
a(S'p2_vo'
I9
tp3614
a(S'w'
I1465
tp3615
a(S'p1_tl'
I254
tp3616
a(S'p1_ll'
I0
tp3617
a(S'w'
I5
tp3618
a(S'p1_vo'
I7
tp3619
a(S'w'
I10
tp3620
a(S'p2_tl'
I117
tp3621
a(S'p2_ll'
I0
tp3622
a(S'p2_th'
I4
tp3623
a(S'w'
I4
tp3624
a(S'p2_vo'
I5
tp3625
a(S'w'
I15
tp3626
a(S'no_ll'
I1
tp3627
a(S'w'
I5
tp3628
a(S'no_vo'
I6
tp3629
a(S'w'
I1424
tp3630
a(S'p1_vo'
I8
tp3631
a(S'w'
I6
tp3632
a(S'p2_vo'
I7
tp3633
a(S'w'
I8
tp3634
a(S'no_vo'
I0
tp3635
a(S'w'
I1454
tp3636
a(S'p1_vo'
I9
tp3637
a(S'w'
I7
tp3638
a(S'p2_vo'
I9
tp3639
a(S'w'
I1470
tp3640
a(S'p1_tl'
I29
tp3641
a(S'p1_ll'
I0
tp3642
a(S'p1_th'
I1
tp3643
a(S'w'
I4
tp3644
a(S'p1_vo'
I7
tp3645
a(S'w'
I10
tp3646
a(S'p2_tl'
I1
tp3647
a(S'w'
I1
tp3648
a(S'p2_ll'
I0
tp3649
a(S'p2_th'
I5
tp3650
a(S'w'
I4
tp3651
a(S'p2_vo'
I5
tp3652
a(S'w'
I14
tp3653
a(S'no_ll'
I1
tp3654
a(S'w'
I5
tp3655
a(S'no_vo'
I6
tp3656
a(S'w'
I1420
tp3657
a(S'p1_vo'
I8
tp3658
a(S'w'
I6
tp3659
a(S'p2_vo'
I7
tp3660
a(S'w'
I8
tp3661
a(S'no_vo'
I0
tp3662
a(S'w'
I1454
tp3663
a(S'p1_vo'
I9
tp3664
a(S'w'
I7
tp3665
a(S'p2_vo'
I9
tp3666
a(S'w'
I1464
tp3667
a(S'p1_tl'
I254
tp3668
a(S'p1_ll'
I0
tp3669
a(S'p1_th'
I0
tp3670
a(S'w'
I5
tp3671
a(S'p1_vo'
I7
tp3672
a(S'w'
I7
tp3673
a(S'p2_vo'
I8
tp3674
a(S'w'
I14
tp3675
a(S'w'
I1
tp3676
a(S'no_ll'
I1
tp3677
a(S'w'
I4
tp3678
a(S'no_vo'
I6
tp3679
a(S'w'
I1433
tp3680
a(S'p1_vo'
I8
tp3681
a(S'w'
I7
tp3682
a(S'p2_vo'
I7
tp3683
a(S'w'
I8
tp3684
a(S'no_vo'
I0
tp3685
a(S'w'
I1452
tp3686
a(S'p1_vo'
I9
tp3687
a(S'w'
I8
tp3688
a(S'p2_vo'
I6
tp3689
a(S'w'
I1464
tp3690
a(S'p1_tl'
I226
tp3691
a(S'p1_ll'
I0
tp3692
a(S'w'
I5
tp3693
a(S'p1_vo'
I7
tp3694
a(S'w'
I10
tp3695
a(S'p2_tl'
I129
tp3696
a(S'p2_ll'
I0
tp3697
a(S'p2_th'
I2
tp3698
a(S'w'
I4
tp3699
a(S'p2_vo'
I5
tp3700
a(S'w'
I14
tp3701
a(S'w'
I1
tp3702
a(S'no_ll'
I1
tp3703
a(S'w'
I4
tp3704
a(S'no_vo'
I6
tp3705
a(S'w'
I1426
tp3706
a(S'p1_vo'
I8
tp3707
a(S'w'
I6
tp3708
a(S'p2_vo'
I7
tp3709
a(S'w'
I8
tp3710
a(S'no_vo'
I0
tp3711
a(S'w'
I1453
tp3712
a(S'p1_vo'
I9
tp3713
a(S'w'
I7
tp3714
a(S'p2_vo'
I9
tp3715
a(S'w'
I1465
tp3716
a(S'p1_tl'
I202
tp3717
a(S'p1_ll'
I0
tp3718
a(S'w'
I5
tp3719
a(S'p1_vo'
I7
tp3720
a(S'w'
I10
tp3721
a(S'p2_tl'
I1
tp3722
a(S'p2_ll'
I0
tp3723
a(S'p2_th'
I5
tp3724
a(S'w'
I4
tp3725
a(S'p2_vo'
I5
tp3726
a(S'w'
I15
tp3727
a(S'no_ll'
I1
tp3728
a(S'w'
I5
tp3729
a(S'no_vo'
I6
tp3730
a(S'w'
I1424
tp3731
a(S'p1_vo'
I8
tp3732
a(S'w'
I6
tp3733
a(S'p2_vo'
I7
tp3734
a(S'w'
I8
tp3735
a(S'no_vo'
I0
tp3736
a(S'w'
I1454
tp3737
a(S'p1_vo'
I9
tp3738
a(S'w'
I7
tp3739
a(S'p2_vo'
I9
tp3740
a(S'w'
I1464
tp3741
a(S'p1_tl'
I190
tp3742
a(S'p1_ll'
I0
tp3743
a(S'w'
I5
tp3744
a(S'p1_vo'
I7
tp3745
a(S'w'
I10
tp3746
a(S'p2_tl'
I77
tp3747
a(S'p2_ll'
I0
tp3748
a(S'w'
I4
tp3749
a(S'p2_vo'
I5
tp3750
a(S'w'
I19
tp3751
a(S'no_np'
I12
tp3752
a(S'no_ll'
I1
tp3753
a(S'w'
I5
tp3754
a(S'no_vo'
I7
tp3755
a(S'w'
I1421
tp3756
a(S'p1_vo'
I8
tp3757
a(S'w'
I6
tp3758
a(S'p2_vo'
I7
tp3759
a(S'w'
I1462
tp3760
a(S'p1_vo'
I9
tp3761
a(S'w'
I7
tp3762
a(S'p2_vo'
I9
tp3763
a(S'w'
I6
tp3764
a(S'no_vo'
I6
tp3765
a(S'w'
I1458
tp3766
a(S'p1_tl'
I202
tp3767
a(S'p1_ll'
I0
tp3768
a(S'w'
I5
tp3769
a(S'p1_vo'
I7
tp3770
a(S'w'
I7
tp3771
a(S'p2_vo'
I8
tp3772
a(S'w'
I8
tp3773
a(S'no_vo'
I0
tp3774
a(S'w'
I1444
tp3775
a(S'p1_vo'
I8
tp3776
a(S'w'
I7
tp3777
a(S'p2_vo'
I7
tp3778
a(S'w'
I1460
tp3779
a(S'p1_vo'
I9
tp3780
a(S'w'
I8
tp3781
a(S'p2_vo'
I6
tp3782
a(S'w'
I1464
tp3783
a(S'p1_tl'
I226
tp3784
a(S'p1_ll'
I0
tp3785
a(S'w'
I5
tp3786
a(S'p1_vo'
I7
tp3787
a(S'w'
I10
tp3788
a(S'p2_tl'
I167
tp3789
a(S'p2_ll'
I0
tp3790
a(S'p2_th'
I2
tp3791
a(S'w'
I4
tp3792
a(S'p2_vo'
I5
tp3793
a(S'w'
I14
tp3794
a(S'no_np'
I4
tp3795
a(S'no_ll'
I1
tp3796
a(S'w'
I5
tp3797
a(S'no_vo'
I6
tp3798
a(S'w'
I1426
tp3799
a(S'p1_vo'
I8
tp3800
a(S'w'
I6
tp3801
a(S'p2_vo'
I7
tp3802
a(S'w'
I8
tp3803
a(S'no_vo'
I0
tp3804
a(S'w'
I1453
tp3805
a(S'p1_vo'
I9
tp3806
a(S'w'
I7
tp3807
a(S'p2_vo'
I9
tp3808
a(S'w'
I1465
tp3809
a(S'p1_tl'
I254
tp3810
a(S'p1_ll'
I0
tp3811
a(S'w'
I5
tp3812
a(S'p1_vo'
I7
tp3813
a(S'w'
I10
tp3814
a(S'p2_tl'
I77
tp3815
a(S'p2_ll'
I0
tp3816
a(S'p2_th'
I5
tp3817
a(S'w'
I4
tp3818
a(S'p2_vo'
I5
tp3819
a(S'w'
I9
tp3820
a(S'no_ll'
I1
tp3821
a(S'w'
I5
tp3822
a(S'no_vo'
I6
tp3823
a(S'w'
I1430
tp3824
a(S'p1_vo'
I8
tp3825
a(S'w'
I6
tp3826
a(S'p2_vo'
I7
tp3827
a(S'w'
I8
tp3828
a(S'no_vo'
I0
tp3829
a(S'w'
I1454
tp3830
a(S'p1_vo'
I9
tp3831
a(S'w'
I7
tp3832
a(S'p2_vo'
I9
tp3833
a(S'w'
I1480
tp3834
a(S'w'
I1
tp3835
a(S'p1_ll'
I0
tp3836
a(S'w'
I4
tp3837
a(S'p1_vo'
I7
tp3838
a(S'w'
I21
tp3839
a(S'p2_tl'
I249
tp3840
a(S'w'
I1
tp3841
a(S'p2_ll'
I0
tp3842
a(S'p2_th'
I3
tp3843
a(S'w'
I4
tp3844
a(S'p2_vo'
I5
tp3845
a(S'w'
I30
tp3846
a(S'no_nl'
I1
tp3847
a(S'no_ll'
I1
tp3848
a(S'w'
I5
tp3849
a(S'no_vo'
I6
tp3850
a(S'w'
I1382
tp3851
a(S'p1_vo'
I8
tp3852
a(S'w'
I6
tp3853
a(S'p2_vo'
I7
tp3854
a(S'w'
I8
tp3855
a(S'no_vo'
I0
tp3856
a(S'w'
I1454
tp3857
a(S'p1_vo'
I9
tp3858
a(S'w'
I7
tp3859
a(S'p2_vo'
I9
tp3860
a(S'w'
I1468
tp3861
a(S'p2_vo'
I8
tp3862
a(S'w'
I1462
tp3863
a(S'p1_vo'
I8
tp3864
a(S'w'
I7
tp3865
a(S'p2_vo'
I7
tp3866
a(S'w'
I1459
tp3867
a(S'p1_vo'
I7
tp3868
a(S'w'
I7
tp3869
a(S'p2_vo'
I6
tp3870
a(S'w'
I1466
tp3871
a(S'p1_vo'
I6
tp3872
a(S'w'
I11
tp3873
a(S'p2_vo'
I5
tp3874
a(S'w'
I15
tp3875
a(S'no_ll'
I1
tp3876
a(S'w'
I4
tp3877
a(S'no_vo'
I6
tp3878
a(S'w'
I1433
tp3879
a(S'p1_vo'
I5
tp3880
a(S'w'
I7
tp3881
a(S'p2_vo'
I4
tp3882
a(S'w'
I8
tp3883
a(S'no_vo'
I0
tp3884
a(S'w'
I1452
tp3885
a(S'p1_vo'
I4
tp3886
a(S'w'
I8
tp3887
a(S'p2_vo'
I3
tp3888
a(S'w'
I1460
tp3889
a(S'p1_vo'
I3
tp3890
a(S'w'
I7
tp3891
a(S'p2_vo'
I2
tp3892
a(S'w'
I1460
tp3893
a(S'p1_vo'
I2
tp3894
a(S'w'
I8
tp3895
a(S'p2_vo'
I1
tp3896
a(S'w'
I1460
tp3897
a(S'p1_vo'
I1
tp3898
a(S'w'
I7
tp3899
a(S'p2_vo'
I0
tp3900
a(S'w'
I1460
tp3901
a(S'p1_vo'
I0
tp3902
a(S'w'
I21
tp3903
a(S'w'
I1
tp3904
a(S'no_ll'
I1
tp3905
a(S'w'
I4
tp3906
a(S'no_vo'
I6
tp3907
a(S'w'
I1456
tp3908
a(S'no_vo'
I0
tp3909
a(S'w'
I7327
tp3910
a(S'p1_tl'
I29
tp3911
a(S'p1_ll'
I0
tp3912
a(S'p1_th'
I1
tp3913
a(S'w'
I4
tp3914
a(S'p1_vo'
I7
tp3915
a(S'w'
I10
tp3916
a(S'p2_tl'
I105
tp3917
a(S'p2_ll'
I0
tp3918
a(S'p2_th'
I4
tp3919
a(S'w'
I5
tp3920
a(S'p2_vo'
I5
tp3921
a(S'w'
I13
tp3922
a(S'w'
I1
tp3923
a(S'no_ll'
I1
tp3924
a(S'w'
I4
tp3925
a(S'no_vo'
I6
tp3926
a(S'w'
I1427
tp3927
a(S'p1_vo'
I8
tp3928
a(S'w'
I6
tp3929
a(S'p2_vo'
I7
tp3930
a(S'w'
I8
tp3931
a(S'no_vo'
I0
tp3932
a(S'w'
I1453
tp3933
a(S'p1_vo'
I9
tp3934
a(S'w'
I7
tp3935
a(S'p2_vo'
I9
tp3936
a(S'w'
I1467
tp3937
a(S'p2_vo'
I11
tp3938
a(S'w'
I9
tp3939
a(S'no_ll'
I1
tp3940
a(S'w'
I5
tp3941
a(S'no_vo'
I6
tp3942
a(S'w'
I1454
tp3943
a(S'p2_vo'
I12
tp3944
a(S'w'
I7
tp3945
a(S'no_vo'
I0
tp3946
a(S'w'
I2929
tp3947
a(S'p2_vo'
I11
tp3948
a(S'w'
I1467
tp3949
a(S'p2_vo'
I10
tp3950
a(S'w'
I1469
tp3951
a(S'p2_vo'
I9
tp3952
a(S'w'
I1466
tp3953
a(S'p2_vo'
I8
tp3954
a(S'w'
I9
tp3955
a(S'no_ll'
I1
tp3956
a(S'w'
I5
tp3957
a(S'no_vo'
I6
tp3958
a(S'w'
I1455
tp3959
a(S'p2_vo'
I7
tp3960
a(S'w'
I7
tp3961
a(S'no_vo'
I0
tp3962
a(S'w'
I1459
tp3963
a(S'p2_vo'
I6
tp3964
a(S'w'
I1461
tp3965
a(S'p1_vo'
I8
tp3966
a(S'w'
I10
tp3967
a(S'p2_ll'
I0
tp3968
a(S'w'
I5
tp3969
a(S'p2_vo'
I5
tp3970
a(S'w'
I9
tp3971
a(S'no_ll'
I1
tp3972
a(S'w'
I4
tp3973
a(S'no_vo'
I6
tp3974
a(S'w'
I1440
tp3975
a(S'p1_vo'
I7
tp3976
a(S'w'
I6
tp3977
a(S'p2_vo'
I7
tp3978
a(S'w'
I8
tp3979
a(S'no_vo'
I0
tp3980
a(S'w'
I1460
tp3981
a(S'p2_vo'
I9
tp3982
a(S'w'
I1471
tp3983
a(S'p2_tl'
I117
tp3984
a(S'p2_ll'
I0
tp3985
a(S'w'
I5
tp3986
a(S'p2_vo'
I5
tp3987
a(S'w'
I1452
tp3988
a(S'p1_vo'
I6
tp3989
a(S'w'
I6
tp3990
a(S'p2_vo'
I7
tp3991
a(S'w'
I1468
tp3992
a(S'p2_vo'
I9
tp3993
a(S'w'
I1471
tp3994
a(S'p2_tl'
I105
tp3995
a(S'w'
I1
tp3996
a(S'p2_ll'
I0
tp3997
a(S'w'
I4
tp3998
a(S'p2_vo'
I5
tp3999
a(S'w'
I9
tp4000
a(S'no_ll'
I1
tp4001
a(S'w'
I5
tp4002
a(S'no_vo'
I6
tp4003
a(S'w'
I1445
tp4004
a(S'p2_vo'
I7
tp4005
a(S'w'
I8
tp4006
a(S'no_vo'
I0
tp4007
a(S'w'
I1454
tp4008
a(S'p1_vo'
I5
tp4009
a(S'w'
I7
tp4010
a(S'p2_vo'
I9
tp4011
a(S'w'
I1468
tp4012
a(S'p2_vo'
I8
tp4013
a(S'w'
I1467
tp4014
a(S'p2_vo'
I7
tp4015
a(S'w'
I1467
tp4016
a(S'p2_vo'
I6
tp4017
a(S'w'
I1473
tp4018
a(S'p2_vo'
I5
tp4019
a(S'w'
I9
tp4020
a(S'no_ll'
I1
tp4021
a(S'w'
I5
tp4022
a(S'no_vo'
I6
tp4023
a(S'w'
I1449
tp4024
a(S'p2_vo'
I4
tp4025
a(S'w'
I8
tp4026
a(S'no_vo'
I0
tp4027
a(S'w'
I1452
tp4028
a(S'p1_vo'
I4
tp4029
a(S'w'
I8
tp4030
a(S'p2_vo'
I3
tp4031
a(S'w'
I1467
tp4032
a(S'p2_vo'
I2
tp4033
a(S'w'
I9
tp4034
a(S'no_ll'
I1
tp4035
a(S'w'
I5
tp4036
a(S'no_vo'
I6
tp4037
a(S'w'
I1454
tp4038
a(S'p2_vo'
I1
tp4039
a(S'w'
I7
tp4040
a(S'no_vo'
I0
tp4041
a(S'w'
I1460
tp4042
a(S'p2_vo'
I0
tp4043
a(S'w'
I1469
tp4044
a(S'p1_ll'
I0
tp4045
a(S'w'
I5
tp4046
a(S'p1_vo'
I7
tp4047
a(S'w'
I10
tp4048
a(S'p2_ll'
I0
tp4049
a(S'w'
I4
tp4050
a(S'p2_vo'
I5
tp4051
a(S'w'
I30
tp4052
a(S'no_nl'
I0
tp4053
a(S'w'
I1
tp4054
a(S'no_ll'
I1
tp4055
a(S'w'
I4
tp4056
a(S'no_vo'
I6
tp4057
a(S'w'
I1405
tp4058
a(S'p1_vo'
I8
tp4059
a(S'w'
I6
tp4060
a(S'p2_vo'
I7
tp4061
a(S'w'
I8
tp4062
a(S'no_vo'
I0
tp4063
a(S'w'
I1454
tp4064
a(S'p1_vo'
I9
tp4065
a(S'w'
I7
tp4066
a(S'p2_vo'
I9
tp4067
a(S'w'
I1464
tp4068
a(S'p1_tl'
I254
tp4069
a(S'p1_ll'
I0
tp4070
a(S'p1_th'
I0
tp4071
a(S'w'
I5
tp4072
a(S'p1_vo'
I7
tp4073
a(S'w'
I7
tp4074
a(S'p2_vo'
I8
tp4075
a(S'w'
I14
tp4076
a(S'w'
I1
tp4077
a(S'no_ll'
I1
tp4078
a(S'w'
I4
tp4079
a(S'no_vo'
I6
tp4080
a(S'w'
I1433
tp4081
a(S'p1_vo'
I8
tp4082
a(S'w'
I7
tp4083
a(S'p2_vo'
I7
tp4084
a(S'w'
I8
tp4085
a(S'no_vo'
I0
tp4086
a(S'w'
I1452
tp4087
a(S'p1_vo'
I9
tp4088
a(S'w'
I8
tp4089
a(S'p2_vo'
I6
tp4090
a(S'w'
I1464
tp4091
a(S'p1_tl'
I226
tp4092
a(S'p1_ll'
I0
tp4093
a(S'w'
I5
tp4094
a(S'p1_vo'
I7
tp4095
a(S'w'
I9
tp4096
a(S'p2_tl'
I54
tp4097
a(S'w'
I1
tp4098
a(S'p2_ll'
I0
tp4099
a(S'p2_th'
I2
tp4100
a(S'w'
I4
tp4101
a(S'p2_vo'
I5
tp4102
a(S'w'
I14
tp4103
a(S'w'
I1
tp4104
a(S'no_ll'
I1
tp4105
a(S'w'
I4
tp4106
a(S'no_vo'
I6
tp4107
a(S'w'
I1426
tp4108
a(S'p1_vo'
I8
tp4109
a(S'w'
I6
tp4110
a(S'p2_vo'
I7
tp4111
a(S'w'
I8
tp4112
a(S'no_vo'
I0
tp4113
a(S'w'
I1453
tp4114
a(S'p1_vo'
I9
tp4115
a(S'w'
I7
tp4116
a(S'p2_vo'
I9
tp4117
a(S'w'
I1465
tp4118
a(S'p1_tl'
I202
tp4119
a(S'p1_ll'
I0
tp4120
a(S'w'
I5
tp4121
a(S'p1_vo'
I7
tp4122
a(S'w'
I10
tp4123
a(S'p2_tl'
I105
tp4124
a(S'p2_ll'
I0
tp4125
a(S'p2_th'
I4
tp4126
a(S'w'
I4
tp4127
a(S'p2_vo'
I5
tp4128
a(S'w'
I15
tp4129
a(S'no_ll'
I1
tp4130
a(S'w'
I5
tp4131
a(S'no_vo'
I6
tp4132
a(S'w'
I1424
tp4133
a(S'p1_vo'
I8
tp4134
a(S'w'
I6
tp4135
a(S'p2_vo'
I7
tp4136
a(S'w'
I8
tp4137
a(S'no_vo'
I0
tp4138
a(S'w'
I1454
tp4139
a(S'p1_vo'
I9
tp4140
a(S'w'
I7
tp4141
a(S'p2_vo'
I9
tp4142
a(S'w'
I1464
tp4143
a(S'p1_tl'
I190
tp4144
a(S'p1_ll'
I0
tp4145
a(S'w'
I5
tp4146
a(S'p1_vo'
I7
tp4147
a(S'w'
I10
tp4148
a(S'p2_tl'
I117
tp4149
a(S'p2_ll'
I0
tp4150
a(S'w'
I4
tp4151
a(S'p2_vo'
I5
tp4152
a(S'w'
I19
tp4153
a(S'no_np'
I12
tp4154
a(S'no_ll'
I1
tp4155
a(S'w'
I5
tp4156
a(S'no_vo'
I7
tp4157
a(S'w'
I1421
tp4158
a(S'p1_vo'
I8
tp4159
a(S'w'
I6
tp4160
a(S'p2_vo'
I7
tp4161
a(S'w'
I1462
tp4162
a(S'p1_vo'
I9
tp4163
a(S'w'
I7
tp4164
a(S'p2_vo'
I9
tp4165
a(S'w'
I6
tp4166
a(S'no_vo'
I6
tp4167
a(S'w'
I1458
tp4168
a(S'p1_tl'
I202
tp4169
a(S'p1_ll'
I0
tp4170
a(S'w'
I5
tp4171
a(S'p1_vo'
I7
tp4172
a(S'w'
I7
tp4173
a(S'p2_vo'
I8
tp4174
a(S'w'
I8
tp4175
a(S'no_vo'
I0
tp4176
a(S'w'
I1444
tp4177
a(S'p1_vo'
I8
tp4178
a(S'w'
I7
tp4179
a(S'p2_vo'
I7
tp4180
a(S'w'
I1460
tp4181
a(S'p1_vo'
I9
tp4182
a(S'w'
I8
tp4183
a(S'p2_vo'
I6
tp4184
a(S'w'
I1464
tp4185
a(S'p1_tl'
I226
tp4186
a(S'p1_ll'
I0
tp4187
a(S'w'
I5
tp4188
a(S'p1_vo'
I7
tp4189
a(S'w'
I9
tp4190
a(S'p2_tl'
I93
tp4191
a(S'w'
I1
tp4192
a(S'p2_ll'
I0
tp4193
a(S'p2_th'
I2
tp4194
a(S'w'
I4
tp4195
a(S'p2_vo'
I5
tp4196
a(S'w'
I19
tp4197
a(S'no_np'
I4
tp4198
a(S'no_ll'
I1
tp4199
a(S'w'
I5
tp4200
a(S'no_vo'
I6
tp4201
a(S'w'
I1421
tp4202
a(S'p1_vo'
I8
tp4203
a(S'w'
I6
tp4204
a(S'p2_vo'
I7
tp4205
a(S'w'
I8
tp4206
a(S'no_vo'
I0
tp4207
a(S'w'
I1453
tp4208
a(S'p1_vo'
I9
tp4209
a(S'w'
I7
tp4210
a(S'p2_vo'
I9
tp4211
a(S'w'
I1465
tp4212
a(S'p1_tl'
I254
tp4213
a(S'p1_ll'
I0
tp4214
a(S'w'
I5
tp4215
a(S'p1_vo'
I7
tp4216
a(S'w'
I10
tp4217
a(S'p2_tl'
I117
tp4218
a(S'p2_ll'
I0
tp4219
a(S'p2_th'
I4
tp4220
a(S'w'
I4
tp4221
a(S'p2_vo'
I5
tp4222
a(S'w'
I15
tp4223
a(S'no_ll'
I1
tp4224
a(S'w'
I5
tp4225
a(S'no_vo'
I6
tp4226
a(S'w'
I1424
tp4227
a(S'p1_vo'
I8
tp4228
a(S'w'
I6
tp4229
a(S'p2_vo'
I7
tp4230
a(S'w'
I8
tp4231
a(S'no_vo'
I0
tp4232
a(S'w'
I1454
tp4233
a(S'p1_vo'
I9
tp4234
a(S'w'
I7
tp4235
a(S'p2_vo'
I9
tp4236
a(S'w'
I1470
tp4237
a(S'p1_tl'
I29
tp4238
a(S'p1_ll'
I0
tp4239
a(S'p1_th'
I1
tp4240
a(S'w'
I4
tp4241
a(S'p1_vo'
I7
tp4242
a(S'w'
I10
tp4243
a(S'p2_tl'
I1
tp4244
a(S'w'
I1
tp4245
a(S'p2_ll'
I0
tp4246
a(S'p2_th'
I5
tp4247
a(S'w'
I4
tp4248
a(S'p2_vo'
I5
tp4249
a(S'w'
I14
tp4250
a(S'no_ll'
I1
tp4251
a(S'w'
I5
tp4252
a(S'no_vo'
I6
tp4253
a(S'w'
I1420
tp4254
a(S'p1_vo'
I8
tp4255
a(S'w'
I6
tp4256
a(S'p2_vo'
I7
tp4257
a(S'w'
I8
tp4258
a(S'no_vo'
I0
tp4259
a(S'w'
I1454
tp4260
a(S'p1_vo'
I9
tp4261
a(S'w'
I7
tp4262
a(S'p2_vo'
I9
tp4263
a(S'w'
I1464
tp4264
a(S'p1_tl'
I254
tp4265
a(S'p1_ll'
I0
tp4266
a(S'p1_th'
I0
tp4267
a(S'w'
I5
tp4268
a(S'p1_vo'
I7
tp4269
a(S'w'
I7
tp4270
a(S'p2_vo'
I8
tp4271
a(S'w'
I14
tp4272
a(S'w'
I1
tp4273
a(S'no_ll'
I1
tp4274
a(S'w'
I4
tp4275
a(S'no_vo'
I6
tp4276
a(S'w'
I1433
tp4277
a(S'p1_vo'
I8
tp4278
a(S'w'
I7
tp4279
a(S'p2_vo'
I7
tp4280
a(S'w'
I8
tp4281
a(S'no_vo'
I0
tp4282
a(S'w'
I1452
tp4283
a(S'p1_vo'
I9
tp4284
a(S'w'
I8
tp4285
a(S'p2_vo'
I6
tp4286
a(S'w'
I1464
tp4287
a(S'p1_tl'
I226
tp4288
a(S'p1_ll'
I0
tp4289
a(S'w'
I5
tp4290
a(S'p1_vo'
I7
tp4291
a(S'w'
I9
tp4292
a(S'p2_tl'
I129
tp4293
a(S'w'
I1
tp4294
a(S'p2_ll'
I0
tp4295
a(S'p2_th'
I2
tp4296
a(S'w'
I4
tp4297
a(S'p2_vo'
I5
tp4298
a(S'w'
I14
tp4299
a(S'w'
I1
tp4300
a(S'no_ll'
I1
tp4301
a(S'w'
I4
tp4302
a(S'no_vo'
I6
tp4303
a(S'w'
I1426
tp4304
a(S'p1_vo'
I8
tp4305
a(S'w'
I6
tp4306
a(S'p2_vo'
I7
tp4307
a(S'w'
I8
tp4308
a(S'no_vo'
I0
tp4309
a(S'w'
I1453
tp4310
a(S'p1_vo'
I9
tp4311
a(S'w'
I7
tp4312
a(S'p2_vo'
I9
tp4313
a(S'w'
I1465
tp4314
a(S'p1_tl'
I202
tp4315
a(S'p1_ll'
I0
tp4316
a(S'w'
I5
tp4317
a(S'p1_vo'
I7
tp4318
a(S'w'
I10
tp4319
a(S'p2_tl'
I1
tp4320
a(S'p2_ll'
I0
tp4321
a(S'p2_th'
I5
tp4322
a(S'w'
I4
tp4323
a(S'p2_vo'
I5
tp4324
a(S'w'
I15
tp4325
a(S'no_ll'
I1
tp4326
a(S'w'
I5
tp4327
a(S'no_vo'
I6
tp4328
a(S'w'
I1424
tp4329
a(S'p1_vo'
I8
tp4330
a(S'w'
I6
tp4331
a(S'p2_vo'
I7
tp4332
a(S'w'
I8
tp4333
a(S'no_vo'
I0
tp4334
a(S'w'
I1454
tp4335
a(S'p1_vo'
I9
tp4336
a(S'w'
I7
tp4337
a(S'p2_vo'
I9
tp4338
a(S'w'
I1464
tp4339
a(S'p1_tl'
I190
tp4340
a(S'p1_ll'
I0
tp4341
a(S'w'
I5
tp4342
a(S'p1_vo'
I7
tp4343
a(S'w'
I10
tp4344
a(S'p2_tl'
I77
tp4345
a(S'p2_ll'
I0
tp4346
a(S'w'
I4
tp4347
a(S'p2_vo'
I5
tp4348
a(S'w'
I19
tp4349
a(S'no_np'
I12
tp4350
a(S'no_ll'
I1
tp4351
a(S'w'
I5
tp4352
a(S'no_vo'
I7
tp4353
a(S'w'
I1421
tp4354
a(S'p1_vo'
I8
tp4355
a(S'w'
I6
tp4356
a(S'p2_vo'
I7
tp4357
a(S'w'
I1462
tp4358
a(S'p1_vo'
I9
tp4359
a(S'w'
I7
tp4360
a(S'p2_vo'
I9
tp4361
a(S'w'
I6
tp4362
a(S'no_vo'
I6
tp4363
a(S'w'
I1458
tp4364
a(S'p1_tl'
I202
tp4365
a(S'p1_ll'
I0
tp4366
a(S'w'
I5
tp4367
a(S'p1_vo'
I7
tp4368
a(S'w'
I7
tp4369
a(S'p2_vo'
I8
tp4370
a(S'w'
I8
tp4371
a(S'no_vo'
I0
tp4372
a(S'w'
I1444
tp4373
a(S'p1_vo'
I8
tp4374
a(S'w'
I7
tp4375
a(S'p2_vo'
I7
tp4376
a(S'w'
I1460
tp4377
a(S'p1_vo'
I9
tp4378
a(S'w'
I8
tp4379
a(S'p2_vo'
I6
tp4380
a(S'w'
I1464
tp4381
a(S'p1_tl'
I226
tp4382
a(S'p1_ll'
I0
tp4383
a(S'w'
I5
tp4384
a(S'p1_vo'
I7
tp4385
a(S'w'
I9
tp4386
a(S'p2_tl'
I167
tp4387
a(S'w'
I1
tp4388
a(S'p2_ll'
I0
tp4389
a(S'p2_th'
I2
tp4390
a(S'w'
I4
tp4391
a(S'p2_vo'
I5
tp4392
a(S'w'
I14
tp4393
a(S'no_np'
I4
tp4394
a(S'no_ll'
I1
tp4395
a(S'w'
I5
tp4396
a(S'no_vo'
I6
tp4397
a(S'w'
I1426
tp4398
a(S'p1_vo'
I8
tp4399
a(S'w'
I6
tp4400
a(S'p2_vo'
I7
tp4401
a(S'w'
I8
tp4402
a(S'no_vo'
I0
tp4403
a(S'w'
I1453
tp4404
a(S'p1_vo'
I9
tp4405
a(S'w'
I7
tp4406
a(S'p2_vo'
I9
tp4407
a(S'w'
I1465
tp4408
a(S'p1_tl'
I254
tp4409
a(S'p1_ll'
I0
tp4410
a(S'w'
I5
tp4411
a(S'p1_vo'
I7
tp4412
a(S'w'
I10
tp4413
a(S'p2_tl'
I77
tp4414
a(S'p2_ll'
I0
tp4415
a(S'p2_th'
I5
tp4416
a(S'w'
I4
tp4417
a(S'p2_vo'
I5
tp4418
a(S'w'
I9
tp4419
a(S'no_ll'
I1
tp4420
a(S'w'
I5
tp4421
a(S'no_vo'
I6
tp4422
a(S'w'
I1430
tp4423
a(S'p1_vo'
I8
tp4424
a(S'w'
I6
tp4425
a(S'p2_vo'
I7
tp4426
a(S'w'
I8
tp4427
a(S'no_vo'
I0
tp4428
a(S'w'
I1454
tp4429
a(S'p1_vo'
I9
tp4430
a(S'w'
I7
tp4431
a(S'p2_vo'
I9
tp4432
a(S'w'
I1480
tp4433
a(S'w'
I1
tp4434
a(S'p1_ll'
I0
tp4435
a(S'w'
I4
tp4436
a(S'p1_vo'
I7
tp4437
a(S'w'
I21
tp4438
a(S'p2_tl'
I249
tp4439
a(S'w'
I1
tp4440
a(S'p2_ll'
I0
tp4441
a(S'p2_th'
I3
tp4442
a(S'w'
I4
tp4443
a(S'p2_vo'
I5
tp4444
a(S'w'
I30
tp4445
a(S'no_nl'
I1
tp4446
a(S'no_ll'
I1
tp4447
a(S'w'
I5
tp4448
a(S'no_vo'
I6
tp4449
a(S'w'
I1382
tp4450
a(S'p1_vo'
I8
tp4451
a(S'w'
I6
tp4452
a(S'p2_vo'
I7
tp4453
a(S'w'
I8
tp4454
a(S'no_vo'
I0
tp4455
a(S'w'
I1454
tp4456
a(S'p1_vo'
I9
tp4457
a(S'w'
I7
tp4458
a(S'p2_vo'
I9
tp4459
a(S'w'
I1468
tp4460
a(S'p2_vo'
I8
tp4461
a(S'w'
I1462
tp4462
a(S'p1_vo'
I8
tp4463
a(S'w'
I7
tp4464
a(S'p2_vo'
I7
tp4465
a(S'w'
I1459
tp4466
a(S'p1_vo'
I7
tp4467
a(S'w'
I7
tp4468
a(S'p2_vo'
I6
tp4469
a(S'w'
I1466
tp4470
a(S'p1_vo'
I6
tp4471
a(S'w'
I11
tp4472
a(S'p2_vo'
I5
tp4473
a(S'w'
I15
tp4474
a(S'no_ll'
I1
tp4475
a(S'w'
I4
tp4476
a(S'no_vo'
I6
tp4477
a(S'w'
I1433
tp4478
a(S'p1_vo'
I5
tp4479
a(S'w'
I7
tp4480
a(S'p2_vo'
I4
tp4481
a(S'w'
I8
tp4482
a(S'no_vo'
I0
tp4483
a(S'w'
I1452
tp4484
a(S'p1_vo'
I4
tp4485
a(S'w'
I8
tp4486
a(S'p2_vo'
I3
tp4487
a(S'w'
I1460
tp4488
a(S'p1_vo'
I3
tp4489
a(S'w'
I7
tp4490
a(S'p2_vo'
I2
tp4491
a(S'w'
I1460
tp4492
a(S'p1_vo'
I2
tp4493
a(S'w'
I8
tp4494
a(S'p2_vo'
I1
tp4495
a(S'w'
I1460
tp4496
a(S'p1_vo'
I1
tp4497
a(S'w'
I7
tp4498
a(S'p2_vo'
I0
tp4499
a(S'w'
I1460
tp4500
a(S'p1_vo'
I0
tp4501
a(S'w'
I21
tp4502
a(S'w'
I1
tp4503
a(S'no_ll'
I1
tp4504
a(S'w'
I4
tp4505
a(S'no_vo'
I6
tp4506
a(S'w'
I1456
tp4507
a(S'no_vo'
I0
tp4508
a(S'w'
I7327
tp4509
a(S'p1_tl'
I29
tp4510
a(S'p1_ll'
I0
tp4511
a(S'p1_th'
I1
tp4512
a(S'w'
I4
tp4513
a(S'p1_vo'
I7
tp4514
a(S'w'
I10
tp4515
a(S'p2_tl'
I105
tp4516
a(S'p2_ll'
I0
tp4517
a(S'p2_th'
I4
tp4518
a(S'w'
I5
tp4519
a(S'p2_vo'
I5
tp4520
a(S'w'
I13
tp4521
a(S'w'
I1
tp4522
a(S'no_ll'
I1
tp4523
a(S'w'
I4
tp4524
a(S'no_vo'
I6
tp4525
a(S'w'
I1427
tp4526
a(S'p1_vo'
I8
tp4527
a(S'w'
I6
tp4528
a(S'p2_vo'
I7
tp4529
a(S'w'
I8
tp4530
a(S'no_vo'
I0
tp4531
a(S'w'
I1453
tp4532
a(S'p1_vo'
I9
tp4533
a(S'w'
I7
tp4534
a(S'p2_vo'
I9
tp4535
a(S'w'
I1467
tp4536
a(S'p2_vo'
I11
tp4537
a(S'w'
I9
tp4538
a(S'no_ll'
I1
tp4539
a(S'w'
I5
tp4540
a(S'no_vo'
I6
tp4541
a(S'w'
I1454
tp4542
a(S'p2_vo'
I12
tp4543
a(S'w'
I7
tp4544
a(S'no_vo'
I0
tp4545
a(S'w'
I2929
tp4546
a(S'p2_vo'
I11
tp4547
a(S'w'
I1467
tp4548
a(S'p2_vo'
I10
tp4549
a(S'w'
I1469
tp4550
a(S'p2_vo'
I9
tp4551
a(S'w'
I1466
tp4552
a(S'p2_vo'
I8
tp4553
a(S'w'
I9
tp4554
a(S'no_ll'
I1
tp4555
a(S'w'
I5
tp4556
a(S'no_vo'
I6
tp4557
a(S'w'
I1455
tp4558
a(S'p2_vo'
I7
tp4559
a(S'w'
I7
tp4560
a(S'no_vo'
I0
tp4561
a(S'w'
I1459
tp4562
a(S'p2_vo'
I6
tp4563
a(S'w'
I1461
tp4564
a(S'p1_vo'
I8
tp4565
a(S'w'
I10
tp4566
a(S'p2_ll'
I0
tp4567
a(S'w'
I5
tp4568
a(S'p2_vo'
I5
tp4569
a(S'w'
I9
tp4570
a(S'no_ll'
I1
tp4571
a(S'w'
I4
tp4572
a(S'no_vo'
I6
tp4573
a(S'w'
I1440
tp4574
a(S'p1_vo'
I7
tp4575
a(S'w'
I6
tp4576
a(S'p2_vo'
I7
tp4577
a(S'w'
I8
tp4578
a(S'no_vo'
I0
tp4579
a(S'w'
I1460
tp4580
a(S'p2_vo'
I9
tp4581
a(S'w'
I1471
tp4582
a(S'p2_tl'
I117
tp4583
a(S'p2_ll'
I0
tp4584
a(S'w'
I5
tp4585
a(S'p2_vo'
I5
tp4586
a(S'w'
I1452
tp4587
a(S'p1_vo'
I6
tp4588
a(S'w'
I6
tp4589
a(S'p2_vo'
I7
tp4590
a(S'w'
I1468
tp4591
a(S'p2_vo'
I9
tp4592
a(S'w'
I1471
tp4593
a(S'p2_tl'
I105
tp4594
a(S'w'
I1
tp4595
a(S'p2_ll'
I0
tp4596
a(S'w'
I4
tp4597
a(S'p2_vo'
I5
tp4598
a(S'w'
I9
tp4599
a(S'no_ll'
I1
tp4600
a(S'w'
I5
tp4601
a(S'no_vo'
I6
tp4602
a(S'w'
I1445
tp4603
a(S'p2_vo'
I7
tp4604
a(S'w'
I8
tp4605
a(S'no_vo'
I0
tp4606
a(S'w'
I1454
tp4607
a(S'p1_vo'
I5
tp4608
a(S'w'
I7
tp4609
a(S'p2_vo'
I9
tp4610
a(S'w'
I1468
tp4611
a(S'p2_vo'
I8
tp4612
a(S'w'
I1467
tp4613
a(S'p2_vo'
I7
tp4614
a(S'w'
I1467
tp4615
a(S'p2_vo'
I6
tp4616
a(S'w'
I1473
tp4617
a(S'p2_vo'
I5
tp4618
a(S'w'
I9
tp4619
a(S'no_ll'
I1
tp4620
a(S'w'
I5
tp4621
a(S'no_vo'
I6
tp4622
a(S'w'
I1449
tp4623
a(S'p2_vo'
I4
tp4624
a(S'w'
I8
tp4625
a(S'no_vo'
I0
tp4626
a(S'w'
I1452
tp4627
a(S'p1_vo'
I4
tp4628
a(S'w'
I8
tp4629
a(S'p2_vo'
I3
tp4630
a(S'w'
I1467
tp4631
a(S'p2_vo'
I2
tp4632
a(S'w'
I9
tp4633
a(S'no_ll'
I1
tp4634
a(S'w'
I5
tp4635
a(S'no_vo'
I6
tp4636
a(S'w'
I1454
tp4637
a(S'p2_vo'
I1
tp4638
a(S'w'
I7
tp4639
a(S'no_vo'
I0
tp4640
a(S'w'
I1460
tp4641
a(S'p2_vo'
I0
tp4642
a(S'w'
I1469
tp4643
a(S'p1_ll'
I0
tp4644
a(S'w'
I5
tp4645
a(S'p1_vo'
I7
tp4646
a(S'w'
I9
tp4647
a(S'w'
I1
tp4648
a(S'p2_ll'
I0
tp4649
a(S'w'
I4
tp4650
a(S'p2_vo'
I5
tp4651
a(S'w'
I19
tp4652
a(S'no_nl'
I0
tp4653
a(S'no_np'
I2
tp4654
a(S'w'
I1
tp4655
a(S'no_ll'
I1
tp4656
a(S'w'
I4
tp4657
a(S'no_vo'
I6
tp4658
a(S'w'
I1416
tp4659
a(S'p1_vo'
I8
tp4660
a(S'w'
I6
tp4661
a(S'p2_vo'
I7
tp4662
a(S'w'
I8
tp4663
a(S'no_vo'
I0
tp4664
a(S'w'
I1454
tp4665
a(S'p1_vo'
I9
tp4666
a(S'w'
I7
tp4667
a(S'p2_vo'
I9
tp4668
a(S'w'
I1464
tp4669
a(S'p1_tl'
I254
tp4670
a(S'p1_ll'
I0
tp4671
a(S'p1_th'
I0
tp4672
a(S'w'
I5
tp4673
a(S'p1_vo'
I7
tp4674
a(S'w'
I7
tp4675
a(S'p2_vo'
I8
tp4676
a(S'w'
I9
tp4677
a(S'no_ll'
I1
tp4678
a(S'w'
I5
tp4679
a(S'no_vo'
I6
tp4680
a(S'w'
I1438
tp4681
a(S'p1_vo'
I8
tp4682
a(S'w'
I7
tp4683
a(S'p2_vo'
I7
tp4684
a(S'w'
I8
tp4685
a(S'no_vo'
I0
tp4686
a(S'w'
I1452
tp4687
a(S'p1_vo'
I9
tp4688
a(S'w'
I8
tp4689
a(S'p2_vo'
I6
tp4690
a(S'w'
I1464
tp4691
a(S'p1_tl'
I226
tp4692
a(S'p1_ll'
I0
tp4693
a(S'w'
I5
tp4694
a(S'p1_vo'
I7
tp4695
a(S'w'
I9
tp4696
a(S'p2_tl'
I54
tp4697
a(S'w'
I1
tp4698
a(S'p2_ll'
I0
tp4699
a(S'p2_th'
I2
tp4700
a(S'w'
I4
tp4701
a(S'p2_vo'
I5
tp4702
a(S'w'
I9
tp4703
a(S'no_ll'
I1
tp4704
a(S'w'
I5
tp4705
a(S'no_vo'
I6
tp4706
a(S'w'
I1431
tp4707
a(S'p1_vo'
I8
tp4708
a(S'w'
I6
tp4709
a(S'p2_vo'
I7
tp4710
a(S'w'
I6
tp4711
a(S'no_vo'
I5
tp4712
a(S'w'
I1455
tp4713
a(S'p1_vo'
I9
tp4714
a(S'w'
I7
tp4715
a(S'p2_vo'
I9
tp4716
a(S'w'
I6
tp4717
a(S'no_vo'
I0
tp4718
a(S'w'
I1459
tp4719
a(S'p1_tl'
I202
tp4720
a(S'p1_ll'
I0
tp4721
a(S'w'
I5
tp4722
a(S'p1_vo'
I7
tp4723
a(S'w'
I10
tp4724
a(S'p2_tl'
I105
tp4725
a(S'p2_ll'
I0
tp4726
a(S'p2_th'
I4
tp4727
a(S'w'
I4
tp4728
a(S'p2_vo'
I5
tp4729
a(S'w'
I1444
tp4730
a(S'p1_vo'
I8
tp4731
a(S'w'
I6
tp4732
a(S'p2_vo'
I7
tp4733
a(S'w'
I1462
tp4734
a(S'p1_vo'
I9
tp4735
a(S'w'
I7
tp4736
a(S'p2_vo'
I9
tp4737
a(S'w'
I1464
tp4738
a(S'p1_tl'
I190
tp4739
a(S'p1_ll'
I0
tp4740
a(S'w'
I5
tp4741
a(S'p1_vo'
I7
tp4742
a(S'w'
I10
tp4743
a(S'p2_tl'
I117
tp4744
a(S'p2_ll'
I0
tp4745
a(S'w'
I4
tp4746
a(S'p2_vo'
I5
tp4747
a(S'w'
I9
tp4748
a(S'no_np'
I7
tp4749
a(S'no_ll'
I1
tp4750
a(S'w'
I5
tp4751
a(S'no_vo'
I6
tp4752
a(S'w'
I1431
tp4753
a(S'p1_vo'
I8
tp4754
a(S'w'
I6
tp4755
a(S'p2_vo'
I7
tp4756
a(S'w'
I8
tp4757
a(S'no_vo'
I0
tp4758
a(S'w'
I1454
tp4759
a(S'p1_vo'
I9
tp4760
a(S'w'
I7
tp4761
a(S'p2_vo'
I9
tp4762
a(S'w'
I1464
tp4763
a(S'p1_tl'
I202
tp4764
a(S'p1_ll'
I0
tp4765
a(S'w'
I5
tp4766
a(S'p1_vo'
I7
tp4767
a(S'w'
I7
tp4768
a(S'p2_vo'
I8
tp4769
a(S'w'
I9
tp4770
a(S'no_np'
I2
tp4771
a(S'no_ll'
I1
tp4772
a(S'w'
I5
tp4773
a(S'no_vo'
I6
tp4774
a(S'w'
I1438
tp4775
a(S'p1_vo'
I8
tp4776
a(S'w'
I7
tp4777
a(S'p2_vo'
I7
tp4778
a(S'w'
I8
tp4779
a(S'no_vo'
I0
tp4780
a(S'w'
I1452
tp4781
a(S'p1_vo'
I9
tp4782
a(S'w'
I8
tp4783
a(S'p2_vo'
I6
tp4784
a(S'w'
I1464
tp4785
a(S'p1_tl'
I226
tp4786
a(S'p1_ll'
I0
tp4787
a(S'w'
I5
tp4788
a(S'p1_vo'
I7
tp4789
a(S'w'
I9
tp4790
a(S'p2_tl'
I93
tp4791
a(S'w'
I1
tp4792
a(S'p2_ll'
I0
tp4793
a(S'p2_th'
I2
tp4794
a(S'w'
I4
tp4795
a(S'p2_vo'
I5
tp4796
a(S'w'
I9
tp4797
a(S'no_ll'
I1
tp4798
a(S'w'
I5
tp4799
a(S'no_vo'
I6
tp4800
a(S'w'
I1431
tp4801
a(S'p1_vo'
I8
tp4802
a(S'w'
I6
tp4803
a(S'p2_vo'
I7
tp4804
a(S'w'
I6
tp4805
a(S'no_vo'
I5
tp4806
a(S'w'
I1455
tp4807
a(S'p1_vo'
I9
tp4808
a(S'w'
I7
tp4809
a(S'p2_vo'
I9
tp4810
a(S'w'
I6
tp4811
a(S'no_vo'
I0
tp4812
a(S'w'
I1459
tp4813
a(S'p1_tl'
I254
tp4814
a(S'p1_ll'
I0
tp4815
a(S'w'
I5
tp4816
a(S'p1_vo'
I7
tp4817
a(S'w'
I10
tp4818
a(S'p2_tl'
I117
tp4819
a(S'p2_ll'
I0
tp4820
a(S'p2_th'
I4
tp4821
a(S'w'
I4
tp4822
a(S'p2_vo'
I5
tp4823
a(S'w'
I1444
tp4824
a(S'p1_vo'
I8
tp4825
a(S'w'
I6
tp4826
a(S'p2_vo'
I7
tp4827
a(S'w'
I1462
tp4828
a(S'p1_vo'
I9
tp4829
a(S'w'
I7
tp4830
a(S'p2_vo'
I9
tp4831
a(S'w'
I1470
tp4832
a(S'p1_tl'
I29
tp4833
a(S'p1_ll'
I0
tp4834
a(S'p1_th'
I1
tp4835
a(S'w'
I4
tp4836
a(S'p1_vo'
I7
tp4837
a(S'w'
I10
tp4838
a(S'p2_tl'
I1
tp4839
a(S'w'
I1
tp4840
a(S'p2_ll'
I0
tp4841
a(S'p2_th'
I5
tp4842
a(S'w'
I4
tp4843
a(S'p2_vo'
I5
tp4844
a(S'w'
I9
tp4845
a(S'no_np'
I7
tp4846
a(S'no_ll'
I1
tp4847
a(S'w'
I5
tp4848
a(S'no_vo'
I6
tp4849
a(S'w'
I1425
tp4850
a(S'p1_vo'
I8
tp4851
a(S'w'
I6
tp4852
a(S'p2_vo'
I7
tp4853
a(S'w'
I8
tp4854
a(S'no_vo'
I0
tp4855
a(S'w'
I1454
tp4856
a(S'p1_vo'
I9
tp4857
a(S'w'
I7
tp4858
a(S'p2_vo'
I9
tp4859
a(S'w'
I1464
tp4860
a(S'p1_tl'
I254
tp4861
a(S'p1_ll'
I0
tp4862
a(S'p1_th'
I0
tp4863
a(S'w'
I5
tp4864
a(S'p1_vo'
I7
tp4865
a(S'w'
I7
tp4866
a(S'p2_vo'
I8
tp4867
a(S'w'
I9
tp4868
a(S'no_ll'
I1
tp4869
a(S'w'
I5
tp4870
a(S'no_vo'
I6
tp4871
a(S'w'
I1438
tp4872
a(S'p1_vo'
I8
tp4873
a(S'w'
I7
tp4874
a(S'p2_vo'
I7
tp4875
a(S'w'
I8
tp4876
a(S'no_vo'
I0
tp4877
a(S'w'
I1452
tp4878
a(S'p1_vo'
I9
tp4879
a(S'w'
I8
tp4880
a(S'p2_vo'
I6
tp4881
a(S'w'
I1464
tp4882
a(S'p1_tl'
I226
tp4883
a(S'p1_ll'
I0
tp4884
a(S'w'
I5
tp4885
a(S'p1_vo'
I7
tp4886
a(S'w'
I9
tp4887
a(S'p2_tl'
I129
tp4888
a(S'w'
I1
tp4889
a(S'p2_ll'
I0
tp4890
a(S'p2_th'
I2
tp4891
a(S'w'
I4
tp4892
a(S'p2_vo'
I5
tp4893
a(S'w'
I9
tp4894
a(S'no_np'
I9
tp4895
a(S'no_ll'
I1
tp4896
a(S'w'
I5
tp4897
a(S'no_vo'
I6
tp4898
a(S'w'
I1431
tp4899
a(S'p1_vo'
I8
tp4900
a(S'w'
I6
tp4901
a(S'p2_vo'
I7
tp4902
a(S'w'
I8
tp4903
a(S'no_vo'
I0
tp4904
a(S'w'
I1453
tp4905
a(S'p1_vo'
I9
tp4906
a(S'w'
I7
tp4907
a(S'p2_vo'
I9
tp4908
a(S'w'
I1465
tp4909
a(S'p1_tl'
I202
tp4910
a(S'p1_ll'
I0
tp4911
a(S'w'
I5
tp4912
a(S'p1_vo'
I7
tp4913
a(S'w'
I10
tp4914
a(S'p2_tl'
I1
tp4915
a(S'p2_ll'
I0
tp4916
a(S'p2_th'
I5
tp4917
a(S'w'
I4
tp4918
a(S'p2_vo'
I5
tp4919
a(S'w'
I9
tp4920
a(S'no_ll'
I1
tp4921
a(S'w'
I5
tp4922
a(S'no_vo'
I6
tp4923
a(S'w'
I1430
tp4924
a(S'p1_vo'
I8
tp4925
a(S'w'
I6
tp4926
a(S'p2_vo'
I7
tp4927
a(S'w'
I8
tp4928
a(S'no_vo'
I0
tp4929
a(S'w'
I1454
tp4930
a(S'p1_vo'
I9
tp4931
a(S'w'
I7
tp4932
a(S'p2_vo'
I9
tp4933
a(S'w'
I1464
tp4934
a(S'p1_tl'
I190
tp4935
a(S'p1_ll'
I0
tp4936
a(S'w'
I5
tp4937
a(S'p1_vo'
I7
tp4938
a(S'w'
I10
tp4939
a(S'p2_tl'
I77
tp4940
a(S'p2_ll'
I0
tp4941
a(S'w'
I4
tp4942
a(S'p2_vo'
I5
tp4943
a(S'w'
I9
tp4944
a(S'no_ll'
I1
tp4945
a(S'w'
I5
tp4946
a(S'no_vo'
I6
tp4947
a(S'w'
I1431
tp4948
a(S'p1_vo'
I8
tp4949
a(S'w'
I6
tp4950
a(S'p2_vo'
I7
tp4951
a(S'w'
I8
tp4952
a(S'no_vo'
I0
tp4953
a(S'w'
I1454
tp4954
a(S'p1_vo'
I9
tp4955
a(S'w'
I7
tp4956
a(S'p2_vo'
I9
tp4957
a(S'w'
I1464
tp4958
a(S'p1_tl'
I202
tp4959
a(S'p1_ll'
I0
tp4960
a(S'w'
I5
tp4961
a(S'p1_vo'
I7
tp4962
a(S'w'
I7
tp4963
a(S'p2_vo'
I8
tp4964
a(S'w'
I9
tp4965
a(S'no_np'
I10
tp4966
a(S'no_ll'
I1
tp4967
a(S'w'
I5
tp4968
a(S'no_vo'
I6
tp4969
a(S'w'
I1438
tp4970
a(S'p1_vo'
I8
tp4971
a(S'w'
I7
tp4972
a(S'p2_vo'
I7
tp4973
a(S'w'
I8
tp4974
a(S'no_vo'
I0
tp4975
a(S'w'
I1452
tp4976
a(S'p1_vo'
I9
tp4977
a(S'w'
I8
tp4978
a(S'p2_vo'
I6
tp4979
a(S'w'
I1464
tp4980
a(S'p1_tl'
I226
tp4981
a(S'p1_ll'
I0
tp4982
a(S'w'
I5
tp4983
a(S'p1_vo'
I7
tp4984
a(S'w'
I10
tp4985
a(S'p2_tl'
I167
tp4986
a(S'p2_ll'
I0
tp4987
a(S'p2_th'
I2
tp4988
a(S'w'
I4
tp4989
a(S'p2_vo'
I5
tp4990
a(S'w'
I9
tp4991
a(S'no_ll'
I1
tp4992
a(S'w'
I5
tp4993
a(S'no_vo'
I6
tp4994
a(S'w'
I1431
tp4995
a(S'p1_vo'
I8
tp4996
a(S'w'
I6
tp4997
a(S'p2_vo'
I7
tp4998
a(S'w'
I8
tp4999
a(S'no_vo'
I0
tp5000
a(S'w'
I1453
tp5001
a(S'p1_vo'
I9
tp5002
a(S'w'
I7
tp5003
a(S'p2_vo'
I9
tp5004
a(S'w'
I1465
tp5005
a(S'p1_tl'
I254
tp5006
a(S'p1_ll'
I0
tp5007
a(S'w'
I5
tp5008
a(S'p1_vo'
I7
tp5009
a(S'w'
I10
tp5010
a(S'p2_tl'
I77
tp5011
a(S'p2_ll'
I0
tp5012
a(S'p2_th'
I5
tp5013
a(S'w'
I4
tp5014
a(S'p2_vo'
I5
tp5015
a(S'w'
I9
tp5016
a(S'no_ll'
I1
tp5017
a(S'w'
I5
tp5018
a(S'no_vo'
I6
tp5019
a(S'w'
I1430
tp5020
a(S'p1_vo'
I8
tp5021
a(S'w'
I6
tp5022
a(S'p2_vo'
I7
tp5023
a(S'w'
I8
tp5024
a(S'no_vo'
I0
tp5025
a(S'w'
I1454
tp5026
a(S'p1_vo'
I9
tp5027
a(S'w'
I7
tp5028
a(S'p2_vo'
I9
tp5029
a(S'w'
I1479
tp5030
a.