(lp1
(S'clock'
p2
I1789772
tp3
a(S'p1_du'
I1
tp4
a(S'p1_lh'
I1
tp5
a(S'p1_cv'
I1
tp6
a(S'p1_sn'
I1
tp7
a(S'p1_tl'
I190
tp8
a(S'p1_ll'
I0
tp9
a(S'p2_lh'
I1
tp10
a(S'p2_cv'
I1
tp11
a(S'p2_sn'
I1
tp12
a(S'p2_tl'
I190
tp13
a(S'p2_ll'
I0
tp14
a(S'tr_lh'
I1
tp15
a(S'tr_lr'
I127
tp16
a(S'tr_tl'
I171
tp17
a(S'tr_ll'
I0
tp18
a(S'tr_th'
I1
tp19
a(S'no_lh'
I1
tp20
a(S'no_cv'
I1
tp21
a(S'no_ll'
I0
tp22
a(S'ch_no'
I1
tp23
a(S'ch_tr'
I1
tp24
a(S'ch_p2'
I1
tp25
a(S'ch_p1'
I1
tp26
a(S'fc_mo'
I1
tp27
a(S'w'
I610
tp28
a(S'ch_no'
I1
tp29
a(S'ch_tr'
I1
tp30
a(S'ch_p2'
I1
tp31
a(S'ch_p1'
I1
tp32
a(S'w'
I3
tp33
a(S'w'
I25
tp34
a(S'p1_tl'
I29
tp35
a(S'w'
I1
tp36
a(S'p1_ll'
I0
tp37
a(S'p1_th'
I1
tp38
a(S'w'
I2
tp39
a(S'p1_vo'
I10
tp40
a(S'w'
I33
tp41
a(S'p2_tl'
I213
tp42
a(S'p2_ll'
I0
tp43
a(S'w'
I2
tp44
a(S'p2_vo'
I10
tp45
a(S'w'
I11
tp46
a(S'w'
I1
tp47
a(S'w'
I670
tp48
a(S'w'
I15
tp49
a(S'w'
I720
tp50
a(S'w'
I15
tp51
a(S'w'
I2
tp52
a(S'p2_vo'
I9
tp53
a(S'w'
I740
tp54
a(S'w'
I2
tp55
a(S'p1_vo'
I9
tp56
a(S'w'
I13
tp57
a(S'w'
I2
tp58
a(S'p2_vo'
I8
tp59
a(S'w'
I693
tp60
a(S'w'
I15
tp61
a(S'w'
I2
tp62
a(S'p2_vo'
I7
tp63
a(S'w'
I716
tp64
a(S'w'
I2
tp65
a(S'p1_vo'
I8
tp66
a(S'w'
I12
tp67
a(S'w'
I2
tp68
a(S'p2_vo'
I0
tp69
a(S'w'
I719
tp70
a(S'w'
I30
tp71
a(S'w'
I1
tp72
a(S'p2_ll'
I0
tp73
a(S'w'
I2
tp74
a(S'p2_vo'
I10
tp75
a(S'w'
I723
tp76
a(S'w'
I2
tp77
a(S'p1_vo'
I7
tp78
a(S'w'
I13
tp79
a(S'w'
I696
tp80
a(S'w'
I16
tp81
a(S'w'
I1
tp82
a(S'p2_vo'
I9
tp83
a(S'w'
I716
tp84
a(S'w'
I2
tp85
a(S'p1_vo'
I6
tp86
a(S'w'
I13
tp87
a(S'w'
I2
tp88
a(S'p2_vo'
I8
tp89
a(S'w'
I717
tp90
a(S'w'
I15
tp91
a(S'w'
I2
tp92
a(S'p2_vo'
I7
tp93
a(S'w'
I736
tp94
a(S'w'
I15
tp95
a(S'w'
I1
tp96
a(S'p2_vo'
I0
tp97
a(S'w'
I700
tp98
a(S'w'
I30
tp99
a(S'p2_ll'
I0
tp100
a(S'w'
I2
tp101
a(S'p2_vo'
I10
tp102
a(S'w'
I700
tp103
a(S'w'
I2
tp104
a(S'p1_vo'
I5
tp105
a(S'w'
I14
tp106
a(S'w'
I20
tp107
a(S'tr_lr'
I0
tp108
a(S'w'
I698
tp109
a(S'w'
I15
tp110
a(S'w'
I2
tp111
a(S'p2_vo'
I9
tp112
a(S'w'
I1082
tp113
a(S'w'
I15
tp114
a(S'w'
I2
tp115
a(S'p2_vo'
I8
tp116
a(S'w'
I708
tp117
a(S'w'
I16
tp118
a(S'w'
I1
tp119
a(S'p2_vo'
I7
tp120
a(S'w'
I716
tp121
a(S'w'
I2
tp122
a(S'p1_vo'
I6
tp123
a(S'w'
I12
tp124
a(S'w'
I2
tp125
a(S'p2_vo'
I0
tp126
a(S'w'
I719
tp127
a(S'w'
I30
tp128
a(S'w'
I1
tp129
a(S'p2_ll'
I0
tp130
a(S'w'
I2
tp131
a(S'p2_vo'
I10
tp132
a(S'w'
I699
tp133
a(S'w'
I2
tp134
a(S'p1_vo'
I7
tp135
a(S'w'
I14
tp136
a(S'w'
I720
tp137
a(S'w'
I15
tp138
a(S'w'
I2
tp139
a(S'p2_vo'
I9
tp140
a(S'w'
I716
tp141
a(S'w'
I2
tp142
a(S'p1_vo'
I6
tp143
a(S'w'
I14
tp144
a(S'w'
I1
tp145
a(S'p2_vo'
I8
tp146
a(S'w'
I717
tp147
a(S'w'
I2
tp148
a(S'p1_vo'
I5
tp149
a(S'w'
I13
tp150
a(S'w'
I2
tp151
a(S'p2_vo'
I7
tp152
a(S'w'
I716
tp153
a(S'w'
I1
tp154
a(S'p1_vo'
I4
tp155
a(S'w'
I13
tp156
a(S'w'
I1
tp157
a(S'p2_vo'
I0
tp158
a(S'w'
I22
tp159
a(S'tr_tl'
I58
tp160
a(S'w'
I1
tp161
a(S'tr_ll'
I0
tp162
a(S'tr_th'
I2
tp163
a(S'w'
I1
tp164
a(S'tr_lr'
I127
tp165
a(S'w'
I696
tp166
a(S'w'
I30
tp167
a(S'w'
I1
tp168
a(S'p2_ll'
I0
tp169
a(S'w'
I2
tp170
a(S'p2_vo'
I10
tp171
a(S'w'
I699
tp172
a(S'w'
I2
tp173
a(S'p1_vo'
I5
tp174
a(S'w'
I14
tp175
a(S'w'
I719
tp176
a(S'w'
I16
tp177
a(S'w'
I1
tp178
a(S'p2_vo'
I9
tp179
a(S'w'
I716
tp180
a(S'w'
I2
tp181
a(S'p1_vo'
I6
tp182
a(S'w'
I13
tp183
a(S'w'
I2
tp184
a(S'p2_vo'
I8
tp185
a(S'w'
I718
tp186
a(S'w'
I15
tp187
a(S'w'
I2
tp188
a(S'p2_vo'
I7
tp189
a(S'w'
I717
tp190
a(S'w'
I1
tp191
a(S'p1_vo'
I5
tp192
a(S'w'
I13
tp193
a(S'w'
I1
tp194
a(S'p2_vo'
I0
tp195
a(S'w'
I718
tp196
a(S'w'
I2
tp197
a(S'p1_vo'
I4
tp198
a(S'w'
I29
tp199
a(S'p2_ll'
I0
tp200
a(S'w'
I2
tp201
a(S'p2_vo'
I10
tp202
a(S'w'
I700
tp203
a(S'w'
I2
tp204
a(S'p1_vo'
I3
tp205
a(S'w'
I13
tp206
a(S'w'
I721
tp207
a(S'w'
I16
tp208
a(S'w'
I1
tp209
a(S'p2_vo'
I9
tp210
a(S'w'
I715
tp211
a(S'p1_tl'
I28
tp212
a(S'w'
I2
tp213
a(S'p1_vo'
I4
tp214
a(S'w'
I13
tp215
a(S'w'
I2
tp216
a(S'p2_vo'
I8
tp217
a(S'w'
I718
tp218
a(S'w'
I15
tp219
a(S'w'
I2
tp220
a(S'p2_vo'
I7
tp221
a(S'w'
I716
tp222
a(S'w'
I1
tp223
a(S'p1_vo'
I5
tp224
a(S'w'
I13
tp225
a(S'w'
I1
tp226
a(S'p2_vo'
I0
tp227
a(S'w'
I735
tp228
a(S'p1_tl'
I12
tp229
a(S'p1_ll'
I0
tp230
a(S'w'
I3
tp231
a(S'p1_vo'
I10
tp232
a(S'w'
I28
tp233
a(S'w'
I1
tp234
a(S'p2_ll'
I0
tp235
a(S'w'
I2
tp236
a(S'p2_vo'
I10
tp237
a(S'w'
I683
tp238
a(S'p1_tl'
I13
tp239
a(S'w'
I15
tp240
a(S'w'
I20
tp241
a(S'tr_lr'
I0
tp242
a(S'w'
I700
tp243
a(S'w'
I15
tp244
a(S'w'
I2
tp245
a(S'p2_vo'
I9
tp246
a(S'w'
I716
tp247
a(S'w'
I2
tp248
a(S'p1_vo'
I9
tp249
a(S'w'
I13
tp250
a(S'w'
I2
tp251
a(S'p2_vo'
I8
tp252
a(S'w'
I729
tp253
a(S'p1_tl'
I254
tp254
a(S'w'
I1
tp255
a(S'p1_ll'
I0
tp256
a(S'p1_th'
I0
tp257
a(S'w'
I2
tp258
a(S'p1_vo'
I10
tp259
a(S'w'
I13
tp260
a(S'w'
I2
tp261
a(S'p2_vo'
I7
tp262
a(S'w'
I703
tp263
a(S'w'
I15
tp264
a(S'w'
I1
tp265
a(S'p2_vo'
I0
tp266
a(S'w'
I719
tp267
a(S'w'
I31
tp268
a(S'p2_ll'
I0
tp269
a(S'w'
I2
tp270
a(S'p2_vo'
I10
tp271
a(S'w'
I700
tp272
a(S'w'
I2
tp273
a(S'p1_vo'
I9
tp274
a(S'w'
I13
tp275
a(S'w'
I732
tp276
a(S'p1_tl'
I240
tp277
a(S'p1_ll'
I0
tp278
a(S'w'
I2
tp279
a(S'p1_vo'
I10
tp280
a(S'w'
I13
tp281
a(S'w'
I2
tp282
a(S'p2_vo'
I9
tp283
a(S'w'
I703
tp284
a(S'w'
I16
tp285
a(S'w'
I1
tp286
a(S'p2_vo'
I8
tp287
a(S'w'
I718
tp288
a(S'w'
I16
tp289
a(S'w'
I1
tp290
a(S'p2_vo'
I7
tp291
a(S'w'
I716
tp292
a(S'w'
I2
tp293
a(S'p1_vo'
I9
tp294
a(S'w'
I13
tp295
a(S'w'
I1
tp296
a(S'p2_vo'
I0
tp297
a(S'w'
I28
tp298
a(S'tr_tl'
I171
tp299
a(S'tr_ll'
I0
tp300
a(S'tr_th'
I1
tp301
a(S'w'
I1
tp302
a(S'tr_lr'
I127
tp303
a(S'w'
I705
tp304
a(S'p1_tl'
I226
tp305
a(S'p1_ll'
I0
tp306
a(S'w'
I2
tp307
a(S'p1_vo'
I10
tp308
a(S'w'
I29
tp309
a(S'p2_ll'
I0
tp310
a(S'w'
I2
tp311
a(S'p2_vo'
I10
tp312
a(S'w'
I685
tp313
a(S'w'
I15
tp314
a(S'w'
I720
tp315
a(S'w'
I15
tp316
a(S'w'
I2
tp317
a(S'p2_vo'
I9
tp318
a(S'w'
I715
tp319
a(S'w'
I2
tp320
a(S'p1_vo'
I9
tp321
a(S'w'
I13
tp322
a(S'w'
I2
tp323
a(S'p2_vo'
I8
tp324
a(S'w'
I718
tp325
a(S'w'
I15
tp326
a(S'w'
I2
tp327
a(S'p2_vo'
I7
tp328
a(S'w'
I716
tp329
a(S'w'
I1
tp330
a(S'p1_vo'
I8
tp331
a(S'w'
I13
tp332
a(S'w'
I1
tp333
a(S'p2_vo'
I0
tp334
a(S'w'
I720
tp335
a(S'w'
I30
tp336
a(S'w'
I1
tp337
a(S'p2_ll'
I0
tp338
a(S'w'
I2
tp339
a(S'p2_vo'
I10
tp340
a(S'w'
I699
tp341
a(S'w'
I2
tp342
a(S'p1_vo'
I7
tp343
a(S'w'
I14
tp344
a(S'w'
I719
tp345
a(S'w'
I16
tp346
a(S'w'
I1
tp347
a(S'p2_vo'
I9
tp348
a(S'w'
I716
tp349
a(S'w'
I2
tp350
a(S'p1_vo'
I6
tp351
a(S'w'
I13
tp352
a(S'w'
I2
tp353
a(S'p2_vo'
I8
tp354
a(S'w'
I717
tp355
a(S'w'
I15
tp356
a(S'w'
I2
tp357
a(S'p2_vo'
I7
tp358
a(S'w'
I717
tp359
a(S'w'
I14
tp360
a(S'w'
I1
tp361
a(S'p2_vo'
I0
tp362
a(S'w'
I720
tp363
a(S'w'
I30
tp364
a(S'p2_ll'
I0
tp365
a(S'w'
I2
tp366
a(S'p2_vo'
I10
tp367
a(S'w'
I700
tp368
a(S'w'
I2
tp369
a(S'p1_vo'
I5
tp370
a(S'w'
I13
tp371
a(S'w'
I21
tp372
a(S'tr_lr'
I0
tp373
a(S'w'
I698
tp374
a(S'w'
I15
tp375
a(S'w'
I2
tp376
a(S'p2_vo'
I9
tp377
a(S'w'
I717
tp378
a(S'w'
I15
tp379
a(S'w'
I2
tp380
a(S'p2_vo'
I8
tp381
a(S'w'
I718
tp382
a(S'w'
I15
tp383
a(S'w'
I2
tp384
a(S'p2_vo'
I7
tp385
a(S'w'
I715
tp386
a(S'w'
I2
tp387
a(S'p1_vo'
I6
tp388
a(S'w'
I13
tp389
a(S'w'
I1
tp390
a(S'p2_vo'
I0
tp391
a(S'w'
I719
tp392
a(S'w'
I31
tp393
a(S'p2_ll'
I0
tp394
a(S'w'
I2
tp395
a(S'p2_vo'
I10
tp396
a(S'w'
I700
tp397
a(S'w'
I2
tp398
a(S'p1_vo'
I7
tp399
a(S'w'
I13
tp400
a(S'w'
I720
tp401
a(S'w'
I15
tp402
a(S'w'
I2
tp403
a(S'p2_vo'
I9
tp404
a(S'w'
I717
tp405
a(S'w'
I2
tp406
a(S'p1_vo'
I6
tp407
a(S'w'
I13
tp408
a(S'w'
I2
tp409
a(S'p2_vo'
I8
tp410
a(S'w'
I717
tp411
a(S'w'
I1
tp412
a(S'p1_vo'
I5
tp413
a(S'w'
I14
tp414
a(S'w'
I1
tp415
a(S'p2_vo'
I7
tp416
a(S'w'
I716
tp417
a(S'w'
I2
tp418
a(S'p1_vo'
I4
tp419
a(S'w'
I13
tp420
a(S'w'
I1
tp421
a(S'p2_vo'
I0
tp422
a(S'w'
I22
tp423
a(S'tr_tl'
I58
tp424
a(S'tr_ll'
I0
tp425
a(S'tr_th'
I2
tp426
a(S'w'
I1
tp427
a(S'tr_lr'
I127
tp428
a(S'w'
I696
tp429
a(S'w'
I31
tp430
a(S'p2_ll'
I0
tp431
a(S'w'
I2
tp432
a(S'p2_vo'
I10
tp433
a(S'w'
I700
tp434
a(S'w'
I1
tp435
a(S'p1_vo'
I5
tp436
a(S'w'
I14
tp437
a(S'w'
I720
tp438
a(S'w'
I15
tp439
a(S'w'
I2
tp440
a(S'p2_vo'
I9
tp441
a(S'w'
I715
tp442
a(S'w'
I2
tp443
a(S'p1_vo'
I6
tp444
a(S'w'
I14
tp445
a(S'w'
I1
tp446
a(S'p2_vo'
I8
tp447
a(S'w'
I718
tp448
a(S'w'
I16
tp449
a(S'w'
I1
tp450
a(S'p2_vo'
I7
tp451
a(S'w'
I717
tp452
a(S'w'
I2
tp453
a(S'p1_vo'
I5
tp454
a(S'w'
I13
tp455
a(S'w'
I1
tp456
a(S'p2_vo'
I0
tp457
a(S'w'
I718
tp458
a(S'w'
I2
tp459
a(S'p1_vo'
I4
tp460
a(S'w'
I28
tp461
a(S'w'
I1
tp462
a(S'p2_ll'
I0
tp463
a(S'w'
I2
tp464
a(S'p2_vo'
I10
tp465
a(S'w'
I700
tp466
a(S'w'
I1
tp467
a(S'p1_vo'
I3
tp468
a(S'w'
I14
tp469
a(S'w'
I721
tp470
a(S'w'
I15
tp471
a(S'w'
I2
tp472
a(S'p2_vo'
I9
tp473
a(S'w'
I714
tp474
a(S'p1_tl'
I225
tp475
a(S'w'
I2
tp476
a(S'p1_vo'
I4
tp477
a(S'w'
I13
tp478
a(S'w'
I2
tp479
a(S'p2_vo'
I8
tp480
a(S'w'
I718
tp481
a(S'w'
I16
tp482
a(S'w'
I1
tp483
a(S'p2_vo'
I7
tp484
a(S'w'
I716
tp485
a(S'w'
I2
tp486
a(S'p1_vo'
I5
tp487
a(S'w'
I13
tp488
a(S'w'
I1
tp489
a(S'p2_vo'
I0
tp490
a(S'w'
I736
tp491
a(S'p1_tl'
I200
tp492
a(S'p1_ll'
I0
tp493
a(S'w'
I2
tp494
a(S'p1_vo'
I10
tp495
a(S'w'
I29
tp496
a(S'p2_ll'
I0
tp497
a(S'w'
I2
tp498
a(S'p2_vo'
I10
tp499
a(S'w'
I682
tp500
a(S'p1_tl'
I201
tp501
a(S'w'
I16
tp502
a(S'w'
I20
tp503
a(S'tr_lr'
I0
tp504
a(S'w'
I699
tp505
a(S'w'
I16
tp506
a(S'w'
I1
tp507
a(S'p2_vo'
I9
tp508
a(S'w'
I716
tp509
a(S'w'
I2
tp510
a(S'p1_vo'
I9
tp511
a(S'w'
I14
tp512
a(S'w'
I1
tp513
a(S'p2_vo'
I8
tp514
a(S'w'
I731
tp515
a(S'p1_tl'
I190
tp516
a(S'p1_ll'
I0
tp517
a(S'w'
I2
tp518
a(S'p1_vo'
I10
tp519
a(S'w'
I14
tp520
a(S'w'
I1
tp521
a(S'p2_vo'
I7
tp522
a(S'w'
I703
tp523
a(S'w'
I14
tp524
a(S'w'
I1
tp525
a(S'p2_vo'
I0
tp526
a(S'w'
I720
tp527
a(S'w'
I30
tp528
a(S'p2_ll'
I0
tp529
a(S'w'
I2
tp530
a(S'p2_vo'
I10
tp531
a(S'w'
I701
tp532
a(S'w'
I1
tp533
a(S'p1_vo'
I9
tp534
a(S'w'
I14
tp535
a(S'w'
I732
tp536
a(S'p1_tl'
I179
tp537
a(S'p1_ll'
I0
tp538
a(S'w'
I2
tp539
a(S'p1_vo'
I10
tp540
a(S'w'
I14
tp541
a(S'w'
I2
tp542
a(S'p2_vo'
I9
tp543
a(S'w'
I702
tp544
a(S'w'
I15
tp545
a(S'w'
I2
tp546
a(S'p2_vo'
I8
tp547
a(S'w'
I718
tp548
a(S'w'
I15
tp549
a(S'w'
I2
tp550
a(S'p2_vo'
I7
tp551
a(S'w'
I716
tp552
a(S'w'
I1
tp553
a(S'p1_vo'
I9
tp554
a(S'w'
I13
tp555
a(S'w'
I1
tp556
a(S'p2_vo'
I0
tp557
a(S'w'
I28
tp558
a(S'tr_tl'
I171
tp559
a(S'tr_ll'
I0
tp560
a(S'tr_th'
I1
tp561
a(S'w'
I2
tp562
a(S'tr_lr'
I127
tp563
a(S'w'
I705
tp564
a(S'p1_tl'
I169
tp565
a(S'p1_ll'
I0
tp566
a(S'w'
I2
tp567
a(S'p1_vo'
I10
tp568
a(S'w'
I29
tp569
a(S'p2_ll'
I0
tp570
a(S'w'
I3
tp571
a(S'p2_vo'
I10
tp572
a(S'w'
I683
tp573
a(S'w'
I15
tp574
a(S'w'
I720
tp575
a(S'w'
I15
tp576
a(S'w'
I2
tp577
a(S'p2_vo'
I9
tp578
a(S'w'
I716
tp579
a(S'w'
I1
tp580
a(S'p1_vo'
I9
tp581
a(S'w'
I14
tp582
a(S'w'
I2
tp583
a(S'p2_vo'
I8
tp584
a(S'w'
I718
tp585
a(S'w'
I15
tp586
a(S'w'
I2
tp587
a(S'p2_vo'
I7
tp588
a(S'w'
I715
tp589
a(S'w'
I2
tp590
a(S'p1_vo'
I8
tp591
a(S'w'
I13
tp592
a(S'w'
I1
tp593
a(S'p2_vo'
I0
tp594
a(S'w'
I719
tp595
a(S'w'
I31
tp596
a(S'p2_ll'
I0
tp597
a(S'w'
I2
tp598
a(S'p2_vo'
I10
tp599
a(S'w'
I700
tp600
a(S'w'
I2
tp601
a(S'p1_vo'
I7
tp602
a(S'w'
I13
tp603
a(S'w'
I720
tp604
a(S'w'
I15
tp605
a(S'w'
I2
tp606
a(S'p2_vo'
I9
tp607
a(S'w'
I715
tp608
a(S'w'
I2
tp609
a(S'p1_vo'
I6
tp610
a(S'w'
I14
tp611
a(S'w'
I1
tp612
a(S'p2_vo'
I8
tp613
a(S'w'
I717
tp614
a(S'w'
I15
tp615
a(S'w'
I2
tp616
a(S'p2_vo'
I7
tp617
a(S'w'
I717
tp618
a(S'w'
I14
tp619
a(S'w'
I2
tp620
a(S'p2_vo'
I0
tp621
a(S'w'
I719
tp622
a(S'w'
I30
tp623
a(S'w'
I1
tp624
a(S'p2_ll'
I0
tp625
a(S'w'
I2
tp626
a(S'p2_vo'
I10
tp627
a(S'w'
I700
tp628
a(S'w'
I1
tp629
a(S'p1_vo'
I5
tp630
a(S'w'
I14
tp631
a(S'w'
I20
tp632
a(S'tr_lr'
I0
tp633
a(S'w'
I698
tp634
a(S'w'
I16
tp635
a(S'w'
I1
tp636
a(S'p2_vo'
I9
tp637
a(S'w'
I717
tp638
a(S'w'
I15
tp639
a(S'w'
I2
tp640
a(S'p2_vo'
I8
tp641
a(S'w'
I718
tp642
a(S'w'
I15
tp643
a(S'w'
I2
tp644
a(S'p2_vo'
I7
tp645
a(S'w'
I716
tp646
a(S'w'
I2
tp647
a(S'p1_vo'
I6
tp648
a(S'w'
I12
tp649
a(S'w'
I1
tp650
a(S'p2_vo'
I0
tp651
a(S'w'
I720
tp652
a(S'w'
I30
tp653
a(S'w'
I1
tp654
a(S'p2_ll'
I0
tp655
a(S'w'
I2
tp656
a(S'p2_vo'
I10
tp657
a(S'w'
I699
tp658
a(S'w'
I2
tp659
a(S'p1_vo'
I7
tp660
a(S'w'
I14
tp661
a(S'w'
I719
tp662
a(S'w'
I16
tp663
a(S'w'
I1
tp664
a(S'p2_vo'
I9
tp665
a(S'w'
I717
tp666
a(S'w'
I2
tp667
a(S'p1_vo'
I6
tp668
a(S'w'
I14
tp669
a(S'w'
I1
tp670
a(S'p2_vo'
I8
tp671
a(S'w'
I717
tp672
a(S'w'
I2
tp673
a(S'p1_vo'
I5
tp674
a(S'w'
I13
tp675
a(S'w'
I2
tp676
a(S'p2_vo'
I7
tp677
a(S'w'
I716
tp678
a(S'w'
I1
tp679
a(S'p1_vo'
I4
tp680
a(S'w'
I13
tp681
a(S'w'
I1
tp682
a(S'p2_vo'
I0
tp683
a(S'w'
I22
tp684
a(S'tr_tl'
I58
tp685
a(S'w'
I1
tp686
a(S'tr_ll'
I0
tp687
a(S'tr_th'
I2
tp688
a(S'w'
I1
tp689
a(S'tr_lr'
I127
tp690
a(S'w'
I696
tp691
a(S'w'
I30
tp692
a(S'p2_ll'
I0
tp693
a(S'w'
I3
tp694
a(S'p2_vo'
I10
tp695
a(S'w'
I699
tp696
a(S'w'
I2
tp697
a(S'p1_vo'
I5
tp698
a(S'w'
I14
tp699
a(S'w'
I719
tp700
a(S'w'
I15
tp701
a(S'w'
I2
tp702
a(S'p2_vo'
I9
tp703
a(S'w'
I716
tp704
a(S'w'
I2
tp705
a(S'p1_vo'
I6
tp706
a(S'w'
I13
tp707
a(S'w'
I2
tp708
a(S'p2_vo'
I8
tp709
a(S'w'
I718
tp710
a(S'w'
I15
tp711
a(S'w'
I2
tp712
a(S'p2_vo'
I7
tp713
a(S'w'
I716
tp714
a(S'w'
I2
tp715
a(S'p1_vo'
I5
tp716
a(S'w'
I13
tp717
a(S'w'
I1
tp718
a(S'p2_vo'
I0
tp719
a(S'w'
I718
tp720
a(S'w'
I2
tp721
a(S'p1_vo'
I4
tp722
a(S'w'
I29
tp723
a(S'p2_ll'
I0
tp724
a(S'w'
I2
tp725
a(S'p2_vo'
I10
tp726
a(S'w'
I700
tp727
a(S'w'
I2
tp728
a(S'p1_vo'
I3
tp729
a(S'w'
I13
tp730
a(S'w'
I721
tp731
a(S'w'
I15
tp732
a(S'w'
I2
tp733
a(S'p2_vo'
I9
tp734
a(S'w'
I714
tp735
a(S'p1_tl'
I168
tp736
a(S'w'
I2
tp737
a(S'p1_vo'
I4
tp738
a(S'w'
I14
tp739
a(S'w'
I1
tp740
a(S'p2_vo'
I8
tp741
a(S'w'
I719
tp742
a(S'w'
I15
tp743
a(S'w'
I1
tp744
a(S'p2_vo'
I7
tp745
a(S'w'
I716
tp746
a(S'w'
I2
tp747
a(S'p1_vo'
I5
tp748
a(S'w'
I13
tp749
a(S'w'
I1
tp750
a(S'p2_vo'
I0
tp751
a(S'w'
I720
tp752
a(S'w'
I31
tp753
a(S'p2_ll'
I0
tp754
a(S'w'
I2
tp755
a(S'p2_vo'
I10
tp756
a(S'w'
I700
tp757
a(S'p1_tl'
I169
tp758
a(S'w'
I2
tp759
a(S'p1_vo'
I4
tp760
a(S'w'
I13
tp761
a(S'w'
I20
tp762
a(S'tr_lr'
I0
tp763
a(S'w'
I699
tp764
a(S'w'
I1
tp765
a(S'p1_vo'
I3
tp766
a(S'w'
I14
tp767
a(S'w'
I2
tp768
a(S'p2_vo'
I9
tp769
a(S'w'
I715
tp770
a(S'w'
I2
tp771
a(S'p1_vo'
I2
tp772
a(S'w'
I14
tp773
a(S'w'
I1
tp774
a(S'p2_vo'
I8
tp775
a(S'w'
I719
tp776
a(S'w'
I16
tp777
a(S'w'
I1
tp778
a(S'p2_vo'
I7
tp779
a(S'w'
I715
tp780
a(S'p1_tl'
I170
tp781
a(S'w'
I2
tp782
a(S'p1_vo'
I3
tp783
a(S'w'
I12
tp784
a(S'w'
I2
tp785
a(S'p2_vo'
I0
tp786
a(S'w'
I719
tp787
a(S'w'
I30
tp788
a(S'w'
I1
tp789
a(S'p2_ll'
I0
tp790
a(S'w'
I2
tp791
a(S'p2_vo'
I10
tp792
a(S'w'
I700
tp793
a(S'w'
I1
tp794
a(S'p1_vo'
I4
tp795
a(S'w'
I14
tp796
a(S'w'
I721
tp797
a(S'w'
I15
tp798
a(S'w'
I2
tp799
a(S'p2_vo'
I9
tp800
a(S'w'
I715
tp801
a(S'p1_tl'
I169
tp802
a(S'w'
I2
tp803
a(S'p1_vo'
I3
tp804
a(S'w'
I14
tp805
a(S'w'
I1
tp806
a(S'p2_vo'
I8
tp807
a(S'w'
I717
tp808
a(S'w'
I2
tp809
a(S'p1_vo'
I2
tp810
a(S'w'
I13
tp811
a(S'w'
I2
tp812
a(S'p2_vo'
I7
tp813
a(S'w'
I716
tp814
a(S'w'
I2
tp815
a(S'p1_vo'
I1
tp816
a(S'w'
I12
tp817
a(S'w'
I2
tp818
a(S'p2_vo'
I0
tp819
a(S'w'
I27
tp820
a(S'tr_tl'
I171
tp821
a(S'tr_ll'
I0
tp822
a(S'tr_th'
I1
tp823
a(S'w'
I1
tp824
a(S'tr_lr'
I127
tp825
a(S'w'
I707
tp826
a(S'w'
I1
tp827
a(S'p1_ll'
I0
tp828
a(S'w'
I2
tp829
a(S'p1_vo'
I10
tp830
a(S'w'
I29
tp831
a(S'p2_ll'
I0
tp832
a(S'w'
I2
tp833
a(S'p2_vo'
I10
tp834
a(S'w'
I682
tp835
a(S'w'
I16
tp836
a(S'w'
I719
tp837
a(S'w'
I16
tp838
a(S'w'
I1
tp839
a(S'p2_vo'
I9
tp840
a(S'w'
I716
tp841
a(S'w'
I2
tp842
a(S'p1_vo'
I9
tp843
a(S'w'
I13
tp844
a(S'w'
I2
tp845
a(S'p2_vo'
I8
tp846
a(S'w'
I718
tp847
a(S'w'
I15
tp848
a(S'w'
I2
tp849
a(S'p2_vo'
I7
tp850
a(S'w'
I716
tp851
a(S'w'
I1
tp852
a(S'p1_vo'
I8
tp853
a(S'w'
I13
tp854
a(S'w'
I1
tp855
a(S'p2_vo'
I0
tp856
a(S'w'
I720
tp857
a(S'w'
I30
tp858
a(S'p2_ll'
I0
tp859
a(S'w'
I2
tp860
a(S'p2_vo'
I10
tp861
a(S'w'
I700
tp862
a(S'w'
I2
tp863
a(S'p1_vo'
I7
tp864
a(S'w'
I13
tp865
a(S'w'
I720
tp866
a(S'w'
I15
tp867
a(S'w'
I2
tp868
a(S'p2_vo'
I9
tp869
a(S'w'
I716
tp870
a(S'w'
I2
tp871
a(S'p1_vo'
I6
tp872
a(S'w'
I13
tp873
a(S'w'
I2
tp874
a(S'p2_vo'
I8
tp875
a(S'w'
I717
tp876
a(S'w'
I15
tp877
a(S'w'
I2
tp878
a(S'p2_vo'
I7
tp879
a(S'w'
I716
tp880
a(S'w'
I15
tp881
a(S'w'
I1
tp882
a(S'p2_vo'
I0
tp883
a(S'w'
I719
tp884
a(S'w'
I31
tp885
a(S'p2_ll'
I0
tp886
a(S'w'
I2
tp887
a(S'p2_vo'
I10
tp888
a(S'w'
I700
tp889
a(S'w'
I2
tp890
a(S'p1_vo'
I5
tp891
a(S'w'
I13
tp892
a(S'w'
I20
tp893
a(S'tr_lr'
I0
tp894
a(S'w'
I699
tp895
a(S'w'
I15
tp896
a(S'w'
I2
tp897
a(S'p2_vo'
I9
tp898
a(S'w'
I717
tp899
a(S'w'
I15
tp900
a(S'w'
I2
tp901
a(S'p2_vo'
I8
tp902
a(S'w'
I718
tp903
a(S'w'
I15
tp904
a(S'w'
I2
tp905
a(S'p2_vo'
I7
tp906
a(S'w'
I715
tp907
a(S'w'
I2
tp908
a(S'p1_vo'
I6
tp909
a(S'w'
I13
tp910
a(S'w'
I1
tp911
a(S'p2_vo'
I0
tp912
a(S'w'
I719
tp913
a(S'w'
I31
tp914
a(S'p2_ll'
I0
tp915
a(S'w'
I2
tp916
a(S'p2_vo'
I10
tp917
a(S'w'
I700
tp918
a(S'w'
I1
tp919
a(S'p1_vo'
I7
tp920
a(S'w'
I14
tp921
a(S'w'
I720
tp922
a(S'w'
I15
tp923
a(S'w'
I2
tp924
a(S'p2_vo'
I9
tp925
a(S'w'
I717
tp926
a(S'w'
I1
tp927
a(S'p1_vo'
I6
tp928
a(S'w'
I14
tp929
a(S'w'
I1
tp930
a(S'p2_vo'
I8
tp931
a(S'w'
I717
tp932
a(S'w'
I2
tp933
a(S'p1_vo'
I5
tp934
a(S'w'
I14
tp935
a(S'w'
I1
tp936
a(S'p2_vo'
I7
tp937
a(S'w'
I716
tp938
a(S'w'
I2
tp939
a(S'p1_vo'
I4
tp940
a(S'w'
I13
tp941
a(S'w'
I1
tp942
a(S'p2_vo'
I0
tp943
a(S'w'
I22
tp944
a(S'tr_tl'
I197
tp945
a(S'tr_ll'
I0
tp946
a(S'w'
I1
tp947
a(S'tr_lr'
I127
tp948
a(S'w'
I709
tp949
a(S'p1_tl'
I190
tp950
a(S'p1_ll'
I0
tp951
a(S'w'
I2
tp952
a(S'p1_vo'
I10
tp953
a(S'w'
I32
tp954
a(S'p2_tl'
I226
tp955
a(S'w'
I1
tp956
a(S'p2_ll'
I0
tp957
a(S'w'
I2
tp958
a(S'p2_vo'
I10
tp959
a(S'w'
I683
tp960
a(S'w'
I15
tp961
a(S'w'
I720
tp962
a(S'w'
I15
tp963
a(S'w'
I2
tp964
a(S'p2_vo'
I9
tp965
a(S'w'
I715
tp966
a(S'w'
I2
tp967
a(S'p1_vo'
I9
tp968
a(S'w'
I13
tp969
a(S'w'
I2
tp970
a(S'p2_vo'
I8
tp971
a(S'w'
I718
tp972
a(S'w'
I15
tp973
a(S'w'
I2
tp974
a(S'p2_vo'
I7
tp975
a(S'w'
I716
tp976
a(S'w'
I2
tp977
a(S'p1_vo'
I8
tp978
a(S'w'
I12
tp979
a(S'w'
I1
tp980
a(S'p2_vo'
I0
tp981
a(S'w'
I720
tp982
a(S'w'
I29
tp983
a(S'w'
I1
tp984
a(S'p2_ll'
I0
tp985
a(S'w'
I2
tp986
a(S'p2_vo'
I10
tp987
a(S'w'
I700
tp988
a(S'w'
I2
tp989
a(S'p1_vo'
I7
tp990
a(S'w'
I14
tp991
a(S'w'
I719
tp992
a(S'w'
I16
tp993
a(S'w'
I1
tp994
a(S'p2_vo'
I9
tp995
a(S'w'
I716
tp996
a(S'w'
I2
tp997
a(S'p1_vo'
I6
tp998
a(S'w'
I13
tp999
a(S'w'
I2
tp1000
a(S'p2_vo'
I8
tp1001
a(S'w'
I717
tp1002
a(S'w'
I15
tp1003
a(S'w'
I2
tp1004
a(S'p2_vo'
I7
tp1005
a(S'w'
I717
tp1006
a(S'w'
I14
tp1007
a(S'w'
I1
tp1008
a(S'p2_vo'
I0
tp1009
a(S'w'
I720
tp1010
a(S'w'
I29
tp1011
a(S'p2_ll'
I0
tp1012
a(S'w'
I2
tp1013
a(S'p2_vo'
I10
tp1014
a(S'w'
I701
tp1015
a(S'w'
I2
tp1016
a(S'p1_vo'
I5
tp1017
a(S'w'
I13
tp1018
a(S'w'
I21
tp1019
a(S'tr_lr'
I0
tp1020
a(S'w'
I698
tp1021
a(S'w'
I15
tp1022
a(S'w'
I2
tp1023
a(S'p2_vo'
I9
tp1024
a(S'w'
I717
tp1025
a(S'w'
I15
tp1026
a(S'w'
I2
tp1027
a(S'p2_vo'
I8
tp1028
a(S'w'
I718
tp1029
a(S'w'
I15
tp1030
a(S'w'
I2
tp1031
a(S'p2_vo'
I7
tp1032
a(S'w'
I715
tp1033
a(S'w'
I2
tp1034
a(S'p1_vo'
I6
tp1035
a(S'w'
I13
tp1036
a(S'w'
I1
tp1037
a(S'p2_vo'
I0
tp1038
a(S'w'
I719
tp1039
a(S'w'
I30
tp1040
a(S'p2_ll'
I0
tp1041
a(S'w'
I2
tp1042
a(S'p2_vo'
I10
tp1043
a(S'w'
I701
tp1044
a(S'w'
I2
tp1045
a(S'p1_vo'
I7
tp1046
a(S'w'
I13
tp1047
a(S'w'
I720
tp1048
a(S'w'
I15
tp1049
a(S'w'
I2
tp1050
a(S'p2_vo'
I9
tp1051
a(S'w'
I717
tp1052
a(S'w'
I2
tp1053
a(S'p1_vo'
I6
tp1054
a(S'w'
I13
tp1055
a(S'w'
I2
tp1056
a(S'p2_vo'
I8
tp1057
a(S'w'
I717
tp1058
a(S'w'
I1
tp1059
a(S'p1_vo'
I5
tp1060
a(S'w'
I14
tp1061
a(S'w'
I2
tp1062
a(S'p2_vo'
I7
tp1063
a(S'w'
I716
tp1064
a(S'w'
I1
tp1065
a(S'p1_vo'
I4
tp1066
a(S'w'
I13
tp1067
a(S'w'
I1
tp1068
a(S'p2_vo'
I0
tp1069
a(S'w'
I22
tp1070
a(S'tr_tl'
I252
tp1071
a(S'tr_ll'
I0
tp1072
a(S'w'
I2
tp1073
a(S'tr_lr'
I127
tp1074
a(S'w'
I711
tp1075
a(S'p1_tl'
I213
tp1076
a(S'p1_ll'
I0
tp1077
a(S'w'
I2
tp1078
a(S'p1_vo'
I10
tp1079
a(S'w'
I27
tp1080
a(S'p2_tl'
I254
tp1081
a(S'w'
I1
tp1082
a(S'p2_ll'
I0
tp1083
a(S'w'
I2
tp1084
a(S'p2_vo'
I10
tp1085
a(S'w'
I685
tp1086
a(S'w'
I15
tp1087
a(S'w'
I720
tp1088
a(S'w'
I15
tp1089
a(S'w'
I2
tp1090
a(S'p2_vo'
I9
tp1091
a(S'w'
I715
tp1092
a(S'w'
I2
tp1093
a(S'p1_vo'
I9
tp1094
a(S'w'
I14
tp1095
a(S'w'
I1
tp1096
a(S'p2_vo'
I8
tp1097
a(S'w'
I718
tp1098
a(S'w'
I16
tp1099
a(S'w'
I1
tp1100
a(S'p2_vo'
I7
tp1101
a(S'w'
I716
tp1102
a(S'w'
I2
tp1103
a(S'p1_vo'
I8
tp1104
a(S'w'
I12
tp1105
a(S'w'
I2
tp1106
a(S'p2_vo'
I0
tp1107
a(S'w'
I719
tp1108
a(S'w'
I25
tp1109
a(S'p2_ll'
I0
tp1110
a(S'w'
I2
tp1111
a(S'p2_vo'
I10
tp1112
a(S'w'
I706
tp1113
a(S'w'
I1
tp1114
a(S'p1_vo'
I7
tp1115
a(S'w'
I14
tp1116
a(S'w'
I720
tp1117
a(S'w'
I15
tp1118
a(S'w'
I2
tp1119
a(S'p2_vo'
I9
tp1120
a(S'w'
I715
tp1121
a(S'w'
I2
tp1122
a(S'p1_vo'
I6
tp1123
a(S'w'
I13
tp1124
a(S'w'
I2
tp1125
a(S'p2_vo'
I8
tp1126
a(S'w'
I717
tp1127
a(S'w'
I15
tp1128
a(S'w'
I2
tp1129
a(S'p2_vo'
I7
tp1130
a(S'w'
I717
tp1131
a(S'w'
I14
tp1132
a(S'w'
I1
tp1133
a(S'p2_vo'
I0
tp1134
a(S'w'
I720
tp1135
a(S'w'
I25
tp1136
a(S'p2_tl'
I213
tp1137
a(S'w'
I1
tp1138
a(S'p2_ll'
I0
tp1139
a(S'w'
I2
tp1140
a(S'p2_vo'
I10
tp1141
a(S'w'
I704
tp1142
a(S'w'
I2
tp1143
a(S'p1_vo'
I5
tp1144
a(S'w'
I14
tp1145
a(S'w'
I20
tp1146
a(S'tr_lr'
I0
tp1147
a(S'w'
I698
tp1148
a(S'w'
I15
tp1149
a(S'w'
I2
tp1150
a(S'p2_vo'
I9
tp1151
a(S'w'
I717
tp1152
a(S'w'
I15
tp1153
a(S'w'
I2
tp1154
a(S'p2_vo'
I8
tp1155
a(S'w'
I718
tp1156
a(S'w'
I15
tp1157
a(S'w'
I2
tp1158
a(S'p2_vo'
I7
tp1159
a(S'w'
I716
tp1160
a(S'w'
I1
tp1161
a(S'p1_vo'
I6
tp1162
a(S'w'
I13
tp1163
a(S'w'
I1
tp1164
a(S'p2_vo'
I0
tp1165
a(S'w'
I720
tp1166
a(S'w'
I25
tp1167
a(S'w'
I1
tp1168
a(S'p2_ll'
I0
tp1169
a(S'w'
I2
tp1170
a(S'p2_vo'
I10
tp1171
a(S'w'
I704
tp1172
a(S'w'
I2
tp1173
a(S'p1_vo'
I7
tp1174
a(S'w'
I13
tp1175
a(S'w'
I720
tp1176
a(S'w'
I15
tp1177
a(S'w'
I2
tp1178
a(S'p2_vo'
I9
tp1179
a(S'w'
I717
tp1180
a(S'w'
I2
tp1181
a(S'p1_vo'
I6
tp1182
a(S'w'
I13
tp1183
a(S'w'
I2
tp1184
a(S'p2_vo'
I8
tp1185
a(S'w'
I717
tp1186
a(S'w'
I2
tp1187
a(S'p1_vo'
I5
tp1188
a(S'w'
I13
tp1189
a(S'w'
I2
tp1190
a(S'p2_vo'
I7
tp1191
a(S'w'
I715
tp1192
a(S'w'
I2
tp1193
a(S'p1_vo'
I4
tp1194
a(S'w'
I13
tp1195
a(S'w'
I1
tp1196
a(S'p2_vo'
I0
tp1197
a(S'w'
I22
tp1198
a(S'tr_tl'
I166
tp1199
a(S'tr_ll'
I0
tp1200
a(S'tr_th'
I2
tp1201
a(S'w'
I2
tp1202
a(S'tr_lr'
I127
tp1203
a(S'w'
I695
tp1204
a(S'w'
I31
tp1205
a(S'p2_tl'
I169
tp1206
a(S'p2_ll'
I0
tp1207
a(S'w'
I3
tp1208
a(S'p2_vo'
I10
tp1209
a(S'w'
I699
tp1210
a(S'w'
I2
tp1211
a(S'p1_vo'
I5
tp1212
a(S'w'
I13
tp1213
a(S'w'
I720
tp1214
a(S'w'
I15
tp1215
a(S'w'
I2
tp1216
a(S'p2_vo'
I9
tp1217
a(S'w'
I716
tp1218
a(S'w'
I1
tp1219
a(S'p1_vo'
I6
tp1220
a(S'w'
I14
tp1221
a(S'w'
I2
tp1222
a(S'p2_vo'
I8
tp1223
a(S'w'
I718
tp1224
a(S'w'
I15
tp1225
a(S'w'
I2
tp1226
a(S'p2_vo'
I7
tp1227
a(S'w'
I716
tp1228
a(S'w'
I2
tp1229
a(S'p1_vo'
I5
tp1230
a(S'w'
I13
tp1231
a(S'w'
I1
tp1232
a(S'p2_vo'
I0
tp1233
a(S'w'
I718
tp1234
a(S'w'
I2
tp1235
a(S'p1_vo'
I4
tp1236
a(S'w'
I29
tp1237
a(S'p2_ll'
I0
tp1238
a(S'w'
I2
tp1239
a(S'p2_vo'
I10
tp1240
a(S'w'
I700
tp1241
a(S'w'
I2
tp1242
a(S'p1_vo'
I3
tp1243
a(S'w'
I13
tp1244
a(S'w'
I721
tp1245
a(S'w'
I15
tp1246
a(S'w'
I2
tp1247
a(S'p2_vo'
I9
tp1248
a(S'w'
I714
tp1249
a(S'p1_tl'
I212
tp1250
a(S'w'
I2
tp1251
a(S'p1_vo'
I4
tp1252
a(S'w'
I14
tp1253
a(S'w'
I1
tp1254
a(S'p2_vo'
I8
tp1255
a(S'w'
I718
tp1256
a(S'w'
I16
tp1257
a(S'w'
I1
tp1258
a(S'p2_vo'
I7
tp1259
a(S'w'
I716
tp1260
a(S'w'
I2
tp1261
a(S'p1_vo'
I5
tp1262
a(S'w'
I13
tp1263
a(S'w'
I1
tp1264
a(S'p2_vo'
I0
tp1265
a(S'w'
I736
tp1266
a(S'p1_tl'
I189
tp1267
a(S'p1_ll'
I0
tp1268
a(S'w'
I2
tp1269
a(S'p1_vo'
I10
tp1270
a(S'w'
I29
tp1271
a(S'p2_ll'
I0
tp1272
a(S'w'
I2
tp1273
a(S'p2_vo'
I10
tp1274
a(S'w'
I683
tp1275
a(S'p1_tl'
I190
tp1276
a(S'w'
I15
tp1277
a(S'w'
I20
tp1278
a(S'tr_lr'
I0
tp1279
a(S'w'
I700
tp1280
a(S'w'
I15
tp1281
a(S'w'
I2
tp1282
a(S'p2_vo'
I9
tp1283
a(S'w'
I715
tp1284
a(S'w'
I2
tp1285
a(S'p1_vo'
I9
tp1286
a(S'w'
I14
tp1287
a(S'w'
I1
tp1288
a(S'p2_vo'
I8
tp1289
a(S'w'
I718
tp1290
a(S'w'
I15
tp1291
a(S'w'
I2
tp1292
a(S'p2_vo'
I7
tp1293
a(S'w'
I716
tp1294
a(S'w'
I2
tp1295
a(S'p1_vo'
I8
tp1296
a(S'w'
I12
tp1297
a(S'w'
I2
tp1298
a(S'p2_vo'
I0
tp1299
a(S'w'
I719
tp1300
a(S'w'
I30
tp1301
a(S'w'
I1
tp1302
a(S'p2_ll'
I0
tp1303
a(S'w'
I2
tp1304
a(S'p2_vo'
I10
tp1305
a(S'w'
I699
tp1306
a(S'w'
I2
tp1307
a(S'p1_vo'
I7
tp1308
a(S'w'
I14
tp1309
a(S'w'
I720
tp1310
a(S'w'
I15
tp1311
a(S'w'
I1
tp1312
a(S'p2_vo'
I9
tp1313
a(S'w'
I716
tp1314
a(S'w'
I2
tp1315
a(S'p1_vo'
I6
tp1316
a(S'w'
I13
tp1317
a(S'w'
I2
tp1318
a(S'p2_vo'
I8
tp1319
a(S'w'
I717
tp1320
a(S'w'
I15
tp1321
a(S'w'
I2
tp1322
a(S'p2_vo'
I7
tp1323
a(S'w'
I717
tp1324
a(S'w'
I14
tp1325
a(S'w'
I2
tp1326
a(S'p2_vo'
I0
tp1327
a(S'w'
I22
tp1328
a(S'tr_tl'
I58
tp1329
a(S'tr_ll'
I0
tp1330
a(S'w'
I1
tp1331
a(S'tr_lr'
I127
tp1332
a(S'w'
I710
tp1333
a(S'p1_tl'
I226
tp1334
a(S'w'
I1
tp1335
a(S'p1_ll'
I0
tp1336
a(S'w'
I2
tp1337
a(S'p1_vo'
I10
tp1338
a(S'w'
I27
tp1339
a(S'p2_tl'
I29
tp1340
a(S'p2_ll'
I0
tp1341
a(S'p2_th'
I1
tp1342
a(S'w'
I2
tp1343
a(S'p2_vo'
I10
tp1344
a(S'w'
I686
tp1345
a(S'w'
I16
tp1346
a(S'w'
I719
tp1347
a(S'w'
I16
tp1348
a(S'w'
I1
tp1349
a(S'p2_vo'
I9
tp1350
a(S'w'
I716
tp1351
a(S'w'
I2
tp1352
a(S'p1_vo'
I9
tp1353
a(S'w'
I13
tp1354
a(S'w'
I2
tp1355
a(S'p2_vo'
I8
tp1356
a(S'w'
I718
tp1357
a(S'w'
I15
tp1358
a(S'w'
I2
tp1359
a(S'p2_vo'
I7
tp1360
a(S'w'
I715
tp1361
a(S'w'
I2
tp1362
a(S'p1_vo'
I8
tp1363
a(S'w'
I13
tp1364
a(S'w'
I1
tp1365
a(S'p2_vo'
I0
tp1366
a(S'w'
I719
tp1367
a(S'w'
I25
tp1368
a(S'p2_ll'
I0
tp1369
a(S'w'
I3
tp1370
a(S'p2_vo'
I10
tp1371
a(S'w'
I705
tp1372
a(S'w'
I2
tp1373
a(S'p1_vo'
I7
tp1374
a(S'w'
I13
tp1375
a(S'w'
I720
tp1376
a(S'w'
I15
tp1377
a(S'w'
I2
tp1378
a(S'p2_vo'
I9
tp1379
a(S'w'
I716
tp1380
a(S'w'
I1
tp1381
a(S'p1_vo'
I6
tp1382
a(S'w'
I14
tp1383
a(S'w'
I2
tp1384
a(S'p2_vo'
I8
tp1385
a(S'w'
I716
tp1386
a(S'w'
I16
tp1387
a(S'w'
I1
tp1388
a(S'p2_vo'
I7
tp1389
a(S'w'
I717
tp1390
a(S'w'
I15
tp1391
a(S'w'
I1
tp1392
a(S'p2_vo'
I0
tp1393
a(S'w'
I720
tp1394
a(S'w'
I24
tp1395
a(S'p2_tl'
I226
tp1396
a(S'p2_ll'
I0
tp1397
a(S'p2_th'
I0
tp1398
a(S'w'
I3
tp1399
a(S'p2_vo'
I10
tp1400
a(S'w'
I705
tp1401
a(S'w'
I2
tp1402
a(S'p1_vo'
I5
tp1403
a(S'w'
I13
tp1404
a(S'w'
I20
tp1405
a(S'tr_lr'
I0
tp1406
a(S'w'
I699
tp1407
a(S'w'
I15
tp1408
a(S'w'
I2
tp1409
a(S'p2_vo'
I9
tp1410
a(S'w'
I717
tp1411
a(S'w'
I15
tp1412
a(S'w'
I2
tp1413
a(S'p2_vo'
I8
tp1414
a(S'w'
I718
tp1415
a(S'w'
I15
tp1416
a(S'w'
I2
tp1417
a(S'p2_vo'
I7
tp1418
a(S'w'
I715
tp1419
a(S'w'
I2
tp1420
a(S'p1_vo'
I6
tp1421
a(S'w'
I13
tp1422
a(S'w'
I1
tp1423
a(S'p2_vo'
I0
tp1424
a(S'w'
I719
tp1425
a(S'w'
I25
tp1426
a(S'p2_ll'
I0
tp1427
a(S'w'
I2
tp1428
a(S'p2_vo'
I10
tp1429
a(S'w'
I706
tp1430
a(S'w'
I2
tp1431
a(S'p1_vo'
I7
tp1432
a(S'w'
I13
tp1433
a(S'w'
I720
tp1434
a(S'w'
I15
tp1435
a(S'w'
I2
tp1436
a(S'p2_vo'
I9
tp1437
a(S'w'
I717
tp1438
a(S'w'
I1
tp1439
a(S'p1_vo'
I6
tp1440
a(S'w'
I14
tp1441
a(S'w'
I2
tp1442
a(S'p2_vo'
I8
tp1443
a(S'w'
I716
tp1444
a(S'w'
I2
tp1445
a(S'p1_vo'
I5
tp1446
a(S'w'
I14
tp1447
a(S'w'
I1
tp1448
a(S'p2_vo'
I7
tp1449
a(S'w'
I716
tp1450
a(S'w'
I2
tp1451
a(S'p1_vo'
I4
tp1452
a(S'w'
I12
tp1453
a(S'w'
I2
tp1454
a(S'p2_vo'
I0
tp1455
a(S'w'
I22
tp1456
a(S'tr_tl'
I249
tp1457
a(S'tr_ll'
I0
tp1458
a(S'w'
I1
tp1459
a(S'tr_lr'
I127
tp1460
a(S'w'
I696
tp1461
a(S'w'
I31
tp1462
a(S'p2_tl'
I190
tp1463
a(S'p2_ll'
I0
tp1464
a(S'w'
I2
tp1465
a(S'p2_vo'
I10
tp1466
a(S'w'
I700
tp1467
a(S'w'
I1
tp1468
a(S'p1_vo'
I5
tp1469
a(S'w'
I14
tp1470
a(S'w'
I720
tp1471
a(S'w'
I15
tp1472
a(S'w'
I2
tp1473
a(S'p2_vo'
I9
tp1474
a(S'w'
I715
tp1475
a(S'w'
I2
tp1476
a(S'p1_vo'
I6
tp1477
a(S'w'
I14
tp1478
a(S'w'
I1
tp1479
a(S'p2_vo'
I8
tp1480
a(S'w'
I718
tp1481
a(S'w'
I15
tp1482
a(S'w'
I2
tp1483
a(S'p2_vo'
I7
tp1484
a(S'w'
I717
tp1485
a(S'w'
I2
tp1486
a(S'p1_vo'
I5
tp1487
a(S'w'
I12
tp1488
a(S'w'
I2
tp1489
a(S'p2_vo'
I0
tp1490
a(S'w'
I718
tp1491
a(S'w'
I2
tp1492
a(S'p1_vo'
I4
tp1493
a(S'w'
I28
tp1494
a(S'w'
I1
tp1495
a(S'p2_ll'
I0
tp1496
a(S'w'
I2
tp1497
a(S'p2_vo'
I10
tp1498
a(S'w'
I699
tp1499
a(S'w'
I2
tp1500
a(S'p1_vo'
I3
tp1501
a(S'w'
I14
tp1502
a(S'w'
I721
tp1503
a(S'w'
I15
tp1504
a(S'w'
I2
tp1505
a(S'p2_vo'
I9
tp1506
a(S'w'
I714
tp1507
a(S'p1_tl'
I225
tp1508
a(S'w'
I2
tp1509
a(S'p1_vo'
I4
tp1510
a(S'w'
I13
tp1511
a(S'w'
I2
tp1512
a(S'p2_vo'
I8
tp1513
a(S'w'
I718
tp1514
a(S'w'
I15
tp1515
a(S'w'
I2
tp1516
a(S'p2_vo'
I7
tp1517
a(S'w'
I716
tp1518
a(S'w'
I2
tp1519
a(S'p1_vo'
I5
tp1520
a(S'w'
I13
tp1521
a(S'w'
I1
tp1522
a(S'p2_vo'
I0
tp1523
a(S'w'
I735
tp1524
a(S'p1_tl'
I212
tp1525
a(S'w'
I1
tp1526
a(S'p1_ll'
I0
tp1527
a(S'w'
I2
tp1528
a(S'p1_vo'
I10
tp1529
a(S'w'
I29
tp1530
a(S'p2_ll'
I0
tp1531
a(S'w'
I2
tp1532
a(S'p2_vo'
I10
tp1533
a(S'w'
I682
tp1534
a(S'p1_tl'
I213
tp1535
a(S'w'
I16
tp1536
a(S'w'
I20
tp1537
a(S'tr_lr'
I0
tp1538
a(S'w'
I699
tp1539
a(S'w'
I15
tp1540
a(S'w'
I2
tp1541
a(S'p2_vo'
I9
tp1542
a(S'w'
I716
tp1543
a(S'w'
I2
tp1544
a(S'p1_vo'
I9
tp1545
a(S'w'
I13
tp1546
a(S'w'
I2
tp1547
a(S'p2_vo'
I8
tp1548
a(S'w'
I718
tp1549
a(S'w'
I15
tp1550
a(S'w'
I2
tp1551
a(S'p2_vo'
I7
tp1552
a(S'w'
I716
tp1553
a(S'w'
I1
tp1554
a(S'p1_vo'
I8
tp1555
a(S'w'
I13
tp1556
a(S'w'
I1
tp1557
a(S'p2_vo'
I0
tp1558
a(S'w'
I719
tp1559
a(S'w'
I31
tp1560
a(S'p2_ll'
I0
tp1561
a(S'w'
I2
tp1562
a(S'p2_vo'
I10
tp1563
a(S'w'
I700
tp1564
a(S'w'
I2
tp1565
a(S'p1_vo'
I7
tp1566
a(S'w'
I13
tp1567
a(S'w'
I720
tp1568
a(S'w'
I15
tp1569
a(S'w'
I2
tp1570
a(S'p2_vo'
I9
tp1571
a(S'w'
I716
tp1572
a(S'w'
I1
tp1573
a(S'p1_vo'
I6
tp1574
a(S'w'
I14
tp1575
a(S'w'
I2
tp1576
a(S'p2_vo'
I8
tp1577
a(S'w'
I716
tp1578
a(S'w'
I16
tp1579
a(S'w'
I1
tp1580
a(S'p2_vo'
I7
tp1581
a(S'w'
I718
tp1582
a(S'w'
I14
tp1583
a(S'w'
I1
tp1584
a(S'p2_vo'
I0
tp1585
a(S'w'
I27
tp1586
a(S'tr_tl'
I128
tp1587
a(S'w'
I1
tp1588
a(S'tr_ll'
I0
tp1589
a(S'w'
I1
tp1590
a(S'tr_lr'
I127
tp1591
a(S'w'
I702
tp1592
a(S'p1_tl'
I254
tp1593
a(S'p1_ll'
I0
tp1594
a(S'w'
I3
tp1595
a(S'p1_vo'
I10
tp1596
a(S'w'
I27
tp1597
a(S'p2_tl'
I64
tp1598
a(S'p2_ll'
I0
tp1599
a(S'p2_th'
I1
tp1600
a(S'w'
I2
tp1601
a(S'p2_vo'
I10
tp1602
a(S'w'
I689
tp1603
a(S'w'
I15
tp1604
a(S'w'
I720
tp1605
a(S'w'
I15
tp1606
a(S'w'
I2
tp1607
a(S'p2_vo'
I9
tp1608
a(S'w'
I716
tp1609
a(S'w'
I1
tp1610
a(S'p1_vo'
I9
tp1611
a(S'w'
I14
tp1612
a(S'w'
I1
tp1613
a(S'p2_vo'
I8
tp1614
a(S'w'
I718
tp1615
a(S'w'
I16
tp1616
a(S'w'
I1
tp1617
a(S'p2_vo'
I7
tp1618
a(S'w'
I716
tp1619
a(S'w'
I2
tp1620
a(S'p1_vo'
I8
tp1621
a(S'w'
I12
tp1622
a(S'w'
I2
tp1623
a(S'p2_vo'
I0
tp1624
a(S'w'
I719
tp1625
a(S'w'
I25
tp1626
a(S'p2_ll'
I0
tp1627
a(S'w'
I2
tp1628
a(S'p2_vo'
I10
tp1629
a(S'w'
I706
tp1630
a(S'w'
I1
tp1631
a(S'p1_vo'
I7
tp1632
a(S'w'
I14
tp1633
a(S'w'
I720
tp1634
a(S'w'
I15
tp1635
a(S'w'
I2
tp1636
a(S'p2_vo'
I9
tp1637
a(S'w'
I715
tp1638
a(S'w'
I2
tp1639
a(S'p1_vo'
I6
tp1640
a(S'w'
I14
tp1641
a(S'w'
I1
tp1642
a(S'p2_vo'
I8
tp1643
a(S'w'
I717
tp1644
a(S'w'
I15
tp1645
a(S'w'
I2
tp1646
a(S'p2_vo'
I7
tp1647
a(S'w'
I717
tp1648
a(S'w'
I15
tp1649
a(S'w'
I1
tp1650
a(S'p2_vo'
I0
tp1651
a(S'w'
I731
tp1652
a(S'p1_tl'
I226
tp1653
a(S'p1_ll'
I0
tp1654
a(S'w'
I2
tp1655
a(S'p1_vo'
I10
tp1656
a(S'w'
I23
tp1657
a(S'p2_tl'
I29
tp1658
a(S'p2_ll'
I0
tp1659
a(S'w'
I2
tp1660
a(S'p2_vo'
I10
tp1661
a(S'w'
I694
tp1662
a(S'w'
I15
tp1663
a(S'w'
I20
tp1664
a(S'tr_lr'
I0
tp1665
a(S'w'
I700
tp1666
a(S'w'
I15
tp1667
a(S'w'
I1
tp1668
a(S'p2_vo'
I9
tp1669
a(S'w'
I716
tp1670
a(S'w'
I2
tp1671
a(S'p1_vo'
I9
tp1672
a(S'w'
I13
tp1673
a(S'w'
I2
tp1674
a(S'p2_vo'
I8
tp1675
a(S'w'
I718
tp1676
a(S'w'
I15
tp1677
a(S'w'
I2
tp1678
a(S'p2_vo'
I7
tp1679
a(S'w'
I716
tp1680
a(S'w'
I1
tp1681
a(S'p1_vo'
I8
tp1682
a(S'w'
I13
tp1683
a(S'w'
I1
tp1684
a(S'p2_vo'
I0
tp1685
a(S'w'
I720
tp1686
a(S'w'
I24
tp1687
a(S'w'
I1
tp1688
a(S'p2_ll'
I0
tp1689
a(S'w'
I2
tp1690
a(S'p2_vo'
I10
tp1691
a(S'w'
I705
tp1692
a(S'w'
I2
tp1693
a(S'p1_vo'
I7
tp1694
a(S'w'
I14
tp1695
a(S'w'
I719
tp1696
a(S'w'
I16
tp1697
a(S'w'
I1
tp1698
a(S'p2_vo'
I9
tp1699
a(S'w'
I716
tp1700
a(S'w'
I2
tp1701
a(S'p1_vo'
I6
tp1702
a(S'w'
I13
tp1703
a(S'w'
I2
tp1704
a(S'p2_vo'
I8
tp1705
a(S'w'
I717
tp1706
a(S'w'
I15
tp1707
a(S'w'
I2
tp1708
a(S'p2_vo'
I7
tp1709
a(S'w'
I717
tp1710
a(S'w'
I14
tp1711
a(S'w'
I2
tp1712
a(S'p2_vo'
I0
tp1713
a(S'w'
I27
tp1714
a(S'tr_ll'
I0
tp1715
a(S'w'
I1
tp1716
a(S'tr_lr'
I127
tp1717
a(S'w'
I703
tp1718
a(S'p1_tl'
I213
tp1719
a(S'w'
I1
tp1720
a(S'p1_ll'
I0
tp1721
a(S'w'
I2
tp1722
a(S'p1_vo'
I10
tp1723
a(S'w'
I23
tp1724
a(S'p2_tl'
I254
tp1725
a(S'p2_ll'
I0
tp1726
a(S'p2_th'
I0
tp1727
a(S'w'
I2
tp1728
a(S'p2_vo'
I10
tp1729
a(S'w'
I692
tp1730
a(S'w'
I15
tp1731
a(S'w'
I720
tp1732
a(S'w'
I15
tp1733
a(S'w'
I2
tp1734
a(S'p2_vo'
I9
tp1735
a(S'w'
I716
tp1736
a(S'w'
I1
tp1737
a(S'p1_vo'
I9
tp1738
a(S'w'
I14
tp1739
a(S'w'
I2
tp1740
a(S'p2_vo'
I8
tp1741
a(S'w'
I718
tp1742
a(S'w'
I15
tp1743
a(S'w'
I2
tp1744
a(S'p2_vo'
I7
tp1745
a(S'w'
I715
tp1746
a(S'w'
I2
tp1747
a(S'p1_vo'
I8
tp1748
a(S'w'
I13
tp1749
a(S'w'
I1
tp1750
a(S'p2_vo'
I0
tp1751
a(S'w'
I719
tp1752
a(S'w'
I25
tp1753
a(S'p2_ll'
I0
tp1754
a(S'w'
I2
tp1755
a(S'p2_vo'
I10
tp1756
a(S'w'
I706
tp1757
a(S'w'
I2
tp1758
a(S'p1_vo'
I7
tp1759
a(S'w'
I13
tp1760
a(S'w'
I720
tp1761
a(S'w'
I15
tp1762
a(S'w'
I2
tp1763
a(S'p2_vo'
I9
tp1764
a(S'w'
I716
tp1765
a(S'w'
I1
tp1766
a(S'p1_vo'
I6
tp1767
a(S'w'
I14
tp1768
a(S'w'
I2
tp1769
a(S'p2_vo'
I8
tp1770
a(S'w'
I716
tp1771
a(S'w'
I16
tp1772
a(S'w'
I1
tp1773
a(S'p2_vo'
I7
tp1774
a(S'w'
I718
tp1775
a(S'w'
I14
tp1776
a(S'w'
I1
tp1777
a(S'p2_vo'
I0
tp1778
a(S'w'
I732
tp1779
a(S'p1_tl'
I190
tp1780
a(S'p1_ll'
I0
tp1781
a(S'w'
I2
tp1782
a(S'p1_vo'
I10
tp1783
a(S'w'
I23
tp1784
a(S'p2_tl'
I226
tp1785
a(S'w'
I1
tp1786
a(S'p2_ll'
I0
tp1787
a(S'w'
I2
tp1788
a(S'p2_vo'
I10
tp1789
a(S'w'
I692
tp1790
a(S'w'
I15
tp1791
a(S'w'
I20
tp1792
a(S'tr_lr'
I0
tp1793
a(S'w'
I700
tp1794
a(S'w'
I15
tp1795
a(S'w'
I2
tp1796
a(S'p2_vo'
I9
tp1797
a(S'w'
I715
tp1798
a(S'w'
I2
tp1799
a(S'p1_vo'
I9
tp1800
a(S'w'
I14
tp1801
a(S'w'
I1
tp1802
a(S'p2_vo'
I8
tp1803
a(S'w'
I718
tp1804
a(S'w'
I16
tp1805
a(S'w'
I1
tp1806
a(S'p2_vo'
I7
tp1807
a(S'w'
I716
tp1808
a(S'w'
I2
tp1809
a(S'p1_vo'
I8
tp1810
a(S'w'
I12
tp1811
a(S'w'
I2
tp1812
a(S'p2_vo'
I0
tp1813
a(S'w'
I719
tp1814
a(S'w'
I25
tp1815
a(S'p2_ll'
I0
tp1816
a(S'w'
I2
tp1817
a(S'p2_vo'
I10
tp1818
a(S'w'
I706
tp1819
a(S'w'
I1
tp1820
a(S'p1_vo'
I7
tp1821
a(S'w'
I14
tp1822
a(S'w'
I720
tp1823
a(S'w'
I15
tp1824
a(S'w'
I1
tp1825
a(S'p2_vo'
I9
tp1826
a(S'w'
I716
tp1827
a(S'w'
I2
tp1828
a(S'p1_vo'
I6
tp1829
a(S'w'
I13
tp1830
a(S'w'
I2
tp1831
a(S'p2_vo'
I8
tp1832
a(S'w'
I717
tp1833
a(S'w'
I15
tp1834
a(S'w'
I2
tp1835
a(S'p2_vo'
I7
tp1836
a(S'w'
I717
tp1837
a(S'w'
I15
tp1838
a(S'w'
I1
tp1839
a(S'p2_vo'
I0
tp1840
a(S'w'
I27
tp1841
a(S'tr_ll'
I0
tp1842
a(S'w'
I1
tp1843
a(S'tr_lr'
I127
tp1844
a(S'w'
I704
tp1845
a(S'p1_tl'
I169
tp1846
a(S'p1_ll'
I0
tp1847
a(S'w'
I2
tp1848
a(S'p1_vo'
I10
tp1849
a(S'w'
I24
tp1850
a(S'p2_tl'
I213
tp1851
a(S'p2_ll'
I0
tp1852
a(S'w'
I2
tp1853
a(S'p2_vo'
I10
tp1854
a(S'w'
I691
tp1855
a(S'w'
I16
tp1856
a(S'w'
I719
tp1857
a(S'w'
I16
tp1858
a(S'w'
I1
tp1859
a(S'p2_vo'
I9
tp1860
a(S'w'
I716
tp1861
a(S'w'
I2
tp1862
a(S'p1_vo'
I9
tp1863
a(S'w'
I13
tp1864
a(S'w'
I2
tp1865
a(S'p2_vo'
I8
tp1866
a(S'w'
I718
tp1867
a(S'w'
I15
tp1868
a(S'w'
I2
tp1869
a(S'p2_vo'
I7
tp1870
a(S'w'
I716
tp1871
a(S'w'
I1
tp1872
a(S'p1_vo'
I8
tp1873
a(S'w'
I13
tp1874
a(S'w'
I1
tp1875
a(S'p2_vo'
I0
tp1876
a(S'w'
I720
tp1877
a(S'w'
I25
tp1878
a(S'w'
I1
tp1879
a(S'p2_ll'
I0
tp1880
a(S'w'
I2
tp1881
a(S'p2_vo'
I10
tp1882
a(S'w'
I704
tp1883
a(S'w'
I2
tp1884
a(S'p1_vo'
I7
tp1885
a(S'w'
I13
tp1886
a(S'w'
I720
tp1887
a(S'w'
I15
tp1888
a(S'w'
I2
tp1889
a(S'p2_vo'
I9
tp1890
a(S'w'
I716
tp1891
a(S'w'
I1
tp1892
a(S'p1_vo'
I6
tp1893
a(S'w'
I14
tp1894
a(S'w'
I2
tp1895
a(S'p2_vo'
I8
tp1896
a(S'w'
I717
tp1897
a(S'w'
I15
tp1898
a(S'w'
I2
tp1899
a(S'p2_vo'
I7
tp1900
a(S'w'
I717
tp1901
a(S'w'
I14
tp1902
a(S'w'
I1
tp1903
a(S'p2_vo'
I0
tp1904
a(S'w'
I732
tp1905
a(S'p1_tl'
I190
tp1906
a(S'w'
I1
tp1907
a(S'p1_ll'
I0
tp1908
a(S'w'
I2
tp1909
a(S'p1_vo'
I10
tp1910
a(S'w'
I23
tp1911
a(S'p2_tl'
I190
tp1912
a(S'w'
I1
tp1913
a(S'p2_ll'
I0
tp1914
a(S'w'
I2
tp1915
a(S'p2_vo'
I10
tp1916
a(S'w'
I691
tp1917
a(S'w'
I15
tp1918
a(S'w'
I20
tp1919
a(S'tr_lr'
I0
tp1920
a(S'w'
I700
tp1921
a(S'w'
I15
tp1922
a(S'w'
I2
tp1923
a(S'p2_vo'
I9
tp1924
a(S'w'
I716
tp1925
a(S'w'
I1
tp1926
a(S'p1_vo'
I9
tp1927
a(S'w'
I14
tp1928
a(S'w'
I2
tp1929
a(S'p2_vo'
I8
tp1930
a(S'w'
I718
tp1931
a(S'w'
I15
tp1932
a(S'w'
I2
tp1933
a(S'p2_vo'
I7
tp1934
a(S'w'
I715
tp1935
a(S'w'
I2
tp1936
a(S'p1_vo'
I8
tp1937
a(S'w'
I13
tp1938
a(S'w'
I1
tp1939
a(S'p2_vo'
I0
tp1940
a(S'w'
I719
tp1941
a(S'w'
I26
tp1942
a(S'p2_ll'
I0
tp1943
a(S'w'
I2
tp1944
a(S'p2_vo'
I10
tp1945
a(S'w'
I705
tp1946
a(S'w'
I2
tp1947
a(S'p1_vo'
I7
tp1948
a(S'w'
I13
tp1949
a(S'w'
I720
tp1950
a(S'w'
I15
tp1951
a(S'w'
I2
tp1952
a(S'p2_vo'
I9
tp1953
a(S'w'
I715
tp1954
a(S'w'
I2
tp1955
a(S'p1_vo'
I6
tp1956
a(S'w'
I14
tp1957
a(S'w'
I1
tp1958
a(S'p2_vo'
I8
tp1959
a(S'w'
I717
tp1960
a(S'w'
I15
tp1961
a(S'w'
I2
tp1962
a(S'p2_vo'
I7
tp1963
a(S'w'
I717
tp1964
a(S'w'
I15
tp1965
a(S'w'
I1
tp1966
a(S'p2_vo'
I0
tp1967
a(S'w'
I27
tp1968
a(S'tr_ll'
I0
tp1969
a(S'w'
I1
tp1970
a(S'tr_lr'
I127
tp1971
a(S'w'
I703
tp1972
a(S'p1_tl'
I226
tp1973
a(S'p1_ll'
I0
tp1974
a(S'w'
I2
tp1975
a(S'p1_vo'
I10
tp1976
a(S'w'
I24
tp1977
a(S'p2_tl'
I169
tp1978
a(S'p2_ll'
I0
tp1979
a(S'w'
I3
tp1980
a(S'p2_vo'
I10
tp1981
a(S'w'
I692
tp1982
a(S'w'
I15
tp1983
a(S'w'
I720
tp1984
a(S'w'
I15
tp1985
a(S'w'
I2
tp1986
a(S'p2_vo'
I9
tp1987
a(S'w'
I715
tp1988
a(S'w'
I2
tp1989
a(S'p1_vo'
I9
tp1990
a(S'w'
I13
tp1991
a(S'w'
I2
tp1992
a(S'p2_vo'
I8
tp1993
a(S'w'
I718
tp1994
a(S'w'
I15
tp1995
a(S'w'
I2
tp1996
a(S'p2_vo'
I7
tp1997
a(S'w'
I716
tp1998
a(S'w'
I2
tp1999
a(S'p1_vo'
I8
tp2000
a(S'w'
I12
tp2001
a(S'w'
I1
tp2002
a(S'p2_vo'
I0
tp2003
a(S'w'
I720
tp2004
a(S'w'
I25
tp2005
a(S'w'
I1
tp2006
a(S'p2_ll'
I0
tp2007
a(S'w'
I2
tp2008
a(S'p2_vo'
I10
tp2009
a(S'w'
I704
tp2010
a(S'w'
I2
tp2011
a(S'p1_vo'
I7
tp2012
a(S'w'
I14
tp2013
a(S'w'
I719
tp2014
a(S'w'
I16
tp2015
a(S'w'
I1
tp2016
a(S'p2_vo'
I9
tp2017
a(S'w'
I716
tp2018
a(S'w'
I2
tp2019
a(S'p1_vo'
I6
tp2020
a(S'w'
I13
tp2021
a(S'w'
I2
tp2022
a(S'p2_vo'
I8
tp2023
a(S'w'
I717
tp2024
a(S'w'
I15
tp2025
a(S'w'
I2
tp2026
a(S'p2_vo'
I7
tp2027
a(S'w'
I717
tp2028
a(S'w'
I14
tp2029
a(S'w'
I2
tp2030
a(S'p2_vo'
I0
tp2031
a(S'w'
I730
tp2032
a(S'p1_tl'
I254
tp2033
a(S'w'
I1
tp2034
a(S'p1_ll'
I0
tp2035
a(S'w'
I2
tp2036
a(S'p1_vo'
I10
tp2037
a(S'w'
I24
tp2038
a(S'p2_tl'
I160
tp2039
a(S'p2_ll'
I0
tp2040
a(S'w'
I2
tp2041
a(S'p2_vo'
I10
tp2042
a(S'w'
I692
tp2043
a(S'w'
I15
tp2044
a(S'w'
I21
tp2045
a(S'tr_lr'
I0
tp2046
a(S'w'
I699
tp2047
a(S'w'
I15
tp2048
a(S'w'
I2
tp2049
a(S'p2_vo'
I9
tp2050
a(S'w'
I716
tp2051
a(S'w'
I2
tp2052
a(S'p1_vo'
I9
tp2053
a(S'w'
I13
tp2054
a(S'w'
I2
tp2055
a(S'p2_vo'
I8
tp2056
a(S'w'
I718
tp2057
a(S'w'
I15
tp2058
a(S'w'
I2
tp2059
a(S'p2_vo'
I7
tp2060
a(S'w'
I715
tp2061
a(S'w'
I2
tp2062
a(S'p1_vo'
I8
tp2063
a(S'w'
I13
tp2064
a(S'w'
I1
tp2065
a(S'p2_vo'
I0
tp2066
a(S'w'
I719
tp2067
a(S'w'
I26
tp2068
a(S'p2_ll'
I0
tp2069
a(S'w'
I2
tp2070
a(S'p2_vo'
I10
tp2071
a(S'w'
I705
tp2072
a(S'w'
I2
tp2073
a(S'p1_vo'
I7
tp2074
a(S'w'
I13
tp2075
a(S'w'
I720
tp2076
a(S'w'
I15
tp2077
a(S'w'
I2
tp2078
a(S'p2_vo'
I9
tp2079
a(S'w'
I716
tp2080
a(S'w'
I1
tp2081
a(S'p1_vo'
I6
tp2082
a(S'w'
I14
tp2083
a(S'w'
I1
tp2084
a(S'p2_vo'
I8
tp2085
a(S'w'
I717
tp2086
a(S'w'
I16
tp2087
a(S'w'
I1
tp2088
a(S'p2_vo'
I7
tp2089
a(S'w'
I718
tp2090
a(S'w'
I14
tp2091
a(S'w'
I1
tp2092
a(S'p2_vo'
I0
tp2093
a(S'w'
I37
tp2094
a(S'tr_tl'
I171
tp2095
a(S'tr_ll'
I0
tp2096
a(S'tr_th'
I1
tp2097
a(S'w'
I1
tp2098
a(S'tr_lr'
I127
tp2099
a(S'w'
I700
tp2100
a(S'p1_tl'
I29
tp2101
a(S'p1_ll'
I0
tp2102
a(S'p1_th'
I1
tp2103
a(S'w'
I2
tp2104
a(S'p1_vo'
I10
tp2105
a(S'w'
I36
tp2106
a(S'p2_tl'
I213
tp2107
a(S'w'
I1
tp2108
a(S'p2_ll'
I0
tp2109
a(S'w'
I2
tp2110
a(S'p2_vo'
I10
tp2111
a(S'w'
I673
tp2112
a(S'w'
I15
tp2113
a(S'w'
I720
tp2114
a(S'w'
I15
tp2115
a(S'w'
I2
tp2116
a(S'p2_vo'
I9
tp2117
a(S'w'
I715
tp2118
a(S'w'
I2
tp2119
a(S'p1_vo'
I9
tp2120
a(S'w'
I14
tp2121
a(S'w'
I1
tp2122
a(S'p2_vo'
I8
tp2123
a(S'w'
I718
tp2124
a(S'w'
I15
tp2125
a(S'w'
I2
tp2126
a(S'p2_vo'
I7
tp2127
a(S'w'
I716
tp2128
a(S'w'
I2
tp2129
a(S'p1_vo'
I8
tp2130
a(S'w'
I12
tp2131
a(S'w'
I2
tp2132
a(S'p2_vo'
I0
tp2133
a(S'w'
I719
tp2134
a(S'w'
I30
tp2135
a(S'w'
I1
tp2136
a(S'p2_ll'
I0
tp2137
a(S'w'
I2
tp2138
a(S'p2_vo'
I10
tp2139
a(S'w'
I699
tp2140
a(S'w'
I2
tp2141
a(S'p1_vo'
I7
tp2142
a(S'w'
I14
tp2143
a(S'w'
I719
tp2144
a(S'w'
I16
tp2145
a(S'w'
I1
tp2146
a(S'p2_vo'
I9
tp2147
a(S'w'
I716
tp2148
a(S'w'
I2
tp2149
a(S'p1_vo'
I6
tp2150
a(S'w'
I13
tp2151
a(S'w'
I2
tp2152
a(S'p2_vo'
I8
tp2153
a(S'w'
I717
tp2154
a(S'w'
I15
tp2155
a(S'w'
I2
tp2156
a(S'p2_vo'
I7
tp2157
a(S'w'
I717
tp2158
a(S'w'
I14
tp2159
a(S'w'
I1
tp2160
a(S'p2_vo'
I0
tp2161
a(S'w'
I720
tp2162
a(S'w'
I30
tp2163
a(S'p2_ll'
I0
tp2164
a(S'w'
I3
tp2165
a(S'p2_vo'
I10
tp2166
a(S'w'
I699
tp2167
a(S'w'
I2
tp2168
a(S'p1_vo'
I5
tp2169
a(S'w'
I14
tp2170
a(S'w'
I20
tp2171
a(S'tr_lr'
I0
tp2172
a(S'w'
I698
tp2173
a(S'w'
I15
tp2174
a(S'w'
I2
tp2175
a(S'p2_vo'
I9
tp2176
a(S'w'
I717
tp2177
a(S'w'
I15
tp2178
a(S'w'
I2
tp2179
a(S'p2_vo'
I8
tp2180
a(S'w'
I718
tp2181
a(S'w'
I15
tp2182
a(S'w'
I2
tp2183
a(S'p2_vo'
I7
tp2184
a(S'w'
I716
tp2185
a(S'w'
I1
tp2186
a(S'p1_vo'
I6
tp2187
a(S'w'
I13
tp2188
a(S'w'
I1
tp2189
a(S'p2_vo'
I0
tp2190
a(S'w'
I720
tp2191
a(S'w'
I30
tp2192
a(S'p2_ll'
I0
tp2193
a(S'w'
I2
tp2194
a(S'p2_vo'
I10
tp2195
a(S'w'
I700
tp2196
a(S'w'
I2
tp2197
a(S'p1_vo'
I7
tp2198
a(S'w'
I13
tp2199
a(S'w'
I720
tp2200
a(S'w'
I15
tp2201
a(S'w'
I2
tp2202
a(S'p2_vo'
I9
tp2203
a(S'w'
I717
tp2204
a(S'w'
I2
tp2205
a(S'p1_vo'
I6
tp2206
a(S'w'
I13
tp2207
a(S'w'
I2
tp2208
a(S'p2_vo'
I8
tp2209
a(S'w'
I717
tp2210
a(S'w'
I1
tp2211
a(S'p1_vo'
I5
tp2212
a(S'w'
I14
tp2213
a(S'w'
I2
tp2214
a(S'p2_vo'
I7
tp2215
a(S'w'
I715
tp2216
a(S'w'
I2
tp2217
a(S'p1_vo'
I4
tp2218
a(S'w'
I13
tp2219
a(S'w'
I1
tp2220
a(S'p2_vo'
I0
tp2221
a(S'w'
I22
tp2222
a(S'tr_tl'
I58
tp2223
a(S'tr_ll'
I0
tp2224
a(S'tr_th'
I2
tp2225
a(S'w'
I1
tp2226
a(S'tr_lr'
I127
tp2227
a(S'w'
I696
tp2228
a(S'w'
I31
tp2229
a(S'p2_ll'
I0
tp2230
a(S'w'
I2
tp2231
a(S'p2_vo'
I10
tp2232
a(S'w'
I700
tp2233
a(S'w'
I2
tp2234
a(S'p1_vo'
I5
tp2235
a(S'w'
I13
tp2236
a(S'w'
I720
tp2237
a(S'w'
I15
tp2238
a(S'w'
I2
tp2239
a(S'p2_vo'
I9
tp2240
a(S'w'
I716
tp2241
a(S'w'
I1
tp2242
a(S'p1_vo'
I6
tp2243
a(S'w'
I14
tp2244
a(S'w'
I2
tp2245
a(S'p2_vo'
I8
tp2246
a(S'w'
I717
tp2247
a(S'w'
I16
tp2248
a(S'w'
I1
tp2249
a(S'p2_vo'
I7
tp2250
a(S'w'
I717
tp2251
a(S'w'
I2
tp2252
a(S'p1_vo'
I5
tp2253
a(S'w'
I13
tp2254
a(S'w'
I1
tp2255
a(S'p2_vo'
I0
tp2256
a(S'w'
I718
tp2257
a(S'w'
I2
tp2258
a(S'p1_vo'
I4
tp2259
a(S'w'
I29
tp2260
a(S'p2_ll'
I0
tp2261
a(S'w'
I2
tp2262
a(S'p2_vo'
I10
tp2263
a(S'w'
I700
tp2264
a(S'w'
I1
tp2265
a(S'p1_vo'
I3
tp2266
a(S'w'
I14
tp2267
a(S'w'
I721
tp2268
a(S'w'
I15
tp2269
a(S'w'
I2
tp2270
a(S'p2_vo'
I9
tp2271
a(S'w'
I714
tp2272
a(S'p1_tl'
I28
tp2273
a(S'w'
I2
tp2274
a(S'p1_vo'
I4
tp2275
a(S'w'
I14
tp2276
a(S'w'
I1
tp2277
a(S'p2_vo'
I8
tp2278
a(S'w'
I718
tp2279
a(S'w'
I16
tp2280
a(S'w'
I1
tp2281
a(S'p2_vo'
I7
tp2282
a(S'w'
I716
tp2283
a(S'w'
I2
tp2284
a(S'p1_vo'
I5
tp2285
a(S'w'
I13
tp2286
a(S'w'
I1
tp2287
a(S'p2_vo'
I0
tp2288
a(S'w'
I735
tp2289
a(S'p1_tl'
I12
tp2290
a(S'p1_ll'
I0
tp2291
a(S'w'
I2
tp2292
a(S'p1_vo'
I10
tp2293
a(S'w'
I29
tp2294
a(S'p2_ll'
I0
tp2295
a(S'w'
I2
tp2296
a(S'p2_vo'
I10
tp2297
a(S'w'
I684
tp2298
a(S'p1_tl'
I13
tp2299
a(S'w'
I15
tp2300
a(S'w'
I20
tp2301
a(S'tr_lr'
I0
tp2302
a(S'w'
I700
tp2303
a(S'w'
I15
tp2304
a(S'w'
I1
tp2305
a(S'p2_vo'
I9
tp2306
a(S'w'
I716
tp2307
a(S'w'
I2
tp2308
a(S'p1_vo'
I9
tp2309
a(S'w'
I14
tp2310
a(S'w'
I1
tp2311
a(S'p2_vo'
I8
tp2312
a(S'w'
I730
tp2313
a(S'p1_tl'
I254
tp2314
a(S'p1_ll'
I0
tp2315
a(S'p1_th'
I0
tp2316
a(S'w'
I2
tp2317
a(S'p1_vo'
I10
tp2318
a(S'w'
I14
tp2319
a(S'w'
I2
tp2320
a(S'p2_vo'
I7
tp2321
a(S'w'
I703
tp2322
a(S'w'
I14
tp2323
a(S'w'
I1
tp2324
a(S'p2_vo'
I0
tp2325
a(S'w'
I720
tp2326
a(S'w'
I30
tp2327
a(S'w'
I1
tp2328
a(S'p2_ll'
I0
tp2329
a(S'w'
I2
tp2330
a(S'p2_vo'
I10
tp2331
a(S'w'
I700
tp2332
a(S'w'
I1
tp2333
a(S'p1_vo'
I9
tp2334
a(S'w'
I14
tp2335
a(S'w'
I731
tp2336
a(S'p1_tl'
I240
tp2337
a(S'w'
I1
tp2338
a(S'p1_ll'
I0
tp2339
a(S'w'
I2
tp2340
a(S'p1_vo'
I10
tp2341
a(S'w'
I13
tp2342
a(S'w'
I2
tp2343
a(S'p2_vo'
I9
tp2344
a(S'w'
I703
tp2345
a(S'w'
I15
tp2346
a(S'w'
I2
tp2347
a(S'p2_vo'
I8
tp2348
a(S'w'
I718
tp2349
a(S'w'
I15
tp2350
a(S'w'
I2
tp2351
a(S'p2_vo'
I7
tp2352
a(S'w'
I716
tp2353
a(S'w'
I2
tp2354
a(S'p1_vo'
I9
tp2355
a(S'w'
I12
tp2356
a(S'w'
I2
tp2357
a(S'p2_vo'
I0
tp2358
a(S'w'
I27
tp2359
a(S'tr_tl'
I171
tp2360
a(S'w'
I1
tp2361
a(S'tr_ll'
I0
tp2362
a(S'tr_th'
I1
tp2363
a(S'w'
I1
tp2364
a(S'tr_lr'
I127
tp2365
a(S'w'
I704
tp2366
a(S'p1_tl'
I226
tp2367
a(S'w'
I1
tp2368
a(S'p1_ll'
I0
tp2369
a(S'w'
I2
tp2370
a(S'p1_vo'
I10
tp2371
a(S'w'
I28
tp2372
a(S'w'
I1
tp2373
a(S'p2_ll'
I0
tp2374
a(S'w'
I2
tp2375
a(S'p2_vo'
I10
tp2376
a(S'w'
I684
tp2377
a(S'w'
I15
tp2378
a(S'w'
I720
tp2379
a(S'w'
I15
tp2380
a(S'w'
I2
tp2381
a(S'p2_vo'
I9
tp2382
a(S'w'
I716
tp2383
a(S'w'
I2
tp2384
a(S'p1_vo'
I9
tp2385
a(S'w'
I13
tp2386
a(S'w'
I2
tp2387
a(S'p2_vo'
I8
tp2388
a(S'w'
I718
tp2389
a(S'w'
I15
tp2390
a(S'w'
I2
tp2391
a(S'p2_vo'
I7
tp2392
a(S'w'
I715
tp2393
a(S'w'
I2
tp2394
a(S'p1_vo'
I8
tp2395
a(S'w'
I13
tp2396
a(S'w'
I1
tp2397
a(S'p2_vo'
I0
tp2398
a(S'w'
I719
tp2399
a(S'w'
I31
tp2400
a(S'p2_ll'
I0
tp2401
a(S'w'
I2
tp2402
a(S'p2_vo'
I10
tp2403
a(S'w'
I700
tp2404
a(S'w'
I2
tp2405
a(S'p1_vo'
I7
tp2406
a(S'w'
I13
tp2407
a(S'w'
I720
tp2408
a(S'w'
I15
tp2409
a(S'w'
I2
tp2410
a(S'p2_vo'
I9
tp2411
a(S'w'
I716
tp2412
a(S'w'
I1
tp2413
a(S'p1_vo'
I6
tp2414
a(S'w'
I14
tp2415
a(S'w'
I2
tp2416
a(S'p2_vo'
I8
tp2417
a(S'w'
I716
tp2418
a(S'w'
I16
tp2419
a(S'w'
I1
tp2420
a(S'p2_vo'
I7
tp2421
a(S'w'
I717
tp2422
a(S'w'
I15
tp2423
a(S'w'
I1
tp2424
a(S'p2_vo'
I0
tp2425
a(S'w'
I719
tp2426
a(S'w'
I31
tp2427
a(S'p2_ll'
I0
tp2428
a(S'w'
I2
tp2429
a(S'p2_vo'
I10
tp2430
a(S'w'
I700
tp2431
a(S'w'
I2
tp2432
a(S'p1_vo'
I5
tp2433
a(S'w'
I13
tp2434
a(S'w'
I20
tp2435
a(S'tr_lr'
I0
tp2436
a(S'w'
I699
tp2437
a(S'w'
I15
tp2438
a(S'w'
I2
tp2439
a(S'p2_vo'
I9
tp2440
a(S'w'
I716
tp2441
a(S'w'
I16
tp2442
a(S'w'
I1
tp2443
a(S'p2_vo'
I8
tp2444
a(S'w'
I718
tp2445
a(S'w'
I16
tp2446
a(S'w'
I1
tp2447
a(S'p2_vo'
I7
tp2448
a(S'w'
I716
tp2449
a(S'w'
I2
tp2450
a(S'p1_vo'
I6
tp2451
a(S'w'
I12
tp2452
a(S'w'
I2
tp2453
a(S'p2_vo'
I0
tp2454
a(S'w'
I719
tp2455
a(S'w'
I30
tp2456
a(S'w'
I1
tp2457
a(S'p2_ll'
I0
tp2458
a(S'w'
I2
tp2459
a(S'p2_vo'
I10
tp2460
a(S'w'
I700
tp2461
a(S'w'
I1
tp2462
a(S'p1_vo'
I7
tp2463
a(S'w'
I14
tp2464
a(S'w'
I720
tp2465
a(S'w'
I15
tp2466
a(S'w'
I2
tp2467
a(S'p2_vo'
I9
tp2468
a(S'w'
I716
tp2469
a(S'w'
I2
tp2470
a(S'p1_vo'
I6
tp2471
a(S'w'
I14
tp2472
a(S'w'
I1
tp2473
a(S'p2_vo'
I8
tp2474
a(S'w'
I717
tp2475
a(S'w'
I2
tp2476
a(S'p1_vo'
I5
tp2477
a(S'w'
I13
tp2478
a(S'w'
I2
tp2479
a(S'p2_vo'
I7
tp2480
a(S'w'
I716
tp2481
a(S'w'
I2
tp2482
a(S'p1_vo'
I4
tp2483
a(S'w'
I12
tp2484
a(S'w'
I1
tp2485
a(S'p2_vo'
I0
tp2486
a(S'w'
I22
tp2487
a(S'tr_tl'
I58
tp2488
a(S'w'
I1
tp2489
a(S'tr_ll'
I0
tp2490
a(S'tr_th'
I2
tp2491
a(S'w'
I1
tp2492
a(S'tr_lr'
I127
tp2493
a(S'w'
I696
tp2494
a(S'w'
I30
tp2495
a(S'w'
I1
tp2496
a(S'p2_ll'
I0
tp2497
a(S'w'
I2
tp2498
a(S'p2_vo'
I10
tp2499
a(S'w'
I699
tp2500
a(S'w'
I2
tp2501
a(S'p1_vo'
I5
tp2502
a(S'w'
I14
tp2503
a(S'w'
I719
tp2504
a(S'w'
I16
tp2505
a(S'w'
I1
tp2506
a(S'p2_vo'
I9
tp2507
a(S'w'
I716
tp2508
a(S'w'
I2
tp2509
a(S'p1_vo'
I6
tp2510
a(S'w'
I13
tp2511
a(S'w'
I2
tp2512
a(S'p2_vo'
I8
tp2513
a(S'w'
I718
tp2514
a(S'w'
I15
tp2515
a(S'w'
I2
tp2516
a(S'p2_vo'
I7
tp2517
a(S'w'
I717
tp2518
a(S'w'
I1
tp2519
a(S'p1_vo'
I5
tp2520
a(S'w'
I13
tp2521
a(S'w'
I1
tp2522
a(S'p2_vo'
I0
tp2523
a(S'w'
I719
tp2524
a(S'w'
I1
tp2525
a(S'p1_vo'
I4
tp2526
a(S'w'
I29
tp2527
a(S'p2_ll'
I0
tp2528
a(S'w'
I2
tp2529
a(S'p2_vo'
I10
tp2530
a(S'w'
I700
tp2531
a(S'w'
I2
tp2532
a(S'p1_vo'
I3
tp2533
a(S'w'
I14
tp2534
a(S'w'
I720
tp2535
a(S'w'
I16
tp2536
a(S'w'
I1
tp2537
a(S'p2_vo'
I9
tp2538
a(S'w'
I715
tp2539
a(S'p1_tl'
I225
tp2540
a(S'w'
I2
tp2541
a(S'p1_vo'
I4
tp2542
a(S'w'
I13
tp2543
a(S'w'
I2
tp2544
a(S'p2_vo'
I8
tp2545
a(S'w'
I718
tp2546
a(S'w'
I15
tp2547
a(S'w'
I2
tp2548
a(S'p2_vo'
I7
tp2549
a(S'w'
I716
tp2550
a(S'w'
I1
tp2551
a(S'p1_vo'
I5
tp2552
a(S'w'
I13
tp2553
a(S'w'
I1
tp2554
a(S'p2_vo'
I0
tp2555
a(S'w'
I736
tp2556
a(S'p1_tl'
I200
tp2557
a(S'w'
I1
tp2558
a(S'p1_ll'
I0
tp2559
a(S'w'
I2
tp2560
a(S'p1_vo'
I10
tp2561
a(S'w'
I28
tp2562
a(S'w'
I1
tp2563
a(S'p2_ll'
I0
tp2564
a(S'w'
I2
tp2565
a(S'p2_vo'
I10
tp2566
a(S'w'
I682
tp2567
a(S'p1_tl'
I201
tp2568
a(S'w'
I15
tp2569
a(S'w'
I20
tp2570
a(S'tr_lr'
I0
tp2571
a(S'w'
I700
tp2572
a(S'w'
I15
tp2573
a(S'w'
I2
tp2574
a(S'p2_vo'
I9
tp2575
a(S'w'
I716
tp2576
a(S'w'
I2
tp2577
a(S'p1_vo'
I9
tp2578
a(S'w'
I13
tp2579
a(S'w'
I2
tp2580
a(S'p2_vo'
I8
tp2581
a(S'w'
I730
tp2582
a(S'p1_tl'
I190
tp2583
a(S'w'
I1
tp2584
a(S'p1_ll'
I0
tp2585
a(S'w'
I2
tp2586
a(S'p1_vo'
I10
tp2587
a(S'w'
I13
tp2588
a(S'w'
I2
tp2589
a(S'p2_vo'
I7
tp2590
a(S'w'
I702
tp2591
a(S'w'
I15
tp2592
a(S'w'
I1
tp2593
a(S'p2_vo'
I0
tp2594
a(S'w'
I719
tp2595
a(S'w'
I31
tp2596
a(S'p2_ll'
I0
tp2597
a(S'w'
I2
tp2598
a(S'p2_vo'
I10
tp2599
a(S'w'
I700
tp2600
a(S'w'
I2
tp2601
a(S'p1_vo'
I9
tp2602
a(S'w'
I13
tp2603
a(S'w'
I733
tp2604
a(S'p1_tl'
I179
tp2605
a(S'p1_ll'
I0
tp2606
a(S'w'
I2
tp2607
a(S'p1_vo'
I10
tp2608
a(S'w'
I14
tp2609
a(S'w'
I1
tp2610
a(S'p2_vo'
I9
tp2611
a(S'w'
I702
tp2612
a(S'w'
I16
tp2613
a(S'w'
I1
tp2614
a(S'p2_vo'
I8
tp2615
a(S'w'
I718
tp2616
a(S'w'
I16
tp2617
a(S'w'
I1
tp2618
a(S'p2_vo'
I7
tp2619
a(S'w'
I716
tp2620
a(S'w'
I2
tp2621
a(S'p1_vo'
I9
tp2622
a(S'w'
I13
tp2623
a(S'w'
I1
tp2624
a(S'p2_vo'
I0
tp2625
a(S'w'
I28
tp2626
a(S'tr_tl'
I171
tp2627
a(S'tr_ll'
I0
tp2628
a(S'tr_th'
I1
tp2629
a(S'w'
I1
tp2630
a(S'tr_lr'
I127
tp2631
a(S'w'
I706
tp2632
a(S'p1_tl'
I169
tp2633
a(S'p1_ll'
I0
tp2634
a(S'w'
I2
tp2635
a(S'p1_vo'
I10
tp2636
a(S'w'
I29
tp2637
a(S'p2_ll'
I0
tp2638
a(S'w'
I2
tp2639
a(S'p2_vo'
I10
tp2640
a(S'w'
I684
tp2641
a(S'w'
I15
tp2642
a(S'w'
I720
tp2643
a(S'w'
I15
tp2644
a(S'w'
I2
tp2645
a(S'p2_vo'
I9
tp2646
a(S'w'
I715
tp2647
a(S'w'
I2
tp2648
a(S'p1_vo'
I9
tp2649
a(S'w'
I14
tp2650
a(S'w'
I1
tp2651
a(S'p2_vo'
I8
tp2652
a(S'w'
I718
tp2653
a(S'w'
I16
tp2654
a(S'w'
I1
tp2655
a(S'p2_vo'
I7
tp2656
a(S'w'
I716
tp2657
a(S'w'
I2
tp2658
a(S'p1_vo'
I8
tp2659
a(S'w'
I12
tp2660
a(S'w'
I1
tp2661
a(S'p2_vo'
I0
tp2662
a(S'w'
I720
tp2663
a(S'w'
I30
tp2664
a(S'w'
I1
tp2665
a(S'p2_ll'
I0
tp2666
a(S'w'
I2
tp2667
a(S'p2_vo'
I10
tp2668
a(S'w'
I700
tp2669
a(S'w'
I1
tp2670
a(S'p1_vo'
I7
tp2671
a(S'w'
I14
tp2672
a(S'w'
I719
tp2673
a(S'w'
I16
tp2674
a(S'w'
I1
tp2675
a(S'p2_vo'
I9
tp2676
a(S'w'
I716
tp2677
a(S'w'
I2
tp2678
a(S'p1_vo'
I6
tp2679
a(S'w'
I13
tp2680
a(S'w'
I2
tp2681
a(S'p2_vo'
I8
tp2682
a(S'w'
I717
tp2683
a(S'w'
I15
tp2684
a(S'w'
I2
tp2685
a(S'p2_vo'
I7
tp2686
a(S'w'
I717
tp2687
a(S'w'
I14
tp2688
a(S'w'
I1
tp2689
a(S'p2_vo'
I0
tp2690
a(S'w'
I720
tp2691
a(S'w'
I30
tp2692
a(S'p2_ll'
I0
tp2693
a(S'w'
I2
tp2694
a(S'p2_vo'
I10
tp2695
a(S'w'
I700
tp2696
a(S'w'
I2
tp2697
a(S'p1_vo'
I5
tp2698
a(S'w'
I13
tp2699
a(S'w'
I21
tp2700
a(S'tr_lr'
I0
tp2701
a(S'w'
I698
tp2702
a(S'w'
I15
tp2703
a(S'w'
I2
tp2704
a(S'p2_vo'
I9
tp2705
a(S'w'
I717
tp2706
a(S'w'
I15
tp2707
a(S'w'
I2
tp2708
a(S'p2_vo'
I8
tp2709
a(S'w'
I718
tp2710
a(S'w'
I15
tp2711
a(S'w'
I2
tp2712
a(S'p2_vo'
I7
tp2713
a(S'w'
I715
tp2714
a(S'w'
I2
tp2715
a(S'p1_vo'
I6
tp2716
a(S'w'
I13
tp2717
a(S'w'
I1
tp2718
a(S'p2_vo'
I0
tp2719
a(S'w'
I719
tp2720
a(S'w'
I31
tp2721
a(S'p2_ll'
I0
tp2722
a(S'w'
I2
tp2723
a(S'p2_vo'
I10
tp2724
a(S'w'
I700
tp2725
a(S'w'
I2
tp2726
a(S'p1_vo'
I7
tp2727
a(S'w'
I13
tp2728
a(S'w'
I720
tp2729
a(S'w'
I15
tp2730
a(S'w'
I2
tp2731
a(S'p2_vo'
I9
tp2732
a(S'w'
I717
tp2733
a(S'w'
I2
tp2734
a(S'p1_vo'
I6
tp2735
a(S'w'
I13
tp2736
a(S'w'
I2
tp2737
a(S'p2_vo'
I8
tp2738
a(S'w'
I717
tp2739
a(S'w'
I1
tp2740
a(S'p1_vo'
I5
tp2741
a(S'w'
I14
tp2742
a(S'w'
I2
tp2743
a(S'p2_vo'
I7
tp2744
a(S'w'
I715
tp2745
a(S'w'
I2
tp2746
a(S'p1_vo'
I4
tp2747
a(S'w'
I13
tp2748
a(S'w'
I1
tp2749
a(S'p2_vo'
I0
tp2750
a(S'w'
I22
tp2751
a(S'tr_tl'
I58
tp2752
a(S'tr_ll'
I0
tp2753
a(S'tr_th'
I2
tp2754
a(S'w'
I1
tp2755
a(S'tr_lr'
I127
tp2756
a(S'w'
I696
tp2757
a(S'w'
I31
tp2758
a(S'p2_ll'
I0
tp2759
a(S'w'
I2
tp2760
a(S'p2_vo'
I10
tp2761
a(S'w'
I700
tp2762
a(S'w'
I2
tp2763
a(S'p1_vo'
I5
tp2764
a(S'w'
I13
tp2765
a(S'w'
I720
tp2766
a(S'w'
I15
tp2767
a(S'w'
I2
tp2768
a(S'p2_vo'
I9
tp2769
a(S'w'
I715
tp2770
a(S'w'
I2
tp2771
a(S'p1_vo'
I6
tp2772
a(S'w'
I14
tp2773
a(S'w'
I1
tp2774
a(S'p2_vo'
I8
tp2775
a(S'w'
I719
tp2776
a(S'w'
I15
tp2777
a(S'w'
I2
tp2778
a(S'p2_vo'
I7
tp2779
a(S'w'
I716
tp2780
a(S'w'
I2
tp2781
a(S'p1_vo'
I5
tp2782
a(S'w'
I13
tp2783
a(S'w'
I1
tp2784
a(S'p2_vo'
I0
tp2785
a(S'w'
I718
tp2786
a(S'w'
I2
tp2787
a(S'p1_vo'
I4
tp2788
a(S'w'
I29
tp2789
a(S'p2_ll'
I0
tp2790
a(S'w'
I2
tp2791
a(S'p2_vo'
I10
tp2792
a(S'w'
I700
tp2793
a(S'w'
I2
tp2794
a(S'p1_vo'
I3
tp2795
a(S'w'
I13
tp2796
a(S'w'
I721
tp2797
a(S'w'
I15
tp2798
a(S'w'
I2
tp2799
a(S'p2_vo'
I9
tp2800
a(S'w'
I714
tp2801
a(S'p1_tl'
I168
tp2802
a(S'w'
I2
tp2803
a(S'p1_vo'
I4
tp2804
a(S'w'
I14
tp2805
a(S'w'
I1
tp2806
a(S'p2_vo'
I8
tp2807
a(S'w'
I718
tp2808
a(S'w'
I16
tp2809
a(S'w'
I1
tp2810
a(S'p2_vo'
I7
tp2811
a(S'w'
I716
tp2812
a(S'w'
I2
tp2813
a(S'p1_vo'
I5
tp2814
a(S'w'
I12
tp2815
a(S'w'
I2
tp2816
a(S'p2_vo'
I0
tp2817
a(S'w'
I720
tp2818
a(S'w'
I31
tp2819
a(S'p2_ll'
I0
tp2820
a(S'w'
I2
tp2821
a(S'p2_vo'
I10
tp2822
a(S'w'
I700
tp2823
a(S'p1_tl'
I169
tp2824
a(S'w'
I2
tp2825
a(S'p1_vo'
I4
tp2826
a(S'w'
I13
tp2827
a(S'w'
I20
tp2828
a(S'tr_lr'
I0
tp2829
a(S'w'
I699
tp2830
a(S'w'
I1
tp2831
a(S'p1_vo'
I3
tp2832
a(S'w'
I14
tp2833
a(S'w'
I2
tp2834
a(S'p2_vo'
I9
tp2835
a(S'w'
I715
tp2836
a(S'w'
I2
tp2837
a(S'p1_vo'
I2
tp2838
a(S'w'
I13
tp2839
a(S'w'
I2
tp2840
a(S'p2_vo'
I8
tp2841
a(S'w'
I719
tp2842
a(S'w'
I16
tp2843
a(S'w'
I1
tp2844
a(S'p2_vo'
I7
tp2845
a(S'w'
I715
tp2846
a(S'p1_tl'
I170
tp2847
a(S'w'
I2
tp2848
a(S'p1_vo'
I3
tp2849
a(S'w'
I12
tp2850
a(S'w'
I2
tp2851
a(S'p2_vo'
I0
tp2852
a(S'w'
I719
tp2853
a(S'w'
I30
tp2854
a(S'w'
I1
tp2855
a(S'p2_ll'
I0
tp2856
a(S'w'
I2
tp2857
a(S'p2_vo'
I10
tp2858
a(S'w'
I700
tp2859
a(S'w'
I1
tp2860
a(S'p1_vo'
I4
tp2861
a(S'w'
I14
tp2862
a(S'w'
I721
tp2863
a(S'w'
I15
tp2864
a(S'w'
I2
tp2865
a(S'p2_vo'
I9
tp2866
a(S'w'
I715
tp2867
a(S'p1_tl'
I169
tp2868
a(S'w'
I2
tp2869
a(S'p1_vo'
I3
tp2870
a(S'w'
I13
tp2871
a(S'w'
I2
tp2872
a(S'p2_vo'
I8
tp2873
a(S'w'
I717
tp2874
a(S'w'
I2
tp2875
a(S'p1_vo'
I2
tp2876
a(S'w'
I13
tp2877
a(S'w'
I2
tp2878
a(S'p2_vo'
I7
tp2879
a(S'w'
I716
tp2880
a(S'w'
I2
tp2881
a(S'p1_vo'
I1
tp2882
a(S'w'
I12
tp2883
a(S'w'
I2
tp2884
a(S'p2_vo'
I0
tp2885
a(S'w'
I27
tp2886
a(S'tr_tl'
I171
tp2887
a(S'tr_ll'
I0
tp2888
a(S'tr_th'
I1
tp2889
a(S'w'
I1
tp2890
a(S'tr_lr'
I127
tp2891
a(S'w'
I707
tp2892
a(S'w'
I1
tp2893
a(S'p1_ll'
I0
tp2894
a(S'w'
I2
tp2895
a(S'p1_vo'
I10
tp2896
a(S'w'
I29
tp2897
a(S'p2_ll'
I0
tp2898
a(S'w'
I2
tp2899
a(S'p2_vo'
I10
tp2900
a(S'w'
I682
tp2901
a(S'w'
I15
tp2902
a(S'w'
I720
tp2903
a(S'w'
I15
tp2904
a(S'w'
I2
tp2905
a(S'p2_vo'
I9
tp2906
a(S'w'
I716
tp2907
a(S'w'
I2
tp2908
a(S'p1_vo'
I9
tp2909
a(S'w'
I13
tp2910
a(S'w'
I2
tp2911
a(S'p2_vo'
I8
tp2912
a(S'w'
I718
tp2913
a(S'w'
I15
tp2914
a(S'w'
I2
tp2915
a(S'p2_vo'
I7
tp2916
a(S'w'
I715
tp2917
a(S'w'
I2
tp2918
a(S'p1_vo'
I8
tp2919
a(S'w'
I13
tp2920
a(S'w'
I1
tp2921
a(S'p2_vo'
I0
tp2922
a(S'w'
I720
tp2923
a(S'w'
I30
tp2924
a(S'p2_ll'
I0
tp2925
a(S'w'
I2
tp2926
a(S'p2_vo'
I10
tp2927
a(S'w'
I700
tp2928
a(S'w'
I2
tp2929
a(S'p1_vo'
I7
tp2930
a(S'w'
I13
tp2931
a(S'w'
I720
tp2932
a(S'w'
I15
tp2933
a(S'w'
I2
tp2934
a(S'p2_vo'
I9
tp2935
a(S'w'
I716
tp2936
a(S'w'
I1
tp2937
a(S'p1_vo'
I6
tp2938
a(S'w'
I14
tp2939
a(S'w'
I2
tp2940
a(S'p2_vo'
I8
tp2941
a(S'w'
I716
tp2942
a(S'w'
I16
tp2943
a(S'w'
I1
tp2944
a(S'p2_vo'
I7
tp2945
a(S'w'
I717
tp2946
a(S'w'
I15
tp2947
a(S'w'
I1
tp2948
a(S'p2_vo'
I0
tp2949
a(S'w'
I719
tp2950
a(S'w'
I31
tp2951
a(S'p2_ll'
I0
tp2952
a(S'w'
I2
tp2953
a(S'p2_vo'
I10
tp2954
a(S'w'
I700
tp2955
a(S'w'
I2
tp2956
a(S'p1_vo'
I5
tp2957
a(S'w'
I13
tp2958
a(S'w'
I20
tp2959
a(S'tr_lr'
I0
tp2960
a(S'w'
I699
tp2961
a(S'w'
I15
tp2962
a(S'w'
I2
tp2963
a(S'p2_vo'
I9
tp2964
a(S'w'
I716
tp2965
a(S'w'
I16
tp2966
a(S'w'
I1
tp2967
a(S'p2_vo'
I8
tp2968
a(S'w'
I719
tp2969
a(S'w'
I15
tp2970
a(S'w'
I1
tp2971
a(S'p2_vo'
I7
tp2972
a(S'w'
I716
tp2973
a(S'w'
I2
tp2974
a(S'p1_vo'
I6
tp2975
a(S'w'
I13
tp2976
a(S'w'
I1
tp2977
a(S'p2_vo'
I0
tp2978
a(S'w'
I719
tp2979
a(S'w'
I30
tp2980
a(S'w'
I1
tp2981
a(S'p2_ll'
I0
tp2982
a(S'w'
I2
tp2983
a(S'p2_vo'
I10
tp2984
a(S'w'
I700
tp2985
a(S'w'
I1
tp2986
a(S'p1_vo'
I7
tp2987
a(S'w'
I14
tp2988
a(S'w'
I720
tp2989
a(S'w'
I15
tp2990
a(S'w'
I2
tp2991
a(S'p2_vo'
I9
tp2992
a(S'w'
I716
tp2993
a(S'w'
I2
tp2994
a(S'p1_vo'
I6
tp2995
a(S'w'
I14
tp2996
a(S'w'
I1
tp2997
a(S'p2_vo'
I8
tp2998
a(S'w'
I717
tp2999
a(S'w'
I2
tp3000
a(S'p1_vo'
I5
tp3001
a(S'w'
I13
tp3002
a(S'w'
I2
tp3003
a(S'p2_vo'
I7
tp3004
a(S'w'
I716
tp3005
a(S'w'
I2
tp3006
a(S'p1_vo'
I4
tp3007
a(S'w'
I13
tp3008
a(S'w'
I1
tp3009
a(S'p2_vo'
I0
tp3010
a(S'w'
I22
tp3011
a(S'tr_tl'
I197
tp3012
a(S'tr_ll'
I0
tp3013
a(S'w'
I1
tp3014
a(S'tr_lr'
I127
tp3015
a(S'w'
I709
tp3016
a(S'p1_tl'
I190
tp3017
a(S'p1_ll'
I0
tp3018
a(S'w'
I2
tp3019
a(S'p1_vo'
I10
tp3020
a(S'w'
I32
tp3021
a(S'p2_tl'
I226
tp3022
a(S'w'
I1
tp3023
a(S'p2_ll'
I0
tp3024
a(S'w'
I2
tp3025
a(S'p2_vo'
I10
tp3026
a(S'w'
I683
tp3027
a(S'w'
I15
tp3028
a(S'w'
I719
tp3029
a(S'w'
I16
tp3030
a(S'w'
I1
tp3031
a(S'p2_vo'
I9
tp3032
a(S'w'
I716
tp3033
a(S'w'
I2
tp3034
a(S'p1_vo'
I9
tp3035
a(S'w'
I13
tp3036
a(S'w'
I2
tp3037
a(S'p2_vo'
I8
tp3038
a(S'w'
I718
tp3039
a(S'w'
I15
tp3040
a(S'w'
I2
tp3041
a(S'p2_vo'
I7
tp3042
a(S'w'
I716
tp3043
a(S'w'
I1
tp3044
a(S'p1_vo'
I8
tp3045
a(S'w'
I13
tp3046
a(S'w'
I1
tp3047
a(S'p2_vo'
I0
tp3048
a(S'w'
I720
tp3049
a(S'w'
I29
tp3050
a(S'p2_ll'
I0
tp3051
a(S'w'
I3
tp3052
a(S'p2_vo'
I10
tp3053
a(S'w'
I700
tp3054
a(S'w'
I2
tp3055
a(S'p1_vo'
I7
tp3056
a(S'w'
I13
tp3057
a(S'w'
I720
tp3058
a(S'w'
I15
tp3059
a(S'w'
I2
tp3060
a(S'p2_vo'
I9
tp3061
a(S'w'
I716
tp3062
a(S'w'
I2
tp3063
a(S'p1_vo'
I6
tp3064
a(S'w'
I13
tp3065
a(S'w'
I2
tp3066
a(S'p2_vo'
I8
tp3067
a(S'w'
I717
tp3068
a(S'w'
I15
tp3069
a(S'w'
I2
tp3070
a(S'p2_vo'
I7
tp3071
a(S'w'
I716
tp3072
a(S'w'
I15
tp3073
a(S'w'
I1
tp3074
a(S'p2_vo'
I0
tp3075
a(S'w'
I719
tp3076
a(S'w'
I30
tp3077
a(S'p2_ll'
I0
tp3078
a(S'w'
I2
tp3079
a(S'p2_vo'
I10
tp3080
a(S'w'
I701
tp3081
a(S'w'
I2
tp3082
a(S'p1_vo'
I5
tp3083
a(S'w'
I13
tp3084
a(S'w'
I21
tp3085
a(S'tr_lr'
I0
tp3086
a(S'w'
I698
tp3087
a(S'w'
I15
tp3088
a(S'w'
I2
tp3089
a(S'p2_vo'
I9
tp3090
a(S'w'
I717
tp3091
a(S'w'
I15
tp3092
a(S'w'
I2
tp3093
a(S'p2_vo'
I8
tp3094
a(S'w'
I718
tp3095
a(S'w'
I15
tp3096
a(S'w'
I2
tp3097
a(S'p2_vo'
I7
tp3098
a(S'w'
I715
tp3099
a(S'w'
I2
tp3100
a(S'p1_vo'
I6
tp3101
a(S'w'
I13
tp3102
a(S'w'
I1
tp3103
a(S'p2_vo'
I0
tp3104
a(S'w'
I719
tp3105
a(S'w'
I30
tp3106
a(S'p2_ll'
I0
tp3107
a(S'w'
I2
tp3108
a(S'p2_vo'
I10
tp3109
a(S'w'
I701
tp3110
a(S'w'
I2
tp3111
a(S'p1_vo'
I7
tp3112
a(S'w'
I13
tp3113
a(S'w'
I720
tp3114
a(S'w'
I15
tp3115
a(S'w'
I2
tp3116
a(S'p2_vo'
I9
tp3117
a(S'w'
I717
tp3118
a(S'w'
I1
tp3119
a(S'p1_vo'
I6
tp3120
a(S'w'
I14
tp3121
a(S'w'
I2
tp3122
a(S'p2_vo'
I8
tp3123
a(S'w'
I717
tp3124
a(S'w'
I1
tp3125
a(S'p1_vo'
I5
tp3126
a(S'w'
I14
tp3127
a(S'w'
I1
tp3128
a(S'p2_vo'
I7
tp3129
a(S'w'
I716
tp3130
a(S'w'
I2
tp3131
a(S'p1_vo'
I4
tp3132
a(S'w'
I13
tp3133
a(S'w'
I1
tp3134
a(S'p2_vo'
I0
tp3135
a(S'w'
I22
tp3136
a(S'tr_tl'
I252
tp3137
a(S'tr_ll'
I0
tp3138
a(S'w'
I2
tp3139
a(S'tr_lr'
I127
tp3140
a(S'w'
I711
tp3141
a(S'p1_tl'
I213
tp3142
a(S'p1_ll'
I0
tp3143
a(S'w'
I2
tp3144
a(S'p1_vo'
I10
tp3145
a(S'w'
I27
tp3146
a(S'p2_tl'
I254
tp3147
a(S'w'
I1
tp3148
a(S'p2_ll'
I0
tp3149
a(S'w'
I2
tp3150
a(S'p2_vo'
I10
tp3151
a(S'w'
I685
tp3152
a(S'w'
I15
tp3153
a(S'w'
I720
tp3154
a(S'w'
I15
tp3155
a(S'w'
I2
tp3156
a(S'p2_vo'
I9
tp3157
a(S'w'
I715
tp3158
a(S'w'
I2
tp3159
a(S'p1_vo'
I9
tp3160
a(S'w'
I14
tp3161
a(S'w'
I1
tp3162
a(S'p2_vo'
I8
tp3163
a(S'w'
I718
tp3164
a(S'w'
I16
tp3165
a(S'w'
I1
tp3166
a(S'p2_vo'
I7
tp3167
a(S'w'
I716
tp3168
a(S'w'
I2
tp3169
a(S'p1_vo'
I8
tp3170
a(S'w'
I12
tp3171
a(S'w'
I2
tp3172
a(S'p2_vo'
I0
tp3173
a(S'w'
I719
tp3174
a(S'w'
I25
tp3175
a(S'p2_ll'
I0
tp3176
a(S'w'
I2
tp3177
a(S'p2_vo'
I10
tp3178
a(S'w'
I706
tp3179
a(S'w'
I1
tp3180
a(S'p1_vo'
I7
tp3181
a(S'w'
I14
tp3182
a(S'w'
I720
tp3183
a(S'w'
I15
tp3184
a(S'w'
I1
tp3185
a(S'p2_vo'
I9
tp3186
a(S'w'
I716
tp3187
a(S'w'
I2
tp3188
a(S'p1_vo'
I6
tp3189
a(S'w'
I13
tp3190
a(S'w'
I2
tp3191
a(S'p2_vo'
I8
tp3192
a(S'w'
I717
tp3193
a(S'w'
I15
tp3194
a(S'w'
I2
tp3195
a(S'p2_vo'
I7
tp3196
a(S'w'
I717
tp3197
a(S'w'
I14
tp3198
a(S'w'
I1
tp3199
a(S'p2_vo'
I0
tp3200
a(S'w'
I720
tp3201
a(S'w'
I25
tp3202
a(S'p2_tl'
I213
tp3203
a(S'w'
I1
tp3204
a(S'p2_ll'
I0
tp3205
a(S'w'
I2
tp3206
a(S'p2_vo'
I10
tp3207
a(S'w'
I704
tp3208
a(S'w'
I2
tp3209
a(S'p1_vo'
I5
tp3210
a(S'w'
I14
tp3211
a(S'w'
I20
tp3212
a(S'tr_lr'
I0
tp3213
a(S'w'
I698
tp3214
a(S'w'
I15
tp3215
a(S'w'
I2
tp3216
a(S'p2_vo'
I9
tp3217
a(S'w'
I717
tp3218
a(S'w'
I15
tp3219
a(S'w'
I2
tp3220
a(S'p2_vo'
I8
tp3221
a(S'w'
I718
tp3222
a(S'w'
I15
tp3223
a(S'w'
I2
tp3224
a(S'p2_vo'
I7
tp3225
a(S'w'
I716
tp3226
a(S'w'
I1
tp3227
a(S'p1_vo'
I6
tp3228
a(S'w'
I13
tp3229
a(S'w'
I1
tp3230
a(S'p2_vo'
I0
tp3231
a(S'w'
I719
tp3232
a(S'w'
I26
tp3233
a(S'p2_ll'
I0
tp3234
a(S'w'
I3
tp3235
a(S'p2_vo'
I10
tp3236
a(S'w'
I704
tp3237
a(S'w'
I2
tp3238
a(S'p1_vo'
I7
tp3239
a(S'w'
I13
tp3240
a(S'w'
I720
tp3241
a(S'w'
I15
tp3242
a(S'w'
I2
tp3243
a(S'p2_vo'
I9
tp3244
a(S'w'
I717
tp3245
a(S'w'
I2
tp3246
a(S'p1_vo'
I6
tp3247
a(S'w'
I13
tp3248
a(S'w'
I2
tp3249
a(S'p2_vo'
I8
tp3250
a(S'w'
I717
tp3251
a(S'w'
I1
tp3252
a(S'p1_vo'
I5
tp3253
a(S'w'
I14
tp3254
a(S'w'
I2
tp3255
a(S'p2_vo'
I7
tp3256
a(S'w'
I715
tp3257
a(S'w'
I2
tp3258
a(S'p1_vo'
I4
tp3259
a(S'w'
I13
tp3260
a(S'w'
I1
tp3261
a(S'p2_vo'
I0
tp3262
a(S'w'
I22
tp3263
a(S'tr_tl'
I166
tp3264
a(S'tr_ll'
I0
tp3265
a(S'tr_th'
I2
tp3266
a(S'w'
I1
tp3267
a(S'tr_lr'
I127
tp3268
a(S'w'
I696
tp3269
a(S'w'
I31
tp3270
a(S'p2_tl'
I169
tp3271
a(S'p2_ll'
I0
tp3272
a(S'w'
I2
tp3273
a(S'p2_vo'
I10
tp3274
a(S'w'
I700
tp3275
a(S'w'
I2
tp3276
a(S'p1_vo'
I5
tp3277
a(S'w'
I13
tp3278
a(S'w'
I720
tp3279
a(S'w'
I15
tp3280
a(S'w'
I2
tp3281
a(S'p2_vo'
I9
tp3282
a(S'w'
I716
tp3283
a(S'w'
I1
tp3284
a(S'p1_vo'
I6
tp3285
a(S'w'
I14
tp3286
a(S'w'
I2
tp3287
a(S'p2_vo'
I8
tp3288
a(S'w'
I718
tp3289
a(S'w'
I15
tp3290
a(S'w'
I1
tp3291
a(S'p2_vo'
I7
tp3292
a(S'w'
I717
tp3293
a(S'w'
I2
tp3294
a(S'p1_vo'
I5
tp3295
a(S'w'
I13
tp3296
a(S'w'
I1
tp3297
a(S'p2_vo'
I0
tp3298
a(S'w'
I718
tp3299
a(S'w'
I2
tp3300
a(S'p1_vo'
I4
tp3301
a(S'w'
I29
tp3302
a(S'p2_ll'
I0
tp3303
a(S'w'
I2
tp3304
a(S'p2_vo'
I10
tp3305
a(S'w'
I700
tp3306
a(S'w'
I1
tp3307
a(S'p1_vo'
I3
tp3308
a(S'w'
I14
tp3309
a(S'w'
I721
tp3310
a(S'w'
I15
tp3311
a(S'w'
I2
tp3312
a(S'p2_vo'
I9
tp3313
a(S'w'
I714
tp3314
a(S'p1_tl'
I212
tp3315
a(S'w'
I2
tp3316
a(S'p1_vo'
I4
tp3317
a(S'w'
I14
tp3318
a(S'w'
I1
tp3319
a(S'p2_vo'
I8
tp3320
a(S'w'
I718
tp3321
a(S'w'
I16
tp3322
a(S'w'
I1
tp3323
a(S'p2_vo'
I7
tp3324
a(S'w'
I716
tp3325
a(S'w'
I2
tp3326
a(S'p1_vo'
I5
tp3327
a(S'w'
I13
tp3328
a(S'w'
I1
tp3329
a(S'p2_vo'
I0
tp3330
a(S'w'
I736
tp3331
a(S'p1_tl'
I189
tp3332
a(S'p1_ll'
I0
tp3333
a(S'w'
I2
tp3334
a(S'p1_vo'
I10
tp3335
a(S'w'
I29
tp3336
a(S'p2_ll'
I0
tp3337
a(S'w'
I2
tp3338
a(S'p2_vo'
I10
tp3339
a(S'w'
I683
tp3340
a(S'p1_tl'
I190
tp3341
a(S'w'
I15
tp3342
a(S'w'
I20
tp3343
a(S'tr_lr'
I0
tp3344
a(S'w'
I700
tp3345
a(S'w'
I15
tp3346
a(S'w'
I2
tp3347
a(S'p2_vo'
I9
tp3348
a(S'w'
I715
tp3349
a(S'w'
I2
tp3350
a(S'p1_vo'
I9
tp3351
a(S'w'
I13
tp3352
a(S'w'
I2
tp3353
a(S'p2_vo'
I8
tp3354
a(S'w'
I718
tp3355
a(S'w'
I15
tp3356
a(S'w'
I2
tp3357
a(S'p2_vo'
I7
tp3358
a(S'w'
I716
tp3359
a(S'w'
I1
tp3360
a(S'p1_vo'
I8
tp3361
a(S'w'
I13
tp3362
a(S'w'
I1
tp3363
a(S'p2_vo'
I0
tp3364
a(S'w'
I720
tp3365
a(S'w'
I30
tp3366
a(S'p2_ll'
I0
tp3367
a(S'w'
I3
tp3368
a(S'p2_vo'
I10
tp3369
a(S'w'
I699
tp3370
a(S'w'
I2
tp3371
a(S'p1_vo'
I7
tp3372
a(S'w'
I14
tp3373
a(S'w'
I719
tp3374
a(S'w'
I16
tp3375
a(S'w'
I1
tp3376
a(S'p2_vo'
I9
tp3377
a(S'w'
I716
tp3378
a(S'w'
I2
tp3379
a(S'p1_vo'
I6
tp3380
a(S'w'
I13
tp3381
a(S'w'
I2
tp3382
a(S'p2_vo'
I8
tp3383
a(S'w'
I717
tp3384
a(S'w'
I15
tp3385
a(S'w'
I2
tp3386
a(S'p2_vo'
I7
tp3387
a(S'w'
I717
tp3388
a(S'w'
I14
tp3389
a(S'w'
I2
tp3390
a(S'p2_vo'
I0
tp3391
a(S'w'
I21
tp3392
a(S'tr_tl'
I58
tp3393
a(S'w'
I1
tp3394
a(S'tr_ll'
I0
tp3395
a(S'w'
I1
tp3396
a(S'tr_lr'
I127
tp3397
a(S'w'
I710
tp3398
a(S'p1_tl'
I226
tp3399
a(S'w'
I1
tp3400
a(S'p1_ll'
I0
tp3401
a(S'w'
I2
tp3402
a(S'p1_vo'
I10
tp3403
a(S'w'
I27
tp3404
a(S'p2_tl'
I29
tp3405
a(S'p2_ll'
I0
tp3406
a(S'p2_th'
I1
tp3407
a(S'w'
I2
tp3408
a(S'p2_vo'
I10
tp3409
a(S'w'
I686
tp3410
a(S'w'
I15
tp3411
a(S'w'
I720
tp3412
a(S'w'
I16
tp3413
a(S'w'
I1
tp3414
a(S'p2_vo'
I9
tp3415
a(S'w'
I716
tp3416
a(S'w'
I2
tp3417
a(S'p1_vo'
I9
tp3418
a(S'w'
I13
tp3419
a(S'w'
I2
tp3420
a(S'p2_vo'
I8
tp3421
a(S'w'
I718
tp3422
a(S'w'
I15
tp3423
a(S'w'
I2
tp3424
a(S'p2_vo'
I7
tp3425
a(S'w'
I715
tp3426
a(S'w'
I2
tp3427
a(S'p1_vo'
I8
tp3428
a(S'w'
I13
tp3429
a(S'w'
I1
tp3430
a(S'p2_vo'
I0
tp3431
a(S'w'
I719
tp3432
a(S'w'
I25
tp3433
a(S'p2_ll'
I0
tp3434
a(S'w'
I2
tp3435
a(S'p2_vo'
I10
tp3436
a(S'w'
I706
tp3437
a(S'w'
I2
tp3438
a(S'p1_vo'
I7
tp3439
a(S'w'
I13
tp3440
a(S'w'
I720
tp3441
a(S'w'
I15
tp3442
a(S'w'
I2
tp3443
a(S'p2_vo'
I9
tp3444
a(S'w'
I716
tp3445
a(S'w'
I1
tp3446
a(S'p1_vo'
I6
tp3447
a(S'w'
I14
tp3448
a(S'w'
I2
tp3449
a(S'p2_vo'
I8
tp3450
a(S'w'
I716
tp3451
a(S'w'
I16
tp3452
a(S'w'
I1
tp3453
a(S'p2_vo'
I7
tp3454
a(S'w'
I717
tp3455
a(S'w'
I15
tp3456
a(S'w'
I1
tp3457
a(S'p2_vo'
I0
tp3458
a(S'w'
I719
tp3459
a(S'w'
I25
tp3460
a(S'p2_tl'
I226
tp3461
a(S'p2_ll'
I0
tp3462
a(S'p2_th'
I0
tp3463
a(S'w'
I2
tp3464
a(S'p2_vo'
I10
tp3465
a(S'w'
I706
tp3466
a(S'w'
I1
tp3467
a(S'p1_vo'
I5
tp3468
a(S'w'
I14
tp3469
a(S'w'
I20
tp3470
a(S'tr_lr'
I0
tp3471
a(S'w'
I698
tp3472
a(S'w'
I16
tp3473
a(S'w'
I1
tp3474
a(S'p2_vo'
I9
tp3475
a(S'w'
I717
tp3476
a(S'w'
I15
tp3477
a(S'w'
I2
tp3478
a(S'p2_vo'
I8
tp3479
a(S'w'
I718
tp3480
a(S'w'
I15
tp3481
a(S'w'
I2
tp3482
a(S'p2_vo'
I7
tp3483
a(S'w'
I716
tp3484
a(S'w'
I2
tp3485
a(S'p1_vo'
I6
tp3486
a(S'w'
I12
tp3487
a(S'w'
I1
tp3488
a(S'p2_vo'
I0
tp3489
a(S'w'
I720
tp3490
a(S'w'
I24
tp3491
a(S'w'
I1
tp3492
a(S'p2_ll'
I0
tp3493
a(S'w'
I2
tp3494
a(S'p2_vo'
I10
tp3495
a(S'w'
I706
tp3496
a(S'w'
I1
tp3497
a(S'p1_vo'
I7
tp3498
a(S'w'
I14
tp3499
a(S'w'
I719
tp3500
a(S'w'
I16
tp3501
a(S'w'
I1
tp3502
a(S'p2_vo'
I9
tp3503
a(S'w'
I717
tp3504
a(S'w'
I2
tp3505
a(S'p1_vo'
I6
tp3506
a(S'w'
I13
tp3507
a(S'w'
I2
tp3508
a(S'p2_vo'
I8
tp3509
a(S'w'
I717
tp3510
a(S'w'
I2
tp3511
a(S'p1_vo'
I5
tp3512
a(S'w'
I13
tp3513
a(S'w'
I2
tp3514
a(S'p2_vo'
I7
tp3515
a(S'w'
I716
tp3516
a(S'w'
I1
tp3517
a(S'p1_vo'
I4
tp3518
a(S'w'
I13
tp3519
a(S'w'
I1
tp3520
a(S'p2_vo'
I0
tp3521
a(S'w'
I22
tp3522
a(S'tr_tl'
I249
tp3523
a(S'w'
I1
tp3524
a(S'tr_ll'
I0
tp3525
a(S'w'
I1
tp3526
a(S'tr_lr'
I127
tp3527
a(S'w'
I696
tp3528
a(S'w'
I30
tp3529
a(S'p2_tl'
I190
tp3530
a(S'w'
I1
tp3531
a(S'p2_ll'
I0
tp3532
a(S'w'
I2
tp3533
a(S'p2_vo'
I10
tp3534
a(S'w'
I699
tp3535
a(S'w'
I2
tp3536
a(S'p1_vo'
I5
tp3537
a(S'w'
I14
tp3538
a(S'w'
I719
tp3539
a(S'w'
I15
tp3540
a(S'w'
I2
tp3541
a(S'p2_vo'
I9
tp3542
a(S'w'
I716
tp3543
a(S'w'
I2
tp3544
a(S'p1_vo'
I6
tp3545
a(S'w'
I13
tp3546
a(S'w'
I2
tp3547
a(S'p2_vo'
I8
tp3548
a(S'w'
I718
tp3549
a(S'w'
I15
tp3550
a(S'w'
I2
tp3551
a(S'p2_vo'
I7
tp3552
a(S'w'
I717
tp3553
a(S'w'
I1
tp3554
a(S'p1_vo'
I5
tp3555
a(S'w'
I13
tp3556
a(S'w'
I1
tp3557
a(S'p2_vo'
I0
tp3558
a(S'w'
I718
tp3559
a(S'w'
I2
tp3560
a(S'p1_vo'
I4
tp3561
a(S'w'
I29
tp3562
a(S'p2_ll'
I0
tp3563
a(S'w'
I2
tp3564
a(S'p2_vo'
I10
tp3565
a(S'w'
I700
tp3566
a(S'w'
I2
tp3567
a(S'p1_vo'
I3
tp3568
a(S'w'
I13
tp3569
a(S'w'
I721
tp3570
a(S'w'
I15
tp3571
a(S'w'
I2
tp3572
a(S'p2_vo'
I9
tp3573
a(S'w'
I715
tp3574
a(S'p1_tl'
I225
tp3575
a(S'w'
I1
tp3576
a(S'p1_vo'
I4
tp3577
a(S'w'
I14
tp3578
a(S'w'
I2
tp3579
a(S'p2_vo'
I8
tp3580
a(S'w'
I718
tp3581
a(S'w'
I15
tp3582
a(S'w'
I2
tp3583
a(S'p2_vo'
I7
tp3584
a(S'w'
I716
tp3585
a(S'w'
I1
tp3586
a(S'p1_vo'
I5
tp3587
a(S'w'
I13
tp3588
a(S'w'
I1
tp3589
a(S'p2_vo'
I0
tp3590
a(S'w'
I736
tp3591
a(S'p1_tl'
I212
tp3592
a(S'p1_ll'
I0
tp3593
a(S'w'
I3
tp3594
a(S'p1_vo'
I10
tp3595
a(S'w'
I28
tp3596
a(S'w'
I1
tp3597
a(S'p2_ll'
I0
tp3598
a(S'w'
I2
tp3599
a(S'p2_vo'
I10
tp3600
a(S'w'
I682
tp3601
a(S'p1_tl'
I213
tp3602
a(S'w'
I15
tp3603
a(S'w'
I20
tp3604
a(S'tr_lr'
I0
tp3605
a(S'w'
I700
tp3606
a(S'w'
I15
tp3607
a(S'w'
I2
tp3608
a(S'p2_vo'
I9
tp3609
a(S'w'
I716
tp3610
a(S'w'
I1
tp3611
a(S'p1_vo'
I9
tp3612
a(S'w'
I14
tp3613
a(S'w'
I1
tp3614
a(S'p2_vo'
I8
tp3615
a(S'w'
I719
tp3616
a(S'w'
I15
tp3617
a(S'w'
I1
tp3618
a(S'p2_vo'
I7
tp3619
a(S'w'
I716
tp3620
a(S'w'
I2
tp3621
a(S'p1_vo'
I8
tp3622
a(S'w'
I13
tp3623
a(S'w'
I1
tp3624
a(S'p2_vo'
I0
tp3625
a(S'w'
I719
tp3626
a(S'w'
I31
tp3627
a(S'p2_ll'
I0
tp3628
a(S'w'
I2
tp3629
a(S'p2_vo'
I10
tp3630
a(S'w'
I700
tp3631
a(S'w'
I1
tp3632
a(S'p1_vo'
I7
tp3633
a(S'w'
I14
tp3634
a(S'w'
I720
tp3635
a(S'w'
I15
tp3636
a(S'w'
I2
tp3637
a(S'p2_vo'
I9
tp3638
a(S'w'
I715
tp3639
a(S'w'
I2
tp3640
a(S'p1_vo'
I6
tp3641
a(S'w'
I14
tp3642
a(S'w'
I1
tp3643
a(S'p2_vo'
I8
tp3644
a(S'w'
I717
tp3645
a(S'w'
I15
tp3646
a(S'w'
I2
tp3647
a(S'p2_vo'
I7
tp3648
a(S'w'
I717
tp3649
a(S'w'
I15
tp3650
a(S'w'
I1
tp3651
a(S'p2_vo'
I0
tp3652
a(S'w'
I27
tp3653
a(S'tr_tl'
I128
tp3654
a(S'tr_ll'
I0
tp3655
a(S'w'
I1
tp3656
a(S'tr_lr'
I127
tp3657
a(S'w'
I703
tp3658
a(S'p1_tl'
I254
tp3659
a(S'p1_ll'
I0
tp3660
a(S'w'
I2
tp3661
a(S'p1_vo'
I10
tp3662
a(S'w'
I27
tp3663
a(S'p2_tl'
I64
tp3664
a(S'w'
I1
tp3665
a(S'p2_ll'
I0
tp3666
a(S'p2_th'
I1
tp3667
a(S'w'
I2
tp3668
a(S'p2_vo'
I10
tp3669
a(S'w'
I689
tp3670
a(S'w'
I15
tp3671
a(S'w'
I719
tp3672
a(S'w'
I16
tp3673
a(S'w'
I1
tp3674
a(S'p2_vo'
I9
tp3675
a(S'w'
I716
tp3676
a(S'w'
I2
tp3677
a(S'p1_vo'
I9
tp3678
a(S'w'
I13
tp3679
a(S'w'
I2
tp3680
a(S'p2_vo'
I8
tp3681
a(S'w'
I718
tp3682
a(S'w'
I15
tp3683
a(S'w'
I2
tp3684
a(S'p2_vo'
I7
tp3685
a(S'w'
I716
tp3686
a(S'w'
I1
tp3687
a(S'p1_vo'
I8
tp3688
a(S'w'
I13
tp3689
a(S'w'
I1
tp3690
a(S'p2_vo'
I0
tp3691
a(S'w'
I720
tp3692
a(S'w'
I24
tp3693
a(S'w'
I1
tp3694
a(S'p2_ll'
I0
tp3695
a(S'w'
I2
tp3696
a(S'p2_vo'
I10
tp3697
a(S'w'
I705
tp3698
a(S'w'
I2
tp3699
a(S'p1_vo'
I7
tp3700
a(S'w'
I14
tp3701
a(S'w'
I719
tp3702
a(S'w'
I16
tp3703
a(S'w'
I1
tp3704
a(S'p2_vo'
I9
tp3705
a(S'w'
I716
tp3706
a(S'w'
I2
tp3707
a(S'p1_vo'
I6
tp3708
a(S'w'
I13
tp3709
a(S'w'
I2
tp3710
a(S'p2_vo'
I8
tp3711
a(S'w'
I717
tp3712
a(S'w'
I15
tp3713
a(S'w'
I2
tp3714
a(S'p2_vo'
I7
tp3715
a(S'w'
I717
tp3716
a(S'w'
I14
tp3717
a(S'w'
I2
tp3718
a(S'p2_vo'
I0
tp3719
a(S'w'
I730
tp3720
a(S'p1_tl'
I226
tp3721
a(S'w'
I1
tp3722
a(S'p1_ll'
I0
tp3723
a(S'w'
I2
tp3724
a(S'p1_vo'
I10
tp3725
a(S'w'
I23
tp3726
a(S'p2_tl'
I29
tp3727
a(S'p2_ll'
I0
tp3728
a(S'w'
I2
tp3729
a(S'p2_vo'
I10
tp3730
a(S'w'
I693
tp3731
a(S'w'
I15
tp3732
a(S'w'
I21
tp3733
a(S'tr_lr'
I0
tp3734
a(S'w'
I699
tp3735
a(S'w'
I15
tp3736
a(S'w'
I2
tp3737
a(S'p2_vo'
I9
tp3738
a(S'w'
I716
tp3739
a(S'w'
I1
tp3740
a(S'p1_vo'
I9
tp3741
a(S'w'
I14
tp3742
a(S'w'
I2
tp3743
a(S'p2_vo'
I8
tp3744
a(S'w'
I718
tp3745
a(S'w'
I15
tp3746
a(S'w'
I2
tp3747
a(S'p2_vo'
I7
tp3748
a(S'w'
I715
tp3749
a(S'w'
I2
tp3750
a(S'p1_vo'
I8
tp3751
a(S'w'
I13
tp3752
a(S'w'
I1
tp3753
a(S'p2_vo'
I0
tp3754
a(S'w'
I719
tp3755
a(S'w'
I25
tp3756
a(S'p2_ll'
I0
tp3757
a(S'w'
I2
tp3758
a(S'p2_vo'
I10
tp3759
a(S'w'
I706
tp3760
a(S'w'
I2
tp3761
a(S'p1_vo'
I7
tp3762
a(S'w'
I13
tp3763
a(S'w'
I720
tp3764
a(S'w'
I15
tp3765
a(S'w'
I2
tp3766
a(S'p2_vo'
I9
tp3767
a(S'w'
I716
tp3768
a(S'w'
I1
tp3769
a(S'p1_vo'
I6
tp3770
a(S'w'
I14
tp3771
a(S'w'
I2
tp3772
a(S'p2_vo'
I8
tp3773
a(S'w'
I716
tp3774
a(S'w'
I16
tp3775
a(S'w'
I1
tp3776
a(S'p2_vo'
I7
tp3777
a(S'w'
I717
tp3778
a(S'w'
I15
tp3779
a(S'w'
I1
tp3780
a(S'p2_vo'
I0
tp3781
a(S'w'
I27
tp3782
a(S'tr_ll'
I0
tp3783
a(S'w'
I1
tp3784
a(S'tr_lr'
I127
tp3785
a(S'w'
I704
tp3786
a(S'p1_tl'
I213
tp3787
a(S'p1_ll'
I0
tp3788
a(S'w'
I2
tp3789
a(S'p1_vo'
I10
tp3790
a(S'w'
I23
tp3791
a(S'p2_tl'
I254
tp3792
a(S'w'
I1
tp3793
a(S'p2_ll'
I0
tp3794
a(S'p2_th'
I0
tp3795
a(S'w'
I2
tp3796
a(S'p2_vo'
I10
tp3797
a(S'w'
I692
tp3798
a(S'w'
I15
tp3799
a(S'w'
I720
tp3800
a(S'w'
I15
tp3801
a(S'w'
I2
tp3802
a(S'p2_vo'
I9
tp3803
a(S'w'
I715
tp3804
a(S'w'
I2
tp3805
a(S'p1_vo'
I9
tp3806
a(S'w'
I14
tp3807
a(S'w'
I1
tp3808
a(S'p2_vo'
I8
tp3809
a(S'w'
I718
tp3810
a(S'w'
I16
tp3811
a(S'w'
I1
tp3812
a(S'p2_vo'
I7
tp3813
a(S'w'
I716
tp3814
a(S'w'
I2
tp3815
a(S'p1_vo'
I8
tp3816
a(S'w'
I12
tp3817
a(S'w'
I2
tp3818
a(S'p2_vo'
I0
tp3819
a(S'w'
I719
tp3820
a(S'w'
I25
tp3821
a(S'p2_ll'
I0
tp3822
a(S'w'
I2
tp3823
a(S'p2_vo'
I10
tp3824
a(S'w'
I706
tp3825
a(S'w'
I1
tp3826
a(S'p1_vo'
I7
tp3827
a(S'w'
I14
tp3828
a(S'w'
I720
tp3829
a(S'w'
I15
tp3830
a(S'w'
I2
tp3831
a(S'p2_vo'
I9
tp3832
a(S'w'
I715
tp3833
a(S'w'
I2
tp3834
a(S'p1_vo'
I6
tp3835
a(S'w'
I13
tp3836
a(S'w'
I2
tp3837
a(S'p2_vo'
I8
tp3838
a(S'w'
I717
tp3839
a(S'w'
I15
tp3840
a(S'w'
I2
tp3841
a(S'p2_vo'
I7
tp3842
a(S'w'
I717
tp3843
a(S'w'
I14
tp3844
a(S'w'
I2
tp3845
a(S'p2_vo'
I0
tp3846
a(S'w'
I732
tp3847
a(S'p1_tl'
I190
tp3848
a(S'p1_ll'
I0
tp3849
a(S'w'
I2
tp3850
a(S'p1_vo'
I10
tp3851
a(S'w'
I23
tp3852
a(S'p2_tl'
I226
tp3853
a(S'p2_ll'
I0
tp3854
a(S'w'
I2
tp3855
a(S'p2_vo'
I10
tp3856
a(S'w'
I692
tp3857
a(S'w'
I16
tp3858
a(S'w'
I20
tp3859
a(S'tr_lr'
I0
tp3860
a(S'w'
I699
tp3861
a(S'w'
I16
tp3862
a(S'w'
I1
tp3863
a(S'p2_vo'
I9
tp3864
a(S'w'
I716
tp3865
a(S'w'
I2
tp3866
a(S'p1_vo'
I9
tp3867
a(S'w'
I13
tp3868
a(S'w'
I2
tp3869
a(S'p2_vo'
I8
tp3870
a(S'w'
I718
tp3871
a(S'w'
I15
tp3872
a(S'w'
I2
tp3873
a(S'p2_vo'
I7
tp3874
a(S'w'
I716
tp3875
a(S'w'
I1
tp3876
a(S'p1_vo'
I8
tp3877
a(S'w'
I13
tp3878
a(S'w'
I1
tp3879
a(S'p2_vo'
I0
tp3880
a(S'w'
I720
tp3881
a(S'w'
I24
tp3882
a(S'w'
I1
tp3883
a(S'p2_ll'
I0
tp3884
a(S'w'
I2
tp3885
a(S'p2_vo'
I10
tp3886
a(S'w'
I705
tp3887
a(S'w'
I2
tp3888
a(S'p1_vo'
I7
tp3889
a(S'w'
I13
tp3890
a(S'w'
I720
tp3891
a(S'w'
I15
tp3892
a(S'w'
I2
tp3893
a(S'p2_vo'
I9
tp3894
a(S'w'
I716
tp3895
a(S'w'
I2
tp3896
a(S'p1_vo'
I6
tp3897
a(S'w'
I13
tp3898
a(S'w'
I2
tp3899
a(S'p2_vo'
I8
tp3900
a(S'w'
I717
tp3901
a(S'w'
I15
tp3902
a(S'w'
I2
tp3903
a(S'p2_vo'
I7
tp3904
a(S'w'
I717
tp3905
a(S'w'
I14
tp3906
a(S'w'
I1
tp3907
a(S'p2_vo'
I0
tp3908
a(S'w'
I27
tp3909
a(S'tr_ll'
I0
tp3910
a(S'w'
I2
tp3911
a(S'tr_lr'
I127
tp3912
a(S'w'
I703
tp3913
a(S'p1_tl'
I169
tp3914
a(S'p1_ll'
I0
tp3915
a(S'w'
I3
tp3916
a(S'p1_vo'
I10
tp3917
a(S'w'
I23
tp3918
a(S'p2_tl'
I213
tp3919
a(S'w'
I1
tp3920
a(S'p2_ll'
I0
tp3921
a(S'w'
I2
tp3922
a(S'p2_vo'
I10
tp3923
a(S'w'
I691
tp3924
a(S'w'
I15
tp3925
a(S'w'
I720
tp3926
a(S'w'
I15
tp3927
a(S'w'
I2
tp3928
a(S'p2_vo'
I9
tp3929
a(S'w'
I716
tp3930
a(S'w'
I1
tp3931
a(S'p1_vo'
I9
tp3932
a(S'w'
I14
tp3933
a(S'w'
I2
tp3934
a(S'p2_vo'
I8
tp3935
a(S'w'
I718
tp3936
a(S'w'
I15
tp3937
a(S'w'
I1
tp3938
a(S'p2_vo'
I7
tp3939
a(S'w'
I716
tp3940
a(S'w'
I2
tp3941
a(S'p1_vo'
I8
tp3942
a(S'w'
I13
tp3943
a(S'w'
I1
tp3944
a(S'p2_vo'
I0
tp3945
a(S'w'
I719
tp3946
a(S'w'
I26
tp3947
a(S'p2_ll'
I0
tp3948
a(S'w'
I2
tp3949
a(S'p2_vo'
I10
tp3950
a(S'w'
I705
tp3951
a(S'w'
I2
tp3952
a(S'p1_vo'
I7
tp3953
a(S'w'
I13
tp3954
a(S'w'
I720
tp3955
a(S'w'
I15
tp3956
a(S'w'
I2
tp3957
a(S'p2_vo'
I9
tp3958
a(S'w'
I715
tp3959
a(S'w'
I2
tp3960
a(S'p1_vo'
I6
tp3961
a(S'w'
I14
tp3962
a(S'w'
I1
tp3963
a(S'p2_vo'
I8
tp3964
a(S'w'
I717
tp3965
a(S'w'
I15
tp3966
a(S'w'
I2
tp3967
a(S'p2_vo'
I7
tp3968
a(S'w'
I717
tp3969
a(S'w'
I15
tp3970
a(S'w'
I1
tp3971
a(S'p2_vo'
I0
tp3972
a(S'w'
I732
tp3973
a(S'p1_tl'
I190
tp3974
a(S'p1_ll'
I0
tp3975
a(S'w'
I2
tp3976
a(S'p1_vo'
I10
tp3977
a(S'w'
I24
tp3978
a(S'p2_tl'
I190
tp3979
a(S'p2_ll'
I0
tp3980
a(S'w'
I2
tp3981
a(S'p2_vo'
I10
tp3982
a(S'w'
I692
tp3983
a(S'w'
I15
tp3984
a(S'w'
I20
tp3985
a(S'tr_lr'
I0
tp3986
a(S'w'
I700
tp3987
a(S'w'
I15
tp3988
a(S'w'
I2
tp3989
a(S'p2_vo'
I9
tp3990
a(S'w'
I715
tp3991
a(S'w'
I2
tp3992
a(S'p1_vo'
I9
tp3993
a(S'w'
I13
tp3994
a(S'w'
I2
tp3995
a(S'p2_vo'
I8
tp3996
a(S'w'
I718
tp3997
a(S'w'
I15
tp3998
a(S'w'
I2
tp3999
a(S'p2_vo'
I7
tp4000
a(S'w'
I716
tp4001
a(S'w'
I2
tp4002
a(S'p1_vo'
I8
tp4003
a(S'w'
I12
tp4004
a(S'w'
I1
tp4005
a(S'p2_vo'
I0
tp4006
a(S'w'
I720
tp4007
a(S'w'
I25
tp4008
a(S'w'
I1
tp4009
a(S'p2_ll'
I0
tp4010
a(S'w'
I2
tp4011
a(S'p2_vo'
I10
tp4012
a(S'w'
I704
tp4013
a(S'w'
I2
tp4014
a(S'p1_vo'
I7
tp4015
a(S'w'
I14
tp4016
a(S'w'
I719
tp4017
a(S'w'
I16
tp4018
a(S'w'
I1
tp4019
a(S'p2_vo'
I9
tp4020
a(S'w'
I716
tp4021
a(S'w'
I2
tp4022
a(S'p1_vo'
I6
tp4023
a(S'w'
I13
tp4024
a(S'w'
I2
tp4025
a(S'p2_vo'
I8
tp4026
a(S'w'
I717
tp4027
a(S'w'
I15
tp4028
a(S'w'
I2
tp4029
a(S'p2_vo'
I7
tp4030
a(S'w'
I717
tp4031
a(S'w'
I14
tp4032
a(S'w'
I2
tp4033
a(S'p2_vo'
I0
tp4034
a(S'w'
I27
tp4035
a(S'tr_ll'
I0
tp4036
a(S'w'
I1
tp4037
a(S'tr_lr'
I127
tp4038
a(S'w'
I702
tp4039
a(S'p1_tl'
I226
tp4040
a(S'w'
I1
tp4041
a(S'p1_ll'
I0
tp4042
a(S'w'
I2
tp4043
a(S'p1_vo'
I10
tp4044
a(S'w'
I24
tp4045
a(S'p2_tl'
I169
tp4046
a(S'p2_ll'
I0
tp4047
a(S'w'
I2
tp4048
a(S'p2_vo'
I10
tp4049
a(S'w'
I692
tp4050
a(S'w'
I15
tp4051
a(S'w'
I720
tp4052
a(S'w'
I15
tp4053
a(S'w'
I2
tp4054
a(S'p2_vo'
I9
tp4055
a(S'w'
I716
tp4056
a(S'w'
I2
tp4057
a(S'p1_vo'
I9
tp4058
a(S'w'
I13
tp4059
a(S'w'
I2
tp4060
a(S'p2_vo'
I8
tp4061
a(S'w'
I718
tp4062
a(S'w'
I15
tp4063
a(S'w'
I2
tp4064
a(S'p2_vo'
I7
tp4065
a(S'w'
I715
tp4066
a(S'w'
I2
tp4067
a(S'p1_vo'
I8
tp4068
a(S'w'
I13
tp4069
a(S'w'
I1
tp4070
a(S'p2_vo'
I0
tp4071
a(S'w'
I719
tp4072
a(S'w'
I26
tp4073
a(S'p2_ll'
I0
tp4074
a(S'w'
I3
tp4075
a(S'p2_vo'
I10
tp4076
a(S'w'
I704
tp4077
a(S'w'
I2
tp4078
a(S'p1_vo'
I7
tp4079
a(S'w'
I13
tp4080
a(S'w'
I720
tp4081
a(S'w'
I15
tp4082
a(S'w'
I2
tp4083
a(S'p2_vo'
I9
tp4084
a(S'w'
I716
tp4085
a(S'w'
I1
tp4086
a(S'p1_vo'
I6
tp4087
a(S'w'
I14
tp4088
a(S'w'
I2
tp4089
a(S'p2_vo'
I8
tp4090
a(S'w'
I716
tp4091
a(S'w'
I16
tp4092
a(S'w'
I1
tp4093
a(S'p2_vo'
I7
tp4094
a(S'w'
I718
tp4095
a(S'w'
I14
tp4096
a(S'w'
I1
tp4097
a(S'p2_vo'
I0
tp4098
a(S'w'
I731
tp4099
a(S'p1_tl'
I254
tp4100
a(S'p1_ll'
I0
tp4101
a(S'w'
I2
tp4102
a(S'p1_vo'
I10
tp4103
a(S'w'
I24
tp4104
a(S'p2_tl'
I160
tp4105
a(S'w'
I1
tp4106
a(S'p2_ll'
I0
tp4107
a(S'w'
I2
tp4108
a(S'p2_vo'
I10
tp4109
a(S'w'
I692
tp4110
a(S'w'
I15
tp4111
a(S'w'
I20
tp4112
a(S'tr_lr'
I0
tp4113
a(S'w'
I700
tp4114
a(S'w'
I15
tp4115
a(S'w'
I2
tp4116
a(S'p2_vo'
I9
tp4117
a(S'w'
I716
tp4118
a(S'w'
I1
tp4119
a(S'p1_vo'
I9
tp4120
a(S'w'
I14
tp4121
a(S'w'
I2
tp4122
a(S'p2_vo'
I8
tp4123
a(S'w'
I717
tp4124
a(S'w'
I16
tp4125
a(S'w'
I1
tp4126
a(S'p2_vo'
I7
tp4127
a(S'w'
I716
tp4128
a(S'w'
I2
tp4129
a(S'p1_vo'
I8
tp4130
a(S'w'
I12
tp4131
a(S'w'
I2
tp4132
a(S'p2_vo'
I0
tp4133
a(S'w'
I719
tp4134
a(S'w'
I26
tp4135
a(S'p2_ll'
I0
tp4136
a(S'w'
I2
tp4137
a(S'p2_vo'
I10
tp4138
a(S'w'
I705
tp4139
a(S'w'
I1
tp4140
a(S'p1_vo'
I7
tp4141
a(S'w'
I14
tp4142
a(S'w'
I720
tp4143
a(S'w'
I15
tp4144
a(S'w'
I2
tp4145
a(S'p2_vo'
I9
tp4146
a(S'w'
I715
tp4147
a(S'w'
I2
tp4148
a(S'p1_vo'
I6
tp4149
a(S'w'
I14
tp4150
a(S'w'
I1
tp4151
a(S'p2_vo'
I8
tp4152
a(S'w'
I717
tp4153
a(S'w'
I15
tp4154
a(S'w'
I2
tp4155
a(S'p2_vo'
I7
tp4156
a(S'w'
I717
tp4157
a(S'w'
I15
tp4158
a(S'w'
I1
tp4159
a(S'p2_vo'
I0
tp4160
a(S'w'
I36
tp4161
a(S'tr_tl'
I171
tp4162
a(S'w'
I1
tp4163
a(S'tr_ll'
I0
tp4164
a(S'tr_th'
I1
tp4165
a(S'w'
I1
tp4166
a(S'tr_lr'
I127
tp4167
a(S'w'
I311
tp4168
a.