(lp1
(S'clock'
p2
I1789772
tp3
a(S'p1_lh'
I1
tp4
a(S'p1_cv'
I1
tp5
a(S'p2_lh'
I1
tp6
a(S'p2_cv'
I1
tp7
a(S'tr_lr'
I48
tp8
a(S'no_lh'
I1
tp9
a(S'no_cv'
I1
tp10
a(S'ch_no'
I1
tp11
a(S'ch_tr'
I1
tp12
a(S'ch_p2'
I1
tp13
a(S'ch_p1'
I1
tp14
a(S'p1_du'
I2
tp15
a(S'p1_vo'
I12
tp16
a(S'p1_sn'
I1
tp17
a(S'w'
I1
tp18
a(S'p1_tl'
I171
tp19
a(S'w'
I1
tp20
a(S'p1_ll'
I19
tp21
a(S'p1_th'
I1
tp22
a(S'w'
I5
tp23
a(S'p2_sn'
I1
tp24
a(S'w'
I1
tp25
a(S'p2_ll'
I3
tp26
a(S'w'
I663
tp27
a(S'p1_vo'
I11
tp28
a(S'w'
I1
tp29
a(S'w'
I6
tp30
a(S'w'
I726
tp31
a(S'w'
I5
tp32
a(S'w'
I730
tp33
a(S'p1_vo'
I10
tp34
a(S'w'
I2
tp35
a(S'w'
I5
tp36
a(S'w'
I745
tp37
a(S'w'
I6
tp38
a(S'w'
I708
tp39
a(S'w'
I6
tp40
a(S'w'
I729
tp41
a(S'p1_vo'
I9
tp42
a(S'w'
I1
tp43
a(S'w'
I6
tp44
a(S'w'
I726
tp45
a(S'w'
I5
tp46
a(S'w'
I729
tp47
a(S'w'
I6
tp48
a(S'w'
I746
tp49
a(S'w'
I5
tp50
a(S'w'
I711
tp51
a(S'p1_vo'
I8
tp52
a(S'w'
I1
tp53
a(S'w'
I6
tp54
a(S'w'
I724
tp55
a(S'w'
I6
tp56
a(S'w'
I752
tp57
a(S'p1_vo'
I12
tp58
a(S'w'
I1
tp59
a(S'p1_tl'
I213
tp60
a(S'w'
I1
tp61
a(S'p1_ll'
I19
tp62
a(S'p1_th'
I0
tp63
a(S'w'
I4
tp64
a(S'p2_du'
I2
tp65
a(S'w'
I1
tp66
a(S'p2_tl'
I171
tp67
a(S'w'
I1
tp68
a(S'p2_ll'
I19
tp69
a(S'p2_th'
I1
tp70
a(S'w'
I706
tp71
a(S'p1_vo'
I11
tp72
a(S'w'
I1
tp73
a(S'w'
I5
tp74
a(S'p2_vo'
I1
tp75
a(S'w'
I1
tp76
a(S'p2_tl'
I169
tp77
a(S'w'
I744
tp78
a(S'w'
I5
tp79
a(S'p2_vo'
I2
tp80
a(S'w'
I1
tp81
a(S'p2_tl'
I168
tp82
a(S'w'
I712
tp83
a(S'p1_vo'
I10
tp84
a(S'w'
I1
tp85
a(S'w'
I5
tp86
a(S'p2_vo'
I3
tp87
a(S'w'
I1
tp88
a(S'p2_tl'
I169
tp89
a(S'w'
I727
tp90
a(S'w'
I4
tp91
a(S'p2_vo'
I4
tp92
a(S'w'
I1
tp93
a(S'p2_tl'
I171
tp94
a(S'w'
I727
tp95
a(S'w'
I4
tp96
a(S'p2_vo'
I5
tp97
a(S'w'
I1
tp98
a(S'p2_tl'
I172
tp99
a(S'w'
I729
tp100
a(S'p1_vo'
I9
tp101
a(S'w'
I1
tp102
a(S'w'
I5
tp103
a(S'p2_vo'
I6
tp104
a(S'w'
I1
tp105
a(S'p2_tl'
I173
tp106
a(S'w'
I744
tp107
a(S'w'
I5
tp108
a(S'p2_vo'
I7
tp109
a(S'w'
I1
tp110
a(S'p2_tl'
I172
tp111
a(S'w'
I711
tp112
a(S'w'
I5
tp113
a(S'p2_vo'
I8
tp114
a(S'w'
I1
tp115
a(S'p2_tl'
I171
tp116
a(S'w'
I726
tp117
a(S'w'
I6
tp118
a(S'p2_tl'
I169
tp119
a(S'w'
I731
tp120
a(S'p1_vo'
I8
tp121
a(S'w'
I1
tp122
a(S'w'
I5
tp123
a(S'p2_vo'
I7
tp124
a(S'w'
I1
tp125
a(S'p2_tl'
I168
tp126
a(S'w'
I722
tp127
a(S'w'
I6
tp128
a(S'p2_tl'
I169
tp129
a(S'w'
I762
tp130
a(S'p1_vo'
I12
tp131
a(S'w'
I1
tp132
a(S'p1_tl'
I226
tp133
a(S'w'
I5
tp134
a(S'p2_vo'
I0
tp135
a(S'w'
I1
tp136
a(S'p2_tl'
I213
tp137
a(S'w'
I1
tp138
a(S'p2_ll'
I19
tp139
a(S'p2_th'
I0
tp140
a(S'w'
I696
tp141
a(S'p1_vo'
I11
tp142
a(S'w'
I1
tp143
a(S'w'
I4
tp144
a(S'p2_vo'
I1
tp145
a(S'w'
I1
tp146
a(S'p2_tl'
I214
tp147
a(S'w'
I726
tp148
a(S'w'
I5
tp149
a(S'p2_vo'
I2
tp150
a(S'w'
I1
tp151
a(S'p2_tl'
I215
tp152
a(S'w'
I729
tp153
a(S'p1_vo'
I10
tp154
a(S'w'
I1
tp155
a(S'w'
I5
tp156
a(S'p2_vo'
I3
tp157
a(S'w'
I1
tp158
a(S'p2_tl'
I214
tp159
a(S'w'
I727
tp160
a(S'w'
I4
tp161
a(S'p2_vo'
I4
tp162
a(S'w'
I1
tp163
a(S'p2_tl'
I213
tp164
a(S'w'
I747
tp165
a(S'w'
I5
tp166
a(S'p2_vo'
I5
tp167
a(S'w'
I1
tp168
a(S'p2_tl'
I211
tp169
a(S'w'
I711
tp170
a(S'p1_vo'
I9
tp171
a(S'w'
I1
tp172
a(S'w'
I4
tp173
a(S'p2_vo'
I6
tp174
a(S'w'
I1
tp175
a(S'p2_tl'
I210
tp176
a(S'w'
I727
tp177
a(S'w'
I4
tp178
a(S'p2_vo'
I7
tp179
a(S'w'
I1
tp180
a(S'p2_tl'
I211
tp181
a(S'w'
I727
tp182
a(S'w'
I4
tp183
a(S'p2_vo'
I8
tp184
a(S'w'
I1
tp185
a(S'p2_tl'
I213
tp186
a(S'w'
I728
tp187
a(S'w'
I6
tp188
a(S'p2_tl'
I214
tp189
a(S'w'
I749
tp190
a(S'p1_vo'
I8
tp191
a(S'w'
I1
tp192
a(S'w'
I5
tp193
a(S'p2_vo'
I7
tp194
a(S'w'
I1
tp195
a(S'p2_tl'
I215
tp196
a(S'w'
I706
tp197
a(S'w'
I6
tp198
a(S'p2_tl'
I214
tp199
a(S'w'
I741
tp200
a(S'p1_vo'
I12
tp201
a(S'w'
I2
tp202
a(S'p1_tl'
I239
tp203
a(S'w'
I4
tp204
a(S'p2_vo'
I0
tp205
a(S'w'
I1
tp206
a(S'p2_tl'
I226
tp207
a(S'w'
I715
tp208
a(S'p1_vo'
I11
tp209
a(S'w'
I1
tp210
a(S'w'
I4
tp211
a(S'p2_vo'
I1
tp212
a(S'w'
I2
tp213
a(S'p2_tl'
I224
tp214
a(S'w'
I726
tp215
a(S'w'
I4
tp216
a(S'p2_vo'
I2
tp217
a(S'w'
I1
tp218
a(S'p2_tl'
I223
tp219
a(S'w'
I749
tp220
a(S'p1_vo'
I10
tp221
a(S'w'
I1
tp222
a(S'w'
I4
tp223
a(S'p2_vo'
I3
tp224
a(S'w'
I1
tp225
a(S'p2_tl'
I224
tp226
a(S'w'
I708
tp227
a(S'w'
I5
tp228
a(S'p2_vo'
I4
tp229
a(S'w'
I1
tp230
a(S'p2_tl'
I226
tp231
a(S'w'
I727
tp232
a(S'w'
I4
tp233
a(S'p2_vo'
I5
tp234
a(S'w'
I2
tp235
a(S'p2_tl'
I227
tp236
a(S'w'
I730
tp237
a(S'p1_vo'
I9
tp238
a(S'w'
I1
tp239
a(S'w'
I4
tp240
a(S'p2_vo'
I6
tp241
a(S'w'
I1
tp242
a(S'p2_tl'
I228
tp243
a(S'w'
I725
tp244
a(S'w'
I5
tp245
a(S'p2_vo'
I7
tp246
a(S'w'
I1
tp247
a(S'p2_tl'
I227
tp248
a(S'w'
I747
tp249
a(S'w'
I5
tp250
a(S'p2_vo'
I8
tp251
a(S'w'
I1
tp252
a(S'p2_tl'
I226
tp253
a(S'w'
I707
tp254
a(S'w'
I6
tp255
a(S'p2_tl'
I224
tp256
a(S'w'
I731
tp257
a(S'p1_vo'
I8
tp258
a(S'w'
I1
tp259
a(S'w'
I5
tp260
a(S'p2_vo'
I7
tp261
a(S'w'
I1
tp262
a(S'p2_tl'
I223
tp263
a(S'w'
I724
tp264
a(S'w'
I6
tp265
a(S'p2_tl'
I224
tp266
a(S'w'
I744
tp267
a(S'p1_vo'
I12
tp268
a(S'w'
I1
tp269
a(S'p1_tl'
I254
tp270
a(S'w'
I4
tp271
a(S'p2_vo'
I0
tp272
a(S'w'
I1
tp273
a(S'p2_tl'
I239
tp274
a(S'w'
I734
tp275
a(S'p1_vo'
I11
tp276
a(S'w'
I1
tp277
a(S'w'
I4
tp278
a(S'p2_vo'
I1
tp279
a(S'w'
I1
tp280
a(S'p2_tl'
I240
tp281
a(S'w'
I709
tp282
a(S'w'
I4
tp283
a(S'p2_vo'
I2
tp284
a(S'w'
I1
tp285
a(S'p2_tl'
I241
tp286
a(S'w'
I729
tp287
a(S'p1_vo'
I10
tp288
a(S'w'
I1
tp289
a(S'w'
I5
tp290
a(S'p2_vo'
I3
tp291
a(S'w'
I1
tp292
a(S'p2_tl'
I240
tp293
a(S'w'
I726
tp294
a(S'w'
I5
tp295
a(S'p2_vo'
I4
tp296
a(S'w'
I1
tp297
a(S'p2_tl'
I239
tp298
a(S'w'
I727
tp299
a(S'w'
I4
tp300
a(S'p2_vo'
I5
tp301
a(S'w'
I1
tp302
a(S'p2_tl'
I237
tp303
a(S'w'
I748
tp304
a(S'p1_vo'
I9
tp305
a(S'w'
I1
tp306
a(S'w'
I5
tp307
a(S'p2_vo'
I6
tp308
a(S'w'
I1
tp309
a(S'p2_tl'
I236
tp310
a(S'w'
I709
tp311
a(S'w'
I4
tp312
a(S'p2_vo'
I7
tp313
a(S'w'
I1
tp314
a(S'p2_tl'
I237
tp315
a(S'w'
I728
tp316
a(S'w'
I5
tp317
a(S'p2_vo'
I8
tp318
a(S'w'
I1
tp319
a(S'p2_tl'
I239
tp320
a(S'w'
I725
tp321
a(S'w'
I6
tp322
a(S'p2_tl'
I240
tp323
a(S'w'
I732
tp324
a(S'p1_vo'
I8
tp325
a(S'w'
I1
tp326
a(S'w'
I4
tp327
a(S'p2_vo'
I7
tp328
a(S'w'
I1
tp329
a(S'p2_tl'
I241
tp330
a(S'w'
I742
tp331
a(S'w'
I6
tp332
a(S'p2_tl'
I240
tp333
a(S'w'
I725
tp334
a(S'p1_vo'
I12
tp335
a(S'w'
I1
tp336
a(S'p1_tl'
I13
tp337
a(S'w'
I1
tp338
a(S'p1_ll'
I19
tp339
a(S'p1_th'
I1
tp340
a(S'w'
I4
tp341
a(S'p2_vo'
I0
tp342
a(S'w'
I1
tp343
a(S'p2_tl'
I254
tp344
a(S'w'
I714
tp345
a(S'p1_vo'
I11
tp346
a(S'w'
I1
tp347
a(S'w'
I5
tp348
a(S'p2_vo'
I1
tp349
a(S'w'
I1
tp350
a(S'p2_tl'
I252
tp351
a(S'w'
I726
tp352
a(S'w'
I5
tp353
a(S'p2_vo'
I2
tp354
a(S'w'
I1
tp355
a(S'p2_tl'
I251
tp356
a(S'w'
I730
tp357
a(S'p1_vo'
I10
tp358
a(S'w'
I1
tp359
a(S'w'
I5
tp360
a(S'p2_vo'
I3
tp361
a(S'w'
I1
tp362
a(S'p2_tl'
I252
tp363
a(S'w'
I744
tp364
a(S'w'
I4
tp365
a(S'p2_vo'
I4
tp366
a(S'w'
I1
tp367
a(S'p2_tl'
I254
tp368
a(S'w'
I711
tp369
a(S'w'
I5
tp370
a(S'p2_vo'
I5
tp371
a(S'w'
I1
tp372
a(S'p2_tl'
I255
tp373
a(S'w'
I727
tp374
a(S'p1_vo'
I9
tp375
a(S'w'
I1
tp376
a(S'w'
I4
tp377
a(S'p2_vo'
I6
tp378
a(S'w'
I2
tp379
a(S'p2_tl'
I0
tp380
a(S'p2_ll'
I19
tp381
a(S'p2_th'
I1
tp382
a(S'w'
I726
tp383
a(S'w'
I4
tp384
a(S'p2_vo'
I7
tp385
a(S'w'
I1
tp386
a(S'p2_tl'
I255
tp387
a(S'w'
I1
tp388
a(S'p2_ll'
I19
tp389
a(S'p2_th'
I0
tp390
a(S'w'
I728
tp391
a(S'w'
I5
tp392
a(S'p2_vo'
I8
tp393
a(S'w'
I1
tp394
a(S'p2_tl'
I254
tp395
a(S'w'
I745
tp396
a(S'w'
I6
tp397
a(S'p2_tl'
I252
tp398
a(S'w'
I713
tp399
a(S'p1_vo'
I8
tp400
a(S'w'
I1
tp401
a(S'w'
I4
tp402
a(S'p2_vo'
I7
tp403
a(S'w'
I1
tp404
a(S'p2_tl'
I251
tp405
a(S'w'
I724
tp406
a(S'w'
I6
tp407
a(S'p2_tl'
I252
tp408
a(S'w'
I743
tp409
a(S'p1_vo'
I12
tp410
a(S'w'
I1
tp411
a(S'p1_tl'
I29
tp412
a(S'w'
I5
tp413
a(S'p2_vo'
I0
tp414
a(S'w'
I1
tp415
a(S'p2_tl'
I13
tp416
a(S'w'
I1
tp417
a(S'p2_ll'
I19
tp418
a(S'p2_th'
I1
tp419
a(S'w'
I714
tp420
a(S'p1_vo'
I11
tp421
a(S'w'
I1
tp422
a(S'w'
I5
tp423
a(S'p2_vo'
I1
tp424
a(S'w'
I1
tp425
a(S'p2_tl'
I14
tp426
a(S'w'
I744
tp427
a(S'w'
I5
tp428
a(S'p2_vo'
I2
tp429
a(S'w'
I1
tp430
a(S'p2_tl'
I15
tp431
a(S'w'
I710
tp432
a(S'p1_vo'
I10
tp433
a(S'w'
I1
tp434
a(S'w'
I5
tp435
a(S'p2_vo'
I3
tp436
a(S'w'
I1
tp437
a(S'p2_tl'
I14
tp438
a(S'w'
I726
tp439
a(S'w'
I5
tp440
a(S'p2_vo'
I4
tp441
a(S'w'
I1
tp442
a(S'p2_tl'
I13
tp443
a(S'w'
I728
tp444
a(S'w'
I5
tp445
a(S'p2_vo'
I5
tp446
a(S'w'
I1
tp447
a(S'p2_tl'
I11
tp448
a(S'w'
I729
tp449
a(S'p1_vo'
I9
tp450
a(S'w'
I1
tp451
a(S'w'
I5
tp452
a(S'p2_vo'
I6
tp453
a(S'w'
I1
tp454
a(S'p2_tl'
I10
tp455
a(S'w'
I744
tp456
a(S'w'
I5
tp457
a(S'p2_vo'
I7
tp458
a(S'w'
I1
tp459
a(S'p2_tl'
I11
tp460
a(S'w'
I710
tp461
a(S'w'
I4
tp462
a(S'p2_vo'
I8
tp463
a(S'w'
I1
tp464
a(S'p2_tl'
I13
tp465
a(S'w'
I725
tp466
a(S'w'
I6
tp467
a(S'p2_tl'
I14
tp468
a(S'w'
I731
tp469
a(S'p1_vo'
I8
tp470
a(S'w'
I1
tp471
a(S'w'
I4
tp472
a(S'p2_vo'
I7
tp473
a(S'w'
I1
tp474
a(S'p2_tl'
I15
tp475
a(S'w'
I725
tp476
a(S'w'
I5
tp477
a(S'p2_tl'
I14
tp478
a(S'w'
I762
tp479
a(S'p1_vo'
I12
tp480
a(S'w'
I1
tp481
a(S'p1_tl'
I46
tp482
a(S'w'
I4
tp483
a(S'p2_vo'
I0
tp484
a(S'w'
I1
tp485
a(S'p2_tl'
I29
tp486
a(S'w'
I697
tp487
a(S'p1_vo'
I11
tp488
a(S'w'
I1
tp489
a(S'w'
I5
tp490
a(S'p2_vo'
I1
tp491
a(S'w'
I1
tp492
a(S'p2_tl'
I27
tp493
a(S'w'
I726
tp494
a(S'w'
I5
tp495
a(S'p2_vo'
I2
tp496
a(S'w'
I1
tp497
a(S'p2_tl'
I26
tp498
a(S'w'
I730
tp499
a(S'p1_vo'
I10
tp500
a(S'w'
I1
tp501
a(S'w'
I4
tp502
a(S'p2_vo'
I3
tp503
a(S'w'
I1
tp504
a(S'p2_tl'
I27
tp505
a(S'w'
I727
tp506
a(S'w'
I5
tp507
a(S'p2_vo'
I4
tp508
a(S'w'
I1
tp509
a(S'p2_tl'
I29
tp510
a(S'w'
I745
tp511
a(S'w'
I4
tp512
a(S'p2_vo'
I5
tp513
a(S'w'
I2
tp514
a(S'p2_tl'
I30
tp515
a(S'w'
I710
tp516
a(S'p1_vo'
I9
tp517
a(S'w'
I1
tp518
a(S'w'
I5
tp519
a(S'p2_vo'
I6
tp520
a(S'w'
I1
tp521
a(S'p2_tl'
I31
tp522
a(S'w'
I726
tp523
a(S'w'
I5
tp524
a(S'p2_vo'
I7
tp525
a(S'w'
I1
tp526
a(S'p2_tl'
I30
tp527
a(S'w'
I729
tp528
a(S'w'
I4
tp529
a(S'p2_vo'
I8
tp530
a(S'w'
I1
tp531
a(S'p2_tl'
I29
tp532
a(S'w'
I727
tp533
a(S'w'
I6
tp534
a(S'p2_tl'
I27
tp535
a(S'w'
I749
tp536
a(S'p1_vo'
I8
tp537
a(S'w'
I1
tp538
a(S'w'
I5
tp539
a(S'p2_vo'
I7
tp540
a(S'w'
I1
tp541
a(S'p2_tl'
I26
tp542
a(S'w'
I704
tp543
a(S'w'
I6
tp544
a(S'p2_tl'
I27
tp545
a(S'w'
I746
tp546
a(S'p1_vo'
I12
tp547
a(S'w'
I1
tp548
a(S'p1_tl'
I64
tp549
a(S'w'
I5
tp550
a(S'p2_vo'
I0
tp551
a(S'w'
I1
tp552
a(S'p2_tl'
I46
tp553
a(S'w'
I712
tp554
a(S'p1_vo'
I11
tp555
a(S'w'
I1
tp556
a(S'w'
I4
tp557
a(S'p2_vo'
I1
tp558
a(S'w'
I1
tp559
a(S'p2_tl'
I47
tp560
a(S'w'
I726
tp561
a(S'w'
I5
tp562
a(S'p2_vo'
I2
tp563
a(S'w'
I1
tp564
a(S'p2_tl'
I48
tp565
a(S'w'
I747
tp566
a(S'p1_vo'
I10
tp567
a(S'w'
I1
tp568
a(S'w'
I5
tp569
a(S'p2_vo'
I3
tp570
a(S'w'
I1
tp571
a(S'p2_tl'
I47
tp572
a(S'w'
I709
tp573
a(S'w'
I5
tp574
a(S'p2_vo'
I4
tp575
a(S'w'
I1
tp576
a(S'p2_tl'
I46
tp577
a(S'w'
I729
tp578
a(S'w'
I4
tp579
a(S'p2_vo'
I5
tp580
a(S'w'
I1
tp581
a(S'p2_tl'
I44
tp582
a(S'w'
I728
tp583
a(S'p1_vo'
I9
tp584
a(S'w'
I1
tp585
a(S'w'
I5
tp586
a(S'p2_vo'
I6
tp587
a(S'w'
I1
tp588
a(S'p2_tl'
I43
tp589
a(S'w'
I725
tp590
a(S'w'
I5
tp591
a(S'p2_vo'
I7
tp592
a(S'w'
I1
tp593
a(S'p2_tl'
I44
tp594
a(S'w'
I746
tp595
a(S'w'
I5
tp596
a(S'p2_vo'
I8
tp597
a(S'w'
I1
tp598
a(S'p2_tl'
I46
tp599
a(S'w'
I709
tp600
a(S'w'
I6
tp601
a(S'p2_tl'
I47
tp602
a(S'w'
I731
tp603
a(S'p1_vo'
I8
tp604
a(S'w'
I2
tp605
a(S'w'
I4
tp606
a(S'p2_vo'
I7
tp607
a(S'w'
I1
tp608
a(S'p2_tl'
I48
tp609
a(S'w'
I725
tp610
a(S'w'
I5
tp611
a(S'p2_tl'
I47
tp612
a(S'w'
I745
tp613
a(S'p1_vo'
I12
tp614
a(S'w'
I1
tp615
a(S'p1_tl'
I46
tp616
a(S'w'
I5
tp617
a(S'p2_vo'
I0
tp618
a(S'w'
I1
tp619
a(S'p2_tl'
I64
tp620
a(S'w'
I729
tp621
a(S'p1_vo'
I11
tp622
a(S'w'
I1
tp623
a(S'w'
I5
tp624
a(S'p2_vo'
I1
tp625
a(S'w'
I1
tp626
a(S'p2_tl'
I62
tp627
a(S'w'
I708
tp628
a(S'w'
I5
tp629
a(S'p2_vo'
I2
tp630
a(S'w'
I1
tp631
a(S'p2_tl'
I61
tp632
a(S'w'
I729
tp633
a(S'p1_vo'
I10
tp634
a(S'w'
I1
tp635
a(S'w'
I4
tp636
a(S'p2_vo'
I3
tp637
a(S'w'
I1
tp638
a(S'p2_tl'
I62
tp639
a(S'w'
I727
tp640
a(S'w'
I4
tp641
a(S'p2_vo'
I4
tp642
a(S'w'
I1
tp643
a(S'p2_tl'
I64
tp644
a(S'w'
I730
tp645
a(S'w'
I4
tp646
a(S'p2_vo'
I5
tp647
a(S'w'
I1
tp648
a(S'p2_tl'
I65
tp649
a(S'w'
I748
tp650
a(S'p1_vo'
I9
tp651
a(S'w'
I1
tp652
a(S'w'
I5
tp653
a(S'p2_vo'
I6
tp654
a(S'w'
I1
tp655
a(S'p2_tl'
I66
tp656
a(S'w'
I706
tp657
a(S'w'
I5
tp658
a(S'p2_vo'
I7
tp659
a(S'w'
I1
tp660
a(S'p2_tl'
I65
tp661
a(S'w'
I728
tp662
a(S'w'
I4
tp663
a(S'p2_vo'
I8
tp664
a(S'w'
I1
tp665
a(S'p2_tl'
I64
tp666
a(S'w'
I727
tp667
a(S'w'
I5
tp668
a(S'p2_tl'
I62
tp669
a(S'w'
I733
tp670
a(S'p1_vo'
I8
tp671
a(S'w'
I1
tp672
a(S'w'
I4
tp673
a(S'p2_vo'
I7
tp674
a(S'w'
I1
tp675
a(S'p2_tl'
I61
tp676
a(S'w'
I743
tp677
a(S'w'
I6
tp678
a(S'p2_tl'
I62
tp679
a(S'w'
I728
tp680
a(S'p1_vo'
I12
tp681
a(S'w'
I1
tp682
a(S'p1_tl'
I64
tp683
a(S'w'
I4
tp684
a(S'p2_vo'
I0
tp685
a(S'w'
I2
tp686
a(S'p2_tl'
I46
tp687
a(S'w'
I710
tp688
a(S'p1_vo'
I11
tp689
a(S'w'
I1
tp690
a(S'w'
I5
tp691
a(S'p2_vo'
I1
tp692
a(S'w'
I1
tp693
a(S'p2_tl'
I47
tp694
a(S'w'
I726
tp695
a(S'w'
I4
tp696
a(S'p2_vo'
I2
tp697
a(S'w'
I1
tp698
a(S'p2_tl'
I48
tp699
a(S'w'
I729
tp700
a(S'p1_vo'
I10
tp701
a(S'w'
I1
tp702
a(S'w'
I5
tp703
a(S'p2_vo'
I3
tp704
a(S'w'
I1
tp705
a(S'p2_tl'
I47
tp706
a(S'w'
I744
tp707
a(S'w'
I5
tp708
a(S'p2_vo'
I4
tp709
a(S'w'
I1
tp710
a(S'p2_tl'
I46
tp711
a(S'w'
I710
tp712
a(S'w'
I5
tp713
a(S'p2_vo'
I5
tp714
a(S'w'
I1
tp715
a(S'p2_tl'
I44
tp716
a(S'w'
I730
tp717
a(S'p1_vo'
I9
tp718
a(S'w'
I1
tp719
a(S'w'
I5
tp720
a(S'p2_vo'
I6
tp721
a(S'w'
I1
tp722
a(S'p2_tl'
I43
tp723
a(S'w'
I727
tp724
a(S'w'
I4
tp725
a(S'p2_vo'
I7
tp726
a(S'w'
I1
tp727
a(S'p2_tl'
I44
tp728
a(S'w'
I727
tp729
a(S'w'
I4
tp730
a(S'p2_vo'
I8
tp731
a(S'w'
I1
tp732
a(S'p2_tl'
I46
tp733
a(S'w'
I745
tp734
a(S'w'
I5
tp735
a(S'p2_tl'
I47
tp736
a(S'w'
I713
tp737
a(S'p1_vo'
I8
tp738
a(S'w'
I1
tp739
a(S'w'
I5
tp740
a(S'p2_vo'
I7
tp741
a(S'w'
I1
tp742
a(S'p2_tl'
I48
tp743
a(S'w'
I725
tp744
a(S'w'
I6
tp745
a(S'p2_tl'
I47
tp746
a(S'w'
I746
tp747
a(S'p1_vo'
I12
tp748
a(S'w'
I1
tp749
a(S'p1_tl'
I46
tp750
a(S'w'
I5
tp751
a(S'p2_vo'
I0
tp752
a(S'w'
I1
tp753
a(S'p2_tl'
I64
tp754
a(S'w'
I712
tp755
a(S'p1_vo'
I11
tp756
a(S'w'
I1
tp757
a(S'w'
I5
tp758
a(S'p2_vo'
I1
tp759
a(S'w'
I1
tp760
a(S'p2_tl'
I62
tp761
a(S'w'
I743
tp762
a(S'w'
I5
tp763
a(S'p2_vo'
I2
tp764
a(S'w'
I1
tp765
a(S'p2_tl'
I61
tp766
a(S'w'
I710
tp767
a(S'p1_vo'
I10
tp768
a(S'w'
I1
tp769
a(S'w'
I5
tp770
a(S'p2_vo'
I3
tp771
a(S'w'
I1
tp772
a(S'p2_tl'
I62
tp773
a(S'w'
I726
tp774
a(S'w'
I4
tp775
a(S'p2_vo'
I4
tp776
a(S'w'
I1
tp777
a(S'p2_tl'
I64
tp778
a(S'w'
I729
tp779
a(S'w'
I4
tp780
a(S'p2_vo'
I5
tp781
a(S'w'
I1
tp782
a(S'p2_tl'
I65
tp783
a(S'w'
I729
tp784
a(S'p1_vo'
I9
tp785
a(S'w'
I2
tp786
a(S'w'
I4
tp787
a(S'p2_vo'
I6
tp788
a(S'w'
I1
tp789
a(S'p2_tl'
I66
tp790
a(S'w'
I746
tp791
a(S'w'
I4
tp792
a(S'p2_vo'
I7
tp793
a(S'w'
I1
tp794
a(S'p2_tl'
I65
tp795
a(S'w'
I711
tp796
a(S'w'
I5
tp797
a(S'p2_vo'
I8
tp798
a(S'w'
I1
tp799
a(S'p2_tl'
I64
tp800
a(S'w'
I724
tp801
a(S'w'
I6
tp802
a(S'p2_tl'
I62
tp803
a(S'w'
I731
tp804
a(S'p1_vo'
I8
tp805
a(S'w'
I1
tp806
a(S'w'
I4
tp807
a(S'p2_vo'
I7
tp808
a(S'w'
I1
tp809
a(S'p2_tl'
I61
tp810
a(S'w'
I725
tp811
a(S'w'
I5
tp812
a(S'p2_tl'
I62
tp813
a(S'w'
I766
tp814
a(S'p1_vo'
I12
tp815
a(S'w'
I1
tp816
a(S'p1_tl'
I64
tp817
a(S'w'
I5
tp818
a(S'p2_vo'
I0
tp819
a(S'w'
I1
tp820
a(S'p2_tl'
I46
tp821
a(S'w'
I694
tp822
a(S'p1_vo'
I11
tp823
a(S'w'
I1
tp824
a(S'w'
I4
tp825
a(S'p2_vo'
I1
tp826
a(S'w'
I1
tp827
a(S'p2_tl'
I47
tp828
a(S'w'
I727
tp829
a(S'w'
I5
tp830
a(S'p2_vo'
I2
tp831
a(S'w'
I1
tp832
a(S'p2_tl'
I48
tp833
a(S'w'
I727
tp834
a(S'p1_vo'
I10
tp835
a(S'w'
I1
tp836
a(S'w'
I5
tp837
a(S'p2_vo'
I3
tp838
a(S'w'
I1
tp839
a(S'p2_tl'
I47
tp840
a(S'w'
I725
tp841
a(S'w'
I5
tp842
a(S'p2_vo'
I4
tp843
a(S'w'
I1
tp844
a(S'p2_tl'
I46
tp845
a(S'w'
I747
tp846
a(S'w'
I4
tp847
a(S'p2_vo'
I5
tp848
a(S'w'
I1
tp849
a(S'p2_tl'
I44
tp850
a(S'w'
I711
tp851
a(S'p1_vo'
I9
tp852
a(S'w'
I1
tp853
a(S'w'
I5
tp854
a(S'p2_vo'
I6
tp855
a(S'w'
I1
tp856
a(S'p2_tl'
I43
tp857
a(S'w'
I726
tp858
a(S'w'
I5
tp859
a(S'p2_vo'
I7
tp860
a(S'w'
I1
tp861
a(S'p2_tl'
I44
tp862
a(S'w'
I729
tp863
a(S'w'
I4
tp864
a(S'p2_vo'
I8
tp865
a(S'w'
I1
tp866
a(S'p2_tl'
I46
tp867
a(S'w'
I727
tp868
a(S'w'
I6
tp869
a(S'p2_tl'
I47
tp870
a(S'w'
I748
tp871
a(S'p1_vo'
I8
tp872
a(S'w'
I1
tp873
a(S'w'
I5
tp874
a(S'p2_vo'
I7
tp875
a(S'w'
I1
tp876
a(S'p2_tl'
I48
tp877
a(S'w'
I705
tp878
a(S'w'
I6
tp879
a(S'p2_tl'
I47
tp880
a(S'w'
I740
tp881
a(S'w'
I4
tp882
a(S'p2_vo'
I0
tp883
a(S'w'
I1
tp884
a(S'p2_tl'
I64
tp885
a(S'w'
I720
tp886
a(S'w'
I5
tp887
a(S'p2_vo'
I1
tp888
a(S'w'
I1
tp889
a(S'p2_tl'
I62
tp890
a(S'w'
I727
tp891
a(S'w'
I4
tp892
a(S'p2_vo'
I2
tp893
a(S'w'
I1
tp894
a(S'p2_tl'
I61
tp895
a(S'w'
I748
tp896
a(S'p1_vo'
I7
tp897
a(S'w'
I1
tp898
a(S'w'
I4
tp899
a(S'p2_vo'
I3
tp900
a(S'w'
I1
tp901
a(S'p2_tl'
I62
tp902
a(S'w'
I708
tp903
a(S'w'
I5
tp904
a(S'p2_vo'
I4
tp905
a(S'w'
I1
tp906
a(S'p2_tl'
I64
tp907
a(S'w'
I728
tp908
a(S'w'
I5
tp909
a(S'p2_vo'
I5
tp910
a(S'w'
I1
tp911
a(S'p2_tl'
I65
tp912
a(S'w'
I728
tp913
a(S'w'
I4
tp914
a(S'p2_vo'
I6
tp915
a(S'w'
I1
tp916
a(S'p2_tl'
I66
tp917
a(S'w'
I729
tp918
a(S'w'
I4
tp919
a(S'p2_vo'
I7
tp920
a(S'w'
I1
tp921
a(S'p2_tl'
I65
tp922
a(S'w'
I748
tp923
a(S'w'
I4
tp924
a(S'p2_vo'
I8
tp925
a(S'w'
I1
tp926
a(S'p2_tl'
I64
tp927
a(S'w'
I710
tp928
a(S'p1_vo'
I6
tp929
a(S'w'
I1
tp930
a(S'w'
I6
tp931
a(S'p2_tl'
I62
tp932
a(S'w'
I726
tp933
a(S'w'
I5
tp934
a(S'p2_vo'
I7
tp935
a(S'w'
I1
tp936
a(S'p2_tl'
I61
tp937
a(S'w'
I726
tp938
a(S'w'
I6
tp939
a(S'p2_tl'
I62
tp940
a(S'w'
I727
tp941
a(S'w'
I6
tp942
a(S'p2_tl'
I64
tp943
a(S'w'
I750
tp944
a(S'w'
I4
tp945
a(S'p2_vo'
I6
tp946
a(S'w'
I1
tp947
a(S'p2_tl'
I65
tp948
a(S'w'
I709
tp949
a(S'w'
I6
tp950
a(S'p2_tl'
I66
tp951
a(S'w'
I728
tp952
a(S'w'
I6
tp953
a(S'p2_tl'
I65
tp954
a(S'w'
I727
tp955
a(S'p1_vo'
I5
tp956
a(S'w'
I1
tp957
a(S'w'
I6
tp958
a(S'p2_tl'
I64
tp959
a(S'w'
I728
tp960
a(S'w'
I4
tp961
a(S'p2_vo'
I5
tp962
a(S'w'
I1
tp963
a(S'p2_tl'
I62
tp964
a(S'w'
I745
tp965
a(S'w'
I5
tp966
a(S'p2_tl'
I61
tp967
a(S'w'
I710
tp968
a(S'w'
I6
tp969
a(S'p2_tl'
I62
tp970
a(S'w'
I728
tp971
a(S'w'
I6
tp972
a(S'p2_tl'
I64
tp973
a(S'w'
I729
tp974
a(S'w'
I6
tp975
a(S'p2_tl'
I65
tp976
a(S'w'
I731
tp977
a(S'w'
I4
tp978
a(S'p2_vo'
I4
tp979
a(S'w'
I1
tp980
a(S'p2_tl'
I66
tp981
a(S'w'
I743
tp982
a(S'w'
I6
tp983
a(S'p2_tl'
I65
tp984
a(S'w'
I710
tp985
a(S'p1_vo'
I4
tp986
a(S'w'
I1
tp987
a(S'w'
I6
tp988
a(S'p2_tl'
I64
tp989
a(S'w'
I726
tp990
a(S'w'
I6
tp991
a(S'p2_tl'
I62
tp992
a(S'w'
I729
tp993
a(S'w'
I6
tp994
a(S'p2_tl'
I61
tp995
a(S'w'
I728
tp996
a(S'w'
I6
tp997
a(S'p2_tl'
I62
tp998
a(S'w'
I748
tp999
a(S'w'
I5
tp1000
a(S'p2_vo'
I3
tp1001
a(S'w'
I1
tp1002
a(S'p2_tl'
I64
tp1003
a(S'w'
I706
tp1004
a(S'w'
I6
tp1005
a(S'p2_tl'
I65
tp1006
a(S'w'
I728
tp1007
a(S'w'
I6
tp1008
a(S'p2_tl'
I66
tp1009
a(S'w'
I728
tp1010
a(S'w'
I6
tp1011
a(S'p2_tl'
I65
tp1012
a(S'w'
I728
tp1013
a(S'w'
I5
tp1014
a(S'p2_tl'
I64
tp1015
a(S'w'
I748
tp1016
a(S'p1_vo'
I3
tp1017
a(S'w'
I1
tp1018
a(S'w'
I5
tp1019
a(S'p2_tl'
I62
tp1020
a(S'w'
I709
tp1021
a(S'w'
I6
tp1022
a(S'p2_tl'
I61
tp1023
a(S'w'
I731
tp1024
a(S'w'
I5
tp1025
a(S'p2_vo'
I2
tp1026
a(S'w'
I1
tp1027
a(S'p2_tl'
I62
tp1028
a(S'w'
I724
tp1029
a(S'w'
I6
tp1030
a(S'p2_tl'
I64
tp1031
a(S'w'
I728
tp1032
a(S'w'
I5
tp1033
a(S'p2_tl'
I65
tp1034
a(S'w'
I747
tp1035
a(S'w'
I5
tp1036
a(S'p2_tl'
I66
tp1037
a(S'w'
I711
tp1038
a(S'w'
I6
tp1039
a(S'p2_tl'
I65
tp1040
a(S'w'
I728
tp1041
a(S'w'
I6
tp1042
a(S'p2_tl'
I64
tp1043
a(S'w'
I729
tp1044
a(S'w'
I5
tp1045
a(S'p2_tl'
I62
tp1046
a(S'w'
I727
tp1047
a(S'w'
I6
tp1048
a(S'p2_tl'
I61
tp1049
a(S'w'
I747
tp1050
a(S'p1_vo'
I2
tp1051
a(S'w'
I1
tp1052
a(S'w'
I5
tp1053
a(S'p2_tl'
I62
tp1054
a(S'w'
I708
tp1055
a(S'w'
I6
tp1056
a(S'p2_tl'
I64
tp1057
a(S'w'
I728
tp1058
a(S'w'
I6
tp1059
a(S'p2_tl'
I65
tp1060
a(S'w'
I728
tp1061
a(S'w'
I6
tp1062
a(S'p2_tl'
I66
tp1063
a(S'w'
I729
tp1064
a(S'w'
I5
tp1065
a(S'p2_tl'
I65
tp1066
a(S'w'
I748
tp1067
a(S'w'
I5
tp1068
a(S'p2_tl'
I64
tp1069
a(S'w'
I709
tp1070
a(S'w'
I5
tp1071
a(S'p2_tl'
I62
tp1072
a(S'w'
I728
tp1073
a(S'w'
I6
tp1074
a(S'p2_tl'
I61
tp1075
a(S'w'
I729
tp1076
a(S'w'
I6
tp1077
a(S'p2_tl'
I62
tp1078
a(S'w'
I730
tp1079
a(S'w'
I5
tp1080
a(S'p2_vo'
I1
tp1081
a(S'w'
I1
tp1082
a(S'p2_tl'
I64
tp1083
a(S'w'
I743
tp1084
a(S'w'
I6
tp1085
a(S'p2_tl'
I65
tp1086
a(S'w'
I710
tp1087
a(S'p1_vo'
I1
tp1088
a(S'w'
I1
tp1089
a(S'w'
I6
tp1090
a(S'p2_tl'
I66
tp1091
a(S'w'
I726
tp1092
a(S'w'
I6
tp1093
a(S'p2_tl'
I65
tp1094
a(S'w'
I729
tp1095
a(S'w'
I6
tp1096
a(S'p2_tl'
I64
tp1097
a(S'w'
I728
tp1098
a(S'w'
I6
tp1099
a(S'p2_tl'
I62
tp1100
a(S'w'
I747
tp1101
a(S'w'
I5
tp1102
a(S'p2_tl'
I61
tp1103
a(S'w'
I709
tp1104
a(S'w'
I5
tp1105
a(S'p2_tl'
I62
tp1106
a(S'w'
I728
tp1107
a(S'w'
I6
tp1108
a(S'p2_tl'
I64
tp1109
a(S'w'
I728
tp1110
a(S'w'
I6
tp1111
a(S'p2_tl'
I65
tp1112
a(S'w'
I728
tp1113
a(S'w'
I5
tp1114
a(S'p2_tl'
I66
tp1115
a(S'w'
I747
tp1116
a(S'w'
I5
tp1117
a(S'p2_tl'
I65
tp1118
a(S'w'
I711
tp1119
a(S'w'
I6
tp1120
a(S'p2_tl'
I64
tp1121
a(S'w'
I729
tp1122
a(S'w'
I6
tp1123
a(S'p2_tl'
I62
tp1124
a(S'w'
I727
tp1125
a(S'p1_vo'
I0
tp1126
a(S'w'
I1
tp1127
a(S'w'
I6
tp1128
a(S'p2_tl'
I61
tp1129
a(S'w'
I726
tp1130
a(S'w'
I5
tp1131
a(S'p2_tl'
I62
tp1132
a(S'w'
I747
tp1133
a(S'w'
I5
tp1134
a(S'p2_tl'
I64
tp1135
a(S'w'
I711
tp1136
a(S'w'
I6
tp1137
a(S'p2_tl'
I65
tp1138
a(S'w'
I729
tp1139
a(S'w'
I6
tp1140
a(S'p2_tl'
I66
tp1141
a(S'w'
I728
tp1142
a(S'w'
I6
tp1143
a(S'p2_tl'
I65
tp1144
a(S'w'
I726
tp1145
a(S'w'
I5
tp1146
a(S'p2_tl'
I64
tp1147
a(S'w'
I747
tp1148
a(S'w'
I5
tp1149
a(S'p2_tl'
I62
tp1150
a(S'w'
I710
tp1151
a(S'w'
I6
tp1152
a(S'p2_tl'
I61
tp1153
a(S'w'
I728
tp1154
a(S'w'
I6
tp1155
a(S'p2_tl'
I62
tp1156
a(S'w'
I728
tp1157
a(S'w'
I6
tp1158
a(S'p2_tl'
I64
tp1159
a(S'w'
I729
tp1160
a(S'w'
I6
tp1161
a(S'p2_tl'
I65
tp1162
a(S'w'
I747
tp1163
a(S'w'
I5
tp1164
a(S'p2_tl'
I66
tp1165
a(S'w'
I711
tp1166
a(S'w'
I5
tp1167
a(S'p2_tl'
I65
tp1168
a(S'w'
I726
tp1169
a(S'w'
I6
tp1170
a(S'p2_tl'
I64
tp1171
a(S'w'
I728
tp1172
a(S'w'
I6
tp1173
a(S'p2_tl'
I62
tp1174
a(S'w'
I729
tp1175
a(S'w'
I6
tp1176
a(S'p2_tl'
I61
tp1177
a(S'w'
I746
tp1178
a(S'w'
I6
tp1179
a(S'p2_tl'
I62
tp1180
a(S'w'
I710
tp1181
a(S'w'
I6
tp1182
a(S'p2_tl'
I64
tp1183
a(S'w'
I726
tp1184
a(S'w'
I6
tp1185
a(S'p2_tl'
I65
tp1186
a(S'w'
I730
tp1187
a(S'w'
I5
tp1188
a(S'p2_vo'
I0
tp1189
a(S'w'
I1
tp1190
a(S'p2_tl'
I66
tp1191
a.