(lp1
(S'clock'
p2
I1789772
tp3
a(S'p1_lh'
I1
tp4
a(S'p1_cv'
I1
tp5
a(S'p2_lh'
I1
tp6
a(S'p2_cv'
I1
tp7
a(S'tr_lr'
I48
tp8
a(S'no_lh'
I1
tp9
a(S'no_cv'
I1
tp10
a(S'ch_no'
I1
tp11
a(S'ch_tr'
I1
tp12
a(S'ch_p2'
I1
tp13
a(S'ch_p1'
I1
tp14
a(S'p1_du'
I1
tp15
a(S'p1_vo'
I7
tp16
a(S'w'
I1
tp17
a(S'p1_sn'
I1
tp18
a(S'p1_tl'
I254
tp19
a(S'w'
I1
tp20
a(S'p1_ll'
I19
tp21
a(S'w'
I4
tp22
a(S'p2_du'
I1
tp23
a(S'p2_vo'
I6
tp24
a(S'w'
I1
tp25
a(S'p2_sn'
I1
tp26
a(S'p2_tl'
I171
tp27
a(S'w'
I1
tp28
a(S'p2_ll'
I19
tp29
a(S'p2_th'
I1
tp30
a(S'w'
I4
tp31
a(S'tr_lh'
I1
tp32
a(S'tr_lr'
I14
tp33
a(S'w'
I1
tp34
a(S'tr_tl'
I83
tp35
a(S'tr_ll'
I3
tp36
a(S'tr_th'
I1
tp37
a(S'w'
I5
tp38
a(S'no_vo'
I8
tp39
a(S'w'
I1
tp40
a(S'no_np'
I2
tp41
a(S'no_ll'
I19
tp42
a(S'w'
I644
tp43
a(S'w'
I5
tp44
a(S'w'
I9
tp45
a(S'no_vo'
I6
tp46
a(S'w'
I1
tp47
a(S'w'
I1
tp48
a(S'no_ll'
I19
tp49
a(S'w'
I717
tp50
a(S'w'
I5
tp51
a(S'w'
I10
tp52
a(S'w'
I1
tp53
a(S'no_ll'
I19
tp54
a(S'w'
I720
tp55
a(S'w'
I6
tp56
a(S'w'
I9
tp57
a(S'no_vo'
I4
tp58
a(S'w'
I1
tp59
a(S'no_ll'
I19
tp60
a(S'w'
I735
tp61
a(S'w'
I5
tp62
a(S'w'
I9
tp63
a(S'no_vo'
I2
tp64
a(S'w'
I1
tp65
a(S'w'
I1
tp66
a(S'no_ll'
I19
tp67
a(S'w'
I699
tp68
a(S'w'
I6
tp69
a(S'w'
I4
tp70
a(S'tr_lr'
I0
tp71
a(S'w'
I5
tp72
a(S'w'
I1
tp73
a(S'no_ll'
I19
tp74
a(S'w'
I748
tp75
a(S'p1_tl'
I213
tp76
a(S'w'
I5
tp77
a(S'p2_tl'
I213
tp78
a(S'w'
I1
tp79
a(S'p2_ll'
I19
tp80
a(S'p2_th'
I0
tp81
a(S'w'
I4
tp82
a(S'tr_lr'
I14
tp83
a(S'w'
I2
tp84
a(S'tr_ll'
I3
tp85
a(S'w'
I4
tp86
a(S'no_vo'
I8
tp87
a(S'w'
I1
tp88
a(S'w'
I1
tp89
a(S'no_ll'
I19
tp90
a(S'w'
I687
tp91
a(S'w'
I5
tp92
a(S'w'
I9
tp93
a(S'no_vo'
I6
tp94
a(S'w'
I1
tp95
a(S'w'
I1
tp96
a(S'no_ll'
I19
tp97
a(S'w'
I716
tp98
a(S'w'
I6
tp99
a(S'w'
I10
tp100
a(S'no_ll'
I19
tp101
a(S'w'
I738
tp102
a(S'w'
I6
tp103
a(S'w'
I9
tp104
a(S'no_vo'
I4
tp105
a(S'w'
I1
tp106
a(S'no_ll'
I19
tp107
a(S'w'
I698
tp108
a(S'w'
I6
tp109
a(S'w'
I9
tp110
a(S'no_vo'
I2
tp111
a(S'w'
I1
tp112
a(S'no_ll'
I19
tp113
a(S'w'
I718
tp114
a(S'w'
I5
tp115
a(S'w'
I5
tp116
a(S'tr_lr'
I0
tp117
a(S'w'
I5
tp118
a(S'w'
I1
tp119
a(S'no_ll'
I19
tp120
a(S'w'
I744
tp121
a(S'p1_vo'
I0
tp122
a(S'w'
I1
tp123
a(S'w'
I5
tp124
a(S'p2_tl'
I83
tp125
a(S'w'
I1
tp126
a(S'p2_ll'
I19
tp127
a(S'p2_th'
I1
tp128
a(S'w'
I4
tp129
a(S'tr_lr'
I14
tp130
a(S'w'
I2
tp131
a(S'tr_ll'
I3
tp132
a(S'w'
I4
tp133
a(S'no_vo'
I8
tp134
a(S'w'
I1
tp135
a(S'w'
I1
tp136
a(S'no_ll'
I19
tp137
a(S'w'
I688
tp138
a(S'w'
I6
tp139
a(S'w'
I9
tp140
a(S'no_vo'
I6
tp141
a(S'w'
I1
tp142
a(S'no_ll'
I19
tp143
a(S'w'
I735
tp144
a(S'w'
I5
tp145
a(S'w'
I10
tp146
a(S'no_ll'
I19
tp147
a(S'w'
I703
tp148
a(S'w'
I6
tp149
a(S'w'
I9
tp150
a(S'no_vo'
I4
tp151
a(S'w'
I1
tp152
a(S'no_ll'
I19
tp153
a(S'w'
I719
tp154
a(S'w'
I5
tp155
a(S'w'
I9
tp156
a(S'no_vo'
I2
tp157
a(S'w'
I1
tp158
a(S'w'
I1
tp159
a(S'no_ll'
I19
tp160
a(S'w'
I716
tp161
a(S'w'
I6
tp162
a(S'w'
I4
tp163
a(S'tr_lr'
I0
tp164
a(S'w'
I5
tp165
a(S'w'
I1
tp166
a(S'no_ll'
I19
tp167
a(S'w'
I746
tp168
a(S'p1_vo'
I7
tp169
a(S'w'
I1
tp170
a(S'p1_tl'
I190
tp171
a(S'w'
I6
tp172
a(S'w'
I4
tp173
a(S'tr_lr'
I14
tp174
a(S'w'
I2
tp175
a(S'tr_ll'
I3
tp176
a(S'w'
I4
tp177
a(S'no_vo'
I8
tp178
a(S'w'
I1
tp179
a(S'w'
I1
tp180
a(S'no_ll'
I19
tp181
a(S'w'
I705
tp182
a(S'w'
I5
tp183
a(S'w'
I9
tp184
a(S'no_vo'
I6
tp185
a(S'w'
I1
tp186
a(S'no_ll'
I19
tp187
a(S'w'
I699
tp188
a(S'w'
I6
tp189
a(S'w'
I10
tp190
a(S'no_ll'
I19
tp191
a(S'w'
I721
tp192
a(S'w'
I5
tp193
a(S'w'
I9
tp194
a(S'no_vo'
I4
tp195
a(S'w'
I1
tp196
a(S'no_ll'
I19
tp197
a(S'w'
I719
tp198
a(S'w'
I5
tp199
a(S'w'
I9
tp200
a(S'no_vo'
I2
tp201
a(S'w'
I1
tp202
a(S'no_ll'
I19
tp203
a(S'w'
I717
tp204
a(S'w'
I5
tp205
a(S'w'
I5
tp206
a(S'tr_lr'
I0
tp207
a(S'w'
I5
tp208
a(S'w'
I1
tp209
a(S'no_ll'
I19
tp210
a(S'w'
I756
tp211
a(S'p1_vo'
I0
tp212
a(S'w'
I1
tp213
a(S'w'
I5
tp214
a(S'p2_vo'
I0
tp215
a(S'w'
I1
tp216
a(S'w'
I9
tp217
a(S'no_vo'
I0
tp218
a(S'w'
I1
tp219
a(S'no_ll'
I19
tp220
a(S'w'
I678
tp221
a(S'w'
I6
tp222
a(S'w'
I10
tp223
a(S'no_ll'
I19
tp224
a(S'w'
I716
tp225
a(S'w'
I6
tp226
a(S'w'
I9
tp227
a(S'w'
I1
tp228
a(S'no_ll'
I19
tp229
a(S'w'
I720
tp230
a(S'w'
I5
tp231
a(S'w'
I10
tp232
a(S'w'
I1
tp233
a(S'no_ll'
I19
tp234
a(S'w'
I719
tp235
a(S'w'
I5
tp236
a(S'w'
I10
tp237
a(S'w'
I1
tp238
a(S'no_ll'
I19
tp239
a(S'w'
I737
tp240
a(S'w'
I5
tp241
a(S'w'
I10
tp242
a(S'no_ll'
I19
tp243
a(S'w'
I727
tp244
a(S'p1_vo'
I7
tp245
a(S'w'
I1
tp246
a(S'p1_tl'
I179
tp247
a(S'w'
I5
tp248
a(S'p2_vo'
I6
tp249
a(S'w'
I1
tp250
a(S'p2_tl'
I29
tp251
a(S'w'
I4
tp252
a(S'tr_lr'
I14
tp253
a(S'w'
I1
tp254
a(S'tr_tl'
I124
tp255
a(S'w'
I1
tp256
a(S'tr_ll'
I3
tp257
a(S'w'
I4
tp258
a(S'no_vo'
I8
tp259
a(S'w'
I1
tp260
a(S'no_np'
I10
tp261
a(S'no_ll'
I19
tp262
a(S'w'
I687
tp263
a(S'w'
I5
tp264
a(S'w'
I9
tp265
a(S'no_vo'
I6
tp266
a(S'w'
I1
tp267
a(S'w'
I1
tp268
a(S'no_ll'
I19
tp269
a(S'w'
I716
tp270
a(S'w'
I5
tp271
a(S'w'
I10
tp272
a(S'w'
I1
tp273
a(S'no_ll'
I19
tp274
a(S'w'
I721
tp275
a(S'w'
I5
tp276
a(S'w'
I9
tp277
a(S'no_vo'
I4
tp278
a(S'w'
I1
tp279
a(S'no_ll'
I19
tp280
a(S'w'
I737
tp281
a(S'w'
I6
tp282
a(S'w'
I9
tp283
a(S'no_vo'
I2
tp284
a(S'w'
I1
tp285
a(S'no_ll'
I19
tp286
a(S'w'
I700
tp287
a(S'w'
I6
tp288
a(S'w'
I4
tp289
a(S'tr_lr'
I0
tp290
a(S'w'
I5
tp291
a(S'w'
I1
tp292
a(S'no_ll'
I19
tp293
a(S'w'
I737
tp294
a(S'p1_vo'
I0
tp295
a(S'w'
I1
tp296
a(S'w'
I5
tp297
a(S'p2_vo'
I0
tp298
a(S'w'
I1
tp299
a(S'w'
I8
tp300
a(S'no_vo'
I0
tp301
a(S'w'
I1
tp302
a(S'w'
I1
tp303
a(S'no_ll'
I19
tp304
a(S'w'
I696
tp305
a(S'w'
I5
tp306
a(S'w'
I10
tp307
a(S'w'
I1
tp308
a(S'no_ll'
I19
tp309
a(S'w'
I716
tp310
a(S'w'
I5
tp311
a(S'w'
I10
tp312
a(S'w'
I1
tp313
a(S'no_ll'
I19
tp314
a(S'w'
I738
tp315
a(S'w'
I5
tp316
a(S'w'
I10
tp317
a(S'w'
I1
tp318
a(S'no_ll'
I19
tp319
a(S'w'
I700
tp320
a(S'w'
I6
tp321
a(S'w'
I10
tp322
a(S'no_ll'
I19
tp323
a(S'w'
I718
tp324
a(S'w'
I5
tp325
a(S'w'
I10
tp326
a(S'w'
I1
tp327
a(S'no_ll'
I19
tp328
a(S'w'
I747
tp329
a(S'p1_vo'
I7
tp330
a(S'w'
I1
tp331
a(S'p1_tl'
I169
tp332
a(S'w'
I4
tp333
a(S'p2_vo'
I6
tp334
a(S'w'
I1
tp335
a(S'w'
I5
tp336
a(S'tr_lr'
I14
tp337
a(S'w'
I1
tp338
a(S'tr_ll'
I3
tp339
a(S'w'
I5
tp340
a(S'no_vo'
I8
tp341
a(S'w'
I1
tp342
a(S'no_ll'
I19
tp343
a(S'w'
I687
tp344
a(S'w'
I6
tp345
a(S'w'
I9
tp346
a(S'no_vo'
I6
tp347
a(S'w'
I1
tp348
a(S'no_ll'
I19
tp349
a(S'w'
I735
tp350
a(S'w'
I5
tp351
a(S'w'
I10
tp352
a(S'no_ll'
I19
tp353
a(S'w'
I700
tp354
a(S'w'
I6
tp355
a(S'w'
I9
tp356
a(S'no_vo'
I4
tp357
a(S'w'
I1
tp358
a(S'no_ll'
I19
tp359
a(S'w'
I718
tp360
a(S'w'
I5
tp361
a(S'w'
I9
tp362
a(S'no_vo'
I2
tp363
a(S'w'
I1
tp364
a(S'w'
I1
tp365
a(S'no_ll'
I19
tp366
a(S'w'
I718
tp367
a(S'w'
I5
tp368
a(S'w'
I5
tp369
a(S'tr_lr'
I0
tp370
a(S'w'
I5
tp371
a(S'w'
I1
tp372
a(S'no_ll'
I19
tp373
a(S'w'
I743
tp374
a(S'p1_vo'
I0
tp375
a(S'w'
I1
tp376
a(S'w'
I4
tp377
a(S'p2_vo'
I0
tp378
a(S'w'
I1
tp379
a(S'w'
I5
tp380
a(S'tr_lr'
I14
tp381
a(S'tr_tl'
I171
tp382
a(S'w'
I1
tp383
a(S'tr_ll'
I3
tp384
a(S'w'
I4
tp385
a(S'no_vo'
I8
tp386
a(S'w'
I1
tp387
a(S'no_np'
I2
tp388
a(S'w'
I1
tp389
a(S'no_ll'
I19
tp390
a(S'w'
I710
tp391
a(S'w'
I6
tp392
a(S'w'
I9
tp393
a(S'no_vo'
I6
tp394
a(S'w'
I1
tp395
a(S'no_ll'
I19
tp396
a(S'w'
I698
tp397
a(S'w'
I6
tp398
a(S'w'
I10
tp399
a(S'no_ll'
I19
tp400
a(S'w'
I718
tp401
a(S'w'
I6
tp402
a(S'w'
I9
tp403
a(S'no_vo'
I4
tp404
a(S'w'
I1
tp405
a(S'no_ll'
I19
tp406
a(S'w'
I718
tp407
a(S'w'
I5
tp408
a(S'w'
I9
tp409
a(S'no_vo'
I2
tp410
a(S'w'
I1
tp411
a(S'w'
I1
tp412
a(S'no_ll'
I19
tp413
a(S'w'
I718
tp414
a(S'w'
I5
tp415
a(S'w'
I5
tp416
a(S'tr_lr'
I0
tp417
a(S'w'
I5
tp418
a(S'no_ll'
I19
tp419
a(S'w'
I764
tp420
a(S'p1_vo'
I7
tp421
a(S'w'
I1
tp422
a(S'p1_tl'
I29
tp423
a(S'w'
I1
tp424
a(S'p1_ll'
I19
tp425
a(S'p1_th'
I1
tp426
a(S'w'
I4
tp427
a(S'p2_vo'
I6
tp428
a(S'w'
I1
tp429
a(S'p2_tl'
I124
tp430
a(S'w'
I5
tp431
a(S'tr_lr'
I14
tp432
a(S'w'
I1
tp433
a(S'tr_tl'
I196
tp434
a(S'tr_ll'
I3
tp435
a(S'w'
I5
tp436
a(S'no_vo'
I8
tp437
a(S'w'
I1
tp438
a(S'no_ll'
I19
tp439
a(S'w'
I669
tp440
a(S'w'
I6
tp441
a(S'w'
I9
tp442
a(S'no_vo'
I6
tp443
a(S'w'
I1
tp444
a(S'no_ll'
I19
tp445
a(S'w'
I717
tp446
a(S'w'
I6
tp447
a(S'w'
I10
tp448
a(S'no_ll'
I19
tp449
a(S'w'
I721
tp450
a(S'w'
I5
tp451
a(S'w'
I9
tp452
a(S'no_vo'
I4
tp453
a(S'w'
I1
tp454
a(S'w'
I1
tp455
a(S'no_ll'
I19
tp456
a(S'w'
I716
tp457
a(S'w'
I5
tp458
a(S'w'
I9
tp459
a(S'no_vo'
I2
tp460
a(S'w'
I1
tp461
a(S'w'
I1
tp462
a(S'no_ll'
I19
tp463
a(S'w'
I736
tp464
a(S'w'
I5
tp465
a(S'w'
I5
tp466
a(S'tr_lr'
I0
tp467
a(S'w'
I5
tp468
a(S'w'
I1
tp469
a(S'no_ll'
I19
tp470
a(S'w'
I728
tp471
a(S'p1_tl'
I13
tp472
a(S'w'
I6
tp473
a(S'w'
I4
tp474
a(S'tr_lr'
I14
tp475
a(S'w'
I1
tp476
a(S'tr_tl'
I26
tp477
a(S'tr_ll'
I3
tp478
a(S'tr_th'
I2
tp479
a(S'w'
I5
tp480
a(S'no_vo'
I8
tp481
a(S'w'
I1
tp482
a(S'no_ll'
I19
tp483
a(S'w'
I689
tp484
a(S'w'
I6
tp485
a(S'w'
I8
tp486
a(S'no_vo'
I6
tp487
a(S'w'
I1
tp488
a(S'w'
I1
tp489
a(S'no_ll'
I19
tp490
a(S'w'
I716
tp491
a(S'w'
I6
tp492
a(S'w'
I10
tp493
a(S'no_ll'
I19
tp494
a(S'w'
I720
tp495
a(S'w'
I6
tp496
a(S'w'
I9
tp497
a(S'no_vo'
I4
tp498
a(S'w'
I1
tp499
a(S'no_ll'
I19
tp500
a(S'w'
I735
tp501
a(S'w'
I5
tp502
a(S'w'
I9
tp503
a(S'no_vo'
I2
tp504
a(S'w'
I1
tp505
a(S'w'
I1
tp506
a(S'no_ll'
I19
tp507
a(S'w'
I699
tp508
a(S'w'
I6
tp509
a(S'w'
I4
tp510
a(S'tr_lr'
I0
tp511
a(S'w'
I6
tp512
a(S'no_ll'
I19
tp513
a(S'w'
I747
tp514
a(S'p1_tl'
I254
tp515
a(S'w'
I1
tp516
a(S'p1_ll'
I19
tp517
a(S'p1_th'
I0
tp518
a(S'w'
I5
tp519
a(S'p2_tl'
I171
tp520
a(S'w'
I4
tp521
a(S'tr_lr'
I14
tp522
a(S'w'
I1
tp523
a(S'tr_tl'
I58
tp524
a(S'w'
I1
tp525
a(S'tr_ll'
I3
tp526
a(S'w'
I4
tp527
a(S'no_vo'
I8
tp528
a(S'w'
I1
tp529
a(S'w'
I1
tp530
a(S'no_ll'
I19
tp531
a(S'w'
I687
tp532
a(S'w'
I5
tp533
a(S'w'
I9
tp534
a(S'no_vo'
I6
tp535
a(S'w'
I1
tp536
a(S'w'
I1
tp537
a(S'no_ll'
I19
tp538
a(S'w'
I716
tp539
a(S'w'
I5
tp540
a(S'w'
I10
tp541
a(S'w'
I1
tp542
a(S'no_ll'
I19
tp543
a(S'w'
I739
tp544
a(S'w'
I5
tp545
a(S'w'
I9
tp546
a(S'no_vo'
I4
tp547
a(S'w'
I1
tp548
a(S'w'
I1
tp549
a(S'no_ll'
I19
tp550
a(S'w'
I700
tp551
a(S'w'
I6
tp552
a(S'w'
I8
tp553
a(S'no_vo'
I2
tp554
a(S'w'
I1
tp555
a(S'w'
I1
tp556
a(S'no_ll'
I19
tp557
a(S'w'
I716
tp558
a(S'w'
I6
tp559
a(S'w'
I4
tp560
a(S'tr_lr'
I0
tp561
a(S'w'
I6
tp562
a(S'no_ll'
I19
tp563
a(S'w'
I702
tp564
a(S'p1_du'
I0
tp565
a(S'p1_vo'
I0
tp566
a(S'w'
I6
tp567
a(S'p2_du'
I0
tp568
a(S'p2_vo'
I0
tp569
a(S'w'
I17
tp570
a(S'no_vo'
I0
tp571
a(S'w'
I1
tp572
a.