(lp1
(S'clock'
p2
I1789772
tp3
a(S'p1_lh'
I1
tp4
a(S'p1_cv'
I1
tp5
a(S'p1_sn'
I1
tp6
a(S'p2_lh'
I1
tp7
a(S'p2_cv'
I1
tp8
a(S'p2_sn'
I1
tp9
a(S'no_lh'
I1
tp10
a(S'no_cv'
I1
tp11
a(S'ch_no'
I1
tp12
a(S'ch_tr'
I1
tp13
a(S'ch_p2'
I1
tp14
a(S'ch_p1'
I1
tp15
a(S'fc_mo'
I0
tp16
a(S'p1_du'
I1
tp17
a(S'p1_vo'
I11
tp18
a(S'w'
I7
tp19
a(S'p1_tl'
I106
tp20
a(S'w'
I2
tp21
a(S'p1_ll'
I1
tp22
a(S'w'
I10
tp23
a(S'p2_du'
I1
tp24
a(S'p2_vo'
I9
tp25
a(S'w'
I6
tp26
a(S'p2_tl'
I142
tp27
a(S'w'
I2
tp28
a(S'p2_ll'
I1
tp29
a(S'w'
I708
tp30
a(S'p1_vo'
I7
tp31
a(S'w'
I6
tp32
a(S'w'
I12
tp33
a(S'p2_vo'
I5
tp34
a(S'w'
I6
tp35
a(S'w'
I715
tp36
a(S'w'
I16
tp37
a(S'w'
I718
tp38
a(S'w'
I16
tp39
a(S'w'
I712
tp40
a(S'p1_vo'
I6
tp41
a(S'w'
I6
tp42
a(S'w'
I17
tp43
a(S'w'
I710
tp44
a(S'p1_vo'
I5
tp45
a(S'w'
I7
tp46
a(S'w'
I16
tp47
a(S'w'
I718
tp48
a(S'w'
I16
tp49
a(S'w'
I711
tp50
a(S'p1_vo'
I4
tp51
a(S'w'
I7
tp52
a(S'w'
I16
tp53
a(S'w'
I717
tp54
a(S'w'
I11
tp55
a(S'p2_vo'
I4
tp56
a(S'w'
I7
tp57
a(S'w'
I710
tp58
a(S'p1_vo'
I3
tp59
a(S'w'
I6
tp60
a(S'w'
I11
tp61
a(S'p2_vo'
I3
tp62
a(S'w'
I6
tp63
a(S'w'
I717
tp64
a(S'w'
I33
tp65
a(S'w'
I694
tp66
a(S'p1_vo'
I11
tp67
a(S'w'
I7
tp68
a(S'w'
I1
tp69
a(S'p1_ll'
I1
tp70
a(S'w'
I11
tp71
a(S'p2_vo'
I9
tp72
a(S'w'
I6
tp73
a(S'w'
I2
tp74
a(S'p2_ll'
I1
tp75
a(S'w'
I707
tp76
a(S'p1_vo'
I7
tp77
a(S'w'
I7
tp78
a(S'w'
I12
tp79
a(S'p2_vo'
I5
tp80
a(S'w'
I6
tp81
a(S'w'
I715
tp82
a(S'w'
I16
tp83
a(S'w'
I717
tp84
a(S'w'
I17
tp85
a(S'w'
I711
tp86
a(S'p1_vo'
I6
tp87
a(S'w'
I7
tp88
a(S'w'
I17
tp89
a(S'w'
I710
tp90
a(S'p1_vo'
I5
tp91
a(S'w'
I7
tp92
a(S'w'
I16
tp93
a(S'w'
I718
tp94
a(S'w'
I16
tp95
a(S'w'
I711
tp96
a(S'p1_vo'
I4
tp97
a(S'w'
I6
tp98
a(S'w'
I11
tp99
a(S'p2_vo'
I4
tp100
a(S'w'
I7
tp101
a(S'w'
I716
tp102
a(S'w'
I11
tp103
a(S'p2_vo'
I3
tp104
a(S'w'
I6
tp105
a(S'w'
I710
tp106
a(S'p1_vo'
I3
tp107
a(S'w'
I7
tp108
a(S'w'
I33
tp109
a(S'w'
I694
tp110
a(S'p1_vo'
I11
tp111
a(S'w'
I7
tp112
a(S'w'
I1
tp113
a(S'p1_ll'
I1
tp114
a(S'w'
I11
tp115
a(S'p2_vo'
I9
tp116
a(S'w'
I6
tp117
a(S'w'
I2
tp118
a(S'p2_ll'
I1
tp119
a(S'w'
I707
tp120
a(S'p1_vo'
I7
tp121
a(S'w'
I7
tp122
a(S'w'
I12
tp123
a(S'p2_vo'
I5
tp124
a(S'w'
I6
tp125
a(S'w'
I715
tp126
a(S'w'
I16
tp127
a(S'w'
I717
tp128
a(S'w'
I17
tp129
a(S'w'
I711
tp130
a(S'p1_vo'
I6
tp131
a(S'w'
I7
tp132
a(S'w'
I17
tp133
a(S'w'
I710
tp134
a(S'p1_vo'
I5
tp135
a(S'w'
I7
tp136
a(S'w'
I16
tp137
a(S'w'
I718
tp138
a(S'w'
I16
tp139
a(S'w'
I711
tp140
a(S'p1_vo'
I4
tp141
a(S'w'
I6
tp142
a(S'w'
I12
tp143
a(S'p2_vo'
I4
tp144
a(S'w'
I6
tp145
a(S'w'
I716
tp146
a(S'w'
I11
tp147
a(S'p2_vo'
I3
tp148
a(S'w'
I6
tp149
a(S'w'
I710
tp150
a(S'p1_vo'
I3
tp151
a(S'w'
I7
tp152
a(S'w'
I21
tp153
a(S'w'
I713
tp154
a(S'w'
I11
tp155
a(S'p2_vo'
I2
tp156
a(S'w'
I6
tp157
a(S'w'
I710
tp158
a(S'p1_vo'
I2
tp159
a(S'w'
I7
tp160
a(S'w'
I17
tp161
a(S'w'
I710
tp162
a(S'p1_vo'
I1
tp163
a(S'w'
I6
tp164
a(S'w'
I12
tp165
a(S'p2_vo'
I1
tp166
a(S'w'
I6
tp167
a(S'w'
I716
tp168
a(S'w'
I17
tp169
a(S'w'
I710
tp170
a(S'p1_vo'
I0
tp171
a(S'w'
I7
tp172
a(S'w'
I11
tp173
a(S'p2_vo'
I0
tp174
a(S'w'
I6
tp175
a(S'w'
I717
tp176
a(S'w'
I17
tp177
a(S'w'
I717
tp178
a(S'w'
I17
tp179
a(S'w'
I717
tp180
a(S'w'
I17
tp181
a(S'w'
I716
tp182
a(S'w'
I18
tp183
a(S'w'
I716
tp184
a(S'w'
I33
tp185
a(S'w'
I694
tp186
a(S'p1_vo'
I11
tp187
a(S'w'
I6
tp188
a(S'p1_tl'
I120
tp189
a(S'w'
I2
tp190
a(S'p1_ll'
I1
tp191
a(S'w'
I11
tp192
a(S'p2_vo'
I9
tp193
a(S'w'
I5
tp194
a(S'p2_tl'
I160
tp195
a(S'w'
I2
tp196
a(S'p2_ll'
I1
tp197
a(S'w'
I708
tp198
a(S'p1_vo'
I7
tp199
a(S'w'
I6
tp200
a(S'w'
I12
tp201
a(S'p2_vo'
I5
tp202
a(S'w'
I6
tp203
a(S'w'
I715
tp204
a(S'w'
I16
tp205
a(S'w'
I718
tp206
a(S'w'
I17
tp207
a(S'w'
I711
tp208
a(S'p1_vo'
I6
tp209
a(S'w'
I6
tp210
a(S'w'
I17
tp211
a(S'w'
I711
tp212
a(S'p1_vo'
I5
tp213
a(S'w'
I6
tp214
a(S'w'
I16
tp215
a(S'w'
I718
tp216
a(S'w'
I16
tp217
a(S'w'
I712
tp218
a(S'p1_vo'
I4
tp219
a(S'w'
I6
tp220
a(S'w'
I11
tp221
a(S'p2_vo'
I4
tp222
a(S'w'
I6
tp223
a(S'w'
I717
tp224
a(S'w'
I11
tp225
a(S'p2_vo'
I3
tp226
a(S'w'
I6
tp227
a(S'w'
I710
tp228
a(S'p1_vo'
I3
tp229
a(S'w'
I6
tp230
a(S'w'
I21
tp231
a(S'w'
I713
tp232
a(S'w'
I11
tp233
a(S'p2_vo'
I2
tp234
a(S'w'
I6
tp235
a(S'w'
I711
tp236
a(S'p1_vo'
I2
tp237
a(S'w'
I6
tp238
a(S'w'
I17
tp239
a(S'w'
I711
tp240
a(S'p1_vo'
I1
tp241
a(S'w'
I6
tp242
a(S'w'
I11
tp243
a(S'p2_vo'
I1
tp244
a(S'w'
I6
tp245
a(S'w'
I717
tp246
a(S'w'
I17
tp247
a(S'w'
I710
tp248
a(S'p1_vo'
I0
tp249
a(S'w'
I6
tp250
a(S'w'
I12
tp251
a(S'p2_vo'
I0
tp252
a(S'w'
I6
tp253
a(S'w'
I716
tp254
a(S'w'
I18
tp255
a(S'w'
I716
tp256
a(S'w'
I17
tp257
a(S'w'
I717
tp258
a(S'w'
I17
tp259
a(S'w'
I717
tp260
a(S'w'
I17
tp261
a(S'w'
I717
tp262
a(S'w'
I33
tp263
a(S'w'
I694
tp264
a(S'p1_vo'
I11
tp265
a(S'w'
I6
tp266
a(S'p1_tl'
I142
tp267
a(S'w'
I2
tp268
a(S'p1_ll'
I1
tp269
a(S'w'
I11
tp270
a(S'p2_vo'
I9
tp271
a(S'w'
I5
tp272
a(S'p2_tl'
I190
tp273
a(S'w'
I2
tp274
a(S'p2_ll'
I1
tp275
a(S'w'
I708
tp276
a(S'p1_vo'
I7
tp277
a(S'w'
I6
tp278
a(S'w'
I12
tp279
a(S'p2_vo'
I5
tp280
a(S'w'
I6
tp281
a(S'w'
I715
tp282
a(S'w'
I16
tp283
a(S'w'
I718
tp284
a(S'w'
I17
tp285
a(S'w'
I711
tp286
a(S'p1_vo'
I6
tp287
a(S'w'
I6
tp288
a(S'w'
I17
tp289
a(S'w'
I711
tp290
a(S'p1_vo'
I5
tp291
a(S'w'
I6
tp292
a(S'w'
I17
tp293
a(S'w'
I717
tp294
a(S'w'
I16
tp295
a(S'w'
I712
tp296
a(S'p1_vo'
I4
tp297
a(S'w'
I6
tp298
a(S'w'
I11
tp299
a(S'p2_vo'
I4
tp300
a(S'w'
I6
tp301
a(S'w'
I717
tp302
a(S'w'
I11
tp303
a(S'p2_vo'
I3
tp304
a(S'w'
I6
tp305
a(S'w'
I710
tp306
a(S'p1_vo'
I3
tp307
a(S'w'
I6
tp308
a(S'w'
I21
tp309
a(S'w'
I713
tp310
a(S'w'
I11
tp311
a(S'p2_vo'
I2
tp312
a(S'w'
I6
tp313
a(S'w'
I711
tp314
a(S'p1_vo'
I2
tp315
a(S'w'
I6
tp316
a(S'w'
I17
tp317
a(S'w'
I711
tp318
a(S'p1_vo'
I1
tp319
a(S'w'
I6
tp320
a(S'w'
I11
tp321
a(S'p2_vo'
I1
tp322
a(S'w'
I6
tp323
a(S'w'
I717
tp324
a(S'w'
I17
tp325
a(S'w'
I710
tp326
a(S'p1_vo'
I0
tp327
a(S'w'
I6
tp328
a(S'w'
I12
tp329
a(S'p2_vo'
I0
tp330
a(S'w'
I6
tp331
a(S'w'
I716
tp332
a(S'w'
I18
tp333
a(S'w'
I716
tp334
a(S'w'
I17
tp335
a(S'w'
I717
tp336
a(S'w'
I17
tp337
a(S'w'
I717
tp338
a(S'w'
I17
tp339
a(S'w'
I717
tp340
a(S'w'
I33
tp341
a(S'w'
I694
tp342
a(S'p1_vo'
I11
tp343
a(S'w'
I7
tp344
a(S'p1_tl'
I89
tp345
a(S'w'
I1
tp346
a(S'p1_ll'
I1
tp347
a(S'w'
I11
tp348
a(S'p2_vo'
I9
tp349
a(S'w'
I6
tp350
a(S'p2_tl'
I120
tp351
a(S'w'
I2
tp352
a(S'p2_ll'
I1
tp353
a(S'w'
I707
tp354
a(S'p1_vo'
I7
tp355
a(S'w'
I7
tp356
a(S'w'
I12
tp357
a(S'p2_vo'
I5
tp358
a(S'w'
I6
tp359
a(S'w'
I715
tp360
a(S'w'
I16
tp361
a(S'w'
I717
tp362
a(S'w'
I17
tp363
a(S'w'
I711
tp364
a(S'p1_vo'
I6
tp365
a(S'w'
I7
tp366
a(S'w'
I17
tp367
a(S'w'
I710
tp368
a(S'p1_vo'
I5
tp369
a(S'w'
I7
tp370
a(S'w'
I16
tp371
a(S'w'
I718
tp372
a(S'w'
I16
tp373
a(S'w'
I711
tp374
a(S'p1_vo'
I4
tp375
a(S'w'
I7
tp376
a(S'w'
I11
tp377
a(S'p2_vo'
I4
tp378
a(S'w'
I6
tp379
a(S'w'
I716
tp380
a(S'w'
I11
tp381
a(S'p2_vo'
I3
tp382
a(S'w'
I7
tp383
a(S'w'
I709
tp384
a(S'p1_vo'
I3
tp385
a(S'w'
I7
tp386
a(S'w'
I21
tp387
a(S'w'
I713
tp388
a(S'w'
I11
tp389
a(S'p2_vo'
I2
tp390
a(S'w'
I6
tp391
a(S'w'
I710
tp392
a(S'p1_vo'
I2
tp393
a(S'w'
I7
tp394
a(S'w'
I17
tp395
a(S'w'
I710
tp396
a(S'p1_vo'
I1
tp397
a(S'w'
I7
tp398
a(S'w'
I11
tp399
a(S'p2_vo'
I1
tp400
a(S'w'
I6
tp401
a(S'w'
I716
tp402
a(S'w'
I17
tp403
a(S'w'
I710
tp404
a(S'p1_vo'
I0
tp405
a(S'w'
I7
tp406
a(S'w'
I11
tp407
a(S'p2_vo'
I0
tp408
a(S'w'
I6
tp409
a(S'w'
I717
tp410
a(S'w'
I17
tp411
a(S'w'
I717
tp412
a(S'w'
I17
tp413
a(S'w'
I717
tp414
a(S'w'
I17
tp415
a(S'w'
I716
tp416
a(S'w'
I18
tp417
a(S'w'
I716
tp418
a(S'w'
I44
tp419
a(S'w'
I683
tp420
a(S'p1_vo'
I11
tp421
a(S'w'
I7
tp422
a(S'p1_tl'
I106
tp423
a(S'w'
I2
tp424
a(S'p1_ll'
I1
tp425
a(S'w'
I11
tp426
a(S'p2_vo'
I9
tp427
a(S'w'
I5
tp428
a(S'p2_tl'
I142
tp429
a(S'w'
I2
tp430
a(S'p2_ll'
I1
tp431
a(S'w'
I707
tp432
a(S'p1_vo'
I8
tp433
a(S'w'
I16
tp434
a(S'p1_tl'
I108
tp435
a(S'w'
I11
tp436
a(S'p2_vo'
I6
tp437
a(S'w'
I16
tp438
a(S'p2_tl'
I145
tp439
a(S'w'
I691
tp440
a(S'p1_vo'
I6
tp441
a(S'w'
I16
tp442
a(S'p1_tl'
I109
tp443
a(S'w'
I12
tp444
a(S'p2_vo'
I4
tp445
a(S'w'
I15
tp446
a(S'p2_tl'
I148
tp447
a(S'w'
I705
tp448
a(S'p1_tl'
I108
tp449
a(S'w'
I25
tp450
a(S'p2_tl'
I145
tp451
a(S'w'
I707
tp452
a(S'p1_tl'
I106
tp453
a(S'w'
I24
tp454
a(S'p2_tl'
I142
tp455
a(S'w'
I712
tp456
a(S'p1_tl'
I105
tp457
a(S'w'
I25
tp458
a(S'p2_tl'
I139
tp459
a(S'w'
I709
tp460
a(S'p1_tl'
I103
tp461
a(S'w'
I25
tp462
a(S'p2_tl'
I136
tp463
a(S'w'
I707
tp464
a(S'p1_tl'
I105
tp465
a(S'w'
I24
tp466
a(S'p2_tl'
I139
tp467
a(S'w'
I710
tp468
a(S'p1_tl'
I106
tp469
a(S'w'
I24
tp470
a(S'p2_tl'
I142
tp471
a(S'w'
I711
tp472
a(S'p1_tl'
I108
tp473
a(S'w'
I25
tp474
a(S'p2_tl'
I145
tp475
a(S'w'
I709
tp476
a(S'p1_tl'
I109
tp477
a(S'w'
I25
tp478
a(S'p2_tl'
I148
tp479
a(S'w'
I707
tp480
a(S'p1_tl'
I108
tp481
a(S'w'
I24
tp482
a(S'p2_tl'
I145
tp483
a(S'w'
I710
tp484
a(S'p1_tl'
I107
tp485
a(S'w'
I24
tp486
a(S'p2_tl'
I142
tp487
a(S'w'
I711
tp488
a(S'p1_tl'
I105
tp489
a(S'w'
I25
tp490
a(S'p2_tl'
I139
tp491
a(S'w'
I709
tp492
a(S'p1_tl'
I104
tp493
a(S'w'
I25
tp494
a(S'p2_tl'
I137
tp495
a(S'w'
I708
tp496
a(S'p1_tl'
I105
tp497
a(S'w'
I24
tp498
a(S'p2_tl'
I139
tp499
a(S'w'
I710
tp500
a(S'p1_tl'
I106
tp501
a(S'w'
I24
tp502
a(S'p2_tl'
I142
tp503
a(S'w'
I710
tp504
a(S'p1_tl'
I108
tp505
a(S'w'
I26
tp506
a(S'p2_tl'
I145
tp507
a(S'w'
I708
tp508
a(S'p1_tl'
I109
tp509
a(S'w'
I26
tp510
a(S'p2_tl'
I148
tp511
a(S'w'
I707
tp512
a(S'p1_tl'
I108
tp513
a(S'w'
I40
tp514
a(S'p2_tl'
I146
tp515
a(S'w'
I679
tp516
a(S'p1_vo'
I4
tp517
a(S'w'
I15
tp518
a(S'p1_tl'
I107
tp519
a(S'w'
I24
tp520
a(S'p2_tl'
I143
tp521
a(S'w'
I710
tp522
a(S'p1_tl'
I105
tp523
a(S'w'
I25
tp524
a(S'p2_tl'
I140
tp525
a(S'w'
I709
tp526
a(S'p1_tl'
I104
tp527
a(S'w'
I25
tp528
a(S'p2_tl'
I137
tp529
a(S'w'
I708
tp530
a(S'p1_tl'
I105
tp531
a(S'w'
I25
tp532
a(S'p2_tl'
I139
tp533
a(S'w'
I709
tp534
a(S'p1_tl'
I106
tp535
a(S'w'
I25
tp536
a(S'p2_tl'
I142
tp537
a(S'w'
I709
tp538
a(S'p1_tl'
I108
tp539
a(S'w'
I25
tp540
a(S'p2_tl'
I145
tp541
a(S'w'
I709
tp542
a(S'p1_tl'
I109
tp543
a(S'w'
I25
tp544
a(S'p2_tl'
I148
tp545
a(S'w'
I709
tp546
a(S'p1_tl'
I108
tp547
a(S'w'
I24
tp548
a(S'p2_tl'
I146
tp549
a(S'w'
I709
tp550
a(S'p1_tl'
I107
tp551
a(S'w'
I25
tp552
a(S'p2_tl'
I143
tp553
a(S'w'
I709
tp554
a(S'p1_tl'
I105
tp555
a(S'w'
I25
tp556
a(S'p2_tl'
I140
tp557
a(S'w'
I709
tp558
a(S'p1_tl'
I104
tp559
a(S'w'
I25
tp560
a(S'p2_tl'
I137
tp561
a(S'w'
I709
tp562
a(S'p1_tl'
I105
tp563
a(S'w'
I25
tp564
a(S'p2_tl'
I138
tp565
a(S'w'
I709
tp566
a(S'p1_tl'
I106
tp567
a(S'w'
I25
tp568
a(S'p2_tl'
I141
tp569
a(S'w'
I709
tp570
a(S'p1_tl'
I107
tp571
a(S'w'
I25
tp572
a(S'p2_tl'
I144
tp573
a(S'w'
I709
tp574
a(S'p1_tl'
I109
tp575
a(S'w'
I26
tp576
a(S'p2_tl'
I147
tp577
a(S'w'
I707
tp578
a(S'p1_tl'
I108
tp579
a(S'w'
I24
tp580
a(S'p2_tl'
I146
tp581
a(S'w'
I709
tp582
a(S'p1_tl'
I107
tp583
a(S'w'
I25
tp584
a(S'p2_tl'
I143
tp585
a(S'w'
I710
tp586
a(S'p1_tl'
I105
tp587
a(S'w'
I25
tp588
a(S'p2_tl'
I140
tp589
a(S'w'
I709
tp590
a(S'p1_tl'
I104
tp591
a(S'w'
I25
tp592
a(S'p2_tl'
I137
tp593
a(S'w'
I708
tp594
a(S'w'
I40
tp595
a(S'p2_tl'
I138
tp596
a(S'w'
I679
tp597
a(S'p1_vo'
I3
tp598
a(S'w'
I15
tp599
a(S'p1_tl'
I106
tp600
a(S'w'
I11
tp601
a(S'p2_vo'
I2
tp602
a(S'w'
I14
tp603
a(S'p2_tl'
I141
tp604
a(S'w'
I709
tp605
a(S'p1_tl'
I107
tp606
a(S'w'
I25
tp607
a(S'p2_tl'
I144
tp608
a(S'w'
I709
tp609
a(S'p1_tl'
I109
tp610
a(S'w'
I25
tp611
a(S'p2_tl'
I147
tp612
a(S'w'
I708
tp613
a(S'p1_tl'
I108
tp614
a(S'w'
I25
tp615
a(S'p2_tl'
I146
tp616
a(S'w'
I709
tp617
a(S'p1_tl'
I107
tp618
a(S'w'
I25
tp619
a(S'p2_tl'
I143
tp620
a(S'w'
I709
tp621
a(S'p1_tl'
I105
tp622
a(S'w'
I24
tp623
a(S'p2_tl'
I140
tp624
a(S'w'
I710
tp625
a(S'p1_tl'
I104
tp626
a(S'w'
I24
tp627
a(S'p2_tl'
I137
tp628
a(S'w'
I710
tp629
a(S'w'
I25
tp630
a(S'p2_tl'
I138
tp631
a(S'w'
I709
tp632
a(S'p1_tl'
I106
tp633
a(S'w'
I25
tp634
a(S'p2_tl'
I141
tp635
a(S'w'
I709
tp636
a(S'p1_tl'
I107
tp637
a(S'w'
I24
tp638
a(S'p2_tl'
I144
tp639
a(S'w'
I709
tp640
a(S'p1_tl'
I109
tp641
a(S'w'
I26
tp642
a(S'p2_tl'
I147
tp643
a(S'w'
I708
tp644
a(S'p1_tl'
I108
tp645
a(S'w'
I24
tp646
a(S'p2_tl'
I146
tp647
a(S'w'
I710
tp648
a(S'p1_tl'
I107
tp649
a(S'w'
I24
tp650
a(S'p2_tl'
I143
tp651
a(S'w'
I709
tp652
a(S'p1_tl'
I106
tp653
a(S'w'
I25
tp654
a(S'p2_tl'
I140
tp655
a(S'w'
I709
tp656
a(S'p1_tl'
I104
tp657
a(S'w'
I25
tp658
a(S'p2_tl'
I137
tp659
a(S'w'
I709
tp660
a(S'w'
I25
tp661
a(S'p2_tl'
I138
tp662
a(S'w'
I709
tp663
a(S'p1_tl'
I106
tp664
a(S'w'
I25
tp665
a(S'p2_tl'
I141
tp666
a(S'w'
I709
tp667
a(S'p1_tl'
I107
tp668
a(S'w'
I24
tp669
a(S'p2_tl'
I144
tp670
a(S'w'
I709
tp671
a(S'p1_tl'
I109
tp672
a(S'w'
I25
tp673
a(S'p2_tl'
I147
tp674
a(S'w'
I710
tp675
a(S'w'
I40
tp676
a(S'p2_tl'
I146
tp677
a(S'w'
I678
tp678
a(S'p1_vo'
I1
tp679
a(S'w'
I15
tp680
a(S'p1_tl'
I107
tp681
a(S'w'
I11
tp682
a(S'p2_vo'
I1
tp683
a(S'w'
I15
tp684
a(S'p2_tl'
I144
tp685
a(S'w'
I707
tp686
a(S'p1_tl'
I106
tp687
a(S'w'
I24
tp688
a(S'p2_tl'
I141
tp689
a(S'w'
I710
tp690
a(S'p1_tl'
I104
tp691
a(S'w'
I24
tp692
a(S'p2_tl'
I138
tp693
a(S'w'
I711
tp694
a(S'w'
I26
tp695
a(S'w'
I708
tp696
a(S'p1_tl'
I106
tp697
a(S'w'
I26
tp698
a(S'p2_tl'
I141
tp699
a(S'w'
I708
tp700
a(S'p1_tl'
I107
tp701
a(S'w'
I25
tp702
a(S'p2_tl'
I144
tp703
a(S'w'
I709
tp704
a(S'p1_tl'
I109
tp705
a(S'w'
I25
tp706
a(S'p2_tl'
I147
tp707
a(S'w'
I707
tp708
a(S'w'
I24
tp709
a(S'w'
I710
tp710
a(S'p1_tl'
I107
tp711
a(S'w'
I24
tp712
a(S'p2_tl'
I144
tp713
a(S'w'
I711
tp714
a(S'p1_tl'
I106
tp715
a(S'w'
I24
tp716
a(S'p2_tl'
I141
tp717
a(S'w'
I709
tp718
a(S'p1_tl'
I104
tp719
a(S'w'
I26
tp720
a(S'p2_tl'
I138
tp721
a(S'w'
I708
tp722
a(S'w'
I24
tp723
a(S'w'
I710
tp724
a(S'p1_tl'
I106
tp725
a(S'w'
I24
tp726
a(S'p2_tl'
I141
tp727
a(S'w'
I710
tp728
a(S'p1_tl'
I107
tp729
a(S'w'
I25
tp730
a(S'p2_tl'
I143
tp731
a(S'w'
I709
tp732
a(S'p1_tl'
I109
tp733
a(S'w'
I25
tp734
a(S'p2_tl'
I146
tp735
a(S'w'
I708
tp736
a(S'w'
I24
tp737
a(S'p2_tl'
I147
tp738
a(S'w'
I710
tp739
a(S'p1_tl'
I107
tp740
a(S'w'
I25
tp741
a(S'p2_tl'
I144
tp742
a(S'w'
I709
tp743
a(S'p1_tl'
I106
tp744
a(S'w'
I24
tp745
a(S'p2_tl'
I141
tp746
a(S'w'
I709
tp747
a(S'p1_tl'
I104
tp748
a(S'w'
I25
tp749
a(S'p2_tl'
I138
tp750
a(S'w'
I710
tp751
a(S'w'
I40
tp752
a(S'p2_tl'
I137
tp753
a(S'w'
I679
tp754
a(S'p1_vo'
I0
tp755
a(S'w'
I15
tp756
a(S'p1_tl'
I105
tp757
a(S'w'
I11
tp758
a(S'p2_vo'
I0
tp759
a(S'w'
I14
tp760
a(S'p2_tl'
I140
tp761
a(S'w'
I708
tp762
a(S'p1_tl'
I107
tp763
a(S'w'
I25
tp764
a(S'p2_tl'
I143
tp765
a(S'w'
I709
tp766
a(S'p1_tl'
I108
tp767
a(S'w'
I25
tp768
a(S'p2_tl'
I146
tp769
a(S'w'
I709
tp770
a(S'p1_tl'
I109
tp771
a(S'w'
I24
tp772
a(S'p2_tl'
I147
tp773
a(S'w'
I709
tp774
a(S'p1_tl'
I107
tp775
a(S'w'
I25
tp776
a(S'p2_tl'
I144
tp777
a(S'w'
I709
tp778
a(S'p1_tl'
I106
tp779
a(S'w'
I25
tp780
a(S'p2_tl'
I141
tp781
a(S'w'
I709
tp782
a(S'p1_tl'
I104
tp783
a(S'w'
I25
tp784
a(S'p2_tl'
I138
tp785
a(S'w'
I709
tp786
a(S'w'
I25
tp787
a(S'p2_tl'
I137
tp788
a(S'w'
I709
tp789
a(S'p1_tl'
I105
tp790
a(S'w'
I25
tp791
a(S'p2_tl'
I140
tp792
a(S'w'
I708
tp793
a(S'p1_tl'
I107
tp794
a(S'w'
I25
tp795
a(S'p2_tl'
I143
tp796
a(S'w'
I709
tp797
a(S'p1_tl'
I108
tp798
a(S'w'
I25
tp799
a(S'p2_tl'
I146
tp800
a(S'w'
I709
tp801
a(S'p1_tl'
I109
tp802
a(S'w'
I25
tp803
a(S'p2_tl'
I147
tp804
a(S'w'
I709
tp805
a(S'p1_tl'
I107
tp806
a(S'w'
I25
tp807
a(S'p2_tl'
I144
tp808
a(S'w'
I708
tp809
a(S'p1_tl'
I106
tp810
a(S'w'
I24
tp811
a(S'p2_tl'
I141
tp812
a(S'w'
I710
tp813
a(S'p1_tl'
I105
tp814
a(S'w'
I24
tp815
a(S'p2_tl'
I138
tp816
a(S'w'
I711
tp817
a(S'p1_tl'
I104
tp818
a(S'w'
I26
tp819
a(S'p2_tl'
I137
tp820
a(S'w'
I708
tp821
a(S'p1_tl'
I105
tp822
a(S'w'
I26
tp823
a(S'p2_tl'
I140
tp824
a(S'w'
I707
tp825
a(S'p1_tl'
I107
tp826
a(S'w'
I25
tp827
a(S'p2_tl'
I143
tp828
a(S'w'
I709
tp829
a(S'p1_tl'
I108
tp830
a(S'w'
I25
tp831
a(S'p2_tl'
I146
tp832
a(S'w'
I708
tp833
a(S'p1_tl'
I109
tp834
a(S'w'
I44
tp835
a(S'p2_tl'
I147
tp836
a(S'w'
I690
tp837
a(S'p1_tl'
I108
tp838
a(S'w'
I25
tp839
a(S'p2_tl'
I144
tp840
a(S'w'
I709
tp841
a(S'p1_tl'
I106
tp842
a(S'w'
I24
tp843
a(S'p2_tl'
I142
tp844
a(S'w'
I710
tp845
a(S'p1_tl'
I105
tp846
a(S'w'
I25
tp847
a(S'p2_tl'
I139
tp848
a(S'w'
I709
tp849
a(S'p1_tl'
I104
tp850
a(S'w'
I25
tp851
a(S'p2_tl'
I137
tp852
a(S'w'
I709
tp853
a(S'p1_tl'
I105
tp854
a(S'w'
I25
tp855
a(S'p2_tl'
I140
tp856
a(S'w'
I708
tp857
a(S'p1_tl'
I107
tp858
a(S'w'
I25
tp859
a(S'p2_tl'
I143
tp860
a(S'w'
I709
tp861
a(S'p1_tl'
I108
tp862
a(S'w'
I25
tp863
a(S'p2_tl'
I146
tp864
a(S'w'
I710
tp865
a(S'p1_tl'
I109
tp866
a(S'w'
I26
tp867
a(S'p2_tl'
I148
tp868
a(S'w'
I708
tp869
a(S'p1_tl'
I108
tp870
a(S'w'
I25
tp871
a(S'p2_tl'
I145
tp872
a(S'w'
I708
tp873
a(S'p1_tl'
I106
tp874
a(S'w'
I24
tp875
a(S'p2_tl'
I142
tp876
a(S'w'
I710
tp877
a(S'p1_tl'
I105
tp878
a(S'w'
I24
tp879
a(S'p2_tl'
I139
tp880
a(S'w'
I711
tp881
a(S'p1_tl'
I104
tp882
a(S'w'
I25
tp883
a(S'p2_tl'
I137
tp884
a(S'w'
I709
tp885
a(S'p1_tl'
I105
tp886
a(S'w'
I25
tp887
a(S'p2_tl'
I140
tp888
a(S'w'
I707
tp889
a(S'p1_tl'
I107
tp890
a(S'w'
I25
tp891
a(S'p2_tl'
I142
tp892
a(S'w'
I709
tp893
a(S'p1_tl'
I108
tp894
a(S'w'
I25
tp895
a(S'p2_tl'
I145
tp896
a(S'w'
I710
tp897
a(S'p1_tl'
I109
tp898
a(S'w'
I25
tp899
a(S'p2_tl'
I148
tp900
a(S'w'
I708
tp901
a(S'p1_tl'
I108
tp902
a(S'w'
I26
tp903
a(S'p2_tl'
I145
tp904
a(S'w'
I707
tp905
a(S'p1_tl'
I106
tp906
a(S'w'
I25
tp907
a(S'p2_tl'
I142
tp908
a(S'w'
I709
tp909
a(S'p1_tl'
I105
tp910
a(S'w'
I25
tp911
a(S'p2_tl'
I139
tp912
a(S'w'
I710
tp913
a(S'p1_tl'
I104
tp914
a(S'w'
I8
tp915
a(S'p1_du'
I0
tp916
a(S'w'
I24
tp917
a(S'p2_tl'
I136
tp918
a(S'w'
I8
tp919
a(S'p2_du'
I0
tp920
a(S'w'
I1
tp921
a.