(lp1
(S'clock'
p2
I1789772
tp3
a(S'ch_no'
I0
tp4
a(S'ch_tr'
I0
tp5
a(S'ch_p2'
I0
tp6
a(S'ch_p1'
I0
tp7
a(S'w'
I31
tp8
a(S'p1_du'
I2
tp9
a(S'p1_lh'
I1
tp10
a(S'p1_cv'
I1
tp11
a(S'p1_vo'
I7
tp12
a(S'w'
I1
tp13
a(S'ch_no'
I0
tp14
a(S'ch_tr'
I0
tp15
a(S'ch_p2'
I0
tp16
a(S'ch_p1'
I1
tp17
a(S'p1_tl'
I29
tp18
a(S'w'
I1
tp19
a(S'p1_ll'
I0
tp20
a(S'p1_th'
I1
tp21
a(S'w'
I1443
tp22
a(S'ch_no'
I0
tp23
a(S'ch_tr'
I0
tp24
a(S'ch_p2'
I0
tp25
a(S'ch_p1'
I0
tp26
a(S'w'
I2953
tp27
a(S'ch_no'
I0
tp28
a(S'ch_tr'
I0
tp29
a(S'ch_p2'
I0
tp30
a(S'ch_p1'
I1
tp31
a(S'w'
I1
tp32
a(S'p1_tl'
I226
tp33
a(S'p1_ll'
I0
tp34
a(S'p1_th'
I0
tp35
a(S'w'
I2183
tp36
a(S'ch_no'
I0
tp37
a(S'ch_tr'
I0
tp38
a(S'ch_p2'
I0
tp39
a(S'ch_p1'
I0
tp40
a(S'w'
I3687
tp41
a(S'ch_no'
I0
tp42
a(S'ch_tr'
I0
tp43
a(S'ch_p2'
I0
tp44
a(S'ch_p1'
I1
tp45
a(S'w'
I1
tp46
a(S'p1_tl'
I170
tp47
a(S'p1_ll'
I0
tp48
a(S'w'
I28
tp49
a(S'p2_du'
I2
tp50
a(S'p2_lh'
I1
tp51
a(S'p2_cv'
I1
tp52
a(S'p2_vo'
I7
tp53
a(S'w'
I1
tp54
a(S'ch_no'
I0
tp55
a(S'ch_tr'
I0
tp56
a(S'ch_p2'
I1
tp57
a(S'ch_p1'
I1
tp58
a(S'p2_tl'
I13
tp59
a(S'w'
I1
tp60
a(S'p2_ll'
I0
tp61
a(S'p2_th'
I1
tp62
a(S'w'
I28
tp63
a(S'tr_lh'
I1
tp64
a(S'tr_lr'
I55
tp65
a(S'w'
I1
tp66
a(S'ch_no'
I0
tp67
a(S'ch_tr'
I1
tp68
a(S'ch_p2'
I1
tp69
a(S'ch_p1'
I1
tp70
a(S'tr_tl'
I27
tp71
a(S'w'
I1
tp72
a(S'tr_ll'
I0
tp73
a(S'tr_th'
I2
tp74
a(S'w'
I5057
tp75
a(S'ch_no'
I0
tp76
a(S'ch_tr'
I1
tp77
a(S'ch_p2'
I1
tp78
a(S'ch_p1'
I0
tp79
a(S'w'
I7
tp80
a(S'ch_no'
I0
tp81
a(S'ch_tr'
I1
tp82
a(S'ch_p2'
I0
tp83
a(S'ch_p1'
I0
tp84
a(S'w'
I8
tp85
a(S'ch_no'
I0
tp86
a(S'ch_tr'
I0
tp87
a(S'ch_p2'
I0
tp88
a(S'ch_p1'
I0
tp89
a(S'w'
I5873
tp90
a(S'ch_no'
I0
tp91
a(S'ch_tr'
I0
tp92
a(S'ch_p2'
I0
tp93
a(S'ch_p1'
I1
tp94
a(S'w'
I1
tp95
a(S'p1_tl'
I180
tp96
a(S'p1_ll'
I0
tp97
a(S'w'
I26
tp98
a(S'ch_no'
I0
tp99
a(S'ch_tr'
I0
tp100
a(S'ch_p2'
I1
tp101
a(S'ch_p1'
I1
tp102
a(S'w'
I1
tp103
a(S'p2_tl'
I226
tp104
a(S'p2_ll'
I0
tp105
a(S'p2_th'
I0
tp106
a(S'w'
I26
tp107
a(S'ch_no'
I0
tp108
a(S'ch_tr'
I1
tp109
a(S'ch_p2'
I1
tp110
a(S'ch_p1'
I1
tp111
a(S'w'
I1
tp112
a(S'tr_tl'
I197
tp113
a(S'tr_ll'
I0
tp114
a(S'tr_th'
I1
tp115
a(S'w'
I2129
tp116
a(S'ch_no'
I0
tp117
a(S'ch_tr'
I1
tp118
a(S'ch_p2'
I1
tp119
a(S'ch_p1'
I0
tp120
a(S'w'
I7
tp121
a(S'ch_no'
I0
tp122
a(S'ch_tr'
I1
tp123
a(S'ch_p2'
I0
tp124
a(S'ch_p1'
I0
tp125
a(S'w'
I7
tp126
a(S'ch_no'
I0
tp127
a(S'ch_tr'
I0
tp128
a(S'ch_p2'
I0
tp129
a(S'ch_p1'
I0
tp130
a(S'w'
I2939
tp131
a(S'ch_no'
I0
tp132
a(S'ch_tr'
I0
tp133
a(S'ch_p2'
I0
tp134
a(S'ch_p1'
I1
tp135
a(S'w'
I1
tp136
a(S'p1_tl'
I151
tp137
a(S'p1_ll'
I0
tp138
a(S'w'
I26
tp139
a(S'ch_no'
I0
tp140
a(S'ch_tr'
I0
tp141
a(S'ch_p2'
I1
tp142
a(S'ch_p1'
I1
tp143
a(S'p2_tl'
I180
tp144
a(S'w'
I1
tp145
a(S'p2_ll'
I0
tp146
a(S'w'
I26
tp147
a(S'ch_no'
I0
tp148
a(S'ch_tr'
I1
tp149
a(S'ch_p2'
I1
tp150
a(S'ch_p1'
I1
tp151
a(S'tr_tl'
I104
tp152
a(S'w'
I1
tp153
a(S'tr_ll'
I0
tp154
a(S'w'
I2128
tp155
a(S'ch_no'
I0
tp156
a(S'ch_tr'
I1
tp157
a(S'ch_p2'
I1
tp158
a(S'ch_p1'
I0
tp159
a(S'w'
I7
tp160
a(S'ch_no'
I0
tp161
a(S'ch_tr'
I1
tp162
a(S'ch_p2'
I0
tp163
a(S'ch_p1'
I0
tp164
a(S'w'
I7
tp165
a(S'ch_no'
I0
tp166
a(S'ch_tr'
I0
tp167
a(S'ch_p2'
I0
tp168
a(S'ch_p1'
I0
tp169
a(S'w'
I3673
tp170
a(S'ch_no'
I0
tp171
a(S'ch_tr'
I0
tp172
a(S'ch_p2'
I0
tp173
a(S'ch_p1'
I1
tp174
a(S'w'
I1
tp175
a(S'p1_tl'
I127
tp176
a(S'p1_ll'
I0
tp177
a(S'w'
I26
tp178
a(S'ch_no'
I0
tp179
a(S'ch_tr'
I0
tp180
a(S'ch_p2'
I1
tp181
a(S'ch_p1'
I1
tp182
a(S'p2_tl'
I151
tp183
a(S'w'
I1
tp184
a(S'p2_ll'
I0
tp185
a(S'w'
I26
tp186
a(S'ch_no'
I0
tp187
a(S'ch_tr'
I1
tp188
a(S'ch_p2'
I1
tp189
a(S'ch_p1'
I1
tp190
a(S'tr_tl'
I207
tp191
a(S'w'
I1
tp192
a(S'tr_ll'
I0
tp193
a(S'tr_th'
I2
tp194
a(S'w'
I2863
tp195
a(S'ch_no'
I0
tp196
a(S'ch_tr'
I1
tp197
a(S'ch_p2'
I1
tp198
a(S'ch_p1'
I0
tp199
a(S'w'
I7
tp200
a(S'ch_no'
I0
tp201
a(S'ch_tr'
I1
tp202
a(S'ch_p2'
I0
tp203
a(S'ch_p1'
I0
tp204
a(S'w'
I7
tp205
a(S'ch_no'
I0
tp206
a(S'ch_tr'
I0
tp207
a(S'ch_p2'
I0
tp208
a(S'ch_p1'
I0
tp209
a(S'w'
I4406
tp210
a(S'ch_no'
I0
tp211
a(S'ch_tr'
I0
tp212
a(S'ch_p2'
I0
tp213
a(S'ch_p1'
I1
tp214
a(S'w'
I1
tp215
a(S'p1_tl'
I151
tp216
a(S'p1_ll'
I0
tp217
a(S'w'
I26
tp218
a(S'ch_no'
I0
tp219
a(S'ch_tr'
I0
tp220
a(S'ch_p2'
I1
tp221
a(S'ch_p1'
I1
tp222
a(S'p2_tl'
I180
tp223
a(S'w'
I1
tp224
a(S'p2_ll'
I0
tp225
a(S'w'
I24
tp226
a(S'ch_no'
I0
tp227
a(S'ch_tr'
I1
tp228
a(S'ch_p2'
I1
tp229
a(S'ch_p1'
I1
tp230
a(S'tr_tl'
I93
tp231
a(S'w'
I1
tp232
a(S'tr_ll'
I0
tp233
a(S'w'
I2864
tp234
a(S'ch_no'
I0
tp235
a(S'ch_tr'
I1
tp236
a(S'ch_p2'
I1
tp237
a(S'ch_p1'
I0
tp238
a(S'w'
I7
tp239
a(S'ch_no'
I0
tp240
a(S'ch_tr'
I1
tp241
a(S'ch_p2'
I0
tp242
a(S'ch_p1'
I0
tp243
a(S'w'
I4414
tp244
a(S'ch_no'
I0
tp245
a(S'ch_tr'
I1
tp246
a(S'ch_p2'
I0
tp247
a(S'ch_p1'
I1
tp248
a(S'w'
I1
tp249
a(S'p1_tl'
I127
tp250
a(S'p1_ll'
I0
tp251
a(S'w'
I26
tp252
a(S'ch_no'
I0
tp253
a(S'ch_tr'
I1
tp254
a(S'ch_p2'
I1
tp255
a(S'ch_p1'
I1
tp256
a(S'p2_tl'
I226
tp257
a(S'w'
I1
tp258
a(S'p2_ll'
I0
tp259
a(S'w'
I2889
tp260
a(S'ch_no'
I0
tp261
a(S'ch_tr'
I1
tp262
a(S'ch_p2'
I1
tp263
a(S'ch_p1'
I0
tp264
a(S'w'
I7
tp265
a(S'ch_no'
I0
tp266
a(S'ch_tr'
I1
tp267
a(S'ch_p2'
I0
tp268
a(S'ch_p1'
I0
tp269
a(S'w'
I4414
tp270
a(S'ch_no'
I0
tp271
a(S'ch_tr'
I1
tp272
a(S'ch_p2'
I0
tp273
a(S'ch_p1'
I1
tp274
a(S'w'
I1
tp275
a(S'p1_tl'
I101
tp276
a(S'p1_ll'
I0
tp277
a(S'w'
I26
tp278
a(S'ch_no'
I0
tp279
a(S'ch_tr'
I1
tp280
a(S'ch_p2'
I1
tp281
a(S'ch_p1'
I1
tp282
a(S'p2_tl'
I127
tp283
a(S'w'
I1
tp284
a(S'p2_ll'
I0
tp285
a(S'w'
I2889
tp286
a(S'ch_no'
I0
tp287
a(S'ch_tr'
I1
tp288
a(S'ch_p2'
I1
tp289
a(S'ch_p1'
I0
tp290
a(S'w'
I7
tp291
a(S'ch_no'
I0
tp292
a(S'ch_tr'
I1
tp293
a(S'ch_p2'
I0
tp294
a(S'ch_p1'
I0
tp295
a(S'w'
I7
tp296
a(S'ch_no'
I0
tp297
a(S'ch_tr'
I0
tp298
a(S'ch_p2'
I0
tp299
a(S'ch_p1'
I0
tp300
a(S'w'
I4407
tp301
a(S'ch_no'
I0
tp302
a(S'ch_tr'
I0
tp303
a(S'ch_p2'
I0
tp304
a(S'ch_p1'
I1
tp305
a(S'w'
I1
tp306
a(S'p1_tl'
I135
tp307
a(S'p1_ll'
I0
tp308
a(S'w'
I26
tp309
a(S'ch_no'
I0
tp310
a(S'ch_tr'
I0
tp311
a(S'ch_p2'
I1
tp312
a(S'ch_p1'
I1
tp313
a(S'p2_tl'
I170
tp314
a(S'w'
I1
tp315
a(S'p2_ll'
I0
tp316
a(S'w'
I24
tp317
a(S'ch_no'
I0
tp318
a(S'ch_tr'
I1
tp319
a(S'ch_p2'
I1
tp320
a(S'ch_p1'
I1
tp321
a(S'tr_tl'
I27
tp322
a(S'w'
I1
tp323
a(S'tr_ll'
I0
tp324
a(S'w'
I2864
tp325
a(S'ch_no'
I0
tp326
a(S'ch_tr'
I1
tp327
a(S'ch_p2'
I1
tp328
a(S'ch_p1'
I0
tp329
a(S'w'
I7
tp330
a(S'ch_no'
I0
tp331
a(S'ch_tr'
I1
tp332
a(S'ch_p2'
I0
tp333
a(S'ch_p1'
I0
tp334
a(S'w'
I4414
tp335
a(S'ch_no'
I0
tp336
a(S'ch_tr'
I1
tp337
a(S'ch_p2'
I0
tp338
a(S'ch_p1'
I1
tp339
a(S'w'
I1
tp340
a(S'p1_tl'
I113
tp341
a(S'p1_ll'
I0
tp342
a(S'w'
I26
tp343
a(S'ch_no'
I0
tp344
a(S'ch_tr'
I1
tp345
a(S'ch_p2'
I1
tp346
a(S'ch_p1'
I1
tp347
a(S'p2_tl'
I202
tp348
a(S'w'
I1
tp349
a(S'p2_ll'
I0
tp350
a(S'w'
I2889
tp351
a(S'ch_no'
I0
tp352
a(S'ch_tr'
I1
tp353
a(S'ch_p2'
I1
tp354
a(S'ch_p1'
I0
tp355
a(S'w'
I7
tp356
a(S'ch_no'
I0
tp357
a(S'ch_tr'
I1
tp358
a(S'ch_p2'
I0
tp359
a(S'ch_p1'
I0
tp360
a(S'w'
I4414
tp361
a(S'ch_no'
I0
tp362
a(S'ch_tr'
I1
tp363
a(S'ch_p2'
I0
tp364
a(S'ch_p1'
I1
tp365
a(S'w'
I1
tp366
a(S'p1_tl'
I90
tp367
a(S'p1_ll'
I0
tp368
a(S'w'
I26
tp369
a(S'ch_no'
I0
tp370
a(S'ch_tr'
I1
tp371
a(S'ch_p2'
I1
tp372
a(S'ch_p1'
I1
tp373
a(S'p2_tl'
I226
tp374
a(S'w'
I1
tp375
a(S'p2_ll'
I0
tp376
a(S'w'
I2889
tp377
a(S'ch_no'
I0
tp378
a(S'ch_tr'
I1
tp379
a(S'ch_p2'
I1
tp380
a(S'ch_p1'
I0
tp381
a(S'w'
I7
tp382
a(S'ch_no'
I0
tp383
a(S'ch_tr'
I1
tp384
a(S'ch_p2'
I0
tp385
a(S'ch_p1'
I0
tp386
a(S'w'
I7
tp387
a(S'ch_no'
I0
tp388
a(S'ch_tr'
I0
tp389
a(S'ch_p2'
I0
tp390
a(S'ch_p1'
I0
tp391
a(S'w'
I4407
tp392
a(S'ch_no'
I0
tp393
a(S'ch_tr'
I0
tp394
a(S'ch_p2'
I0
tp395
a(S'ch_p1'
I1
tp396
a(S'w'
I1
tp397
a(S'p1_tl'
I127
tp398
a(S'p1_ll'
I0
tp399
a(S'w'
I26
tp400
a(S'ch_no'
I0
tp401
a(S'ch_tr'
I0
tp402
a(S'ch_p2'
I1
tp403
a(S'ch_p1'
I1
tp404
a(S'p2_tl'
I180
tp405
a(S'w'
I1
tp406
a(S'p2_ll'
I0
tp407
a(S'w'
I26
tp408
a(S'ch_no'
I0
tp409
a(S'ch_tr'
I1
tp410
a(S'ch_p2'
I1
tp411
a(S'ch_p1'
I1
tp412
a(S'tr_tl'
I252
tp413
a(S'w'
I1
tp414
a(S'tr_ll'
I0
tp415
a(S'tr_th'
I1
tp416
a(S'w'
I2862
tp417
a(S'ch_no'
I0
tp418
a(S'ch_tr'
I1
tp419
a(S'ch_p2'
I1
tp420
a(S'ch_p1'
I0
tp421
a(S'w'
I7
tp422
a(S'ch_no'
I0
tp423
a(S'ch_tr'
I1
tp424
a(S'ch_p2'
I0
tp425
a(S'ch_p1'
I0
tp426
a(S'w'
I7
tp427
a(S'ch_no'
I0
tp428
a(S'ch_tr'
I0
tp429
a(S'ch_p2'
I0
tp430
a(S'ch_p1'
I0
tp431
a(S'w'
I4407
tp432
a(S'ch_no'
I0
tp433
a(S'ch_tr'
I0
tp434
a(S'ch_p2'
I0
tp435
a(S'ch_p1'
I1
tp436
a(S'w'
I1
tp437
a(S'p1_tl'
I101
tp438
a(S'p1_ll'
I0
tp439
a(S'w'
I26
tp440
a(S'ch_no'
I0
tp441
a(S'ch_tr'
I0
tp442
a(S'ch_p2'
I1
tp443
a(S'ch_p1'
I1
tp444
a(S'p2_tl'
I151
tp445
a(S'w'
I1
tp446
a(S'p2_ll'
I0
tp447
a(S'w'
I26
tp448
a(S'ch_no'
I0
tp449
a(S'ch_tr'
I1
tp450
a(S'ch_p2'
I1
tp451
a(S'ch_p1'
I1
tp452
a(S'tr_tl'
I197
tp453
a(S'w'
I1
tp454
a(S'tr_ll'
I0
tp455
a(S'w'
I2862
tp456
a(S'ch_no'
I0
tp457
a(S'ch_tr'
I1
tp458
a(S'ch_p2'
I1
tp459
a(S'ch_p1'
I0
tp460
a(S'w'
I7
tp461
a(S'ch_no'
I0
tp462
a(S'ch_tr'
I1
tp463
a(S'ch_p2'
I0
tp464
a(S'ch_p1'
I0
tp465
a(S'w'
I7
tp466
a(S'ch_no'
I0
tp467
a(S'ch_tr'
I0
tp468
a(S'ch_p2'
I0
tp469
a(S'ch_p1'
I0
tp470
a(S'w'
I4407
tp471
a(S'ch_no'
I0
tp472
a(S'ch_tr'
I0
tp473
a(S'ch_p2'
I0
tp474
a(S'ch_p1'
I1
tp475
a(S'p1_tl'
I85
tp476
a(S'w'
I1
tp477
a(S'p1_ll'
I0
tp478
a(S'w'
I25
tp479
a(S'ch_no'
I0
tp480
a(S'ch_tr'
I0
tp481
a(S'ch_p2'
I1
tp482
a(S'ch_p1'
I1
tp483
a(S'w'
I1
tp484
a(S'p2_tl'
I135
tp485
a(S'p2_ll'
I0
tp486
a(S'w'
I26
tp487
a(S'ch_no'
I0
tp488
a(S'ch_tr'
I1
tp489
a(S'ch_p2'
I1
tp490
a(S'ch_p1'
I1
tp491
a(S'tr_tl'
I83
tp492
a(S'w'
I1
tp493
a(S'tr_ll'
I0
tp494
a(S'w'
I42488
tp495
a(S'ch_no'
I0
tp496
a(S'ch_tr'
I1
tp497
a(S'ch_p2'
I1
tp498
a(S'ch_p1'
I0
tp499
a(S'w'
I7
tp500
a(S'ch_no'
I0
tp501
a(S'ch_tr'
I1
tp502
a(S'ch_p2'
I0
tp503
a(S'ch_p1'
I0
tp504
a(S'w'
I7
tp505
a(S'ch_no'
I0
tp506
a(S'ch_tr'
I0
tp507
a(S'ch_p2'
I0
tp508
a(S'ch_p1'
I0
tp509
a(S'w'
I45457
tp510
a.