(lp1
(S'clock'
p2
I1789773
tp3
a(S'fc_mo'
I1
tp4
a(S'w'
I3
tp5
a(S'w'
I35
tp6
a(S'w'
I699
tp7
a(S'p1_du'
I2
tp8
a(S'p1_cv'
I1
tp9
a(S'w'
I1
tp10
a(S'p1_tl'
I135
tp11
a(S'p1_ll'
I1
tp12
a(S'w'
I11
tp13
a(S'p2_du'
I1
tp14
a(S'p2_cv'
I1
tp15
a(S'w'
I1
tp16
a(S'p2_tl'
I113
tp17
a(S'w'
I1
tp18
a(S'p2_ll'
I1
tp19
a(S'w'
I11
tp20
a(S'tr_lh'
I1
tp21
a(S'tr_lr'
I127
tp22
a(S'tr_tl'
I95
tp23
a(S'w'
I1
tp24
a(S'tr_ll'
I1
tp25
a(S'w'
I4
tp26
a(S'no_cv'
I1
tp27
a(S'w'
I704
tp28
a(S'p1_vo'
I1
tp29
a(S'w'
I12
tp30
a(S'p2_vo'
I1
tp31
a(S'w'
I722
tp32
a(S'p1_vo'
I2
tp33
a(S'w'
I12
tp34
a(S'p2_vo'
I2
tp35
a(S'w'
I722
tp36
a(S'p1_vo'
I3
tp37
a(S'w'
I12
tp38
a(S'p2_vo'
I3
tp39
a(S'w'
I721
tp40
a(S'p1_vo'
I4
tp41
a(S'w'
I12
tp42
a(S'p2_vo'
I4
tp43
a(S'w'
I722
tp44
a(S'p1_vo'
I5
tp45
a(S'w'
I12
tp46
a(S'p2_vo'
I5
tp47
a(S'w'
I722
tp48
a(S'p1_vo'
I6
tp49
a(S'w'
I26
tp50
a(S'p2_vo'
I6
tp51
a(S'w'
I708
tp52
a(S'p1_vo'
I0
tp53
a(S'w'
I1
tp54
a(S'p1_tl'
I127
tp55
a(S'p1_ll'
I1
tp56
a(S'w'
I11
tp57
a(S'p2_vo'
I0
tp58
a(S'w'
I1
tp59
a(S'p2_tl'
I101
tp60
a(S'w'
I1
tp61
a(S'p2_ll'
I1
tp62
a(S'w'
I11
tp63
a(S'tr_tl'
I85
tp64
a(S'w'
I1
tp65
a(S'tr_ll'
I1
tp66
a(S'w'
I708
tp67
a(S'p1_vo'
I1
tp68
a(S'w'
I12
tp69
a(S'p2_vo'
I1
tp70
a(S'w'
I721
tp71
a(S'p1_vo'
I2
tp72
a(S'w'
I12
tp73
a(S'p2_vo'
I2
tp74
a(S'w'
I722
tp75
a(S'p1_vo'
I3
tp76
a(S'w'
I12
tp77
a(S'p2_vo'
I3
tp78
a(S'w'
I722
tp79
a(S'p1_vo'
I4
tp80
a(S'w'
I12
tp81
a(S'p2_vo'
I4
tp82
a(S'w'
I722
tp83
a(S'p1_vo'
I5
tp84
a(S'w'
I12
tp85
a(S'p2_vo'
I5
tp86
a(S'w'
I722
tp87
a(S'p1_vo'
I6
tp88
a(S'w'
I26
tp89
a(S'p2_vo'
I6
tp90
a(S'w'
I707
tp91
a(S'p1_vo'
I0
tp92
a(S'w'
I1
tp93
a(S'p1_tl'
I135
tp94
a(S'p1_ll'
I1
tp95
a(S'w'
I11
tp96
a(S'p2_vo'
I0
tp97
a(S'w'
I1
tp98
a(S'p2_tl'
I113
tp99
a(S'w'
I1
tp100
a(S'p2_ll'
I1
tp101
a(S'w'
I11
tp102
a(S'tr_tl'
I95
tp103
a(S'w'
I1
tp104
a(S'tr_ll'
I1
tp105
a(S'w'
I708
tp106
a(S'p1_vo'
I1
tp107
a(S'w'
I12
tp108
a(S'p2_vo'
I1
tp109
a(S'w'
I722
tp110
a(S'p1_vo'
I2
tp111
a(S'w'
I12
tp112
a(S'p2_vo'
I2
tp113
a(S'w'
I722
tp114
a(S'p1_vo'
I3
tp115
a(S'w'
I12
tp116
a(S'p2_vo'
I3
tp117
a(S'w'
I722
tp118
a(S'p1_vo'
I4
tp119
a(S'w'
I12
tp120
a(S'p2_vo'
I4
tp121
a(S'w'
I721
tp122
a(S'p1_vo'
I5
tp123
a(S'w'
I12
tp124
a(S'p2_vo'
I5
tp125
a(S'w'
I722
tp126
a(S'p1_vo'
I6
tp127
a(S'w'
I26
tp128
a(S'p2_vo'
I6
tp129
a(S'w'
I708
tp130
a(S'p1_vo'
I0
tp131
a(S'w'
I1
tp132
a(S'p1_tl'
I151
tp133
a(S'p1_ll'
I1
tp134
a(S'w'
I11
tp135
a(S'p2_vo'
I0
tp136
a(S'w'
I1
tp137
a(S'p2_tl'
I127
tp138
a(S'w'
I1
tp139
a(S'p2_ll'
I1
tp140
a(S'w'
I11
tp141
a(S'tr_tl'
I101
tp142
a(S'w'
I1
tp143
a(S'tr_ll'
I1
tp144
a(S'w'
I708
tp145
a(S'p1_vo'
I1
tp146
a(S'w'
I12
tp147
a(S'p2_vo'
I1
tp148
a(S'w'
I722
tp149
a(S'p1_vo'
I2
tp150
a(S'w'
I12
tp151
a(S'p2_vo'
I2
tp152
a(S'w'
I721
tp153
a(S'p1_vo'
I3
tp154
a(S'w'
I12
tp155
a(S'p2_vo'
I3
tp156
a(S'w'
I722
tp157
a(S'p1_vo'
I4
tp158
a(S'w'
I12
tp159
a(S'p2_vo'
I4
tp160
a(S'w'
I722
tp161
a(S'p1_vo'
I5
tp162
a(S'w'
I12
tp163
a(S'p2_vo'
I5
tp164
a(S'w'
I722
tp165
a(S'p1_vo'
I6
tp166
a(S'w'
I19
tp167
a(S'p2_vo'
I6
tp168
a(S'w'
I714
tp169
a(S'p1_vo'
I7
tp170
a(S'w'
I12
tp171
a(S'p2_vo'
I7
tp172
a(S'w'
I722
tp173
a(S'p1_vo'
I8
tp174
a(S'w'
I12
tp175
a(S'p2_vo'
I8
tp176
a(S'w'
I722
tp177
a(S'p1_vo'
I9
tp178
a(S'w'
I26
tp179
a(S'p2_vo'
I9
tp180
a(S'w'
I708
tp181
a(S'p1_vo'
I0
tp182
a(S'w'
I1
tp183
a(S'p1_tl'
I160
tp184
a(S'p1_ll'
I1
tp185
a(S'w'
I11
tp186
a(S'p2_vo'
I0
tp187
a(S'w'
I1
tp188
a(S'p2_tl'
I135
tp189
a(S'w'
I1
tp190
a(S'p2_ll'
I1
tp191
a(S'w'
I11
tp192
a(S'tr_tl'
I113
tp193
a(S'w'
I1
tp194
a(S'tr_ll'
I1
tp195
a(S'w'
I708
tp196
a(S'p1_vo'
I1
tp197
a(S'w'
I12
tp198
a(S'p2_vo'
I1
tp199
a(S'w'
I721
tp200
a(S'p1_vo'
I2
tp201
a(S'w'
I12
tp202
a(S'p2_vo'
I2
tp203
a(S'w'
I722
tp204
a(S'p1_vo'
I3
tp205
a(S'w'
I12
tp206
a(S'p2_vo'
I3
tp207
a(S'w'
I722
tp208
a(S'p1_vo'
I4
tp209
a(S'w'
I12
tp210
a(S'p2_vo'
I4
tp211
a(S'w'
I722
tp212
a(S'p1_vo'
I5
tp213
a(S'w'
I12
tp214
a(S'p2_vo'
I5
tp215
a(S'w'
I722
tp216
a(S'p1_vo'
I6
tp217
a(S'w'
I19
tp218
a(S'p2_vo'
I6
tp219
a(S'w'
I714
tp220
a(S'p1_vo'
I7
tp221
a(S'w'
I12
tp222
a(S'p2_vo'
I7
tp223
a(S'w'
I722
tp224
a(S'p1_vo'
I8
tp225
a(S'w'
I12
tp226
a(S'p2_vo'
I8
tp227
a(S'w'
I722
tp228
a(S'p1_vo'
I9
tp229
a(S'w'
I26
tp230
a(S'p2_vo'
I9
tp231
a(S'w'
I708
tp232
a(S'p1_vo'
I0
tp233
a(S'w'
I1
tp234
a(S'p1_tl'
I151
tp235
a(S'p1_ll'
I1
tp236
a(S'w'
I11
tp237
a(S'p2_vo'
I0
tp238
a(S'w'
I1
tp239
a(S'p2_tl'
I127
tp240
a(S'w'
I1
tp241
a(S'p2_ll'
I1
tp242
a(S'w'
I11
tp243
a(S'tr_tl'
I226
tp244
a(S'w'
I1
tp245
a(S'tr_ll'
I1
tp246
a(S'w'
I708
tp247
a(S'p1_vo'
I1
tp248
a(S'w'
I12
tp249
a(S'p2_vo'
I1
tp250
a(S'w'
I721
tp251
a(S'p1_vo'
I2
tp252
a(S'w'
I12
tp253
a(S'p2_vo'
I2
tp254
a(S'w'
I722
tp255
a(S'p1_vo'
I3
tp256
a(S'w'
I12
tp257
a(S'p2_vo'
I3
tp258
a(S'w'
I722
tp259
a(S'p1_vo'
I4
tp260
a(S'w'
I12
tp261
a(S'p2_vo'
I4
tp262
a(S'w'
I722
tp263
a(S'p1_vo'
I5
tp264
a(S'w'
I12
tp265
a(S'p2_vo'
I5
tp266
a(S'w'
I722
tp267
a(S'p1_vo'
I6
tp268
a(S'w'
I19
tp269
a(S'p2_vo'
I6
tp270
a(S'w'
I714
tp271
a(S'p1_vo'
I7
tp272
a(S'w'
I12
tp273
a(S'p2_vo'
I7
tp274
a(S'w'
I722
tp275
a(S'p1_vo'
I8
tp276
a(S'w'
I12
tp277
a(S'p2_vo'
I8
tp278
a(S'w'
I722
tp279
a(S'p1_vo'
I9
tp280
a(S'w'
I26
tp281
a(S'p2_vo'
I9
tp282
a(S'w'
I708
tp283
a(S'p1_vo'
I0
tp284
a(S'w'
I1
tp285
a(S'p1_tl'
I127
tp286
a(S'p1_ll'
I1
tp287
a(S'w'
I11
tp288
a(S'p2_vo'
I0
tp289
a(S'w'
I1
tp290
a(S'p2_tl'
I101
tp291
a(S'w'
I1
tp292
a(S'p2_ll'
I1
tp293
a(S'w'
I11
tp294
a(S'tr_tl'
I127
tp295
a(S'w'
I1
tp296
a(S'tr_ll'
I1
tp297
a(S'w'
I707
tp298
a(S'p1_vo'
I1
tp299
a(S'w'
I12
tp300
a(S'p2_vo'
I1
tp301
a(S'w'
I722
tp302
a(S'p1_vo'
I2
tp303
a(S'w'
I12
tp304
a(S'p2_vo'
I2
tp305
a(S'w'
I722
tp306
a(S'p1_vo'
I3
tp307
a(S'w'
I12
tp308
a(S'p2_vo'
I3
tp309
a(S'w'
I722
tp310
a(S'p1_vo'
I4
tp311
a(S'w'
I12
tp312
a(S'p2_vo'
I4
tp313
a(S'w'
I722
tp314
a(S'p1_vo'
I5
tp315
a(S'w'
I12
tp316
a(S'p2_vo'
I5
tp317
a(S'w'
I721
tp318
a(S'p1_vo'
I6
tp319
a(S'w'
I19
tp320
a(S'p2_vo'
I6
tp321
a(S'w'
I715
tp322
a(S'p1_vo'
I7
tp323
a(S'w'
I12
tp324
a(S'p2_vo'
I7
tp325
a(S'w'
I722
tp326
a(S'p1_vo'
I8
tp327
a(S'w'
I12
tp328
a(S'p2_vo'
I8
tp329
a(S'w'
I722
tp330
a(S'p1_vo'
I9
tp331
a(S'w'
I26
tp332
a(S'p2_vo'
I9
tp333
a(S'w'
I708
tp334
a(S'p1_vo'
I0
tp335
a(S'w'
I1
tp336
a(S'p1_tl'
I101
tp337
a(S'p1_ll'
I1
tp338
a(S'w'
I11
tp339
a(S'p2_vo'
I0
tp340
a(S'w'
I1
tp341
a(S'p2_tl'
I85
tp342
a(S'w'
I1
tp343
a(S'p2_ll'
I1
tp344
a(S'w'
I11
tp345
a(S'tr_tl'
I113
tp346
a(S'w'
I1
tp347
a(S'tr_ll'
I1
tp348
a(S'w'
I707
tp349
a(S'p1_vo'
I1
tp350
a(S'w'
I12
tp351
a(S'p2_vo'
I1
tp352
a(S'w'
I722
tp353
a(S'p1_vo'
I2
tp354
a(S'w'
I12
tp355
a(S'p2_vo'
I2
tp356
a(S'w'
I722
tp357
a(S'p1_vo'
I3
tp358
a(S'w'
I12
tp359
a(S'p2_vo'
I3
tp360
a(S'w'
I722
tp361
a(S'p1_vo'
I4
tp362
a(S'w'
I12
tp363
a(S'p2_vo'
I4
tp364
a(S'w'
I722
tp365
a(S'p1_vo'
I5
tp366
a(S'w'
I12
tp367
a(S'p2_vo'
I5
tp368
a(S'w'
I721
tp369
a(S'p1_vo'
I6
tp370
a(S'w'
I19
tp371
a(S'p2_vo'
I6
tp372
a(S'w'
I715
tp373
a(S'p1_vo'
I7
tp374
a(S'w'
I12
tp375
a(S'p2_vo'
I7
tp376
a(S'w'
I722
tp377
a(S'p1_vo'
I8
tp378
a(S'w'
I12
tp379
a(S'p2_vo'
I8
tp380
a(S'w'
I722
tp381
a(S'p1_vo'
I9
tp382
a(S'w'
I26
tp383
a(S'p2_vo'
I9
tp384
a(S'w'
I708
tp385
a(S'p1_vo'
I0
tp386
a(S'w'
I1
tp387
a(S'p1_tl'
I85
tp388
a(S'p1_ll'
I1
tp389
a(S'w'
I11
tp390
a(S'p2_vo'
I0
tp391
a(S'w'
I1
tp392
a(S'p2_tl'
I64
tp393
a(S'w'
I1
tp394
a(S'p2_ll'
I1
tp395
a(S'w'
I11
tp396
a(S'tr_tl'
I127
tp397
a(S'w'
I1
tp398
a(S'tr_ll'
I1
tp399
a(S'w'
I707
tp400
a(S'p1_vo'
I1
tp401
a(S'w'
I12
tp402
a(S'p2_vo'
I1
tp403
a(S'w'
I722
tp404
a(S'p1_vo'
I2
tp405
a(S'w'
I12
tp406
a(S'p2_vo'
I2
tp407
a(S'w'
I722
tp408
a(S'p1_vo'
I3
tp409
a(S'w'
I12
tp410
a(S'p2_vo'
I3
tp411
a(S'w'
I722
tp412
a(S'p1_vo'
I4
tp413
a(S'w'
I12
tp414
a(S'p2_vo'
I4
tp415
a(S'w'
I721
tp416
a(S'p1_vo'
I5
tp417
a(S'w'
I12
tp418
a(S'p2_vo'
I5
tp419
a(S'w'
I722
tp420
a(S'p1_vo'
I6
tp421
a(S'w'
I19
tp422
a(S'p2_vo'
I6
tp423
a(S'w'
I715
tp424
a(S'p1_vo'
I7
tp425
a(S'w'
I12
tp426
a(S'p2_vo'
I7
tp427
a(S'w'
I722
tp428
a(S'p1_vo'
I8
tp429
a(S'w'
I12
tp430
a(S'p2_vo'
I8
tp431
a(S'w'
I722
tp432
a(S'p1_vo'
I9
tp433
a(S'w'
I26
tp434
a(S'p2_vo'
I9
tp435
a(S'w'
I707
tp436
a(S'p1_vo'
I0
tp437
a(S'w'
I1
tp438
a(S'p1_tl'
I90
tp439
a(S'p1_ll'
I1
tp440
a(S'w'
I11
tp441
a(S'p2_vo'
I0
tp442
a(S'w'
I1
tp443
a(S'p2_tl'
I67
tp444
a(S'w'
I1
tp445
a(S'p2_ll'
I1
tp446
a(S'w'
I11
tp447
a(S'tr_tl'
I170
tp448
a(S'w'
I1
tp449
a(S'tr_ll'
I1
tp450
a(S'w'
I708
tp451
a(S'p1_vo'
I1
tp452
a(S'w'
I12
tp453
a(S'p2_vo'
I1
tp454
a(S'w'
I722
tp455
a(S'p1_vo'
I2
tp456
a(S'w'
I12
tp457
a(S'p2_vo'
I2
tp458
a(S'w'
I722
tp459
a(S'p1_vo'
I3
tp460
a(S'w'
I12
tp461
a(S'p2_vo'
I3
tp462
a(S'w'
I722
tp463
a(S'p1_vo'
I4
tp464
a(S'w'
I12
tp465
a(S'p2_vo'
I4
tp466
a(S'w'
I721
tp467
a(S'p1_vo'
I5
tp468
a(S'w'
I12
tp469
a(S'p2_vo'
I5
tp470
a(S'w'
I722
tp471
a(S'p1_vo'
I6
tp472
a(S'w'
I12
tp473
a(S'p2_vo'
I6
tp474
a(S'w'
I722
tp475
a(S'p1_vo'
I7
tp476
a(S'w'
I12
tp477
a(S'p2_vo'
I7
tp478
a(S'w'
I722
tp479
a(S'p1_vo'
I8
tp480
a(S'w'
I12
tp481
a(S'p2_vo'
I8
tp482
a(S'w'
I722
tp483
a(S'p1_vo'
I9
tp484
a(S'w'
I12
tp485
a(S'p2_vo'
I9
tp486
a(S'w'
I721
tp487
a(S'p1_vo'
I10
tp488
a(S'w'
I12
tp489
a(S'p2_vo'
I10
tp490
a(S'w'
I722
tp491
a(S'p1_vo'
I11
tp492
a(S'w'
I12
tp493
a(S'p2_vo'
I11
tp494
a(S'w'
I722
tp495
a(S'p1_vo'
I12
tp496
a(S'w'
I12
tp497
a(S'p2_vo'
I12
tp498
a(S'w'
I722
tp499
a(S'p1_vo'
I13
tp500
a(S'w'
I32
tp501
a(S'p2_vo'
I13
tp502
a(S'w'
I702
tp503
a(S'p1_vo'
I9
tp504
a(S'w'
I13
tp505
a(S'p2_vo'
I10
tp506
a(S'w'
I720
tp507
a(S'w'
I734
tp508
a(S'w'
I734
tp509
a(S'w'
I14
tp510
a(S'p2_tl'
I68
tp511
a(S'w'
I720
tp512
a(S'w'
I733
tp513
a(S'p1_vo'
I8
tp514
a(S'w'
I1
tp515
a(S'w'
I12
tp516
a(S'p2_vo'
I9
tp517
a(S'w'
I721
tp518
a(S'w'
I14
tp519
a(S'p2_tl'
I67
tp520
a(S'w'
I720
tp521
a(S'w'
I734
tp522
a(S'w'
I734
tp523
a(S'w'
I19
tp524
a(S'p2_tl'
I68
tp525
a(S'w'
I714
tp526
a(S'p1_vo'
I7
tp527
a(S'w'
I1
tp528
a(S'w'
I12
tp529
a(S'p2_vo'
I8
tp530
a(S'w'
I721
tp531
a(S'w'
I734
tp532
a(S'w'
I14
tp533
a(S'p2_tl'
I67
tp534
a(S'w'
I720
tp535
a(S'w'
I734
tp536
a(S'w'
I733
tp537
a(S'p1_vo'
I6
tp538
a(S'w'
I1
tp539
a(S'w'
I12
tp540
a(S'p2_vo'
I7
tp541
a(S'w'
I1
tp542
a(S'p2_tl'
I68
tp543
a(S'w'
I720
tp544
a(S'w'
I734
tp545
a(S'w'
I734
tp546
a(S'w'
I13
tp547
a(S'p2_tl'
I67
tp548
a(S'w'
I721
tp549
a(S'w'
I733
tp550
a(S'p1_vo'
I5
tp551
a(S'w'
I1
tp552
a(S'w'
I12
tp553
a(S'p2_vo'
I6
tp554
a(S'w'
I721
tp555
a(S'w'
I13
tp556
a(S'p2_tl'
I68
tp557
a(S'w'
I721
tp558
a(S'w'
I734
tp559
a(S'w'
I734
tp560
a(S'w'
I19
tp561
a(S'p2_tl'
I67
tp562
a(S'w'
I714
tp563
a(S'p1_vo'
I4
tp564
a(S'w'
I1
tp565
a(S'w'
I12
tp566
a(S'p2_vo'
I5
tp567
a(S'w'
I721
tp568
a(S'w'
I734
tp569
a(S'w'
I21
tp570
a(S'p2_tl'
I68
tp571
a(S'w'
I713
tp572
a(S'w'
I733
tp573
a(S'w'
I734
tp574
a(S'p1_vo'
I3
tp575
a(S'w'
I1
tp576
a(S'w'
I12
tp577
a(S'p2_vo'
I4
tp578
a(S'w'
I1
tp579
a(S'p2_tl'
I67
tp580
a(S'w'
I720
tp581
a(S'w'
I734
tp582
a(S'w'
I734
tp583
a(S'w'
I14
tp584
a(S'p2_tl'
I68
tp585
a(S'w'
I719
tp586
a(S'w'
I734
tp587
a(S'p1_vo'
I2
tp588
a(S'w'
I1
tp589
a(S'w'
I12
tp590
a(S'p2_vo'
I3
tp591
a(S'w'
I13
tp592
a(S'tr_lh'
I0
tp593
a(S'tr_lr'
I0
tp594
a(S'w'
I708
tp595
a(S'w'
I14
tp596
a(S'p2_tl'
I67
tp597
a(S'w'
I720
tp598
a(S'w'
I734
tp599
a(S'w'
I733
tp600
a(S'w'
I19
tp601
a(S'p2_tl'
I68
tp602
a(S'w'
I715
tp603
a(S'p1_vo'
I1
tp604
a(S'w'
I1
tp605
a(S'w'
I12
tp606
a(S'p2_vo'
I2
tp607
a(S'w'
I721
tp608
a(S'w'
I734
tp609
a(S'w'
I13
tp610
a(S'p2_tl'
I67
tp611
a(S'w'
I721
tp612
a(S'w'
I733
tp613
a(S'w'
I734
tp614
a(S'p1_vo'
I0
tp615
a(S'w'
I1
tp616
a(S'w'
I12
tp617
a(S'p2_vo'
I1
tp618
a(S'w'
I1
tp619
a(S'p2_tl'
I68
tp620
a(S'w'
I720
tp621
a(S'w'
I734
tp622
a(S'w'
I734
tp623
a(S'w'
I13
tp624
a(S'p2_tl'
I67
tp625
a(S'w'
I720
tp626
a(S'w'
I735
tp627
a(S'w'
I12
tp628
a(S'p2_vo'
I0
tp629
a(S'w'
I721
tp630
a(S'w'
I14
tp631
a(S'p2_tl'
I68
tp632
a(S'w'
I720
tp633
a(S'w'
I733
tp634
a(S'w'
I734
tp635
a(S'w'
I19
tp636
a(S'p2_tl'
I67
tp637
a(S'w'
I716
tp638
a(S'w'
I732
tp639
a(S'p1_du'
I0
tp640
a(S'w'
I3
tp641
a(S'p2_du'
I0
tp642
a(S'w'
I36938
tp643
a.