(lp1
(S'clock'
p2
I1789773
tp3
a(S'fc_mo'
I1
tp4
a(S'w'
I3
tp5
a(S'w'
I42
tp6
a(S'w'
I692
tp7
a(S'p1_du'
I2
tp8
a(S'p1_cv'
I1
tp9
a(S'p1_vo'
I12
tp10
a(S'w'
I1
tp11
a(S'p1_tl'
I240
tp12
a(S'p1_ll'
I1
tp13
a(S'w'
I11
tp14
a(S'p2_du'
I2
tp15
a(S'p2_cv'
I1
tp16
a(S'p2_vo'
I14
tp17
a(S'w'
I1
tp18
a(S'p2_tl'
I151
tp19
a(S'p2_ll'
I1
tp20
a(S'w'
I11
tp21
a(S'tr_lh'
I1
tp22
a(S'tr_lr'
I127
tp23
a(S'w'
I1
tp24
a(S'tr_tl'
I151
tp25
a(S'tr_ll'
I1
tp26
a(S'w'
I4
tp27
a(S'no_cv'
I1
tp28
a(S'w'
I705
tp29
a(S'p1_vo'
I10
tp30
a(S'w'
I17
tp31
a(S'p2_vo'
I12
tp32
a(S'w'
I717
tp33
a(S'p1_vo'
I8
tp34
a(S'w'
I1
tp35
a(S'p1_tl'
I241
tp36
a(S'w'
I11
tp37
a(S'p2_vo'
I10
tp38
a(S'p2_tl'
I152
tp39
a(S'w'
I722
tp40
a(S'p1_vo'
I6
tp41
a(S'w'
I17
tp42
a(S'p2_vo'
I8
tp43
a(S'w'
I716
tp44
a(S'p1_vo'
I4
tp45
a(S'w'
I1
tp46
a(S'p1_tl'
I240
tp47
a(S'w'
I12
tp48
a(S'p2_vo'
I6
tp49
a(S'w'
I1
tp50
a(S'p2_tl'
I151
tp51
a(S'w'
I720
tp52
a(S'p1_vo'
I2
tp53
a(S'w'
I17
tp54
a(S'p2_vo'
I4
tp55
a(S'w'
I717
tp56
a(S'p1_vo'
I3
tp57
a(S'w'
I1
tp58
a(S'p1_tl'
I241
tp59
a(S'w'
I11
tp60
a(S'p2_vo'
I5
tp61
a(S'p2_tl'
I152
tp62
a(S'w'
I722
tp63
a(S'p1_vo'
I4
tp64
a(S'w'
I38
tp65
a(S'p2_vo'
I6
tp66
a(S'w'
I696
tp67
a(S'p1_vo'
I6
tp68
a(S'w'
I1
tp69
a(S'p1_tl'
I46
tp70
a(S'p1_ll'
I1
tp71
a(S'p1_th'
I1
tp72
a(S'w'
I11
tp73
a(S'p2_vo'
I8
tp74
a(S'w'
I1
tp75
a(S'p2_tl'
I180
tp76
a(S'p2_ll'
I1
tp77
a(S'w'
I720
tp78
a(S'p1_vo'
I4
tp79
a(S'w'
I17
tp80
a(S'p2_vo'
I6
tp81
a(S'w'
I717
tp82
a(S'p1_vo'
I2
tp83
a(S'w'
I1
tp84
a(S'p1_tl'
I47
tp85
a(S'w'
I11
tp86
a(S'p2_vo'
I4
tp87
a(S'p2_tl'
I181
tp88
a(S'w'
I722
tp89
a(S'p1_vo'
I0
tp90
a(S'w'
I17
tp91
a(S'p2_vo'
I2
tp92
a(S'w'
I718
tp93
a(S'p1_tl'
I46
tp94
a(S'w'
I12
tp95
a(S'p2_vo'
I0
tp96
a(S'w'
I1
tp97
a(S'p2_tl'
I180
tp98
a(S'w'
I1453
tp99
a(S'p1_vo'
I1
tp100
a(S'w'
I1
tp101
a(S'p1_tl'
I47
tp102
a(S'w'
I11
tp103
a(S'p2_vo'
I1
tp104
a(S'p2_tl'
I181
tp105
a(S'w'
I722
tp106
a(S'p1_vo'
I2
tp107
a(S'w'
I35
tp108
a(S'p2_vo'
I2
tp109
a(S'w'
I699
tp110
a(S'p1_vo'
I6
tp111
a(S'w'
I1
tp112
a(S'p1_tl'
I64
tp113
a(S'p1_ll'
I1
tp114
a(S'w'
I11
tp115
a(S'p2_vo'
I8
tp116
a(S'w'
I1
tp117
a(S'p2_tl'
I190
tp118
a(S'p2_ll'
I1
tp119
a(S'w'
I12
tp120
a(S'tr_tl'
I120
tp121
a(S'tr_ll'
I1
tp122
a(S'w'
I709
tp123
a(S'p1_vo'
I4
tp124
a(S'w'
I17
tp125
a(S'p2_vo'
I6
tp126
a(S'w'
I717
tp127
a(S'p1_vo'
I2
tp128
a(S'w'
I1
tp129
a(S'p1_tl'
I65
tp130
a(S'w'
I11
tp131
a(S'p2_vo'
I4
tp132
a(S'p2_tl'
I191
tp133
a(S'w'
I721
tp134
a(S'p1_vo'
I0
tp135
a(S'w'
I17
tp136
a(S'p2_vo'
I2
tp137
a(S'w'
I718
tp138
a(S'p1_tl'
I64
tp139
a(S'w'
I12
tp140
a(S'p2_vo'
I0
tp141
a(S'w'
I1
tp142
a(S'p2_tl'
I190
tp143
a(S'w'
I1454
tp144
a(S'p1_vo'
I1
tp145
a(S'w'
I1
tp146
a(S'p1_tl'
I65
tp147
a(S'w'
I11
tp148
a(S'p2_vo'
I1
tp149
a(S'p2_tl'
I191
tp150
a(S'w'
I722
tp151
a(S'p1_vo'
I2
tp152
a(S'w'
I35
tp153
a(S'p2_vo'
I2
tp154
a(S'w'
I698
tp155
a(S'p1_vo'
I6
tp156
a(S'w'
I1
tp157
a(S'p1_tl'
I46
tp158
a(S'p1_ll'
I1
tp159
a(S'w'
I11
tp160
a(S'p2_vo'
I8
tp161
a(S'w'
I1
tp162
a(S'p2_tl'
I180
tp163
a(S'p2_ll'
I1
tp164
a(S'w'
I721
tp165
a(S'p1_vo'
I4
tp166
a(S'w'
I17
tp167
a(S'p2_vo'
I6
tp168
a(S'w'
I717
tp169
a(S'p1_vo'
I2
tp170
a(S'w'
I1
tp171
a(S'p1_tl'
I47
tp172
a(S'w'
I11
tp173
a(S'p2_vo'
I4
tp174
a(S'p2_tl'
I181
tp175
a(S'w'
I722
tp176
a(S'p1_vo'
I0
tp177
a(S'w'
I17
tp178
a(S'p2_vo'
I2
tp179
a(S'w'
I717
tp180
a(S'p1_tl'
I46
tp181
a(S'w'
I12
tp182
a(S'p2_vo'
I0
tp183
a(S'w'
I1
tp184
a(S'p2_tl'
I180
tp185
a(S'w'
I1454
tp186
a(S'p1_vo'
I1
tp187
a(S'w'
I1
tp188
a(S'p1_tl'
I47
tp189
a(S'w'
I11
tp190
a(S'p2_vo'
I1
tp191
a(S'p2_tl'
I181
tp192
a(S'w'
I722
tp193
a(S'p1_vo'
I2
tp194
a(S'w'
I38
tp195
a(S'p2_vo'
I2
tp196
a(S'w'
I696
tp197
a(S'p1_vo'
I12
tp198
a(S'w'
I1
tp199
a(S'p1_tl'
I226
tp200
a(S'p1_ll'
I1
tp201
a(S'p1_th'
I0
tp202
a(S'w'
I11
tp203
a(S'p2_vo'
I14
tp204
a(S'w'
I1
tp205
a(S'p2_tl'
I135
tp206
a(S'p2_ll'
I1
tp207
a(S'w'
I12
tp208
a(S'tr_tl'
I160
tp209
a(S'tr_ll'
I1
tp210
a(S'w'
I708
tp211
a(S'p1_vo'
I10
tp212
a(S'w'
I17
tp213
a(S'p2_vo'
I12
tp214
a(S'w'
I717
tp215
a(S'p1_vo'
I8
tp216
a(S'w'
I1
tp217
a(S'p1_tl'
I227
tp218
a(S'w'
I11
tp219
a(S'p2_vo'
I10
tp220
a(S'p2_tl'
I136
tp221
a(S'w'
I722
tp222
a(S'p1_vo'
I6
tp223
a(S'w'
I17
tp224
a(S'p2_vo'
I8
tp225
a(S'w'
I717
tp226
a(S'p1_vo'
I4
tp227
a(S'w'
I1
tp228
a(S'p1_tl'
I226
tp229
a(S'w'
I12
tp230
a(S'p2_vo'
I6
tp231
a(S'w'
I1
tp232
a(S'p2_tl'
I135
tp233
a(S'w'
I720
tp234
a(S'p1_vo'
I2
tp235
a(S'w'
I17
tp236
a(S'p2_vo'
I4
tp237
a(S'w'
I716
tp238
a(S'p1_vo'
I3
tp239
a(S'w'
I1
tp240
a(S'p1_tl'
I227
tp241
a(S'w'
I11
tp242
a(S'p2_vo'
I5
tp243
a(S'p2_tl'
I136
tp244
a(S'w'
I722
tp245
a(S'p1_vo'
I4
tp246
a(S'w'
I38
tp247
a(S'p2_vo'
I6
tp248
a(S'w'
I696
tp249
a(S'p1_vo'
I6
tp250
a(S'w'
I1
tp251
a(S'p1_tl'
I13
tp252
a(S'p1_ll'
I1
tp253
a(S'p1_th'
I1
tp254
a(S'w'
I11
tp255
a(S'p2_vo'
I8
tp256
a(S'w'
I1
tp257
a(S'p2_tl'
I180
tp258
a(S'p2_ll'
I1
tp259
a(S'w'
I721
tp260
a(S'p1_vo'
I4
tp261
a(S'w'
I17
tp262
a(S'p2_vo'
I6
tp263
a(S'w'
I717
tp264
a(S'p1_vo'
I2
tp265
a(S'w'
I1
tp266
a(S'p1_tl'
I14
tp267
a(S'w'
I11
tp268
a(S'p2_vo'
I4
tp269
a(S'p2_tl'
I181
tp270
a(S'w'
I721
tp271
a(S'p1_vo'
I0
tp272
a(S'w'
I17
tp273
a(S'p2_vo'
I2
tp274
a(S'w'
I718
tp275
a(S'p1_tl'
I13
tp276
a(S'w'
I12
tp277
a(S'p2_vo'
I0
tp278
a(S'w'
I1
tp279
a(S'p2_tl'
I180
tp280
a(S'w'
I1454
tp281
a(S'p1_vo'
I1
tp282
a(S'w'
I1
tp283
a(S'p1_tl'
I14
tp284
a(S'w'
I11
tp285
a(S'p2_vo'
I1
tp286
a(S'p2_tl'
I181
tp287
a(S'w'
I722
tp288
a(S'p1_vo'
I2
tp289
a(S'w'
I35
tp290
a(S'p2_vo'
I2
tp291
a(S'w'
I698
tp292
a(S'p1_vo'
I6
tp293
a(S'w'
I1
tp294
a(S'p1_tl'
I29
tp295
a(S'p1_ll'
I1
tp296
a(S'w'
I11
tp297
a(S'p2_vo'
I8
tp298
a(S'w'
I1
tp299
a(S'p2_tl'
I190
tp300
a(S'p2_ll'
I1
tp301
a(S'w'
I12
tp302
a(S'tr_tl'
I135
tp303
a(S'tr_ll'
I1
tp304
a(S'w'
I709
tp305
a(S'p1_vo'
I4
tp306
a(S'w'
I17
tp307
a(S'p2_vo'
I6
tp308
a(S'w'
I717
tp309
a(S'p1_vo'
I2
tp310
a(S'w'
I1
tp311
a(S'p1_tl'
I30
tp312
a(S'w'
I11
tp313
a(S'p2_vo'
I4
tp314
a(S'p2_tl'
I191
tp315
a(S'w'
I722
tp316
a(S'p1_vo'
I0
tp317
a(S'w'
I17
tp318
a(S'p2_vo'
I2
tp319
a(S'w'
I717
tp320
a(S'p1_tl'
I29
tp321
a(S'w'
I12
tp322
a(S'p2_vo'
I0
tp323
a(S'w'
I1
tp324
a(S'p2_tl'
I190
tp325
a(S'w'
I1454
tp326
a(S'p1_vo'
I1
tp327
a(S'w'
I1
tp328
a(S'p1_tl'
I30
tp329
a(S'w'
I11
tp330
a(S'p2_vo'
I1
tp331
a(S'p2_tl'
I191
tp332
a(S'w'
I722
tp333
a(S'p1_vo'
I2
tp334
a(S'w'
I35
tp335
a(S'p2_vo'
I2
tp336
a(S'w'
I699
tp337
a(S'p1_vo'
I6
tp338
a(S'w'
I1
tp339
a(S'p1_tl'
I13
tp340
a(S'p1_ll'
I1
tp341
a(S'w'
I11
tp342
a(S'p2_vo'
I8
tp343
a(S'w'
I1
tp344
a(S'p2_tl'
I180
tp345
a(S'p2_ll'
I1
tp346
a(S'w'
I720
tp347
a(S'p1_vo'
I4
tp348
a(S'w'
I17
tp349
a(S'p2_vo'
I6
tp350
a(S'w'
I717
tp351
a(S'p1_vo'
I2
tp352
a(S'w'
I1
tp353
a(S'p1_tl'
I14
tp354
a(S'w'
I11
tp355
a(S'p2_vo'
I4
tp356
a(S'p2_tl'
I181
tp357
a(S'w'
I722
tp358
a(S'p1_vo'
I0
tp359
a(S'w'
I17
tp360
a(S'p2_vo'
I2
tp361
a(S'w'
I718
tp362
a(S'p1_tl'
I13
tp363
a(S'w'
I12
tp364
a(S'p2_vo'
I0
tp365
a(S'w'
I1
tp366
a(S'p2_tl'
I180
tp367
a(S'w'
I1453
tp368
a(S'p1_vo'
I1
tp369
a(S'w'
I1
tp370
a(S'p1_tl'
I14
tp371
a(S'w'
I11
tp372
a(S'p2_vo'
I1
tp373
a(S'p2_tl'
I181
tp374
a(S'w'
I722
tp375
a(S'p1_vo'
I2
tp376
a(S'w'
I38
tp377
a(S'p2_vo'
I2
tp378
a(S'w'
I696
tp379
a(S'p1_vo'
I12
tp380
a(S'w'
I1
tp381
a(S'p1_tl'
I202
tp382
a(S'p1_ll'
I1
tp383
a(S'p1_th'
I0
tp384
a(S'w'
I11
tp385
a(S'p2_vo'
I14
tp386
a(S'w'
I1
tp387
a(S'p2_tl'
I120
tp388
a(S'p2_ll'
I1
tp389
a(S'w'
I12
tp390
a(S'tr_tl'
I170
tp391
a(S'tr_ll'
I1
tp392
a(S'w'
I709
tp393
a(S'p1_vo'
I10
tp394
a(S'w'
I17
tp395
a(S'p2_vo'
I12
tp396
a(S'w'
I717
tp397
a(S'p1_vo'
I8
tp398
a(S'w'
I1
tp399
a(S'p1_tl'
I203
tp400
a(S'w'
I11
tp401
a(S'p2_vo'
I10
tp402
a(S'p2_tl'
I121
tp403
a(S'w'
I721
tp404
a(S'p1_vo'
I6
tp405
a(S'w'
I17
tp406
a(S'p2_vo'
I8
tp407
a(S'w'
I717
tp408
a(S'p1_vo'
I4
tp409
a(S'w'
I1
tp410
a(S'p1_tl'
I202
tp411
a(S'w'
I12
tp412
a(S'p2_vo'
I6
tp413
a(S'w'
I1
tp414
a(S'p2_tl'
I120
tp415
a(S'w'
I720
tp416
a(S'p1_vo'
I2
tp417
a(S'w'
I17
tp418
a(S'p2_vo'
I4
tp419
a(S'w'
I717
tp420
a(S'p1_vo'
I3
tp421
a(S'w'
I1
tp422
a(S'p1_tl'
I203
tp423
a(S'w'
I11
tp424
a(S'p2_vo'
I5
tp425
a(S'p2_tl'
I121
tp426
a(S'w'
I722
tp427
a(S'p1_vo'
I4
tp428
a(S'w'
I38
tp429
a(S'p2_vo'
I6
tp430
a(S'w'
I695
tp431
a(S'p1_vo'
I6
tp432
a(S'w'
I1
tp433
a(S'p1_tl'
I226
tp434
a(S'p1_ll'
I1
tp435
a(S'w'
I11
tp436
a(S'p2_vo'
I8
tp437
a(S'w'
I1
tp438
a(S'p2_tl'
I180
tp439
a(S'p2_ll'
I1
tp440
a(S'w'
I721
tp441
a(S'p1_vo'
I4
tp442
a(S'w'
I17
tp443
a(S'p2_vo'
I6
tp444
a(S'w'
I717
tp445
a(S'p1_vo'
I2
tp446
a(S'w'
I1
tp447
a(S'p1_tl'
I227
tp448
a(S'w'
I11
tp449
a(S'p2_vo'
I4
tp450
a(S'p2_tl'
I181
tp451
a(S'w'
I722
tp452
a(S'p1_vo'
I0
tp453
a(S'w'
I17
tp454
a(S'p2_vo'
I2
tp455
a(S'w'
I717
tp456
a(S'p1_tl'
I226
tp457
a(S'w'
I12
tp458
a(S'p2_vo'
I0
tp459
a(S'w'
I1
tp460
a(S'p2_tl'
I180
tp461
a(S'w'
I1454
tp462
a(S'p1_vo'
I1
tp463
a(S'w'
I1
tp464
a(S'p1_tl'
I227
tp465
a(S'w'
I11
tp466
a(S'p2_vo'
I1
tp467
a(S'p2_tl'
I181
tp468
a(S'w'
I722
tp469
a(S'p1_vo'
I2
tp470
a(S'w'
I35
tp471
a(S'p2_vo'
I2
tp472
a(S'w'
I699
tp473
a(S'p1_vo'
I6
tp474
a(S'w'
I1
tp475
a(S'p1_tl'
I240
tp476
a(S'p1_ll'
I1
tp477
a(S'w'
I11
tp478
a(S'p2_vo'
I8
tp479
a(S'w'
I1
tp480
a(S'p2_tl'
I190
tp481
a(S'p2_ll'
I1
tp482
a(S'w'
I12
tp483
a(S'tr_tl'
I143
tp484
a(S'tr_ll'
I1
tp485
a(S'w'
I708
tp486
a(S'p1_vo'
I4
tp487
a(S'w'
I17
tp488
a(S'p2_vo'
I6
tp489
a(S'w'
I717
tp490
a(S'p1_vo'
I2
tp491
a(S'w'
I1
tp492
a(S'p1_tl'
I241
tp493
a(S'w'
I11
tp494
a(S'p2_vo'
I4
tp495
a(S'p2_tl'
I191
tp496
a(S'w'
I722
tp497
a(S'p1_vo'
I0
tp498
a(S'w'
I17
tp499
a(S'p2_vo'
I2
tp500
a(S'w'
I718
tp501
a(S'p1_tl'
I240
tp502
a(S'w'
I12
tp503
a(S'p2_vo'
I0
tp504
a(S'w'
I1
tp505
a(S'p2_tl'
I190
tp506
a(S'w'
I1453
tp507
a(S'p1_vo'
I1
tp508
a(S'w'
I1
tp509
a(S'p1_tl'
I241
tp510
a(S'w'
I11
tp511
a(S'p2_vo'
I1
tp512
a(S'p2_tl'
I191
tp513
a(S'w'
I722
tp514
a(S'p1_vo'
I2
tp515
a(S'w'
I35
tp516
a(S'p2_vo'
I2
tp517
a(S'w'
I699
tp518
a(S'p1_vo'
I6
tp519
a(S'w'
I1
tp520
a(S'p1_tl'
I226
tp521
a(S'p1_ll'
I1
tp522
a(S'w'
I11
tp523
a(S'p2_vo'
I8
tp524
a(S'w'
I1
tp525
a(S'p2_tl'
I180
tp526
a(S'p2_ll'
I1
tp527
a(S'w'
I721
tp528
a(S'p1_vo'
I4
tp529
a(S'w'
I17
tp530
a(S'p2_vo'
I6
tp531
a(S'w'
I717
tp532
a(S'p1_vo'
I2
tp533
a(S'w'
I1
tp534
a(S'p1_tl'
I227
tp535
a(S'w'
I11
tp536
a(S'p2_vo'
I4
tp537
a(S'p2_tl'
I181
tp538
a(S'w'
I721
tp539
a(S'p1_vo'
I0
tp540
a(S'w'
I17
tp541
a(S'p2_vo'
I2
tp542
a(S'w'
I718
tp543
a(S'p1_tl'
I226
tp544
a(S'w'
I12
tp545
a(S'p2_vo'
I0
tp546
a(S'w'
I1
tp547
a(S'p2_tl'
I180
tp548
a(S'w'
I1454
tp549
a(S'p1_vo'
I1
tp550
a(S'w'
I1
tp551
a(S'p1_tl'
I227
tp552
a(S'w'
I11
tp553
a(S'p2_vo'
I1
tp554
a(S'p2_tl'
I181
tp555
a(S'w'
I722
tp556
a(S'p1_vo'
I2
tp557
a(S'w'
I48
tp558
a(S'p2_vo'
I2
tp559
a(S'w'
I685
tp560
a(S'p1_vo'
I4
tp561
a(S'w'
I1
tp562
a(S'p1_tl'
I143
tp563
a(S'p1_ll'
I1
tp564
a(S'w'
I13
tp565
a(S'p2_vo'
I14
tp566
a(S'w'
I1
tp567
a(S'p2_tl'
I101
tp568
a(S'p2_ll'
I1
tp569
a(S'w'
I11
tp570
a(S'tr_tl'
I180
tp571
a(S'w'
I1
tp572
a(S'tr_ll'
I1
tp573
a(S'w'
I707
tp574
a(S'w'
I17
tp575
a(S'p2_vo'
I12
tp576
a(S'w'
I717
tp577
a(S'p1_vo'
I5
tp578
a(S'w'
I1
tp579
a(S'w'
I12
tp580
a(S'p2_vo'
I10
tp581
a(S'w'
I1
tp582
a(S'p2_tl'
I102
tp583
a(S'w'
I720
tp584
a(S'w'
I19
tp585
a(S'p2_vo'
I8
tp586
a(S'w'
I714
tp587
a(S'p1_vo'
I6
tp588
a(S'w'
I1
tp589
a(S'w'
I12
tp590
a(S'p2_vo'
I6
tp591
a(S'w'
I1
tp592
a(S'p2_tl'
I101
tp593
a(S'w'
I720
tp594
a(S'w'
I17
tp595
a(S'p2_vo'
I4
tp596
a(S'w'
I717
tp597
a(S'p1_vo'
I7
tp598
a(S'w'
I1
tp599
a(S'w'
I12
tp600
a(S'p2_vo'
I5
tp601
a(S'w'
I1
tp602
a(S'p2_tl'
I102
tp603
a(S'w'
I720
tp604
a(S'w'
I34
tp605
a(S'p2_vo'
I6
tp606
a(S'w'
I700
tp607
a(S'p1_vo'
I8
tp608
a(S'w'
I1
tp609
a(S'w'
I18
tp610
a(S'p2_vo'
I8
tp611
a(S'w'
I1
tp612
a(S'p2_tl'
I113
tp613
a(S'p2_ll'
I1
tp614
a(S'w'
I12
tp615
a(S'tr_tl'
I143
tp616
a(S'tr_ll'
I1
tp617
a(S'w'
I702
tp618
a(S'w'
I18
tp619
a(S'p2_vo'
I6
tp620
a(S'w'
I716
tp621
a(S'w'
I18
tp622
a(S'p2_vo'
I4
tp623
a(S'w'
I1
tp624
a(S'p2_tl'
I114
tp625
a(S'w'
I715
tp626
a(S'w'
I18
tp627
a(S'p2_vo'
I2
tp628
a(S'w'
I716
tp629
a(S'w'
I18
tp630
a(S'p2_vo'
I0
tp631
a(S'w'
I1
tp632
a(S'p2_tl'
I113
tp633
a(S'w'
I715
tp634
a(S'w'
I733
tp635
a(S'w'
I18
tp636
a(S'p2_vo'
I1
tp637
a(S'w'
I1
tp638
a(S'p2_tl'
I114
tp639
a(S'w'
I715
tp640
a(S'w'
I30
tp641
a(S'p2_vo'
I2
tp642
a(S'w'
I704
tp643
a(S'w'
I12
tp644
a(S'p2_vo'
I8
tp645
a(S'w'
I1
tp646
a(S'p2_tl'
I120
tp647
a(S'w'
I1
tp648
a(S'p2_ll'
I1
tp649
a(S'w'
I11
tp650
a(S'tr_tl'
I120
tp651
a(S'w'
I1
tp652
a(S'tr_ll'
I1
tp653
a(S'w'
I707
tp654
a(S'w'
I13
tp655
a(S'p2_vo'
I6
tp656
a(S'w'
I721
tp657
a(S'w'
I13
tp658
a(S'p2_vo'
I4
tp659
a(S'w'
I1
tp660
a(S'p2_tl'
I121
tp661
a(S'w'
I719
tp662
a(S'w'
I13
tp663
a(S'p2_vo'
I2
tp664
a(S'w'
I721
tp665
a(S'w'
I13
tp666
a(S'p2_vo'
I0
tp667
a(S'w'
I1
tp668
a(S'p2_tl'
I120
tp669
a(S'w'
I720
tp670
a(S'w'
I734
tp671
a(S'w'
I13
tp672
a(S'p2_vo'
I1
tp673
a(S'w'
I1
tp674
a(S'p2_tl'
I121
tp675
a(S'w'
I720
tp676
a(S'w'
I42
tp677
a(S'p2_vo'
I2
tp678
a(S'w'
I691
tp679
a(S'p1_vo'
I10
tp680
a(S'w'
I1
tp681
a(S'p1_tl'
I240
tp682
a(S'p1_ll'
I1
tp683
a(S'w'
I11
tp684
a(S'p2_vo'
I8
tp685
a(S'w'
I1
tp686
a(S'p2_tl'
I180
tp687
a(S'p2_ll'
I1
tp688
a(S'w'
I12
tp689
a(S'tr_tl'
I113
tp690
a(S'tr_ll'
I1
tp691
a(S'w'
I709
tp692
a(S'p1_vo'
I8
tp693
a(S'w'
I17
tp694
a(S'p2_vo'
I6
tp695
a(S'w'
I717
tp696
a(S'p1_vo'
I6
tp697
a(S'w'
I1
tp698
a(S'p1_tl'
I241
tp699
a(S'w'
I11
tp700
a(S'p2_vo'
I4
tp701
a(S'p2_tl'
I181
tp702
a(S'w'
I722
tp703
a(S'p1_vo'
I4
tp704
a(S'w'
I17
tp705
a(S'p2_vo'
I2
tp706
a(S'w'
I716
tp707
a(S'p1_vo'
I2
tp708
a(S'w'
I1
tp709
a(S'p1_tl'
I240
tp710
a(S'w'
I12
tp711
a(S'p2_vo'
I0
tp712
a(S'w'
I1
tp713
a(S'p2_tl'
I180
tp714
a(S'w'
I720
tp715
a(S'p1_vo'
I0
tp716
a(S'w'
I734
tp717
a(S'p1_vo'
I1
tp718
a(S'w'
I1
tp719
a(S'p1_tl'
I241
tp720
a(S'w'
I11
tp721
a(S'p2_vo'
I1
tp722
a(S'p2_tl'
I181
tp723
a(S'w'
I722
tp724
a(S'p1_vo'
I2
tp725
a(S'w'
I48
tp726
a(S'p2_vo'
I2
tp727
a(S'w'
I686
tp728
a(S'p1_vo'
I12
tp729
a(S'w'
I1
tp730
a(S'p1_tl'
I214
tp731
a(S'p1_ll'
I1
tp732
a(S'w'
I17
tp733
a(S'p2_vo'
I14
tp734
a(S'w'
I1
tp735
a(S'p2_tl'
I180
tp736
a(S'p2_ll'
I1
tp737
a(S'w'
I17
tp738
a(S'tr_tl'
I127
tp739
a(S'w'
I1
tp740
a(S'tr_ll'
I1
tp741
a(S'w'
I696
tp742
a(S'p1_vo'
I10
tp743
a(S'w'
I1
tp744
a(S'w'
I16
tp745
a(S'p2_vo'
I12
tp746
a(S'w'
I1
tp747
a(S'w'
I716
tp748
a(S'p1_vo'
I8
tp749
a(S'w'
I1
tp750
a(S'w'
I18
tp751
a(S'p2_vo'
I10
tp752
a(S'w'
I1
tp753
a(S'w'
I714
tp754
a(S'p1_vo'
I6
tp755
a(S'w'
I1
tp756
a(S'w'
I12
tp757
a(S'p2_vo'
I8
tp758
a(S'w'
I1
tp759
a(S'w'
I720
tp760
a(S'w'
I19
tp761
a(S'w'
I715
tp762
a(S'p1_vo'
I7
tp763
a(S'w'
I1
tp764
a(S'w'
I18
tp765
a(S'p2_vo'
I9
tp766
a(S'w'
I1
tp767
a(S'w'
I713
tp768
a(S'p1_vo'
I5
tp769
a(S'w'
I1
tp770
a(S'w'
I16
tp771
a(S'p2_vo'
I7
tp772
a(S'w'
I1
tp773
a(S'w'
I716
tp774
a(S'p1_vo'
I3
tp775
a(S'w'
I1
tp776
a(S'w'
I32
tp777
a(S'p2_vo'
I5
tp778
a(S'w'
I1
tp779
a(S'w'
I700
tp780
a(S'p1_vo'
I4
tp781
a(S'w'
I1
tp782
a(S'w'
I19
tp783
a(S'w'
I715
tp784
a(S'w'
I19
tp785
a(S'w'
I715
tp786
a(S'w'
I19
tp787
a(S'w'
I714
tp788
a(S'w'
I19
tp789
a(S'w'
I715
tp790
a(S'w'
I19
tp791
a(S'w'
I715
tp792
a(S'w'
I19
tp793
a(S'w'
I715
tp794
a(S'w'
I19
tp795
a(S'w'
I715
tp796
a(S'w'
I19
tp797
a(S'w'
I714
tp798
a(S'w'
I19
tp799
a(S'w'
I715
tp800
a(S'w'
I19
tp801
a(S'w'
I715
tp802
a(S'w'
I19
tp803
a(S'w'
I715
tp804
a(S'w'
I19
tp805
a(S'w'
I714
tp806
a(S'w'
I19
tp807
a(S'w'
I715
tp808
a(S'w'
I19
tp809
a(S'w'
I715
tp810
a(S'w'
I19
tp811
a(S'w'
I715
tp812
a(S'w'
I19
tp813
a(S'w'
I715
tp814
a(S'w'
I19
tp815
a(S'w'
I714
tp816
a(S'w'
I19
tp817
a(S'w'
I715
tp818
a(S'w'
I19
tp819
a(S'w'
I715
tp820
a(S'w'
I19
tp821
a(S'w'
I715
tp822
a(S'w'
I19
tp823
a(S'w'
I715
tp824
a(S'w'
I19
tp825
a(S'w'
I714
tp826
a(S'w'
I19
tp827
a(S'w'
I715
tp828
a(S'w'
I19
tp829
a(S'w'
I715
tp830
a(S'w'
I19
tp831
a(S'w'
I715
tp832
a(S'w'
I19
tp833
a(S'w'
I715
tp834
a(S'w'
I19
tp835
a(S'w'
I714
tp836
a(S'w'
I19
tp837
a(S'w'
I715
tp838
a(S'w'
I19
tp839
a(S'w'
I715
tp840
a(S'w'
I19
tp841
a(S'w'
I715
tp842
a(S'w'
I19
tp843
a(S'w'
I715
tp844
a(S'w'
I36
tp845
a(S'w'
I697
tp846
a(S'w'
I7
tp847
a(S'w'
I1460
tp848
a(S'p1_vo'
I5
tp849
a(S'w'
I1
tp850
a(S'p1_tl'
I215
tp851
a(S'w'
I6
tp852
a(S'p2_vo'
I6
tp853
a(S'w'
I1
tp854
a(S'p2_tl'
I181
tp855
a(S'w'
I1459
tp856
a(S'p1_vo'
I6
tp857
a(S'w'
I1
tp858
a(S'p1_tl'
I214
tp859
a(S'w'
I6
tp860
a(S'p2_vo'
I7
tp861
a(S'w'
I1
tp862
a(S'p2_tl'
I180
tp863
a(S'w'
I1460
tp864
a(S'p1_vo'
I7
tp865
a(S'w'
I1
tp866
a(S'p1_tl'
I215
tp867
a(S'w'
I6
tp868
a(S'p2_vo'
I8
tp869
a(S'w'
I1
tp870
a(S'p2_tl'
I181
tp871
a(S'w'
I1460
tp872
a(S'p1_vo'
I8
tp873
a(S'w'
I1
tp874
a(S'p1_tl'
I214
tp875
a(S'w'
I6
tp876
a(S'p2_vo'
I9
tp877
a(S'w'
I1
tp878
a(S'p2_tl'
I180
tp879
a(S'w'
I1459
tp880
a(S'p1_vo'
I9
tp881
a(S'w'
I1
tp882
a(S'p1_tl'
I215
tp883
a(S'w'
I6
tp884
a(S'p2_vo'
I10
tp885
a(S'w'
I1
tp886
a(S'p2_tl'
I181
tp887
a(S'w'
I1460
tp888
a(S'p1_vo'
I10
tp889
a(S'w'
I1
tp890
a(S'p1_tl'
I214
tp891
a(S'w'
I6
tp892
a(S'p2_vo'
I11
tp893
a(S'w'
I1
tp894
a(S'p2_tl'
I180
tp895
a(S'w'
I1459
tp896
a(S'p1_vo'
I11
tp897
a(S'w'
I1
tp898
a(S'p1_tl'
I215
tp899
a(S'w'
I6
tp900
a(S'p2_vo'
I12
tp901
a(S'w'
I1
tp902
a(S'p2_tl'
I181
tp903
a(S'w'
I1460
tp904
a(S'p1_vo'
I12
tp905
a(S'w'
I1
tp906
a(S'p1_tl'
I214
tp907
a(S'w'
I6
tp908
a(S'p2_vo'
I13
tp909
a(S'w'
I1
tp910
a(S'p2_tl'
I180
tp911
a(S'w'
I1460
tp912
a(S'p1_tl'
I215
tp913
a(S'w'
I8
tp914
a(S'p2_tl'
I181
tp915
a(S'w'
I1459
tp916
a(S'p1_tl'
I214
tp917
a(S'w'
I8
tp918
a(S'p2_tl'
I180
tp919
a(S'w'
I1460
tp920
a(S'p1_tl'
I215
tp921
a(S'w'
I8
tp922
a(S'p2_tl'
I181
tp923
a(S'w'
I1460
tp924
a(S'p1_tl'
I240
tp925
a(S'p1_ll'
I1
tp926
a(S'w'
I17
tp927
a(S'p2_vo'
I14
tp928
a(S'w'
I1
tp929
a(S'p2_tl'
I190
tp930
a(S'p2_ll'
I1
tp931
a(S'w'
I17
tp932
a(S'tr_tl'
I135
tp933
a(S'w'
I1
tp934
a(S'tr_ll'
I1
tp935
a(S'w'
I697
tp936
a(S'p1_vo'
I10
tp937
a(S'w'
I1
tp938
a(S'w'
I16
tp939
a(S'p2_vo'
I12
tp940
a(S'w'
I1
tp941
a(S'w'
I716
tp942
a(S'p1_vo'
I8
tp943
a(S'w'
I1
tp944
a(S'w'
I18
tp945
a(S'p2_vo'
I10
tp946
a(S'w'
I1
tp947
a(S'w'
I714
tp948
a(S'p1_vo'
I6
tp949
a(S'w'
I1
tp950
a(S'w'
I12
tp951
a(S'p2_vo'
I8
tp952
a(S'w'
I1
tp953
a(S'w'
I719
tp954
a(S'w'
I19
tp955
a(S'w'
I715
tp956
a(S'p1_vo'
I7
tp957
a(S'w'
I1
tp958
a(S'w'
I18
tp959
a(S'p2_vo'
I9
tp960
a(S'w'
I1
tp961
a(S'w'
I714
tp962
a(S'p1_vo'
I5
tp963
a(S'w'
I1
tp964
a(S'w'
I16
tp965
a(S'p2_vo'
I7
tp966
a(S'w'
I1
tp967
a(S'w'
I716
tp968
a(S'p1_vo'
I3
tp969
a(S'w'
I1
tp970
a(S'w'
I32
tp971
a(S'p2_vo'
I5
tp972
a(S'w'
I1
tp973
a(S'w'
I700
tp974
a(S'p1_vo'
I4
tp975
a(S'w'
I1
tp976
a(S'w'
I19
tp977
a(S'w'
I714
tp978
a(S'w'
I19
tp979
a(S'w'
I715
tp980
a(S'w'
I19
tp981
a(S'w'
I715
tp982
a(S'w'
I19
tp983
a(S'w'
I715
tp984
a(S'w'
I19
tp985
a(S'w'
I715
tp986
a(S'w'
I19
tp987
a(S'w'
I714
tp988
a(S'w'
I19
tp989
a(S'w'
I715
tp990
a(S'w'
I19
tp991
a(S'w'
I715
tp992
a(S'w'
I19
tp993
a(S'w'
I715
tp994
a(S'w'
I19
tp995
a(S'w'
I715
tp996
a(S'w'
I19
tp997
a(S'w'
I714
tp998
a(S'w'
I19
tp999
a(S'w'
I715
tp1000
a(S'w'
I19
tp1001
a(S'w'
I715
tp1002
a(S'w'
I19
tp1003
a(S'w'
I715
tp1004
a(S'w'
I19
tp1005
a(S'w'
I715
tp1006
a(S'w'
I19
tp1007
a(S'w'
I714
tp1008
a(S'w'
I19
tp1009
a(S'w'
I715
tp1010
a(S'w'
I19
tp1011
a(S'w'
I715
tp1012
a(S'w'
I19
tp1013
a(S'w'
I715
tp1014
a(S'w'
I19
tp1015
a(S'w'
I714
tp1016
a(S'w'
I19
tp1017
a(S'w'
I715
tp1018
a(S'w'
I19
tp1019
a(S'w'
I715
tp1020
a(S'w'
I19
tp1021
a(S'w'
I715
tp1022
a(S'w'
I19
tp1023
a(S'w'
I715
tp1024
a(S'w'
I19
tp1025
a(S'w'
I714
tp1026
a(S'w'
I19
tp1027
a(S'w'
I715
tp1028
a(S'w'
I19
tp1029
a(S'w'
I715
tp1030
a(S'w'
I19
tp1031
a(S'w'
I715
tp1032
a(S'w'
I19
tp1033
a(S'w'
I715
tp1034
a(S'w'
I19
tp1035
a(S'w'
I714
tp1036
a(S'w'
I19
tp1037
a(S'w'
I715
tp1038
a(S'w'
I36
tp1039
a(S'w'
I698
tp1040
a(S'w'
I7
tp1041
a(S'w'
I1460
tp1042
a(S'p1_vo'
I5
tp1043
a(S'w'
I1
tp1044
a(S'p1_tl'
I241
tp1045
a(S'w'
I6
tp1046
a(S'p2_vo'
I6
tp1047
a(S'w'
I1
tp1048
a(S'p2_tl'
I191
tp1049
a(S'w'
I1459
tp1050
a(S'p1_vo'
I6
tp1051
a(S'w'
I1
tp1052
a(S'p1_tl'
I240
tp1053
a(S'w'
I6
tp1054
a(S'p2_vo'
I7
tp1055
a(S'w'
I1
tp1056
a(S'p2_tl'
I190
tp1057
a(S'w'
I1460
tp1058
a(S'p1_vo'
I7
tp1059
a(S'w'
I1
tp1060
a(S'p1_tl'
I241
tp1061
a(S'w'
I6
tp1062
a(S'p2_vo'
I8
tp1063
a(S'w'
I1
tp1064
a(S'p2_tl'
I191
tp1065
a(S'w'
I1459
tp1066
a(S'p1_vo'
I8
tp1067
a(S'w'
I1
tp1068
a(S'p1_tl'
I240
tp1069
a(S'w'
I6
tp1070
a(S'p2_vo'
I9
tp1071
a(S'w'
I1
tp1072
a(S'p2_tl'
I190
tp1073
a(S'w'
I1460
tp1074
a(S'p1_vo'
I9
tp1075
a(S'w'
I1
tp1076
a(S'p1_tl'
I241
tp1077
a(S'w'
I6
tp1078
a(S'p2_vo'
I10
tp1079
a(S'w'
I1
tp1080
a(S'p2_tl'
I191
tp1081
a(S'w'
I1459
tp1082
a(S'p1_vo'
I10
tp1083
a(S'w'
I1
tp1084
a(S'p1_tl'
I240
tp1085
a(S'w'
I6
tp1086
a(S'p2_vo'
I11
tp1087
a(S'w'
I1
tp1088
a(S'p2_tl'
I190
tp1089
a(S'w'
I1460
tp1090
a(S'p1_vo'
I11
tp1091
a(S'w'
I1
tp1092
a(S'p1_tl'
I241
tp1093
a(S'w'
I6
tp1094
a(S'p2_vo'
I12
tp1095
a(S'w'
I1
tp1096
a(S'p2_tl'
I191
tp1097
a(S'w'
I1460
tp1098
a(S'p1_vo'
I12
tp1099
a(S'w'
I1
tp1100
a(S'p1_tl'
I240
tp1101
a(S'w'
I6
tp1102
a(S'p2_vo'
I13
tp1103
a(S'w'
I1
tp1104
a(S'p2_tl'
I190
tp1105
a(S'w'
I1459
tp1106
a(S'p1_tl'
I241
tp1107
a(S'w'
I8
tp1108
a(S'p2_tl'
I191
tp1109
a(S'w'
I1460
tp1110
a(S'p1_tl'
I240
tp1111
a(S'w'
I8
tp1112
a(S'p2_tl'
I190
tp1113
a(S'w'
I1459
tp1114
a(S'p1_tl'
I241
tp1115
a(S'w'
I8
tp1116
a(S'p2_tl'
I191
tp1117
a(S'w'
I1461
tp1118
a(S'p1_tl'
I240
tp1119
a(S'p1_ll'
I1
tp1120
a(S'w'
I17
tp1121
a(S'p2_vo'
I14
tp1122
a(S'w'
I1
tp1123
a(S'p2_tl'
I180
tp1124
a(S'p2_ll'
I1
tp1125
a(S'w'
I17
tp1126
a(S'tr_tl'
I151
tp1127
a(S'w'
I1
tp1128
a(S'tr_ll'
I1
tp1129
a(S'w'
I697
tp1130
a(S'p1_vo'
I10
tp1131
a(S'w'
I1
tp1132
a(S'w'
I16
tp1133
a(S'p2_vo'
I12
tp1134
a(S'w'
I1
tp1135
a(S'w'
I716
tp1136
a(S'p1_vo'
I8
tp1137
a(S'w'
I1
tp1138
a(S'w'
I18
tp1139
a(S'p2_vo'
I10
tp1140
a(S'w'
I1
tp1141
a(S'w'
I713
tp1142
a(S'p1_vo'
I6
tp1143
a(S'w'
I1
tp1144
a(S'w'
I12
tp1145
a(S'p2_vo'
I8
tp1146
a(S'w'
I1
tp1147
a(S'w'
I720
tp1148
a(S'w'
I19
tp1149
a(S'w'
I715
tp1150
a(S'p1_vo'
I7
tp1151
a(S'w'
I1
tp1152
a(S'w'
I18
tp1153
a(S'p2_vo'
I9
tp1154
a(S'w'
I1
tp1155
a(S'w'
I714
tp1156
a(S'p1_vo'
I5
tp1157
a(S'w'
I1
tp1158
a(S'w'
I16
tp1159
a(S'p2_vo'
I7
tp1160
a(S'w'
I1
tp1161
a(S'w'
I716
tp1162
a(S'p1_vo'
I3
tp1163
a(S'w'
I1
tp1164
a(S'w'
I32
tp1165
a(S'p2_vo'
I5
tp1166
a(S'w'
I1
tp1167
a(S'w'
I699
tp1168
a(S'p1_vo'
I4
tp1169
a(S'w'
I1
tp1170
a(S'w'
I19
tp1171
a(S'w'
I715
tp1172
a(S'w'
I19
tp1173
a(S'w'
I715
tp1174
a(S'w'
I19
tp1175
a(S'w'
I715
tp1176
a(S'w'
I19
tp1177
a(S'w'
I714
tp1178
a(S'w'
I19
tp1179
a(S'w'
I715
tp1180
a(S'w'
I19
tp1181
a(S'w'
I715
tp1182
a(S'w'
I19
tp1183
a(S'w'
I715
tp1184
a(S'w'
I19
tp1185
a(S'w'
I715
tp1186
a(S'w'
I19
tp1187
a(S'w'
I714
tp1188
a(S'w'
I19
tp1189
a(S'w'
I715
tp1190
a(S'w'
I19
tp1191
a(S'w'
I715
tp1192
a(S'w'
I19
tp1193
a(S'w'
I715
tp1194
a(S'w'
I19
tp1195
a(S'w'
I715
tp1196
a(S'w'
I19
tp1197
a(S'w'
I714
tp1198
a(S'w'
I19
tp1199
a(S'w'
I715
tp1200
a(S'w'
I19
tp1201
a(S'w'
I715
tp1202
a(S'w'
I19
tp1203
a(S'w'
I715
tp1204
a(S'w'
I19
tp1205
a(S'w'
I715
tp1206
a(S'w'
I19
tp1207
a(S'w'
I714
tp1208
a(S'w'
I19
tp1209
a(S'w'
I715
tp1210
a(S'w'
I19
tp1211
a(S'w'
I715
tp1212
a(S'w'
I19
tp1213
a(S'w'
I715
tp1214
a(S'w'
I19
tp1215
a(S'w'
I715
tp1216
a(S'w'
I19
tp1217
a(S'w'
I714
tp1218
a(S'w'
I19
tp1219
a(S'w'
I715
tp1220
a(S'w'
I19
tp1221
a(S'w'
I715
tp1222
a(S'w'
I19
tp1223
a(S'w'
I715
tp1224
a(S'w'
I19
tp1225
a(S'w'
I714
tp1226
a(S'w'
I19
tp1227
a(S'w'
I715
tp1228
a(S'w'
I19
tp1229
a(S'w'
I715
tp1230
a(S'w'
I19
tp1231
a(S'w'
I715
tp1232
a(S'w'
I26
tp1233
a(S'w'
I708
tp1234
a(S'w'
I19
tp1235
a(S'w'
I714
tp1236
a(S'w'
I19
tp1237
a(S'w'
I715
tp1238
a(S'w'
I19
tp1239
a(S'w'
I715
tp1240
a(S'w'
I19
tp1241
a(S'w'
I715
tp1242
a(S'w'
I19
tp1243
a(S'w'
I715
tp1244
a(S'w'
I19
tp1245
a(S'w'
I714
tp1246
a(S'w'
I19
tp1247
a(S'w'
I715
tp1248
a(S'w'
I19
tp1249
a(S'w'
I715
tp1250
a(S'w'
I19
tp1251
a(S'w'
I715
tp1252
a(S'w'
I19
tp1253
a(S'w'
I715
tp1254
a(S'w'
I19
tp1255
a(S'w'
I714
tp1256
a(S'w'
I19
tp1257
a(S'w'
I715
tp1258
a(S'w'
I19
tp1259
a(S'w'
I715
tp1260
a(S'w'
I19
tp1261
a(S'w'
I715
tp1262
a(S'w'
I19
tp1263
a(S'w'
I715
tp1264
a(S'w'
I26
tp1265
a(S'w'
I707
tp1266
a(S'w'
I19
tp1267
a(S'w'
I715
tp1268
a(S'w'
I19
tp1269
a(S'w'
I715
tp1270
a(S'w'
I19
tp1271
a(S'w'
I715
tp1272
a(S'w'
I19
tp1273
a(S'w'
I714
tp1274
a(S'w'
I19
tp1275
a(S'w'
I715
tp1276
a(S'w'
I19
tp1277
a(S'w'
I715
tp1278
a(S'w'
I19
tp1279
a(S'w'
I715
tp1280
a(S'w'
I26
tp1281
a(S'w'
I708
tp1282
a(S'w'
I19
tp1283
a(S'w'
I714
tp1284
a(S'w'
I19
tp1285
a(S'w'
I715
tp1286
a(S'w'
I19
tp1287
a(S'w'
I715
tp1288
a(S'w'
I19
tp1289
a(S'w'
I715
tp1290
a(S'w'
I19
tp1291
a(S'w'
I715
tp1292
a(S'w'
I19
tp1293
a(S'w'
I714
tp1294
a(S'w'
I19
tp1295
a(S'w'
I715
tp1296
a(S'w'
I26
tp1297
a(S'w'
I708
tp1298
a(S'w'
I19
tp1299
a(S'w'
I715
tp1300
a(S'w'
I19
tp1301
a(S'w'
I715
tp1302
a(S'w'
I19
tp1303
a(S'w'
I714
tp1304
a(S'w'
I19
tp1305
a(S'w'
I715
tp1306
a(S'w'
I19
tp1307
a(S'w'
I715
tp1308
a(S'w'
I19
tp1309
a(S'w'
I715
tp1310
a(S'w'
I19
tp1311
a(S'w'
I715
tp1312
a(S'w'
I19
tp1313
a(S'w'
I714
tp1314
a(S'w'
I19
tp1315
a(S'w'
I715
tp1316
a(S'w'
I19
tp1317
a(S'w'
I715
tp1318
a(S'w'
I19
tp1319
a(S'w'
I715
tp1320
a(S'w'
I19
tp1321
a(S'w'
I714
tp1322
a(S'w'
I19
tp1323
a(S'w'
I715
tp1324
a(S'w'
I19
tp1325
a(S'w'
I715
tp1326
a(S'w'
I19
tp1327
a(S'w'
I715
tp1328
a(S'w'
I19
tp1329
a(S'w'
I715
tp1330
a(S'w'
I19
tp1331
a(S'w'
I714
tp1332
a(S'w'
I734
tp1333
a(S'w'
I18
tp1334
a(S'p2_vo'
I6
tp1335
a(S'w'
I1
tp1336
a(S'p2_tl'
I181
tp1337
a(S'w'
I715
tp1338
a(S'w'
I734
tp1339
a(S'w'
I18
tp1340
a(S'p2_vo'
I7
tp1341
a(S'w'
I1
tp1342
a(S'p2_tl'
I180
tp1343
a(S'w'
I715
tp1344
a(S'w'
I733
tp1345
a(S'w'
I18
tp1346
a(S'p2_vo'
I8
tp1347
a(S'w'
I1
tp1348
a(S'p2_tl'
I181
tp1349
a(S'w'
I715
tp1350
a(S'w'
I734
tp1351
a(S'w'
I18
tp1352
a(S'p2_vo'
I9
tp1353
a(S'w'
I1
tp1354
a(S'p2_tl'
I180
tp1355
a(S'w'
I715
tp1356
a(S'w'
I734
tp1357
a(S'w'
I18
tp1358
a(S'p2_vo'
I10
tp1359
a(S'w'
I1
tp1360
a(S'p2_tl'
I181
tp1361
a(S'w'
I714
tp1362
a(S'w'
I37
tp1363
a(S'tr_tl'
I152
tp1364
a(S'w'
I697
tp1365
a(S'w'
I18
tp1366
a(S'p2_vo'
I11
tp1367
a(S'w'
I1
tp1368
a(S'p2_tl'
I180
tp1369
a(S'w'
I715
tp1370
a(S'w'
I734
tp1371
a(S'w'
I18
tp1372
a(S'p2_vo'
I12
tp1373
a(S'w'
I1
tp1374
a(S'p2_tl'
I181
tp1375
a(S'w'
I7
tp1376
a(S'tr_tl'
I151
tp1377
a(S'w'
I708
tp1378
a(S'w'
I733
tp1379
a(S'w'
I6
tp1380
a(S'p2_vo'
I13
tp1381
a(S'w'
I1
tp1382
a(S'p2_tl'
I180
tp1383
a(S'w'
I760
tp1384
a(S'tr_tl'
I152
tp1385
a(S'w'
I700
tp1386
a(S'p1_vo'
I5
tp1387
a(S'w'
I1
tp1388
a(S'p1_tl'
I241
tp1389
a(S'w'
I6
tp1390
a(S'p2_vo'
I14
tp1391
a(S'w'
I1
tp1392
a(S'p2_tl'
I181
tp1393
a(S'w'
I1459
tp1394
a(S'p1_vo'
I6
tp1395
a(S'w'
I1
tp1396
a(S'p1_tl'
I240
tp1397
a(S'w'
I6
tp1398
a(S'p2_vo'
I15
tp1399
a(S'w'
I1
tp1400
a(S'p2_tl'
I180
tp1401
a(S'w'
I7
tp1402
a(S'tr_tl'
I151
tp1403
a(S'w'
I1453
tp1404
a(S'p1_vo'
I7
tp1405
a(S'w'
I1
tp1406
a(S'p1_tl'
I241
tp1407
a(S'w'
I7
tp1408
a(S'p2_tl'
I181
tp1409
a(S'w'
I763
tp1410
a(S'tr_tl'
I152
tp1411
a(S'w'
I697
tp1412
a(S'p1_vo'
I8
tp1413
a(S'w'
I1
tp1414
a(S'p1_tl'
I240
tp1415
a(S'w'
I7
tp1416
a(S'p2_tl'
I180
tp1417
a(S'w'
I1459
tp1418
a(S'p1_vo'
I9
tp1419
a(S'w'
I1
tp1420
a(S'p1_tl'
I241
tp1421
a(S'w'
I7
tp1422
a(S'p2_tl'
I181
tp1423
a(S'w'
I7
tp1424
a(S'tr_tl'
I151
tp1425
a(S'w'
I1453
tp1426
a(S'p1_vo'
I10
tp1427
a(S'w'
I1
tp1428
a(S'p1_tl'
I240
tp1429
a(S'w'
I7
tp1430
a(S'p2_tl'
I180
tp1431
a(S'w'
I760
tp1432
a(S'tr_tl'
I152
tp1433
a(S'w'
I699
tp1434
a(S'p1_vo'
I11
tp1435
a(S'w'
I1
tp1436
a(S'p1_tl'
I241
tp1437
a(S'w'
I7
tp1438
a(S'p2_tl'
I181
tp1439
a(S'w'
I1460
tp1440
a(S'p1_vo'
I12
tp1441
a(S'w'
I1
tp1442
a(S'p1_tl'
I240
tp1443
a(S'w'
I7
tp1444
a(S'p2_tl'
I180
tp1445
a(S'w'
I7
tp1446
a(S'tr_tl'
I151
tp1447
a(S'w'
I1453
tp1448
a(S'p1_tl'
I241
tp1449
a(S'w'
I8
tp1450
a(S'p2_tl'
I181
tp1451
a(S'w'
I751
tp1452
a(S'tr_tl'
I152
tp1453
a(S'w'
I708
tp1454
a(S'p1_tl'
I240
tp1455
a(S'w'
I8
tp1456
a(S'p2_tl'
I180
tp1457
a(S'w'
I1460
tp1458
a(S'p1_tl'
I241
tp1459
a(S'w'
I8
tp1460
a(S'p2_tl'
I181
tp1461
a(S'w'
I6
tp1462
a(S'tr_tl'
I151
tp1463
a(S'w'
I1452
tp1464
a(S'p1_du'
I0
tp1465
a(S'p1_vo'
I0
tp1466
a(S'w'
I1
tp1467
a(S'p1_tl'
I240
tp1468
a(S'w'
I12
tp1469
a(S'p2_du'
I3
tp1470
a(S'p2_vo'
I14
tp1471
a(S'p2_tl'
I143
tp1472
a(S'w'
I1
tp1473
a(S'p2_ll'
I1
tp1474
a(S'w'
I11
tp1475
a(S'tr_tl'
I143
tp1476
a(S'w'
I1
tp1477
a(S'tr_ll'
I1
tp1478
a(S'w'
I709
tp1479
a(S'w'
I12
tp1480
a(S'p2_vo'
I0
tp1481
a(S'w'
I722
tp1482
a(S'w'
I12
tp1483
a(S'p2_tl'
I144
tp1484
a(S'w'
I722
tp1485
a(S'w'
I733
tp1486
a(S'w'
I12
tp1487
a(S'p2_tl'
I143
tp1488
a(S'w'
I722
tp1489
a(S'w'
I12
tp1490
a(S'p2_vo'
I5
tp1491
a(S'w'
I722
tp1492
a(S'w'
I12
tp1493
a(S'p2_vo'
I0
tp1494
a(S'p2_tl'
I144
tp1495
a(S'w'
I722
tp1496
a(S'w'
I28
tp1497
a(S'w'
I37
tp1498
a(S'w'
I11
tp1499
a(S'w'
I658
tp1500
a(S'p1_du'
I2
tp1501
a(S'p1_vo'
I15
tp1502
a(S'w'
I1
tp1503
a(S'p1_tl'
I120
tp1504
a(S'p1_ll'
I1
tp1505
a(S'w'
I17
tp1506
a(S'p2_vo'
I8
tp1507
a(S'w'
I1
tp1508
a(S'p2_tl'
I95
tp1509
a(S'p2_ll'
I1
tp1510
a(S'w'
I714
tp1511
a(S'p1_vo'
I0
tp1512
a(S'w'
I1
tp1513
a(S'w'
I18
tp1514
a(S'p2_vo'
I0
tp1515
a(S'w'
I716
tp1516
a(S'w'
I13
tp1517
a(S'p2_tl'
I96
tp1518
a(S'w'
I720
tp1519
a(S'w'
I734
tp1520
a(S'w'
I19
tp1521
a(S'p2_tl'
I95
tp1522
a(S'w'
I715
tp1523
a(S'p1_vo'
I5
tp1524
a(S'w'
I1
tp1525
a(S'w'
I16
tp1526
a(S'p2_vo'
I5
tp1527
a(S'w'
I716
tp1528
a(S'p1_vo'
I0
tp1529
a(S'w'
I1
tp1530
a(S'w'
I16
tp1531
a(S'p2_vo'
I0
tp1532
a(S'w'
I1
tp1533
a(S'p2_tl'
I96
tp1534
a(S'w'
I717
tp1535
a(S'w'
I732
tp1536
a(S'p1_du'
I0
tp1537
a(S'w'
I1
tp1538
a(S'w'
I12
tp1539
a(S'p2_vo'
I8
tp1540
a(S'p2_tl'
I90
tp1541
a(S'w'
I1
tp1542
a(S'p2_ll'
I1
tp1543
a(S'w'
I721
tp1544
a(S'w'
I12
tp1545
a(S'p2_vo'
I0
tp1546
a(S'w'
I722
tp1547
a(S'w'
I12
tp1548
a(S'p2_tl'
I91
tp1549
a(S'w'
I721
tp1550
a(S'w'
I734
tp1551
a(S'w'
I12
tp1552
a(S'p2_tl'
I90
tp1553
a(S'w'
I722
tp1554
a(S'w'
I12
tp1555
a(S'p2_vo'
I5
tp1556
a(S'w'
I722
tp1557
a(S'w'
I12
tp1558
a(S'p2_vo'
I0
tp1559
a(S'p2_tl'
I91
tp1560
a(S'w'
I722
tp1561
a(S'w'
I733
tp1562
a(S'w'
I12
tp1563
a(S'p2_vo'
I14
tp1564
a(S'p2_tl'
I151
tp1565
a(S'w'
I1
tp1566
a(S'p2_ll'
I1
tp1567
a(S'w'
I10
tp1568
a(S'w'
I1
tp1569
a(S'tr_tl'
I151
tp1570
a(S'w'
I1
tp1571
a(S'tr_ll'
I1
tp1572
a(S'w'
I709
tp1573
a(S'w'
I12
tp1574
a(S'p2_vo'
I0
tp1575
a(S'w'
I722
tp1576
a(S'w'
I12
tp1577
a(S'p2_tl'
I152
tp1578
a(S'w'
I722
tp1579
a(S'w'
I733
tp1580
a(S'w'
I12
tp1581
a(S'p2_tl'
I151
tp1582
a(S'w'
I722
tp1583
a(S'w'
I12
tp1584
a(S'p2_vo'
I5
tp1585
a(S'w'
I722
tp1586
a(S'w'
I12
tp1587
a(S'p2_vo'
I0
tp1588
a(S'w'
I1
tp1589
a(S'p2_tl'
I152
tp1590
a(S'w'
I721
tp1591
a(S'w'
I734
tp1592
a(S'p1_du'
I2
tp1593
a(S'p1_vo'
I15
tp1594
a(S'w'
I1
tp1595
a(S'p1_ll'
I1
tp1596
a(S'w'
I17
tp1597
a(S'p2_vo'
I8
tp1598
a(S'w'
I1
tp1599
a(S'p2_tl'
I95
tp1600
a(S'p2_ll'
I1
tp1601
a(S'w'
I714
tp1602
a(S'p1_vo'
I0
tp1603
a(S'w'
I1
tp1604
a(S'w'
I18
tp1605
a(S'p2_vo'
I0
tp1606
a(S'w'
I716
tp1607
a(S'w'
I13
tp1608
a(S'p2_tl'
I96
tp1609
a(S'w'
I720
tp1610
a(S'w'
I734
tp1611
a(S'w'
I19
tp1612
a(S'p2_tl'
I95
tp1613
a(S'w'
I715
tp1614
a(S'p1_vo'
I5
tp1615
a(S'w'
I1
tp1616
a(S'w'
I16
tp1617
a(S'p2_vo'
I5
tp1618
a(S'w'
I716
tp1619
a(S'p1_vo'
I0
tp1620
a(S'w'
I1
tp1621
a(S'w'
I16
tp1622
a(S'p2_vo'
I0
tp1623
a(S'w'
I1
tp1624
a(S'p2_tl'
I96
tp1625
a(S'w'
I717
tp1626
a(S'w'
I732
tp1627
a(S'p1_du'
I0
tp1628
a(S'w'
I1
tp1629
a(S'w'
I12
tp1630
a(S'p2_vo'
I8
tp1631
a(S'p2_tl'
I90
tp1632
a(S'w'
I1
tp1633
a(S'p2_ll'
I1
tp1634
a(S'w'
I721
tp1635
a(S'w'
I12
tp1636
a(S'p2_vo'
I0
tp1637
a(S'w'
I722
tp1638
a(S'w'
I12
tp1639
a(S'p2_tl'
I91
tp1640
a(S'w'
I721
tp1641
a(S'w'
I734
tp1642
a(S'w'
I12
tp1643
a(S'p2_tl'
I90
tp1644
a(S'w'
I722
tp1645
a(S'w'
I12
tp1646
a(S'p2_vo'
I5
tp1647
a(S'w'
I722
tp1648
a(S'w'
I12
tp1649
a(S'p2_vo'
I0
tp1650
a(S'p2_tl'
I91
tp1651
a(S'w'
I722
tp1652
a(S'w'
I733
tp1653
a(S'w'
I12
tp1654
a(S'p2_vo'
I14
tp1655
a(S'p2_tl'
I143
tp1656
a(S'w'
I1
tp1657
a(S'p2_ll'
I1
tp1658
a(S'w'
I11
tp1659
a(S'tr_tl'
I143
tp1660
a(S'w'
I1
tp1661
a(S'tr_ll'
I1
tp1662
a(S'w'
I709
tp1663
a(S'w'
I12
tp1664
a(S'p2_vo'
I0
tp1665
a(S'w'
I722
tp1666
a(S'w'
I12
tp1667
a(S'p2_tl'
I144
tp1668
a(S'w'
I722
tp1669
a(S'w'
I733
tp1670
a(S'w'
I12
tp1671
a(S'p2_tl'
I143
tp1672
a(S'w'
I722
tp1673
a(S'w'
I12
tp1674
a(S'p2_vo'
I5
tp1675
a(S'w'
I722
tp1676
a(S'w'
I12
tp1677
a(S'p2_vo'
I0
tp1678
a(S'w'
I1
tp1679
a(S'p2_tl'
I144
tp1680
a(S'w'
I721
tp1681
a(S'w'
I734
tp1682
a(S'p1_du'
I2
tp1683
a(S'p1_vo'
I15
tp1684
a(S'w'
I1
tp1685
a(S'p1_ll'
I1
tp1686
a(S'w'
I17
tp1687
a(S'p2_vo'
I8
tp1688
a(S'w'
I1
tp1689
a(S'p2_tl'
I95
tp1690
a(S'p2_ll'
I1
tp1691
a(S'w'
I714
tp1692
a(S'p1_vo'
I0
tp1693
a(S'w'
I1
tp1694
a(S'w'
I18
tp1695
a(S'p2_vo'
I0
tp1696
a(S'w'
I716
tp1697
a(S'w'
I13
tp1698
a(S'p2_tl'
I96
tp1699
a(S'w'
I720
tp1700
a(S'w'
I734
tp1701
a(S'w'
I19
tp1702
a(S'p2_tl'
I95
tp1703
a(S'w'
I715
tp1704
a(S'p1_vo'
I5
tp1705
a(S'w'
I1
tp1706
a(S'w'
I16
tp1707
a(S'p2_vo'
I5
tp1708
a(S'w'
I716
tp1709
a(S'p1_vo'
I0
tp1710
a(S'w'
I1
tp1711
a(S'w'
I16
tp1712
a(S'p2_vo'
I0
tp1713
a(S'w'
I1
tp1714
a(S'p2_tl'
I96
tp1715
a(S'w'
I717
tp1716
a(S'w'
I732
tp1717
a(S'p1_du'
I0
tp1718
a(S'w'
I1
tp1719
a(S'w'
I12
tp1720
a(S'p2_vo'
I8
tp1721
a(S'p2_tl'
I90
tp1722
a(S'w'
I1
tp1723
a(S'p2_ll'
I1
tp1724
a(S'w'
I721
tp1725
a(S'w'
I12
tp1726
a(S'p2_vo'
I0
tp1727
a(S'w'
I722
tp1728
a(S'w'
I12
tp1729
a(S'p2_tl'
I91
tp1730
a(S'w'
I721
tp1731
a(S'w'
I734
tp1732
a(S'w'
I12
tp1733
a(S'p2_tl'
I90
tp1734
a(S'w'
I722
tp1735
a(S'w'
I12
tp1736
a(S'p2_vo'
I5
tp1737
a(S'w'
I722
tp1738
a(S'w'
I12
tp1739
a(S'p2_vo'
I0
tp1740
a(S'p2_tl'
I91
tp1741
a(S'w'
I722
tp1742
a(S'w'
I733
tp1743
a(S'w'
I12
tp1744
a(S'p2_vo'
I14
tp1745
a(S'p2_tl'
I151
tp1746
a(S'w'
I1
tp1747
a(S'p2_ll'
I1
tp1748
a(S'w'
I11
tp1749
a(S'tr_tl'
I151
tp1750
a(S'w'
I1
tp1751
a(S'tr_ll'
I1
tp1752
a(S'w'
I709
tp1753
a(S'w'
I12
tp1754
a(S'p2_vo'
I0
tp1755
a(S'w'
I722
tp1756
a(S'w'
I12
tp1757
a(S'p2_tl'
I152
tp1758
a(S'w'
I722
tp1759
a(S'w'
I733
tp1760
a(S'w'
I12
tp1761
a(S'p2_tl'
I151
tp1762
a(S'w'
I722
tp1763
a(S'w'
I12
tp1764
a(S'p2_vo'
I5
tp1765
a(S'w'
I722
tp1766
a(S'w'
I12
tp1767
a(S'p2_vo'
I0
tp1768
a(S'w'
I1
tp1769
a(S'p2_tl'
I152
tp1770
a(S'w'
I721
tp1771
a(S'w'
I734
tp1772
a(S'p1_du'
I2
tp1773
a(S'p1_vo'
I15
tp1774
a(S'w'
I1
tp1775
a(S'p1_ll'
I1
tp1776
a(S'w'
I17
tp1777
a(S'p2_vo'
I8
tp1778
a(S'w'
I1
tp1779
a(S'p2_tl'
I95
tp1780
a(S'p2_ll'
I1
tp1781
a(S'w'
I714
tp1782
a(S'p1_vo'
I0
tp1783
a(S'w'
I1
tp1784
a(S'w'
I18
tp1785
a(S'p2_vo'
I0
tp1786
a(S'w'
I716
tp1787
a(S'w'
I13
tp1788
a(S'p2_tl'
I96
tp1789
a(S'w'
I720
tp1790
a(S'w'
I734
tp1791
a(S'w'
I19
tp1792
a(S'p2_tl'
I95
tp1793
a(S'w'
I715
tp1794
a(S'p1_vo'
I5
tp1795
a(S'w'
I1
tp1796
a(S'w'
I16
tp1797
a(S'p2_vo'
I5
tp1798
a(S'w'
I716
tp1799
a(S'p1_vo'
I0
tp1800
a(S'w'
I1
tp1801
a(S'w'
I16
tp1802
a(S'p2_vo'
I0
tp1803
a(S'w'
I1
tp1804
a(S'p2_tl'
I96
tp1805
a(S'w'
I717
tp1806
a(S'w'
I732
tp1807
a(S'p1_du'
I0
tp1808
a(S'w'
I1
tp1809
a(S'w'
I12
tp1810
a(S'p2_vo'
I8
tp1811
a(S'p2_tl'
I90
tp1812
a(S'w'
I1
tp1813
a(S'p2_ll'
I1
tp1814
a(S'w'
I721
tp1815
a(S'w'
I12
tp1816
a(S'p2_vo'
I0
tp1817
a(S'w'
I722
tp1818
a(S'w'
I12
tp1819
a(S'p2_tl'
I91
tp1820
a(S'w'
I721
tp1821
a(S'w'
I734
tp1822
a(S'w'
I12
tp1823
a(S'p2_tl'
I90
tp1824
a(S'w'
I722
tp1825
a(S'w'
I12
tp1826
a(S'p2_vo'
I5
tp1827
a(S'w'
I722
tp1828
a(S'w'
I12
tp1829
a(S'p2_vo'
I0
tp1830
a(S'p2_tl'
I91
tp1831
a(S'w'
I721
tp1832
a(S'w'
I734
tp1833
a(S'w'
I12
tp1834
a(S'p2_vo'
I14
tp1835
a(S'p2_tl'
I143
tp1836
a(S'w'
I1
tp1837
a(S'p2_ll'
I1
tp1838
a(S'w'
I11
tp1839
a(S'tr_tl'
I143
tp1840
a(S'w'
I1
tp1841
a(S'tr_ll'
I1
tp1842
a(S'w'
I709
tp1843
a(S'w'
I12
tp1844
a(S'p2_vo'
I0
tp1845
a(S'w'
I722
tp1846
a(S'w'
I12
tp1847
a(S'p2_tl'
I144
tp1848
a(S'w'
I722
tp1849
a(S'w'
I733
tp1850
a(S'w'
I12
tp1851
a(S'p2_tl'
I143
tp1852
a(S'w'
I722
tp1853
a(S'w'
I12
tp1854
a(S'p2_vo'
I5
tp1855
a(S'w'
I722
tp1856
a(S'w'
I12
tp1857
a(S'p2_vo'
I0
tp1858
a(S'w'
I1
tp1859
a(S'p2_tl'
I144
tp1860
a(S'w'
I721
tp1861
a(S'w'
I734
tp1862
a(S'p1_du'
I2
tp1863
a(S'p1_vo'
I15
tp1864
a(S'w'
I1
tp1865
a(S'p1_ll'
I1
tp1866
a(S'w'
I17
tp1867
a(S'p2_vo'
I8
tp1868
a(S'w'
I1
tp1869
a(S'p2_tl'
I95
tp1870
a(S'p2_ll'
I1
tp1871
a(S'w'
I714
tp1872
a(S'p1_vo'
I0
tp1873
a(S'w'
I1
tp1874
a(S'w'
I18
tp1875
a(S'p2_vo'
I0
tp1876
a(S'w'
I716
tp1877
a(S'w'
I13
tp1878
a(S'p2_tl'
I96
tp1879
a(S'w'
I720
tp1880
a(S'w'
I734
tp1881
a(S'w'
I19
tp1882
a(S'p2_tl'
I95
tp1883
a(S'w'
I715
tp1884
a(S'p1_vo'
I5
tp1885
a(S'w'
I1
tp1886
a(S'w'
I16
tp1887
a(S'p2_vo'
I5
tp1888
a(S'w'
I716
tp1889
a(S'p1_vo'
I0
tp1890
a(S'w'
I1
tp1891
a(S'w'
I16
tp1892
a(S'p2_vo'
I0
tp1893
a(S'w'
I1
tp1894
a(S'p2_tl'
I96
tp1895
a(S'w'
I717
tp1896
a(S'w'
I732
tp1897
a(S'p1_du'
I0
tp1898
a(S'w'
I1
tp1899
a(S'w'
I12
tp1900
a(S'p2_vo'
I8
tp1901
a(S'p2_tl'
I90
tp1902
a(S'w'
I1
tp1903
a(S'p2_ll'
I1
tp1904
a(S'w'
I721
tp1905
a(S'w'
I12
tp1906
a(S'p2_vo'
I0
tp1907
a(S'w'
I722
tp1908
a(S'w'
I12
tp1909
a(S'p2_tl'
I91
tp1910
a(S'w'
I721
tp1911
a(S'w'
I734
tp1912
a(S'w'
I12
tp1913
a(S'p2_tl'
I90
tp1914
a(S'w'
I722
tp1915
a(S'w'
I12
tp1916
a(S'p2_vo'
I5
tp1917
a(S'w'
I722
tp1918
a(S'w'
I12
tp1919
a(S'p2_vo'
I0
tp1920
a(S'p2_tl'
I91
tp1921
a(S'w'
I721
tp1922
a(S'w'
I734
tp1923
a(S'w'
I12
tp1924
a(S'p2_vo'
I14
tp1925
a(S'w'
I1
tp1926
a(S'p2_tl'
I151
tp1927
a(S'p2_ll'
I1
tp1928
a(S'w'
I11
tp1929
a(S'tr_tl'
I151
tp1930
a(S'w'
I1
tp1931
a(S'tr_ll'
I1
tp1932
a(S'w'
I709
tp1933
a(S'w'
I12
tp1934
a(S'p2_vo'
I0
tp1935
a(S'w'
I722
tp1936
a(S'w'
I12
tp1937
a(S'p2_tl'
I152
tp1938
a(S'w'
I722
tp1939
a(S'w'
I733
tp1940
a(S'w'
I12
tp1941
a(S'p2_tl'
I151
tp1942
a(S'w'
I722
tp1943
a(S'w'
I12
tp1944
a(S'p2_vo'
I5
tp1945
a(S'w'
I722
tp1946
a(S'w'
I12
tp1947
a(S'p2_vo'
I0
tp1948
a(S'w'
I1
tp1949
a(S'p2_tl'
I152
tp1950
a(S'w'
I721
tp1951
a(S'w'
I734
tp1952
a(S'p1_du'
I2
tp1953
a(S'p1_vo'
I15
tp1954
a(S'w'
I1
tp1955
a(S'p1_ll'
I1
tp1956
a(S'w'
I17
tp1957
a(S'p2_vo'
I8
tp1958
a(S'w'
I1
tp1959
a(S'p2_tl'
I95
tp1960
a(S'p2_ll'
I1
tp1961
a(S'w'
I714
tp1962
a(S'p1_vo'
I0
tp1963
a(S'w'
I1
tp1964
a(S'w'
I18
tp1965
a(S'p2_vo'
I0
tp1966
a(S'w'
I716
tp1967
a(S'w'
I13
tp1968
a(S'p2_tl'
I96
tp1969
a(S'w'
I720
tp1970
a(S'w'
I734
tp1971
a(S'w'
I19
tp1972
a(S'p2_tl'
I95
tp1973
a(S'w'
I715
tp1974
a(S'p1_vo'
I5
tp1975
a(S'w'
I1
tp1976
a(S'w'
I16
tp1977
a(S'p2_vo'
I5
tp1978
a(S'w'
I716
tp1979
a(S'p1_vo'
I0
tp1980
a(S'w'
I1
tp1981
a(S'w'
I16
tp1982
a(S'p2_vo'
I0
tp1983
a(S'w'
I1
tp1984
a(S'p2_tl'
I96
tp1985
a(S'w'
I717
tp1986
a(S'w'
I732
tp1987
a(S'p1_du'
I0
tp1988
a(S'w'
I1
tp1989
a(S'w'
I12
tp1990
a(S'p2_vo'
I8
tp1991
a(S'p2_tl'
I90
tp1992
a(S'w'
I1
tp1993
a(S'p2_ll'
I1
tp1994
a(S'w'
I721
tp1995
a(S'w'
I12
tp1996
a(S'p2_vo'
I0
tp1997
a(S'w'
I722
tp1998
a(S'w'
I12
tp1999
a(S'p2_tl'
I91
tp2000
a(S'w'
I721
tp2001
a(S'w'
I734
tp2002
a(S'w'
I12
tp2003
a(S'p2_tl'
I90
tp2004
a(S'w'
I722
tp2005
a(S'w'
I12
tp2006
a(S'p2_vo'
I5
tp2007
a(S'w'
I722
tp2008
a(S'w'
I12
tp2009
a(S'p2_vo'
I0
tp2010
a(S'p2_tl'
I91
tp2011
a(S'w'
I721
tp2012
a(S'w'
I734
tp2013
a(S'p1_du'
I2
tp2014
a(S'p1_vo'
I6
tp2015
a(S'w'
I1
tp2016
a(S'p1_tl'
I64
tp2017
a(S'p1_ll'
I1
tp2018
a(S'p1_th'
I1
tp2019
a(S'w'
I11
tp2020
a(S'p2_du'
I2
tp2021
a(S'p2_vo'
I8
tp2022
a(S'w'
I1
tp2023
a(S'p2_tl'
I190
tp2024
a(S'p2_ll'
I1
tp2025
a(S'w'
I12
tp2026
a(S'tr_tl'
I143
tp2027
a(S'tr_ll'
I1
tp2028
a(S'w'
I709
tp2029
a(S'p1_vo'
I4
tp2030
a(S'w'
I17
tp2031
a(S'p2_vo'
I6
tp2032
a(S'w'
I717
tp2033
a(S'p1_vo'
I2
tp2034
a(S'w'
I1
tp2035
a(S'p1_tl'
I65
tp2036
a(S'w'
I11
tp2037
a(S'p2_vo'
I4
tp2038
a(S'p2_tl'
I191
tp2039
a(S'w'
I722
tp2040
a(S'p1_vo'
I0
tp2041
a(S'w'
I17
tp2042
a(S'p2_vo'
I2
tp2043
a(S'w'
I717
tp2044
a(S'p1_tl'
I64
tp2045
a(S'w'
I12
tp2046
a(S'p2_vo'
I0
tp2047
a(S'w'
I1
tp2048
a(S'p2_tl'
I190
tp2049
a(S'w'
I1454
tp2050
a(S'p1_vo'
I1
tp2051
a(S'w'
I1
tp2052
a(S'p1_tl'
I65
tp2053
a(S'w'
I11
tp2054
a(S'p2_vo'
I1
tp2055
a(S'p2_tl'
I191
tp2056
a(S'w'
I722
tp2057
a(S'p1_vo'
I2
tp2058
a(S'w'
I38
tp2059
a(S'p2_vo'
I2
tp2060
a(S'w'
I696
tp2061
a(S'p1_vo'
I7
tp2062
a(S'w'
I1
tp2063
a(S'p1_tl'
I46
tp2064
a(S'p1_ll'
I1
tp2065
a(S'w'
I11
tp2066
a(S'p2_vo'
I9
tp2067
a(S'w'
I1
tp2068
a(S'p2_tl'
I180
tp2069
a(S'p2_ll'
I1
tp2070
a(S'w'
I720
tp2071
a(S'p1_vo'
I5
tp2072
a(S'w'
I17
tp2073
a(S'p2_vo'
I7
tp2074
a(S'w'
I717
tp2075
a(S'p1_vo'
I3
tp2076
a(S'w'
I1
tp2077
a(S'p1_tl'
I47
tp2078
a(S'w'
I11
tp2079
a(S'p2_vo'
I5
tp2080
a(S'p2_tl'
I181
tp2081
a(S'w'
I722
tp2082
a(S'p1_vo'
I1
tp2083
a(S'w'
I17
tp2084
a(S'p2_vo'
I3
tp2085
a(S'w'
I717
tp2086
a(S'p1_vo'
I0
tp2087
a(S'w'
I1
tp2088
a(S'p1_tl'
I46
tp2089
a(S'w'
I12
tp2090
a(S'p2_vo'
I1
tp2091
a(S'w'
I1
tp2092
a(S'p2_tl'
I180
tp2093
a(S'w'
I737
tp2094
a(S'p2_vo'
I0
tp2095
a(S'w'
I716
tp2096
a(S'p1_vo'
I1
tp2097
a(S'w'
I1
tp2098
a(S'p1_tl'
I47
tp2099
a(S'w'
I11
tp2100
a(S'p2_vo'
I1
tp2101
a(S'p2_tl'
I181
tp2102
a(S'w'
I722
tp2103
a(S'p1_vo'
I2
tp2104
a(S'w'
I38
tp2105
a(S'p2_vo'
I2
tp2106
a(S'w'
I696
tp2107
a(S'p1_vo'
I8
tp2108
a(S'w'
I1
tp2109
a(S'p1_tl'
I13
tp2110
a(S'p1_ll'
I1
tp2111
a(S'w'
I11
tp2112
a(S'p2_vo'
I10
tp2113
a(S'w'
I1
tp2114
a(S'p2_tl'
I160
tp2115
a(S'p2_ll'
I1
tp2116
a(S'w'
I12
tp2117
a(S'tr_tl'
I151
tp2118
a(S'tr_ll'
I1
tp2119
a(S'w'
I709
tp2120
a(S'p1_vo'
I6
tp2121
a(S'w'
I17
tp2122
a(S'p2_vo'
I8
tp2123
a(S'w'
I717
tp2124
a(S'p1_vo'
I4
tp2125
a(S'w'
I1
tp2126
a(S'p1_tl'
I14
tp2127
a(S'w'
I11
tp2128
a(S'p2_vo'
I6
tp2129
a(S'p2_tl'
I161
tp2130
a(S'w'
I721
tp2131
a(S'p1_vo'
I2
tp2132
a(S'w'
I17
tp2133
a(S'p2_vo'
I4
tp2134
a(S'w'
I717
tp2135
a(S'p1_vo'
I0
tp2136
a(S'w'
I1
tp2137
a(S'p1_tl'
I13
tp2138
a(S'w'
I12
tp2139
a(S'p2_vo'
I2
tp2140
a(S'w'
I1
tp2141
a(S'p2_tl'
I160
tp2142
a(S'w'
I737
tp2143
a(S'p2_vo'
I0
tp2144
a(S'w'
I717
tp2145
a(S'p1_vo'
I1
tp2146
a(S'w'
I1
tp2147
a(S'p1_tl'
I14
tp2148
a(S'w'
I11
tp2149
a(S'p2_vo'
I1
tp2150
a(S'p2_tl'
I161
tp2151
a(S'w'
I721
tp2152
a(S'p1_vo'
I2
tp2153
a(S'w'
I38
tp2154
a(S'p2_vo'
I2
tp2155
a(S'w'
I696
tp2156
a(S'p1_vo'
I9
tp2157
a(S'w'
I1
tp2158
a(S'p1_tl'
I226
tp2159
a(S'p1_ll'
I1
tp2160
a(S'p1_th'
I0
tp2161
a(S'w'
I11
tp2162
a(S'p2_vo'
I11
tp2163
a(S'w'
I1
tp2164
a(S'p2_tl'
I180
tp2165
a(S'p2_ll'
I1
tp2166
a(S'w'
I721
tp2167
a(S'p1_vo'
I7
tp2168
a(S'w'
I17
tp2169
a(S'p2_vo'
I9
tp2170
a(S'w'
I717
tp2171
a(S'p1_vo'
I5
tp2172
a(S'w'
I1
tp2173
a(S'p1_tl'
I227
tp2174
a(S'w'
I11
tp2175
a(S'p2_vo'
I7
tp2176
a(S'p2_tl'
I181
tp2177
a(S'w'
I722
tp2178
a(S'p1_vo'
I3
tp2179
a(S'w'
I17
tp2180
a(S'p2_vo'
I5
tp2181
a(S'w'
I716
tp2182
a(S'p1_vo'
I1
tp2183
a(S'w'
I1
tp2184
a(S'p1_tl'
I226
tp2185
a(S'w'
I12
tp2186
a(S'p2_vo'
I3
tp2187
a(S'w'
I1
tp2188
a(S'p2_tl'
I180
tp2189
a(S'w'
I720
tp2190
a(S'p1_vo'
I0
tp2191
a(S'w'
I17
tp2192
a(S'p2_vo'
I1
tp2193
a(S'w'
I717
tp2194
a(S'p1_vo'
I1
tp2195
a(S'w'
I1
tp2196
a(S'p1_tl'
I227
tp2197
a(S'w'
I11
tp2198
a(S'p2_vo'
I2
tp2199
a(S'p2_tl'
I181
tp2200
a(S'w'
I722
tp2201
a(S'p1_vo'
I2
tp2202
a(S'w'
I38
tp2203
a(S'p2_vo'
I3
tp2204
a(S'w'
I696
tp2205
a(S'p1_vo'
I11
tp2206
a(S'w'
I1
tp2207
a(S'p1_tl'
I240
tp2208
a(S'p1_ll'
I1
tp2209
a(S'w'
I11
tp2210
a(S'p2_vo'
I13
tp2211
a(S'w'
I1
tp2212
a(S'p2_tl'
I190
tp2213
a(S'p2_ll'
I1
tp2214
a(S'w'
I12
tp2215
a(S'tr_tl'
I160
tp2216
a(S'tr_ll'
I1
tp2217
a(S'w'
I708
tp2218
a(S'p1_vo'
I9
tp2219
a(S'w'
I17
tp2220
a(S'p2_vo'
I11
tp2221
a(S'w'
I717
tp2222
a(S'p1_vo'
I7
tp2223
a(S'w'
I1
tp2224
a(S'p1_tl'
I241
tp2225
a(S'w'
I11
tp2226
a(S'p2_vo'
I9
tp2227
a(S'p2_tl'
I191
tp2228
a(S'w'
I722
tp2229
a(S'p1_vo'
I5
tp2230
a(S'w'
I17
tp2231
a(S'p2_vo'
I7
tp2232
a(S'w'
I717
tp2233
a(S'p1_vo'
I3
tp2234
a(S'w'
I1
tp2235
a(S'p1_tl'
I240
tp2236
a(S'w'
I12
tp2237
a(S'p2_vo'
I5
tp2238
a(S'w'
I1
tp2239
a(S'p2_tl'
I190
tp2240
a(S'w'
I720
tp2241
a(S'p1_vo'
I1
tp2242
a(S'w'
I17
tp2243
a(S'p2_vo'
I3
tp2244
a(S'w'
I716
tp2245
a(S'p1_vo'
I2
tp2246
a(S'w'
I1
tp2247
a(S'p1_tl'
I241
tp2248
a(S'w'
I11
tp2249
a(S'p2_vo'
I4
tp2250
a(S'p2_tl'
I191
tp2251
a(S'w'
I722
tp2252
a(S'p1_vo'
I3
tp2253
a(S'w'
I38
tp2254
a(S'p2_vo'
I5
tp2255
a(S'w'
I696
tp2256
a(S'p1_vo'
I9
tp2257
a(S'w'
I1
tp2258
a(S'p1_tl'
I254
tp2259
a(S'p1_ll'
I1
tp2260
a(S'w'
I11
tp2261
a(S'p2_vo'
I11
tp2262
a(S'w'
I1
tp2263
a(S'p2_tl'
I214
tp2264
a(S'p2_ll'
I1
tp2265
a(S'w'
I721
tp2266
a(S'p1_vo'
I7
tp2267
a(S'w'
I17
tp2268
a(S'p2_vo'
I9
tp2269
a(S'w'
I717
tp2270
a(S'p1_vo'
I5
tp2271
a(S'w'
I1
tp2272
a(S'p1_tl'
I255
tp2273
a(S'w'
I11
tp2274
a(S'p2_vo'
I7
tp2275
a(S'p2_tl'
I215
tp2276
a(S'w'
I721
tp2277
a(S'p1_vo'
I3
tp2278
a(S'w'
I17
tp2279
a(S'p2_vo'
I5
tp2280
a(S'w'
I717
tp2281
a(S'p1_vo'
I1
tp2282
a(S'w'
I1
tp2283
a(S'p1_tl'
I254
tp2284
a(S'w'
I12
tp2285
a(S'p2_vo'
I3
tp2286
a(S'w'
I1
tp2287
a(S'p2_tl'
I214
tp2288
a(S'w'
I720
tp2289
a(S'p1_vo'
I0
tp2290
a(S'w'
I17
tp2291
a(S'p2_vo'
I1
tp2292
a(S'w'
I717
tp2293
a(S'p1_vo'
I1
tp2294
a(S'w'
I1
tp2295
a(S'p1_tl'
I255
tp2296
a(S'w'
I11
tp2297
a(S'p2_vo'
I2
tp2298
a(S'p2_tl'
I215
tp2299
a(S'w'
I721
tp2300
a(S'p1_vo'
I2
tp2301
a(S'w'
I38
tp2302
a(S'p2_vo'
I3
tp2303
a(S'w'
I696
tp2304
a(S'p1_vo'
I8
tp2305
a(S'w'
I1
tp2306
a(S'p1_tl'
I46
tp2307
a(S'p1_ll'
I1
tp2308
a(S'p1_th'
I1
tp2309
a(S'w'
I11
tp2310
a(S'p2_vo'
I10
tp2311
a(S'w'
I1
tp2312
a(S'p2_tl'
I240
tp2313
a(S'p2_ll'
I1
tp2314
a(S'w'
I12
tp2315
a(S'tr_tl'
I170
tp2316
a(S'tr_ll'
I1
tp2317
a(S'w'
I709
tp2318
a(S'p1_vo'
I6
tp2319
a(S'w'
I17
tp2320
a(S'p2_vo'
I8
tp2321
a(S'w'
I717
tp2322
a(S'p1_vo'
I4
tp2323
a(S'w'
I1
tp2324
a(S'p1_tl'
I47
tp2325
a(S'w'
I11
tp2326
a(S'p2_vo'
I6
tp2327
a(S'p2_tl'
I241
tp2328
a(S'w'
I722
tp2329
a(S'p1_vo'
I2
tp2330
a(S'w'
I17
tp2331
a(S'p2_vo'
I4
tp2332
a(S'w'
I716
tp2333
a(S'p1_vo'
I0
tp2334
a(S'w'
I1
tp2335
a(S'p1_tl'
I46
tp2336
a(S'w'
I12
tp2337
a(S'p2_vo'
I2
tp2338
a(S'w'
I1
tp2339
a(S'p2_tl'
I240
tp2340
a(S'w'
I737
tp2341
a(S'p2_vo'
I0
tp2342
a(S'w'
I717
tp2343
a(S'p1_vo'
I1
tp2344
a(S'w'
I1
tp2345
a(S'p1_tl'
I47
tp2346
a(S'w'
I11
tp2347
a(S'p2_vo'
I1
tp2348
a(S'p2_tl'
I241
tp2349
a(S'w'
I722
tp2350
a(S'p1_vo'
I2
tp2351
a(S'w'
I38
tp2352
a(S'p2_vo'
I2
tp2353
a(S'w'
I696
tp2354
a(S'p1_vo'
I7
tp2355
a(S'w'
I1
tp2356
a(S'p1_tl'
I64
tp2357
a(S'p1_ll'
I1
tp2358
a(S'w'
I11
tp2359
a(S'p2_vo'
I9
tp2360
a(S'w'
I1
tp2361
a(S'p2_tl'
I254
tp2362
a(S'p2_ll'
I1
tp2363
a(S'w'
I720
tp2364
a(S'p1_vo'
I5
tp2365
a(S'w'
I17
tp2366
a(S'p2_vo'
I7
tp2367
a(S'w'
I717
tp2368
a(S'p1_vo'
I3
tp2369
a(S'w'
I1
tp2370
a(S'p1_tl'
I65
tp2371
a(S'w'
I11
tp2372
a(S'p2_vo'
I5
tp2373
a(S'p2_tl'
I255
tp2374
a(S'w'
I722
tp2375
a(S'p1_vo'
I1
tp2376
a(S'w'
I17
tp2377
a(S'p2_vo'
I3
tp2378
a(S'w'
I717
tp2379
a(S'p1_vo'
I0
tp2380
a(S'w'
I1
tp2381
a(S'p1_tl'
I64
tp2382
a(S'w'
I12
tp2383
a(S'p2_vo'
I1
tp2384
a(S'w'
I1
tp2385
a(S'p2_tl'
I254
tp2386
a(S'w'
I737
tp2387
a(S'p2_vo'
I0
tp2388
a(S'w'
I716
tp2389
a(S'p1_vo'
I1
tp2390
a(S'w'
I1
tp2391
a(S'p1_tl'
I65
tp2392
a(S'w'
I11
tp2393
a(S'p2_vo'
I1
tp2394
a(S'p2_tl'
I255
tp2395
a(S'w'
I722
tp2396
a(S'p1_vo'
I2
tp2397
a(S'w'
I26
tp2398
a(S'p2_vo'
I2
tp2399
a(S'w'
I707
tp2400
a(S'p1_du'
I0
tp2401
a(S'p1_vo'
I0
tp2402
a(S'w'
I1
tp2403
a(S'p1_tl'
I64
tp2404
a(S'w'
I6
tp2405
a(S'p2_du'
I3
tp2406
a(S'p2_vo'
I14
tp2407
a(S'w'
I1
tp2408
a(S'p2_tl'
I180
tp2409
a(S'p2_ll'
I1
tp2410
a(S'w'
I11
tp2411
a(S'tr_tl'
I180
tp2412
a(S'w'
I1
tp2413
a(S'tr_ll'
I1
tp2414
a(S'w'
I726
tp2415
a(S'p2_vo'
I0
tp2416
a(S'w'
I723
tp2417
a(S'p1_tl'
I65
tp2418
a(S'w'
I7
tp2419
a(S'p2_tl'
I181
tp2420
a(S'w'
I1460
tp2421
a(S'p1_tl'
I64
tp2422
a(S'w'
I6
tp2423
a(S'p2_tl'
I180
tp2424
a(S'w'
I739
tp2425
a(S'p2_vo'
I5
tp2426
a(S'w'
I723
tp2427
a(S'p1_tl'
I65
tp2428
a(S'w'
I6
tp2429
a(S'p2_vo'
I0
tp2430
a(S'w'
I1
tp2431
a(S'p2_tl'
I181
tp2432
a(S'w'
I1460
tp2433
a(S'p1_du'
I2
tp2434
a(S'p1_vo'
I15
tp2435
a(S'w'
I1
tp2436
a(S'p1_tl'
I151
tp2437
a(S'p1_ll'
I1
tp2438
a(S'p1_th'
I0
tp2439
a(S'w'
I17
tp2440
a(S'p2_vo'
I8
tp2441
a(S'w'
I1
tp2442
a(S'p2_tl'
I120
tp2443
a(S'p2_ll'
I1
tp2444
a(S'w'
I715
tp2445
a(S'p1_vo'
I0
tp2446
a(S'w'
I1
tp2447
a(S'w'
I18
tp2448
a(S'p2_vo'
I0
tp2449
a(S'w'
I716
tp2450
a(S'w'
I13
tp2451
a(S'p2_tl'
I121
tp2452
a(S'w'
I720
tp2453
a(S'w'
I733
tp2454
a(S'w'
I19
tp2455
a(S'p2_tl'
I120
tp2456
a(S'w'
I715
tp2457
a(S'p1_vo'
I5
tp2458
a(S'w'
I1
tp2459
a(S'w'
I16
tp2460
a(S'p2_vo'
I5
tp2461
a(S'w'
I717
tp2462
a(S'p1_vo'
I0
tp2463
a(S'w'
I1
tp2464
a(S'w'
I16
tp2465
a(S'p2_vo'
I0
tp2466
a(S'w'
I1
tp2467
a(S'p2_tl'
I121
tp2468
a(S'w'
I717
tp2469
a(S'w'
I732
tp2470
a(S'p1_du'
I0
tp2471
a(S'w'
I1
tp2472
a(S'w'
I12
tp2473
a(S'p2_vo'
I8
tp2474
a(S'p2_tl'
I113
tp2475
a(S'w'
I1
tp2476
a(S'p2_ll'
I1
tp2477
a(S'w'
I720
tp2478
a(S'w'
I12
tp2479
a(S'p2_vo'
I0
tp2480
a(S'w'
I722
tp2481
a(S'w'
I12
tp2482
a(S'p2_tl'
I114
tp2483
a(S'w'
I722
tp2484
a(S'w'
I734
tp2485
a(S'w'
I12
tp2486
a(S'p2_tl'
I113
tp2487
a(S'w'
I722
tp2488
a(S'w'
I12
tp2489
a(S'p2_vo'
I5
tp2490
a(S'w'
I721
tp2491
a(S'w'
I12
tp2492
a(S'p2_vo'
I0
tp2493
a(S'p2_tl'
I114
tp2494
a(S'w'
I722
tp2495
a(S'w'
I734
tp2496
a(S'w'
I12
tp2497
a(S'p2_vo'
I14
tp2498
a(S'p2_tl'
I190
tp2499
a(S'w'
I1
tp2500
a(S'p2_ll'
I1
tp2501
a(S'w'
I11
tp2502
a(S'tr_tl'
I190
tp2503
a(S'w'
I1
tp2504
a(S'tr_ll'
I1
tp2505
a(S'w'
I709
tp2506
a(S'w'
I12
tp2507
a(S'p2_vo'
I0
tp2508
a(S'w'
I722
tp2509
a(S'w'
I12
tp2510
a(S'p2_tl'
I191
tp2511
a(S'w'
I721
tp2512
a(S'w'
I734
tp2513
a(S'w'
I12
tp2514
a(S'p2_tl'
I190
tp2515
a(S'w'
I722
tp2516
a(S'w'
I12
tp2517
a(S'p2_vo'
I5
tp2518
a(S'w'
I722
tp2519
a(S'w'
I12
tp2520
a(S'p2_vo'
I0
tp2521
a(S'p2_tl'
I191
tp2522
a(S'w'
I721
tp2523
a(S'w'
I734
tp2524
a(S'p1_du'
I2
tp2525
a(S'p1_vo'
I15
tp2526
a(S'w'
I1
tp2527
a(S'p1_ll'
I1
tp2528
a(S'w'
I17
tp2529
a(S'p2_vo'
I8
tp2530
a(S'w'
I1
tp2531
a(S'p2_tl'
I120
tp2532
a(S'p2_ll'
I1
tp2533
a(S'w'
I715
tp2534
a(S'p1_vo'
I0
tp2535
a(S'w'
I1
tp2536
a(S'w'
I18
tp2537
a(S'p2_vo'
I0
tp2538
a(S'w'
I716
tp2539
a(S'w'
I13
tp2540
a(S'p2_tl'
I121
tp2541
a(S'w'
I720
tp2542
a(S'w'
I733
tp2543
a(S'w'
I19
tp2544
a(S'p2_tl'
I120
tp2545
a(S'w'
I715
tp2546
a(S'p1_vo'
I5
tp2547
a(S'w'
I1
tp2548
a(S'w'
I16
tp2549
a(S'p2_vo'
I5
tp2550
a(S'w'
I717
tp2551
a(S'p1_vo'
I0
tp2552
a(S'w'
I1
tp2553
a(S'w'
I16
tp2554
a(S'p2_vo'
I0
tp2555
a(S'w'
I1
tp2556
a(S'p2_tl'
I121
tp2557
a(S'w'
I717
tp2558
a(S'w'
I732
tp2559
a(S'p1_du'
I0
tp2560
a(S'w'
I1
tp2561
a(S'w'
I12
tp2562
a(S'p2_vo'
I8
tp2563
a(S'p2_tl'
I113
tp2564
a(S'w'
I1
tp2565
a(S'p2_ll'
I1
tp2566
a(S'w'
I720
tp2567
a(S'w'
I12
tp2568
a(S'p2_vo'
I0
tp2569
a(S'w'
I722
tp2570
a(S'w'
I12
tp2571
a(S'p2_tl'
I114
tp2572
a(S'w'
I722
tp2573
a(S'w'
I734
tp2574
a(S'w'
I12
tp2575
a(S'p2_tl'
I113
tp2576
a(S'w'
I722
tp2577
a(S'w'
I12
tp2578
a(S'p2_vo'
I5
tp2579
a(S'w'
I721
tp2580
a(S'w'
I12
tp2581
a(S'p2_vo'
I0
tp2582
a(S'p2_tl'
I114
tp2583
a(S'w'
I722
tp2584
a(S'w'
I734
tp2585
a(S'w'
I12
tp2586
a(S'p2_vo'
I14
tp2587
a(S'p2_tl'
I180
tp2588
a(S'w'
I1
tp2589
a(S'p2_ll'
I1
tp2590
a(S'w'
I11
tp2591
a(S'tr_tl'
I180
tp2592
a(S'w'
I1
tp2593
a(S'tr_ll'
I1
tp2594
a(S'w'
I709
tp2595
a(S'w'
I12
tp2596
a(S'p2_vo'
I0
tp2597
a(S'w'
I722
tp2598
a(S'w'
I12
tp2599
a(S'p2_tl'
I181
tp2600
a(S'w'
I721
tp2601
a(S'w'
I734
tp2602
a(S'w'
I12
tp2603
a(S'p2_tl'
I180
tp2604
a(S'w'
I722
tp2605
a(S'w'
I12
tp2606
a(S'p2_vo'
I5
tp2607
a(S'w'
I722
tp2608
a(S'w'
I12
tp2609
a(S'p2_vo'
I0
tp2610
a(S'w'
I1
tp2611
a(S'p2_tl'
I181
tp2612
a(S'w'
I720
tp2613
a(S'w'
I734
tp2614
a(S'p1_du'
I2
tp2615
a(S'p1_vo'
I15
tp2616
a(S'w'
I1
tp2617
a(S'p1_ll'
I1
tp2618
a(S'w'
I17
tp2619
a(S'p2_vo'
I8
tp2620
a(S'w'
I1
tp2621
a(S'p2_tl'
I120
tp2622
a(S'p2_ll'
I1
tp2623
a(S'w'
I715
tp2624
a(S'p1_vo'
I0
tp2625
a(S'w'
I1
tp2626
a(S'w'
I18
tp2627
a(S'p2_vo'
I0
tp2628
a(S'w'
I716
tp2629
a(S'w'
I13
tp2630
a(S'p2_tl'
I121
tp2631
a(S'w'
I720
tp2632
a(S'w'
I733
tp2633
a(S'w'
I19
tp2634
a(S'p2_tl'
I120
tp2635
a(S'w'
I715
tp2636
a(S'p1_vo'
I5
tp2637
a(S'w'
I1
tp2638
a(S'w'
I16
tp2639
a(S'p2_vo'
I5
tp2640
a(S'w'
I717
tp2641
a(S'p1_vo'
I0
tp2642
a(S'w'
I1
tp2643
a(S'w'
I16
tp2644
a(S'p2_vo'
I0
tp2645
a(S'w'
I1
tp2646
a(S'p2_tl'
I121
tp2647
a(S'w'
I717
tp2648
a(S'w'
I732
tp2649
a(S'p1_du'
I0
tp2650
a(S'w'
I1
tp2651
a(S'w'
I12
tp2652
a(S'p2_vo'
I8
tp2653
a(S'p2_tl'
I113
tp2654
a(S'w'
I1
tp2655
a(S'p2_ll'
I1
tp2656
a(S'w'
I720
tp2657
a(S'w'
I12
tp2658
a(S'p2_vo'
I0
tp2659
a(S'w'
I722
tp2660
a(S'w'
I12
tp2661
a(S'p2_tl'
I114
tp2662
a(S'w'
I722
tp2663
a(S'w'
I734
tp2664
a(S'w'
I12
tp2665
a(S'p2_tl'
I113
tp2666
a(S'w'
I722
tp2667
a(S'w'
I12
tp2668
a(S'p2_vo'
I5
tp2669
a(S'w'
I721
tp2670
a(S'w'
I12
tp2671
a(S'p2_vo'
I0
tp2672
a(S'w'
I1
tp2673
a(S'p2_tl'
I114
tp2674
a(S'w'
I721
tp2675
a(S'w'
I734
tp2676
a(S'w'
I12
tp2677
a(S'p2_vo'
I14
tp2678
a(S'p2_tl'
I190
tp2679
a(S'w'
I1
tp2680
a(S'p2_ll'
I1
tp2681
a(S'w'
I11
tp2682
a(S'tr_tl'
I190
tp2683
a(S'w'
I1
tp2684
a(S'tr_ll'
I1
tp2685
a(S'w'
I709
tp2686
a(S'w'
I12
tp2687
a(S'p2_vo'
I0
tp2688
a(S'w'
I722
tp2689
a(S'w'
I12
tp2690
a(S'p2_tl'
I191
tp2691
a(S'w'
I721
tp2692
a(S'w'
I734
tp2693
a(S'w'
I12
tp2694
a(S'p2_tl'
I190
tp2695
a(S'w'
I722
tp2696
a(S'w'
I12
tp2697
a(S'p2_vo'
I5
tp2698
a(S'w'
I722
tp2699
a(S'w'
I12
tp2700
a(S'p2_vo'
I0
tp2701
a(S'w'
I1
tp2702
a(S'p2_tl'
I191
tp2703
a(S'w'
I720
tp2704
a(S'w'
I734
tp2705
a(S'p1_du'
I2
tp2706
a(S'p1_vo'
I15
tp2707
a(S'w'
I1
tp2708
a(S'p1_ll'
I1
tp2709
a(S'w'
I17
tp2710
a(S'p2_vo'
I8
tp2711
a(S'w'
I1
tp2712
a(S'p2_tl'
I120
tp2713
a(S'p2_ll'
I1
tp2714
a(S'w'
I715
tp2715
a(S'p1_vo'
I0
tp2716
a(S'w'
I1
tp2717
a(S'w'
I18
tp2718
a(S'p2_vo'
I0
tp2719
a(S'w'
I716
tp2720
a(S'w'
I13
tp2721
a(S'p2_tl'
I121
tp2722
a(S'w'
I720
tp2723
a(S'w'
I733
tp2724
a(S'w'
I19
tp2725
a(S'p2_tl'
I120
tp2726
a(S'w'
I715
tp2727
a(S'p1_vo'
I5
tp2728
a(S'w'
I1
tp2729
a(S'w'
I16
tp2730
a(S'p2_vo'
I5
tp2731
a(S'w'
I717
tp2732
a(S'p1_vo'
I0
tp2733
a(S'w'
I1
tp2734
a(S'w'
I16
tp2735
a(S'p2_vo'
I0
tp2736
a(S'w'
I1
tp2737
a(S'p2_tl'
I121
tp2738
a(S'w'
I717
tp2739
a(S'w'
I732
tp2740
a(S'p1_du'
I0
tp2741
a(S'w'
I1
tp2742
a(S'w'
I12
tp2743
a(S'p2_vo'
I8
tp2744
a(S'p2_tl'
I113
tp2745
a(S'w'
I1
tp2746
a(S'p2_ll'
I1
tp2747
a(S'w'
I720
tp2748
a(S'w'
I12
tp2749
a(S'p2_vo'
I0
tp2750
a(S'w'
I722
tp2751
a(S'w'
I12
tp2752
a(S'p2_tl'
I114
tp2753
a(S'w'
I722
tp2754
a(S'w'
I734
tp2755
a(S'w'
I12
tp2756
a(S'p2_tl'
I113
tp2757
a(S'w'
I722
tp2758
a(S'w'
I12
tp2759
a(S'p2_vo'
I5
tp2760
a(S'w'
I721
tp2761
a(S'w'
I12
tp2762
a(S'p2_vo'
I0
tp2763
a(S'w'
I1
tp2764
a(S'p2_tl'
I114
tp2765
a(S'w'
I721
tp2766
a(S'w'
I734
tp2767
a(S'w'
I12
tp2768
a(S'p2_vo'
I14
tp2769
a(S'p2_tl'
I180
tp2770
a(S'w'
I1
tp2771
a(S'p2_ll'
I1
tp2772
a(S'w'
I11
tp2773
a(S'tr_tl'
I180
tp2774
a(S'w'
I1
tp2775
a(S'tr_ll'
I1
tp2776
a(S'w'
I709
tp2777
a(S'w'
I12
tp2778
a(S'p2_vo'
I0
tp2779
a(S'w'
I722
tp2780
a(S'w'
I12
tp2781
a(S'p2_tl'
I181
tp2782
a(S'w'
I721
tp2783
a(S'w'
I734
tp2784
a(S'w'
I12
tp2785
a(S'p2_tl'
I180
tp2786
a(S'w'
I722
tp2787
a(S'w'
I12
tp2788
a(S'p2_vo'
I5
tp2789
a(S'w'
I722
tp2790
a(S'w'
I12
tp2791
a(S'p2_vo'
I0
tp2792
a(S'w'
I1
tp2793
a(S'p2_tl'
I181
tp2794
a(S'w'
I720
tp2795
a(S'w'
I734
tp2796
a(S'p1_du'
I2
tp2797
a(S'p1_vo'
I15
tp2798
a(S'w'
I1
tp2799
a(S'p1_ll'
I1
tp2800
a(S'w'
I17
tp2801
a(S'p2_vo'
I8
tp2802
a(S'w'
I1
tp2803
a(S'p2_tl'
I120
tp2804
a(S'p2_ll'
I1
tp2805
a(S'w'
I715
tp2806
a(S'p1_vo'
I0
tp2807
a(S'w'
I1
tp2808
a(S'w'
I18
tp2809
a(S'p2_vo'
I0
tp2810
a(S'w'
I716
tp2811
a(S'w'
I13
tp2812
a(S'p2_tl'
I121
tp2813
a(S'w'
I720
tp2814
a(S'w'
I733
tp2815
a(S'w'
I19
tp2816
a(S'p2_tl'
I120
tp2817
a(S'w'
I715
tp2818
a(S'p1_vo'
I5
tp2819
a(S'w'
I1
tp2820
a(S'w'
I16
tp2821
a(S'p2_vo'
I5
tp2822
a(S'w'
I717
tp2823
a(S'p1_vo'
I0
tp2824
a(S'w'
I1
tp2825
a(S'w'
I16
tp2826
a(S'p2_vo'
I0
tp2827
a(S'w'
I1
tp2828
a(S'p2_tl'
I121
tp2829
a(S'w'
I717
tp2830
a(S'w'
I732
tp2831
a(S'p1_du'
I0
tp2832
a(S'w'
I1
tp2833
a(S'w'
I12
tp2834
a(S'p2_vo'
I8
tp2835
a(S'p2_tl'
I113
tp2836
a(S'w'
I1
tp2837
a(S'p2_ll'
I1
tp2838
a(S'w'
I720
tp2839
a(S'w'
I12
tp2840
a(S'p2_vo'
I0
tp2841
a(S'w'
I722
tp2842
a(S'w'
I12
tp2843
a(S'p2_tl'
I114
tp2844
a(S'w'
I722
tp2845
a(S'w'
I734
tp2846
a(S'w'
I12
tp2847
a(S'p2_tl'
I113
tp2848
a(S'w'
I722
tp2849
a(S'w'
I12
tp2850
a(S'p2_vo'
I5
tp2851
a(S'w'
I721
tp2852
a(S'w'
I12
tp2853
a(S'p2_vo'
I0
tp2854
a(S'w'
I1
tp2855
a(S'p2_tl'
I114
tp2856
a(S'w'
I721
tp2857
a(S'w'
I734
tp2858
a(S'w'
I12
tp2859
a(S'p2_vo'
I14
tp2860
a(S'w'
I1
tp2861
a(S'p2_tl'
I190
tp2862
a(S'p2_ll'
I1
tp2863
a(S'w'
I11
tp2864
a(S'tr_tl'
I190
tp2865
a(S'w'
I1
tp2866
a(S'tr_ll'
I1
tp2867
a(S'w'
I709
tp2868
a(S'w'
I12
tp2869
a(S'p2_vo'
I0
tp2870
a(S'w'
I722
tp2871
a(S'w'
I12
tp2872
a(S'p2_tl'
I191
tp2873
a(S'w'
I721
tp2874
a(S'w'
I734
tp2875
a(S'w'
I12
tp2876
a(S'p2_tl'
I190
tp2877
a(S'w'
I722
tp2878
a(S'w'
I12
tp2879
a(S'p2_vo'
I5
tp2880
a(S'w'
I722
tp2881
a(S'w'
I12
tp2882
a(S'p2_vo'
I0
tp2883
a(S'w'
I1
tp2884
a(S'p2_tl'
I191
tp2885
a(S'w'
I720
tp2886
a(S'w'
I734
tp2887
a(S'p1_du'
I2
tp2888
a(S'p1_vo'
I15
tp2889
a(S'w'
I1
tp2890
a(S'p1_ll'
I1
tp2891
a(S'w'
I17
tp2892
a(S'p2_vo'
I8
tp2893
a(S'w'
I1
tp2894
a(S'p2_tl'
I120
tp2895
a(S'p2_ll'
I1
tp2896
a(S'w'
I715
tp2897
a(S'p1_vo'
I0
tp2898
a(S'w'
I1
tp2899
a(S'w'
I18
tp2900
a(S'p2_vo'
I0
tp2901
a(S'w'
I716
tp2902
a(S'w'
I13
tp2903
a(S'p2_tl'
I121
tp2904
a(S'w'
I720
tp2905
a(S'w'
I733
tp2906
a(S'w'
I19
tp2907
a(S'p2_tl'
I120
tp2908
a(S'w'
I715
tp2909
a(S'p1_vo'
I5
tp2910
a(S'w'
I1
tp2911
a(S'w'
I16
tp2912
a(S'p2_vo'
I5
tp2913
a(S'w'
I717
tp2914
a(S'p1_vo'
I0
tp2915
a(S'w'
I1
tp2916
a(S'w'
I16
tp2917
a(S'p2_vo'
I0
tp2918
a(S'w'
I1
tp2919
a(S'p2_tl'
I121
tp2920
a(S'w'
I717
tp2921
a(S'w'
I732
tp2922
a(S'p1_du'
I0
tp2923
a(S'w'
I1
tp2924
a(S'w'
I12
tp2925
a(S'p2_vo'
I8
tp2926
a(S'p2_tl'
I113
tp2927
a(S'w'
I1
tp2928
a(S'p2_ll'
I1
tp2929
a(S'w'
I720
tp2930
a(S'w'
I12
tp2931
a(S'p2_vo'
I0
tp2932
a(S'w'
I722
tp2933
a(S'w'
I12
tp2934
a(S'p2_tl'
I114
tp2935
a(S'w'
I722
tp2936
a(S'w'
I734
tp2937
a(S'w'
I12
tp2938
a(S'p2_tl'
I113
tp2939
a(S'w'
I722
tp2940
a(S'w'
I12
tp2941
a(S'p2_vo'
I5
tp2942
a(S'w'
I721
tp2943
a(S'w'
I12
tp2944
a(S'p2_vo'
I0
tp2945
a(S'w'
I1
tp2946
a(S'p2_tl'
I114
tp2947
a(S'w'
I721
tp2948
a(S'w'
I734
tp2949
a(S'p1_du'
I2
tp2950
a(S'p1_vo'
I6
tp2951
a(S'w'
I1
tp2952
a(S'p1_tl'
I46
tp2953
a(S'p1_ll'
I1
tp2954
a(S'p1_th'
I1
tp2955
a(S'w'
I11
tp2956
a(S'p2_du'
I2
tp2957
a(S'p2_vo'
I8
tp2958
a(S'w'
I1
tp2959
a(S'p2_tl'
I240
tp2960
a(S'p2_ll'
I1
tp2961
a(S'w'
I12
tp2962
a(S'tr_tl'
I180
tp2963
a(S'tr_ll'
I1
tp2964
a(S'w'
I709
tp2965
a(S'p1_vo'
I4
tp2966
a(S'w'
I17
tp2967
a(S'p2_vo'
I6
tp2968
a(S'w'
I717
tp2969
a(S'p1_vo'
I2
tp2970
a(S'w'
I1
tp2971
a(S'p1_tl'
I47
tp2972
a(S'w'
I11
tp2973
a(S'p2_vo'
I4
tp2974
a(S'w'
I721
tp2975
a(S'p1_vo'
I0
tp2976
a(S'w'
I17
tp2977
a(S'p2_vo'
I2
tp2978
a(S'w'
I1
tp2979
a(S'p2_tl'
I241
tp2980
a(S'w'
I717
tp2981
a(S'p1_tl'
I46
tp2982
a(S'w'
I12
tp2983
a(S'p2_vo'
I0
tp2984
a(S'w'
I1455
tp2985
a(S'p1_vo'
I1
tp2986
a(S'w'
I1
tp2987
a(S'p1_tl'
I47
tp2988
a(S'w'
I11
tp2989
a(S'p2_vo'
I1
tp2990
a(S'p2_tl'
I240
tp2991
a(S'w'
I721
tp2992
a(S'p1_vo'
I2
tp2993
a(S'w'
I38
tp2994
a(S'p2_vo'
I2
tp2995
a(S'w'
I696
tp2996
a(S'p1_vo'
I7
tp2997
a(S'w'
I1
tp2998
a(S'p1_tl'
I13
tp2999
a(S'p1_ll'
I1
tp3000
a(S'w'
I11
tp3001
a(S'p2_vo'
I9
tp3002
a(S'w'
I1
tp3003
a(S'p2_tl'
I226
tp3004
a(S'p2_ll'
I1
tp3005
a(S'w'
I721
tp3006
a(S'p1_vo'
I5
tp3007
a(S'w'
I17
tp3008
a(S'p2_vo'
I7
tp3009
a(S'w'
I717
tp3010
a(S'p1_vo'
I3
tp3011
a(S'w'
I1
tp3012
a(S'p1_tl'
I14
tp3013
a(S'w'
I11
tp3014
a(S'p2_vo'
I5
tp3015
a(S'w'
I722
tp3016
a(S'p1_vo'
I1
tp3017
a(S'w'
I17
tp3018
a(S'p2_vo'
I3
tp3019
a(S'w'
I1
tp3020
a(S'p2_tl'
I227
tp3021
a(S'w'
I715
tp3022
a(S'p1_vo'
I0
tp3023
a(S'w'
I1
tp3024
a(S'p1_tl'
I13
tp3025
a(S'w'
I12
tp3026
a(S'p2_vo'
I1
tp3027
a(S'w'
I738
tp3028
a(S'p2_vo'
I0
tp3029
a(S'w'
I717
tp3030
a(S'p1_vo'
I1
tp3031
a(S'w'
I1
tp3032
a(S'p1_tl'
I14
tp3033
a(S'w'
I11
tp3034
a(S'p2_vo'
I1
tp3035
a(S'p2_tl'
I226
tp3036
a(S'w'
I722
tp3037
a(S'p1_vo'
I2
tp3038
a(S'w'
I38
tp3039
a(S'p2_vo'
I2
tp3040
a(S'w'
I696
tp3041
a(S'p1_vo'
I8
tp3042
a(S'w'
I1
tp3043
a(S'p1_tl'
I240
tp3044
a(S'p1_ll'
I1
tp3045
a(S'p1_th'
I0
tp3046
a(S'w'
I11
tp3047
a(S'p2_vo'
I10
tp3048
a(S'w'
I1
tp3049
a(S'p2_tl'
I202
tp3050
a(S'p2_ll'
I1
tp3051
a(S'w'
I12
tp3052
a(S'tr_tl'
I190
tp3053
a(S'tr_ll'
I1
tp3054
a(S'w'
I708
tp3055
a(S'p1_vo'
I6
tp3056
a(S'w'
I17
tp3057
a(S'p2_vo'
I8
tp3058
a(S'w'
I717
tp3059
a(S'p1_vo'
I4
tp3060
a(S'w'
I1
tp3061
a(S'p1_tl'
I241
tp3062
a(S'w'
I11
tp3063
a(S'p2_vo'
I6
tp3064
a(S'w'
I722
tp3065
a(S'p1_vo'
I2
tp3066
a(S'w'
I17
tp3067
a(S'p2_vo'
I4
tp3068
a(S'w'
I1
tp3069
a(S'p2_tl'
I203
tp3070
a(S'w'
I716
tp3071
a(S'p1_vo'
I0
tp3072
a(S'w'
I1
tp3073
a(S'p1_tl'
I240
tp3074
a(S'w'
I12
tp3075
a(S'p2_vo'
I2
tp3076
a(S'w'
I738
tp3077
a(S'p2_vo'
I0
tp3078
a(S'w'
I716
tp3079
a(S'p1_vo'
I1
tp3080
a(S'w'
I1
tp3081
a(S'p1_tl'
I241
tp3082
a(S'w'
I11
tp3083
a(S'p2_vo'
I1
tp3084
a(S'p2_tl'
I202
tp3085
a(S'w'
I722
tp3086
a(S'p1_vo'
I2
tp3087
a(S'w'
I38
tp3088
a(S'p2_vo'
I2
tp3089
a(S'w'
I696
tp3090
a(S'p1_vo'
I9
tp3091
a(S'w'
I1
tp3092
a(S'p1_tl'
I13
tp3093
a(S'p1_ll'
I1
tp3094
a(S'p1_th'
I1
tp3095
a(S'w'
I11
tp3096
a(S'p2_vo'
I11
tp3097
a(S'w'
I1
tp3098
a(S'p2_tl'
I226
tp3099
a(S'p2_ll'
I1
tp3100
a(S'w'
I721
tp3101
a(S'p1_vo'
I7
tp3102
a(S'w'
I17
tp3103
a(S'p2_vo'
I9
tp3104
a(S'w'
I717
tp3105
a(S'p1_vo'
I5
tp3106
a(S'w'
I1
tp3107
a(S'p1_tl'
I14
tp3108
a(S'w'
I11
tp3109
a(S'p2_vo'
I7
tp3110
a(S'w'
I721
tp3111
a(S'p1_vo'
I3
tp3112
a(S'w'
I17
tp3113
a(S'p2_vo'
I5
tp3114
a(S'w'
I1
tp3115
a(S'p2_tl'
I227
tp3116
a(S'w'
I716
tp3117
a(S'p1_vo'
I1
tp3118
a(S'w'
I1
tp3119
a(S'p1_tl'
I13
tp3120
a(S'w'
I12
tp3121
a(S'p2_vo'
I3
tp3122
a(S'w'
I721
tp3123
a(S'p1_vo'
I0
tp3124
a(S'w'
I17
tp3125
a(S'p2_vo'
I1
tp3126
a(S'w'
I717
tp3127
a(S'p1_vo'
I1
tp3128
a(S'w'
I1
tp3129
a(S'p1_tl'
I14
tp3130
a(S'w'
I11
tp3131
a(S'p2_vo'
I2
tp3132
a(S'p2_tl'
I226
tp3133
a(S'w'
I721
tp3134
a(S'p1_vo'
I2
tp3135
a(S'w'
I38
tp3136
a(S'p2_vo'
I3
tp3137
a(S'w'
I696
tp3138
a(S'p1_vo'
I11
tp3139
a(S'w'
I1
tp3140
a(S'p1_tl'
I46
tp3141
a(S'p1_ll'
I1
tp3142
a(S'w'
I11
tp3143
a(S'p2_vo'
I13
tp3144
a(S'w'
I1
tp3145
a(S'p2_tl'
I240
tp3146
a(S'p2_ll'
I1
tp3147
a(S'w'
I12
tp3148
a(S'tr_tl'
I202
tp3149
a(S'tr_ll'
I1
tp3150
a(S'w'
I709
tp3151
a(S'p1_vo'
I9
tp3152
a(S'w'
I17
tp3153
a(S'p2_vo'
I11
tp3154
a(S'w'
I717
tp3155
a(S'p1_vo'
I7
tp3156
a(S'w'
I1
tp3157
a(S'p1_tl'
I47
tp3158
a(S'w'
I11
tp3159
a(S'p2_vo'
I9
tp3160
a(S'w'
I722
tp3161
a(S'p1_vo'
I5
tp3162
a(S'w'
I17
tp3163
a(S'p2_vo'
I7
tp3164
a(S'w'
I1
tp3165
a(S'p2_tl'
I241
tp3166
a(S'w'
I715
tp3167
a(S'p1_vo'
I3
tp3168
a(S'w'
I1
tp3169
a(S'p1_tl'
I46
tp3170
a(S'w'
I12
tp3171
a(S'p2_vo'
I5
tp3172
a(S'w'
I721
tp3173
a(S'p1_vo'
I1
tp3174
a(S'w'
I17
tp3175
a(S'p2_vo'
I3
tp3176
a(S'w'
I717
tp3177
a(S'p1_vo'
I2
tp3178
a(S'w'
I1
tp3179
a(S'p1_tl'
I47
tp3180
a(S'w'
I11
tp3181
a(S'p2_vo'
I4
tp3182
a(S'p2_tl'
I240
tp3183
a(S'w'
I722
tp3184
a(S'p1_vo'
I3
tp3185
a(S'w'
I38
tp3186
a(S'p2_vo'
I5
tp3187
a(S'w'
I696
tp3188
a(S'p1_vo'
I9
tp3189
a(S'w'
I1
tp3190
a(S'p1_tl'
I64
tp3191
a(S'p1_ll'
I1
tp3192
a(S'w'
I11
tp3193
a(S'p2_vo'
I11
tp3194
a(S'w'
I1
tp3195
a(S'p2_tl'
I13
tp3196
a(S'p2_ll'
I1
tp3197
a(S'p2_th'
I1
tp3198
a(S'w'
I720
tp3199
a(S'p1_vo'
I7
tp3200
a(S'w'
I17
tp3201
a(S'p2_vo'
I9
tp3202
a(S'w'
I717
tp3203
a(S'p1_vo'
I5
tp3204
a(S'w'
I1
tp3205
a(S'p1_tl'
I65
tp3206
a(S'w'
I11
tp3207
a(S'p2_vo'
I7
tp3208
a(S'w'
I722
tp3209
a(S'p1_vo'
I3
tp3210
a(S'w'
I17
tp3211
a(S'p2_vo'
I5
tp3212
a(S'w'
I1
tp3213
a(S'p2_tl'
I14
tp3214
a(S'w'
I716
tp3215
a(S'p1_vo'
I1
tp3216
a(S'w'
I1
tp3217
a(S'p1_tl'
I64
tp3218
a(S'w'
I12
tp3219
a(S'p2_vo'
I3
tp3220
a(S'w'
I721
tp3221
a(S'p1_vo'
I0
tp3222
a(S'w'
I17
tp3223
a(S'p2_vo'
I1
tp3224
a(S'w'
I716
tp3225
a(S'p1_vo'
I1
tp3226
a(S'w'
I1
tp3227
a(S'p1_tl'
I65
tp3228
a(S'w'
I11
tp3229
a(S'p2_vo'
I2
tp3230
a(S'p2_tl'
I13
tp3231
a(S'w'
I722
tp3232
a(S'p1_vo'
I2
tp3233
a(S'w'
I38
tp3234
a(S'p2_vo'
I3
tp3235
a(S'w'
I696
tp3236
a(S'p1_vo'
I8
tp3237
a(S'w'
I1
tp3238
a(S'p1_tl'
I104
tp3239
a(S'p1_ll'
I1
tp3240
a(S'w'
I11
tp3241
a(S'p2_vo'
I10
tp3242
a(S'w'
I1
tp3243
a(S'p2_tl'
I46
tp3244
a(S'p2_ll'
I1
tp3245
a(S'w'
I12
tp3246
a(S'tr_tl'
I214
tp3247
a(S'tr_ll'
I1
tp3248
a(S'w'
I709
tp3249
a(S'p1_vo'
I6
tp3250
a(S'w'
I17
tp3251
a(S'p2_vo'
I8
tp3252
a(S'w'
I717
tp3253
a(S'p1_vo'
I4
tp3254
a(S'w'
I1
tp3255
a(S'p1_tl'
I105
tp3256
a(S'w'
I11
tp3257
a(S'p2_vo'
I6
tp3258
a(S'w'
I721
tp3259
a(S'p1_vo'
I2
tp3260
a(S'w'
I17
tp3261
a(S'p2_vo'
I4
tp3262
a(S'w'
I1
tp3263
a(S'p2_tl'
I47
tp3264
a(S'w'
I716
tp3265
a(S'p1_vo'
I0
tp3266
a(S'w'
I1
tp3267
a(S'p1_tl'
I104
tp3268
a(S'w'
I12
tp3269
a(S'p2_vo'
I2
tp3270
a(S'w'
I738
tp3271
a(S'p2_vo'
I0
tp3272
a(S'w'
I717
tp3273
a(S'p1_vo'
I1
tp3274
a(S'w'
I1
tp3275
a(S'p1_tl'
I105
tp3276
a(S'w'
I11
tp3277
a(S'p2_vo'
I1
tp3278
a(S'p2_tl'
I46
tp3279
a(S'w'
I721
tp3280
a(S'p1_vo'
I2
tp3281
a(S'w'
I38
tp3282
a(S'p2_vo'
I2
tp3283
a(S'w'
I696
tp3284
a(S'p1_vo'
I7
tp3285
a(S'w'
I1
tp3286
a(S'p1_tl'
I125
tp3287
a(S'p1_ll'
I1
tp3288
a(S'w'
I11
tp3289
a(S'p2_vo'
I9
tp3290
a(S'w'
I1
tp3291
a(S'p2_tl'
I64
tp3292
a(S'p2_ll'
I1
tp3293
a(S'w'
I721
tp3294
a(S'p1_vo'
I5
tp3295
a(S'w'
I17
tp3296
a(S'p2_vo'
I7
tp3297
a(S'w'
I717
tp3298
a(S'p1_vo'
I3
tp3299
a(S'w'
I1
tp3300
a(S'p1_tl'
I126
tp3301
a(S'w'
I11
tp3302
a(S'p2_vo'
I5
tp3303
a(S'w'
I722
tp3304
a(S'p1_vo'
I1
tp3305
a(S'w'
I17
tp3306
a(S'p2_vo'
I3
tp3307
a(S'w'
I1
tp3308
a(S'p2_tl'
I65
tp3309
a(S'w'
I715
tp3310
a(S'p1_vo'
I0
tp3311
a(S'w'
I1
tp3312
a(S'p1_tl'
I125
tp3313
a(S'w'
I12
tp3314
a(S'p2_vo'
I1
tp3315
a(S'w'
I738
tp3316
a(S'p2_vo'
I0
tp3317
a(S'w'
I717
tp3318
a(S'p1_vo'
I1
tp3319
a(S'w'
I1
tp3320
a(S'p1_tl'
I126
tp3321
a(S'w'
I11
tp3322
a(S'p2_vo'
I1
tp3323
a(S'p2_tl'
I64
tp3324
a(S'w'
I722
tp3325
a(S'p1_vo'
I2
tp3326
a(S'w'
I48
tp3327
a(S'p2_vo'
I2
tp3328
a(S'w'
I686
tp3329
a(S'p1_vo'
I12
tp3330
a(S'w'
I1
tp3331
a(S'p1_tl'
I104
tp3332
a(S'p1_ll'
I1
tp3333
a(S'w'
I17
tp3334
a(S'p2_vo'
I14
tp3335
a(S'w'
I1
tp3336
a(S'p2_tl'
I46
tp3337
a(S'p2_ll'
I1
tp3338
a(S'w'
I12
tp3339
a(S'tr_tl'
I226
tp3340
a(S'tr_ll'
I1
tp3341
a(S'w'
I702
tp3342
a(S'p1_vo'
I10
tp3343
a(S'w'
I1
tp3344
a(S'w'
I16
tp3345
a(S'p2_vo'
I12
tp3346
a(S'w'
I717
tp3347
a(S'p1_vo'
I8
tp3348
a(S'w'
I1
tp3349
a(S'w'
I18
tp3350
a(S'p2_vo'
I10
tp3351
a(S'w'
I1
tp3352
a(S'p2_tl'
I47
tp3353
a(S'w'
I714
tp3354
a(S'p1_vo'
I6
tp3355
a(S'w'
I1
tp3356
a(S'w'
I12
tp3357
a(S'p2_vo'
I8
tp3358
a(S'w'
I721
tp3359
a(S'w'
I19
tp3360
a(S'p2_tl'
I46
tp3361
a(S'w'
I715
tp3362
a(S'p1_vo'
I7
tp3363
a(S'w'
I1
tp3364
a(S'w'
I18
tp3365
a(S'p2_vo'
I9
tp3366
a(S'w'
I714
tp3367
a(S'p1_vo'
I5
tp3368
a(S'w'
I1
tp3369
a(S'w'
I16
tp3370
a(S'p2_vo'
I7
tp3371
a(S'w'
I1
tp3372
a(S'p2_tl'
I47
tp3373
a(S'w'
I716
tp3374
a(S'p1_vo'
I3
tp3375
a(S'w'
I1
tp3376
a(S'w'
I36
tp3377
a(S'p2_vo'
I5
tp3378
a(S'w'
I697
tp3379
a(S'p1_vo'
I6
tp3380
a(S'w'
I1
tp3381
a(S'p1_tl'
I148
tp3382
a(S'p1_ll'
I1
tp3383
a(S'w'
I17
tp3384
a(S'p2_vo'
I8
tp3385
a(S'w'
I1
tp3386
a(S'p2_tl'
I64
tp3387
a(S'p2_ll'
I1
tp3388
a(S'w'
I715
tp3389
a(S'p1_vo'
I4
tp3390
a(S'w'
I1
tp3391
a(S'w'
I16
tp3392
a(S'p2_vo'
I6
tp3393
a(S'w'
I717
tp3394
a(S'p1_vo'
I2
tp3395
a(S'w'
I1
tp3396
a(S'w'
I18
tp3397
a(S'p2_vo'
I4
tp3398
a(S'w'
I1
tp3399
a(S'p2_tl'
I65
tp3400
a(S'w'
I713
tp3401
a(S'p1_vo'
I0
tp3402
a(S'w'
I1
tp3403
a(S'w'
I12
tp3404
a(S'p2_vo'
I2
tp3405
a(S'w'
I721
tp3406
a(S'w'
I19
tp3407
a(S'p2_tl'
I64
tp3408
a(S'w'
I715
tp3409
a(S'p1_vo'
I1
tp3410
a(S'w'
I1
tp3411
a(S'w'
I18
tp3412
a(S'p2_vo'
I3
tp3413
a(S'w'
I715
tp3414
a(S'p1_vo'
I0
tp3415
a(S'w'
I1
tp3416
a(S'w'
I16
tp3417
a(S'p2_vo'
I1
tp3418
a(S'w'
I1
tp3419
a(S'p2_tl'
I65
tp3420
a(S'w'
I716
tp3421
a(S'w'
I37
tp3422
a(S'p2_vo'
I0
tp3423
a(S'w'
I696
tp3424
a(S'p1_vo'
I6
tp3425
a(S'w'
I1
tp3426
a(S'p1_tl'
I197
tp3427
a(S'p1_ll'
I1
tp3428
a(S'w'
I17
tp3429
a(S'p2_vo'
I8
tp3430
a(S'w'
I1
tp3431
a(S'p2_tl'
I104
tp3432
a(S'p2_ll'
I1
tp3433
a(S'w'
I715
tp3434
a(S'p1_vo'
I4
tp3435
a(S'w'
I1
tp3436
a(S'w'
I16
tp3437
a(S'p2_vo'
I6
tp3438
a(S'w'
I717
tp3439
a(S'p1_vo'
I2
tp3440
a(S'w'
I1
tp3441
a(S'w'
I18
tp3442
a(S'p2_vo'
I4
tp3443
a(S'w'
I1
tp3444
a(S'p2_tl'
I105
tp3445
a(S'w'
I714
tp3446
a(S'p1_vo'
I0
tp3447
a(S'w'
I1
tp3448
a(S'w'
I12
tp3449
a(S'p2_vo'
I2
tp3450
a(S'w'
I720
tp3451
a(S'w'
I19
tp3452
a(S'p2_tl'
I104
tp3453
a(S'w'
I715
tp3454
a(S'p1_vo'
I1
tp3455
a(S'w'
I1
tp3456
a(S'w'
I18
tp3457
a(S'p2_vo'
I3
tp3458
a(S'w'
I715
tp3459
a(S'p1_vo'
I0
tp3460
a(S'w'
I1
tp3461
a(S'w'
I16
tp3462
a(S'p2_vo'
I1
tp3463
a(S'w'
I1
tp3464
a(S'p2_tl'
I105
tp3465
a(S'w'
I717
tp3466
a(S'w'
I40
tp3467
a(S'p2_vo'
I0
tp3468
a(S'w'
I693
tp3469
a(S'p1_vo'
I12
tp3470
a(S'w'
I1
tp3471
a(S'p1_tl'
I64
tp3472
a(S'p1_ll'
I1
tp3473
a(S'w'
I17
tp3474
a(S'p2_vo'
I14
tp3475
a(S'w'
I1
tp3476
a(S'p2_tl'
I13
tp3477
a(S'p2_ll'
I1
tp3478
a(S'w'
I714
tp3479
a(S'p1_vo'
I10
tp3480
a(S'w'
I1
tp3481
a(S'w'
I16
tp3482
a(S'p2_vo'
I12
tp3483
a(S'w'
I717
tp3484
a(S'p1_vo'
I8
tp3485
a(S'w'
I1
tp3486
a(S'w'
I18
tp3487
a(S'p2_vo'
I10
tp3488
a(S'w'
I1
tp3489
a(S'p2_tl'
I14
tp3490
a(S'w'
I714
tp3491
a(S'p1_vo'
I6
tp3492
a(S'w'
I1
tp3493
a(S'w'
I12
tp3494
a(S'p2_vo'
I8
tp3495
a(S'w'
I721
tp3496
a(S'w'
I19
tp3497
a(S'p2_tl'
I13
tp3498
a(S'w'
I715
tp3499
a(S'p1_vo'
I7
tp3500
a(S'w'
I1
tp3501
a(S'w'
I18
tp3502
a(S'p2_vo'
I9
tp3503
a(S'w'
I714
tp3504
a(S'p1_vo'
I5
tp3505
a(S'w'
I1
tp3506
a(S'w'
I16
tp3507
a(S'p2_vo'
I7
tp3508
a(S'w'
I1
tp3509
a(S'p2_tl'
I14
tp3510
a(S'w'
I716
tp3511
a(S'p1_vo'
I3
tp3512
a(S'w'
I1
tp3513
a(S'w'
I36
tp3514
a(S'p2_vo'
I5
tp3515
a(S'w'
I697
tp3516
a(S'p1_vo'
I6
tp3517
a(S'w'
I1
tp3518
a(S'p1_tl'
I104
tp3519
a(S'p1_ll'
I1
tp3520
a(S'w'
I17
tp3521
a(S'p2_vo'
I8
tp3522
a(S'w'
I1
tp3523
a(S'p2_tl'
I46
tp3524
a(S'p2_ll'
I1
tp3525
a(S'w'
I715
tp3526
a(S'p1_vo'
I4
tp3527
a(S'w'
I1
tp3528
a(S'w'
I16
tp3529
a(S'p2_vo'
I6
tp3530
a(S'w'
I717
tp3531
a(S'p1_vo'
I2
tp3532
a(S'w'
I1
tp3533
a(S'w'
I18
tp3534
a(S'p2_vo'
I4
tp3535
a(S'w'
I1
tp3536
a(S'p2_tl'
I47
tp3537
a(S'w'
I713
tp3538
a(S'p1_vo'
I0
tp3539
a(S'w'
I1
tp3540
a(S'w'
I12
tp3541
a(S'p2_vo'
I2
tp3542
a(S'w'
I721
tp3543
a(S'w'
I19
tp3544
a(S'p2_tl'
I46
tp3545
a(S'w'
I715
tp3546
a(S'p1_vo'
I1
tp3547
a(S'w'
I1
tp3548
a(S'w'
I18
tp3549
a(S'p2_vo'
I3
tp3550
a(S'w'
I715
tp3551
a(S'p1_vo'
I0
tp3552
a(S'w'
I1
tp3553
a(S'w'
I16
tp3554
a(S'p2_vo'
I1
tp3555
a(S'w'
I1
tp3556
a(S'p2_tl'
I47
tp3557
a(S'w'
I716
tp3558
a(S'w'
I33
tp3559
a(S'p2_vo'
I0
tp3560
a(S'w'
I700
tp3561
a(S'p1_vo'
I6
tp3562
a(S'w'
I1
tp3563
a(S'p1_tl'
I148
tp3564
a(S'p1_ll'
I1
tp3565
a(S'w'
I17
tp3566
a(S'p2_vo'
I8
tp3567
a(S'w'
I1
tp3568
a(S'p2_tl'
I64
tp3569
a(S'p2_ll'
I1
tp3570
a(S'w'
I715
tp3571
a(S'p1_vo'
I4
tp3572
a(S'w'
I1
tp3573
a(S'w'
I16
tp3574
a(S'p2_vo'
I6
tp3575
a(S'w'
I717
tp3576
a(S'p1_vo'
I2
tp3577
a(S'w'
I1
tp3578
a(S'w'
I18
tp3579
a(S'p2_vo'
I4
tp3580
a(S'w'
I1
tp3581
a(S'p2_tl'
I65
tp3582
a(S'w'
I714
tp3583
a(S'p1_vo'
I0
tp3584
a(S'w'
I1
tp3585
a(S'w'
I12
tp3586
a(S'p2_vo'
I2
tp3587
a(S'w'
I720
tp3588
a(S'w'
I19
tp3589
a(S'p2_tl'
I64
tp3590
a(S'w'
I715
tp3591
a(S'p1_vo'
I1
tp3592
a(S'w'
I1
tp3593
a(S'w'
I18
tp3594
a(S'p2_vo'
I3
tp3595
a(S'w'
I715
tp3596
a(S'p1_vo'
I0
tp3597
a(S'w'
I1
tp3598
a(S'w'
I16
tp3599
a(S'p2_vo'
I1
tp3600
a(S'w'
I1
tp3601
a(S'p2_tl'
I65
tp3602
a(S'w'
I717
tp3603
a(S'w'
I36
tp3604
a(S'p2_vo'
I0
tp3605
a(S'w'
I697
tp3606
a(S'p1_vo'
I12
tp3607
a(S'w'
I1
tp3608
a(S'p1_tl'
I46
tp3609
a(S'p1_ll'
I1
tp3610
a(S'w'
I17
tp3611
a(S'p2_vo'
I14
tp3612
a(S'w'
I1
tp3613
a(S'p2_tl'
I240
tp3614
a(S'p2_ll'
I1
tp3615
a(S'p2_th'
I0
tp3616
a(S'w'
I714
tp3617
a(S'p1_vo'
I10
tp3618
a(S'w'
I1
tp3619
a(S'w'
I16
tp3620
a(S'p2_vo'
I12
tp3621
a(S'w'
I717
tp3622
a(S'p1_vo'
I8
tp3623
a(S'w'
I1
tp3624
a(S'w'
I18
tp3625
a(S'p2_vo'
I10
tp3626
a(S'w'
I1
tp3627
a(S'p2_tl'
I241
tp3628
a(S'w'
I714
tp3629
a(S'p1_vo'
I6
tp3630
a(S'w'
I1
tp3631
a(S'w'
I12
tp3632
a(S'p2_vo'
I8
tp3633
a(S'w'
I721
tp3634
a(S'w'
I19
tp3635
a(S'p2_tl'
I240
tp3636
a(S'w'
I715
tp3637
a(S'p1_vo'
I7
tp3638
a(S'w'
I1
tp3639
a(S'w'
I18
tp3640
a(S'p2_vo'
I9
tp3641
a(S'w'
I714
tp3642
a(S'p1_vo'
I5
tp3643
a(S'w'
I1
tp3644
a(S'w'
I16
tp3645
a(S'p2_vo'
I7
tp3646
a(S'w'
I1
tp3647
a(S'p2_tl'
I241
tp3648
a(S'w'
I716
tp3649
a(S'p1_vo'
I3
tp3650
a(S'w'
I1
tp3651
a(S'w'
I36
tp3652
a(S'p2_vo'
I5
tp3653
a(S'w'
I697
tp3654
a(S'p1_vo'
I6
tp3655
a(S'w'
I1
tp3656
a(S'p1_tl'
I64
tp3657
a(S'p1_ll'
I1
tp3658
a(S'w'
I17
tp3659
a(S'p2_vo'
I8
tp3660
a(S'w'
I1
tp3661
a(S'p2_tl'
I13
tp3662
a(S'p2_ll'
I1
tp3663
a(S'p2_th'
I1
tp3664
a(S'w'
I715
tp3665
a(S'p1_vo'
I4
tp3666
a(S'w'
I1
tp3667
a(S'w'
I16
tp3668
a(S'p2_vo'
I6
tp3669
a(S'w'
I717
tp3670
a(S'p1_vo'
I2
tp3671
a(S'w'
I1
tp3672
a(S'w'
I18
tp3673
a(S'p2_vo'
I4
tp3674
a(S'w'
I1
tp3675
a(S'p2_tl'
I14
tp3676
a(S'w'
I713
tp3677
a(S'p1_vo'
I0
tp3678
a(S'w'
I1
tp3679
a(S'w'
I12
tp3680
a(S'p2_vo'
I2
tp3681
a(S'w'
I721
tp3682
a(S'w'
I19
tp3683
a(S'p2_tl'
I13
tp3684
a(S'w'
I715
tp3685
a(S'p1_vo'
I1
tp3686
a(S'w'
I1
tp3687
a(S'w'
I18
tp3688
a(S'p2_vo'
I3
tp3689
a(S'w'
I715
tp3690
a(S'p1_vo'
I0
tp3691
a(S'w'
I1
tp3692
a(S'w'
I16
tp3693
a(S'p2_vo'
I1
tp3694
a(S'w'
I1
tp3695
a(S'p2_tl'
I14
tp3696
a(S'w'
I716
tp3697
a(S'w'
I33
tp3698
a(S'p2_vo'
I0
tp3699
a(S'w'
I700
tp3700
a(S'p1_vo'
I6
tp3701
a(S'w'
I1
tp3702
a(S'p1_tl'
I104
tp3703
a(S'p1_ll'
I1
tp3704
a(S'w'
I17
tp3705
a(S'p2_vo'
I8
tp3706
a(S'w'
I1
tp3707
a(S'p2_tl'
I46
tp3708
a(S'p2_ll'
I1
tp3709
a(S'w'
I715
tp3710
a(S'p1_vo'
I4
tp3711
a(S'w'
I1
tp3712
a(S'w'
I16
tp3713
a(S'p2_vo'
I6
tp3714
a(S'w'
I717
tp3715
a(S'p1_vo'
I2
tp3716
a(S'w'
I1
tp3717
a(S'w'
I18
tp3718
a(S'p2_vo'
I4
tp3719
a(S'w'
I1
tp3720
a(S'p2_tl'
I47
tp3721
a(S'w'
I714
tp3722
a(S'p1_vo'
I0
tp3723
a(S'w'
I1
tp3724
a(S'w'
I12
tp3725
a(S'p2_vo'
I2
tp3726
a(S'w'
I720
tp3727
a(S'w'
I19
tp3728
a(S'p2_tl'
I46
tp3729
a(S'w'
I715
tp3730
a(S'p1_vo'
I1
tp3731
a(S'w'
I1
tp3732
a(S'w'
I18
tp3733
a(S'p2_vo'
I3
tp3734
a(S'w'
I715
tp3735
a(S'p1_vo'
I0
tp3736
a(S'w'
I1
tp3737
a(S'w'
I16
tp3738
a(S'p2_vo'
I1
tp3739
a(S'w'
I1
tp3740
a(S'p2_tl'
I47
tp3741
a(S'w'
I717
tp3742
a(S'w'
I36
tp3743
a(S'p2_vo'
I0
tp3744
a(S'w'
I697
tp3745
a(S'p1_vo'
I12
tp3746
a(S'w'
I1
tp3747
a(S'p1_tl'
I13
tp3748
a(S'p1_ll'
I1
tp3749
a(S'w'
I17
tp3750
a(S'p2_vo'
I14
tp3751
a(S'w'
I1
tp3752
a(S'p2_tl'
I226
tp3753
a(S'p2_ll'
I1
tp3754
a(S'p2_th'
I0
tp3755
a(S'w'
I714
tp3756
a(S'p1_vo'
I10
tp3757
a(S'w'
I1
tp3758
a(S'w'
I16
tp3759
a(S'p2_vo'
I12
tp3760
a(S'w'
I717
tp3761
a(S'p1_vo'
I8
tp3762
a(S'w'
I1
tp3763
a(S'w'
I18
tp3764
a(S'p2_vo'
I10
tp3765
a(S'w'
I1
tp3766
a(S'p2_tl'
I227
tp3767
a(S'w'
I714
tp3768
a(S'p1_vo'
I6
tp3769
a(S'w'
I1
tp3770
a(S'w'
I12
tp3771
a(S'p2_vo'
I8
tp3772
a(S'w'
I721
tp3773
a(S'w'
I19
tp3774
a(S'p2_tl'
I226
tp3775
a(S'w'
I715
tp3776
a(S'p1_vo'
I7
tp3777
a(S'w'
I1
tp3778
a(S'w'
I18
tp3779
a(S'p2_vo'
I9
tp3780
a(S'w'
I714
tp3781
a(S'p1_vo'
I5
tp3782
a(S'w'
I1
tp3783
a(S'w'
I16
tp3784
a(S'p2_vo'
I7
tp3785
a(S'w'
I1
tp3786
a(S'p2_tl'
I227
tp3787
a(S'w'
I716
tp3788
a(S'p1_vo'
I3
tp3789
a(S'w'
I1
tp3790
a(S'w'
I36
tp3791
a(S'p2_vo'
I5
tp3792
a(S'w'
I697
tp3793
a(S'p1_vo'
I6
tp3794
a(S'w'
I1
tp3795
a(S'p1_tl'
I46
tp3796
a(S'p1_ll'
I1
tp3797
a(S'w'
I17
tp3798
a(S'p2_vo'
I8
tp3799
a(S'w'
I1
tp3800
a(S'p2_tl'
I240
tp3801
a(S'p2_ll'
I1
tp3802
a(S'w'
I715
tp3803
a(S'p1_vo'
I4
tp3804
a(S'w'
I1
tp3805
a(S'w'
I16
tp3806
a(S'p2_vo'
I6
tp3807
a(S'w'
I717
tp3808
a(S'p1_vo'
I2
tp3809
a(S'w'
I1
tp3810
a(S'w'
I18
tp3811
a(S'p2_vo'
I4
tp3812
a(S'w'
I1
tp3813
a(S'p2_tl'
I241
tp3814
a(S'w'
I713
tp3815
a(S'p1_vo'
I0
tp3816
a(S'w'
I1
tp3817
a(S'w'
I12
tp3818
a(S'p2_vo'
I2
tp3819
a(S'w'
I721
tp3820
a(S'w'
I19
tp3821
a(S'p2_tl'
I240
tp3822
a(S'w'
I715
tp3823
a(S'p1_vo'
I1
tp3824
a(S'w'
I1
tp3825
a(S'w'
I18
tp3826
a(S'p2_vo'
I3
tp3827
a(S'w'
I715
tp3828
a(S'p1_vo'
I0
tp3829
a(S'w'
I1
tp3830
a(S'w'
I16
tp3831
a(S'p2_vo'
I1
tp3832
a(S'w'
I1
tp3833
a(S'p2_tl'
I241
tp3834
a(S'w'
I716
tp3835
a(S'w'
I33
tp3836
a(S'p2_vo'
I0
tp3837
a(S'w'
I700
tp3838
a(S'p1_vo'
I6
tp3839
a(S'w'
I1
tp3840
a(S'p1_tl'
I64
tp3841
a(S'p1_ll'
I1
tp3842
a(S'w'
I17
tp3843
a(S'p2_vo'
I8
tp3844
a(S'w'
I1
tp3845
a(S'p2_tl'
I13
tp3846
a(S'p2_ll'
I1
tp3847
a(S'p2_th'
I1
tp3848
a(S'w'
I715
tp3849
a(S'p1_vo'
I4
tp3850
a(S'w'
I1
tp3851
a(S'w'
I16
tp3852
a(S'p2_vo'
I6
tp3853
a(S'w'
I717
tp3854
a(S'p1_vo'
I2
tp3855
a(S'w'
I1
tp3856
a(S'w'
I18
tp3857
a(S'p2_vo'
I4
tp3858
a(S'w'
I1
tp3859
a(S'p2_tl'
I14
tp3860
a(S'w'
I714
tp3861
a(S'p1_vo'
I0
tp3862
a(S'w'
I1
tp3863
a(S'w'
I12
tp3864
a(S'p2_vo'
I2
tp3865
a(S'w'
I720
tp3866
a(S'w'
I19
tp3867
a(S'p2_tl'
I13
tp3868
a(S'w'
I715
tp3869
a(S'p1_vo'
I1
tp3870
a(S'w'
I1
tp3871
a(S'w'
I18
tp3872
a(S'p2_vo'
I3
tp3873
a(S'w'
I715
tp3874
a(S'p1_vo'
I0
tp3875
a(S'w'
I1
tp3876
a(S'w'
I16
tp3877
a(S'p2_vo'
I1
tp3878
a(S'w'
I1
tp3879
a(S'p2_tl'
I14
tp3880
a(S'w'
I717
tp3881
a(S'w'
I36
tp3882
a(S'p2_vo'
I0
tp3883
a(S'w'
I697
tp3884
a(S'p1_vo'
I12
tp3885
a(S'w'
I1
tp3886
a(S'p1_tl'
I240
tp3887
a(S'p1_ll'
I1
tp3888
a(S'p1_th'
I0
tp3889
a(S'w'
I17
tp3890
a(S'p2_vo'
I14
tp3891
a(S'w'
I1
tp3892
a(S'p2_tl'
I202
tp3893
a(S'p2_ll'
I1
tp3894
a(S'p2_th'
I0
tp3895
a(S'w'
I714
tp3896
a(S'p1_vo'
I10
tp3897
a(S'w'
I1
tp3898
a(S'w'
I16
tp3899
a(S'p2_vo'
I12
tp3900
a(S'w'
I717
tp3901
a(S'p1_vo'
I8
tp3902
a(S'w'
I1
tp3903
a(S'w'
I18
tp3904
a(S'p2_vo'
I10
tp3905
a(S'w'
I1
tp3906
a(S'p2_tl'
I203
tp3907
a(S'w'
I714
tp3908
a(S'p1_vo'
I6
tp3909
a(S'w'
I1
tp3910
a(S'w'
I12
tp3911
a(S'p2_vo'
I8
tp3912
a(S'w'
I14
tp3913
a(S'tr_tl'
I227
tp3914
a(S'w'
I707
tp3915
a(S'w'
I19
tp3916
a(S'p2_tl'
I202
tp3917
a(S'w'
I715
tp3918
a(S'p1_vo'
I7
tp3919
a(S'w'
I1
tp3920
a(S'w'
I18
tp3921
a(S'p2_vo'
I9
tp3922
a(S'w'
I714
tp3923
a(S'p1_vo'
I5
tp3924
a(S'w'
I1
tp3925
a(S'w'
I16
tp3926
a(S'p2_vo'
I7
tp3927
a(S'w'
I1
tp3928
a(S'p2_tl'
I203
tp3929
a(S'w'
I11
tp3930
a(S'tr_tl'
I226
tp3931
a(S'w'
I705
tp3932
a(S'p1_vo'
I3
tp3933
a(S'w'
I1
tp3934
a(S'w'
I33
tp3935
a(S'p2_vo'
I5
tp3936
a(S'w'
I700
tp3937
a(S'p1_vo'
I12
tp3938
a(S'w'
I1
tp3939
a(S'p1_tl'
I13
tp3940
a(S'p1_ll'
I1
tp3941
a(S'p1_th'
I1
tp3942
a(S'w'
I17
tp3943
a(S'p2_vo'
I8
tp3944
a(S'w'
I1
tp3945
a(S'p2_tl'
I226
tp3946
a(S'p2_ll'
I1
tp3947
a(S'w'
I715
tp3948
a(S'p1_vo'
I10
tp3949
a(S'w'
I1
tp3950
a(S'w'
I16
tp3951
a(S'p2_vo'
I6
tp3952
a(S'w'
I18
tp3953
a(S'tr_tl'
I227
tp3954
a(S'w'
I699
tp3955
a(S'p1_vo'
I8
tp3956
a(S'w'
I1
tp3957
a(S'w'
I18
tp3958
a(S'p2_vo'
I4
tp3959
a(S'w'
I1
tp3960
a(S'p2_tl'
I227
tp3961
a(S'w'
I713
tp3962
a(S'p1_vo'
I6
tp3963
a(S'w'
I1
tp3964
a(S'w'
I12
tp3965
a(S'p2_vo'
I2
tp3966
a(S'w'
I721
tp3967
a(S'w'
I19
tp3968
a(S'p2_tl'
I226
tp3969
a(S'w'
I12
tp3970
a(S'tr_tl'
I226
tp3971
a(S'w'
I703
tp3972
a(S'p1_vo'
I7
tp3973
a(S'w'
I1
tp3974
a(S'w'
I18
tp3975
a(S'p2_vo'
I3
tp3976
a(S'w'
I715
tp3977
a(S'p1_vo'
I5
tp3978
a(S'w'
I1
tp3979
a(S'w'
I16
tp3980
a(S'p2_vo'
I1
tp3981
a(S'w'
I1
tp3982
a(S'p2_tl'
I227
tp3983
a(S'w'
I715
tp3984
a(S'p1_vo'
I3
tp3985
a(S'w'
I1
tp3986
a(S'w'
I33
tp3987
a(S'p2_vo'
I0
tp3988
a(S'w'
I34
tp3989
a(S'tr_tl'
I227
tp3990
a(S'w'
I666
tp3991
a(S'p1_vo'
I12
tp3992
a(S'w'
I1
tp3993
a(S'p1_tl'
I46
tp3994
a(S'p1_ll'
I1
tp3995
a(S'w'
I17
tp3996
a(S'p2_vo'
I8
tp3997
a(S'w'
I1
tp3998
a(S'p2_tl'
I240
tp3999
a(S'p2_ll'
I1
tp4000
a(S'w'
I715
tp4001
a(S'p1_vo'
I10
tp4002
a(S'w'
I1
tp4003
a(S'w'
I16
tp4004
a(S'p2_vo'
I6
tp4005
a(S'w'
I717
tp4006
a(S'p1_vo'
I8
tp4007
a(S'w'
I1
tp4008
a(S'w'
I18
tp4009
a(S'p2_vo'
I4
tp4010
a(S'w'
I1
tp4011
a(S'p2_tl'
I241
tp4012
a(S'w'
I12
tp4013
a(S'tr_tl'
I226
tp4014
a(S'w'
I702
tp4015
a(S'p1_vo'
I6
tp4016
a(S'w'
I1
tp4017
a(S'w'
I12
tp4018
a(S'p2_vo'
I2
tp4019
a(S'w'
I720
tp4020
a(S'w'
I19
tp4021
a(S'p2_tl'
I240
tp4022
a(S'w'
I715
tp4023
a(S'p1_vo'
I7
tp4024
a(S'w'
I1
tp4025
a(S'w'
I18
tp4026
a(S'p2_vo'
I3
tp4027
a(S'w'
I19
tp4028
a(S'tr_tl'
I227
tp4029
a(S'w'
I696
tp4030
a(S'p1_vo'
I5
tp4031
a(S'w'
I1
tp4032
a(S'w'
I16
tp4033
a(S'p2_vo'
I1
tp4034
a(S'w'
I1
tp4035
a(S'p2_tl'
I241
tp4036
a(S'w'
I716
tp4037
a(S'p1_vo'
I3
tp4038
a(S'w'
I1
tp4039
a(S'w'
I33
tp4040
a(S'p2_vo'
I0
tp4041
a(S'w'
I700
tp4042
a(S'p1_vo'
I12
tp4043
a(S'w'
I1
tp4044
a(S'p1_tl'
I64
tp4045
a(S'p1_ll'
I1
tp4046
a(S'w'
I17
tp4047
a(S'p2_vo'
I8
tp4048
a(S'w'
I1
tp4049
a(S'p2_tl'
I13
tp4050
a(S'p2_ll'
I1
tp4051
a(S'p2_th'
I1
tp4052
a(S'w'
I11
tp4053
a(S'tr_tl'
I226
tp4054
a(S'w'
I703
tp4055
a(S'p1_vo'
I10
tp4056
a(S'w'
I1
tp4057
a(S'w'
I16
tp4058
a(S'p2_vo'
I6
tp4059
a(S'w'
I717
tp4060
a(S'p1_vo'
I8
tp4061
a(S'w'
I1
tp4062
a(S'w'
I18
tp4063
a(S'p2_vo'
I4
tp4064
a(S'w'
I1
tp4065
a(S'p2_tl'
I14
tp4066
a(S'w'
I714
tp4067
a(S'p1_vo'
I6
tp4068
a(S'w'
I1
tp4069
a(S'w'
I12
tp4070
a(S'p2_vo'
I2
tp4071
a(S'w'
I14
tp4072
a(S'tr_tl'
I227
tp4073
a(S'w'
I707
tp4074
a(S'w'
I19
tp4075
a(S'p2_tl'
I13
tp4076
a(S'w'
I715
tp4077
a(S'p1_vo'
I7
tp4078
a(S'w'
I1
tp4079
a(S'w'
I18
tp4080
a(S'p2_vo'
I3
tp4081
a(S'w'
I714
tp4082
a(S'p1_vo'
I5
tp4083
a(S'w'
I1
tp4084
a(S'w'
I16
tp4085
a(S'p2_vo'
I1
tp4086
a(S'w'
I1
tp4087
a(S'p2_tl'
I14
tp4088
a(S'w'
I11
tp4089
a(S'tr_tl'
I226
tp4090
a(S'w'
I705
tp4091
a(S'p1_vo'
I3
tp4092
a(S'w'
I1
tp4093
a(S'w'
I33
tp4094
a(S'p2_vo'
I0
tp4095
a(S'w'
I700
tp4096
a(S'p1_vo'
I12
tp4097
a(S'w'
I1
tp4098
a(S'p1_ll'
I1
tp4099
a(S'w'
I17
tp4100
a(S'p2_vo'
I8
tp4101
a(S'w'
I1
tp4102
a(S'p2_tl'
I240
tp4103
a(S'p2_ll'
I1
tp4104
a(S'p2_th'
I0
tp4105
a(S'w'
I12
tp4106
a(S'tr_tl'
I240
tp4107
a(S'tr_ll'
I1
tp4108
a(S'w'
I703
tp4109
a(S'p1_vo'
I10
tp4110
a(S'w'
I1
tp4111
a(S'w'
I16
tp4112
a(S'p2_vo'
I6
tp4113
a(S'w'
I717
tp4114
a(S'p1_vo'
I8
tp4115
a(S'w'
I1
tp4116
a(S'w'
I18
tp4117
a(S'p2_vo'
I4
tp4118
a(S'w'
I1
tp4119
a(S'p2_tl'
I241
tp4120
a(S'w'
I713
tp4121
a(S'p1_vo'
I6
tp4122
a(S'w'
I1
tp4123
a(S'w'
I12
tp4124
a(S'p2_vo'
I2
tp4125
a(S'w'
I721
tp4126
a(S'w'
I19
tp4127
a(S'p2_tl'
I240
tp4128
a(S'w'
I715
tp4129
a(S'p1_vo'
I7
tp4130
a(S'w'
I1
tp4131
a(S'w'
I18
tp4132
a(S'p2_vo'
I3
tp4133
a(S'w'
I715
tp4134
a(S'p1_vo'
I5
tp4135
a(S'w'
I1
tp4136
a(S'w'
I16
tp4137
a(S'p2_vo'
I1
tp4138
a(S'w'
I1
tp4139
a(S'p2_tl'
I241
tp4140
a(S'w'
I715
tp4141
a(S'p1_vo'
I3
tp4142
a(S'w'
I1
tp4143
a(S'w'
I36
tp4144
a(S'p2_vo'
I0
tp4145
a(S'w'
I697
tp4146
a(S'p1_vo'
I12
tp4147
a(S'w'
I1
tp4148
a(S'p1_tl'
I190
tp4149
a(S'p1_ll'
I1
tp4150
a(S'p1_th'
I0
tp4151
a(S'w'
I17
tp4152
a(S'p2_vo'
I14
tp4153
a(S'w'
I1
tp4154
a(S'p2_tl'
I160
tp4155
a(S'p2_ll'
I1
tp4156
a(S'w'
I715
tp4157
a(S'p1_vo'
I10
tp4158
a(S'w'
I1
tp4159
a(S'w'
I16
tp4160
a(S'p2_vo'
I12
tp4161
a(S'w'
I717
tp4162
a(S'p1_vo'
I8
tp4163
a(S'w'
I1
tp4164
a(S'w'
I18
tp4165
a(S'p2_vo'
I10
tp4166
a(S'w'
I1
tp4167
a(S'p2_tl'
I161
tp4168
a(S'w'
I714
tp4169
a(S'p1_vo'
I6
tp4170
a(S'w'
I1
tp4171
a(S'w'
I12
tp4172
a(S'p2_vo'
I8
tp4173
a(S'w'
I720
tp4174
a(S'w'
I19
tp4175
a(S'p2_tl'
I160
tp4176
a(S'w'
I715
tp4177
a(S'p1_vo'
I7
tp4178
a(S'w'
I1
tp4179
a(S'w'
I18
tp4180
a(S'p2_vo'
I9
tp4181
a(S'w'
I715
tp4182
a(S'p1_vo'
I5
tp4183
a(S'w'
I1
tp4184
a(S'w'
I16
tp4185
a(S'p2_vo'
I7
tp4186
a(S'w'
I1
tp4187
a(S'p2_tl'
I161
tp4188
a(S'w'
I716
tp4189
a(S'p1_vo'
I3
tp4190
a(S'w'
I1
tp4191
a(S'w'
I36
tp4192
a(S'p2_vo'
I5
tp4193
a(S'w'
I697
tp4194
a(S'p1_vo'
I6
tp4195
a(S'w'
I1
tp4196
a(S'p1_tl'
I226
tp4197
a(S'p1_ll'
I1
tp4198
a(S'w'
I17
tp4199
a(S'p2_vo'
I8
tp4200
a(S'w'
I1
tp4201
a(S'p2_tl'
I180
tp4202
a(S'p2_ll'
I1
tp4203
a(S'w'
I714
tp4204
a(S'p1_vo'
I4
tp4205
a(S'w'
I1
tp4206
a(S'w'
I16
tp4207
a(S'p2_vo'
I6
tp4208
a(S'w'
I717
tp4209
a(S'p1_vo'
I2
tp4210
a(S'w'
I1
tp4211
a(S'w'
I18
tp4212
a(S'p2_vo'
I4
tp4213
a(S'w'
I1
tp4214
a(S'p2_tl'
I181
tp4215
a(S'w'
I714
tp4216
a(S'p1_vo'
I0
tp4217
a(S'w'
I1
tp4218
a(S'w'
I12
tp4219
a(S'p2_vo'
I2
tp4220
a(S'w'
I721
tp4221
a(S'w'
I19
tp4222
a(S'p2_tl'
I180
tp4223
a(S'w'
I715
tp4224
a(S'p1_vo'
I1
tp4225
a(S'w'
I1
tp4226
a(S'w'
I18
tp4227
a(S'p2_vo'
I3
tp4228
a(S'w'
I714
tp4229
a(S'p1_vo'
I0
tp4230
a(S'w'
I1
tp4231
a(S'w'
I16
tp4232
a(S'p2_vo'
I1
tp4233
a(S'w'
I1
tp4234
a(S'p2_tl'
I181
tp4235
a(S'w'
I717
tp4236
a(S'w'
I33
tp4237
a(S'p2_vo'
I0
tp4238
a(S'w'
I700
tp4239
a(S'p1_vo'
I6
tp4240
a(S'w'
I1
tp4241
a(S'p1_tl'
I240
tp4242
a(S'p1_ll'
I1
tp4243
a(S'w'
I17
tp4244
a(S'p2_vo'
I8
tp4245
a(S'w'
I1
tp4246
a(S'p2_tl'
I190
tp4247
a(S'p2_ll'
I1
tp4248
a(S'w'
I715
tp4249
a(S'p1_vo'
I4
tp4250
a(S'w'
I1
tp4251
a(S'w'
I16
tp4252
a(S'p2_vo'
I6
tp4253
a(S'w'
I717
tp4254
a(S'p1_vo'
I2
tp4255
a(S'w'
I1
tp4256
a(S'w'
I18
tp4257
a(S'p2_vo'
I4
tp4258
a(S'w'
I1
tp4259
a(S'p2_tl'
I191
tp4260
a(S'w'
I713
tp4261
a(S'p1_vo'
I0
tp4262
a(S'w'
I1
tp4263
a(S'w'
I12
tp4264
a(S'p2_vo'
I2
tp4265
a(S'w'
I721
tp4266
a(S'w'
I19
tp4267
a(S'p2_tl'
I190
tp4268
a(S'w'
I715
tp4269
a(S'p1_vo'
I1
tp4270
a(S'w'
I1
tp4271
a(S'w'
I18
tp4272
a(S'p2_vo'
I3
tp4273
a(S'w'
I715
tp4274
a(S'p1_vo'
I0
tp4275
a(S'w'
I1
tp4276
a(S'w'
I16
tp4277
a(S'p2_vo'
I1
tp4278
a(S'w'
I1
tp4279
a(S'p2_tl'
I191
tp4280
a(S'w'
I716
tp4281
a(S'w'
I44
tp4282
a(S'p2_vo'
I0
tp4283
a(S'w'
I689
tp4284
a(S'p1_vo'
I4
tp4285
a(S'w'
I1
tp4286
a(S'p1_ll'
I1
tp4287
a(S'w'
I13
tp4288
a(S'p2_vo'
I4
tp4289
a(S'w'
I1
tp4290
a(S'p2_tl'
I190
tp4291
a(S'p2_ll'
I1
tp4292
a(S'w'
I719
tp4293
a(S'w'
I19
tp4294
a(S'w'
I715
tp4295
a(S'p1_vo'
I2
tp4296
a(S'w'
I1
tp4297
a(S'w'
I29
tp4298
a(S'p2_vo'
I2
tp4299
a(S'w'
I1
tp4300
a(S'w'
I703
tp4301
a(S'p1_vo'
I4
tp4302
a(S'w'
I1
tp4303
a(S'p1_tl'
I226
tp4304
a(S'p1_ll'
I1
tp4305
a(S'w'
I13
tp4306
a(S'p2_vo'
I4
tp4307
a(S'w'
I1
tp4308
a(S'p2_tl'
I180
tp4309
a(S'p2_ll'
I1
tp4310
a(S'w'
I718
tp4311
a(S'w'
I19
tp4312
a(S'w'
I715
tp4313
a(S'p1_vo'
I2
tp4314
a(S'w'
I1
tp4315
a(S'w'
I29
tp4316
a(S'p2_vo'
I2
tp4317
a(S'w'
I1
tp4318
a(S'w'
I703
tp4319
a(S'p1_vo'
I4
tp4320
a(S'w'
I1
tp4321
a(S'p1_tl'
I240
tp4322
a(S'p1_ll'
I1
tp4323
a(S'w'
I13
tp4324
a(S'p2_vo'
I4
tp4325
a(S'w'
I1
tp4326
a(S'p2_tl'
I190
tp4327
a(S'p2_ll'
I1
tp4328
a(S'w'
I719
tp4329
a(S'w'
I19
tp4330
a(S'w'
I715
tp4331
a(S'p1_vo'
I2
tp4332
a(S'w'
I1
tp4333
a(S'w'
I29
tp4334
a(S'p2_vo'
I2
tp4335
a(S'w'
I1
tp4336
a(S'w'
I702
tp4337
a(S'p1_vo'
I4
tp4338
a(S'w'
I1
tp4339
a(S'p1_tl'
I226
tp4340
a(S'p1_ll'
I1
tp4341
a(S'w'
I13
tp4342
a(S'p2_vo'
I4
tp4343
a(S'w'
I1
tp4344
a(S'p2_tl'
I180
tp4345
a(S'p2_ll'
I1
tp4346
a(S'w'
I719
tp4347
a(S'w'
I19
tp4348
a(S'w'
I715
tp4349
a(S'p1_vo'
I2
tp4350
a(S'w'
I1
tp4351
a(S'w'
I29
tp4352
a(S'p2_vo'
I2
tp4353
a(S'w'
I1
tp4354
a(S'w'
I703
tp4355
a(S'p1_vo'
I4
tp4356
a(S'w'
I1
tp4357
a(S'p1_tl'
I240
tp4358
a(S'p1_ll'
I1
tp4359
a(S'w'
I13
tp4360
a(S'p2_vo'
I4
tp4361
a(S'w'
I1
tp4362
a(S'p2_tl'
I190
tp4363
a(S'p2_ll'
I1
tp4364
a(S'w'
I719
tp4365
a(S'w'
I19
tp4366
a(S'w'
I714
tp4367
a(S'p1_vo'
I2
tp4368
a(S'w'
I1
tp4369
a(S'w'
I29
tp4370
a(S'p2_vo'
I2
tp4371
a(S'w'
I1
tp4372
a(S'w'
I703
tp4373
a(S'p1_vo'
I4
tp4374
a(S'w'
I1
tp4375
a(S'p1_tl'
I226
tp4376
a(S'p1_ll'
I1
tp4377
a(S'w'
I13
tp4378
a(S'p2_vo'
I4
tp4379
a(S'w'
I1
tp4380
a(S'p2_tl'
I180
tp4381
a(S'p2_ll'
I1
tp4382
a(S'w'
I719
tp4383
a(S'w'
I19
tp4384
a(S'w'
I715
tp4385
a(S'p1_vo'
I2
tp4386
a(S'w'
I1
tp4387
a(S'w'
I29
tp4388
a(S'p2_vo'
I2
tp4389
a(S'w'
I1
tp4390
a(S'w'
I703
tp4391
a(S'p1_vo'
I4
tp4392
a(S'w'
I1
tp4393
a(S'p1_tl'
I240
tp4394
a(S'p1_ll'
I1
tp4395
a(S'w'
I13
tp4396
a(S'p2_vo'
I4
tp4397
a(S'w'
I1
tp4398
a(S'p2_tl'
I190
tp4399
a(S'p2_ll'
I1
tp4400
a(S'w'
I718
tp4401
a(S'w'
I19
tp4402
a(S'w'
I715
tp4403
a(S'p1_vo'
I2
tp4404
a(S'w'
I1
tp4405
a(S'w'
I29
tp4406
a(S'p2_vo'
I2
tp4407
a(S'w'
I1
tp4408
a(S'w'
I703
tp4409
a(S'p1_vo'
I4
tp4410
a(S'w'
I1
tp4411
a(S'p1_tl'
I226
tp4412
a(S'p1_ll'
I1
tp4413
a(S'w'
I13
tp4414
a(S'p2_vo'
I4
tp4415
a(S'w'
I1
tp4416
a(S'p2_tl'
I180
tp4417
a(S'p2_ll'
I1
tp4418
a(S'w'
I719
tp4419
a(S'w'
I19
tp4420
a(S'w'
I714
tp4421
a(S'p1_vo'
I2
tp4422
a(S'w'
I1
tp4423
a(S'w'
I32
tp4424
a(S'p2_vo'
I2
tp4425
a(S'w'
I1
tp4426
a(S'w'
I700
tp4427
a(S'p1_vo'
I4
tp4428
a(S'w'
I1
tp4429
a(S'p1_tl'
I240
tp4430
a(S'p1_ll'
I1
tp4431
a(S'w'
I13
tp4432
a(S'p2_vo'
I4
tp4433
a(S'w'
I1
tp4434
a(S'p2_tl'
I190
tp4435
a(S'p2_ll'
I1
tp4436
a(S'w'
I719
tp4437
a(S'w'
I19
tp4438
a(S'w'
I715
tp4439
a(S'p1_vo'
I2
tp4440
a(S'w'
I1
tp4441
a(S'w'
I12
tp4442
a(S'p2_vo'
I2
tp4443
a(S'w'
I1
tp4444
a(S'w'
I720
tp4445
a(S'w'
I19
tp4446
a(S'w'
I714
tp4447
a(S'p1_vo'
I0
tp4448
a(S'w'
I1
tp4449
a(S'w'
I32
tp4450
a(S'p2_vo'
I4
tp4451
a(S'w'
I1
tp4452
a(S'p2_tl'
I180
tp4453
a(S'w'
I1
tp4454
a(S'p2_ll'
I1
tp4455
a(S'w'
I699
tp4456
a(S'p1_vo'
I4
tp4457
a(S'w'
I1
tp4458
a(S'p1_tl'
I226
tp4459
a(S'p1_ll'
I1
tp4460
a(S'w'
I13
tp4461
a(S'w'
I720
tp4462
a(S'w'
I19
tp4463
a(S'p2_vo'
I2
tp4464
a(S'w'
I715
tp4465
a(S'p1_vo'
I2
tp4466
a(S'w'
I1
tp4467
a(S'w'
I13
tp4468
a(S'w'
I720
tp4469
a(S'w'
I35
tp4470
a(S'p2_vo'
I4
tp4471
a(S'w'
I1
tp4472
a(S'p2_tl'
I190
tp4473
a(S'w'
I1
tp4474
a(S'p2_ll'
I1
tp4475
a(S'w'
I696
tp4476
a(S'p1_vo'
I4
tp4477
a(S'w'
I1
tp4478
a(S'p1_tl'
I240
tp4479
a(S'p1_ll'
I1
tp4480
a(S'w'
I13
tp4481
a(S'w'
I720
tp4482
a(S'w'
I19
tp4483
a(S'p2_vo'
I2
tp4484
a(S'w'
I715
tp4485
a(S'p1_vo'
I2
tp4486
a(S'w'
I1
tp4487
a(S'w'
I13
tp4488
a(S'w'
I720
tp4489
a(S'w'
I35
tp4490
a(S'p2_vo'
I4
tp4491
a(S'w'
I1
tp4492
a(S'p2_tl'
I180
tp4493
a(S'w'
I1
tp4494
a(S'p2_ll'
I1
tp4495
a(S'w'
I697
tp4496
a(S'p1_vo'
I4
tp4497
a(S'w'
I1
tp4498
a(S'p1_tl'
I226
tp4499
a(S'p1_ll'
I1
tp4500
a(S'w'
I13
tp4501
a(S'w'
I719
tp4502
a(S'w'
I19
tp4503
a(S'p2_vo'
I2
tp4504
a(S'w'
I715
tp4505
a(S'p1_vo'
I2
tp4506
a(S'w'
I1
tp4507
a(S'w'
I13
tp4508
a(S'w'
I720
tp4509
a(S'w'
I49
tp4510
a(S'p2_vo'
I0
tp4511
a(S'w'
I1
tp4512
a(S'w'
I684
tp4513
a(S'p1_vo'
I5
tp4514
a(S'w'
I1
tp4515
a(S'p1_tl'
I240
tp4516
a(S'p1_ll'
I1
tp4517
a(S'w'
I13
tp4518
a(S'p2_vo'
I4
tp4519
a(S'w'
I1
tp4520
a(S'p2_tl'
I190
tp4521
a(S'p2_ll'
I1
tp4522
a(S'w'
I719
tp4523
a(S'w'
I14
tp4524
a(S'w'
I719
tp4525
a(S'w'
I13
tp4526
a(S'p2_vo'
I5
tp4527
a(S'w'
I1
tp4528
a(S'w'
I720
tp4529
a(S'w'
I13
tp4530
a(S'w'
I721
tp4531
a(S'w'
I13
tp4532
a(S'p2_vo'
I6
tp4533
a(S'w'
I1
tp4534
a(S'w'
I720
tp4535
a(S'w'
I13
tp4536
a(S'w'
I720
tp4537
a(S'w'
I13
tp4538
a(S'p2_vo'
I7
tp4539
a(S'w'
I1
tp4540
a(S'w'
I720
tp4541
a(S'w'
I14
tp4542
a(S'w'
I720
tp4543
a(S'w'
I13
tp4544
a(S'p2_vo'
I10
tp4545
a(S'w'
I1
tp4546
a(S'w'
I720
tp4547
a(S'w'
I14
tp4548
a(S'w'
I720
tp4549
a(S'w'
I14
tp4550
a(S'w'
I719
tp4551
a(S'w'
I14
tp4552
a(S'w'
I720
tp4553
a(S'w'
I14
tp4554
a(S'w'
I720
tp4555
a(S'w'
I18
tp4556
a(S'w'
I716
tp4557
a(S'p1_vo'
I6
tp4558
a(S'w'
I1
tp4559
a(S'w'
I13
tp4560
a(S'w'
I720
tp4561
a(S'w'
I14
tp4562
a(S'w'
I719
tp4563
a(S'w'
I14
tp4564
a(S'w'
I720
tp4565
a(S'w'
I14
tp4566
a(S'w'
I720
tp4567
a(S'w'
I14
tp4568
a(S'w'
I720
tp4569
a(S'w'
I14
tp4570
a(S'w'
I720
tp4571
a(S'w'
I14
tp4572
a(S'w'
I719
tp4573
a(S'w'
I14
tp4574
a(S'w'
I720
tp4575
a(S'w'
I14
tp4576
a(S'w'
I720
tp4577
a(S'w'
I14
tp4578
a(S'w'
I720
tp4579
a(S'w'
I14
tp4580
a(S'w'
I719
tp4581
a(S'w'
I734
tp4582
a(S'w'
I13
tp4583
a(S'p2_vo'
I11
tp4584
a(S'w'
I1
tp4585
a(S'p2_tl'
I191
tp4586
a(S'w'
I720
tp4587
a(S'w'
I734
tp4588
a(S'p1_vo'
I7
tp4589
a(S'w'
I1
tp4590
a(S'w'
I12
tp4591
a(S'p2_vo'
I12
tp4592
a(S'w'
I1
tp4593
a(S'p2_tl'
I190
tp4594
a(S'w'
I720
tp4595
a(S'w'
I733
tp4596
a(S'w'
I13
tp4597
a(S'p2_vo'
I13
tp4598
a(S'w'
I1
tp4599
a(S'p2_tl'
I191
tp4600
a(S'w'
I720
tp4601
a(S'w'
I734
tp4602
a(S'w'
I13
tp4603
a(S'p2_vo'
I14
tp4604
a(S'w'
I1
tp4605
a(S'p2_tl'
I190
tp4606
a(S'w'
I720
tp4607
a(S'w'
I734
tp4608
a(S'w'
I13
tp4609
a(S'p2_vo'
I15
tp4610
a(S'w'
I1
tp4611
a(S'p2_tl'
I191
tp4612
a(S'w'
I7
tp4613
a(S'tr_tl'
I241
tp4614
a(S'w'
I712
tp4615
a(S'w'
I734
tp4616
a(S'w'
I14
tp4617
a(S'p2_tl'
I190
tp4618
a(S'w'
I7
tp4619
a(S'tr_tl'
I240
tp4620
a(S'w'
I713
tp4621
a(S'w'
I734
tp4622
a(S'w'
I14
tp4623
a(S'p2_tl'
I191
tp4624
a(S'w'
I7
tp4625
a(S'tr_tl'
I241
tp4626
a(S'w'
I713
tp4627
a(S'w'
I733
tp4628
a(S'w'
I14
tp4629
a(S'p2_tl'
I190
tp4630
a(S'w'
I7
tp4631
a(S'tr_tl'
I240
tp4632
a(S'w'
I713
tp4633
a(S'w'
I734
tp4634
a(S'p1_vo'
I8
tp4635
a(S'w'
I1
tp4636
a(S'w'
I13
tp4637
a(S'p2_tl'
I191
tp4638
a(S'w'
I7
tp4639
a(S'tr_tl'
I241
tp4640
a(S'w'
I713
tp4641
a(S'w'
I734
tp4642
a(S'w'
I14
tp4643
a(S'p2_tl'
I190
tp4644
a(S'w'
I6
tp4645
a(S'tr_tl'
I240
tp4646
a(S'w'
I713
tp4647
a(S'w'
I734
tp4648
a(S'w'
I13
tp4649
a(S'p2_tl'
I191
tp4650
a(S'w'
I7
tp4651
a(S'tr_tl'
I241
tp4652
a(S'w'
I714
tp4653
a(S'w'
I734
tp4654
a(S'p1_vo'
I5
tp4655
a(S'w'
I1
tp4656
a(S'p1_tl'
I226
tp4657
a(S'p1_ll'
I1
tp4658
a(S'w'
I13
tp4659
a(S'p2_vo'
I7
tp4660
a(S'w'
I1
tp4661
a(S'p2_tl'
I180
tp4662
a(S'p2_ll'
I1
tp4663
a(S'w'
I7
tp4664
a(S'tr_tl'
I240
tp4665
a(S'w'
I711
tp4666
a(S'w'
I734
tp4667
a(S'w'
I13
tp4668
a(S'p2_vo'
I8
tp4669
a(S'w'
I1
tp4670
a(S'p2_tl'
I181
tp4671
a(S'w'
I7
tp4672
a(S'tr_tl'
I241
tp4673
a(S'w'
I713
tp4674
a(S'w'
I734
tp4675
a(S'w'
I13
tp4676
a(S'p2_vo'
I9
tp4677
a(S'w'
I1
tp4678
a(S'p2_tl'
I180
tp4679
a(S'w'
I7
tp4680
a(S'tr_tl'
I240
tp4681
a(S'w'
I713
tp4682
a(S'w'
I733
tp4683
a(S'w'
I13
tp4684
a(S'p2_vo'
I10
tp4685
a(S'w'
I1
tp4686
a(S'p2_tl'
I181
tp4687
a(S'w'
I7
tp4688
a(S'tr_tl'
I241
tp4689
a(S'w'
I713
tp4690
a(S'w'
I734
tp4691
a(S'w'
I13
tp4692
a(S'p2_vo'
I11
tp4693
a(S'w'
I1
tp4694
a(S'p2_tl'
I180
tp4695
a(S'w'
I7
tp4696
a(S'tr_tl'
I240
tp4697
a(S'w'
I713
tp4698
a(S'w'
I734
tp4699
a(S'w'
I13
tp4700
a(S'p2_vo'
I12
tp4701
a(S'w'
I1
tp4702
a(S'p2_tl'
I181
tp4703
a(S'w'
I7
tp4704
a(S'tr_tl'
I241
tp4705
a(S'w'
I712
tp4706
a(S'w'
I734
tp4707
a(S'w'
I13
tp4708
a(S'p2_vo'
I13
tp4709
a(S'w'
I1
tp4710
a(S'p2_tl'
I180
tp4711
a(S'w'
I7
tp4712
a(S'tr_tl'
I240
tp4713
a(S'w'
I713
tp4714
a(S'w'
I734
tp4715
a(S'p1_vo'
I6
tp4716
a(S'w'
I1
tp4717
a(S'w'
I12
tp4718
a(S'p2_vo'
I14
tp4719
a(S'w'
I1
tp4720
a(S'p2_tl'
I181
tp4721
a(S'w'
I7
tp4722
a(S'tr_tl'
I241
tp4723
a(S'w'
I713
tp4724
a(S'w'
I733
tp4725
a(S'p1_vo'
I14
tp4726
a(S'w'
I1
tp4727
a(S'p1_tl'
I13
tp4728
a(S'p1_ll'
I1
tp4729
a(S'p1_th'
I1
tp4730
a(S'w'
I17
tp4731
a(S'p2_vo'
I7
tp4732
a(S'w'
I1
tp4733
a(S'p2_tl'
I180
tp4734
a(S'p2_ll'
I1
tp4735
a(S'w'
I7
tp4736
a(S'tr_tl'
I180
tp4737
a(S'w'
I1
tp4738
a(S'tr_ll'
I1
tp4739
a(S'w'
I707
tp4740
a(S'p1_vo'
I12
tp4741
a(S'w'
I1
tp4742
a(S'w'
I733
tp4743
a(S'p1_vo'
I10
tp4744
a(S'w'
I1
tp4745
a(S'w'
I18
tp4746
a(S'p2_vo'
I8
tp4747
a(S'w'
I1
tp4748
a(S'p2_tl'
I181
tp4749
a(S'w'
I714
tp4750
a(S'p1_vo'
I8
tp4751
a(S'w'
I1
tp4752
a(S'w'
I733
tp4753
a(S'w'
I18
tp4754
a(S'p2_vo'
I9
tp4755
a(S'w'
I1
tp4756
a(S'p2_tl'
I180
tp4757
a(S'w'
I714
tp4758
a(S'p1_vo'
I9
tp4759
a(S'w'
I1
tp4760
a(S'w'
I733
tp4761
a(S'p1_vo'
I7
tp4762
a(S'w'
I1
tp4763
a(S'w'
I16
tp4764
a(S'p2_vo'
I10
tp4765
a(S'w'
I1
tp4766
a(S'p2_tl'
I181
tp4767
a(S'w'
I716
tp4768
a(S'p1_vo'
I5
tp4769
a(S'w'
I1
tp4770
a(S'w'
I733
tp4771
a(S'p1_vo'
I8
tp4772
a(S'w'
I1
tp4773
a(S'w'
I18
tp4774
a(S'p2_vo'
I11
tp4775
a(S'w'
I1
tp4776
a(S'p2_tl'
I180
tp4777
a(S'w'
I714
tp4778
a(S'w'
I734
tp4779
a(S'w'
I18
tp4780
a(S'p2_vo'
I12
tp4781
a(S'w'
I1
tp4782
a(S'p2_tl'
I181
tp4783
a(S'w'
I715
tp4784
a(S'w'
I734
tp4785
a(S'w'
I18
tp4786
a(S'p2_vo'
I13
tp4787
a(S'w'
I1
tp4788
a(S'p2_tl'
I180
tp4789
a(S'w'
I715
tp4790
a(S'w'
I733
tp4791
a(S'w'
I18
tp4792
a(S'p2_vo'
I14
tp4793
a(S'w'
I1
tp4794
a(S'p2_tl'
I181
tp4795
a(S'w'
I715
tp4796
a(S'w'
I734
tp4797
a(S'w'
I18
tp4798
a(S'p2_vo'
I15
tp4799
a(S'w'
I1
tp4800
a(S'p2_tl'
I180
tp4801
a(S'w'
I715
tp4802
a(S'w'
I734
tp4803
a(S'w'
I19
tp4804
a(S'p2_tl'
I181
tp4805
a(S'w'
I714
tp4806
a(S'w'
I734
tp4807
a(S'w'
I19
tp4808
a(S'p2_tl'
I180
tp4809
a(S'w'
I715
tp4810
a(S'w'
I734
tp4811
a(S'w'
I19
tp4812
a(S'p2_tl'
I181
tp4813
a(S'w'
I715
tp4814
a(S'w'
I733
tp4815
a(S'w'
I19
tp4816
a(S'p2_tl'
I180
tp4817
a(S'w'
I715
tp4818
a(S'w'
I734
tp4819
a(S'w'
I19
tp4820
a(S'p2_tl'
I181
tp4821
a(S'w'
I715
tp4822
a(S'w'
I734
tp4823
a(S'w'
I19
tp4824
a(S'p2_tl'
I180
tp4825
a(S'w'
I714
tp4826
a(S'w'
I734
tp4827
a(S'w'
I19
tp4828
a(S'p2_tl'
I181
tp4829
a(S'w'
I715
tp4830
a(S'w'
I734
tp4831
a(S'w'
I19
tp4832
a(S'p2_tl'
I180
tp4833
a(S'w'
I714
tp4834
a(S'w'
I734
tp4835
a(S'w'
I19
tp4836
a(S'p2_tl'
I181
tp4837
a(S'w'
I715
tp4838
a(S'w'
I734
tp4839
a(S'w'
I19
tp4840
a(S'p2_tl'
I180
tp4841
a(S'w'
I715
tp4842
a(S'w'
I733
tp4843
a(S'w'
I19
tp4844
a(S'p2_tl'
I181
tp4845
a(S'w'
I715
tp4846
a(S'w'
I734
tp4847
a(S'w'
I7
tp4848
a(S'p2_tl'
I180
tp4849
a(S'w'
I1460
tp4850
a(S'p1_vo'
I9
tp4851
a(S'w'
I1
tp4852
a(S'p1_tl'
I14
tp4853
a(S'w'
I7
tp4854
a(S'p2_tl'
I181
tp4855
a(S'w'
I1459
tp4856
a(S'p1_vo'
I10
tp4857
a(S'w'
I1
tp4858
a(S'p1_tl'
I13
tp4859
a(S'w'
I7
tp4860
a(S'p2_tl'
I180
tp4861
a(S'w'
I1460
tp4862
a(S'p1_vo'
I11
tp4863
a(S'w'
I1
tp4864
a(S'p1_tl'
I14
tp4865
a(S'w'
I7
tp4866
a(S'p2_tl'
I181
tp4867
a(S'w'
I1459
tp4868
a(S'p1_vo'
I12
tp4869
a(S'w'
I1
tp4870
a(S'p1_tl'
I13
tp4871
a(S'w'
I7
tp4872
a(S'p2_tl'
I180
tp4873
a(S'w'
I1460
tp4874
a(S'p1_vo'
I13
tp4875
a(S'w'
I1
tp4876
a(S'p1_tl'
I14
tp4877
a(S'w'
I7
tp4878
a(S'p2_tl'
I181
tp4879
a(S'w'
I1460
tp4880
a(S'p1_vo'
I14
tp4881
a(S'w'
I1
tp4882
a(S'p1_tl'
I13
tp4883
a(S'w'
I7
tp4884
a(S'p2_tl'
I180
tp4885
a(S'w'
I1459
tp4886
a(S'p1_vo'
I15
tp4887
a(S'w'
I1
tp4888
a(S'p1_tl'
I14
tp4889
a(S'w'
I7
tp4890
a(S'p2_tl'
I181
tp4891
a(S'w'
I1461
tp4892
a(S'p1_tl'
I13
tp4893
a(S'w'
I7
tp4894
a(S'p2_tl'
I180
tp4895
a(S'w'
I1459
tp4896
a(S'p1_tl'
I14
tp4897
a(S'w'
I8
tp4898
a(S'p2_tl'
I181
tp4899
a(S'w'
I1460
tp4900
a(S'p1_tl'
I13
tp4901
a(S'w'
I8
tp4902
a(S'p2_tl'
I180
tp4903
a(S'w'
I1459
tp4904
a(S'p1_tl'
I14
tp4905
a(S'w'
I8
tp4906
a(S'p2_tl'
I181
tp4907
a(S'w'
I1460
tp4908
a(S'p1_vo'
I4
tp4909
a(S'w'
I1
tp4910
a(S'p1_tl'
I29
tp4911
a(S'p1_ll'
I1
tp4912
a(S'w'
I14
tp4913
a(S'p2_tl'
I180
tp4914
a(S'w'
I719
tp4915
a(S'w'
I734
tp4916
a(S'p1_vo'
I5
tp4917
a(S'w'
I1
tp4918
a(S'w'
I732
tp4919
a(S'w'
I19
tp4920
a(S'p2_tl'
I181
tp4921
a(S'w'
I715
tp4922
a(S'p1_vo'
I6
tp4923
a(S'w'
I1
tp4924
a(S'w'
I733
tp4925
a(S'w'
I734
tp4926
a(S'p1_vo'
I7
tp4927
a(S'w'
I1
tp4928
a(S'w'
I13
tp4929
a(S'p2_tl'
I180
tp4930
a(S'w'
I720
tp4931
a(S'w'
I733
tp4932
a(S'p1_vo'
I8
tp4933
a(S'w'
I1
tp4934
a(S'w'
I734
tp4935
a(S'w'
I18
tp4936
a(S'p2_tl'
I181
tp4937
a(S'w'
I716
tp4938
a(S'w'
I734
tp4939
a(S'w'
I734
tp4940
a(S'w'
I18
tp4941
a(S'p2_tl'
I180
tp4942
a(S'w'
I715
tp4943
a(S'w'
I734
tp4944
a(S'w'
I18
tp4945
a(S'p2_vo'
I13
tp4946
a(S'w'
I716
tp4947
a(S'w'
I36
tp4948
a(S'p2_tl'
I181
tp4949
a(S'w'
I698
tp4950
a(S'w'
I1466
tp4951
a(S'p1_vo'
I9
tp4952
a(S'w'
I1
tp4953
a(S'p1_tl'
I30
tp4954
a(S'w'
I7
tp4955
a(S'p2_tl'
I180
tp4956
a(S'w'
I1460
tp4957
a(S'p1_vo'
I10
tp4958
a(S'w'
I1
tp4959
a(S'p1_tl'
I29
tp4960
a(S'w'
I750
tp4961
a(S'p2_tl'
I181
tp4962
a(S'w'
I716
tp4963
a(S'p1_vo'
I11
tp4964
a(S'w'
I1
tp4965
a(S'p1_tl'
I30
tp4966
a(S'w'
I1467
tp4967
a(S'p1_vo'
I12
tp4968
a(S'w'
I1
tp4969
a(S'p1_tl'
I29
tp4970
a(S'w'
I7
tp4971
a(S'p2_tl'
I180
tp4972
a(S'w'
I1460
tp4973
a(S'p1_vo'
I13
tp4974
a(S'w'
I1
tp4975
a(S'p1_tl'
I30
tp4976
a(S'w'
I751
tp4977
a(S'p2_tl'
I181
tp4978
a(S'w'
I715
tp4979
a(S'p1_vo'
I14
tp4980
a(S'w'
I1
tp4981
a(S'p1_tl'
I29
tp4982
a(S'w'
I6
tp4983
a(S'p2_vo'
I11
tp4984
a(S'w'
I1461
tp4985
a(S'p1_vo'
I15
tp4986
a(S'w'
I1
tp4987
a(S'p1_tl'
I30
tp4988
a(S'w'
I7
tp4989
a(S'p2_tl'
I180
tp4990
a(S'w'
I1458
tp4991
a(S'p1_du'
I0
tp4992
a(S'p1_vo'
I0
tp4993
a(S'w'
I1
tp4994
a(S'p1_tl'
I29
tp4995
a(S'w'
I746
tp4996
a(S'p2_tl'
I181
tp4997
a(S'w'
I722
tp4998
a(S'p1_tl'
I30
tp4999
a(S'w'
I758
tp5000
a(S'tr_tl'
I181
tp5001
a(S'w'
I710
tp5002
a(S'p1_tl'
I29
tp5003
a(S'w'
I6
tp5004
a(S'p2_tl'
I180
tp5005
a(S'w'
I1461
tp5006
a(S'p1_tl'
I30
tp5007
a(S'w'
I18
tp5008
a(S'tr_tl'
I180
tp5009
a(S'w'
I761
tp5010
a(S'p2_tl'
I181
tp5011
a(S'w'
I689
tp5012
a(S'p1_du'
I2
tp5013
a(S'p1_vo'
I14
tp5014
a(S'w'
I1
tp5015
a(S'p1_tl'
I143
tp5016
a(S'p1_ll'
I1
tp5017
a(S'p1_th'
I0
tp5018
a(S'w'
I732
tp5019
a(S'p1_vo'
I0
tp5020
a(S'w'
I35
tp5021
a(S'tr_tl'
I181
tp5022
a(S'w'
I700
tp5023
a(S'p1_tl'
I144
tp5024
a(S'w'
I6
tp5025
a(S'p2_vo'
I9
tp5026
a(S'w'
I1
tp5027
a(S'p2_tl'
I180
tp5028
a(S'w'
I1460
tp5029
a(S'p1_tl'
I143
tp5030
a(S'w'
I25
tp5031
a(S'tr_tl'
I180
tp5032
a(S'w'
I709
tp5033
a(S'p1_vo'
I5
tp5034
a(S'w'
I17
tp5035
a(S'p2_tl'
I181
tp5036
a(S'w'
I716
tp5037
a(S'p1_vo'
I0
tp5038
a(S'w'
I1
tp5039
a(S'p1_tl'
I144
tp5040
a(S'w'
I780
tp5041
a(S'tr_tl'
I181
tp5042
a(S'w'
I687
tp5043
a(S'p1_vo'
I14
tp5044
a(S'w'
I1
tp5045
a(S'p1_tl'
I95
tp5046
a(S'p1_ll'
I1
tp5047
a(S'w'
I11
tp5048
a(S'p2_tl'
I180
tp5049
a(S'w'
I722
tp5050
a(S'p1_vo'
I0
tp5051
a(S'w'
I735
tp5052
a(S'p1_tl'
I96
tp5053
a(S'w'
I19
tp5054
a(S'tr_tl'
I180
tp5055
a(S'w'
I726
tp5056
a(S'p2_tl'
I181
tp5057
a(S'w'
I721
tp5058
a(S'p1_tl'
I95
tp5059
a(S'w'
I734
tp5060
a(S'p1_vo'
I5
tp5061
a(S'w'
I30
tp5062
a(S'tr_tl'
I181
tp5063
a(S'w'
I704
tp5064
a(S'p1_vo'
I0
tp5065
a(S'w'
I1
tp5066
a(S'p1_tl'
I96
tp5067
a(S'w'
I11
tp5068
a(S'p2_tl'
I180
tp5069
a(S'w'
I1455
tp5070
a(S'p1_vo'
I14
tp5071
a(S'w'
I1
tp5072
a(S'p1_tl'
I90
tp5073
a(S'p1_ll'
I1
tp5074
a(S'w'
I11
tp5075
a(S'p2_vo'
I7
tp5076
a(S'w'
I13
tp5077
a(S'tr_tl'
I180
tp5078
a(S'w'
I709
tp5079
a(S'p1_vo'
I0
tp5080
a(S'w'
I19
tp5081
a(S'p2_tl'
I181
tp5082
a(S'w'
I716
tp5083
a(S'p1_tl'
I91
tp5084
a(S'w'
I771
tp5085
a(S'tr_tl'
I181
tp5086
a(S'w'
I696
tp5087
a(S'p1_tl'
I90
tp5088
a(S'w'
I13
tp5089
a(S'p2_tl'
I180
tp5090
a(S'w'
I720
tp5091
a(S'p1_vo'
I5
tp5092
a(S'w'
I734
tp5093
a(S'p1_vo'
I0
tp5094
a(S'w'
I1
tp5095
a(S'p1_tl'
I91
tp5096
a(S'w'
I23
tp5097
a(S'tr_tl'
I180
tp5098
a(S'w'
I755
tp5099
a(S'p2_tl'
I181
tp5100
a(S'w'
I688
tp5101
a(S'p1_du'
I0
tp5102
a(S'w'
I1
tp5103
a(S'p1_tl'
I90
tp5104
a(S'w'
I12
tp5105
a(S'p2_du'
I3
tp5106
a(S'p2_vo'
I14
tp5107
a(S'w'
I1
tp5108
a(S'p2_tl'
I143
tp5109
a(S'p2_ll'
I1
tp5110
a(S'w'
I11
tp5111
a(S'tr_tl'
I143
tp5112
a(S'w'
I1
tp5113
a(S'tr_ll'
I1
tp5114
a(S'w'
I708
tp5115
a(S'w'
I12
tp5116
a(S'p2_vo'
I0
tp5117
a(S'w'
I722
tp5118
a(S'w'
I12
tp5119
a(S'p2_tl'
I144
tp5120
a(S'w'
I722
tp5121
a(S'w'
I734
tp5122
a(S'w'
I12
tp5123
a(S'p2_tl'
I143
tp5124
a(S'w'
I722
tp5125
a(S'w'
I12
tp5126
a(S'p2_vo'
I5
tp5127
a(S'w'
I721
tp5128
a(S'w'
I12
tp5129
a(S'p2_vo'
I0
tp5130
a(S'p2_tl'
I144
tp5131
a(S'w'
I722
tp5132
a(S'w'
I28
tp5133
a.