(lp1
(S'clock'
p2
I1789772
tp3
a(S'fc_mo'
I1
tp4
a(S'ch_no'
I1
tp5
a(S'ch_tr'
I1
tp6
a(S'ch_p2'
I1
tp7
a(S'ch_p1'
I1
tp8
a(S'p1_lh'
I1
tp9
a(S'p1_cv'
I1
tp10
a(S'p1_sp'
I3
tp11
a(S'no_lh'
I1
tp12
a(S'no_cv'
I1
tp13
a(S'p2_lh'
I1
tp14
a(S'p2_cv'
I1
tp15
a(S'p2_sp'
I3
tp16
a(S'w'
I11
tp17
a(S'p1_du'
I2
tp18
a(S'p1_vo'
I10
tp19
a(S'w'
I4
tp20
a(S'p1_ll'
I1
tp21
a(S'p1_th'
I1
tp22
a(S'p1_tl'
I126
tp23
a(S'w'
I10
tp24
a(S'p2_du'
I2
tp25
a(S'p2_vo'
I10
tp26
a(S'w'
I3
tp27
a(S'p2_ll'
I1
tp28
a(S'p2_th'
I1
tp29
a(S'w'
I1
tp30
a(S'p2_tl'
I125
tp31
a(S'w'
I8
tp32
a(S'tr_lr'
I15
tp33
a(S'w'
I4
tp34
a(S'tr_ll'
I1
tp35
a(S'tr_tl'
I190
tp36
a(S'w'
I697
tp37
a(S'p1_vo'
I9
tp38
a(S'w'
I5
tp39
a(S'p2_vo'
I9
tp40
a(S'w'
I729
tp41
a(S'p1_vo'
I8
tp42
a(S'w'
I5
tp43
a(S'p2_vo'
I8
tp44
a(S'w'
I1463
tp45
a(S'p1_vo'
I7
tp46
a(S'w'
I5
tp47
a(S'p2_vo'
I7
tp48
a(S'w'
I728
tp49
a(S'p1_vo'
I6
tp50
a(S'w'
I5
tp51
a(S'p2_vo'
I6
tp52
a(S'w'
I733
tp53
a(S'p1_vo'
I10
tp54
a(S'w'
I4
tp55
a(S'p1_ll'
I1
tp56
a(S'p1_th'
I0
tp57
a(S'w'
I1
tp58
a(S'p1_tl'
I191
tp59
a(S'w'
I8
tp60
a(S'p2_vo'
I10
tp61
a(S'w'
I4
tp62
a(S'p2_ll'
I1
tp63
a(S'p2_th'
I0
tp64
a(S'p2_tl'
I190
tp65
a(S'w'
I9
tp66
a(S'tr_ll'
I1
tp67
a(S'w'
I704
tp68
a(S'p1_vo'
I9
tp69
a(S'w'
I5
tp70
a(S'p2_vo'
I9
tp71
a(S'w'
I729
tp72
a(S'p1_vo'
I8
tp73
a(S'w'
I5
tp74
a(S'p2_vo'
I8
tp75
a(S'w'
I1463
tp76
a(S'p1_vo'
I7
tp77
a(S'w'
I4
tp78
a(S'p2_vo'
I7
tp79
a(S'w'
I729
tp80
a(S'p1_vo'
I6
tp81
a(S'w'
I5
tp82
a(S'p2_vo'
I6
tp83
a(S'w'
I733
tp84
a(S'p1_vo'
I10
tp85
a(S'w'
I4
tp86
a(S'p1_ll'
I1
tp87
a(S'p1_th'
I1
tp88
a(S'p1_tl'
I126
tp89
a(S'w'
I9
tp90
a(S'p2_vo'
I10
tp91
a(S'w'
I3
tp92
a(S'p2_ll'
I1
tp93
a(S'p2_th'
I1
tp94
a(S'p2_tl'
I125
tp95
a(S'w'
I9
tp96
a(S'tr_ll'
I1
tp97
a(S'w'
I705
tp98
a(S'p1_vo'
I9
tp99
a(S'w'
I5
tp100
a(S'p2_vo'
I9
tp101
a(S'w'
I729
tp102
a(S'p1_vo'
I8
tp103
a(S'w'
I5
tp104
a(S'p2_vo'
I8
tp105
a(S'w'
I1463
tp106
a(S'p1_vo'
I7
tp107
a(S'w'
I4
tp108
a(S'p2_vo'
I7
tp109
a(S'w'
I729
tp110
a(S'p1_vo'
I6
tp111
a(S'w'
I5
tp112
a(S'p2_vo'
I6
tp113
a(S'w'
I731
tp114
a(S'p1_vo'
I10
tp115
a(S'w'
I4
tp116
a(S'p1_tl'
I30
tp117
a(S'w'
I5
tp118
a(S'p2_vo'
I10
tp119
a(S'w'
I4
tp120
a(S'p2_tl'
I29
tp121
a(S'w'
I9
tp122
a(S'tr_ll'
I1
tp123
a(S'w'
I710
tp124
a(S'p1_vo'
I9
tp125
a(S'w'
I5
tp126
a(S'p2_vo'
I9
tp127
a(S'w'
I728
tp128
a(S'p1_vo'
I8
tp129
a(S'w'
I5
tp130
a(S'p2_vo'
I8
tp131
a(S'w'
I1463
tp132
a(S'p1_vo'
I7
tp133
a(S'w'
I5
tp134
a(S'p2_vo'
I7
tp135
a(S'w'
I729
tp136
a(S'p1_vo'
I6
tp137
a(S'w'
I5
tp138
a(S'p2_vo'
I6
tp139
a(S'w'
I733
tp140
a(S'p1_vo'
I10
tp141
a(S'w'
I3
tp142
a(S'p1_ll'
I1
tp143
a(S'p1_th'
I0
tp144
a(S'p1_tl'
I255
tp145
a(S'w'
I8
tp146
a(S'p2_vo'
I10
tp147
a(S'w'
I4
tp148
a(S'p2_ll'
I1
tp149
a(S'p2_th'
I0
tp150
a(S'p2_tl'
I254
tp151
a(S'w'
I9
tp152
a(S'tr_ll'
I1
tp153
a(S'w'
I705
tp154
a(S'p1_vo'
I9
tp155
a(S'w'
I5
tp156
a(S'p2_vo'
I9
tp157
a(S'w'
I729
tp158
a(S'p1_vo'
I8
tp159
a(S'w'
I5
tp160
a(S'p2_vo'
I8
tp161
a(S'w'
I729
tp162
a(S'p1_vo'
I7
tp163
a(S'w'
I5
tp164
a(S'p2_vo'
I7
tp165
a(S'w'
I729
tp166
a(S'p1_vo'
I6
tp167
a(S'w'
I5
tp168
a(S'p2_vo'
I6
tp169
a(S'w'
I728
tp170
a(S'p1_vo'
I5
tp171
a(S'w'
I5
tp172
a(S'p2_vo'
I5
tp173
a(S'w'
I729
tp174
a(S'p1_vo'
I4
tp175
a(S'w'
I5
tp176
a(S'p2_vo'
I4
tp177
a(S'w'
I3665
tp178
a(S'p1_vo'
I3
tp179
a(S'w'
I4
tp180
a(S'p2_vo'
I3
tp181
a(S'w'
I729
tp182
a(S'p1_vo'
I2
tp183
a(S'w'
I5
tp184
a(S'p2_vo'
I2
tp185
a(S'w'
I729
tp186
a(S'p1_vo'
I1
tp187
a(S'w'
I5
tp188
a(S'p2_vo'
I1
tp189
a(S'w'
I729
tp190
a(S'p1_vo'
I0
tp191
a(S'w'
I5
tp192
a(S'p2_vo'
I0
tp193
a(S'w'
I2929
tp194
a(S'p1_du'
I0
tp195
a(S'w'
I4
tp196
a(S'p2_du'
I0
tp197
a(S'w'
I3
tp198
a(S'tr_lr'
I0
tp199
a(S'w'
I42898
tp200
a.