(lp1
(S'clock'
p2
I1789772
tp3
a(S'fc_mo'
I1
tp4
a(S'ch_no'
I1
tp5
a(S'ch_tr'
I1
tp6
a(S'ch_p2'
I1
tp7
a(S'ch_p1'
I1
tp8
a(S'p1_lh'
I1
tp9
a(S'p1_cv'
I1
tp10
a(S'p1_sp'
I3
tp11
a(S'no_lh'
I1
tp12
a(S'no_cv'
I1
tp13
a(S'p2_lh'
I1
tp14
a(S'p2_cv'
I1
tp15
a(S'p2_sp'
I3
tp16
a(S'w'
I10
tp17
a(S'p1_du'
I2
tp18
a(S'p1_vo'
I10
tp19
a(S'w'
I4
tp20
a(S'p1_ll'
I1
tp21
a(S'p1_tl'
I127
tp22
a(S'w'
I10
tp23
a(S'p2_du'
I3
tp24
a(S'p2_vo'
I8
tp25
a(S'w'
I3
tp26
a(S'p2_ll'
I1
tp27
a(S'p2_th'
I1
tp28
a(S'p2_tl'
I64
tp29
a(S'w'
I9
tp30
a(S'tr_lr'
I46
tp31
a(S'w'
I3
tp32
a(S'tr_ll'
I1
tp33
a(S'tr_th'
I1
tp34
a(S'tr_tl'
I64
tp35
a(S'w'
I699
tp36
a(S'p1_vo'
I9
tp37
a(S'w'
I5
tp38
a(S'p2_vo'
I7
tp39
a(S'w'
I729
tp40
a(S'p1_vo'
I8
tp41
a(S'w'
I5
tp42
a(S'p2_vo'
I6
tp43
a(S'w'
I729
tp44
a(S'p1_vo'
I7
tp45
a(S'w'
I734
tp46
a(S'p1_vo'
I6
tp47
a(S'w'
I5
tp48
a(S'p2_vo'
I5
tp49
a(S'w'
I728
tp50
a(S'p1_vo'
I5
tp51
a(S'w'
I5
tp52
a(S'p2_vo'
I4
tp53
a(S'w'
I733
tp54
a(S'p2_vo'
I3
tp55
a(S'w'
I731
tp56
a(S'p1_vo'
I4
tp57
a(S'w'
I4
tp58
a(S'p2_vo'
I2
tp59
a(S'w'
I731
tp60
a(S'p1_vo'
I10
tp61
a(S'w'
I4
tp62
a(S'p1_tl'
I160
tp63
a(S'w'
I6
tp64
a(S'p2_vo'
I8
tp65
a(S'w'
I3
tp66
a(S'p2_tl'
I125
tp67
a(S'w'
I719
tp68
a(S'p1_vo'
I9
tp69
a(S'w'
I5
tp70
a(S'p2_vo'
I7
tp71
a(S'w'
I728
tp72
a(S'p1_vo'
I8
tp73
a(S'w'
I5
tp74
a(S'p2_vo'
I6
tp75
a(S'w'
I729
tp76
a(S'p1_vo'
I7
tp77
a(S'w'
I734
tp78
a(S'p1_vo'
I6
tp79
a(S'w'
I5
tp80
a(S'p2_vo'
I5
tp81
a(S'w'
I729
tp82
a(S'p1_vo'
I5
tp83
a(S'w'
I5
tp84
a(S'p2_vo'
I4
tp85
a(S'w'
I733
tp86
a(S'p2_vo'
I3
tp87
a(S'w'
I730
tp88
a(S'p1_vo'
I4
tp89
a(S'w'
I4
tp90
a(S'p2_vo'
I2
tp91
a(S'w'
I733
tp92
a(S'p1_vo'
I10
tp93
a(S'w'
I5
tp94
a(S'p1_tl'
I106
tp95
a(S'w'
I6
tp96
a(S'p2_vo'
I8
tp97
a(S'w'
I3
tp98
a(S'p2_ll'
I1
tp99
a(S'p2_th'
I0
tp100
a(S'w'
I1
tp101
a(S'p2_tl'
I254
tp102
a(S'w'
I11
tp103
a(S'tr_ll'
I1
tp104
a(S'tr_th'
I0
tp105
a(S'tr_tl'
I160
tp106
a(S'w'
I704
tp107
a(S'p1_vo'
I9
tp108
a(S'w'
I5
tp109
a(S'p2_vo'
I7
tp110
a(S'w'
I729
tp111
a(S'p1_vo'
I8
tp112
a(S'w'
I5
tp113
a(S'p2_vo'
I6
tp114
a(S'w'
I729
tp115
a(S'p1_vo'
I7
tp116
a(S'w'
I733
tp117
a(S'p1_vo'
I6
tp118
a(S'w'
I5
tp119
a(S'p2_vo'
I5
tp120
a(S'w'
I729
tp121
a(S'p1_vo'
I5
tp122
a(S'w'
I5
tp123
a(S'p2_vo'
I4
tp124
a(S'w'
I733
tp125
a(S'p2_vo'
I3
tp126
a(S'w'
I730
tp127
a(S'p1_vo'
I4
tp128
a(S'w'
I5
tp129
a(S'p2_vo'
I2
tp130
a(S'w'
I733
tp131
a(S'p1_vo'
I10
tp132
a(S'w'
I5
tp133
a(S'p1_tl'
I127
tp134
a(S'w'
I5
tp135
a(S'p2_vo'
I8
tp136
a(S'w'
I4
tp137
a(S'p2_ll'
I1
tp138
a(S'p2_th'
I1
tp139
a(S'p2_tl'
I83
tp140
a(S'w'
I715
tp141
a(S'p1_vo'
I9
tp142
a(S'w'
I5
tp143
a(S'p2_vo'
I7
tp144
a(S'w'
I729
tp145
a(S'p1_vo'
I8
tp146
a(S'w'
I5
tp147
a(S'p2_vo'
I6
tp148
a(S'w'
I729
tp149
a(S'p1_vo'
I7
tp150
a(S'w'
I734
tp151
a(S'p1_vo'
I6
tp152
a(S'w'
I5
tp153
a(S'p2_vo'
I5
tp154
a(S'w'
I728
tp155
a(S'p1_vo'
I5
tp156
a(S'w'
I5
tp157
a(S'p2_vo'
I4
tp158
a(S'w'
I733
tp159
a(S'p2_vo'
I3
tp160
a(S'w'
I731
tp161
a(S'p1_vo'
I4
tp162
a(S'w'
I4
tp163
a(S'p2_vo'
I2
tp164
a(S'w'
I731
tp165
a(S'p1_vo'
I10
tp166
a(S'w'
I4
tp167
a(S'p1_tl'
I120
tp168
a(S'w'
I6
tp169
a(S'p2_vo'
I8
tp170
a(S'w'
I3
tp171
a(S'p2_tl'
I29
tp172
a(S'w'
I12
tp173
a(S'tr_ll'
I1
tp174
a(S'tr_th'
I1
tp175
a(S'tr_tl'
I83
tp176
a(S'w'
I707
tp177
a(S'p1_vo'
I9
tp178
a(S'w'
I5
tp179
a(S'p2_vo'
I7
tp180
a(S'w'
I728
tp181
a(S'p1_vo'
I8
tp182
a(S'w'
I5
tp183
a(S'p2_vo'
I6
tp184
a(S'w'
I729
tp185
a(S'p1_vo'
I7
tp186
a(S'w'
I734
tp187
a(S'p1_vo'
I6
tp188
a(S'w'
I5
tp189
a(S'p2_vo'
I5
tp190
a(S'w'
I729
tp191
a(S'p1_vo'
I5
tp192
a(S'w'
I5
tp193
a(S'p2_vo'
I4
tp194
a(S'w'
I733
tp195
a(S'p2_vo'
I3
tp196
a(S'w'
I730
tp197
a(S'p1_vo'
I4
tp198
a(S'w'
I4
tp199
a(S'p2_vo'
I2
tp200
a(S'w'
I731
tp201
a(S'p1_vo'
I10
tp202
a(S'w'
I4
tp203
a(S'p1_tl'
I127
tp204
a(S'w'
I6
tp205
a(S'p2_vo'
I8
tp206
a(S'w'
I3
tp207
a(S'p2_tl'
I64
tp208
a(S'w'
I719
tp209
a(S'p1_vo'
I9
tp210
a(S'w'
I5
tp211
a(S'p2_vo'
I7
tp212
a(S'w'
I729
tp213
a(S'p1_vo'
I8
tp214
a(S'w'
I5
tp215
a(S'p2_vo'
I6
tp216
a(S'w'
I729
tp217
a(S'p1_vo'
I7
tp218
a(S'w'
I733
tp219
a(S'p1_vo'
I6
tp220
a(S'w'
I5
tp221
a(S'p2_vo'
I5
tp222
a(S'w'
I729
tp223
a(S'p1_vo'
I5
tp224
a(S'w'
I5
tp225
a(S'p2_vo'
I4
tp226
a(S'w'
I733
tp227
a(S'p2_vo'
I3
tp228
a(S'w'
I730
tp229
a(S'p1_vo'
I4
tp230
a(S'w'
I5
tp231
a(S'p2_vo'
I2
tp232
a(S'w'
I731
tp233
a(S'p1_vo'
I10
tp234
a(S'w'
I4
tp235
a(S'p1_tl'
I142
tp236
a(S'w'
I6
tp237
a(S'p2_vo'
I8
tp238
a(S'w'
I3
tp239
a(S'p2_tl'
I83
tp240
a(S'w'
I12
tp241
a(S'tr_ll'
I1
tp242
a(S'tr_th'
I0
tp243
a(S'tr_tl'
I169
tp244
a(S'w'
I706
tp245
a(S'p1_vo'
I9
tp246
a(S'w'
I5
tp247
a(S'p2_vo'
I7
tp248
a(S'w'
I729
tp249
a(S'p1_vo'
I8
tp250
a(S'w'
I5
tp251
a(S'p2_vo'
I6
tp252
a(S'w'
I729
tp253
a(S'p1_vo'
I7
tp254
a(S'w'
I734
tp255
a(S'p1_vo'
I6
tp256
a(S'w'
I5
tp257
a(S'p2_vo'
I5
tp258
a(S'w'
I728
tp259
a(S'p1_vo'
I5
tp260
a(S'w'
I5
tp261
a(S'p2_vo'
I4
tp262
a(S'w'
I733
tp263
a(S'p2_vo'
I3
tp264
a(S'w'
I731
tp265
a(S'p1_vo'
I4
tp266
a(S'w'
I4
tp267
a(S'p2_vo'
I2
tp268
a(S'w'
I731
tp269
a(S'p1_vo'
I10
tp270
a(S'w'
I4
tp271
a(S'p1_tl'
I127
tp272
a(S'w'
I6
tp273
a(S'p2_vo'
I8
tp274
a(S'w'
I3
tp275
a(S'p2_tl'
I64
tp276
a(S'w'
I9
tp277
a(S'tr_lr'
I14
tp278
a(S'w'
I3
tp279
a(S'tr_ll'
I1
tp280
a(S'tr_th'
I1
tp281
a(S'tr_tl'
I125
tp282
a(S'w'
I707
tp283
a(S'p1_vo'
I9
tp284
a(S'w'
I5
tp285
a(S'p2_vo'
I7
tp286
a(S'w'
I728
tp287
a(S'p1_vo'
I8
tp288
a(S'w'
I5
tp289
a(S'p2_vo'
I6
tp290
a(S'w'
I729
tp291
a(S'p1_vo'
I7
tp292
a(S'w'
I734
tp293
a(S'p1_vo'
I6
tp294
a(S'w'
I5
tp295
a(S'p2_vo'
I5
tp296
a(S'w'
I729
tp297
a(S'p1_vo'
I5
tp298
a(S'w'
I5
tp299
a(S'p2_vo'
I4
tp300
a(S'w'
I733
tp301
a(S'p2_vo'
I3
tp302
a(S'w'
I729
tp303
a(S'p1_vo'
I4
tp304
a(S'w'
I5
tp305
a(S'p2_vo'
I2
tp306
a(S'w'
I731
tp307
a(S'p1_vo'
I10
tp308
a(S'p1_du'
I0
tp309
a(S'p1_vo'
I0
tp310
a(S'w'
I6
tp311
a(S'p2_vo'
I8
tp312
a(S'w'
I1
tp313
a(S'p2_du'
I0
tp314
a(S'p2_vo'
I0
tp315
a(S'w'
I6
tp316
a(S'tr_lr'
I0
tp317
a(S'w'
I5858
tp318
a(S'p1_du'
I2
tp319
a(S'p1_vo'
I10
tp320
a(S'w'
I4
tp321
a(S'w'
I6
tp322
a(S'p2_du'
I3
tp323
a(S'p2_vo'
I8
tp324
a(S'w'
I3
tp325
a(S'w'
I6
tp326
a(S'tr_lr'
I14
tp327
a(S'w'
I3
tp328
a(S'tr_ll'
I1
tp329
a(S'w'
I709
tp330
a(S'p1_vo'
I9
tp331
a(S'w'
I5
tp332
a(S'p2_vo'
I7
tp333
a(S'w'
I729
tp334
a(S'p1_vo'
I8
tp335
a(S'w'
I5
tp336
a(S'p2_vo'
I6
tp337
a(S'w'
I729
tp338
a(S'p1_vo'
I7
tp339
a(S'w'
I734
tp340
a(S'p1_vo'
I6
tp341
a(S'w'
I5
tp342
a(S'p2_vo'
I5
tp343
a(S'w'
I728
tp344
a(S'p1_vo'
I5
tp345
a(S'w'
I5
tp346
a(S'p2_vo'
I4
tp347
a(S'w'
I733
tp348
a(S'p2_vo'
I3
tp349
a(S'w'
I731
tp350
a(S'p1_vo'
I4
tp351
a(S'w'
I4
tp352
a(S'p2_vo'
I2
tp353
a(S'w'
I731
tp354
a(S'p1_vo'
I10
tp355
a(S'w'
I4
tp356
a(S'w'
I6
tp357
a(S'p2_vo'
I8
tp358
a(S'w'
I4
tp359
a(S'w'
I6
tp360
a(S'tr_lr'
I46
tp361
a(S'w'
I3
tp362
a(S'tr_ll'
I1
tp363
a(S'w'
I709
tp364
a(S'p1_vo'
I9
tp365
a(S'w'
I5
tp366
a(S'p2_vo'
I7
tp367
a(S'w'
I728
tp368
a(S'p1_vo'
I8
tp369
a(S'w'
I5
tp370
a(S'p2_vo'
I6
tp371
a(S'w'
I729
tp372
a(S'p1_vo'
I7
tp373
a(S'w'
I734
tp374
a(S'p1_vo'
I6
tp375
a(S'w'
I734
tp376
a(S'p1_vo'
I5
tp377
a(S'w'
I5140
tp378
a(S'p2_vo'
I5
tp379
a(S'w'
I734
tp380
a(S'p2_vo'
I4
tp381
a(S'w'
I734
tp382
a(S'p2_vo'
I3
tp383
a(S'w'
I730
tp384
a(S'p1_vo'
I4
tp385
a(S'w'
I5
tp386
a(S'p2_vo'
I2
tp387
a(S'w'
I731
tp388
a(S'p1_vo'
I10
tp389
a(S'w'
I4
tp390
a(S'p1_tl'
I142
tp391
a(S'w'
I6
tp392
a(S'p2_vo'
I8
tp393
a(S'w'
I3
tp394
a(S'p2_tl'
I83
tp395
a(S'w'
I9
tp396
a(S'tr_ll'
I1
tp397
a(S'tr_tl'
I171
tp398
a(S'w'
I709
tp399
a(S'p1_vo'
I9
tp400
a(S'w'
I5
tp401
a(S'p2_vo'
I7
tp402
a(S'w'
I729
tp403
a(S'p1_vo'
I8
tp404
a(S'w'
I5
tp405
a(S'p2_vo'
I6
tp406
a(S'w'
I729
tp407
a(S'p1_vo'
I7
tp408
a(S'w'
I734
tp409
a(S'p1_vo'
I6
tp410
a(S'w'
I5
tp411
a(S'p2_vo'
I5
tp412
a(S'w'
I728
tp413
a(S'p1_vo'
I5
tp414
a(S'w'
I5
tp415
a(S'p2_vo'
I4
tp416
a(S'w'
I733
tp417
a(S'p2_vo'
I3
tp418
a(S'w'
I731
tp419
a(S'p1_vo'
I4
tp420
a(S'w'
I4
tp421
a(S'p2_vo'
I2
tp422
a(S'w'
I731
tp423
a(S'p1_vo'
I10
tp424
a(S'w'
I4
tp425
a(S'p1_tl'
I160
tp426
a(S'w'
I6
tp427
a(S'p2_vo'
I8
tp428
a(S'w'
I3
tp429
a(S'p2_tl'
I125
tp430
a(S'w'
I719
tp431
a(S'p1_vo'
I9
tp432
a(S'w'
I5
tp433
a(S'p2_vo'
I7
tp434
a(S'w'
I728
tp435
a(S'p1_vo'
I8
tp436
a(S'w'
I5
tp437
a(S'p2_vo'
I6
tp438
a(S'w'
I729
tp439
a(S'p1_vo'
I7
tp440
a(S'w'
I734
tp441
a(S'p1_vo'
I6
tp442
a(S'w'
I5
tp443
a(S'p2_vo'
I5
tp444
a(S'w'
I729
tp445
a(S'p1_vo'
I5
tp446
a(S'w'
I5
tp447
a(S'p2_vo'
I4
tp448
a(S'w'
I733
tp449
a(S'p2_vo'
I3
tp450
a(S'w'
I729
tp451
a(S'p1_vo'
I4
tp452
a(S'w'
I5
tp453
a(S'p2_vo'
I2
tp454
a(S'w'
I731
tp455
a(S'p1_vo'
I10
tp456
a(S'w'
I4
tp457
a(S'p1_tl'
I169
tp458
a(S'w'
I6
tp459
a(S'p2_vo'
I8
tp460
a(S'w'
I3
tp461
a(S'p2_tl'
I171
tp462
a(S'w'
I9
tp463
a(S'tr_ll'
I1
tp464
a(S'w'
I710
tp465
a(S'p1_vo'
I9
tp466
a(S'w'
I5
tp467
a(S'p2_vo'
I7
tp468
a(S'w'
I729
tp469
a(S'p1_vo'
I8
tp470
a(S'w'
I5
tp471
a(S'p2_vo'
I6
tp472
a(S'w'
I729
tp473
a(S'p1_vo'
I7
tp474
a(S'w'
I733
tp475
a(S'p1_vo'
I6
tp476
a(S'w'
I5
tp477
a(S'p2_vo'
I5
tp478
a(S'w'
I729
tp479
a(S'p1_vo'
I5
tp480
a(S'w'
I5
tp481
a(S'p2_vo'
I4
tp482
a(S'w'
I733
tp483
a(S'p2_vo'
I3
tp484
a(S'w'
I730
tp485
a(S'p1_vo'
I4
tp486
a(S'w'
I5
tp487
a(S'p2_vo'
I2
tp488
a(S'w'
I731
tp489
a(S'p1_vo'
I10
tp490
a(S'w'
I4
tp491
a(S'p1_tl'
I160
tp492
a(S'w'
I6
tp493
a(S'p2_vo'
I8
tp494
a(S'w'
I3
tp495
a(S'p2_tl'
I125
tp496
a(S'w'
I9
tp497
a(S'tr_lr'
I14
tp498
a(S'w'
I2
tp499
a(S'tr_ll'
I1
tp500
a(S'tr_tl'
I224
tp501
a(S'w'
I707
tp502
a(S'p1_vo'
I9
tp503
a(S'w'
I5
tp504
a(S'p2_vo'
I7
tp505
a(S'w'
I729
tp506
a(S'p1_vo'
I8
tp507
a(S'w'
I5
tp508
a(S'p2_vo'
I6
tp509
a(S'w'
I729
tp510
a(S'p1_vo'
I7
tp511
a(S'w'
I734
tp512
a(S'p1_vo'
I6
tp513
a(S'w'
I5
tp514
a(S'p2_vo'
I5
tp515
a(S'w'
I728
tp516
a(S'p1_vo'
I5
tp517
a(S'w'
I5
tp518
a(S'p2_vo'
I4
tp519
a(S'w'
I733
tp520
a(S'p2_vo'
I3
tp521
a(S'w'
I731
tp522
a(S'p1_vo'
I4
tp523
a(S'w'
I4
tp524
a(S'p2_vo'
I2
tp525
a(S'w'
I731
tp526
a(S'p1_vo'
I10
tp527
a(S'p1_du'
I0
tp528
a(S'p1_vo'
I0
tp529
a(S'w'
I6
tp530
a(S'p2_vo'
I8
tp531
a(S'w'
I1
tp532
a(S'p2_du'
I0
tp533
a(S'p2_vo'
I0
tp534
a(S'w'
I6
tp535
a(S'tr_lr'
I0
tp536
a(S'w'
I5857
tp537
a(S'p1_du'
I2
tp538
a(S'p1_vo'
I10
tp539
a(S'w'
I4
tp540
a(S'w'
I6
tp541
a(S'p2_du'
I3
tp542
a(S'p2_vo'
I8
tp543
a(S'w'
I3
tp544
a(S'w'
I6
tp545
a(S'tr_lr'
I14
tp546
a(S'w'
I2
tp547
a(S'tr_ll'
I1
tp548
a(S'w'
I711
tp549
a(S'p1_vo'
I9
tp550
a(S'w'
I5
tp551
a(S'p2_vo'
I7
tp552
a(S'w'
I729
tp553
a(S'p1_vo'
I8
tp554
a(S'w'
I5
tp555
a(S'p2_vo'
I6
tp556
a(S'w'
I729
tp557
a(S'p1_vo'
I7
tp558
a(S'w'
I733
tp559
a(S'p1_vo'
I6
tp560
a(S'w'
I5
tp561
a(S'p2_vo'
I5
tp562
a(S'w'
I729
tp563
a(S'p1_vo'
I5
tp564
a(S'w'
I5
tp565
a(S'p2_vo'
I4
tp566
a(S'w'
I733
tp567
a(S'p2_vo'
I3
tp568
a(S'w'
I730
tp569
a(S'p1_vo'
I4
tp570
a(S'w'
I5
tp571
a(S'p2_vo'
I2
tp572
a(S'w'
I731
tp573
a(S'p1_vo'
I10
tp574
a(S'w'
I4
tp575
a(S'w'
I6
tp576
a(S'p2_vo'
I8
tp577
a(S'w'
I4
tp578
a(S'w'
I6
tp579
a(S'tr_lr'
I46
tp580
a(S'w'
I3
tp581
a(S'tr_ll'
I1
tp582
a(S'w'
I708
tp583
a(S'p1_vo'
I9
tp584
a(S'w'
I5
tp585
a(S'p2_vo'
I7
tp586
a(S'w'
I729
tp587
a(S'p1_vo'
I8
tp588
a(S'w'
I5
tp589
a(S'p2_vo'
I6
tp590
a(S'w'
I729
tp591
a(S'p1_vo'
I7
tp592
a(S'w'
I734
tp593
a(S'p1_vo'
I6
tp594
a(S'w'
I733
tp595
a(S'p1_vo'
I5
tp596
a(S'w'
I5141
tp597
a(S'p2_vo'
I5
tp598
a(S'w'
I734
tp599
a(S'p2_vo'
I4
tp600
a(S'w'
I734
tp601
a(S'p2_vo'
I3
tp602
a(S'w'
I729
tp603
a(S'p1_vo'
I4
tp604
a(S'w'
I5
tp605
a(S'p2_vo'
I2
tp606
a(S'w'
I731
tp607
a(S'p1_vo'
I10
tp608
a(S'w'
I4
tp609
a(S'p1_tl'
I190
tp610
a(S'w'
I8
tp611
a(S'p2_vo'
I8
tp612
a(S'w'
I4
tp613
a(S'p2_ll'
I1
tp614
a(S'p2_th'
I0
tp615
a(S'p2_tl'
I240
tp616
a(S'w'
I11
tp617
a(S'tr_ll'
I1
tp618
a(S'tr_tl'
I171
tp619
a(S'w'
I705
tp620
a(S'p1_vo'
I9
tp621
a(S'w'
I5
tp622
a(S'p2_vo'
I7
tp623
a(S'w'
I729
tp624
a(S'p1_vo'
I8
tp625
a(S'w'
I5
tp626
a(S'p2_vo'
I6
tp627
a(S'w'
I729
tp628
a(S'p1_vo'
I7
tp629
a(S'w'
I733
tp630
a(S'p1_vo'
I6
tp631
a(S'w'
I5
tp632
a(S'p2_vo'
I5
tp633
a(S'w'
I729
tp634
a(S'p1_vo'
I5
tp635
a(S'w'
I5
tp636
a(S'p2_vo'
I4
tp637
a(S'w'
I733
tp638
a(S'p2_vo'
I3
tp639
a(S'w'
I730
tp640
a(S'p1_vo'
I4
tp641
a(S'w'
I5
tp642
a(S'p2_vo'
I2
tp643
a(S'w'
I731
tp644
a(S'p1_vo'
I10
tp645
a(S'w'
I4
tp646
a(S'p1_tl'
I213
tp647
a(S'w'
I6
tp648
a(S'p2_vo'
I8
tp649
a(S'w'
I3
tp650
a(S'p2_tl'
I254
tp651
a(S'w'
I9
tp652
a(S'tr_ll'
I1
tp653
a(S'w'
I709
tp654
a(S'p1_vo'
I9
tp655
a(S'w'
I5
tp656
a(S'p2_vo'
I7
tp657
a(S'w'
I729
tp658
a(S'p1_vo'
I8
tp659
a(S'w'
I5
tp660
a(S'p2_vo'
I6
tp661
a(S'w'
I729
tp662
a(S'p1_vo'
I7
tp663
a(S'w'
I734
tp664
a(S'p1_vo'
I6
tp665
a(S'w'
I5
tp666
a(S'p2_vo'
I5
tp667
a(S'w'
I728
tp668
a(S'p1_vo'
I5
tp669
a(S'w'
I5
tp670
a(S'p2_vo'
I4
tp671
a(S'w'
I733
tp672
a(S'p2_vo'
I3
tp673
a(S'w'
I731
tp674
a(S'p1_vo'
I4
tp675
a(S'w'
I4
tp676
a(S'p2_vo'
I2
tp677
a(S'w'
I733
tp678
a(S'p1_vo'
I10
tp679
a(S'w'
I4
tp680
a(S'p1_tl'
I240
tp681
a(S'w'
I6
tp682
a(S'p2_vo'
I8
tp683
a(S'w'
I3
tp684
a(S'p2_ll'
I1
tp685
a(S'p2_th'
I1
tp686
a(S'w'
I1
tp687
a(S'p2_tl'
I29
tp688
a(S'w'
I716
tp689
a(S'p1_vo'
I9
tp690
a(S'w'
I5
tp691
a(S'p2_vo'
I7
tp692
a(S'w'
I728
tp693
a(S'p1_vo'
I8
tp694
a(S'w'
I5
tp695
a(S'p2_vo'
I6
tp696
a(S'w'
I729
tp697
a(S'p1_vo'
I7
tp698
a(S'w'
I734
tp699
a(S'p1_vo'
I6
tp700
a(S'w'
I5
tp701
a(S'p2_vo'
I5
tp702
a(S'w'
I729
tp703
a(S'p1_vo'
I5
tp704
a(S'w'
I5
tp705
a(S'p2_vo'
I4
tp706
a(S'w'
I733
tp707
a(S'p2_vo'
I3
tp708
a(S'w'
I729
tp709
a(S'p1_vo'
I4
tp710
a(S'w'
I5
tp711
a(S'p2_vo'
I2
tp712
a(S'w'
I732
tp713
a(S'p1_vo'
I10
tp714
a(S'w'
I4
tp715
a(S'p1_tl'
I254
tp716
a(S'w'
I7
tp717
a(S'p2_vo'
I8
tp718
a(S'w'
I4
tp719
a(S'p2_tl'
I64
tp720
a(S'w'
I9
tp721
a(S'tr_ll'
I1
tp722
a(S'tr_tl'
I64
tp723
a(S'w'
I707
tp724
a(S'p1_vo'
I9
tp725
a(S'w'
I5
tp726
a(S'p2_vo'
I7
tp727
a(S'w'
I729
tp728
a(S'p1_vo'
I8
tp729
a(S'w'
I5
tp730
a(S'p2_vo'
I6
tp731
a(S'w'
I729
tp732
a(S'p1_vo'
I7
tp733
a(S'w'
I733
tp734
a(S'p1_vo'
I6
tp735
a(S'w'
I734
tp736
a(S'p1_vo'
I5
tp737
a(S'w'
I8084
tp738
a(S'tr_ll'
I1
tp739
a(S'tr_tl'
I171
tp740
a(S'w'
I11743
tp741
a(S'tr_ll'
I1
tp742
a(S'tr_tl'
I252
tp743
a(S'w'
I5869
tp744
a(S'tr_ll'
I1
tp745
a(S'tr_th'
I2
tp746
a(S'tr_tl'
I128
tp747
a(S'w'
I2926
tp748
a(S'p2_vo'
I5
tp749
a(S'w'
I734
tp750
a(S'p2_vo'
I4
tp751
a(S'w'
I734
tp752
a(S'p2_vo'
I3
tp753
a(S'w'
I730
tp754
a(S'p1_vo'
I4
tp755
a(S'w'
I4
tp756
a(S'p2_vo'
I2
tp757
a(S'w'
I728
tp758
a(S'p1_du'
I0
tp759
a(S'p1_vo'
I0
tp760
a(S'w'
I4
tp761
a(S'p2_du'
I0
tp762
a(S'p2_vo'
I0
tp763
a(S'w'
I23480
tp764
a(S'tr_lr'
I0
tp765
a(S'w'
I16193
tp766
a.