(lp1
(S'clock'
p2
I1789772
tp3
a(S'fc_mo'
I1
tp4
a(S'p1_lh'
I1
tp5
a(S'p1_cv'
I1
tp6
a(S'p1_sp'
I3
tp7
a(S'p2_lh'
I1
tp8
a(S'p2_cv'
I1
tp9
a(S'p2_sp'
I3
tp10
a(S'w'
I5887
tp11
a(S'p2_du'
I1
tp12
a(S'p2_vo'
I5
tp13
a(S'w'
I6
tp14
a(S'p2_ll'
I1
tp15
a(S'w'
I3
tp16
a(S'p2_tl'
I160
tp17
a(S'w'
I8
tp18
a(S'tr_lh'
I1
tp19
a(S'tr_lr'
I16
tp20
a(S'w'
I4
tp21
a(S'tr_ll'
I1
tp22
a(S'tr_th'
I1
tp23
a(S'w'
I3
tp24
a(S'tr_tl'
I83
tp25
a(S'w'
I1446
tp26
a(S'tr_ll'
I1
tp27
a(S'w'
I2
tp28
a(S'tr_tl'
I64
tp29
a(S'w'
I2190
tp30
a(S'p2_vo'
I4
tp31
a(S'w'
I734
tp32
a(S'p2_vo'
I3
tp33
a(S'w'
I13
tp34
a(S'tr_ll'
I1
tp35
a(S'w'
I720
tp36
a(S'p2_vo'
I2
tp37
a(S'w'
I736
tp38
a(S'p2_vo'
I5
tp39
a(S'w'
I7
tp40
a(S'p2_tl'
I213
tp41
a(S'w'
I1469
tp42
a(S'tr_ll'
I1
tp43
a(S'w'
I2191
tp44
a(S'p2_vo'
I4
tp45
a(S'w'
I734
tp46
a(S'p2_vo'
I3
tp47
a(S'w'
I12
tp48
a(S'tr_ll'
I1
tp49
a(S'w'
I722
tp50
a(S'p2_vo'
I2
tp51
a(S'w'
I733
tp52
a(S'p1_du'
I1
tp53
a(S'p1_vo'
I2
tp54
a(S'w'
I5
tp55
a(S'p1_ll'
I1
tp56
a(S'w'
I3
tp57
a(S'p1_tl'
I161
tp58
a(S'w'
I8
tp59
a(S'p2_vo'
I5
tp60
a(S'w'
I7
tp61
a(S'p2_tl'
I142
tp62
a(S'w'
I10
tp63
a(S'w'
I5
tp64
a(S'tr_ll'
I1
tp65
a(S'w'
I2
tp66
a(S'w'
I3630
tp67
a(S'p2_vo'
I4
tp68
a(S'w'
I734
tp69
a(S'p2_vo'
I3
tp70
a(S'w'
I734
tp71
a(S'p2_vo'
I2
tp72
a(S'w'
I732
tp73
a(S'w'
I6
tp74
a(S'p1_tl'
I214
tp75
a(S'w'
I9
tp76
a(S'p2_vo'
I5
tp77
a(S'w'
I6
tp78
a(S'p2_tl'
I127
tp79
a(S'w'
I15
tp80
a(S'tr_ll'
I1
tp81
a(S'w'
I3635
tp82
a(S'p2_vo'
I4
tp83
a(S'w'
I734
tp84
a(S'p2_vo'
I3
tp85
a(S'w'
I733
tp86
a(S'p2_vo'
I2
tp87
a(S'w'
I738
tp88
a(S'p1_tl'
I143
tp89
a(S'w'
I9
tp90
a(S'p2_vo'
I5
tp91
a(S'w'
I6
tp92
a(S'p2_tl'
I160
tp93
a(S'w'
I15
tp94
a(S'tr_ll'
I1
tp95
a(S'w'
I3635
tp96
a(S'p2_vo'
I4
tp97
a(S'w'
I734
tp98
a(S'p2_vo'
I3
tp99
a(S'w'
I734
tp100
a(S'p2_vo'
I2
tp101
a(S'w'
I738
tp102
a(S'p1_tl'
I128
tp103
a(S'w'
I9
tp104
a(S'p2_vo'
I5
tp105
a(S'w'
I6
tp106
a(S'p2_tl'
I213
tp107
a(S'w'
I15
tp108
a(S'tr_ll'
I1
tp109
a(S'w'
I3634
tp110
a(S'p2_vo'
I4
tp111
a(S'w'
I734
tp112
a(S'p2_vo'
I3
tp113
a(S'w'
I734
tp114
a(S'p2_vo'
I2
tp115
a(S'w'
I738
tp116
a(S'p1_tl'
I161
tp117
a(S'w'
I9
tp118
a(S'p2_vo'
I5
tp119
a(S'w'
I6
tp120
a(S'p2_tl'
I120
tp121
a(S'w'
I15
tp122
a(S'tr_ll'
I1
tp123
a(S'w'
I3635
tp124
a(S'p2_vo'
I4
tp125
a(S'w'
I734
tp126
a(S'p2_vo'
I3
tp127
a(S'w'
I733
tp128
a(S'p2_vo'
I2
tp129
a(S'w'
I738
tp130
a(S'p1_tl'
I214
tp131
a(S'w'
I9
tp132
a(S'p2_vo'
I5
tp133
a(S'w'
I6
tp134
a(S'p2_tl'
I127
tp135
a(S'w'
I15
tp136
a(S'tr_ll'
I1
tp137
a(S'w'
I3635
tp138
a(S'p2_vo'
I4
tp139
a(S'w'
I734
tp140
a(S'p2_vo'
I3
tp141
a(S'w'
I734
tp142
a(S'p2_vo'
I2
tp143
a(S'w'
I738
tp144
a(S'p1_tl'
I121
tp145
a(S'w'
I9
tp146
a(S'p2_vo'
I5
tp147
a(S'w'
I6
tp148
a(S'p2_tl'
I142
tp149
a(S'w'
I15
tp150
a(S'tr_ll'
I1
tp151
a(S'w'
I3634
tp152
a(S'p2_vo'
I4
tp153
a(S'w'
I734
tp154
a(S'p2_vo'
I3
tp155
a(S'w'
I734
tp156
a(S'p2_vo'
I2
tp157
a(S'w'
I738
tp158
a(S'p1_tl'
I128
tp159
a(S'w'
I9
tp160
a(S'p2_vo'
I5
tp161
a(S'w'
I6
tp162
a(S'p2_tl'
I160
tp163
a(S'w'
I15
tp164
a(S'tr_ll'
I1
tp165
a(S'w'
I3635
tp166
a(S'p2_vo'
I4
tp167
a(S'w'
I734
tp168
a(S'p2_vo'
I3
tp169
a(S'w'
I733
tp170
a(S'p2_vo'
I2
tp171
a(S'w'
I738
tp172
a(S'p1_tl'
I143
tp173
a(S'w'
I9
tp174
a(S'p2_vo'
I5
tp175
a(S'w'
I6
tp176
a(S'p2_tl'
I142
tp177
a(S'w'
I15
tp178
a(S'tr_ll'
I1
tp179
a(S'w'
I3
tp180
a(S'tr_tl'
I171
tp181
a(S'w'
I3632
tp182
a(S'p2_vo'
I4
tp183
a(S'w'
I734
tp184
a(S'p2_vo'
I3
tp185
a(S'w'
I734
tp186
a(S'p2_vo'
I2
tp187
a(S'w'
I738
tp188
a(S'p1_tl'
I161
tp189
a(S'w'
I9
tp190
a(S'p2_vo'
I5
tp191
a(S'w'
I6
tp192
a(S'p2_tl'
I127
tp193
a(S'w'
I14
tp194
a(S'tr_ll'
I1
tp195
a(S'w'
I2
tp196
a(S'tr_tl'
I252
tp197
a(S'w'
I3633
tp198
a(S'p2_vo'
I4
tp199
a(S'w'
I734
tp200
a(S'p2_vo'
I3
tp201
a(S'w'
I734
tp202
a(S'p2_vo'
I2
tp203
a(S'w'
I738
tp204
a(S'p1_tl'
I143
tp205
a(S'w'
I11
tp206
a(S'p2_vo'
I5
tp207
a(S'w'
I7
tp208
a(S'p2_tl'
I160
tp209
a(S'w'
I12
tp210
a(S'tr_ll'
I1
tp211
a(S'tr_th'
I2
tp212
a(S'w'
I2
tp213
a(S'tr_tl'
I128
tp214
a(S'w'
I3633
tp215
a(S'p2_vo'
I4
tp216
a(S'w'
I734
tp217
a(S'p2_vo'
I3
tp218
a(S'w'
I733
tp219
a(S'p2_vo'
I2
tp220
a(S'w'
I738
tp221
a(S'p1_tl'
I128
tp222
a(S'w'
I9
tp223
a(S'p2_vo'
I5
tp224
a(S'w'
I6
tp225
a(S'p2_tl'
I213
tp226
a(S'w'
I12
tp227
a(S'tr_ll'
I1
tp228
a(S'w'
I3638
tp229
a(S'p2_vo'
I4
tp230
a(S'w'
I734
tp231
a(S'p2_vo'
I3
tp232
a(S'w'
I734
tp233
a(S'p2_vo'
I2
tp234
a(S'w'
I741
tp235
a(S'p1_tl'
I161
tp236
a(S'w'
I8
tp237
a(S'p2_vo'
I5
tp238
a(S'w'
I7
tp239
a(S'p2_tl'
I142
tp240
a(S'w'
I12
tp241
a(S'tr_ll'
I1
tp242
a(S'w'
I3634
tp243
a(S'p2_vo'
I4
tp244
a(S'w'
I734
tp245
a(S'p2_vo'
I3
tp246
a(S'w'
I734
tp247
a(S'p2_vo'
I2
tp248
a(S'w'
I738
tp249
a(S'p1_tl'
I214
tp250
a(S'w'
I9
tp251
a(S'p2_vo'
I5
tp252
a(S'w'
I6
tp253
a(S'p2_tl'
I127
tp254
a(S'w'
I12
tp255
a(S'tr_ll'
I1
tp256
a(S'w'
I3638
tp257
a(S'p2_vo'
I4
tp258
a(S'w'
I734
tp259
a(S'p2_vo'
I3
tp260
a(S'w'
I733
tp261
a(S'p2_vo'
I2
tp262
a(S'w'
I738
tp263
a(S'p1_tl'
I143
tp264
a(S'w'
I9
tp265
a(S'p2_vo'
I5
tp266
a(S'w'
I6
tp267
a(S'p2_tl'
I160
tp268
a(S'w'
I12
tp269
a(S'tr_ll'
I1
tp270
a(S'w'
I3638
tp271
a(S'p2_vo'
I4
tp272
a(S'w'
I734
tp273
a(S'p2_vo'
I3
tp274
a(S'w'
I734
tp275
a(S'p2_vo'
I2
tp276
a(S'w'
I738
tp277
a(S'p1_tl'
I128
tp278
a(S'w'
I9
tp279
a(S'p2_vo'
I5
tp280
a(S'w'
I6
tp281
a(S'p2_tl'
I213
tp282
a(S'w'
I12
tp283
a(S'tr_ll'
I1
tp284
a(S'w'
I3637
tp285
a(S'p2_vo'
I4
tp286
a(S'w'
I734
tp287
a(S'p2_vo'
I3
tp288
a(S'w'
I734
tp289
a(S'p2_vo'
I2
tp290
a(S'w'
I738
tp291
a(S'p1_tl'
I161
tp292
a(S'w'
I9
tp293
a(S'p2_vo'
I5
tp294
a(S'w'
I6
tp295
a(S'p2_tl'
I120
tp296
a(S'w'
I14
tp297
a(S'tr_ll'
I1
tp298
a(S'tr_th'
I1
tp299
a(S'w'
I2
tp300
a(S'tr_tl'
I252
tp301
a(S'w'
I3634
tp302
a(S'p2_vo'
I4
tp303
a(S'w'
I734
tp304
a(S'p2_vo'
I3
tp305
a(S'w'
I733
tp306
a(S'p2_vo'
I2
tp307
a(S'w'
I738
tp308
a(S'p1_tl'
I214
tp309
a(S'w'
I9
tp310
a(S'p2_vo'
I5
tp311
a(S'w'
I6
tp312
a(S'p2_tl'
I127
tp313
a(S'w'
I12
tp314
a(S'tr_ll'
I1
tp315
a(S'w'
I3638
tp316
a(S'p2_vo'
I4
tp317
a(S'w'
I734
tp318
a(S'p2_vo'
I3
tp319
a(S'w'
I734
tp320
a(S'p2_vo'
I2
tp321
a(S'w'
I738
tp322
a(S'p1_tl'
I121
tp323
a(S'w'
I9
tp324
a(S'p2_vo'
I5
tp325
a(S'w'
I6
tp326
a(S'p2_tl'
I142
tp327
a(S'w'
I12
tp328
a(S'tr_ll'
I1
tp329
a(S'w'
I3637
tp330
a(S'p2_vo'
I4
tp331
a(S'w'
I734
tp332
a(S'p2_vo'
I3
tp333
a(S'w'
I734
tp334
a(S'p2_vo'
I2
tp335
a(S'w'
I738
tp336
a(S'p1_tl'
I128
tp337
a(S'w'
I9
tp338
a(S'p2_vo'
I5
tp339
a(S'w'
I6
tp340
a(S'p2_tl'
I160
tp341
a(S'w'
I12
tp342
a(S'tr_ll'
I1
tp343
a(S'w'
I3638
tp344
a(S'p2_vo'
I4
tp345
a(S'w'
I734
tp346
a(S'p2_vo'
I3
tp347
a(S'w'
I733
tp348
a(S'p2_vo'
I2
tp349
a(S'w'
I738
tp350
a(S'p1_tl'
I143
tp351
a(S'w'
I9
tp352
a(S'p2_vo'
I5
tp353
a(S'w'
I6
tp354
a(S'p2_tl'
I142
tp355
a(S'w'
I15
tp356
a(S'tr_ll'
I1
tp357
a(S'w'
I2
tp358
a(S'tr_tl'
I171
tp359
a(S'w'
I3633
tp360
a(S'p2_vo'
I4
tp361
a(S'w'
I734
tp362
a(S'p2_vo'
I3
tp363
a(S'w'
I734
tp364
a(S'p2_vo'
I2
tp365
a(S'w'
I738
tp366
a(S'p1_tl'
I161
tp367
a(S'w'
I9
tp368
a(S'p2_vo'
I5
tp369
a(S'w'
I6
tp370
a(S'p2_tl'
I127
tp371
a(S'w'
I13
tp372
a(S'tr_ll'
I1
tp373
a(S'w'
I3636
tp374
a(S'p2_vo'
I4
tp375
a(S'w'
I734
tp376
a(S'p2_vo'
I3
tp377
a(S'w'
I734
tp378
a(S'p2_vo'
I2
tp379
a(S'w'
I738
tp380
a(S'p1_tl'
I143
tp381
a(S'w'
I11
tp382
a(S'p2_vo'
I5
tp383
a(S'w'
I7
tp384
a(S'p2_tl'
I160
tp385
a(S'w'
I14
tp386
a(S'tr_ll'
I1
tp387
a(S'w'
I2
tp388
a(S'tr_tl'
I224
tp389
a(S'w'
I3631
tp390
a(S'p2_vo'
I4
tp391
a(S'w'
I734
tp392
a(S'p2_vo'
I3
tp393
a(S'w'
I733
tp394
a(S'p2_vo'
I2
tp395
a(S'w'
I738
tp396
a(S'p1_tl'
I128
tp397
a(S'w'
I9
tp398
a(S'p2_vo'
I5
tp399
a(S'w'
I6
tp400
a(S'p2_tl'
I213
tp401
a(S'w'
I15
tp402
a(S'tr_ll'
I1
tp403
a(S'w'
I3635
tp404
a(S'p2_vo'
I4
tp405
a(S'w'
I734
tp406
a(S'p2_vo'
I3
tp407
a(S'w'
I734
tp408
a(S'p2_vo'
I2
tp409
a(S'w'
I741
tp410
a(S'p1_tl'
I161
tp411
a(S'w'
I8
tp412
a(S'p2_vo'
I5
tp413
a(S'w'
I7
tp414
a(S'p2_tl'
I142
tp415
a(S'w'
I15
tp416
a(S'tr_ll'
I1
tp417
a(S'w'
I3631
tp418
a(S'p2_vo'
I4
tp419
a(S'w'
I734
tp420
a(S'p2_vo'
I3
tp421
a(S'w'
I734
tp422
a(S'p2_vo'
I2
tp423
a(S'w'
I738
tp424
a(S'p1_tl'
I214
tp425
a(S'w'
I9
tp426
a(S'p2_vo'
I5
tp427
a(S'w'
I6
tp428
a(S'p2_tl'
I127
tp429
a(S'w'
I15
tp430
a(S'tr_ll'
I1
tp431
a(S'w'
I3635
tp432
a(S'p2_vo'
I4
tp433
a(S'w'
I734
tp434
a(S'p2_vo'
I3
tp435
a(S'w'
I733
tp436
a(S'p2_vo'
I2
tp437
a(S'w'
I738
tp438
a(S'p1_tl'
I143
tp439
a(S'w'
I9
tp440
a(S'p2_vo'
I5
tp441
a(S'w'
I6
tp442
a(S'p2_tl'
I160
tp443
a(S'w'
I15
tp444
a(S'tr_ll'
I1
tp445
a(S'w'
I3635
tp446
a(S'p2_vo'
I4
tp447
a(S'w'
I734
tp448
a(S'p2_vo'
I3
tp449
a(S'w'
I734
tp450
a(S'p2_vo'
I2
tp451
a(S'w'
I738
tp452
a(S'p1_tl'
I128
tp453
a(S'w'
I9
tp454
a(S'p2_vo'
I5
tp455
a(S'w'
I6
tp456
a(S'p2_tl'
I213
tp457
a(S'w'
I15
tp458
a(S'tr_ll'
I1
tp459
a(S'w'
I3634
tp460
a(S'p2_vo'
I4
tp461
a(S'w'
I734
tp462
a(S'p2_vo'
I3
tp463
a(S'w'
I734
tp464
a(S'p2_vo'
I2
tp465
a(S'w'
I738
tp466
a(S'p1_tl'
I161
tp467
a(S'w'
I9
tp468
a(S'p2_vo'
I5
tp469
a(S'w'
I6
tp470
a(S'p2_tl'
I120
tp471
a(S'w'
I15
tp472
a(S'tr_ll'
I1
tp473
a(S'w'
I3635
tp474
a(S'p2_vo'
I4
tp475
a(S'w'
I734
tp476
a(S'p2_vo'
I3
tp477
a(S'w'
I733
tp478
a(S'p2_vo'
I2
tp479
a(S'w'
I738
tp480
a(S'p1_tl'
I214
tp481
a(S'w'
I9
tp482
a(S'p2_vo'
I5
tp483
a(S'w'
I6
tp484
a(S'p2_tl'
I127
tp485
a(S'w'
I15
tp486
a(S'tr_ll'
I1
tp487
a(S'w'
I3635
tp488
a(S'p2_vo'
I4
tp489
a(S'w'
I734
tp490
a(S'p2_vo'
I3
tp491
a(S'w'
I734
tp492
a(S'p2_vo'
I2
tp493
a(S'w'
I738
tp494
a(S'p1_tl'
I121
tp495
a(S'w'
I9
tp496
a(S'p2_vo'
I5
tp497
a(S'w'
I6
tp498
a(S'p2_tl'
I142
tp499
a(S'w'
I15
tp500
a(S'tr_ll'
I1
tp501
a(S'w'
I3634
tp502
a(S'p2_vo'
I4
tp503
a(S'w'
I734
tp504
a(S'p2_vo'
I3
tp505
a(S'w'
I734
tp506
a(S'p2_vo'
I2
tp507
a(S'w'
I738
tp508
a(S'p1_tl'
I128
tp509
a(S'w'
I9
tp510
a(S'p2_vo'
I5
tp511
a(S'w'
I6
tp512
a(S'p2_tl'
I160
tp513
a(S'w'
I15
tp514
a(S'tr_ll'
I1
tp515
a(S'w'
I3635
tp516
a(S'p2_vo'
I4
tp517
a(S'w'
I734
tp518
a(S'p2_vo'
I3
tp519
a(S'w'
I733
tp520
a(S'p2_vo'
I2
tp521
a(S'w'
I738
tp522
a(S'p1_tl'
I143
tp523
a(S'w'
I9
tp524
a(S'p2_vo'
I5
tp525
a(S'w'
I6
tp526
a(S'p2_tl'
I142
tp527
a(S'w'
I17
tp528
a(S'tr_ll'
I1
tp529
a(S'w'
I3
tp530
a(S'tr_tl'
I125
tp531
a(S'w'
I3630
tp532
a(S'p2_vo'
I4
tp533
a(S'w'
I734
tp534
a(S'p2_vo'
I3
tp535
a(S'w'
I734
tp536
a(S'p2_vo'
I2
tp537
a(S'w'
I738
tp538
a(S'p1_tl'
I161
tp539
a(S'w'
I9
tp540
a(S'p2_vo'
I5
tp541
a(S'w'
I6
tp542
a(S'p2_tl'
I127
tp543
a(S'w'
I13
tp544
a(S'tr_ll'
I1
tp545
a(S'w'
I2
tp546
a(S'tr_tl'
I64
tp547
a(S'w'
I3634
tp548
a(S'p2_vo'
I4
tp549
a(S'w'
I734
tp550
a(S'p2_vo'
I3
tp551
a(S'w'
I734
tp552
a(S'p2_vo'
I2
tp553
a(S'w'
I738
tp554
a(S'p1_tl'
I143
tp555
a(S'w'
I11
tp556
a(S'p2_vo'
I5
tp557
a(S'w'
I7
tp558
a(S'p2_tl'
I160
tp559
a(S'w'
I12
tp560
a(S'tr_ll'
I1
tp561
a(S'w'
I3
tp562
a(S'tr_tl'
I83
tp563
a(S'w'
I3632
tp564
a(S'p2_vo'
I4
tp565
a(S'w'
I734
tp566
a(S'p2_vo'
I3
tp567
a(S'w'
I733
tp568
a(S'p2_vo'
I2
tp569
a(S'w'
I738
tp570
a(S'p1_tl'
I128
tp571
a(S'w'
I9
tp572
a(S'p2_vo'
I5
tp573
a(S'w'
I6
tp574
a(S'p2_tl'
I213
tp575
a(S'w'
I13
tp576
a(S'tr_ll'
I1
tp577
a(S'w'
I3637
tp578
a(S'p2_vo'
I4
tp579
a(S'w'
I734
tp580
a(S'p2_vo'
I3
tp581
a(S'w'
I734
tp582
a(S'p2_vo'
I2
tp583
a(S'w'
I741
tp584
a(S'p1_tl'
I161
tp585
a(S'w'
I8
tp586
a(S'p2_vo'
I5
tp587
a(S'w'
I7
tp588
a(S'p2_tl'
I142
tp589
a(S'w'
I12
tp590
a(S'tr_ll'
I1
tp591
a(S'w'
I3634
tp592
a(S'p2_vo'
I4
tp593
a(S'w'
I734
tp594
a(S'p2_vo'
I3
tp595
a(S'w'
I734
tp596
a(S'p2_vo'
I2
tp597
a(S'w'
I738
tp598
a(S'p1_tl'
I214
tp599
a(S'w'
I9
tp600
a(S'p2_vo'
I5
tp601
a(S'w'
I6
tp602
a(S'p2_tl'
I127
tp603
a(S'w'
I13
tp604
a(S'tr_ll'
I1
tp605
a(S'w'
I3637
tp606
a(S'p2_vo'
I4
tp607
a(S'w'
I734
tp608
a(S'p2_vo'
I3
tp609
a(S'w'
I733
tp610
a(S'p2_vo'
I2
tp611
a(S'w'
I738
tp612
a(S'p1_tl'
I143
tp613
a(S'w'
I9
tp614
a(S'p2_vo'
I5
tp615
a(S'w'
I6
tp616
a(S'p2_tl'
I160
tp617
a(S'w'
I13
tp618
a(S'tr_ll'
I1
tp619
a(S'w'
I2
tp620
a(S'tr_tl'
I171
tp621
a(S'w'
I3635
tp622
a(S'p2_vo'
I4
tp623
a(S'w'
I734
tp624
a(S'p2_vo'
I3
tp625
a(S'w'
I734
tp626
a(S'p2_vo'
I2
tp627
a(S'w'
I738
tp628
a(S'p1_tl'
I128
tp629
a(S'w'
I9
tp630
a(S'p2_vo'
I5
tp631
a(S'w'
I6
tp632
a(S'p2_tl'
I213
tp633
a(S'w'
I13
tp634
a(S'tr_ll'
I1
tp635
a(S'w'
I3636
tp636
a(S'p2_vo'
I4
tp637
a(S'w'
I734
tp638
a(S'p2_vo'
I3
tp639
a(S'w'
I734
tp640
a(S'p2_vo'
I2
tp641
a(S'w'
I738
tp642
a(S'p1_tl'
I161
tp643
a(S'w'
I11
tp644
a(S'p2_vo'
I5
tp645
a(S'w'
I6
tp646
a(S'p2_tl'
I240
tp647
a(S'w'
I14
tp648
a(S'tr_ll'
I1
tp649
a(S'w'
I2
tp650
a(S'tr_tl'
I224
tp651
a(S'w'
I3632
tp652
a(S'p2_vo'
I4
tp653
a(S'w'
I734
tp654
a(S'p2_vo'
I3
tp655
a(S'w'
I733
tp656
a(S'p2_vo'
I2
tp657
a(S'w'
I738
tp658
a(S'p1_tl'
I214
tp659
a(S'w'
I11
tp660
a(S'p2_vo'
I5
tp661
a(S'w'
I6
tp662
a(S'p2_tl'
I213
tp663
a(S'w'
I15
tp664
a(S'tr_ll'
I1
tp665
a(S'w'
I2
tp666
a(S'tr_tl'
I171
tp667
a(S'w'
I3631
tp668
a(S'p2_vo'
I4
tp669
a(S'w'
I734
tp670
a(S'p2_vo'
I3
tp671
a(S'w'
I734
tp672
a(S'p2_vo'
I2
tp673
a(S'w'
I740
tp674
a(S'p1_tl'
I241
tp675
a(S'w'
I8
tp676
a(S'p2_vo'
I5
tp677
a(S'w'
I7
tp678
a(S'p2_tl'
I190
tp679
a(S'w'
I12
tp680
a(S'tr_ll'
I1
tp681
a(S'w'
I3
tp682
a(S'tr_tl'
I125
tp683
a(S'w'
I3632
tp684
a(S'p2_vo'
I4
tp685
a(S'w'
I734
tp686
a(S'p2_vo'
I3
tp687
a(S'w'
I734
tp688
a(S'p2_vo'
I2
tp689
a(S'w'
I740
tp690
a(S'p1_tl'
I214
tp691
a(S'w'
I9
tp692
a(S'p2_vo'
I5
tp693
a(S'w'
I6
tp694
a(S'p2_tl'
I169
tp695
a(S'w'
I13
tp696
a(S'tr_ll'
I1
tp697
a(S'w'
I2
tp698
a(S'tr_tl'
I83
tp699
a(S'w'
I3633
tp700
a(S'p2_vo'
I4
tp701
a(S'w'
I734
tp702
a(S'p2_vo'
I3
tp703
a(S'w'
I733
tp704
a(S'p2_vo'
I2
tp705
a(S'w'
I738
tp706
a(S'p1_tl'
I191
tp707
a(S'w'
I9
tp708
a(S'p2_vo'
I5
tp709
a(S'w'
I6
tp710
a(S'p2_tl'
I160
tp711
a(S'w'
I13
tp712
a(S'tr_ll'
I1
tp713
a(S'w'
I2
tp714
a(S'tr_tl'
I64
tp715
a(S'w'
I3635
tp716
a(S'p2_vo'
I4
tp717
a(S'w'
I734
tp718
a(S'p2_vo'
I3
tp719
a(S'w'
I734
tp720
a(S'p2_vo'
I2
tp721
a(S'w'
I738
tp722
a(S'p1_tl'
I170
tp723
a(S'w'
I9
tp724
a(S'p2_vo'
I5
tp725
a(S'w'
I6
tp726
a(S'p2_tl'
I142
tp727
a(S'w'
I13
tp728
a(S'tr_ll'
I1
tp729
a(S'w'
I2
tp730
a(S'tr_tl'
I29
tp731
a(S'w'
I3634
tp732
a(S'p2_vo'
I4
tp733
a(S'w'
I734
tp734
a(S'p2_vo'
I3
tp735
a(S'w'
I734
tp736
a(S'p2_vo'
I2
tp737
a(S'w'
I738
tp738
a(S'p1_tl'
I161
tp739
a(S'w'
I11
tp740
a(S'p2_vo'
I5
tp741
a(S'w'
I7
tp742
a(S'p2_tl'
I160
tp743
a(S'w'
I16
tp744
a(S'tr_ll'
I1
tp745
a(S'w'
I2
tp746
a(S'tr_tl'
I83
tp747
a(S'w'
I1437
tp748
a(S'tr_ll'
I1
tp749
a(S'w'
I2
tp750
a(S'tr_tl'
I64
tp751
a(S'w'
I2190
tp752
a(S'p2_vo'
I4
tp753
a(S'w'
I734
tp754
a(S'p2_vo'
I3
tp755
a(S'w'
I13
tp756
a(S'tr_ll'
I1
tp757
a(S'w'
I720
tp758
a(S'p2_vo'
I2
tp759
a(S'w'
I738
tp760
a(S'p1_tl'
I143
tp761
a(S'w'
I9
tp762
a(S'p2_vo'
I5
tp763
a(S'w'
I6
tp764
a(S'p2_tl'
I213
tp765
a(S'w'
I1459
tp766
a(S'tr_ll'
I1
tp767
a(S'w'
I2191
tp768
a(S'p2_vo'
I4
tp769
a(S'w'
I734
tp770
a(S'p2_vo'
I3
tp771
a(S'w'
I12
tp772
a(S'tr_ll'
I1
tp773
a(S'w'
I722
tp774
a(S'p2_vo'
I2
tp775
a(S'w'
I741
tp776
a.