(lp1
(S'clock'
p2
I1789772
tp3
a(S'fc_mo'
I1
tp4
a(S'p1_lh'
I1
tp5
a(S'p1_cv'
I1
tp6
a(S'p1_sp'
I3
tp7
a(S'p2_lh'
I1
tp8
a(S'p2_cv'
I1
tp9
a(S'p2_sp'
I3
tp10
a(S'w'
I8814
tp11
a(S'p1_du'
I3
tp12
a(S'p1_vo'
I7
tp13
a(S'w'
I5
tp14
a(S'p1_ll'
I1
tp15
a(S'w'
I2
tp16
a(S'p1_tl'
I241
tp17
a(S'w'
I9
tp18
a(S'p2_du'
I3
tp19
a(S'p2_vo'
I6
tp20
a(S'w'
I5
tp21
a(S'p2_ll'
I1
tp22
a(S'p2_th'
I1
tp23
a(S'w'
I2
tp24
a(S'p2_tl'
I64
tp25
a(S'w'
I13
tp26
a(S'no_lh'
I1
tp27
a(S'no_cv'
I1
tp28
a(S'w'
I1
tp29
a(S'w'
I5
tp30
a(S'tr_lr'
I32
tp31
a(S'w'
I5
tp32
a(S'tr_ll'
I1
tp33
a(S'w'
I2
tp34
a(S'tr_tl'
I240
tp35
a(S'w'
I9
tp36
a(S'no_vo'
I7
tp37
a(S'w'
I3
tp38
a(S'no_ll'
I1
tp39
a(S'w'
I2
tp40
a(S'no_np'
I6
tp41
a(S'w'
I669
tp42
a(S'p1_vo'
I6
tp43
a(S'w'
I7
tp44
a(S'p2_vo'
I5
tp45
a(S'w'
I727
tp46
a(S'p1_vo'
I5
tp47
a(S'w'
I7
tp48
a(S'p2_vo'
I4
tp49
a(S'w'
I726
tp50
a(S'p1_vo'
I4
tp51
a(S'w'
I7
tp52
a(S'p2_vo'
I3
tp53
a(S'w'
I9
tp54
a(S'no_vo'
I2
tp55
a(S'w'
I3
tp56
a(S'w'
I715
tp57
a(S'p1_vo'
I3
tp58
a(S'w'
I7
tp59
a(S'p2_vo'
I2
tp60
a(S'w'
I727
tp61
a(S'p1_vo'
I2
tp62
a(S'w'
I745
tp63
a(S'no_vo'
I1
tp64
a(S'w'
I3
tp65
a(S'no_np'
I1
tp66
a(S'w'
I2197
tp67
a(S'no_vo'
I0
tp68
a(S'w'
I2194
tp69
a(S'p1_vo'
I7
tp70
a(S'w'
I6
tp71
a(S'w'
I8
tp72
a(S'p2_vo'
I6
tp73
a(S'w'
I6
tp74
a(S'w'
I19
tp75
a(S'tr_lr'
I0
tp76
a(S'w'
I9
tp77
a(S'no_vo'
I8
tp78
a(S'w'
I3
tp79
a(S'no_ll'
I1
tp80
a(S'w'
I2
tp81
a(S'no_np'
I3
tp82
a(S'w'
I678
tp83
a(S'p1_vo'
I6
tp84
a(S'w'
I7
tp85
a(S'p2_vo'
I5
tp86
a(S'w'
I8
tp87
a(S'no_vo'
I3
tp88
a(S'w'
I4
tp89
a(S'no_np'
I1
tp90
a(S'w'
I715
tp91
a(S'p1_vo'
I5
tp92
a(S'w'
I7
tp93
a(S'p2_vo'
I4
tp94
a(S'w'
I9
tp95
a(S'no_vo'
I1
tp96
a(S'w'
I3
tp97
a(S'w'
I715
tp98
a(S'p1_vo'
I4
tp99
a(S'w'
I7
tp100
a(S'p2_vo'
I3
tp101
a(S'w'
I8
tp102
a(S'no_vo'
I0
tp103
a(S'w'
I719
tp104
a(S'p1_vo'
I3
tp105
a(S'w'
I7
tp106
a(S'p2_vo'
I2
tp107
a(S'w'
I726
tp108
a(S'p1_vo'
I2
tp109
a(S'w'
I5139
tp110
a(S'p1_vo'
I7
tp111
a(S'w'
I6
tp112
a(S'w'
I8
tp113
a(S'p2_vo'
I6
tp114
a(S'w'
I6
tp115
a(S'w'
I21
tp116
a(S'tr_lr'
I32
tp117
a(S'w'
I6
tp118
a(S'tr_ll'
I1
tp119
a(S'w'
I2
tp120
a(S'tr_tl'
I120
tp121
a(S'w'
I9
tp122
a(S'no_vo'
I8
tp123
a(S'w'
I3
tp124
a(S'no_ll'
I1
tp125
a(S'w'
I2
tp126
a(S'no_np'
I3
tp127
a(S'w'
I669
tp128
a(S'p1_vo'
I6
tp129
a(S'w'
I7
tp130
a(S'p2_vo'
I5
tp131
a(S'w'
I8
tp132
a(S'no_vo'
I3
tp133
a(S'w'
I4
tp134
a(S'no_np'
I1
tp135
a(S'w'
I715
tp136
a(S'p1_vo'
I5
tp137
a(S'w'
I7
tp138
a(S'p2_vo'
I4
tp139
a(S'w'
I9
tp140
a(S'no_vo'
I1
tp141
a(S'w'
I3
tp142
a(S'w'
I714
tp143
a(S'p1_vo'
I4
tp144
a(S'w'
I7
tp145
a(S'p2_vo'
I3
tp146
a(S'w'
I8
tp147
a(S'no_vo'
I0
tp148
a(S'w'
I719
tp149
a(S'p1_vo'
I3
tp150
a(S'w'
I7
tp151
a(S'p2_vo'
I2
tp152
a(S'w'
I727
tp153
a(S'p1_vo'
I2
tp154
a(S'w'
I5139
tp155
a(S'p1_vo'
I7
tp156
a(S'w'
I6
tp157
a(S'p1_tl'
I255
tp158
a(S'w'
I9
tp159
a(S'p2_vo'
I6
tp160
a(S'w'
I6
tp161
a(S'w'
I26
tp162
a(S'tr_ll'
I1
tp163
a(S'w'
I2
tp164
a(S'tr_tl'
I240
tp165
a(S'w'
I9
tp166
a(S'no_vo'
I7
tp167
a(S'w'
I3
tp168
a(S'no_ll'
I1
tp169
a(S'w'
I2
tp170
a(S'no_np'
I6
tp171
a(S'w'
I668
tp172
a(S'p1_vo'
I6
tp173
a(S'w'
I7
tp174
a(S'p2_vo'
I5
tp175
a(S'w'
I727
tp176
a(S'p1_vo'
I5
tp177
a(S'w'
I7
tp178
a(S'p2_vo'
I4
tp179
a(S'w'
I727
tp180
a(S'p1_vo'
I4
tp181
a(S'w'
I7
tp182
a(S'p2_vo'
I3
tp183
a(S'w'
I9
tp184
a(S'no_vo'
I2
tp185
a(S'w'
I3
tp186
a(S'w'
I715
tp187
a(S'p1_vo'
I3
tp188
a(S'w'
I7
tp189
a(S'p2_vo'
I2
tp190
a(S'w'
I726
tp191
a(S'p1_vo'
I2
tp192
a(S'w'
I745
tp193
a(S'no_vo'
I1
tp194
a(S'w'
I3
tp195
a(S'no_np'
I1
tp196
a(S'w'
I2198
tp197
a(S'no_vo'
I0
tp198
a(S'w'
I2218
tp199
a(S'tr_ll'
I1
tp200
a(S'tr_th'
I1
tp201
a(S'w'
I3
tp202
a(S'tr_tl'
I64
tp203
a(S'w'
I8
tp204
a(S'no_vo'
I7
tp205
a(S'w'
I4
tp206
a(S'no_ll'
I1
tp207
a(S'w'
I2
tp208
a(S'no_np'
I6
tp209
a(S'w'
I2168
tp210
a(S'no_vo'
I2
tp211
a(S'w'
I3
tp212
a(S'w'
I2199
tp213
a(S'no_vo'
I1
tp214
a(S'w'
I3
tp215
a(S'no_np'
I1
tp216
a(S'w'
I2197
tp217
a(S'no_vo'
I0
tp218
a(S'w'
I2194
tp219
a(S'p1_vo'
I7
tp220
a(S'w'
I5
tp221
a(S'p1_ll'
I1
tp222
a(S'p1_th'
I1
tp223
a(S'w'
I2
tp224
a(S'p1_tl'
I172
tp225
a(S'w'
I11
tp226
a(S'p2_vo'
I6
tp227
a(S'w'
I6
tp228
a(S'p2_tl'
I171
tp229
a(S'w'
I19
tp230
a(S'tr_lr'
I0
tp231
a(S'w'
I9
tp232
a(S'no_vo'
I8
tp233
a(S'w'
I3
tp234
a(S'no_ll'
I1
tp235
a(S'w'
I2
tp236
a(S'no_np'
I3
tp237
a(S'w'
I674
tp238
a(S'p1_vo'
I6
tp239
a(S'w'
I7
tp240
a(S'p2_vo'
I5
tp241
a(S'w'
I8
tp242
a(S'no_vo'
I3
tp243
a(S'w'
I4
tp244
a(S'no_np'
I1
tp245
a(S'w'
I715
tp246
a(S'p1_vo'
I5
tp247
a(S'w'
I7
tp248
a(S'p2_vo'
I4
tp249
a(S'w'
I9
tp250
a(S'no_vo'
I1
tp251
a(S'w'
I3
tp252
a(S'w'
I715
tp253
a(S'p1_vo'
I4
tp254
a(S'w'
I7
tp255
a(S'p2_vo'
I3
tp256
a(S'w'
I8
tp257
a(S'no_vo'
I0
tp258
a(S'w'
I719
tp259
a(S'p1_vo'
I3
tp260
a(S'w'
I7
tp261
a(S'p2_vo'
I2
tp262
a(S'w'
I726
tp263
a(S'p1_vo'
I2
tp264
a(S'w'
I5139
tp265
a(S'p1_vo'
I7
tp266
a(S'w'
I6
tp267
a(S'p1_tl'
I65
tp268
a(S'w'
I8
tp269
a(S'p2_vo'
I6
tp270
a(S'w'
I6
tp271
a(S'p2_tl'
I64
tp272
a(S'w'
I21
tp273
a(S'tr_lr'
I32
tp274
a(S'w'
I6
tp275
a(S'tr_ll'
I1
tp276
a(S'tr_th'
I0
tp277
a(S'w'
I2
tp278
a(S'tr_tl'
I160
tp279
a(S'w'
I9
tp280
a(S'no_vo'
I8
tp281
a(S'w'
I3
tp282
a(S'no_ll'
I1
tp283
a(S'w'
I2
tp284
a(S'no_np'
I3
tp285
a(S'w'
I669
tp286
a(S'p1_vo'
I6
tp287
a(S'w'
I7
tp288
a(S'p2_vo'
I5
tp289
a(S'w'
I8
tp290
a(S'no_vo'
I3
tp291
a(S'w'
I4
tp292
a(S'no_np'
I1
tp293
a(S'w'
I715
tp294
a(S'p1_vo'
I5
tp295
a(S'w'
I7
tp296
a(S'p2_vo'
I4
tp297
a(S'w'
I9
tp298
a(S'no_vo'
I1
tp299
a(S'w'
I3
tp300
a(S'w'
I714
tp301
a(S'p1_vo'
I4
tp302
a(S'w'
I7
tp303
a(S'p2_vo'
I3
tp304
a(S'w'
I8
tp305
a(S'no_vo'
I0
tp306
a(S'w'
I719
tp307
a(S'p1_vo'
I3
tp308
a(S'w'
I7
tp309
a(S'p2_vo'
I2
tp310
a(S'w'
I727
tp311
a(S'p1_vo'
I2
tp312
a(S'w'
I5139
tp313
a(S'p1_vo'
I7
tp314
a(S'w'
I5
tp315
a(S'p1_ll'
I1
tp316
a(S'p1_th'
I0
tp317
a(S'w'
I2
tp318
a(S'p1_tl'
I255
tp319
a(S'w'
I9
tp320
a(S'p2_vo'
I6
tp321
a(S'w'
I5
tp322
a(S'p2_ll'
I1
tp323
a(S'p2_th'
I0
tp324
a(S'w'
I2
tp325
a(S'p2_tl'
I254
tp326
a(S'w'
I26
tp327
a(S'tr_ll'
I1
tp328
a(S'tr_th'
I1
tp329
a(S'w'
I2
tp330
a(S'tr_tl'
I64
tp331
a(S'w'
I9
tp332
a(S'no_vo'
I7
tp333
a(S'w'
I3
tp334
a(S'no_ll'
I1
tp335
a(S'w'
I2
tp336
a(S'no_np'
I6
tp337
a(S'w'
I666
tp338
a(S'p1_vo'
I6
tp339
a(S'w'
I7
tp340
a(S'p2_vo'
I5
tp341
a(S'w'
I727
tp342
a(S'p1_vo'
I5
tp343
a(S'w'
I7
tp344
a(S'p2_vo'
I4
tp345
a(S'w'
I727
tp346
a(S'p1_vo'
I4
tp347
a(S'w'
I7
tp348
a(S'p2_vo'
I3
tp349
a(S'w'
I9
tp350
a(S'no_vo'
I2
tp351
a(S'w'
I3
tp352
a(S'w'
I715
tp353
a(S'p1_vo'
I3
tp354
a(S'w'
I7
tp355
a(S'p2_vo'
I2
tp356
a(S'w'
I726
tp357
a(S'p1_vo'
I2
tp358
a(S'w'
I745
tp359
a(S'no_vo'
I1
tp360
a(S'w'
I3
tp361
a(S'no_np'
I1
tp362
a(S'w'
I2198
tp363
a(S'no_vo'
I0
tp364
a(S'w'
I2193
tp365
a(S'p1_vo'
I7
tp366
a(S'w'
I5
tp367
a(S'p1_ll'
I1
tp368
a(S'p1_th'
I1
tp369
a(S'w'
I2
tp370
a(S'p1_tl'
I30
tp371
a(S'w'
I11
tp372
a(S'p2_vo'
I6
tp373
a(S'w'
I5
tp374
a(S'p2_ll'
I1
tp375
a(S'p2_th'
I1
tp376
a(S'w'
I2
tp377
a(S'p2_tl'
I103
tp378
a(S'w'
I24
tp379
a(S'tr_ll'
I1
tp380
a(S'w'
I2
tp381
a(S'tr_tl'
I103
tp382
a(S'w'
I9
tp383
a(S'no_vo'
I7
tp384
a(S'w'
I3
tp385
a(S'no_ll'
I1
tp386
a(S'w'
I2
tp387
a(S'no_np'
I6
tp388
a(S'w'
I667
tp389
a(S'p1_vo'
I6
tp390
a(S'w'
I7
tp391
a(S'p2_vo'
I5
tp392
a(S'w'
I727
tp393
a(S'p1_vo'
I5
tp394
a(S'w'
I7
tp395
a(S'p2_vo'
I4
tp396
a(S'w'
I726
tp397
a(S'p1_vo'
I4
tp398
a(S'w'
I7
tp399
a(S'p2_vo'
I3
tp400
a(S'w'
I9
tp401
a(S'no_vo'
I2
tp402
a(S'w'
I3
tp403
a(S'w'
I715
tp404
a(S'p1_vo'
I3
tp405
a(S'w'
I7
tp406
a(S'p2_vo'
I2
tp407
a(S'w'
I727
tp408
a(S'p1_vo'
I2
tp409
a(S'w'
I745
tp410
a(S'no_vo'
I1
tp411
a(S'w'
I3
tp412
a(S'no_np'
I1
tp413
a(S'w'
I2197
tp414
a(S'no_vo'
I0
tp415
a(S'w'
I2196
tp416
a(S'p1_vo'
I7
tp417
a(S'w'
I5
tp418
a(S'p1_tl'
I225
tp419
a(S'w'
I11
tp420
a(S'p2_vo'
I6
tp421
a(S'w'
I5
tp422
a(S'p2_ll'
I1
tp423
a(S'p2_th'
I2
tp424
a(S'w'
I2
tp425
a(S'p2_tl'
I59
tp426
a(S'w'
I19
tp427
a(S'tr_lr'
I0
tp428
a(S'w'
I9
tp429
a(S'no_vo'
I8
tp430
a(S'w'
I3
tp431
a(S'no_ll'
I1
tp432
a(S'w'
I2
tp433
a(S'no_np'
I3
tp434
a(S'w'
I673
tp435
a(S'p1_vo'
I6
tp436
a(S'w'
I7
tp437
a(S'p2_vo'
I5
tp438
a(S'w'
I8
tp439
a(S'no_vo'
I3
tp440
a(S'w'
I4
tp441
a(S'no_np'
I1
tp442
a(S'w'
I715
tp443
a(S'p1_vo'
I5
tp444
a(S'w'
I7
tp445
a(S'p2_vo'
I4
tp446
a(S'w'
I9
tp447
a(S'no_vo'
I1
tp448
a(S'w'
I3
tp449
a(S'w'
I715
tp450
a(S'p1_vo'
I4
tp451
a(S'w'
I7
tp452
a(S'p2_vo'
I3
tp453
a(S'w'
I8
tp454
a(S'no_vo'
I0
tp455
a(S'w'
I719
tp456
a(S'p1_vo'
I3
tp457
a(S'w'
I7
tp458
a(S'p2_vo'
I2
tp459
a(S'w'
I726
tp460
a(S'p1_vo'
I2
tp461
a(S'w'
I5141
tp462
a(S'p1_vo'
I7
tp463
a(S'w'
I6
tp464
a(S'p1_tl'
I30
tp465
a(S'w'
I11
tp466
a(S'p2_vo'
I6
tp467
a(S'w'
I5
tp468
a(S'p2_ll'
I1
tp469
a(S'p2_th'
I0
tp470
a(S'w'
I3
tp471
a(S'p2_tl'
I179
tp472
a(S'w'
I21
tp473
a(S'tr_lr'
I32
tp474
a(S'w'
I5
tp475
a(S'tr_ll'
I1
tp476
a(S'tr_th'
I0
tp477
a(S'w'
I2
tp478
a(S'tr_tl'
I179
tp479
a(S'w'
I9
tp480
a(S'no_vo'
I8
tp481
a(S'w'
I3
tp482
a(S'no_ll'
I1
tp483
a(S'w'
I2
tp484
a(S'no_np'
I3
tp485
a(S'w'
I663
tp486
a(S'p1_vo'
I6
tp487
a(S'w'
I7
tp488
a(S'p2_vo'
I5
tp489
a(S'w'
I8
tp490
a(S'no_vo'
I3
tp491
a(S'w'
I4
tp492
a(S'no_np'
I1
tp493
a(S'w'
I715
tp494
a(S'p1_vo'
I5
tp495
a(S'w'
I7
tp496
a(S'p2_vo'
I4
tp497
a(S'w'
I9
tp498
a(S'no_vo'
I1
tp499
a(S'w'
I3
tp500
a(S'w'
I714
tp501
a(S'p1_vo'
I4
tp502
a(S'w'
I7
tp503
a(S'p2_vo'
I3
tp504
a(S'w'
I8
tp505
a(S'no_vo'
I0
tp506
a(S'w'
I719
tp507
a(S'p1_vo'
I3
tp508
a(S'w'
I7
tp509
a(S'p2_vo'
I2
tp510
a(S'w'
I727
tp511
a(S'p1_vo'
I2
tp512
a(S'w'
I5139
tp513
a(S'p1_vo'
I7
tp514
a(S'w'
I6
tp515
a(S'p1_tl'
I65
tp516
a(S'w'
I9
tp517
a(S'p2_vo'
I6
tp518
a(S'w'
I7
tp519
a(S'p2_tl'
I190
tp520
a(S'w'
I26
tp521
a(S'tr_ll'
I1
tp522
a(S'tr_th'
I1
tp523
a(S'w'
I2
tp524
a(S'tr_tl'
I103
tp525
a(S'w'
I9
tp526
a(S'no_vo'
I7
tp527
a(S'w'
I3
tp528
a(S'no_ll'
I1
tp529
a(S'w'
I2
tp530
a(S'no_np'
I6
tp531
a(S'w'
I667
tp532
a(S'p1_vo'
I6
tp533
a(S'w'
I7
tp534
a(S'p2_vo'
I5
tp535
a(S'w'
I727
tp536
a(S'p1_vo'
I5
tp537
a(S'w'
I7
tp538
a(S'p2_vo'
I4
tp539
a(S'w'
I727
tp540
a(S'p1_vo'
I4
tp541
a(S'w'
I7
tp542
a(S'p2_vo'
I3
tp543
a(S'w'
I9
tp544
a(S'no_vo'
I2
tp545
a(S'w'
I3
tp546
a(S'w'
I715
tp547
a(S'p1_vo'
I3
tp548
a(S'w'
I7
tp549
a(S'p2_vo'
I2
tp550
a(S'w'
I726
tp551
a(S'p1_vo'
I2
tp552
a(S'w'
I745
tp553
a(S'no_vo'
I1
tp554
a(S'w'
I3
tp555
a(S'no_np'
I1
tp556
a(S'w'
I2198
tp557
a(S'no_vo'
I0
tp558
a(S'w'
I2218
tp559
a(S'tr_ll'
I1
tp560
a(S'w'
I2
tp561
a(S'tr_tl'
I224
tp562
a(S'w'
I9
tp563
a(S'no_vo'
I7
tp564
a(S'w'
I3
tp565
a(S'no_ll'
I1
tp566
a(S'w'
I2
tp567
a(S'no_np'
I6
tp568
a(S'w'
I2169
tp569
a(S'no_vo'
I2
tp570
a(S'w'
I3
tp571
a(S'w'
I2199
tp572
a(S'no_vo'
I1
tp573
a(S'w'
I3
tp574
a(S'no_np'
I1
tp575
a(S'w'
I2197
tp576
a(S'no_vo'
I0
tp577
a(S'w'
I2196
tp578
a(S'p1_vo'
I7
tp579
a(S'w'
I6
tp580
a(S'p1_ll'
I1
tp581
a(S'p1_th'
I0
tp582
a(S'w'
I2
tp583
a(S'p1_tl'
I161
tp584
a(S'w'
I11
tp585
a(S'p2_vo'
I6
tp586
a(S'w'
I6
tp587
a(S'w'
I26
tp588
a(S'tr_ll'
I1
tp589
a(S'tr_th'
I0
tp590
a(S'w'
I2
tp591
a(S'tr_tl'
I240
tp592
a(S'w'
I9
tp593
a(S'no_vo'
I7
tp594
a(S'w'
I3
tp595
a(S'no_ll'
I1
tp596
a(S'w'
I2
tp597
a(S'no_np'
I6
tp598
a(S'w'
I662
tp599
a(S'p1_vo'
I6
tp600
a(S'w'
I7
tp601
a(S'p2_vo'
I5
tp602
a(S'w'
I727
tp603
a(S'p1_vo'
I5
tp604
a(S'w'
I7
tp605
a(S'p2_vo'
I4
tp606
a(S'w'
I727
tp607
a(S'p1_vo'
I4
tp608
a(S'w'
I7
tp609
a(S'p2_vo'
I3
tp610
a(S'w'
I9
tp611
a(S'no_vo'
I2
tp612
a(S'w'
I3
tp613
a(S'w'
I715
tp614
a(S'p1_vo'
I3
tp615
a(S'w'
I7
tp616
a(S'p2_vo'
I2
tp617
a(S'w'
I726
tp618
a(S'p1_vo'
I2
tp619
a(S'w'
I745
tp620
a(S'no_vo'
I1
tp621
a(S'w'
I3
tp622
a(S'no_np'
I1
tp623
a(S'w'
I2198
tp624
a(S'no_vo'
I0
tp625
a(S'w'
I2193
tp626
a(S'p1_vo'
I7
tp627
a(S'w'
I6
tp628
a(S'w'
I9
tp629
a(S'p2_vo'
I6
tp630
a(S'w'
I6
tp631
a(S'w'
I24
tp632
a(S'tr_ll'
I1
tp633
a(S'w'
I11
tp634
a(S'no_vo'
I8
tp635
a(S'w'
I3
tp636
a(S'no_ll'
I1
tp637
a(S'w'
I2
tp638
a(S'no_np'
I3
tp639
a(S'w'
I671
tp640
a(S'p1_vo'
I6
tp641
a(S'w'
I7
tp642
a(S'p2_vo'
I5
tp643
a(S'w'
I8
tp644
a(S'no_vo'
I3
tp645
a(S'w'
I4
tp646
a(S'no_np'
I1
tp647
a(S'w'
I715
tp648
a(S'p1_vo'
I5
tp649
a(S'w'
I7
tp650
a(S'p2_vo'
I4
tp651
a(S'w'
I9
tp652
a(S'no_vo'
I1
tp653
a(S'w'
I3
tp654
a(S'w'
I714
tp655
a(S'p1_vo'
I4
tp656
a(S'w'
I7
tp657
a(S'p2_vo'
I3
tp658
a(S'w'
I8
tp659
a(S'no_vo'
I0
tp660
a(S'w'
I719
tp661
a(S'p1_vo'
I3
tp662
a(S'w'
I7
tp663
a(S'p2_vo'
I2
tp664
a(S'w'
I727
tp665
a(S'p1_vo'
I2
tp666
a(S'w'
I5139
tp667
a(S'p1_vo'
I7
tp668
a(S'w'
I6
tp669
a(S'w'
I9
tp670
a(S'p2_vo'
I6
tp671
a(S'w'
I6
tp672
a(S'w'
I24
tp673
a(S'tr_ll'
I1
tp674
a(S'w'
I11
tp675
a(S'no_vo'
I7
tp676
a(S'w'
I3
tp677
a(S'no_ll'
I1
tp678
a(S'w'
I2
tp679
a(S'no_np'
I6
tp680
a(S'w'
I670
tp681
a(S'p1_vo'
I6
tp682
a(S'w'
I7
tp683
a(S'p2_vo'
I5
tp684
a(S'w'
I727
tp685
a(S'p1_vo'
I5
tp686
a(S'w'
I7
tp687
a(S'p2_vo'
I4
tp688
a(S'w'
I727
tp689
a(S'p1_vo'
I4
tp690
a(S'w'
I7
tp691
a(S'p2_vo'
I3
tp692
a(S'w'
I9
tp693
a(S'no_vo'
I2
tp694
a(S'w'
I3
tp695
a(S'w'
I715
tp696
a(S'p1_vo'
I3
tp697
a(S'w'
I7
tp698
a(S'p2_vo'
I2
tp699
a(S'w'
I726
tp700
a(S'p1_vo'
I2
tp701
a(S'w'
I745
tp702
a(S'no_vo'
I1
tp703
a(S'w'
I3
tp704
a(S'no_np'
I1
tp705
a(S'w'
I2198
tp706
a(S'no_vo'
I0
tp707
a(S'w'
I2193
tp708
a(S'p1_vo'
I7
tp709
a(S'w'
I6
tp710
a(S'p1_tl'
I180
tp711
a(S'w'
I9
tp712
a(S'p2_vo'
I6
tp713
a(S'w'
I6
tp714
a(S'p2_tl'
I213
tp715
a(S'w'
I26
tp716
a(S'tr_ll'
I1
tp717
a(S'tr_th'
I2
tp718
a(S'w'
I2
tp719
a(S'tr_tl'
I128
tp720
a(S'w'
I9
tp721
a(S'no_vo'
I8
tp722
a(S'w'
I3
tp723
a(S'no_ll'
I1
tp724
a(S'w'
I2
tp725
a(S'no_np'
I3
tp726
a(S'w'
I669
tp727
a(S'p1_vo'
I6
tp728
a(S'w'
I7
tp729
a(S'p2_vo'
I5
tp730
a(S'w'
I8
tp731
a(S'no_vo'
I3
tp732
a(S'w'
I4
tp733
a(S'no_np'
I1
tp734
a(S'w'
I715
tp735
a(S'p1_vo'
I5
tp736
a(S'w'
I7
tp737
a(S'p2_vo'
I4
tp738
a(S'w'
I9
tp739
a(S'no_vo'
I1
tp740
a(S'w'
I3
tp741
a(S'w'
I714
tp742
a(S'p1_vo'
I4
tp743
a(S'w'
I7
tp744
a(S'p2_vo'
I3
tp745
a(S'w'
I8
tp746
a(S'no_vo'
I0
tp747
a(S'w'
I719
tp748
a(S'p1_vo'
I3
tp749
a(S'w'
I7
tp750
a(S'p2_vo'
I2
tp751
a(S'w'
I727
tp752
a(S'p1_vo'
I2
tp753
a(S'w'
I5139
tp754
a(S'p1_vo'
I7
tp755
a(S'w'
I6
tp756
a(S'p1_tl'
I191
tp757
a(S'w'
I11
tp758
a(S'p2_vo'
I6
tp759
a(S'w'
I5
tp760
a(S'p2_ll'
I1
tp761
a(S'p2_th'
I1
tp762
a(S'w'
I3
tp763
a(S'p2_tl'
I64
tp764
a(S'w'
I23
tp765
a(S'tr_ll'
I1
tp766
a(S'w'
I11
tp767
a(S'no_vo'
I8
tp768
a(S'w'
I3
tp769
a(S'no_ll'
I1
tp770
a(S'w'
I2
tp771
a(S'no_np'
I3
tp772
a(S'w'
I667
tp773
a(S'p1_vo'
I6
tp774
a(S'w'
I7
tp775
a(S'p2_vo'
I5
tp776
a(S'w'
I8
tp777
a(S'no_vo'
I3
tp778
a(S'w'
I4
tp779
a(S'no_np'
I1
tp780
a(S'w'
I715
tp781
a(S'p1_vo'
I5
tp782
a(S'w'
I7
tp783
a(S'p2_vo'
I4
tp784
a(S'w'
I9
tp785
a(S'no_vo'
I1
tp786
a(S'w'
I3
tp787
a(S'w'
I715
tp788
a(S'p1_vo'
I4
tp789
a(S'w'
I7
tp790
a(S'p2_vo'
I3
tp791
a(S'w'
I8
tp792
a(S'no_vo'
I0
tp793
a(S'w'
I719
tp794
a(S'p1_vo'
I3
tp795
a(S'w'
I7
tp796
a(S'p2_vo'
I2
tp797
a(S'w'
I726
tp798
a(S'p1_vo'
I2
tp799
a(S'w'
I5139
tp800
a(S'p1_vo'
I7
tp801
a(S'w'
I6
tp802
a(S'p1_tl'
I214
tp803
a(S'w'
I9
tp804
a(S'p2_vo'
I6
tp805
a(S'w'
I6
tp806
a(S'w'
I26
tp807
a(S'tr_ll'
I1
tp808
a(S'tr_th'
I1
tp809
a(S'w'
I2
tp810
a(S'tr_tl'
I64
tp811
a(S'w'
I8
tp812
a(S'no_vo'
I7
tp813
a(S'w'
I4
tp814
a(S'no_ll'
I1
tp815
a(S'w'
I2
tp816
a(S'no_np'
I6
tp817
a(S'w'
I669
tp818
a(S'p1_vo'
I6
tp819
a(S'w'
I7
tp820
a(S'p2_vo'
I5
tp821
a(S'w'
I727
tp822
a(S'p1_vo'
I5
tp823
a(S'w'
I7
tp824
a(S'p2_vo'
I4
tp825
a(S'w'
I726
tp826
a(S'p1_vo'
I4
tp827
a(S'w'
I7
tp828
a(S'p2_vo'
I3
tp829
a(S'w'
I9
tp830
a(S'no_vo'
I2
tp831
a(S'w'
I3
tp832
a(S'w'
I715
tp833
a(S'p1_vo'
I3
tp834
a(S'w'
I7
tp835
a(S'p2_vo'
I2
tp836
a(S'w'
I727
tp837
a(S'p1_vo'
I2
tp838
a(S'w'
I745
tp839
a(S'no_vo'
I1
tp840
a(S'w'
I3
tp841
a(S'no_np'
I1
tp842
a(S'w'
I2197
tp843
a(S'no_vo'
I0
tp844
a(S'w'
I2194
tp845
a(S'p1_vo'
I7
tp846
a(S'w'
I7
tp847
a(S'p1_tl'
I191
tp848
a(S'w'
I9
tp849
a(S'p2_vo'
I6
tp850
a(S'w'
I6
tp851
a(S'p2_ll'
I1
tp852
a(S'p2_th'
I0
tp853
a(S'w'
I2
tp854
a(S'p2_tl'
I240
tp855
a(S'w'
I25
tp856
a(S'tr_ll'
I1
tp857
a(S'tr_th'
I2
tp858
a(S'w'
I2
tp859
a(S'tr_tl'
I128
tp860
a(S'w'
I9
tp861
a(S'no_vo'
I8
tp862
a(S'w'
I3
tp863
a(S'no_ll'
I1
tp864
a(S'w'
I3
tp865
a(S'no_np'
I3
tp866
a(S'w'
I665
tp867
a(S'p1_vo'
I6
tp868
a(S'w'
I7
tp869
a(S'p2_vo'
I5
tp870
a(S'w'
I9
tp871
a(S'no_vo'
I3
tp872
a(S'w'
I3
tp873
a(S'no_np'
I1
tp874
a(S'w'
I715
tp875
a(S'p1_vo'
I5
tp876
a(S'w'
I7
tp877
a(S'p2_vo'
I4
tp878
a(S'w'
I9
tp879
a(S'no_vo'
I1
tp880
a(S'w'
I3
tp881
a(S'w'
I715
tp882
a(S'p1_vo'
I4
tp883
a(S'w'
I7
tp884
a(S'p2_vo'
I3
tp885
a(S'w'
I8
tp886
a(S'no_vo'
I0
tp887
a(S'w'
I719
tp888
a(S'p1_vo'
I3
tp889
a(S'w'
I7
tp890
a(S'p2_vo'
I2
tp891
a(S'w'
I726
tp892
a(S'p1_vo'
I2
tp893
a(S'w'
I5162
tp894
a(S'tr_ll'
I1
tp895
a(S'tr_th'
I1
tp896
a(S'w'
I2
tp897
a(S'tr_tl'
I224
tp898
a(S'w'
I9
tp899
a(S'no_vo'
I8
tp900
a(S'w'
I3
tp901
a(S'no_ll'
I1
tp902
a(S'w'
I2
tp903
a(S'no_np'
I3
tp904
a(S'w'
I704
tp905
a(S'no_vo'
I3
tp906
a(S'w'
I3
tp907
a(S'no_np'
I1
tp908
a(S'w'
I731
tp909
a(S'no_vo'
I1
tp910
a(S'w'
I3
tp911
a(S'w'
I729
tp912
a(S'no_vo'
I0
tp913
a(S'w'
I6599
tp914
a(S'p1_vo'
I7
tp915
a(S'w'
I6
tp916
a(S'p1_tl'
I241
tp917
a(S'w'
I8
tp918
a(S'p2_vo'
I6
tp919
a(S'w'
I6
tp920
a(S'p2_ll'
I1
tp921
a(S'p2_th'
I1
tp922
a(S'w'
I2
tp923
a(S'p2_tl'
I64
tp924
a(S'w'
I23
tp925
a(S'tr_ll'
I1
tp926
a(S'w'
I11
tp927
a(S'no_vo'
I7
tp928
a(S'w'
I3
tp929
a(S'no_ll'
I1
tp930
a(S'w'
I3
tp931
a(S'no_np'
I6
tp932
a(S'w'
I667
tp933
a(S'p1_vo'
I6
tp934
a(S'w'
I7
tp935
a(S'p2_vo'
I5
tp936
a(S'w'
I727
tp937
a(S'p1_vo'
I5
tp938
a(S'w'
I7
tp939
a(S'p2_vo'
I4
tp940
a(S'w'
I727
tp941
a(S'p1_vo'
I4
tp942
a(S'w'
I7
tp943
a(S'p2_vo'
I3
tp944
a(S'w'
I9
tp945
a(S'no_vo'
I2
tp946
a(S'w'
I3
tp947
a(S'w'
I715
tp948
a(S'p1_vo'
I3
tp949
a(S'w'
I7
tp950
a(S'p2_vo'
I2
tp951
a(S'w'
I726
tp952
a(S'p1_vo'
I2
tp953
a(S'w'
I745
tp954
a(S'no_vo'
I1
tp955
a(S'w'
I3
tp956
a(S'no_np'
I1
tp957
a(S'w'
I2198
tp958
a(S'no_vo'
I0
tp959
a(S'w'
I2193
tp960
a(S'p1_vo'
I7
tp961
a(S'w'
I6
tp962
a(S'w'
I8
tp963
a(S'p2_vo'
I6
tp964
a(S'w'
I6
tp965
a(S'w'
I26
tp966
a(S'tr_ll'
I1
tp967
a(S'tr_th'
I0
tp968
a(S'w'
I2
tp969
a(S'tr_tl'
I240
tp970
a(S'w'
I9
tp971
a(S'no_vo'
I8
tp972
a(S'w'
I3
tp973
a(S'no_ll'
I1
tp974
a(S'w'
I2
tp975
a(S'no_np'
I3
tp976
a(S'w'
I670
tp977
a(S'p1_vo'
I6
tp978
a(S'w'
I7
tp979
a(S'p2_vo'
I5
tp980
a(S'w'
I8
tp981
a(S'no_vo'
I3
tp982
a(S'w'
I4
tp983
a(S'no_np'
I1
tp984
a(S'w'
I715
tp985
a(S'p1_vo'
I5
tp986
a(S'w'
I7
tp987
a(S'p2_vo'
I4
tp988
a(S'w'
I9
tp989
a(S'no_vo'
I1
tp990
a(S'w'
I3
tp991
a(S'w'
I714
tp992
a(S'p1_vo'
I4
tp993
a(S'w'
I7
tp994
a(S'p2_vo'
I3
tp995
a(S'w'
I8
tp996
a(S'no_vo'
I0
tp997
a(S'w'
I719
tp998
a(S'p1_vo'
I3
tp999
a(S'w'
I7
tp1000
a(S'p2_vo'
I2
tp1001
a(S'w'
I727
tp1002
a(S'p1_vo'
I2
tp1003
a(S'w'
I5139
tp1004
a(S'p1_vo'
I7
tp1005
a(S'w'
I6
tp1006
a(S'w'
I8
tp1007
a(S'p2_vo'
I6
tp1008
a(S'w'
I6
tp1009
a(S'w'
I26
tp1010
a(S'tr_ll'
I1
tp1011
a(S'tr_th'
I1
tp1012
a(S'w'
I2
tp1013
a(S'tr_tl'
I224
tp1014
a(S'w'
I8
tp1015
a(S'no_vo'
I7
tp1016
a(S'w'
I4
tp1017
a(S'no_ll'
I1
tp1018
a(S'w'
I2
tp1019
a(S'no_np'
I6
tp1020
a(S'w'
I669
tp1021
a(S'p1_vo'
I6
tp1022
a(S'w'
I7
tp1023
a(S'p2_vo'
I5
tp1024
a(S'w'
I727
tp1025
a(S'p1_vo'
I5
tp1026
a(S'w'
I7
tp1027
a(S'p2_vo'
I4
tp1028
a(S'w'
I727
tp1029
a(S'p1_vo'
I4
tp1030
a(S'w'
I7
tp1031
a(S'p2_vo'
I3
tp1032
a(S'w'
I9
tp1033
a(S'no_vo'
I2
tp1034
a(S'w'
I3
tp1035
a(S'w'
I715
tp1036
a(S'p1_vo'
I3
tp1037
a(S'w'
I7
tp1038
a(S'p2_vo'
I2
tp1039
a(S'w'
I726
tp1040
a(S'p1_vo'
I2
tp1041
a(S'w'
I745
tp1042
a(S'no_vo'
I1
tp1043
a(S'w'
I3
tp1044
a(S'no_np'
I1
tp1045
a(S'w'
I2198
tp1046
a(S'no_vo'
I0
tp1047
a(S'w'
I2194
tp1048
a(S'p1_du'
I1
tp1049
a(S'p1_vo'
I5
tp1050
a(S'w'
I5
tp1051
a(S'p1_ll'
I1
tp1052
a(S'p1_th'
I1
tp1053
a(S'w'
I2
tp1054
a(S'p1_tl'
I14
tp1055
a(S'w'
I9
tp1056
a(S'p2_vo'
I6
tp1057
a(S'w'
I6
tp1058
a(S'w'
I26
tp1059
a(S'tr_ll'
I1
tp1060
a(S'w'
I2
tp1061
a(S'tr_tl'
I64
tp1062
a(S'w'
I9
tp1063
a(S'no_vo'
I8
tp1064
a(S'w'
I3
tp1065
a(S'no_ll'
I1
tp1066
a(S'w'
I2
tp1067
a(S'no_np'
I3
tp1068
a(S'w'
I667
tp1069
a(S'p1_vo'
I4
tp1070
a(S'w'
I7
tp1071
a(S'p2_vo'
I5
tp1072
a(S'w'
I8
tp1073
a(S'no_vo'
I3
tp1074
a(S'w'
I4
tp1075
a(S'no_np'
I1
tp1076
a(S'w'
I715
tp1077
a(S'p1_vo'
I3
tp1078
a(S'w'
I7
tp1079
a(S'p2_vo'
I4
tp1080
a(S'w'
I9
tp1081
a(S'no_vo'
I1
tp1082
a(S'w'
I3
tp1083
a(S'w'
I716
tp1084
a(S'p1_vo'
I5
tp1085
a(S'w'
I5
tp1086
a(S'p1_ll'
I1
tp1087
a(S'p1_th'
I0
tp1088
a(S'w'
I2
tp1089
a(S'p1_tl'
I255
tp1090
a(S'w'
I7
tp1091
a(S'p2_vo'
I3
tp1092
a(S'w'
I8
tp1093
a(S'no_vo'
I0
tp1094
a(S'w'
I710
tp1095
a(S'p1_vo'
I4
tp1096
a(S'w'
I7
tp1097
a(S'p2_vo'
I2
tp1098
a(S'w'
I727
tp1099
a(S'p1_vo'
I3
tp1100
a(S'w'
I734
tp1101
a(S'p1_vo'
I2
tp1102
a(S'w'
I734
tp1103
a(S'p1_vo'
I1
tp1104
a(S'w'
I3672
tp1105
a(S'p1_vo'
I6
tp1106
a(S'w'
I6
tp1107
a(S'p1_ll'
I1
tp1108
a(S'p1_th'
I1
tp1109
a(S'w'
I2
tp1110
a(S'p1_tl'
I30
tp1111
a(S'w'
I8
tp1112
a(S'p2_vo'
I6
tp1113
a(S'w'
I6
tp1114
a(S'p2_tl'
I171
tp1115
a(S'w'
I24
tp1116
a(S'tr_ll'
I1
tp1117
a(S'w'
I2
tp1118
a(S'tr_tl'
I171
tp1119
a(S'w'
I9
tp1120
a(S'no_vo'
I7
tp1121
a(S'w'
I3
tp1122
a(S'no_ll'
I1
tp1123
a(S'w'
I2
tp1124
a(S'no_np'
I6
tp1125
a(S'w'
I668
tp1126
a(S'p1_vo'
I5
tp1127
a(S'w'
I7
tp1128
a(S'p2_vo'
I5
tp1129
a(S'w'
I727
tp1130
a(S'p1_vo'
I4
tp1131
a(S'w'
I7
tp1132
a(S'p2_vo'
I4
tp1133
a(S'w'
I727
tp1134
a(S'p1_vo'
I3
tp1135
a(S'w'
I7
tp1136
a(S'p2_vo'
I3
tp1137
a(S'w'
I9
tp1138
a(S'no_vo'
I2
tp1139
a(S'w'
I3
tp1140
a(S'w'
I715
tp1141
a(S'p1_vo'
I2
tp1142
a(S'w'
I7
tp1143
a(S'p2_vo'
I2
tp1144
a(S'w'
I726
tp1145
a(S'p1_vo'
I1
tp1146
a(S'w'
I745
tp1147
a(S'no_vo'
I1
tp1148
a(S'w'
I3
tp1149
a(S'no_np'
I1
tp1150
a(S'w'
I2198
tp1151
a(S'no_vo'
I0
tp1152
a(S'w'
I2193
tp1153
a(S'p1_vo'
I6
tp1154
a(S'w'
I5
tp1155
a(S'p1_ll'
I1
tp1156
a(S'p1_th'
I0
tp1157
a(S'w'
I2
tp1158
a(S'p1_tl'
I255
tp1159
a(S'w'
I9
tp1160
a(S'p2_vo'
I6
tp1161
a(S'w'
I6
tp1162
a(S'p2_tl'
I64
tp1163
a(S'w'
I23
tp1164
a(S'tr_ll'
I1
tp1165
a(S'w'
I3
tp1166
a(S'tr_tl'
I64
tp1167
a(S'w'
I8
tp1168
a(S'no_vo'
I7
tp1169
a(S'w'
I4
tp1170
a(S'no_ll'
I1
tp1171
a(S'w'
I2
tp1172
a(S'no_np'
I6
tp1173
a(S'w'
I670
tp1174
a(S'p1_vo'
I5
tp1175
a(S'w'
I7
tp1176
a(S'p2_vo'
I5
tp1177
a(S'w'
I727
tp1178
a(S'p1_vo'
I4
tp1179
a(S'w'
I7
tp1180
a(S'p2_vo'
I4
tp1181
a(S'w'
I726
tp1182
a(S'p1_vo'
I3
tp1183
a(S'w'
I7
tp1184
a(S'p2_vo'
I3
tp1185
a(S'w'
I9
tp1186
a(S'no_vo'
I2
tp1187
a(S'w'
I3
tp1188
a(S'w'
I715
tp1189
a(S'p1_vo'
I2
tp1190
a(S'w'
I7
tp1191
a(S'p2_vo'
I2
tp1192
a(S'w'
I727
tp1193
a(S'p1_vo'
I1
tp1194
a(S'w'
I745
tp1195
a(S'no_vo'
I1
tp1196
a(S'w'
I3
tp1197
a(S'no_np'
I1
tp1198
a(S'w'
I2197
tp1199
a(S'no_vo'
I0
tp1200
a(S'w'
I2196
tp1201
a(S'p1_vo'
I6
tp1202
a(S'w'
I6
tp1203
a(S'p1_tl'
I241
tp1204
a(S'w'
I11
tp1205
a(S'p2_vo'
I6
tp1206
a(S'w'
I6
tp1207
a(S'p2_tl'
I125
tp1208
a(S'w'
I23
tp1209
a(S'tr_lh'
I1
tp1210
a(S'tr_lr'
I16
tp1211
a(S'w'
I4
tp1212
a(S'tr_ll'
I1
tp1213
a(S'w'
I2
tp1214
a(S'tr_tl'
I224
tp1215
a(S'w'
I9
tp1216
a(S'no_vo'
I7
tp1217
a(S'w'
I3
tp1218
a(S'no_ll'
I1
tp1219
a(S'w'
I2
tp1220
a(S'no_np'
I6
tp1221
a(S'w'
I663
tp1222
a(S'p1_vo'
I5
tp1223
a(S'w'
I7
tp1224
a(S'p2_vo'
I5
tp1225
a(S'w'
I727
tp1226
a(S'p1_vo'
I4
tp1227
a(S'w'
I7
tp1228
a(S'p2_vo'
I4
tp1229
a(S'w'
I727
tp1230
a(S'p1_vo'
I3
tp1231
a(S'w'
I7
tp1232
a(S'p2_vo'
I3
tp1233
a(S'w'
I9
tp1234
a(S'no_vo'
I2
tp1235
a(S'w'
I3
tp1236
a(S'w'
I715
tp1237
a(S'p1_vo'
I2
tp1238
a(S'w'
I7
tp1239
a(S'p2_vo'
I2
tp1240
a(S'w'
I726
tp1241
a(S'p1_vo'
I1
tp1242
a(S'w'
I745
tp1243
a(S'no_vo'
I1
tp1244
a(S'w'
I3
tp1245
a(S'no_np'
I1
tp1246
a(S'w'
I2198
tp1247
a(S'no_vo'
I0
tp1248
a(S'w'
I19809
tp1249
a(S'tr_lh'
I0
tp1250
a(S'tr_lr'
I89
tp1251
a(S'w'
I17603
tp1252
a(S'p1_du'
I0
tp1253
a(S'p1_vo'
I0
tp1254
a(S'w'
I6
tp1255
a(S'p2_du'
I0
tp1256
a(S'p2_vo'
I0
tp1257
a(S'w'
I56543
tp1258
a.