(lp1
(S'clock'
p2
I1789773
tp3
a(S'fc_mo'
I1
tp4
a(S'no_lh'
I1
tp5
a(S'no_cv'
I1
tp6
a(S'w'
I1
tp7
a(S'tr_lh'
I1
tp8
a(S'w'
I1
tp9
a(S'p2_ll'
I0
tp10
a(S'p2_tl'
I255
tp11
a(S'w'
I1
tp12
a(S'p2_sn'
I1
tp13
a(S'p2_du'
I1
tp14
a(S'p2_lh'
I1
tp15
a(S'p2_cv'
I1
tp16
a(S'p2_vo'
I15
tp17
a(S'p1_ll'
I0
tp18
a(S'w'
I1
tp19
a(S'p1_tl'
I215
tp20
a(S'p1_sn'
I1
tp21
a(S'w'
I1
tp22
a(S'p1_du'
I2
tp23
a(S'p1_lh'
I1
tp24
a(S'p1_cv'
I1
tp25
a(S'p1_vo'
I15
tp26
a(S'w'
I715
tp27
a(S'w'
I1
tp28
a(S'w'
I2
tp29
a(S'w'
I1
tp30
a(S'w'
I730
tp31
a(S'w'
I2
tp32
a(S'w'
I1
tp33
a(S'p2_vo'
I14
tp34
a(S'w'
I1
tp35
a(S'p1_vo'
I14
tp36
a(S'w'
I727
tp37
a(S'w'
I2
tp38
a(S'w'
I1
tp39
a(S'p2_vo'
I13
tp40
a(S'w'
I1
tp41
a(S'p1_tl'
I216
tp42
a(S'p1_vo'
I13
tp43
a(S'w'
I730
tp44
a(S'w'
I2
tp45
a(S'w'
I1
tp46
a(S'p2_vo'
I12
tp47
a(S'w'
I1
tp48
a(S'p1_vo'
I12
tp49
a(S'w'
I728
tp50
a(S'w'
I1
tp51
a(S'w'
I2
tp52
a(S'p2_vo'
I11
tp53
a(S'w'
I1
tp54
a(S'p1_vo'
I11
tp55
a(S'w'
I729
tp56
a(S'w'
I2
tp57
a(S'w'
I1
tp58
a(S'p2_vo'
I10
tp59
a(S'w'
I1
tp60
a(S'p1_vo'
I10
tp61
a(S'w'
I728
tp62
a(S'w'
I1
tp63
a(S'w'
I2
tp64
a(S'w'
I1
tp65
a(S'w'
I729
tp66
a(S'w'
I2
tp67
a(S'w'
I1
tp68
a(S'w'
I1
tp69
a(S'w'
I729
tp70
a(S'w'
I1
tp71
a(S'w'
I1
tp72
a(S'p2_vo'
I9
tp73
a(S'w'
I1
tp74
a(S'p1_tl'
I215
tp75
a(S'w'
I1
tp76
a(S'p1_vo'
I9
tp77
a(S'w'
I729
tp78
a(S'w'
I2
tp79
a(S'w'
I1
tp80
a(S'w'
I1
tp81
a(S'w'
I727
tp82
a(S'w'
I1
tp83
a(S'w'
I2
tp84
a(S'w'
I1
tp85
a(S'w'
I731
tp86
a(S'w'
I1
tp87
a(S'w'
I1
tp88
a(S'w'
I1
tp89
a(S'w'
I1
tp90
a(S'w'
I726
tp91
a(S'w'
I1
tp92
a(S'w'
I2
tp93
a(S'w'
I1
tp94
a(S'w'
I730
tp95
a(S'w'
I2
tp96
a(S'w'
I1
tp97
a(S'w'
I1
tp98
a(S'w'
I728
tp99
a(S'w'
I2
tp100
a(S'w'
I1
tp101
a(S'w'
I1
tp102
a(S'p1_tl'
I216
tp103
a(S'w'
I741
tp104
a(S'w'
I1
tp105
a(S'w'
I1
tp106
a(S'p2_ll'
I0
tp107
a(S'w'
I1
tp108
a(S'p2_vo'
I15
tp109
a(S'w'
I1
tp110
a(S'p1_ll'
I0
tp111
a(S'p1_tl'
I215
tp112
a(S'w'
I1
tp113
a(S'p1_vo'
I15
tp114
a(S'w'
I715
tp115
a(S'w'
I1
tp116
a(S'w'
I2
tp117
a(S'w'
I1
tp118
a(S'w'
I729
tp119
a(S'w'
I2
tp120
a(S'w'
I1
tp121
a(S'p2_vo'
I14
tp122
a(S'w'
I1
tp123
a(S'p1_vo'
I14
tp124
a(S'w'
I728
tp125
a(S'w'
I2
tp126
a(S'w'
I1
tp127
a(S'p2_vo'
I13
tp128
a(S'w'
I1
tp129
a(S'p1_tl'
I216
tp130
a(S'p1_vo'
I13
tp131
a(S'w'
I730
tp132
a(S'w'
I2
tp133
a(S'w'
I1
tp134
a(S'p2_vo'
I12
tp135
a(S'w'
I1
tp136
a(S'p1_vo'
I12
tp137
a(S'w'
I727
tp138
a(S'w'
I1
tp139
a(S'w'
I2
tp140
a(S'p2_vo'
I11
tp141
a(S'w'
I1
tp142
a(S'p1_vo'
I11
tp143
a(S'w'
I730
tp144
a(S'w'
I2
tp145
a(S'w'
I1
tp146
a(S'p2_vo'
I10
tp147
a(S'w'
I1
tp148
a(S'p1_vo'
I10
tp149
a(S'w'
I727
tp150
a(S'w'
I1
tp151
a(S'w'
I2
tp152
a(S'w'
I1
tp153
a(S'w'
I741
tp154
a(S'w'
I1
tp155
a(S'w'
I1
tp156
a(S'p2_ll'
I0
tp157
a(S'w'
I1
tp158
a(S'p2_vo'
I15
tp159
a(S'w'
I1
tp160
a(S'p1_ll'
I0
tp161
a(S'p1_tl'
I170
tp162
a(S'w'
I1
tp163
a(S'p1_vo'
I15
tp164
a(S'w'
I716
tp165
a(S'w'
I1
tp166
a(S'w'
I2
tp167
a(S'w'
I1
tp168
a(S'w'
I729
tp169
a(S'w'
I2
tp170
a(S'w'
I1
tp171
a(S'p2_vo'
I14
tp172
a(S'w'
I1
tp173
a(S'p1_vo'
I14
tp174
a(S'w'
I728
tp175
a(S'w'
I2
tp176
a(S'w'
I1
tp177
a(S'p2_vo'
I13
tp178
a(S'w'
I1
tp179
a(S'p1_tl'
I171
tp180
a(S'p1_vo'
I13
tp181
a(S'w'
I729
tp182
a(S'w'
I2
tp183
a(S'w'
I1
tp184
a(S'p2_vo'
I12
tp185
a(S'w'
I1
tp186
a(S'p1_vo'
I12
tp187
a(S'w'
I728
tp188
a(S'w'
I1
tp189
a(S'w'
I2
tp190
a(S'p2_vo'
I11
tp191
a(S'w'
I1
tp192
a(S'p1_vo'
I11
tp193
a(S'w'
I730
tp194
a(S'w'
I2
tp195
a(S'w'
I1
tp196
a(S'p2_vo'
I10
tp197
a(S'w'
I1
tp198
a(S'p1_vo'
I10
tp199
a(S'w'
I727
tp200
a(S'w'
I1
tp201
a(S'w'
I2
tp202
a(S'w'
I1
tp203
a(S'w'
I741
tp204
a(S'w'
I1
tp205
a(S'w'
I1
tp206
a(S'p2_ll'
I0
tp207
a(S'p2_tl'
I241
tp208
a(S'w'
I1
tp209
a(S'p2_vo'
I15
tp210
a(S'w'
I1
tp211
a(S'p1_ll'
I0
tp212
a(S'p1_tl'
I191
tp213
a(S'w'
I1
tp214
a(S'p1_vo'
I15
tp215
a(S'w'
I715
tp216
a(S'w'
I1
tp217
a(S'w'
I2
tp218
a(S'w'
I1
tp219
a(S'w'
I730
tp220
a(S'w'
I2
tp221
a(S'w'
I1
tp222
a(S'p2_vo'
I14
tp223
a(S'w'
I1
tp224
a(S'p1_vo'
I14
tp225
a(S'w'
I728
tp226
a(S'w'
I2
tp227
a(S'w'
I1
tp228
a(S'p2_vo'
I13
tp229
a(S'w'
I1
tp230
a(S'p1_tl'
I192
tp231
a(S'p1_vo'
I13
tp232
a(S'w'
I729
tp233
a(S'w'
I2
tp234
a(S'w'
I1
tp235
a(S'p2_vo'
I12
tp236
a(S'w'
I1
tp237
a(S'p1_vo'
I12
tp238
a(S'w'
I728
tp239
a(S'w'
I1
tp240
a(S'w'
I2
tp241
a(S'p2_vo'
I11
tp242
a(S'w'
I1
tp243
a(S'p1_vo'
I11
tp244
a(S'w'
I729
tp245
a(S'w'
I2
tp246
a(S'w'
I1
tp247
a(S'p2_vo'
I10
tp248
a(S'w'
I1
tp249
a(S'p1_vo'
I10
tp250
a(S'w'
I728
tp251
a(S'w'
I1
tp252
a(S'w'
I2
tp253
a(S'w'
I1
tp254
a(S'w'
I741
tp255
a(S'w'
I1
tp256
a(S'w'
I1
tp257
a(S'p2_ll'
I0
tp258
a(S'w'
I1
tp259
a(S'p2_vo'
I15
tp260
a(S'w'
I1
tp261
a(S'p1_ll'
I0
tp262
a(S'p1_tl'
I215
tp263
a(S'w'
I1
tp264
a(S'p1_vo'
I15
tp265
a(S'w'
I715
tp266
a(S'w'
I1
tp267
a(S'w'
I2
tp268
a(S'w'
I1
tp269
a(S'w'
I730
tp270
a(S'w'
I2
tp271
a(S'w'
I1
tp272
a(S'p2_vo'
I14
tp273
a(S'w'
I1
tp274
a(S'p1_vo'
I14
tp275
a(S'w'
I727
tp276
a(S'w'
I2
tp277
a(S'w'
I1
tp278
a(S'p2_vo'
I13
tp279
a(S'w'
I1
tp280
a(S'p1_tl'
I216
tp281
a(S'p1_vo'
I13
tp282
a(S'w'
I730
tp283
a(S'w'
I2
tp284
a(S'w'
I1
tp285
a(S'p2_vo'
I12
tp286
a(S'w'
I1
tp287
a(S'p1_vo'
I12
tp288
a(S'w'
I728
tp289
a(S'w'
I1
tp290
a(S'w'
I2
tp291
a(S'p2_vo'
I11
tp292
a(S'w'
I1
tp293
a(S'p1_vo'
I11
tp294
a(S'w'
I729
tp295
a(S'w'
I2
tp296
a(S'w'
I1
tp297
a(S'p2_vo'
I10
tp298
a(S'w'
I1
tp299
a(S'p1_vo'
I10
tp300
a(S'w'
I728
tp301
a(S'w'
I1
tp302
a(S'w'
I2
tp303
a(S'w'
I1
tp304
a(S'w'
I740
tp305
a(S'w'
I1
tp306
a(S'w'
I1
tp307
a(S'p2_ll'
I0
tp308
a(S'p2_tl'
I215
tp309
a(S'w'
I1
tp310
a(S'p2_vo'
I15
tp311
a(S'w'
I1
tp312
a(S'p1_ll'
I0
tp313
a(S'p1_tl'
I170
tp314
a(S'w'
I1
tp315
a(S'p1_vo'
I15
tp316
a(S'w'
I716
tp317
a(S'w'
I1
tp318
a(S'w'
I2
tp319
a(S'w'
I1
tp320
a(S'w'
I730
tp321
a(S'w'
I2
tp322
a(S'w'
I1
tp323
a(S'p2_vo'
I14
tp324
a(S'w'
I1
tp325
a(S'p1_vo'
I14
tp326
a(S'w'
I727
tp327
a(S'w'
I2
tp328
a(S'w'
I1
tp329
a(S'p2_vo'
I13
tp330
a(S'w'
I1
tp331
a(S'p1_tl'
I171
tp332
a(S'p1_vo'
I13
tp333
a(S'w'
I730
tp334
a(S'w'
I2
tp335
a(S'w'
I1
tp336
a(S'p2_vo'
I12
tp337
a(S'w'
I1
tp338
a(S'p1_vo'
I12
tp339
a(S'w'
I727
tp340
a(S'w'
I1
tp341
a(S'w'
I2
tp342
a(S'p2_vo'
I11
tp343
a(S'w'
I1
tp344
a(S'p1_vo'
I11
tp345
a(S'w'
I730
tp346
a(S'w'
I2
tp347
a(S'w'
I1
tp348
a(S'p2_vo'
I10
tp349
a(S'w'
I1
tp350
a(S'p1_vo'
I10
tp351
a(S'w'
I728
tp352
a(S'w'
I1
tp353
a(S'w'
I2
tp354
a(S'w'
I1
tp355
a(S'w'
I740
tp356
a(S'w'
I1
tp357
a(S'w'
I1
tp358
a(S'p2_ll'
I0
tp359
a(S'w'
I1
tp360
a(S'p2_vo'
I15
tp361
a(S'w'
I1
tp362
a(S'p1_ll'
I0
tp363
a(S'p1_tl'
I127
tp364
a(S'w'
I1
tp365
a(S'p1_vo'
I15
tp366
a(S'w'
I716
tp367
a(S'w'
I1
tp368
a(S'w'
I2
tp369
a(S'w'
I1
tp370
a(S'w'
I729
tp371
a(S'w'
I2
tp372
a(S'w'
I1
tp373
a(S'p2_vo'
I14
tp374
a(S'w'
I1
tp375
a(S'p1_vo'
I14
tp376
a(S'w'
I728
tp377
a(S'w'
I2
tp378
a(S'w'
I1
tp379
a(S'p2_vo'
I13
tp380
a(S'w'
I1
tp381
a(S'p1_tl'
I128
tp382
a(S'p1_vo'
I13
tp383
a(S'w'
I730
tp384
a(S'w'
I2
tp385
a(S'w'
I1
tp386
a(S'p2_vo'
I12
tp387
a(S'w'
I1
tp388
a(S'p1_vo'
I12
tp389
a(S'w'
I727
tp390
a(S'w'
I1
tp391
a(S'w'
I2
tp392
a(S'p2_vo'
I11
tp393
a(S'w'
I1
tp394
a(S'p1_vo'
I11
tp395
a(S'w'
I730
tp396
a(S'w'
I2
tp397
a(S'w'
I1
tp398
a(S'p2_vo'
I10
tp399
a(S'w'
I1
tp400
a(S'p1_vo'
I10
tp401
a(S'w'
I727
tp402
a(S'w'
I1
tp403
a(S'w'
I2
tp404
a(S'w'
I1
tp405
a(S'w'
I742
tp406
a(S'w'
I1
tp407
a(S'w'
I1
tp408
a(S'p2_ll'
I0
tp409
a(S'p2_tl'
I170
tp410
a(S'w'
I1
tp411
a(S'p2_vo'
I15
tp412
a(S'p1_ll'
I0
tp413
a(S'w'
I1
tp414
a(S'p1_tl'
I143
tp415
a(S'w'
I1
tp416
a(S'p1_vo'
I15
tp417
a(S'w'
I715
tp418
a(S'w'
I1
tp419
a(S'w'
I2
tp420
a(S'w'
I1
tp421
a(S'w'
I729
tp422
a(S'w'
I2
tp423
a(S'w'
I1
tp424
a(S'p2_vo'
I14
tp425
a(S'w'
I1
tp426
a(S'p1_vo'
I14
tp427
a(S'w'
I728
tp428
a(S'w'
I2
tp429
a(S'w'
I1
tp430
a(S'p2_vo'
I13
tp431
a(S'w'
I1
tp432
a(S'p1_tl'
I144
tp433
a(S'p1_vo'
I13
tp434
a(S'w'
I730
tp435
a(S'w'
I2
tp436
a(S'w'
I1
tp437
a(S'p2_vo'
I12
tp438
a(S'w'
I1
tp439
a(S'p1_vo'
I12
tp440
a(S'w'
I727
tp441
a(S'w'
I1
tp442
a(S'w'
I2
tp443
a(S'p2_vo'
I11
tp444
a(S'w'
I1
tp445
a(S'p1_vo'
I11
tp446
a(S'w'
I730
tp447
a(S'w'
I2
tp448
a(S'w'
I1
tp449
a(S'p2_vo'
I10
tp450
a(S'w'
I1
tp451
a(S'p1_vo'
I10
tp452
a(S'w'
I727
tp453
a(S'w'
I1
tp454
a(S'w'
I2
tp455
a(S'w'
I1
tp456
a(S'w'
I730
tp457
a(S'w'
I2
tp458
a(S'w'
I1
tp459
a(S'w'
I1
tp460
a(S'w'
I729
tp461
a(S'w'
I1
tp462
a(S'w'
I1
tp463
a(S'p2_vo'
I9
tp464
a(S'w'
I1
tp465
a(S'p1_tl'
I143
tp466
a(S'w'
I1
tp467
a(S'p1_vo'
I9
tp468
a(S'w'
I728
tp469
a(S'w'
I2
tp470
a(S'w'
I1
tp471
a(S'w'
I1
tp472
a(S'w'
I728
tp473
a(S'w'
I1
tp474
a(S'w'
I2
tp475
a(S'w'
I1
tp476
a(S'w'
I730
tp477
a(S'w'
I1
tp478
a(S'w'
I1
tp479
a(S'w'
I1
tp480
a(S'w'
I1
tp481
a(S'w'
I727
tp482
a(S'w'
I1
tp483
a(S'w'
I2
tp484
a(S'w'
I1
tp485
a(S'w'
I730
tp486
a(S'w'
I2
tp487
a(S'w'
I1
tp488
a(S'w'
I1
tp489
a(S'w'
I727
tp490
a(S'w'
I2
tp491
a(S'w'
I1
tp492
a(S'w'
I1
tp493
a(S'p1_tl'
I144
tp494
a(S'w'
I730
tp495
a(S'w'
I2
tp496
a(S'w'
I1
tp497
a(S'w'
I1
tp498
a(S'w'
I727
tp499
a(S'w'
I1
tp500
a(S'w'
I2
tp501
a(S'p2_vo'
I8
tp502
a(S'w'
I1
tp503
a(S'p1_vo'
I8
tp504
a(S'w'
I730
tp505
a(S'w'
I2
tp506
a(S'w'
I1
tp507
a(S'w'
I1
tp508
a(S'w'
I728
tp509
a(S'w'
I1
tp510
a(S'w'
I2
tp511
a(S'w'
I1
tp512
a(S'w'
I729
tp513
a(S'w'
I2
tp514
a(S'w'
I1
tp515
a(S'p2_vo'
I7
tp516
a(S'w'
I1
tp517
a(S'p1_vo'
I7
tp518
a(S'w'
I729
tp519
a(S'w'
I1
tp520
a(S'w'
I1
tp521
a(S'w'
I1
tp522
a(S'p1_tl'
I143
tp523
a(S'w'
I1
tp524
a(S'w'
I728
tp525
a(S'w'
I2
tp526
a(S'w'
I1
tp527
a(S'w'
I1
tp528
a(S'w'
I728
tp529
a(S'w'
I1
tp530
a(S'w'
I2
tp531
a(S'p2_vo'
I6
tp532
a(S'w'
I1
tp533
a(S'p1_vo'
I6
tp534
a(S'w'
I731
tp535
a(S'w'
I1
tp536
a(S'w'
I1
tp537
a(S'w'
I1
tp538
a(S'w'
I1
tp539
a(S'w'
I726
tp540
a(S'w'
I1
tp541
a(S'w'
I2
tp542
a(S'w'
I1
tp543
a(S'w'
I730
tp544
a(S'w'
I2
tp545
a(S'w'
I1
tp546
a(S'w'
I1
tp547
a(S'w'
I727
tp548
a(S'w'
I2
tp549
a(S'w'
I1
tp550
a(S'p2_vo'
I5
tp551
a(S'w'
I1
tp552
a(S'p1_tl'
I144
tp553
a(S'p1_vo'
I5
tp554
a(S'w'
I730
tp555
a(S'w'
I2
tp556
a(S'w'
I1
tp557
a(S'w'
I1
tp558
a(S'w'
I728
tp559
a(S'w'
I1
tp560
a(S'w'
I2
tp561
a(S'w'
I1
tp562
a(S'w'
I729
tp563
a(S'w'
I2
tp564
a(S'w'
I1
tp565
a(S'p2_vo'
I4
tp566
a(S'w'
I1
tp567
a(S'p1_vo'
I4
tp568
a(S'w'
I728
tp569
a(S'w'
I1
tp570
a(S'w'
I2
tp571
a(S'w'
I1
tp572
a(S'w'
I716
tp573
a(S'w'
I1
tp574
a(S'w'
I2
tp575
a(S'p2_du'
I0
tp576
a(S'p2_vo'
I0
tp577
a(S'w'
I1
tp578
a(S'p1_du'
I0
tp579
a(S'p1_vo'
I0
tp580
a(S'w'
I721
tp581
a.