(lp1
(S'clock'
p2
I1789773
tp3
a(S'w'
I100
tp4
a(S'no_lh'
I1
tp5
a(S'no_cv'
I1
tp6
a(S'w'
I1
tp7
a(S'no_ll'
I0
tp8
a(S'w'
I5
tp9
a(S'w'
I8
tp10
a(S'p2_lh'
I1
tp11
a(S'p2_cv'
I1
tp12
a(S'p2_sn'
I1
tp13
a(S'w'
I9
tp14
a(S'p1_lh'
I1
tp15
a(S'p1_cv'
I1
tp16
a(S'p1_sn'
I1
tp17
a(S'w'
I712
tp18
a(S'no_ll'
I0
tp19
a(S'w'
I734
tp20
a(S'no_ll'
I0
tp21
a(S'w'
I733
tp22
a(S'no_ll'
I0
tp23
a(S'w'
I734
tp24
a(S'no_ll'
I0
tp25
a(S'w'
I1468
tp26
a(S'no_ll'
I0
tp27
a(S'w'
I734
tp28
a(S'no_ll'
I0
tp29
a(S'w'
I733
tp30
a(S'no_ll'
I0
tp31
a(S'w'
I732
tp32
a(S'p1_tl'
I1
tp33
a(S'w'
I2
tp34
a(S'p2_tl'
I1
tp35
a(S'w'
I2
tp36
a(S'tr_lr'
I48
tp37
a(S'tr_tl'
I1
tp38
a(S'w'
I2
tp39
a(S'w'
I1
tp40
a(S'ch_no'
I0
tp41
a(S'ch_tr'
I0
tp42
a(S'ch_p2'
I0
tp43
a(S'ch_p1'
I0
tp44
a(S'w'
I1
tp45
a(S'no_ll'
I1
tp46
a(S'tr_ll'
I1
tp47
a(S'w'
I1
tp48
a(S'p2_ll'
I1
tp49
a(S'w'
I1
tp50
a(S'p1_ll'
I1
tp51
a(S'tr_lr'
I0
tp52
a(S'ch_no'
I1
tp53
a(S'ch_tr'
I1
tp54
a(S'ch_p2'
I1
tp55
a(S'ch_p1'
I1
tp56
a(S'w'
I735
tp57
a(S'no_ll'
I0
tp58
a(S'w'
I12
tp59
a(S'tr_tl'
I0
tp60
a(S'tr_ll'
I0
tp61
a(S'w'
I22
tp62
a(S'p2_du'
I2
tp63
a(S'w'
I1
tp64
a(S'p2_tl'
I46
tp65
a(S'p2_ll'
I0
tp66
a(S'w'
I22
tp67
a(S'p1_du'
I2
tp68
a(S'w'
I1
tp69
a(S'p1_tl'
I124
tp70
a(S'p1_ll'
I0
tp71
a(S'p1_th'
I1
tp72
a(S'w'
I666
tp73
a(S'no_ll'
I0
tp74
a(S'w'
I17
tp75
a(S'p2_vo'
I1
tp76
a(S'w'
I10
tp77
a(S'p1_vo'
I1
tp78
a(S'w'
I706
tp79
a(S'no_ll'
I0
tp80
a(S'w'
I734
tp81
a(S'no_ll'
I0
tp82
a(S'w'
I17
tp83
a(S'p2_vo'
I2
tp84
a(S'w'
I10
tp85
a(S'p1_vo'
I2
tp86
a(S'w'
I707
tp87
a(S'no_ll'
I0
tp88
a(S'w'
I25
tp89
a(S'p2_tl'
I49
tp90
a(S'p2_ll'
I0
tp91
a(S'w'
I18
tp92
a(S'p1_tl'
I147
tp93
a(S'w'
I1
tp94
a(S'p1_ll'
I0
tp95
a(S'w'
I1424
tp96
a(S'no_ll'
I0
tp97
a(S'w'
I17
tp98
a(S'p2_vo'
I3
tp99
a(S'w'
I10
tp100
a(S'p1_vo'
I3
tp101
a(S'w'
I706
tp102
a(S'no_ll'
I0
tp103
a(S'w'
I734
tp104
a(S'no_ll'
I0
tp105
a(S'w'
I734
tp106
a(S'no_ll'
I0
tp107
a(S'w'
I23
tp108
a(S'p2_tl'
I55
tp109
a(S'w'
I1
tp110
a(S'p2_ll'
I0
tp111
a(S'w'
I17
tp112
a(S'p1_tl'
I196
tp113
a(S'p1_ll'
I0
tp114
a(S'w'
I693
tp115
a(S'no_ll'
I0
tp116
a(S'w'
I17
tp117
a(S'p2_vo'
I2
tp118
a(S'w'
I11
tp119
a(S'p1_vo'
I2
tp120
a(S'w'
I1439
tp121
a(S'no_ll'
I0
tp122
a(S'w'
I734
tp123
a(S'no_ll'
I0
tp124
a(S'w'
I734
tp125
a(S'no_ll'
I0
tp126
a(S'w'
I23
tp127
a(S'p2_tl'
I62
tp128
a(S'w'
I1
tp129
a(S'p2_ll'
I0
tp130
a(S'w'
I17
tp131
a(S'p1_tl'
I252
tp132
a(S'p1_ll'
I0
tp133
a(S'w'
I693
tp134
a(S'no_ll'
I0
tp135
a(S'w'
I734
tp136
a(S'no_ll'
I0
tp137
a(S'w'
I1467
tp138
a(S'no_ll'
I0
tp139
a(S'w'
I734
tp140
a(S'no_ll'
I0
tp141
a(S'w'
I23
tp142
a(S'p2_tl'
I41
tp143
a(S'w'
I1
tp144
a(S'p2_ll'
I0
tp145
a(S'w'
I17
tp146
a(S'p1_tl'
I82
tp147
a(S'p1_ll'
I0
tp148
a(S'w'
I693
tp149
a(S'no_ll'
I0
tp150
a(S'w'
I734
tp151
a(S'no_ll'
I0
tp152
a(S'w'
I733
tp153
a(S'no_ll'
I0
tp154
a(S'w'
I1468
tp155
a(S'no_ll'
I0
tp156
a(S'w'
I23
tp157
a(S'p2_tl'
I46
tp158
a(S'w'
I1
tp159
a(S'p2_ll'
I0
tp160
a(S'w'
I17
tp161
a(S'p1_tl'
I124
tp162
a(S'p1_ll'
I0
tp163
a(S'w'
I693
tp164
a(S'no_ll'
I0
tp165
a(S'w'
I733
tp166
a(S'no_ll'
I0
tp167
a(S'w'
I734
tp168
a(S'no_ll'
I0
tp169
a(S'w'
I734
tp170
a(S'no_ll'
I0
tp171
a(S'w'
I23
tp172
a(S'p2_tl'
I49
tp173
a(S'w'
I1
tp174
a(S'p2_ll'
I0
tp175
a(S'w'
I17
tp176
a(S'p1_tl'
I147
tp177
a(S'p1_ll'
I0
tp178
a(S'w'
I1427
tp179
a(S'no_ll'
I0
tp180
a(S'w'
I733
tp181
a(S'no_ll'
I0
tp182
a(S'w'
I734
tp183
a(S'no_ll'
I0
tp184
a(S'w'
I734
tp185
a(S'no_ll'
I0
tp186
a(S'w'
I23
tp187
a(S'p2_tl'
I55
tp188
a(S'w'
I1
tp189
a(S'p2_ll'
I0
tp190
a(S'w'
I17
tp191
a(S'p1_tl'
I196
tp192
a(S'p1_ll'
I0
tp193
a(S'w'
I693
tp194
a(S'no_ll'
I0
tp195
a(S'w'
I1467
tp196
a(S'no_ll'
I0
tp197
a(S'w'
I734
tp198
a(S'no_ll'
I0
tp199
a(S'w'
I734
tp200
a(S'no_ll'
I0
tp201
a(S'w'
I23
tp202
a(S'p2_tl'
I36
tp203
a(S'w'
I1
tp204
a(S'p2_ll'
I0
tp205
a(S'w'
I17
tp206
a(S'p1_tl'
I45
tp207
a(S'p1_ll'
I0
tp208
a(S'w'
I693
tp209
a(S'no_ll'
I0
tp210
a(S'w'
I734
tp211
a(S'no_ll'
I0
tp212
a(S'w'
I1467
tp213
a(S'no_ll'
I0
tp214
a(S'w'
I734
tp215
a(S'no_ll'
I0
tp216
a(S'w'
I23
tp217
a(S'p2_tl'
I41
tp218
a(S'w'
I1
tp219
a(S'p2_ll'
I0
tp220
a(S'w'
I17
tp221
a(S'p1_tl'
I82
tp222
a(S'p1_ll'
I0
tp223
a(S'w'
I693
tp224
a(S'no_ll'
I0
tp225
a(S'w'
I734
tp226
a(S'no_ll'
I0
tp227
a(S'w'
I733
tp228
a(S'no_ll'
I0
tp229
a(S'w'
I1468
tp230
a(S'no_ll'
I0
tp231
a(S'w'
I23
tp232
a(S'p2_tl'
I46
tp233
a(S'w'
I1
tp234
a(S'p2_ll'
I0
tp235
a(S'w'
I17
tp236
a(S'p1_tl'
I124
tp237
a(S'p1_ll'
I0
tp238
a(S'w'
I693
tp239
a(S'no_ll'
I0
tp240
a(S'w'
I733
tp241
a(S'no_ll'
I0
tp242
a(S'w'
I734
tp243
a(S'no_ll'
I0
tp244
a(S'w'
I734
tp245
a(S'no_ll'
I0
tp246
a(S'w'
I23
tp247
a(S'p2_tl'
I49
tp248
a(S'w'
I1
tp249
a(S'p2_ll'
I0
tp250
a(S'w'
I17
tp251
a(S'p1_tl'
I147
tp252
a(S'p1_ll'
I0
tp253
a(S'w'
I1427
tp254
a(S'no_ll'
I0
tp255
a(S'w'
I733
tp256
a(S'no_ll'
I0
tp257
a(S'w'
I734
tp258
a(S'no_ll'
I0
tp259
a(S'w'
I734
tp260
a(S'no_ll'
I0
tp261
a(S'w'
I23
tp262
a(S'p2_tl'
I34
tp263
a(S'w'
I1
tp264
a(S'p2_ll'
I0
tp265
a(S'w'
I17
tp266
a(S'p1_tl'
I28
tp267
a(S'p1_ll'
I0
tp268
a(S'w'
I693
tp269
a(S'no_ll'
I0
tp270
a(S'w'
I1467
tp271
a(S'no_ll'
I0
tp272
a(S'w'
I734
tp273
a(S'no_ll'
I0
tp274
a(S'w'
I734
tp275
a(S'no_ll'
I0
tp276
a(S'w'
I23
tp277
a(S'p2_tl'
I36
tp278
a(S'w'
I1
tp279
a(S'p2_ll'
I0
tp280
a(S'w'
I17
tp281
a(S'p1_tl'
I45
tp282
a(S'p1_ll'
I0
tp283
a(S'w'
I693
tp284
a(S'no_ll'
I0
tp285
a(S'w'
I734
tp286
a(S'no_ll'
I0
tp287
a(S'w'
I1467
tp288
a(S'no_ll'
I0
tp289
a(S'w'
I734
tp290
a(S'no_ll'
I0
tp291
a(S'w'
I23
tp292
a(S'p2_tl'
I41
tp293
a(S'w'
I1
tp294
a(S'p2_ll'
I0
tp295
a(S'w'
I17
tp296
a(S'p1_tl'
I82
tp297
a(S'p1_ll'
I0
tp298
a(S'w'
I693
tp299
a(S'no_ll'
I0
tp300
a(S'w'
I734
tp301
a(S'no_ll'
I0
tp302
a(S'w'
I733
tp303
a(S'no_ll'
I0
tp304
a(S'w'
I1479
tp305
a(S'no_ll'
I0
tp306
a(S'w'
I24
tp307
a(S'p2_tl'
I46
tp308
a(S'p2_ll'
I0
tp309
a(S'w'
I17
tp310
a(S'p1_tl'
I124
tp311
a(S'w'
I1
tp312
a(S'p1_ll'
I0
tp313
a(S'w'
I681
tp314
a(S'no_ll'
I0
tp315
a(S'w'
I733
tp316
a(S'no_ll'
I0
tp317
a(S'w'
I734
tp318
a(S'no_ll'
I0
tp319
a(S'w'
I734
tp320
a(S'no_ll'
I0
tp321
a(S'w'
I23
tp322
a(S'p2_tl'
I30
tp323
a(S'w'
I1
tp324
a(S'p2_ll'
I0
tp325
a(S'w'
I17
tp326
a(S'p1_tl'
I253
tp327
a(S'p1_ll'
I0
tp328
a(S'p1_th'
I0
tp329
a(S'w'
I1427
tp330
a(S'no_ll'
I0
tp331
a(S'w'
I733
tp332
a(S'no_ll'
I0
tp333
a(S'w'
I734
tp334
a(S'no_ll'
I0
tp335
a(S'w'
I734
tp336
a(S'no_ll'
I0
tp337
a(S'w'
I23
tp338
a(S'p2_tl'
I34
tp339
a(S'w'
I1
tp340
a(S'p2_ll'
I0
tp341
a(S'w'
I17
tp342
a(S'p1_tl'
I28
tp343
a(S'p1_ll'
I0
tp344
a(S'p1_th'
I1
tp345
a(S'w'
I693
tp346
a(S'no_ll'
I0
tp347
a(S'w'
I1467
tp348
a(S'no_ll'
I0
tp349
a(S'w'
I734
tp350
a(S'no_ll'
I0
tp351
a(S'w'
I734
tp352
a(S'no_ll'
I0
tp353
a(S'w'
I23
tp354
a(S'p2_tl'
I36
tp355
a(S'w'
I1
tp356
a(S'p2_ll'
I0
tp357
a(S'w'
I17
tp358
a(S'p1_tl'
I45
tp359
a(S'p1_ll'
I0
tp360
a(S'w'
I693
tp361
a(S'no_ll'
I0
tp362
a(S'w'
I734
tp363
a(S'no_ll'
I0
tp364
a(S'w'
I1467
tp365
a(S'no_ll'
I0
tp366
a(S'w'
I734
tp367
a(S'no_ll'
I0
tp368
a(S'w'
I23
tp369
a(S'p2_tl'
I41
tp370
a(S'w'
I1
tp371
a(S'p2_ll'
I0
tp372
a(S'w'
I17
tp373
a(S'p1_tl'
I82
tp374
a(S'p1_ll'
I0
tp375
a(S'w'
I693
tp376
a(S'no_ll'
I0
tp377
a(S'w'
I734
tp378
a(S'no_ll'
I0
tp379
a(S'w'
I733
tp380
a(S'no_ll'
I0
tp381
a(S'w'
I1468
tp382
a(S'no_ll'
I0
tp383
a(S'w'
I24
tp384
a(S'p2_vo'
I0
tp385
a(S'w'
I1
tp386
a(S'p2_tl'
I0
tp387
a(S'p2_ll'
I0
tp388
a(S'w'
I18
tp389
a(S'p1_vo'
I0
tp390
a(S'w'
I1
tp391
a(S'p1_tl'
I200
tp392
a(S'w'
I1
tp393
a(S'p1_ll'
I0
tp394
a(S'p1_th'
I0
tp395
a(S'w'
I689
tp396
a(S'no_ll'
I0
tp397
a(S'w'
I17
tp398
a(S'p2_vo'
I1
tp399
a(S'w'
I10
tp400
a(S'p1_vo'
I1
tp401
a(S'w'
I706
tp402
a(S'no_ll'
I0
tp403
a(S'w'
I734
tp404
a(S'no_ll'
I0
tp405
a(S'w'
I17
tp406
a(S'p2_vo'
I2
tp407
a(S'w'
I10
tp408
a(S'p1_vo'
I2
tp409
a(S'w'
I707
tp410
a(S'no_ll'
I0
tp411
a(S'w'
I25
tp412
a(S'p2_tl'
I27
tp413
a(S'p2_ll'
I0
tp414
a(S'w'
I18
tp415
a(S'p1_tl'
I225
tp416
a(S'w'
I1
tp417
a(S'p1_ll'
I0
tp418
a(S'w'
I1424
tp419
a(S'no_ll'
I0
tp420
a(S'w'
I17
tp421
a(S'p2_vo'
I3
tp422
a(S'w'
I10
tp423
a(S'p1_vo'
I3
tp424
a(S'w'
I706
tp425
a(S'no_ll'
I0
tp426
a(S'w'
I734
tp427
a(S'no_ll'
I0
tp428
a(S'w'
I734
tp429
a(S'no_ll'
I0
tp430
a(S'w'
I23
tp431
a(S'p2_tl'
I30
tp432
a(S'w'
I1
tp433
a(S'p2_ll'
I0
tp434
a(S'w'
I17
tp435
a(S'p1_tl'
I253
tp436
a(S'p1_ll'
I0
tp437
a(S'w'
I693
tp438
a(S'no_ll'
I0
tp439
a(S'w'
I17
tp440
a(S'p2_vo'
I2
tp441
a(S'w'
I11
tp442
a(S'p1_vo'
I2
tp443
a(S'w'
I1439
tp444
a(S'no_ll'
I0
tp445
a(S'w'
I734
tp446
a(S'no_ll'
I0
tp447
a(S'w'
I734
tp448
a(S'no_ll'
I0
tp449
a(S'w'
I23
tp450
a(S'p2_tl'
I34
tp451
a(S'w'
I1
tp452
a(S'p2_ll'
I0
tp453
a(S'w'
I17
tp454
a(S'p1_tl'
I28
tp455
a(S'p1_ll'
I0
tp456
a(S'p1_th'
I1
tp457
a(S'w'
I693
tp458
a(S'no_ll'
I0
tp459
a(S'w'
I734
tp460
a(S'no_ll'
I0
tp461
a(S'w'
I1467
tp462
a(S'no_ll'
I0
tp463
a(S'w'
I735
tp464
a(S'no_np'
I2
tp465
a(S'w'
I1
tp466
a(S'no_vo'
I6
tp467
a(S'no_ll'
I6
tp468
a(S'w'
I13
tp469
a(S'tr_lh'
I1
tp470
a(S'tr_lr'
I1
tp471
a(S'w'
I2
tp472
a(S'tr_ll'
I0
tp473
a(S'tr_th'
I1
tp474
a(S'tr_tl'
I103
tp475
a(S'w'
I18
tp476
a(S'p2_tl'
I46
tp477
a(S'p2_ll'
I0
tp478
a(S'w'
I18
tp479
a(S'p1_tl'
I124
tp480
a(S'p1_ll'
I0
tp481
a(S'w'
I680
tp482
a(S'no_np'
I3
tp483
a(S'w'
I1
tp484
a(S'no_vo'
I2
tp485
a(S'no_ll'
I6
tp486
a(S'w'
I7
tp487
a(S'tr_ll'
I0
tp488
a(S'tr_th'
I3
tp489
a(S'w'
I1
tp490
a(S'tr_tl'
I39
tp491
a(S'w'
I725
tp492
a(S'no_np'
I4
tp493
a(S'w'
I1
tp494
a(S'no_vo'
I1
tp495
a(S'no_ll'
I6
tp496
a(S'w'
I6
tp497
a(S'tr_tl'
I249
tp498
a(S'w'
I1
tp499
a(S'tr_ll'
I0
tp500
a(S'tr_th'
I2
tp501
a(S'w'
I726
tp502
a(S'no_vo'
I0
tp503
a(S'no_np'
I0
tp504
a(S'no_ll'
I0
tp505
a(S'w'
I7
tp506
a(S'tr_ll'
I0
tp507
a(S'w'
I1461
tp508
a(S'no_ll'
I0
tp509
a(S'w'
I734
tp510
a(S'no_ll'
I0
tp511
a(S'w'
I733
tp512
a(S'no_ll'
I0
tp513
a(S'w'
I734
tp514
a(S'no_ll'
I0
tp515
a(S'w'
I740
tp516
a(S'no_ll'
I0
tp517
a(S'w'
I15
tp518
a(S'tr_lh'
I0
tp519
a(S'tr_lr'
I0
tp520
a(S'w'
I28
tp521
a(S'p2_vo'
I0
tp522
a(S'w'
I1
tp523
a(S'p2_ll'
I0
tp524
a(S'w'
I8
tp525
a(S'ch_no'
I0
tp526
a(S'ch_tr'
I0
tp527
a(S'ch_p2'
I0
tp528
a(S'ch_p1'
I0
tp529
a(S'w'
I1
tp530
a(S'no_ll'
I1
tp531
a(S'tr_lr'
I48
tp532
a(S'tr_ll'
I1
tp533
a(S'tr_th'
I0
tp534
a(S'w'
I1
tp535
a(S'p2_du'
I0
tp536
a(S'p2_ll'
I1
tp537
a(S'w'
I1
tp538
a(S'p1_du'
I0
tp539
a(S'p1_vo'
I0
tp540
a(S'p1_ll'
I1
tp541
a(S'p1_th'
I0
tp542
a(S'tr_lr'
I0
tp543
a(S'w'
I1
tp544
a(S'ch_no'
I1
tp545
a(S'ch_tr'
I1
tp546
a(S'ch_p2'
I1
tp547
a(S'ch_p1'
I1
tp548
a(S'w'
I3794
tp549
a.