(lp1
(S'clock'
p2
I1789772
tp3
a(S'p1_du'
I3
tp4
a(S'p1_lh'
I1
tp5
a(S'p1_cv'
I1
tp6
a(S'p1_sp'
I7
tp7
a(S'p1_sn'
I1
tp8
a(S'p1_tl'
I240
tp9
a(S'p1_ll'
I1
tp10
a(S'p2_du'
I3
tp11
a(S'p2_lh'
I1
tp12
a(S'p2_cv'
I1
tp13
a(S'p2_sp'
I7
tp14
a(S'p2_sn'
I1
tp15
a(S'p2_tl'
I240
tp16
a(S'p2_ll'
I1
tp17
a(S'tr_lh'
I1
tp18
a(S'tr_tl'
I240
tp19
a(S'tr_ll'
I1
tp20
a(S'no_lh'
I1
tp21
a(S'no_cv'
I1
tp22
a(S'no_nl'
I1
tp23
a(S'no_ll'
I1
tp24
a(S'ch_no'
I1
tp25
a(S'ch_tr'
I1
tp26
a(S'ch_p2'
I1
tp27
a(S'ch_p1'
I1
tp28
a(S'fc_mo'
I1
tp29
a(S'p1_du'
I2
tp30
a(S'p1_vo'
I7
tp31
a(S'w'
I4
tp32
a(S'p1_tl'
I148
tp33
a(S'p1_ll'
I1
tp34
a(S'p1_th'
I1
tp35
a(S'w'
I11
tp36
a(S'tr_lr'
I127
tp37
a(S'w'
I1
tp38
a(S'tr_tl'
I148
tp39
a(S'w'
I1
tp40
a(S'tr_ll'
I1
tp41
a(S'tr_th'
I1
tp42
a(S'w'
I5816
tp43
a(S'p1_tl'
I64
tp44
a(S'w'
I1
tp45
a(S'p1_ll'
I1
tp46
a(S'w'
I2944
tp47
a(S'p2_du'
I2
tp48
a(S'p2_vo'
I4
tp49
a(S'w'
I4
tp50
a(S'p2_tl'
I148
tp51
a(S'p2_ll'
I1
tp52
a(S'p2_th'
I1
tp53
a(S'w'
I2922
tp54
a(S'p1_tl'
I29
tp55
a(S'p1_ll'
I1
tp56
a(S'w'
I2941
tp57
a(S'p2_tl'
I64
tp58
a(S'w'
I1
tp59
a(S'p2_ll'
I1
tp60
a(S'w'
I2928
tp61
a(S'p1_tl'
I240
tp62
a(S'w'
I1
tp63
a(S'p1_ll'
I1
tp64
a(S'p1_th'
I0
tp65
a(S'w'
I2940
tp66
a(S'p2_tl'
I29
tp67
a(S'w'
I1
tp68
a(S'p2_ll'
I1
tp69
a(S'w'
I2935
tp70
a(S'p1_tl'
I214
tp71
a(S'p1_ll'
I1
tp72
a(S'w'
I15
tp73
a(S'tr_tl'
I64
tp74
a(S'w'
I1
tp75
a(S'tr_ll'
I1
tp76
a(S'w'
I2919
tp77
a(S'p2_tl'
I240
tp78
a(S'p2_ll'
I1
tp79
a(S'p2_th'
I0
tp80
a(S'w'
I2929
tp81
a(S'p1_tl'
I160
tp82
a(S'p1_ll'
I1
tp83
a(S'w'
I2941
tp84
a(S'p2_tl'
I214
tp85
a(S'w'
I1
tp86
a(S'p2_ll'
I1
tp87
a(S'w'
I2934
tp88
a(S'p1_tl'
I143
tp89
a(S'w'
I1
tp90
a(S'p1_ll'
I1
tp91
a(S'w'
I15
tp92
a(S'tr_tl'
I29
tp93
a(S'tr_ll'
I1
tp94
a(S'w'
I2920
tp95
a(S'p2_tl'
I160
tp96
a(S'p2_ll'
I1
tp97
a(S'w'
I2929
tp98
a(S'p1_tl'
I120
tp99
a(S'p1_ll'
I1
tp100
a(S'w'
I2942
tp101
a(S'p2_tl'
I143
tp102
a(S'p2_ll'
I1
tp103
a(S'w'
I2942
tp104
a(S'p1_tl'
I107
tp105
a(S'p1_ll'
I1
tp106
a(S'w'
I10
tp107
a(S'w'
I1
tp108
a(S'p2_ll'
I1
tp109
a(S'w'
I8
tp110
a(S'tr_tl'
I214
tp111
a(S'w'
I1
tp112
a(S'tr_ll'
I1
tp113
a(S'tr_th'
I0
tp114
a(S'w'
I46929
tp115
a(S'p1_du'
I3
tp116
a(S'p1_vo'
I0
tp117
a(S'w'
I2
tp118
a(S'p2_du'
I3
tp119
a(S'p2_vo'
I0
tp120
a(S'w'
I1
tp121
a(S'tr_lr'
I0
tp122
a(S'w'
I1
tp123
a.