(lp1
(S'clock'
p2
I1789772
tp3
a(S'p1_du'
I3
tp4
a(S'p1_lh'
I1
tp5
a(S'p1_cv'
I1
tp6
a(S'p1_sp'
I7
tp7
a(S'p1_sn'
I1
tp8
a(S'p1_tl'
I240
tp9
a(S'p1_ll'
I1
tp10
a(S'p2_du'
I3
tp11
a(S'p2_lh'
I1
tp12
a(S'p2_cv'
I1
tp13
a(S'p2_sp'
I7
tp14
a(S'p2_sn'
I1
tp15
a(S'p2_tl'
I240
tp16
a(S'p2_ll'
I1
tp17
a(S'tr_lh'
I1
tp18
a(S'tr_tl'
I240
tp19
a(S'tr_ll'
I1
tp20
a(S'no_lh'
I1
tp21
a(S'no_cv'
I1
tp22
a(S'no_nl'
I1
tp23
a(S'no_ll'
I1
tp24
a(S'ch_no'
I1
tp25
a(S'ch_tr'
I1
tp26
a(S'ch_p2'
I1
tp27
a(S'ch_p1'
I1
tp28
a(S'fc_mo'
I1
tp29
a(S'p1_du'
I2
tp30
a(S'p1_vo'
I8
tp31
a(S'w'
I3
tp32
a(S'w'
I1
tp33
a(S'p1_tl'
I64
tp34
a(S'p1_ll'
I1
tp35
a(S'p1_th'
I1
tp36
a(S'w'
I7
tp37
a(S'p2_du'
I2
tp38
a(S'p2_vo'
I8
tp39
a(S'w'
I3
tp40
a(S'w'
I1
tp41
a(S'p2_tl'
I125
tp42
a(S'p2_ll'
I1
tp43
a(S'p2_th'
I1
tp44
a(S'w'
I8
tp45
a(S'tr_lr'
I127
tp46
a(S'w'
I1
tp47
a(S'tr_tl'
I125
tp48
a(S'tr_ll'
I1
tp49
a(S'tr_th'
I1
tp50
a(S'w'
I7
tp51
a(S'no_vo'
I5
tp52
a(S'w'
I2
tp53
a(S'no_nl'
I0
tp54
a(S'no_np'
I2
tp55
a(S'no_ll'
I3
tp56
a(S'w'
I1380
tp57
a(S'no_vo'
I0
tp58
a(S'w'
I716
tp59
a(S'p1_vo'
I6
tp60
a(S'w'
I9
tp61
a(S'p2_vo'
I6
tp62
a(S'w'
I1459
tp63
a(S'p1_vo'
I5
tp64
a(S'w'
I8
tp65
a(S'p2_vo'
I5
tp66
a(S'w'
I748
tp67
a(S'no_vo'
I5
tp68
a(S'w'
I2
tp69
a(S'no_ll'
I3
tp70
a(S'w'
I709
tp71
a(S'p1_vo'
I4
tp72
a(S'w'
I9
tp73
a(S'p2_vo'
I4
tp74
a(S'w'
I742
tp75
a(S'no_vo'
I0
tp76
a(S'w'
I2943
tp77
a(S'tr_tl'
I252
tp78
a(S'w'
I1
tp79
a(S'tr_ll'
I1
tp80
a(S'w'
I6
tp81
a(S'no_vo'
I5
tp82
a(S'w'
I3
tp83
a(S'no_ll'
I3
tp84
a(S'w'
I1450
tp85
a(S'no_vo'
I0
tp86
a(S'w'
I2940
tp87
a(S'no_vo'
I5
tp88
a(S'w'
I3
tp89
a(S'no_ll'
I3
tp90
a(S'w'
I1460
tp91
a(S'no_vo'
I0
tp92
a(S'w'
I2948
tp93
a(S'tr_tl'
I172
tp94
a(S'w'
I1
tp95
a(S'tr_ll'
I1
tp96
a(S'w'
I6
tp97
a(S'no_vo'
I7
tp98
a(S'w'
I2
tp99
a(S'no_np'
I9
tp100
a(S'w'
I1
tp101
a(S'no_ll'
I3
tp102
a(S'w'
I2179
tp103
a(S'no_vo'
I6
tp104
a(S'w'
I1467
tp105
a(S'no_vo'
I4
tp106
a(S'w'
I1468
tp107
a(S'no_vo'
I2
tp108
a(S'w'
I2201
tp109
a(S'no_vo'
I1
tp110
a(S'w'
I1481
tp111
a(S'tr_tl'
I125
tp112
a(S'tr_ll'
I1
tp113
a(S'w'
I7
tp114
a(S'no_vo'
I5
tp115
a(S'w'
I2
tp116
a(S'no_np'
I2
tp117
a(S'w'
I1
tp118
a(S'no_ll'
I3
tp119
a(S'w'
I1444
tp120
a(S'no_vo'
I0
tp121
a(S'w'
I2941
tp122
a(S'no_vo'
I5
tp123
a(S'w'
I2
tp124
a(S'no_ll'
I3
tp125
a(S'w'
I1460
tp126
a(S'no_vo'
I0
tp127
a(S'w'
I2943
tp128
a(S'no_vo'
I5
tp129
a(S'w'
I2
tp130
a(S'w'
I1
tp131
a(S'no_ll'
I3
tp132
a(S'w'
I1457
tp133
a(S'no_vo'
I0
tp134
a(S'w'
I2940
tp135
a(S'no_vo'
I5
tp136
a(S'w'
I2
tp137
a(S'w'
I1
tp138
a(S'no_ll'
I3
tp139
a(S'w'
I1460
tp140
a(S'no_vo'
I0
tp141
a(S'w'
I2943
tp142
a(S'tr_tl'
I252
tp143
a(S'w'
I1
tp144
a(S'tr_ll'
I1
tp145
a(S'w'
I6
tp146
a(S'no_vo'
I5
tp147
a(S'w'
I3
tp148
a(S'no_ll'
I3
tp149
a(S'w'
I1450
tp150
a(S'no_vo'
I0
tp151
a(S'w'
I2940
tp152
a(S'no_vo'
I5
tp153
a(S'w'
I2
tp154
a(S'w'
I1
tp155
a(S'no_ll'
I3
tp156
a(S'w'
I1460
tp157
a(S'no_vo'
I0
tp158
a(S'w'
I2948
tp159
a(S'tr_tl'
I172
tp160
a(S'tr_ll'
I1
tp161
a(S'w'
I6
tp162
a(S'no_vo'
I7
tp163
a(S'w'
I3
tp164
a(S'no_np'
I9
tp165
a(S'no_ll'
I3
tp166
a(S'w'
I2179
tp167
a(S'no_vo'
I6
tp168
a(S'w'
I1468
tp169
a(S'no_vo'
I4
tp170
a(S'w'
I1467
tp171
a(S'no_vo'
I2
tp172
a(S'w'
I2202
tp173
a(S'no_vo'
I1
tp174
a(S'w'
I1480
tp175
a(S'tr_tl'
I125
tp176
a(S'w'
I1
tp177
a(S'tr_ll'
I1
tp178
a(S'w'
I6
tp179
a(S'no_vo'
I5
tp180
a(S'w'
I3
tp181
a(S'no_np'
I2
tp182
a(S'no_ll'
I3
tp183
a(S'w'
I1445
tp184
a(S'no_vo'
I0
tp185
a(S'w'
I2940
tp186
a(S'no_vo'
I5
tp187
a(S'w'
I2
tp188
a(S'w'
I1
tp189
a(S'no_ll'
I3
tp190
a(S'w'
I1460
tp191
a(S'no_vo'
I0
tp192
a(S'w'
I730
tp193
a(S'tr_lr'
I0
tp194
a(S'w'
I2216
tp195
a(S'p1_vo'
I8
tp196
a(S'w'
I4
tp197
a(S'p1_tl'
I254
tp198
a(S'p1_ll'
I1
tp199
a(S'p1_th'
I0
tp200
a(S'w'
I6
tp201
a(S'p2_vo'
I8
tp202
a(S'w'
I4
tp203
a(S'p2_tl'
I64
tp204
a(S'w'
I1
tp205
a(S'p2_ll'
I1
tp206
a(S'w'
I8
tp207
a(S'tr_lr'
I127
tp208
a(S'w'
I1
tp209
a(S'tr_ll'
I1
tp210
a(S'w'
I6
tp211
a(S'no_vo'
I5
tp212
a(S'w'
I3
tp213
a(S'no_ll'
I3
tp214
a(S'w'
I1424
tp215
a(S'no_vo'
I0
tp216
a(S'w'
I716
tp217
a(S'p1_vo'
I6
tp218
a(S'w'
I9
tp219
a(S'p2_vo'
I6
tp220
a(S'w'
I1458
tp221
a(S'p1_vo'
I5
tp222
a(S'w'
I9
tp223
a(S'p2_vo'
I5
tp224
a(S'w'
I748
tp225
a(S'no_vo'
I5
tp226
a(S'w'
I2
tp227
a(S'no_ll'
I3
tp228
a(S'w'
I709
tp229
a(S'p1_vo'
I4
tp230
a(S'w'
I9
tp231
a(S'p2_vo'
I4
tp232
a(S'w'
I742
tp233
a(S'no_vo'
I0
tp234
a(S'w'
I2943
tp235
a(S'tr_tl'
I252
tp236
a(S'w'
I1
tp237
a(S'tr_ll'
I1
tp238
a(S'w'
I6
tp239
a(S'no_vo'
I5
tp240
a(S'w'
I3
tp241
a(S'no_ll'
I3
tp242
a(S'w'
I1450
tp243
a(S'no_vo'
I0
tp244
a(S'w'
I2940
tp245
a(S'no_vo'
I5
tp246
a(S'w'
I3
tp247
a(S'no_ll'
I3
tp248
a(S'w'
I1460
tp249
a(S'no_vo'
I0
tp250
a(S'w'
I2948
tp251
a(S'tr_tl'
I172
tp252
a(S'w'
I1
tp253
a(S'tr_ll'
I1
tp254
a(S'w'
I6
tp255
a(S'no_vo'
I7
tp256
a(S'w'
I2
tp257
a(S'no_np'
I9
tp258
a(S'w'
I1
tp259
a(S'no_ll'
I3
tp260
a(S'w'
I2179
tp261
a(S'no_vo'
I6
tp262
a(S'w'
I1467
tp263
a(S'no_vo'
I4
tp264
a(S'w'
I1468
tp265
a(S'no_vo'
I2
tp266
a(S'w'
I2201
tp267
a(S'no_vo'
I1
tp268
a(S'w'
I1481
tp269
a(S'tr_tl'
I125
tp270
a(S'tr_ll'
I1
tp271
a(S'w'
I7
tp272
a(S'no_vo'
I5
tp273
a(S'w'
I2
tp274
a(S'no_np'
I2
tp275
a(S'w'
I1
tp276
a(S'no_ll'
I3
tp277
a(S'w'
I1444
tp278
a(S'no_vo'
I0
tp279
a(S'w'
I2940
tp280
a(S'no_vo'
I5
tp281
a(S'w'
I3
tp282
a(S'no_ll'
I3
tp283
a(S'w'
I1460
tp284
a(S'no_vo'
I0
tp285
a(S'w'
I2943
tp286
a(S'no_vo'
I5
tp287
a(S'w'
I2
tp288
a(S'w'
I1
tp289
a(S'no_ll'
I3
tp290
a(S'w'
I1457
tp291
a(S'no_vo'
I0
tp292
a(S'w'
I2940
tp293
a(S'no_vo'
I5
tp294
a(S'w'
I2
tp295
a(S'w'
I1
tp296
a(S'no_ll'
I3
tp297
a(S'w'
I1460
tp298
a(S'no_vo'
I0
tp299
a(S'w'
I2943
tp300
a(S'tr_tl'
I252
tp301
a(S'w'
I1
tp302
a(S'tr_ll'
I1
tp303
a(S'w'
I6
tp304
a(S'no_vo'
I5
tp305
a(S'w'
I2
tp306
a(S'w'
I1
tp307
a(S'no_ll'
I3
tp308
a(S'w'
I1450
tp309
a(S'no_vo'
I0
tp310
a(S'w'
I2940
tp311
a(S'no_vo'
I5
tp312
a(S'w'
I2
tp313
a(S'w'
I1
tp314
a(S'no_ll'
I3
tp315
a(S'w'
I1459
tp316
a(S'no_vo'
I0
tp317
a(S'w'
I2949
tp318
a(S'tr_tl'
I172
tp319
a(S'tr_ll'
I1
tp320
a(S'w'
I6
tp321
a(S'no_vo'
I7
tp322
a(S'w'
I3
tp323
a(S'no_np'
I9
tp324
a(S'no_ll'
I3
tp325
a(S'w'
I2179
tp326
a(S'no_vo'
I6
tp327
a(S'w'
I1468
tp328
a(S'no_vo'
I4
tp329
a(S'w'
I1467
tp330
a(S'no_vo'
I2
tp331
a(S'w'
I2202
tp332
a(S'no_vo'
I1
tp333
a(S'w'
I1480
tp334
a(S'tr_tl'
I125
tp335
a(S'w'
I1
tp336
a(S'tr_ll'
I1
tp337
a(S'w'
I6
tp338
a(S'no_vo'
I5
tp339
a(S'w'
I3
tp340
a(S'no_np'
I2
tp341
a(S'no_ll'
I3
tp342
a(S'w'
I1445
tp343
a(S'no_vo'
I0
tp344
a(S'w'
I2940
tp345
a(S'no_vo'
I5
tp346
a(S'w'
I2
tp347
a(S'w'
I1
tp348
a(S'no_ll'
I3
tp349
a(S'w'
I1460
tp350
a(S'no_vo'
I0
tp351
a(S'w'
I730
tp352
a(S'tr_lr'
I0
tp353
a(S'w'
I2216
tp354
a(S'p1_vo'
I8
tp355
a(S'w'
I3
tp356
a(S'p1_tl'
I13
tp357
a(S'w'
I1
tp358
a(S'p1_ll'
I1
tp359
a(S'p1_th'
I1
tp360
a(S'w'
I6
tp361
a(S'p2_vo'
I8
tp362
a(S'w'
I4
tp363
a(S'p2_tl'
I83
tp364
a(S'w'
I1
tp365
a(S'p2_ll'
I1
tp366
a(S'w'
I8
tp367
a(S'tr_lr'
I127
tp368
a(S'w'
I1
tp369
a(S'tr_ll'
I1
tp370
a(S'w'
I6
tp371
a(S'no_vo'
I5
tp372
a(S'w'
I3
tp373
a(S'no_ll'
I3
tp374
a(S'w'
I1423
tp375
a(S'no_vo'
I0
tp376
a(S'w'
I717
tp377
a(S'p1_vo'
I6
tp378
a(S'w'
I9
tp379
a(S'p2_vo'
I6
tp380
a(S'w'
I1458
tp381
a(S'p1_vo'
I5
tp382
a(S'w'
I9
tp383
a(S'p2_vo'
I5
tp384
a(S'w'
I747
tp385
a(S'no_vo'
I5
tp386
a(S'w'
I3
tp387
a(S'no_ll'
I3
tp388
a(S'w'
I709
tp389
a(S'p1_vo'
I4
tp390
a(S'w'
I9
tp391
a(S'p2_vo'
I4
tp392
a(S'w'
I742
tp393
a(S'no_vo'
I0
tp394
a(S'w'
I2943
tp395
a(S'tr_tl'
I252
tp396
a(S'w'
I1
tp397
a(S'tr_ll'
I1
tp398
a(S'w'
I6
tp399
a(S'no_vo'
I5
tp400
a(S'w'
I3
tp401
a(S'no_ll'
I3
tp402
a(S'w'
I1450
tp403
a(S'no_vo'
I0
tp404
a(S'w'
I2940
tp405
a(S'no_vo'
I5
tp406
a(S'w'
I2
tp407
a(S'w'
I1
tp408
a(S'no_ll'
I3
tp409
a(S'w'
I1460
tp410
a(S'no_vo'
I0
tp411
a(S'w'
I2948
tp412
a(S'tr_tl'
I172
tp413
a(S'tr_ll'
I1
tp414
a(S'w'
I7
tp415
a(S'no_vo'
I7
tp416
a(S'w'
I2
tp417
a(S'no_np'
I9
tp418
a(S'w'
I1
tp419
a(S'no_ll'
I3
tp420
a(S'w'
I2178
tp421
a(S'no_vo'
I6
tp422
a(S'w'
I1468
tp423
a(S'no_vo'
I4
tp424
a(S'w'
I1468
tp425
a(S'no_vo'
I2
tp426
a(S'w'
I2201
tp427
a(S'no_vo'
I1
tp428
a(S'w'
I1481
tp429
a(S'tr_tl'
I125
tp430
a(S'tr_ll'
I1
tp431
a(S'w'
I7
tp432
a(S'no_vo'
I5
tp433
a(S'w'
I2
tp434
a(S'no_np'
I2
tp435
a(S'w'
I1
tp436
a(S'no_ll'
I3
tp437
a(S'w'
I1444
tp438
a(S'no_vo'
I0
tp439
a(S'w'
I2940
tp440
a(S'no_vo'
I5
tp441
a(S'w'
I3
tp442
a(S'no_ll'
I3
tp443
a(S'w'
I1460
tp444
a(S'no_vo'
I0
tp445
a(S'w'
I2943
tp446
a(S'no_vo'
I5
tp447
a(S'w'
I2
tp448
a(S'w'
I1
tp449
a(S'no_ll'
I3
tp450
a(S'w'
I1457
tp451
a(S'no_vo'
I0
tp452
a(S'w'
I2940
tp453
a(S'no_vo'
I5
tp454
a(S'w'
I2
tp455
a(S'w'
I1
tp456
a(S'no_ll'
I3
tp457
a(S'w'
I1460
tp458
a(S'no_vo'
I0
tp459
a(S'w'
I2943
tp460
a(S'tr_tl'
I252
tp461
a(S'w'
I1
tp462
a(S'tr_ll'
I1
tp463
a(S'w'
I6
tp464
a(S'no_vo'
I5
tp465
a(S'w'
I2
tp466
a(S'w'
I1
tp467
a(S'no_ll'
I3
tp468
a(S'w'
I1450
tp469
a(S'no_vo'
I0
tp470
a(S'w'
I2940
tp471
a(S'no_vo'
I5
tp472
a(S'w'
I2
tp473
a(S'no_ll'
I3
tp474
a(S'w'
I1460
tp475
a(S'no_vo'
I0
tp476
a(S'w'
I2948
tp477
a(S'tr_tl'
I172
tp478
a(S'w'
I1
tp479
a(S'tr_ll'
I1
tp480
a(S'w'
I6
tp481
a(S'no_vo'
I7
tp482
a(S'w'
I3
tp483
a(S'no_np'
I9
tp484
a(S'no_ll'
I3
tp485
a(S'w'
I2179
tp486
a(S'no_vo'
I6
tp487
a(S'w'
I1468
tp488
a(S'no_vo'
I4
tp489
a(S'w'
I1467
tp490
a(S'no_vo'
I2
tp491
a(S'w'
I2202
tp492
a(S'no_vo'
I1
tp493
a(S'w'
I1480
tp494
a(S'tr_tl'
I125
tp495
a(S'w'
I1
tp496
a(S'tr_ll'
I1
tp497
a(S'w'
I6
tp498
a(S'no_vo'
I5
tp499
a(S'w'
I3
tp500
a(S'no_np'
I2
tp501
a(S'no_ll'
I3
tp502
a(S'w'
I1445
tp503
a(S'no_vo'
I0
tp504
a(S'w'
I2940
tp505
a(S'no_vo'
I5
tp506
a(S'w'
I2
tp507
a(S'w'
I1
tp508
a(S'no_ll'
I3
tp509
a(S'w'
I1460
tp510
a(S'no_vo'
I0
tp511
a(S'w'
I730
tp512
a(S'tr_lr'
I0
tp513
a(S'w'
I2216
tp514
a(S'p1_vo'
I8
tp515
a(S'w'
I4
tp516
a(S'p1_tl'
I29
tp517
a(S'p1_ll'
I1
tp518
a(S'w'
I7
tp519
a(S'p2_vo'
I8
tp520
a(S'w'
I3
tp521
a(S'p2_tl'
I104
tp522
a(S'w'
I1
tp523
a(S'p2_ll'
I1
tp524
a(S'w'
I8
tp525
a(S'tr_lr'
I127
tp526
a(S'w'
I1
tp527
a(S'tr_ll'
I1
tp528
a(S'w'
I7
tp529
a(S'no_vo'
I5
tp530
a(S'w'
I2
tp531
a(S'no_ll'
I3
tp532
a(S'w'
I1423
tp533
a(S'no_vo'
I0
tp534
a(S'w'
I717
tp535
a(S'p1_vo'
I6
tp536
a(S'w'
I9
tp537
a(S'p2_vo'
I6
tp538
a(S'w'
I1458
tp539
a(S'p1_vo'
I5
tp540
a(S'w'
I9
tp541
a(S'p2_vo'
I5
tp542
a(S'w'
I747
tp543
a(S'no_vo'
I5
tp544
a(S'w'
I3
tp545
a(S'no_ll'
I3
tp546
a(S'w'
I709
tp547
a(S'p1_vo'
I4
tp548
a(S'w'
I9
tp549
a(S'p2_vo'
I4
tp550
a(S'w'
I742
tp551
a(S'no_vo'
I0
tp552
a(S'w'
I2943
tp553
a(S'tr_tl'
I252
tp554
a(S'w'
I1
tp555
a(S'tr_ll'
I1
tp556
a(S'w'
I6
tp557
a(S'no_vo'
I5
tp558
a(S'w'
I3
tp559
a(S'no_ll'
I3
tp560
a(S'w'
I1450
tp561
a(S'no_vo'
I0
tp562
a(S'w'
I2940
tp563
a(S'no_vo'
I5
tp564
a(S'w'
I2
tp565
a(S'w'
I1
tp566
a(S'no_ll'
I3
tp567
a(S'w'
I1460
tp568
a(S'no_vo'
I0
tp569
a(S'w'
I2948
tp570
a(S'tr_tl'
I172
tp571
a(S'tr_ll'
I1
tp572
a(S'w'
I7
tp573
a(S'no_vo'
I7
tp574
a(S'w'
I2
tp575
a(S'no_np'
I9
tp576
a(S'w'
I1
tp577
a(S'no_ll'
I3
tp578
a(S'w'
I2178
tp579
a(S'no_vo'
I6
tp580
a(S'w'
I1468
tp581
a(S'no_vo'
I4
tp582
a(S'w'
I1468
tp583
a(S'no_vo'
I2
tp584
a(S'w'
I2201
tp585
a(S'no_vo'
I1
tp586
a(S'w'
I1481
tp587
a(S'tr_tl'
I125
tp588
a(S'tr_ll'
I1
tp589
a(S'w'
I7
tp590
a(S'no_vo'
I5
tp591
a(S'w'
I2
tp592
a(S'no_np'
I2
tp593
a(S'no_ll'
I3
tp594
a(S'w'
I1445
tp595
a(S'no_vo'
I0
tp596
a(S'w'
I2940
tp597
a(S'no_vo'
I5
tp598
a(S'w'
I3
tp599
a(S'no_ll'
I3
tp600
a(S'w'
I1460
tp601
a(S'no_vo'
I0
tp602
a(S'w'
I2937
tp603
a(S'p1_vo'
I8
tp604
a(S'w'
I4
tp605
a(S'p1_tl'
I64
tp606
a(S'w'
I1
tp607
a(S'p1_ll'
I1
tp608
a(S'w'
I6
tp609
a(S'p2_vo'
I8
tp610
a(S'w'
I4
tp611
a(S'p2_tl'
I125
tp612
a(S'p2_ll'
I1
tp613
a(S'w'
I12
tp614
a(S'no_vo'
I5
tp615
a(S'w'
I2
tp616
a(S'w'
I1
tp617
a(S'no_ll'
I3
tp618
a(S'w'
I1436
tp619
a(S'no_vo'
I0
tp620
a(S'w'
I716
tp621
a(S'p1_vo'
I6
tp622
a(S'w'
I9
tp623
a(S'p2_vo'
I6
tp624
a(S'w'
I1459
tp625
a(S'p1_vo'
I5
tp626
a(S'w'
I9
tp627
a(S'p2_vo'
I5
tp628
a(S'w'
I747
tp629
a(S'no_vo'
I5
tp630
a(S'w'
I2
tp631
a(S'w'
I1
tp632
a(S'no_ll'
I3
tp633
a(S'w'
I708
tp634
a(S'p1_vo'
I4
tp635
a(S'w'
I9
tp636
a(S'p2_vo'
I4
tp637
a(S'w'
I743
tp638
a(S'no_vo'
I0
tp639
a(S'w'
I2943
tp640
a(S'tr_tl'
I252
tp641
a(S'w'
I1
tp642
a(S'tr_ll'
I1
tp643
a(S'w'
I6
tp644
a(S'no_vo'
I5
tp645
a(S'w'
I2
tp646
a(S'w'
I1
tp647
a(S'no_ll'
I3
tp648
a(S'w'
I1450
tp649
a(S'no_vo'
I0
tp650
a(S'w'
I2940
tp651
a(S'no_vo'
I5
tp652
a(S'w'
I2
tp653
a(S'no_ll'
I3
tp654
a(S'w'
I1460
tp655
a(S'no_vo'
I0
tp656
a(S'w'
I2948
tp657
a(S'tr_tl'
I125
tp658
a(S'w'
I1
tp659
a(S'tr_ll'
I1
tp660
a(S'w'
I6
tp661
a(S'no_vo'
I7
tp662
a(S'w'
I3
tp663
a(S'no_np'
I9
tp664
a(S'no_ll'
I3
tp665
a(S'w'
I2179
tp666
a(S'no_vo'
I6
tp667
a(S'w'
I1468
tp668
a(S'no_vo'
I4
tp669
a(S'w'
I1467
tp670
a(S'no_vo'
I2
tp671
a(S'w'
I2202
tp672
a(S'no_vo'
I1
tp673
a(S'w'
I1480
tp674
a(S'tr_tl'
I148
tp675
a(S'tr_ll'
I1
tp676
a(S'w'
I7
tp677
a(S'no_vo'
I5
tp678
a(S'w'
I2
tp679
a(S'no_np'
I2
tp680
a(S'w'
I1
tp681
a(S'no_ll'
I3
tp682
a(S'w'
I1445
tp683
a(S'no_vo'
I0
tp684
a(S'w'
I2940
tp685
a(S'no_vo'
I5
tp686
a(S'w'
I2
tp687
a(S'w'
I1
tp688
a(S'no_ll'
I3
tp689
a(S'w'
I1460
tp690
a(S'no_vo'
I0
tp691
a(S'w'
I2947
tp692
a(S'p1_vo'
I8
tp693
a(S'w'
I4
tp694
a(S'p1_tl'
I83
tp695
a(S'p1_ll'
I1
tp696
a(S'w'
I7
tp697
a(S'p2_vo'
I8
tp698
a(S'w'
I3
tp699
a(S'p2_tl'
I172
tp700
a(S'w'
I1
tp701
a(S'p2_ll'
I1
tp702
a(S'w'
I9
tp703
a(S'tr_tl'
I172
tp704
a(S'tr_ll'
I1
tp705
a(S'w'
I7
tp706
a(S'no_vo'
I5
tp707
a(S'w'
I2
tp708
a(S'no_ll'
I3
tp709
a(S'w'
I1422
tp710
a(S'no_vo'
I0
tp711
a(S'w'
I717
tp712
a(S'p1_vo'
I6
tp713
a(S'w'
I8
tp714
a(S'p2_vo'
I6
tp715
a(S'w'
I1459
tp716
a(S'p1_vo'
I5
tp717
a(S'w'
I9
tp718
a(S'p2_vo'
I5
tp719
a(S'w'
I747
tp720
a(S'no_vo'
I5
tp721
a(S'w'
I3
tp722
a(S'no_ll'
I3
tp723
a(S'w'
I709
tp724
a(S'p1_vo'
I4
tp725
a(S'w'
I9
tp726
a(S'p2_vo'
I4
tp727
a(S'w'
I742
tp728
a(S'no_vo'
I0
tp729
a(S'w'
I2943
tp730
a(S'tr_tl'
I59
tp731
a(S'w'
I1
tp732
a(S'tr_ll'
I1
tp733
a(S'tr_th'
I2
tp734
a(S'w'
I6
tp735
a(S'no_vo'
I5
tp736
a(S'w'
I2
tp737
a(S'w'
I1
tp738
a(S'no_ll'
I3
tp739
a(S'w'
I1450
tp740
a(S'no_vo'
I0
tp741
a(S'w'
I2940
tp742
a(S'no_vo'
I5
tp743
a(S'w'
I2
tp744
a(S'w'
I1
tp745
a(S'no_ll'
I3
tp746
a(S'w'
I1460
tp747
a(S'no_vo'
I0
tp748
a(S'w'
I2948
tp749
a(S'tr_tl'
I224
tp750
a(S'tr_ll'
I1
tp751
a(S'tr_th'
I1
tp752
a(S'w'
I7
tp753
a(S'no_vo'
I7
tp754
a(S'w'
I2
tp755
a(S'no_np'
I9
tp756
a(S'w'
I1
tp757
a(S'no_ll'
I3
tp758
a(S'w'
I2178
tp759
a(S'no_vo'
I6
tp760
a(S'w'
I1468
tp761
a(S'no_vo'
I4
tp762
a(S'w'
I1468
tp763
a(S'no_vo'
I2
tp764
a(S'w'
I2201
tp765
a(S'no_vo'
I1
tp766
a(S'w'
I1481
tp767
a(S'tr_tl'
I172
tp768
a(S'tr_ll'
I1
tp769
a(S'w'
I7
tp770
a(S'no_vo'
I5
tp771
a(S'w'
I2
tp772
a(S'no_np'
I2
tp773
a(S'no_ll'
I3
tp774
a(S'w'
I1445
tp775
a(S'no_vo'
I0
tp776
a(S'w'
I2940
tp777
a(S'no_vo'
I5
tp778
a(S'w'
I3
tp779
a(S'no_ll'
I3
tp780
a(S'w'
I1460
tp781
a(S'no_vo'
I0
tp782
a(S'w'
I2943
tp783
a(S'no_vo'
I5
tp784
a(S'w'
I2
tp785
a(S'w'
I1
tp786
a(S'no_ll'
I3
tp787
a(S'w'
I1457
tp788
a(S'no_vo'
I0
tp789
a(S'w'
I2940
tp790
a(S'no_vo'
I5
tp791
a(S'w'
I2
tp792
a(S'w'
I1
tp793
a(S'no_ll'
I3
tp794
a(S'w'
I1460
tp795
a(S'no_vo'
I0
tp796
a(S'w'
I2943
tp797
a(S'tr_tl'
I59
tp798
a(S'w'
I1
tp799
a(S'tr_ll'
I1
tp800
a(S'tr_th'
I2
tp801
a(S'w'
I6
tp802
a(S'no_vo'
I5
tp803
a(S'w'
I2
tp804
a(S'w'
I1
tp805
a(S'no_ll'
I3
tp806
a(S'w'
I1449
tp807
a(S'no_vo'
I0
tp808
a(S'w'
I2941
tp809
a(S'no_vo'
I5
tp810
a(S'w'
I2
tp811
a(S'no_ll'
I3
tp812
a(S'w'
I1460
tp813
a(S'no_vo'
I0
tp814
a(S'w'
I2948
tp815
a(S'tr_tl'
I224
tp816
a(S'w'
I1
tp817
a(S'tr_ll'
I1
tp818
a(S'tr_th'
I1
tp819
a(S'w'
I6
tp820
a(S'no_vo'
I7
tp821
a(S'w'
I3
tp822
a(S'no_np'
I9
tp823
a(S'no_ll'
I3
tp824
a(S'w'
I2179
tp825
a(S'no_vo'
I6
tp826
a(S'w'
I1468
tp827
a(S'no_vo'
I4
tp828
a(S'w'
I1467
tp829
a(S'no_vo'
I2
tp830
a(S'w'
I2201
tp831
a(S'no_vo'
I1
tp832
a(S'w'
I1481
tp833
a(S'tr_tl'
I172
tp834
a(S'w'
I1
tp835
a(S'tr_ll'
I1
tp836
a(S'w'
I6
tp837
a(S'no_vo'
I5
tp838
a(S'w'
I2
tp839
a(S'no_np'
I2
tp840
a(S'w'
I1
tp841
a(S'no_ll'
I3
tp842
a(S'w'
I1445
tp843
a(S'no_vo'
I0
tp844
a(S'w'
I2940
tp845
a(S'no_vo'
I5
tp846
a(S'w'
I2
tp847
a(S'w'
I1
tp848
a(S'no_ll'
I3
tp849
a(S'w'
I1460
tp850
a(S'no_vo'
I0
tp851
a(S'w'
I730
tp852
a(S'tr_lr'
I0
tp853
a(S'w'
I2215
tp854
a(S'p1_vo'
I8
tp855
a(S'w'
I4
tp856
a(S'p1_tl'
I172
tp857
a(S'w'
I1
tp858
a(S'p1_ll'
I1
tp859
a(S'w'
I6
tp860
a(S'p2_vo'
I8
tp861
a(S'w'
I4
tp862
a(S'p2_tl'
I59
tp863
a(S'p2_ll'
I1
tp864
a(S'p2_th'
I2
tp865
a(S'w'
I8
tp866
a(S'tr_lr'
I127
tp867
a(S'w'
I2
tp868
a(S'tr_ll'
I1
tp869
a(S'w'
I6
tp870
a(S'no_vo'
I5
tp871
a(S'w'
I2
tp872
a(S'w'
I1
tp873
a(S'no_ll'
I3
tp874
a(S'w'
I1423
tp875
a(S'no_vo'
I0
tp876
a(S'w'
I717
tp877
a(S'p1_vo'
I6
tp878
a(S'w'
I8
tp879
a(S'p2_vo'
I6
tp880
a(S'w'
I1459
tp881
a(S'p1_vo'
I5
tp882
a(S'w'
I9
tp883
a(S'p2_vo'
I5
tp884
a(S'w'
I747
tp885
a(S'no_vo'
I5
tp886
a(S'w'
I3
tp887
a(S'no_ll'
I3
tp888
a(S'w'
I709
tp889
a(S'p1_vo'
I4
tp890
a(S'w'
I9
tp891
a(S'p2_vo'
I4
tp892
a(S'w'
I742
tp893
a(S'no_vo'
I0
tp894
a(S'w'
I2943
tp895
a(S'tr_tl'
I59
tp896
a(S'w'
I1
tp897
a(S'tr_ll'
I1
tp898
a(S'tr_th'
I2
tp899
a(S'w'
I6
tp900
a(S'no_vo'
I5
tp901
a(S'w'
I2
tp902
a(S'w'
I1
tp903
a(S'no_ll'
I3
tp904
a(S'w'
I1450
tp905
a(S'no_vo'
I0
tp906
a(S'w'
I2940
tp907
a(S'no_vo'
I5
tp908
a(S'w'
I2
tp909
a(S'w'
I1
tp910
a(S'no_ll'
I3
tp911
a(S'w'
I1460
tp912
a(S'no_vo'
I0
tp913
a(S'w'
I2948
tp914
a(S'tr_tl'
I224
tp915
a(S'tr_ll'
I1
tp916
a(S'tr_th'
I1
tp917
a(S'w'
I7
tp918
a(S'no_vo'
I7
tp919
a(S'w'
I2
tp920
a(S'no_np'
I9
tp921
a(S'w'
I1
tp922
a(S'no_ll'
I3
tp923
a(S'w'
I2178
tp924
a(S'no_vo'
I6
tp925
a(S'w'
I1468
tp926
a(S'no_vo'
I4
tp927
a(S'w'
I1468
tp928
a(S'no_vo'
I2
tp929
a(S'w'
I2201
tp930
a(S'no_vo'
I1
tp931
a(S'w'
I1481
tp932
a(S'tr_tl'
I172
tp933
a(S'tr_ll'
I1
tp934
a(S'w'
I7
tp935
a(S'no_vo'
I5
tp936
a(S'w'
I2
tp937
a(S'no_np'
I2
tp938
a(S'no_ll'
I3
tp939
a(S'w'
I1445
tp940
a(S'no_vo'
I0
tp941
a(S'w'
I2940
tp942
a(S'no_vo'
I5
tp943
a(S'w'
I3
tp944
a(S'no_ll'
I3
tp945
a(S'w'
I1460
tp946
a(S'no_vo'
I0
tp947
a(S'w'
I2943
tp948
a(S'no_vo'
I5
tp949
a(S'w'
I2
tp950
a(S'no_ll'
I3
tp951
a(S'w'
I1458
tp952
a(S'no_vo'
I0
tp953
a(S'w'
I2940
tp954
a(S'no_vo'
I5
tp955
a(S'w'
I2
tp956
a(S'w'
I1
tp957
a(S'no_ll'
I3
tp958
a(S'w'
I1460
tp959
a(S'no_vo'
I0
tp960
a(S'w'
I2943
tp961
a(S'tr_tl'
I59
tp962
a(S'tr_ll'
I1
tp963
a(S'tr_th'
I2
tp964
a(S'w'
I7
tp965
a(S'no_vo'
I5
tp966
a(S'w'
I2
tp967
a(S'w'
I1
tp968
a(S'no_ll'
I3
tp969
a(S'w'
I1449
tp970
a(S'no_vo'
I0
tp971
a(S'w'
I2940
tp972
a(S'no_vo'
I5
tp973
a(S'w'
I3
tp974
a(S'no_ll'
I3
tp975
a(S'w'
I1460
tp976
a(S'no_vo'
I0
tp977
a(S'w'
I2948
tp978
a(S'tr_tl'
I224
tp979
a(S'w'
I1
tp980
a(S'tr_ll'
I1
tp981
a(S'tr_th'
I1
tp982
a(S'w'
I6
tp983
a(S'no_vo'
I7
tp984
a(S'w'
I3
tp985
a(S'no_np'
I9
tp986
a(S'no_ll'
I3
tp987
a(S'w'
I2179
tp988
a(S'no_vo'
I6
tp989
a(S'w'
I1467
tp990
a(S'no_vo'
I4
tp991
a(S'w'
I1468
tp992
a(S'no_vo'
I2
tp993
a(S'w'
I2201
tp994
a(S'no_vo'
I1
tp995
a(S'w'
I1481
tp996
a(S'tr_tl'
I172
tp997
a(S'w'
I1
tp998
a(S'tr_ll'
I1
tp999
a(S'w'
I6
tp1000
a(S'no_vo'
I5
tp1001
a(S'w'
I2
tp1002
a(S'no_np'
I2
tp1003
a(S'w'
I1
tp1004
a(S'no_ll'
I3
tp1005
a(S'w'
I1445
tp1006
a(S'no_vo'
I0
tp1007
a(S'w'
I2940
tp1008
a(S'no_vo'
I5
tp1009
a(S'w'
I2
tp1010
a(S'no_ll'
I3
tp1011
a(S'w'
I1460
tp1012
a(S'no_vo'
I0
tp1013
a(S'w'
I731
tp1014
a(S'tr_lr'
I0
tp1015
a(S'w'
I2215
tp1016
a(S'p1_vo'
I8
tp1017
a(S'w'
I4
tp1018
a(S'p1_tl'
I29
tp1019
a(S'w'
I1
tp1020
a(S'p1_ll'
I1
tp1021
a(S'w'
I6
tp1022
a(S'p2_vo'
I8
tp1023
a(S'w'
I4
tp1024
a(S'p2_tl'
I83
tp1025
a(S'p2_ll'
I1
tp1026
a(S'p2_th'
I1
tp1027
a(S'w'
I8
tp1028
a(S'tr_lr'
I127
tp1029
a(S'w'
I2
tp1030
a(S'tr_ll'
I1
tp1031
a(S'w'
I6
tp1032
a(S'no_vo'
I5
tp1033
a(S'w'
I2
tp1034
a(S'w'
I1
tp1035
a(S'no_ll'
I3
tp1036
a(S'w'
I1423
tp1037
a(S'no_vo'
I0
tp1038
a(S'w'
I717
tp1039
a(S'p1_vo'
I6
tp1040
a(S'w'
I8
tp1041
a(S'p2_vo'
I6
tp1042
a(S'w'
I1459
tp1043
a(S'p1_vo'
I5
tp1044
a(S'w'
I9
tp1045
a(S'p2_vo'
I5
tp1046
a(S'w'
I747
tp1047
a(S'no_vo'
I5
tp1048
a(S'w'
I3
tp1049
a(S'no_ll'
I3
tp1050
a(S'w'
I709
tp1051
a(S'p1_vo'
I4
tp1052
a(S'w'
I9
tp1053
a(S'p2_vo'
I4
tp1054
a(S'w'
I742
tp1055
a(S'no_vo'
I0
tp1056
a(S'w'
I2943
tp1057
a(S'tr_tl'
I59
tp1058
a(S'w'
I1
tp1059
a(S'tr_ll'
I1
tp1060
a(S'tr_th'
I2
tp1061
a(S'w'
I6
tp1062
a(S'no_vo'
I5
tp1063
a(S'w'
I2
tp1064
a(S'w'
I1
tp1065
a(S'no_ll'
I3
tp1066
a(S'w'
I1450
tp1067
a(S'no_vo'
I0
tp1068
a(S'w'
I2940
tp1069
a(S'no_vo'
I5
tp1070
a(S'w'
I2
tp1071
a(S'w'
I1
tp1072
a(S'no_ll'
I3
tp1073
a(S'w'
I1460
tp1074
a(S'no_vo'
I0
tp1075
a(S'w'
I2948
tp1076
a(S'tr_tl'
I224
tp1077
a(S'tr_ll'
I1
tp1078
a(S'tr_th'
I1
tp1079
a(S'w'
I7
tp1080
a(S'no_vo'
I7
tp1081
a(S'w'
I2
tp1082
a(S'no_np'
I9
tp1083
a(S'no_ll'
I3
tp1084
a(S'w'
I2179
tp1085
a(S'no_vo'
I6
tp1086
a(S'w'
I1468
tp1087
a(S'no_vo'
I4
tp1088
a(S'w'
I1468
tp1089
a(S'no_vo'
I2
tp1090
a(S'w'
I2201
tp1091
a(S'no_vo'
I1
tp1092
a(S'w'
I1481
tp1093
a(S'tr_tl'
I172
tp1094
a(S'tr_ll'
I1
tp1095
a(S'w'
I6
tp1096
a(S'no_vo'
I5
tp1097
a(S'w'
I3
tp1098
a(S'no_np'
I2
tp1099
a(S'no_ll'
I3
tp1100
a(S'w'
I1445
tp1101
a(S'no_vo'
I0
tp1102
a(S'w'
I2940
tp1103
a(S'no_vo'
I5
tp1104
a(S'w'
I3
tp1105
a(S'no_ll'
I3
tp1106
a(S'w'
I1460
tp1107
a(S'no_vo'
I0
tp1108
a(S'w'
I2943
tp1109
a(S'no_vo'
I5
tp1110
a(S'w'
I2
tp1111
a(S'no_ll'
I3
tp1112
a(S'w'
I1458
tp1113
a(S'no_vo'
I0
tp1114
a(S'w'
I2940
tp1115
a(S'no_vo'
I5
tp1116
a(S'w'
I2
tp1117
a(S'no_ll'
I3
tp1118
a(S'w'
I1461
tp1119
a(S'no_vo'
I0
tp1120
a(S'w'
I2943
tp1121
a(S'tr_tl'
I59
tp1122
a(S'tr_ll'
I1
tp1123
a(S'tr_th'
I2
tp1124
a(S'w'
I7
tp1125
a(S'no_vo'
I5
tp1126
a(S'w'
I2
tp1127
a(S'w'
I1
tp1128
a(S'no_ll'
I3
tp1129
a(S'w'
I1449
tp1130
a(S'no_vo'
I0
tp1131
a(S'w'
I2940
tp1132
a(S'no_vo'
I5
tp1133
a(S'w'
I3
tp1134
a(S'no_ll'
I3
tp1135
a(S'w'
I1460
tp1136
a(S'no_vo'
I0
tp1137
a(S'w'
I2948
tp1138
a(S'tr_tl'
I224
tp1139
a(S'w'
I1
tp1140
a(S'tr_ll'
I1
tp1141
a(S'tr_th'
I1
tp1142
a(S'w'
I6
tp1143
a(S'no_vo'
I7
tp1144
a(S'w'
I2
tp1145
a(S'no_np'
I9
tp1146
a(S'w'
I1
tp1147
a(S'no_ll'
I3
tp1148
a(S'w'
I2179
tp1149
a(S'no_vo'
I6
tp1150
a(S'w'
I1467
tp1151
a(S'no_vo'
I4
tp1152
a(S'w'
I1468
tp1153
a(S'no_vo'
I2
tp1154
a(S'w'
I2201
tp1155
a(S'no_vo'
I1
tp1156
a(S'w'
I1481
tp1157
a(S'tr_tl'
I172
tp1158
a(S'w'
I1
tp1159
a(S'tr_ll'
I1
tp1160
a(S'w'
I6
tp1161
a(S'no_vo'
I5
tp1162
a(S'w'
I2
tp1163
a(S'no_np'
I2
tp1164
a(S'w'
I1
tp1165
a(S'no_ll'
I3
tp1166
a(S'w'
I1445
tp1167
a(S'no_vo'
I0
tp1168
a(S'w'
I2940
tp1169
a(S'no_vo'
I5
tp1170
a(S'w'
I2
tp1171
a(S'no_ll'
I3
tp1172
a(S'w'
I1460
tp1173
a(S'no_vo'
I0
tp1174
a(S'w'
I731
tp1175
a(S'tr_lr'
I0
tp1176
a(S'w'
I2216
tp1177
a(S'p1_vo'
I8
tp1178
a(S'w'
I4
tp1179
a(S'p1_tl'
I83
tp1180
a(S'p1_ll'
I1
tp1181
a(S'w'
I6
tp1182
a(S'p2_vo'
I8
tp1183
a(S'w'
I4
tp1184
a(S'p2_tl'
I172
tp1185
a(S'w'
I1
tp1186
a(S'p2_ll'
I1
tp1187
a(S'w'
I8
tp1188
a(S'tr_lr'
I127
tp1189
a(S'w'
I1
tp1190
a(S'tr_ll'
I1
tp1191
a(S'w'
I6
tp1192
a(S'no_vo'
I5
tp1193
a(S'w'
I3
tp1194
a(S'no_ll'
I3
tp1195
a(S'w'
I1423
tp1196
a(S'no_vo'
I0
tp1197
a(S'w'
I717
tp1198
a(S'p1_vo'
I6
tp1199
a(S'w'
I8
tp1200
a(S'p2_vo'
I6
tp1201
a(S'w'
I1459
tp1202
a(S'p1_vo'
I5
tp1203
a(S'w'
I9
tp1204
a(S'p2_vo'
I5
tp1205
a(S'w'
I747
tp1206
a(S'no_vo'
I5
tp1207
a(S'w'
I2
tp1208
a(S'w'
I1
tp1209
a(S'no_ll'
I3
tp1210
a(S'w'
I709
tp1211
a(S'p1_vo'
I4
tp1212
a(S'w'
I9
tp1213
a(S'p2_vo'
I4
tp1214
a(S'w'
I742
tp1215
a(S'no_vo'
I0
tp1216
a(S'w'
I2943
tp1217
a(S'tr_tl'
I59
tp1218
a(S'tr_ll'
I1
tp1219
a(S'tr_th'
I2
tp1220
a(S'w'
I7
tp1221
a(S'no_vo'
I5
tp1222
a(S'w'
I2
tp1223
a(S'w'
I1
tp1224
a(S'no_ll'
I3
tp1225
a(S'w'
I1450
tp1226
a(S'no_vo'
I0
tp1227
a(S'w'
I2940
tp1228
a(S'no_vo'
I5
tp1229
a(S'w'
I2
tp1230
a(S'w'
I1
tp1231
a(S'no_ll'
I3
tp1232
a(S'w'
I1460
tp1233
a(S'no_vo'
I0
tp1234
a(S'w'
I2948
tp1235
a(S'tr_tl'
I224
tp1236
a(S'tr_ll'
I1
tp1237
a(S'tr_th'
I1
tp1238
a(S'w'
I7
tp1239
a(S'no_vo'
I7
tp1240
a(S'w'
I2
tp1241
a(S'no_np'
I9
tp1242
a(S'no_ll'
I3
tp1243
a(S'w'
I2179
tp1244
a(S'no_vo'
I6
tp1245
a(S'w'
I1468
tp1246
a(S'no_vo'
I4
tp1247
a(S'w'
I1467
tp1248
a(S'no_vo'
I2
tp1249
a(S'w'
I2202
tp1250
a(S'no_vo'
I1
tp1251
a(S'w'
I1481
tp1252
a(S'tr_tl'
I172
tp1253
a(S'tr_ll'
I1
tp1254
a(S'w'
I6
tp1255
a(S'no_vo'
I5
tp1256
a(S'w'
I3
tp1257
a(S'no_np'
I2
tp1258
a(S'no_ll'
I3
tp1259
a(S'w'
I1445
tp1260
a(S'no_vo'
I0
tp1261
a(S'w'
I2940
tp1262
a(S'no_vo'
I5
tp1263
a(S'w'
I2
tp1264
a(S'w'
I1
tp1265
a(S'no_ll'
I3
tp1266
a(S'w'
I1460
tp1267
a(S'no_vo'
I0
tp1268
a(S'w'
I2937
tp1269
a(S'p1_vo'
I8
tp1270
a(S'w'
I4
tp1271
a(S'w'
I1
tp1272
a(S'p1_ll'
I1
tp1273
a(S'w'
I6
tp1274
a(S'p2_vo'
I8
tp1275
a(S'w'
I4
tp1276
a(S'p2_tl'
I148
tp1277
a(S'p2_ll'
I1
tp1278
a(S'w'
I12
tp1279
a(S'no_vo'
I5
tp1280
a(S'w'
I2
tp1281
a(S'w'
I1
tp1282
a(S'no_ll'
I3
tp1283
a(S'w'
I1436
tp1284
a(S'no_vo'
I0
tp1285
a(S'w'
I716
tp1286
a(S'p1_vo'
I6
tp1287
a(S'w'
I9
tp1288
a(S'p2_vo'
I6
tp1289
a(S'w'
I1459
tp1290
a(S'p1_vo'
I5
tp1291
a(S'w'
I8
tp1292
a(S'p2_vo'
I5
tp1293
a(S'w'
I748
tp1294
a(S'no_vo'
I5
tp1295
a(S'w'
I2
tp1296
a(S'no_ll'
I3
tp1297
a(S'w'
I709
tp1298
a(S'p1_vo'
I4
tp1299
a(S'w'
I9
tp1300
a(S'p2_vo'
I4
tp1301
a(S'w'
I742
tp1302
a(S'no_vo'
I0
tp1303
a(S'w'
I2944
tp1304
a(S'tr_tl'
I59
tp1305
a(S'tr_ll'
I1
tp1306
a(S'tr_th'
I2
tp1307
a(S'w'
I7
tp1308
a(S'no_vo'
I5
tp1309
a(S'w'
I2
tp1310
a(S'w'
I1
tp1311
a(S'no_ll'
I3
tp1312
a(S'w'
I1449
tp1313
a(S'no_vo'
I0
tp1314
a(S'w'
I2940
tp1315
a(S'no_vo'
I5
tp1316
a(S'w'
I3
tp1317
a(S'no_ll'
I3
tp1318
a(S'w'
I1460
tp1319
a(S'no_vo'
I0
tp1320
a(S'w'
I2948
tp1321
a(S'tr_tl'
I172
tp1322
a(S'w'
I1
tp1323
a(S'tr_ll'
I1
tp1324
a(S'tr_th'
I1
tp1325
a(S'w'
I6
tp1326
a(S'no_vo'
I7
tp1327
a(S'w'
I2
tp1328
a(S'no_np'
I9
tp1329
a(S'w'
I1
tp1330
a(S'no_ll'
I3
tp1331
a(S'w'
I2179
tp1332
a(S'no_vo'
I6
tp1333
a(S'w'
I1467
tp1334
a(S'no_vo'
I4
tp1335
a(S'w'
I1468
tp1336
a(S'no_vo'
I2
tp1337
a(S'w'
I2201
tp1338
a(S'no_vo'
I1
tp1339
a(S'w'
I1481
tp1340
a(S'tr_tl'
I148
tp1341
a(S'tr_ll'
I1
tp1342
a(S'w'
I7
tp1343
a(S'no_vo'
I5
tp1344
a(S'w'
I2
tp1345
a(S'no_np'
I2
tp1346
a(S'no_ll'
I3
tp1347
a(S'w'
I1446
tp1348
a(S'no_vo'
I0
tp1349
a(S'w'
I2940
tp1350
a(S'no_vo'
I5
tp1351
a(S'w'
I2
tp1352
a(S'no_ll'
I3
tp1353
a(S'w'
I1460
tp1354
a(S'no_vo'
I0
tp1355
a(S'w'
I2959
tp1356
a(S'p1_vo'
I8
tp1357
a(S'w'
I4
tp1358
a(S'p1_tl'
I64
tp1359
a(S'p1_ll'
I1
tp1360
a(S'w'
I7
tp1361
a(S'p2_vo'
I8
tp1362
a(S'w'
I4
tp1363
a(S'p2_tl'
I125
tp1364
a(S'p2_ll'
I1
tp1365
a(S'w'
I9
tp1366
a(S'tr_tl'
I125
tp1367
a(S'tr_ll'
I1
tp1368
a(S'w'
I7
tp1369
a(S'no_vo'
I5
tp1370
a(S'w'
I2
tp1371
a(S'no_ll'
I3
tp1372
a(S'w'
I1411
tp1373
a(S'no_vo'
I0
tp1374
a(S'w'
I716
tp1375
a(S'p1_vo'
I6
tp1376
a(S'w'
I9
tp1377
a(S'p2_vo'
I6
tp1378
a(S'w'
I1459
tp1379
a(S'p1_vo'
I5
tp1380
a(S'w'
I9
tp1381
a(S'p2_vo'
I5
tp1382
a(S'w'
I747
tp1383
a(S'no_vo'
I5
tp1384
a(S'w'
I2
tp1385
a(S'w'
I1
tp1386
a(S'no_ll'
I3
tp1387
a(S'w'
I709
tp1388
a(S'p1_vo'
I4
tp1389
a(S'w'
I9
tp1390
a(S'p2_vo'
I4
tp1391
a(S'w'
I742
tp1392
a(S'no_vo'
I0
tp1393
a(S'w'
I2943
tp1394
a(S'tr_tl'
I252
tp1395
a(S'tr_ll'
I1
tp1396
a(S'w'
I7
tp1397
a(S'no_vo'
I5
tp1398
a(S'w'
I2
tp1399
a(S'w'
I1
tp1400
a(S'no_ll'
I3
tp1401
a(S'w'
I1450
tp1402
a(S'no_vo'
I0
tp1403
a(S'w'
I2940
tp1404
a(S'no_vo'
I5
tp1405
a(S'w'
I2
tp1406
a(S'w'
I1
tp1407
a(S'no_ll'
I3
tp1408
a(S'w'
I1460
tp1409
a(S'no_vo'
I0
tp1410
a(S'w'
I2948
tp1411
a(S'tr_tl'
I172
tp1412
a(S'tr_ll'
I1
tp1413
a(S'w'
I7
tp1414
a(S'no_vo'
I7
tp1415
a(S'w'
I2
tp1416
a(S'no_np'
I9
tp1417
a(S'no_ll'
I3
tp1418
a(S'w'
I2179
tp1419
a(S'no_vo'
I6
tp1420
a(S'w'
I1468
tp1421
a(S'no_vo'
I4
tp1422
a(S'w'
I1467
tp1423
a(S'no_vo'
I2
tp1424
a(S'w'
I2202
tp1425
a(S'no_vo'
I1
tp1426
a(S'w'
I1481
tp1427
a(S'tr_tl'
I125
tp1428
a(S'tr_ll'
I1
tp1429
a(S'w'
I6
tp1430
a(S'no_vo'
I5
tp1431
a(S'w'
I3
tp1432
a(S'no_np'
I2
tp1433
a(S'no_ll'
I3
tp1434
a(S'w'
I1445
tp1435
a(S'no_vo'
I0
tp1436
a(S'w'
I2940
tp1437
a(S'no_vo'
I5
tp1438
a(S'w'
I2
tp1439
a(S'w'
I1
tp1440
a(S'no_ll'
I3
tp1441
a(S'w'
I1460
tp1442
a(S'no_vo'
I0
tp1443
a(S'w'
I2942
tp1444
a(S'no_vo'
I5
tp1445
a(S'w'
I3
tp1446
a(S'no_ll'
I3
tp1447
a(S'w'
I1458
tp1448
a(S'no_vo'
I0
tp1449
a(S'w'
I2940
tp1450
a(S'no_vo'
I5
tp1451
a(S'w'
I2
tp1452
a(S'no_ll'
I3
tp1453
a(S'w'
I1460
tp1454
a(S'no_vo'
I0
tp1455
a(S'w'
I2944
tp1456
a(S'tr_tl'
I252
tp1457
a(S'tr_ll'
I1
tp1458
a(S'w'
I7
tp1459
a(S'no_vo'
I5
tp1460
a(S'w'
I2
tp1461
a(S'w'
I1
tp1462
a(S'no_ll'
I3
tp1463
a(S'w'
I1449
tp1464
a(S'no_vo'
I0
tp1465
a(S'w'
I2940
tp1466
a(S'no_vo'
I5
tp1467
a(S'w'
I3
tp1468
a(S'no_ll'
I3
tp1469
a(S'w'
I1460
tp1470
a(S'no_vo'
I0
tp1471
a(S'w'
I2948
tp1472
a(S'tr_tl'
I172
tp1473
a(S'w'
I1
tp1474
a(S'tr_ll'
I1
tp1475
a(S'w'
I6
tp1476
a(S'no_vo'
I7
tp1477
a(S'w'
I2
tp1478
a(S'no_np'
I9
tp1479
a(S'w'
I1
tp1480
a(S'no_ll'
I3
tp1481
a(S'w'
I2179
tp1482
a(S'no_vo'
I6
tp1483
a(S'w'
I1467
tp1484
a(S'no_vo'
I4
tp1485
a(S'w'
I1468
tp1486
a(S'no_vo'
I2
tp1487
a(S'w'
I2201
tp1488
a(S'no_vo'
I1
tp1489
a(S'w'
I1481
tp1490
a(S'tr_tl'
I125
tp1491
a(S'tr_ll'
I1
tp1492
a(S'w'
I7
tp1493
a(S'no_vo'
I5
tp1494
a(S'w'
I2
tp1495
a(S'no_np'
I2
tp1496
a(S'w'
I1
tp1497
a(S'no_ll'
I3
tp1498
a(S'w'
I1444
tp1499
a(S'no_vo'
I0
tp1500
a(S'w'
I2941
tp1501
a(S'no_vo'
I5
tp1502
a(S'w'
I2
tp1503
a(S'no_ll'
I3
tp1504
a(S'w'
I1460
tp1505
a(S'no_vo'
I0
tp1506
a(S'w'
I731
tp1507
a(S'tr_lr'
I0
tp1508
a(S'w'
I2215
tp1509
a(S'p1_vo'
I8
tp1510
a(S'w'
I4
tp1511
a(S'p1_tl'
I254
tp1512
a(S'p1_ll'
I1
tp1513
a(S'p1_th'
I0
tp1514
a(S'w'
I7
tp1515
a(S'p2_vo'
I8
tp1516
a(S'w'
I4
tp1517
a(S'p2_tl'
I64
tp1518
a(S'p2_ll'
I1
tp1519
a(S'w'
I8
tp1520
a(S'tr_lr'
I127
tp1521
a(S'w'
I1
tp1522
a(S'tr_ll'
I1
tp1523
a(S'w'
I7
tp1524
a(S'no_vo'
I5
tp1525
a(S'w'
I2
tp1526
a(S'w'
I1
tp1527
a(S'no_ll'
I3
tp1528
a(S'w'
I1423
tp1529
a(S'no_vo'
I0
tp1530
a(S'w'
I716
tp1531
a(S'p1_vo'
I6
tp1532
a(S'w'
I9
tp1533
a(S'p2_vo'
I6
tp1534
a(S'w'
I1459
tp1535
a(S'p1_vo'
I5
tp1536
a(S'w'
I9
tp1537
a(S'p2_vo'
I5
tp1538
a(S'w'
I747
tp1539
a(S'no_vo'
I5
tp1540
a(S'w'
I2
tp1541
a(S'w'
I1
tp1542
a(S'no_ll'
I3
tp1543
a(S'w'
I709
tp1544
a(S'p1_vo'
I4
tp1545
a(S'w'
I8
tp1546
a(S'p2_vo'
I4
tp1547
a(S'w'
I743
tp1548
a(S'no_vo'
I0
tp1549
a(S'w'
I2943
tp1550
a(S'tr_tl'
I252
tp1551
a(S'tr_ll'
I1
tp1552
a(S'w'
I7
tp1553
a(S'no_vo'
I5
tp1554
a(S'w'
I2
tp1555
a(S'w'
I1
tp1556
a(S'no_ll'
I3
tp1557
a(S'w'
I1450
tp1558
a(S'no_vo'
I0
tp1559
a(S'w'
I2940
tp1560
a(S'no_vo'
I5
tp1561
a(S'w'
I2
tp1562
a(S'w'
I1
tp1563
a(S'no_ll'
I3
tp1564
a(S'w'
I1459
tp1565
a(S'no_vo'
I0
tp1566
a(S'w'
I2949
tp1567
a(S'tr_tl'
I172
tp1568
a(S'tr_ll'
I1
tp1569
a(S'w'
I6
tp1570
a(S'no_vo'
I7
tp1571
a(S'w'
I3
tp1572
a(S'no_np'
I9
tp1573
a(S'no_ll'
I3
tp1574
a(S'w'
I2179
tp1575
a(S'no_vo'
I6
tp1576
a(S'w'
I1468
tp1577
a(S'no_vo'
I4
tp1578
a(S'w'
I1467
tp1579
a(S'no_vo'
I2
tp1580
a(S'w'
I2202
tp1581
a(S'no_vo'
I1
tp1582
a(S'w'
I1480
tp1583
a(S'tr_tl'
I125
tp1584
a(S'w'
I1
tp1585
a(S'tr_ll'
I1
tp1586
a(S'w'
I6
tp1587
a(S'no_vo'
I5
tp1588
a(S'w'
I3
tp1589
a(S'no_np'
I2
tp1590
a(S'no_ll'
I3
tp1591
a(S'w'
I1445
tp1592
a(S'no_vo'
I0
tp1593
a(S'w'
I2940
tp1594
a(S'no_vo'
I5
tp1595
a(S'w'
I2
tp1596
a(S'w'
I1
tp1597
a(S'no_ll'
I3
tp1598
a(S'w'
I1460
tp1599
a(S'no_vo'
I0
tp1600
a(S'w'
I2942
tp1601
a(S'no_vo'
I5
tp1602
a(S'w'
I3
tp1603
a(S'no_ll'
I3
tp1604
a(S'w'
I1458
tp1605
a(S'no_vo'
I0
tp1606
a(S'w'
I2939
tp1607
a(S'no_vo'
I5
tp1608
a(S'w'
I3
tp1609
a(S'no_ll'
I3
tp1610
a(S'w'
I1460
tp1611
a(S'no_vo'
I0
tp1612
a(S'w'
I2944
tp1613
a(S'tr_tl'
I252
tp1614
a(S'tr_ll'
I1
tp1615
a(S'w'
I7
tp1616
a(S'no_vo'
I5
tp1617
a(S'w'
I2
tp1618
a(S'no_ll'
I3
tp1619
a(S'w'
I1450
tp1620
a(S'no_vo'
I0
tp1621
a(S'w'
I2940
tp1622
a(S'no_vo'
I5
tp1623
a(S'w'
I3
tp1624
a(S'no_ll'
I3
tp1625
a(S'w'
I1460
tp1626
a(S'no_vo'
I0
tp1627
a(S'w'
I2948
tp1628
a(S'tr_tl'
I172
tp1629
a(S'w'
I1
tp1630
a(S'tr_ll'
I1
tp1631
a(S'w'
I6
tp1632
a(S'no_vo'
I7
tp1633
a(S'w'
I2
tp1634
a(S'no_np'
I9
tp1635
a(S'w'
I1
tp1636
a(S'no_ll'
I3
tp1637
a(S'w'
I2179
tp1638
a(S'no_vo'
I6
tp1639
a(S'w'
I1467
tp1640
a(S'no_vo'
I4
tp1641
a(S'w'
I1468
tp1642
a(S'no_vo'
I2
tp1643
a(S'w'
I2201
tp1644
a(S'no_vo'
I1
tp1645
a(S'w'
I1481
tp1646
a(S'tr_tl'
I125
tp1647
a(S'tr_ll'
I1
tp1648
a(S'w'
I7
tp1649
a(S'no_vo'
I5
tp1650
a(S'w'
I2
tp1651
a(S'no_np'
I2
tp1652
a(S'w'
I1
tp1653
a(S'no_ll'
I3
tp1654
a(S'w'
I1444
tp1655
a(S'no_vo'
I0
tp1656
a(S'w'
I2940
tp1657
a(S'no_vo'
I5
tp1658
a(S'w'
I3
tp1659
a(S'no_ll'
I3
tp1660
a(S'w'
I1460
tp1661
a(S'no_vo'
I0
tp1662
a(S'w'
I731
tp1663
a(S'tr_lr'
I0
tp1664
a(S'w'
I2215
tp1665
a(S'p1_vo'
I8
tp1666
a(S'w'
I4
tp1667
a(S'p1_tl'
I13
tp1668
a(S'p1_ll'
I1
tp1669
a(S'p1_th'
I1
tp1670
a(S'w'
I7
tp1671
a(S'p2_vo'
I8
tp1672
a(S'w'
I4
tp1673
a(S'p2_tl'
I83
tp1674
a(S'p2_ll'
I1
tp1675
a(S'w'
I8
tp1676
a(S'tr_lr'
I127
tp1677
a(S'w'
I1
tp1678
a(S'tr_ll'
I1
tp1679
a(S'w'
I7
tp1680
a(S'no_vo'
I5
tp1681
a(S'w'
I2
tp1682
a(S'w'
I1
tp1683
a(S'no_ll'
I3
tp1684
a(S'w'
I1423
tp1685
a(S'no_vo'
I0
tp1686
a(S'w'
I716
tp1687
a(S'p1_vo'
I6
tp1688
a(S'w'
I9
tp1689
a(S'p2_vo'
I6
tp1690
a(S'w'
I1459
tp1691
a(S'p1_vo'
I5
tp1692
a(S'w'
I9
tp1693
a(S'p2_vo'
I5
tp1694
a(S'w'
I747
tp1695
a(S'no_vo'
I5
tp1696
a(S'w'
I2
tp1697
a(S'w'
I1
tp1698
a(S'no_ll'
I3
tp1699
a(S'w'
I709
tp1700
a(S'p1_vo'
I4
tp1701
a(S'w'
I8
tp1702
a(S'p2_vo'
I4
tp1703
a(S'w'
I743
tp1704
a(S'no_vo'
I0
tp1705
a(S'w'
I2943
tp1706
a(S'tr_tl'
I252
tp1707
a(S'tr_ll'
I1
tp1708
a(S'w'
I7
tp1709
a(S'no_vo'
I5
tp1710
a(S'w'
I2
tp1711
a(S'w'
I1
tp1712
a(S'no_ll'
I3
tp1713
a(S'w'
I1450
tp1714
a(S'no_vo'
I0
tp1715
a(S'w'
I2940
tp1716
a(S'no_vo'
I5
tp1717
a(S'w'
I2
tp1718
a(S'no_ll'
I3
tp1719
a(S'w'
I1460
tp1720
a(S'no_vo'
I0
tp1721
a(S'w'
I2949
tp1722
a(S'tr_tl'
I172
tp1723
a(S'tr_ll'
I1
tp1724
a(S'w'
I6
tp1725
a(S'no_vo'
I7
tp1726
a(S'w'
I3
tp1727
a(S'no_np'
I9
tp1728
a(S'no_ll'
I3
tp1729
a(S'w'
I2179
tp1730
a(S'no_vo'
I6
tp1731
a(S'w'
I1468
tp1732
a(S'no_vo'
I4
tp1733
a(S'w'
I1467
tp1734
a(S'no_vo'
I2
tp1735
a(S'w'
I2202
tp1736
a(S'no_vo'
I1
tp1737
a(S'w'
I1480
tp1738
a(S'tr_tl'
I125
tp1739
a(S'w'
I1
tp1740
a(S'tr_ll'
I1
tp1741
a(S'w'
I6
tp1742
a(S'no_vo'
I5
tp1743
a(S'w'
I3
tp1744
a(S'no_np'
I2
tp1745
a(S'no_ll'
I3
tp1746
a(S'w'
I1445
tp1747
a(S'no_vo'
I0
tp1748
a(S'w'
I2940
tp1749
a(S'no_vo'
I5
tp1750
a(S'w'
I2
tp1751
a(S'w'
I1
tp1752
a(S'no_ll'
I3
tp1753
a(S'w'
I1460
tp1754
a(S'no_vo'
I0
tp1755
a(S'w'
I2942
tp1756
a(S'no_vo'
I5
tp1757
a(S'w'
I3
tp1758
a(S'no_ll'
I3
tp1759
a(S'w'
I1457
tp1760
a(S'no_vo'
I0
tp1761
a(S'w'
I2940
tp1762
a(S'no_vo'
I5
tp1763
a(S'w'
I3
tp1764
a(S'no_ll'
I3
tp1765
a(S'w'
I1460
tp1766
a(S'no_vo'
I0
tp1767
a(S'w'
I2944
tp1768
a(S'tr_tl'
I252
tp1769
a(S'tr_ll'
I1
tp1770
a(S'w'
I7
tp1771
a(S'no_vo'
I5
tp1772
a(S'w'
I2
tp1773
a(S'no_ll'
I3
tp1774
a(S'w'
I1450
tp1775
a(S'no_vo'
I0
tp1776
a(S'w'
I2940
tp1777
a(S'no_vo'
I5
tp1778
a(S'w'
I3
tp1779
a(S'no_ll'
I3
tp1780
a(S'w'
I1460
tp1781
a(S'no_vo'
I0
tp1782
a(S'w'
I2948
tp1783
a(S'tr_tl'
I172
tp1784
a(S'tr_ll'
I1
tp1785
a(S'w'
I7
tp1786
a(S'no_vo'
I7
tp1787
a(S'w'
I2
tp1788
a(S'no_np'
I9
tp1789
a(S'w'
I1
tp1790
a(S'no_ll'
I3
tp1791
a(S'w'
I2178
tp1792
a(S'no_vo'
I6
tp1793
a(S'w'
I1468
tp1794
a(S'no_vo'
I4
tp1795
a(S'w'
I1468
tp1796
a(S'no_vo'
I2
tp1797
a(S'w'
I2201
tp1798
a(S'no_vo'
I1
tp1799
a(S'w'
I1481
tp1800
a(S'tr_tl'
I125
tp1801
a(S'tr_ll'
I1
tp1802
a(S'w'
I7
tp1803
a(S'no_vo'
I5
tp1804
a(S'w'
I2
tp1805
a(S'no_np'
I2
tp1806
a(S'w'
I1
tp1807
a(S'no_ll'
I3
tp1808
a(S'w'
I1444
tp1809
a(S'no_vo'
I0
tp1810
a(S'w'
I2940
tp1811
a(S'no_vo'
I5
tp1812
a(S'w'
I3
tp1813
a(S'no_ll'
I3
tp1814
a(S'w'
I1460
tp1815
a(S'no_vo'
I0
tp1816
a(S'w'
I730
tp1817
a(S'tr_lr'
I0
tp1818
a(S'w'
I2216
tp1819
a(S'p1_vo'
I8
tp1820
a(S'w'
I4
tp1821
a(S'p1_tl'
I29
tp1822
a(S'w'
I1
tp1823
a(S'p1_ll'
I1
tp1824
a(S'w'
I6
tp1825
a(S'p2_vo'
I8
tp1826
a(S'w'
I4
tp1827
a(S'p2_tl'
I104
tp1828
a(S'p2_ll'
I1
tp1829
a(S'w'
I8
tp1830
a(S'tr_lr'
I127
tp1831
a(S'w'
I2
tp1832
a(S'tr_ll'
I1
tp1833
a(S'w'
I6
tp1834
a(S'no_vo'
I5
tp1835
a(S'w'
I2
tp1836
a(S'w'
I1
tp1837
a(S'no_ll'
I3
tp1838
a(S'w'
I1423
tp1839
a(S'no_vo'
I0
tp1840
a(S'w'
I716
tp1841
a(S'p1_vo'
I6
tp1842
a(S'w'
I9
tp1843
a(S'p2_vo'
I6
tp1844
a(S'w'
I1459
tp1845
a(S'p1_vo'
I5
tp1846
a(S'w'
I9
tp1847
a(S'p2_vo'
I5
tp1848
a(S'w'
I747
tp1849
a(S'no_vo'
I5
tp1850
a(S'w'
I2
tp1851
a(S'w'
I1
tp1852
a(S'no_ll'
I3
tp1853
a(S'w'
I708
tp1854
a(S'p1_vo'
I4
tp1855
a(S'w'
I9
tp1856
a(S'p2_vo'
I4
tp1857
a(S'w'
I743
tp1858
a(S'no_vo'
I0
tp1859
a(S'w'
I2943
tp1860
a(S'tr_tl'
I252
tp1861
a(S'tr_ll'
I1
tp1862
a(S'w'
I7
tp1863
a(S'no_vo'
I5
tp1864
a(S'w'
I2
tp1865
a(S'no_ll'
I3
tp1866
a(S'w'
I1451
tp1867
a(S'no_vo'
I0
tp1868
a(S'w'
I2940
tp1869
a(S'no_vo'
I5
tp1870
a(S'w'
I2
tp1871
a(S'no_ll'
I3
tp1872
a(S'w'
I1460
tp1873
a(S'no_vo'
I0
tp1874
a(S'w'
I2948
tp1875
a(S'tr_tl'
I172
tp1876
a(S'w'
I1
tp1877
a(S'tr_ll'
I1
tp1878
a(S'w'
I6
tp1879
a(S'no_vo'
I7
tp1880
a(S'w'
I3
tp1881
a(S'no_np'
I9
tp1882
a(S'no_ll'
I3
tp1883
a(S'w'
I2179
tp1884
a(S'no_vo'
I6
tp1885
a(S'w'
I1468
tp1886
a(S'no_vo'
I4
tp1887
a(S'w'
I1467
tp1888
a(S'no_vo'
I2
tp1889
a(S'w'
I2202
tp1890
a(S'no_vo'
I1
tp1891
a(S'w'
I1480
tp1892
a(S'tr_tl'
I125
tp1893
a(S'w'
I1
tp1894
a(S'tr_ll'
I1
tp1895
a(S'w'
I6
tp1896
a(S'no_vo'
I5
tp1897
a(S'w'
I3
tp1898
a(S'no_np'
I2
tp1899
a(S'no_ll'
I3
tp1900
a(S'w'
I1445
tp1901
a(S'no_vo'
I0
tp1902
a(S'w'
I2940
tp1903
a(S'no_vo'
I5
tp1904
a(S'w'
I2
tp1905
a(S'w'
I1
tp1906
a(S'no_ll'
I3
tp1907
a(S'w'
I1460
tp1908
a(S'no_vo'
I0
tp1909
a(S'w'
I2937
tp1910
a(S'p1_vo'
I8
tp1911
a(S'w'
I4
tp1912
a(S'p1_tl'
I64
tp1913
a(S'p1_ll'
I1
tp1914
a(S'w'
I7
tp1915
a(S'p2_vo'
I8
tp1916
a(S'w'
I3
tp1917
a(S'p2_tl'
I125
tp1918
a(S'w'
I1
tp1919
a(S'p2_ll'
I1
tp1920
a(S'w'
I12
tp1921
a(S'no_vo'
I5
tp1922
a(S'w'
I2
tp1923
a(S'no_ll'
I3
tp1924
a(S'w'
I1436
tp1925
a(S'no_vo'
I0
tp1926
a(S'w'
I717
tp1927
a(S'p1_vo'
I6
tp1928
a(S'w'
I9
tp1929
a(S'p2_vo'
I6
tp1930
a(S'w'
I1458
tp1931
a(S'p1_vo'
I5
tp1932
a(S'w'
I9
tp1933
a(S'p2_vo'
I5
tp1934
a(S'w'
I747
tp1935
a(S'no_vo'
I5
tp1936
a(S'w'
I3
tp1937
a(S'no_ll'
I3
tp1938
a(S'w'
I709
tp1939
a(S'p1_vo'
I4
tp1940
a(S'w'
I9
tp1941
a(S'p2_vo'
I4
tp1942
a(S'w'
I742
tp1943
a(S'no_vo'
I0
tp1944
a(S'w'
I2944
tp1945
a(S'tr_tl'
I252
tp1946
a(S'tr_ll'
I1
tp1947
a(S'w'
I7
tp1948
a(S'no_vo'
I5
tp1949
a(S'w'
I2
tp1950
a(S'no_ll'
I3
tp1951
a(S'w'
I1450
tp1952
a(S'no_vo'
I0
tp1953
a(S'w'
I2940
tp1954
a(S'no_vo'
I5
tp1955
a(S'w'
I2
tp1956
a(S'w'
I1
tp1957
a(S'no_ll'
I3
tp1958
a(S'w'
I1460
tp1959
a(S'no_vo'
I0
tp1960
a(S'w'
I2948
tp1961
a(S'tr_tl'
I125
tp1962
a(S'tr_ll'
I1
tp1963
a(S'w'
I7
tp1964
a(S'no_vo'
I7
tp1965
a(S'w'
I2
tp1966
a(S'no_np'
I9
tp1967
a(S'w'
I1
tp1968
a(S'no_ll'
I3
tp1969
a(S'w'
I2178
tp1970
a(S'no_vo'
I6
tp1971
a(S'w'
I1468
tp1972
a(S'no_vo'
I4
tp1973
a(S'w'
I1468
tp1974
a(S'no_vo'
I2
tp1975
a(S'w'
I2201
tp1976
a(S'no_vo'
I1
tp1977
a(S'w'
I1480
tp1978
a(S'tr_tl'
I148
tp1979
a(S'w'
I1
tp1980
a(S'tr_ll'
I1
tp1981
a(S'w'
I6
tp1982
a(S'no_vo'
I5
tp1983
a(S'w'
I3
tp1984
a(S'no_np'
I2
tp1985
a(S'no_ll'
I3
tp1986
a(S'w'
I1445
tp1987
a(S'no_vo'
I0
tp1988
a(S'w'
I2940
tp1989
a(S'no_vo'
I5
tp1990
a(S'w'
I3
tp1991
a(S'no_ll'
I3
tp1992
a(S'w'
I1460
tp1993
a(S'no_vo'
I0
tp1994
a(S'w'
I2947
tp1995
a(S'p1_vo'
I8
tp1996
a(S'w'
I4
tp1997
a(S'p1_tl'
I83
tp1998
a(S'w'
I1
tp1999
a(S'p1_ll'
I1
tp2000
a(S'w'
I6
tp2001
a(S'p2_vo'
I8
tp2002
a(S'w'
I4
tp2003
a(S'p2_tl'
I172
tp2004
a(S'p2_ll'
I1
tp2005
a(S'w'
I9
tp2006
a(S'tr_tl'
I172
tp2007
a(S'w'
I1
tp2008
a(S'tr_ll'
I1
tp2009
a(S'w'
I6
tp2010
a(S'no_vo'
I5
tp2011
a(S'w'
I2
tp2012
a(S'w'
I1
tp2013
a(S'no_ll'
I3
tp2014
a(S'w'
I1422
tp2015
a(S'no_vo'
I0
tp2016
a(S'w'
I716
tp2017
a(S'p1_vo'
I6
tp2018
a(S'w'
I9
tp2019
a(S'p2_vo'
I6
tp2020
a(S'w'
I1459
tp2021
a(S'p1_vo'
I5
tp2022
a(S'w'
I9
tp2023
a(S'p2_vo'
I5
tp2024
a(S'w'
I747
tp2025
a(S'no_vo'
I5
tp2026
a(S'w'
I2
tp2027
a(S'w'
I1
tp2028
a(S'no_ll'
I3
tp2029
a(S'w'
I708
tp2030
a(S'p1_vo'
I4
tp2031
a(S'w'
I9
tp2032
a(S'p2_vo'
I4
tp2033
a(S'w'
I743
tp2034
a(S'no_vo'
I0
tp2035
a(S'w'
I2943
tp2036
a(S'tr_tl'
I59
tp2037
a(S'tr_ll'
I1
tp2038
a(S'tr_th'
I2
tp2039
a(S'w'
I7
tp2040
a(S'no_vo'
I5
tp2041
a(S'w'
I2
tp2042
a(S'no_ll'
I3
tp2043
a(S'w'
I1451
tp2044
a(S'no_vo'
I0
tp2045
a(S'w'
I2940
tp2046
a(S'no_vo'
I5
tp2047
a(S'w'
I2
tp2048
a(S'no_ll'
I3
tp2049
a(S'w'
I1460
tp2050
a(S'no_vo'
I0
tp2051
a(S'w'
I2948
tp2052
a(S'tr_tl'
I224
tp2053
a(S'w'
I1
tp2054
a(S'tr_ll'
I1
tp2055
a(S'tr_th'
I1
tp2056
a(S'w'
I6
tp2057
a(S'no_vo'
I7
tp2058
a(S'w'
I3
tp2059
a(S'no_np'
I9
tp2060
a(S'no_ll'
I3
tp2061
a(S'w'
I2179
tp2062
a(S'no_vo'
I6
tp2063
a(S'w'
I1468
tp2064
a(S'no_vo'
I4
tp2065
a(S'w'
I1467
tp2066
a(S'no_vo'
I2
tp2067
a(S'w'
I2202
tp2068
a(S'no_vo'
I1
tp2069
a(S'w'
I1480
tp2070
a(S'tr_tl'
I172
tp2071
a(S'w'
I1
tp2072
a(S'tr_ll'
I1
tp2073
a(S'w'
I6
tp2074
a(S'no_vo'
I5
tp2075
a(S'w'
I2
tp2076
a(S'no_np'
I2
tp2077
a(S'w'
I1
tp2078
a(S'no_ll'
I3
tp2079
a(S'w'
I1445
tp2080
a(S'no_vo'
I0
tp2081
a(S'w'
I2940
tp2082
a(S'no_vo'
I5
tp2083
a(S'w'
I2
tp2084
a(S'w'
I1
tp2085
a(S'no_ll'
I3
tp2086
a(S'w'
I1460
tp2087
a(S'no_vo'
I0
tp2088
a(S'w'
I2942
tp2089
a(S'no_vo'
I5
tp2090
a(S'w'
I3
tp2091
a(S'no_ll'
I3
tp2092
a(S'w'
I1457
tp2093
a(S'no_vo'
I0
tp2094
a(S'w'
I2940
tp2095
a(S'no_vo'
I5
tp2096
a(S'w'
I3
tp2097
a(S'no_ll'
I3
tp2098
a(S'w'
I1460
tp2099
a(S'no_vo'
I0
tp2100
a(S'w'
I2944
tp2101
a(S'tr_tl'
I59
tp2102
a(S'tr_ll'
I1
tp2103
a(S'tr_th'
I2
tp2104
a(S'w'
I6
tp2105
a(S'no_vo'
I5
tp2106
a(S'w'
I3
tp2107
a(S'no_ll'
I3
tp2108
a(S'w'
I1450
tp2109
a(S'no_vo'
I0
tp2110
a(S'w'
I2940
tp2111
a(S'no_vo'
I5
tp2112
a(S'w'
I2
tp2113
a(S'w'
I1
tp2114
a(S'no_ll'
I3
tp2115
a(S'w'
I1460
tp2116
a(S'no_vo'
I0
tp2117
a(S'w'
I2948
tp2118
a(S'tr_tl'
I224
tp2119
a(S'tr_ll'
I1
tp2120
a(S'tr_th'
I1
tp2121
a(S'w'
I7
tp2122
a(S'no_vo'
I7
tp2123
a(S'w'
I2
tp2124
a(S'no_np'
I9
tp2125
a(S'w'
I1
tp2126
a(S'no_ll'
I3
tp2127
a(S'w'
I2178
tp2128
a(S'no_vo'
I6
tp2129
a(S'w'
I1468
tp2130
a(S'no_vo'
I4
tp2131
a(S'w'
I1468
tp2132
a(S'no_vo'
I2
tp2133
a(S'w'
I2201
tp2134
a(S'no_vo'
I1
tp2135
a(S'w'
I1481
tp2136
a(S'tr_tl'
I172
tp2137
a(S'tr_ll'
I1
tp2138
a(S'w'
I7
tp2139
a(S'no_vo'
I5
tp2140
a(S'w'
I2
tp2141
a(S'no_np'
I2
tp2142
a(S'no_ll'
I3
tp2143
a(S'w'
I1445
tp2144
a(S'no_vo'
I0
tp2145
a(S'w'
I2940
tp2146
a(S'no_vo'
I5
tp2147
a(S'w'
I3
tp2148
a(S'no_ll'
I3
tp2149
a(S'w'
I1460
tp2150
a(S'no_vo'
I0
tp2151
a(S'w'
I730
tp2152
a(S'tr_lr'
I0
tp2153
a(S'w'
I2216
tp2154
a(S'p1_vo'
I8
tp2155
a(S'w'
I4
tp2156
a(S'p1_tl'
I172
tp2157
a(S'p1_ll'
I1
tp2158
a(S'w'
I7
tp2159
a(S'p2_vo'
I8
tp2160
a(S'w'
I3
tp2161
a(S'p2_tl'
I59
tp2162
a(S'w'
I1
tp2163
a(S'p2_ll'
I1
tp2164
a(S'p2_th'
I2
tp2165
a(S'w'
I8
tp2166
a(S'tr_lr'
I127
tp2167
a(S'w'
I1
tp2168
a(S'tr_ll'
I1
tp2169
a(S'w'
I7
tp2170
a(S'no_vo'
I5
tp2171
a(S'w'
I2
tp2172
a(S'no_ll'
I3
tp2173
a(S'w'
I1424
tp2174
a(S'no_vo'
I0
tp2175
a(S'w'
I716
tp2176
a(S'p1_vo'
I6
tp2177
a(S'w'
I9
tp2178
a(S'p2_vo'
I6
tp2179
a(S'w'
I1459
tp2180
a(S'p1_vo'
I5
tp2181
a(S'w'
I9
tp2182
a(S'p2_vo'
I5
tp2183
a(S'w'
I747
tp2184
a(S'no_vo'
I5
tp2185
a(S'w'
I2
tp2186
a(S'w'
I1
tp2187
a(S'no_ll'
I3
tp2188
a(S'w'
I708
tp2189
a(S'p1_vo'
I4
tp2190
a(S'w'
I9
tp2191
a(S'p2_vo'
I4
tp2192
a(S'w'
I743
tp2193
a(S'no_vo'
I0
tp2194
a(S'w'
I2943
tp2195
a(S'tr_tl'
I59
tp2196
a(S'tr_ll'
I1
tp2197
a(S'tr_th'
I2
tp2198
a(S'w'
I7
tp2199
a(S'no_vo'
I5
tp2200
a(S'w'
I2
tp2201
a(S'no_ll'
I3
tp2202
a(S'w'
I1450
tp2203
a(S'no_vo'
I0
tp2204
a(S'w'
I2940
tp2205
a(S'no_vo'
I5
tp2206
a(S'w'
I3
tp2207
a(S'no_ll'
I3
tp2208
a(S'w'
I1460
tp2209
a(S'no_vo'
I0
tp2210
a(S'w'
I2948
tp2211
a(S'tr_tl'
I224
tp2212
a(S'w'
I1
tp2213
a(S'tr_ll'
I1
tp2214
a(S'tr_th'
I1
tp2215
a(S'w'
I6
tp2216
a(S'no_vo'
I7
tp2217
a(S'w'
I3
tp2218
a(S'no_np'
I9
tp2219
a(S'no_ll'
I3
tp2220
a(S'w'
I2179
tp2221
a(S'no_vo'
I6
tp2222
a(S'w'
I1467
tp2223
a(S'no_vo'
I4
tp2224
a(S'w'
I1468
tp2225
a(S'no_vo'
I2
tp2226
a(S'w'
I2202
tp2227
a(S'no_vo'
I1
tp2228
a(S'w'
I1480
tp2229
a(S'tr_tl'
I172
tp2230
a(S'w'
I1
tp2231
a(S'tr_ll'
I1
tp2232
a(S'w'
I6
tp2233
a(S'no_vo'
I5
tp2234
a(S'w'
I2
tp2235
a(S'no_np'
I2
tp2236
a(S'w'
I1
tp2237
a(S'no_ll'
I3
tp2238
a(S'w'
I1445
tp2239
a(S'no_vo'
I0
tp2240
a(S'w'
I2940
tp2241
a(S'no_vo'
I5
tp2242
a(S'w'
I2
tp2243
a(S'w'
I1
tp2244
a(S'no_ll'
I3
tp2245
a(S'w'
I1459
tp2246
a(S'no_vo'
I0
tp2247
a(S'w'
I2943
tp2248
a(S'no_vo'
I5
tp2249
a(S'w'
I3
tp2250
a(S'no_ll'
I3
tp2251
a(S'w'
I1457
tp2252
a(S'no_vo'
I0
tp2253
a(S'w'
I2940
tp2254
a(S'no_vo'
I5
tp2255
a(S'w'
I3
tp2256
a(S'no_ll'
I3
tp2257
a(S'w'
I1460
tp2258
a(S'no_vo'
I0
tp2259
a(S'w'
I2944
tp2260
a(S'tr_tl'
I59
tp2261
a(S'tr_ll'
I1
tp2262
a(S'tr_th'
I2
tp2263
a(S'w'
I6
tp2264
a(S'no_vo'
I5
tp2265
a(S'w'
I3
tp2266
a(S'no_ll'
I3
tp2267
a(S'w'
I1450
tp2268
a(S'no_vo'
I0
tp2269
a(S'w'
I2940
tp2270
a(S'no_vo'
I5
tp2271
a(S'w'
I2
tp2272
a(S'w'
I1
tp2273
a(S'no_ll'
I3
tp2274
a(S'w'
I1460
tp2275
a(S'no_vo'
I0
tp2276
a(S'w'
I2948
tp2277
a(S'tr_tl'
I224
tp2278
a(S'tr_ll'
I1
tp2279
a(S'tr_th'
I1
tp2280
a(S'w'
I7
tp2281
a(S'no_vo'
I7
tp2282
a(S'w'
I2
tp2283
a(S'no_np'
I9
tp2284
a(S'w'
I1
tp2285
a(S'no_ll'
I3
tp2286
a(S'w'
I2178
tp2287
a(S'no_vo'
I6
tp2288
a(S'w'
I1468
tp2289
a(S'no_vo'
I4
tp2290
a(S'w'
I1468
tp2291
a(S'no_vo'
I2
tp2292
a(S'w'
I2201
tp2293
a(S'no_vo'
I1
tp2294
a(S'w'
I1481
tp2295
a(S'tr_tl'
I172
tp2296
a(S'tr_ll'
I1
tp2297
a(S'w'
I7
tp2298
a(S'no_vo'
I5
tp2299
a(S'w'
I2
tp2300
a(S'no_np'
I2
tp2301
a(S'no_ll'
I3
tp2302
a(S'w'
I1445
tp2303
a(S'no_vo'
I0
tp2304
a(S'w'
I2940
tp2305
a(S'no_vo'
I5
tp2306
a(S'w'
I3
tp2307
a(S'no_ll'
I3
tp2308
a(S'w'
I1460
tp2309
a(S'no_vo'
I0
tp2310
a(S'w'
I730
tp2311
a(S'tr_lr'
I0
tp2312
a(S'w'
I2216
tp2313
a(S'p1_vo'
I8
tp2314
a(S'w'
I4
tp2315
a(S'p1_tl'
I29
tp2316
a(S'p1_ll'
I1
tp2317
a(S'w'
I7
tp2318
a(S'p2_vo'
I8
tp2319
a(S'w'
I3
tp2320
a(S'p2_tl'
I83
tp2321
a(S'w'
I1
tp2322
a(S'p2_ll'
I1
tp2323
a(S'p2_th'
I1
tp2324
a(S'w'
I8
tp2325
a(S'tr_lr'
I127
tp2326
a(S'w'
I1
tp2327
a(S'tr_ll'
I1
tp2328
a(S'w'
I7
tp2329
a(S'no_vo'
I5
tp2330
a(S'w'
I2
tp2331
a(S'no_ll'
I3
tp2332
a(S'w'
I1424
tp2333
a(S'no_vo'
I0
tp2334
a(S'w'
I716
tp2335
a(S'p1_vo'
I6
tp2336
a(S'w'
I9
tp2337
a(S'p2_vo'
I6
tp2338
a(S'w'
I1459
tp2339
a(S'p1_vo'
I5
tp2340
a(S'w'
I8
tp2341
a(S'p2_vo'
I5
tp2342
a(S'w'
I748
tp2343
a(S'no_vo'
I5
tp2344
a(S'w'
I2
tp2345
a(S'w'
I1
tp2346
a(S'no_ll'
I3
tp2347
a(S'w'
I708
tp2348
a(S'p1_vo'
I4
tp2349
a(S'w'
I9
tp2350
a(S'p2_vo'
I4
tp2351
a(S'w'
I743
tp2352
a(S'no_vo'
I0
tp2353
a(S'w'
I2943
tp2354
a(S'tr_tl'
I59
tp2355
a(S'tr_ll'
I1
tp2356
a(S'tr_th'
I2
tp2357
a(S'w'
I6
tp2358
a(S'no_vo'
I5
tp2359
a(S'w'
I3
tp2360
a(S'no_ll'
I3
tp2361
a(S'w'
I1450
tp2362
a(S'no_vo'
I0
tp2363
a(S'w'
I2940
tp2364
a(S'no_vo'
I5
tp2365
a(S'w'
I3
tp2366
a(S'no_ll'
I3
tp2367
a(S'w'
I1460
tp2368
a(S'no_vo'
I0
tp2369
a(S'w'
I2948
tp2370
a(S'tr_tl'
I224
tp2371
a(S'w'
I1
tp2372
a(S'tr_ll'
I1
tp2373
a(S'tr_th'
I1
tp2374
a(S'w'
I6
tp2375
a(S'no_vo'
I7
tp2376
a(S'w'
I3
tp2377
a(S'no_np'
I9
tp2378
a(S'no_ll'
I3
tp2379
a(S'w'
I2179
tp2380
a(S'no_vo'
I6
tp2381
a(S'w'
I1467
tp2382
a(S'no_vo'
I4
tp2383
a(S'w'
I1468
tp2384
a(S'no_vo'
I2
tp2385
a(S'w'
I2201
tp2386
a(S'no_vo'
I1
tp2387
a(S'w'
I1481
tp2388
a(S'tr_tl'
I172
tp2389
a(S'w'
I1
tp2390
a(S'tr_ll'
I1
tp2391
a(S'w'
I6
tp2392
a(S'no_vo'
I5
tp2393
a(S'w'
I2
tp2394
a(S'no_np'
I2
tp2395
a(S'w'
I1
tp2396
a(S'no_ll'
I3
tp2397
a(S'w'
I1445
tp2398
a(S'no_vo'
I0
tp2399
a(S'w'
I2940
tp2400
a(S'no_vo'
I5
tp2401
a(S'w'
I2
tp2402
a(S'w'
I1
tp2403
a(S'no_ll'
I3
tp2404
a(S'w'
I1459
tp2405
a(S'no_vo'
I0
tp2406
a(S'w'
I2943
tp2407
a(S'no_vo'
I5
tp2408
a(S'w'
I2
tp2409
a(S'w'
I1
tp2410
a(S'no_ll'
I3
tp2411
a(S'w'
I1457
tp2412
a(S'no_vo'
I0
tp2413
a(S'w'
I2940
tp2414
a(S'no_vo'
I5
tp2415
a(S'w'
I3
tp2416
a(S'no_ll'
I3
tp2417
a(S'w'
I1460
tp2418
a(S'no_vo'
I0
tp2419
a(S'w'
I2943
tp2420
a(S'tr_tl'
I59
tp2421
a(S'w'
I1
tp2422
a(S'tr_ll'
I1
tp2423
a(S'tr_th'
I2
tp2424
a(S'w'
I6
tp2425
a(S'no_vo'
I5
tp2426
a(S'w'
I3
tp2427
a(S'no_ll'
I3
tp2428
a(S'w'
I1450
tp2429
a(S'no_vo'
I0
tp2430
a(S'w'
I2940
tp2431
a(S'no_vo'
I5
tp2432
a(S'w'
I2
tp2433
a(S'w'
I1
tp2434
a(S'no_ll'
I3
tp2435
a(S'w'
I1460
tp2436
a(S'no_vo'
I0
tp2437
a(S'w'
I2948
tp2438
a(S'tr_tl'
I224
tp2439
a(S'tr_ll'
I1
tp2440
a(S'tr_th'
I1
tp2441
a(S'w'
I7
tp2442
a(S'no_vo'
I7
tp2443
a(S'w'
I2
tp2444
a(S'no_np'
I9
tp2445
a(S'no_ll'
I3
tp2446
a(S'w'
I2179
tp2447
a(S'no_vo'
I6
tp2448
a(S'w'
I1468
tp2449
a(S'no_vo'
I4
tp2450
a(S'w'
I1467
tp2451
a(S'no_vo'
I2
tp2452
a(S'w'
I2202
tp2453
a(S'no_vo'
I1
tp2454
a(S'w'
I1481
tp2455
a(S'tr_tl'
I172
tp2456
a(S'tr_ll'
I1
tp2457
a(S'w'
I6
tp2458
a(S'no_vo'
I5
tp2459
a(S'w'
I3
tp2460
a(S'no_np'
I2
tp2461
a(S'no_ll'
I3
tp2462
a(S'w'
I1445
tp2463
a(S'no_vo'
I0
tp2464
a(S'w'
I2940
tp2465
a(S'no_vo'
I5
tp2466
a(S'w'
I2
tp2467
a(S'w'
I1
tp2468
a(S'no_ll'
I3
tp2469
a(S'w'
I1460
tp2470
a(S'no_vo'
I0
tp2471
a(S'w'
I730
tp2472
a(S'tr_lr'
I0
tp2473
a(S'w'
I2216
tp2474
a(S'p1_vo'
I8
tp2475
a(S'w'
I4
tp2476
a(S'p1_tl'
I83
tp2477
a(S'p1_ll'
I1
tp2478
a(S'w'
I7
tp2479
a(S'p2_vo'
I8
tp2480
a(S'w'
I4
tp2481
a(S'p2_tl'
I172
tp2482
a(S'p2_ll'
I1
tp2483
a(S'w'
I8
tp2484
a(S'tr_lr'
I127
tp2485
a(S'w'
I1
tp2486
a(S'tr_ll'
I1
tp2487
a(S'w'
I7
tp2488
a(S'no_vo'
I5
tp2489
a(S'w'
I2
tp2490
a(S'w'
I1
tp2491
a(S'no_ll'
I3
tp2492
a(S'w'
I1423
tp2493
a(S'no_vo'
I0
tp2494
a(S'w'
I716
tp2495
a(S'p1_vo'
I6
tp2496
a(S'w'
I9
tp2497
a(S'p2_vo'
I6
tp2498
a(S'w'
I1459
tp2499
a(S'p1_vo'
I5
tp2500
a(S'w'
I8
tp2501
a(S'p2_vo'
I5
tp2502
a(S'w'
I748
tp2503
a(S'no_vo'
I5
tp2504
a(S'w'
I2
tp2505
a(S'no_ll'
I3
tp2506
a(S'w'
I709
tp2507
a(S'p1_vo'
I4
tp2508
a(S'w'
I9
tp2509
a(S'p2_vo'
I4
tp2510
a(S'w'
I743
tp2511
a(S'no_vo'
I0
tp2512
a(S'w'
I2943
tp2513
a(S'tr_tl'
I59
tp2514
a(S'tr_ll'
I1
tp2515
a(S'tr_th'
I2
tp2516
a(S'w'
I6
tp2517
a(S'no_vo'
I5
tp2518
a(S'w'
I3
tp2519
a(S'no_ll'
I3
tp2520
a(S'w'
I1450
tp2521
a(S'no_vo'
I0
tp2522
a(S'w'
I2940
tp2523
a(S'no_vo'
I5
tp2524
a(S'w'
I3
tp2525
a(S'no_ll'
I3
tp2526
a(S'w'
I1460
tp2527
a(S'no_vo'
I0
tp2528
a(S'w'
I2948
tp2529
a(S'tr_tl'
I224
tp2530
a(S'w'
I1
tp2531
a(S'tr_ll'
I1
tp2532
a(S'tr_th'
I1
tp2533
a(S'w'
I6
tp2534
a(S'no_vo'
I7
tp2535
a(S'w'
I2
tp2536
a(S'no_np'
I9
tp2537
a(S'w'
I1
tp2538
a(S'no_ll'
I3
tp2539
a(S'w'
I2179
tp2540
a(S'no_vo'
I6
tp2541
a(S'w'
I1467
tp2542
a(S'no_vo'
I4
tp2543
a(S'w'
I1468
tp2544
a(S'no_vo'
I2
tp2545
a(S'w'
I2201
tp2546
a(S'no_vo'
I1
tp2547
a(S'w'
I1481
tp2548
a(S'tr_tl'
I172
tp2549
a(S'w'
I1
tp2550
a(S'tr_ll'
I1
tp2551
a(S'w'
I6
tp2552
a(S'no_vo'
I5
tp2553
a(S'w'
I2
tp2554
a(S'no_np'
I2
tp2555
a(S'w'
I1
tp2556
a(S'no_ll'
I3
tp2557
a(S'w'
I1445
tp2558
a(S'no_vo'
I0
tp2559
a(S'w'
I2940
tp2560
a(S'no_vo'
I5
tp2561
a(S'w'
I2
tp2562
a(S'no_ll'
I3
tp2563
a(S'w'
I1460
tp2564
a(S'no_vo'
I0
tp2565
a(S'w'
I2937
tp2566
a(S'p1_vo'
I8
tp2567
a(S'w'
I4
tp2568
a(S'w'
I1
tp2569
a(S'p1_ll'
I1
tp2570
a(S'w'
I6
tp2571
a(S'p2_vo'
I8
tp2572
a(S'w'
I4
tp2573
a(S'p2_tl'
I148
tp2574
a(S'p2_ll'
I1
tp2575
a(S'w'
I12
tp2576
a(S'no_vo'
I5
tp2577
a(S'w'
I2
tp2578
a(S'w'
I1
tp2579
a(S'no_ll'
I3
tp2580
a(S'w'
I1436
tp2581
a(S'no_vo'
I0
tp2582
a(S'w'
I717
tp2583
a(S'p1_vo'
I6
tp2584
a(S'w'
I8
tp2585
a(S'p2_vo'
I6
tp2586
a(S'w'
I1459
tp2587
a(S'p1_vo'
I5
tp2588
a(S'w'
I9
tp2589
a(S'p2_vo'
I5
tp2590
a(S'w'
I747
tp2591
a(S'no_vo'
I5
tp2592
a(S'w'
I2
tp2593
a(S'w'
I1
tp2594
a(S'no_ll'
I3
tp2595
a(S'w'
I709
tp2596
a(S'p1_vo'
I4
tp2597
a(S'w'
I9
tp2598
a(S'p2_vo'
I4
tp2599
a(S'w'
I742
tp2600
a(S'no_vo'
I0
tp2601
a(S'w'
I2943
tp2602
a(S'tr_tl'
I59
tp2603
a(S'w'
I1
tp2604
a(S'tr_ll'
I1
tp2605
a(S'tr_th'
I2
tp2606
a(S'w'
I6
tp2607
a(S'no_vo'
I5
tp2608
a(S'w'
I3
tp2609
a(S'no_ll'
I3
tp2610
a(S'w'
I1450
tp2611
a(S'no_vo'
I0
tp2612
a(S'w'
I2940
tp2613
a(S'no_vo'
I5
tp2614
a(S'w'
I2
tp2615
a(S'w'
I1
tp2616
a(S'no_ll'
I3
tp2617
a(S'w'
I1460
tp2618
a(S'no_vo'
I0
tp2619
a(S'w'
I2948
tp2620
a(S'tr_tl'
I172
tp2621
a(S'tr_ll'
I1
tp2622
a(S'tr_th'
I1
tp2623
a(S'w'
I6
tp2624
a(S'no_vo'
I7
tp2625
a(S'w'
I3
tp2626
a(S'no_np'
I9
tp2627
a(S'no_ll'
I3
tp2628
a(S'w'
I2179
tp2629
a(S'no_vo'
I6
tp2630
a(S'w'
I1468
tp2631
a(S'no_vo'
I4
tp2632
a(S'w'
I1467
tp2633
a(S'no_vo'
I2
tp2634
a(S'w'
I2202
tp2635
a(S'no_vo'
I1
tp2636
a(S'w'
I1475
tp2637
a(S'tr_tl'
I148
tp2638
a(S'w'
I1
tp2639
a(S'tr_ll'
I1
tp2640
a(S'w'
I6
tp2641
a(S'no_vo'
I7
tp2642
a(S'w'
I3
tp2643
a(S'no_ll'
I3
tp2644
a(S'w'
I2184
tp2645
a(S'no_vo'
I6
tp2646
a(S'w'
I1467
tp2647
a(S'no_vo'
I4
tp2648
a(S'w'
I1468
tp2649
a(S'no_vo'
I2
tp2650
a(S'w'
I2201
tp2651
a(S'no_vo'
I1
tp2652
a(S'w'
I1508
tp2653
a.