(lp1
(S'clock'
p2
I1789772
tp3
a(S'p1_du'
I3
tp4
a(S'p1_lh'
I1
tp5
a(S'p1_cv'
I1
tp6
a(S'p1_sp'
I7
tp7
a(S'p1_sn'
I1
tp8
a(S'p1_tl'
I240
tp9
a(S'p1_ll'
I1
tp10
a(S'p2_du'
I3
tp11
a(S'p2_lh'
I1
tp12
a(S'p2_cv'
I1
tp13
a(S'p2_sp'
I7
tp14
a(S'p2_sn'
I1
tp15
a(S'p2_tl'
I240
tp16
a(S'p2_ll'
I1
tp17
a(S'tr_lh'
I1
tp18
a(S'tr_tl'
I240
tp19
a(S'tr_ll'
I1
tp20
a(S'no_lh'
I1
tp21
a(S'no_cv'
I1
tp22
a(S'no_nl'
I1
tp23
a(S'no_ll'
I1
tp24
a(S'ch_no'
I1
tp25
a(S'ch_tr'
I1
tp26
a(S'ch_p2'
I1
tp27
a(S'ch_p1'
I1
tp28
a(S'fc_mo'
I1
tp29
a(S'p1_du'
I2
tp30
a(S'p1_vo'
I7
tp31
a(S'w'
I3
tp32
a(S'w'
I1
tp33
a(S'p1_tl'
I224
tp34
a(S'p1_ll'
I1
tp35
a(S'p1_th'
I1
tp36
a(S'w'
I7
tp37
a(S'p2_du'
I2
tp38
a(S'p2_vo'
I7
tp39
a(S'w'
I3
tp40
a(S'w'
I1
tp41
a(S'p2_tl'
I129
tp42
a(S'p2_ll'
I1
tp43
a(S'p2_th'
I2
tp44
a(S'w'
I8
tp45
a(S'tr_lh'
I0
tp46
a(S'tr_lr'
I24
tp47
a(S'w'
I1
tp48
a(S'tr_tl'
I224
tp49
a(S'tr_ll'
I1
tp50
a(S'tr_th'
I1
tp51
a(S'w'
I3
tp52
a(S'w'
I8738
tp53
a(S'p1_tl'
I172
tp54
a(S'p1_ll'
I1
tp55
a(S'w'
I11
tp56
a(S'p2_tl'
I59
tp57
a(S'p2_ll'
I1
tp58
a(S'w'
I9
tp59
a(S'tr_tl'
I172
tp60
a(S'tr_ll'
I1
tp61
a(S'w'
I2153
tp62
a(S'p1_vo'
I6
tp63
a(S'w'
I9
tp64
a(S'p2_vo'
I6
tp65
a(S'w'
I1458
tp66
a(S'p1_vo'
I5
tp67
a(S'w'
I9
tp68
a(S'p2_vo'
I5
tp69
a(S'w'
I1459
tp70
a(S'p1_vo'
I4
tp71
a(S'w'
I9
tp72
a(S'p2_vo'
I4
tp73
a(S'w'
I2192
tp74
a(S'p1_vo'
I3
tp75
a(S'w'
I9
tp76
a(S'p2_vo'
I3
tp77
a(S'w'
I1480
tp78
a(S'tr_ll'
I1
tp79
a(S'w'
I3648
tp80
a(S'p1_vo'
I2
tp81
a(S'w'
I9
tp82
a(S'p2_vo'
I2
tp83
a(S'w'
I5146
tp84
a(S'p1_vo'
I7
tp85
a(S'w'
I4
tp86
a(S'p1_ll'
I1
tp87
a(S'w'
I7
tp88
a(S'p2_vo'
I7
tp89
a(S'w'
I4
tp90
a(S'p2_ll'
I1
tp91
a(S'w'
I9
tp92
a(S'tr_ll'
I1
tp93
a(S'w'
I2159
tp94
a(S'p1_vo'
I6
tp95
a(S'w'
I9
tp96
a(S'p2_vo'
I6
tp97
a(S'w'
I1459
tp98
a(S'p1_vo'
I5
tp99
a(S'w'
I8
tp100
a(S'p2_vo'
I5
tp101
a(S'w'
I1459
tp102
a(S'p1_vo'
I4
tp103
a(S'w'
I9
tp104
a(S'p2_vo'
I4
tp105
a(S'w'
I2193
tp106
a(S'p1_vo'
I3
tp107
a(S'w'
I9
tp108
a(S'p2_vo'
I3
tp109
a(S'w'
I1482
tp110
a(S'tr_tl'
I224
tp111
a(S'tr_ll'
I1
tp112
a(S'w'
I3645
tp113
a(S'p1_vo'
I2
tp114
a(S'w'
I9
tp115
a(S'p2_vo'
I2
tp116
a(S'w'
I5146
tp117
a(S'p1_vo'
I7
tp118
a(S'w'
I4
tp119
a(S'p1_ll'
I1
tp120
a(S'w'
I7
tp121
a(S'p2_vo'
I7
tp122
a(S'w'
I4
tp123
a(S'p2_ll'
I1
tp124
a(S'w'
I9
tp125
a(S'tr_tl'
I172
tp126
a(S'tr_ll'
I1
tp127
a(S'w'
I2159
tp128
a(S'p1_vo'
I6
tp129
a(S'w'
I9
tp130
a(S'p2_vo'
I6
tp131
a(S'w'
I1459
tp132
a(S'p1_vo'
I5
tp133
a(S'w'
I9
tp134
a(S'p2_vo'
I5
tp135
a(S'w'
I1459
tp136
a(S'p1_vo'
I4
tp137
a(S'w'
I8
tp138
a(S'p2_vo'
I4
tp139
a(S'w'
I2193
tp140
a(S'p1_vo'
I3
tp141
a(S'w'
I9
tp142
a(S'p2_vo'
I3
tp143
a(S'w'
I1480
tp144
a(S'tr_ll'
I1
tp145
a(S'w'
I3647
tp146
a(S'p1_vo'
I2
tp147
a(S'w'
I9
tp148
a(S'p2_vo'
I2
tp149
a(S'w'
I5147
tp150
a(S'p1_vo'
I7
tp151
a(S'w'
I4
tp152
a(S'w'
I1
tp153
a(S'p1_ll'
I1
tp154
a(S'w'
I6
tp155
a(S'p2_vo'
I7
tp156
a(S'w'
I4
tp157
a(S'p2_ll'
I1
tp158
a(S'w'
I10
tp159
a(S'tr_ll'
I1
tp160
a(S'w'
I2158
tp161
a(S'p1_vo'
I6
tp162
a(S'w'
I8
tp163
a(S'p2_vo'
I6
tp164
a(S'w'
I1459
tp165
a(S'p1_vo'
I5
tp166
a(S'w'
I9
tp167
a(S'p2_vo'
I5
tp168
a(S'w'
I1459
tp169
a(S'p1_vo'
I4
tp170
a(S'w'
I9
tp171
a(S'p2_vo'
I4
tp172
a(S'w'
I2192
tp173
a(S'p1_vo'
I3
tp174
a(S'w'
I9
tp175
a(S'p2_vo'
I3
tp176
a(S'w'
I1485
tp177
a(S'p1_vo'
I7
tp178
a(S'w'
I4
tp179
a(S'p1_tl'
I104
tp180
a(S'w'
I1
tp181
a(S'p1_ll'
I1
tp182
a(S'w'
I6
tp183
a(S'p2_vo'
I7
tp184
a(S'w'
I4
tp185
a(S'p2_tl'
I224
tp186
a(S'p2_ll'
I1
tp187
a(S'p2_th'
I1
tp188
a(S'w'
I9
tp189
a(S'tr_tl'
I224
tp190
a(S'tr_ll'
I1
tp191
a(S'w'
I8784
tp192
a(S'p1_tl'
I172
tp193
a(S'p1_ll'
I1
tp194
a(S'w'
I10
tp195
a(S'p2_tl'
I59
tp196
a(S'w'
I1
tp197
a(S'p2_ll'
I1
tp198
a(S'p2_th'
I2
tp199
a(S'w'
I9
tp200
a(S'tr_tl'
I172
tp201
a(S'tr_ll'
I1
tp202
a(S'w'
I2153
tp203
a(S'p1_vo'
I6
tp204
a(S'w'
I9
tp205
a(S'p2_vo'
I6
tp206
a(S'w'
I1458
tp207
a(S'p1_vo'
I5
tp208
a(S'w'
I9
tp209
a(S'p2_vo'
I5
tp210
a(S'w'
I1459
tp211
a(S'p1_vo'
I4
tp212
a(S'w'
I9
tp213
a(S'p2_vo'
I4
tp214
a(S'w'
I2192
tp215
a(S'p1_vo'
I3
tp216
a(S'w'
I9
tp217
a(S'p2_vo'
I3
tp218
a(S'w'
I1480
tp219
a(S'tr_ll'
I1
tp220
a(S'w'
I3648
tp221
a(S'p1_vo'
I2
tp222
a(S'w'
I9
tp223
a(S'p2_vo'
I2
tp224
a(S'w'
I5146
tp225
a(S'p1_vo'
I7
tp226
a(S'w'
I4
tp227
a(S'p1_ll'
I1
tp228
a(S'w'
I7
tp229
a(S'p2_vo'
I7
tp230
a(S'w'
I4
tp231
a(S'p2_ll'
I1
tp232
a(S'w'
I9
tp233
a(S'tr_ll'
I1
tp234
a(S'w'
I2159
tp235
a(S'p1_vo'
I6
tp236
a(S'w'
I9
tp237
a(S'p2_vo'
I6
tp238
a(S'w'
I1459
tp239
a(S'p1_vo'
I5
tp240
a(S'w'
I8
tp241
a(S'p2_vo'
I5
tp242
a(S'w'
I1459
tp243
a(S'p1_vo'
I4
tp244
a(S'w'
I9
tp245
a(S'p2_vo'
I4
tp246
a(S'w'
I2193
tp247
a(S'p1_vo'
I3
tp248
a(S'w'
I8
tp249
a(S'p2_vo'
I3
tp250
a(S'w'
I1483
tp251
a(S'tr_tl'
I224
tp252
a(S'tr_ll'
I1
tp253
a(S'w'
I3645
tp254
a(S'p1_vo'
I2
tp255
a(S'w'
I9
tp256
a(S'p2_vo'
I2
tp257
a(S'w'
I5146
tp258
a(S'p1_vo'
I7
tp259
a(S'w'
I4
tp260
a(S'p1_ll'
I1
tp261
a(S'w'
I7
tp262
a(S'p2_vo'
I7
tp263
a(S'w'
I4
tp264
a(S'p2_ll'
I1
tp265
a(S'w'
I9
tp266
a(S'tr_tl'
I172
tp267
a(S'tr_ll'
I1
tp268
a(S'w'
I2159
tp269
a(S'p1_vo'
I6
tp270
a(S'w'
I9
tp271
a(S'p2_vo'
I6
tp272
a(S'w'
I1459
tp273
a(S'p1_vo'
I5
tp274
a(S'w'
I9
tp275
a(S'p2_vo'
I5
tp276
a(S'w'
I1458
tp277
a(S'p1_vo'
I4
tp278
a(S'w'
I9
tp279
a(S'p2_vo'
I4
tp280
a(S'w'
I2193
tp281
a(S'p1_vo'
I3
tp282
a(S'w'
I9
tp283
a(S'p2_vo'
I3
tp284
a(S'w'
I1480
tp285
a(S'tr_ll'
I1
tp286
a(S'w'
I3647
tp287
a(S'p1_vo'
I2
tp288
a(S'w'
I9
tp289
a(S'p2_vo'
I2
tp290
a(S'w'
I5147
tp291
a(S'p1_vo'
I7
tp292
a(S'w'
I4
tp293
a(S'w'
I1
tp294
a(S'p1_ll'
I1
tp295
a(S'w'
I6
tp296
a(S'p2_vo'
I7
tp297
a(S'w'
I4
tp298
a(S'p2_ll'
I1
tp299
a(S'w'
I10
tp300
a(S'tr_ll'
I1
tp301
a(S'w'
I2158
tp302
a(S'p1_vo'
I6
tp303
a(S'w'
I8
tp304
a(S'p2_vo'
I6
tp305
a(S'w'
I1459
tp306
a(S'p1_vo'
I5
tp307
a(S'w'
I9
tp308
a(S'p2_vo'
I5
tp309
a(S'w'
I1459
tp310
a(S'p1_vo'
I4
tp311
a(S'w'
I9
tp312
a(S'p2_vo'
I4
tp313
a(S'w'
I2192
tp314
a(S'p1_vo'
I3
tp315
a(S'w'
I9
tp316
a(S'p2_vo'
I3
tp317
a(S'w'
I1486
tp318
a(S'p1_vo'
I7
tp319
a(S'w'
I3
tp320
a(S'p1_tl'
I224
tp321
a(S'w'
I1
tp322
a(S'p1_ll'
I1
tp323
a(S'w'
I6
tp324
a(S'p2_vo'
I7
tp325
a(S'w'
I4
tp326
a(S'p2_tl'
I129
tp327
a(S'w'
I1
tp328
a(S'p2_ll'
I1
tp329
a(S'w'
I8
tp330
a(S'tr_tl'
I224
tp331
a(S'w'
I1
tp332
a(S'tr_ll'
I1
tp333
a(S'w'
I8783
tp334
a(S'p1_tl'
I172
tp335
a(S'p1_ll'
I1
tp336
a(S'w'
I10
tp337
a(S'p2_tl'
I59
tp338
a(S'w'
I1
tp339
a(S'p2_ll'
I1
tp340
a(S'w'
I9
tp341
a(S'tr_tl'
I172
tp342
a(S'tr_ll'
I1
tp343
a(S'w'
I2153
tp344
a(S'p1_vo'
I6
tp345
a(S'w'
I9
tp346
a(S'p2_vo'
I6
tp347
a(S'w'
I1458
tp348
a(S'p1_vo'
I5
tp349
a(S'w'
I9
tp350
a(S'p2_vo'
I5
tp351
a(S'w'
I1459
tp352
a(S'p1_vo'
I4
tp353
a(S'w'
I9
tp354
a(S'p2_vo'
I4
tp355
a(S'w'
I2192
tp356
a(S'p1_vo'
I3
tp357
a(S'w'
I9
tp358
a(S'p2_vo'
I3
tp359
a(S'w'
I1480
tp360
a(S'tr_ll'
I1
tp361
a(S'w'
I3648
tp362
a(S'p1_vo'
I2
tp363
a(S'w'
I9
tp364
a(S'p2_vo'
I2
tp365
a(S'w'
I5146
tp366
a(S'p1_vo'
I7
tp367
a(S'w'
I4
tp368
a(S'p1_ll'
I1
tp369
a(S'w'
I7
tp370
a(S'p2_vo'
I7
tp371
a(S'w'
I3
tp372
a(S'w'
I1
tp373
a(S'p2_ll'
I1
tp374
a(S'w'
I9
tp375
a(S'tr_ll'
I1
tp376
a(S'w'
I2159
tp377
a(S'p1_vo'
I6
tp378
a(S'w'
I9
tp379
a(S'p2_vo'
I6
tp380
a(S'w'
I1459
tp381
a(S'p1_vo'
I5
tp382
a(S'w'
I8
tp383
a(S'p2_vo'
I5
tp384
a(S'w'
I1459
tp385
a(S'p1_vo'
I4
tp386
a(S'w'
I9
tp387
a(S'p2_vo'
I4
tp388
a(S'w'
I2193
tp389
a(S'p1_vo'
I3
tp390
a(S'w'
I8
tp391
a(S'p2_vo'
I3
tp392
a(S'w'
I1482
tp393
a(S'tr_tl'
I224
tp394
a(S'w'
I1
tp395
a(S'tr_ll'
I1
tp396
a(S'w'
I3645
tp397
a(S'p1_vo'
I2
tp398
a(S'w'
I9
tp399
a(S'p2_vo'
I2
tp400
a(S'w'
I5146
tp401
a(S'p1_vo'
I7
tp402
a(S'w'
I4
tp403
a(S'p1_ll'
I1
tp404
a(S'w'
I7
tp405
a(S'p2_vo'
I7
tp406
a(S'w'
I4
tp407
a(S'p2_ll'
I1
tp408
a(S'w'
I9
tp409
a(S'tr_tl'
I172
tp410
a(S'tr_ll'
I1
tp411
a(S'w'
I2159
tp412
a(S'p1_vo'
I6
tp413
a(S'w'
I9
tp414
a(S'p2_vo'
I6
tp415
a(S'w'
I1459
tp416
a(S'p1_vo'
I5
tp417
a(S'w'
I9
tp418
a(S'p2_vo'
I5
tp419
a(S'w'
I1458
tp420
a(S'p1_vo'
I4
tp421
a(S'w'
I9
tp422
a(S'p2_vo'
I4
tp423
a(S'w'
I2193
tp424
a(S'p1_vo'
I3
tp425
a(S'w'
I9
tp426
a(S'p2_vo'
I3
tp427
a(S'w'
I1479
tp428
a(S'tr_ll'
I1
tp429
a(S'w'
I3648
tp430
a(S'p1_vo'
I2
tp431
a(S'w'
I9
tp432
a(S'p2_vo'
I2
tp433
a(S'w'
I5147
tp434
a(S'p1_vo'
I7
tp435
a(S'w'
I4
tp436
a(S'w'
I1
tp437
a(S'p1_ll'
I1
tp438
a(S'w'
I6
tp439
a(S'p2_vo'
I7
tp440
a(S'w'
I4
tp441
a(S'p2_ll'
I1
tp442
a(S'w'
I9
tp443
a(S'tr_ll'
I1
tp444
a(S'w'
I2158
tp445
a(S'p1_vo'
I6
tp446
a(S'w'
I9
tp447
a(S'p2_vo'
I6
tp448
a(S'w'
I1459
tp449
a(S'p1_vo'
I5
tp450
a(S'w'
I9
tp451
a(S'p2_vo'
I5
tp452
a(S'w'
I1459
tp453
a(S'p1_vo'
I4
tp454
a(S'w'
I8
tp455
a(S'p2_vo'
I4
tp456
a(S'w'
I2193
tp457
a(S'p1_vo'
I3
tp458
a(S'w'
I9
tp459
a(S'p2_vo'
I3
tp460
a(S'w'
I1489
tp461
a(S'p1_vo'
I7
tp462
a(S'w'
I4
tp463
a(S'p1_tl'
I224
tp464
a(S'p1_ll'
I1
tp465
a(S'w'
I6
tp466
a(S'p2_vo'
I7
tp467
a(S'w'
I4
tp468
a(S'p2_tl'
I129
tp469
a(S'w'
I1
tp470
a(S'p2_ll'
I1
tp471
a(S'w'
I8
tp472
a(S'tr_tl'
I224
tp473
a(S'w'
I1
tp474
a(S'tr_ll'
I1
tp475
a(S'w'
I8772
tp476
a(S'tr_tl'
I64
tp477
a(S'tr_ll'
I1
tp478
a(S'w'
I8806
tp479
a(S'tr_tl'
I104
tp480
a(S'tr_ll'
I1
tp481
a(S'w'
I8805
tp482
a(S'tr_tl'
I125
tp483
a(S'w'
I1
tp484
a(S'tr_ll'
I1
tp485
a(S'w'
I8806
tp486
a(S'p1_tl'
I197
tp487
a(S'w'
I1
tp488
a(S'p1_ll'
I1
tp489
a(S'w'
I10
tp490
a(S'p2_tl'
I93
tp491
a(S'p2_ll'
I1
tp492
a(S'w'
I9
tp493
a(S'tr_tl'
I197
tp494
a(S'w'
I1
tp495
a(S'tr_ll'
I1
tp496
a(S'w'
I8783
tp497
a(S'tr_tl'
I64
tp498
a(S'w'
I1
tp499
a(S'tr_ll'
I1
tp500
a(S'w'
I8805
tp501
a(S'tr_tl'
I104
tp502
a(S'tr_ll'
I1
tp503
a(S'w'
I8806
tp504
a(S'tr_tl'
I125
tp505
a(S'tr_ll'
I1
tp506
a(S'w'
I8818
tp507
a(S'p1_tl'
I224
tp508
a(S'p1_ll'
I1
tp509
a(S'w'
I10
tp510
a(S'p2_tl'
I129
tp511
a(S'w'
I1
tp512
a(S'p2_ll'
I1
tp513
a(S'w'
I8
tp514
a(S'tr_tl'
I224
tp515
a(S'w'
I1
tp516
a(S'tr_ll'
I1
tp517
a(S'w'
I8781
tp518
a(S'p1_tl'
I172
tp519
a(S'p1_ll'
I1
tp520
a(S'w'
I10
tp521
a(S'p2_tl'
I59
tp522
a(S'w'
I1
tp523
a(S'p2_ll'
I1
tp524
a(S'w'
I9
tp525
a(S'tr_tl'
I172
tp526
a(S'tr_ll'
I1
tp527
a(S'w'
I2153
tp528
a(S'p1_vo'
I6
tp529
a(S'w'
I8
tp530
a(S'p2_vo'
I6
tp531
a(S'w'
I1459
tp532
a(S'p1_vo'
I5
tp533
a(S'w'
I9
tp534
a(S'p2_vo'
I5
tp535
a(S'w'
I1459
tp536
a(S'p1_vo'
I4
tp537
a(S'w'
I9
tp538
a(S'p2_vo'
I4
tp539
a(S'w'
I2192
tp540
a(S'p1_vo'
I3
tp541
a(S'w'
I9
tp542
a(S'p2_vo'
I3
tp543
a(S'w'
I1480
tp544
a(S'tr_ll'
I1
tp545
a(S'w'
I3648
tp546
a(S'p1_vo'
I2
tp547
a(S'w'
I9
tp548
a(S'p2_vo'
I2
tp549
a(S'w'
I5146
tp550
a(S'p1_vo'
I7
tp551
a(S'w'
I4
tp552
a(S'p1_ll'
I1
tp553
a(S'w'
I7
tp554
a(S'p2_vo'
I7
tp555
a(S'w'
I3
tp556
a(S'w'
I1
tp557
a(S'p2_ll'
I1
tp558
a(S'w'
I9
tp559
a(S'tr_ll'
I1
tp560
a(S'w'
I2159
tp561
a(S'p1_vo'
I6
tp562
a(S'w'
I9
tp563
a(S'p2_vo'
I6
tp564
a(S'w'
I1458
tp565
a(S'p1_vo'
I5
tp566
a(S'w'
I9
tp567
a(S'p2_vo'
I5
tp568
a(S'w'
I1459
tp569
a(S'p1_vo'
I4
tp570
a(S'w'
I9
tp571
a(S'p2_vo'
I4
tp572
a(S'w'
I2192
tp573
a(S'p1_vo'
I3
tp574
a(S'w'
I9
tp575
a(S'p2_vo'
I3
tp576
a(S'w'
I1482
tp577
a(S'tr_tl'
I224
tp578
a(S'w'
I1
tp579
a(S'tr_ll'
I1
tp580
a(S'w'
I3645
tp581
a(S'p1_vo'
I2
tp582
a(S'w'
I9
tp583
a(S'p2_vo'
I2
tp584
a(S'w'
I5146
tp585
a(S'p1_vo'
I7
tp586
a(S'w'
I4
tp587
a(S'p1_ll'
I1
tp588
a(S'w'
I7
tp589
a(S'p2_vo'
I7
tp590
a(S'w'
I4
tp591
a(S'p2_ll'
I1
tp592
a(S'w'
I9
tp593
a(S'tr_tl'
I172
tp594
a(S'tr_ll'
I1
tp595
a(S'w'
I2159
tp596
a(S'p1_vo'
I6
tp597
a(S'w'
I9
tp598
a(S'p2_vo'
I6
tp599
a(S'w'
I1459
tp600
a(S'p1_vo'
I5
tp601
a(S'w'
I9
tp602
a(S'p2_vo'
I5
tp603
a(S'w'
I1458
tp604
a(S'p1_vo'
I4
tp605
a(S'w'
I9
tp606
a(S'p2_vo'
I4
tp607
a(S'w'
I2193
tp608
a(S'p1_vo'
I3
tp609
a(S'w'
I8
tp610
a(S'p2_vo'
I3
tp611
a(S'w'
I1480
tp612
a(S'tr_ll'
I1
tp613
a(S'w'
I3648
tp614
a(S'p1_vo'
I2
tp615
a(S'w'
I9
tp616
a(S'p2_vo'
I2
tp617
a(S'w'
I5147
tp618
a(S'p1_vo'
I7
tp619
a(S'w'
I4
tp620
a(S'p1_ll'
I1
tp621
a(S'w'
I7
tp622
a(S'p2_vo'
I7
tp623
a(S'w'
I4
tp624
a(S'p2_ll'
I1
tp625
a(S'w'
I9
tp626
a(S'tr_ll'
I1
tp627
a(S'w'
I2158
tp628
a(S'p1_vo'
I6
tp629
a(S'w'
I9
tp630
a(S'p2_vo'
I6
tp631
a(S'w'
I1459
tp632
a(S'p1_vo'
I5
tp633
a(S'w'
I9
tp634
a(S'p2_vo'
I5
tp635
a(S'w'
I1459
tp636
a(S'p1_vo'
I4
tp637
a(S'w'
I8
tp638
a(S'p2_vo'
I4
tp639
a(S'w'
I2193
tp640
a(S'p1_vo'
I3
tp641
a(S'w'
I9
tp642
a(S'p2_vo'
I3
tp643
a(S'w'
I1485
tp644
a(S'p1_vo'
I7
tp645
a(S'w'
I4
tp646
a(S'p1_tl'
I104
tp647
a(S'p1_ll'
I1
tp648
a(S'w'
I7
tp649
a(S'p2_vo'
I7
tp650
a(S'w'
I4
tp651
a(S'p2_tl'
I224
tp652
a(S'p2_ll'
I1
tp653
a(S'p2_th'
I1
tp654
a(S'w'
I9
tp655
a(S'tr_tl'
I224
tp656
a(S'tr_ll'
I1
tp657
a(S'w'
I8784
tp658
a(S'p1_tl'
I172
tp659
a(S'p1_ll'
I1
tp660
a(S'w'
I10
tp661
a(S'p2_tl'
I59
tp662
a(S'w'
I1
tp663
a(S'p2_ll'
I1
tp664
a(S'p2_th'
I2
tp665
a(S'w'
I8
tp666
a(S'tr_tl'
I172
tp667
a(S'w'
I1
tp668
a(S'tr_ll'
I1
tp669
a(S'w'
I2153
tp670
a(S'p1_vo'
I6
tp671
a(S'w'
I8
tp672
a(S'p2_vo'
I6
tp673
a(S'w'
I1459
tp674
a(S'p1_vo'
I5
tp675
a(S'w'
I9
tp676
a(S'p2_vo'
I5
tp677
a(S'w'
I1459
tp678
a(S'p1_vo'
I4
tp679
a(S'w'
I9
tp680
a(S'p2_vo'
I4
tp681
a(S'w'
I2192
tp682
a(S'p1_vo'
I3
tp683
a(S'w'
I9
tp684
a(S'p2_vo'
I3
tp685
a(S'w'
I1480
tp686
a(S'tr_ll'
I1
tp687
a(S'w'
I3648
tp688
a(S'p1_vo'
I2
tp689
a(S'w'
I9
tp690
a(S'p2_vo'
I2
tp691
a(S'w'
I5146
tp692
a(S'p1_vo'
I7
tp693
a(S'w'
I4
tp694
a(S'p1_ll'
I1
tp695
a(S'w'
I7
tp696
a(S'p2_vo'
I7
tp697
a(S'w'
I3
tp698
a(S'w'
I1
tp699
a(S'p2_ll'
I1
tp700
a(S'w'
I9
tp701
a(S'tr_ll'
I1
tp702
a(S'w'
I2159
tp703
a(S'p1_vo'
I6
tp704
a(S'w'
I9
tp705
a(S'p2_vo'
I6
tp706
a(S'w'
I1458
tp707
a(S'p1_vo'
I5
tp708
a(S'w'
I9
tp709
a(S'p2_vo'
I5
tp710
a(S'w'
I1459
tp711
a(S'p1_vo'
I4
tp712
a(S'w'
I9
tp713
a(S'p2_vo'
I4
tp714
a(S'w'
I2192
tp715
a(S'p1_vo'
I3
tp716
a(S'w'
I9
tp717
a(S'p2_vo'
I3
tp718
a(S'w'
I1482
tp719
a(S'tr_tl'
I224
tp720
a(S'w'
I1
tp721
a(S'tr_ll'
I1
tp722
a(S'w'
I3645
tp723
a(S'p1_vo'
I2
tp724
a(S'w'
I9
tp725
a(S'p2_vo'
I2
tp726
a(S'w'
I5146
tp727
a(S'p1_vo'
I7
tp728
a(S'w'
I4
tp729
a(S'p1_ll'
I1
tp730
a(S'w'
I7
tp731
a(S'p2_vo'
I7
tp732
a(S'w'
I3
tp733
a(S'w'
I1
tp734
a(S'p2_ll'
I1
tp735
a(S'w'
I9
tp736
a(S'tr_tl'
I172
tp737
a(S'tr_ll'
I1
tp738
a(S'w'
I2159
tp739
a(S'p1_vo'
I6
tp740
a(S'w'
I9
tp741
a(S'p2_vo'
I6
tp742
a(S'w'
I1459
tp743
a(S'p1_vo'
I5
tp744
a(S'w'
I8
tp745
a(S'p2_vo'
I5
tp746
a(S'w'
I1459
tp747
a(S'p1_vo'
I4
tp748
a(S'w'
I9
tp749
a(S'p2_vo'
I4
tp750
a(S'w'
I2193
tp751
a(S'p1_vo'
I3
tp752
a(S'w'
I8
tp753
a(S'p2_vo'
I3
tp754
a(S'w'
I1480
tp755
a(S'tr_ll'
I1
tp756
a(S'w'
I3648
tp757
a(S'p1_vo'
I2
tp758
a(S'w'
I9
tp759
a(S'p2_vo'
I2
tp760
a(S'w'
I5147
tp761
a(S'p1_vo'
I7
tp762
a(S'w'
I4
tp763
a(S'p1_ll'
I1
tp764
a(S'w'
I7
tp765
a(S'p2_vo'
I7
tp766
a(S'w'
I4
tp767
a(S'p2_ll'
I1
tp768
a(S'w'
I9
tp769
a(S'tr_ll'
I1
tp770
a(S'w'
I2158
tp771
a(S'p1_vo'
I6
tp772
a(S'w'
I9
tp773
a(S'p2_vo'
I6
tp774
a(S'w'
I1459
tp775
a(S'p1_vo'
I5
tp776
a(S'w'
I9
tp777
a(S'p2_vo'
I5
tp778
a(S'w'
I1458
tp779
a(S'p1_vo'
I4
tp780
a(S'w'
I9
tp781
a(S'p2_vo'
I4
tp782
a(S'w'
I2193
tp783
a(S'p1_vo'
I3
tp784
a(S'w'
I9
tp785
a(S'p2_vo'
I3
tp786
a(S'w'
I1485
tp787
a(S'p1_vo'
I7
tp788
a(S'w'
I4
tp789
a(S'p1_tl'
I224
tp790
a(S'w'
I1
tp791
a(S'p1_ll'
I1
tp792
a(S'w'
I6
tp793
a(S'p2_vo'
I7
tp794
a(S'w'
I4
tp795
a(S'p2_tl'
I129
tp796
a(S'p2_ll'
I1
tp797
a(S'w'
I9
tp798
a(S'tr_tl'
I224
tp799
a(S'w'
I1
tp800
a(S'tr_ll'
I1
tp801
a(S'w'
I8783
tp802
a(S'p1_tl'
I172
tp803
a(S'p1_ll'
I1
tp804
a(S'w'
I10
tp805
a(S'p2_tl'
I59
tp806
a(S'w'
I1
tp807
a(S'p2_ll'
I1
tp808
a(S'w'
I8
tp809
a(S'tr_tl'
I172
tp810
a(S'w'
I1
tp811
a(S'tr_ll'
I1
tp812
a(S'w'
I2153
tp813
a(S'p1_vo'
I6
tp814
a(S'w'
I8
tp815
a(S'p2_vo'
I6
tp816
a(S'w'
I1459
tp817
a(S'p1_vo'
I5
tp818
a(S'w'
I9
tp819
a(S'p2_vo'
I5
tp820
a(S'w'
I1459
tp821
a(S'p1_vo'
I4
tp822
a(S'w'
I9
tp823
a(S'p2_vo'
I4
tp824
a(S'w'
I2192
tp825
a(S'p1_vo'
I3
tp826
a(S'w'
I9
tp827
a(S'p2_vo'
I3
tp828
a(S'w'
I1480
tp829
a(S'tr_ll'
I1
tp830
a(S'w'
I3648
tp831
a(S'p1_vo'
I2
tp832
a(S'w'
I9
tp833
a(S'p2_vo'
I2
tp834
a(S'w'
I5146
tp835
a(S'p1_vo'
I7
tp836
a(S'w'
I4
tp837
a(S'p1_ll'
I1
tp838
a(S'w'
I6
tp839
a(S'p2_vo'
I7
tp840
a(S'w'
I4
tp841
a(S'w'
I1
tp842
a(S'p2_ll'
I1
tp843
a(S'w'
I9
tp844
a(S'tr_ll'
I1
tp845
a(S'w'
I2159
tp846
a(S'p1_vo'
I6
tp847
a(S'w'
I9
tp848
a(S'p2_vo'
I6
tp849
a(S'w'
I1458
tp850
a(S'p1_vo'
I5
tp851
a(S'w'
I9
tp852
a(S'p2_vo'
I5
tp853
a(S'w'
I1459
tp854
a(S'p1_vo'
I4
tp855
a(S'w'
I9
tp856
a(S'p2_vo'
I4
tp857
a(S'w'
I2192
tp858
a(S'p1_vo'
I3
tp859
a(S'w'
I9
tp860
a(S'p2_vo'
I3
tp861
a(S'w'
I1482
tp862
a(S'tr_tl'
I224
tp863
a(S'w'
I1
tp864
a(S'tr_ll'
I1
tp865
a(S'w'
I3645
tp866
a(S'p1_vo'
I2
tp867
a(S'w'
I9
tp868
a(S'p2_vo'
I2
tp869
a(S'w'
I5146
tp870
a(S'p1_vo'
I7
tp871
a(S'w'
I4
tp872
a(S'p1_ll'
I1
tp873
a(S'w'
I7
tp874
a(S'p2_vo'
I7
tp875
a(S'w'
I3
tp876
a(S'w'
I1
tp877
a(S'p2_ll'
I1
tp878
a(S'w'
I9
tp879
a(S'tr_tl'
I172
tp880
a(S'tr_ll'
I1
tp881
a(S'w'
I2159
tp882
a(S'p1_vo'
I6
tp883
a(S'w'
I9
tp884
a(S'p2_vo'
I6
tp885
a(S'w'
I1459
tp886
a(S'p1_vo'
I5
tp887
a(S'w'
I8
tp888
a(S'p2_vo'
I5
tp889
a(S'w'
I1459
tp890
a(S'p1_vo'
I4
tp891
a(S'w'
I9
tp892
a(S'p2_vo'
I4
tp893
a(S'w'
I2193
tp894
a(S'p1_vo'
I3
tp895
a(S'w'
I8
tp896
a(S'p2_vo'
I3
tp897
a(S'w'
I1480
tp898
a(S'tr_ll'
I1
tp899
a(S'w'
I3648
tp900
a(S'p1_vo'
I2
tp901
a(S'w'
I9
tp902
a(S'p2_vo'
I2
tp903
a(S'w'
I5147
tp904
a(S'p1_vo'
I7
tp905
a(S'w'
I4
tp906
a(S'p1_ll'
I1
tp907
a(S'w'
I7
tp908
a(S'p2_vo'
I7
tp909
a(S'w'
I4
tp910
a(S'p2_ll'
I1
tp911
a(S'w'
I9
tp912
a(S'tr_ll'
I1
tp913
a(S'w'
I2158
tp914
a(S'p1_vo'
I6
tp915
a(S'w'
I9
tp916
a(S'p2_vo'
I6
tp917
a(S'w'
I1459
tp918
a(S'p1_vo'
I5
tp919
a(S'w'
I9
tp920
a(S'p2_vo'
I5
tp921
a(S'w'
I1458
tp922
a(S'p1_vo'
I4
tp923
a(S'w'
I9
tp924
a(S'p2_vo'
I4
tp925
a(S'w'
I2193
tp926
a(S'p1_vo'
I3
tp927
a(S'w'
I9
tp928
a(S'p2_vo'
I3
tp929
a(S'w'
I1493
tp930
a(S'p1_vo'
I7
tp931
a(S'w'
I3
tp932
a(S'p1_tl'
I29
tp933
a(S'w'
I1
tp934
a(S'p1_ll'
I1
tp935
a(S'w'
I6
tp936
a(S'p2_vo'
I7
tp937
a(S'w'
I4
tp938
a(S'p2_tl'
I104
tp939
a(S'w'
I1
tp940
a(S'p2_ll'
I1
tp941
a(S'p2_th'
I1
tp942
a(S'w'
I7
tp943
a(S'tr_lh'
I1
tp944
a(S'tr_lr'
I127
tp945
a(S'w'
I1
tp946
a(S'tr_tl'
I224
tp947
a(S'w'
I1
tp948
a(S'tr_ll'
I1
tp949
a(S'w'
I17569
tp950
a(S'p1_tl'
I64
tp951
a(S'p1_ll'
I1
tp952
a(S'w'
I10
tp953
a(S'p2_tl'
I172
tp954
a(S'w'
I1
tp955
a(S'p2_ll'
I1
tp956
a(S'w'
I17606
tp957
a(S'p1_tl'
I104
tp958
a(S'p1_ll'
I1
tp959
a(S'w'
I11
tp960
a(S'p2_tl'
I224
tp961
a(S'p2_ll'
I1
tp962
a(S'w'
I9
tp963
a(S'tr_tl'
I197
tp964
a(S'tr_ll'
I1
tp965
a(S'w'
I17585
tp966
a(S'p1_tl'
I125
tp967
a(S'w'
I1
tp968
a(S'p1_ll'
I1
tp969
a(S'w'
I10
tp970
a(S'p2_tl'
I252
tp971
a(S'p2_ll'
I1
tp972
a(S'w'
I16864
tp973
a.