(lp1
(S'clock'
p2
I1789772
tp3
a(S'fc_mo'
I1
tp4
a(S'ch_no'
I1
tp5
a(S'ch_tr'
I1
tp6
a(S'ch_p2'
I1
tp7
a(S'ch_p1'
I1
tp8
a(S'w'
I4
tp9
a(S'p2_tl'
I190
tp10
a(S'p2_ll'
I1
tp11
a(S'w'
I1
tp12
a(S'p2_sp'
I7
tp13
a(S'p2_sn'
I1
tp14
a(S'p2_ss'
I7
tp15
a(S'p2_du'
I2
tp16
a(S'p2_vo'
I6
tp17
a(S'w'
I1
tp18
a(S'p2_cv'
I1
tp19
a(S'w'
I1
tp20
a(S'p2_tl'
I189
tp21
a(S'w'
I729
tp22
a(S'p2_vo'
I7
tp23
a(S'w'
I1
tp24
a(S'p2_tl'
I191
tp25
a(S'w'
I733
tp26
a(S'p2_vo'
I8
tp27
a(S'w'
I1
tp28
a(S'w'
I733
tp29
a(S'p2_vo'
I9
tp30
a(S'w'
I1
tp31
a(S'w'
I733
tp32
a(S'p2_vo'
I10
tp33
a(S'w'
I1
tp34
a(S'w'
I732
tp35
a(S'p2_vo'
I11
tp36
a(S'w'
I1
tp37
a(S'p2_tl'
I190
tp38
a(S'w'
I733
tp39
a(S'p2_vo'
I12
tp40
a(S'w'
I1
tp41
a(S'w'
I733
tp42
a(S'p2_vo'
I13
tp43
a(S'w'
I1
tp44
a(S'w'
I733
tp45
a(S'p2_vo'
I14
tp46
a(S'w'
I1
tp47
a(S'w'
I733
tp48
a(S'p2_vo'
I15
tp49
a(S'w'
I1
tp50
a(S'w'
I733
tp51
a(S'w'
I734
tp52
a(S'w'
I734
tp53
a(S'w'
I734
tp54
a(S'w'
I734
tp55
a(S'w'
I733
tp56
a(S'w'
I734
tp57
a(S'w'
I734
tp58
a(S'w'
I734
tp59
a(S'w'
I734
tp60
a(S'w'
I732
tp61
a(S'p2_tl'
I169
tp62
a(S'w'
I1
tp63
a(S'p2_ll'
I1
tp64
a(S'p2_cv'
I0
tp65
a(S'p2_vo'
I6
tp66
a(S'w'
I1
tp67
a(S'p2_cv'
I1
tp68
a(S'w'
I1
tp69
a(S'p2_tl'
I168
tp70
a(S'w'
I731
tp71
a(S'p2_vo'
I7
tp72
a(S'w'
I1
tp73
a(S'p2_tl'
I170
tp74
a(S'w'
I733
tp75
a(S'p2_vo'
I8
tp76
a(S'w'
I1
tp77
a(S'w'
I733
tp78
a(S'p2_vo'
I9
tp79
a(S'w'
I1
tp80
a(S'w'
I733
tp81
a(S'p2_vo'
I10
tp82
a(S'w'
I1
tp83
a(S'w'
I732
tp84
a(S'p2_vo'
I11
tp85
a(S'w'
I1
tp86
a(S'p2_tl'
I169
tp87
a(S'w'
I733
tp88
a(S'p2_vo'
I12
tp89
a(S'w'
I1
tp90
a(S'w'
I733
tp91
a(S'p2_vo'
I13
tp92
a(S'w'
I1
tp93
a(S'w'
I733
tp94
a(S'p2_vo'
I14
tp95
a(S'w'
I1
tp96
a(S'w'
I732
tp97
a(S'p2_vo'
I15
tp98
a(S'w'
I1
tp99
a(S'w'
I734
tp100
a(S'w'
I734
tp101
a(S'w'
I734
tp102
a(S'w'
I734
tp103
a(S'w'
I733
tp104
a(S'w'
I734
tp105
a(S'w'
I734
tp106
a(S'w'
I734
tp107
a(S'w'
I734
tp108
a(S'w'
I733
tp109
a(S'w'
I734
tp110
a(S'p2_tl'
I95
tp111
a(S'p2_ll'
I1
tp112
a(S'w'
I1
tp113
a(S'p2_cv'
I0
tp114
a(S'p2_vo'
I6
tp115
a(S'p2_cv'
I1
tp116
a(S'w'
I2
tp117
a(S'p2_tl'
I96
tp118
a(S'w'
I730
tp119
a(S'p2_vo'
I7
tp120
a(S'w'
I1
tp121
a(S'p2_tl'
I94
tp122
a(S'w'
I733
tp123
a(S'p2_vo'
I8
tp124
a(S'w'
I1
tp125
a(S'w'
I733
tp126
a(S'p2_vo'
I9
tp127
a(S'w'
I1
tp128
a(S'w'
I732
tp129
a(S'p2_vo'
I10
tp130
a(S'w'
I1
tp131
a(S'w'
I733
tp132
a(S'p2_vo'
I11
tp133
a(S'w'
I1
tp134
a(S'p2_tl'
I96
tp135
a(S'w'
I733
tp136
a(S'p2_vo'
I12
tp137
a(S'w'
I1
tp138
a(S'w'
I733
tp139
a(S'p2_vo'
I13
tp140
a(S'w'
I1
tp141
a(S'w'
I733
tp142
a(S'p2_vo'
I14
tp143
a(S'w'
I1
tp144
a(S'w'
I732
tp145
a(S'p2_vo'
I15
tp146
a(S'w'
I1
tp147
a(S'p2_tl'
I94
tp148
a(S'w'
I734
tp149
a(S'w'
I734
tp150
a(S'w'
I734
tp151
a(S'w'
I733
tp152
a(S'p2_tl'
I96
tp153
a(S'w'
I734
tp154
a(S'w'
I734
tp155
a(S'w'
I734
tp156
a(S'w'
I734
tp157
a(S'p2_tl'
I94
tp158
a(S'w'
I733
tp159
a(S'w'
I734
tp160
a(S'w'
I734
tp161
a(S'w'
I734
tp162
a(S'p2_tl'
I96
tp163
a(S'w'
I733
tp164
a(S'p2_vo'
I14
tp165
a(S'w'
I1
tp166
a(S'w'
I732
tp167
a(S'p2_vo'
I13
tp168
a(S'w'
I1
tp169
a(S'w'
I733
tp170
a(S'p2_vo'
I12
tp171
a(S'w'
I1
tp172
a(S'w'
I733
tp173
a(S'p2_vo'
I11
tp174
a(S'w'
I1
tp175
a(S'p2_tl'
I95
tp176
a(S'w'
I733
tp177
a(S'p2_vo'
I10
tp178
a(S'w'
I1
tp179
a(S'w'
I733
tp180
a(S'p2_vo'
I9
tp181
a(S'w'
I1
tp182
a(S'w'
I732
tp183
a(S'p2_vo'
I8
tp184
a(S'w'
I1
tp185
a(S'w'
I733
tp186
a(S'p2_vo'
I7
tp187
a(S'w'
I1
tp188
a(S'w'
I733
tp189
a(S'p2_vo'
I6
tp190
a(S'w'
I1
tp191
a(S'w'
I733
tp192
a(S'p2_vo'
I5
tp193
a(S'w'
I1
tp194
a(S'w'
I734
tp195
a(S'w'
I733
tp196
a(S'w'
I734
tp197
a(S'w'
I734
tp198
a(S'w'
I734
tp199
a(S'w'
I733
tp200
a(S'w'
I734
tp201
a(S'w'
I734
tp202
a(S'w'
I734
tp203
a(S'p2_tl'
I100
tp204
a(S'p2_ll'
I1
tp205
a(S'w'
I1
tp206
a(S'p2_cv'
I0
tp207
a(S'p2_vo'
I6
tp208
a(S'p2_cv'
I1
tp209
a(S'w'
I1
tp210
a(S'w'
I731
tp211
a(S'p2_vo'
I7
tp212
a(S'w'
I1
tp213
a(S'w'
I732
tp214
a(S'p2_vo'
I8
tp215
a(S'w'
I1
tp216
a(S'w'
I733
tp217
a(S'p2_vo'
I9
tp218
a(S'w'
I1
tp219
a(S'w'
I733
tp220
a(S'p2_vo'
I10
tp221
a(S'w'
I1
tp222
a(S'w'
I733
tp223
a(S'p2_vo'
I11
tp224
a(S'w'
I1
tp225
a(S'w'
I733
tp226
a(S'p2_vo'
I12
tp227
a(S'w'
I1
tp228
a(S'w'
I732
tp229
a(S'p2_vo'
I13
tp230
a(S'w'
I1
tp231
a(S'w'
I733
tp232
a(S'p2_vo'
I14
tp233
a(S'w'
I1
tp234
a(S'w'
I733
tp235
a(S'p2_vo'
I15
tp236
a(S'w'
I1
tp237
a(S'w'
I733
tp238
a(S'p2_tl'
I106
tp239
a(S'w'
I1
tp240
a(S'p2_ll'
I1
tp241
a(S'p2_cv'
I0
tp242
a(S'p2_vo'
I6
tp243
a(S'w'
I1
tp244
a(S'p2_cv'
I1
tp245
a(S'w'
I1
tp246
a(S'w'
I731
tp247
a(S'p2_vo'
I7
tp248
a(S'w'
I1
tp249
a(S'w'
I732
tp250
a(S'p2_vo'
I8
tp251
a(S'w'
I1
tp252
a(S'w'
I733
tp253
a(S'p2_vo'
I9
tp254
a(S'w'
I1
tp255
a(S'w'
I733
tp256
a(S'p2_vo'
I10
tp257
a(S'w'
I1
tp258
a(S'w'
I733
tp259
a(S'p2_vo'
I11
tp260
a(S'w'
I1
tp261
a(S'w'
I733
tp262
a(S'p2_vo'
I12
tp263
a(S'w'
I1
tp264
a(S'w'
I732
tp265
a(S'p2_vo'
I13
tp266
a(S'w'
I1
tp267
a(S'w'
I733
tp268
a(S'p2_vo'
I14
tp269
a(S'w'
I1
tp270
a(S'w'
I733
tp271
a(S'p2_vo'
I15
tp272
a(S'w'
I1
tp273
a(S'w'
I734
tp274
a(S'p2_tl'
I113
tp275
a(S'p2_ll'
I1
tp276
a(S'w'
I1
tp277
a(S'p2_cv'
I0
tp278
a(S'p2_vo'
I6
tp279
a(S'p2_cv'
I1
tp280
a(S'w'
I2
tp281
a(S'p2_tl'
I112
tp282
a(S'w'
I729
tp283
a(S'p2_vo'
I7
tp284
a(S'w'
I1
tp285
a(S'p2_tl'
I114
tp286
a(S'w'
I733
tp287
a(S'p2_vo'
I8
tp288
a(S'w'
I1
tp289
a(S'w'
I733
tp290
a(S'p2_vo'
I9
tp291
a(S'w'
I1
tp292
a(S'w'
I733
tp293
a(S'p2_vo'
I10
tp294
a(S'w'
I1
tp295
a(S'w'
I733
tp296
a(S'p2_vo'
I11
tp297
a(S'w'
I1
tp298
a(S'p2_tl'
I112
tp299
a(S'w'
I732
tp300
a(S'p2_vo'
I12
tp301
a(S'w'
I1
tp302
a(S'w'
I733
tp303
a(S'p2_vo'
I13
tp304
a(S'w'
I1
tp305
a(S'w'
I733
tp306
a(S'p2_vo'
I14
tp307
a(S'w'
I1
tp308
a(S'w'
I733
tp309
a(S'p2_vo'
I15
tp310
a(S'w'
I1
tp311
a(S'p2_tl'
I114
tp312
a(S'w'
I734
tp313
a(S'w'
I733
tp314
a(S'w'
I734
tp315
a(S'w'
I734
tp316
a(S'p2_tl'
I112
tp317
a(S'w'
I734
tp318
a(S'w'
I734
tp319
a(S'w'
I733
tp320
a(S'w'
I734
tp321
a(S'p2_tl'
I114
tp322
a(S'w'
I734
tp323
a(S'w'
I734
tp324
a(S'w'
I734
tp325
a(S'w'
I733
tp326
a(S'p2_tl'
I112
tp327
a(S'w'
I733
tp328
a(S'p2_vo'
I14
tp329
a(S'w'
I1
tp330
a(S'w'
I733
tp331
a(S'p2_vo'
I13
tp332
a(S'w'
I1
tp333
a(S'w'
I733
tp334
a(S'p2_vo'
I12
tp335
a(S'w'
I1
tp336
a(S'w'
I732
tp337
a(S'p2_vo'
I11
tp338
a(S'w'
I1
tp339
a(S'p2_tl'
I114
tp340
a(S'w'
I733
tp341
a(S'p2_vo'
I10
tp342
a(S'w'
I1
tp343
a(S'w'
I733
tp344
a(S'p2_vo'
I9
tp345
a(S'w'
I1
tp346
a(S'w'
I733
tp347
a(S'p2_vo'
I8
tp348
a(S'w'
I1
tp349
a(S'w'
I733
tp350
a(S'p2_vo'
I7
tp351
a(S'w'
I1
tp352
a(S'p2_tl'
I112
tp353
a(S'w'
I732
tp354
a(S'p2_vo'
I6
tp355
a(S'w'
I1
tp356
a(S'w'
I733
tp357
a(S'p2_vo'
I5
tp358
a(S'w'
I1
tp359
a(S'w'
I734
tp360
a(S'w'
I734
tp361
a(S'p2_tl'
I114
tp362
a(S'w'
I734
tp363
a(S'w'
I733
tp364
a(S'w'
I734
tp365
a(S'w'
I734
tp366
a(S'p2_tl'
I112
tp367
a(S'w'
I734
tp368
a(S'w'
I734
tp369
a(S'w'
I733
tp370
a(S'w'
I734
tp371
a(S'p2_tl'
I114
tp372
a(S'w'
I734
tp373
a(S'w'
I734
tp374
a(S'w'
I734
tp375
a(S'w'
I733
tp376
a(S'p2_tl'
I112
tp377
a(S'w'
I734
tp378
a(S'w'
I734
tp379
a(S'w'
I734
tp380
a(S'w'
I733
tp381
a(S'p2_tl'
I114
tp382
a(S'w'
I734
tp383
a(S'w'
I734
tp384
a(S'w'
I734
tp385
a(S'w'
I734
tp386
a(S'p2_tl'
I112
tp387
a(S'w'
I733
tp388
a(S'w'
I734
tp389
a(S'w'
I734
tp390
a(S'w'
I734
tp391
a(S'p2_tl'
I114
tp392
a(S'w'
I734
tp393
a(S'w'
I733
tp394
a(S'w'
I734
tp395
a(S'w'
I734
tp396
a(S'p2_tl'
I113
tp397
a(S'w'
I734
tp398
a(S'w'
I734
tp399
a(S'w'
I733
tp400
a(S'w'
I734
tp401
a(S'w'
I734
tp402
a(S'w'
I734
tp403
a(S'w'
I734
tp404
a(S'w'
I733
tp405
a(S'w'
I734
tp406
a(S'w'
I734
tp407
a(S'w'
I734
tp408
a(S'w'
I733
tp409
a(S'w'
I734
tp410
a(S'w'
I734
tp411
a(S'w'
I733
tp412
a(S'p2_vo'
I0
tp413
a(S'p2_ll'
I3
tp414
a(S'w'
I1
tp415
a(S'p2_tl'
I0
tp416
a(S'w'
I49025
tp417
a.