(lp1
(S'clock'
p2
I1789772
tp3
a(S'fc_mo'
I1
tp4
a(S'ch_no'
I1
tp5
a(S'ch_tr'
I1
tp6
a(S'ch_p2'
I1
tp7
a(S'ch_p1'
I1
tp8
a(S'w'
I12
tp9
a(S'p2_tl'
I171
tp10
a(S'p2_ll'
I1
tp11
a(S'p2_th'
I1
tp12
a(S'w'
I1
tp13
a(S'p2_du'
I2
tp14
a(S'p2_vo'
I2
tp15
a(S'p2_sp'
I7
tp16
a(S'p2_sn'
I1
tp17
a(S'p2_ss'
I7
tp18
a(S'w'
I2
tp19
a(S'p2_cv'
I1
tp20
a(S'p2_vo'
I7
tp21
a(S'w'
I3
tp22
a(S'p1_tl'
I254
tp23
a(S'p1_ll'
I1
tp24
a(S'w'
I1
tp25
a(S'p1_sp'
I7
tp26
a(S'p1_sn'
I1
tp27
a(S'p1_ss'
I7
tp28
a(S'p1_du'
I2
tp29
a(S'p1_vo'
I2
tp30
a(S'w'
I2
tp31
a(S'p1_cv'
I1
tp32
a(S'p1_vo'
I7
tp33
a(S'w'
I2
tp34
a(S'tr_lr'
I31
tp35
a(S'w'
I1
tp36
a(S'tr_tl'
I64
tp37
a(S'tr_ll'
I1
tp38
a(S'tr_th'
I1
tp39
a(S'w'
I2
tp40
a(S'tr_lh'
I1
tp41
a(S'tr_lr'
I127
tp42
a(S'w'
I1449
tp43
a(S'p2_vo'
I8
tp44
a(S'w'
I2
tp45
a(S'p1_vo'
I8
tp46
a(S'w'
I1466
tp47
a(S'p2_vo'
I9
tp48
a(S'w'
I2
tp49
a(S'p1_vo'
I9
tp50
a(S'w'
I2199
tp51
a(S'p2_vo'
I8
tp52
a(S'w'
I2
tp53
a(S'p1_vo'
I8
tp54
a(S'w'
I2933
tp55
a(S'p2_vo'
I7
tp56
a(S'w'
I2
tp57
a(S'p1_vo'
I7
tp58
a(S'w'
I731
tp59
a(S'p2_tl'
I147
tp60
a(S'w'
I1
tp61
a(S'p2_ll'
I1
tp62
a(S'w'
I1
tp63
a(S'p2_cv'
I0
tp64
a(S'p2_vo'
I2
tp65
a(S'w'
I2
tp66
a(S'p2_cv'
I1
tp67
a(S'p2_vo'
I7
tp68
a(S'w'
I2
tp69
a(S'p1_tl'
I239
tp70
a(S'p1_ll'
I1
tp71
a(S'w'
I1
tp72
a(S'p1_cv'
I0
tp73
a(S'p1_vo'
I2
tp74
a(S'w'
I2
tp75
a(S'p1_cv'
I1
tp76
a(S'p1_vo'
I7
tp77
a(S'w'
I2
tp78
a(S'tr_tl'
I46
tp79
a(S'tr_ll'
I1
tp80
a(S'w'
I1458
tp81
a(S'p2_vo'
I8
tp82
a(S'w'
I2
tp83
a(S'p1_vo'
I8
tp84
a(S'w'
I1465
tp85
a(S'p2_vo'
I9
tp86
a(S'w'
I2
tp87
a(S'p1_vo'
I9
tp88
a(S'w'
I2200
tp89
a(S'p2_vo'
I8
tp90
a(S'w'
I2
tp91
a(S'p1_vo'
I8
tp92
a(S'w'
I2933
tp93
a(S'p2_vo'
I7
tp94
a(S'w'
I2
tp95
a(S'p1_vo'
I7
tp96
a(S'w'
I731
tp97
a(S'p2_tl'
I124
tp98
a(S'w'
I1
tp99
a(S'p2_ll'
I1
tp100
a(S'w'
I1
tp101
a(S'p2_cv'
I0
tp102
a(S'p2_vo'
I2
tp103
a(S'w'
I2
tp104
a(S'p2_cv'
I1
tp105
a(S'p2_vo'
I7
tp106
a(S'w'
I2
tp107
a(S'p1_tl'
I226
tp108
a(S'p1_ll'
I1
tp109
a(S'w'
I1
tp110
a(S'p1_cv'
I0
tp111
a(S'p1_vo'
I2
tp112
a(S'w'
I2
tp113
a(S'p1_cv'
I1
tp114
a(S'p1_vo'
I7
tp115
a(S'w'
I2
tp116
a(S'tr_tl'
I29
tp117
a(S'tr_ll'
I1
tp118
a(S'w'
I1457
tp119
a(S'p2_vo'
I8
tp120
a(S'w'
I2
tp121
a(S'p1_vo'
I8
tp122
a(S'w'
I1466
tp123
a(S'p2_vo'
I9
tp124
a(S'w'
I2
tp125
a(S'p1_vo'
I9
tp126
a(S'w'
I2199
tp127
a(S'p2_vo'
I8
tp128
a(S'w'
I2
tp129
a(S'p1_vo'
I8
tp130
a(S'w'
I2933
tp131
a(S'p2_vo'
I7
tp132
a(S'w'
I2
tp133
a(S'p1_vo'
I7
tp134
a(S'w'
I733
tp135
a(S'p2_tl'
I103
tp136
a(S'p2_ll'
I1
tp137
a(S'w'
I1
tp138
a(S'p2_cv'
I0
tp139
a(S'p2_vo'
I2
tp140
a(S'w'
I2
tp141
a(S'p2_cv'
I1
tp142
a(S'p2_vo'
I7
tp143
a(S'w'
I3
tp144
a(S'p1_tl'
I213
tp145
a(S'p1_ll'
I1
tp146
a(S'w'
I1
tp147
a(S'p1_cv'
I0
tp148
a(S'p1_vo'
I2
tp149
a(S'w'
I2
tp150
a(S'p1_cv'
I1
tp151
a(S'p1_vo'
I7
tp152
a(S'w'
I2
tp153
a(S'tr_lh'
I0
tp154
a(S'tr_lr'
I31
tp155
a(S'w'
I1
tp156
a(S'tr_tl'
I13
tp157
a(S'w'
I1
tp158
a(S'tr_ll'
I1
tp159
a(S'w'
I1
tp160
a(S'tr_lh'
I1
tp161
a(S'tr_lr'
I127
tp162
a(S'w'
I1453
tp163
a(S'p2_vo'
I8
tp164
a(S'w'
I2
tp165
a(S'p1_vo'
I8
tp166
a(S'w'
I1465
tp167
a(S'p2_vo'
I9
tp168
a(S'w'
I2
tp169
a(S'p1_vo'
I9
tp170
a(S'w'
I2200
tp171
a(S'p2_vo'
I8
tp172
a(S'w'
I2
tp173
a(S'p1_vo'
I8
tp174
a(S'w'
I2933
tp175
a(S'p2_vo'
I7
tp176
a(S'w'
I2
tp177
a(S'p1_vo'
I7
tp178
a(S'w'
I2933
tp179
a(S'p2_vo'
I6
tp180
a(S'w'
I2
tp181
a(S'p1_vo'
I6
tp182
a(S'w'
I2
tp183
a(S'tr_tl'
I14
tp184
a(S'w'
I2935
tp185
a(S'tr_tl'
I12
tp186
a(S'w'
I2931
tp187
a(S'p2_vo'
I5
tp188
a(S'w'
I2
tp189
a(S'p1_vo'
I5
tp190
a(S'w'
I2
tp191
a(S'tr_tl'
I14
tp192
a(S'w'
I2935
tp193
a(S'tr_tl'
I12
tp194
a(S'w'
I730
tp195
a(S'p2_vo'
I4
tp196
a(S'w'
I2
tp197
a(S'p1_vo'
I4
tp198
a(S'w'
I2204
tp199
a(S'tr_tl'
I14
tp200
a(S'w'
I2935
tp201
a(S'tr_tl'
I12
tp202
a(S'w'
I2935
tp203
a(S'tr_tl'
I14
tp204
a(S'w'
I2935
tp205
a(S'tr_tl'
I12
tp206
a(S'w'
I2935
tp207
a(S'tr_tl'
I14
tp208
a(S'w'
I729
tp209
a(S'ch_no'
I0
tp210
a(S'ch_tr'
I0
tp211
a(S'ch_p2'
I0
tp212
a(S'ch_p1'
I0
tp213
a(S'ch_no'
I1
tp214
a(S'ch_tr'
I1
tp215
a(S'ch_p2'
I1
tp216
a(S'ch_p1'
I1
tp217
a(S'w'
I48947
tp218
a.