(lp1
(S'clock'
p2
I1789772
tp3
a(S'fc_mo'
I1
tp4
a(S'ch_no'
I1
tp5
a(S'ch_tr'
I1
tp6
a(S'ch_p2'
I1
tp7
a(S'ch_p1'
I1
tp8
a(S'w'
I2
tp9
a(S'ch_no'
I0
tp10
a(S'ch_tr'
I0
tp11
a(S'ch_p2'
I0
tp12
a(S'ch_p1'
I0
tp13
a(S'ch_no'
I1
tp14
a(S'ch_tr'
I1
tp15
a(S'ch_p2'
I1
tp16
a(S'ch_p1'
I1
tp17
a(S'w'
I3
tp18
a(S'p2_sp'
I7
tp19
a(S'p2_sn'
I1
tp20
a(S'p2_ss'
I7
tp21
a(S'w'
I1
tp22
a(S'p2_du'
I2
tp23
a(S'p2_vo'
I6
tp24
a(S'p2_cv'
I1
tp25
a(S'w'
I1
tp26
a(S'w'
I729
tp27
a(S'p2_vo'
I7
tp28
a(S'w'
I1
tp29
a(S'w'
I733
tp30
a(S'p2_vo'
I8
tp31
a(S'w'
I1
tp32
a(S'w'
I733
tp33
a(S'p2_vo'
I9
tp34
a(S'w'
I1
tp35
a(S'w'
I733
tp36
a(S'p2_vo'
I10
tp37
a(S'w'
I1
tp38
a(S'w'
I732
tp39
a(S'p2_vo'
I11
tp40
a(S'w'
I1
tp41
a(S'w'
I733
tp42
a(S'p2_vo'
I12
tp43
a(S'w'
I1
tp44
a(S'w'
I733
tp45
a(S'p2_vo'
I13
tp46
a(S'w'
I1
tp47
a(S'w'
I733
tp48
a(S'p2_vo'
I14
tp49
a(S'w'
I1
tp50
a(S'w'
I733
tp51
a(S'p2_vo'
I15
tp52
a(S'w'
I1
tp53
a(S'w'
I733
tp54
a(S'p2_cv'
I0
tp55
a(S'p2_vo'
I6
tp56
a(S'w'
I1
tp57
a(S'p2_cv'
I1
tp58
a(S'w'
I732
tp59
a(S'p2_vo'
I7
tp60
a(S'w'
I1
tp61
a(S'w'
I733
tp62
a(S'p2_vo'
I8
tp63
a(S'w'
I1
tp64
a(S'w'
I733
tp65
a(S'p2_vo'
I9
tp66
a(S'w'
I1
tp67
a(S'w'
I733
tp68
a(S'p2_vo'
I10
tp69
a(S'w'
I1
tp70
a(S'w'
I732
tp71
a(S'p2_vo'
I11
tp72
a(S'w'
I1
tp73
a(S'w'
I733
tp74
a(S'p2_vo'
I12
tp75
a(S'w'
I1
tp76
a(S'w'
I733
tp77
a(S'p2_vo'
I13
tp78
a(S'w'
I1
tp79
a(S'w'
I733
tp80
a(S'p2_vo'
I14
tp81
a(S'w'
I1
tp82
a(S'w'
I733
tp83
a(S'p2_vo'
I15
tp84
a(S'w'
I1
tp85
a(S'w'
I733
tp86
a(S'p2_cv'
I0
tp87
a(S'p2_vo'
I6
tp88
a(S'w'
I1
tp89
a(S'p2_cv'
I1
tp90
a(S'w'
I732
tp91
a(S'p2_vo'
I7
tp92
a(S'w'
I1
tp93
a(S'w'
I733
tp94
a(S'p2_vo'
I8
tp95
a(S'w'
I1
tp96
a(S'w'
I733
tp97
a(S'p2_vo'
I9
tp98
a(S'w'
I1
tp99
a(S'w'
I733
tp100
a(S'p2_vo'
I10
tp101
a(S'w'
I1
tp102
a(S'w'
I732
tp103
a(S'p2_vo'
I11
tp104
a(S'w'
I1
tp105
a(S'w'
I733
tp106
a(S'p2_vo'
I12
tp107
a(S'w'
I1
tp108
a(S'w'
I733
tp109
a(S'p2_vo'
I13
tp110
a(S'w'
I1
tp111
a(S'w'
I733
tp112
a(S'p2_vo'
I14
tp113
a(S'w'
I1
tp114
a(S'w'
I732
tp115
a(S'p2_vo'
I15
tp116
a(S'w'
I1
tp117
a(S'w'
I734
tp118
a(S'p2_tl'
I179
tp119
a(S'p2_ll'
I1
tp120
a(S'w'
I1
tp121
a(S'p2_cv'
I0
tp122
a(S'p2_vo'
I6
tp123
a(S'p2_cv'
I1
tp124
a(S'w'
I1
tp125
a(S'w'
I731
tp126
a(S'p2_vo'
I7
tp127
a(S'w'
I1
tp128
a(S'w'
I733
tp129
a(S'p2_vo'
I8
tp130
a(S'w'
I1
tp131
a(S'w'
I733
tp132
a(S'p2_vo'
I9
tp133
a(S'w'
I1
tp134
a(S'w'
I732
tp135
a(S'p2_vo'
I10
tp136
a(S'w'
I1
tp137
a(S'w'
I733
tp138
a(S'p2_tl'
I190
tp139
a(S'w'
I1
tp140
a(S'p2_ll'
I1
tp141
a(S'p2_cv'
I0
tp142
a(S'p2_vo'
I6
tp143
a(S'w'
I1
tp144
a(S'p2_cv'
I1
tp145
a(S'w'
I1
tp146
a(S'w'
I731
tp147
a(S'p2_vo'
I7
tp148
a(S'w'
I1
tp149
a(S'w'
I733
tp150
a(S'p2_vo'
I8
tp151
a(S'w'
I1
tp152
a(S'w'
I733
tp153
a(S'p2_vo'
I9
tp154
a(S'w'
I1
tp155
a(S'w'
I732
tp156
a(S'p2_vo'
I10
tp157
a(S'w'
I1
tp158
a(S'w'
I733
tp159
a(S'p2_tl'
I201
tp160
a(S'w'
I1
tp161
a(S'p2_ll'
I1
tp162
a(S'p2_cv'
I0
tp163
a(S'p2_vo'
I6
tp164
a(S'w'
I1
tp165
a(S'p2_cv'
I1
tp166
a(S'w'
I1
tp167
a(S'w'
I731
tp168
a(S'p2_vo'
I7
tp169
a(S'w'
I1
tp170
a(S'w'
I733
tp171
a(S'p2_vo'
I8
tp172
a(S'w'
I1
tp173
a(S'w'
I733
tp174
a(S'p2_vo'
I9
tp175
a(S'w'
I1
tp176
a(S'w'
I732
tp177
a(S'p2_vo'
I10
tp178
a(S'w'
I1
tp179
a(S'w'
I733
tp180
a(S'p2_tl'
I213
tp181
a(S'w'
I1
tp182
a(S'p2_ll'
I1
tp183
a(S'p2_cv'
I0
tp184
a(S'p2_vo'
I6
tp185
a(S'w'
I1
tp186
a(S'p2_cv'
I1
tp187
a(S'w'
I1
tp188
a(S'w'
I731
tp189
a(S'p2_vo'
I7
tp190
a(S'w'
I1
tp191
a(S'w'
I733
tp192
a(S'p2_vo'
I8
tp193
a(S'w'
I1
tp194
a(S'w'
I733
tp195
a(S'p2_vo'
I9
tp196
a(S'w'
I1
tp197
a(S'w'
I732
tp198
a(S'p2_vo'
I10
tp199
a(S'w'
I1
tp200
a(S'w'
I733
tp201
a(S'p2_tl'
I190
tp202
a(S'w'
I1
tp203
a(S'p2_ll'
I1
tp204
a(S'p2_cv'
I0
tp205
a(S'p2_vo'
I6
tp206
a(S'w'
I1
tp207
a(S'p2_cv'
I1
tp208
a(S'w'
I1
tp209
a(S'w'
I731
tp210
a(S'p2_vo'
I7
tp211
a(S'w'
I1
tp212
a(S'w'
I733
tp213
a(S'p2_vo'
I8
tp214
a(S'w'
I1
tp215
a(S'w'
I732
tp216
a(S'p2_vo'
I9
tp217
a(S'w'
I1
tp218
a(S'w'
I733
tp219
a(S'p2_vo'
I10
tp220
a(S'w'
I1
tp221
a(S'w'
I733
tp222
a(S'p2_tl'
I201
tp223
a(S'w'
I1
tp224
a(S'p2_ll'
I1
tp225
a(S'p2_cv'
I0
tp226
a(S'p2_vo'
I6
tp227
a(S'w'
I1
tp228
a(S'p2_cv'
I1
tp229
a(S'w'
I1
tp230
a(S'w'
I731
tp231
a(S'p2_vo'
I7
tp232
a(S'w'
I1
tp233
a(S'w'
I733
tp234
a(S'p2_vo'
I8
tp235
a(S'w'
I1
tp236
a(S'w'
I732
tp237
a(S'p2_vo'
I9
tp238
a(S'w'
I1
tp239
a(S'w'
I733
tp240
a(S'p2_vo'
I10
tp241
a(S'w'
I1
tp242
a(S'w'
I733
tp243
a(S'p2_tl'
I213
tp244
a(S'w'
I1
tp245
a(S'p2_ll'
I1
tp246
a(S'p2_cv'
I0
tp247
a(S'p2_vo'
I6
tp248
a(S'w'
I1
tp249
a(S'p2_cv'
I1
tp250
a(S'w'
I1
tp251
a(S'w'
I731
tp252
a(S'p2_vo'
I7
tp253
a(S'w'
I1
tp254
a(S'w'
I733
tp255
a(S'p2_vo'
I8
tp256
a(S'w'
I1
tp257
a(S'w'
I732
tp258
a(S'p2_vo'
I9
tp259
a(S'w'
I1
tp260
a(S'w'
I733
tp261
a(S'p2_vo'
I10
tp262
a(S'w'
I1
tp263
a(S'w'
I733
tp264
a(S'p2_tl'
I226
tp265
a(S'w'
I1
tp266
a(S'p2_ll'
I1
tp267
a(S'p2_cv'
I0
tp268
a(S'p2_vo'
I6
tp269
a(S'w'
I1
tp270
a(S'p2_cv'
I1
tp271
a(S'w'
I1
tp272
a(S'w'
I731
tp273
a(S'p2_vo'
I7
tp274
a(S'w'
I1
tp275
a(S'w'
I733
tp276
a(S'p2_vo'
I8
tp277
a(S'w'
I1
tp278
a(S'w'
I732
tp279
a(S'p2_vo'
I9
tp280
a(S'w'
I1
tp281
a(S'w'
I733
tp282
a(S'p2_vo'
I10
tp283
a(S'w'
I1
tp284
a(S'w'
I733
tp285
a(S'p2_tl'
I201
tp286
a(S'w'
I1
tp287
a(S'p2_ll'
I1
tp288
a(S'p2_cv'
I0
tp289
a(S'p2_vo'
I6
tp290
a(S'w'
I1
tp291
a(S'p2_cv'
I1
tp292
a(S'w'
I1
tp293
a(S'w'
I731
tp294
a(S'p2_vo'
I7
tp295
a(S'w'
I1
tp296
a(S'w'
I733
tp297
a(S'p2_vo'
I8
tp298
a(S'w'
I1
tp299
a(S'w'
I732
tp300
a(S'p2_vo'
I9
tp301
a(S'w'
I1
tp302
a(S'w'
I733
tp303
a(S'p2_vo'
I10
tp304
a(S'w'
I1
tp305
a(S'w'
I733
tp306
a(S'p2_tl'
I213
tp307
a(S'w'
I1
tp308
a(S'p2_ll'
I1
tp309
a(S'p2_cv'
I0
tp310
a(S'p2_vo'
I6
tp311
a(S'w'
I1
tp312
a(S'p2_cv'
I1
tp313
a(S'w'
I1
tp314
a(S'w'
I731
tp315
a(S'p2_vo'
I7
tp316
a(S'w'
I1
tp317
a(S'w'
I732
tp318
a(S'p2_vo'
I8
tp319
a(S'w'
I1
tp320
a(S'w'
I733
tp321
a(S'p2_vo'
I9
tp322
a(S'w'
I1
tp323
a(S'w'
I733
tp324
a(S'p2_vo'
I10
tp325
a(S'w'
I1
tp326
a(S'w'
I733
tp327
a(S'p2_tl'
I226
tp328
a(S'w'
I1
tp329
a(S'p2_ll'
I1
tp330
a(S'p2_cv'
I0
tp331
a(S'p2_vo'
I6
tp332
a(S'w'
I1
tp333
a(S'p2_cv'
I1
tp334
a(S'w'
I1
tp335
a(S'w'
I731
tp336
a(S'p2_vo'
I7
tp337
a(S'w'
I1
tp338
a(S'w'
I732
tp339
a(S'p2_vo'
I8
tp340
a(S'w'
I1
tp341
a(S'w'
I733
tp342
a(S'p2_vo'
I9
tp343
a(S'w'
I1
tp344
a(S'w'
I733
tp345
a(S'p2_vo'
I10
tp346
a(S'w'
I1
tp347
a(S'w'
I733
tp348
a(S'p2_tl'
I239
tp349
a(S'w'
I1
tp350
a(S'p2_ll'
I1
tp351
a(S'p2_cv'
I0
tp352
a(S'p2_vo'
I6
tp353
a(S'w'
I1
tp354
a(S'p2_cv'
I1
tp355
a(S'w'
I1
tp356
a(S'w'
I731
tp357
a(S'p2_vo'
I7
tp358
a(S'w'
I1
tp359
a(S'w'
I732
tp360
a(S'p2_vo'
I8
tp361
a(S'w'
I1
tp362
a(S'w'
I733
tp363
a(S'p2_vo'
I9
tp364
a(S'w'
I1
tp365
a(S'w'
I733
tp366
a(S'p2_vo'
I10
tp367
a(S'w'
I1
tp368
a(S'w'
I733
tp369
a(S'p2_tl'
I213
tp370
a(S'w'
I1
tp371
a(S'p2_ll'
I1
tp372
a(S'p2_cv'
I0
tp373
a(S'p2_vo'
I6
tp374
a(S'w'
I1
tp375
a(S'p2_cv'
I1
tp376
a(S'w'
I1
tp377
a(S'w'
I731
tp378
a(S'p2_vo'
I7
tp379
a(S'w'
I1
tp380
a(S'w'
I732
tp381
a(S'p2_vo'
I8
tp382
a(S'w'
I1
tp383
a(S'w'
I733
tp384
a(S'p2_vo'
I9
tp385
a(S'w'
I1
tp386
a(S'w'
I733
tp387
a(S'p2_vo'
I10
tp388
a(S'w'
I1
tp389
a(S'w'
I733
tp390
a(S'p2_tl'
I226
tp391
a(S'w'
I1
tp392
a(S'p2_ll'
I1
tp393
a(S'p2_cv'
I0
tp394
a(S'p2_vo'
I6
tp395
a(S'w'
I1
tp396
a(S'p2_cv'
I1
tp397
a(S'w'
I1
tp398
a(S'w'
I731
tp399
a(S'p2_vo'
I7
tp400
a(S'w'
I1
tp401
a(S'w'
I732
tp402
a(S'p2_vo'
I8
tp403
a(S'w'
I1
tp404
a(S'w'
I733
tp405
a(S'p2_vo'
I9
tp406
a(S'w'
I1
tp407
a(S'w'
I733
tp408
a(S'p2_vo'
I10
tp409
a(S'w'
I1
tp410
a(S'w'
I733
tp411
a(S'p2_tl'
I239
tp412
a(S'w'
I1
tp413
a(S'p2_ll'
I1
tp414
a(S'p2_cv'
I0
tp415
a(S'p2_vo'
I6
tp416
a(S'w'
I1
tp417
a(S'p2_cv'
I1
tp418
a(S'w'
I1
tp419
a(S'w'
I730
tp420
a(S'p2_vo'
I7
tp421
a(S'w'
I1
tp422
a(S'w'
I733
tp423
a(S'p2_vo'
I8
tp424
a(S'w'
I1
tp425
a(S'w'
I733
tp426
a(S'p2_vo'
I9
tp427
a(S'w'
I1
tp428
a(S'w'
I733
tp429
a(S'p2_vo'
I10
tp430
a(S'w'
I1
tp431
a(S'w'
I733
tp432
a(S'p2_tl'
I254
tp433
a(S'w'
I1
tp434
a(S'p2_ll'
I1
tp435
a(S'p2_cv'
I0
tp436
a(S'p2_vo'
I6
tp437
a(S'w'
I1
tp438
a(S'p2_cv'
I1
tp439
a(S'w'
I1
tp440
a(S'w'
I730
tp441
a(S'p2_vo'
I7
tp442
a(S'w'
I1
tp443
a(S'w'
I733
tp444
a(S'p2_vo'
I8
tp445
a(S'w'
I1
tp446
a(S'w'
I733
tp447
a(S'p2_vo'
I9
tp448
a(S'w'
I1
tp449
a(S'w'
I733
tp450
a(S'p2_vo'
I10
tp451
a(S'w'
I1
tp452
a(S'w'
I733
tp453
a(S'p2_tl'
I226
tp454
a(S'w'
I1
tp455
a(S'p2_ll'
I1
tp456
a(S'p2_cv'
I0
tp457
a(S'p2_vo'
I6
tp458
a(S'w'
I1
tp459
a(S'p2_cv'
I1
tp460
a(S'w'
I1
tp461
a(S'w'
I730
tp462
a(S'p2_vo'
I7
tp463
a(S'w'
I1
tp464
a(S'w'
I733
tp465
a(S'p2_vo'
I8
tp466
a(S'w'
I1
tp467
a(S'w'
I733
tp468
a(S'p2_vo'
I9
tp469
a(S'w'
I1
tp470
a(S'w'
I733
tp471
a(S'p2_vo'
I10
tp472
a(S'w'
I1
tp473
a(S'w'
I733
tp474
a(S'p2_tl'
I239
tp475
a(S'w'
I1
tp476
a(S'p2_ll'
I1
tp477
a(S'p2_cv'
I0
tp478
a(S'p2_vo'
I6
tp479
a(S'w'
I1
tp480
a(S'p2_cv'
I1
tp481
a(S'w'
I1
tp482
a(S'w'
I730
tp483
a(S'p2_vo'
I7
tp484
a(S'w'
I1
tp485
a(S'w'
I733
tp486
a(S'p2_vo'
I8
tp487
a(S'w'
I1
tp488
a(S'w'
I733
tp489
a(S'p2_vo'
I9
tp490
a(S'w'
I1
tp491
a(S'w'
I733
tp492
a(S'p2_vo'
I10
tp493
a(S'w'
I1
tp494
a(S'w'
I733
tp495
a(S'p2_tl'
I254
tp496
a(S'w'
I1
tp497
a(S'p2_ll'
I1
tp498
a(S'p2_cv'
I0
tp499
a(S'p2_vo'
I6
tp500
a(S'w'
I1
tp501
a(S'p2_cv'
I1
tp502
a(S'w'
I1
tp503
a(S'w'
I730
tp504
a(S'p2_vo'
I7
tp505
a(S'w'
I1
tp506
a(S'w'
I733
tp507
a(S'p2_vo'
I8
tp508
a(S'w'
I1
tp509
a(S'w'
I733
tp510
a(S'p2_vo'
I9
tp511
a(S'w'
I1
tp512
a(S'w'
I733
tp513
a(S'p2_vo'
I10
tp514
a(S'w'
I1
tp515
a(S'w'
I732
tp516
a(S'p2_tl'
I13
tp517
a(S'w'
I1
tp518
a(S'p2_ll'
I1
tp519
a(S'p2_th'
I1
tp520
a(S'p2_cv'
I0
tp521
a(S'p2_vo'
I6
tp522
a(S'w'
I1
tp523
a(S'p2_cv'
I1
tp524
a(S'w'
I1
tp525
a(S'w'
I731
tp526
a(S'p2_vo'
I7
tp527
a(S'w'
I1
tp528
a(S'w'
I733
tp529
a(S'p2_vo'
I8
tp530
a(S'w'
I1
tp531
a(S'w'
I733
tp532
a(S'p2_vo'
I9
tp533
a(S'w'
I1
tp534
a(S'w'
I733
tp535
a(S'p2_vo'
I10
tp536
a(S'w'
I1
tp537
a(S'w'
I732
tp538
a(S'p2_tl'
I46
tp539
a(S'w'
I1
tp540
a(S'p2_ll'
I1
tp541
a(S'p2_cv'
I0
tp542
a(S'p2_vo'
I6
tp543
a(S'w'
I1
tp544
a(S'p2_cv'
I1
tp545
a(S'w'
I1
tp546
a(S'w'
I731
tp547
a(S'p2_vo'
I7
tp548
a(S'w'
I1
tp549
a(S'w'
I733
tp550
a(S'p2_vo'
I8
tp551
a(S'w'
I1
tp552
a(S'w'
I733
tp553
a(S'p2_vo'
I9
tp554
a(S'w'
I1
tp555
a(S'w'
I733
tp556
a(S'p2_vo'
I10
tp557
a(S'w'
I1
tp558
a(S'w'
I732
tp559
a(S'p2_tl'
I64
tp560
a(S'w'
I1
tp561
a(S'p2_ll'
I1
tp562
a(S'p2_cv'
I0
tp563
a(S'p2_vo'
I6
tp564
a(S'w'
I1
tp565
a(S'p2_cv'
I1
tp566
a(S'w'
I1
tp567
a(S'w'
I731
tp568
a(S'p2_vo'
I7
tp569
a(S'w'
I1
tp570
a(S'w'
I733
tp571
a(S'p2_vo'
I8
tp572
a(S'w'
I1
tp573
a(S'w'
I733
tp574
a(S'p2_vo'
I9
tp575
a(S'w'
I1
tp576
a(S'w'
I733
tp577
a(S'p2_vo'
I10
tp578
a(S'w'
I1
tp579
a(S'w'
I733
tp580
a(S'p2_tl'
I83
tp581
a(S'p2_ll'
I1
tp582
a(S'w'
I1
tp583
a(S'p2_cv'
I0
tp584
a(S'p2_vo'
I6
tp585
a(S'p2_cv'
I1
tp586
a(S'w'
I2
tp587
a(S'p2_tl'
I84
tp588
a(S'w'
I730
tp589
a(S'p2_vo'
I7
tp590
a(S'w'
I1
tp591
a(S'p2_tl'
I82
tp592
a(S'w'
I733
tp593
a(S'p2_vo'
I8
tp594
a(S'w'
I1
tp595
a(S'w'
I733
tp596
a(S'p2_vo'
I9
tp597
a(S'w'
I1
tp598
a(S'w'
I733
tp599
a(S'p2_vo'
I10
tp600
a(S'w'
I1
tp601
a(S'w'
I732
tp602
a(S'p2_vo'
I11
tp603
a(S'w'
I1
tp604
a(S'p2_tl'
I84
tp605
a(S'w'
I733
tp606
a(S'p2_vo'
I12
tp607
a(S'w'
I1
tp608
a(S'w'
I733
tp609
a(S'p2_vo'
I13
tp610
a(S'w'
I1
tp611
a(S'w'
I733
tp612
a(S'p2_vo'
I14
tp613
a(S'w'
I1
tp614
a(S'w'
I732
tp615
a(S'p2_vo'
I15
tp616
a(S'w'
I1
tp617
a(S'p2_tl'
I82
tp618
a(S'w'
I734
tp619
a(S'w'
I734
tp620
a(S'w'
I734
tp621
a(S'w'
I734
tp622
a(S'p2_tl'
I84
tp623
a(S'w'
I733
tp624
a(S'w'
I734
tp625
a(S'w'
I734
tp626
a(S'w'
I734
tp627
a(S'p2_tl'
I82
tp628
a(S'w'
I734
tp629
a(S'w'
I733
tp630
a(S'w'
I734
tp631
a(S'w'
I734
tp632
a(S'p2_tl'
I84
tp633
a(S'w'
I733
tp634
a(S'p2_vo'
I14
tp635
a(S'w'
I1
tp636
a(S'w'
I733
tp637
a(S'p2_vo'
I13
tp638
a(S'w'
I1
tp639
a(S'w'
I732
tp640
a(S'p2_vo'
I12
tp641
a(S'w'
I1
tp642
a(S'w'
I733
tp643
a(S'p2_vo'
I11
tp644
a(S'w'
I1
tp645
a(S'p2_tl'
I83
tp646
a(S'w'
I733
tp647
a(S'p2_vo'
I10
tp648
a(S'w'
I1
tp649
a(S'w'
I733
tp650
a(S'p2_vo'
I9
tp651
a(S'w'
I1
tp652
a(S'w'
I733
tp653
a(S'p2_vo'
I8
tp654
a(S'w'
I1
tp655
a(S'w'
I732
tp656
a(S'p2_vo'
I7
tp657
a(S'w'
I1
tp658
a(S'w'
I733
tp659
a(S'p2_vo'
I6
tp660
a(S'w'
I1
tp661
a(S'w'
I733
tp662
a(S'p2_vo'
I5
tp663
a(S'w'
I1
tp664
a(S'w'
I734
tp665
a(S'w'
I733
tp666
a(S'w'
I734
tp667
a(S'w'
I734
tp668
a(S'w'
I734
tp669
a(S'w'
I734
tp670
a(S'w'
I733
tp671
a(S'w'
I734
tp672
a(S'w'
I733
tp673
a(S'p2_vo'
I0
tp674
a(S'p2_ll'
I3
tp675
a(S'p2_th'
I0
tp676
a(S'w'
I1
tp677
a(S'p2_tl'
I0
tp678
a(S'w'
I53258
tp679
a.