(lp1
(S'clock'
p2
I1789772
tp3
a(S'fc_mo'
I1
tp4
a(S'ch_no'
I1
tp5
a(S'ch_tr'
I1
tp6
a(S'ch_p2'
I1
tp7
a(S'ch_p1'
I1
tp8
a(S'w'
I4
tp9
a(S'p2_tl'
I71
tp10
a(S'w'
I1
tp11
a(S'p2_ll'
I1
tp12
a(S'p2_sp'
I7
tp13
a(S'p2_sn'
I1
tp14
a(S'p2_ss'
I7
tp15
a(S'p2_du'
I2
tp16
a(S'p2_vo'
I6
tp17
a(S'w'
I730
tp18
a(S'fc_mo'
I1
tp19
a(S'w'
I13943
tp20
a(S'p2_tl'
I142
tp21
a(S'w'
I1
tp22
a(S'p2_ll'
I1
tp23
a(S'w'
I14675
tp24
a(S'p2_tl'
I106
tp25
a(S'w'
I1
tp26
a(S'p2_ll'
I1
tp27
a(S'w'
I14675
tp28
a(S'p2_tl'
I84
tp29
a(S'w'
I1
tp30
a(S'p2_ll'
I1
tp31
a(S'w'
I14675
tp32
a(S'p2_tl'
I89
tp33
a(S'w'
I1
tp34
a(S'p2_ll'
I1
tp35
a(S'w'
I14675
tp36
a(S'p2_tl'
I142
tp37
a(S'w'
I1
tp38
a(S'p2_ll'
I1
tp39
a(S'w'
I14675
tp40
a(S'p2_tl'
I56
tp41
a(S'w'
I1
tp42
a(S'p2_ll'
I1
tp43
a(S'w'
I14674
tp44
a(S'p2_tl'
I113
tp45
a(S'w'
I1
tp46
a(S'p2_ll'
I1
tp47
a(S'w'
I14675
tp48
a(S'p2_tl'
I63
tp49
a(S'w'
I1
tp50
a(S'p2_ll'
I1
tp51
a(S'w'
I14675
tp52
a(S'p2_tl'
I106
tp53
a(S'w'
I1
tp54
a(S'p2_ll'
I1
tp55
a(S'w'
I14675
tp56
a(S'p2_tl'
I84
tp57
a(S'w'
I1
tp58
a(S'p2_ll'
I1
tp59
a(S'w'
I14675
tp60
a(S'p2_tl'
I63
tp61
a(S'w'
I1
tp62
a(S'p2_ll'
I1
tp63
a(S'w'
I14675
tp64
a(S'p2_tl'
I71
tp65
a(S'w'
I1
tp66
a(S'p2_ll'
I1
tp67
a(S'w'
I14674
tp68
a(S'p2_tl'
I106
tp69
a(S'w'
I1
tp70
a(S'p2_ll'
I1
tp71
a(S'w'
I14675
tp72
a(S'p2_tl'
I95
tp73
a(S'w'
I1
tp74
a(S'p2_ll'
I1
tp75
a(S'w'
I14675
tp76
a(S'p2_tl'
I84
tp77
a(S'w'
I1
tp78
a(S'p2_ll'
I1
tp79
a(S'w'
I14675
tp80
a(S'p2_tl'
I63
tp81
a(S'w'
I1
tp82
a(S'p2_ll'
I1
tp83
a(S'w'
I14675
tp84
a(S'p2_tl'
I106
tp85
a(S'w'
I1
tp86
a(S'p2_ll'
I1
tp87
a(S'w'
I14675
tp88
a(S'p2_tl'
I80
tp89
a(S'w'
I1
tp90
a(S'p2_ll'
I1
tp91
a(S'w'
I14674
tp92
a(S'p2_tl'
I63
tp93
a(S'w'
I1
tp94
a(S'p2_ll'
I1
tp95
a(S'w'
I14675
tp96
a(S'p2_tl'
I67
tp97
a(S'w'
I1
tp98
a(S'p2_ll'
I1
tp99
a(S'w'
I14675
tp100
a(S'p2_tl'
I106
tp101
a(S'w'
I1
tp102
a(S'p2_ll'
I1
tp103
a(S'w'
I14675
tp104
a(S'p2_tl'
I95
tp105
a(S'w'
I1
tp106
a(S'p2_ll'
I1
tp107
a(S'w'
I14675
tp108
a(S'p2_tl'
I80
tp109
a(S'w'
I1
tp110
a(S'p2_ll'
I1
tp111
a(S'w'
I14674
tp112
a(S'p2_tl'
I84
tp113
a(S'w'
I1
tp114
a(S'p2_ll'
I1
tp115
a(S'w'
I14675
tp116
a(S'p2_tl'
I142
tp117
a(S'w'
I1
tp118
a(S'p2_ll'
I1
tp119
a(S'w'
I14675
tp120
a(S'p2_tl'
I106
tp121
a(S'w'
I1
tp122
a(S'p2_ll'
I1
tp123
a(S'w'
I14675
tp124
a(S'p2_tl'
I84
tp125
a(S'w'
I1
tp126
a(S'p2_ll'
I1
tp127
a(S'w'
I14675
tp128
a(S'p2_tl'
I95
tp129
a(S'w'
I1
tp130
a(S'p2_ll'
I1
tp131
a(S'w'
I14675
tp132
a(S'p2_tl'
I126
tp133
a(S'w'
I1
tp134
a(S'p2_ll'
I1
tp135
a(S'w'
I14674
tp136
a(S'p2_tl'
I113
tp137
a(S'w'
I1
tp138
a(S'p2_ll'
I1
tp139
a(S'w'
I14675
tp140
a(S'p2_tl'
I95
tp141
a(S'w'
I1
tp142
a(S'p2_ll'
I1
tp143
a(S'w'
I14678
tp144
a.