(lp1
(S'clock'
p2
I1789772
tp3
a(S'p1_lh'
I1
tp4
a(S'p1_cv'
I1
tp5
a(S'p1_ll'
I0
tp6
a(S'p2_lh'
I1
tp7
a(S'p2_cv'
I1
tp8
a(S'p2_ll'
I0
tp9
a(S'tr_ll'
I0
tp10
a(S'no_ll'
I0
tp11
a(S'ch_no'
I1
tp12
a(S'ch_tr'
I1
tp13
a(S'ch_p2'
I1
tp14
a(S'ch_p1'
I1
tp15
a(S'fc_mo'
I0
tp16
a(S'ch_no'
I0
tp17
a(S'ch_tr'
I0
tp18
a(S'ch_p2'
I1
tp19
a(S'ch_p1'
I1
tp20
a(S'w'
I1
tp21
a(S'tr_lh'
I1
tp22
a(S'tr_lr'
I16
tp23
a(S'tr_lh'
I0
tp24
a(S'tr_lr'
I0
tp25
a(S'ch_no'
I1
tp26
a(S'ch_tr'
I1
tp27
a(S'ch_p2'
I1
tp28
a(S'ch_p1'
I1
tp29
a(S'w'
I748
tp30
a(S'p1_tl'
I201
tp31
a(S'p1_ll'
I0
tp32
a(S'w'
I1
tp33
a(S'p1_vo'
I7
tp34
a(S'w'
I18
tp35
a(S'p2_tl'
I1
tp36
a(S'p2_ll'
I0
tp37
a(S'w'
I1
tp38
a(S'p2_du'
I1
tp39
a(S'p2_vo'
I4
tp40
a(S'w'
I27
tp41
a(S'no_np'
I15
tp42
a(S'no_ll'
I0
tp43
a(S'w'
I1
tp44
a(S'no_lh'
I1
tp45
a(S'no_cv'
I1
tp46
a(S'no_vo'
I3
tp47
a(S'w'
I1408
tp48
a(S'p1_vo'
I8
tp49
a(S'w'
I11
tp50
a(S'p2_tl'
I202
tp51
a(S'p2_ll'
I0
tp52
a(S'w'
I723
tp53
a(S'p1_vo'
I7
tp54
a(S'w'
I738
tp55
a(S'p1_tl'
I190
tp56
a(S'p1_ll'
I0
tp57
a(S'w'
I9
tp58
a(S'p2_vo'
I5
tp59
a(S'w'
I8
tp60
a(S'tr_tl'
I128
tp61
a(S'w'
I1
tp62
a(S'tr_ll'
I31
tp63
a(S'tr_th'
I2
tp64
a(S'tr_lh'
I1
tp65
a(S'tr_lr'
I16
tp66
a(S'w'
I712
tp67
a(S'w'
I6
tp68
a(S'p2_vo'
I4
tp69
a(S'w'
I9
tp70
a(S'tr_lh'
I0
tp71
a(S'tr_lr'
I0
tp72
a(S'w'
I718
tp73
a(S'p1_vo'
I8
tp74
a(S'w'
I11
tp75
a(S'p2_tl'
I191
tp76
a(S'p2_ll'
I0
tp77
a(S'w'
I723
tp78
a(S'p1_vo'
I7
tp79
a(S'w'
I738
tp80
a(S'p1_tl'
I179
tp81
a(S'p1_ll'
I0
tp82
a(S'w'
I9
tp83
a(S'p2_vo'
I5
tp84
a(S'w'
I727
tp85
a(S'p2_vo'
I4
tp86
a(S'w'
I728
tp87
a(S'p1_vo'
I8
tp88
a(S'w'
I10
tp89
a(S'p2_tl'
I180
tp90
a(S'p2_ll'
I0
tp91
a(S'w'
I12
tp92
a(S'tr_ll'
I31
tp93
a(S'w'
I1
tp94
a(S'tr_lh'
I1
tp95
a(S'tr_lr'
I16
tp96
a(S'w'
I710
tp97
a(S'p1_vo'
I7
tp98
a(S'w'
I16
tp99
a(S'tr_lh'
I0
tp100
a(S'tr_lr'
I0
tp101
a(S'w'
I722
tp102
a(S'p1_tl'
I169
tp103
a(S'p1_ll'
I0
tp104
a(S'w'
I9
tp105
a(S'p2_vo'
I5
tp106
a(S'w'
I727
tp107
a(S'p2_vo'
I4
tp108
a(S'w'
I728
tp109
a(S'p1_vo'
I8
tp110
a(S'w'
I10
tp111
a(S'p2_tl'
I170
tp112
a(S'p2_ll'
I0
tp113
a(S'w'
I724
tp114
a(S'p1_vo'
I7
tp115
a(S'w'
I737
tp116
a(S'p1_tl'
I160
tp117
a(S'p1_ll'
I0
tp118
a(S'w'
I9
tp119
a(S'p2_vo'
I5
tp120
a(S'w'
I9
tp121
a(S'tr_ll'
I31
tp122
a(S'w'
I1
tp123
a(S'tr_lh'
I1
tp124
a(S'tr_lr'
I16
tp125
a(S'w'
I718
tp126
a(S'p2_vo'
I4
tp127
a(S'w'
I9
tp128
a(S'tr_lh'
I0
tp129
a(S'tr_lr'
I0
tp130
a(S'w'
I718
tp131
a(S'p1_vo'
I8
tp132
a(S'w'
I10
tp133
a(S'p2_tl'
I161
tp134
a(S'w'
I1
tp135
a(S'p2_ll'
I0
tp136
a(S'w'
I723
tp137
a(S'p1_vo'
I7
tp138
a(S'w'
I737
tp139
a(S'p1_tl'
I151
tp140
a(S'w'
I1
tp141
a(S'p1_ll'
I0
tp142
a(S'w'
I8
tp143
a(S'p2_vo'
I5
tp144
a(S'w'
I728
tp145
a(S'p2_vo'
I4
tp146
a(S'w'
I727
tp147
a(S'p1_vo'
I8
tp148
a(S'w'
I11
tp149
a(S'p2_tl'
I152
tp150
a(S'p2_ll'
I0
tp151
a(S'w'
I11
tp152
a(S'tr_ll'
I31
tp153
a(S'w'
I1
tp154
a(S'tr_lh'
I1
tp155
a(S'tr_lr'
I16
tp156
a(S'w'
I711
tp157
a(S'p1_vo'
I7
tp158
a(S'w'
I15
tp159
a(S'tr_lh'
I0
tp160
a(S'tr_lr'
I0
tp161
a(S'w'
I723
tp162
a(S'p1_tl'
I142
tp163
a(S'p1_ll'
I0
tp164
a(S'w'
I9
tp165
a(S'p2_vo'
I5
tp166
a(S'w'
I727
tp167
a(S'p2_vo'
I4
tp168
a(S'w'
I728
tp169
a(S'p1_vo'
I8
tp170
a(S'w'
I10
tp171
a(S'p2_tl'
I143
tp172
a(S'p2_ll'
I0
tp173
a(S'w'
I723
tp174
a(S'p1_vo'
I7
tp175
a(S'w'
I738
tp176
a(S'p1_tl'
I134
tp177
a(S'p1_ll'
I0
tp178
a(S'w'
I9
tp179
a(S'p2_vo'
I5
tp180
a(S'w'
I9
tp181
a(S'tr_ll'
I31
tp182
a(S'w'
I1
tp183
a(S'tr_lh'
I1
tp184
a(S'tr_lr'
I16
tp185
a(S'w'
I717
tp186
a(S'p2_vo'
I4
tp187
a(S'w'
I9
tp188
a(S'tr_lh'
I0
tp189
a(S'tr_lr'
I0
tp190
a(S'w'
I719
tp191
a(S'p1_vo'
I8
tp192
a(S'w'
I10
tp193
a(S'p2_tl'
I135
tp194
a(S'p2_ll'
I0
tp195
a(S'w'
I724
tp196
a(S'p1_vo'
I7
tp197
a(S'w'
I737
tp198
a(S'p1_tl'
I127
tp199
a(S'p1_ll'
I0
tp200
a(S'w'
I9
tp201
a(S'p2_vo'
I5
tp202
a(S'w'
I727
tp203
a(S'p2_vo'
I4
tp204
a(S'w'
I728
tp205
a(S'p1_vo'
I8
tp206
a(S'w'
I10
tp207
a(S'p2_tl'
I128
tp208
a(S'p2_ll'
I0
tp209
a(S'w'
I12
tp210
a(S'tr_ll'
I31
tp211
a(S'w'
I1
tp212
a(S'tr_lh'
I1
tp213
a(S'tr_lr'
I16
tp214
a(S'w'
I711
tp215
a(S'p1_vo'
I7
tp216
a(S'w'
I15
tp217
a(S'tr_lh'
I0
tp218
a(S'tr_lr'
I0
tp219
a(S'w'
I722
tp220
a(S'p1_tl'
I120
tp221
a(S'p1_ll'
I0
tp222
a(S'w'
I9
tp223
a(S'p2_vo'
I5
tp224
a(S'w'
I728
tp225
a(S'p2_vo'
I4
tp226
a(S'w'
I727
tp227
a(S'p1_vo'
I8
tp228
a(S'w'
I10
tp229
a(S'p2_tl'
I121
tp230
a(S'w'
I1
tp231
a(S'p2_ll'
I0
tp232
a(S'w'
I723
tp233
a(S'p1_vo'
I7
tp234
a(S'w'
I737
tp235
a(S'p1_tl'
I113
tp236
a(S'w'
I1
tp237
a(S'p1_ll'
I0
tp238
a(S'w'
I8
tp239
a(S'p2_vo'
I5
tp240
a(S'w'
I9
tp241
a(S'tr_ll'
I31
tp242
a(S'w'
I1
tp243
a(S'tr_lh'
I1
tp244
a(S'tr_lr'
I16
tp245
a(S'w'
I718
tp246
a(S'p2_vo'
I4
tp247
a(S'w'
I9
tp248
a(S'tr_lh'
I0
tp249
a(S'tr_lr'
I0
tp250
a(S'w'
I718
tp251
a(S'p1_vo'
I8
tp252
a(S'w'
I11
tp253
a(S'p2_tl'
I114
tp254
a(S'p2_ll'
I0
tp255
a(S'w'
I723
tp256
a(S'p1_vo'
I7
tp257
a(S'w'
I738
tp258
a(S'p1_tl'
I213
tp259
a(S'p1_ll'
I0
tp260
a(S'w'
I9
tp261
a(S'p2_vo'
I5
tp262
a(S'w'
I727
tp263
a(S'p2_vo'
I4
tp264
a(S'w'
I728
tp265
a(S'p1_vo'
I8
tp266
a(S'w'
I10
tp267
a(S'p2_tl'
I214
tp268
a(S'p2_ll'
I0
tp269
a(S'w'
I12
tp270
a(S'tr_ll'
I31
tp271
a(S'tr_lh'
I1
tp272
a(S'tr_lr'
I16
tp273
a(S'w'
I711
tp274
a(S'p1_vo'
I7
tp275
a(S'w'
I16
tp276
a(S'tr_lh'
I0
tp277
a(S'tr_lr'
I0
tp278
a(S'w'
I722
tp279
a(S'p1_tl'
I201
tp280
a(S'p1_ll'
I0
tp281
a(S'w'
I9
tp282
a(S'p2_vo'
I5
tp283
a(S'w'
I727
tp284
a(S'p2_vo'
I4
tp285
a(S'w'
I728
tp286
a(S'p1_vo'
I8
tp287
a(S'w'
I10
tp288
a(S'p2_tl'
I202
tp289
a(S'p2_ll'
I0
tp290
a(S'w'
I724
tp291
a(S'p1_vo'
I7
tp292
a(S'w'
I737
tp293
a(S'p1_tl'
I190
tp294
a(S'p1_ll'
I0
tp295
a(S'w'
I9
tp296
a(S'p2_vo'
I5
tp297
a(S'w'
I9
tp298
a(S'tr_ll'
I31
tp299
a(S'w'
I1
tp300
a(S'tr_lh'
I1
tp301
a(S'tr_lr'
I16
tp302
a(S'w'
I717
tp303
a(S'p2_vo'
I4
tp304
a(S'w'
I9
tp305
a(S'tr_lh'
I0
tp306
a(S'tr_lr'
I0
tp307
a(S'w'
I719
tp308
a(S'p1_vo'
I8
tp309
a(S'w'
I10
tp310
a(S'p2_tl'
I191
tp311
a(S'p2_ll'
I0
tp312
a(S'w'
I724
tp313
a(S'p1_vo'
I7
tp314
a(S'w'
I737
tp315
a(S'p1_tl'
I179
tp316
a(S'p1_ll'
I0
tp317
a(S'w'
I9
tp318
a(S'p2_vo'
I5
tp319
a(S'w'
I728
tp320
a(S'p2_vo'
I4
tp321
a(S'w'
I727
tp322
a(S'p1_vo'
I8
tp323
a(S'w'
I11
tp324
a(S'p2_tl'
I180
tp325
a(S'p2_ll'
I0
tp326
a(S'w'
I11
tp327
a(S'tr_ll'
I31
tp328
a(S'w'
I1
tp329
a(S'tr_lh'
I1
tp330
a(S'tr_lr'
I16
tp331
a(S'w'
I711
tp332
a(S'p1_vo'
I7
tp333
a(S'w'
I15
tp334
a(S'tr_lh'
I0
tp335
a(S'tr_lr'
I0
tp336
a(S'w'
I722
tp337
a(S'p1_tl'
I169
tp338
a(S'w'
I1
tp339
a(S'p1_ll'
I0
tp340
a(S'w'
I8
tp341
a(S'p2_vo'
I5
tp342
a(S'w'
I728
tp343
a(S'p2_vo'
I4
tp344
a(S'w'
I727
tp345
a(S'p1_vo'
I8
tp346
a(S'w'
I11
tp347
a(S'p2_tl'
I170
tp348
a(S'p2_ll'
I0
tp349
a(S'w'
I723
tp350
a(S'p1_vo'
I7
tp351
a(S'w'
I738
tp352
a(S'p1_tl'
I160
tp353
a(S'p1_ll'
I0
tp354
a(S'w'
I9
tp355
a(S'p2_vo'
I5
tp356
a(S'w'
I9
tp357
a(S'tr_ll'
I31
tp358
a(S'tr_lh'
I1
tp359
a(S'tr_lr'
I16
tp360
a(S'w'
I718
tp361
a(S'p2_vo'
I4
tp362
a(S'w'
I9
tp363
a(S'tr_lh'
I0
tp364
a(S'tr_lr'
I0
tp365
a(S'w'
I719
tp366
a(S'p1_vo'
I8
tp367
a(S'w'
I10
tp368
a(S'p2_tl'
I161
tp369
a(S'p2_ll'
I0
tp370
a(S'w'
I723
tp371
a(S'p1_vo'
I7
tp372
a(S'w'
I738
tp373
a(S'p1_tl'
I151
tp374
a(S'p1_ll'
I0
tp375
a(S'w'
I9
tp376
a(S'p2_vo'
I5
tp377
a(S'w'
I727
tp378
a(S'p2_vo'
I4
tp379
a(S'w'
I728
tp380
a(S'p1_vo'
I8
tp381
a(S'w'
I10
tp382
a(S'p2_tl'
I152
tp383
a(S'p2_ll'
I0
tp384
a(S'w'
I12
tp385
a(S'tr_ll'
I31
tp386
a(S'w'
I1
tp387
a(S'tr_lh'
I1
tp388
a(S'tr_lr'
I16
tp389
a(S'w'
I711
tp390
a(S'p1_vo'
I7
tp391
a(S'w'
I15
tp392
a(S'tr_lh'
I0
tp393
a(S'tr_lr'
I0
tp394
a(S'w'
I722
tp395
a(S'p1_tl'
I142
tp396
a(S'p1_ll'
I0
tp397
a(S'w'
I9
tp398
a(S'p2_vo'
I5
tp399
a(S'w'
I727
tp400
a(S'p2_vo'
I4
tp401
a(S'w'
I728
tp402
a(S'p1_vo'
I8
tp403
a(S'w'
I10
tp404
a(S'p2_tl'
I143
tp405
a(S'p2_ll'
I0
tp406
a(S'w'
I724
tp407
a(S'p1_vo'
I7
tp408
a(S'w'
I737
tp409
a(S'p1_tl'
I134
tp410
a(S'p1_ll'
I0
tp411
a(S'w'
I9
tp412
a(S'p2_vo'
I5
tp413
a(S'w'
I9
tp414
a(S'tr_ll'
I31
tp415
a(S'w'
I1
tp416
a(S'tr_lh'
I1
tp417
a(S'tr_lr'
I16
tp418
a(S'w'
I718
tp419
a(S'p2_vo'
I4
tp420
a(S'w'
I9
tp421
a(S'tr_lh'
I0
tp422
a(S'tr_lr'
I0
tp423
a(S'w'
I718
tp424
a(S'p1_vo'
I8
tp425
a(S'w'
I11
tp426
a(S'p2_tl'
I135
tp427
a(S'p2_ll'
I0
tp428
a(S'w'
I723
tp429
a(S'p1_vo'
I7
tp430
a(S'w'
I737
tp431
a(S'p1_tl'
I127
tp432
a(S'w'
I1
tp433
a(S'p1_ll'
I0
tp434
a(S'w'
I8
tp435
a(S'p2_vo'
I5
tp436
a(S'w'
I728
tp437
a(S'p2_vo'
I4
tp438
a(S'w'
I727
tp439
a(S'p1_vo'
I8
tp440
a(S'w'
I11
tp441
a(S'p2_tl'
I128
tp442
a(S'p2_ll'
I0
tp443
a(S'w'
I12
tp444
a(S'tr_ll'
I31
tp445
a(S'tr_lh'
I1
tp446
a(S'tr_lr'
I16
tp447
a(S'w'
I711
tp448
a(S'p1_vo'
I7
tp449
a(S'w'
I15
tp450
a(S'tr_lh'
I0
tp451
a(S'tr_lr'
I0
tp452
a(S'w'
I723
tp453
a(S'p1_tl'
I120
tp454
a(S'p1_ll'
I0
tp455
a(S'w'
I9
tp456
a(S'p2_vo'
I5
tp457
a(S'w'
I727
tp458
a(S'p2_vo'
I4
tp459
a(S'w'
I728
tp460
a(S'p1_vo'
I8
tp461
a(S'w'
I10
tp462
a(S'p2_tl'
I121
tp463
a(S'p2_ll'
I0
tp464
a(S'w'
I723
tp465
a(S'p1_vo'
I7
tp466
a(S'w'
I738
tp467
a(S'p1_tl'
I113
tp468
a(S'p1_ll'
I0
tp469
a(S'w'
I9
tp470
a(S'p2_vo'
I5
tp471
a(S'w'
I9
tp472
a(S'tr_ll'
I31
tp473
a(S'w'
I1
tp474
a(S'tr_lh'
I1
tp475
a(S'tr_lr'
I16
tp476
a(S'w'
I717
tp477
a(S'p2_vo'
I4
tp478
a(S'w'
I9
tp479
a(S'tr_lh'
I0
tp480
a(S'tr_lr'
I0
tp481
a(S'w'
I719
tp482
a(S'p1_vo'
I8
tp483
a(S'w'
I10
tp484
a(S'p2_tl'
I114
tp485
a(S'p2_ll'
I0
tp486
a(S'w'
I724
tp487
a(S'p1_vo'
I7
tp488
a(S'w'
I737
tp489
a(S'p1_tl'
I0
tp490
a(S'p1_ll'
I0
tp491
a(S'w'
I9
tp492
a(S'p2_vo'
I5
tp493
a(S'w'
I727
tp494
a(S'p2_vo'
I4
tp495
a(S'w'
I728
tp496
a(S'p1_vo'
I8
tp497
a(S'w'
I10
tp498
a(S'p2_tl'
I1
tp499
a(S'w'
I1
tp500
a(S'p2_ll'
I0
tp501
a(S'w'
I11
tp502
a(S'tr_ll'
I31
tp503
a(S'w'
I1
tp504
a(S'tr_lh'
I1
tp505
a(S'tr_lr'
I16
tp506
a(S'w'
I711
tp507
a(S'p1_vo'
I7
tp508
a(S'w'
I15
tp509
a(S'tr_lh'
I0
tp510
a(S'tr_lr'
I0
tp511
a(S'w'
I719
tp512
a(S'p1_vo'
I6
tp513
a(S'w'
I6
tp514
a(S'p2_vo'
I5
tp515
a(S'w'
I734
tp516
a(S'p2_vo'
I4
tp517
a(S'w'
I733
tp518
a(S'p2_vo'
I3
tp519
a(S'w'
I1462
tp520
a(S'p1_vo'
I5
tp521
a(S'w'
I15
tp522
a(S'tr_ll'
I31
tp523
a(S'w'
I1
tp524
a(S'tr_lh'
I1
tp525
a(S'tr_lr'
I16
tp526
a(S'w'
I733
tp527
a(S'tr_lh'
I0
tp528
a(S'tr_lr'
I0
tp529
a(S'w'
I725
tp530
a(S'p2_vo'
I2
tp531
a(S'w'
I1467
tp532
a(S'p1_tl'
I201
tp533
a(S'w'
I1
tp534
a(S'p1_ll'
I0
tp535
a(S'w'
I1
tp536
a(S'p1_vo'
I7
tp537
a(S'w'
I1460
tp538
a(S'p1_vo'
I8
tp539
a(S'w'
I13
tp540
a(S'p2_tl'
I202
tp541
a(S'p2_ll'
I0
tp542
a(S'w'
I1
tp543
a(S'p2_vo'
I4
tp544
a(S'w'
I10
tp545
a(S'tr_ll'
I31
tp546
a(S'w'
I1
tp547
a(S'tr_lh'
I1
tp548
a(S'tr_lr'
I16
tp549
a(S'w'
I708
tp550
a(S'p1_vo'
I7
tp551
a(S'w'
I16
tp552
a(S'tr_lh'
I0
tp553
a(S'tr_lr'
I0
tp554
a(S'w'
I722
tp555
a(S'p1_tl'
I190
tp556
a(S'p1_ll'
I0
tp557
a(S'w'
I9
tp558
a(S'p2_vo'
I5
tp559
a(S'w'
I727
tp560
a(S'p2_vo'
I4
tp561
a(S'w'
I728
tp562
a(S'p1_vo'
I8
tp563
a(S'w'
I10
tp564
a(S'p2_tl'
I191
tp565
a(S'p2_ll'
I0
tp566
a(S'w'
I724
tp567
a(S'p1_vo'
I7
tp568
a(S'w'
I737
tp569
a(S'p1_tl'
I179
tp570
a(S'p1_ll'
I0
tp571
a(S'w'
I9
tp572
a(S'p2_vo'
I5
tp573
a(S'w'
I9
tp574
a(S'tr_ll'
I31
tp575
a(S'w'
I1
tp576
a(S'tr_lh'
I1
tp577
a(S'tr_lr'
I16
tp578
a(S'w'
I717
tp579
a(S'p2_vo'
I4
tp580
a(S'w'
I10
tp581
a(S'tr_lh'
I0
tp582
a(S'tr_lr'
I0
tp583
a(S'w'
I718
tp584
a(S'p1_vo'
I8
tp585
a(S'w'
I10
tp586
a(S'p2_tl'
I180
tp587
a(S'w'
I1
tp588
a(S'p2_ll'
I0
tp589
a(S'w'
I723
tp590
a(S'p1_vo'
I7
tp591
a(S'w'
I737
tp592
a(S'p1_tl'
I169
tp593
a(S'w'
I1
tp594
a(S'p1_ll'
I0
tp595
a(S'w'
I8
tp596
a(S'p2_vo'
I5
tp597
a(S'w'
I728
tp598
a(S'p2_vo'
I4
tp599
a(S'w'
I727
tp600
a(S'p1_vo'
I8
tp601
a(S'w'
I11
tp602
a(S'p2_tl'
I170
tp603
a(S'p2_ll'
I0
tp604
a(S'w'
I11
tp605
a(S'tr_ll'
I31
tp606
a(S'w'
I1
tp607
a(S'tr_lh'
I1
tp608
a(S'tr_lr'
I16
tp609
a(S'w'
I711
tp610
a(S'p1_vo'
I7
tp611
a(S'w'
I15
tp612
a(S'tr_lh'
I0
tp613
a(S'tr_lr'
I0
tp614
a(S'w'
I723
tp615
a(S'p1_tl'
I160
tp616
a(S'p1_ll'
I0
tp617
a(S'w'
I9
tp618
a(S'p2_vo'
I5
tp619
a(S'w'
I727
tp620
a(S'p2_vo'
I4
tp621
a(S'w'
I727
tp622
a(S'p1_vo'
I8
tp623
a(S'w'
I11
tp624
a(S'p2_tl'
I161
tp625
a(S'p2_ll'
I0
tp626
a(S'w'
I723
tp627
a(S'p1_vo'
I7
tp628
a(S'w'
I738
tp629
a(S'p1_tl'
I151
tp630
a(S'p1_ll'
I0
tp631
a(S'w'
I9
tp632
a(S'p2_vo'
I5
tp633
a(S'w'
I9
tp634
a(S'tr_ll'
I31
tp635
a(S'w'
I1
tp636
a(S'tr_lh'
I1
tp637
a(S'tr_lr'
I16
tp638
a(S'w'
I717
tp639
a(S'p2_vo'
I4
tp640
a(S'w'
I9
tp641
a(S'tr_lh'
I0
tp642
a(S'tr_lr'
I0
tp643
a(S'w'
I719
tp644
a(S'p1_vo'
I8
tp645
a(S'w'
I10
tp646
a(S'p2_tl'
I152
tp647
a(S'p2_ll'
I0
tp648
a(S'w'
I723
tp649
a(S'p1_vo'
I7
tp650
a(S'w'
I738
tp651
a(S'p1_tl'
I142
tp652
a(S'p1_ll'
I0
tp653
a(S'w'
I9
tp654
a(S'p2_vo'
I5
tp655
a(S'w'
I727
tp656
a(S'p2_vo'
I4
tp657
a(S'w'
I728
tp658
a(S'p1_vo'
I8
tp659
a(S'w'
I10
tp660
a(S'p2_tl'
I143
tp661
a(S'p2_ll'
I0
tp662
a(S'w'
I12
tp663
a(S'tr_ll'
I31
tp664
a(S'w'
I1
tp665
a(S'tr_lh'
I1
tp666
a(S'tr_lr'
I16
tp667
a(S'w'
I711
tp668
a(S'p1_vo'
I7
tp669
a(S'w'
I15
tp670
a(S'tr_lh'
I0
tp671
a(S'tr_lr'
I0
tp672
a(S'w'
I722
tp673
a(S'p1_tl'
I134
tp674
a(S'p1_ll'
I0
tp675
a(S'w'
I9
tp676
a(S'p2_vo'
I5
tp677
a(S'w'
I728
tp678
a(S'p2_vo'
I4
tp679
a(S'w'
I727
tp680
a(S'p1_vo'
I8
tp681
a(S'w'
I10
tp682
a(S'p2_tl'
I135
tp683
a(S'w'
I1
tp684
a(S'p2_ll'
I0
tp685
a(S'w'
I723
tp686
a(S'p1_vo'
I7
tp687
a(S'w'
I737
tp688
a(S'p1_tl'
I127
tp689
a(S'w'
I1
tp690
a(S'p1_ll'
I0
tp691
a(S'w'
I8
tp692
a(S'p2_vo'
I5
tp693
a(S'w'
I9
tp694
a(S'tr_ll'
I31
tp695
a(S'w'
I1
tp696
a(S'tr_lh'
I1
tp697
a(S'tr_lr'
I16
tp698
a(S'w'
I718
tp699
a(S'p2_vo'
I4
tp700
a(S'w'
I9
tp701
a(S'tr_lh'
I0
tp702
a(S'tr_lr'
I0
tp703
a(S'w'
I718
tp704
a(S'p1_vo'
I8
tp705
a(S'w'
I11
tp706
a(S'p2_tl'
I128
tp707
a(S'p2_ll'
I0
tp708
a(S'w'
I723
tp709
a(S'p1_vo'
I7
tp710
a(S'w'
I738
tp711
a(S'p1_tl'
I120
tp712
a(S'p1_ll'
I0
tp713
a(S'w'
I9
tp714
a(S'p2_vo'
I5
tp715
a(S'w'
I727
tp716
a(S'p2_vo'
I4
tp717
a(S'w'
I727
tp718
a(S'p1_vo'
I8
tp719
a(S'w'
I11
tp720
a(S'p2_tl'
I121
tp721
a(S'p2_ll'
I0
tp722
a(S'w'
I12
tp723
a(S'tr_ll'
I31
tp724
a(S'tr_lh'
I1
tp725
a(S'tr_lr'
I16
tp726
a(S'w'
I711
tp727
a(S'p1_vo'
I7
tp728
a(S'w'
I16
tp729
a(S'tr_lh'
I0
tp730
a(S'tr_lr'
I0
tp731
a(S'w'
I722
tp732
a(S'p1_tl'
I113
tp733
a(S'p1_ll'
I0
tp734
a(S'w'
I9
tp735
a(S'p2_vo'
I5
tp736
a(S'w'
I727
tp737
a(S'p2_vo'
I4
tp738
a(S'w'
I728
tp739
a(S'p1_vo'
I8
tp740
a(S'w'
I10
tp741
a(S'p2_tl'
I114
tp742
a(S'p2_ll'
I0
tp743
a(S'w'
I723
tp744
a(S'p1_vo'
I7
tp745
a(S'w'
I738
tp746
a(S'p1_tl'
I213
tp747
a(S'p1_ll'
I0
tp748
a(S'w'
I9
tp749
a(S'p2_vo'
I5
tp750
a(S'w'
I9
tp751
a(S'tr_ll'
I31
tp752
a(S'w'
I1
tp753
a(S'tr_lh'
I1
tp754
a(S'tr_lr'
I16
tp755
a(S'w'
I717
tp756
a(S'p2_vo'
I4
tp757
a(S'w'
I9
tp758
a(S'tr_lh'
I0
tp759
a(S'tr_lr'
I0
tp760
a(S'w'
I719
tp761
a(S'p1_vo'
I8
tp762
a(S'w'
I10
tp763
a(S'p2_tl'
I214
tp764
a(S'p2_ll'
I0
tp765
a(S'w'
I724
tp766
a(S'p1_vo'
I7
tp767
a(S'w'
I737
tp768
a(S'p1_tl'
I201
tp769
a(S'p1_ll'
I0
tp770
a(S'w'
I9
tp771
a(S'p2_vo'
I5
tp772
a(S'w'
I728
tp773
a(S'p2_vo'
I4
tp774
a(S'w'
I727
tp775
a(S'p1_vo'
I8
tp776
a(S'w'
I10
tp777
a(S'p2_tl'
I202
tp778
a(S'w'
I1
tp779
a(S'p2_ll'
I0
tp780
a(S'w'
I11
tp781
a(S'tr_ll'
I31
tp782
a(S'w'
I1
tp783
a(S'tr_lh'
I1
tp784
a(S'tr_lr'
I16
tp785
a(S'w'
I711
tp786
a(S'p1_vo'
I7
tp787
a(S'w'
I15
tp788
a(S'tr_lh'
I0
tp789
a(S'tr_lr'
I0
tp790
a(S'w'
I722
tp791
a(S'p1_tl'
I190
tp792
a(S'w'
I1
tp793
a(S'p1_ll'
I0
tp794
a(S'w'
I8
tp795
a(S'p2_vo'
I5
tp796
a(S'w'
I728
tp797
a(S'p2_vo'
I4
tp798
a(S'w'
I727
tp799
a(S'p1_vo'
I8
tp800
a(S'w'
I11
tp801
a(S'p2_tl'
I191
tp802
a(S'p2_ll'
I0
tp803
a(S'w'
I723
tp804
a(S'p1_vo'
I7
tp805
a(S'w'
I738
tp806
a(S'p1_tl'
I179
tp807
a(S'p1_ll'
I0
tp808
a(S'w'
I9
tp809
a(S'p2_vo'
I5
tp810
a(S'w'
I9
tp811
a(S'tr_ll'
I31
tp812
a(S'tr_lh'
I1
tp813
a(S'tr_lr'
I16
tp814
a(S'w'
I718
tp815
a(S'p2_vo'
I4
tp816
a(S'w'
I9
tp817
a(S'tr_lh'
I0
tp818
a(S'tr_lr'
I0
tp819
a(S'w'
I719
tp820
a(S'p1_vo'
I8
tp821
a(S'w'
I10
tp822
a(S'p2_tl'
I180
tp823
a(S'p2_ll'
I0
tp824
a(S'w'
I723
tp825
a(S'p1_vo'
I7
tp826
a(S'w'
I738
tp827
a(S'p1_tl'
I169
tp828
a(S'p1_ll'
I0
tp829
a(S'w'
I9
tp830
a(S'p2_vo'
I5
tp831
a(S'w'
I727
tp832
a(S'p2_vo'
I4
tp833
a(S'w'
I728
tp834
a(S'p1_vo'
I8
tp835
a(S'w'
I10
tp836
a(S'p2_tl'
I170
tp837
a(S'p2_ll'
I0
tp838
a(S'w'
I12
tp839
a(S'tr_ll'
I31
tp840
a(S'w'
I1
tp841
a(S'tr_lh'
I1
tp842
a(S'tr_lr'
I16
tp843
a(S'w'
I711
tp844
a(S'p1_vo'
I7
tp845
a(S'w'
I15
tp846
a(S'tr_lh'
I0
tp847
a(S'tr_lr'
I0
tp848
a(S'w'
I722
tp849
a(S'p1_tl'
I160
tp850
a(S'p1_ll'
I0
tp851
a(S'w'
I9
tp852
a(S'p2_vo'
I5
tp853
a(S'w'
I727
tp854
a(S'p2_vo'
I4
tp855
a(S'w'
I728
tp856
a(S'p1_vo'
I8
tp857
a(S'w'
I10
tp858
a(S'p2_tl'
I161
tp859
a(S'p2_ll'
I0
tp860
a(S'w'
I724
tp861
a(S'p1_vo'
I7
tp862
a(S'w'
I737
tp863
a(S'p1_tl'
I151
tp864
a(S'p1_ll'
I0
tp865
a(S'w'
I9
tp866
a(S'p2_vo'
I5
tp867
a(S'w'
I9
tp868
a(S'tr_ll'
I31
tp869
a(S'w'
I1
tp870
a(S'tr_lh'
I1
tp871
a(S'tr_lr'
I16
tp872
a(S'w'
I717
tp873
a(S'p2_vo'
I4
tp874
a(S'w'
I10
tp875
a(S'tr_lh'
I0
tp876
a(S'tr_lr'
I0
tp877
a(S'w'
I718
tp878
a(S'p1_vo'
I8
tp879
a(S'w'
I10
tp880
a(S'p2_tl'
I152
tp881
a(S'w'
I1
tp882
a(S'p2_ll'
I0
tp883
a(S'w'
I723
tp884
a(S'p1_vo'
I7
tp885
a(S'w'
I737
tp886
a(S'p1_tl'
I142
tp887
a(S'w'
I1
tp888
a(S'p1_ll'
I0
tp889
a(S'w'
I8
tp890
a(S'p2_vo'
I5
tp891
a(S'w'
I728
tp892
a(S'p2_vo'
I4
tp893
a(S'w'
I727
tp894
a(S'p1_vo'
I8
tp895
a(S'w'
I11
tp896
a(S'p2_tl'
I143
tp897
a(S'p2_ll'
I0
tp898
a(S'w'
I12
tp899
a(S'tr_ll'
I31
tp900
a(S'tr_lh'
I1
tp901
a(S'tr_lr'
I16
tp902
a(S'w'
I711
tp903
a(S'p1_vo'
I7
tp904
a(S'w'
I15
tp905
a(S'tr_lh'
I0
tp906
a(S'tr_lr'
I0
tp907
a(S'w'
I723
tp908
a(S'p1_tl'
I134
tp909
a(S'p1_ll'
I0
tp910
a(S'w'
I9
tp911
a(S'p2_vo'
I5
tp912
a(S'w'
I727
tp913
a(S'p2_vo'
I4
tp914
a(S'w'
I728
tp915
a(S'p1_vo'
I8
tp916
a(S'w'
I10
tp917
a(S'p2_tl'
I135
tp918
a(S'p2_ll'
I0
tp919
a(S'w'
I723
tp920
a(S'p1_vo'
I7
tp921
a(S'w'
I738
tp922
a(S'p1_tl'
I127
tp923
a(S'p1_ll'
I0
tp924
a(S'w'
I9
tp925
a(S'p2_vo'
I5
tp926
a(S'w'
I9
tp927
a(S'tr_ll'
I31
tp928
a(S'w'
I1
tp929
a(S'tr_lh'
I1
tp930
a(S'tr_lr'
I16
tp931
a(S'w'
I717
tp932
a(S'p2_vo'
I4
tp933
a(S'w'
I9
tp934
a(S'tr_lh'
I0
tp935
a(S'tr_lr'
I0
tp936
a(S'w'
I719
tp937
a(S'p1_vo'
I8
tp938
a(S'w'
I10
tp939
a(S'p2_tl'
I128
tp940
a(S'p2_ll'
I0
tp941
a(S'w'
I724
tp942
a(S'p1_vo'
I7
tp943
a(S'w'
I737
tp944
a(S'p1_tl'
I120
tp945
a(S'p1_ll'
I0
tp946
a(S'w'
I9
tp947
a(S'p2_vo'
I5
tp948
a(S'w'
I727
tp949
a(S'p2_vo'
I4
tp950
a(S'w'
I728
tp951
a(S'p1_vo'
I8
tp952
a(S'w'
I10
tp953
a(S'p2_tl'
I121
tp954
a(S'p2_ll'
I0
tp955
a(S'w'
I12
tp956
a(S'tr_ll'
I31
tp957
a(S'w'
I1
tp958
a(S'tr_lh'
I1
tp959
a(S'tr_lr'
I16
tp960
a(S'w'
I711
tp961
a(S'p1_vo'
I7
tp962
a(S'w'
I15
tp963
a(S'tr_lh'
I0
tp964
a(S'tr_lr'
I0
tp965
a(S'w'
I722
tp966
a(S'p1_tl'
I113
tp967
a(S'p1_ll'
I0
tp968
a(S'w'
I9
tp969
a(S'p2_vo'
I5
tp970
a(S'w'
I728
tp971
a(S'p2_vo'
I4
tp972
a(S'w'
I727
tp973
a(S'p1_vo'
I8
tp974
a(S'w'
I10
tp975
a(S'p2_tl'
I114
tp976
a(S'w'
I1
tp977
a(S'p2_ll'
I0
tp978
a(S'w'
I723
tp979
a(S'p1_vo'
I7
tp980
a(S'w'
I737
tp981
a(S'p1_tl'
I0
tp982
a(S'w'
I1
tp983
a(S'p1_ll'
I0
tp984
a(S'w'
I8
tp985
a(S'p2_vo'
I5
tp986
a(S'w'
I9
tp987
a(S'tr_ll'
I31
tp988
a(S'w'
I1
tp989
a(S'tr_lh'
I1
tp990
a(S'tr_lr'
I16
tp991
a(S'w'
I718
tp992
a(S'p2_vo'
I4
tp993
a(S'w'
I9
tp994
a(S'tr_lh'
I0
tp995
a(S'tr_lr'
I0
tp996
a(S'w'
I718
tp997
a(S'p1_vo'
I8
tp998
a(S'w'
I11
tp999
a(S'p2_tl'
I1
tp1000
a(S'p2_ll'
I0
tp1001
a(S'w'
I723
tp1002
a(S'p1_vo'
I7
tp1003
a(S'w'
I734
tp1004
a(S'p1_vo'
I6
tp1005
a(S'w'
I6
tp1006
a(S'p2_vo'
I5
tp1007
a(S'w'
I734
tp1008
a(S'p2_vo'
I4
tp1009
a(S'w'
I734
tp1010
a(S'p2_vo'
I3
tp1011
a(S'w'
I9
tp1012
a(S'tr_ll'
I31
tp1013
a(S'w'
I1
tp1014
a(S'tr_lh'
I1
tp1015
a(S'tr_lr'
I16
tp1016
a(S'w'
I733
tp1017
a(S'tr_lh'
I0
tp1018
a(S'tr_lr'
I0
tp1019
a(S'w'
I718
tp1020
a(S'p1_vo'
I5
tp1021
a(S'w'
I1474
tp1022
a(S'p2_vo'
I2
tp1023
a(S'w'
I1468
tp1024
a(S'p1_tl'
I201
tp1025
a(S'p1_ll'
I0
tp1026
a(S'w'
I1
tp1027
a(S'p1_vo'
I7
tp1028
a(S'w'
I17
tp1029
a(S'tr_ll'
I31
tp1030
a(S'w'
I1
tp1031
a(S'tr_lh'
I1
tp1032
a(S'tr_lr'
I16
tp1033
a(S'w'
I723
tp1034
a(S'tr_lh'
I0
tp1035
a(S'tr_lr'
I0
tp1036
a(S'w'
I719
tp1037
a(S'p1_vo'
I8
tp1038
a(S'w'
I13
tp1039
a(S'p2_tl'
I202
tp1040
a(S'p2_ll'
I0
tp1041
a(S'w'
I1
tp1042
a(S'p2_vo'
I4
tp1043
a(S'w'
I720
tp1044
a(S'p1_vo'
I7
tp1045
a(S'w'
I737
tp1046
a(S'p1_tl'
I190
tp1047
a(S'p1_ll'
I0
tp1048
a(S'w'
I9
tp1049
a(S'p2_vo'
I5
tp1050
a(S'w'
I728
tp1051
a(S'p2_vo'
I4
tp1052
a(S'w'
I727
tp1053
a(S'p1_vo'
I8
tp1054
a(S'w'
I11
tp1055
a(S'p2_tl'
I191
tp1056
a(S'p2_ll'
I0
tp1057
a(S'w'
I11
tp1058
a(S'tr_ll'
I31
tp1059
a(S'w'
I1
tp1060
a(S'tr_lh'
I1
tp1061
a(S'tr_lr'
I16
tp1062
a(S'w'
I711
tp1063
a(S'p1_vo'
I7
tp1064
a(S'w'
I15
tp1065
a(S'tr_lh'
I0
tp1066
a(S'tr_lr'
I0
tp1067
a(S'w'
I722
tp1068
a(S'p1_tl'
I179
tp1069
a(S'w'
I1
tp1070
a(S'p1_ll'
I0
tp1071
a(S'w'
I8
tp1072
a(S'p2_vo'
I5
tp1073
a(S'w'
I728
tp1074
a(S'p2_vo'
I4
tp1075
a(S'w'
I727
tp1076
a(S'p1_vo'
I8
tp1077
a(S'w'
I11
tp1078
a(S'p2_tl'
I180
tp1079
a(S'p2_ll'
I0
tp1080
a(S'w'
I723
tp1081
a(S'p1_vo'
I7
tp1082
a(S'w'
I738
tp1083
a(S'p1_tl'
I169
tp1084
a(S'p1_ll'
I0
tp1085
a(S'w'
I9
tp1086
a(S'p2_vo'
I5
tp1087
a(S'w'
I9
tp1088
a(S'tr_ll'
I31
tp1089
a(S'tr_lh'
I1
tp1090
a(S'tr_lr'
I16
tp1091
a(S'w'
I718
tp1092
a(S'p2_vo'
I4
tp1093
a(S'w'
I9
tp1094
a(S'tr_lh'
I0
tp1095
a(S'tr_lr'
I0
tp1096
a(S'w'
I719
tp1097
a(S'p1_vo'
I8
tp1098
a(S'w'
I10
tp1099
a(S'p2_tl'
I170
tp1100
a(S'p2_ll'
I0
tp1101
a(S'w'
I723
tp1102
a(S'p1_vo'
I7
tp1103
a(S'w'
I738
tp1104
a(S'p1_tl'
I160
tp1105
a(S'p1_ll'
I0
tp1106
a(S'w'
I9
tp1107
a(S'p2_vo'
I5
tp1108
a(S'w'
I727
tp1109
a(S'p2_vo'
I4
tp1110
a(S'w'
I728
tp1111
a(S'p1_vo'
I8
tp1112
a(S'w'
I10
tp1113
a(S'p2_tl'
I161
tp1114
a(S'p2_ll'
I0
tp1115
a(S'w'
I12
tp1116
a(S'tr_ll'
I31
tp1117
a(S'w'
I1
tp1118
a(S'tr_lh'
I1
tp1119
a(S'tr_lr'
I16
tp1120
a(S'w'
I711
tp1121
a(S'p1_vo'
I7
tp1122
a(S'w'
I15
tp1123
a(S'tr_lh'
I0
tp1124
a(S'tr_lr'
I0
tp1125
a(S'w'
I722
tp1126
a(S'p1_tl'
I151
tp1127
a(S'p1_ll'
I0
tp1128
a(S'w'
I9
tp1129
a(S'p2_vo'
I5
tp1130
a(S'w'
I727
tp1131
a(S'p2_vo'
I4
tp1132
a(S'w'
I728
tp1133
a(S'p1_vo'
I8
tp1134
a(S'w'
I10
tp1135
a(S'p2_tl'
I152
tp1136
a(S'p2_ll'
I0
tp1137
a(S'w'
I724
tp1138
a(S'p1_vo'
I7
tp1139
a(S'w'
I737
tp1140
a(S'p1_tl'
I142
tp1141
a(S'p1_ll'
I0
tp1142
a(S'w'
I9
tp1143
a(S'p2_vo'
I5
tp1144
a(S'w'
I9
tp1145
a(S'tr_ll'
I31
tp1146
a(S'w'
I1
tp1147
a(S'tr_lh'
I1
tp1148
a(S'tr_lr'
I16
tp1149
a(S'w'
I718
tp1150
a(S'p2_vo'
I4
tp1151
a(S'w'
I9
tp1152
a(S'tr_lh'
I0
tp1153
a(S'tr_lr'
I0
tp1154
a(S'w'
I718
tp1155
a(S'p1_vo'
I8
tp1156
a(S'w'
I11
tp1157
a(S'p2_tl'
I143
tp1158
a(S'p2_ll'
I0
tp1159
a(S'w'
I723
tp1160
a(S'p1_vo'
I7
tp1161
a(S'w'
I737
tp1162
a(S'p1_tl'
I134
tp1163
a(S'w'
I1
tp1164
a(S'p1_ll'
I0
tp1165
a(S'w'
I8
tp1166
a(S'p2_vo'
I5
tp1167
a(S'w'
I728
tp1168
a(S'p2_vo'
I4
tp1169
a(S'w'
I727
tp1170
a(S'p1_vo'
I8
tp1171
a(S'w'
I11
tp1172
a(S'p2_tl'
I135
tp1173
a(S'p2_ll'
I0
tp1174
a(S'w'
I12
tp1175
a(S'tr_ll'
I31
tp1176
a(S'tr_lh'
I1
tp1177
a(S'tr_lr'
I16
tp1178
a(S'w'
I711
tp1179
a(S'p1_vo'
I7
tp1180
a(S'w'
I16
tp1181
a(S'tr_lh'
I0
tp1182
a(S'tr_lr'
I0
tp1183
a(S'w'
I722
tp1184
a(S'p1_tl'
I127
tp1185
a(S'p1_ll'
I0
tp1186
a(S'w'
I9
tp1187
a(S'p2_vo'
I5
tp1188
a(S'w'
I727
tp1189
a(S'p2_vo'
I4
tp1190
a(S'w'
I728
tp1191
a(S'p1_vo'
I8
tp1192
a(S'w'
I10
tp1193
a(S'p2_tl'
I128
tp1194
a(S'p2_ll'
I0
tp1195
a(S'w'
I723
tp1196
a(S'p1_vo'
I7
tp1197
a(S'w'
I738
tp1198
a(S'p1_tl'
I120
tp1199
a(S'p1_ll'
I0
tp1200
a(S'w'
I9
tp1201
a(S'p2_vo'
I5
tp1202
a(S'w'
I9
tp1203
a(S'tr_ll'
I31
tp1204
a(S'w'
I1
tp1205
a(S'tr_lh'
I1
tp1206
a(S'tr_lr'
I16
tp1207
a(S'w'
I717
tp1208
a(S'p2_vo'
I4
tp1209
a(S'w'
I9
tp1210
a(S'tr_lh'
I0
tp1211
a(S'tr_lr'
I0
tp1212
a(S'w'
I719
tp1213
a(S'p1_vo'
I8
tp1214
a(S'w'
I10
tp1215
a(S'p2_tl'
I121
tp1216
a(S'p2_ll'
I0
tp1217
a(S'w'
I724
tp1218
a(S'p1_vo'
I7
tp1219
a(S'w'
I737
tp1220
a(S'p1_tl'
I113
tp1221
a(S'p1_ll'
I0
tp1222
a(S'w'
I9
tp1223
a(S'p2_vo'
I5
tp1224
a(S'w'
I727
tp1225
a(S'p2_vo'
I4
tp1226
a(S'w'
I728
tp1227
a(S'p1_vo'
I8
tp1228
a(S'w'
I10
tp1229
a(S'p2_tl'
I114
tp1230
a(S'w'
I1
tp1231
a(S'p2_ll'
I0
tp1232
a(S'w'
I11
tp1233
a(S'tr_ll'
I31
tp1234
a(S'w'
I1
tp1235
a(S'tr_lh'
I1
tp1236
a(S'tr_lr'
I16
tp1237
a(S'w'
I711
tp1238
a(S'p1_vo'
I7
tp1239
a(S'w'
I15
tp1240
a(S'tr_lh'
I0
tp1241
a(S'tr_lr'
I0
tp1242
a(S'w'
I722
tp1243
a(S'p1_tl'
I213
tp1244
a(S'w'
I1
tp1245
a(S'p1_ll'
I0
tp1246
a(S'w'
I8
tp1247
a(S'p2_vo'
I5
tp1248
a(S'w'
I728
tp1249
a(S'p2_vo'
I4
tp1250
a(S'w'
I727
tp1251
a(S'p1_vo'
I8
tp1252
a(S'w'
I11
tp1253
a(S'p2_tl'
I214
tp1254
a(S'p2_ll'
I0
tp1255
a(S'w'
I722
tp1256
a(S'p1_vo'
I7
tp1257
a(S'w'
I13
tp1258
a(S'w'
I722
tp1259
a(S'p1_vo'
I6
tp1260
a(S'w'
I6
tp1261
a(S'p2_vo'
I5
tp1262
a(S'w'
I731
tp1263
a(S'p1_tl'
I201
tp1264
a(S'w'
I1
tp1265
a(S'p1_ll'
I0
tp1266
a(S'w'
I1
tp1267
a(S'p1_vo'
I7
tp1268
a(S'w'
I7
tp1269
a(S'p2_vo'
I4
tp1270
a(S'w'
I9
tp1271
a(S'tr_ll'
I31
tp1272
a(S'w'
I1
tp1273
a(S'tr_lh'
I1
tp1274
a(S'tr_lr'
I16
tp1275
a(S'w'
I718
tp1276
a(S'p2_vo'
I3
tp1277
a(S'w'
I9
tp1278
a(S'tr_lh'
I0
tp1279
a(S'tr_lr'
I0
tp1280
a(S'w'
I718
tp1281
a(S'p1_vo'
I8
tp1282
a(S'w'
I11
tp1283
a(S'p2_tl'
I202
tp1284
a(S'p2_ll'
I0
tp1285
a(S'w'
I1
tp1286
a(S'p2_vo'
I4
tp1287
a(S'w'
I722
tp1288
a(S'p1_vo'
I7
tp1289
a(S'w'
I738
tp1290
a(S'p1_tl'
I190
tp1291
a(S'p1_ll'
I0
tp1292
a(S'w'
I8
tp1293
a(S'p2_vo'
I5
tp1294
a(S'w'
I728
tp1295
a(S'p2_vo'
I4
tp1296
a(S'w'
I727
tp1297
a(S'p1_vo'
I8
tp1298
a(S'w'
I11
tp1299
a(S'p2_tl'
I191
tp1300
a(S'p2_ll'
I0
tp1301
a(S'w'
I12
tp1302
a(S'tr_ll'
I31
tp1303
a(S'tr_lh'
I1
tp1304
a(S'tr_lr'
I16
tp1305
a(S'w'
I711
tp1306
a(S'p1_vo'
I7
tp1307
a(S'w'
I16
tp1308
a(S'tr_lh'
I0
tp1309
a(S'tr_lr'
I0
tp1310
a(S'w'
I722
tp1311
a(S'p1_tl'
I179
tp1312
a(S'p1_ll'
I0
tp1313
a(S'w'
I9
tp1314
a(S'p2_vo'
I5
tp1315
a(S'w'
I727
tp1316
a(S'p2_vo'
I4
tp1317
a(S'w'
I728
tp1318
a(S'p1_vo'
I8
tp1319
a(S'w'
I10
tp1320
a(S'p2_tl'
I180
tp1321
a(S'p2_ll'
I0
tp1322
a(S'w'
I723
tp1323
a(S'p1_vo'
I7
tp1324
a(S'w'
I738
tp1325
a(S'p1_tl'
I169
tp1326
a(S'p1_ll'
I0
tp1327
a(S'w'
I9
tp1328
a(S'p2_vo'
I5
tp1329
a(S'w'
I9
tp1330
a(S'tr_ll'
I31
tp1331
a(S'w'
I1
tp1332
a(S'tr_lh'
I1
tp1333
a(S'tr_lr'
I16
tp1334
a(S'w'
I717
tp1335
a(S'p2_vo'
I4
tp1336
a(S'w'
I9
tp1337
a(S'tr_lh'
I0
tp1338
a(S'tr_lr'
I0
tp1339
a(S'w'
I719
tp1340
a(S'p1_vo'
I8
tp1341
a(S'w'
I10
tp1342
a(S'p2_tl'
I170
tp1343
a(S'p2_ll'
I0
tp1344
a(S'w'
I724
tp1345
a(S'p1_vo'
I7
tp1346
a(S'w'
I737
tp1347
a(S'p1_tl'
I160
tp1348
a(S'p1_ll'
I0
tp1349
a(S'w'
I9
tp1350
a(S'p2_vo'
I5
tp1351
a(S'w'
I727
tp1352
a(S'p2_vo'
I4
tp1353
a(S'w'
I728
tp1354
a(S'p1_vo'
I8
tp1355
a(S'w'
I10
tp1356
a(S'p2_tl'
I161
tp1357
a(S'w'
I1
tp1358
a(S'p2_ll'
I0
tp1359
a(S'w'
I11
tp1360
a(S'tr_ll'
I31
tp1361
a(S'w'
I1
tp1362
a(S'tr_lh'
I1
tp1363
a(S'tr_lr'
I16
tp1364
a(S'w'
I711
tp1365
a(S'p1_vo'
I7
tp1366
a(S'w'
I15
tp1367
a(S'tr_lh'
I0
tp1368
a(S'tr_lr'
I0
tp1369
a(S'w'
I722
tp1370
a(S'p1_tl'
I151
tp1371
a(S'w'
I1
tp1372
a(S'p1_ll'
I0
tp1373
a(S'w'
I8
tp1374
a(S'p2_vo'
I5
tp1375
a(S'w'
I728
tp1376
a(S'p2_vo'
I4
tp1377
a(S'w'
I727
tp1378
a(S'p1_vo'
I8
tp1379
a(S'w'
I11
tp1380
a(S'p2_tl'
I152
tp1381
a(S'p2_ll'
I0
tp1382
a(S'w'
I723
tp1383
a(S'p1_vo'
I7
tp1384
a(S'w'
I738
tp1385
a(S'p1_tl'
I142
tp1386
a(S'p1_ll'
I0
tp1387
a(S'w'
I9
tp1388
a(S'p2_vo'
I5
tp1389
a(S'w'
I9
tp1390
a(S'tr_ll'
I31
tp1391
a(S'tr_lh'
I1
tp1392
a(S'tr_lr'
I16
tp1393
a(S'w'
I718
tp1394
a(S'p2_vo'
I4
tp1395
a(S'w'
I9
tp1396
a(S'tr_lh'
I0
tp1397
a(S'tr_lr'
I0
tp1398
a(S'w'
I718
tp1399
a(S'p1_vo'
I8
tp1400
a(S'w'
I11
tp1401
a(S'p2_tl'
I143
tp1402
a(S'p2_ll'
I0
tp1403
a(S'w'
I723
tp1404
a(S'p1_vo'
I7
tp1405
a(S'w'
I738
tp1406
a(S'p1_tl'
I134
tp1407
a(S'p1_ll'
I0
tp1408
a(S'w'
I9
tp1409
a(S'p2_vo'
I5
tp1410
a(S'w'
I727
tp1411
a(S'p2_vo'
I4
tp1412
a(S'w'
I728
tp1413
a(S'p1_vo'
I8
tp1414
a(S'w'
I10
tp1415
a(S'p2_tl'
I135
tp1416
a(S'p2_ll'
I0
tp1417
a(S'w'
I12
tp1418
a(S'tr_ll'
I31
tp1419
a(S'w'
I1
tp1420
a(S'tr_lh'
I1
tp1421
a(S'tr_lr'
I16
tp1422
a(S'w'
I710
tp1423
a(S'p1_vo'
I7
tp1424
a(S'w'
I16
tp1425
a(S'tr_lh'
I0
tp1426
a(S'tr_lr'
I0
tp1427
a(S'w'
I722
tp1428
a(S'p1_tl'
I127
tp1429
a(S'p1_ll'
I0
tp1430
a(S'w'
I9
tp1431
a(S'p2_vo'
I5
tp1432
a(S'w'
I727
tp1433
a(S'p2_vo'
I4
tp1434
a(S'w'
I728
tp1435
a(S'p1_vo'
I8
tp1436
a(S'w'
I10
tp1437
a(S'p2_tl'
I128
tp1438
a(S'p2_ll'
I0
tp1439
a(S'w'
I724
tp1440
a(S'p1_vo'
I7
tp1441
a(S'w'
I737
tp1442
a(S'p1_tl'
I120
tp1443
a(S'p1_ll'
I0
tp1444
a(S'w'
I9
tp1445
a(S'p2_vo'
I5
tp1446
a(S'w'
I9
tp1447
a(S'tr_ll'
I31
tp1448
a(S'w'
I1
tp1449
a(S'tr_lh'
I1
tp1450
a(S'tr_lr'
I16
tp1451
a(S'w'
I717
tp1452
a(S'p2_vo'
I4
tp1453
a(S'w'
I10
tp1454
a(S'tr_lh'
I0
tp1455
a(S'tr_lr'
I0
tp1456
a(S'w'
I718
tp1457
a(S'p1_vo'
I8
tp1458
a(S'w'
I10
tp1459
a(S'p2_tl'
I121
tp1460
a(S'w'
I1
tp1461
a(S'p2_ll'
I0
tp1462
a(S'w'
I723
tp1463
a(S'p1_vo'
I7
tp1464
a(S'w'
I737
tp1465
a(S'p1_tl'
I113
tp1466
a(S'w'
I1
tp1467
a(S'p1_ll'
I0
tp1468
a(S'w'
I8
tp1469
a(S'p2_vo'
I5
tp1470
a(S'w'
I728
tp1471
a(S'p2_vo'
I4
tp1472
a(S'w'
I727
tp1473
a(S'p1_vo'
I8
tp1474
a(S'w'
I11
tp1475
a(S'p2_tl'
I114
tp1476
a(S'p2_ll'
I0
tp1477
a(S'w'
I11
tp1478
a(S'tr_ll'
I31
tp1479
a(S'w'
I1
tp1480
a(S'tr_lh'
I1
tp1481
a(S'tr_lr'
I16
tp1482
a(S'w'
I711
tp1483
a(S'p1_vo'
I7
tp1484
a(S'w'
I15
tp1485
a(S'tr_lh'
I0
tp1486
a(S'tr_lr'
I0
tp1487
a(S'w'
I723
tp1488
a(S'p1_tl'
I0
tp1489
a(S'p1_ll'
I0
tp1490
a(S'w'
I9
tp1491
a(S'p2_vo'
I5
tp1492
a(S'w'
I727
tp1493
a(S'p2_vo'
I4
tp1494
a(S'w'
I727
tp1495
a(S'p1_vo'
I8
tp1496
a(S'w'
I11
tp1497
a(S'p2_tl'
I1
tp1498
a(S'p2_ll'
I0
tp1499
a(S'w'
I723
tp1500
a(S'p1_vo'
I7
tp1501
a(S'w'
I734
tp1502
a(S'p1_vo'
I6
tp1503
a(S'w'
I6
tp1504
a(S'p2_vo'
I5
tp1505
a(S'w'
I9
tp1506
a(S'tr_ll'
I31
tp1507
a(S'w'
I1
tp1508
a(S'tr_lh'
I1
tp1509
a(S'tr_lr'
I16
tp1510
a(S'w'
I724
tp1511
a(S'p2_vo'
I4
tp1512
a(S'w'
I9
tp1513
a(S'tr_lh'
I0
tp1514
a(S'tr_lr'
I0
tp1515
a(S'w'
I725
tp1516
a(S'p2_vo'
I3
tp1517
a(S'w'
I1461
tp1518
a(S'p1_vo'
I5
tp1519
a(S'w'
I1474
tp1520
a(S'p2_vo'
I2
tp1521
a(S'w'
I9
tp1522
a(S'tr_ll'
I31
tp1523
a(S'w'
I1
tp1524
a(S'tr_lh'
I1
tp1525
a(S'tr_lr'
I16
tp1526
a(S'w'
I733
tp1527
a(S'tr_lh'
I0
tp1528
a(S'tr_lr'
I0
tp1529
a(S'w'
I725
tp1530
a(S'p1_tl'
I201
tp1531
a(S'p1_ll'
I0
tp1532
a(S'w'
I1
tp1533
a(S'p1_vo'
I7
tp1534
a(S'w'
I1460
tp1535
a(S'p1_vo'
I8
tp1536
a(S'w'
I13
tp1537
a(S'p2_tl'
I202
tp1538
a(S'p2_ll'
I0
tp1539
a(S'w'
I1
tp1540
a(S'p2_vo'
I4
tp1541
a(S'w'
I720
tp1542
a(S'p1_vo'
I7
tp1543
a(S'w'
I737
tp1544
a(S'p1_tl'
I190
tp1545
a(S'w'
I1
tp1546
a(S'p1_ll'
I0
tp1547
a(S'w'
I8
tp1548
a(S'p2_vo'
I5
tp1549
a(S'w'
I9
tp1550
a.