(lp1
(S'clock'
p2
I1789772
tp3
a(S'p1_lh'
I1
tp4
a(S'p1_cv'
I1
tp5
a(S'p1_ll'
I0
tp6
a(S'p2_lh'
I1
tp7
a(S'p2_cv'
I1
tp8
a(S'p2_ll'
I0
tp9
a(S'tr_ll'
I0
tp10
a(S'no_ll'
I0
tp11
a(S'ch_no'
I1
tp12
a(S'ch_tr'
I1
tp13
a(S'ch_p2'
I1
tp14
a(S'ch_p1'
I1
tp15
a(S'fc_mo'
I0
tp16
a(S'no_lh'
I1
tp17
a(S'no_cv'
I1
tp18
a(S'no_vo'
I8
tp19
a(S'w'
I1
tp20
a(S'no_np'
I3
tp21
a(S'w'
I1
tp22
a(S'no_ll'
I0
tp23
a(S'w'
I1449
tp24
a(S'tr_lr'
I114
tp25
a(S'w'
I1
tp26
a(S'tr_tl'
I244
tp27
a(S'w'
I2
tp28
a(S'tr_ll'
I0
tp29
a(S'tr_th'
I5
tp30
a(S'w'
I1
tp31
a(S'no_vo'
I15
tp32
a(S'w'
I1
tp33
a(S'no_np'
I7
tp34
a(S'w'
I730
tp35
a(S'no_nl'
I1
tp36
a(S'no_np'
I15
tp37
a(S'w'
I2201
tp38
a(S'no_np'
I14
tp39
a(S'w'
I734
tp40
a(S'no_np'
I12
tp41
a(S'w'
I734
tp42
a(S'no_np'
I14
tp43
a(S'w'
I1468
tp44
a(S'no_np'
I15
tp45
a(S'w'
I1466
tp46
a(S'tr_lr'
I35
tp47
a(S'w'
I3
tp48
a(S'tr_ll'
I0
tp49
a(S'w'
I2
tp50
a(S'no_nl'
I0
tp51
a(S'no_np'
I3
tp52
a(S'w'
I730
tp53
a(S'no_nl'
I1
tp54
a(S'no_np'
I15
tp55
a(S'w'
I2202
tp56
a(S'no_nl'
I0
tp57
a(S'no_np'
I7
tp58
a(S'w'
I732
tp59
a(S'no_vo'
I7
tp60
a(S'w'
I1
tp61
a(S'no_np'
I10
tp62
a(S'w'
I1467
tp63
a(S'no_vo'
I11
tp64
a(S'w'
I1
tp65
a(S'no_np'
I14
tp66
a(S'w'
I1466
tp67
a(S'no_vo'
I15
tp68
a(S'w'
I2
tp69
a(S'no_np'
I5
tp70
a(S'w'
I1483
tp71
a(S'no_vo'
I14
tp72
a(S'w'
I1
tp73
a(S'no_np'
I8
tp74
a(S'w'
I2917
tp75
a(S'no_vo'
I12
tp76
a(S'w'
I1
tp77
a(S'no_np'
I7
tp78
a(S'w'
I3668
tp79
a(S'no_vo'
I15
tp80
a(S'w'
I1
tp81
a(S'no_np'
I6
tp82
a(S'w'
I2201
tp83
a(S'no_vo'
I12
tp84
a(S'w'
I1
tp85
a(S'no_np'
I7
tp86
a(S'w'
I3668
tp87
a(S'no_vo'
I10
tp88
a(S'w'
I1
tp89
a(S'no_np'
I6
tp90
a(S'w'
I2200
tp91
a(S'no_vo'
I7
tp92
a(S'w'
I1
tp93
a(S'no_np'
I5
tp94
a(S'w'
I2200
tp95
a(S'no_vo'
I11
tp96
a(S'w'
I2
tp97
a(S'no_np'
I6
tp98
a(S'w'
I1466
tp99
a(S'no_vo'
I15
tp100
a(S'w'
I1
tp101
a(S'no_np'
I5
tp102
a(S'w'
I2200
tp103
a(S'no_vo'
I6
tp104
a(S'w'
I2
tp105
a(S'no_np'
I4
tp106
a(S'w'
I2200
tp107
a(S'no_vo'
I9
tp108
a(S'w'
I1
tp109
a(S'no_np'
I5
tp110
a(S'w'
I2200
tp111
a(S'no_vo'
I7
tp112
a(S'w'
I1
tp113
a(S'no_np'
I4
tp114
a(S'w'
I1467
tp115
a(S'no_vo'
I5
tp116
a(S'w'
I1
tp117
a(S'no_np'
I3
tp118
a(S'w'
I2200
tp119
a(S'no_vo'
I7
tp120
a(S'w'
I1
tp121
a(S'no_np'
I4
tp122
a(S'w'
I1467
tp123
a(S'no_vo'
I10
tp124
a(S'w'
I1
tp125
a(S'no_np'
I3
tp126
a(S'w'
I2200
tp127
a(S'no_vo'
I4
tp128
a(S'w'
I1
tp129
a(S'no_np'
I2
tp130
a(S'w'
I4402
tp131
a(S'no_vo'
I1
tp132
a(S'w'
I8072
tp133
a(S'no_vo'
I0
tp134
a(S'w'
I736
tp135
a(S'tr_lr'
I0
tp136
a(S'w'
I11012
tp137
a(S'no_vo'
I8
tp138
a(S'w'
I2
tp139
a(S'no_np'
I15
tp140
a(S'w'
I1
tp141
a(S'no_ll'
I0
tp142
a(S'w'
I725
tp143
a(S'no_np'
I14
tp144
a(S'w'
I736
tp145
a(S'no_vo'
I0
tp146
a(S'w'
I738
tp147
a(S'no_vo'
I8
tp148
a(S'w'
I1
tp149
a(S'no_np'
I15
tp150
a(S'w'
I1
tp151
a(S'no_ll'
I0
tp152
a(S'w'
I725
tp153
a(S'no_np'
I14
tp154
a(S'w'
I736
tp155
a(S'no_vo'
I0
tp156
a(S'w'
I738
tp157
a(S'no_vo'
I8
tp158
a(S'w'
I1
tp159
a(S'no_np'
I15
tp160
a(S'w'
I2
tp161
a(S'no_ll'
I0
tp162
a(S'w'
I724
tp163
a(S'no_np'
I14
tp164
a(S'w'
I737
tp165
a(S'no_vo'
I0
tp166
a(S'w'
I738
tp167
a(S'no_vo'
I8
tp168
a(S'w'
I1
tp169
a(S'no_np'
I15
tp170
a(S'w'
I1
tp171
a(S'no_ll'
I0
tp172
a(S'w'
I725
tp173
a(S'no_np'
I14
tp174
a(S'w'
I736
tp175
a(S'no_vo'
I0
tp176
a(S'w'
I738
tp177
a(S'no_vo'
I8
tp178
a(S'w'
I1
tp179
a(S'no_np'
I15
tp180
a(S'w'
I1
tp181
a(S'no_ll'
I0
tp182
a(S'w'
I725
tp183
a(S'no_np'
I14
tp184
a(S'w'
I736
tp185
a(S'no_vo'
I0
tp186
a(S'w'
I738
tp187
a(S'no_vo'
I8
tp188
a(S'w'
I2
tp189
a(S'no_np'
I15
tp190
a(S'w'
I1
tp191
a(S'no_ll'
I0
tp192
a(S'w'
I725
tp193
a(S'no_np'
I14
tp194
a(S'w'
I736
tp195
a(S'no_vo'
I0
tp196
a(S'w'
I738
tp197
a(S'no_vo'
I8
tp198
a(S'w'
I1
tp199
a(S'no_np'
I15
tp200
a(S'w'
I1
tp201
a(S'no_ll'
I0
tp202
a(S'w'
I725
tp203
a(S'no_np'
I14
tp204
a(S'w'
I736
tp205
a(S'no_vo'
I0
tp206
a(S'w'
I738
tp207
a(S'no_vo'
I8
tp208
a(S'w'
I1
tp209
a(S'no_np'
I15
tp210
a(S'w'
I2
tp211
a(S'no_ll'
I0
tp212
a(S'w'
I725
tp213
a(S'no_np'
I14
tp214
a(S'w'
I736
tp215
a(S'no_vo'
I0
tp216
a(S'w'
I738
tp217
a(S'no_vo'
I8
tp218
a(S'w'
I1
tp219
a(S'no_np'
I15
tp220
a(S'w'
I1
tp221
a(S'no_ll'
I0
tp222
a(S'w'
I725
tp223
a(S'no_np'
I14
tp224
a(S'w'
I736
tp225
a(S'no_vo'
I0
tp226
a(S'w'
I738
tp227
a(S'no_vo'
I8
tp228
a(S'w'
I1
tp229
a(S'no_np'
I15
tp230
a(S'w'
I1
tp231
a(S'no_ll'
I0
tp232
a(S'w'
I725
tp233
a(S'no_np'
I14
tp234
a(S'w'
I736
tp235
a(S'no_vo'
I0
tp236
a(S'w'
I738
tp237
a(S'no_vo'
I8
tp238
a(S'w'
I2
tp239
a(S'no_np'
I15
tp240
a(S'w'
I1
tp241
a(S'no_ll'
I0
tp242
a(S'w'
I725
tp243
a(S'no_np'
I14
tp244
a(S'w'
I736
tp245
a(S'no_vo'
I0
tp246
a(S'w'
I738
tp247
a(S'no_vo'
I8
tp248
a(S'w'
I1
tp249
a(S'no_np'
I15
tp250
a(S'w'
I1
tp251
a(S'no_ll'
I0
tp252
a(S'w'
I725
tp253
a(S'no_np'
I14
tp254
a(S'w'
I736
tp255
a(S'no_vo'
I0
tp256
a(S'w'
I738
tp257
a(S'no_vo'
I8
tp258
a(S'w'
I1
tp259
a(S'no_np'
I15
tp260
a(S'w'
I2
tp261
a(S'no_ll'
I0
tp262
a(S'w'
I725
tp263
a(S'no_np'
I14
tp264
a(S'w'
I736
tp265
a(S'no_vo'
I0
tp266
a(S'w'
I738
tp267
a(S'no_vo'
I8
tp268
a(S'w'
I1
tp269
a(S'no_np'
I15
tp270
a(S'w'
I1
tp271
a(S'no_ll'
I0
tp272
a(S'w'
I725
tp273
a(S'no_np'
I14
tp274
a(S'w'
I736
tp275
a(S'no_vo'
I0
tp276
a(S'w'
I738
tp277
a(S'no_vo'
I8
tp278
a(S'w'
I1
tp279
a(S'no_np'
I15
tp280
a(S'w'
I1
tp281
a(S'no_ll'
I0
tp282
a(S'w'
I725
tp283
a(S'no_np'
I14
tp284
a(S'w'
I737
tp285
a(S'no_vo'
I0
tp286
a(S'w'
I737
tp287
a(S'no_vo'
I8
tp288
a(S'w'
I2
tp289
a(S'no_np'
I15
tp290
a(S'w'
I1
tp291
a(S'no_ll'
I0
tp292
a(S'w'
I725
tp293
a(S'no_np'
I14
tp294
a(S'w'
I736
tp295
a(S'no_vo'
I0
tp296
a(S'w'
I738
tp297
a(S'no_vo'
I8
tp298
a(S'w'
I1
tp299
a(S'no_np'
I15
tp300
a(S'w'
I1
tp301
a(S'no_ll'
I0
tp302
a(S'w'
I725
tp303
a(S'no_np'
I14
tp304
a(S'w'
I736
tp305
a(S'no_vo'
I0
tp306
a(S'w'
I738
tp307
a(S'no_vo'
I8
tp308
a(S'w'
I2
tp309
a(S'no_np'
I15
tp310
a(S'w'
I1
tp311
a(S'no_ll'
I0
tp312
a(S'w'
I725
tp313
a(S'no_np'
I14
tp314
a(S'w'
I736
tp315
a(S'no_vo'
I0
tp316
a(S'w'
I738
tp317
a(S'no_vo'
I8
tp318
a(S'w'
I1
tp319
a(S'no_np'
I15
tp320
a(S'w'
I1
tp321
a(S'no_ll'
I0
tp322
a(S'w'
I725
tp323
a(S'no_np'
I14
tp324
a(S'w'
I736
tp325
a(S'no_vo'
I0
tp326
a(S'w'
I738
tp327
a(S'no_vo'
I8
tp328
a(S'w'
I1
tp329
a(S'no_np'
I15
tp330
a(S'w'
I1
tp331
a(S'no_ll'
I0
tp332
a(S'w'
I725
tp333
a(S'no_np'
I14
tp334
a(S'w'
I737
tp335
a(S'no_vo'
I0
tp336
a(S'w'
I746
tp337
a(S'no_vo'
I8
tp338
a(S'w'
I1
tp339
a(S'no_np'
I15
tp340
a(S'w'
I1
tp341
a(S'no_ll'
I0
tp342
a(S'w'
I717
tp343
a(S'no_np'
I14
tp344
a(S'w'
I736
tp345
a(S'no_vo'
I0
tp346
a(S'w'
I738
tp347
a(S'no_vo'
I8
tp348
a(S'w'
I1
tp349
a(S'no_np'
I15
tp350
a(S'w'
I1
tp351
a(S'no_ll'
I0
tp352
a(S'w'
I725
tp353
a(S'no_np'
I14
tp354
a(S'w'
I736
tp355
a(S'no_vo'
I0
tp356
a(S'w'
I738
tp357
a(S'no_vo'
I8
tp358
a(S'w'
I2
tp359
a(S'no_np'
I15
tp360
a(S'w'
I1
tp361
a(S'no_ll'
I0
tp362
a(S'w'
I725
tp363
a(S'no_np'
I14
tp364
a(S'w'
I744
tp365
a(S'no_vo'
I0
tp366
a(S'w'
I730
tp367
a(S'no_vo'
I8
tp368
a(S'w'
I1
tp369
a(S'no_np'
I15
tp370
a(S'w'
I1
tp371
a(S'no_ll'
I0
tp372
a(S'w'
I725
tp373
a(S'no_np'
I14
tp374
a(S'w'
I736
tp375
a(S'no_vo'
I0
tp376
a(S'w'
I738
tp377
a(S'no_vo'
I8
tp378
a(S'w'
I1
tp379
a(S'no_np'
I15
tp380
a(S'w'
I2
tp381
a(S'no_ll'
I0
tp382
a(S'w'
I724
tp383
a(S'no_np'
I14
tp384
a(S'w'
I737
tp385
a(S'no_vo'
I0
tp386
a(S'w'
I738
tp387
a(S'no_vo'
I8
tp388
a(S'w'
I1
tp389
a(S'no_np'
I15
tp390
a(S'w'
I1
tp391
a(S'no_ll'
I0
tp392
a(S'w'
I733
tp393
a(S'no_np'
I14
tp394
a(S'w'
I728
tp395
a(S'no_vo'
I0
tp396
a(S'w'
I738
tp397
a(S'no_vo'
I8
tp398
a(S'w'
I1
tp399
a(S'no_np'
I15
tp400
a(S'w'
I1
tp401
a(S'no_ll'
I0
tp402
a(S'w'
I725
tp403
a(S'no_np'
I14
tp404
a(S'w'
I736
tp405
a(S'no_vo'
I0
tp406
a(S'w'
I738
tp407
a(S'no_vo'
I8
tp408
a(S'w'
I2
tp409
a(S'no_np'
I15
tp410
a(S'w'
I1
tp411
a(S'no_ll'
I0
tp412
a(S'w'
I725
tp413
a(S'no_np'
I14
tp414
a(S'w'
I736
tp415
a(S'no_vo'
I0
tp416
a(S'w'
I746
tp417
a(S'no_vo'
I8
tp418
a(S'w'
I1
tp419
a(S'no_np'
I15
tp420
a(S'w'
I2
tp421
a(S'no_ll'
I0
tp422
a(S'w'
I716
tp423
a(S'no_np'
I14
tp424
a(S'w'
I736
tp425
a(S'no_vo'
I0
tp426
a(S'w'
I738
tp427
a(S'no_vo'
I8
tp428
a(S'w'
I1
tp429
a(S'no_np'
I15
tp430
a(S'w'
I2
tp431
a(S'no_ll'
I0
tp432
a(S'w'
I724
tp433
a(S'no_np'
I14
tp434
a(S'w'
I737
tp435
a(S'no_vo'
I0
tp436
a(S'w'
I738
tp437
a(S'no_vo'
I8
tp438
a(S'w'
I1
tp439
a(S'no_np'
I15
tp440
a(S'w'
I1
tp441
a(S'no_ll'
I0
tp442
a(S'w'
I725
tp443
a(S'no_np'
I14
tp444
a(S'w'
I736
tp445
a(S'no_vo'
I0
tp446
a(S'w'
I738
tp447
a(S'no_vo'
I8
tp448
a(S'w'
I1
tp449
a(S'no_np'
I15
tp450
a(S'w'
I1
tp451
a(S'no_ll'
I0
tp452
a(S'w'
I725
tp453
a(S'no_np'
I14
tp454
a(S'w'
I736
tp455
a(S'no_vo'
I0
tp456
a(S'w'
I738
tp457
a(S'no_vo'
I8
tp458
a(S'w'
I2
tp459
a(S'no_np'
I15
tp460
a(S'w'
I1
tp461
a(S'no_ll'
I0
tp462
a(S'w'
I725
tp463
a(S'no_np'
I14
tp464
a(S'w'
I736
tp465
a(S'no_vo'
I0
tp466
a(S'w'
I738
tp467
a(S'no_vo'
I8
tp468
a(S'w'
I1
tp469
a(S'no_np'
I15
tp470
a(S'w'
I1
tp471
a(S'no_ll'
I0
tp472
a(S'w'
I725
tp473
a(S'no_np'
I14
tp474
a(S'w'
I736
tp475
a(S'no_vo'
I0
tp476
a(S'w'
I738
tp477
a(S'no_vo'
I8
tp478
a(S'w'
I1
tp479
a(S'no_np'
I15
tp480
a(S'w'
I2
tp481
a(S'no_ll'
I0
tp482
a(S'w'
I724
tp483
a(S'no_np'
I14
tp484
a(S'w'
I737
tp485
a(S'no_vo'
I0
tp486
a(S'w'
I738
tp487
a(S'no_vo'
I8
tp488
a(S'w'
I1
tp489
a(S'no_np'
I15
tp490
a(S'w'
I1
tp491
a(S'no_ll'
I0
tp492
a(S'w'
I725
tp493
a(S'no_np'
I14
tp494
a(S'w'
I736
tp495
a(S'no_vo'
I0
tp496
a(S'w'
I738
tp497
a(S'no_vo'
I8
tp498
a(S'w'
I1
tp499
a(S'no_np'
I15
tp500
a(S'w'
I1
tp501
a(S'no_ll'
I0
tp502
a(S'w'
I725
tp503
a(S'no_np'
I14
tp504
a(S'w'
I736
tp505
a(S'no_vo'
I0
tp506
a(S'w'
I738
tp507
a(S'no_vo'
I8
tp508
a(S'w'
I2
tp509
a(S'no_np'
I15
tp510
a(S'w'
I1
tp511
a(S'no_ll'
I0
tp512
a(S'w'
I725
tp513
a(S'no_np'
I14
tp514
a(S'w'
I736
tp515
a(S'no_vo'
I0
tp516
a(S'w'
I738
tp517
a(S'no_vo'
I8
tp518
a(S'w'
I1
tp519
a(S'no_np'
I15
tp520
a(S'w'
I1
tp521
a(S'no_ll'
I0
tp522
a(S'w'
I725
tp523
a(S'no_np'
I14
tp524
a(S'w'
I736
tp525
a(S'no_vo'
I0
tp526
a(S'w'
I738
tp527
a(S'no_vo'
I8
tp528
a(S'w'
I1
tp529
a(S'no_np'
I15
tp530
a(S'w'
I2
tp531
a(S'no_ll'
I0
tp532
a(S'w'
I724
tp533
a(S'no_np'
I14
tp534
a(S'w'
I737
tp535
a(S'no_vo'
I0
tp536
a(S'w'
I738
tp537
a(S'no_vo'
I8
tp538
a(S'w'
I1
tp539
a(S'no_np'
I15
tp540
a(S'w'
I1
tp541
a(S'no_ll'
I0
tp542
a(S'w'
I725
tp543
a(S'no_np'
I14
tp544
a(S'w'
I736
tp545
a(S'no_vo'
I0
tp546
a(S'w'
I738
tp547
a(S'no_vo'
I8
tp548
a(S'w'
I1
tp549
a(S'no_np'
I15
tp550
a(S'w'
I1
tp551
a(S'no_ll'
I0
tp552
a(S'w'
I725
tp553
a(S'no_np'
I14
tp554
a(S'w'
I736
tp555
a(S'no_vo'
I0
tp556
a(S'w'
I738
tp557
a(S'no_vo'
I8
tp558
a(S'w'
I2
tp559
a(S'no_np'
I15
tp560
a(S'w'
I1
tp561
a(S'no_ll'
I0
tp562
a(S'w'
I725
tp563
a(S'no_np'
I14
tp564
a(S'w'
I736
tp565
a(S'no_vo'
I0
tp566
a(S'w'
I738
tp567
a(S'no_vo'
I8
tp568
a(S'w'
I1
tp569
a(S'no_np'
I15
tp570
a(S'w'
I1
tp571
a(S'no_ll'
I0
tp572
a(S'w'
I725
tp573
a(S'no_np'
I14
tp574
a(S'w'
I736
tp575
a(S'no_vo'
I0
tp576
a(S'w'
I738
tp577
a(S'no_vo'
I8
tp578
a(S'w'
I1
tp579
a(S'no_np'
I15
tp580
a(S'w'
I2
tp581
a(S'no_ll'
I0
tp582
a(S'w'
I724
tp583
a(S'no_np'
I14
tp584
a(S'w'
I737
tp585
a(S'no_vo'
I0
tp586
a(S'w'
I738
tp587
a(S'no_vo'
I8
tp588
a(S'w'
I1
tp589
a(S'no_np'
I15
tp590
a(S'w'
I1
tp591
a(S'no_ll'
I0
tp592
a(S'w'
I725
tp593
a(S'no_np'
I14
tp594
a(S'w'
I736
tp595
a(S'no_vo'
I0
tp596
a(S'w'
I738
tp597
a(S'no_vo'
I8
tp598
a(S'w'
I1
tp599
a(S'no_np'
I15
tp600
a(S'w'
I1
tp601
a(S'no_ll'
I0
tp602
a(S'w'
I725
tp603
a(S'no_np'
I14
tp604
a(S'w'
I736
tp605
a(S'no_vo'
I0
tp606
a(S'w'
I738
tp607
a(S'no_vo'
I8
tp608
a(S'w'
I2
tp609
a(S'no_np'
I15
tp610
a(S'w'
I1
tp611
a(S'no_ll'
I0
tp612
a(S'w'
I725
tp613
a(S'no_np'
I14
tp614
a(S'w'
I736
tp615
a(S'no_vo'
I0
tp616
a(S'w'
I738
tp617
a(S'no_vo'
I8
tp618
a(S'w'
I1
tp619
a(S'no_np'
I15
tp620
a(S'w'
I1
tp621
a(S'no_ll'
I0
tp622
a(S'w'
I725
tp623
a(S'no_np'
I14
tp624
a(S'w'
I736
tp625
a(S'no_vo'
I0
tp626
a(S'w'
I738
tp627
a(S'no_vo'
I8
tp628
a(S'w'
I1
tp629
a(S'no_np'
I15
tp630
a(S'w'
I2
tp631
a(S'no_ll'
I0
tp632
a(S'w'
I725
tp633
a(S'no_np'
I14
tp634
a(S'w'
I736
tp635
a(S'no_vo'
I0
tp636
a(S'w'
I738
tp637
a(S'no_vo'
I8
tp638
a(S'w'
I1
tp639
a(S'no_np'
I15
tp640
a(S'w'
I1
tp641
a(S'no_ll'
I0
tp642
a(S'w'
I725
tp643
a(S'no_np'
I14
tp644
a(S'w'
I736
tp645
a(S'no_vo'
I0
tp646
a(S'w'
I738
tp647
a(S'no_vo'
I8
tp648
a(S'w'
I1
tp649
a(S'no_np'
I15
tp650
a(S'w'
I1
tp651
a(S'no_ll'
I0
tp652
a(S'w'
I725
tp653
a(S'no_np'
I14
tp654
a(S'w'
I736
tp655
a(S'no_vo'
I0
tp656
a(S'w'
I738
tp657
a(S'no_vo'
I8
tp658
a(S'w'
I2
tp659
a(S'no_np'
I15
tp660
a(S'w'
I1
tp661
a(S'no_ll'
I0
tp662
a(S'w'
I725
tp663
a(S'no_np'
I14
tp664
a(S'w'
I736
tp665
a(S'no_vo'
I0
tp666
a(S'w'
I738
tp667
a(S'no_vo'
I8
tp668
a(S'w'
I1
tp669
a(S'no_np'
I15
tp670
a(S'w'
I1
tp671
a(S'no_ll'
I0
tp672
a(S'w'
I725
tp673
a(S'no_np'
I14
tp674
a(S'w'
I736
tp675
a(S'no_vo'
I0
tp676
a(S'w'
I738
tp677
a(S'no_vo'
I8
tp678
a(S'w'
I1
tp679
a(S'no_np'
I15
tp680
a(S'w'
I2
tp681
a(S'no_ll'
I0
tp682
a(S'w'
I725
tp683
a(S'no_np'
I14
tp684
a(S'w'
I736
tp685
a(S'no_vo'
I0
tp686
a(S'w'
I738
tp687
a(S'no_vo'
I8
tp688
a(S'w'
I1
tp689
a(S'no_np'
I15
tp690
a(S'w'
I1
tp691
a(S'no_ll'
I0
tp692
a(S'w'
I725
tp693
a(S'no_np'
I14
tp694
a(S'w'
I736
tp695
a(S'no_vo'
I0
tp696
a(S'w'
I738
tp697
a(S'no_vo'
I8
tp698
a(S'w'
I1
tp699
a(S'no_np'
I15
tp700
a(S'w'
I1
tp701
a(S'no_ll'
I0
tp702
a(S'w'
I725
tp703
a(S'no_np'
I14
tp704
a(S'w'
I736
tp705
a(S'no_vo'
I0
tp706
a(S'w'
I739
tp707
a(S'no_vo'
I8
tp708
a(S'w'
I1
tp709
a(S'no_np'
I15
tp710
a(S'w'
I1
tp711
a(S'no_ll'
I0
tp712
a(S'w'
I725
tp713
a(S'no_np'
I14
tp714
a(S'w'
I736
tp715
a(S'no_vo'
I0
tp716
a(S'w'
I738
tp717
a(S'no_vo'
I8
tp718
a(S'w'
I1
tp719
a(S'no_np'
I15
tp720
a(S'w'
I1
tp721
a(S'no_ll'
I0
tp722
a(S'w'
I725
tp723
a(S'no_np'
I14
tp724
a(S'w'
I736
tp725
a(S'no_vo'
I0
tp726
a(S'w'
I738
tp727
a(S'no_vo'
I8
tp728
a(S'w'
I1
tp729
a(S'no_np'
I15
tp730
a(S'w'
I2
tp731
a(S'no_ll'
I0
tp732
a(S'w'
I725
tp733
a(S'no_np'
I14
tp734
a(S'w'
I736
tp735
a(S'no_vo'
I0
tp736
a(S'w'
I738
tp737
a(S'no_vo'
I8
tp738
a(S'w'
I1
tp739
a(S'no_np'
I15
tp740
a(S'w'
I1
tp741
a(S'no_ll'
I0
tp742
a(S'w'
I725
tp743
a(S'no_np'
I14
tp744
a(S'w'
I736
tp745
a(S'no_vo'
I0
tp746
a(S'w'
I738
tp747
a(S'no_vo'
I8
tp748
a(S'w'
I1
tp749
a(S'no_np'
I15
tp750
a(S'w'
I1
tp751
a(S'no_ll'
I0
tp752
a(S'w'
I725
tp753
a(S'no_np'
I14
tp754
a(S'w'
I737
tp755
a(S'no_vo'
I0
tp756
a(S'w'
I738
tp757
a(S'no_vo'
I8
tp758
a(S'w'
I1
tp759
a(S'no_np'
I15
tp760
a(S'w'
I1
tp761
a(S'no_ll'
I0
tp762
a(S'w'
I725
tp763
a(S'no_np'
I14
tp764
a(S'w'
I736
tp765
a(S'no_vo'
I0
tp766
a(S'w'
I738
tp767
a(S'no_vo'
I8
tp768
a(S'w'
I1
tp769
a(S'no_np'
I15
tp770
a(S'w'
I1
tp771
a(S'no_ll'
I0
tp772
a(S'w'
I725
tp773
a(S'no_np'
I14
tp774
a(S'w'
I736
tp775
a(S'no_vo'
I0
tp776
a(S'w'
I738
tp777
a(S'no_vo'
I8
tp778
a(S'w'
I2
tp779
a(S'no_np'
I15
tp780
a(S'w'
I1
tp781
a(S'no_ll'
I0
tp782
a(S'w'
I725
tp783
a(S'no_np'
I14
tp784
a(S'w'
I736
tp785
a(S'no_vo'
I0
tp786
a(S'w'
I738
tp787
a(S'no_vo'
I8
tp788
a(S'w'
I1
tp789
a(S'no_np'
I15
tp790
a(S'w'
I1
tp791
a(S'no_ll'
I0
tp792
a(S'w'
I725
tp793
a(S'no_np'
I14
tp794
a(S'w'
I736
tp795
a(S'no_vo'
I0
tp796
a(S'w'
I738
tp797
a(S'no_vo'
I8
tp798
a(S'w'
I1
tp799
a(S'no_np'
I15
tp800
a(S'w'
I2
tp801
a(S'no_ll'
I0
tp802
a(S'w'
I724
tp803
a(S'no_np'
I14
tp804
a(S'w'
I737
tp805
a(S'no_vo'
I0
tp806
a(S'w'
I738
tp807
a(S'no_vo'
I8
tp808
a(S'w'
I1
tp809
a(S'no_np'
I15
tp810
a(S'w'
I1
tp811
a(S'no_ll'
I0
tp812
a(S'w'
I725
tp813
a(S'no_np'
I14
tp814
a(S'w'
I736
tp815
a(S'no_vo'
I0
tp816
a(S'w'
I738
tp817
a(S'no_vo'
I8
tp818
a(S'w'
I1
tp819
a(S'no_np'
I15
tp820
a(S'w'
I1
tp821
a(S'no_ll'
I0
tp822
a(S'w'
I725
tp823
a(S'no_np'
I14
tp824
a(S'w'
I736
tp825
a(S'no_vo'
I0
tp826
a(S'w'
I738
tp827
a(S'no_vo'
I8
tp828
a(S'w'
I2
tp829
a(S'no_np'
I15
tp830
a(S'w'
I1
tp831
a(S'no_ll'
I0
tp832
a(S'w'
I725
tp833
a(S'no_np'
I14
tp834
a(S'w'
I736
tp835
a(S'no_vo'
I0
tp836
a(S'w'
I738
tp837
a(S'no_vo'
I8
tp838
a(S'w'
I1
tp839
a(S'no_np'
I15
tp840
a(S'w'
I1
tp841
a(S'no_ll'
I0
tp842
a(S'w'
I725
tp843
a(S'no_np'
I14
tp844
a(S'w'
I736
tp845
a(S'no_vo'
I0
tp846
a(S'w'
I738
tp847
a(S'no_vo'
I8
tp848
a(S'w'
I1
tp849
a(S'no_np'
I15
tp850
a(S'w'
I2
tp851
a(S'no_ll'
I0
tp852
a(S'w'
I724
tp853
a(S'no_np'
I14
tp854
a(S'w'
I737
tp855
a(S'no_vo'
I0
tp856
a(S'w'
I738
tp857
a(S'no_vo'
I8
tp858
a(S'w'
I1
tp859
a(S'no_np'
I15
tp860
a(S'w'
I1
tp861
a(S'no_ll'
I0
tp862
a(S'w'
I725
tp863
a(S'no_np'
I14
tp864
a(S'w'
I736
tp865
a(S'no_vo'
I0
tp866
a(S'w'
I738
tp867
a(S'no_vo'
I8
tp868
a(S'w'
I1
tp869
a(S'no_np'
I15
tp870
a(S'w'
I1
tp871
a(S'no_ll'
I0
tp872
a(S'w'
I725
tp873
a(S'no_np'
I14
tp874
a(S'w'
I736
tp875
a(S'no_vo'
I0
tp876
a(S'w'
I738
tp877
a(S'no_vo'
I8
tp878
a(S'w'
I2
tp879
a(S'no_np'
I15
tp880
a(S'w'
I1
tp881
a(S'no_ll'
I0
tp882
a(S'w'
I725
tp883
a(S'no_np'
I14
tp884
a(S'w'
I736
tp885
a(S'no_vo'
I0
tp886
a(S'w'
I738
tp887
a(S'no_vo'
I8
tp888
a(S'w'
I1
tp889
a(S'no_np'
I15
tp890
a(S'w'
I1
tp891
a(S'no_ll'
I0
tp892
a(S'w'
I725
tp893
a(S'no_np'
I14
tp894
a(S'w'
I736
tp895
a(S'no_vo'
I0
tp896
a(S'w'
I738
tp897
a(S'no_vo'
I8
tp898
a(S'w'
I1
tp899
a(S'no_np'
I15
tp900
a(S'w'
I2
tp901
a(S'no_ll'
I0
tp902
a(S'w'
I724
tp903
a(S'no_np'
I14
tp904
a(S'w'
I737
tp905
a(S'no_vo'
I0
tp906
a(S'w'
I738
tp907
a(S'no_vo'
I8
tp908
a(S'w'
I1
tp909
a(S'no_np'
I15
tp910
a(S'w'
I1
tp911
a(S'no_ll'
I0
tp912
a(S'w'
I725
tp913
a(S'no_np'
I14
tp914
a(S'w'
I736
tp915
a(S'no_vo'
I0
tp916
a(S'w'
I738
tp917
a(S'no_vo'
I8
tp918
a(S'w'
I1
tp919
a(S'no_np'
I15
tp920
a(S'w'
I1
tp921
a(S'no_ll'
I0
tp922
a(S'w'
I725
tp923
a(S'no_np'
I14
tp924
a(S'w'
I736
tp925
a(S'no_vo'
I0
tp926
a(S'w'
I738
tp927
a(S'no_vo'
I8
tp928
a(S'w'
I2
tp929
a(S'no_np'
I15
tp930
a(S'w'
I1
tp931
a(S'no_ll'
I0
tp932
a(S'w'
I725
tp933
a(S'no_np'
I14
tp934
a(S'w'
I736
tp935
a(S'no_vo'
I0
tp936
a(S'w'
I738
tp937
a(S'no_vo'
I8
tp938
a(S'w'
I1
tp939
a(S'no_np'
I15
tp940
a(S'w'
I1
tp941
a(S'no_ll'
I0
tp942
a(S'w'
I725
tp943
a(S'no_np'
I14
tp944
a(S'w'
I736
tp945
a(S'no_vo'
I0
tp946
a(S'w'
I738
tp947
a(S'no_vo'
I8
tp948
a(S'w'
I1
tp949
a(S'no_np'
I15
tp950
a(S'w'
I2
tp951
a(S'no_ll'
I0
tp952
a(S'w'
I724
tp953
a(S'no_np'
I14
tp954
a(S'w'
I737
tp955
a(S'no_vo'
I0
tp956
a(S'w'
I738
tp957
a(S'no_vo'
I8
tp958
a(S'w'
I1
tp959
a(S'no_np'
I15
tp960
a(S'w'
I1
tp961
a(S'no_ll'
I0
tp962
a(S'w'
I725
tp963
a(S'no_np'
I14
tp964
a(S'w'
I736
tp965
a(S'no_vo'
I0
tp966
a(S'w'
I738
tp967
a(S'no_vo'
I8
tp968
a(S'w'
I1
tp969
a(S'no_np'
I15
tp970
a(S'w'
I1
tp971
a(S'no_ll'
I0
tp972
a(S'w'
I725
tp973
a(S'no_np'
I14
tp974
a(S'w'
I736
tp975
a(S'no_vo'
I0
tp976
a(S'w'
I738
tp977
a(S'no_vo'
I8
tp978
a(S'w'
I2
tp979
a(S'no_np'
I15
tp980
a(S'w'
I1
tp981
a(S'no_ll'
I0
tp982
a(S'w'
I725
tp983
a(S'no_np'
I14
tp984
a(S'w'
I736
tp985
a(S'no_vo'
I0
tp986
a(S'w'
I738
tp987
a(S'no_vo'
I8
tp988
a(S'w'
I1
tp989
a(S'no_np'
I15
tp990
a(S'w'
I1
tp991
a(S'no_ll'
I0
tp992
a(S'w'
I725
tp993
a(S'no_np'
I14
tp994
a(S'w'
I736
tp995
a(S'no_vo'
I0
tp996
a(S'w'
I738
tp997
a(S'no_vo'
I8
tp998
a(S'w'
I1
tp999
a(S'no_np'
I15
tp1000
a(S'w'
I2
tp1001
a(S'no_ll'
I0
tp1002
a(S'w'
I724
tp1003
a(S'no_np'
I14
tp1004
a(S'w'
I737
tp1005
a(S'no_vo'
I0
tp1006
a(S'w'
I738
tp1007
a(S'no_vo'
I8
tp1008
a(S'w'
I1
tp1009
a(S'no_np'
I15
tp1010
a(S'w'
I1
tp1011
a(S'no_ll'
I0
tp1012
a(S'w'
I725
tp1013
a(S'no_np'
I14
tp1014
a(S'w'
I736
tp1015
a(S'no_vo'
I0
tp1016
a(S'w'
I1
tp1017
a.