(lp1
(S'clock'
p2
I1789772
tp3
a(S'ch_no'
I1
tp4
a(S'ch_tr'
I1
tp5
a(S'ch_p2'
I1
tp6
a(S'ch_p1'
I1
tp7
a(S'fc_mo'
I1
tp8
a(S'w'
I92
tp9
a(S'p1_cv'
I1
tp10
a(S'w'
I1
tp11
a(S'p2_cv'
I1
tp12
a(S'w'
I1
tp13
a(S'w'
I423
tp14
a(S'p1_cv'
I0
tp15
a(S'p1_vo'
I15
tp16
a(S'w'
I1
tp17
a(S'p1_sp'
I7
tp18
a(S'p1_sn'
I1
tp19
a(S'p1_ss'
I7
tp20
a(S'p1_tl'
I46
tp21
a(S'w'
I1
tp22
a(S'p1_ll'
I6
tp23
a(S'p1_th'
I1
tp24
a(S'w'
I3
tp25
a(S'p2_du'
I2
tp26
a(S'p2_cv'
I0
tp27
a(S'p2_vo'
I15
tp28
a(S'w'
I1
tp29
a(S'p2_sp'
I7
tp30
a(S'p2_sn'
I1
tp31
a(S'p2_ss'
I7
tp32
a(S'p2_tl'
I103
tp33
a(S'w'
I1
tp34
a(S'p2_ll'
I6
tp35
a(S'p2_th'
I1
tp36
a(S'w'
I3
tp37
a(S'tr_lr'
I48
tp38
a(S'w'
I1
tp39
a(S'tr_tl'
I226
tp40
a(S'tr_ll'
I1
tp41
a(S'w'
I7329
tp42
a(S'p1_tl'
I226
tp43
a(S'p1_ll'
I6
tp44
a(S'p1_th'
I0
tp45
a(S'w'
I4
tp46
a(S'w'
I1
tp47
a(S'p2_ll'
I6
tp48
a(S'w'
I7332
tp49
a(S'p1_tl'
I240
tp50
a(S'w'
I1
tp51
a(S'p1_ll'
I6
tp52
a(S'w'
I4
tp53
a(S'p2_tl'
I144
tp54
a(S'w'
I1
tp55
a(S'p2_ll'
I6
tp56
a(S'w'
I7332
tp57
a(S'p1_tl'
I226
tp58
a(S'w'
I1
tp59
a(S'p1_ll'
I6
tp60
a(S'w'
I4
tp61
a(S'p2_tl'
I103
tp62
a(S'p2_ll'
I6
tp63
a(S'w'
I5
tp64
a(S'tr_tl'
I46
tp65
a(S'tr_ll'
I1
tp66
a(S'tr_th'
I1
tp67
a(S'w'
I22008
tp68
a(S'tr_tl'
I103
tp69
a(S'tr_ll'
I1
tp70
a(S'w'
I14672
tp71
a(S'w'
I1
tp72
a(S'p1_ll'
I6
tp73
a(S'w'
I4
tp74
a(S'w'
I1
tp75
a(S'p2_ll'
I6
tp76
a(S'w'
I7332
tp77
a(S'p1_tl'
I190
tp78
a(S'w'
I1
tp79
a(S'p1_ll'
I16
tp80
a(S'w'
I4
tp81
a(S'p2_tl'
I29
tp82
a(S'w'
I1
tp83
a(S'p2_ll'
I16
tp84
a(S'w'
I3
tp85
a(S'tr_lr'
I20
tp86
a(S'w'
I1
tp87
a(S'tr_tl'
I125
tp88
a(S'tr_ll'
I1
tp89
a(S'w'
I7328
tp90
a(S'w'
I1
tp91
a(S'p1_ll'
I16
tp92
a(S'w'
I4
tp93
a(S'p2_tl'
I226
tp94
a(S'w'
I1
tp95
a(S'p2_ll'
I16
tp96
a(S'p2_th'
I0
tp97
a(S'w'
I4
tp98
a(S'tr_tl'
I197
tp99
a(S'tr_ll'
I1
tp100
a(S'w'
I7328
tp101
a(S'w'
I1
tp102
a(S'p1_ll'
I16
tp103
a(S'w'
I4
tp104
a(S'p2_tl'
I29
tp105
a(S'w'
I1
tp106
a(S'p2_ll'
I16
tp107
a(S'p2_th'
I1
tp108
a(S'w'
I4
tp109
a(S'tr_tl'
I125
tp110
a(S'tr_ll'
I1
tp111
a(S'w'
I7329
tp112
a(S'p1_tl'
I169
tp113
a(S'p1_ll'
I16
tp114
a(S'w'
I4
tp115
a(S'p2_tl'
I254
tp116
a(S'w'
I1
tp117
a(S'p2_ll'
I16
tp118
a(S'p2_th'
I0
tp119
a(S'w'
I4
tp120
a(S'tr_tl'
I83
tp121
a(S'tr_ll'
I1
tp122
a(S'w'
I7332
tp123
a(S'tr_tl'
I197
tp124
a(S'w'
I1
tp125
a(S'tr_ll'
I1
tp126
a(S'w'
I3665
tp127
a(S'p1_ll'
I16
tp128
a(S'w'
I4
tp129
a(S'p2_tl'
I200
tp130
a(S'w'
I1
tp131
a(S'p2_ll'
I16
tp132
a(S'w'
I3664
tp133
a(S'p1_tl'
I142
tp134
a(S'p1_ll'
I16
tp135
a(S'w'
I4
tp136
a(S'p2_tl'
I169
tp137
a(S'w'
I1
tp138
a(S'p2_ll'
I16
tp139
a(S'w'
I4
tp140
a(S'tr_tl'
I83
tp141
a(S'tr_ll'
I1
tp142
a(S'w'
I7329
tp143
a(S'p1_tl'
I151
tp144
a(S'p1_ll'
I16
tp145
a(S'w'
I4
tp146
a(S'p2_tl'
I179
tp147
a(S'w'
I1
tp148
a(S'p2_ll'
I16
tp149
a(S'w'
I4
tp150
a(S'tr_tl'
I46
tp151
a(S'tr_ll'
I1
tp152
a(S'w'
I7332
tp153
a(S'tr_tl'
I197
tp154
a(S'w'
I1
tp155
a(S'tr_ll'
I1
tp156
a(S'w'
I7334
tp157
a(S'p1_ll'
I9
tp158
a(S'w'
I4
tp159
a(S'w'
I1
tp160
a(S'p2_ll'
I9
tp161
a(S'w'
I4
tp162
a(S'tr_tl'
I46
tp163
a(S'tr_ll'
I1
tp164
a(S'w'
I3660
tp165
a(S'p1_ll'
I9
tp166
a(S'w'
I4
tp167
a(S'w'
I1
tp168
a(S'p2_ll'
I9
tp169
a(S'w'
I3664
tp170
a(S'p1_ll'
I22
tp171
a(S'w'
I4
tp172
a(S'w'
I1
tp173
a(S'p2_ll'
I22
tp174
a(S'w'
I4
tp175
a(S'tr_tl'
I197
tp176
a(S'tr_ll'
I1
tp177
a(S'w'
I7332
tp178
a(S'tr_tl'
I46
tp179
a(S'w'
I1
tp180
a(S'tr_ll'
I1
tp181
a(S'w'
I7337
tp182
a(S'tr_tl'
I197
tp183
a(S'w'
I1
tp184
a(S'tr_ll'
I1
tp185
a(S'w'
I7336
tp186
a(S'tr_lr'
I58
tp187
a(S'w'
I1
tp188
a(S'tr_tl'
I46
tp189
a(S'w'
I1
tp190
a(S'tr_ll'
I22
tp191
a(S'w'
I21779
tp192
a.