(lp1
(S'clock'
p2
I1789772
tp3
a(S'ch_no'
I1
tp4
a(S'ch_tr'
I1
tp5
a(S'ch_p2'
I1
tp6
a(S'ch_p1'
I1
tp7
a(S'fc_mo'
I1
tp8
a(S'w'
I92
tp9
a(S'p1_cv'
I1
tp10
a(S'w'
I1
tp11
a(S'p2_cv'
I1
tp12
a(S'w'
I1
tp13
a(S'w'
I439
tp14
a(S'p1_du'
I2
tp15
a(S'p1_cv'
I0
tp16
a(S'p1_vo'
I4
tp17
a(S'p1_sp'
I7
tp18
a(S'p1_sn'
I1
tp19
a(S'p1_ss'
I7
tp20
a(S'w'
I1
tp21
a(S'p1_tl'
I252
tp22
a(S'p1_ll'
I8
tp23
a(S'p1_th'
I1
tp24
a(S'w'
I3
tp25
a(S'tr_lr'
I26
tp26
a(S'w'
I1
tp27
a(S'tr_tl'
I29
tp28
a(S'w'
I1
tp29
a(S'tr_ll'
I1
tp30
a(S'tr_th'
I1
tp31
a(S'w'
I3
tp32
a(S'p2_du'
I2
tp33
a(S'p2_cv'
I0
tp34
a(S'p2_vo'
I4
tp35
a(S'p2_sp'
I7
tp36
a(S'p2_sn'
I1
tp37
a(S'p2_ss'
I7
tp38
a(S'w'
I1
tp39
a(S'p2_tl'
I83
tp40
a(S'w'
I1
tp41
a(S'p2_ll'
I8
tp42
a(S'p2_th'
I1
tp43
a(S'w'
I8795
tp44
a(S'w'
I1
tp45
a(S'p1_ll'
I8
tp46
a(S'w'
I4
tp47
a(S'tr_ll'
I1
tp48
a(S'w'
I4
tp49
a(S'w'
I1
tp50
a(S'p2_ll'
I8
tp51
a(S'w'
I8796
tp52
a(S'p1_ll'
I8
tp53
a(S'w'
I5
tp54
a(S'tr_ll'
I1
tp55
a(S'w'
I4
tp56
a(S'w'
I1
tp57
a(S'p2_ll'
I8
tp58
a(S'w'
I8796
tp59
a(S'p1_ll'
I8
tp60
a(S'w'
I5
tp61
a(S'tr_ll'
I1
tp62
a(S'w'
I4
tp63
a(S'p2_ll'
I8
tp64
a(S'w'
I8796
tp65
a(S'w'
I1
tp66
a(S'p1_ll'
I8
tp67
a(S'w'
I4
tp68
a(S'tr_ll'
I1
tp69
a(S'w'
I4
tp70
a(S'w'
I1
tp71
a(S'p2_ll'
I8
tp72
a(S'w'
I8796
tp73
a(S'p1_ll'
I8
tp74
a(S'w'
I5
tp75
a(S'tr_ll'
I1
tp76
a(S'w'
I4
tp77
a(S'p2_ll'
I8
tp78
a(S'w'
I8796
tp79
a(S'w'
I1
tp80
a(S'p1_ll'
I8
tp81
a(S'w'
I4
tp82
a(S'tr_ll'
I1
tp83
a(S'w'
I5
tp84
a(S'p2_ll'
I8
tp85
a(S'w'
I8796
tp86
a(S'w'
I1
tp87
a(S'p1_ll'
I8
tp88
a(S'w'
I4
tp89
a(S'tr_ll'
I1
tp90
a(S'w'
I4
tp91
a(S'w'
I1
tp92
a(S'p2_ll'
I8
tp93
a(S'w'
I8796
tp94
a(S'p1_tl'
I46
tp95
a(S'p1_ll'
I8
tp96
a(S'w'
I4
tp97
a(S'tr_tl'
I179
tp98
a(S'w'
I1
tp99
a(S'tr_ll'
I1
tp100
a(S'tr_th'
I0
tp101
a(S'w'
I4
tp102
a(S'p2_tl'
I254
tp103
a(S'p2_ll'
I8
tp104
a(S'p2_th'
I0
tp105
a(S'w'
I8796
tp106
a(S'w'
I1
tp107
a(S'p1_ll'
I8
tp108
a(S'w'
I4
tp109
a(S'tr_ll'
I1
tp110
a(S'w'
I4
tp111
a(S'w'
I1
tp112
a(S'p2_ll'
I8
tp113
a(S'w'
I8796
tp114
a(S'p1_ll'
I8
tp115
a(S'w'
I5
tp116
a(S'tr_ll'
I1
tp117
a(S'w'
I4
tp118
a(S'w'
I1
tp119
a(S'p2_ll'
I8
tp120
a(S'w'
I8795
tp121
a(S'w'
I1
tp122
a(S'p1_ll'
I8
tp123
a(S'w'
I5
tp124
a(S'tr_ll'
I1
tp125
a(S'w'
I4
tp126
a(S'p2_ll'
I8
tp127
a(S'w'
I8796
tp128
a(S'p1_ll'
I8
tp129
a(S'w'
I5
tp130
a(S'tr_ll'
I1
tp131
a(S'w'
I4
tp132
a(S'w'
I1
tp133
a(S'p2_ll'
I8
tp134
a(S'w'
I8796
tp135
a(S'p1_ll'
I8
tp136
a(S'w'
I5
tp137
a(S'tr_ll'
I1
tp138
a(S'w'
I4
tp139
a(S'p2_ll'
I8
tp140
a(S'w'
I8796
tp141
a(S'w'
I1
tp142
a(S'p1_ll'
I8
tp143
a(S'w'
I4
tp144
a(S'tr_ll'
I1
tp145
a(S'w'
I5
tp146
a(S'p2_ll'
I8
tp147
a(S'w'
I8796
tp148
a(S'p1_ll'
I8
tp149
a(S'w'
I5
tp150
a(S'tr_ll'
I1
tp151
a(S'w'
I4
tp152
a(S'w'
I1
tp153
a(S'p2_ll'
I8
tp154
a(S'w'
I8795
tp155
a(S'p1_tl'
I64
tp156
a(S'w'
I1
tp157
a(S'p1_ll'
I8
tp158
a(S'w'
I4
tp159
a(S'tr_tl'
I190
tp160
a(S'w'
I1
tp161
a(S'tr_ll'
I1
tp162
a(S'w'
I4
tp163
a(S'p2_tl'
I13
tp164
a(S'p2_ll'
I8
tp165
a(S'p2_th'
I1
tp166
a(S'w'
I8796
tp167
a(S'w'
I1
tp168
a(S'p1_ll'
I8
tp169
a(S'w'
I4
tp170
a(S'tr_ll'
I1
tp171
a(S'w'
I4
tp172
a(S'w'
I1
tp173
a(S'p2_ll'
I8
tp174
a(S'w'
I8796
tp175
a(S'p1_ll'
I8
tp176
a(S'w'
I5
tp177
a(S'tr_ll'
I1
tp178
a(S'w'
I4
tp179
a(S'w'
I1
tp180
a(S'p2_ll'
I8
tp181
a(S'w'
I8795
tp182
a(S'w'
I1
tp183
a(S'p1_ll'
I8
tp184
a(S'w'
I5
tp185
a(S'tr_ll'
I1
tp186
a(S'w'
I4
tp187
a(S'p2_ll'
I8
tp188
a(S'w'
I8796
tp189
a(S'w'
I1
tp190
a(S'p1_ll'
I8
tp191
a(S'w'
I4
tp192
a(S'tr_ll'
I1
tp193
a(S'w'
I4
tp194
a(S'w'
I1
tp195
a(S'p2_ll'
I8
tp196
a(S'w'
I8796
tp197
a(S'p1_ll'
I8
tp198
a(S'w'
I5
tp199
a(S'tr_ll'
I1
tp200
a(S'w'
I4
tp201
a(S'p2_ll'
I8
tp202
a(S'w'
I8796
tp203
a(S'w'
I1
tp204
a(S'p1_ll'
I8
tp205
a(S'w'
I4
tp206
a(S'tr_ll'
I1
tp207
a(S'w'
I5
tp208
a(S'p2_ll'
I8
tp209
a(S'w'
I8796
tp210
a(S'p1_ll'
I8
tp211
a(S'w'
I5
tp212
a(S'tr_ll'
I1
tp213
a(S'w'
I4
tp214
a(S'w'
I1
tp215
a(S'p2_ll'
I8
tp216
a(S'w'
I8795
tp217
a(S'p1_tl'
I254
tp218
a(S'w'
I1
tp219
a(S'p1_ll'
I8
tp220
a(S'p1_th'
I0
tp221
a(S'w'
I4
tp222
a(S'tr_tl'
I160
tp223
a(S'w'
I1
tp224
a(S'tr_ll'
I1
tp225
a(S'w'
I4
tp226
a(S'p2_tl'
I200
tp227
a(S'p2_ll'
I8
tp228
a(S'p2_th'
I0
tp229
a(S'w'
I8796
tp230
a(S'w'
I1
tp231
a(S'p1_ll'
I8
tp232
a(S'w'
I4
tp233
a(S'tr_ll'
I1
tp234
a(S'w'
I4
tp235
a(S'w'
I1
tp236
a(S'p2_ll'
I8
tp237
a(S'w'
I8796
tp238
a(S'p1_ll'
I8
tp239
a(S'w'
I5
tp240
a(S'tr_ll'
I1
tp241
a(S'w'
I4
tp242
a(S'p2_ll'
I8
tp243
a(S'w'
I8796
tp244
a(S'w'
I1
tp245
a(S'p1_ll'
I8
tp246
a(S'w'
I4
tp247
a(S'tr_ll'
I1
tp248
a(S'w'
I5
tp249
a(S'p2_ll'
I8
tp250
a(S'w'
I8796
tp251
a(S'p1_ll'
I8
tp252
a(S'w'
I5
tp253
a(S'tr_ll'
I1
tp254
a(S'w'
I4
tp255
a(S'w'
I1
tp256
a(S'p2_ll'
I8
tp257
a(S'w'
I8796
tp258
a(S'p1_ll'
I8
tp259
a(S'w'
I5
tp260
a(S'tr_ll'
I1
tp261
a(S'w'
I4
tp262
a(S'p2_ll'
I8
tp263
a(S'w'
I8796
tp264
a(S'w'
I1
tp265
a(S'p1_ll'
I8
tp266
a(S'w'
I4
tp267
a(S'tr_ll'
I1
tp268
a(S'w'
I4
tp269
a(S'w'
I1
tp270
a(S'p2_ll'
I8
tp271
a(S'w'
I8796
tp272
a(S'p1_ll'
I8
tp273
a(S'w'
I5
tp274
a(S'tr_ll'
I1
tp275
a(S'w'
I4
tp276
a(S'p2_ll'
I8
tp277
a(S'w'
I8796
tp278
a(S'p1_tl'
I169
tp279
a(S'w'
I1
tp280
a(S'p1_ll'
I8
tp281
a(S'w'
I4
tp282
a(S'tr_tl'
I95
tp283
a(S'w'
I1
tp284
a(S'tr_ll'
I1
tp285
a(S'w'
I4
tp286
a(S'p2_tl'
I127
tp287
a(S'p2_ll'
I9
tp288
a(S'w'
I8796
tp289
a(S'p1_tl'
I254
tp290
a(S'p1_ll'
I8
tp291
a(S'w'
I8806
tp292
a(S'p1_ll'
I8
tp293
a(S'w'
I8805
tp294
a(S'w'
I1
tp295
a(S'p1_ll'
I8
tp296
a(S'w'
I8805
tp297
a(S'p1_ll'
I8
tp298
a(S'w'
I8805
tp299
a(S'w'
I1
tp300
a(S'p1_ll'
I8
tp301
a(S'w'
I8805
tp302
a(S'w'
I1
tp303
a(S'p1_ll'
I8
tp304
a(S'w'
I8805
tp305
a(S'p1_ll'
I8
tp306
a(S'w'
I8805
tp307
a(S'p1_tl'
I252
tp308
a(S'w'
I1
tp309
a(S'p1_ll'
I8
tp310
a(S'p1_th'
I1
tp311
a(S'w'
I4
tp312
a(S'tr_tl'
I29
tp313
a(S'tr_ll'
I1
tp314
a(S'tr_th'
I1
tp315
a(S'w'
I5
tp316
a(S'p2_tl'
I83
tp317
a(S'p2_ll'
I8
tp318
a(S'p2_th'
I1
tp319
a(S'w'
I8796
tp320
a(S'p1_ll'
I8
tp321
a(S'w'
I5
tp322
a(S'tr_ll'
I1
tp323
a(S'w'
I4
tp324
a(S'w'
I1
tp325
a(S'p2_ll'
I8
tp326
a(S'w'
I8795
tp327
a(S'w'
I1
tp328
a(S'p1_ll'
I8
tp329
a(S'w'
I5
tp330
a(S'tr_ll'
I1
tp331
a(S'w'
I4
tp332
a(S'p2_ll'
I8
tp333
a(S'w'
I8796
tp334
a(S'w'
I1
tp335
a(S'p1_ll'
I8
tp336
a(S'w'
I4
tp337
a(S'tr_ll'
I1
tp338
a(S'w'
I4
tp339
a(S'w'
I1
tp340
a(S'p2_ll'
I8
tp341
a(S'w'
I8796
tp342
a(S'p1_ll'
I8
tp343
a(S'w'
I5
tp344
a(S'tr_ll'
I1
tp345
a(S'w'
I4
tp346
a(S'w'
I1
tp347
a(S'p2_ll'
I8
tp348
a(S'w'
I8795
tp349
a(S'w'
I1
tp350
a(S'p1_ll'
I8
tp351
a(S'w'
I5
tp352
a(S'tr_ll'
I1
tp353
a(S'w'
I4
tp354
a(S'p2_ll'
I8
tp355
a(S'w'
I8796
tp356
a(S'p1_ll'
I8
tp357
a(S'w'
I5
tp358
a(S'tr_ll'
I1
tp359
a(S'w'
I4
tp360
a(S'w'
I1
tp361
a(S'p2_ll'
I8
tp362
a(S'w'
I8796
tp363
a(S'p1_ll'
I8
tp364
a(S'w'
I5
tp365
a(S'tr_ll'
I1
tp366
a(S'w'
I4
tp367
a(S'p2_ll'
I8
tp368
a(S'w'
I8796
tp369
a(S'p1_tl'
I46
tp370
a(S'w'
I1
tp371
a(S'p1_ll'
I8
tp372
a(S'w'
I4
tp373
a(S'tr_tl'
I179
tp374
a(S'tr_ll'
I1
tp375
a(S'tr_th'
I0
tp376
a(S'w'
I5
tp377
a(S'p2_tl'
I254
tp378
a(S'p2_ll'
I8
tp379
a(S'p2_th'
I0
tp380
a(S'w'
I8796
tp381
a(S'p1_ll'
I8
tp382
a(S'w'
I5
tp383
a(S'tr_ll'
I1
tp384
a(S'w'
I4
tp385
a(S'w'
I1
tp386
a(S'p2_ll'
I8
tp387
a(S'w'
I8795
tp388
a(S'w'
I1
tp389
a(S'p1_ll'
I8
tp390
a(S'w'
I5
tp391
a(S'tr_ll'
I1
tp392
a(S'w'
I4
tp393
a(S'p2_ll'
I8
tp394
a(S'w'
I8796
tp395
a(S'w'
I1
tp396
a(S'p1_ll'
I8
tp397
a(S'w'
I4
tp398
a(S'tr_ll'
I1
tp399
a(S'w'
I4
tp400
a(S'w'
I1
tp401
a(S'p2_ll'
I8
tp402
a(S'w'
I8796
tp403
a(S'p1_ll'
I8
tp404
a(S'w'
I5
tp405
a(S'tr_ll'
I1
tp406
a(S'w'
I4
tp407
a(S'p2_ll'
I8
tp408
a(S'w'
I8796
tp409
a(S'w'
I1
tp410
a(S'p1_ll'
I8
tp411
a(S'w'
I4
tp412
a(S'tr_ll'
I1
tp413
a(S'w'
I5
tp414
a(S'p2_ll'
I8
tp415
a(S'w'
I8796
tp416
a(S'p1_ll'
I8
tp417
a(S'w'
I5
tp418
a(S'tr_ll'
I1
tp419
a(S'w'
I4
tp420
a(S'w'
I1
tp421
a(S'p2_ll'
I8
tp422
a(S'w'
I8796
tp423
a(S'p1_ll'
I8
tp424
a(S'w'
I5
tp425
a(S'tr_ll'
I1
tp426
a(S'w'
I4
tp427
a(S'p2_ll'
I8
tp428
a(S'w'
I8796
tp429
a(S'p1_tl'
I64
tp430
a(S'w'
I1
tp431
a(S'p1_ll'
I8
tp432
a(S'w'
I4
tp433
a(S'tr_tl'
I190
tp434
a(S'tr_ll'
I1
tp435
a(S'w'
I4
tp436
a(S'p2_tl'
I13
tp437
a(S'w'
I1
tp438
a(S'p2_ll'
I8
tp439
a(S'p2_th'
I1
tp440
a(S'w'
I8796
tp441
a(S'p1_ll'
I8
tp442
a(S'w'
I5
tp443
a(S'tr_ll'
I1
tp444
a(S'w'
I4
tp445
a(S'w'
I1
tp446
a(S'p2_ll'
I8
tp447
a(S'w'
I8795
tp448
a(S'w'
I1
tp449
a(S'p1_ll'
I8
tp450
a(S'w'
I5
tp451
a(S'tr_ll'
I1
tp452
a(S'w'
I4
tp453
a(S'p2_ll'
I8
tp454
a(S'w'
I8796
tp455
a(S'w'
I1
tp456
a(S'p1_ll'
I8
tp457
a(S'w'
I4
tp458
a(S'tr_ll'
I1
tp459
a(S'w'
I4
tp460
a(S'w'
I1
tp461
a(S'p2_ll'
I8
tp462
a(S'w'
I8796
tp463
a(S'p1_ll'
I8
tp464
a(S'w'
I5
tp465
a(S'tr_ll'
I1
tp466
a(S'w'
I4
tp467
a(S'p2_ll'
I8
tp468
a(S'w'
I8796
tp469
a(S'w'
I1
tp470
a(S'p1_ll'
I8
tp471
a(S'w'
I4
tp472
a(S'tr_ll'
I1
tp473
a(S'w'
I5
tp474
a(S'p2_ll'
I8
tp475
a(S'w'
I8796
tp476
a(S'p1_ll'
I8
tp477
a(S'w'
I5
tp478
a(S'tr_ll'
I1
tp479
a(S'w'
I4
tp480
a(S'w'
I1
tp481
a(S'p2_ll'
I8
tp482
a(S'w'
I8796
tp483
a(S'p1_ll'
I8
tp484
a(S'w'
I5
tp485
a(S'tr_ll'
I1
tp486
a(S'w'
I4
tp487
a(S'p2_ll'
I8
tp488
a(S'w'
I8796
tp489
a(S'p1_tl'
I254
tp490
a(S'w'
I1
tp491
a(S'p1_ll'
I8
tp492
a(S'p1_th'
I0
tp493
a(S'w'
I4
tp494
a(S'tr_tl'
I160
tp495
a(S'tr_ll'
I1
tp496
a(S'w'
I4
tp497
a(S'p2_tl'
I200
tp498
a(S'w'
I1
tp499
a(S'p2_ll'
I8
tp500
a(S'p2_th'
I0
tp501
a(S'w'
I8796
tp502
a(S'p1_ll'
I8
tp503
a(S'w'
I5
tp504
a(S'tr_ll'
I1
tp505
a(S'w'
I4
tp506
a(S'w'
I1
tp507
a(S'p2_ll'
I8
tp508
a(S'w'
I8795
tp509
a(S'w'
I1
tp510
a(S'p1_ll'
I8
tp511
a(S'w'
I5
tp512
a(S'tr_ll'
I1
tp513
a(S'w'
I4
tp514
a(S'p2_ll'
I8
tp515
a(S'w'
I8796
tp516
a(S'w'
I1
tp517
a(S'p1_ll'
I8
tp518
a(S'w'
I4
tp519
a(S'tr_ll'
I1
tp520
a(S'w'
I4
tp521
a(S'w'
I1
tp522
a(S'p2_ll'
I8
tp523
a(S'w'
I8796
tp524
a(S'p1_ll'
I8
tp525
a(S'w'
I5
tp526
a(S'tr_ll'
I1
tp527
a(S'w'
I4
tp528
a(S'p2_ll'
I8
tp529
a(S'w'
I8796
tp530
a(S'w'
I1
tp531
a(S'p1_ll'
I8
tp532
a(S'w'
I4
tp533
a(S'tr_ll'
I1
tp534
a(S'w'
I5
tp535
a(S'p2_ll'
I8
tp536
a(S'w'
I8796
tp537
a(S'p1_ll'
I8
tp538
a(S'w'
I5
tp539
a(S'tr_ll'
I1
tp540
a(S'w'
I4
tp541
a(S'w'
I1
tp542
a(S'p2_ll'
I8
tp543
a(S'w'
I8795
tp544
a(S'w'
I1
tp545
a(S'p1_ll'
I8
tp546
a(S'w'
I5
tp547
a(S'tr_ll'
I1
tp548
a(S'w'
I4
tp549
a(S'p2_ll'
I8
tp550
a(S'w'
I8796
tp551
a(S'p1_tl'
I252
tp552
a(S'w'
I1
tp553
a(S'p1_ll'
I8
tp554
a(S'p1_th'
I1
tp555
a(S'w'
I3
tp556
a(S'tr_lr'
I80
tp557
a(S'w'
I1
tp558
a(S'tr_tl'
I29
tp559
a(S'tr_ll'
I1
tp560
a(S'tr_th'
I1
tp561
a(S'w'
I4
tp562
a(S'p2_tl'
I83
tp563
a(S'w'
I1
tp564
a(S'p2_ll'
I8
tp565
a(S'p2_th'
I1
tp566
a(S'w'
I8796
tp567
a(S'p1_tl'
I46
tp568
a(S'p1_ll'
I8
tp569
a(S'w'
I4
tp570
a(S'tr_tl'
I179
tp571
a(S'w'
I1
tp572
a(S'tr_ll'
I1
tp573
a(S'tr_th'
I0
tp574
a(S'w'
I4
tp575
a(S'p2_tl'
I254
tp576
a(S'w'
I1
tp577
a(S'p2_ll'
I8
tp578
a(S'p2_th'
I0
tp579
a(S'w'
I17601
tp580
a(S'p1_tl'
I254
tp581
a(S'p1_ll'
I8
tp582
a(S'p1_th'
I0
tp583
a(S'w'
I4
tp584
a(S'tr_tl'
I160
tp585
a(S'w'
I1
tp586
a(S'tr_ll'
I1
tp587
a(S'w'
I4
tp588
a(S'p2_tl'
I200
tp589
a(S'w'
I1
tp590
a(S'p2_ll'
I8
tp591
a(S'w'
I17601
tp592
a(S'p1_tl'
I46
tp593
a(S'w'
I1
tp594
a(S'p1_ll'
I8
tp595
a(S'p1_th'
I1
tp596
a(S'w'
I4
tp597
a(S'tr_tl'
I179
tp598
a(S'tr_ll'
I1
tp599
a(S'w'
I4
tp600
a(S'p2_tl'
I254
tp601
a(S'w'
I1
tp602
a(S'p2_ll'
I8
tp603
a(S'w'
I8796
tp604
a(S'p1_tl'
I252
tp605
a(S'p1_ll'
I8
tp606
a(S'w'
I4
tp607
a(S'tr_tl'
I29
tp608
a(S'w'
I1
tp609
a(S'tr_ll'
I1
tp610
a(S'tr_th'
I1
tp611
a(S'w'
I4
tp612
a(S'p2_tl'
I83
tp613
a(S'w'
I1
tp614
a(S'p2_ll'
I8
tp615
a(S'p2_th'
I1
tp616
a(S'w'
I8795
tp617
a(S'p1_tl'
I46
tp618
a(S'w'
I1
tp619
a(S'p1_ll'
I8
tp620
a(S'w'
I4
tp621
a(S'tr_tl'
I179
tp622
a(S'w'
I1
tp623
a(S'tr_ll'
I1
tp624
a(S'tr_th'
I0
tp625
a(S'w'
I4
tp626
a(S'p2_tl'
I254
tp627
a(S'p2_ll'
I8
tp628
a(S'p2_th'
I0
tp629
a(S'w'
I17602
tp630
a(S'p1_tl'
I254
tp631
a(S'p1_ll'
I8
tp632
a(S'p1_th'
I0
tp633
a(S'w'
I4
tp634
a(S'tr_tl'
I160
tp635
a(S'w'
I1
tp636
a(S'tr_ll'
I1
tp637
a(S'w'
I4
tp638
a(S'p2_tl'
I200
tp639
a(S'p2_ll'
I8
tp640
a(S'w'
I17602
tp641
a(S'p1_tl'
I46
tp642
a(S'p1_ll'
I8
tp643
a(S'p1_th'
I1
tp644
a(S'w'
I4
tp645
a(S'tr_tl'
I179
tp646
a(S'w'
I1
tp647
a(S'tr_ll'
I1
tp648
a(S'w'
I4
tp649
a(S'p2_tl'
I254
tp650
a(S'w'
I1
tp651
a(S'p2_ll'
I8
tp652
a(S'w'
I8795
tp653
a(S'p1_tl'
I252
tp654
a(S'w'
I1
tp655
a(S'p1_ll'
I8
tp656
a(S'w'
I4
tp657
a(S'tr_tl'
I29
tp658
a(S'w'
I1
tp659
a(S'tr_ll'
I1
tp660
a(S'tr_th'
I1
tp661
a(S'w'
I4
tp662
a(S'p2_tl'
I83
tp663
a(S'p2_ll'
I8
tp664
a(S'p2_th'
I1
tp665
a(S'w'
I8796
tp666
a(S'p1_tl'
I46
tp667
a(S'w'
I1
tp668
a(S'p1_ll'
I8
tp669
a(S'w'
I4
tp670
a(S'tr_tl'
I179
tp671
a(S'tr_ll'
I1
tp672
a(S'tr_th'
I0
tp673
a(S'w'
I4
tp674
a(S'p2_tl'
I254
tp675
a(S'w'
I1
tp676
a(S'p2_ll'
I8
tp677
a(S'p2_th'
I0
tp678
a(S'w'
I17601
tp679
a(S'p1_tl'
I254
tp680
a(S'w'
I1
tp681
a(S'p1_ll'
I8
tp682
a(S'p1_th'
I0
tp683
a(S'w'
I4
tp684
a(S'tr_tl'
I160
tp685
a(S'tr_ll'
I1
tp686
a(S'w'
I5
tp687
a(S'p2_tl'
I200
tp688
a(S'p2_ll'
I8
tp689
a(S'w'
I17602
tp690
a(S'p1_tl'
I46
tp691
a(S'p1_ll'
I8
tp692
a(S'p1_th'
I1
tp693
a(S'w'
I4
tp694
a(S'tr_tl'
I179
tp695
a(S'w'
I1
tp696
a(S'tr_ll'
I1
tp697
a(S'w'
I4
tp698
a(S'p2_tl'
I254
tp699
a(S'p2_ll'
I8
tp700
a(S'w'
I8796
tp701
a(S'p1_tl'
I169
tp702
a(S'w'
I1
tp703
a(S'p1_ll'
I8
tp704
a(S'p1_th'
I0
tp705
a(S'w'
I3
tp706
a(S'tr_lr'
I26
tp707
a(S'w'
I1
tp708
a(S'tr_tl'
I95
tp709
a(S'tr_ll'
I1
tp710
a(S'w'
I4
tp711
a(S'p2_tl'
I127
tp712
a(S'w'
I1
tp713
a(S'p2_ll'
I9
tp714
a(S'w'
I8796
tp715
a(S'p1_tl'
I254
tp716
a(S'p1_ll'
I8
tp717
a(S'w'
I8805
tp718
a(S'w'
I1
tp719
a(S'p1_ll'
I8
tp720
a(S'w'
I8805
tp721
a(S'w'
I1
tp722
a(S'p1_ll'
I8
tp723
a(S'w'
I8805
tp724
a(S'p1_ll'
I8
tp725
a(S'w'
I8805
tp726
a(S'w'
I1
tp727
a(S'p1_ll'
I8
tp728
a(S'w'
I8805
tp729
a(S'p1_ll'
I8
tp730
a(S'w'
I8805
tp731
a(S'w'
I1
tp732
a(S'p1_ll'
I8
tp733
a(S'w'
I8804
tp734
a.