(lp1
(S'clock'
p2
I1789772
tp3
a(S'ch_no'
I1
tp4
a(S'ch_tr'
I1
tp5
a(S'ch_p2'
I1
tp6
a(S'ch_p1'
I1
tp7
a(S'fc_mo'
I1
tp8
a(S'w'
I92
tp9
a(S'p1_cv'
I1
tp10
a(S'w'
I1
tp11
a(S'p2_cv'
I1
tp12
a(S'w'
I428
tp13
a(S'p1_du'
I1
tp14
a(S'p1_cv'
I0
tp15
a(S'p1_vo'
I15
tp16
a(S'p1_sp'
I7
tp17
a(S'p1_sn'
I1
tp18
a(S'p1_ss'
I7
tp19
a(S'w'
I1
tp20
a(S'p1_tl'
I240
tp21
a(S'w'
I1
tp22
a(S'p1_ll'
I0
tp23
a(S'w'
I3
tp24
a(S'p2_du'
I3
tp25
a(S'p2_cv'
I0
tp26
a(S'p2_vo'
I7
tp27
a(S'p2_sp'
I7
tp28
a(S'p2_sn'
I1
tp29
a(S'p2_ss'
I7
tp30
a(S'w'
I1
tp31
a(S'p2_tl'
I224
tp32
a(S'p2_ll'
I0
tp33
a(S'p2_th'
I1
tp34
a(S'w'
I3
tp35
a(S'tr_lr'
I20
tp36
a(S'w'
I1
tp37
a(S'tr_tl'
I190
tp38
a(S'w'
I1
tp39
a(S'tr_ll'
I1
tp40
a(S'w'
I5128
tp41
a(S'w'
I1
tp42
a(S'p2_ll'
I0
tp43
a(S'w'
I4
tp44
a(S'tr_ll'
I1
tp45
a(S'w'
I5130
tp46
a(S'w'
I1
tp47
a(S'p1_ll'
I0
tp48
a(S'w'
I4
tp49
a(S'p2_ll'
I0
tp50
a(S'w'
I5
tp51
a(S'tr_ll'
I1
tp52
a(S'w'
I5127
tp53
a(S'p1_ll'
I0
tp54
a(S'w'
I4
tp55
a(S'p2_tl'
I171
tp56
a(S'w'
I1
tp57
a(S'p2_ll'
I0
tp58
a(S'w'
I4
tp59
a(S'tr_tl'
I179
tp60
a(S'tr_ll'
I1
tp61
a(S'w'
I5127
tp62
a(S'w'
I1
tp63
a(S'p1_ll'
I0
tp64
a(S'w'
I5136
tp65
a(S'p1_ll'
I0
tp66
a(S'w'
I5136
tp67
a(S'w'
I1
tp68
a(S'p1_ll'
I0
tp69
a(S'w'
I4
tp70
a(S'p2_tl'
I224
tp71
a(S'w'
I1
tp72
a(S'p2_ll'
I0
tp73
a(S'w'
I4
tp74
a(S'tr_tl'
I190
tp75
a(S'tr_ll'
I1
tp76
a(S'w'
I5127
tp77
a(S'p1_tl'
I213
tp78
a(S'w'
I1
tp79
a(S'p1_ll'
I0
tp80
a(S'w'
I4
tp81
a(S'p2_ll'
I0
tp82
a(S'w'
I5
tp83
a(S'tr_ll'
I1
tp84
a(S'w'
I5127
tp85
a(S'p1_tl'
I190
tp86
a(S'p1_ll'
I0
tp87
a(S'w'
I4
tp88
a(S'w'
I1
tp89
a(S'p2_ll'
I0
tp90
a(S'w'
I4
tp91
a(S'tr_ll'
I1
tp92
a(S'w'
I5127
tp93
a(S'p1_tl'
I213
tp94
a(S'w'
I1
tp95
a(S'p1_ll'
I0
tp96
a(S'w'
I4
tp97
a(S'p2_tl'
I171
tp98
a(S'p2_ll'
I0
tp99
a(S'w'
I5
tp100
a(S'tr_tl'
I179
tp101
a(S'tr_ll'
I1
tp102
a(S'w'
I10264
tp103
a(S'p1_tl'
I240
tp104
a(S'p1_ll'
I0
tp105
a(S'w'
I5136
tp106
a(S'p1_tl'
I160
tp107
a(S'w'
I1
tp108
a(S'p1_ll'
I6
tp109
a(S'w'
I4
tp110
a(S'p2_tl'
I224
tp111
a(S'p2_ll'
I0
tp112
a(S'w'
I4
tp113
a(S'tr_tl'
I190
tp114
a(S'w'
I1
tp115
a(S'tr_ll'
I1
tp116
a(S'w'
I5129
tp117
a(S'p2_ll'
I0
tp118
a(S'w'
I5
tp119
a(S'tr_ll'
I1
tp120
a(S'w'
I5131
tp121
a(S'w'
I1
tp122
a(S'p2_ll'
I0
tp123
a(S'w'
I4
tp124
a(S'tr_ll'
I1
tp125
a(S'w'
I5132
tp126
a(S'p2_tl'
I171
tp127
a(S'p2_ll'
I0
tp128
a(S'w'
I4
tp129
a(S'tr_tl'
I179
tp130
a(S'w'
I1
tp131
a(S'tr_ll'
I1
tp132
a(S'w'
I15405
tp133
a(S'p2_tl'
I125
tp134
a(S'p2_ll'
I0
tp135
a(S'w'
I4
tp136
a(S'tr_tl'
I160
tp137
a(S'w'
I1
tp138
a(S'tr_ll'
I1
tp139
a(S'w'
I15403
tp140
a(S'p1_tl'
I179
tp141
a(S'p1_ll'
I0
tp142
a(S'w'
I4
tp143
a(S'p2_tl'
I29
tp144
a(S'w'
I1
tp145
a(S'p2_ll'
I8
tp146
a(S'w'
I3
tp147
a(S'tr_lr'
I64
tp148
a(S'w'
I1
tp149
a(S'tr_tl'
I120
tp150
a(S'tr_ll'
I1
tp151
a(S'w'
I5127
tp152
a(S'p1_tl'
I160
tp153
a(S'w'
I1
tp154
a(S'p1_ll'
I0
tp155
a(S'w'
I5136
tp156
a(S'p1_tl'
I142
tp157
a(S'p1_ll'
I0
tp158
a(S'w'
I5136
tp159
a(S'p1_tl'
I160
tp160
a(S'w'
I1
tp161
a(S'p1_ll'
I0
tp162
a(S'w'
I4
tp163
a(S'p2_tl'
I64
tp164
a(S'w'
I1
tp165
a(S'p2_ll'
I0
tp166
a(S'w'
I3
tp167
a(S'tr_lr'
I20
tp168
a(S'w'
I1
tp169
a(S'tr_tl'
I127
tp170
a(S'tr_ll'
I1
tp171
a(S'w'
I15400
tp172
a(S'p1_tl'
I120
tp173
a(S'w'
I1
tp174
a(S'p1_ll'
I8
tp175
a(S'w'
I4
tp176
a(S'p2_tl'
I29
tp177
a(S'p2_ll'
I8
tp178
a(S'w'
I3
tp179
a(S'tr_lr'
I64
tp180
a(S'w'
I2
tp181
a(S'tr_tl'
I120
tp182
a(S'tr_ll'
I1
tp183
a(S'w'
I15402
tp184
a(S'p2_tl'
I64
tp185
a(S'p2_ll'
I0
tp186
a(S'w'
I3
tp187
a(S'tr_lr'
I20
tp188
a(S'w'
I1
tp189
a(S'tr_tl'
I127
tp190
a(S'w'
I1
tp191
a(S'tr_ll'
I1
tp192
a(S'w'
I5130
tp193
a(S'p1_tl'
I127
tp194
a(S'p1_ll'
I0
tp195
a(S'w'
I5136
tp196
a(S'p1_tl'
I120
tp197
a(S'w'
I1
tp198
a(S'p1_ll'
I0
tp199
a(S'w'
I5136
tp200
a(S'p1_tl'
I127
tp201
a(S'p1_ll'
I0
tp202
a(S'w'
I5
tp203
a(S'p2_tl'
I125
tp204
a(S'p2_ll'
I0
tp205
a(S'w'
I4
tp206
a(S'tr_tl'
I160
tp207
a(S'w'
I1
tp208
a(S'tr_ll'
I1
tp209
a(S'w'
I5126
tp210
a(S'p1_tl'
I160
tp211
a(S'w'
I1
tp212
a(S'p1_ll'
I0
tp213
a(S'w'
I5136
tp214
a(S'p1_tl'
I190
tp215
a(S'w'
I1
tp216
a(S'p1_ll'
I0
tp217
a(S'w'
I5136
tp218
a(S'p1_tl'
I213
tp219
a(S'p1_ll'
I8
tp220
a(S'w'
I4
tp221
a(S'p2_tl'
I171
tp222
a(S'w'
I1
tp223
a(S'p2_ll'
I0
tp224
a(S'w'
I4
tp225
a(S'tr_tl'
I179
tp226
a(S'w'
I1
tp227
a(S'tr_ll'
I1
tp228
a(S'w'
I15401
tp229
a(S'p2_tl'
I59
tp230
a(S'w'
I1
tp231
a(S'p2_ll'
I0
tp232
a(S'p2_th'
I2
tp233
a(S'w'
I4
tp234
a(S'tr_ll'
I1
tp235
a(S'w'
I15405
tp236
a(S'p2_tl'
I252
tp237
a(S'w'
I1
tp238
a(S'p2_ll'
I0
tp239
a(S'p2_th'
I1
tp240
a(S'w'
I4
tp241
a(S'tr_tl'
I160
tp242
a(S'tr_ll'
I1
tp243
a(S'w'
I5132
tp244
a(S'p2_tl'
I59
tp245
a(S'p2_ll'
I0
tp246
a(S'p2_th'
I2
tp247
a(S'w'
I5136
tp248
a(S'p2_tl'
I252
tp249
a(S'w'
I1
tp250
a(S'p2_ll'
I0
tp251
a(S'p2_th'
I1
tp252
a(S'w'
I5136
tp253
a(S'p2_tl'
I59
tp254
a(S'p2_ll'
I0
tp255
a(S'p2_th'
I2
tp256
a(S'w'
I5
tp257
a(S'tr_ll'
I1
tp258
a(S'w'
I10268
tp259
a(S'p2_tl'
I129
tp260
a(S'w'
I1
tp261
a(S'p2_ll'
I0
tp262
a(S'w'
I5134
tp263
a(S'p1_tl'
I226
tp264
a(S'w'
I1
tp265
a(S'p1_ll'
I0
tp266
a(S'w'
I4
tp267
a(S'p2_tl'
I197
tp268
a(S'p2_ll'
I0
tp269
a(S'p2_th'
I1
tp270
a(S'w'
I4
tp271
a(S'tr_tl'
I179
tp272
a(S'w'
I1
tp273
a(S'tr_ll'
I1
tp274
a(S'w'
I5128
tp275
a(S'w'
I1
tp276
a(S'p2_ll'
I0
tp277
a(S'w'
I5
tp278
a(S'tr_ll'
I1
tp279
a(S'w'
I5129
tp280
a(S'w'
I1
tp281
a(S'p1_ll'
I0
tp282
a(S'w'
I4
tp283
a(S'p2_ll'
I0
tp284
a(S'w'
I5
tp285
a(S'tr_ll'
I1
tp286
a(S'w'
I5127
tp287
a(S'p1_ll'
I0
tp288
a(S'w'
I5
tp289
a(S'p2_tl'
I144
tp290
a(S'p2_ll'
I0
tp291
a(S'w'
I4
tp292
a(S'tr_tl'
I169
tp293
a(S'w'
I1
tp294
a(S'tr_ll'
I1
tp295
a(S'w'
I5126
tp296
a(S'w'
I1
tp297
a(S'p1_ll'
I0
tp298
a(S'w'
I5136
tp299
a(S'w'
I1
tp300
a(S'p1_ll'
I0
tp301
a(S'w'
I5136
tp302
a(S'p1_ll'
I0
tp303
a(S'w'
I4
tp304
a(S'p2_tl'
I197
tp305
a(S'w'
I1
tp306
a(S'p2_ll'
I0
tp307
a(S'w'
I4
tp308
a(S'tr_tl'
I179
tp309
a(S'w'
I1
tp310
a(S'tr_ll'
I1
tp311
a(S'w'
I5126
tp312
a(S'p1_tl'
I200
tp313
a(S'w'
I1
tp314
a(S'p1_ll'
I0
tp315
a(S'w'
I4
tp316
a(S'w'
I1
tp317
a(S'p2_ll'
I0
tp318
a(S'w'
I4
tp319
a(S'tr_ll'
I1
tp320
a(S'w'
I5127
tp321
a(S'p1_tl'
I179
tp322
a(S'p1_ll'
I0
tp323
a(S'w'
I5
tp324
a(S'p2_ll'
I0
tp325
a(S'w'
I5
tp326
a(S'tr_ll'
I1
tp327
a(S'w'
I5127
tp328
a(S'p1_tl'
I200
tp329
a(S'p1_ll'
I0
tp330
a(S'w'
I4
tp331
a(S'p2_tl'
I144
tp332
a(S'w'
I1
tp333
a(S'p2_ll'
I0
tp334
a(S'w'
I4
tp335
a(S'tr_tl'
I169
tp336
a(S'tr_ll'
I1
tp337
a(S'w'
I10264
tp338
a(S'p1_tl'
I226
tp339
a(S'p1_ll'
I0
tp340
a(S'w'
I5136
tp341
a(S'p1_tl'
I151
tp342
a(S'w'
I1
tp343
a(S'p1_ll'
I6
tp344
a(S'w'
I4
tp345
a(S'p2_tl'
I197
tp346
a(S'w'
I1
tp347
a(S'p2_ll'
I0
tp348
a(S'w'
I4
tp349
a(S'tr_tl'
I179
tp350
a(S'tr_ll'
I1
tp351
a(S'w'
I5129
tp352
a(S'p2_ll'
I0
tp353
a(S'w'
I5
tp354
a(S'tr_ll'
I1
tp355
a(S'w'
I5131
tp356
a(S'w'
I1
tp357
a(S'p2_ll'
I0
tp358
a(S'w'
I5
tp359
a(S'tr_ll'
I1
tp360
a(S'w'
I5131
tp361
a(S'p2_tl'
I144
tp362
a(S'w'
I1
tp363
a(S'p2_ll'
I0
tp364
a(S'w'
I4
tp365
a(S'tr_tl'
I169
tp366
a(S'tr_ll'
I1
tp367
a(S'w'
I15405
tp368
a(S'p2_tl'
I103
tp369
a(S'p2_ll'
I0
tp370
a(S'w'
I4
tp371
a(S'tr_tl'
I151
tp372
a(S'w'
I1
tp373
a(S'tr_ll'
I1
tp374
a(S'w'
I15403
tp375
a(S'p1_tl'
I134
tp376
a(S'p1_ll'
I0
tp377
a(S'w'
I4
tp378
a(S'p2_tl'
I13
tp379
a(S'w'
I1
tp380
a(S'p2_ll'
I8
tp381
a(S'w'
I3
tp382
a(S'tr_lr'
I64
tp383
a(S'w'
I1
tp384
a(S'tr_tl'
I113
tp385
a(S'w'
I1
tp386
a(S'tr_ll'
I1
tp387
a(S'w'
I5126
tp388
a(S'p1_tl'
I151
tp389
a(S'w'
I1
tp390
a(S'p1_ll'
I0
tp391
a(S'w'
I5136
tp392
a(S'p1_tl'
I169
tp393
a(S'w'
I1
tp394
a(S'p1_ll'
I0
tp395
a(S'w'
I5136
tp396
a(S'p1_tl'
I151
tp397
a(S'p1_ll'
I0
tp398
a(S'w'
I4
tp399
a(S'p2_tl'
I46
tp400
a(S'w'
I1
tp401
a(S'p2_ll'
I0
tp402
a(S'w'
I3
tp403
a(S'tr_lr'
I20
tp404
a(S'w'
I1
tp405
a(S'tr_tl'
I120
tp406
a(S'tr_ll'
I1
tp407
a(S'w'
I15401
tp408
a(S'p1_tl'
I134
tp409
a(S'p1_ll'
I0
tp410
a(S'w'
I4
tp411
a(S'p2_tl'
I13
tp412
a(S'w'
I1
tp413
a(S'p2_ll'
I8
tp414
a(S'w'
I3
tp415
a(S'tr_lr'
I64
tp416
a(S'w'
I1
tp417
a(S'tr_tl'
I113
tp418
a(S'tr_ll'
I1
tp419
a(S'w'
I5127
tp420
a(S'p1_tl'
I151
tp421
a(S'w'
I1
tp422
a(S'p1_ll'
I0
tp423
a(S'w'
I5136
tp424
a(S'p1_tl'
I169
tp425
a(S'p1_ll'
I0
tp426
a(S'w'
I5136
tp427
a(S'p1_tl'
I151
tp428
a(S'w'
I1
tp429
a(S'p1_ll'
I0
tp430
a(S'w'
I4
tp431
a(S'p2_tl'
I46
tp432
a(S'p2_ll'
I0
tp433
a(S'w'
I3
tp434
a(S'tr_lr'
I20
tp435
a(S'w'
I2
tp436
a(S'tr_tl'
I120
tp437
a(S'tr_ll'
I1
tp438
a(S'w'
I10264
tp439
a(S'p1_tl'
I169
tp440
a(S'p1_ll'
I0
tp441
a(S'w'
I5136
tp442
a(S'p1_tl'
I179
tp443
a(S'w'
I1
tp444
a(S'p1_ll'
I0
tp445
a(S'w'
I4
tp446
a(S'p2_tl'
I103
tp447
a(S'p2_ll'
I0
tp448
a(S'w'
I4
tp449
a(S'tr_tl'
I151
tp450
a(S'w'
I1
tp451
a(S'tr_ll'
I1
tp452
a(S'w'
I5127
tp453
a(S'p1_tl'
I226
tp454
a(S'p1_ll'
I0
tp455
a(S'w'
I5136
tp456
a(S'p1_tl'
I13
tp457
a(S'w'
I1
tp458
a(S'p1_ll'
I0
tp459
a(S'p1_th'
I1
tp460
a(S'w'
I5136
tp461
a(S'p1_tl'
I200
tp462
a(S'w'
I1
tp463
a(S'p1_ll'
I8
tp464
a(S'p1_th'
I0
tp465
a(S'w'
I4
tp466
a(S'p2_tl'
I46
tp467
a(S'p2_ll'
I0
tp468
a(S'w'
I4
tp469
a(S'tr_tl'
I120
tp470
a(S'w'
I1
tp471
a(S'tr_ll'
I1
tp472
a(S'w'
I15402
tp473
a(S'p2_tl'
I93
tp474
a(S'p2_ll'
I0
tp475
a(S'p2_th'
I2
tp476
a(S'w'
I5
tp477
a(S'tr_ll'
I1
tp478
a(S'w'
I5131
tp479
a(S'w'
I1
tp480
a(S'p2_ll'
I0
tp481
a(S'w'
I4
tp482
a(S'tr_tl'
I134
tp483
a(S'tr_ll'
I1
tp484
a(S'w'
I5132
tp485
a(S'p2_ll'
I0
tp486
a(S'w'
I4
tp487
a(S'tr_tl'
I120
tp488
a(S'w'
I1
tp489
a(S'tr_ll'
I1
tp490
a(S'w'
I5130
tp491
a(S'p1_tl'
I226
tp492
a(S'p1_ll'
I8
tp493
a(S'w'
I4
tp494
a(S'p2_tl'
I197
tp495
a(S'w'
I1
tp496
a(S'p2_ll'
I0
tp497
a(S'p2_th'
I1
tp498
a(S'w'
I4
tp499
a(S'tr_tl'
I179
tp500
a(S'w'
I1
tp501
a(S'tr_ll'
I1
tp502
a(S'w'
I15399
tp503
a(S'p1_tl'
I190
tp504
a(S'w'
I1
tp505
a(S'p1_ll'
I17
tp506
a(S'w'
I10273
tp507
a(S'p1_ll'
I17
tp508
a(S'w'
I5136
tp509
a(S'p1_tl'
I169
tp510
a(S'w'
I1
tp511
a(S'p1_ll'
I8
tp512
a(S'w'
I15410
tp513
a(S'p2_vo'
I15
tp514
a(S'w'
I1
tp515
a(S'p2_tl'
I125
tp516
a(S'p2_ll'
I17
tp517
a(S'w'
I10273
tp518
a(S'w'
I1
tp519
a(S'p2_ll'
I17
tp520
a(S'w'
I5136
tp521
a(S'p2_tl'
I83
tp522
a(S'p2_ll'
I17
tp523
a(S'w'
I5135
tp524
a(S'p1_tl'
I190
tp525
a(S'p1_ll'
I8
tp526
a(S'w'
I4
tp527
a(S'p2_tl'
I125
tp528
a(S'w'
I1
tp529
a(S'p2_ll'
I17
tp530
a(S'w'
I5131
tp531
a(S'p1_tl'
I169
tp532
a(S'w'
I1
tp533
a(S'p1_ll'
I8
tp534
a(S'w'
I4
tp535
a(S'p2_tl'
I83
tp536
a(S'p2_ll'
I17
tp537
a(S'w'
I5132
tp538
a(S'p1_tl'
I142
tp539
a(S'p1_ll'
I8
tp540
a(S'w'
I5
tp541
a(S'p2_tl'
I29
tp542
a(S'p2_ll'
I17
tp543
a(S'w'
I5132
tp544
a(S'p1_tl'
I151
tp545
a(S'p1_ll'
I8
tp546
a(S'w'
I4
tp547
a(S'p2_tl'
I46
tp548
a(S'w'
I1
tp549
a(S'p2_ll'
I17
tp550
a(S'w'
I5131
tp551
a(S'p1_tl'
I190
tp552
a(S'w'
I1
tp553
a(S'p1_ll'
I8
tp554
a(S'w'
I4
tp555
a(S'p2_tl'
I125
tp556
a(S'p2_ll'
I17
tp557
a(S'w'
I5132
tp558
a(S'p1_tl'
I142
tp559
a(S'p1_ll'
I8
tp560
a(S'w'
I4
tp561
a(S'p2_tl'
I226
tp562
a(S'w'
I1
tp563
a(S'p2_ll'
I17
tp564
a(S'p2_th'
I0
tp565
a(S'w'
I4
tp566
a(S'tr_tl'
I95
tp567
a(S'tr_ll'
I1
tp568
a(S'w'
I5127
tp569
a(S'p1_tl'
I151
tp570
a(S'w'
I1
tp571
a(S'p1_ll'
I8
tp572
a(S'w'
I4
tp573
a(S'p2_tl'
I254
tp574
a(S'w'
I1
tp575
a(S'p2_ll'
I17
tp576
a(S'w'
I4
tp577
a(S'tr_ll'
I1
tp578
a(S'w'
I5127
tp579
a(S'p1_tl'
I190
tp580
a(S'p1_ll'
I8
tp581
a(S'w'
I5
tp582
a(S'p2_tl'
I29
tp583
a(S'p2_ll'
I17
tp584
a(S'p2_th'
I1
tp585
a(S'w'
I4
tp586
a(S'tr_tl'
I113
tp587
a(S'w'
I1
tp588
a(S'tr_ll'
I1
tp589
a(S'w'
I5126
tp590
a(S'p1_tl'
I169
tp591
a(S'w'
I1
tp592
a(S'p1_ll'
I8
tp593
a(S'w'
I4
tp594
a(S'p2_tl'
I254
tp595
a(S'w'
I1
tp596
a(S'p2_ll'
I4
tp597
a(S'p2_th'
I0
tp598
a(S'w'
I3
tp599
a(S'tr_lr'
I75
tp600
a(S'w'
I1
tp601
a(S'tr_tl'
I100
tp602
a(S'tr_ll'
I1
tp603
a(S'w'
I15400
tp604
a(S'p1_tl'
I160
tp605
a(S'w'
I1
tp606
a(S'p1_ll'
I17
tp607
a(S'w'
I10273
tp608
a(S'p1_ll'
I17
tp609
a(S'w'
I5136
tp610
a(S'p1_tl'
I142
tp611
a(S'w'
I1
tp612
a(S'p1_ll'
I8
tp613
a(S'w'
I4
tp614
a(S'p2_tl'
I64
tp615
a(S'p2_ll'
I17
tp616
a(S'p2_th'
I1
tp617
a(S'w'
I10270
tp618
a(S'w'
I1
tp619
a(S'p2_ll'
I17
tp620
a(S'w'
I5136
tp621
a(S'p2_tl'
I29
tp622
a(S'p2_ll'
I17
tp623
a(S'w'
I5135
tp624
a(S'p1_tl'
I160
tp625
a(S'p1_ll'
I8
tp626
a(S'w'
I4
tp627
a(S'p2_tl'
I64
tp628
a(S'w'
I1
tp629
a(S'p2_ll'
I17
tp630
a(S'w'
I5131
tp631
a(S'p1_tl'
I142
tp632
a(S'w'
I1
tp633
a(S'p1_ll'
I8
tp634
a(S'w'
I4
tp635
a(S'p2_tl'
I29
tp636
a(S'p2_ll'
I17
tp637
a(S'w'
I5132
tp638
a(S'p1_tl'
I120
tp639
a(S'p1_ll'
I8
tp640
a(S'w'
I5
tp641
a(S'p2_tl'
I240
tp642
a(S'p2_ll'
I17
tp643
a(S'p2_th'
I0
tp644
a(S'w'
I5131
tp645
a(S'p1_tl'
I127
tp646
a(S'w'
I1
tp647
a(S'p1_ll'
I8
tp648
a(S'w'
I4
tp649
a(S'p2_tl'
I254
tp650
a(S'w'
I1
tp651
a(S'p2_ll'
I17
tp652
a(S'w'
I5131
tp653
a(S'p1_tl'
I160
tp654
a(S'w'
I1
tp655
a(S'p1_ll'
I8
tp656
a(S'w'
I4
tp657
a(S'p2_tl'
I64
tp658
a(S'p2_ll'
I17
tp659
a(S'p2_th'
I1
tp660
a(S'w'
I5132
tp661
a(S'p1_tl'
I120
tp662
a(S'p1_ll'
I8
tp663
a(S'w'
I4
tp664
a(S'p2_tl'
I190
tp665
a(S'w'
I1
tp666
a(S'p2_ll'
I17
tp667
a(S'p2_th'
I0
tp668
a(S'w'
I3
tp669
a(S'tr_lr'
I20
tp670
a(S'w'
I1
tp671
a(S'tr_tl'
I80
tp672
a(S'tr_ll'
I1
tp673
a(S'w'
I5127
tp674
a(S'p1_tl'
I127
tp675
a(S'w'
I1
tp676
a(S'p1_ll'
I8
tp677
a(S'w'
I4
tp678
a(S'p2_ll'
I17
tp679
a(S'w'
I5
tp680
a(S'tr_ll'
I1
tp681
a(S'w'
I5127
tp682
a(S'p1_tl'
I160
tp683
a(S'p1_ll'
I8
tp684
a(S'w'
I5
tp685
a(S'p2_tl'
I240
tp686
a(S'p2_ll'
I17
tp687
a(S'w'
I4
tp688
a(S'tr_tl'
I95
tp689
a(S'w'
I1
tp690
a(S'tr_ll'
I1
tp691
a(S'w'
I5126
tp692
a(S'p1_tl'
I142
tp693
a(S'w'
I1
tp694
a(S'p1_ll'
I8
tp695
a(S'w'
I4
tp696
a(S'p2_tl'
I213
tp697
a(S'w'
I1
tp698
a(S'p2_ll'
I8
tp699
a(S'w'
I3
tp700
a(S'tr_lr'
I127
tp701
a(S'w'
I1
tp702
a(S'tr_tl'
I84
tp703
a(S'tr_ll'
I1
tp704
a(S'w'
I30810
tp705
a(S'p1_tl'
I160
tp706
a(S'w'
I1
tp707
a(S'p1_ll'
I8
tp708
a(S'w'
I3
tp709
a(S'p2_vo'
I7
tp710
a(S'w'
I1
tp711
a(S'p2_tl'
I254
tp712
a(S'p2_ll'
I0
tp713
a(S'w'
I3
tp714
a(S'tr_lr'
I20
tp715
a(S'w'
I1
tp716
a(S'tr_tl'
I106
tp717
a(S'w'
I1
tp718
a(S'tr_ll'
I1
tp719
a(S'w'
I5128
tp720
a(S'p2_tl'
I64
tp721
a(S'w'
I1
tp722
a(S'p2_ll'
I0
tp723
a(S'p2_th'
I1
tp724
a(S'w'
I4
tp725
a(S'tr_tl'
I127
tp726
a(S'w'
I1
tp727
a(S'tr_ll'
I1
tp728
a(S'w'
I5131
tp729
a(S'p2_tl'
I129
tp730
a(S'w'
I1
tp731
a(S'p2_ll'
I0
tp732
a(S'p2_th'
I2
tp733
a(S'w'
I4
tp734
a(S'tr_tl'
I160
tp735
a(S'tr_ll'
I1
tp736
a(S'w'
I5130
tp737
a(S'p1_tl'
I240
tp738
a(S'w'
I1
tp739
a(S'p1_ll'
I0
tp740
a(S'w'
I4
tp741
a(S'p2_tl'
I224
tp742
a(S'p2_ll'
I0
tp743
a(S'p2_th'
I1
tp744
a(S'w'
I4
tp745
a(S'tr_tl'
I190
tp746
a(S'w'
I1
tp747
a(S'tr_ll'
I1
tp748
a(S'w'
I5128
tp749
a(S'w'
I1
tp750
a(S'p2_ll'
I0
tp751
a(S'w'
I4
tp752
a(S'tr_ll'
I1
tp753
a(S'w'
I5130
tp754
a(S'w'
I1
tp755
a(S'p1_ll'
I0
tp756
a(S'w'
I4
tp757
a(S'p2_ll'
I0
tp758
a(S'w'
I5
tp759
a(S'tr_ll'
I1
tp760
a(S'w'
I5127
tp761
a(S'p1_ll'
I0
tp762
a(S'w'
I4
tp763
a(S'p2_tl'
I171
tp764
a(S'w'
I1
tp765
a(S'p2_ll'
I0
tp766
a(S'w'
I4
tp767
a(S'tr_tl'
I179
tp768
a(S'w'
I1
tp769
a(S'tr_ll'
I1
tp770
a(S'w'
I5126
tp771
a(S'w'
I1
tp772
a(S'p1_ll'
I0
tp773
a(S'w'
I5136
tp774
a(S'w'
I1
tp775
a(S'p1_ll'
I0
tp776
a(S'w'
I5136
tp777
a(S'p1_ll'
I0
tp778
a(S'w'
I4
tp779
a(S'p2_tl'
I224
tp780
a(S'w'
I1
tp781
a(S'p2_ll'
I0
tp782
a(S'w'
I4
tp783
a(S'tr_tl'
I190
tp784
a(S'tr_ll'
I1
tp785
a(S'w'
I5127
tp786
a(S'p1_tl'
I213
tp787
a(S'w'
I1
tp788
a(S'p1_ll'
I0
tp789
a(S'w'
I4
tp790
a(S'p2_ll'
I0
tp791
a(S'w'
I5
tp792
a(S'tr_ll'
I1
tp793
a(S'w'
I5127
tp794
a(S'p1_tl'
I190
tp795
a(S'p1_ll'
I0
tp796
a(S'w'
I4
tp797
a(S'w'
I1
tp798
a(S'p2_ll'
I0
tp799
a(S'w'
I5
tp800
a(S'tr_ll'
I1
tp801
a(S'w'
I5127
tp802
a(S'p1_tl'
I213
tp803
a(S'p1_ll'
I0
tp804
a(S'w'
I4
tp805
a(S'p2_tl'
I171
tp806
a(S'w'
I1
tp807
a(S'p2_ll'
I0
tp808
a(S'w'
I4
tp809
a(S'tr_tl'
I179
tp810
a(S'tr_ll'
I1
tp811
a(S'w'
I10264
tp812
a(S'p1_tl'
I240
tp813
a(S'p1_ll'
I0
tp814
a(S'w'
I5136
tp815
a(S'p1_tl'
I160
tp816
a(S'w'
I1
tp817
a(S'p1_ll'
I6
tp818
a(S'w'
I4
tp819
a(S'p2_tl'
I224
tp820
a(S'p2_ll'
I0
tp821
a(S'w'
I5
tp822
a(S'tr_tl'
I190
tp823
a(S'tr_ll'
I1
tp824
a(S'w'
I5129
tp825
a(S'p2_ll'
I0
tp826
a(S'w'
I5
tp827
a(S'tr_ll'
I1
tp828
a(S'w'
I5131
tp829
a(S'w'
I1
tp830
a(S'p2_ll'
I0
tp831
a(S'w'
I5
tp832
a(S'tr_ll'
I1
tp833
a(S'w'
I5131
tp834
a(S'p2_tl'
I171
tp835
a(S'p2_ll'
I0
tp836
a(S'w'
I4
tp837
a(S'tr_tl'
I179
tp838
a(S'w'
I1
tp839
a(S'tr_ll'
I1
tp840
a(S'w'
I15405
tp841
a(S'p2_tl'
I125
tp842
a(S'p2_ll'
I0
tp843
a(S'w'
I4
tp844
a(S'tr_tl'
I160
tp845
a(S'w'
I1
tp846
a(S'tr_ll'
I1
tp847
a(S'w'
I15403
tp848
a(S'p1_tl'
I179
tp849
a(S'p1_ll'
I0
tp850
a(S'w'
I4
tp851
a(S'p2_tl'
I29
tp852
a(S'w'
I1
tp853
a(S'p2_ll'
I8
tp854
a(S'w'
I3
tp855
a(S'tr_lr'
I64
tp856
a(S'w'
I1
tp857
a(S'tr_tl'
I120
tp858
a(S'w'
I1
tp859
a(S'tr_ll'
I1
tp860
a(S'w'
I5126
tp861
a(S'p1_tl'
I160
tp862
a(S'w'
I1
tp863
a(S'p1_ll'
I0
tp864
a(S'w'
I5136
tp865
a(S'p1_tl'
I142
tp866
a(S'w'
I1
tp867
a(S'p1_ll'
I0
tp868
a(S'w'
I5136
tp869
a(S'p1_tl'
I160
tp870
a(S'p1_ll'
I0
tp871
a(S'w'
I4
tp872
a(S'p2_tl'
I64
tp873
a(S'w'
I1
tp874
a(S'p2_ll'
I0
tp875
a(S'w'
I3
tp876
a(S'tr_lr'
I20
tp877
a(S'w'
I1
tp878
a(S'tr_tl'
I127
tp879
a(S'tr_ll'
I1
tp880
a(S'w'
I15400
tp881
a(S'p1_tl'
I120
tp882
a(S'w'
I1
tp883
a(S'p1_ll'
I8
tp884
a(S'w'
I4
tp885
a(S'p2_tl'
I29
tp886
a(S'w'
I1
tp887
a(S'p2_ll'
I8
tp888
a(S'w'
I3
tp889
a(S'tr_lr'
I64
tp890
a(S'w'
I1
tp891
a(S'tr_tl'
I120
tp892
a(S'tr_ll'
I1
tp893
a(S'w'
I15402
tp894
a(S'p2_tl'
I64
tp895
a(S'w'
I1
tp896
a(S'p2_ll'
I0
tp897
a(S'w'
I3
tp898
a(S'tr_lr'
I20
tp899
a(S'w'
I1
tp900
a(S'tr_tl'
I127
tp901
a(S'tr_ll'
I1
tp902
a(S'w'
I5130
tp903
a(S'p1_tl'
I127
tp904
a(S'p1_ll'
I0
tp905
a(S'w'
I5136
tp906
a(S'p1_tl'
I120
tp907
a(S'w'
I1
tp908
a(S'p1_ll'
I0
tp909
a(S'w'
I5136
tp910
a(S'p1_tl'
I127
tp911
a(S'w'
I1
tp912
a(S'p1_ll'
I0
tp913
a(S'w'
I4
tp914
a(S'p2_tl'
I125
tp915
a(S'p2_ll'
I0
tp916
a(S'w'
I4
tp917
a(S'tr_tl'
I160
tp918
a(S'w'
I1
tp919
a(S'tr_ll'
I1
tp920
a(S'w'
I5127
tp921
a(S'p1_tl'
I160
tp922
a(S'p1_ll'
I0
tp923
a(S'w'
I5136
tp924
a(S'p1_tl'
I190
tp925
a(S'w'
I1
tp926
a(S'p1_ll'
I0
tp927
a(S'w'
I5136
tp928
a(S'p1_tl'
I213
tp929
a(S'p1_ll'
I8
tp930
a(S'w'
I5
tp931
a(S'p2_tl'
I171
tp932
a(S'p2_ll'
I0
tp933
a(S'w'
I4
tp934
a(S'tr_tl'
I179
tp935
a(S'w'
I1
tp936
a(S'tr_ll'
I1
tp937
a(S'w'
I15401
tp938
a(S'p2_tl'
I59
tp939
a(S'w'
I1
tp940
a(S'p2_ll'
I0
tp941
a(S'p2_th'
I2
tp942
a(S'w'
I5
tp943
a(S'tr_ll'
I1
tp944
a(S'w'
I15404
tp945
a(S'p2_tl'
I252
tp946
a(S'w'
I1
tp947
a(S'p2_ll'
I0
tp948
a(S'p2_th'
I1
tp949
a(S'w'
I4
tp950
a(S'tr_tl'
I160
tp951
a(S'w'
I1
tp952
a(S'tr_ll'
I1
tp953
a(S'w'
I5131
tp954
a(S'p2_tl'
I59
tp955
a(S'p2_ll'
I0
tp956
a(S'p2_th'
I2
tp957
a(S'w'
I5137
tp958
a(S'p2_tl'
I252
tp959
a(S'p2_ll'
I0
tp960
a(S'p2_th'
I1
tp961
a(S'w'
I5136
tp962
a(S'p2_tl'
I59
tp963
a(S'w'
I1
tp964
a(S'p2_ll'
I0
tp965
a(S'p2_th'
I2
tp966
a(S'w'
I4
tp967
a(S'tr_ll'
I1
tp968
a(S'w'
I10268
tp969
a(S'p2_tl'
I129
tp970
a(S'w'
I1
tp971
a(S'p2_ll'
I0
tp972
a(S'w'
I5134
tp973
a(S'p1_tl'
I200
tp974
a(S'w'
I1
tp975
a(S'p1_ll'
I0
tp976
a(S'w'
I4
tp977
a(S'p2_tl'
I144
tp978
a(S'p2_ll'
I0
tp979
a(S'p2_th'
I1
tp980
a(S'w'
I5
tp981
a(S'tr_ll'
I1
tp982
a(S'w'
I5127
tp983
a(S'p1_ll'
I0
tp984
a(S'w'
I4
tp985
a(S'w'
I1
tp986
a(S'p2_ll'
I0
tp987
a(S'w'
I5
tp988
a(S'tr_ll'
I1
tp989
a(S'w'
I5127
tp990
a(S'p1_ll'
I0
tp991
a(S'w'
I4
tp992
a(S'w'
I1
tp993
a(S'p2_ll'
I0
tp994
a(S'w'
I4
tp995
a(S'tr_ll'
I1
tp996
a(S'w'
I5127
tp997
a(S'w'
I1
tp998
a(S'p1_ll'
I0
tp999
a(S'w'
I4
tp1000
a(S'p2_tl'
I103
tp1001
a(S'p2_ll'
I0
tp1002
a(S'w'
I4
tp1003
a(S'tr_tl'
I151
tp1004
a(S'w'
I1
tp1005
a(S'tr_ll'
I1
tp1006
a(S'w'
I10263
tp1007
a(S'w'
I1
tp1008
a(S'p1_ll'
I0
tp1009
a(S'w'
I5136
tp1010
a(S'p1_ll'
I0
tp1011
a(S'w'
I5
tp1012
a(S'p2_tl'
I144
tp1013
a(S'p2_ll'
I0
tp1014
a(S'w'
I4
tp1015
a(S'tr_tl'
I160
tp1016
a(S'w'
I1
tp1017
a(S'tr_ll'
I1
tp1018
a(S'w'
I5127
tp1019
a(S'p1_tl'
I179
tp1020
a(S'p1_ll'
I0
tp1021
a(S'w'
I4
tp1022
a(S'w'
I1
tp1023
a(S'p2_ll'
I0
tp1024
a(S'w'
I4
tp1025
a(S'tr_ll'
I1
tp1026
a(S'w'
I5127
tp1027
a(S'p1_tl'
I160
tp1028
a(S'w'
I1
tp1029
a(S'p1_ll'
I0
tp1030
a(S'w'
I4
tp1031
a(S'p2_ll'
I0
tp1032
a(S'w'
I5
tp1033
a(S'tr_ll'
I1
tp1034
a(S'w'
I5127
tp1035
a(S'p1_tl'
I179
tp1036
a(S'p1_ll'
I0
tp1037
a(S'w'
I4
tp1038
a(S'p2_tl'
I103
tp1039
a(S'w'
I1
tp1040
a(S'p2_ll'
I0
tp1041
a(S'w'
I4
tp1042
a(S'tr_tl'
I151
tp1043
a(S'tr_ll'
I1
tp1044
a(S'w'
I10264
tp1045
a(S'p1_tl'
I200
tp1046
a(S'p1_ll'
I0
tp1047
a(S'w'
I5137
tp1048
a(S'p1_tl'
I134
tp1049
a(S'p1_ll'
I8
tp1050
a(S'w'
I4
tp1051
a(S'p2_tl'
I144
tp1052
a(S'w'
I1
tp1053
a(S'p2_ll'
I0
tp1054
a(S'w'
I4
tp1055
a(S'tr_tl'
I160
tp1056
a(S'tr_ll'
I1
tp1057
a(S'w'
I5129
tp1058
a(S'p2_ll'
I0
tp1059
a(S'w'
I5
tp1060
a(S'tr_ll'
I1
tp1061
a(S'w'
I5132
tp1062
a(S'p2_ll'
I0
tp1063
a(S'w'
I5
tp1064
a(S'tr_ll'
I1
tp1065
a(S'w'
I5131
tp1066
a(S'p2_tl'
I103
tp1067
a(S'w'
I1
tp1068
a(S'p2_ll'
I0
tp1069
a(S'w'
I4
tp1070
a(S'tr_tl'
I151
tp1071
a(S'tr_ll'
I1
tp1072
a(S'w'
I15405
tp1073
a(S'p2_tl'
I64
tp1074
a(S'w'
I1
tp1075
a(S'p2_ll'
I0
tp1076
a(S'w'
I4
tp1077
a(S'tr_tl'
I134
tp1078
a(S'tr_ll'
I1
tp1079
a(S'w'
I15403
tp1080
a(S'p1_tl'
I120
tp1081
a(S'w'
I1
tp1082
a(S'p1_ll'
I2
tp1083
a(S'w'
I4
tp1084
a(S'p2_tl'
I240
tp1085
a(S'p2_ll'
I8
tp1086
a(S'p2_th'
I0
tp1087
a(S'w'
I3
tp1088
a(S'tr_lr'
I64
tp1089
a(S'w'
I1
tp1090
a(S'tr_tl'
I100
tp1091
a(S'w'
I1
tp1092
a(S'tr_ll'
I1
tp1093
a(S'w'
I5127
tp1094
a(S'p1_tl'
I134
tp1095
a(S'p1_ll'
I2
tp1096
a(S'w'
I5136
tp1097
a(S'p1_tl'
I151
tp1098
a(S'w'
I1
tp1099
a(S'p1_ll'
I2
tp1100
a(S'w'
I5136
tp1101
a(S'p1_tl'
I134
tp1102
a(S'p1_ll'
I2
tp1103
a(S'w'
I5
tp1104
a(S'p2_tl'
I13
tp1105
a(S'p2_ll'
I0
tp1106
a(S'p2_th'
I1
tp1107
a(S'w'
I3
tp1108
a(S'tr_lr'
I20
tp1109
a(S'w'
I1
tp1110
a(S'tr_tl'
I106
tp1111
a(S'w'
I1
tp1112
a(S'tr_ll'
I1
tp1113
a(S'w'
I15400
tp1114
a(S'p1_tl'
I120
tp1115
a(S'p1_ll'
I2
tp1116
a(S'w'
I4
tp1117
a(S'p2_tl'
I240
tp1118
a(S'w'
I1
tp1119
a(S'p2_ll'
I8
tp1120
a(S'p2_th'
I0
tp1121
a(S'w'
I3
tp1122
a(S'tr_lr'
I64
tp1123
a(S'w'
I1
tp1124
a(S'tr_tl'
I100
tp1125
a(S'w'
I1
tp1126
a(S'tr_ll'
I1
tp1127
a(S'w'
I5126
tp1128
a(S'p1_tl'
I134
tp1129
a(S'w'
I1
tp1130
a(S'p1_ll'
I2
tp1131
a(S'w'
I5136
tp1132
a(S'p1_tl'
I151
tp1133
a(S'w'
I1
tp1134
a(S'p1_ll'
I2
tp1135
a(S'w'
I5135
tp1136
a(S'p1_tl'
I134
tp1137
a(S'w'
I1
tp1138
a(S'p1_ll'
I2
tp1139
a(S'w'
I4
tp1140
a(S'p2_tl'
I13
tp1141
a(S'w'
I1
tp1142
a(S'p2_ll'
I0
tp1143
a(S'p2_th'
I1
tp1144
a(S'w'
I3
tp1145
a(S'tr_lr'
I20
tp1146
a(S'w'
I1
tp1147
a(S'tr_tl'
I106
tp1148
a(S'tr_ll'
I1
tp1149
a(S'w'
I10264
tp1150
a(S'p1_tl'
I151
tp1151
a(S'p1_ll'
I2
tp1152
a(S'w'
I5136
tp1153
a(S'p1_tl'
I160
tp1154
a(S'w'
I1
tp1155
a(S'p1_ll'
I2
tp1156
a(S'w'
I4
tp1157
a(S'p2_tl'
I64
tp1158
a(S'w'
I1
tp1159
a(S'p2_ll'
I0
tp1160
a(S'w'
I4
tp1161
a(S'tr_tl'
I134
tp1162
a(S'tr_ll'
I1
tp1163
a(S'w'
I5127
tp1164
a(S'p1_tl'
I200
tp1165
a(S'w'
I1
tp1166
a(S'p1_ll'
I2
tp1167
a(S'w'
I5136
tp1168
a(S'p1_tl'
I240
tp1169
a(S'p1_ll'
I2
tp1170
a(S'w'
I5136
tp1171
a(S'p1_tl'
I179
tp1172
a(S'w'
I1
tp1173
a(S'p1_ll'
I8
tp1174
a(S'w'
I4
tp1175
a(S'p2_tl'
I46
tp1176
a(S'p2_ll'
I0
tp1177
a(S'w'
I5
tp1178
a(S'tr_tl'
I120
tp1179
a(S'tr_ll'
I1
tp1180
a(S'w'
I15402
tp1181
a(S'p2_tl'
I27
tp1182
a(S'p2_ll'
I0
tp1183
a(S'p2_th'
I2
tp1184
a(S'w'
I4
tp1185
a(S'tr_tl'
I134
tp1186
a(S'w'
I1
tp1187
a(S'tr_ll'
I1
tp1188
a(S'w'
I5131
tp1189
a(S'w'
I1
tp1190
a(S'p2_ll'
I0
tp1191
a(S'w'
I4
tp1192
a(S'tr_tl'
I151
tp1193
a(S'w'
I1
tp1194
a(S'tr_ll'
I1
tp1195
a(S'w'
I5131
tp1196
a(S'w'
I1
tp1197
a(S'p2_ll'
I0
tp1198
a(S'w'
I4
tp1199
a(S'tr_tl'
I134
tp1200
a(S'tr_ll'
I1
tp1201
a(S'w'
I5130
tp1202
a(S'p1_tl'
I200
tp1203
a(S'p1_ll'
I0
tp1204
a(S'w'
I5
tp1205
a(S'p2_tl'
I144
tp1206
a(S'p2_ll'
I0
tp1207
a(S'p2_th'
I1
tp1208
a(S'w'
I4
tp1209
a(S'tr_tl'
I160
tp1210
a(S'w'
I1
tp1211
a(S'tr_ll'
I1
tp1212
a(S'w'
I15402
tp1213
a(S'p2_tl'
I64
tp1214
a(S'p2_ll'
I0
tp1215
a(S'w'
I4
tp1216
a(S'tr_tl'
I127
tp1217
a(S'w'
I1
tp1218
a(S'tr_ll'
I1
tp1219
a(S'w'
I5131
tp1220
a(S'p2_tl'
I171
tp1221
a(S'w'
I1
tp1222
a(S'p2_ll'
I0
tp1223
a(S'w'
I4
tp1224
a(S'tr_tl'
I160
tp1225
a(S'tr_ll'
I1
tp1226
a(S'w'
I5132
tp1227
a(S'p2_tl'
I252
tp1228
a(S'p2_ll'
I0
tp1229
a(S'w'
I4
tp1230
a(S'tr_tl'
I213
tp1231
a(S'w'
I1
tp1232
a(S'tr_ll'
I1
tp1233
a(S'w'
I5129
tp1234
a.