(lp1
(S'clock'
p2
I1789772
tp3
a(S'ch_no'
I1
tp4
a(S'ch_tr'
I1
tp5
a(S'ch_p2'
I1
tp6
a(S'ch_p1'
I1
tp7
a(S'w'
I1
tp8
a(S'fc_mo'
I1
tp9
a(S'w'
I91
tp10
a(S'p1_cv'
I1
tp11
a(S'w'
I1
tp12
a(S'p2_cv'
I1
tp13
a(S'w'
I1
tp14
a(S'w'
I432
tp15
a(S'p1_du'
I1
tp16
a(S'p1_cv'
I0
tp17
a(S'p1_vo'
I8
tp18
a(S'p1_sp'
I7
tp19
a(S'p1_sn'
I1
tp20
a(S'p1_ss'
I7
tp21
a(S'w'
I1
tp22
a(S'p1_tl'
I179
tp23
a(S'p1_ll'
I8
tp24
a(S'w'
I3
tp25
a(S'p2_du'
I2
tp26
a(S'p2_cv'
I0
tp27
a(S'p2_vo'
I1
tp28
a(S'w'
I1
tp29
a(S'p2_sp'
I7
tp30
a(S'p2_sn'
I1
tp31
a(S'p2_ss'
I7
tp32
a(S'p2_tl'
I138
tp33
a(S'w'
I1
tp34
a(S'p2_ll'
I8
tp35
a(S'p2_th'
I3
tp36
a(S'w'
I16
tp37
a(S'w'
I7317
tp38
a(S'p1_tl'
I169
tp39
a(S'p1_ll'
I8
tp40
a(S'w'
I4
tp41
a(S'w'
I1
tp42
a(S'p2_ll'
I8
tp43
a(S'w'
I7333
tp44
a(S'p1_tl'
I151
tp45
a(S'p1_ll'
I8
tp46
a(S'w'
I4
tp47
a(S'w'
I1
tp48
a(S'p2_ll'
I8
tp49
a(S'w'
I7332
tp50
a(S'p1_tl'
I113
tp51
a(S'w'
I1
tp52
a(S'p1_ll'
I8
tp53
a(S'w'
I4
tp54
a(S'p2_tl'
I93
tp55
a(S'w'
I1
tp56
a(S'p2_ll'
I8
tp57
a(S'p2_th'
I2
tp58
a(S'w'
I7333
tp59
a(S'p1_tl'
I151
tp60
a(S'p1_ll'
I8
tp61
a(S'w'
I4
tp62
a(S'w'
I1
tp63
a(S'p2_ll'
I8
tp64
a(S'w'
I7333
tp65
a(S'p1_tl'
I169
tp66
a(S'p1_ll'
I8
tp67
a(S'w'
I4
tp68
a(S'w'
I1
tp69
a(S'p2_ll'
I8
tp70
a(S'w'
I7333
tp71
a(S'p1_tl'
I179
tp72
a(S'p1_ll'
I8
tp73
a(S'w'
I4
tp74
a(S'p2_tl'
I197
tp75
a(S'w'
I1
tp76
a(S'p2_ll'
I8
tp77
a(S'p2_th'
I1
tp78
a(S'w'
I7333
tp79
a(S'p1_tl'
I226
tp80
a(S'p1_ll'
I8
tp81
a(S'w'
I4
tp82
a(S'w'
I1
tp83
a(S'p2_ll'
I8
tp84
a(S'w'
I7333
tp85
a(S'p1_tl'
I179
tp86
a(S'p1_ll'
I8
tp87
a(S'w'
I4
tp88
a(S'w'
I1
tp89
a(S'p2_ll'
I8
tp90
a(S'w'
I7333
tp91
a(S'p1_tl'
I169
tp92
a(S'p1_ll'
I8
tp93
a(S'w'
I4
tp94
a(S'p2_tl'
I46
tp95
a(S'w'
I1
tp96
a(S'p2_ll'
I8
tp97
a(S'w'
I7333
tp98
a(S'p1_tl'
I151
tp99
a(S'p1_ll'
I8
tp100
a(S'w'
I4
tp101
a(S'w'
I1
tp102
a(S'p2_ll'
I8
tp103
a(S'w'
I7333
tp104
a(S'p1_tl'
I113
tp105
a(S'p1_ll'
I8
tp106
a(S'w'
I4
tp107
a(S'w'
I1
tp108
a(S'p2_ll'
I8
tp109
a(S'w'
I7333
tp110
a(S'p1_tl'
I151
tp111
a(S'p1_ll'
I8
tp112
a(S'w'
I4
tp113
a(S'p2_tl'
I197
tp114
a(S'w'
I1
tp115
a(S'p2_ll'
I8
tp116
a(S'w'
I7333
tp117
a(S'p1_tl'
I169
tp118
a(S'p1_ll'
I8
tp119
a(S'w'
I4
tp120
a(S'w'
I1
tp121
a(S'p2_ll'
I8
tp122
a(S'w'
I7333
tp123
a(S'p1_tl'
I179
tp124
a(S'p1_ll'
I8
tp125
a(S'w'
I4
tp126
a(S'p2_tl'
I93
tp127
a(S'w'
I1
tp128
a(S'p2_ll'
I8
tp129
a(S'p2_th'
I2
tp130
a(S'w'
I7333
tp131
a(S'p1_tl'
I226
tp132
a(S'p1_ll'
I8
tp133
a(S'w'
I4
tp134
a(S'w'
I1
tp135
a(S'p2_ll'
I8
tp136
a(S'w'
I7333
tp137
a(S'p1_tl'
I179
tp138
a(S'p1_ll'
I8
tp139
a(S'w'
I4
tp140
a(S'p2_tl'
I138
tp141
a(S'w'
I1
tp142
a(S'p2_ll'
I8
tp143
a(S'p2_th'
I3
tp144
a(S'w'
I7333
tp145
a(S'p1_tl'
I169
tp146
a(S'p1_ll'
I8
tp147
a(S'w'
I4
tp148
a(S'w'
I1
tp149
a(S'p2_ll'
I8
tp150
a(S'w'
I7333
tp151
a(S'p1_tl'
I151
tp152
a(S'p1_ll'
I8
tp153
a(S'w'
I4
tp154
a(S'w'
I1
tp155
a(S'p2_ll'
I8
tp156
a(S'w'
I7333
tp157
a(S'p1_tl'
I113
tp158
a(S'p1_ll'
I8
tp159
a(S'w'
I4
tp160
a(S'p2_tl'
I93
tp161
a(S'w'
I1
tp162
a(S'p2_ll'
I8
tp163
a(S'p2_th'
I2
tp164
a(S'w'
I7333
tp165
a(S'p1_tl'
I151
tp166
a(S'p1_ll'
I8
tp167
a(S'w'
I4
tp168
a(S'w'
I1
tp169
a(S'p2_ll'
I8
tp170
a(S'w'
I7333
tp171
a(S'p1_tl'
I169
tp172
a(S'p1_ll'
I8
tp173
a(S'w'
I4
tp174
a(S'w'
I1
tp175
a(S'p2_ll'
I8
tp176
a(S'w'
I7333
tp177
a(S'p1_tl'
I179
tp178
a(S'p1_ll'
I8
tp179
a(S'w'
I5
tp180
a(S'p2_tl'
I197
tp181
a(S'p2_ll'
I8
tp182
a(S'p2_th'
I1
tp183
a(S'w'
I7333
tp184
a(S'p1_tl'
I226
tp185
a(S'p1_ll'
I8
tp186
a(S'w'
I4
tp187
a(S'w'
I1
tp188
a(S'p2_ll'
I8
tp189
a(S'w'
I7333
tp190
a(S'p1_tl'
I179
tp191
a(S'p1_ll'
I8
tp192
a(S'w'
I4
tp193
a(S'p2_tl'
I93
tp194
a(S'w'
I1
tp195
a(S'p2_ll'
I8
tp196
a(S'p2_th'
I2
tp197
a(S'w'
I7333
tp198
a(S'p1_tl'
I169
tp199
a(S'p1_ll'
I8
tp200
a(S'w'
I4
tp201
a(S'w'
I1
tp202
a(S'p2_ll'
I8
tp203
a(S'w'
I7333
tp204
a(S'p1_tl'
I151
tp205
a(S'p1_ll'
I8
tp206
a(S'w'
I5
tp207
a(S'p2_tl'
I138
tp208
a(S'p2_ll'
I8
tp209
a(S'p2_th'
I3
tp210
a(S'w'
I7333
tp211
a(S'p1_tl'
I113
tp212
a(S'p1_ll'
I8
tp213
a(S'w'
I4
tp214
a(S'w'
I1
tp215
a(S'p2_ll'
I8
tp216
a(S'w'
I7333
tp217
a(S'p1_tl'
I151
tp218
a(S'w'
I1
tp219
a(S'p1_ll'
I8
tp220
a(S'w'
I4
tp221
a(S'p2_tl'
I249
tp222
a(S'p2_ll'
I8
tp223
a(S'w'
I7333
tp224
a(S'p1_tl'
I169
tp225
a(S'w'
I1
tp226
a(S'p1_ll'
I8
tp227
a(S'w'
I4
tp228
a(S'p2_ll'
I8
tp229
a(S'w'
I7333
tp230
a(S'p1_tl'
I179
tp231
a(S'w'
I1
tp232
a(S'p1_ll'
I8
tp233
a(S'w'
I4
tp234
a(S'p2_ll'
I8
tp235
a(S'w'
I7333
tp236
a(S'p1_tl'
I226
tp237
a(S'p1_ll'
I8
tp238
a(S'w'
I5
tp239
a(S'p2_tl'
I167
tp240
a(S'p2_ll'
I8
tp241
a(S'p2_th'
I2
tp242
a(S'w'
I7333
tp243
a(S'p1_tl'
I179
tp244
a(S'p1_ll'
I8
tp245
a(S'w'
I5
tp246
a(S'p2_ll'
I8
tp247
a(S'w'
I7333
tp248
a(S'p1_tl'
I169
tp249
a(S'w'
I1
tp250
a(S'p1_ll'
I8
tp251
a(S'w'
I4
tp252
a(S'p2_ll'
I8
tp253
a(S'w'
I7333
tp254
a(S'p1_tl'
I151
tp255
a(S'w'
I1
tp256
a(S'p1_ll'
I8
tp257
a(S'w'
I4
tp258
a(S'p2_tl'
I252
tp259
a(S'p2_ll'
I8
tp260
a(S'p2_th'
I1
tp261
a(S'w'
I7333
tp262
a(S'p1_tl'
I113
tp263
a(S'p1_ll'
I8
tp264
a(S'w'
I5
tp265
a(S'p2_ll'
I8
tp266
a(S'w'
I7333
tp267
a(S'p1_tl'
I151
tp268
a(S'w'
I1
tp269
a(S'p1_ll'
I8
tp270
a(S'w'
I4
tp271
a(S'p2_ll'
I8
tp272
a(S'w'
I7333
tp273
a(S'p1_tl'
I169
tp274
a(S'w'
I1
tp275
a(S'p1_ll'
I8
tp276
a(S'w'
I4
tp277
a(S'p2_tl'
I83
tp278
a(S'p2_ll'
I8
tp279
a(S'w'
I7333
tp280
a(S'p1_tl'
I179
tp281
a(S'p1_ll'
I8
tp282
a(S'w'
I5
tp283
a(S'p2_ll'
I8
tp284
a(S'w'
I7333
tp285
a(S'p1_tl'
I226
tp286
a(S'w'
I1
tp287
a(S'p1_ll'
I8
tp288
a(S'w'
I4
tp289
a(S'p2_ll'
I8
tp290
a(S'w'
I7333
tp291
a(S'p1_tl'
I179
tp292
a(S'w'
I1
tp293
a(S'p1_ll'
I8
tp294
a(S'w'
I4
tp295
a(S'p2_tl'
I252
tp296
a(S'p2_ll'
I8
tp297
a(S'w'
I7333
tp298
a(S'p1_tl'
I169
tp299
a(S'w'
I1
tp300
a(S'p1_ll'
I8
tp301
a(S'w'
I4
tp302
a(S'p2_ll'
I8
tp303
a(S'w'
I7333
tp304
a(S'p1_tl'
I151
tp305
a(S'w'
I1
tp306
a(S'p1_ll'
I8
tp307
a(S'w'
I4
tp308
a(S'p2_tl'
I167
tp309
a(S'p2_ll'
I8
tp310
a(S'p2_th'
I2
tp311
a(S'w'
I7333
tp312
a(S'p1_tl'
I113
tp313
a(S'w'
I1
tp314
a(S'p1_ll'
I8
tp315
a(S'w'
I4
tp316
a(S'p2_ll'
I8
tp317
a(S'w'
I7333
tp318
a(S'p1_tl'
I151
tp319
a(S'w'
I1
tp320
a(S'p1_ll'
I8
tp321
a(S'w'
I4
tp322
a(S'p2_tl'
I249
tp323
a(S'p2_ll'
I8
tp324
a(S'p2_th'
I3
tp325
a(S'w'
I7333
tp326
a(S'p1_tl'
I169
tp327
a(S'w'
I1
tp328
a(S'p1_ll'
I8
tp329
a(S'w'
I4
tp330
a(S'p2_ll'
I8
tp331
a(S'w'
I7333
tp332
a(S'p1_tl'
I179
tp333
a(S'w'
I1
tp334
a(S'p1_ll'
I8
tp335
a(S'w'
I4
tp336
a(S'p2_ll'
I8
tp337
a(S'w'
I7333
tp338
a(S'p1_tl'
I226
tp339
a(S'w'
I1
tp340
a(S'p1_ll'
I8
tp341
a(S'w'
I4
tp342
a(S'p2_tl'
I167
tp343
a(S'p2_ll'
I8
tp344
a(S'p2_th'
I2
tp345
a(S'w'
I7333
tp346
a(S'p1_tl'
I179
tp347
a(S'w'
I1
tp348
a(S'p1_ll'
I8
tp349
a(S'w'
I4
tp350
a(S'p2_ll'
I8
tp351
a(S'w'
I7333
tp352
a(S'p1_tl'
I169
tp353
a(S'w'
I1
tp354
a(S'p1_ll'
I8
tp355
a(S'w'
I4
tp356
a(S'p2_ll'
I8
tp357
a(S'w'
I7333
tp358
a(S'p1_tl'
I151
tp359
a(S'w'
I1
tp360
a(S'p1_ll'
I8
tp361
a(S'w'
I4
tp362
a(S'p2_tl'
I252
tp363
a(S'p2_ll'
I8
tp364
a(S'p2_th'
I1
tp365
a(S'w'
I7333
tp366
a(S'p1_tl'
I113
tp367
a(S'w'
I1
tp368
a(S'p1_ll'
I8
tp369
a(S'w'
I4
tp370
a(S'p2_ll'
I8
tp371
a(S'w'
I7333
tp372
a(S'p1_tl'
I151
tp373
a(S'w'
I1
tp374
a(S'p1_ll'
I8
tp375
a(S'w'
I4
tp376
a(S'p2_tl'
I167
tp377
a(S'p2_ll'
I8
tp378
a(S'p2_th'
I2
tp379
a(S'w'
I7333
tp380
a(S'p1_tl'
I169
tp381
a(S'w'
I1
tp382
a(S'p1_ll'
I8
tp383
a(S'w'
I4
tp384
a(S'p2_ll'
I8
tp385
a(S'w'
I7333
tp386
a(S'p1_tl'
I179
tp387
a(S'w'
I1
tp388
a(S'p1_ll'
I8
tp389
a(S'w'
I4
tp390
a(S'p2_tl'
I249
tp391
a(S'p2_ll'
I8
tp392
a(S'p2_th'
I3
tp393
a(S'w'
I7333
tp394
a(S'p1_tl'
I226
tp395
a(S'w'
I1
tp396
a(S'p1_ll'
I8
tp397
a(S'w'
I4
tp398
a(S'p2_ll'
I8
tp399
a(S'w'
I7333
tp400
a(S'p1_tl'
I190
tp401
a(S'w'
I1
tp402
a(S'p1_ll'
I8
tp403
a(S'w'
I4
tp404
a(S'p2_tl'
I118
tp405
a(S'w'
I1
tp406
a(S'p2_ll'
I8
tp407
a(S'p2_th'
I4
tp408
a(S'w'
I7332
tp409
a(S'p1_tl'
I169
tp410
a(S'w'
I1
tp411
a(S'p1_ll'
I8
tp412
a(S'w'
I4
tp413
a(S'w'
I1
tp414
a(S'p2_ll'
I8
tp415
a(S'w'
I7332
tp416
a(S'p1_tl'
I151
tp417
a(S'w'
I1
tp418
a(S'p1_ll'
I8
tp419
a(S'w'
I4
tp420
a(S'w'
I1
tp421
a(S'p2_ll'
I8
tp422
a(S'w'
I7332
tp423
a(S'p1_tl'
I113
tp424
a(S'w'
I1
tp425
a(S'p1_ll'
I8
tp426
a(S'w'
I4
tp427
a(S'p2_tl'
I250
tp428
a(S'p2_ll'
I8
tp429
a(S'p2_th'
I2
tp430
a(S'w'
I7333
tp431
a(S'p1_tl'
I151
tp432
a(S'w'
I1
tp433
a(S'p1_ll'
I8
tp434
a(S'w'
I4
tp435
a(S'p2_ll'
I8
tp436
a(S'w'
I7333
tp437
a(S'p1_tl'
I169
tp438
a(S'w'
I1
tp439
a(S'p1_ll'
I8
tp440
a(S'w'
I4
tp441
a(S'w'
I1
tp442
a(S'p2_ll'
I8
tp443
a(S'w'
I7332
tp444
a(S'p1_tl'
I190
tp445
a(S'w'
I1
tp446
a(S'p1_ll'
I8
tp447
a(S'w'
I4
tp448
a(S'p2_tl'
I59
tp449
a(S'w'
I1
tp450
a(S'p2_ll'
I8
tp451
a(S'w'
I7332
tp452
a(S'p1_tl'
I226
tp453
a(S'w'
I1
tp454
a(S'p1_ll'
I8
tp455
a(S'w'
I4
tp456
a(S'w'
I1
tp457
a(S'p2_ll'
I8
tp458
a(S'w'
I7332
tp459
a(S'p1_tl'
I190
tp460
a(S'w'
I1
tp461
a(S'p1_ll'
I8
tp462
a(S'w'
I4
tp463
a(S'w'
I1
tp464
a(S'p2_ll'
I8
tp465
a(S'w'
I7332
tp466
a(S'p1_tl'
I169
tp467
a(S'w'
I1
tp468
a(S'p1_ll'
I8
tp469
a(S'w'
I4
tp470
a(S'p2_tl'
I125
tp471
a(S'w'
I1
tp472
a(S'p2_ll'
I8
tp473
a(S'p2_th'
I1
tp474
a(S'w'
I7332
tp475
a(S'p1_tl'
I151
tp476
a(S'w'
I1
tp477
a(S'p1_ll'
I8
tp478
a(S'w'
I4
tp479
a(S'w'
I1
tp480
a(S'p2_ll'
I8
tp481
a(S'w'
I7332
tp482
a(S'p1_tl'
I113
tp483
a(S'w'
I1
tp484
a(S'p1_ll'
I8
tp485
a(S'w'
I4
tp486
a(S'w'
I1
tp487
a(S'p2_ll'
I8
tp488
a(S'w'
I7333
tp489
a(S'p1_tl'
I151
tp490
a(S'p1_ll'
I8
tp491
a(S'w'
I4
tp492
a(S'p2_tl'
I59
tp493
a(S'w'
I1
tp494
a(S'p2_ll'
I8
tp495
a(S'p2_th'
I2
tp496
a(S'w'
I7332
tp497
a(S'p1_tl'
I169
tp498
a(S'w'
I1
tp499
a(S'p1_ll'
I8
tp500
a(S'w'
I4
tp501
a(S'w'
I1
tp502
a(S'p2_ll'
I8
tp503
a(S'w'
I7332
tp504
a(S'p1_tl'
I190
tp505
a(S'w'
I1
tp506
a(S'p1_ll'
I8
tp507
a(S'w'
I4
tp508
a(S'p2_tl'
I250
tp509
a(S'w'
I1
tp510
a(S'p2_ll'
I8
tp511
a(S'w'
I7333
tp512
a(S'p1_tl'
I226
tp513
a(S'p1_ll'
I8
tp514
a(S'w'
I4
tp515
a(S'w'
I1
tp516
a(S'p2_ll'
I8
tp517
a(S'w'
I7332
tp518
a(S'p1_tl'
I190
tp519
a(S'w'
I1
tp520
a(S'p1_ll'
I8
tp521
a(S'w'
I4
tp522
a(S'p2_tl'
I118
tp523
a(S'w'
I1
tp524
a(S'p2_ll'
I8
tp525
a(S'p2_th'
I4
tp526
a(S'w'
I7332
tp527
a(S'p1_tl'
I169
tp528
a(S'w'
I1
tp529
a(S'p1_ll'
I8
tp530
a(S'w'
I4
tp531
a(S'w'
I1
tp532
a(S'p2_ll'
I8
tp533
a(S'w'
I7333
tp534
a(S'p1_tl'
I151
tp535
a(S'p1_ll'
I8
tp536
a(S'w'
I4
tp537
a(S'w'
I1
tp538
a(S'p2_ll'
I8
tp539
a(S'w'
I7333
tp540
a(S'p1_tl'
I113
tp541
a(S'p1_ll'
I8
tp542
a(S'w'
I4
tp543
a(S'p2_tl'
I250
tp544
a(S'w'
I1
tp545
a(S'p2_ll'
I8
tp546
a(S'p2_th'
I2
tp547
a(S'w'
I7333
tp548
a(S'p1_tl'
I151
tp549
a(S'p1_ll'
I8
tp550
a(S'w'
I4
tp551
a(S'w'
I1
tp552
a(S'p2_ll'
I8
tp553
a(S'w'
I7333
tp554
a(S'p1_tl'
I169
tp555
a(S'p1_ll'
I8
tp556
a(S'w'
I4
tp557
a(S'w'
I1
tp558
a(S'p2_ll'
I8
tp559
a(S'w'
I7333
tp560
a(S'p1_tl'
I190
tp561
a(S'p1_ll'
I8
tp562
a(S'w'
I4
tp563
a(S'p2_tl'
I59
tp564
a(S'w'
I1
tp565
a(S'p2_ll'
I8
tp566
a(S'w'
I7333
tp567
a(S'p1_tl'
I226
tp568
a(S'p1_ll'
I8
tp569
a(S'w'
I4
tp570
a(S'w'
I1
tp571
a(S'p2_ll'
I8
tp572
a(S'w'
I7333
tp573
a(S'p1_tl'
I190
tp574
a(S'p1_ll'
I8
tp575
a(S'w'
I4
tp576
a(S'p2_tl'
I250
tp577
a(S'w'
I1
tp578
a(S'p2_ll'
I8
tp579
a(S'w'
I7333
tp580
a(S'p1_tl'
I169
tp581
a(S'p1_ll'
I8
tp582
a(S'w'
I4
tp583
a(S'w'
I1
tp584
a(S'p2_ll'
I8
tp585
a(S'w'
I7333
tp586
a(S'p1_tl'
I151
tp587
a(S'p1_ll'
I8
tp588
a(S'w'
I4
tp589
a(S'p2_tl'
I118
tp590
a(S'w'
I1
tp591
a(S'p2_ll'
I8
tp592
a(S'p2_th'
I4
tp593
a(S'w'
I7333
tp594
a(S'p1_tl'
I113
tp595
a(S'p1_ll'
I8
tp596
a(S'w'
I4
tp597
a(S'w'
I1
tp598
a(S'p2_ll'
I8
tp599
a(S'w'
I7333
tp600
a(S'p1_tl'
I151
tp601
a(S'p1_ll'
I8
tp602
a(S'w'
I4
tp603
a(S'p2_tl'
I186
tp604
a(S'w'
I1
tp605
a(S'p2_ll'
I8
tp606
a(S'w'
I7333
tp607
a(S'p1_tl'
I169
tp608
a(S'p1_ll'
I8
tp609
a(S'w'
I4
tp610
a(S'w'
I1
tp611
a(S'p2_ll'
I8
tp612
a(S'w'
I7333
tp613
a(S'p1_tl'
I190
tp614
a(S'p1_ll'
I8
tp615
a(S'w'
I4
tp616
a(S'w'
I1
tp617
a(S'p2_ll'
I8
tp618
a(S'w'
I7333
tp619
a(S'p1_tl'
I226
tp620
a(S'p1_ll'
I8
tp621
a(S'w'
I4
tp622
a(S'p2_tl'
I33
tp623
a(S'w'
I1
tp624
a(S'p2_ll'
I8
tp625
a(S'p2_th'
I3
tp626
a(S'w'
I7333
tp627
a(S'p1_tl'
I190
tp628
a(S'p1_ll'
I8
tp629
a(S'w'
I4
tp630
a(S'w'
I1
tp631
a(S'p2_ll'
I8
tp632
a(S'w'
I7333
tp633
a(S'p1_tl'
I169
tp634
a(S'p1_ll'
I8
tp635
a(S'w'
I4
tp636
a(S'w'
I1
tp637
a(S'p2_ll'
I8
tp638
a(S'w'
I7333
tp639
a(S'p1_tl'
I151
tp640
a(S'p1_ll'
I8
tp641
a(S'w'
I4
tp642
a(S'p2_tl'
I93
tp643
a(S'w'
I1
tp644
a(S'p2_ll'
I8
tp645
a(S'p2_th'
I2
tp646
a(S'w'
I7333
tp647
a(S'p1_tl'
I113
tp648
a(S'p1_ll'
I8
tp649
a(S'w'
I4
tp650
a(S'w'
I1
tp651
a(S'p2_ll'
I8
tp652
a(S'w'
I7333
tp653
a(S'p1_tl'
I151
tp654
a(S'p1_ll'
I8
tp655
a(S'w'
I4
tp656
a(S'w'
I1
tp657
a(S'p2_ll'
I8
tp658
a(S'w'
I7333
tp659
a(S'p1_tl'
I169
tp660
a(S'p1_ll'
I8
tp661
a(S'w'
I4
tp662
a(S'p2_tl'
I144
tp663
a(S'w'
I1
tp664
a(S'p2_ll'
I8
tp665
a(S'p2_th'
I1
tp666
a(S'w'
I7333
tp667
a(S'p1_tl'
I190
tp668
a(S'p1_ll'
I8
tp669
a(S'w'
I4
tp670
a(S'w'
I1
tp671
a(S'p2_ll'
I8
tp672
a(S'w'
I7333
tp673
a(S'p1_tl'
I226
tp674
a(S'p1_ll'
I8
tp675
a(S'w'
I4
tp676
a(S'w'
I1
tp677
a(S'p2_ll'
I8
tp678
a(S'w'
I7333
tp679
a(S'p1_tl'
I190
tp680
a(S'p1_ll'
I8
tp681
a(S'w'
I5
tp682
a(S'p2_tl'
I93
tp683
a(S'p2_ll'
I8
tp684
a(S'p2_th'
I2
tp685
a(S'w'
I7333
tp686
a(S'p1_tl'
I169
tp687
a(S'p1_ll'
I8
tp688
a(S'w'
I5
tp689
a(S'p2_ll'
I8
tp690
a(S'w'
I7333
tp691
a(S'p1_tl'
I151
tp692
a(S'p1_ll'
I8
tp693
a(S'w'
I4
tp694
a(S'p2_tl'
I33
tp695
a(S'w'
I1
tp696
a(S'p2_ll'
I8
tp697
a(S'p2_th'
I3
tp698
a(S'w'
I7333
tp699
a(S'p1_tl'
I113
tp700
a(S'w'
I1
tp701
a(S'p1_ll'
I8
tp702
a(S'w'
I4
tp703
a(S'p2_ll'
I8
tp704
a(S'w'
I7333
tp705
a(S'p1_tl'
I151
tp706
a(S'p1_ll'
I8
tp707
a(S'w'
I5
tp708
a(S'p2_tl'
I186
tp709
a(S'p2_ll'
I8
tp710
a(S'p2_th'
I4
tp711
a(S'w'
I7333
tp712
a(S'p1_tl'
I169
tp713
a(S'w'
I1
tp714
a(S'p1_ll'
I8
tp715
a(S'w'
I4
tp716
a(S'p2_ll'
I8
tp717
a(S'w'
I7333
tp718
a(S'p1_tl'
I190
tp719
a(S'w'
I1
tp720
a(S'p1_ll'
I8
tp721
a(S'w'
I4
tp722
a(S'p2_ll'
I8
tp723
a(S'w'
I7333
tp724
a(S'p1_tl'
I226
tp725
a(S'p1_ll'
I8
tp726
a(S'w'
I5
tp727
a(S'p2_tl'
I33
tp728
a(S'p2_ll'
I8
tp729
a(S'p2_th'
I3
tp730
a(S'w'
I7333
tp731
a(S'p1_tl'
I190
tp732
a(S'w'
I1
tp733
a(S'p1_ll'
I8
tp734
a(S'w'
I4
tp735
a(S'p2_ll'
I8
tp736
a(S'w'
I7333
tp737
a(S'p1_tl'
I169
tp738
a(S'w'
I1
tp739
a(S'p1_ll'
I8
tp740
a(S'w'
I4
tp741
a(S'p2_ll'
I8
tp742
a(S'w'
I7333
tp743
a(S'p1_tl'
I151
tp744
a(S'w'
I1
tp745
a(S'p1_ll'
I8
tp746
a(S'w'
I4
tp747
a(S'p2_tl'
I93
tp748
a(S'p2_ll'
I8
tp749
a(S'p2_th'
I2
tp750
a(S'w'
I7333
tp751
a(S'p1_tl'
I113
tp752
a(S'w'
I1
tp753
a(S'p1_ll'
I8
tp754
a(S'w'
I4
tp755
a(S'p2_ll'
I8
tp756
a(S'w'
I7333
tp757
a(S'p1_tl'
I151
tp758
a(S'w'
I1
tp759
a(S'p1_ll'
I8
tp760
a(S'w'
I4
tp761
a(S'p2_tl'
I33
tp762
a(S'p2_ll'
I8
tp763
a(S'p2_th'
I3
tp764
a(S'w'
I7333
tp765
a(S'p1_tl'
I169
tp766
a(S'w'
I1
tp767
a(S'p1_ll'
I8
tp768
a(S'w'
I4
tp769
a(S'p2_ll'
I8
tp770
a(S'w'
I7333
tp771
a(S'p1_tl'
I190
tp772
a(S'w'
I1
tp773
a(S'p1_ll'
I8
tp774
a(S'w'
I4
tp775
a(S'p2_tl'
I186
tp776
a(S'p2_ll'
I8
tp777
a(S'p2_th'
I4
tp778
a(S'w'
I7333
tp779
a(S'p1_tl'
I226
tp780
a(S'w'
I1
tp781
a(S'p1_ll'
I8
tp782
a(S'w'
I4
tp783
a(S'p2_ll'
I8
tp784
a(S'w'
I7332
tp785
a.