(lp1
(S'clock'
p2
I1789772
tp3
a(S'w'
I55
tp4
a(S'ch_no'
I1
tp5
a(S'ch_tr'
I1
tp6
a(S'ch_p2'
I1
tp7
a(S'ch_p1'
I1
tp8
a(S'fc_mo'
I1
tp9
a(S'w'
I92
tp10
a(S'p1_cv'
I1
tp11
a(S'w'
I1
tp12
a(S'p2_cv'
I1
tp13
a(S'w'
I1
tp14
a(S'w'
I443
tp15
a(S'p1_du'
I2
tp16
a(S'p1_cv'
I0
tp17
a(S'p1_vo'
I14
tp18
a(S'p1_sp'
I7
tp19
a(S'p1_sn'
I1
tp20
a(S'p1_ss'
I7
tp21
a(S'w'
I1
tp22
a(S'p1_tl'
I169
tp23
a(S'p1_ll'
I8
tp24
a(S'w'
I3
tp25
a(S'p2_cv'
I0
tp26
a(S'p2_vo'
I15
tp27
a(S'w'
I1
tp28
a(S'p2_sp'
I7
tp29
a(S'p2_sn'
I1
tp30
a(S'p2_ss'
I7
tp31
a(S'w'
I1
tp32
a(S'p2_tl'
I13
tp33
a(S'p2_ll'
I8
tp34
a(S'p2_th'
I1
tp35
a(S'w'
I3
tp36
a(S'tr_lr'
I99
tp37
a(S'w'
I1
tp38
a(S'tr_tl'
I83
tp39
a(S'w'
I1
tp40
a(S'tr_ll'
I1
tp41
a(S'tr_th'
I1
tp42
a(S'w'
I35211
tp43
a(S'p1_vo'
I2
tp44
a(S'w'
I1
tp45
a(S'w'
I1
tp46
a(S'p1_ll'
I8
tp47
a(S'w'
I3
tp48
a(S'p2_vo'
I2
tp49
a(S'w'
I1
tp50
a(S'p2_ll'
I8
tp51
a(S'w'
I3
tp52
a(S'tr_lr'
I64
tp53
a(S'w'
I2
tp54
a(S'tr_ll'
I1
tp55
a(S'w'
I5861
tp56
a(S'p1_ll'
I8
tp57
a(S'w'
I4
tp58
a(S'w'
I1
tp59
a(S'p2_ll'
I8
tp60
a(S'w'
I5864
tp61
a(S'p1_vo'
I14
tp62
a(S'w'
I1
tp63
a(S'p1_tl'
I190
tp64
a(S'w'
I1
tp65
a(S'p1_ll'
I8
tp66
a(S'w'
I3
tp67
a(S'p2_vo'
I15
tp68
a(S'w'
I1
tp69
a(S'p2_tl'
I226
tp70
a(S'p2_ll'
I8
tp71
a(S'p2_th'
I0
tp72
a(S'w'
I4
tp73
a(S'tr_tl'
I29
tp74
a(S'w'
I1
tp75
a(S'tr_ll'
I1
tp76
a(S'w'
I23472
tp77
a(S'p1_tl'
I142
tp78
a(S'p1_ll'
I8
tp79
a(S'w'
I4
tp80
a(S'w'
I1
tp81
a(S'p2_ll'
I8
tp82
a(S'w'
I3
tp83
a(S'tr_lr'
I42
tp84
a(S'w'
I1
tp85
a(S'tr_ll'
I1
tp86
a(S'w'
I11731
tp87
a(S'p1_tl'
I151
tp88
a(S'w'
I1
tp89
a(S'p1_ll'
I8
tp90
a(S'w'
I4
tp91
a(S'p2_tl'
I254
tp92
a(S'w'
I1
tp93
a(S'p2_ll'
I8
tp94
a(S'w'
I4
tp95
a(S'tr_tl'
I254
tp96
a(S'tr_ll'
I1
tp97
a(S'tr_th'
I0
tp98
a(S'w'
I11730
tp99
a(S'p1_vo'
I2
tp100
a(S'w'
I1
tp101
a(S'p1_tl'
I169
tp102
a(S'w'
I1
tp103
a(S'p1_ll'
I8
tp104
a(S'w'
I3
tp105
a(S'p2_vo'
I2
tp106
a(S'w'
I1
tp107
a(S'p2_tl'
I13
tp108
a(S'w'
I1
tp109
a(S'p2_ll'
I8
tp110
a(S'p2_th'
I1
tp111
a(S'w'
I4
tp112
a(S'tr_tl'
I226
tp113
a(S'tr_ll'
I1
tp114
a(S'w'
I5861
tp115
a(S'p1_ll'
I8
tp116
a(S'w'
I4
tp117
a(S'w'
I1
tp118
a(S'p2_ll'
I8
tp119
a(S'w'
I5864
tp120
a(S'p1_lh'
I1
tp121
a(S'p1_cv'
I1
tp122
a(S'p1_vo'
I15
tp123
a(S'w'
I1
tp124
a(S'w'
I1
tp125
a(S'p1_ll'
I8
tp126
a(S'w'
I3
tp127
a(S'p2_lh'
I1
tp128
a(S'p2_cv'
I1
tp129
a(S'p2_vo'
I15
tp130
a(S'w'
I1
tp131
a(S'p2_ll'
I8
tp132
a(S'w'
I3
tp133
a(S'tr_lh'
I1
tp134
a(S'tr_lr'
I127
tp135
a(S'w'
I2
tp136
a(S'tr_ll'
I1
tp137
a(S'w'
I39760
tp138
a.