(lp1
(S'clock'
p2
I1789772
tp3
a(S'p1_du'
I1
tp4
a(S'p1_lh'
I1
tp5
a(S'p1_cv'
I1
tp6
a(S'p2_du'
I1
tp7
a(S'p2_lh'
I1
tp8
a(S'p2_cv'
I1
tp9
a(S'tr_lr'
I112
tp10
a(S'no_nl'
I1
tp11
a(S'no_np'
I15
tp12
a(S'w'
I45
tp13
a(S'p1_lh'
I0
tp14
a(S'p1_cv'
I0
tp15
a(S'p1_vo'
I2
tp16
a(S'p1_sp'
I7
tp17
a(S'p1_sn'
I1
tp18
a(S'p1_tl'
I252
tp19
a(S'w'
I1
tp20
a(S'p1_ll'
I1
tp21
a(S'p1_th'
I1
tp22
a(S'w'
I2
tp23
a(S'p2_du'
I0
tp24
a(S'p2_lh'
I0
tp25
a(S'p2_cv'
I0
tp26
a(S'p2_vo'
I4
tp27
a(S'w'
I1
tp28
a(S'p2_tl'
I249
tp29
a(S'p2_ll'
I0
tp30
a(S'p2_th'
I3
tp31
a(S'w'
I2
tp32
a(S'tr_lr'
I111
tp33
a(S'w'
I1
tp34
a(S'tr_tl'
I83
tp35
a(S'tr_ll'
I2
tp36
a(S'tr_th'
I1
tp37
a(S'w'
I4385
tp38
a(S'p1_tl'
I83
tp39
a(S'p1_ll'
I1
tp40
a(S'w'
I3
tp41
a(S'p2_ll'
I0
tp42
a(S'w'
I5134
tp43
a(S'p1_tl'
I252
tp44
a(S'p1_ll'
I1
tp45
a(S'w'
I3
tp46
a(S'p2_ll'
I0
tp47
a(S'w'
I4403
tp48
a(S'p1_tl'
I167
tp49
a(S'w'
I1
tp50
a(S'p1_ll'
I1
tp51
a(S'p1_th'
I2
tp52
a(S'w'
I2
tp53
a(S'w'
I1
tp54
a(S'p2_ll'
I0
tp55
a(S'w'
I3
tp56
a(S'tr_ll'
I2
tp57
a(S'w'
I5126
tp58
a(S'p1_tl'
I252
tp59
a(S'p1_ll'
I1
tp60
a(S'p1_th'
I1
tp61
a(S'w'
I3
tp62
a(S'p2_ll'
I0
tp63
a(S'w'
I4400
tp64
a(S'p1_tl'
I83
tp65
a(S'p1_ll'
I1
tp66
a(S'w'
I3
tp67
a(S'p2_ll'
I0
tp68
a(S'w'
I5137
tp69
a(S'p1_ll'
I1
tp70
a(S'w'
I3
tp71
a(S'p2_tl'
I167
tp72
a(S'p2_ll'
I0
tp73
a(S'p2_th'
I2
tp74
a(S'w'
I3
tp75
a(S'tr_ll'
I2
tp76
a(S'w'
I4393
tp77
a(S'p1_tl'
I226
tp78
a(S'p1_ll'
I1
tp79
a(S'p1_th'
I0
tp80
a(S'w'
I3
tp81
a(S'p2_ll'
I0
tp82
a(S'w'
I5134
tp83
a(S'p1_tl'
I83
tp84
a(S'p1_ll'
I1
tp85
a(S'p1_th'
I1
tp86
a(S'w'
I3
tp87
a(S'p2_ll'
I0
tp88
a(S'w'
I4403
tp89
a(S'p1_tl'
I226
tp90
a(S'p1_ll'
I1
tp91
a(S'p1_th'
I0
tp92
a(S'w'
I3
tp93
a(S'p2_ll'
I0
tp94
a(S'w'
I4
tp95
a(S'tr_ll'
I2
tp96
a(S'w'
I5126
tp97
a(S'p1_tl'
I83
tp98
a(S'p1_ll'
I1
tp99
a(S'p1_th'
I1
tp100
a(S'w'
I3
tp101
a(S'p2_ll'
I0
tp102
a(S'w'
I4400
tp103
a(S'p1_tl'
I226
tp104
a(S'p1_ll'
I1
tp105
a(S'p1_th'
I0
tp106
a(S'w'
I3
tp107
a(S'p2_ll'
I0
tp108
a(S'w'
I5137
tp109
a(S'p1_tl'
I252
tp110
a(S'p1_ll'
I1
tp111
a(S'p1_th'
I1
tp112
a(S'w'
I3
tp113
a(S'p2_tl'
I249
tp114
a(S'p2_ll'
I0
tp115
a(S'p2_th'
I3
tp116
a(S'w'
I3
tp117
a(S'tr_ll'
I2
tp118
a(S'w'
I13933
tp119
a(S'no_lh'
I1
tp120
a(S'no_cv'
I1
tp121
a(S'w'
I1
tp122
a(S'tr_lr'
I112
tp123
a(S'w'
I2
tp124
a(S'p2_du'
I1
tp125
a(S'p2_lh'
I1
tp126
a(S'p2_cv'
I1
tp127
a(S'p2_vo'
I0
tp128
a(S'w'
I41424
tp129
a.