(lp1
(S'clock'
p2
I1789772
tp3
a(S'p1_du'
I1
tp4
a(S'p1_lh'
I1
tp5
a(S'p1_cv'
I1
tp6
a(S'p2_du'
I1
tp7
a(S'p2_lh'
I1
tp8
a(S'p2_cv'
I1
tp9
a(S'tr_lr'
I112
tp10
a(S'no_nl'
I1
tp11
a(S'no_np'
I15
tp12
a(S'w'
I48
tp13
a(S'p1_du'
I2
tp14
a(S'p1_lh'
I0
tp15
a(S'p1_cv'
I0
tp16
a(S'p1_vo'
I8
tp17
a(S'p1_se'
I1
tp18
a(S'p1_sp'
I7
tp19
a(S'p1_tl'
I100
tp20
a(S'w'
I1
tp21
a(S'p1_ll'
I1
tp22
a(S'w'
I2
tp23
a(S'p2_du'
I2
tp24
a(S'p2_lh'
I0
tp25
a(S'p2_cv'
I0
tp26
a(S'p2_vo'
I8
tp27
a(S'p2_se'
I1
tp28
a(S'p2_sp'
I7
tp29
a(S'w'
I1
tp30
a(S'p2_tl'
I127
tp31
a(S'p2_ll'
I1
tp32
a(S'w'
I2
tp33
a(S'tr_lr'
I32
tp34
a(S'w'
I1
tp35
a(S'tr_tl'
I50
tp36
a(S'tr_ll'
I0
tp37
a(S'w'
I10992
tp38
a(S'p1_tl'
I100
tp39
a(S'p1_ll'
I1
tp40
a(S'w'
I3
tp41
a(S'p2_tl'
I127
tp42
a(S'w'
I1
tp43
a(S'p2_ll'
I1
tp44
a(S'w'
I3
tp45
a(S'tr_tl'
I84
tp46
a(S'tr_ll'
I0
tp47
a(S'w'
I10267
tp48
a(S'p1_tl'
I100
tp49
a(S'p1_ll'
I1
tp50
a(S'w'
I3
tp51
a(S'p2_tl'
I127
tp52
a(S'p2_ll'
I1
tp53
a(S'w'
I3
tp54
a(S'tr_tl'
I63
tp55
a(S'tr_ll'
I0
tp56
a(S'w'
I11000
tp57
a(S'p1_tl'
I95
tp58
a(S'p1_ll'
I1
tp59
a(S'w'
I3
tp60
a(S'p2_tl'
I127
tp61
a(S'w'
I1
tp62
a(S'p2_ll'
I1
tp63
a(S'w'
I3
tp64
a(S'tr_tl'
I95
tp65
a(S'tr_ll'
I0
tp66
a(S'w'
I10260
tp67
a(S'tr_tl'
I47
tp68
a(S'tr_ll'
I0
tp69
a(S'w'
I11014
tp70
a(S'p1_tl'
I100
tp71
a(S'p1_ll'
I1
tp72
a(S'w'
I3
tp73
a(S'p2_tl'
I127
tp74
a(S'p2_ll'
I1
tp75
a(S'w'
I3
tp76
a(S'tr_tl'
I63
tp77
a(S'tr_ll'
I0
tp78
a(S'w'
I10266
tp79
a(S'p1_tl'
I95
tp80
a(S'p1_ll'
I1
tp81
a(S'w'
I3
tp82
a(S'p2_tl'
I127
tp83
a(S'w'
I1
tp84
a(S'p2_ll'
I1
tp85
a(S'w'
I3
tp86
a(S'tr_tl'
I75
tp87
a(S'tr_ll'
I0
tp88
a(S'w'
I11000
tp89
a(S'p1_tl'
I100
tp90
a(S'p1_ll'
I1
tp91
a(S'w'
I3
tp92
a(S'p2_tl'
I127
tp93
a(S'w'
I1
tp94
a(S'p2_ll'
I1
tp95
a(S'w'
I3
tp96
a(S'tr_tl'
I95
tp97
a(S'tr_ll'
I0
tp98
a(S'w'
I10266
tp99
a(S'p1_tl'
I113
tp100
a(S'p1_ll'
I1
tp101
a(S'w'
I3
tp102
a(S'p2_tl'
I134
tp103
a(S'p2_ll'
I1
tp104
a(S'w'
I3
tp105
a(S'tr_tl'
I84
tp106
a(S'tr_ll'
I0
tp107
a(S'w'
I11001
tp108
a(S'p1_tl'
I113
tp109
a(S'p1_ll'
I1
tp110
a(S'w'
I3
tp111
a(S'p2_tl'
I134
tp112
a(S'p2_ll'
I1
tp113
a(S'w'
I3
tp114
a(S'tr_tl'
I113
tp115
a(S'tr_ll'
I0
tp116
a(S'w'
I10267
tp117
a(S'p1_tl'
I113
tp118
a(S'p1_ll'
I1
tp119
a(S'w'
I3
tp120
a(S'p2_tl'
I134
tp121
a(S'p2_ll'
I1
tp122
a(S'w'
I3
tp123
a(S'tr_tl'
I67
tp124
a(S'tr_ll'
I0
tp125
a(S'w'
I11005
tp126
a(S'p1_vo'
I12
tp127
a(S'p1_tl'
I100
tp128
a(S'p1_ll'
I1
tp129
a(S'w'
I3
tp130
a(S'p2_vo'
I12
tp131
a(S'p2_tl'
I127
tp132
a(S'p2_ll'
I1
tp133
a(S'w'
I3
tp134
a(S'tr_tl'
I63
tp135
a(S'w'
I1
tp136
a(S'tr_ll'
I0
tp137
a(S'w'
I52817
tp138
a(S'no_lh'
I1
tp139
a(S'no_cv'
I1
tp140
a(S'w'
I1
tp141
a(S'tr_lr'
I112
tp142
a(S'w'
I2
tp143
a(S'p2_du'
I1
tp144
a(S'p2_lh'
I1
tp145
a(S'p2_cv'
I1
tp146
a(S'p2_vo'
I0
tp147
a(S'w'
I33498
tp148
a.