(lp1
(S'clock'
p2
I1789772
tp3
a(S'p1_du'
I3
tp4
a(S'p1_lh'
I1
tp5
a(S'p1_cv'
I1
tp6
a(S'p1_sp'
I7
tp7
a(S'p1_sn'
I1
tp8
a(S'p1_tl'
I240
tp9
a(S'p1_ll'
I1
tp10
a(S'p2_du'
I3
tp11
a(S'p2_lh'
I1
tp12
a(S'p2_cv'
I1
tp13
a(S'p2_sp'
I7
tp14
a(S'p2_sn'
I1
tp15
a(S'p2_tl'
I240
tp16
a(S'p2_ll'
I1
tp17
a(S'tr_lh'
I1
tp18
a(S'tr_tl'
I240
tp19
a(S'tr_ll'
I1
tp20
a(S'no_lh'
I1
tp21
a(S'no_cv'
I1
tp22
a(S'no_nl'
I1
tp23
a(S'no_ll'
I1
tp24
a(S'ch_no'
I1
tp25
a(S'ch_tr'
I1
tp26
a(S'ch_p2'
I1
tp27
a(S'ch_p1'
I1
tp28
a(S'fc_mo'
I1
tp29
a(S'p1_du'
I2
tp30
a(S'p1_vo'
I7
tp31
a(S'w'
I4
tp32
a(S'p1_tl'
I83
tp33
a(S'p1_ll'
I1
tp34
a(S'p1_th'
I1
tp35
a(S'w'
I2154
tp36
a(S'p1_vo'
I6
tp37
a(S'w'
I1468
tp38
a(S'p1_vo'
I5
tp39
a(S'w'
I3675
tp40
a(S'p1_vo'
I7
tp41
a(S'w'
I4
tp42
a(S'p1_tl'
I104
tp43
a(S'p1_ll'
I1
tp44
a(S'w'
I2191
tp45
a(S'p1_vo'
I6
tp46
a(S'w'
I1481
tp47
a(S'p1_vo'
I5
tp48
a(S'w'
I9
tp49
a(S'p2_du'
I2
tp50
a(S'p2_vo'
I4
tp51
a(S'w'
I4
tp52
a(S'p2_tl'
I83
tp53
a(S'p2_ll'
I1
tp54
a(S'p2_th'
I1
tp55
a(S'w'
I2181
tp56
a(S'p2_vo'
I3
tp57
a(S'w'
I1468
tp58
a(S'p1_vo'
I7
tp59
a(S'w'
I4
tp60
a(S'p1_tl'
I125
tp61
a(S'p1_ll'
I1
tp62
a(S'w'
I7
tp63
a(S'p2_vo'
I2
tp64
a(S'w'
I2184
tp65
a(S'p1_vo'
I6
tp66
a(S'w'
I1474
tp67
a(S'p1_vo'
I5
tp68
a(S'w'
I9
tp69
a(S'p2_vo'
I4
tp70
a(S'w'
I4
tp71
a(S'p2_tl'
I104
tp72
a(S'p2_ll'
I1
tp73
a(S'w'
I2188
tp74
a(S'p2_vo'
I3
tp75
a(S'w'
I1468
tp76
a(S'p1_vo'
I7
tp77
a(S'w'
I4
tp78
a(S'p1_tl'
I148
tp79
a(S'p1_ll'
I1
tp80
a(S'w'
I7
tp81
a(S'p2_vo'
I2
tp82
a(S'w'
I2184
tp83
a(S'p1_vo'
I6
tp84
a(S'w'
I1474
tp85
a(S'p1_vo'
I5
tp86
a(S'w'
I9
tp87
a(S'p2_vo'
I4
tp88
a(S'w'
I4
tp89
a(S'p2_tl'
I125
tp90
a(S'p2_ll'
I1
tp91
a(S'w'
I2188
tp92
a(S'p2_vo'
I3
tp93
a(S'w'
I1468
tp94
a(S'p1_vo'
I7
tp95
a(S'w'
I4
tp96
a(S'p1_tl'
I172
tp97
a(S'p1_ll'
I1
tp98
a(S'w'
I7
tp99
a(S'p2_vo'
I2
tp100
a(S'w'
I2184
tp101
a(S'p1_vo'
I6
tp102
a(S'w'
I1474
tp103
a(S'p1_vo'
I5
tp104
a(S'w'
I9
tp105
a(S'p2_vo'
I4
tp106
a(S'w'
I4
tp107
a(S'p2_tl'
I148
tp108
a(S'p2_ll'
I1
tp109
a(S'w'
I2188
tp110
a(S'p2_vo'
I3
tp111
a(S'w'
I1468
tp112
a(S'p1_vo'
I7
tp113
a(S'w'
I4
tp114
a(S'p1_tl'
I197
tp115
a(S'p1_ll'
I1
tp116
a(S'w'
I7
tp117
a(S'p2_vo'
I2
tp118
a(S'w'
I2184
tp119
a(S'p1_vo'
I6
tp120
a(S'w'
I1474
tp121
a(S'p1_vo'
I5
tp122
a(S'w'
I9
tp123
a(S'p2_vo'
I4
tp124
a(S'w'
I4
tp125
a(S'p2_tl'
I172
tp126
a(S'p2_ll'
I1
tp127
a(S'w'
I2188
tp128
a(S'p2_vo'
I3
tp129
a(S'w'
I1468
tp130
a(S'p1_vo'
I7
tp131
a(S'w'
I4
tp132
a(S'p1_tl'
I224
tp133
a(S'p1_ll'
I1
tp134
a(S'w'
I7
tp135
a(S'p2_vo'
I2
tp136
a(S'w'
I2184
tp137
a(S'p1_vo'
I6
tp138
a(S'w'
I1474
tp139
a(S'p1_vo'
I5
tp140
a(S'w'
I9
tp141
a(S'p2_vo'
I4
tp142
a(S'w'
I4
tp143
a(S'p2_tl'
I197
tp144
a(S'p2_ll'
I1
tp145
a(S'w'
I2188
tp146
a(S'p2_vo'
I3
tp147
a(S'w'
I1468
tp148
a(S'p1_vo'
I7
tp149
a(S'w'
I4
tp150
a(S'p1_tl'
I252
tp151
a(S'p1_ll'
I1
tp152
a(S'w'
I7
tp153
a(S'p2_vo'
I2
tp154
a(S'w'
I2184
tp155
a(S'p1_vo'
I6
tp156
a(S'w'
I1474
tp157
a(S'p1_vo'
I5
tp158
a(S'w'
I9
tp159
a(S'p2_vo'
I4
tp160
a(S'w'
I4
tp161
a(S'p2_tl'
I224
tp162
a(S'p2_ll'
I1
tp163
a(S'w'
I2188
tp164
a(S'p2_vo'
I3
tp165
a(S'w'
I1485
tp166
a(S'p1_vo'
I7
tp167
a(S'w'
I4
tp168
a(S'p1_tl'
I27
tp169
a(S'w'
I1
tp170
a(S'p1_ll'
I1
tp171
a(S'p1_th'
I2
tp172
a(S'w'
I6
tp173
a(S'p2_vo'
I7
tp174
a(S'w'
I4
tp175
a(S'p2_tl'
I207
tp176
a(S'p2_ll'
I1
tp177
a(S'p2_th'
I2
tp178
a(S'w'
I8
tp179
a(S'tr_lr'
I127
tp180
a(S'w'
I1
tp181
a(S'tr_tl'
I27
tp182
a(S'w'
I1
tp183
a(S'tr_ll'
I1
tp184
a(S'tr_th'
I2
tp185
a(S'w'
I2153
tp186
a(S'p1_vo'
I6
tp187
a(S'w'
I9
tp188
a(S'p2_vo'
I6
tp189
a(S'w'
I1459
tp190
a(S'p1_vo'
I5
tp191
a(S'w'
I9
tp192
a(S'p2_vo'
I5
tp193
a(S'w'
I55035
tp194
a(S'p1_du'
I3
tp195
a(S'p1_vo'
I0
tp196
a(S'w'
I2
tp197
a(S'p2_du'
I3
tp198
a(S'p2_vo'
I0
tp199
a(S'w'
I2
tp200
a(S'tr_lr'
I0
tp201
a(S'w'
I1
tp202
a.