(lp1
(S'clock'
p2
I1789772
tp3
a(S'ch_no'
I1
tp4
a(S'ch_tr'
I1
tp5
a(S'ch_p2'
I1
tp6
a(S'ch_p1'
I1
tp7
a(S'p1_lh'
I1
tp8
a(S'p1_cv'
I1
tp9
a(S'p1_sp'
I3
tp10
a(S'p2_lh'
I1
tp11
a(S'p2_cv'
I1
tp12
a(S'p2_sp'
I3
tp13
a(S'no_lh'
I1
tp14
a(S'no_cv'
I1
tp15
a(S'w'
I3
tp16
a(S'p1_vo'
I13
tp17
a(S'w'
I8
tp18
a(S'p1_ll'
I1
tp19
a(S'p1_th'
I1
tp20
a(S'p1_tl'
I83
tp21
a(S'w'
I3
tp22
a(S'p2_du'
I1
tp23
a(S'p2_vo'
I13
tp24
a(S'w'
I7
tp25
a(S'p2_ll'
I1
tp26
a(S'p2_th'
I3
tp27
a(S'p2_tl'
I87
tp28
a(S'w'
I4
tp29
a(S'tr_lr'
I122
tp30
a(S'w'
I6
tp31
a(S'tr_ll'
I1
tp32
a(S'tr_th'
I1
tp33
a(S'tr_tl'
I83
tp34
a(S'w'
I707
tp35
a(S'p1_vo'
I12
tp36
a(S'w'
I4
tp37
a(S'p2_vo'
I12
tp38
a(S'w'
I730
tp39
a(S'p1_vo'
I11
tp40
a(S'w'
I4
tp41
a(S'p2_vo'
I11
tp42
a(S'w'
I730
tp43
a(S'p1_vo'
I10
tp44
a(S'w'
I4
tp45
a(S'p2_vo'
I10
tp46
a(S'w'
I730
tp47
a(S'p1_vo'
I9
tp48
a(S'w'
I4
tp49
a(S'p2_vo'
I9
tp50
a(S'w'
I729
tp51
a(S'p1_vo'
I8
tp52
a(S'w'
I4
tp53
a(S'p2_vo'
I8
tp54
a(S'w'
I731
tp55
a(S'p1_vo'
I13
tp56
a(S'w'
I4
tp57
a(S'p1_tl'
I29
tp58
a(S'w'
I5
tp59
a(S'p2_vo'
I13
tp60
a(S'w'
I3
tp61
a(S'p2_ll'
I1
tp62
a(S'p2_th'
I2
tp63
a(S'p2_tl'
I59
tp64
a(S'w'
I9
tp65
a(S'tr_ll'
I1
tp66
a(S'tr_tl'
I29
tp67
a(S'w'
I712
tp68
a(S'p1_vo'
I12
tp69
a(S'w'
I4
tp70
a(S'p2_vo'
I12
tp71
a(S'w'
I730
tp72
a(S'p1_vo'
I11
tp73
a(S'w'
I4
tp74
a(S'p2_vo'
I11
tp75
a(S'w'
I730
tp76
a(S'p1_vo'
I10
tp77
a(S'w'
I4
tp78
a(S'p2_vo'
I10
tp79
a(S'w'
I729
tp80
a(S'p1_vo'
I9
tp81
a(S'w'
I4
tp82
a(S'p2_vo'
I9
tp83
a(S'w'
I730
tp84
a(S'p1_vo'
I8
tp85
a(S'w'
I4
tp86
a(S'p2_vo'
I8
tp87
a(S'w'
I731
tp88
a(S'p1_vo'
I13
tp89
a(S'w'
I4
tp90
a(S'p1_tl'
I83
tp91
a(S'w'
I5
tp92
a(S'p2_vo'
I13
tp93
a(S'w'
I3
tp94
a(S'p2_ll'
I1
tp95
a(S'p2_th'
I1
tp96
a(S'p2_tl'
I197
tp97
a(S'w'
I9
tp98
a(S'tr_ll'
I1
tp99
a(S'tr_tl'
I83
tp100
a(S'w'
I712
tp101
a(S'p1_vo'
I12
tp102
a(S'w'
I4
tp103
a(S'p2_vo'
I12
tp104
a(S'w'
I730
tp105
a(S'p1_vo'
I11
tp106
a(S'w'
I4
tp107
a(S'p2_vo'
I11
tp108
a(S'w'
I729
tp109
a(S'p1_vo'
I10
tp110
a(S'w'
I4
tp111
a(S'p2_vo'
I10
tp112
a(S'w'
I730
tp113
a(S'p1_vo'
I9
tp114
a(S'w'
I4
tp115
a(S'p2_vo'
I9
tp116
a(S'w'
I730
tp117
a(S'p1_vo'
I8
tp118
a(S'w'
I4
tp119
a(S'p2_vo'
I8
tp120
a(S'w'
I731
tp121
a(S'p1_vo'
I13
tp122
a(S'w'
I4
tp123
a(S'p1_tl'
I29
tp124
a(S'w'
I5
tp125
a(S'p2_vo'
I13
tp126
a(S'w'
I3
tp127
a(S'p2_ll'
I1
tp128
a(S'p2_th'
I2
tp129
a(S'p2_tl'
I59
tp130
a(S'w'
I9
tp131
a(S'tr_ll'
I1
tp132
a(S'tr_tl'
I29
tp133
a(S'w'
I712
tp134
a(S'p1_vo'
I12
tp135
a(S'w'
I4
tp136
a(S'p2_vo'
I12
tp137
a(S'w'
I729
tp138
a(S'p1_vo'
I11
tp139
a(S'w'
I4
tp140
a(S'p2_vo'
I11
tp141
a(S'w'
I730
tp142
a(S'p1_vo'
I10
tp143
a(S'w'
I4
tp144
a(S'p2_vo'
I10
tp145
a(S'w'
I730
tp146
a(S'p1_vo'
I9
tp147
a(S'w'
I4
tp148
a(S'p2_vo'
I9
tp149
a(S'w'
I730
tp150
a(S'p1_vo'
I8
tp151
a(S'w'
I4
tp152
a(S'p2_vo'
I8
tp153
a(S'w'
I731
tp154
a(S'p1_vo'
I13
tp155
a(S'w'
I4
tp156
a(S'p1_tl'
I64
tp157
a(S'w'
I5
tp158
a(S'p2_vo'
I13
tp159
a(S'w'
I3
tp160
a(S'p2_tl'
I250
tp161
a(S'w'
I9
tp162
a(S'tr_ll'
I1
tp163
a(S'tr_tl'
I64
tp164
a(S'w'
I711
tp165
a(S'p1_vo'
I12
tp166
a(S'w'
I4
tp167
a(S'p2_vo'
I12
tp168
a(S'w'
I730
tp169
a(S'p1_vo'
I11
tp170
a(S'w'
I4
tp171
a(S'p2_vo'
I11
tp172
a(S'w'
I730
tp173
a(S'p1_vo'
I10
tp174
a(S'w'
I4
tp175
a(S'p2_vo'
I10
tp176
a(S'w'
I730
tp177
a(S'p1_vo'
I9
tp178
a(S'w'
I4
tp179
a(S'p2_vo'
I9
tp180
a(S'w'
I729
tp181
a(S'p1_vo'
I8
tp182
a(S'w'
I4
tp183
a(S'p2_vo'
I8
tp184
a(S'w'
I731
tp185
a(S'p1_vo'
I13
tp186
a(S'w'
I3
tp187
a(S'p1_ll'
I1
tp188
a(S'p1_th'
I0
tp189
a(S'w'
I1
tp190
a(S'p1_tl'
I254
tp191
a(S'w'
I5
tp192
a(S'p2_vo'
I13
tp193
a(S'w'
I3
tp194
a(S'p2_ll'
I1
tp195
a(S'p2_th'
I1
tp196
a(S'p2_tl'
I252
tp197
a(S'w'
I8
tp198
a(S'tr_ll'
I1
tp199
a(S'tr_th'
I0
tp200
a(S'w'
I1
tp201
a(S'tr_tl'
I254
tp202
a(S'w'
I712
tp203
a(S'p1_vo'
I12
tp204
a(S'w'
I4
tp205
a(S'p2_vo'
I12
tp206
a(S'w'
I730
tp207
a(S'p1_vo'
I11
tp208
a(S'w'
I4
tp209
a(S'p2_vo'
I11
tp210
a(S'w'
I730
tp211
a(S'p1_vo'
I10
tp212
a(S'w'
I4
tp213
a(S'p2_vo'
I10
tp214
a(S'w'
I729
tp215
a(S'p1_vo'
I9
tp216
a(S'w'
I4
tp217
a(S'p2_vo'
I9
tp218
a(S'w'
I730
tp219
a(S'p1_vo'
I8
tp220
a(S'w'
I4
tp221
a(S'p2_vo'
I8
tp222
a(S'w'
I731
tp223
a(S'p1_vo'
I13
tp224
a(S'w'
I1
tp225
a(S'p1_vo'
I0
tp226
a(S'w'
I6
tp227
a(S'p2_vo'
I13
tp228
a(S'w'
I3
tp229
a(S'p2_tl'
I171
tp230
a(S'w'
I6
tp231
a(S'tr_lr'
I0
tp232
a(S'w'
I720
tp233
a(S'p2_vo'
I12
tp234
a(S'w'
I734
tp235
a(S'p2_vo'
I11
tp236
a(S'w'
I733
tp237
a(S'p2_vo'
I10
tp238
a(S'w'
I734
tp239
a(S'p2_vo'
I9
tp240
a(S'w'
I734
tp241
a(S'p2_vo'
I8
tp242
a(S'w'
I732
tp243
a(S'p1_vo'
I13
tp244
a(S'w'
I3
tp245
a(S'p1_ll'
I1
tp246
a(S'p1_th'
I1
tp247
a(S'w'
I1
tp248
a(S'p1_tl'
I64
tp249
a(S'w'
I6
tp250
a(S'p2_vo'
I13
tp251
a(S'w'
I3
tp252
a(S'p2_tl'
I252
tp253
a(S'w'
I5
tp254
a(S'tr_lr'
I122
tp255
a(S'w'
I3
tp256
a(S'tr_ll'
I1
tp257
a(S'tr_th'
I1
tp258
a(S'tr_tl'
I64
tp259
a(S'w'
I712
tp260
a(S'p1_vo'
I12
tp261
a(S'w'
I4
tp262
a(S'p2_vo'
I12
tp263
a(S'w'
I729
tp264
a(S'p1_vo'
I11
tp265
a(S'w'
I4
tp266
a(S'p2_vo'
I11
tp267
a(S'w'
I730
tp268
a(S'p1_vo'
I10
tp269
a(S'w'
I4
tp270
a(S'p2_vo'
I10
tp271
a(S'w'
I730
tp272
a(S'p1_vo'
I9
tp273
a(S'w'
I4
tp274
a(S'p2_vo'
I9
tp275
a(S'w'
I730
tp276
a(S'p1_vo'
I8
tp277
a(S'w'
I4
tp278
a(S'p2_vo'
I8
tp279
a(S'w'
I731
tp280
a(S'p1_vo'
I13
tp281
a(S'w'
I4
tp282
a(S'p1_tl'
I29
tp283
a(S'w'
I5
tp284
a(S'p2_vo'
I13
tp285
a(S'w'
I3
tp286
a(S'p2_ll'
I1
tp287
a(S'p2_th'
I2
tp288
a(S'p2_tl'
I167
tp289
a(S'w'
I9
tp290
a(S'tr_ll'
I1
tp291
a(S'tr_tl'
I29
tp292
a(S'w'
I711
tp293
a(S'p1_vo'
I12
tp294
a(S'w'
I4
tp295
a(S'p2_vo'
I12
tp296
a(S'w'
I730
tp297
a(S'p1_vo'
I11
tp298
a(S'w'
I4
tp299
a(S'p2_vo'
I11
tp300
a(S'w'
I730
tp301
a(S'p1_vo'
I10
tp302
a(S'w'
I4
tp303
a(S'p2_vo'
I10
tp304
a(S'w'
I730
tp305
a(S'p1_vo'
I9
tp306
a(S'w'
I4
tp307
a(S'p2_vo'
I9
tp308
a(S'w'
I729
tp309
a(S'p1_vo'
I8
tp310
a(S'w'
I4
tp311
a(S'p2_vo'
I8
tp312
a(S'w'
I731
tp313
a(S'p1_vo'
I13
tp314
a(S'w'
I3
tp315
a(S'p1_ll'
I1
tp316
a(S'p1_th'
I0
tp317
a(S'w'
I1
tp318
a(S'p1_tl'
I226
tp319
a(S'w'
I5
tp320
a(S'p2_vo'
I13
tp321
a(S'w'
I3
tp322
a(S'p2_ll'
I1
tp323
a(S'p2_th'
I1
tp324
a(S'p2_tl'
I197
tp325
a(S'w'
I8
tp326
a(S'tr_ll'
I1
tp327
a(S'tr_th'
I0
tp328
a(S'w'
I1
tp329
a(S'tr_tl'
I226
tp330
a(S'w'
I712
tp331
a(S'p1_vo'
I12
tp332
a(S'w'
I4
tp333
a(S'p2_vo'
I12
tp334
a(S'w'
I730
tp335
a(S'p1_vo'
I11
tp336
a(S'w'
I4
tp337
a(S'p2_vo'
I11
tp338
a(S'w'
I730
tp339
a(S'p1_vo'
I10
tp340
a(S'w'
I4
tp341
a(S'p2_vo'
I10
tp342
a(S'w'
I729
tp343
a(S'p1_vo'
I9
tp344
a(S'w'
I4
tp345
a(S'p2_vo'
I9
tp346
a(S'w'
I730
tp347
a(S'p1_vo'
I8
tp348
a(S'w'
I4
tp349
a(S'p2_vo'
I8
tp350
a(S'w'
I731
tp351
a(S'p1_vo'
I13
tp352
a(S'w'
I3
tp353
a(S'p1_ll'
I1
tp354
a(S'p1_th'
I1
tp355
a(S'w'
I1
tp356
a(S'p1_tl'
I29
tp357
a(S'w'
I6
tp358
a(S'p2_vo'
I13
tp359
a(S'w'
I3
tp360
a(S'p2_tl'
I125
tp361
a(S'w'
I8
tp362
a(S'tr_ll'
I1
tp363
a(S'tr_th'
I1
tp364
a(S'w'
I1
tp365
a(S'tr_tl'
I29
tp366
a(S'w'
I711
tp367
a(S'p1_vo'
I12
tp368
a(S'w'
I4
tp369
a(S'p2_vo'
I12
tp370
a(S'w'
I730
tp371
a(S'p1_vo'
I11
tp372
a(S'w'
I4
tp373
a(S'p2_vo'
I11
tp374
a(S'w'
I729
tp375
a(S'p1_vo'
I10
tp376
a(S'w'
I4
tp377
a(S'p2_vo'
I10
tp378
a(S'w'
I730
tp379
a(S'p1_vo'
I9
tp380
a(S'w'
I4
tp381
a(S'p2_vo'
I9
tp382
a(S'w'
I730
tp383
a(S'p1_vo'
I8
tp384
a(S'w'
I4
tp385
a(S'p2_vo'
I8
tp386
a(S'w'
I731
tp387
a(S'p1_vo'
I13
tp388
a(S'w'
I3
tp389
a(S'p1_ll'
I1
tp390
a(S'p1_th'
I0
tp391
a(S'w'
I1
tp392
a(S'p1_tl'
I226
tp393
a(S'w'
I6
tp394
a(S'p2_vo'
I13
tp395
a(S'w'
I3
tp396
a(S'p2_tl'
I197
tp397
a(S'w'
I8
tp398
a(S'tr_ll'
I1
tp399
a(S'tr_th'
I0
tp400
a(S'tr_tl'
I226
tp401
a(S'w'
I712
tp402
a(S'p1_vo'
I12
tp403
a(S'w'
I4
tp404
a(S'p2_vo'
I12
tp405
a(S'w'
I729
tp406
a(S'p1_vo'
I11
tp407
a(S'w'
I4
tp408
a(S'p2_vo'
I11
tp409
a(S'w'
I730
tp410
a(S'p1_vo'
I10
tp411
a(S'w'
I4
tp412
a(S'p2_vo'
I10
tp413
a(S'w'
I730
tp414
a(S'p1_vo'
I9
tp415
a(S'w'
I4
tp416
a(S'p2_vo'
I9
tp417
a(S'w'
I730
tp418
a(S'p1_vo'
I8
tp419
a(S'w'
I4
tp420
a(S'p2_vo'
I8
tp421
a(S'w'
I731
tp422
a(S'p1_vo'
I13
tp423
a(S'w'
I4
tp424
a(S'p1_tl'
I254
tp425
a(S'w'
I5
tp426
a(S'p2_vo'
I13
tp427
a(S'w'
I3
tp428
a(S'p2_ll'
I1
tp429
a(S'p2_th'
I2
tp430
a(S'p2_tl'
I128
tp431
a(S'w'
I9
tp432
a(S'tr_ll'
I1
tp433
a(S'tr_tl'
I254
tp434
a(S'w'
I711
tp435
a(S'p1_vo'
I12
tp436
a(S'w'
I4
tp437
a(S'p2_vo'
I12
tp438
a(S'w'
I730
tp439
a(S'p1_vo'
I11
tp440
a(S'w'
I4
tp441
a(S'p2_vo'
I11
tp442
a(S'w'
I730
tp443
a(S'p1_vo'
I10
tp444
a(S'w'
I4
tp445
a(S'p2_vo'
I10
tp446
a(S'w'
I730
tp447
a(S'p1_vo'
I9
tp448
a(S'w'
I4
tp449
a(S'p2_vo'
I9
tp450
a(S'w'
I729
tp451
a(S'p1_vo'
I8
tp452
a(S'w'
I4
tp453
a(S'p2_vo'
I8
tp454
a(S'w'
I732
tp455
a(S'p1_vo'
I13
tp456
a(S'w'
I4
tp457
a(S'p1_tl'
I213
tp458
a(S'w'
I6
tp459
a(S'p2_vo'
I13
tp460
a(S'w'
I3
tp461
a(S'p2_ll'
I1
tp462
a(S'p2_th'
I1
tp463
a(S'p2_tl'
I171
tp464
a(S'w'
I10
tp465
a(S'tr_ll'
I1
tp466
a(S'tr_tl'
I213
tp467
a(S'w'
I709
tp468
a(S'p1_vo'
I12
tp469
a(S'w'
I4
tp470
a(S'p2_vo'
I12
tp471
a(S'w'
I730
tp472
a(S'p1_vo'
I11
tp473
a(S'w'
I4
tp474
a(S'p2_vo'
I11
tp475
a(S'w'
I730
tp476
a(S'p1_vo'
I10
tp477
a(S'w'
I4
tp478
a(S'p2_vo'
I10
tp479
a(S'w'
I729
tp480
a(S'p1_vo'
I9
tp481
a(S'w'
I4
tp482
a(S'p2_vo'
I9
tp483
a(S'w'
I730
tp484
a(S'p1_vo'
I8
tp485
a(S'w'
I4
tp486
a(S'p2_vo'
I8
tp487
a(S'w'
I731
tp488
a(S'p1_vo'
I13
tp489
a(S'w'
I1
tp490
a(S'p1_vo'
I0
tp491
a(S'w'
I5
tp492
a(S'p2_vo'
I13
tp493
a(S'w'
I4
tp494
a(S'p2_tl'
I83
tp495
a(S'w'
I6
tp496
a(S'tr_lr'
I0
tp497
a(S'w'
I720
tp498
a(S'p2_vo'
I12
tp499
a(S'w'
I734
tp500
a(S'p2_vo'
I11
tp501
a(S'w'
I733
tp502
a(S'p2_vo'
I10
tp503
a(S'w'
I734
tp504
a(S'p2_vo'
I9
tp505
a(S'w'
I734
tp506
a(S'p2_vo'
I8
tp507
a(S'w'
I733
tp508
a(S'p1_vo'
I13
tp509
a(S'w'
I3
tp510
a(S'p1_tl'
I254
tp511
a(S'w'
I6
tp512
a(S'p2_vo'
I13
tp513
a(S'w'
I3
tp514
a(S'p2_tl'
I171
tp515
a(S'w'
I6
tp516
a(S'tr_lr'
I122
tp517
a(S'w'
I3
tp518
a(S'tr_ll'
I1
tp519
a(S'w'
I1
tp520
a(S'tr_tl'
I254
tp521
a(S'w'
I710
tp522
a(S'p1_vo'
I12
tp523
a(S'w'
I4
tp524
a(S'p2_vo'
I12
tp525
a(S'w'
I729
tp526
a(S'p1_vo'
I11
tp527
a(S'w'
I4
tp528
a(S'p2_vo'
I11
tp529
a(S'w'
I730
tp530
a(S'p1_vo'
I10
tp531
a(S'w'
I4
tp532
a(S'p2_vo'
I10
tp533
a(S'w'
I730
tp534
a(S'p1_vo'
I9
tp535
a(S'w'
I4
tp536
a(S'p2_vo'
I9
tp537
a(S'w'
I730
tp538
a(S'p1_vo'
I8
tp539
a(S'w'
I4
tp540
a(S'p2_vo'
I8
tp541
a(S'w'
I732
tp542
a(S'p1_vo'
I13
tp543
a(S'w'
I4
tp544
a(S'p1_tl'
I201
tp545
a(S'w'
I6
tp546
a(S'p2_vo'
I13
tp547
a(S'w'
I2
tp548
a(S'p2_ll'
I1
tp549
a(S'p2_th'
I2
tp550
a(S'w'
I1
tp551
a(S'p2_tl'
I59
tp552
a(S'w'
I9
tp553
a(S'tr_ll'
I1
tp554
a(S'tr_tl'
I201
tp555
a(S'w'
I709
tp556
a(S'p1_vo'
I12
tp557
a(S'w'
I4
tp558
a(S'p2_vo'
I12
tp559
a(S'w'
I730
tp560
a(S'p1_vo'
I11
tp561
a(S'w'
I4
tp562
a(S'p2_vo'
I11
tp563
a(S'w'
I730
tp564
a(S'p1_vo'
I10
tp565
a(S'w'
I4
tp566
a(S'p2_vo'
I10
tp567
a(S'w'
I730
tp568
a(S'p1_vo'
I9
tp569
a(S'w'
I4
tp570
a(S'p2_vo'
I9
tp571
a(S'w'
I729
tp572
a(S'p1_vo'
I8
tp573
a(S'w'
I4
tp574
a(S'p2_vo'
I8
tp575
a(S'w'
I731
tp576
a(S'p1_vo'
I13
tp577
a(S'w'
I4
tp578
a(S'p1_tl'
I190
tp579
a(S'w'
I6
tp580
a(S'p2_vo'
I13
tp581
a(S'w'
I3
tp582
a(S'p2_ll'
I1
tp583
a(S'p2_th'
I1
tp584
a(S'w'
I1
tp585
a(S'p2_tl'
I125
tp586
a(S'w'
I9
tp587
a(S'tr_ll'
I1
tp588
a(S'tr_tl'
I190
tp589
a(S'w'
I710
tp590
a(S'p1_vo'
I12
tp591
a(S'w'
I4
tp592
a(S'p2_vo'
I12
tp593
a(S'w'
I730
tp594
a(S'p1_vo'
I11
tp595
a(S'w'
I4
tp596
a(S'p2_vo'
I11
tp597
a(S'w'
I730
tp598
a(S'p1_vo'
I10
tp599
a(S'w'
I4
tp600
a(S'p2_vo'
I10
tp601
a(S'w'
I729
tp602
a(S'p1_vo'
I9
tp603
a(S'w'
I4
tp604
a(S'p2_vo'
I9
tp605
a(S'w'
I730
tp606
a(S'p1_vo'
I8
tp607
a(S'w'
I4
tp608
a(S'p2_vo'
I8
tp609
a(S'w'
I731
tp610
a(S'p1_vo'
I13
tp611
a(S'w'
I4
tp612
a(S'p1_tl'
I142
tp613
a(S'w'
I6
tp614
a(S'p2_vo'
I13
tp615
a(S'w'
I3
tp616
a(S'p2_tl'
I64
tp617
a(S'w'
I9
tp618
a(S'tr_ll'
I1
tp619
a(S'w'
I1
tp620
a(S'tr_tl'
I142
tp621
a(S'w'
I710
tp622
a(S'p1_vo'
I12
tp623
a(S'w'
I4
tp624
a(S'p2_vo'
I12
tp625
a(S'w'
I730
tp626
a(S'p1_vo'
I11
tp627
a(S'w'
I4
tp628
a(S'p2_vo'
I11
tp629
a(S'w'
I729
tp630
a(S'p1_vo'
I10
tp631
a(S'w'
I4
tp632
a(S'p2_vo'
I10
tp633
a(S'w'
I730
tp634
a(S'p1_vo'
I9
tp635
a(S'w'
I4
tp636
a(S'p2_vo'
I9
tp637
a(S'w'
I730
tp638
a(S'p1_vo'
I8
tp639
a(S'w'
I4
tp640
a(S'p2_vo'
I8
tp641
a(S'w'
I731
tp642
a(S'p1_vo'
I13
tp643
a(S'w'
I1
tp644
a(S'p1_vo'
I0
tp645
a(S'w'
I5
tp646
a(S'p2_vo'
I13
tp647
a(S'w'
I4
tp648
a(S'p2_tl'
I125
tp649
a(S'w'
I6
tp650
a(S'tr_lr'
I0
tp651
a(S'w'
I720
tp652
a(S'p2_vo'
I12
tp653
a(S'w'
I733
tp654
a(S'p2_vo'
I11
tp655
a(S'w'
I734
tp656
a(S'p2_vo'
I10
tp657
a(S'w'
I734
tp658
a(S'p2_vo'
I9
tp659
a(S'w'
I734
tp660
a(S'p2_vo'
I8
tp661
a(S'w'
I730
tp662
a(S'p1_vo'
I13
tp663
a(S'w'
I10
tp664
a(S'p1_tl'
I213
tp665
a(S'w'
I3
tp666
a(S'p2_vo'
I12
tp667
a(S'w'
I9
tp668
a(S'p2_ll'
I1
tp669
a(S'p2_th'
I3
tp670
a(S'p2_tl'
I87
tp671
a(S'w'
I7
tp672
a(S'tr_lr'
I122
tp673
a(S'w'
I4
tp674
a(S'tr_ll'
I1
tp675
a(S'tr_tl'
I213
tp676
a(S'w'
I23449
tp677
a(S'p1_vo'
I12
tp678
a(S'w'
I5
tp679
a(S'p2_vo'
I11
tp680
a(S'w'
I729
tp681
a(S'p1_vo'
I11
tp682
a(S'w'
I4
tp683
a(S'p2_vo'
I10
tp684
a(S'w'
I729
tp685
a(S'p1_vo'
I10
tp686
a(S'w'
I4
tp687
a(S'p2_vo'
I9
tp688
a(S'w'
I730
tp689
a(S'p1_vo'
I9
tp690
a(S'w'
I4
tp691
a(S'p2_vo'
I8
tp692
a(S'w'
I730
tp693
a(S'p1_vo'
I8
tp694
a(S'w'
I4
tp695
a(S'p2_vo'
I7
tp696
a(S'w'
I730
tp697
a(S'p1_vo'
I7
tp698
a(S'w'
I4
tp699
a(S'p2_vo'
I6
tp700
a(S'w'
I730
tp701
a(S'p1_vo'
I6
tp702
a(S'w'
I4
tp703
a(S'p2_vo'
I5
tp704
a(S'w'
I729
tp705
a(S'p1_vo'
I5
tp706
a(S'w'
I4
tp707
a(S'p2_vo'
I4
tp708
a(S'w'
I730
tp709
a(S'p1_vo'
I4
tp710
a(S'w'
I4
tp711
a(S'p2_vo'
I3
tp712
a(S'w'
I730
tp713
a(S'p1_vo'
I3
tp714
a(S'w'
I4
tp715
a(S'p2_vo'
I2
tp716
a(S'w'
I734
tp717
a(S'p1_vo'
I13
tp718
a(S'p1_vo'
I0
tp719
a(S'w'
I8
tp720
a(S'p2_vo'
I12
tp721
a(S'w'
I1
tp722
a(S'p2_du'
I0
tp723
a(S'p2_vo'
I0
tp724
a(S'w'
I8
tp725
a(S'tr_lr'
I0
tp726
a(S'w'
I42892
tp727
a.