(lp1
(S'clock'
p2
I1789772
tp3
a(S'ch_no'
I1
tp4
a(S'ch_tr'
I1
tp5
a(S'ch_p2'
I1
tp6
a(S'ch_p1'
I1
tp7
a(S'p1_lh'
I1
tp8
a(S'p1_cv'
I1
tp9
a(S'p1_sp'
I3
tp10
a(S'p2_lh'
I1
tp11
a(S'p2_cv'
I1
tp12
a(S'p2_sp'
I3
tp13
a(S'no_lh'
I1
tp14
a(S'no_cv'
I1
tp15
a(S'w'
I3
tp16
a(S'p1_du'
I1
tp17
a(S'p1_vo'
I12
tp18
a(S'w'
I8
tp19
a(S'p1_ll'
I1
tp20
a(S'p1_tl'
I254
tp21
a(S'w'
I3
tp22
a(S'p2_du'
I3
tp23
a(S'p2_vo'
I12
tp24
a(S'w'
I8
tp25
a(S'p2_ll'
I1
tp26
a(S'p2_th'
I2
tp27
a(S'p2_tl'
I250
tp28
a(S'w'
I4
tp29
a(S'tr_lh'
I1
tp30
a(S'tr_lr'
I127
tp31
a(S'w'
I7
tp32
a(S'tr_ll'
I1
tp33
a(S'tr_tl'
I254
tp34
a(S'w'
I705
tp35
a(S'p1_vo'
I11
tp36
a(S'w'
I4
tp37
a(S'p2_vo'
I11
tp38
a(S'w'
I730
tp39
a(S'p1_vo'
I10
tp40
a(S'w'
I4
tp41
a(S'p2_vo'
I10
tp42
a(S'w'
I730
tp43
a(S'p1_vo'
I9
tp44
a(S'w'
I4
tp45
a(S'p2_vo'
I9
tp46
a(S'w'
I1463
tp47
a(S'p1_vo'
I8
tp48
a(S'w'
I734
tp49
a(S'p1_vo'
I7
tp50
a(S'w'
I734
tp51
a(S'p1_vo'
I6
tp52
a(S'w'
I735
tp53
a(S'p1_vo'
I12
tp54
a(S'w'
I3
tp55
a(S'p1_ll'
I1
tp56
a(S'p1_th'
I1
tp57
a(S'w'
I1
tp58
a(S'p1_tl'
I46
tp59
a(S'w'
I729
tp60
a(S'p1_vo'
I11
tp61
a(S'w'
I733
tp62
a(S'p1_vo'
I10
tp63
a(S'w'
I734
tp64
a(S'p1_vo'
I9
tp65
a(S'w'
I1468
tp66
a(S'p1_vo'
I8
tp67
a(S'w'
I734
tp68
a(S'p1_vo'
I7
tp69
a(S'w'
I733
tp70
a(S'p1_vo'
I6
tp71
a(S'w'
I735
tp72
a(S'p1_vo'
I12
tp73
a(S'w'
I4
tp74
a(S'p1_tl'
I125
tp75
a(S'w'
I729
tp76
a(S'p1_vo'
I11
tp77
a(S'w'
I734
tp78
a(S'p1_vo'
I10
tp79
a(S'w'
I734
tp80
a(S'p1_vo'
I9
tp81
a(S'w'
I1467
tp82
a(S'p1_vo'
I8
tp83
a(S'w'
I5
tp84
a(S'p2_vo'
I8
tp85
a(S'w'
I729
tp86
a(S'p1_vo'
I7
tp87
a(S'w'
I4
tp88
a(S'p2_vo'
I7
tp89
a(S'w'
I730
tp90
a(S'p1_vo'
I6
tp91
a(S'w'
I4
tp92
a(S'p2_vo'
I6
tp93
a(S'w'
I732
tp94
a(S'p1_vo'
I12
tp95
a(S'w'
I3
tp96
a(S'p1_ll'
I1
tp97
a(S'p1_th'
I0
tp98
a(S'w'
I1
tp99
a(S'p1_tl'
I213
tp100
a(S'w'
I6
tp101
a(S'p2_vo'
I12
tp102
a(S'w'
I3
tp103
a(S'p2_tl'
I128
tp104
a(S'w'
I11
tp105
a(S'tr_ll'
I1
tp106
a(S'tr_tl'
I213
tp107
a(S'w'
I707
tp108
a(S'p1_vo'
I11
tp109
a(S'w'
I4
tp110
a(S'p2_vo'
I11
tp111
a(S'w'
I730
tp112
a(S'p1_vo'
I10
tp113
a(S'w'
I4
tp114
a(S'p2_vo'
I10
tp115
a(S'w'
I730
tp116
a(S'p1_vo'
I9
tp117
a(S'w'
I4
tp118
a(S'p2_vo'
I9
tp119
a(S'w'
I1463
tp120
a(S'p1_vo'
I8
tp121
a(S'w'
I734
tp122
a(S'p1_vo'
I7
tp123
a(S'w'
I734
tp124
a(S'p1_vo'
I6
tp125
a(S'w'
I736
tp126
a(S'p1_vo'
I12
tp127
a(S'w'
I3
tp128
a(S'p1_tl'
I254
tp129
a(S'w'
I729
tp130
a(S'p1_vo'
I11
tp131
a(S'w'
I733
tp132
a(S'p1_vo'
I10
tp133
a(S'w'
I734
tp134
a(S'p1_vo'
I9
tp135
a(S'w'
I1468
tp136
a(S'p1_vo'
I8
tp137
a(S'w'
I734
tp138
a(S'p1_vo'
I7
tp139
a(S'w'
I733
tp140
a(S'p1_vo'
I6
tp141
a(S'w'
I735
tp142
a(S'p1_vo'
I12
tp143
a(S'w'
I3
tp144
a(S'p1_ll'
I1
tp145
a(S'p1_th'
I1
tp146
a(S'w'
I1
tp147
a(S'p1_tl'
I64
tp148
a(S'w'
I729
tp149
a(S'p1_vo'
I11
tp150
a(S'w'
I734
tp151
a(S'p1_vo'
I10
tp152
a(S'w'
I734
tp153
a(S'p1_vo'
I9
tp154
a(S'w'
I1467
tp155
a(S'p1_vo'
I8
tp156
a(S'w'
I5
tp157
a(S'p2_vo'
I8
tp158
a(S'w'
I729
tp159
a(S'p1_vo'
I7
tp160
a(S'w'
I4
tp161
a(S'p2_vo'
I7
tp162
a(S'w'
I730
tp163
a(S'p1_vo'
I6
tp164
a(S'w'
I4
tp165
a(S'p2_vo'
I6
tp166
a(S'w'
I731
tp167
a(S'p1_vo'
I12
tp168
a(S'w'
I3
tp169
a(S'p1_ll'
I1
tp170
a(S'p1_th'
I0
tp171
a(S'w'
I1
tp172
a(S'p1_tl'
I226
tp173
a(S'w'
I6
tp174
a(S'p2_vo'
I12
tp175
a(S'w'
I3
tp176
a(S'p2_tl'
I167
tp177
a(S'w'
I9
tp178
a(S'tr_ll'
I1
tp179
a(S'tr_th'
I1
tp180
a(S'w'
I1
tp181
a(S'tr_tl'
I197
tp182
a(S'w'
I709
tp183
a(S'p1_vo'
I11
tp184
a(S'w'
I4
tp185
a(S'p2_vo'
I11
tp186
a(S'w'
I730
tp187
a(S'p1_vo'
I10
tp188
a(S'w'
I4
tp189
a(S'p2_vo'
I10
tp190
a(S'w'
I730
tp191
a(S'p1_vo'
I9
tp192
a(S'w'
I4
tp193
a(S'p2_vo'
I9
tp194
a(S'w'
I1463
tp195
a(S'p1_vo'
I8
tp196
a(S'w'
I734
tp197
a(S'p1_vo'
I7
tp198
a(S'w'
I734
tp199
a(S'p1_vo'
I6
tp200
a(S'w'
I735
tp201
a(S'p1_vo'
I12
tp202
a(S'w'
I3
tp203
a(S'p1_ll'
I1
tp204
a(S'p1_th'
I1
tp205
a(S'w'
I1
tp206
a(S'p1_tl'
I13
tp207
a(S'w'
I729
tp208
a(S'p1_vo'
I11
tp209
a(S'w'
I733
tp210
a(S'p1_vo'
I10
tp211
a(S'w'
I734
tp212
a(S'p1_vo'
I9
tp213
a(S'w'
I1468
tp214
a(S'p1_vo'
I8
tp215
a(S'w'
I734
tp216
a(S'p1_vo'
I7
tp217
a(S'w'
I733
tp218
a(S'p1_vo'
I6
tp219
a(S'w'
I735
tp220
a(S'p1_vo'
I12
tp221
a(S'w'
I4
tp222
a(S'p1_tl'
I83
tp223
a(S'w'
I729
tp224
a(S'p1_vo'
I11
tp225
a(S'w'
I734
tp226
a(S'p1_vo'
I10
tp227
a(S'w'
I734
tp228
a(S'p1_vo'
I9
tp229
a(S'w'
I1467
tp230
a(S'p1_vo'
I8
tp231
a(S'w'
I5
tp232
a(S'p2_vo'
I8
tp233
a(S'w'
I729
tp234
a(S'p1_vo'
I7
tp235
a(S'w'
I4
tp236
a(S'p2_vo'
I7
tp237
a(S'w'
I730
tp238
a(S'p1_vo'
I6
tp239
a(S'w'
I4
tp240
a(S'p2_vo'
I6
tp241
a(S'w'
I729
tp242
a(S'p1_vo'
I12
tp243
a(S'w'
I10
tp244
a(S'p1_ll'
I1
tp245
a(S'p1_th'
I0
tp246
a(S'w'
I1
tp247
a(S'p1_tl'
I254
tp248
a(S'w'
I3
tp249
a(S'p2_vo'
I13
tp250
a(S'w'
I7
tp251
a(S'p2_tl'
I250
tp252
a(S'w'
I13
tp253
a(S'tr_ll'
I1
tp254
a(S'tr_th'
I0
tp255
a(S'tr_tl'
I151
tp256
a(S'w'
I700
tp257
a(S'p1_vo'
I11
tp258
a(S'w'
I4
tp259
a(S'p2_vo'
I12
tp260
a(S'w'
I730
tp261
a(S'p1_vo'
I10
tp262
a(S'w'
I4
tp263
a(S'p2_vo'
I11
tp264
a(S'w'
I730
tp265
a(S'p1_vo'
I9
tp266
a(S'w'
I4
tp267
a(S'p2_vo'
I10
tp268
a(S'w'
I8805
tp269
a(S'p2_vo'
I9
tp270
a(S'w'
I734
tp271
a(S'p2_vo'
I8
tp272
a(S'w'
I734
tp273
a(S'p2_vo'
I7
tp274
a(S'w'
I735
tp275
a(S'p2_vo'
I13
tp276
a(S'w'
I2
tp277
a(S'p2_ll'
I1
tp278
a(S'p2_th'
I3
tp279
a(S'w'
I1
tp280
a(S'p2_tl'
I249
tp281
a(S'w'
I730
tp282
a(S'p2_vo'
I12
tp283
a(S'w'
I733
tp284
a(S'p2_vo'
I11
tp285
a(S'w'
I734
tp286
a(S'p2_vo'
I10
tp287
a(S'w'
I734
tp288
a(S'p2_vo'
I9
tp289
a(S'w'
I734
tp290
a(S'p2_vo'
I8
tp291
a(S'w'
I737
tp292
a(S'p2_vo'
I13
tp293
a(S'w'
I3
tp294
a(S'p2_ll'
I1
tp295
a(S'p2_th'
I2
tp296
a(S'p2_tl'
I250
tp297
a(S'w'
I727
tp298
a(S'p2_vo'
I12
tp299
a(S'w'
I734
tp300
a(S'p2_vo'
I11
tp301
a(S'w'
I734
tp302
a(S'p2_vo'
I10
tp303
a(S'w'
I30815
tp304
a(S'p1_vo'
I8
tp305
a(S'w'
I5
tp306
a(S'p2_vo'
I9
tp307
a(S'w'
I729
tp308
a(S'p1_vo'
I7
tp309
a(S'w'
I4
tp310
a(S'p2_vo'
I8
tp311
a(S'w'
I730
tp312
a(S'p1_vo'
I6
tp313
a(S'w'
I4
tp314
a(S'p2_vo'
I7
tp315
a(S'w'
I729
tp316
a(S'p1_du'
I0
tp317
a(S'p1_vo'
I0
tp318
a(S'w'
I2
tp319
a(S'p2_du'
I0
tp320
a(S'p2_vo'
I0
tp321
a(S'w'
I3
tp322
a(S'tr_lh'
I0
tp323
a(S'tr_lr'
I0
tp324
a(S'w'
I42805
tp325
a.