(lp1
(S'clock'
p2
I1789772
tp3
a(S'ch_no'
I1
tp4
a(S'ch_tr'
I1
tp5
a(S'ch_p2'
I1
tp6
a(S'ch_p1'
I1
tp7
a(S'p1_lh'
I1
tp8
a(S'p1_cv'
I1
tp9
a(S'p1_sp'
I3
tp10
a(S'p2_lh'
I1
tp11
a(S'p2_cv'
I1
tp12
a(S'p2_sp'
I3
tp13
a(S'no_lh'
I1
tp14
a(S'no_cv'
I1
tp15
a(S'w'
I3
tp16
a(S'p1_du'
I1
tp17
a(S'p1_vo'
I14
tp18
a(S'w'
I9
tp19
a(S'p1_ll'
I1
tp20
a(S'p1_th'
I1
tp21
a(S'p1_tl'
I29
tp22
a(S'w'
I4
tp23
a(S'p2_vo'
I15
tp24
a(S'w'
I7
tp25
a(S'p2_ll'
I1
tp26
a(S'p2_th'
I3
tp27
a(S'p2_tl'
I87
tp28
a(S'w'
I4
tp29
a(S'tr_lr'
I80
tp30
a(S'w'
I8
tp31
a(S'tr_ll'
I1
tp32
a(S'tr_tl'
I169
tp33
a(S'w'
I707
tp34
a(S'p2_vo'
I14
tp35
a(S'w'
I734
tp36
a(S'p2_vo'
I13
tp37
a(S'w'
I734
tp38
a(S'p2_vo'
I12
tp39
a(S'w'
I734
tp40
a(S'p2_vo'
I11
tp41
a(S'w'
I733
tp42
a(S'p2_vo'
I10
tp43
a(S'w'
I734
tp44
a(S'p2_vo'
I9
tp45
a(S'w'
I734
tp46
a(S'p2_vo'
I8
tp47
a(S'w'
I734
tp48
a(S'p2_vo'
I7
tp49
a(S'w'
I734
tp50
a(S'p2_vo'
I6
tp51
a(S'w'
I733
tp52
a(S'p2_vo'
I5
tp53
a(S'w'
I734
tp54
a(S'p2_vo'
I4
tp55
a(S'w'
I735
tp56
a(S'p2_vo'
I15
tp57
a(S'w'
I3
tp58
a(S'w'
I730
tp59
a(S'p2_vo'
I14
tp60
a(S'w'
I734
tp61
a(S'p2_vo'
I13
tp62
a(S'w'
I733
tp63
a(S'p2_vo'
I12
tp64
a(S'w'
I734
tp65
a(S'p2_vo'
I11
tp66
a(S'w'
I734
tp67
a(S'p2_vo'
I10
tp68
a(S'w'
I735
tp69
a(S'p2_vo'
I15
tp70
a(S'w'
I3
tp71
a(S'w'
I730
tp72
a(S'p2_vo'
I14
tp73
a(S'w'
I733
tp74
a(S'p2_vo'
I13
tp75
a(S'w'
I734
tp76
a(S'p2_vo'
I12
tp77
a(S'w'
I734
tp78
a(S'p2_vo'
I11
tp79
a(S'w'
I734
tp80
a(S'p2_vo'
I10
tp81
a(S'w'
I736
tp82
a(S'p2_vo'
I15
tp83
a(S'w'
I3
tp84
a(S'w'
I728
tp85
a(S'p2_vo'
I14
tp86
a(S'w'
I730
tp87
a(S'p1_vo'
I13
tp88
a(S'w'
I5
tp89
a(S'p2_vo'
I13
tp90
a(S'w'
I729
tp91
a(S'p1_vo'
I12
tp92
a(S'w'
I4
tp93
a(S'p2_vo'
I12
tp94
a(S'w'
I730
tp95
a(S'p1_vo'
I11
tp96
a(S'w'
I733
tp97
a(S'p1_vo'
I10
tp98
a(S'w'
I734
tp99
a(S'p1_vo'
I9
tp100
a(S'w'
I734
tp101
a(S'p1_vo'
I8
tp102
a(S'w'
I734
tp103
a(S'p1_vo'
I7
tp104
a(S'w'
I734
tp105
a(S'p1_vo'
I6
tp106
a(S'w'
I733
tp107
a(S'p1_vo'
I5
tp108
a(S'w'
I734
tp109
a(S'p1_vo'
I4
tp110
a(S'w'
I735
tp111
a(S'p1_vo'
I14
tp112
a(S'w'
I4
tp113
a(S'w'
I7
tp114
a(S'tr_lr'
I18
tp115
a(S'w'
I6
tp116
a(S'tr_ll'
I1
tp117
a(S'w'
I716
tp118
a(S'p1_vo'
I13
tp119
a(S'w'
I734
tp120
a(S'p1_vo'
I12
tp121
a(S'w'
I733
tp122
a(S'p1_vo'
I11
tp123
a(S'w'
I734
tp124
a(S'p1_vo'
I10
tp125
a(S'w'
I734
tp126
a(S'p1_vo'
I9
tp127
a(S'w'
I735
tp128
a(S'p1_vo'
I14
tp129
a(S'w'
I4
tp130
a(S'w'
I12
tp131
a(S'tr_ll'
I1
tp132
a(S'w'
I717
tp133
a(S'p1_vo'
I13
tp134
a(S'w'
I733
tp135
a(S'p1_vo'
I12
tp136
a(S'w'
I734
tp137
a(S'p1_vo'
I11
tp138
a(S'w'
I734
tp139
a(S'p1_vo'
I10
tp140
a(S'w'
I5
tp141
a(S'p2_vo'
I11
tp142
a(S'w'
I729
tp143
a(S'p1_vo'
I9
tp144
a(S'w'
I4
tp145
a(S'p2_vo'
I10
tp146
a(S'w'
I732
tp147
a(S'p1_vo'
I14
tp148
a(S'w'
I3
tp149
a(S'w'
I4
tp150
a(S'p2_vo'
I9
tp151
a(S'w'
I10
tp152
a(S'tr_ll'
I1
tp153
a(S'w'
I718
tp154
a(S'p2_vo'
I8
tp155
a(S'w'
I730
tp156
a(S'p1_vo'
I13
tp157
a(S'w'
I5
tp158
a(S'p2_vo'
I7
tp159
a(S'w'
I729
tp160
a(S'p1_vo'
I12
tp161
a(S'w'
I4
tp162
a(S'p2_vo'
I6
tp163
a(S'w'
I730
tp164
a(S'p1_vo'
I11
tp165
a(S'w'
I4
tp166
a(S'p2_vo'
I5
tp167
a(S'w'
I729
tp168
a(S'p1_vo'
I10
tp169
a(S'w'
I4
tp170
a(S'p2_vo'
I4
tp171
a(S'w'
I730
tp172
a(S'p1_vo'
I9
tp173
a(S'w'
I6
tp174
a(S'p2_vo'
I15
tp175
a(S'p2_vo'
I0
tp176
a(S'w'
I728
tp177
a(S'p1_vo'
I8
tp178
a(S'w'
I734
tp179
a(S'p1_vo'
I7
tp180
a(S'w'
I734
tp181
a(S'p1_vo'
I6
tp182
a(S'w'
I733
tp183
a(S'p1_vo'
I5
tp184
a(S'w'
I734
tp185
a(S'p1_vo'
I4
tp186
a(S'w'
I736
tp187
a(S'p1_vo'
I14
tp188
a(S'w'
I3
tp189
a(S'p1_tl'
I64
tp190
a(S'w'
I5
tp191
a(S'p2_vo'
I15
tp192
a(S'w'
I3
tp193
a(S'w'
I10
tp194
a(S'tr_ll'
I1
tp195
a(S'tr_tl'
I190
tp196
a(S'w'
I715
tp197
a(S'p2_vo'
I14
tp198
a(S'w'
I730
tp199
a(S'p1_vo'
I13
tp200
a(S'w'
I5
tp201
a(S'p2_vo'
I13
tp202
a(S'w'
I728
tp203
a(S'p1_vo'
I12
tp204
a(S'w'
I4
tp205
a(S'p2_vo'
I12
tp206
a(S'w'
I730
tp207
a(S'p1_vo'
I11
tp208
a(S'w'
I4
tp209
a(S'p2_vo'
I11
tp210
a(S'w'
I730
tp211
a(S'p1_vo'
I10
tp212
a(S'w'
I4
tp213
a(S'p2_vo'
I10
tp214
a(S'w'
I730
tp215
a(S'p1_vo'
I9
tp216
a(S'w'
I6
tp217
a(S'p2_vo'
I15
tp218
a(S'p2_vo'
I0
tp219
a(S'w'
I728
tp220
a(S'p1_vo'
I8
tp221
a(S'w'
I733
tp222
a(S'p1_vo'
I7
tp223
a(S'w'
I734
tp224
a(S'p1_vo'
I6
tp225
a(S'w'
I734
tp226
a(S'p1_vo'
I5
tp227
a(S'w'
I734
tp228
a(S'p1_vo'
I4
tp229
a(S'w'
I733
tp230
a(S'p1_vo'
I14
tp231
a(S'w'
I7
tp232
a(S'w'
I4
tp233
a(S'p2_vo'
I15
tp234
a(S'w'
I6
tp235
a(S'w'
I10
tp236
a(S'tr_ll'
I1
tp237
a(S'w'
I707
tp238
a(S'p1_vo'
I13
tp239
a(S'w'
I4
tp240
a(S'p2_vo'
I14
tp241
a(S'w'
I730
tp242
a(S'p1_vo'
I12
tp243
a(S'w'
I4
tp244
a(S'p2_vo'
I13
tp245
a(S'w'
I730
tp246
a(S'p1_vo'
I11
tp247
a(S'w'
I4
tp248
a(S'p2_vo'
I12
tp249
a(S'w'
I730
tp250
a(S'p1_vo'
I10
tp251
a(S'w'
I5
tp252
a(S'p2_vo'
I15
tp253
a(S'w'
I1
tp254
a(S'p2_vo'
I0
tp255
a(S'w'
I727
tp256
a(S'p1_vo'
I9
tp257
a(S'w'
I734
tp258
a(S'p1_vo'
I8
tp259
a(S'w'
I734
tp260
a(S'p1_vo'
I7
tp261
a(S'w'
I735
tp262
a(S'p1_vo'
I14
tp263
a(S'w'
I4
tp264
a(S'w'
I5
tp265
a(S'p2_vo'
I15
tp266
a(S'w'
I3
tp267
a(S'w'
I9
tp268
a(S'tr_ll'
I1
tp269
a(S'w'
I712
tp270
a(S'p1_vo'
I13
tp271
a(S'w'
I4
tp272
a(S'p2_vo'
I14
tp273
a(S'w'
I729
tp274
a(S'p1_vo'
I12
tp275
a(S'w'
I4
tp276
a(S'p2_vo'
I13
tp277
a(S'w'
I730
tp278
a(S'p1_vo'
I11
tp279
a(S'w'
I4
tp280
a(S'p2_vo'
I12
tp281
a(S'w'
I730
tp282
a(S'p1_vo'
I10
tp283
a(S'w'
I6
tp284
a(S'p2_vo'
I15
tp285
a(S'p2_vo'
I0
tp286
a(S'w'
I728
tp287
a(S'p1_vo'
I9
tp288
a(S'w'
I734
tp289
a(S'p1_vo'
I8
tp290
a(S'w'
I733
tp291
a(S'p1_vo'
I7
tp292
a(S'w'
I735
tp293
a(S'p1_vo'
I14
tp294
a(S'w'
I3
tp295
a(S'p1_ll'
I1
tp296
a(S'p1_th'
I0
tp297
a(S'w'
I1
tp298
a(S'p1_tl'
I240
tp299
a(S'w'
I5
tp300
a(S'p2_vo'
I15
tp301
a(S'w'
I3
tp302
a(S'w'
I9
tp303
a(S'tr_ll'
I1
tp304
a(S'w'
I1
tp305
a(S'tr_tl'
I142
tp306
a(S'w'
I711
tp307
a(S'p1_vo'
I13
tp308
a(S'w'
I4
tp309
a(S'p2_vo'
I14
tp310
a(S'w'
I730
tp311
a(S'p1_vo'
I12
tp312
a(S'w'
I4
tp313
a(S'p2_vo'
I13
tp314
a(S'w'
I730
tp315
a(S'p1_vo'
I11
tp316
a(S'w'
I4
tp317
a(S'p2_vo'
I12
tp318
a(S'w'
I729
tp319
a(S'p1_vo'
I10
tp320
a(S'w'
I5
tp321
a(S'p2_vo'
I15
tp322
a(S'w'
I1
tp323
a(S'p2_vo'
I0
tp324
a(S'w'
I728
tp325
a(S'p1_vo'
I9
tp326
a(S'w'
I734
tp327
a(S'p1_vo'
I8
tp328
a(S'w'
I734
tp329
a(S'p1_vo'
I7
tp330
a(S'w'
I733
tp331
a(S'p1_vo'
I14
tp332
a(S'w'
I9
tp333
a(S'p1_ll'
I1
tp334
a(S'p1_th'
I1
tp335
a(S'p1_tl'
I29
tp336
a(S'w'
I4
tp337
a(S'p2_vo'
I15
tp338
a(S'w'
I6
tp339
a(S'w'
I4
tp340
a(S'tr_lr'
I80
tp341
a(S'w'
I8
tp342
a(S'tr_ll'
I1
tp343
a(S'tr_tl'
I169
tp344
a(S'w'
I707
tp345
a(S'p2_vo'
I14
tp346
a(S'w'
I734
tp347
a(S'p2_vo'
I13
tp348
a(S'w'
I734
tp349
a(S'p2_vo'
I12
tp350
a(S'w'
I734
tp351
a(S'p2_vo'
I11
tp352
a(S'w'
I733
tp353
a(S'p2_vo'
I10
tp354
a(S'w'
I735
tp355
a(S'p2_vo'
I15
tp356
a(S'w'
I1
tp357
a(S'p2_vo'
I0
tp358
a(S'w'
I4402
tp359
a(S'p2_vo'
I15
tp360
a(S'w'
I3
tp361
a(S'w'
I730
tp362
a(S'p2_vo'
I14
tp363
a(S'w'
I734
tp364
a(S'p2_vo'
I13
tp365
a(S'w'
I733
tp366
a(S'p2_vo'
I12
tp367
a(S'w'
I734
tp368
a(S'p2_vo'
I11
tp369
a(S'w'
I734
tp370
a(S'p2_vo'
I10
tp371
a(S'w'
I735
tp372
a(S'p2_vo'
I15
tp373
a(S'w'
I3
tp374
a(S'w'
I730
tp375
a(S'p2_vo'
I14
tp376
a(S'w'
I733
tp377
a(S'p2_vo'
I13
tp378
a(S'w'
I734
tp379
a(S'p2_vo'
I12
tp380
a(S'w'
I734
tp381
a(S'p2_vo'
I11
tp382
a(S'w'
I734
tp383
a(S'p2_vo'
I10
tp384
a(S'w'
I736
tp385
a(S'p2_vo'
I15
tp386
a(S'w'
I3
tp387
a(S'w'
I728
tp388
a(S'p2_vo'
I14
tp389
a(S'w'
I730
tp390
a(S'p1_vo'
I13
tp391
a(S'w'
I5
tp392
a(S'p2_vo'
I13
tp393
a(S'w'
I729
tp394
a(S'p1_vo'
I12
tp395
a(S'w'
I4
tp396
a(S'p2_vo'
I12
tp397
a(S'w'
I730
tp398
a(S'p1_vo'
I11
tp399
a(S'w'
I733
tp400
a(S'p1_vo'
I10
tp401
a(S'w'
I734
tp402
a(S'p1_vo'
I9
tp403
a(S'w'
I734
tp404
a(S'p1_vo'
I8
tp405
a(S'w'
I734
tp406
a(S'p1_vo'
I7
tp407
a(S'w'
I734
tp408
a(S'p1_vo'
I6
tp409
a(S'w'
I733
tp410
a(S'p1_vo'
I5
tp411
a(S'w'
I734
tp412
a(S'p1_vo'
I4
tp413
a(S'w'
I735
tp414
a(S'p1_vo'
I14
tp415
a(S'w'
I4
tp416
a(S'w'
I7
tp417
a(S'tr_lr'
I18
tp418
a(S'w'
I6
tp419
a(S'tr_ll'
I1
tp420
a(S'w'
I716
tp421
a(S'p1_vo'
I13
tp422
a(S'w'
I734
tp423
a(S'p1_vo'
I12
tp424
a(S'w'
I733
tp425
a(S'p1_vo'
I11
tp426
a(S'w'
I734
tp427
a(S'p1_vo'
I10
tp428
a(S'w'
I734
tp429
a(S'p1_vo'
I9
tp430
a(S'w'
I735
tp431
a(S'p1_vo'
I14
tp432
a(S'w'
I3
tp433
a(S'p1_ll'
I1
tp434
a(S'p1_th'
I0
tp435
a(S'w'
I1
tp436
a(S'p1_tl'
I254
tp437
a(S'w'
I12
tp438
a(S'tr_ll'
I1
tp439
a(S'w'
I1
tp440
a(S'tr_tl'
I160
tp441
a(S'w'
I716
tp442
a(S'p1_vo'
I13
tp443
a(S'w'
I733
tp444
a(S'p1_vo'
I12
tp445
a(S'w'
I734
tp446
a(S'p1_vo'
I11
tp447
a(S'w'
I734
tp448
a(S'p1_vo'
I10
tp449
a(S'w'
I5
tp450
a(S'p2_vo'
I11
tp451
a(S'w'
I729
tp452
a(S'p1_vo'
I9
tp453
a(S'w'
I4
tp454
a(S'p2_vo'
I10
tp455
a(S'w'
I732
tp456
a(S'p1_vo'
I14
tp457
a(S'w'
I4
tp458
a(S'p1_tl'
I240
tp459
a(S'w'
I4
tp460
a(S'p2_vo'
I9
tp461
a(S'w'
I3
tp462
a(S'tr_lr'
I48
tp463
a(S'w'
I8
tp464
a(S'tr_ll'
I1
tp465
a(S'tr_tl'
I142
tp466
a(S'w'
I716
tp467
a(S'p2_vo'
I8
tp468
a(S'w'
I734
tp469
a(S'p2_vo'
I7
tp470
a(S'w'
I734
tp471
a(S'p2_vo'
I6
tp472
a(S'w'
I734
tp473
a(S'p2_vo'
I5
tp474
a(S'w'
I733
tp475
a(S'p2_vo'
I4
tp476
a(S'w'
I735
tp477
a(S'p2_vo'
I15
tp478
a(S'w'
I1
tp479
a(S'p2_vo'
I0
tp480
a(S'w'
I4402
tp481
a(S'p2_vo'
I15
tp482
a(S'w'
I2
tp483
a(S'p2_ll'
I1
tp484
a(S'p2_th'
I2
tp485
a(S'w'
I1
tp486
a(S'p2_tl'
I59
tp487
a(S'w'
I730
tp488
a(S'p2_vo'
I14
tp489
a(S'w'
I730
tp490
a(S'p1_vo'
I13
tp491
a(S'w'
I5
tp492
a(S'p2_vo'
I13
tp493
a(S'w'
I728
tp494
a(S'p1_vo'
I12
tp495
a(S'w'
I4
tp496
a(S'p2_vo'
I12
tp497
a(S'w'
I730
tp498
a(S'p1_vo'
I11
tp499
a(S'w'
I4
tp500
a(S'p2_vo'
I11
tp501
a(S'w'
I730
tp502
a(S'p1_vo'
I10
tp503
a(S'w'
I4
tp504
a(S'p2_vo'
I10
tp505
a(S'w'
I730
tp506
a(S'p1_vo'
I9
tp507
a(S'w'
I5
tp508
a(S'p2_vo'
I15
tp509
a(S'w'
I3
tp510
a(S'p2_ll'
I1
tp511
a(S'p2_th'
I1
tp512
a(S'p2_tl'
I252
tp513
a(S'w'
I726
tp514
a(S'p1_vo'
I8
tp515
a(S'w'
I4
tp516
a(S'p2_vo'
I14
tp517
a(S'w'
I729
tp518
a(S'p1_vo'
I7
tp519
a(S'w'
I4
tp520
a(S'p2_vo'
I13
tp521
a(S'w'
I730
tp522
a(S'p1_vo'
I6
tp523
a(S'w'
I4
tp524
a(S'p2_vo'
I12
tp525
a(S'w'
I730
tp526
a(S'p1_vo'
I5
tp527
a(S'w'
I4
tp528
a(S'p2_vo'
I11
tp529
a(S'w'
I730
tp530
a(S'p1_vo'
I4
tp531
a(S'w'
I4
tp532
a(S'p2_vo'
I10
tp533
a(S'w'
I732
tp534
a(S'p1_vo'
I14
tp535
a(S'w'
I4
tp536
a(S'p1_tl'
I213
tp537
a(S'w'
I5
tp538
a(S'p2_vo'
I15
tp539
a(S'w'
I3
tp540
a(S'p2_tl'
I224
tp541
a(S'w'
I4
tp542
a(S'tr_lr'
I18
tp543
a(S'w'
I7
tp544
a(S'tr_ll'
I1
tp545
a(S'tr_tl'
I160
tp546
a(S'w'
I712
tp547
a(S'p2_vo'
I14
tp548
a(S'w'
I730
tp549
a(S'p1_vo'
I13
tp550
a(S'w'
I5
tp551
a(S'p2_vo'
I13
tp552
a(S'w'
I729
tp553
a(S'p1_vo'
I12
tp554
a(S'w'
I4
tp555
a(S'p2_vo'
I12
tp556
a(S'w'
I730
tp557
a(S'p1_vo'
I11
tp558
a(S'w'
I4
tp559
a(S'p2_vo'
I11
tp560
a(S'w'
I729
tp561
a(S'p1_vo'
I10
tp562
a(S'w'
I4
tp563
a(S'p2_vo'
I10
tp564
a(S'w'
I730
tp565
a(S'p1_vo'
I9
tp566
a(S'w'
I6
tp567
a(S'p2_vo'
I15
tp568
a(S'w'
I3
tp569
a(S'p2_tl'
I252
tp570
a(S'w'
I725
tp571
a(S'p1_vo'
I8
tp572
a(S'w'
I4
tp573
a(S'p2_vo'
I14
tp574
a(S'w'
I730
tp575
a(S'p1_vo'
I7
tp576
a(S'w'
I4
tp577
a(S'p2_vo'
I13
tp578
a(S'w'
I730
tp579
a(S'p1_vo'
I6
tp580
a(S'w'
I4
tp581
a(S'p2_vo'
I12
tp582
a(S'w'
I729
tp583
a(S'p1_vo'
I5
tp584
a(S'w'
I4
tp585
a(S'p2_vo'
I11
tp586
a(S'w'
I730
tp587
a(S'p1_vo'
I4
tp588
a(S'w'
I4
tp589
a(S'p2_vo'
I10
tp590
a(S'w'
I732
tp591
a(S'p1_vo'
I14
tp592
a(S'w'
I3
tp593
a(S'p1_tl'
I254
tp594
a(S'w'
I6
tp595
a(S'p2_vo'
I15
tp596
a(S'w'
I2
tp597
a(S'p2_ll'
I1
tp598
a(S'p2_th'
I2
tp599
a(S'w'
I1
tp600
a(S'p2_tl'
I128
tp601
a(S'w'
I9
tp602
a(S'tr_ll'
I1
tp603
a(S'w'
I711
tp604
a(S'p1_vo'
I13
tp605
a(S'w'
I4
tp606
a(S'p2_vo'
I14
tp607
a(S'w'
I730
tp608
a(S'p1_vo'
I12
tp609
a(S'w'
I4
tp610
a(S'p2_vo'
I13
tp611
a(S'w'
I729
tp612
a(S'p1_vo'
I11
tp613
a(S'w'
I4
tp614
a(S'p2_vo'
I12
tp615
a(S'w'
I730
tp616
a(S'p1_vo'
I10
tp617
a(S'w'
I4
tp618
a(S'p2_vo'
I11
tp619
a(S'w'
I730
tp620
a(S'p1_vo'
I9
tp621
a(S'w'
I4
tp622
a(S'p2_vo'
I10
tp623
a(S'w'
I732
tp624
a(S'p1_vo'
I14
tp625
a(S'w'
I4
tp626
a(S'p1_tl'
I213
tp627
a(S'w'
I5
tp628
a(S'p2_vo'
I15
tp629
a(S'w'
I3
tp630
a(S'p2_ll'
I1
tp631
a(S'p2_th'
I1
tp632
a(S'p2_tl'
I252
tp633
a(S'w'
I9
tp634
a(S'tr_ll'
I1
tp635
a(S'w'
I711
tp636
a(S'p1_vo'
I13
tp637
a(S'w'
I4
tp638
a(S'p2_vo'
I14
tp639
a(S'w'
I729
tp640
a(S'p1_vo'
I12
tp641
a(S'w'
I4
tp642
a(S'p2_vo'
I13
tp643
a(S'w'
I730
tp644
a(S'p1_vo'
I11
tp645
a(S'w'
I4
tp646
a(S'p2_vo'
I12
tp647
a(S'w'
I730
tp648
a(S'p1_vo'
I10
tp649
a(S'w'
I4
tp650
a(S'p2_vo'
I11
tp651
a(S'w'
I730
tp652
a(S'p1_vo'
I9
tp653
a(S'w'
I4
tp654
a(S'p2_vo'
I10
tp655
a(S'w'
I735
tp656
a(S'p1_vo'
I14
tp657
a(S'w'
I4
tp658
a(S'p1_tl'
I190
tp659
a(S'w'
I8
tp660
a(S'p2_vo'
I15
tp661
a(S'w'
I3
tp662
a(S'p2_ll'
I1
tp663
a(S'p2_th'
I2
tp664
a(S'p2_tl'
I59
tp665
a(S'w'
I4
tp666
a(S'tr_lh'
I1
tp667
a(S'tr_lr'
I127
tp668
a(S'w'
I9
tp669
a(S'tr_ll'
I1
tp670
a(S'w'
I1
tp671
a(S'tr_tl'
I113
tp672
a(S'w'
I703
tp673
a(S'p2_vo'
I14
tp674
a(S'w'
I734
tp675
a(S'p2_vo'
I13
tp676
a(S'w'
I734
tp677
a(S'p2_vo'
I12
tp678
a(S'w'
I43290
tp679
a(S'p1_vo'
I13
tp680
a(S'w'
I733
tp681
a(S'p1_vo'
I12
tp682
a(S'w'
I734
tp683
a(S'p1_vo'
I11
tp684
a(S'w'
I5
tp685
a(S'p2_vo'
I11
tp686
a(S'w'
I729
tp687
a(S'p1_vo'
I10
tp688
a(S'w'
I4
tp689
a(S'p2_vo'
I10
tp690
a(S'w'
I730
tp691
a(S'p1_vo'
I9
tp692
a(S'w'
I4
tp693
a(S'p2_vo'
I9
tp694
a(S'w'
I730
tp695
a(S'p1_vo'
I8
tp696
a(S'w'
I4
tp697
a(S'p2_vo'
I8
tp698
a(S'w'
I729
tp699
a(S'p1_vo'
I7
tp700
a(S'w'
I4
tp701
a(S'p2_vo'
I7
tp702
a(S'w'
I730
tp703
a(S'p1_vo'
I6
tp704
a(S'w'
I4
tp705
a(S'p2_vo'
I6
tp706
a(S'w'
I730
tp707
a(S'p1_vo'
I5
tp708
a(S'w'
I4
tp709
a(S'p2_vo'
I5
tp710
a(S'w'
I730
tp711
a(S'p1_vo'
I4
tp712
a(S'w'
I4
tp713
a(S'p2_vo'
I4
tp714
a(S'w'
I729
tp715
a(S'p1_du'
I0
tp716
a(S'p1_vo'
I0
tp717
a(S'w'
I2
tp718
a(S'p2_vo'
I0
tp719
a(S'w'
I3
tp720
a(S'tr_lh'
I0
tp721
a(S'tr_lr'
I0
tp722
a(S'w'
I46910
tp723
a.