(lp1
(S'clock'
p2
I1789772
tp3
a(S'p1_lh'
I1
tp4
a(S'p1_cv'
I1
tp5
a(S'p1_sp'
I3
tp6
a(S'p1_tl'
I138
tp7
a(S'p1_ll'
I1
tp8
a(S'p2_du'
I2
tp9
a(S'p2_lh'
I1
tp10
a(S'p2_cv'
I1
tp11
a(S'p2_sp'
I3
tp12
a(S'p2_tl'
I46
tp13
a(S'p2_ll'
I1
tp14
a(S'p2_th'
I1
tp15
a(S'tr_tl'
I252
tp16
a(S'tr_ll'
I1
tp17
a(S'tr_th'
I1
tp18
a(S'no_lh'
I1
tp19
a(S'no_cv'
I1
tp20
a(S'no_np'
I2
tp21
a(S'no_ll'
I1
tp22
a(S'ch_no'
I1
tp23
a(S'ch_tr'
I1
tp24
a(S'ch_p2'
I1
tp25
a(S'ch_p1'
I1
tp26
a(S'fc_mo'
I1
tp27
a(S'p2_vo'
I11
tp28
a(S'w'
I12
tp29
a(S'p2_du'
I0
tp30
a(S'p2_vo'
I0
tp31
a(S'w'
I11
tp32
a(S'tr_lr'
I13
tp33
a(S'w'
I7
tp34
a(S'tr_ll'
I1
tp35
a(S'w'
I1
tp36
a(S'tr_tl'
I197
tp37
a(S'w'
I703
tp38
a(S'p2_vo'
I7
tp39
a(S'w'
I8
tp40
a(S'p2_ll'
I1
tp41
a(S'p2_tl'
I197
tp42
a(S'w'
I727
tp43
a(S'p2_vo'
I6
tp44
a(S'w'
I734
tp45
a(S'p2_vo'
I5
tp46
a(S'w'
I734
tp47
a(S'p2_vo'
I4
tp48
a(S'w'
I733
tp49
a(S'p2_vo'
I3
tp50
a(S'w'
I734
tp51
a(S'p2_vo'
I2
tp52
a(S'w'
I734
tp53
a(S'p2_vo'
I1
tp54
a(S'w'
I734
tp55
a(S'p2_vo'
I0
tp56
a(S'w'
I3674
tp57
a(S'w'
I2
tp58
a(S'tr_ll'
I1
tp59
a(S'tr_th'
I2
tp60
a(S'w'
I1
tp61
a(S'tr_tl'
I92
tp62
a(S'w'
I727
tp63
a(S'p2_vo'
I7
tp64
a(S'w'
I3
tp65
a(S'p2_ll'
I1
tp66
a(S'p2_th'
I2
tp67
a(S'p2_tl'
I92
tp68
a(S'p2_ll'
I1
tp69
a(S'w'
I729
tp70
a(S'p2_vo'
I6
tp71
a(S'w'
I734
tp72
a(S'p2_vo'
I5
tp73
a(S'w'
I742
tp74
a(S'p2_vo'
I4
tp75
a(S'w'
I726
tp76
a(S'p2_vo'
I3
tp77
a(S'w'
I734
tp78
a(S'p2_vo'
I2
tp79
a(S'w'
I733
tp80
a(S'p2_vo'
I1
tp81
a(S'w'
I736
tp82
a(S'p2_vo'
I0
tp83
a(S'w'
I3678
tp84
a(S'tr_ll'
I1
tp85
a(S'tr_th'
I1
tp86
a(S'tr_tl'
I171
tp87
a(S'w'
I727
tp88
a(S'p2_vo'
I7
tp89
a(S'w'
I4
tp90
a(S'p2_ll'
I1
tp91
a(S'p2_th'
I1
tp92
a(S'p2_tl'
I171
tp93
a(S'p2_ll'
I1
tp94
a(S'w'
I727
tp95
a(S'p2_vo'
I6
tp96
a(S'w'
I734
tp97
a(S'p2_vo'
I5
tp98
a(S'w'
I734
tp99
a(S'p2_vo'
I4
tp100
a(S'w'
I734
tp101
a(S'p2_vo'
I3
tp102
a(S'w'
I734
tp103
a(S'p2_vo'
I2
tp104
a(S'w'
I741
tp105
a(S'p2_vo'
I1
tp106
a(S'w'
I726
tp107
a(S'p2_vo'
I0
tp108
a(S'w'
I3678
tp109
a(S'tr_ll'
I1
tp110
a(S'tr_th'
I2
tp111
a(S'tr_tl'
I92
tp112
a(S'w'
I720
tp113
a(S'p2_vo'
I7
tp114
a(S'w'
I3
tp115
a(S'p2_ll'
I1
tp116
a(S'p2_th'
I2
tp117
a(S'p2_tl'
I92
tp118
a(S'p2_ll'
I1
tp119
a(S'w'
I736
tp120
a(S'p2_vo'
I6
tp121
a(S'w'
I726
tp122
a(S'p2_vo'
I5
tp123
a(S'w'
I734
tp124
a(S'p2_vo'
I4
tp125
a(S'w'
I733
tp126
a(S'p2_vo'
I3
tp127
a(S'w'
I734
tp128
a(S'p2_vo'
I2
tp129
a(S'w'
I734
tp130
a(S'p2_vo'
I1
tp131
a(S'w'
I734
tp132
a(S'p2_vo'
I0
tp133
a(S'w'
I3681
tp134
a(S'tr_ll'
I1
tp135
a(S'tr_th'
I1
tp136
a(S'tr_tl'
I197
tp137
a(S'w'
I727
tp138
a(S'p2_vo'
I7
tp139
a(S'w'
I3
tp140
a(S'p2_ll'
I1
tp141
a(S'p2_th'
I1
tp142
a(S'p2_tl'
I197
tp143
a(S'w'
I1
tp144
a(S'p2_ll'
I1
tp145
a(S'w'
I724
tp146
a.