(lp1
(S'clock'
p2
I1789772
tp3
a(S'p1_lh'
I1
tp4
a(S'p1_cv'
I1
tp5
a(S'p1_sp'
I3
tp6
a(S'p1_tl'
I240
tp7
a(S'p1_ll'
I1
tp8
a(S'p1_th'
I1
tp9
a(S'p2_lh'
I1
tp10
a(S'p2_cv'
I1
tp11
a(S'p2_sp'
I3
tp12
a(S'p2_tl'
I181
tp13
a(S'p2_ll'
I1
tp14
a(S'tr_tl'
I197
tp15
a(S'tr_ll'
I1
tp16
a(S'tr_th'
I1
tp17
a(S'no_lh'
I1
tp18
a(S'no_cv'
I1
tp19
a(S'no_np'
I14
tp20
a(S'no_ll'
I1
tp21
a(S'ch_no'
I1
tp22
a(S'ch_tr'
I1
tp23
a(S'ch_p2'
I1
tp24
a(S'ch_p1'
I1
tp25
a(S'fc_mo'
I1
tp26
a(S'p2_du'
I3
tp27
a(S'p2_vo'
I15
tp28
a(S'w'
I10
tp29
a(S'p2_ll'
I1
tp30
a(S'p2_tl'
I152
tp31
a(S'w'
I9
tp32
a(S'tr_lr'
I54
tp33
a(S'w'
I3
tp34
a(S'tr_ll'
I1
tp35
a(S'tr_th'
I0
tp36
a(S'w'
I1
tp37
a(S'tr_tl'
I120
tp38
a(S'w'
I711
tp39
a(S'p2_vo'
I14
tp40
a(S'w'
I729
tp41
a(S'p1_du'
I2
tp42
a(S'p1_vo'
I15
tp43
a(S'w'
I8
tp44
a(S'p1_ll'
I1
tp45
a(S'p1_tl'
I46
tp46
a(S'w'
I5
tp47
a(S'p2_vo'
I13
tp48
a(S'w'
I722
tp49
a(S'p1_vo'
I14
tp50
a(S'w'
I5
tp51
a(S'p2_vo'
I12
tp52
a(S'w'
I729
tp53
a(S'p1_vo'
I13
tp54
a(S'w'
I5
tp55
a(S'p2_vo'
I11
tp56
a(S'w'
I729
tp57
a(S'p1_vo'
I12
tp58
a(S'w'
I5
tp59
a(S'p2_vo'
I10
tp60
a(S'w'
I733
tp61
a(S'p2_vo'
I9
tp62
a(S'w'
I730
tp63
a(S'p1_vo'
I11
tp64
a(S'w'
I5
tp65
a(S'p2_vo'
I8
tp66
a(S'w'
I728
tp67
a(S'p1_vo'
I10
tp68
a(S'w'
I7
tp69
a(S'p2_vo'
I15
tp70
a(S'w'
I5
tp71
a(S'p2_tl'
I180
tp72
a(S'w'
I722
tp73
a(S'p1_vo'
I9
tp74
a(S'w'
I5
tp75
a(S'p2_vo'
I14
tp76
a(S'w'
I730
tp77
a(S'p1_vo'
I15
tp78
a(S'w'
I4
tp79
a(S'p1_tl'
I103
tp80
a(S'w'
I5
tp81
a(S'p2_vo'
I13
tp82
a(S'w'
I724
tp83
a(S'p1_vo'
I14
tp84
a(S'w'
I5
tp85
a(S'p2_vo'
I12
tp86
a(S'w'
I728
tp87
a(S'p1_vo'
I13
tp88
a(S'w'
I6
tp89
a(S'p2_vo'
I11
tp90
a(S'w'
I728
tp91
a(S'p1_vo'
I12
tp92
a(S'w'
I5
tp93
a(S'p2_vo'
I10
tp94
a(S'w'
I733
tp95
a(S'p2_vo'
I9
tp96
a(S'w'
I730
tp97
a(S'p1_vo'
I11
tp98
a(S'w'
I5
tp99
a(S'p2_vo'
I8
tp100
a(S'w'
I729
tp101
a(S'p1_vo'
I10
tp102
a(S'w'
I8
tp103
a(S'p2_vo'
I15
tp104
a(S'w'
I4
tp105
a(S'p2_tl'
I227
tp106
a(S'w'
I721
tp107
a(S'p1_vo'
I9
tp108
a(S'w'
I6
tp109
a(S'p2_vo'
I14
tp110
a(S'w'
I732
tp111
a(S'p1_vo'
I15
tp112
a(S'w'
I3
tp113
a(S'p1_tl'
I224
tp114
a(S'w'
I5
tp115
a(S'p2_vo'
I13
tp116
a(S'w'
I724
tp117
a(S'p1_vo'
I14
tp118
a(S'w'
I5
tp119
a(S'p2_vo'
I12
tp120
a(S'w'
I722
tp121
a(S'p1_vo'
I13
tp122
a(S'w'
I5
tp123
a(S'p2_vo'
I11
tp124
a(S'w'
I729
tp125
a(S'p1_vo'
I12
tp126
a(S'w'
I5
tp127
a(S'p2_vo'
I10
tp128
a(S'w'
I733
tp129
a(S'p2_vo'
I9
tp130
a(S'w'
I7
tp131
a(S'tr_lr'
I0
tp132
a(S'w'
I723
tp133
a(S'p1_vo'
I11
tp134
a(S'w'
I5
tp135
a(S'p2_vo'
I8
tp136
a(S'w'
I728
tp137
a(S'p1_vo'
I10
tp138
a(S'w'
I9
tp139
a(S'p2_vo'
I15
tp140
a(S'w'
I4
tp141
a(S'p2_tl'
I121
tp142
a(S'w'
I9
tp143
a(S'tr_lr'
I54
tp144
a(S'w'
I4
tp145
a(S'tr_ll'
I1
tp146
a(S'w'
I708
tp147
a(S'p1_vo'
I9
tp148
a(S'w'
I5
tp149
a(S'p2_vo'
I14
tp150
a(S'w'
I731
tp151
a(S'p1_vo'
I15
tp152
a(S'w'
I4
tp153
a(S'p1_ll'
I1
tp154
a(S'p1_th'
I0
tp155
a(S'p1_tl'
I240
tp156
a(S'w'
I5
tp157
a(S'p2_vo'
I13
tp158
a(S'w'
I723
tp159
a(S'p1_vo'
I14
tp160
a(S'w'
I5
tp161
a(S'p2_vo'
I12
tp162
a(S'w'
I729
tp163
a(S'p1_vo'
I13
tp164
a(S'w'
I5
tp165
a(S'p2_vo'
I11
tp166
a(S'w'
I728
tp167
a(S'p1_vo'
I12
tp168
a(S'w'
I5
tp169
a(S'p2_vo'
I10
tp170
a(S'w'
I734
tp171
a(S'p2_vo'
I9
tp172
a(S'w'
I729
tp173
a(S'p1_vo'
I11
tp174
a(S'w'
I5
tp175
a(S'p2_vo'
I8
tp176
a(S'w'
I729
tp177
a(S'p1_vo'
I10
tp178
a(S'w'
I7
tp179
a(S'p2_vo'
I15
tp180
a(S'w'
I4
tp181
a(S'p2_tl'
I152
tp182
a(S'w'
I723
tp183
a(S'p1_vo'
I9
tp184
a(S'w'
I5
tp185
a(S'p2_vo'
I14
tp186
a(S'w'
I729
tp187
a(S'p1_vo'
I15
tp188
a(S'w'
I4
tp189
a(S'p1_ll'
I1
tp190
a(S'p1_th'
I1
tp191
a(S'p1_tl'
I46
tp192
a(S'w'
I5
tp193
a(S'p2_vo'
I13
tp194
a(S'w'
I724
tp195
a(S'p1_vo'
I14
tp196
a(S'w'
I5
tp197
a(S'p2_vo'
I12
tp198
a(S'w'
I729
tp199
a(S'p1_vo'
I13
tp200
a(S'w'
I5
tp201
a(S'p2_vo'
I11
tp202
a(S'w'
I729
tp203
a(S'p1_vo'
I12
tp204
a(S'w'
I5
tp205
a(S'p2_vo'
I10
tp206
a(S'w'
I733
tp207
a(S'p2_vo'
I9
tp208
a(S'w'
I728
tp209
a(S'p1_vo'
I11
tp210
a(S'w'
I5
tp211
a(S'p2_vo'
I8
tp212
a(S'w'
I729
tp213
a(S'p1_vo'
I10
tp214
a(S'w'
I7
tp215
a(S'p2_vo'
I15
tp216
a(S'w'
I4
tp217
a(S'p2_tl'
I180
tp218
a(S'w'
I722
tp219
a(S'p1_vo'
I9
tp220
a(S'w'
I6
tp221
a(S'p2_vo'
I14
tp222
a(S'w'
I729
tp223
a(S'p1_vo'
I15
tp224
a(S'w'
I4
tp225
a(S'p1_tl'
I103
tp226
a(S'w'
I5
tp227
a(S'p2_vo'
I13
tp228
a(S'w'
I724
tp229
a(S'p1_vo'
I14
tp230
a(S'w'
I5
tp231
a(S'p2_vo'
I12
tp232
a(S'w'
I737
tp233
a(S'p1_vo'
I13
tp234
a(S'w'
I5
tp235
a(S'p2_vo'
I11
tp236
a(S'w'
I728
tp237
a(S'p1_vo'
I12
tp238
a(S'w'
I6
tp239
a(S'p2_vo'
I10
tp240
a(S'w'
I733
tp241
a(S'p2_vo'
I9
tp242
a(S'w'
I6
tp243
a(S'tr_lr'
I0
tp244
a(S'w'
I723
tp245
a(S'p1_vo'
I11
tp246
a(S'w'
I5
tp247
a(S'p2_vo'
I8
tp248
a(S'w'
I729
tp249
a(S'p1_vo'
I10
tp250
a(S'w'
I8
tp251
a(S'p2_vo'
I15
tp252
a(S'w'
I5
tp253
a(S'p2_tl'
I101
tp254
a(S'w'
I9
tp255
a(S'tr_lr'
I54
tp256
a(S'w'
I4
tp257
a(S'tr_ll'
I1
tp258
a(S'w'
I708
tp259
a(S'p1_vo'
I9
tp260
a(S'w'
I5
tp261
a(S'p2_vo'
I14
tp262
a(S'w'
I731
tp263
a(S'p1_vo'
I15
tp264
a(S'w'
I4
tp265
a(S'p1_ll'
I1
tp266
a(S'p1_th'
I0
tp267
a(S'p1_tl'
I201
tp268
a(S'w'
I5
tp269
a(S'p2_vo'
I13
tp270
a(S'w'
I722
tp271
a(S'p1_vo'
I14
tp272
a(S'w'
I5
tp273
a(S'p2_vo'
I12
tp274
a(S'w'
I729
tp275
a(S'p1_vo'
I13
tp276
a(S'w'
I5
tp277
a(S'p2_vo'
I11
tp278
a(S'w'
I729
tp279
a(S'p1_vo'
I12
tp280
a(S'w'
I5
tp281
a(S'p2_vo'
I10
tp282
a(S'w'
I733
tp283
a(S'p2_vo'
I9
tp284
a(S'w'
I730
tp285
a(S'p1_vo'
I11
tp286
a(S'w'
I5
tp287
a(S'p2_vo'
I8
tp288
a(S'w'
I728
tp289
a(S'p1_vo'
I10
tp290
a(S'w'
I9
tp291
a(S'p2_vo'
I15
tp292
a(S'w'
I4
tp293
a(S'p2_tl'
I121
tp294
a(S'w'
I721
tp295
a(S'p1_vo'
I9
tp296
a(S'w'
I5
tp297
a(S'p2_vo'
I14
tp298
a(S'w'
I731
tp299
a(S'p1_vo'
I15
tp300
a(S'w'
I4
tp301
a(S'p1_tl'
I240
tp302
a(S'w'
I5
tp303
a(S'p2_vo'
I13
tp304
a(S'w'
I723
tp305
a(S'p1_vo'
I14
tp306
a(S'w'
I5
tp307
a(S'p2_vo'
I12
tp308
a(S'w'
I729
tp309
a(S'p1_vo'
I13
tp310
a(S'w'
I5
tp311
a(S'p2_vo'
I11
tp312
a(S'w'
I730
tp313
a(S'p1_vo'
I12
tp314
a(S'w'
I5
tp315
a(S'p2_vo'
I10
tp316
a(S'w'
I733
tp317
a(S'p2_vo'
I9
tp318
a(S'w'
I730
tp319
a(S'p1_vo'
I11
tp320
a(S'w'
I5
tp321
a(S'p2_vo'
I8
tp322
a(S'w'
I728
tp323
a(S'p1_vo'
I10
tp324
a(S'w'
I7
tp325
a(S'p2_vo'
I15
tp326
a(S'w'
I5
tp327
a(S'p2_tl'
I152
tp328
a(S'w'
I721
tp329
a(S'p1_vo'
I9
tp330
a(S'w'
I5
tp331
a(S'p2_vo'
I14
tp332
a(S'w'
I729
tp333
a(S'p1_vo'
I15
tp334
a(S'w'
I4
tp335
a(S'p1_ll'
I1
tp336
a(S'p1_th'
I1
tp337
a(S'p1_tl'
I46
tp338
a(S'w'
I5
tp339
a(S'p2_vo'
I13
tp340
a(S'w'
I724
tp341
a(S'p1_vo'
I14
tp342
a(S'w'
I5
tp343
a(S'p2_vo'
I12
tp344
a(S'w'
I729
tp345
a(S'p1_vo'
I13
tp346
a(S'w'
I5
tp347
a(S'p2_vo'
I11
tp348
a(S'w'
I729
tp349
a(S'p1_vo'
I12
tp350
a(S'w'
I5
tp351
a(S'p2_vo'
I10
tp352
a(S'w'
I733
tp353
a(S'p2_vo'
I9
tp354
a(S'w'
I7
tp355
a(S'tr_lr'
I0
tp356
a(S'w'
I722
tp357
a(S'p1_vo'
I11
tp358
a(S'w'
I5
tp359
a(S'p2_vo'
I8
tp360
a(S'w'
I729
tp361
a(S'p1_vo'
I10
tp362
a(S'w'
I7
tp363
a(S'p2_vo'
I15
tp364
a(S'w'
I5
tp365
a(S'p2_tl'
I114
tp366
a(S'w'
I9
tp367
a(S'tr_lr'
I54
tp368
a(S'w'
I3
tp369
a(S'tr_ll'
I1
tp370
a(S'tr_tl'
I113
tp371
a(S'w'
I710
tp372
a(S'p1_vo'
I9
tp373
a(S'w'
I5
tp374
a(S'p2_vo'
I14
tp375
a(S'w'
I730
tp376
a(S'p1_vo'
I15
tp377
a(S'w'
I3
tp378
a(S'p1_ll'
I1
tp379
a(S'p1_th'
I0
tp380
a(S'w'
I1
tp381
a(S'p1_tl'
I226
tp382
a(S'w'
I5
tp383
a(S'p2_vo'
I13
tp384
a(S'w'
I723
tp385
a(S'p1_vo'
I14
tp386
a(S'w'
I6
tp387
a(S'p2_vo'
I12
tp388
a(S'w'
I728
tp389
a(S'p1_vo'
I13
tp390
a(S'w'
I5
tp391
a(S'p2_vo'
I11
tp392
a(S'w'
I729
tp393
a(S'p1_vo'
I12
tp394
a(S'w'
I5
tp395
a(S'p2_vo'
I10
tp396
a(S'w'
I733
tp397
a(S'p2_vo'
I9
tp398
a(S'w'
I730
tp399
a(S'p1_vo'
I11
tp400
a(S'w'
I5
tp401
a(S'p2_vo'
I8
tp402
a(S'w'
I729
tp403
a(S'p1_vo'
I10
tp404
a(S'w'
I7
tp405
a(S'p2_vo'
I15
tp406
a(S'w'
I4
tp407
a(S'p2_tl'
I135
tp408
a(S'w'
I722
tp409
a(S'p1_vo'
I9
tp410
a(S'w'
I5
tp411
a(S'p2_vo'
I14
tp412
a(S'w'
I729
tp413
a(S'p1_vo'
I15
tp414
a(S'w'
I3
tp415
a(S'p1_ll'
I1
tp416
a(S'p1_th'
I1
tp417
a(S'p1_tl'
I13
tp418
a(S'w'
I5
tp419
a(S'p2_vo'
I13
tp420
a(S'w'
I724
tp421
a(S'p1_vo'
I14
tp422
a(S'w'
I5
tp423
a(S'p2_vo'
I12
tp424
a(S'w'
I729
tp425
a(S'p1_vo'
I13
tp426
a(S'w'
I5
tp427
a(S'p2_vo'
I11
tp428
a(S'w'
I729
tp429
a(S'p1_vo'
I12
tp430
a(S'w'
I5
tp431
a(S'p2_vo'
I10
tp432
a(S'w'
I733
tp433
a(S'p2_vo'
I9
tp434
a(S'w'
I731
tp435
a(S'p1_vo'
I11
tp436
a(S'w'
I5
tp437
a(S'p2_vo'
I8
tp438
a(S'w'
I729
tp439
a(S'p1_vo'
I10
tp440
a(S'w'
I7
tp441
a(S'p2_vo'
I15
tp442
a(S'w'
I4
tp443
a(S'p2_tl'
I170
tp444
a(S'w'
I723
tp445
a(S'p1_vo'
I9
tp446
a(S'w'
I5
tp447
a(S'p2_vo'
I14
tp448
a(S'w'
I730
tp449
a(S'p1_vo'
I15
tp450
a(S'w'
I3
tp451
a(S'p1_tl'
I83
tp452
a(S'w'
I5
tp453
a(S'p2_vo'
I13
tp454
a(S'w'
I724
tp455
a(S'p1_vo'
I14
tp456
a(S'w'
I5
tp457
a(S'p2_vo'
I12
tp458
a(S'w'
I729
tp459
a(S'p1_vo'
I13
tp460
a(S'w'
I5
tp461
a(S'p2_vo'
I11
tp462
a(S'w'
I729
tp463
a(S'p1_vo'
I12
tp464
a(S'w'
I5
tp465
a(S'p2_vo'
I10
tp466
a(S'w'
I733
tp467
a(S'p2_vo'
I9
tp468
a(S'w'
I7
tp469
a(S'tr_lr'
I0
tp470
a(S'w'
I723
tp471
a(S'p1_vo'
I11
tp472
a(S'w'
I5
tp473
a(S'p2_vo'
I8
tp474
a(S'w'
I728
tp475
a(S'p1_vo'
I10
tp476
a(S'w'
I9
tp477
a(S'p2_vo'
I15
tp478
a(S'w'
I5
tp479
a(S'p2_tl'
I90
tp480
a(S'w'
I9
tp481
a(S'tr_lr'
I54
tp482
a(S'w'
I3
tp483
a(S'tr_ll'
I1
tp484
a(S'w'
I708
tp485
a(S'p1_vo'
I9
tp486
a(S'w'
I5
tp487
a(S'p2_vo'
I14
tp488
a(S'w'
I731
tp489
a(S'p1_vo'
I15
tp490
a(S'w'
I4
tp491
a(S'p1_ll'
I1
tp492
a(S'p1_th'
I0
tp493
a(S'w'
I1
tp494
a(S'p1_tl'
I179
tp495
a(S'w'
I5
tp496
a(S'p2_vo'
I13
tp497
a(S'w'
I722
tp498
a(S'p1_vo'
I14
tp499
a(S'w'
I5
tp500
a(S'p2_vo'
I12
tp501
a(S'w'
I729
tp502
a(S'p1_vo'
I13
tp503
a(S'w'
I5
tp504
a(S'p2_vo'
I11
tp505
a(S'w'
I728
tp506
a(S'p1_vo'
I12
tp507
a(S'w'
I5
tp508
a(S'p2_vo'
I10
tp509
a(S'w'
I734
tp510
a(S'p2_vo'
I9
tp511
a(S'w'
I729
tp512
a(S'p1_vo'
I11
tp513
a(S'w'
I5
tp514
a(S'p2_vo'
I8
tp515
a(S'w'
I730
tp516
a(S'p1_vo'
I10
tp517
a(S'w'
I9
tp518
a(S'p2_vo'
I15
tp519
a(S'w'
I4
tp520
a(S'p2_tl'
I114
tp521
a(S'w'
I721
tp522
a(S'p1_vo'
I9
tp523
a(S'w'
I5
tp524
a(S'p2_vo'
I14
tp525
a(S'w'
I731
tp526
a(S'p1_vo'
I15
tp527
a(S'w'
I4
tp528
a(S'p1_tl'
I226
tp529
a(S'w'
I5
tp530
a(S'p2_vo'
I13
tp531
a(S'w'
I723
tp532
a(S'p1_vo'
I14
tp533
a(S'w'
I5
tp534
a(S'p2_vo'
I12
tp535
a(S'w'
I722
tp536
a(S'p1_vo'
I13
tp537
a(S'w'
I5
tp538
a(S'p2_vo'
I11
tp539
a(S'w'
I729
tp540
a(S'p1_vo'
I12
tp541
a(S'w'
I5
tp542
a(S'p2_vo'
I10
tp543
a(S'w'
I733
tp544
a(S'p2_vo'
I9
tp545
a(S'w'
I730
tp546
a(S'p1_vo'
I11
tp547
a(S'w'
I5
tp548
a(S'p2_vo'
I8
tp549
a(S'w'
I728
tp550
a(S'p1_vo'
I10
tp551
a(S'w'
I8
tp552
a(S'p2_vo'
I15
tp553
a(S'w'
I4
tp554
a(S'p2_tl'
I135
tp555
a(S'w'
I722
tp556
a(S'p1_vo'
I9
tp557
a(S'w'
I5
tp558
a(S'p2_vo'
I14
tp559
a(S'w'
I730
tp560
a(S'p1_vo'
I15
tp561
a(S'w'
I4
tp562
a(S'p1_ll'
I1
tp563
a(S'p1_th'
I1
tp564
a(S'p1_tl'
I13
tp565
a(S'w'
I5
tp566
a(S'p2_vo'
I13
tp567
a(S'w'
I719
tp568
a(S'p1_vo'
I14
tp569
a(S'w'
I5
tp570
a(S'p2_vo'
I12
tp571
a(S'w'
I729
tp572
a(S'p1_vo'
I13
tp573
a(S'w'
I5
tp574
a(S'p2_vo'
I11
tp575
a(S'w'
I729
tp576
a(S'p1_vo'
I12
tp577
a(S'w'
I5
tp578
a(S'p2_vo'
I10
tp579
a(S'w'
I733
tp580
a(S'p2_vo'
I9
tp581
a(S'w'
I7
tp582
a(S'tr_lr'
I0
tp583
a(S'w'
I719
tp584
a(S'p1_vo'
I11
tp585
a(S'w'
I5
tp586
a(S'p2_vo'
I8
tp587
a(S'w'
I729
tp588
a(S'p1_vo'
I10
tp589
a(S'w'
I8
tp590
a(S'p2_vo'
I15
tp591
a(S'w'
I5
tp592
a(S'p2_tl'
I68
tp593
a(S'w'
I9
tp594
a(S'tr_lr'
I54
tp595
a(S'w'
I4
tp596
a(S'tr_ll'
I1
tp597
a(S'w'
I708
tp598
a(S'p1_vo'
I9
tp599
a(S'w'
I5
tp600
a(S'p2_vo'
I14
tp601
a(S'w'
I726
tp602
a(S'p1_vo'
I15
tp603
a(S'w'
I4
tp604
a(S'p1_ll'
I1
tp605
a(S'p1_th'
I0
tp606
a(S'p1_tl'
I134
tp607
a(S'w'
I5
tp608
a(S'p2_vo'
I13
tp609
a(S'w'
I723
tp610
a(S'p1_vo'
I14
tp611
a(S'w'
I5
tp612
a(S'p2_vo'
I12
tp613
a(S'w'
I728
tp614
a(S'p1_vo'
I13
tp615
a(S'w'
I6
tp616
a(S'p2_vo'
I11
tp617
a(S'w'
I727
tp618
a(S'p1_vo'
I12
tp619
a(S'w'
I5
tp620
a(S'p2_vo'
I10
tp621
a(S'w'
I733
tp622
a(S'p2_vo'
I9
tp623
a(S'w'
I729
tp624
a(S'p1_vo'
I11
tp625
a(S'w'
I5
tp626
a(S'p2_vo'
I8
tp627
a(S'w'
I729
tp628
a(S'p1_vo'
I10
tp629
a(S'w'
I7
tp630
a(S'p2_vo'
I15
tp631
a(S'w'
I5
tp632
a(S'p2_tl'
I90
tp633
a(S'w'
I717
tp634
a(S'p1_vo'
I9
tp635
a(S'w'
I5
tp636
a(S'p2_vo'
I14
tp637
a(S'w'
I731
tp638
a(S'p1_vo'
I15
tp639
a(S'w'
I5
tp640
a(S'p1_tl'
I179
tp641
a(S'w'
I5
tp642
a(S'p2_vo'
I13
tp643
a(S'w'
I723
tp644
a(S'p1_vo'
I14
tp645
a(S'w'
I5
tp646
a(S'p2_vo'
I12
tp647
a(S'w'
I729
tp648
a(S'p1_vo'
I13
tp649
a(S'w'
I5
tp650
a(S'p2_vo'
I11
tp651
a(S'w'
I729
tp652
a(S'p1_vo'
I12
tp653
a(S'w'
I5
tp654
a(S'p2_vo'
I10
tp655
a(S'w'
I733
tp656
a(S'p2_vo'
I9
tp657
a(S'w'
I730
tp658
a(S'p1_vo'
I11
tp659
a(S'w'
I5
tp660
a(S'p2_vo'
I8
tp661
a(S'w'
I724
tp662
a(S'p1_vo'
I10
tp663
a(S'w'
I8
tp664
a(S'p2_vo'
I15
tp665
a(S'w'
I4
tp666
a(S'p2_tl'
I114
tp667
a(S'w'
I721
tp668
a(S'p1_vo'
I9
tp669
a(S'w'
I5
tp670
a(S'p2_vo'
I14
tp671
a(S'w'
I731
tp672
a(S'p1_vo'
I15
tp673
a(S'w'
I4
tp674
a(S'p1_tl'
I226
tp675
a(S'w'
I5
tp676
a(S'p2_vo'
I13
tp677
a(S'w'
I723
tp678
a(S'p1_vo'
I14
tp679
a(S'w'
I5
tp680
a(S'p2_vo'
I12
tp681
a(S'w'
I729
tp682
a(S'p1_vo'
I13
tp683
a(S'w'
I5
tp684
a(S'p2_vo'
I11
tp685
a(S'w'
I728
tp686
a(S'p1_vo'
I12
tp687
a(S'w'
I6
tp688
a(S'p2_vo'
I10
tp689
a(S'w'
I733
tp690
a(S'p2_vo'
I9
tp691
a(S'w'
I6
tp692
a(S'tr_lr'
I0
tp693
a(S'w'
I723
tp694
a(S'p1_vo'
I11
tp695
a(S'w'
I5
tp696
a(S'p2_vo'
I8
tp697
a(S'w'
I729
tp698
a(S'p1_vo'
I10
tp699
a(S'w'
I7
tp700
a(S'p2_vo'
I15
tp701
a(S'w'
I4
tp702
a(S'p2_tl'
I128
tp703
a(S'w'
I11
tp704
a(S'tr_lr'
I54
tp705
a(S'w'
I4
tp706
a(S'tr_ll'
I1
tp707
a(S'tr_tl'
I100
tp708
a(S'w'
I708
tp709
a(S'p1_vo'
I9
tp710
a(S'w'
I5
tp711
a(S'p2_vo'
I14
tp712
a(S'w'
I730
tp713
a(S'p1_vo'
I15
tp714
a(S'w'
I3
tp715
a(S'p1_tl'
I254
tp716
a(S'w'
I5
tp717
a(S'p2_vo'
I13
tp718
a(S'w'
I726
tp719
a(S'p1_vo'
I14
tp720
a(S'w'
I5
tp721
a(S'p2_vo'
I12
tp722
a(S'w'
I729
tp723
a(S'p1_vo'
I13
tp724
a(S'w'
I5
tp725
a(S'p2_vo'
I11
tp726
a(S'w'
I728
tp727
a(S'p1_vo'
I12
tp728
a(S'w'
I6
tp729
a(S'p2_vo'
I10
tp730
a(S'w'
I733
tp731
a(S'p2_vo'
I9
tp732
a(S'w'
I728
tp733
a(S'p1_vo'
I11
tp734
a(S'w'
I5
tp735
a(S'p2_vo'
I8
tp736
a(S'w'
I728
tp737
a(S'p1_vo'
I10
tp738
a(S'w'
I7
tp739
a(S'p2_vo'
I15
tp740
a(S'w'
I5
tp741
a(S'p2_tl'
I152
tp742
a(S'w'
I722
tp743
a(S'p1_vo'
I9
tp744
a(S'w'
I5
tp745
a(S'p2_vo'
I14
tp746
a(S'w'
I735
tp747
a(S'p1_vo'
I15
tp748
a(S'w'
I3
tp749
a(S'p1_ll'
I1
tp750
a(S'p1_th'
I1
tp751
a(S'w'
I1
tp752
a(S'p1_tl'
I46
tp753
a(S'w'
I5
tp754
a(S'p2_vo'
I13
tp755
a(S'w'
I724
tp756
a(S'p1_vo'
I14
tp757
a(S'w'
I5
tp758
a(S'p2_vo'
I12
tp759
a(S'w'
I728
tp760
a(S'p1_vo'
I13
tp761
a(S'w'
I5
tp762
a(S'p2_vo'
I11
tp763
a(S'w'
I729
tp764
a(S'p1_vo'
I12
tp765
a(S'w'
I5
tp766
a(S'p2_vo'
I10
tp767
a(S'w'
I733
tp768
a(S'p2_vo'
I9
tp769
a(S'w'
I730
tp770
a(S'p1_vo'
I11
tp771
a(S'w'
I5
tp772
a(S'p2_vo'
I8
tp773
a(S'w'
I728
tp774
a(S'p1_vo'
I10
tp775
a(S'w'
I9
tp776
a(S'p2_vo'
I15
tp777
a(S'w'
I5
tp778
a(S'p2_tl'
I96
tp779
a(S'w'
I725
tp780
a(S'p1_vo'
I9
tp781
a(S'w'
I5
tp782
a(S'p2_vo'
I14
tp783
a(S'w'
I731
tp784
a(S'p1_vo'
I15
tp785
a(S'w'
I4
tp786
a(S'p1_ll'
I1
tp787
a(S'p1_th'
I0
tp788
a(S'w'
I1
tp789
a(S'p1_tl'
I190
tp790
a(S'w'
I5
tp791
a(S'p2_vo'
I13
tp792
a(S'w'
I722
tp793
a(S'p1_vo'
I14
tp794
a(S'w'
I5
tp795
a(S'p2_vo'
I12
tp796
a(S'w'
I728
tp797
a(S'p1_vo'
I13
tp798
a(S'w'
I6
tp799
a(S'p2_vo'
I11
tp800
a(S'w'
I728
tp801
a(S'p1_vo'
I12
tp802
a(S'w'
I5
tp803
a(S'p2_vo'
I10
tp804
a(S'w'
I734
tp805
a(S'p2_vo'
I9
tp806
a(S'w'
I6
tp807
a(S'tr_lr'
I0
tp808
a(S'w'
I723
tp809
a(S'p1_vo'
I11
tp810
a(S'w'
I5
tp811
a(S'p2_vo'
I8
tp812
a(S'w'
I732
tp813
a(S'p1_vo'
I10
tp814
a(S'w'
I8
tp815
a(S'p2_vo'
I15
tp816
a(S'w'
I5
tp817
a(S'p2_tl'
I128
tp818
a(S'w'
I9
tp819
a(S'tr_lr'
I54
tp820
a(S'w'
I4
tp821
a(S'tr_ll'
I1
tp822
a(S'w'
I708
tp823
a(S'p1_vo'
I9
tp824
a(S'w'
I5
tp825
a(S'p2_vo'
I14
tp826
a(S'w'
I731
tp827
a(S'p1_vo'
I15
tp828
a(S'w'
I4
tp829
a(S'p1_tl'
I254
tp830
a(S'w'
I5
tp831
a(S'p2_vo'
I13
tp832
a(S'w'
I722
tp833
a(S'p1_vo'
I14
tp834
a(S'w'
I5
tp835
a(S'p2_vo'
I12
tp836
a(S'w'
I729
tp837
a(S'p1_vo'
I13
tp838
a(S'w'
I5
tp839
a(S'p2_vo'
I11
tp840
a(S'w'
I730
tp841
a(S'p1_vo'
I12
tp842
a(S'w'
I6
tp843
a(S'p2_vo'
I10
tp844
a(S'w'
I733
tp845
a(S'p2_vo'
I9
tp846
a(S'w'
I734
tp847
a(S'p1_vo'
I11
tp848
a(S'w'
I5
tp849
a(S'p2_vo'
I8
tp850
a(S'w'
I729
tp851
a(S'p1_vo'
I10
tp852
a(S'w'
I8
tp853
a(S'p2_vo'
I15
tp854
a(S'w'
I5
tp855
a(S'p2_tl'
I85
tp856
a(S'w'
I720
tp857
a(S'p1_vo'
I9
tp858
a(S'w'
I5
tp859
a(S'p2_vo'
I14
tp860
a(S'w'
I732
tp861
a(S'p1_vo'
I15
tp862
a(S'w'
I4
tp863
a(S'p1_tl'
I169
tp864
a(S'w'
I5
tp865
a(S'p2_vo'
I13
tp866
a(S'w'
I722
tp867
a(S'p1_vo'
I14
tp868
a(S'w'
I5
tp869
a(S'p2_vo'
I12
tp870
a(S'w'
I729
tp871
a(S'p1_vo'
I13
tp872
a(S'w'
I5
tp873
a(S'p2_vo'
I11
tp874
a(S'w'
I729
tp875
a(S'p1_vo'
I12
tp876
a(S'w'
I5
tp877
a(S'p2_vo'
I10
tp878
a(S'w'
I738
tp879
a(S'p2_vo'
I9
tp880
a(S'w'
I729
tp881
a(S'p1_vo'
I11
tp882
a(S'w'
I5
tp883
a(S'p2_vo'
I8
tp884
a(S'w'
I729
tp885
a(S'p1_vo'
I10
tp886
a(S'w'
I7
tp887
a(S'p2_vo'
I15
tp888
a(S'w'
I5
tp889
a(S'p2_tl'
I96
tp890
a(S'w'
I722
tp891
a(S'p1_vo'
I9
tp892
a(S'w'
I5
tp893
a(S'p2_vo'
I14
tp894
a(S'w'
I729
tp895
a(S'p1_vo'
I15
tp896
a(S'w'
I5
tp897
a(S'p1_tl'
I190
tp898
a(S'w'
I5
tp899
a(S'p2_vo'
I13
tp900
a(S'w'
I723
tp901
a(S'p1_vo'
I14
tp902
a(S'w'
I5
tp903
a(S'p2_vo'
I12
tp904
a(S'w'
I729
tp905
a(S'p1_vo'
I13
tp906
a(S'w'
I5
tp907
a(S'p2_vo'
I11
tp908
a(S'w'
I729
tp909
a(S'p1_vo'
I12
tp910
a(S'w'
I5
tp911
a(S'p2_vo'
I10
tp912
a(S'w'
I735
tp913
a(S'p2_vo'
I9
tp914
a(S'w'
I6
tp915
a(S'tr_lr'
I0
tp916
a(S'w'
I723
tp917
a(S'p1_vo'
I11
tp918
a(S'w'
I5
tp919
a(S'p2_vo'
I8
tp920
a(S'w'
I729
tp921
a(S'p1_vo'
I10
tp922
a(S'w'
I7
tp923
a(S'p2_vo'
I15
tp924
a(S'w'
I5
tp925
a(S'p2_tl'
I76
tp926
a(S'w'
I9
tp927
a(S'tr_lr'
I54
tp928
a(S'w'
I4
tp929
a(S'tr_ll'
I1
tp930
a(S'w'
I709
tp931
a(S'p1_vo'
I9
tp932
a(S'w'
I5
tp933
a(S'p2_vo'
I14
tp934
a(S'w'
I728
tp935
a(S'p1_vo'
I15
tp936
a(S'w'
I4
tp937
a(S'p1_tl'
I151
tp938
a(S'w'
I5
tp939
a(S'p2_vo'
I13
tp940
a(S'w'
I724
tp941
a(S'p1_vo'
I14
tp942
a(S'w'
I5
tp943
a(S'p2_vo'
I12
tp944
a(S'w'
I728
tp945
a(S'p1_vo'
I13
tp946
a(S'w'
I5
tp947
a(S'p2_vo'
I11
tp948
a(S'w'
I729
tp949
a(S'p1_vo'
I12
tp950
a(S'w'
I5
tp951
a(S'p2_vo'
I10
tp952
a(S'w'
I733
tp953
a(S'p2_vo'
I9
tp954
a(S'w'
I730
tp955
a(S'p1_vo'
I11
tp956
a(S'w'
I5
tp957
a(S'p2_vo'
I8
tp958
a(S'w'
I729
tp959
a(S'p1_vo'
I10
tp960
a(S'w'
I7
tp961
a(S'p2_vo'
I15
tp962
a(S'w'
I5
tp963
a(S'p2_tl'
I85
tp964
a(S'w'
I721
tp965
a(S'p1_vo'
I9
tp966
a(S'w'
I5
tp967
a(S'p2_vo'
I14
tp968
a(S'w'
I730
tp969
a(S'p1_vo'
I15
tp970
a(S'w'
I4
tp971
a(S'p1_tl'
I169
tp972
a(S'w'
I5
tp973
a(S'p2_vo'
I13
tp974
a(S'w'
I724
tp975
a(S'p1_vo'
I14
tp976
a(S'w'
I5
tp977
a(S'p2_vo'
I12
tp978
a(S'w'
I729
tp979
a(S'p1_vo'
I13
tp980
a(S'w'
I5
tp981
a(S'p2_vo'
I11
tp982
a(S'w'
I729
tp983
a(S'p1_vo'
I12
tp984
a(S'w'
I5
tp985
a(S'p2_vo'
I10
tp986
a(S'w'
I733
tp987
a(S'p2_vo'
I9
tp988
a(S'w'
I729
tp989
a(S'p1_vo'
I11
tp990
a(S'w'
I5
tp991
a(S'p2_vo'
I8
tp992
a(S'w'
I729
tp993
a(S'p1_vo'
I10
tp994
a(S'w'
I7
tp995
a(S'p2_vo'
I15
tp996
a(S'w'
I5
tp997
a(S'p2_tl'
I64
tp998
a(S'w'
I722
tp999
a(S'p1_vo'
I9
tp1000
a(S'w'
I5
tp1001
a(S'p2_vo'
I14
tp1002
a(S'w'
I730
tp1003
a(S'p1_vo'
I15
tp1004
a(S'w'
I4
tp1005
a(S'p1_tl'
I127
tp1006
a(S'w'
I5
tp1007
a(S'p2_vo'
I13
tp1008
a(S'w'
I722
tp1009
a(S'p1_vo'
I14
tp1010
a(S'w'
I5
tp1011
a(S'p2_vo'
I12
tp1012
a(S'w'
I729
tp1013
a(S'p1_vo'
I13
tp1014
a(S'w'
I5
tp1015
a(S'p2_vo'
I11
tp1016
a(S'w'
I728
tp1017
a(S'p1_vo'
I12
tp1018
a(S'w'
I5
tp1019
a(S'p2_vo'
I10
tp1020
a(S'w'
I734
tp1021
a(S'p2_vo'
I9
tp1022
a(S'w'
I6
tp1023
a(S'tr_lr'
I0
tp1024
a(S'w'
I723
tp1025
a(S'p1_vo'
I11
tp1026
a(S'w'
I5
tp1027
a(S'p2_vo'
I8
tp1028
a(S'w'
I730
tp1029
a(S'p1_vo'
I10
tp1030
a(S'w'
I4
tp1031
a(S'p2_du'
I2
tp1032
a(S'p2_lh'
I0
tp1033
a(S'p2_cv'
I0
tp1034
a(S'p2_vo'
I12
tp1035
a(S'w'
I11
tp1036
a(S'p2_ll'
I1
tp1037
a(S'p2_tl'
I57
tp1038
a(S'w'
I4
tp1039
a(S'tr_lh'
I1
tp1040
a(S'tr_lr'
I15
tp1041
a(S'w'
I10
tp1042
a(S'tr_ll'
I1
tp1043
a(S'w'
I705
tp1044
a(S'p1_vo'
I9
tp1045
a(S'w'
I733
tp1046
a(S'p1_lh'
I0
tp1047
a(S'p1_cv'
I0
tp1048
a(S'p1_vo'
I12
tp1049
a(S'w'
I11
tp1050
a(S'p1_ll'
I1
tp1051
a(S'w'
I1
tp1052
a(S'p1_tl'
I113
tp1053
a(S'w'
I39620
tp1054
a(S'tr_lh'
I0
tp1055
a(S'tr_lr'
I0
tp1056
a(S'w'
I5859
tp1057
a(S'p2_du'
I0
tp1058
a(S'p2_lh'
I1
tp1059
a(S'p2_cv'
I1
tp1060
a(S'p2_vo'
I0
tp1061
a(S'w'
I1464
tp1062
a(S'p1_du'
I0
tp1063
a(S'p1_lh'
I1
tp1064
a(S'p1_cv'
I1
tp1065
a(S'p1_vo'
I0
tp1066
a(S'w'
I1
tp1067
a.