(lp1
(S'clock'
p2
I1789772
tp3
a(S'p1_lh'
I1
tp4
a(S'p1_cv'
I1
tp5
a(S'p1_sp'
I7
tp6
a(S'p1_sn'
I1
tp7
a(S'p1_ss'
I7
tp8
a(S'p1_tl'
I128
tp9
a(S'p1_ll'
I1
tp10
a(S'p1_th'
I1
tp11
a(S'p2_lh'
I1
tp12
a(S'p2_cv'
I1
tp13
a(S'p2_sp'
I7
tp14
a(S'p2_sn'
I1
tp15
a(S'p2_ss'
I7
tp16
a(S'p2_tl'
I191
tp17
a(S'p2_ll'
I1
tp18
a(S'tr_tl'
I151
tp19
a(S'tr_ll'
I31
tp20
a(S'tr_th'
I7
tp21
a(S'no_lh'
I1
tp22
a(S'no_cv'
I1
tp23
a(S'ch_no'
I1
tp24
a(S'ch_tr'
I1
tp25
a(S'ch_p2'
I1
tp26
a(S'ch_p1'
I1
tp27
a(S'fc_mo'
I1
tp28
a(S'tr_ll'
I31
tp29
a(S'w'
I15
tp30
a(S'p1_ll'
I1
tp31
a(S'p1_th'
I0
tp32
a(S'w'
I7
tp33
a(S'p2_ll'
I1
tp34
a(S'w'
I715
tp35
a(S'p1_du'
I2
tp36
a(S'p1_vo'
I2
tp37
a(S'w'
I12
tp38
a(S'p1_ll'
I1
tp39
a(S'p1_th'
I1
tp40
a(S'w'
I3
tp41
a(S'p1_tl'
I126
tp42
a(S'w'
I43
tp43
a(S'p2_du'
I1
tp44
a(S'p2_vo'
I7
tp45
a(S'w'
I12
tp46
a(S'p2_ll'
I1
tp47
a(S'p2_th'
I1
tp48
a(S'w'
I3
tp49
a(S'p2_tl'
I125
tp50
a(S'w'
I17
tp51
a(S'tr_lr'
I28
tp52
a(S'w'
I7
tp53
a(S'tr_ll'
I1
tp54
a(S'tr_th'
I1
tp55
a(S'w'
I3
tp56
a(S'tr_tl'
I29
tp57
a(S'w'
I597
tp58
a(S'p1_du'
I1
tp59
a(S'p1_vo'
I3
tp60
a(S'w'
I11
tp61
a(S'p2_du'
I0
tp62
a(S'p2_vo'
I8
tp63
a(S'w'
I723
tp64
a(S'p1_vo'
I2
tp65
a(S'w'
I11
tp66
a(S'p2_vo'
I7
tp67
a(S'w'
I1470
tp68
a(S'p2_vo'
I6
tp69
a(S'w'
I1468
tp70
a(S'p2_vo'
I5
tp71
a(S'w'
I730
tp72
a(S'w'
I6
tp73
a(S'p2_vo'
I2
tp74
a(S'w'
I748
tp75
a(S'p2_du'
I1
tp76
a(S'p2_vo'
I7
tp77
a(S'w'
I11
tp78
a(S'p2_ll'
I1
tp79
a(S'p2_th'
I0
tp80
a(S'w'
I3
tp81
a(S'p2_tl'
I213
tp82
a(S'w'
I703
tp83
a(S'p2_du'
I0
tp84
a(S'p2_vo'
I8
tp85
a(S'w'
I734
tp86
a(S'p2_vo'
I7
tp87
a(S'w'
I1468
tp88
a(S'p2_vo'
I6
tp89
a(S'w'
I16
tp90
a(S'tr_ll'
I1
tp91
a(S'w'
I3
tp92
a(S'tr_tl'
I46
tp93
a(S'w'
I1448
tp94
a(S'p2_vo'
I5
tp95
a(S'w'
I730
tp96
a(S'p2_ll'
I1
tp97
a(S'p2_th'
I1
tp98
a(S'w'
I3
tp99
a(S'p2_tl'
I125
tp100
a(S'w'
I6
tp101
a(S'p2_vo'
I2
tp102
a(S'w'
I712
tp103
a(S'p1_tl'
I125
tp104
a(S'w'
I34
tp105
a(S'p2_du'
I1
tp106
a(S'p2_vo'
I7
tp107
a(S'w'
I10
tp108
a(S'p2_ll'
I1
tp109
a(S'p2_th'
I0
tp110
a(S'w'
I3
tp111
a(S'p2_tl'
I226
tp112
a(S'w'
I687
tp113
a(S'w'
I22
tp114
a(S'p2_du'
I0
tp115
a(S'p2_vo'
I8
tp116
a(S'w'
I712
tp117
a(S'w'
I22
tp118
a(S'p2_vo'
I7
tp119
a(S'w'
I711
tp120
a(S'w'
I760
tp121
a(S'p1_du'
I2
tp122
a(S'w'
I11
tp123
a(S'p1_ll'
I1
tp124
a(S'p1_th'
I0
tp125
a(S'w'
I3
tp126
a(S'p1_tl'
I214
tp127
a(S'w'
I12
tp128
a(S'p2_vo'
I6
tp129
a(S'w'
I685
tp130
a(S'p1_du'
I1
tp131
a(S'p1_vo'
I3
tp132
a(S'w'
I734
tp133
a(S'p1_vo'
I2
tp134
a(S'w'
I11
tp135
a(S'p2_vo'
I5
tp136
a(S'w'
I733
tp137
a(S'p2_ll'
I1
tp138
a(S'p2_th'
I1
tp139
a(S'w'
I3
tp140
a(S'p2_tl'
I125
tp141
a(S'w'
I6
tp142
a(S'p2_vo'
I2
tp143
a(S'w'
I737
tp144
a(S'p2_du'
I1
tp145
a(S'p2_vo'
I7
tp146
a(S'w'
I11
tp147
a(S'p2_tl'
I29
tp148
a(S'w'
I17
tp149
a(S'tr_ll'
I1
tp150
a(S'w'
I2
tp151
a(S'tr_tl'
I83
tp152
a(S'w'
I696
tp153
a(S'p2_du'
I0
tp154
a(S'p2_vo'
I8
tp155
a(S'w'
I733
tp156
a(S'p2_vo'
I7
tp157
a(S'w'
I716
tp158
a(S'p1_ll'
I1
tp159
a(S'p1_th'
I1
tp160
a(S'w'
I3
tp161
a(S'p1_tl'
I125
tp162
a(S'w'
I746
tp163
a(S'p1_du'
I2
tp164
a(S'w'
I11
tp165
a(S'p1_ll'
I1
tp166
a(S'p1_th'
I0
tp167
a(S'w'
I3
tp168
a(S'p1_tl'
I227
tp169
a(S'w'
I12
tp170
a(S'p2_vo'
I6
tp171
a(S'w'
I696
tp172
a(S'p1_du'
I1
tp173
a(S'p1_vo'
I3
tp174
a(S'w'
I734
tp175
a(S'p1_vo'
I2
tp176
a(S'w'
I12
tp177
a(S'p2_vo'
I5
tp178
a(S'w'
I3654
tp179
a(S'p1_ll'
I1
tp180
a(S'p1_th'
I1
tp181
a(S'w'
I3
tp182
a(S'p1_tl'
I125
tp183
a(S'w'
I743
tp184
a(S'p1_du'
I2
tp185
a(S'w'
I11
tp186
a(S'p1_tl'
I30
tp187
a(S'w'
I31
tp188
a(S'tr_ll'
I1
tp189
a(S'w'
I3
tp190
a(S'tr_tl'
I125
tp191
a(S'w'
I681
tp192
a(S'p1_du'
I1
tp193
a(S'p1_vo'
I3
tp194
a(S'w'
I733
tp195
a(S'p1_vo'
I2
tp196
a(S'w'
I3679
tp197
a(S'p2_ll'
I1
tp198
a(S'p2_th'
I0
tp199
a(S'w'
I3
tp200
a(S'p2_tl'
I226
tp201
a(S'w'
I6
tp202
a(S'p2_vo'
I2
tp203
a(S'w'
I727
tp204
a(S'w'
I732
tp205
a(S'w'
I734
tp206
a(S'w'
I734
tp207
a(S'w'
I749
tp208
a(S'p2_du'
I1
tp209
a(S'p2_vo'
I7
tp210
a(S'w'
I11
tp211
a(S'p2_tl'
I190
tp212
a(S'w'
I17
tp213
a(S'tr_ll'
I1
tp214
a(S'w'
I3
tp215
a(S'tr_tl'
I29
tp216
a(S'w'
I691
tp217
a(S'p2_du'
I0
tp218
a(S'p2_vo'
I8
tp219
a(S'w'
I734
tp220
a(S'p2_vo'
I7
tp221
a(S'w'
I1468
tp222
a(S'p2_vo'
I6
tp223
a(S'w'
I1466
tp224
a(S'p2_vo'
I5
tp225
a(S'w'
I717
tp226
a(S'p1_ll'
I1
tp227
a(S'p1_th'
I0
tp228
a(S'w'
I3
tp229
a(S'p1_tl'
I226
tp230
a(S'w'
I731
tp231
a(S'w'
I734
tp232
a(S'w'
I734
tp233
a(S'w'
I733
tp234
a(S'w'
I749
tp235
a(S'p1_du'
I2
tp236
a(S'w'
I12
tp237
a(S'p1_tl'
I191
tp238
a(S'w'
I31
tp239
a(S'tr_ll'
I1
tp240
a(S'w'
I3
tp241
a(S'tr_tl'
I46
tp242
a(S'w'
I676
tp243
a(S'p1_du'
I1
tp244
a(S'p1_vo'
I3
tp245
a(S'w'
I8
tp246
a(S'p2_ll'
I1
tp247
a(S'p2_th'
I1
tp248
a(S'w'
I3
tp249
a(S'p2_tl'
I29
tp250
a(S'w'
I6
tp251
a(S'p2_vo'
I2
tp252
a(S'w'
I717
tp253
a(S'p1_vo'
I2
tp254
a(S'w'
I9
tp255
a(S'w'
I736
tp256
a(S'w'
I744
tp257
a(S'p2_du'
I1
tp258
a(S'p2_vo'
I7
tp259
a(S'w'
I11
tp260
a(S'p2_ll'
I1
tp261
a(S'p2_th'
I0
tp262
a(S'w'
I3
tp263
a(S'p2_tl'
I213
tp264
a(S'w'
I712
tp265
a(S'p2_du'
I0
tp266
a(S'p2_vo'
I8
tp267
a(S'w'
I734
tp268
a(S'p2_vo'
I7
tp269
a(S'w'
I1469
tp270
a(S'p2_vo'
I6
tp271
a(S'w'
I1466
tp272
a(S'p2_vo'
I5
tp273
a(S'w'
I730
tp274
a(S'p2_ll'
I1
tp275
a(S'p2_th'
I1
tp276
a(S'w'
I3
tp277
a(S'p2_tl'
I29
tp278
a(S'w'
I6
tp279
a(S'p2_vo'
I2
tp280
a(S'w'
I740
tp281
a(S'p2_du'
I1
tp282
a(S'p2_vo'
I7
tp283
a(S'w'
I11
tp284
a(S'p2_ll'
I1
tp285
a(S'p2_th'
I0
tp286
a(S'w'
I2
tp287
a(S'p2_tl'
I226
tp288
a(S'w'
I17
tp289
a(S'tr_ll'
I1
tp290
a(S'w'
I3
tp291
a(S'tr_tl'
I83
tp292
a(S'w'
I672
tp293
a(S'p1_ll'
I1
tp294
a(S'p1_th'
I1
tp295
a(S'w'
I3
tp296
a(S'p1_tl'
I29
tp297
a(S'w'
I22
tp298
a(S'p2_du'
I0
tp299
a(S'p2_vo'
I8
tp300
a(S'w'
I709
tp301
a(S'w'
I23
tp302
a(S'p2_vo'
I7
tp303
a(S'w'
I711
tp304
a(S'w'
I745
tp305
a(S'p1_du'
I2
tp306
a(S'w'
I12
tp307
a(S'p1_ll'
I1
tp308
a(S'p1_th'
I0
tp309
a(S'w'
I2
tp310
a(S'p1_tl'
I214
tp311
a(S'w'
I12
tp312
a(S'p2_vo'
I6
tp313
a(S'w'
I700
tp314
a(S'p1_du'
I1
tp315
a(S'p1_vo'
I3
tp316
a(S'w'
I734
tp317
a(S'p1_vo'
I2
tp318
a(S'w'
I11
tp319
a(S'p2_vo'
I5
tp320
a(S'w'
I733
tp321
a(S'p2_tl'
I190
tp322
a(S'w'
I6
tp323
a(S'p2_vo'
I2
tp324
a(S'w'
I739
tp325
a(S'p2_du'
I1
tp326
a(S'p2_vo'
I7
tp327
a(S'w'
I11
tp328
a(S'p2_tl'
I254
tp329
a(S'w'
I715
tp330
a(S'p2_du'
I0
tp331
a(S'p2_vo'
I8
tp332
a(S'w'
I734
tp333
a(S'p2_vo'
I7
tp334
a(S'w'
I716
tp335
a(S'p1_ll'
I1
tp336
a(S'p1_th'
I1
tp337
a(S'w'
I3
tp338
a(S'p1_tl'
I29
tp339
a(S'w'
I746
tp340
a(S'p1_du'
I2
tp341
a(S'w'
I11
tp342
a(S'p1_ll'
I1
tp343
a(S'p1_th'
I0
tp344
a(S'w'
I3
tp345
a(S'p1_tl'
I227
tp346
a(S'w'
I11
tp347
a(S'p2_vo'
I6
tp348
a(S'w'
I17
tp349
a(S'tr_ll'
I1
tp350
a(S'w'
I3
tp351
a(S'tr_tl'
I103
tp352
a(S'w'
I677
tp353
a(S'p1_du'
I1
tp354
a(S'p1_vo'
I3
tp355
a(S'w'
I734
tp356
a(S'p1_vo'
I2
tp357
a(S'w'
I11
tp358
a(S'p2_vo'
I5
tp359
a(S'w'
I734
tp360
a(S'p2_tl'
I190
tp361
a(S'w'
I6
tp362
a(S'p2_vo'
I2
tp363
a(S'w'
I738
tp364
a(S'p2_du'
I1
tp365
a(S'p2_vo'
I7
tp366
a(S'w'
I11
tp367
a(S'p2_ll'
I1
tp368
a(S'p2_th'
I1
tp369
a(S'w'
I3
tp370
a(S'p2_tl'
I29
tp371
a(S'w'
I712
tp372
a(S'p2_du'
I0
tp373
a(S'p2_vo'
I8
tp374
a(S'w'
I734
tp375
a(S'p2_vo'
I7
tp376
a(S'w'
I717
tp377
a(S'p1_tl'
I190
tp378
a(S'w'
I745
tp379
a(S'p1_du'
I2
tp380
a(S'w'
I11
tp381
a(S'p1_tl'
I255
tp382
a(S'w'
I12
tp383
a(S'p2_vo'
I6
tp384
a(S'w'
I703
tp385
a(S'p1_du'
I1
tp386
a(S'p1_vo'
I3
tp387
a(S'w'
I734
tp388
a(S'p1_vo'
I2
tp389
a(S'w'
I11
tp390
a(S'p2_vo'
I5
tp391
a(S'w'
I733
tp392
a(S'p2_ll'
I1
tp393
a(S'p2_th'
I0
tp394
a(S'w'
I2
tp395
a(S'p2_tl'
I213
tp396
a(S'w'
I6
tp397
a(S'p2_vo'
I2
tp398
a(S'w'
I737
tp399
a(S'p2_du'
I1
tp400
a(S'p2_vo'
I7
tp401
a(S'w'
I11
tp402
a(S'p2_tl'
I254
tp403
a(S'w'
I25
tp404
a(S'tr_ll'
I1
tp405
a(S'w'
I3
tp406
a(S'tr_tl'
I125
tp407
a(S'w'
I687
tp408
a(S'p2_du'
I0
tp409
a(S'p2_vo'
I8
tp410
a(S'w'
I734
tp411
a(S'p2_vo'
I7
tp412
a(S'w'
I716
tp413
a(S'p1_tl'
I190
tp414
a(S'w'
I745
tp415
a(S'p1_du'
I2
tp416
a(S'w'
I11
tp417
a(S'p1_ll'
I1
tp418
a(S'p1_th'
I1
tp419
a(S'w'
I3
tp420
a(S'p1_tl'
I30
tp421
a(S'w'
I12
tp422
a(S'p2_vo'
I6
tp423
a(S'w'
I700
tp424
a(S'p1_du'
I1
tp425
a(S'p1_vo'
I3
tp426
a(S'w'
I734
tp427
a(S'p1_vo'
I2
tp428
a(S'w'
I12
tp429
a(S'p2_vo'
I5
tp430
a(S'w'
I3653
tp431
a(S'p1_ll'
I1
tp432
a(S'p1_th'
I0
tp433
a(S'w'
I3
tp434
a(S'p1_tl'
I213
tp435
a(S'w'
I743
tp436
a(S'p1_du'
I2
tp437
a(S'w'
I12
tp438
a(S'p1_tl'
I255
tp439
a(S'w'
I31
tp440
a(S'tr_ll'
I1
tp441
a(S'w'
I2
tp442
a(S'tr_tl'
I171
tp443
a(S'w'
I681
tp444
a(S'p1_du'
I1
tp445
a(S'p1_vo'
I3
tp446
a(S'w'
I734
tp447
a(S'p1_vo'
I2
tp448
a(S'w'
I3679
tp449
a(S'p2_ll'
I1
tp450
a(S'p2_th'
I1
tp451
a(S'w'
I3
tp452
a(S'p2_tl'
I29
tp453
a(S'w'
I6
tp454
a(S'p2_vo'
I2
tp455
a(S'w'
I726
tp456
a(S'w'
I733
tp457
a(S'w'
I734
tp458
a(S'w'
I733
tp459
a(S'w'
I746
tp460
a(S'p2_du'
I1
tp461
a(S'p2_vo'
I7
tp462
a(S'w'
I11
tp463
a(S'p2_tl'
I125
tp464
a(S'w'
I20
tp465
a(S'tr_ll'
I1
tp466
a(S'w'
I3
tp467
a(S'tr_tl'
I197
tp468
a(S'w'
I692
tp469
a(S'p2_du'
I0
tp470
a(S'p2_vo'
I8
tp471
a(S'w'
I734
tp472
a(S'p2_vo'
I7
tp473
a(S'w'
I1468
tp474
a(S'p2_vo'
I6
tp475
a(S'w'
I1466
tp476
a(S'p2_vo'
I5
tp477
a(S'w'
I716
tp478
a(S'p1_ll'
I1
tp479
a(S'p1_th'
I1
tp480
a(S'w'
I3
tp481
a(S'p1_tl'
I29
tp482
a(S'w'
I732
tp483
a(S'w'
I733
tp484
a(S'w'
I734
tp485
a(S'w'
I734
tp486
a(S'w'
I746
tp487
a(S'p1_du'
I2
tp488
a(S'w'
I11
tp489
a(S'p1_tl'
I126
tp490
a(S'w'
I30
tp491
a(S'tr_ll'
I1
tp492
a(S'w'
I3
tp493
a(S'tr_tl'
I252
tp494
a(S'w'
I681
tp495
a(S'p1_du'
I1
tp496
a(S'p1_vo'
I3
tp497
a(S'w'
I734
tp498
a(S'p1_vo'
I2
tp499
a(S'w'
I3679
tp500
a(S'p2_ll'
I1
tp501
a(S'p2_th'
I0
tp502
a(S'w'
I3
tp503
a(S'p2_tl'
I254
tp504
a(S'w'
I6
tp505
a(S'p2_vo'
I2
tp506
a(S'w'
I727
tp507
a(S'w'
I732
tp508
a(S'w'
I734
tp509
a(S'w'
I734
tp510
a(S'w'
I749
tp511
a(S'p2_du'
I1
tp512
a(S'p2_vo'
I7
tp513
a(S'w'
I12
tp514
a(S'p2_tl'
I190
tp515
a(S'w'
I24
tp516
a(S'tr_ll'
I1
tp517
a(S'w'
I3
tp518
a(S'tr_tl'
I125
tp519
a(S'w'
I683
tp520
a(S'p2_du'
I0
tp521
a(S'p2_vo'
I8
tp522
a(S'w'
I734
tp523
a(S'p2_vo'
I7
tp524
a(S'w'
I1468
tp525
a(S'p2_vo'
I6
tp526
a(S'w'
I1467
tp527
a(S'p2_vo'
I5
tp528
a(S'w'
I716
tp529
a(S'p1_ll'
I1
tp530
a(S'p1_th'
I0
tp531
a(S'w'
I3
tp532
a(S'p1_tl'
I254
tp533
a(S'w'
I731
tp534
a(S'w'
I734
tp535
a(S'w'
I733
tp536
a(S'w'
I734
tp537
a(S'w'
I750
tp538
a(S'p1_du'
I2
tp539
a(S'w'
I12
tp540
a(S'p1_tl'
I191
tp541
a(S'w'
I31
tp542
a(S'tr_ll'
I1
tp543
a(S'w'
I2
tp544
a(S'tr_tl'
I171
tp545
a(S'w'
I677
tp546
a(S'p1_du'
I1
tp547
a(S'p1_vo'
I3
tp548
a(S'w'
I733
tp549
a(S'p1_vo'
I2
tp550
a(S'w'
I3680
tp551
a(S'p2_ll'
I1
tp552
a(S'p2_th'
I1
tp553
a(S'w'
I2
tp554
a(S'p2_tl'
I125
tp555
a(S'w'
I6
tp556
a(S'p2_vo'
I2
tp557
a(S'w'
I727
tp558
a(S'w'
I732
tp559
a(S'w'
I734
tp560
a(S'w'
I734
tp561
a(S'w'
I748
tp562
a(S'p2_du'
I1
tp563
a(S'p2_vo'
I7
tp564
a(S'w'
I11
tp565
a(S'p2_ll'
I1
tp566
a(S'p2_th'
I0
tp567
a(S'w'
I3
tp568
a(S'p2_tl'
I226
tp569
a(S'w'
I20
tp570
a(S'tr_ll'
I1
tp571
a(S'w'
I3
tp572
a(S'tr_tl'
I197
tp573
a(S'w'
I686
tp574
a(S'p2_du'
I0
tp575
a(S'p2_vo'
I8
tp576
a(S'w'
I733
tp577
a(S'p2_vo'
I7
tp578
a(S'w'
I1469
tp579
a(S'p2_vo'
I6
tp580
a(S'w'
I1466
tp581
a(S'p2_vo'
I5
tp582
a(S'w'
I717
tp583
a(S'p1_ll'
I1
tp584
a(S'p1_th'
I1
tp585
a(S'w'
I3
tp586
a(S'p1_tl'
I125
tp587
a(S'w'
I19
tp588
a(S'p2_tl'
I190
tp589
a(S'w'
I6
tp590
a(S'p2_vo'
I2
tp591
a(S'w'
I706
tp592
a(S'w'
I38
tp593
a(S'p2_du'
I1
tp594
a(S'p2_vo'
I7
tp595
a(S'w'
I11
tp596
a(S'p2_tl'
I213
tp597
a(S'w'
I685
tp598
a(S'w'
I22
tp599
a(S'p2_du'
I0
tp600
a(S'p2_vo'
I8
tp601
a(S'w'
I712
tp602
a(S'w'
I22
tp603
a(S'p2_vo'
I7
tp604
a(S'w'
I712
tp605
a(S'w'
I748
tp606
a(S'p1_du'
I2
tp607
a(S'w'
I11
tp608
a(S'p1_ll'
I1
tp609
a(S'p1_th'
I0
tp610
a(S'w'
I3
tp611
a(S'p1_tl'
I227
tp612
a(S'w'
I11
tp613
a(S'p2_vo'
I6
tp614
a(S'w'
I17
tp615
a(S'tr_ll'
I1
tp616
a(S'w'
I2
tp617
a(S'tr_tl'
I252
tp618
a(S'w'
I678
tp619
a(S'p1_du'
I1
tp620
a(S'p1_vo'
I3
tp621
a(S'w'
I734
tp622
a(S'p1_vo'
I2
tp623
a(S'w'
I11
tp624
a(S'p2_vo'
I5
tp625
a(S'w'
I733
tp626
a(S'p2_tl'
I190
tp627
a(S'w'
I6
tp628
a(S'p2_vo'
I2
tp629
a(S'w'
I739
tp630
a(S'p2_du'
I1
tp631
a(S'p2_vo'
I7
tp632
a(S'w'
I12
tp633
a(S'w'
I714
tp634
a(S'p2_du'
I0
tp635
a(S'p2_vo'
I8
tp636
a(S'w'
I734
tp637
a(S'p2_vo'
I7
tp638
a(S'w'
I717
tp639
a(S'p1_tl'
I190
tp640
a(S'w'
I755
tp641
a(S'p1_du'
I2
tp642
a(S'w'
I12
tp643
a(S'p1_tl'
I214
tp644
a(S'w'
I12
tp645
a(S'p2_vo'
I6
tp646
a(S'w'
I692
tp647
a(S'p1_du'
I1
tp648
a(S'p1_vo'
I3
tp649
a(S'w'
I734
tp650
a(S'p1_vo'
I2
tp651
a(S'w'
I11
tp652
a(S'p2_vo'
I5
tp653
a(S'w'
I733
tp654
a(S'w'
I6
tp655
a(S'p2_vo'
I2
tp656
a(S'w'
I745
tp657
a(S'p1_du'
I2
tp658
a(S'p1_vo'
I5
tp659
a(S'w'
I11
tp660
a(S'p1_ll'
I1
tp661
a(S'p1_th'
I1
tp662
a(S'w'
I3
tp663
a(S'p1_tl'
I30
tp664
a(S'w'
I28
tp665
a(S'p2_du'
I1
tp666
a(S'p2_vo'
I7
tp667
a(S'w'
I12
tp668
a(S'p2_tl'
I179
tp669
a(S'w'
I25
tp670
a(S'tr_ll'
I1
tp671
a(S'w'
I2
tp672
a(S'tr_tl'
I103
tp673
a(S'w'
I625
tp674
a(S'p1_du'
I1
tp675
a(S'p1_vo'
I6
tp676
a(S'w'
I12
tp677
a(S'p2_du'
I0
tp678
a(S'p2_vo'
I8
tp679
a(S'w'
I722
tp680
a(S'p1_vo'
I5
tp681
a(S'w'
I12
tp682
a(S'p2_vo'
I7
tp683
a(S'w'
I1456
tp684
a(S'p1_vo'
I4
tp685
a(S'w'
I11
tp686
a(S'p2_vo'
I6
tp687
a(S'w'
I1456
tp688
a(S'p1_vo'
I3
tp689
a(S'w'
I12
tp690
a(S'p2_vo'
I5
tp691
a(S'w'
I1453
tp692
a(S'p1_ll'
I1
tp693
a(S'p1_th'
I0
tp694
a(S'w'
I3
tp695
a(S'p1_tl'
I226
tp696
a(S'w'
I11
tp697
a(S'p1_vo'
I2
tp698
a(S'w'
I9
tp699
a(S'p2_tl'
I213
tp700
a(S'w'
I11
tp701
a(S'p2_vo'
I2
tp702
a(S'w'
I699
tp703
a(S'w'
I15
tp704
a(S'w'
I719
tp705
a(S'w'
I19
tp706
a(S'w'
I715
tp707
a(S'w'
I14
tp708
a(S'w'
I720
tp709
a(S'w'
I19
tp710
a(S'w'
I27
tp711
a(S'tr_ll'
I1
tp712
a(S'w'
I3
tp713
a(S'tr_tl'
I125
tp714
a(S'w'
I684
tp715
a(S'w'
I15
tp716
a(S'w'
I719
tp717
a(S'w'
I19
tp718
a(S'w'
I715
tp719
a(S'w'
I14
tp720
a(S'w'
I737
tp721
a(S'p1_du'
I2
tp722
a(S'p1_vo'
I5
tp723
a(S'w'
I11
tp724
a(S'p1_ll'
I1
tp725
a(S'p1_th'
I1
tp726
a(S'w'
I3
tp727
a(S'p1_tl'
I30
tp728
a(S'w'
I26
tp729
a(S'p2_du'
I1
tp730
a(S'p2_vo'
I7
tp731
a(S'w'
I11
tp732
a(S'p2_tl'
I179
tp733
a(S'w'
I669
tp734
a(S'p1_du'
I1
tp735
a(S'p1_vo'
I6
tp736
a(S'w'
I11
tp737
a(S'p2_du'
I0
tp738
a(S'p2_vo'
I8
tp739
a(S'w'
I723
tp740
a(S'p1_vo'
I5
tp741
a(S'w'
I11
tp742
a(S'p2_vo'
I7
tp743
a(S'w'
I1456
tp744
a(S'p1_vo'
I4
tp745
a(S'w'
I11
tp746
a(S'p2_vo'
I6
tp747
a(S'w'
I1457
tp748
a(S'p1_vo'
I3
tp749
a(S'w'
I11
tp750
a(S'p2_vo'
I5
tp751
a(S'w'
I719
tp752
a(S'p1_ll'
I1
tp753
a(S'p1_th'
I0
tp754
a(S'w'
I3
tp755
a(S'p1_tl'
I213
tp756
a(S'w'
I6
tp757
a(S'p1_vo'
I2
tp758
a(S'w'
I8
tp759
a(S'p2_tl'
I190
tp760
a(S'w'
I6
tp761
a(S'p2_vo'
I2
tp762
a(S'w'
I723
tp763
a(S'p1_du'
I2
tp764
a(S'p1_vo'
I5
tp765
a(S'w'
I11
tp766
a(S'p1_ll'
I1
tp767
a(S'p1_th'
I1
tp768
a(S'w'
I3
tp769
a(S'p1_tl'
I30
tp770
a(S'w'
I20
tp771
a(S'p2_du'
I1
tp772
a(S'p2_vo'
I7
tp773
a(S'w'
I12
tp774
a(S'p2_tl'
I179
tp775
a(S'w'
I16
tp776
a(S'tr_ll'
I1
tp777
a(S'w'
I3
tp778
a(S'tr_tl'
I171
tp779
a(S'w'
I661
tp780
a(S'p1_du'
I1
tp781
a(S'p1_vo'
I6
tp782
a(S'w'
I12
tp783
a(S'p2_du'
I0
tp784
a(S'p2_vo'
I8
tp785
a(S'w'
I722
tp786
a(S'p1_vo'
I5
tp787
a(S'w'
I12
tp788
a(S'p2_vo'
I7
tp789
a(S'w'
I1455
tp790
a(S'p1_vo'
I4
tp791
a(S'w'
I12
tp792
a(S'p2_vo'
I6
tp793
a(S'w'
I1456
tp794
a(S'p1_vo'
I3
tp795
a(S'w'
I12
tp796
a(S'p2_vo'
I5
tp797
a(S'w'
I4426
tp798
a(S'tr_ll'
I1
tp799
a(S'w'
I3
tp800
a(S'tr_tl'
I224
tp801
a(S'w'
I5094
tp802
a(S'p1_tl'
I29
tp803
a(S'w'
I7
tp804
a(S'p1_vo'
I2
tp805
a(S'w'
I8
tp806
a(S'w'
I6
tp807
a(S'p2_vo'
I2
tp808
a(S'w'
I713
tp809
a(S'w'
I19
tp810
a(S'w'
I715
tp811
a(S'w'
I14
tp812
a(S'w'
I720
tp813
a(S'w'
I19
tp814
a(S'w'
I715
tp815
a(S'w'
I14
tp816
a(S'w'
I739
tp817
a(S'p1_du'
I2
tp818
a(S'p1_vo'
I5
tp819
a(S'w'
I11
tp820
a(S'p1_ll'
I1
tp821
a(S'p1_th'
I0
tp822
a(S'w'
I3
tp823
a(S'p1_tl'
I255
tp824
a(S'w'
I28
tp825
a(S'p2_du'
I1
tp826
a(S'p2_vo'
I7
tp827
a(S'w'
I12
tp828
a(S'p2_tl'
I160
tp829
a(S'w'
I21
tp830
a(S'tr_ll'
I1
tp831
a(S'w'
I2
tp832
a(S'tr_tl'
I64
tp833
a(S'w'
I641
tp834
a(S'p1_du'
I1
tp835
a(S'p1_vo'
I6
tp836
a(S'w'
I11
tp837
a(S'p2_du'
I0
tp838
a(S'p2_vo'
I8
tp839
a(S'w'
I722
tp840
a(S'p1_vo'
I5
tp841
a(S'w'
I12
tp842
a(S'p2_vo'
I7
tp843
a(S'w'
I1456
tp844
a(S'p1_vo'
I4
tp845
a(S'w'
I12
tp846
a(S'p2_vo'
I6
tp847
a(S'w'
I1456
tp848
a(S'p1_vo'
I3
tp849
a(S'w'
I11
tp850
a(S'p2_vo'
I5
tp851
a(S'w'
I1454
tp852
a(S'p1_ll'
I1
tp853
a(S'p1_th'
I1
tp854
a(S'w'
I2
tp855
a(S'p1_tl'
I29
tp856
a(S'w'
I11
tp857
a(S'p1_vo'
I2
tp858
a(S'w'
I10
tp859
a(S'p2_tl'
I179
tp860
a(S'w'
I11
tp861
a(S'p2_vo'
I2
tp862
a(S'w'
I699
tp863
a(S'w'
I14
tp864
a(S'w'
I719
tp865
a(S'w'
I20
tp866
a(S'w'
I714
tp867
a(S'w'
I15
tp868
a(S'w'
I719
tp869
a(S'w'
I19
tp870
a(S'w'
I28
tp871
a(S'tr_ll'
I1
tp872
a(S'w'
I3
tp873
a(S'tr_tl'
I103
tp874
a(S'w'
I684
tp875
a(S'w'
I14
tp876
a(S'w'
I720
tp877
a(S'w'
I19
tp878
a(S'w'
I714
tp879
a(S'w'
I15
tp880
a(S'w'
I737
tp881
a(S'p1_du'
I2
tp882
a(S'p1_vo'
I5
tp883
a(S'w'
I11
tp884
a(S'p1_ll'
I1
tp885
a(S'p1_th'
I0
tp886
a(S'w'
I2
tp887
a(S'p1_tl'
I255
tp888
a(S'w'
I26
tp889
a(S'p2_du'
I1
tp890
a(S'p2_vo'
I7
tp891
a(S'w'
I12
tp892
a(S'p2_tl'
I160
tp893
a(S'w'
I668
tp894
a(S'p1_du'
I1
tp895
a(S'p1_vo'
I6
tp896
a(S'w'
I12
tp897
a(S'p2_du'
I0
tp898
a(S'p2_vo'
I8
tp899
a(S'w'
I722
tp900
a(S'p1_vo'
I5
tp901
a(S'w'
I11
tp902
a(S'p2_vo'
I7
tp903
a(S'w'
I1457
tp904
a(S'p1_vo'
I4
tp905
a(S'w'
I11
tp906
a(S'p2_vo'
I6
tp907
a(S'w'
I1456
tp908
a(S'p1_vo'
I3
tp909
a(S'w'
I12
tp910
a(S'p2_vo'
I5
tp911
a(S'w'
I718
tp912
a(S'p1_ll'
I1
tp913
a(S'p1_th'
I1
tp914
a(S'w'
I3
tp915
a(S'p1_tl'
I29
tp916
a(S'w'
I6
tp917
a(S'p1_vo'
I2
tp918
a(S'w'
I9
tp919
a(S'p2_tl'
I179
tp920
a(S'w'
I6
tp921
a(S'p2_vo'
I2
tp922
a(S'w'
I722
tp923
a(S'p1_du'
I2
tp924
a(S'p1_vo'
I5
tp925
a(S'w'
I11
tp926
a(S'p1_ll'
I1
tp927
a(S'p1_th'
I0
tp928
a(S'w'
I3
tp929
a(S'p1_tl'
I255
tp930
a(S'w'
I20
tp931
a(S'p2_du'
I1
tp932
a(S'p2_vo'
I7
tp933
a(S'w'
I12
tp934
a(S'p2_tl'
I160
tp935
a(S'w'
I17
tp936
a(S'tr_ll'
I1
tp937
a(S'w'
I3
tp938
a(S'tr_tl'
I125
tp939
a(S'w'
I660
tp940
a(S'p1_du'
I1
tp941
a(S'p1_vo'
I6
tp942
a(S'w'
I12
tp943
a(S'p2_du'
I0
tp944
a(S'p2_vo'
I8
tp945
a(S'w'
I722
tp946
a(S'p1_vo'
I5
tp947
a(S'w'
I12
tp948
a(S'p2_vo'
I7
tp949
a(S'w'
I1456
tp950
a(S'p1_vo'
I4
tp951
a(S'w'
I12
tp952
a(S'p2_vo'
I6
tp953
a(S'w'
I1455
tp954
a(S'p1_vo'
I3
tp955
a(S'w'
I12
tp956
a(S'p2_vo'
I5
tp957
a(S'w'
I4424
tp958
a(S'tr_ll'
I1
tp959
a(S'w'
I3
tp960
a(S'tr_tl'
I171
tp961
a(S'w'
I5097
tp962
a(S'p1_tl'
I254
tp963
a(S'w'
I6
tp964
a(S'p1_vo'
I2
tp965
a(S'w'
I8
tp966
a(S'w'
I6
tp967
a(S'p2_vo'
I2
tp968
a(S'w'
I714
tp969
a(S'w'
I19
tp970
a(S'w'
I715
tp971
a(S'w'
I14
tp972
a(S'w'
I719
tp973
a(S'w'
I20
tp974
a(S'w'
I714
tp975
a(S'w'
I15
tp976
a(S'w'
I751
tp977
a(S'p1_vo'
I5
tp978
a(S'w'
I12
tp979
a(S'p1_tl'
I255
tp980
a(S'w'
I41
tp981
a(S'p2_du'
I1
tp982
a(S'p2_vo'
I7
tp983
a(S'w'
I11
tp984
a(S'p2_tl'
I151
tp985
a(S'w'
I21
tp986
a(S'tr_lh'
I1
tp987
a(S'tr_lr'
I15
tp988
a(S'w'
I7
tp989
a(S'tr_ll'
I1
tp990
a(S'w'
I3
tp991
a(S'tr_tl'
I125
tp992
a(S'w'
I614
tp993
a(S'p1_vo'
I6
tp994
a(S'w'
I15
tp995
a(S'p2_du'
I0
tp996
a(S'p2_vo'
I8
tp997
a(S'w'
I719
tp998
a(S'p1_vo'
I5
tp999
a(S'w'
I15
tp1000
a(S'p2_vo'
I7
tp1001
a(S'w'
I1452
tp1002
a(S'p1_vo'
I4
tp1003
a(S'w'
I16
tp1004
a(S'p2_vo'
I6
tp1005
a(S'w'
I1452
tp1006
a(S'p1_vo'
I3
tp1007
a(S'w'
I15
tp1008
a(S'p2_vo'
I5
tp1009
a(S'w'
I13195
tp1010
a(S'p1_ll'
I1
tp1011
a(S'p1_th'
I1
tp1012
a(S'w'
I3
tp1013
a(S'p1_tl'
I0
tp1014
a(S'w'
I29
tp1015
a(S'p2_tl'
I152
tp1016
a(S'w'
I701
tp1017
a(S'p1_tl'
I1
tp1018
a(S'w'
I20
tp1019
a(S'p2_tl'
I153
tp1020
a(S'w'
I1447
tp1021
a(S'p1_tl'
I0
tp1022
a(S'w'
I21
tp1023
a(S'p2_tl'
I152
tp1024
a(S'w'
I1446
tp1025
a(S'p1_ll'
I1
tp1026
a(S'p1_th'
I0
tp1027
a(S'w'
I3
tp1028
a(S'p1_tl'
I255
tp1029
a(S'w'
I21
tp1030
a(S'p2_tl'
I151
tp1031
a(S'w'
I711
tp1032
a(S'p1_tl'
I254
tp1033
a(S'w'
I25
tp1034
a(S'p2_tl'
I150
tp1035
a(S'w'
I1443
tp1036
a(S'p1_tl'
I253
tp1037
a(S'w'
I27
tp1038
a(S'p2_tl'
I149
tp1039
a(S'w'
I1440
tp1040
a(S'p1_tl'
I254
tp1041
a(S'w'
I25
tp1042
a(S'p2_tl'
I150
tp1043
a(S'w'
I708
tp1044
a(S'p1_tl'
I255
tp1045
a(S'w'
I21
tp1046
a(S'p2_tl'
I151
tp1047
a(S'w'
I1452
tp1048
a(S'p1_ll'
I1
tp1049
a(S'p1_th'
I1
tp1050
a(S'w'
I3
tp1051
a(S'p1_tl'
I0
tp1052
a(S'w'
I23
tp1053
a(S'p2_tl'
I152
tp1054
a(S'w'
I703
tp1055
a(S'p1_tl'
I1
tp1056
a(S'w'
I25
tp1057
a(S'p2_tl'
I153
tp1058
a(S'w'
I1443
tp1059
a(S'p1_tl'
I0
tp1060
a(S'w'
I27
tp1061
a(S'p2_tl'
I152
tp1062
a(S'w'
I1439
tp1063
a(S'p1_ll'
I1
tp1064
a(S'p1_th'
I0
tp1065
a(S'w'
I3
tp1066
a(S'p1_tl'
I255
tp1067
a(S'w'
I25
tp1068
a(S'p2_tl'
I151
tp1069
a(S'w'
I706
tp1070
a(S'p1_tl'
I254
tp1071
a(S'w'
I21
tp1072
a(S'p2_tl'
I150
tp1073
a(S'w'
I1447
tp1074
a(S'p1_tl'
I253
tp1075
a(S'w'
I20
tp1076
a(S'p2_tl'
I149
tp1077
a(S'w'
I1448
tp1078
a(S'p1_tl'
I254
tp1079
a(S'w'
I20
tp1080
a(S'p2_tl'
I150
tp1081
a(S'w'
I714
tp1082
a(S'p1_tl'
I255
tp1083
a(S'w'
I26
tp1084
a(S'p2_tl'
I151
tp1085
a(S'w'
I1443
tp1086
a(S'p1_ll'
I1
tp1087
a(S'p1_th'
I1
tp1088
a(S'w'
I3
tp1089
a(S'p1_tl'
I0
tp1090
a(S'w'
I28
tp1091
a(S'p2_tl'
I152
tp1092
a(S'w'
I701
tp1093
a(S'p1_tl'
I1
tp1094
a(S'w'
I19
tp1095
a(S'p2_tl'
I153
tp1096
a(S'w'
I1448
tp1097
a(S'p1_tl'
I0
tp1098
a(S'w'
I20
tp1099
a(S'p2_tl'
I152
tp1100
a(S'w'
I1447
tp1101
a(S'p1_ll'
I1
tp1102
a(S'p1_th'
I0
tp1103
a(S'w'
I3
tp1104
a(S'p1_tl'
I255
tp1105
a(S'w'
I20
tp1106
a(S'p2_tl'
I151
tp1107
a(S'w'
I713
tp1108
a(S'p1_tl'
I254
tp1109
a(S'w'
I25
tp1110
a(S'p2_tl'
I150
tp1111
a(S'w'
I1441
tp1112
a(S'p1_tl'
I253
tp1113
a(S'w'
I24
tp1114
a(S'p2_tl'
I149
tp1115
a(S'w'
I1443
tp1116
a(S'p1_tl'
I254
tp1117
a(S'w'
I25
tp1118
a(S'p2_tl'
I150
tp1119
a(S'w'
I709
tp1120
a(S'p1_tl'
I255
tp1121
a(S'w'
I20
tp1122
a(S'p2_tl'
I151
tp1123
a(S'w'
I1450
tp1124
a(S'p1_ll'
I1
tp1125
a(S'p1_th'
I1
tp1126
a(S'w'
I3
tp1127
a(S'p1_tl'
I0
tp1128
a(S'w'
I23
tp1129
a(S'p2_tl'
I152
tp1130
a(S'w'
I707
tp1131
a(S'p1_tl'
I1
tp1132
a(S'w'
I25
tp1133
a(S'p2_tl'
I153
tp1134
a(S'w'
I1441
tp1135
a(S'p1_tl'
I0
tp1136
a(S'w'
I24
tp1137
a(S'p2_tl'
I152
tp1138
a(S'w'
I1443
tp1139
a(S'p1_ll'
I1
tp1140
a(S'p1_th'
I0
tp1141
a(S'w'
I3
tp1142
a(S'p1_tl'
I255
tp1143
a(S'w'
I24
tp1144
a(S'p2_tl'
I151
tp1145
a(S'w'
I707
tp1146
a(S'p1_tl'
I254
tp1147
a(S'w'
I20
tp1148
a(S'p2_tl'
I150
tp1149
a(S'w'
I1443
tp1150
a(S'w'
I16
tp1151
a(S'p2_tl'
I151
tp1152
a(S'w'
I719
tp1153
a(S'w'
I22
tp1154
a(S'w'
I711
tp1155
a(S'w'
I15
tp1156
a(S'w'
I718
tp1157
a(S'w'
I21
tp1158
a(S'w'
I713
tp1159
a(S'w'
I16
tp1160
a(S'w'
I718
tp1161
a(S'w'
I12
tp1162
a(S'p1_vo'
I2
tp1163
a(S'w'
I9
tp1164
a(S'w'
I11
tp1165
a(S'p2_vo'
I4
tp1166
a(S'w'
I702
tp1167
a(S'w'
I16
tp1168
a(S'w'
I718
tp1169
a(S'w'
I20
tp1170
a(S'w'
I713
tp1171
a(S'w'
I16
tp1172
a(S'w'
I719
tp1173
a(S'w'
I21
tp1174
a(S'w'
I712
tp1175
a(S'w'
I15
tp1176
a(S'w'
I719
tp1177
a(S'w'
I11
tp1178
a(S'p1_vo'
I1
tp1179
a(S'w'
I9
tp1180
a(S'w'
I12
tp1181
a(S'p2_vo'
I3
tp1182
a(S'w'
I701
tp1183
a(S'w'
I16
tp1184
a(S'w'
I718
tp1185
a(S'w'
I20
tp1186
a(S'w'
I714
tp1187
a(S'w'
I15
tp1188
a(S'w'
I719
tp1189
a(S'w'
I20
tp1190
a(S'w'
I714
tp1191
a(S'w'
I15
tp1192
a(S'w'
I719
tp1193
a(S'w'
I22
tp1194
a(S'w'
I11
tp1195
a(S'p2_vo'
I2
tp1196
a(S'w'
I700
tp1197
a(S'w'
I15
tp1198
a(S'w'
I719
tp1199
a(S'w'
I20
tp1200
a(S'w'
I713
tp1201
a(S'w'
I15
tp1202
a(S'w'
I719
tp1203
a(S'w'
I20
tp1204
a(S'w'
I714
tp1205
a(S'w'
I15
tp1206
a(S'w'
I719
tp1207
a(S'w'
I20
tp1208
a(S'w'
I11
tp1209
a(S'p2_vo'
I1
tp1210
a(S'w'
I703
tp1211
a(S'w'
I15
tp1212
a(S'w'
I719
tp1213
a(S'w'
I21
tp1214
a(S'w'
I712
tp1215
a(S'w'
I14
tp1216
a(S'w'
I720
tp1217
a(S'w'
I19
tp1218
a(S'w'
I715
tp1219
a(S'w'
I14
tp1220
a(S'w'
I719
tp1221
a(S'w'
I20
tp1222
a(S'w'
I714
tp1223
a(S'w'
I15
tp1224
a(S'w'
I719
tp1225
a(S'w'
I19
tp1226
a(S'w'
I715
tp1227
a(S'w'
I14
tp1228
a(S'w'
I720
tp1229
a(S'w'
I21
tp1230
a(S'w'
I712
tp1231
a(S'w'
I14
tp1232
a(S'w'
I720
tp1233
a(S'w'
I19
tp1234
a(S'w'
I715
tp1235
a(S'w'
I14
tp1236
a(S'w'
I719
tp1237
a(S'w'
I19
tp1238
a(S'w'
I715
tp1239
a(S'w'
I14
tp1240
a(S'w'
I720
tp1241
a(S'w'
I19
tp1242
a(S'w'
I715
tp1243
a(S'w'
I14
tp1244
a(S'w'
I720
tp1245
a(S'p1_du'
I0
tp1246
a(S'p1_vo'
I0
tp1247
a(S'w'
I9
tp1248
a(S'p2_vo'
I0
tp1249
a(S'w'
I8
tp1250
a(S'tr_lh'
I0
tp1251
a(S'tr_lr'
I0
tp1252
a(S'w'
I2
tp1253
a(S'tr_ll'
I31
tp1254
a(S'tr_th'
I7
tp1255
a(S'w'
I1
tp1256
a.