(lp1
(S'clock'
p2
I1789772
tp3
a(S'p1_ll'
I0
tp4
a(S'p2_ll'
I0
tp5
a(S'tr_ll'
I0
tp6
a(S'no_ll'
I0
tp7
a(S'ch_no'
I0
tp8
a(S'ch_tr'
I0
tp9
a(S'ch_p2'
I0
tp10
a(S'ch_p1'
I0
tp11
a(S'fc_mo'
I0
tp12
a(S'ch_no'
I1
tp13
a(S'ch_tr'
I1
tp14
a(S'ch_p2'
I1
tp15
a(S'ch_p1'
I1
tp16
a(S'w'
I422
tp17
a(S'no_lh'
I1
tp18
a(S'no_cv'
I1
tp19
a(S'w'
I13
tp20
a(S'tr_tl'
I252
tp21
a(S'w'
I1
tp22
a(S'tr_ll'
I1
tp23
a(S'tr_th'
I1
tp24
a(S'tr_lh'
I1
tp25
a(S'tr_lr'
I39
tp26
a(S'w'
I21
tp27
a(S'p2_tl'
I104
tp28
a(S'w'
I1
tp29
a(S'p2_ll'
I0
tp30
a(S'p2_th'
I1
tp31
a(S'w'
I24
tp32
a(S'p1_tl'
I214
tp33
a(S'w'
I2
tp34
a(S'p1_ll'
I0
tp35
a(S'w'
I6
tp36
a(S'p2_du'
I2
tp37
a(S'p2_lh'
I1
tp38
a(S'p2_cv'
I1
tp39
a(S'p2_vo'
I15
tp40
a(S'w'
I3
tp41
a(S'p1_du'
I2
tp42
a(S'p1_lh'
I1
tp43
a(S'p1_cv'
I1
tp44
a(S'p1_vo'
I15
tp45
a(S'w'
I669
tp46
a(S'p2_vo'
I14
tp47
a(S'w'
I3
tp48
a(S'p1_vo'
I14
tp49
a(S'w'
I736
tp50
a(S'p2_vo'
I13
tp51
a(S'w'
I4
tp52
a(S'p1_vo'
I13
tp53
a(S'w'
I724
tp54
a(S'p2_vo'
I12
tp55
a(S'w'
I4
tp56
a(S'p1_vo'
I12
tp57
a(S'w'
I1464
tp58
a(S'p2_vo'
I11
tp59
a(S'w'
I3
tp60
a(S'p1_vo'
I11
tp61
a(S'w'
I1465
tp62
a(S'p2_vo'
I10
tp63
a(S'w'
I3
tp64
a(S'p1_vo'
I10
tp65
a(S'w'
I2204
tp66
a(S'p2_vo'
I9
tp67
a(S'w'
I3
tp68
a(S'p1_vo'
I9
tp69
a(S'w'
I2192
tp70
a(S'p2_vo'
I8
tp71
a(S'w'
I4
tp72
a(S'p1_vo'
I8
tp73
a(S'w'
I2201
tp74
a(S'p2_tl'
I64
tp75
a(S'w'
I1
tp76
a(S'p2_ll'
I0
tp77
a(S'w'
I7
tp78
a(S'p1_tl'
I190
tp79
a(S'w'
I1
tp80
a(S'p1_ll'
I0
tp81
a(S'w'
I6
tp82
a(S'p2_vo'
I15
tp83
a(S'w'
I3
tp84
a(S'p1_vo'
I15
tp85
a(S'w'
I718
tp86
a(S'p2_vo'
I14
tp87
a(S'w'
I4
tp88
a(S'p1_vo'
I14
tp89
a(S'w'
I724
tp90
a(S'p2_vo'
I13
tp91
a(S'w'
I4
tp92
a(S'p1_vo'
I13
tp93
a(S'w'
I736
tp94
a(S'p2_vo'
I12
tp95
a(S'w'
I3
tp96
a(S'p1_vo'
I12
tp97
a(S'w'
I1465
tp98
a(S'p2_vo'
I11
tp99
a(S'w'
I3
tp100
a(S'p1_vo'
I11
tp101
a(S'w'
I1464
tp102
a(S'p2_vo'
I10
tp103
a(S'w'
I4
tp104
a(S'p1_vo'
I10
tp105
a(S'w'
I2192
tp106
a(S'p2_vo'
I9
tp107
a(S'w'
I3
tp108
a(S'p1_vo'
I9
tp109
a(S'w'
I2204
tp110
a(S'p2_vo'
I8
tp111
a(S'w'
I3
tp112
a(S'p1_vo'
I8
tp113
a(S'w'
I2190
tp114
a(S'p2_tl'
I29
tp115
a(S'w'
I1
tp116
a(S'p2_ll'
I0
tp117
a(S'w'
I7
tp118
a(S'p1_tl'
I180
tp119
a(S'w'
I1
tp120
a(S'p1_ll'
I0
tp121
a(S'w'
I12
tp122
a(S'p2_vo'
I15
tp123
a(S'w'
I3
tp124
a(S'p1_vo'
I15
tp125
a(S'w'
I712
tp126
a(S'p2_vo'
I14
tp127
a(S'w'
I4
tp128
a(S'p1_vo'
I14
tp129
a(S'w'
I736
tp130
a(S'p2_vo'
I13
tp131
a(S'w'
I3
tp132
a(S'p1_vo'
I13
tp133
a(S'w'
I725
tp134
a(S'p2_vo'
I12
tp135
a(S'w'
I3
tp136
a(S'p1_vo'
I12
tp137
a(S'w'
I1465
tp138
a(S'p2_vo'
I11
tp139
a(S'w'
I3
tp140
a(S'p1_vo'
I11
tp141
a(S'w'
I1464
tp142
a(S'p2_vo'
I10
tp143
a(S'w'
I3
tp144
a(S'p1_vo'
I10
tp145
a(S'w'
I2205
tp146
a(S'p2_vo'
I9
tp147
a(S'w'
I3
tp148
a(S'p1_vo'
I9
tp149
a(S'w'
I2192
tp150
a(S'p2_vo'
I8
tp151
a(S'w'
I3
tp152
a(S'p1_vo'
I8
tp153
a(S'w'
I2196
tp154
a(S'p2_tl'
I64
tp155
a(S'w'
I1
tp156
a(S'p2_ll'
I0
tp157
a(S'w'
I6
tp158
a(S'p1_tl'
I190
tp159
a(S'w'
I2
tp160
a(S'p1_ll'
I0
tp161
a(S'w'
I12
tp162
a(S'p2_vo'
I15
tp163
a(S'w'
I3
tp164
a(S'p1_vo'
I15
tp165
a(S'w'
I718
tp166
a(S'p2_vo'
I14
tp167
a(S'w'
I3
tp168
a(S'p1_vo'
I14
tp169
a(S'w'
I725
tp170
a(S'p2_vo'
I13
tp171
a(S'w'
I3
tp172
a(S'p1_vo'
I13
tp173
a(S'w'
I737
tp174
a(S'p2_vo'
I12
tp175
a(S'w'
I3
tp176
a(S'p1_vo'
I12
tp177
a(S'w'
I1464
tp178
a(S'p2_vo'
I11
tp179
a(S'w'
I4
tp180
a(S'p1_vo'
I11
tp181
a(S'w'
I1464
tp182
a(S'p2_vo'
I10
tp183
a(S'w'
I3
tp184
a(S'p1_vo'
I10
tp185
a(S'w'
I2192
tp186
a(S'p2_vo'
I9
tp187
a(S'w'
I4
tp188
a(S'p1_vo'
I9
tp189
a(S'w'
I2204
tp190
a(S'p2_vo'
I8
tp191
a(S'w'
I3
tp192
a(S'p1_vo'
I8
tp193
a(S'w'
I1462
tp194
a(S'p2_tl'
I104
tp195
a(S'w'
I1
tp196
a(S'p2_ll'
I0
tp197
a(S'w'
I6
tp198
a(S'p1_tl'
I214
tp199
a(S'w'
I2
tp200
a(S'p1_ll'
I0
tp201
a(S'w'
I6
tp202
a(S'p2_vo'
I15
tp203
a(S'w'
I3
tp204
a(S'p1_vo'
I15
tp205
a(S'w'
I718
tp206
a(S'p2_vo'
I14
tp207
a(S'w'
I3
tp208
a(S'p1_vo'
I14
tp209
a(S'w'
I725
tp210
a(S'p2_vo'
I13
tp211
a(S'w'
I3
tp212
a(S'p1_vo'
I13
tp213
a(S'w'
I737
tp214
a(S'p2_vo'
I12
tp215
a(S'w'
I3
tp216
a(S'p1_vo'
I12
tp217
a(S'w'
I1464
tp218
a(S'p2_vo'
I11
tp219
a(S'w'
I4
tp220
a(S'p1_vo'
I11
tp221
a(S'w'
I1464
tp222
a(S'p2_vo'
I10
tp223
a(S'w'
I3
tp224
a(S'p1_vo'
I10
tp225
a(S'w'
I2193
tp226
a(S'p2_vo'
I9
tp227
a(S'w'
I3
tp228
a(S'p1_vo'
I9
tp229
a(S'w'
I2204
tp230
a(S'p2_vo'
I8
tp231
a(S'w'
I3
tp232
a(S'p1_vo'
I8
tp233
a(S'w'
I2190
tp234
a(S'p2_tl'
I125
tp235
a(S'w'
I1
tp236
a(S'p2_ll'
I0
tp237
a(S'w'
I8
tp238
a(S'p1_tl'
I240
tp239
a(S'w'
I2
tp240
a(S'p1_ll'
I0
tp241
a(S'w'
I6
tp242
a(S'p2_vo'
I15
tp243
a(S'w'
I3
tp244
a(S'p1_vo'
I15
tp245
a(S'w'
I722
tp246
a(S'p2_vo'
I14
tp247
a(S'w'
I3
tp248
a(S'p1_vo'
I14
tp249
a(S'w'
I731
tp250
a(S'p2_vo'
I13
tp251
a(S'w'
I3
tp252
a(S'p1_vo'
I13
tp253
a(S'w'
I725
tp254
a(S'p2_vo'
I12
tp255
a(S'w'
I3
tp256
a(S'p1_vo'
I12
tp257
a(S'w'
I1464
tp258
a(S'p2_vo'
I11
tp259
a(S'w'
I4
tp260
a(S'p1_vo'
I11
tp261
a(S'w'
I1464
tp262
a(S'p2_vo'
I10
tp263
a(S'w'
I3
tp264
a(S'p1_vo'
I10
tp265
a(S'w'
I2204
tp266
a(S'p2_vo'
I9
tp267
a(S'w'
I3
tp268
a(S'p1_vo'
I9
tp269
a(S'w'
I2193
tp270
a(S'p2_vo'
I8
tp271
a(S'w'
I3
tp272
a(S'p1_vo'
I8
tp273
a(S'w'
I2195
tp274
a(S'p2_tl'
I104
tp275
a(S'w'
I2
tp276
a(S'p2_ll'
I0
tp277
a(S'w'
I8
tp278
a(S'p1_tl'
I214
tp279
a(S'w'
I2
tp280
a(S'p1_ll'
I0
tp281
a(S'w'
I12
tp282
a(S'p2_vo'
I15
tp283
a(S'w'
I3
tp284
a(S'p1_vo'
I15
tp285
a(S'w'
I716
tp286
a(S'p2_vo'
I14
tp287
a(S'w'
I3
tp288
a(S'p1_vo'
I14
tp289
a(S'w'
I725
tp290
a(S'p2_vo'
I13
tp291
a(S'w'
I3
tp292
a(S'p1_vo'
I13
tp293
a(S'w'
I736
tp294
a(S'p2_vo'
I12
tp295
a(S'w'
I4
tp296
a(S'p1_vo'
I12
tp297
a(S'w'
I1464
tp298
a(S'p2_vo'
I11
tp299
a(S'w'
I3
tp300
a(S'p1_vo'
I11
tp301
a(S'w'
I1465
tp302
a(S'p2_vo'
I10
tp303
a(S'w'
I3
tp304
a(S'p1_vo'
I10
tp305
a(S'w'
I2192
tp306
a(S'p2_vo'
I9
tp307
a(S'w'
I3
tp308
a(S'p1_vo'
I9
tp309
a(S'w'
I2204
tp310
a(S'p2_vo'
I8
tp311
a(S'w'
I4
tp312
a(S'p1_vo'
I8
tp313
a(S'w'
I1461
tp314
a(S'p2_tl'
I64
tp315
a(S'w'
I2
tp316
a(S'p2_ll'
I0
tp317
a(S'w'
I6
tp318
a(S'p1_tl'
I190
tp319
a(S'w'
I1
tp320
a(S'p1_ll'
I0
tp321
a(S'w'
I7
tp322
a(S'p2_vo'
I15
tp323
a(S'w'
I3
tp324
a(S'p1_vo'
I15
tp325
a(S'w'
I712
tp326
a(S'p2_vo'
I14
tp327
a(S'w'
I3
tp328
a(S'p1_vo'
I14
tp329
a(S'w'
I737
tp330
a(S'p2_vo'
I13
tp331
a(S'w'
I3
tp332
a(S'p1_vo'
I13
tp333
a(S'w'
I730
tp334
a(S'p2_vo'
I12
tp335
a(S'w'
I4
tp336
a(S'p1_vo'
I12
tp337
a(S'w'
I1464
tp338
a(S'p2_vo'
I11
tp339
a(S'w'
I3
tp340
a(S'p1_vo'
I11
tp341
a(S'w'
I1465
tp342
a(S'p2_vo'
I10
tp343
a(S'w'
I3
tp344
a(S'p1_vo'
I10
tp345
a(S'w'
I2192
tp346
a(S'p2_vo'
I9
tp347
a(S'w'
I3
tp348
a(S'p1_vo'
I9
tp349
a(S'w'
I2204
tp350
a(S'p2_vo'
I8
tp351
a(S'w'
I4
tp352
a(S'p1_vo'
I8
tp353
a(S'w'
I2191
tp354
a(S'tr_ll'
I1
tp355
a(S'w'
I5
tp356
a(S'p2_tl'
I104
tp357
a(S'w'
I2
tp358
a(S'p2_ll'
I0
tp359
a(S'w'
I6
tp360
a(S'p1_tl'
I214
tp361
a(S'w'
I1
tp362
a(S'p1_ll'
I0
tp363
a(S'w'
I6
tp364
a(S'p2_vo'
I15
tp365
a(S'w'
I4
tp366
a(S'p1_vo'
I15
tp367
a(S'w'
I717
tp368
a(S'p2_vo'
I14
tp369
a(S'w'
I3
tp370
a(S'p1_vo'
I14
tp371
a(S'w'
I730
tp372
a(S'p2_vo'
I13
tp373
a(S'w'
I4
tp374
a(S'p1_vo'
I13
tp375
a(S'w'
I724
tp376
a(S'p2_vo'
I12
tp377
a(S'w'
I4
tp378
a(S'p1_vo'
I12
tp379
a(S'w'
I1464
tp380
a(S'p2_vo'
I11
tp381
a(S'w'
I3
tp382
a(S'p1_vo'
I11
tp383
a(S'w'
I1465
tp384
a(S'p2_vo'
I10
tp385
a(S'w'
I3
tp386
a(S'p1_vo'
I10
tp387
a(S'w'
I2204
tp388
a(S'p2_vo'
I9
tp389
a(S'w'
I3
tp390
a(S'p1_vo'
I9
tp391
a(S'w'
I2192
tp392
a(S'p2_vo'
I8
tp393
a(S'w'
I4
tp394
a(S'p1_vo'
I8
tp395
a(S'w'
I2195
tp396
a(S'p2_tl'
I125
tp397
a(S'w'
I1
tp398
a(S'p2_ll'
I0
tp399
a(S'w'
I9
tp400
a(S'p1_tl'
I240
tp401
a(S'w'
I1
tp402
a(S'p1_ll'
I0
tp403
a(S'w'
I12
tp404
a(S'p2_vo'
I15
tp405
a(S'w'
I3
tp406
a(S'p1_vo'
I15
tp407
a(S'w'
I711
tp408
a(S'p2_vo'
I14
tp409
a(S'w'
I3
tp410
a(S'p1_vo'
I14
tp411
a(S'w'
I736
tp412
a(S'p2_vo'
I13
tp413
a(S'w'
I4
tp414
a(S'p1_vo'
I13
tp415
a(S'w'
I730
tp416
a(S'p2_vo'
I12
tp417
a(S'w'
I3
tp418
a(S'p1_vo'
I12
tp419
a(S'w'
I1465
tp420
a(S'p2_vo'
I11
tp421
a(S'w'
I3
tp422
a(S'p1_vo'
I11
tp423
a(S'w'
I1464
tp424
a(S'p2_vo'
I10
tp425
a(S'w'
I3
tp426
a(S'p1_vo'
I10
tp427
a(S'w'
I2193
tp428
a(S'p2_vo'
I9
tp429
a(S'w'
I3
tp430
a(S'p1_vo'
I9
tp431
a(S'w'
I2204
tp432
a(S'p2_vo'
I8
tp433
a(S'w'
I3
tp434
a(S'p1_vo'
I8
tp435
a(S'w'
I1463
tp436
a(S'p2_tl'
I104
tp437
a(S'w'
I2
tp438
a(S'p2_ll'
I0
tp439
a(S'w'
I10
tp440
a(S'p1_tl'
I214
tp441
a(S'w'
I1
tp442
a(S'p1_ll'
I0
tp443
a(S'w'
I6
tp444
a(S'p2_vo'
I15
tp445
a(S'w'
I4
tp446
a(S'p1_vo'
I15
tp447
a(S'w'
I707
tp448
a(S'p2_vo'
I14
tp449
a(S'w'
I3
tp450
a(S'p1_vo'
I14
tp451
a(S'w'
I736
tp452
a(S'p2_vo'
I13
tp453
a(S'w'
I4
tp454
a(S'p1_vo'
I13
tp455
a(S'w'
I730
tp456
a(S'p2_vo'
I12
tp457
a(S'w'
I3
tp458
a(S'p1_vo'
I12
tp459
a(S'w'
I1465
tp460
a(S'p2_vo'
I11
tp461
a(S'w'
I3
tp462
a(S'p1_vo'
I11
tp463
a(S'w'
I1464
tp464
a(S'p2_vo'
I10
tp465
a(S'w'
I4
tp466
a(S'p1_vo'
I10
tp467
a(S'w'
I2192
tp468
a(S'p2_vo'
I9
tp469
a(S'w'
I3
tp470
a(S'p1_vo'
I9
tp471
a(S'w'
I2204
tp472
a(S'p2_vo'
I8
tp473
a(S'w'
I3
tp474
a(S'p1_vo'
I8
tp475
a(S'w'
I2932
tp476
a(S'p2_vo'
I9
tp477
a(S'w'
I4
tp478
a(S'p1_vo'
I9
tp479
a(S'w'
I724
tp480
a(S'p2_vo'
I10
tp481
a(S'w'
I3
tp482
a(S'p1_vo'
I10
tp483
a(S'w'
I737
tp484
a(S'p2_vo'
I11
tp485
a(S'w'
I3
tp486
a(S'p1_vo'
I11
tp487
a(S'w'
I731
tp488
a(S'p2_vo'
I12
tp489
a(S'w'
I3
tp490
a(S'p1_vo'
I12
tp491
a(S'w'
I1464
tp492
a(S'p2_vo'
I11
tp493
a(S'w'
I4
tp494
a(S'p1_vo'
I11
tp495
a(S'w'
I724
tp496
a(S'p2_vo'
I10
tp497
a(S'w'
I3
tp498
a(S'p1_vo'
I10
tp499
a(S'w'
I737
tp500
a(S'p2_vo'
I9
tp501
a(S'w'
I3
tp502
a(S'p1_vo'
I9
tp503
a(S'w'
I725
tp504
a(S'p2_vo'
I8
tp505
a(S'w'
I4
tp506
a(S'p1_vo'
I8
tp507
a(S'w'
I2931
tp508
a(S'p2_vo'
I9
tp509
a(S'w'
I3
tp510
a(S'p1_vo'
I9
tp511
a(S'w'
I737
tp512
a(S'p2_vo'
I10
tp513
a(S'w'
I3
tp514
a(S'p1_vo'
I10
tp515
a(S'w'
I725
tp516
a(S'p2_vo'
I11
tp517
a(S'w'
I3
tp518
a(S'p1_vo'
I11
tp519
a(S'w'
I725
tp520
a(S'tr_lh'
I0
tp521
a(S'tr_lr'
I0
tp522
a(S'w'
I5
tp523
a(S'p2_du'
I0
tp524
a(S'p2_vo'
I0
tp525
a(S'w'
I5
tp526
a(S'p1_du'
I0
tp527
a(S'p1_vo'
I0
tp528
a(S'w'
I280
tp529
a.