(lp1
(S'clock'
p2
I1789772
tp3
a(S'p1_du'
I2
tp4
a(S'p1_vo'
I2
tp5
a(S'p1_sp'
I7
tp6
a(S'p1_sn'
I1
tp7
a(S'p1_tl'
I28
tp8
a(S'p1_ll'
I25
tp9
a(S'p2_du'
I2
tp10
a(S'p2_cv'
I1
tp11
a(S'p2_vo'
I15
tp12
a(S'p2_sp'
I7
tp13
a(S'p2_sn'
I1
tp14
a(S'p2_tl'
I127
tp15
a(S'p2_ll'
I25
tp16
a(S'tr_lr'
I19
tp17
a(S'tr_tl'
I18
tp18
a(S'tr_ll'
I1
tp19
a(S'no_vo'
I1
tp20
a(S'no_np'
I9
tp21
a(S'no_ll'
I1
tp22
a(S'ch_no'
I1
tp23
a(S'ch_tr'
I1
tp24
a(S'ch_p2'
I1
tp25
a(S'ch_p1'
I1
tp26
a(S'fc_mo'
I1
tp27
a(S'ch_no'
I0
tp28
a(S'ch_tr'
I0
tp29
a(S'ch_p2'
I0
tp30
a(S'ch_p1'
I0
tp31
a(S'w'
I487
tp32
a(S'ch_no'
I0
tp33
a(S'ch_tr'
I0
tp34
a(S'ch_p2'
I0
tp35
a(S'ch_p1'
I1
tp36
a(S'w'
I1
tp37
a(S'p1_du'
I3
tp38
a(S'w'
I1
tp39
a(S'p1_tl'
I207
tp40
a(S'p1_ll'
I6
tp41
a(S'p1_th'
I2
tp42
a(S'w'
I2935
tp43
a(S'p1_tl'
I59
tp44
a(S'p1_ll'
I6
tp45
a(S'w'
I2935
tp46
a(S'p1_tl'
I197
tp47
a(S'w'
I1
tp48
a(S'p1_ll'
I6
tp49
a(S'p1_th'
I1
tp50
a(S'w'
I2933
tp51
a(S'ch_no'
I0
tp52
a(S'ch_tr'
I0
tp53
a(S'ch_p2'
I1
tp54
a(S'ch_p1'
I1
tp55
a(S'w'
I1
tp56
a(S'p1_tl'
I103
tp57
a(S'w'
I1
tp58
a(S'p1_ll'
I6
tp59
a(S'w'
I1
tp60
a(S'p2_cv'
I0
tp61
a(S'p2_vo'
I2
tp62
a(S'p2_tl'
I59
tp63
a(S'w'
I1
tp64
a(S'p2_ll'
I6
tp65
a(S'p2_th'
I2
tp66
a(S'w'
I2932
tp67
a(S'p1_tl'
I29
tp68
a(S'w'
I1
tp69
a(S'p1_ll'
I6
tp70
a(S'w'
I2
tp71
a(S'p2_tl'
I197
tp72
a(S'p2_ll'
I6
tp73
a(S'p2_th'
I1
tp74
a(S'w'
I2933
tp75
a(S'p1_tl'
I226
tp76
a(S'p1_ll'
I6
tp77
a(S'p1_th'
I0
tp78
a(S'w'
I2
tp79
a(S'p2_tl'
I103
tp80
a(S'p2_ll'
I6
tp81
a(S'w'
I2933
tp82
a(S'p1_tl'
I179
tp83
a(S'p1_ll'
I6
tp84
a(S'w'
I2
tp85
a(S'p2_tl'
I29
tp86
a(S'p2_ll'
I6
tp87
a(S'w'
I2933
tp88
a(S'p1_tl'
I142
tp89
a(S'w'
I1
tp90
a(S'p1_ll'
I6
tp91
a(S'w'
I1
tp92
a(S'p2_tl'
I226
tp93
a(S'w'
I1
tp94
a(S'p2_ll'
I6
tp95
a(S'p2_th'
I0
tp96
a(S'w'
I2932
tp97
a(S'p1_tl'
I113
tp98
a(S'w'
I1
tp99
a(S'p1_ll'
I6
tp100
a(S'w'
I1
tp101
a(S'p2_tl'
I179
tp102
a(S'w'
I1
tp103
a(S'p2_ll'
I6
tp104
a(S'w'
I2933
tp105
a(S'p1_tl'
I89
tp106
a(S'p1_ll'
I6
tp107
a(S'w'
I2
tp108
a(S'p2_tl'
I142
tp109
a(S'p2_ll'
I6
tp110
a(S'w'
I2933
tp111
a(S'p1_tl'
I71
tp112
a(S'p1_ll'
I6
tp113
a(S'w'
I2
tp114
a(S'p2_tl'
I113
tp115
a(S'p2_ll'
I6
tp116
a(S'w'
I2933
tp117
a(S'p1_tl'
I56
tp118
a(S'p1_ll'
I6
tp119
a(S'w'
I2
tp120
a(S'p2_tl'
I89
tp121
a(S'w'
I1
tp122
a(S'p2_ll'
I6
tp123
a(S'w'
I2932
tp124
a(S'p1_tl'
I44
tp125
a(S'w'
I1
tp126
a(S'p1_ll'
I6
tp127
a(S'w'
I1
tp128
a(S'p2_tl'
I71
tp129
a(S'w'
I1
tp130
a(S'p2_ll'
I6
tp131
a(S'w'
I13204
tp132
a(S'ch_no'
I0
tp133
a(S'ch_tr'
I0
tp134
a(S'ch_p2'
I0
tp135
a(S'ch_p1'
I0
tp136
a(S'w'
I1
tp137
a.