(lp1
(S'clock'
p2
I1789772
tp3
a(S'p1_du'
I3
tp4
a(S'p1_vo'
I4
tp5
a(S'p1_sp'
I7
tp6
a(S'p1_sn'
I1
tp7
a(S'p1_tl'
I35
tp8
a(S'p1_ll'
I6
tp9
a(S'p2_du'
I2
tp10
a(S'p2_vo'
I4
tp11
a(S'p2_sp'
I7
tp12
a(S'p2_sn'
I1
tp13
a(S'p2_tl'
I23
tp14
a(S'p2_ll'
I6
tp15
a(S'tr_lr'
I127
tp16
a(S'tr_tl'
I8
tp17
a(S'tr_ll'
I1
tp18
a(S'no_vo'
I6
tp19
a(S'no_np'
I11
tp20
a(S'no_ll'
I20
tp21
a(S'ch_no'
I0
tp22
a(S'ch_tr'
I0
tp23
a(S'ch_p2'
I0
tp24
a(S'ch_p1'
I0
tp25
a(S'fc_mo'
I1
tp26
a(S'ch_no'
I0
tp27
a(S'ch_tr'
I1
tp28
a(S'ch_p2'
I1
tp29
a(S'ch_p1'
I1
tp30
a(S'p1_du'
I2
tp31
a(S'w'
I1
tp32
a(S'p1_tl'
I30
tp33
a(S'w'
I1
tp34
a(S'p1_ll'
I4
tp35
a(S'w'
I1
tp36
a(S'p2_vo'
I1
tp37
a(S'p2_tl'
I35
tp38
a(S'w'
I1
tp39
a(S'p2_ll'
I17
tp40
a(S'w'
I1
tp41
a(S'tr_lr'
I29
tp42
a(S'w'
I1
tp43
a(S'tr_tl'
I11
tp44
a(S'tr_ll'
I1
tp45
a(S'w'
I4400
tp46
a(S'p2_tl'
I44
tp47
a(S'p2_ll'
I17
tp48
a(S'w'
I4403
tp49
a(S'p2_tl'
I50
tp50
a(S'p2_ll'
I17
tp51
a(S'w'
I4403
tp52
a(S'p2_tl'
I71
tp53
a(S'p2_ll'
I17
tp54
a(S'w'
I4401
tp55
a(S'p1_tl'
I44
tp56
a(S'p1_ll'
I4
tp57
a(S'w'
I2
tp58
a(S'p2_tl'
I80
tp59
a(S'p2_ll'
I17
tp60
a(S'w'
I2
tp61
a(S'tr_tl'
I15
tp62
a(S'tr_ll'
I1
tp63
a(S'w'
I4400
tp64
a(S'p2_tl'
I100
tp65
a(S'w'
I1
tp66
a(S'p2_ll'
I17
tp67
a(S'w'
I4402
tp68
a(S'p2_tl'
I120
tp69
a(S'p2_ll'
I17
tp70
a(S'w'
I4403
tp71
a(S'p2_tl'
I142
tp72
a(S'p2_ll'
I17
tp73
a(S'w'
I4401
tp74
a(S'p1_tl'
I30
tp75
a(S'p1_ll'
I4
tp76
a(S'w'
I2
tp77
a(S'p2_tl'
I35
tp78
a(S'p2_ll'
I17
tp79
a(S'w'
I2
tp80
a(S'tr_tl'
I11
tp81
a(S'w'
I1
tp82
a(S'tr_ll'
I1
tp83
a(S'w'
I4399
tp84
a(S'p2_tl'
I44
tp85
a(S'w'
I1
tp86
a(S'p2_ll'
I17
tp87
a(S'w'
I4402
tp88
a(S'p2_tl'
I50
tp89
a(S'w'
I1
tp90
a(S'p2_ll'
I17
tp91
a(S'w'
I4402
tp92
a(S'p2_tl'
I71
tp93
a(S'w'
I1
tp94
a(S'p2_ll'
I17
tp95
a(S'w'
I4400
tp96
a(S'p1_tl'
I44
tp97
a(S'w'
I1
tp98
a(S'p1_ll'
I4
tp99
a(S'w'
I1
tp100
a(S'p2_tl'
I80
tp101
a(S'w'
I1
tp102
a(S'p2_ll'
I17
tp103
a(S'w'
I1
tp104
a(S'tr_tl'
I15
tp105
a(S'w'
I1
tp106
a(S'tr_ll'
I1
tp107
a(S'w'
I4400
tp108
a(S'p2_tl'
I100
tp109
a(S'p2_ll'
I17
tp110
a(S'w'
I4403
tp111
a(S'p2_tl'
I120
tp112
a(S'p2_ll'
I17
tp113
a(S'w'
I4402
tp114
a(S'p2_tl'
I142
tp115
a(S'w'
I1
tp116
a(S'p2_ll'
I17
tp117
a(S'w'
I4400
tp118
a(S'p1_tl'
I33
tp119
a(S'w'
I1
tp120
a(S'p1_ll'
I4
tp121
a(S'w'
I2
tp122
a(S'p2_tl'
I33
tp123
a(S'p2_ll'
I17
tp124
a(S'w'
I2
tp125
a(S'tr_tl'
I12
tp126
a(S'tr_ll'
I1
tp127
a(S'w'
I4400
tp128
a(S'p2_tl'
I42
tp129
a(S'p2_ll'
I17
tp130
a(S'w'
I4403
tp131
a(S'p2_tl'
I47
tp132
a(S'p2_ll'
I17
tp133
a(S'w'
I4402
tp134
a(S'p2_tl'
I67
tp135
a(S'w'
I1
tp136
a(S'p2_ll'
I17
tp137
a(S'w'
I4401
tp138
a(S'p1_tl'
I50
tp139
a(S'p1_ll'
I4
tp140
a(S'w'
I2
tp141
a(S'p2_tl'
I75
tp142
a(S'p2_ll'
I17
tp143
a(S'w'
I2
tp144
a(S'tr_tl'
I16
tp145
a(S'tr_ll'
I1
tp146
a(S'w'
I4400
tp147
a(S'p2_tl'
I95
tp148
a(S'w'
I1
tp149
a(S'p2_ll'
I17
tp150
a(S'w'
I4402
tp151
a(S'p2_tl'
I113
tp152
a(S'p2_ll'
I17
tp153
a(S'w'
I4403
tp154
a(S'p2_tl'
I134
tp155
a(S'p2_ll'
I17
tp156
a(S'w'
I4401
tp157
a(S'p1_tl'
I33
tp158
a(S'p1_ll'
I4
tp159
a(S'w'
I2
tp160
a(S'p2_tl'
I33
tp161
a(S'p2_ll'
I17
tp162
a(S'w'
I2
tp163
a(S'tr_tl'
I12
tp164
a(S'w'
I1
tp165
a(S'tr_ll'
I1
tp166
a(S'w'
I4399
tp167
a(S'p2_tl'
I42
tp168
a(S'w'
I1
tp169
a(S'p2_ll'
I17
tp170
a(S'w'
I4402
tp171
a(S'p2_tl'
I47
tp172
a(S'w'
I1
tp173
a(S'p2_ll'
I17
tp174
a(S'w'
I4402
tp175
a(S'p2_tl'
I67
tp176
a(S'p2_ll'
I17
tp177
a(S'w'
I4401
tp178
a(S'p1_tl'
I50
tp179
a(S'w'
I1
tp180
a(S'p1_ll'
I4
tp181
a(S'w'
I1
tp182
a(S'p2_tl'
I75
tp183
a(S'w'
I1
tp184
a(S'p2_ll'
I17
tp185
a(S'w'
I1
tp186
a(S'tr_tl'
I16
tp187
a(S'w'
I1
tp188
a(S'tr_ll'
I1
tp189
a(S'w'
I4400
tp190
a(S'p2_tl'
I95
tp191
a(S'p2_ll'
I17
tp192
a(S'w'
I4402
tp193
a(S'p2_tl'
I113
tp194
a(S'w'
I1
tp195
a(S'p2_ll'
I17
tp196
a(S'w'
I4402
tp197
a(S'p2_tl'
I134
tp198
a(S'w'
I1
tp199
a(S'p2_ll'
I17
tp200
a(S'w'
I4400
tp201
a(S'p1_tl'
I30
tp202
a(S'w'
I1
tp203
a(S'p1_ll'
I4
tp204
a(S'w'
I1
tp205
a(S'p2_tl'
I35
tp206
a(S'w'
I1
tp207
a(S'p2_ll'
I17
tp208
a(S'w'
I2
tp209
a(S'tr_tl'
I11
tp210
a(S'tr_ll'
I1
tp211
a(S'w'
I4400
tp212
a(S'p2_tl'
I44
tp213
a(S'p2_ll'
I17
tp214
a(S'w'
I4403
tp215
a(S'p2_tl'
I50
tp216
a(S'p2_ll'
I17
tp217
a(S'w'
I4402
tp218
a(S'p2_tl'
I71
tp219
a(S'w'
I1
tp220
a(S'p2_ll'
I17
tp221
a(S'w'
I4401
tp222
a(S'p1_tl'
I44
tp223
a(S'p1_ll'
I4
tp224
a(S'w'
I2
tp225
a(S'p2_tl'
I80
tp226
a(S'p2_ll'
I17
tp227
a(S'w'
I2
tp228
a(S'tr_tl'
I15
tp229
a(S'tr_ll'
I1
tp230
a(S'w'
I4400
tp231
a(S'p2_tl'
I100
tp232
a(S'p2_ll'
I17
tp233
a(S'w'
I4403
tp234
a(S'p2_tl'
I120
tp235
a(S'p2_ll'
I17
tp236
a(S'w'
I4403
tp237
a(S'p2_tl'
I142
tp238
a(S'p2_ll'
I17
tp239
a(S'w'
I4401
tp240
a(S'p1_tl'
I30
tp241
a(S'p1_ll'
I4
tp242
a(S'w'
I2
tp243
a(S'p2_tl'
I35
tp244
a(S'p2_ll'
I17
tp245
a(S'w'
I2
tp246
a(S'tr_tl'
I11
tp247
a(S'w'
I1
tp248
a(S'tr_ll'
I1
tp249
a(S'w'
I4399
tp250
a(S'p2_tl'
I44
tp251
a(S'w'
I1
tp252
a(S'p2_ll'
I17
tp253
a(S'w'
I4402
tp254
a(S'p2_tl'
I50
tp255
a(S'w'
I1
tp256
a(S'p2_ll'
I17
tp257
a(S'w'
I4402
tp258
a(S'p2_tl'
I71
tp259
a(S'p2_ll'
I17
tp260
a(S'w'
I4401
tp261
a(S'p1_tl'
I44
tp262
a(S'p1_ll'
I4
tp263
a(S'w'
I2
tp264
a(S'p2_tl'
I80
tp265
a(S'w'
I1
tp266
a(S'p2_ll'
I17
tp267
a(S'w'
I1
tp268
a(S'tr_tl'
I15
tp269
a(S'w'
I1
tp270
a(S'tr_ll'
I1
tp271
a(S'w'
I4400
tp272
a(S'p2_tl'
I100
tp273
a(S'p2_ll'
I17
tp274
a(S'w'
I4402
tp275
a(S'p2_tl'
I120
tp276
a(S'w'
I1
tp277
a(S'p2_ll'
I17
tp278
a(S'w'
I4402
tp279
a(S'p2_tl'
I142
tp280
a(S'w'
I1
tp281
a(S'p2_ll'
I17
tp282
a(S'w'
I4400
tp283
a(S'p1_tl'
I33
tp284
a(S'w'
I1
tp285
a(S'p1_ll'
I4
tp286
a(S'w'
I1
tp287
a(S'p2_tl'
I33
tp288
a(S'w'
I1
tp289
a(S'p2_ll'
I17
tp290
a(S'w'
I1
tp291
a(S'tr_tl'
I12
tp292
a(S'w'
I1
tp293
a(S'tr_ll'
I1
tp294
a(S'w'
I4400
tp295
a(S'p2_tl'
I42
tp296
a(S'p2_ll'
I17
tp297
a(S'w'
I4403
tp298
a(S'p2_tl'
I47
tp299
a(S'p2_ll'
I17
tp300
a(S'w'
I4402
tp301
a(S'p2_tl'
I67
tp302
a(S'w'
I1
tp303
a(S'p2_ll'
I17
tp304
a(S'w'
I4400
tp305
a(S'p1_tl'
I50
tp306
a(S'w'
I1
tp307
a(S'p1_ll'
I4
tp308
a(S'w'
I2
tp309
a(S'p2_tl'
I75
tp310
a(S'p2_ll'
I17
tp311
a(S'w'
I2
tp312
a(S'tr_tl'
I16
tp313
a(S'tr_ll'
I1
tp314
a(S'w'
I4400
tp315
a(S'p2_tl'
I95
tp316
a(S'p2_ll'
I17
tp317
a(S'w'
I4403
tp318
a(S'p2_tl'
I113
tp319
a(S'p2_ll'
I17
tp320
a(S'w'
I4403
tp321
a(S'p2_tl'
I134
tp322
a(S'p2_ll'
I17
tp323
a(S'w'
I4401
tp324
a(S'p1_tl'
I33
tp325
a(S'p1_ll'
I4
tp326
a(S'w'
I2
tp327
a(S'p2_tl'
I33
tp328
a(S'p2_ll'
I17
tp329
a(S'w'
I2
tp330
a(S'tr_tl'
I12
tp331
a(S'tr_ll'
I1
tp332
a(S'w'
I4400
tp333
a(S'p2_tl'
I42
tp334
a(S'w'
I1
tp335
a(S'p2_ll'
I17
tp336
a(S'w'
I4402
tp337
a(S'p2_tl'
I47
tp338
a(S'p2_ll'
I17
tp339
a(S'w'
I4403
tp340
a(S'p2_tl'
I67
tp341
a(S'p2_ll'
I17
tp342
a(S'w'
I4401
tp343
a(S'p1_tl'
I50
tp344
a(S'p1_ll'
I4
tp345
a(S'w'
I2
tp346
a(S'p2_tl'
I75
tp347
a(S'p2_ll'
I17
tp348
a(S'w'
I2
tp349
a(S'tr_tl'
I16
tp350
a(S'w'
I1
tp351
a(S'tr_ll'
I1
tp352
a(S'w'
I4399
tp353
a(S'p2_tl'
I95
tp354
a(S'w'
I1
tp355
a(S'p2_ll'
I17
tp356
a(S'w'
I4402
tp357
a(S'p2_tl'
I113
tp358
a(S'w'
I1
tp359
a(S'p2_ll'
I17
tp360
a(S'w'
I4402
tp361
a(S'p2_tl'
I134
tp362
a(S'w'
I1
tp363
a(S'p2_ll'
I17
tp364
a(S'w'
I4399
tp365
a(S'ch_no'
I0
tp366
a(S'ch_tr'
I0
tp367
a(S'ch_p2'
I0
tp368
a(S'ch_p1'
I0
tp369
a(S'w'
I1
tp370
a.