(lp1
(S'clock'
p2
I1789773
tp3
a(S'p1_du'
I2
tp4
a(S'p1_lh'
I1
tp5
a(S'p1_cv'
I1
tp6
a(S'p1_vo'
I7
tp7
a(S'p1_tl'
I142
tp8
a(S'p1_ll'
I0
tp9
a(S'p2_lh'
I1
tp10
a(S'p2_cv'
I1
tp11
a(S'p2_sn'
I1
tp12
a(S'p2_tl'
I169
tp13
a(S'p2_ll'
I0
tp14
a(S'tr_lr'
I48
tp15
a(S'no_lh'
I1
tp16
a(S'no_cv'
I1
tp17
a(S'ch_no'
I1
tp18
a(S'ch_tr'
I1
tp19
a(S'ch_p2'
I1
tp20
a(S'ch_p1'
I1
tp21
a(S'w'
I3
tp22
a(S'p2_du'
I2
tp23
a(S'p2_vo'
I6
tp24
a(S'p2_sn'
I0
tp25
a(S'w'
I21280
tp26
a(S'no_np'
I3
tp27
a(S'no_ll'
I1
tp28
a(S'w'
I733
tp29
a(S'no_lh'
I0
tp30
a(S'no_cv'
I0
tp31
a(S'no_vo'
I1
tp32
a(S'w'
I5138
tp33
a(S'no_lh'
I1
tp34
a(S'no_cv'
I1
tp35
a(S'no_vo'
I0
tp36
a(S'no_ll'
I1
tp37
a(S'w'
I732
tp38
a(S'no_lh'
I0
tp39
a(S'no_cv'
I0
tp40
a(S'no_vo'
I1
tp41
a(S'w'
I4403
tp42
a(S'no_lh'
I1
tp43
a(S'no_cv'
I1
tp44
a(S'no_vo'
I0
tp45
a(S'w'
I1
tp46
a(S'no_ll'
I1
tp47
a(S'w'
I733
tp48
a(S'no_lh'
I0
tp49
a(S'no_cv'
I0
tp50
a(S'no_vo'
I1
tp51
a(S'w'
I5137
tp52
a(S'no_lh'
I1
tp53
a(S'no_cv'
I1
tp54
a(S'no_vo'
I0
tp55
a(S'no_ll'
I1
tp56
a(S'w'
I733
tp57
a(S'no_lh'
I0
tp58
a(S'no_cv'
I0
tp59
a(S'no_vo'
I1
tp60
a(S'w'
I4403
tp61
a(S'p2_du'
I0
tp62
a(S'p2_vo'
I0
tp63
a(S'w'
I1
tp64
a(S'p2_sn'
I1
tp65
a(S'p2_tl'
I142
tp66
a(S'p2_ll'
I0
tp67
a(S'w'
I8
tp68
a(S'tr_tl'
I171
tp69
a(S'tr_ll'
I0
tp70
a(S'tr_th'
I1
tp71
a(S'w'
I5
tp72
a(S'no_lh'
I1
tp73
a(S'no_cv'
I1
tp74
a(S'no_vo'
I0
tp75
a(S'w'
I1
tp76
a(S'no_ll'
I1
tp77
a(S'w'
I716
tp78
a(S'p2_du'
I2
tp79
a(S'p2_vo'
I6
tp80
a(S'w'
I1
tp81
a(S'p2_sn'
I0
tp82
a(S'w'
I4
tp83
a(S'tr_lh'
I1
tp84
a(S'tr_lr'
I40
tp85
a(S'w'
I5
tp86
a(S'no_lh'
I0
tp87
a(S'no_cv'
I0
tp88
a(S'no_vo'
I1
tp89
a(S'w'
I5130
tp90
a(S'no_lh'
I1
tp91
a(S'no_cv'
I1
tp92
a(S'no_vo'
I0
tp93
a(S'no_ll'
I1
tp94
a(S'w'
I733
tp95
a(S'no_lh'
I0
tp96
a(S'no_cv'
I0
tp97
a(S'no_vo'
I1
tp98
a(S'w'
I4403
tp99
a(S'no_lh'
I1
tp100
a(S'no_cv'
I1
tp101
a(S'no_vo'
I0
tp102
a(S'w'
I1
tp103
a(S'no_ll'
I1
tp104
a(S'w'
I733
tp105
a(S'no_lh'
I0
tp106
a(S'no_cv'
I0
tp107
a(S'no_vo'
I1
tp108
a(S'w'
I5137
tp109
a(S'no_lh'
I1
tp110
a(S'no_cv'
I1
tp111
a(S'no_vo'
I0
tp112
a(S'no_ll'
I1
tp113
a(S'w'
I733
tp114
a(S'no_lh'
I0
tp115
a(S'no_cv'
I0
tp116
a(S'no_vo'
I1
tp117
a(S'w'
I4402
tp118
a(S'p1_du'
I0
tp119
a(S'p1_vo'
I0
tp120
a(S'p1_sn'
I1
tp121
a(S'p1_tl'
I169
tp122
a(S'p1_ll'
I0
tp123
a(S'w'
I9
tp124
a(S'no_lh'
I1
tp125
a(S'no_cv'
I1
tp126
a(S'no_vo'
I0
tp127
a(S'w'
I722
tp128
a(S'p1_du'
I2
tp129
a(S'p1_vo'
I7
tp130
a(S'p1_sn'
I0
tp131
a(S'w'
I21283
tp132
a(S'p1_du'
I0
tp133
a(S'p1_vo'
I0
tp134
a(S'p1_sn'
I1
tp135
a(S'p1_tl'
I160
tp136
a(S'p1_ll'
I0
tp137
a(S'w'
I8
tp138
a(S'p2_du'
I0
tp139
a(S'p2_vo'
I0
tp140
a(S'w'
I1
tp141
a(S'p2_sn'
I1
tp142
a(S'p2_tl'
I134
tp143
a(S'p2_ll'
I0
tp144
a(S'w'
I8
tp145
a(S'tr_lh'
I0
tp146
a(S'tr_lr'
I48
tp147
a(S'tr_tl'
I147
tp148
a(S'tr_ll'
I0
tp149
a(S'w'
I713
tp150
a(S'p1_du'
I2
tp151
a(S'p1_vo'
I7
tp152
a(S'p1_sn'
I0
tp153
a(S'w'
I5
tp154
a(S'p2_du'
I2
tp155
a(S'p2_vo'
I6
tp156
a(S'p2_sn'
I0
tp157
a(S'w'
I5
tp158
a(S'tr_lh'
I1
tp159
a(S'tr_lr'
I40
tp160
a(S'w'
I21275
tp161
a(S'no_ll'
I1
tp162
a(S'w'
I733
tp163
a(S'no_lh'
I0
tp164
a(S'no_cv'
I0
tp165
a(S'no_vo'
I1
tp166
a(S'w'
I5138
tp167
a(S'no_lh'
I1
tp168
a(S'no_cv'
I1
tp169
a(S'no_vo'
I0
tp170
a(S'no_ll'
I1
tp171
a(S'w'
I732
tp172
a(S'no_lh'
I0
tp173
a(S'no_cv'
I0
tp174
a(S'no_vo'
I1
tp175
a(S'w'
I4403
tp176
a(S'no_lh'
I1
tp177
a(S'no_cv'
I1
tp178
a(S'no_vo'
I0
tp179
a(S'w'
I1
tp180
a(S'no_ll'
I1
tp181
a(S'w'
I733
tp182
a(S'no_lh'
I0
tp183
a(S'no_cv'
I0
tp184
a(S'no_vo'
I1
tp185
a(S'w'
I5137
tp186
a(S'no_lh'
I1
tp187
a(S'no_cv'
I1
tp188
a(S'no_vo'
I0
tp189
a(S'no_ll'
I1
tp190
a(S'w'
I733
tp191
a(S'no_lh'
I0
tp192
a(S'no_cv'
I0
tp193
a(S'no_vo'
I1
tp194
a(S'w'
I4403
tp195
a(S'no_lh'
I1
tp196
a(S'no_cv'
I1
tp197
a(S'no_vo'
I0
tp198
a(S'w'
I1
tp199
a(S'no_ll'
I1
tp200
a(S'w'
I733
tp201
a(S'no_lh'
I0
tp202
a(S'no_cv'
I0
tp203
a(S'no_vo'
I1
tp204
a(S'w'
I5137
tp205
a(S'no_lh'
I1
tp206
a(S'no_cv'
I1
tp207
a(S'no_vo'
I0
tp208
a(S'no_ll'
I1
tp209
a(S'w'
I733
tp210
a(S'no_lh'
I0
tp211
a(S'no_cv'
I0
tp212
a(S'no_vo'
I1
tp213
a(S'w'
I4403
tp214
a(S'no_lh'
I1
tp215
a(S'no_cv'
I1
tp216
a(S'no_vo'
I0
tp217
a(S'w'
I1
tp218
a(S'no_ll'
I1
tp219
a(S'w'
I733
tp220
a(S'no_lh'
I0
tp221
a(S'no_cv'
I0
tp222
a(S'no_vo'
I1
tp223
a(S'w'
I5137
tp224
a(S'no_lh'
I1
tp225
a(S'no_cv'
I1
tp226
a(S'no_vo'
I0
tp227
a(S'no_ll'
I1
tp228
a(S'w'
I733
tp229
a(S'no_lh'
I0
tp230
a(S'no_cv'
I0
tp231
a(S'no_vo'
I1
tp232
a(S'w'
I4402
tp233
a(S'p1_du'
I0
tp234
a(S'p1_vo'
I0
tp235
a(S'p1_sn'
I1
tp236
a(S'p1_tl'
I190
tp237
a(S'p1_ll'
I0
tp238
a(S'w'
I9
tp239
a(S'no_lh'
I1
tp240
a(S'no_cv'
I1
tp241
a(S'no_vo'
I0
tp242
a(S'w'
I722
tp243
a(S'p1_du'
I2
tp244
a(S'p1_vo'
I7
tp245
a(S'p1_sn'
I0
tp246
a(S'w'
I5139
tp247
a(S'p1_du'
I0
tp248
a(S'p1_vo'
I0
tp249
a(S'p1_sn'
I1
tp250
a(S'p1_tl'
I169
tp251
a(S'p1_ll'
I0
tp252
a(S'w'
I731
tp253
a(S'p1_du'
I2
tp254
a(S'p1_vo'
I7
tp255
a(S'p1_sn'
I0
tp256
a(S'w'
I4406
tp257
a(S'p1_du'
I0
tp258
a(S'p1_vo'
I0
tp259
a(S'p1_sn'
I1
tp260
a(S'p1_tl'
I142
tp261
a(S'p1_ll'
I0
tp262
a(S'w'
I730
tp263
a(S'p1_du'
I2
tp264
a(S'p1_vo'
I7
tp265
a(S'p1_sn'
I0
tp266
a(S'w'
I5140
tp267
a(S'p1_du'
I0
tp268
a(S'p1_vo'
I0
tp269
a(S'p1_sn'
I1
tp270
a(S'p1_tl'
I127
tp271
a(S'p1_ll'
I0
tp272
a(S'w'
I731
tp273
a(S'p1_du'
I2
tp274
a(S'p1_vo'
I7
tp275
a(S'p1_sn'
I0
tp276
a(S'w'
I4406
tp277
a(S'p1_du'
I0
tp278
a(S'p1_vo'
I0
tp279
a(S'p1_sn'
I1
tp280
a(S'p1_tl'
I112
tp281
a(S'p1_ll'
I0
tp282
a(S'w'
I6
tp283
a(S'p2_du'
I0
tp284
a(S'p2_vo'
I0
tp285
a(S'w'
I5
tp286
a(S'tr_lh'
I0
tp287
a(S'tr_lr'
I48
tp288
a(S'w'
I6
tp289
a(S'no_ll'
I1
tp290
a(S'w'
I713
tp291
a(S'p1_du'
I2
tp292
a(S'p1_vo'
I7
tp293
a(S'p1_sn'
I0
tp294
a(S'w'
I8
tp295
a(S'no_lh'
I0
tp296
a(S'no_cv'
I0
tp297
a(S'no_vo'
I1
tp298
a(S'w'
I5134
tp299
a(S'no_lh'
I1
tp300
a(S'no_cv'
I1
tp301
a(S'no_vo'
I0
tp302
a(S'no_ll'
I1
tp303
a(S'w'
I733
tp304
a(S'no_lh'
I0
tp305
a(S'no_cv'
I0
tp306
a(S'no_vo'
I1
tp307
a(S'w'
I4402
tp308
a(S'no_lh'
I1
tp309
a(S'no_cv'
I1
tp310
a(S'no_vo'
I0
tp311
a(S'w'
I1
tp312
a(S'no_ll'
I1
tp313
a(S'w'
I733
tp314
a(S'no_lh'
I0
tp315
a(S'no_cv'
I0
tp316
a(S'no_vo'
I1
tp317
a(S'w'
I5136
tp318
a(S'p1_du'
I0
tp319
a(S'p1_vo'
I0
tp320
a(S'p1_sn'
I1
tp321
a(S'p1_tl'
I127
tp322
a(S'p1_ll'
I0
tp323
a(S'w'
I9
tp324
a(S'no_lh'
I1
tp325
a(S'no_cv'
I1
tp326
a(S'no_vo'
I0
tp327
a(S'no_ll'
I1
tp328
a(S'w'
I722
tp329
a(S'p1_du'
I2
tp330
a(S'p1_vo'
I7
tp331
a(S'p1_sn'
I0
tp332
a(S'w'
I8
tp333
a(S'no_lh'
I0
tp334
a(S'no_cv'
I0
tp335
a(S'no_vo'
I1
tp336
a(S'w'
I4397
tp337
a(S'p1_du'
I0
tp338
a(S'p1_vo'
I0
tp339
a(S'p1_sn'
I1
tp340
a(S'p1_ll'
I0
tp341
a(S'w'
I9
tp342
a(S'no_lh'
I1
tp343
a(S'no_cv'
I1
tp344
a(S'no_vo'
I0
tp345
a(S'no_ll'
I1
tp346
a(S'w'
I722
tp347
a(S'p1_du'
I2
tp348
a(S'p1_vo'
I7
tp349
a(S'p1_sn'
I0
tp350
a(S'w'
I8
tp351
a(S'no_lh'
I0
tp352
a(S'no_cv'
I0
tp353
a(S'no_vo'
I1
tp354
a(S'w'
I5134
tp355
a(S'no_lh'
I1
tp356
a(S'no_cv'
I1
tp357
a(S'no_vo'
I0
tp358
a(S'w'
I5136
tp359
a(S'p2_sn'
I1
tp360
a(S'p2_tl'
I160
tp361
a(S'p2_ll'
I0
tp362
a(S'w'
I8
tp363
a(S'tr_tl'
I125
tp364
a(S'tr_ll'
I0
tp365
a(S'w'
I6
tp366
a(S'no_ll'
I1
tp367
a(S'w'
I716
tp368
a(S'p2_du'
I2
tp369
a(S'p2_vo'
I6
tp370
a(S'w'
I1
tp371
a(S'p2_sn'
I0
tp372
a(S'w'
I4
tp373
a(S'tr_lh'
I1
tp374
a(S'tr_lr'
I40
tp375
a(S'w'
I5
tp376
a(S'no_lh'
I0
tp377
a(S'no_cv'
I0
tp378
a(S'no_vo'
I1
tp379
a(S'w'
I5130
tp380
a(S'no_lh'
I1
tp381
a(S'no_cv'
I1
tp382
a(S'no_vo'
I0
tp383
a(S'w'
I5136
tp384
a(S'p2_du'
I0
tp385
a(S'p2_vo'
I0
tp386
a(S'w'
I1
tp387
a(S'p2_sn'
I1
tp388
a(S'p2_ll'
I0
tp389
a(S'w'
I8
tp390
a(S'tr_lh'
I0
tp391
a(S'tr_lr'
I48
tp392
a(S'tr_ll'
I0
tp393
a(S'w'
I6
tp394
a(S'no_np'
I2
tp395
a(S'no_ll'
I1
tp396
a(S'w'
I716
tp397
a(S'p2_du'
I2
tp398
a(S'p2_vo'
I6
tp399
a(S'w'
I1
tp400
a(S'p2_sn'
I0
tp401
a(S'w'
I4
tp402
a(S'tr_lh'
I1
tp403
a(S'tr_lr'
I40
tp404
a(S'w'
I5
tp405
a(S'no_lh'
I0
tp406
a(S'no_cv'
I0
tp407
a(S'no_vo'
I1
tp408
a(S'w'
I21272
tp409
a(S'p1_du'
I0
tp410
a(S'p1_vo'
I0
tp411
a(S'p1_sn'
I1
tp412
a(S'p1_tl'
I190
tp413
a(S'p1_ll'
I0
tp414
a(S'w'
I9
tp415
a(S'no_lh'
I1
tp416
a(S'no_cv'
I1
tp417
a(S'no_vo'
I0
tp418
a(S'w'
I722
tp419
a(S'p1_du'
I2
tp420
a(S'p1_vo'
I7
tp421
a(S'p1_sn'
I0
tp422
a(S'w'
I5139
tp423
a(S'p1_du'
I0
tp424
a(S'p1_vo'
I0
tp425
a(S'p1_sn'
I1
tp426
a(S'p1_tl'
I169
tp427
a(S'p1_ll'
I0
tp428
a(S'w'
I731
tp429
a(S'p1_du'
I2
tp430
a(S'p1_vo'
I7
tp431
a(S'p1_sn'
I0
tp432
a(S'w'
I4406
tp433
a(S'p1_du'
I0
tp434
a(S'p1_vo'
I0
tp435
a(S'p1_sn'
I1
tp436
a(S'p1_tl'
I142
tp437
a(S'p1_ll'
I0
tp438
a(S'w'
I730
tp439
a(S'p1_du'
I2
tp440
a(S'p1_vo'
I7
tp441
a(S'p1_sn'
I0
tp442
a(S'w'
I5140
tp443
a(S'p1_du'
I0
tp444
a(S'p1_vo'
I0
tp445
a(S'p1_sn'
I1
tp446
a(S'p1_tl'
I127
tp447
a(S'p1_ll'
I0
tp448
a(S'w'
I731
tp449
a(S'p1_du'
I2
tp450
a(S'p1_vo'
I7
tp451
a(S'p1_sn'
I0
tp452
a(S'w'
I4406
tp453
a(S'p1_du'
I0
tp454
a(S'p1_vo'
I0
tp455
a(S'p1_sn'
I1
tp456
a(S'p1_tl'
I112
tp457
a(S'p1_ll'
I0
tp458
a(S'w'
I6
tp459
a(S'p2_du'
I0
tp460
a(S'p2_vo'
I0
tp461
a(S'w'
I5
tp462
a(S'tr_lh'
I0
tp463
a(S'tr_lr'
I48
tp464
a(S'w'
I6
tp465
a(S'no_np'
I3
tp466
a(S'no_ll'
I1
tp467
a(S'w'
I713
tp468
a(S'p1_du'
I2
tp469
a(S'p1_vo'
I7
tp470
a(S'p1_sn'
I0
tp471
a(S'w'
I8
tp472
a(S'no_lh'
I0
tp473
a(S'no_cv'
I0
tp474
a(S'no_vo'
I1
tp475
a(S'w'
I5134
tp476
a(S'no_lh'
I1
tp477
a(S'no_cv'
I1
tp478
a(S'no_vo'
I0
tp479
a(S'no_ll'
I1
tp480
a(S'w'
I733
tp481
a(S'no_lh'
I0
tp482
a(S'no_cv'
I0
tp483
a(S'no_vo'
I1
tp484
a(S'w'
I4402
tp485
a(S'no_lh'
I1
tp486
a(S'no_cv'
I1
tp487
a(S'no_vo'
I0
tp488
a(S'w'
I1
tp489
a(S'no_ll'
I1
tp490
a(S'w'
I733
tp491
a(S'no_lh'
I0
tp492
a(S'no_cv'
I0
tp493
a(S'no_vo'
I1
tp494
a(S'w'
I5136
tp495
a(S'p1_du'
I0
tp496
a(S'p1_vo'
I0
tp497
a(S'p1_sn'
I1
tp498
a(S'p1_tl'
I127
tp499
a(S'p1_ll'
I0
tp500
a(S'w'
I9
tp501
a(S'no_lh'
I1
tp502
a(S'no_cv'
I1
tp503
a(S'no_vo'
I0
tp504
a(S'no_ll'
I1
tp505
a(S'w'
I722
tp506
a(S'p1_du'
I2
tp507
a(S'p1_vo'
I7
tp508
a(S'p1_sn'
I0
tp509
a(S'w'
I8
tp510
a(S'no_lh'
I0
tp511
a(S'no_cv'
I0
tp512
a(S'no_vo'
I1
tp513
a(S'w'
I4397
tp514
a(S'p1_du'
I0
tp515
a(S'p1_vo'
I0
tp516
a(S'p1_sn'
I1
tp517
a(S'p1_ll'
I0
tp518
a(S'w'
I9
tp519
a(S'no_lh'
I1
tp520
a(S'no_cv'
I1
tp521
a(S'no_vo'
I0
tp522
a(S'no_ll'
I1
tp523
a(S'w'
I722
tp524
a(S'p1_du'
I2
tp525
a(S'p1_vo'
I7
tp526
a(S'p1_sn'
I0
tp527
a(S'w'
I8
tp528
a(S'no_lh'
I0
tp529
a(S'no_cv'
I0
tp530
a(S'no_vo'
I1
tp531
a(S'w'
I5134
tp532
a(S'no_lh'
I1
tp533
a(S'no_cv'
I1
tp534
a(S'no_vo'
I0
tp535
a(S'w'
I5136
tp536
a(S'p2_sn'
I1
tp537
a(S'p2_tl'
I151
tp538
a(S'p2_ll'
I0
tp539
a(S'w'
I8
tp540
a(S'tr_tl'
I195
tp541
a(S'tr_ll'
I0
tp542
a(S'w'
I5
tp543
a(S'no_ll'
I1
tp544
a(S'w'
I717
tp545
a(S'p2_du'
I2
tp546
a(S'p2_vo'
I6
tp547
a(S'w'
I1
tp548
a(S'p2_sn'
I0
tp549
a(S'w'
I4
tp550
a(S'tr_lh'
I1
tp551
a(S'tr_lr'
I40
tp552
a(S'w'
I5
tp553
a(S'no_lh'
I0
tp554
a(S'no_cv'
I0
tp555
a(S'no_vo'
I1
tp556
a(S'w'
I5130
tp557
a(S'no_lh'
I1
tp558
a(S'no_cv'
I1
tp559
a(S'no_vo'
I0
tp560
a(S'w'
I5137
tp561
a(S'no_np'
I2
tp562
a(S'no_ll'
I1
tp563
a(S'w'
I733
tp564
a(S'no_lh'
I0
tp565
a(S'no_cv'
I0
tp566
a(S'no_vo'
I1
tp567
a(S'w'
I21279
tp568
a(S'p1_du'
I0
tp569
a(S'p1_vo'
I0
tp570
a(S'p1_sn'
I1
tp571
a(S'p1_tl'
I190
tp572
a(S'p1_ll'
I0
tp573
a(S'w'
I8
tp574
a(S'p2_du'
I0
tp575
a(S'p2_vo'
I0
tp576
a(S'w'
I1
tp577
a(S'p2_sn'
I1
tp578
a(S'p2_tl'
I169
tp579
a(S'p2_ll'
I0
tp580
a(S'w'
I7
tp581
a(S'tr_lh'
I0
tp582
a(S'tr_lr'
I48
tp583
a(S'w'
I1
tp584
a(S'tr_ll'
I0
tp585
a(S'w'
I5
tp586
a(S'no_lh'
I1
tp587
a(S'no_cv'
I1
tp588
a(S'no_vo'
I0
tp589
a(S'w'
I709
tp590
a(S'p1_du'
I2
tp591
a(S'p1_vo'
I7
tp592
a(S'p1_sn'
I0
tp593
a(S'w'
I5
tp594
a(S'p2_du'
I2
tp595
a(S'p2_vo'
I6
tp596
a(S'p2_sn'
I0
tp597
a(S'w'
I5
tp598
a(S'tr_lh'
I1
tp599
a(S'tr_lr'
I40
tp600
a(S'w'
I5129
tp601
a(S'p1_du'
I0
tp602
a(S'p1_vo'
I0
tp603
a(S'p1_sn'
I1
tp604
a(S'p1_tl'
I169
tp605
a(S'p1_ll'
I0
tp606
a(S'w'
I731
tp607
a(S'p1_du'
I2
tp608
a(S'p1_vo'
I7
tp609
a(S'p1_sn'
I0
tp610
a(S'w'
I4406
tp611
a(S'p1_du'
I0
tp612
a(S'p1_vo'
I0
tp613
a(S'p1_sn'
I1
tp614
a(S'p1_tl'
I142
tp615
a(S'p1_ll'
I0
tp616
a(S'w'
I8
tp617
a(S'p2_du'
I0
tp618
a(S'p2_vo'
I0
tp619
a(S'p2_sn'
I1
tp620
a(S'p2_tl'
I254
tp621
a(S'w'
I1
tp622
a(S'p2_ll'
I0
tp623
a(S'w'
I7
tp624
a(S'tr_lh'
I0
tp625
a(S'tr_lr'
I48
tp626
a(S'tr_tl'
I252
tp627
a(S'tr_ll'
I0
tp628
a(S'w'
I714
tp629
a(S'p1_du'
I2
tp630
a(S'p1_vo'
I7
tp631
a(S'p1_sn'
I0
tp632
a(S'w'
I5
tp633
a(S'p2_du'
I2
tp634
a(S'p2_vo'
I6
tp635
a(S'p2_sn'
I0
tp636
a(S'w'
I5
tp637
a(S'tr_lh'
I1
tp638
a(S'tr_lr'
I40
tp639
a(S'w'
I5130
tp640
a(S'p1_du'
I0
tp641
a(S'p1_vo'
I0
tp642
a(S'p1_sn'
I1
tp643
a(S'p1_tl'
I127
tp644
a(S'p1_ll'
I0
tp645
a(S'w'
I8
tp646
a(S'p2_du'
I0
tp647
a(S'p2_vo'
I0
tp648
a(S'p2_sn'
I1
tp649
a(S'w'
I1
tp650
a(S'p2_tl'
I241
tp651
a(S'p2_ll'
I0
tp652
a(S'w'
I7
tp653
a(S'tr_lh'
I0
tp654
a(S'tr_lr'
I48
tp655
a(S'w'
I1
tp656
a(S'tr_tl'
I226
tp657
a(S'tr_ll'
I0
tp658
a(S'w'
I714
tp659
a(S'p1_du'
I2
tp660
a(S'p1_vo'
I7
tp661
a(S'p1_sn'
I0
tp662
a(S'w'
I5
tp663
a(S'p2_du'
I2
tp664
a(S'p2_vo'
I6
tp665
a(S'p2_sn'
I0
tp666
a(S'w'
I5
tp667
a(S'tr_lh'
I1
tp668
a(S'tr_lr'
I40
tp669
a(S'w'
I4395
tp670
a(S'p1_du'
I0
tp671
a(S'p1_vo'
I0
tp672
a(S'p1_sn'
I1
tp673
a(S'p1_tl'
I112
tp674
a(S'p1_ll'
I0
tp675
a(S'w'
I8
tp676
a(S'p2_du'
I0
tp677
a(S'p2_vo'
I0
tp678
a(S'p2_sn'
I1
tp679
a(S'p2_tl'
I225
tp680
a(S'w'
I1
tp681
a(S'p2_ll'
I0
tp682
a(S'w'
I7
tp683
a(S'tr_lh'
I0
tp684
a(S'tr_lr'
I48
tp685
a(S'tr_tl'
I195
tp686
a(S'tr_ll'
I0
tp687
a(S'w'
I6
tp688
a(S'no_np'
I3
tp689
a(S'no_ll'
I1
tp690
a(S'w'
I709
tp691
a(S'p1_du'
I2
tp692
a(S'p1_vo'
I7
tp693
a(S'p1_sn'
I0
tp694
a(S'w'
I5
tp695
a(S'p2_du'
I2
tp696
a(S'p2_vo'
I6
tp697
a(S'p2_sn'
I0
tp698
a(S'w'
I5
tp699
a(S'tr_lh'
I1
tp700
a(S'tr_lr'
I40
tp701
a(S'w'
I5
tp702
a(S'no_lh'
I0
tp703
a(S'no_cv'
I0
tp704
a(S'no_vo'
I1
tp705
a(S'w'
I5127
tp706
a(S'no_lh'
I1
tp707
a(S'no_cv'
I1
tp708
a(S'no_vo'
I0
tp709
a(S'no_ll'
I1
tp710
a(S'w'
I733
tp711
a(S'no_lh'
I0
tp712
a(S'no_cv'
I0
tp713
a(S'no_vo'
I1
tp714
a(S'w'
I4402
tp715
a(S'no_lh'
I1
tp716
a(S'no_cv'
I1
tp717
a(S'no_vo'
I0
tp718
a(S'w'
I1
tp719
a(S'no_ll'
I1
tp720
a(S'w'
I733
tp721
a(S'no_lh'
I0
tp722
a(S'no_cv'
I0
tp723
a(S'no_vo'
I1
tp724
a(S'w'
I5136
tp725
a(S'p1_du'
I0
tp726
a(S'p1_vo'
I0
tp727
a(S'p1_sn'
I1
tp728
a(S'p1_tl'
I127
tp729
a(S'p1_ll'
I0
tp730
a(S'w'
I9
tp731
a(S'no_lh'
I1
tp732
a(S'no_cv'
I1
tp733
a(S'no_vo'
I0
tp734
a(S'no_ll'
I1
tp735
a(S'w'
I721
tp736
a(S'p1_du'
I2
tp737
a(S'p1_vo'
I7
tp738
a(S'p1_sn'
I0
tp739
a(S'w'
I8
tp740
a(S'no_lh'
I0
tp741
a(S'no_cv'
I0
tp742
a(S'no_vo'
I1
tp743
a(S'w'
I4398
tp744
a(S'p1_du'
I0
tp745
a(S'p1_vo'
I0
tp746
a(S'p1_sn'
I1
tp747
a(S'p1_ll'
I0
tp748
a(S'w'
I9
tp749
a(S'no_lh'
I1
tp750
a(S'no_cv'
I1
tp751
a(S'no_vo'
I0
tp752
a(S'no_ll'
I1
tp753
a(S'w'
I722
tp754
a(S'p1_du'
I2
tp755
a(S'p1_vo'
I7
tp756
a(S'p1_sn'
I0
tp757
a(S'w'
I8
tp758
a(S'no_lh'
I0
tp759
a(S'no_cv'
I0
tp760
a(S'no_vo'
I1
tp761
a(S'w'
I5134
tp762
a(S'no_lh'
I1
tp763
a(S'no_cv'
I1
tp764
a(S'no_vo'
I0
tp765
a(S'w'
I5135
tp766
a(S'p2_du'
I0
tp767
a(S'p2_vo'
I0
tp768
a(S'p2_sn'
I1
tp769
a(S'p2_tl'
I29
tp770
a(S'w'
I1
tp771
a(S'p2_ll'
I0
tp772
a(S'p2_th'
I1
tp773
a(S'w'
I7
tp774
a(S'tr_lh'
I0
tp775
a(S'tr_lr'
I48
tp776
a(S'tr_tl'
I58
tp777
a(S'tr_ll'
I0
tp778
a(S'tr_th'
I2
tp779
a(S'w'
I6
tp780
a(S'no_ll'
I1
tp781
a(S'w'
I717
tp782
a(S'p2_du'
I2
tp783
a(S'p2_vo'
I6
tp784
a(S'w'
I1
tp785
a(S'p2_sn'
I0
tp786
a(S'w'
I4
tp787
a(S'tr_lh'
I1
tp788
a(S'tr_lr'
I40
tp789
a(S'w'
I5
tp790
a(S'no_lh'
I0
tp791
a(S'no_cv'
I0
tp792
a(S'no_vo'
I1
tp793
a(S'w'
I5129
tp794
a(S'p2_du'
I0
tp795
a(S'p2_vo'
I0
tp796
a(S'p2_sn'
I1
tp797
a(S'p2_tl'
I64
tp798
a(S'w'
I1
tp799
a(S'p2_ll'
I0
tp800
a(S'w'
I7
tp801
a(S'tr_lh'
I0
tp802
a(S'tr_lr'
I48
tp803
a(S'tr_tl'
I128
tp804
a(S'w'
I1
tp805
a(S'tr_ll'
I0
tp806
a(S'w'
I5
tp807
a(S'no_lh'
I1
tp808
a(S'no_cv'
I1
tp809
a(S'no_vo'
I0
tp810
a(S'w'
I717
tp811
a(S'p2_du'
I2
tp812
a(S'p2_vo'
I6
tp813
a(S'w'
I1
tp814
a(S'p2_sn'
I0
tp815
a(S'w'
I4
tp816
a(S'tr_lh'
I1
tp817
a(S'tr_lr'
I40
tp818
a(S'w'
I4401
tp819
a(S'p2_du'
I0
tp820
a(S'p2_vo'
I0
tp821
a(S'p2_sn'
I1
tp822
a(S'p2_tl'
I83
tp823
a(S'w'
I1
tp824
a(S'p2_ll'
I0
tp825
a(S'w'
I7
tp826
a(S'tr_lh'
I0
tp827
a(S'tr_lr'
I48
tp828
a(S'tr_tl'
I167
tp829
a(S'tr_ll'
I0
tp830
a(S'w'
I6
tp831
a(S'no_np'
I2
tp832
a(S'no_ll'
I1
tp833
a(S'w'
I717
tp834
a(S'p2_du'
I2
tp835
a(S'p2_vo'
I6
tp836
a(S'w'
I1
tp837
a(S'p2_sn'
I0
tp838
a(S'w'
I4
tp839
a(S'tr_lh'
I1
tp840
a(S'tr_lr'
I40
tp841
a(S'w'
I5
tp842
a(S'no_lh'
I0
tp843
a(S'no_cv'
I0
tp844
a(S'no_vo'
I1
tp845
a(S'w'
I21269
tp846
a(S'p1_du'
I0
tp847
a(S'p1_vo'
I0
tp848
a(S'w'
I9
tp849
a(S'no_lh'
I1
tp850
a(S'no_cv'
I1
tp851
a(S'no_vo'
I0
tp852
a(S'w'
I11001
tp853
a(S'p1_sn'
I1
tp854
a(S'p1_tl'
I213
tp855
a(S'p1_ll'
I0
tp856
a(S'w'
I8
tp857
a(S'p2_du'
I0
tp858
a(S'p2_vo'
I0
tp859
a(S'w'
I1
tp860
a(S'p2_sn'
I1
tp861
a(S'p2_tl'
I213
tp862
a(S'p2_ll'
I0
tp863
a(S'p2_th'
I0
tp864
a(S'w'
I8
tp865
a(S'tr_lh'
I0
tp866
a(S'tr_lr'
I48
tp867
a(S'tr_tl'
I171
tp868
a(S'tr_ll'
I0
tp869
a(S'tr_th'
I1
tp870
a(S'w'
I713
tp871
a(S'p1_du'
I2
tp872
a(S'p1_vo'
I7
tp873
a(S'p1_sn'
I0
tp874
a(S'w'
I5
tp875
a(S'p2_du'
I2
tp876
a(S'p2_vo'
I6
tp877
a(S'p2_sn'
I0
tp878
a(S'w'
I5
tp879
a(S'tr_lh'
I1
tp880
a(S'tr_lr'
I40
tp881
a(S'w'
I5129
tp882
a(S'p1_du'
I0
tp883
a(S'p1_vo'
I0
tp884
a(S'w'
I1
tp885
a(S'p1_sn'
I1
tp886
a(S'p1_tl'
I225
tp887
a(S'p1_ll'
I0
tp888
a(S'w'
I8
tp889
a(S'p2_du'
I0
tp890
a(S'p2_vo'
I0
tp891
a(S'p2_sn'
I1
tp892
a(S'p2_tl'
I225
tp893
a(S'p2_ll'
I0
tp894
a(S'w'
I8
tp895
a(S'tr_lh'
I0
tp896
a(S'tr_lr'
I48
tp897
a(S'tr_tl'
I195
tp898
a(S'tr_ll'
I0
tp899
a(S'w'
I715
tp900
a(S'p1_du'
I2
tp901
a(S'p1_vo'
I7
tp902
a(S'p1_sn'
I0
tp903
a(S'w'
I5
tp904
a(S'p2_du'
I2
tp905
a(S'p2_vo'
I6
tp906
a(S'p2_sn'
I0
tp907
a(S'w'
I5
tp908
a(S'tr_lh'
I1
tp909
a(S'tr_lr'
I40
tp910
a(S'w'
I4394
tp911
a(S'p1_du'
I0
tp912
a(S'p1_vo'
I0
tp913
a(S'w'
I1
tp914
a(S'p1_sn'
I1
tp915
a(S'p1_tl'
I254
tp916
a(S'p1_ll'
I0
tp917
a(S'w'
I8
tp918
a(S'p2_du'
I0
tp919
a(S'p2_vo'
I0
tp920
a(S'p2_sn'
I1
tp921
a(S'p2_tl'
I254
tp922
a(S'p2_ll'
I0
tp923
a(S'w'
I8
tp924
a(S'tr_lh'
I0
tp925
a(S'tr_lr'
I48
tp926
a(S'tr_tl'
I252
tp927
a(S'tr_ll'
I0
tp928
a(S'w'
I715
tp929
a(S'p1_du'
I2
tp930
a(S'p1_vo'
I7
tp931
a(S'p1_sn'
I0
tp932
a(S'w'
I5
tp933
a(S'p2_du'
I2
tp934
a(S'p2_vo'
I6
tp935
a(S'p2_sn'
I0
tp936
a(S'w'
I5
tp937
a(S'tr_lh'
I1
tp938
a(S'tr_lr'
I40
tp939
a(S'w'
I21275
tp940
a(S'no_np'
I3
tp941
a(S'no_ll'
I1
tp942
a(S'w'
I733
tp943
a(S'no_lh'
I0
tp944
a(S'no_cv'
I0
tp945
a(S'no_vo'
I1
tp946
a(S'w'
I5138
tp947
a(S'no_lh'
I1
tp948
a(S'no_cv'
I1
tp949
a(S'no_vo'
I0
tp950
a(S'no_ll'
I1
tp951
a(S'w'
I732
tp952
a(S'no_lh'
I0
tp953
a(S'no_cv'
I0
tp954
a(S'no_vo'
I1
tp955
a(S'w'
I4403
tp956
a(S'no_lh'
I1
tp957
a(S'no_cv'
I1
tp958
a(S'no_vo'
I0
tp959
a(S'w'
I1
tp960
a(S'no_ll'
I1
tp961
a(S'w'
I733
tp962
a(S'no_lh'
I0
tp963
a(S'no_cv'
I0
tp964
a(S'no_vo'
I1
tp965
a(S'w'
I5137
tp966
a(S'no_lh'
I1
tp967
a(S'no_cv'
I1
tp968
a(S'no_vo'
I0
tp969
a(S'no_ll'
I1
tp970
a(S'w'
I733
tp971
a(S'no_lh'
I0
tp972
a(S'no_cv'
I0
tp973
a(S'no_vo'
I1
tp974
a(S'w'
I4403
tp975
a(S'no_lh'
I1
tp976
a(S'no_cv'
I1
tp977
a(S'no_vo'
I0
tp978
a(S'w'
I1
tp979
a(S'no_ll'
I1
tp980
a(S'w'
I733
tp981
a(S'no_lh'
I0
tp982
a(S'no_cv'
I0
tp983
a(S'no_vo'
I1
tp984
a(S'w'
I5137
tp985
a(S'no_lh'
I1
tp986
a(S'no_cv'
I1
tp987
a(S'no_vo'
I0
tp988
a(S'no_ll'
I1
tp989
a(S'w'
I733
tp990
a(S'no_lh'
I0
tp991
a(S'no_cv'
I0
tp992
a(S'no_vo'
I1
tp993
a(S'w'
I4403
tp994
a(S'no_lh'
I1
tp995
a(S'no_cv'
I1
tp996
a(S'no_vo'
I0
tp997
a(S'w'
I1
tp998
a(S'no_ll'
I1
tp999
a(S'w'
I733
tp1000
a(S'no_lh'
I0
tp1001
a(S'no_cv'
I0
tp1002
a(S'no_vo'
I1
tp1003
a(S'w'
I5137
tp1004
a(S'no_lh'
I1
tp1005
a(S'no_cv'
I1
tp1006
a(S'no_vo'
I0
tp1007
a(S'no_ll'
I1
tp1008
a(S'w'
I733
tp1009
a(S'no_lh'
I0
tp1010
a(S'no_cv'
I0
tp1011
a(S'no_vo'
I1
tp1012
a(S'w'
I4403
tp1013
a(S'no_lh'
I1
tp1014
a(S'no_cv'
I1
tp1015
a(S'no_vo'
I0
tp1016
a(S'w'
I1
tp1017
a(S'no_np'
I5
tp1018
a(S'no_ll'
I1
tp1019
a(S'w'
I733
tp1020
a(S'no_lh'
I0
tp1021
a(S'no_cv'
I0
tp1022
a(S'no_vo'
I1
tp1023
a(S'w'
I10273
tp1024
a(S'no_lh'
I1
tp1025
a(S'no_cv'
I1
tp1026
a(S'no_vo'
I0
tp1027
a(S'w'
I11002
tp1028
a(S'p1_du'
I0
tp1029
a(S'p1_vo'
I0
tp1030
a(S'w'
I5
tp1031
a(S'p2_du'
I0
tp1032
a(S'p2_vo'
I0
tp1033
a(S'w'
I4
tp1034
a(S'tr_lh'
I0
tp1035
a(S'tr_lr'
I48
tp1036
a(S'w'
I45162
tp1037
a.