(lp1
(S'clock'
p2
I1789773
tp3
a(S'p1_lh'
I1
tp4
a(S'p1_cv'
I1
tp5
a(S'p2_lh'
I1
tp6
a(S'p2_cv'
I1
tp7
a(S'tr_lr'
I48
tp8
a(S'tr_tl'
I250
tp9
a(S'tr_ll'
I0
tp10
a(S'tr_th'
I2
tp11
a(S'no_lh'
I1
tp12
a(S'no_cv'
I1
tp13
a(S'no_np'
I5
tp14
a(S'no_ll'
I1
tp15
a(S'ch_no'
I1
tp16
a(S'ch_tr'
I1
tp17
a(S'ch_p2'
I1
tp18
a(S'ch_p1'
I1
tp19
a(S'w'
I541
tp20
a(S'tr_lr'
I40
tp21
a(S'w'
I4
tp22
a(S'no_lh'
I0
tp23
a(S'no_cv'
I0
tp24
a(S'no_vo'
I1
tp25
a(S'w'
I3667
tp26
a(S'tr_lr'
I48
tp27
a(S'tr_tl'
I207
tp28
a(S'w'
I1
tp29
a(S'tr_ll'
I0
tp30
a(S'w'
I5
tp31
a(S'no_lh'
I1
tp32
a(S'no_cv'
I1
tp33
a(S'no_vo'
I0
tp34
a(S'no_ll'
I1
tp35
a(S'w'
I726
tp36
a(S'tr_lr'
I40
tp37
a(S'w'
I5
tp38
a(S'no_lh'
I0
tp39
a(S'no_cv'
I0
tp40
a(S'no_vo'
I1
tp41
a(S'w'
I3666
tp42
a(S'tr_lr'
I48
tp43
a(S'tr_tl'
I167
tp44
a(S'w'
I1
tp45
a(S'tr_ll'
I0
tp46
a(S'w'
I5
tp47
a(S'no_lh'
I1
tp48
a(S'no_cv'
I1
tp49
a(S'no_vo'
I0
tp50
a(S'no_ll'
I1
tp51
a(S'w'
I726
tp52
a(S'tr_lr'
I40
tp53
a(S'w'
I5
tp54
a(S'no_lh'
I0
tp55
a(S'no_cv'
I0
tp56
a(S'no_vo'
I1
tp57
a(S'w'
I3666
tp58
a(S'tr_lr'
I48
tp59
a(S'tr_tl'
I128
tp60
a(S'w'
I1
tp61
a(S'tr_ll'
I0
tp62
a(S'w'
I5
tp63
a(S'no_lh'
I1
tp64
a(S'no_cv'
I1
tp65
a(S'no_vo'
I0
tp66
a(S'no_ll'
I1
tp67
a(S'w'
I726
tp68
a(S'tr_lr'
I40
tp69
a(S'w'
I5
tp70
a(S'no_lh'
I0
tp71
a(S'no_cv'
I0
tp72
a(S'no_vo'
I1
tp73
a(S'w'
I3666
tp74
a(S'tr_lr'
I48
tp75
a(S'tr_tl'
I92
tp76
a(S'w'
I1
tp77
a(S'tr_ll'
I0
tp78
a(S'w'
I5
tp79
a(S'no_lh'
I1
tp80
a(S'no_cv'
I1
tp81
a(S'no_vo'
I0
tp82
a(S'no_ll'
I1
tp83
a(S'w'
I725
tp84
a(S'tr_lr'
I40
tp85
a(S'w'
I5
tp86
a(S'no_lh'
I0
tp87
a(S'no_cv'
I0
tp88
a(S'no_vo'
I1
tp89
a(S'w'
I3666
tp90
a(S'tr_lr'
I48
tp91
a(S'tr_tl'
I58
tp92
a(S'w'
I1
tp93
a(S'tr_ll'
I0
tp94
a(S'w'
I5
tp95
a(S'no_lh'
I1
tp96
a(S'no_cv'
I1
tp97
a(S'no_vo'
I0
tp98
a(S'no_ll'
I1
tp99
a(S'w'
I726
tp100
a(S'tr_lr'
I40
tp101
a(S'w'
I5
tp102
a(S'no_lh'
I0
tp103
a(S'no_cv'
I0
tp104
a(S'no_vo'
I1
tp105
a(S'w'
I3666
tp106
a(S'tr_lr'
I48
tp107
a(S'tr_tl'
I27
tp108
a(S'w'
I1
tp109
a(S'tr_ll'
I0
tp110
a(S'w'
I5
tp111
a(S'no_lh'
I1
tp112
a(S'no_cv'
I1
tp113
a(S'no_vo'
I0
tp114
a(S'no_ll'
I1
tp115
a(S'w'
I726
tp116
a(S'tr_lr'
I40
tp117
a(S'w'
I5
tp118
a(S'no_lh'
I0
tp119
a(S'no_cv'
I0
tp120
a(S'no_vo'
I1
tp121
a(S'w'
I3666
tp122
a(S'tr_lr'
I48
tp123
a(S'tr_tl'
I252
tp124
a(S'w'
I1
tp125
a(S'tr_ll'
I0
tp126
a(S'tr_th'
I1
tp127
a(S'w'
I5
tp128
a(S'no_lh'
I1
tp129
a(S'no_cv'
I1
tp130
a(S'no_vo'
I0
tp131
a(S'no_ll'
I1
tp132
a(S'w'
I726
tp133
a(S'tr_lr'
I40
tp134
a(S'w'
I5
tp135
a(S'no_lh'
I0
tp136
a(S'no_cv'
I0
tp137
a(S'no_vo'
I1
tp138
a(S'w'
I3666
tp139
a(S'tr_lr'
I48
tp140
a(S'tr_tl'
I226
tp141
a(S'w'
I1
tp142
a(S'tr_ll'
I0
tp143
a(S'w'
I5
tp144
a(S'no_lh'
I1
tp145
a(S'no_cv'
I1
tp146
a(S'no_vo'
I0
tp147
a(S'no_ll'
I1
tp148
a(S'w'
I725
tp149
a(S'tr_lr'
I40
tp150
a(S'w'
I5
tp151
a(S'no_lh'
I0
tp152
a(S'no_cv'
I0
tp153
a(S'no_vo'
I1
tp154
a(S'w'
I3666
tp155
a(S'tr_lr'
I48
tp156
a(S'tr_tl'
I195
tp157
a(S'w'
I1
tp158
a(S'tr_ll'
I0
tp159
a(S'w'
I5
tp160
a(S'no_lh'
I1
tp161
a(S'no_cv'
I1
tp162
a(S'no_vo'
I0
tp163
a(S'no_ll'
I1
tp164
a(S'w'
I726
tp165
a(S'tr_lr'
I40
tp166
a(S'w'
I5
tp167
a(S'no_lh'
I0
tp168
a(S'no_cv'
I0
tp169
a(S'no_vo'
I1
tp170
a(S'w'
I3666
tp171
a(S'tr_lr'
I48
tp172
a(S'w'
I1
tp173
a(S'tr_tl'
I171
tp174
a(S'tr_ll'
I0
tp175
a(S'w'
I5
tp176
a(S'no_lh'
I1
tp177
a(S'no_cv'
I1
tp178
a(S'no_vo'
I0
tp179
a(S'w'
I1
tp180
a(S'no_ll'
I1
tp181
a(S'w'
I725
tp182
a(S'tr_lr'
I40
tp183
a(S'w'
I5
tp184
a(S'no_lh'
I0
tp185
a(S'no_cv'
I0
tp186
a(S'no_vo'
I1
tp187
a(S'w'
I3666
tp188
a(S'tr_lr'
I48
tp189
a(S'w'
I1
tp190
a(S'tr_tl'
I147
tp191
a(S'tr_ll'
I0
tp192
a(S'w'
I5
tp193
a(S'no_lh'
I1
tp194
a(S'no_cv'
I1
tp195
a(S'no_vo'
I0
tp196
a(S'w'
I1
tp197
a(S'no_ll'
I1
tp198
a(S'w'
I725
tp199
a(S'tr_lr'
I40
tp200
a(S'w'
I5
tp201
a(S'no_lh'
I0
tp202
a(S'no_cv'
I0
tp203
a(S'no_vo'
I1
tp204
a(S'w'
I3666
tp205
a(S'tr_lr'
I48
tp206
a(S'w'
I1
tp207
a(S'tr_tl'
I125
tp208
a(S'tr_ll'
I0
tp209
a(S'w'
I5
tp210
a(S'no_lh'
I1
tp211
a(S'no_cv'
I1
tp212
a(S'no_vo'
I0
tp213
a(S'w'
I1
tp214
a(S'no_ll'
I1
tp215
a(S'w'
I724
tp216
a(S'tr_lr'
I40
tp217
a(S'w'
I5
tp218
a(S'no_lh'
I0
tp219
a(S'no_cv'
I0
tp220
a(S'no_vo'
I1
tp221
a(S'w'
I3666
tp222
a(S'tr_lr'
I48
tp223
a(S'w'
I1
tp224
a(S'tr_tl'
I103
tp225
a(S'tr_ll'
I0
tp226
a(S'w'
I5
tp227
a(S'no_lh'
I1
tp228
a(S'no_cv'
I1
tp229
a(S'no_vo'
I0
tp230
a(S'w'
I1
tp231
a(S'no_ll'
I1
tp232
a(S'w'
I725
tp233
a(S'tr_lr'
I40
tp234
a(S'w'
I5
tp235
a(S'no_lh'
I0
tp236
a(S'no_cv'
I0
tp237
a(S'no_vo'
I1
tp238
a(S'w'
I3666
tp239
a(S'tr_lr'
I48
tp240
a(S'w'
I1
tp241
a(S'tr_tl'
I83
tp242
a(S'tr_ll'
I0
tp243
a(S'w'
I5
tp244
a(S'no_lh'
I1
tp245
a(S'no_cv'
I1
tp246
a(S'no_vo'
I0
tp247
a(S'w'
I1
tp248
a(S'no_ll'
I1
tp249
a(S'w'
I725
tp250
a(S'tr_lr'
I40
tp251
a(S'w'
I5
tp252
a(S'no_lh'
I0
tp253
a(S'no_cv'
I0
tp254
a(S'no_vo'
I1
tp255
a(S'w'
I3666
tp256
a(S'tr_lr'
I48
tp257
a(S'w'
I1
tp258
a(S'tr_tl'
I64
tp259
a(S'tr_ll'
I0
tp260
a(S'w'
I5
tp261
a(S'no_lh'
I1
tp262
a(S'no_cv'
I1
tp263
a(S'no_vo'
I0
tp264
a(S'w'
I1
tp265
a(S'no_ll'
I1
tp266
a(S'w'
I725
tp267
a(S'tr_lr'
I40
tp268
a(S'w'
I4
tp269
a(S'no_lh'
I0
tp270
a(S'no_cv'
I0
tp271
a(S'no_vo'
I1
tp272
a(S'w'
I3665
tp273
a(S'p1_sn'
I1
tp274
a(S'p1_tl'
I106
tp275
a(S'w'
I1
tp276
a(S'p1_ll'
I0
tp277
a(S'w'
I8
tp278
a(S'p2_sn'
I1
tp279
a(S'p2_tl'
I151
tp280
a(S'p2_ll'
I0
tp281
a(S'w'
I8
tp282
a(S'tr_lr'
I48
tp283
a(S'tr_tl'
I46
tp284
a(S'w'
I1
tp285
a(S'tr_ll'
I0
tp286
a(S'w'
I5
tp287
a(S'no_lh'
I1
tp288
a(S'no_cv'
I1
tp289
a(S'no_vo'
I0
tp290
a(S'no_np'
I10
tp291
a(S'no_ll'
I1
tp292
a(S'w'
I707
tp293
a(S'p1_du'
I2
tp294
a(S'p1_vo'
I7
tp295
a(S'p1_sn'
I0
tp296
a(S'w'
I5
tp297
a(S'p2_du'
I2
tp298
a(S'p2_vo'
I6
tp299
a(S'p2_sn'
I0
tp300
a(S'w'
I5
tp301
a(S'tr_lr'
I40
tp302
a(S'w'
I5
tp303
a(S'no_lh'
I0
tp304
a(S'no_cv'
I0
tp305
a(S'no_vo'
I1
tp306
a(S'w'
I5125
tp307
a(S'p1_du'
I0
tp308
a(S'p1_vo'
I0
tp309
a(S'p1_sn'
I1
tp310
a(S'p1_tl'
I89
tp311
a(S'w'
I1
tp312
a(S'p1_ll'
I0
tp313
a(S'w'
I8
tp314
a(S'p2_du'
I0
tp315
a(S'p2_vo'
I0
tp316
a(S'p2_sn'
I1
tp317
a(S'p2_tl'
I127
tp318
a(S'p2_ll'
I0
tp319
a(S'w'
I7
tp320
a(S'no_lh'
I1
tp321
a(S'no_cv'
I1
tp322
a(S'no_vo'
I0
tp323
a(S'no_np'
I3
tp324
a(S'w'
I1
tp325
a(S'no_ll'
I1
tp326
a(S'w'
I714
tp327
a(S'p1_du'
I2
tp328
a(S'p1_vo'
I7
tp329
a(S'p1_sn'
I0
tp330
a(S'w'
I5
tp331
a(S'p2_du'
I2
tp332
a(S'p2_vo'
I6
tp333
a(S'p2_sn'
I0
tp334
a(S'w'
I6
tp335
a(S'no_lh'
I0
tp336
a(S'no_cv'
I0
tp337
a(S'no_vo'
I1
tp338
a(S'w'
I2194
tp339
a(S'no_lh'
I1
tp340
a(S'no_cv'
I1
tp341
a(S'no_vo'
I0
tp342
a(S'w'
I2934
tp343
a(S'p1_du'
I0
tp344
a(S'p1_vo'
I0
tp345
a(S'p1_sn'
I1
tp346
a(S'p1_tl'
I75
tp347
a(S'w'
I1
tp348
a(S'p1_ll'
I0
tp349
a(S'w'
I8
tp350
a(S'p2_du'
I0
tp351
a(S'p2_vo'
I0
tp352
a(S'p2_sn'
I1
tp353
a(S'w'
I1
tp354
a(S'p2_tl'
I106
tp355
a(S'p2_ll'
I0
tp356
a(S'w'
I7
tp357
a(S'no_ll'
I1
tp358
a(S'w'
I714
tp359
a(S'p1_du'
I2
tp360
a(S'p1_vo'
I7
tp361
a(S'p1_sn'
I0
tp362
a(S'w'
I5
tp363
a(S'p2_du'
I2
tp364
a(S'p2_vo'
I6
tp365
a(S'p2_sn'
I0
tp366
a(S'w'
I6
tp367
a(S'no_lh'
I0
tp368
a(S'no_cv'
I0
tp369
a(S'no_vo'
I1
tp370
a(S'w'
I2194
tp371
a(S'no_lh'
I1
tp372
a(S'no_cv'
I1
tp373
a(S'no_vo'
I0
tp374
a(S'w'
I2935
tp375
a(S'p1_du'
I0
tp376
a(S'p1_vo'
I0
tp377
a(S'p1_sn'
I1
tp378
a(S'p1_tl'
I89
tp379
a(S'w'
I1
tp380
a(S'p1_ll'
I0
tp381
a(S'w'
I8
tp382
a(S'p2_du'
I0
tp383
a(S'p2_vo'
I0
tp384
a(S'p2_sn'
I1
tp385
a(S'p2_tl'
I127
tp386
a(S'p2_ll'
I0
tp387
a(S'w'
I8
tp388
a(S'tr_lr'
I48
tp389
a(S'tr_tl'
I103
tp390
a(S'w'
I1
tp391
a(S'tr_ll'
I0
tp392
a(S'w'
I5
tp393
a(S'no_np'
I10
tp394
a(S'no_ll'
I1
tp395
a(S'w'
I707
tp396
a(S'p1_du'
I2
tp397
a(S'p1_vo'
I7
tp398
a(S'p1_sn'
I0
tp399
a(S'w'
I5
tp400
a(S'p2_du'
I2
tp401
a(S'p2_vo'
I6
tp402
a(S'p2_sn'
I0
tp403
a(S'w'
I5
tp404
a(S'tr_lr'
I40
tp405
a(S'w'
I5
tp406
a(S'no_lh'
I0
tp407
a(S'no_cv'
I0
tp408
a(S'no_vo'
I1
tp409
a(S'w'
I5125
tp410
a(S'p1_du'
I0
tp411
a(S'p1_vo'
I0
tp412
a(S'p1_sn'
I1
tp413
a(S'p1_tl'
I75
tp414
a(S'w'
I1
tp415
a(S'p1_ll'
I0
tp416
a(S'w'
I8
tp417
a(S'p2_du'
I0
tp418
a(S'p2_vo'
I0
tp419
a(S'p2_sn'
I1
tp420
a(S'w'
I1
tp421
a(S'p2_tl'
I106
tp422
a(S'p2_ll'
I0
tp423
a(S'w'
I7
tp424
a(S'no_lh'
I1
tp425
a(S'no_cv'
I1
tp426
a(S'no_vo'
I0
tp427
a(S'no_np'
I3
tp428
a(S'no_ll'
I1
tp429
a(S'w'
I714
tp430
a(S'p1_du'
I2
tp431
a(S'p1_vo'
I7
tp432
a(S'p1_sn'
I0
tp433
a(S'w'
I5
tp434
a(S'p2_du'
I2
tp435
a(S'p2_vo'
I6
tp436
a(S'p2_sn'
I0
tp437
a(S'w'
I6
tp438
a(S'no_lh'
I0
tp439
a(S'no_cv'
I0
tp440
a(S'no_vo'
I1
tp441
a(S'w'
I2194
tp442
a(S'no_lh'
I1
tp443
a(S'no_cv'
I1
tp444
a(S'no_vo'
I0
tp445
a(S'w'
I2934
tp446
a(S'p1_du'
I0
tp447
a(S'p1_vo'
I0
tp448
a(S'p1_sn'
I1
tp449
a(S'p1_tl'
I63
tp450
a(S'w'
I1
tp451
a(S'p1_ll'
I0
tp452
a(S'w'
I8
tp453
a(S'p2_du'
I0
tp454
a(S'p2_vo'
I0
tp455
a(S'p2_sn'
I1
tp456
a(S'w'
I1
tp457
a(S'p2_tl'
I89
tp458
a(S'p2_ll'
I0
tp459
a(S'w'
I7
tp460
a(S'no_ll'
I1
tp461
a(S'w'
I714
tp462
a(S'p1_du'
I2
tp463
a(S'p1_vo'
I7
tp464
a(S'p1_sn'
I0
tp465
a(S'w'
I5
tp466
a(S'p2_du'
I2
tp467
a(S'p2_vo'
I6
tp468
a(S'p2_sn'
I0
tp469
a(S'w'
I6
tp470
a(S'no_lh'
I0
tp471
a(S'no_cv'
I0
tp472
a(S'no_vo'
I1
tp473
a(S'w'
I2194
tp474
a(S'no_lh'
I1
tp475
a(S'no_cv'
I1
tp476
a(S'no_vo'
I0
tp477
a(S'w'
I2935
tp478
a(S'p1_du'
I0
tp479
a(S'p1_vo'
I0
tp480
a(S'p1_sn'
I1
tp481
a(S'p1_tl'
I75
tp482
a(S'w'
I1
tp483
a(S'p1_ll'
I0
tp484
a(S'w'
I8
tp485
a(S'p2_du'
I0
tp486
a(S'p2_vo'
I0
tp487
a(S'p2_sn'
I1
tp488
a(S'w'
I1
tp489
a(S'p2_tl'
I106
tp490
a(S'p2_ll'
I0
tp491
a(S'w'
I7
tp492
a(S'tr_lr'
I48
tp493
a(S'w'
I1
tp494
a(S'tr_tl'
I171
tp495
a(S'tr_ll'
I0
tp496
a(S'w'
I5
tp497
a(S'no_np'
I10
tp498
a(S'w'
I1
tp499
a(S'no_ll'
I1
tp500
a(S'w'
I706
tp501
a(S'p1_du'
I2
tp502
a(S'p1_vo'
I7
tp503
a(S'p1_sn'
I0
tp504
a(S'w'
I5
tp505
a(S'p2_du'
I2
tp506
a(S'p2_vo'
I6
tp507
a(S'p2_sn'
I0
tp508
a(S'w'
I5
tp509
a(S'tr_lr'
I40
tp510
a(S'w'
I5
tp511
a(S'no_lh'
I0
tp512
a(S'no_cv'
I0
tp513
a(S'no_vo'
I1
tp514
a(S'w'
I5125
tp515
a(S'p1_du'
I0
tp516
a(S'p1_vo'
I0
tp517
a(S'p1_sn'
I1
tp518
a(S'p1_tl'
I63
tp519
a(S'w'
I1
tp520
a(S'p1_ll'
I0
tp521
a(S'w'
I8
tp522
a(S'p2_du'
I0
tp523
a(S'p2_vo'
I0
tp524
a(S'p2_sn'
I1
tp525
a(S'w'
I1
tp526
a(S'p2_tl'
I89
tp527
a(S'p2_ll'
I0
tp528
a(S'w'
I7
tp529
a(S'no_lh'
I1
tp530
a(S'no_cv'
I1
tp531
a(S'no_vo'
I0
tp532
a(S'no_np'
I3
tp533
a(S'no_ll'
I1
tp534
a(S'w'
I714
tp535
a(S'p1_du'
I2
tp536
a(S'p1_vo'
I7
tp537
a(S'p1_sn'
I0
tp538
a(S'w'
I5
tp539
a(S'p2_du'
I2
tp540
a(S'p2_vo'
I6
tp541
a(S'p2_sn'
I0
tp542
a(S'w'
I6
tp543
a(S'no_lh'
I0
tp544
a(S'no_cv'
I0
tp545
a(S'no_vo'
I1
tp546
a(S'w'
I2194
tp547
a(S'no_lh'
I1
tp548
a(S'no_cv'
I1
tp549
a(S'no_vo'
I0
tp550
a(S'w'
I2934
tp551
a(S'p1_du'
I0
tp552
a(S'p1_vo'
I0
tp553
a(S'w'
I1
tp554
a(S'p1_sn'
I1
tp555
a(S'p1_tl'
I53
tp556
a(S'p1_ll'
I0
tp557
a(S'w'
I9
tp558
a(S'p2_du'
I0
tp559
a(S'p2_vo'
I0
tp560
a(S'p2_sn'
I1
tp561
a(S'p2_tl'
I75
tp562
a(S'p2_ll'
I0
tp563
a(S'w'
I7
tp564
a(S'no_ll'
I1
tp565
a(S'w'
I714
tp566
a(S'p1_du'
I2
tp567
a(S'p1_vo'
I7
tp568
a(S'p1_sn'
I0
tp569
a(S'w'
I5
tp570
a(S'p2_du'
I2
tp571
a(S'p2_vo'
I6
tp572
a(S'p2_sn'
I0
tp573
a(S'w'
I6
tp574
a(S'no_lh'
I0
tp575
a(S'no_cv'
I0
tp576
a(S'no_vo'
I1
tp577
a(S'w'
I2194
tp578
a(S'no_lh'
I1
tp579
a(S'no_cv'
I1
tp580
a(S'no_vo'
I0
tp581
a(S'w'
I2935
tp582
a(S'p1_du'
I0
tp583
a(S'p1_vo'
I0
tp584
a(S'p1_sn'
I1
tp585
a(S'p1_tl'
I63
tp586
a(S'w'
I1
tp587
a(S'p1_ll'
I0
tp588
a(S'w'
I8
tp589
a(S'p2_du'
I0
tp590
a(S'p2_vo'
I0
tp591
a(S'p2_sn'
I1
tp592
a(S'w'
I1
tp593
a(S'p2_tl'
I89
tp594
a(S'p2_ll'
I0
tp595
a(S'w'
I7
tp596
a(S'tr_lr'
I48
tp597
a(S'tr_tl'
I252
tp598
a(S'w'
I1
tp599
a(S'tr_ll'
I0
tp600
a(S'w'
I5
tp601
a(S'no_np'
I10
tp602
a(S'no_ll'
I1
tp603
a(S'w'
I707
tp604
a(S'p1_du'
I2
tp605
a(S'p1_vo'
I7
tp606
a(S'p1_sn'
I0
tp607
a(S'w'
I5
tp608
a(S'p2_du'
I2
tp609
a(S'p2_vo'
I6
tp610
a(S'p2_sn'
I0
tp611
a(S'w'
I5
tp612
a(S'tr_lr'
I40
tp613
a(S'w'
I5
tp614
a(S'no_lh'
I0
tp615
a(S'no_cv'
I0
tp616
a(S'no_vo'
I1
tp617
a(S'w'
I5125
tp618
a(S'p1_du'
I0
tp619
a(S'p1_vo'
I0
tp620
a(S'w'
I1
tp621
a(S'p1_sn'
I1
tp622
a(S'p1_tl'
I53
tp623
a(S'p1_ll'
I0
tp624
a(S'w'
I9
tp625
a(S'p2_du'
I0
tp626
a(S'p2_vo'
I0
tp627
a(S'p2_sn'
I1
tp628
a(S'p2_tl'
I75
tp629
a(S'p2_ll'
I0
tp630
a(S'w'
I7
tp631
a(S'no_lh'
I1
tp632
a(S'no_cv'
I1
tp633
a(S'no_vo'
I0
tp634
a(S'no_np'
I3
tp635
a(S'no_ll'
I1
tp636
a(S'w'
I714
tp637
a(S'p1_du'
I2
tp638
a(S'p1_vo'
I7
tp639
a(S'p1_sn'
I0
tp640
a(S'w'
I5
tp641
a(S'p2_du'
I2
tp642
a(S'p2_vo'
I6
tp643
a(S'p2_sn'
I0
tp644
a(S'w'
I6
tp645
a(S'no_lh'
I0
tp646
a(S'no_cv'
I0
tp647
a(S'no_vo'
I1
tp648
a(S'w'
I2194
tp649
a(S'no_lh'
I1
tp650
a(S'no_cv'
I1
tp651
a(S'no_vo'
I0
tp652
a(S'w'
I2934
tp653
a(S'p1_du'
I0
tp654
a(S'p1_vo'
I0
tp655
a(S'w'
I1
tp656
a(S'p1_sn'
I1
tp657
a(S'p1_tl'
I44
tp658
a(S'p1_ll'
I0
tp659
a(S'w'
I9
tp660
a(S'p2_du'
I0
tp661
a(S'p2_vo'
I0
tp662
a(S'p2_sn'
I1
tp663
a(S'p2_tl'
I63
tp664
a(S'p2_ll'
I0
tp665
a(S'w'
I7
tp666
a(S'no_ll'
I1
tp667
a(S'w'
I714
tp668
a(S'p1_du'
I2
tp669
a(S'p1_vo'
I7
tp670
a(S'p1_sn'
I0
tp671
a(S'w'
I5
tp672
a(S'p2_du'
I2
tp673
a(S'p2_vo'
I6
tp674
a(S'p2_sn'
I0
tp675
a(S'w'
I6
tp676
a(S'no_lh'
I0
tp677
a(S'no_cv'
I0
tp678
a(S'no_vo'
I1
tp679
a(S'w'
I2194
tp680
a(S'no_lh'
I1
tp681
a(S'no_cv'
I1
tp682
a(S'no_vo'
I0
tp683
a(S'w'
I2935
tp684
a(S'p1_du'
I0
tp685
a(S'p1_vo'
I0
tp686
a(S'w'
I1
tp687
a(S'p1_sn'
I1
tp688
a(S'p1_tl'
I42
tp689
a(S'p1_ll'
I0
tp690
a(S'w'
I9
tp691
a(S'p2_du'
I0
tp692
a(S'p2_vo'
I0
tp693
a(S'p2_sn'
I1
tp694
a(S'p2_tl'
I56
tp695
a(S'p2_ll'
I0
tp696
a(S'w'
I7
tp697
a(S'tr_lr'
I48
tp698
a(S'w'
I1
tp699
a(S'tr_tl'
I58
tp700
a(S'tr_ll'
I0
tp701
a(S'tr_th'
I2
tp702
a(S'w'
I5
tp703
a(S'no_np'
I5
tp704
a(S'w'
I1
tp705
a(S'no_ll'
I1
tp706
a(S'w'
I706
tp707
a(S'p1_du'
I2
tp708
a(S'p1_vo'
I7
tp709
a(S'p1_sn'
I0
tp710
a(S'w'
I5
tp711
a(S'p2_du'
I2
tp712
a(S'p2_vo'
I6
tp713
a(S'p2_sn'
I0
tp714
a(S'w'
I5
tp715
a(S'tr_lr'
I40
tp716
a(S'w'
I5
tp717
a(S'no_lh'
I0
tp718
a(S'no_cv'
I0
tp719
a(S'no_vo'
I1
tp720
a(S'w'
I3657
tp721
a(S'p1_du'
I0
tp722
a(S'p1_vo'
I0
tp723
a(S'w'
I1
tp724
a(S'p1_sn'
I1
tp725
a(S'p1_ll'
I0
tp726
a(S'w'
I9
tp727
a(S'p2_du'
I0
tp728
a(S'p2_vo'
I0
tp729
a(S'p2_sn'
I1
tp730
a(S'p2_ll'
I0
tp731
a(S'w'
I7
tp732
a(S'tr_lr'
I48
tp733
a(S'w'
I1
tp734
a(S'tr_ll'
I0
tp735
a(S'w'
I5
tp736
a(S'no_lh'
I1
tp737
a(S'no_cv'
I1
tp738
a(S'no_vo'
I0
tp739
a(S'w'
I1
tp740
a(S'no_ll'
I1
tp741
a(S'w'
I707
tp742
a(S'p1_du'
I2
tp743
a(S'p1_vo'
I7
tp744
a(S'p1_sn'
I0
tp745
a(S'w'
I5
tp746
a(S'p2_du'
I2
tp747
a(S'p2_vo'
I6
tp748
a(S'p2_sn'
I0
tp749
a(S'w'
I5
tp750
a(S'tr_lr'
I40
tp751
a(S'w'
I5
tp752
a(S'no_lh'
I0
tp753
a(S'no_cv'
I0
tp754
a(S'no_vo'
I1
tp755
a(S'w'
I3657
tp756
a(S'p1_du'
I0
tp757
a(S'p1_vo'
I0
tp758
a(S'w'
I1
tp759
a(S'p1_sn'
I1
tp760
a(S'p1_ll'
I0
tp761
a(S'w'
I9
tp762
a(S'p2_du'
I0
tp763
a(S'p2_vo'
I0
tp764
a(S'p2_sn'
I1
tp765
a(S'p2_ll'
I0
tp766
a(S'w'
I7
tp767
a(S'tr_lr'
I48
tp768
a(S'w'
I1
tp769
a(S'tr_ll'
I0
tp770
a(S'w'
I5
tp771
a(S'no_lh'
I1
tp772
a(S'no_cv'
I1
tp773
a(S'no_vo'
I0
tp774
a(S'w'
I1
tp775
a(S'no_ll'
I1
tp776
a(S'w'
I707
tp777
a(S'p1_du'
I2
tp778
a(S'p1_vo'
I7
tp779
a(S'p1_sn'
I0
tp780
a(S'w'
I5
tp781
a(S'p2_du'
I2
tp782
a(S'p2_vo'
I6
tp783
a(S'p2_sn'
I0
tp784
a(S'w'
I5
tp785
a(S'tr_lr'
I40
tp786
a(S'w'
I5
tp787
a(S'no_lh'
I0
tp788
a(S'no_cv'
I0
tp789
a(S'no_vo'
I1
tp790
a(S'w'
I3657
tp791
a(S'p1_du'
I0
tp792
a(S'p1_vo'
I0
tp793
a(S'w'
I1
tp794
a(S'p1_sn'
I1
tp795
a(S'p1_ll'
I0
tp796
a(S'w'
I9
tp797
a(S'p2_du'
I0
tp798
a(S'p2_vo'
I0
tp799
a(S'p2_sn'
I1
tp800
a(S'p2_ll'
I0
tp801
a(S'w'
I7
tp802
a(S'tr_lr'
I48
tp803
a(S'w'
I1
tp804
a(S'tr_ll'
I0
tp805
a(S'w'
I5
tp806
a(S'no_lh'
I1
tp807
a(S'no_cv'
I1
tp808
a(S'no_vo'
I0
tp809
a(S'w'
I1
tp810
a(S'no_ll'
I1
tp811
a(S'w'
I707
tp812
a(S'p1_du'
I2
tp813
a(S'p1_vo'
I7
tp814
a(S'p1_sn'
I0
tp815
a(S'w'
I5
tp816
a(S'p2_du'
I2
tp817
a(S'p2_vo'
I6
tp818
a(S'p2_sn'
I0
tp819
a(S'w'
I5
tp820
a(S'tr_lr'
I40
tp821
a(S'w'
I5
tp822
a(S'no_lh'
I0
tp823
a(S'no_cv'
I0
tp824
a(S'no_vo'
I1
tp825
a(S'w'
I3657
tp826
a(S'p1_du'
I0
tp827
a(S'p1_vo'
I0
tp828
a(S'w'
I1
tp829
a(S'p1_sn'
I1
tp830
a(S'p1_ll'
I0
tp831
a(S'w'
I9
tp832
a(S'p2_du'
I0
tp833
a(S'p2_vo'
I0
tp834
a(S'p2_sn'
I1
tp835
a(S'p2_ll'
I0
tp836
a(S'w'
I7
tp837
a(S'tr_lr'
I48
tp838
a(S'w'
I1
tp839
a(S'tr_ll'
I0
tp840
a(S'w'
I5
tp841
a(S'no_lh'
I1
tp842
a(S'no_cv'
I1
tp843
a(S'no_vo'
I0
tp844
a(S'w'
I1
tp845
a(S'no_ll'
I1
tp846
a(S'w'
I706
tp847
a(S'p1_du'
I2
tp848
a(S'p1_vo'
I7
tp849
a(S'p1_sn'
I0
tp850
a(S'w'
I5
tp851
a(S'p2_du'
I2
tp852
a(S'p2_vo'
I6
tp853
a(S'p2_sn'
I0
tp854
a(S'w'
I5
tp855
a(S'tr_lr'
I40
tp856
a(S'w'
I5
tp857
a(S'no_lh'
I0
tp858
a(S'no_cv'
I0
tp859
a(S'no_vo'
I1
tp860
a(S'w'
I3658
tp861
a(S'no_lh'
I1
tp862
a(S'no_cv'
I1
tp863
a(S'no_vo'
I0
tp864
a(S'w'
I4402
tp865
a(S'p1_du'
I0
tp866
a(S'p1_vo'
I0
tp867
a(S'w'
I1
tp868
a(S'p1_sn'
I1
tp869
a(S'p1_ll'
I0
tp870
a(S'w'
I9
tp871
a(S'p2_du'
I0
tp872
a(S'p2_vo'
I0
tp873
a(S'p2_sn'
I1
tp874
a(S'p2_ll'
I0
tp875
a(S'w'
I7
tp876
a(S'tr_lr'
I48
tp877
a(S'w'
I1
tp878
a(S'tr_ll'
I0
tp879
a(S'w'
I5
tp880
a(S'w'
I1
tp881
a(S'no_ll'
I1
tp882
a(S'w'
I707
tp883
a(S'p1_du'
I2
tp884
a(S'p1_vo'
I7
tp885
a(S'p1_sn'
I0
tp886
a(S'w'
I5
tp887
a(S'p2_du'
I2
tp888
a(S'p2_vo'
I6
tp889
a(S'p2_sn'
I0
tp890
a(S'w'
I5
tp891
a(S'tr_lr'
I40
tp892
a(S'w'
I5
tp893
a(S'no_lh'
I0
tp894
a(S'no_cv'
I0
tp895
a(S'no_vo'
I1
tp896
a(S'w'
I3658
tp897
a(S'no_lh'
I1
tp898
a(S'no_cv'
I1
tp899
a(S'no_vo'
I0
tp900
a(S'w'
I4402
tp901
a(S'p1_du'
I0
tp902
a(S'p1_vo'
I0
tp903
a(S'w'
I1
tp904
a(S'p1_sn'
I1
tp905
a(S'p1_ll'
I0
tp906
a(S'w'
I9
tp907
a(S'p2_du'
I0
tp908
a(S'p2_vo'
I0
tp909
a(S'p2_sn'
I1
tp910
a(S'p2_ll'
I0
tp911
a(S'w'
I7
tp912
a(S'tr_lr'
I48
tp913
a(S'w'
I1
tp914
a(S'tr_ll'
I0
tp915
a(S'w'
I5
tp916
a(S'w'
I1
tp917
a(S'no_ll'
I1
tp918
a(S'w'
I706
tp919
a(S'p1_du'
I2
tp920
a(S'p1_vo'
I7
tp921
a(S'p1_sn'
I0
tp922
a(S'w'
I5
tp923
a(S'p2_du'
I2
tp924
a(S'p2_vo'
I6
tp925
a(S'p2_sn'
I0
tp926
a(S'w'
I5
tp927
a(S'tr_lr'
I40
tp928
a(S'w'
I5
tp929
a(S'no_lh'
I0
tp930
a(S'no_cv'
I0
tp931
a(S'no_vo'
I1
tp932
a(S'w'
I3658
tp933
a(S'no_lh'
I1
tp934
a(S'no_cv'
I1
tp935
a(S'no_vo'
I0
tp936
a(S'w'
I4402
tp937
a(S'p1_du'
I0
tp938
a(S'p1_vo'
I0
tp939
a(S'w'
I1
tp940
a(S'p1_sn'
I1
tp941
a(S'p1_ll'
I0
tp942
a(S'w'
I9
tp943
a(S'p2_du'
I0
tp944
a(S'p2_vo'
I0
tp945
a(S'p2_sn'
I1
tp946
a(S'p2_ll'
I0
tp947
a(S'w'
I7
tp948
a(S'tr_lr'
I48
tp949
a(S'w'
I1
tp950
a(S'tr_ll'
I0
tp951
a(S'w'
I5
tp952
a(S'w'
I1
tp953
a(S'no_ll'
I1
tp954
a(S'w'
I707
tp955
a(S'p1_du'
I2
tp956
a(S'p1_vo'
I7
tp957
a(S'p1_sn'
I0
tp958
a(S'w'
I5
tp959
a(S'p2_du'
I2
tp960
a(S'p2_vo'
I6
tp961
a(S'p2_sn'
I0
tp962
a(S'w'
I5
tp963
a(S'tr_lr'
I40
tp964
a(S'w'
I5
tp965
a(S'no_lh'
I0
tp966
a(S'no_cv'
I0
tp967
a(S'no_vo'
I1
tp968
a(S'w'
I3658
tp969
a(S'no_lh'
I1
tp970
a(S'no_cv'
I1
tp971
a(S'no_vo'
I0
tp972
a(S'w'
I4402
tp973
a(S'p1_du'
I0
tp974
a(S'p1_vo'
I0
tp975
a(S'w'
I1
tp976
a(S'p1_sn'
I1
tp977
a(S'p1_tl'
I40
tp978
a(S'p1_ll'
I0
tp979
a(S'w'
I9
tp980
a(S'p2_du'
I0
tp981
a(S'p2_vo'
I0
tp982
a(S'p2_sn'
I1
tp983
a(S'p2_tl'
I53
tp984
a(S'p2_ll'
I0
tp985
a(S'w'
I8
tp986
a(S'tr_lr'
I48
tp987
a(S'tr_tl'
I252
tp988
a(S'tr_ll'
I0
tp989
a(S'tr_th'
I1
tp990
a(S'w'
I6
tp991
a(S'no_ll'
I1
tp992
a(S'w'
I706
tp993
a(S'p1_du'
I2
tp994
a(S'p1_vo'
I7
tp995
a(S'p1_sn'
I0
tp996
a(S'w'
I5
tp997
a(S'p2_du'
I2
tp998
a(S'p2_vo'
I6
tp999
a(S'p2_sn'
I0
tp1000
a(S'w'
I5
tp1001
a(S'tr_lr'
I40
tp1002
a(S'w'
I5
tp1003
a(S'no_lh'
I0
tp1004
a(S'no_cv'
I0
tp1005
a(S'no_vo'
I1
tp1006
a(S'w'
I3658
tp1007
a(S'no_lh'
I1
tp1008
a(S'no_cv'
I1
tp1009
a(S'no_vo'
I0
tp1010
a(S'w'
I4402
tp1011
a(S'p1_du'
I0
tp1012
a(S'p1_vo'
I0
tp1013
a(S'w'
I1
tp1014
a(S'p1_sn'
I1
tp1015
a(S'p1_ll'
I0
tp1016
a(S'w'
I9
tp1017
a(S'p2_du'
I0
tp1018
a(S'p2_vo'
I0
tp1019
a(S'p2_sn'
I1
tp1020
a(S'p2_ll'
I0
tp1021
a(S'w'
I8
tp1022
a(S'tr_lr'
I48
tp1023
a(S'tr_ll'
I0
tp1024
a(S'w'
I6
tp1025
a(S'no_np'
I2
tp1026
a(S'no_ll'
I1
tp1027
a(S'w'
I707
tp1028
a(S'p1_du'
I2
tp1029
a(S'p1_vo'
I7
tp1030
a(S'p1_sn'
I0
tp1031
a(S'w'
I5
tp1032
a(S'p2_du'
I2
tp1033
a(S'p2_vo'
I6
tp1034
a(S'p2_sn'
I0
tp1035
a(S'w'
I5
tp1036
a(S'tr_lr'
I40
tp1037
a(S'w'
I5
tp1038
a(S'no_lh'
I0
tp1039
a(S'no_cv'
I0
tp1040
a(S'no_vo'
I1
tp1041
a(S'w'
I34478
tp1042
a(S'no_lh'
I1
tp1043
a(S'no_cv'
I1
tp1044
a(S'no_vo'
I0
tp1045
a(S'w'
I26412
tp1046
a(S'p1_du'
I0
tp1047
a(S'p1_vo'
I0
tp1048
a(S'w'
I6
tp1049
a(S'p2_du'
I0
tp1050
a(S'p2_vo'
I0
tp1051
a(S'w'
I6
tp1052
a(S'tr_lr'
I48
tp1053
a(S'w'
I44982
tp1054
a.