(lp1
(S'clock'
p2
I1789773
tp3
a(S'p1_lh'
I1
tp4
a(S'p1_cv'
I1
tp5
a(S'p1_sn'
I1
tp6
a(S'p1_tl'
I213
tp7
a(S'p1_ll'
I0
tp8
a(S'p2_lh'
I1
tp9
a(S'p2_cv'
I1
tp10
a(S'p2_sn'
I1
tp11
a(S'p2_tl'
I254
tp12
a(S'p2_ll'
I0
tp13
a(S'tr_lr'
I48
tp14
a(S'tr_tl'
I254
tp15
a(S'tr_ll'
I0
tp16
a(S'no_lh'
I1
tp17
a(S'no_cv'
I1
tp18
a(S'no_np'
I2
tp19
a(S'no_ll'
I1
tp20
a(S'ch_no'
I1
tp21
a(S'ch_tr'
I1
tp22
a(S'ch_p2'
I1
tp23
a(S'ch_p1'
I1
tp24
a(S'w'
I558
tp25
a(S'p1_du'
I2
tp26
a(S'p1_vo'
I7
tp27
a(S'p1_sn'
I0
tp28
a(S'w'
I5
tp29
a(S'p2_du'
I2
tp30
a(S'p2_vo'
I5
tp31
a(S'p2_sn'
I0
tp32
a(S'w'
I5
tp33
a(S'tr_lh'
I1
tp34
a(S'tr_lr'
I40
tp35
a(S'w'
I5
tp36
a(S'no_lh'
I0
tp37
a(S'no_cv'
I0
tp38
a(S'no_vo'
I1
tp39
a(S'w'
I2925
tp40
a(S'no_lh'
I1
tp41
a(S'no_cv'
I1
tp42
a(S'no_vo'
I0
tp43
a(S'w'
I5135
tp44
a(S'p1_du'
I0
tp45
a(S'p1_vo'
I0
tp46
a(S'p1_sn'
I1
tp47
a(S'p1_tl'
I106
tp48
a(S'w'
I1
tp49
a(S'p1_ll'
I0
tp50
a(S'w'
I8
tp51
a(S'p2_du'
I0
tp52
a(S'p2_vo'
I0
tp53
a(S'p2_sn'
I1
tp54
a(S'p2_tl'
I151
tp55
a(S'p2_ll'
I0
tp56
a(S'w'
I8
tp57
a(S'tr_lh'
I0
tp58
a(S'tr_lr'
I48
tp59
a(S'tr_tl'
I171
tp60
a(S'w'
I1
tp61
a(S'tr_ll'
I0
tp62
a(S'tr_th'
I1
tp63
a(S'w'
I713
tp64
a(S'p1_du'
I2
tp65
a(S'p1_vo'
I7
tp66
a(S'p1_sn'
I0
tp67
a(S'w'
I5
tp68
a(S'p2_du'
I2
tp69
a(S'p2_vo'
I5
tp70
a(S'p2_sn'
I0
tp71
a(S'w'
I5
tp72
a(S'tr_lh'
I1
tp73
a(S'tr_lr'
I40
tp74
a(S'w'
I3664
tp75
a(S'no_ll'
I1
tp76
a(S'w'
I733
tp77
a(S'no_lh'
I0
tp78
a(S'no_cv'
I0
tp79
a(S'no_vo'
I1
tp80
a(S'w'
I1467
tp81
a(S'no_lh'
I1
tp82
a(S'no_cv'
I1
tp83
a(S'no_vo'
I0
tp84
a(S'w'
I6605
tp85
a(S'no_ll'
I1
tp86
a(S'w'
I733
tp87
a(S'no_lh'
I0
tp88
a(S'no_cv'
I0
tp89
a(S'no_vo'
I1
tp90
a(S'w'
I1468
tp91
a(S'no_lh'
I1
tp92
a(S'no_cv'
I1
tp93
a(S'no_vo'
I0
tp94
a(S'w'
I2200
tp95
a(S'p1_du'
I0
tp96
a(S'p1_vo'
I0
tp97
a(S'p1_sn'
I1
tp98
a(S'p1_tl'
I112
tp99
a(S'p1_ll'
I0
tp100
a(S'w'
I8
tp101
a(S'p2_du'
I0
tp102
a(S'p2_vo'
I0
tp103
a(S'w'
I1
tp104
a(S'p2_sn'
I1
tp105
a(S'p2_ll'
I0
tp106
a(S'w'
I8
tp107
a(S'tr_lh'
I0
tp108
a(S'tr_lr'
I48
tp109
a(S'tr_tl'
I103
tp110
a(S'tr_ll'
I0
tp111
a(S'w'
I6
tp112
a(S'no_ll'
I1
tp113
a(S'w'
I708
tp114
a(S'p1_du'
I2
tp115
a(S'p1_vo'
I7
tp116
a(S'p1_sn'
I0
tp117
a(S'w'
I5
tp118
a(S'p2_du'
I2
tp119
a(S'p2_vo'
I5
tp120
a(S'p2_sn'
I0
tp121
a(S'w'
I5
tp122
a(S'tr_lh'
I1
tp123
a(S'tr_lr'
I40
tp124
a(S'w'
I5
tp125
a(S'no_lh'
I0
tp126
a(S'no_cv'
I0
tp127
a(S'no_vo'
I1
tp128
a(S'w'
I2925
tp129
a(S'no_lh'
I1
tp130
a(S'no_cv'
I1
tp131
a(S'no_vo'
I0
tp132
a(S'w'
I729
tp133
a(S'p1_du'
I0
tp134
a(S'p1_vo'
I0
tp135
a(S'w'
I6
tp136
a(S'p2_du'
I0
tp137
a(S'p2_vo'
I0
tp138
a(S'w'
I8802
tp139
a(S'p1_sn'
I1
tp140
a(S'p1_tl'
I151
tp141
a(S'p1_ll'
I0
tp142
a(S'w'
I9
tp143
a(S'p2_sn'
I1
tp144
a(S'p2_tl'
I179
tp145
a(S'p2_ll'
I0
tp146
a(S'w'
I8
tp147
a(S'tr_lh'
I0
tp148
a(S'tr_lr'
I48
tp149
a(S'tr_tl'
I46
tp150
a(S'tr_ll'
I0
tp151
a(S'w'
I6
tp152
a(S'no_ll'
I1
tp153
a(S'w'
I708
tp154
a(S'p1_du'
I2
tp155
a(S'p1_vo'
I7
tp156
a(S'p1_sn'
I0
tp157
a(S'w'
I5
tp158
a(S'p2_du'
I2
tp159
a(S'p2_vo'
I5
tp160
a(S'p2_sn'
I0
tp161
a(S'w'
I5
tp162
a(S'tr_lh'
I1
tp163
a(S'tr_lr'
I40
tp164
a(S'w'
I5
tp165
a(S'no_lh'
I0
tp166
a(S'no_cv'
I0
tp167
a(S'no_vo'
I1
tp168
a(S'w'
I1459
tp169
a(S'no_lh'
I1
tp170
a(S'no_cv'
I1
tp171
a(S'no_vo'
I0
tp172
a(S'w'
I2195
tp173
a(S'p1_du'
I0
tp174
a(S'p1_vo'
I0
tp175
a(S'w'
I6
tp176
a(S'p2_du'
I0
tp177
a(S'p2_vo'
I0
tp178
a(S'w'
I4402
tp179
a(S'no_ll'
I1
tp180
a(S'w'
I733
tp181
a(S'no_lh'
I0
tp182
a(S'no_cv'
I0
tp183
a(S'no_vo'
I1
tp184
a(S'w'
I1467
tp185
a(S'no_lh'
I1
tp186
a(S'no_cv'
I1
tp187
a(S'no_vo'
I0
tp188
a(S'w'
I2201
tp189
a(S'p1_sn'
I1
tp190
a(S'p1_tl'
I127
tp191
a(S'p1_ll'
I0
tp192
a(S'w'
I9
tp193
a(S'p2_sn'
I1
tp194
a(S'p2_tl'
I151
tp195
a(S'p2_ll'
I0
tp196
a(S'w'
I8
tp197
a(S'tr_lh'
I0
tp198
a(S'tr_lr'
I48
tp199
a(S'tr_tl'
I29
tp200
a(S'tr_ll'
I0
tp201
a(S'w'
I8
tp202
a(S'no_ll'
I1
tp203
a(S'w'
I705
tp204
a(S'p1_du'
I2
tp205
a(S'p1_vo'
I7
tp206
a(S'p1_sn'
I0
tp207
a(S'w'
I5
tp208
a(S'p2_du'
I2
tp209
a(S'p2_vo'
I5
tp210
a(S'p2_sn'
I0
tp211
a(S'w'
I5
tp212
a(S'tr_lh'
I1
tp213
a(S'tr_lr'
I40
tp214
a(S'w'
I5
tp215
a(S'no_lh'
I0
tp216
a(S'no_cv'
I0
tp217
a(S'no_vo'
I1
tp218
a(S'w'
I2925
tp219
a(S'no_lh'
I1
tp220
a(S'no_cv'
I1
tp221
a(S'no_vo'
I0
tp222
a(S'w'
I9538
tp223
a(S'p1_du'
I0
tp224
a(S'p1_vo'
I0
tp225
a(S'p1_sn'
I1
tp226
a(S'p1_tl'
I142
tp227
a(S'p1_ll'
I0
tp228
a(S'w'
I8
tp229
a(S'p2_du'
I0
tp230
a(S'p2_vo'
I0
tp231
a(S'w'
I1
tp232
a(S'p2_sn'
I1
tp233
a(S'p2_tl'
I169
tp234
a(S'p2_ll'
I0
tp235
a(S'w'
I8
tp236
a(S'tr_lh'
I0
tp237
a(S'tr_lr'
I48
tp238
a(S'tr_tl'
I83
tp239
a(S'tr_ll'
I0
tp240
a(S'w'
I6
tp241
a(S'no_ll'
I1
tp242
a(S'w'
I708
tp243
a(S'p1_du'
I2
tp244
a(S'p1_vo'
I7
tp245
a(S'p1_sn'
I0
tp246
a(S'w'
I5
tp247
a(S'p2_du'
I2
tp248
a(S'p2_vo'
I5
tp249
a(S'p2_sn'
I0
tp250
a(S'w'
I5
tp251
a(S'tr_lh'
I1
tp252
a(S'tr_lr'
I40
tp253
a(S'w'
I5
tp254
a(S'no_lh'
I0
tp255
a(S'no_cv'
I0
tp256
a(S'no_vo'
I1
tp257
a(S'w'
I1458
tp258
a(S'no_lh'
I1
tp259
a(S'no_cv'
I1
tp260
a(S'no_vo'
I0
tp261
a(S'w'
I2196
tp262
a(S'p1_du'
I0
tp263
a(S'p1_vo'
I0
tp264
a(S'w'
I6
tp265
a(S'p2_du'
I0
tp266
a(S'p2_vo'
I0
tp267
a(S'w'
I4401
tp268
a(S'no_ll'
I1
tp269
a(S'w'
I733
tp270
a(S'no_lh'
I0
tp271
a(S'no_cv'
I0
tp272
a(S'no_vo'
I1
tp273
a(S'w'
I1468
tp274
a(S'no_lh'
I1
tp275
a(S'no_cv'
I1
tp276
a(S'no_vo'
I0
tp277
a(S'w'
I2200
tp278
a(S'p1_sn'
I1
tp279
a(S'p1_tl'
I160
tp280
a(S'p1_ll'
I0
tp281
a(S'w'
I9
tp282
a(S'p2_sn'
I1
tp283
a(S'p2_tl'
I190
tp284
a(S'p2_ll'
I0
tp285
a(S'w'
I8
tp286
a(S'tr_lh'
I0
tp287
a(S'tr_lr'
I48
tp288
a(S'tr_tl'
I125
tp289
a(S'tr_ll'
I0
tp290
a(S'w'
I6
tp291
a(S'no_ll'
I1
tp292
a(S'w'
I708
tp293
a(S'p1_du'
I2
tp294
a(S'p1_vo'
I7
tp295
a(S'p1_sn'
I0
tp296
a(S'w'
I5
tp297
a(S'p2_du'
I2
tp298
a(S'p2_vo'
I5
tp299
a(S'p2_sn'
I0
tp300
a(S'w'
I5
tp301
a(S'tr_lh'
I1
tp302
a(S'tr_lr'
I40
tp303
a(S'w'
I5
tp304
a(S'no_lh'
I0
tp305
a(S'no_cv'
I0
tp306
a(S'no_vo'
I1
tp307
a(S'w'
I2925
tp308
a(S'no_lh'
I1
tp309
a(S'no_cv'
I1
tp310
a(S'no_vo'
I0
tp311
a(S'w'
I5134
tp312
a(S'p1_du'
I0
tp313
a(S'p1_vo'
I0
tp314
a(S'w'
I1
tp315
a(S'p1_sn'
I1
tp316
a(S'p1_tl'
I225
tp317
a(S'p1_ll'
I0
tp318
a(S'w'
I8
tp319
a(S'p2_du'
I0
tp320
a(S'p2_vo'
I0
tp321
a(S'p2_sn'
I1
tp322
a(S'p2_tl'
I64
tp323
a(S'p2_ll'
I0
tp324
a(S'p2_th'
I1
tp325
a(S'w'
I722
tp326
a(S'p1_du'
I2
tp327
a(S'p1_vo'
I7
tp328
a(S'p1_sn'
I0
tp329
a(S'w'
I5
tp330
a(S'p2_du'
I2
tp331
a(S'p2_vo'
I5
tp332
a(S'p2_sn'
I0
tp333
a(S'w'
I3667
tp334
a(S'p1_du'
I0
tp335
a(S'p1_vo'
I0
tp336
a(S'p1_sn'
I1
tp337
a(S'p1_tl'
I213
tp338
a(S'p1_ll'
I0
tp339
a(S'w'
I8
tp340
a(S'p2_du'
I0
tp341
a(S'p2_vo'
I0
tp342
a(S'p2_sn'
I1
tp343
a(S'p2_tl'
I254
tp344
a(S'w'
I1
tp345
a(S'p2_ll'
I0
tp346
a(S'p2_th'
I0
tp347
a(S'w'
I7
tp348
a(S'tr_lh'
I0
tp349
a(S'tr_lr'
I48
tp350
a(S'tr_tl'
I252
tp351
a(S'tr_ll'
I0
tp352
a(S'w'
I6
tp353
a(S'no_ll'
I1
tp354
a(S'w'
I709
tp355
a(S'p1_du'
I2
tp356
a(S'p1_vo'
I7
tp357
a(S'p1_sn'
I0
tp358
a(S'w'
I5
tp359
a(S'p2_du'
I2
tp360
a(S'p2_vo'
I5
tp361
a(S'p2_sn'
I0
tp362
a(S'w'
I5
tp363
a(S'tr_lh'
I1
tp364
a(S'tr_lr'
I40
tp365
a(S'w'
I5
tp366
a(S'no_lh'
I0
tp367
a(S'no_cv'
I0
tp368
a(S'no_vo'
I1
tp369
a(S'w'
I1459
tp370
a(S'no_lh'
I1
tp371
a(S'no_cv'
I1
tp372
a(S'no_vo'
I0
tp373
a(S'w'
I6601
tp374
a(S'p1_du'
I0
tp375
a(S'p1_vo'
I0
tp376
a(S'p1_sn'
I1
tp377
a(S'p1_tl'
I190
tp378
a(S'p1_ll'
I0
tp379
a(S'w'
I8
tp380
a(S'p2_du'
I0
tp381
a(S'p2_vo'
I0
tp382
a(S'p2_sn'
I1
tp383
a(S'w'
I1
tp384
a(S'p2_ll'
I0
tp385
a(S'w'
I7
tp386
a(S'no_ll'
I1
tp387
a(S'w'
I715
tp388
a(S'p1_du'
I2
tp389
a(S'p1_vo'
I7
tp390
a(S'p1_sn'
I0
tp391
a(S'w'
I5
tp392
a(S'p2_du'
I2
tp393
a(S'p2_vo'
I5
tp394
a(S'p2_sn'
I0
tp395
a(S'w'
I6
tp396
a(S'no_lh'
I0
tp397
a(S'no_cv'
I0
tp398
a(S'no_vo'
I1
tp399
a(S'w'
I1462
tp400
a(S'no_lh'
I1
tp401
a(S'no_cv'
I1
tp402
a(S'no_vo'
I0
tp403
a(S'w'
I2199
tp404
a(S'p1_du'
I0
tp405
a(S'p1_vo'
I0
tp406
a(S'p1_sn'
I1
tp407
a(S'p1_tl'
I169
tp408
a(S'p1_ll'
I0
tp409
a(S'w'
I8
tp410
a(S'p2_du'
I0
tp411
a(S'p2_vo'
I0
tp412
a(S'w'
I1
tp413
a(S'p2_sn'
I1
tp414
a(S'p2_tl'
I213
tp415
a(S'p2_ll'
I0
tp416
a(S'w'
I8
tp417
a(S'tr_lh'
I0
tp418
a(S'tr_lr'
I48
tp419
a(S'tr_tl'
I171
tp420
a(S'tr_ll'
I0
tp421
a(S'w'
I8
tp422
a(S'no_ll'
I1
tp423
a(S'w'
I705
tp424
a(S'p1_du'
I2
tp425
a(S'p1_vo'
I7
tp426
a(S'p1_sn'
I0
tp427
a(S'w'
I5
tp428
a(S'p2_du'
I2
tp429
a(S'p2_vo'
I5
tp430
a(S'p2_sn'
I0
tp431
a(S'w'
I5
tp432
a(S'tr_lh'
I1
tp433
a(S'tr_lr'
I40
tp434
a(S'w'
I5
tp435
a(S'no_lh'
I0
tp436
a(S'no_cv'
I0
tp437
a(S'no_vo'
I1
tp438
a(S'w'
I2925
tp439
a(S'no_lh'
I1
tp440
a(S'no_cv'
I1
tp441
a(S'no_vo'
I0
tp442
a(S'w'
I5135
tp443
a(S'p1_du'
I0
tp444
a(S'p1_vo'
I0
tp445
a(S'p1_sn'
I1
tp446
a(S'p1_tl'
I179
tp447
a(S'p1_ll'
I0
tp448
a(S'w'
I8
tp449
a(S'p2_du'
I0
tp450
a(S'p2_vo'
I0
tp451
a(S'p2_sn'
I1
tp452
a(S'p2_tl'
I225
tp453
a(S'w'
I1
tp454
a(S'p2_ll'
I0
tp455
a(S'w'
I722
tp456
a(S'p1_du'
I2
tp457
a(S'p1_vo'
I7
tp458
a(S'p1_sn'
I0
tp459
a(S'w'
I5
tp460
a(S'p2_du'
I2
tp461
a(S'p2_vo'
I5
tp462
a(S'p2_sn'
I0
tp463
a(S'w'
I3667
tp464
a(S'p1_du'
I0
tp465
a(S'p1_vo'
I0
tp466
a(S'p1_sn'
I1
tp467
a(S'p1_tl'
I169
tp468
a(S'p1_ll'
I0
tp469
a(S'w'
I8
tp470
a(S'p2_du'
I0
tp471
a(S'p2_vo'
I0
tp472
a(S'w'
I1
tp473
a(S'p2_sn'
I1
tp474
a(S'p2_tl'
I213
tp475
a(S'p2_ll'
I0
tp476
a(S'w'
I7
tp477
a(S'tr_lh'
I0
tp478
a(S'tr_lr'
I48
tp479
a(S'w'
I1
tp480
a(S'tr_tl'
I58
tp481
a(S'tr_ll'
I0
tp482
a(S'tr_th'
I2
tp483
a(S'w'
I5
tp484
a(S'no_ll'
I1
tp485
a(S'w'
I709
tp486
a(S'p1_du'
I2
tp487
a(S'p1_vo'
I7
tp488
a(S'p1_sn'
I0
tp489
a(S'w'
I5
tp490
a(S'p2_du'
I2
tp491
a(S'p2_vo'
I5
tp492
a(S'p2_sn'
I0
tp493
a(S'w'
I5
tp494
a(S'tr_lh'
I1
tp495
a(S'tr_lr'
I40
tp496
a(S'w'
I5
tp497
a(S'no_lh'
I0
tp498
a(S'no_cv'
I0
tp499
a(S'no_vo'
I1
tp500
a(S'w'
I1458
tp501
a(S'no_lh'
I1
tp502
a(S'no_cv'
I1
tp503
a(S'no_vo'
I0
tp504
a(S'w'
I6601
tp505
a(S'p1_du'
I0
tp506
a(S'p1_vo'
I0
tp507
a(S'p1_sn'
I1
tp508
a(S'p1_tl'
I112
tp509
a(S'p1_ll'
I0
tp510
a(S'w'
I8
tp511
a(S'p2_du'
I0
tp512
a(S'p2_vo'
I0
tp513
a(S'w'
I1
tp514
a(S'p2_sn'
I1
tp515
a(S'p2_tl'
I142
tp516
a(S'p2_ll'
I0
tp517
a(S'w'
I7
tp518
a(S'no_ll'
I1
tp519
a(S'w'
I715
tp520
a(S'p1_du'
I2
tp521
a(S'p1_vo'
I7
tp522
a(S'p1_sn'
I0
tp523
a(S'w'
I5
tp524
a(S'p2_du'
I2
tp525
a(S'p2_vo'
I5
tp526
a(S'p2_sn'
I0
tp527
a(S'w'
I6
tp528
a(S'no_lh'
I0
tp529
a(S'no_cv'
I0
tp530
a(S'no_vo'
I1
tp531
a(S'w'
I1463
tp532
a(S'no_lh'
I1
tp533
a(S'no_cv'
I1
tp534
a(S'no_vo'
I0
tp535
a(S'w'
I2198
tp536
a(S'p1_du'
I0
tp537
a(S'p1_vo'
I0
tp538
a(S'p1_sn'
I1
tp539
a(S'p1_tl'
I169
tp540
a(S'p1_ll'
I0
tp541
a(S'w'
I8
tp542
a(S'p2_du'
I0
tp543
a(S'p2_vo'
I0
tp544
a(S'w'
I1
tp545
a(S'p2_sn'
I1
tp546
a(S'p2_tl'
I213
tp547
a(S'p2_ll'
I0
tp548
a(S'w'
I7
tp549
a(S'tr_lh'
I0
tp550
a(S'tr_lr'
I48
tp551
a(S'w'
I1
tp552
a(S'tr_tl'
I252
tp553
a(S'tr_ll'
I0
tp554
a(S'tr_th'
I1
tp555
a(S'w'
I5
tp556
a(S'no_ll'
I1
tp557
a(S'w'
I709
tp558
a(S'p1_du'
I2
tp559
a(S'p1_vo'
I7
tp560
a(S'p1_sn'
I0
tp561
a(S'w'
I5
tp562
a(S'p2_du'
I2
tp563
a(S'p2_vo'
I5
tp564
a(S'p2_sn'
I0
tp565
a(S'w'
I5
tp566
a(S'tr_lh'
I1
tp567
a(S'tr_lr'
I40
tp568
a(S'w'
I5
tp569
a(S'no_lh'
I0
tp570
a(S'no_cv'
I0
tp571
a(S'no_vo'
I1
tp572
a(S'w'
I2925
tp573
a(S'no_lh'
I1
tp574
a(S'no_cv'
I1
tp575
a(S'no_vo'
I0
tp576
a(S'w'
I5135
tp577
a(S'p1_du'
I0
tp578
a(S'p1_vo'
I0
tp579
a(S'p1_sn'
I1
tp580
a(S'p1_tl'
I179
tp581
a(S'p1_ll'
I0
tp582
a(S'w'
I8
tp583
a(S'p2_du'
I0
tp584
a(S'p2_vo'
I0
tp585
a(S'p2_sn'
I1
tp586
a(S'p2_tl'
I225
tp587
a(S'w'
I1
tp588
a(S'p2_ll'
I0
tp589
a(S'w'
I721
tp590
a(S'p1_du'
I2
tp591
a(S'p1_vo'
I7
tp592
a(S'p1_sn'
I0
tp593
a(S'w'
I5
tp594
a(S'p2_du'
I2
tp595
a(S'p2_vo'
I5
tp596
a(S'p2_sn'
I0
tp597
a(S'w'
I3667
tp598
a(S'p1_du'
I0
tp599
a(S'p1_vo'
I0
tp600
a(S'p1_sn'
I1
tp601
a(S'p1_tl'
I169
tp602
a(S'p1_ll'
I0
tp603
a(S'w'
I8
tp604
a(S'p2_du'
I0
tp605
a(S'p2_vo'
I0
tp606
a(S'w'
I1
tp607
a(S'p2_sn'
I1
tp608
a(S'p2_tl'
I213
tp609
a(S'p2_ll'
I0
tp610
a(S'w'
I7
tp611
a(S'tr_lh'
I0
tp612
a(S'tr_lr'
I48
tp613
a(S'w'
I1
tp614
a(S'tr_tl'
I195
tp615
a(S'tr_ll'
I0
tp616
a(S'w'
I5
tp617
a(S'no_ll'
I1
tp618
a(S'w'
I709
tp619
a(S'p1_du'
I2
tp620
a(S'p1_vo'
I7
tp621
a(S'p1_sn'
I0
tp622
a(S'w'
I5
tp623
a(S'p2_du'
I2
tp624
a(S'p2_vo'
I5
tp625
a(S'p2_sn'
I0
tp626
a(S'w'
I5
tp627
a(S'tr_lh'
I1
tp628
a(S'tr_lr'
I40
tp629
a(S'w'
I5
tp630
a(S'no_lh'
I0
tp631
a(S'no_cv'
I0
tp632
a(S'no_vo'
I1
tp633
a(S'w'
I1459
tp634
a(S'no_lh'
I1
tp635
a(S'no_cv'
I1
tp636
a(S'no_vo'
I0
tp637
a(S'w'
I6601
tp638
a(S'p1_du'
I0
tp639
a(S'p1_vo'
I0
tp640
a(S'p1_sn'
I1
tp641
a(S'p1_tl'
I127
tp642
a(S'p1_ll'
I0
tp643
a(S'w'
I8
tp644
a(S'p2_du'
I0
tp645
a(S'p2_vo'
I0
tp646
a(S'w'
I1
tp647
a(S'p2_sn'
I1
tp648
a(S'p2_tl'
I169
tp649
a(S'p2_ll'
I0
tp650
a(S'w'
I7
tp651
a(S'no_ll'
I1
tp652
a(S'w'
I715
tp653
a(S'p1_du'
I2
tp654
a(S'p1_vo'
I7
tp655
a(S'p1_sn'
I0
tp656
a(S'w'
I5
tp657
a(S'p2_du'
I2
tp658
a(S'p2_vo'
I5
tp659
a(S'p2_sn'
I0
tp660
a(S'w'
I6
tp661
a(S'no_lh'
I0
tp662
a(S'no_cv'
I0
tp663
a(S'no_vo'
I1
tp664
a(S'w'
I1462
tp665
a(S'no_lh'
I1
tp666
a(S'no_cv'
I1
tp667
a(S'no_vo'
I0
tp668
a(S'w'
I2199
tp669
a(S'p1_du'
I0
tp670
a(S'p1_vo'
I0
tp671
a(S'p1_sn'
I1
tp672
a(S'p1_tl'
I142
tp673
a(S'p1_ll'
I0
tp674
a(S'w'
I8
tp675
a(S'p2_du'
I0
tp676
a(S'p2_vo'
I0
tp677
a(S'w'
I1
tp678
a(S'p2_sn'
I1
tp679
a(S'p2_ll'
I0
tp680
a(S'w'
I8
tp681
a(S'tr_lh'
I0
tp682
a(S'tr_lr'
I48
tp683
a(S'tr_tl'
I171
tp684
a(S'tr_ll'
I0
tp685
a(S'w'
I7
tp686
a(S'w'
I1
tp687
a(S'no_ll'
I1
tp688
a(S'w'
I705
tp689
a(S'p1_du'
I2
tp690
a(S'p1_vo'
I7
tp691
a(S'p1_sn'
I0
tp692
a(S'w'
I5
tp693
a(S'p2_du'
I2
tp694
a(S'p2_vo'
I5
tp695
a(S'p2_sn'
I0
tp696
a(S'w'
I5
tp697
a(S'tr_lh'
I1
tp698
a(S'tr_lr'
I40
tp699
a(S'w'
I5
tp700
a(S'no_lh'
I0
tp701
a(S'no_cv'
I0
tp702
a(S'no_vo'
I1
tp703
a(S'w'
I2925
tp704
a(S'no_lh'
I1
tp705
a(S'no_cv'
I1
tp706
a(S'no_vo'
I0
tp707
a(S'w'
I5135
tp708
a(S'p1_du'
I0
tp709
a(S'p1_vo'
I0
tp710
a(S'p1_sn'
I1
tp711
a(S'p1_tl'
I160
tp712
a(S'p1_ll'
I0
tp713
a(S'w'
I8
tp714
a(S'p2_du'
I0
tp715
a(S'p2_vo'
I0
tp716
a(S'w'
I1
tp717
a(S'p2_sn'
I1
tp718
a(S'p2_tl'
I190
tp719
a(S'p2_ll'
I0
tp720
a(S'w'
I7
tp721
a(S'tr_lh'
I0
tp722
a(S'tr_lr'
I48
tp723
a(S'w'
I1
tp724
a(S'tr_tl'
I58
tp725
a(S'tr_ll'
I0
tp726
a(S'tr_th'
I2
tp727
a(S'w'
I714
tp728
a(S'p1_du'
I2
tp729
a(S'p1_vo'
I7
tp730
a(S'p1_sn'
I0
tp731
a(S'w'
I5
tp732
a(S'p2_du'
I2
tp733
a(S'p2_vo'
I5
tp734
a(S'p2_sn'
I0
tp735
a(S'w'
I5
tp736
a(S'tr_lh'
I1
tp737
a(S'tr_lr'
I40
tp738
a(S'w'
I732
tp739
a(S'no_ll'
I1
tp740
a(S'w'
I731
tp741
a(S'no_lh'
I0
tp742
a(S'no_cv'
I0
tp743
a(S'no_vo'
I1
tp744
a(S'w'
I1467
tp745
a(S'no_lh'
I1
tp746
a(S'no_cv'
I1
tp747
a(S'no_vo'
I0
tp748
a(S'w'
I729
tp749
a(S'p1_du'
I0
tp750
a(S'p1_vo'
I0
tp751
a(S'w'
I6
tp752
a(S'p2_du'
I0
tp753
a(S'p2_vo'
I0
tp754
a(S'w'
I6
tp755
a(S'tr_lh'
I0
tp756
a(S'tr_lr'
I48
tp757
a(S'w'
I8796
tp758
a(S'p1_sn'
I1
tp759
a(S'p1_tl'
I169
tp760
a(S'p1_ll'
I0
tp761
a(S'w'
I9
tp762
a(S'p2_sn'
I1
tp763
a(S'p2_tl'
I213
tp764
a(S'p2_ll'
I0
tp765
a(S'w'
I8
tp766
a(S'tr_ll'
I0
tp767
a(S'w'
I714
tp768
a(S'p1_du'
I2
tp769
a(S'p1_vo'
I7
tp770
a(S'p1_sn'
I0
tp771
a(S'w'
I5
tp772
a(S'p2_du'
I2
tp773
a(S'p2_vo'
I5
tp774
a(S'p2_sn'
I0
tp775
a(S'w'
I5
tp776
a(S'tr_lh'
I1
tp777
a(S'tr_lr'
I40
tp778
a(S'w'
I732
tp779
a(S'no_ll'
I1
tp780
a(S'w'
I732
tp781
a(S'no_lh'
I0
tp782
a(S'no_cv'
I0
tp783
a(S'no_vo'
I1
tp784
a(S'w'
I1466
tp785
a(S'no_lh'
I1
tp786
a(S'no_cv'
I1
tp787
a(S'no_vo'
I0
tp788
a(S'w'
I729
tp789
a(S'p1_du'
I0
tp790
a(S'p1_vo'
I0
tp791
a(S'w'
I6
tp792
a(S'p2_du'
I0
tp793
a(S'p2_vo'
I0
tp794
a(S'w'
I6
tp795
a(S'tr_lh'
I0
tp796
a(S'tr_lr'
I48
tp797
a(S'w'
I8797
tp798
a(S'p1_sn'
I1
tp799
a(S'p1_tl'
I190
tp800
a(S'p1_ll'
I0
tp801
a(S'w'
I8
tp802
a(S'p2_sn'
I1
tp803
a(S'p2_tl'
I29
tp804
a(S'w'
I1
tp805
a(S'p2_ll'
I0
tp806
a(S'p2_th'
I1
tp807
a(S'w'
I7
tp808
a(S'tr_ll'
I0
tp809
a(S'w'
I714
tp810
a(S'p1_du'
I2
tp811
a(S'p1_vo'
I7
tp812
a(S'p1_sn'
I0
tp813
a(S'w'
I5
tp814
a(S'p2_du'
I2
tp815
a(S'p2_vo'
I5
tp816
a(S'p2_sn'
I0
tp817
a(S'w'
I5
tp818
a(S'tr_lh'
I1
tp819
a(S'tr_lr'
I40
tp820
a(S'w'
I732
tp821
a(S'no_ll'
I1
tp822
a(S'w'
I732
tp823
a(S'no_lh'
I0
tp824
a(S'no_cv'
I0
tp825
a(S'no_vo'
I1
tp826
a(S'w'
I3668
tp827
a(S'no_lh'
I1
tp828
a(S'no_cv'
I1
tp829
a(S'no_vo'
I0
tp830
a(S'w'
I11739
tp831
a(S'p1_du'
I0
tp832
a(S'p1_vo'
I0
tp833
a(S'p1_sn'
I1
tp834
a(S'p1_tl'
I106
tp835
a(S'w'
I1
tp836
a(S'p1_ll'
I0
tp837
a(S'w'
I8
tp838
a(S'p2_du'
I0
tp839
a(S'p2_vo'
I0
tp840
a(S'p2_sn'
I1
tp841
a(S'p2_tl'
I127
tp842
a(S'p2_ll'
I0
tp843
a(S'p2_th'
I0
tp844
a(S'w'
I8
tp845
a(S'tr_lh'
I0
tp846
a(S'tr_lr'
I48
tp847
a(S'tr_tl'
I64
tp848
a(S'w'
I1
tp849
a(S'tr_ll'
I0
tp850
a(S'tr_th'
I1
tp851
a(S'w'
I712
tp852
a(S'p1_du'
I2
tp853
a(S'p1_vo'
I7
tp854
a(S'p1_sn'
I0
tp855
a(S'w'
I5
tp856
a(S'p2_du'
I2
tp857
a(S'p2_vo'
I5
tp858
a(S'p2_sn'
I0
tp859
a(S'w'
I5
tp860
a(S'tr_lh'
I1
tp861
a(S'tr_lr'
I40
tp862
a(S'w'
I734
tp863
a(S'no_ll'
I1
tp864
a(S'w'
I730
tp865
a(S'no_lh'
I0
tp866
a(S'no_cv'
I0
tp867
a(S'no_vo'
I1
tp868
a(S'w'
I2199
tp869
a(S'no_lh'
I1
tp870
a(S'no_cv'
I1
tp871
a(S'no_vo'
I0
tp872
a(S'w'
I4402
tp873
a(S'p1_du'
I0
tp874
a(S'p1_vo'
I0
tp875
a(S'p1_sn'
I1
tp876
a(S'p1_tl'
I95
tp877
a(S'w'
I1
tp878
a(S'p1_ll'
I0
tp879
a(S'w'
I8
tp880
a(S'p2_du'
I0
tp881
a(S'p2_vo'
I0
tp882
a(S'p2_sn'
I1
tp883
a(S'p2_ll'
I0
tp884
a(S'w'
I8
tp885
a(S'tr_lh'
I0
tp886
a(S'tr_lr'
I48
tp887
a(S'tr_tl'
I171
tp888
a(S'w'
I1
tp889
a(S'tr_ll'
I0
tp890
a(S'w'
I713
tp891
a(S'p1_du'
I2
tp892
a(S'p1_vo'
I7
tp893
a(S'p1_sn'
I0
tp894
a(S'w'
I5
tp895
a(S'p2_du'
I2
tp896
a(S'p2_vo'
I5
tp897
a(S'p2_sn'
I0
tp898
a(S'w'
I5
tp899
a(S'tr_lh'
I1
tp900
a(S'tr_lr'
I40
tp901
a(S'w'
I3662
tp902
a(S'p1_du'
I0
tp903
a(S'p1_vo'
I0
tp904
a(S'p1_sn'
I1
tp905
a(S'p1_tl'
I106
tp906
a(S'w'
I1
tp907
a(S'p1_ll'
I0
tp908
a(S'w'
I8
tp909
a(S'p2_du'
I0
tp910
a(S'p2_vo'
I0
tp911
a(S'p2_sn'
I1
tp912
a(S'p2_ll'
I0
tp913
a(S'w'
I722
tp914
a(S'p1_du'
I2
tp915
a(S'p1_vo'
I7
tp916
a(S'p1_sn'
I0
tp917
a(S'w'
I5
tp918
a(S'p2_du'
I2
tp919
a(S'p2_vo'
I5
tp920
a(S'p2_sn'
I0
tp921
a(S'w'
I735
tp922
a(S'no_ll'
I1
tp923
a(S'w'
I727
tp924
a(S'p1_du'
I0
tp925
a(S'p1_vo'
I0
tp926
a(S'w'
I7
tp927
a(S'p2_du'
I0
tp928
a(S'p2_vo'
I0
tp929
a(S'w'
I7
tp930
a(S'no_lh'
I0
tp931
a(S'no_cv'
I0
tp932
a(S'no_vo'
I1
tp933
a(S'w'
I1459
tp934
a(S'no_lh'
I1
tp935
a(S'no_cv'
I1
tp936
a(S'no_vo'
I0
tp937
a(S'w'
I5134
tp938
a(S'p1_sn'
I1
tp939
a(S'w'
I1
tp940
a(S'p1_ll'
I0
tp941
a(S'w'
I8
tp942
a(S'p2_sn'
I1
tp943
a(S'p2_tl'
I134
tp944
a(S'p2_ll'
I0
tp945
a(S'w'
I722
tp946
a(S'p1_du'
I2
tp947
a(S'p1_vo'
I7
tp948
a(S'p1_sn'
I0
tp949
a(S'w'
I5
tp950
a(S'p2_du'
I2
tp951
a(S'p2_vo'
I5
tp952
a(S'p2_sn'
I0
tp953
a(S'w'
I736
tp954
a(S'no_ll'
I1
tp955
a(S'w'
I733
tp956
a(S'no_lh'
I0
tp957
a(S'no_cv'
I0
tp958
a(S'no_vo'
I1
tp959
a(S'w'
I1466
tp960
a(S'no_lh'
I1
tp961
a(S'no_cv'
I1
tp962
a(S'no_vo'
I0
tp963
a(S'w'
I734
tp964
a(S'tr_lh'
I0
tp965
a(S'tr_lr'
I48
tp966
a(S'w'
I1
tp967
a(S'tr_tl'
I64
tp968
a(S'tr_ll'
I0
tp969
a(S'w'
I731
tp970
a(S'tr_lh'
I1
tp971
a(S'tr_lr'
I40
tp972
a(S'w'
I737
tp973
a(S'no_ll'
I1
tp974
a(S'w'
I731
tp975
a(S'no_lh'
I0
tp976
a(S'no_cv'
I0
tp977
a(S'no_vo'
I1
tp978
a(S'w'
I2202
tp979
a(S'no_lh'
I1
tp980
a(S'no_cv'
I1
tp981
a(S'no_vo'
I0
tp982
a(S'w'
I4402
tp983
a(S'p1_du'
I0
tp984
a(S'p1_vo'
I0
tp985
a(S'p1_sn'
I1
tp986
a(S'p1_tl'
I95
tp987
a(S'w'
I1
tp988
a(S'p1_ll'
I0
tp989
a(S'w'
I8
tp990
a(S'p2_du'
I0
tp991
a(S'p2_vo'
I0
tp992
a(S'p2_sn'
I1
tp993
a(S'p2_ll'
I0
tp994
a(S'w'
I8
tp995
a(S'tr_lh'
I0
tp996
a(S'tr_lr'
I48
tp997
a(S'tr_tl'
I171
tp998
a(S'w'
I1
tp999
a(S'tr_ll'
I0
tp1000
a(S'w'
I712
tp1001
a(S'p1_du'
I2
tp1002
a(S'p1_vo'
I7
tp1003
a(S'p1_sn'
I0
tp1004
a(S'w'
I5
tp1005
a(S'p2_du'
I2
tp1006
a(S'p2_vo'
I5
tp1007
a(S'p2_sn'
I0
tp1008
a(S'w'
I5
tp1009
a(S'tr_lh'
I1
tp1010
a(S'tr_lr'
I40
tp1011
a(S'w'
I3662
tp1012
a(S'p1_du'
I0
tp1013
a(S'p1_vo'
I0
tp1014
a(S'p1_sn'
I1
tp1015
a(S'p1_tl'
I106
tp1016
a(S'w'
I1
tp1017
a(S'p1_ll'
I0
tp1018
a(S'w'
I8
tp1019
a(S'p2_du'
I0
tp1020
a(S'p2_vo'
I0
tp1021
a(S'p2_sn'
I1
tp1022
a(S'p2_ll'
I0
tp1023
a(S'w'
I722
tp1024
a(S'p1_du'
I2
tp1025
a(S'p1_vo'
I7
tp1026
a(S'p1_sn'
I0
tp1027
a(S'w'
I5
tp1028
a(S'p2_du'
I2
tp1029
a(S'p2_vo'
I5
tp1030
a(S'p2_sn'
I0
tp1031
a(S'w'
I736
tp1032
a(S'no_ll'
I1
tp1033
a(S'w'
I727
tp1034
a(S'p1_du'
I0
tp1035
a(S'p1_vo'
I0
tp1036
a(S'w'
I7
tp1037
a(S'p2_du'
I0
tp1038
a(S'p2_vo'
I0
tp1039
a(S'w'
I7
tp1040
a(S'no_lh'
I0
tp1041
a(S'no_cv'
I0
tp1042
a(S'no_vo'
I1
tp1043
a(S'w'
I1458
tp1044
a(S'no_lh'
I1
tp1045
a(S'no_cv'
I1
tp1046
a(S'no_vo'
I0
tp1047
a(S'w'
I5135
tp1048
a(S'p1_sn'
I1
tp1049
a(S'w'
I1
tp1050
a(S'p1_ll'
I0
tp1051
a(S'w'
I8
tp1052
a(S'p2_sn'
I1
tp1053
a(S'p2_tl'
I142
tp1054
a(S'p2_ll'
I0
tp1055
a(S'w'
I722
tp1056
a(S'p1_du'
I2
tp1057
a(S'p1_vo'
I7
tp1058
a(S'p1_sn'
I0
tp1059
a(S'w'
I5
tp1060
a(S'p2_du'
I2
tp1061
a(S'p2_vo'
I5
tp1062
a(S'p2_sn'
I0
tp1063
a(S'w'
I735
tp1064
a(S'no_ll'
I1
tp1065
a(S'w'
I733
tp1066
a(S'no_lh'
I0
tp1067
a(S'no_cv'
I0
tp1068
a(S'no_vo'
I1
tp1069
a(S'w'
I1467
tp1070
a(S'no_lh'
I1
tp1071
a(S'no_cv'
I1
tp1072
a(S'no_vo'
I0
tp1073
a(S'w'
I734
tp1074
a(S'tr_lh'
I0
tp1075
a(S'tr_lr'
I48
tp1076
a(S'w'
I1
tp1077
a(S'tr_tl'
I64
tp1078
a(S'tr_ll'
I0
tp1079
a(S'w'
I730
tp1080
a(S'tr_lh'
I1
tp1081
a(S'tr_lr'
I40
tp1082
a(S'w'
I740
tp1083
a(S'no_ll'
I1
tp1084
a(S'w'
I729
tp1085
a(S'no_lh'
I0
tp1086
a(S'no_cv'
I0
tp1087
a(S'no_vo'
I1
tp1088
a(S'w'
I2201
tp1089
a(S'no_lh'
I1
tp1090
a(S'no_cv'
I1
tp1091
a(S'no_vo'
I0
tp1092
a(S'w'
I4402
tp1093
a(S'p1_du'
I0
tp1094
a(S'p1_vo'
I0
tp1095
a(S'p1_sn'
I1
tp1096
a(S'p1_tl'
I95
tp1097
a(S'w'
I1
tp1098
a(S'p1_ll'
I0
tp1099
a(S'w'
I8
tp1100
a(S'p2_du'
I0
tp1101
a(S'p2_vo'
I0
tp1102
a(S'p2_sn'
I1
tp1103
a(S'p2_ll'
I0
tp1104
a(S'w'
I8
tp1105
a(S'tr_lh'
I0
tp1106
a(S'tr_lr'
I48
tp1107
a(S'tr_tl'
I171
tp1108
a(S'w'
I1
tp1109
a(S'tr_ll'
I0
tp1110
a(S'w'
I713
tp1111
a(S'p1_du'
I2
tp1112
a(S'p1_vo'
I7
tp1113
a(S'p1_sn'
I0
tp1114
a(S'w'
I5
tp1115
a(S'p2_du'
I2
tp1116
a(S'p2_vo'
I5
tp1117
a(S'p2_sn'
I0
tp1118
a(S'w'
I5
tp1119
a(S'tr_lh'
I1
tp1120
a(S'tr_lr'
I40
tp1121
a(S'w'
I3662
tp1122
a(S'p1_du'
I0
tp1123
a(S'p1_vo'
I0
tp1124
a(S'p1_sn'
I1
tp1125
a(S'p1_tl'
I106
tp1126
a(S'w'
I1
tp1127
a(S'p1_ll'
I0
tp1128
a(S'w'
I8
tp1129
a(S'p2_du'
I0
tp1130
a(S'p2_vo'
I0
tp1131
a(S'p2_sn'
I1
tp1132
a(S'p2_ll'
I0
tp1133
a(S'w'
I722
tp1134
a(S'p1_du'
I2
tp1135
a(S'p1_vo'
I7
tp1136
a(S'p1_sn'
I0
tp1137
a(S'w'
I5
tp1138
a(S'p2_du'
I2
tp1139
a(S'p2_vo'
I5
tp1140
a(S'p2_sn'
I0
tp1141
a(S'w'
I735
tp1142
a(S'no_ll'
I1
tp1143
a(S'w'
I727
tp1144
a(S'p1_du'
I0
tp1145
a(S'p1_vo'
I0
tp1146
a(S'w'
I7
tp1147
a(S'p2_du'
I0
tp1148
a(S'p2_vo'
I0
tp1149
a(S'w'
I7
tp1150
a(S'no_lh'
I0
tp1151
a(S'no_cv'
I0
tp1152
a(S'no_vo'
I1
tp1153
a(S'w'
I1459
tp1154
a(S'no_lh'
I1
tp1155
a(S'no_cv'
I1
tp1156
a(S'no_vo'
I0
tp1157
a(S'w'
I5134
tp1158
a(S'p1_sn'
I1
tp1159
a(S'w'
I1
tp1160
a(S'p1_ll'
I0
tp1161
a(S'w'
I8
tp1162
a(S'p2_sn'
I1
tp1163
a(S'p2_tl'
I151
tp1164
a(S'p2_ll'
I0
tp1165
a(S'w'
I722
tp1166
a(S'p1_du'
I2
tp1167
a(S'p1_vo'
I7
tp1168
a(S'p1_sn'
I0
tp1169
a(S'w'
I5
tp1170
a(S'p2_du'
I2
tp1171
a(S'p2_vo'
I5
tp1172
a(S'p2_sn'
I0
tp1173
a(S'w'
I736
tp1174
a(S'no_ll'
I1
tp1175
a(S'w'
I733
tp1176
a(S'no_lh'
I0
tp1177
a(S'no_cv'
I0
tp1178
a(S'no_vo'
I1
tp1179
a(S'w'
I1466
tp1180
a(S'no_lh'
I1
tp1181
a(S'no_cv'
I1
tp1182
a(S'no_vo'
I0
tp1183
a(S'w'
I734
tp1184
a(S'tr_lh'
I0
tp1185
a(S'tr_lr'
I48
tp1186
a(S'w'
I1
tp1187
a(S'tr_tl'
I64
tp1188
a(S'tr_ll'
I0
tp1189
a(S'w'
I731
tp1190
a(S'tr_lh'
I1
tp1191
a(S'tr_lr'
I40
tp1192
a(S'w'
I737
tp1193
a(S'w'
I1
tp1194
a(S'no_ll'
I1
tp1195
a(S'w'
I730
tp1196
a(S'no_lh'
I0
tp1197
a(S'no_cv'
I0
tp1198
a(S'no_vo'
I1
tp1199
a(S'w'
I2202
tp1200
a(S'no_lh'
I1
tp1201
a(S'no_cv'
I1
tp1202
a(S'no_vo'
I0
tp1203
a(S'w'
I4402
tp1204
a(S'p1_du'
I0
tp1205
a(S'p1_vo'
I0
tp1206
a(S'p1_sn'
I1
tp1207
a(S'p1_tl'
I95
tp1208
a(S'w'
I1
tp1209
a(S'p1_ll'
I0
tp1210
a(S'w'
I8
tp1211
a(S'p2_du'
I0
tp1212
a(S'p2_vo'
I0
tp1213
a(S'p2_sn'
I1
tp1214
a(S'p2_ll'
I0
tp1215
a(S'w'
I8
tp1216
a(S'tr_lh'
I0
tp1217
a(S'tr_lr'
I48
tp1218
a(S'tr_tl'
I171
tp1219
a(S'w'
I1
tp1220
a(S'tr_ll'
I0
tp1221
a(S'w'
I712
tp1222
a(S'p1_du'
I2
tp1223
a(S'p1_vo'
I7
tp1224
a(S'p1_sn'
I0
tp1225
a(S'w'
I5
tp1226
a(S'p2_du'
I2
tp1227
a(S'p2_vo'
I5
tp1228
a(S'p2_sn'
I0
tp1229
a(S'w'
I5
tp1230
a(S'tr_lh'
I1
tp1231
a(S'tr_lr'
I40
tp1232
a(S'w'
I3662
tp1233
a(S'p1_du'
I0
tp1234
a(S'p1_vo'
I0
tp1235
a(S'p1_sn'
I1
tp1236
a(S'p1_tl'
I106
tp1237
a(S'w'
I1
tp1238
a(S'p1_ll'
I0
tp1239
a(S'w'
I8
tp1240
a(S'p2_du'
I0
tp1241
a(S'p2_vo'
I0
tp1242
a(S'p2_sn'
I1
tp1243
a(S'p2_tl'
I142
tp1244
a(S'p2_ll'
I0
tp1245
a(S'w'
I8
tp1246
a(S'tr_lh'
I0
tp1247
a(S'tr_lr'
I48
tp1248
a(S'w'
I1
tp1249
a(S'tr_ll'
I0
tp1250
a(S'w'
I713
tp1251
a(S'p1_du'
I2
tp1252
a(S'p1_vo'
I7
tp1253
a(S'p1_sn'
I0
tp1254
a(S'w'
I5
tp1255
a(S'p2_du'
I2
tp1256
a(S'p2_vo'
I5
tp1257
a(S'p2_sn'
I0
tp1258
a(S'w'
I5
tp1259
a(S'tr_lh'
I1
tp1260
a(S'tr_lr'
I40
tp1261
a(S'w'
I732
tp1262
a(S'no_ll'
I1
tp1263
a(S'w'
I732
tp1264
a(S'no_lh'
I0
tp1265
a(S'no_cv'
I0
tp1266
a(S'no_vo'
I1
tp1267
a(S'w'
I1466
tp1268
a(S'no_lh'
I1
tp1269
a(S'no_cv'
I1
tp1270
a(S'no_vo'
I0
tp1271
a(S'w'
I5135
tp1272
a(S'p1_du'
I0
tp1273
a(S'p1_vo'
I0
tp1274
a(S'p1_sn'
I1
tp1275
a(S'p1_tl'
I95
tp1276
a(S'w'
I1
tp1277
a(S'p1_ll'
I0
tp1278
a(S'w'
I8
tp1279
a(S'p2_du'
I0
tp1280
a(S'p2_vo'
I0
tp1281
a(S'p2_sn'
I1
tp1282
a(S'p2_tl'
I127
tp1283
a(S'p2_ll'
I0
tp1284
a(S'w'
I8
tp1285
a(S'tr_lh'
I0
tp1286
a(S'tr_lr'
I48
tp1287
a(S'tr_tl'
I125
tp1288
a(S'w'
I1
tp1289
a(S'tr_ll'
I0
tp1290
a(S'w'
I713
tp1291
a(S'p1_du'
I2
tp1292
a(S'p1_vo'
I7
tp1293
a(S'p1_sn'
I0
tp1294
a(S'w'
I5
tp1295
a(S'p2_du'
I2
tp1296
a(S'p2_vo'
I5
tp1297
a(S'p2_sn'
I0
tp1298
a(S'w'
I5
tp1299
a(S'tr_lh'
I1
tp1300
a(S'tr_lr'
I40
tp1301
a(S'w'
I731
tp1302
a(S'no_ll'
I1
tp1303
a(S'w'
I732
tp1304
a(S'no_lh'
I0
tp1305
a(S'no_cv'
I0
tp1306
a(S'no_vo'
I1
tp1307
a(S'w'
I1467
tp1308
a(S'no_lh'
I1
tp1309
a(S'no_cv'
I1
tp1310
a(S'no_vo'
I0
tp1311
a(S'w'
I732
tp1312
a(S'p1_du'
I0
tp1313
a(S'p1_vo'
I0
tp1314
a(S'p1_sn'
I1
tp1315
a(S'p1_tl'
I84
tp1316
a(S'w'
I1
tp1317
a(S'p1_ll'
I0
tp1318
a(S'w'
I8
tp1319
a(S'p2_du'
I0
tp1320
a(S'p2_vo'
I0
tp1321
a(S'p2_sn'
I1
tp1322
a(S'p2_tl'
I112
tp1323
a(S'p2_ll'
I0
tp1324
a(S'w'
I8
tp1325
a(S'tr_lh'
I0
tp1326
a(S'tr_lr'
I48
tp1327
a(S'tr_tl'
I171
tp1328
a(S'w'
I1
tp1329
a(S'tr_ll'
I0
tp1330
a(S'w'
I712
tp1331
a(S'p1_du'
I2
tp1332
a(S'p1_vo'
I7
tp1333
a(S'p1_sn'
I0
tp1334
a(S'w'
I5
tp1335
a(S'p2_du'
I2
tp1336
a(S'p2_vo'
I5
tp1337
a(S'p2_sn'
I0
tp1338
a(S'w'
I5
tp1339
a(S'tr_lh'
I1
tp1340
a(S'tr_lr'
I40
tp1341
a(S'w'
I734
tp1342
a(S'no_ll'
I1
tp1343
a(S'w'
I730
tp1344
a(S'no_lh'
I0
tp1345
a(S'no_cv'
I0
tp1346
a(S'no_vo'
I1
tp1347
a(S'w'
I2195
tp1348
a(S'p1_du'
I0
tp1349
a(S'p1_vo'
I0
tp1350
a(S'w'
I6
tp1351
a(S'p2_du'
I0
tp1352
a(S'p2_vo'
I0
tp1353
a(S'w'
I6
tp1354
a(S'tr_lh'
I0
tp1355
a(S'tr_lr'
I48
tp1356
a(S'w'
I1461
tp1357
a(S'no_lh'
I1
tp1358
a(S'no_cv'
I1
tp1359
a(S'no_vo'
I0
tp1360
a(S'w'
I20544
tp1361
a(S'p1_sn'
I1
tp1362
a(S'w'
I1
tp1363
a(S'p1_ll'
I0
tp1364
a(S'w'
I8
tp1365
a(S'p2_sn'
I1
tp1366
a(S'p2_ll'
I0
tp1367
a(S'w'
I9
tp1368
a(S'tr_ll'
I0
tp1369
a(S'w'
I713
tp1370
a(S'p1_du'
I2
tp1371
a(S'p1_vo'
I7
tp1372
a(S'p1_sn'
I0
tp1373
a(S'w'
I5
tp1374
a(S'p2_du'
I2
tp1375
a(S'p2_vo'
I5
tp1376
a(S'p2_sn'
I0
tp1377
a(S'w'
I5
tp1378
a(S'tr_lh'
I1
tp1379
a(S'tr_lr'
I40
tp1380
a(S'w'
I732
tp1381
a(S'no_ll'
I1
tp1382
a(S'w'
I731
tp1383
a(S'no_lh'
I0
tp1384
a(S'no_cv'
I0
tp1385
a(S'no_vo'
I1
tp1386
a(S'w'
I2200
tp1387
a(S'no_lh'
I1
tp1388
a(S'no_cv'
I1
tp1389
a(S'no_vo'
I0
tp1390
a(S'w'
I4401
tp1391
a(S'p1_du'
I0
tp1392
a(S'p1_vo'
I0
tp1393
a(S'p1_sn'
I1
tp1394
a(S'w'
I1
tp1395
a(S'p1_ll'
I0
tp1396
a(S'w'
I8
tp1397
a(S'p2_du'
I0
tp1398
a(S'p2_vo'
I0
tp1399
a(S'p2_sn'
I1
tp1400
a(S'p2_ll'
I0
tp1401
a(S'w'
I8
tp1402
a(S'tr_lh'
I0
tp1403
a(S'tr_lr'
I48
tp1404
a(S'w'
I1
tp1405
a(S'tr_ll'
I0
tp1406
a(S'w'
I713
tp1407
a(S'p1_du'
I2
tp1408
a(S'p1_vo'
I7
tp1409
a(S'p1_sn'
I0
tp1410
a(S'w'
I5
tp1411
a(S'p2_du'
I2
tp1412
a(S'p2_vo'
I5
tp1413
a(S'p2_sn'
I0
tp1414
a(S'w'
I5
tp1415
a(S'tr_lh'
I1
tp1416
a(S'tr_lr'
I40
tp1417
a(S'w'
I732
tp1418
a(S'no_ll'
I1
tp1419
a(S'w'
I732
tp1420
a(S'no_lh'
I0
tp1421
a(S'no_cv'
I0
tp1422
a(S'no_vo'
I1
tp1423
a(S'w'
I1466
tp1424
a(S'no_lh'
I1
tp1425
a(S'no_cv'
I1
tp1426
a(S'no_vo'
I0
tp1427
a(S'w'
I729
tp1428
a(S'p1_du'
I0
tp1429
a(S'p1_vo'
I0
tp1430
a(S'w'
I6
tp1431
a(S'p2_du'
I0
tp1432
a(S'p2_vo'
I0
tp1433
a(S'w'
I6
tp1434
a(S'tr_lh'
I0
tp1435
a(S'tr_lr'
I48
tp1436
a(S'w'
I8797
tp1437
a(S'p1_sn'
I1
tp1438
a(S'p1_tl'
I106
tp1439
a(S'w'
I1
tp1440
a(S'p1_ll'
I0
tp1441
a(S'w'
I8
tp1442
a(S'p2_sn'
I1
tp1443
a(S'p2_tl'
I142
tp1444
a(S'p2_ll'
I0
tp1445
a(S'w'
I9
tp1446
a(S'tr_ll'
I0
tp1447
a(S'w'
I713
tp1448
a(S'p1_du'
I2
tp1449
a(S'p1_vo'
I7
tp1450
a(S'p1_sn'
I0
tp1451
a(S'w'
I5
tp1452
a(S'p2_du'
I2
tp1453
a(S'p2_vo'
I5
tp1454
a(S'p2_sn'
I0
tp1455
a(S'w'
I5
tp1456
a(S'tr_lh'
I1
tp1457
a(S'tr_lr'
I40
tp1458
a(S'w'
I731
tp1459
a(S'no_ll'
I1
tp1460
a(S'w'
I732
tp1461
a(S'no_lh'
I0
tp1462
a(S'no_cv'
I0
tp1463
a(S'no_vo'
I1
tp1464
a(S'w'
I1467
tp1465
a(S'no_lh'
I1
tp1466
a(S'no_cv'
I1
tp1467
a(S'no_vo'
I0
tp1468
a(S'w'
I728
tp1469
a(S'p1_du'
I0
tp1470
a(S'p1_vo'
I0
tp1471
a(S'w'
I6
tp1472
a(S'p2_du'
I0
tp1473
a(S'p2_vo'
I0
tp1474
a(S'w'
I6
tp1475
a(S'tr_lh'
I0
tp1476
a(S'tr_lr'
I48
tp1477
a(S'w'
I22006
tp1478
a(S'p1_sn'
I1
tp1479
a(S'p1_tl'
I53
tp1480
a(S'p1_ll'
I0
tp1481
a(S'w'
I9
tp1482
a(S'p2_sn'
I1
tp1483
a(S'p2_tl'
I71
tp1484
a(S'p2_ll'
I0
tp1485
a(S'w'
I721
tp1486
a(S'p1_du'
I2
tp1487
a(S'p1_vo'
I7
tp1488
a(S'p1_sn'
I0
tp1489
a(S'w'
I5
tp1490
a(S'p2_du'
I2
tp1491
a(S'p2_vo'
I5
tp1492
a(S'p2_sn'
I0
tp1493
a(S'w'
I3664
tp1494
a(S'p1_du'
I0
tp1495
a(S'p1_vo'
I0
tp1496
a(S'w'
I6
tp1497
a(S'p2_du'
I0
tp1498
a(S'p2_vo'
I0
tp1499
a(S'w'
I45590
tp1500
a.