(lp1
(S'clock'
p2
I1789772
tp3
a(S'p1_cv'
I1
tp4
a(S'p1_se'
I1
tp5
a(S'p1_ss'
I3
tp6
a(S'p1_tl'
I96
tp7
a(S'p1_ll'
I13
tp8
a(S'p2_cv'
I1
tp9
a(S'p2_sp'
I7
tp10
a(S'p2_sn'
I1
tp11
a(S'p2_ss'
I7
tp12
a(S'p2_tl'
I98
tp13
a(S'p2_ll'
I13
tp14
a(S'tr_tl'
I69
tp15
a(S'tr_ll'
I5
tp16
a(S'no_cv'
I1
tp17
a(S'no_np'
I1
tp18
a(S'no_ll'
I3
tp19
a(S'ch_no'
I1
tp20
a(S'ch_tr'
I1
tp21
a(S'ch_p2'
I1
tp22
a(S'ch_p1'
I1
tp23
a(S'fc_mo'
I1
tp24
a(S'p2_tl'
I200
tp25
a(S'p2_ll'
I1
tp26
a(S'w'
I1
tp27
a(S'p2_du'
I2
tp28
a(S'p2_cv'
I0
tp29
a(S'w'
I8
tp30
a(S'no_cv'
I0
tp31
a(S'no_ll'
I17
tp32
a(S'w'
I4400
tp33
a(S'w'
I1
tp34
a(S'p2_ll'
I1
tp35
a(S'w'
I1469
tp36
a(S'no_cv'
I1
tp37
a(S'no_ll'
I3
tp38
a(S'w'
I2937
tp39
a(S'p2_ll'
I1
tp40
a(S'w'
I2943
tp41
a(S'no_cv'
I0
tp42
a(S'no_ll'
I17
tp43
a(S'w'
I1467
tp44
a(S'p2_ll'
I1
tp45
a(S'w'
I4409
tp46
a(S'p1_tl'
I171
tp47
a(S'p1_ll'
I1
tp48
a(S'p1_th'
I1
tp49
a(S'p1_du'
I2
tp50
a(S'p1_cv'
I0
tp51
a(S'w'
I5
tp52
a(S'p2_ll'
I1
tp53
a(S'w'
I5
tp54
a(S'tr_lr'
I56
tp55
a(S'w'
I1
tp56
a(S'tr_tl'
I252
tp57
a(S'tr_ll'
I1
tp58
a(S'tr_th'
I1
tp59
a(S'w'
I5
tp60
a(S'no_cv'
I1
tp61
a(S'w'
I1
tp62
a(S'no_ll'
I3
tp63
a(S'w'
I11745
tp64
a(S'tr_tl'
I166
tp65
a(S'w'
I1
tp66
a(S'tr_ll'
I1
tp67
a(S'tr_th'
I2
tp68
a(S'w'
I5877
tp69
a(S'p1_du'
I0
tp70
a(S'p1_cv'
I1
tp71
a(S'w'
I5
tp72
a(S'p2_tl'
I168
tp73
a(S'p2_ll'
I1
tp74
a(S'w'
I6
tp75
a(S'no_cv'
I0
tp76
a(S'w'
I1
tp77
a(S'no_ll'
I17
tp78
a(S'w'
I5870
tp79
a(S'p2_du'
I0
tp80
a(S'p2_cv'
I1
tp81
a(S'w'
I3
tp82
a(S'tr_tl'
I252
tp83
a(S'w'
I1
tp84
a(S'tr_ll'
I1
tp85
a(S'tr_th'
I1
tp86
a(S'w'
I3
tp87
a(S'no_cv'
I1
tp88
a(S'w'
I1
tp89
a(S'no_ll'
I3
tp90
a(S'w'
I5871
tp91
a(S'p2_tl'
I200
tp92
a(S'p2_ll'
I1
tp93
a(S'w'
I1
tp94
a(S'p2_du'
I2
tp95
a(S'p2_cv'
I0
tp96
a(S'w'
I5
tp97
a(S'no_cv'
I0
tp98
a(S'no_ll'
I17
tp99
a(S'w'
I5881
tp100
a(S'p2_du'
I0
tp101
a(S'p2_cv'
I1
tp102
a(S'w'
I4
tp103
a(S'tr_lr'
I60
tp104
a(S'w'
I2
tp105
a(S'tr_lr'
I0
tp106
a(S'w'
I3
tp107
a(S'no_cv'
I1
tp108
a(S'no_ll'
I3
tp109
a(S'w'
I5867
tp110
a(S'no_cv'
I0
tp111
a(S'no_ll'
I17
tp112
a(S'w'
I5880
tp113
a(S'no_cv'
I1
tp114
a(S'no_ll'
I3
tp115
a(S'w'
I5885
tp116
a(S'tr_lr'
I24
tp117
a(S'w'
I1
tp118
a(S'tr_tl'
I28
tp119
a(S'tr_ll'
I1
tp120
a(S'w'
I4
tp121
a(S'no_cv'
I0
tp122
a(S'no_ll'
I17
tp123
a(S'w'
I5874
tp124
a(S'tr_tl'
I124
tp125
a(S'tr_ll'
I1
tp126
a(S'w'
I4
tp127
a(S'no_cv'
I1
tp128
a(S'no_ll'
I3
tp129
a(S'w'
I5870
tp130
a(S'tr_tl'
I196
tp131
a(S'w'
I1
tp132
a(S'tr_ll'
I1
tp133
a(S'w'
I4
tp134
a(S'no_cv'
I0
tp135
a(S'no_ll'
I17
tp136
a(S'w'
I5873
tp137
a(S'p1_tl'
I171
tp138
a(S'p1_ll'
I1
tp139
a(S'p1_du'
I2
tp140
a(S'p1_cv'
I0
tp141
a(S'w'
I5
tp142
a(S'p2_tl'
I189
tp143
a(S'p2_ll'
I1
tp144
a(S'w'
I1
tp145
a(S'p2_du'
I2
tp146
a(S'p2_cv'
I0
tp147
a(S'w'
I4
tp148
a(S'tr_lr'
I60
tp149
a(S'w'
I1
tp150
a(S'tr_tl'
I58
tp151
a(S'tr_ll'
I1
tp152
a(S'tr_th'
I2
tp153
a(S'w'
I4
tp154
a(S'w'
I1
tp155
a(S'no_ll'
I17
tp156
a(S'w'
I5865
tp157
a(S'p2_tl'
I141
tp158
a(S'p2_ll'
I1
tp159
a(S'w'
I6
tp160
a(S'no_cv'
I1
tp161
a(S'no_ll'
I3
tp162
a(S'w'
I5874
tp163
a(S'p2_tl'
I189
tp164
a(S'p2_ll'
I1
tp165
a(S'w'
I6
tp166
a(S'no_ll'
I3
tp167
a(S'w'
I5873
tp168
a(S'p1_du'
I0
tp169
a(S'p1_cv'
I1
tp170
a(S'w'
I4
tp171
a(S'p2_tl'
I141
tp172
a(S'p2_ll'
I1
tp173
a(S'w'
I5
tp174
a(S'tr_lr'
I0
tp175
a(S'w'
I3
tp176
a(S'no_cv'
I0
tp177
a(S'no_ll'
I17
tp178
a(S'w'
I5870
tp179
a(S'p2_du'
I0
tp180
a(S'p2_cv'
I1
tp181
a(S'w'
I5
tp182
a(S'no_cv'
I1
tp183
a(S'no_ll'
I3
tp184
a(S'w'
I5874
tp185
a(S'p2_tl'
I189
tp186
a(S'p2_ll'
I1
tp187
a(S'w'
I1
tp188
a(S'p2_du'
I2
tp189
a(S'p2_cv'
I0
tp190
a(S'w'
I5
tp191
a(S'no_cv'
I0
tp192
a(S'no_vo'
I2
tp193
a(S'no_np'
I2
tp194
a(S'no_ll'
I8
tp195
a(S'w'
I5881
tp196
a(S'p2_du'
I0
tp197
a(S'p2_cv'
I1
tp198
a(S'w'
I5
tp199
a(S'tr_lr'
I60
tp200
a(S'w'
I2
tp201
a(S'tr_lr'
I0
tp202
a(S'w'
I5
tp203
a(S'no_cv'
I1
tp204
a(S'no_vo'
I0
tp205
a(S'no_np'
I1
tp206
a(S'no_ll'
I3
tp207
a(S'w'
I17625
tp208
a(S'p2_tl'
I200
tp209
a(S'p2_ll'
I1
tp210
a(S'w'
I1
tp211
a(S'p2_du'
I2
tp212
a(S'p2_cv'
I0
tp213
a(S'w'
I8
tp214
a(S'no_cv'
I0
tp215
a(S'no_ll'
I17
tp216
a(S'w'
I4397
tp217
a(S'p2_ll'
I1
tp218
a(S'w'
I1473
tp219
a(S'no_cv'
I1
tp220
a(S'no_ll'
I3
tp221
a(S'w'
I2937
tp222
a(S'p2_ll'
I1
tp223
a(S'w'
I2943
tp224
a(S'no_cv'
I0
tp225
a(S'no_ll'
I17
tp226
a(S'w'
I1467
tp227
a(S'p2_ll'
I1
tp228
a(S'w'
I4409
tp229
a(S'p1_tl'
I171
tp230
a(S'p1_ll'
I1
tp231
a(S'p1_du'
I2
tp232
a(S'p1_cv'
I0
tp233
a(S'w'
I5
tp234
a(S'p2_ll'
I1
tp235
a(S'w'
I5
tp236
a(S'tr_lr'
I56
tp237
a(S'w'
I1
tp238
a(S'tr_tl'
I252
tp239
a(S'tr_ll'
I1
tp240
a(S'tr_th'
I1
tp241
a(S'w'
I5
tp242
a(S'no_cv'
I1
tp243
a(S'w'
I1
tp244
a(S'no_ll'
I3
tp245
a(S'w'
I11745
tp246
a(S'tr_tl'
I166
tp247
a(S'w'
I1
tp248
a(S'tr_ll'
I1
tp249
a(S'tr_th'
I2
tp250
a(S'w'
I5877
tp251
a(S'p1_du'
I0
tp252
a(S'p1_cv'
I1
tp253
a(S'w'
I5
tp254
a(S'p2_tl'
I168
tp255
a(S'p2_ll'
I1
tp256
a(S'w'
I6
tp257
a(S'no_cv'
I0
tp258
a(S'w'
I1
tp259
a(S'no_ll'
I17
tp260
a(S'w'
I5870
tp261
a(S'p2_du'
I0
tp262
a(S'p2_cv'
I1
tp263
a(S'w'
I3
tp264
a(S'tr_tl'
I252
tp265
a(S'w'
I1
tp266
a(S'tr_ll'
I1
tp267
a(S'tr_th'
I1
tp268
a(S'w'
I3
tp269
a(S'no_cv'
I1
tp270
a(S'w'
I1
tp271
a(S'no_ll'
I3
tp272
a(S'w'
I5871
tp273
a(S'p2_tl'
I200
tp274
a(S'p2_ll'
I1
tp275
a(S'w'
I1
tp276
a(S'p2_du'
I2
tp277
a(S'p2_cv'
I0
tp278
a(S'w'
I5
tp279
a(S'no_cv'
I0
tp280
a(S'no_ll'
I17
tp281
a(S'w'
I5872
tp282
a(S'no_cv'
I1
tp283
a(S'p2_du'
I0
tp284
a(S'p2_cv'
I1
tp285
a(S'w'
I1
tp286
a(S'tr_lr'
I0
tp287
a.