(lp1
(S'clock'
p2
I1789772
tp3
a(S'p1_du'
I2
tp4
a(S'p1_cv'
I1
tp5
a(S'p1_vo'
I6
tp6
a(S'p1_se'
I1
tp7
a(S'p1_sp'
I2
tp8
a(S'p1_sn'
I1
tp9
a(S'p1_ss'
I3
tp10
a(S'p1_tl'
I121
tp11
a(S'p1_ll'
I15
tp12
a(S'p2_du'
I3
tp13
a(S'p2_cv'
I1
tp14
a(S'p2_vo'
I7
tp15
a(S'p2_se'
I1
tp16
a(S'p2_ss'
I6
tp17
a(S'p2_tl'
I48
tp18
a(S'p2_ll'
I5
tp19
a(S'tr_tl'
I83
tp20
a(S'tr_ll'
I1
tp21
a(S'no_cv'
I1
tp22
a(S'no_np'
I10
tp23
a(S'no_ll'
I24
tp24
a(S'ch_no'
I1
tp25
a(S'ch_tr'
I1
tp26
a(S'ch_p2'
I1
tp27
a(S'ch_p1'
I1
tp28
a(S'fc_mo'
I1
tp29
a(S'w'
I2
tp30
a(S'no_cv'
I0
tp31
a(S'no_vo'
I6
tp32
a(S'w'
I1
tp33
a(S'w'
I1
tp34
a(S'no_ll'
I24
tp35
a(S'w'
I1459
tp36
a(S'no_cv'
I1
tp37
a(S'no_vo'
I0
tp38
a(S'p1_du'
I0
tp39
a(S'p1_vo'
I0
tp40
a(S'p2_du'
I0
tp41
a(S'p2_vo'
I0
tp42
a(S'w'
I2
tp43
a(S'p2_du'
I2
tp44
a(S'p2_lh'
I1
tp45
a(S'p2_vo'
I7
tp46
a(S'w'
I1
tp47
a(S'p2_sp'
I5
tp48
a(S'p2_ss'
I5
tp49
a(S'p2_tl'
I34
tp50
a(S'w'
I1
tp51
a(S'p2_ll'
I0
tp52
a(S'w'
I1
tp53
a(S'p1_du'
I2
tp54
a(S'p1_lh'
I1
tp55
a(S'p1_vo'
I7
tp56
a(S'w'
I1
tp57
a(S'p1_sp'
I5
tp58
a(S'p1_sn'
I0
tp59
a(S'p1_ss'
I5
tp60
a(S'p1_tl'
I32
tp61
a(S'w'
I1
tp62
a(S'p1_ll'
I0
tp63
a(S'w'
I4
tp64
a(S'no_cv'
I0
tp65
a(S'no_vo'
I6
tp66
a(S'w'
I1
tp67
a(S'w'
I1
tp68
a(S'no_ll'
I24
tp69
a(S'w'
I74957
tp70
a(S'no_cv'
I1
tp71
a(S'no_vo'
I0
tp72
a(S'p1_du'
I0
tp73
a(S'p1_lh'
I0
tp74
a(S'p1_vo'
I0
tp75
a(S'p2_du'
I0
tp76
a(S'p2_lh'
I0
tp77
a(S'p2_vo'
I0
tp78
a(S'w'
I2
tp79
a(S'p2_du'
I2
tp80
a(S'p2_vo'
I7
tp81
a(S'w'
I1
tp82
a(S'p2_sp'
I1
tp83
a(S'p2_ss'
I3
tp84
a(S'p2_tl'
I130
tp85
a(S'w'
I1
tp86
a(S'p2_ll'
I4
tp87
a(S'p2_th'
I2
tp88
a(S'w'
I1
tp89
a(S'p1_du'
I2
tp90
a(S'p1_vo'
I7
tp91
a(S'p1_sp'
I1
tp92
a(S'p1_ss'
I3
tp93
a(S'w'
I1
tp94
a(S'p1_tl'
I128
tp95
a(S'p1_ll'
I4
tp96
a(S'p1_th'
I2
tp97
a(S'w'
I5
tp98
a(S'no_cv'
I0
tp99
a(S'no_vo'
I8
tp100
a(S'w'
I1
tp101
a(S'no_ll'
I24
tp102
a(S'w'
I11755
tp103
a(S'no_np'
I5
tp104
a(S'no_ll'
I24
tp105
a(S'w'
I53648
tp106
a(S'no_cv'
I1
tp107
a(S'no_vo'
I0
tp108
a(S'p1_du'
I0
tp109
a(S'p1_vo'
I0
tp110
a(S'p2_du'
I0
tp111
a(S'p2_vo'
I0
tp112
a(S'w'
I1
tp113
a.