(lp1
(S'clock'
p2
I1789772
tp3
a(S'w'
I1
tp4
a(S'fc_mo'
I1
tp5
a(S'w'
I9
tp6
a(S'p1_sp'
I7
tp7
a(S'p1_sn'
I1
tp8
a(S'p1_ss'
I7
tp9
a(S'p2_sp'
I7
tp10
a(S'p2_sn'
I1
tp11
a(S'p2_ss'
I7
tp12
a(S'w'
I3
tp13
a(S'p2_tl'
I28
tp14
a(S'p2_ll'
I1
tp15
a(S'p2_th'
I1
tp16
a(S'w'
I1
tp17
a(S'p2_du'
I2
tp18
a(S'p2_vo'
I2
tp19
a(S'p2_du'
I1
tp20
a(S'p2_cv'
I1
tp21
a(S'p2_vo'
I7
tp22
a(S'w'
I3
tp23
a(S'tr_lr'
I32
tp24
a(S'tr_tl'
I171
tp25
a(S'w'
I1
tp26
a(S'tr_ll'
I1
tp27
a(S'tr_th'
I1
tp28
a(S'w'
I725
tp29
a(S'p2_vo'
I6
tp30
a(S'w'
I2935
tp31
a(S'p2_vo'
I5
tp32
a(S'w'
I2202
tp33
a(S'p2_vo'
I4
tp34
a(S'w'
I1468
tp35
a(S'p2_tl'
I168
tp36
a(S'p2_ll'
I1
tp37
a(S'p2_th'
I0
tp38
a(S'w'
I1
tp39
a(S'p2_du'
I2
tp40
a(S'p2_cv'
I0
tp41
a(S'p2_vo'
I2
tp42
a(S'w'
I1
tp43
a(S'p2_du'
I1
tp44
a(S'p2_cv'
I1
tp45
a(S'p2_vo'
I7
tp46
a(S'w'
I3
tp47
a(S'tr_tl'
I82
tp48
a(S'tr_ll'
I1
tp49
a(S'w'
I728
tp50
a(S'p2_vo'
I6
tp51
a(S'w'
I2936
tp52
a(S'p2_tl'
I212
tp53
a(S'p2_ll'
I1
tp54
a(S'w'
I1
tp55
a(S'p2_du'
I2
tp56
a(S'p2_cv'
I0
tp57
a(S'p2_vo'
I2
tp58
a(S'w'
I1
tp59
a(S'p2_du'
I1
tp60
a(S'p2_cv'
I1
tp61
a(S'p2_vo'
I7
tp62
a(S'w'
I731
tp63
a(S'p2_vo'
I6
tp64
a(S'w'
I2936
tp65
a(S'p2_tl'
I28
tp66
a(S'p2_ll'
I1
tp67
a(S'p2_th'
I1
tp68
a(S'w'
I1
tp69
a(S'p2_du'
I2
tp70
a(S'p2_cv'
I0
tp71
a(S'p2_vo'
I2
tp72
a(S'w'
I1
tp73
a(S'p2_du'
I1
tp74
a(S'p2_cv'
I1
tp75
a(S'p2_vo'
I7
tp76
a(S'w'
I3
tp77
a(S'tr_tl'
I28
tp78
a(S'tr_ll'
I1
tp79
a(S'w'
I728
tp80
a(S'p2_vo'
I6
tp81
a(S'w'
I2936
tp82
a(S'p2_tl'
I168
tp83
a(S'p2_ll'
I1
tp84
a(S'p2_th'
I0
tp85
a(S'w'
I1
tp86
a(S'p2_du'
I2
tp87
a(S'p2_cv'
I0
tp88
a(S'p2_vo'
I2
tp89
a(S'w'
I1
tp90
a(S'p2_du'
I1
tp91
a(S'p2_cv'
I1
tp92
a(S'p2_vo'
I7
tp93
a(S'w'
I731
tp94
a(S'p2_vo'
I6
tp95
a(S'w'
I2936
tp96
a(S'p2_tl'
I212
tp97
a(S'p2_ll'
I1
tp98
a(S'w'
I1
tp99
a(S'p2_du'
I2
tp100
a(S'p2_cv'
I0
tp101
a(S'p2_vo'
I2
tp102
a(S'w'
I1
tp103
a(S'p2_du'
I1
tp104
a(S'p2_cv'
I1
tp105
a(S'p2_vo'
I7
tp106
a(S'w'
I3
tp107
a(S'tr_tl'
I253
tp108
a(S'tr_ll'
I1
tp109
a(S'tr_th'
I0
tp110
a(S'w'
I728
tp111
a(S'p2_vo'
I6
tp112
a(S'w'
I2936
tp113
a(S'p2_tl'
I28
tp114
a(S'p2_ll'
I1
tp115
a(S'p2_th'
I1
tp116
a(S'w'
I1
tp117
a(S'p2_du'
I2
tp118
a(S'p2_cv'
I0
tp119
a(S'p2_vo'
I2
tp120
a(S'w'
I1
tp121
a(S'p2_du'
I1
tp122
a(S'p2_cv'
I1
tp123
a(S'p2_vo'
I7
tp124
a(S'w'
I731
tp125
a(S'p2_vo'
I6
tp126
a(S'w'
I2936
tp127
a(S'p2_tl'
I168
tp128
a(S'p2_ll'
I1
tp129
a(S'p2_th'
I0
tp130
a(S'w'
I1
tp131
a(S'p2_du'
I2
tp132
a(S'p2_cv'
I0
tp133
a(S'p2_vo'
I2
tp134
a(S'w'
I1
tp135
a(S'p2_du'
I1
tp136
a(S'p2_cv'
I1
tp137
a(S'p2_vo'
I7
tp138
a(S'w'
I3
tp139
a(S'tr_tl'
I212
tp140
a(S'tr_ll'
I1
tp141
a(S'w'
I728
tp142
a(S'p2_vo'
I6
tp143
a(S'w'
I2936
tp144
a(S'p2_tl'
I212
tp145
a(S'p2_ll'
I1
tp146
a(S'w'
I1
tp147
a(S'p2_du'
I2
tp148
a(S'p2_cv'
I0
tp149
a(S'p2_vo'
I2
tp150
a(S'w'
I1
tp151
a(S'p2_du'
I1
tp152
a(S'p2_cv'
I1
tp153
a(S'p2_vo'
I7
tp154
a(S'w'
I731
tp155
a(S'p2_vo'
I6
tp156
a(S'w'
I2936
tp157
a(S'p2_tl'
I28
tp158
a(S'p2_ll'
I1
tp159
a(S'p2_th'
I1
tp160
a(S'w'
I1
tp161
a(S'p2_du'
I2
tp162
a(S'p2_cv'
I0
tp163
a(S'p2_vo'
I2
tp164
a(S'w'
I1
tp165
a(S'p2_du'
I1
tp166
a(S'p2_cv'
I1
tp167
a(S'p2_vo'
I7
tp168
a(S'w'
I3
tp169
a(S'tr_tl'
I253
tp170
a(S'tr_ll'
I1
tp171
a(S'w'
I728
tp172
a(S'p2_vo'
I6
tp173
a(S'w'
I2936
tp174
a(S'p2_tl'
I168
tp175
a(S'p2_ll'
I1
tp176
a(S'p2_th'
I0
tp177
a(S'w'
I1
tp178
a(S'p2_du'
I2
tp179
a(S'p2_cv'
I0
tp180
a(S'p2_vo'
I2
tp181
a(S'w'
I1
tp182
a(S'p2_du'
I1
tp183
a(S'p2_cv'
I1
tp184
a(S'p2_vo'
I7
tp185
a(S'w'
I731
tp186
a(S'p2_vo'
I6
tp187
a(S'w'
I2936
tp188
a(S'p2_tl'
I212
tp189
a(S'p2_ll'
I1
tp190
a(S'w'
I1
tp191
a(S'p2_du'
I2
tp192
a(S'p2_cv'
I0
tp193
a(S'p2_vo'
I2
tp194
a(S'w'
I1
tp195
a(S'p2_du'
I1
tp196
a(S'p2_cv'
I1
tp197
a(S'p2_vo'
I7
tp198
a(S'w'
I3
tp199
a(S'tr_tl'
I28
tp200
a(S'tr_ll'
I1
tp201
a(S'tr_th'
I1
tp202
a(S'w'
I728
tp203
a(S'p2_vo'
I6
tp204
a(S'w'
I2936
tp205
a(S'p2_tl'
I28
tp206
a(S'p2_ll'
I1
tp207
a(S'p2_th'
I1
tp208
a(S'w'
I1
tp209
a(S'p2_du'
I2
tp210
a(S'p2_cv'
I0
tp211
a(S'p2_vo'
I2
tp212
a(S'w'
I1
tp213
a(S'p2_du'
I1
tp214
a(S'p2_cv'
I1
tp215
a(S'p2_vo'
I7
tp216
a(S'w'
I731
tp217
a(S'p2_vo'
I6
tp218
a(S'w'
I2936
tp219
a(S'p2_tl'
I168
tp220
a(S'p2_ll'
I1
tp221
a(S'p2_th'
I0
tp222
a(S'w'
I1
tp223
a(S'p2_du'
I2
tp224
a(S'p2_cv'
I0
tp225
a(S'p2_vo'
I2
tp226
a(S'w'
I1
tp227
a(S'p2_du'
I1
tp228
a(S'p2_cv'
I1
tp229
a(S'p2_vo'
I7
tp230
a(S'w'
I3
tp231
a(S'tr_tl'
I82
tp232
a(S'tr_ll'
I1
tp233
a(S'w'
I728
tp234
a(S'p2_vo'
I6
tp235
a(S'w'
I2936
tp236
a(S'p2_tl'
I212
tp237
a(S'p2_ll'
I1
tp238
a(S'w'
I1
tp239
a(S'p2_du'
I2
tp240
a(S'p2_cv'
I0
tp241
a(S'p2_vo'
I2
tp242
a(S'w'
I1
tp243
a(S'p2_du'
I1
tp244
a(S'p2_cv'
I1
tp245
a(S'p2_vo'
I7
tp246
a(S'w'
I731
tp247
a(S'p2_vo'
I6
tp248
a(S'w'
I2927
tp249
a(S'fc_mo'
I1
tp250
a(S'w'
I9
tp251
a(S'p2_tl'
I253
tp252
a(S'p2_ll'
I1
tp253
a(S'w'
I1
tp254
a(S'p2_du'
I2
tp255
a(S'p2_cv'
I0
tp256
a(S'p2_vo'
I2
tp257
a(S'w'
I1
tp258
a(S'p2_du'
I1
tp259
a(S'p2_cv'
I1
tp260
a(S'p2_vo'
I7
tp261
a(S'w'
I2
tp262
a(S'w'
I1
tp263
a(S'tr_tl'
I124
tp264
a(S'tr_ll'
I1
tp265
a(S'w'
I728
tp266
a(S'p2_vo'
I6
tp267
a(S'w'
I2935
tp268
a(S'p2_vo'
I5
tp269
a(S'w'
I2201
tp270
a(S'p2_vo'
I4
tp271
a(S'w'
I1469
tp272
a(S'p2_tl'
I150
tp273
a(S'p2_ll'
I1
tp274
a(S'w'
I1
tp275
a(S'p2_du'
I2
tp276
a(S'p2_cv'
I0
tp277
a(S'p2_vo'
I2
tp278
a(S'w'
I1
tp279
a(S'p2_du'
I1
tp280
a(S'p2_cv'
I1
tp281
a(S'p2_vo'
I7
tp282
a(S'w'
I3
tp283
a(S'tr_tl'
I45
tp284
a(S'tr_ll'
I1
tp285
a(S'w'
I728
tp286
a(S'p2_vo'
I6
tp287
a(S'w'
I2936
tp288
a(S'p2_tl'
I189
tp289
a(S'p2_ll'
I1
tp290
a(S'w'
I1
tp291
a(S'p2_du'
I2
tp292
a(S'p2_cv'
I0
tp293
a(S'p2_vo'
I2
tp294
a(S'w'
I1
tp295
a(S'p2_du'
I1
tp296
a(S'p2_cv'
I1
tp297
a(S'p2_vo'
I7
tp298
a(S'w'
I731
tp299
a(S'p2_vo'
I6
tp300
a(S'w'
I2936
tp301
a(S'p2_tl'
I253
tp302
a(S'p2_ll'
I1
tp303
a(S'w'
I1
tp304
a(S'p2_du'
I2
tp305
a(S'p2_cv'
I0
tp306
a(S'p2_vo'
I2
tp307
a(S'w'
I1
tp308
a(S'p2_du'
I1
tp309
a(S'p2_cv'
I1
tp310
a(S'p2_vo'
I7
tp311
a(S'w'
I3
tp312
a(S'tr_tl'
I253
tp313
a(S'tr_ll'
I1
tp314
a(S'tr_th'
I0
tp315
a(S'w'
I727
tp316
a(S'p2_vo'
I6
tp317
a(S'w'
I2937
tp318
a(S'p2_tl'
I150
tp319
a(S'p2_ll'
I1
tp320
a(S'w'
I1
tp321
a(S'p2_du'
I2
tp322
a(S'p2_cv'
I0
tp323
a(S'p2_vo'
I2
tp324
a(S'w'
I1
tp325
a(S'p2_du'
I1
tp326
a(S'p2_cv'
I1
tp327
a(S'p2_vo'
I7
tp328
a(S'w'
I730
tp329
a(S'p2_vo'
I6
tp330
a(S'w'
I2937
tp331
a(S'p2_tl'
I189
tp332
a(S'p2_ll'
I1
tp333
a(S'w'
I1
tp334
a(S'p2_du'
I2
tp335
a(S'p2_cv'
I0
tp336
a(S'p2_vo'
I2
tp337
a(S'w'
I1
tp338
a(S'p2_du'
I1
tp339
a(S'p2_cv'
I1
tp340
a(S'p2_vo'
I7
tp341
a(S'w'
I3
tp342
a(S'tr_tl'
I225
tp343
a(S'tr_ll'
I1
tp344
a(S'w'
I727
tp345
a(S'p2_vo'
I6
tp346
a(S'w'
I2937
tp347
a(S'p2_tl'
I253
tp348
a(S'p2_ll'
I1
tp349
a(S'w'
I1
tp350
a(S'p2_du'
I2
tp351
a(S'p2_cv'
I0
tp352
a(S'p2_vo'
I2
tp353
a(S'w'
I1
tp354
a(S'p2_du'
I1
tp355
a(S'p2_cv'
I1
tp356
a(S'p2_vo'
I7
tp357
a(S'w'
I730
tp358
a(S'p2_vo'
I6
tp359
a(S'w'
I2937
tp360
a(S'p2_tl'
I150
tp361
a(S'p2_ll'
I1
tp362
a(S'w'
I1
tp363
a(S'p2_du'
I2
tp364
a(S'p2_cv'
I0
tp365
a(S'p2_vo'
I2
tp366
a(S'w'
I1
tp367
a(S'p2_du'
I1
tp368
a(S'p2_cv'
I1
tp369
a(S'p2_vo'
I7
tp370
a(S'w'
I3
tp371
a(S'tr_tl'
I189
tp372
a(S'tr_ll'
I1
tp373
a(S'w'
I727
tp374
a(S'p2_vo'
I6
tp375
a(S'w'
I2936
tp376
a(S'p2_tl'
I189
tp377
a(S'p2_ll'
I1
tp378
a(S'w'
I1
tp379
a(S'p2_du'
I2
tp380
a(S'p2_cv'
I0
tp381
a(S'p2_vo'
I2
tp382
a(S'w'
I1
tp383
a(S'p2_du'
I1
tp384
a(S'p2_cv'
I1
tp385
a(S'p2_vo'
I7
tp386
a(S'w'
I731
tp387
a(S'p2_vo'
I6
tp388
a(S'w'
I2936
tp389
a(S'p2_tl'
I253
tp390
a(S'p2_ll'
I1
tp391
a(S'w'
I1
tp392
a(S'p2_du'
I2
tp393
a(S'p2_cv'
I0
tp394
a(S'p2_vo'
I2
tp395
a(S'w'
I1
tp396
a(S'p2_du'
I1
tp397
a(S'p2_cv'
I1
tp398
a(S'p2_vo'
I7
tp399
a(S'w'
I3
tp400
a(S'tr_tl'
I225
tp401
a(S'tr_ll'
I1
tp402
a(S'w'
I728
tp403
a(S'p2_vo'
I6
tp404
a(S'w'
I2936
tp405
a(S'p2_tl'
I150
tp406
a(S'p2_ll'
I1
tp407
a(S'w'
I1
tp408
a(S'p2_du'
I2
tp409
a(S'p2_cv'
I0
tp410
a(S'p2_vo'
I2
tp411
a(S'w'
I1
tp412
a(S'p2_du'
I1
tp413
a(S'p2_cv'
I1
tp414
a(S'p2_vo'
I7
tp415
a(S'w'
I731
tp416
a(S'p2_vo'
I6
tp417
a(S'w'
I2936
tp418
a(S'p2_tl'
I189
tp419
a(S'p2_ll'
I1
tp420
a(S'w'
I1
tp421
a(S'p2_du'
I2
tp422
a(S'p2_cv'
I0
tp423
a(S'p2_vo'
I2
tp424
a(S'w'
I1
tp425
a(S'p2_du'
I1
tp426
a(S'p2_cv'
I1
tp427
a(S'p2_vo'
I7
tp428
a(S'w'
I3
tp429
a(S'tr_tl'
I253
tp430
a(S'tr_ll'
I1
tp431
a(S'w'
I728
tp432
a(S'p2_vo'
I6
tp433
a(S'w'
I2936
tp434
a(S'p2_tl'
I253
tp435
a(S'p2_ll'
I1
tp436
a(S'w'
I1
tp437
a(S'p2_du'
I2
tp438
a(S'p2_cv'
I0
tp439
a(S'p2_vo'
I2
tp440
a(S'w'
I1
tp441
a(S'p2_du'
I1
tp442
a(S'p2_cv'
I1
tp443
a(S'p2_vo'
I7
tp444
a(S'w'
I731
tp445
a(S'p2_vo'
I6
tp446
a(S'w'
I2936
tp447
a(S'p2_tl'
I150
tp448
a(S'p2_ll'
I1
tp449
a(S'w'
I1
tp450
a(S'p2_du'
I2
tp451
a(S'p2_cv'
I0
tp452
a(S'p2_vo'
I2
tp453
a(S'w'
I1
tp454
a(S'p2_du'
I1
tp455
a(S'p2_cv'
I1
tp456
a(S'p2_vo'
I7
tp457
a(S'w'
I3
tp458
a(S'tr_tl'
I45
tp459
a(S'tr_ll'
I1
tp460
a(S'tr_th'
I1
tp461
a(S'w'
I728
tp462
a(S'p2_vo'
I6
tp463
a(S'w'
I2936
tp464
a(S'p2_tl'
I189
tp465
a(S'p2_ll'
I1
tp466
a(S'w'
I1
tp467
a(S'p2_du'
I2
tp468
a(S'p2_cv'
I0
tp469
a(S'p2_vo'
I2
tp470
a(S'w'
I1
tp471
a(S'p2_du'
I1
tp472
a(S'p2_cv'
I1
tp473
a(S'p2_vo'
I7
tp474
a(S'w'
I731
tp475
a(S'p2_vo'
I6
tp476
a(S'w'
I2936
tp477
a(S'p2_tl'
I253
tp478
a(S'p2_ll'
I1
tp479
a(S'w'
I1
tp480
a(S'p2_du'
I2
tp481
a(S'p2_cv'
I0
tp482
a(S'p2_vo'
I2
tp483
a(S'w'
I1
tp484
a(S'p2_du'
I1
tp485
a(S'p2_cv'
I1
tp486
a(S'p2_vo'
I7
tp487
a(S'w'
I3
tp488
a(S'tr_tl'
I63
tp489
a(S'tr_ll'
I1
tp490
a(S'w'
I728
tp491
a(S'p2_vo'
I6
tp492
a(S'w'
I2935
tp493
a(S'p2_vo'
I5
tp494
a(S'w'
I2202
tp495
a(S'p2_vo'
I4
tp496
a(S'w'
I1468
tp497
a(S'p2_tl'
I159
tp498
a(S'p2_ll'
I1
tp499
a(S'w'
I1
tp500
a(S'p2_du'
I2
tp501
a(S'p2_cv'
I0
tp502
a(S'p2_vo'
I2
tp503
a(S'w'
I1
tp504
a(S'p2_du'
I1
tp505
a(S'p2_cv'
I1
tp506
a(S'p2_vo'
I7
tp507
a(S'w'
I3
tp508
a(S'tr_tl'
I253
tp509
a(S'tr_ll'
I1
tp510
a(S'tr_th'
I0
tp511
a(S'w'
I728
tp512
a(S'p2_vo'
I6
tp513
a(S'w'
I2936
tp514
a(S'p2_tl'
I212
tp515
a(S'p2_ll'
I1
tp516
a(S'w'
I1
tp517
a(S'p2_du'
I2
tp518
a(S'p2_cv'
I0
tp519
a(S'p2_vo'
I2
tp520
a(S'w'
I1
tp521
a(S'p2_du'
I1
tp522
a(S'p2_cv'
I1
tp523
a(S'p2_vo'
I7
tp524
a(S'w'
I731
tp525
a(S'p2_vo'
I6
tp526
a(S'w'
I2936
tp527
a(S'p2_tl'
I253
tp528
a(S'p2_ll'
I1
tp529
a(S'w'
I1
tp530
a(S'p2_du'
I2
tp531
a(S'p2_cv'
I0
tp532
a(S'p2_vo'
I2
tp533
a(S'w'
I1
tp534
a(S'p2_du'
I1
tp535
a(S'p2_cv'
I1
tp536
a(S'p2_vo'
I7
tp537
a(S'w'
I3
tp538
a(S'tr_tl'
I212
tp539
a(S'tr_ll'
I1
tp540
a(S'w'
I728
tp541
a(S'p2_vo'
I6
tp542
a(S'w'
I2936
tp543
a(S'p2_tl'
I159
tp544
a(S'p2_ll'
I1
tp545
a(S'w'
I1
tp546
a(S'p2_du'
I2
tp547
a(S'p2_cv'
I0
tp548
a(S'p2_vo'
I2
tp549
a(S'w'
I1
tp550
a(S'p2_du'
I1
tp551
a(S'p2_cv'
I1
tp552
a(S'p2_vo'
I7
tp553
a(S'w'
I731
tp554
a(S'p2_vo'
I6
tp555
a(S'w'
I2936
tp556
a(S'p2_tl'
I212
tp557
a(S'p2_ll'
I1
tp558
a(S'w'
I1
tp559
a(S'p2_du'
I2
tp560
a(S'p2_cv'
I0
tp561
a(S'p2_vo'
I2
tp562
a(S'w'
I1
tp563
a(S'p2_du'
I1
tp564
a(S'p2_cv'
I1
tp565
a(S'p2_vo'
I7
tp566
a(S'w'
I3
tp567
a(S'tr_tl'
I189
tp568
a(S'tr_ll'
I1
tp569
a(S'w'
I728
tp570
a(S'p2_vo'
I6
tp571
a(S'w'
I2936
tp572
a(S'p2_tl'
I253
tp573
a(S'p2_ll'
I1
tp574
a(S'w'
I1
tp575
a(S'p2_du'
I2
tp576
a(S'p2_cv'
I0
tp577
a(S'p2_vo'
I2
tp578
a(S'w'
I1
tp579
a(S'p2_du'
I1
tp580
a(S'p2_cv'
I1
tp581
a(S'p2_vo'
I7
tp582
a(S'w'
I731
tp583
a(S'p2_vo'
I6
tp584
a(S'w'
I2936
tp585
a(S'p2_tl'
I159
tp586
a(S'p2_ll'
I1
tp587
a(S'w'
I1
tp588
a(S'p2_du'
I2
tp589
a(S'p2_cv'
I0
tp590
a(S'p2_vo'
I2
tp591
a(S'w'
I1
tp592
a(S'p2_du'
I1
tp593
a(S'p2_cv'
I1
tp594
a(S'p2_vo'
I7
tp595
a(S'w'
I3
tp596
a(S'tr_tl'
I159
tp597
a(S'tr_ll'
I1
tp598
a(S'w'
I728
tp599
a(S'p2_vo'
I6
tp600
a(S'w'
I2936
tp601
a(S'p2_tl'
I212
tp602
a(S'p2_ll'
I1
tp603
a(S'w'
I1
tp604
a(S'p2_du'
I2
tp605
a(S'p2_cv'
I0
tp606
a(S'p2_vo'
I2
tp607
a(S'w'
I1
tp608
a(S'p2_du'
I1
tp609
a(S'p2_cv'
I1
tp610
a(S'p2_vo'
I7
tp611
a(S'w'
I731
tp612
a(S'p2_vo'
I6
tp613
a(S'w'
I2936
tp614
a(S'p2_tl'
I253
tp615
a(S'p2_ll'
I1
tp616
a(S'w'
I1
tp617
a(S'p2_du'
I2
tp618
a(S'p2_cv'
I0
tp619
a(S'p2_vo'
I2
tp620
a(S'w'
I1
tp621
a(S'p2_du'
I1
tp622
a(S'p2_cv'
I1
tp623
a(S'p2_vo'
I7
tp624
a(S'w'
I3
tp625
a(S'tr_tl'
I189
tp626
a(S'tr_ll'
I1
tp627
a(S'w'
I728
tp628
a(S'p2_vo'
I6
tp629
a(S'w'
I2936
tp630
a(S'p2_tl'
I159
tp631
a(S'p2_ll'
I1
tp632
a(S'w'
I1
tp633
a(S'p2_du'
I2
tp634
a(S'p2_cv'
I0
tp635
a(S'p2_vo'
I2
tp636
a(S'w'
I1
tp637
a(S'p2_du'
I1
tp638
a(S'p2_cv'
I1
tp639
a(S'p2_vo'
I7
tp640
a(S'w'
I731
tp641
a(S'p2_vo'
I6
tp642
a(S'w'
I2936
tp643
a(S'p2_tl'
I212
tp644
a(S'p2_ll'
I1
tp645
a(S'w'
I1
tp646
a(S'p2_du'
I2
tp647
a(S'p2_cv'
I0
tp648
a(S'p2_vo'
I2
tp649
a(S'w'
I1
tp650
a(S'p2_du'
I1
tp651
a(S'p2_cv'
I1
tp652
a(S'p2_vo'
I7
tp653
a(S'w'
I3
tp654
a(S'tr_tl'
I212
tp655
a(S'tr_ll'
I1
tp656
a(S'w'
I727
tp657
a(S'p2_vo'
I6
tp658
a(S'w'
I2937
tp659
a(S'p2_tl'
I253
tp660
a(S'p2_ll'
I1
tp661
a(S'w'
I1
tp662
a(S'p2_du'
I2
tp663
a(S'p2_cv'
I0
tp664
a(S'p2_vo'
I2
tp665
a(S'w'
I1
tp666
a(S'p2_du'
I1
tp667
a(S'p2_cv'
I1
tp668
a(S'p2_vo'
I7
tp669
a(S'w'
I730
tp670
a(S'p2_vo'
I6
tp671
a(S'w'
I2937
tp672
a(S'p2_tl'
I159
tp673
a(S'p2_ll'
I1
tp674
a(S'w'
I1
tp675
a(S'p2_du'
I2
tp676
a(S'p2_cv'
I0
tp677
a(S'p2_vo'
I2
tp678
a(S'w'
I1
tp679
a(S'p2_du'
I1
tp680
a(S'p2_cv'
I1
tp681
a(S'p2_vo'
I7
tp682
a(S'w'
I3
tp683
a(S'tr_tl'
I253
tp684
a(S'tr_ll'
I1
tp685
a(S'w'
I727
tp686
a(S'p2_vo'
I6
tp687
a(S'w'
I2937
tp688
a(S'p2_tl'
I212
tp689
a(S'p2_ll'
I1
tp690
a(S'w'
I1
tp691
a(S'p2_du'
I2
tp692
a(S'p2_cv'
I0
tp693
a(S'p2_vo'
I2
tp694
a(S'w'
I1
tp695
a(S'p2_du'
I1
tp696
a(S'p2_cv'
I1
tp697
a(S'p2_vo'
I7
tp698
a(S'w'
I730
tp699
a(S'p2_vo'
I6
tp700
a(S'w'
I2937
tp701
a(S'p2_tl'
I225
tp702
a(S'p2_ll'
I1
tp703
a(S'w'
I1
tp704
a(S'p2_du'
I2
tp705
a(S'p2_cv'
I0
tp706
a(S'p2_vo'
I2
tp707
a(S'w'
I1
tp708
a(S'p2_du'
I1
tp709
a(S'p2_cv'
I1
tp710
a(S'p2_vo'
I7
tp711
a(S'w'
I3
tp712
a(S'tr_tl'
I28
tp713
a(S'tr_ll'
I1
tp714
a(S'tr_th'
I1
tp715
a(S'w'
I727
tp716
a(S'p2_vo'
I6
tp717
a(S'w'
I2935
tp718
a(S'p2_vo'
I5
tp719
a(S'w'
I2202
tp720
a(S'p2_vo'
I4
tp721
a(S'w'
I1468
tp722
a(S'p2_tl'
I141
tp723
a(S'p2_ll'
I1
tp724
a(S'w'
I1
tp725
a(S'p2_du'
I2
tp726
a(S'p2_cv'
I0
tp727
a(S'p2_vo'
I2
tp728
a(S'w'
I1
tp729
a(S'p2_du'
I1
tp730
a(S'p2_cv'
I1
tp731
a(S'p2_vo'
I7
tp732
a(S'w'
I3
tp733
a(S'tr_tl'
I225
tp734
a(S'tr_ll'
I1
tp735
a(S'tr_th'
I0
tp736
a(S'w'
I728
tp737
a(S'p2_vo'
I6
tp738
a(S'w'
I2936
tp739
a(S'p2_tl'
I189
tp740
a(S'p2_ll'
I1
tp741
a(S'w'
I1
tp742
a(S'p2_du'
I2
tp743
a(S'p2_cv'
I0
tp744
a(S'p2_vo'
I2
tp745
a(S'w'
I1
tp746
a(S'p2_du'
I1
tp747
a(S'p2_cv'
I1
tp748
a(S'p2_vo'
I7
tp749
a(S'w'
I731
tp750
a(S'p2_vo'
I6
tp751
a(S'w'
I2936
tp752
a(S'p2_tl'
I225
tp753
a(S'p2_ll'
I1
tp754
a(S'w'
I1
tp755
a(S'p2_du'
I2
tp756
a(S'p2_cv'
I0
tp757
a(S'p2_vo'
I2
tp758
a(S'w'
I1
tp759
a(S'p2_du'
I1
tp760
a(S'p2_cv'
I1
tp761
a(S'p2_vo'
I7
tp762
a(S'w'
I3
tp763
a(S'tr_tl'
I189
tp764
a(S'tr_ll'
I1
tp765
a(S'w'
I728
tp766
a(S'p2_vo'
I6
tp767
a(S'w'
I2936
tp768
a(S'p2_tl'
I141
tp769
a(S'p2_ll'
I1
tp770
a(S'w'
I1
tp771
a(S'p2_du'
I2
tp772
a(S'p2_cv'
I0
tp773
a(S'p2_vo'
I2
tp774
a(S'w'
I1
tp775
a(S'p2_du'
I1
tp776
a(S'p2_cv'
I1
tp777
a(S'p2_vo'
I7
tp778
a(S'w'
I731
tp779
a(S'p2_vo'
I6
tp780
a(S'w'
I2936
tp781
a(S'p2_tl'
I189
tp782
a(S'p2_ll'
I1
tp783
a(S'w'
I1
tp784
a(S'p2_du'
I2
tp785
a(S'p2_cv'
I0
tp786
a(S'p2_vo'
I2
tp787
a(S'w'
I1
tp788
a(S'p2_du'
I1
tp789
a(S'p2_cv'
I1
tp790
a(S'p2_vo'
I7
tp791
a(S'w'
I3
tp792
a(S'tr_tl'
I159
tp793
a(S'tr_ll'
I1
tp794
a(S'w'
I728
tp795
a(S'p2_vo'
I6
tp796
a(S'w'
I2936
tp797
a(S'p2_tl'
I225
tp798
a(S'p2_ll'
I1
tp799
a(S'w'
I1
tp800
a(S'p2_du'
I2
tp801
a(S'p2_cv'
I0
tp802
a(S'p2_vo'
I2
tp803
a(S'w'
I1
tp804
a(S'p2_du'
I1
tp805
a(S'p2_cv'
I1
tp806
a(S'p2_vo'
I7
tp807
a(S'w'
I731
tp808
a(S'p2_vo'
I6
tp809
a(S'w'
I2936
tp810
a(S'p2_tl'
I141
tp811
a(S'p2_ll'
I1
tp812
a(S'w'
I1
tp813
a(S'p2_du'
I2
tp814
a(S'p2_cv'
I0
tp815
a(S'p2_vo'
I2
tp816
a(S'w'
I1
tp817
a(S'p2_du'
I1
tp818
a(S'p2_cv'
I1
tp819
a(S'p2_vo'
I7
tp820
a(S'w'
I2
tp821
a(S'tr_lr'
I12
tp822
a(S'w'
I1
tp823
a(S'tr_tl'
I112
tp824
a(S'tr_ll'
I1
tp825
a(S'w'
I728
tp826
a(S'p2_vo'
I6
tp827
a(S'w'
I2936
tp828
a(S'p2_ll'
I1
tp829
a(S'w'
I1
tp830
a(S'p2_du'
I2
tp831
a(S'p2_cv'
I0
tp832
a(S'p2_vo'
I2
tp833
a(S'w'
I1
tp834
a(S'p2_du'
I1
tp835
a(S'p2_cv'
I1
tp836
a(S'p2_vo'
I7
tp837
a(S'w'
I3
tp838
a(S'tr_ll'
I1
tp839
a(S'w'
I728
tp840
a(S'p2_vo'
I6
tp841
a(S'w'
I2936
tp842
a(S'p2_tl'
I159
tp843
a(S'p2_ll'
I1
tp844
a(S'w'
I1
tp845
a(S'p2_du'
I2
tp846
a(S'p2_cv'
I0
tp847
a(S'p2_vo'
I2
tp848
a(S'w'
I1
tp849
a(S'p2_du'
I1
tp850
a(S'p2_cv'
I1
tp851
a(S'p2_vo'
I7
tp852
a(S'w'
I3
tp853
a(S'tr_tl'
I126
tp854
a(S'tr_ll'
I1
tp855
a(S'w'
I728
tp856
a(S'p2_vo'
I6
tp857
a(S'w'
I2936
tp858
a(S'p2_ll'
I1
tp859
a(S'w'
I1
tp860
a(S'p2_du'
I2
tp861
a(S'p2_cv'
I0
tp862
a(S'p2_vo'
I2
tp863
a(S'w'
I1
tp864
a(S'p2_du'
I1
tp865
a(S'p2_cv'
I1
tp866
a(S'p2_vo'
I7
tp867
a(S'w'
I3
tp868
a(S'tr_ll'
I1
tp869
a(S'w'
I728
tp870
a(S'p2_vo'
I6
tp871
a(S'w'
I2936
tp872
a(S'p2_tl'
I168
tp873
a(S'p2_ll'
I1
tp874
a(S'w'
I1
tp875
a(S'p2_du'
I2
tp876
a(S'p2_cv'
I0
tp877
a(S'p2_vo'
I2
tp878
a(S'w'
I1
tp879
a(S'p2_du'
I1
tp880
a(S'p2_cv'
I1
tp881
a(S'p2_vo'
I7
tp882
a(S'w'
I3
tp883
a(S'tr_tl'
I141
tp884
a(S'tr_ll'
I1
tp885
a(S'w'
I728
tp886
a(S'p2_vo'
I6
tp887
a(S'w'
I2936
tp888
a(S'p2_ll'
I1
tp889
a(S'w'
I1
tp890
a(S'p2_du'
I2
tp891
a(S'p2_cv'
I0
tp892
a(S'p2_vo'
I2
tp893
a(S'w'
I1
tp894
a(S'p2_du'
I1
tp895
a(S'p2_cv'
I1
tp896
a(S'p2_vo'
I7
tp897
a(S'w'
I3
tp898
a(S'tr_ll'
I1
tp899
a(S'w'
I728
tp900
a(S'p2_vo'
I6
tp901
a(S'w'
I2936
tp902
a(S'p2_tl'
I189
tp903
a(S'p2_ll'
I1
tp904
a(S'w'
I1
tp905
a(S'p2_du'
I2
tp906
a(S'p2_cv'
I0
tp907
a(S'p2_vo'
I2
tp908
a(S'w'
I1
tp909
a(S'p2_du'
I1
tp910
a(S'p2_cv'
I1
tp911
a(S'p2_vo'
I7
tp912
a(S'w'
I3
tp913
a(S'tr_tl'
I159
tp914
a(S'tr_ll'
I1
tp915
a(S'w'
I728
tp916
a(S'p2_vo'
I6
tp917
a(S'w'
I2936
tp918
a(S'p2_ll'
I1
tp919
a(S'w'
I1
tp920
a(S'p2_du'
I2
tp921
a(S'p2_cv'
I0
tp922
a(S'p2_vo'
I2
tp923
a(S'w'
I1
tp924
a(S'p2_du'
I1
tp925
a(S'p2_cv'
I1
tp926
a(S'p2_vo'
I7
tp927
a(S'w'
I3
tp928
a(S'tr_ll'
I1
tp929
a(S'w'
I728
tp930
a(S'p2_vo'
I6
tp931
a(S'w'
I2937
tp932
a(S'w'
I3
tp933
a(S'p2_tl'
I28
tp934
a(S'p2_ll'
I1
tp935
a(S'p2_th'
I1
tp936
a(S'w'
I1
tp937
a(S'p2_du'
I2
tp938
a(S'p2_cv'
I0
tp939
a(S'p2_vo'
I2
tp940
a(S'p2_du'
I1
tp941
a(S'p2_cv'
I1
tp942
a(S'p2_vo'
I7
tp943
a(S'w'
I3
tp944
a(S'tr_lr'
I32
tp945
a(S'tr_tl'
I171
tp946
a(S'tr_ll'
I1
tp947
a(S'tr_th'
I1
tp948
a(S'w'
I725
tp949
a(S'p2_vo'
I6
tp950
a(S'w'
I2935
tp951
a(S'p2_vo'
I5
tp952
a(S'w'
I2201
tp953
a(S'p2_vo'
I4
tp954
a(S'w'
I1469
tp955
a(S'p2_tl'
I168
tp956
a(S'p2_ll'
I1
tp957
a(S'p2_th'
I0
tp958
a(S'w'
I1
tp959
a(S'p2_du'
I2
tp960
a(S'p2_cv'
I0
tp961
a(S'p2_vo'
I2
tp962
a(S'w'
I1
tp963
a(S'p2_du'
I1
tp964
a(S'p2_cv'
I1
tp965
a(S'p2_vo'
I7
tp966
a(S'w'
I3
tp967
a(S'tr_tl'
I82
tp968
a(S'tr_ll'
I1
tp969
a(S'w'
I728
tp970
a(S'p2_vo'
I6
tp971
a(S'w'
I2936
tp972
a(S'p2_tl'
I212
tp973
a(S'p2_ll'
I1
tp974
a(S'w'
I1
tp975
a(S'p2_du'
I2
tp976
a(S'p2_cv'
I0
tp977
a(S'p2_vo'
I2
tp978
a(S'w'
I1
tp979
a(S'p2_du'
I1
tp980
a(S'p2_cv'
I1
tp981
a(S'p2_vo'
I7
tp982
a(S'w'
I731
tp983
a(S'p2_vo'
I6
tp984
a(S'w'
I2936
tp985
a(S'p2_tl'
I28
tp986
a(S'p2_ll'
I1
tp987
a(S'p2_th'
I1
tp988
a(S'w'
I1
tp989
a(S'p2_du'
I2
tp990
a(S'p2_cv'
I0
tp991
a(S'p2_vo'
I2
tp992
a(S'w'
I1
tp993
a(S'p2_du'
I1
tp994
a(S'p2_cv'
I1
tp995
a(S'p2_vo'
I7
tp996
a(S'w'
I3
tp997
a(S'tr_tl'
I28
tp998
a(S'tr_ll'
I1
tp999
a(S'w'
I727
tp1000
a(S'p2_vo'
I6
tp1001
a(S'w'
I2937
tp1002
a(S'p2_tl'
I168
tp1003
a(S'p2_ll'
I1
tp1004
a(S'p2_th'
I0
tp1005
a(S'w'
I1
tp1006
a(S'p2_du'
I2
tp1007
a(S'p2_cv'
I0
tp1008
a(S'p2_vo'
I2
tp1009
a(S'w'
I1
tp1010
a(S'p2_du'
I1
tp1011
a(S'p2_cv'
I1
tp1012
a(S'p2_vo'
I7
tp1013
a(S'w'
I730
tp1014
a(S'p2_vo'
I6
tp1015
a(S'w'
I2937
tp1016
a(S'p2_tl'
I212
tp1017
a(S'p2_ll'
I1
tp1018
a(S'w'
I1
tp1019
a(S'p2_du'
I2
tp1020
a(S'p2_cv'
I0
tp1021
a(S'p2_vo'
I2
tp1022
a(S'w'
I1
tp1023
a(S'p2_du'
I1
tp1024
a(S'p2_cv'
I1
tp1025
a(S'p2_vo'
I7
tp1026
a(S'w'
I3
tp1027
a(S'tr_tl'
I253
tp1028
a(S'tr_ll'
I1
tp1029
a(S'tr_th'
I0
tp1030
a(S'w'
I727
tp1031
a(S'p2_vo'
I6
tp1032
a(S'w'
I2937
tp1033
a(S'p2_tl'
I28
tp1034
a(S'p2_ll'
I1
tp1035
a(S'p2_th'
I1
tp1036
a(S'w'
I1
tp1037
a(S'p2_du'
I2
tp1038
a(S'p2_cv'
I0
tp1039
a(S'p2_vo'
I2
tp1040
a(S'w'
I1
tp1041
a(S'p2_du'
I1
tp1042
a(S'p2_cv'
I1
tp1043
a(S'p2_vo'
I7
tp1044
a(S'w'
I730
tp1045
a(S'p2_vo'
I6
tp1046
a(S'w'
I2937
tp1047
a(S'p2_tl'
I168
tp1048
a(S'p2_ll'
I1
tp1049
a(S'p2_th'
I0
tp1050
a(S'w'
I1
tp1051
a(S'p2_du'
I2
tp1052
a(S'p2_cv'
I0
tp1053
a(S'p2_vo'
I2
tp1054
a(S'w'
I1
tp1055
a(S'p2_du'
I1
tp1056
a(S'p2_cv'
I1
tp1057
a(S'p2_vo'
I7
tp1058
a(S'w'
I3
tp1059
a(S'tr_tl'
I212
tp1060
a(S'tr_ll'
I1
tp1061
a(S'w'
I727
tp1062
a(S'p2_vo'
I6
tp1063
a(S'w'
I2936
tp1064
a(S'p2_tl'
I212
tp1065
a(S'p2_ll'
I1
tp1066
a(S'w'
I1
tp1067
a(S'p2_du'
I2
tp1068
a(S'p2_cv'
I0
tp1069
a(S'p2_vo'
I2
tp1070
a(S'w'
I1
tp1071
a(S'p2_du'
I1
tp1072
a(S'p2_cv'
I1
tp1073
a(S'p2_vo'
I7
tp1074
a(S'w'
I731
tp1075
a(S'p2_vo'
I6
tp1076
a(S'w'
I2936
tp1077
a(S'p2_tl'
I28
tp1078
a(S'p2_ll'
I1
tp1079
a(S'p2_th'
I1
tp1080
a(S'w'
I1
tp1081
a(S'p2_du'
I2
tp1082
a(S'p2_cv'
I0
tp1083
a(S'p2_vo'
I2
tp1084
a(S'w'
I1
tp1085
a(S'p2_du'
I1
tp1086
a(S'p2_cv'
I1
tp1087
a(S'p2_vo'
I7
tp1088
a(S'w'
I3
tp1089
a(S'tr_tl'
I253
tp1090
a(S'tr_ll'
I1
tp1091
a(S'w'
I728
tp1092
a(S'p2_vo'
I6
tp1093
a(S'w'
I2936
tp1094
a(S'p2_tl'
I168
tp1095
a(S'p2_ll'
I1
tp1096
a(S'p2_th'
I0
tp1097
a(S'w'
I1
tp1098
a(S'p2_du'
I2
tp1099
a(S'p2_cv'
I0
tp1100
a(S'p2_vo'
I2
tp1101
a(S'w'
I1
tp1102
a(S'p2_du'
I1
tp1103
a(S'p2_cv'
I1
tp1104
a(S'p2_vo'
I7
tp1105
a(S'w'
I731
tp1106
a(S'p2_vo'
I6
tp1107
a(S'w'
I2936
tp1108
a(S'p2_tl'
I212
tp1109
a(S'p2_ll'
I1
tp1110
a(S'w'
I1
tp1111
a(S'p2_du'
I2
tp1112
a(S'p2_cv'
I0
tp1113
a(S'p2_vo'
I2
tp1114
a(S'w'
I1
tp1115
a(S'p2_du'
I1
tp1116
a(S'p2_cv'
I1
tp1117
a(S'p2_vo'
I7
tp1118
a(S'w'
I3
tp1119
a(S'tr_tl'
I28
tp1120
a(S'tr_ll'
I1
tp1121
a(S'tr_th'
I1
tp1122
a(S'w'
I728
tp1123
a(S'p2_vo'
I6
tp1124
a(S'w'
I2936
tp1125
a(S'p2_tl'
I28
tp1126
a(S'p2_ll'
I1
tp1127
a(S'p2_th'
I1
tp1128
a(S'w'
I1
tp1129
a(S'p2_du'
I2
tp1130
a(S'p2_cv'
I0
tp1131
a(S'p2_vo'
I2
tp1132
a(S'w'
I1
tp1133
a(S'p2_du'
I1
tp1134
a(S'p2_cv'
I1
tp1135
a(S'p2_vo'
I7
tp1136
a(S'w'
I731
tp1137
a(S'p2_vo'
I6
tp1138
a(S'w'
I2936
tp1139
a(S'p2_tl'
I168
tp1140
a(S'p2_ll'
I1
tp1141
a(S'p2_th'
I0
tp1142
a(S'w'
I1
tp1143
a(S'p2_du'
I2
tp1144
a(S'p2_cv'
I0
tp1145
a(S'p2_vo'
I2
tp1146
a(S'w'
I1
tp1147
a(S'p2_du'
I1
tp1148
a(S'p2_cv'
I1
tp1149
a(S'p2_vo'
I7
tp1150
a(S'w'
I3
tp1151
a(S'tr_tl'
I82
tp1152
a(S'tr_ll'
I1
tp1153
a(S'w'
I728
tp1154
a(S'p2_vo'
I6
tp1155
a(S'w'
I2936
tp1156
a(S'p2_tl'
I212
tp1157
a(S'p2_ll'
I1
tp1158
a(S'w'
I1
tp1159
a(S'p2_du'
I2
tp1160
a(S'p2_cv'
I0
tp1161
a(S'p2_vo'
I2
tp1162
a(S'w'
I1
tp1163
a(S'p2_du'
I1
tp1164
a(S'p2_cv'
I1
tp1165
a(S'p2_vo'
I7
tp1166
a(S'w'
I731
tp1167
a(S'p2_vo'
I6
tp1168
a(S'w'
I2927
tp1169
a.