(lp1
(S'clock'
p2
I1789773
tp3
a(S'w'
I1
tp4
a(S'fc_mo'
I1
tp5
a(S'ch_no'
I1
tp6
a(S'ch_tr'
I1
tp7
a(S'ch_p2'
I1
tp8
a(S'ch_p1'
I1
tp9
a(S'w'
I11
tp10
a(S'w'
I1
tp11
a(S'p1_cv'
I1
tp12
a(S'p2_cv'
I1
tp13
a(S'no_cv'
I1
tp14
a(S'w'
I58
tp15
a(S'p2_sp'
I7
tp16
a(S'p2_sn'
I1
tp17
a(S'p2_ss'
I7
tp18
a(S'w'
I5
tp19
a(S'p1_sp'
I7
tp20
a(S'p1_sn'
I1
tp21
a(S'p1_ss'
I7
tp22
a(S'w'
I7
tp23
a(S'no_vo'
I5
tp24
a(S'no_np'
I10
tp25
a(S'no_ll'
I7
tp26
a(S'w'
I8740
tp27
a(S'p2_tl'
I124
tp28
a(S'p2_ll'
I1
tp29
a(S'p2_th'
I1
tp30
a(S'w'
I3
tp31
a(S'p2_vo'
I14
tp32
a(S'w'
I4
tp33
a(S'p1_tl'
I196
tp34
a(S'w'
I1
tp35
a(S'p1_ll'
I1
tp36
a(S'p1_th'
I1
tp37
a(S'w'
I3
tp38
a(S'p1_du'
I1
tp39
a(S'p1_vo'
I14
tp40
a(S'w'
I2
tp41
a(S'w'
I1
tp42
a(S'no_ll'
I7
tp43
a(S'w'
I1451
tp44
a(S'p2_vo'
I12
tp45
a(S'w'
I2
tp46
a(S'p1_vo'
I12
tp47
a(S'w'
I1465
tp48
a(S'p2_vo'
I10
tp49
a(S'w'
I2
tp50
a(S'p1_vo'
I10
tp51
a(S'w'
I1466
tp52
a(S'p2_vo'
I9
tp53
a(S'w'
I2
tp54
a(S'p1_vo'
I9
tp55
a(S'w'
I1465
tp56
a(S'p2_vo'
I8
tp57
a(S'w'
I2
tp58
a(S'p1_vo'
I8
tp59
a(S'w'
I1466
tp60
a(S'p2_vo'
I0
tp61
a(S'w'
I2
tp62
a(S'p1_du'
I0
tp63
a(S'p1_vo'
I0
tp64
a(S'w'
I1470
tp65
a(S'p2_tl'
I13
tp66
a(S'w'
I1
tp67
a(S'p2_ll'
I1
tp68
a(S'w'
I2
tp69
a(S'p2_vo'
I14
tp70
a(S'w'
I6
tp71
a(S'p1_tl'
I83
tp72
a(S'w'
I1
tp73
a(S'p1_ll'
I1
tp74
a(S'w'
I3
tp75
a(S'p1_du'
I1
tp76
a(S'p1_vo'
I14
tp77
a(S'w'
I2
tp78
a(S'no_vo'
I9
tp79
a(S'w'
I1
tp80
a(S'no_np'
I3
tp81
a(S'no_ll'
I7
tp82
a(S'w'
I1447
tp83
a(S'p2_vo'
I12
tp84
a(S'w'
I2
tp85
a(S'p1_vo'
I12
tp86
a(S'w'
I1466
tp87
a(S'p2_vo'
I0
tp88
a(S'w'
I2
tp89
a(S'p1_du'
I0
tp90
a(S'p1_vo'
I0
tp91
a(S'w'
I1468
tp92
a(S'p2_ll'
I1
tp93
a(S'w'
I3
tp94
a(S'p2_vo'
I14
tp95
a(S'w'
I5
tp96
a(S'p1_ll'
I1
tp97
a(S'w'
I3
tp98
a(S'p1_du'
I1
tp99
a(S'p1_vo'
I14
tp100
a(S'w'
I1454
tp101
a(S'p2_vo'
I12
tp102
a(S'w'
I2
tp103
a(S'p1_vo'
I12
tp104
a(S'w'
I1465
tp105
a(S'p2_vo'
I0
tp106
a(S'w'
I2
tp107
a(S'p1_du'
I0
tp108
a(S'p1_vo'
I0
tp109
a(S'w'
I1475
tp110
a(S'no_vo'
I5
tp111
a(S'no_np'
I10
tp112
a(S'no_ll'
I7
tp113
a(S'w'
I4397
tp114
a(S'p2_tl'
I253
tp115
a(S'p2_ll'
I1
tp116
a(S'p2_th'
I0
tp117
a(S'w'
I3
tp118
a(S'p2_vo'
I14
tp119
a(S'w'
I5
tp120
a(S'p1_tl'
I46
tp121
a(S'p1_ll'
I1
tp122
a(S'w'
I3
tp123
a(S'p1_du'
I1
tp124
a(S'p1_vo'
I14
tp125
a(S'w'
I3
tp126
a(S'no_ll'
I7
tp127
a(S'w'
I1450
tp128
a(S'p2_vo'
I12
tp129
a(S'w'
I2
tp130
a(S'p1_vo'
I12
tp131
a(S'w'
I1466
tp132
a(S'p2_vo'
I0
tp133
a(S'w'
I2
tp134
a(S'p1_du'
I0
tp135
a(S'p1_vo'
I0
tp136
a(S'w'
I1476
tp137
a(S'no_vo'
I0
tp138
a(S'w'
I1
tp139
a(S'no_nl'
I1
tp140
a(S'no_np'
I13
tp141
a(S'no_ll'
I22
tp142
a(S'w'
I4395
tp143
a(S'p2_tl'
I226
tp144
a(S'w'
I1
tp145
a(S'p2_ll'
I1
tp146
a(S'w'
I2
tp147
a(S'p2_vo'
I14
tp148
a(S'w'
I6
tp149
a(S'p1_tl'
I13
tp150
a(S'w'
I1
tp151
a(S'p1_ll'
I1
tp152
a(S'w'
I3
tp153
a(S'p1_du'
I1
tp154
a(S'p1_vo'
I14
tp155
a(S'w'
I5
tp156
a(S'tr_tl'
I169
tp157
a(S'tr_ll'
I1
tp158
a(S'w'
I1
tp159
a(S'tr_lh'
I1
tp160
a(S'tr_lr'
I1
tp161
a(S'w'
I3
tp162
a(S'no_vo'
I9
tp163
a(S'no_nl'
I0
tp164
a(S'no_np'
I3
tp165
a(S'no_ll'
I7
tp166
a(S'w'
I1442
tp167
a(S'p2_vo'
I12
tp168
a(S'w'
I2
tp169
a(S'p1_vo'
I12
tp170
a(S'w'
I735
tp171
a(S'tr_lh'
I0
tp172
a(S'tr_lr'
I0
tp173
a(S'w'
I730
tp174
a(S'p2_vo'
I10
tp175
a(S'w'
I2
tp176
a(S'p1_vo'
I10
tp177
a(S'w'
I1466
tp178
a(S'p2_vo'
I9
tp179
a(S'w'
I2
tp180
a(S'p1_vo'
I9
tp181
a(S'w'
I5
tp182
a(S'tr_tl'
I190
tp183
a(S'w'
I1
tp184
a(S'tr_ll'
I1
tp185
a(S'w'
I1
tp186
a(S'tr_lh'
I1
tp187
a(S'tr_lr'
I1
tp188
a(S'w'
I3
tp189
a(S'w'
I1
tp190
a(S'no_ll'
I7
tp191
a(S'w'
I1455
tp192
a(S'p2_vo'
I8
tp193
a(S'w'
I2
tp194
a(S'p1_vo'
I8
tp195
a(S'w'
I734
tp196
a(S'tr_lh'
I0
tp197
a(S'tr_lr'
I0
tp198
a(S'w'
I731
tp199
a(S'p2_vo'
I7
tp200
a(S'w'
I2
tp201
a(S'p1_vo'
I7
tp202
a(S'w'
I1473
tp203
a(S'tr_tl'
I169
tp204
a(S'w'
I1
tp205
a(S'tr_ll'
I1
tp206
a(S'w'
I1
tp207
a(S'tr_lh'
I1
tp208
a(S'tr_lr'
I1
tp209
a(S'w'
I2195
tp210
a(S'tr_lh'
I0
tp211
a(S'tr_lr'
I0
tp212
a(S'w'
I2206
tp213
a(S'tr_ll'
I1
tp214
a(S'w'
I1
tp215
a(S'tr_lh'
I1
tp216
a(S'tr_lr'
I1
tp217
a(S'w'
I3
tp218
a(S'no_ll'
I7
tp219
a(S'w'
I2193
tp220
a(S'tr_lh'
I0
tp221
a(S'tr_lr'
I0
tp222
a(S'w'
I2205
tp223
a(S'tr_ll'
I1
tp224
a(S'w'
I1
tp225
a(S'tr_lh'
I1
tp226
a(S'tr_lr'
I1
tp227
a(S'w'
I2197
tp228
a(S'tr_lh'
I0
tp229
a(S'tr_lr'
I0
tp230
a(S'w'
I2205
tp231
a(S'tr_tl'
I190
tp232
a(S'tr_ll'
I1
tp233
a(S'w'
I1
tp234
a(S'tr_lh'
I1
tp235
a(S'tr_lr'
I1
tp236
a(S'w'
I4
tp237
a(S'no_ll'
I7
tp238
a(S'w'
I2192
tp239
a(S'tr_lh'
I0
tp240
a(S'tr_lr'
I0
tp241
a(S'w'
I731
tp242
a(S'p2_vo'
I0
tp243
a(S'w'
I2
tp244
a(S'p1_du'
I0
tp245
a(S'p1_vo'
I0
tp246
a(S'w'
I1479
tp247
a(S'tr_tl'
I169
tp248
a(S'tr_ll'
I1
tp249
a(S'w'
I1
tp250
a(S'tr_lh'
I1
tp251
a(S'tr_lr'
I1
tp252
a(S'w'
I3
tp253
a(S'no_ll'
I7
tp254
a(S'w'
I2185
tp255
a(S'tr_lh'
I0
tp256
a(S'tr_lr'
I0
tp257
a(S'w'
I2215
tp258
a(S'no_vo'
I5
tp259
a(S'no_np'
I10
tp260
a(S'no_ll'
I7
tp261
a(S'w'
I8794
tp262
a(S'p2_tl'
I124
tp263
a(S'p2_ll'
I1
tp264
a(S'p2_th'
I1
tp265
a(S'w'
I3
tp266
a(S'p2_vo'
I14
tp267
a(S'w'
I4
tp268
a(S'p1_tl'
I196
tp269
a(S'w'
I1
tp270
a(S'p1_ll'
I1
tp271
a(S'w'
I3
tp272
a(S'p1_du'
I1
tp273
a(S'p1_vo'
I14
tp274
a(S'w'
I2
tp275
a(S'w'
I1
tp276
a(S'no_ll'
I7
tp277
a(S'w'
I1451
tp278
a(S'p2_vo'
I12
tp279
a(S'w'
I2
tp280
a(S'p1_vo'
I12
tp281
a(S'w'
I1465
tp282
a(S'p2_vo'
I10
tp283
a(S'w'
I2
tp284
a(S'p1_vo'
I10
tp285
a(S'w'
I1466
tp286
a(S'p2_vo'
I9
tp287
a(S'w'
I2
tp288
a(S'p1_vo'
I9
tp289
a(S'w'
I1465
tp290
a(S'p2_vo'
I8
tp291
a(S'w'
I2
tp292
a(S'p1_vo'
I8
tp293
a(S'w'
I1466
tp294
a(S'p2_vo'
I0
tp295
a(S'w'
I2
tp296
a(S'p1_du'
I0
tp297
a(S'p1_vo'
I0
tp298
a(S'w'
I1470
tp299
a(S'p2_tl'
I13
tp300
a(S'w'
I1
tp301
a(S'p2_ll'
I1
tp302
a(S'w'
I2
tp303
a(S'p2_vo'
I14
tp304
a(S'w'
I6
tp305
a(S'p1_tl'
I83
tp306
a(S'w'
I1
tp307
a(S'p1_ll'
I1
tp308
a(S'w'
I3
tp309
a(S'p1_du'
I1
tp310
a(S'p1_vo'
I14
tp311
a(S'w'
I2
tp312
a(S'no_vo'
I9
tp313
a(S'w'
I1
tp314
a(S'no_np'
I3
tp315
a(S'no_ll'
I7
tp316
a(S'w'
I1447
tp317
a(S'p2_vo'
I12
tp318
a(S'w'
I2
tp319
a(S'p1_vo'
I12
tp320
a(S'w'
I1466
tp321
a(S'p2_vo'
I0
tp322
a(S'w'
I2
tp323
a(S'p1_du'
I0
tp324
a(S'p1_vo'
I0
tp325
a(S'w'
I1468
tp326
a(S'p2_tl'
I124
tp327
a(S'p2_ll'
I1
tp328
a(S'w'
I3
tp329
a(S'p2_vo'
I14
tp330
a(S'w'
I4
tp331
a(S'p1_tl'
I251
tp332
a(S'w'
I1
tp333
a(S'p1_ll'
I1
tp334
a(S'w'
I3
tp335
a(S'p1_du'
I1
tp336
a(S'p1_vo'
I14
tp337
a(S'w'
I1454
tp338
a(S'p2_vo'
I12
tp339
a(S'w'
I2
tp340
a(S'p1_vo'
I12
tp341
a(S'w'
I1465
tp342
a(S'p2_vo'
I0
tp343
a(S'w'
I2
tp344
a(S'p1_du'
I0
tp345
a(S'p1_vo'
I0
tp346
a(S'w'
I1475
tp347
a(S'no_vo'
I5
tp348
a(S'no_np'
I10
tp349
a(S'no_ll'
I7
tp350
a(S'w'
I4397
tp351
a(S'p2_tl'
I83
tp352
a(S'p2_ll'
I1
tp353
a(S'w'
I3
tp354
a(S'p2_vo'
I14
tp355
a(S'w'
I4
tp356
a(S'p1_tl'
I196
tp357
a(S'w'
I1
tp358
a(S'p1_ll'
I1
tp359
a(S'w'
I3
tp360
a(S'p1_du'
I1
tp361
a(S'p1_vo'
I14
tp362
a(S'w'
I2
tp363
a(S'w'
I1
tp364
a(S'no_ll'
I7
tp365
a(S'w'
I1450
tp366
a(S'p2_vo'
I12
tp367
a(S'w'
I2
tp368
a(S'p1_vo'
I12
tp369
a(S'w'
I1466
tp370
a(S'p2_vo'
I0
tp371
a(S'w'
I2
tp372
a(S'p1_du'
I0
tp373
a(S'p1_vo'
I0
tp374
a(S'w'
I1476
tp375
a(S'no_vo'
I0
tp376
a(S'w'
I1
tp377
a(S'no_nl'
I1
tp378
a(S'no_np'
I13
tp379
a(S'no_ll'
I22
tp380
a(S'w'
I4393
tp381
a(S'p2_tl'
I251
tp382
a(S'w'
I1
tp383
a(S'p2_ll'
I1
tp384
a(S'w'
I2
tp385
a(S'p2_vo'
I14
tp386
a(S'w'
I4
tp387
a(S'p1_tl'
I166
tp388
a(S'w'
I1
tp389
a(S'p1_ll'
I1
tp390
a(S'p1_th'
I2
tp391
a(S'w'
I3
tp392
a(S'p1_du'
I1
tp393
a(S'p1_vo'
I14
tp394
a(S'w'
I5
tp395
a(S'tr_ll'
I1
tp396
a(S'w'
I1
tp397
a(S'tr_lh'
I1
tp398
a(S'tr_lr'
I1
tp399
a(S'w'
I3
tp400
a(S'no_vo'
I9
tp401
a(S'no_nl'
I0
tp402
a(S'no_np'
I3
tp403
a(S'no_ll'
I7
tp404
a(S'w'
I1446
tp405
a(S'p2_vo'
I12
tp406
a(S'w'
I2
tp407
a(S'p1_vo'
I12
tp408
a(S'w'
I735
tp409
a(S'tr_lh'
I0
tp410
a(S'tr_lr'
I0
tp411
a(S'w'
I730
tp412
a(S'p2_vo'
I0
tp413
a(S'w'
I2
tp414
a(S'p1_du'
I0
tp415
a(S'p1_vo'
I0
tp416
a(S'w'
I1469
tp417
a(S'p2_tl'
I196
tp418
a(S'w'
I1
tp419
a(S'p2_ll'
I1
tp420
a(S'w'
I2
tp421
a(S'p2_vo'
I14
tp422
a(S'w'
I6
tp423
a(S'p1_tl'
I92
tp424
a(S'p1_ll'
I1
tp425
a(S'w'
I3
tp426
a(S'p1_du'
I1
tp427
a(S'p1_vo'
I14
tp428
a(S'w'
I5
tp429
a(S'tr_tl'
I190
tp430
a(S'w'
I1
tp431
a(S'tr_ll'
I1
tp432
a(S'w'
I1
tp433
a(S'tr_lh'
I1
tp434
a(S'tr_lr'
I1
tp435
a(S'w'
I3
tp436
a(S'w'
I1
tp437
a(S'no_ll'
I7
tp438
a(S'w'
I1442
tp439
a(S'p2_vo'
I12
tp440
a(S'w'
I2
tp441
a(S'p1_vo'
I12
tp442
a(S'w'
I734
tp443
a(S'tr_lh'
I0
tp444
a(S'tr_lr'
I0
tp445
a(S'w'
I731
tp446
a(S'p2_vo'
I10
tp447
a(S'w'
I2
tp448
a(S'p1_vo'
I10
tp449
a(S'w'
I1466
tp450
a(S'p2_vo'
I9
tp451
a(S'w'
I2
tp452
a(S'p1_vo'
I9
tp453
a(S'w'
I5
tp454
a(S'tr_tl'
I169
tp455
a(S'w'
I1
tp456
a(S'tr_ll'
I1
tp457
a(S'w'
I1
tp458
a(S'tr_lh'
I1
tp459
a(S'tr_lr'
I1
tp460
a(S'w'
I1458
tp461
a(S'p2_vo'
I8
tp462
a(S'w'
I2
tp463
a(S'p1_vo'
I8
tp464
a(S'w'
I735
tp465
a(S'tr_lh'
I0
tp466
a(S'tr_lr'
I0
tp467
a(S'w'
I731
tp468
a(S'p2_vo'
I7
tp469
a(S'w'
I2
tp470
a(S'p1_vo'
I7
tp471
a(S'w'
I1474
tp472
a(S'tr_ll'
I1
tp473
a(S'w'
I1
tp474
a(S'tr_lh'
I1
tp475
a(S'tr_lr'
I1
tp476
a(S'w'
I2
tp477
a(S'no_ll'
I7
tp478
a(S'w'
I2193
tp479
a(S'tr_lh'
I0
tp480
a(S'tr_lr'
I0
tp481
a(S'w'
I2205
tp482
a(S'tr_ll'
I1
tp483
a(S'w'
I1
tp484
a(S'tr_lh'
I1
tp485
a(S'tr_lr'
I1
tp486
a(S'w'
I2197
tp487
a(S'tr_lh'
I0
tp488
a(S'tr_lr'
I0
tp489
a(S'w'
I2205
tp490
a(S'tr_tl'
I190
tp491
a(S'tr_ll'
I1
tp492
a(S'w'
I1
tp493
a(S'tr_lh'
I1
tp494
a(S'tr_lr'
I1
tp495
a(S'w'
I4
tp496
a(S'no_ll'
I7
tp497
a(S'w'
I2192
tp498
a(S'tr_lh'
I0
tp499
a(S'tr_lr'
I0
tp500
a(S'w'
I2206
tp501
a(S'tr_tl'
I169
tp502
a(S'tr_ll'
I1
tp503
a(S'w'
I1
tp504
a(S'tr_lh'
I1
tp505
a(S'tr_lr'
I1
tp506
a(S'w'
I3
tp507
a(S'no_ll'
I7
tp508
a(S'w'
I2193
tp509
a(S'tr_lh'
I0
tp510
a(S'tr_lr'
I0
tp511
a(S'w'
I731
tp512
a(S'p2_vo'
I0
tp513
a(S'w'
I2
tp514
a(S'p1_du'
I0
tp515
a(S'p1_vo'
I0
tp516
a(S'w'
I1484
tp517
a(S'no_vo'
I5
tp518
a(S'w'
I1
tp519
a(S'no_np'
I10
tp520
a(S'no_ll'
I7
tp521
a(S'w'
I8788
tp522
a(S'p2_tl'
I223
tp523
a(S'p2_ll'
I1
tp524
a(S'w'
I3
tp525
a(S'p2_vo'
I14
tp526
a(S'w'
I4
tp527
a(S'p1_tl'
I58
tp528
a(S'w'
I1
tp529
a(S'p1_ll'
I1
tp530
a(S'w'
I3
tp531
a(S'p1_du'
I1
tp532
a(S'p1_vo'
I14
tp533
a(S'w'
I3
tp534
a(S'no_ll'
I7
tp535
a(S'w'
I1452
tp536
a(S'p2_vo'
I12
tp537
a(S'w'
I2
tp538
a(S'p1_vo'
I12
tp539
a(S'w'
I1465
tp540
a(S'p2_vo'
I10
tp541
a(S'w'
I2
tp542
a(S'p1_vo'
I10
tp543
a(S'w'
I1466
tp544
a(S'p2_vo'
I9
tp545
a(S'w'
I2
tp546
a(S'p1_vo'
I9
tp547
a(S'w'
I1465
tp548
a(S'p2_vo'
I8
tp549
a(S'w'
I2
tp550
a(S'p1_vo'
I8
tp551
a(S'w'
I1466
tp552
a(S'p2_vo'
I0
tp553
a(S'w'
I2
tp554
a(S'p1_du'
I0
tp555
a(S'p1_vo'
I0
tp556
a(S'w'
I1470
tp557
a(S'p2_tl'
I83
tp558
a(S'w'
I1
tp559
a(S'p2_ll'
I1
tp560
a(S'w'
I2
tp561
a(S'p2_vo'
I14
tp562
a(S'w'
I6
tp563
a(S'p1_tl'
I171
tp564
a(S'w'
I1
tp565
a(S'p1_ll'
I1
tp566
a(S'p1_th'
I1
tp567
a(S'w'
I3
tp568
a(S'p1_du'
I1
tp569
a(S'p1_vo'
I14
tp570
a(S'w'
I2
tp571
a(S'no_vo'
I9
tp572
a(S'w'
I1
tp573
a(S'no_np'
I3
tp574
a(S'no_ll'
I7
tp575
a(S'w'
I1447
tp576
a(S'p2_vo'
I12
tp577
a(S'w'
I2
tp578
a(S'p1_vo'
I12
tp579
a(S'w'
I1466
tp580
a(S'p2_vo'
I0
tp581
a(S'w'
I2
tp582
a(S'p1_du'
I0
tp583
a(S'p1_vo'
I0
tp584
a(S'w'
I1468
tp585
a(S'p2_ll'
I1
tp586
a(S'w'
I3
tp587
a(S'p2_vo'
I14
tp588
a(S'w'
I5
tp589
a(S'p1_ll'
I1
tp590
a(S'w'
I3
tp591
a(S'p1_du'
I1
tp592
a(S'p1_vo'
I14
tp593
a(S'w'
I1454
tp594
a(S'p2_vo'
I12
tp595
a(S'w'
I2
tp596
a(S'p1_vo'
I12
tp597
a(S'w'
I1465
tp598
a(S'p2_vo'
I0
tp599
a(S'w'
I2
tp600
a(S'p1_du'
I0
tp601
a(S'p1_vo'
I0
tp602
a(S'w'
I1475
tp603
a(S'no_vo'
I5
tp604
a(S'no_np'
I10
tp605
a(S'no_ll'
I7
tp606
a(S'w'
I4397
tp607
a(S'p2_tl'
I64
tp608
a(S'p2_ll'
I1
tp609
a(S'w'
I3
tp610
a(S'p2_vo'
I14
tp611
a(S'w'
I5
tp612
a(S'p1_tl'
I124
tp613
a(S'p1_ll'
I1
tp614
a(S'w'
I3
tp615
a(S'p1_du'
I1
tp616
a(S'p1_vo'
I14
tp617
a(S'w'
I3
tp618
a(S'no_ll'
I7
tp619
a(S'w'
I1450
tp620
a(S'p2_vo'
I12
tp621
a(S'w'
I2
tp622
a(S'p1_vo'
I12
tp623
a(S'w'
I1466
tp624
a(S'p2_vo'
I0
tp625
a(S'w'
I2
tp626
a(S'p1_du'
I0
tp627
a(S'p1_vo'
I0
tp628
a(S'w'
I1476
tp629
a(S'no_vo'
I0
tp630
a(S'w'
I1
tp631
a(S'no_nl'
I1
tp632
a(S'no_np'
I13
tp633
a(S'no_ll'
I22
tp634
a(S'w'
I4395
tp635
a(S'p2_tl'
I29
tp636
a(S'w'
I1
tp637
a(S'p2_ll'
I1
tp638
a(S'w'
I2
tp639
a(S'p2_vo'
I14
tp640
a(S'w'
I6
tp641
a(S'p1_tl'
I83
tp642
a(S'w'
I1
tp643
a(S'p1_ll'
I1
tp644
a(S'w'
I3
tp645
a(S'p1_du'
I1
tp646
a(S'p1_vo'
I14
tp647
a(S'w'
I5
tp648
a(S'tr_tl'
I213
tp649
a(S'tr_ll'
I1
tp650
a(S'w'
I1
tp651
a(S'tr_lh'
I1
tp652
a(S'tr_lr'
I1
tp653
a(S'w'
I3
tp654
a(S'no_vo'
I9
tp655
a(S'no_nl'
I0
tp656
a(S'no_np'
I3
tp657
a(S'no_ll'
I7
tp658
a(S'w'
I1442
tp659
a(S'p2_vo'
I12
tp660
a(S'w'
I2
tp661
a(S'p1_vo'
I12
tp662
a(S'w'
I735
tp663
a(S'tr_lh'
I0
tp664
a(S'tr_lr'
I0
tp665
a(S'w'
I730
tp666
a(S'p2_vo'
I10
tp667
a(S'w'
I2
tp668
a(S'p1_vo'
I10
tp669
a(S'w'
I1466
tp670
a(S'p2_vo'
I9
tp671
a(S'w'
I2
tp672
a(S'p1_vo'
I9
tp673
a(S'w'
I4
tp674
a(S'tr_tl'
I239
tp675
a(S'w'
I1
tp676
a(S'tr_ll'
I1
tp677
a(S'w'
I1
tp678
a(S'tr_lh'
I1
tp679
a(S'tr_lr'
I1
tp680
a(S'w'
I4
tp681
a(S'no_ll'
I7
tp682
a(S'w'
I1456
tp683
a(S'p2_vo'
I8
tp684
a(S'w'
I2
tp685
a(S'p1_vo'
I8
tp686
a(S'w'
I734
tp687
a(S'tr_lh'
I0
tp688
a(S'tr_lr'
I0
tp689
a(S'w'
I731
tp690
a(S'p2_vo'
I7
tp691
a(S'w'
I2
tp692
a(S'p1_vo'
I7
tp693
a(S'w'
I1473
tp694
a(S'tr_tl'
I213
tp695
a(S'w'
I1
tp696
a(S'tr_ll'
I1
tp697
a(S'w'
I1
tp698
a(S'tr_lh'
I1
tp699
a(S'tr_lr'
I1
tp700
a(S'w'
I2195
tp701
a(S'tr_lh'
I0
tp702
a(S'tr_lr'
I0
tp703
a(S'w'
I2206
tp704
a(S'tr_ll'
I1
tp705
a(S'w'
I1
tp706
a(S'tr_lh'
I1
tp707
a(S'tr_lr'
I1
tp708
a(S'w'
I3
tp709
a(S'no_ll'
I7
tp710
a(S'w'
I2193
tp711
a(S'tr_lh'
I0
tp712
a(S'tr_lr'
I0
tp713
a(S'w'
I2205
tp714
a(S'tr_ll'
I1
tp715
a(S'w'
I1
tp716
a(S'tr_lh'
I1
tp717
a(S'tr_lr'
I1
tp718
a(S'w'
I2197
tp719
a(S'tr_lh'
I0
tp720
a(S'tr_lr'
I0
tp721
a(S'w'
I2204
tp722
a(S'tr_tl'
I239
tp723
a(S'w'
I1
tp724
a(S'tr_ll'
I1
tp725
a(S'tr_lh'
I1
tp726
a(S'tr_lr'
I1
tp727
a(S'w'
I4
tp728
a(S'no_ll'
I7
tp729
a(S'w'
I2193
tp730
a(S'tr_lh'
I0
tp731
a(S'tr_lr'
I0
tp732
a(S'w'
I731
tp733
a(S'p2_vo'
I0
tp734
a(S'w'
I2
tp735
a(S'p1_du'
I0
tp736
a(S'p1_vo'
I0
tp737
a(S'w'
I1479
tp738
a(S'tr_tl'
I213
tp739
a(S'tr_ll'
I1
tp740
a(S'w'
I1
tp741
a(S'tr_lh'
I1
tp742
a(S'tr_lr'
I1
tp743
a(S'w'
I3
tp744
a(S'no_ll'
I7
tp745
a(S'w'
I2185
tp746
a(S'tr_lh'
I0
tp747
a(S'tr_lr'
I0
tp748
a(S'w'
I2215
tp749
a(S'no_vo'
I5
tp750
a(S'no_np'
I8
tp751
a(S'no_ll'
I7
tp752
a(S'w'
I8794
tp753
a(S'p2_tl'
I64
tp754
a(S'p2_ll'
I1
tp755
a(S'w'
I3
tp756
a(S'p2_vo'
I14
tp757
a(S'w'
I5
tp758
a(S'p1_tl'
I171
tp759
a(S'p1_ll'
I1
tp760
a(S'w'
I3
tp761
a(S'p1_du'
I1
tp762
a(S'p1_vo'
I14
tp763
a(S'w'
I6
tp764
a(S'tr_tl'
I126
tp765
a(S'tr_ll'
I1
tp766
a(S'w'
I1
tp767
a(S'tr_lh'
I1
tp768
a(S'tr_lr'
I1
tp769
a(S'w'
I2
tp770
a(S'w'
I1
tp771
a(S'no_ll'
I7
tp772
a(S'w'
I1444
tp773
a(S'p2_vo'
I12
tp774
a(S'w'
I2
tp775
a(S'p1_vo'
I12
tp776
a(S'w'
I1465
tp777
a(S'p2_vo'
I10
tp778
a(S'w'
I2
tp779
a(S'p1_vo'
I10
tp780
a(S'w'
I1466
tp781
a(S'p2_vo'
I9
tp782
a(S'w'
I2
tp783
a(S'p1_vo'
I9
tp784
a(S'w'
I1465
tp785
a(S'p2_vo'
I8
tp786
a(S'w'
I2
tp787
a(S'p1_vo'
I8
tp788
a(S'w'
I735
tp789
a(S'tr_lh'
I0
tp790
a(S'tr_lr'
I0
tp791
a(S'w'
I731
tp792
a(S'p2_vo'
I0
tp793
a(S'w'
I2
tp794
a(S'p1_du'
I0
tp795
a(S'p1_vo'
I0
tp796
a(S'w'
I1470
tp797
a(S'p2_tl'
I29
tp798
a(S'w'
I1
tp799
a(S'p2_ll'
I1
tp800
a(S'w'
I2
tp801
a(S'p2_vo'
I14
tp802
a(S'w'
I6
tp803
a(S'p1_tl'
I64
tp804
a(S'w'
I1
tp805
a(S'p1_ll'
I1
tp806
a(S'w'
I3
tp807
a(S'p1_du'
I1
tp808
a(S'p1_vo'
I14
tp809
a(S'w'
I7
tp810
a(S'tr_tl'
I106
tp811
a(S'tr_ll'
I1
tp812
a(S'w'
I1
tp813
a(S'tr_lh'
I1
tp814
a(S'tr_lr'
I1
tp815
a(S'w'
I4
tp816
a(S'no_ll'
I1
tp817
a(S'w'
I1
tp818
a(S'no_vo'
I13
tp819
a(S'w'
I1
tp820
a(S'w'
I707
tp821
a(S'no_vo'
I11
tp822
a(S'no_np'
I7
tp823
a(S'w'
I729
tp824
a(S'p2_vo'
I12
tp825
a(S'w'
I2
tp826
a(S'p1_vo'
I12
tp827
a(S'w'
I3
tp828
a(S'no_vo'
I0
tp829
a(S'no_np'
I1
tp830
a(S'w'
I732
tp831
a(S'tr_lh'
I0
tp832
a(S'tr_lr'
I0
tp833
a(S'w'
I2
tp834
a(S'w'
I729
tp835
a(S'p2_vo'
I0
tp836
a(S'w'
I2
tp837
a(S'p1_du'
I0
tp838
a(S'p1_vo'
I0
tp839
a(S'w'
I3
tp840
a(S'w'
I733
tp841
a(S'w'
I732
tp842
a(S'p2_ll'
I1
tp843
a(S'w'
I3
tp844
a(S'p2_vo'
I14
tp845
a(S'w'
I5
tp846
a(S'p1_ll'
I1
tp847
a(S'w'
I3
tp848
a(S'p1_du'
I1
tp849
a(S'p1_vo'
I14
tp850
a(S'w'
I5
tp851
a(S'tr_tl'
I113
tp852
a(S'w'
I1
tp853
a(S'tr_ll'
I1
tp854
a(S'w'
I1
tp855
a(S'tr_lh'
I1
tp856
a(S'tr_lr'
I1
tp857
a(S'w'
I2
tp858
a(S'no_ll'
I1
tp859
a(S'w'
I2
tp860
a(S'no_vo'
I13
tp861
a(S'no_np'
I8
tp862
a(S'w'
I714
tp863
a(S'no_vo'
I11
tp864
a(S'no_np'
I7
tp865
a(S'w'
I729
tp866
a(S'p2_vo'
I12
tp867
a(S'w'
I2
tp868
a(S'p1_vo'
I12
tp869
a(S'w'
I3
tp870
a(S'no_vo'
I0
tp871
a(S'no_np'
I1
tp872
a(S'w'
I732
tp873
a(S'tr_lh'
I0
tp874
a(S'tr_lr'
I0
tp875
a(S'w'
I2
tp876
a(S'w'
I728
tp877
a(S'p2_vo'
I0
tp878
a(S'w'
I2
tp879
a(S'p1_du'
I0
tp880
a(S'p1_vo'
I0
tp881
a(S'w'
I3
tp882
a(S'w'
I734
tp883
a(S'w'
I738
tp884
a(S'no_nl'
I1
tp885
a(S'no_np'
I13
tp886
a(S'w'
I1
tp887
a(S'no_ll'
I22
tp888
a(S'w'
I4396
tp889
a(S'p2_tl'
I103
tp890
a(S'p2_ll'
I1
tp891
a(S'w'
I3
tp892
a(S'p2_vo'
I14
tp893
a(S'w'
I4
tp894
a(S'p1_tl'
I223
tp895
a(S'w'
I1
tp896
a(S'p1_ll'
I1
tp897
a(S'w'
I3
tp898
a(S'p1_du'
I1
tp899
a(S'p1_vo'
I14
tp900
a(S'w'
I5
tp901
a(S'tr_tl'
I142
tp902
a(S'tr_ll'
I1
tp903
a(S'w'
I1
tp904
a(S'tr_lh'
I1
tp905
a(S'tr_lr'
I1
tp906
a(S'w'
I3
tp907
a(S'no_ll'
I1
tp908
a(S'w'
I1
tp909
a(S'no_vo'
I13
tp910
a(S'no_nl'
I0
tp911
a(S'no_np'
I8
tp912
a(S'w'
I715
tp913
a(S'no_vo'
I11
tp914
a(S'no_np'
I7
tp915
a(S'w'
I728
tp916
a(S'p2_vo'
I12
tp917
a(S'w'
I2
tp918
a(S'p1_vo'
I12
tp919
a(S'w'
I3
tp920
a(S'no_vo'
I0
tp921
a(S'no_np'
I1
tp922
a(S'w'
I732
tp923
a(S'tr_lh'
I0
tp924
a(S'tr_lr'
I0
tp925
a(S'w'
I2
tp926
a(S'w'
I729
tp927
a(S'p2_vo'
I0
tp928
a(S'w'
I2
tp929
a(S'p1_du'
I0
tp930
a(S'p1_vo'
I0
tp931
a(S'w'
I3
tp932
a(S'w'
I734
tp933
a(S'w'
I738
tp934
a(S'no_nl'
I1
tp935
a(S'no_np'
I13
tp936
a(S'w'
I1
tp937
a(S'no_ll'
I22
tp938
a(S'w'
I4395
tp939
a(S'p2_tl'
I64
tp940
a(S'p2_ll'
I1
tp941
a(S'w'
I3
tp942
a(S'p2_vo'
I14
tp943
a(S'w'
I5
tp944
a(S'p1_tl'
I103
tp945
a(S'p1_ll'
I1
tp946
a(S'w'
I3
tp947
a(S'p1_du'
I1
tp948
a(S'p1_vo'
I14
tp949
a(S'w'
I6
tp950
a(S'tr_tl'
I119
tp951
a(S'tr_ll'
I1
tp952
a(S'w'
I1
tp953
a(S'tr_lh'
I1
tp954
a(S'tr_lr'
I1
tp955
a(S'w'
I2
tp956
a(S'no_ll'
I1
tp957
a(S'w'
I2
tp958
a(S'no_vo'
I13
tp959
a(S'no_nl'
I0
tp960
a(S'no_np'
I8
tp961
a(S'w'
I714
tp962
a(S'no_vo'
I11
tp963
a(S'no_np'
I7
tp964
a(S'w'
I729
tp965
a(S'p2_vo'
I12
tp966
a(S'w'
I2
tp967
a(S'p1_vo'
I12
tp968
a(S'w'
I3
tp969
a(S'no_vo'
I0
tp970
a(S'no_np'
I1
tp971
a(S'w'
I732
tp972
a(S'tr_lh'
I0
tp973
a(S'tr_lr'
I0
tp974
a(S'w'
I2
tp975
a(S'w'
I728
tp976
a(S'p2_vo'
I0
tp977
a(S'w'
I2
tp978
a(S'p1_du'
I0
tp979
a(S'p1_vo'
I0
tp980
a(S'w'
I3
tp981
a(S'w'
I734
tp982
a(S'w'
I733
tp983
a(S'w'
I1
tp984
a(S'p2_ll'
I1
tp985
a(S'w'
I2
tp986
a(S'p2_vo'
I14
tp987
a(S'w'
I6
tp988
a(S'w'
I1
tp989
a(S'p1_ll'
I1
tp990
a(S'w'
I3
tp991
a(S'p1_du'
I1
tp992
a(S'p1_vo'
I14
tp993
a(S'w'
I6
tp994
a(S'tr_tl'
I126
tp995
a(S'w'
I1
tp996
a(S'tr_ll'
I1
tp997
a(S'tr_lh'
I1
tp998
a(S'tr_lr'
I1
tp999
a(S'w'
I4
tp1000
a(S'no_ll'
I1
tp1001
a(S'w'
I2
tp1002
a(S'no_vo'
I13
tp1003
a(S'no_np'
I8
tp1004
a(S'w'
I709
tp1005
a(S'no_vo'
I11
tp1006
a(S'no_np'
I7
tp1007
a(S'w'
I729
tp1008
a(S'p2_vo'
I12
tp1009
a(S'w'
I2
tp1010
a(S'p1_vo'
I12
tp1011
a(S'w'
I3
tp1012
a(S'no_vo'
I0
tp1013
a(S'no_np'
I1
tp1014
a(S'w'
I733
tp1015
a(S'w'
I729
tp1016
a(S'p2_vo'
I10
tp1017
a(S'w'
I2
tp1018
a(S'p1_vo'
I10
tp1019
a(S'w'
I3
tp1020
a(S'w'
I734
tp1021
a(S'w'
I729
tp1022
a(S'p2_vo'
I9
tp1023
a(S'w'
I2
tp1024
a(S'p1_vo'
I9
tp1025
a(S'w'
I3
tp1026
a(S'w'
I734
tp1027
a(S'w'
I728
tp1028
a(S'p2_vo'
I8
tp1029
a(S'w'
I2
tp1030
a(S'p1_vo'
I8
tp1031
a(S'w'
I3
tp1032
a(S'w'
I734
tp1033
a(S'w'
I729
tp1034
a(S'p2_vo'
I7
tp1035
a(S'w'
I2
tp1036
a(S'p1_vo'
I7
tp1037
a(S'w'
I3
tp1038
a(S'w'
I734
tp1039
a(S'w'
I734
tp1040
a(S'no_ll'
I1
tp1041
a(S'w'
I1
tp1042
a(S'no_vo'
I13
tp1043
a(S'no_np'
I8
tp1044
a(S'w'
I732
tp1045
a(S'no_vo'
I11
tp1046
a(S'no_np'
I7
tp1047
a(S'w'
I734
tp1048
a(S'no_vo'
I0
tp1049
a(S'no_np'
I1
tp1050
a(S'w'
I734
tp1051
a(S'w'
I734
tp1052
a(S'w'
I733
tp1053
a(S'w'
I734
tp1054
a(S'w'
I734
tp1055
a(S'w'
I734
tp1056
a(S'w'
I734
tp1057
a(S'w'
I733
tp1058
a(S'w'
I734
tp1059
a(S'w'
I735
tp1060
a(S'no_ll'
I1
tp1061
a(S'w'
I1
tp1062
a(S'no_vo'
I13
tp1063
a(S'no_np'
I8
tp1064
a(S'w'
I731
tp1065
a(S'no_vo'
I11
tp1066
a(S'w'
I1
tp1067
a(S'no_np'
I7
tp1068
a(S'w'
I733
tp1069
a(S'no_vo'
I0
tp1070
a(S'w'
I1
tp1071
a(S'no_np'
I1
tp1072
a(S'w'
I733
tp1073
a(S'w'
I734
tp1074
a(S'w'
I734
tp1075
a(S'w'
I734
tp1076
a(S'no_ll'
I1
tp1077
a(S'w'
I1
tp1078
a(S'no_vo'
I13
tp1079
a(S'no_np'
I8
tp1080
a(S'w'
I732
tp1081
a(S'no_vo'
I11
tp1082
a(S'w'
I1
tp1083
a(S'no_np'
I7
tp1084
a(S'w'
I732
tp1085
a(S'no_vo'
I0
tp1086
a(S'w'
I1
tp1087
a(S'no_np'
I1
tp1088
a(S'w'
I732
tp1089
a(S'tr_lh'
I0
tp1090
a(S'tr_lr'
I0
tp1091
a(S'w'
I2
tp1092
a(S'w'
I729
tp1093
a(S'p2_vo'
I0
tp1094
a(S'w'
I2
tp1095
a(S'p1_du'
I0
tp1096
a(S'p1_vo'
I0
tp1097
a(S'w'
I3
tp1098
a(S'w'
I734
tp1099
a(S'w'
I733
tp1100
a(S'p2_tl'
I253
tp1101
a(S'w'
I1
tp1102
a(S'p2_ll'
I1
tp1103
a(S'p2_th'
I0
tp1104
a(S'w'
I2
tp1105
a(S'p2_vo'
I14
tp1106
a(S'w'
I6
tp1107
a(S'p1_tl'
I83
tp1108
a(S'w'
I1
tp1109
a(S'p1_ll'
I1
tp1110
a(S'w'
I3
tp1111
a(S'p1_du'
I1
tp1112
a(S'p1_vo'
I14
tp1113
a(S'w'
I5
tp1114
a(S'tr_tl'
I226
tp1115
a(S'w'
I1
tp1116
a(S'tr_ll'
I1
tp1117
a(S'w'
I1
tp1118
a(S'tr_lh'
I1
tp1119
a(S'tr_lr'
I1
tp1120
a(S'w'
I3
tp1121
a(S'no_vo'
I9
tp1122
a(S'no_np'
I3
tp1123
a(S'w'
I1
tp1124
a(S'no_ll'
I7
tp1125
a(S'w'
I1439
tp1126
a(S'p2_vo'
I12
tp1127
a(S'w'
I2
tp1128
a(S'p1_vo'
I12
tp1129
a(S'w'
I735
tp1130
a(S'tr_lh'
I0
tp1131
a(S'tr_lr'
I0
tp1132
a(S'w'
I731
tp1133
a(S'p2_vo'
I0
tp1134
a(S'w'
I2
tp1135
a(S'p1_du'
I0
tp1136
a(S'p1_vo'
I0
tp1137
a(S'w'
I1468
tp1138
a(S'p2_ll'
I1
tp1139
a(S'w'
I3
tp1140
a(S'p2_vo'
I14
tp1141
a(S'w'
I5
tp1142
a(S'p1_ll'
I1
tp1143
a(S'w'
I3
tp1144
a(S'p1_du'
I1
tp1145
a(S'p1_vo'
I14
tp1146
a(S'w'
I5
tp1147
a(S'tr_ll'
I1
tp1148
a(S'w'
I1
tp1149
a(S'tr_lh'
I1
tp1150
a(S'tr_lr'
I1
tp1151
a(S'w'
I3
tp1152
a(S'no_ll'
I7
tp1153
a(S'w'
I1445
tp1154
a(S'p2_vo'
I12
tp1155
a(S'w'
I2
tp1156
a(S'p1_vo'
I12
tp1157
a(S'w'
I735
tp1158
a(S'tr_lh'
I0
tp1159
a(S'tr_lr'
I0
tp1160
a(S'w'
I730
tp1161
a(S'p2_vo'
I0
tp1162
a(S'w'
I2
tp1163
a(S'p1_du'
I0
tp1164
a(S'p1_vo'
I0
tp1165
a(S'w'
I1475
tp1166
a(S'no_vo'
I0
tp1167
a(S'no_nl'
I1
tp1168
a(S'no_np'
I13
tp1169
a(S'w'
I1
tp1170
a(S'no_ll'
I22
tp1171
a(S'w'
I4397
tp1172
a(S'p2_tl'
I226
tp1173
a(S'w'
I1
tp1174
a(S'p2_ll'
I1
tp1175
a(S'w'
I2
tp1176
a(S'p2_vo'
I14
tp1177
a(S'w'
I6
tp1178
a(S'p1_tl'
I46
tp1179
a(S'w'
I1
tp1180
a(S'p1_ll'
I1
tp1181
a(S'w'
I3
tp1182
a(S'p1_du'
I1
tp1183
a(S'p1_vo'
I14
tp1184
a(S'w'
I6
tp1185
a(S'tr_tl'
I201
tp1186
a(S'w'
I1
tp1187
a(S'tr_ll'
I1
tp1188
a(S'tr_lh'
I1
tp1189
a(S'tr_lr'
I1
tp1190
a(S'w'
I3
tp1191
a(S'no_vo'
I9
tp1192
a(S'no_nl'
I0
tp1193
a(S'no_np'
I3
tp1194
a(S'no_ll'
I7
tp1195
a(S'w'
I1440
tp1196
a(S'p2_vo'
I12
tp1197
a(S'w'
I2
tp1198
a(S'p1_vo'
I12
tp1199
a(S'w'
I1466
tp1200
a(S'p2_vo'
I10
tp1201
a(S'w'
I2
tp1202
a(S'p1_vo'
I10
tp1203
a(S'w'
I1466
tp1204
a(S'p2_vo'
I9
tp1205
a(S'w'
I2
tp1206
a(S'p1_vo'
I9
tp1207
a(S'w'
I4
tp1208
a(S'no_vo'
I0
tp1209
a(S'no_nl'
I1
tp1210
a(S'no_np'
I13
tp1211
a(S'no_ll'
I22
tp1212
a(S'w'
I1461
tp1213
a(S'p2_vo'
I8
tp1214
a(S'w'
I2
tp1215
a(S'p1_vo'
I8
tp1216
a(S'w'
I1466
tp1217
a(S'p2_vo'
I7
tp1218
a(S'w'
I2
tp1219
a(S'p1_vo'
I7
tp1220
a(S'w'
I3670
tp1221
a(S'tr_lh'
I0
tp1222
a(S'tr_lr'
I0
tp1223
a(S'w'
I730
tp1224
a(S'p2_vo'
I0
tp1225
a(S'w'
I2
tp1226
a(S'p1_du'
I0
tp1227
a(S'p1_vo'
I0
tp1228
a(S'w'
I1470
tp1229
a(S'p2_tl'
I253
tp1230
a(S'w'
I1
tp1231
a(S'p2_ll'
I1
tp1232
a(S'w'
I2
tp1233
a(S'p2_vo'
I14
tp1234
a(S'w'
I6
tp1235
a(S'p1_tl'
I83
tp1236
a(S'w'
I1
tp1237
a(S'p1_ll'
I1
tp1238
a(S'w'
I3
tp1239
a(S'p1_du'
I1
tp1240
a(S'p1_vo'
I14
tp1241
a(S'w'
I5
tp1242
a(S'tr_tl'
I226
tp1243
a(S'w'
I1
tp1244
a(S'tr_ll'
I1
tp1245
a(S'w'
I1
tp1246
a(S'tr_lh'
I1
tp1247
a(S'tr_lr'
I1
tp1248
a(S'w'
I2
tp1249
a(S'no_vo'
I5
tp1250
a(S'no_nl'
I0
tp1251
a(S'no_np'
I10
tp1252
a(S'no_ll'
I7
tp1253
a(S'w'
I1442
tp1254
a(S'p2_vo'
I12
tp1255
a(S'w'
I2
tp1256
a(S'p1_vo'
I12
tp1257
a(S'w'
I1465
tp1258
a(S'p2_vo'
I10
tp1259
a(S'w'
I2
tp1260
a(S'p1_vo'
I10
tp1261
a(S'w'
I1466
tp1262
a(S'p2_vo'
I9
tp1263
a(S'w'
I2
tp1264
a(S'p1_vo'
I9
tp1265
a(S'w'
I1465
tp1266
a(S'p2_vo'
I8
tp1267
a(S'w'
I2
tp1268
a(S'p1_vo'
I8
tp1269
a(S'w'
I735
tp1270
a(S'tr_lh'
I0
tp1271
a(S'tr_lr'
I0
tp1272
a(S'w'
I731
tp1273
a(S'p2_vo'
I0
tp1274
a(S'w'
I2
tp1275
a(S'p1_du'
I0
tp1276
a(S'p1_vo'
I0
tp1277
a(S'w'
I1470
tp1278
a(S'p2_tl'
I190
tp1279
a(S'p2_ll'
I1
tp1280
a(S'w'
I2
tp1281
a(S'p2_vo'
I14
tp1282
a(S'w'
I6
tp1283
a(S'p1_tl'
I253
tp1284
a(S'p1_ll'
I1
tp1285
a(S'p1_th'
I0
tp1286
a(S'w'
I3
tp1287
a(S'p1_du'
I1
tp1288
a(S'p1_vo'
I14
tp1289
a(S'w'
I7
tp1290
a(S'tr_tl'
I169
tp1291
a(S'tr_ll'
I1
tp1292
a(S'w'
I1
tp1293
a(S'tr_lh'
I1
tp1294
a(S'tr_lr'
I1
tp1295
a(S'w'
I4
tp1296
a(S'no_ll'
I1
tp1297
a(S'w'
I1
tp1298
a(S'no_vo'
I13
tp1299
a(S'no_np'
I8
tp1300
a(S'w'
I710
tp1301
a(S'no_vo'
I11
tp1302
a(S'no_np'
I7
tp1303
a(S'w'
I729
tp1304
a(S'p2_vo'
I12
tp1305
a(S'w'
I2
tp1306
a(S'p1_vo'
I12
tp1307
a(S'w'
I3
tp1308
a(S'no_vo'
I0
tp1309
a(S'no_np'
I1
tp1310
a(S'w'
I732
tp1311
a(S'tr_lh'
I0
tp1312
a(S'tr_lr'
I0
tp1313
a(S'w'
I2
tp1314
a(S'w'
I729
tp1315
a(S'p2_vo'
I10
tp1316
a(S'w'
I2
tp1317
a(S'p1_vo'
I10
tp1318
a(S'w'
I3
tp1319
a(S'w'
I733
tp1320
a(S'w'
I729
tp1321
a(S'p2_vo'
I9
tp1322
a(S'w'
I2
tp1323
a(S'p1_vo'
I9
tp1324
a(S'w'
I5
tp1325
a(S'tr_tl'
I151
tp1326
a(S'w'
I1
tp1327
a(S'tr_ll'
I1
tp1328
a(S'w'
I1
tp1329
a(S'tr_lh'
I1
tp1330
a(S'tr_lr'
I1
tp1331
a(S'w'
I2
tp1332
a(S'no_ll'
I1
tp1333
a(S'w'
I2
tp1334
a(S'no_vo'
I13
tp1335
a(S'no_np'
I8
tp1336
a(S'w'
I726
tp1337
a(S'no_vo'
I11
tp1338
a(S'no_np'
I7
tp1339
a(S'w'
I729
tp1340
a(S'p2_vo'
I8
tp1341
a(S'w'
I2
tp1342
a(S'p1_vo'
I8
tp1343
a(S'w'
I3
tp1344
a(S'no_vo'
I0
tp1345
a(S'no_np'
I1
tp1346
a(S'w'
I732
tp1347
a(S'tr_lh'
I0
tp1348
a(S'tr_lr'
I0
tp1349
a(S'w'
I2
tp1350
a(S'w'
I728
tp1351
a(S'p2_vo'
I0
tp1352
a(S'w'
I2
tp1353
a(S'p1_du'
I0
tp1354
a(S'p1_vo'
I0
tp1355
a(S'w'
I3
tp1356
a(S'w'
I734
tp1357
a(S'w'
I734
tp1358
a(S'p2_tl'
I169
tp1359
a(S'p2_ll'
I1
tp1360
a(S'w'
I3
tp1361
a(S'p2_vo'
I14
tp1362
a(S'w'
I6
tp1363
a(S'p1_tl'
I226
tp1364
a(S'w'
I1
tp1365
a(S'p1_ll'
I1
tp1366
a(S'w'
I3
tp1367
a(S'p1_du'
I1
tp1368
a(S'p1_vo'
I14
tp1369
a(S'w'
I6
tp1370
a(S'tr_tl'
I134
tp1371
a(S'tr_ll'
I1
tp1372
a(S'w'
I1
tp1373
a(S'tr_lh'
I1
tp1374
a(S'tr_lr'
I1
tp1375
a(S'w'
I3
tp1376
a(S'no_ll'
I1
tp1377
a(S'w'
I1
tp1378
a(S'no_vo'
I13
tp1379
a(S'no_np'
I8
tp1380
a(S'w'
I710
tp1381
a(S'no_vo'
I11
tp1382
a(S'no_np'
I7
tp1383
a(S'w'
I729
tp1384
a(S'p2_vo'
I12
tp1385
a(S'w'
I2
tp1386
a(S'p1_vo'
I12
tp1387
a(S'w'
I3
tp1388
a(S'no_vo'
I0
tp1389
a(S'no_np'
I1
tp1390
a(S'w'
I733
tp1391
a(S'w'
I729
tp1392
a(S'p2_vo'
I10
tp1393
a(S'w'
I2
tp1394
a(S'p1_vo'
I10
tp1395
a(S'w'
I3
tp1396
a(S'w'
I734
tp1397
a(S'w'
I729
tp1398
a(S'p2_vo'
I9
tp1399
a(S'w'
I2
tp1400
a(S'p1_vo'
I9
tp1401
a(S'w'
I3
tp1402
a(S'no_ll'
I1
tp1403
a(S'w'
I1
tp1404
a(S'no_vo'
I13
tp1405
a(S'no_np'
I8
tp1406
a(S'w'
I733
tp1407
a(S'no_vo'
I11
tp1408
a(S'no_np'
I7
tp1409
a(S'w'
I728
tp1410
a(S'p2_vo'
I8
tp1411
a(S'w'
I2
tp1412
a(S'p1_vo'
I8
tp1413
a(S'w'
I3
tp1414
a(S'no_vo'
I0
tp1415
a(S'no_np'
I1
tp1416
a(S'w'
I734
tp1417
a(S'w'
I729
tp1418
a(S'p2_vo'
I7
tp1419
a(S'w'
I2
tp1420
a(S'p1_vo'
I7
tp1421
a(S'w'
I3
tp1422
a(S'w'
I734
tp1423
a(S'w'
I735
tp1424
a(S'no_nl'
I1
tp1425
a(S'no_np'
I13
tp1426
a(S'no_ll'
I22
tp1427
a(S'w'
I33017
tp1428
a(S'tr_lh'
I0
tp1429
a(S'tr_lr'
I0
tp1430
a(S'w'
I731
tp1431
a(S'p2_vo'
I0
tp1432
a(S'w'
I2
tp1433
a(S'p1_du'
I0
tp1434
a(S'p1_vo'
I0
tp1435
a(S'w'
I57604
tp1436
a.