(lp1
(S'clock'
p2
I1789772
tp3
a(S'ch_no'
I1
tp4
a(S'ch_tr'
I1
tp5
a(S'ch_p2'
I1
tp6
a(S'ch_p1'
I1
tp7
a(S'w'
I1
tp8
a(S'fc_mo'
I1
tp9
a(S'w'
I5
tp10
a(S'p1_cv'
I1
tp11
a(S'w'
I1
tp12
a(S'p2_cv'
I1
tp13
a(S'no_cv'
I1
tp14
a(S'w'
I11
tp15
a(S'p1_sp'
I7
tp16
a(S'p1_sn'
I1
tp17
a(S'p1_ss'
I7
tp18
a(S'w'
I6
tp19
a(S'p2_sp'
I7
tp20
a(S'p2_sn'
I1
tp21
a(S'p2_ss'
I7
tp22
a(S'w'
I4
tp23
a(S'tr_lr'
I4
tp24
a(S'w'
I1
tp25
a(S'tr_tl'
I249
tp26
a(S'w'
I1
tp27
a(S'tr_ll'
I1
tp28
a(S'tr_th'
I2
tp29
a(S'w'
I5
tp30
a(S'no_np'
I1
tp31
a(S'no_ll'
I3
tp32
a(S'w'
I2179
tp33
a(S'tr_tl'
I207
tp34
a(S'tr_ll'
I1
tp35
a(S'w'
I2209
tp36
a(S'tr_lr'
I60
tp37
a(S'w'
I2
tp38
a(S'tr_tl'
I166
tp39
a(S'tr_ll'
I1
tp40
a(S'w'
I6
tp41
a(S'no_cv'
I0
tp42
a(S'w'
I1
tp43
a(S'no_ll'
I17
tp44
a(S'w'
I8789
tp45
a(S'no_cv'
I1
tp46
a(S'w'
I1
tp47
a(S'no_ll'
I3
tp48
a(S'w'
I8802
tp49
a(S'p1_tl'
I124
tp50
a(S'p1_ll'
I1
tp51
a(S'p1_th'
I1
tp52
a(S'w'
I1
tp53
a(S'p1_cv'
I0
tp54
a(S'p1_vo'
I6
tp55
a(S'w'
I4
tp56
a(S'p2_tl'
I26
tp57
a(S'w'
I1
tp58
a(S'p2_ll'
I1
tp59
a(S'p2_th'
I2
tp60
a(S'p2_cv'
I0
tp61
a(S'p2_vo'
I6
tp62
a(S'w'
I5
tp63
a(S'no_cv'
I0
tp64
a(S'w'
I1
tp65
a(S'no_ll'
I17
tp66
a(S'w'
I4390
tp67
a(S'p1_cv'
I1
tp68
a(S'p1_vo'
I0
tp69
a(S'w'
I5
tp70
a(S'p2_cv'
I1
tp71
a(S'p2_vo'
I0
tp72
a(S'w'
I4410
tp73
a(S'tr_lr'
I0
tp74
a(S'w'
I3
tp75
a(S'no_vo'
I2
tp76
a(S'no_np'
I2
tp77
a(S'no_ll'
I8
tp78
a(S'w'
I8798
tp79
a(S'no_cv'
I1
tp80
a(S'no_vo'
I0
tp81
a(S'no_np'
I1
tp82
a(S'no_ll'
I3
tp83
a(S'w'
I8806
tp84
a(S'no_cv'
I0
tp85
a(S'no_ll'
I17
tp86
a(S'w'
I8800
tp87
a(S'tr_tl'
I26
tp88
a(S'tr_ll'
I1
tp89
a(S'tr_lr'
I60
tp90
a(S'w'
I6
tp91
a(S'w'
I1
tp92
a(S'no_ll'
I17
tp93
a(S'w'
I8799
tp94
a(S'no_cv'
I1
tp95
a(S'w'
I1
tp96
a(S'no_ll'
I3
tp97
a(S'w'
I8804
tp98
a(S'no_cv'
I0
tp99
a(S'w'
I1
tp100
a(S'no_ll'
I17
tp101
a(S'w'
I8805
tp102
a(S'tr_lr'
I0
tp103
a(S'w'
I4
tp104
a(S'no_vo'
I2
tp105
a(S'no_np'
I2
tp106
a(S'no_ll'
I8
tp107
a(S'w'
I8806
tp108
a(S'no_cv'
I1
tp109
a(S'no_vo'
I0
tp110
a(S'no_np'
I1
tp111
a(S'no_ll'
I3
tp112
a(S'w'
I6596
tp113
a(S'p1_tl'
I171
tp114
a(S'p1_ll'
I1
tp115
a(S'w'
I1
tp116
a(S'p1_cv'
I0
tp117
a(S'p1_vo'
I6
tp118
a(S'w'
I2202
tp119
a(S'p1_tl'
I82
tp120
a(S'p1_ll'
I1
tp121
a(S'w'
I5
tp122
a(S'p2_tl'
I147
tp123
a(S'w'
I1
tp124
a(S'p2_ll'
I1
tp125
a(S'p2_th'
I1
tp126
a(S'p2_cv'
I0
tp127
a(S'p2_vo'
I6
tp128
a(S'w'
I5
tp129
a(S'no_cv'
I0
tp130
a(S'w'
I1
tp131
a(S'no_ll'
I17
tp132
a(S'w'
I8795
tp133
a(S'tr_tl'
I252
tp134
a(S'tr_ll'
I1
tp135
a(S'tr_th'
I1
tp136
a(S'tr_lr'
I60
tp137
a(S'w'
I6
tp138
a(S'w'
I1
tp139
a(S'no_ll'
I17
tp140
a(S'w'
I8799
tp141
a(S'no_cv'
I1
tp142
a(S'w'
I1
tp143
a(S'no_ll'
I3
tp144
a(S'w'
I8804
tp145
a(S'no_cv'
I0
tp146
a(S'w'
I1
tp147
a(S'no_ll'
I17
tp148
a(S'w'
I8803
tp149
a(S'p1_cv'
I1
tp150
a(S'p1_vo'
I0
tp151
a(S'w'
I6
tp152
a(S'p2_cv'
I1
tp153
a(S'p2_vo'
I0
tp154
a(S'w'
I4
tp155
a(S'tr_lr'
I40
tp156
a(S'w'
I2
tp157
a(S'tr_lr'
I0
tp158
a(S'w'
I4
tp159
a(S'no_vo'
I2
tp160
a(S'no_np'
I2
tp161
a(S'no_ll'
I8
tp162
a(S'w'
I8795
tp163
a(S'no_cv'
I1
tp164
a(S'no_vo'
I0
tp165
a(S'no_np'
I1
tp166
a(S'no_ll'
I3
tp167
a(S'w'
I8800
tp168
a(S'p1_tl'
I124
tp169
a(S'p1_ll'
I1
tp170
a(S'w'
I1
tp171
a(S'p1_cv'
I0
tp172
a(S'p1_vo'
I6
tp173
a(S'w'
I4
tp174
a(S'p2_tl'
I196
tp175
a(S'w'
I1
tp176
a(S'p2_ll'
I1
tp177
a(S'p2_cv'
I0
tp178
a(S'p2_vo'
I6
tp179
a(S'w'
I4
tp180
a(S'tr_tl'
I223
tp181
a(S'w'
I1
tp182
a(S'tr_ll'
I1
tp183
a(S'tr_lr'
I40
tp184
a(S'w'
I4
tp185
a(S'no_cv'
I0
tp186
a(S'no_ll'
I17
tp187
a(S'w'
I4387
tp188
a(S'p1_cv'
I1
tp189
a(S'p1_vo'
I0
tp190
a(S'w'
I5
tp191
a(S'p2_cv'
I1
tp192
a(S'p2_vo'
I0
tp193
a(S'w'
I4409
tp194
a(S'tr_lr'
I0
tp195
a(S'w'
I5
tp196
a(S'w'
I1
tp197
a(S'no_ll'
I17
tp198
a(S'w'
I8795
tp199
a(S'no_cv'
I1
tp200
a(S'no_ll'
I3
tp201
a(S'w'
I8799
tp202
a(S'p1_tl'
I28
tp203
a(S'p1_ll'
I1
tp204
a(S'w'
I1
tp205
a(S'p1_cv'
I0
tp206
a(S'p1_vo'
I6
tp207
a(S'w'
I4
tp208
a(S'p2_tl'
I124
tp209
a(S'w'
I1
tp210
a(S'p2_ll'
I1
tp211
a(S'p2_cv'
I0
tp212
a(S'p2_vo'
I6
tp213
a(S'w'
I4
tp214
a(S'tr_lr'
I60
tp215
a(S'w'
I2
tp216
a(S'tr_tl'
I196
tp217
a(S'tr_ll'
I1
tp218
a(S'w'
I4
tp219
a(S'no_cv'
I0
tp220
a(S'w'
I1
tp221
a(S'no_ll'
I17
tp222
a(S'w'
I4385
tp223
a(S'p1_cv'
I1
tp224
a(S'p1_vo'
I0
tp225
a(S'w'
I5
tp226
a(S'p2_cv'
I1
tp227
a(S'p2_vo'
I0
tp228
a(S'w'
I4410
tp229
a(S'no_vo'
I2
tp230
a(S'no_np'
I2
tp231
a(S'no_ll'
I8
tp232
a(S'w'
I8792
tp233
a(S'tr_lr'
I0
tp234
a(S'w'
I1
tp235
a(S'no_cv'
I1
tp236
a(S'no_vo'
I0
tp237
a(S'w'
I53771
tp238
a.