(lp1
(S'clock'
p2
I1789772
tp3
a(S'ch_no'
I1
tp4
a(S'ch_tr'
I1
tp5
a(S'ch_p2'
I1
tp6
a(S'ch_p1'
I1
tp7
a(S'w'
I1
tp8
a(S'fc_mo'
I1
tp9
a(S'w'
I4
tp10
a(S'w'
I1
tp11
a(S'p1_cv'
I1
tp12
a(S'p2_cv'
I1
tp13
a(S'no_cv'
I1
tp14
a(S'w'
I12
tp15
a(S'p1_sp'
I7
tp16
a(S'p1_sn'
I1
tp17
a(S'p1_ss'
I7
tp18
a(S'w'
I5
tp19
a(S'p2_sp'
I7
tp20
a(S'p2_sn'
I1
tp21
a(S'p2_ss'
I7
tp22
a(S'w'
I4
tp23
a(S'tr_lh'
I1
tp24
a(S'tr_lr'
I127
tp25
a(S'w'
I2
tp26
a(S'tr_tl'
I87
tp27
a(S'tr_ll'
I1
tp28
a(S'tr_th'
I3
tp29
a(S'w'
I1
tp30
a(S'w'
I5
tp31
a(S'no_cv'
I0
tp32
a(S'no_vo'
I2
tp33
a(S'no_np'
I2
tp34
a(S'w'
I1
tp35
a(S'no_ll'
I8
tp36
a(S'w'
I4378
tp37
a(S'tr_lh'
I0
tp38
a(S'tr_lr'
I0
tp39
a(S'w'
I4402
tp40
a(S'tr_lh'
I1
tp41
a(S'tr_lr'
I127
tp42
a(S'w'
I3
tp43
a(S'tr_lh'
I0
tp44
a(S'tr_lr'
I0
tp45
a(S'w'
I3
tp46
a(S'no_vo'
I0
tp47
a(S'no_np'
I1
tp48
a(S'no_ll'
I17
tp49
a(S'w'
I8798
tp50
a(S'p1_tl'
I118
tp51
a(S'w'
I1
tp52
a(S'p1_ll'
I1
tp53
a(S'p1_du'
I2
tp54
a(S'p1_lh'
I1
tp55
a(S'p1_vo'
I9
tp56
a(S'w'
I5
tp57
a(S'p2_tl'
I141
tp58
a(S'p2_ll'
I1
tp59
a(S'w'
I1
tp60
a(S'p2_du'
I2
tp61
a(S'p2_lh'
I1
tp62
a(S'p2_vo'
I9
tp63
a(S'w'
I4
tp64
a(S'tr_lh'
I1
tp65
a(S'tr_lr'
I127
tp66
a(S'w'
I2
tp67
a(S'tr_tl'
I88
tp68
a(S'tr_ll'
I1
tp69
a(S'tr_th'
I0
tp70
a(S'w'
I4
tp71
a(S'no_ll'
I17
tp72
a(S'w'
I4385
tp73
a(S'p1_du'
I0
tp74
a(S'p1_lh'
I0
tp75
a(S'p1_vo'
I0
tp76
a(S'w'
I5
tp77
a(S'p2_du'
I0
tp78
a(S'p2_lh'
I0
tp79
a(S'p2_vo'
I0
tp80
a(S'w'
I4
tp81
a(S'tr_lh'
I0
tp82
a(S'tr_lr'
I0
tp83
a(S'w'
I4393
tp84
a(S'p1_tl'
I141
tp85
a(S'w'
I1
tp86
a(S'p1_ll'
I1
tp87
a(S'p1_du'
I2
tp88
a(S'p1_lh'
I1
tp89
a(S'p1_vo'
I9
tp90
a(S'w'
I4
tp91
a(S'p2_tl'
I178
tp92
a(S'w'
I1
tp93
a(S'p2_ll'
I1
tp94
a(S'p2_du'
I2
tp95
a(S'p2_lh'
I1
tp96
a(S'p2_vo'
I9
tp97
a(S'w'
I4
tp98
a(S'tr_ll'
I1
tp99
a(S'w'
I1
tp100
a(S'tr_lh'
I1
tp101
a(S'tr_lr'
I127
tp102
a(S'w'
I6
tp103
a(S'no_vo'
I2
tp104
a(S'no_np'
I2
tp105
a(S'no_ll'
I8
tp106
a(S'w'
I4387
tp107
a(S'p1_du'
I0
tp108
a(S'p1_lh'
I0
tp109
a(S'p1_vo'
I0
tp110
a(S'w'
I5
tp111
a(S'p2_du'
I0
tp112
a(S'p2_lh'
I0
tp113
a(S'p2_vo'
I0
tp114
a(S'w'
I4
tp115
a(S'tr_lh'
I0
tp116
a(S'tr_lr'
I0
tp117
a(S'w'
I4393
tp118
a(S'p1_tl'
I150
tp119
a(S'w'
I1
tp120
a(S'p1_ll'
I1
tp121
a(S'p1_du'
I2
tp122
a(S'p1_lh'
I1
tp123
a(S'p1_vo'
I9
tp124
a(S'w'
I4
tp125
a(S'p2_tl'
I189
tp126
a(S'w'
I1
tp127
a(S'p2_ll'
I1
tp128
a(S'p2_du'
I2
tp129
a(S'p2_lh'
I1
tp130
a(S'p2_vo'
I9
tp131
a(S'w'
I4
tp132
a(S'tr_tl'
I94
tp133
a(S'tr_ll'
I1
tp134
a(S'w'
I1
tp135
a(S'tr_lh'
I1
tp136
a(S'tr_lr'
I127
tp137
a(S'w'
I4
tp138
a(S'no_vo'
I0
tp139
a(S'no_np'
I1
tp140
a(S'no_ll'
I17
tp141
a(S'w'
I4388
tp142
a(S'p1_du'
I0
tp143
a(S'p1_lh'
I0
tp144
a(S'p1_vo'
I0
tp145
a(S'w'
I5
tp146
a(S'p2_du'
I0
tp147
a(S'p2_lh'
I0
tp148
a(S'p2_vo'
I0
tp149
a(S'w'
I4
tp150
a(S'tr_lh'
I0
tp151
a(S'tr_lr'
I0
tp152
a(S'w'
I4393
tp153
a(S'p1_tl'
I159
tp154
a(S'w'
I1
tp155
a(S'p1_ll'
I1
tp156
a(S'p1_du'
I2
tp157
a(S'p1_lh'
I1
tp158
a(S'p1_vo'
I9
tp159
a(S'w'
I4
tp160
a(S'p2_tl'
I200
tp161
a(S'w'
I1
tp162
a(S'p2_ll'
I1
tp163
a(S'p2_du'
I2
tp164
a(S'p2_lh'
I1
tp165
a(S'p2_vo'
I9
tp166
a(S'w'
I4
tp167
a(S'tr_tl'
I99
tp168
a(S'tr_ll'
I1
tp169
a(S'w'
I1
tp170
a(S'tr_lh'
I1
tp171
a(S'tr_lr'
I127
tp172
a(S'w'
I4
tp173
a(S'no_ll'
I17
tp174
a(S'w'
I4389
tp175
a(S'p1_du'
I0
tp176
a(S'p1_lh'
I0
tp177
a(S'p1_vo'
I0
tp178
a(S'w'
I5
tp179
a(S'p2_du'
I0
tp180
a(S'p2_lh'
I0
tp181
a(S'p2_vo'
I0
tp182
a(S'w'
I4
tp183
a(S'tr_lh'
I0
tp184
a(S'tr_lr'
I0
tp185
a(S'w'
I4393
tp186
a(S'p1_tl'
I178
tp187
a(S'w'
I1
tp188
a(S'p1_ll'
I1
tp189
a(S'p1_du'
I2
tp190
a(S'p1_lh'
I1
tp191
a(S'p1_vo'
I9
tp192
a(S'w'
I4
tp193
a(S'p2_tl'
I28
tp194
a(S'w'
I1
tp195
a(S'p2_ll'
I1
tp196
a(S'p2_th'
I1
tp197
a(S'p2_du'
I2
tp198
a(S'p2_lh'
I1
tp199
a(S'p2_vo'
I9
tp200
a(S'w'
I4
tp201
a(S'tr_tl'
I105
tp202
a(S'tr_ll'
I1
tp203
a(S'w'
I1
tp204
a(S'tr_lh'
I1
tp205
a(S'tr_lr'
I127
tp206
a(S'w'
I6
tp207
a(S'no_vo'
I2
tp208
a(S'no_np'
I2
tp209
a(S'no_ll'
I8
tp210
a(S'w'
I4386
tp211
a(S'p1_du'
I0
tp212
a(S'p1_lh'
I0
tp213
a(S'p1_vo'
I0
tp214
a(S'w'
I5
tp215
a(S'p2_du'
I0
tp216
a(S'p2_lh'
I0
tp217
a(S'p2_vo'
I0
tp218
a(S'w'
I4
tp219
a(S'tr_lh'
I0
tp220
a(S'tr_lr'
I0
tp221
a(S'w'
I4393
tp222
a(S'p1_tl'
I212
tp223
a(S'w'
I1
tp224
a(S'p1_ll'
I1
tp225
a(S'p1_du'
I2
tp226
a(S'p1_lh'
I1
tp227
a(S'p1_vo'
I9
tp228
a(S'w'
I4
tp229
a(S'p2_tl'
I103
tp230
a(S'w'
I1
tp231
a(S'p2_ll'
I1
tp232
a(S'p2_du'
I2
tp233
a(S'p2_lh'
I1
tp234
a(S'p2_vo'
I9
tp235
a(S'w'
I4
tp236
a(S'tr_tl'
I126
tp237
a(S'tr_ll'
I1
tp238
a(S'w'
I1
tp239
a(S'tr_lh'
I1
tp240
a(S'tr_lr'
I127
tp241
a(S'w'
I4
tp242
a(S'no_vo'
I0
tp243
a(S'no_np'
I1
tp244
a(S'no_ll'
I17
tp245
a(S'w'
I4389
tp246
a(S'p1_du'
I0
tp247
a(S'p1_lh'
I0
tp248
a(S'p1_vo'
I0
tp249
a(S'w'
I5
tp250
a(S'p2_du'
I0
tp251
a(S'p2_lh'
I0
tp252
a(S'p2_vo'
I0
tp253
a(S'w'
I4
tp254
a(S'tr_lh'
I0
tp255
a(S'tr_lr'
I0
tp256
a(S'w'
I4393
tp257
a(S'p1_tl'
I238
tp258
a(S'w'
I1
tp259
a(S'p1_ll'
I1
tp260
a(S'p1_du'
I2
tp261
a(S'p1_lh'
I1
tp262
a(S'p1_vo'
I9
tp263
a(S'w'
I4
tp264
a(S'p2_tl'
I124
tp265
a(S'w'
I1
tp266
a(S'p2_ll'
I1
tp267
a(S'p2_du'
I2
tp268
a(S'p2_lh'
I1
tp269
a(S'p2_vo'
I9
tp270
a(S'w'
I4
tp271
a(S'tr_tl'
I141
tp272
a(S'tr_ll'
I1
tp273
a(S'w'
I1
tp274
a(S'tr_lh'
I1
tp275
a(S'tr_lr'
I127
tp276
a(S'w'
I4
tp277
a(S'no_ll'
I17
tp278
a(S'w'
I4388
tp279
a(S'p1_du'
I0
tp280
a(S'p1_lh'
I0
tp281
a(S'p1_vo'
I0
tp282
a(S'w'
I5
tp283
a(S'p2_du'
I0
tp284
a(S'p2_lh'
I0
tp285
a(S'p2_vo'
I0
tp286
a(S'w'
I4
tp287
a(S'tr_lh'
I0
tp288
a(S'tr_lr'
I0
tp289
a(S'w'
I4393
tp290
a(S'p1_tl'
I28
tp291
a(S'w'
I1
tp292
a(S'p1_ll'
I1
tp293
a(S'p1_th'
I1
tp294
a(S'p1_du'
I2
tp295
a(S'p1_lh'
I1
tp296
a(S'p1_vo'
I9
tp297
a(S'w'
I4
tp298
a(S'p2_tl'
I223
tp299
a(S'w'
I1
tp300
a(S'p2_ll'
I1
tp301
a(S'p2_du'
I2
tp302
a(S'p2_lh'
I1
tp303
a(S'p2_vo'
I9
tp304
a(S'w'
I4
tp305
a(S'tr_tl'
I178
tp306
a(S'tr_ll'
I1
tp307
a(S'w'
I1
tp308
a(S'tr_lh'
I1
tp309
a(S'tr_lr'
I127
tp310
a(S'w'
I6
tp311
a(S'no_vo'
I2
tp312
a(S'no_np'
I2
tp313
a(S'no_ll'
I8
tp314
a(S'w'
I4387
tp315
a(S'p1_du'
I0
tp316
a(S'p1_lh'
I0
tp317
a(S'p1_vo'
I0
tp318
a(S'w'
I5
tp319
a(S'p2_du'
I0
tp320
a(S'p2_lh'
I0
tp321
a(S'p2_vo'
I0
tp322
a(S'w'
I4
tp323
a(S'tr_lh'
I0
tp324
a(S'tr_lr'
I0
tp325
a(S'w'
I4393
tp326
a(S'p1_tl'
I63
tp327
a(S'w'
I1
tp328
a(S'p1_ll'
I1
tp329
a(S'p1_du'
I2
tp330
a(S'p1_lh'
I1
tp331
a(S'p1_vo'
I9
tp332
a(S'w'
I4
tp333
a(S'p2_tl'
I252
tp334
a(S'w'
I1
tp335
a(S'p2_ll'
I1
tp336
a(S'p2_du'
I2
tp337
a(S'p2_lh'
I1
tp338
a(S'p2_vo'
I9
tp339
a(S'w'
I4
tp340
a(S'tr_tl'
I189
tp341
a(S'tr_ll'
I1
tp342
a(S'w'
I1
tp343
a(S'tr_lh'
I1
tp344
a(S'tr_lr'
I127
tp345
a(S'w'
I4
tp346
a(S'no_vo'
I0
tp347
a(S'no_np'
I1
tp348
a(S'no_ll'
I17
tp349
a(S'w'
I4388
tp350
a(S'p1_du'
I0
tp351
a(S'p1_lh'
I0
tp352
a(S'p1_vo'
I0
tp353
a(S'w'
I5
tp354
a(S'p2_du'
I0
tp355
a(S'p2_lh'
I0
tp356
a(S'p2_vo'
I0
tp357
a(S'w'
I4
tp358
a(S'tr_lh'
I0
tp359
a(S'tr_lr'
I0
tp360
a(S'w'
I4393
tp361
a(S'p1_tl'
I103
tp362
a(S'w'
I1
tp363
a(S'p1_ll'
I1
tp364
a(S'p1_du'
I2
tp365
a(S'p1_lh'
I1
tp366
a(S'p1_vo'
I9
tp367
a(S'w'
I4
tp368
a(S'p2_tl'
I58
tp369
a(S'w'
I1
tp370
a(S'p2_ll'
I1
tp371
a(S'p2_th'
I2
tp372
a(S'p2_du'
I2
tp373
a(S'p2_lh'
I1
tp374
a(S'p2_vo'
I9
tp375
a(S'w'
I4
tp376
a(S'tr_tl'
I212
tp377
a(S'tr_ll'
I1
tp378
a(S'w'
I1
tp379
a(S'tr_lh'
I1
tp380
a(S'tr_lr'
I127
tp381
a(S'w'
I4
tp382
a(S'no_ll'
I17
tp383
a(S'w'
I4389
tp384
a(S'p1_du'
I0
tp385
a(S'p1_lh'
I0
tp386
a(S'p1_vo'
I0
tp387
a(S'w'
I5
tp388
a(S'p2_du'
I0
tp389
a(S'p2_lh'
I0
tp390
a(S'p2_vo'
I0
tp391
a(S'w'
I4
tp392
a(S'tr_lh'
I0
tp393
a(S'tr_lr'
I0
tp394
a(S'w'
I4393
tp395
a(S'p1_tl'
I171
tp396
a(S'w'
I1
tp397
a(S'p1_ll'
I1
tp398
a(S'p1_du'
I2
tp399
a(S'p1_lh'
I1
tp400
a(S'p1_vo'
I9
tp401
a(S'w'
I4
tp402
a(S'p2_tl'
I207
tp403
a(S'w'
I1
tp404
a(S'p2_ll'
I1
tp405
a(S'p2_du'
I2
tp406
a(S'p2_lh'
I1
tp407
a(S'p2_vo'
I9
tp408
a(S'w'
I4
tp409
a(S'tr_tl'
I253
tp410
a(S'tr_ll'
I1
tp411
a(S'w'
I1
tp412
a(S'tr_lh'
I1
tp413
a(S'tr_lr'
I127
tp414
a(S'w'
I5
tp415
a(S'no_ll'
I17
tp416
a(S'w'
I4387
tp417
a(S'p1_du'
I0
tp418
a(S'p1_lh'
I0
tp419
a(S'p1_vo'
I0
tp420
a(S'w'
I5
tp421
a(S'p2_du'
I0
tp422
a(S'p2_lh'
I0
tp423
a(S'p2_vo'
I0
tp424
a(S'w'
I4
tp425
a(S'tr_lh'
I0
tp426
a(S'tr_lr'
I0
tp427
a(S'w'
I4405
tp428
a(S'tr_lh'
I1
tp429
a(S'tr_lr'
I127
tp430
a(S'w'
I2
tp431
a(S'tr_lh'
I0
tp432
a(S'tr_lr'
I0
tp433
a(S'w'
I4
tp434
a(S'no_ll'
I17
tp435
a(S'w'
I8792
tp436
a(S'w'
I1
tp437
a(S'no_ll'
I17
tp438
a(S'w'
I8801
tp439
a(S'p1_tl'
I12
tp440
a(S'w'
I1
tp441
a(S'p1_ll'
I1
tp442
a(S'p1_du'
I2
tp443
a(S'p1_lh'
I1
tp444
a(S'p1_vo'
I9
tp445
a(S'w'
I5
tp446
a(S'p2_tl'
I103
tp447
a(S'p2_ll'
I1
tp448
a(S'p2_th'
I1
tp449
a(S'w'
I1
tp450
a(S'p2_du'
I2
tp451
a(S'p2_lh'
I1
tp452
a(S'p2_vo'
I9
tp453
a(S'w'
I4
tp454
a(S'tr_lh'
I1
tp455
a(S'tr_lr'
I127
tp456
a(S'w'
I2
tp457
a(S'tr_tl'
I147
tp458
a(S'tr_ll'
I1
tp459
a(S'tr_th'
I1
tp460
a(S'w'
I4
tp461
a(S'no_vo'
I2
tp462
a(S'no_np'
I2
tp463
a(S'no_ll'
I8
tp464
a(S'w'
I8792
tp465
a(S'no_cv'
I1
tp466
a(S'no_vo'
I0
tp467
a(S'no_np'
I1
tp468
a(S'w'
I1
tp469
a(S'no_ll'
I3
tp470
a(S'w'
I4399
tp471
a(S'p1_du'
I0
tp472
a(S'p1_lh'
I0
tp473
a(S'p1_vo'
I0
tp474
a(S'w'
I6
tp475
a(S'p2_du'
I0
tp476
a(S'p2_lh'
I0
tp477
a(S'p2_vo'
I0
tp478
a(S'w'
I6
tp479
a(S'tr_lh'
I0
tp480
a(S'tr_lr'
I0
tp481
a(S'w'
I4392
tp482
a(S'p1_tl'
I28
tp483
a(S'p1_ll'
I1
tp484
a(S'w'
I1
tp485
a(S'p1_du'
I2
tp486
a(S'p1_lh'
I1
tp487
a(S'p1_vo'
I9
tp488
a(S'w'
I6
tp489
a(S'p2_tl'
I124
tp490
a(S'p2_ll'
I1
tp491
a(S'w'
I1
tp492
a(S'p2_du'
I2
tp493
a(S'p2_lh'
I1
tp494
a(S'p2_vo'
I9
tp495
a(S'w'
I4
tp496
a(S'tr_lh'
I1
tp497
a(S'tr_lr'
I127
tp498
a(S'w'
I1
tp499
a(S'tr_tl'
I171
tp500
a(S'w'
I1
tp501
a(S'tr_ll'
I1
tp502
a(S'w'
I5
tp503
a(S'no_ll'
I3
tp504
a(S'w'
I2179
tp505
a(S'p1_tl'
I124
tp506
a(S'w'
I1
tp507
a(S'p1_ll'
I1
tp508
a(S'w'
I4
tp509
a(S'p2_tl'
I252
tp510
a(S'w'
I1
tp511
a(S'p2_ll'
I1
tp512
a(S'w'
I2199
tp513
a(S'p1_tl'
I28
tp514
a(S'p1_ll'
I1
tp515
a(S'w'
I7
tp516
a(S'p2_tl'
I124
tp517
a(S'p2_ll'
I1
tp518
a(S'w'
I2191
tp519
a(S'p1_tl'
I124
tp520
a(S'w'
I1
tp521
a(S'p1_ll'
I1
tp522
a(S'w'
I4
tp523
a(S'p2_tl'
I252
tp524
a(S'w'
I1
tp525
a(S'p2_ll'
I1
tp526
a(S'w'
I2199
tp527
a(S'p1_tl'
I28
tp528
a(S'p1_ll'
I1
tp529
a(S'w'
I7
tp530
a(S'p2_tl'
I124
tp531
a(S'p2_ll'
I1
tp532
a(S'w'
I2191
tp533
a(S'p1_tl'
I124
tp534
a(S'w'
I1
tp535
a(S'p1_ll'
I1
tp536
a(S'w'
I4
tp537
a(S'p2_tl'
I252
tp538
a(S'w'
I1
tp539
a(S'p2_ll'
I1
tp540
a(S'w'
I2198
tp541
a(S'p1_tl'
I28
tp542
a(S'p1_ll'
I1
tp543
a(S'w'
I7
tp544
a(S'p2_tl'
I124
tp545
a(S'p2_ll'
I1
tp546
a(S'w'
I2192
tp547
a(S'p1_tl'
I124
tp548
a(S'w'
I1
tp549
a(S'p1_ll'
I1
tp550
a(S'w'
I4
tp551
a(S'p2_tl'
I252
tp552
a(S'w'
I1
tp553
a(S'p2_ll'
I1
tp554
a(S'w'
I2198
tp555
a(S'p1_tl'
I28
tp556
a(S'p1_ll'
I1
tp557
a(S'w'
I7
tp558
a(S'p2_tl'
I124
tp559
a(S'p2_ll'
I1
tp560
a(S'w'
I2191
tp561
a(S'p1_tl'
I124
tp562
a(S'w'
I1
tp563
a(S'p1_ll'
I1
tp564
a(S'w'
I4
tp565
a(S'p2_tl'
I252
tp566
a(S'w'
I1
tp567
a(S'p2_ll'
I1
tp568
a(S'w'
I2199
tp569
a(S'p1_tl'
I28
tp570
a(S'p1_ll'
I1
tp571
a(S'w'
I7
tp572
a(S'p2_tl'
I124
tp573
a(S'p2_ll'
I1
tp574
a(S'w'
I2191
tp575
a(S'p1_tl'
I124
tp576
a(S'w'
I1
tp577
a(S'p1_ll'
I1
tp578
a(S'w'
I4
tp579
a(S'p2_tl'
I252
tp580
a(S'w'
I1
tp581
a(S'p2_ll'
I1
tp582
a(S'w'
I2199
tp583
a(S'p1_tl'
I28
tp584
a(S'p1_ll'
I1
tp585
a(S'w'
I7
tp586
a(S'p2_tl'
I124
tp587
a(S'p2_ll'
I1
tp588
a(S'w'
I2191
tp589
a(S'p1_tl'
I124
tp590
a(S'w'
I1
tp591
a(S'p1_ll'
I1
tp592
a(S'w'
I4
tp593
a(S'p2_tl'
I252
tp594
a(S'w'
I1
tp595
a(S'p2_ll'
I1
tp596
a(S'w'
I2198
tp597
a(S'p1_tl'
I28
tp598
a(S'p1_ll'
I1
tp599
a(S'w'
I7
tp600
a(S'p2_tl'
I124
tp601
a(S'p2_ll'
I1
tp602
a(S'w'
I2192
tp603
a(S'p1_tl'
I124
tp604
a(S'w'
I1
tp605
a(S'p1_ll'
I1
tp606
a(S'w'
I4
tp607
a(S'p2_tl'
I252
tp608
a(S'w'
I1
tp609
a(S'p2_ll'
I1
tp610
a(S'w'
I2198
tp611
a(S'p1_tl'
I28
tp612
a(S'p1_ll'
I1
tp613
a(S'w'
I7
tp614
a(S'p2_tl'
I124
tp615
a(S'p2_ll'
I1
tp616
a(S'w'
I2191
tp617
a(S'p1_tl'
I124
tp618
a(S'w'
I1
tp619
a(S'p1_ll'
I1
tp620
a(S'w'
I4
tp621
a(S'p2_tl'
I252
tp622
a(S'w'
I1
tp623
a(S'p2_ll'
I1
tp624
a(S'w'
I2199
tp625
a(S'p1_tl'
I28
tp626
a(S'p1_ll'
I1
tp627
a(S'w'
I7
tp628
a(S'p2_tl'
I124
tp629
a(S'p2_ll'
I1
tp630
a(S'w'
I2191
tp631
a(S'p1_tl'
I124
tp632
a(S'w'
I1
tp633
a(S'p1_ll'
I1
tp634
a(S'w'
I4
tp635
a(S'p2_tl'
I252
tp636
a(S'w'
I1
tp637
a(S'p2_ll'
I1
tp638
a(S'w'
I2199
tp639
a(S'p1_tl'
I28
tp640
a(S'p1_ll'
I1
tp641
a(S'w'
I7
tp642
a(S'p2_tl'
I124
tp643
a(S'p2_ll'
I1
tp644
a(S'w'
I2191
tp645
a(S'p1_tl'
I124
tp646
a(S'w'
I1
tp647
a(S'p1_ll'
I1
tp648
a(S'w'
I4
tp649
a(S'p2_tl'
I252
tp650
a(S'w'
I1
tp651
a(S'p2_ll'
I1
tp652
a(S'w'
I2198
tp653
a(S'p1_tl'
I28
tp654
a(S'p1_ll'
I1
tp655
a(S'w'
I7
tp656
a(S'p2_tl'
I124
tp657
a(S'p2_ll'
I1
tp658
a(S'w'
I2192
tp659
a(S'p1_tl'
I124
tp660
a(S'w'
I1
tp661
a(S'p1_ll'
I1
tp662
a(S'w'
I4
tp663
a(S'p2_tl'
I252
tp664
a(S'w'
I1
tp665
a(S'p2_ll'
I1
tp666
a(S'w'
I2198
tp667
a(S'p1_tl'
I28
tp668
a(S'p1_ll'
I1
tp669
a(S'w'
I7
tp670
a(S'p2_tl'
I124
tp671
a(S'p2_ll'
I1
tp672
a(S'w'
I2191
tp673
a(S'p1_tl'
I124
tp674
a(S'w'
I1
tp675
a(S'p1_ll'
I1
tp676
a(S'w'
I4
tp677
a(S'p2_tl'
I252
tp678
a(S'w'
I1
tp679
a(S'p2_ll'
I1
tp680
a(S'w'
I2199
tp681
a(S'p1_tl'
I28
tp682
a(S'p1_ll'
I1
tp683
a(S'w'
I7
tp684
a(S'p2_tl'
I124
tp685
a(S'p2_ll'
I1
tp686
a(S'w'
I2191
tp687
a(S'p1_tl'
I124
tp688
a(S'w'
I1
tp689
a(S'p1_ll'
I1
tp690
a(S'w'
I4
tp691
a(S'p2_tl'
I252
tp692
a(S'w'
I1
tp693
a(S'p2_ll'
I1
tp694
a(S'w'
I2199
tp695
a(S'p1_tl'
I28
tp696
a(S'p1_ll'
I1
tp697
a(S'w'
I7
tp698
a(S'p2_tl'
I124
tp699
a(S'p2_ll'
I1
tp700
a(S'w'
I2191
tp701
a(S'p1_tl'
I124
tp702
a(S'w'
I1
tp703
a(S'p1_ll'
I1
tp704
a(S'w'
I4
tp705
a(S'p2_tl'
I252
tp706
a(S'w'
I1
tp707
a(S'p2_ll'
I1
tp708
a(S'w'
I2198
tp709
a(S'p1_tl'
I28
tp710
a(S'p1_ll'
I1
tp711
a(S'w'
I7
tp712
a(S'p2_tl'
I124
tp713
a(S'p2_ll'
I1
tp714
a(S'w'
I2192
tp715
a(S'p1_tl'
I124
tp716
a(S'w'
I1
tp717
a(S'p1_ll'
I1
tp718
a(S'w'
I4
tp719
a(S'p2_tl'
I252
tp720
a(S'w'
I1
tp721
a(S'p2_ll'
I1
tp722
a(S'w'
I2195
tp723
a(S'tr_lh'
I0
tp724
a(S'tr_lr'
I0
tp725
a(S'w'
I1
tp726
a(S'p1_du'
I0
tp727
a(S'p1_lh'
I0
tp728
a(S'p1_vo'
I0
tp729
a(S'p2_du'
I0
tp730
a(S'p2_lh'
I0
tp731
a(S'p2_vo'
I0
tp732
a(S'w'
I41998
tp733
a.