(lp1
(S'clock'
p2
I1789772
tp3
a(S'ch_no'
I1
tp4
a(S'ch_tr'
I1
tp5
a(S'ch_p2'
I1
tp6
a(S'ch_p1'
I1
tp7
a(S'w'
I1
tp8
a(S'fc_mo'
I1
tp9
a(S'w'
I4
tp10
a(S'w'
I1
tp11
a(S'p1_cv'
I1
tp12
a(S'p2_cv'
I1
tp13
a(S'no_cv'
I1
tp14
a(S'w'
I12
tp15
a(S'p1_sp'
I7
tp16
a(S'p1_sn'
I1
tp17
a(S'p1_ss'
I7
tp18
a(S'w'
I6
tp19
a(S'p2_sp'
I7
tp20
a(S'p2_sn'
I1
tp21
a(S'p2_ss'
I7
tp22
a(S'w'
I3
tp23
a(S'tr_lr'
I60
tp24
a(S'w'
I2
tp25
a(S'tr_tl'
I58
tp26
a(S'tr_ll'
I1
tp27
a(S'tr_th'
I2
tp28
a(S'w'
I1
tp29
a(S'w'
I6
tp30
a(S'no_cv'
I0
tp31
a(S'no_np'
I1
tp32
a(S'no_ll'
I17
tp33
a(S'w'
I5854
tp34
a(S'no_ll'
I17
tp35
a(S'w'
I5860
tp36
a(S'p1_tl'
I200
tp37
a(S'p1_ll'
I1
tp38
a(S'w'
I1
tp39
a(S'p1_du'
I2
tp40
a(S'p1_lh'
I1
tp41
a(S'p1_vo'
I9
tp42
a(S'w'
I3
tp43
a(S'p2_tl'
I238
tp44
a(S'w'
I1
tp45
a(S'p2_ll'
I1
tp46
a(S'p2_du'
I2
tp47
a(S'p2_lh'
I1
tp48
a(S'p2_vo'
I9
tp49
a(S'w'
I6
tp50
a(S'no_ll'
I17
tp51
a(S'w'
I5860
tp52
a(S'p1_tl'
I189
tp53
a(S'p1_ll'
I1
tp54
a(S'w'
I4
tp55
a(S'p2_tl'
I225
tp56
a(S'w'
I1
tp57
a(S'p2_ll'
I1
tp58
a(S'w'
I5
tp59
a(S'tr_lr'
I24
tp60
a(S'w'
I1
tp61
a(S'tr_ll'
I1
tp62
a(S'w'
I5
tp63
a(S'no_vo'
I2
tp64
a(S'w'
I1
tp65
a(S'no_np'
I2
tp66
a(S'no_ll'
I8
tp67
a(S'w'
I5853
tp68
a(S'p1_tl'
I238
tp69
a(S'p1_ll'
I1
tp70
a(S'w'
I5
tp71
a(S'p2_tl'
I45
tp72
a(S'p2_ll'
I1
tp73
a(S'p2_th'
I1
tp74
a(S'w'
I5
tp75
a(S'tr_lr'
I0
tp76
a(S'w'
I5860
tp77
a(S'p1_tl'
I225
tp78
a(S'p1_ll'
I1
tp79
a(S'w'
I4
tp80
a(S'p2_tl'
I28
tp81
a(S'w'
I1
tp82
a(S'p2_ll'
I1
tp83
a(S'w'
I4
tp84
a(S'tr_tl'
I249
tp85
a(S'w'
I1
tp86
a(S'tr_ll'
I1
tp87
a(S'tr_lr'
I24
tp88
a(S'w'
I5861
tp89
a(S'p1_tl'
I141
tp90
a(S'p1_ll'
I1
tp91
a(S'w'
I4
tp92
a(S'p2_tl'
I168
tp93
a(S'w'
I1
tp94
a(S'p2_ll'
I1
tp95
a(S'p2_th'
I0
tp96
a(S'w'
I5
tp97
a(S'tr_lr'
I60
tp98
a(S'w'
I1
tp99
a(S'tr_tl'
I196
tp100
a(S'tr_ll'
I1
tp101
a(S'tr_th'
I1
tp102
a(S'w'
I7
tp103
a(S'no_vo'
I0
tp104
a(S'no_np'
I1
tp105
a(S'no_ll'
I17
tp106
a(S'w'
I5852
tp107
a(S'p1_tl'
I189
tp108
a(S'p1_ll'
I1
tp109
a(S'w'
I5
tp110
a(S'p2_tl'
I225
tp111
a(S'p2_ll'
I1
tp112
a(S'w'
I6
tp113
a(S'no_ll'
I17
tp114
a(S'w'
I5859
tp115
a(S'p1_tl'
I225
tp116
a(S'p1_ll'
I1
tp117
a(S'w'
I4
tp118
a(S'p2_tl'
I28
tp119
a(S'w'
I1
tp120
a(S'p2_ll'
I1
tp121
a(S'p2_th'
I1
tp122
a(S'w'
I6
tp123
a(S'no_ll'
I17
tp124
a(S'w'
I5860
tp125
a(S'p1_tl'
I253
tp126
a(S'p1_ll'
I1
tp127
a(S'w'
I4
tp128
a(S'p2_tl'
I82
tp129
a(S'w'
I1
tp130
a(S'p2_ll'
I1
tp131
a(S'w'
I5
tp132
a(S'tr_lr'
I24
tp133
a(S'w'
I1
tp134
a(S'tr_ll'
I1
tp135
a(S'w'
I5
tp136
a(S'no_vo'
I2
tp137
a(S'w'
I1
tp138
a(S'no_np'
I2
tp139
a(S'no_ll'
I8
tp140
a(S'w'
I5853
tp141
a(S'p1_tl'
I28
tp142
a(S'p1_ll'
I1
tp143
a(S'p1_th'
I1
tp144
a(S'w'
I5
tp145
a(S'p2_tl'
I124
tp146
a(S'p2_ll'
I1
tp147
a(S'w'
I5
tp148
a(S'tr_lr'
I0
tp149
a(S'w'
I5860
tp150
a(S'p1_tl'
I82
tp151
a(S'p1_ll'
I1
tp152
a(S'w'
I4
tp153
a(S'p2_tl'
I196
tp154
a(S'w'
I1
tp155
a(S'p2_ll'
I1
tp156
a(S'w'
I4
tp157
a(S'tr_tl'
I39
tp158
a(S'w'
I1
tp159
a(S'tr_ll'
I1
tp160
a(S'tr_th'
I3
tp161
a(S'tr_lr'
I24
tp162
a(S'w'
I5861
tp163
a(S'p1_du'
I0
tp164
a(S'p1_lh'
I0
tp165
a(S'p1_vo'
I0
tp166
a(S'w'
I5
tp167
a(S'p2_du'
I0
tp168
a(S'p2_lh'
I0
tp169
a(S'p2_vo'
I0
tp170
a(S'w'
I4
tp171
a(S'tr_tl'
I87
tp172
a(S'tr_ll'
I1
tp173
a(S'w'
I7
tp174
a(S'no_vo'
I0
tp175
a(S'no_np'
I1
tp176
a(S'no_ll'
I17
tp177
a(S'w'
I5864
tp178
a(S'tr_lr'
I0
tp179
a(S'w'
I3
tp180
a(S'w'
I1
tp181
a(S'no_ll'
I17
tp182
a(S'w'
I5856
tp183
a(S'p1_tl'
I124
tp184
a(S'p1_ll'
I1
tp185
a(S'w'
I1
tp186
a(S'p1_du'
I2
tp187
a(S'p1_lh'
I1
tp188
a(S'p1_vo'
I9
tp189
a(S'w'
I3
tp190
a(S'p2_tl'
I28
tp191
a(S'w'
I1
tp192
a(S'p2_ll'
I1
tp193
a(S'p2_du'
I2
tp194
a(S'p2_lh'
I1
tp195
a(S'p2_vo'
I9
tp196
a(S'w'
I5
tp197
a(S'tr_ll'
I1
tp198
a(S'tr_lr'
I24
tp199
a(S'w'
I4
tp200
a(S'no_ll'
I17
tp201
a(S'w'
I5857
tp202
a(S'p1_tl'
I103
tp203
a(S'p1_ll'
I1
tp204
a(S'w'
I4
tp205
a(S'w'
I1
tp206
a(S'p2_ll'
I1
tp207
a(S'w'
I5
tp208
a(S'tr_lr'
I60
tp209
a(S'w'
I1
tp210
a(S'tr_tl'
I166
tp211
a(S'tr_ll'
I1
tp212
a(S'tr_th'
I2
tp213
a(S'w'
I5
tp214
a(S'no_vo'
I2
tp215
a(S'w'
I1
tp216
a(S'no_np'
I2
tp217
a(S'no_ll'
I8
tp218
a(S'w'
I5853
tp219
a(S'p1_tl'
I82
tp220
a(S'p1_ll'
I1
tp221
a(S'w'
I5
tp222
a(S'p2_ll'
I1
tp223
a(S'w'
I5865
tp224
a(S'p1_tl'
I28
tp225
a(S'p1_ll'
I1
tp226
a(S'w'
I4
tp227
a(S'p2_tl'
I124
tp228
a(S'w'
I1
tp229
a(S'p2_ll'
I1
tp230
a(S'w'
I5866
tp231
a(S'p1_tl'
I253
tp232
a(S'p1_ll'
I1
tp233
a(S'p1_th'
I0
tp234
a(S'w'
I4
tp235
a(S'p2_tl'
I171
tp236
a(S'w'
I1
tp237
a(S'p2_ll'
I1
tp238
a(S'w'
I5
tp239
a(S'tr_lr'
I40
tp240
a(S'w'
I1
tp241
a(S'tr_tl'
I249
tp242
a(S'tr_ll'
I1
tp243
a(S'w'
I7
tp244
a(S'no_vo'
I0
tp245
a(S'no_np'
I1
tp246
a(S'no_ll'
I17
tp247
a(S'w'
I5852
tp248
a(S'p1_du'
I0
tp249
a(S'p1_lh'
I0
tp250
a(S'p1_vo'
I0
tp251
a(S'w'
I5
tp252
a(S'p2_du'
I0
tp253
a(S'p2_lh'
I0
tp254
a(S'p2_vo'
I0
tp255
a(S'w'
I5
tp256
a(S'no_ll'
I17
tp257
a(S'w'
I2928
tp258
a(S'tr_lr'
I0
tp259
a(S'w'
I2932
tp260
a(S'p1_tl'
I28
tp261
a(S'p1_ll'
I1
tp262
a(S'p1_th'
I1
tp263
a(S'w'
I1
tp264
a(S'p1_du'
I2
tp265
a(S'p1_lh'
I1
tp266
a(S'p1_vo'
I9
tp267
a(S'w'
I3
tp268
a(S'w'
I1
tp269
a(S'p2_ll'
I1
tp270
a(S'p2_du'
I2
tp271
a(S'p2_lh'
I1
tp272
a(S'p2_vo'
I9
tp273
a(S'w'
I6
tp274
a(S'no_ll'
I17
tp275
a(S'w'
I5860
tp276
a(S'p1_du'
I0
tp277
a(S'p1_lh'
I0
tp278
a(S'p1_vo'
I0
tp279
a(S'w'
I5
tp280
a(S'p2_du'
I0
tp281
a(S'p2_lh'
I0
tp282
a(S'p2_vo'
I0
tp283
a(S'w'
I4
tp284
a(S'tr_ll'
I1
tp285
a(S'w'
I1
tp286
a(S'tr_lr'
I40
tp287
a(S'w'
I4
tp288
a(S'no_vo'
I2
tp289
a(S'w'
I1
tp290
a(S'no_np'
I2
tp291
a(S'no_ll'
I8
tp292
a(S'w'
I5854
tp293
a(S'tr_lr'
I0
tp294
a(S'w'
I1
tp295
a(S'no_cv'
I1
tp296
a(S'no_vo'
I0
tp297
a(S'w'
I43899
tp298
a.