(lp1
(S'clock'
p2
I1789772
tp3
a(S'ch_no'
I0
tp4
a(S'ch_tr'
I0
tp5
a(S'ch_p2'
I0
tp6
a(S'ch_p1'
I0
tp7
a(S'w'
I1
tp8
a(S'w'
I1
tp9
a(S'p1_ll'
I0
tp10
a(S'w'
I1
tp11
a(S'p2_ll'
I0
tp12
a(S'w'
I1
tp13
a(S'tr_ll'
I0
tp14
a(S'w'
I1
tp15
a(S'w'
I1
tp16
a(S'no_ll'
I0
tp17
a(S'p1_du'
I2
tp18
a(S'p1_vo'
I4
tp19
a(S'p2_du'
I2
tp20
a(S'p2_vo'
I4
tp21
a(S'tr_lr'
I21
tp22
a(S'ch_no'
I0
tp23
a(S'ch_tr'
I1
tp24
a(S'ch_p2'
I1
tp25
a(S'ch_p1'
I1
tp26
a(S'w'
I5876
tp27
a(S'p1_tl'
I127
tp28
a(S'p1_ll'
I4
tp29
a(S'w'
I3
tp30
a(S'p2_tl'
I201
tp31
a(S'w'
I1
tp32
a(S'p2_ll'
I4
tp33
a(S'w'
I2
tp34
a(S'tr_tl'
I254
tp35
a(S'w'
I1
tp36
a(S'tr_ll'
I1
tp37
a(S'w'
I5874
tp38
a(S'tr_ll'
I1
tp39
a(S'w'
I5879
tp40
a(S'p1_tl'
I134
tp41
a(S'p1_ll'
I4
tp42
a(S'w'
I3
tp43
a(S'p2_tl'
I190
tp44
a(S'w'
I1
tp45
a(S'p2_ll'
I4
tp46
a(S'w'
I2
tp47
a(S'tr_tl'
I226
tp48
a(S'w'
I1
tp49
a(S'tr_ll'
I1
tp50
a(S'w'
I5874
tp51
a(S'tr_ll'
I1
tp52
a(S'w'
I5879
tp53
a(S'p1_tl'
I142
tp54
a(S'p1_ll'
I4
tp55
a(S'w'
I3
tp56
a(S'p2_tl'
I169
tp57
a(S'w'
I1
tp58
a(S'p2_ll'
I4
tp59
a(S'w'
I3
tp60
a(S'tr_tl'
I201
tp61
a(S'tr_ll'
I1
tp62
a(S'w'
I5874
tp63
a(S'w'
I1
tp64
a(S'tr_ll'
I1
tp65
a(S'w'
I5878
tp66
a(S'p1_tl'
I151
tp67
a(S'p1_ll'
I4
tp68
a(S'w'
I3
tp69
a(S'p2_tl'
I190
tp70
a(S'w'
I1
tp71
a(S'p2_ll'
I4
tp72
a(S'w'
I3
tp73
a(S'tr_tl'
I190
tp74
a(S'tr_ll'
I1
tp75
a(S'w'
I5874
tp76
a(S'w'
I1
tp77
a(S'tr_ll'
I1
tp78
a(S'w'
I5878
tp79
a(S'p1_tl'
I169
tp80
a(S'p1_ll'
I4
tp81
a(S'w'
I3
tp82
a(S'p2_tl'
I201
tp83
a(S'w'
I1
tp84
a(S'p2_ll'
I4
tp85
a(S'w'
I3
tp86
a(S'tr_tl'
I169
tp87
a(S'tr_ll'
I1
tp88
a(S'w'
I5874
tp89
a(S'w'
I1
tp90
a(S'tr_ll'
I1
tp91
a(S'w'
I5878
tp92
a(S'p1_tl'
I190
tp93
a(S'p1_ll'
I4
tp94
a(S'w'
I3
tp95
a(S'p2_tl'
I226
tp96
a(S'p2_ll'
I4
tp97
a(S'w'
I3
tp98
a(S'tr_tl'
I160
tp99
a(S'w'
I1
tp100
a(S'tr_ll'
I1
tp101
a(S'w'
I5874
tp102
a(S'w'
I1
tp103
a(S'tr_ll'
I1
tp104
a(S'w'
I5878
tp105
a(S'p1_tl'
I201
tp106
a(S'p1_ll'
I4
tp107
a(S'w'
I3
tp108
a(S'p2_tl'
I239
tp109
a(S'p2_ll'
I4
tp110
a(S'w'
I3
tp111
a(S'tr_tl'
I151
tp112
a(S'w'
I1
tp113
a(S'tr_ll'
I1
tp114
a(S'w'
I5874
tp115
a(S'w'
I1
tp116
a(S'tr_ll'
I1
tp117
a(S'w'
I5878
tp118
a(S'p1_tl'
I226
tp119
a(S'p1_ll'
I4
tp120
a(S'w'
I3
tp121
a(S'p2_tl'
I29
tp122
a(S'p2_ll'
I4
tp123
a(S'p2_th'
I1
tp124
a(S'w'
I3
tp125
a(S'tr_tl'
I160
tp126
a(S'tr_ll'
I1
tp127
a(S'w'
I5875
tp128
a(S'w'
I1
tp129
a(S'tr_ll'
I1
tp130
a(S'w'
I5878
tp131
a(S'p1_tl'
I239
tp132
a(S'p1_ll'
I4
tp133
a(S'w'
I3
tp134
a(S'p2_tl'
I46
tp135
a(S'p2_ll'
I4
tp136
a(S'w'
I3
tp137
a(S'tr_tl'
I46
tp138
a(S'tr_ll'
I1
tp139
a(S'tr_th'
I1
tp140
a(S'w'
I5874
tp141
a(S'p1_tl'
I226
tp142
a(S'p1_ll'
I4
tp143
a(S'w'
I3
tp144
a(S'p2_tl'
I13
tp145
a(S'p2_ll'
I4
tp146
a(S'w'
I5877
tp147
a(S'p1_tl'
I201
tp148
a(S'p1_ll'
I4
tp149
a(S'w'
I3
tp150
a(S'p2_tl'
I239
tp151
a(S'p2_ll'
I4
tp152
a(S'p2_th'
I0
tp153
a(S'w'
I5877
tp154
a(S'p1_tl'
I226
tp155
a(S'p1_ll'
I4
tp156
a(S'w'
I3
tp157
a(S'p2_tl'
I13
tp158
a(S'p2_ll'
I4
tp159
a(S'p2_th'
I1
tp160
a(S'w'
I5877
tp161
a(S'p1_tl'
I201
tp162
a(S'p1_ll'
I4
tp163
a(S'w'
I3
tp164
a(S'p2_tl'
I46
tp165
a(S'p2_ll'
I4
tp166
a(S'w'
I3
tp167
a(S'tr_tl'
I239
tp168
a(S'tr_ll'
I1
tp169
a(S'tr_th'
I0
tp170
a(S'w'
I5874
tp171
a(S'p1_tl'
I190
tp172
a(S'p1_ll'
I4
tp173
a(S'w'
I3
tp174
a(S'p2_tl'
I226
tp175
a(S'p2_ll'
I4
tp176
a(S'p2_th'
I0
tp177
a(S'w'
I5877
tp178
a(S'p1_tl'
I169
tp179
a(S'p1_ll'
I4
tp180
a(S'w'
I3
tp181
a(S'p2_tl'
I239
tp182
a(S'p2_ll'
I4
tp183
a(S'w'
I3
tp184
a(S'tr_tl'
I46
tp185
a(S'tr_ll'
I1
tp186
a(S'tr_th'
I1
tp187
a(S'w'
I5874
tp188
a(S'p1_tl'
I190
tp189
a(S'p1_ll'
I4
tp190
a(S'w'
I3
tp191
a(S'p2_tl'
I226
tp192
a(S'p2_ll'
I4
tp193
a(S'w'
I5877
tp194
a(S'p1_tl'
I169
tp195
a(S'p1_ll'
I4
tp196
a(S'w'
I3
tp197
a(S'p2_tl'
I201
tp198
a(S'w'
I1
tp199
a(S'p2_ll'
I4
tp200
a(S'w'
I2
tp201
a(S'tr_tl'
I254
tp202
a(S'tr_ll'
I1
tp203
a(S'tr_th'
I0
tp204
a(S'w'
I5874
tp205
a(S'p1_tl'
I151
tp206
a(S'p1_ll'
I4
tp207
a(S'w'
I3
tp208
a(S'p2_tl'
I190
tp209
a(S'w'
I1
tp210
a(S'p2_ll'
I4
tp211
a(S'w'
I5876
tp212
a(S'p1_tl'
I142
tp213
a(S'p1_ll'
I4
tp214
a(S'w'
I3
tp215
a(S'p2_tl'
I169
tp216
a(S'w'
I1
tp217
a(S'p2_ll'
I4
tp218
a(S'w'
I5876
tp219
a(S'p1_tl'
I169
tp220
a(S'p1_ll'
I4
tp221
a(S'w'
I3
tp222
a(S'p2_tl'
I201
tp223
a(S'w'
I1
tp224
a(S'p2_ll'
I4
tp225
a(S'w'
I5876
tp226
a(S'p1_tl'
I151
tp227
a(S'p1_ll'
I4
tp228
a(S'w'
I3
tp229
a(S'p2_tl'
I213
tp230
a(S'w'
I1
tp231
a(S'p2_ll'
I4
tp232
a(S'w'
I3
tp233
a(S'tr_tl'
I190
tp234
a(S'tr_ll'
I1
tp235
a(S'w'
I5873
tp236
a(S'p1_tl'
I190
tp237
a(S'p1_ll'
I4
tp238
a(S'w'
I5880
tp239
a(S'p1_tl'
I226
tp240
a(S'p1_ll'
I4
tp241
a(S'w'
I3
tp242
a(S'p2_tl'
I64
tp243
a(S'p2_ll'
I4
tp244
a(S'p2_th'
I1
tp245
a(S'w'
I3
tp246
a(S'tr_tl'
I29
tp247
a(S'tr_ll'
I1
tp248
a(S'tr_th'
I1
tp249
a(S'w'
I5874
tp250
a(S'p1_tl'
I29
tp251
a(S'p1_ll'
I4
tp252
a(S'p1_th'
I1
tp253
a(S'w'
I5880
tp254
a(S'p1_tl'
I169
tp255
a(S'p1_ll'
I4
tp256
a(S'p1_th'
I0
tp257
a(S'w'
I3
tp258
a(S'p2_tl'
I29
tp259
a(S'p2_ll'
I4
tp260
a(S'w'
I3
tp261
a(S'tr_tl'
I213
tp262
a(S'tr_ll'
I1
tp263
a(S'tr_th'
I0
tp264
a(S'w'
I5875
tp265
a(S'w'
I1
tp266
a(S'tr_ll'
I1
tp267
a(S'w'
I5878
tp268
a(S'p1_tl'
I213
tp269
a(S'p1_ll'
I4
tp270
a(S'w'
I3
tp271
a(S'p2_tl'
I83
tp272
a(S'p2_ll'
I4
tp273
a(S'w'
I3
tp274
a(S'tr_ll'
I1
tp275
a(S'w'
I5875
tp276
a(S'w'
I1
tp277
a(S'tr_ll'
I1
tp278
a(S'w'
I5878
tp279
a(S'p1_tl'
I160
tp280
a(S'p1_ll'
I4
tp281
a(S'w'
I3
tp282
a(S'p2_tl'
I254
tp283
a(S'p2_ll'
I4
tp284
a(S'p2_th'
I0
tp285
a(S'w'
I3
tp286
a(S'w'
I1
tp287
a(S'tr_ll'
I1
tp288
a(S'w'
I5874
tp289
a(S'w'
I1
tp290
a(S'tr_ll'
I1
tp291
a(S'w'
I5879
tp292
a(S'tr_tl'
I171
tp293
a(S'tr_ll'
I1
tp294
a(S'tr_th'
I1
tp295
a(S'w'
I5879
tp296
a(S'p1_tl'
I190
tp297
a(S'p1_ll'
I4
tp298
a(S'w'
I3
tp299
a(S'p2_tl'
I64
tp300
a(S'p2_ll'
I4
tp301
a(S'p2_th'
I1
tp302
a(S'w'
I3
tp303
a(S'tr_ll'
I1
tp304
a(S'w'
I5874
tp305
a(S'p1_tl'
I142
tp306
a(S'p1_ll'
I4
tp307
a(S'w'
I3
tp308
a(S'p2_tl'
I226
tp309
a(S'p2_ll'
I4
tp310
a(S'p2_th'
I0
tp311
a(S'w'
I3
tp312
a(S'tr_ll'
I1
tp313
a(S'w'
I5875
tp314
a(S'tr_ll'
I1
tp315
a(S'w'
I5880
tp316
a(S'tr_ll'
I1
tp317
a(S'w'
I5879
tp318
a(S'p1_tl'
I160
tp319
a(S'p1_ll'
I4
tp320
a(S'w'
I3
tp321
a(S'p2_tl'
I254
tp322
a(S'p2_ll'
I4
tp323
a(S'w'
I3
tp324
a(S'tr_ll'
I1
tp325
a(S'w'
I5874
tp326
a(S'p1_tl'
I169
tp327
a(S'p1_ll'
I4
tp328
a(S'w'
I3
tp329
a(S'p2_tl'
I29
tp330
a(S'p2_ll'
I4
tp331
a(S'p2_th'
I1
tp332
a(S'w'
I3
tp333
a(S'tr_ll'
I1
tp334
a(S'w'
I5875
tp335
a(S'tr_ll'
I1
tp336
a(S'w'
I5879
tp337
a(S'p1_tl'
I254
tp338
a(S'p1_ll'
I4
tp339
a(S'w'
I3
tp340
a(S'p2_ll'
I4
tp341
a(S'w'
I3
tp342
a(S'tr_tl'
I147
tp343
a(S'tr_ll'
I1
tp344
a(S'w'
I5875
tp345
a(S'tr_ll'
I1
tp346
a(S'w'
I5879
tp347
a(S'p1_tl'
I160
tp348
a(S'p1_ll'
I4
tp349
a(S'w'
I3
tp350
a(S'p2_tl'
I254
tp351
a(S'p2_ll'
I4
tp352
a(S'p2_th'
I0
tp353
a(S'w'
I3
tp354
a(S'tr_tl'
I124
tp355
a(S'tr_ll'
I1
tp356
a(S'w'
I5875
tp357
a(S'tr_ll'
I1
tp358
a(S'w'
I5879
tp359
a(S'p1_tl'
I190
tp360
a(S'p1_ll'
I4
tp361
a(S'w'
I3
tp362
a(S'p2_tl'
I13
tp363
a(S'p2_ll'
I4
tp364
a(S'p2_th'
I1
tp365
a(S'w'
I3
tp366
a(S'tr_ll'
I1
tp367
a(S'w'
I5875
tp368
a(S'tr_tl'
I83
tp369
a(S'tr_ll'
I1
tp370
a(S'w'
I5879
tp371
a(S'p1_tl'
I213
tp372
a(S'p1_ll'
I4
tp373
a(S'w'
I3
tp374
a(S'p2_ll'
I4
tp375
a(S'w'
I3
tp376
a(S'tr_tl'
I64
tp377
a(S'tr_ll'
I1
tp378
a(S'w'
I5875
tp379
a(S'tr_ll'
I1
tp380
a(S'w'
I5879
tp381
a(S'p1_tl'
I190
tp382
a(S'p1_ll'
I4
tp383
a(S'w'
I3
tp384
a(S'p2_tl'
I213
tp385
a(S'w'
I1
tp386
a(S'p2_ll'
I4
tp387
a(S'p2_th'
I0
tp388
a(S'w'
I2
tp389
a(S'tr_tl'
I46
tp390
a(S'tr_ll'
I1
tp391
a(S'w'
I5875
tp392
a(S'tr_ll'
I1
tp393
a(S'w'
I5879
tp394
a(S'p1_tl'
I226
tp395
a(S'p1_ll'
I4
tp396
a(S'w'
I3
tp397
a(S'p2_tl'
I29
tp398
a(S'p2_ll'
I4
tp399
a(S'p2_th'
I1
tp400
a(S'w'
I3
tp401
a(S'tr_tl'
I29
tp402
a(S'tr_ll'
I1
tp403
a(S'w'
I5875
tp404
a(S'tr_tl'
I124
tp405
a(S'tr_ll'
I1
tp406
a(S'w'
I5879
tp407
a(S'p1_tl'
I213
tp408
a(S'p1_ll'
I4
tp409
a(S'w'
I3
tp410
a(S'p2_tl'
I254
tp411
a(S'p2_ll'
I4
tp412
a(S'p2_th'
I0
tp413
a(S'w'
I3
tp414
a(S'tr_tl'
I64
tp415
a(S'tr_ll'
I1
tp416
a(S'w'
I5875
tp417
a(S'tr_ll'
I1
tp418
a(S'w'
I5879
tp419
a(S'p1_tl'
I201
tp420
a(S'p1_ll'
I4
tp421
a(S'w'
I3
tp422
a(S'p2_tl'
I239
tp423
a(S'p2_ll'
I4
tp424
a(S'w'
I3
tp425
a(S'tr_tl'
I83
tp426
a(S'tr_ll'
I1
tp427
a(S'w'
I5875
tp428
a(S'tr_ll'
I1
tp429
a(S'w'
I5879
tp430
a(S'p1_tl'
I190
tp431
a(S'p1_ll'
I4
tp432
a(S'w'
I3
tp433
a(S'p2_tl'
I226
tp434
a(S'p2_ll'
I4
tp435
a(S'w'
I3
tp436
a(S'tr_tl'
I124
tp437
a(S'tr_ll'
I1
tp438
a(S'w'
I5875
tp439
a(S'tr_ll'
I1
tp440
a(S'w'
I5879
tp441
a(S'p1_tl'
I201
tp442
a(S'p1_ll'
I4
tp443
a(S'w'
I3
tp444
a(S'p2_tl'
I29
tp445
a(S'p2_ll'
I4
tp446
a(S'p2_th'
I1
tp447
a(S'w'
I3
tp448
a(S'tr_tl'
I254
tp449
a(S'tr_ll'
I1
tp450
a(S'tr_th'
I0
tp451
a(S'w'
I5875
tp452
a(S'tr_ll'
I1
tp453
a(S'w'
I5879
tp454
a(S'p1_tl'
I127
tp455
a(S'p1_ll'
I4
tp456
a(S'w'
I3
tp457
a(S'p2_ll'
I4
tp458
a(S'w'
I3
tp459
a(S'tr_tl'
I226
tp460
a(S'tr_ll'
I1
tp461
a(S'w'
I5875
tp462
a(S'tr_tl'
I201
tp463
a(S'w'
I1
tp464
a(S'tr_ll'
I1
tp465
a(S'w'
I5878
tp466
a(S'p1_tl'
I160
tp467
a(S'p1_ll'
I4
tp468
a(S'w'
I3
tp469
a(S'p2_tl'
I254
tp470
a(S'p2_ll'
I4
tp471
a(S'p2_th'
I0
tp472
a(S'w'
I3
tp473
a(S'tr_tl'
I190
tp474
a(S'w'
I1
tp475
a(S'tr_ll'
I1
tp476
a(S'w'
I5874
tp477
a(S'w'
I1
tp478
a(S'tr_ll'
I1
tp479
a(S'w'
I5878
tp480
a(S'p1_tl'
I190
tp481
a(S'p1_ll'
I4
tp482
a(S'w'
I3
tp483
a(S'p2_tl'
I13
tp484
a(S'p2_ll'
I4
tp485
a(S'p2_th'
I1
tp486
a(S'w'
I3
tp487
a(S'tr_tl'
I169
tp488
a(S'tr_ll'
I1
tp489
a(S'w'
I5875
tp490
a(S'tr_tl'
I160
tp491
a(S'w'
I1
tp492
a(S'tr_ll'
I1
tp493
a(S'w'
I5878
tp494
a(S'p1_tl'
I226
tp495
a(S'p1_ll'
I4
tp496
a(S'w'
I3
tp497
a(S'p2_tl'
I29
tp498
a(S'p2_ll'
I4
tp499
a(S'w'
I3
tp500
a(S'tr_tl'
I29
tp501
a(S'tr_ll'
I1
tp502
a(S'tr_th'
I1
tp503
a(S'w'
I5875
tp504
a(S'tr_ll'
I1
tp505
a(S'w'
I5879
tp506
a(S'p1_tl'
I142
tp507
a(S'p1_ll'
I4
tp508
a(S'w'
I3
tp509
a(S'p2_tl'
I213
tp510
a(S'w'
I1
tp511
a(S'p2_ll'
I4
tp512
a(S'p2_th'
I0
tp513
a(S'w'
I2
tp514
a(S'tr_tl'
I254
tp515
a(S'w'
I1
tp516
a(S'tr_ll'
I1
tp517
a(S'tr_th'
I0
tp518
a(S'w'
I5874
tp519
a(S'p2_tl'
I190
tp520
a(S'p2_ll'
I4
tp521
a(S'w'
I3
tp522
a(S'tr_tl'
I226
tp523
a(S'tr_ll'
I1
tp524
a(S'w'
I5876
tp525
a(S'p1_tl'
I169
tp526
a(S'p1_ll'
I4
tp527
a(S'w'
I3
tp528
a(S'p2_tl'
I29
tp529
a(S'p2_ll'
I4
tp530
a(S'p2_th'
I1
tp531
a(S'w'
I3
tp532
a(S'tr_tl'
I213
tp533
a(S'tr_ll'
I1
tp534
a(S'w'
I5875
tp535
a(S'w'
I1
tp536
a(S'tr_ll'
I1
tp537
a(S'w'
I5878
tp538
a(S'p1_tl'
I213
tp539
a(S'p1_ll'
I4
tp540
a(S'w'
I3
tp541
a(S'p2_tl'
I239
tp542
a(S'p2_ll'
I4
tp543
a(S'p2_th'
I0
tp544
a(S'w'
I3
tp545
a(S'tr_tl'
I190
tp546
a(S'w'
I1
tp547
a(S'tr_ll'
I1
tp548
a(S'w'
I5874
tp549
a(S'tr_tl'
I169
tp550
a(S'w'
I1
tp551
a(S'tr_ll'
I1
tp552
a(S'w'
I5878
tp553
a(S'p1_tl'
I254
tp554
a(S'p1_ll'
I4
tp555
a(S'w'
I3
tp556
a(S'p2_tl'
I64
tp557
a(S'p2_ll'
I4
tp558
a(S'p2_th'
I1
tp559
a(S'w'
I3
tp560
a(S'tr_tl'
I64
tp561
a(S'tr_ll'
I1
tp562
a(S'tr_th'
I1
tp563
a(S'w'
I5861
tp564
a(S'tr_ll'
I1
tp565
a(S'w'
I5893
tp566
a(S'p1_tl'
I160
tp567
a(S'p1_ll'
I4
tp568
a(S'w'
I3
tp569
a(S'p2_tl'
I254
tp570
a(S'p2_ll'
I4
tp571
a(S'p2_th'
I0
tp572
a(S'w'
I3
tp573
a(S'tr_ll'
I1
tp574
a(S'w'
I5875
tp575
a(S'tr_ll'
I1
tp576
a(S'w'
I5879
tp577
a(S'p1_tl'
I190
tp578
a(S'p1_ll'
I4
tp579
a(S'w'
I3
tp580
a(S'p2_ll'
I4
tp581
a(S'w'
I3
tp582
a(S'tr_tl'
I46
tp583
a(S'tr_ll'
I1
tp584
a(S'w'
I5875
tp585
a(S'tr_ll'
I1
tp586
a(S'w'
I5879
tp587
a(S'p1_tl'
I213
tp588
a(S'p1_ll'
I4
tp589
a(S'w'
I3
tp590
a(S'p2_ll'
I4
tp591
a(S'w'
I3
tp592
a(S'tr_ll'
I1
tp593
a(S'w'
I5875
tp594
a(S'tr_ll'
I1
tp595
a(S'w'
I5879
tp596
a(S'p1_tl'
I226
tp597
a(S'p1_ll'
I4
tp598
a(S'w'
I3
tp599
a(S'p2_ll'
I4
tp600
a(S'w'
I3
tp601
a(S'tr_tl'
I29
tp602
a(S'tr_ll'
I1
tp603
a(S'w'
I5875
tp604
a(S'tr_ll'
I1
tp605
a(S'w'
I5879
tp606
a(S'p1_ll'
I4
tp607
a(S'w'
I3
tp608
a(S'p2_tl'
I29
tp609
a(S'p2_ll'
I4
tp610
a(S'p2_th'
I1
tp611
a(S'w'
I3
tp612
a(S'tr_ll'
I1
tp613
a(S'w'
I5875
tp614
a(S'tr_ll'
I1
tp615
a(S'w'
I5879
tp616
a(S'p1_tl'
I213
tp617
a(S'p1_ll'
I4
tp618
a(S'w'
I3
tp619
a(S'p2_tl'
I46
tp620
a(S'p2_ll'
I4
tp621
a(S'w'
I3
tp622
a(S'tr_tl'
I13
tp623
a(S'tr_ll'
I1
tp624
a(S'w'
I5875
tp625
a(S'tr_ll'
I1
tp626
a(S'w'
I5879
tp627
a(S'p1_tl'
I190
tp628
a(S'p1_ll'
I4
tp629
a(S'w'
I3
tp630
a(S'p2_tl'
I64
tp631
a(S'p2_ll'
I4
tp632
a(S'w'
I3
tp633
a(S'tr_tl'
I254
tp634
a(S'tr_ll'
I1
tp635
a(S'tr_th'
I0
tp636
a(S'w'
I5875
tp637
a(S'tr_tl'
I226
tp638
a(S'tr_ll'
I1
tp639
a(S'w'
I5879
tp640
a(S'p1_tl'
I169
tp641
a(S'p1_ll'
I4
tp642
a(S'w'
I3
tp643
a(S'p2_tl'
I213
tp644
a(S'w'
I1
tp645
a(S'p2_ll'
I4
tp646
a(S'p2_th'
I0
tp647
a(S'w'
I2
tp648
a(S'tr_tl'
I171
tp649
a(S'w'
I1
tp650
a(S'tr_ll'
I1
tp651
a(S'tr_th'
I1
tp652
a(S'w'
I5874
tp653
a(S'tr_ll'
I1
tp654
a(S'w'
I5879
tp655
a(S'p2_tl'
I226
tp656
a(S'w'
I1
tp657
a(S'p2_ll'
I4
tp658
a(S'w'
I2
tp659
a(S'w'
I1
tp660
a(S'tr_ll'
I1
tp661
a(S'w'
I5876
tp662
a(S'p1_tl'
I142
tp663
a(S'p1_ll'
I4
tp664
a(S'w'
I4
tp665
a(S'tr_ll'
I1
tp666
a(S'w'
I5876
tp667
a(S'p1_tl'
I160
tp668
a(S'p1_ll'
I4
tp669
a(S'w'
I3
tp670
a(S'p2_tl'
I254
tp671
a(S'p2_ll'
I4
tp672
a(S'w'
I3
tp673
a(S'tr_tl'
I128
tp674
a(S'tr_ll'
I1
tp675
a(S'tr_th'
I2
tp676
a(S'w'
I5874
tp677
a(S'p1_tl'
I169
tp678
a(S'p1_ll'
I4
tp679
a(S'w'
I3
tp680
a(S'w'
I1
tp681
a(S'tr_ll'
I1
tp682
a(S'w'
I5876
tp683
a(S'p1_tl'
I190
tp684
a(S'p1_ll'
I4
tp685
a(S'w'
I3
tp686
a(S'w'
I1
tp687
a(S'tr_ll'
I1
tp688
a(S'w'
I5876
tp689
a(S'p1_tl'
I213
tp690
a(S'p1_ll'
I4
tp691
a(S'w'
I3
tp692
a(S'tr_ll'
I1
tp693
a(S'w'
I5877
tp694
a(S'p1_tl'
I127
tp695
a(S'p1_ll'
I4
tp696
a(S'w'
I3
tp697
a(S'p2_ll'
I4
tp698
a(S'w'
I3
tp699
a(S'tr_tl'
I92
tp700
a(S'tr_ll'
I1
tp701
a(S'w'
I5874
tp702
a(S'p1_tl'
I190
tp703
a(S'p1_ll'
I4
tp704
a(S'w'
I3
tp705
a(S'p2_tl'
I213
tp706
a(S'w'
I1
tp707
a(S'p2_ll'
I4
tp708
a(S'w'
I2
tp709
a(S'tr_ll'
I1
tp710
a(S'w'
I5874
tp711
a(S'p1_tl'
I169
tp712
a(S'p1_ll'
I4
tp713
a(S'w'
I3
tp714
a(S'w'
I1
tp715
a(S'p2_ll'
I4
tp716
a(S'w'
I2
tp717
a(S'tr_tl'
I58
tp718
a(S'tr_ll'
I1
tp719
a(S'w'
I5874
tp720
a(S'p1_tl'
I160
tp721
a(S'p1_ll'
I4
tp722
a(S'w'
I3
tp723
a(S'tr_tl'
I252
tp724
a(S'tr_ll'
I1
tp725
a(S'tr_th'
I1
tp726
a(S'w'
I5877
tp727
a(S'p1_tl'
I142
tp728
a(S'p1_ll'
I4
tp729
a(S'w'
I3
tp730
a(S'p2_tl'
I190
tp731
a(S'w'
I1
tp732
a(S'p2_ll'
I4
tp733
a(S'w'
I2
tp734
a(S'tr_tl'
I196
tp735
a(S'tr_ll'
I1
tp736
a(S'w'
I5874
tp737
a(S'p1_tl'
I29
tp738
a(S'p1_ll'
I4
tp739
a(S'p1_th'
I1
tp740
a(S'w'
I5880
tp741
a(S'p1_tl'
I254
tp742
a(S'p1_ll'
I4
tp743
a(S'p1_th'
I0
tp744
a(S'w'
I3
tp745
a(S'p2_tl'
I46
tp746
a(S'p2_ll'
I4
tp747
a(S'p2_th'
I1
tp748
a(S'w'
I2
tp749
a(S'tr_tl'
I58
tp750
a(S'tr_ll'
I1
tp751
a(S'tr_th'
I2
tp752
a(S'w'
I5875
tp753
a(S'p1_tl'
I226
tp754
a(S'p1_ll'
I4
tp755
a(S'w'
I3
tp756
a(S'p2_tl'
I64
tp757
a(S'p2_ll'
I4
tp758
a(S'w'
I5877
tp759
a(S'p1_tl'
I213
tp760
a(S'p1_ll'
I4
tp761
a(S'w'
I3
tp762
a(S'p2_tl'
I83
tp763
a(S'p2_ll'
I4
tp764
a(S'w'
I3
tp765
a(S'tr_tl'
I171
tp766
a(S'tr_ll'
I1
tp767
a(S'tr_th'
I1
tp768
a(S'w'
I5874
tp769
a(S'p1_tl'
I169
tp770
a(S'p1_ll'
I4
tp771
a(S'w'
I4
tp772
a(S'tr_ll'
I1
tp773
a(S'w'
I5876
tp774
a(S'p1_tl'
I190
tp775
a(S'p1_ll'
I4
tp776
a(S'w'
I3
tp777
a(S'p2_tl'
I64
tp778
a(S'p2_ll'
I4
tp779
a(S'w'
I3
tp780
a(S'tr_tl'
I58
tp781
a(S'tr_ll'
I1
tp782
a(S'tr_th'
I2
tp783
a(S'w'
I5874
tp784
a(S'p1_tl'
I226
tp785
a(S'p1_ll'
I4
tp786
a(S'w'
I3
tp787
a(S'tr_ll'
I1
tp788
a(S'w'
I5877
tp789
a(S'p1_tl'
I213
tp790
a(S'p1_ll'
I4
tp791
a(S'w'
I3
tp792
a(S'p2_tl'
I83
tp793
a(S'p2_ll'
I4
tp794
a(S'w'
I3
tp795
a(S'tr_tl'
I171
tp796
a(S'tr_ll'
I1
tp797
a(S'tr_th'
I1
tp798
a(S'w'
I5874
tp799
a(S'p1_tl'
I169
tp800
a(S'p1_ll'
I4
tp801
a(S'w'
I4
tp802
a(S'tr_ll'
I1
tp803
a(S'w'
I5876
tp804
a(S'p1_tl'
I190
tp805
a(S'p1_ll'
I4
tp806
a(S'w'
I3
tp807
a(S'p2_tl'
I64
tp808
a(S'p2_ll'
I4
tp809
a(S'w'
I3
tp810
a(S'tr_tl'
I58
tp811
a(S'tr_ll'
I1
tp812
a(S'tr_th'
I2
tp813
a(S'w'
I5874
tp814
a(S'p1_tl'
I201
tp815
a(S'p1_ll'
I4
tp816
a(S'w'
I3
tp817
a(S'p2_ll'
I4
tp818
a(S'w'
I2
tp819
a(S'w'
I1
tp820
a(S'tr_ll'
I1
tp821
a(S'w'
I5874
tp822
a(S'p1_tl'
I213
tp823
a(S'p1_ll'
I4
tp824
a(S'w'
I3
tp825
a(S'p2_tl'
I103
tp826
a(S'p2_ll'
I4
tp827
a(S'w'
I2
tp828
a(S'tr_tl'
I26
tp829
a(S'w'
I1
tp830
a(S'tr_ll'
I1
tp831
a(S'w'
I5875
tp832
a(S'tr_ll'
I1
tp833
a(S'w'
I5878
tp834
a(S'p1_tl'
I124
tp835
a(S'w'
I1
tp836
a(S'p1_ll'
I4
tp837
a(S'p1_th'
I1
tp838
a(S'w'
I3
tp839
a(S'tr_ll'
I1
tp840
a(S'w'
I5876
tp841
a(S'p1_tl'
I64
tp842
a(S'w'
I1
tp843
a(S'p1_ll'
I4
tp844
a(S'w'
I5880
tp845
a(S'p1_tl'
I213
tp846
a(S'p1_ll'
I4
tp847
a(S'p1_th'
I0
tp848
a(S'w'
I3
tp849
a(S'p2_tl'
I83
tp850
a(S'p2_ll'
I4
tp851
a(S'w'
I3
tp852
a(S'tr_tl'
I171
tp853
a(S'tr_ll'
I1
tp854
a(S'tr_th'
I1
tp855
a(S'w'
I23511
tp856
a(S'ch_no'
I0
tp857
a(S'ch_tr'
I0
tp858
a(S'ch_p2'
I0
tp859
a(S'ch_p1'
I0
tp860
a(S'w'
I3645
tp861
a.