(lp1
(S'clock'
p2
I1789772
tp3
a(S'p1_du'
I3
tp4
a(S'p1_vo'
I10
tp5
a(S'p1_ll'
I0
tp6
a(S'p2_du'
I3
tp7
a(S'p2_vo'
I4
tp8
a(S'p2_ll'
I0
tp9
a(S'tr_lr'
I32
tp10
a(S'tr_ll'
I0
tp11
a(S'no_ll'
I0
tp12
a(S'ch_no'
I1
tp13
a(S'ch_tr'
I1
tp14
a(S'ch_p2'
I1
tp15
a(S'ch_p1'
I1
tp16
a(S'w'
I105
tp17
a(S'p1_tl'
I29
tp18
a(S'p1_ll'
I4
tp19
a(S'p1_th'
I1
tp20
a(S'w'
I10273
tp21
a(S'p1_ll'
I4
tp22
a(S'w'
I10273
tp23
a(S'w'
I1
tp24
a(S'p1_ll'
I4
tp25
a(S'w'
I10273
tp26
a(S'p1_tl'
I124
tp27
a(S'p1_ll'
I4
tp28
a(S'w'
I2
tp29
a(S'p2_tl'
I29
tp30
a(S'w'
I1
tp31
a(S'p2_ll'
I4
tp32
a(S'p2_th'
I1
tp33
a(S'w'
I2
tp34
a(S'tr_tl'
I29
tp35
a(S'w'
I1
tp36
a(S'tr_ll'
I4
tp37
a(S'tr_th'
I1
tp38
a(S'w'
I15403
tp39
a(S'w'
I1
tp40
a(S'p1_ll'
I4
tp41
a(S'w'
I2
tp42
a(S'w'
I1
tp43
a(S'p2_ll'
I4
tp44
a(S'w'
I3
tp45
a(S'tr_ll'
I4
tp46
a(S'w'
I5130
tp47
a(S'p1_ll'
I4
tp48
a(S'w'
I3
tp49
a(S'p2_ll'
I4
tp50
a(S'w'
I3
tp51
a(S'tr_ll'
I4
tp52
a(S'w'
I10267
tp53
a(S'p1_tl'
I29
tp54
a(S'p1_ll'
I4
tp55
a(S'w'
I3
tp56
a(S'p2_tl'
I226
tp57
a(S'p2_ll'
I4
tp58
a(S'p2_th'
I0
tp59
a(S'w'
I3
tp60
a(S'tr_ll'
I4
tp61
a(S'w'
I10267
tp62
a(S'w'
I1
tp63
a(S'p1_ll'
I4
tp64
a(S'w'
I5136
tp65
a(S'p1_ll'
I4
tp66
a(S'w'
I5137
tp67
a(S'p1_tl'
I124
tp68
a(S'p1_ll'
I4
tp69
a(S'w'
I3
tp70
a(S'p2_tl'
I29
tp71
a(S'p2_ll'
I4
tp72
a(S'p2_th'
I1
tp73
a(S'w'
I3
tp74
a(S'tr_ll'
I4
tp75
a(S'w'
I5130
tp76
a(S'p1_tl'
I196
tp77
a(S'p1_ll'
I4
tp78
a(S'w'
I3
tp79
a(S'p2_tl'
I124
tp80
a(S'p2_ll'
I4
tp81
a(S'w'
I3
tp82
a(S'tr_ll'
I4
tp83
a(S'w'
I5131
tp84
a(S'p1_tl'
I29
tp85
a(S'p1_ll'
I4
tp86
a(S'w'
I3
tp87
a(S'p2_tl'
I226
tp88
a(S'p2_ll'
I4
tp89
a(S'p2_th'
I0
tp90
a(S'w'
I3
tp91
a(S'tr_ll'
I4
tp92
a(S'w'
I15404
tp93
a(S'p1_ll'
I4
tp94
a(S'w'
I3
tp95
a(S'p2_ll'
I4
tp96
a(S'w'
I3
tp97
a(S'tr_ll'
I4
tp98
a(S'w'
I5130
tp99
a(S'w'
I1
tp100
a(S'p1_ll'
I4
tp101
a(S'w'
I2
tp102
a(S'w'
I1
tp103
a(S'p2_ll'
I4
tp104
a(S'w'
I2
tp105
a(S'tr_ll'
I4
tp106
a(S'w'
I10268
tp107
a(S'p1_tl'
I226
tp108
a(S'p1_ll'
I4
tp109
a(S'p1_th'
I0
tp110
a(S'w'
I3
tp111
a(S'p2_tl'
I190
tp112
a(S'p2_ll'
I4
tp113
a(S'w'
I3
tp114
a(S'tr_ll'
I4
tp115
a(S'w'
I15403
tp116
a(S'p1_tl'
I29
tp117
a(S'w'
I1
tp118
a(S'p1_ll'
I4
tp119
a(S'p1_th'
I1
tp120
a(S'w'
I5136
tp121
a(S'p1_ll'
I4
tp122
a(S'w'
I3
tp123
a(S'p2_tl'
I226
tp124
a(S'p2_ll'
I4
tp125
a(S'w'
I3
tp126
a(S'tr_ll'
I4
tp127
a(S'w'
I5131
tp128
a(S'p1_tl'
I124
tp129
a(S'p1_ll'
I4
tp130
a(S'w'
I3
tp131
a(S'p2_tl'
I29
tp132
a(S'p2_ll'
I4
tp133
a(S'p2_th'
I1
tp134
a(S'w'
I3
tp135
a(S'tr_ll'
I4
tp136
a(S'w'
I5116
tp137
a(S'p1_tl'
I226
tp138
a(S'w'
I1
tp139
a(S'p1_ll'
I4
tp140
a(S'p1_th'
I0
tp141
a(S'w'
I3
tp142
a(S'p2_tl'
I190
tp143
a(S'p2_ll'
I4
tp144
a(S'p2_th'
I0
tp145
a(S'w'
I3
tp146
a(S'tr_ll'
I4
tp147
a(S'w'
I15444
tp148
a(S'p1_ll'
I4
tp149
a(S'w'
I3
tp150
a(S'p2_ll'
I4
tp151
a(S'w'
I3
tp152
a(S'tr_ll'
I4
tp153
a(S'w'
I5130
tp154
a(S'p1_ll'
I4
tp155
a(S'w'
I4
tp156
a(S'p2_ll'
I4
tp157
a(S'w'
I3
tp158
a(S'tr_ll'
I4
tp159
a(S'w'
I10267
tp160
a(S'p1_tl'
I190
tp161
a(S'p1_ll'
I4
tp162
a(S'w'
I3
tp163
a(S'p2_tl'
I151
tp164
a(S'p2_ll'
I4
tp165
a(S'w'
I3
tp166
a(S'tr_ll'
I4
tp167
a(S'w'
I10267
tp168
a(S'p1_tl'
I29
tp169
a(S'p1_ll'
I4
tp170
a(S'p1_th'
I1
tp171
a(S'w'
I5136
tp172
a(S'p1_tl'
I254
tp173
a(S'p1_ll'
I4
tp174
a(S'p1_th'
I0
tp175
a(S'w'
I4
tp176
a(S'p2_tl'
I190
tp177
a(S'p2_ll'
I4
tp178
a(S'w'
I5133
tp179
a(S'p1_tl'
I46
tp180
a(S'p1_ll'
I4
tp181
a(S'p1_th'
I1
tp182
a(S'w'
I3
tp183
a(S'p2_tl'
I254
tp184
a(S'p2_ll'
I4
tp185
a(S'w'
I3
tp186
a(S'tr_ll'
I4
tp187
a(S'w'
I10267
tp188
a(S'p1_tl'
I254
tp189
a(S'p1_ll'
I4
tp190
a(S'p1_th'
I0
tp191
a(S'w'
I4
tp192
a(S'p2_tl'
I190
tp193
a(S'p2_ll'
I4
tp194
a(S'w'
I3
tp195
a(S'tr_ll'
I4
tp196
a(S'w'
I15376
tp197
a(S'p1_tl'
I46
tp198
a(S'w'
I1
tp199
a(S'p1_ll'
I4
tp200
a(S'p1_th'
I1
tp201
a(S'w'
I2
tp202
a(S'p2_tl'
I254
tp203
a(S'w'
I1
tp204
a(S'p2_ll'
I4
tp205
a(S'w'
I3
tp206
a(S'tr_ll'
I4
tp207
a(S'w'
I5130
tp208
a(S'p1_tl'
I254
tp209
a(S'p1_ll'
I4
tp210
a(S'p1_th'
I0
tp211
a(S'w'
I3
tp212
a(S'p2_tl'
I190
tp213
a(S'w'
I1
tp214
a(S'p2_ll'
I4
tp215
a(S'w'
I3
tp216
a(S'tr_ll'
I4
tp217
a(S'w'
I10266
tp218
a(S'p1_tl'
I29
tp219
a(S'p1_ll'
I4
tp220
a(S'p1_th'
I1
tp221
a(S'w'
I3
tp222
a(S'p2_tl'
I142
tp223
a(S'w'
I1
tp224
a(S'p2_ll'
I4
tp225
a(S'w'
I3
tp226
a(S'tr_ll'
I4
tp227
a(S'w'
I15403
tp228
a(S'p1_ll'
I4
tp229
a(S'w'
I3
tp230
a(S'w'
I1
tp231
a(S'p2_ll'
I4
tp232
a(S'w'
I3
tp233
a(S'tr_ll'
I4
tp234
a(S'w'
I5130
tp235
a(S'p1_ll'
I4
tp236
a(S'w'
I3
tp237
a(S'p2_ll'
I4
tp238
a(S'w'
I3
tp239
a(S'tr_ll'
I4
tp240
a(S'w'
I10267
tp241
a(S'p1_ll'
I4
tp242
a(S'w'
I3
tp243
a(S'p2_ll'
I4
tp244
a(S'w'
I3
tp245
a(S'tr_ll'
I4
tp246
a(S'w'
I13746
tp247
a.