(lp1
(S'clock'
p2
I1789773
tp3
a(S'ch_no'
I1
tp4
a(S'ch_tr'
I0
tp5
a(S'ch_p2'
I1
tp6
a(S'ch_p1'
I1
tp7
a(S'ch_no'
I1
tp8
a(S'ch_tr'
I1
tp9
a(S'ch_p2'
I1
tp10
a(S'ch_p1'
I1
tp11
a(S'p1_lh'
I1
tp12
a(S'p1_cv'
I1
tp13
a(S'p1_sp'
I7
tp14
a(S'p1_sn'
I1
tp15
a(S'p1_ss'
I7
tp16
a(S'p2_lh'
I1
tp17
a(S'p2_cv'
I1
tp18
a(S'p2_sp'
I7
tp19
a(S'p2_sn'
I1
tp20
a(S'p2_ss'
I7
tp21
a(S'no_lh'
I1
tp22
a(S'no_cv'
I1
tp23
a(S'w'
I73
tp24
a(S'p2_du'
I2
tp25
a(S'p2_vo'
I8
tp26
a(S'w'
I3
tp27
a(S'p2_ll'
I1
tp28
a(S'p2_th'
I2
tp29
a(S'p2_ll'
I1
tp30
a(S'w'
I2
tp31
a(S'p2_tl'
I129
tp32
a(S'w'
I25
tp33
a(S'tr_lr'
I84
tp34
a(S'w'
I3
tp35
a(S'tr_ll'
I1
tp36
a(S'tr_th'
I2
tp37
a(S'tr_ll'
I1
tp38
a(S'w'
I2
tp39
a(S'tr_tl'
I129
tp40
a(S'w'
I16
tp41
a(S'ch_no'
I1
tp42
a(S'ch_tr'
I1
tp43
a(S'ch_p2'
I1
tp44
a(S'ch_p1'
I1
tp45
a(S'w'
I624
tp46
a(S'p2_vo'
I7
tp47
a(S'w'
I1469
tp48
a(S'p2_vo'
I6
tp49
a(S'w'
I732
tp50
a(S'p2_vo'
I5
tp51
a(S'w'
I746
tp52
a(S'p2_vo'
I8
tp53
a(S'w'
I3
tp54
a(S'p2_ll'
I1
tp55
a(S'p2_th'
I1
tp56
a(S'w'
I1
tp57
a(S'p2_ll'
I1
tp58
a(S'w'
I1
tp59
a(S'p2_tl'
I64
tp60
a(S'w'
I716
tp61
a(S'p2_vo'
I7
tp62
a(S'w'
I1469
tp63
a(S'p2_vo'
I6
tp64
a(S'w'
I733
tp65
a(S'p2_vo'
I5
tp66
a(S'w'
I746
tp67
a(S'p2_vo'
I8
tp68
a(S'w'
I4
tp69
a(S'p2_tl'
I224
tp70
a(S'w'
I29
tp71
a(S'no_vo'
I9
tp72
a(S'w'
I3
tp73
a(S'no_ll'
I1
tp74
a(S'no_ll'
I1
tp75
a(S'w'
I1
tp76
a(S'no_np'
I3
tp77
a(S'w'
I684
tp78
a(S'p2_vo'
I7
tp79
a(S'w'
I14
tp80
a(S'no_vo'
I2
tp81
a(S'w'
I3
tp82
a(S'no_ll'
I1
tp83
a(S'no_ll'
I1
tp84
a(S'w'
I2
tp85
a(S'no_np'
I1
tp86
a(S'w'
I726
tp87
a(S'no_vo'
I1
tp88
a(S'w'
I3
tp89
a(S'no_ll'
I1
tp90
a(S'no_ll'
I1
tp91
a(S'w'
I2
tp92
a(S'w'
I719
tp93
a(S'p2_vo'
I6
tp94
a(S'w'
I17
tp95
a(S'no_vo'
I0
tp96
a(S'w'
I716
tp97
a(S'p2_vo'
I5
tp98
a(S'w'
I746
tp99
a(S'p2_vo'
I8
tp100
a(S'w'
I3
tp101
a(S'p2_ll'
I1
tp102
a(S'p2_th'
I0
tp103
a(S'w'
I1
tp104
a(S'p2_ll'
I1
tp105
a(S'w'
I1
tp106
a(S'p2_tl'
I240
tp107
a(S'w'
I733
tp108
a(S'p1_du'
I2
tp109
a(S'p1_vo'
I4
tp110
a(S'w'
I3
tp111
a(S'p1_ll'
I1
tp112
a(S'p1_th'
I2
tp113
a(S'p1_ll'
I1
tp114
a(S'w'
I2
tp115
a(S'p1_tl'
I128
tp116
a(S'w'
I9
tp117
a(S'p2_vo'
I7
tp118
a(S'w'
I4
tp119
a(S'tr_lr'
I20
tp120
a(S'w'
I696
tp121
a(S'p1_vo'
I3
tp122
a(S'w'
I739
tp123
a(S'p2_vo'
I6
tp124
a(S'w'
I733
tp125
a(S'p2_vo'
I5
tp126
a(S'w'
I744
tp127
a(S'p2_vo'
I8
tp128
a(S'w'
I3
tp129
a(S'p2_ll'
I1
tp130
a(S'p2_th'
I1
tp131
a(S'p2_ll'
I1
tp132
a(S'w'
I2
tp133
a(S'p2_tl'
I172
tp134
a(S'w'
I29
tp135
a(S'no_vo'
I9
tp136
a(S'w'
I3
tp137
a(S'no_ll'
I1
tp138
a(S'no_ll'
I1
tp139
a(S'w'
I2
tp140
a(S'no_np'
I3
tp141
a(S'w'
I688
tp142
a(S'p1_vo'
I4
tp143
a(S'w'
I3
tp144
a(S'p1_ll'
I1
tp145
a(S'p1_th'
I1
tp146
a(S'p1_ll'
I1
tp147
a(S'w'
I2
tp148
a(S'p1_tl'
I63
tp149
a(S'w'
I9
tp150
a(S'p2_vo'
I7
tp151
a(S'w'
I14
tp152
a(S'no_vo'
I2
tp153
a(S'w'
I3
tp154
a(S'no_ll'
I1
tp155
a(S'no_ll'
I1
tp156
a(S'w'
I2
tp157
a(S'no_np'
I1
tp158
a(S'w'
I693
tp159
a(S'p1_vo'
I3
tp160
a(S'w'
I19
tp161
a(S'no_vo'
I1
tp162
a(S'w'
I3
tp163
a(S'no_ll'
I1
tp164
a(S'no_ll'
I1
tp165
a(S'w'
I1
tp166
a(S'w'
I716
tp167
a(S'p2_vo'
I6
tp168
a(S'w'
I17
tp169
a(S'no_vo'
I0
tp170
a(S'w'
I716
tp171
a(S'p2_vo'
I5
tp172
a(S'w'
I747
tp173
a(S'p2_vo'
I8
tp174
a(S'w'
I3
tp175
a(S'p2_ll'
I1
tp176
a(S'p2_th'
I0
tp177
a(S'p2_ll'
I1
tp178
a(S'w'
I2
tp179
a(S'p2_tl'
I214
tp180
a(S'w'
I719
tp181
a(S'p1_vo'
I4
tp182
a(S'w'
I4
tp183
a(S'p1_tl'
I223
tp184
a(S'w'
I8
tp185
a(S'p2_vo'
I7
tp186
a(S'w'
I714
tp187
a(S'p1_vo'
I3
tp188
a(S'w'
I739
tp189
a(S'p2_vo'
I6
tp190
a(S'w'
I732
tp191
a(S'p2_vo'
I5
tp192
a(S'w'
I748
tp193
a(S'p2_vo'
I8
tp194
a(S'w'
I3
tp195
a(S'p2_ll'
I1
tp196
a(S'p2_th'
I1
tp197
a(S'p2_ll'
I1
tp198
a(S'w'
I2
tp199
a(S'p2_tl'
I104
tp200
a(S'w'
I13
tp201
a(S'tr_lr'
I84
tp202
a(S'w'
I3
tp203
a(S'tr_ll'
I1
tp204
a(S'tr_ll'
I1
tp205
a(S'w'
I10
tp206
a(S'ch_no'
I1
tp207
a(S'ch_tr'
I1
tp208
a(S'ch_p2'
I1
tp209
a(S'ch_p1'
I1
tp210
a(S'w'
I1
tp211
a(S'ch_no'
I1
tp212
a(S'ch_tr'
I1
tp213
a(S'ch_p2'
I1
tp214
a(S'ch_p1'
I1
tp215
a(S'w'
I693
tp216
a(S'p1_vo'
I4
tp217
a(S'w'
I3
tp218
a(S'p1_ll'
I1
tp219
a(S'p1_th'
I0
tp220
a(S'p1_ll'
I1
tp221
a(S'w'
I2
tp222
a(S'p1_tl'
I239
tp223
a(S'w'
I9
tp224
a(S'p2_vo'
I7
tp225
a(S'w'
I712
tp226
a(S'p1_vo'
I3
tp227
a(S'w'
I739
tp228
a(S'p2_vo'
I6
tp229
a(S'w'
I731
tp230
a(S'p2_vo'
I5
tp231
a(S'w'
I748
tp232
a(S'p2_vo'
I8
tp233
a(S'w'
I3
tp234
a(S'p2_ll'
I1
tp235
a(S'p2_th'
I0
tp236
a(S'p2_ll'
I1
tp237
a(S'w'
I2
tp238
a(S'p2_tl'
I180
tp239
a(S'w'
I716
tp240
a(S'p1_vo'
I4
tp241
a(S'w'
I4
tp242
a(S'p1_ll'
I1
tp243
a(S'p1_th'
I1
tp244
a(S'p1_ll'
I1
tp245
a(S'w'
I1
tp246
a(S'p1_tl'
I171
tp247
a(S'w'
I9
tp248
a(S'p2_vo'
I7
tp249
a(S'w'
I715
tp250
a(S'p1_vo'
I3
tp251
a(S'w'
I739
tp252
a(S'p2_vo'
I6
tp253
a(S'w'
I732
tp254
a(S'p2_vo'
I5
tp255
a(S'w'
I748
tp256
a(S'p2_vo'
I8
tp257
a(S'w'
I3
tp258
a(S'p2_ll'
I1
tp259
a(S'p2_th'
I1
tp260
a(S'p2_ll'
I1
tp261
a(S'w'
I2
tp262
a(S'p2_tl'
I29
tp263
a(S'w'
I29
tp264
a(S'no_vo'
I9
tp265
a(S'w'
I3
tp266
a(S'no_ll'
I1
tp267
a(S'no_ll'
I1
tp268
a(S'w'
I1
tp269
a(S'no_np'
I3
tp270
a(S'w'
I686
tp271
a(S'p1_vo'
I4
tp272
a(S'w'
I4
tp273
a(S'p1_ll'
I1
tp274
a(S'p1_th'
I0
tp275
a(S'p1_ll'
I1
tp276
a(S'w'
I1
tp277
a(S'p1_tl'
I213
tp278
a(S'w'
I9
tp279
a(S'p2_vo'
I7
tp280
a(S'w'
I14
tp281
a(S'no_vo'
I2
tp282
a(S'w'
I3
tp283
a(S'no_ll'
I1
tp284
a(S'no_ll'
I1
tp285
a(S'w'
I2
tp286
a(S'no_np'
I1
tp287
a(S'w'
I693
tp288
a(S'p1_vo'
I3
tp289
a(S'w'
I19
tp290
a(S'no_vo'
I1
tp291
a(S'w'
I3
tp292
a(S'no_ll'
I1
tp293
a(S'no_ll'
I1
tp294
a(S'w'
I1
tp295
a(S'w'
I716
tp296
a(S'p2_vo'
I6
tp297
a(S'w'
I17
tp298
a(S'no_vo'
I0
tp299
a(S'w'
I715
tp300
a(S'p2_vo'
I5
tp301
a(S'w'
I748
tp302
a(S'p2_vo'
I8
tp303
a(S'w'
I3
tp304
a(S'p2_ll'
I1
tp305
a(S'p2_th'
I0
tp306
a(S'p2_ll'
I1
tp307
a(S'w'
I2
tp308
a(S'p2_tl'
I143
tp309
a(S'w'
I719
tp310
a(S'p1_vo'
I4
tp311
a(S'w'
I3
tp312
a(S'p1_ll'
I1
tp313
a(S'p1_th'
I1
tp314
a(S'p1_ll'
I1
tp315
a(S'w'
I2
tp316
a(S'p1_tl'
I103
tp317
a(S'w'
I9
tp318
a(S'p2_vo'
I7
tp319
a(S'w'
I4
tp320
a(S'tr_lr'
I20
tp321
a(S'w'
I708
tp322
a(S'p1_vo'
I3
tp323
a(S'w'
I739
tp324
a(S'p2_vo'
I6
tp325
a(S'w'
I732
tp326
a(S'p2_vo'
I5
tp327
a(S'w'
I748
tp328
a(S'p2_vo'
I8
tp329
a(S'w'
I4
tp330
a(S'p2_tl'
I240
tp331
a(S'w'
I29
tp332
a(S'no_vo'
I9
tp333
a(S'w'
I3
tp334
a(S'no_ll'
I1
tp335
a(S'no_ll'
I1
tp336
a(S'w'
I1
tp337
a(S'no_np'
I3
tp338
a(S'w'
I687
tp339
a(S'p1_vo'
I4
tp340
a(S'w'
I4
tp341
a(S'p1_ll'
I1
tp342
a(S'p1_th'
I0
tp343
a(S'p1_ll'
I1
tp344
a(S'w'
I1
tp345
a(S'p1_tl'
I179
tp346
a(S'w'
I9
tp347
a(S'p2_vo'
I7
tp348
a(S'w'
I14
tp349
a(S'no_vo'
I2
tp350
a(S'w'
I3
tp351
a(S'no_ll'
I1
tp352
a(S'no_ll'
I1
tp353
a(S'w'
I2
tp354
a(S'no_np'
I1
tp355
a(S'w'
I693
tp356
a(S'p1_vo'
I3
tp357
a(S'w'
I19
tp358
a(S'no_vo'
I1
tp359
a(S'w'
I3
tp360
a(S'no_ll'
I1
tp361
a(S'no_ll'
I1
tp362
a(S'w'
I1
tp363
a(S'w'
I715
tp364
a(S'p2_vo'
I6
tp365
a(S'w'
I17
tp366
a(S'no_vo'
I0
tp367
a(S'w'
I716
tp368
a(S'p2_vo'
I5
tp369
a(S'w'
I748
tp370
a(S'p2_vo'
I8
tp371
a(S'w'
I4
tp372
a(S'p2_tl'
I120
tp373
a(S'w'
I720
tp374
a(S'p1_vo'
I4
tp375
a(S'w'
I3
tp376
a(S'p1_ll'
I1
tp377
a(S'p1_th'
I1
tp378
a(S'p1_ll'
I1
tp379
a(S'w'
I2
tp380
a(S'p1_tl'
I28
tp381
a(S'w'
I9
tp382
a(S'p2_vo'
I7
tp383
a(S'w'
I712
tp384
a(S'p1_vo'
I3
tp385
a(S'w'
I738
tp386
a(S'p2_vo'
I6
tp387
a(S'w'
I733
tp388
a(S'p2_vo'
I5
tp389
a(S'w'
I745
tp390
a(S'p2_vo'
I8
tp391
a(S'w'
I4
tp392
a(S'p2_tl'
I214
tp393
a(S'w'
I12
tp394
a(S'tr_lr'
I56
tp395
a(S'w'
I3
tp396
a(S'tr_ll'
I1
tp397
a(S'tr_ll'
I1
tp398
a(S'w'
I10
tp399
a(S'ch_no'
I1
tp400
a(S'ch_tr'
I1
tp401
a(S'ch_p2'
I1
tp402
a(S'ch_p1'
I1
tp403
a(S'w'
I1
tp404
a(S'ch_no'
I1
tp405
a(S'ch_tr'
I1
tp406
a(S'ch_p2'
I1
tp407
a(S'ch_p1'
I1
tp408
a(S'w'
I698
tp409
a(S'p1_vo'
I4
tp410
a(S'w'
I4
tp411
a(S'p1_ll'
I1
tp412
a(S'p1_th'
I0
tp413
a(S'p1_ll'
I1
tp414
a(S'w'
I2
tp415
a(S'p1_tl'
I142
tp416
a(S'w'
I8
tp417
a(S'p2_vo'
I7
tp418
a(S'w'
I712
tp419
a(S'p1_vo'
I3
tp420
a(S'w'
I738
tp421
a(S'p2_vo'
I6
tp422
a(S'w'
I733
tp423
a(S'p2_vo'
I5
tp424
a(S'w'
I749
tp425
a(S'p2_vo'
I8
tp426
a(S'w'
I3
tp427
a(S'p2_tl'
I107
tp428
a(S'w'
I720
tp429
a(S'p1_vo'
I4
tp430
a(S'w'
I4
tp431
a(S'p1_tl'
I239
tp432
a(S'w'
I9
tp433
a(S'p2_vo'
I7
tp434
a(S'w'
I713
tp435
a(S'p1_vo'
I3
tp436
a(S'w'
I738
tp437
a(S'p2_vo'
I6
tp438
a(S'w'
I733
tp439
a(S'p2_vo'
I5
tp440
a(S'w'
I748
tp441
a(S'p2_vo'
I8
tp442
a(S'w'
I4
tp443
a(S'p2_tl'
I180
tp444
a(S'w'
I12
tp445
a(S'ch_no'
I1
tp446
a(S'ch_tr'
I1
tp447
a(S'ch_p2'
I1
tp448
a(S'ch_p1'
I1
tp449
a(S'w'
I1
tp450
a(S'ch_no'
I1
tp451
a(S'ch_tr'
I1
tp452
a(S'ch_p2'
I1
tp453
a(S'ch_p1'
I1
tp454
a(S'w'
I707
tp455
a(S'p1_vo'
I4
tp456
a(S'w'
I4
tp457
a(S'p1_tl'
I119
tp458
a(S'w'
I9
tp459
a(S'p2_vo'
I7
tp460
a(S'w'
I713
tp461
a(S'p1_vo'
I3
tp462
a(S'w'
I738
tp463
a(S'p2_vo'
I6
tp464
a(S'w'
I732
tp465
a(S'p2_vo'
I5
tp466
a(S'w'
I748
tp467
a(S'p2_vo'
I8
tp468
a(S'w'
I4
tp469
a(S'p2_tl'
I90
tp470
a(S'w'
I717
tp471
a(S'p1_vo'
I4
tp472
a(S'w'
I5
tp473
a(S'p1_tl'
I213
tp474
a(S'w'
I8
tp475
a(S'p2_vo'
I7
tp476
a(S'w'
I715
tp477
a(S'p1_vo'
I3
tp478
a(S'w'
I739
tp479
a(S'p2_vo'
I6
tp480
a(S'w'
I733
tp481
a(S'p2_vo'
I5
tp482
a(S'w'
I747
tp483
a(S'p2_vo'
I8
tp484
a(S'w'
I4
tp485
a(S'p2_ll'
I1
tp486
a(S'p2_th'
I2
tp487
a(S'p2_ll'
I1
tp488
a(S'w'
I1
tp489
a(S'p2_tl'
I93
tp490
a(S'w'
I14
tp491
a(S'tr_lr'
I84
tp492
a(S'w'
I2
tp493
a(S'tr_ll'
I1
tp494
a(S'w'
I1
tp495
a(S'tr_ll'
I1
tp496
a(S'w'
I1
tp497
a(S'tr_tl'
I93
tp498
a(S'w'
I8
tp499
a(S'ch_no'
I1
tp500
a(S'ch_tr'
I1
tp501
a(S'ch_p2'
I1
tp502
a(S'ch_p1'
I1
tp503
a(S'w'
I1
tp504
a(S'ch_no'
I1
tp505
a(S'ch_tr'
I1
tp506
a(S'ch_p2'
I1
tp507
a(S'ch_p1'
I1
tp508
a(S'w'
I694
tp509
a(S'p1_vo'
I4
tp510
a(S'w'
I5
tp511
a(S'p1_tl'
I106
tp512
a(S'w'
I8
tp513
a(S'p2_vo'
I7
tp514
a(S'w'
I712
tp515
a(S'p1_vo'
I3
tp516
a(S'w'
I739
tp517
a(S'p2_vo'
I6
tp518
a(S'w'
I732
tp519
a(S'p2_vo'
I5
tp520
a(S'w'
I748
tp521
a(S'p2_vo'
I8
tp522
a(S'w'
I3
tp523
a(S'p2_ll'
I1
tp524
a(S'p2_th'
I1
tp525
a(S'p2_ll'
I1
tp526
a(S'w'
I2
tp527
a(S'p2_tl'
I46
tp528
a(S'w'
I28
tp529
a(S'no_vo'
I9
tp530
a(S'w'
I3
tp531
a(S'no_ll'
I1
tp532
a(S'no_ll'
I1
tp533
a(S'w'
I2
tp534
a(S'no_np'
I3
tp535
a(S'w'
I686
tp536
a(S'p1_vo'
I4
tp537
a(S'w'
I4
tp538
a(S'p1_tl'
I179
tp539
a(S'w'
I9
tp540
a(S'p2_vo'
I7
tp541
a(S'w'
I14
tp542
a(S'no_vo'
I2
tp543
a(S'w'
I3
tp544
a(S'no_ll'
I1
tp545
a(S'no_ll'
I1
tp546
a(S'w'
I2
tp547
a(S'no_np'
I1
tp548
a(S'w'
I693
tp549
a(S'p1_vo'
I3
tp550
a(S'w'
I19
tp551
a(S'no_vo'
I1
tp552
a(S'w'
I3
tp553
a(S'no_ll'
I1
tp554
a(S'no_ll'
I1
tp555
a(S'w'
I1
tp556
a(S'w'
I716
tp557
a(S'p2_vo'
I6
tp558
a(S'w'
I17
tp559
a(S'no_vo'
I0
tp560
a(S'w'
I716
tp561
a(S'p2_vo'
I5
tp562
a(S'w'
I747
tp563
a(S'p2_vo'
I8
tp564
a(S'w'
I4
tp565
a(S'p2_tl'
I197
tp566
a(S'w'
I29
tp567
a(S'no_vo'
I9
tp568
a(S'w'
I3
tp569
a(S'no_ll'
I1
tp570
a(S'no_ll'
I1
tp571
a(S'w'
I2
tp572
a(S'no_np'
I3
tp573
a(S'w'
I687
tp574
a(S'p1_vo'
I4
tp575
a(S'w'
I5
tp576
a(S'p1_tl'
I89
tp577
a(S'w'
I8
tp578
a(S'p2_vo'
I7
tp579
a(S'w'
I15
tp580
a(S'no_vo'
I2
tp581
a(S'w'
I2
tp582
a(S'no_ll'
I1
tp583
a(S'w'
I1
tp584
a(S'no_ll'
I1
tp585
a(S'w'
I1
tp586
a(S'no_np'
I1
tp587
a(S'w'
I693
tp588
a(S'p1_vo'
I3
tp589
a(S'w'
I19
tp590
a(S'no_vo'
I1
tp591
a(S'w'
I3
tp592
a(S'no_ll'
I1
tp593
a(S'no_ll'
I1
tp594
a(S'w'
I1
tp595
a(S'w'
I716
tp596
a(S'p2_vo'
I6
tp597
a(S'w'
I17
tp598
a(S'no_vo'
I0
tp599
a(S'w'
I716
tp600
a(S'p2_vo'
I5
tp601
a(S'w'
I748
tp602
a(S'p2_vo'
I8
tp603
a(S'w'
I3
tp604
a(S'p2_ll'
I1
tp605
a(S'p2_th'
I0
tp606
a(S'p2_ll'
I1
tp607
a(S'w'
I2
tp608
a(S'p2_tl'
I226
tp609
a(S'w'
I719
tp610
a(S'p1_vo'
I4
tp611
a(S'w'
I3
tp612
a(S'p1_ll'
I1
tp613
a(S'p1_th'
I2
tp614
a(S'p1_ll'
I1
tp615
a(S'w'
I2
tp616
a(S'p1_tl'
I92
tp617
a(S'w'
I8
tp618
a(S'p2_vo'
I7
tp619
a(S'w'
I4
tp620
a(S'tr_lr'
I20
tp621
a(S'w'
I708
tp622
a(S'p1_vo'
I3
tp623
a(S'w'
I739
tp624
a(S'p2_vo'
I6
tp625
a(S'w'
I733
tp626
a(S'p2_vo'
I5
tp627
a(S'w'
I745
tp628
a(S'p2_vo'
I8
tp629
a(S'w'
I3
tp630
a(S'p2_ll'
I1
tp631
a(S'p2_th'
I1
tp632
a(S'p2_ll'
I1
tp633
a(S'w'
I2
tp634
a(S'p2_tl'
I148
tp635
a(S'w'
I29
tp636
a(S'no_vo'
I9
tp637
a(S'w'
I3
tp638
a(S'no_ll'
I1
tp639
a(S'no_ll'
I1
tp640
a(S'w'
I2
tp641
a(S'no_np'
I3
tp642
a(S'w'
I687
tp643
a(S'p1_vo'
I4
tp644
a(S'w'
I3
tp645
a(S'p1_ll'
I1
tp646
a(S'p1_th'
I1
tp647
a(S'p1_ll'
I1
tp648
a(S'w'
I2
tp649
a(S'p1_tl'
I45
tp650
a(S'w'
I9
tp651
a(S'p2_vo'
I7
tp652
a(S'w'
I14
tp653
a(S'no_vo'
I2
tp654
a(S'w'
I3
tp655
a(S'no_ll'
I1
tp656
a(S'no_ll'
I1
tp657
a(S'w'
I2
tp658
a(S'no_np'
I1
tp659
a(S'w'
I693
tp660
a(S'p1_vo'
I3
tp661
a(S'w'
I19
tp662
a(S'no_vo'
I1
tp663
a(S'w'
I3
tp664
a(S'no_ll'
I1
tp665
a(S'no_ll'
I1
tp666
a(S'w'
I1
tp667
a(S'w'
I716
tp668
a(S'p2_vo'
I6
tp669
a(S'w'
I17
tp670
a(S'no_vo'
I0
tp671
a(S'w'
I716
tp672
a(S'p2_vo'
I5
tp673
a(S'w'
I748
tp674
a(S'p2_vo'
I8
tp675
a(S'w'
I3
tp676
a(S'p2_ll'
I1
tp677
a(S'p2_th'
I0
tp678
a(S'p2_ll'
I1
tp679
a(S'w'
I2
tp680
a(S'p2_tl'
I202
tp681
a(S'w'
I718
tp682
a(S'p1_vo'
I4
tp683
a(S'w'
I4
tp684
a(S'p1_tl'
I196
tp685
a(S'w'
I8
tp686
a(S'p2_vo'
I7
tp687
a(S'w'
I714
tp688
a(S'p1_vo'
I3
tp689
a(S'w'
I739
tp690
a(S'p2_vo'
I6
tp691
a(S'w'
I733
tp692
a(S'p2_vo'
I5
tp693
a(S'w'
I748
tp694
a(S'p2_vo'
I8
tp695
a(S'w'
I3
tp696
a(S'p2_ll'
I1
tp697
a(S'p2_th'
I1
tp698
a(S'p2_ll'
I1
tp699
a(S'w'
I2
tp700
a(S'p2_tl'
I83
tp701
a(S'w'
I13
tp702
a(S'tr_lr'
I84
tp703
a(S'w'
I3
tp704
a(S'tr_ll'
I1
tp705
a(S'tr_ll'
I1
tp706
a(S'w'
I10
tp707
a(S'ch_no'
I1
tp708
a(S'ch_tr'
I1
tp709
a(S'ch_p2'
I1
tp710
a(S'ch_p1'
I1
tp711
a(S'w'
I1
tp712
a(S'ch_no'
I1
tp713
a(S'ch_tr'
I1
tp714
a(S'ch_p2'
I1
tp715
a(S'ch_p1'
I1
tp716
a(S'w'
I692
tp717
a(S'p1_vo'
I4
tp718
a(S'w'
I3
tp719
a(S'p1_ll'
I1
tp720
a(S'p1_th'
I0
tp721
a(S'p1_ll'
I1
tp722
a(S'w'
I2
tp723
a(S'p1_tl'
I225
tp724
a(S'w'
I9
tp725
a(S'p2_vo'
I7
tp726
a(S'w'
I712
tp727
a(S'p1_vo'
I3
tp728
a(S'w'
I739
tp729
a(S'p2_vo'
I6
tp730
a(S'w'
I732
tp731
a(S'p2_vo'
I5
tp732
a(S'w'
I748
tp733
a(S'p2_vo'
I8
tp734
a(S'w'
I3
tp735
a(S'p2_ll'
I1
tp736
a(S'p2_th'
I0
tp737
a(S'p2_ll'
I1
tp738
a(S'w'
I2
tp739
a(S'p2_tl'
I170
tp740
a(S'w'
I715
tp741
a(S'p1_vo'
I4
tp742
a(S'w'
I4
tp743
a(S'p1_ll'
I1
tp744
a(S'p1_th'
I1
tp745
a(S'p1_ll'
I1
tp746
a(S'w'
I2
tp747
a(S'p1_tl'
I147
tp748
a(S'w'
I8
tp749
a(S'p2_vo'
I7
tp750
a(S'w'
I715
tp751
a(S'p1_vo'
I3
tp752
a(S'w'
I739
tp753
a(S'p2_vo'
I6
tp754
a(S'w'
I733
tp755
a(S'p2_vo'
I5
tp756
a(S'w'
I748
tp757
a(S'p2_vo'
I8
tp758
a(S'w'
I3
tp759
a(S'p2_ll'
I1
tp760
a(S'p2_th'
I1
tp761
a(S'p2_ll'
I1
tp762
a(S'w'
I2
tp763
a(S'p2_tl'
I13
tp764
a(S'w'
I29
tp765
a(S'no_vo'
I9
tp766
a(S'w'
I3
tp767
a(S'no_ll'
I1
tp768
a(S'no_ll'
I1
tp769
a(S'w'
I1
tp770
a(S'no_np'
I3
tp771
a(S'w'
I685
tp772
a(S'p1_vo'
I4
tp773
a(S'w'
I4
tp774
a(S'p1_ll'
I1
tp775
a(S'p1_th'
I0
tp776
a(S'p1_ll'
I1
tp777
a(S'w'
I2
tp778
a(S'p1_tl'
I201
tp779
a(S'w'
I8
tp780
a(S'p2_vo'
I7
tp781
a(S'w'
I14
tp782
a(S'no_vo'
I2
tp783
a(S'w'
I3
tp784
a(S'no_ll'
I1
tp785
a(S'no_ll'
I1
tp786
a(S'w'
I2
tp787
a(S'no_np'
I1
tp788
a(S'w'
I693
tp789
a(S'p1_vo'
I3
tp790
a(S'w'
I19
tp791
a(S'no_vo'
I1
tp792
a(S'w'
I3
tp793
a(S'no_ll'
I1
tp794
a(S'no_ll'
I1
tp795
a(S'w'
I1
tp796
a(S'w'
I716
tp797
a(S'p2_vo'
I6
tp798
a(S'w'
I17
tp799
a(S'no_vo'
I0
tp800
a(S'w'
I716
tp801
a(S'p2_vo'
I5
tp802
a(S'w'
I747
tp803
a(S'p2_vo'
I8
tp804
a(S'w'
I3
tp805
a(S'p2_ll'
I1
tp806
a(S'p2_th'
I0
tp807
a(S'p2_ll'
I1
tp808
a(S'w'
I2
tp809
a(S'p2_tl'
I135
tp810
a(S'w'
I719
tp811
a(S'p1_vo'
I4
tp812
a(S'w'
I3
tp813
a(S'p1_ll'
I1
tp814
a(S'p1_th'
I1
tp815
a(S'p1_ll'
I1
tp816
a(S'w'
I2
tp817
a(S'p1_tl'
I82
tp818
a(S'w'
I9
tp819
a(S'p2_vo'
I7
tp820
a(S'w'
I4
tp821
a(S'tr_lr'
I20
tp822
a(S'w'
I708
tp823
a(S'p1_vo'
I3
tp824
a(S'w'
I739
tp825
a(S'p2_vo'
I6
tp826
a(S'w'
I733
tp827
a(S'p2_vo'
I5
tp828
a(S'w'
I747
tp829
a(S'p2_vo'
I8
tp830
a(S'w'
I4
tp831
a(S'p2_tl'
I226
tp832
a(S'w'
I29
tp833
a(S'no_vo'
I9
tp834
a(S'w'
I3
tp835
a(S'no_ll'
I1
tp836
a(S'no_ll'
I1
tp837
a(S'w'
I1
tp838
a(S'no_np'
I3
tp839
a(S'w'
I687
tp840
a(S'p1_vo'
I4
tp841
a(S'w'
I4
tp842
a(S'p1_ll'
I1
tp843
a(S'p1_th'
I0
tp844
a(S'p1_ll'
I1
tp845
a(S'w'
I1
tp846
a(S'p1_tl'
I169
tp847
a(S'w'
I9
tp848
a(S'p2_vo'
I7
tp849
a(S'w'
I14
tp850
a(S'no_vo'
I2
tp851
a(S'w'
I3
tp852
a(S'no_ll'
I1
tp853
a(S'no_ll'
I1
tp854
a(S'w'
I2
tp855
a(S'no_np'
I1
tp856
a(S'w'
I693
tp857
a(S'p1_vo'
I3
tp858
a(S'w'
I19
tp859
a(S'no_vo'
I1
tp860
a(S'w'
I3
tp861
a(S'no_ll'
I1
tp862
a(S'no_ll'
I1
tp863
a(S'w'
I1
tp864
a(S'w'
I716
tp865
a(S'p2_vo'
I6
tp866
a(S'w'
I17
tp867
a(S'no_vo'
I0
tp868
a(S'w'
I716
tp869
a(S'p2_vo'
I5
tp870
a(S'w'
I747
tp871
a(S'p2_vo'
I8
tp872
a(S'w'
I4
tp873
a(S'p2_tl'
I113
tp874
a(S'w'
I720
tp875
a(S'p1_vo'
I4
tp876
a(S'w'
I3
tp877
a(S'p1_ll'
I1
tp878
a(S'p1_th'
I1
tp879
a(S'p1_ll'
I1
tp880
a(S'w'
I2
tp881
a(S'p1_tl'
I12
tp882
a(S'w'
I9
tp883
a(S'p2_vo'
I7
tp884
a(S'w'
I712
tp885
a(S'p1_vo'
I3
tp886
a(S'w'
I739
tp887
a(S'p2_vo'
I6
tp888
a(S'w'
I733
tp889
a(S'p2_vo'
I5
tp890
a(S'w'
I744
tp891
a(S'p2_vo'
I8
tp892
a(S'w'
I4
tp893
a(S'p2_tl'
I202
tp894
a(S'w'
I12
tp895
a(S'tr_lr'
I56
tp896
a(S'w'
I3
tp897
a(S'tr_ll'
I1
tp898
a(S'tr_ll'
I1
tp899
a(S'w'
I10
tp900
a(S'ch_no'
I1
tp901
a(S'ch_tr'
I1
tp902
a(S'ch_p2'
I1
tp903
a(S'ch_p1'
I1
tp904
a(S'w'
I1
tp905
a(S'ch_no'
I1
tp906
a(S'ch_tr'
I1
tp907
a(S'ch_p2'
I1
tp908
a(S'ch_p1'
I1
tp909
a(S'w'
I698
tp910
a(S'p1_vo'
I4
tp911
a(S'w'
I4
tp912
a(S'p1_ll'
I1
tp913
a(S'p1_th'
I0
tp914
a(S'p1_ll'
I1
tp915
a(S'w'
I2
tp916
a(S'p1_tl'
I134
tp917
a(S'w'
I8
tp918
a(S'p2_vo'
I7
tp919
a(S'w'
I712
tp920
a(S'p1_vo'
I3
tp921
a(S'w'
I739
tp922
a(S'p2_vo'
I6
tp923
a(S'w'
I733
tp924
a(S'p2_vo'
I5
tp925
a(S'w'
I748
tp926
a(S'p2_vo'
I8
tp927
a(S'w'
I4
tp928
a(S'p2_tl'
I101
tp929
a(S'w'
I719
tp930
a(S'p1_vo'
I4
tp931
a(S'w'
I4
tp932
a(S'p1_tl'
I225
tp933
a(S'w'
I9
tp934
a(S'p2_vo'
I7
tp935
a(S'w'
I713
tp936
a(S'p1_vo'
I3
tp937
a(S'w'
I739
tp938
a(S'p2_vo'
I6
tp939
a(S'w'
I732
tp940
a(S'p2_vo'
I5
tp941
a(S'w'
I748
tp942
a(S'p2_vo'
I8
tp943
a(S'w'
I4
tp944
a(S'p2_tl'
I170
tp945
a(S'w'
I12
tp946
a(S'ch_no'
I1
tp947
a(S'ch_tr'
I1
tp948
a(S'ch_p2'
I1
tp949
a(S'ch_p1'
I1
tp950
a(S'w'
I1
tp951
a(S'ch_no'
I1
tp952
a(S'ch_tr'
I1
tp953
a(S'ch_p2'
I1
tp954
a(S'ch_p1'
I1
tp955
a(S'w'
I707
tp956
a(S'p1_vo'
I4
tp957
a(S'w'
I4
tp958
a(S'p1_tl'
I112
tp959
a(S'w'
I9
tp960
a(S'p2_vo'
I7
tp961
a(S'w'
I713
tp962
a(S'p1_vo'
I3
tp963
a(S'w'
I739
tp964
a(S'p2_vo'
I6
tp965
a(S'w'
I732
tp966
a(S'p2_vo'
I5
tp967
a(S'w'
I748
tp968
a(S'p2_vo'
I8
tp969
a(S'w'
I4
tp970
a(S'p2_tl'
I85
tp971
a(S'w'
I723
tp972
a(S'p1_vo'
I4
tp973
a(S'w'
I4
tp974
a(S'p1_tl'
I201
tp975
a(S'w'
I9
tp976
a(S'p2_vo'
I7
tp977
a(S'w'
I710
tp978
a(S'p1_vo'
I3
tp979
a(S'w'
I739
tp980
a(S'p2_vo'
I6
tp981
a(S'w'
I732
tp982
a(S'p2_vo'
I5
tp983
a(S'w'
I746
tp984
a(S'p1_vo'
I4
tp985
a(S'w'
I4
tp986
a(S'p1_tl'
I179
tp987
a(S'w'
I29
tp988
a(S'p2_vo'
I8
tp989
a(S'w'
I4
tp990
a(S'p2_tl'
I180
tp991
a(S'w'
I17
tp992
a(S'tr_lr'
I42
tp993
a(S'w'
I2
tp994
a(S'tr_ll'
I1
tp995
a(S'tr_th'
I1
tp996
a(S'w'
I1
tp997
a(S'tr_ll'
I1
tp998
a(S'w'
I1
tp999
a(S'tr_tl'
I197
tp1000
a(S'w'
I10
tp1001
a(S'ch_no'
I1
tp1002
a(S'ch_tr'
I1
tp1003
a(S'ch_p2'
I1
tp1004
a(S'ch_p1'
I1
tp1005
a(S'w'
I1
tp1006
a(S'ch_no'
I1
tp1007
a(S'ch_tr'
I1
tp1008
a(S'ch_p2'
I1
tp1009
a(S'ch_p1'
I1
tp1010
a(S'w'
I649
tp1011
a(S'p1_vo'
I3
tp1012
a(S'w'
I8
tp1013
a(S'p2_vo'
I7
tp1014
a(S'w'
I1465
tp1015
a(S'p2_vo'
I6
tp1016
a(S'w'
I731
tp1017
a(S'p2_vo'
I5
tp1018
a(S'w'
I748
tp1019
a(S'p2_vo'
I8
tp1020
a(S'w'
I4
tp1021
a(S'p2_tl'
I226
tp1022
a(S'w'
I716
tp1023
a(S'p2_vo'
I7
tp1024
a(S'w'
I1469
tp1025
a(S'p2_vo'
I6
tp1026
a(S'w'
I732
tp1027
a(S'p2_vo'
I5
tp1028
a(S'w'
I745
tp1029
a(S'p2_vo'
I8
tp1030
a(S'w'
I3
tp1031
a(S'p2_ll'
I1
tp1032
a(S'p2_th'
I1
tp1033
a(S'p2_ll'
I1
tp1034
a(S'w'
I2
tp1035
a(S'p2_tl'
I46
tp1036
a(S'w'
I718
tp1037
a(S'p2_vo'
I7
tp1038
a(S'w'
I1468
tp1039
a(S'p2_vo'
I6
tp1040
a(S'w'
I733
tp1041
a(S'p2_vo'
I5
tp1042
a(S'w'
I738
tp1043
a(S'p1_vo'
I4
tp1044
a(S'w'
I4
tp1045
a(S'p1_tl'
I225
tp1046
a(S'w'
I22
tp1047
a(S'p2_vo'
I8
tp1048
a(S'w'
I3
tp1049
a(S'p2_ll'
I1
tp1050
a(S'p2_th'
I0
tp1051
a(S'p2_ll'
I1
tp1052
a(S'w'
I2
tp1053
a(S'p2_tl'
I170
tp1054
a(S'w'
I14
tp1055
a(S'tr_ll'
I1
tp1056
a(S'tr_ll'
I1
tp1057
a(S'w'
I11
tp1058
a(S'ch_no'
I1
tp1059
a(S'ch_tr'
I1
tp1060
a(S'ch_p2'
I1
tp1061
a(S'ch_p1'
I1
tp1062
a(S'w'
I1
tp1063
a(S'ch_no'
I1
tp1064
a(S'ch_tr'
I1
tp1065
a(S'ch_p2'
I1
tp1066
a(S'ch_p1'
I1
tp1067
a(S'w'
I670
tp1068
a(S'p1_vo'
I3
tp1069
a(S'w'
I8
tp1070
a(S'p2_vo'
I7
tp1071
a(S'w'
I1464
tp1072
a(S'p2_vo'
I6
tp1073
a(S'w'
I732
tp1074
a(S'p2_vo'
I5
tp1075
a(S'w'
I735
tp1076
a(S'p1_vo'
I4
tp1077
a(S'w'
I4
tp1078
a(S'p1_ll'
I1
tp1079
a(S'p1_th'
I1
tp1080
a(S'p1_ll'
I1
tp1081
a(S'w'
I1
tp1082
a(S'p1_tl'
I45
tp1083
a(S'w'
I20
tp1084
a(S'p2_vo'
I8
tp1085
a(S'w'
I4
tp1086
a(S'p2_tl'
I202
tp1087
a(S'w'
I700
tp1088
a(S'p1_vo'
I3
tp1089
a(S'w'
I8
tp1090
a(S'p2_vo'
I7
tp1091
a(S'w'
I1464
tp1092
a(S'p2_vo'
I6
tp1093
a(S'w'
I733
tp1094
a(S'p2_vo'
I5
tp1095
a(S'w'
I738
tp1096
a(S'p1_vo'
I4
tp1097
a(S'w'
I4
tp1098
a(S'p1_ll'
I1
tp1099
a(S'p1_th'
I0
tp1100
a(S'p1_ll'
I1
tp1101
a(S'w'
I1
tp1102
a(S'p1_tl'
I169
tp1103
a(S'w'
I22
tp1104
a(S'p2_vo'
I8
tp1105
a(S'w'
I4
tp1106
a(S'p2_tl'
I254
tp1107
a(S'w'
I695
tp1108
a(S'p1_vo'
I3
tp1109
a(S'w'
I8
tp1110
a(S'p2_vo'
I7
tp1111
a(S'w'
I1464
tp1112
a(S'p2_vo'
I6
tp1113
a(S'w'
I733
tp1114
a(S'p2_vo'
I5
tp1115
a(S'w'
I735
tp1116
a(S'p1_vo'
I4
tp1117
a(S'w'
I5
tp1118
a(S'p1_tl'
I201
tp1119
a(S'w'
I22
tp1120
a(S'p2_vo'
I8
tp1121
a(S'w'
I4
tp1122
a(S'p2_tl'
I180
tp1123
a(S'w'
I10
tp1124
a(S'tr_lr'
I28
tp1125
a(S'w'
I3
tp1126
a(S'tr_ll'
I1
tp1127
a(S'tr_ll'
I1
tp1128
a(S'w'
I10
tp1129
a(S'ch_no'
I1
tp1130
a(S'ch_tr'
I1
tp1131
a(S'ch_p2'
I1
tp1132
a(S'ch_p1'
I1
tp1133
a(S'w'
I1
tp1134
a(S'ch_no'
I1
tp1135
a(S'ch_tr'
I1
tp1136
a(S'ch_p2'
I1
tp1137
a(S'ch_p1'
I1
tp1138
a(S'w'
I675
tp1139
a(S'p1_vo'
I3
tp1140
a(S'w'
I8
tp1141
a(S'p2_vo'
I7
tp1142
a(S'w'
I1464
tp1143
a(S'p2_vo'
I6
tp1144
a(S'w'
I733
tp1145
a(S'p2_vo'
I5
tp1146
a(S'w'
I738
tp1147
a(S'p1_vo'
I4
tp1148
a(S'w'
I4
tp1149
a(S'p1_tl'
I253
tp1150
a(S'w'
I22
tp1151
a(S'p2_vo'
I8
tp1152
a(S'w'
I4
tp1153
a(S'p2_tl'
I226
tp1154
a(S'w'
I29
tp1155
a(S'no_vo'
I9
tp1156
a(S'w'
I3
tp1157
a(S'no_ll'
I1
tp1158
a(S'no_ll'
I1
tp1159
a(S'w'
I1
tp1160
a(S'no_np'
I3
tp1161
a(S'w'
I663
tp1162
a(S'p1_vo'
I3
tp1163
a(S'w'
I8
tp1164
a(S'p2_vo'
I7
tp1165
a(S'w'
I14
tp1166
a(S'no_vo'
I2
tp1167
a(S'w'
I3
tp1168
a(S'no_ll'
I1
tp1169
a(S'no_ll'
I1
tp1170
a(S'w'
I2
tp1171
a(S'no_np'
I1
tp1172
a(S'w'
I722
tp1173
a(S'no_vo'
I1
tp1174
a(S'w'
I2
tp1175
a(S'no_ll'
I1
tp1176
a(S'w'
I1
tp1177
a(S'no_ll'
I1
tp1178
a(S'w'
I1
tp1179
a(S'w'
I719
tp1180
a(S'p2_vo'
I6
tp1181
a(S'w'
I17
tp1182
a(S'no_vo'
I0
tp1183
a(S'w'
I716
tp1184
a(S'p2_vo'
I5
tp1185
a(S'w'
I738
tp1186
a(S'p1_vo'
I4
tp1187
a(S'w'
I4
tp1188
a(S'p1_tl'
I179
tp1189
a(S'w'
I23
tp1190
a(S'p2_vo'
I8
tp1191
a(S'w'
I3
tp1192
a(S'p2_tl'
I202
tp1193
a(S'w'
I12
tp1194
a(S'tr_lr'
I42
tp1195
a(S'w'
I2
tp1196
a(S'tr_ll'
I1
tp1197
a(S'w'
I1
tp1198
a(S'tr_ll'
I1
tp1199
a(S'w'
I1
tp1200
a(S'tr_tl'
I252
tp1201
a(S'w'
I9
tp1202
a(S'ch_no'
I1
tp1203
a(S'ch_tr'
I1
tp1204
a(S'ch_p2'
I1
tp1205
a(S'ch_p1'
I1
tp1206
a(S'w'
I1
tp1207
a(S'ch_no'
I1
tp1208
a(S'ch_tr'
I1
tp1209
a(S'ch_p2'
I1
tp1210
a(S'ch_p1'
I1
tp1211
a(S'w'
I670
tp1212
a(S'p1_vo'
I3
tp1213
a(S'w'
I8
tp1214
a(S'p2_vo'
I7
tp1215
a(S'w'
I1464
tp1216
a(S'p2_vo'
I6
tp1217
a(S'w'
I732
tp1218
a(S'p2_vo'
I5
tp1219
a(S'w'
I738
tp1220
a(S'p1_vo'
I4
tp1221
a(S'w'
I4
tp1222
a(S'p1_tl'
I225
tp1223
a(S'w'
I22
tp1224
a(S'p2_vo'
I8
tp1225
a(S'w'
I4
tp1226
a(S'p2_tl'
I254
tp1227
a(S'w'
I696
tp1228
a(S'p1_vo'
I3
tp1229
a(S'w'
I8
tp1230
a(S'p2_vo'
I7
tp1231
a(S'w'
I1464
tp1232
a(S'p2_vo'
I6
tp1233
a(S'w'
I733
tp1234
a(S'p2_vo'
I5
tp1235
a(S'w'
I738
tp1236
a(S'p1_vo'
I4
tp1237
a(S'w'
I4
tp1238
a(S'p1_tl'
I201
tp1239
a(S'w'
I20
tp1240
a(S'p2_vo'
I8
tp1241
a(S'w'
I3
tp1242
a(S'p2_ll'
I1
tp1243
a(S'p2_th'
I1
tp1244
a(S'p2_ll'
I1
tp1245
a(S'w'
I1
tp1246
a(S'p2_tl'
I83
tp1247
a(S'w'
I698
tp1248
a(S'p1_vo'
I3
tp1249
a(S'w'
I8
tp1250
a(S'p2_vo'
I7
tp1251
a(S'w'
I1464
tp1252
a(S'p2_vo'
I6
tp1253
a(S'w'
I733
tp1254
a(S'p2_vo'
I5
tp1255
a(S'w'
I738
tp1256
a(S'p1_vo'
I4
tp1257
a(S'w'
I4
tp1258
a(S'p1_tl'
I253
tp1259
a(S'w'
I22
tp1260
a(S'p2_vo'
I8
tp1261
a(S'w'
I3
tp1262
a(S'p2_ll'
I1
tp1263
a(S'p2_th'
I0
tp1264
a(S'p2_ll'
I1
tp1265
a(S'w'
I2
tp1266
a(S'p2_tl'
I170
tp1267
a(S'w'
I14
tp1268
a(S'tr_ll'
I1
tp1269
a(S'tr_ll'
I1
tp1270
a(S'w'
I11
tp1271
a(S'ch_no'
I1
tp1272
a(S'ch_tr'
I1
tp1273
a(S'ch_p2'
I1
tp1274
a(S'ch_p1'
I1
tp1275
a(S'w'
I1
tp1276
a(S'ch_no'
I1
tp1277
a(S'ch_tr'
I1
tp1278
a(S'ch_p2'
I1
tp1279
a(S'ch_p1'
I1
tp1280
a(S'w'
I670
tp1281
a(S'p1_vo'
I3
tp1282
a(S'w'
I8
tp1283
a(S'p2_vo'
I7
tp1284
a(S'w'
I1464
tp1285
a(S'p2_vo'
I6
tp1286
a(S'w'
I732
tp1287
a(S'p2_vo'
I5
tp1288
a(S'w'
I735
tp1289
a(S'p1_vo'
I4
tp1290
a(S'w'
I4
tp1291
a(S'p1_ll'
I1
tp1292
a(S'p1_th'
I1
tp1293
a(S'p1_ll'
I1
tp1294
a(S'w'
I2
tp1295
a(S'p1_tl'
I82
tp1296
a(S'w'
I19
tp1297
a(S'p2_vo'
I8
tp1298
a(S'w'
I4
tp1299
a(S'p2_tl'
I202
tp1300
a(S'w'
I699
tp1301
a(S'p1_vo'
I3
tp1302
a(S'w'
I8
tp1303
a(S'p2_vo'
I7
tp1304
a(S'w'
I1465
tp1305
a(S'p2_vo'
I6
tp1306
a(S'w'
I733
tp1307
a(S'p2_vo'
I5
tp1308
a(S'w'
I738
tp1309
a(S'p1_vo'
I4
tp1310
a(S'w'
I4
tp1311
a(S'p1_ll'
I1
tp1312
a(S'p1_th'
I0
tp1313
a(S'p1_ll'
I1
tp1314
a(S'w'
I2
tp1315
a(S'p1_tl'
I169
tp1316
a(S'w'
I21
tp1317
a(S'p2_vo'
I8
tp1318
a(S'w'
I4
tp1319
a(S'p2_tl'
I254
tp1320
a(S'w'
I694
tp1321
a(S'p1_vo'
I3
tp1322
a(S'w'
I8
tp1323
a(S'p2_vo'
I7
tp1324
a(S'w'
I1465
tp1325
a(S'p2_vo'
I6
tp1326
a(S'w'
I733
tp1327
a(S'p2_vo'
I5
tp1328
a(S'w'
I735
tp1329
a(S'p1_vo'
I4
tp1330
a(S'w'
I5
tp1331
a(S'p1_tl'
I201
tp1332
a(S'w'
I22
tp1333
a(S'p2_vo'
I8
tp1334
a(S'w'
I4
tp1335
a(S'p2_tl'
I135
tp1336
a(S'w'
I10
tp1337
a(S'tr_lr'
I28
tp1338
a(S'w'
I3
tp1339
a(S'tr_ll'
I1
tp1340
a(S'tr_ll'
I1
tp1341
a(S'w'
I10
tp1342
a(S'ch_no'
I1
tp1343
a(S'ch_tr'
I1
tp1344
a(S'ch_p2'
I1
tp1345
a(S'ch_p1'
I1
tp1346
a(S'w'
I1
tp1347
a(S'ch_no'
I1
tp1348
a(S'ch_tr'
I1
tp1349
a(S'ch_p2'
I1
tp1350
a(S'ch_p1'
I1
tp1351
a(S'w'
I674
tp1352
a(S'p1_vo'
I3
tp1353
a(S'w'
I8
tp1354
a(S'p2_vo'
I7
tp1355
a(S'w'
I1465
tp1356
a(S'p2_vo'
I6
tp1357
a(S'w'
I733
tp1358
a(S'p2_vo'
I5
tp1359
a(S'w'
I738
tp1360
a(S'p1_vo'
I4
tp1361
a(S'w'
I4
tp1362
a(S'p1_tl'
I253
tp1363
a(S'w'
I20
tp1364
a(S'p2_vo'
I8
tp1365
a(S'w'
I3
tp1366
a(S'p2_tl'
I170
tp1367
a(S'w'
I12
tp1368
a(S'ch_no'
I1
tp1369
a(S'ch_tr'
I1
tp1370
a(S'ch_p2'
I1
tp1371
a(S'ch_p1'
I1
tp1372
a(S'w'
I1
tp1373
a(S'ch_no'
I1
tp1374
a(S'ch_tr'
I1
tp1375
a(S'ch_p2'
I1
tp1376
a(S'ch_p1'
I1
tp1377
a(S'w'
I685
tp1378
a(S'p1_vo'
I3
tp1379
a(S'w'
I8
tp1380
a(S'p2_vo'
I7
tp1381
a(S'w'
I1465
tp1382
a(S'p2_vo'
I6
tp1383
a(S'w'
I732
tp1384
a(S'p2_vo'
I5
tp1385
a(S'w'
I761
tp1386
a(S'p1_vo'
I4
tp1387
a(S'w'
I4
tp1388
a(S'p1_tl'
I112
tp1389
a(S'w'
I27
tp1390
a(S'p2_vo'
I9
tp1391
a(S'w'
I4
tp1392
a(S'p2_tl'
I113
tp1393
a(S'w'
I13
tp1394
a(S'tr_ll'
I1
tp1395
a(S'tr_ll'
I1
tp1396
a(S'w'
I2
tp1397
a(S'tr_tl'
I197
tp1398
a(S'w'
I8
tp1399
a(S'ch_no'
I1
tp1400
a(S'ch_tr'
I1
tp1401
a(S'ch_p2'
I1
tp1402
a(S'ch_p1'
I1
tp1403
a(S'w'
I1
tp1404
a(S'ch_no'
I1
tp1405
a(S'ch_tr'
I1
tp1406
a(S'ch_p2'
I1
tp1407
a(S'ch_p1'
I1
tp1408
a(S'w'
I644
tp1409
a(S'p1_vo'
I3
tp1410
a(S'w'
I8
tp1411
a(S'p2_vo'
I8
tp1412
a(S'w'
I726
tp1413
a(S'p1_vo'
I2
tp1414
a(S'w'
I8
tp1415
a(S'p2_vo'
I7
tp1416
a(S'w'
I727
tp1417
a(S'p1_vo'
I1
tp1418
a(S'w'
I8
tp1419
a(S'p2_vo'
I6
tp1420
a(S'w'
I732
tp1421
a(S'p2_vo'
I5
tp1422
a(S'w'
I737
tp1423
a(S'p1_vo'
I4
tp1424
a(S'w'
I5
tp1425
a(S'w'
I19
tp1426
a(S'p2_vo'
I9
tp1427
a(S'w'
I4
tp1428
a(S'w'
I11
tp1429
a(S'ch_no'
I1
tp1430
a(S'ch_tr'
I1
tp1431
a(S'ch_p2'
I1
tp1432
a(S'ch_p1'
I1
tp1433
a(S'w'
I1
tp1434
a(S'ch_no'
I1
tp1435
a(S'ch_tr'
I1
tp1436
a(S'ch_p2'
I1
tp1437
a(S'ch_p1'
I1
tp1438
a(S'w'
I683
tp1439
a(S'p1_vo'
I3
tp1440
a(S'w'
I8
tp1441
a(S'p2_vo'
I8
tp1442
a(S'w'
I726
tp1443
a(S'p1_vo'
I2
tp1444
a(S'w'
I8
tp1445
a(S'p2_vo'
I7
tp1446
a(S'w'
I727
tp1447
a(S'p1_vo'
I1
tp1448
a(S'w'
I8
tp1449
a(S'p2_vo'
I6
tp1450
a(S'w'
I732
tp1451
a(S'p2_vo'
I5
tp1452
a(S'w'
I737
tp1453
a(S'p1_vo'
I4
tp1454
a(S'w'
I4
tp1455
a(S'w'
I20
tp1456
a(S'p2_vo'
I9
tp1457
a(S'w'
I4
tp1458
a(S'w'
I13
tp1459
a(S'tr_ll'
I1
tp1460
a(S'tr_ll'
I1
tp1461
a(S'w'
I10
tp1462
a(S'ch_no'
I1
tp1463
a(S'ch_tr'
I1
tp1464
a(S'ch_p2'
I1
tp1465
a(S'ch_p1'
I1
tp1466
a(S'w'
I1
tp1467
a(S'ch_no'
I1
tp1468
a(S'ch_tr'
I1
tp1469
a(S'ch_p2'
I1
tp1470
a(S'ch_p1'
I1
tp1471
a(S'w'
I671
tp1472
a(S'p1_vo'
I3
tp1473
a(S'w'
I8
tp1474
a(S'p2_vo'
I8
tp1475
a(S'w'
I726
tp1476
a(S'p1_vo'
I2
tp1477
a(S'w'
I8
tp1478
a(S'p2_vo'
I7
tp1479
a(S'w'
I727
tp1480
a(S'p1_vo'
I1
tp1481
a(S'w'
I8
tp1482
a(S'p2_vo'
I6
tp1483
a(S'w'
I732
tp1484
a(S'p2_vo'
I5
tp1485
a(S'w'
I727
tp1486
a(S'p1_du'
I0
tp1487
a(S'p1_vo'
I0
tp1488
a(S'w'
I10
tp1489
a(S'p2_du'
I0
tp1490
a(S'p2_vo'
I0
tp1491
a(S'w'
I3669
tp1492
a(S'p1_du'
I2
tp1493
a(S'p1_vo'
I4
tp1494
a(S'w'
I5
tp1495
a(S'w'
I19
tp1496
a(S'p2_du'
I2
tp1497
a(S'p2_vo'
I9
tp1498
a(S'w'
I4
tp1499
a(S'w'
I13
tp1500
a(S'tr_ll'
I1
tp1501
a(S'tr_ll'
I1
tp1502
a(S'w'
I10
tp1503
a(S'ch_no'
I1
tp1504
a(S'ch_tr'
I1
tp1505
a(S'ch_p2'
I1
tp1506
a(S'ch_p1'
I1
tp1507
a(S'w'
I1
tp1508
a(S'ch_no'
I1
tp1509
a(S'ch_tr'
I1
tp1510
a(S'ch_p2'
I1
tp1511
a(S'ch_p1'
I1
tp1512
a(S'w'
I671
tp1513
a(S'p1_vo'
I3
tp1514
a(S'w'
I8
tp1515
a(S'p2_vo'
I8
tp1516
a(S'w'
I726
tp1517
a(S'p1_vo'
I2
tp1518
a(S'w'
I8
tp1519
a(S'p2_vo'
I7
tp1520
a(S'w'
I727
tp1521
a(S'p1_vo'
I1
tp1522
a(S'w'
I8
tp1523
a(S'p2_vo'
I6
tp1524
a(S'w'
I732
tp1525
a(S'p2_vo'
I5
tp1526
a(S'w'
I737
tp1527
a(S'p1_vo'
I4
tp1528
a(S'w'
I5
tp1529
a(S'w'
I19
tp1530
a(S'p2_vo'
I9
tp1531
a(S'w'
I4
tp1532
a(S'w'
I11
tp1533
a(S'ch_no'
I1
tp1534
a(S'ch_tr'
I1
tp1535
a(S'ch_p2'
I1
tp1536
a(S'ch_p1'
I1
tp1537
a(S'w'
I1
tp1538
a(S'ch_no'
I1
tp1539
a(S'ch_tr'
I1
tp1540
a(S'ch_p2'
I1
tp1541
a(S'ch_p1'
I1
tp1542
a(S'w'
I683
tp1543
a(S'p1_vo'
I3
tp1544
a(S'w'
I8
tp1545
a(S'p2_vo'
I8
tp1546
a(S'w'
I726
tp1547
a(S'p1_vo'
I2
tp1548
a(S'w'
I8
tp1549
a(S'p2_vo'
I7
tp1550
a(S'w'
I727
tp1551
a(S'p1_vo'
I1
tp1552
a(S'w'
I8
tp1553
a(S'p2_vo'
I6
tp1554
a(S'w'
I731
tp1555
a(S'p2_vo'
I5
tp1556
a(S'w'
I738
tp1557
a(S'p1_vo'
I4
tp1558
a(S'w'
I5
tp1559
a(S'w'
I19
tp1560
a(S'p2_vo'
I9
tp1561
a(S'w'
I4
tp1562
a(S'w'
I10
tp1563
a(S'tr_lr'
I14
tp1564
a(S'w'
I3
tp1565
a(S'tr_ll'
I1
tp1566
a(S'tr_ll'
I1
tp1567
a(S'w'
I9
tp1568
a(S'ch_no'
I1
tp1569
a(S'ch_tr'
I1
tp1570
a(S'ch_p2'
I1
tp1571
a(S'ch_p1'
I1
tp1572
a(S'w'
I1
tp1573
a(S'ch_no'
I1
tp1574
a(S'ch_tr'
I1
tp1575
a(S'ch_p2'
I1
tp1576
a(S'ch_p1'
I1
tp1577
a(S'w'
I672
tp1578
a(S'p1_vo'
I3
tp1579
a(S'w'
I8
tp1580
a(S'p2_vo'
I8
tp1581
a(S'w'
I726
tp1582
a(S'p1_vo'
I2
tp1583
a(S'w'
I8
tp1584
a(S'p2_vo'
I7
tp1585
a(S'w'
I727
tp1586
a(S'p1_vo'
I1
tp1587
a(S'w'
I8
tp1588
a(S'p2_vo'
I6
tp1589
a(S'w'
I731
tp1590
a(S'p2_vo'
I5
tp1591
a(S'w'
I739
tp1592
a(S'p1_vo'
I4
tp1593
a(S'w'
I4
tp1594
a(S'w'
I20
tp1595
a(S'p2_vo'
I9
tp1596
a(S'w'
I4
tp1597
a(S'w'
I12
tp1598
a(S'tr_ll'
I1
tp1599
a(S'tr_ll'
I1
tp1600
a(S'w'
I10
tp1601
a(S'ch_no'
I1
tp1602
a(S'ch_tr'
I1
tp1603
a(S'ch_p2'
I1
tp1604
a(S'ch_p1'
I1
tp1605
a(S'w'
I1
tp1606
a(S'ch_no'
I1
tp1607
a(S'ch_tr'
I1
tp1608
a(S'ch_p2'
I1
tp1609
a(S'ch_p1'
I1
tp1610
a(S'w'
I671
tp1611
a(S'p1_vo'
I3
tp1612
a(S'w'
I8
tp1613
a(S'p2_vo'
I8
tp1614
a(S'w'
I726
tp1615
a(S'p1_vo'
I2
tp1616
a(S'w'
I8
tp1617
a(S'p2_vo'
I7
tp1618
a(S'w'
I726
tp1619
a(S'p1_vo'
I1
tp1620
a(S'w'
I8
tp1621
a(S'p2_vo'
I6
tp1622
a(S'w'
I732
tp1623
a(S'p2_vo'
I5
tp1624
a(S'w'
I736
tp1625
a(S'p2_vo'
I4
tp1626
a(S'w'
I9
tp1627
a(S'tr_lr'
I0
tp1628
a(S'w'
I723
tp1629
a(S'p2_vo'
I3
tp1630
a(S'w'
I734
tp1631
a(S'p2_vo'
I2
tp1632
a(S'w'
I734
tp1633
a(S'p2_vo'
I1
tp1634
a(S'w'
I1463
tp1635
a(S'p1_du'
I0
tp1636
a(S'p1_vo'
I0
tp1637
a(S'w'
I10
tp1638
a(S'p2_du'
I0
tp1639
a(S'p2_vo'
I0
tp1640
a(S'w'
I14689
tp1641
a(S'p1_du'
I2
tp1642
a(S'p1_vo'
I6
tp1643
a(S'w'
I4
tp1644
a(S'p1_ll'
I1
tp1645
a(S'p1_th'
I1
tp1646
a(S'p1_ll'
I1
tp1647
a(S'w'
I2
tp1648
a(S'p1_tl'
I194
tp1649
a(S'w'
I30
tp1650
a(S'p2_du'
I2
tp1651
a(S'p2_vo'
I9
tp1652
a(S'w'
I4
tp1653
a(S'p2_ll'
I1
tp1654
a(S'p2_th'
I1
tp1655
a(S'p2_ll'
I1
tp1656
a(S'w'
I1
tp1657
a(S'p2_tl'
I197
tp1658
a(S'w'
I20
tp1659
a(S'tr_lr'
I56
tp1660
a(S'w'
I3
tp1661
a(S'tr_ll'
I1
tp1662
a(S'tr_th'
I3
tp1663
a(S'tr_ll'
I1
tp1664
a(S'w'
I1
tp1665
a(S'tr_tl'
I138
tp1666
a(S'w'
I10
tp1667
a(S'ch_no'
I1
tp1668
a(S'ch_tr'
I1
tp1669
a(S'ch_p2'
I1
tp1670
a(S'ch_p1'
I1
tp1671
a(S'w'
I1
tp1672
a(S'ch_no'
I1
tp1673
a(S'ch_tr'
I1
tp1674
a(S'ch_p2'
I1
tp1675
a(S'ch_p1'
I1
tp1676
a(S'w'
I632
tp1677
a(S'p1_vo'
I5
tp1678
a(S'w'
I8
tp1679
a(S'p2_vo'
I8
tp1680
a(S'w'
I726
tp1681
a(S'p1_vo'
I4
tp1682
a(S'w'
I8
tp1683
a(S'p2_vo'
I7
tp1684
a(S'w'
I725
tp1685
a(S'p1_vo'
I3
tp1686
a(S'w'
I8
tp1687
a(S'p2_vo'
I6
tp1688
a(S'w'
I726
tp1689
a(S'p1_vo'
I2
tp1690
a(S'w'
I8
tp1691
a(S'p2_vo'
I5
tp1692
a(S'w'
I3662
tp1693
a(S'p1_vo'
I1
tp1694
a(S'w'
I8
tp1695
a(S'p2_vo'
I4
tp1696
a(S'w'
I732
tp1697
a(S'p2_vo'
I3
tp1698
a(S'w'
I734
tp1699
a(S'p2_vo'
I2
tp1700
a(S'w'
I733
tp1701
a(S'p2_vo'
I1
tp1702
a(S'w'
I5895
tp1703
a(S'p1_du'
I0
tp1704
a(S'p1_vo'
I0
tp1705
a(S'w'
I52
tp1706
a(S'p2_vo'
I6
tp1707
a(S'w'
I3
tp1708
a(S'p2_ll'
I1
tp1709
a(S'p2_th'
I0
tp1710
a(S'p2_ll'
I1
tp1711
a(S'w'
I2
tp1712
a(S'p2_tl'
I90
tp1713
a(S'w'
I10
tp1714
a(S'ch_no'
I1
tp1715
a(S'ch_tr'
I0
tp1716
a(S'ch_p2'
I1
tp1717
a(S'ch_p1'
I1
tp1718
a(S'tr_lr'
I0
tp1719
a(S'w'
I1
tp1720
a(S'ch_no'
I1
tp1721
a(S'ch_tr'
I1
tp1722
a(S'ch_p2'
I1
tp1723
a(S'ch_p1'
I1
tp1724
a(S'w'
I637
tp1725
a(S'p2_vo'
I5
tp1726
a(S'w'
I733
tp1727
a(S'p2_vo'
I4
tp1728
a(S'w'
I734
tp1729
a(S'p2_vo'
I3
tp1730
a(S'w'
I734
tp1731
a(S'p2_vo'
I2
tp1732
a(S'w'
I749
tp1733
a(S'p1_du'
I2
tp1734
a(S'p1_vo'
I1
tp1735
a(S'w'
I4
tp1736
a(S'p1_ll'
I1
tp1737
a(S'p1_th'
I0
tp1738
a(S'p1_ll'
I1
tp1739
a(S'w'
I2
tp1740
a(S'p1_tl'
I89
tp1741
a(S'w'
I8
tp1742
a(S'p2_vo'
I1
tp1743
a(S'w'
I1442
tp1744
a(S'p2_vo'
I0
tp1745
a(S'w'
I2194
tp1746
a(S'p1_vo'
I0
tp1747
a(S'w'
I18
tp1748
a(S'p2_vo'
I6
tp1749
a(S'w'
I4
tp1750
a(S'p2_tl'
I85
tp1751
a(S'w'
I718
tp1752
a(S'p2_vo'
I5
tp1753
a(S'w'
I735
tp1754
a(S'p2_vo'
I4
tp1755
a(S'w'
I731
tp1756
a(S'p2_vo'
I3
tp1757
a(S'w'
I734
tp1758
a(S'p2_vo'
I2
tp1759
a(S'w'
I741
tp1760
a(S'p1_vo'
I1
tp1761
a(S'w'
I4
tp1762
a(S'p1_tl'
I84
tp1763
a(S'w'
I8
tp1764
a(S'p2_vo'
I1
tp1765
a(S'w'
I1450
tp1766
a(S'p2_vo'
I0
tp1767
a(S'w'
I2195
tp1768
a(S'p1_vo'
I0
tp1769
a(S'w'
I20
tp1770
a(S'p2_vo'
I6
tp1771
a(S'w'
I4
tp1772
a(S'p2_tl'
I113
tp1773
a(S'w'
I715
tp1774
a(S'p2_vo'
I5
tp1775
a(S'w'
I736
tp1776
a(S'p2_vo'
I4
tp1777
a(S'w'
I731
tp1778
a(S'p2_vo'
I3
tp1779
a(S'w'
I734
tp1780
a(S'p2_vo'
I2
tp1781
a(S'w'
I743
tp1782
a(S'p1_vo'
I1
tp1783
a(S'w'
I4
tp1784
a(S'p1_tl'
I112
tp1785
a(S'w'
I9
tp1786
a(S'p2_vo'
I1
tp1787
a(S'w'
I1448
tp1788
a(S'p2_vo'
I0
tp1789
a(S'w'
I2194
tp1790
a(S'p1_vo'
I0
tp1791
a(S'w'
I18
tp1792
a(S'p2_vo'
I6
tp1793
a(S'w'
I3
tp1794
a(S'p2_tl'
I151
tp1795
a(S'w'
I718
tp1796
a(S'p2_vo'
I5
tp1797
a(S'w'
I736
tp1798
a(S'p2_vo'
I4
tp1799
a(S'w'
I731
tp1800
a(S'p2_vo'
I3
tp1801
a(S'w'
I734
tp1802
a(S'p2_vo'
I2
tp1803
a(S'w'
I740
tp1804
a(S'p1_vo'
I1
tp1805
a(S'w'
I5
tp1806
a(S'p1_tl'
I150
tp1807
a(S'w'
I8
tp1808
a(S'p2_vo'
I1
tp1809
a(S'w'
I1450
tp1810
a(S'p2_vo'
I0
tp1811
a(S'w'
I2194
tp1812
a(S'p1_vo'
I0
tp1813
a(S'w'
I21
tp1814
a(S'p2_vo'
I6
tp1815
a(S'w'
I3
tp1816
a(S'p2_tl'
I101
tp1817
a(S'w'
I716
tp1818
a(S'p2_vo'
I5
tp1819
a(S'w'
I736
tp1820
a(S'p2_vo'
I4
tp1821
a(S'w'
I731
tp1822
a(S'p2_vo'
I3
tp1823
a(S'w'
I734
tp1824
a(S'p2_vo'
I2
tp1825
a(S'w'
I742
tp1826
a(S'p1_vo'
I1
tp1827
a(S'w'
I5
tp1828
a(S'p1_tl'
I100
tp1829
a(S'w'
I8
tp1830
a(S'p2_vo'
I1
tp1831
a(S'w'
I1449
tp1832
a(S'p2_vo'
I0
tp1833
a(S'w'
I2193
tp1834
a(S'p1_vo'
I0
tp1835
a(S'w'
I18
tp1836
a(S'p2_vo'
I6
tp1837
a(S'w'
I4
tp1838
a(S'p2_tl'
I95
tp1839
a(S'w'
I718
tp1840
a(S'p2_vo'
I5
tp1841
a(S'w'
I736
tp1842
a(S'p2_vo'
I4
tp1843
a(S'w'
I731
tp1844
a(S'p2_vo'
I3
tp1845
a(S'w'
I734
tp1846
a(S'p2_vo'
I2
tp1847
a(S'w'
I740
tp1848
a(S'p1_vo'
I1
tp1849
a(S'w'
I4
tp1850
a(S'p1_tl'
I94
tp1851
a(S'w'
I8
tp1852
a(S'p2_vo'
I1
tp1853
a(S'w'
I1452
tp1854
a(S'p2_vo'
I0
tp1855
a(S'w'
I2193
tp1856
a(S'p1_vo'
I0
tp1857
a(S'w'
I20
tp1858
a(S'p2_vo'
I6
tp1859
a(S'w'
I4
tp1860
a(S'p2_tl'
I127
tp1861
a(S'w'
I716
tp1862
a(S'p2_vo'
I5
tp1863
a(S'w'
I736
tp1864
a(S'p2_vo'
I4
tp1865
a(S'w'
I731
tp1866
a(S'p2_vo'
I3
tp1867
a(S'w'
I733
tp1868
a(S'p2_vo'
I2
tp1869
a(S'w'
I743
tp1870
a(S'p1_vo'
I1
tp1871
a(S'w'
I4
tp1872
a(S'p1_tl'
I126
tp1873
a(S'w'
I9
tp1874
a(S'p2_vo'
I1
tp1875
a(S'w'
I1448
tp1876
a(S'p2_vo'
I0
tp1877
a(S'w'
I2194
tp1878
a(S'p1_vo'
I0
tp1879
a(S'w'
I18
tp1880
a(S'p2_vo'
I6
tp1881
a(S'w'
I3
tp1882
a(S'p2_tl'
I170
tp1883
a(S'w'
I719
tp1884
a(S'p2_vo'
I5
tp1885
a(S'w'
I736
tp1886
a(S'p2_vo'
I4
tp1887
a(S'w'
I731
tp1888
a(S'p2_vo'
I3
tp1889
a(S'w'
I733
tp1890
a(S'p2_vo'
I2
tp1891
a(S'w'
I740
tp1892
a(S'p1_vo'
I1
tp1893
a(S'w'
I5
tp1894
a(S'p1_tl'
I169
tp1895
a(S'w'
I8
tp1896
a(S'p2_vo'
I1
tp1897
a(S'w'
I1452
tp1898
a(S'p2_vo'
I0
tp1899
a(S'w'
I2193
tp1900
a(S'p1_vo'
I0
tp1901
a(S'w'
I30
tp1902
a(S'p2_vo'
I5
tp1903
a(S'w'
I3
tp1904
a(S'p2_tl'
I90
tp1905
a(S'w'
I707
tp1906
a(S'p2_vo'
I4
tp1907
a(S'w'
I736
tp1908
a(S'p2_vo'
I3
tp1909
a(S'w'
I731
tp1910
a(S'p2_vo'
I2
tp1911
a(S'w'
I733
tp1912
a(S'p2_vo'
I1
tp1913
a(S'w'
I752
tp1914
a(S'p1_vo'
I3
tp1915
a(S'w'
I5
tp1916
a(S'p1_tl'
I89
tp1917
a(S'w'
I707
tp1918
a(S'p1_vo'
I2
tp1919
a(S'w'
I734
tp1920
a(S'p1_vo'
I1
tp1921
a(S'w'
I7
tp1922
a(S'p2_vo'
I0
tp1923
a(S'w'
I2193
tp1924
a(S'p1_vo'
I0
tp1925
a(S'w'
I18
tp1926
a(S'p2_vo'
I5
tp1927
a(S'w'
I4
tp1928
a(S'p2_tl'
I85
tp1929
a(S'w'
I718
tp1930
a(S'p2_vo'
I4
tp1931
a(S'w'
I736
tp1932
a(S'p2_vo'
I3
tp1933
a(S'w'
I730
tp1934
a(S'p2_vo'
I2
tp1935
a(S'w'
I734
tp1936
a(S'p2_vo'
I1
tp1937
a(S'w'
I741
tp1938
a(S'p1_vo'
I3
tp1939
a(S'w'
I4
tp1940
a(S'p1_tl'
I84
tp1941
a(S'w'
I719
tp1942
a(S'p1_vo'
I2
tp1943
a(S'w'
I734
tp1944
a(S'p1_vo'
I1
tp1945
a(S'w'
I7
tp1946
a(S'p2_vo'
I0
tp1947
a(S'w'
I2193
tp1948
a(S'p1_vo'
I0
tp1949
a(S'w'
I20
tp1950
a(S'p2_vo'
I5
tp1951
a(S'w'
I4
tp1952
a(S'p2_tl'
I113
tp1953
a(S'w'
I716
tp1954
a(S'p2_vo'
I4
tp1955
a(S'w'
I736
tp1956
a(S'p2_vo'
I3
tp1957
a(S'w'
I730
tp1958
a(S'p2_vo'
I2
tp1959
a(S'w'
I734
tp1960
a(S'p2_vo'
I1
tp1961
a(S'w'
I743
tp1962
a(S'p1_vo'
I3
tp1963
a(S'w'
I4
tp1964
a(S'p1_tl'
I112
tp1965
a(S'w'
I717
tp1966
a(S'p1_vo'
I2
tp1967
a(S'w'
I734
tp1968
a(S'p1_vo'
I1
tp1969
a(S'w'
I7
tp1970
a(S'p2_vo'
I0
tp1971
a(S'w'
I2193
tp1972
a(S'p1_vo'
I0
tp1973
a(S'w'
I18
tp1974
a(S'p2_vo'
I5
tp1975
a(S'w'
I3
tp1976
a(S'p2_tl'
I151
tp1977
a(S'w'
I719
tp1978
a(S'p2_vo'
I4
tp1979
a(S'w'
I735
tp1980
a(S'p2_vo'
I3
tp1981
a(S'w'
I731
tp1982
a(S'p2_vo'
I2
tp1983
a(S'w'
I734
tp1984
a(S'p2_vo'
I1
tp1985
a(S'w'
I740
tp1986
a(S'p1_vo'
I3
tp1987
a(S'w'
I5
tp1988
a(S'p1_tl'
I150
tp1989
a(S'w'
I719
tp1990
a(S'p1_vo'
I2
tp1991
a(S'w'
I733
tp1992
a(S'p1_vo'
I1
tp1993
a(S'w'
I7
tp1994
a(S'p2_vo'
I0
tp1995
a(S'w'
I2194
tp1996
a(S'p1_vo'
I0
tp1997
a(S'w'
I21
tp1998
a(S'p2_vo'
I5
tp1999
a(S'w'
I3
tp2000
a(S'p2_tl'
I101
tp2001
a(S'w'
I716
tp2002
a(S'p2_vo'
I4
tp2003
a(S'w'
I735
tp2004
a(S'p2_vo'
I3
tp2005
a(S'w'
I731
tp2006
a(S'p2_vo'
I2
tp2007
a(S'w'
I734
tp2008
a(S'p2_vo'
I1
tp2009
a(S'w'
I743
tp2010
a(S'p1_vo'
I3
tp2011
a(S'w'
I5
tp2012
a(S'p1_tl'
I100
tp2013
a(S'w'
I716
tp2014
a(S'p1_vo'
I2
tp2015
a(S'w'
I733
tp2016
a(S'p1_vo'
I1
tp2017
a(S'w'
I7
tp2018
a(S'p2_vo'
I0
tp2019
a(S'w'
I2194
tp2020
a(S'p1_vo'
I0
tp2021
a(S'w'
I18
tp2022
a(S'p2_vo'
I5
tp2023
a(S'w'
I4
tp2024
a(S'p2_tl'
I95
tp2025
a(S'w'
I718
tp2026
a(S'p2_vo'
I4
tp2027
a(S'w'
I735
tp2028
a(S'p2_vo'
I3
tp2029
a(S'w'
I731
tp2030
a(S'p2_vo'
I2
tp2031
a(S'w'
I734
tp2032
a(S'p2_vo'
I1
tp2033
a(S'w'
I741
tp2034
a(S'p1_vo'
I3
tp2035
a(S'w'
I4
tp2036
a(S'p1_tl'
I94
tp2037
a(S'w'
I718
tp2038
a(S'p1_vo'
I2
tp2039
a(S'w'
I734
tp2040
a(S'p1_vo'
I1
tp2041
a(S'w'
I7
tp2042
a(S'p2_vo'
I0
tp2043
a(S'w'
I2194
tp2044
a(S'p1_vo'
I0
tp2045
a(S'w'
I20
tp2046
a(S'p2_vo'
I5
tp2047
a(S'w'
I4
tp2048
a(S'p2_tl'
I127
tp2049
a(S'w'
I715
tp2050
a(S'p2_vo'
I4
tp2051
a(S'w'
I736
tp2052
a(S'p2_vo'
I3
tp2053
a(S'w'
I731
tp2054
a(S'p2_vo'
I2
tp2055
a(S'w'
I734
tp2056
a(S'p2_vo'
I1
tp2057
a(S'w'
I743
tp2058
a(S'p1_vo'
I3
tp2059
a(S'w'
I4
tp2060
a(S'p1_tl'
I126
tp2061
a(S'w'
I716
tp2062
a(S'p1_vo'
I2
tp2063
a(S'w'
I734
tp2064
a(S'p1_vo'
I1
tp2065
a(S'w'
I7
tp2066
a(S'p2_vo'
I0
tp2067
a(S'w'
I2194
tp2068
a(S'p1_vo'
I0
tp2069
a(S'w'
I18
tp2070
a(S'p2_vo'
I5
tp2071
a(S'w'
I3
tp2072
a(S'p2_tl'
I170
tp2073
a(S'w'
I718
tp2074
a(S'p2_vo'
I4
tp2075
a(S'w'
I736
tp2076
a(S'p2_vo'
I3
tp2077
a(S'w'
I731
tp2078
a(S'p2_vo'
I2
tp2079
a(S'w'
I734
tp2080
a(S'p2_vo'
I1
tp2081
a(S'w'
I739
tp2082
a(S'p1_vo'
I3
tp2083
a(S'w'
I5
tp2084
a(S'p1_tl'
I169
tp2085
a(S'w'
I719
tp2086
a(S'p1_vo'
I2
tp2087
a(S'w'
I734
tp2088
a(S'p1_vo'
I1
tp2089
a(S'w'
I7
tp2090
a(S'p2_vo'
I0
tp2091
a(S'w'
I2193
tp2092
a(S'p1_vo'
I0
tp2093
a(S'w'
I36
tp2094
a(S'p2_vo'
I3
tp2095
a(S'w'
I4
tp2096
a(S'p2_tl'
I90
tp2097
a(S'w'
I700
tp2098
a(S'p2_vo'
I2
tp2099
a(S'w'
I736
tp2100
a(S'p2_vo'
I1
tp2101
a(S'w'
I2223
tp2102
a(S'p1_vo'
I1
tp2103
a(S'w'
I4
tp2104
a(S'p1_tl'
I89
tp2105
a(S'w'
I19
tp2106
a(S'p2_vo'
I3
tp2107
a(S'w'
I4
tp2108
a(S'w'
I685
tp2109
a(S'p2_vo'
I2
tp2110
a(S'w'
I734
tp2111
a(S'p2_vo'
I1
tp2112
a(S'w'
I2193
tp2113
a(S'p1_vo'
I0
tp2114
a(S'w'
I18
tp2115
a(S'p2_vo'
I3
tp2116
a(S'w'
I3
tp2117
a(S'p2_tl'
I85
tp2118
a(S'w'
I719
tp2119
a(S'p2_vo'
I2
tp2120
a(S'w'
I736
tp2121
a(S'p2_vo'
I1
tp2122
a(S'w'
I2205
tp2123
a(S'p1_vo'
I1
tp2124
a(S'w'
I4
tp2125
a(S'p1_tl'
I84
tp2126
a(S'w'
I19
tp2127
a(S'p2_vo'
I3
tp2128
a(S'w'
I3
tp2129
a(S'w'
I704
tp2130
a(S'p2_vo'
I2
tp2131
a(S'w'
I734
tp2132
a(S'p2_vo'
I1
tp2133
a(S'w'
I2193
tp2134
a(S'p1_vo'
I0
tp2135
a(S'w'
I20
tp2136
a(S'p2_vo'
I3
tp2137
a(S'w'
I4
tp2138
a(S'p2_tl'
I113
tp2139
a(S'w'
I716
tp2140
a(S'p2_vo'
I2
tp2141
a(S'w'
I736
tp2142
a(S'p2_vo'
I1
tp2143
a(S'w'
I2207
tp2144
a(S'p1_vo'
I1
tp2145
a(S'w'
I4
tp2146
a(S'p1_tl'
I112
tp2147
a(S'w'
I19
tp2148
a(S'p2_vo'
I3
tp2149
a(S'w'
I3
tp2150
a(S'w'
I702
tp2151
a(S'p2_vo'
I2
tp2152
a(S'w'
I734
tp2153
a(S'p2_vo'
I1
tp2154
a(S'w'
I2193
tp2155
a(S'p1_vo'
I0
tp2156
a(S'w'
I17
tp2157
a(S'p2_vo'
I3
tp2158
a(S'w'
I4
tp2159
a(S'p2_tl'
I151
tp2160
a(S'w'
I719
tp2161
a(S'p2_vo'
I2
tp2162
a(S'w'
I736
tp2163
a(S'p2_vo'
I1
tp2164
a(S'w'
I2204
tp2165
a(S'p1_vo'
I1
tp2166
a(S'w'
I5
tp2167
a(S'p1_tl'
I150
tp2168
a(S'w'
I18
tp2169
a(S'p2_vo'
I3
tp2170
a(S'w'
I4
tp2171
a(S'w'
I704
tp2172
a(S'p2_vo'
I2
tp2173
a(S'w'
I734
tp2174
a(S'p2_vo'
I1
tp2175
a(S'w'
I2193
tp2176
a(S'p1_vo'
I0
tp2177
a(S'w'
I20
tp2178
a(S'p2_vo'
I3
tp2179
a(S'w'
I4
tp2180
a(S'p2_tl'
I101
tp2181
a(S'w'
I716
tp2182
a(S'p2_vo'
I2
tp2183
a(S'w'
I736
tp2184
a(S'p2_vo'
I1
tp2185
a(S'w'
I2207
tp2186
a(S'p1_vo'
I1
tp2187
a(S'w'
I5
tp2188
a(S'p1_tl'
I100
tp2189
a(S'w'
I18
tp2190
a(S'p2_vo'
I3
tp2191
a(S'w'
I4
tp2192
a(S'w'
I701
tp2193
a(S'p2_vo'
I2
tp2194
a(S'w'
I734
tp2195
a(S'p2_vo'
I1
tp2196
a(S'w'
I2193
tp2197
a(S'p1_vo'
I0
tp2198
a(S'w'
I18
tp2199
a(S'p2_vo'
I3
tp2200
a(S'w'
I3
tp2201
a(S'p2_tl'
I95
tp2202
a(S'w'
I719
tp2203
a(S'p2_vo'
I2
tp2204
a(S'w'
I736
tp2205
a(S'p2_vo'
I1
tp2206
a(S'w'
I2205
tp2207
a(S'p1_vo'
I1
tp2208
a(S'w'
I4
tp2209
a(S'p1_tl'
I94
tp2210
a(S'w'
I19
tp2211
a(S'p2_vo'
I3
tp2212
a(S'w'
I3
tp2213
a(S'w'
I704
tp2214
a(S'p2_vo'
I2
tp2215
a(S'w'
I734
tp2216
a(S'p2_vo'
I1
tp2217
a(S'w'
I2193
tp2218
a(S'p1_vo'
I0
tp2219
a(S'w'
I20
tp2220
a(S'p2_vo'
I3
tp2221
a(S'w'
I4
tp2222
a(S'p2_tl'
I127
tp2223
a(S'w'
I716
tp2224
a(S'p2_vo'
I2
tp2225
a(S'w'
I736
tp2226
a(S'p2_vo'
I1
tp2227
a(S'w'
I2207
tp2228
a(S'p1_vo'
I1
tp2229
a(S'w'
I4
tp2230
a(S'p1_tl'
I126
tp2231
a(S'w'
I19
tp2232
a(S'p2_vo'
I3
tp2233
a(S'w'
I3
tp2234
a(S'w'
I702
tp2235
a(S'p2_vo'
I2
tp2236
a(S'w'
I733
tp2237
a(S'p2_vo'
I1
tp2238
a(S'w'
I2194
tp2239
a(S'p1_vo'
I0
tp2240
a(S'w'
I17
tp2241
a(S'p2_vo'
I3
tp2242
a(S'w'
I4
tp2243
a(S'p2_tl'
I170
tp2244
a(S'w'
I719
tp2245
a(S'p2_vo'
I2
tp2246
a(S'w'
I735
tp2247
a(S'p2_vo'
I1
tp2248
a(S'w'
I2205
tp2249
a(S'p1_vo'
I1
tp2250
a(S'w'
I5
tp2251
a(S'p1_tl'
I169
tp2252
a(S'w'
I18
tp2253
a(S'p2_vo'
I3
tp2254
a(S'w'
I4
tp2255
a(S'w'
I704
tp2256
a(S'p2_vo'
I2
tp2257
a(S'w'
I733
tp2258
a(S'p2_vo'
I1
tp2259
a(S'w'
I2194
tp2260
a(S'p1_vo'
I0
tp2261
a(S'w'
I29
tp2262
a(S'p2_vo'
I2
tp2263
a(S'w'
I4
tp2264
a(S'p2_tl'
I90
tp2265
a(S'w'
I707
tp2266
a(S'p2_vo'
I1
tp2267
a(S'w'
I2952
tp2268
a(S'p1_vo'
I1
tp2269
a(S'w'
I4
tp2270
a(S'p1_tl'
I89
tp2271
a(S'w'
I19
tp2272
a(S'p2_vo'
I2
tp2273
a(S'w'
I4
tp2274
a(S'w'
I692
tp2275
a(S'p2_vo'
I1
tp2276
a(S'w'
I2927
tp2277
a(S'p1_vo'
I0
tp2278
a(S'w'
I18
tp2279
a(S'p2_vo'
I2
tp2280
a(S'w'
I3
tp2281
a(S'p2_tl'
I85
tp2282
a(S'w'
I718
tp2283
a(S'p2_vo'
I1
tp2284
a(S'w'
I2942
tp2285
a(S'p1_vo'
I1
tp2286
a(S'w'
I4
tp2287
a(S'p1_tl'
I84
tp2288
a(S'w'
I18
tp2289
a(S'p2_vo'
I2
tp2290
a(S'w'
I4
tp2291
a(S'w'
I703
tp2292
a(S'p2_vo'
I1
tp2293
a(S'w'
I2928
tp2294
a(S'p1_vo'
I0
tp2295
a(S'w'
I20
tp2296
a(S'p2_vo'
I2
tp2297
a(S'w'
I4
tp2298
a(S'p2_tl'
I113
tp2299
a(S'w'
I715
tp2300
a(S'p2_vo'
I1
tp2301
a(S'w'
I2944
tp2302
a(S'p1_vo'
I1
tp2303
a(S'w'
I4
tp2304
a(S'p1_tl'
I112
tp2305
a(S'w'
I18
tp2306
a(S'p2_vo'
I2
tp2307
a(S'w'
I4
tp2308
a(S'w'
I701
tp2309
a(S'p2_vo'
I1
tp2310
a(S'w'
I2928
tp2311
a(S'p1_vo'
I0
tp2312
a(S'w'
I17
tp2313
a(S'p2_vo'
I2
tp2314
a(S'w'
I4
tp2315
a(S'p2_tl'
I151
tp2316
a(S'w'
I718
tp2317
a(S'p2_vo'
I1
tp2318
a(S'w'
I2940
tp2319
a(S'p1_vo'
I1
tp2320
a(S'w'
I4
tp2321
a(S'p1_tl'
I150
tp2322
a(S'w'
I19
tp2323
a(S'p2_vo'
I2
tp2324
a(S'w'
I4
tp2325
a(S'w'
I704
tp2326
a(S'p2_vo'
I1
tp2327
a(S'w'
I2927
tp2328
a(S'p1_vo'
I0
tp2329
a(S'w'
I20
tp2330
a(S'p2_vo'
I2
tp2331
a(S'w'
I4
tp2332
a(S'p2_tl'
I101
tp2333
a(S'w'
I716
tp2334
a(S'p2_vo'
I1
tp2335
a(S'w'
I2943
tp2336
a(S'p1_vo'
I1
tp2337
a(S'w'
I4
tp2338
a(S'p1_tl'
I100
tp2339
a(S'w'
I19
tp2340
a(S'p2_vo'
I2
tp2341
a(S'w'
I4
tp2342
a(S'w'
I701
tp2343
a(S'p2_vo'
I1
tp2344
a(S'w'
I2927
tp2345
a(S'p1_vo'
I0
tp2346
a(S'w'
I18
tp2347
a(S'p2_vo'
I2
tp2348
a(S'w'
I3
tp2349
a(S'p2_tl'
I95
tp2350
a(S'w'
I719
tp2351
a(S'p2_vo'
I1
tp2352
a(S'w'
I2941
tp2353
a(S'p1_vo'
I1
tp2354
a(S'w'
I4
tp2355
a(S'p1_tl'
I94
tp2356
a(S'w'
I18
tp2357
a(S'p2_vo'
I2
tp2358
a(S'w'
I4
tp2359
a(S'w'
I704
tp2360
a(S'p2_vo'
I1
tp2361
a(S'w'
I2927
tp2362
a(S'p1_vo'
I0
tp2363
a(S'w'
I20
tp2364
a(S'p2_vo'
I2
tp2365
a(S'w'
I4
tp2366
a(S'p2_tl'
I127
tp2367
a(S'w'
I716
tp2368
a(S'p2_vo'
I1
tp2369
a(S'w'
I2943
tp2370
a(S'p1_vo'
I1
tp2371
a(S'w'
I4
tp2372
a(S'p1_tl'
I126
tp2373
a(S'w'
I18
tp2374
a(S'p2_vo'
I2
tp2375
a(S'w'
I4
tp2376
a(S'w'
I702
tp2377
a(S'p2_vo'
I1
tp2378
a(S'w'
I2927
tp2379
a(S'p1_vo'
I0
tp2380
a(S'w'
I17
tp2381
a(S'p2_vo'
I2
tp2382
a(S'w'
I4
tp2383
a(S'p2_tl'
I170
tp2384
a(S'w'
I719
tp2385
a(S'p2_vo'
I1
tp2386
a(S'w'
I2940
tp2387
a(S'p1_vo'
I1
tp2388
a(S'w'
I4
tp2389
a(S'p1_tl'
I169
tp2390
a(S'w'
I19
tp2391
a(S'p2_vo'
I2
tp2392
a(S'w'
I4
tp2393
a(S'w'
I704
tp2394
a(S'p2_vo'
I1
tp2395
a(S'w'
I2927
tp2396
a(S'p1_vo'
I0
tp2397
a(S'w'
I24
tp2398
a(S'p2_du'
I0
tp2399
a(S'p2_vo'
I0
tp2400
a(S'w'
I3668
tp2401
a(S'p1_du'
I0
tp2402
a(S'w'
I51387
tp2403
a.