(lp1
(S'clock'
p2
I1789773
tp3
a(S'ch_no'
I1
tp4
a(S'ch_tr'
I0
tp5
a(S'ch_p2'
I1
tp6
a(S'ch_p1'
I1
tp7
a(S'ch_no'
I1
tp8
a(S'ch_tr'
I1
tp9
a(S'ch_p2'
I1
tp10
a(S'ch_p1'
I1
tp11
a(S'p1_lh'
I1
tp12
a(S'p1_cv'
I1
tp13
a(S'p1_sp'
I7
tp14
a(S'p1_sn'
I1
tp15
a(S'p1_ss'
I7
tp16
a(S'p2_lh'
I1
tp17
a(S'p2_cv'
I1
tp18
a(S'p2_sp'
I7
tp19
a(S'p2_sn'
I1
tp20
a(S'p2_ss'
I7
tp21
a(S'no_lh'
I1
tp22
a(S'no_cv'
I1
tp23
a(S'w'
I39
tp24
a(S'p1_du'
I2
tp25
a(S'p1_vo'
I6
tp26
a(S'w'
I3
tp27
a(S'p1_ll'
I1
tp28
a(S'p1_ll'
I1
tp29
a(S'w'
I2
tp30
a(S'p1_tl'
I240
tp31
a(S'w'
I38
tp32
a(S'p2_du'
I1
tp33
a(S'p2_vo'
I9
tp34
a(S'w'
I3
tp35
a(S'p2_ll'
I1
tp36
a(S'p2_ll'
I1
tp37
a(S'w'
I1
tp38
a(S'p2_tl'
I180
tp39
a(S'w'
I26
tp40
a(S'tr_lr'
I17
tp41
a(S'w'
I2
tp42
a(S'tr_ll'
I1
tp43
a(S'tr_th'
I2
tp44
a(S'tr_ll'
I1
tp45
a(S'w'
I2
tp46
a(S'tr_tl'
I207
tp47
a(S'w'
I14
tp48
a(S'ch_no'
I1
tp49
a(S'ch_tr'
I1
tp50
a(S'ch_p2'
I1
tp51
a(S'ch_p1'
I1
tp52
a(S'w'
I615
tp53
a(S'p1_vo'
I5
tp54
a(S'w'
I7
tp55
a(S'p2_vo'
I8
tp56
a(S'w'
I727
tp57
a(S'p1_vo'
I4
tp58
a(S'w'
I8
tp59
a(S'p2_vo'
I7
tp60
a(S'w'
I726
tp61
a(S'p1_vo'
I3
tp62
a(S'w'
I8
tp63
a(S'p2_vo'
I2
tp64
a(S'w'
I726
tp65
a(S'p1_vo'
I2
tp66
a(S'w'
I20
tp67
a(S'p2_vo'
I5
tp68
a(S'w'
I3
tp69
a(S'w'
I713
tp70
a(S'p2_vo'
I4
tp71
a(S'w'
I730
tp72
a(S'p1_vo'
I1
tp73
a(S'w'
I7
tp74
a(S'p2_vo'
I3
tp75
a(S'w'
I743
tp76
a(S'p1_vo'
I6
tp77
a(S'w'
I4
tp78
a(S'w'
I27
tp79
a(S'p2_vo'
I9
tp80
a(S'w'
I4
tp81
a(S'w'
I13
tp82
a(S'tr_ll'
I1
tp83
a(S'tr_th'
I1
tp84
a(S'tr_ll'
I1
tp85
a(S'w'
I1
tp86
a(S'tr_tl'
I224
tp87
a(S'w'
I669
tp88
a(S'p1_vo'
I5
tp89
a(S'w'
I8
tp90
a(S'p2_vo'
I8
tp91
a(S'w'
I726
tp92
a(S'p1_vo'
I4
tp93
a(S'w'
I8
tp94
a(S'p2_vo'
I7
tp95
a(S'w'
I725
tp96
a(S'p1_vo'
I3
tp97
a(S'w'
I8
tp98
a(S'p2_vo'
I2
tp99
a(S'w'
I727
tp100
a(S'p1_vo'
I2
tp101
a(S'w'
I20
tp102
a(S'p2_vo'
I5
tp103
a(S'w'
I3
tp104
a(S'w'
I714
tp105
a(S'p2_vo'
I4
tp106
a(S'w'
I730
tp107
a(S'p1_vo'
I1
tp108
a(S'w'
I7
tp109
a(S'p2_vo'
I3
tp110
a(S'w'
I743
tp111
a(S'p1_vo'
I6
tp112
a(S'w'
I4
tp113
a(S'w'
I27
tp114
a(S'p2_vo'
I9
tp115
a(S'w'
I4
tp116
a(S'w'
I16
tp117
a(S'tr_ll'
I1
tp118
a(S'tr_ll'
I1
tp119
a(S'w'
I1
tp120
a(S'tr_tl'
I104
tp121
a(S'w'
I9
tp122
a(S'ch_no'
I1
tp123
a(S'ch_tr'
I1
tp124
a(S'ch_p2'
I1
tp125
a(S'ch_p1'
I1
tp126
a(S'w'
I1
tp127
a(S'ch_no'
I1
tp128
a(S'ch_tr'
I1
tp129
a(S'ch_p2'
I1
tp130
a(S'ch_p1'
I1
tp131
a(S'w'
I656
tp132
a(S'p1_vo'
I5
tp133
a(S'w'
I8
tp134
a(S'p2_vo'
I8
tp135
a(S'w'
I726
tp136
a(S'p1_vo'
I4
tp137
a(S'w'
I8
tp138
a(S'p2_vo'
I7
tp139
a(S'w'
I726
tp140
a(S'p1_vo'
I3
tp141
a(S'w'
I8
tp142
a(S'p2_vo'
I2
tp143
a(S'w'
I727
tp144
a(S'p1_vo'
I2
tp145
a(S'w'
I20
tp146
a(S'p2_vo'
I5
tp147
a(S'w'
I3
tp148
a(S'w'
I714
tp149
a(S'p2_vo'
I4
tp150
a(S'w'
I729
tp151
a(S'p1_vo'
I1
tp152
a(S'w'
I7
tp153
a(S'p2_vo'
I3
tp154
a(S'w'
I743
tp155
a(S'p1_vo'
I6
tp156
a(S'w'
I4
tp157
a(S'w'
I27
tp158
a(S'p2_vo'
I9
tp159
a(S'w'
I4
tp160
a(S'w'
I22
tp161
a(S'tr_ll'
I1
tp162
a(S'tr_th'
I2
tp163
a(S'tr_ll'
I1
tp164
a(S'w'
I1
tp165
a(S'tr_tl'
I207
tp166
a(S'w'
I660
tp167
a(S'p1_vo'
I5
tp168
a(S'w'
I8
tp169
a(S'p2_vo'
I8
tp170
a(S'w'
I726
tp171
a(S'p1_vo'
I4
tp172
a(S'w'
I8
tp173
a(S'p2_vo'
I7
tp174
a(S'w'
I726
tp175
a(S'p1_vo'
I3
tp176
a(S'w'
I8
tp177
a(S'p2_vo'
I2
tp178
a(S'w'
I726
tp179
a(S'p1_vo'
I2
tp180
a(S'w'
I20
tp181
a(S'p2_vo'
I5
tp182
a(S'w'
I3
tp183
a(S'w'
I714
tp184
a(S'p2_vo'
I4
tp185
a(S'w'
I729
tp186
a(S'p1_vo'
I1
tp187
a(S'w'
I7
tp188
a(S'p2_vo'
I3
tp189
a(S'w'
I743
tp190
a(S'p1_vo'
I6
tp191
a(S'w'
I4
tp192
a(S'w'
I27
tp193
a(S'p2_vo'
I9
tp194
a(S'w'
I4
tp195
a(S'w'
I12
tp196
a(S'tr_ll'
I1
tp197
a(S'tr_th'
I1
tp198
a(S'w'
I1
tp199
a(S'tr_ll'
I1
tp200
a(S'w'
I1
tp201
a(S'tr_tl'
I224
tp202
a(S'w'
I9
tp203
a(S'ch_no'
I1
tp204
a(S'ch_tr'
I1
tp205
a(S'ch_p2'
I1
tp206
a(S'ch_p1'
I1
tp207
a(S'w'
I1
tp208
a(S'ch_no'
I1
tp209
a(S'ch_tr'
I1
tp210
a(S'ch_p2'
I1
tp211
a(S'ch_p1'
I1
tp212
a(S'w'
I659
tp213
a(S'p1_vo'
I5
tp214
a(S'w'
I8
tp215
a(S'p2_vo'
I8
tp216
a(S'w'
I726
tp217
a(S'p1_vo'
I4
tp218
a(S'w'
I8
tp219
a(S'p2_vo'
I7
tp220
a(S'w'
I726
tp221
a(S'p1_vo'
I3
tp222
a(S'w'
I8
tp223
a(S'p2_vo'
I2
tp224
a(S'w'
I726
tp225
a(S'p1_vo'
I2
tp226
a(S'w'
I20
tp227
a(S'p2_vo'
I5
tp228
a(S'w'
I3
tp229
a(S'w'
I714
tp230
a(S'p2_vo'
I4
tp231
a(S'w'
I729
tp232
a(S'p1_vo'
I1
tp233
a(S'w'
I7
tp234
a(S'p2_vo'
I3
tp235
a(S'w'
I743
tp236
a(S'p1_vo'
I6
tp237
a(S'w'
I4
tp238
a(S'w'
I27
tp239
a(S'p2_vo'
I9
tp240
a(S'w'
I4
tp241
a(S'w'
I16
tp242
a(S'tr_ll'
I1
tp243
a(S'tr_ll'
I1
tp244
a(S'w'
I1
tp245
a(S'tr_tl'
I104
tp246
a(S'w'
I666
tp247
a(S'p1_vo'
I5
tp248
a(S'w'
I8
tp249
a(S'p2_vo'
I8
tp250
a(S'w'
I726
tp251
a(S'p1_vo'
I4
tp252
a(S'w'
I8
tp253
a(S'p2_vo'
I7
tp254
a(S'w'
I726
tp255
a(S'p1_vo'
I3
tp256
a(S'w'
I8
tp257
a(S'p2_vo'
I2
tp258
a(S'w'
I726
tp259
a(S'p1_vo'
I2
tp260
a(S'w'
I20
tp261
a(S'p2_vo'
I5
tp262
a(S'w'
I3
tp263
a(S'w'
I714
tp264
a(S'p2_vo'
I4
tp265
a(S'w'
I730
tp266
a(S'p1_vo'
I1
tp267
a(S'w'
I7
tp268
a(S'p2_vo'
I3
tp269
a(S'w'
I743
tp270
a(S'p1_vo'
I6
tp271
a(S'w'
I4
tp272
a(S'w'
I26
tp273
a(S'p2_vo'
I8
tp274
a(S'w'
I4
tp275
a(S'w'
I21
tp276
a(S'tr_ll'
I1
tp277
a(S'tr_th'
I2
tp278
a(S'tr_ll'
I1
tp279
a(S'w'
I1
tp280
a(S'tr_tl'
I207
tp281
a(S'w'
I8
tp282
a(S'ch_no'
I1
tp283
a(S'ch_tr'
I1
tp284
a(S'ch_p2'
I1
tp285
a(S'ch_p1'
I1
tp286
a(S'w'
I1
tp287
a(S'ch_no'
I1
tp288
a(S'ch_tr'
I1
tp289
a(S'ch_p2'
I1
tp290
a(S'ch_p1'
I1
tp291
a(S'w'
I654
tp292
a(S'p1_vo'
I5
tp293
a(S'w'
I8
tp294
a(S'p2_vo'
I7
tp295
a(S'w'
I725
tp296
a(S'p1_vo'
I4
tp297
a(S'w'
I8
tp298
a(S'p2_vo'
I6
tp299
a(S'w'
I726
tp300
a(S'p1_vo'
I3
tp301
a(S'w'
I8
tp302
a(S'p2_vo'
I5
tp303
a(S'w'
I727
tp304
a(S'p1_vo'
I2
tp305
a(S'w'
I7
tp306
a(S'p2_vo'
I1
tp307
a(S'w'
I732
tp308
a(S'p2_du'
I0
tp309
a(S'p2_vo'
I0
tp310
a(S'w'
I728
tp311
a(S'p1_vo'
I1
tp312
a(S'w'
I19
tp313
a(S'p2_du'
I1
tp314
a(S'p2_vo'
I5
tp315
a(S'w'
I4
tp316
a(S'w'
I729
tp317
a(S'p1_vo'
I6
tp318
a(S'w'
I3
tp319
a(S'p1_tl'
I202
tp320
a(S'w'
I25
tp321
a(S'p2_vo'
I8
tp322
a(S'w'
I4
tp323
a(S'p2_tl'
I160
tp324
a(S'w'
I13
tp325
a(S'tr_ll'
I1
tp326
a(S'tr_th'
I1
tp327
a(S'tr_ll'
I1
tp328
a(S'w'
I2
tp329
a(S'tr_tl'
I224
tp330
a(S'w'
I8
tp331
a(S'ch_no'
I1
tp332
a(S'ch_tr'
I1
tp333
a(S'ch_p2'
I1
tp334
a(S'ch_p1'
I1
tp335
a(S'w'
I1
tp336
a(S'ch_no'
I1
tp337
a(S'ch_tr'
I1
tp338
a(S'ch_p2'
I1
tp339
a(S'ch_p1'
I1
tp340
a(S'w'
I659
tp341
a(S'p1_vo'
I5
tp342
a(S'w'
I8
tp343
a(S'p2_vo'
I7
tp344
a(S'w'
I726
tp345
a(S'p1_vo'
I4
tp346
a(S'w'
I8
tp347
a(S'p2_vo'
I6
tp348
a(S'w'
I726
tp349
a(S'p1_vo'
I3
tp350
a(S'w'
I8
tp351
a(S'p2_vo'
I5
tp352
a(S'w'
I2946
tp353
a(S'tr_ll'
I1
tp354
a(S'tr_th'
I2
tp355
a(S'w'
I1
tp356
a(S'tr_ll'
I1
tp357
a(S'w'
I1
tp358
a(S'tr_tl'
I207
tp359
a(S'w'
I713
tp360
a(S'p1_vo'
I2
tp361
a(S'w'
I1466
tp362
a(S'p1_vo'
I1
tp363
a(S'w'
I738
tp364
a(S'p2_vo'
I1
tp365
a(S'w'
I2207
tp366
a(S'p1_vo'
I6
tp367
a(S'w'
I4
tp368
a(S'w'
I17
tp369
a(S'p2_vo'
I8
tp370
a(S'w'
I4
tp371
a(S'w'
I16
tp372
a(S'tr_ll'
I1
tp373
a(S'tr_th'
I1
tp374
a(S'tr_ll'
I1
tp375
a(S'w'
I1
tp376
a(S'tr_tl'
I148
tp377
a(S'w'
I8
tp378
a(S'ch_no'
I1
tp379
a(S'ch_tr'
I1
tp380
a(S'ch_p2'
I1
tp381
a(S'ch_p1'
I1
tp382
a(S'w'
I1
tp383
a(S'ch_no'
I1
tp384
a(S'ch_tr'
I1
tp385
a(S'ch_p2'
I1
tp386
a(S'ch_p1'
I1
tp387
a(S'w'
I674
tp388
a(S'p1_vo'
I5
tp389
a(S'w'
I8
tp390
a(S'p2_vo'
I7
tp391
a(S'w'
I726
tp392
a(S'p1_vo'
I4
tp393
a(S'w'
I8
tp394
a(S'p2_vo'
I6
tp395
a(S'w'
I726
tp396
a(S'p1_vo'
I3
tp397
a(S'w'
I8
tp398
a(S'p2_vo'
I5
tp399
a(S'w'
I726
tp400
a(S'p1_vo'
I2
tp401
a(S'w'
I1466
tp402
a(S'p1_vo'
I1
tp403
a(S'w'
I7
tp404
a(S'p2_vo'
I1
tp405
a(S'w'
I737
tp406
a(S'p1_vo'
I6
tp407
a(S'w'
I4
tp408
a(S'w'
I17
tp409
a(S'p2_vo'
I8
tp410
a(S'w'
I4
tp411
a(S'w'
I13
tp412
a(S'tr_ll'
I1
tp413
a(S'tr_ll'
I1
tp414
a(S'w'
I2
tp415
a(S'tr_tl'
I104
tp416
a(S'w'
I8
tp417
a(S'ch_no'
I1
tp418
a(S'ch_tr'
I1
tp419
a(S'ch_p2'
I1
tp420
a(S'ch_p1'
I1
tp421
a(S'w'
I1
tp422
a(S'ch_no'
I1
tp423
a(S'ch_tr'
I1
tp424
a(S'ch_p2'
I1
tp425
a(S'ch_p1'
I1
tp426
a(S'w'
I676
tp427
a(S'p1_vo'
I5
tp428
a(S'w'
I8
tp429
a(S'p2_vo'
I7
tp430
a(S'w'
I726
tp431
a(S'p1_vo'
I4
tp432
a(S'w'
I8
tp433
a(S'p2_vo'
I6
tp434
a(S'w'
I725
tp435
a(S'p1_vo'
I3
tp436
a(S'w'
I8
tp437
a(S'p2_vo'
I5
tp438
a(S'w'
I727
tp439
a(S'p1_vo'
I2
tp440
a(S'w'
I1467
tp441
a(S'p1_vo'
I1
tp442
a(S'w'
I7
tp443
a(S'p2_vo'
I1
tp444
a(S'w'
I727
tp445
a(S'p1_du'
I0
tp446
a(S'p1_vo'
I0
tp447
a(S'w'
I10
tp448
a(S'p2_du'
I0
tp449
a(S'p2_vo'
I0
tp450
a(S'w'
I22
tp451
a(S'tr_ll'
I1
tp452
a(S'tr_th'
I2
tp453
a(S'tr_ll'
I1
tp454
a(S'w'
I2
tp455
a(S'tr_tl'
I207
tp456
a(S'w'
I5111
tp457
a(S'p1_du'
I2
tp458
a(S'p1_vo'
I6
tp459
a(S'w'
I4
tp460
a(S'w'
I17
tp461
a(S'p2_du'
I1
tp462
a(S'p2_vo'
I8
tp463
a(S'w'
I4
tp464
a(S'w'
I16
tp465
a(S'tr_ll'
I1
tp466
a(S'tr_th'
I1
tp467
a(S'tr_ll'
I1
tp468
a(S'w'
I1
tp469
a(S'tr_tl'
I148
tp470
a(S'w'
I9
tp471
a(S'ch_no'
I1
tp472
a(S'ch_tr'
I1
tp473
a(S'ch_p2'
I1
tp474
a(S'ch_p1'
I1
tp475
a(S'w'
I1
tp476
a(S'ch_no'
I1
tp477
a(S'ch_tr'
I1
tp478
a(S'ch_p2'
I1
tp479
a(S'ch_p1'
I1
tp480
a(S'w'
I673
tp481
a(S'p1_vo'
I5
tp482
a(S'w'
I8
tp483
a(S'p2_vo'
I7
tp484
a(S'w'
I726
tp485
a(S'p1_vo'
I4
tp486
a(S'w'
I8
tp487
a(S'p2_vo'
I6
tp488
a(S'w'
I725
tp489
a(S'p1_vo'
I3
tp490
a(S'w'
I8
tp491
a(S'p2_vo'
I5
tp492
a(S'w'
I726
tp493
a(S'p1_vo'
I2
tp494
a(S'w'
I1467
tp495
a(S'p1_vo'
I1
tp496
a(S'w'
I7
tp497
a(S'p2_vo'
I1
tp498
a(S'w'
I728
tp499
a(S'p1_du'
I0
tp500
a(S'p1_vo'
I0
tp501
a(S'w'
I10
tp502
a(S'p2_du'
I0
tp503
a(S'p2_vo'
I0
tp504
a(S'w'
I13
tp505
a(S'tr_ll'
I1
tp506
a(S'tr_ll'
I1
tp507
a(S'w'
I2
tp508
a(S'tr_tl'
I104
tp509
a(S'w'
I5120
tp510
a(S'p1_du'
I2
tp511
a(S'p1_vo'
I6
tp512
a(S'w'
I4
tp513
a(S'w'
I17
tp514
a(S'p2_du'
I1
tp515
a(S'p2_vo'
I8
tp516
a(S'w'
I4
tp517
a(S'w'
I20
tp518
a(S'tr_ll'
I1
tp519
a(S'tr_th'
I2
tp520
a(S'w'
I1
tp521
a(S'tr_ll'
I1
tp522
a(S'w'
I1
tp523
a(S'tr_tl'
I207
tp524
a(S'w'
I9
tp525
a(S'ch_no'
I1
tp526
a(S'ch_tr'
I1
tp527
a(S'ch_p2'
I1
tp528
a(S'ch_p1'
I1
tp529
a(S'ch_no'
I1
tp530
a(S'ch_tr'
I1
tp531
a(S'ch_p2'
I1
tp532
a(S'ch_p1'
I1
tp533
a(S'w'
I669
tp534
a(S'p1_vo'
I5
tp535
a(S'w'
I8
tp536
a(S'p2_vo'
I7
tp537
a(S'w'
I726
tp538
a(S'p1_vo'
I4
tp539
a(S'w'
I8
tp540
a(S'p2_vo'
I6
tp541
a(S'w'
I725
tp542
a(S'p1_vo'
I3
tp543
a(S'w'
I8
tp544
a(S'p2_vo'
I5
tp545
a(S'w'
I727
tp546
a(S'p1_vo'
I2
tp547
a(S'w'
I1467
tp548
a(S'p1_vo'
I1
tp549
a(S'w'
I7
tp550
a(S'p2_vo'
I1
tp551
a(S'w'
I728
tp552
a(S'p1_du'
I0
tp553
a(S'p1_vo'
I0
tp554
a(S'w'
I10
tp555
a(S'p2_du'
I0
tp556
a(S'p2_vo'
I0
tp557
a(S'w'
I16
tp558
a(S'tr_ll'
I1
tp559
a(S'tr_th'
I1
tp560
a(S'tr_ll'
I1
tp561
a(S'w'
I2
tp562
a(S'tr_tl'
I148
tp563
a(S'w'
I5121
tp564
a(S'p1_du'
I2
tp565
a(S'p1_vo'
I6
tp566
a(S'w'
I4
tp567
a(S'p1_tl'
I214
tp568
a(S'w'
I31
tp569
a(S'p2_du'
I1
tp570
a(S'p2_vo'
I9
tp571
a(S'w'
I4
tp572
a(S'p2_tl'
I135
tp573
a(S'w'
I20
tp574
a(S'tr_ll'
I1
tp575
a(S'tr_th'
I2
tp576
a(S'tr_ll'
I1
tp577
a(S'w'
I2
tp578
a(S'tr_tl'
I207
tp579
a(S'w'
I13
tp580
a(S'ch_no'
I1
tp581
a(S'ch_tr'
I1
tp582
a(S'ch_p2'
I1
tp583
a(S'ch_p1'
I1
tp584
a(S'w'
I1
tp585
a(S'ch_no'
I1
tp586
a(S'ch_tr'
I1
tp587
a(S'ch_p2'
I1
tp588
a(S'ch_p1'
I1
tp589
a(S'w'
I645
tp590
a(S'p1_vo'
I5
tp591
a(S'w'
I7
tp592
a(S'p2_vo'
I8
tp593
a(S'w'
I727
tp594
a(S'p1_vo'
I4
tp595
a(S'w'
I8
tp596
a(S'p2_vo'
I7
tp597
a(S'w'
I726
tp598
a(S'p1_vo'
I3
tp599
a(S'w'
I8
tp600
a(S'p2_vo'
I2
tp601
a(S'w'
I725
tp602
a(S'p1_vo'
I2
tp603
a(S'w'
I20
tp604
a(S'p2_vo'
I5
tp605
a(S'w'
I3
tp606
a(S'w'
I714
tp607
a(S'p2_vo'
I4
tp608
a(S'w'
I730
tp609
a(S'p1_vo'
I1
tp610
a(S'w'
I7
tp611
a(S'p2_vo'
I3
tp612
a(S'w'
I743
tp613
a(S'p1_vo'
I6
tp614
a(S'w'
I4
tp615
a(S'w'
I27
tp616
a(S'p2_vo'
I9
tp617
a(S'w'
I4
tp618
a(S'w'
I16
tp619
a(S'tr_ll'
I1
tp620
a(S'tr_th'
I1
tp621
a(S'tr_ll'
I1
tp622
a(S'w'
I2
tp623
a(S'tr_tl'
I172
tp624
a(S'w'
I665
tp625
a(S'p1_vo'
I5
tp626
a(S'w'
I8
tp627
a(S'p2_vo'
I8
tp628
a(S'w'
I725
tp629
a(S'p1_vo'
I4
tp630
a(S'w'
I8
tp631
a(S'p2_vo'
I7
tp632
a(S'w'
I726
tp633
a(S'p1_vo'
I3
tp634
a(S'w'
I8
tp635
a(S'p2_vo'
I2
tp636
a(S'w'
I727
tp637
a(S'p1_vo'
I2
tp638
a(S'w'
I20
tp639
a(S'p2_vo'
I5
tp640
a(S'w'
I3
tp641
a(S'w'
I714
tp642
a(S'p2_vo'
I4
tp643
a(S'w'
I729
tp644
a(S'p1_vo'
I1
tp645
a(S'w'
I7
tp646
a(S'p2_vo'
I3
tp647
a(S'w'
I743
tp648
a(S'p1_vo'
I6
tp649
a(S'w'
I4
tp650
a(S'w'
I27
tp651
a(S'p2_vo'
I9
tp652
a(S'w'
I4
tp653
a(S'w'
I13
tp654
a(S'tr_ll'
I1
tp655
a(S'tr_ll'
I1
tp656
a(S'w'
I2
tp657
a(S'tr_tl'
I104
tp658
a(S'w'
I8
tp659
a(S'ch_no'
I1
tp660
a(S'ch_tr'
I1
tp661
a(S'ch_p2'
I1
tp662
a(S'ch_p1'
I1
tp663
a(S'w'
I1
tp664
a(S'ch_no'
I1
tp665
a(S'ch_tr'
I1
tp666
a(S'ch_p2'
I1
tp667
a(S'ch_p1'
I1
tp668
a(S'w'
I660
tp669
a(S'p1_vo'
I5
tp670
a(S'w'
I8
tp671
a(S'p2_vo'
I8
tp672
a(S'w'
I726
tp673
a(S'p1_vo'
I4
tp674
a(S'w'
I8
tp675
a(S'p2_vo'
I7
tp676
a(S'w'
I726
tp677
a(S'p1_vo'
I3
tp678
a(S'w'
I8
tp679
a(S'p2_vo'
I2
tp680
a(S'w'
I726
tp681
a(S'p1_vo'
I2
tp682
a(S'w'
I20
tp683
a(S'p2_vo'
I5
tp684
a(S'w'
I3
tp685
a(S'w'
I714
tp686
a(S'p2_vo'
I4
tp687
a(S'w'
I730
tp688
a(S'p1_vo'
I1
tp689
a(S'w'
I7
tp690
a(S'p2_vo'
I3
tp691
a(S'w'
I744
tp692
a(S'p1_vo'
I6
tp693
a(S'w'
I3
tp694
a(S'w'
I28
tp695
a(S'p2_vo'
I9
tp696
a(S'w'
I3
tp697
a(S'w'
I22
tp698
a(S'tr_ll'
I1
tp699
a(S'tr_th'
I2
tp700
a(S'tr_ll'
I1
tp701
a(S'w'
I2
tp702
a(S'tr_tl'
I207
tp703
a(S'w'
I659
tp704
a(S'p1_vo'
I5
tp705
a(S'w'
I8
tp706
a(S'p2_vo'
I8
tp707
a(S'w'
I725
tp708
a(S'p1_vo'
I4
tp709
a(S'w'
I8
tp710
a(S'p2_vo'
I7
tp711
a(S'w'
I726
tp712
a(S'p1_vo'
I3
tp713
a(S'w'
I8
tp714
a(S'p2_vo'
I2
tp715
a(S'w'
I727
tp716
a(S'p1_vo'
I2
tp717
a(S'w'
I20
tp718
a(S'p2_vo'
I5
tp719
a(S'w'
I3
tp720
a(S'w'
I714
tp721
a(S'p2_vo'
I4
tp722
a(S'w'
I729
tp723
a(S'p1_vo'
I1
tp724
a(S'w'
I7
tp725
a(S'p2_vo'
I3
tp726
a(S'w'
I742
tp727
a(S'p1_vo'
I6
tp728
a(S'w'
I4
tp729
a(S'w'
I27
tp730
a(S'p2_vo'
I9
tp731
a(S'w'
I4
tp732
a(S'w'
I16
tp733
a(S'tr_ll'
I1
tp734
a(S'tr_th'
I1
tp735
a(S'tr_ll'
I1
tp736
a(S'w'
I2
tp737
a(S'tr_tl'
I172
tp738
a(S'w'
I8
tp739
a(S'ch_no'
I1
tp740
a(S'ch_tr'
I1
tp741
a(S'ch_p2'
I1
tp742
a(S'ch_p1'
I1
tp743
a(S'w'
I1
tp744
a(S'ch_no'
I1
tp745
a(S'ch_tr'
I1
tp746
a(S'ch_p2'
I1
tp747
a(S'ch_p1'
I1
tp748
a(S'w'
I657
tp749
a(S'p1_vo'
I5
tp750
a(S'w'
I8
tp751
a(S'p2_vo'
I8
tp752
a(S'w'
I726
tp753
a(S'p1_vo'
I4
tp754
a(S'w'
I8
tp755
a(S'p2_vo'
I7
tp756
a(S'w'
I726
tp757
a(S'p1_vo'
I3
tp758
a(S'w'
I8
tp759
a(S'p2_vo'
I2
tp760
a(S'w'
I726
tp761
a(S'p1_vo'
I2
tp762
a(S'w'
I20
tp763
a(S'p2_vo'
I5
tp764
a(S'w'
I3
tp765
a(S'w'
I713
tp766
a(S'p2_vo'
I4
tp767
a(S'w'
I730
tp768
a(S'p1_vo'
I1
tp769
a(S'w'
I7
tp770
a(S'p2_vo'
I3
tp771
a(S'w'
I743
tp772
a(S'p1_vo'
I6
tp773
a(S'w'
I4
tp774
a(S'w'
I27
tp775
a(S'p2_vo'
I9
tp776
a(S'w'
I4
tp777
a(S'w'
I13
tp778
a(S'tr_ll'
I1
tp779
a(S'tr_ll'
I1
tp780
a(S'w'
I2
tp781
a(S'tr_tl'
I104
tp782
a(S'w'
I668
tp783
a(S'p1_vo'
I5
tp784
a(S'w'
I8
tp785
a(S'p2_vo'
I8
tp786
a(S'w'
I725
tp787
a(S'p1_vo'
I4
tp788
a(S'w'
I8
tp789
a(S'p2_vo'
I7
tp790
a(S'w'
I726
tp791
a(S'p1_vo'
I3
tp792
a(S'w'
I8
tp793
a(S'p2_vo'
I2
tp794
a(S'w'
I727
tp795
a(S'p1_vo'
I2
tp796
a(S'w'
I20
tp797
a(S'p2_vo'
I5
tp798
a(S'w'
I3
tp799
a(S'w'
I714
tp800
a(S'p2_vo'
I4
tp801
a(S'w'
I730
tp802
a(S'p1_vo'
I1
tp803
a(S'w'
I7
tp804
a(S'p2_vo'
I3
tp805
a(S'w'
I742
tp806
a(S'p1_vo'
I6
tp807
a(S'w'
I4
tp808
a(S'w'
I27
tp809
a(S'p2_vo'
I8
tp810
a(S'w'
I3
tp811
a(S'w'
I21
tp812
a(S'tr_ll'
I1
tp813
a(S'tr_th'
I2
tp814
a(S'tr_ll'
I1
tp815
a(S'w'
I2
tp816
a(S'tr_tl'
I207
tp817
a(S'w'
I8
tp818
a(S'ch_no'
I1
tp819
a(S'ch_tr'
I1
tp820
a(S'ch_p2'
I1
tp821
a(S'ch_p1'
I1
tp822
a(S'w'
I1
tp823
a(S'ch_no'
I1
tp824
a(S'ch_tr'
I1
tp825
a(S'ch_p2'
I1
tp826
a(S'ch_p1'
I1
tp827
a(S'w'
I653
tp828
a(S'p1_vo'
I5
tp829
a(S'w'
I8
tp830
a(S'p2_vo'
I7
tp831
a(S'w'
I726
tp832
a(S'p1_vo'
I4
tp833
a(S'w'
I8
tp834
a(S'p2_vo'
I6
tp835
a(S'w'
I726
tp836
a(S'p1_vo'
I3
tp837
a(S'w'
I8
tp838
a(S'p2_vo'
I5
tp839
a(S'w'
I727
tp840
a(S'p1_vo'
I2
tp841
a(S'w'
I7
tp842
a(S'p2_vo'
I1
tp843
a(S'w'
I731
tp844
a(S'p2_du'
I0
tp845
a(S'p2_vo'
I0
tp846
a(S'w'
I728
tp847
a(S'p1_vo'
I1
tp848
a(S'w'
I19
tp849
a(S'p2_du'
I1
tp850
a(S'p2_vo'
I5
tp851
a(S'w'
I4
tp852
a(S'w'
I729
tp853
a(S'p1_vo'
I6
tp854
a(S'w'
I4
tp855
a(S'p1_tl'
I240
tp856
a(S'w'
I25
tp857
a(S'p2_vo'
I8
tp858
a(S'w'
I4
tp859
a(S'p2_tl'
I143
tp860
a(S'w'
I16
tp861
a(S'tr_ll'
I1
tp862
a(S'tr_th'
I1
tp863
a(S'tr_ll'
I1
tp864
a(S'w'
I1
tp865
a(S'tr_tl'
I172
tp866
a(S'w'
I9
tp867
a(S'ch_no'
I1
tp868
a(S'ch_tr'
I1
tp869
a(S'ch_p2'
I1
tp870
a(S'ch_p1'
I1
tp871
a(S'w'
I1
tp872
a(S'ch_no'
I1
tp873
a(S'ch_tr'
I1
tp874
a(S'ch_p2'
I1
tp875
a(S'ch_p1'
I1
tp876
a(S'w'
I656
tp877
a(S'p1_vo'
I5
tp878
a(S'w'
I8
tp879
a(S'p2_vo'
I7
tp880
a(S'w'
I726
tp881
a(S'p1_vo'
I4
tp882
a(S'w'
I8
tp883
a(S'p2_vo'
I6
tp884
a(S'w'
I725
tp885
a(S'p1_vo'
I3
tp886
a(S'w'
I8
tp887
a(S'p2_vo'
I5
tp888
a(S'w'
I2947
tp889
a(S'tr_ll'
I1
tp890
a(S'tr_th'
I2
tp891
a(S'w'
I1
tp892
a(S'tr_ll'
I1
tp893
a(S'w'
I1
tp894
a(S'tr_tl'
I207
tp895
a(S'w'
I712
tp896
a(S'p1_vo'
I2
tp897
a(S'w'
I1467
tp898
a(S'p1_vo'
I1
tp899
a(S'w'
I738
tp900
a(S'p2_vo'
I1
tp901
a(S'w'
I2207
tp902
a(S'p1_vo'
I6
tp903
a(S'w'
I4
tp904
a(S'w'
I17
tp905
a(S'p2_vo'
I8
tp906
a(S'w'
I4
tp907
a(S'w'
I12
tp908
a(S'tr_ll'
I1
tp909
a(S'tr_th'
I1
tp910
a(S'tr_ll'
I1
tp911
a(S'w'
I2
tp912
a(S'tr_tl'
I224
tp913
a(S'w'
I8
tp914
a(S'ch_no'
I1
tp915
a(S'ch_tr'
I1
tp916
a(S'ch_p2'
I1
tp917
a(S'ch_p1'
I1
tp918
a(S'w'
I1
tp919
a(S'ch_no'
I1
tp920
a(S'ch_tr'
I1
tp921
a(S'ch_p2'
I1
tp922
a(S'ch_p1'
I1
tp923
a(S'w'
I677
tp924
a(S'p1_vo'
I5
tp925
a(S'w'
I8
tp926
a(S'p2_vo'
I7
tp927
a(S'w'
I726
tp928
a(S'p1_vo'
I4
tp929
a(S'w'
I8
tp930
a(S'p2_vo'
I6
tp931
a(S'w'
I725
tp932
a(S'p1_vo'
I3
tp933
a(S'w'
I8
tp934
a(S'p2_vo'
I5
tp935
a(S'w'
I726
tp936
a(S'p1_vo'
I2
tp937
a(S'w'
I1467
tp938
a(S'p1_vo'
I1
tp939
a(S'w'
I7
tp940
a(S'p2_vo'
I1
tp941
a(S'w'
I737
tp942
a(S'p1_vo'
I6
tp943
a(S'w'
I4
tp944
a(S'w'
I17
tp945
a(S'p2_vo'
I8
tp946
a(S'w'
I4
tp947
a(S'w'
I15
tp948
a(S'tr_ll'
I1
tp949
a(S'tr_ll'
I1
tp950
a(S'w'
I2
tp951
a(S'tr_tl'
I104
tp952
a(S'w'
I8
tp953
a(S'ch_no'
I1
tp954
a(S'ch_tr'
I1
tp955
a(S'ch_p2'
I1
tp956
a(S'ch_p1'
I1
tp957
a(S'w'
I1
tp958
a(S'ch_no'
I1
tp959
a(S'ch_tr'
I1
tp960
a(S'ch_p2'
I1
tp961
a(S'ch_p1'
I1
tp962
a(S'w'
I673
tp963
a(S'p1_vo'
I5
tp964
a(S'w'
I8
tp965
a(S'p2_vo'
I7
tp966
a(S'w'
I726
tp967
a(S'p1_vo'
I4
tp968
a(S'w'
I8
tp969
a(S'p2_vo'
I6
tp970
a(S'w'
I726
tp971
a(S'p1_vo'
I3
tp972
a(S'w'
I8
tp973
a(S'p2_vo'
I5
tp974
a(S'w'
I727
tp975
a(S'p1_vo'
I2
tp976
a(S'w'
I1466
tp977
a(S'p1_vo'
I1
tp978
a(S'w'
I7
tp979
a(S'p2_vo'
I1
tp980
a(S'w'
I728
tp981
a(S'p1_du'
I0
tp982
a(S'p1_vo'
I0
tp983
a(S'w'
I10
tp984
a(S'p2_du'
I0
tp985
a(S'p2_vo'
I0
tp986
a(S'w'
I22
tp987
a(S'tr_ll'
I1
tp988
a(S'tr_th'
I2
tp989
a(S'tr_ll'
I1
tp990
a(S'w'
I1
tp991
a(S'tr_tl'
I207
tp992
a(S'w'
I5112
tp993
a(S'p1_du'
I2
tp994
a(S'p1_vo'
I6
tp995
a(S'w'
I4
tp996
a(S'w'
I17
tp997
a(S'p2_du'
I1
tp998
a(S'p2_vo'
I8
tp999
a(S'w'
I4
tp1000
a(S'w'
I12
tp1001
a(S'tr_ll'
I1
tp1002
a(S'tr_th'
I1
tp1003
a(S'tr_ll'
I1
tp1004
a(S'w'
I2
tp1005
a(S'tr_tl'
I224
tp1006
a(S'w'
I8
tp1007
a(S'ch_no'
I1
tp1008
a(S'ch_tr'
I1
tp1009
a(S'ch_p2'
I1
tp1010
a(S'ch_p1'
I1
tp1011
a(S'w'
I1
tp1012
a(S'ch_no'
I1
tp1013
a(S'ch_tr'
I1
tp1014
a(S'ch_p2'
I1
tp1015
a(S'ch_p1'
I1
tp1016
a(S'w'
I676
tp1017
a(S'p1_vo'
I5
tp1018
a(S'w'
I8
tp1019
a(S'p2_vo'
I7
tp1020
a(S'w'
I726
tp1021
a(S'p1_vo'
I4
tp1022
a(S'w'
I8
tp1023
a(S'p2_vo'
I6
tp1024
a(S'w'
I726
tp1025
a(S'p1_vo'
I3
tp1026
a(S'w'
I8
tp1027
a(S'p2_vo'
I5
tp1028
a(S'w'
I726
tp1029
a(S'p1_vo'
I2
tp1030
a(S'w'
I1466
tp1031
a(S'p1_vo'
I1
tp1032
a(S'w'
I7
tp1033
a(S'p2_vo'
I1
tp1034
a(S'w'
I728
tp1035
a(S'p1_du'
I0
tp1036
a(S'p1_vo'
I0
tp1037
a(S'w'
I10
tp1038
a(S'p2_du'
I0
tp1039
a(S'p2_vo'
I0
tp1040
a(S'w'
I16
tp1041
a(S'tr_ll'
I1
tp1042
a(S'tr_ll'
I1
tp1043
a(S'w'
I1
tp1044
a(S'tr_tl'
I104
tp1045
a(S'w'
I5119
tp1046
a(S'p1_du'
I2
tp1047
a(S'p1_vo'
I6
tp1048
a(S'w'
I4
tp1049
a(S'w'
I17
tp1050
a(S'p2_du'
I1
tp1051
a(S'p2_vo'
I8
tp1052
a(S'w'
I4
tp1053
a(S'w'
I20
tp1054
a(S'tr_ll'
I1
tp1055
a(S'tr_th'
I2
tp1056
a(S'tr_ll'
I1
tp1057
a(S'w'
I2
tp1058
a(S'tr_tl'
I207
tp1059
a(S'w'
I8
tp1060
a(S'ch_no'
I1
tp1061
a(S'ch_tr'
I1
tp1062
a(S'ch_p2'
I1
tp1063
a(S'ch_p1'
I1
tp1064
a(S'w'
I1
tp1065
a(S'ch_no'
I1
tp1066
a(S'ch_tr'
I1
tp1067
a(S'ch_p2'
I1
tp1068
a(S'ch_p1'
I1
tp1069
a(S'w'
I669
tp1070
a(S'p1_vo'
I5
tp1071
a(S'w'
I8
tp1072
a(S'p2_vo'
I7
tp1073
a(S'w'
I725
tp1074
a(S'p1_vo'
I4
tp1075
a(S'w'
I8
tp1076
a(S'p2_vo'
I6
tp1077
a(S'w'
I726
tp1078
a(S'p1_vo'
I3
tp1079
a(S'w'
I8
tp1080
a(S'p2_vo'
I5
tp1081
a(S'w'
I727
tp1082
a(S'p1_vo'
I2
tp1083
a(S'w'
I1467
tp1084
a(S'p1_vo'
I1
tp1085
a(S'w'
I7
tp1086
a(S'p2_vo'
I1
tp1087
a(S'w'
I727
tp1088
a(S'p1_du'
I0
tp1089
a(S'p1_vo'
I0
tp1090
a(S'w'
I10
tp1091
a(S'p2_du'
I0
tp1092
a(S'p2_vo'
I0
tp1093
a(S'w'
I13
tp1094
a(S'tr_ll'
I1
tp1095
a(S'tr_th'
I1
tp1096
a(S'tr_ll'
I1
tp1097
a(S'w'
I2
tp1098
a(S'tr_tl'
I224
tp1099
a(S'w'
I5125
tp1100
a(S'p1_du'
I2
tp1101
a(S'p1_vo'
I6
tp1102
a(S'w'
I4
tp1103
a(S'w'
I30
tp1104
a(S'p2_du'
I1
tp1105
a(S'p2_vo'
I9
tp1106
a(S'w'
I4
tp1107
a(S'p2_tl'
I180
tp1108
a(S'w'
I21
tp1109
a(S'tr_ll'
I1
tp1110
a(S'tr_th'
I2
tp1111
a(S'tr_ll'
I1
tp1112
a(S'w'
I1
tp1113
a(S'tr_tl'
I207
tp1114
a(S'w'
I13
tp1115
a(S'ch_no'
I1
tp1116
a(S'ch_tr'
I1
tp1117
a(S'ch_p2'
I1
tp1118
a(S'ch_p1'
I1
tp1119
a(S'w'
I1
tp1120
a(S'ch_no'
I1
tp1121
a(S'ch_tr'
I1
tp1122
a(S'ch_p2'
I1
tp1123
a(S'ch_p1'
I1
tp1124
a(S'w'
I646
tp1125
a(S'p1_vo'
I5
tp1126
a(S'w'
I8
tp1127
a(S'p2_vo'
I8
tp1128
a(S'w'
I725
tp1129
a(S'p1_vo'
I4
tp1130
a(S'w'
I8
tp1131
a(S'p2_vo'
I7
tp1132
a(S'w'
I726
tp1133
a(S'p1_vo'
I3
tp1134
a(S'w'
I8
tp1135
a(S'p2_vo'
I2
tp1136
a(S'w'
I726
tp1137
a(S'p1_vo'
I2
tp1138
a(S'w'
I20
tp1139
a(S'p2_vo'
I5
tp1140
a(S'w'
I3
tp1141
a(S'w'
I714
tp1142
a(S'p2_vo'
I4
tp1143
a(S'w'
I730
tp1144
a(S'p1_vo'
I1
tp1145
a(S'w'
I7
tp1146
a(S'p2_vo'
I3
tp1147
a(S'w'
I742
tp1148
a(S'p1_vo'
I6
tp1149
a(S'w'
I4
tp1150
a(S'w'
I27
tp1151
a(S'p2_vo'
I9
tp1152
a(S'w'
I4
tp1153
a(S'w'
I13
tp1154
a(S'tr_ll'
I1
tp1155
a(S'tr_th'
I1
tp1156
a(S'tr_ll'
I1
tp1157
a(S'w'
I1
tp1158
a(S'tr_tl'
I224
tp1159
a(S'w'
I669
tp1160
a(S'p1_vo'
I5
tp1161
a(S'w'
I8
tp1162
a(S'p2_vo'
I8
tp1163
a(S'w'
I726
tp1164
a(S'p1_vo'
I4
tp1165
a(S'w'
I8
tp1166
a(S'p2_vo'
I7
tp1167
a(S'w'
I726
tp1168
a(S'p1_vo'
I3
tp1169
a(S'w'
I8
tp1170
a(S'p2_vo'
I2
tp1171
a(S'w'
I727
tp1172
a(S'p1_vo'
I2
tp1173
a(S'w'
I20
tp1174
a(S'p2_vo'
I5
tp1175
a(S'w'
I3
tp1176
a(S'w'
I713
tp1177
a(S'p2_vo'
I4
tp1178
a(S'w'
I730
tp1179
a(S'p1_vo'
I1
tp1180
a(S'w'
I7
tp1181
a(S'p2_vo'
I3
tp1182
a(S'w'
I743
tp1183
a(S'p1_vo'
I6
tp1184
a(S'w'
I4
tp1185
a(S'w'
I27
tp1186
a(S'p2_vo'
I9
tp1187
a(S'w'
I4
tp1188
a(S'w'
I16
tp1189
a(S'tr_ll'
I1
tp1190
a(S'tr_ll'
I1
tp1191
a(S'w'
I1
tp1192
a(S'tr_tl'
I104
tp1193
a(S'w'
I9
tp1194
a(S'ch_no'
I1
tp1195
a(S'ch_tr'
I1
tp1196
a(S'ch_p2'
I1
tp1197
a(S'ch_p1'
I1
tp1198
a(S'w'
I1
tp1199
a(S'ch_no'
I1
tp1200
a(S'ch_tr'
I1
tp1201
a(S'ch_p2'
I1
tp1202
a(S'ch_p1'
I1
tp1203
a(S'w'
I657
tp1204
a(S'p1_vo'
I5
tp1205
a(S'w'
I8
tp1206
a(S'p2_vo'
I8
tp1207
a(S'w'
I726
tp1208
a(S'p1_vo'
I4
tp1209
a(S'w'
I8
tp1210
a(S'p2_vo'
I7
tp1211
a(S'w'
I725
tp1212
a(S'p1_vo'
I3
tp1213
a(S'w'
I8
tp1214
a(S'p2_vo'
I2
tp1215
a(S'w'
I727
tp1216
a(S'p1_vo'
I2
tp1217
a(S'w'
I20
tp1218
a(S'p2_vo'
I5
tp1219
a(S'w'
I3
tp1220
a(S'w'
I714
tp1221
a(S'p2_vo'
I4
tp1222
a(S'w'
I730
tp1223
a(S'p1_vo'
I1
tp1224
a(S'w'
I7
tp1225
a(S'p2_vo'
I3
tp1226
a(S'w'
I742
tp1227
a(S'p1_vo'
I6
tp1228
a(S'w'
I4
tp1229
a(S'w'
I27
tp1230
a(S'p2_vo'
I9
tp1231
a(S'w'
I4
tp1232
a(S'w'
I22
tp1233
a(S'tr_ll'
I1
tp1234
a(S'tr_th'
I2
tp1235
a(S'tr_ll'
I1
tp1236
a(S'w'
I1
tp1237
a(S'tr_tl'
I207
tp1238
a(S'w'
I660
tp1239
a(S'p1_vo'
I5
tp1240
a(S'w'
I8
tp1241
a(S'p2_vo'
I8
tp1242
a(S'w'
I726
tp1243
a(S'p1_vo'
I4
tp1244
a(S'w'
I8
tp1245
a(S'p2_vo'
I7
tp1246
a(S'w'
I726
tp1247
a(S'p1_vo'
I3
tp1248
a(S'w'
I8
tp1249
a(S'p2_vo'
I2
tp1250
a(S'w'
I727
tp1251
a(S'p1_vo'
I2
tp1252
a(S'w'
I20
tp1253
a(S'p2_vo'
I5
tp1254
a(S'w'
I3
tp1255
a(S'w'
I713
tp1256
a(S'p2_vo'
I4
tp1257
a(S'w'
I729
tp1258
a(S'p1_vo'
I1
tp1259
a(S'w'
I7
tp1260
a(S'p2_vo'
I3
tp1261
a(S'w'
I743
tp1262
a(S'p1_vo'
I6
tp1263
a(S'w'
I4
tp1264
a(S'w'
I27
tp1265
a(S'p2_vo'
I9
tp1266
a(S'w'
I4
tp1267
a(S'w'
I12
tp1268
a(S'tr_ll'
I1
tp1269
a(S'tr_th'
I1
tp1270
a(S'w'
I1
tp1271
a(S'tr_ll'
I1
tp1272
a(S'w'
I1
tp1273
a(S'tr_tl'
I224
tp1274
a(S'w'
I9
tp1275
a(S'ch_no'
I1
tp1276
a(S'ch_tr'
I1
tp1277
a(S'ch_p2'
I1
tp1278
a(S'ch_p1'
I1
tp1279
a(S'w'
I1
tp1280
a(S'ch_no'
I1
tp1281
a(S'ch_tr'
I1
tp1282
a(S'ch_p2'
I1
tp1283
a(S'ch_p1'
I1
tp1284
a(S'w'
I660
tp1285
a(S'p1_vo'
I5
tp1286
a(S'w'
I8
tp1287
a(S'p2_vo'
I8
tp1288
a(S'w'
I726
tp1289
a(S'p1_vo'
I4
tp1290
a(S'w'
I8
tp1291
a(S'p2_vo'
I7
tp1292
a(S'w'
I725
tp1293
a(S'p1_vo'
I3
tp1294
a(S'w'
I8
tp1295
a(S'p2_vo'
I2
tp1296
a(S'w'
I726
tp1297
a(S'p1_vo'
I2
tp1298
a(S'w'
I20
tp1299
a(S'p2_vo'
I5
tp1300
a(S'w'
I3
tp1301
a(S'w'
I714
tp1302
a(S'p2_vo'
I4
tp1303
a(S'w'
I730
tp1304
a(S'p1_vo'
I1
tp1305
a(S'w'
I7
tp1306
a(S'p2_vo'
I3
tp1307
a(S'w'
I743
tp1308
a(S'p1_vo'
I6
tp1309
a(S'w'
I4
tp1310
a(S'w'
I27
tp1311
a(S'p2_vo'
I9
tp1312
a(S'w'
I4
tp1313
a(S'w'
I15
tp1314
a(S'tr_ll'
I1
tp1315
a(S'w'
I1
tp1316
a(S'tr_ll'
I1
tp1317
a(S'w'
I1
tp1318
a(S'tr_tl'
I104
tp1319
a(S'w'
I665
tp1320
a(S'p1_vo'
I5
tp1321
a(S'w'
I8
tp1322
a(S'p2_vo'
I8
tp1323
a(S'w'
I726
tp1324
a(S'p1_vo'
I4
tp1325
a(S'w'
I8
tp1326
a(S'p2_vo'
I7
tp1327
a(S'w'
I726
tp1328
a(S'p1_vo'
I3
tp1329
a(S'w'
I8
tp1330
a(S'p2_vo'
I2
tp1331
a(S'w'
I727
tp1332
a(S'p1_vo'
I2
tp1333
a(S'w'
I20
tp1334
a(S'p2_vo'
I5
tp1335
a(S'w'
I3
tp1336
a(S'w'
I714
tp1337
a(S'p2_vo'
I4
tp1338
a(S'w'
I729
tp1339
a(S'p1_vo'
I1
tp1340
a(S'w'
I7
tp1341
a(S'p2_vo'
I3
tp1342
a(S'w'
I743
tp1343
a(S'p1_vo'
I6
tp1344
a(S'w'
I4
tp1345
a(S'w'
I26
tp1346
a(S'p2_vo'
I8
tp1347
a(S'w'
I4
tp1348
a(S'w'
I21
tp1349
a(S'tr_ll'
I1
tp1350
a(S'tr_th'
I2
tp1351
a(S'tr_ll'
I1
tp1352
a(S'w'
I1
tp1353
a(S'tr_tl'
I207
tp1354
a(S'w'
I8
tp1355
a(S'ch_no'
I1
tp1356
a(S'ch_tr'
I1
tp1357
a(S'ch_p2'
I1
tp1358
a(S'ch_p1'
I1
tp1359
a(S'w'
I1
tp1360
a(S'ch_no'
I1
tp1361
a(S'ch_tr'
I1
tp1362
a(S'ch_p2'
I1
tp1363
a(S'ch_p1'
I1
tp1364
a(S'w'
I654
tp1365
a(S'p1_vo'
I5
tp1366
a(S'w'
I8
tp1367
a(S'p2_vo'
I7
tp1368
a(S'w'
I726
tp1369
a(S'p1_vo'
I4
tp1370
a(S'w'
I8
tp1371
a(S'p2_vo'
I6
tp1372
a(S'w'
I725
tp1373
a(S'p1_vo'
I3
tp1374
a(S'w'
I8
tp1375
a(S'p2_vo'
I5
tp1376
a(S'w'
I727
tp1377
a(S'p1_vo'
I2
tp1378
a(S'w'
I7
tp1379
a(S'p2_vo'
I1
tp1380
a(S'w'
I732
tp1381
a(S'p2_du'
I0
tp1382
a(S'p2_vo'
I0
tp1383
a(S'w'
I728
tp1384
a(S'p1_vo'
I1
tp1385
a(S'w'
I19
tp1386
a(S'p2_du'
I1
tp1387
a(S'p2_vo'
I5
tp1388
a(S'w'
I4
tp1389
a(S'w'
I730
tp1390
a(S'p1_vo'
I6
tp1391
a(S'w'
I3
tp1392
a(S'p1_tl'
I202
tp1393
a(S'w'
I25
tp1394
a(S'p2_vo'
I8
tp1395
a(S'w'
I4
tp1396
a(S'p2_tl'
I160
tp1397
a(S'w'
I13
tp1398
a(S'tr_ll'
I1
tp1399
a(S'tr_th'
I1
tp1400
a(S'tr_ll'
I1
tp1401
a(S'w'
I2
tp1402
a(S'tr_tl'
I224
tp1403
a(S'w'
I8
tp1404
a(S'ch_no'
I1
tp1405
a(S'ch_tr'
I1
tp1406
a(S'ch_p2'
I1
tp1407
a(S'ch_p1'
I1
tp1408
a(S'w'
I1
tp1409
a(S'ch_no'
I1
tp1410
a(S'ch_tr'
I1
tp1411
a(S'ch_p2'
I1
tp1412
a(S'ch_p1'
I1
tp1413
a(S'w'
I658
tp1414
a(S'p1_vo'
I5
tp1415
a(S'w'
I8
tp1416
a(S'p2_vo'
I7
tp1417
a(S'w'
I726
tp1418
a(S'p1_vo'
I4
tp1419
a(S'w'
I8
tp1420
a(S'p2_vo'
I6
tp1421
a(S'w'
I726
tp1422
a(S'p1_vo'
I3
tp1423
a(S'w'
I8
tp1424
a(S'p2_vo'
I5
tp1425
a(S'w'
I2946
tp1426
a(S'tr_ll'
I1
tp1427
a(S'tr_th'
I2
tp1428
a(S'w'
I1
tp1429
a(S'tr_ll'
I1
tp1430
a(S'w'
I1
tp1431
a(S'tr_tl'
I207
tp1432
a(S'w'
I713
tp1433
a(S'p1_vo'
I2
tp1434
a(S'w'
I1467
tp1435
a(S'p1_vo'
I1
tp1436
a(S'w'
I737
tp1437
a(S'p2_vo'
I1
tp1438
a(S'w'
I2208
tp1439
a(S'p1_vo'
I6
tp1440
a(S'w'
I4
tp1441
a(S'w'
I17
tp1442
a(S'p2_vo'
I8
tp1443
a(S'w'
I4
tp1444
a(S'w'
I16
tp1445
a(S'tr_ll'
I1
tp1446
a(S'tr_th'
I1
tp1447
a(S'tr_ll'
I1
tp1448
a(S'w'
I1
tp1449
a(S'tr_tl'
I148
tp1450
a(S'w'
I8
tp1451
a(S'ch_no'
I1
tp1452
a(S'ch_tr'
I1
tp1453
a(S'ch_p2'
I1
tp1454
a(S'ch_p1'
I1
tp1455
a(S'w'
I1
tp1456
a(S'ch_no'
I1
tp1457
a(S'ch_tr'
I1
tp1458
a(S'ch_p2'
I1
tp1459
a(S'ch_p1'
I1
tp1460
a(S'w'
I674
tp1461
a(S'p1_vo'
I5
tp1462
a(S'w'
I8
tp1463
a(S'p2_vo'
I7
tp1464
a(S'w'
I725
tp1465
a(S'p1_vo'
I4
tp1466
a(S'w'
I8
tp1467
a(S'p2_vo'
I6
tp1468
a(S'w'
I726
tp1469
a(S'p1_vo'
I3
tp1470
a(S'w'
I8
tp1471
a(S'p2_vo'
I5
tp1472
a(S'w'
I726
tp1473
a(S'p1_vo'
I2
tp1474
a(S'w'
I1466
tp1475
a(S'p1_vo'
I1
tp1476
a(S'w'
I7
tp1477
a(S'p2_vo'
I1
tp1478
a(S'w'
I737
tp1479
a(S'p1_vo'
I6
tp1480
a(S'w'
I4
tp1481
a(S'w'
I17
tp1482
a(S'p2_vo'
I8
tp1483
a(S'w'
I4
tp1484
a(S'w'
I13
tp1485
a(S'tr_ll'
I1
tp1486
a(S'tr_ll'
I1
tp1487
a(S'w'
I2
tp1488
a(S'tr_tl'
I104
tp1489
a(S'w'
I8
tp1490
a(S'ch_no'
I1
tp1491
a(S'ch_tr'
I1
tp1492
a(S'ch_p2'
I1
tp1493
a(S'ch_p1'
I1
tp1494
a(S'w'
I1
tp1495
a(S'ch_no'
I1
tp1496
a(S'ch_tr'
I1
tp1497
a(S'ch_p2'
I1
tp1498
a(S'ch_p1'
I1
tp1499
a(S'w'
I676
tp1500
a(S'p1_vo'
I5
tp1501
a(S'w'
I8
tp1502
a(S'p2_vo'
I7
tp1503
a(S'w'
I726
tp1504
a(S'p1_vo'
I4
tp1505
a(S'w'
I8
tp1506
a(S'p2_vo'
I6
tp1507
a(S'w'
I726
tp1508
a(S'p1_vo'
I3
tp1509
a(S'w'
I8
tp1510
a(S'p2_vo'
I5
tp1511
a(S'w'
I726
tp1512
a(S'p1_vo'
I2
tp1513
a(S'w'
I1467
tp1514
a(S'p1_vo'
I1
tp1515
a(S'w'
I7
tp1516
a(S'p2_vo'
I1
tp1517
a(S'w'
I728
tp1518
a(S'p1_du'
I0
tp1519
a(S'p1_vo'
I0
tp1520
a(S'w'
I10
tp1521
a(S'p2_du'
I0
tp1522
a(S'p2_vo'
I0
tp1523
a(S'w'
I22
tp1524
a(S'tr_ll'
I1
tp1525
a(S'tr_th'
I2
tp1526
a(S'tr_ll'
I1
tp1527
a(S'w'
I1
tp1528
a(S'tr_tl'
I207
tp1529
a(S'w'
I5111
tp1530
a(S'p1_du'
I2
tp1531
a(S'p1_vo'
I6
tp1532
a(S'w'
I4
tp1533
a(S'w'
I17
tp1534
a(S'p2_du'
I1
tp1535
a(S'p2_vo'
I8
tp1536
a(S'w'
I4
tp1537
a(S'w'
I16
tp1538
a(S'tr_ll'
I1
tp1539
a(S'tr_th'
I1
tp1540
a(S'tr_ll'
I1
tp1541
a(S'w'
I1
tp1542
a(S'tr_tl'
I148
tp1543
a(S'w'
I9
tp1544
a(S'ch_no'
I1
tp1545
a(S'ch_tr'
I1
tp1546
a(S'ch_p2'
I1
tp1547
a(S'ch_p1'
I1
tp1548
a(S'w'
I1
tp1549
a(S'ch_no'
I1
tp1550
a(S'ch_tr'
I1
tp1551
a(S'ch_p2'
I1
tp1552
a(S'ch_p1'
I1
tp1553
a(S'w'
I673
tp1554
a(S'p1_vo'
I5
tp1555
a(S'w'
I8
tp1556
a(S'p2_vo'
I7
tp1557
a(S'w'
I726
tp1558
a(S'p1_vo'
I4
tp1559
a(S'w'
I8
tp1560
a(S'p2_vo'
I6
tp1561
a(S'w'
I726
tp1562
a(S'p1_vo'
I3
tp1563
a(S'w'
I8
tp1564
a(S'p2_vo'
I5
tp1565
a(S'w'
I726
tp1566
a(S'p1_vo'
I2
tp1567
a(S'w'
I1466
tp1568
a(S'p1_vo'
I1
tp1569
a(S'w'
I7
tp1570
a(S'p2_vo'
I1
tp1571
a(S'w'
I728
tp1572
a(S'p1_du'
I0
tp1573
a(S'p1_vo'
I0
tp1574
a(S'w'
I10
tp1575
a(S'p2_du'
I0
tp1576
a(S'p2_vo'
I0
tp1577
a(S'w'
I13
tp1578
a(S'tr_ll'
I1
tp1579
a(S'tr_ll'
I1
tp1580
a(S'w'
I2
tp1581
a(S'tr_tl'
I104
tp1582
a(S'w'
I5120
tp1583
a(S'p1_du'
I2
tp1584
a(S'p1_vo'
I6
tp1585
a(S'w'
I4
tp1586
a(S'w'
I17
tp1587
a(S'p2_du'
I1
tp1588
a(S'p2_vo'
I8
tp1589
a(S'w'
I4
tp1590
a(S'w'
I20
tp1591
a(S'tr_ll'
I1
tp1592
a(S'tr_th'
I2
tp1593
a(S'w'
I1
tp1594
a(S'tr_ll'
I1
tp1595
a(S'w'
I1
tp1596
a(S'tr_tl'
I207
tp1597
a(S'w'
I9
tp1598
a(S'ch_no'
I1
tp1599
a(S'ch_tr'
I1
tp1600
a(S'ch_p2'
I1
tp1601
a(S'ch_p1'
I1
tp1602
a(S'ch_no'
I1
tp1603
a(S'ch_tr'
I1
tp1604
a(S'ch_p2'
I1
tp1605
a(S'ch_p1'
I1
tp1606
a(S'w'
I669
tp1607
a(S'p1_vo'
I5
tp1608
a(S'w'
I8
tp1609
a(S'p2_vo'
I7
tp1610
a(S'w'
I726
tp1611
a(S'p1_vo'
I4
tp1612
a(S'w'
I8
tp1613
a(S'p2_vo'
I6
tp1614
a(S'w'
I726
tp1615
a(S'p1_vo'
I3
tp1616
a(S'w'
I8
tp1617
a(S'p2_vo'
I5
tp1618
a(S'w'
I727
tp1619
a(S'p1_vo'
I2
tp1620
a(S'w'
I1466
tp1621
a(S'p1_vo'
I1
tp1622
a(S'w'
I7
tp1623
a(S'p2_vo'
I1
tp1624
a(S'w'
I729
tp1625
a(S'p1_du'
I0
tp1626
a(S'p1_vo'
I0
tp1627
a(S'w'
I9
tp1628
a(S'p2_du'
I0
tp1629
a(S'p2_vo'
I0
tp1630
a(S'w'
I16
tp1631
a(S'tr_ll'
I1
tp1632
a(S'tr_th'
I1
tp1633
a(S'tr_ll'
I1
tp1634
a(S'w'
I2
tp1635
a(S'tr_tl'
I148
tp1636
a(S'w'
I5122
tp1637
a(S'p1_du'
I2
tp1638
a(S'p1_vo'
I6
tp1639
a(S'w'
I4
tp1640
a(S'p1_tl'
I214
tp1641
a(S'w'
I31
tp1642
a(S'p2_du'
I1
tp1643
a(S'p2_vo'
I9
tp1644
a(S'w'
I4
tp1645
a(S'p2_tl'
I135
tp1646
a(S'w'
I20
tp1647
a(S'tr_ll'
I1
tp1648
a(S'tr_th'
I2
tp1649
a(S'tr_ll'
I1
tp1650
a(S'w'
I2
tp1651
a(S'tr_tl'
I207
tp1652
a(S'w'
I12
tp1653
a(S'ch_no'
I1
tp1654
a(S'ch_tr'
I1
tp1655
a(S'ch_p2'
I1
tp1656
a(S'ch_p1'
I1
tp1657
a(S'w'
I1
tp1658
a(S'ch_no'
I1
tp1659
a(S'ch_tr'
I1
tp1660
a(S'ch_p2'
I1
tp1661
a(S'ch_p1'
I1
tp1662
a(S'w'
I645
tp1663
a(S'p1_vo'
I5
tp1664
a(S'w'
I7
tp1665
a(S'p2_vo'
I8
tp1666
a(S'w'
I727
tp1667
a(S'p1_vo'
I4
tp1668
a(S'w'
I8
tp1669
a(S'p2_vo'
I7
tp1670
a(S'w'
I726
tp1671
a(S'p1_vo'
I3
tp1672
a(S'w'
I8
tp1673
a(S'p2_vo'
I2
tp1674
a(S'w'
I726
tp1675
a(S'p1_vo'
I2
tp1676
a(S'w'
I20
tp1677
a(S'p2_vo'
I5
tp1678
a(S'w'
I3
tp1679
a(S'w'
I713
tp1680
a(S'p2_vo'
I4
tp1681
a(S'w'
I730
tp1682
a(S'p1_vo'
I1
tp1683
a(S'w'
I7
tp1684
a(S'p2_vo'
I3
tp1685
a(S'w'
I743
tp1686
a(S'p1_vo'
I6
tp1687
a(S'w'
I4
tp1688
a(S'w'
I27
tp1689
a(S'p2_vo'
I9
tp1690
a(S'w'
I4
tp1691
a(S'w'
I16
tp1692
a(S'tr_ll'
I1
tp1693
a(S'tr_th'
I1
tp1694
a(S'tr_ll'
I1
tp1695
a(S'w'
I2
tp1696
a(S'tr_tl'
I172
tp1697
a(S'w'
I665
tp1698
a(S'p1_vo'
I5
tp1699
a(S'w'
I8
tp1700
a(S'p2_vo'
I8
tp1701
a(S'w'
I726
tp1702
a(S'p1_vo'
I4
tp1703
a(S'w'
I8
tp1704
a(S'p2_vo'
I7
tp1705
a(S'w'
I725
tp1706
a(S'p1_vo'
I3
tp1707
a(S'w'
I8
tp1708
a(S'p2_vo'
I2
tp1709
a(S'w'
I727
tp1710
a(S'p1_vo'
I2
tp1711
a(S'w'
I20
tp1712
a(S'p2_vo'
I5
tp1713
a(S'w'
I3
tp1714
a(S'w'
I714
tp1715
a(S'p2_vo'
I4
tp1716
a(S'w'
I730
tp1717
a(S'p1_vo'
I1
tp1718
a(S'w'
I7
tp1719
a(S'p2_vo'
I3
tp1720
a(S'w'
I743
tp1721
a(S'p1_vo'
I6
tp1722
a(S'w'
I4
tp1723
a(S'w'
I27
tp1724
a(S'p2_vo'
I9
tp1725
a(S'w'
I4
tp1726
a(S'w'
I13
tp1727
a(S'tr_ll'
I1
tp1728
a(S'tr_ll'
I1
tp1729
a(S'w'
I2
tp1730
a(S'tr_tl'
I104
tp1731
a(S'w'
I8
tp1732
a(S'ch_no'
I1
tp1733
a(S'ch_tr'
I1
tp1734
a(S'ch_p2'
I1
tp1735
a(S'ch_p1'
I1
tp1736
a(S'w'
I1
tp1737
a(S'ch_no'
I1
tp1738
a(S'ch_tr'
I1
tp1739
a(S'ch_p2'
I1
tp1740
a(S'ch_p1'
I1
tp1741
a(S'w'
I659
tp1742
a(S'p1_vo'
I5
tp1743
a(S'w'
I8
tp1744
a(S'p2_vo'
I8
tp1745
a(S'w'
I726
tp1746
a(S'p1_vo'
I4
tp1747
a(S'w'
I8
tp1748
a(S'p2_vo'
I7
tp1749
a(S'w'
I726
tp1750
a(S'p1_vo'
I3
tp1751
a(S'w'
I8
tp1752
a(S'p2_vo'
I2
tp1753
a(S'w'
I727
tp1754
a(S'p1_vo'
I2
tp1755
a(S'w'
I20
tp1756
a(S'p2_vo'
I5
tp1757
a(S'w'
I3
tp1758
a(S'w'
I714
tp1759
a(S'p2_vo'
I4
tp1760
a(S'w'
I729
tp1761
a(S'p1_vo'
I1
tp1762
a(S'w'
I7
tp1763
a(S'p2_vo'
I3
tp1764
a(S'w'
I744
tp1765
a(S'p1_vo'
I6
tp1766
a(S'w'
I3
tp1767
a(S'w'
I27
tp1768
a(S'p2_vo'
I9
tp1769
a(S'w'
I4
tp1770
a(S'w'
I22
tp1771
a(S'tr_ll'
I1
tp1772
a(S'tr_th'
I2
tp1773
a(S'tr_ll'
I1
tp1774
a(S'w'
I2
tp1775
a(S'tr_tl'
I207
tp1776
a(S'w'
I659
tp1777
a(S'p1_vo'
I5
tp1778
a(S'w'
I8
tp1779
a(S'p2_vo'
I8
tp1780
a(S'w'
I726
tp1781
a(S'p1_vo'
I4
tp1782
a(S'w'
I8
tp1783
a(S'p2_vo'
I7
tp1784
a(S'w'
I726
tp1785
a(S'p1_vo'
I3
tp1786
a(S'w'
I8
tp1787
a(S'p2_vo'
I2
tp1788
a(S'w'
I726
tp1789
a(S'p1_vo'
I2
tp1790
a(S'w'
I20
tp1791
a(S'p2_vo'
I5
tp1792
a(S'w'
I3
tp1793
a(S'w'
I714
tp1794
a(S'p2_vo'
I4
tp1795
a(S'w'
I729
tp1796
a(S'p1_vo'
I1
tp1797
a(S'w'
I7
tp1798
a(S'p2_vo'
I3
tp1799
a(S'w'
I743
tp1800
a(S'p1_vo'
I6
tp1801
a(S'w'
I4
tp1802
a(S'w'
I27
tp1803
a(S'p2_vo'
I9
tp1804
a(S'w'
I4
tp1805
a(S'w'
I16
tp1806
a(S'tr_ll'
I1
tp1807
a(S'tr_th'
I1
tp1808
a(S'tr_ll'
I1
tp1809
a(S'w'
I2
tp1810
a(S'tr_tl'
I172
tp1811
a(S'w'
I8
tp1812
a(S'ch_no'
I1
tp1813
a(S'ch_tr'
I1
tp1814
a(S'ch_p2'
I1
tp1815
a(S'ch_p1'
I1
tp1816
a(S'w'
I1
tp1817
a(S'ch_no'
I1
tp1818
a(S'ch_tr'
I1
tp1819
a(S'ch_p2'
I1
tp1820
a(S'ch_p1'
I1
tp1821
a(S'w'
I656
tp1822
a(S'p1_vo'
I5
tp1823
a(S'w'
I8
tp1824
a(S'p2_vo'
I8
tp1825
a(S'w'
I726
tp1826
a(S'p1_vo'
I4
tp1827
a(S'w'
I8
tp1828
a(S'p2_vo'
I7
tp1829
a(S'w'
I726
tp1830
a(S'p1_vo'
I3
tp1831
a(S'w'
I8
tp1832
a(S'p2_vo'
I2
tp1833
a(S'w'
I726
tp1834
a(S'p1_vo'
I2
tp1835
a(S'w'
I20
tp1836
a(S'p2_vo'
I5
tp1837
a(S'w'
I3
tp1838
a(S'w'
I714
tp1839
a(S'p2_vo'
I4
tp1840
a(S'w'
I729
tp1841
a(S'p1_vo'
I1
tp1842
a(S'w'
I7
tp1843
a(S'p2_vo'
I3
tp1844
a(S'w'
I743
tp1845
a(S'p1_vo'
I6
tp1846
a(S'w'
I4
tp1847
a(S'w'
I27
tp1848
a(S'p2_vo'
I9
tp1849
a(S'w'
I4
tp1850
a(S'w'
I13
tp1851
a(S'tr_ll'
I1
tp1852
a(S'tr_ll'
I1
tp1853
a(S'w'
I2
tp1854
a(S'tr_tl'
I104
tp1855
a(S'w'
I668
tp1856
a(S'p1_vo'
I5
tp1857
a(S'w'
I8
tp1858
a(S'p2_vo'
I8
tp1859
a(S'w'
I726
tp1860
a(S'p1_vo'
I4
tp1861
a(S'w'
I8
tp1862
a(S'p2_vo'
I7
tp1863
a(S'w'
I726
tp1864
a(S'p1_vo'
I3
tp1865
a(S'w'
I8
tp1866
a(S'p2_vo'
I2
tp1867
a(S'w'
I726
tp1868
a(S'p1_vo'
I2
tp1869
a(S'w'
I20
tp1870
a(S'p2_vo'
I5
tp1871
a(S'w'
I3
tp1872
a(S'w'
I714
tp1873
a(S'p2_vo'
I4
tp1874
a(S'w'
I730
tp1875
a(S'p1_vo'
I1
tp1876
a(S'w'
I7
tp1877
a(S'p2_vo'
I3
tp1878
a(S'w'
I743
tp1879
a(S'p1_vo'
I6
tp1880
a(S'w'
I4
tp1881
a(S'w'
I27
tp1882
a(S'p2_vo'
I9
tp1883
a(S'w'
I4
tp1884
a(S'w'
I21
tp1885
a(S'tr_ll'
I1
tp1886
a(S'tr_th'
I2
tp1887
a(S'tr_ll'
I1
tp1888
a(S'w'
I1
tp1889
a(S'tr_tl'
I207
tp1890
a(S'w'
I8
tp1891
a(S'ch_no'
I1
tp1892
a(S'ch_tr'
I1
tp1893
a(S'ch_p2'
I1
tp1894
a(S'ch_p1'
I1
tp1895
a(S'w'
I1
tp1896
a(S'ch_no'
I1
tp1897
a(S'ch_tr'
I1
tp1898
a(S'ch_p2'
I1
tp1899
a(S'ch_p1'
I1
tp1900
a(S'w'
I653
tp1901
a(S'p1_vo'
I5
tp1902
a(S'w'
I8
tp1903
a(S'p2_vo'
I8
tp1904
a(S'w'
I725
tp1905
a(S'p1_vo'
I4
tp1906
a(S'w'
I8
tp1907
a(S'p2_vo'
I7
tp1908
a(S'w'
I726
tp1909
a(S'p1_vo'
I3
tp1910
a(S'w'
I8
tp1911
a(S'p2_vo'
I2
tp1912
a(S'w'
I727
tp1913
a(S'p1_vo'
I2
tp1914
a(S'w'
I20
tp1915
a(S'p2_vo'
I5
tp1916
a(S'w'
I3
tp1917
a(S'w'
I714
tp1918
a(S'p2_vo'
I4
tp1919
a(S'w'
I730
tp1920
a(S'p1_vo'
I1
tp1921
a(S'w'
I7
tp1922
a(S'p2_vo'
I3
tp1923
a(S'w'
I754
tp1924
a(S'p1_vo'
I6
tp1925
a(S'w'
I4
tp1926
a(S'p1_tl'
I240
tp1927
a(S'w'
I40
tp1928
a(S'p2_vo'
I8
tp1929
a(S'w'
I4
tp1930
a(S'p2_tl'
I143
tp1931
a(S'w'
I15
tp1932
a(S'tr_ll'
I1
tp1933
a(S'tr_th'
I1
tp1934
a(S'tr_ll'
I1
tp1935
a(S'w'
I2
tp1936
a(S'tr_tl'
I172
tp1937
a(S'w'
I8
tp1938
a(S'ch_no'
I1
tp1939
a(S'ch_tr'
I1
tp1940
a(S'ch_p2'
I1
tp1941
a(S'ch_p1'
I1
tp1942
a(S'w'
I1
tp1943
a(S'ch_no'
I1
tp1944
a(S'ch_tr'
I1
tp1945
a(S'ch_p2'
I1
tp1946
a(S'ch_p1'
I1
tp1947
a(S'w'
I632
tp1948
a(S'p1_vo'
I5
tp1949
a(S'w'
I8
tp1950
a(S'p2_vo'
I7
tp1951
a(S'w'
I726
tp1952
a(S'p1_vo'
I4
tp1953
a(S'w'
I8
tp1954
a(S'p2_vo'
I6
tp1955
a(S'w'
I726
tp1956
a(S'p1_vo'
I3
tp1957
a(S'w'
I8
tp1958
a(S'p2_vo'
I5
tp1959
a(S'w'
I2947
tp1960
a(S'tr_ll'
I1
tp1961
a(S'tr_th'
I2
tp1962
a(S'tr_ll'
I1
tp1963
a(S'w'
I2
tp1964
a(S'tr_tl'
I207
tp1965
a(S'w'
I5118
tp1966
a(S'p1_tl'
I239
tp1967
a(S'w'
I14
tp1968
a(S'p2_tl'
I142
tp1969
a(S'w'
I16
tp1970
a(S'tr_ll'
I1
tp1971
a(S'tr_th'
I1
tp1972
a(S'tr_ll'
I1
tp1973
a(S'w'
I1
tp1974
a(S'tr_tl'
I104
tp1975
a(S'w'
I8
tp1976
a(S'ch_no'
I1
tp1977
a(S'ch_tr'
I1
tp1978
a(S'ch_p2'
I1
tp1979
a(S'ch_p1'
I1
tp1980
a(S'w'
I1
tp1981
a(S'ch_no'
I1
tp1982
a(S'ch_tr'
I1
tp1983
a(S'ch_p2'
I1
tp1984
a(S'ch_p1'
I1
tp1985
a(S'w'
I694
tp1986
a(S'p1_tl'
I238
tp1987
a(S'w'
I13
tp1988
a(S'p2_tl'
I141
tp1989
a(S'w'
I721
tp1990
a(S'p1_tl'
I239
tp1991
a(S'w'
I13
tp1992
a(S'p2_tl'
I142
tp1993
a(S'w'
I721
tp1994
a(S'p1_tl'
I240
tp1995
a(S'w'
I13
tp1996
a(S'p2_tl'
I143
tp1997
a(S'w'
I720
tp1998
a(S'p1_tl'
I241
tp1999
a(S'w'
I13
tp2000
a(S'p2_tl'
I144
tp2001
a(S'w'
I720
tp2002
a(S'p1_tl'
I242
tp2003
a(S'w'
I13
tp2004
a(S'p2_tl'
I145
tp2005
a(S'w'
I721
tp2006
a(S'p1_tl'
I241
tp2007
a(S'w'
I13
tp2008
a(S'p2_tl'
I144
tp2009
a(S'w'
I721
tp2010
a(S'p1_tl'
I240
tp2011
a(S'w'
I13
tp2012
a(S'p2_tl'
I143
tp2013
a(S'w'
I21
tp2014
a(S'tr_ll'
I1
tp2015
a(S'tr_th'
I2
tp2016
a(S'w'
I1
tp2017
a(S'tr_ll'
I1
tp2018
a(S'w'
I1
tp2019
a(S'tr_tl'
I207
tp2020
a(S'w'
I9
tp2021
a(S'ch_no'
I1
tp2022
a(S'ch_tr'
I1
tp2023
a(S'ch_p2'
I1
tp2024
a(S'ch_p1'
I1
tp2025
a(S'ch_no'
I1
tp2026
a(S'ch_tr'
I1
tp2027
a(S'ch_p2'
I1
tp2028
a(S'ch_p1'
I1
tp2029
a(S'w'
I692
tp2030
a(S'p1_tl'
I239
tp2031
a(S'w'
I14
tp2032
a(S'p2_tl'
I142
tp2033
a(S'w'
I718
tp2034
a(S'p1_tl'
I238
tp2035
a(S'w'
I13
tp2036
a(S'p2_tl'
I141
tp2037
a(S'w'
I720
tp2038
a(S'p1_tl'
I239
tp2039
a(S'w'
I13
tp2040
a(S'p2_tl'
I142
tp2041
a(S'w'
I721
tp2042
a(S'p1_tl'
I240
tp2043
a(S'w'
I13
tp2044
a(S'p2_tl'
I143
tp2045
a(S'w'
I721
tp2046
a(S'p1_tl'
I241
tp2047
a(S'w'
I13
tp2048
a(S'p2_tl'
I144
tp2049
a(S'w'
I721
tp2050
a(S'p1_tl'
I242
tp2051
a(S'w'
I13
tp2052
a(S'p2_tl'
I145
tp2053
a(S'w'
I720
tp2054
a(S'p1_tl'
I241
tp2055
a(S'w'
I13
tp2056
a(S'p2_tl'
I144
tp2057
a(S'w'
I16
tp2058
a(S'tr_ll'
I1
tp2059
a(S'tr_th'
I1
tp2060
a(S'tr_ll'
I1
tp2061
a(S'w'
I2
tp2062
a(S'tr_tl'
I104
tp2063
a(S'w'
I703
tp2064
a(S'p1_tl'
I240
tp2065
a(S'w'
I13
tp2066
a(S'p2_tl'
I143
tp2067
a(S'w'
I723
tp2068
a(S'p1_tl'
I239
tp2069
a(S'w'
I14
tp2070
a(S'p2_tl'
I142
tp2071
a(S'w'
I718
tp2072
a(S'p1_tl'
I238
tp2073
a(S'w'
I13
tp2074
a(S'p2_tl'
I141
tp2075
a(S'w'
I721
tp2076
a(S'p1_tl'
I239
tp2077
a(S'w'
I13
tp2078
a(S'p2_tl'
I142
tp2079
a(S'w'
I720
tp2080
a(S'p1_tl'
I240
tp2081
a(S'w'
I13
tp2082
a(S'p2_tl'
I143
tp2083
a(S'w'
I720
tp2084
a(S'p1_tl'
I241
tp2085
a(S'w'
I13
tp2086
a(S'p2_tl'
I144
tp2087
a(S'w'
I721
tp2088
a(S'p1_tl'
I242
tp2089
a(S'w'
I13
tp2090
a(S'p2_tl'
I145
tp2091
a(S'w'
I22
tp2092
a(S'tr_ll'
I1
tp2093
a(S'tr_th'
I2
tp2094
a(S'tr_ll'
I1
tp2095
a(S'w'
I1
tp2096
a(S'tr_tl'
I207
tp2097
a(S'w'
I8
tp2098
a(S'ch_no'
I1
tp2099
a(S'ch_tr'
I1
tp2100
a(S'ch_p2'
I1
tp2101
a(S'ch_p1'
I1
tp2102
a(S'w'
I1
tp2103
a(S'ch_no'
I1
tp2104
a(S'ch_tr'
I1
tp2105
a(S'ch_p2'
I1
tp2106
a(S'ch_p1'
I1
tp2107
a(S'w'
I691
tp2108
a(S'p1_tl'
I241
tp2109
a(S'w'
I5
tp2110
a(S'p1_vo'
I2
tp2111
a(S'w'
I12
tp2112
a(S'p2_tl'
I144
tp2113
a(S'w'
I717
tp2114
a(S'p1_tl'
I240
tp2115
a(S'w'
I13
tp2116
a(S'p2_tl'
I143
tp2117
a(S'w'
I721
tp2118
a(S'p1_tl'
I239
tp2119
a(S'w'
I5
tp2120
a(S'p1_vo'
I1
tp2121
a(S'w'
I13
tp2122
a(S'p2_tl'
I142
tp2123
a(S'w'
I715
tp2124
a(S'p1_tl'
I238
tp2125
a(S'w'
I13
tp2126
a(S'p2_tl'
I141
tp2127
a(S'w'
I721
tp2128
a(S'p1_tl'
I239
tp2129
a(S'w'
I16
tp2130
a(S'p2_tl'
I142
tp2131
a(S'w'
I718
tp2132
a(S'p1_tl'
I240
tp2133
a(S'w'
I13
tp2134
a(S'p2_tl'
I143
tp2135
a(S'w'
I721
tp2136
a(S'p1_tl'
I241
tp2137
a(S'w'
I16
tp2138
a(S'p2_tl'
I144
tp2139
a(S'w'
I16
tp2140
a(S'tr_ll'
I1
tp2141
a(S'tr_th'
I1
tp2142
a(S'tr_ll'
I1
tp2143
a(S'w'
I1
tp2144
a(S'tr_tl'
I104
tp2145
a(S'w'
I8
tp2146
a(S'ch_no'
I1
tp2147
a(S'ch_tr'
I1
tp2148
a(S'ch_p2'
I1
tp2149
a(S'ch_p1'
I1
tp2150
a(S'w'
I1
tp2151
a(S'ch_no'
I1
tp2152
a(S'ch_tr'
I1
tp2153
a(S'ch_p2'
I1
tp2154
a(S'ch_p1'
I1
tp2155
a(S'w'
I690
tp2156
a(S'p1_tl'
I242
tp2157
a(S'w'
I13
tp2158
a(S'p2_tl'
I145
tp2159
a(S'w'
I721
tp2160
a(S'p1_tl'
I241
tp2161
a(S'w'
I16
tp2162
a(S'p2_tl'
I144
tp2163
a(S'w'
I718
tp2164
a(S'p1_tl'
I240
tp2165
a(S'w'
I13
tp2166
a(S'p2_tl'
I143
tp2167
a(S'w'
I723
tp2168
a(S'p1_tl'
I239
tp2169
a(S'w'
I18
tp2170
a(S'p2_tl'
I142
tp2171
a(S'w'
I714
tp2172
a(S'p1_tl'
I238
tp2173
a(S'w'
I13
tp2174
a(S'p2_tl'
I141
tp2175
a(S'w'
I720
tp2176
a(S'p1_tl'
I239
tp2177
a(S'w'
I16
tp2178
a(S'p2_tl'
I142
tp2179
a(S'w'
I4
tp2180
a(S'p2_vo'
I1
tp2181
a(S'w'
I714
tp2182
a(S'p1_tl'
I240
tp2183
a(S'w'
I13
tp2184
a(S'p2_tl'
I143
tp2185
a(S'w'
I22
tp2186
a(S'tr_ll'
I1
tp2187
a(S'tr_th'
I2
tp2188
a(S'tr_ll'
I1
tp2189
a(S'w'
I2
tp2190
a(S'tr_tl'
I207
tp2191
a(S'w'
I8
tp2192
a(S'ch_no'
I1
tp2193
a(S'ch_tr'
I1
tp2194
a(S'ch_p2'
I1
tp2195
a(S'ch_p1'
I1
tp2196
a(S'w'
I1
tp2197
a(S'ch_no'
I1
tp2198
a(S'ch_tr'
I1
tp2199
a(S'ch_p2'
I1
tp2200
a(S'ch_p1'
I1
tp2201
a(S'w'
I688
tp2202
a(S'p1_tl'
I241
tp2203
a(S'w'
I16
tp2204
a(S'p2_tl'
I144
tp2205
a(S'w'
I718
tp2206
a(S'p1_tl'
I242
tp2207
a(S'w'
I13
tp2208
a(S'p2_tl'
I145
tp2209
a(S'w'
I720
tp2210
a(S'p1_tl'
I241
tp2211
a(S'w'
I16
tp2212
a(S'p2_tl'
I144
tp2213
a(S'w'
I718
tp2214
a(S'p1_tl'
I240
tp2215
a(S'w'
I13
tp2216
a(S'p2_tl'
I143
tp2217
a(S'w'
I723
tp2218
a(S'p1_tl'
I239
tp2219
a(S'w'
I17
tp2220
a(S'p2_tl'
I142
tp2221
a(S'w'
I715
tp2222
a(S'p1_tl'
I238
tp2223
a(S'w'
I13
tp2224
a(S'p2_tl'
I141
tp2225
a(S'w'
I721
tp2226
a(S'p1_tl'
I239
tp2227
a(S'w'
I16
tp2228
a(S'p2_tl'
I142
tp2229
a(S'w'
I16
tp2230
a(S'tr_ll'
I1
tp2231
a(S'tr_th'
I1
tp2232
a(S'tr_ll'
I1
tp2233
a(S'w'
I1
tp2234
a(S'tr_tl'
I104
tp2235
a(S'w'
I8
tp2236
a(S'ch_no'
I1
tp2237
a(S'ch_tr'
I1
tp2238
a(S'ch_p2'
I1
tp2239
a(S'ch_p1'
I1
tp2240
a(S'w'
I1
tp2241
a(S'ch_no'
I1
tp2242
a(S'ch_tr'
I1
tp2243
a(S'ch_p2'
I1
tp2244
a(S'ch_p1'
I1
tp2245
a(S'w'
I691
tp2246
a(S'p1_tl'
I240
tp2247
a(S'w'
I13
tp2248
a(S'p2_tl'
I143
tp2249
a(S'w'
I721
tp2250
a(S'p1_tl'
I241
tp2251
a(S'w'
I16
tp2252
a(S'p2_tl'
I144
tp2253
a(S'w'
I718
tp2254
a(S'p1_tl'
I242
tp2255
a(S'w'
I13
tp2256
a(S'p2_tl'
I145
tp2257
a(S'w'
I721
tp2258
a(S'p1_tl'
I241
tp2259
a(S'w'
I16
tp2260
a(S'p2_tl'
I144
tp2261
a(S'w'
I718
tp2262
a(S'p1_tl'
I240
tp2263
a(S'w'
I13
tp2264
a(S'p2_tl'
I143
tp2265
a(S'w'
I722
tp2266
a(S'p1_tl'
I239
tp2267
a(S'w'
I17
tp2268
a(S'p2_tl'
I142
tp2269
a(S'w'
I733
tp2270
a(S'p1_du'
I0
tp2271
a(S'p1_vo'
I0
tp2272
a(S'w'
I52
tp2273
a(S'p2_vo'
I8
tp2274
a(S'w'
I3
tp2275
a(S'p2_ll'
I1
tp2276
a(S'p2_th'
I1
tp2277
a(S'p2_ll'
I1
tp2278
a(S'w'
I1
tp2279
a(S'p2_tl'
I104
tp2280
a(S'w'
I26
tp2281
a(S'w'
I3
tp2282
a(S'tr_ll'
I1
tp2283
a(S'tr_th'
I2
tp2284
a(S'tr_ll'
I1
tp2285
a(S'w'
I2
tp2286
a(S'tr_tl'
I207
tp2287
a(S'w'
I13
tp2288
a(S'ch_no'
I1
tp2289
a(S'ch_tr'
I1
tp2290
a(S'ch_p2'
I1
tp2291
a(S'ch_p1'
I1
tp2292
a(S'w'
I1
tp2293
a(S'ch_no'
I1
tp2294
a(S'ch_tr'
I1
tp2295
a(S'ch_p2'
I1
tp2296
a(S'ch_p1'
I1
tp2297
a(S'w'
I614
tp2298
a(S'p2_vo'
I7
tp2299
a(S'w'
I734
tp2300
a(S'p2_vo'
I6
tp2301
a(S'w'
I734
tp2302
a(S'p2_vo'
I5
tp2303
a(S'w'
I1468
tp2304
a(S'w'
I4
tp2305
a(S'p2_vo'
I1
tp2306
a(S'w'
I1476
tp2307
a(S'p2_vo'
I8
tp2308
a(S'w'
I3
tp2309
a(S'p2_ll'
I1
tp2310
a(S'p2_th'
I0
tp2311
a(S'p2_ll'
I1
tp2312
a(S'w'
I2
tp2313
a(S'p2_tl'
I180
tp2314
a(S'w'
I15
tp2315
a(S'tr_ll'
I1
tp2316
a(S'tr_th'
I1
tp2317
a(S'w'
I1
tp2318
a(S'tr_ll'
I1
tp2319
a(S'w'
I1
tp2320
a(S'tr_tl'
I104
tp2321
a(S'w'
I715
tp2322
a(S'p1_du'
I1
tp2323
a(S'p1_vo'
I3
tp2324
a(S'w'
I3
tp2325
a(S'p1_ll'
I1
tp2326
a(S'p1_th'
I1
tp2327
a(S'p1_ll'
I1
tp2328
a(S'w'
I2
tp2329
a(S'p1_tl'
I103
tp2330
a(S'w'
I9
tp2331
a(S'p2_vo'
I7
tp2332
a(S'w'
I699
tp2333
a(S'p1_vo'
I2
tp2334
a(S'w'
I8
tp2335
a(S'p2_vo'
I6
tp2336
a(S'w'
I726
tp2337
a(S'p1_vo'
I1
tp2338
a(S'w'
I8
tp2339
a(S'p2_vo'
I5
tp2340
a(S'w'
I1465
tp2341
a(S'p2_ll'
I1
tp2342
a(S'p2_th'
I1
tp2343
a(S'w'
I1
tp2344
a(S'p2_ll'
I1
tp2345
a(S'w'
I1
tp2346
a(S'p2_tl'
I104
tp2347
a(S'w'
I4
tp2348
a(S'p2_vo'
I1
tp2349
a(S'w'
I722
tp2350
a(S'p1_du'
I2
tp2351
a(S'w'
I752
tp2352
a(S'p2_vo'
I8
tp2353
a(S'w'
I3
tp2354
a(S'p2_ll'
I1
tp2355
a(S'p2_th'
I0
tp2356
a(S'p2_ll'
I1
tp2357
a(S'w'
I2
tp2358
a(S'p2_tl'
I240
tp2359
a(S'w'
I15
tp2360
a(S'tr_ll'
I1
tp2361
a(S'tr_th'
I2
tp2362
a(S'tr_ll'
I1
tp2363
a(S'w'
I2
tp2364
a(S'tr_tl'
I207
tp2365
a(S'w'
I8
tp2366
a(S'ch_no'
I1
tp2367
a(S'ch_tr'
I1
tp2368
a(S'ch_p2'
I1
tp2369
a(S'ch_p1'
I1
tp2370
a(S'w'
I1
tp2371
a(S'ch_no'
I1
tp2372
a(S'ch_tr'
I1
tp2373
a(S'ch_p2'
I1
tp2374
a(S'ch_p1'
I1
tp2375
a(S'w'
I698
tp2376
a(S'p1_du'
I1
tp2377
a(S'p1_vo'
I3
tp2378
a(S'w'
I4
tp2379
a(S'p1_ll'
I1
tp2380
a(S'p1_th'
I0
tp2381
a(S'p1_ll'
I1
tp2382
a(S'w'
I2
tp2383
a(S'p1_tl'
I179
tp2384
a(S'w'
I9
tp2385
a(S'p2_vo'
I7
tp2386
a(S'w'
I707
tp2387
a(S'p1_vo'
I2
tp2388
a(S'w'
I8
tp2389
a(S'p2_vo'
I6
tp2390
a(S'w'
I726
tp2391
a(S'p1_vo'
I1
tp2392
a(S'w'
I8
tp2393
a(S'p2_vo'
I5
tp2394
a(S'w'
I1465
tp2395
a(S'p2_ll'
I1
tp2396
a(S'p2_th'
I1
tp2397
a(S'p2_ll'
I1
tp2398
a(S'w'
I1
tp2399
a(S'p2_tl'
I104
tp2400
a(S'w'
I4
tp2401
a(S'p2_vo'
I1
tp2402
a(S'w'
I723
tp2403
a(S'p1_du'
I2
tp2404
a(S'w'
I752
tp2405
a(S'p2_vo'
I8
tp2406
a(S'w'
I3
tp2407
a(S'p2_ll'
I1
tp2408
a(S'p2_th'
I0
tp2409
a(S'w'
I1
tp2410
a(S'p2_ll'
I1
tp2411
a(S'w'
I1
tp2412
a(S'p2_tl'
I214
tp2413
a(S'w'
I16
tp2414
a(S'tr_ll'
I1
tp2415
a(S'tr_th'
I1
tp2416
a(S'tr_ll'
I1
tp2417
a(S'w'
I2
tp2418
a(S'tr_tl'
I104
tp2419
a(S'w'
I705
tp2420
a(S'p1_du'
I1
tp2421
a(S'p1_vo'
I3
tp2422
a(S'w'
I4
tp2423
a(S'p1_tl'
I239
tp2424
a(S'w'
I9
tp2425
a(S'p2_vo'
I7
tp2426
a(S'w'
I708
tp2427
a(S'p1_vo'
I2
tp2428
a(S'w'
I8
tp2429
a(S'p2_vo'
I6
tp2430
a(S'w'
I726
tp2431
a(S'p1_vo'
I1
tp2432
a(S'w'
I8
tp2433
a(S'p2_vo'
I5
tp2434
a(S'w'
I1465
tp2435
a(S'p2_ll'
I1
tp2436
a(S'p2_th'
I1
tp2437
a(S'p2_ll'
I1
tp2438
a(S'w'
I2
tp2439
a(S'p2_tl'
I104
tp2440
a(S'w'
I4
tp2441
a(S'p2_vo'
I1
tp2442
a(S'w'
I722
tp2443
a(S'p1_du'
I2
tp2444
a(S'w'
I751
tp2445
a(S'p2_vo'
I8
tp2446
a(S'w'
I4
tp2447
a(S'p2_tl'
I64
tp2448
a(S'w'
I15
tp2449
a(S'tr_ll'
I1
tp2450
a(S'tr_th'
I2
tp2451
a(S'tr_ll'
I1
tp2452
a(S'w'
I2
tp2453
a(S'tr_tl'
I129
tp2454
a(S'w'
I13
tp2455
a(S'ch_no'
I1
tp2456
a(S'ch_tr'
I1
tp2457
a(S'ch_p2'
I1
tp2458
a(S'ch_p1'
I1
tp2459
a(S'w'
I1
tp2460
a(S'ch_no'
I1
tp2461
a(S'ch_tr'
I1
tp2462
a(S'ch_p2'
I1
tp2463
a(S'ch_p1'
I1
tp2464
a(S'w'
I694
tp2465
a(S'p1_du'
I1
tp2466
a(S'p1_vo'
I3
tp2467
a(S'w'
I5
tp2468
a(S'p1_tl'
I213
tp2469
a(S'w'
I9
tp2470
a(S'p2_vo'
I7
tp2471
a(S'w'
I708
tp2472
a(S'p1_vo'
I2
tp2473
a(S'w'
I8
tp2474
a(S'p2_vo'
I6
tp2475
a(S'w'
I726
tp2476
a(S'p1_vo'
I1
tp2477
a(S'w'
I8
tp2478
a(S'p2_vo'
I5
tp2479
a(S'w'
I1463
tp2480
a(S'p2_ll'
I1
tp2481
a(S'p2_th'
I0
tp2482
a(S'w'
I1
tp2483
a(S'p2_ll'
I1
tp2484
a(S'w'
I1
tp2485
a(S'p2_tl'
I180
tp2486
a(S'w'
I4
tp2487
a(S'p2_vo'
I1
tp2488
a(S'w'
I723
tp2489
a(S'p1_du'
I2
tp2490
a(S'w'
I752
tp2491
a(S'p2_vo'
I8
tp2492
a(S'w'
I4
tp2493
a(S'w'
I16
tp2494
a(S'tr_ll'
I1
tp2495
a(S'tr_th'
I1
tp2496
a(S'tr_ll'
I1
tp2497
a(S'w'
I1
tp2498
a(S'tr_tl'
I64
tp2499
a(S'w'
I707
tp2500
a(S'p1_du'
I1
tp2501
a(S'p1_vo'
I3
tp2502
a(S'w'
I4
tp2503
a(S'p1_ll'
I1
tp2504
a(S'p1_th'
I1
tp2505
a(S'p1_ll'
I1
tp2506
a(S'w'
I2
tp2507
a(S'p1_tl'
I63
tp2508
a(S'w'
I9
tp2509
a(S'p2_vo'
I7
tp2510
a(S'w'
I706
tp2511
a(S'p1_vo'
I2
tp2512
a(S'w'
I8
tp2513
a(S'p2_vo'
I6
tp2514
a(S'w'
I726
tp2515
a(S'p1_vo'
I1
tp2516
a(S'w'
I8
tp2517
a(S'p2_vo'
I5
tp2518
a(S'w'
I1466
tp2519
a(S'p2_tl'
I240
tp2520
a(S'w'
I4
tp2521
a(S'p2_vo'
I1
tp2522
a(S'w'
I724
tp2523
a(S'p1_du'
I2
tp2524
a(S'w'
I751
tp2525
a(S'p2_vo'
I8
tp2526
a(S'w'
I4
tp2527
a(S'w'
I15
tp2528
a(S'tr_ll'
I1
tp2529
a(S'tr_th'
I2
tp2530
a(S'tr_ll'
I1
tp2531
a(S'w'
I2
tp2532
a(S'tr_tl'
I129
tp2533
a(S'w'
I8
tp2534
a(S'ch_no'
I1
tp2535
a(S'ch_tr'
I1
tp2536
a(S'ch_p2'
I1
tp2537
a(S'ch_p1'
I1
tp2538
a(S'w'
I1
tp2539
a(S'ch_no'
I1
tp2540
a(S'ch_tr'
I1
tp2541
a(S'ch_p2'
I1
tp2542
a(S'ch_p1'
I1
tp2543
a(S'w'
I699
tp2544
a(S'p1_du'
I1
tp2545
a(S'p1_vo'
I3
tp2546
a(S'w'
I4
tp2547
a(S'p1_ll'
I1
tp2548
a(S'p1_th'
I0
tp2549
a(S'p1_ll'
I1
tp2550
a(S'w'
I2
tp2551
a(S'p1_tl'
I179
tp2552
a(S'w'
I9
tp2553
a(S'p2_vo'
I7
tp2554
a(S'w'
I707
tp2555
a(S'p1_vo'
I2
tp2556
a(S'w'
I8
tp2557
a(S'p2_vo'
I6
tp2558
a(S'w'
I726
tp2559
a(S'p1_vo'
I1
tp2560
a(S'w'
I8
tp2561
a(S'p2_vo'
I5
tp2562
a(S'w'
I1465
tp2563
a(S'p2_tl'
I214
tp2564
a(S'w'
I4
tp2565
a(S'p2_vo'
I1
tp2566
a(S'w'
I724
tp2567
a(S'p1_du'
I2
tp2568
a(S'w'
I752
tp2569
a(S'p2_vo'
I8
tp2570
a(S'w'
I4
tp2571
a(S'w'
I16
tp2572
a(S'tr_ll'
I1
tp2573
a(S'tr_th'
I1
tp2574
a(S'tr_ll'
I1
tp2575
a(S'w'
I2
tp2576
a(S'tr_tl'
I64
tp2577
a(S'w'
I706
tp2578
a(S'p1_du'
I1
tp2579
a(S'p1_vo'
I3
tp2580
a(S'w'
I4
tp2581
a(S'p1_tl'
I239
tp2582
a(S'w'
I9
tp2583
a(S'p2_vo'
I7
tp2584
a(S'w'
I709
tp2585
a(S'p1_vo'
I2
tp2586
a(S'w'
I8
tp2587
a(S'p2_vo'
I6
tp2588
a(S'w'
I725
tp2589
a(S'p1_vo'
I1
tp2590
a(S'w'
I8
tp2591
a(S'p2_vo'
I5
tp2592
a(S'w'
I1465
tp2593
a(S'p2_ll'
I1
tp2594
a(S'p2_th'
I1
tp2595
a(S'p2_ll'
I1
tp2596
a(S'w'
I2
tp2597
a(S'p2_tl'
I64
tp2598
a(S'w'
I4
tp2599
a(S'p2_vo'
I1
tp2600
a(S'w'
I722
tp2601
a(S'p1_du'
I2
tp2602
a(S'w'
I751
tp2603
a(S'p2_vo'
I8
tp2604
a(S'w'
I4
tp2605
a(S'p2_tl'
I29
tp2606
a(S'w'
I15
tp2607
a(S'tr_ll'
I1
tp2608
a(S'tr_th'
I2
tp2609
a(S'tr_ll'
I1
tp2610
a(S'w'
I2
tp2611
a(S'tr_tl'
I58
tp2612
a(S'w'
I13
tp2613
a(S'ch_no'
I1
tp2614
a(S'ch_tr'
I1
tp2615
a(S'ch_p2'
I1
tp2616
a(S'ch_p1'
I1
tp2617
a(S'w'
I1
tp2618
a(S'ch_no'
I1
tp2619
a(S'ch_tr'
I1
tp2620
a(S'ch_p2'
I1
tp2621
a(S'ch_p1'
I1
tp2622
a(S'w'
I694
tp2623
a(S'p1_du'
I1
tp2624
a(S'p1_vo'
I3
tp2625
a(S'w'
I5
tp2626
a(S'p1_tl'
I213
tp2627
a(S'w'
I9
tp2628
a(S'p2_vo'
I7
tp2629
a(S'w'
I708
tp2630
a(S'p1_vo'
I2
tp2631
a(S'w'
I8
tp2632
a(S'p2_vo'
I6
tp2633
a(S'w'
I726
tp2634
a(S'p1_vo'
I1
tp2635
a(S'w'
I8
tp2636
a(S'p2_vo'
I5
tp2637
a(S'w'
I1463
tp2638
a(S'p2_ll'
I1
tp2639
a(S'p2_th'
I0
tp2640
a(S'w'
I1
tp2641
a(S'p2_ll'
I1
tp2642
a(S'w'
I1
tp2643
a(S'p2_tl'
I180
tp2644
a(S'w'
I4
tp2645
a(S'p2_vo'
I1
tp2646
a(S'w'
I723
tp2647
a(S'p1_du'
I2
tp2648
a(S'w'
I752
tp2649
a(S'p2_vo'
I8
tp2650
a(S'w'
I4
tp2651
a(S'w'
I16
tp2652
a(S'tr_ll'
I1
tp2653
a(S'tr_th'
I1
tp2654
a(S'tr_ll'
I1
tp2655
a(S'w'
I1
tp2656
a(S'tr_tl'
I29
tp2657
a(S'w'
I707
tp2658
a(S'p1_du'
I1
tp2659
a(S'p1_vo'
I3
tp2660
a(S'w'
I4
tp2661
a(S'p1_ll'
I1
tp2662
a(S'p1_th'
I1
tp2663
a(S'p1_ll'
I1
tp2664
a(S'w'
I2
tp2665
a(S'p1_tl'
I28
tp2666
a(S'w'
I9
tp2667
a(S'p2_vo'
I7
tp2668
a(S'w'
I707
tp2669
a(S'p1_vo'
I2
tp2670
a(S'w'
I8
tp2671
a(S'p2_vo'
I6
tp2672
a(S'w'
I725
tp2673
a(S'p1_vo'
I1
tp2674
a(S'w'
I8
tp2675
a(S'p2_vo'
I5
tp2676
a(S'w'
I1466
tp2677
a(S'p2_tl'
I240
tp2678
a(S'w'
I4
tp2679
a(S'p2_vo'
I1
tp2680
a(S'w'
I724
tp2681
a(S'p1_du'
I2
tp2682
a(S'w'
I752
tp2683
a(S'p2_vo'
I8
tp2684
a(S'w'
I4
tp2685
a(S'w'
I15
tp2686
a(S'tr_ll'
I1
tp2687
a(S'tr_th'
I2
tp2688
a(S'tr_ll'
I1
tp2689
a(S'w'
I2
tp2690
a(S'tr_tl'
I58
tp2691
a(S'w'
I8
tp2692
a(S'ch_no'
I1
tp2693
a(S'ch_tr'
I1
tp2694
a(S'ch_p2'
I1
tp2695
a(S'ch_p1'
I1
tp2696
a(S'w'
I1
tp2697
a(S'ch_no'
I1
tp2698
a(S'ch_tr'
I1
tp2699
a(S'ch_p2'
I1
tp2700
a(S'ch_p1'
I1
tp2701
a(S'w'
I698
tp2702
a(S'p1_du'
I1
tp2703
a(S'p1_vo'
I3
tp2704
a(S'w'
I4
tp2705
a(S'p1_ll'
I1
tp2706
a(S'p1_th'
I0
tp2707
a(S'p1_ll'
I1
tp2708
a(S'w'
I2
tp2709
a(S'p1_tl'
I179
tp2710
a(S'w'
I9
tp2711
a(S'p2_vo'
I7
tp2712
a(S'w'
I707
tp2713
a(S'p1_vo'
I2
tp2714
a(S'w'
I8
tp2715
a(S'p2_vo'
I6
tp2716
a(S'w'
I726
tp2717
a(S'p1_vo'
I1
tp2718
a(S'w'
I8
tp2719
a(S'p2_vo'
I5
tp2720
a(S'w'
I1466
tp2721
a(S'p2_tl'
I214
tp2722
a(S'w'
I4
tp2723
a(S'p2_vo'
I1
tp2724
a(S'w'
I723
tp2725
a(S'p1_du'
I2
tp2726
a(S'w'
I752
tp2727
a(S'p2_vo'
I8
tp2728
a(S'w'
I4
tp2729
a(S'w'
I16
tp2730
a(S'tr_ll'
I1
tp2731
a(S'tr_th'
I1
tp2732
a(S'tr_ll'
I1
tp2733
a(S'w'
I2
tp2734
a(S'tr_tl'
I29
tp2735
a(S'w'
I706
tp2736
a(S'p1_du'
I1
tp2737
a(S'p1_vo'
I3
tp2738
a(S'w'
I4
tp2739
a(S'p1_tl'
I239
tp2740
a(S'w'
I9
tp2741
a(S'p2_vo'
I7
tp2742
a(S'w'
I709
tp2743
a(S'p1_vo'
I2
tp2744
a(S'w'
I8
tp2745
a(S'p2_vo'
I6
tp2746
a(S'w'
I725
tp2747
a(S'p1_vo'
I1
tp2748
a(S'w'
I8
tp2749
a(S'p2_vo'
I5
tp2750
a(S'w'
I1465
tp2751
a(S'p2_ll'
I1
tp2752
a(S'p2_th'
I1
tp2753
a(S'p2_ll'
I1
tp2754
a(S'w'
I2
tp2755
a(S'p2_tl'
I29
tp2756
a(S'w'
I4
tp2757
a(S'p2_vo'
I1
tp2758
a(S'w'
I722
tp2759
a(S'p1_du'
I2
tp2760
a(S'w'
I752
tp2761
a(S'p2_vo'
I8
tp2762
a(S'w'
I4
tp2763
a(S'p2_tl'
I64
tp2764
a(S'w'
I15
tp2765
a(S'tr_ll'
I1
tp2766
a(S'tr_th'
I2
tp2767
a(S'tr_ll'
I1
tp2768
a(S'w'
I2
tp2769
a(S'tr_tl'
I129
tp2770
a(S'w'
I13
tp2771
a(S'ch_no'
I1
tp2772
a(S'ch_tr'
I1
tp2773
a(S'ch_p2'
I1
tp2774
a(S'ch_p1'
I1
tp2775
a(S'w'
I1
tp2776
a(S'ch_no'
I1
tp2777
a(S'ch_tr'
I1
tp2778
a(S'ch_p2'
I1
tp2779
a(S'ch_p1'
I1
tp2780
a(S'w'
I693
tp2781
a(S'p1_du'
I1
tp2782
a(S'p1_vo'
I3
tp2783
a(S'w'
I5
tp2784
a(S'p1_tl'
I213
tp2785
a(S'w'
I9
tp2786
a(S'p2_vo'
I7
tp2787
a(S'w'
I708
tp2788
a(S'p1_vo'
I2
tp2789
a(S'w'
I8
tp2790
a(S'p2_vo'
I6
tp2791
a(S'w'
I726
tp2792
a(S'p1_vo'
I1
tp2793
a(S'w'
I8
tp2794
a(S'p2_vo'
I5
tp2795
a(S'w'
I1465
tp2796
a(S'p2_ll'
I1
tp2797
a(S'p2_th'
I0
tp2798
a(S'p2_ll'
I1
tp2799
a(S'w'
I1
tp2800
a(S'p2_tl'
I180
tp2801
a(S'w'
I4
tp2802
a(S'p2_vo'
I1
tp2803
a(S'w'
I722
tp2804
a(S'p1_du'
I2
tp2805
a(S'w'
I752
tp2806
a(S'p2_vo'
I8
tp2807
a(S'w'
I4
tp2808
a(S'w'
I16
tp2809
a(S'tr_ll'
I1
tp2810
a(S'tr_th'
I1
tp2811
a(S'tr_ll'
I1
tp2812
a(S'w'
I1
tp2813
a(S'tr_tl'
I64
tp2814
a(S'w'
I707
tp2815
a(S'p1_du'
I1
tp2816
a(S'p1_vo'
I3
tp2817
a(S'w'
I4
tp2818
a(S'p1_ll'
I1
tp2819
a(S'p1_th'
I1
tp2820
a(S'p1_ll'
I1
tp2821
a(S'w'
I2
tp2822
a(S'p1_tl'
I63
tp2823
a(S'w'
I9
tp2824
a(S'p2_vo'
I7
tp2825
a(S'w'
I707
tp2826
a(S'p1_vo'
I2
tp2827
a(S'w'
I8
tp2828
a(S'p2_vo'
I6
tp2829
a(S'w'
I726
tp2830
a(S'p1_vo'
I1
tp2831
a(S'w'
I8
tp2832
a(S'p2_vo'
I5
tp2833
a(S'w'
I1465
tp2834
a(S'p2_tl'
I240
tp2835
a(S'w'
I4
tp2836
a(S'p2_vo'
I1
tp2837
a(S'w'
I724
tp2838
a(S'p1_du'
I2
tp2839
a(S'w'
I752
tp2840
a(S'p2_vo'
I8
tp2841
a(S'w'
I4
tp2842
a(S'w'
I15
tp2843
a(S'tr_ll'
I1
tp2844
a(S'tr_th'
I2
tp2845
a(S'tr_ll'
I1
tp2846
a(S'w'
I2
tp2847
a(S'tr_tl'
I129
tp2848
a(S'w'
I8
tp2849
a(S'ch_no'
I1
tp2850
a(S'ch_tr'
I1
tp2851
a(S'ch_p2'
I1
tp2852
a(S'ch_p1'
I1
tp2853
a(S'w'
I1
tp2854
a(S'ch_no'
I1
tp2855
a(S'ch_tr'
I1
tp2856
a(S'ch_p2'
I1
tp2857
a(S'ch_p1'
I1
tp2858
a(S'w'
I699
tp2859
a(S'p1_du'
I1
tp2860
a(S'p1_vo'
I3
tp2861
a(S'w'
I4
tp2862
a(S'p1_ll'
I1
tp2863
a(S'p1_th'
I0
tp2864
a(S'p1_ll'
I1
tp2865
a(S'w'
I2
tp2866
a(S'p1_tl'
I179
tp2867
a(S'w'
I9
tp2868
a(S'p2_vo'
I7
tp2869
a(S'w'
I706
tp2870
a(S'p1_vo'
I2
tp2871
a(S'w'
I8
tp2872
a(S'p2_vo'
I6
tp2873
a(S'w'
I726
tp2874
a(S'p1_vo'
I1
tp2875
a(S'w'
I8
tp2876
a(S'p2_vo'
I5
tp2877
a(S'w'
I1466
tp2878
a(S'p2_tl'
I214
tp2879
a(S'w'
I4
tp2880
a(S'p2_vo'
I1
tp2881
a(S'w'
I723
tp2882
a(S'p1_du'
I2
tp2883
a(S'w'
I752
tp2884
a(S'p2_vo'
I8
tp2885
a(S'w'
I4
tp2886
a(S'w'
I16
tp2887
a(S'tr_ll'
I1
tp2888
a(S'tr_th'
I1
tp2889
a(S'tr_ll'
I1
tp2890
a(S'w'
I2
tp2891
a(S'tr_tl'
I64
tp2892
a(S'w'
I706
tp2893
a(S'p1_du'
I1
tp2894
a(S'p1_vo'
I3
tp2895
a(S'w'
I4
tp2896
a(S'p1_tl'
I239
tp2897
a(S'w'
I9
tp2898
a(S'p2_vo'
I7
tp2899
a(S'w'
I709
tp2900
a(S'p1_vo'
I2
tp2901
a(S'w'
I8
tp2902
a(S'p2_vo'
I6
tp2903
a(S'w'
I726
tp2904
a(S'p1_vo'
I1
tp2905
a(S'w'
I8
tp2906
a(S'p2_vo'
I5
tp2907
a(S'w'
I1464
tp2908
a(S'p2_ll'
I1
tp2909
a(S'p2_th'
I1
tp2910
a(S'p2_ll'
I1
tp2911
a(S'w'
I2
tp2912
a(S'p2_tl'
I64
tp2913
a(S'w'
I4
tp2914
a(S'p2_vo'
I1
tp2915
a(S'w'
I722
tp2916
a(S'p1_du'
I2
tp2917
a(S'w'
I758
tp2918
a(S'p2_vo'
I8
tp2919
a(S'w'
I4
tp2920
a(S'p2_tl'
I104
tp2921
a(S'w'
I22
tp2922
a(S'tr_ll'
I1
tp2923
a(S'tr_th'
I2
tp2924
a(S'tr_ll'
I1
tp2925
a(S'w'
I1
tp2926
a(S'tr_tl'
I207
tp2927
a(S'w'
I12
tp2928
a(S'ch_no'
I1
tp2929
a(S'ch_tr'
I1
tp2930
a(S'ch_p2'
I1
tp2931
a(S'ch_p1'
I1
tp2932
a(S'w'
I1
tp2933
a(S'ch_no'
I1
tp2934
a(S'ch_tr'
I1
tp2935
a(S'ch_p2'
I1
tp2936
a(S'ch_p1'
I1
tp2937
a(S'w'
I683
tp2938
a(S'p1_du'
I1
tp2939
a(S'p1_vo'
I3
tp2940
a(S'w'
I5
tp2941
a(S'p1_tl'
I213
tp2942
a(S'w'
I9
tp2943
a(S'p2_vo'
I7
tp2944
a(S'w'
I707
tp2945
a(S'p1_vo'
I2
tp2946
a(S'w'
I8
tp2947
a(S'p2_vo'
I6
tp2948
a(S'w'
I726
tp2949
a(S'p1_vo'
I1
tp2950
a(S'w'
I8
tp2951
a(S'p2_vo'
I5
tp2952
a(S'w'
I1464
tp2953
a(S'p2_ll'
I1
tp2954
a(S'p2_th'
I0
tp2955
a(S'w'
I1
tp2956
a(S'p2_ll'
I1
tp2957
a(S'w'
I1
tp2958
a(S'p2_tl'
I180
tp2959
a(S'w'
I4
tp2960
a(S'p2_vo'
I1
tp2961
a(S'w'
I723
tp2962
a(S'p1_du'
I2
tp2963
a(S'w'
I751
tp2964
a(S'p2_vo'
I8
tp2965
a(S'w'
I4
tp2966
a(S'w'
I16
tp2967
a(S'tr_ll'
I1
tp2968
a(S'tr_th'
I1
tp2969
a(S'tr_ll'
I1
tp2970
a(S'w'
I1
tp2971
a(S'tr_tl'
I104
tp2972
a(S'w'
I8
tp2973
a(S'ch_no'
I1
tp2974
a(S'ch_tr'
I1
tp2975
a(S'ch_p2'
I1
tp2976
a(S'ch_p1'
I1
tp2977
a(S'w'
I1
tp2978
a(S'ch_no'
I1
tp2979
a(S'ch_tr'
I1
tp2980
a(S'ch_p2'
I1
tp2981
a(S'ch_p1'
I1
tp2982
a(S'w'
I699
tp2983
a(S'p1_du'
I1
tp2984
a(S'p1_vo'
I3
tp2985
a(S'w'
I4
tp2986
a(S'p1_ll'
I1
tp2987
a(S'p1_th'
I1
tp2988
a(S'p1_ll'
I1
tp2989
a(S'w'
I2
tp2990
a(S'p1_tl'
I103
tp2991
a(S'w'
I9
tp2992
a(S'p2_vo'
I7
tp2993
a(S'w'
I707
tp2994
a(S'p1_vo'
I2
tp2995
a(S'w'
I8
tp2996
a(S'p2_vo'
I6
tp2997
a(S'w'
I726
tp2998
a(S'p1_vo'
I1
tp2999
a(S'w'
I8
tp3000
a(S'p2_vo'
I5
tp3001
a(S'w'
I1464
tp3002
a(S'p2_tl'
I240
tp3003
a(S'w'
I4
tp3004
a(S'p2_vo'
I1
tp3005
a(S'w'
I724
tp3006
a(S'p1_du'
I2
tp3007
a(S'w'
I752
tp3008
a(S'p2_vo'
I8
tp3009
a(S'w'
I4
tp3010
a(S'w'
I15
tp3011
a(S'tr_ll'
I1
tp3012
a(S'tr_th'
I2
tp3013
a(S'tr_ll'
I1
tp3014
a(S'w'
I2
tp3015
a(S'tr_tl'
I207
tp3016
a(S'w'
I8
tp3017
a(S'ch_no'
I1
tp3018
a(S'ch_tr'
I1
tp3019
a(S'ch_p2'
I1
tp3020
a(S'ch_p1'
I1
tp3021
a(S'w'
I1
tp3022
a(S'ch_no'
I1
tp3023
a(S'ch_tr'
I1
tp3024
a(S'ch_p2'
I1
tp3025
a(S'ch_p1'
I1
tp3026
a(S'w'
I699
tp3027
a(S'p1_du'
I1
tp3028
a(S'p1_vo'
I3
tp3029
a(S'w'
I4
tp3030
a(S'p1_ll'
I1
tp3031
a(S'p1_th'
I0
tp3032
a(S'p1_ll'
I1
tp3033
a(S'w'
I2
tp3034
a(S'p1_tl'
I179
tp3035
a(S'w'
I9
tp3036
a(S'p2_vo'
I7
tp3037
a(S'w'
I706
tp3038
a(S'p1_vo'
I2
tp3039
a(S'w'
I8
tp3040
a(S'p2_vo'
I6
tp3041
a(S'w'
I726
tp3042
a(S'p1_vo'
I1
tp3043
a(S'w'
I8
tp3044
a(S'p2_vo'
I5
tp3045
a(S'w'
I1466
tp3046
a(S'p2_tl'
I214
tp3047
a(S'w'
I4
tp3048
a(S'p2_vo'
I1
tp3049
a(S'w'
I724
tp3050
a(S'p1_du'
I2
tp3051
a(S'w'
I751
tp3052
a(S'p2_vo'
I8
tp3053
a(S'w'
I4
tp3054
a(S'w'
I16
tp3055
a(S'tr_ll'
I1
tp3056
a(S'tr_th'
I1
tp3057
a(S'tr_ll'
I1
tp3058
a(S'w'
I2
tp3059
a(S'tr_tl'
I104
tp3060
a(S'w'
I706
tp3061
a(S'p1_du'
I1
tp3062
a(S'p1_vo'
I3
tp3063
a(S'w'
I4
tp3064
a(S'p1_tl'
I239
tp3065
a(S'w'
I9
tp3066
a(S'p2_vo'
I7
tp3067
a(S'w'
I709
tp3068
a(S'p1_vo'
I2
tp3069
a(S'w'
I8
tp3070
a(S'p2_vo'
I6
tp3071
a(S'w'
I726
tp3072
a(S'p1_vo'
I1
tp3073
a(S'w'
I8
tp3074
a(S'p2_vo'
I5
tp3075
a(S'w'
I1464
tp3076
a(S'p2_ll'
I1
tp3077
a(S'p2_th'
I1
tp3078
a(S'p2_ll'
I1
tp3079
a(S'w'
I2
tp3080
a(S'p2_tl'
I104
tp3081
a(S'w'
I4
tp3082
a(S'p2_vo'
I1
tp3083
a(S'w'
I722
tp3084
a(S'p1_du'
I2
tp3085
a(S'w'
I752
tp3086
a(S'p2_vo'
I8
tp3087
a(S'w'
I4
tp3088
a(S'p2_tl'
I64
tp3089
a(S'w'
I15
tp3090
a(S'tr_ll'
I1
tp3091
a(S'tr_th'
I2
tp3092
a(S'tr_ll'
I1
tp3093
a(S'w'
I2
tp3094
a(S'tr_tl'
I129
tp3095
a(S'w'
I12
tp3096
a(S'ch_no'
I1
tp3097
a(S'ch_tr'
I1
tp3098
a(S'ch_p2'
I1
tp3099
a(S'ch_p1'
I1
tp3100
a(S'w'
I1
tp3101
a(S'ch_no'
I1
tp3102
a(S'ch_tr'
I1
tp3103
a(S'ch_p2'
I1
tp3104
a(S'ch_p1'
I1
tp3105
a(S'w'
I695
tp3106
a(S'p1_du'
I1
tp3107
a(S'p1_vo'
I3
tp3108
a(S'w'
I5
tp3109
a(S'p1_tl'
I213
tp3110
a(S'w'
I9
tp3111
a(S'p2_vo'
I7
tp3112
a(S'w'
I708
tp3113
a(S'p1_vo'
I2
tp3114
a(S'w'
I8
tp3115
a(S'p2_vo'
I6
tp3116
a(S'w'
I725
tp3117
a(S'p1_vo'
I1
tp3118
a(S'w'
I8
tp3119
a(S'p2_vo'
I5
tp3120
a(S'w'
I1464
tp3121
a(S'p2_ll'
I1
tp3122
a(S'p2_th'
I0
tp3123
a(S'w'
I1
tp3124
a(S'p2_ll'
I1
tp3125
a(S'w'
I1
tp3126
a(S'p2_tl'
I180
tp3127
a(S'w'
I4
tp3128
a(S'p2_vo'
I1
tp3129
a(S'w'
I723
tp3130
a(S'p1_du'
I2
tp3131
a(S'w'
I752
tp3132
a(S'p2_vo'
I8
tp3133
a(S'w'
I4
tp3134
a(S'w'
I16
tp3135
a(S'tr_ll'
I1
tp3136
a(S'tr_th'
I1
tp3137
a(S'tr_ll'
I1
tp3138
a(S'w'
I1
tp3139
a(S'tr_tl'
I64
tp3140
a(S'w'
I706
tp3141
a(S'p1_du'
I1
tp3142
a(S'p1_vo'
I3
tp3143
a(S'w'
I4
tp3144
a(S'p1_ll'
I1
tp3145
a(S'p1_th'
I1
tp3146
a(S'p1_ll'
I1
tp3147
a(S'w'
I2
tp3148
a(S'p1_tl'
I63
tp3149
a(S'w'
I9
tp3150
a(S'p2_vo'
I7
tp3151
a(S'w'
I707
tp3152
a(S'p1_vo'
I2
tp3153
a(S'w'
I8
tp3154
a(S'p2_vo'
I6
tp3155
a(S'w'
I726
tp3156
a(S'p1_vo'
I1
tp3157
a(S'w'
I8
tp3158
a(S'p2_vo'
I5
tp3159
a(S'w'
I1465
tp3160
a(S'p2_tl'
I240
tp3161
a(S'w'
I4
tp3162
a(S'p2_vo'
I1
tp3163
a(S'w'
I724
tp3164
a(S'p1_du'
I2
tp3165
a(S'w'
I752
tp3166
a(S'p2_vo'
I8
tp3167
a(S'w'
I4
tp3168
a(S'w'
I15
tp3169
a(S'tr_ll'
I1
tp3170
a(S'tr_th'
I2
tp3171
a(S'tr_ll'
I1
tp3172
a(S'w'
I2
tp3173
a(S'tr_tl'
I129
tp3174
a(S'w'
I8
tp3175
a(S'ch_no'
I1
tp3176
a(S'ch_tr'
I1
tp3177
a(S'ch_p2'
I1
tp3178
a(S'ch_p1'
I1
tp3179
a(S'w'
I1
tp3180
a(S'ch_no'
I1
tp3181
a(S'ch_tr'
I1
tp3182
a(S'ch_p2'
I1
tp3183
a(S'ch_p1'
I1
tp3184
a(S'w'
I699
tp3185
a(S'p1_du'
I1
tp3186
a(S'p1_vo'
I3
tp3187
a(S'w'
I4
tp3188
a(S'p1_ll'
I1
tp3189
a(S'p1_th'
I0
tp3190
a(S'p1_ll'
I1
tp3191
a(S'w'
I2
tp3192
a(S'p1_tl'
I179
tp3193
a(S'w'
I9
tp3194
a(S'p2_vo'
I7
tp3195
a(S'w'
I707
tp3196
a(S'p1_vo'
I2
tp3197
a(S'w'
I8
tp3198
a(S'p2_vo'
I6
tp3199
a(S'w'
I725
tp3200
a(S'p1_vo'
I1
tp3201
a(S'w'
I8
tp3202
a(S'p2_vo'
I5
tp3203
a(S'w'
I1466
tp3204
a(S'p2_tl'
I214
tp3205
a(S'w'
I4
tp3206
a(S'p2_vo'
I1
tp3207
a(S'w'
I724
tp3208
a(S'p1_du'
I2
tp3209
a(S'w'
I752
tp3210
a(S'p2_vo'
I8
tp3211
a(S'w'
I4
tp3212
a(S'w'
I16
tp3213
a(S'tr_ll'
I1
tp3214
a(S'tr_th'
I1
tp3215
a(S'tr_ll'
I1
tp3216
a(S'w'
I2
tp3217
a(S'tr_tl'
I64
tp3218
a(S'w'
I705
tp3219
a(S'p1_du'
I1
tp3220
a(S'p1_vo'
I3
tp3221
a(S'w'
I4
tp3222
a(S'p1_tl'
I239
tp3223
a(S'w'
I9
tp3224
a(S'p2_vo'
I7
tp3225
a(S'w'
I709
tp3226
a(S'p1_vo'
I2
tp3227
a(S'w'
I8
tp3228
a(S'p2_vo'
I6
tp3229
a(S'w'
I726
tp3230
a(S'p1_vo'
I1
tp3231
a(S'w'
I8
tp3232
a(S'p2_vo'
I5
tp3233
a(S'w'
I1465
tp3234
a(S'p2_ll'
I1
tp3235
a(S'p2_th'
I1
tp3236
a(S'p2_ll'
I1
tp3237
a(S'w'
I2
tp3238
a(S'p2_tl'
I64
tp3239
a(S'w'
I4
tp3240
a(S'p2_vo'
I1
tp3241
a(S'w'
I721
tp3242
a(S'p1_du'
I2
tp3243
a(S'w'
I752
tp3244
a(S'p2_vo'
I8
tp3245
a(S'w'
I4
tp3246
a(S'p2_tl'
I29
tp3247
a(S'w'
I15
tp3248
a(S'tr_ll'
I1
tp3249
a(S'tr_th'
I2
tp3250
a(S'tr_ll'
I1
tp3251
a(S'w'
I2
tp3252
a(S'tr_tl'
I58
tp3253
a(S'w'
I13
tp3254
a(S'ch_no'
I1
tp3255
a(S'ch_tr'
I1
tp3256
a(S'ch_p2'
I1
tp3257
a(S'ch_p1'
I1
tp3258
a(S'w'
I1
tp3259
a(S'ch_no'
I1
tp3260
a(S'ch_tr'
I1
tp3261
a(S'ch_p2'
I1
tp3262
a(S'ch_p1'
I1
tp3263
a(S'w'
I694
tp3264
a(S'p1_du'
I1
tp3265
a(S'p1_vo'
I3
tp3266
a(S'w'
I5
tp3267
a(S'p1_tl'
I213
tp3268
a(S'w'
I9
tp3269
a(S'p2_vo'
I7
tp3270
a(S'w'
I708
tp3271
a(S'p1_vo'
I2
tp3272
a(S'w'
I8
tp3273
a(S'p2_vo'
I6
tp3274
a(S'w'
I726
tp3275
a(S'p1_vo'
I1
tp3276
a(S'w'
I8
tp3277
a(S'p2_vo'
I5
tp3278
a(S'w'
I1464
tp3279
a(S'p2_ll'
I1
tp3280
a(S'p2_th'
I0
tp3281
a(S'p2_ll'
I1
tp3282
a(S'w'
I1
tp3283
a(S'p2_tl'
I180
tp3284
a(S'w'
I4
tp3285
a(S'p2_vo'
I1
tp3286
a(S'w'
I723
tp3287
a(S'p1_du'
I2
tp3288
a(S'w'
I752
tp3289
a(S'p2_vo'
I8
tp3290
a(S'w'
I4
tp3291
a(S'w'
I16
tp3292
a(S'tr_ll'
I1
tp3293
a(S'tr_th'
I1
tp3294
a(S'tr_ll'
I1
tp3295
a(S'w'
I1
tp3296
a(S'tr_tl'
I29
tp3297
a(S'w'
I706
tp3298
a(S'p1_du'
I1
tp3299
a(S'p1_vo'
I3
tp3300
a(S'w'
I4
tp3301
a(S'p1_ll'
I1
tp3302
a(S'p1_th'
I1
tp3303
a(S'p1_ll'
I1
tp3304
a(S'w'
I2
tp3305
a(S'p1_tl'
I28
tp3306
a(S'w'
I9
tp3307
a(S'p2_vo'
I7
tp3308
a(S'w'
I707
tp3309
a(S'p1_vo'
I2
tp3310
a(S'w'
I8
tp3311
a(S'p2_vo'
I6
tp3312
a(S'w'
I726
tp3313
a(S'p1_vo'
I1
tp3314
a(S'w'
I8
tp3315
a(S'p2_vo'
I5
tp3316
a(S'w'
I1466
tp3317
a(S'p2_tl'
I240
tp3318
a(S'w'
I4
tp3319
a(S'p2_vo'
I1
tp3320
a(S'w'
I723
tp3321
a(S'p1_du'
I2
tp3322
a(S'w'
I752
tp3323
a(S'p2_vo'
I8
tp3324
a(S'w'
I4
tp3325
a(S'w'
I15
tp3326
a(S'tr_ll'
I1
tp3327
a(S'tr_th'
I2
tp3328
a(S'tr_ll'
I1
tp3329
a(S'w'
I2
tp3330
a(S'tr_tl'
I58
tp3331
a(S'w'
I8
tp3332
a(S'ch_no'
I1
tp3333
a(S'ch_tr'
I1
tp3334
a(S'ch_p2'
I1
tp3335
a(S'ch_p1'
I1
tp3336
a(S'w'
I1
tp3337
a(S'ch_no'
I1
tp3338
a(S'ch_tr'
I1
tp3339
a(S'ch_p2'
I1
tp3340
a(S'ch_p1'
I1
tp3341
a(S'w'
I699
tp3342
a(S'p1_du'
I1
tp3343
a(S'p1_vo'
I3
tp3344
a(S'w'
I4
tp3345
a(S'p1_ll'
I1
tp3346
a(S'p1_th'
I0
tp3347
a(S'p1_ll'
I1
tp3348
a(S'w'
I2
tp3349
a(S'p1_tl'
I179
tp3350
a(S'w'
I9
tp3351
a(S'p2_vo'
I7
tp3352
a(S'w'
I707
tp3353
a(S'p1_vo'
I2
tp3354
a(S'w'
I8
tp3355
a(S'p2_vo'
I6
tp3356
a(S'w'
I726
tp3357
a(S'p1_vo'
I1
tp3358
a(S'w'
I8
tp3359
a(S'p2_vo'
I5
tp3360
a(S'w'
I1465
tp3361
a(S'p2_tl'
I214
tp3362
a(S'w'
I4
tp3363
a(S'p2_vo'
I1
tp3364
a(S'w'
I724
tp3365
a(S'p1_du'
I2
tp3366
a(S'w'
I752
tp3367
a(S'p2_vo'
I8
tp3368
a(S'w'
I4
tp3369
a(S'w'
I16
tp3370
a(S'tr_ll'
I1
tp3371
a(S'tr_th'
I1
tp3372
a(S'tr_ll'
I1
tp3373
a(S'w'
I2
tp3374
a(S'tr_tl'
I29
tp3375
a(S'w'
I706
tp3376
a(S'p1_du'
I1
tp3377
a(S'p1_vo'
I3
tp3378
a(S'w'
I4
tp3379
a(S'p1_tl'
I239
tp3380
a(S'w'
I9
tp3381
a(S'p2_vo'
I7
tp3382
a(S'w'
I708
tp3383
a(S'p1_vo'
I2
tp3384
a(S'w'
I8
tp3385
a(S'p2_vo'
I6
tp3386
a(S'w'
I726
tp3387
a(S'p1_vo'
I1
tp3388
a(S'w'
I8
tp3389
a(S'p2_vo'
I5
tp3390
a(S'w'
I1465
tp3391
a(S'p2_ll'
I1
tp3392
a(S'p2_th'
I1
tp3393
a(S'p2_ll'
I1
tp3394
a(S'w'
I2
tp3395
a(S'p2_tl'
I29
tp3396
a(S'w'
I4
tp3397
a(S'p2_vo'
I1
tp3398
a(S'w'
I722
tp3399
a(S'p1_du'
I2
tp3400
a(S'w'
I751
tp3401
a(S'p2_vo'
I8
tp3402
a(S'w'
I4
tp3403
a(S'p2_tl'
I64
tp3404
a(S'w'
I15
tp3405
a(S'tr_ll'
I1
tp3406
a(S'tr_th'
I2
tp3407
a(S'tr_ll'
I1
tp3408
a(S'w'
I2
tp3409
a(S'tr_tl'
I129
tp3410
a(S'w'
I13
tp3411
a(S'ch_no'
I1
tp3412
a(S'ch_tr'
I1
tp3413
a(S'ch_p2'
I1
tp3414
a(S'ch_p1'
I1
tp3415
a(S'w'
I1
tp3416
a(S'ch_no'
I1
tp3417
a(S'ch_tr'
I1
tp3418
a(S'ch_p2'
I1
tp3419
a(S'ch_p1'
I1
tp3420
a(S'w'
I694
tp3421
a(S'p1_du'
I1
tp3422
a(S'p1_vo'
I3
tp3423
a(S'w'
I5
tp3424
a(S'p1_tl'
I213
tp3425
a(S'w'
I9
tp3426
a(S'p2_vo'
I7
tp3427
a(S'w'
I708
tp3428
a(S'p1_vo'
I2
tp3429
a(S'w'
I8
tp3430
a(S'p2_vo'
I6
tp3431
a(S'w'
I726
tp3432
a(S'p1_vo'
I1
tp3433
a(S'w'
I8
tp3434
a(S'p2_vo'
I5
tp3435
a(S'w'
I1463
tp3436
a(S'p2_ll'
I1
tp3437
a(S'p2_th'
I0
tp3438
a(S'w'
I1
tp3439
a(S'p2_ll'
I1
tp3440
a(S'w'
I1
tp3441
a(S'p2_tl'
I180
tp3442
a(S'w'
I4
tp3443
a(S'p2_vo'
I1
tp3444
a(S'w'
I723
tp3445
a(S'p1_du'
I2
tp3446
a(S'w'
I752
tp3447
a(S'p2_vo'
I8
tp3448
a(S'w'
I4
tp3449
a(S'w'
I16
tp3450
a(S'tr_ll'
I1
tp3451
a(S'tr_th'
I1
tp3452
a(S'tr_ll'
I1
tp3453
a(S'w'
I1
tp3454
a(S'tr_tl'
I64
tp3455
a(S'w'
I707
tp3456
a(S'p1_du'
I1
tp3457
a(S'p1_vo'
I3
tp3458
a(S'w'
I4
tp3459
a(S'p1_ll'
I1
tp3460
a(S'p1_th'
I1
tp3461
a(S'p1_ll'
I1
tp3462
a(S'w'
I2
tp3463
a(S'p1_tl'
I63
tp3464
a(S'w'
I9
tp3465
a(S'p2_vo'
I7
tp3466
a(S'w'
I706
tp3467
a(S'p1_vo'
I2
tp3468
a(S'w'
I8
tp3469
a(S'p2_vo'
I6
tp3470
a(S'w'
I726
tp3471
a(S'p1_vo'
I1
tp3472
a(S'w'
I8
tp3473
a(S'p2_vo'
I5
tp3474
a(S'w'
I1466
tp3475
a(S'p2_tl'
I240
tp3476
a(S'w'
I4
tp3477
a(S'p2_vo'
I1
tp3478
a(S'w'
I724
tp3479
a(S'p1_du'
I2
tp3480
a(S'w'
I751
tp3481
a(S'p2_vo'
I8
tp3482
a(S'w'
I4
tp3483
a(S'w'
I15
tp3484
a(S'tr_ll'
I1
tp3485
a(S'tr_th'
I2
tp3486
a(S'tr_ll'
I1
tp3487
a(S'w'
I2
tp3488
a(S'tr_tl'
I129
tp3489
a(S'w'
I8
tp3490
a(S'ch_no'
I1
tp3491
a(S'ch_tr'
I1
tp3492
a(S'ch_p2'
I1
tp3493
a(S'ch_p1'
I1
tp3494
a(S'w'
I1
tp3495
a(S'ch_no'
I1
tp3496
a(S'ch_tr'
I1
tp3497
a(S'ch_p2'
I1
tp3498
a(S'ch_p1'
I1
tp3499
a(S'w'
I699
tp3500
a(S'p1_du'
I1
tp3501
a(S'p1_vo'
I3
tp3502
a(S'w'
I4
tp3503
a(S'p1_ll'
I1
tp3504
a(S'p1_th'
I0
tp3505
a(S'p1_ll'
I1
tp3506
a(S'w'
I2
tp3507
a(S'p1_tl'
I179
tp3508
a(S'w'
I9
tp3509
a(S'p2_vo'
I7
tp3510
a(S'w'
I707
tp3511
a(S'p1_vo'
I2
tp3512
a(S'w'
I8
tp3513
a(S'p2_vo'
I6
tp3514
a(S'w'
I726
tp3515
a(S'p1_vo'
I1
tp3516
a(S'w'
I8
tp3517
a(S'p2_vo'
I5
tp3518
a(S'w'
I1465
tp3519
a(S'p2_tl'
I214
tp3520
a(S'w'
I4
tp3521
a(S'p2_vo'
I1
tp3522
a(S'w'
I724
tp3523
a(S'p1_du'
I2
tp3524
a(S'w'
I752
tp3525
a(S'p2_vo'
I8
tp3526
a(S'w'
I4
tp3527
a(S'w'
I16
tp3528
a(S'tr_ll'
I1
tp3529
a(S'tr_th'
I1
tp3530
a(S'tr_ll'
I1
tp3531
a(S'w'
I2
tp3532
a(S'tr_tl'
I64
tp3533
a(S'w'
I713
tp3534
a(S'p1_du'
I1
tp3535
a(S'p1_vo'
I3
tp3536
a(S'w'
I4
tp3537
a(S'p1_tl'
I239
tp3538
a(S'w'
I9
tp3539
a(S'p2_vo'
I7
tp3540
a(S'w'
I702
tp3541
a(S'p1_vo'
I2
tp3542
a(S'w'
I8
tp3543
a(S'p2_vo'
I6
tp3544
a(S'w'
I725
tp3545
a(S'p1_vo'
I1
tp3546
a(S'w'
I8
tp3547
a(S'p2_vo'
I5
tp3548
a(S'w'
I1460
tp3549
a(S'p1_du'
I2
tp3550
a(S'w'
I9
tp3551
a(S'p2_ll'
I1
tp3552
a(S'p2_th'
I1
tp3553
a(S'p2_ll'
I1
tp3554
a(S'w'
I2
tp3555
a(S'p2_tl'
I64
tp3556
a(S'w'
I4
tp3557
a(S'p2_vo'
I1
tp3558
a(S'w'
I1481
tp3559
a(S'p1_vo'
I7
tp3560
a(S'w'
I4
tp3561
a(S'p1_tl'
I240
tp3562
a(S'w'
I45
tp3563
a(S'p2_vo'
I9
tp3564
a(S'w'
I3
tp3565
a(S'p2_ll'
I1
tp3566
a(S'p2_th'
I0
tp3567
a(S'p2_ll'
I1
tp3568
a(S'w'
I1
tp3569
a(S'p2_tl'
I143
tp3570
a(S'w'
I29
tp3571
a(S'tr_ll'
I1
tp3572
a(S'tr_th'
I2
tp3573
a(S'tr_ll'
I1
tp3574
a(S'w'
I2
tp3575
a(S'tr_tl'
I207
tp3576
a(S'w'
I16
tp3577
a(S'ch_no'
I1
tp3578
a(S'ch_tr'
I1
tp3579
a(S'ch_p2'
I1
tp3580
a(S'ch_p1'
I1
tp3581
a(S'w'
I1
tp3582
a(S'ch_no'
I1
tp3583
a(S'ch_tr'
I1
tp3584
a(S'ch_p2'
I1
tp3585
a(S'ch_p1'
I1
tp3586
a(S'w'
I604
tp3587
a(S'p1_vo'
I6
tp3588
a(S'w'
I7
tp3589
a(S'p2_vo'
I8
tp3590
a(S'w'
I727
tp3591
a(S'p1_vo'
I5
tp3592
a(S'w'
I8
tp3593
a(S'p2_vo'
I7
tp3594
a(S'w'
I726
tp3595
a(S'p1_vo'
I4
tp3596
a(S'w'
I8
tp3597
a(S'p2_vo'
I6
tp3598
a(S'w'
I729
tp3599
a(S'p2_du'
I2
tp3600
a(S'p2_vo'
I2
tp3601
a(S'w'
I2198
tp3602
a(S'p1_vo'
I3
tp3603
a(S'w'
I9
tp3604
a(S'p2_du'
I0
tp3605
a(S'p2_vo'
I0
tp3606
a(S'w'
I15
tp3607
a(S'tr_ll'
I1
tp3608
a(S'tr_th'
I1
tp3609
a(S'tr_ll'
I1
tp3610
a(S'w'
I2
tp3611
a(S'tr_tl'
I104
tp3612
a(S'w'
I726
tp3613
a(S'p2_du'
I1
tp3614
a(S'p2_vo'
I5
tp3615
a(S'w'
I4
tp3616
a(S'w'
I711
tp3617
a(S'p1_vo'
I2
tp3618
a(S'w'
I7
tp3619
a(S'p2_vo'
I4
tp3620
a(S'w'
I730
tp3621
a(S'p2_vo'
I3
tp3622
a(S'w'
I730
tp3623
a(S'p1_vo'
I1
tp3624
a(S'w'
I7
tp3625
a(S'p2_vo'
I2
tp3626
a(S'w'
I731
tp3627
a(S'p2_du'
I2
tp3628
a(S'p2_vo'
I1
tp3629
a(S'w'
I1474
tp3630
a(S'p1_vo'
I7
tp3631
a(S'w'
I4
tp3632
a(S'p1_ll'
I1
tp3633
a(S'p1_th'
I1
tp3634
a(S'p1_ll'
I1
tp3635
a(S'w'
I1
tp3636
a(S'p1_tl'
I13
tp3637
a(S'w'
I24
tp3638
a(S'p2_du'
I1
tp3639
a(S'p2_vo'
I8
tp3640
a(S'w'
I4
tp3641
a(S'p2_tl'
I160
tp3642
a(S'w'
I21
tp3643
a(S'tr_ll'
I1
tp3644
a(S'tr_th'
I2
tp3645
a(S'tr_ll'
I1
tp3646
a(S'w'
I2
tp3647
a(S'tr_tl'
I207
tp3648
a(S'w'
I8
tp3649
a(S'ch_no'
I1
tp3650
a(S'ch_tr'
I1
tp3651
a(S'ch_p2'
I1
tp3652
a(S'ch_p1'
I1
tp3653
a(S'w'
I1
tp3654
a(S'ch_no'
I1
tp3655
a(S'ch_tr'
I1
tp3656
a(S'ch_p2'
I1
tp3657
a(S'ch_p1'
I1
tp3658
a(S'w'
I659
tp3659
a(S'p1_vo'
I6
tp3660
a(S'w'
I8
tp3661
a(S'p2_vo'
I7
tp3662
a(S'w'
I726
tp3663
a(S'p1_vo'
I5
tp3664
a(S'w'
I8
tp3665
a(S'p2_vo'
I6
tp3666
a(S'w'
I726
tp3667
a(S'p1_vo'
I4
tp3668
a(S'w'
I8
tp3669
a(S'p2_vo'
I5
tp3670
a(S'w'
I727
tp3671
a(S'p1_vo'
I3
tp3672
a(S'w'
I7
tp3673
a(S'p2_du'
I2
tp3674
a(S'p2_vo'
I1
tp3675
a(S'w'
I1459
tp3676
a(S'p1_vo'
I2
tp3677
a(S'w'
I745
tp3678
a(S'p1_vo'
I7
tp3679
a(S'w'
I3
tp3680
a(S'p1_ll'
I1
tp3681
a(S'p1_th'
I0
tp3682
a(S'p1_ll'
I1
tp3683
a(S'w'
I2
tp3684
a(S'p1_tl'
I240
tp3685
a(S'w'
I23
tp3686
a(S'p2_du'
I1
tp3687
a(S'p2_vo'
I8
tp3688
a(S'w'
I4
tp3689
a(S'p2_tl'
I143
tp3690
a(S'w'
I15
tp3691
a(S'tr_ll'
I1
tp3692
a(S'tr_th'
I1
tp3693
a(S'w'
I1
tp3694
a(S'tr_ll'
I1
tp3695
a(S'w'
I1
tp3696
a(S'tr_tl'
I104
tp3697
a(S'w'
I674
tp3698
a(S'p1_vo'
I6
tp3699
a(S'w'
I8
tp3700
a(S'p2_vo'
I7
tp3701
a(S'w'
I726
tp3702
a(S'p1_vo'
I5
tp3703
a(S'w'
I8
tp3704
a(S'p2_vo'
I6
tp3705
a(S'w'
I725
tp3706
a(S'p1_vo'
I4
tp3707
a(S'w'
I8
tp3708
a(S'p2_vo'
I5
tp3709
a(S'w'
I2928
tp3710
a(S'p1_vo'
I3
tp3711
a(S'w'
I25
tp3712
a(S'tr_ll'
I1
tp3713
a(S'tr_th'
I2
tp3714
a(S'tr_ll'
I1
tp3715
a(S'w'
I1
tp3716
a(S'tr_tl'
I207
tp3717
a(S'w'
I14
tp3718
a(S'ch_no'
I1
tp3719
a(S'ch_tr'
I1
tp3720
a(S'ch_p2'
I1
tp3721
a(S'ch_p1'
I1
tp3722
a(S'w'
I1
tp3723
a(S'ch_no'
I1
tp3724
a(S'ch_tr'
I1
tp3725
a(S'ch_p2'
I1
tp3726
a(S'ch_p1'
I1
tp3727
a(S'w'
I696
tp3728
a(S'p2_du'
I2
tp3729
a(S'p2_vo'
I1
tp3730
a(S'w'
I730
tp3731
a(S'p1_vo'
I2
tp3732
a(S'w'
I1467
tp3733
a(S'p1_vo'
I1
tp3734
a(S'w'
I2211
tp3735
a(S'p1_vo'
I7
tp3736
a(S'w'
I4
tp3737
a(S'p1_ll'
I1
tp3738
a(S'p1_th'
I1
tp3739
a(S'p1_ll'
I1
tp3740
a(S'w'
I1
tp3741
a(S'p1_tl'
I13
tp3742
a(S'w'
I21
tp3743
a(S'p2_du'
I1
tp3744
a(S'p2_vo'
I8
tp3745
a(S'w'
I4
tp3746
a(S'p2_tl'
I160
tp3747
a(S'w'
I15
tp3748
a(S'tr_ll'
I1
tp3749
a(S'tr_th'
I1
tp3750
a(S'w'
I1
tp3751
a(S'tr_ll'
I1
tp3752
a(S'w'
I1
tp3753
a(S'tr_tl'
I104
tp3754
a(S'w'
I677
tp3755
a(S'p1_vo'
I6
tp3756
a(S'w'
I8
tp3757
a(S'p2_vo'
I7
tp3758
a(S'w'
I726
tp3759
a(S'p1_vo'
I5
tp3760
a(S'w'
I8
tp3761
a(S'p2_vo'
I6
tp3762
a(S'w'
I726
tp3763
a(S'p1_vo'
I4
tp3764
a(S'w'
I8
tp3765
a(S'p2_vo'
I5
tp3766
a(S'w'
I726
tp3767
a(S'p1_vo'
I3
tp3768
a(S'w'
I7
tp3769
a(S'p2_du'
I2
tp3770
a(S'p2_vo'
I1
tp3771
a(S'w'
I1460
tp3772
a(S'p1_vo'
I2
tp3773
a(S'w'
I744
tp3774
a(S'p1_vo'
I7
tp3775
a(S'w'
I4
tp3776
a(S'p1_ll'
I1
tp3777
a(S'p1_th'
I0
tp3778
a(S'p1_ll'
I1
tp3779
a(S'w'
I1
tp3780
a(S'p1_tl'
I240
tp3781
a(S'w'
I21
tp3782
a(S'p2_du'
I1
tp3783
a(S'p2_vo'
I8
tp3784
a(S'w'
I4
tp3785
a(S'p2_tl'
I143
tp3786
a(S'w'
I21
tp3787
a(S'tr_ll'
I1
tp3788
a(S'tr_th'
I2
tp3789
a(S'w'
I1
tp3790
a(S'tr_ll'
I1
tp3791
a(S'w'
I1
tp3792
a(S'tr_tl'
I207
tp3793
a(S'w'
I8
tp3794
a(S'ch_no'
I1
tp3795
a(S'ch_tr'
I1
tp3796
a(S'ch_p2'
I1
tp3797
a(S'ch_p1'
I1
tp3798
a(S'w'
I1
tp3799
a(S'ch_no'
I1
tp3800
a(S'ch_tr'
I1
tp3801
a(S'ch_p2'
I1
tp3802
a(S'ch_p1'
I1
tp3803
a(S'w'
I663
tp3804
a(S'p1_vo'
I6
tp3805
a(S'w'
I8
tp3806
a(S'p2_vo'
I7
tp3807
a(S'w'
I725
tp3808
a(S'p1_vo'
I5
tp3809
a(S'w'
I8
tp3810
a(S'p2_vo'
I6
tp3811
a(S'w'
I726
tp3812
a(S'p1_vo'
I4
tp3813
a(S'w'
I8
tp3814
a(S'p2_vo'
I5
tp3815
a(S'w'
I727
tp3816
a(S'p1_vo'
I3
tp3817
a(S'w'
I7
tp3818
a(S'p2_du'
I2
tp3819
a(S'p2_vo'
I1
tp3820
a(S'w'
I1459
tp3821
a(S'p1_vo'
I2
tp3822
a(S'w'
I735
tp3823
a(S'p1_du'
I0
tp3824
a(S'p1_vo'
I0
tp3825
a(S'w'
I12
tp3826
a(S'p2_du'
I0
tp3827
a(S'p2_vo'
I0
tp3828
a(S'w'
I16
tp3829
a(S'tr_ll'
I1
tp3830
a(S'tr_th'
I1
tp3831
a(S'tr_ll'
I1
tp3832
a(S'w'
I2
tp3833
a(S'tr_tl'
I104
tp3834
a(S'w'
I5115
tp3835
a(S'p1_du'
I2
tp3836
a(S'p1_vo'
I7
tp3837
a(S'w'
I4
tp3838
a(S'w'
I21
tp3839
a(S'p2_du'
I1
tp3840
a(S'p2_vo'
I8
tp3841
a(S'w'
I4
tp3842
a(S'w'
I21
tp3843
a(S'tr_ll'
I1
tp3844
a(S'tr_th'
I2
tp3845
a(S'tr_ll'
I1
tp3846
a(S'w'
I2
tp3847
a(S'tr_tl'
I207
tp3848
a(S'w'
I13
tp3849
a(S'ch_no'
I1
tp3850
a(S'ch_tr'
I1
tp3851
a(S'ch_p2'
I1
tp3852
a(S'ch_p1'
I1
tp3853
a(S'w'
I1
tp3854
a(S'ch_no'
I1
tp3855
a(S'ch_tr'
I1
tp3856
a(S'ch_p2'
I1
tp3857
a(S'ch_p1'
I1
tp3858
a(S'w'
I659
tp3859
a(S'p1_vo'
I6
tp3860
a(S'w'
I8
tp3861
a(S'p2_vo'
I7
tp3862
a(S'w'
I725
tp3863
a(S'p1_vo'
I5
tp3864
a(S'w'
I8
tp3865
a(S'p2_vo'
I6
tp3866
a(S'w'
I726
tp3867
a(S'p1_vo'
I4
tp3868
a(S'w'
I8
tp3869
a(S'p2_vo'
I5
tp3870
a(S'w'
I726
tp3871
a(S'p1_vo'
I3
tp3872
a(S'w'
I7
tp3873
a(S'p2_du'
I2
tp3874
a(S'p2_vo'
I1
tp3875
a(S'w'
I1460
tp3876
a(S'p1_vo'
I2
tp3877
a(S'w'
I744
tp3878
a(S'p1_vo'
I7
tp3879
a(S'w'
I3
tp3880
a(S'p1_ll'
I1
tp3881
a(S'p1_th'
I1
tp3882
a(S'p1_ll'
I1
tp3883
a(S'w'
I2
tp3884
a(S'p1_tl'
I13
tp3885
a(S'w'
I23
tp3886
a(S'p2_du'
I1
tp3887
a(S'p2_vo'
I8
tp3888
a(S'w'
I4
tp3889
a(S'p2_tl'
I160
tp3890
a(S'w'
I15
tp3891
a(S'tr_ll'
I1
tp3892
a(S'tr_th'
I1
tp3893
a(S'tr_ll'
I1
tp3894
a(S'w'
I2
tp3895
a(S'tr_tl'
I104
tp3896
a(S'w'
I674
tp3897
a(S'p1_vo'
I6
tp3898
a(S'w'
I8
tp3899
a(S'p2_vo'
I7
tp3900
a(S'w'
I726
tp3901
a(S'p1_vo'
I5
tp3902
a(S'w'
I8
tp3903
a(S'p2_vo'
I6
tp3904
a(S'w'
I726
tp3905
a(S'p1_vo'
I4
tp3906
a(S'w'
I8
tp3907
a(S'p2_vo'
I5
tp3908
a(S'w'
I2928
tp3909
a(S'p1_vo'
I3
tp3910
a(S'w'
I25
tp3911
a(S'tr_ll'
I1
tp3912
a(S'tr_th'
I2
tp3913
a(S'tr_ll'
I1
tp3914
a(S'w'
I1
tp3915
a(S'tr_tl'
I207
tp3916
a(S'w'
I9
tp3917
a(S'ch_no'
I1
tp3918
a(S'ch_tr'
I1
tp3919
a(S'ch_p2'
I1
tp3920
a(S'ch_p1'
I1
tp3921
a(S'w'
I1
tp3922
a(S'ch_no'
I1
tp3923
a(S'ch_tr'
I1
tp3924
a(S'ch_p2'
I1
tp3925
a(S'ch_p1'
I1
tp3926
a(S'w'
I702
tp3927
a(S'p2_du'
I2
tp3928
a(S'p2_vo'
I1
tp3929
a(S'w'
I729
tp3930
a(S'p1_vo'
I2
tp3931
a(S'w'
I1468
tp3932
a(S'p1_vo'
I1
tp3933
a(S'w'
I2212
tp3934
a(S'p1_vo'
I7
tp3935
a(S'w'
I3
tp3936
a(S'p1_ll'
I1
tp3937
a(S'p1_th'
I0
tp3938
a(S'p1_ll'
I1
tp3939
a(S'w'
I2
tp3940
a(S'p1_tl'
I240
tp3941
a(S'w'
I23
tp3942
a(S'p2_du'
I1
tp3943
a(S'p2_vo'
I8
tp3944
a(S'w'
I4
tp3945
a(S'p2_tl'
I143
tp3946
a(S'w'
I15
tp3947
a(S'tr_ll'
I1
tp3948
a(S'tr_th'
I1
tp3949
a(S'w'
I1
tp3950
a(S'tr_ll'
I1
tp3951
a(S'w'
I1
tp3952
a(S'tr_tl'
I104
tp3953
a(S'w'
I674
tp3954
a(S'p1_vo'
I6
tp3955
a(S'w'
I8
tp3956
a(S'p2_vo'
I7
tp3957
a(S'w'
I726
tp3958
a(S'p1_vo'
I5
tp3959
a(S'w'
I8
tp3960
a(S'p2_vo'
I6
tp3961
a(S'w'
I726
tp3962
a(S'p1_vo'
I4
tp3963
a(S'w'
I8
tp3964
a(S'p2_vo'
I5
tp3965
a(S'w'
I2927
tp3966
a(S'p1_vo'
I3
tp3967
a(S'w'
I25
tp3968
a(S'tr_ll'
I1
tp3969
a(S'tr_th'
I2
tp3970
a(S'tr_ll'
I1
tp3971
a(S'w'
I1
tp3972
a(S'tr_tl'
I207
tp3973
a(S'w'
I14
tp3974
a(S'ch_no'
I1
tp3975
a(S'ch_tr'
I1
tp3976
a(S'ch_p2'
I1
tp3977
a(S'ch_p1'
I1
tp3978
a(S'w'
I1
tp3979
a(S'ch_no'
I1
tp3980
a(S'ch_tr'
I1
tp3981
a(S'ch_p2'
I1
tp3982
a(S'ch_p1'
I1
tp3983
a(S'w'
I697
tp3984
a(S'p2_du'
I2
tp3985
a(S'p2_vo'
I1
tp3986
a(S'w'
I730
tp3987
a(S'p1_vo'
I2
tp3988
a(S'w'
I1466
tp3989
a(S'p1_vo'
I1
tp3990
a(S'w'
I2212
tp3991
a(S'p1_vo'
I7
tp3992
a(S'w'
I4
tp3993
a(S'p1_ll'
I1
tp3994
a(S'p1_th'
I1
tp3995
a(S'p1_ll'
I1
tp3996
a(S'w'
I1
tp3997
a(S'p1_tl'
I13
tp3998
a(S'w'
I21
tp3999
a(S'p2_du'
I1
tp4000
a(S'p2_vo'
I8
tp4001
a(S'w'
I4
tp4002
a(S'p2_tl'
I160
tp4003
a(S'w'
I15
tp4004
a(S'tr_ll'
I1
tp4005
a(S'tr_th'
I1
tp4006
a(S'w'
I1
tp4007
a(S'tr_ll'
I1
tp4008
a(S'w'
I1
tp4009
a(S'tr_tl'
I104
tp4010
a(S'w'
I676
tp4011
a(S'p1_vo'
I6
tp4012
a(S'w'
I8
tp4013
a(S'p2_vo'
I7
tp4014
a(S'w'
I726
tp4015
a(S'p1_vo'
I5
tp4016
a(S'w'
I8
tp4017
a(S'p2_vo'
I6
tp4018
a(S'w'
I726
tp4019
a(S'p1_vo'
I4
tp4020
a(S'w'
I8
tp4021
a(S'p2_vo'
I5
tp4022
a(S'w'
I727
tp4023
a(S'p1_vo'
I3
tp4024
a(S'w'
I7
tp4025
a(S'p2_du'
I2
tp4026
a(S'p2_vo'
I1
tp4027
a(S'w'
I1459
tp4028
a(S'p1_vo'
I2
tp4029
a(S'w'
I744
tp4030
a(S'p1_vo'
I7
tp4031
a(S'w'
I4
tp4032
a(S'p1_ll'
I1
tp4033
a(S'p1_th'
I0
tp4034
a(S'p1_ll'
I1
tp4035
a(S'w'
I1
tp4036
a(S'p1_tl'
I240
tp4037
a(S'w'
I21
tp4038
a(S'p2_du'
I1
tp4039
a(S'p2_vo'
I8
tp4040
a(S'w'
I4
tp4041
a(S'p2_tl'
I143
tp4042
a(S'w'
I21
tp4043
a(S'tr_ll'
I1
tp4044
a(S'tr_th'
I2
tp4045
a(S'w'
I1
tp4046
a(S'tr_ll'
I1
tp4047
a(S'w'
I1
tp4048
a(S'tr_tl'
I207
tp4049
a(S'w'
I9
tp4050
a(S'ch_no'
I1
tp4051
a(S'ch_tr'
I1
tp4052
a(S'ch_p2'
I1
tp4053
a(S'ch_p1'
I1
tp4054
a(S'ch_no'
I1
tp4055
a(S'ch_tr'
I1
tp4056
a(S'ch_p2'
I1
tp4057
a(S'ch_p1'
I1
tp4058
a(S'w'
I663
tp4059
a(S'p1_vo'
I6
tp4060
a(S'w'
I8
tp4061
a(S'p2_vo'
I7
tp4062
a(S'w'
I726
tp4063
a(S'p1_vo'
I5
tp4064
a(S'w'
I8
tp4065
a(S'p2_vo'
I6
tp4066
a(S'w'
I725
tp4067
a(S'p1_vo'
I4
tp4068
a(S'w'
I8
tp4069
a(S'p2_vo'
I5
tp4070
a(S'w'
I727
tp4071
a(S'p1_vo'
I3
tp4072
a(S'w'
I7
tp4073
a(S'p2_du'
I2
tp4074
a(S'p2_vo'
I1
tp4075
a(S'w'
I1460
tp4076
a(S'p1_vo'
I2
tp4077
a(S'w'
I735
tp4078
a(S'p1_du'
I0
tp4079
a(S'p1_vo'
I0
tp4080
a(S'w'
I12
tp4081
a(S'p2_du'
I0
tp4082
a(S'p2_vo'
I0
tp4083
a(S'w'
I16
tp4084
a(S'tr_ll'
I1
tp4085
a(S'tr_th'
I1
tp4086
a(S'tr_ll'
I1
tp4087
a(S'w'
I2
tp4088
a(S'tr_tl'
I104
tp4089
a(S'w'
I5118
tp4090
a(S'p1_du'
I2
tp4091
a(S'p1_vo'
I7
tp4092
a(S'w'
I4
tp4093
a(S'p1_tl'
I143
tp4094
a(S'w'
I23
tp4095
a(S'p2_du'
I1
tp4096
a(S'p2_vo'
I9
tp4097
a(S'w'
I4
tp4098
a(S'p2_tl'
I120
tp4099
a(S'w'
I21
tp4100
a(S'tr_ll'
I1
tp4101
a(S'tr_th'
I2
tp4102
a(S'w'
I1
tp4103
a(S'tr_ll'
I1
tp4104
a(S'w'
I1
tp4105
a(S'tr_tl'
I207
tp4106
a(S'w'
I12
tp4107
a(S'ch_no'
I1
tp4108
a(S'ch_tr'
I1
tp4109
a(S'ch_p2'
I1
tp4110
a(S'ch_p1'
I1
tp4111
a(S'w'
I1
tp4112
a(S'ch_no'
I1
tp4113
a(S'ch_tr'
I1
tp4114
a(S'ch_p2'
I1
tp4115
a(S'ch_p1'
I1
tp4116
a(S'w'
I654
tp4117
a(S'p1_vo'
I6
tp4118
a(S'w'
I8
tp4119
a(S'p2_vo'
I8
tp4120
a(S'w'
I726
tp4121
a(S'p1_vo'
I5
tp4122
a(S'w'
I8
tp4123
a(S'p2_vo'
I7
tp4124
a(S'w'
I726
tp4125
a(S'p1_vo'
I4
tp4126
a(S'w'
I8
tp4127
a(S'p2_vo'
I6
tp4128
a(S'w'
I728
tp4129
a(S'p2_du'
I2
tp4130
a(S'p2_vo'
I2
tp4131
a(S'w'
I2199
tp4132
a(S'p1_vo'
I3
tp4133
a(S'w'
I9
tp4134
a(S'p2_du'
I0
tp4135
a(S'p2_vo'
I0
tp4136
a(S'w'
I15
tp4137
a(S'tr_ll'
I1
tp4138
a(S'tr_th'
I1
tp4139
a(S'tr_ll'
I1
tp4140
a(S'w'
I2
tp4141
a(S'tr_tl'
I104
tp4142
a(S'w'
I8
tp4143
a(S'ch_no'
I1
tp4144
a(S'ch_tr'
I1
tp4145
a(S'ch_p2'
I1
tp4146
a(S'ch_p1'
I1
tp4147
a(S'w'
I1
tp4148
a(S'ch_no'
I1
tp4149
a(S'ch_tr'
I1
tp4150
a(S'ch_p2'
I1
tp4151
a(S'ch_p1'
I1
tp4152
a(S'w'
I717
tp4153
a(S'p2_du'
I1
tp4154
a(S'p2_vo'
I5
tp4155
a(S'w'
I4
tp4156
a(S'w'
I711
tp4157
a(S'p1_vo'
I2
tp4158
a(S'w'
I7
tp4159
a(S'p2_vo'
I4
tp4160
a(S'w'
I731
tp4161
a(S'p2_vo'
I3
tp4162
a(S'w'
I729
tp4163
a(S'p1_vo'
I1
tp4164
a(S'w'
I7
tp4165
a(S'p2_vo'
I2
tp4166
a(S'w'
I731
tp4167
a(S'p2_du'
I2
tp4168
a(S'p2_vo'
I1
tp4169
a(S'w'
I1474
tp4170
a(S'p1_vo'
I7
tp4171
a(S'w'
I4
tp4172
a(S'p1_tl'
I160
tp4173
a(S'w'
I23
tp4174
a(S'p2_du'
I1
tp4175
a(S'p2_vo'
I8
tp4176
a(S'w'
I4
tp4177
a(S'p2_tl'
I135
tp4178
a(S'w'
I21
tp4179
a(S'tr_ll'
I1
tp4180
a(S'tr_th'
I2
tp4181
a(S'tr_ll'
I1
tp4182
a(S'w'
I2
tp4183
a(S'tr_tl'
I207
tp4184
a(S'w'
I8
tp4185
a(S'ch_no'
I1
tp4186
a(S'ch_tr'
I1
tp4187
a(S'ch_p2'
I1
tp4188
a(S'ch_p1'
I1
tp4189
a(S'w'
I1
tp4190
a(S'ch_no'
I1
tp4191
a(S'ch_tr'
I1
tp4192
a(S'ch_p2'
I1
tp4193
a(S'ch_p1'
I1
tp4194
a(S'w'
I661
tp4195
a(S'p1_vo'
I6
tp4196
a(S'w'
I8
tp4197
a(S'p2_vo'
I7
tp4198
a(S'w'
I726
tp4199
a(S'p1_vo'
I5
tp4200
a(S'w'
I8
tp4201
a(S'p2_vo'
I6
tp4202
a(S'w'
I726
tp4203
a(S'p1_vo'
I4
tp4204
a(S'w'
I8
tp4205
a(S'p2_vo'
I5
tp4206
a(S'w'
I726
tp4207
a(S'p1_vo'
I3
tp4208
a(S'w'
I7
tp4209
a(S'p2_du'
I2
tp4210
a(S'p2_vo'
I1
tp4211
a(S'w'
I1460
tp4212
a(S'p1_vo'
I2
tp4213
a(S'w'
I745
tp4214
a(S'p1_vo'
I7
tp4215
a(S'w'
I4
tp4216
a(S'p1_tl'
I143
tp4217
a(S'w'
I23
tp4218
a(S'p2_du'
I1
tp4219
a(S'p2_vo'
I8
tp4220
a(S'w'
I4
tp4221
a(S'p2_tl'
I120
tp4222
a(S'w'
I16
tp4223
a(S'tr_ll'
I1
tp4224
a(S'tr_th'
I1
tp4225
a(S'tr_ll'
I1
tp4226
a(S'w'
I1
tp4227
a(S'tr_tl'
I104
tp4228
a(S'w'
I675
tp4229
a(S'p1_vo'
I6
tp4230
a(S'w'
I8
tp4231
a(S'p2_vo'
I7
tp4232
a(S'w'
I725
tp4233
a(S'p1_vo'
I5
tp4234
a(S'w'
I8
tp4235
a(S'p2_vo'
I6
tp4236
a(S'w'
I726
tp4237
a(S'p1_vo'
I4
tp4238
a(S'w'
I8
tp4239
a(S'p2_vo'
I5
tp4240
a(S'w'
I2927
tp4241
a(S'p1_vo'
I3
tp4242
a(S'w'
I25
tp4243
a(S'tr_ll'
I1
tp4244
a(S'tr_th'
I2
tp4245
a(S'tr_ll'
I1
tp4246
a(S'w'
I1
tp4247
a(S'tr_tl'
I207
tp4248
a(S'w'
I9
tp4249
a(S'ch_no'
I1
tp4250
a(S'ch_tr'
I1
tp4251
a(S'ch_p2'
I1
tp4252
a(S'ch_p1'
I1
tp4253
a(S'w'
I1
tp4254
a(S'ch_no'
I1
tp4255
a(S'ch_tr'
I1
tp4256
a(S'ch_p2'
I1
tp4257
a(S'ch_p1'
I1
tp4258
a(S'w'
I702
tp4259
a(S'p2_du'
I2
tp4260
a(S'p2_vo'
I1
tp4261
a(S'w'
I730
tp4262
a(S'p1_vo'
I2
tp4263
a(S'w'
I1466
tp4264
a(S'p1_vo'
I1
tp4265
a(S'w'
I2213
tp4266
a(S'p1_vo'
I7
tp4267
a(S'w'
I4
tp4268
a(S'p1_tl'
I160
tp4269
a(S'w'
I20
tp4270
a(S'p2_du'
I1
tp4271
a(S'p2_vo'
I8
tp4272
a(S'w'
I4
tp4273
a(S'p2_tl'
I135
tp4274
a(S'w'
I16
tp4275
a(S'tr_ll'
I1
tp4276
a(S'tr_th'
I1
tp4277
a(S'tr_ll'
I1
tp4278
a(S'w'
I1
tp4279
a(S'tr_tl'
I104
tp4280
a(S'w'
I678
tp4281
a(S'p1_vo'
I6
tp4282
a(S'w'
I8
tp4283
a(S'p2_vo'
I7
tp4284
a(S'w'
I725
tp4285
a(S'p1_vo'
I5
tp4286
a(S'w'
I8
tp4287
a(S'p2_vo'
I6
tp4288
a(S'w'
I726
tp4289
a(S'p1_vo'
I4
tp4290
a(S'w'
I8
tp4291
a(S'p2_vo'
I5
tp4292
a(S'w'
I727
tp4293
a(S'p1_vo'
I3
tp4294
a(S'w'
I7
tp4295
a(S'p2_du'
I2
tp4296
a(S'p2_vo'
I1
tp4297
a(S'w'
I1460
tp4298
a(S'p1_vo'
I2
tp4299
a(S'w'
I744
tp4300
a(S'p1_vo'
I7
tp4301
a(S'w'
I4
tp4302
a(S'p1_tl'
I143
tp4303
a(S'w'
I20
tp4304
a(S'p2_du'
I1
tp4305
a(S'p2_vo'
I8
tp4306
a(S'w'
I4
tp4307
a(S'p2_tl'
I120
tp4308
a(S'w'
I22
tp4309
a(S'tr_ll'
I1
tp4310
a(S'tr_th'
I2
tp4311
a(S'tr_ll'
I1
tp4312
a(S'w'
I1
tp4313
a(S'tr_tl'
I207
tp4314
a(S'w'
I9
tp4315
a(S'ch_no'
I1
tp4316
a(S'ch_tr'
I1
tp4317
a(S'ch_p2'
I1
tp4318
a(S'ch_p1'
I1
tp4319
a(S'w'
I1
tp4320
a(S'ch_no'
I1
tp4321
a(S'ch_tr'
I1
tp4322
a(S'ch_p2'
I1
tp4323
a(S'ch_p1'
I1
tp4324
a(S'w'
I663
tp4325
a(S'p1_vo'
I6
tp4326
a(S'w'
I8
tp4327
a(S'p2_vo'
I7
tp4328
a(S'w'
I726
tp4329
a(S'p1_vo'
I5
tp4330
a(S'w'
I8
tp4331
a(S'p2_vo'
I6
tp4332
a(S'w'
I726
tp4333
a(S'p1_vo'
I4
tp4334
a(S'w'
I8
tp4335
a(S'p2_vo'
I5
tp4336
a(S'w'
I727
tp4337
a(S'p1_vo'
I3
tp4338
a(S'w'
I7
tp4339
a(S'p2_du'
I2
tp4340
a(S'p2_vo'
I1
tp4341
a(S'w'
I1459
tp4342
a(S'p1_vo'
I2
tp4343
a(S'w'
I735
tp4344
a(S'p1_du'
I0
tp4345
a(S'p1_vo'
I0
tp4346
a(S'w'
I12
tp4347
a(S'p2_du'
I0
tp4348
a(S'p2_vo'
I0
tp4349
a(S'w'
I16
tp4350
a(S'tr_ll'
I1
tp4351
a(S'tr_th'
I1
tp4352
a(S'tr_ll'
I1
tp4353
a(S'w'
I2
tp4354
a(S'tr_tl'
I104
tp4355
a(S'w'
I5115
tp4356
a(S'p1_du'
I2
tp4357
a(S'p1_vo'
I7
tp4358
a(S'w'
I4
tp4359
a(S'w'
I27
tp4360
a(S'p2_du'
I1
tp4361
a(S'p2_vo'
I9
tp4362
a(S'w'
I4
tp4363
a(S'w'
I21
tp4364
a(S'tr_ll'
I1
tp4365
a(S'tr_th'
I2
tp4366
a(S'tr_ll'
I1
tp4367
a(S'w'
I2
tp4368
a(S'tr_tl'
I207
tp4369
a(S'w'
I8
tp4370
a(S'ch_no'
I1
tp4371
a(S'ch_tr'
I1
tp4372
a(S'ch_p2'
I1
tp4373
a(S'ch_p1'
I1
tp4374
a(S'w'
I1
tp4375
a(S'ch_no'
I1
tp4376
a(S'ch_tr'
I1
tp4377
a(S'ch_p2'
I1
tp4378
a(S'ch_p1'
I1
tp4379
a(S'w'
I657
tp4380
a(S'p1_vo'
I6
tp4381
a(S'w'
I8
tp4382
a(S'p2_vo'
I8
tp4383
a(S'w'
I726
tp4384
a(S'p1_vo'
I5
tp4385
a(S'w'
I8
tp4386
a(S'p2_vo'
I7
tp4387
a(S'w'
I726
tp4388
a(S'p1_vo'
I4
tp4389
a(S'w'
I8
tp4390
a(S'p2_du'
I2
tp4391
a(S'p2_vo'
I2
tp4392
a(S'w'
I726
tp4393
a(S'p1_vo'
I3
tp4394
a(S'w'
I21
tp4395
a(S'p2_du'
I1
tp4396
a(S'p2_vo'
I4
tp4397
a(S'w'
I4
tp4398
a(S'w'
I711
tp4399
a(S'p2_vo'
I3
tp4400
a(S'w'
I730
tp4401
a(S'p1_vo'
I2
tp4402
a(S'w'
I7
tp4403
a(S'p2_du'
I2
tp4404
a(S'p2_vo'
I1
tp4405
a(S'w'
I738
tp4406
a(S'p1_vo'
I7
tp4407
a(S'w'
I4
tp4408
a(S'p1_tl'
I160
tp4409
a(S'w'
I22
tp4410
a(S'p2_du'
I1
tp4411
a(S'p2_vo'
I9
tp4412
a(S'w'
I4
tp4413
a(S'p2_tl'
I135
tp4414
a(S'w'
I15
tp4415
a(S'tr_ll'
I1
tp4416
a(S'tr_th'
I1
tp4417
a(S'tr_ll'
I1
tp4418
a(S'w'
I2
tp4419
a(S'tr_tl'
I104
tp4420
a(S'w'
I676
tp4421
a(S'p1_vo'
I6
tp4422
a(S'w'
I8
tp4423
a(S'p2_vo'
I8
tp4424
a(S'w'
I726
tp4425
a(S'p1_vo'
I5
tp4426
a(S'w'
I8
tp4427
a(S'p2_vo'
I7
tp4428
a(S'w'
I725
tp4429
a(S'p1_vo'
I4
tp4430
a(S'w'
I8
tp4431
a(S'p2_du'
I2
tp4432
a(S'p2_vo'
I2
tp4433
a(S'w'
I727
tp4434
a(S'p1_vo'
I3
tp4435
a(S'w'
I21
tp4436
a(S'p2_du'
I1
tp4437
a(S'p2_vo'
I4
tp4438
a(S'w'
I4
tp4439
a(S'w'
I712
tp4440
a(S'p2_vo'
I3
tp4441
a(S'w'
I730
tp4442
a(S'p1_vo'
I2
tp4443
a(S'w'
I7
tp4444
a(S'p2_du'
I2
tp4445
a(S'p2_vo'
I1
tp4446
a(S'w'
I738
tp4447
a(S'p1_vo'
I7
tp4448
a(S'w'
I4
tp4449
a(S'p1_tl'
I143
tp4450
a(S'w'
I28
tp4451
a(S'p2_du'
I1
tp4452
a(S'p2_vo'
I9
tp4453
a(S'w'
I4
tp4454
a(S'p2_tl'
I120
tp4455
a(S'w'
I21
tp4456
a(S'tr_ll'
I1
tp4457
a(S'tr_th'
I2
tp4458
a(S'w'
I1
tp4459
a(S'tr_ll'
I1
tp4460
a(S'w'
I1
tp4461
a(S'tr_tl'
I207
tp4462
a(S'w'
I9
tp4463
a(S'ch_no'
I1
tp4464
a(S'ch_tr'
I1
tp4465
a(S'ch_p2'
I1
tp4466
a(S'ch_p1'
I1
tp4467
a(S'w'
I1
tp4468
a(S'ch_no'
I1
tp4469
a(S'ch_tr'
I1
tp4470
a(S'ch_p2'
I1
tp4471
a(S'ch_p1'
I1
tp4472
a(S'w'
I654
tp4473
a(S'p1_vo'
I6
tp4474
a(S'w'
I8
tp4475
a(S'p2_vo'
I8
tp4476
a(S'w'
I726
tp4477
a(S'p1_vo'
I5
tp4478
a(S'w'
I8
tp4479
a(S'p2_vo'
I7
tp4480
a(S'w'
I726
tp4481
a(S'p1_vo'
I4
tp4482
a(S'w'
I8
tp4483
a(S'p2_du'
I2
tp4484
a(S'p2_vo'
I2
tp4485
a(S'w'
I727
tp4486
a(S'p1_vo'
I3
tp4487
a(S'w'
I21
tp4488
a(S'p2_du'
I1
tp4489
a(S'p2_vo'
I4
tp4490
a(S'w'
I4
tp4491
a(S'w'
I712
tp4492
a(S'p2_vo'
I3
tp4493
a(S'w'
I729
tp4494
a(S'p1_vo'
I2
tp4495
a(S'w'
I7
tp4496
a(S'p2_du'
I2
tp4497
a(S'p2_vo'
I1
tp4498
a(S'w'
I738
tp4499
a(S'p1_vo'
I7
tp4500
a(S'w'
I4
tp4501
a(S'p1_tl'
I160
tp4502
a(S'w'
I22
tp4503
a(S'p2_du'
I1
tp4504
a(S'p2_vo'
I9
tp4505
a(S'w'
I4
tp4506
a(S'p2_tl'
I135
tp4507
a(S'w'
I15
tp4508
a(S'tr_ll'
I1
tp4509
a(S'tr_th'
I1
tp4510
a(S'w'
I1
tp4511
a(S'tr_ll'
I1
tp4512
a(S'w'
I1
tp4513
a(S'tr_tl'
I104
tp4514
a(S'w'
I676
tp4515
a(S'p1_vo'
I6
tp4516
a(S'w'
I8
tp4517
a(S'p2_vo'
I8
tp4518
a(S'w'
I726
tp4519
a(S'p1_vo'
I5
tp4520
a(S'w'
I8
tp4521
a(S'p2_vo'
I7
tp4522
a(S'w'
I725
tp4523
a(S'p1_vo'
I4
tp4524
a(S'w'
I8
tp4525
a(S'p2_du'
I2
tp4526
a(S'p2_vo'
I2
tp4527
a(S'w'
I727
tp4528
a(S'p1_vo'
I3
tp4529
a(S'w'
I21
tp4530
a(S'p2_du'
I1
tp4531
a(S'p2_vo'
I4
tp4532
a(S'w'
I4
tp4533
a(S'w'
I712
tp4534
a(S'p2_vo'
I3
tp4535
a(S'w'
I729
tp4536
a(S'p1_vo'
I2
tp4537
a(S'w'
I7
tp4538
a(S'p2_du'
I2
tp4539
a(S'p2_vo'
I1
tp4540
a(S'w'
I738
tp4541
a(S'p1_vo'
I7
tp4542
a(S'w'
I4
tp4543
a(S'p1_tl'
I143
tp4544
a(S'w'
I28
tp4545
a(S'p2_du'
I1
tp4546
a(S'p2_vo'
I9
tp4547
a(S'w'
I4
tp4548
a(S'p2_tl'
I120
tp4549
a(S'w'
I21
tp4550
a(S'tr_ll'
I1
tp4551
a(S'tr_th'
I2
tp4552
a(S'w'
I1
tp4553
a(S'tr_ll'
I1
tp4554
a(S'w'
I1
tp4555
a(S'tr_tl'
I207
tp4556
a(S'w'
I8
tp4557
a(S'ch_no'
I1
tp4558
a(S'ch_tr'
I1
tp4559
a(S'ch_p2'
I1
tp4560
a(S'ch_p1'
I1
tp4561
a(S'w'
I1
tp4562
a(S'ch_no'
I1
tp4563
a(S'ch_tr'
I1
tp4564
a(S'ch_p2'
I1
tp4565
a(S'ch_p1'
I1
tp4566
a(S'w'
I655
tp4567
a(S'p1_vo'
I6
tp4568
a(S'w'
I8
tp4569
a(S'p2_vo'
I8
tp4570
a(S'w'
I726
tp4571
a(S'p1_vo'
I5
tp4572
a(S'w'
I8
tp4573
a(S'p2_vo'
I7
tp4574
a(S'w'
I726
tp4575
a(S'p1_vo'
I4
tp4576
a(S'w'
I8
tp4577
a(S'p2_du'
I2
tp4578
a(S'p2_vo'
I2
tp4579
a(S'w'
I727
tp4580
a(S'p1_vo'
I3
tp4581
a(S'w'
I21
tp4582
a(S'p2_du'
I1
tp4583
a(S'p2_vo'
I4
tp4584
a(S'w'
I4
tp4585
a(S'w'
I712
tp4586
a(S'p2_vo'
I3
tp4587
a(S'w'
I729
tp4588
a(S'p1_vo'
I2
tp4589
a(S'w'
I7
tp4590
a(S'p2_du'
I2
tp4591
a(S'p2_vo'
I1
tp4592
a(S'w'
I738
tp4593
a(S'p1_vo'
I7
tp4594
a(S'w'
I4
tp4595
a(S'p1_tl'
I160
tp4596
a(S'w'
I22
tp4597
a(S'p2_du'
I1
tp4598
a(S'p2_vo'
I9
tp4599
a(S'w'
I4
tp4600
a(S'p2_tl'
I135
tp4601
a(S'w'
I15
tp4602
a(S'tr_ll'
I1
tp4603
a(S'tr_th'
I1
tp4604
a(S'w'
I1
tp4605
a(S'tr_ll'
I1
tp4606
a(S'w'
I1
tp4607
a(S'tr_tl'
I104
tp4608
a(S'w'
I8
tp4609
a(S'ch_no'
I1
tp4610
a(S'ch_tr'
I1
tp4611
a(S'ch_p2'
I1
tp4612
a(S'ch_p1'
I1
tp4613
a(S'w'
I1
tp4614
a(S'ch_no'
I1
tp4615
a(S'ch_tr'
I1
tp4616
a(S'ch_p2'
I1
tp4617
a(S'ch_p1'
I1
tp4618
a(S'w'
I667
tp4619
a(S'p1_vo'
I6
tp4620
a(S'w'
I8
tp4621
a(S'p2_vo'
I8
tp4622
a(S'w'
I726
tp4623
a(S'p1_vo'
I5
tp4624
a(S'w'
I8
tp4625
a(S'p2_vo'
I7
tp4626
a(S'w'
I726
tp4627
a(S'p1_vo'
I4
tp4628
a(S'w'
I8
tp4629
a(S'p2_du'
I2
tp4630
a(S'p2_vo'
I2
tp4631
a(S'w'
I726
tp4632
a(S'p1_vo'
I3
tp4633
a(S'w'
I21
tp4634
a(S'p2_du'
I1
tp4635
a(S'p2_vo'
I4
tp4636
a(S'w'
I4
tp4637
a(S'w'
I712
tp4638
a(S'p2_vo'
I3
tp4639
a(S'w'
I730
tp4640
a(S'p1_vo'
I2
tp4641
a(S'w'
I7
tp4642
a(S'p2_du'
I2
tp4643
a(S'p2_vo'
I1
tp4644
a(S'w'
I738
tp4645
a(S'p1_vo'
I7
tp4646
a(S'w'
I4
tp4647
a(S'p1_tl'
I143
tp4648
a(S'w'
I27
tp4649
a(S'p2_du'
I1
tp4650
a(S'p2_vo'
I9
tp4651
a(S'w'
I4
tp4652
a(S'p2_tl'
I120
tp4653
a(S'w'
I22
tp4654
a(S'tr_ll'
I1
tp4655
a(S'tr_th'
I2
tp4656
a(S'tr_ll'
I1
tp4657
a(S'w'
I1
tp4658
a(S'tr_tl'
I207
tp4659
a(S'w'
I9
tp4660
a(S'ch_no'
I1
tp4661
a(S'ch_tr'
I1
tp4662
a(S'ch_p2'
I1
tp4663
a(S'ch_p1'
I1
tp4664
a(S'w'
I1
tp4665
a(S'ch_no'
I1
tp4666
a(S'ch_tr'
I1
tp4667
a(S'ch_p2'
I1
tp4668
a(S'ch_p1'
I1
tp4669
a(S'w'
I655
tp4670
a(S'p1_vo'
I6
tp4671
a(S'w'
I8
tp4672
a(S'p2_vo'
I8
tp4673
a(S'w'
I725
tp4674
a(S'p1_vo'
I5
tp4675
a(S'w'
I8
tp4676
a(S'p2_vo'
I7
tp4677
a(S'w'
I726
tp4678
a(S'p1_vo'
I4
tp4679
a(S'w'
I8
tp4680
a(S'p2_du'
I2
tp4681
a(S'p2_vo'
I2
tp4682
a(S'w'
I727
tp4683
a(S'p1_vo'
I3
tp4684
a(S'w'
I21
tp4685
a(S'p2_du'
I1
tp4686
a(S'p2_vo'
I4
tp4687
a(S'w'
I4
tp4688
a(S'w'
I712
tp4689
a(S'p2_vo'
I3
tp4690
a(S'w'
I729
tp4691
a(S'p1_vo'
I2
tp4692
a(S'w'
I7
tp4693
a(S'p2_du'
I2
tp4694
a(S'p2_vo'
I1
tp4695
a(S'w'
I728
tp4696
a(S'p1_du'
I0
tp4697
a(S'p1_vo'
I0
tp4698
a(S'w'
I12
tp4699
a(S'p2_du'
I0
tp4700
a(S'p2_vo'
I0
tp4701
a(S'w'
I16
tp4702
a(S'tr_ll'
I1
tp4703
a(S'tr_th'
I1
tp4704
a(S'tr_ll'
I1
tp4705
a(S'w'
I2
tp4706
a(S'tr_tl'
I104
tp4707
a(S'w'
I5129
tp4708
a.