(lp1
(S'clock'
p2
I1789772
tp3
a(S'p1_du'
I2
tp4
a(S'p1_lh'
I1
tp5
a(S'p1_cv'
I1
tp6
a(S'p1_ll'
I0
tp7
a(S'p2_du'
I3
tp8
a(S'p2_lh'
I1
tp9
a(S'p2_cv'
I1
tp10
a(S'p2_ll'
I0
tp11
a(S'tr_lh'
I1
tp12
a(S'tr_ll'
I0
tp13
a(S'no_lh'
I1
tp14
a(S'no_cv'
I1
tp15
a(S'no_ll'
I0
tp16
a(S'w'
I378
tp17
a(S'p1_du'
I0
tp18
a(S'p1_ll'
I0
tp19
a(S'w'
I8
tp20
a(S'p2_du'
I0
tp21
a(S'p2_ll'
I0
tp22
a(S'w'
I192
tp23
a(S'tr_lr'
I127
tp24
a(S'w'
I1
tp25
a(S'tr_tl'
I45
tp26
a(S'tr_ll'
I0
tp27
a(S'tr_th'
I1
tp28
a(S'w'
I1
tp29
a(S'no_vo'
I15
tp30
a(S'w'
I1
tp31
a(S'no_np'
I13
tp32
a(S'no_ll'
I0
tp33
a(S'w'
I465
tp34
a(S'tr_tl'
I102
tp35
a(S'tr_ll'
I0
tp36
a(S'w'
I1
tp37
a(S'no_vo'
I6
tp38
a(S'w'
I749
tp39
a(S'tr_tl'
I146
tp40
a(S'tr_ll'
I0
tp41
a(S'w'
I733
tp42
a(S'tr_tl'
I170
tp43
a(S'tr_ll'
I0
tp44
a(S'w'
I2
tp45
a(S'no_vo'
I5
tp46
a(S'w'
I1431
tp47
a(S'tr_lr'
I0
tp48
a(S'tr_tl'
I0
tp49
a(S'tr_ll'
I0
tp50
a(S'tr_th'
I0
tp51
a(S'w'
I12
tp52
a(S'no_vo'
I4
tp53
a(S'w'
I1440
tp54
a(S'no_vo'
I3
tp55
a(S'w'
I1469
tp56
a(S'no_vo'
I2
tp57
a(S'w'
I1486
tp58
a(S'no_vo'
I6
tp59
a(S'w'
I1
tp60
a(S'no_np'
I4
tp61
a(S'no_ll'
I0
tp62
a(S'w'
I1447
tp63
a(S'no_vo'
I3
tp64
a(S'w'
I1467
tp65
a(S'no_vo'
I0
tp66
a(S'w'
I5876
tp67
a(S'no_vo'
I6
tp68
a(S'w'
I1
tp69
a(S'no_np'
I3
tp70
a(S'no_ll'
I0
tp71
a(S'w'
I1461
tp72
a(S'no_vo'
I3
tp73
a(S'w'
I1469
tp74
a(S'no_vo'
I0
tp75
a(S'w'
I5898
tp76
a(S'tr_lr'
I127
tp77
a(S'w'
I1
tp78
a(S'tr_tl'
I225
tp79
a(S'tr_ll'
I0
tp80
a(S'w'
I1
tp81
a(S'no_vo'
I15
tp82
a(S'w'
I1
tp83
a(S'no_np'
I13
tp84
a(S'no_ll'
I0
tp85
a(S'w'
I708
tp86
a(S'tr_tl'
I45
tp87
a(S'tr_ll'
I0
tp88
a(S'tr_th'
I1
tp89
a(S'w'
I733
tp90
a(S'tr_tl'
I102
tp91
a(S'tr_ll'
I0
tp92
a(S'w'
I2
tp93
a(S'no_vo'
I6
tp94
a(S'w'
I731
tp95
a(S'tr_tl'
I146
tp96
a(S'tr_ll'
I0
tp97
a(S'w'
I734
tp98
a(S'tr_tl'
I170
tp99
a(S'w'
I1
tp100
a(S'tr_ll'
I0
tp101
a(S'w'
I1
tp102
a(S'no_vo'
I5
tp103
a(S'w'
I1457
tp104
a(S'tr_lr'
I0
tp105
a(S'tr_tl'
I0
tp106
a(S'tr_ll'
I0
tp107
a(S'tr_th'
I0
tp108
a(S'w'
I12
tp109
a(S'no_vo'
I4
tp110
a(S'w'
I1459
tp111
a(S'no_vo'
I3
tp112
a(S'w'
I1470
tp113
a(S'no_vo'
I2
tp114
a(S'w'
I1455
tp115
a(S'p1_ll'
I0
tp116
a(S'w'
I7
tp117
a(S'p2_ll'
I0
tp118
a(S'w'
I27
tp119
a(S'tr_lr'
I127
tp120
a(S'w'
I1
tp121
a(S'tr_tl'
I225
tp122
a(S'tr_ll'
I0
tp123
a(S'w'
I1
tp124
a(S'no_vo'
I15
tp125
a(S'w'
I1
tp126
a(S'no_ll'
I0
tp127
a(S'w'
I712
tp128
a(S'tr_tl'
I45
tp129
a(S'tr_ll'
I0
tp130
a(S'tr_th'
I1
tp131
a(S'w'
I734
tp132
a(S'tr_tl'
I102
tp133
a(S'w'
I1
tp134
a(S'tr_ll'
I0
tp135
a(S'w'
I1
tp136
a(S'no_vo'
I6
tp137
a(S'w'
I731
tp138
a(S'tr_tl'
I146
tp139
a(S'w'
I1
tp140
a(S'tr_ll'
I0
tp141
a(S'w'
I734
tp142
a(S'tr_tl'
I170
tp143
a(S'tr_ll'
I0
tp144
a(S'w'
I1
tp145
a(S'no_vo'
I5
tp146
a(S'w'
I1457
tp147
a(S'tr_lr'
I0
tp148
a(S'tr_tl'
I0
tp149
a(S'w'
I1
tp150
a(S'tr_ll'
I0
tp151
a(S'tr_th'
I0
tp152
a(S'w'
I11
tp153
a(S'no_vo'
I4
tp154
a(S'w'
I1460
tp155
a(S'no_vo'
I3
tp156
a(S'w'
I1467
tp157
a(S'no_vo'
I2
tp158
a(S'w'
I1488
tp159
a(S'no_vo'
I6
tp160
a(S'w'
I1
tp161
a(S'no_np'
I4
tp162
a(S'no_ll'
I0
tp163
a(S'w'
I1447
tp164
a(S'no_vo'
I3
tp165
a(S'w'
I1467
tp166
a(S'no_vo'
I0
tp167
a(S'w'
I5899
tp168
a(S'tr_lr'
I127
tp169
a(S'w'
I1
tp170
a(S'tr_tl'
I253
tp171
a(S'tr_ll'
I0
tp172
a(S'w'
I2
tp173
a(S'no_vo'
I15
tp174
a(S'no_np'
I7
tp175
a(S'w'
I1
tp176
a(S'no_ll'
I0
tp177
a(S'w'
I1441
tp178
a(S'tr_tl'
I12
tp179
a(S'tr_ll'
I0
tp180
a(S'tr_th'
I1
tp181
a(S'w'
I1
tp182
a(S'no_vo'
I6
tp183
a(S'w'
I1464
tp184
a(S'tr_tl'
I28
tp185
a(S'w'
I1
tp186
a(S'tr_ll'
I0
tp187
a(S'w'
I1467
tp188
a(S'tr_tl'
I45
tp189
a(S'tr_ll'
I0
tp190
a(S'w'
I1460
tp191
a(S'tr_lr'
I0
tp192
a(S'tr_tl'
I0
tp193
a(S'tr_ll'
I0
tp194
a(S'tr_th'
I0
tp195
a(S'w'
I2205
tp196
a(S'no_vo'
I5
tp197
a(S'w'
I749
tp198
a(S'tr_lr'
I127
tp199
a(S'w'
I1
tp200
a(S'tr_tl'
I28
tp201
a(S'tr_ll'
I0
tp202
a(S'tr_th'
I1
tp203
a(S'w'
I1
tp204
a(S'no_vo'
I15
tp205
a(S'w'
I1
tp206
a(S'no_np'
I8
tp207
a(S'no_ll'
I0
tp208
a(S'w'
I1455
tp209
a(S'tr_tl'
I45
tp210
a(S'w'
I1
tp211
a(S'tr_ll'
I0
tp212
a(S'w'
I1
tp213
a(S'no_vo'
I6
tp214
a(S'w'
I1464
tp215
a(S'tr_tl'
I63
tp216
a(S'tr_ll'
I0
tp217
a(S'w'
I734
tp218
a(S'tr_tl'
I82
tp219
a(S'tr_ll'
I0
tp220
a(S'w'
I748
tp221
a(S'tr_tl'
I28
tp222
a(S'w'
I1
tp223
a(S'tr_ll'
I0
tp224
a(S'w'
I1
tp225
a(S'no_vo'
I15
tp226
a(S'no_np'
I9
tp227
a(S'w'
I1
tp228
a(S'no_ll'
I0
tp229
a(S'w'
I1452
tp230
a(S'tr_tl'
I45
tp231
a(S'tr_ll'
I0
tp232
a(S'w'
I1
tp233
a(S'no_vo'
I6
tp234
a(S'w'
I1465
tp235
a(S'tr_tl'
I63
tp236
a(S'tr_ll'
I0
tp237
a(S'w'
I734
tp238
a(S'tr_tl'
I82
tp239
a(S'tr_ll'
I0
tp240
a(S'w'
I818
tp241
a(S'p1_vo'
I15
tp242
a(S'w'
I1
tp243
a(S'p1_ss'
I7
tp244
a(S'p1_tl'
I169
tp245
a(S'p1_ll'
I0
tp246
a(S'w'
I2
tp247
a(S'p2_du'
I3
tp248
a(S'p2_vo'
I15
tp249
a(S'p2_ss'
I7
tp250
a(S'p2_tl'
I225
tp251
a(S'w'
I1
tp252
a(S'p2_ll'
I0
tp253
a(S'w'
I2
tp254
a(S'tr_tl'
I225
tp255
a(S'tr_ll'
I0
tp256
a(S'tr_th'
I0
tp257
a(S'w'
I1
tp258
a(S'no_vo'
I15
tp259
a(S'w'
I1
tp260
a(S'no_np'
I13
tp261
a(S'no_ll'
I0
tp262
a(S'w'
I647
tp263
a(S'tr_tl'
I45
tp264
a(S'tr_ll'
I0
tp265
a(S'tr_th'
I1
tp266
a(S'w'
I732
tp267
a(S'tr_tl'
I102
tp268
a(S'tr_ll'
I0
tp269
a(S'w'
I1
tp270
a(S'no_vo'
I6
tp271
a(S'w'
I732
tp272
a(S'tr_tl'
I146
tp273
a(S'tr_ll'
I0
tp274
a(S'w'
I734
tp275
a(S'tr_tl'
I170
tp276
a(S'tr_ll'
I0
tp277
a(S'w'
I1
tp278
a(S'no_vo'
I5
tp279
a(S'w'
I1456
tp280
a(S'tr_lr'
I0
tp281
a(S'tr_tl'
I0
tp282
a(S'tr_ll'
I0
tp283
a(S'tr_th'
I0
tp284
a(S'w'
I13
tp285
a(S'no_vo'
I4
tp286
a(S'w'
I1460
tp287
a(S'no_vo'
I3
tp288
a(S'w'
I1467
tp289
a(S'no_vo'
I2
tp290
a(S'w'
I1500
tp291
a(S'p1_ll'
I0
tp292
a(S'w'
I2
tp293
a(S'p2_ll'
I0
tp294
a(S'w'
I2
tp295
a(S'no_vo'
I6
tp296
a(S'w'
I1
tp297
a(S'no_np'
I4
tp298
a(S'no_ll'
I0
tp299
a(S'w'
I1431
tp300
a(S'no_vo'
I3
tp301
a(S'w'
I1467
tp302
a(S'no_vo'
I0
tp303
a(S'w'
I5888
tp304
a(S'p1_ll'
I0
tp305
a(S'w'
I2
tp306
a(S'p2_ll'
I0
tp307
a(S'w'
I2
tp308
a(S'no_vo'
I6
tp309
a(S'w'
I1
tp310
a(S'no_np'
I3
tp311
a(S'no_ll'
I0
tp312
a(S'w'
I1446
tp313
a(S'no_vo'
I3
tp314
a(S'w'
I1467
tp315
a(S'no_vo'
I0
tp316
a(S'w'
I5912
tp317
a(S'p1_ll'
I0
tp318
a(S'w'
I2
tp319
a(S'p2_ll'
I0
tp320
a(S'w'
I1
tp321
a(S'tr_lr'
I127
tp322
a(S'w'
I1
tp323
a(S'tr_tl'
I225
tp324
a(S'tr_ll'
I0
tp325
a(S'w'
I1
tp326
a(S'no_vo'
I15
tp327
a(S'w'
I1
tp328
a(S'no_np'
I13
tp329
a(S'w'
I1
tp330
a(S'no_ll'
I0
tp331
a(S'w'
I693
tp332
a(S'tr_tl'
I45
tp333
a(S'tr_ll'
I0
tp334
a(S'tr_th'
I1
tp335
a(S'w'
I732
tp336
a(S'tr_tl'
I102
tp337
a(S'tr_ll'
I0
tp338
a(S'w'
I1
tp339
a(S'no_vo'
I6
tp340
a(S'w'
I732
tp341
a(S'tr_tl'
I146
tp342
a(S'tr_ll'
I0
tp343
a(S'w'
I734
tp344
a(S'tr_tl'
I170
tp345
a(S'tr_ll'
I0
tp346
a(S'w'
I1
tp347
a(S'no_vo'
I5
tp348
a(S'w'
I1456
tp349
a(S'tr_lr'
I0
tp350
a(S'tr_tl'
I0
tp351
a(S'tr_ll'
I0
tp352
a(S'tr_th'
I0
tp353
a(S'w'
I13
tp354
a(S'no_vo'
I4
tp355
a(S'w'
I1459
tp356
a(S'no_vo'
I3
tp357
a(S'w'
I1468
tp358
a(S'no_vo'
I2
tp359
a(S'w'
I1495
tp360
a(S'p1_ll'
I0
tp361
a(S'w'
I2
tp362
a(S'p2_ll'
I0
tp363
a(S'w'
I2
tp364
a(S'tr_lr'
I127
tp365
a(S'tr_tl'
I225
tp366
a(S'w'
I1
tp367
a(S'tr_ll'
I0
tp368
a(S'w'
I1
tp369
a(S'no_vo'
I15
tp370
a(S'w'
I1
tp371
a(S'no_ll'
I0
tp372
a(S'w'
I707
tp373
a(S'tr_tl'
I45
tp374
a(S'tr_ll'
I0
tp375
a(S'tr_th'
I1
tp376
a(S'w'
I733
tp377
a(S'tr_tl'
I102
tp378
a(S'tr_ll'
I0
tp379
a(S'w'
I1
tp380
a(S'no_vo'
I6
tp381
a(S'w'
I732
tp382
a(S'tr_tl'
I146
tp383
a(S'tr_ll'
I0
tp384
a(S'w'
I733
tp385
a(S'tr_tl'
I170
tp386
a(S'w'
I1
tp387
a(S'tr_ll'
I0
tp388
a(S'w'
I1
tp389
a(S'no_vo'
I5
tp390
a(S'w'
I1455
tp391
a(S'tr_lr'
I0
tp392
a(S'w'
I1
tp393
a(S'tr_tl'
I0
tp394
a(S'tr_ll'
I0
tp395
a(S'tr_th'
I0
tp396
a(S'w'
I13
tp397
a(S'no_vo'
I4
tp398
a(S'w'
I1459
tp399
a(S'no_vo'
I3
tp400
a(S'w'
I1468
tp401
a(S'no_vo'
I2
tp402
a(S'w'
I1499
tp403
a(S'p1_tl'
I189
tp404
a(S'p1_ll'
I0
tp405
a(S'w'
I2
tp406
a(S'p2_tl'
I253
tp407
a(S'w'
I1
tp408
a(S'p2_ll'
I0
tp409
a(S'w'
I2
tp410
a(S'no_vo'
I6
tp411
a(S'no_np'
I4
tp412
a(S'w'
I1
tp413
a(S'no_ll'
I0
tp414
a(S'w'
I1431
tp415
a(S'no_vo'
I3
tp416
a(S'w'
I1467
tp417
a(S'no_vo'
I0
tp418
a(S'w'
I5912
tp419
a(S'p1_tl'
I225
tp420
a(S'p1_ll'
I0
tp421
a(S'w'
I2
tp422
a(S'p2_tl'
I45
tp423
a(S'p2_ll'
I0
tp424
a(S'p2_th'
I1
tp425
a(S'w'
I1
tp426
a(S'tr_lr'
I127
tp427
a(S'w'
I1
tp428
a(S'tr_tl'
I253
tp429
a(S'tr_ll'
I0
tp430
a(S'w'
I1
tp431
a(S'no_vo'
I15
tp432
a(S'w'
I1
tp433
a(S'no_np'
I7
tp434
a(S'no_ll'
I0
tp435
a(S'w'
I1426
tp436
a(S'tr_tl'
I12
tp437
a(S'tr_ll'
I0
tp438
a(S'tr_th'
I1
tp439
a(S'w'
I1
tp440
a(S'no_vo'
I6
tp441
a(S'w'
I1464
tp442
a(S'tr_tl'
I28
tp443
a(S'tr_ll'
I0
tp444
a(S'w'
I1467
tp445
a(S'tr_tl'
I45
tp446
a(S'w'
I1
tp447
a(S'tr_ll'
I0
tp448
a(S'w'
I1458
tp449
a(S'tr_lr'
I0
tp450
a(S'w'
I1
tp451
a(S'tr_tl'
I0
tp452
a(S'tr_ll'
I0
tp453
a(S'tr_th'
I0
tp454
a(S'w'
I2206
tp455
a(S'no_vo'
I5
tp456
a(S'w'
I761
tp457
a(S'p1_tl'
I253
tp458
a(S'p1_ll'
I0
tp459
a(S'w'
I2
tp460
a(S'p2_tl'
I82
tp461
a(S'w'
I1
tp462
a(S'p2_ll'
I0
tp463
a(S'w'
I1
tp464
a(S'tr_lr'
I127
tp465
a(S'w'
I1
tp466
a(S'tr_tl'
I28
tp467
a(S'tr_ll'
I0
tp468
a(S'tr_th'
I1
tp469
a(S'w'
I1
tp470
a(S'no_vo'
I15
tp471
a(S'w'
I1
tp472
a(S'no_np'
I8
tp473
a(S'no_ll'
I0
tp474
a(S'w'
I1439
tp475
a(S'tr_tl'
I45
tp476
a(S'w'
I1
tp477
a(S'tr_ll'
I0
tp478
a(S'w'
I1
tp479
a(S'no_vo'
I6
tp480
a(S'w'
I1464
tp481
a(S'tr_tl'
I63
tp482
a(S'tr_ll'
I0
tp483
a(S'w'
I734
tp484
a(S'tr_tl'
I82
tp485
a(S'tr_ll'
I0
tp486
a(S'w'
I748
tp487
a(S'tr_tl'
I28
tp488
a(S'tr_ll'
I0
tp489
a(S'w'
I1
tp490
a(S'no_vo'
I15
tp491
a(S'w'
I1
tp492
a(S'no_np'
I9
tp493
a(S'no_ll'
I0
tp494
a(S'w'
I1453
tp495
a(S'tr_tl'
I45
tp496
a(S'tr_ll'
I0
tp497
a(S'w'
I1
tp498
a(S'no_vo'
I6
tp499
a(S'w'
I1464
tp500
a(S'tr_tl'
I63
tp501
a(S'tr_ll'
I0
tp502
a(S'w'
I734
tp503
a(S'tr_tl'
I82
tp504
a(S'tr_ll'
I0
tp505
a(S'w'
I789
tp506
a(S'p1_tl'
I82
tp507
a(S'p1_ll'
I0
tp508
a(S'p1_th'
I1
tp509
a(S'w'
I2
tp510
a(S'p2_tl'
I251
tp511
a(S'p2_ll'
I0
tp512
a(S'w'
I2
tp513
a(S'tr_tl'
I225
tp514
a(S'w'
I1
tp515
a(S'tr_ll'
I0
tp516
a(S'tr_th'
I0
tp517
a(S'w'
I1
tp518
a(S'no_vo'
I15
tp519
a(S'no_np'
I13
tp520
a(S'w'
I1
tp521
a(S'no_ll'
I0
tp522
a(S'w'
I676
tp523
a(S'tr_tl'
I45
tp524
a(S'tr_ll'
I0
tp525
a(S'tr_th'
I1
tp526
a(S'w'
I732
tp527
a(S'tr_tl'
I102
tp528
a(S'tr_ll'
I0
tp529
a(S'w'
I1
tp530
a(S'no_vo'
I6
tp531
a(S'w'
I732
tp532
a(S'tr_tl'
I146
tp533
a(S'tr_ll'
I0
tp534
a(S'w'
I734
tp535
a(S'tr_tl'
I170
tp536
a(S'tr_ll'
I0
tp537
a(S'w'
I1
tp538
a(S'no_vo'
I5
tp539
a(S'w'
I1456
tp540
a(S'tr_lr'
I0
tp541
a(S'tr_tl'
I0
tp542
a(S'tr_ll'
I0
tp543
a(S'tr_th'
I0
tp544
a(S'w'
I13
tp545
a(S'no_vo'
I4
tp546
a(S'w'
I1460
tp547
a(S'no_vo'
I3
tp548
a(S'w'
I1467
tp549
a(S'no_vo'
I2
tp550
a(S'w'
I1500
tp551
a(S'p1_ll'
I0
tp552
a(S'w'
I2
tp553
a(S'p2_ll'
I0
tp554
a(S'w'
I2
tp555
a(S'no_vo'
I6
tp556
a(S'w'
I1
tp557
a(S'no_np'
I4
tp558
a(S'no_ll'
I0
tp559
a(S'w'
I1431
tp560
a(S'no_vo'
I3
tp561
a(S'w'
I1467
tp562
a(S'no_vo'
I0
tp563
a(S'w'
I5888
tp564
a(S'p1_tl'
I45
tp565
a(S'p1_ll'
I0
tp566
a(S'w'
I2
tp567
a(S'p2_tl'
I195
tp568
a(S'p2_ll'
I0
tp569
a(S'w'
I2
tp570
a(S'no_vo'
I6
tp571
a(S'w'
I1
tp572
a(S'no_np'
I3
tp573
a(S'no_ll'
I0
tp574
a(S'w'
I1446
tp575
a(S'no_vo'
I3
tp576
a(S'w'
I1467
tp577
a(S'no_vo'
I0
tp578
a(S'w'
I5912
tp579
a(S'p1_tl'
I253
tp580
a(S'p1_ll'
I0
tp581
a(S'p1_th'
I0
tp582
a(S'w'
I2
tp583
a(S'p2_tl'
I123
tp584
a(S'p2_ll'
I0
tp585
a(S'w'
I1
tp586
a(S'tr_lr'
I127
tp587
a(S'w'
I1
tp588
a(S'tr_tl'
I225
tp589
a(S'tr_ll'
I0
tp590
a(S'w'
I1
tp591
a(S'no_vo'
I15
tp592
a(S'w'
I1
tp593
a(S'no_np'
I13
tp594
a(S'w'
I1
tp595
a(S'no_ll'
I0
tp596
a(S'w'
I693
tp597
a(S'tr_tl'
I45
tp598
a(S'tr_ll'
I0
tp599
a(S'tr_th'
I1
tp600
a(S'w'
I732
tp601
a(S'tr_tl'
I102
tp602
a(S'tr_ll'
I0
tp603
a(S'w'
I1
tp604
a(S'no_vo'
I6
tp605
a(S'w'
I732
tp606
a(S'tr_tl'
I146
tp607
a(S'tr_ll'
I0
tp608
a(S'w'
I734
tp609
a(S'tr_tl'
I170
tp610
a(S'tr_ll'
I0
tp611
a(S'w'
I1
tp612
a(S'no_vo'
I5
tp613
a(S'w'
I1456
tp614
a(S'tr_lr'
I0
tp615
a(S'tr_tl'
I0
tp616
a(S'tr_ll'
I0
tp617
a(S'tr_th'
I0
tp618
a(S'w'
I13
tp619
a(S'no_vo'
I4
tp620
a(S'w'
I1459
tp621
a(S'no_vo'
I3
tp622
a(S'w'
I1468
tp623
a(S'no_vo'
I2
tp624
a(S'w'
I1482
tp625
a(S'tr_lr'
I127
tp626
a(S'w'
I1
tp627
a(S'tr_tl'
I225
tp628
a(S'tr_ll'
I0
tp629
a(S'w'
I1
tp630
a(S'no_vo'
I15
tp631
a(S'w'
I1
tp632
a(S'no_ll'
I0
tp633
a(S'w'
I721
tp634
a(S'tr_tl'
I45
tp635
a(S'w'
I1
tp636
a(S'tr_ll'
I0
tp637
a(S'tr_th'
I1
tp638
a(S'w'
I734
tp639
a(S'tr_tl'
I102
tp640
a(S'tr_ll'
I0
tp641
a(S'w'
I1
tp642
a(S'no_vo'
I6
tp643
a(S'w'
I732
tp644
a(S'tr_tl'
I146
tp645
a(S'tr_ll'
I0
tp646
a(S'w'
I734
tp647
a(S'tr_tl'
I170
tp648
a(S'tr_ll'
I0
tp649
a(S'w'
I1
tp650
a(S'no_vo'
I5
tp651
a(S'w'
I1458
tp652
a(S'tr_lr'
I0
tp653
a(S'tr_tl'
I0
tp654
a(S'tr_ll'
I0
tp655
a(S'tr_th'
I0
tp656
a(S'w'
I10
tp657
a(S'p1_vo'
I14
tp658
a(S'w'
I3
tp659
a(S'no_vo'
I4
tp660
a(S'w'
I1457
tp661
a(S'p2_vo'
I14
tp662
a(S'w'
I2
tp663
a(S'no_vo'
I3
tp664
a(S'w'
I1467
tp665
a(S'no_vo'
I2
tp666
a(S'w'
I1487
tp667
a(S'no_vo'
I6
tp668
a(S'w'
I1
tp669
a(S'no_np'
I4
tp670
a(S'no_ll'
I0
tp671
a(S'w'
I1447
tp672
a(S'no_vo'
I3
tp673
a(S'w'
I1467
tp674
a(S'no_vo'
I0
tp675
a(S'w'
I4399
tp676
a(S'p1_vo'
I13
tp677
a(S'w'
I1501
tp678
a(S'p2_vo'
I13
tp679
a(S'w'
I1
tp680
a(S'tr_lr'
I127
tp681
a(S'w'
I1
tp682
a(S'tr_tl'
I253
tp683
a(S'tr_ll'
I0
tp684
a(S'w'
I1
tp685
a(S'no_vo'
I15
tp686
a(S'w'
I1
tp687
a(S'no_np'
I7
tp688
a(S'w'
I1
tp689
a(S'no_ll'
I0
tp690
a(S'w'
I1439
tp691
a(S'tr_tl'
I12
tp692
a(S'tr_ll'
I0
tp693
a(S'tr_th'
I1
tp694
a(S'w'
I1
tp695
a(S'no_vo'
I6
tp696
a(S'w'
I1465
tp697
a(S'tr_tl'
I28
tp698
a(S'tr_ll'
I0
tp699
a(S'w'
I1467
tp700
a(S'tr_tl'
I45
tp701
a(S'w'
I1
tp702
a(S'tr_ll'
I0
tp703
a(S'w'
I1458
tp704
a(S'tr_lr'
I0
tp705
a(S'w'
I1
tp706
a(S'tr_tl'
I0
tp707
a(S'tr_ll'
I0
tp708
a(S'tr_th'
I0
tp709
a(S'w'
I2206
tp710
a(S'no_vo'
I5
tp711
a(S'w'
I748
tp712
a(S'tr_lr'
I127
tp713
a(S'w'
I1
tp714
a(S'tr_tl'
I28
tp715
a(S'tr_ll'
I0
tp716
a(S'tr_th'
I1
tp717
a(S'w'
I1
tp718
a(S'no_vo'
I15
tp719
a(S'w'
I1
tp720
a(S'no_np'
I8
tp721
a(S'w'
I1
tp722
a(S'no_ll'
I0
tp723
a(S'w'
I1453
tp724
a(S'p1_vo'
I12
tp725
a(S'w'
I3
tp726
a(S'tr_tl'
I45
tp727
a(S'tr_ll'
I0
tp728
a(S'w'
I1
tp729
a(S'no_vo'
I6
tp730
a(S'w'
I1463
tp731
a(S'p2_vo'
I12
tp732
a(S'w'
I2
tp733
a(S'tr_tl'
I63
tp734
a(S'tr_ll'
I0
tp735
a(S'w'
I732
tp736
a(S'tr_tl'
I82
tp737
a(S'tr_ll'
I0
tp738
a(S'w'
I749
tp739
a(S'tr_tl'
I28
tp740
a(S'tr_ll'
I0
tp741
a(S'w'
I1
tp742
a(S'no_vo'
I15
tp743
a(S'w'
I1
tp744
a(S'no_np'
I9
tp745
a(S'no_ll'
I0
tp746
a(S'w'
I1452
tp747
a(S'tr_tl'
I45
tp748
a(S'w'
I1
tp749
a(S'tr_ll'
I0
tp750
a(S'w'
I1
tp751
a(S'no_vo'
I6
tp752
a(S'w'
I1464
tp753
a(S'tr_tl'
I63
tp754
a(S'tr_ll'
I0
tp755
a(S'w'
I734
tp756
a(S'tr_tl'
I82
tp757
a(S'tr_ll'
I0
tp758
a(S'w'
I777
tp759
a(S'tr_tl'
I225
tp760
a(S'tr_ll'
I0
tp761
a(S'tr_th'
I0
tp762
a(S'w'
I1
tp763
a(S'no_vo'
I15
tp764
a(S'w'
I1
tp765
a(S'no_np'
I13
tp766
a(S'no_ll'
I0
tp767
a(S'w'
I690
tp768
a(S'tr_tl'
I45
tp769
a(S'tr_ll'
I0
tp770
a(S'tr_th'
I1
tp771
a(S'w'
I734
tp772
a(S'tr_tl'
I102
tp773
a(S'w'
I1
tp774
a(S'tr_ll'
I0
tp775
a(S'w'
I1
tp776
a(S'no_vo'
I6
tp777
a(S'w'
I731
tp778
a(S'tr_tl'
I146
tp779
a(S'tr_ll'
I0
tp780
a(S'w'
I735
tp781
a(S'tr_tl'
I170
tp782
a(S'tr_ll'
I0
tp783
a(S'w'
I1
tp784
a(S'no_vo'
I5
tp785
a(S'w'
I1457
tp786
a(S'tr_lr'
I0
tp787
a(S'w'
I1
tp788
a(S'tr_tl'
I0
tp789
a(S'tr_ll'
I0
tp790
a(S'tr_th'
I0
tp791
a(S'w'
I9
tp792
a(S'p1_vo'
I11
tp793
a(S'w'
I4
tp794
a(S'no_vo'
I4
tp795
a(S'w'
I1457
tp796
a(S'p2_vo'
I11
tp797
a(S'w'
I2
tp798
a(S'no_vo'
I3
tp799
a(S'w'
I1466
tp800
a(S'no_vo'
I2
tp801
a(S'w'
I1488
tp802
a(S'no_vo'
I6
tp803
a(S'no_np'
I4
tp804
a(S'w'
I1
tp805
a(S'no_ll'
I0
tp806
a(S'w'
I1447
tp807
a(S'no_vo'
I3
tp808
a(S'w'
I1467
tp809
a(S'no_vo'
I0
tp810
a(S'w'
I4399
tp811
a(S'p1_vo'
I10
tp812
a(S'w'
I1476
tp813
a(S'p2_vo'
I10
tp814
a(S'w'
I2
tp815
a(S'no_vo'
I6
tp816
a(S'w'
I1
tp817
a(S'no_np'
I3
tp818
a(S'no_ll'
I0
tp819
a(S'w'
I1460
tp820
a(S'no_vo'
I3
tp821
a(S'w'
I1468
tp822
a(S'no_vo'
I0
tp823
a(S'w'
I5899
tp824
a(S'tr_lr'
I127
tp825
a(S'w'
I1
tp826
a(S'tr_tl'
I225
tp827
a(S'tr_ll'
I0
tp828
a(S'w'
I1
tp829
a(S'no_vo'
I15
tp830
a(S'w'
I1
tp831
a(S'no_np'
I13
tp832
a(S'no_ll'
I0
tp833
a(S'w'
I707
tp834
a(S'tr_tl'
I45
tp835
a(S'tr_ll'
I0
tp836
a(S'tr_th'
I1
tp837
a(S'w'
I732
tp838
a(S'p1_vo'
I9
tp839
a(S'w'
I4
tp840
a(S'tr_tl'
I102
tp841
a(S'tr_ll'
I0
tp842
a(S'w'
I1
tp843
a(S'no_vo'
I6
tp844
a(S'w'
I730
tp845
a(S'tr_tl'
I146
tp846
a(S'tr_ll'
I0
tp847
a(S'w'
I734
tp848
a(S'p2_vo'
I9
tp849
a(S'w'
I2
tp850
a(S'tr_tl'
I170
tp851
a(S'tr_ll'
I0
tp852
a(S'w'
I1
tp853
a(S'no_vo'
I5
tp854
a(S'w'
I1455
tp855
a(S'tr_lr'
I0
tp856
a(S'tr_tl'
I0
tp857
a(S'tr_ll'
I0
tp858
a(S'tr_th'
I0
tp859
a(S'w'
I13
tp860
a(S'no_vo'
I4
tp861
a(S'w'
I1459
tp862
a(S'no_vo'
I3
tp863
a(S'w'
I1468
tp864
a(S'no_vo'
I2
tp865
a(S'w'
I1456
tp866
a(S'p1_vo'
I0
tp867
a(S'w'
I1
tp868
a(S'p1_ss'
I0
tp869
a(S'p1_tl'
I0
tp870
a(S'p1_ll'
I0
tp871
a(S'w'
I5
tp872
a(S'p2_vo'
I0
tp873
a(S'w'
I1
tp874
a(S'p2_ss'
I0
tp875
a(S'p2_tl'
I0
tp876
a(S'p2_ll'
I0
tp877
a(S'p2_th'
I0
tp878
a(S'w'
I26
tp879
a(S'tr_lr'
I127
tp880
a(S'w'
I1
tp881
a(S'tr_tl'
I225
tp882
a(S'tr_ll'
I0
tp883
a(S'w'
I1
tp884
a(S'no_vo'
I15
tp885
a(S'w'
I1
tp886
a(S'no_ll'
I0
tp887
a(S'w'
I710
tp888
a(S'tr_tl'
I45
tp889
a(S'tr_ll'
I0
tp890
a(S'tr_th'
I1
tp891
a(S'w'
I734
tp892
a(S'tr_tl'
I102
tp893
a(S'w'
I1
tp894
a(S'tr_ll'
I0
tp895
a(S'w'
I1
tp896
a(S'no_vo'
I6
tp897
a(S'w'
I731
tp898
a(S'tr_tl'
I146
tp899
a(S'w'
I1
tp900
a(S'tr_ll'
I0
tp901
a(S'w'
I734
tp902
a(S'tr_tl'
I170
tp903
a(S'tr_ll'
I0
tp904
a(S'w'
I1
tp905
a(S'no_vo'
I5
tp906
a(S'w'
I1457
tp907
a(S'tr_lr'
I0
tp908
a(S'w'
I1
tp909
a(S'tr_tl'
I0
tp910
a(S'tr_ll'
I0
tp911
a(S'tr_th'
I0
tp912
a(S'w'
I11
tp913
a(S'no_vo'
I4
tp914
a(S'w'
I1460
tp915
a(S'no_vo'
I3
tp916
a(S'w'
I1467
tp917
a(S'no_vo'
I2
tp918
a(S'w'
I1488
tp919
a(S'no_vo'
I6
tp920
a(S'w'
I1
tp921
a(S'no_np'
I4
tp922
a(S'no_ll'
I0
tp923
a(S'w'
I1447
tp924
a(S'no_vo'
I3
tp925
a(S'w'
I1467
tp926
a(S'no_vo'
I0
tp927
a(S'w'
I5899
tp928
a(S'tr_lr'
I127
tp929
a(S'w'
I1
tp930
a(S'tr_tl'
I253
tp931
a(S'tr_ll'
I0
tp932
a(S'w'
I2
tp933
a(S'no_vo'
I15
tp934
a(S'no_np'
I7
tp935
a(S'w'
I1
tp936
a(S'no_ll'
I0
tp937
a(S'w'
I1441
tp938
a(S'tr_tl'
I12
tp939
a(S'tr_ll'
I0
tp940
a(S'tr_th'
I1
tp941
a(S'w'
I1
tp942
a(S'no_vo'
I6
tp943
a(S'w'
I1464
tp944
a(S'tr_tl'
I28
tp945
a(S'w'
I1
tp946
a(S'tr_ll'
I0
tp947
a(S'w'
I1467
tp948
a(S'tr_tl'
I45
tp949
a(S'tr_ll'
I0
tp950
a(S'w'
I1460
tp951
a(S'tr_lr'
I0
tp952
a(S'tr_tl'
I0
tp953
a(S'w'
I1
tp954
a(S'tr_ll'
I0
tp955
a(S'tr_th'
I0
tp956
a(S'w'
I2204
tp957
a(S'no_vo'
I5
tp958
a(S'w'
I749
tp959
a(S'tr_lr'
I127
tp960
a(S'w'
I1
tp961
a(S'tr_tl'
I28
tp962
a(S'tr_ll'
I0
tp963
a(S'tr_th'
I1
tp964
a(S'w'
I1
tp965
a(S'no_vo'
I15
tp966
a(S'w'
I1
tp967
a(S'no_np'
I8
tp968
a(S'no_ll'
I0
tp969
a(S'w'
I1455
tp970
a(S'tr_tl'
I45
tp971
a(S'tr_ll'
I0
tp972
a(S'w'
I2
tp973
a(S'no_vo'
I6
tp974
a(S'w'
I1464
tp975
a(S'tr_tl'
I63
tp976
a(S'tr_ll'
I0
tp977
a(S'w'
I734
tp978
a(S'tr_tl'
I82
tp979
a(S'tr_ll'
I0
tp980
a(S'w'
I748
tp981
a(S'tr_tl'
I28
tp982
a(S'w'
I1
tp983
a(S'tr_ll'
I0
tp984
a(S'w'
I1
tp985
a(S'no_vo'
I15
tp986
a(S'no_np'
I9
tp987
a(S'w'
I1
tp988
a(S'no_ll'
I0
tp989
a(S'w'
I1452
tp990
a(S'tr_tl'
I45
tp991
a(S'tr_ll'
I0
tp992
a(S'w'
I1
tp993
a(S'no_vo'
I6
tp994
a(S'w'
I1465
tp995
a(S'tr_tl'
I63
tp996
a(S'tr_ll'
I0
tp997
a(S'w'
I734
tp998
a(S'tr_tl'
I82
tp999
a(S'tr_ll'
I0
tp1000
a(S'w'
I777
tp1001
a(S'tr_tl'
I225
tp1002
a(S'tr_ll'
I0
tp1003
a(S'tr_th'
I0
tp1004
a(S'w'
I1
tp1005
a(S'no_vo'
I15
tp1006
a(S'w'
I1
tp1007
a(S'no_np'
I13
tp1008
a(S'no_ll'
I0
tp1009
a(S'w'
I689
tp1010
a(S'tr_tl'
I45
tp1011
a(S'tr_ll'
I0
tp1012
a(S'tr_th'
I1
tp1013
a(S'w'
I735
tp1014
a(S'tr_tl'
I102
tp1015
a(S'tr_ll'
I0
tp1016
a(S'w'
I1
tp1017
a(S'no_vo'
I6
tp1018
a(S'w'
I732
tp1019
a(S'tr_tl'
I146
tp1020
a(S'tr_ll'
I0
tp1021
a(S'w'
I734
tp1022
a(S'tr_tl'
I170
tp1023
a(S'tr_ll'
I0
tp1024
a(S'w'
I1
tp1025
a(S'no_vo'
I5
tp1026
a(S'w'
I1458
tp1027
a(S'tr_lr'
I0
tp1028
a(S'tr_tl'
I0
tp1029
a(S'tr_ll'
I0
tp1030
a(S'tr_th'
I0
tp1031
a(S'w'
I12
tp1032
a(S'no_vo'
I4
tp1033
a(S'w'
I1459
tp1034
a(S'no_vo'
I3
tp1035
a(S'w'
I1468
tp1036
a(S'no_vo'
I2
tp1037
a(S'w'
I1487
tp1038
a(S'no_vo'
I6
tp1039
a(S'w'
I1
tp1040
a(S'no_np'
I4
tp1041
a(S'no_ll'
I0
tp1042
a(S'w'
I1447
tp1043
a(S'no_vo'
I3
tp1044
a(S'w'
I1467
tp1045
a(S'no_vo'
I0
tp1046
a(S'w'
I5876
tp1047
a(S'no_vo'
I6
tp1048
a(S'w'
I1
tp1049
a(S'no_np'
I3
tp1050
a(S'w'
I1
tp1051
a(S'no_ll'
I0
tp1052
a(S'w'
I1461
tp1053
a(S'no_vo'
I3
tp1054
a(S'w'
I1467
tp1055
a(S'no_vo'
I0
tp1056
a(S'w'
I5899
tp1057
a(S'tr_lr'
I127
tp1058
a(S'w'
I1
tp1059
a(S'tr_tl'
I225
tp1060
a(S'w'
I1
tp1061
a(S'tr_ll'
I0
tp1062
a(S'w'
I1
tp1063
a(S'no_vo'
I15
tp1064
a(S'w'
I1
tp1065
a(S'no_np'
I13
tp1066
a(S'no_ll'
I0
tp1067
a(S'w'
I706
tp1068
a(S'tr_tl'
I45
tp1069
a(S'tr_ll'
I0
tp1070
a(S'tr_th'
I1
tp1071
a(S'w'
I735
tp1072
a(S'tr_tl'
I102
tp1073
a(S'tr_ll'
I0
tp1074
a(S'w'
I1
tp1075
a(S'no_vo'
I6
tp1076
a(S'w'
I732
tp1077
a(S'tr_tl'
I146
tp1078
a(S'tr_ll'
I0
tp1079
a(S'w'
I734
tp1080
a(S'tr_tl'
I170
tp1081
a(S'tr_ll'
I0
tp1082
a(S'w'
I1
tp1083
a(S'no_vo'
I5
tp1084
a(S'w'
I1458
tp1085
a(S'tr_lr'
I0
tp1086
a(S'tr_tl'
I0
tp1087
a(S'tr_ll'
I0
tp1088
a(S'tr_th'
I0
tp1089
a(S'w'
I11
tp1090
a(S'no_vo'
I4
tp1091
a(S'w'
I1460
tp1092
a(S'no_vo'
I3
tp1093
a(S'w'
I1467
tp1094
a(S'no_vo'
I2
tp1095
a(S'w'
I1483
tp1096
a(S'tr_lr'
I127
tp1097
a(S'w'
I1
tp1098
a(S'tr_tl'
I225
tp1099
a(S'tr_ll'
I0
tp1100
a(S'w'
I1
tp1101
a(S'no_vo'
I15
tp1102
a(S'w'
I1
tp1103
a(S'no_ll'
I0
tp1104
a(S'w'
I721
tp1105
a(S'tr_tl'
I45
tp1106
a(S'tr_ll'
I0
tp1107
a(S'tr_th'
I1
tp1108
a(S'w'
I734
tp1109
a(S'tr_tl'
I102
tp1110
a(S'w'
I1
tp1111
a(S'tr_ll'
I0
tp1112
a(S'w'
I1
tp1113
a(S'no_vo'
I6
tp1114
a(S'w'
I731
tp1115
a(S'tr_tl'
I146
tp1116
a(S'w'
I1
tp1117
a(S'tr_ll'
I0
tp1118
a(S'w'
I734
tp1119
a(S'tr_tl'
I170
tp1120
a(S'tr_ll'
I0
tp1121
a(S'w'
I1
tp1122
a(S'no_vo'
I5
tp1123
a(S'w'
I1457
tp1124
a(S'tr_lr'
I0
tp1125
a(S'w'
I1
tp1126
a(S'tr_tl'
I0
tp1127
a(S'tr_ll'
I0
tp1128
a(S'tr_th'
I0
tp1129
a(S'w'
I11
tp1130
a(S'no_vo'
I4
tp1131
a(S'w'
I1460
tp1132
a(S'no_vo'
I3
tp1133
a(S'w'
I1467
tp1134
a(S'no_vo'
I2
tp1135
a(S'w'
I1488
tp1136
a(S'no_vo'
I6
tp1137
a(S'no_np'
I4
tp1138
a(S'w'
I1
tp1139
a(S'no_ll'
I0
tp1140
a(S'w'
I1447
tp1141
a(S'no_vo'
I3
tp1142
a(S'w'
I1467
tp1143
a(S'no_vo'
I0
tp1144
a(S'w'
I5898
tp1145
a.