(lp1
(S'clock'
p2
I1789772
tp3
a(S'p1_du'
I2
tp4
a(S'p1_lh'
I1
tp5
a(S'p1_cv'
I1
tp6
a(S'p1_ll'
I0
tp7
a(S'p2_du'
I3
tp8
a(S'p2_lh'
I1
tp9
a(S'p2_cv'
I1
tp10
a(S'p2_ll'
I0
tp11
a(S'tr_lh'
I1
tp12
a(S'tr_ll'
I0
tp13
a(S'no_lh'
I1
tp14
a(S'no_cv'
I1
tp15
a(S'no_ll'
I0
tp16
a(S'w'
I206
tp17
a(S'p2_ll'
I0
tp18
a(S'w'
I198
tp19
a(S'p1_du'
I0
tp20
a(S'p1_vo'
I15
tp21
a(S'w'
I1
tp22
a(S'p1_ss'
I7
tp23
a(S'p1_tl'
I173
tp24
a(S'p1_ll'
I0
tp25
a(S'p1_th'
I6
tp26
a(S'w'
I2
tp27
a(S'tr_lr'
I127
tp28
a(S'w'
I1
tp29
a(S'tr_tl'
I28
tp30
a(S'tr_ll'
I0
tp31
a(S'tr_th'
I1
tp32
a(S'w'
I1
tp33
a(S'no_vo'
I4
tp34
a(S'w'
I1
tp35
a(S'no_np'
I4
tp36
a(S'no_ll'
I0
tp37
a(S'w'
I435
tp38
a(S'p1_vo'
I6
tp39
a(S'w'
I3
tp40
a(S'tr_tl'
I170
tp41
a(S'tr_ll'
I0
tp42
a(S'w'
I1
tp43
a(S'no_vo'
I2
tp44
a(S'w'
I753
tp45
a(S'p2_vo'
I15
tp46
a(S'w'
I1
tp47
a(S'p2_ss'
I7
tp48
a(S'p2_tl'
I86
tp49
a(S'p2_ll'
I0
tp50
a(S'p2_th'
I3
tp51
a(S'w'
I2
tp52
a(S'tr_tl'
I195
tp53
a(S'tr_ll'
I0
tp54
a(S'w'
I713
tp55
a(S'tr_lr'
I0
tp56
a(S'tr_tl'
I0
tp57
a(S'tr_ll'
I0
tp58
a(S'tr_th'
I0
tp59
a(S'w'
I13
tp60
a(S'no_vo'
I0
tp61
a(S'w'
I725
tp62
a(S'p2_vo'
I3
tp63
a(S'w'
I4358
tp64
a(S'p1_vo'
I5
tp65
a(S'w'
I743
tp66
a(S'no_vo'
I4
tp67
a(S'w'
I1
tp68
a(S'no_ll'
I0
tp69
a(S'w'
I1460
tp70
a(S'p2_vo'
I2
tp71
a(S'w'
I3
tp72
a(S'no_vo'
I2
tp73
a(S'w'
I1465
tp74
a(S'no_vo'
I0
tp75
a(S'w'
I2932
tp76
a(S'p1_vo'
I4
tp77
a(S'w'
I2203
tp78
a(S'p2_vo'
I1
tp79
a(S'w'
I770
tp80
a(S'p1_vo'
I15
tp81
a(S'p1_tl'
I189
tp82
a(S'w'
I1
tp83
a(S'p1_ll'
I0
tp84
a(S'p1_th'
I3
tp85
a(S'w'
I2
tp86
a(S'tr_lr'
I127
tp87
a(S'w'
I1
tp88
a(S'tr_tl'
I253
tp89
a(S'tr_ll'
I0
tp90
a(S'w'
I1
tp91
a(S'no_vo'
I15
tp92
a(S'w'
I1
tp93
a(S'no_np'
I9
tp94
a(S'no_ll'
I0
tp95
a(S'w'
I700
tp96
a(S'tr_tl'
I12
tp97
a(S'tr_ll'
I0
tp98
a(S'tr_th'
I1
tp99
a(S'w'
I726
tp100
a(S'p1_vo'
I6
tp101
a(S'w'
I4
tp102
a(S'no_vo'
I9
tp103
a(S'w'
I735
tp104
a(S'tr_lr'
I0
tp105
a(S'tr_tl'
I0
tp106
a(S'tr_ll'
I0
tp107
a(S'tr_th'
I0
tp108
a(S'w'
I10
tp109
a(S'p2_vo'
I15
tp110
a(S'w'
I1
tp111
a(S'p2_tl'
I222
tp112
a(S'p2_ll'
I0
tp113
a(S'p2_th'
I1
tp114
a(S'w'
I721
tp115
a(S'no_vo'
I6
tp116
a(S'w'
I731
tp117
a(S'p2_vo'
I3
tp118
a(S'w'
I2202
tp119
a(S'no_vo'
I5
tp120
a(S'w'
I2198
tp121
a(S'p1_vo'
I5
tp122
a(S'w'
I761
tp123
a(S'p1_vo'
I15
tp124
a(S'w'
I1
tp125
a(S'p1_tl'
I115
tp126
a(S'w'
I1
tp127
a(S'p1_ll'
I0
tp128
a(S'p1_th'
I4
tp129
a(S'w'
I3
tp130
a(S'no_vo'
I4
tp131
a(S'w'
I1
tp132
a(S'no_np'
I4
tp133
a(S'no_ll'
I0
tp134
a(S'w'
I1438
tp135
a(S'p1_vo'
I6
tp136
a(S'w'
I2
tp137
a(S'p2_vo'
I2
tp138
a(S'w'
I2
tp139
a(S'no_vo'
I2
tp140
a(S'w'
I736
tp141
a(S'p2_vo'
I15
tp142
a(S'p2_tl'
I58
tp143
a(S'w'
I1
tp144
a(S'p2_ll'
I0
tp145
a(S'p2_th'
I2
tp146
a(S'w'
I728
tp147
a(S'no_vo'
I0
tp148
a(S'w'
I730
tp149
a(S'p2_vo'
I3
tp150
a(S'w'
I4401
tp151
a(S'p1_vo'
I5
tp152
a(S'w'
I782
tp153
a(S'p1_vo'
I15
tp154
a(S'p1_tl'
I189
tp155
a(S'w'
I1
tp156
a(S'p1_ll'
I0
tp157
a(S'p1_th'
I3
tp158
a(S'w'
I2
tp159
a(S'tr_lr'
I127
tp160
a(S'w'
I1
tp161
a(S'tr_tl'
I212
tp162
a(S'tr_ll'
I0
tp163
a(S'w'
I1
tp164
a(S'no_vo'
I4
tp165
a(S'w'
I1
tp166
a(S'no_ll'
I0
tp167
a(S'w'
I690
tp168
a(S'tr_tl'
I28
tp169
a(S'tr_ll'
I0
tp170
a(S'tr_th'
I1
tp171
a(S'w'
I733
tp172
a(S'p1_vo'
I6
tp173
a(S'w'
I1
tp174
a(S'p2_vo'
I2
tp175
a(S'w'
I3
tp176
a(S'tr_tl'
I170
tp177
a(S'tr_ll'
I0
tp178
a(S'w'
I1
tp179
a(S'no_vo'
I2
tp180
a(S'w'
I734
tp181
a(S'p2_vo'
I15
tp182
a(S'w'
I1
tp183
a(S'p2_tl'
I222
tp184
a(S'p2_ll'
I0
tp185
a(S'p2_th'
I1
tp186
a(S'w'
I2
tp187
a(S'tr_tl'
I195
tp188
a(S'w'
I1
tp189
a(S'tr_ll'
I0
tp190
a(S'w'
I713
tp191
a(S'tr_lr'
I0
tp192
a(S'tr_tl'
I0
tp193
a(S'tr_ll'
I0
tp194
a(S'tr_th'
I0
tp195
a(S'w'
I13
tp196
a(S'no_vo'
I0
tp197
a(S'w'
I725
tp198
a(S'p2_vo'
I3
tp199
a(S'w'
I4401
tp200
a(S'p1_vo'
I5
tp201
a(S'w'
I747
tp202
a(S'p1_vo'
I15
tp203
a(S'w'
I1
tp204
a(S'p1_tl'
I86
tp205
a(S'p1_ll'
I0
tp206
a(S'w'
I3
tp207
a(S'no_vo'
I4
tp208
a(S'w'
I1
tp209
a(S'no_ll'
I0
tp210
a(S'w'
I1453
tp211
a(S'p1_vo'
I6
tp212
a(S'w'
I2
tp213
a(S'p2_vo'
I2
tp214
a(S'w'
I2
tp215
a(S'no_vo'
I2
tp216
a(S'w'
I736
tp217
a(S'p2_vo'
I15
tp218
a(S'w'
I1
tp219
a(S'p2_tl'
I170
tp220
a(S'p2_ll'
I0
tp221
a(S'w'
I728
tp222
a(S'no_vo'
I0
tp223
a(S'w'
I731
tp224
a(S'p2_vo'
I3
tp225
a(S'w'
I4401
tp226
a(S'p1_vo'
I5
tp227
a(S'w'
I766
tp228
a(S'tr_lr'
I127
tp229
a(S'w'
I1
tp230
a(S'tr_tl'
I253
tp231
a(S'w'
I1
tp232
a(S'tr_ll'
I0
tp233
a(S'w'
I1
tp234
a(S'no_vo'
I15
tp235
a(S'no_np'
I9
tp236
a(S'w'
I1
tp237
a(S'no_ll'
I0
tp238
a(S'w'
I706
tp239
a(S'tr_tl'
I12
tp240
a(S'tr_ll'
I0
tp241
a(S'tr_th'
I1
tp242
a(S'w'
I729
tp243
a(S'p2_vo'
I2
tp244
a(S'w'
I2
tp245
a(S'no_vo'
I9
tp246
a(S'w'
I727
tp247
a(S'tr_lr'
I0
tp248
a(S'tr_tl'
I0
tp249
a(S'tr_ll'
I0
tp250
a(S'tr_th'
I0
tp251
a(S'w'
I739
tp252
a(S'no_vo'
I6
tp253
a(S'w'
I2933
tp254
a(S'p1_vo'
I4
tp255
a(S'w'
I3
tp256
a(S'no_vo'
I5
tp257
a(S'w'
I2198
tp258
a(S'p2_vo'
I1
tp259
a(S'w'
I760
tp260
a(S'p1_vo'
I15
tp261
a(S'w'
I1
tp262
a(S'p1_tl'
I115
tp263
a(S'p1_ll'
I0
tp264
a(S'p1_th'
I4
tp265
a(S'w'
I3
tp266
a(S'no_vo'
I4
tp267
a(S'w'
I1
tp268
a(S'no_np'
I4
tp269
a(S'no_ll'
I0
tp270
a(S'w'
I1437
tp271
a(S'p1_vo'
I6
tp272
a(S'w'
I4
tp273
a(S'no_vo'
I2
tp274
a(S'w'
I737
tp275
a(S'p2_vo'
I15
tp276
a(S'w'
I1
tp277
a(S'p2_tl'
I58
tp278
a(S'p2_ll'
I0
tp279
a(S'p2_th'
I2
tp280
a(S'w'
I728
tp281
a(S'no_vo'
I0
tp282
a(S'w'
I731
tp283
a(S'p2_vo'
I3
tp284
a(S'w'
I4401
tp285
a(S'p1_vo'
I5
tp286
a(S'w'
I781
tp287
a(S'p1_vo'
I15
tp288
a(S'w'
I1
tp289
a(S'p1_tl'
I248
tp290
a(S'p1_ll'
I0
tp291
a(S'p1_th'
I2
tp292
a(S'w'
I2
tp293
a(S'tr_lr'
I127
tp294
a(S'w'
I1
tp295
a(S'tr_tl'
I212
tp296
a(S'w'
I1
tp297
a(S'tr_ll'
I0
tp298
a(S'w'
I1
tp299
a(S'no_vo'
I4
tp300
a(S'w'
I1
tp301
a(S'no_ll'
I0
tp302
a(S'w'
I689
tp303
a(S'tr_tl'
I28
tp304
a(S'w'
I1
tp305
a(S'tr_ll'
I0
tp306
a(S'tr_th'
I1
tp307
a(S'w'
I733
tp308
a(S'p1_vo'
I6
tp309
a(S'w'
I1
tp310
a(S'p2_vo'
I2
tp311
a(S'w'
I2
tp312
a(S'tr_tl'
I170
tp313
a(S'tr_ll'
I0
tp314
a(S'w'
I1
tp315
a(S'no_vo'
I2
tp316
a(S'w'
I735
tp317
a(S'p2_vo'
I15
tp318
a(S'w'
I1
tp319
a(S'p2_tl'
I123
tp320
a(S'p2_ll'
I0
tp321
a(S'p2_th'
I1
tp322
a(S'w'
I2
tp323
a(S'tr_tl'
I195
tp324
a(S'tr_ll'
I0
tp325
a(S'w'
I713
tp326
a(S'tr_lr'
I0
tp327
a(S'tr_tl'
I0
tp328
a(S'w'
I1
tp329
a(S'tr_ll'
I0
tp330
a(S'tr_th'
I0
tp331
a(S'w'
I12
tp332
a(S'no_vo'
I0
tp333
a(S'w'
I726
tp334
a(S'p2_vo'
I3
tp335
a(S'w'
I4401
tp336
a(S'p1_vo'
I5
tp337
a(S'w'
I743
tp338
a(S'no_vo'
I4
tp339
a(S'w'
I1
tp340
a(S'no_ll'
I0
tp341
a(S'w'
I1460
tp342
a(S'p2_vo'
I2
tp343
a(S'w'
I3
tp344
a(S'no_vo'
I2
tp345
a(S'w'
I1465
tp346
a(S'no_vo'
I0
tp347
a(S'w'
I2932
tp348
a(S'p1_vo'
I4
tp349
a(S'w'
I2203
tp350
a(S'p2_vo'
I1
tp351
a(S'w'
I770
tp352
a(S'p1_vo'
I15
tp353
a(S'p1_tl'
I86
tp354
a(S'w'
I1
tp355
a(S'p1_ll'
I0
tp356
a(S'p1_th'
I3
tp357
a(S'w'
I2
tp358
a(S'tr_lr'
I127
tp359
a(S'w'
I1
tp360
a(S'tr_tl'
I253
tp361
a(S'tr_ll'
I0
tp362
a(S'w'
I1
tp363
a(S'no_vo'
I15
tp364
a(S'w'
I1
tp365
a(S'no_np'
I9
tp366
a(S'no_ll'
I0
tp367
a(S'w'
I700
tp368
a(S'tr_tl'
I12
tp369
a(S'tr_ll'
I0
tp370
a(S'tr_th'
I1
tp371
a(S'w'
I726
tp372
a(S'p1_vo'
I6
tp373
a(S'w'
I4
tp374
a(S'no_vo'
I9
tp375
a(S'w'
I734
tp376
a(S'tr_lr'
I0
tp377
a(S'w'
I1
tp378
a(S'tr_tl'
I0
tp379
a(S'tr_ll'
I0
tp380
a(S'tr_th'
I0
tp381
a(S'w'
I10
tp382
a(S'p2_vo'
I15
tp383
a(S'p2_tl'
I170
tp384
a(S'w'
I1
tp385
a(S'p2_ll'
I0
tp386
a(S'w'
I721
tp387
a(S'no_vo'
I6
tp388
a(S'w'
I731
tp389
a(S'p2_vo'
I3
tp390
a(S'w'
I2202
tp391
a(S'no_vo'
I5
tp392
a(S'w'
I2198
tp393
a(S'p1_vo'
I5
tp394
a(S'w'
I758
tp395
a(S'no_vo'
I4
tp396
a(S'no_np'
I4
tp397
a(S'w'
I1
tp398
a(S'no_ll'
I0
tp399
a(S'w'
I1446
tp400
a(S'p2_vo'
I2
tp401
a(S'w'
I2
tp402
a(S'no_vo'
I2
tp403
a(S'w'
I1466
tp404
a(S'no_vo'
I0
tp405
a(S'w'
I2931
tp406
a(S'p1_vo'
I4
tp407
a(S'w'
I2203
tp408
a(S'p2_vo'
I1
tp409
a(S'w'
I779
tp410
a(S'p1_vo'
I15
tp411
a(S'w'
I1
tp412
a(S'p1_tl'
I189
tp413
a(S'p1_ll'
I0
tp414
a(S'w'
I3
tp415
a(S'tr_lr'
I127
tp416
a(S'w'
I1
tp417
a(S'tr_tl'
I212
tp418
a(S'tr_ll'
I0
tp419
a(S'w'
I1
tp420
a(S'no_vo'
I4
tp421
a(S'w'
I1
tp422
a(S'no_ll'
I0
tp423
a(S'w'
I690
tp424
a(S'tr_tl'
I28
tp425
a(S'tr_ll'
I0
tp426
a(S'tr_th'
I1
tp427
a(S'w'
I732
tp428
a(S'p1_vo'
I6
tp429
a(S'w'
I3
tp430
a(S'tr_tl'
I170
tp431
a(S'tr_ll'
I0
tp432
a(S'w'
I1
tp433
a(S'no_vo'
I2
tp434
a(S'w'
I736
tp435
a(S'p2_vo'
I15
tp436
a(S'w'
I1
tp437
a(S'p2_tl'
I222
tp438
a(S'p2_ll'
I0
tp439
a(S'w'
I2
tp440
a(S'tr_tl'
I195
tp441
a(S'w'
I1
tp442
a(S'tr_ll'
I0
tp443
a(S'w'
I713
tp444
a(S'tr_lr'
I0
tp445
a(S'tr_tl'
I0
tp446
a(S'tr_ll'
I0
tp447
a(S'tr_th'
I0
tp448
a(S'w'
I13
tp449
a(S'no_vo'
I0
tp450
a(S'w'
I725
tp451
a(S'p2_vo'
I3
tp452
a(S'w'
I4401
tp453
a(S'p1_vo'
I5
tp454
a(S'w'
I747
tp455
a(S'p1_vo'
I15
tp456
a(S'w'
I1
tp457
a(S'p1_tl'
I115
tp458
a(S'p1_ll'
I0
tp459
a(S'p1_th'
I4
tp460
a(S'w'
I3
tp461
a(S'no_vo'
I4
tp462
a(S'w'
I1
tp463
a(S'no_ll'
I0
tp464
a(S'w'
I1453
tp465
a(S'p1_vo'
I6
tp466
a(S'w'
I2
tp467
a(S'p2_vo'
I2
tp468
a(S'w'
I2
tp469
a(S'no_vo'
I2
tp470
a(S'w'
I736
tp471
a(S'p2_vo'
I15
tp472
a(S'w'
I1
tp473
a(S'p2_tl'
I58
tp474
a(S'p2_ll'
I0
tp475
a(S'p2_th'
I2
tp476
a(S'w'
I728
tp477
a(S'no_vo'
I0
tp478
a(S'w'
I731
tp479
a(S'p2_vo'
I3
tp480
a(S'w'
I4401
tp481
a(S'p1_vo'
I5
tp482
a(S'w'
I771
tp483
a(S'p1_vo'
I15
tp484
a(S'w'
I1
tp485
a(S'p1_tl'
I155
tp486
a(S'p1_ll'
I0
tp487
a(S'p1_th'
I5
tp488
a(S'w'
I3
tp489
a(S'tr_lr'
I127
tp490
a(S'tr_tl'
I253
tp491
a(S'w'
I1
tp492
a(S'tr_ll'
I0
tp493
a(S'w'
I1
tp494
a(S'no_vo'
I15
tp495
a(S'w'
I1
tp496
a(S'no_np'
I9
tp497
a(S'no_ll'
I0
tp498
a(S'w'
I699
tp499
a(S'tr_tl'
I12
tp500
a(S'tr_ll'
I0
tp501
a(S'tr_th'
I1
tp502
a(S'w'
I728
tp503
a(S'p1_vo'
I6
tp504
a(S'w'
I1
tp505
a(S'p2_vo'
I2
tp506
a(S'w'
I3
tp507
a(S'no_vo'
I9
tp508
a(S'w'
I733
tp509
a(S'tr_lr'
I0
tp510
a(S'tr_tl'
I0
tp511
a(S'tr_ll'
I0
tp512
a(S'tr_th'
I0
tp513
a(S'w'
I10
tp514
a(S'p2_vo'
I15
tp515
a(S'w'
I1
tp516
a(S'p2_tl'
I205
tp517
a(S'p2_ll'
I0
tp518
a(S'w'
I721
tp519
a(S'no_vo'
I6
tp520
a(S'w'
I732
tp521
a(S'p2_vo'
I3
tp522
a(S'w'
I2202
tp523
a(S'no_vo'
I5
tp524
a(S'w'
I2197
tp525
a(S'p1_vo'
I5
tp526
a(S'w'
I769
tp527
a(S'p1_vo'
I15
tp528
a(S'w'
I1
tp529
a(S'p1_tl'
I86
tp530
a(S'p1_ll'
I0
tp531
a(S'p1_th'
I3
tp532
a(S'w'
I3
tp533
a(S'no_vo'
I4
tp534
a(S'w'
I1
tp535
a(S'no_np'
I4
tp536
a(S'no_ll'
I0
tp537
a(S'w'
I1432
tp538
a(S'p1_vo'
I3
tp539
a(S'w'
I1
tp540
a(S'p2_vo'
I2
tp541
a(S'w'
I2
tp542
a(S'no_vo'
I2
tp543
a(S'w'
I743
tp544
a(S'p2_du'
I2
tp545
a(S'p2_vo'
I15
tp546
a(S'w'
I1
tp547
a(S'p2_tl'
I173
tp548
a(S'p2_ll'
I0
tp549
a(S'p2_th'
I6
tp550
a(S'w'
I722
tp551
a(S'no_vo'
I0
tp552
a(S'w'
I730
tp553
a(S'p2_vo'
I3
tp554
a(S'w'
I5178
tp555
a(S'tr_lr'
I127
tp556
a(S'w'
I1
tp557
a(S'tr_tl'
I212
tp558
a(S'tr_ll'
I0
tp559
a(S'w'
I1
tp560
a(S'no_vo'
I4
tp561
a(S'w'
I1
tp562
a(S'no_ll'
I0
tp563
a(S'w'
I697
tp564
a(S'tr_tl'
I28
tp565
a(S'tr_ll'
I0
tp566
a(S'tr_th'
I1
tp567
a(S'w'
I734
tp568
a(S'tr_tl'
I170
tp569
a(S'w'
I1
tp570
a(S'tr_ll'
I0
tp571
a(S'w'
I1
tp572
a(S'no_vo'
I2
tp573
a(S'w'
I731
tp574
a(S'tr_tl'
I195
tp575
a(S'w'
I1
tp576
a(S'tr_ll'
I0
tp577
a(S'w'
I721
tp578
a(S'tr_lr'
I0
tp579
a(S'tr_tl'
I0
tp580
a(S'tr_ll'
I0
tp581
a(S'tr_th'
I0
tp582
a(S'w'
I13
tp583
a(S'no_vo'
I0
tp584
a(S'w'
I5870
tp585
a(S'no_vo'
I4
tp586
a(S'w'
I1
tp587
a(S'no_ll'
I0
tp588
a(S'w'
I1462
tp589
a(S'no_vo'
I2
tp590
a(S'w'
I1467
tp591
a(S'no_vo'
I0
tp592
a(S'w'
I5899
tp593
a(S'tr_lr'
I127
tp594
a(S'w'
I1
tp595
a(S'tr_tl'
I253
tp596
a(S'tr_ll'
I0
tp597
a(S'w'
I1
tp598
a(S'no_vo'
I15
tp599
a(S'w'
I1
tp600
a(S'no_np'
I9
tp601
a(S'no_ll'
I0
tp602
a(S'w'
I706
tp603
a(S'tr_tl'
I12
tp604
a(S'w'
I1
tp605
a(S'tr_ll'
I0
tp606
a(S'tr_th'
I1
tp607
a(S'w'
I729
tp608
a(S'no_vo'
I9
tp609
a(S'w'
I728
tp610
a(S'tr_lr'
I0
tp611
a(S'tr_tl'
I0
tp612
a(S'tr_ll'
I0
tp613
a(S'tr_th'
I0
tp614
a(S'w'
I739
tp615
a(S'no_vo'
I6
tp616
a(S'w'
I733
tp617
a(S'p2_vo'
I2
tp618
a(S'w'
I2202
tp619
a(S'no_vo'
I5
tp620
a(S'w'
I2953
tp621
a(S'p1_vo'
I2
tp622
a(S'w'
I4
tp623
a(S'no_vo'
I4
tp624
a(S'w'
I1
tp625
a(S'no_np'
I4
tp626
a(S'no_ll'
I0
tp627
a(S'w'
I1445
tp628
a(S'no_vo'
I2
tp629
a(S'w'
I1468
tp630
a(S'no_vo'
I0
tp631
a(S'w'
I3666
tp632
a(S'p2_vo'
I1
tp633
a(S'w'
I2243
tp634
a(S'tr_lr'
I127
tp635
a(S'w'
I1
tp636
a(S'tr_tl'
I212
tp637
a(S'tr_ll'
I0
tp638
a(S'w'
I1
tp639
a(S'no_vo'
I4
tp640
a(S'w'
I1
tp641
a(S'no_ll'
I0
tp642
a(S'w'
I697
tp643
a(S'tr_tl'
I28
tp644
a(S'tr_ll'
I0
tp645
a(S'tr_th'
I1
tp646
a(S'w'
I734
tp647
a(S'tr_tl'
I170
tp648
a(S'tr_ll'
I0
tp649
a(S'w'
I1
tp650
a(S'no_vo'
I2
tp651
a(S'w'
I732
tp652
a(S'tr_tl'
I195
tp653
a(S'tr_ll'
I0
tp654
a(S'w'
I723
tp655
a(S'tr_lr'
I0
tp656
a(S'tr_tl'
I0
tp657
a(S'tr_ll'
I0
tp658
a(S'tr_th'
I0
tp659
a(S'w'
I10
tp660
a(S'p1_vo'
I1
tp661
a(S'w'
I3
tp662
a(S'no_vo'
I0
tp663
a(S'w'
I5869
tp664
a(S'no_vo'
I4
tp665
a(S'w'
I1
tp666
a(S'no_ll'
I0
tp667
a(S'w'
I726
tp668
a(S'p2_vo'
I0
tp669
a(S'w'
I735
tp670
a(S'no_vo'
I2
tp671
a(S'w'
I1468
tp672
a(S'no_vo'
I0
tp673
a(S'w'
I2931
tp674
a(S'p1_vo'
I0
tp675
a(S'w'
I2968
tp676
a(S'tr_lr'
I127
tp677
a(S'w'
I1
tp678
a(S'tr_tl'
I253
tp679
a(S'tr_ll'
I0
tp680
a(S'w'
I1
tp681
a(S'no_vo'
I15
tp682
a(S'w'
I1
tp683
a(S'no_np'
I9
tp684
a(S'no_ll'
I0
tp685
a(S'w'
I706
tp686
a(S'tr_tl'
I12
tp687
a(S'w'
I1
tp688
a(S'tr_ll'
I0
tp689
a(S'tr_th'
I1
tp690
a(S'w'
I729
tp691
a(S'no_vo'
I9
tp692
a(S'w'
I728
tp693
a(S'tr_lr'
I0
tp694
a(S'tr_tl'
I0
tp695
a(S'w'
I1
tp696
a(S'tr_ll'
I0
tp697
a(S'tr_th'
I0
tp698
a(S'w'
I738
tp699
a(S'no_vo'
I6
tp700
a(S'w'
I2935
tp701
a(S'no_vo'
I5
tp702
a(S'w'
I2925
tp703
a(S'p1_ss'
I0
tp704
a(S'p1_tl'
I0
tp705
a(S'p1_ll'
I0
tp706
a(S'p1_th'
I0
tp707
a(S'w'
I34
tp708
a(S'no_vo'
I4
tp709
a(S'w'
I1
tp710
a(S'no_np'
I4
tp711
a(S'no_ll'
I0
tp712
a(S'w'
I1441
tp713
a(S'no_vo'
I2
tp714
a(S'w'
I726
tp715
a(S'p2_ss'
I0
tp716
a(S'p2_tl'
I0
tp717
a(S'p2_ll'
I0
tp718
a(S'p2_th'
I0
tp719
a(S'w'
I740
tp720
a(S'no_vo'
I0
tp721
a(S'w'
I5909
tp722
a(S'tr_lr'
I127
tp723
a(S'w'
I1
tp724
a(S'tr_tl'
I212
tp725
a(S'tr_ll'
I0
tp726
a(S'w'
I1
tp727
a(S'no_vo'
I4
tp728
a(S'w'
I1
tp729
a(S'no_ll'
I0
tp730
a(S'w'
I697
tp731
a(S'tr_tl'
I28
tp732
a(S'tr_ll'
I0
tp733
a(S'tr_th'
I1
tp734
a(S'w'
I734
tp735
a(S'tr_tl'
I170
tp736
a(S'tr_ll'
I0
tp737
a(S'w'
I1
tp738
a(S'no_vo'
I2
tp739
a(S'w'
I732
tp740
a(S'tr_tl'
I195
tp741
a(S'tr_ll'
I0
tp742
a(S'w'
I723
tp743
a(S'tr_lr'
I0
tp744
a(S'tr_tl'
I0
tp745
a(S'tr_ll'
I0
tp746
a(S'tr_th'
I0
tp747
a(S'w'
I12
tp748
a(S'no_vo'
I0
tp749
a(S'w'
I5870
tp750
a(S'no_vo'
I4
tp751
a(S'w'
I1
tp752
a(S'no_ll'
I0
tp753
a(S'w'
I1462
tp754
a(S'no_vo'
I2
tp755
a(S'w'
I1467
tp756
a(S'no_vo'
I0
tp757
a(S'w'
I5899
tp758
a(S'tr_lr'
I127
tp759
a(S'w'
I1
tp760
a(S'tr_tl'
I253
tp761
a(S'w'
I1
tp762
a(S'tr_ll'
I0
tp763
a(S'w'
I1
tp764
a(S'no_vo'
I15
tp765
a(S'w'
I1
tp766
a(S'no_np'
I9
tp767
a(S'no_ll'
I0
tp768
a(S'w'
I706
tp769
a(S'tr_tl'
I12
tp770
a(S'tr_ll'
I0
tp771
a(S'tr_th'
I1
tp772
a(S'w'
I730
tp773
a(S'no_vo'
I9
tp774
a(S'w'
I729
tp775
a(S'tr_lr'
I0
tp776
a(S'tr_tl'
I0
tp777
a(S'tr_ll'
I0
tp778
a(S'tr_th'
I0
tp779
a(S'w'
I738
tp780
a(S'no_vo'
I6
tp781
a(S'w'
I2935
tp782
a(S'no_vo'
I5
tp783
a(S'w'
I2955
tp784
a(S'no_vo'
I4
tp785
a(S'w'
I1
tp786
a(S'no_np'
I4
tp787
a(S'no_ll'
I0
tp788
a(S'w'
I1447
tp789
a(S'no_vo'
I2
tp790
a(S'w'
I1467
tp791
a(S'no_vo'
I0
tp792
a(S'w'
I5909
tp793
a(S'tr_lr'
I127
tp794
a(S'w'
I1
tp795
a(S'tr_tl'
I212
tp796
a(S'tr_ll'
I0
tp797
a(S'w'
I1
tp798
a(S'no_vo'
I4
tp799
a(S'w'
I1
tp800
a(S'w'
I1
tp801
a(S'no_ll'
I0
tp802
a(S'w'
I1
tp803
a.