(lp1
(S'clock'
p2
I1789772
tp3
a(S'p1_lh'
I1
tp4
a(S'p1_cv'
I1
tp5
a(S'p1_sn'
I1
tp6
a(S'p2_lh'
I1
tp7
a(S'p2_cv'
I1
tp8
a(S'p2_sn'
I1
tp9
a(S'no_lh'
I1
tp10
a(S'no_cv'
I1
tp11
a(S'ch_no'
I1
tp12
a(S'ch_tr'
I1
tp13
a(S'ch_p2'
I1
tp14
a(S'ch_p1'
I1
tp15
a(S'p1_du'
I3
tp16
a(S'p1_vo'
I13
tp17
a(S'w'
I5
tp18
a(S'p1_tl'
I179
tp19
a(S'w'
I2
tp20
a(S'p1_ll'
I1
tp21
a(S'w'
I11
tp22
a(S'p2_du'
I1
tp23
a(S'p2_vo'
I13
tp24
a(S'w'
I5
tp25
a(S'p2_tl'
I226
tp26
a(S'w'
I2
tp27
a(S'p2_ll'
I1
tp28
a(S'w'
I9
tp29
a(S'tr_lh'
I1
tp30
a(S'tr_lr'
I127
tp31
a(S'w'
I5
tp32
a(S'tr_tl'
I46
tp33
a(S'w'
I1
tp34
a(S'tr_ll'
I1
tp35
a(S'tr_th'
I1
tp36
a(S'w'
I699
tp37
a(S'w'
I17
tp38
a(S'w'
I716
tp39
a(S'w'
I16
tp40
a(S'w'
I718
tp41
a(S'w'
I16
tp42
a(S'w'
I718
tp43
a(S'w'
I16
tp44
a(S'w'
I713
tp45
a(S'p1_vo'
I0
tp46
a(S'w'
I6
tp47
a(S'w'
I12
tp48
a(S'p2_vo'
I0
tp49
a(S'w'
I5
tp50
a(S'w'
I11
tp51
a(S'tr_lh'
I0
tp52
a(S'tr_lr'
I0
tp53
a(S'w'
I706
tp54
a(S'w'
I32
tp55
a(S'w'
I695
tp56
a(S'p1_vo'
I13
tp57
a(S'w'
I6
tp58
a(S'w'
I2
tp59
a(S'p1_ll'
I1
tp60
a(S'w'
I10
tp61
a(S'p2_vo'
I13
tp62
a(S'w'
I6
tp63
a(S'w'
I1
tp64
a(S'p2_ll'
I1
tp65
a(S'w'
I9
tp66
a(S'tr_lh'
I1
tp67
a(S'tr_lr'
I127
tp68
a(S'w'
I7
tp69
a(S'tr_ll'
I1
tp70
a(S'w'
I699
tp71
a(S'w'
I17
tp72
a(S'w'
I716
tp73
a(S'w'
I15
tp74
a(S'w'
I719
tp75
a(S'w'
I16
tp76
a(S'w'
I716
tp77
a(S'p1_vo'
I0
tp78
a(S'w'
I6
tp79
a(S'w'
I12
tp80
a(S'p2_vo'
I0
tp81
a(S'w'
I5
tp82
a(S'w'
I11
tp83
a(S'tr_lh'
I0
tp84
a(S'tr_lr'
I0
tp85
a(S'w'
I702
tp86
a(S'w'
I21
tp87
a(S'w'
I713
tp88
a(S'w'
I17
tp89
a(S'w'
I9
tp90
a(S'tr_lh'
I1
tp91
a(S'tr_lr'
I127
tp92
a(S'w'
I6
tp93
a(S'tr_tl'
I201
tp94
a(S'w'
I2
tp95
a(S'tr_ll'
I1
tp96
a(S'tr_th'
I0
tp97
a(S'w'
I717
tp98
a(S'tr_tl'
I211
tp99
a(S'w'
I734
tp100
a(S'tr_tl'
I221
tp101
a(S'w'
I734
tp102
a(S'tr_tl'
I239
tp103
a(S'w'
I733
tp104
a(S'tr_tl'
I2
tp105
a(S'w'
I2
tp106
a(S'tr_ll'
I1
tp107
a(S'tr_th'
I1
tp108
a(S'w'
I732
tp109
a(S'tr_tl'
I22
tp110
a(S'w'
I734
tp111
a(S'tr_tl'
I42
tp112
a(S'w'
I734
tp113
a(S'tr_tl'
I62
tp114
a(S'w'
I733
tp115
a(S'tr_tl'
I82
tp116
a(S'w'
I722
tp117
a(S'tr_lh'
I0
tp118
a(S'tr_lr'
I0
tp119
a(S'w'
I13
tp120
a(S'tr_tl'
I102
tp121
a(S'w'
I734
tp122
a(S'tr_tl'
I121
tp123
a(S'w'
I2177
tp124
a(S'p1_vo'
I13
tp125
a(S'w'
I6
tp126
a(S'p1_tl'
I160
tp127
a(S'w'
I2
tp128
a(S'p1_ll'
I1
tp129
a(S'w'
I11
tp130
a(S'p2_vo'
I13
tp131
a(S'w'
I5
tp132
a(S'p2_tl'
I201
tp133
a(S'w'
I2
tp134
a(S'p2_ll'
I1
tp135
a(S'w'
I9
tp136
a(S'tr_lh'
I1
tp137
a(S'tr_lr'
I127
tp138
a(S'w'
I5
tp139
a(S'tr_tl'
I13
tp140
a(S'w'
I2
tp141
a(S'tr_ll'
I1
tp142
a(S'w'
I702
tp143
a(S'w'
I17
tp144
a(S'w'
I712
tp145
a(S'w'
I16
tp146
a(S'w'
I718
tp147
a(S'w'
I17
tp148
a(S'w'
I712
tp149
a(S'p1_vo'
I0
tp150
a(S'w'
I6
tp151
a(S'w'
I12
tp152
a(S'p2_vo'
I0
tp153
a(S'w'
I6
tp154
a(S'w'
I10
tp155
a(S'tr_lh'
I0
tp156
a(S'tr_lr'
I0
tp157
a(S'w'
I706
tp158
a(S'w'
I33
tp159
a(S'w'
I694
tp160
a(S'p1_vo'
I13
tp161
a(S'w'
I6
tp162
a(S'w'
I2
tp163
a(S'p1_ll'
I1
tp164
a(S'w'
I10
tp165
a(S'p2_vo'
I13
tp166
a(S'w'
I6
tp167
a(S'w'
I2
tp168
a(S'p2_ll'
I1
tp169
a(S'w'
I9
tp170
a(S'tr_lh'
I1
tp171
a(S'tr_lr'
I127
tp172
a(S'w'
I7
tp173
a(S'tr_ll'
I1
tp174
a(S'w'
I698
tp175
a(S'w'
I17
tp176
a(S'w'
I716
tp177
a(S'w'
I16
tp178
a(S'w'
I718
tp179
a(S'w'
I16
tp180
a(S'w'
I713
tp181
a(S'p1_vo'
I0
tp182
a(S'w'
I6
tp183
a(S'w'
I12
tp184
a(S'p2_vo'
I0
tp185
a(S'w'
I6
tp186
a(S'w'
I10
tp187
a(S'tr_lh'
I0
tp188
a(S'tr_lr'
I0
tp189
a(S'w'
I705
tp190
a(S'w'
I22
tp191
a(S'w'
I712
tp192
a(S'w'
I18
tp193
a(S'w'
I9
tp194
a(S'tr_lh'
I1
tp195
a(S'tr_lr'
I127
tp196
a(S'w'
I6
tp197
a(S'tr_tl'
I201
tp198
a(S'w'
I1
tp199
a(S'tr_ll'
I1
tp200
a(S'tr_th'
I0
tp201
a(S'w'
I717
tp202
a(S'tr_tl'
I211
tp203
a(S'w'
I734
tp204
a(S'tr_tl'
I221
tp205
a(S'w'
I734
tp206
a(S'tr_tl'
I239
tp207
a(S'w'
I733
tp208
a(S'tr_tl'
I2
tp209
a(S'w'
I2
tp210
a(S'tr_ll'
I1
tp211
a(S'tr_th'
I1
tp212
a(S'w'
I736
tp213
a(S'tr_tl'
I22
tp214
a(S'w'
I730
tp215
a(S'tr_tl'
I42
tp216
a(S'w'
I734
tp217
a(S'tr_tl'
I62
tp218
a(S'w'
I733
tp219
a(S'tr_tl'
I82
tp220
a(S'w'
I722
tp221
a(S'tr_lh'
I0
tp222
a(S'tr_lr'
I0
tp223
a(S'w'
I13
tp224
a(S'tr_tl'
I102
tp225
a(S'w'
I734
tp226
a(S'tr_tl'
I121
tp227
a(S'w'
I2177
tp228
a(S'p1_vo'
I13
tp229
a(S'w'
I6
tp230
a(S'p1_tl'
I151
tp231
a(S'w'
I2
tp232
a(S'p1_ll'
I1
tp233
a(S'w'
I11
tp234
a(S'p2_vo'
I13
tp235
a(S'w'
I6
tp236
a(S'p2_tl'
I190
tp237
a(S'w'
I1
tp238
a(S'p2_ll'
I1
tp239
a(S'w'
I9
tp240
a(S'tr_lh'
I1
tp241
a(S'tr_lr'
I127
tp242
a(S'w'
I5
tp243
a(S'tr_tl'
I254
tp244
a(S'w'
I2
tp245
a(S'tr_ll'
I1
tp246
a(S'tr_th'
I0
tp247
a(S'w'
I698
tp248
a(S'w'
I18
tp249
a(S'w'
I715
tp250
a(S'w'
I16
tp251
a(S'w'
I718
tp252
a(S'w'
I17
tp253
a(S'w'
I712
tp254
a(S'p1_vo'
I0
tp255
a(S'w'
I6
tp256
a(S'w'
I12
tp257
a(S'p2_vo'
I0
tp258
a(S'w'
I6
tp259
a(S'w'
I10
tp260
a(S'tr_lh'
I0
tp261
a(S'tr_lr'
I0
tp262
a(S'w'
I706
tp263
a(S'w'
I33
tp264
a(S'w'
I694
tp265
a(S'p1_vo'
I13
tp266
a(S'w'
I6
tp267
a(S'w'
I2
tp268
a(S'p1_ll'
I1
tp269
a(S'w'
I10
tp270
a(S'p2_vo'
I13
tp271
a(S'w'
I6
tp272
a(S'w'
I2
tp273
a(S'p2_ll'
I1
tp274
a(S'w'
I9
tp275
a(S'tr_lh'
I1
tp276
a(S'tr_lr'
I127
tp277
a(S'w'
I7
tp278
a(S'tr_ll'
I1
tp279
a(S'w'
I698
tp280
a(S'w'
I17
tp281
a(S'w'
I719
tp282
a(S'w'
I17
tp283
a(S'w'
I714
tp284
a(S'w'
I16
tp285
a(S'w'
I717
tp286
a(S'w'
I17
tp287
a(S'w'
I712
tp288
a(S'p1_vo'
I0
tp289
a(S'w'
I6
tp290
a(S'w'
I16
tp291
a(S'p2_vo'
I0
tp292
a(S'w'
I6
tp293
a(S'w'
I13
tp294
a(S'tr_lh'
I0
tp295
a(S'tr_lr'
I0
tp296
a(S'w'
I699
tp297
a(S'w'
I18
tp298
a(S'w'
I9
tp299
a(S'tr_lh'
I1
tp300
a(S'tr_lr'
I127
tp301
a(S'w'
I6
tp302
a(S'tr_tl'
I201
tp303
a(S'w'
I1
tp304
a(S'tr_ll'
I1
tp305
a(S'w'
I717
tp306
a(S'tr_tl'
I211
tp307
a(S'w'
I734
tp308
a(S'tr_tl'
I221
tp309
a(S'w'
I734
tp310
a(S'tr_tl'
I239
tp311
a(S'w'
I733
tp312
a(S'tr_tl'
I2
tp313
a(S'w'
I2
tp314
a(S'tr_ll'
I1
tp315
a(S'tr_th'
I1
tp316
a(S'w'
I732
tp317
a(S'tr_tl'
I22
tp318
a(S'w'
I734
tp319
a(S'tr_tl'
I42
tp320
a(S'w'
I734
tp321
a(S'tr_tl'
I62
tp322
a(S'w'
I733
tp323
a(S'tr_tl'
I82
tp324
a(S'w'
I722
tp325
a(S'tr_lh'
I0
tp326
a(S'tr_lr'
I0
tp327
a(S'w'
I13
tp328
a(S'tr_tl'
I102
tp329
a(S'w'
I734
tp330
a(S'tr_tl'
I121
tp331
a(S'w'
I2177
tp332
a(S'p1_vo'
I13
tp333
a(S'w'
I6
tp334
a(S'p1_tl'
I134
tp335
a(S'w'
I2
tp336
a(S'p1_ll'
I1
tp337
a(S'w'
I11
tp338
a(S'p2_vo'
I13
tp339
a(S'w'
I6
tp340
a(S'p2_tl'
I160
tp341
a(S'w'
I1
tp342
a(S'p2_ll'
I1
tp343
a(S'w'
I9
tp344
a(S'tr_lh'
I1
tp345
a(S'tr_lr'
I127
tp346
a(S'w'
I6
tp347
a(S'tr_tl'
I201
tp348
a(S'w'
I2
tp349
a(S'tr_ll'
I1
tp350
a(S'tr_th'
I0
tp351
a(S'w'
I697
tp352
a(S'w'
I18
tp353
a(S'w'
I715
tp354
a(S'w'
I16
tp355
a(S'w'
I718
tp356
a(S'w'
I17
tp357
a(S'w'
I712
tp358
a(S'p1_vo'
I0
tp359
a(S'w'
I6
tp360
a(S'w'
I12
tp361
a(S'p2_vo'
I0
tp362
a(S'w'
I6
tp363
a(S'w'
I10
tp364
a(S'tr_lh'
I0
tp365
a(S'tr_lr'
I0
tp366
a(S'w'
I706
tp367
a(S'w'
I33
tp368
a(S'w'
I694
tp369
a(S'p1_vo'
I13
tp370
a(S'w'
I6
tp371
a(S'p1_tl'
I151
tp372
a(S'w'
I2
tp373
a(S'p1_ll'
I1
tp374
a(S'w'
I11
tp375
a(S'p2_vo'
I13
tp376
a(S'w'
I5
tp377
a(S'p2_tl'
I179
tp378
a(S'w'
I2
tp379
a(S'p2_ll'
I1
tp380
a(S'w'
I9
tp381
a(S'tr_lh'
I1
tp382
a(S'tr_lr'
I127
tp383
a(S'w'
I5
tp384
a(S'tr_tl'
I226
tp385
a(S'w'
I2
tp386
a(S'tr_ll'
I1
tp387
a(S'w'
I698
tp388
a(S'w'
I18
tp389
a(S'w'
I715
tp390
a(S'w'
I16
tp391
a(S'w'
I718
tp392
a(S'w'
I16
tp393
a(S'w'
I718
tp394
a(S'w'
I16
tp395
a(S'w'
I712
tp396
a(S'p1_vo'
I0
tp397
a(S'w'
I7
tp398
a(S'w'
I26
tp399
a(S'p2_vo'
I0
tp400
a(S'w'
I6
tp401
a(S'w'
I26
tp402
a(S'tr_lh'
I0
tp403
a(S'tr_lr'
I0
tp404
a(S'w'
I669
tp405
a(S'p1_vo'
I13
tp406
a(S'w'
I6
tp407
a(S'p1_tl'
I134
tp408
a(S'w'
I2
tp409
a(S'p1_ll'
I1
tp410
a(S'w'
I10
tp411
a(S'p2_vo'
I13
tp412
a(S'w'
I6
tp413
a(S'p2_tl'
I160
tp414
a(S'w'
I2
tp415
a(S'p2_ll'
I1
tp416
a(S'w'
I9
tp417
a(S'tr_lh'
I1
tp418
a(S'tr_lr'
I127
tp419
a(S'w'
I6
tp420
a(S'tr_tl'
I201
tp421
a(S'w'
I1
tp422
a(S'tr_ll'
I1
tp423
a(S'w'
I698
tp424
a(S'w'
I17
tp425
a(S'w'
I716
tp426
a(S'w'
I16
tp427
a(S'w'
I721
tp428
a(S'w'
I16
tp429
a(S'w'
I714
tp430
a(S'w'
I17
tp431
a(S'w'
I712
tp432
a(S'p1_vo'
I0
tp433
a(S'w'
I6
tp434
a(S'w'
I31
tp435
a(S'p2_vo'
I0
tp436
a(S'w'
I6
tp437
a(S'w'
I29
tp438
a(S'tr_lh'
I0
tp439
a(S'tr_lr'
I0
tp440
a(S'w'
I662
tp441
a(S'p1_vo'
I13
tp442
a(S'w'
I6
tp443
a(S'p1_tl'
I120
tp444
a(S'w'
I1
tp445
a(S'p1_ll'
I1
tp446
a(S'w'
I11
tp447
a(S'p2_vo'
I13
tp448
a(S'w'
I6
tp449
a(S'p2_tl'
I142
tp450
a(S'w'
I2
tp451
a(S'p2_ll'
I1
tp452
a(S'w'
I9
tp453
a(S'tr_lh'
I1
tp454
a(S'tr_lr'
I127
tp455
a(S'w'
I5
tp456
a(S'tr_tl'
I179
tp457
a(S'w'
I2
tp458
a(S'tr_ll'
I1
tp459
a(S'w'
I698
tp460
a(S'w'
I17
tp461
a(S'w'
I715
tp462
a(S'w'
I17
tp463
a(S'w'
I717
tp464
a(S'w'
I17
tp465
a(S'w'
I717
tp466
a(S'w'
I16
tp467
a(S'w'
I718
tp468
a(S'w'
I16
tp469
a(S'w'
I718
tp470
a(S'w'
I27
tp471
a(S'w'
I707
tp472
a(S'w'
I16
tp473
a(S'w'
I717
tp474
a(S'w'
I17
tp475
a(S'w'
I717
tp476
a(S'w'
I16
tp477
a(S'w'
I718
tp478
a(S'w'
I16
tp479
a(S'w'
I718
tp480
a(S'w'
I16
tp481
a(S'w'
I718
tp482
a(S'w'
I16
tp483
a(S'w'
I721
tp484
a(S'w'
I16
tp485
a(S'w'
I714
tp486
a(S'w'
I16
tp487
a(S'w'
I718
tp488
a(S'w'
I16
tp489
a(S'w'
I718
tp490
a(S'w'
I16
tp491
a(S'w'
I718
tp492
a(S'w'
I16
tp493
a(S'w'
I717
tp494
a(S'w'
I17
tp495
a(S'w'
I717
tp496
a(S'w'
I16
tp497
a(S'w'
I718
tp498
a(S'w'
I16
tp499
a(S'w'
I718
tp500
a(S'w'
I16
tp501
a(S'w'
I718
tp502
a(S'w'
I16
tp503
a(S'w'
I717
tp504
a(S'w'
I17
tp505
a(S'w'
I717
tp506
a(S'w'
I16
tp507
a(S'w'
I718
tp508
a(S'w'
I16
tp509
a(S'w'
I718
tp510
a(S'w'
I16
tp511
a(S'w'
I718
tp512
a(S'w'
I16
tp513
a(S'w'
I717
tp514
a(S'w'
I17
tp515
a(S'w'
I721
tp516
a(S'w'
I16
tp517
a(S'w'
I714
tp518
a(S'w'
I16
tp519
a(S'w'
I718
tp520
a(S'w'
I16
tp521
a(S'w'
I718
tp522
a(S'w'
I16
tp523
a(S'w'
I717
tp524
a(S'w'
I17
tp525
a(S'w'
I717
tp526
a(S'w'
I16
tp527
a(S'w'
I718
tp528
a(S'w'
I16
tp529
a(S'w'
I718
tp530
a(S'w'
I16
tp531
a(S'w'
I718
tp532
a(S'w'
I16
tp533
a(S'w'
I717
tp534
a(S'w'
I17
tp535
a(S'w'
I717
tp536
a(S'w'
I16
tp537
a(S'w'
I718
tp538
a(S'w'
I16
tp539
a(S'w'
I718
tp540
a(S'w'
I16
tp541
a(S'w'
I718
tp542
a(S'w'
I16
tp543
a(S'w'
I717
tp544
a(S'w'
I17
tp545
a(S'w'
I717
tp546
a(S'w'
I16
tp547
a(S'w'
I721
tp548
a(S'w'
I17
tp549
a(S'w'
I714
tp550
a(S'w'
I16
tp551
a(S'w'
I718
tp552
a(S'w'
I16
tp553
a(S'w'
I717
tp554
a(S'w'
I17
tp555
a(S'w'
I717
tp556
a(S'w'
I16
tp557
a(S'w'
I718
tp558
a(S'w'
I16
tp559
a(S'w'
I718
tp560
a(S'w'
I16
tp561
a(S'w'
I718
tp562
a(S'w'
I16
tp563
a(S'w'
I717
tp564
a(S'w'
I17
tp565
a(S'w'
I717
tp566
a(S'w'
I16
tp567
a(S'w'
I718
tp568
a(S'w'
I16
tp569
a(S'w'
I718
tp570
a(S'w'
I37
tp571
a(S'w'
I697
tp572
a(S'w'
I17
tp573
a(S'w'
I724
tp574
a(S'w'
I25
tp575
a(S'p2_tl'
I143
tp576
a(S'w'
I23
tp577
a(S'tr_tl'
I180
tp578
a(S'w'
I686
tp579
a(S'p1_tl'
I121
tp580
a(S'w'
I25
tp581
a(S'p2_tl'
I144
tp582
a(S'w'
I23
tp583
a(S'tr_tl'
I181
tp584
a(S'w'
I686
tp585
a(S'w'
I25
tp586
a(S'w'
I712
tp587
a(S'p1_tl'
I120
tp588
a(S'w'
I25
tp589
a(S'p2_tl'
I143
tp590
a(S'w'
I24
tp591
a(S'tr_tl'
I180
tp592
a(S'w'
I680
tp593
a(S'w'
I23
tp594
a(S'p2_tl'
I142
tp595
a(S'w'
I23
tp596
a(S'tr_tl'
I179
tp597
a(S'w'
I689
tp598
a(S'p1_tl'
I119
tp599
a(S'w'
I24
tp600
a(S'w'
I710
tp601
a(S'p1_tl'
I118
tp602
a(S'w'
I26
tp603
a(S'p2_tl'
I141
tp604
a(S'w'
I24
tp605
a(S'tr_tl'
I178
tp606
a(S'w'
I685
tp607
a(S'w'
I25
tp608
a(S'p2_tl'
I140
tp609
a(S'w'
I707
tp610
a(S'p1_tl'
I119
tp611
a(S'w'
I23
tp612
a(S'p2_tl'
I141
tp613
a(S'w'
I711
tp614
a(S'w'
I23
tp615
a(S'p2_tl'
I142
tp616
a(S'w'
I23
tp617
a(S'tr_tl'
I179
tp618
a(S'w'
I687
tp619
a(S'p1_tl'
I120
tp620
a(S'w'
I24
tp621
a(S'p2_tl'
I143
tp622
a(S'w'
I22
tp623
a(S'tr_tl'
I180
tp624
a(S'w'
I689
tp625
a(S'p1_tl'
I121
tp626
a(S'w'
I24
tp627
a(S'w'
I23
tp628
a(S'tr_tl'
I181
tp629
a(S'w'
I687
tp630
a(S'w'
I25
tp631
a(S'p2_tl'
I144
tp632
a(S'w'
I709
tp633
a(S'w'
I24
tp634
a(S'p2_tl'
I143
tp635
a(S'w'
I24
tp636
a(S'tr_tl'
I180
tp637
a(S'w'
I685
tp638
a(S'p1_tl'
I120
tp639
a(S'w'
I24
tp640
a(S'w'
I709
tp641
a(S'p1_tl'
I119
tp642
a(S'w'
I24
tp643
a(S'p2_tl'
I142
tp644
a(S'w'
I23
tp645
a(S'tr_tl'
I179
tp646
a(S'w'
I688
tp647
a(S'p1_tl'
I118
tp648
a(S'w'
I24
tp649
a(S'p2_tl'
I141
tp650
a(S'w'
I24
tp651
a(S'tr_tl'
I178
tp652
a(S'w'
I687
tp653
a(S'w'
I25
tp654
a(S'p2_tl'
I140
tp655
a(S'w'
I25
tp656
a(S'tr_tl'
I177
tp657
a(S'w'
I683
tp658
a(S'w'
I24
tp659
a(S'p2_tl'
I141
tp660
a(S'w'
I24
tp661
a(S'tr_tl'
I178
tp662
a(S'w'
I688
tp663
a(S'p1_tl'
I119
tp664
a(S'w'
I25
tp665
a(S'p2_tl'
I142
tp666
a(S'w'
I23
tp667
a(S'tr_tl'
I179
tp668
a(S'w'
I684
tp669
a(S'p1_tl'
I120
tp670
a(S'w'
I24
tp671
a(S'w'
I708
tp672
a(S'p1_tl'
I121
tp673
a(S'w'
I24
tp674
a(S'p2_tl'
I143
tp675
a(S'w'
I22
tp676
a(S'tr_tl'
I180
tp677
a(S'w'
I689
tp678
a(S'w'
I25
tp679
a(S'p2_tl'
I144
tp680
a(S'w'
I25
tp681
a(S'tr_tl'
I181
tp682
a(S'w'
I685
tp683
a(S'w'
I25
tp684
a(S'w'
I707
tp685
a(S'p1_tl'
I120
tp686
a(S'w'
I24
tp687
a(S'p2_tl'
I143
tp688
a(S'w'
I24
tp689
a(S'tr_tl'
I180
tp690
a(S'w'
I686
tp691
a(S'p1_tl'
I119
tp692
a(S'w'
I24
tp693
a(S'p2_tl'
I142
tp694
a(S'w'
I23
tp695
a(S'tr_tl'
I179
tp696
a(S'w'
I687
tp697
a(S'w'
I24
tp698
a(S'p2_tl'
I141
tp699
a(S'w'
I24
tp700
a(S'tr_tl'
I178
tp701
a(S'w'
I686
tp702
a(S'p1_tl'
I118
tp703
a(S'w'
I25
tp704
a(S'w'
I708
tp705
a(S'w'
I24
tp706
a(S'w'
I710
tp707
a(S'p1_tl'
I119
tp708
a(S'w'
I25
tp709
a(S'w'
I23
tp710
a(S'tr_tl'
I179
tp711
a(S'w'
I684
tp712
a(S'p1_tl'
I120
tp713
a(S'w'
I23
tp714
a(S'p2_tl'
I142
tp715
a(S'w'
I712
tp716
a(S'w'
I24
tp717
a(S'p2_tl'
I143
tp718
a(S'w'
I22
tp719
a(S'tr_tl'
I180
tp720
a(S'w'
I689
tp721
a(S'p1_tl'
I121
tp722
a(S'w'
I25
tp723
a(S'p2_tl'
I144
tp724
a(S'w'
I23
tp725
a(S'tr_tl'
I181
tp726
a(S'w'
I686
tp727
a(S'w'
I25
tp728
a(S'w'
I709
tp729
a(S'p1_tl'
I120
tp730
a(S'w'
I25
tp731
a(S'p2_tl'
I143
tp732
a(S'w'
I24
tp733
a(S'tr_tl'
I180
tp734
a(S'w'
I687
tp735
a(S'w'
I25
tp736
a(S'p2_tl'
I142
tp737
a(S'w'
I23
tp738
a(S'tr_tl'
I179
tp739
a(S'w'
I684
tp740
a(S'p1_tl'
I119
tp741
a(S'w'
I24
tp742
a(S'w'
I709
tp743
a(S'p1_tl'
I118
tp744
a(S'w'
I25
tp745
a(S'p2_tl'
I141
tp746
a(S'w'
I25
tp747
a(S'tr_tl'
I178
tp748
a(S'w'
I671
tp749
a(S'p1_vo'
I12
tp750
a(S'w'
I14
tp751
a(S'w'
I11
tp752
a(S'p2_vo'
I12
tp753
a(S'w'
I15
tp754
a(S'p2_tl'
I140
tp755
a(S'w'
I10
tp756
a(S'tr_lh'
I0
tp757
a(S'tr_lr'
I0
tp758
a(S'w'
I14
tp759
a(S'tr_tl'
I177
tp760
a(S'w'
I683
tp761
a(S'p1_tl'
I119
tp762
a(S'w'
I26
tp763
a(S'p2_tl'
I141
tp764
a(S'w'
I694
tp765
a(S'p1_vo'
I11
tp766
a(S'w'
I13
tp767
a(S'w'
I12
tp768
a(S'p2_vo'
I11
tp769
a(S'w'
I13
tp770
a(S'p2_tl'
I142
tp771
a(S'w'
I710
tp772
a(S'p1_tl'
I120
tp773
a(S'w'
I26
tp774
a(S'p2_tl'
I143
tp775
a(S'w'
I694
tp776
a(S'p1_vo'
I10
tp777
a(S'w'
I13
tp778
a(S'p1_tl'
I121
tp779
a(S'w'
I12
tp780
a(S'p2_vo'
I10
tp781
a(S'w'
I13
tp782
a(S'w'
I711
tp783
a(S'w'
I27
tp784
a(S'p2_tl'
I144
tp785
a(S'w'
I691
tp786
a(S'p1_vo'
I9
tp787
a(S'w'
I14
tp788
a(S'w'
I11
tp789
a(S'p2_vo'
I9
tp790
a(S'w'
I14
tp791
a(S'p2_tl'
I143
tp792
a(S'w'
I709
tp793
a(S'p1_tl'
I120
tp794
a(S'w'
I26
tp795
a(S'w'
I708
tp796
a(S'p1_tl'
I119
tp797
a(S'w'
I25
tp798
a(S'p2_tl'
I142
tp799
a(S'w'
I695
tp800
a(S'p1_vo'
I8
tp801
a(S'w'
I13
tp802
a(S'p1_tl'
I118
tp803
a(S'w'
I11
tp804
a(S'p2_vo'
I8
tp805
a(S'w'
I13
tp806
a(S'p2_tl'
I141
tp807
a(S'w'
I711
tp808
a(S'w'
I9
tp809
a(S'p1_du'
I0
tp810
a(S'p1_vo'
I0
tp811
a(S'w'
I24
tp812
a(S'p2_tl'
I140
tp813
a(S'w'
I8
tp814
a(S'p2_du'
I0
tp815
a(S'p2_vo'
I0
tp816
a(S'w'
I1
tp817
a.