(lp1
(S'clock'
p2
I1789772
tp3
a(S'p1_lh'
I1
tp4
a(S'p1_cv'
I1
tp5
a(S'p1_sp'
I7
tp6
a(S'p1_sn'
I1
tp7
a(S'p1_ss'
I7
tp8
a(S'p2_lh'
I1
tp9
a(S'p2_cv'
I1
tp10
a(S'p2_sp'
I7
tp11
a(S'p2_sn'
I1
tp12
a(S'p2_ss'
I7
tp13
a(S'tr_lh'
I1
tp14
a(S'no_lh'
I1
tp15
a(S'no_cv'
I1
tp16
a(S'ch_no'
I0
tp17
a(S'ch_tr'
I0
tp18
a(S'ch_p2'
I0
tp19
a(S'ch_p1'
I0
tp20
a(S'fc_mo'
I1
tp21
a(S'ch_no'
I0
tp22
a(S'ch_tr'
I1
tp23
a(S'ch_p2'
I1
tp24
a(S'ch_p1'
I1
tp25
a(S'p1_du'
I2
tp26
a(S'p1_vo'
I3
tp27
a(S'w'
I1
tp28
a(S'p1_tl'
I46
tp29
a(S'p1_ll'
I0
tp30
a(S'p1_th'
I1
tp31
a(S'w'
I1
tp32
a(S'p2_du'
I2
tp33
a(S'p2_vo'
I2
tp34
a(S'p2_tl'
I125
tp35
a(S'w'
I1
tp36
a(S'p2_ll'
I0
tp37
a(S'p2_th'
I1
tp38
a(S'tr_lr'
I127
tp39
a(S'w'
I1
tp40
a(S'tr_tl'
I254
tp41
a(S'tr_ll'
I31
tp42
a(S'w'
I730
tp43
a(S'p1_vo'
I7
tp44
a(S'w'
I1
tp45
a(S'p2_vo'
I5
tp46
a(S'w'
I733
tp47
a(S'p1_vo'
I11
tp48
a(S'w'
I1
tp49
a(S'p2_vo'
I8
tp50
a(S'w'
I733
tp51
a(S'p1_vo'
I15
tp52
a(S'w'
I1
tp53
a(S'p2_vo'
I12
tp54
a(S'w'
I732
tp55
a(S'p1_vo'
I14
tp56
a(S'w'
I1
tp57
a(S'p2_vo'
I11
tp58
a(S'w'
I733
tp59
a(S'p1_vo'
I13
tp60
a(S'w'
I1
tp61
a(S'p2_vo'
I10
tp62
a(S'w'
I733
tp63
a(S'p1_vo'
I12
tp64
a(S'w'
I1
tp65
a(S'p2_vo'
I9
tp66
a(S'w'
I733
tp67
a(S'p1_vo'
I11
tp68
a(S'w'
I1
tp69
a(S'p2_vo'
I8
tp70
a(S'w'
I733
tp71
a(S'p1_vo'
I10
tp72
a(S'w'
I733
tp73
a(S'p1_vo'
I9
tp74
a(S'w'
I1
tp75
a(S'p2_vo'
I7
tp76
a(S'w'
I733
tp77
a(S'p1_vo'
I8
tp78
a(S'w'
I1
tp79
a(S'p2_vo'
I6
tp80
a(S'w'
I733
tp81
a(S'p1_vo'
I7
tp82
a(S'w'
I734
tp83
a(S'p1_vo'
I6
tp84
a(S'w'
I734
tp85
a(S'p1_vo'
I5
tp86
a(S'p2_vo'
I5
tp87
a(S'w'
I733
tp88
a(S'p1_vo'
I4
tp89
a(S'w'
I1
tp90
a(S'p2_vo'
I4
tp91
a(S'w'
I733
tp92
a(S'p1_vo'
I3
tp93
a(S'w'
I1
tp94
a(S'p2_vo'
I3
tp95
a(S'w'
I733
tp96
a(S'p1_vo'
I2
tp97
a(S'w'
I1
tp98
a(S'p2_vo'
I2
tp99
a(S'w'
I733
tp100
a(S'p1_vo'
I1
tp101
a(S'w'
I1
tp102
a(S'p2_vo'
I1
tp103
a(S'w'
I1
tp104
a(S'tr_lr'
I0
tp105
a(S'w'
I732
tp106
a(S'p1_vo'
I3
tp107
a(S'w'
I1
tp108
a(S'p1_ll'
I0
tp109
a(S'p2_vo'
I2
tp110
a(S'w'
I1
tp111
a(S'p2_ll'
I0
tp112
a(S'w'
I1
tp113
a(S'tr_lr'
I127
tp114
a(S'w'
I1
tp115
a(S'tr_ll'
I31
tp116
a(S'w'
I729
tp117
a(S'p1_vo'
I7
tp118
a(S'w'
I1
tp119
a(S'p2_vo'
I5
tp120
a(S'w'
I733
tp121
a(S'p1_vo'
I11
tp122
a(S'w'
I1
tp123
a(S'p2_vo'
I8
tp124
a(S'w'
I733
tp125
a(S'p1_vo'
I15
tp126
a(S'w'
I1
tp127
a(S'p2_vo'
I12
tp128
a(S'w'
I733
tp129
a(S'p1_vo'
I14
tp130
a(S'w'
I1
tp131
a(S'p2_vo'
I11
tp132
a(S'w'
I733
tp133
a(S'p1_vo'
I13
tp134
a(S'p2_vo'
I10
tp135
a(S'w'
I1
tp136
a(S'tr_lr'
I0
tp137
a(S'w'
I732
tp138
a(S'p1_vo'
I3
tp139
a(S'w'
I1
tp140
a(S'p1_ll'
I0
tp141
a(S'w'
I1
tp142
a(S'p2_vo'
I2
tp143
a(S'w'
I1
tp144
a(S'p2_ll'
I0
tp145
a(S'tr_lr'
I127
tp146
a(S'w'
I1
tp147
a(S'tr_ll'
I31
tp148
a(S'w'
I730
tp149
a(S'p1_vo'
I7
tp150
a(S'w'
I1
tp151
a(S'p2_vo'
I5
tp152
a(S'w'
I733
tp153
a(S'p1_vo'
I11
tp154
a(S'w'
I1
tp155
a(S'p2_vo'
I8
tp156
a(S'w'
I733
tp157
a(S'p1_vo'
I15
tp158
a(S'w'
I1
tp159
a(S'p2_vo'
I12
tp160
a(S'w'
I733
tp161
a(S'p1_vo'
I14
tp162
a(S'w'
I1
tp163
a(S'p2_vo'
I11
tp164
a(S'w'
I732
tp165
a(S'p1_vo'
I13
tp166
a(S'w'
I1
tp167
a(S'p2_vo'
I10
tp168
a(S'w'
I733
tp169
a(S'p1_vo'
I12
tp170
a(S'w'
I1
tp171
a(S'p2_vo'
I9
tp172
a(S'w'
I733
tp173
a(S'p1_vo'
I11
tp174
a(S'w'
I1
tp175
a(S'p2_vo'
I8
tp176
a(S'w'
I733
tp177
a(S'p1_vo'
I10
tp178
a(S'w'
I734
tp179
a(S'p1_vo'
I9
tp180
a(S'w'
I1
tp181
a(S'p2_vo'
I7
tp182
a(S'w'
I732
tp183
a(S'p1_vo'
I8
tp184
a(S'w'
I1
tp185
a(S'p2_vo'
I6
tp186
a(S'w'
I733
tp187
a(S'p1_vo'
I7
tp188
a(S'w'
I1
tp189
a(S'p2_vo'
I5
tp190
a(S'w'
I1
tp191
a(S'tr_lr'
I0
tp192
a(S'w'
I732
tp193
a(S'p1_vo'
I3
tp194
a(S'w'
I1
tp195
a(S'p1_ll'
I0
tp196
a(S'w'
I1
tp197
a(S'p2_vo'
I2
tp198
a(S'p2_ll'
I0
tp199
a(S'w'
I1
tp200
a(S'tr_lr'
I127
tp201
a(S'w'
I1
tp202
a(S'tr_ll'
I31
tp203
a(S'w'
I730
tp204
a(S'p1_vo'
I7
tp205
a(S'w'
I1
tp206
a(S'p2_vo'
I5
tp207
a(S'w'
I733
tp208
a(S'p1_vo'
I11
tp209
a(S'p2_vo'
I8
tp210
a(S'w'
I733
tp211
a(S'p1_vo'
I15
tp212
a(S'w'
I1
tp213
a(S'p2_vo'
I12
tp214
a(S'w'
I733
tp215
a(S'p1_vo'
I14
tp216
a(S'w'
I1
tp217
a(S'p2_vo'
I11
tp218
a(S'w'
I733
tp219
a(S'p1_vo'
I13
tp220
a(S'w'
I1
tp221
a(S'p2_vo'
I10
tp222
a(S'w'
I733
tp223
a(S'p1_vo'
I12
tp224
a(S'w'
I1
tp225
a(S'p2_vo'
I9
tp226
a(S'w'
I733
tp227
a(S'p1_vo'
I11
tp228
a(S'w'
I1
tp229
a(S'p2_vo'
I8
tp230
a(S'w'
I732
tp231
a(S'p1_vo'
I10
tp232
a(S'w'
I734
tp233
a(S'p1_vo'
I9
tp234
a(S'w'
I1
tp235
a(S'p2_vo'
I7
tp236
a(S'w'
I733
tp237
a(S'p1_vo'
I8
tp238
a(S'w'
I1
tp239
a(S'p2_vo'
I6
tp240
a(S'w'
I733
tp241
a(S'p1_vo'
I7
tp242
a(S'w'
I1
tp243
a(S'p2_vo'
I5
tp244
a(S'w'
I1
tp245
a(S'tr_lr'
I0
tp246
a(S'w'
I732
tp247
a(S'p1_vo'
I3
tp248
a(S'p1_tl'
I125
tp249
a(S'w'
I1
tp250
a(S'p1_ll'
I0
tp251
a(S'p2_vo'
I2
tp252
a(S'w'
I1
tp253
a(S'p2_tl'
I252
tp254
a(S'p2_ll'
I0
tp255
a(S'w'
I1
tp256
a(S'tr_lr'
I127
tp257
a(S'tr_tl'
I46
tp258
a(S'w'
I1
tp259
a(S'tr_ll'
I31
tp260
a(S'tr_th'
I1
tp261
a(S'w'
I729
tp262
a(S'p1_vo'
I7
tp263
a(S'w'
I1
tp264
a(S'p2_vo'
I5
tp265
a(S'w'
I733
tp266
a(S'p1_vo'
I11
tp267
a(S'w'
I1
tp268
a(S'p2_vo'
I8
tp269
a(S'w'
I733
tp270
a(S'p1_vo'
I15
tp271
a(S'w'
I1
tp272
a(S'p2_vo'
I12
tp273
a(S'w'
I733
tp274
a(S'p1_vo'
I14
tp275
a(S'w'
I1
tp276
a(S'p2_vo'
I11
tp277
a(S'w'
I733
tp278
a(S'p1_vo'
I13
tp279
a(S'w'
I1
tp280
a(S'p2_vo'
I10
tp281
a(S'w'
I733
tp282
a(S'p1_vo'
I12
tp283
a(S'p2_vo'
I9
tp284
a(S'w'
I733
tp285
a(S'p1_vo'
I11
tp286
a(S'w'
I1
tp287
a(S'p2_vo'
I8
tp288
a(S'w'
I733
tp289
a(S'p1_vo'
I10
tp290
a(S'w'
I734
tp291
a(S'p1_vo'
I9
tp292
a(S'w'
I1
tp293
a(S'p2_vo'
I7
tp294
a(S'w'
I733
tp295
a(S'p1_vo'
I8
tp296
a(S'w'
I1
tp297
a(S'p2_vo'
I6
tp298
a(S'w'
I732
tp299
a(S'p1_vo'
I7
tp300
a(S'w'
I1
tp301
a(S'p2_vo'
I5
tp302
a(S'w'
I1
tp303
a(S'tr_lr'
I0
tp304
a(S'w'
I732
tp305
a(S'p1_vo'
I3
tp306
a(S'w'
I1
tp307
a(S'p1_tl'
I46
tp308
a(S'p1_ll'
I0
tp309
a(S'w'
I1
tp310
a(S'p2_vo'
I2
tp311
a(S'p2_tl'
I125
tp312
a(S'w'
I1
tp313
a(S'p2_ll'
I0
tp314
a(S'tr_lr'
I127
tp315
a(S'w'
I1
tp316
a(S'tr_tl'
I254
tp317
a(S'tr_ll'
I31
tp318
a(S'tr_th'
I0
tp319
a(S'w'
I730
tp320
a(S'p1_vo'
I7
tp321
a(S'w'
I1
tp322
a(S'p2_vo'
I5
tp323
a(S'w'
I733
tp324
a(S'p1_vo'
I11
tp325
a(S'w'
I1
tp326
a(S'p2_vo'
I8
tp327
a(S'w'
I733
tp328
a(S'p1_vo'
I15
tp329
a(S'w'
I1
tp330
a(S'p2_vo'
I12
tp331
a(S'w'
I732
tp332
a(S'p1_vo'
I14
tp333
a(S'w'
I1
tp334
a(S'p2_vo'
I11
tp335
a(S'w'
I733
tp336
a(S'p1_vo'
I13
tp337
a(S'w'
I1
tp338
a(S'p2_vo'
I10
tp339
a(S'w'
I733
tp340
a(S'p1_vo'
I12
tp341
a(S'w'
I1
tp342
a(S'p2_vo'
I9
tp343
a(S'w'
I733
tp344
a(S'p1_vo'
I11
tp345
a(S'w'
I1
tp346
a(S'p2_vo'
I8
tp347
a(S'w'
I733
tp348
a(S'p1_vo'
I10
tp349
a(S'w'
I733
tp350
a(S'p1_vo'
I9
tp351
a(S'w'
I1
tp352
a(S'p2_vo'
I7
tp353
a(S'w'
I733
tp354
a(S'p1_vo'
I8
tp355
a(S'w'
I1
tp356
a(S'p2_vo'
I6
tp357
a(S'w'
I733
tp358
a(S'p1_vo'
I7
tp359
a(S'w'
I1
tp360
a(S'p2_vo'
I5
tp361
a(S'w'
I1
tp362
a(S'tr_lr'
I0
tp363
a(S'w'
I732
tp364
a(S'p1_vo'
I3
tp365
a(S'w'
I1
tp366
a(S'p1_tl'
I254
tp367
a(S'p1_ll'
I0
tp368
a(S'p1_th'
I0
tp369
a(S'p2_vo'
I2
tp370
a(S'w'
I1
tp371
a(S'p2_tl'
I46
tp372
a(S'p2_ll'
I0
tp373
a(S'w'
I1
tp374
a(S'tr_lr'
I127
tp375
a(S'w'
I1
tp376
a(S'tr_tl'
I190
tp377
a(S'tr_ll'
I31
tp378
a(S'w'
I730
tp379
a(S'p1_vo'
I7
tp380
a(S'w'
I1
tp381
a(S'p2_vo'
I5
tp382
a(S'w'
I733
tp383
a(S'p1_vo'
I11
tp384
a(S'p2_vo'
I8
tp385
a(S'w'
I733
tp386
a(S'p1_vo'
I15
tp387
a(S'w'
I1
tp388
a(S'p2_vo'
I12
tp389
a(S'w'
I733
tp390
a(S'p1_vo'
I14
tp391
a(S'w'
I1
tp392
a(S'p2_vo'
I11
tp393
a(S'w'
I733
tp394
a(S'p1_vo'
I13
tp395
a(S'w'
I1
tp396
a(S'p2_vo'
I10
tp397
a(S'w'
I733
tp398
a(S'p1_vo'
I12
tp399
a(S'w'
I1
tp400
a(S'p2_vo'
I9
tp401
a(S'w'
I733
tp402
a(S'p1_vo'
I11
tp403
a(S'p2_vo'
I8
tp404
a(S'w'
I733
tp405
a(S'p1_vo'
I10
tp406
a(S'w'
I734
tp407
a(S'p1_vo'
I9
tp408
a(S'w'
I1
tp409
a(S'p2_vo'
I7
tp410
a(S'w'
I733
tp411
a(S'p1_vo'
I8
tp412
a(S'w'
I1
tp413
a(S'p2_vo'
I6
tp414
a(S'w'
I733
tp415
a(S'p1_vo'
I7
tp416
a(S'w'
I1
tp417
a(S'p2_vo'
I5
tp418
a(S'w'
I1
tp419
a(S'tr_lr'
I0
tp420
a(S'w'
I731
tp421
a(S'p1_vo'
I3
tp422
a(S'w'
I1
tp423
a(S'p1_tl'
I46
tp424
a(S'p1_ll'
I0
tp425
a(S'p1_th'
I1
tp426
a(S'w'
I1
tp427
a(S'p2_vo'
I2
tp428
a(S'w'
I1
tp429
a(S'p2_tl'
I125
tp430
a(S'p2_ll'
I0
tp431
a(S'w'
I1
tp432
a(S'tr_lr'
I127
tp433
a(S'tr_tl'
I254
tp434
a(S'tr_ll'
I31
tp435
a(S'w'
I730
tp436
a(S'p1_vo'
I7
tp437
a(S'w'
I1
tp438
a(S'p2_vo'
I5
tp439
a(S'w'
I733
tp440
a(S'p1_vo'
I11
tp441
a(S'w'
I1
tp442
a(S'p2_vo'
I8
tp443
a(S'w'
I733
tp444
a(S'p1_vo'
I15
tp445
a(S'w'
I1
tp446
a(S'p2_vo'
I12
tp447
a(S'w'
I733
tp448
a(S'p1_vo'
I14
tp449
a(S'w'
I1
tp450
a(S'p2_vo'
I11
tp451
a(S'w'
I733
tp452
a(S'p1_vo'
I13
tp453
a(S'p2_vo'
I10
tp454
a(S'w'
I733
tp455
a(S'p1_vo'
I12
tp456
a(S'w'
I1
tp457
a(S'p2_vo'
I9
tp458
a(S'w'
I733
tp459
a(S'p1_vo'
I11
tp460
a(S'w'
I1
tp461
a(S'p2_vo'
I8
tp462
a(S'w'
I733
tp463
a(S'p1_vo'
I10
tp464
a(S'w'
I734
tp465
a(S'p1_vo'
I9
tp466
a(S'w'
I1
tp467
a(S'p2_vo'
I7
tp468
a(S'w'
I733
tp469
a(S'p1_vo'
I8
tp470
a(S'p2_vo'
I6
tp471
a(S'w'
I733
tp472
a(S'p1_vo'
I7
tp473
a(S'w'
I1
tp474
a(S'p2_vo'
I5
tp475
a(S'w'
I1
tp476
a(S'tr_lr'
I0
tp477
a(S'w'
I732
tp478
a(S'p1_vo'
I3
tp479
a(S'w'
I1
tp480
a(S'p1_tl'
I254
tp481
a(S'p1_ll'
I0
tp482
a(S'p1_th'
I0
tp483
a(S'w'
I1
tp484
a(S'p2_vo'
I2
tp485
a(S'p2_tl'
I46
tp486
a(S'w'
I1
tp487
a(S'p2_ll'
I0
tp488
a(S'tr_lr'
I127
tp489
a(S'w'
I1
tp490
a(S'tr_tl'
I190
tp491
a(S'tr_ll'
I31
tp492
a(S'w'
I730
tp493
a(S'p1_vo'
I7
tp494
a(S'w'
I1
tp495
a(S'p2_vo'
I5
tp496
a(S'w'
I733
tp497
a(S'p1_vo'
I11
tp498
a(S'w'
I1
tp499
a(S'p2_vo'
I8
tp500
a(S'w'
I732
tp501
a(S'p1_vo'
I15
tp502
a(S'w'
I1
tp503
a(S'p2_vo'
I12
tp504
a(S'w'
I733
tp505
a(S'p1_vo'
I14
tp506
a(S'w'
I1
tp507
a(S'p2_vo'
I11
tp508
a(S'w'
I733
tp509
a(S'p1_vo'
I13
tp510
a(S'w'
I1
tp511
a(S'p2_vo'
I10
tp512
a(S'w'
I733
tp513
a(S'p1_vo'
I12
tp514
a(S'w'
I1
tp515
a(S'p2_vo'
I9
tp516
a(S'w'
I733
tp517
a(S'p1_vo'
I11
tp518
a(S'w'
I1
tp519
a(S'p2_vo'
I8
tp520
a(S'w'
I733
tp521
a(S'p1_vo'
I10
tp522
a(S'w'
I733
tp523
a(S'p1_vo'
I9
tp524
a(S'w'
I1
tp525
a(S'p2_vo'
I7
tp526
a(S'w'
I733
tp527
a(S'p1_vo'
I8
tp528
a(S'w'
I1
tp529
a(S'p2_vo'
I6
tp530
a(S'w'
I733
tp531
a(S'p1_vo'
I7
tp532
a(S'w'
I1
tp533
a(S'p2_vo'
I5
tp534
a(S'w'
I1
tp535
a(S'tr_lr'
I0
tp536
a(S'w'
I732
tp537
a(S'p1_vo'
I3
tp538
a(S'p1_tl'
I240
tp539
a(S'w'
I1
tp540
a(S'p1_ll'
I0
tp541
a(S'p2_vo'
I2
tp542
a(S'w'
I1
tp543
a(S'p2_tl'
I64
tp544
a(S'p2_ll'
I0
tp545
a(S'w'
I1
tp546
a(S'tr_lr'
I127
tp547
a(S'w'
I1
tp548
a(S'tr_ll'
I31
tp549
a(S'w'
I730
tp550
a(S'p1_vo'
I7
tp551
a(S'w'
I1
tp552
a(S'p2_vo'
I5
tp553
a(S'w'
I732
tp554
a(S'p1_vo'
I11
tp555
a(S'w'
I1
tp556
a(S'p2_vo'
I8
tp557
a(S'w'
I733
tp558
a(S'p1_vo'
I15
tp559
a(S'w'
I1
tp560
a(S'p2_vo'
I12
tp561
a(S'w'
I733
tp562
a(S'p1_vo'
I14
tp563
a(S'w'
I1
tp564
a(S'p2_vo'
I11
tp565
a(S'w'
I733
tp566
a(S'p1_vo'
I13
tp567
a(S'w'
I1
tp568
a(S'p2_vo'
I10
tp569
a(S'w'
I732
tp570
a(S'p1_vo'
I12
tp571
a(S'w'
I1
tp572
a(S'p2_vo'
I9
tp573
a(S'w'
I733
tp574
a(S'p1_vo'
I11
tp575
a(S'w'
I1
tp576
a(S'p2_vo'
I8
tp577
a(S'w'
I733
tp578
a(S'p1_vo'
I10
tp579
a(S'w'
I734
tp580
a(S'p1_vo'
I9
tp581
a(S'w'
I1
tp582
a(S'p2_vo'
I7
tp583
a(S'w'
I733
tp584
a(S'p1_vo'
I8
tp585
a(S'w'
I1
tp586
a(S'p2_vo'
I6
tp587
a(S'w'
I732
tp588
a(S'p1_vo'
I7
tp589
a(S'w'
I1
tp590
a(S'p2_vo'
I5
tp591
a(S'w'
I1
tp592
a(S'tr_lr'
I0
tp593
a(S'w'
I732
tp594
a(S'p1_vo'
I3
tp595
a(S'w'
I1
tp596
a(S'p1_tl'
I64
tp597
a(S'p1_ll'
I0
tp598
a(S'p1_th'
I1
tp599
a(S'w'
I1
tp600
a(S'p2_vo'
I2
tp601
a(S'w'
I1
tp602
a(S'p2_tl'
I125
tp603
a(S'p2_ll'
I0
tp604
a(S'tr_lr'
I127
tp605
a(S'w'
I1
tp606
a(S'tr_tl'
I240
tp607
a(S'tr_ll'
I31
tp608
a(S'w'
I730
tp609
a(S'p1_vo'
I7
tp610
a(S'w'
I1
tp611
a(S'p2_vo'
I5
tp612
a(S'w'
I733
tp613
a(S'p1_vo'
I11
tp614
a(S'w'
I1
tp615
a(S'p2_vo'
I8
tp616
a(S'w'
I733
tp617
a(S'p1_vo'
I15
tp618
a(S'w'
I1
tp619
a(S'p2_vo'
I12
tp620
a(S'w'
I732
tp621
a(S'p1_vo'
I14
tp622
a(S'w'
I1
tp623
a(S'p2_vo'
I11
tp624
a(S'w'
I733
tp625
a(S'p1_vo'
I13
tp626
a(S'w'
I1
tp627
a(S'p2_vo'
I10
tp628
a(S'w'
I733
tp629
a(S'p1_vo'
I12
tp630
a(S'w'
I1
tp631
a(S'p2_vo'
I9
tp632
a(S'w'
I733
tp633
a(S'p1_vo'
I11
tp634
a(S'w'
I1
tp635
a(S'p2_vo'
I8
tp636
a(S'w'
I733
tp637
a(S'p1_vo'
I10
tp638
a(S'w'
I734
tp639
a(S'p1_vo'
I9
tp640
a(S'p2_vo'
I7
tp641
a(S'w'
I733
tp642
a(S'p1_vo'
I8
tp643
a(S'w'
I1
tp644
a(S'p2_vo'
I6
tp645
a(S'w'
I733
tp646
a(S'p1_vo'
I7
tp647
a(S'w'
I1
tp648
a(S'p2_vo'
I5
tp649
a(S'w'
I1
tp650
a(S'tr_lr'
I0
tp651
a(S'w'
I732
tp652
a(S'p1_vo'
I3
tp653
a(S'w'
I1
tp654
a(S'p1_tl'
I240
tp655
a(S'p1_ll'
I0
tp656
a(S'p1_th'
I0
tp657
a(S'p2_vo'
I2
tp658
a(S'w'
I1
tp659
a(S'p2_tl'
I64
tp660
a(S'p2_ll'
I0
tp661
a(S'w'
I1
tp662
a(S'tr_lr'
I127
tp663
a(S'w'
I1
tp664
a(S'tr_tl'
I190
tp665
a(S'tr_ll'
I31
tp666
a(S'w'
I730
tp667
a(S'p1_vo'
I7
tp668
a(S'w'
I1
tp669
a(S'p2_vo'
I5
tp670
a(S'w'
I733
tp671
a(S'p1_vo'
I11
tp672
a(S'w'
I1
tp673
a(S'p2_vo'
I8
tp674
a(S'w'
I732
tp675
a(S'p1_vo'
I15
tp676
a(S'w'
I1
tp677
a(S'p2_vo'
I12
tp678
a(S'w'
I733
tp679
a(S'p1_vo'
I14
tp680
a(S'w'
I1
tp681
a(S'p2_vo'
I11
tp682
a(S'w'
I733
tp683
a(S'p1_vo'
I13
tp684
a(S'w'
I1
tp685
a(S'p2_vo'
I10
tp686
a(S'w'
I733
tp687
a(S'p1_vo'
I12
tp688
a(S'w'
I1
tp689
a(S'p2_vo'
I9
tp690
a(S'w'
I733
tp691
a(S'p1_vo'
I11
tp692
a(S'p2_vo'
I8
tp693
a(S'w'
I733
tp694
a(S'p1_vo'
I10
tp695
a(S'w'
I734
tp696
a(S'p1_vo'
I9
tp697
a(S'w'
I1
tp698
a(S'p2_vo'
I7
tp699
a(S'w'
I733
tp700
a(S'p1_vo'
I8
tp701
a(S'w'
I1
tp702
a(S'p2_vo'
I6
tp703
a(S'w'
I733
tp704
a(S'p1_vo'
I7
tp705
a(S'w'
I1
tp706
a(S'p2_vo'
I5
tp707
a(S'w'
I1
tp708
a(S'tr_lr'
I0
tp709
a(S'w'
I732
tp710
a(S'p1_vo'
I3
tp711
a(S'p1_tl'
I190
tp712
a(S'p1_ll'
I0
tp713
a(S'w'
I1
tp714
a(S'p2_vo'
I2
tp715
a(S'w'
I1
tp716
a(S'p2_tl'
I46
tp717
a(S'p2_ll'
I0
tp718
a(S'w'
I1
tp719
a(S'tr_lr'
I127
tp720
a(S'w'
I1
tp721
a(S'tr_ll'
I31
tp722
a(S'w'
I729
tp723
a(S'p1_vo'
I7
tp724
a(S'w'
I1
tp725
a(S'p2_vo'
I5
tp726
a(S'w'
I733
tp727
a(S'p1_vo'
I11
tp728
a(S'w'
I1
tp729
a(S'p2_vo'
I8
tp730
a(S'w'
I733
tp731
a(S'p1_vo'
I15
tp732
a(S'w'
I1
tp733
a(S'p2_vo'
I12
tp734
a(S'w'
I733
tp735
a(S'p1_vo'
I14
tp736
a(S'w'
I1
tp737
a(S'p2_vo'
I11
tp738
a(S'w'
I733
tp739
a(S'p1_vo'
I13
tp740
a(S'p2_vo'
I10
tp741
a(S'w'
I733
tp742
a(S'p1_vo'
I12
tp743
a(S'w'
I1
tp744
a(S'p2_vo'
I9
tp745
a(S'w'
I733
tp746
a(S'p1_vo'
I11
tp747
a(S'w'
I1
tp748
a(S'p2_vo'
I8
tp749
a(S'w'
I733
tp750
a(S'p1_vo'
I10
tp751
a(S'w'
I734
tp752
a(S'p1_vo'
I9
tp753
a(S'w'
I1
tp754
a(S'p2_vo'
I7
tp755
a(S'w'
I733
tp756
a(S'p1_vo'
I8
tp757
a(S'w'
I1
tp758
a(S'p2_vo'
I6
tp759
a(S'w'
I732
tp760
a(S'p1_vo'
I7
tp761
a(S'w'
I734
tp762
a(S'p1_vo'
I6
tp763
a(S'w'
I734
tp764
a(S'p1_vo'
I5
tp765
a(S'w'
I1
tp766
a(S'p2_vo'
I5
tp767
a(S'w'
I733
tp768
a(S'p1_vo'
I4
tp769
a(S'w'
I1
tp770
a(S'p2_vo'
I4
tp771
a(S'w'
I733
tp772
a(S'p1_vo'
I3
tp773
a(S'p2_vo'
I3
tp774
a(S'w'
I733
tp775
a(S'p1_vo'
I2
tp776
a(S'w'
I1
tp777
a(S'p2_vo'
I2
tp778
a(S'w'
I733
tp779
a(S'p1_vo'
I1
tp780
a(S'w'
I1
tp781
a(S'p2_vo'
I1
tp782
a(S'w'
I1
tp783
a(S'tr_lr'
I0
tp784
a(S'w'
I732
tp785
a(S'p1_vo'
I3
tp786
a(S'w'
I1
tp787
a(S'p1_tl'
I169
tp788
a(S'p1_ll'
I0
tp789
a(S'w'
I1
tp790
a(S'p2_vo'
I2
tp791
a(S'p2_tl'
I226
tp792
a(S'p2_ll'
I0
tp793
a(S'p2_th'
I0
tp794
a(S'w'
I1
tp795
a(S'tr_lr'
I127
tp796
a(S'w'
I1
tp797
a(S'tr_tl'
I13
tp798
a(S'tr_ll'
I31
tp799
a(S'tr_th'
I1
tp800
a(S'w'
I730
tp801
a(S'p1_vo'
I7
tp802
a(S'w'
I1
tp803
a(S'p2_vo'
I5
tp804
a(S'w'
I733
tp805
a(S'p1_vo'
I11
tp806
a(S'w'
I1
tp807
a(S'p2_vo'
I8
tp808
a(S'w'
I732
tp809
a(S'p1_vo'
I15
tp810
a(S'w'
I1
tp811
a(S'p2_vo'
I12
tp812
a(S'w'
I733
tp813
a(S'p1_vo'
I14
tp814
a(S'w'
I1
tp815
a(S'p2_vo'
I11
tp816
a(S'w'
I733
tp817
a(S'p1_vo'
I13
tp818
a(S'w'
I1
tp819
a(S'p2_vo'
I10
tp820
a(S'w'
I733
tp821
a(S'p1_vo'
I12
tp822
a(S'w'
I1
tp823
a(S'p2_vo'
I9
tp824
a(S'w'
I733
tp825
a(S'p1_vo'
I11
tp826
a(S'w'
I1
tp827
a(S'p2_vo'
I8
tp828
a(S'w'
I732
tp829
a(S'p1_vo'
I10
tp830
a(S'w'
I734
tp831
a(S'p1_vo'
I9
tp832
a(S'w'
I1
tp833
a(S'p2_vo'
I7
tp834
a(S'w'
I733
tp835
a(S'p1_vo'
I8
tp836
a(S'w'
I1
tp837
a(S'p2_vo'
I6
tp838
a(S'w'
I733
tp839
a(S'p1_vo'
I7
tp840
a(S'w'
I734
tp841
a(S'p1_vo'
I6
tp842
a(S'w'
I733
tp843
a(S'p1_vo'
I5
tp844
a(S'w'
I1
tp845
a(S'p2_vo'
I5
tp846
a(S'w'
I733
tp847
a(S'p1_vo'
I4
tp848
a(S'w'
I1
tp849
a(S'p2_vo'
I4
tp850
a(S'w'
I733
tp851
a(S'p1_vo'
I3
tp852
a(S'w'
I1
tp853
a(S'p2_vo'
I3
tp854
a(S'w'
I733
tp855
a(S'p1_vo'
I2
tp856
a(S'w'
I1
tp857
a(S'p2_vo'
I2
tp858
a(S'w'
I733
tp859
a(S'p1_vo'
I1
tp860
a(S'w'
I1
tp861
a(S'p2_vo'
I1
tp862
a(S'w'
I1
tp863
a(S'tr_lr'
I0
tp864
a(S'w'
I731
tp865
a(S'p1_vo'
I3
tp866
a(S'w'
I1
tp867
a(S'p1_tl'
I151
tp868
a(S'p1_ll'
I0
tp869
a(S'w'
I1
tp870
a(S'p2_vo'
I2
tp871
a(S'w'
I1
tp872
a(S'p2_tl'
I240
tp873
a(S'p2_ll'
I0
tp874
a(S'tr_lr'
I127
tp875
a(S'w'
I1
tp876
a(S'tr_tl'
I46
tp877
a(S'tr_ll'
I31
tp878
a(S'w'
I730
tp879
a(S'p1_vo'
I7
tp880
a(S'w'
I1
tp881
a(S'p2_vo'
I5
tp882
a(S'w'
I733
tp883
a(S'p1_vo'
I11
tp884
a(S'w'
I1
tp885
a(S'p2_vo'
I8
tp886
a(S'w'
I733
tp887
a(S'p1_vo'
I15
tp888
a(S'w'
I1
tp889
a(S'p2_vo'
I12
tp890
a(S'w'
I733
tp891
a(S'p1_vo'
I14
tp892
a(S'w'
I1
tp893
a(S'p2_vo'
I11
tp894
a(S'w'
I732
tp895
a(S'p1_vo'
I13
tp896
a(S'w'
I1
tp897
a(S'p2_vo'
I10
tp898
a(S'w'
I733
tp899
a(S'p1_vo'
I12
tp900
a(S'w'
I1
tp901
a(S'p2_vo'
I9
tp902
a(S'w'
I733
tp903
a(S'p1_vo'
I11
tp904
a(S'w'
I1
tp905
a(S'p2_vo'
I8
tp906
a(S'w'
I733
tp907
a(S'p1_vo'
I10
tp908
a(S'w'
I734
tp909
a(S'p1_vo'
I9
tp910
a(S'w'
I1
tp911
a(S'p2_vo'
I7
tp912
a(S'w'
I732
tp913
a(S'p1_vo'
I8
tp914
a(S'w'
I1
tp915
a(S'p2_vo'
I6
tp916
a(S'w'
I66775
tp917
a(S'p1_vo'
I7
tp918
a(S'w'
I734
tp919
a(S'p1_vo'
I6
tp920
a(S'w'
I734
tp921
a(S'p1_vo'
I5
tp922
a(S'w'
I1
tp923
a(S'p2_vo'
I5
tp924
a(S'w'
I733
tp925
a(S'p1_vo'
I4
tp926
a(S'w'
I1
tp927
a(S'p2_vo'
I4
tp928
a(S'w'
I733
tp929
a(S'p1_vo'
I3
tp930
a(S'w'
I1
tp931
a(S'p2_vo'
I3
tp932
a(S'w'
I732
tp933
a(S'p1_vo'
I2
tp934
a(S'w'
I1
tp935
a(S'p2_vo'
I2
tp936
a(S'w'
I733
tp937
a(S'p1_vo'
I1
tp938
a(S'w'
I1
tp939
a(S'p2_vo'
I1
tp940
a(S'w'
I1
tp941
a(S'tr_lr'
I0
tp942
a(S'w'
I732
tp943
a(S'ch_no'
I0
tp944
a(S'ch_tr'
I0
tp945
a(S'ch_p2'
I0
tp946
a(S'ch_p1'
I0
tp947
a(S'p1_du'
I0
tp948
a(S'p1_vo'
I0
tp949
a(S'w'
I1
tp950
a(S'p2_du'
I0
tp951
a(S'p2_vo'
I0
tp952
a(S'w'
I1
tp953
a.