(lp1
(S'clock'
p2
I1789772
tp3
a(S'p1_lh'
I1
tp4
a(S'p1_cv'
I1
tp5
a(S'p1_sp'
I7
tp6
a(S'p1_sn'
I1
tp7
a(S'p1_ss'
I7
tp8
a(S'p2_lh'
I1
tp9
a(S'p2_cv'
I1
tp10
a(S'p2_sp'
I7
tp11
a(S'p2_sn'
I1
tp12
a(S'p2_ss'
I7
tp13
a(S'tr_lh'
I1
tp14
a(S'no_lh'
I1
tp15
a(S'no_cv'
I1
tp16
a(S'ch_no'
I0
tp17
a(S'ch_tr'
I0
tp18
a(S'ch_p2'
I0
tp19
a(S'ch_p1'
I0
tp20
a(S'fc_mo'
I1
tp21
a(S'ch_no'
I0
tp22
a(S'ch_tr'
I1
tp23
a(S'ch_p2'
I1
tp24
a(S'ch_p1'
I1
tp25
a(S'w'
I1
tp26
a(S'p1_du'
I2
tp27
a(S'p1_vo'
I3
tp28
a(S'p1_tl'
I147
tp29
a(S'p1_ll'
I0
tp30
a(S'p1_th'
I1
tp31
a(S'w'
I1
tp32
a(S'p2_du'
I2
tp33
a(S'p2_vo'
I2
tp34
a(S'w'
I1
tp35
a(S'p2_tl'
I197
tp36
a(S'p2_ll'
I0
tp37
a(S'p2_th'
I1
tp38
a(S'w'
I1
tp39
a(S'tr_lr'
I127
tp40
a(S'tr_tl'
I29
tp41
a(S'w'
I1
tp42
a(S'tr_ll'
I31
tp43
a(S'tr_th'
I1
tp44
a(S'w'
I729
tp45
a(S'p1_vo'
I7
tp46
a(S'w'
I1
tp47
a(S'p2_vo'
I5
tp48
a(S'w'
I733
tp49
a(S'p1_vo'
I11
tp50
a(S'w'
I1
tp51
a(S'p2_vo'
I8
tp52
a(S'w'
I733
tp53
a(S'p1_vo'
I15
tp54
a(S'w'
I1
tp55
a(S'p2_vo'
I12
tp56
a(S'w'
I733
tp57
a(S'p1_vo'
I14
tp58
a(S'w'
I1
tp59
a(S'p2_vo'
I11
tp60
a(S'w'
I733
tp61
a(S'p1_vo'
I13
tp62
a(S'p2_vo'
I10
tp63
a(S'w'
I733
tp64
a(S'p1_vo'
I3
tp65
a(S'w'
I1
tp66
a(S'p1_tl'
I64
tp67
a(S'p1_ll'
I0
tp68
a(S'w'
I1
tp69
a(S'p2_vo'
I9
tp70
a(S'w'
I732
tp71
a(S'p1_vo'
I7
tp72
a(S'w'
I1
tp73
a(S'p2_vo'
I8
tp74
a(S'w'
I733
tp75
a(S'p1_vo'
I11
tp76
a(S'w'
I734
tp77
a(S'p1_vo'
I15
tp78
a(S'w'
I1
tp79
a(S'p2_vo'
I7
tp80
a(S'w'
I733
tp81
a(S'p1_vo'
I14
tp82
a(S'p2_vo'
I6
tp83
a(S'w'
I733
tp84
a(S'p1_vo'
I13
tp85
a(S'w'
I734
tp86
a(S'p1_vo'
I3
tp87
a(S'w'
I1
tp88
a(S'p1_tl'
I226
tp89
a(S'p1_ll'
I0
tp90
a(S'p1_th'
I0
tp91
a(S'w'
I733
tp92
a(S'p1_vo'
I7
tp93
a(S'w'
I1
tp94
a(S'p2_vo'
I5
tp95
a(S'w'
I733
tp96
a(S'p1_vo'
I11
tp97
a(S'w'
I1
tp98
a(S'p2_vo'
I4
tp99
a(S'w'
I733
tp100
a(S'p1_vo'
I15
tp101
a(S'p2_vo'
I3
tp102
a(S'w'
I733
tp103
a(S'p1_vo'
I14
tp104
a(S'w'
I1
tp105
a(S'p2_vo'
I2
tp106
a(S'w'
I733
tp107
a(S'p1_vo'
I13
tp108
a(S'w'
I1
tp109
a(S'p2_vo'
I1
tp110
a(S'w'
I1
tp111
a(S'tr_lr'
I0
tp112
a(S'w'
I732
tp113
a(S'p1_vo'
I3
tp114
a(S'w'
I1
tp115
a(S'p1_tl'
I201
tp116
a(S'p1_ll'
I0
tp117
a(S'w'
I1
tp118
a(S'p2_vo'
I2
tp119
a(S'p2_tl'
I226
tp120
a(S'p2_ll'
I0
tp121
a(S'p2_th'
I0
tp122
a(S'w'
I1
tp123
a(S'tr_lr'
I127
tp124
a(S'w'
I1
tp125
a(S'tr_tl'
I142
tp126
a(S'tr_ll'
I31
tp127
a(S'tr_th'
I0
tp128
a(S'w'
I730
tp129
a(S'p1_vo'
I7
tp130
a(S'w'
I1
tp131
a(S'p2_vo'
I5
tp132
a(S'w'
I733
tp133
a(S'p1_vo'
I11
tp134
a(S'p2_vo'
I8
tp135
a(S'w'
I733
tp136
a(S'p1_vo'
I15
tp137
a(S'w'
I1
tp138
a(S'p2_vo'
I12
tp139
a(S'w'
I733
tp140
a(S'p1_vo'
I14
tp141
a(S'w'
I1
tp142
a(S'p2_vo'
I11
tp143
a(S'w'
I733
tp144
a(S'p1_vo'
I13
tp145
a(S'w'
I1
tp146
a(S'p2_vo'
I10
tp147
a(S'w'
I733
tp148
a(S'p1_vo'
I12
tp149
a(S'w'
I1
tp150
a(S'p2_vo'
I9
tp151
a(S'w'
I733
tp152
a(S'p1_vo'
I11
tp153
a(S'w'
I1
tp154
a(S'p2_vo'
I8
tp155
a(S'w'
I732
tp156
a(S'p1_vo'
I10
tp157
a(S'w'
I734
tp158
a(S'p1_vo'
I9
tp159
a(S'w'
I1
tp160
a(S'p2_vo'
I7
tp161
a(S'w'
I733
tp162
a(S'p1_vo'
I8
tp163
a(S'w'
I1
tp164
a(S'p2_vo'
I6
tp165
a(S'w'
I53567
tp166
a(S'p1_vo'
I7
tp167
a(S'w'
I733
tp168
a(S'p1_vo'
I6
tp169
a(S'w'
I734
tp170
a(S'p1_vo'
I5
tp171
a(S'w'
I1
tp172
a(S'p2_vo'
I5
tp173
a(S'w'
I733
tp174
a(S'p1_vo'
I4
tp175
a(S'w'
I1
tp176
a(S'p2_vo'
I4
tp177
a(S'w'
I733
tp178
a(S'p1_vo'
I3
tp179
a(S'w'
I1
tp180
a(S'p2_vo'
I3
tp181
a(S'w'
I733
tp182
a(S'p1_vo'
I2
tp183
a(S'p2_vo'
I2
tp184
a(S'w'
I733
tp185
a(S'p1_vo'
I1
tp186
a(S'w'
I1
tp187
a(S'p2_vo'
I1
tp188
a(S'w'
I1
tp189
a(S'tr_lr'
I0
tp190
a(S'w'
I732
tp191
a(S'ch_no'
I0
tp192
a(S'ch_tr'
I0
tp193
a(S'ch_p2'
I0
tp194
a(S'ch_p1'
I0
tp195
a(S'p1_du'
I0
tp196
a(S'p1_vo'
I0
tp197
a(S'w'
I1
tp198
a(S'p2_du'
I0
tp199
a(S'p2_vo'
I0
tp200
a(S'w'
I1
tp201
a.