(lp1
(S'clock'
p2
I1789773
tp3
a(S'fc_mo'
I1
tp4
a(S'no_cv'
I1
tp5
a(S'tr_lr'
I16
tp6
a(S'p2_cv'
I1
tp7
a(S'p1_cv'
I1
tp8
a(S'w'
I7
tp9
a(S'p1_du'
I3
tp10
a(S'p1_lh'
I1
tp11
a(S'p1_cv'
I0
tp12
a(S'p1_vo'
I1
tp13
a(S'w'
I1
tp14
a(S'p1_se'
I1
tp15
a(S'p1_sp'
I2
tp16
a(S'p1_tl'
I82
tp17
a(S'p1_ll'
I1
tp18
a(S'p1_th'
I1
tp19
a(S'w'
I7322
tp20
a(S'p1_tl'
I226
tp21
a(S'w'
I1
tp22
a(S'p1_ll'
I1
tp23
a(S'p1_th'
I0
tp24
a(S'w'
I7325
tp25
a(S'p1_tl'
I169
tp26
a(S'w'
I1
tp27
a(S'p1_ll'
I1
tp28
a(S'w'
I7325
tp29
a(S'p1_tl'
I226
tp30
a(S'w'
I1
tp31
a(S'p1_ll'
I1
tp32
a(S'w'
I7325
tp33
a(S'p1_tl'
I179
tp34
a(S'w'
I1
tp35
a(S'p1_ll'
I1
tp36
a(S'w'
I7325
tp37
a(S'p1_tl'
I169
tp38
a(S'w'
I1
tp39
a(S'p1_ll'
I1
tp40
a(S'w'
I7325
tp41
a(S'p1_tl'
I179
tp42
a(S'w'
I1
tp43
a(S'p1_ll'
I1
tp44
a(S'w'
I7325
tp45
a(S'p1_tl'
I226
tp46
a(S'w'
I1
tp47
a(S'p1_ll'
I1
tp48
a(S'w'
I7327
tp49
a(S'p1_tl'
I82
tp50
a(S'p1_ll'
I1
tp51
a(S'p1_th'
I1
tp52
a(S'w'
I7324
tp53
a(S'p1_tl'
I226
tp54
a(S'w'
I1
tp55
a(S'p1_ll'
I1
tp56
a(S'p1_th'
I0
tp57
a(S'w'
I7325
tp58
a(S'p1_tl'
I169
tp59
a(S'w'
I1
tp60
a(S'p1_ll'
I1
tp61
a(S'w'
I7325
tp62
a(S'p1_tl'
I226
tp63
a(S'w'
I1
tp64
a(S'p1_ll'
I1
tp65
a(S'w'
I7325
tp66
a(S'p1_tl'
I179
tp67
a(S'w'
I1
tp68
a(S'p1_ll'
I1
tp69
a(S'w'
I7325
tp70
a(S'p1_tl'
I169
tp71
a(S'w'
I1
tp72
a(S'p1_ll'
I1
tp73
a(S'w'
I7325
tp74
a(S'p1_tl'
I179
tp75
a(S'w'
I1
tp76
a(S'p1_ll'
I1
tp77
a(S'w'
I7325
tp78
a(S'p1_tl'
I226
tp79
a(S'w'
I1
tp80
a(S'p1_ll'
I1
tp81
a(S'w'
I7327
tp82
a(S'p1_tl'
I82
tp83
a(S'p1_ll'
I1
tp84
a(S'p1_th'
I1
tp85
a(S'w'
I8
tp86
a(S'p2_du'
I3
tp87
a(S'p2_lh'
I1
tp88
a(S'p2_cv'
I0
tp89
a(S'p2_vo'
I1
tp90
a(S'w'
I1
tp91
a(S'p2_se'
I1
tp92
a(S'p2_sp'
I2
tp93
a(S'p2_tl'
I196
tp94
a(S'p2_ll'
I1
tp95
a(S'p2_th'
I1
tp96
a(S'w'
I7315
tp97
a(S'p1_tl'
I226
tp98
a(S'w'
I1
tp99
a(S'p1_ll'
I1
tp100
a(S'p1_th'
I0
tp101
a(S'w'
I4
tp102
a(S'p2_tl'
I82
tp103
a(S'p2_ll'
I1
tp104
a(S'w'
I7321
tp105
a(S'p1_tl'
I169
tp106
a(S'w'
I1
tp107
a(S'p1_ll'
I1
tp108
a(S'w'
I4
tp109
a(S'p2_tl'
I12
tp110
a(S'p2_ll'
I1
tp111
a(S'w'
I7321
tp112
a(S'p1_tl'
I226
tp113
a(S'w'
I1
tp114
a(S'p1_ll'
I1
tp115
a(S'w'
I4
tp116
a(S'p2_tl'
I82
tp117
a(S'p2_ll'
I1
tp118
a(S'w'
I7321
tp119
a(S'p1_tl'
I179
tp120
a(S'w'
I1
tp121
a(S'p1_ll'
I1
tp122
a(S'w'
I4
tp123
a(S'p2_tl'
I45
tp124
a(S'p2_ll'
I1
tp125
a(S'w'
I7321
tp126
a(S'p1_tl'
I169
tp127
a(S'w'
I1
tp128
a(S'p1_ll'
I1
tp129
a(S'w'
I4
tp130
a(S'p2_tl'
I12
tp131
a(S'p2_ll'
I1
tp132
a(S'w'
I7321
tp133
a(S'p1_tl'
I179
tp134
a(S'w'
I1
tp135
a(S'p1_ll'
I1
tp136
a(S'w'
I4
tp137
a(S'p2_tl'
I45
tp138
a(S'p2_ll'
I1
tp139
a(S'w'
I7321
tp140
a(S'p1_tl'
I226
tp141
a(S'w'
I1
tp142
a(S'p1_ll'
I1
tp143
a(S'w'
I4
tp144
a(S'p2_tl'
I82
tp145
a(S'p2_ll'
I1
tp146
a(S'w'
I7323
tp147
a(S'p1_tl'
I82
tp148
a(S'p1_ll'
I1
tp149
a(S'p1_th'
I1
tp150
a(S'w'
I5
tp151
a(S'p2_tl'
I196
tp152
a(S'w'
I1
tp153
a(S'p2_ll'
I1
tp154
a(S'w'
I7318
tp155
a(S'p1_tl'
I226
tp156
a(S'w'
I1
tp157
a(S'p1_ll'
I1
tp158
a(S'p1_th'
I0
tp159
a(S'w'
I4
tp160
a(S'p2_tl'
I82
tp161
a(S'p2_ll'
I1
tp162
a(S'w'
I7321
tp163
a(S'p1_tl'
I169
tp164
a(S'w'
I1
tp165
a(S'p1_ll'
I1
tp166
a(S'w'
I4
tp167
a(S'p2_tl'
I12
tp168
a(S'p2_ll'
I1
tp169
a(S'w'
I7321
tp170
a(S'p1_tl'
I226
tp171
a(S'w'
I1
tp172
a(S'p1_ll'
I1
tp173
a(S'w'
I4
tp174
a(S'p2_tl'
I82
tp175
a(S'p2_ll'
I1
tp176
a(S'w'
I7321
tp177
a(S'p1_tl'
I179
tp178
a(S'w'
I1
tp179
a(S'p1_ll'
I1
tp180
a(S'w'
I4
tp181
a(S'p2_tl'
I45
tp182
a(S'p2_ll'
I1
tp183
a(S'w'
I7321
tp184
a(S'p1_tl'
I169
tp185
a(S'w'
I1
tp186
a(S'p1_ll'
I1
tp187
a(S'w'
I4
tp188
a(S'p2_tl'
I12
tp189
a(S'p2_ll'
I1
tp190
a(S'w'
I7321
tp191
a(S'p1_tl'
I179
tp192
a(S'w'
I1
tp193
a(S'p1_ll'
I1
tp194
a(S'w'
I4
tp195
a(S'p2_tl'
I45
tp196
a(S'p2_ll'
I1
tp197
a(S'w'
I7321
tp198
a(S'p1_tl'
I226
tp199
a(S'w'
I1
tp200
a(S'p1_ll'
I1
tp201
a(S'w'
I4
tp202
a(S'p2_tl'
I82
tp203
a(S'p2_ll'
I1
tp204
a(S'w'
I7323
tp205
a(S'p1_tl'
I82
tp206
a(S'p1_ll'
I1
tp207
a(S'p1_th'
I1
tp208
a(S'w'
I9
tp209
a(S'p2_tl'
I147
tp210
a(S'p2_ll'
I1
tp211
a(S'w'
I7315
tp212
a(S'p1_tl'
I226
tp213
a(S'w'
I1
tp214
a(S'p1_ll'
I1
tp215
a(S'p1_th'
I0
tp216
a(S'w'
I4
tp217
a(S'p2_tl'
I252
tp218
a(S'p2_ll'
I1
tp219
a(S'w'
I7321
tp220
a(S'p1_tl'
I169
tp221
a(S'w'
I1
tp222
a(S'p1_ll'
I1
tp223
a(S'w'
I4
tp224
a(S'p2_tl'
I12
tp225
a(S'p2_ll'
I1
tp226
a(S'w'
I7321
tp227
a(S'p1_tl'
I226
tp228
a(S'w'
I1
tp229
a(S'p1_ll'
I1
tp230
a(S'w'
I4
tp231
a(S'p2_tl'
I82
tp232
a(S'p2_ll'
I1
tp233
a(S'w'
I7322
tp234
a(S'p1_tl'
I179
tp235
a(S'w'
I1
tp236
a(S'p1_ll'
I1
tp237
a(S'w'
I4
tp238
a(S'p2_tl'
I45
tp239
a(S'p2_ll'
I1
tp240
a(S'w'
I7321
tp241
a(S'p1_tl'
I169
tp242
a(S'w'
I1
tp243
a(S'p1_ll'
I1
tp244
a(S'w'
I4
tp245
a(S'p2_tl'
I12
tp246
a(S'p2_ll'
I1
tp247
a(S'w'
I7321
tp248
a(S'p1_tl'
I179
tp249
a(S'w'
I1
tp250
a(S'p1_ll'
I1
tp251
a(S'w'
I4
tp252
a(S'p2_tl'
I45
tp253
a(S'p2_ll'
I1
tp254
a(S'w'
I7321
tp255
a(S'p1_tl'
I226
tp256
a(S'w'
I1
tp257
a(S'p1_ll'
I1
tp258
a(S'w'
I4
tp259
a(S'p2_tl'
I82
tp260
a(S'p2_ll'
I1
tp261
a(S'w'
I7323
tp262
a(S'p1_tl'
I82
tp263
a(S'p1_ll'
I1
tp264
a(S'p1_th'
I1
tp265
a(S'w'
I4
tp266
a(S'p2_tl'
I196
tp267
a(S'p2_ll'
I1
tp268
a(S'w'
I7320
tp269
a(S'p1_tl'
I226
tp270
a(S'w'
I1
tp271
a(S'p1_ll'
I1
tp272
a(S'p1_th'
I0
tp273
a(S'w'
I4
tp274
a(S'p2_tl'
I26
tp275
a(S'p2_ll'
I1
tp276
a(S'p2_th'
I2
tp277
a(S'w'
I7321
tp278
a(S'p1_tl'
I169
tp279
a(S'w'
I1
tp280
a(S'p1_ll'
I1
tp281
a(S'w'
I4
tp282
a(S'p2_tl'
I12
tp283
a(S'p2_ll'
I1
tp284
a(S'p2_th'
I1
tp285
a(S'w'
I7321
tp286
a(S'p1_tl'
I226
tp287
a(S'w'
I1
tp288
a(S'p1_ll'
I1
tp289
a(S'w'
I4
tp290
a(S'p2_tl'
I82
tp291
a(S'p2_ll'
I1
tp292
a(S'w'
I7321
tp293
a(S'p1_tl'
I179
tp294
a(S'w'
I1
tp295
a(S'p1_ll'
I1
tp296
a(S'w'
I4
tp297
a(S'p2_tl'
I45
tp298
a(S'p2_ll'
I1
tp299
a(S'w'
I7321
tp300
a(S'p1_tl'
I169
tp301
a(S'w'
I1
tp302
a(S'p1_ll'
I1
tp303
a(S'w'
I4
tp304
a(S'p2_tl'
I12
tp305
a(S'p2_ll'
I1
tp306
a(S'w'
I7321
tp307
a(S'p1_tl'
I179
tp308
a(S'w'
I1
tp309
a(S'p1_ll'
I1
tp310
a(S'w'
I4
tp311
a(S'p2_tl'
I45
tp312
a(S'p2_ll'
I1
tp313
a(S'w'
I7321
tp314
a(S'p1_tl'
I226
tp315
a(S'w'
I1
tp316
a(S'p1_ll'
I1
tp317
a(S'w'
I4
tp318
a(S'p2_tl'
I103
tp319
a(S'p2_ll'
I1
tp320
a(S'w'
I7323
tp321
a(S'p1_tl'
I82
tp322
a(S'p1_ll'
I1
tp323
a(S'p1_th'
I1
tp324
a(S'w'
I9
tp325
a(S'p2_tl'
I196
tp326
a(S'p2_ll'
I1
tp327
a(S'w'
I9
tp328
a(S'tr_lr'
I70
tp329
a(S'tr_tl'
I82
tp330
a(S'w'
I1
tp331
a(S'tr_ll'
I2
tp332
a(S'tr_th'
I1
tp333
a(S'w'
I7305
tp334
a(S'p1_tl'
I226
tp335
a(S'w'
I1
tp336
a(S'p1_ll'
I1
tp337
a(S'p1_th'
I0
tp338
a(S'w'
I4
tp339
a(S'p2_tl'
I82
tp340
a(S'p2_ll'
I1
tp341
a(S'w'
I7321
tp342
a(S'p1_tl'
I169
tp343
a(S'w'
I1
tp344
a(S'p1_ll'
I1
tp345
a(S'w'
I4
tp346
a(S'p2_tl'
I12
tp347
a(S'p2_ll'
I1
tp348
a(S'w'
I6
tp349
a(S'tr_ll'
I2
tp350
a(S'w'
I7315
tp351
a(S'p1_tl'
I226
tp352
a(S'w'
I1
tp353
a(S'p1_ll'
I1
tp354
a(S'w'
I4
tp355
a(S'p2_tl'
I82
tp356
a(S'p2_ll'
I1
tp357
a(S'w'
I7321
tp358
a(S'p1_tl'
I179
tp359
a(S'w'
I1
tp360
a(S'p1_ll'
I1
tp361
a(S'w'
I4
tp362
a(S'p2_tl'
I45
tp363
a(S'p2_ll'
I1
tp364
a(S'w'
I6
tp365
a(S'tr_ll'
I2
tp366
a(S'w'
I7315
tp367
a(S'p1_tl'
I169
tp368
a(S'w'
I1
tp369
a(S'p1_ll'
I1
tp370
a(S'w'
I4
tp371
a(S'p2_tl'
I12
tp372
a(S'p2_ll'
I1
tp373
a(S'w'
I7321
tp374
a(S'p1_tl'
I179
tp375
a(S'w'
I1
tp376
a(S'p1_ll'
I1
tp377
a(S'w'
I4
tp378
a(S'p2_tl'
I45
tp379
a(S'p2_ll'
I1
tp380
a(S'w'
I6
tp381
a(S'tr_ll'
I2
tp382
a(S'w'
I7315
tp383
a(S'p1_tl'
I226
tp384
a(S'w'
I1
tp385
a(S'p1_ll'
I1
tp386
a(S'w'
I4
tp387
a(S'p2_tl'
I82
tp388
a(S'p2_ll'
I1
tp389
a(S'w'
I7323
tp390
a(S'p1_tl'
I82
tp391
a(S'p1_ll'
I1
tp392
a(S'p1_th'
I1
tp393
a(S'w'
I5
tp394
a(S'p2_tl'
I196
tp395
a(S'w'
I1
tp396
a(S'p2_ll'
I1
tp397
a(S'w'
I5
tp398
a(S'tr_ll'
I2
tp399
a(S'w'
I7313
tp400
a(S'p1_tl'
I226
tp401
a(S'w'
I1
tp402
a(S'p1_ll'
I1
tp403
a(S'p1_th'
I0
tp404
a(S'w'
I4
tp405
a(S'p2_tl'
I82
tp406
a(S'p2_ll'
I1
tp407
a(S'w'
I7321
tp408
a(S'p1_tl'
I169
tp409
a(S'w'
I1
tp410
a(S'p1_ll'
I1
tp411
a(S'w'
I4
tp412
a(S'p2_tl'
I12
tp413
a(S'p2_ll'
I1
tp414
a(S'w'
I6
tp415
a(S'tr_ll'
I2
tp416
a(S'w'
I7315
tp417
a(S'p1_tl'
I226
tp418
a(S'w'
I1
tp419
a(S'p1_ll'
I1
tp420
a(S'w'
I4
tp421
a(S'p2_tl'
I82
tp422
a(S'p2_ll'
I1
tp423
a(S'w'
I7321
tp424
a(S'p1_tl'
I179
tp425
a(S'w'
I1
tp426
a(S'p1_ll'
I1
tp427
a(S'w'
I4
tp428
a(S'p2_tl'
I45
tp429
a(S'p2_ll'
I1
tp430
a(S'w'
I6
tp431
a(S'tr_ll'
I2
tp432
a(S'w'
I7315
tp433
a(S'p1_tl'
I169
tp434
a(S'w'
I1
tp435
a(S'p1_ll'
I1
tp436
a(S'w'
I4
tp437
a(S'p2_tl'
I12
tp438
a(S'p2_ll'
I1
tp439
a(S'w'
I7321
tp440
a(S'p1_tl'
I179
tp441
a(S'w'
I1
tp442
a(S'p1_ll'
I1
tp443
a(S'w'
I4
tp444
a(S'p2_tl'
I45
tp445
a(S'p2_ll'
I1
tp446
a(S'w'
I6
tp447
a(S'tr_ll'
I2
tp448
a(S'w'
I7315
tp449
a(S'p1_tl'
I226
tp450
a(S'w'
I1
tp451
a(S'p1_ll'
I1
tp452
a(S'w'
I4
tp453
a(S'p2_tl'
I82
tp454
a(S'p2_ll'
I1
tp455
a(S'w'
I7323
tp456
a(S'p1_tl'
I82
tp457
a(S'p1_ll'
I1
tp458
a(S'p1_th'
I1
tp459
a(S'w'
I9
tp460
a(S'p2_tl'
I147
tp461
a(S'p2_ll'
I1
tp462
a(S'w'
I9
tp463
a(S'tr_tl'
I252
tp464
a(S'w'
I1
tp465
a(S'tr_ll'
I2
tp466
a(S'w'
I7305
tp467
a(S'p1_tl'
I226
tp468
a(S'w'
I1
tp469
a(S'p1_ll'
I1
tp470
a(S'p1_th'
I0
tp471
a(S'w'
I4
tp472
a(S'p2_tl'
I252
tp473
a(S'p2_ll'
I1
tp474
a(S'w'
I7321
tp475
a(S'p1_tl'
I169
tp476
a(S'w'
I1
tp477
a(S'p1_ll'
I1
tp478
a(S'w'
I4
tp479
a(S'p2_tl'
I12
tp480
a(S'p2_ll'
I1
tp481
a(S'w'
I6
tp482
a(S'tr_ll'
I2
tp483
a(S'w'
I7315
tp484
a(S'p1_tl'
I226
tp485
a(S'w'
I1
tp486
a(S'p1_ll'
I1
tp487
a(S'w'
I4
tp488
a(S'p2_tl'
I82
tp489
a(S'p2_ll'
I1
tp490
a(S'w'
I7321
tp491
a(S'p1_tl'
I179
tp492
a(S'w'
I1
tp493
a(S'p1_ll'
I1
tp494
a(S'w'
I4
tp495
a(S'p2_tl'
I45
tp496
a(S'p2_ll'
I1
tp497
a(S'w'
I6
tp498
a(S'tr_ll'
I2
tp499
a(S'w'
I7315
tp500
a(S'p1_tl'
I169
tp501
a(S'w'
I1
tp502
a(S'p1_ll'
I1
tp503
a(S'w'
I4
tp504
a(S'p2_tl'
I12
tp505
a(S'p2_ll'
I1
tp506
a(S'w'
I7321
tp507
a(S'p1_tl'
I179
tp508
a(S'w'
I1
tp509
a(S'p1_ll'
I1
tp510
a(S'w'
I4
tp511
a(S'p2_tl'
I45
tp512
a(S'p2_ll'
I1
tp513
a(S'w'
I6
tp514
a(S'tr_ll'
I2
tp515
a(S'w'
I7315
tp516
a(S'p1_tl'
I226
tp517
a(S'w'
I1
tp518
a(S'p1_ll'
I1
tp519
a(S'w'
I4
tp520
a(S'p2_tl'
I82
tp521
a(S'p2_ll'
I1
tp522
a(S'w'
I7323
tp523
a(S'p1_tl'
I82
tp524
a(S'p1_ll'
I1
tp525
a(S'p1_th'
I1
tp526
a(S'w'
I4
tp527
a(S'p2_tl'
I196
tp528
a(S'p2_ll'
I1
tp529
a(S'w'
I9
tp530
a(S'tr_tl'
I196
tp531
a(S'w'
I1
tp532
a(S'tr_ll'
I2
tp533
a(S'w'
I7311
tp534
a(S'p1_tl'
I226
tp535
a(S'w'
I1
tp536
a(S'p1_ll'
I1
tp537
a(S'p1_th'
I0
tp538
a(S'w'
I4
tp539
a(S'p2_tl'
I26
tp540
a(S'p2_ll'
I1
tp541
a(S'p2_th'
I2
tp542
a(S'w'
I7321
tp543
a(S'p1_tl'
I169
tp544
a(S'w'
I1
tp545
a(S'p1_ll'
I1
tp546
a(S'w'
I4
tp547
a(S'p2_tl'
I12
tp548
a(S'p2_ll'
I1
tp549
a(S'p2_th'
I1
tp550
a(S'w'
I6
tp551
a(S'tr_ll'
I2
tp552
a(S'w'
I7315
tp553
a(S'p1_tl'
I226
tp554
a(S'w'
I1
tp555
a(S'p1_ll'
I1
tp556
a(S'w'
I4
tp557
a(S'p2_tl'
I82
tp558
a(S'p2_ll'
I1
tp559
a(S'w'
I7321
tp560
a(S'p1_tl'
I179
tp561
a(S'w'
I1
tp562
a(S'p1_ll'
I1
tp563
a(S'w'
I4
tp564
a(S'p2_tl'
I45
tp565
a(S'p2_ll'
I1
tp566
a(S'w'
I6
tp567
a(S'tr_ll'
I2
tp568
a(S'w'
I7315
tp569
a(S'p1_tl'
I169
tp570
a(S'w'
I1
tp571
a(S'p1_ll'
I1
tp572
a(S'w'
I4
tp573
a(S'p2_tl'
I12
tp574
a(S'p2_ll'
I1
tp575
a(S'w'
I7321
tp576
a(S'p1_tl'
I179
tp577
a(S'w'
I1
tp578
a(S'p1_ll'
I1
tp579
a(S'w'
I4
tp580
a(S'p2_tl'
I45
tp581
a(S'p2_ll'
I1
tp582
a(S'w'
I6
tp583
a(S'tr_ll'
I2
tp584
a(S'w'
I7315
tp585
a(S'p1_tl'
I226
tp586
a(S'w'
I1
tp587
a(S'p1_ll'
I1
tp588
a(S'w'
I4
tp589
a(S'p2_tl'
I103
tp590
a(S'p2_ll'
I1
tp591
a(S'w'
I7323
tp592
a(S'p1_tl'
I82
tp593
a(S'p1_ll'
I1
tp594
a(S'p1_th'
I1
tp595
a(S'w'
I9
tp596
a(S'p2_tl'
I196
tp597
a(S'p2_ll'
I1
tp598
a(S'w'
I9
tp599
a(S'tr_tl'
I82
tp600
a(S'w'
I1
tp601
a(S'tr_ll'
I2
tp602
a(S'w'
I7305
tp603
a(S'p1_tl'
I226
tp604
a(S'w'
I1
tp605
a(S'p1_ll'
I1
tp606
a(S'p1_th'
I0
tp607
a(S'w'
I4
tp608
a(S'p2_tl'
I82
tp609
a(S'p2_ll'
I1
tp610
a(S'w'
I7321
tp611
a(S'p1_tl'
I169
tp612
a(S'w'
I1
tp613
a(S'p1_ll'
I1
tp614
a(S'w'
I4
tp615
a(S'p2_tl'
I12
tp616
a(S'p2_ll'
I1
tp617
a(S'w'
I6
tp618
a(S'tr_ll'
I2
tp619
a(S'w'
I7315
tp620
a(S'p1_tl'
I226
tp621
a(S'w'
I1
tp622
a(S'p1_ll'
I1
tp623
a(S'w'
I4
tp624
a(S'p2_tl'
I82
tp625
a(S'p2_ll'
I1
tp626
a(S'w'
I7321
tp627
a(S'p1_tl'
I179
tp628
a(S'w'
I1
tp629
a(S'p1_ll'
I1
tp630
a(S'w'
I4
tp631
a(S'p2_tl'
I45
tp632
a(S'p2_ll'
I1
tp633
a(S'w'
I6
tp634
a(S'tr_ll'
I2
tp635
a(S'w'
I7315
tp636
a(S'p1_tl'
I169
tp637
a(S'w'
I1
tp638
a(S'p1_ll'
I1
tp639
a(S'w'
I4
tp640
a(S'p2_tl'
I12
tp641
a(S'p2_ll'
I1
tp642
a(S'w'
I7321
tp643
a(S'p1_tl'
I179
tp644
a(S'w'
I1
tp645
a(S'p1_ll'
I1
tp646
a(S'w'
I4
tp647
a(S'p2_tl'
I45
tp648
a(S'p2_ll'
I1
tp649
a(S'w'
I6
tp650
a(S'tr_ll'
I2
tp651
a(S'w'
I7315
tp652
a(S'p1_tl'
I226
tp653
a(S'w'
I1
tp654
a(S'p1_ll'
I1
tp655
a(S'w'
I4
tp656
a(S'p2_tl'
I82
tp657
a(S'p2_ll'
I1
tp658
a(S'w'
I7323
tp659
a(S'p1_tl'
I82
tp660
a(S'p1_ll'
I1
tp661
a(S'p1_th'
I1
tp662
a(S'w'
I5
tp663
a(S'p2_tl'
I196
tp664
a(S'w'
I1
tp665
a(S'p2_ll'
I1
tp666
a(S'w'
I5
tp667
a(S'tr_ll'
I2
tp668
a(S'w'
I7313
tp669
a(S'p1_tl'
I226
tp670
a(S'w'
I1
tp671
a(S'p1_ll'
I1
tp672
a(S'p1_th'
I0
tp673
a(S'w'
I4
tp674
a(S'p2_tl'
I82
tp675
a(S'p2_ll'
I1
tp676
a(S'w'
I7321
tp677
a(S'p1_tl'
I169
tp678
a(S'w'
I1
tp679
a(S'p1_ll'
I1
tp680
a(S'w'
I4
tp681
a(S'p2_tl'
I12
tp682
a(S'p2_ll'
I1
tp683
a(S'w'
I6
tp684
a(S'tr_ll'
I2
tp685
a(S'w'
I7315
tp686
a(S'p1_tl'
I226
tp687
a(S'w'
I1
tp688
a(S'p1_ll'
I1
tp689
a(S'w'
I4
tp690
a(S'p2_tl'
I82
tp691
a(S'p2_ll'
I1
tp692
a(S'w'
I7321
tp693
a(S'p1_tl'
I179
tp694
a(S'w'
I1
tp695
a(S'p1_ll'
I1
tp696
a(S'w'
I4
tp697
a(S'p2_tl'
I45
tp698
a(S'p2_ll'
I1
tp699
a(S'w'
I6
tp700
a(S'tr_ll'
I2
tp701
a(S'w'
I7315
tp702
a(S'p1_tl'
I169
tp703
a(S'w'
I1
tp704
a(S'p1_ll'
I1
tp705
a(S'w'
I4
tp706
a(S'p2_tl'
I12
tp707
a(S'p2_ll'
I1
tp708
a(S'w'
I7321
tp709
a(S'p1_tl'
I179
tp710
a(S'w'
I1
tp711
a(S'p1_ll'
I1
tp712
a(S'w'
I4
tp713
a(S'p2_tl'
I45
tp714
a(S'p2_ll'
I1
tp715
a(S'w'
I6
tp716
a(S'tr_ll'
I2
tp717
a(S'w'
I7315
tp718
a(S'p1_tl'
I226
tp719
a(S'w'
I1
tp720
a(S'p1_ll'
I1
tp721
a(S'w'
I4
tp722
a(S'p2_tl'
I82
tp723
a(S'p2_ll'
I1
tp724
a(S'w'
I7325
tp725
a(S'p1_lh'
I0
tp726
a(S'p1_tl'
I82
tp727
a(S'w'
I1
tp728
a(S'p1_ll'
I1
tp729
a(S'p1_th'
I1
tp730
a(S'w'
I7
tp731
a(S'p2_lh'
I0
tp732
a(S'p2_tl'
I196
tp733
a(S'w'
I1
tp734
a(S'p2_ll'
I1
tp735
a(S'w'
I6
tp736
a(S'tr_ll'
I2
tp737
a(S'w'
I7308
tp738
a(S'p1_du'
I0
tp739
a(S'p1_cv'
I1
tp740
a(S'p1_vo'
I0
tp741
a(S'w'
I3
tp742
a(S'p2_du'
I0
tp743
a(S'p2_cv'
I1
tp744
a(S'p2_vo'
I0
tp745
a(S'w'
I3
tp746
a.