(lp1
(S'clock'
p2
I1789773
tp3
a(S'fc_mo'
I1
tp4
a(S'no_cv'
I1
tp5
a(S'tr_lr'
I16
tp6
a(S'p2_cv'
I1
tp7
a(S'p1_cv'
I1
tp8
a(S'w'
I11
tp9
a(S'p2_du'
I2
tp10
a(S'p2_cv'
I0
tp11
a(S'p2_vo'
I5
tp12
a(S'w'
I1
tp13
a(S'p2_sn'
I1
tp14
a(S'p2_ss'
I2
tp15
a(S'p2_tl'
I244
tp16
a(S'p2_ll'
I1
tp17
a(S'p2_th'
I5
tp18
a(S'w'
I2926
tp19
a(S'p1_du'
I2
tp20
a(S'p1_cv'
I0
tp21
a(S'p1_vo'
I5
tp22
a(S'w'
I1
tp23
a(S'p1_sn'
I1
tp24
a(S'p1_ss'
I2
tp25
a(S'p1_tl'
I244
tp26
a(S'p1_ll'
I1
tp27
a(S'p1_th'
I5
tp28
a(S'w'
I1462
tp29
a(S'p2_tl'
I1
tp30
a(S'p2_ll'
I1
tp31
a(S'w'
I2929
tp32
a(S'p1_tl'
I1
tp33
a(S'w'
I1
tp34
a(S'p1_ll'
I1
tp35
a(S'w'
I1466
tp36
a(S'p2_tl'
I248
tp37
a(S'p2_ll'
I1
tp38
a(S'p2_th'
I3
tp39
a(S'w'
I2928
tp40
a(S'p1_tl'
I248
tp41
a(S'w'
I1
tp42
a(S'p1_ll'
I1
tp43
a(S'p1_th'
I3
tp44
a(S'w'
I1466
tp45
a(S'p2_tl'
I86
tp46
a(S'p2_ll'
I1
tp47
a(S'w'
I2929
tp48
a(S'p1_tl'
I86
tp49
a(S'w'
I1
tp50
a(S'p1_ll'
I1
tp51
a(S'w'
I1466
tp52
a(S'p2_tl'
I249
tp53
a(S'p2_ll'
I1
tp54
a(S'p2_th'
I2
tp55
a(S'w'
I2928
tp56
a(S'p1_tl'
I249
tp57
a(S'w'
I1
tp58
a(S'p1_ll'
I1
tp59
a(S'p1_th'
I2
tp60
a(S'w'
I1467
tp61
a(S'p2_tl'
I128
tp62
a(S'p2_ll'
I1
tp63
a(S'w'
I2928
tp64
a(S'p1_tl'
I128
tp65
a(S'w'
I1
tp66
a(S'p1_ll'
I1
tp67
a(S'w'
I1466
tp68
a(S'p2_tl'
I252
tp69
a(S'p2_ll'
I1
tp70
a(S'p2_th'
I1
tp71
a(S'w'
I2929
tp72
a(S'p1_tl'
I252
tp73
a(S'w'
I1
tp74
a(S'p1_ll'
I1
tp75
a(S'p1_th'
I1
tp76
a(S'w'
I1466
tp77
a(S'p2_tl'
I171
tp78
a(S'p2_ll'
I1
tp79
a(S'w'
I2928
tp80
a(S'p1_tl'
I171
tp81
a(S'w'
I1
tp82
a(S'p1_ll'
I1
tp83
a(S'w'
I1466
tp84
a(S'p2_tl'
I124
tp85
a(S'p2_ll'
I1
tp86
a(S'w'
I2929
tp87
a(S'p1_tl'
I124
tp88
a(S'w'
I1
tp89
a(S'p1_ll'
I1
tp90
a(S'w'
I1466
tp91
a(S'p2_tl'
I63
tp92
a(S'p2_ll'
I1
tp93
a(S'w'
I2928
tp94
a(S'p1_tl'
I63
tp95
a(S'w'
I1
tp96
a(S'p1_ll'
I1
tp97
a(S'w'
I1467
tp98
a(S'p2_tl'
I253
tp99
a(S'p2_ll'
I1
tp100
a(S'p2_th'
I0
tp101
a(S'w'
I2928
tp102
a(S'p1_tl'
I253
tp103
a(S'w'
I1
tp104
a(S'p1_ll'
I1
tp105
a(S'p1_th'
I0
tp106
a(S'w'
I1466
tp107
a(S'p2_tl'
I213
tp108
a(S'p2_ll'
I1
tp109
a(S'w'
I2929
tp110
a(S'p1_tl'
I213
tp111
a(S'w'
I1
tp112
a(S'p1_ll'
I1
tp113
a(S'w'
I1466
tp114
a(S'p2_tl'
I189
tp115
a(S'p2_ll'
I1
tp116
a(S'w'
I2928
tp117
a(S'p1_tl'
I189
tp118
a(S'w'
I1
tp119
a(S'p1_ll'
I1
tp120
a(S'w'
I1467
tp121
a(S'p2_tl'
I159
tp122
a(S'p2_ll'
I1
tp123
a(S'w'
I2928
tp124
a(S'p1_tl'
I159
tp125
a(S'w'
I1
tp126
a(S'p1_ll'
I1
tp127
a(S'w'
I1466
tp128
a(S'p2_tl'
I126
tp129
a(S'p2_ll'
I1
tp130
a(S'w'
I2929
tp131
a(S'p1_tl'
I126
tp132
a(S'w'
I1
tp133
a(S'p1_ll'
I1
tp134
a(S'w'
I1466
tp135
a(S'p2_tl'
I106
tp136
a(S'p2_ll'
I1
tp137
a(S'w'
I2928
tp138
a(S'p1_tl'
I106
tp139
a(S'w'
I1
tp140
a(S'p1_ll'
I1
tp141
a(S'w'
I1469
tp142
a(S'p2_tl'
I94
tp143
a(S'p2_ll'
I1
tp144
a(S'w'
I2930
tp145
a(S'p1_tl'
I94
tp146
a(S'p1_ll'
I1
tp147
a(S'w'
I33697
tp148
a(S'p1_du'
I0
tp149
a(S'p1_cv'
I1
tp150
a(S'p1_vo'
I0
tp151
a(S'w'
I3
tp152
a(S'p2_du'
I0
tp153
a(S'p2_cv'
I1
tp154
a(S'p2_vo'
I0
tp155
a.