(lp1
(S'clock'
p2
I1789773
tp3
a(S'fc_mo'
I1
tp4
a(S'no_cv'
I1
tp5
a(S'tr_lr'
I16
tp6
a(S'p2_cv'
I1
tp7
a(S'p1_cv'
I1
tp8
a(S'w'
I3
tp9
a(S'p1_du'
I2
tp10
a(S'p1_cv'
I0
tp11
a(S'p1_vo'
I5
tp12
a(S'p1_sn'
I1
tp13
a(S'p1_ss'
I2
tp14
a(S'p1_tl'
I63
tp15
a(S'w'
I1
tp16
a(S'p1_ll'
I4
tp17
a(S'p1_th'
I1
tp18
a(S'w'
I3
tp19
a(S'p2_du'
I2
tp20
a(S'p2_cv'
I0
tp21
a(S'p2_vo'
I5
tp22
a(S'p2_sn'
I1
tp23
a(S'p2_ss'
I2
tp24
a(S'w'
I1
tp25
a(S'p2_tl'
I1
tp26
a(S'p2_ll'
I4
tp27
a(S'p2_th'
I5
tp28
a(S'w'
I4
tp29
a(S'tr_lr'
I66
tp30
a(S'tr_tl'
I213
tp31
a(S'w'
I1
tp32
a(S'tr_ll'
I1
tp33
a(S'w'
I8784
tp34
a(S'p2_tl'
I86
tp35
a(S'p2_ll'
I4
tp36
a(S'p2_th'
I3
tp37
a(S'w'
I8791
tp38
a(S'p2_tl'
I128
tp39
a(S'p2_ll'
I4
tp40
a(S'p2_th'
I2
tp41
a(S'w'
I8791
tp42
a(S'p2_tl'
I206
tp43
a(S'p2_ll'
I4
tp44
a(S'w'
I8789
tp45
a(S'p1_tl'
I223
tp46
a(S'w'
I1
tp47
a(S'p1_ll'
I4
tp48
a(S'w'
I4
tp49
a(S'p2_tl'
I86
tp50
a(S'p2_ll'
I4
tp51
a(S'p2_th'
I3
tp52
a(S'w'
I4
tp53
a(S'tr_tl'
I28
tp54
a(S'w'
I1
tp55
a(S'tr_ll'
I1
tp56
a(S'tr_th'
I1
tp57
a(S'w'
I17573
tp58
a(S'w'
I1
tp59
a(S'p1_ll'
I4
tp60
a(S'w'
I4
tp61
a(S'p2_ll'
I4
tp62
a(S'w'
I5
tp63
a(S'tr_ll'
I1
tp64
a(S'w'
I43948
tp65
a(S'p1_lh'
I1
tp66
a(S'p1_cv'
I1
tp67
a(S'p1_vo'
I15
tp68
a(S'p1_tl'
I128
tp69
a(S'w'
I1
tp70
a(S'p1_ll'
I4
tp71
a(S'p1_th'
I2
tp72
a(S'w'
I4393
tp73
a(S'p1_tl'
I26
tp74
a(S'w'
I1
tp75
a(S'p1_ll'
I4
tp76
a(S'w'
I4394
tp77
a(S'p1_tl'
I103
tp78
a(S'w'
I1
tp79
a(S'p1_ll'
I4
tp80
a(S'p1_th'
I1
tp81
a(S'w'
I5
tp82
a(S'p2_lh'
I1
tp83
a(S'p2_cv'
I1
tp84
a(S'p2_vo'
I15
tp85
a(S'w'
I1
tp86
a(S'p2_tl'
I38
tp87
a(S'p2_ll'
I4
tp88
a(S'w'
I17576
tp89
a(S'p1_tl'
I147
tp90
a(S'w'
I1
tp91
a(S'p1_ll'
I4
tp92
a(S'w'
I8792
tp93
a(S'p1_vo'
I0
tp94
a(S'w'
I1
tp95
a(S'p1_ll'
I4
tp96
a(S'w'
I5
tp97
a(S'p2_vo'
I0
tp98
a(S'w'
I1
tp99
a(S'p2_ll'
I4
tp100
a(S'w'
I8784
tp101
a(S'p1_lh'
I0
tp102
a(S'p1_cv'
I0
tp103
a(S'p1_vo'
I5
tp104
a(S'p1_tl'
I171
tp105
a(S'w'
I1
tp106
a(S'p1_ll'
I4
tp107
a(S'w'
I5
tp108
a(S'p2_lh'
I0
tp109
a(S'p2_cv'
I0
tp110
a(S'p2_vo'
I5
tp111
a(S'w'
I1
tp112
a(S'p2_tl'
I86
tp113
a(S'p2_ll'
I4
tp114
a(S'w'
I4
tp115
a(S'tr_tl'
I82
tp116
a(S'w'
I1
tp117
a(S'tr_ll'
I1
tp118
a(S'w'
I8777
tp119
a(S'p1_tl'
I147
tp120
a(S'w'
I1
tp121
a(S'p1_ll'
I4
tp122
a(S'w'
I8791
tp123
a(S'p1_tl'
I171
tp124
a(S'w'
I1
tp125
a(S'p1_ll'
I4
tp126
a(S'w'
I8792
tp127
a(S'p2_ll'
I4
tp128
a(S'w'
I8789
tp129
a(S'p1_tl'
I26
tp130
a(S'w'
I1
tp131
a(S'p1_ll'
I4
tp132
a(S'p1_th'
I2
tp133
a(S'w'
I4
tp134
a(S'p2_tl'
I1
tp135
a(S'p2_ll'
I4
tp136
a(S'p2_th'
I5
tp137
a(S'w'
I4
tp138
a(S'tr_tl'
I171
tp139
a(S'w'
I1
tp140
a(S'tr_ll'
I1
tp141
a(S'w'
I17573
tp142
a(S'w'
I1
tp143
a(S'p1_ll'
I4
tp144
a(S'w'
I4
tp145
a(S'p2_ll'
I4
tp146
a(S'w'
I5
tp147
a(S'tr_ll'
I1
tp148
a(S'w'
I35155
tp149
a(S'p1_tl'
I171
tp150
a(S'w'
I1
tp151
a(S'p1_ll'
I4
tp152
a(S'p1_th'
I1
tp153
a(S'w'
I4
tp154
a(S'p2_tl'
I191
tp155
a(S'p2_ll'
I4
tp156
a(S'p2_th'
I3
tp157
a(S'w'
I4
tp158
a(S'tr_tl'
I147
tp159
a(S'w'
I1
tp160
a(S'tr_ll'
I1
tp161
a(S'w'
I8781
tp162
a(S'p1_tl'
I147
tp163
a(S'w'
I1
tp164
a(S'p1_ll'
I4
tp165
a(S'w'
I8790
tp166
a(S'p1_tl'
I171
tp167
a(S'w'
I1
tp168
a(S'p1_ll'
I4
tp169
a(S'w'
I8792
tp170
a(S'p2_ll'
I4
tp171
a(S'w'
I8790
tp172
a(S'p1_tl'
I58
tp173
a(S'w'
I1
tp174
a(S'p1_ll'
I4
tp175
a(S'p1_th'
I2
tp176
a(S'w'
I4
tp177
a(S'p2_tl'
I78
tp178
a(S'p2_ll'
I4
tp179
a(S'p2_th'
I5
tp180
a(S'w'
I4
tp181
a(S'tr_tl'
I171
tp182
a(S'w'
I1
tp183
a(S'tr_ll'
I1
tp184
a(S'w'
I17572
tp185
a(S'w'
I1
tp186
a(S'p1_ll'
I4
tp187
a(S'w'
I4
tp188
a(S'p2_ll'
I4
tp189
a(S'w'
I5
tp190
a(S'tr_ll'
I1
tp191
a(S'w'
I52739
tp192
a.