(lp1
(S'clock'
p2
I1789772
tp3
a(S'ch_no'
I1
tp4
a(S'ch_tr'
I1
tp5
a(S'ch_p2'
I1
tp6
a(S'ch_p1'
I1
tp7
a(S'fc_mo'
I1
tp8
a(S'p1_lh'
I1
tp9
a(S'p1_cv'
I1
tp10
a(S'p1_sp'
I3
tp11
a(S'p2_lh'
I1
tp12
a(S'p2_cv'
I1
tp13
a(S'p2_sp'
I3
tp14
a(S'no_lh'
I1
tp15
a(S'no_cv'
I1
tp16
a(S'w'
I7
tp17
a(S'p1_sp'
I0
tp18
a(S'w'
I6
tp19
a(S'p1_du'
I2
tp20
a(S'p1_vo'
I12
tp21
a(S'w'
I3
tp22
a(S'p1_tl'
I169
tp23
a(S'w'
I1
tp24
a(S'p1_ll'
I1
tp25
a(S'w'
I8
tp26
a(S'p2_sp'
I0
tp27
a(S'w'
I5
tp28
a(S'p2_vo'
I15
tp29
a(S'w'
I4
tp30
a(S'p2_tl'
I142
tp31
a(S'w'
I1
tp32
a(S'p2_ll'
I1
tp33
a(S'w'
I12
tp34
a(S'tr_lh'
I1
tp35
a(S'tr_lr'
I63
tp36
a(S'w'
I2
tp37
a(S'tr_tl'
I171
tp38
a(S'w'
I1
tp39
a(S'tr_ll'
I1
tp40
a(S'tr_th'
I1
tp41
a(S'w'
I7
tp42
a(S'no_lh'
I0
tp43
a(S'no_cv'
I0
tp44
a(S'w'
I2
tp45
a(S'no_np'
I2
tp46
a(S'w'
I1
tp47
a(S'no_ll'
I0
tp48
a(S'w'
I679
tp49
a(S'p1_vo'
I11
tp50
a(S'w'
I5
tp51
a(S'p2_vo'
I14
tp52
a(S'w'
I4
tp53
a(S'tr_lr'
I62
tp54
a(S'w'
I725
tp55
a(S'p1_vo'
I10
tp56
a(S'w'
I5
tp57
a(S'p2_vo'
I13
tp58
a(S'w'
I4
tp59
a(S'tr_lr'
I61
tp60
a(S'w'
I725
tp61
a(S'p1_vo'
I9
tp62
a(S'w'
I5
tp63
a(S'p2_vo'
I12
tp64
a(S'w'
I729
tp65
a(S'p1_vo'
I8
tp66
a(S'w'
I5
tp67
a(S'p2_vo'
I11
tp68
a(S'w'
I728
tp69
a(S'p1_vo'
I7
tp70
a(S'w'
I5
tp71
a(S'p2_vo'
I10
tp72
a(S'w'
I742
tp73
a(S'no_np'
I3
tp74
a(S'w'
I1
tp75
a(S'no_ll'
I0
tp76
a(S'w'
I1454
tp77
a(S'p1_vo'
I6
tp78
a(S'w'
I5
tp79
a(S'p2_vo'
I9
tp80
a(S'w'
I729
tp81
a(S'p1_vo'
I5
tp82
a(S'w'
I5
tp83
a(S'p2_vo'
I8
tp84
a(S'w'
I728
tp85
a(S'p1_vo'
I4
tp86
a(S'w'
I5
tp87
a(S'p2_vo'
I7
tp88
a(S'w'
I4
tp89
a(S'tr_lh'
I0
tp90
a(S'tr_lr'
I0
tp91
a(S'w'
I725
tp92
a(S'p1_vo'
I3
tp93
a(S'w'
I5
tp94
a(S'p2_vo'
I6
tp95
a(S'w'
I733
tp96
a(S'p1_vo'
I12
tp97
a(S'w'
I1
tp98
a(S'p1_du'
I0
tp99
a(S'p1_vo'
I0
tp100
a(S'w'
I10
tp101
a(S'p2_vo'
I15
tp102
a(S'w'
I1
tp103
a(S'p2_vo'
I0
tp104
a(S'w'
I8
tp105
a(S'tr_lh'
I1
tp106
a(S'tr_lr'
I63
tp107
a(S'w'
I3
tp108
a(S'tr_tl'
I213
tp109
a(S'w'
I1
tp110
a(S'tr_ll'
I1
tp111
a(S'tr_th'
I0
tp112
a(S'w'
I7
tp113
a(S'no_np'
I9
tp114
a(S'w'
I1
tp115
a(S'no_ll'
I0
tp116
a(S'w'
I704
tp117
a(S'tr_lr'
I62
tp118
a(S'w'
I734
tp119
a(S'tr_lr'
I61
tp120
a(S'w'
I1466
tp121
a(S'tr_lh'
I0
tp122
a(S'tr_lr'
I0
tp123
a(S'w'
I1467
tp124
a(S'p1_du'
I2
tp125
a(S'p1_vo'
I12
tp126
a(S'w'
I3
tp127
a(S'p1_tl'
I83
tp128
a(S'w'
I1
tp129
a(S'p1_ll'
I1
tp130
a(S'p1_th'
I1
tp131
a(S'w'
I10
tp132
a(S'p2_vo'
I15
tp133
a(S'w'
I3
tp134
a(S'p2_tl'
I29
tp135
a(S'w'
I1
tp136
a(S'p2_ll'
I1
tp137
a(S'p2_th'
I1
tp138
a(S'w'
I9
tp139
a(S'tr_lh'
I1
tp140
a(S'tr_lr'
I63
tp141
a(S'w'
I3
tp142
a(S'tr_tl'
I171
tp143
a(S'w'
I1
tp144
a(S'tr_ll'
I1
tp145
a(S'tr_th'
I1
tp146
a(S'w'
I6
tp147
a(S'no_np'
I2
tp148
a(S'w'
I1
tp149
a(S'no_ll'
I0
tp150
a(S'w'
I692
tp151
a(S'p1_vo'
I11
tp152
a(S'w'
I5
tp153
a(S'p2_vo'
I14
tp154
a(S'w'
I4
tp155
a(S'tr_lr'
I62
tp156
a(S'w'
I724
tp157
a(S'p1_vo'
I10
tp158
a(S'w'
I5
tp159
a(S'p2_vo'
I13
tp160
a(S'w'
I4
tp161
a(S'tr_lr'
I61
tp162
a(S'w'
I725
tp163
a(S'p1_vo'
I9
tp164
a(S'w'
I5
tp165
a(S'p2_vo'
I12
tp166
a(S'w'
I729
tp167
a(S'p1_vo'
I8
tp168
a(S'w'
I5
tp169
a(S'p2_vo'
I11
tp170
a(S'w'
I4
tp171
a(S'tr_lh'
I0
tp172
a(S'tr_lr'
I0
tp173
a(S'w'
I725
tp174
a(S'p1_vo'
I7
tp175
a(S'w'
I5
tp176
a(S'p2_vo'
I10
tp177
a(S'w'
I734
tp178
a(S'p1_vo'
I12
tp179
a(S'w'
I1
tp180
a(S'p1_du'
I0
tp181
a(S'p1_vo'
I0
tp182
a(S'w'
I10
tp183
a(S'p2_vo'
I15
tp184
a(S'w'
I1
tp185
a(S'p2_vo'
I0
tp186
a(S'w'
I8
tp187
a(S'tr_lh'
I1
tp188
a(S'tr_lr'
I63
tp189
a(S'w'
I1
tp190
a(S'tr_lh'
I0
tp191
a(S'tr_lr'
I0
tp192
a(S'w'
I7
tp193
a(S'no_np'
I0
tp194
a(S'w'
I1
tp195
a(S'no_ll'
I3
tp196
a(S'w'
I4377
tp197
a(S'tr_lh'
I1
tp198
a(S'tr_lr'
I63
tp199
a(S'w'
I4
tp200
a(S'tr_ll'
I1
tp201
a(S'w'
I7
tp202
a(S'no_np'
I3
tp203
a(S'w'
I1
tp204
a(S'no_ll'
I0
tp205
a(S'w'
I719
tp206
a(S'tr_lr'
I62
tp207
a(S'w'
I734
tp208
a(S'tr_lr'
I61
tp209
a(S'w'
I1466
tp210
a(S'tr_lh'
I0
tp211
a(S'tr_lr'
I0
tp212
a(S'w'
I1467
tp213
a(S'p1_du'
I2
tp214
a(S'p1_vo'
I12
tp215
a(S'w'
I3
tp216
a(S'w'
I11
tp217
a(S'p2_vo'
I15
tp218
a(S'w'
I3
tp219
a(S'p2_tl'
I13
tp220
a(S'w'
I10
tp221
a(S'tr_lh'
I1
tp222
a(S'tr_lr'
I63
tp223
a(S'w'
I3
tp224
a(S'tr_tl'
I213
tp225
a(S'w'
I1
tp226
a(S'tr_ll'
I1
tp227
a(S'tr_th'
I0
tp228
a(S'w'
I7
tp229
a(S'no_np'
I9
tp230
a(S'w'
I1
tp231
a(S'no_ll'
I0
tp232
a(S'w'
I691
tp233
a(S'p1_vo'
I11
tp234
a(S'w'
I5
tp235
a(S'p2_vo'
I14
tp236
a(S'w'
I4
tp237
a(S'tr_lr'
I62
tp238
a(S'w'
I725
tp239
a(S'p1_vo'
I10
tp240
a(S'w'
I5
tp241
a(S'p2_vo'
I13
tp242
a(S'w'
I4
tp243
a(S'tr_lr'
I61
tp244
a(S'w'
I724
tp245
a(S'p1_vo'
I9
tp246
a(S'w'
I5
tp247
a(S'p2_vo'
I12
tp248
a(S'w'
I729
tp249
a(S'p1_vo'
I8
tp250
a(S'w'
I5
tp251
a(S'p2_vo'
I11
tp252
a(S'w'
I4
tp253
a(S'tr_lh'
I0
tp254
a(S'tr_lr'
I0
tp255
a(S'w'
I725
tp256
a(S'p1_vo'
I7
tp257
a(S'w'
I5
tp258
a(S'p2_vo'
I10
tp259
a(S'w'
I733
tp260
a(S'p1_vo'
I12
tp261
a(S'w'
I1
tp262
a(S'p1_du'
I0
tp263
a(S'p1_vo'
I0
tp264
a(S'w'
I10
tp265
a(S'p2_vo'
I15
tp266
a(S'w'
I1
tp267
a(S'p2_vo'
I0
tp268
a(S'w'
I8
tp269
a(S'tr_lh'
I1
tp270
a(S'tr_lr'
I63
tp271
a(S'w'
I1
tp272
a(S'tr_lh'
I0
tp273
a(S'tr_lr'
I0
tp274
a(S'w'
I6
tp275
a(S'no_np'
I1
tp276
a(S'w'
I1
tp277
a(S'no_ll'
I0
tp278
a(S'w'
I4376
tp279
a(S'p1_du'
I2
tp280
a(S'p1_vo'
I12
tp281
a(S'w'
I3
tp282
a(S'p1_tl'
I64
tp283
a(S'w'
I11
tp284
a(S'p2_vo'
I15
tp285
a(S'w'
I3
tp286
a(S'p2_tl'
I254
tp287
a(S'w'
I1
tp288
a(S'p2_ll'
I1
tp289
a(S'p2_th'
I0
tp290
a(S'w'
I9
tp291
a(S'tr_lh'
I1
tp292
a(S'tr_lr'
I63
tp293
a(S'w'
I3
tp294
a(S'tr_tl'
I125
tp295
a(S'w'
I1
tp296
a(S'tr_ll'
I1
tp297
a(S'tr_th'
I1
tp298
a(S'w'
I13
tp299
a(S'no_np'
I2
tp300
a(S'w'
I1
tp301
a(S'no_ll'
I0
tp302
a(S'w'
I683
tp303
a(S'p1_vo'
I11
tp304
a(S'w'
I5
tp305
a(S'p2_vo'
I14
tp306
a(S'w'
I4
tp307
a(S'tr_lr'
I62
tp308
a(S'w'
I725
tp309
a(S'p1_vo'
I10
tp310
a(S'w'
I5
tp311
a(S'p2_vo'
I13
tp312
a(S'w'
I4
tp313
a(S'tr_lr'
I61
tp314
a(S'w'
I725
tp315
a(S'p1_vo'
I9
tp316
a(S'w'
I5
tp317
a(S'p2_vo'
I12
tp318
a(S'w'
I729
tp319
a(S'p1_vo'
I8
tp320
a(S'w'
I5
tp321
a(S'p2_vo'
I11
tp322
a(S'w'
I728
tp323
a(S'p1_vo'
I7
tp324
a(S'w'
I5
tp325
a(S'p2_vo'
I10
tp326
a(S'w'
I742
tp327
a(S'no_np'
I3
tp328
a(S'w'
I1
tp329
a(S'no_ll'
I0
tp330
a(S'w'
I1454
tp331
a(S'p1_vo'
I6
tp332
a(S'w'
I5
tp333
a(S'p2_vo'
I9
tp334
a(S'w'
I729
tp335
a(S'p1_vo'
I5
tp336
a(S'w'
I5
tp337
a(S'p2_vo'
I8
tp338
a(S'w'
I728
tp339
a(S'p1_vo'
I4
tp340
a(S'w'
I5
tp341
a(S'p2_vo'
I7
tp342
a(S'w'
I4
tp343
a(S'tr_lh'
I0
tp344
a(S'tr_lr'
I0
tp345
a(S'w'
I725
tp346
a(S'p1_vo'
I3
tp347
a(S'w'
I5
tp348
a(S'p2_vo'
I6
tp349
a(S'w'
I733
tp350
a(S'p1_vo'
I12
tp351
a(S'w'
I1
tp352
a(S'p1_du'
I0
tp353
a(S'p1_vo'
I0
tp354
a(S'w'
I10
tp355
a(S'p2_vo'
I15
tp356
a(S'w'
I1
tp357
a(S'p2_vo'
I0
tp358
a(S'w'
I8
tp359
a(S'tr_lh'
I1
tp360
a(S'tr_lr'
I63
tp361
a(S'w'
I3
tp362
a(S'tr_tl'
I190
tp363
a(S'w'
I1
tp364
a(S'tr_ll'
I1
tp365
a(S'tr_th'
I0
tp366
a(S'w'
I7
tp367
a(S'no_np'
I9
tp368
a(S'w'
I1
tp369
a(S'no_ll'
I0
tp370
a(S'w'
I704
tp371
a(S'tr_lr'
I62
tp372
a(S'w'
I734
tp373
a(S'tr_lr'
I61
tp374
a(S'w'
I1466
tp375
a(S'tr_lh'
I0
tp376
a(S'tr_lr'
I0
tp377
a(S'w'
I1467
tp378
a(S'p1_du'
I2
tp379
a(S'p1_vo'
I12
tp380
a(S'w'
I4
tp381
a(S'p1_tl'
I160
tp382
a(S'w'
I1
tp383
a(S'p1_ll'
I1
tp384
a(S'p1_th'
I0
tp385
a(S'w'
I10
tp386
a(S'p2_vo'
I15
tp387
a(S'w'
I3
tp388
a(S'p2_tl'
I127
tp389
a(S'w'
I10
tp390
a(S'tr_lh'
I1
tp391
a(S'tr_lr'
I63
tp392
a(S'w'
I3
tp393
a(S'tr_tl'
I125
tp394
a(S'w'
I1
tp395
a(S'tr_ll'
I1
tp396
a(S'tr_th'
I1
tp397
a(S'w'
I6
tp398
a(S'no_np'
I2
tp399
a(S'w'
I1
tp400
a(S'no_ll'
I0
tp401
a(S'w'
I691
tp402
a(S'p1_vo'
I11
tp403
a(S'w'
I5
tp404
a(S'p2_vo'
I14
tp405
a(S'w'
I4
tp406
a(S'tr_lr'
I62
tp407
a(S'w'
I724
tp408
a(S'p1_vo'
I10
tp409
a(S'w'
I5
tp410
a(S'p2_vo'
I13
tp411
a(S'w'
I4
tp412
a(S'tr_lr'
I61
tp413
a(S'w'
I725
tp414
a(S'p1_vo'
I9
tp415
a(S'w'
I5
tp416
a(S'p2_vo'
I12
tp417
a(S'w'
I729
tp418
a(S'p1_vo'
I8
tp419
a(S'w'
I5
tp420
a(S'p2_vo'
I11
tp421
a(S'w'
I4
tp422
a(S'tr_lh'
I0
tp423
a(S'tr_lr'
I0
tp424
a(S'w'
I725
tp425
a(S'p1_vo'
I7
tp426
a(S'w'
I5
tp427
a(S'p2_vo'
I10
tp428
a(S'w'
I734
tp429
a(S'p1_vo'
I12
tp430
a(S'w'
I1
tp431
a(S'p1_du'
I0
tp432
a(S'p1_vo'
I0
tp433
a(S'w'
I10
tp434
a(S'p2_vo'
I15
tp435
a(S'w'
I1
tp436
a(S'p2_vo'
I0
tp437
a(S'w'
I8
tp438
a(S'tr_lh'
I1
tp439
a(S'tr_lr'
I63
tp440
a(S'w'
I1
tp441
a(S'tr_lh'
I0
tp442
a(S'tr_lr'
I0
tp443
a(S'w'
I7
tp444
a(S'no_np'
I0
tp445
a(S'w'
I1
tp446
a(S'no_ll'
I3
tp447
a(S'w'
I4377
tp448
a(S'tr_lh'
I1
tp449
a(S'tr_lr'
I63
tp450
a(S'w'
I4
tp451
a(S'tr_ll'
I1
tp452
a(S'w'
I7
tp453
a(S'no_np'
I3
tp454
a(S'w'
I1
tp455
a(S'no_ll'
I0
tp456
a(S'w'
I719
tp457
a(S'tr_lr'
I62
tp458
a(S'w'
I734
tp459
a(S'tr_lr'
I61
tp460
a(S'w'
I1466
tp461
a(S'tr_lh'
I0
tp462
a(S'tr_lr'
I0
tp463
a(S'w'
I1467
tp464
a(S'p1_du'
I2
tp465
a(S'p1_vo'
I12
tp466
a(S'w'
I3
tp467
a(S'p1_tl'
I64
tp468
a(S'w'
I1
tp469
a(S'p1_ll'
I1
tp470
a(S'p1_th'
I1
tp471
a(S'w'
I10
tp472
a(S'p2_vo'
I15
tp473
a(S'w'
I3
tp474
a(S'p2_tl'
I254
tp475
a(S'w'
I10
tp476
a(S'tr_lh'
I1
tp477
a(S'tr_lr'
I63
tp478
a(S'w'
I3
tp479
a(S'tr_tl'
I190
tp480
a(S'w'
I1
tp481
a(S'tr_ll'
I1
tp482
a(S'tr_th'
I0
tp483
a(S'w'
I7
tp484
a(S'no_np'
I9
tp485
a(S'w'
I1
tp486
a(S'no_ll'
I0
tp487
a(S'w'
I691
tp488
a(S'p1_vo'
I11
tp489
a(S'w'
I5
tp490
a(S'p2_vo'
I14
tp491
a(S'w'
I4
tp492
a(S'tr_lr'
I62
tp493
a(S'w'
I725
tp494
a(S'p1_vo'
I10
tp495
a(S'w'
I5
tp496
a(S'p2_vo'
I13
tp497
a(S'w'
I4
tp498
a(S'tr_lr'
I61
tp499
a(S'w'
I724
tp500
a(S'p1_vo'
I9
tp501
a(S'w'
I5
tp502
a(S'p2_vo'
I12
tp503
a(S'w'
I729
tp504
a(S'p1_vo'
I8
tp505
a(S'w'
I5
tp506
a(S'p2_vo'
I11
tp507
a(S'w'
I4
tp508
a(S'tr_lh'
I0
tp509
a(S'tr_lr'
I0
tp510
a(S'w'
I725
tp511
a(S'p1_vo'
I7
tp512
a(S'w'
I5
tp513
a(S'p2_vo'
I10
tp514
a(S'w'
I733
tp515
a(S'p1_vo'
I12
tp516
a(S'w'
I1
tp517
a(S'p1_du'
I0
tp518
a(S'p1_vo'
I0
tp519
a(S'w'
I10
tp520
a(S'p2_vo'
I15
tp521
a(S'w'
I1
tp522
a(S'p2_vo'
I0
tp523
a(S'w'
I8
tp524
a(S'tr_lh'
I1
tp525
a(S'tr_lr'
I63
tp526
a(S'w'
I1
tp527
a(S'tr_lh'
I0
tp528
a(S'tr_lr'
I0
tp529
a(S'w'
I6
tp530
a(S'no_np'
I1
tp531
a(S'w'
I1
tp532
a(S'no_ll'
I0
tp533
a(S'w'
I4375
tp534
a(S'p1_du'
I2
tp535
a(S'p1_vo'
I12
tp536
a(S'w'
I3
tp537
a(S'p1_tl'
I29
tp538
a(S'w'
I11
tp539
a(S'p2_vo'
I15
tp540
a(S'w'
I3
tp541
a(S'p2_tl'
I226
tp542
a(S'w'
I10
tp543
a(S'tr_lh'
I1
tp544
a(S'tr_lr'
I63
tp545
a(S'w'
I2
tp546
a(S'tr_tl'
I29
tp547
a(S'w'
I1
tp548
a(S'tr_ll'
I1
tp549
a(S'tr_th'
I1
tp550
a(S'w'
I12
tp551
a(S'no_np'
I2
tp552
a(S'w'
I1
tp553
a(S'no_ll'
I0
tp554
a(S'w'
I686
tp555
a(S'p1_vo'
I11
tp556
a(S'w'
I5
tp557
a(S'p2_vo'
I14
tp558
a(S'w'
I4
tp559
a(S'tr_lr'
I62
tp560
a(S'w'
I725
tp561
a(S'p1_vo'
I10
tp562
a(S'w'
I5
tp563
a(S'p2_vo'
I13
tp564
a(S'w'
I4
tp565
a(S'tr_lr'
I61
tp566
a(S'w'
I725
tp567
a(S'p1_vo'
I9
tp568
a(S'w'
I5
tp569
a(S'p2_vo'
I12
tp570
a(S'w'
I729
tp571
a(S'p1_vo'
I8
tp572
a(S'w'
I5
tp573
a(S'p2_vo'
I11
tp574
a(S'w'
I4
tp575
a(S'tr_lh'
I0
tp576
a(S'tr_lr'
I0
tp577
a(S'w'
I724
tp578
a(S'p1_vo'
I7
tp579
a(S'w'
I5
tp580
a(S'p2_vo'
I10
tp581
a(S'w'
I733
tp582
a(S'p1_vo'
I12
tp583
a(S'w'
I1
tp584
a(S'p1_du'
I0
tp585
a(S'p1_vo'
I0
tp586
a(S'w'
I10
tp587
a(S'p2_vo'
I15
tp588
a(S'w'
I1
tp589
a(S'p2_vo'
I0
tp590
a(S'w'
I8
tp591
a(S'tr_lh'
I1
tp592
a(S'tr_lr'
I63
tp593
a(S'w'
I3
tp594
a(S'tr_tl'
I142
tp595
a(S'w'
I1
tp596
a(S'tr_ll'
I1
tp597
a(S'tr_th'
I0
tp598
a(S'w'
I7
tp599
a(S'no_np'
I3
tp600
a(S'w'
I1
tp601
a(S'no_ll'
I0
tp602
a(S'w'
I704
tp603
a(S'tr_lr'
I62
tp604
a(S'w'
I734
tp605
a(S'tr_lr'
I61
tp606
a(S'w'
I1466
tp607
a(S'tr_lh'
I0
tp608
a(S'tr_lr'
I0
tp609
a(S'w'
I1467
tp610
a(S'p1_du'
I2
tp611
a(S'p1_vo'
I12
tp612
a(S'w'
I3
tp613
a(S'p1_tl'
I226
tp614
a(S'w'
I1
tp615
a(S'p1_ll'
I1
tp616
a(S'p1_th'
I0
tp617
a(S'w'
I10
tp618
a(S'p2_vo'
I15
tp619
a(S'w'
I4
tp620
a(S'p2_tl'
I190
tp621
a(S'w'
I9
tp622
a(S'tr_lh'
I1
tp623
a(S'tr_lr'
I63
tp624
a(S'w'
I3
tp625
a(S'tr_tl'
I13
tp626
a(S'w'
I1
tp627
a(S'tr_ll'
I1
tp628
a(S'tr_th'
I1
tp629
a(S'w'
I7
tp630
a(S'no_np'
I9
tp631
a(S'w'
I1
tp632
a(S'no_ll'
I0
tp633
a(S'w'
I691
tp634
a(S'p1_vo'
I11
tp635
a(S'w'
I5
tp636
a(S'p2_vo'
I14
tp637
a(S'w'
I4
tp638
a(S'tr_lr'
I62
tp639
a(S'w'
I725
tp640
a(S'p1_vo'
I10
tp641
a(S'w'
I5
tp642
a(S'p2_vo'
I13
tp643
a(S'w'
I4
tp644
a(S'tr_lr'
I61
tp645
a(S'w'
I724
tp646
a(S'p1_vo'
I9
tp647
a(S'w'
I5
tp648
a(S'p2_vo'
I12
tp649
a(S'w'
I729
tp650
a(S'p1_vo'
I8
tp651
a(S'w'
I5
tp652
a(S'p2_vo'
I11
tp653
a(S'w'
I4
tp654
a(S'tr_lh'
I0
tp655
a(S'tr_lr'
I0
tp656
a(S'w'
I725
tp657
a(S'p1_vo'
I7
tp658
a(S'w'
I5
tp659
a(S'p2_vo'
I10
tp660
a(S'w'
I733
tp661
a(S'p1_vo'
I12
tp662
a(S'w'
I4
tp663
a(S'p1_tl'
I190
tp664
a(S'w'
I11
tp665
a(S'p2_vo'
I15
tp666
a(S'w'
I3
tp667
a(S'p2_tl'
I160
tp668
a(S'w'
I10
tp669
a(S'tr_lh'
I1
tp670
a(S'tr_lr'
I63
tp671
a(S'w'
I3
tp672
a(S'tr_tl'
I134
tp673
a(S'w'
I1
tp674
a(S'tr_ll'
I1
tp675
a(S'tr_th'
I0
tp676
a(S'w'
I7
tp677
a(S'no_np'
I10
tp678
a(S'w'
I1
tp679
a(S'no_ll'
I0
tp680
a(S'w'
I690
tp681
a(S'p1_vo'
I11
tp682
a(S'w'
I5
tp683
a(S'p2_vo'
I14
tp684
a(S'w'
I4
tp685
a(S'tr_lr'
I62
tp686
a(S'w'
I724
tp687
a(S'p1_vo'
I10
tp688
a(S'w'
I5
tp689
a(S'p2_vo'
I13
tp690
a(S'w'
I4
tp691
a(S'tr_lr'
I61
tp692
a(S'w'
I725
tp693
a(S'p1_vo'
I9
tp694
a(S'w'
I5
tp695
a(S'p2_vo'
I12
tp696
a(S'w'
I729
tp697
a(S'p1_vo'
I8
tp698
a(S'w'
I5
tp699
a(S'p2_vo'
I11
tp700
a(S'w'
I4
tp701
a(S'tr_lh'
I0
tp702
a(S'tr_lr'
I0
tp703
a(S'w'
I725
tp704
a(S'p1_vo'
I7
tp705
a(S'w'
I5
tp706
a(S'p2_vo'
I10
tp707
a(S'w'
I733
tp708
a(S'p1_vo'
I12
tp709
a(S'w'
I1
tp710
a(S'p1_du'
I0
tp711
a(S'p1_vo'
I0
tp712
a(S'w'
I10
tp713
a(S'p2_vo'
I15
tp714
a(S'w'
I1
tp715
a(S'p2_vo'
I0
tp716
a(S'w'
I8
tp717
a(S'tr_lh'
I1
tp718
a(S'tr_lr'
I63
tp719
a(S'w'
I3
tp720
a(S'tr_tl'
I254
tp721
a(S'w'
I1
tp722
a(S'tr_ll'
I1
tp723
a(S'w'
I7
tp724
a(S'no_np'
I3
tp725
a(S'no_ll'
I0
tp726
a(S'w'
I704
tp727
a(S'tr_lr'
I62
tp728
a(S'w'
I734
tp729
a(S'tr_lr'
I61
tp730
a(S'w'
I1467
tp731
a(S'tr_lh'
I0
tp732
a(S'tr_lr'
I0
tp733
a(S'w'
I1466
tp734
a(S'p1_du'
I2
tp735
a(S'p1_vo'
I12
tp736
a(S'w'
I4
tp737
a(S'p1_tl'
I213
tp738
a(S'w'
I11
tp739
a(S'p2_vo'
I15
tp740
a(S'w'
I3
tp741
a(S'p2_tl'
I169
tp742
a(S'w'
I10
tp743
a(S'tr_lh'
I1
tp744
a(S'tr_lr'
I63
tp745
a(S'w'
I3
tp746
a(S'tr_tl'
I127
tp747
a(S'w'
I1
tp748
a(S'tr_ll'
I1
tp749
a(S'w'
I7
tp750
a(S'no_np'
I4
tp751
a(S'no_ll'
I0
tp752
a(S'w'
I691
tp753
a(S'p1_vo'
I11
tp754
a(S'w'
I5
tp755
a(S'p2_vo'
I14
tp756
a(S'w'
I4
tp757
a(S'tr_lr'
I62
tp758
a(S'w'
I725
tp759
a(S'p1_vo'
I10
tp760
a(S'w'
I5
tp761
a(S'p2_vo'
I13
tp762
a(S'w'
I4
tp763
a(S'tr_lr'
I61
tp764
a(S'w'
I725
tp765
a(S'p1_vo'
I9
tp766
a(S'w'
I5
tp767
a(S'p2_vo'
I12
tp768
a(S'w'
I728
tp769
a(S'p1_vo'
I8
tp770
a(S'w'
I5
tp771
a(S'p2_vo'
I11
tp772
a(S'w'
I4
tp773
a(S'tr_lh'
I0
tp774
a(S'tr_lr'
I0
tp775
a(S'w'
I725
tp776
a(S'p1_vo'
I7
tp777
a(S'w'
I5
tp778
a(S'p2_vo'
I10
tp779
a(S'w'
I733
tp780
a(S'p1_vo'
I12
tp781
a(S'w'
I3
tp782
a(S'p1_tl'
I226
tp783
a(S'w'
I11
tp784
a(S'p2_vo'
I15
tp785
a(S'w'
I4
tp786
a(S'p2_tl'
I190
tp787
a(S'w'
I9
tp788
a(S'tr_lh'
I1
tp789
a(S'tr_lr'
I63
tp790
a(S'w'
I3
tp791
a(S'tr_tl'
I226
tp792
a(S'w'
I1
tp793
a(S'tr_ll'
I1
tp794
a(S'w'
I7
tp795
a(S'no_np'
I5
tp796
a(S'w'
I1
tp797
a(S'no_ll'
I0
tp798
a(S'w'
I691
tp799
a(S'p1_vo'
I11
tp800
a(S'w'
I5
tp801
a(S'p2_vo'
I14
tp802
a(S'w'
I4
tp803
a(S'tr_lr'
I62
tp804
a(S'w'
I725
tp805
a(S'p1_vo'
I10
tp806
a(S'w'
I5
tp807
a(S'p2_vo'
I13
tp808
a(S'w'
I4
tp809
a(S'tr_lr'
I61
tp810
a(S'w'
I724
tp811
a(S'p1_vo'
I9
tp812
a(S'w'
I5
tp813
a(S'p2_vo'
I12
tp814
a(S'w'
I729
tp815
a(S'p1_vo'
I8
tp816
a(S'w'
I5
tp817
a(S'p2_vo'
I11
tp818
a(S'w'
I4
tp819
a(S'tr_lh'
I0
tp820
a(S'tr_lr'
I0
tp821
a(S'w'
I725
tp822
a(S'p1_vo'
I7
tp823
a(S'w'
I5
tp824
a(S'p2_vo'
I10
tp825
a(S'w'
I733
tp826
a(S'p1_vo'
I12
tp827
a(S'w'
I1
tp828
a(S'p1_du'
I0
tp829
a(S'p1_vo'
I0
tp830
a(S'w'
I10
tp831
a(S'p2_vo'
I15
tp832
a(S'w'
I1
tp833
a(S'p2_vo'
I0
tp834
a(S'w'
I8
tp835
a(S'tr_lh'
I1
tp836
a(S'tr_lr'
I63
tp837
a(S'w'
I3
tp838
a(S'tr_tl'
I113
tp839
a(S'w'
I1
tp840
a(S'tr_ll'
I1
tp841
a(S'w'
I7
tp842
a(S'no_np'
I6
tp843
a(S'w'
I1
tp844
a(S'no_ll'
I0
tp845
a(S'w'
I704
tp846
a(S'tr_lr'
I62
tp847
a(S'w'
I733
tp848
a(S'tr_lr'
I61
tp849
a(S'w'
I1467
tp850
a(S'tr_lh'
I0
tp851
a(S'tr_lr'
I0
tp852
a(S'w'
I1467
tp853
a(S'p1_du'
I2
tp854
a(S'p1_vo'
I12
tp855
a(S'w'
I3
tp856
a(S'p1_tl'
I29
tp857
a(S'w'
I1
tp858
a(S'p1_ll'
I1
tp859
a(S'p1_th'
I1
tp860
a(S'w'
I10
tp861
a(S'p2_vo'
I15
tp862
a(S'w'
I3
tp863
a(S'p2_tl'
I213
tp864
a(S'w'
I12
tp865
a(S'tr_lh'
I1
tp866
a(S'tr_lr'
I63
tp867
a(S'w'
I3
tp868
a(S'tr_tl'
I213
tp869
a(S'w'
I1
tp870
a(S'tr_ll'
I1
tp871
a(S'w'
I8
tp872
a(S'no_np'
I1
tp873
a(S'w'
I1
tp874
a(S'no_ll'
I0
tp875
a(S'w'
I687
tp876
a(S'p1_vo'
I11
tp877
a(S'w'
I5
tp878
a(S'p2_vo'
I14
tp879
a(S'w'
I4
tp880
a(S'tr_lr'
I62
tp881
a(S'w'
I725
tp882
a(S'p1_vo'
I10
tp883
a(S'w'
I5
tp884
a(S'p2_vo'
I13
tp885
a(S'w'
I4
tp886
a(S'tr_lr'
I61
tp887
a(S'w'
I729
tp888
a(S'p1_vo'
I12
tp889
a(S'w'
I3
tp890
a(S'p1_tl'
I213
tp891
a(S'w'
I2
tp892
a(S'p1_ll'
I1
tp893
a(S'p1_th'
I0
tp894
a(S'w'
I9
tp895
a(S'p2_vo'
I15
tp896
a(S'w'
I3
tp897
a(S'p2_tl'
I169
tp898
a(S'w'
I12
tp899
a(S'no_np'
I2
tp900
a(S'w'
I1
tp901
a(S'no_ll'
I0
tp902
a(S'w'
I700
tp903
a(S'p1_vo'
I11
tp904
a(S'w'
I5
tp905
a(S'p2_vo'
I14
tp906
a(S'w'
I728
tp907
a(S'p1_vo'
I10
tp908
a(S'w'
I5
tp909
a(S'p2_vo'
I13
tp910
a(S'w'
I733
tp911
a(S'p1_vo'
I12
tp912
a(S'w'
I3
tp913
a(S'p1_tl'
I169
tp914
a(S'w'
I11
tp915
a(S'p2_vo'
I15
tp916
a(S'w'
I3
tp917
a(S'p2_tl'
I142
tp918
a(S'w'
I12
tp919
a(S'no_np'
I3
tp920
a(S'w'
I1
tp921
a(S'no_ll'
I0
tp922
a(S'w'
I700
tp923
a(S'p1_vo'
I11
tp924
a(S'w'
I5
tp925
a(S'p2_vo'
I14
tp926
a(S'w'
I729
tp927
a(S'p1_vo'
I10
tp928
a(S'w'
I5
tp929
a(S'p2_vo'
I13
tp930
a(S'w'
I733
tp931
a(S'p1_vo'
I12
tp932
a(S'w'
I3
tp933
a(S'p1_tl'
I142
tp934
a(S'w'
I11
tp935
a(S'p2_vo'
I15
tp936
a(S'w'
I4
tp937
a(S'p2_tl'
I106
tp938
a(S'w'
I12
tp939
a(S'no_np'
I4
tp940
a(S'w'
I1
tp941
a(S'no_ll'
I0
tp942
a(S'w'
I698
tp943
a(S'p1_vo'
I11
tp944
a(S'w'
I5
tp945
a(S'p2_vo'
I14
tp946
a(S'w'
I729
tp947
a(S'p1_vo'
I10
tp948
a(S'w'
I5
tp949
a(S'p2_vo'
I13
tp950
a(S'w'
I733
tp951
a(S'p1_vo'
I12
tp952
a(S'w'
I3
tp953
a(S'p1_tl'
I213
tp954
a(S'w'
I11
tp955
a(S'p2_vo'
I15
tp956
a(S'w'
I4
tp957
a(S'p2_tl'
I169
tp958
a(S'w'
I11
tp959
a(S'no_np'
I5
tp960
a(S'w'
I1
tp961
a(S'no_ll'
I0
tp962
a(S'w'
I700
tp963
a(S'p1_vo'
I11
tp964
a(S'w'
I5
tp965
a(S'p2_vo'
I14
tp966
a(S'w'
I729
tp967
a(S'p1_vo'
I10
tp968
a(S'w'
I5
tp969
a(S'p2_vo'
I13
tp970
a(S'w'
I732
tp971
a(S'p1_vo'
I12
tp972
a(S'w'
I3
tp973
a(S'p1_tl'
I169
tp974
a(S'w'
I11
tp975
a(S'p2_vo'
I15
tp976
a(S'w'
I3
tp977
a(S'p2_tl'
I142
tp978
a(S'w'
I12
tp979
a(S'no_np'
I6
tp980
a(S'w'
I1
tp981
a(S'no_ll'
I0
tp982
a(S'w'
I700
tp983
a(S'p1_vo'
I11
tp984
a(S'w'
I5
tp985
a(S'p2_vo'
I14
tp986
a(S'w'
I729
tp987
a(S'p1_vo'
I10
tp988
a(S'w'
I5
tp989
a(S'p2_vo'
I13
tp990
a(S'w'
I733
tp991
a(S'p1_vo'
I12
tp992
a(S'w'
I3
tp993
a(S'p1_tl'
I142
tp994
a(S'w'
I11
tp995
a(S'p2_vo'
I15
tp996
a(S'w'
I4
tp997
a(S'p2_tl'
I106
tp998
a(S'w'
I12
tp999
a(S'no_np'
I7
tp1000
a(S'w'
I1
tp1001
a(S'no_ll'
I0
tp1002
a(S'w'
I699
tp1003
a(S'p1_vo'
I11
tp1004
a(S'w'
I5
tp1005
a(S'p2_vo'
I14
tp1006
a(S'w'
I728
tp1007
a(S'p1_vo'
I10
tp1008
a(S'w'
I5
tp1009
a(S'p2_vo'
I13
tp1010
a(S'w'
I733
tp1011
a(S'p1_vo'
I12
tp1012
a(S'w'
I4
tp1013
a(S'p1_tl'
I106
tp1014
a(S'w'
I11
tp1015
a(S'p2_vo'
I15
tp1016
a(S'w'
I3
tp1017
a(S'p2_tl'
I84
tp1018
a(S'w'
I12
tp1019
a(S'no_np'
I8
tp1020
a(S'w'
I1
tp1021
a(S'no_ll'
I0
tp1022
a(S'w'
I699
tp1023
a(S'p1_vo'
I11
tp1024
a(S'w'
I5
tp1025
a(S'p2_vo'
I14
tp1026
a(S'w'
I4
tp1027
a(S'tr_lh'
I0
tp1028
a(S'tr_lr'
I0
tp1029
a(S'w'
I725
tp1030
a(S'p1_vo'
I10
tp1031
a(S'w'
I5
tp1032
a(S'p2_vo'
I13
tp1033
a(S'w'
I735
tp1034
a(S'p1_vo'
I12
tp1035
a(S'w'
I4
tp1036
a(S'p1_tl'
I84
tp1037
a(S'w'
I13
tp1038
a(S'p2_vo'
I15
tp1039
a(S'w'
I3
tp1040
a(S'p2_tl'
I71
tp1041
a(S'w'
I12
tp1042
a(S'tr_lh'
I1
tp1043
a(S'tr_lr'
I63
tp1044
a(S'w'
I4
tp1045
a(S'tr_tl'
I106
tp1046
a(S'w'
I1
tp1047
a(S'tr_ll'
I1
tp1048
a(S'w'
I6
tp1049
a(S'no_lh'
I1
tp1050
a(S'no_vo'
I4
tp1051
a(S'w'
I2
tp1052
a(S'w'
I1
tp1053
a(S'no_ll'
I0
tp1054
a(S'w'
I681
tp1055
a(S'p1_vo'
I11
tp1056
a(S'w'
I5
tp1057
a(S'p2_vo'
I14
tp1058
a(S'w'
I4
tp1059
a(S'tr_lr'
I62
tp1060
a(S'w'
I725
tp1061
a(S'p1_vo'
I10
tp1062
a(S'w'
I5
tp1063
a(S'p2_vo'
I13
tp1064
a(S'w'
I4
tp1065
a(S'tr_lr'
I61
tp1066
a(S'w'
I725
tp1067
a(S'p1_vo'
I9
tp1068
a(S'w'
I5
tp1069
a(S'p2_vo'
I12
tp1070
a(S'w'
I729
tp1071
a(S'p1_vo'
I8
tp1072
a(S'w'
I5
tp1073
a(S'p2_vo'
I11
tp1074
a(S'w'
I728
tp1075
a(S'p1_vo'
I7
tp1076
a(S'w'
I5
tp1077
a(S'p2_vo'
I10
tp1078
a(S'w'
I11002
tp1079
a(S'p1_vo'
I6
tp1080
a(S'w'
I5
tp1081
a(S'p2_vo'
I9
tp1082
a(S'w'
I729
tp1083
a(S'p1_vo'
I5
tp1084
a(S'w'
I5
tp1085
a(S'p2_vo'
I8
tp1086
a(S'w'
I729
tp1087
a(S'p1_vo'
I4
tp1088
a(S'w'
I5
tp1089
a(S'p2_vo'
I7
tp1090
a(S'w'
I4
tp1091
a(S'tr_lh'
I0
tp1092
a(S'tr_lr'
I0
tp1093
a(S'w'
I725
tp1094
a(S'p1_vo'
I3
tp1095
a(S'w'
I5
tp1096
a(S'p2_vo'
I6
tp1097
a(S'w'
I728
tp1098
a(S'p1_du'
I0
tp1099
a(S'p1_vo'
I0
tp1100
a(S'p1_sp'
I3
tp1101
a(S'w'
I4
tp1102
a(S'p2_vo'
I0
tp1103
a(S'w'
I1
tp1104
a(S'p2_sp'
I3
tp1105
a(S'w'
I8
tp1106
a(S'no_cv'
I1
tp1107
a(S'no_vo'
I0
tp1108
a(S'w'
I49558
tp1109
a.