(lp1
(S'clock'
p2
I1789772
tp3
a(S'fc_mo'
I1
tp4
a(S'p1_lh'
I1
tp5
a(S'p1_cv'
I1
tp6
a(S'p1_sp'
I3
tp7
a(S'p2_lh'
I1
tp8
a(S'p2_cv'
I1
tp9
a(S'p2_sp'
I3
tp10
a(S'no_lh'
I1
tp11
a(S'no_cv'
I1
tp12
a(S'w'
I7
tp13
a(S'p1_sp'
I0
tp14
a(S'w'
I5
tp15
a(S'p1_du'
I2
tp16
a(S'p1_vo'
I8
tp17
a(S'w'
I3
tp18
a(S'p1_tl'
I213
tp19
a(S'w'
I2
tp20
a(S'p1_ll'
I1
tp21
a(S'w'
I7
tp22
a(S'p2_sp'
I0
tp23
a(S'w'
I5
tp24
a(S'p2_du'
I1
tp25
a(S'p2_lh'
I0
tp26
a(S'p2_cv'
I0
tp27
a(S'p2_vo'
I12
tp28
a(S'w'
I3
tp29
a(S'p2_tl'
I142
tp30
a(S'w'
I2
tp31
a(S'p2_ll'
I1
tp32
a(S'w'
I11
tp33
a(S'tr_lh'
I1
tp34
a(S'tr_lr'
I63
tp35
a(S'w'
I2
tp36
a(S'tr_tl'
I171
tp37
a(S'w'
I1
tp38
a(S'tr_ll'
I1
tp39
a(S'tr_th'
I1
tp40
a(S'w'
I7
tp41
a(S'no_cv'
I0
tp42
a(S'no_vo'
I1
tp43
a(S'w'
I2
tp44
a(S'no_np'
I2
tp45
a(S'w'
I1
tp46
a(S'no_ll'
I3
tp47
a(S'w'
I681
tp48
a(S'p1_vo'
I7
tp49
a(S'w'
I8
tp50
a(S'tr_lr'
I62
tp51
a(S'w'
I726
tp52
a(S'p1_vo'
I6
tp53
a(S'w'
I8
tp54
a(S'tr_lr'
I61
tp55
a(S'w'
I1460
tp56
a(S'p1_vo'
I5
tp57
a(S'w'
I7
tp58
a(S'tr_lh'
I0
tp59
a(S'tr_lr'
I0
tp60
a(S'w'
I726
tp61
a(S'p1_vo'
I4
tp62
a(S'w'
I738
tp63
a(S'p1_vo'
I8
tp64
a(S'w'
I4
tp65
a(S'p1_tl'
I190
tp66
a(S'w'
I11
tp67
a(S'p2_du'
I0
tp68
a(S'p2_lh'
I1
tp69
a(S'p2_cv'
I1
tp70
a(S'p2_vo'
I0
tp71
a(S'w'
I9
tp72
a(S'tr_lh'
I1
tp73
a(S'tr_lr'
I63
tp74
a(S'w'
I2
tp75
a(S'tr_tl'
I83
tp76
a(S'w'
I1
tp77
a(S'tr_ll'
I1
tp78
a(S'w'
I7
tp79
a(S'no_np'
I3
tp80
a(S'w'
I1
tp81
a(S'no_ll'
I3
tp82
a(S'w'
I695
tp83
a(S'p1_vo'
I7
tp84
a(S'w'
I7
tp85
a(S'tr_lr'
I62
tp86
a(S'w'
I727
tp87
a(S'p1_vo'
I6
tp88
a(S'w'
I7
tp89
a(S'tr_lr'
I61
tp90
a(S'w'
I1460
tp91
a(S'p1_vo'
I5
tp92
a(S'w'
I7
tp93
a(S'tr_lh'
I0
tp94
a(S'tr_lr'
I0
tp95
a(S'w'
I727
tp96
a(S'p1_vo'
I4
tp97
a(S'w'
I738
tp98
a(S'p1_vo'
I8
tp99
a(S'w'
I4
tp100
a(S'p1_tl'
I213
tp101
a(S'w'
I10
tp102
a(S'p2_du'
I1
tp103
a(S'p2_lh'
I0
tp104
a(S'p2_cv'
I0
tp105
a(S'p2_vo'
I12
tp106
a(S'w'
I4
tp107
a(S'w'
I1
tp108
a(S'p2_ll'
I1
tp109
a(S'w'
I9
tp110
a(S'tr_lh'
I1
tp111
a(S'tr_lr'
I63
tp112
a(S'w'
I2
tp113
a(S'tr_tl'
I29
tp114
a(S'w'
I1
tp115
a(S'tr_ll'
I1
tp116
a(S'w'
I7
tp117
a(S'no_np'
I4
tp118
a(S'w'
I1
tp119
a(S'no_ll'
I3
tp120
a(S'w'
I691
tp121
a(S'p1_vo'
I7
tp122
a(S'w'
I8
tp123
a(S'tr_lr'
I62
tp124
a(S'w'
I726
tp125
a(S'p1_vo'
I6
tp126
a(S'w'
I8
tp127
a(S'tr_lr'
I61
tp128
a(S'w'
I1459
tp129
a(S'p1_vo'
I5
tp130
a(S'w'
I7
tp131
a(S'tr_lh'
I0
tp132
a(S'tr_lr'
I0
tp133
a(S'w'
I727
tp134
a(S'p1_vo'
I4
tp135
a(S'w'
I738
tp136
a(S'p1_vo'
I8
tp137
a(S'w'
I4
tp138
a(S'p1_tl'
I190
tp139
a(S'w'
I11
tp140
a(S'p2_du'
I0
tp141
a(S'p2_lh'
I1
tp142
a(S'p2_cv'
I1
tp143
a(S'p2_vo'
I0
tp144
a(S'w'
I9
tp145
a(S'tr_lh'
I1
tp146
a(S'tr_lr'
I63
tp147
a(S'w'
I3
tp148
a(S'tr_tl'
I213
tp149
a(S'w'
I1
tp150
a(S'tr_ll'
I1
tp151
a(S'tr_th'
I0
tp152
a(S'w'
I7
tp153
a(S'no_np'
I6
tp154
a(S'w'
I1
tp155
a(S'no_ll'
I3
tp156
a(S'w'
I694
tp157
a(S'p1_vo'
I7
tp158
a(S'w'
I7
tp159
a(S'tr_lr'
I62
tp160
a(S'w'
I726
tp161
a(S'p1_vo'
I6
tp162
a(S'w'
I7
tp163
a(S'tr_lr'
I61
tp164
a(S'w'
I1461
tp165
a(S'p1_vo'
I5
tp166
a(S'w'
I7
tp167
a(S'tr_lh'
I0
tp168
a(S'tr_lr'
I0
tp169
a(S'w'
I727
tp170
a(S'p1_vo'
I4
tp171
a(S'w'
I738
tp172
a(S'p1_vo'
I8
tp173
a(S'w'
I4
tp174
a(S'w'
I11
tp175
a(S'p2_du'
I1
tp176
a(S'p2_lh'
I0
tp177
a(S'p2_cv'
I0
tp178
a(S'p2_vo'
I12
tp179
a(S'w'
I4
tp180
a(S'p2_tl'
I106
tp181
a(S'w'
I1
tp182
a(S'p2_ll'
I1
tp183
a(S'w'
I9
tp184
a(S'tr_lh'
I1
tp185
a(S'tr_lr'
I63
tp186
a(S'w'
I3
tp187
a(S'tr_tl'
I171
tp188
a(S'w'
I1
tp189
a(S'tr_ll'
I1
tp190
a(S'tr_th'
I1
tp191
a(S'w'
I12
tp192
a(S'no_np'
I2
tp193
a(S'w'
I1
tp194
a(S'no_ll'
I3
tp195
a(S'w'
I683
tp196
a(S'p1_vo'
I7
tp197
a(S'w'
I8
tp198
a(S'tr_lr'
I62
tp199
a(S'w'
I726
tp200
a(S'p1_vo'
I6
tp201
a(S'w'
I8
tp202
a(S'tr_lr'
I61
tp203
a(S'w'
I1460
tp204
a(S'p1_vo'
I5
tp205
a(S'w'
I7
tp206
a(S'tr_lh'
I0
tp207
a(S'tr_lr'
I0
tp208
a(S'w'
I726
tp209
a(S'p1_vo'
I4
tp210
a(S'w'
I738
tp211
a(S'p1_vo'
I8
tp212
a(S'w'
I4
tp213
a(S'p1_tl'
I169
tp214
a(S'w'
I13
tp215
a(S'tr_lh'
I1
tp216
a(S'tr_lr'
I63
tp217
a(S'w'
I3
tp218
a(S'tr_tl'
I83
tp219
a(S'tr_ll'
I1
tp220
a(S'w'
I7
tp221
a(S'no_np'
I3
tp222
a(S'w'
I1
tp223
a(S'no_ll'
I3
tp224
a(S'w'
I702
tp225
a(S'p1_vo'
I7
tp226
a(S'w'
I8
tp227
a(S'tr_lr'
I62
tp228
a(S'w'
I726
tp229
a(S'p1_vo'
I6
tp230
a(S'w'
I8
tp231
a(S'tr_lr'
I61
tp232
a(S'w'
I1459
tp233
a(S'p1_vo'
I5
tp234
a(S'w'
I7
tp235
a(S'tr_lh'
I0
tp236
a(S'tr_lr'
I0
tp237
a(S'w'
I727
tp238
a(S'p1_vo'
I4
tp239
a(S'w'
I738
tp240
a(S'p1_vo'
I8
tp241
a(S'w'
I4
tp242
a(S'p1_tl'
I190
tp243
a(S'w'
I12
tp244
a(S'p2_du'
I0
tp245
a(S'p2_lh'
I1
tp246
a(S'p2_cv'
I1
tp247
a(S'p2_vo'
I0
tp248
a(S'w'
I8
tp249
a(S'tr_lh'
I1
tp250
a(S'tr_lr'
I63
tp251
a(S'w'
I3
tp252
a(S'tr_tl'
I29
tp253
a(S'w'
I1
tp254
a(S'tr_ll'
I1
tp255
a(S'w'
I7
tp256
a(S'no_np'
I4
tp257
a(S'w'
I1
tp258
a(S'no_ll'
I3
tp259
a(S'w'
I694
tp260
a(S'p1_vo'
I7
tp261
a(S'w'
I7
tp262
a(S'tr_lr'
I62
tp263
a(S'w'
I727
tp264
a(S'p1_vo'
I6
tp265
a(S'w'
I7
tp266
a(S'tr_lr'
I61
tp267
a(S'w'
I1460
tp268
a(S'p1_vo'
I5
tp269
a(S'w'
I7
tp270
a(S'tr_lh'
I0
tp271
a(S'tr_lr'
I0
tp272
a(S'w'
I727
tp273
a(S'p1_vo'
I4
tp274
a(S'w'
I738
tp275
a(S'p1_vo'
I8
tp276
a(S'w'
I4
tp277
a(S'p1_tl'
I169
tp278
a(S'w'
I13
tp279
a(S'tr_lh'
I1
tp280
a(S'tr_lr'
I63
tp281
a(S'w'
I3
tp282
a(S'tr_tl'
I213
tp283
a(S'w'
I1
tp284
a(S'tr_ll'
I1
tp285
a(S'tr_th'
I0
tp286
a(S'w'
I7
tp287
a(S'no_np'
I6
tp288
a(S'w'
I1
tp289
a(S'no_ll'
I3
tp290
a(S'w'
I701
tp291
a(S'p1_vo'
I7
tp292
a(S'w'
I7
tp293
a(S'tr_lr'
I62
tp294
a(S'w'
I726
tp295
a(S'p1_vo'
I6
tp296
a(S'w'
I7
tp297
a(S'tr_lr'
I61
tp298
a(S'w'
I1461
tp299
a(S'p1_vo'
I5
tp300
a(S'w'
I7
tp301
a(S'tr_lh'
I0
tp302
a(S'tr_lr'
I0
tp303
a(S'w'
I727
tp304
a(S'p1_vo'
I4
tp305
a(S'w'
I738
tp306
a(S'p1_vo'
I8
tp307
a(S'w'
I4
tp308
a(S'w'
I11
tp309
a(S'p2_du'
I1
tp310
a(S'p2_lh'
I0
tp311
a(S'p2_cv'
I0
tp312
a(S'p2_vo'
I12
tp313
a(S'w'
I4
tp314
a(S'p2_tl'
I127
tp315
a(S'w'
I1
tp316
a(S'p2_ll'
I1
tp317
a(S'w'
I8
tp318
a(S'tr_lh'
I1
tp319
a(S'tr_lr'
I63
tp320
a(S'w'
I3
tp321
a(S'tr_tl'
I125
tp322
a(S'w'
I1
tp323
a(S'tr_ll'
I1
tp324
a(S'tr_th'
I1
tp325
a(S'w'
I13
tp326
a(S'no_np'
I2
tp327
a(S'w'
I1
tp328
a(S'no_ll'
I3
tp329
a(S'w'
I683
tp330
a(S'p1_vo'
I7
tp331
a(S'w'
I8
tp332
a(S'tr_lr'
I62
tp333
a(S'w'
I726
tp334
a(S'p1_vo'
I6
tp335
a(S'w'
I8
tp336
a(S'tr_lr'
I61
tp337
a(S'w'
I1460
tp338
a(S'p1_vo'
I5
tp339
a(S'w'
I7
tp340
a(S'tr_lh'
I0
tp341
a(S'tr_lr'
I0
tp342
a(S'w'
I726
tp343
a(S'p1_vo'
I4
tp344
a(S'w'
I738
tp345
a(S'p1_vo'
I8
tp346
a(S'w'
I4
tp347
a(S'p1_tl'
I160
tp348
a(S'w'
I13
tp349
a(S'tr_lh'
I1
tp350
a(S'tr_lr'
I63
tp351
a(S'w'
I3
tp352
a(S'tr_tl'
I64
tp353
a(S'tr_ll'
I1
tp354
a(S'w'
I7
tp355
a(S'no_np'
I3
tp356
a(S'w'
I1
tp357
a(S'no_ll'
I3
tp358
a(S'w'
I702
tp359
a(S'p1_vo'
I7
tp360
a(S'w'
I8
tp361
a(S'tr_lr'
I62
tp362
a(S'w'
I726
tp363
a(S'p1_vo'
I6
tp364
a(S'w'
I8
tp365
a(S'tr_lr'
I61
tp366
a(S'w'
I1459
tp367
a(S'p1_vo'
I5
tp368
a(S'w'
I7
tp369
a(S'tr_lh'
I0
tp370
a(S'tr_lr'
I0
tp371
a(S'w'
I727
tp372
a(S'p1_vo'
I4
tp373
a(S'w'
I738
tp374
a(S'p1_vo'
I8
tp375
a(S'w'
I4
tp376
a(S'p1_tl'
I169
tp377
a(S'w'
I12
tp378
a(S'p2_du'
I0
tp379
a(S'p2_lh'
I1
tp380
a(S'p2_cv'
I1
tp381
a(S'p2_vo'
I0
tp382
a(S'w'
I8
tp383
a(S'tr_lh'
I1
tp384
a(S'tr_lr'
I63
tp385
a(S'w'
I3
tp386
a(S'tr_tl'
I254
tp387
a(S'w'
I1
tp388
a(S'tr_ll'
I1
tp389
a(S'tr_th'
I0
tp390
a(S'w'
I7
tp391
a(S'no_np'
I4
tp392
a(S'w'
I1
tp393
a(S'no_ll'
I3
tp394
a(S'w'
I694
tp395
a(S'p1_vo'
I7
tp396
a(S'w'
I7
tp397
a(S'tr_lr'
I62
tp398
a(S'w'
I727
tp399
a(S'p1_vo'
I6
tp400
a(S'w'
I7
tp401
a(S'tr_lr'
I61
tp402
a(S'w'
I1460
tp403
a(S'p1_vo'
I5
tp404
a(S'w'
I7
tp405
a(S'tr_lh'
I0
tp406
a(S'tr_lr'
I0
tp407
a(S'w'
I727
tp408
a(S'p1_vo'
I4
tp409
a(S'w'
I738
tp410
a(S'p1_vo'
I8
tp411
a(S'w'
I4
tp412
a(S'p1_tl'
I160
tp413
a(S'w'
I13
tp414
a(S'tr_lh'
I1
tp415
a(S'tr_lr'
I63
tp416
a(S'w'
I3
tp417
a(S'tr_tl'
I190
tp418
a(S'w'
I1
tp419
a(S'tr_ll'
I1
tp420
a(S'w'
I7
tp421
a(S'no_np'
I6
tp422
a(S'w'
I1
tp423
a(S'no_ll'
I3
tp424
a(S'w'
I701
tp425
a(S'p1_vo'
I7
tp426
a(S'w'
I7
tp427
a(S'tr_lr'
I62
tp428
a(S'w'
I726
tp429
a(S'p1_vo'
I6
tp430
a(S'w'
I7
tp431
a(S'tr_lr'
I61
tp432
a(S'w'
I1461
tp433
a(S'p1_vo'
I5
tp434
a(S'w'
I7
tp435
a(S'tr_lh'
I0
tp436
a(S'tr_lr'
I0
tp437
a(S'w'
I727
tp438
a(S'p1_vo'
I4
tp439
a(S'w'
I738
tp440
a(S'p1_vo'
I8
tp441
a(S'w'
I4
tp442
a(S'w'
I11
tp443
a(S'p2_du'
I1
tp444
a(S'p2_lh'
I0
tp445
a(S'p2_cv'
I0
tp446
a(S'p2_vo'
I12
tp447
a(S'w'
I4
tp448
a(S'p2_tl'
I106
tp449
a(S'w'
I1
tp450
a(S'p2_ll'
I1
tp451
a(S'w'
I9
tp452
a(S'tr_lh'
I1
tp453
a(S'tr_lr'
I63
tp454
a(S'w'
I3
tp455
a(S'tr_tl'
I125
tp456
a(S'w'
I1
tp457
a(S'tr_ll'
I1
tp458
a(S'tr_th'
I1
tp459
a(S'w'
I13
tp460
a(S'no_np'
I2
tp461
a(S'w'
I1
tp462
a(S'no_ll'
I3
tp463
a(S'w'
I682
tp464
a(S'p1_vo'
I7
tp465
a(S'w'
I8
tp466
a(S'tr_lr'
I62
tp467
a(S'w'
I726
tp468
a(S'p1_vo'
I6
tp469
a(S'w'
I8
tp470
a(S'tr_lr'
I61
tp471
a(S'w'
I1460
tp472
a(S'p1_vo'
I5
tp473
a(S'w'
I7
tp474
a(S'tr_lh'
I0
tp475
a(S'tr_lr'
I0
tp476
a(S'w'
I726
tp477
a(S'p1_vo'
I4
tp478
a(S'w'
I738
tp479
a(S'p1_vo'
I8
tp480
a(S'w'
I4
tp481
a(S'p1_tl'
I142
tp482
a(S'w'
I13
tp483
a(S'tr_lh'
I1
tp484
a(S'tr_lr'
I63
tp485
a(S'w'
I3
tp486
a(S'tr_tl'
I64
tp487
a(S'tr_ll'
I1
tp488
a(S'w'
I7
tp489
a(S'no_np'
I3
tp490
a(S'w'
I1
tp491
a(S'no_ll'
I3
tp492
a(S'w'
I702
tp493
a(S'p1_vo'
I7
tp494
a(S'w'
I8
tp495
a(S'tr_lr'
I62
tp496
a(S'w'
I726
tp497
a(S'p1_vo'
I6
tp498
a(S'w'
I8
tp499
a(S'tr_lr'
I61
tp500
a(S'w'
I1459
tp501
a(S'p1_vo'
I5
tp502
a(S'w'
I7
tp503
a(S'tr_lh'
I0
tp504
a(S'tr_lr'
I0
tp505
a(S'w'
I727
tp506
a(S'p1_vo'
I4
tp507
a(S'w'
I738
tp508
a(S'p1_vo'
I8
tp509
a(S'w'
I4
tp510
a(S'p1_tl'
I160
tp511
a(S'w'
I15
tp512
a(S'p2_tl'
I95
tp513
a(S'w'
I1
tp514
a(S'p2_ll'
I1
tp515
a(S'w'
I9
tp516
a(S'tr_lh'
I1
tp517
a(S'tr_lr'
I63
tp518
a(S'w'
I2
tp519
a(S'tr_tl'
I254
tp520
a(S'w'
I1
tp521
a(S'tr_ll'
I1
tp522
a(S'tr_th'
I0
tp523
a(S'w'
I7
tp524
a(S'no_np'
I4
tp525
a(S'w'
I1
tp526
a(S'no_ll'
I3
tp527
a(S'w'
I690
tp528
a(S'p1_vo'
I7
tp529
a(S'w'
I8
tp530
a(S'tr_lr'
I62
tp531
a(S'w'
I726
tp532
a(S'p1_vo'
I6
tp533
a(S'w'
I8
tp534
a(S'tr_lr'
I61
tp535
a(S'w'
I1459
tp536
a(S'p1_vo'
I5
tp537
a(S'w'
I7
tp538
a(S'tr_lh'
I0
tp539
a(S'tr_lr'
I0
tp540
a(S'w'
I727
tp541
a(S'p1_vo'
I4
tp542
a(S'w'
I738
tp543
a(S'p1_vo'
I8
tp544
a(S'w'
I4
tp545
a(S'p1_tl'
I142
tp546
a(S'w'
I13
tp547
a(S'tr_lh'
I1
tp548
a(S'tr_lr'
I63
tp549
a(S'w'
I3
tp550
a(S'tr_tl'
I190
tp551
a(S'w'
I1
tp552
a(S'tr_ll'
I1
tp553
a(S'w'
I7
tp554
a(S'no_np'
I6
tp555
a(S'w'
I1
tp556
a(S'no_ll'
I3
tp557
a(S'w'
I701
tp558
a(S'p1_vo'
I7
tp559
a(S'w'
I8
tp560
a(S'tr_lr'
I62
tp561
a(S'w'
I725
tp562
a(S'p1_vo'
I6
tp563
a(S'w'
I8
tp564
a(S'tr_lr'
I61
tp565
a(S'w'
I1460
tp566
a(S'p1_vo'
I5
tp567
a(S'w'
I7
tp568
a(S'tr_lh'
I0
tp569
a(S'tr_lr'
I0
tp570
a(S'w'
I727
tp571
a(S'p1_vo'
I4
tp572
a(S'w'
I741
tp573
a(S'p1_vo'
I8
tp574
a(S'w'
I3
tp575
a(S'p1_tl'
I134
tp576
a(S'w'
I14
tp577
a(S'p2_tl'
I89
tp578
a(S'w'
I2
tp579
a(S'p2_ll'
I1
tp580
a(S'w'
I8
tp581
a(S'tr_lh'
I1
tp582
a(S'tr_lr'
I63
tp583
a(S'w'
I3
tp584
a(S'tr_tl'
I13
tp585
a(S'w'
I1
tp586
a(S'tr_ll'
I1
tp587
a(S'tr_th'
I1
tp588
a(S'w'
I11
tp589
a(S'no_np'
I8
tp590
a(S'w'
I1
tp591
a(S'no_ll'
I3
tp592
a(S'w'
I683
tp593
a(S'p1_vo'
I7
tp594
a(S'w'
I8
tp595
a(S'tr_lr'
I62
tp596
a(S'w'
I726
tp597
a(S'p1_vo'
I6
tp598
a(S'w'
I8
tp599
a(S'tr_lr'
I61
tp600
a(S'w'
I730
tp601
a(S'p1_vo'
I8
tp602
a(S'w'
I1
tp603
a(S'p1_du'
I0
tp604
a(S'p1_vo'
I0
tp605
a(S'w'
I10
tp606
a(S'p2_du'
I0
tp607
a(S'p2_lh'
I1
tp608
a(S'p2_cv'
I1
tp609
a(S'p2_vo'
I0
tp610
a(S'w'
I8
tp611
a(S'tr_lr'
I63
tp612
a(S'w'
I1
tp613
a(S'tr_lh'
I0
tp614
a(S'tr_lr'
I0
tp615
a(S'w'
I2181
tp616
a(S'p1_du'
I2
tp617
a(S'p1_vo'
I8
tp618
a(S'w'
I4
tp619
a(S'w'
I10
tp620
a(S'p2_du'
I1
tp621
a(S'p2_lh'
I0
tp622
a(S'p2_cv'
I0
tp623
a(S'p2_vo'
I12
tp624
a(S'w'
I4
tp625
a(S'w'
I2
tp626
a(S'p2_ll'
I1
tp627
a(S'w'
I8
tp628
a(S'tr_lh'
I1
tp629
a(S'tr_lr'
I63
tp630
a(S'w'
I4
tp631
a(S'tr_ll'
I1
tp632
a(S'w'
I6
tp633
a(S'w'
I1
tp634
a(S'no_ll'
I3
tp635
a(S'w'
I691
tp636
a(S'p1_vo'
I7
tp637
a(S'w'
I8
tp638
a(S'tr_lr'
I62
tp639
a(S'w'
I726
tp640
a(S'p1_vo'
I6
tp641
a(S'w'
I8
tp642
a(S'tr_lr'
I61
tp643
a(S'w'
I726
tp644
a(S'p1_vo'
I5
tp645
a(S'w'
I733
tp646
a(S'p1_vo'
I4
tp647
a(S'w'
I7
tp648
a(S'tr_lh'
I0
tp649
a(S'tr_lr'
I0
tp650
a(S'w'
I727
tp651
a(S'p1_vo'
I3
tp652
a(S'w'
I738
tp653
a(S'p1_vo'
I8
tp654
a(S'w'
I1
tp655
a(S'p1_du'
I0
tp656
a(S'p1_vo'
I0
tp657
a(S'w'
I11
tp658
a(S'p2_du'
I0
tp659
a(S'p2_lh'
I1
tp660
a(S'p2_cv'
I1
tp661
a(S'p2_vo'
I0
tp662
a(S'w'
I8
tp663
a(S'tr_lh'
I1
tp664
a(S'tr_lr'
I63
tp665
a(S'w'
I1
tp666
a(S'tr_lh'
I0
tp667
a(S'tr_lr'
I0
tp668
a(S'w'
I6
tp669
a(S'no_np'
I1
tp670
a(S'w'
I1
tp671
a(S'no_ll'
I3
tp672
a(S'w'
I4375
tp673
a(S'p1_du'
I2
tp674
a(S'p1_vo'
I8
tp675
a(S'w'
I4
tp676
a(S'w'
I10
tp677
a(S'p2_du'
I1
tp678
a(S'p2_lh'
I0
tp679
a(S'p2_cv'
I0
tp680
a(S'p2_vo'
I12
tp681
a(S'w'
I4
tp682
a(S'w'
I2
tp683
a(S'p2_ll'
I1
tp684
a(S'w'
I8
tp685
a(S'tr_lh'
I1
tp686
a(S'tr_lr'
I63
tp687
a(S'w'
I4
tp688
a(S'tr_ll'
I1
tp689
a(S'w'
I6
tp690
a(S'no_np'
I8
tp691
a(S'w'
I1
tp692
a(S'no_ll'
I3
tp693
a(S'w'
I691
tp694
a(S'p1_vo'
I7
tp695
a(S'w'
I8
tp696
a(S'tr_lr'
I62
tp697
a(S'w'
I725
tp698
a(S'p1_vo'
I6
tp699
a(S'w'
I8
tp700
a(S'tr_lr'
I61
tp701
a(S'w'
I726
tp702
a(S'p1_vo'
I5
tp703
a(S'w'
I734
tp704
a(S'p1_vo'
I4
tp705
a(S'w'
I7
tp706
a(S'tr_lh'
I0
tp707
a(S'tr_lr'
I0
tp708
a(S'w'
I727
tp709
a(S'p1_vo'
I3
tp710
a(S'w'
I738
tp711
a(S'p1_vo'
I8
tp712
a(S'w'
I4
tp713
a(S'p1_tl'
I120
tp714
a(S'w'
I14
tp715
a(S'p2_tl'
I80
tp716
a(S'w'
I2
tp717
a(S'p2_ll'
I1
tp718
a(S'w'
I8
tp719
a(S'tr_lh'
I1
tp720
a(S'tr_lr'
I63
tp721
a(S'w'
I3
tp722
a(S'tr_tl'
I240
tp723
a(S'w'
I1
tp724
a(S'tr_ll'
I1
tp725
a(S'tr_th'
I0
tp726
a(S'w'
I6
tp727
a(S'w'
I1
tp728
a(S'no_ll'
I3
tp729
a(S'w'
I690
tp730
a(S'p1_vo'
I7
tp731
a(S'w'
I8
tp732
a(S'tr_lr'
I62
tp733
a(S'w'
I726
tp734
a(S'p1_vo'
I6
tp735
a(S'w'
I8
tp736
a(S'tr_lr'
I61
tp737
a(S'w'
I726
tp738
a(S'p1_vo'
I5
tp739
a(S'w'
I734
tp740
a(S'p1_vo'
I4
tp741
a(S'w'
I7
tp742
a(S'tr_lh'
I0
tp743
a(S'tr_lr'
I0
tp744
a(S'w'
I726
tp745
a(S'p1_vo'
I3
tp746
a(S'w'
I738
tp747
a(S'p1_vo'
I8
tp748
a(S'w'
I1
tp749
a(S'p1_du'
I0
tp750
a(S'p1_vo'
I0
tp751
a(S'w'
I11
tp752
a(S'p2_du'
I0
tp753
a(S'p2_lh'
I1
tp754
a(S'p2_cv'
I1
tp755
a(S'p2_vo'
I0
tp756
a(S'w'
I8
tp757
a(S'tr_lh'
I1
tp758
a(S'tr_lr'
I63
tp759
a(S'w'
I1
tp760
a(S'tr_lh'
I0
tp761
a(S'tr_lr'
I0
tp762
a(S'w'
I6
tp763
a(S'no_np'
I1
tp764
a(S'w'
I1
tp765
a(S'no_ll'
I3
tp766
a(S'w'
I4376
tp767
a(S'p1_du'
I2
tp768
a(S'p1_vo'
I8
tp769
a(S'w'
I3
tp770
a(S'w'
I11
tp771
a(S'p2_du'
I1
tp772
a(S'p2_lh'
I0
tp773
a(S'p2_cv'
I0
tp774
a(S'p2_vo'
I12
tp775
a(S'w'
I4
tp776
a(S'w'
I1
tp777
a(S'p2_ll'
I1
tp778
a(S'w'
I9
tp779
a(S'tr_lh'
I1
tp780
a(S'tr_lr'
I63
tp781
a(S'w'
I4
tp782
a(S'tr_ll'
I1
tp783
a(S'w'
I7
tp784
a(S'no_np'
I8
tp785
a(S'w'
I1
tp786
a(S'no_ll'
I3
tp787
a(S'w'
I689
tp788
a(S'p1_vo'
I7
tp789
a(S'w'
I8
tp790
a(S'tr_lr'
I62
tp791
a(S'w'
I726
tp792
a(S'p1_vo'
I6
tp793
a(S'w'
I8
tp794
a(S'tr_lr'
I61
tp795
a(S'w'
I725
tp796
a(S'p1_vo'
I5
tp797
a(S'w'
I2211
tp798
a(S'p2_du'
I0
tp799
a(S'p2_lh'
I1
tp800
a(S'p2_cv'
I1
tp801
a(S'p2_vo'
I0
tp802
a(S'w'
I11
tp803
a(S'no_np'
I1
tp804
a(S'w'
I1
tp805
a(S'no_ll'
I3
tp806
a(S'w'
I2914
tp807
a(S'p1_vo'
I4
tp808
a(S'w'
I7
tp809
a(S'tr_lh'
I0
tp810
a(S'tr_lr'
I0
tp811
a(S'w'
I727
tp812
a(S'p1_vo'
I3
tp813
a(S'w'
I741
tp814
a(S'p1_vo'
I6
tp815
a(S'w'
I4
tp816
a(S'p1_tl'
I106
tp817
a(S'w'
I15
tp818
a(S'p2_du'
I1
tp819
a(S'p2_lh'
I0
tp820
a(S'p2_cv'
I0
tp821
a(S'p2_vo'
I12
tp822
a(S'w'
I3
tp823
a(S'p2_tl'
I71
tp824
a(S'w'
I2
tp825
a(S'p2_ll'
I1
tp826
a(S'w'
I12
tp827
a(S'tr_lh'
I1
tp828
a(S'tr_lr'
I63
tp829
a(S'w'
I4
tp830
a(S'tr_tl'
I213
tp831
a(S'w'
I1
tp832
a(S'tr_ll'
I1
tp833
a(S'w'
I6
tp834
a(S'no_vo'
I9
tp835
a(S'w'
I2
tp836
a(S'no_np'
I8
tp837
a(S'w'
I1
tp838
a(S'no_ll'
I3
tp839
a(S'w'
I676
tp840
a(S'p1_vo'
I5
tp841
a(S'w'
I8
tp842
a(S'tr_lr'
I62
tp843
a(S'w'
I726
tp844
a(S'p1_vo'
I4
tp845
a(S'w'
I8
tp846
a(S'tr_lr'
I61
tp847
a(S'w'
I730
tp848
a(S'p1_vo'
I6
tp849
a(S'w'
I4
tp850
a(S'p1_tl'
I100
tp851
a(S'w'
I726
tp852
a(S'p1_vo'
I5
tp853
a(S'w'
I733
tp854
a(S'p1_vo'
I4
tp855
a(S'w'
I738
tp856
a(S'p1_vo'
I6
tp857
a(S'w'
I4
tp858
a(S'p1_tl'
I95
tp859
a(S'w'
I726
tp860
a(S'p1_vo'
I5
tp861
a(S'w'
I734
tp862
a(S'p1_vo'
I4
tp863
a(S'w'
I738
tp864
a(S'p1_vo'
I6
tp865
a(S'w'
I4
tp866
a(S'p1_tl'
I89
tp867
a(S'w'
I725
tp868
a(S'p1_vo'
I5
tp869
a(S'w'
I734
tp870
a(S'p1_vo'
I4
tp871
a(S'w'
I738
tp872
a(S'p1_vo'
I6
tp873
a(S'w'
I4
tp874
a(S'p1_tl'
I84
tp875
a(S'w'
I726
tp876
a(S'p1_vo'
I5
tp877
a(S'w'
I734
tp878
a(S'p1_vo'
I4
tp879
a(S'w'
I737
tp880
a(S'p1_vo'
I6
tp881
a(S'w'
I4
tp882
a(S'p1_tl'
I80
tp883
a(S'w'
I726
tp884
a(S'p1_vo'
I5
tp885
a(S'w'
I734
tp886
a(S'p1_vo'
I4
tp887
a(S'w'
I738
tp888
a(S'p1_vo'
I6
tp889
a(S'w'
I4
tp890
a(S'p1_tl'
I75
tp891
a(S'w'
I726
tp892
a(S'p1_vo'
I5
tp893
a(S'w'
I733
tp894
a(S'p1_vo'
I4
tp895
a(S'w'
I738
tp896
a(S'p1_vo'
I6
tp897
a(S'w'
I4
tp898
a(S'p1_tl'
I71
tp899
a(S'w'
I726
tp900
a(S'p1_vo'
I5
tp901
a(S'w'
I734
tp902
a(S'p1_vo'
I4
tp903
a(S'w'
I738
tp904
a(S'p1_vo'
I6
tp905
a(S'w'
I4
tp906
a(S'p1_tl'
I67
tp907
a(S'w'
I725
tp908
a(S'p1_vo'
I5
tp909
a(S'w'
I734
tp910
a(S'p1_vo'
I4
tp911
a(S'w'
I738
tp912
a(S'p1_vo'
I6
tp913
a(S'w'
I4
tp914
a(S'p1_tl'
I63
tp915
a(S'w'
I726
tp916
a(S'p1_vo'
I5
tp917
a(S'w'
I733
tp918
a(S'p1_vo'
I4
tp919
a(S'w'
I738
tp920
a(S'p1_vo'
I6
tp921
a(S'w'
I4
tp922
a(S'p1_tl'
I60
tp923
a(S'w'
I726
tp924
a(S'p1_vo'
I5
tp925
a(S'w'
I734
tp926
a(S'p1_vo'
I4
tp927
a(S'w'
I739
tp928
a(S'p1_vo'
I6
tp929
a(S'w'
I4
tp930
a(S'p1_tl'
I56
tp931
a(S'w'
I724
tp932
a(S'p1_vo'
I5
tp933
a(S'w'
I734
tp934
a(S'p1_vo'
I4
tp935
a(S'w'
I5871
tp936
a(S'p1_vo'
I3
tp937
a(S'w'
I733
tp938
a(S'p1_vo'
I2
tp939
a(S'w'
I733
tp940
a(S'p1_du'
I0
tp941
a(S'p1_vo'
I0
tp942
a(S'p1_sp'
I3
tp943
a(S'w'
I739
tp944
a(S'tr_lh'
I0
tp945
a(S'tr_lr'
I0
tp946
a(S'w'
I1464
tp947
a(S'p2_du'
I0
tp948
a(S'p2_lh'
I1
tp949
a(S'p2_cv'
I1
tp950
a(S'p2_vo'
I0
tp951
a(S'w'
I1
tp952
a(S'p2_sp'
I3
tp953
a(S'w'
I8
tp954
a(S'no_cv'
I1
tp955
a(S'no_vo'
I0
tp956
a(S'w'
I37273
tp957
a.