(lp1
(S'clock'
p2
I1789772
tp3
a(S'p1_lh'
I1
tp4
a(S'p1_cv'
I1
tp5
a(S'p1_sp'
I3
tp6
a(S'p2_lh'
I1
tp7
a(S'p2_cv'
I1
tp8
a(S'p2_sp'
I3
tp9
a(S'w'
I8
tp10
a(S'p1_se'
I1
tp11
a(S'p1_sp'
I1
tp12
a(S'p1_sn'
I1
tp13
a(S'p1_ss'
I6
tp14
a(S'w'
I4
tp15
a(S'p1_du'
I2
tp16
a(S'p1_lh'
I0
tp17
a(S'p1_vo'
I15
tp18
a(S'w'
I4
tp19
a(S'p1_tl'
I113
tp20
a(S'w'
I1
tp21
a(S'p1_ll'
I1
tp22
a(S'w'
I9
tp23
a(S'p2_se'
I1
tp24
a(S'p2_sp'
I7
tp25
a(S'p2_ss'
I1
tp26
a(S'w'
I6
tp27
a(S'p2_vo'
I15
tp28
a(S'w'
I1
tp29
a(S'p2_vo'
I0
tp30
a(S'w'
I13
tp31
a(S'tr_lh'
I1
tp32
a(S'tr_lr'
I31
tp33
a(S'w'
I2
tp34
a(S'tr_lh'
I0
tp35
a(S'tr_lr'
I0
tp36
a(S'w'
I6568
tp37
a(S'p1_tl'
I127
tp38
a(S'w'
I2
tp39
a(S'p1_ll'
I1
tp40
a(S'w'
I6602
tp41
a(S'p1_tl'
I142
tp42
a(S'w'
I2
tp43
a(S'p1_ll'
I1
tp44
a(S'w'
I6602
tp45
a(S'p1_tl'
I160
tp46
a(S'w'
I2
tp47
a(S'p1_ll'
I1
tp48
a(S'w'
I6602
tp49
a(S'p1_tl'
I169
tp50
a(S'w'
I2
tp51
a(S'p1_ll'
I1
tp52
a(S'w'
I6602
tp53
a(S'p1_tl'
I190
tp54
a(S'w'
I2
tp55
a(S'p1_ll'
I1
tp56
a(S'w'
I6602
tp57
a(S'p1_tl'
I213
tp58
a(S'w'
I2
tp59
a(S'p1_ll'
I1
tp60
a(S'w'
I6602
tp61
a(S'p1_tl'
I226
tp62
a(S'w'
I1
tp63
a(S'p1_ll'
I1
tp64
a(S'w'
I6607
tp65
a(S'p1_se'
I0
tp66
a(S'p1_sp'
I0
tp67
a(S'p1_sn'
I0
tp68
a(S'p1_ss'
I0
tp69
a(S'w'
I4
tp70
a(S'p1_du'
I0
tp71
a(S'w'
I3
tp72
a(S'p1_tl'
I29
tp73
a(S'w'
I1
tp74
a(S'p1_ll'
I1
tp75
a(S'p1_th'
I1
tp76
a(S'w'
I19
tp77
a(S'p2_vo'
I15
tp78
a(S'w'
I3
tp79
a(S'p2_tl'
I171
tp80
a(S'w'
I1
tp81
a(S'p2_ll'
I1
tp82
a(S'p2_th'
I1
tp83
a(S'w'
I17
tp84
a(S'tr_lh'
I1
tp85
a(S'tr_lr'
I31
tp86
a(S'w'
I3
tp87
a(S'tr_tl'
I29
tp88
a(S'w'
I1
tp89
a(S'tr_ll'
I1
tp90
a(S'tr_th'
I1
tp91
a(S'w'
I671
tp92
a(S'p1_vo'
I14
tp93
a(S'w'
I4
tp94
a(S'p2_vo'
I14
tp95
a(S'w'
I4
tp96
a(S'tr_lr'
I30
tp97
a(S'w'
I726
tp98
a(S'p1_vo'
I13
tp99
a(S'w'
I8
tp100
a(S'tr_lr'
I29
tp101
a(S'w'
I730
tp102
a(S'p1_vo'
I15
tp103
a(S'w'
I3
tp104
a(S'p1_tl'
I64
tp105
a(S'w'
I9
tp106
a(S'p2_vo'
I15
tp107
a(S'w'
I3
tp108
a(S'p2_tl'
I64
tp109
a(S'w'
I2
tp110
a(S'p2_ll'
I1
tp111
a(S'w'
I7
tp112
a(S'tr_lr'
I31
tp113
a(S'w'
I3
tp114
a(S'tr_tl'
I213
tp115
a(S'w'
I1
tp116
a(S'tr_ll'
I1
tp117
a(S'tr_th'
I0
tp118
a(S'w'
I702
tp119
a(S'p1_vo'
I14
tp120
a(S'w'
I4
tp121
a(S'p2_vo'
I14
tp122
a(S'w'
I4
tp123
a(S'tr_lr'
I30
tp124
a(S'w'
I725
tp125
a(S'p1_vo'
I13
tp126
a(S'w'
I8
tp127
a(S'tr_lr'
I29
tp128
a(S'w'
I730
tp129
a(S'p1_vo'
I15
tp130
a(S'w'
I3
tp131
a(S'p1_tl'
I103
tp132
a(S'w'
I9
tp133
a(S'p2_vo'
I15
tp134
a(S'w'
I3
tp135
a(S'p2_tl'
I29
tp136
a(S'w'
I2
tp137
a(S'p2_ll'
I1
tp138
a(S'w'
I7
tp139
a(S'tr_lr'
I31
tp140
a(S'w'
I3
tp141
a(S'tr_tl'
I190
tp142
a(S'w'
I1
tp143
a(S'tr_ll'
I1
tp144
a(S'w'
I702
tp145
a(S'p1_vo'
I14
tp146
a(S'w'
I4
tp147
a(S'p2_vo'
I14
tp148
a(S'w'
I4
tp149
a(S'tr_lr'
I30
tp150
a(S'w'
I726
tp151
a(S'p1_vo'
I13
tp152
a(S'w'
I8
tp153
a(S'tr_lr'
I29
tp154
a(S'w'
I730
tp155
a(S'p1_vo'
I15
tp156
a(S'w'
I3
tp157
a(S'p1_tl'
I147
tp158
a(S'w'
I9
tp159
a(S'p2_vo'
I15
tp160
a(S'w'
I3
tp161
a(S'p2_tl'
I240
tp162
a(S'w'
I1
tp163
a(S'p2_ll'
I1
tp164
a(S'p2_th'
I0
tp165
a(S'w'
I7
tp166
a(S'tr_lr'
I31
tp167
a(S'w'
I4
tp168
a(S'tr_tl'
I160
tp169
a(S'w'
I1
tp170
a(S'tr_ll'
I1
tp171
a(S'w'
I701
tp172
a(S'p1_vo'
I14
tp173
a(S'w'
I4
tp174
a(S'p2_vo'
I14
tp175
a(S'w'
I4
tp176
a(S'tr_lr'
I30
tp177
a(S'w'
I726
tp178
a(S'p1_vo'
I13
tp179
a(S'w'
I8
tp180
a(S'tr_lr'
I29
tp181
a(S'w'
I730
tp182
a(S'p1_vo'
I15
tp183
a(S'w'
I3
tp184
a(S'p1_tl'
I197
tp185
a(S'w'
I9
tp186
a(S'p2_vo'
I15
tp187
a(S'w'
I4
tp188
a(S'p2_tl'
I213
tp189
a(S'w'
I1
tp190
a(S'p2_ll'
I1
tp191
a(S'w'
I7
tp192
a(S'tr_lr'
I31
tp193
a(S'w'
I4
tp194
a(S'tr_tl'
I142
tp195
a(S'w'
I1
tp196
a(S'tr_ll'
I1
tp197
a(S'w'
I701
tp198
a(S'p1_vo'
I14
tp199
a(S'w'
I4
tp200
a(S'p2_vo'
I14
tp201
a(S'w'
I4
tp202
a(S'tr_lr'
I30
tp203
a(S'w'
I726
tp204
a(S'p1_vo'
I13
tp205
a(S'w'
I8
tp206
a(S'tr_lr'
I29
tp207
a(S'w'
I729
tp208
a(S'p1_vo'
I15
tp209
a(S'w'
I2
tp210
a(S'p1_tl'
I27
tp211
a(S'w'
I2
tp212
a(S'p1_ll'
I1
tp213
a(S'p1_th'
I2
tp214
a(S'w'
I8
tp215
a(S'p2_vo'
I15
tp216
a(S'w'
I3
tp217
a(S'p2_tl'
I240
tp218
a(S'w'
I1
tp219
a(S'p2_ll'
I1
tp220
a(S'w'
I7
tp221
a(S'tr_lr'
I31
tp222
a(S'w'
I4
tp223
a(S'tr_tl'
I160
tp224
a(S'w'
I1
tp225
a(S'tr_ll'
I1
tp226
a(S'w'
I702
tp227
a(S'p1_vo'
I14
tp228
a(S'w'
I4
tp229
a(S'p2_vo'
I14
tp230
a(S'w'
I4
tp231
a(S'tr_lr'
I30
tp232
a(S'w'
I726
tp233
a(S'p1_vo'
I13
tp234
a(S'w'
I8
tp235
a(S'tr_lr'
I29
tp236
a(S'w'
I730
tp237
a(S'p1_vo'
I15
tp238
a(S'w'
I2
tp239
a(S'p1_tl'
I92
tp240
a(S'w'
I9
tp241
a(S'p2_vo'
I15
tp242
a(S'w'
I4
tp243
a(S'p2_tl'
I29
tp244
a(S'w'
I1
tp245
a(S'p2_ll'
I1
tp246
a(S'p2_th'
I1
tp247
a(S'w'
I7
tp248
a(S'tr_lr'
I31
tp249
a(S'w'
I4
tp250
a(S'tr_tl'
I190
tp251
a(S'tr_ll'
I1
tp252
a(S'w'
I703
tp253
a(S'p1_vo'
I14
tp254
a(S'w'
I4
tp255
a(S'p2_vo'
I14
tp256
a(S'w'
I4
tp257
a(S'tr_lr'
I30
tp258
a(S'w'
I725
tp259
a(S'p1_vo'
I13
tp260
a(S'w'
I8
tp261
a(S'tr_lr'
I29
tp262
a(S'w'
I730
tp263
a(S'p1_vo'
I15
tp264
a(S'w'
I2
tp265
a(S'p1_tl'
I167
tp266
a(S'w'
I9
tp267
a(S'p2_vo'
I15
tp268
a(S'w'
I4
tp269
a(S'p2_tl'
I64
tp270
a(S'w'
I1
tp271
a(S'p2_ll'
I1
tp272
a(S'w'
I7
tp273
a(S'tr_lr'
I31
tp274
a(S'w'
I4
tp275
a(S'tr_tl'
I213
tp276
a(S'w'
I1
tp277
a(S'tr_ll'
I1
tp278
a(S'w'
I702
tp279
a(S'p1_vo'
I14
tp280
a(S'w'
I4
tp281
a(S'p2_vo'
I14
tp282
a(S'w'
I4
tp283
a(S'tr_lr'
I30
tp284
a(S'w'
I726
tp285
a(S'p1_vo'
I13
tp286
a(S'w'
I8
tp287
a(S'tr_lr'
I29
tp288
a(S'w'
I730
tp289
a(S'p1_vo'
I15
tp290
a(S'w'
I2
tp291
a(S'p1_tl'
I250
tp292
a(S'w'
I9
tp293
a(S'p2_vo'
I15
tp294
a(S'w'
I4
tp295
a(S'p2_tl'
I171
tp296
a(S'w'
I1
tp297
a(S'p2_ll'
I1
tp298
a(S'w'
I7
tp299
a(S'tr_lr'
I31
tp300
a(S'w'
I3
tp301
a(S'tr_tl'
I29
tp302
a(S'w'
I1
tp303
a(S'tr_ll'
I1
tp304
a(S'tr_th'
I1
tp305
a(S'w'
I702
tp306
a(S'p1_vo'
I14
tp307
a(S'w'
I4
tp308
a(S'p2_vo'
I14
tp309
a(S'w'
I4
tp310
a(S'tr_lr'
I30
tp311
a(S'w'
I726
tp312
a(S'p1_vo'
I13
tp313
a(S'w'
I8
tp314
a(S'tr_lr'
I29
tp315
a(S'w'
I731
tp316
a(S'p1_vo'
I10
tp317
a(S'w'
I3
tp318
a(S'p1_tl'
I103
tp319
a(S'w'
I1
tp320
a(S'p1_ll'
I1
tp321
a(S'p1_th'
I1
tp322
a(S'w'
I9
tp323
a(S'p2_vo'
I10
tp324
a(S'w'
I3
tp325
a(S'p2_tl'
I252
tp326
a(S'w'
I2
tp327
a(S'p2_ll'
I1
tp328
a(S'w'
I7
tp329
a(S'tr_lr'
I31
tp330
a(S'w'
I3
tp331
a(S'tr_tl'
I83
tp332
a(S'w'
I1
tp333
a(S'tr_ll'
I1
tp334
a(S'w'
I700
tp335
a(S'p1_vo'
I9
tp336
a(S'w'
I4
tp337
a(S'p2_vo'
I9
tp338
a(S'w'
I4
tp339
a(S'tr_lr'
I30
tp340
a(S'w'
I725
tp341
a(S'p1_vo'
I8
tp342
a(S'w'
I8
tp343
a(S'tr_lr'
I29
tp344
a(S'w'
I730
tp345
a(S'p1_vo'
I10
tp346
a(S'w'
I3
tp347
a(S'p1_tl'
I147
tp348
a(S'w'
I9
tp349
a(S'p2_vo'
I10
tp350
a(S'w'
I3
tp351
a(S'p2_tl'
I125
tp352
a(S'w'
I2
tp353
a(S'p2_ll'
I1
tp354
a(S'w'
I7
tp355
a(S'tr_lr'
I31
tp356
a(S'w'
I3
tp357
a(S'tr_tl'
I254
tp358
a(S'w'
I1
tp359
a(S'tr_ll'
I1
tp360
a(S'tr_th'
I0
tp361
a(S'w'
I702
tp362
a(S'p1_vo'
I9
tp363
a(S'w'
I4
tp364
a(S'p2_vo'
I9
tp365
a(S'w'
I4
tp366
a(S'tr_lr'
I30
tp367
a(S'w'
I726
tp368
a(S'p1_vo'
I8
tp369
a(S'w'
I8
tp370
a(S'tr_lr'
I29
tp371
a(S'w'
I730
tp372
a(S'p1_vo'
I10
tp373
a(S'w'
I3
tp374
a(S'p1_tl'
I197
tp375
a(S'w'
I9
tp376
a(S'p2_vo'
I10
tp377
a(S'w'
I3
tp378
a(S'p2_tl'
I83
tp379
a(S'w'
I1
tp380
a(S'p2_ll'
I1
tp381
a(S'w'
I7
tp382
a(S'tr_lr'
I31
tp383
a(S'w'
I3
tp384
a(S'tr_tl'
I226
tp385
a(S'w'
I1
tp386
a(S'tr_ll'
I1
tp387
a(S'w'
I702
tp388
a(S'p1_vo'
I9
tp389
a(S'w'
I4
tp390
a(S'p2_vo'
I9
tp391
a(S'w'
I4
tp392
a(S'tr_lr'
I30
tp393
a(S'w'
I726
tp394
a(S'p1_vo'
I8
tp395
a(S'w'
I8
tp396
a(S'tr_lr'
I29
tp397
a(S'w'
I730
tp398
a(S'p1_vo'
I10
tp399
a(S'w'
I2
tp400
a(S'p1_tl'
I252
tp401
a(S'w'
I9
tp402
a(S'p2_vo'
I10
tp403
a(S'w'
I4
tp404
a(S'p2_tl'
I29
tp405
a(S'w'
I1
tp406
a(S'p2_ll'
I1
tp407
a(S'w'
I7
tp408
a(S'tr_lr'
I31
tp409
a(S'w'
I4
tp410
a(S'tr_tl'
I190
tp411
a(S'w'
I1
tp412
a(S'tr_ll'
I1
tp413
a(S'w'
I702
tp414
a(S'p1_vo'
I9
tp415
a(S'w'
I4
tp416
a(S'p2_vo'
I9
tp417
a(S'w'
I4
tp418
a(S'tr_lr'
I30
tp419
a(S'w'
I726
tp420
a(S'p1_vo'
I8
tp421
a(S'w'
I8
tp422
a(S'tr_lr'
I29
tp423
a(S'w'
I729
tp424
a(S'p1_vo'
I10
tp425
a(S'w'
I2
tp426
a(S'p1_tl'
I59
tp427
a(S'w'
I2
tp428
a(S'p1_ll'
I1
tp429
a(S'p1_th'
I2
tp430
a(S'w'
I7
tp431
a(S'p2_vo'
I10
tp432
a(S'w'
I4
tp433
a(S'p2_tl'
I254
tp434
a(S'w'
I1
tp435
a(S'p2_ll'
I1
tp436
a(S'p2_th'
I0
tp437
a(S'w'
I7
tp438
a(S'tr_lr'
I31
tp439
a(S'w'
I3
tp440
a(S'tr_tl'
I169
tp441
a(S'w'
I1
tp442
a(S'tr_ll'
I1
tp443
a(S'w'
I703
tp444
a(S'p1_vo'
I9
tp445
a(S'w'
I4
tp446
a(S'p2_vo'
I9
tp447
a(S'w'
I4
tp448
a(S'tr_lr'
I30
tp449
a(S'w'
I726
tp450
a(S'p1_vo'
I8
tp451
a(S'w'
I8
tp452
a(S'tr_lr'
I29
tp453
a(S'w'
I730
tp454
a(S'p1_vo'
I10
tp455
a(S'w'
I2
tp456
a(S'p1_tl'
I128
tp457
a(S'w'
I9
tp458
a(S'p2_vo'
I10
tp459
a(S'w'
I4
tp460
a(S'p2_tl'
I29
tp461
a(S'w'
I1
tp462
a(S'p2_ll'
I1
tp463
a(S'p2_th'
I1
tp464
a(S'w'
I7
tp465
a(S'tr_lr'
I31
tp466
a(S'w'
I4
tp467
a(S'tr_tl'
I190
tp468
a(S'tr_ll'
I1
tp469
a(S'w'
I703
tp470
a(S'p1_vo'
I9
tp471
a(S'w'
I4
tp472
a(S'p2_vo'
I9
tp473
a(S'w'
I4
tp474
a(S'tr_lr'
I30
tp475
a(S'w'
I725
tp476
a(S'p1_vo'
I8
tp477
a(S'w'
I8
tp478
a(S'tr_lr'
I29
tp479
a(S'w'
I730
tp480
a(S'p1_vo'
I10
tp481
a(S'w'
I2
tp482
a(S'p1_tl'
I207
tp483
a(S'w'
I9
tp484
a(S'p2_vo'
I10
tp485
a(S'w'
I4
tp486
a(S'p2_tl'
I83
tp487
a(S'w'
I1
tp488
a(S'p2_ll'
I1
tp489
a(S'w'
I7
tp490
a(S'tr_lr'
I31
tp491
a(S'w'
I3
tp492
a(S'tr_tl'
I226
tp493
a(S'w'
I1
tp494
a(S'tr_ll'
I1
tp495
a(S'w'
I703
tp496
a(S'p1_vo'
I9
tp497
a(S'w'
I4
tp498
a(S'p2_vo'
I9
tp499
a(S'w'
I4
tp500
a(S'tr_lr'
I30
tp501
a(S'w'
I726
tp502
a(S'p1_vo'
I8
tp503
a(S'w'
I8
tp504
a(S'tr_lr'
I29
tp505
a(S'w'
I730
tp506
a(S'p1_vo'
I10
tp507
a(S'w'
I2
tp508
a(S'p1_tl'
I39
tp509
a(S'w'
I2
tp510
a(S'p1_ll'
I1
tp511
a(S'p1_th'
I3
tp512
a(S'w'
I7
tp513
a(S'p2_vo'
I10
tp514
a(S'w'
I4
tp515
a(S'p2_tl'
I125
tp516
a(S'w'
I1
tp517
a(S'p2_ll'
I1
tp518
a(S'w'
I7
tp519
a(S'tr_lr'
I31
tp520
a(S'w'
I3
tp521
a(S'tr_tl'
I254
tp522
a(S'w'
I1
tp523
a(S'tr_ll'
I1
tp524
a(S'w'
I702
tp525
a(S'p1_vo'
I9
tp526
a(S'w'
I4
tp527
a(S'p2_vo'
I9
tp528
a(S'w'
I4
tp529
a(S'tr_lr'
I30
tp530
a(S'w'
I726
tp531
a(S'p1_vo'
I8
tp532
a(S'w'
I8
tp533
a(S'tr_lr'
I29
tp534
a(S'w'
I730
tp535
a(S'p1_vo'
I10
tp536
a(S'w'
I3
tp537
a(S'p1_tl'
I226
tp538
a(S'w'
I1
tp539
a(S'p1_ll'
I1
tp540
a(S'p1_th'
I0
tp541
a(S'w'
I8
tp542
a(S'p2_vo'
I10
tp543
a(S'w'
I3
tp544
a(S'p2_tl'
I252
tp545
a(S'w'
I1
tp546
a(S'p2_ll'
I1
tp547
a(S'w'
I7
tp548
a(S'tr_lr'
I31
tp549
a(S'w'
I4
tp550
a(S'tr_tl'
I83
tp551
a(S'w'
I1
tp552
a(S'tr_ll'
I1
tp553
a(S'tr_th'
I1
tp554
a(S'w'
I702
tp555
a(S'p1_vo'
I9
tp556
a(S'w'
I4
tp557
a(S'p2_vo'
I9
tp558
a(S'w'
I4
tp559
a(S'tr_lr'
I30
tp560
a(S'w'
I725
tp561
a(S'p1_vo'
I8
tp562
a(S'w'
I8
tp563
a(S'tr_lr'
I29
tp564
a(S'w'
I731
tp565
a(S'p1_vo'
I15
tp566
a(S'w'
I3
tp567
a(S'p1_tl'
I147
tp568
a(S'w'
I1
tp569
a(S'p1_ll'
I1
tp570
a(S'p1_th'
I1
tp571
a(S'w'
I9
tp572
a(S'p2_vo'
I15
tp573
a(S'w'
I3
tp574
a(S'p2_tl'
I92
tp575
a(S'w'
I1
tp576
a(S'p2_ll'
I1
tp577
a(S'p2_th'
I2
tp578
a(S'w'
I7
tp579
a(S'tr_lr'
I31
tp580
a(S'w'
I3
tp581
a(S'tr_tl'
I147
tp582
a(S'w'
I1
tp583
a(S'tr_ll'
I1
tp584
a(S'w'
I701
tp585
a(S'p1_vo'
I14
tp586
a(S'w'
I4
tp587
a(S'p2_vo'
I14
tp588
a(S'w'
I4
tp589
a(S'tr_lr'
I30
tp590
a(S'w'
I726
tp591
a(S'p1_vo'
I13
tp592
a(S'w'
I8
tp593
a(S'tr_lr'
I29
tp594
a(S'w'
I730
tp595
a(S'p1_vo'
I15
tp596
a(S'w'
I3
tp597
a(S'p1_tl'
I197
tp598
a(S'w'
I9
tp599
a(S'p2_vo'
I15
tp600
a(S'w'
I3
tp601
a(S'p2_tl'
I197
tp602
a(S'w'
I1
tp603
a(S'p2_ll'
I1
tp604
a(S'p2_th'
I1
tp605
a(S'w'
I6
tp606
a(S'tr_lr'
I31
tp607
a(S'w'
I4
tp608
a(S'tr_tl'
I46
tp609
a(S'w'
I1
tp610
a(S'tr_ll'
I1
tp611
a(S'w'
I702
tp612
a(S'p1_vo'
I14
tp613
a(S'w'
I4
tp614
a(S'p2_vo'
I14
tp615
a(S'w'
I4
tp616
a(S'tr_lr'
I30
tp617
a(S'w'
I726
tp618
a(S'p1_vo'
I13
tp619
a(S'w'
I8
tp620
a(S'tr_lr'
I29
tp621
a(S'w'
I730
tp622
a(S'p1_vo'
I15
tp623
a(S'w'
I2
tp624
a(S'p1_tl'
I252
tp625
a(S'w'
I10
tp626
a(S'p2_vo'
I15
tp627
a(S'w'
I3
tp628
a(S'p2_tl'
I147
tp629
a(S'w'
I1
tp630
a(S'p2_ll'
I1
tp631
a(S'w'
I7
tp632
a(S'tr_lr'
I31
tp633
a(S'w'
I3
tp634
a(S'tr_tl'
I13
tp635
a(S'w'
I1
tp636
a(S'tr_ll'
I1
tp637
a(S'w'
I703
tp638
a(S'p1_vo'
I14
tp639
a(S'w'
I4
tp640
a(S'p2_vo'
I14
tp641
a(S'w'
I4
tp642
a(S'tr_lr'
I30
tp643
a(S'w'
I726
tp644
a(S'p1_vo'
I13
tp645
a(S'w'
I8
tp646
a(S'tr_lr'
I29
tp647
a(S'w'
I729
tp648
a(S'p1_vo'
I15
tp649
a(S'w'
I2
tp650
a(S'p1_tl'
I59
tp651
a(S'w'
I2
tp652
a(S'p1_ll'
I1
tp653
a(S'p1_th'
I2
tp654
a(S'w'
I7
tp655
a(S'p2_vo'
I15
tp656
a(S'w'
I4
tp657
a(S'p2_tl'
I83
tp658
a(S'w'
I1
tp659
a(S'p2_ll'
I1
tp660
a(S'w'
I7
tp661
a(S'tr_lr'
I31
tp662
a(S'w'
I3
tp663
a(S'tr_tl'
I226
tp664
a(S'w'
I1
tp665
a(S'tr_ll'
I1
tp666
a(S'tr_th'
I0
tp667
a(S'w'
I703
tp668
a(S'p1_vo'
I14
tp669
a(S'w'
I4
tp670
a(S'p2_vo'
I14
tp671
a(S'w'
I4
tp672
a(S'tr_lr'
I30
tp673
a(S'w'
I726
tp674
a(S'p1_vo'
I13
tp675
a(S'w'
I8
tp676
a(S'tr_lr'
I29
tp677
a(S'w'
I730
tp678
a(S'p1_vo'
I15
tp679
a(S'w'
I2
tp680
a(S'p1_tl'
I128
tp681
a(S'w'
I9
tp682
a(S'p2_vo'
I15
tp683
a(S'w'
I4
tp684
a(S'p2_tl'
I46
tp685
a(S'w'
I1
tp686
a(S'p2_ll'
I1
tp687
a(S'w'
I7
tp688
a(S'tr_lr'
I31
tp689
a(S'w'
I4
tp690
a(S'tr_tl'
I201
tp691
a(S'w'
I1
tp692
a(S'tr_ll'
I1
tp693
a(S'w'
I702
tp694
a(S'p1_vo'
I14
tp695
a(S'w'
I4
tp696
a(S'p2_vo'
I14
tp697
a(S'w'
I4
tp698
a(S'tr_lr'
I30
tp699
a(S'w'
I725
tp700
a(S'p1_vo'
I13
tp701
a(S'w'
I8
tp702
a(S'tr_lr'
I29
tp703
a(S'w'
I730
tp704
a(S'p1_vo'
I15
tp705
a(S'w'
I3
tp706
a(S'p1_tl'
I207
tp707
a(S'w'
I8
tp708
a(S'p2_vo'
I15
tp709
a(S'w'
I4
tp710
a(S'p2_tl'
I83
tp711
a(S'w'
I1
tp712
a(S'p2_ll'
I1
tp713
a(S'w'
I7
tp714
a(S'tr_lr'
I31
tp715
a(S'w'
I3
tp716
a(S'tr_tl'
I226
tp717
a(S'w'
I1
tp718
a(S'tr_ll'
I1
tp719
a(S'w'
I703
tp720
a(S'p1_vo'
I14
tp721
a(S'w'
I4
tp722
a(S'p2_vo'
I14
tp723
a(S'w'
I4
tp724
a(S'tr_lr'
I30
tp725
a(S'w'
I726
tp726
a(S'p1_vo'
I13
tp727
a(S'w'
I8
tp728
a(S'tr_lr'
I29
tp729
a(S'w'
I730
tp730
a(S'p1_vo'
I15
tp731
a(S'w'
I2
tp732
a(S'p1_tl'
I39
tp733
a(S'w'
I2
tp734
a(S'p1_ll'
I1
tp735
a(S'p1_th'
I3
tp736
a(S'w'
I7
tp737
a(S'p2_vo'
I15
tp738
a(S'w'
I4
tp739
a(S'p2_tl'
I147
tp740
a(S'w'
I1
tp741
a(S'p2_ll'
I1
tp742
a(S'w'
I7
tp743
a(S'tr_lr'
I31
tp744
a(S'w'
I3
tp745
a(S'tr_tl'
I13
tp746
a(S'w'
I1
tp747
a(S'tr_ll'
I1
tp748
a(S'tr_th'
I1
tp749
a(S'w'
I702
tp750
a(S'p1_vo'
I14
tp751
a(S'w'
I4
tp752
a(S'p2_vo'
I14
tp753
a(S'w'
I4
tp754
a(S'tr_lr'
I30
tp755
a(S'w'
I726
tp756
a(S'p1_vo'
I13
tp757
a(S'w'
I8
tp758
a(S'tr_lr'
I29
tp759
a(S'w'
I730
tp760
a(S'p1_vo'
I15
tp761
a(S'w'
I2
tp762
a(S'p1_tl'
I138
tp763
a(S'w'
I9
tp764
a(S'p2_vo'
I15
tp765
a(S'w'
I3
tp766
a(S'p2_tl'
I197
tp767
a(S'w'
I2
tp768
a(S'p2_ll'
I1
tp769
a(S'w'
I6
tp770
a(S'tr_lr'
I31
tp771
a(S'w'
I4
tp772
a(S'tr_tl'
I64
tp773
a(S'w'
I1
tp774
a(S'tr_ll'
I1
tp775
a(S'w'
I703
tp776
a(S'p1_vo'
I14
tp777
a(S'w'
I4
tp778
a(S'p2_vo'
I14
tp779
a(S'w'
I4
tp780
a(S'tr_lr'
I30
tp781
a(S'w'
I725
tp782
a(S'p1_vo'
I13
tp783
a(S'w'
I8
tp784
a(S'tr_lr'
I29
tp785
a(S'w'
I730
tp786
a(S'p1_vo'
I15
tp787
a(S'w'
I2
tp788
a(S'p1_tl'
I249
tp789
a(S'w'
I9
tp790
a(S'p2_vo'
I15
tp791
a(S'w'
I3
tp792
a(S'p2_tl'
I92
tp793
a(S'w'
I1
tp794
a(S'p2_ll'
I1
tp795
a(S'p2_th'
I2
tp796
a(S'w'
I7
tp797
a(S'tr_lr'
I31
tp798
a(S'w'
I3
tp799
a(S'tr_tl'
I147
tp800
a(S'w'
I1
tp801
a(S'tr_ll'
I1
tp802
a(S'w'
I704
tp803
a(S'p1_vo'
I14
tp804
a(S'w'
I4
tp805
a(S'p2_vo'
I14
tp806
a(S'w'
I4
tp807
a(S'tr_lr'
I30
tp808
a(S'w'
I726
tp809
a(S'p1_vo'
I13
tp810
a(S'w'
I8
tp811
a(S'tr_lr'
I29
tp812
a(S'w'
I731
tp813
a(S'p1_vo'
I10
tp814
a(S'w'
I3
tp815
a(S'p1_tl'
I224
tp816
a(S'w'
I1
tp817
a(S'p1_ll'
I1
tp818
a(S'p1_th'
I1
tp819
a(S'w'
I9
tp820
a(S'p2_vo'
I10
tp821
a(S'w'
I3
tp822
a(S'p2_tl'
I207
tp823
a(S'w'
I1
tp824
a(S'p2_ll'
I1
tp825
a(S'w'
I7
tp826
a(S'tr_lr'
I31
tp827
a(S'w'
I3
tp828
a(S'tr_tl'
I224
tp829
a(S'w'
I1
tp830
a(S'tr_ll'
I1
tp831
a(S'w'
I700
tp832
a(S'p1_vo'
I9
tp833
a(S'w'
I4
tp834
a(S'p2_vo'
I9
tp835
a(S'w'
I4
tp836
a(S'tr_lr'
I30
tp837
a(S'w'
I726
tp838
a(S'p1_vo'
I8
tp839
a(S'w'
I8
tp840
a(S'tr_lr'
I29
tp841
a(S'w'
I730
tp842
a(S'p1_vo'
I10
tp843
a(S'w'
I2
tp844
a(S'p1_tl'
I27
tp845
a(S'w'
I2
tp846
a(S'p1_ll'
I1
tp847
a(S'p1_th'
I2
tp848
a(S'w'
I7
tp849
a(S'p2_vo'
I10
tp850
a(S'w'
I3
tp851
a(S'p2_tl'
I27
tp852
a(S'w'
I2
tp853
a(S'p2_ll'
I1
tp854
a(S'w'
I7
tp855
a(S'tr_lr'
I31
tp856
a(S'w'
I3
tp857
a(S'tr_tl'
I103
tp858
a(S'w'
I1
tp859
a(S'tr_ll'
I1
tp860
a(S'w'
I703
tp861
a(S'p1_vo'
I9
tp862
a(S'w'
I4
tp863
a(S'p2_vo'
I9
tp864
a(S'w'
I4
tp865
a(S'tr_lr'
I30
tp866
a(S'w'
I726
tp867
a(S'p1_vo'
I8
tp868
a(S'w'
I8
tp869
a(S'tr_lr'
I29
tp870
a(S'w'
I729
tp871
a(S'p1_vo'
I10
tp872
a(S'w'
I2
tp873
a(S'p1_tl'
I92
tp874
a(S'w'
I9
tp875
a(S'p2_vo'
I10
tp876
a(S'w'
I3
tp877
a(S'p2_tl'
I224
tp878
a(S'w'
I1
tp879
a(S'p2_ll'
I1
tp880
a(S'p2_th'
I1
tp881
a(S'w'
I7
tp882
a(S'tr_lr'
I31
tp883
a(S'w'
I4
tp884
a(S'tr_tl'
I64
tp885
a(S'w'
I1
tp886
a(S'tr_ll'
I1
tp887
a(S'w'
I703
tp888
a(S'p1_vo'
I9
tp889
a(S'w'
I4
tp890
a(S'p2_vo'
I9
tp891
a(S'w'
I4
tp892
a(S'tr_lr'
I30
tp893
a(S'w'
I726
tp894
a(S'p1_vo'
I8
tp895
a(S'w'
I8
tp896
a(S'tr_lr'
I29
tp897
a(S'w'
I730
tp898
a(S'p1_vo'
I10
tp899
a(S'w'
I2
tp900
a(S'p1_tl'
I167
tp901
a(S'w'
I10
tp902
a(S'p2_vo'
I10
tp903
a(S'w'
I3
tp904
a(S'p2_tl'
I147
tp905
a(S'w'
I1
tp906
a(S'p2_ll'
I1
tp907
a(S'w'
I7
tp908
a(S'tr_lr'
I31
tp909
a(S'w'
I3
tp910
a(S'tr_tl'
I13
tp911
a(S'w'
I1
tp912
a(S'tr_ll'
I1
tp913
a(S'w'
I703
tp914
a(S'p1_vo'
I9
tp915
a(S'w'
I4
tp916
a(S'p2_vo'
I9
tp917
a(S'w'
I4
tp918
a(S'tr_lr'
I30
tp919
a(S'w'
I725
tp920
a(S'p1_vo'
I8
tp921
a(S'w'
I8
tp922
a(S'tr_lr'
I29
tp923
a(S'w'
I730
tp924
a(S'p1_vo'
I10
tp925
a(S'w'
I3
tp926
a(S'p1_tl'
I250
tp927
a(S'w'
I8
tp928
a(S'p2_vo'
I10
tp929
a(S'w'
I4
tp930
a(S'p2_tl'
I103
tp931
a(S'w'
I1
tp932
a(S'p2_ll'
I1
tp933
a(S'w'
I7
tp934
a(S'tr_lr'
I31
tp935
a(S'w'
I3
tp936
a(S'tr_tl'
I240
tp937
a(S'w'
I1
tp938
a(S'tr_ll'
I1
tp939
a(S'tr_th'
I0
tp940
a(S'w'
I703
tp941
a(S'p1_vo'
I9
tp942
a(S'w'
I4
tp943
a(S'p2_vo'
I9
tp944
a(S'w'
I4
tp945
a(S'tr_lr'
I30
tp946
a(S'w'
I726
tp947
a(S'p1_vo'
I8
tp948
a(S'w'
I8
tp949
a(S'tr_lr'
I29
tp950
a(S'w'
I730
tp951
a(S'p1_vo'
I10
tp952
a(S'w'
I2
tp953
a(S'p1_tl'
I87
tp954
a(S'w'
I2
tp955
a(S'p1_ll'
I1
tp956
a(S'p1_th'
I3
tp957
a(S'w'
I7
tp958
a(S'p2_vo'
I10
tp959
a(S'w'
I4
tp960
a(S'p2_tl'
I147
tp961
a(S'w'
I1
tp962
a(S'p2_ll'
I1
tp963
a(S'w'
I7
tp964
a(S'tr_lr'
I31
tp965
a(S'w'
I3
tp966
a(S'tr_tl'
I13
tp967
a(S'w'
I1
tp968
a(S'tr_ll'
I1
tp969
a(S'tr_th'
I1
tp970
a(S'w'
I702
tp971
a(S'p1_vo'
I9
tp972
a(S'w'
I4
tp973
a(S'p2_vo'
I9
tp974
a(S'w'
I4
tp975
a(S'tr_lr'
I30
tp976
a(S'w'
I726
tp977
a(S'p1_vo'
I8
tp978
a(S'w'
I8
tp979
a(S'tr_lr'
I29
tp980
a(S'w'
I730
tp981
a(S'p1_vo'
I10
tp982
a(S'w'
I2
tp983
a(S'p1_tl'
I192
tp984
a(S'w'
I9
tp985
a(S'p2_vo'
I10
tp986
a(S'w'
I3
tp987
a(S'p2_tl'
I224
tp988
a(S'w'
I2
tp989
a(S'p2_ll'
I1
tp990
a(S'w'
I6
tp991
a(S'tr_lr'
I31
tp992
a(S'w'
I4
tp993
a(S'tr_tl'
I64
tp994
a(S'w'
I1
tp995
a(S'tr_ll'
I1
tp996
a(S'w'
I703
tp997
a(S'p1_vo'
I9
tp998
a(S'w'
I4
tp999
a(S'p2_vo'
I9
tp1000
a(S'w'
I4
tp1001
a(S'tr_lr'
I30
tp1002
a(S'w'
I725
tp1003
a(S'p1_vo'
I8
tp1004
a(S'w'
I8
tp1005
a(S'tr_lr'
I29
tp1006
a(S'w'
I730
tp1007
a(S'p1_vo'
I10
tp1008
a(S'w'
I2
tp1009
a(S'p1_tl'
I54
tp1010
a(S'w'
I1
tp1011
a(S'p1_ll'
I1
tp1012
a(S'p1_th'
I4
tp1013
a(S'w'
I8
tp1014
a(S'p2_vo'
I10
tp1015
a(S'w'
I3
tp1016
a(S'p2_tl'
I27
tp1017
a(S'w'
I1
tp1018
a(S'p2_ll'
I1
tp1019
a(S'p2_th'
I2
tp1020
a(S'w'
I7
tp1021
a(S'tr_lr'
I31
tp1022
a(S'w'
I3
tp1023
a(S'tr_tl'
I103
tp1024
a(S'w'
I1
tp1025
a(S'tr_ll'
I1
tp1026
a(S'w'
I704
tp1027
a(S'p1_vo'
I9
tp1028
a(S'w'
I4
tp1029
a(S'p2_vo'
I9
tp1030
a(S'w'
I4
tp1031
a(S'tr_lr'
I30
tp1032
a(S'w'
I726
tp1033
a(S'p1_vo'
I8
tp1034
a(S'w'
I8
tp1035
a(S'tr_lr'
I29
tp1036
a(S'w'
I730
tp1037
a(S'p1_vo'
I10
tp1038
a(S'w'
I2
tp1039
a(S'p1_tl'
I185
tp1040
a(S'w'
I9
tp1041
a(S'p2_vo'
I10
tp1042
a(S'w'
I3
tp1043
a(S'p2_tl'
I207
tp1044
a(S'w'
I1
tp1045
a(S'p2_ll'
I1
tp1046
a(S'w'
I7
tp1047
a(S'tr_lr'
I31
tp1048
a(S'w'
I3
tp1049
a(S'tr_tl'
I240
tp1050
a(S'w'
I1
tp1051
a(S'tr_ll'
I1
tp1052
a(S'tr_th'
I0
tp1053
a(S'w'
I703
tp1054
a(S'p1_vo'
I9
tp1055
a(S'w'
I4
tp1056
a(S'p2_vo'
I9
tp1057
a(S'w'
I4
tp1058
a(S'tr_lr'
I30
tp1059
a(S'w'
I726
tp1060
a(S'p1_vo'
I8
tp1061
a(S'w'
I8
tp1062
a(S'tr_lr'
I29
tp1063
a(S'w'
I731
tp1064
a(S'p1_vo'
I3
tp1065
a(S'w'
I4
tp1066
a(S'p1_tl'
I103
tp1067
a(S'w'
I1
tp1068
a(S'p1_ll'
I1
tp1069
a(S'p1_th'
I1
tp1070
a(S'w'
I6
tp1071
a(S'p2_se'
I0
tp1072
a(S'p2_sp'
I0
tp1073
a(S'p2_ss'
I0
tp1074
a(S'w'
I4
tp1075
a(S'p2_du'
I2
tp1076
a(S'p2_vo'
I3
tp1077
a(S'w'
I3
tp1078
a(S'p2_tl'
I27
tp1079
a(S'w'
I14
tp1080
a(S'tr_lr'
I31
tp1081
a(S'w'
I4
tp1082
a(S'tr_tl'
I171
tp1083
a(S'w'
I1
tp1084
a(S'tr_ll'
I1
tp1085
a(S'tr_th'
I1
tp1086
a(S'w'
I2166
tp1087
a(S'p1_tl'
I83
tp1088
a(S'w'
I12
tp1089
a(S'p2_tl'
I252
tp1090
a(S'w'
I1
tp1091
a(S'p2_ll'
I1
tp1092
a(S'p2_th'
I1
tp1093
a(S'w'
I2190
tp1094
a(S'p1_tl'
I64
tp1095
a(S'w'
I12
tp1096
a(S'p2_tl'
I224
tp1097
a(S'w'
I4388
tp1098
a(S'p1_vo'
I4
tp1099
a(S'w'
I3
tp1100
a(S'w'
I10
tp1101
a(S'p2_vo'
I4
tp1102
a(S'w'
I3
tp1103
a(S'w'
I4386
tp1104
a(S'p1_vo'
I5
tp1105
a(S'w'
I3
tp1106
a(S'w'
I10
tp1107
a(S'p2_vo'
I5
tp1108
a(S'w'
I3
tp1109
a(S'w'
I4387
tp1110
a(S'p1_vo'
I6
tp1111
a(S'w'
I3
tp1112
a(S'w'
I10
tp1113
a(S'p2_vo'
I6
tp1114
a(S'w'
I3
tp1115
a(S'w'
I4387
tp1116
a(S'p1_vo'
I7
tp1117
a(S'w'
I3
tp1118
a(S'w'
I10
tp1119
a(S'p2_vo'
I7
tp1120
a(S'w'
I3
tp1121
a(S'w'
I4387
tp1122
a(S'p1_vo'
I8
tp1123
a(S'w'
I3
tp1124
a(S'w'
I10
tp1125
a(S'p2_vo'
I8
tp1126
a(S'w'
I3
tp1127
a(S'w'
I4386
tp1128
a(S'p1_vo'
I9
tp1129
a(S'w'
I3
tp1130
a(S'w'
I10
tp1131
a(S'p2_vo'
I9
tp1132
a(S'w'
I3
tp1133
a(S'w'
I4387
tp1134
a(S'p1_vo'
I10
tp1135
a(S'w'
I3
tp1136
a(S'w'
I10
tp1137
a(S'p2_vo'
I10
tp1138
a(S'w'
I3
tp1139
a(S'w'
I4387
tp1140
a(S'p1_vo'
I11
tp1141
a(S'w'
I3
tp1142
a(S'w'
I10
tp1143
a(S'p2_vo'
I11
tp1144
a(S'w'
I3
tp1145
a(S'w'
I4387
tp1146
a(S'p1_vo'
I12
tp1147
a(S'w'
I3
tp1148
a(S'w'
I10
tp1149
a(S'p2_vo'
I12
tp1150
a(S'w'
I3
tp1151
a(S'w'
I4386
tp1152
a(S'p1_vo'
I13
tp1153
a(S'w'
I3
tp1154
a(S'w'
I10
tp1155
a(S'p2_vo'
I13
tp1156
a(S'w'
I3
tp1157
a(S'w'
I4387
tp1158
a(S'p1_vo'
I14
tp1159
a(S'w'
I3
tp1160
a(S'w'
I10
tp1161
a(S'p2_vo'
I14
tp1162
a(S'w'
I3
tp1163
a(S'w'
I4387
tp1164
a(S'p1_vo'
I15
tp1165
a(S'w'
I3
tp1166
a(S'w'
I10
tp1167
a(S'p2_vo'
I15
tp1168
a(S'w'
I3
tp1169
a(S'w'
I4387
tp1170
a(S'p1_vo'
I14
tp1171
a(S'w'
I3
tp1172
a(S'w'
I10
tp1173
a(S'p2_vo'
I14
tp1174
a(S'w'
I3
tp1175
a(S'w'
I4386
tp1176
a(S'p1_vo'
I13
tp1177
a(S'w'
I3
tp1178
a(S'w'
I10
tp1179
a(S'p2_vo'
I13
tp1180
a(S'w'
I3
tp1181
a(S'w'
I4387
tp1182
a(S'p1_vo'
I12
tp1183
a(S'w'
I3
tp1184
a(S'w'
I10
tp1185
a(S'p2_vo'
I12
tp1186
a(S'w'
I3
tp1187
a(S'w'
I4387
tp1188
a(S'p1_vo'
I11
tp1189
a(S'w'
I3
tp1190
a(S'w'
I10
tp1191
a(S'p2_vo'
I11
tp1192
a(S'w'
I3
tp1193
a(S'w'
I4387
tp1194
a(S'p1_vo'
I10
tp1195
a(S'w'
I3
tp1196
a(S'w'
I10
tp1197
a(S'p2_vo'
I10
tp1198
a(S'w'
I3
tp1199
a(S'w'
I4386
tp1200
a(S'p1_vo'
I9
tp1201
a(S'w'
I3
tp1202
a(S'w'
I10
tp1203
a(S'p2_vo'
I9
tp1204
a(S'w'
I3
tp1205
a(S'w'
I4387
tp1206
a(S'p1_vo'
I8
tp1207
a(S'w'
I3
tp1208
a(S'w'
I10
tp1209
a(S'p2_vo'
I8
tp1210
a(S'w'
I3
tp1211
a(S'w'
I4387
tp1212
a(S'p1_vo'
I7
tp1213
a(S'w'
I3
tp1214
a(S'w'
I10
tp1215
a(S'p2_vo'
I7
tp1216
a(S'w'
I3
tp1217
a(S'w'
I4387
tp1218
a(S'p1_vo'
I6
tp1219
a(S'w'
I3
tp1220
a(S'w'
I10
tp1221
a(S'p2_vo'
I6
tp1222
a(S'w'
I3
tp1223
a(S'w'
I4386
tp1224
a(S'p1_vo'
I5
tp1225
a(S'w'
I3
tp1226
a(S'w'
I10
tp1227
a(S'p2_vo'
I5
tp1228
a(S'w'
I3
tp1229
a(S'w'
I4387
tp1230
a(S'p1_vo'
I4
tp1231
a(S'w'
I3
tp1232
a(S'w'
I10
tp1233
a(S'p2_vo'
I4
tp1234
a(S'w'
I3
tp1235
a(S'w'
I13
tp1236
a(S'tr_ll'
I1
tp1237
a(S'w'
I4374
tp1238
a(S'p1_vo'
I3
tp1239
a(S'w'
I3
tp1240
a(S'w'
I10
tp1241
a(S'p2_vo'
I3
tp1242
a(S'w'
I3
tp1243
a(S'w'
I4387
tp1244
a(S'p1_vo'
I2
tp1245
a(S'w'
I3
tp1246
a(S'w'
I10
tp1247
a(S'p2_vo'
I2
tp1248
a(S'w'
I3
tp1249
a(S'w'
I4388
tp1250
a(S'w'
I10
tp1251
a(S'p2_du'
I0
tp1252
a(S'p2_vo'
I0
tp1253
a(S'w'
I1
tp1254
a(S'p2_sp'
I3
tp1255
a(S'w'
I8
tp1256
a(S'tr_lh'
I0
tp1257
a(S'tr_lr'
I0
tp1258
a(S'w'
I4382
tp1259
a(S'p1_lh'
I1
tp1260
a(S'p1_vo'
I0
tp1261
a(S'p1_sp'
I3
tp1262
a(S'w'
I45687
tp1263
a.