(lp1
(S'clock'
p2
I1789772
tp3
a(S'p1_du'
I1
tp4
a(S'p1_lh'
I1
tp5
a(S'p1_cv'
I1
tp6
a(S'p1_sn'
I1
tp7
a(S'p1_ll'
I0
tp8
a(S'p2_lh'
I1
tp9
a(S'p2_cv'
I1
tp10
a(S'p2_sn'
I1
tp11
a(S'p2_ll'
I0
tp12
a(S'tr_lh'
I1
tp13
a(S'tr_tl'
I28
tp14
a(S'tr_ll'
I0
tp15
a(S'tr_th'
I2
tp16
a(S'no_lh'
I1
tp17
a(S'no_cv'
I1
tp18
a(S'no_ll'
I0
tp19
a(S'ch_no'
I1
tp20
a(S'ch_tr'
I1
tp21
a(S'ch_p2'
I1
tp22
a(S'ch_p1'
I1
tp23
a(S'fc_mo'
I0
tp24
a(S'w'
I10
tp25
a(S'w'
I34
tp26
a(S'tr_lr'
I127
tp27
a(S'w'
I1
tp28
a(S'tr_ll'
I0
tp29
a(S'w'
I7
tp30
a(S'w'
I1
tp31
a(S'no_ll'
I0
tp32
a(S'w'
I699
tp33
a(S'p1_tl'
I148
tp34
a(S'w'
I1
tp35
a(S'p1_ll'
I0
tp36
a(S'p1_th'
I1
tp37
a(S'w'
I1
tp38
a(S'p1_vo'
I11
tp39
a(S'w'
I83
tp40
a(S'p2_tl'
I149
tp41
a(S'w'
I1
tp42
a(S'p2_ll'
I0
tp43
a(S'p2_th'
I1
tp44
a(S'w'
I1
tp45
a(S'p2_du'
I1
tp46
a(S'p2_vo'
I8
tp47
a(S'w'
I54
tp48
a(S'no_np'
I2
tp49
a(S'no_ll'
I0
tp50
a(S'no_vo'
I6
tp51
a(S'w'
I585
tp52
a(S'w'
I16
tp53
a(S'w'
I24
tp54
a(S'no_np'
I0
tp55
a(S'w'
I1
tp56
a(S'no_ll'
I0
tp57
a(S'no_vo'
I0
tp58
a(S'w'
I695
tp59
a(S'w'
I16
tp60
a(S'w'
I26
tp61
a(S'no_np'
I2
tp62
a(S'w'
I1
tp63
a(S'no_ll'
I0
tp64
a(S'w'
I685
tp65
a(S'w'
I16
tp66
a(S'w'
I14
tp67
a(S'tr_tl'
I27
tp68
a(S'w'
I10
tp69
a(S'no_np'
I0
tp70
a(S'w'
I1
tp71
a(S'no_ll'
I0
tp72
a(S'w'
I680
tp73
a(S'w'
I16
tp74
a(S'w'
I26
tp75
a(S'no_ll'
I0
tp76
a(S'w'
I706
tp77
a(S'w'
I16
tp78
a(S'w'
I14
tp79
a(S'tr_tl'
I28
tp80
a(S'w'
I11
tp81
a(S'no_ll'
I0
tp82
a(S'w'
I693
tp83
a(S'w'
I18
tp84
a(S'w'
I33
tp85
a(S'no_ll'
I0
tp86
a(S'w'
I680
tp87
a(S'w'
I1
tp88
a(S'p1_vo'
I10
tp89
a(S'w'
I15
tp90
a(S'w'
I1
tp91
a(S'p2_vo'
I7
tp92
a(S'w'
I18
tp93
a(S'no_ll'
I0
tp94
a(S'w'
I692
tp95
a(S'w'
I15
tp96
a(S'w'
I21
tp97
a(S'no_ll'
I0
tp98
a(S'w'
I712
tp99
a(S'w'
I17
tp100
a(S'w'
I15
tp101
a(S'tr_tl'
I27
tp102
a(S'w'
I5
tp103
a(S'no_ll'
I0
tp104
a(S'w'
I696
tp105
a(S'w'
I16
tp106
a(S'w'
I21
tp107
a(S'no_ll'
I0
tp108
a(S'w'
I696
tp109
a(S'w'
I16
tp110
a(S'w'
I14
tp111
a(S'tr_tl'
I28
tp112
a(S'w'
I5
tp113
a(S'no_ll'
I0
tp114
a(S'w'
I682
tp115
a(S'p1_tl'
I28
tp116
a(S'w'
I1
tp117
a(S'p1_ll'
I0
tp118
a(S'p1_th'
I2
tp119
a(S'w'
I1
tp120
a(S'p1_vo'
I11
tp121
a(S'w'
I15
tp122
a(S'w'
I19
tp123
a(S'no_ll'
I0
tp124
a(S'w'
I367
tp125
a(S'w'
I18
tp126
a(S'w'
I19
tp127
a(S'w'
I1
tp128
a(S'no_ll'
I0
tp129
a(S'w'
I727
tp130
a(S'w'
I16
tp131
a(S'w'
I1
tp132
a(S'p2_vo'
I6
tp133
a(S'w'
I20
tp134
a(S'no_ll'
I0
tp135
a(S'w'
I1437
tp136
a(S'w'
I17
tp137
a(S'w'
I15
tp138
a(S'tr_tl'
I27
tp139
a(S'w'
I5
tp140
a(S'no_ll'
I0
tp141
a(S'w'
I637
tp142
a(S'w'
I16
tp143
a(S'p2_tl'
I148
tp144
a(S'w'
I21
tp145
a(S'no_ll'
I0
tp146
a(S'w'
I717
tp147
a(S'w'
I16
tp148
a(S'w'
I14
tp149
a(S'tr_tl'
I28
tp150
a(S'w'
I5
tp151
a(S'no_ll'
I0
tp152
a(S'w'
I701
tp153
a(S'w'
I16
tp154
a(S'w'
I19
tp155
a(S'no_ll'
I0
tp156
a(S'w'
I697
tp157
a(S'w'
I1
tp158
a(S'p1_vo'
I10
tp159
a(S'w'
I15
tp160
a(S'w'
I19
tp161
a(S'no_ll'
I0
tp162
a(S'w'
I699
tp163
a(S'w'
I17
tp164
a(S'w'
I21
tp165
a(S'no_ll'
I0
tp166
a(S'w'
I699
tp167
a(S'w'
I18
tp168
a(S'p2_vo'
I5
tp169
a(S'w'
I14
tp170
a(S'tr_tl'
I27
tp171
a(S'w'
I5
tp172
a(S'no_ll'
I0
tp173
a(S'w'
I679
tp174
a(S'w'
I16
tp175
a(S'p2_tl'
I149
tp176
a(S'w'
I21
tp177
a(S'no_ll'
I0
tp178
a(S'w'
I759
tp179
a(S'w'
I16
tp180
a(S'w'
I14
tp181
a(S'tr_tl'
I28
tp182
a(S'w'
I5
tp183
a(S'no_ll'
I0
tp184
a(S'w'
I716
tp185
a(S'p1_tl'
I148
tp186
a(S'w'
I1
tp187
a(S'p1_ll'
I0
tp188
a(S'p1_th'
I1
tp189
a(S'w'
I1
tp190
a(S'p1_vo'
I11
tp191
a(S'w'
I15
tp192
a(S'w'
I19
tp193
a(S'no_ll'
I0
tp194
a(S'w'
I694
tp195
a(S'w'
I15
tp196
a(S'w'
I20
tp197
a(S'no_ll'
I0
tp198
a(S'w'
I701
tp199
a(S'w'
I16
tp200
a(S'w'
I21
tp201
a(S'no_ll'
I0
tp202
a(S'w'
I694
tp203
a(S'w'
I20
tp204
a(S'w'
I14
tp205
a(S'tr_tl'
I27
tp206
a(S'w'
I5
tp207
a(S'no_ll'
I0
tp208
a(S'w'
I621
tp209
a(S'w'
I16
tp210
a(S'p2_tl'
I148
tp211
a(S'w'
I1
tp212
a(S'p2_vo'
I4
tp213
a(S'w'
I20
tp214
a(S'no_ll'
I0
tp215
a(S'w'
I689
tp216
a(S'w'
I16
tp217
a(S'w'
I14
tp218
a(S'tr_tl'
I28
tp219
a(S'w'
I5
tp220
a(S'no_ll'
I0
tp221
a(S'w'
I702
tp222
a(S'w'
I16
tp223
a(S'w'
I19
tp224
a(S'no_ll'
I0
tp225
a(S'w'
I695
tp226
a(S'w'
I1
tp227
a(S'p1_vo'
I10
tp228
a(S'w'
I14
tp229
a(S'w'
I20
tp230
a(S'no_ll'
I0
tp231
a(S'w'
I698
tp232
a(S'w'
I16
tp233
a(S'w'
I21
tp234
a(S'no_ll'
I0
tp235
a(S'w'
I699
tp236
a(S'w'
I17
tp237
a(S'w'
I15
tp238
a(S'tr_tl'
I27
tp239
a(S'w'
I4
tp240
a(S'w'
I1
tp241
a(S'no_ll'
I0
tp242
a(S'w'
I695
tp243
a(S'w'
I16
tp244
a(S'p2_tl'
I149
tp245
a(S'w'
I21
tp246
a(S'no_ll'
I0
tp247
a(S'w'
I703
tp248
a(S'w'
I16
tp249
a(S'w'
I14
tp250
a(S'tr_tl'
I28
tp251
a(S'w'
I5
tp252
a(S'no_ll'
I0
tp253
a(S'w'
I693
tp254
a(S'p1_tl'
I104
tp255
a(S'w'
I1
tp256
a(S'p1_ll'
I0
tp257
a(S'w'
I1
tp258
a(S'p1_vo'
I11
tp259
a(S'w'
I15
tp260
a(S'w'
I19
tp261
a(S'no_ll'
I0
tp262
a(S'w'
I700
tp263
a(S'w'
I16
tp264
a(S'w'
I19
tp265
a(S'no_ll'
I0
tp266
a(S'w'
I699
tp267
a(S'w'
I15
tp268
a(S'w'
I21
tp269
a(S'no_ll'
I0
tp270
a(S'w'
I695
tp271
a(S'w'
I18
tp272
a(S'w'
I14
tp273
a(S'tr_tl'
I27
tp274
a(S'w'
I5
tp275
a(S'no_ll'
I0
tp276
a(S'w'
I697
tp277
a(S'w'
I16
tp278
a(S'p2_tl'
I148
tp279
a(S'w'
I21
tp280
a(S'no_ll'
I0
tp281
a(S'w'
I697
tp282
a(S'w'
I18
tp283
a(S'w'
I14
tp284
a(S'tr_tl'
I28
tp285
a(S'w'
I5
tp286
a(S'no_ll'
I0
tp287
a(S'w'
I699
tp288
a(S'w'
I15
tp289
a(S'w'
I1
tp290
a(S'p2_vo'
I3
tp291
a(S'w'
I19
tp292
a(S'no_ll'
I0
tp293
a(S'w'
I696
tp294
a(S'w'
I1
tp295
a(S'p1_vo'
I10
tp296
a(S'w'
I15
tp297
a(S'w'
I19
tp298
a(S'w'
I1
tp299
a(S'no_ll'
I0
tp300
a(S'w'
I698
tp301
a(S'w'
I16
tp302
a(S'w'
I21
tp303
a(S'no_ll'
I0
tp304
a(S'w'
I701
tp305
a(S'w'
I17
tp306
a(S'w'
I15
tp307
a(S'tr_tl'
I27
tp308
a(S'w'
I5
tp309
a(S'no_ll'
I0
tp310
a(S'w'
I695
tp311
a(S'w'
I16
tp312
a(S'p2_tl'
I149
tp313
a(S'w'
I25
tp314
a(S'no_ll'
I0
tp315
a(S'w'
I697
tp316
a(S'w'
I21
tp317
a(S'w'
I15
tp318
a(S'tr_tl'
I148
tp319
a(S'w'
I1
tp320
a(S'tr_ll'
I0
tp321
a(S'tr_th'
I1
tp322
a(S'w'
I7
tp323
a(S'no_ll'
I0
tp324
a(S'w'
I684
tp325
a(S'p1_tl'
I65
tp326
a(S'w'
I1
tp327
a(S'p1_ll'
I0
tp328
a(S'p1_vo'
I11
tp329
a(S'w'
I16
tp330
a(S'p2_tl'
I66
tp331
a(S'p2_ll'
I0
tp332
a(S'w'
I1
tp333
a(S'p2_vo'
I8
tp334
a(S'w'
I37
tp335
a(S'no_np'
I2
tp336
a(S'no_ll'
I0
tp337
a(S'w'
I1
tp338
a(S'no_vo'
I6
tp339
a(S'w'
I677
tp340
a(S'w'
I16
tp341
a(S'w'
I25
tp342
a(S'no_np'
I0
tp343
a(S'no_ll'
I0
tp344
a(S'no_vo'
I0
tp345
a(S'w'
I693
tp346
a(S'w'
I16
tp347
a(S'w'
I26
tp348
a(S'no_np'
I2
tp349
a(S'no_ll'
I0
tp350
a(S'w'
I692
tp351
a(S'w'
I15
tp352
a(S'w'
I15
tp353
a(S'tr_tl'
I147
tp354
a(S'w'
I10
tp355
a(S'no_np'
I0
tp356
a(S'no_ll'
I0
tp357
a(S'w'
I694
tp358
a(S'w'
I15
tp359
a(S'w'
I27
tp360
a(S'no_ll'
I0
tp361
a(S'w'
I694
tp362
a(S'w'
I15
tp363
a(S'w'
I15
tp364
a(S'tr_tl'
I148
tp365
a(S'w'
I11
tp366
a(S'no_ll'
I0
tp367
a(S'w'
I694
tp368
a(S'w'
I18
tp369
a(S'w'
I33
tp370
a(S'no_ll'
I0
tp371
a(S'w'
I679
tp372
a(S'w'
I1
tp373
a(S'p1_vo'
I10
tp374
a(S'w'
I15
tp375
a(S'w'
I1
tp376
a(S'p2_vo'
I7
tp377
a(S'w'
I18
tp378
a(S'no_ll'
I0
tp379
a(S'w'
I699
tp380
a(S'w'
I15
tp381
a(S'w'
I22
tp382
a(S'no_ll'
I0
tp383
a(S'w'
I698
tp384
a(S'w'
I17
tp385
a(S'w'
I15
tp386
a(S'tr_tl'
I147
tp387
a(S'w'
I5
tp388
a(S'no_ll'
I0
tp389
a(S'w'
I695
tp390
a(S'w'
I16
tp391
a(S'w'
I21
tp392
a(S'no_ll'
I0
tp393
a(S'w'
I703
tp394
a(S'w'
I16
tp395
a(S'w'
I14
tp396
a(S'tr_tl'
I148
tp397
a(S'w'
I5
tp398
a(S'no_ll'
I0
tp399
a(S'w'
I693
tp400
a(S'p1_tl'
I148
tp401
a(S'w'
I1
tp402
a(S'p1_ll'
I0
tp403
a(S'w'
I1
tp404
a(S'p1_vo'
I11
tp405
a(S'w'
I14
tp406
a(S'w'
I20
tp407
a(S'no_ll'
I0
tp408
a(S'w'
I700
tp409
a(S'w'
I18
tp410
a(S'w'
I19
tp411
a(S'no_ll'
I0
tp412
a(S'w'
I697
tp413
a(S'w'
I15
tp414
a(S'w'
I1
tp415
a(S'p2_vo'
I6
tp416
a(S'w'
I20
tp417
a(S'no_ll'
I0
tp418
a(S'w'
I695
tp419
a(S'w'
I17
tp420
a(S'w'
I15
tp421
a(S'tr_tl'
I147
tp422
a(S'w'
I5
tp423
a(S'no_ll'
I0
tp424
a(S'w'
I697
tp425
a(S'w'
I16
tp426
a(S'p2_tl'
I65
tp427
a(S'w'
I21
tp428
a(S'no_ll'
I0
tp429
a(S'w'
I697
tp430
a(S'w'
I16
tp431
a(S'w'
I14
tp432
a(S'tr_tl'
I148
tp433
a(S'w'
I5
tp434
a(S'no_ll'
I0
tp435
a(S'w'
I701
tp436
a(S'w'
I15
tp437
a(S'w'
I20
tp438
a(S'no_ll'
I0
tp439
a(S'w'
I696
tp440
a(S'w'
I1
tp441
a(S'p1_vo'
I10
tp442
a(S'w'
I15
tp443
a(S'w'
I20
tp444
a(S'no_ll'
I0
tp445
a(S'w'
I698
tp446
a(S'w'
I18
tp447
a(S'w'
I21
tp448
a(S'no_ll'
I0
tp449
a(S'w'
I699
tp450
a(S'w'
I17
tp451
a(S'w'
I1
tp452
a(S'p2_vo'
I5
tp453
a(S'w'
I14
tp454
a(S'tr_tl'
I147
tp455
a(S'w'
I5
tp456
a(S'no_ll'
I0
tp457
a(S'w'
I695
tp458
a(S'w'
I16
tp459
a(S'p2_tl'
I66
tp460
a(S'w'
I21
tp461
a(S'no_ll'
I0
tp462
a(S'w'
I701
tp463
a(S'w'
I15
tp464
a(S'w'
I15
tp465
a(S'tr_tl'
I148
tp466
a(S'w'
I5
tp467
a(S'no_ll'
I0
tp468
a(S'w'
I693
tp469
a(S'p1_tl'
I65
tp470
a(S'w'
I1
tp471
a(S'p1_ll'
I0
tp472
a(S'w'
I1
tp473
a(S'p1_vo'
I11
tp474
a(S'w'
I14
tp475
a(S'w'
I20
tp476
a(S'no_ll'
I0
tp477
a(S'w'
I697
tp478
a(S'w'
I16
tp479
a(S'w'
I20
tp480
a(S'no_ll'
I0
tp481
a(S'w'
I698
tp482
a(S'w'
I16
tp483
a(S'w'
I21
tp484
a(S'no_ll'
I0
tp485
a(S'w'
I697
tp486
a(S'w'
I19
tp487
a(S'w'
I15
tp488
a(S'tr_tl'
I147
tp489
a(S'w'
I5
tp490
a(S'no_ll'
I0
tp491
a(S'w'
I695
tp492
a(S'w'
I16
tp493
a(S'p2_tl'
I65
tp494
a(S'p2_vo'
I4
tp495
a(S'w'
I21
tp496
a(S'no_ll'
I0
tp497
a(S'w'
I699
tp498
a(S'w'
I16
tp499
a(S'w'
I14
tp500
a(S'tr_tl'
I148
tp501
a(S'w'
I5
tp502
a(S'no_ll'
I0
tp503
a(S'w'
I701
tp504
a(S'w'
I15
tp505
a(S'w'
I20
tp506
a(S'no_ll'
I0
tp507
a(S'w'
I694
tp508
a(S'w'
I1
tp509
a(S'p1_vo'
I10
tp510
a(S'w'
I15
tp511
a(S'w'
I19
tp512
a(S'w'
I1
tp513
a(S'no_ll'
I0
tp514
a(S'w'
I698
tp515
a(S'w'
I16
tp516
a(S'w'
I21
tp517
a(S'no_ll'
I0
tp518
a(S'w'
I698
tp519
a(S'w'
I18
tp520
a(S'w'
I14
tp521
a(S'tr_tl'
I147
tp522
a(S'w'
I5
tp523
a(S'no_ll'
I0
tp524
a(S'w'
I696
tp525
a(S'w'
I15
tp526
a(S'p2_tl'
I66
tp527
a(S'w'
I21
tp528
a(S'no_ll'
I0
tp529
a(S'w'
I703
tp530
a(S'w'
I16
tp531
a(S'w'
I15
tp532
a(S'tr_tl'
I148
tp533
a(S'w'
I5
tp534
a(S'no_ll'
I0
tp535
a(S'w'
I693
tp536
a(S'p1_tl'
I13
tp537
a(S'w'
I1
tp538
a(S'p1_ll'
I0
tp539
a(S'p1_vo'
I11
tp540
a(S'w'
I15
tp541
a(S'w'
I19
tp542
a(S'w'
I1
tp543
a(S'no_ll'
I0
tp544
a(S'w'
I699
tp545
a(S'w'
I16
tp546
a(S'w'
I19
tp547
a(S'w'
I1
tp548
a(S'no_ll'
I0
tp549
a(S'w'
I698
tp550
a(S'w'
I16
tp551
a(S'w'
I21
tp552
a(S'no_ll'
I0
tp553
a(S'w'
I695
tp554
a(S'w'
I17
tp555
a(S'w'
I15
tp556
a(S'tr_tl'
I147
tp557
a(S'w'
I4
tp558
a(S'w'
I1
tp559
a(S'no_ll'
I0
tp560
a(S'w'
I697
tp561
a(S'w'
I15
tp562
a(S'p2_tl'
I65
tp563
a(S'w'
I21
tp564
a(S'no_ll'
I0
tp565
a(S'w'
I697
tp566
a(S'w'
I18
tp567
a(S'w'
I15
tp568
a(S'tr_tl'
I148
tp569
a(S'w'
I4
tp570
a(S'w'
I1
tp571
a(S'no_ll'
I0
tp572
a(S'w'
I698
tp573
a(S'w'
I16
tp574
a(S'w'
I1
tp575
a(S'p2_vo'
I3
tp576
a(S'w'
I18
tp577
a(S'no_ll'
I0
tp578
a(S'w'
I697
tp579
a(S'w'
I1
tp580
a(S'p1_vo'
I10
tp581
a(S'w'
I14
tp582
a(S'w'
I20
tp583
a(S'no_ll'
I0
tp584
a(S'w'
I699
tp585
a(S'w'
I15
tp586
a(S'w'
I21
tp587
a(S'no_ll'
I0
tp588
a(S'w'
I701
tp589
a(S'w'
I18
tp590
a(S'w'
I14
tp591
a(S'tr_tl'
I147
tp592
a(S'w'
I5
tp593
a(S'no_ll'
I0
tp594
a(S'w'
I695
tp595
a(S'w'
I16
tp596
a(S'p2_tl'
I66
tp597
a(S'w'
I25
tp598
a(S'no_ll'
I0
tp599
a(S'w'
I697
tp600
a(S'w'
I22
tp601
a(S'w'
I28
tp602
a(S'tr_tl'
I172
tp603
a(S'tr_ll'
I0
tp604
a(S'w'
I7
tp605
a(S'no_ll'
I0
tp606
a(S'w'
I691
tp607
a(S'p1_tl'
I214
tp608
a(S'w'
I1
tp609
a(S'p1_ll'
I0
tp610
a(S'p1_th'
I0
tp611
a(S'p1_vo'
I11
tp612
a(S'w'
I37
tp613
a(S'p2_tl'
I85
tp614
a(S'w'
I1
tp615
a(S'p2_ll'
I0
tp616
a(S'w'
I1
tp617
a(S'p2_vo'
I8
tp618
a(S'w'
I37
tp619
a(S'no_np'
I2
tp620
a(S'no_ll'
I0
tp621
a(S'w'
I1
tp622
a(S'no_vo'
I6
tp623
a(S'w'
I635
tp624
a(S'w'
I16
tp625
a(S'w'
I25
tp626
a(S'no_np'
I0
tp627
a(S'no_ll'
I0
tp628
a(S'no_vo'
I0
tp629
a(S'w'
I693
tp630
a(S'w'
I16
tp631
a(S'w'
I26
tp632
a(S'no_np'
I2
tp633
a(S'no_ll'
I0
tp634
a(S'w'
I692
tp635
a(S'w'
I16
tp636
a(S'w'
I14
tp637
a(S'tr_tl'
I171
tp638
a(S'w'
I11
tp639
a(S'no_np'
I0
tp640
a(S'no_ll'
I0
tp641
a(S'w'
I693
tp642
a(S'w'
I16
tp643
a(S'w'
I26
tp644
a(S'no_ll'
I0
tp645
a(S'w'
I694
tp646
a(S'w'
I16
tp647
a(S'w'
I14
tp648
a(S'tr_tl'
I172
tp649
a(S'w'
I11
tp650
a(S'no_ll'
I0
tp651
a(S'w'
I695
tp652
a(S'w'
I17
tp653
a(S'w'
I33
tp654
a(S'no_ll'
I0
tp655
a(S'w'
I679
tp656
a(S'w'
I1
tp657
a(S'p1_vo'
I10
tp658
a(S'w'
I15
tp659
a(S'w'
I1
tp660
a(S'p2_vo'
I7
tp661
a(S'w'
I18
tp662
a(S'w'
I1
tp663
a(S'no_ll'
I0
tp664
a(S'w'
I698
tp665
a(S'w'
I16
tp666
a(S'w'
I21
tp667
a(S'no_ll'
I0
tp668
a(S'w'
I698
tp669
a(S'w'
I16
tp670
a(S'w'
I15
tp671
a(S'tr_tl'
I171
tp672
a(S'w'
I5
tp673
a(S'no_ll'
I0
tp674
a(S'w'
I697
tp675
a(S'w'
I15
tp676
a(S'w'
I21
tp677
a(S'w'
I1
tp678
a(S'no_ll'
I0
tp679
a(S'w'
I702
tp680
a(S'w'
I16
tp681
a(S'w'
I15
tp682
a(S'tr_tl'
I172
tp683
a(S'w'
I5
tp684
a(S'no_ll'
I0
tp685
a(S'w'
I705
tp686
a(S'p1_tl'
I30
tp687
a(S'w'
I1
tp688
a(S'p1_ll'
I0
tp689
a(S'p1_th'
I1
tp690
a(S'w'
I1
tp691
a(S'p1_vo'
I11
tp692
a(S'w'
I15
tp693
a(S'w'
I19
tp694
a(S'no_ll'
I0
tp695
a(S'w'
I688
tp696
a(S'w'
I17
tp697
a(S'w'
I20
tp698
a(S'no_ll'
I0
tp699
a(S'w'
I696
tp700
a(S'w'
I16
tp701
a(S'w'
I1
tp702
a(S'p2_vo'
I6
tp703
a(S'w'
I20
tp704
a(S'no_ll'
I0
tp705
a(S'w'
I695
tp706
a(S'w'
I16
tp707
a(S'w'
I14
tp708
a(S'tr_tl'
I171
tp709
a(S'w'
I5
tp710
a(S'no_ll'
I0
tp711
a(S'w'
I699
tp712
a(S'w'
I15
tp713
a(S'w'
I21
tp714
a(S'no_ll'
I0
tp715
a(S'w'
I697
tp716
a(S'w'
I16
tp717
a(S'w'
I15
tp718
a(S'tr_tl'
I172
tp719
a(S'w'
I5
tp720
a(S'no_ll'
I0
tp721
a(S'w'
I700
tp722
a(S'w'
I16
tp723
a(S'w'
I19
tp724
a(S'no_ll'
I0
tp725
a(S'w'
I697
tp726
a(S'w'
I1
tp727
a(S'p1_vo'
I10
tp728
a(S'w'
I15
tp729
a(S'w'
I19
tp730
a(S'no_ll'
I0
tp731
a(S'w'
I699
tp732
a(S'w'
I18
tp733
a(S'w'
I21
tp734
a(S'no_ll'
I0
tp735
a(S'w'
I699
tp736
a(S'w'
I15
tp737
a(S'w'
I1
tp738
a(S'p2_vo'
I5
tp739
a(S'w'
I14
tp740
a(S'tr_tl'
I171
tp741
a(S'w'
I5
tp742
a(S'no_ll'
I0
tp743
a(S'w'
I697
tp744
a(S'w'
I15
tp745
a(S'w'
I22
tp746
a(S'no_ll'
I0
tp747
a(S'w'
I694
tp748
a(S'w'
I16
tp749
a(S'w'
I15
tp750
a(S'tr_tl'
I172
tp751
a(S'w'
I4
tp752
a(S'w'
I1
tp753
a(S'no_ll'
I0
tp754
a(S'w'
I698
tp755
a(S'w'
I16
tp756
a(S'w'
I19
tp757
a(S'no_ll'
I0
tp758
a(S'w'
I707
tp759
a(S'w'
I16
tp760
a(S'w'
I19
tp761
a(S'no_ll'
I0
tp762
a(S'w'
I704
tp763
a(S'p1_tl'
I65
tp764
a(S'p1_ll'
I0
tp765
a(S'w'
I1
tp766
a(S'p1_vo'
I11
tp767
a(S'w'
I15
tp768
a(S'w'
I21
tp769
a(S'no_ll'
I0
tp770
a(S'w'
I683
tp771
a(S'w'
I18
tp772
a(S'w'
I15
tp773
a(S'tr_tl'
I171
tp774
a(S'w'
I5
tp775
a(S'no_ll'
I0
tp776
a(S'w'
I696
tp777
a(S'w'
I16
tp778
a(S'w'
I1
tp779
a(S'p2_vo'
I4
tp780
a(S'w'
I20
tp781
a(S'no_ll'
I0
tp782
a(S'w'
I699
tp783
a(S'w'
I16
tp784
a(S'w'
I15
tp785
a(S'tr_tl'
I172
tp786
a(S'w'
I4
tp787
a(S'w'
I1
tp788
a(S'no_ll'
I0
tp789
a(S'w'
I698
tp790
a(S'w'
I16
tp791
a(S'w'
I19
tp792
a(S'no_ll'
I0
tp793
a(S'w'
I697
tp794
a(S'w'
I15
tp795
a(S'w'
I20
tp796
a(S'no_ll'
I0
tp797
a(S'w'
I700
tp798
a(S'w'
I16
tp799
a(S'w'
I21
tp800
a(S'no_ll'
I0
tp801
a(S'w'
I695
tp802
a(S'w'
I1
tp803
a(S'p1_vo'
I10
tp804
a(S'w'
I15
tp805
a(S'w'
I15
tp806
a(S'tr_tl'
I171
tp807
a(S'w'
I4
tp808
a(S'w'
I1
tp809
a(S'no_ll'
I0
tp810
a(S'w'
I698
tp811
a(S'w'
I16
tp812
a(S'w'
I21
tp813
a(S'no_ll'
I0
tp814
a(S'w'
I698
tp815
a(S'w'
I16
tp816
a(S'w'
I15
tp817
a(S'tr_tl'
I172
tp818
a(S'w'
I5
tp819
a(S'no_ll'
I0
tp820
a(S'w'
I697
tp821
a(S'w'
I15
tp822
a(S'w'
I20
tp823
a(S'no_ll'
I0
tp824
a(S'w'
I701
tp825
a(S'w'
I15
tp826
a(S'w'
I20
tp827
a(S'no_ll'
I0
tp828
a(S'w'
I699
tp829
a(S'w'
I15
tp830
a(S'w'
I21
tp831
a(S'no_ll'
I0
tp832
a(S'w'
I697
tp833
a(S'w'
I16
tp834
a(S'w'
I14
tp835
a(S'tr_tl'
I171
tp836
a(S'w'
I5
tp837
a(S'no_ll'
I0
tp838
a(S'w'
I697
tp839
a(S'w'
I1
tp840
a(S'p1_vo'
I9
tp841
a(S'w'
I15
tp842
a(S'w'
I21
tp843
a(S'no_ll'
I0
tp844
a(S'w'
I704
tp845
a(S'w'
I18
tp846
a(S'w'
I14
tp847
a(S'tr_tl'
I172
tp848
a(S'w'
I5
tp849
a(S'no_ll'
I0
tp850
a(S'w'
I702
tp851
a(S'p1_tl'
I126
tp852
a(S'w'
I1
tp853
a(S'p1_ll'
I0
tp854
a(S'w'
I1
tp855
a(S'p1_vo'
I11
tp856
a(S'w'
I14
tp857
a(S'w'
I1
tp858
a(S'p2_vo'
I3
tp859
a(S'w'
I19
tp860
a(S'no_ll'
I0
tp861
a(S'w'
I685
tp862
a(S'w'
I16
tp863
a(S'w'
I19
tp864
a(S'no_ll'
I0
tp865
a(S'w'
I699
tp866
a(S'w'
I16
tp867
a(S'w'
I21
tp868
a(S'no_ll'
I0
tp869
a(S'w'
I699
tp870
a(S'w'
I16
tp871
a(S'w'
I14
tp872
a(S'tr_tl'
I171
tp873
a(S'w'
I5
tp874
a(S'no_ll'
I0
tp875
a(S'w'
I699
tp876
a(S'w'
I16
tp877
a(S'w'
I21
tp878
a(S'no_ll'
I0
tp879
a(S'w'
I694
tp880
a(S'w'
I16
tp881
a(S'w'
I15
tp882
a(S'tr_tl'
I172
tp883
a(S'w'
I5
tp884
a(S'no_ll'
I0
tp885
a(S'w'
I700
tp886
a(S'w'
I16
tp887
a(S'w'
I19
tp888
a(S'no_ll'
I0
tp889
a(S'w'
I697
tp890
a(S'w'
I1
tp891
a(S'p1_vo'
I10
tp892
a(S'w'
I15
tp893
a(S'w'
I19
tp894
a(S'no_ll'
I0
tp895
a(S'w'
I699
tp896
a(S'w'
I15
tp897
a(S'w'
I21
tp898
a(S'w'
I1
tp899
a(S'no_ll'
I0
tp900
a(S'w'
I698
tp901
a(S'w'
I16
tp902
a(S'w'
I14
tp903
a(S'tr_tl'
I171
tp904
a(S'w'
I5
tp905
a(S'no_ll'
I0
tp906
a(S'w'
I697
tp907
a(S'w'
I16
tp908
a(S'w'
I21
tp909
a(S'no_ll'
I0
tp910
a(S'w'
I699
tp911
a(S'w'
I16
tp912
a(S'w'
I15
tp913
a(S'tr_tl'
I172
tp914
a(S'w'
I5
tp915
a(S'no_ll'
I0
tp916
a(S'w'
I698
tp917
a(S'w'
I16
tp918
a(S'w'
I19
tp919
a(S'w'
I1
tp920
a(S'no_ll'
I0
tp921
a(S'w'
I698
tp922
a(S'w'
I17
tp923
a(S'w'
I20
tp924
a(S'no_ll'
I0
tp925
a(S'w'
I695
tp926
a(S'w'
I1
tp927
a(S'p1_vo'
I9
tp928
a(S'w'
I14
tp929
a(S'w'
I1
tp930
a(S'p2_vo'
I2
tp931
a(S'w'
I20
tp932
a(S'no_ll'
I0
tp933
a(S'w'
I699
tp934
a(S'w'
I16
tp935
a(S'w'
I14
tp936
a(S'tr_tl'
I171
tp937
a(S'w'
I5
tp938
a(S'no_ll'
I0
tp939
a(S'w'
I697
tp940
a(S'p1_tl'
I125
tp941
a(S'w'
I16
tp942
a(S'w'
I21
tp943
a(S'no_ll'
I0
tp944
a(S'w'
I703
tp945
a(S'w'
I16
tp946
a(S'w'
I14
tp947
a(S'tr_tl'
I172
tp948
a(S'w'
I5
tp949
a(S'no_ll'
I0
tp950
a(S'w'
I723
tp951
a(S'p1_tl'
I84
tp952
a(S'p1_ll'
I0
tp953
a(S'w'
I1
tp954
a(S'p1_vo'
I11
tp955
a(S'w'
I15
tp956
a(S'w'
I19
tp957
a(S'no_ll'
I0
tp958
a(S'w'
I671
tp959
a(S'w'
I16
tp960
a(S'w'
I19
tp961
a(S'no_ll'
I0
tp962
a(S'w'
I699
tp963
a(S'w'
I16
tp964
a(S'w'
I21
tp965
a(S'no_ll'
I0
tp966
a(S'w'
I694
tp967
a(S'w'
I16
tp968
a(S'w'
I15
tp969
a(S'tr_tl'
I171
tp970
a(S'w'
I4
tp971
a(S'w'
I1
tp972
a(S'no_ll'
I0
tp973
a(S'w'
I698
tp974
a(S'w'
I16
tp975
a(S'w'
I21
tp976
a(S'no_ll'
I0
tp977
a(S'w'
I697
tp978
a(S'w'
I16
tp979
a(S'w'
I14
tp980
a(S'tr_tl'
I172
tp981
a(S'w'
I5
tp982
a(S'no_ll'
I0
tp983
a(S'w'
I701
tp984
a(S'w'
I15
tp985
a(S'w'
I20
tp986
a(S'no_ll'
I0
tp987
a(S'w'
I696
tp988
a(S'w'
I1
tp989
a(S'p1_vo'
I10
tp990
a(S'w'
I15
tp991
a(S'w'
I20
tp992
a(S'no_ll'
I0
tp993
a(S'w'
I698
tp994
a(S'w'
I16
tp995
a(S'w'
I21
tp996
a(S'no_ll'
I0
tp997
a(S'w'
I699
tp998
a(S'w'
I18
tp999
a(S'w'
I15
tp1000
a(S'tr_tl'
I171
tp1001
a(S'w'
I5
tp1002
a(S'no_ll'
I0
tp1003
a(S'w'
I696
tp1004
a(S'w'
I16
tp1005
a(S'w'
I1
tp1006
a(S'p2_vo'
I1
tp1007
a(S'w'
I20
tp1008
a(S'no_ll'
I0
tp1009
a(S'w'
I695
tp1010
a(S'w'
I15
tp1011
a(S'w'
I15
tp1012
a(S'tr_tl'
I172
tp1013
a(S'w'
I5
tp1014
a(S'no_ll'
I0
tp1015
a(S'w'
I699
tp1016
a(S'w'
I15
tp1017
a(S'w'
I20
tp1018
a(S'no_ll'
I0
tp1019
a(S'w'
I700
tp1020
a(S'w'
I16
tp1021
a(S'w'
I19
tp1022
a(S'w'
I1
tp1023
a(S'no_ll'
I0
tp1024
a(S'w'
I696
tp1025
a(S'w'
I1
tp1026
a(S'p1_vo'
I9
tp1027
a(S'w'
I15
tp1028
a(S'w'
I21
tp1029
a(S'no_ll'
I0
tp1030
a(S'w'
I697
tp1031
a(S'w'
I16
tp1032
a(S'w'
I19
tp1033
a(S'no_ll'
I0
tp1034
a(S'w'
I699
tp1035
a(S'w'
I15
tp1036
a(S'w'
I20
tp1037
a(S'no_ll'
I0
tp1038
a(S'w'
I701
tp1039
a(S'w'
I16
tp1040
a(S'w'
I19
tp1041
a(S'no_ll'
I0
tp1042
a(S'w'
I699
tp1043
a(S'w'
I15
tp1044
a(S'w'
I20
tp1045
a(S'no_ll'
I0
tp1046
a(S'w'
I696
tp1047
a(S'w'
I16
tp1048
a(S'w'
I19
tp1049
a(S'no_ll'
I0
tp1050
a(S'w'
I701
tp1051
a(S'w'
I16
tp1052
a(S'w'
I19
tp1053
a(S'no_ll'
I0
tp1054
a(S'w'
I697
tp1055
a(S'w'
I1
tp1056
a(S'p1_vo'
I8
tp1057
a(S'w'
I14
tp1058
a(S'w'
I20
tp1059
a(S'no_ll'
I0
tp1060
a(S'w'
I699
tp1061
a(S'w'
I15
tp1062
a(S'w'
I20
tp1063
a(S'no_ll'
I0
tp1064
a(S'w'
I698
tp1065
a(S'w'
I16
tp1066
a(S'w'
I20
tp1067
a(S'no_ll'
I0
tp1068
a(S'w'
I698
tp1069
a(S'w'
I16
tp1070
a(S'w'
I19
tp1071
a(S'no_ll'
I0
tp1072
a(S'w'
I701
tp1073
a(S'w'
I16
tp1074
a(S'w'
I19
tp1075
a(S'w'
I1
tp1076
a(S'no_ll'
I0
tp1077
a(S'w'
I698
tp1078
a(S'w'
I16
tp1079
a(S'w'
I19
tp1080
a(S'no_ll'
I0
tp1081
a(S'w'
I699
tp1082
a(S'w'
I15
tp1083
a(S'w'
I20
tp1084
a(S'no_ll'
I0
tp1085
a(S'w'
I696
tp1086
a(S'w'
I1
tp1087
a(S'p1_vo'
I7
tp1088
a(S'w'
I15
tp1089
a(S'w'
I20
tp1090
a(S'no_ll'
I0
tp1091
a(S'w'
I698
tp1092
a(S'w'
I16
tp1093
a(S'w'
I19
tp1094
a(S'no_ll'
I0
tp1095
a(S'w'
I699
tp1096
a(S'w'
I16
tp1097
a(S'w'
I19
tp1098
a(S'no_ll'
I0
tp1099
a(S'w'
I699
tp1100
a(S'w'
I15
tp1101
a(S'w'
I20
tp1102
a(S'no_ll'
I0
tp1103
a(S'w'
I699
tp1104
a(S'w'
I15
tp1105
a(S'w'
I20
tp1106
a(S'no_ll'
I0
tp1107
a(S'w'
I701
tp1108
a(S'w'
I15
tp1109
a(S'w'
I20
tp1110
a(S'no_ll'
I0
tp1111
a(S'w'
I698
tp1112
a(S'w'
I16
tp1113
a(S'w'
I20
tp1114
a(S'no_ll'
I0
tp1115
a(S'w'
I696
tp1116
a(S'w'
I16
tp1117
a(S'w'
I19
tp1118
a(S'no_ll'
I0
tp1119
a(S'w'
I699
tp1120
a(S'w'
I15
tp1121
a(S'w'
I20
tp1122
a(S'no_ll'
I0
tp1123
a(S'w'
I699
tp1124
a(S'w'
I15
tp1125
a(S'w'
I20
tp1126
a(S'no_ll'
I0
tp1127
a(S'w'
I698
tp1128
a(S'w'
I16
tp1129
a(S'w'
I20
tp1130
a(S'no_ll'
I0
tp1131
a(S'w'
I698
tp1132
a(S'w'
I16
tp1133
a(S'w'
I19
tp1134
a(S'no_ll'
I0
tp1135
a(S'w'
I699
tp1136
a(S'w'
I16
tp1137
a(S'w'
I19
tp1138
a(S'no_ll'
I0
tp1139
a(S'w'
I703
tp1140
a(S'w'
I16
tp1141
a(S'w'
I19
tp1142
a(S'no_ll'
I0
tp1143
a(S'w'
I697
tp1144
a(S'w'
I1
tp1145
a(S'p1_vo'
I6
tp1146
a(S'w'
I15
tp1147
a(S'w'
I19
tp1148
a(S'no_ll'
I0
tp1149
a(S'w'
I696
tp1150
a(S'w'
I16
tp1151
a(S'w'
I20
tp1152
a(S'no_ll'
I0
tp1153
a(S'w'
I698
tp1154
a(S'w'
I16
tp1155
a(S'w'
I19
tp1156
a(S'no_ll'
I0
tp1157
a(S'w'
I699
tp1158
a(S'w'
I16
tp1159
a(S'w'
I19
tp1160
a(S'no_ll'
I0
tp1161
a(S'w'
I699
tp1162
a(S'w'
I15
tp1163
a(S'w'
I20
tp1164
a(S'no_ll'
I0
tp1165
a(S'w'
I699
tp1166
a(S'w'
I15
tp1167
a(S'w'
I20
tp1168
a(S'no_ll'
I0
tp1169
a(S'w'
I698
tp1170
a(S'w'
I16
tp1171
a(S'w'
I20
tp1172
a(S'no_ll'
I0
tp1173
a(S'w'
I700
tp1174
a(S'w'
I16
tp1175
a(S'w'
I20
tp1176
a(S'no_ll'
I0
tp1177
a(S'w'
I698
tp1178
a(S'w'
I16
tp1179
a(S'w'
I19
tp1180
a(S'w'
I1
tp1181
a(S'no_ll'
I0
tp1182
a(S'w'
I696
tp1183
a(S'w'
I16
tp1184
a(S'w'
I19
tp1185
a(S'no_ll'
I0
tp1186
a(S'w'
I699
tp1187
a(S'w'
I15
tp1188
a(S'w'
I20
tp1189
a(S'no_ll'
I0
tp1190
a(S'w'
I698
tp1191
a(S'w'
I16
tp1192
a(S'w'
I20
tp1193
a(S'no_ll'
I0
tp1194
a(S'w'
I698
tp1195
a(S'w'
I16
tp1196
a(S'w'
I19
tp1197
a(S'no_ll'
I0
tp1198
a(S'w'
I701
tp1199
a(S'w'
I16
tp1200
a(S'w'
I19
tp1201
a(S'no_ll'
I0
tp1202
a(S'w'
I697
tp1203
a(S'w'
I1
tp1204
a(S'p1_vo'
I5
tp1205
a(S'w'
I15
tp1206
a(S'w'
I19
tp1207
a(S'no_ll'
I0
tp1208
a(S'w'
I701
tp1209
a(S'w'
I16
tp1210
a(S'w'
I19
tp1211
a(S'no_ll'
I0
tp1212
a(S'w'
I699
tp1213
a(S'w'
I15
tp1214
a(S'w'
I24
tp1215
a(S'no_ll'
I0
tp1216
a(S'w'
I698
tp1217
a(S'w'
I22
tp1218
a(S'w'
I14
tp1219
a(S'no_ll'
I0
tp1220
a(S'w'
I675
tp1221
a(S'ch_no'
I1
tp1222
a(S'ch_tr'
I0
tp1223
a(S'ch_p2'
I1
tp1224
a(S'ch_p1'
I1
tp1225
a(S'w'
I734
tp1226
a(S'ch_no'
I0
tp1227
a(S'ch_tr'
I0
tp1228
a(S'ch_p2'
I0
tp1229
a(S'ch_p1'
I0
tp1230
a(S'w'
I1
tp1231
a.