(lp1
(S'clock'
p2
I1789772
tp3
a(S'p1_lh'
I1
tp4
a(S'p1_cv'
I1
tp5
a(S'p1_tl'
I68
tp6
a(S'p1_ll'
I0
tp7
a(S'p1_th'
I3
tp8
a(S'p2_lh'
I1
tp9
a(S'p2_cv'
I1
tp10
a(S'p2_tl'
I66
tp11
a(S'p2_ll'
I0
tp12
a(S'p2_th'
I3
tp13
a(S'tr_lh'
I1
tp14
a(S'tr_tl'
I116
tp15
a(S'tr_ll'
I16
tp16
a(S'no_lh'
I1
tp17
a(S'no_cv'
I1
tp18
a(S'no_np'
I7
tp19
a(S'no_ll'
I0
tp20
a(S'ch_no'
I0
tp21
a(S'ch_tr'
I0
tp22
a(S'ch_p2'
I0
tp23
a(S'ch_p1'
I0
tp24
a(S'fc_mo'
I0
tp25
a(S'ch_no'
I1
tp26
a(S'ch_tr'
I1
tp27
a(S'ch_p2'
I1
tp28
a(S'ch_p1'
I1
tp29
a(S'w'
I42
tp30
a(S'p1_tl'
I249
tp31
a(S'w'
I1
tp32
a(S'p1_ll'
I0
tp33
a(S'p1_th'
I0
tp34
a(S'w'
I2
tp35
a(S'p1_du'
I3
tp36
a(S'p1_vo'
I13
tp37
a(S'w'
I54
tp38
a(S'p2_tl'
I249
tp39
a(S'p2_ll'
I0
tp40
a(S'p2_th'
I0
tp41
a(S'w'
I2
tp42
a(S'p2_du'
I3
tp43
a(S'p2_vo'
I12
tp44
a(S'w'
I31
tp45
a(S'tr_tl'
I57
tp46
a(S'tr_ll'
I0
tp47
a(S'tr_th'
I1
tp48
a(S'w'
I1
tp49
a(S'tr_lr'
I127
tp50
a(S'w'
I590
tp51
a(S'w'
I2
tp52
a(S'p1_vo'
I12
tp53
a(S'w'
I17
tp54
a(S'w'
I24
tp55
a(S'tr_lr'
I0
tp56
a(S'tr_ll'
I16
tp57
a(S'tr_th'
I0
tp58
a(S'w'
I1
tp59
a(S'ch_no'
I1
tp60
a(S'ch_tr'
I0
tp61
a(S'ch_p2'
I1
tp62
a(S'ch_p1'
I1
tp63
a(S'w'
I709
tp64
a(S'ch_no'
I1
tp65
a(S'ch_tr'
I1
tp66
a(S'ch_p2'
I1
tp67
a(S'ch_p1'
I1
tp68
a(S'w'
I11
tp69
a(S'w'
I2
tp70
a(S'p1_vo'
I13
tp71
a(S'w'
I13
tp72
a(S'w'
I12
tp73
a(S'tr_lr'
I127
tp74
a(S'w'
I676
tp75
a(S'w'
I2
tp76
a(S'p1_vo'
I12
tp77
a(S'w'
I11
tp78
a(S'w'
I2
tp79
a(S'p2_vo'
I11
tp80
a(S'w'
I748
tp81
a(S'w'
I14
tp82
a(S'w'
I690
tp83
a(S'w'
I2
tp84
a(S'p1_vo'
I11
tp85
a(S'w'
I12
tp86
a(S'w'
I2
tp87
a(S'p2_vo'
I10
tp88
a(S'w'
I745
tp89
a(S'w'
I14
tp90
a(S'w'
I693
tp91
a(S'w'
I2
tp92
a(S'p1_vo'
I10
tp93
a(S'w'
I11
tp94
a(S'w'
I2
tp95
a(S'p2_vo'
I9
tp96
a(S'w'
I743
tp97
a(S'w'
I15
tp98
a(S'w'
I695
tp99
a(S'w'
I1
tp100
a(S'p1_vo'
I9
tp101
a(S'w'
I12
tp102
a(S'w'
I2
tp103
a(S'p2_vo'
I8
tp104
a(S'w'
I728
tp105
a(S'w'
I14
tp106
a(S'w'
I719
tp107
a(S'w'
I2
tp108
a(S'p1_vo'
I8
tp109
a(S'w'
I11
tp110
a(S'w'
I722
tp111
a(S'w'
I13
tp112
a(S'w'
I719
tp113
a(S'w'
I2
tp114
a(S'p1_vo'
I7
tp115
a(S'w'
I12
tp116
a(S'w'
I721
tp117
a(S'w'
I14
tp118
a(S'w'
I719
tp119
a(S'w'
I2
tp120
a(S'p1_vo'
I6
tp121
a(S'w'
I11
tp122
a(S'w'
I721
tp123
a(S'w'
I13
tp124
a(S'w'
I721
tp125
a(S'w'
I13
tp126
a(S'w'
I722
tp127
a(S'w'
I13
tp128
a(S'w'
I720
tp129
a(S'w'
I1
tp130
a(S'p1_vo'
I5
tp131
a(S'w'
I12
tp132
a(S'w'
I727
tp133
a(S'p1_tl'
I162
tp134
a(S'w'
I1
tp135
a(S'p1_ll'
I0
tp136
a(S'p1_th'
I1
tp137
a(S'w'
I2
tp138
a(S'p1_vo'
I13
tp139
a(S'w'
I11
tp140
a(S'w'
I714
tp141
a(S'w'
I2
tp142
a(S'p1_vo'
I12
tp143
a(S'w'
I11
tp144
a(S'w'
I721
tp145
a(S'w'
I2
tp146
a(S'p1_vo'
I13
tp147
a(S'w'
I11
tp148
a(S'w'
I719
tp149
a(S'w'
I2
tp150
a(S'p1_vo'
I12
tp151
a(S'w'
I12
tp152
a(S'w'
I721
tp153
a(S'w'
I14
tp154
a(S'w'
I719
tp155
a(S'w'
I2
tp156
a(S'p1_vo'
I11
tp157
a(S'w'
I11
tp158
a(S'w'
I722
tp159
a(S'w'
I13
tp160
a(S'w'
I720
tp161
a(S'w'
I1
tp162
a(S'p1_vo'
I10
tp163
a(S'w'
I12
tp164
a(S'w'
I722
tp165
a(S'w'
I13
tp166
a(S'w'
I719
tp167
a(S'w'
I2
tp168
a(S'p1_vo'
I9
tp169
a(S'w'
I12
tp170
a(S'w'
I721
tp171
a(S'w'
I14
tp172
a(S'w'
I719
tp173
a(S'w'
I2
tp174
a(S'p1_vo'
I8
tp175
a(S'w'
I11
tp176
a(S'w'
I722
tp177
a(S'w'
I13
tp178
a(S'w'
I719
tp179
a(S'w'
I2
tp180
a(S'p1_vo'
I7
tp181
a(S'w'
I12
tp182
a(S'w'
I721
tp183
a(S'w'
I14
tp184
a(S'w'
I719
tp185
a(S'w'
I2
tp186
a(S'p1_vo'
I6
tp187
a(S'w'
I11
tp188
a(S'w'
I721
tp189
a(S'w'
I13
tp190
a(S'w'
I721
tp191
a(S'w'
I13
tp192
a(S'w'
I722
tp193
a(S'w'
I13
tp194
a(S'w'
I720
tp195
a(S'w'
I1
tp196
a(S'p1_vo'
I5
tp197
a(S'w'
I12
tp198
a(S'w'
I727
tp199
a(S'p1_tl'
I57
tp200
a(S'w'
I1
tp201
a(S'p1_ll'
I0
tp202
a(S'w'
I2
tp203
a(S'p1_vo'
I13
tp204
a(S'w'
I13
tp205
a(S'w'
I16
tp206
a(S'tr_lr'
I0
tp207
a(S'w'
I696
tp208
a(S'w'
I2
tp209
a(S'p1_vo'
I12
tp210
a(S'w'
I11
tp211
a(S'w'
I2
tp212
a(S'p2_vo'
I7
tp213
a(S'w'
I719
tp214
a(S'w'
I2
tp215
a(S'p1_vo'
I13
tp216
a(S'w'
I11
tp217
a(S'w'
I719
tp218
a(S'w'
I2
tp219
a(S'p1_vo'
I12
tp220
a(S'w'
I12
tp221
a(S'w'
I721
tp222
a(S'w'
I14
tp223
a(S'w'
I719
tp224
a(S'w'
I2
tp225
a(S'p1_vo'
I11
tp226
a(S'w'
I11
tp227
a(S'w'
I722
tp228
a(S'w'
I13
tp229
a(S'w'
I720
tp230
a(S'w'
I1
tp231
a(S'p1_vo'
I10
tp232
a(S'w'
I12
tp233
a(S'w'
I722
tp234
a(S'w'
I13
tp235
a(S'w'
I719
tp236
a(S'w'
I2
tp237
a(S'p1_vo'
I9
tp238
a(S'w'
I12
tp239
a(S'w'
I721
tp240
a(S'w'
I14
tp241
a(S'w'
I719
tp242
a(S'w'
I2
tp243
a(S'p1_vo'
I8
tp244
a(S'w'
I11
tp245
a(S'w'
I722
tp246
a(S'w'
I13
tp247
a(S'w'
I719
tp248
a(S'w'
I2
tp249
a(S'p1_vo'
I7
tp250
a(S'w'
I12
tp251
a(S'w'
I721
tp252
a(S'w'
I14
tp253
a(S'w'
I719
tp254
a(S'w'
I2
tp255
a(S'p1_vo'
I6
tp256
a(S'w'
I11
tp257
a(S'w'
I721
tp258
a(S'w'
I13
tp259
a(S'w'
I721
tp260
a(S'w'
I13
tp261
a(S'w'
I722
tp262
a(S'w'
I13
tp263
a(S'w'
I720
tp264
a(S'w'
I1
tp265
a(S'p1_vo'
I5
tp266
a(S'w'
I12
tp267
a(S'w'
I730
tp268
a(S'p1_tl'
I249
tp269
a(S'w'
I1
tp270
a(S'p1_ll'
I0
tp271
a(S'p1_th'
I0
tp272
a(S'w'
I2
tp273
a(S'p1_vo'
I13
tp274
a(S'w'
I11
tp275
a(S'w'
I711
tp276
a(S'w'
I2
tp277
a(S'p1_vo'
I12
tp278
a(S'w'
I11
tp279
a(S'w'
I721
tp280
a(S'w'
I2
tp281
a(S'p1_vo'
I13
tp282
a(S'w'
I11
tp283
a(S'w'
I720
tp284
a(S'w'
I1
tp285
a(S'p1_vo'
I12
tp286
a(S'w'
I12
tp287
a(S'w'
I721
tp288
a(S'w'
I14
tp289
a(S'w'
I719
tp290
a(S'w'
I2
tp291
a(S'p1_vo'
I11
tp292
a(S'w'
I11
tp293
a(S'w'
I722
tp294
a(S'w'
I13
tp295
a(S'w'
I720
tp296
a(S'w'
I2
tp297
a(S'p1_vo'
I10
tp298
a(S'w'
I11
tp299
a(S'w'
I722
tp300
a(S'w'
I13
tp301
a(S'w'
I719
tp302
a(S'w'
I2
tp303
a(S'p1_vo'
I9
tp304
a(S'w'
I12
tp305
a(S'w'
I721
tp306
a(S'w'
I14
tp307
a(S'w'
I719
tp308
a(S'w'
I2
tp309
a(S'p1_vo'
I8
tp310
a(S'w'
I11
tp311
a(S'w'
I722
tp312
a(S'w'
I14
tp313
a(S'w'
I719
tp314
a(S'w'
I1
tp315
a(S'p1_vo'
I7
tp316
a(S'w'
I12
tp317
a(S'w'
I2
tp318
a(S'p2_vo'
I6
tp319
a(S'w'
I719
tp320
a(S'w'
I14
tp321
a(S'w'
I719
tp322
a(S'w'
I2
tp323
a(S'p1_vo'
I6
tp324
a(S'w'
I11
tp325
a(S'w'
I721
tp326
a(S'w'
I13
tp327
a(S'w'
I721
tp328
a(S'w'
I13
tp329
a(S'w'
I722
tp330
a(S'w'
I13
tp331
a(S'w'
I719
tp332
a(S'w'
I2
tp333
a(S'p1_vo'
I5
tp334
a(S'w'
I12
tp335
a(S'w'
I720
tp336
a(S'w'
I21
tp337
a(S'p2_tl'
I23
tp338
a(S'p2_ll'
I0
tp339
a(S'p2_th'
I1
tp340
a(S'w'
I2
tp341
a(S'p2_vo'
I12
tp342
a(S'w'
I16
tp343
a(S'tr_tl'
I96
tp344
a(S'tr_ll'
I0
tp345
a(S'tr_th'
I1
tp346
a(S'w'
I2
tp347
a(S'tr_lr'
I127
tp348
a(S'w'
I693
tp349
a(S'w'
I13
tp350
a(S'w'
I722
tp351
a(S'w'
I14
tp352
a(S'w'
I719
tp353
a(S'w'
I1
tp354
a(S'p1_vo'
I4
tp355
a(S'w'
I12
tp356
a(S'w'
I2
tp357
a(S'p2_vo'
I11
tp358
a(S'w'
I718
tp359
a(S'w'
I15
tp360
a(S'w'
I719
tp361
a(S'w'
I13
tp362
a(S'w'
I2
tp363
a(S'p2_vo'
I10
tp364
a(S'w'
I720
tp365
a(S'w'
I15
tp366
a(S'w'
I718
tp367
a(S'w'
I2
tp368
a(S'p1_vo'
I3
tp369
a(S'w'
I11
tp370
a(S'w'
I2
tp371
a(S'p2_vo'
I9
tp372
a(S'w'
I719
tp373
a(S'w'
I14
tp374
a(S'w'
I719
tp375
a(S'w'
I14
tp376
a(S'w'
I1
tp377
a(S'p2_vo'
I8
tp378
a(S'w'
I719
tp379
a(S'w'
I13
tp380
a(S'w'
I721
tp381
a(S'w'
I13
tp382
a(S'w'
I721
tp383
a(S'w'
I13
tp384
a(S'w'
I721
tp385
a(S'w'
I13
tp386
a(S'w'
I720
tp387
a(S'w'
I14
tp388
a(S'w'
I720
tp389
a(S'w'
I14
tp390
a(S'w'
I720
tp391
a(S'w'
I13
tp392
a(S'w'
I721
tp393
a(S'w'
I13
tp394
a(S'w'
I721
tp395
a(S'w'
I13
tp396
a(S'w'
I721
tp397
a(S'w'
I13
tp398
a(S'w'
I730
tp399
a(S'p1_tl'
I23
tp400
a(S'w'
I1
tp401
a(S'p1_ll'
I0
tp402
a(S'p1_th'
I1
tp403
a(S'w'
I2
tp404
a(S'p1_vo'
I13
tp405
a(S'w'
I11
tp406
a(S'w'
I711
tp407
a(S'w'
I2
tp408
a(S'p1_vo'
I12
tp409
a(S'w'
I11
tp410
a(S'w'
I721
tp411
a(S'w'
I2
tp412
a(S'p1_vo'
I13
tp413
a(S'w'
I11
tp414
a(S'w'
I720
tp415
a(S'w'
I1
tp416
a(S'p1_vo'
I12
tp417
a(S'w'
I12
tp418
a(S'w'
I722
tp419
a(S'w'
I13
tp420
a(S'w'
I719
tp421
a(S'w'
I2
tp422
a(S'p1_vo'
I11
tp423
a(S'w'
I11
tp424
a(S'w'
I722
tp425
a(S'w'
I13
tp426
a(S'w'
I720
tp427
a(S'w'
I2
tp428
a(S'p1_vo'
I10
tp429
a(S'w'
I11
tp430
a(S'w'
I722
tp431
a(S'w'
I13
tp432
a(S'w'
I719
tp433
a(S'w'
I2
tp434
a(S'p1_vo'
I9
tp435
a(S'w'
I12
tp436
a(S'w'
I721
tp437
a(S'w'
I14
tp438
a(S'w'
I719
tp439
a(S'w'
I2
tp440
a(S'p1_vo'
I8
tp441
a(S'w'
I11
tp442
a(S'w'
I722
tp443
a(S'w'
I13
tp444
a(S'w'
I720
tp445
a(S'w'
I1
tp446
a(S'p1_vo'
I7
tp447
a(S'w'
I12
tp448
a(S'w'
I722
tp449
a(S'w'
I13
tp450
a(S'w'
I719
tp451
a(S'w'
I2
tp452
a(S'p1_vo'
I6
tp453
a(S'w'
I12
tp454
a(S'w'
I720
tp455
a(S'w'
I13
tp456
a(S'w'
I721
tp457
a(S'w'
I13
tp458
a(S'w'
I722
tp459
a(S'w'
I13
tp460
a(S'w'
I720
tp461
a(S'w'
I1
tp462
a(S'p1_vo'
I5
tp463
a(S'w'
I12
tp464
a(S'w'
I727
tp465
a(S'p1_tl'
I57
tp466
a(S'w'
I1
tp467
a(S'p1_ll'
I0
tp468
a(S'w'
I2
tp469
a(S'p1_vo'
I13
tp470
a(S'w'
I13
tp471
a(S'w'
I16
tp472
a(S'tr_lr'
I0
tp473
a(S'w'
I696
tp474
a(S'w'
I2
tp475
a(S'p1_vo'
I12
tp476
a(S'w'
I12
tp477
a(S'w'
I1
tp478
a(S'p2_vo'
I7
tp479
a(S'w'
I719
tp480
a(S'w'
I2
tp481
a(S'p1_vo'
I13
tp482
a(S'w'
I11
tp483
a(S'w'
I720
tp484
a(S'w'
I1
tp485
a(S'p1_vo'
I12
tp486
a(S'w'
I12
tp487
a(S'w'
I722
tp488
a(S'w'
I13
tp489
a(S'w'
I719
tp490
a(S'w'
I2
tp491
a(S'p1_vo'
I11
tp492
a(S'w'
I12
tp493
a(S'w'
I721
tp494
a(S'w'
I14
tp495
a(S'w'
I719
tp496
a(S'w'
I2
tp497
a(S'p1_vo'
I10
tp498
a(S'w'
I11
tp499
a(S'w'
I722
tp500
a(S'w'
I13
tp501
a(S'w'
I719
tp502
a(S'w'
I2
tp503
a(S'p1_vo'
I9
tp504
a(S'w'
I12
tp505
a(S'w'
I721
tp506
a(S'w'
I14
tp507
a(S'w'
I719
tp508
a(S'w'
I2
tp509
a(S'p1_vo'
I8
tp510
a(S'w'
I11
tp511
a(S'w'
I722
tp512
a(S'w'
I13
tp513
a(S'w'
I719
tp514
a(S'w'
I2
tp515
a(S'p1_vo'
I7
tp516
a(S'w'
I12
tp517
a(S'w'
I721
tp518
a(S'w'
I14
tp519
a(S'w'
I719
tp520
a(S'w'
I2
tp521
a(S'p1_vo'
I6
tp522
a(S'w'
I11
tp523
a(S'w'
I721
tp524
a(S'w'
I13
tp525
a(S'w'
I721
tp526
a(S'w'
I13
tp527
a(S'w'
I722
tp528
a(S'w'
I13
tp529
a(S'w'
I720
tp530
a(S'w'
I1
tp531
a(S'p1_vo'
I5
tp532
a(S'w'
I12
tp533
a(S'w'
I727
tp534
a(S'p1_tl'
I23
tp535
a(S'w'
I1
tp536
a(S'p1_ll'
I0
tp537
a(S'w'
I2
tp538
a(S'p1_vo'
I13
tp539
a(S'w'
I11
tp540
a(S'w'
I714
tp541
a(S'w'
I2
tp542
a(S'p1_vo'
I12
tp543
a(S'w'
I11
tp544
a(S'w'
I721
tp545
a(S'w'
I2
tp546
a(S'p1_vo'
I13
tp547
a(S'w'
I11
tp548
a(S'w'
I719
tp549
a(S'w'
I2
tp550
a(S'p1_vo'
I12
tp551
a(S'w'
I12
tp552
a(S'w'
I721
tp553
a(S'w'
I14
tp554
a(S'w'
I719
tp555
a(S'w'
I2
tp556
a(S'p1_vo'
I11
tp557
a(S'w'
I11
tp558
a(S'w'
I722
tp559
a(S'w'
I13
tp560
a(S'w'
I720
tp561
a(S'w'
I1
tp562
a(S'p1_vo'
I10
tp563
a(S'w'
I12
tp564
a(S'w'
I722
tp565
a(S'w'
I13
tp566
a(S'w'
I719
tp567
a(S'w'
I2
tp568
a(S'p1_vo'
I9
tp569
a(S'w'
I12
tp570
a(S'w'
I721
tp571
a(S'w'
I14
tp572
a(S'w'
I719
tp573
a(S'w'
I2
tp574
a(S'p1_vo'
I8
tp575
a(S'w'
I11
tp576
a(S'w'
I722
tp577
a(S'w'
I14
tp578
a(S'w'
I718
tp579
a(S'w'
I2
tp580
a(S'p1_vo'
I7
tp581
a(S'w'
I12
tp582
a(S'w'
I2
tp583
a(S'p2_vo'
I6
tp584
a(S'w'
I719
tp585
a(S'w'
I14
tp586
a(S'w'
I719
tp587
a(S'w'
I2
tp588
a(S'p1_vo'
I6
tp589
a(S'w'
I11
tp590
a(S'w'
I721
tp591
a(S'w'
I13
tp592
a(S'w'
I721
tp593
a(S'w'
I13
tp594
a(S'w'
I722
tp595
a(S'w'
I13
tp596
a(S'w'
I720
tp597
a(S'w'
I1
tp598
a(S'p1_vo'
I5
tp599
a(S'w'
I12
tp600
a(S'w'
I727
tp601
a(S'p1_tl'
I249
tp602
a(S'w'
I1
tp603
a(S'p1_ll'
I0
tp604
a(S'p1_th'
I0
tp605
a(S'w'
I2
tp606
a(S'p1_vo'
I13
tp607
a(S'w'
I19
tp608
a(S'p2_tl'
I249
tp609
a(S'p2_ll'
I0
tp610
a(S'p2_th'
I0
tp611
a(S'w'
I2
tp612
a(S'p2_vo'
I12
tp613
a(S'w'
I16
tp614
a(S'tr_tl'
I57
tp615
a(S'tr_ll'
I0
tp616
a(S'w'
I2
tp617
a(S'tr_lr'
I127
tp618
a(S'w'
I686
tp619
a(S'w'
I2
tp620
a(S'p1_vo'
I12
tp621
a(S'w'
I11
tp622
a(S'w'
I721
tp623
a(S'w'
I2
tp624
a(S'p1_vo'
I13
tp625
a(S'w'
I12
tp626
a(S'w'
I718
tp627
a(S'w'
I2
tp628
a(S'p1_vo'
I12
tp629
a(S'w'
I12
tp630
a(S'w'
I2
tp631
a(S'p2_vo'
I11
tp632
a(S'w'
I719
tp633
a(S'w'
I15
tp634
a(S'w'
I718
tp635
a(S'w'
I2
tp636
a(S'p1_vo'
I11
tp637
a(S'w'
I11
tp638
a(S'w'
I2
tp639
a(S'p2_vo'
I10
tp640
a(S'w'
I720
tp641
a(S'w'
I15
tp642
a(S'w'
I718
tp643
a(S'w'
I1
tp644
a(S'p1_vo'
I10
tp645
a(S'w'
I12
tp646
a(S'w'
I2
tp647
a(S'p2_vo'
I9
tp648
a(S'w'
I720
tp649
a(S'w'
I14
tp650
a(S'w'
I718
tp651
a(S'w'
I2
tp652
a(S'p1_vo'
I9
tp653
a(S'w'
I12
tp654
a(S'w'
I1
tp655
a(S'p2_vo'
I8
tp656
a(S'w'
I720
tp657
a(S'w'
I14
tp658
a(S'w'
I719
tp659
a(S'w'
I2
tp660
a(S'p1_vo'
I8
tp661
a(S'w'
I11
tp662
a(S'w'
I722
tp663
a(S'w'
I13
tp664
a(S'w'
I720
tp665
a(S'w'
I1
tp666
a(S'p1_vo'
I7
tp667
a(S'w'
I12
tp668
a(S'w'
I722
tp669
a(S'w'
I13
tp670
a(S'w'
I719
tp671
a(S'w'
I2
tp672
a(S'p1_vo'
I6
tp673
a(S'w'
I11
tp674
a(S'w'
I721
tp675
a(S'w'
I13
tp676
a(S'w'
I721
tp677
a(S'w'
I13
tp678
a(S'w'
I722
tp679
a(S'w'
I13
tp680
a(S'w'
I720
tp681
a(S'w'
I1
tp682
a(S'p1_vo'
I5
tp683
a(S'w'
I12
tp684
a(S'w'
I727
tp685
a(S'p1_tl'
I162
tp686
a(S'w'
I1
tp687
a(S'p1_ll'
I0
tp688
a(S'p1_th'
I1
tp689
a(S'w'
I2
tp690
a(S'p1_vo'
I13
tp691
a(S'w'
I11
tp692
a(S'w'
I714
tp693
a(S'w'
I2
tp694
a(S'p1_vo'
I12
tp695
a(S'w'
I11
tp696
a(S'w'
I721
tp697
a(S'w'
I2
tp698
a(S'p1_vo'
I13
tp699
a(S'w'
I11
tp700
a(S'w'
I719
tp701
a(S'w'
I2
tp702
a(S'p1_vo'
I12
tp703
a(S'w'
I12
tp704
a(S'w'
I722
tp705
a(S'w'
I13
tp706
a(S'w'
I719
tp707
a(S'w'
I2
tp708
a(S'p1_vo'
I11
tp709
a(S'w'
I11
tp710
a(S'w'
I722
tp711
a(S'w'
I13
tp712
a(S'w'
I720
tp713
a(S'w'
I1
tp714
a(S'p1_vo'
I10
tp715
a(S'w'
I12
tp716
a(S'w'
I722
tp717
a(S'w'
I13
tp718
a(S'w'
I719
tp719
a(S'w'
I2
tp720
a(S'p1_vo'
I9
tp721
a(S'w'
I12
tp722
a(S'w'
I721
tp723
a(S'w'
I14
tp724
a(S'w'
I719
tp725
a(S'w'
I2
tp726
a(S'p1_vo'
I8
tp727
a(S'w'
I11
tp728
a(S'w'
I722
tp729
a(S'w'
I13
tp730
a(S'w'
I719
tp731
a(S'w'
I2
tp732
a(S'p1_vo'
I7
tp733
a(S'w'
I12
tp734
a(S'w'
I722
tp735
a(S'w'
I13
tp736
a(S'w'
I719
tp737
a(S'w'
I2
tp738
a(S'p1_vo'
I6
tp739
a(S'w'
I11
tp740
a(S'w'
I721
tp741
a(S'w'
I13
tp742
a(S'w'
I721
tp743
a(S'w'
I13
tp744
a(S'w'
I722
tp745
a(S'w'
I13
tp746
a(S'w'
I720
tp747
a(S'w'
I1
tp748
a(S'p1_vo'
I5
tp749
a(S'w'
I12
tp750
a(S'w'
I727
tp751
a(S'p1_tl'
I57
tp752
a(S'w'
I1
tp753
a(S'p1_ll'
I0
tp754
a(S'w'
I2
tp755
a(S'p1_vo'
I13
tp756
a(S'w'
I13
tp757
a(S'w'
I16
tp758
a(S'tr_lr'
I0
tp759
a(S'w'
I696
tp760
a(S'w'
I2
tp761
a(S'p1_vo'
I12
tp762
a(S'w'
I11
tp763
a(S'w'
I2
tp764
a(S'p2_vo'
I7
tp765
a(S'w'
I719
tp766
a(S'w'
I2
tp767
a(S'p1_vo'
I13
tp768
a(S'w'
I11
tp769
a(S'w'
I720
tp770
a(S'w'
I1
tp771
a(S'p1_vo'
I12
tp772
a(S'w'
I12
tp773
a(S'w'
I722
tp774
a(S'w'
I13
tp775
a(S'w'
I719
tp776
a(S'w'
I2
tp777
a(S'p1_vo'
I11
tp778
a(S'w'
I12
tp779
a(S'w'
I721
tp780
a(S'w'
I13
tp781
a(S'w'
I720
tp782
a(S'w'
I2
tp783
a(S'p1_vo'
I10
tp784
a(S'w'
I11
tp785
a(S'w'
I722
tp786
a(S'w'
I13
tp787
a(S'w'
I719
tp788
a(S'w'
I2
tp789
a(S'p1_vo'
I9
tp790
a(S'w'
I12
tp791
a(S'w'
I721
tp792
a(S'w'
I14
tp793
a(S'w'
I719
tp794
a(S'w'
I2
tp795
a(S'p1_vo'
I8
tp796
a(S'w'
I11
tp797
a(S'w'
I722
tp798
a(S'w'
I13
tp799
a(S'w'
I720
tp800
a(S'w'
I1
tp801
a(S'p1_vo'
I7
tp802
a(S'w'
I12
tp803
a(S'w'
I722
tp804
a(S'w'
I13
tp805
a(S'w'
I719
tp806
a(S'w'
I2
tp807
a(S'p1_vo'
I6
tp808
a(S'w'
I11
tp809
a(S'w'
I721
tp810
a(S'w'
I13
tp811
a(S'w'
I721
tp812
a(S'w'
I13
tp813
a(S'w'
I722
tp814
a(S'w'
I13
tp815
a(S'w'
I720
tp816
a(S'w'
I1
tp817
a(S'p1_vo'
I5
tp818
a(S'w'
I12
tp819
a(S'w'
I730
tp820
a(S'p1_tl'
I249
tp821
a(S'w'
I1
tp822
a(S'p1_ll'
I0
tp823
a(S'p1_th'
I0
tp824
a(S'w'
I2
tp825
a(S'p1_vo'
I13
tp826
a(S'w'
I11
tp827
a(S'w'
I711
tp828
a(S'w'
I2
tp829
a(S'p1_vo'
I12
tp830
a(S'w'
I11
tp831
a(S'w'
I721
tp832
a(S'w'
I2
tp833
a(S'p1_vo'
I13
tp834
a(S'w'
I11
tp835
a(S'w'
I720
tp836
a(S'w'
I1
tp837
a(S'p1_vo'
I12
tp838
a(S'w'
I12
tp839
a(S'w'
I722
tp840
a(S'w'
I13
tp841
a(S'w'
I719
tp842
a(S'w'
I2
tp843
a(S'p1_vo'
I11
tp844
a(S'w'
I11
tp845
a(S'w'
I722
tp846
a(S'w'
I14
tp847
a(S'w'
I719
tp848
a(S'w'
I2
tp849
a(S'p1_vo'
I10
tp850
a(S'w'
I11
tp851
a(S'w'
I722
tp852
a(S'w'
I13
tp853
a(S'w'
I719
tp854
a(S'w'
I2
tp855
a(S'p1_vo'
I9
tp856
a(S'w'
I12
tp857
a(S'w'
I721
tp858
a(S'w'
I14
tp859
a(S'w'
I719
tp860
a(S'w'
I2
tp861
a(S'p1_vo'
I8
tp862
a(S'w'
I11
tp863
a(S'w'
I722
tp864
a(S'w'
I15
tp865
a(S'w'
I718
tp866
a(S'w'
I1
tp867
a(S'p1_vo'
I7
tp868
a(S'w'
I12
tp869
a(S'w'
I2
tp870
a(S'p2_vo'
I6
tp871
a(S'w'
I720
tp872
a(S'w'
I13
tp873
a(S'w'
I719
tp874
a(S'w'
I2
tp875
a(S'p1_vo'
I6
tp876
a(S'w'
I12
tp877
a(S'w'
I720
tp878
a(S'w'
I13
tp879
a(S'w'
I721
tp880
a(S'w'
I13
tp881
a(S'w'
I722
tp882
a(S'w'
I13
tp883
a(S'w'
I719
tp884
a(S'w'
I2
tp885
a(S'p1_vo'
I5
tp886
a(S'w'
I12
tp887
a(S'w'
I720
tp888
a(S'w'
I21
tp889
a(S'p2_tl'
I23
tp890
a(S'p2_ll'
I0
tp891
a(S'p2_th'
I1
tp892
a(S'w'
I2
tp893
a(S'p2_vo'
I12
tp894
a(S'w'
I16
tp895
a(S'tr_tl'
I96
tp896
a(S'tr_ll'
I0
tp897
a(S'w'
I2
tp898
a(S'tr_lr'
I127
tp899
a(S'w'
I693
tp900
a(S'w'
I13
tp901
a(S'w'
I722
tp902
a(S'w'
I15
tp903
a(S'w'
I718
tp904
a(S'w'
I1
tp905
a(S'p1_vo'
I4
tp906
a(S'w'
I12
tp907
a(S'w'
I2
tp908
a(S'p2_vo'
I11
tp909
a(S'w'
I718
tp910
a(S'w'
I15
tp911
a(S'w'
I719
tp912
a(S'w'
I14
tp913
a(S'w'
I1
tp914
a(S'p2_vo'
I10
tp915
a(S'w'
I720
tp916
a(S'w'
I15
tp917
a(S'w'
I718
tp918
a(S'w'
I2
tp919
a(S'p1_vo'
I3
tp920
a(S'w'
I11
tp921
a(S'w'
I2
tp922
a(S'p2_vo'
I9
tp923
a(S'w'
I719
tp924
a(S'w'
I14
tp925
a(S'w'
I719
tp926
a(S'w'
I14
tp927
a(S'w'
I1
tp928
a(S'p2_vo'
I8
tp929
a(S'w'
I719
tp930
a(S'w'
I14
tp931
a(S'w'
I720
tp932
a(S'w'
I13
tp933
a(S'w'
I721
tp934
a(S'w'
I13
tp935
a(S'w'
I721
tp936
a(S'w'
I13
tp937
a(S'w'
I720
tp938
a(S'w'
I14
tp939
a(S'w'
I720
tp940
a(S'w'
I14
tp941
a(S'w'
I720
tp942
a(S'w'
I14
tp943
a(S'w'
I720
tp944
a(S'w'
I13
tp945
a(S'w'
I721
tp946
a(S'w'
I13
tp947
a(S'w'
I721
tp948
a(S'w'
I13
tp949
a(S'w'
I735
tp950
a(S'p1_tl'
I23
tp951
a(S'p1_ll'
I0
tp952
a(S'p1_th'
I1
tp953
a(S'w'
I2
tp954
a(S'p1_vo'
I12
tp955
a(S'w'
I12
tp956
a(S'w'
I706
tp957
a(S'w'
I2
tp958
a(S'p1_vo'
I11
tp959
a(S'w'
I12
tp960
a(S'w'
I720
tp961
a(S'w'
I2
tp962
a(S'p1_vo'
I12
tp963
a(S'w'
I11
tp964
a(S'w'
I720
tp965
a(S'w'
I2
tp966
a(S'p1_vo'
I11
tp967
a(S'w'
I11
tp968
a(S'w'
I722
tp969
a(S'w'
I13
tp970
a(S'w'
I719
tp971
a(S'w'
I2
tp972
a(S'p1_vo'
I10
tp973
a(S'w'
I12
tp974
a(S'w'
I721
tp975
a(S'w'
I14
tp976
a(S'w'
I719
tp977
a(S'w'
I2
tp978
a(S'p1_vo'
I9
tp979
a(S'w'
I11
tp980
a(S'w'
I722
tp981
a(S'w'
I13
tp982
a(S'w'
I720
tp983
a(S'w'
I1
tp984
a(S'p1_vo'
I8
tp985
a(S'w'
I12
tp986
a(S'w'
I722
tp987
a(S'w'
I13
tp988
a(S'w'
I719
tp989
a(S'w'
I2
tp990
a(S'p1_vo'
I7
tp991
a(S'w'
I12
tp992
a(S'w'
I721
tp993
a(S'w'
I14
tp994
a(S'w'
I719
tp995
a(S'w'
I2
tp996
a(S'p1_vo'
I6
tp997
a(S'w'
I11
tp998
a(S'w'
I722
tp999
a(S'w'
I13
tp1000
a(S'w'
I719
tp1001
a(S'w'
I2
tp1002
a(S'p1_vo'
I5
tp1003
a(S'w'
I12
tp1004
a(S'w'
I720
tp1005
a(S'w'
I14
tp1006
a(S'w'
I720
tp1007
a(S'w'
I13
tp1008
a(S'w'
I722
tp1009
a(S'w'
I13
tp1010
a(S'w'
I720
tp1011
a(S'w'
I2
tp1012
a(S'p1_vo'
I4
tp1013
a(S'w'
I11
tp1014
a(S'w'
I728
tp1015
a(S'p1_tl'
I249
tp1016
a(S'p1_ll'
I0
tp1017
a(S'p1_th'
I0
tp1018
a(S'w'
I2
tp1019
a(S'p1_vo'
I12
tp1020
a(S'w'
I13
tp1021
a(S'w'
I17
tp1022
a(S'tr_lr'
I0
tp1023
a(S'w'
I695
tp1024
a(S'w'
I2
tp1025
a(S'p1_vo'
I11
tp1026
a(S'w'
I12
tp1027
a(S'w'
I1
tp1028
a(S'p2_vo'
I7
tp1029
a(S'w'
I719
tp1030
a(S'w'
I2
tp1031
a(S'p1_vo'
I12
tp1032
a(S'w'
I12
tp1033
a(S'w'
I719
tp1034
a(S'w'
I2
tp1035
a(S'p1_vo'
I11
tp1036
a(S'w'
I11
tp1037
a(S'w'
I722
tp1038
a(S'w'
I13
tp1039
a(S'w'
I719
tp1040
a(S'w'
I2
tp1041
a(S'p1_vo'
I10
tp1042
a(S'w'
I12
tp1043
a(S'w'
I721
tp1044
a(S'w'
I14
tp1045
a(S'w'
I719
tp1046
a(S'w'
I2
tp1047
a(S'p1_vo'
I9
tp1048
a(S'w'
I11
tp1049
a(S'w'
I722
tp1050
a(S'w'
I13
tp1051
a(S'w'
I720
tp1052
a(S'w'
I1
tp1053
a(S'p1_vo'
I8
tp1054
a(S'w'
I12
tp1055
a(S'w'
I722
tp1056
a(S'w'
I13
tp1057
a(S'w'
I719
tp1058
a(S'w'
I2
tp1059
a(S'p1_vo'
I7
tp1060
a(S'w'
I12
tp1061
a(S'w'
I721
tp1062
a(S'w'
I14
tp1063
a(S'w'
I719
tp1064
a(S'w'
I2
tp1065
a(S'p1_vo'
I6
tp1066
a(S'w'
I11
tp1067
a(S'w'
I722
tp1068
a(S'w'
I13
tp1069
a(S'w'
I719
tp1070
a(S'w'
I2
tp1071
a(S'p1_vo'
I5
tp1072
a(S'w'
I12
tp1073
a(S'w'
I720
tp1074
a(S'w'
I14
tp1075
a(S'w'
I720
tp1076
a(S'w'
I13
tp1077
a(S'w'
I722
tp1078
a(S'w'
I13
tp1079
a(S'w'
I720
tp1080
a(S'w'
I2
tp1081
a(S'p1_vo'
I4
tp1082
a(S'w'
I11
tp1083
a(S'w'
I728
tp1084
a(S'p1_tl'
I235
tp1085
a(S'p1_ll'
I0
tp1086
a(S'w'
I2
tp1087
a(S'p1_vo'
I12
tp1088
a(S'w'
I12
tp1089
a(S'w'
I713
tp1090
a(S'w'
I2
tp1091
a(S'p1_vo'
I11
tp1092
a(S'w'
I12
tp1093
a(S'w'
I720
tp1094
a(S'w'
I2
tp1095
a(S'p1_vo'
I12
tp1096
a(S'w'
I12
tp1097
a(S'w'
I719
tp1098
a(S'w'
I2
tp1099
a(S'p1_vo'
I11
tp1100
a(S'w'
I11
tp1101
a(S'w'
I722
tp1102
a(S'w'
I13
tp1103
a(S'w'
I719
tp1104
a(S'w'
I2
tp1105
a(S'p1_vo'
I10
tp1106
a(S'w'
I12
tp1107
a(S'w'
I721
tp1108
a(S'w'
I14
tp1109
a(S'w'
I719
tp1110
a(S'w'
I2
tp1111
a(S'p1_vo'
I9
tp1112
a(S'w'
I11
tp1113
a(S'w'
I722
tp1114
a(S'w'
I13
tp1115
a(S'w'
I720
tp1116
a(S'w'
I1
tp1117
a(S'p1_vo'
I8
tp1118
a(S'w'
I12
tp1119
a(S'w'
I722
tp1120
a(S'w'
I13
tp1121
a(S'w'
I719
tp1122
a(S'w'
I2
tp1123
a(S'p1_vo'
I7
tp1124
a(S'w'
I12
tp1125
a(S'w'
I721
tp1126
a(S'w'
I15
tp1127
a(S'w'
I718
tp1128
a(S'w'
I2
tp1129
a(S'p1_vo'
I6
tp1130
a(S'w'
I11
tp1131
a(S'w'
I2
tp1132
a(S'p2_vo'
I6
tp1133
a(S'w'
I720
tp1134
a(S'w'
I13
tp1135
a(S'w'
I719
tp1136
a(S'w'
I2
tp1137
a(S'p1_vo'
I5
tp1138
a(S'w'
I12
tp1139
a(S'w'
I720
tp1140
a(S'w'
I14
tp1141
a(S'w'
I720
tp1142
a(S'w'
I13
tp1143
a(S'w'
I722
tp1144
a(S'w'
I13
tp1145
a(S'w'
I720
tp1146
a(S'w'
I2
tp1147
a(S'p1_vo'
I4
tp1148
a(S'w'
I12
tp1149
a(S'w'
I741
tp1150
a(S'p1_tl'
I209
tp1151
a(S'p1_ll'
I0
tp1152
a(S'w'
I2
tp1153
a(S'p1_vo'
I11
tp1154
a(S'w'
I26
tp1155
a(S'p2_tl'
I249
tp1156
a(S'w'
I1
tp1157
a(S'p2_ll'
I0
tp1158
a(S'p2_th'
I0
tp1159
a(S'w'
I2
tp1160
a(S'p2_vo'
I11
tp1161
a(S'w'
I18
tp1162
a(S'tr_tl'
I57
tp1163
a(S'w'
I1
tp1164
a(S'tr_ll'
I0
tp1165
a(S'w'
I1
tp1166
a(S'tr_lr'
I127
tp1167
a(S'w'
I661
tp1168
a(S'w'
I14
tp1169
a(S'w'
I721
tp1170
a(S'w'
I15
tp1171
a(S'w'
I718
tp1172
a(S'w'
I2
tp1173
a(S'p1_vo'
I10
tp1174
a(S'w'
I11
tp1175
a(S'w'
I2
tp1176
a(S'p2_vo'
I10
tp1177
a(S'w'
I720
tp1178
a(S'w'
I14
tp1179
a(S'w'
I719
tp1180
a(S'w'
I1
tp1181
a(S'p1_vo'
I9
tp1182
a(S'w'
I12
tp1183
a(S'w'
I2
tp1184
a(S'p2_vo'
I9
tp1185
a(S'w'
I719
tp1186
a(S'w'
I15
tp1187
a(S'w'
I718
tp1188
a(S'w'
I2
tp1189
a(S'p1_vo'
I8
tp1190
a(S'w'
I11
tp1191
a(S'w'
I2
tp1192
a(S'p2_vo'
I8
tp1193
a(S'w'
I720
tp1194
a(S'w'
I15
tp1195
a(S'w'
I718
tp1196
a(S'w'
I1
tp1197
a(S'p1_vo'
I7
tp1198
a(S'w'
I12
tp1199
a(S'w'
I2
tp1200
a(S'p2_vo'
I7
tp1201
a(S'w'
I718
tp1202
a(S'w'
I14
tp1203
a(S'w'
I720
tp1204
a(S'w'
I14
tp1205
a(S'w'
I720
tp1206
a(S'w'
I13
tp1207
a(S'w'
I721
tp1208
a(S'w'
I13
tp1209
a(S'w'
I721
tp1210
a(S'w'
I13
tp1211
a(S'w'
I721
tp1212
a(S'w'
I13
tp1213
a(S'w'
I720
tp1214
a(S'w'
I14
tp1215
a(S'w'
I720
tp1216
a(S'w'
I13
tp1217
a(S'w'
I721
tp1218
a(S'w'
I13
tp1219
a(S'w'
I721
tp1220
a(S'w'
I13
tp1221
a(S'w'
I720
tp1222
a(S'w'
I14
tp1223
a(S'w'
I720
tp1224
a(S'w'
I14
tp1225
a(S'w'
I720
tp1226
a(S'w'
I13
tp1227
a(S'w'
I721
tp1228
a(S'w'
I13
tp1229
a(S'w'
I721
tp1230
a(S'w'
I13
tp1231
a(S'w'
I721
tp1232
a(S'w'
I13
tp1233
a(S'w'
I720
tp1234
a(S'w'
I14
tp1235
a(S'w'
I720
tp1236
a(S'w'
I13
tp1237
a(S'w'
I721
tp1238
a(S'w'
I13
tp1239
a(S'w'
I721
tp1240
a(S'w'
I13
tp1241
a(S'w'
I720
tp1242
a(S'w'
I14
tp1243
a(S'w'
I720
tp1244
a(S'w'
I14
tp1245
a(S'w'
I720
tp1246
a(S'w'
I13
tp1247
a(S'w'
I721
tp1248
a(S'w'
I13
tp1249
a(S'w'
I721
tp1250
a(S'w'
I13
tp1251
a(S'w'
I721
tp1252
a(S'w'
I13
tp1253
a(S'w'
I720
tp1254
a(S'w'
I14
tp1255
a(S'w'
I720
tp1256
a(S'w'
I13
tp1257
a(S'w'
I721
tp1258
a(S'w'
I13
tp1259
a(S'w'
I721
tp1260
a(S'w'
I13
tp1261
a(S'w'
I722
tp1262
a(S'w'
I14
tp1263
a(S'w'
I718
tp1264
a(S'w'
I2
tp1265
a(S'p1_vo'
I6
tp1266
a(S'w'
I12
tp1267
a(S'w'
I1
tp1268
a(S'p2_vo'
I6
tp1269
a(S'w'
I719
tp1270
a(S'w'
I13
tp1271
a(S'w'
I721
tp1272
a(S'w'
I13
tp1273
a(S'w'
I721
tp1274
a(S'w'
I13
tp1275
a(S'w'
I721
tp1276
a(S'w'
I13
tp1277
a(S'w'
I720
tp1278
a(S'w'
I14
tp1279
a(S'w'
I720
tp1280
a(S'w'
I13
tp1281
a(S'w'
I721
tp1282
a(S'w'
I13
tp1283
a(S'w'
I721
tp1284
a(S'w'
I13
tp1285
a(S'w'
I721
tp1286
a(S'w'
I13
tp1287
a(S'w'
I720
tp1288
a(S'w'
I14
tp1289
a(S'w'
I720
tp1290
a(S'w'
I14
tp1291
a(S'w'
I720
tp1292
a(S'w'
I13
tp1293
a(S'w'
I721
tp1294
a(S'w'
I13
tp1295
a(S'w'
I721
tp1296
a(S'w'
I13
tp1297
a(S'w'
I720
tp1298
a(S'w'
I14
tp1299
a(S'w'
I720
tp1300
a(S'w'
I13
tp1301
a(S'w'
I721
tp1302
a(S'w'
I13
tp1303
a(S'w'
I721
tp1304
a(S'w'
I13
tp1305
a(S'w'
I721
tp1306
a(S'w'
I13
tp1307
a(S'w'
I720
tp1308
a(S'w'
I14
tp1309
a(S'w'
I720
tp1310
a(S'w'
I14
tp1311
a(S'w'
I720
tp1312
a(S'w'
I13
tp1313
a(S'w'
I721
tp1314
a(S'w'
I13
tp1315
a(S'w'
I720
tp1316
a(S'w'
I14
tp1317
a(S'w'
I720
tp1318
a(S'w'
I14
tp1319
a(S'w'
I720
tp1320
a(S'w'
I13
tp1321
a(S'w'
I721
tp1322
a(S'w'
I13
tp1323
a(S'w'
I721
tp1324
a(S'w'
I13
tp1325
a(S'w'
I720
tp1326
a(S'w'
I14
tp1327
a(S'w'
I720
tp1328
a(S'w'
I14
tp1329
a(S'w'
I721
tp1330
a(S'w'
I15
tp1331
a(S'w'
I718
tp1332
a(S'w'
I2
tp1333
a(S'p1_vo'
I5
tp1334
a(S'w'
I11
tp1335
a(S'w'
I2
tp1336
a(S'p2_vo'
I5
tp1337
a(S'w'
I719
tp1338
a(S'w'
I13
tp1339
a(S'w'
I720
tp1340
a(S'w'
I14
tp1341
a(S'w'
I720
tp1342
a(S'w'
I14
tp1343
a(S'w'
I720
tp1344
a(S'w'
I13
tp1345
a(S'w'
I721
tp1346
a(S'w'
I13
tp1347
a(S'w'
I721
tp1348
a(S'w'
I13
tp1349
a(S'w'
I720
tp1350
a(S'w'
I14
tp1351
a(S'w'
I16
tp1352
a(S'tr_lr'
I0
tp1353
a(S'w'
I704
tp1354
a(S'w'
I14
tp1355
a(S'w'
I720
tp1356
a(S'w'
I13
tp1357
a(S'w'
I721
tp1358
a(S'w'
I13
tp1359
a(S'w'
I721
tp1360
a(S'w'
I13
tp1361
a(S'w'
I720
tp1362
a(S'w'
I14
tp1363
a(S'w'
I720
tp1364
a(S'w'
I14
tp1365
a(S'w'
I720
tp1366
a(S'w'
I13
tp1367
a(S'w'
I721
tp1368
a(S'w'
I13
tp1369
a(S'w'
I721
tp1370
a(S'w'
I13
tp1371
a(S'w'
I721
tp1372
a(S'w'
I13
tp1373
a(S'w'
I720
tp1374
a(S'w'
I14
tp1375
a(S'w'
I720
tp1376
a(S'w'
I13
tp1377
a(S'w'
I721
tp1378
a(S'w'
I13
tp1379
a(S'w'
I721
tp1380
a(S'w'
I13
tp1381
a(S'w'
I720
tp1382
a(S'w'
I14
tp1383
a(S'w'
I720
tp1384
a(S'w'
I14
tp1385
a(S'w'
I720
tp1386
a(S'w'
I13
tp1387
a(S'w'
I721
tp1388
a(S'w'
I13
tp1389
a(S'w'
I721
tp1390
a(S'w'
I13
tp1391
a(S'w'
I720
tp1392
a(S'w'
I14
tp1393
a(S'w'
I720
tp1394
a(S'w'
I14
tp1395
a(S'w'
I720
tp1396
a(S'w'
I13
tp1397
a(S'w'
I721
tp1398
a(S'w'
I13
tp1399
a(S'w'
I722
tp1400
a(S'w'
I14
tp1401
a(S'w'
I718
tp1402
a(S'w'
I2
tp1403
a(S'p1_vo'
I4
tp1404
a(S'w'
I12
tp1405
a(S'w'
I2
tp1406
a(S'p2_vo'
I4
tp1407
a(S'w'
I718
tp1408
a(S'w'
I14
tp1409
a(S'w'
I720
tp1410
a(S'w'
I13
tp1411
a(S'w'
I721
tp1412
a(S'w'
I13
tp1413
a(S'w'
I721
tp1414
a(S'w'
I13
tp1415
a(S'w'
I720
tp1416
a(S'w'
I14
tp1417
a(S'w'
I720
tp1418
a(S'w'
I14
tp1419
a(S'w'
I720
tp1420
a(S'w'
I13
tp1421
a(S'w'
I721
tp1422
a(S'w'
I13
tp1423
a(S'w'
I721
tp1424
a(S'w'
I13
tp1425
a(S'w'
I721
tp1426
a(S'w'
I13
tp1427
a(S'w'
I720
tp1428
a(S'w'
I14
tp1429
a(S'w'
I720
tp1430
a(S'w'
I13
tp1431
a(S'w'
I721
tp1432
a(S'w'
I13
tp1433
a(S'w'
I721
tp1434
a(S'w'
I13
tp1435
a(S'w'
I720
tp1436
a(S'w'
I14
tp1437
a(S'w'
I720
tp1438
a(S'w'
I14
tp1439
a(S'w'
I720
tp1440
a(S'w'
I13
tp1441
a(S'w'
I721
tp1442
a(S'w'
I13
tp1443
a(S'w'
I721
tp1444
a(S'w'
I13
tp1445
a(S'w'
I720
tp1446
a(S'w'
I14
tp1447
a(S'w'
I720
tp1448
a(S'w'
I14
tp1449
a(S'w'
I720
tp1450
a(S'w'
I13
tp1451
a(S'w'
I721
tp1452
a(S'w'
I13
tp1453
a(S'w'
I721
tp1454
a(S'w'
I13
tp1455
a(S'w'
I720
tp1456
a(S'w'
I14
tp1457
a(S'w'
I720
tp1458
a(S'w'
I14
tp1459
a(S'w'
I720
tp1460
a(S'w'
I13
tp1461
a(S'w'
I721
tp1462
a(S'w'
I13
tp1463
a(S'w'
I721
tp1464
a(S'w'
I13
tp1465
a(S'w'
I721
tp1466
a(S'w'
I13
tp1467
a(S'w'
I721
tp1468
a(S'w'
I15
tp1469
a(S'w'
I718
tp1470
a(S'w'
I2
tp1471
a(S'p1_vo'
I3
tp1472
a(S'w'
I11
tp1473
a(S'w'
I2
tp1474
a(S'p2_vo'
I3
tp1475
a(S'w'
I719
tp1476
a(S'w'
I13
tp1477
a(S'w'
I721
tp1478
a(S'w'
I13
tp1479
a(S'w'
I721
tp1480
a(S'w'
I13
tp1481
a(S'w'
I720
tp1482
a(S'w'
I14
tp1483
a(S'w'
I720
tp1484
a(S'w'
I13
tp1485
a(S'w'
I721
tp1486
a(S'w'
I13
tp1487
a(S'w'
I721
tp1488
a(S'w'
I13
tp1489
a(S'w'
I721
tp1490
a(S'w'
I13
tp1491
a(S'w'
I720
tp1492
a(S'w'
I14
tp1493
a(S'w'
I720
tp1494
a(S'w'
I13
tp1495
a(S'w'
I721
tp1496
a(S'w'
I13
tp1497
a(S'w'
I721
tp1498
a(S'w'
I13
tp1499
a(S'w'
I721
tp1500
a(S'w'
I13
tp1501
a(S'w'
I720
tp1502
a(S'w'
I14
tp1503
a(S'w'
I720
tp1504
a(S'w'
I14
tp1505
a(S'w'
I720
tp1506
a(S'w'
I13
tp1507
a(S'w'
I721
tp1508
a(S'w'
I13
tp1509
a(S'w'
I721
tp1510
a(S'w'
I13
tp1511
a(S'w'
I720
tp1512
a(S'w'
I14
tp1513
a(S'w'
I720
tp1514
a(S'w'
I13
tp1515
a(S'w'
I721
tp1516
a(S'w'
I13
tp1517
a(S'w'
I721
tp1518
a(S'w'
I14
tp1519
a(S'w'
I729
tp1520
a(S'p1_vo'
I0
tp1521
a(S'w'
I22
tp1522
a(S'p2_vo'
I0
tp1523
a(S'w'
I1
tp1524
a.