(lp1
(S'clock'
p2
I1789772
tp3
a(S'p1_ll'
I0
tp4
a(S'p2_ll'
I0
tp5
a(S'tr_ll'
I0
tp6
a(S'ch_no'
I1
tp7
a(S'ch_tr'
I1
tp8
a(S'ch_p2'
I1
tp9
a(S'ch_p1'
I1
tp10
a(S'w'
I67
tp11
a(S'tr_tl'
I29
tp12
a(S'tr_ll'
I0
tp13
a(S'tr_th'
I1
tp14
a(S'w'
I8
tp15
a(S'tr_lr'
I15
tp16
a(S'w'
I1
tp17
a(S'no_lh'
I1
tp18
a(S'no_cv'
I1
tp19
a(S'w'
I698
tp20
a(S'p1_tl'
I190
tp21
a(S'p1_ll'
I0
tp22
a(S'p1_sn'
I1
tp23
a(S'w'
I4
tp24
a(S'p1_du'
I1
tp25
a(S'p1_lh'
I1
tp26
a(S'p1_cv'
I1
tp27
a(S'w'
I31
tp28
a(S'p2_du'
I1
tp29
a(S'p2_lh'
I1
tp30
a(S'p2_cv'
I1
tp31
a(S'w'
I1412
tp32
a(S'p1_vo'
I14
tp33
a(S'w'
I14
tp34
a(S'p2_tl'
I95
tp35
a(S'w'
I1
tp36
a(S'p2_ll'
I0
tp37
a(S'p2_sn'
I1
tp38
a(S'w'
I1438
tp39
a(S'p1_vo'
I0
tp40
a(S'w'
I18
tp41
a(S'p2_vo'
I14
tp42
a(S'w'
I722
tp43
a(S'tr_tl'
I46
tp44
a(S'tr_ll'
I0
tp45
a(S'w'
I733
tp46
a(S'p1_tl'
I143
tp47
a(S'p1_ll'
I0
tp48
a(S'w'
I8
tp49
a(S'p2_vo'
I0
tp50
a(S'w'
I1469
tp51
a(S'p1_vo'
I14
tp52
a(S'w'
I9
tp53
a(S'p2_tl'
I71
tp54
a(S'p2_ll'
I0
tp55
a(S'w'
I1444
tp56
a(S'p1_vo'
I0
tp57
a(S'w'
I18
tp58
a(S'p2_vo'
I14
tp59
a(S'w'
I722
tp60
a(S'tr_tl'
I83
tp61
a(S'tr_ll'
I0
tp62
a(S'w'
I733
tp63
a(S'p1_tl'
I127
tp64
a(S'p1_ll'
I0
tp65
a(S'w'
I8
tp66
a(S'p2_vo'
I0
tp67
a(S'w'
I1468
tp68
a(S'p1_vo'
I14
tp69
a(S'w'
I9
tp70
a(S'p2_tl'
I64
tp71
a(S'p2_ll'
I0
tp72
a(S'w'
I1445
tp73
a(S'p1_vo'
I0
tp74
a(S'w'
I18
tp75
a(S'p2_vo'
I14
tp76
a(S'w'
I722
tp77
a(S'tr_tl'
I46
tp78
a(S'tr_ll'
I0
tp79
a(S'w'
I733
tp80
a(S'p1_tl'
I107
tp81
a(S'p1_ll'
I0
tp82
a(S'w'
I8
tp83
a(S'p2_vo'
I0
tp84
a(S'w'
I1468
tp85
a(S'p1_vo'
I14
tp86
a(S'w'
I9
tp87
a(S'p2_tl'
I53
tp88
a(S'p2_ll'
I0
tp89
a(S'w'
I1445
tp90
a(S'p1_vo'
I0
tp91
a(S'w'
I18
tp92
a(S'p2_vo'
I14
tp93
a(S'w'
I722
tp94
a(S'tr_tl'
I83
tp95
a(S'tr_ll'
I0
tp96
a(S'w'
I732
tp97
a(S'p1_tl'
I95
tp98
a(S'p1_ll'
I0
tp99
a(S'w'
I8
tp100
a(S'p2_vo'
I0
tp101
a(S'w'
I1469
tp102
a(S'p1_vo'
I14
tp103
a(S'w'
I9
tp104
a(S'p2_tl'
I48
tp105
a(S'p2_ll'
I0
tp106
a(S'w'
I1444
tp107
a(S'p1_vo'
I0
tp108
a(S'w'
I18
tp109
a(S'p2_vo'
I14
tp110
a(S'w'
I722
tp111
a(S'tr_tl'
I125
tp112
a(S'tr_ll'
I0
tp113
a(S'w'
I733
tp114
a(S'p1_tl'
I80
tp115
a(S'p1_ll'
I0
tp116
a(S'w'
I8
tp117
a(S'p2_vo'
I0
tp118
a(S'w'
I1469
tp119
a(S'p1_vo'
I14
tp120
a(S'w'
I9
tp121
a(S'p2_tl'
I40
tp122
a(S'p2_ll'
I0
tp123
a(S'w'
I1444
tp124
a(S'p1_vo'
I0
tp125
a(S'w'
I18
tp126
a(S'p2_vo'
I14
tp127
a(S'w'
I722
tp128
a(S'tr_tl'
I29
tp129
a(S'tr_ll'
I0
tp130
a(S'w'
I733
tp131
a(S'p1_tl'
I64
tp132
a(S'p1_ll'
I0
tp133
a(S'w'
I8
tp134
a(S'p2_vo'
I0
tp135
a(S'w'
I1468
tp136
a(S'p1_vo'
I14
tp137
a(S'w'
I9
tp138
a(S'p2_tl'
I32
tp139
a(S'p2_ll'
I0
tp140
a(S'w'
I1445
tp141
a(S'p1_vo'
I0
tp142
a(S'w'
I18
tp143
a(S'p2_vo'
I14
tp144
a(S'w'
I722
tp145
a(S'tr_tl'
I46
tp146
a(S'tr_ll'
I0
tp147
a(S'w'
I733
tp148
a(S'p1_tl'
I85
tp149
a(S'p1_ll'
I0
tp150
a(S'w'
I8
tp151
a(S'p2_vo'
I0
tp152
a(S'w'
I1468
tp153
a(S'p1_vo'
I14
tp154
a(S'w'
I9
tp155
a(S'p2_tl'
I42
tp156
a(S'p2_ll'
I0
tp157
a(S'w'
I1445
tp158
a(S'p1_vo'
I0
tp159
a(S'w'
I18
tp160
a(S'p2_vo'
I14
tp161
a(S'w'
I722
tp162
a(S'tr_tl'
I83
tp163
a(S'tr_ll'
I0
tp164
a(S'w'
I732
tp165
a(S'p1_tl'
I107
tp166
a(S'p1_ll'
I0
tp167
a(S'w'
I8
tp168
a(S'p2_vo'
I0
tp169
a(S'w'
I1469
tp170
a(S'p1_vo'
I14
tp171
a(S'w'
I9
tp172
a(S'p2_tl'
I53
tp173
a(S'p2_ll'
I0
tp174
a(S'w'
I1444
tp175
a(S'p1_vo'
I0
tp176
a(S'w'
I18
tp177
a(S'p2_vo'
I14
tp178
a(S'w'
I722
tp179
a(S'tr_tl'
I46
tp180
a(S'tr_ll'
I0
tp181
a(S'w'
I733
tp182
a(S'p1_tl'
I113
tp183
a(S'p1_ll'
I0
tp184
a(S'w'
I8
tp185
a(S'p2_vo'
I0
tp186
a(S'w'
I1469
tp187
a(S'p1_vo'
I14
tp188
a(S'w'
I9
tp189
a(S'p2_tl'
I57
tp190
a(S'p2_ll'
I0
tp191
a(S'w'
I1444
tp192
a(S'p1_vo'
I0
tp193
a(S'w'
I18
tp194
a(S'p2_vo'
I14
tp195
a(S'w'
I722
tp196
a(S'tr_tl'
I83
tp197
a(S'tr_ll'
I0
tp198
a(S'w'
I733
tp199
a(S'p1_tl'
I143
tp200
a(S'p1_ll'
I0
tp201
a(S'w'
I8
tp202
a(S'p2_vo'
I0
tp203
a(S'w'
I1468
tp204
a(S'p1_vo'
I14
tp205
a(S'w'
I9
tp206
a(S'p2_tl'
I71
tp207
a(S'p2_ll'
I0
tp208
a(S'w'
I1445
tp209
a(S'p1_vo'
I0
tp210
a(S'w'
I18
tp211
a(S'p2_vo'
I14
tp212
a(S'w'
I722
tp213
a(S'tr_tl'
I125
tp214
a(S'tr_ll'
I0
tp215
a(S'w'
I733
tp216
a(S'p1_tl'
I170
tp217
a(S'p1_ll'
I0
tp218
a(S'w'
I8
tp219
a(S'p2_vo'
I0
tp220
a(S'w'
I1468
tp221
a(S'p1_vo'
I14
tp222
a(S'w'
I9
tp223
a(S'p2_tl'
I85
tp224
a(S'p2_ll'
I0
tp225
a(S'w'
I1445
tp226
a(S'p1_vo'
I0
tp227
a(S'w'
I18
tp228
a(S'p2_vo'
I14
tp229
a(S'w'
I722
tp230
a(S'tr_tl'
I214
tp231
a(S'tr_ll'
I0
tp232
a(S'tr_th'
I0
tp233
a(S'w'
I732
tp234
a(S'p1_tl'
I190
tp235
a(S'p1_ll'
I0
tp236
a(S'w'
I8
tp237
a(S'p2_vo'
I0
tp238
a(S'w'
I1469
tp239
a(S'p1_vo'
I14
tp240
a(S'w'
I9
tp241
a(S'p2_tl'
I95
tp242
a(S'p2_ll'
I0
tp243
a(S'w'
I1444
tp244
a(S'p1_vo'
I0
tp245
a(S'w'
I18
tp246
a(S'p2_vo'
I14
tp247
a(S'w'
I722
tp248
a(S'tr_tl'
I226
tp249
a(S'tr_ll'
I0
tp250
a(S'w'
I733
tp251
a(S'p1_tl'
I160
tp252
a(S'p1_ll'
I0
tp253
a(S'w'
I8
tp254
a(S'p2_vo'
I0
tp255
a(S'w'
I1469
tp256
a(S'p1_vo'
I14
tp257
a(S'w'
I9
tp258
a(S'p2_tl'
I80
tp259
a(S'p2_ll'
I0
tp260
a(S'w'
I1444
tp261
a(S'p1_vo'
I0
tp262
a(S'w'
I18
tp263
a(S'p2_vo'
I14
tp264
a(S'w'
I722
tp265
a(S'tr_tl'
I254
tp266
a(S'tr_ll'
I0
tp267
a(S'w'
I733
tp268
a(S'p1_tl'
I127
tp269
a(S'p1_ll'
I0
tp270
a(S'w'
I8
tp271
a(S'p2_vo'
I0
tp272
a(S'w'
I1468
tp273
a(S'p1_vo'
I14
tp274
a(S'w'
I9
tp275
a(S'p2_tl'
I64
tp276
a(S'p2_ll'
I0
tp277
a(S'w'
I1445
tp278
a(S'p1_vo'
I0
tp279
a(S'w'
I18
tp280
a(S'p2_vo'
I14
tp281
a(S'w'
I722
tp282
a(S'tr_tl'
I226
tp283
a(S'tr_ll'
I0
tp284
a(S'w'
I733
tp285
a(S'p1_tl'
I113
tp286
a(S'p1_ll'
I0
tp287
a(S'w'
I8
tp288
a(S'p2_vo'
I0
tp289
a(S'w'
I1468
tp290
a(S'p1_vo'
I14
tp291
a(S'w'
I9
tp292
a(S'p2_tl'
I57
tp293
a(S'p2_ll'
I0
tp294
a(S'w'
I1445
tp295
a(S'p1_vo'
I0
tp296
a(S'w'
I18
tp297
a(S'p2_vo'
I14
tp298
a(S'w'
I722
tp299
a(S'tr_tl'
I254
tp300
a(S'tr_ll'
I0
tp301
a(S'w'
I732
tp302
a(S'p1_tl'
I190
tp303
a(S'p1_ll'
I0
tp304
a(S'w'
I8
tp305
a(S'p2_vo'
I0
tp306
a(S'w'
I1469
tp307
a(S'p1_vo'
I14
tp308
a(S'w'
I9
tp309
a(S'p2_tl'
I95
tp310
a(S'p2_ll'
I0
tp311
a(S'w'
I1444
tp312
a(S'p1_vo'
I0
tp313
a(S'w'
I18
tp314
a(S'p2_vo'
I14
tp315
a(S'w'
I722
tp316
a(S'tr_tl'
I29
tp317
a(S'tr_ll'
I0
tp318
a(S'tr_th'
I1
tp319
a(S'w'
I733
tp320
a(S'p1_tl'
I160
tp321
a(S'p1_ll'
I0
tp322
a(S'w'
I8
tp323
a(S'p2_vo'
I0
tp324
a(S'w'
I1469
tp325
a(S'p1_vo'
I14
tp326
a(S'w'
I9
tp327
a(S'p2_tl'
I80
tp328
a(S'p2_ll'
I0
tp329
a(S'w'
I1444
tp330
a(S'p1_vo'
I0
tp331
a(S'w'
I18
tp332
a(S'p2_vo'
I14
tp333
a(S'w'
I722
tp334
a(S'tr_tl'
I214
tp335
a(S'tr_ll'
I0
tp336
a(S'tr_th'
I0
tp337
a(S'w'
I733
tp338
a(S'p1_tl'
I127
tp339
a(S'p1_ll'
I0
tp340
a(S'w'
I8
tp341
a(S'p2_vo'
I0
tp342
a(S'w'
I1468
tp343
a(S'p1_vo'
I14
tp344
a(S'w'
I9
tp345
a(S'p2_tl'
I64
tp346
a(S'p2_ll'
I0
tp347
a(S'w'
I1445
tp348
a(S'p1_vo'
I0
tp349
a(S'w'
I18
tp350
a(S'p2_vo'
I14
tp351
a(S'w'
I722
tp352
a(S'tr_tl'
I226
tp353
a(S'tr_ll'
I0
tp354
a(S'w'
I733
tp355
a(S'p1_tl'
I113
tp356
a(S'p1_ll'
I0
tp357
a(S'w'
I8
tp358
a(S'p2_vo'
I0
tp359
a(S'w'
I1468
tp360
a(S'p1_vo'
I14
tp361
a(S'w'
I9
tp362
a(S'p2_tl'
I57
tp363
a(S'p2_ll'
I0
tp364
a(S'w'
I1445
tp365
a(S'p1_vo'
I0
tp366
a(S'w'
I18
tp367
a(S'p2_vo'
I14
tp368
a(S'w'
I722
tp369
a(S'tr_tl'
I254
tp370
a(S'tr_ll'
I0
tp371
a(S'w'
I738
tp372
a(S'p1_tl'
I127
tp373
a(S'p1_ll'
I0
tp374
a(S'w'
I7
tp375
a(S'p2_vo'
I0
tp376
a(S'w'
I1464
tp377
a(S'p1_vo'
I14
tp378
a(S'w'
I14
tp379
a(S'p2_tl'
I32
tp380
a(S'p2_ll'
I0
tp381
a(S'w'
I1439
tp382
a(S'p1_vo'
I0
tp383
a(S'w'
I18
tp384
a(S'p2_vo'
I14
tp385
a(S'w'
I722
tp386
a(S'tr_tl'
I226
tp387
a(S'tr_ll'
I0
tp388
a(S'w'
I733
tp389
a(S'p1_tl'
I85
tp390
a(S'p1_ll'
I0
tp391
a(S'w'
I8
tp392
a(S'p2_vo'
I0
tp393
a(S'w'
I1469
tp394
a(S'p1_vo'
I14
tp395
a(S'w'
I9
tp396
a(S'p2_tl'
I85
tp397
a(S'p2_ll'
I0
tp398
a(S'w'
I1444
tp399
a(S'p1_vo'
I0
tp400
a(S'w'
I18
tp401
a(S'p2_vo'
I14
tp402
a(S'w'
I722
tp403
a(S'tr_tl'
I254
tp404
a(S'tr_ll'
I0
tp405
a(S'w'
I733
tp406
a(S'p1_tl'
I214
tp407
a(S'p1_ll'
I0
tp408
a(S'w'
I8
tp409
a(S'p2_vo'
I0
tp410
a(S'w'
I1468
tp411
a(S'p1_vo'
I14
tp412
a(S'w'
I9
tp413
a(S'p2_tl'
I53
tp414
a(S'p2_ll'
I0
tp415
a(S'w'
I1445
tp416
a(S'p1_vo'
I0
tp417
a(S'w'
I18
tp418
a(S'p2_vo'
I14
tp419
a(S'w'
I722
tp420
a(S'tr_tl'
I29
tp421
a(S'tr_ll'
I0
tp422
a(S'tr_th'
I1
tp423
a(S'w'
I733
tp424
a(S'p1_tl'
I254
tp425
a(S'p1_ll'
I0
tp426
a(S'w'
I8
tp427
a(S'p2_vo'
I0
tp428
a(S'w'
I1468
tp429
a(S'p1_vo'
I14
tp430
a(S'w'
I9
tp431
a(S'p2_tl'
I64
tp432
a(S'p2_ll'
I0
tp433
a(S'w'
I1445
tp434
a(S'p1_vo'
I0
tp435
a(S'w'
I18
tp436
a(S'p2_vo'
I14
tp437
a(S'w'
I722
tp438
a(S'tr_tl'
I83
tp439
a(S'tr_ll'
I0
tp440
a(S'w'
I8
tp441
a(S'tr_lh'
I1
tp442
a(S'tr_lr'
I127
tp443
a(S'w'
I724
tp444
a(S'p1_ll'
I0
tp445
a(S'w'
I8
tp446
a(S'p2_vo'
I0
tp447
a(S'w'
I1469
tp448
a(S'p1_vo'
I14
tp449
a(S'w'
I9
tp450
a(S'p2_tl'
I107
tp451
a(S'p2_ll'
I0
tp452
a(S'w'
I1444
tp453
a(S'p1_vo'
I0
tp454
a(S'w'
I18
tp455
a(S'p2_vo'
I14
tp456
a(S'w'
I1455
tp457
a(S'p1_tl'
I190
tp458
a(S'p1_ll'
I0
tp459
a(S'w'
I8
tp460
a(S'p2_vo'
I0
tp461
a(S'w'
I1469
tp462
a(S'p1_vo'
I14
tp463
a(S'w'
I9
tp464
a(S'p2_tl'
I71
tp465
a(S'p2_ll'
I0
tp466
a(S'w'
I1444
tp467
a(S'p1_vo'
I0
tp468
a(S'w'
I18
tp469
a(S'p2_vo'
I14
tp470
a(S'w'
I1455
tp471
a(S'p1_tl'
I127
tp472
a(S'p1_ll'
I0
tp473
a(S'w'
I8
tp474
a(S'p2_vo'
I0
tp475
a(S'w'
I1468
tp476
a(S'p1_vo'
I14
tp477
a(S'w'
I9
tp478
a(S'p2_tl'
I53
tp479
a(S'p2_ll'
I0
tp480
a(S'w'
I1445
tp481
a(S'p1_vo'
I0
tp482
a(S'w'
I18
tp483
a(S'p2_vo'
I14
tp484
a(S'w'
I1455
tp485
a(S'p1_tl'
I85
tp486
a(S'p1_ll'
I0
tp487
a(S'w'
I8
tp488
a(S'p2_vo'
I0
tp489
a(S'w'
I1468
tp490
a(S'p1_vo'
I14
tp491
a(S'w'
I9
tp492
a(S'p2_tl'
I36
tp493
a(S'p2_ll'
I0
tp494
a(S'w'
I1445
tp495
a(S'p1_vo'
I0
tp496
a(S'w'
I18
tp497
a(S'p2_vo'
I14
tp498
a(S'w'
I1454
tp499
a(S'p1_tl'
I64
tp500
a(S'p1_ll'
I0
tp501
a(S'w'
I8
tp502
a(S'p2_vo'
I0
tp503
a(S'w'
I1471
tp504
a(S'p1_vo'
I4
tp505
a(S'w'
I1466
tp506
a(S'p1_vo'
I6
tp507
a(S'w'
I1468
tp508
a(S'p1_vo'
I8
tp509
a(S'w'
I1468
tp510
a(S'p1_vo'
I12
tp511
a(S'w'
I1467
tp512
a(S'p1_vo'
I14
tp513
a(S'w'
I2931
tp514
a(S'p1_vo'
I10
tp515
a(S'w'
I1467
tp516
a(S'p1_vo'
I8
tp517
a(S'w'
I1467
tp518
a(S'p1_vo'
I6
tp519
a(S'w'
I1464
tp520
a(S'p1_vo'
I2
tp521
a(S'w'
I1467
tp522
a(S'p1_vo'
I0
tp523
a(S'w'
I734
tp524
a(S'tr_lh'
I0
tp525
a(S'tr_lr'
I0
tp526
a(S'w'
I63901
tp527
a.