(lp1
(S'clock'
p2
I1789772
tp3
a(S'p1_ll'
I0
tp4
a(S'p2_ll'
I0
tp5
a(S'tr_ll'
I0
tp6
a(S'ch_no'
I1
tp7
a(S'ch_tr'
I1
tp8
a(S'ch_p2'
I1
tp9
a(S'ch_p1'
I1
tp10
a(S'w'
I67
tp11
a(S'tr_tl'
I197
tp12
a(S'tr_ll'
I0
tp13
a(S'tr_th'
I1
tp14
a(S'w'
I8
tp15
a(S'tr_lh'
I1
tp16
a(S'tr_lr'
I127
tp17
a(S'w'
I2
tp18
a(S'no_lh'
I1
tp19
a(S'no_cv'
I1
tp20
a(S'w'
I691
tp21
a(S'p1_tl'
I85
tp22
a(S'p1_ll'
I0
tp23
a(S'p1_sn'
I1
tp24
a(S'w'
I8
tp25
a(S'p1_du'
I1
tp26
a(S'p1_lh'
I1
tp27
a(S'p1_cv'
I1
tp28
a(S'p1_vo'
I15
tp29
a(S'w'
I37
tp30
a(S'p2_tl'
I254
tp31
a(S'p2_ll'
I0
tp32
a(S'w'
I1
tp33
a(S'p2_sn'
I1
tp34
a(S'w'
I3
tp35
a(S'p2_du'
I1
tp36
a(S'p2_lh'
I1
tp37
a(S'p2_cv'
I1
tp38
a(S'w'
I1428
tp39
a(S'p2_vo'
I12
tp40
a(S'w'
I1462
tp41
a(S'p2_vo'
I8
tp42
a(S'w'
I1463
tp43
a(S'p2_tl'
I190
tp44
a(S'p2_ll'
I0
tp45
a(S'w'
I4
tp46
a(S'p2_vo'
I0
tp47
a(S'w'
I1473
tp48
a(S'p2_vo'
I12
tp49
a(S'w'
I1462
tp50
a(S'p2_vo'
I8
tp51
a(S'w'
I1463
tp52
a(S'p2_tl'
I170
tp53
a(S'p2_ll'
I0
tp54
a(S'w'
I4
tp55
a(S'p2_vo'
I0
tp56
a(S'w'
I1455
tp57
a(S'w'
I18
tp58
a(S'p2_vo'
I12
tp59
a(S'w'
I697
tp60
a(S'w'
I1
tp61
a(S'w'
I751
tp62
a(S'p1_vo'
I14
tp63
a(S'w'
I13
tp64
a(S'p2_vo'
I8
tp65
a(S'w'
I1463
tp66
a(S'p2_tl'
I127
tp67
a(S'p2_ll'
I0
tp68
a(S'w'
I4
tp69
a(S'p2_vo'
I0
tp70
a(S'w'
I1473
tp71
a(S'p2_vo'
I12
tp72
a(S'w'
I1463
tp73
a(S'p2_vo'
I8
tp74
a(S'w'
I1461
tp75
a(S'p2_tl'
I190
tp76
a(S'w'
I1
tp77
a(S'p2_ll'
I0
tp78
a(S'w'
I3
tp79
a(S'p2_vo'
I0
tp80
a(S'w'
I1474
tp81
a(S'p2_vo'
I12
tp82
a(S'w'
I1462
tp83
a(S'p2_vo'
I8
tp84
a(S'w'
I1463
tp85
a(S'p2_tl'
I170
tp86
a(S'w'
I1
tp87
a(S'p2_ll'
I0
tp88
a(S'w'
I3
tp89
a(S'p2_vo'
I0
tp90
a(S'w'
I1473
tp91
a(S'p2_vo'
I12
tp92
a(S'w'
I1462
tp93
a(S'p2_vo'
I8
tp94
a(S'w'
I1469
tp95
a(S'p2_tl'
I254
tp96
a(S'p2_ll'
I0
tp97
a(S'w'
I4
tp98
a(S'p2_vo'
I0
tp99
a(S'w'
I1448
tp100
a(S'p1_vo'
I13
tp101
a(S'w'
I19
tp102
a(S'p2_vo'
I12
tp103
a(S'w'
I1463
tp104
a(S'p2_vo'
I8
tp105
a(S'w'
I1463
tp106
a(S'p2_tl'
I190
tp107
a(S'p2_ll'
I0
tp108
a(S'w'
I4
tp109
a(S'p2_vo'
I0
tp110
a(S'w'
I1473
tp111
a(S'p2_vo'
I12
tp112
a(S'w'
I1462
tp113
a(S'p2_vo'
I8
tp114
a(S'w'
I1462
tp115
a(S'p2_tl'
I170
tp116
a(S'p2_ll'
I0
tp117
a(S'w'
I4
tp118
a(S'p2_vo'
I0
tp119
a(S'w'
I1474
tp120
a(S'p2_vo'
I12
tp121
a(S'w'
I1462
tp122
a(S'p2_vo'
I8
tp123
a(S'w'
I1462
tp124
a(S'p2_tl'
I127
tp125
a(S'p2_ll'
I0
tp126
a(S'w'
I4
tp127
a(S'p2_vo'
I0
tp128
a(S'w'
I1474
tp129
a(S'p2_vo'
I12
tp130
a(S'w'
I1462
tp131
a(S'p2_vo'
I8
tp132
a(S'w'
I1463
tp133
a(S'p2_tl'
I190
tp134
a(S'p2_ll'
I0
tp135
a(S'w'
I4
tp136
a(S'p2_vo'
I0
tp137
a(S'w'
I1454
tp138
a(S'p1_vo'
I12
tp139
a(S'w'
I18
tp140
a(S'p2_vo'
I12
tp141
a(S'w'
I1463
tp142
a(S'p2_vo'
I8
tp143
a(S'w'
I1463
tp144
a(S'p2_tl'
I170
tp145
a(S'p2_ll'
I0
tp146
a(S'w'
I4
tp147
a(S'p2_vo'
I0
tp148
a(S'w'
I1472
tp149
a(S'p2_vo'
I12
tp150
a(S'w'
I1463
tp151
a(S'p2_vo'
I8
tp152
a(S'w'
I1468
tp153
a(S'p2_tl'
I254
tp154
a(S'p2_ll'
I0
tp155
a(S'w'
I4
tp156
a(S'p2_vo'
I0
tp157
a(S'w'
I1468
tp158
a(S'p2_vo'
I12
tp159
a(S'w'
I1461
tp160
a(S'p2_vo'
I8
tp161
a(S'w'
I1464
tp162
a(S'p2_tl'
I190
tp163
a(S'p2_ll'
I0
tp164
a(S'w'
I3
tp165
a(S'p2_vo'
I0
tp166
a(S'w'
I1474
tp167
a(S'p2_vo'
I12
tp168
a(S'w'
I1462
tp169
a(S'p2_vo'
I8
tp170
a(S'w'
I1454
tp171
a(S'p1_vo'
I11
tp172
a(S'w'
I9
tp173
a(S'p2_tl'
I170
tp174
a(S'p2_ll'
I0
tp175
a(S'w'
I4
tp176
a(S'p2_vo'
I0
tp177
a(S'w'
I1473
tp178
a(S'p2_vo'
I12
tp179
a(S'w'
I1463
tp180
a(S'p2_vo'
I8
tp181
a(S'w'
I1463
tp182
a(S'p2_tl'
I127
tp183
a(S'p2_ll'
I0
tp184
a(S'w'
I4
tp185
a(S'p2_vo'
I0
tp186
a(S'w'
I1453
tp187
a(S'p1_vo'
I10
tp188
a(S'w'
I18
tp189
a(S'p2_vo'
I12
tp190
a(S'w'
I1463
tp191
a(S'p2_vo'
I8
tp192
a(S'w'
I1463
tp193
a(S'p2_tl'
I190
tp194
a(S'p2_ll'
I0
tp195
a(S'w'
I3
tp196
a(S'p2_vo'
I0
tp197
a(S'w'
I1455
tp198
a(S'p1_vo'
I9
tp199
a(S'w'
I19
tp200
a(S'p2_vo'
I12
tp201
a(S'w'
I1462
tp202
a(S'p2_vo'
I8
tp203
a(S'w'
I1463
tp204
a(S'p2_tl'
I170
tp205
a(S'p2_ll'
I0
tp206
a(S'w'
I4
tp207
a(S'p2_vo'
I0
tp208
a(S'w'
I1474
tp209
a(S'p2_vo'
I12
tp210
a(S'w'
I1447
tp211
a(S'p1_vo'
I8
tp212
a(S'w'
I13
tp213
a(S'p2_vo'
I8
tp214
a(S'w'
I1469
tp215
a(S'p2_tl'
I254
tp216
a(S'p2_ll'
I0
tp217
a(S'w'
I4
tp218
a(S'p2_vo'
I0
tp219
a(S'w'
I1467
tp220
a(S'p2_vo'
I12
tp221
a(S'w'
I1463
tp222
a(S'p2_vo'
I8
tp223
a(S'w'
I1459
tp224
a(S'p2_tl'
I190
tp225
a(S'p2_ll'
I0
tp226
a(S'w'
I4
tp227
a(S'p2_vo'
I0
tp228
a(S'w'
I1470
tp229
a(S'p2_vo'
I12
tp230
a(S'w'
I1463
tp231
a(S'p2_vo'
I8
tp232
a(S'w'
I1459
tp233
a(S'p1_tl'
I101
tp234
a(S'p1_ll'
I0
tp235
a(S'w'
I1
tp236
a(S'w'
I7
tp237
a(S'p1_vo'
I15
tp238
a(S'w'
I9
tp239
a(S'p2_tl'
I170
tp240
a(S'p2_ll'
I0
tp241
a(S'w'
I3
tp242
a(S'p2_vo'
I0
tp243
a(S'w'
I1480
tp244
a(S'p2_vo'
I12
tp245
a(S'w'
I1447
tp246
a(S'p1_vo'
I14
tp247
a(S'w'
I13
tp248
a(S'p2_vo'
I8
tp249
a(S'w'
I1453
tp250
a(S'p1_vo'
I13
tp251
a(S'w'
I9
tp252
a(S'p2_tl'
I127
tp253
a(S'p2_ll'
I0
tp254
a(S'w'
I4
tp255
a(S'p2_vo'
I0
tp256
a(S'w'
I1472
tp257
a(S'p2_vo'
I12
tp258
a(S'w'
I1448
tp259
a(S'p1_vo'
I12
tp260
a(S'w'
I13
tp261
a(S'p2_vo'
I8
tp262
a(S'w'
I1462
tp263
a(S'p2_tl'
I190
tp264
a(S'p2_ll'
I0
tp265
a(S'w'
I3
tp266
a(S'p2_vo'
I0
tp267
a(S'w'
I1453
tp268
a(S'p1_vo'
I10
tp269
a(S'w'
I18
tp270
a(S'p2_vo'
I12
tp271
a(S'w'
I1448
tp272
a(S'p1_vo'
I8
tp273
a(S'w'
I13
tp274
a(S'p2_vo'
I8
tp275
a(S'w'
I1453
tp276
a(S'p1_tl'
I127
tp277
a(S'p1_ll'
I0
tp278
a(S'w'
I8
tp279
a(S'p1_vo'
I15
tp280
a(S'w'
I9
tp281
a(S'p2_tl'
I170
tp282
a(S'p2_ll'
I0
tp283
a(S'w'
I3
tp284
a(S'p2_vo'
I0
tp285
a(S'w'
I1457
tp286
a(S'p1_vo'
I13
tp287
a(S'w'
I19
tp288
a(S'p2_vo'
I12
tp289
a(S'w'
I1445
tp290
a(S'p1_vo'
I12
tp291
a(S'w'
I13
tp292
a(S'p2_vo'
I8
tp293
a(S'w'
I716
tp294
a(S'tr_tl'
I148
tp295
a(S'tr_ll'
I0
tp296
a(S'w'
I732
tp297
a(S'p1_tl'
I113
tp298
a(S'p1_ll'
I0
tp299
a(S'w'
I8
tp300
a(S'p1_vo'
I15
tp301
a(S'w'
I18
tp302
a(S'p2_tl'
I226
tp303
a(S'w'
I1
tp304
a(S'p2_ll'
I0
tp305
a(S'w'
I3
tp306
a(S'p2_vo'
I0
tp307
a(S'w'
I1471
tp308
a(S'p2_vo'
I12
tp309
a(S'w'
I1462
tp310
a(S'p2_vo'
I8
tp311
a(S'w'
I1462
tp312
a(S'p2_tl'
I170
tp313
a(S'p2_ll'
I0
tp314
a(S'w'
I4
tp315
a(S'p2_vo'
I0
tp316
a(S'w'
I1474
tp317
a(S'p2_vo'
I12
tp318
a(S'w'
I1448
tp319
a(S'p1_vo'
I14
tp320
a(S'w'
I13
tp321
a(S'p2_vo'
I8
tp322
a(S'w'
I1463
tp323
a(S'p2_tl'
I151
tp324
a(S'p2_ll'
I0
tp325
a(S'w'
I4
tp326
a(S'p2_vo'
I0
tp327
a(S'w'
I1472
tp328
a(S'p2_vo'
I12
tp329
a(S'w'
I1463
tp330
a(S'p2_vo'
I8
tp331
a(S'w'
I1463
tp332
a(S'p2_tl'
I113
tp333
a(S'p2_ll'
I0
tp334
a(S'w'
I3
tp335
a(S'p2_vo'
I0
tp336
a(S'w'
I1473
tp337
a(S'p2_vo'
I12
tp338
a(S'w'
I1449
tp339
a(S'p1_vo'
I13
tp340
a(S'w'
I14
tp341
a(S'p2_vo'
I8
tp342
a(S'w'
I1462
tp343
a(S'p2_tl'
I170
tp344
a(S'p2_ll'
I0
tp345
a(S'w'
I4
tp346
a(S'p2_vo'
I0
tp347
a(S'w'
I1473
tp348
a(S'p2_vo'
I12
tp349
a(S'w'
I1462
tp350
a(S'p2_vo'
I8
tp351
a(S'w'
I1462
tp352
a(S'p2_tl'
I151
tp353
a(S'p2_ll'
I0
tp354
a(S'w'
I4
tp355
a(S'p2_vo'
I0
tp356
a(S'w'
I1474
tp357
a(S'p2_vo'
I12
tp358
a(S'w'
I1448
tp359
a(S'p1_vo'
I12
tp360
a(S'w'
I13
tp361
a(S'p2_vo'
I8
tp362
a(S'w'
I1469
tp363
a(S'p2_tl'
I226
tp364
a(S'p2_ll'
I0
tp365
a(S'w'
I3
tp366
a(S'p2_vo'
I0
tp367
a(S'w'
I1467
tp368
a(S'p2_vo'
I12
tp369
a(S'w'
I1463
tp370
a(S'p2_vo'
I8
tp371
a(S'w'
I1463
tp372
a(S'p2_tl'
I170
tp373
a(S'p2_ll'
I0
tp374
a(S'w'
I3
tp375
a(S'p2_vo'
I0
tp376
a(S'w'
I1473
tp377
a(S'p2_vo'
I12
tp378
a(S'w'
I1449
tp379
a(S'p1_vo'
I11
tp380
a(S'w'
I14
tp381
a(S'p2_vo'
I8
tp382
a(S'w'
I1462
tp383
a(S'p2_tl'
I151
tp384
a(S'p2_ll'
I0
tp385
a(S'w'
I4
tp386
a(S'p2_vo'
I0
tp387
a(S'w'
I1454
tp388
a(S'p1_vo'
I10
tp389
a(S'w'
I18
tp390
a(S'p2_vo'
I12
tp391
a(S'w'
I1462
tp392
a(S'p2_vo'
I8
tp393
a(S'w'
I1454
tp394
a(S'p1_vo'
I9
tp395
a(S'w'
I9
tp396
a(S'p2_tl'
I113
tp397
a(S'p2_ll'
I0
tp398
a(S'w'
I4
tp399
a(S'p2_vo'
I0
tp400
a(S'w'
I1474
tp401
a(S'p2_vo'
I12
tp402
a(S'w'
I1447
tp403
a(S'p1_vo'
I8
tp404
a(S'w'
I13
tp405
a(S'p2_vo'
I8
tp406
a(S'w'
I1464
tp407
a(S'p2_tl'
I170
tp408
a(S'p2_ll'
I0
tp409
a(S'w'
I3
tp410
a(S'p2_vo'
I0
tp411
a(S'w'
I1469
tp412
a(S'p2_vo'
I12
tp413
a(S'w'
I1460
tp414
a(S'p2_vo'
I8
tp415
a(S'w'
I1460
tp416
a(S'p1_tl'
I135
tp417
a(S'p1_ll'
I0
tp418
a(S'w'
I8
tp419
a(S'p1_vo'
I15
tp420
a(S'w'
I9
tp421
a(S'p2_tl'
I151
tp422
a(S'p2_ll'
I0
tp423
a(S'w'
I3
tp424
a(S'p2_vo'
I0
tp425
a(S'w'
I1457
tp426
a(S'p1_vo'
I13
tp427
a(S'w'
I19
tp428
a(S'p2_vo'
I12
tp429
a(S'w'
I1445
tp430
a(S'p1_vo'
I12
tp431
a(S'w'
I13
tp432
a(S'p2_vo'
I8
tp433
a(S'w'
I1448
tp434
a(S'p1_tl'
I85
tp435
a(S'p1_ll'
I0
tp436
a(S'w'
I8
tp437
a(S'p1_vo'
I15
tp438
a(S'w'
I14
tp439
a(S'p2_tl'
I226
tp440
a(S'p2_ll'
I0
tp441
a(S'w'
I4
tp442
a(S'p2_vo'
I0
tp443
a(S'w'
I1475
tp444
a(S'p2_vo'
I12
tp445
a(S'w'
I1462
tp446
a(S'p2_vo'
I8
tp447
a(S'w'
I1462
tp448
a(S'p2_tl'
I170
tp449
a(S'p2_ll'
I0
tp450
a(S'w'
I4
tp451
a(S'p2_vo'
I0
tp452
a(S'w'
I1474
tp453
a(S'p2_vo'
I12
tp454
a(S'w'
I1448
tp455
a(S'p1_vo'
I14
tp456
a(S'w'
I13
tp457
a(S'p2_vo'
I8
tp458
a(S'w'
I1463
tp459
a(S'p2_tl'
I151
tp460
a(S'p2_ll'
I0
tp461
a(S'w'
I4
tp462
a(S'p2_vo'
I0
tp463
a(S'w'
I1472
tp464
a(S'p2_vo'
I12
tp465
a(S'w'
I1463
tp466
a(S'p2_vo'
I8
tp467
a(S'w'
I1463
tp468
a(S'p2_tl'
I113
tp469
a(S'w'
I1
tp470
a(S'p2_ll'
I0
tp471
a(S'w'
I3
tp472
a(S'p2_vo'
I0
tp473
a(S'w'
I1472
tp474
a(S'p2_vo'
I12
tp475
a(S'w'
I1463
tp476
a(S'p2_vo'
I8
tp477
a(S'w'
I1453
tp478
a(S'p1_vo'
I13
tp479
a(S'w'
I9
tp480
a(S'p2_tl'
I170
tp481
a(S'p2_ll'
I0
tp482
a(S'w'
I4
tp483
a(S'p2_vo'
I0
tp484
a(S'w'
I1474
tp485
a(S'p2_vo'
I12
tp486
a(S'w'
I1461
tp487
a(S'p2_vo'
I8
tp488
a(S'w'
I1463
tp489
a(S'p2_tl'
I151
tp490
a(S'p2_ll'
I0
tp491
a(S'w'
I4
tp492
a(S'p2_vo'
I0
tp493
a(S'w'
I1473
tp494
a(S'p2_vo'
I12
tp495
a(S'w'
I1462
tp496
a(S'p2_vo'
I8
tp497
a(S'w'
I1469
tp498
a(S'p2_tl'
I226
tp499
a(S'p2_ll'
I0
tp500
a(S'w'
I4
tp501
a(S'p2_vo'
I0
tp502
a(S'w'
I1448
tp503
a(S'p1_vo'
I12
tp504
a(S'w'
I18
tp505
a(S'p2_vo'
I12
tp506
a(S'w'
I1463
tp507
a(S'p2_vo'
I8
tp508
a(S'w'
I1462
tp509
a(S'p2_tl'
I170
tp510
a(S'w'
I1
tp511
a(S'p2_ll'
I0
tp512
a(S'w'
I3
tp513
a(S'p2_vo'
I0
tp514
a(S'w'
I1473
tp515
a(S'p2_vo'
I12
tp516
a(S'w'
I1462
tp517
a(S'p2_vo'
I8
tp518
a(S'w'
I1463
tp519
a(S'p2_tl'
I151
tp520
a(S'p2_ll'
I0
tp521
a(S'w'
I3
tp522
a(S'p2_vo'
I0
tp523
a(S'w'
I1455
tp524
a(S'p1_vo'
I11
tp525
a(S'w'
I19
tp526
a(S'p2_vo'
I12
tp527
a(S'w'
I1462
tp528
a(S'p2_vo'
I8
tp529
a(S'w'
I1463
tp530
a(S'p2_tl'
I113
tp531
a(S'p2_ll'
I0
tp532
a(S'w'
I4
tp533
a(S'p2_vo'
I0
tp534
a(S'w'
I1454
tp535
a(S'p1_vo'
I10
tp536
a(S'w'
I18
tp537
a(S'p2_vo'
I12
tp538
a(S'w'
I1462
tp539
a(S'p2_vo'
I8
tp540
a(S'w'
I1454
tp541
a(S'p1_vo'
I9
tp542
a(S'w'
I9
tp543
a(S'p2_tl'
I170
tp544
a(S'p2_ll'
I0
tp545
a(S'w'
I4
tp546
a(S'p2_vo'
I0
tp547
a(S'w'
I1473
tp548
a(S'p2_vo'
I12
tp549
a(S'w'
I1448
tp550
a(S'p1_vo'
I8
tp551
a(S'w'
I13
tp552
a(S'p2_vo'
I8
tp553
a(S'w'
I1464
tp554
a(S'p2_tl'
I151
tp555
a(S'p2_ll'
I0
tp556
a(S'w'
I3
tp557
a(S'p2_vo'
I0
tp558
a(S'w'
I1469
tp559
a(S'p2_vo'
I12
tp560
a(S'w'
I1460
tp561
a(S'p2_vo'
I8
tp562
a(S'w'
I727
tp563
a(S'tr_tl'
I83
tp564
a(S'tr_ll'
I0
tp565
a(S'w'
I732
tp566
a(S'p1_tl'
I95
tp567
a(S'p1_ll'
I0
tp568
a(S'w'
I8
tp569
a(S'p1_vo'
I15
tp570
a(S'w'
I18
tp571
a(S'p2_tl'
I190
tp572
a(S'w'
I1
tp573
a(S'p2_ll'
I0
tp574
a(S'w'
I3
tp575
a(S'p2_vo'
I0
tp576
a(S'w'
I1471
tp577
a(S'p2_vo'
I12
tp578
a(S'w'
I1462
tp579
a(S'p2_vo'
I8
tp580
a(S'w'
I1463
tp581
a(S'p2_tl'
I143
tp582
a(S'p2_ll'
I0
tp583
a(S'w'
I4
tp584
a(S'p2_vo'
I0
tp585
a(S'w'
I1473
tp586
a(S'p2_vo'
I12
tp587
a(S'w'
I1462
tp588
a(S'p2_vo'
I8
tp589
a(S'w'
I1463
tp590
a(S'p2_tl'
I127
tp591
a(S'p2_ll'
I0
tp592
a(S'w'
I4
tp593
a(S'p2_vo'
I0
tp594
a(S'w'
I1473
tp595
a(S'p2_vo'
I12
tp596
a(S'w'
I1449
tp597
a(S'p1_vo'
I14
tp598
a(S'w'
I13
tp599
a(S'p2_vo'
I8
tp600
a(S'w'
I1463
tp601
a(S'p2_tl'
I95
tp602
a(S'p2_ll'
I0
tp603
a(S'w'
I4
tp604
a(S'p2_vo'
I0
tp605
a(S'w'
I1473
tp606
a(S'p2_vo'
I12
tp607
a(S'w'
I1463
tp608
a(S'p2_vo'
I8
tp609
a(S'w'
I1461
tp610
a(S'p2_tl'
I143
tp611
a(S'w'
I1
tp612
a(S'p2_ll'
I0
tp613
a(S'w'
I3
tp614
a(S'p2_vo'
I0
tp615
a(S'w'
I1474
tp616
a(S'p2_vo'
I12
tp617
a(S'w'
I1462
tp618
a(S'p2_vo'
I8
tp619
a(S'w'
I1463
tp620
a(S'p2_tl'
I127
tp621
a(S'w'
I1
tp622
a(S'p2_ll'
I0
tp623
a(S'w'
I3
tp624
a(S'p2_vo'
I0
tp625
a(S'w'
I1473
tp626
a(S'p2_vo'
I12
tp627
a(S'w'
I1462
tp628
a(S'p2_vo'
I8
tp629
a(S'w'
I1469
tp630
a(S'p2_tl'
I190
tp631
a(S'p2_ll'
I0
tp632
a(S'w'
I4
tp633
a(S'p2_vo'
I0
tp634
a(S'w'
I1448
tp635
a(S'p1_vo'
I13
tp636
a(S'w'
I19
tp637
a(S'p2_vo'
I12
tp638
a(S'w'
I1463
tp639
a(S'p2_vo'
I8
tp640
a(S'w'
I1463
tp641
a(S'p2_tl'
I143
tp642
a(S'p2_ll'
I0
tp643
a(S'w'
I4
tp644
a(S'p2_vo'
I0
tp645
a(S'w'
I1473
tp646
a(S'p2_vo'
I12
tp647
a(S'w'
I1462
tp648
a(S'p2_vo'
I8
tp649
a(S'w'
I1462
tp650
a(S'p2_tl'
I127
tp651
a(S'p2_ll'
I0
tp652
a(S'w'
I4
tp653
a(S'p2_vo'
I0
tp654
a(S'w'
I1474
tp655
a(S'p2_vo'
I12
tp656
a(S'w'
I1462
tp657
a(S'p2_vo'
I8
tp658
a(S'w'
I1462
tp659
a(S'p2_tl'
I95
tp660
a(S'p2_ll'
I0
tp661
a(S'w'
I4
tp662
a(S'p2_vo'
I0
tp663
a(S'w'
I1474
tp664
a(S'p2_vo'
I12
tp665
a(S'w'
I1462
tp666
a(S'p2_vo'
I8
tp667
a(S'w'
I1463
tp668
a(S'p2_tl'
I143
tp669
a(S'p2_ll'
I0
tp670
a(S'w'
I4
tp671
a(S'p2_vo'
I0
tp672
a(S'w'
I1454
tp673
a(S'p1_vo'
I12
tp674
a(S'w'
I18
tp675
a(S'p2_vo'
I12
tp676
a(S'w'
I1463
tp677
a(S'p2_vo'
I8
tp678
a(S'w'
I1463
tp679
a(S'p2_tl'
I127
tp680
a(S'p2_ll'
I0
tp681
a(S'w'
I4
tp682
a(S'p2_vo'
I0
tp683
a(S'w'
I1472
tp684
a(S'p2_vo'
I12
tp685
a(S'w'
I1463
tp686
a(S'p2_vo'
I8
tp687
a(S'w'
I1468
tp688
a(S'p2_tl'
I190
tp689
a(S'p2_ll'
I0
tp690
a(S'w'
I4
tp691
a(S'p2_vo'
I0
tp692
a(S'w'
I1468
tp693
a(S'p2_vo'
I12
tp694
a(S'w'
I1461
tp695
a(S'p2_vo'
I8
tp696
a(S'w'
I1464
tp697
a(S'p2_tl'
I143
tp698
a(S'p2_ll'
I0
tp699
a(S'w'
I3
tp700
a(S'p2_vo'
I0
tp701
a(S'w'
I1474
tp702
a(S'p2_vo'
I12
tp703
a(S'w'
I1462
tp704
a(S'p2_vo'
I8
tp705
a(S'w'
I1454
tp706
a(S'p1_vo'
I11
tp707
a(S'w'
I9
tp708
a(S'p2_tl'
I127
tp709
a(S'p2_ll'
I0
tp710
a(S'w'
I4
tp711
a(S'p2_vo'
I0
tp712
a(S'w'
I1473
tp713
a(S'p2_vo'
I12
tp714
a(S'w'
I1463
tp715
a(S'p2_vo'
I8
tp716
a(S'w'
I1463
tp717
a(S'p2_tl'
I95
tp718
a(S'p2_ll'
I0
tp719
a(S'w'
I4
tp720
a(S'p2_vo'
I0
tp721
a(S'w'
I1453
tp722
a(S'p1_vo'
I10
tp723
a(S'w'
I18
tp724
a(S'p2_vo'
I12
tp725
a(S'w'
I1463
tp726
a(S'p2_vo'
I8
tp727
a(S'w'
I1463
tp728
a(S'p2_tl'
I143
tp729
a(S'p2_ll'
I0
tp730
a(S'w'
I3
tp731
a(S'p2_vo'
I0
tp732
a(S'w'
I1455
tp733
a(S'p1_vo'
I9
tp734
a(S'w'
I19
tp735
a(S'p2_vo'
I12
tp736
a(S'w'
I1462
tp737
a(S'p2_vo'
I8
tp738
a(S'w'
I1463
tp739
a(S'p2_tl'
I127
tp740
a(S'p2_ll'
I0
tp741
a(S'w'
I4
tp742
a(S'p2_vo'
I0
tp743
a(S'w'
I1474
tp744
a(S'p2_vo'
I12
tp745
a(S'w'
I1447
tp746
a(S'p1_vo'
I8
tp747
a(S'w'
I13
tp748
a(S'p2_vo'
I8
tp749
a(S'w'
I1469
tp750
a(S'p2_tl'
I190
tp751
a(S'p2_ll'
I0
tp752
a(S'w'
I4
tp753
a(S'p2_vo'
I0
tp754
a(S'w'
I1467
tp755
a(S'p2_vo'
I12
tp756
a(S'w'
I1463
tp757
a(S'p2_vo'
I8
tp758
a(S'w'
I1459
tp759
a(S'p2_tl'
I143
tp760
a(S'p2_ll'
I0
tp761
a(S'w'
I4
tp762
a(S'p2_vo'
I0
tp763
a(S'w'
I1470
tp764
a(S'p2_vo'
I12
tp765
a(S'w'
I1463
tp766
a(S'p2_vo'
I8
tp767
a(S'w'
I1459
tp768
a(S'p1_tl'
I143
tp769
a(S'p1_ll'
I0
tp770
a(S'w'
I8
tp771
a(S'p1_vo'
I15
tp772
a(S'w'
I9
tp773
a(S'p2_tl'
I127
tp774
a(S'p2_ll'
I0
tp775
a(S'w'
I3
tp776
a(S'p2_vo'
I0
tp777
a(S'w'
I1480
tp778
a(S'p2_vo'
I12
tp779
a(S'w'
I1447
tp780
a(S'p1_vo'
I14
tp781
a(S'w'
I13
tp782
a(S'p2_vo'
I8
tp783
a(S'w'
I1453
tp784
a(S'p1_vo'
I13
tp785
a(S'w'
I9
tp786
a(S'p2_tl'
I95
tp787
a(S'p2_ll'
I0
tp788
a(S'w'
I4
tp789
a(S'p2_vo'
I0
tp790
a(S'w'
I1472
tp791
a(S'p2_vo'
I12
tp792
a(S'w'
I1448
tp793
a(S'p1_vo'
I12
tp794
a(S'w'
I13
tp795
a(S'p2_vo'
I8
tp796
a(S'w'
I1462
tp797
a(S'p2_tl'
I143
tp798
a(S'p2_ll'
I0
tp799
a(S'w'
I3
tp800
a(S'p2_vo'
I0
tp801
a(S'w'
I1453
tp802
a(S'p1_vo'
I10
tp803
a(S'w'
I18
tp804
a(S'p2_vo'
I12
tp805
a(S'w'
I1448
tp806
a(S'p1_vo'
I8
tp807
a(S'w'
I13
tp808
a(S'p2_vo'
I8
tp809
a(S'w'
I1453
tp810
a(S'p1_tl'
I113
tp811
a(S'p1_ll'
I0
tp812
a(S'w'
I8
tp813
a(S'p1_vo'
I15
tp814
a(S'w'
I9
tp815
a(S'p2_tl'
I127
tp816
a(S'p2_ll'
I0
tp817
a(S'w'
I3
tp818
a(S'p2_vo'
I0
tp819
a(S'w'
I1457
tp820
a(S'p1_vo'
I13
tp821
a(S'w'
I19
tp822
a(S'p2_vo'
I12
tp823
a(S'w'
I1445
tp824
a(S'p1_vo'
I12
tp825
a(S'w'
I13
tp826
a(S'p2_vo'
I8
tp827
a(S'w'
I716
tp828
a(S'tr_tl'
I29
tp829
a(S'tr_ll'
I0
tp830
a(S'w'
I732
tp831
a(S'p1_tl'
I107
tp832
a(S'p1_ll'
I0
tp833
a(S'w'
I8
tp834
a(S'p1_vo'
I15
tp835
a(S'w'
I18
tp836
a(S'p2_tl'
I64
tp837
a(S'w'
I1
tp838
a(S'p2_ll'
I0
tp839
a(S'p2_th'
I1
tp840
a(S'w'
I3
tp841
a(S'p2_vo'
I0
tp842
a(S'w'
I1471
tp843
a(S'p2_vo'
I12
tp844
a(S'w'
I1461
tp845
a(S'p2_vo'
I8
tp846
a(S'w'
I1463
tp847
a(S'p2_tl'
I240
tp848
a(S'p2_ll'
I0
tp849
a(S'p2_th'
I0
tp850
a(S'w'
I4
tp851
a(S'p2_vo'
I0
tp852
a(S'w'
I1455
tp853
a(S'p1_vo'
I14
tp854
a(S'w'
I18
tp855
a(S'p2_vo'
I12
tp856
a(S'w'
I1461
tp857
a(S'p2_vo'
I8
tp858
a(S'w'
I1463
tp859
a(S'p2_tl'
I214
tp860
a(S'w'
I1
tp861
a(S'p2_ll'
I0
tp862
a(S'w'
I3
tp863
a(S'p2_vo'
I0
tp864
a(S'w'
I1472
tp865
a(S'p2_vo'
I12
tp866
a(S'w'
I1449
tp867
a(S'p1_vo'
I13
tp868
a(S'w'
I14
tp869
a(S'p2_vo'
I8
tp870
a(S'w'
I1463
tp871
a(S'p2_tl'
I160
tp872
a(S'p2_ll'
I0
tp873
a(S'w'
I4
tp874
a(S'p2_vo'
I0
tp875
a(S'w'
I1472
tp876
a(S'p2_vo'
I12
tp877
a(S'w'
I1462
tp878
a(S'p2_vo'
I8
tp879
a(S'w'
I1462
tp880
a(S'p2_tl'
I240
tp881
a(S'p2_ll'
I0
tp882
a(S'w'
I4
tp883
a(S'p2_vo'
I0
tp884
a(S'w'
I1455
tp885
a(S'p1_vo'
I12
tp886
a(S'w'
I18
tp887
a(S'p2_vo'
I12
tp888
a(S'w'
I1461
tp889
a(S'p2_vo'
I8
tp890
a(S'w'
I1464
tp891
a(S'p2_tl'
I214
tp892
a(S'p2_ll'
I0
tp893
a(S'w'
I3
tp894
a(S'p2_vo'
I0
tp895
a(S'w'
I1473
tp896
a(S'p2_vo'
I12
tp897
a(S'w'
I1448
tp898
a(S'p1_vo'
I11
tp899
a(S'w'
I14
tp900
a(S'p2_vo'
I8
tp901
a(S'w'
I1468
tp902
a(S'p2_tl'
I64
tp903
a(S'p2_ll'
I0
tp904
a(S'p2_th'
I1
tp905
a(S'w'
I4
tp906
a(S'p2_vo'
I0
tp907
a(S'w'
I1448
tp908
a(S'p1_vo'
I10
tp909
a(S'w'
I18
tp910
a(S'p2_vo'
I12
tp911
a(S'w'
I1449
tp912
a(S'p1_vo'
I9
tp913
a(S'w'
I14
tp914
a(S'p2_vo'
I8
tp915
a(S'w'
I1463
tp916
a(S'p2_tl'
I240
tp917
a(S'p2_ll'
I0
tp918
a(S'p2_th'
I0
tp919
a(S'w'
I4
tp920
a(S'p2_vo'
I0
tp921
a(S'w'
I1453
tp922
a(S'p1_vo'
I8
tp923
a(S'w'
I18
tp924
a(S'p2_vo'
I12
tp925
a(S'w'
I1459
tp926
a(S'p2_vo'
I8
tp927
a(S'w'
I1456
tp928
a(S'p1_ll'
I0
tp929
a(S'w'
I8
tp930
a(S'p1_vo'
I15
tp931
a(S'w'
I9
tp932
a(S'p2_tl'
I214
tp933
a(S'p2_ll'
I0
tp934
a(S'w'
I3
tp935
a(S'p2_vo'
I0
tp936
a(S'w'
I1480
tp937
a(S'p2_vo'
I12
tp938
a(S'w'
I1447
tp939
a(S'p1_vo'
I14
tp940
a(S'w'
I13
tp941
a(S'p2_vo'
I8
tp942
a(S'w'
I1453
tp943
a(S'p1_vo'
I13
tp944
a(S'w'
I9
tp945
a(S'p2_tl'
I160
tp946
a(S'p2_ll'
I0
tp947
a(S'w'
I4
tp948
a(S'p2_vo'
I0
tp949
a(S'w'
I1472
tp950
a(S'p2_vo'
I12
tp951
a(S'w'
I1448
tp952
a(S'p1_vo'
I12
tp953
a(S'w'
I13
tp954
a(S'p2_vo'
I8
tp955
a(S'w'
I1462
tp956
a(S'p2_tl'
I240
tp957
a(S'p2_ll'
I0
tp958
a(S'w'
I3
tp959
a(S'p2_vo'
I0
tp960
a(S'w'
I1453
tp961
a(S'p1_vo'
I10
tp962
a(S'w'
I18
tp963
a(S'p2_vo'
I12
tp964
a(S'w'
I1448
tp965
a(S'p1_vo'
I8
tp966
a(S'w'
I13
tp967
a(S'p2_vo'
I8
tp968
a(S'w'
I1453
tp969
a(S'p1_tl'
I120
tp970
a(S'p1_ll'
I0
tp971
a(S'w'
I8
tp972
a(S'p1_vo'
I15
tp973
a(S'w'
I9
tp974
a(S'p2_tl'
I214
tp975
a(S'p2_ll'
I0
tp976
a(S'w'
I3
tp977
a(S'p2_vo'
I0
tp978
a(S'w'
I1457
tp979
a(S'p1_vo'
I13
tp980
a(S'w'
I19
tp981
a(S'p2_vo'
I12
tp982
a(S'w'
I1445
tp983
a(S'p1_vo'
I12
tp984
a(S'w'
I13
tp985
a(S'p2_vo'
I8
tp986
a(S'w'
I1448
tp987
a(S'p1_tl'
I80
tp988
a(S'p1_ll'
I0
tp989
a(S'w'
I8
tp990
a(S'p1_vo'
I15
tp991
a(S'w'
I14
tp992
a(S'p2_tl'
I64
tp993
a(S'p2_ll'
I0
tp994
a(S'p2_th'
I1
tp995
a(S'w'
I4
tp996
a(S'p2_vo'
I0
tp997
a(S'w'
I1475
tp998
a(S'p2_vo'
I12
tp999
a(S'w'
I1462
tp1000
a(S'p2_vo'
I8
tp1001
a(S'w'
I1462
tp1002
a(S'p2_tl'
I240
tp1003
a(S'p2_ll'
I0
tp1004
a(S'p2_th'
I0
tp1005
a(S'w'
I4
tp1006
a(S'p2_vo'
I0
tp1007
a(S'w'
I1474
tp1008
a(S'p2_vo'
I12
tp1009
a(S'w'
I1448
tp1010
a(S'p1_vo'
I14
tp1011
a(S'w'
I13
tp1012
a(S'p2_vo'
I8
tp1013
a(S'w'
I1463
tp1014
a(S'p2_tl'
I214
tp1015
a(S'p2_ll'
I0
tp1016
a(S'w'
I4
tp1017
a(S'p2_vo'
I0
tp1018
a(S'w'
I1472
tp1019
a(S'p2_vo'
I12
tp1020
a(S'w'
I1463
tp1021
a(S'p2_vo'
I8
tp1022
a(S'w'
I1463
tp1023
a(S'p2_tl'
I160
tp1024
a(S'w'
I1
tp1025
a(S'p2_ll'
I0
tp1026
a(S'w'
I3
tp1027
a(S'p2_vo'
I0
tp1028
a(S'w'
I1472
tp1029
a(S'p2_vo'
I12
tp1030
a(S'w'
I1463
tp1031
a(S'p2_vo'
I8
tp1032
a(S'w'
I1453
tp1033
a(S'p1_vo'
I13
tp1034
a(S'w'
I9
tp1035
a(S'p2_tl'
I240
tp1036
a(S'p2_ll'
I0
tp1037
a(S'w'
I4
tp1038
a(S'p2_vo'
I0
tp1039
a(S'w'
I1474
tp1040
a(S'p2_vo'
I12
tp1041
a(S'w'
I1461
tp1042
a(S'p2_vo'
I8
tp1043
a(S'w'
I1463
tp1044
a(S'p2_tl'
I214
tp1045
a(S'p2_ll'
I0
tp1046
a(S'w'
I4
tp1047
a(S'p2_vo'
I0
tp1048
a(S'w'
I1473
tp1049
a(S'p2_vo'
I12
tp1050
a(S'w'
I1462
tp1051
a(S'p2_vo'
I8
tp1052
a(S'w'
I1469
tp1053
a(S'p2_tl'
I64
tp1054
a(S'p2_ll'
I0
tp1055
a(S'p2_th'
I1
tp1056
a(S'w'
I4
tp1057
a(S'p2_vo'
I0
tp1058
a(S'w'
I1448
tp1059
a(S'p1_vo'
I12
tp1060
a(S'w'
I18
tp1061
a(S'p2_vo'
I12
tp1062
a(S'w'
I1463
tp1063
a(S'p2_vo'
I8
tp1064
a(S'w'
I1462
tp1065
a(S'p2_tl'
I240
tp1066
a(S'w'
I1
tp1067
a(S'p2_ll'
I0
tp1068
a(S'p2_th'
I0
tp1069
a(S'w'
I3
tp1070
a(S'p2_vo'
I0
tp1071
a(S'w'
I1473
tp1072
a(S'p2_vo'
I12
tp1073
a(S'w'
I1462
tp1074
a(S'p2_vo'
I8
tp1075
a(S'w'
I1463
tp1076
a(S'p2_tl'
I214
tp1077
a(S'p2_ll'
I0
tp1078
a(S'w'
I3
tp1079
a(S'p2_vo'
I0
tp1080
a(S'w'
I1455
tp1081
a(S'p1_vo'
I11
tp1082
a(S'w'
I19
tp1083
a(S'p2_vo'
I12
tp1084
a(S'w'
I1462
tp1085
a(S'p2_vo'
I8
tp1086
a(S'w'
I1463
tp1087
a(S'p2_tl'
I160
tp1088
a(S'p2_ll'
I0
tp1089
a(S'w'
I4
tp1090
a(S'p2_vo'
I0
tp1091
a(S'w'
I1454
tp1092
a(S'p1_vo'
I10
tp1093
a(S'w'
I18
tp1094
a(S'p2_vo'
I12
tp1095
a(S'w'
I1462
tp1096
a(S'p2_vo'
I8
tp1097
a(S'w'
I1454
tp1098
a(S'p1_vo'
I9
tp1099
a(S'w'
I9
tp1100
a(S'p2_tl'
I240
tp1101
a(S'p2_ll'
I0
tp1102
a(S'w'
I4
tp1103
a(S'p2_vo'
I0
tp1104
a(S'w'
I1473
tp1105
a(S'p2_vo'
I12
tp1106
a(S'w'
I1448
tp1107
a(S'p1_vo'
I8
tp1108
a(S'w'
I13
tp1109
a(S'p2_vo'
I8
tp1110
a(S'w'
I1464
tp1111
a(S'p2_tl'
I214
tp1112
a(S'p2_ll'
I0
tp1113
a(S'w'
I3
tp1114
a(S'p2_vo'
I0
tp1115
a(S'w'
I1469
tp1116
a(S'p2_vo'
I12
tp1117
a(S'w'
I1460
tp1118
a(S'p2_vo'
I8
tp1119
a(S'w'
I731
tp1120
a(S'tr_tl'
I197
tp1121
a(S'tr_ll'
I0
tp1122
a(S'w'
I733
tp1123
a(S'p1_tl'
I85
tp1124
a(S'p1_ll'
I0
tp1125
a(S'w'
I8
tp1126
a(S'p1_vo'
I15
tp1127
a(S'w'
I24
tp1128
a(S'p2_tl'
I254
tp1129
a(S'p2_ll'
I0
tp1130
a(S'w'
I3
tp1131
a(S'p2_vo'
I0
tp1132
a(S'w'
I1461
tp1133
a(S'p2_vo'
I12
tp1134
a(S'w'
I1462
tp1135
a(S'p2_vo'
I8
tp1136
a(S'w'
I1463
tp1137
a(S'p2_tl'
I190
tp1138
a(S'p2_ll'
I0
tp1139
a(S'w'
I4
tp1140
a(S'p2_vo'
I0
tp1141
a(S'w'
I1473
tp1142
a(S'p2_vo'
I12
tp1143
a(S'w'
I1462
tp1144
a(S'p2_vo'
I8
tp1145
a(S'w'
I1463
tp1146
a(S'p2_tl'
I170
tp1147
a(S'p2_ll'
I0
tp1148
a(S'w'
I4
tp1149
a(S'p2_vo'
I0
tp1150
a(S'w'
I1455
tp1151
a.