(lp1
(S'clock'
p2
I1789773
tp3
a(S'fc_mo'
I1
tp4
a(S'ch_no'
I0
tp5
a(S'ch_tr'
I0
tp6
a(S'ch_p2'
I0
tp7
a(S'ch_p1'
I0
tp8
a(S'no_ll'
I0
tp9
a(S'tr_ll'
I0
tp10
a(S'p2_ll'
I0
tp11
a(S'p1_ll'
I0
tp12
a(S'w'
I2
tp13
a(S'ch_no'
I1
tp14
a(S'ch_tr'
I1
tp15
a(S'ch_p2'
I1
tp16
a(S'ch_p1'
I1
tp17
a(S'w'
I18
tp18
a(S'p2_tl'
I212
tp19
a(S'w'
I1
tp20
a(S'p2_ll'
I1
tp21
a(S'w'
I1
tp22
a(S'p2_tl'
I210
tp23
a(S'w'
I1
tp24
a(S'p2_du'
I2
tp25
a(S'p2_cv'
I1
tp26
a(S'p2_vo'
I8
tp27
a(S'w'
I1
tp28
a(S'p2_sp'
I7
tp29
a(S'p2_sn'
I1
tp30
a(S'p2_ss'
I7
tp31
a(S'w'
I2
tp32
a(S'p1_tl'
I82
tp33
a(S'w'
I1
tp34
a(S'p1_ll'
I1
tp35
a(S'p1_th'
I1
tp36
a(S'w'
I2
tp37
a(S'p1_tl'
I80
tp38
a(S'w'
I1
tp39
a(S'p1_du'
I2
tp40
a(S'p1_cv'
I1
tp41
a(S'p1_vo'
I8
tp42
a(S'p1_sp'
I7
tp43
a(S'p1_sn'
I1
tp44
a(S'p1_ss'
I7
tp45
a(S'w'
I2
tp46
a(S'tr_lr'
I31
tp47
a(S'w'
I1
tp48
a(S'tr_tl'
I82
tp49
a(S'w'
I1
tp50
a(S'tr_ll'
I1
tp51
a(S'tr_th'
I1
tp52
a(S'w'
I715
tp53
a(S'p2_tl'
I214
tp54
a(S'w'
I3
tp55
a(S'p1_tl'
I84
tp56
a(S'w'
I731
tp57
a(S'w'
I3
tp58
a(S'w'
I731
tp59
a(S'w'
I3
tp60
a(S'w'
I731
tp61
a(S'w'
I1
tp62
a(S'p2_vo'
I7
tp63
a(S'w'
I2
tp64
a(S'w'
I1
tp65
a(S'p1_vo'
I7
tp66
a(S'w'
I729
tp67
a(S'p2_tl'
I210
tp68
a(S'w'
I3
tp69
a(S'p1_tl'
I80
tp70
a(S'w'
I731
tp71
a(S'w'
I3
tp72
a(S'w'
I731
tp73
a(S'w'
I3
tp74
a(S'w'
I731
tp75
a(S'w'
I3
tp76
a(S'w'
I4
tp77
a(S'tr_tl'
I28
tp78
a(S'tr_ll'
I1
tp79
a(S'w'
I727
tp80
a(S'p2_tl'
I214
tp81
a(S'w'
I3
tp82
a(S'p1_tl'
I84
tp83
a(S'w'
I730
tp84
a(S'w'
I1
tp85
a(S'p2_vo'
I6
tp86
a(S'w'
I2
tp87
a(S'w'
I1
tp88
a(S'p1_vo'
I6
tp89
a(S'w'
I730
tp90
a(S'w'
I3
tp91
a(S'w'
I731
tp92
a(S'w'
I3
tp93
a(S'w'
I731
tp94
a(S'p2_tl'
I210
tp95
a(S'w'
I3
tp96
a(S'p1_tl'
I80
tp97
a(S'w'
I731
tp98
a(S'w'
I3
tp99
a(S'w'
I730
tp100
a(S'w'
I3
tp101
a(S'w'
I731
tp102
a(S'w'
I1
tp103
a(S'p2_vo'
I5
tp104
a(S'w'
I2
tp105
a(S'w'
I1
tp106
a(S'p1_vo'
I5
tp107
a(S'w'
I3
tp108
a(S'tr_tl'
I171
tp109
a(S'tr_ll'
I1
tp110
a(S'w'
I727
tp111
a(S'p2_tl'
I214
tp112
a(S'w'
I3
tp113
a(S'p1_tl'
I84
tp114
a(S'w'
I731
tp115
a(S'w'
I3
tp116
a(S'w'
I731
tp117
a(S'w'
I3
tp118
a(S'w'
I730
tp119
a(S'w'
I3
tp120
a(S'w'
I731
tp121
a(S'p2_tl'
I210
tp122
a(S'w'
I3
tp123
a(S'p1_tl'
I80
tp124
a(S'w'
I731
tp125
a(S'w'
I1
tp126
a(S'p2_vo'
I4
tp127
a(S'w'
I2
tp128
a(S'w'
I1
tp129
a(S'p1_vo'
I4
tp130
a(S'w'
I730
tp131
a(S'w'
I3
tp132
a(S'w'
I733
tp133
a(S'p2_tl'
I214
tp134
a(S'w'
I5
tp135
a(S'p1_tl'
I84
tp136
a(S'w'
I4
tp137
a(S'tr_tl'
I28
tp138
a(S'w'
I1
tp139
a(S'tr_ll'
I1
tp140
a(S'w'
I721
tp141
a(S'p2_tl'
I210
tp142
a(S'w'
I3
tp143
a(S'p1_tl'
I80
tp144
a(S'w'
I731
tp145
a(S'w'
I3
tp146
a(S'w'
I731
tp147
a(S'w'
I3
tp148
a(S'w'
I731
tp149
a(S'w'
I1
tp150
a(S'p2_vo'
I3
tp151
a(S'w'
I2
tp152
a(S'w'
I1
tp153
a(S'p1_vo'
I3
tp154
a(S'w'
I729
tp155
a(S'p2_tl'
I214
tp156
a(S'w'
I3
tp157
a(S'p1_tl'
I84
tp158
a(S'w'
I731
tp159
a(S'w'
I3
tp160
a(S'w'
I731
tp161
a(S'w'
I3
tp162
a(S'w'
I731
tp163
a(S'w'
I3
tp164
a(S'w'
I4
tp165
a(S'tr_tl'
I212
tp166
a(S'tr_ll'
I1
tp167
a(S'tr_th'
I0
tp168
a(S'w'
I727
tp169
a(S'p2_tl'
I210
tp170
a(S'w'
I3
tp171
a(S'p1_tl'
I80
tp172
a(S'w'
I730
tp173
a(S'w'
I1
tp174
a(S'p2_vo'
I2
tp175
a(S'w'
I2
tp176
a(S'w'
I1
tp177
a(S'p1_vo'
I2
tp178
a(S'w'
I730
tp179
a(S'w'
I3
tp180
a(S'w'
I732
tp181
a(S'p2_tl'
I212
tp182
a(S'p2_ll'
I1
tp183
a(S'w'
I2
tp184
a(S'p2_tl'
I214
tp185
a(S'w'
I1
tp186
a(S'p2_vo'
I8
tp187
a(S'w'
I3
tp188
a(S'p1_tl'
I82
tp189
a(S'w'
I1
tp190
a(S'p1_ll'
I1
tp191
a(S'w'
I1
tp192
a(S'p1_tl'
I84
tp193
a(S'w'
I1
tp194
a(S'p1_vo'
I8
tp195
a(S'w'
I724
tp196
a(S'w'
I3
tp197
a(S'w'
I731
tp198
a(S'w'
I3
tp199
a(S'w'
I730
tp200
a(S'p2_tl'
I210
tp201
a(S'w'
I3
tp202
a(S'p1_tl'
I80
tp203
a(S'w'
I731
tp204
a(S'w'
I1
tp205
a(S'p2_vo'
I7
tp206
a(S'w'
I2
tp207
a(S'w'
I1
tp208
a(S'p1_vo'
I7
tp209
a(S'w'
I3
tp210
a(S'tr_tl'
I82
tp211
a(S'tr_ll'
I1
tp212
a(S'tr_th'
I1
tp213
a(S'w'
I727
tp214
a(S'w'
I3
tp215
a(S'w'
I732
tp216
a(S'p2_tl'
I212
tp217
a(S'p2_ll'
I1
tp218
a(S'w'
I2
tp219
a(S'p2_tl'
I214
tp220
a(S'w'
I1
tp221
a(S'p2_vo'
I8
tp222
a(S'w'
I3
tp223
a(S'p1_tl'
I82
tp224
a(S'w'
I1
tp225
a(S'p1_ll'
I1
tp226
a(S'w'
I1
tp227
a(S'p1_tl'
I84
tp228
a(S'w'
I1
tp229
a(S'p1_vo'
I8
tp230
a(S'w'
I724
tp231
a(S'w'
I3
tp232
a(S'w'
I730
tp233
a(S'w'
I3
tp234
a(S'w'
I731
tp235
a(S'p2_tl'
I210
tp236
a(S'w'
I3
tp237
a(S'p1_tl'
I80
tp238
a(S'w'
I731
tp239
a(S'w'
I1
tp240
a(S'p2_vo'
I7
tp241
a(S'w'
I2
tp242
a(S'w'
I1
tp243
a(S'p1_vo'
I7
tp244
a(S'w'
I730
tp245
a(S'w'
I3
tp246
a(S'w'
I732
tp247
a(S'p2_tl'
I178
tp248
a(S'p2_ll'
I1
tp249
a(S'w'
I2
tp250
a(S'p2_tl'
I176
tp251
a(S'w'
I1
tp252
a(S'p2_vo'
I8
tp253
a(S'w'
I3
tp254
a(S'p1_tl'
I212
tp255
a(S'w'
I1
tp256
a(S'p1_ll'
I1
tp257
a(S'p1_th'
I0
tp258
a(S'w'
I1
tp259
a(S'p1_tl'
I210
tp260
a(S'w'
I1
tp261
a(S'p1_vo'
I8
tp262
a(S'w'
I4
tp263
a(S'tr_tl'
I12
tp264
a(S'tr_ll'
I1
tp265
a(S'w'
I719
tp266
a(S'p2_tl'
I180
tp267
a(S'w'
I3
tp268
a(S'p1_tl'
I214
tp269
a(S'w'
I731
tp270
a(S'w'
I3
tp271
a(S'w'
I731
tp272
a(S'w'
I3
tp273
a(S'w'
I731
tp274
a(S'w'
I1
tp275
a(S'p2_vo'
I7
tp276
a(S'w'
I2
tp277
a(S'w'
I1
tp278
a(S'p1_vo'
I7
tp279
a(S'w'
I729
tp280
a(S'p2_tl'
I176
tp281
a(S'w'
I3
tp282
a(S'p1_tl'
I210
tp283
a(S'w'
I731
tp284
a(S'w'
I3
tp285
a(S'w'
I731
tp286
a(S'w'
I3
tp287
a(S'w'
I732
tp288
a(S'p2_tl'
I189
tp289
a(S'p2_ll'
I1
tp290
a(S'w'
I2
tp291
a(S'p2_tl'
I187
tp292
a(S'w'
I1
tp293
a(S'p2_vo'
I8
tp294
a(S'w'
I3
tp295
a(S'p1_tl'
I238
tp296
a(S'w'
I1
tp297
a(S'p1_ll'
I1
tp298
a(S'w'
I1
tp299
a(S'p1_tl'
I236
tp300
a(S'w'
I1
tp301
a(S'p1_vo'
I8
tp302
a(S'w'
I4
tp303
a(S'tr_tl'
I178
tp304
a(S'tr_ll'
I1
tp305
a(S'tr_th'
I0
tp306
a(S'w'
I720
tp307
a(S'p2_tl'
I191
tp308
a(S'w'
I3
tp309
a(S'p1_tl'
I240
tp310
a(S'w'
I730
tp311
a(S'w'
I3
tp312
a(S'w'
I731
tp313
a(S'w'
I3
tp314
a(S'w'
I731
tp315
a(S'w'
I1
tp316
a(S'p2_vo'
I7
tp317
a(S'w'
I2
tp318
a(S'w'
I1
tp319
a(S'p1_vo'
I7
tp320
a(S'w'
I730
tp321
a(S'p2_tl'
I187
tp322
a(S'w'
I3
tp323
a(S'p1_tl'
I236
tp324
a(S'w'
I731
tp325
a(S'w'
I3
tp326
a(S'w'
I730
tp327
a(S'w'
I3
tp328
a(S'w'
I732
tp329
a(S'p2_tl'
I212
tp330
a(S'p2_ll'
I1
tp331
a(S'w'
I2
tp332
a(S'p2_tl'
I210
tp333
a(S'w'
I1
tp334
a(S'p2_vo'
I8
tp335
a(S'w'
I3
tp336
a(S'p1_tl'
I12
tp337
a(S'w'
I1
tp338
a(S'p1_ll'
I1
tp339
a(S'p1_th'
I1
tp340
a(S'w'
I1
tp341
a(S'p1_tl'
I10
tp342
a(S'w'
I1
tp343
a(S'p1_vo'
I8
tp344
a(S'w'
I4
tp345
a(S'tr_tl'
I212
tp346
a(S'tr_ll'
I1
tp347
a(S'w'
I720
tp348
a(S'p2_tl'
I214
tp349
a(S'w'
I3
tp350
a(S'p1_tl'
I14
tp351
a(S'w'
I731
tp352
a(S'w'
I3
tp353
a(S'w'
I731
tp354
a(S'w'
I3
tp355
a(S'w'
I730
tp356
a(S'w'
I1
tp357
a(S'p2_vo'
I7
tp358
a(S'w'
I2
tp359
a(S'w'
I1
tp360
a(S'p1_vo'
I7
tp361
a(S'w'
I730
tp362
a(S'p2_tl'
I210
tp363
a(S'w'
I3
tp364
a(S'p1_tl'
I10
tp365
a(S'w'
I731
tp366
a(S'w'
I3
tp367
a(S'w'
I731
tp368
a(S'w'
I3
tp369
a(S'w'
I732
tp370
a(S'p2_tl'
I189
tp371
a(S'p2_ll'
I1
tp372
a(S'w'
I2
tp373
a(S'p2_tl'
I187
tp374
a(S'w'
I1
tp375
a(S'p2_vo'
I8
tp376
a(S'w'
I3
tp377
a(S'p1_tl'
I238
tp378
a(S'w'
I1
tp379
a(S'p1_ll'
I1
tp380
a(S'p1_th'
I0
tp381
a(S'w'
I1
tp382
a(S'p1_tl'
I236
tp383
a(S'w'
I1
tp384
a(S'p1_vo'
I8
tp385
a(S'w'
I4
tp386
a(S'tr_tl'
I63
tp387
a(S'tr_ll'
I1
tp388
a(S'tr_th'
I1
tp389
a(S'w'
I719
tp390
a(S'p2_tl'
I191
tp391
a(S'w'
I3
tp392
a(S'p1_tl'
I240
tp393
a(S'w'
I731
tp394
a(S'w'
I3
tp395
a(S'w'
I731
tp396
a(S'w'
I3
tp397
a(S'w'
I731
tp398
a(S'w'
I1
tp399
a(S'p2_vo'
I7
tp400
a(S'w'
I2
tp401
a(S'w'
I1
tp402
a(S'p1_vo'
I7
tp403
a(S'w'
I729
tp404
a(S'p2_tl'
I187
tp405
a(S'w'
I3
tp406
a(S'p1_tl'
I236
tp407
a(S'w'
I731
tp408
a(S'w'
I3
tp409
a(S'w'
I731
tp410
a(S'w'
I3
tp411
a(S'w'
I732
tp412
a(S'p2_tl'
I212
tp413
a(S'p2_ll'
I1
tp414
a(S'w'
I2
tp415
a(S'p2_tl'
I210
tp416
a(S'w'
I1
tp417
a(S'p2_vo'
I8
tp418
a(S'w'
I3
tp419
a(S'p1_tl'
I63
tp420
a(S'w'
I1
tp421
a(S'p1_ll'
I1
tp422
a(S'p1_th'
I1
tp423
a(S'w'
I1
tp424
a(S'p1_tl'
I61
tp425
a(S'w'
I1
tp426
a(S'p1_vo'
I8
tp427
a(S'w'
I4
tp428
a(S'tr_tl'
I189
tp429
a(S'tr_ll'
I1
tp430
a(S'tr_th'
I0
tp431
a(S'w'
I720
tp432
a(S'p2_tl'
I214
tp433
a(S'w'
I3
tp434
a(S'p1_tl'
I65
tp435
a(S'w'
I730
tp436
a(S'w'
I3
tp437
a(S'w'
I731
tp438
a(S'w'
I3
tp439
a(S'w'
I731
tp440
a(S'w'
I1
tp441
a(S'p2_vo'
I7
tp442
a(S'w'
I2
tp443
a(S'w'
I1
tp444
a(S'p1_vo'
I7
tp445
a(S'w'
I730
tp446
a(S'p2_tl'
I210
tp447
a(S'w'
I3
tp448
a(S'p1_tl'
I61
tp449
a(S'w'
I731
tp450
a(S'w'
I3
tp451
a(S'w'
I730
tp452
a(S'w'
I3
tp453
a(S'w'
I732
tp454
a(S'p2_tl'
I238
tp455
a(S'p2_ll'
I1
tp456
a(S'w'
I2
tp457
a(S'p2_tl'
I236
tp458
a(S'w'
I1
tp459
a(S'p2_vo'
I8
tp460
a(S'w'
I3
tp461
a(S'p1_tl'
I63
tp462
a(S'w'
I1
tp463
a(S'p1_ll'
I1
tp464
a(S'w'
I1
tp465
a(S'p1_tl'
I61
tp466
a(S'w'
I1
tp467
a(S'p1_vo'
I8
tp468
a(S'w'
I4
tp469
a(S'tr_tl'
I238
tp470
a(S'tr_ll'
I1
tp471
a(S'w'
I720
tp472
a(S'p2_tl'
I240
tp473
a(S'w'
I3
tp474
a(S'p1_tl'
I65
tp475
a(S'w'
I731
tp476
a(S'w'
I3
tp477
a(S'w'
I731
tp478
a(S'w'
I3
tp479
a(S'w'
I730
tp480
a(S'w'
I1
tp481
a(S'p2_vo'
I7
tp482
a(S'w'
I2
tp483
a(S'w'
I1
tp484
a(S'p1_vo'
I7
tp485
a(S'w'
I730
tp486
a(S'p2_tl'
I236
tp487
a(S'w'
I3
tp488
a(S'p1_tl'
I61
tp489
a(S'w'
I731
tp490
a(S'w'
I3
tp491
a(S'w'
I731
tp492
a(S'w'
I3
tp493
a(S'w'
I736
tp494
a(S'p2_tl'
I212
tp495
a(S'p2_ll'
I1
tp496
a(S'w'
I2
tp497
a(S'p2_tl'
I210
tp498
a(S'w'
I1
tp499
a(S'p2_vo'
I8
tp500
a(S'w'
I3
tp501
a(S'p1_tl'
I82
tp502
a(S'w'
I1
tp503
a(S'p1_ll'
I1
tp504
a(S'w'
I1
tp505
a(S'p1_tl'
I80
tp506
a(S'w'
I1
tp507
a(S'p1_vo'
I8
tp508
a(S'w'
I4
tp509
a(S'tr_tl'
I82
tp510
a(S'tr_ll'
I1
tp511
a(S'tr_th'
I1
tp512
a(S'w'
I715
tp513
a(S'p2_tl'
I214
tp514
a(S'w'
I3
tp515
a(S'p1_tl'
I84
tp516
a(S'w'
I731
tp517
a(S'w'
I3
tp518
a(S'w'
I731
tp519
a(S'w'
I3
tp520
a(S'w'
I731
tp521
a(S'w'
I1
tp522
a(S'p2_vo'
I7
tp523
a(S'w'
I2
tp524
a(S'w'
I1
tp525
a(S'p1_vo'
I7
tp526
a(S'w'
I729
tp527
a(S'p2_tl'
I210
tp528
a(S'w'
I3
tp529
a(S'p1_tl'
I80
tp530
a(S'w'
I731
tp531
a(S'w'
I3
tp532
a(S'w'
I731
tp533
a(S'w'
I3
tp534
a(S'w'
I731
tp535
a(S'w'
I3
tp536
a(S'w'
I4
tp537
a(S'tr_tl'
I28
tp538
a(S'tr_ll'
I1
tp539
a(S'w'
I727
tp540
a(S'p2_tl'
I214
tp541
a(S'w'
I3
tp542
a(S'p1_tl'
I84
tp543
a(S'w'
I730
tp544
a(S'w'
I1
tp545
a(S'p2_vo'
I6
tp546
a(S'w'
I2
tp547
a(S'w'
I1
tp548
a(S'p1_vo'
I6
tp549
a(S'w'
I730
tp550
a(S'w'
I3
tp551
a(S'w'
I731
tp552
a(S'w'
I3
tp553
a(S'w'
I731
tp554
a(S'p2_tl'
I210
tp555
a(S'w'
I3
tp556
a(S'p1_tl'
I80
tp557
a(S'w'
I731
tp558
a(S'w'
I3
tp559
a(S'w'
I730
tp560
a(S'w'
I3
tp561
a(S'w'
I731
tp562
a(S'w'
I1
tp563
a(S'p2_vo'
I5
tp564
a(S'w'
I2
tp565
a(S'w'
I1
tp566
a(S'p1_vo'
I5
tp567
a(S'w'
I3
tp568
a(S'tr_tl'
I171
tp569
a(S'tr_ll'
I1
tp570
a(S'w'
I727
tp571
a(S'p2_tl'
I214
tp572
a(S'w'
I3
tp573
a(S'p1_tl'
I84
tp574
a(S'w'
I731
tp575
a(S'w'
I3
tp576
a(S'w'
I731
tp577
a(S'w'
I3
tp578
a(S'w'
I730
tp579
a(S'w'
I3
tp580
a(S'w'
I731
tp581
a(S'p2_tl'
I210
tp582
a(S'w'
I3
tp583
a(S'p1_tl'
I80
tp584
a(S'w'
I731
tp585
a(S'w'
I1
tp586
a(S'p2_vo'
I4
tp587
a(S'w'
I2
tp588
a(S'w'
I1
tp589
a(S'p1_vo'
I4
tp590
a(S'w'
I730
tp591
a(S'w'
I3
tp592
a(S'w'
I733
tp593
a(S'p2_tl'
I214
tp594
a(S'w'
I5
tp595
a(S'p1_tl'
I84
tp596
a(S'w'
I4
tp597
a(S'tr_tl'
I28
tp598
a(S'w'
I1
tp599
a(S'tr_ll'
I1
tp600
a(S'w'
I721
tp601
a(S'p2_tl'
I210
tp602
a(S'w'
I3
tp603
a(S'p1_tl'
I80
tp604
a(S'w'
I731
tp605
a(S'w'
I3
tp606
a(S'w'
I731
tp607
a(S'w'
I3
tp608
a(S'w'
I731
tp609
a(S'w'
I1
tp610
a(S'p2_vo'
I3
tp611
a(S'w'
I2
tp612
a(S'w'
I1
tp613
a(S'p1_vo'
I3
tp614
a(S'w'
I729
tp615
a(S'p2_tl'
I214
tp616
a(S'w'
I3
tp617
a(S'p1_tl'
I84
tp618
a(S'w'
I731
tp619
a(S'w'
I3
tp620
a(S'w'
I731
tp621
a(S'w'
I3
tp622
a(S'w'
I731
tp623
a(S'w'
I3
tp624
a(S'w'
I4
tp625
a(S'tr_tl'
I212
tp626
a(S'tr_ll'
I1
tp627
a(S'tr_th'
I0
tp628
a(S'w'
I727
tp629
a(S'p2_tl'
I210
tp630
a(S'w'
I3
tp631
a(S'p1_tl'
I80
tp632
a(S'w'
I730
tp633
a(S'w'
I1
tp634
a(S'p2_vo'
I2
tp635
a(S'w'
I2
tp636
a(S'w'
I1
tp637
a(S'p1_vo'
I2
tp638
a(S'w'
I730
tp639
a(S'w'
I3
tp640
a(S'w'
I732
tp641
a(S'p2_tl'
I212
tp642
a(S'p2_ll'
I1
tp643
a(S'w'
I2
tp644
a(S'p2_tl'
I214
tp645
a(S'w'
I1
tp646
a(S'p2_vo'
I8
tp647
a(S'w'
I3
tp648
a(S'p1_tl'
I82
tp649
a(S'w'
I1
tp650
a(S'p1_ll'
I1
tp651
a(S'w'
I1
tp652
a(S'p1_tl'
I84
tp653
a(S'w'
I1
tp654
a(S'p1_vo'
I8
tp655
a(S'w'
I724
tp656
a(S'w'
I3
tp657
a(S'w'
I731
tp658
a(S'w'
I3
tp659
a(S'w'
I730
tp660
a(S'p2_tl'
I210
tp661
a(S'w'
I3
tp662
a(S'p1_tl'
I80
tp663
a(S'w'
I731
tp664
a(S'w'
I1
tp665
a(S'p2_vo'
I7
tp666
a(S'w'
I2
tp667
a(S'w'
I1
tp668
a(S'p1_vo'
I7
tp669
a(S'w'
I3
tp670
a(S'tr_tl'
I82
tp671
a(S'tr_ll'
I1
tp672
a(S'tr_th'
I1
tp673
a(S'w'
I727
tp674
a(S'w'
I3
tp675
a(S'w'
I732
tp676
a(S'p2_tl'
I212
tp677
a(S'p2_ll'
I1
tp678
a(S'w'
I2
tp679
a(S'p2_tl'
I214
tp680
a(S'w'
I1
tp681
a(S'p2_vo'
I8
tp682
a(S'w'
I3
tp683
a(S'p1_tl'
I82
tp684
a(S'w'
I1
tp685
a(S'p1_ll'
I1
tp686
a(S'w'
I1
tp687
a(S'p1_tl'
I84
tp688
a(S'w'
I1
tp689
a(S'p1_vo'
I8
tp690
a(S'w'
I724
tp691
a(S'w'
I3
tp692
a(S'w'
I730
tp693
a(S'w'
I3
tp694
a(S'w'
I731
tp695
a(S'p2_tl'
I210
tp696
a(S'w'
I3
tp697
a(S'p1_tl'
I80
tp698
a(S'w'
I731
tp699
a(S'w'
I1
tp700
a(S'p2_vo'
I7
tp701
a(S'w'
I2
tp702
a(S'w'
I1
tp703
a(S'p1_vo'
I7
tp704
a(S'w'
I730
tp705
a(S'w'
I3
tp706
a(S'w'
I732
tp707
a(S'p2_tl'
I178
tp708
a(S'p2_ll'
I1
tp709
a(S'w'
I2
tp710
a(S'p2_tl'
I176
tp711
a(S'w'
I1
tp712
a(S'p2_vo'
I8
tp713
a(S'w'
I3
tp714
a(S'p1_tl'
I212
tp715
a(S'w'
I1
tp716
a(S'p1_ll'
I1
tp717
a(S'p1_th'
I0
tp718
a(S'w'
I1
tp719
a(S'p1_tl'
I210
tp720
a(S'w'
I1
tp721
a(S'p1_vo'
I8
tp722
a(S'w'
I4
tp723
a(S'tr_tl'
I12
tp724
a(S'tr_ll'
I1
tp725
a(S'w'
I719
tp726
a(S'p2_tl'
I180
tp727
a(S'w'
I3
tp728
a(S'p1_tl'
I214
tp729
a(S'w'
I731
tp730
a(S'w'
I3
tp731
a(S'w'
I731
tp732
a(S'w'
I3
tp733
a(S'w'
I731
tp734
a(S'w'
I1
tp735
a(S'p2_vo'
I7
tp736
a(S'w'
I2
tp737
a(S'w'
I1
tp738
a(S'p1_vo'
I7
tp739
a(S'w'
I729
tp740
a(S'p2_tl'
I176
tp741
a(S'w'
I3
tp742
a(S'p1_tl'
I210
tp743
a(S'w'
I731
tp744
a(S'w'
I3
tp745
a(S'w'
I731
tp746
a(S'w'
I3
tp747
a(S'w'
I732
tp748
a(S'p2_tl'
I189
tp749
a(S'p2_ll'
I1
tp750
a(S'w'
I2
tp751
a(S'p2_tl'
I187
tp752
a(S'w'
I1
tp753
a(S'p2_vo'
I8
tp754
a(S'w'
I3
tp755
a(S'p1_tl'
I238
tp756
a(S'w'
I1
tp757
a(S'p1_ll'
I1
tp758
a(S'w'
I1
tp759
a(S'p1_tl'
I236
tp760
a(S'w'
I1
tp761
a(S'p1_vo'
I8
tp762
a(S'w'
I4
tp763
a(S'tr_tl'
I178
tp764
a(S'tr_ll'
I1
tp765
a(S'tr_th'
I0
tp766
a(S'w'
I720
tp767
a(S'p2_tl'
I191
tp768
a(S'w'
I3
tp769
a(S'p1_tl'
I240
tp770
a(S'w'
I730
tp771
a(S'w'
I3
tp772
a(S'w'
I731
tp773
a(S'w'
I3
tp774
a(S'w'
I731
tp775
a(S'w'
I1
tp776
a(S'p2_vo'
I7
tp777
a(S'w'
I2
tp778
a(S'w'
I1
tp779
a(S'p1_vo'
I7
tp780
a(S'w'
I730
tp781
a(S'p2_tl'
I187
tp782
a(S'w'
I3
tp783
a(S'p1_tl'
I236
tp784
a(S'w'
I731
tp785
a(S'w'
I3
tp786
a(S'w'
I730
tp787
a(S'w'
I3
tp788
a(S'w'
I732
tp789
a(S'p2_tl'
I212
tp790
a(S'p2_ll'
I1
tp791
a(S'w'
I2
tp792
a(S'p2_tl'
I210
tp793
a(S'w'
I1
tp794
a(S'p2_vo'
I8
tp795
a(S'w'
I3
tp796
a(S'p1_tl'
I12
tp797
a(S'w'
I1
tp798
a(S'p1_ll'
I1
tp799
a(S'p1_th'
I1
tp800
a(S'w'
I1
tp801
a(S'p1_tl'
I10
tp802
a(S'w'
I1
tp803
a(S'p1_vo'
I8
tp804
a(S'w'
I4
tp805
a(S'tr_tl'
I212
tp806
a(S'tr_ll'
I1
tp807
a(S'w'
I720
tp808
a(S'p2_tl'
I214
tp809
a(S'w'
I3
tp810
a(S'p1_tl'
I14
tp811
a(S'w'
I731
tp812
a(S'w'
I3
tp813
a(S'w'
I731
tp814
a(S'w'
I3
tp815
a(S'w'
I730
tp816
a(S'w'
I1
tp817
a(S'p2_vo'
I7
tp818
a(S'w'
I2
tp819
a(S'w'
I1
tp820
a(S'p1_vo'
I7
tp821
a(S'w'
I730
tp822
a(S'p2_tl'
I210
tp823
a(S'w'
I3
tp824
a(S'p1_tl'
I10
tp825
a(S'w'
I731
tp826
a(S'w'
I3
tp827
a(S'w'
I731
tp828
a(S'w'
I3
tp829
a(S'w'
I732
tp830
a(S'p2_tl'
I189
tp831
a(S'p2_ll'
I1
tp832
a(S'w'
I2
tp833
a(S'p2_tl'
I187
tp834
a(S'w'
I1
tp835
a(S'p2_vo'
I8
tp836
a(S'w'
I3
tp837
a(S'p1_tl'
I238
tp838
a(S'w'
I1
tp839
a(S'p1_ll'
I1
tp840
a(S'p1_th'
I0
tp841
a(S'w'
I1
tp842
a(S'p1_tl'
I236
tp843
a(S'w'
I1
tp844
a(S'p1_vo'
I8
tp845
a(S'w'
I4
tp846
a(S'tr_tl'
I63
tp847
a(S'tr_ll'
I1
tp848
a(S'tr_th'
I1
tp849
a(S'w'
I719
tp850
a(S'p2_tl'
I191
tp851
a(S'w'
I3
tp852
a(S'p1_tl'
I240
tp853
a(S'w'
I731
tp854
a(S'w'
I3
tp855
a(S'w'
I731
tp856
a(S'w'
I3
tp857
a(S'w'
I731
tp858
a(S'w'
I1
tp859
a(S'p2_vo'
I7
tp860
a(S'w'
I2
tp861
a(S'w'
I1
tp862
a(S'p1_vo'
I7
tp863
a(S'w'
I729
tp864
a(S'p2_tl'
I187
tp865
a(S'w'
I3
tp866
a(S'p1_tl'
I236
tp867
a(S'w'
I731
tp868
a(S'w'
I3
tp869
a(S'w'
I731
tp870
a(S'w'
I3
tp871
a(S'w'
I732
tp872
a(S'p2_tl'
I212
tp873
a(S'p2_ll'
I1
tp874
a(S'w'
I2
tp875
a(S'p2_tl'
I210
tp876
a(S'w'
I1
tp877
a(S'p2_vo'
I8
tp878
a(S'w'
I3
tp879
a(S'p1_tl'
I63
tp880
a(S'w'
I1
tp881
a(S'p1_ll'
I1
tp882
a(S'p1_th'
I1
tp883
a(S'w'
I1
tp884
a(S'p1_tl'
I61
tp885
a(S'w'
I1
tp886
a(S'p1_vo'
I8
tp887
a(S'w'
I4
tp888
a(S'tr_tl'
I189
tp889
a(S'tr_ll'
I1
tp890
a(S'tr_th'
I0
tp891
a(S'w'
I720
tp892
a(S'p2_tl'
I214
tp893
a(S'w'
I3
tp894
a(S'p1_tl'
I65
tp895
a(S'w'
I730
tp896
a(S'w'
I3
tp897
a(S'w'
I731
tp898
a(S'w'
I3
tp899
a(S'w'
I731
tp900
a(S'w'
I1
tp901
a(S'p2_vo'
I7
tp902
a(S'w'
I2
tp903
a(S'w'
I1
tp904
a(S'p1_vo'
I7
tp905
a(S'w'
I730
tp906
a(S'p2_tl'
I210
tp907
a(S'w'
I3
tp908
a(S'p1_tl'
I61
tp909
a(S'w'
I731
tp910
a(S'w'
I3
tp911
a(S'w'
I730
tp912
a(S'w'
I3
tp913
a(S'w'
I732
tp914
a(S'p2_tl'
I238
tp915
a(S'p2_ll'
I1
tp916
a(S'w'
I2
tp917
a(S'p2_tl'
I236
tp918
a(S'w'
I1
tp919
a(S'p2_vo'
I8
tp920
a(S'w'
I3
tp921
a(S'p1_tl'
I63
tp922
a(S'w'
I1
tp923
a(S'p1_ll'
I1
tp924
a(S'w'
I1
tp925
a(S'p1_tl'
I61
tp926
a(S'w'
I1
tp927
a(S'p1_vo'
I8
tp928
a(S'w'
I4
tp929
a(S'tr_tl'
I238
tp930
a(S'tr_ll'
I1
tp931
a(S'w'
I720
tp932
a(S'p2_tl'
I240
tp933
a(S'w'
I3
tp934
a(S'p1_tl'
I65
tp935
a(S'w'
I731
tp936
a(S'w'
I3
tp937
a(S'w'
I731
tp938
a(S'w'
I3
tp939
a(S'w'
I730
tp940
a(S'w'
I1
tp941
a(S'p2_vo'
I7
tp942
a(S'w'
I2
tp943
a(S'w'
I1
tp944
a(S'p1_vo'
I7
tp945
a(S'w'
I730
tp946
a(S'p2_tl'
I236
tp947
a(S'w'
I3
tp948
a(S'p1_tl'
I61
tp949
a(S'w'
I731
tp950
a(S'w'
I3
tp951
a(S'w'
I731
tp952
a(S'w'
I3
tp953
a(S'w'
I736
tp954
a(S'p2_tl'
I212
tp955
a(S'p2_ll'
I1
tp956
a(S'w'
I2
tp957
a(S'p2_tl'
I210
tp958
a(S'w'
I1
tp959
a(S'p2_vo'
I8
tp960
a(S'w'
I3
tp961
a(S'p1_tl'
I28
tp962
a(S'w'
I1
tp963
a(S'p1_ll'
I1
tp964
a(S'w'
I1
tp965
a(S'p1_tl'
I26
tp966
a(S'w'
I1
tp967
a(S'p1_vo'
I8
tp968
a(S'w'
I4
tp969
a(S'tr_tl'
I212
tp970
a(S'tr_ll'
I1
tp971
a(S'w'
I715
tp972
a(S'p2_tl'
I214
tp973
a(S'w'
I3
tp974
a(S'p1_tl'
I30
tp975
a(S'w'
I731
tp976
a(S'w'
I3
tp977
a(S'w'
I731
tp978
a(S'w'
I3
tp979
a(S'w'
I731
tp980
a(S'w'
I1
tp981
a(S'p2_vo'
I7
tp982
a(S'w'
I2
tp983
a(S'w'
I1
tp984
a(S'p1_vo'
I7
tp985
a(S'w'
I729
tp986
a(S'p2_tl'
I210
tp987
a(S'w'
I3
tp988
a(S'p1_tl'
I26
tp989
a(S'w'
I731
tp990
a(S'w'
I3
tp991
a(S'w'
I731
tp992
a(S'w'
I3
tp993
a(S'w'
I731
tp994
a(S'w'
I3
tp995
a(S'w'
I731
tp996
a(S'p2_tl'
I214
tp997
a(S'w'
I3
tp998
a(S'p1_tl'
I30
tp999
a(S'w'
I730
tp1000
a(S'w'
I1
tp1001
a(S'p2_vo'
I6
tp1002
a(S'w'
I2
tp1003
a(S'w'
I1
tp1004
a(S'p1_vo'
I6
tp1005
a(S'w'
I730
tp1006
a(S'w'
I3
tp1007
a(S'w'
I731
tp1008
a(S'w'
I3
tp1009
a(S'w'
I731
tp1010
a(S'p2_tl'
I210
tp1011
a(S'w'
I3
tp1012
a(S'p1_tl'
I26
tp1013
a(S'w'
I731
tp1014
a(S'w'
I3
tp1015
a(S'w'
I730
tp1016
a(S'w'
I3
tp1017
a(S'w'
I731
tp1018
a(S'w'
I1
tp1019
a(S'p2_vo'
I5
tp1020
a(S'w'
I2
tp1021
a(S'w'
I1
tp1022
a(S'p1_vo'
I5
tp1023
a(S'w'
I730
tp1024
a(S'p2_tl'
I214
tp1025
a(S'w'
I3
tp1026
a(S'p1_tl'
I30
tp1027
a(S'w'
I731
tp1028
a(S'w'
I3
tp1029
a(S'w'
I731
tp1030
a(S'w'
I3
tp1031
a(S'w'
I730
tp1032
a(S'w'
I3
tp1033
a(S'w'
I731
tp1034
a(S'p2_tl'
I210
tp1035
a(S'w'
I3
tp1036
a(S'p1_tl'
I26
tp1037
a(S'w'
I731
tp1038
a(S'w'
I1
tp1039
a(S'p2_vo'
I4
tp1040
a(S'w'
I2
tp1041
a(S'w'
I1
tp1042
a(S'p1_vo'
I4
tp1043
a(S'w'
I730
tp1044
a(S'w'
I3
tp1045
a(S'w'
I732
tp1046
a(S'p2_tl'
I171
tp1047
a(S'p2_ll'
I1
tp1048
a(S'p2_th'
I1
tp1049
a(S'w'
I2
tp1050
a(S'p2_tl'
I173
tp1051
a(S'w'
I1
tp1052
a(S'p2_vo'
I8
tp1053
a(S'w'
I3
tp1054
a(S'p1_tl'
I58
tp1055
a(S'w'
I1
tp1056
a(S'p1_ll'
I1
tp1057
a(S'p1_th'
I2
tp1058
a(S'w'
I1
tp1059
a(S'p1_tl'
I60
tp1060
a(S'w'
I1
tp1061
a(S'p1_vo'
I8
tp1062
a(S'w'
I3
tp1063
a(S'tr_tl'
I171
tp1064
a(S'w'
I1
tp1065
a(S'tr_ll'
I1
tp1066
a(S'tr_th'
I1
tp1067
a(S'w'
I719
tp1068
a(S'w'
I3
tp1069
a(S'w'
I731
tp1070
a(S'w'
I3
tp1071
a(S'w'
I731
tp1072
a(S'p2_tl'
I169
tp1073
a(S'w'
I3
tp1074
a(S'p1_tl'
I56
tp1075
a(S'w'
I731
tp1076
a(S'w'
I1
tp1077
a(S'p2_vo'
I7
tp1078
a(S'w'
I2
tp1079
a(S'w'
I1
tp1080
a(S'p1_vo'
I7
tp1081
a(S'w'
I729
tp1082
a(S'w'
I3
tp1083
a(S'w'
I732
tp1084
a(S'p2_tl'
I171
tp1085
a(S'p2_ll'
I1
tp1086
a(S'w'
I2
tp1087
a(S'p2_tl'
I173
tp1088
a(S'w'
I1
tp1089
a(S'p2_vo'
I8
tp1090
a(S'w'
I3
tp1091
a(S'p1_tl'
I58
tp1092
a(S'w'
I1
tp1093
a(S'p1_ll'
I1
tp1094
a(S'w'
I1
tp1095
a(S'p1_tl'
I60
tp1096
a(S'w'
I1
tp1097
a(S'p1_vo'
I8
tp1098
a(S'w'
I4
tp1099
a(S'tr_ll'
I1
tp1100
a(S'w'
I720
tp1101
a(S'w'
I3
tp1102
a(S'w'
I731
tp1103
a(S'w'
I3
tp1104
a(S'w'
I731
tp1105
a(S'p2_tl'
I169
tp1106
a(S'w'
I3
tp1107
a(S'p1_tl'
I56
tp1108
a(S'w'
I730
tp1109
a(S'w'
I1
tp1110
a(S'p2_vo'
I7
tp1111
a(S'w'
I2
tp1112
a(S'w'
I1
tp1113
a(S'p1_vo'
I7
tp1114
a(S'w'
I730
tp1115
a(S'w'
I3
tp1116
a(S'w'
I732
tp1117
a(S'p2_tl'
I171
tp1118
a(S'p2_ll'
I1
tp1119
a(S'w'
I2
tp1120
a(S'p2_tl'
I173
tp1121
a(S'w'
I1
tp1122
a(S'p2_vo'
I8
tp1123
a(S'w'
I3
tp1124
a(S'p1_tl'
I58
tp1125
a(S'w'
I1
tp1126
a(S'p1_ll'
I1
tp1127
a(S'w'
I1
tp1128
a(S'p1_tl'
I60
tp1129
a(S'w'
I1
tp1130
a(S'p1_vo'
I8
tp1131
a(S'w'
I4
tp1132
a(S'tr_ll'
I1
tp1133
a(S'w'
I720
tp1134
a(S'w'
I3
tp1135
a(S'w'
I731
tp1136
a(S'w'
I3
tp1137
a(S'w'
I730
tp1138
a(S'p2_tl'
I169
tp1139
a(S'w'
I3
tp1140
a(S'p1_tl'
I56
tp1141
a(S'w'
I731
tp1142
a(S'w'
I1
tp1143
a(S'p2_vo'
I7
tp1144
a(S'w'
I2
tp1145
a(S'w'
I1
tp1146
a(S'p1_vo'
I7
tp1147
a(S'w'
I730
tp1148
a(S'w'
I3
tp1149
a(S'w'
I732
tp1150
a(S'p2_tl'
I171
tp1151
a(S'p2_ll'
I1
tp1152
a(S'w'
I2
tp1153
a(S'p2_tl'
I173
tp1154
a(S'w'
I1
tp1155
a(S'p2_vo'
I8
tp1156
a(S'w'
I3
tp1157
a(S'p1_tl'
I58
tp1158
a(S'w'
I1
tp1159
a(S'p1_ll'
I1
tp1160
a(S'w'
I1
tp1161
a(S'p1_tl'
I60
tp1162
a(S'w'
I1
tp1163
a(S'p1_vo'
I8
tp1164
a(S'w'
I4
tp1165
a(S'tr_ll'
I1
tp1166
a(S'w'
I720
tp1167
a(S'w'
I3
tp1168
a(S'w'
I730
tp1169
a(S'w'
I3
tp1170
a(S'w'
I731
tp1171
a(S'p2_tl'
I169
tp1172
a(S'w'
I3
tp1173
a(S'p1_tl'
I56
tp1174
a(S'w'
I731
tp1175
a(S'w'
I1
tp1176
a(S'p2_vo'
I7
tp1177
a(S'w'
I2
tp1178
a(S'w'
I1
tp1179
a(S'p1_vo'
I7
tp1180
a(S'w'
I730
tp1181
a(S'w'
I3
tp1182
a(S'w'
I732
tp1183
a(S'p2_tl'
I171
tp1184
a(S'p2_ll'
I1
tp1185
a(S'w'
I2
tp1186
a(S'p2_tl'
I169
tp1187
a(S'w'
I1
tp1188
a(S'p2_vo'
I8
tp1189
a(S'w'
I3
tp1190
a(S'p1_tl'
I58
tp1191
a(S'w'
I1
tp1192
a(S'p1_ll'
I1
tp1193
a(S'w'
I1
tp1194
a(S'p1_tl'
I56
tp1195
a(S'w'
I1
tp1196
a(S'p1_vo'
I8
tp1197
a(S'w'
I4
tp1198
a(S'tr_ll'
I1
tp1199
a(S'w'
I719
tp1200
a(S'p2_tl'
I173
tp1201
a(S'w'
I3
tp1202
a(S'p1_tl'
I60
tp1203
a(S'w'
I731
tp1204
a(S'w'
I3
tp1205
a(S'w'
I731
tp1206
a(S'w'
I3
tp1207
a(S'w'
I731
tp1208
a(S'w'
I1
tp1209
a(S'p2_vo'
I7
tp1210
a(S'w'
I2
tp1211
a(S'w'
I1
tp1212
a(S'p1_vo'
I7
tp1213
a(S'w'
I729
tp1214
a(S'p2_tl'
I169
tp1215
a(S'w'
I3
tp1216
a(S'p1_tl'
I56
tp1217
a(S'w'
I731
tp1218
a(S'w'
I3
tp1219
a(S'w'
I731
tp1220
a(S'w'
I3
tp1221
a(S'w'
I731
tp1222
a(S'w'
I3
tp1223
a(S'w'
I731
tp1224
a(S'p2_tl'
I173
tp1225
a(S'w'
I3
tp1226
a(S'p1_tl'
I60
tp1227
a(S'w'
I730
tp1228
a(S'w'
I1
tp1229
a(S'p2_vo'
I6
tp1230
a(S'w'
I2
tp1231
a(S'w'
I1
tp1232
a(S'p1_vo'
I6
tp1233
a(S'w'
I730
tp1234
a(S'w'
I3
tp1235
a(S'w'
I731
tp1236
a(S'w'
I3
tp1237
a(S'w'
I731
tp1238
a(S'p2_tl'
I169
tp1239
a(S'w'
I3
tp1240
a(S'p1_tl'
I56
tp1241
a(S'w'
I731
tp1242
a(S'w'
I3
tp1243
a(S'w'
I730
tp1244
a(S'w'
I3
tp1245
a(S'w'
I731
tp1246
a(S'w'
I1
tp1247
a(S'p2_vo'
I5
tp1248
a(S'w'
I2
tp1249
a(S'w'
I1
tp1250
a(S'p1_vo'
I5
tp1251
a(S'w'
I730
tp1252
a(S'p2_tl'
I173
tp1253
a(S'w'
I3
tp1254
a(S'p1_tl'
I60
tp1255
a(S'w'
I731
tp1256
a(S'w'
I3
tp1257
a(S'w'
I731
tp1258
a(S'w'
I3
tp1259
a(S'w'
I730
tp1260
a(S'w'
I3
tp1261
a(S'w'
I731
tp1262
a(S'p2_tl'
I169
tp1263
a(S'w'
I3
tp1264
a(S'p1_tl'
I56
tp1265
a(S'w'
I731
tp1266
a(S'w'
I1
tp1267
a(S'p2_vo'
I4
tp1268
a(S'w'
I2
tp1269
a(S'w'
I1
tp1270
a(S'p1_vo'
I4
tp1271
a(S'w'
I730
tp1272
a(S'w'
I3
tp1273
a(S'w'
I732
tp1274
a(S'tr_lr'
I0
tp1275
a(S'p1_du'
I0
tp1276
a(S'p1_vo'
I0
tp1277
a(S'p2_du'
I0
tp1278
a(S'p2_vo'
I0
tp1279
a(S'no_cv'
I1
tp1280
a(S'w'
I41782
tp1281
a.