(lp1
(S'clock'
p2
I1789773
tp3
a(S'fc_mo'
I1
tp4
a(S'ch_no'
I0
tp5
a(S'ch_tr'
I0
tp6
a(S'ch_p2'
I0
tp7
a(S'ch_p1'
I0
tp8
a(S'no_ll'
I0
tp9
a(S'tr_ll'
I0
tp10
a(S'p2_ll'
I0
tp11
a(S'p1_ll'
I0
tp12
a(S'w'
I2
tp13
a(S'ch_no'
I1
tp14
a(S'ch_tr'
I1
tp15
a(S'ch_p2'
I1
tp16
a(S'ch_p1'
I1
tp17
a(S'w'
I18
tp18
a(S'p2_tl'
I253
tp19
a(S'w'
I1
tp20
a(S'p2_ll'
I1
tp21
a(S'w'
I1
tp22
a(S'p2_tl'
I255
tp23
a(S'w'
I1
tp24
a(S'p2_du'
I2
tp25
a(S'p2_cv'
I1
tp26
a(S'p2_vo'
I8
tp27
a(S'p2_sp'
I7
tp28
a(S'p2_sn'
I1
tp29
a(S'p2_ss'
I7
tp30
a(S'w'
I3
tp31
a(S'p1_tl'
I171
tp32
a(S'w'
I1
tp33
a(S'p1_ll'
I1
tp34
a(S'p1_th'
I1
tp35
a(S'w'
I2
tp36
a(S'p1_tl'
I173
tp37
a(S'w'
I1
tp38
a(S'p1_du'
I2
tp39
a(S'p1_cv'
I1
tp40
a(S'p1_vo'
I8
tp41
a(S'p1_sp'
I7
tp42
a(S'p1_sn'
I1
tp43
a(S'p1_ss'
I7
tp44
a(S'w'
I2
tp45
a(S'tr_lr'
I96
tp46
a(S'w'
I1
tp47
a(S'tr_tl'
I63
tp48
a(S'tr_ll'
I1
tp49
a(S'tr_th'
I1
tp50
a(S'w'
I716
tp51
a(S'p2_tl'
I251
tp52
a(S'w'
I3
tp53
a(S'p1_tl'
I169
tp54
a(S'w'
I731
tp55
a(S'w'
I3
tp56
a(S'w'
I731
tp57
a(S'w'
I3
tp58
a(S'w'
I731
tp59
a(S'w'
I1
tp60
a(S'p2_vo'
I7
tp61
a(S'w'
I2
tp62
a(S'w'
I1
tp63
a(S'p1_vo'
I7
tp64
a(S'w'
I729
tp65
a(S'p2_tl'
I255
tp66
a(S'w'
I3
tp67
a(S'p1_tl'
I173
tp68
a(S'w'
I731
tp69
a(S'w'
I3
tp70
a(S'w'
I731
tp71
a(S'w'
I3
tp72
a(S'w'
I731
tp73
a(S'w'
I3
tp74
a(S'w'
I731
tp75
a(S'p2_tl'
I251
tp76
a(S'w'
I3
tp77
a(S'p1_tl'
I169
tp78
a(S'w'
I730
tp79
a(S'w'
I1
tp80
a(S'p2_vo'
I6
tp81
a(S'w'
I2
tp82
a(S'w'
I1
tp83
a(S'p1_vo'
I6
tp84
a(S'w'
I730
tp85
a(S'w'
I3
tp86
a(S'w'
I732
tp87
a(S'p2_tl'
I238
tp88
a(S'p2_ll'
I1
tp89
a(S'w'
I2
tp90
a(S'p2_tl'
I240
tp91
a(S'w'
I1
tp92
a(S'p2_vo'
I8
tp93
a(S'w'
I3
tp94
a(S'p1_tl'
I147
tp95
a(S'w'
I1
tp96
a(S'p1_ll'
I1
tp97
a(S'w'
I1
tp98
a(S'p1_tl'
I149
tp99
a(S'w'
I1
tp100
a(S'p1_vo'
I8
tp101
a(S'w'
I3
tp102
a(S'tr_tl'
I45
tp103
a(S'w'
I1
tp104
a(S'tr_ll'
I1
tp105
a(S'w'
I720
tp106
a(S'p2_tl'
I236
tp107
a(S'w'
I3
tp108
a(S'p1_tl'
I145
tp109
a(S'w'
I731
tp110
a(S'w'
I3
tp111
a(S'w'
I730
tp112
a(S'w'
I3
tp113
a(S'w'
I731
tp114
a(S'w'
I1
tp115
a(S'p2_vo'
I7
tp116
a(S'w'
I2
tp117
a(S'w'
I1
tp118
a(S'p1_vo'
I7
tp119
a(S'w'
I730
tp120
a(S'p2_tl'
I240
tp121
a(S'w'
I3
tp122
a(S'p1_tl'
I149
tp123
a(S'w'
I731
tp124
a(S'w'
I3
tp125
a(S'w'
I731
tp126
a(S'w'
I3
tp127
a(S'w'
I730
tp128
a(S'w'
I3
tp129
a(S'w'
I731
tp130
a(S'p2_tl'
I236
tp131
a(S'w'
I3
tp132
a(S'p1_tl'
I145
tp133
a(S'w'
I731
tp134
a(S'w'
I1
tp135
a(S'p2_vo'
I6
tp136
a(S'w'
I2
tp137
a(S'w'
I1
tp138
a(S'p1_vo'
I6
tp139
a(S'w'
I730
tp140
a(S'w'
I3
tp141
a(S'w'
I732
tp142
a(S'p2_tl'
I225
tp143
a(S'p2_ll'
I1
tp144
a(S'w'
I2
tp145
a(S'p2_tl'
I227
tp146
a(S'w'
I1
tp147
a(S'p2_vo'
I8
tp148
a(S'w'
I3
tp149
a(S'p1_tl'
I124
tp150
a(S'w'
I1
tp151
a(S'p1_ll'
I1
tp152
a(S'w'
I1
tp153
a(S'p1_tl'
I126
tp154
a(S'w'
I1
tp155
a(S'p1_vo'
I8
tp156
a(S'w'
I3
tp157
a(S'tr_tl'
I28
tp158
a(S'w'
I1
tp159
a(S'tr_ll'
I1
tp160
a(S'w'
I719
tp161
a(S'p2_tl'
I223
tp162
a(S'w'
I3
tp163
a(S'p1_tl'
I122
tp164
a(S'w'
I731
tp165
a(S'w'
I3
tp166
a(S'w'
I731
tp167
a(S'w'
I3
tp168
a(S'w'
I731
tp169
a(S'w'
I1
tp170
a(S'p2_vo'
I7
tp171
a(S'w'
I2
tp172
a(S'w'
I1
tp173
a(S'p1_vo'
I7
tp174
a(S'w'
I729
tp175
a(S'p2_tl'
I227
tp176
a(S'w'
I3
tp177
a(S'p1_tl'
I126
tp178
a(S'w'
I731
tp179
a(S'w'
I3
tp180
a(S'w'
I731
tp181
a(S'w'
I3
tp182
a(S'w'
I731
tp183
a(S'w'
I3
tp184
a(S'w'
I731
tp185
a(S'p2_tl'
I223
tp186
a(S'w'
I3
tp187
a(S'p1_tl'
I122
tp188
a(S'w'
I730
tp189
a(S'w'
I1
tp190
a(S'p2_vo'
I6
tp191
a(S'w'
I2
tp192
a(S'w'
I1
tp193
a(S'p1_vo'
I6
tp194
a(S'w'
I730
tp195
a(S'w'
I3
tp196
a(S'w'
I732
tp197
a(S'p2_tl'
I212
tp198
a(S'p2_ll'
I1
tp199
a(S'w'
I2
tp200
a(S'p2_tl'
I214
tp201
a(S'w'
I1
tp202
a(S'p2_vo'
I8
tp203
a(S'w'
I3
tp204
a(S'p1_tl'
I103
tp205
a(S'w'
I1
tp206
a(S'p1_ll'
I1
tp207
a(S'w'
I1
tp208
a(S'p1_tl'
I105
tp209
a(S'w'
I1
tp210
a(S'p1_vo'
I8
tp211
a(S'w'
I3
tp212
a(S'tr_tl'
I12
tp213
a(S'w'
I1
tp214
a(S'tr_ll'
I1
tp215
a(S'w'
I720
tp216
a(S'p2_tl'
I210
tp217
a(S'w'
I3
tp218
a(S'p1_tl'
I101
tp219
a(S'w'
I731
tp220
a(S'w'
I3
tp221
a(S'w'
I730
tp222
a(S'w'
I3
tp223
a(S'w'
I731
tp224
a(S'w'
I1
tp225
a(S'p2_vo'
I7
tp226
a(S'w'
I2
tp227
a(S'w'
I1
tp228
a(S'p1_vo'
I7
tp229
a(S'w'
I730
tp230
a(S'p2_tl'
I214
tp231
a(S'w'
I3
tp232
a(S'p1_tl'
I105
tp233
a(S'w'
I731
tp234
a(S'w'
I3
tp235
a(S'w'
I731
tp236
a(S'w'
I3
tp237
a(S'w'
I730
tp238
a(S'w'
I3
tp239
a(S'w'
I731
tp240
a(S'p2_tl'
I210
tp241
a(S'w'
I3
tp242
a(S'p1_tl'
I101
tp243
a(S'w'
I731
tp244
a(S'w'
I1
tp245
a(S'p2_vo'
I6
tp246
a(S'w'
I2
tp247
a(S'w'
I1
tp248
a(S'p1_vo'
I6
tp249
a(S'w'
I730
tp250
a(S'w'
I3
tp251
a(S'w'
I731
tp252
a(S'w'
I3
tp253
a(S'w'
I730
tp254
a(S'p2_tl'
I214
tp255
a(S'w'
I3
tp256
a(S'p1_tl'
I105
tp257
a(S'w'
I731
tp258
a(S'w'
I3
tp259
a(S'w'
I731
tp260
a(S'w'
I3
tp261
a(S'w'
I731
tp262
a(S'w'
I1
tp263
a(S'p2_vo'
I5
tp264
a(S'w'
I2
tp265
a(S'w'
I1
tp266
a(S'p1_vo'
I5
tp267
a(S'w'
I729
tp268
a(S'p2_tl'
I210
tp269
a(S'w'
I3
tp270
a(S'p1_tl'
I101
tp271
a(S'w'
I731
tp272
a(S'w'
I3
tp273
a(S'w'
I731
tp274
a(S'w'
I3
tp275
a(S'w'
I731
tp276
a(S'w'
I3
tp277
a(S'w'
I731
tp278
a(S'p2_tl'
I214
tp279
a(S'w'
I3
tp280
a(S'p1_tl'
I105
tp281
a(S'w'
I730
tp282
a(S'w'
I1
tp283
a(S'p2_vo'
I4
tp284
a(S'w'
I2
tp285
a(S'w'
I1
tp286
a(S'p1_vo'
I4
tp287
a(S'w'
I730
tp288
a(S'w'
I3
tp289
a(S'w'
I731
tp290
a(S'w'
I3
tp291
a(S'w'
I731
tp292
a(S'p2_tl'
I210
tp293
a(S'w'
I3
tp294
a(S'p1_tl'
I101
tp295
a(S'w'
I731
tp296
a(S'w'
I3
tp297
a(S'w'
I730
tp298
a(S'w'
I3
tp299
a(S'w'
I731
tp300
a(S'w'
I1
tp301
a(S'p2_vo'
I3
tp302
a(S'w'
I2
tp303
a(S'w'
I1
tp304
a(S'p1_vo'
I3
tp305
a(S'w'
I730
tp306
a(S'p2_tl'
I214
tp307
a(S'w'
I3
tp308
a(S'p1_tl'
I105
tp309
a(S'w'
I731
tp310
a(S'w'
I3
tp311
a(S'w'
I731
tp312
a(S'w'
I3
tp313
a(S'w'
I730
tp314
a(S'w'
I3
tp315
a(S'w'
I731
tp316
a(S'p2_tl'
I210
tp317
a(S'w'
I3
tp318
a(S'p1_tl'
I101
tp319
a(S'w'
I731
tp320
a(S'w'
I1
tp321
a(S'p2_vo'
I2
tp322
a(S'w'
I2
tp323
a(S'w'
I1
tp324
a(S'p1_vo'
I2
tp325
a(S'w'
I730
tp326
a(S'w'
I3
tp327
a(S'w'
I733
tp328
a(S'p2_tl'
I214
tp329
a(S'w'
I5
tp330
a(S'p1_tl'
I105
tp331
a(S'w'
I726
tp332
a(S'w'
I3
tp333
a(S'w'
I731
tp334
a(S'w'
I3
tp335
a(S'w'
I731
tp336
a(S'p2_tl'
I210
tp337
a(S'w'
I3
tp338
a(S'p1_tl'
I101
tp339
a(S'w'
I731
tp340
a(S'w'
I1
tp341
a(S'p2_vo'
I1
tp342
a(S'w'
I2
tp343
a(S'w'
I1
tp344
a(S'p1_vo'
I1
tp345
a(S'w'
I729
tp346
a(S'w'
I3
tp347
a(S'w'
I733
tp348
a(S'p2_tl'
I214
tp349
a(S'w'
I5
tp350
a(S'p1_tl'
I105
tp351
a(S'w'
I727
tp352
a(S'w'
I3
tp353
a(S'w'
I731
tp354
a(S'w'
I3
tp355
a(S'w'
I731
tp356
a(S'p2_tl'
I210
tp357
a(S'w'
I3
tp358
a(S'p1_tl'
I101
tp359
a(S'w'
I730
tp360
a(S'w'
I1
tp361
a(S'p2_vo'
I0
tp362
a(S'w'
I2
tp363
a(S'w'
I1
tp364
a(S'p1_vo'
I0
tp365
a(S'w'
I730
tp366
a(S'w'
I3
tp367
a(S'w'
I733
tp368
a(S'p2_tl'
I214
tp369
a(S'w'
I5
tp370
a(S'p1_tl'
I105
tp371
a(S'w'
I727
tp372
a(S'w'
I2
tp373
a(S'w'
I732
tp374
a(S'w'
I2
tp375
a(S'w'
I731
tp376
a(S'p2_tl'
I210
tp377
a(S'w'
I3
tp378
a(S'p1_tl'
I101
tp379
a(S'w'
I731
tp380
a(S'w'
I3
tp381
a(S'w'
I731
tp382
a(S'w'
I3
tp383
a(S'w'
I733
tp384
a(S'p2_tl'
I214
tp385
a(S'w'
I5
tp386
a(S'p1_tl'
I105
tp387
a(S'w'
I727
tp388
a(S'w'
I2
tp389
a(S'w'
I731
tp390
a(S'w'
I2
tp391
a(S'w'
I732
tp392
a(S'p2_tl'
I210
tp393
a(S'w'
I3
tp394
a(S'p1_tl'
I101
tp395
a(S'w'
I731
tp396
a(S'w'
I3
tp397
a(S'w'
I731
tp398
a(S'w'
I3
tp399
a(S'w'
I733
tp400
a(S'p2_tl'
I214
tp401
a(S'w'
I5
tp402
a(S'p1_tl'
I105
tp403
a(S'w'
I726
tp404
a(S'w'
I2
tp405
a(S'w'
I732
tp406
a(S'w'
I2
tp407
a(S'w'
I732
tp408
a(S'p2_tl'
I210
tp409
a(S'w'
I3
tp410
a(S'p1_tl'
I101
tp411
a(S'w'
I731
tp412
a(S'w'
I3
tp413
a(S'w'
I730
tp414
a(S'w'
I3
tp415
a(S'w'
I733
tp416
a(S'p2_tl'
I214
tp417
a(S'w'
I5
tp418
a(S'p1_tl'
I105
tp419
a(S'w'
I727
tp420
a(S'w'
I2
tp421
a(S'w'
I732
tp422
a(S'w'
I2
tp423
a(S'w'
I732
tp424
a(S'p2_tl'
I210
tp425
a(S'w'
I3
tp426
a(S'p1_tl'
I101
tp427
a(S'w'
I730
tp428
a(S'w'
I3
tp429
a(S'w'
I731
tp430
a(S'w'
I3
tp431
a(S'w'
I733
tp432
a(S'p2_tl'
I214
tp433
a(S'w'
I5
tp434
a(S'p1_tl'
I105
tp435
a(S'w'
I727
tp436
a(S'w'
I2
tp437
a(S'w'
I732
tp438
a(S'w'
I2
tp439
a(S'w'
I731
tp440
a(S'p2_tl'
I210
tp441
a(S'w'
I3
tp442
a(S'p1_tl'
I101
tp443
a(S'w'
I731
tp444
a(S'w'
I3
tp445
a(S'w'
I731
tp446
a(S'w'
I3
tp447
a(S'w'
I732
tp448
a(S'tr_lr'
I0
tp449
a(S'w'
I1
tp450
a(S'p1_du'
I0
tp451
a(S'p2_du'
I0
tp452
a(S'no_cv'
I1
tp453
a(S'w'
I16682
tp454
a.