(lp1
(S'clock'
p2
I1789773
tp3
a(S'fc_mo'
I1
tp4
a(S'ch_no'
I0
tp5
a(S'ch_tr'
I0
tp6
a(S'ch_p2'
I0
tp7
a(S'ch_p1'
I0
tp8
a(S'no_ll'
I0
tp9
a(S'tr_ll'
I0
tp10
a(S'p2_ll'
I0
tp11
a(S'p1_ll'
I0
tp12
a(S'w'
I2
tp13
a(S'ch_no'
I1
tp14
a(S'ch_tr'
I1
tp15
a(S'ch_p2'
I1
tp16
a(S'ch_p1'
I1
tp17
a(S'w'
I18
tp18
a(S'p2_tl'
I212
tp19
a(S'w'
I1
tp20
a(S'p2_ll'
I1
tp21
a(S'w'
I2
tp22
a(S'p2_tl'
I214
tp23
a(S'w'
I1
tp24
a(S'p2_du'
I2
tp25
a(S'p2_cv'
I1
tp26
a(S'p2_vo'
I8
tp27
a(S'p2_sp'
I7
tp28
a(S'p2_sn'
I1
tp29
a(S'p2_ss'
I7
tp30
a(S'w'
I3
tp31
a(S'p1_tl'
I82
tp32
a(S'p1_ll'
I1
tp33
a(S'p1_th'
I1
tp34
a(S'w'
I2
tp35
a(S'p1_tl'
I84
tp36
a(S'w'
I1
tp37
a(S'p1_du'
I2
tp38
a(S'p1_cv'
I1
tp39
a(S'p1_vo'
I8
tp40
a(S'p1_sp'
I7
tp41
a(S'p1_sn'
I1
tp42
a(S'p1_ss'
I7
tp43
a(S'w'
I2
tp44
a(S'tr_lr'
I31
tp45
a(S'w'
I1
tp46
a(S'tr_tl'
I171
tp47
a(S'w'
I1
tp48
a(S'tr_ll'
I1
tp49
a(S'tr_th'
I1
tp50
a(S'w'
I715
tp51
a(S'p2_tl'
I210
tp52
a(S'w'
I3
tp53
a(S'p1_tl'
I80
tp54
a(S'w'
I731
tp55
a(S'w'
I3
tp56
a(S'w'
I731
tp57
a(S'w'
I3
tp58
a(S'w'
I731
tp59
a(S'w'
I1
tp60
a(S'p2_vo'
I7
tp61
a(S'w'
I2
tp62
a(S'w'
I1
tp63
a(S'p1_vo'
I7
tp64
a(S'w'
I729
tp65
a(S'p2_tl'
I214
tp66
a(S'w'
I3
tp67
a(S'p1_tl'
I84
tp68
a(S'w'
I731
tp69
a(S'w'
I3
tp70
a(S'w'
I731
tp71
a(S'w'
I3
tp72
a(S'w'
I731
tp73
a(S'w'
I3
tp74
a(S'w'
I731
tp75
a(S'p2_tl'
I210
tp76
a(S'w'
I3
tp77
a(S'p1_tl'
I80
tp78
a(S'w'
I730
tp79
a(S'w'
I1
tp80
a(S'p2_vo'
I6
tp81
a(S'w'
I2
tp82
a(S'w'
I1
tp83
a(S'p1_vo'
I6
tp84
a(S'w'
I730
tp85
a(S'w'
I3
tp86
a(S'w'
I731
tp87
a(S'w'
I3
tp88
a(S'w'
I4
tp89
a(S'tr_tl'
I28
tp90
a(S'tr_ll'
I1
tp91
a(S'w'
I727
tp92
a(S'p2_tl'
I214
tp93
a(S'w'
I3
tp94
a(S'p1_tl'
I84
tp95
a(S'w'
I731
tp96
a(S'w'
I3
tp97
a(S'w'
I730
tp98
a(S'w'
I3
tp99
a(S'w'
I731
tp100
a(S'w'
I1
tp101
a(S'p2_vo'
I5
tp102
a(S'w'
I2
tp103
a(S'w'
I1
tp104
a(S'p1_vo'
I5
tp105
a(S'w'
I730
tp106
a(S'p2_tl'
I210
tp107
a(S'w'
I3
tp108
a(S'p1_tl'
I80
tp109
a(S'w'
I731
tp110
a(S'w'
I3
tp111
a(S'w'
I731
tp112
a(S'w'
I3
tp113
a(S'w'
I730
tp114
a(S'w'
I3
tp115
a(S'w'
I731
tp116
a(S'p2_tl'
I214
tp117
a(S'w'
I3
tp118
a(S'p1_tl'
I84
tp119
a(S'w'
I731
tp120
a(S'w'
I1
tp121
a(S'p2_vo'
I4
tp122
a(S'w'
I2
tp123
a(S'w'
I1
tp124
a(S'p1_vo'
I4
tp125
a(S'w'
I730
tp126
a(S'w'
I3
tp127
a(S'w'
I731
tp128
a(S'w'
I3
tp129
a(S'w'
I4
tp130
a(S'tr_tl'
I82
tp131
a(S'tr_ll'
I1
tp132
a(S'w'
I726
tp133
a(S'p2_tl'
I210
tp134
a(S'w'
I3
tp135
a(S'p1_tl'
I80
tp136
a(S'w'
I731
tp137
a(S'w'
I3
tp138
a(S'w'
I731
tp139
a(S'w'
I3
tp140
a(S'w'
I731
tp141
a(S'w'
I1
tp142
a(S'p2_vo'
I3
tp143
a(S'w'
I2
tp144
a(S'w'
I1
tp145
a(S'p1_vo'
I3
tp146
a(S'w'
I729
tp147
a(S'p2_tl'
I214
tp148
a(S'w'
I3
tp149
a(S'p1_tl'
I84
tp150
a(S'w'
I731
tp151
a(S'w'
I3
tp152
a(S'w'
I731
tp153
a(S'w'
I3
tp154
a(S'w'
I731
tp155
a(S'w'
I3
tp156
a(S'w'
I731
tp157
a(S'p2_tl'
I210
tp158
a(S'w'
I3
tp159
a(S'p1_tl'
I80
tp160
a(S'w'
I730
tp161
a(S'w'
I1
tp162
a(S'p2_vo'
I2
tp163
a(S'w'
I2
tp164
a(S'w'
I1
tp165
a(S'p1_vo'
I2
tp166
a(S'w'
I730
tp167
a(S'w'
I3
tp168
a(S'w'
I732
tp169
a(S'p2_tl'
I238
tp170
a(S'p2_ll'
I1
tp171
a(S'w'
I2
tp172
a(S'p2_tl'
I240
tp173
a(S'w'
I1
tp174
a(S'p2_vo'
I8
tp175
a(S'w'
I3
tp176
a(S'p1_tl'
I124
tp177
a(S'w'
I1
tp178
a(S'p1_ll'
I1
tp179
a(S'w'
I1
tp180
a(S'p1_tl'
I126
tp181
a(S'w'
I1
tp182
a(S'p1_vo'
I8
tp183
a(S'w'
I3
tp184
a(S'tr_tl'
I63
tp185
a(S'w'
I1
tp186
a(S'tr_ll'
I1
tp187
a(S'w'
I720
tp188
a(S'w'
I3
tp189
a(S'w'
I731
tp190
a(S'w'
I3
tp191
a(S'w'
I730
tp192
a(S'p2_tl'
I236
tp193
a(S'w'
I3
tp194
a(S'p1_tl'
I122
tp195
a(S'w'
I731
tp196
a(S'w'
I1
tp197
a(S'p2_vo'
I7
tp198
a(S'w'
I2
tp199
a(S'w'
I1
tp200
a(S'p1_vo'
I7
tp201
a(S'w'
I730
tp202
a(S'w'
I3
tp203
a(S'w'
I732
tp204
a(S'p2_tl'
I212
tp205
a(S'p2_ll'
I1
tp206
a(S'w'
I2
tp207
a(S'p2_tl'
I214
tp208
a(S'w'
I1
tp209
a(S'p2_vo'
I8
tp210
a(S'w'
I3
tp211
a(S'p1_tl'
I82
tp212
a(S'w'
I1
tp213
a(S'p1_ll'
I1
tp214
a(S'w'
I1
tp215
a(S'p1_tl'
I84
tp216
a(S'w'
I1
tp217
a(S'p1_vo'
I8
tp218
a(S'w'
I3
tp219
a(S'tr_tl'
I28
tp220
a(S'w'
I1
tp221
a(S'tr_ll'
I1
tp222
a(S'w'
I720
tp223
a(S'w'
I3
tp224
a(S'w'
I730
tp225
a(S'w'
I3
tp226
a(S'w'
I731
tp227
a(S'p2_tl'
I210
tp228
a(S'w'
I3
tp229
a(S'p1_tl'
I80
tp230
a(S'w'
I731
tp231
a(S'w'
I1
tp232
a(S'p2_vo'
I7
tp233
a(S'w'
I2
tp234
a(S'w'
I1
tp235
a(S'p1_vo'
I7
tp236
a(S'w'
I730
tp237
a(S'w'
I3
tp238
a(S'w'
I732
tp239
a(S'p2_tl'
I238
tp240
a(S'p2_ll'
I1
tp241
a(S'w'
I2
tp242
a(S'p2_tl'
I236
tp243
a(S'w'
I1
tp244
a(S'p2_vo'
I8
tp245
a(S'w'
I3
tp246
a(S'p1_tl'
I124
tp247
a(S'w'
I1
tp248
a(S'p1_ll'
I1
tp249
a(S'w'
I1
tp250
a(S'p1_tl'
I122
tp251
a(S'w'
I1
tp252
a(S'p1_vo'
I8
tp253
a(S'w'
I4
tp254
a(S'tr_tl'
I63
tp255
a(S'tr_ll'
I1
tp256
a(S'w'
I719
tp257
a(S'p2_tl'
I240
tp258
a(S'w'
I3
tp259
a(S'p1_tl'
I126
tp260
a(S'w'
I731
tp261
a(S'w'
I3
tp262
a(S'w'
I731
tp263
a(S'w'
I3
tp264
a(S'w'
I731
tp265
a(S'w'
I1
tp266
a(S'p2_vo'
I7
tp267
a(S'w'
I2
tp268
a(S'w'
I1
tp269
a(S'p1_vo'
I7
tp270
a(S'w'
I729
tp271
a(S'p2_tl'
I236
tp272
a(S'w'
I3
tp273
a(S'p1_tl'
I122
tp274
a(S'w'
I731
tp275
a(S'w'
I3
tp276
a(S'w'
I731
tp277
a(S'w'
I3
tp278
a(S'w'
I731
tp279
a(S'w'
I3
tp280
a(S'w'
I731
tp281
a(S'p2_tl'
I240
tp282
a(S'w'
I3
tp283
a(S'p1_tl'
I126
tp284
a(S'w'
I730
tp285
a(S'w'
I1
tp286
a(S'p2_vo'
I6
tp287
a(S'w'
I2
tp288
a(S'w'
I1
tp289
a(S'p1_vo'
I6
tp290
a(S'w'
I730
tp291
a(S'w'
I3
tp292
a(S'w'
I731
tp293
a(S'w'
I3
tp294
a(S'w'
I4
tp295
a(S'tr_tl'
I124
tp296
a(S'tr_ll'
I1
tp297
a(S'w'
I727
tp298
a(S'p2_tl'
I236
tp299
a(S'w'
I3
tp300
a(S'p1_tl'
I122
tp301
a(S'w'
I731
tp302
a(S'w'
I3
tp303
a(S'w'
I730
tp304
a(S'w'
I3
tp305
a(S'w'
I731
tp306
a(S'w'
I1
tp307
a(S'p2_vo'
I5
tp308
a(S'w'
I2
tp309
a(S'w'
I1
tp310
a(S'p1_vo'
I5
tp311
a(S'w'
I730
tp312
a(S'p2_tl'
I240
tp313
a(S'w'
I3
tp314
a(S'p1_tl'
I126
tp315
a(S'w'
I731
tp316
a(S'w'
I3
tp317
a(S'w'
I731
tp318
a(S'w'
I3
tp319
a(S'w'
I730
tp320
a(S'w'
I3
tp321
a(S'w'
I731
tp322
a(S'p2_tl'
I236
tp323
a(S'w'
I3
tp324
a(S'p1_tl'
I122
tp325
a(S'w'
I731
tp326
a(S'w'
I1
tp327
a(S'p2_vo'
I4
tp328
a(S'w'
I2
tp329
a(S'w'
I1
tp330
a(S'p1_vo'
I4
tp331
a(S'w'
I730
tp332
a(S'w'
I3
tp333
a(S'w'
I732
tp334
a(S'p2_tl'
I189
tp335
a(S'p2_ll'
I1
tp336
a(S'w'
I2
tp337
a(S'p2_tl'
I187
tp338
a(S'w'
I1
tp339
a(S'p2_vo'
I8
tp340
a(S'w'
I3
tp341
a(S'p1_tl'
I63
tp342
a(S'w'
I1
tp343
a(S'p1_ll'
I1
tp344
a(S'w'
I1
tp345
a(S'p1_tl'
I61
tp346
a(S'w'
I1
tp347
a(S'p1_vo'
I8
tp348
a(S'w'
I4
tp349
a(S'tr_tl'
I238
tp350
a(S'tr_ll'
I1
tp351
a(S'tr_th'
I0
tp352
a(S'w'
I719
tp353
a(S'w'
I3
tp354
a(S'w'
I731
tp355
a(S'w'
I3
tp356
a(S'w'
I731
tp357
a(S'p2_tl'
I191
tp358
a(S'w'
I3
tp359
a(S'p1_tl'
I65
tp360
a(S'w'
I731
tp361
a(S'w'
I1
tp362
a(S'p2_vo'
I7
tp363
a(S'w'
I2
tp364
a(S'w'
I1
tp365
a(S'p1_vo'
I7
tp366
a(S'w'
I729
tp367
a(S'w'
I3
tp368
a(S'w'
I731
tp369
a(S'w'
I3
tp370
a(S'w'
I731
tp371
a(S'p2_tl'
I187
tp372
a(S'w'
I3
tp373
a(S'p1_tl'
I61
tp374
a(S'w'
I731
tp375
a(S'w'
I3
tp376
a(S'w'
I731
tp377
a(S'w'
I3
tp378
a(S'w'
I730
tp379
a(S'w'
I1
tp380
a(S'p2_vo'
I6
tp381
a(S'w'
I2
tp382
a(S'w'
I1
tp383
a(S'p1_vo'
I6
tp384
a(S'w'
I730
tp385
a(S'p2_tl'
I191
tp386
a(S'w'
I3
tp387
a(S'p1_tl'
I65
tp388
a(S'w'
I731
tp389
a(S'w'
I3
tp390
a(S'w'
I731
tp391
a(S'w'
I3
tp392
a(S'w'
I731
tp393
a(S'w'
I3
tp394
a(S'w'
I730
tp395
a(S'p2_tl'
I187
tp396
a(S'w'
I3
tp397
a(S'p1_tl'
I61
tp398
a(S'w'
I731
tp399
a(S'w'
I1
tp400
a(S'p2_vo'
I5
tp401
a(S'w'
I2
tp402
a(S'w'
I1
tp403
a(S'p1_vo'
I5
tp404
a(S'w'
I730
tp405
a(S'w'
I3
tp406
a(S'w'
I732
tp407
a(S'p2_tl'
I189
tp408
a(S'p2_ll'
I1
tp409
a(S'w'
I2
tp410
a(S'p2_tl'
I191
tp411
a(S'w'
I1
tp412
a(S'p2_vo'
I8
tp413
a(S'w'
I3
tp414
a(S'p1_tl'
I63
tp415
a(S'w'
I1
tp416
a(S'p1_ll'
I1
tp417
a(S'w'
I1
tp418
a(S'p1_tl'
I65
tp419
a(S'w'
I1
tp420
a(S'p1_vo'
I8
tp421
a(S'w'
I4
tp422
a(S'tr_ll'
I1
tp423
a(S'w'
I720
tp424
a(S'w'
I3
tp425
a(S'w'
I730
tp426
a(S'w'
I3
tp427
a(S'w'
I731
tp428
a(S'p2_tl'
I187
tp429
a(S'w'
I3
tp430
a(S'p1_tl'
I61
tp431
a(S'w'
I731
tp432
a(S'w'
I1
tp433
a(S'p2_vo'
I7
tp434
a(S'w'
I2
tp435
a(S'w'
I1
tp436
a(S'p1_vo'
I7
tp437
a(S'w'
I730
tp438
a(S'w'
I3
tp439
a(S'w'
I736
tp440
a(S'p2_tl'
I212
tp441
a(S'p2_ll'
I1
tp442
a(S'w'
I2
tp443
a(S'p2_tl'
I214
tp444
a(S'w'
I1
tp445
a(S'p2_vo'
I8
tp446
a(S'w'
I3
tp447
a(S'p1_tl'
I82
tp448
a(S'p1_ll'
I1
tp449
a(S'w'
I2
tp450
a(S'p1_tl'
I84
tp451
a(S'w'
I1
tp452
a(S'p1_vo'
I8
tp453
a(S'w'
I3
tp454
a(S'tr_tl'
I171
tp455
a(S'w'
I1
tp456
a(S'tr_ll'
I1
tp457
a(S'tr_th'
I1
tp458
a(S'w'
I715
tp459
a(S'p2_tl'
I210
tp460
a(S'w'
I3
tp461
a(S'p1_tl'
I80
tp462
a(S'w'
I731
tp463
a(S'w'
I3
tp464
a(S'w'
I731
tp465
a(S'w'
I3
tp466
a(S'w'
I731
tp467
a(S'w'
I1
tp468
a(S'p2_vo'
I7
tp469
a(S'w'
I2
tp470
a(S'w'
I1
tp471
a(S'p1_vo'
I7
tp472
a(S'w'
I729
tp473
a(S'p2_tl'
I214
tp474
a(S'w'
I3
tp475
a(S'p1_tl'
I84
tp476
a(S'w'
I731
tp477
a(S'w'
I3
tp478
a(S'w'
I731
tp479
a(S'w'
I3
tp480
a(S'w'
I731
tp481
a(S'w'
I3
tp482
a(S'w'
I731
tp483
a(S'p2_tl'
I210
tp484
a(S'w'
I3
tp485
a(S'p1_tl'
I80
tp486
a(S'w'
I730
tp487
a(S'w'
I1
tp488
a(S'p2_vo'
I6
tp489
a(S'w'
I2
tp490
a(S'w'
I1
tp491
a(S'p1_vo'
I6
tp492
a(S'w'
I730
tp493
a(S'w'
I3
tp494
a(S'w'
I731
tp495
a(S'w'
I3
tp496
a(S'w'
I4
tp497
a(S'tr_tl'
I28
tp498
a(S'tr_ll'
I1
tp499
a(S'w'
I727
tp500
a(S'p2_tl'
I214
tp501
a(S'w'
I3
tp502
a(S'p1_tl'
I84
tp503
a(S'w'
I731
tp504
a(S'w'
I3
tp505
a(S'w'
I730
tp506
a(S'w'
I3
tp507
a(S'w'
I731
tp508
a(S'w'
I1
tp509
a(S'p2_vo'
I5
tp510
a(S'w'
I2
tp511
a(S'w'
I1
tp512
a(S'p1_vo'
I5
tp513
a(S'w'
I730
tp514
a(S'p2_tl'
I210
tp515
a(S'w'
I3
tp516
a(S'p1_tl'
I80
tp517
a(S'w'
I731
tp518
a(S'w'
I3
tp519
a(S'w'
I731
tp520
a(S'w'
I3
tp521
a(S'w'
I730
tp522
a(S'w'
I3
tp523
a(S'w'
I731
tp524
a(S'p2_tl'
I214
tp525
a(S'w'
I3
tp526
a(S'p1_tl'
I84
tp527
a(S'w'
I731
tp528
a(S'w'
I1
tp529
a(S'p2_vo'
I4
tp530
a(S'w'
I2
tp531
a(S'w'
I1
tp532
a(S'p1_vo'
I4
tp533
a(S'w'
I730
tp534
a(S'w'
I3
tp535
a(S'w'
I731
tp536
a(S'w'
I3
tp537
a(S'w'
I4
tp538
a(S'tr_tl'
I82
tp539
a(S'tr_ll'
I1
tp540
a(S'w'
I726
tp541
a(S'p2_tl'
I210
tp542
a(S'w'
I3
tp543
a(S'p1_tl'
I80
tp544
a(S'w'
I731
tp545
a(S'w'
I3
tp546
a(S'w'
I731
tp547
a(S'w'
I3
tp548
a(S'w'
I731
tp549
a(S'w'
I1
tp550
a(S'p2_vo'
I3
tp551
a(S'w'
I2
tp552
a(S'w'
I1
tp553
a(S'p1_vo'
I3
tp554
a(S'w'
I729
tp555
a(S'p2_tl'
I214
tp556
a(S'w'
I3
tp557
a(S'p1_tl'
I84
tp558
a(S'w'
I731
tp559
a(S'w'
I3
tp560
a(S'w'
I731
tp561
a(S'w'
I3
tp562
a(S'w'
I731
tp563
a(S'w'
I3
tp564
a(S'w'
I731
tp565
a(S'p2_tl'
I210
tp566
a(S'w'
I3
tp567
a(S'p1_tl'
I80
tp568
a(S'w'
I730
tp569
a(S'w'
I1
tp570
a(S'p2_vo'
I2
tp571
a(S'w'
I2
tp572
a(S'w'
I1
tp573
a(S'p1_vo'
I2
tp574
a(S'w'
I730
tp575
a(S'w'
I3
tp576
a(S'w'
I732
tp577
a(S'p2_tl'
I238
tp578
a(S'p2_ll'
I1
tp579
a(S'w'
I2
tp580
a(S'p2_tl'
I240
tp581
a(S'w'
I1
tp582
a(S'p2_vo'
I8
tp583
a(S'w'
I3
tp584
a(S'p1_tl'
I124
tp585
a(S'w'
I1
tp586
a(S'p1_ll'
I1
tp587
a(S'w'
I1
tp588
a(S'p1_tl'
I126
tp589
a(S'w'
I1
tp590
a(S'p1_vo'
I8
tp591
a(S'w'
I3
tp592
a(S'tr_tl'
I63
tp593
a(S'w'
I1
tp594
a(S'tr_ll'
I1
tp595
a(S'w'
I720
tp596
a(S'w'
I3
tp597
a(S'w'
I731
tp598
a(S'w'
I3
tp599
a(S'w'
I730
tp600
a(S'p2_tl'
I236
tp601
a(S'w'
I3
tp602
a(S'p1_tl'
I122
tp603
a(S'w'
I731
tp604
a(S'w'
I1
tp605
a(S'p2_vo'
I7
tp606
a(S'w'
I2
tp607
a(S'w'
I1
tp608
a(S'p1_vo'
I7
tp609
a(S'w'
I730
tp610
a(S'w'
I3
tp611
a(S'w'
I732
tp612
a(S'p2_tl'
I212
tp613
a(S'p2_ll'
I1
tp614
a(S'w'
I2
tp615
a(S'p2_tl'
I214
tp616
a(S'w'
I1
tp617
a(S'p2_vo'
I8
tp618
a(S'w'
I3
tp619
a(S'p1_tl'
I82
tp620
a(S'w'
I1
tp621
a(S'p1_ll'
I1
tp622
a(S'w'
I1
tp623
a(S'p1_tl'
I84
tp624
a(S'w'
I1
tp625
a(S'p1_vo'
I8
tp626
a(S'w'
I3
tp627
a(S'tr_tl'
I28
tp628
a(S'w'
I1
tp629
a(S'tr_ll'
I1
tp630
a(S'w'
I720
tp631
a(S'w'
I3
tp632
a(S'w'
I730
tp633
a(S'w'
I3
tp634
a(S'w'
I731
tp635
a(S'p2_tl'
I210
tp636
a(S'w'
I3
tp637
a(S'p1_tl'
I80
tp638
a(S'w'
I731
tp639
a(S'w'
I1
tp640
a(S'p2_vo'
I7
tp641
a(S'w'
I2
tp642
a(S'w'
I1
tp643
a(S'p1_vo'
I7
tp644
a(S'w'
I730
tp645
a(S'w'
I3
tp646
a(S'w'
I732
tp647
a(S'p2_tl'
I238
tp648
a(S'p2_ll'
I1
tp649
a(S'w'
I2
tp650
a(S'p2_tl'
I236
tp651
a(S'w'
I1
tp652
a(S'p2_vo'
I8
tp653
a(S'w'
I3
tp654
a(S'p1_tl'
I124
tp655
a(S'w'
I1
tp656
a(S'p1_ll'
I1
tp657
a(S'w'
I1
tp658
a(S'p1_tl'
I122
tp659
a(S'w'
I1
tp660
a(S'p1_vo'
I8
tp661
a(S'w'
I4
tp662
a(S'tr_tl'
I63
tp663
a(S'tr_ll'
I1
tp664
a(S'w'
I719
tp665
a(S'p2_tl'
I240
tp666
a(S'w'
I3
tp667
a(S'p1_tl'
I126
tp668
a(S'w'
I731
tp669
a(S'w'
I3
tp670
a(S'w'
I731
tp671
a(S'w'
I3
tp672
a(S'w'
I731
tp673
a(S'w'
I1
tp674
a(S'p2_vo'
I7
tp675
a(S'w'
I2
tp676
a(S'w'
I1
tp677
a(S'p1_vo'
I7
tp678
a(S'w'
I729
tp679
a(S'p2_tl'
I236
tp680
a(S'w'
I3
tp681
a(S'p1_tl'
I122
tp682
a(S'w'
I731
tp683
a(S'w'
I3
tp684
a(S'w'
I731
tp685
a(S'w'
I3
tp686
a(S'w'
I731
tp687
a(S'w'
I3
tp688
a(S'w'
I731
tp689
a(S'p2_tl'
I240
tp690
a(S'w'
I3
tp691
a(S'p1_tl'
I126
tp692
a(S'w'
I730
tp693
a(S'w'
I1
tp694
a(S'p2_vo'
I6
tp695
a(S'w'
I2
tp696
a(S'w'
I1
tp697
a(S'p1_vo'
I6
tp698
a(S'w'
I730
tp699
a(S'w'
I3
tp700
a(S'w'
I731
tp701
a(S'w'
I3
tp702
a(S'w'
I4
tp703
a(S'tr_tl'
I124
tp704
a(S'tr_ll'
I1
tp705
a(S'w'
I727
tp706
a(S'p2_tl'
I236
tp707
a(S'w'
I3
tp708
a(S'p1_tl'
I122
tp709
a(S'w'
I731
tp710
a(S'w'
I3
tp711
a(S'w'
I730
tp712
a(S'w'
I3
tp713
a(S'w'
I731
tp714
a(S'w'
I1
tp715
a(S'p2_vo'
I5
tp716
a(S'w'
I2
tp717
a(S'w'
I1
tp718
a(S'p1_vo'
I5
tp719
a(S'w'
I730
tp720
a(S'p2_tl'
I240
tp721
a(S'w'
I3
tp722
a(S'p1_tl'
I126
tp723
a(S'w'
I731
tp724
a(S'w'
I3
tp725
a(S'w'
I731
tp726
a(S'w'
I3
tp727
a(S'w'
I730
tp728
a(S'w'
I3
tp729
a(S'w'
I731
tp730
a(S'p2_tl'
I236
tp731
a(S'w'
I3
tp732
a(S'p1_tl'
I122
tp733
a(S'w'
I731
tp734
a(S'w'
I1
tp735
a(S'p2_vo'
I4
tp736
a(S'w'
I2
tp737
a(S'w'
I1
tp738
a(S'p1_vo'
I4
tp739
a(S'w'
I730
tp740
a(S'w'
I3
tp741
a(S'w'
I732
tp742
a(S'p2_tl'
I189
tp743
a(S'p2_ll'
I1
tp744
a(S'w'
I2
tp745
a(S'p2_tl'
I187
tp746
a(S'w'
I1
tp747
a(S'p2_vo'
I8
tp748
a(S'w'
I3
tp749
a(S'p1_tl'
I63
tp750
a(S'w'
I1
tp751
a(S'p1_ll'
I1
tp752
a(S'w'
I1
tp753
a(S'p1_tl'
I61
tp754
a(S'w'
I1
tp755
a(S'p1_vo'
I8
tp756
a(S'w'
I4
tp757
a(S'tr_tl'
I238
tp758
a(S'tr_ll'
I1
tp759
a(S'tr_th'
I0
tp760
a(S'w'
I719
tp761
a(S'w'
I3
tp762
a(S'w'
I731
tp763
a(S'w'
I3
tp764
a(S'w'
I731
tp765
a(S'p2_tl'
I191
tp766
a(S'w'
I3
tp767
a(S'p1_tl'
I65
tp768
a(S'w'
I731
tp769
a(S'w'
I1
tp770
a(S'p2_vo'
I7
tp771
a(S'w'
I2
tp772
a(S'w'
I1
tp773
a(S'p1_vo'
I7
tp774
a(S'w'
I729
tp775
a(S'w'
I3
tp776
a(S'w'
I731
tp777
a(S'w'
I3
tp778
a(S'w'
I731
tp779
a(S'p2_tl'
I187
tp780
a(S'w'
I3
tp781
a(S'p1_tl'
I61
tp782
a(S'w'
I731
tp783
a(S'w'
I3
tp784
a(S'w'
I731
tp785
a(S'w'
I3
tp786
a(S'w'
I730
tp787
a(S'w'
I1
tp788
a(S'p2_vo'
I6
tp789
a(S'w'
I2
tp790
a(S'w'
I1
tp791
a(S'p1_vo'
I6
tp792
a(S'w'
I730
tp793
a(S'p2_tl'
I191
tp794
a(S'w'
I3
tp795
a(S'p1_tl'
I65
tp796
a(S'w'
I731
tp797
a(S'w'
I3
tp798
a(S'w'
I731
tp799
a(S'w'
I3
tp800
a(S'w'
I731
tp801
a(S'w'
I3
tp802
a(S'w'
I730
tp803
a(S'p2_tl'
I187
tp804
a(S'w'
I3
tp805
a(S'p1_tl'
I61
tp806
a(S'w'
I731
tp807
a(S'w'
I1
tp808
a(S'p2_vo'
I5
tp809
a(S'w'
I2
tp810
a(S'w'
I1
tp811
a(S'p1_vo'
I5
tp812
a(S'w'
I730
tp813
a(S'w'
I3
tp814
a(S'w'
I732
tp815
a(S'p2_tl'
I189
tp816
a(S'p2_ll'
I1
tp817
a(S'w'
I2
tp818
a(S'p2_tl'
I191
tp819
a(S'w'
I1
tp820
a(S'p2_vo'
I8
tp821
a(S'w'
I3
tp822
a(S'p1_tl'
I63
tp823
a(S'w'
I1
tp824
a(S'p1_ll'
I1
tp825
a(S'w'
I1
tp826
a(S'p1_tl'
I65
tp827
a(S'w'
I1
tp828
a(S'p1_vo'
I8
tp829
a(S'w'
I4
tp830
a(S'tr_ll'
I1
tp831
a(S'w'
I720
tp832
a(S'w'
I3
tp833
a(S'w'
I730
tp834
a(S'w'
I3
tp835
a(S'w'
I731
tp836
a(S'p2_tl'
I187
tp837
a(S'w'
I3
tp838
a(S'p1_tl'
I61
tp839
a(S'w'
I731
tp840
a(S'w'
I1
tp841
a(S'p2_vo'
I7
tp842
a(S'w'
I2
tp843
a(S'w'
I1
tp844
a(S'p1_vo'
I7
tp845
a(S'w'
I730
tp846
a(S'w'
I3
tp847
a(S'w'
I736
tp848
a(S'p2_tl'
I212
tp849
a(S'p2_ll'
I1
tp850
a(S'w'
I2
tp851
a(S'p2_tl'
I210
tp852
a(S'w'
I1
tp853
a(S'p2_vo'
I8
tp854
a(S'w'
I3
tp855
a(S'p1_tl'
I28
tp856
a(S'w'
I1
tp857
a(S'p1_ll'
I1
tp858
a(S'w'
I1
tp859
a(S'p1_tl'
I26
tp860
a(S'w'
I1
tp861
a(S'p1_vo'
I8
tp862
a(S'w'
I4
tp863
a(S'tr_tl'
I212
tp864
a(S'tr_ll'
I1
tp865
a(S'w'
I715
tp866
a(S'p2_tl'
I214
tp867
a(S'w'
I3
tp868
a(S'p1_tl'
I30
tp869
a(S'w'
I731
tp870
a(S'w'
I3
tp871
a(S'w'
I731
tp872
a(S'w'
I3
tp873
a(S'w'
I731
tp874
a(S'w'
I1
tp875
a(S'p2_vo'
I7
tp876
a(S'w'
I2
tp877
a(S'w'
I1
tp878
a(S'p1_vo'
I7
tp879
a(S'w'
I729
tp880
a(S'p2_tl'
I210
tp881
a(S'w'
I3
tp882
a(S'p1_tl'
I26
tp883
a(S'w'
I731
tp884
a(S'w'
I3
tp885
a(S'w'
I731
tp886
a(S'w'
I3
tp887
a(S'w'
I731
tp888
a(S'w'
I3
tp889
a(S'w'
I731
tp890
a(S'p2_tl'
I214
tp891
a(S'w'
I3
tp892
a(S'p1_tl'
I30
tp893
a(S'w'
I730
tp894
a(S'w'
I1
tp895
a(S'p2_vo'
I6
tp896
a(S'w'
I2
tp897
a(S'w'
I1
tp898
a(S'p1_vo'
I6
tp899
a(S'w'
I730
tp900
a(S'w'
I3
tp901
a(S'w'
I731
tp902
a(S'w'
I3
tp903
a(S'w'
I731
tp904
a(S'p2_tl'
I210
tp905
a(S'w'
I3
tp906
a(S'p1_tl'
I26
tp907
a(S'w'
I731
tp908
a(S'w'
I3
tp909
a(S'w'
I730
tp910
a(S'w'
I3
tp911
a(S'w'
I731
tp912
a(S'w'
I1
tp913
a(S'p2_vo'
I5
tp914
a(S'w'
I2
tp915
a(S'w'
I1
tp916
a(S'p1_vo'
I5
tp917
a(S'w'
I730
tp918
a(S'p2_tl'
I214
tp919
a(S'w'
I3
tp920
a(S'p1_tl'
I30
tp921
a(S'w'
I731
tp922
a(S'w'
I3
tp923
a(S'w'
I731
tp924
a(S'w'
I3
tp925
a(S'w'
I730
tp926
a(S'w'
I3
tp927
a(S'w'
I731
tp928
a(S'p2_tl'
I210
tp929
a(S'w'
I3
tp930
a(S'p1_tl'
I26
tp931
a(S'w'
I731
tp932
a(S'w'
I1
tp933
a(S'p2_vo'
I4
tp934
a(S'w'
I2
tp935
a(S'w'
I1
tp936
a(S'p1_vo'
I4
tp937
a(S'w'
I730
tp938
a(S'w'
I3
tp939
a(S'w'
I732
tp940
a(S'p2_tl'
I171
tp941
a(S'p2_ll'
I1
tp942
a(S'p2_th'
I1
tp943
a(S'w'
I2
tp944
a(S'p2_tl'
I173
tp945
a(S'w'
I1
tp946
a(S'p2_vo'
I8
tp947
a(S'w'
I3
tp948
a(S'p1_tl'
I58
tp949
a(S'w'
I1
tp950
a(S'p1_ll'
I1
tp951
a(S'p1_th'
I2
tp952
a(S'w'
I1
tp953
a(S'p1_tl'
I60
tp954
a(S'w'
I1
tp955
a(S'p1_vo'
I8
tp956
a(S'w'
I3
tp957
a(S'tr_tl'
I171
tp958
a(S'w'
I1
tp959
a(S'tr_ll'
I1
tp960
a(S'tr_th'
I1
tp961
a(S'w'
I719
tp962
a(S'w'
I3
tp963
a(S'w'
I731
tp964
a(S'w'
I3
tp965
a(S'w'
I731
tp966
a(S'p2_tl'
I169
tp967
a(S'w'
I3
tp968
a(S'p1_tl'
I56
tp969
a(S'w'
I731
tp970
a(S'w'
I1
tp971
a(S'p2_vo'
I7
tp972
a(S'w'
I2
tp973
a(S'w'
I1
tp974
a(S'p1_vo'
I7
tp975
a(S'w'
I729
tp976
a(S'w'
I3
tp977
a(S'w'
I732
tp978
a(S'p2_tl'
I171
tp979
a(S'p2_ll'
I1
tp980
a(S'w'
I2
tp981
a(S'p2_tl'
I173
tp982
a(S'w'
I1
tp983
a(S'p2_vo'
I8
tp984
a(S'w'
I3
tp985
a(S'p1_tl'
I58
tp986
a(S'w'
I1
tp987
a(S'p1_ll'
I1
tp988
a(S'w'
I1
tp989
a(S'p1_tl'
I60
tp990
a(S'w'
I1
tp991
a(S'p1_vo'
I8
tp992
a(S'w'
I4
tp993
a(S'tr_ll'
I1
tp994
a(S'w'
I720
tp995
a(S'w'
I3
tp996
a(S'w'
I731
tp997
a(S'w'
I3
tp998
a(S'w'
I731
tp999
a(S'p2_tl'
I169
tp1000
a(S'w'
I3
tp1001
a(S'p1_tl'
I56
tp1002
a(S'w'
I730
tp1003
a(S'w'
I1
tp1004
a(S'p2_vo'
I7
tp1005
a(S'w'
I2
tp1006
a(S'w'
I1
tp1007
a(S'p1_vo'
I7
tp1008
a(S'w'
I730
tp1009
a(S'w'
I3
tp1010
a(S'w'
I732
tp1011
a(S'p2_tl'
I171
tp1012
a(S'p2_ll'
I1
tp1013
a(S'w'
I2
tp1014
a(S'p2_tl'
I173
tp1015
a(S'w'
I1
tp1016
a(S'p2_vo'
I8
tp1017
a(S'w'
I3
tp1018
a(S'p1_tl'
I58
tp1019
a(S'w'
I1
tp1020
a(S'p1_ll'
I1
tp1021
a(S'w'
I1
tp1022
a(S'p1_tl'
I60
tp1023
a(S'w'
I1
tp1024
a(S'p1_vo'
I8
tp1025
a(S'w'
I4
tp1026
a(S'tr_ll'
I1
tp1027
a(S'w'
I720
tp1028
a(S'w'
I3
tp1029
a(S'w'
I731
tp1030
a(S'w'
I3
tp1031
a(S'w'
I730
tp1032
a(S'p2_tl'
I169
tp1033
a(S'w'
I3
tp1034
a(S'p1_tl'
I56
tp1035
a(S'w'
I731
tp1036
a(S'w'
I1
tp1037
a(S'p2_vo'
I7
tp1038
a(S'w'
I2
tp1039
a(S'w'
I1
tp1040
a(S'p1_vo'
I7
tp1041
a(S'w'
I730
tp1042
a(S'w'
I3
tp1043
a(S'w'
I732
tp1044
a(S'p2_tl'
I171
tp1045
a(S'p2_ll'
I1
tp1046
a(S'w'
I2
tp1047
a(S'p2_tl'
I173
tp1048
a(S'w'
I1
tp1049
a(S'p2_vo'
I8
tp1050
a(S'w'
I3
tp1051
a(S'p1_tl'
I58
tp1052
a(S'w'
I1
tp1053
a(S'p1_ll'
I1
tp1054
a(S'w'
I1
tp1055
a(S'p1_tl'
I60
tp1056
a(S'w'
I1
tp1057
a(S'p1_vo'
I8
tp1058
a(S'w'
I4
tp1059
a(S'tr_ll'
I1
tp1060
a(S'w'
I720
tp1061
a(S'w'
I3
tp1062
a(S'w'
I730
tp1063
a(S'w'
I3
tp1064
a(S'w'
I731
tp1065
a(S'p2_tl'
I169
tp1066
a(S'w'
I3
tp1067
a(S'p1_tl'
I56
tp1068
a(S'w'
I731
tp1069
a(S'w'
I1
tp1070
a(S'p2_vo'
I7
tp1071
a(S'w'
I2
tp1072
a(S'w'
I1
tp1073
a(S'p1_vo'
I7
tp1074
a(S'w'
I730
tp1075
a(S'w'
I3
tp1076
a(S'w'
I732
tp1077
a(S'p2_tl'
I171
tp1078
a(S'p2_ll'
I1
tp1079
a(S'w'
I2
tp1080
a(S'p2_tl'
I169
tp1081
a(S'w'
I1
tp1082
a(S'p2_vo'
I8
tp1083
a(S'w'
I3
tp1084
a(S'p1_tl'
I58
tp1085
a(S'w'
I1
tp1086
a(S'p1_ll'
I1
tp1087
a(S'w'
I1
tp1088
a(S'p1_tl'
I56
tp1089
a(S'w'
I1
tp1090
a(S'p1_vo'
I8
tp1091
a(S'w'
I4
tp1092
a(S'tr_ll'
I1
tp1093
a(S'w'
I719
tp1094
a(S'p2_tl'
I173
tp1095
a(S'w'
I3
tp1096
a(S'p1_tl'
I60
tp1097
a(S'w'
I731
tp1098
a(S'w'
I3
tp1099
a(S'w'
I731
tp1100
a(S'w'
I3
tp1101
a(S'w'
I731
tp1102
a(S'w'
I1
tp1103
a(S'p2_vo'
I7
tp1104
a(S'w'
I2
tp1105
a(S'w'
I1
tp1106
a(S'p1_vo'
I7
tp1107
a(S'w'
I729
tp1108
a(S'p2_tl'
I169
tp1109
a(S'w'
I3
tp1110
a(S'p1_tl'
I56
tp1111
a(S'w'
I731
tp1112
a(S'w'
I3
tp1113
a(S'w'
I731
tp1114
a(S'w'
I3
tp1115
a(S'w'
I731
tp1116
a(S'w'
I3
tp1117
a(S'w'
I731
tp1118
a(S'p2_tl'
I173
tp1119
a(S'w'
I3
tp1120
a(S'p1_tl'
I60
tp1121
a(S'w'
I730
tp1122
a(S'w'
I1
tp1123
a(S'p2_vo'
I6
tp1124
a(S'w'
I2
tp1125
a(S'w'
I1
tp1126
a(S'p1_vo'
I6
tp1127
a(S'w'
I730
tp1128
a(S'w'
I3
tp1129
a(S'w'
I731
tp1130
a(S'w'
I3
tp1131
a(S'w'
I731
tp1132
a(S'p2_tl'
I169
tp1133
a(S'w'
I3
tp1134
a(S'p1_tl'
I56
tp1135
a(S'w'
I731
tp1136
a(S'w'
I3
tp1137
a(S'w'
I730
tp1138
a(S'w'
I3
tp1139
a(S'w'
I731
tp1140
a(S'w'
I1
tp1141
a(S'p2_vo'
I5
tp1142
a(S'w'
I2
tp1143
a(S'w'
I1
tp1144
a(S'p1_vo'
I5
tp1145
a(S'w'
I730
tp1146
a(S'p2_tl'
I173
tp1147
a(S'w'
I3
tp1148
a(S'p1_tl'
I60
tp1149
a(S'w'
I731
tp1150
a(S'w'
I3
tp1151
a(S'w'
I731
tp1152
a(S'w'
I3
tp1153
a(S'w'
I730
tp1154
a(S'w'
I3
tp1155
a(S'w'
I731
tp1156
a(S'p2_tl'
I169
tp1157
a(S'w'
I3
tp1158
a(S'p1_tl'
I56
tp1159
a(S'w'
I731
tp1160
a(S'w'
I1
tp1161
a(S'p2_vo'
I4
tp1162
a(S'w'
I2
tp1163
a(S'w'
I1
tp1164
a(S'p1_vo'
I4
tp1165
a(S'w'
I730
tp1166
a(S'w'
I3
tp1167
a(S'w'
I731
tp1168
a(S'w'
I3
tp1169
a(S'w'
I730
tp1170
a(S'p2_tl'
I173
tp1171
a(S'w'
I3
tp1172
a(S'p1_tl'
I60
tp1173
a(S'w'
I731
tp1174
a(S'w'
I3
tp1175
a(S'w'
I731
tp1176
a(S'w'
I3
tp1177
a(S'w'
I731
tp1178
a(S'w'
I1
tp1179
a(S'p2_vo'
I3
tp1180
a(S'w'
I2
tp1181
a(S'w'
I1
tp1182
a(S'p1_vo'
I3
tp1183
a(S'w'
I729
tp1184
a(S'p2_tl'
I169
tp1185
a(S'w'
I3
tp1186
a(S'p1_tl'
I56
tp1187
a(S'w'
I731
tp1188
a(S'w'
I3
tp1189
a(S'w'
I731
tp1190
a(S'w'
I3
tp1191
a(S'w'
I731
tp1192
a(S'w'
I3
tp1193
a(S'w'
I731
tp1194
a(S'p2_tl'
I173
tp1195
a(S'w'
I3
tp1196
a(S'p1_tl'
I60
tp1197
a(S'w'
I730
tp1198
a(S'w'
I1
tp1199
a(S'p2_vo'
I2
tp1200
a(S'w'
I2
tp1201
a(S'w'
I1
tp1202
a(S'p1_vo'
I2
tp1203
a(S'w'
I730
tp1204
a(S'w'
I3
tp1205
a(S'w'
I731
tp1206
a(S'w'
I3
tp1207
a(S'w'
I731
tp1208
a(S'p2_tl'
I169
tp1209
a(S'w'
I3
tp1210
a(S'p1_tl'
I56
tp1211
a(S'w'
I731
tp1212
a(S'w'
I3
tp1213
a(S'w'
I730
tp1214
a(S'w'
I3
tp1215
a(S'w'
I731
tp1216
a(S'w'
I1
tp1217
a(S'p2_vo'
I1
tp1218
a(S'w'
I2
tp1219
a(S'w'
I1
tp1220
a(S'p1_vo'
I1
tp1221
a(S'w'
I730
tp1222
a(S'p2_tl'
I173
tp1223
a(S'w'
I3
tp1224
a(S'p1_tl'
I60
tp1225
a(S'w'
I731
tp1226
a(S'w'
I3
tp1227
a(S'w'
I731
tp1228
a(S'w'
I3
tp1229
a(S'w'
I730
tp1230
a(S'w'
I3
tp1231
a(S'w'
I731
tp1232
a(S'p2_tl'
I169
tp1233
a(S'w'
I3
tp1234
a(S'p1_tl'
I56
tp1235
a(S'w'
I731
tp1236
a(S'w'
I1
tp1237
a(S'p2_vo'
I0
tp1238
a(S'w'
I2
tp1239
a(S'w'
I1
tp1240
a(S'p1_vo'
I0
tp1241
a(S'w'
I730
tp1242
a(S'w'
I3
tp1243
a(S'w'
I733
tp1244
a(S'w'
I5
tp1245
a(S'w'
I726
tp1246
a(S'p2_tl'
I173
tp1247
a(S'w'
I2
tp1248
a(S'p1_tl'
I60
tp1249
a(S'w'
I732
tp1250
a(S'w'
I2
tp1251
a(S'w'
I732
tp1252
a(S'w'
I2
tp1253
a(S'w'
I732
tp1254
a(S'w'
I2
tp1255
a(S'w'
I731
tp1256
a(S'p2_tl'
I169
tp1257
a(S'w'
I3
tp1258
a(S'p1_tl'
I56
tp1259
a(S'w'
I731
tp1260
a(S'w'
I3
tp1261
a(S'w'
I731
tp1262
a(S'w'
I3
tp1263
a(S'w'
I731
tp1264
a(S'w'
I3
tp1265
a(S'w'
I731
tp1266
a(S'p2_tl'
I173
tp1267
a(S'w'
I2
tp1268
a(S'p1_tl'
I60
tp1269
a(S'w'
I731
tp1270
a(S'w'
I2
tp1271
a(S'w'
I732
tp1272
a(S'w'
I2
tp1273
a(S'w'
I732
tp1274
a(S'w'
I2
tp1275
a(S'w'
I732
tp1276
a(S'p2_tl'
I169
tp1277
a(S'w'
I3
tp1278
a(S'p1_tl'
I56
tp1279
a(S'w'
I731
tp1280
a(S'w'
I3
tp1281
a(S'w'
I730
tp1282
a(S'w'
I3
tp1283
a(S'w'
I731
tp1284
a(S'w'
I3
tp1285
a(S'w'
I731
tp1286
a(S'p2_tl'
I173
tp1287
a(S'w'
I2
tp1288
a(S'p1_tl'
I60
tp1289
a(S'w'
I732
tp1290
a(S'w'
I2
tp1291
a(S'w'
I732
tp1292
a(S'w'
I2
tp1293
a(S'w'
I731
tp1294
a(S'w'
I2
tp1295
a(S'w'
I732
tp1296
a(S'p2_tl'
I169
tp1297
a(S'w'
I3
tp1298
a(S'p1_tl'
I56
tp1299
a(S'w'
I731
tp1300
a(S'w'
I3
tp1301
a(S'w'
I731
tp1302
a(S'w'
I3
tp1303
a(S'w'
I732
tp1304
a(S'tr_lr'
I0
tp1305
a(S'p1_du'
I0
tp1306
a(S'p2_du'
I0
tp1307
a(S'no_cv'
I1
tp1308
a(S'w'
I26016
tp1309
a.