(lp1
(S'clock'
p2
I1789773
tp3
a(S'fc_mo'
I1
tp4
a(S'ch_no'
I0
tp5
a(S'ch_tr'
I0
tp6
a(S'ch_p2'
I0
tp7
a(S'ch_p1'
I0
tp8
a(S'no_ll'
I0
tp9
a(S'tr_ll'
I0
tp10
a(S'p2_ll'
I0
tp11
a(S'p1_ll'
I0
tp12
a(S'w'
I2
tp13
a(S'ch_no'
I1
tp14
a(S'ch_tr'
I1
tp15
a(S'ch_p2'
I1
tp16
a(S'ch_p1'
I1
tp17
a(S'w'
I18
tp18
a(S'p2_tl'
I189
tp19
a(S'p2_ll'
I1
tp20
a(S'w'
I2
tp21
a(S'p2_tl'
I191
tp22
a(S'w'
I1
tp23
a(S'p2_du'
I2
tp24
a(S'p2_cv'
I1
tp25
a(S'p2_vo'
I8
tp26
a(S'p2_sp'
I7
tp27
a(S'p2_sn'
I1
tp28
a(S'p2_ss'
I7
tp29
a(S'w'
I3
tp30
a(S'p1_tl'
I238
tp31
a(S'w'
I1
tp32
a(S'p1_ll'
I1
tp33
a(S'w'
I1
tp34
a(S'p1_tl'
I240
tp35
a(S'w'
I1
tp36
a(S'p1_du'
I2
tp37
a(S'p1_cv'
I1
tp38
a(S'p1_vo'
I8
tp39
a(S'w'
I1
tp40
a(S'p1_sp'
I7
tp41
a(S'p1_sn'
I1
tp42
a(S'p1_ss'
I7
tp43
a(S'w'
I2
tp44
a(S'tr_lr'
I96
tp45
a(S'w'
I1
tp46
a(S'tr_tl'
I159
tp47
a(S'tr_ll'
I1
tp48
a(S'w'
I716
tp49
a(S'p2_tl'
I187
tp50
a(S'w'
I3
tp51
a(S'p1_tl'
I236
tp52
a(S'w'
I731
tp53
a(S'w'
I3
tp54
a(S'w'
I731
tp55
a(S'w'
I3
tp56
a(S'w'
I731
tp57
a(S'w'
I1
tp58
a(S'p2_vo'
I7
tp59
a(S'w'
I2
tp60
a(S'w'
I1
tp61
a(S'p1_vo'
I7
tp62
a(S'w'
I729
tp63
a(S'p2_tl'
I191
tp64
a(S'w'
I3
tp65
a(S'p1_tl'
I240
tp66
a(S'w'
I731
tp67
a(S'w'
I3
tp68
a(S'w'
I731
tp69
a(S'w'
I3
tp70
a(S'w'
I731
tp71
a(S'w'
I3
tp72
a(S'w'
I731
tp73
a(S'p2_tl'
I187
tp74
a(S'w'
I3
tp75
a(S'p1_tl'
I236
tp76
a(S'w'
I730
tp77
a(S'w'
I1
tp78
a(S'p2_vo'
I6
tp79
a(S'w'
I2
tp80
a(S'w'
I1
tp81
a(S'p1_vo'
I6
tp82
a(S'w'
I730
tp83
a(S'w'
I3
tp84
a(S'w'
I732
tp85
a(S'p2_tl'
I238
tp86
a(S'p2_ll'
I1
tp87
a(S'w'
I2
tp88
a(S'p2_tl'
I240
tp89
a(S'w'
I1
tp90
a(S'p2_vo'
I8
tp91
a(S'w'
I3
tp92
a(S'p1_tl'
I63
tp93
a(S'w'
I1
tp94
a(S'p1_ll'
I1
tp95
a(S'p1_th'
I1
tp96
a(S'w'
I1
tp97
a(S'p1_tl'
I65
tp98
a(S'w'
I1
tp99
a(S'p1_vo'
I8
tp100
a(S'w'
I3
tp101
a(S'tr_tl'
I189
tp102
a(S'w'
I1
tp103
a(S'tr_ll'
I1
tp104
a(S'w'
I720
tp105
a(S'p2_tl'
I236
tp106
a(S'w'
I3
tp107
a(S'p1_tl'
I61
tp108
a(S'w'
I731
tp109
a(S'w'
I3
tp110
a(S'w'
I730
tp111
a(S'w'
I3
tp112
a(S'w'
I731
tp113
a(S'w'
I1
tp114
a(S'p2_vo'
I7
tp115
a(S'w'
I2
tp116
a(S'w'
I1
tp117
a(S'p1_vo'
I7
tp118
a(S'w'
I730
tp119
a(S'p2_tl'
I240
tp120
a(S'w'
I3
tp121
a(S'p1_tl'
I65
tp122
a(S'w'
I731
tp123
a(S'w'
I3
tp124
a(S'w'
I731
tp125
a(S'w'
I3
tp126
a(S'w'
I730
tp127
a(S'w'
I3
tp128
a(S'w'
I731
tp129
a(S'p2_tl'
I236
tp130
a(S'w'
I3
tp131
a(S'p1_tl'
I61
tp132
a(S'w'
I731
tp133
a(S'w'
I1
tp134
a(S'p2_vo'
I6
tp135
a(S'w'
I2
tp136
a(S'w'
I1
tp137
a(S'p1_vo'
I6
tp138
a(S'w'
I730
tp139
a(S'w'
I3
tp140
a(S'w'
I732
tp141
a(S'p2_tl'
I63
tp142
a(S'p2_ll'
I1
tp143
a(S'p2_th'
I1
tp144
a(S'w'
I2
tp145
a(S'p2_tl'
I65
tp146
a(S'w'
I1
tp147
a(S'p2_vo'
I8
tp148
a(S'w'
I3
tp149
a(S'p1_tl'
I124
tp150
a(S'w'
I1
tp151
a(S'p1_ll'
I1
tp152
a(S'w'
I1
tp153
a(S'p1_tl'
I126
tp154
a(S'w'
I1
tp155
a(S'p1_vo'
I8
tp156
a(S'w'
I3
tp157
a(S'tr_tl'
I238
tp158
a(S'w'
I1
tp159
a(S'tr_ll'
I1
tp160
a(S'w'
I719
tp161
a(S'p2_tl'
I61
tp162
a(S'w'
I3
tp163
a(S'p1_tl'
I122
tp164
a(S'w'
I731
tp165
a(S'w'
I3
tp166
a(S'w'
I731
tp167
a(S'w'
I3
tp168
a(S'w'
I731
tp169
a(S'w'
I1
tp170
a(S'p2_vo'
I7
tp171
a(S'w'
I2
tp172
a(S'w'
I1
tp173
a(S'p1_vo'
I7
tp174
a(S'w'
I729
tp175
a(S'p2_tl'
I65
tp176
a(S'w'
I3
tp177
a(S'p1_tl'
I126
tp178
a(S'w'
I731
tp179
a(S'w'
I3
tp180
a(S'w'
I731
tp181
a(S'w'
I3
tp182
a(S'w'
I731
tp183
a(S'w'
I3
tp184
a(S'w'
I731
tp185
a(S'p2_tl'
I61
tp186
a(S'w'
I3
tp187
a(S'p1_tl'
I122
tp188
a(S'w'
I730
tp189
a(S'w'
I1
tp190
a(S'p2_vo'
I6
tp191
a(S'w'
I2
tp192
a(S'w'
I1
tp193
a(S'p1_vo'
I6
tp194
a(S'w'
I730
tp195
a(S'w'
I3
tp196
a(S'w'
I732
tp197
a(S'p2_tl'
I178
tp198
a(S'p2_ll'
I1
tp199
a(S'p2_th'
I0
tp200
a(S'w'
I2
tp201
a(S'p2_tl'
I180
tp202
a(S'w'
I1
tp203
a(S'p2_vo'
I8
tp204
a(S'w'
I3
tp205
a(S'p1_tl'
I238
tp206
a(S'w'
I1
tp207
a(S'p1_ll'
I1
tp208
a(S'p1_th'
I0
tp209
a(S'w'
I1
tp210
a(S'p1_tl'
I240
tp211
a(S'w'
I1
tp212
a(S'p1_vo'
I8
tp213
a(S'w'
I3
tp214
a(S'tr_tl'
I141
tp215
a(S'w'
I1
tp216
a(S'tr_ll'
I1
tp217
a(S'w'
I720
tp218
a(S'p2_tl'
I176
tp219
a(S'w'
I3
tp220
a(S'p1_tl'
I236
tp221
a(S'w'
I731
tp222
a(S'w'
I3
tp223
a(S'w'
I730
tp224
a(S'w'
I3
tp225
a(S'w'
I731
tp226
a(S'w'
I1
tp227
a(S'p2_vo'
I7
tp228
a(S'w'
I2
tp229
a(S'w'
I1
tp230
a(S'p1_vo'
I7
tp231
a(S'w'
I730
tp232
a(S'p2_tl'
I180
tp233
a(S'w'
I3
tp234
a(S'p1_tl'
I240
tp235
a(S'w'
I731
tp236
a(S'w'
I3
tp237
a(S'w'
I731
tp238
a(S'w'
I3
tp239
a(S'w'
I730
tp240
a(S'w'
I3
tp241
a(S'w'
I731
tp242
a(S'p2_tl'
I176
tp243
a(S'w'
I3
tp244
a(S'p1_tl'
I236
tp245
a(S'w'
I731
tp246
a(S'w'
I1
tp247
a(S'p2_vo'
I6
tp248
a(S'w'
I2
tp249
a(S'w'
I1
tp250
a(S'p1_vo'
I6
tp251
a(S'w'
I730
tp252
a(S'w'
I3
tp253
a(S'w'
I732
tp254
a(S'p2_tl'
I238
tp255
a(S'p2_ll'
I1
tp256
a(S'w'
I2
tp257
a(S'p2_tl'
I240
tp258
a(S'w'
I1
tp259
a(S'p2_vo'
I8
tp260
a(S'w'
I3
tp261
a(S'p1_tl'
I28
tp262
a(S'w'
I1
tp263
a(S'p1_ll'
I1
tp264
a(S'p1_th'
I1
tp265
a(S'w'
I1
tp266
a(S'p1_tl'
I30
tp267
a(S'w'
I1
tp268
a(S'p1_vo'
I8
tp269
a(S'w'
I3
tp270
a(S'tr_tl'
I178
tp271
a(S'w'
I1
tp272
a(S'tr_ll'
I1
tp273
a(S'w'
I719
tp274
a(S'p2_tl'
I236
tp275
a(S'w'
I3
tp276
a(S'p1_tl'
I26
tp277
a(S'w'
I731
tp278
a(S'w'
I3
tp279
a(S'w'
I731
tp280
a(S'w'
I3
tp281
a(S'w'
I731
tp282
a(S'w'
I1
tp283
a(S'p2_vo'
I7
tp284
a(S'w'
I2
tp285
a(S'w'
I1
tp286
a(S'p1_vo'
I7
tp287
a(S'w'
I729
tp288
a(S'p2_tl'
I240
tp289
a(S'w'
I3
tp290
a(S'p1_tl'
I30
tp291
a(S'w'
I731
tp292
a(S'w'
I3
tp293
a(S'w'
I731
tp294
a(S'w'
I3
tp295
a(S'w'
I731
tp296
a(S'w'
I3
tp297
a(S'w'
I731
tp298
a(S'p2_tl'
I236
tp299
a(S'w'
I3
tp300
a(S'p1_tl'
I26
tp301
a(S'w'
I730
tp302
a(S'w'
I1
tp303
a(S'p2_vo'
I6
tp304
a(S'w'
I2
tp305
a(S'w'
I1
tp306
a(S'p1_vo'
I6
tp307
a(S'w'
I730
tp308
a(S'w'
I3
tp309
a(S'w'
I732
tp310
a(S'p2_tl'
I28
tp311
a(S'p2_ll'
I1
tp312
a(S'p2_th'
I1
tp313
a(S'w'
I2
tp314
a(S'p2_tl'
I30
tp315
a(S'w'
I1
tp316
a(S'p2_vo'
I8
tp317
a(S'w'
I3
tp318
a(S'p1_tl'
I103
tp319
a(S'w'
I1
tp320
a(S'p1_ll'
I1
tp321
a(S'w'
I1
tp322
a(S'p1_tl'
I105
tp323
a(S'w'
I1
tp324
a(S'p1_vo'
I8
tp325
a(S'w'
I3
tp326
a(S'tr_tl'
I238
tp327
a(S'w'
I1
tp328
a(S'tr_ll'
I1
tp329
a(S'w'
I720
tp330
a(S'p2_tl'
I26
tp331
a(S'w'
I3
tp332
a(S'p1_tl'
I101
tp333
a(S'w'
I731
tp334
a(S'w'
I3
tp335
a(S'w'
I730
tp336
a(S'w'
I3
tp337
a(S'w'
I731
tp338
a(S'w'
I1
tp339
a(S'p2_vo'
I7
tp340
a(S'w'
I2
tp341
a(S'w'
I1
tp342
a(S'p1_vo'
I7
tp343
a(S'w'
I730
tp344
a(S'p2_tl'
I30
tp345
a(S'w'
I3
tp346
a(S'p1_tl'
I105
tp347
a(S'w'
I731
tp348
a(S'w'
I3
tp349
a(S'w'
I731
tp350
a(S'w'
I3
tp351
a(S'w'
I730
tp352
a(S'w'
I3
tp353
a(S'w'
I731
tp354
a(S'p2_tl'
I26
tp355
a(S'w'
I3
tp356
a(S'p1_tl'
I101
tp357
a(S'w'
I731
tp358
a(S'w'
I1
tp359
a(S'p2_vo'
I6
tp360
a(S'w'
I2
tp361
a(S'w'
I1
tp362
a(S'p1_vo'
I6
tp363
a(S'w'
I730
tp364
a(S'w'
I3
tp365
a(S'w'
I732
tp366
a(S'p2_tl'
I159
tp367
a(S'p2_ll'
I1
tp368
a(S'p2_th'
I0
tp369
a(S'w'
I2
tp370
a(S'p2_tl'
I161
tp371
a(S'w'
I1
tp372
a(S'p2_vo'
I8
tp373
a(S'w'
I3
tp374
a(S'p1_tl'
I189
tp375
a(S'w'
I1
tp376
a(S'p1_ll'
I1
tp377
a(S'p1_th'
I0
tp378
a(S'w'
I1
tp379
a(S'p1_tl'
I191
tp380
a(S'w'
I1
tp381
a(S'p1_vo'
I8
tp382
a(S'w'
I3
tp383
a(S'tr_tl'
I118
tp384
a(S'w'
I1
tp385
a(S'tr_ll'
I1
tp386
a(S'w'
I719
tp387
a(S'p2_tl'
I157
tp388
a(S'w'
I3
tp389
a(S'p1_tl'
I187
tp390
a(S'w'
I731
tp391
a(S'w'
I3
tp392
a(S'w'
I731
tp393
a(S'w'
I3
tp394
a(S'w'
I731
tp395
a(S'w'
I1
tp396
a(S'p2_vo'
I7
tp397
a(S'w'
I2
tp398
a(S'w'
I1
tp399
a(S'p1_vo'
I7
tp400
a(S'w'
I729
tp401
a(S'p2_tl'
I161
tp402
a(S'w'
I3
tp403
a(S'p1_tl'
I191
tp404
a(S'w'
I731
tp405
a(S'w'
I3
tp406
a(S'w'
I731
tp407
a(S'w'
I3
tp408
a(S'w'
I731
tp409
a(S'w'
I3
tp410
a(S'w'
I731
tp411
a(S'p2_tl'
I157
tp412
a(S'w'
I3
tp413
a(S'p1_tl'
I187
tp414
a(S'w'
I730
tp415
a(S'w'
I1
tp416
a(S'p2_vo'
I6
tp417
a(S'w'
I2
tp418
a(S'w'
I1
tp419
a(S'p1_vo'
I6
tp420
a(S'w'
I730
tp421
a(S'w'
I3
tp422
a(S'w'
I731
tp423
a(S'w'
I3
tp424
a(S'w'
I731
tp425
a(S'p2_tl'
I161
tp426
a(S'w'
I3
tp427
a(S'p1_tl'
I191
tp428
a(S'w'
I731
tp429
a(S'w'
I3
tp430
a(S'w'
I730
tp431
a(S'w'
I3
tp432
a(S'w'
I731
tp433
a(S'w'
I1
tp434
a(S'p2_vo'
I5
tp435
a(S'w'
I2
tp436
a(S'w'
I1
tp437
a(S'p1_vo'
I5
tp438
a(S'w'
I730
tp439
a(S'p2_tl'
I157
tp440
a(S'w'
I3
tp441
a(S'p1_tl'
I187
tp442
a(S'w'
I731
tp443
a(S'w'
I3
tp444
a(S'w'
I731
tp445
a(S'w'
I3
tp446
a(S'w'
I730
tp447
a(S'w'
I3
tp448
a(S'w'
I731
tp449
a(S'p2_tl'
I161
tp450
a(S'w'
I3
tp451
a(S'p1_tl'
I191
tp452
a(S'w'
I731
tp453
a(S'w'
I1
tp454
a(S'p2_vo'
I4
tp455
a(S'w'
I2
tp456
a(S'w'
I1
tp457
a(S'p1_vo'
I4
tp458
a(S'w'
I730
tp459
a(S'w'
I3
tp460
a(S'w'
I731
tp461
a(S'w'
I3
tp462
a(S'w'
I730
tp463
a(S'p2_tl'
I157
tp464
a(S'w'
I3
tp465
a(S'p1_tl'
I187
tp466
a(S'w'
I731
tp467
a(S'w'
I3
tp468
a(S'w'
I731
tp469
a(S'w'
I3
tp470
a(S'w'
I731
tp471
a(S'w'
I1
tp472
a(S'p2_vo'
I3
tp473
a(S'w'
I2
tp474
a(S'w'
I1
tp475
a(S'p1_vo'
I3
tp476
a(S'w'
I729
tp477
a(S'p2_tl'
I161
tp478
a(S'w'
I3
tp479
a(S'p1_tl'
I191
tp480
a(S'w'
I731
tp481
a(S'w'
I3
tp482
a(S'w'
I731
tp483
a(S'w'
I3
tp484
a(S'w'
I731
tp485
a(S'w'
I3
tp486
a(S'w'
I731
tp487
a(S'p2_tl'
I157
tp488
a(S'w'
I3
tp489
a(S'p1_tl'
I187
tp490
a(S'w'
I730
tp491
a(S'w'
I1
tp492
a(S'p2_vo'
I2
tp493
a(S'w'
I2
tp494
a(S'w'
I1
tp495
a(S'p1_vo'
I2
tp496
a(S'w'
I730
tp497
a(S'w'
I3
tp498
a(S'w'
I733
tp499
a(S'w'
I5
tp500
a(S'w'
I727
tp501
a(S'p2_tl'
I161
tp502
a(S'w'
I3
tp503
a(S'p1_tl'
I191
tp504
a(S'w'
I731
tp505
a(S'w'
I3
tp506
a(S'w'
I730
tp507
a(S'w'
I3
tp508
a(S'w'
I731
tp509
a(S'w'
I1
tp510
a(S'p2_vo'
I1
tp511
a(S'w'
I2
tp512
a(S'w'
I1
tp513
a(S'p1_vo'
I1
tp514
a(S'w'
I730
tp515
a(S'p2_tl'
I157
tp516
a(S'w'
I3
tp517
a(S'p1_tl'
I187
tp518
a(S'w'
I731
tp519
a(S'w'
I3
tp520
a(S'w'
I731
tp521
a(S'w'
I3
tp522
a(S'w'
I730
tp523
a(S'w'
I3
tp524
a(S'w'
I731
tp525
a(S'p2_tl'
I161
tp526
a(S'w'
I3
tp527
a(S'p1_tl'
I191
tp528
a(S'w'
I731
tp529
a(S'w'
I1
tp530
a(S'p2_vo'
I0
tp531
a(S'w'
I2
tp532
a(S'w'
I1
tp533
a(S'p1_vo'
I0
tp534
a(S'w'
I730
tp535
a(S'w'
I2
tp536
a(S'w'
I732
tp537
a(S'w'
I2
tp538
a(S'w'
I731
tp539
a(S'p2_tl'
I157
tp540
a(S'w'
I3
tp541
a(S'p1_tl'
I187
tp542
a(S'w'
I731
tp543
a(S'w'
I3
tp544
a(S'w'
I731
tp545
a(S'w'
I3
tp546
a(S'w'
I731
tp547
a(S'w'
I3
tp548
a(S'w'
I730
tp549
a(S'p2_tl'
I161
tp550
a(S'w'
I2
tp551
a(S'p1_tl'
I191
tp552
a(S'w'
I732
tp553
a(S'w'
I2
tp554
a(S'w'
I732
tp555
a(S'w'
I2
tp556
a(S'w'
I732
tp557
a(S'w'
I2
tp558
a(S'w'
I732
tp559
a(S'p2_tl'
I157
tp560
a(S'w'
I3
tp561
a(S'p1_tl'
I187
tp562
a(S'w'
I730
tp563
a(S'w'
I3
tp564
a(S'w'
I731
tp565
a(S'w'
I3
tp566
a(S'w'
I731
tp567
a(S'w'
I3
tp568
a(S'w'
I731
tp569
a(S'p2_tl'
I161
tp570
a(S'w'
I2
tp571
a(S'p1_tl'
I191
tp572
a(S'w'
I732
tp573
a(S'w'
I2
tp574
a(S'w'
I731
tp575
a(S'w'
I2
tp576
a(S'w'
I732
tp577
a(S'w'
I2
tp578
a(S'w'
I732
tp579
a(S'p2_tl'
I157
tp580
a(S'w'
I3
tp581
a(S'p1_tl'
I187
tp582
a(S'w'
I731
tp583
a(S'w'
I3
tp584
a(S'w'
I731
tp585
a(S'w'
I3
tp586
a(S'w'
I730
tp587
a(S'w'
I3
tp588
a(S'w'
I731
tp589
a(S'p2_tl'
I161
tp590
a(S'w'
I2
tp591
a(S'p1_tl'
I191
tp592
a(S'w'
I732
tp593
a(S'w'
I2
tp594
a(S'w'
I732
tp595
a(S'w'
I2
tp596
a(S'w'
I732
tp597
a(S'w'
I2
tp598
a(S'w'
I731
tp599
a(S'p2_tl'
I157
tp600
a(S'w'
I3
tp601
a(S'p1_tl'
I187
tp602
a(S'w'
I731
tp603
a(S'w'
I3
tp604
a(S'w'
I731
tp605
a(S'w'
I3
tp606
a(S'w'
I731
tp607
a(S'w'
I3
tp608
a(S'w'
I730
tp609
a(S'p2_tl'
I161
tp610
a(S'w'
I2
tp611
a(S'p1_tl'
I191
tp612
a(S'w'
I732
tp613
a(S'w'
I2
tp614
a(S'w'
I732
tp615
a(S'w'
I2
tp616
a(S'w'
I732
tp617
a(S'w'
I2
tp618
a(S'w'
I732
tp619
a(S'p2_tl'
I157
tp620
a(S'w'
I3
tp621
a(S'p1_tl'
I187
tp622
a(S'w'
I730
tp623
a(S'w'
I3
tp624
a(S'w'
I731
tp625
a(S'w'
I3
tp626
a(S'w'
I732
tp627
a(S'tr_lr'
I0
tp628
a(S'p1_du'
I0
tp629
a(S'p2_du'
I0
tp630
a(S'w'
I1
tp631
a(S'no_cv'
I1
tp632
a(S'w'
I19655
tp633
a.