(lp1
(S'clock'
p2
I1789773
tp3
a(S'fc_mo'
I1
tp4
a(S'ch_no'
I0
tp5
a(S'ch_tr'
I0
tp6
a(S'ch_p2'
I0
tp7
a(S'ch_p1'
I0
tp8
a(S'no_ll'
I0
tp9
a(S'tr_ll'
I0
tp10
a(S'p2_ll'
I0
tp11
a(S'p1_ll'
I0
tp12
a(S'w'
I2
tp13
a(S'ch_no'
I1
tp14
a(S'ch_tr'
I1
tp15
a(S'ch_p2'
I1
tp16
a(S'ch_p1'
I1
tp17
a(S'w'
I18
tp18
a(S'p2_tl'
I225
tp19
a(S'p2_ll'
I1
tp20
a(S'w'
I2
tp21
a(S'p2_tl'
I223
tp22
a(S'w'
I1
tp23
a(S'p2_du'
I2
tp24
a(S'p2_cv'
I1
tp25
a(S'p2_vo'
I8
tp26
a(S'p2_sp'
I7
tp27
a(S'p2_sn'
I1
tp28
a(S'p2_ss'
I7
tp29
a(S'w'
I3
tp30
a(S'p1_tl'
I58
tp31
a(S'p1_ll'
I1
tp32
a(S'p1_th'
I2
tp33
a(S'w'
I2
tp34
a(S'p1_tl'
I60
tp35
a(S'w'
I1
tp36
a(S'p1_du'
I2
tp37
a(S'p1_cv'
I1
tp38
a(S'p1_vo'
I8
tp39
a(S'p1_sp'
I7
tp40
a(S'p1_sn'
I1
tp41
a(S'p1_ss'
I7
tp42
a(S'w'
I3
tp43
a(S'tr_lr'
I31
tp44
a(S'tr_tl'
I28
tp45
a(S'w'
I1
tp46
a(S'tr_ll'
I1
tp47
a(S'tr_th'
I1
tp48
a(S'w'
I716
tp49
a(S'p2_tl'
I227
tp50
a(S'w'
I3
tp51
a(S'w'
I731
tp52
a(S'w'
I3
tp53
a(S'w'
I731
tp54
a(S'w'
I3
tp55
a(S'p1_tl'
I56
tp56
a(S'w'
I731
tp57
a(S'w'
I1
tp58
a(S'p2_vo'
I7
tp59
a(S'w'
I2
tp60
a(S'w'
I1
tp61
a(S'p1_vo'
I7
tp62
a(S'w'
I729
tp63
a(S'p2_tl'
I223
tp64
a(S'w'
I3
tp65
a(S'w'
I731
tp66
a(S'w'
I3
tp67
a(S'w'
I731
tp68
a(S'w'
I3
tp69
a(S'p1_tl'
I60
tp70
a(S'w'
I731
tp71
a(S'w'
I3
tp72
a(S'w'
I731
tp73
a(S'p2_tl'
I227
tp74
a(S'w'
I3
tp75
a(S'w'
I730
tp76
a(S'w'
I1
tp77
a(S'p2_vo'
I6
tp78
a(S'w'
I2
tp79
a(S'w'
I1
tp80
a(S'p1_vo'
I6
tp81
a(S'w'
I730
tp82
a(S'w'
I3
tp83
a(S'p1_tl'
I56
tp84
a(S'w'
I731
tp85
a(S'w'
I3
tp86
a(S'w'
I731
tp87
a(S'p2_tl'
I223
tp88
a(S'w'
I3
tp89
a(S'w'
I731
tp90
a(S'w'
I4
tp91
a(S'p1_tl'
I196
tp92
a(S'p1_ll'
I1
tp93
a(S'p1_th'
I1
tp94
a(S'w'
I2
tp95
a(S'p1_tl'
I198
tp96
a(S'w'
I1
tp97
a(S'p1_vo'
I8
tp98
a(S'w'
I726
tp99
a(S'w'
I3
tp100
a(S'w'
I731
tp101
a(S'w'
I1
tp102
a(S'p2_vo'
I5
tp103
a(S'w'
I2
tp104
a(S'w'
I731
tp105
a(S'p2_tl'
I227
tp106
a(S'w'
I3
tp107
a(S'p1_tl'
I194
tp108
a(S'w'
I731
tp109
a(S'w'
I3
tp110
a(S'w'
I1
tp111
a(S'p1_vo'
I7
tp112
a(S'w'
I730
tp113
a(S'w'
I3
tp114
a(S'w'
I730
tp115
a(S'w'
I3
tp116
a(S'w'
I731
tp117
a(S'p2_tl'
I223
tp118
a(S'w'
I3
tp119
a(S'p1_tl'
I198
tp120
a(S'w'
I731
tp121
a(S'w'
I1
tp122
a(S'p2_vo'
I4
tp123
a(S'w'
I2
tp124
a(S'w'
I731
tp125
a(S'w'
I3
tp126
a(S'w'
I731
tp127
a(S'w'
I3
tp128
a(S'w'
I1
tp129
a(S'p1_vo'
I6
tp130
a(S'w'
I729
tp131
a(S'p2_tl'
I227
tp132
a(S'w'
I3
tp133
a(S'p1_tl'
I194
tp134
a(S'w'
I731
tp135
a(S'w'
I3
tp136
a(S'w'
I731
tp137
a(S'w'
I3
tp138
a(S'w'
I731
tp139
a(S'w'
I1
tp140
a(S'p2_vo'
I3
tp141
a(S'w'
I3
tp142
a(S'p1_tl'
I124
tp143
a(S'p1_ll'
I1
tp144
a(S'w'
I2
tp145
a(S'p1_tl'
I126
tp146
a(S'w'
I1
tp147
a(S'p1_vo'
I8
tp148
a(S'w'
I726
tp149
a(S'p2_tl'
I223
tp150
a(S'w'
I3
tp151
a(S'w'
I731
tp152
a(S'w'
I3
tp153
a(S'w'
I731
tp154
a(S'w'
I3
tp155
a(S'p1_tl'
I122
tp156
a(S'w'
I731
tp157
a(S'w'
I3
tp158
a(S'w'
I1
tp159
a(S'p1_vo'
I7
tp160
a(S'w'
I730
tp161
a(S'p2_tl'
I227
tp162
a(S'w'
I3
tp163
a(S'w'
I730
tp164
a(S'w'
I1
tp165
a(S'p2_vo'
I2
tp166
a(S'w'
I2
tp167
a(S'w'
I731
tp168
a(S'w'
I3
tp169
a(S'p1_tl'
I126
tp170
a(S'w'
I731
tp171
a(S'w'
I3
tp172
a(S'w'
I731
tp173
a(S'p2_tl'
I223
tp174
a(S'w'
I3
tp175
a(S'w'
I731
tp176
a(S'w'
I3
tp177
a(S'w'
I1
tp178
a(S'p1_vo'
I6
tp179
a(S'w'
I729
tp180
a(S'w'
I3
tp181
a(S'p1_tl'
I122
tp182
a(S'w'
I731
tp183
a(S'w'
I1
tp184
a(S'p2_vo'
I1
tp185
a(S'w'
I2
tp186
a(S'w'
I731
tp187
a(S'p2_tl'
I227
tp188
a(S'w'
I3
tp189
a(S'w'
I731
tp190
a(S'w'
I4
tp191
a(S'p1_tl'
I58
tp192
a(S'p1_ll'
I1
tp193
a(S'p1_th'
I2
tp194
a(S'w'
I2
tp195
a(S'p1_tl'
I60
tp196
a(S'w'
I1
tp197
a(S'p1_vo'
I8
tp198
a(S'w'
I3
tp199
a(S'tr_tl'
I124
tp200
a(S'w'
I1
tp201
a(S'tr_ll'
I1
tp202
a(S'w'
I723
tp203
a(S'w'
I3
tp204
a(S'w'
I730
tp205
a(S'w'
I3
tp206
a(S'w'
I731
tp207
a(S'p2_tl'
I223
tp208
a(S'w'
I3
tp209
a(S'p1_tl'
I56
tp210
a(S'w'
I731
tp211
a(S'w'
I1
tp212
a(S'p2_vo'
I0
tp213
a(S'w'
I2
tp214
a(S'w'
I1
tp215
a(S'p1_vo'
I7
tp216
a(S'w'
I730
tp217
a(S'w'
I3
tp218
a(S'w'
I731
tp219
a(S'w'
I3
tp220
a(S'w'
I730
tp221
a(S'p2_tl'
I227
tp222
a(S'w'
I2
tp223
a(S'p1_tl'
I60
tp224
a(S'w'
I732
tp225
a(S'w'
I2
tp226
a(S'w'
I732
tp227
a(S'w'
I2
tp228
a(S'w'
I732
tp229
a(S'w'
I2
tp230
a(S'w'
I1
tp231
a(S'p1_vo'
I6
tp232
a(S'w'
I730
tp233
a(S'p2_tl'
I223
tp234
a(S'w'
I3
tp235
a(S'p1_tl'
I56
tp236
a(S'w'
I731
tp237
a(S'w'
I3
tp238
a(S'w'
I731
tp239
a(S'w'
I3
tp240
a(S'w'
I733
tp241
a(S'p2_tl'
I227
tp242
a(S'w'
I4
tp243
a(S'p1_tl'
I196
tp244
a(S'p1_ll'
I1
tp245
a(S'p1_th'
I1
tp246
a(S'w'
I2
tp247
a(S'p1_tl'
I198
tp248
a(S'w'
I1
tp249
a(S'p1_vo'
I8
tp250
a(S'w'
I725
tp251
a(S'w'
I2
tp252
a(S'w'
I731
tp253
a(S'w'
I2
tp254
a(S'w'
I732
tp255
a(S'p2_tl'
I223
tp256
a(S'w'
I3
tp257
a(S'p1_tl'
I194
tp258
a(S'w'
I731
tp259
a(S'w'
I3
tp260
a(S'w'
I1
tp261
a(S'p1_vo'
I7
tp262
a(S'w'
I730
tp263
a(S'w'
I3
tp264
a(S'w'
I731
tp265
a(S'w'
I3
tp266
a(S'w'
I730
tp267
a(S'p2_tl'
I227
tp268
a(S'w'
I2
tp269
a(S'p1_tl'
I198
tp270
a(S'w'
I732
tp271
a(S'w'
I2
tp272
a(S'w'
I732
tp273
a(S'w'
I2
tp274
a(S'w'
I732
tp275
a(S'w'
I2
tp276
a(S'w'
I1
tp277
a(S'p1_vo'
I6
tp278
a(S'w'
I731
tp279
a(S'p2_tl'
I223
tp280
a(S'w'
I3
tp281
a(S'p1_tl'
I194
tp282
a(S'w'
I730
tp283
a(S'w'
I3
tp284
a(S'w'
I731
tp285
a(S'w'
I3
tp286
a(S'w'
I732
tp287
a(S'p2_tl'
I212
tp288
a(S'p2_ll'
I1
tp289
a(S'w'
I2
tp290
a(S'p2_tl'
I214
tp291
a(S'w'
I1
tp292
a(S'p2_vo'
I8
tp293
a(S'w'
I3
tp294
a(S'p1_tl'
I124
tp295
a(S'w'
I1
tp296
a(S'p1_ll'
I1
tp297
a(S'w'
I1
tp298
a(S'p1_tl'
I126
tp299
a(S'w'
I1
tp300
a(S'p1_vo'
I8
tp301
a(S'w'
I724
tp302
a(S'p2_tl'
I210
tp303
a(S'w'
I3
tp304
a(S'w'
I731
tp305
a(S'w'
I3
tp306
a(S'w'
I730
tp307
a(S'w'
I3
tp308
a(S'p1_tl'
I122
tp309
a(S'w'
I731
tp310
a(S'w'
I1
tp311
a(S'p2_vo'
I7
tp312
a(S'w'
I2
tp313
a(S'w'
I1
tp314
a(S'p1_vo'
I7
tp315
a(S'w'
I730
tp316
a(S'p2_tl'
I214
tp317
a(S'w'
I3
tp318
a(S'w'
I731
tp319
a(S'w'
I3
tp320
a(S'w'
I730
tp321
a(S'w'
I3
tp322
a(S'p1_tl'
I126
tp323
a(S'w'
I731
tp324
a(S'w'
I3
tp325
a(S'w'
I731
tp326
a(S'p2_tl'
I210
tp327
a(S'w'
I3
tp328
a(S'w'
I731
tp329
a(S'w'
I1
tp330
a(S'p2_vo'
I6
tp331
a(S'w'
I2
tp332
a(S'w'
I1
tp333
a(S'p1_vo'
I6
tp334
a(S'w'
I730
tp335
a(S'w'
I3
tp336
a(S'p1_tl'
I122
tp337
a(S'w'
I730
tp338
a(S'w'
I3
tp339
a(S'w'
I731
tp340
a(S'p2_tl'
I214
tp341
a(S'w'
I3
tp342
a(S'w'
I731
tp343
a(S'w'
I4
tp344
a(S'p1_tl'
I58
tp345
a(S'p1_ll'
I1
tp346
a(S'p1_th'
I2
tp347
a(S'w'
I2
tp348
a(S'p1_tl'
I60
tp349
a(S'w'
I1
tp350
a(S'p1_vo'
I8
tp351
a(S'w'
I3
tp352
a(S'tr_tl'
I28
tp353
a(S'w'
I1
tp354
a(S'tr_ll'
I1
tp355
a(S'w'
I723
tp356
a(S'w'
I3
tp357
a(S'w'
I731
tp358
a(S'w'
I1
tp359
a(S'p2_vo'
I5
tp360
a(S'w'
I2
tp361
a(S'w'
I730
tp362
a(S'p2_tl'
I210
tp363
a(S'w'
I3
tp364
a(S'p1_tl'
I56
tp365
a(S'w'
I731
tp366
a(S'w'
I3
tp367
a(S'w'
I1
tp368
a(S'p1_vo'
I7
tp369
a(S'w'
I730
tp370
a(S'w'
I3
tp371
a(S'w'
I731
tp372
a(S'w'
I3
tp373
a(S'w'
I731
tp374
a(S'p2_tl'
I214
tp375
a(S'w'
I3
tp376
a(S'p1_tl'
I60
tp377
a(S'w'
I730
tp378
a(S'w'
I1
tp379
a(S'p2_vo'
I4
tp380
a(S'w'
I2
tp381
a(S'w'
I731
tp382
a(S'w'
I3
tp383
a(S'w'
I731
tp384
a(S'w'
I3
tp385
a(S'w'
I1
tp386
a(S'p1_vo'
I6
tp387
a(S'w'
I730
tp388
a(S'p2_tl'
I210
tp389
a(S'w'
I3
tp390
a(S'p1_tl'
I56
tp391
a(S'w'
I731
tp392
a(S'w'
I3
tp393
a(S'w'
I730
tp394
a(S'w'
I3
tp395
a(S'w'
I732
tp396
a(S'p2_tl'
I189
tp397
a(S'p2_ll'
I1
tp398
a(S'w'
I2
tp399
a(S'p2_tl'
I191
tp400
a(S'w'
I1
tp401
a(S'p2_vo'
I8
tp402
a(S'w'
I3
tp403
a(S'p1_tl'
I196
tp404
a(S'w'
I1
tp405
a(S'p1_ll'
I1
tp406
a(S'p1_th'
I1
tp407
a(S'w'
I1
tp408
a(S'p1_tl'
I198
tp409
a(S'w'
I1
tp410
a(S'p1_vo'
I8
tp411
a(S'w'
I724
tp412
a(S'w'
I3
tp413
a(S'w'
I731
tp414
a(S'w'
I3
tp415
a(S'w'
I730
tp416
a(S'p2_tl'
I187
tp417
a(S'w'
I3
tp418
a(S'p1_tl'
I194
tp419
a(S'w'
I731
tp420
a(S'w'
I1
tp421
a(S'p2_vo'
I7
tp422
a(S'w'
I2
tp423
a(S'w'
I1
tp424
a(S'p1_vo'
I7
tp425
a(S'w'
I730
tp426
a(S'w'
I3
tp427
a(S'w'
I731
tp428
a(S'w'
I3
tp429
a(S'w'
I731
tp430
a(S'p2_tl'
I191
tp431
a(S'w'
I3
tp432
a(S'p1_tl'
I198
tp433
a(S'w'
I730
tp434
a(S'w'
I3
tp435
a(S'w'
I731
tp436
a(S'w'
I3
tp437
a(S'w'
I731
tp438
a(S'w'
I1
tp439
a(S'p2_vo'
I6
tp440
a(S'w'
I2
tp441
a(S'w'
I1
tp442
a(S'p1_vo'
I6
tp443
a(S'w'
I730
tp444
a(S'p2_tl'
I187
tp445
a(S'w'
I3
tp446
a(S'p1_tl'
I194
tp447
a(S'w'
I731
tp448
a(S'w'
I3
tp449
a(S'w'
I730
tp450
a(S'w'
I3
tp451
a(S'w'
I732
tp452
a(S'p2_tl'
I159
tp453
a(S'p2_ll'
I1
tp454
a(S'w'
I2
tp455
a(S'p2_tl'
I157
tp456
a(S'w'
I1
tp457
a(S'p2_vo'
I8
tp458
a(S'w'
I3
tp459
a(S'p1_tl'
I252
tp460
a(S'w'
I1
tp461
a(S'p1_ll'
I1
tp462
a(S'w'
I1
tp463
a(S'p1_tl'
I254
tp464
a(S'w'
I1
tp465
a(S'p1_vo'
I8
tp466
a(S'w'
I4
tp467
a(S'tr_tl'
I63
tp468
a(S'tr_ll'
I1
tp469
a(S'w'
I720
tp470
a(S'p2_tl'
I161
tp471
a(S'w'
I3
tp472
a(S'w'
I731
tp473
a(S'w'
I3
tp474
a(S'w'
I731
tp475
a(S'w'
I3
tp476
a(S'p1_tl'
I250
tp477
a(S'w'
I730
tp478
a(S'w'
I1
tp479
a(S'p2_vo'
I7
tp480
a(S'w'
I2
tp481
a(S'w'
I1
tp482
a(S'p1_vo'
I7
tp483
a(S'w'
I730
tp484
a(S'p2_tl'
I157
tp485
a(S'w'
I3
tp486
a(S'w'
I731
tp487
a(S'w'
I3
tp488
a(S'w'
I731
tp489
a(S'w'
I3
tp490
a(S'p1_tl'
I254
tp491
a(S'w'
I731
tp492
a(S'w'
I3
tp493
a(S'w'
I730
tp494
a(S'p2_tl'
I161
tp495
a(S'w'
I3
tp496
a(S'w'
I731
tp497
a(S'w'
I1
tp498
a(S'p2_vo'
I6
tp499
a(S'w'
I2
tp500
a(S'w'
I1
tp501
a(S'p1_vo'
I6
tp502
a(S'w'
I730
tp503
a(S'w'
I3
tp504
a(S'p1_tl'
I250
tp505
a(S'w'
I731
tp506
a(S'w'
I3
tp507
a(S'w'
I730
tp508
a(S'p2_tl'
I157
tp509
a(S'w'
I3
tp510
a(S'w'
I731
tp511
a(S'w'
I4
tp512
a(S'p1_tl'
I171
tp513
a(S'p1_ll'
I1
tp514
a(S'w'
I2
tp515
a(S'p1_tl'
I173
tp516
a(S'w'
I1
tp517
a(S'p1_vo'
I8
tp518
a(S'w'
I727
tp519
a(S'w'
I3
tp520
a(S'w'
I731
tp521
a(S'w'
I1
tp522
a(S'p2_vo'
I5
tp523
a(S'w'
I2
tp524
a(S'w'
I731
tp525
a(S'p2_tl'
I161
tp526
a(S'w'
I3
tp527
a(S'p1_tl'
I169
tp528
a(S'w'
I730
tp529
a(S'w'
I3
tp530
a(S'w'
I1
tp531
a(S'p1_vo'
I7
tp532
a(S'w'
I730
tp533
a(S'w'
I3
tp534
a(S'w'
I731
tp535
a(S'w'
I3
tp536
a(S'w'
I731
tp537
a(S'p2_tl'
I157
tp538
a(S'w'
I3
tp539
a(S'p1_tl'
I173
tp540
a(S'w'
I731
tp541
a(S'w'
I1
tp542
a(S'p2_vo'
I4
tp543
a(S'w'
I2
tp544
a(S'w'
I730
tp545
a(S'w'
I3
tp546
a(S'w'
I731
tp547
a(S'w'
I3
tp548
a(S'w'
I1
tp549
a(S'p1_vo'
I6
tp550
a(S'w'
I730
tp551
a(S'p2_tl'
I161
tp552
a(S'w'
I3
tp553
a(S'p1_tl'
I169
tp554
a(S'w'
I731
tp555
a(S'w'
I3
tp556
a(S'w'
I731
tp557
a(S'w'
I3
tp558
a(S'w'
I730
tp559
a(S'w'
I1
tp560
a(S'p2_vo'
I3
tp561
a(S'w'
I3
tp562
a(S'p1_tl'
I63
tp563
a(S'p1_ll'
I1
tp564
a(S'w'
I2
tp565
a(S'p1_tl'
I65
tp566
a(S'w'
I1
tp567
a(S'p1_vo'
I8
tp568
a(S'w'
I727
tp569
a(S'p2_tl'
I157
tp570
a(S'w'
I3
tp571
a(S'w'
I731
tp572
a(S'w'
I3
tp573
a(S'w'
I731
tp574
a(S'w'
I3
tp575
a(S'p1_tl'
I61
tp576
a(S'w'
I731
tp577
a(S'w'
I3
tp578
a(S'w'
I1
tp579
a(S'p1_vo'
I7
tp580
a(S'w'
I729
tp581
a(S'p2_tl'
I161
tp582
a(S'w'
I3
tp583
a(S'w'
I731
tp584
a(S'w'
I1
tp585
a(S'p2_vo'
I2
tp586
a(S'w'
I2
tp587
a(S'w'
I731
tp588
a(S'w'
I3
tp589
a(S'p1_tl'
I65
tp590
a(S'w'
I731
tp591
a(S'w'
I3
tp592
a(S'w'
I730
tp593
a(S'p2_tl'
I157
tp594
a(S'w'
I3
tp595
a(S'w'
I731
tp596
a(S'w'
I3
tp597
a(S'w'
I1
tp598
a(S'p1_vo'
I6
tp599
a(S'w'
I730
tp600
a(S'w'
I3
tp601
a(S'p1_tl'
I61
tp602
a(S'w'
I731
tp603
a(S'w'
I1
tp604
a(S'p2_vo'
I1
tp605
a(S'w'
I2
tp606
a(S'w'
I731
tp607
a(S'p2_tl'
I161
tp608
a(S'w'
I3
tp609
a(S'w'
I730
tp610
a(S'w'
I4
tp611
a(S'p1_tl'
I252
tp612
a(S'p1_ll'
I1
tp613
a(S'w'
I2
tp614
a(S'p1_tl'
I254
tp615
a(S'w'
I1
tp616
a(S'p1_vo'
I8
tp617
a(S'w'
I3
tp618
a(S'tr_tl'
I171
tp619
a(S'w'
I1
tp620
a(S'tr_ll'
I1
tp621
a(S'w'
I723
tp622
a(S'w'
I3
tp623
a(S'w'
I731
tp624
a(S'w'
I3
tp625
a(S'w'
I731
tp626
a(S'p2_tl'
I157
tp627
a(S'w'
I3
tp628
a(S'p1_tl'
I250
tp629
a(S'w'
I731
tp630
a(S'w'
I1
tp631
a(S'p2_vo'
I0
tp632
a(S'w'
I2
tp633
a(S'w'
I1
tp634
a(S'p1_vo'
I7
tp635
a(S'w'
I729
tp636
a(S'w'
I3
tp637
a(S'w'
I731
tp638
a(S'w'
I3
tp639
a(S'w'
I731
tp640
a(S'p2_tl'
I161
tp641
a(S'w'
I2
tp642
a(S'p1_tl'
I254
tp643
a(S'w'
I732
tp644
a(S'w'
I2
tp645
a(S'w'
I732
tp646
a(S'w'
I2
tp647
a(S'w'
I731
tp648
a(S'w'
I2
tp649
a(S'w'
I1
tp650
a(S'p1_vo'
I6
tp651
a(S'w'
I731
tp652
a(S'p2_tl'
I157
tp653
a(S'w'
I3
tp654
a(S'p1_tl'
I250
tp655
a(S'w'
I731
tp656
a(S'w'
I3
tp657
a(S'w'
I731
tp658
a(S'w'
I3
tp659
a(S'w'
I732
tp660
a(S'p2_tl'
I168
tp661
a(S'p2_ll'
I1
tp662
a(S'w'
I2
tp663
a(S'p2_tl'
I166
tp664
a(S'w'
I1
tp665
a(S'p2_vo'
I8
tp666
a(S'w'
I3
tp667
a(S'p1_tl'
I171
tp668
a(S'w'
I1
tp669
a(S'p1_ll'
I1
tp670
a(S'w'
I1
tp671
a(S'p1_tl'
I173
tp672
a(S'w'
I1
tp673
a(S'p1_vo'
I8
tp674
a(S'w'
I723
tp675
a(S'w'
I3
tp676
a(S'w'
I731
tp677
a(S'w'
I3
tp678
a(S'w'
I731
tp679
a(S'w'
I3
tp680
a(S'p1_tl'
I169
tp681
a(S'w'
I731
tp682
a(S'p2_tl'
I170
tp683
a(S'w'
I1
tp684
a(S'p2_vo'
I7
tp685
a(S'w'
I2
tp686
a(S'w'
I1
tp687
a(S'p1_vo'
I7
tp688
a(S'w'
I729
tp689
a(S'w'
I3
tp690
a(S'w'
I731
tp691
a(S'w'
I3
tp692
a(S'w'
I731
tp693
a(S'w'
I3
tp694
a(S'p1_tl'
I173
tp695
a(S'w'
I731
tp696
a(S'p2_tl'
I166
tp697
a(S'w'
I3
tp698
a(S'w'
I731
tp699
a(S'w'
I3
tp700
a(S'w'
I730
tp701
a(S'w'
I1
tp702
a(S'p2_vo'
I6
tp703
a(S'w'
I2
tp704
a(S'w'
I1
tp705
a(S'p1_vo'
I6
tp706
a(S'w'
I730
tp707
a(S'w'
I3
tp708
a(S'p1_tl'
I169
tp709
a(S'w'
I731
tp710
a(S'p2_tl'
I170
tp711
a(S'w'
I3
tp712
a(S'w'
I731
tp713
a(S'w'
I3
tp714
a(S'w'
I731
tp715
a(S'w'
I4
tp716
a(S'p1_tl'
I63
tp717
a(S'p1_ll'
I1
tp718
a(S'w'
I2
tp719
a(S'p1_tl'
I65
tp720
a(S'w'
I1
tp721
a(S'p1_vo'
I8
tp722
a(S'w'
I726
tp723
a(S'w'
I3
tp724
a(S'w'
I731
tp725
a(S'p2_tl'
I166
tp726
a(S'w'
I1
tp727
a(S'p2_vo'
I5
tp728
a(S'w'
I2
tp729
a(S'w'
I731
tp730
a(S'w'
I3
tp731
a(S'p1_tl'
I61
tp732
a(S'w'
I731
tp733
a(S'w'
I3
tp734
a(S'w'
I1
tp735
a(S'p1_vo'
I7
tp736
a(S'w'
I731
tp737
a(S'p2_tl'
I159
tp738
a(S'p2_ll'
I1
tp739
a(S'w'
I2
tp740
a(S'p2_tl'
I157
tp741
a(S'w'
I1
tp742
a(S'p2_vo'
I8
tp743
a(S'w'
I2
tp744
a(S'w'
I727
tp745
a(S'w'
I3
tp746
a(S'w'
I731
tp747
a(S'w'
I3
tp748
a(S'p1_tl'
I65
tp749
a(S'w'
I731
tp750
a(S'w'
I3
tp751
a(S'w'
I731
tp752
a(S'p2_tl'
I161
tp753
a(S'w'
I1
tp754
a(S'p2_vo'
I7
tp755
a(S'w'
I2
tp756
a(S'w'
I731
tp757
a(S'w'
I3
tp758
a(S'w'
I1
tp759
a(S'p1_vo'
I6
tp760
a(S'w'
I729
tp761
a(S'w'
I3
tp762
a(S'p1_tl'
I61
tp763
a(S'w'
I731
tp764
a(S'w'
I3
tp765
a(S'w'
I731
tp766
a(S'p2_tl'
I157
tp767
a(S'w'
I3
tp768
a(S'w'
I731
tp769
a(S'w'
I4
tp770
a(S'p1_tl'
I252
tp771
a(S'p1_ll'
I1
tp772
a(S'w'
I2
tp773
a(S'p1_tl'
I254
tp774
a(S'w'
I1
tp775
a(S'p1_vo'
I8
tp776
a(S'w'
I3
tp777
a(S'tr_tl'
I63
tp778
a(S'w'
I1
tp779
a(S'tr_ll'
I1
tp780
a(S'w'
I722
tp781
a(S'w'
I1
tp782
a(S'p2_vo'
I6
tp783
a(S'w'
I2
tp784
a(S'w'
I731
tp785
a(S'w'
I3
tp786
a(S'w'
I731
tp787
a(S'p2_tl'
I161
tp788
a(S'w'
I3
tp789
a(S'p1_tl'
I250
tp790
a(S'w'
I731
tp791
a(S'w'
I3
tp792
a(S'w'
I1
tp793
a(S'p1_vo'
I7
tp794
a(S'w'
I730
tp795
a(S'w'
I3
tp796
a(S'w'
I730
tp797
a(S'w'
I3
tp798
a(S'w'
I731
tp799
a(S'p2_tl'
I157
tp800
a(S'w'
I1
tp801
a(S'p2_vo'
I5
tp802
a(S'w'
I2
tp803
a(S'p1_tl'
I254
tp804
a(S'w'
I731
tp805
a(S'w'
I3
tp806
a(S'w'
I731
tp807
a(S'w'
I3
tp808
a(S'w'
I732
tp809
a(S'p2_tl'
I168
tp810
a(S'p2_ll'
I1
tp811
a(S'w'
I2
tp812
a(S'p2_tl'
I166
tp813
a(S'w'
I1
tp814
a(S'p2_vo'
I8
tp815
a(S'w'
I2
tp816
a(S'w'
I1
tp817
a(S'p1_vo'
I6
tp818
a(S'w'
I726
tp819
a(S'w'
I3
tp820
a(S'p1_tl'
I250
tp821
a(S'w'
I731
tp822
a(S'w'
I3
tp823
a(S'w'
I731
tp824
a(S'p2_tl'
I170
tp825
a(S'w'
I3
tp826
a(S'w'
I731
tp827
a(S'w'
I1
tp828
a(S'p2_vo'
I7
tp829
a(S'w'
I3
tp830
a(S'p1_tl'
I171
tp831
a(S'p1_ll'
I1
tp832
a(S'w'
I2
tp833
a(S'p1_tl'
I173
tp834
a(S'w'
I1
tp835
a(S'p1_vo'
I8
tp836
a(S'w'
I727
tp837
a(S'w'
I3
tp838
a(S'w'
I730
tp839
a(S'w'
I3
tp840
a(S'w'
I731
tp841
a(S'p2_tl'
I166
tp842
a(S'w'
I3
tp843
a(S'p1_tl'
I169
tp844
a(S'w'
I731
tp845
a(S'w'
I3
tp846
a(S'w'
I1
tp847
a(S'p1_vo'
I7
tp848
a(S'w'
I730
tp849
a(S'w'
I3
tp850
a(S'w'
I731
tp851
a(S'w'
I1
tp852
a(S'p2_vo'
I6
tp853
a(S'w'
I2
tp854
a(S'w'
I730
tp855
a(S'p2_tl'
I170
tp856
a(S'w'
I3
tp857
a(S'p1_tl'
I173
tp858
a(S'w'
I731
tp859
a(S'w'
I3
tp860
a(S'w'
I731
tp861
a(S'w'
I3
tp862
a(S'w'
I731
tp863
a(S'w'
I3
tp864
a(S'w'
I1
tp865
a(S'p1_vo'
I6
tp866
a(S'w'
I729
tp867
a(S'p2_tl'
I166
tp868
a(S'w'
I3
tp869
a(S'p1_tl'
I169
tp870
a(S'w'
I731
tp871
a(S'w'
I1
tp872
a(S'p2_vo'
I5
tp873
a(S'w'
I2
tp874
a(S'w'
I731
tp875
a(S'w'
I3
tp876
a(S'w'
I732
tp877
a(S'p2_tl'
I189
tp878
a(S'p2_ll'
I1
tp879
a(S'w'
I2
tp880
a(S'p2_tl'
I187
tp881
a(S'w'
I1
tp882
a(S'p2_vo'
I8
tp883
a(S'w'
I3
tp884
a(S'p1_tl'
I58
tp885
a(S'w'
I1
tp886
a(S'p1_ll'
I1
tp887
a(S'p1_th'
I2
tp888
a(S'w'
I1
tp889
a(S'p1_tl'
I60
tp890
a(S'w'
I1
tp891
a(S'p1_vo'
I8
tp892
a(S'w'
I4
tp893
a(S'tr_tl'
I28
tp894
a(S'tr_ll'
I1
tp895
a(S'w'
I720
tp896
a(S'p2_tl'
I191
tp897
a(S'w'
I3
tp898
a(S'w'
I730
tp899
a(S'w'
I3
tp900
a(S'w'
I731
tp901
a(S'w'
I3
tp902
a(S'p1_tl'
I56
tp903
a(S'w'
I731
tp904
a(S'w'
I1
tp905
a(S'p2_vo'
I7
tp906
a(S'w'
I2
tp907
a(S'w'
I1
tp908
a(S'p1_vo'
I7
tp909
a(S'w'
I730
tp910
a(S'p2_tl'
I187
tp911
a(S'w'
I3
tp912
a(S'w'
I731
tp913
a(S'w'
I3
tp914
a(S'w'
I730
tp915
a(S'w'
I3
tp916
a(S'p1_tl'
I60
tp917
a(S'w'
I731
tp918
a(S'w'
I3
tp919
a(S'w'
I731
tp920
a(S'p2_tl'
I191
tp921
a(S'w'
I3
tp922
a(S'w'
I731
tp923
a(S'w'
I1
tp924
a(S'p2_vo'
I6
tp925
a(S'w'
I2
tp926
a(S'w'
I1
tp927
a(S'p1_vo'
I6
tp928
a(S'w'
I730
tp929
a(S'w'
I3
tp930
a(S'p1_tl'
I56
tp931
a(S'w'
I730
tp932
a(S'w'
I3
tp933
a(S'w'
I731
tp934
a(S'p2_tl'
I187
tp935
a(S'w'
I3
tp936
a(S'w'
I731
tp937
a(S'w'
I4
tp938
a(S'p1_tl'
I196
tp939
a(S'p1_ll'
I1
tp940
a(S'p1_th'
I1
tp941
a(S'w'
I2
tp942
a(S'p1_tl'
I198
tp943
a(S'w'
I1
tp944
a(S'p1_vo'
I8
tp945
a(S'w'
I727
tp946
a(S'w'
I3
tp947
a(S'w'
I731
tp948
a(S'w'
I1
tp949
a(S'p2_vo'
I5
tp950
a(S'w'
I2
tp951
a(S'w'
I730
tp952
a(S'p2_tl'
I191
tp953
a(S'w'
I3
tp954
a(S'p1_tl'
I194
tp955
a(S'w'
I731
tp956
a(S'w'
I3
tp957
a(S'w'
I1
tp958
a(S'p1_vo'
I7
tp959
a(S'w'
I730
tp960
a(S'w'
I3
tp961
a(S'w'
I731
tp962
a(S'w'
I3
tp963
a(S'w'
I730
tp964
a(S'p2_tl'
I187
tp965
a(S'w'
I3
tp966
a(S'p1_tl'
I198
tp967
a(S'w'
I731
tp968
a(S'w'
I1
tp969
a(S'p2_vo'
I4
tp970
a(S'w'
I2
tp971
a(S'w'
I731
tp972
a(S'w'
I3
tp973
a(S'w'
I731
tp974
a(S'w'
I3
tp975
a(S'w'
I1
tp976
a(S'p1_vo'
I6
tp977
a(S'w'
I730
tp978
a(S'p2_tl'
I191
tp979
a(S'w'
I3
tp980
a(S'p1_tl'
I194
tp981
a(S'w'
I730
tp982
a(S'w'
I3
tp983
a(S'w'
I731
tp984
a(S'w'
I3
tp985
a(S'w'
I731
tp986
a(S'w'
I1
tp987
a(S'p2_vo'
I3
tp988
a(S'w'
I3
tp989
a(S'p1_tl'
I124
tp990
a(S'p1_ll'
I1
tp991
a(S'w'
I2
tp992
a(S'p1_tl'
I126
tp993
a(S'w'
I1
tp994
a(S'p1_vo'
I8
tp995
a(S'w'
I727
tp996
a(S'p2_tl'
I187
tp997
a(S'w'
I3
tp998
a(S'w'
I731
tp999
a(S'w'
I3
tp1000
a(S'w'
I730
tp1001
a(S'w'
I3
tp1002
a(S'p1_tl'
I122
tp1003
a(S'w'
I731
tp1004
a(S'w'
I3
tp1005
a(S'w'
I1
tp1006
a(S'p1_vo'
I7
tp1007
a(S'w'
I730
tp1008
a(S'p2_tl'
I191
tp1009
a(S'w'
I3
tp1010
a(S'w'
I731
tp1011
a(S'w'
I1
tp1012
a(S'p2_vo'
I2
tp1013
a(S'w'
I2
tp1014
a(S'w'
I731
tp1015
a(S'w'
I3
tp1016
a(S'p1_tl'
I126
tp1017
a(S'w'
I730
tp1018
a(S'w'
I3
tp1019
a(S'w'
I731
tp1020
a(S'p2_tl'
I187
tp1021
a(S'w'
I3
tp1022
a(S'w'
I731
tp1023
a(S'w'
I3
tp1024
a(S'w'
I1
tp1025
a(S'p1_vo'
I6
tp1026
a(S'w'
I730
tp1027
a(S'w'
I3
tp1028
a(S'p1_tl'
I122
tp1029
a(S'w'
I731
tp1030
a(S'w'
I1
tp1031
a(S'p2_vo'
I1
tp1032
a(S'w'
I2
tp1033
a(S'w'
I730
tp1034
a(S'p2_tl'
I191
tp1035
a(S'w'
I3
tp1036
a(S'w'
I731
tp1037
a(S'w'
I4
tp1038
a(S'p1_tl'
I58
tp1039
a(S'p1_ll'
I1
tp1040
a(S'p1_th'
I2
tp1041
a(S'w'
I2
tp1042
a(S'p1_tl'
I60
tp1043
a(S'w'
I1
tp1044
a(S'p1_vo'
I8
tp1045
a(S'w'
I3
tp1046
a(S'tr_tl'
I124
tp1047
a(S'w'
I1
tp1048
a(S'tr_ll'
I1
tp1049
a(S'w'
I723
tp1050
a(S'w'
I3
tp1051
a(S'w'
I731
tp1052
a(S'w'
I3
tp1053
a(S'w'
I730
tp1054
a(S'p2_tl'
I187
tp1055
a(S'w'
I3
tp1056
a(S'p1_tl'
I56
tp1057
a(S'w'
I731
tp1058
a(S'w'
I1
tp1059
a(S'p2_vo'
I0
tp1060
a(S'w'
I2
tp1061
a(S'w'
I1
tp1062
a(S'p1_vo'
I7
tp1063
a(S'w'
I730
tp1064
a(S'w'
I3
tp1065
a(S'w'
I731
tp1066
a(S'w'
I3
tp1067
a(S'w'
I731
tp1068
a(S'p2_tl'
I191
tp1069
a(S'w'
I2
tp1070
a(S'p1_tl'
I60
tp1071
a(S'w'
I731
tp1072
a(S'w'
I2
tp1073
a(S'w'
I732
tp1074
a(S'w'
I2
tp1075
a(S'w'
I732
tp1076
a(S'w'
I2
tp1077
a(S'w'
I1
tp1078
a(S'p1_vo'
I6
tp1079
a(S'w'
I731
tp1080
a(S'p2_tl'
I187
tp1081
a(S'w'
I3
tp1082
a(S'p1_tl'
I56
tp1083
a(S'w'
I731
tp1084
a(S'w'
I3
tp1085
a(S'w'
I730
tp1086
a(S'w'
I3
tp1087
a(S'w'
I733
tp1088
a(S'p2_tl'
I191
tp1089
a(S'w'
I4
tp1090
a(S'p1_tl'
I196
tp1091
a(S'p1_ll'
I1
tp1092
a(S'p1_th'
I1
tp1093
a(S'w'
I2
tp1094
a(S'p1_tl'
I198
tp1095
a(S'w'
I1
tp1096
a(S'p1_vo'
I8
tp1097
a(S'w'
I725
tp1098
a(S'w'
I2
tp1099
a(S'w'
I732
tp1100
a(S'w'
I2
tp1101
a(S'w'
I732
tp1102
a(S'p2_tl'
I187
tp1103
a(S'w'
I3
tp1104
a(S'p1_tl'
I194
tp1105
a(S'w'
I730
tp1106
a(S'w'
I3
tp1107
a(S'w'
I1
tp1108
a(S'p1_vo'
I7
tp1109
a(S'w'
I730
tp1110
a(S'w'
I3
tp1111
a(S'w'
I731
tp1112
a(S'w'
I3
tp1113
a(S'w'
I731
tp1114
a(S'p2_tl'
I191
tp1115
a(S'w'
I2
tp1116
a(S'p1_tl'
I198
tp1117
a(S'w'
I732
tp1118
a(S'w'
I2
tp1119
a(S'w'
I731
tp1120
a(S'w'
I2
tp1121
a(S'w'
I732
tp1122
a(S'w'
I2
tp1123
a(S'w'
I1
tp1124
a(S'p1_vo'
I6
tp1125
a(S'w'
I731
tp1126
a(S'p2_tl'
I187
tp1127
a(S'w'
I3
tp1128
a(S'p1_tl'
I194
tp1129
a(S'w'
I731
tp1130
a(S'w'
I3
tp1131
a(S'w'
I730
tp1132
a(S'w'
I3
tp1133
a(S'w'
I732
tp1134
a(S'p2_tl'
I225
tp1135
a(S'p2_ll'
I1
tp1136
a(S'w'
I2
tp1137
a(S'p2_tl'
I227
tp1138
a(S'w'
I1
tp1139
a(S'p2_vo'
I8
tp1140
a(S'w'
I3
tp1141
a(S'p1_tl'
I124
tp1142
a(S'w'
I1
tp1143
a(S'p1_ll'
I1
tp1144
a(S'w'
I1
tp1145
a(S'p1_tl'
I126
tp1146
a(S'w'
I1
tp1147
a(S'p1_vo'
I8
tp1148
a(S'w'
I724
tp1149
a(S'p2_tl'
I223
tp1150
a(S'w'
I3
tp1151
a(S'w'
I731
tp1152
a(S'w'
I3
tp1153
a(S'w'
I731
tp1154
a(S'w'
I3
tp1155
a(S'p1_tl'
I122
tp1156
a(S'w'
I730
tp1157
a(S'w'
I1
tp1158
a(S'p2_vo'
I7
tp1159
a(S'w'
I2
tp1160
a(S'w'
I1
tp1161
a(S'p1_vo'
I7
tp1162
a(S'w'
I730
tp1163
a(S'p2_tl'
I227
tp1164
a(S'w'
I3
tp1165
a(S'w'
I731
tp1166
a(S'w'
I3
tp1167
a(S'w'
I731
tp1168
a(S'w'
I3
tp1169
a(S'p1_tl'
I126
tp1170
a(S'w'
I731
tp1171
a(S'w'
I3
tp1172
a(S'w'
I730
tp1173
a(S'p2_tl'
I223
tp1174
a(S'w'
I3
tp1175
a(S'w'
I731
tp1176
a(S'w'
I1
tp1177
a(S'p2_vo'
I6
tp1178
a(S'w'
I2
tp1179
a(S'w'
I1
tp1180
a(S'p1_vo'
I6
tp1181
a(S'w'
I730
tp1182
a(S'w'
I3
tp1183
a(S'p1_tl'
I122
tp1184
a(S'w'
I731
tp1185
a(S'w'
I3
tp1186
a(S'w'
I731
tp1187
a(S'p2_tl'
I227
tp1188
a(S'w'
I3
tp1189
a(S'w'
I730
tp1190
a(S'w'
I4
tp1191
a(S'p1_tl'
I58
tp1192
a(S'p1_ll'
I1
tp1193
a(S'p1_th'
I2
tp1194
a(S'w'
I2
tp1195
a(S'p1_tl'
I60
tp1196
a(S'w'
I1
tp1197
a(S'p1_vo'
I8
tp1198
a(S'w'
I3
tp1199
a(S'tr_tl'
I28
tp1200
a(S'w'
I1
tp1201
a(S'tr_ll'
I1
tp1202
a(S'w'
I723
tp1203
a(S'w'
I3
tp1204
a(S'w'
I731
tp1205
a(S'w'
I1
tp1206
a(S'p2_vo'
I5
tp1207
a(S'w'
I2
tp1208
a(S'w'
I731
tp1209
a(S'p2_tl'
I223
tp1210
a(S'w'
I3
tp1211
a(S'p1_tl'
I56
tp1212
a(S'w'
I731
tp1213
a(S'w'
I3
tp1214
a(S'w'
I1
tp1215
a(S'p1_vo'
I7
tp1216
a(S'w'
I729
tp1217
a(S'w'
I3
tp1218
a(S'w'
I731
tp1219
a(S'w'
I3
tp1220
a(S'w'
I731
tp1221
a(S'p2_tl'
I227
tp1222
a(S'w'
I3
tp1223
a(S'p1_tl'
I60
tp1224
a(S'w'
I731
tp1225
a(S'w'
I1
tp1226
a(S'p2_vo'
I4
tp1227
a(S'w'
I2
tp1228
a(S'w'
I730
tp1229
a(S'w'
I3
tp1230
a(S'w'
I731
tp1231
a(S'w'
I3
tp1232
a(S'w'
I1
tp1233
a(S'p1_vo'
I6
tp1234
a(S'w'
I730
tp1235
a(S'p2_tl'
I223
tp1236
a(S'w'
I3
tp1237
a(S'p1_tl'
I56
tp1238
a(S'w'
I731
tp1239
a(S'w'
I3
tp1240
a(S'w'
I731
tp1241
a(S'w'
I3
tp1242
a(S'w'
I731
tp1243
a(S'p2_tl'
I28
tp1244
a(S'p2_ll'
I1
tp1245
a(S'p2_th'
I1
tp1246
a(S'w'
I2
tp1247
a(S'p2_tl'
I30
tp1248
a(S'w'
I1
tp1249
a(S'p2_vo'
I8
tp1250
a(S'w'
I3
tp1251
a(S'p1_tl'
I196
tp1252
a(S'w'
I1
tp1253
a(S'p1_ll'
I1
tp1254
a(S'p1_th'
I1
tp1255
a(S'w'
I1
tp1256
a(S'p1_tl'
I198
tp1257
a(S'w'
I1
tp1258
a(S'p1_vo'
I8
tp1259
a(S'w'
I724
tp1260
a(S'w'
I3
tp1261
a(S'w'
I731
tp1262
a(S'w'
I3
tp1263
a(S'w'
I731
tp1264
a(S'p2_tl'
I26
tp1265
a(S'w'
I3
tp1266
a(S'p1_tl'
I194
tp1267
a(S'w'
I731
tp1268
a(S'w'
I1
tp1269
a(S'p2_vo'
I7
tp1270
a(S'w'
I2
tp1271
a(S'w'
I1
tp1272
a(S'p1_vo'
I7
tp1273
a(S'w'
I729
tp1274
a(S'w'
I3
tp1275
a(S'w'
I731
tp1276
a(S'w'
I3
tp1277
a(S'w'
I731
tp1278
a(S'p2_tl'
I30
tp1279
a(S'w'
I3
tp1280
a(S'p1_tl'
I198
tp1281
a(S'w'
I731
tp1282
a(S'w'
I3
tp1283
a(S'w'
I731
tp1284
a(S'w'
I3
tp1285
a(S'w'
I730
tp1286
a(S'w'
I1
tp1287
a(S'p2_vo'
I6
tp1288
a(S'w'
I2
tp1289
a(S'w'
I1
tp1290
a(S'p1_vo'
I6
tp1291
a(S'w'
I730
tp1292
a(S'p2_tl'
I26
tp1293
a(S'w'
I3
tp1294
a(S'p1_tl'
I194
tp1295
a(S'w'
I731
tp1296
a(S'w'
I3
tp1297
a(S'w'
I731
tp1298
a(S'w'
I3
tp1299
a(S'w'
I732
tp1300
a(S'p2_tl'
I253
tp1301
a(S'p2_ll'
I1
tp1302
a(S'p2_th'
I0
tp1303
a(S'w'
I2
tp1304
a(S'p2_tl'
I251
tp1305
a(S'w'
I1
tp1306
a(S'p2_vo'
I8
tp1307
a(S'w'
I3
tp1308
a(S'p1_tl'
I252
tp1309
a(S'w'
I1
tp1310
a(S'p1_ll'
I1
tp1311
a(S'w'
I1
tp1312
a(S'p1_tl'
I254
tp1313
a(S'w'
I1
tp1314
a(S'p1_vo'
I8
tp1315
a(S'w'
I4
tp1316
a(S'tr_tl'
I63
tp1317
a(S'tr_ll'
I1
tp1318
a(S'w'
I719
tp1319
a(S'w'
I3
tp1320
a(S'w'
I731
tp1321
a(S'w'
I3
tp1322
a(S'w'
I731
tp1323
a(S'w'
I3
tp1324
a(S'p1_tl'
I250
tp1325
a(S'w'
I731
tp1326
a(S'p2_tl'
I255
tp1327
a(S'w'
I1
tp1328
a(S'p2_vo'
I7
tp1329
a(S'w'
I2
tp1330
a(S'w'
I1
tp1331
a(S'p1_vo'
I7
tp1332
a(S'w'
I729
tp1333
a(S'w'
I3
tp1334
a(S'w'
I731
tp1335
a(S'w'
I3
tp1336
a(S'w'
I731
tp1337
a(S'w'
I3
tp1338
a(S'p1_tl'
I254
tp1339
a(S'w'
I731
tp1340
a(S'p2_tl'
I251
tp1341
a(S'w'
I3
tp1342
a(S'w'
I731
tp1343
a(S'w'
I3
tp1344
a(S'w'
I730
tp1345
a(S'w'
I1
tp1346
a(S'p2_vo'
I6
tp1347
a(S'w'
I2
tp1348
a(S'w'
I1
tp1349
a(S'p1_vo'
I6
tp1350
a(S'w'
I730
tp1351
a(S'w'
I3
tp1352
a(S'p1_tl'
I250
tp1353
a(S'w'
I731
tp1354
a(S'p2_tl'
I255
tp1355
a(S'w'
I3
tp1356
a(S'w'
I731
tp1357
a(S'w'
I3
tp1358
a(S'w'
I731
tp1359
a(S'w'
I4
tp1360
a(S'p1_tl'
I171
tp1361
a(S'p1_ll'
I1
tp1362
a(S'w'
I2
tp1363
a(S'p1_tl'
I173
tp1364
a(S'w'
I1
tp1365
a(S'p1_vo'
I8
tp1366
a(S'w'
I726
tp1367
a(S'w'
I3
tp1368
a(S'w'
I731
tp1369
a(S'p2_tl'
I251
tp1370
a(S'w'
I1
tp1371
a(S'p2_vo'
I5
tp1372
a(S'w'
I2
tp1373
a(S'w'
I731
tp1374
a(S'w'
I3
tp1375
a(S'p1_tl'
I169
tp1376
a(S'w'
I731
tp1377
a(S'w'
I3
tp1378
a(S'w'
I1
tp1379
a(S'p1_vo'
I7
tp1380
a(S'w'
I731
tp1381
a(S'p2_tl'
I225
tp1382
a(S'p2_ll'
I1
tp1383
a(S'w'
I2
tp1384
a(S'p2_tl'
I223
tp1385
a(S'w'
I1
tp1386
a(S'p2_vo'
I8
tp1387
a(S'w'
I2
tp1388
a(S'w'
I727
tp1389
a(S'w'
I3
tp1390
a(S'w'
I731
tp1391
a(S'w'
I3
tp1392
a(S'p1_tl'
I173
tp1393
a(S'w'
I731
tp1394
a(S'w'
I3
tp1395
a(S'w'
I731
tp1396
a(S'p2_tl'
I227
tp1397
a(S'w'
I1
tp1398
a(S'p2_vo'
I7
tp1399
a(S'w'
I2
tp1400
a(S'w'
I731
tp1401
a(S'w'
I3
tp1402
a(S'w'
I1
tp1403
a(S'p1_vo'
I6
tp1404
a(S'w'
I729
tp1405
a(S'w'
I3
tp1406
a(S'p1_tl'
I169
tp1407
a(S'w'
I731
tp1408
a(S'w'
I3
tp1409
a(S'w'
I731
tp1410
a(S'p2_tl'
I223
tp1411
a(S'w'
I3
tp1412
a(S'w'
I731
tp1413
a(S'w'
I4
tp1414
a(S'p1_tl'
I63
tp1415
a(S'p1_ll'
I1
tp1416
a(S'w'
I2
tp1417
a(S'p1_tl'
I65
tp1418
a(S'w'
I1
tp1419
a(S'p1_vo'
I8
tp1420
a(S'w'
I726
tp1421
a(S'w'
I1
tp1422
a(S'p2_vo'
I6
tp1423
a(S'w'
I2
tp1424
a(S'w'
I731
tp1425
a(S'w'
I3
tp1426
a(S'w'
I731
tp1427
a(S'p2_tl'
I227
tp1428
a(S'w'
I3
tp1429
a(S'p1_tl'
I61
tp1430
a(S'w'
I731
tp1431
a(S'w'
I3
tp1432
a(S'w'
I1
tp1433
a(S'p1_vo'
I7
tp1434
a(S'w'
I730
tp1435
a(S'w'
I3
tp1436
a(S'w'
I730
tp1437
a(S'w'
I3
tp1438
a(S'w'
I731
tp1439
a(S'p2_tl'
I223
tp1440
a(S'w'
I1
tp1441
a(S'p2_vo'
I5
tp1442
a(S'w'
I2
tp1443
a(S'p1_tl'
I65
tp1444
a(S'w'
I731
tp1445
a(S'w'
I3
tp1446
a(S'w'
I731
tp1447
a(S'w'
I3
tp1448
a(S'w'
I732
tp1449
a(S'p2_tl'
I212
tp1450
a(S'p2_ll'
I1
tp1451
a(S'w'
I2
tp1452
a(S'p2_tl'
I210
tp1453
a(S'w'
I1
tp1454
a(S'p2_vo'
I8
tp1455
a(S'w'
I2
tp1456
a(S'w'
I1
tp1457
a(S'p1_vo'
I6
tp1458
a(S'w'
I726
tp1459
a(S'w'
I3
tp1460
a(S'p1_tl'
I61
tp1461
a(S'w'
I731
tp1462
a(S'w'
I3
tp1463
a(S'w'
I731
tp1464
a(S'p2_tl'
I214
tp1465
a(S'w'
I3
tp1466
a(S'w'
I731
tp1467
a(S'w'
I1
tp1468
a(S'p2_vo'
I7
tp1469
a(S'w'
I3
tp1470
a(S'p1_tl'
I252
tp1471
a(S'p1_ll'
I1
tp1472
a(S'w'
I2
tp1473
a(S'p1_tl'
I254
tp1474
a(S'w'
I1
tp1475
a(S'p1_vo'
I8
tp1476
a(S'w'
I3
tp1477
a(S'tr_tl'
I171
tp1478
a(S'w'
I1
tp1479
a(S'tr_ll'
I1
tp1480
a(S'w'
I723
tp1481
a(S'w'
I3
tp1482
a(S'w'
I730
tp1483
a(S'w'
I3
tp1484
a(S'w'
I731
tp1485
a(S'p2_tl'
I210
tp1486
a(S'w'
I3
tp1487
a(S'p1_tl'
I250
tp1488
a(S'w'
I731
tp1489
a(S'w'
I3
tp1490
a(S'w'
I1
tp1491
a(S'p1_vo'
I7
tp1492
a(S'w'
I730
tp1493
a(S'w'
I3
tp1494
a(S'w'
I731
tp1495
a(S'w'
I1
tp1496
a(S'p2_vo'
I6
tp1497
a(S'w'
I2
tp1498
a(S'w'
I730
tp1499
a(S'p2_tl'
I214
tp1500
a(S'w'
I3
tp1501
a(S'p1_tl'
I254
tp1502
a(S'w'
I731
tp1503
a(S'w'
I3
tp1504
a(S'w'
I731
tp1505
a(S'w'
I3
tp1506
a(S'w'
I731
tp1507
a(S'w'
I3
tp1508
a(S'w'
I1
tp1509
a(S'p1_vo'
I6
tp1510
a(S'w'
I729
tp1511
a(S'p2_tl'
I210
tp1512
a(S'w'
I3
tp1513
a(S'p1_tl'
I250
tp1514
a(S'w'
I731
tp1515
a(S'w'
I1
tp1516
a(S'p2_vo'
I5
tp1517
a(S'w'
I2
tp1518
a(S'w'
I731
tp1519
a(S'w'
I3
tp1520
a(S'w'
I732
tp1521
a(S'p2_tl'
I168
tp1522
a(S'p2_ll'
I1
tp1523
a(S'w'
I2
tp1524
a(S'p2_tl'
I166
tp1525
a(S'w'
I1
tp1526
a(S'p2_vo'
I8
tp1527
a(S'w'
I3
tp1528
a(S'p1_tl'
I171
tp1529
a(S'w'
I1
tp1530
a(S'p1_ll'
I1
tp1531
a(S'w'
I1
tp1532
a(S'p1_tl'
I173
tp1533
a(S'w'
I1
tp1534
a(S'p1_vo'
I8
tp1535
a(S'w'
I724
tp1536
a(S'w'
I3
tp1537
a(S'w'
I730
tp1538
a(S'w'
I3
tp1539
a(S'w'
I731
tp1540
a(S'w'
I3
tp1541
a(S'p1_tl'
I169
tp1542
a(S'w'
I731
tp1543
a(S'p2_tl'
I170
tp1544
a(S'w'
I1
tp1545
a(S'p2_vo'
I7
tp1546
a(S'w'
I2
tp1547
a(S'w'
I1
tp1548
a(S'p1_vo'
I7
tp1549
a(S'w'
I730
tp1550
a(S'w'
I3
tp1551
a(S'w'
I731
tp1552
a(S'w'
I3
tp1553
a(S'w'
I730
tp1554
a(S'w'
I3
tp1555
a(S'p1_tl'
I173
tp1556
a(S'w'
I731
tp1557
a(S'p2_tl'
I166
tp1558
a(S'w'
I3
tp1559
a(S'w'
I731
tp1560
a(S'w'
I3
tp1561
a(S'w'
I731
tp1562
a(S'w'
I1
tp1563
a(S'p2_vo'
I6
tp1564
a(S'w'
I2
tp1565
a(S'w'
I1
tp1566
a(S'p1_vo'
I6
tp1567
a(S'w'
I730
tp1568
a(S'w'
I3
tp1569
a(S'p1_tl'
I169
tp1570
a(S'w'
I730
tp1571
a(S'p2_tl'
I170
tp1572
a(S'w'
I3
tp1573
a(S'w'
I731
tp1574
a(S'w'
I3
tp1575
a(S'w'
I731
tp1576
a(S'w'
I4
tp1577
a(S'p1_tl'
I63
tp1578
a(S'p1_ll'
I1
tp1579
a(S'w'
I2
tp1580
a(S'p1_tl'
I65
tp1581
a(S'w'
I1
tp1582
a(S'p1_vo'
I8
tp1583
a(S'w'
I727
tp1584
a(S'w'
I3
tp1585
a(S'w'
I731
tp1586
a(S'p2_tl'
I166
tp1587
a(S'w'
I1
tp1588
a(S'p2_vo'
I5
tp1589
a(S'w'
I2
tp1590
a(S'w'
I730
tp1591
a(S'w'
I3
tp1592
a(S'p1_tl'
I61
tp1593
a(S'w'
I731
tp1594
a(S'w'
I3
tp1595
a(S'w'
I1
tp1596
a(S'p1_vo'
I7
tp1597
a(S'w'
I731
tp1598
a(S'p2_tl'
I189
tp1599
a(S'p2_ll'
I1
tp1600
a(S'w'
I2
tp1601
a(S'p2_tl'
I187
tp1602
a(S'w'
I1
tp1603
a(S'p2_vo'
I8
tp1604
a(S'w'
I2
tp1605
a(S'w'
I728
tp1606
a(S'w'
I3
tp1607
a(S'w'
I730
tp1608
a(S'w'
I3
tp1609
a(S'p1_tl'
I65
tp1610
a(S'w'
I731
tp1611
a(S'w'
I3
tp1612
a(S'w'
I731
tp1613
a(S'p2_tl'
I191
tp1614
a(S'w'
I1
tp1615
a(S'p2_vo'
I7
tp1616
a(S'w'
I2
tp1617
a(S'w'
I731
tp1618
a(S'w'
I3
tp1619
a(S'w'
I1
tp1620
a(S'p1_vo'
I6
tp1621
a(S'w'
I730
tp1622
a(S'w'
I3
tp1623
a(S'p1_tl'
I61
tp1624
a(S'w'
I730
tp1625
a(S'w'
I3
tp1626
a(S'w'
I731
tp1627
a(S'p2_tl'
I187
tp1628
a(S'w'
I3
tp1629
a(S'w'
I731
tp1630
a(S'w'
I4
tp1631
a(S'p1_tl'
I252
tp1632
a(S'p1_ll'
I1
tp1633
a(S'w'
I2
tp1634
a(S'p1_tl'
I254
tp1635
a(S'w'
I1
tp1636
a(S'p1_vo'
I8
tp1637
a(S'w'
I3
tp1638
a(S'tr_tl'
I63
tp1639
a(S'w'
I1
tp1640
a(S'tr_ll'
I1
tp1641
a(S'w'
I723
tp1642
a(S'w'
I1
tp1643
a(S'p2_vo'
I6
tp1644
a(S'w'
I2
tp1645
a(S'w'
I731
tp1646
a(S'w'
I3
tp1647
a(S'w'
I730
tp1648
a(S'p2_tl'
I191
tp1649
a(S'w'
I3
tp1650
a(S'p1_tl'
I250
tp1651
a(S'w'
I731
tp1652
a(S'w'
I3
tp1653
a(S'w'
I1
tp1654
a(S'p1_vo'
I7
tp1655
a(S'w'
I730
tp1656
a(S'w'
I3
tp1657
a(S'w'
I731
tp1658
a(S'w'
I3
tp1659
a(S'w'
I731
tp1660
a(S'p2_tl'
I187
tp1661
a(S'w'
I1
tp1662
a(S'p2_vo'
I5
tp1663
a(S'w'
I2
tp1664
a(S'p1_tl'
I254
tp1665
a(S'w'
I730
tp1666
a(S'w'
I3
tp1667
a(S'w'
I731
tp1668
a(S'w'
I3
tp1669
a(S'w'
I732
tp1670
a(S'p2_tl'
I212
tp1671
a(S'p2_ll'
I1
tp1672
a(S'w'
I2
tp1673
a(S'p2_tl'
I210
tp1674
a(S'w'
I1
tp1675
a(S'p2_vo'
I8
tp1676
a(S'w'
I2
tp1677
a(S'w'
I1
tp1678
a(S'p1_vo'
I6
tp1679
a(S'w'
I727
tp1680
a(S'w'
I3
tp1681
a(S'p1_tl'
I250
tp1682
a(S'w'
I731
tp1683
a(S'w'
I3
tp1684
a(S'w'
I730
tp1685
a(S'p2_tl'
I214
tp1686
a(S'w'
I3
tp1687
a(S'w'
I731
tp1688
a(S'w'
I1
tp1689
a(S'p2_vo'
I7
tp1690
a(S'w'
I3
tp1691
a(S'p1_tl'
I171
tp1692
a(S'p1_ll'
I1
tp1693
a(S'w'
I2
tp1694
a(S'p1_tl'
I173
tp1695
a(S'w'
I1
tp1696
a(S'p1_vo'
I8
tp1697
a(S'w'
I727
tp1698
a(S'w'
I3
tp1699
a(S'w'
I731
tp1700
a(S'w'
I3
tp1701
a(S'w'
I730
tp1702
a(S'p2_tl'
I210
tp1703
a(S'w'
I3
tp1704
a(S'p1_tl'
I169
tp1705
a(S'w'
I731
tp1706
a(S'w'
I3
tp1707
a(S'w'
I1
tp1708
a(S'p1_vo'
I7
tp1709
a(S'w'
I730
tp1710
a(S'w'
I3
tp1711
a(S'w'
I731
tp1712
a(S'w'
I1
tp1713
a(S'p2_vo'
I6
tp1714
a(S'w'
I2
tp1715
a(S'w'
I731
tp1716
a(S'p2_tl'
I214
tp1717
a(S'w'
I3
tp1718
a(S'p1_tl'
I173
tp1719
a(S'w'
I730
tp1720
a(S'w'
I3
tp1721
a(S'w'
I731
tp1722
a(S'w'
I3
tp1723
a(S'w'
I731
tp1724
a(S'w'
I3
tp1725
a(S'w'
I1
tp1726
a(S'p1_vo'
I6
tp1727
a(S'w'
I730
tp1728
a(S'p2_tl'
I210
tp1729
a(S'w'
I3
tp1730
a(S'p1_tl'
I169
tp1731
a(S'w'
I731
tp1732
a(S'w'
I1
tp1733
a(S'p2_vo'
I5
tp1734
a(S'w'
I2
tp1735
a(S'w'
I730
tp1736
a(S'w'
I3
tp1737
a(S'w'
I718
tp1738
a.