(lp1
(S'clock'
p2
I1789773
tp3
a(S'fc_mo'
I1
tp4
a(S'ch_no'
I0
tp5
a(S'ch_tr'
I0
tp6
a(S'ch_p2'
I0
tp7
a(S'ch_p1'
I0
tp8
a(S'no_ll'
I0
tp9
a(S'tr_ll'
I0
tp10
a(S'p2_ll'
I0
tp11
a(S'p1_ll'
I0
tp12
a(S'w'
I2
tp13
a(S'ch_no'
I1
tp14
a(S'ch_tr'
I1
tp15
a(S'ch_p2'
I1
tp16
a(S'ch_p1'
I1
tp17
a(S'w'
I18
tp18
a(S'p2_tl'
I189
tp19
a(S'p2_ll'
I1
tp20
a(S'w'
I2
tp21
a(S'p2_tl'
I191
tp22
a(S'w'
I1
tp23
a(S'p2_du'
I2
tp24
a(S'p2_cv'
I1
tp25
a(S'p2_vo'
I4
tp26
a(S'p2_sp'
I7
tp27
a(S'p2_sn'
I1
tp28
a(S'p2_ss'
I7
tp29
a(S'w'
I3
tp30
a(S'p1_tl'
I63
tp31
a(S'p1_ll'
I1
tp32
a(S'p1_th'
I1
tp33
a(S'w'
I2
tp34
a(S'p1_tl'
I65
tp35
a(S'w'
I1
tp36
a(S'p1_du'
I2
tp37
a(S'p1_cv'
I1
tp38
a(S'p1_vo'
I4
tp39
a(S'w'
I1
tp40
a(S'p1_sp'
I7
tp41
a(S'p1_sn'
I1
tp42
a(S'p1_ss'
I7
tp43
a(S'w'
I2
tp44
a(S'tr_lr'
I31
tp45
a(S'w'
I1
tp46
a(S'tr_tl'
I63
tp47
a(S'tr_ll'
I1
tp48
a(S'tr_th'
I1
tp49
a(S'w'
I716
tp50
a(S'p2_tl'
I187
tp51
a(S'w'
I3
tp52
a(S'p1_tl'
I61
tp53
a(S'w'
I731
tp54
a(S'w'
I3
tp55
a(S'w'
I731
tp56
a(S'w'
I3
tp57
a(S'w'
I731
tp58
a(S'w'
I3
tp59
a(S'w'
I730
tp60
a(S'p2_tl'
I191
tp61
a(S'w'
I1
tp62
a(S'p2_vo'
I3
tp63
a(S'w'
I2
tp64
a(S'p1_tl'
I65
tp65
a(S'w'
I1
tp66
a(S'p1_vo'
I3
tp67
a(S'w'
I730
tp68
a(S'w'
I3
tp69
a(S'w'
I731
tp70
a(S'w'
I3
tp71
a(S'w'
I731
tp72
a(S'w'
I3
tp73
a(S'w'
I731
tp74
a(S'p2_tl'
I187
tp75
a(S'w'
I3
tp76
a(S'p1_tl'
I61
tp77
a(S'w'
I730
tp78
a(S'w'
I3
tp79
a(S'w'
I731
tp80
a(S'w'
I1
tp81
a(S'p2_vo'
I2
tp82
a(S'w'
I2
tp83
a(S'w'
I1
tp84
a(S'p1_vo'
I2
tp85
a(S'w'
I730
tp86
a(S'w'
I3
tp87
a(S'w'
I731
tp88
a(S'p2_tl'
I191
tp89
a(S'w'
I3
tp90
a(S'p1_tl'
I65
tp91
a(S'w'
I731
tp92
a(S'w'
I3
tp93
a(S'w'
I730
tp94
a(S'w'
I3
tp95
a(S'w'
I731
tp96
a(S'w'
I3
tp97
a(S'w'
I731
tp98
a(S'p2_tl'
I187
tp99
a(S'w'
I1
tp100
a(S'p2_vo'
I1
tp101
a(S'w'
I2
tp102
a(S'p1_tl'
I61
tp103
a(S'w'
I1
tp104
a(S'p1_vo'
I1
tp105
a(S'w'
I730
tp106
a(S'w'
I3
tp107
a(S'w'
I731
tp108
a(S'w'
I3
tp109
a(S'w'
I731
tp110
a(S'p2_tl'
I168
tp111
a(S'p2_ll'
I1
tp112
a(S'w'
I2
tp113
a(S'p2_tl'
I170
tp114
a(S'w'
I1
tp115
a(S'p2_vo'
I4
tp116
a(S'w'
I3
tp117
a(S'p1_tl'
I253
tp118
a(S'w'
I1
tp119
a(S'p1_ll'
I1
tp120
a(S'p1_th'
I0
tp121
a(S'w'
I1
tp122
a(S'p1_tl'
I255
tp123
a(S'w'
I1
tp124
a(S'p1_vo'
I4
tp125
a(S'w'
I724
tp126
a(S'p2_tl'
I166
tp127
a(S'w'
I3
tp128
a(S'p1_tl'
I251
tp129
a(S'w'
I731
tp130
a(S'w'
I3
tp131
a(S'w'
I731
tp132
a(S'w'
I3
tp133
a(S'w'
I731
tp134
a(S'w'
I3
tp135
a(S'w'
I730
tp136
a(S'p2_tl'
I170
tp137
a(S'w'
I1
tp138
a(S'p2_vo'
I3
tp139
a(S'w'
I2
tp140
a(S'p1_tl'
I255
tp141
a(S'w'
I1
tp142
a(S'p1_vo'
I3
tp143
a(S'w'
I730
tp144
a(S'w'
I3
tp145
a(S'w'
I731
tp146
a(S'w'
I3
tp147
a(S'w'
I731
tp148
a(S'w'
I3
tp149
a(S'w'
I730
tp150
a(S'p2_tl'
I166
tp151
a(S'w'
I3
tp152
a(S'p1_tl'
I251
tp153
a(S'w'
I731
tp154
a(S'w'
I3
tp155
a(S'w'
I731
tp156
a(S'w'
I1
tp157
a(S'p2_vo'
I2
tp158
a(S'w'
I2
tp159
a(S'w'
I1
tp160
a(S'p1_vo'
I2
tp161
a(S'w'
I730
tp162
a(S'w'
I3
tp163
a(S'w'
I731
tp164
a(S'p2_tl'
I170
tp165
a(S'w'
I3
tp166
a(S'p1_tl'
I255
tp167
a(S'w'
I730
tp168
a(S'w'
I3
tp169
a(S'w'
I731
tp170
a(S'w'
I3
tp171
a(S'w'
I731
tp172
a(S'w'
I3
tp173
a(S'w'
I731
tp174
a(S'p2_tl'
I166
tp175
a(S'w'
I1
tp176
a(S'p2_vo'
I1
tp177
a(S'w'
I2
tp178
a(S'p1_tl'
I251
tp179
a(S'w'
I1
tp180
a(S'p1_vo'
I1
tp181
a(S'w'
I730
tp182
a(S'w'
I3
tp183
a(S'w'
I730
tp184
a(S'w'
I3
tp185
a(S'w'
I732
tp186
a(S'p2_tl'
I141
tp187
a(S'p2_ll'
I1
tp188
a(S'w'
I2
tp189
a(S'p2_tl'
I143
tp190
a(S'w'
I1
tp191
a(S'p2_vo'
I4
tp192
a(S'w'
I3
tp193
a(S'p1_tl'
I212
tp194
a(S'w'
I1
tp195
a(S'p1_ll'
I1
tp196
a(S'w'
I1
tp197
a(S'p1_tl'
I214
tp198
a(S'w'
I1
tp199
a(S'p1_vo'
I4
tp200
a(S'w'
I724
tp201
a(S'p2_tl'
I139
tp202
a(S'w'
I3
tp203
a(S'p1_tl'
I210
tp204
a(S'w'
I731
tp205
a(S'w'
I3
tp206
a(S'w'
I731
tp207
a(S'w'
I3
tp208
a(S'w'
I730
tp209
a(S'w'
I3
tp210
a(S'w'
I731
tp211
a(S'p2_tl'
I143
tp212
a(S'w'
I1
tp213
a(S'p2_vo'
I3
tp214
a(S'w'
I2
tp215
a(S'p1_tl'
I214
tp216
a(S'w'
I1
tp217
a(S'p1_vo'
I3
tp218
a(S'w'
I730
tp219
a(S'w'
I3
tp220
a(S'w'
I731
tp221
a(S'w'
I3
tp222
a(S'w'
I731
tp223
a(S'w'
I3
tp224
a(S'w'
I730
tp225
a(S'p2_tl'
I139
tp226
a(S'w'
I3
tp227
a(S'p1_tl'
I210
tp228
a(S'w'
I731
tp229
a(S'w'
I3
tp230
a(S'w'
I731
tp231
a(S'w'
I1
tp232
a(S'p2_vo'
I2
tp233
a(S'w'
I2
tp234
a(S'w'
I1
tp235
a(S'p1_vo'
I2
tp236
a(S'w'
I730
tp237
a(S'w'
I3
tp238
a(S'w'
I730
tp239
a(S'p2_tl'
I143
tp240
a(S'w'
I3
tp241
a(S'p1_tl'
I214
tp242
a(S'w'
I731
tp243
a(S'w'
I3
tp244
a(S'w'
I731
tp245
a(S'w'
I3
tp246
a(S'w'
I731
tp247
a(S'w'
I3
tp248
a(S'w'
I731
tp249
a(S'p2_tl'
I139
tp250
a(S'w'
I1
tp251
a(S'p2_vo'
I1
tp252
a(S'w'
I2
tp253
a(S'p1_tl'
I210
tp254
a(S'w'
I1
tp255
a(S'p1_vo'
I1
tp256
a(S'w'
I729
tp257
a(S'w'
I3
tp258
a(S'w'
I731
tp259
a(S'w'
I3
tp260
a(S'w'
I732
tp261
a(S'p2_tl'
I159
tp262
a(S'p2_ll'
I1
tp263
a(S'w'
I2
tp264
a(S'p2_tl'
I161
tp265
a(S'w'
I1
tp266
a(S'p2_vo'
I4
tp267
a(S'w'
I3
tp268
a(S'p1_tl'
I63
tp269
a(S'w'
I1
tp270
a(S'p1_ll'
I1
tp271
a(S'p1_th'
I1
tp272
a(S'w'
I1
tp273
a(S'p1_tl'
I65
tp274
a(S'w'
I1
tp275
a(S'p1_vo'
I4
tp276
a(S'w'
I4
tp277
a(S'tr_ll'
I1
tp278
a(S'w'
I720
tp279
a(S'p2_tl'
I157
tp280
a(S'w'
I3
tp281
a(S'p1_tl'
I61
tp282
a(S'w'
I731
tp283
a(S'w'
I3
tp284
a(S'w'
I730
tp285
a(S'w'
I3
tp286
a(S'w'
I731
tp287
a(S'w'
I3
tp288
a(S'w'
I731
tp289
a(S'p2_tl'
I161
tp290
a(S'w'
I1
tp291
a(S'p2_vo'
I3
tp292
a(S'w'
I2
tp293
a(S'p1_tl'
I65
tp294
a(S'w'
I1
tp295
a(S'p1_vo'
I3
tp296
a(S'w'
I730
tp297
a(S'w'
I3
tp298
a(S'w'
I731
tp299
a(S'w'
I3
tp300
a(S'w'
I730
tp301
a(S'w'
I3
tp302
a(S'w'
I731
tp303
a(S'p2_tl'
I157
tp304
a(S'w'
I3
tp305
a(S'p1_tl'
I61
tp306
a(S'w'
I731
tp307
a(S'w'
I3
tp308
a(S'w'
I731
tp309
a(S'w'
I1
tp310
a(S'p2_vo'
I2
tp311
a(S'w'
I2
tp312
a(S'w'
I1
tp313
a(S'p1_vo'
I2
tp314
a(S'w'
I730
tp315
a(S'w'
I3
tp316
a(S'w'
I730
tp317
a(S'p2_tl'
I161
tp318
a(S'w'
I3
tp319
a(S'p1_tl'
I65
tp320
a(S'w'
I731
tp321
a(S'w'
I3
tp322
a(S'w'
I731
tp323
a(S'w'
I3
tp324
a(S'w'
I731
tp325
a(S'w'
I3
tp326
a(S'w'
I730
tp327
a(S'p2_tl'
I157
tp328
a(S'w'
I1
tp329
a(S'p2_vo'
I1
tp330
a(S'w'
I2
tp331
a(S'p1_tl'
I61
tp332
a(S'w'
I1
tp333
a(S'p1_vo'
I1
tp334
a(S'w'
I730
tp335
a(S'w'
I3
tp336
a(S'w'
I731
tp337
a(S'w'
I3
tp338
a(S'w'
I732
tp339
a(S'p2_tl'
I168
tp340
a(S'p2_ll'
I1
tp341
a(S'w'
I2
tp342
a(S'p2_tl'
I166
tp343
a(S'w'
I1
tp344
a(S'p2_vo'
I4
tp345
a(S'w'
I3
tp346
a(S'p1_tl'
I253
tp347
a(S'w'
I1
tp348
a(S'p1_ll'
I1
tp349
a(S'p1_th'
I0
tp350
a(S'w'
I2
tp351
a(S'p1_tl'
I255
tp352
a(S'w'
I1
tp353
a(S'p1_vo'
I4
tp354
a(S'w'
I723
tp355
a(S'p2_tl'
I170
tp356
a(S'w'
I3
tp357
a(S'p1_tl'
I251
tp358
a(S'w'
I730
tp359
a(S'w'
I3
tp360
a(S'w'
I731
tp361
a(S'w'
I3
tp362
a(S'w'
I731
tp363
a(S'w'
I3
tp364
a(S'w'
I731
tp365
a(S'p2_tl'
I166
tp366
a(S'w'
I1
tp367
a(S'p2_vo'
I3
tp368
a(S'w'
I2
tp369
a(S'p1_tl'
I255
tp370
a(S'w'
I1
tp371
a(S'p1_vo'
I3
tp372
a(S'w'
I730
tp373
a(S'w'
I3
tp374
a(S'w'
I730
tp375
a(S'w'
I3
tp376
a(S'w'
I731
tp377
a(S'w'
I3
tp378
a(S'w'
I731
tp379
a(S'p2_tl'
I170
tp380
a(S'w'
I3
tp381
a(S'p1_tl'
I251
tp382
a(S'w'
I731
tp383
a(S'w'
I3
tp384
a(S'w'
I731
tp385
a(S'w'
I1
tp386
a(S'p2_vo'
I2
tp387
a(S'w'
I2
tp388
a(S'w'
I1
tp389
a(S'p1_vo'
I2
tp390
a(S'w'
I729
tp391
a(S'w'
I3
tp392
a(S'w'
I731
tp393
a(S'p2_tl'
I166
tp394
a(S'w'
I3
tp395
a(S'p1_tl'
I255
tp396
a(S'w'
I731
tp397
a(S'w'
I3
tp398
a(S'w'
I731
tp399
a(S'w'
I3
tp400
a(S'w'
I731
tp401
a(S'w'
I3
tp402
a(S'w'
I730
tp403
a(S'p2_tl'
I170
tp404
a(S'w'
I1
tp405
a(S'p2_vo'
I1
tp406
a(S'w'
I2
tp407
a(S'p1_tl'
I251
tp408
a(S'w'
I1
tp409
a(S'p1_vo'
I1
tp410
a(S'w'
I730
tp411
a(S'w'
I3
tp412
a(S'w'
I731
tp413
a(S'w'
I3
tp414
a(S'w'
I731
tp415
a(S'w'
I4
tp416
a(S'p1_tl'
I212
tp417
a(S'p1_ll'
I1
tp418
a(S'w'
I2
tp419
a(S'p1_tl'
I214
tp420
a(S'w'
I1
tp421
a(S'p1_vo'
I4
tp422
a(S'w'
I726
tp423
a(S'p2_tl'
I166
tp424
a(S'w'
I3
tp425
a(S'p1_tl'
I210
tp426
a(S'w'
I731
tp427
a(S'w'
I3
tp428
a(S'w'
I731
tp429
a(S'w'
I1
tp430
a(S'p2_vo'
I0
tp431
a(S'w'
I2
tp432
a(S'w'
I731
tp433
a(S'w'
I3
tp434
a(S'w'
I731
tp435
a(S'p2_tl'
I170
tp436
a(S'w'
I2
tp437
a(S'p1_tl'
I214
tp438
a(S'w'
I1
tp439
a(S'p1_vo'
I3
tp440
a(S'w'
I730
tp441
a(S'w'
I2
tp442
a(S'w'
I732
tp443
a(S'w'
I2
tp444
a(S'w'
I732
tp445
a(S'w'
I2
tp446
a(S'w'
I732
tp447
a(S'p2_tl'
I166
tp448
a(S'w'
I3
tp449
a(S'p1_tl'
I210
tp450
a(S'w'
I731
tp451
a(S'w'
I3
tp452
a(S'w'
I730
tp453
a(S'w'
I3
tp454
a(S'w'
I1
tp455
a(S'p1_vo'
I2
tp456
a(S'w'
I730
tp457
a(S'w'
I3
tp458
a(S'w'
I731
tp459
a(S'p2_tl'
I170
tp460
a(S'w'
I2
tp461
a(S'p1_tl'
I214
tp462
a(S'w'
I732
tp463
a(S'w'
I2
tp464
a(S'w'
I732
tp465
a(S'w'
I2
tp466
a(S'w'
I731
tp467
a(S'w'
I2
tp468
a(S'w'
I732
tp469
a(S'p2_tl'
I166
tp470
a(S'w'
I3
tp471
a(S'p1_tl'
I210
tp472
a(S'w'
I1
tp473
a(S'p1_vo'
I1
tp474
a(S'w'
I730
tp475
a(S'w'
I3
tp476
a(S'w'
I731
tp477
a(S'w'
I3
tp478
a(S'w'
I733
tp479
a(S'w'
I4
tp480
a(S'p1_tl'
I63
tp481
a(S'p1_ll'
I1
tp482
a(S'p1_th'
I1
tp483
a(S'w'
I2
tp484
a(S'p1_tl'
I65
tp485
a(S'w'
I1
tp486
a(S'p1_vo'
I4
tp487
a(S'w'
I4
tp488
a(S'tr_ll'
I1
tp489
a(S'w'
I720
tp490
a(S'p2_tl'
I170
tp491
a(S'w'
I2
tp492
a(S'p1_tl'
I61
tp493
a(S'w'
I732
tp494
a(S'w'
I2
tp495
a(S'w'
I732
tp496
a(S'w'
I2
tp497
a(S'w'
I732
tp498
a(S'w'
I2
tp499
a(S'w'
I731
tp500
a(S'p2_tl'
I166
tp501
a(S'w'
I2
tp502
a(S'p1_tl'
I65
tp503
a(S'w'
I2
tp504
a(S'p1_vo'
I3
tp505
a(S'w'
I730
tp506
a(S'w'
I2
tp507
a(S'w'
I732
tp508
a(S'w'
I2
tp509
a(S'w'
I732
tp510
a(S'w'
I2
tp511
a(S'w'
I732
tp512
a(S'p2_tl'
I170
tp513
a(S'w'
I2
tp514
a(S'p1_tl'
I61
tp515
a(S'w'
I731
tp516
a(S'w'
I2
tp517
a(S'w'
I732
tp518
a(S'w'
I2
tp519
a(S'w'
I1
tp520
a(S'p1_vo'
I2
tp521
a(S'w'
I731
tp522
a(S'w'
I2
tp523
a(S'w'
I732
tp524
a(S'p2_tl'
I166
tp525
a(S'w'
I2
tp526
a(S'p1_tl'
I65
tp527
a(S'w'
I732
tp528
a(S'w'
I2
tp529
a(S'w'
I731
tp530
a(S'w'
I2
tp531
a(S'w'
I732
tp532
a(S'w'
I2
tp533
a(S'w'
I732
tp534
a(S'p2_tl'
I170
tp535
a(S'w'
I2
tp536
a(S'p1_tl'
I61
tp537
a(S'w'
I1
tp538
a(S'p1_vo'
I1
tp539
a(S'w'
I731
tp540
a(S'w'
I2
tp541
a(S'w'
I732
tp542
a(S'w'
I2
tp543
a(S'w'
I731
tp544
a(S'w'
I3
tp545
a(S'p1_tl'
I253
tp546
a(S'w'
I1
tp547
a(S'p1_ll'
I1
tp548
a(S'p1_th'
I0
tp549
a(S'w'
I2
tp550
a(S'p1_tl'
I255
tp551
a(S'w'
I1
tp552
a(S'p1_vo'
I4
tp553
a(S'w'
I727
tp554
a(S'p2_tl'
I166
tp555
a(S'w'
I3
tp556
a(S'p1_tl'
I251
tp557
a(S'w'
I731
tp558
a(S'w'
I3
tp559
a(S'w'
I731
tp560
a(S'w'
I3
tp561
a(S'w'
I731
tp562
a(S'w'
I3
tp563
a(S'w'
I730
tp564
a(S'p2_tl'
I170
tp565
a(S'w'
I2
tp566
a(S'p1_tl'
I255
tp567
a(S'w'
I1
tp568
a(S'p1_vo'
I3
tp569
a(S'w'
I731
tp570
a(S'w'
I2
tp571
a(S'w'
I732
tp572
a(S'w'
I2
tp573
a(S'w'
I732
tp574
a(S'w'
I2
tp575
a(S'w'
I731
tp576
a(S'p2_tl'
I166
tp577
a(S'w'
I3
tp578
a(S'p1_tl'
I251
tp579
a(S'w'
I731
tp580
a(S'w'
I3
tp581
a(S'w'
I731
tp582
a(S'w'
I3
tp583
a(S'w'
I1
tp584
a(S'p1_vo'
I2
tp585
a(S'w'
I730
tp586
a(S'w'
I3
tp587
a(S'w'
I731
tp588
a(S'p2_tl'
I170
tp589
a(S'w'
I2
tp590
a(S'p1_tl'
I255
tp591
a(S'w'
I731
tp592
a(S'w'
I2
tp593
a(S'w'
I732
tp594
a(S'w'
I2
tp595
a(S'w'
I732
tp596
a(S'w'
I2
tp597
a(S'w'
I732
tp598
a(S'p2_tl'
I166
tp599
a(S'w'
I3
tp600
a(S'p1_tl'
I251
tp601
a(S'w'
I1
tp602
a(S'p1_vo'
I1
tp603
a(S'w'
I730
tp604
a(S'w'
I3
tp605
a(S'w'
I730
tp606
a(S'w'
I3
tp607
a(S'w'
I732
tp608
a(S'p2_tl'
I189
tp609
a(S'p2_ll'
I1
tp610
a(S'w'
I2
tp611
a(S'p2_tl'
I191
tp612
a(S'w'
I1
tp613
a(S'p2_vo'
I4
tp614
a(S'w'
I3
tp615
a(S'p1_tl'
I82
tp616
a(S'w'
I1
tp617
a(S'p1_ll'
I1
tp618
a(S'p1_th'
I1
tp619
a(S'w'
I1
tp620
a(S'p1_tl'
I84
tp621
a(S'w'
I1
tp622
a(S'p1_vo'
I4
tp623
a(S'w'
I4
tp624
a(S'tr_tl'
I82
tp625
a(S'tr_ll'
I1
tp626
a(S'w'
I720
tp627
a(S'p2_tl'
I187
tp628
a(S'w'
I3
tp629
a(S'p1_tl'
I80
tp630
a(S'w'
I731
tp631
a(S'w'
I3
tp632
a(S'w'
I731
tp633
a(S'w'
I3
tp634
a(S'w'
I730
tp635
a(S'w'
I3
tp636
a(S'w'
I731
tp637
a(S'p2_tl'
I191
tp638
a(S'w'
I1
tp639
a(S'p2_vo'
I3
tp640
a(S'w'
I2
tp641
a(S'p1_tl'
I84
tp642
a(S'w'
I1
tp643
a(S'p1_vo'
I3
tp644
a(S'w'
I730
tp645
a(S'w'
I3
tp646
a(S'w'
I731
tp647
a(S'w'
I3
tp648
a(S'w'
I731
tp649
a(S'w'
I3
tp650
a(S'w'
I730
tp651
a(S'p2_tl'
I187
tp652
a(S'w'
I3
tp653
a(S'p1_tl'
I80
tp654
a(S'w'
I731
tp655
a(S'w'
I3
tp656
a(S'w'
I731
tp657
a(S'w'
I1
tp658
a(S'p2_vo'
I2
tp659
a(S'w'
I2
tp660
a(S'w'
I1
tp661
a(S'p1_vo'
I2
tp662
a(S'w'
I730
tp663
a(S'w'
I3
tp664
a(S'w'
I730
tp665
a(S'p2_tl'
I191
tp666
a(S'w'
I3
tp667
a(S'p1_tl'
I84
tp668
a(S'w'
I731
tp669
a(S'w'
I3
tp670
a(S'w'
I731
tp671
a(S'w'
I3
tp672
a(S'w'
I731
tp673
a(S'w'
I3
tp674
a(S'w'
I731
tp675
a(S'p2_tl'
I187
tp676
a(S'w'
I1
tp677
a(S'p2_vo'
I1
tp678
a(S'w'
I2
tp679
a(S'p1_tl'
I80
tp680
a(S'w'
I1
tp681
a(S'p1_vo'
I1
tp682
a(S'w'
I729
tp683
a(S'w'
I3
tp684
a(S'w'
I731
tp685
a(S'w'
I3
tp686
a(S'w'
I732
tp687
a(S'p2_tl'
I168
tp688
a(S'p2_ll'
I1
tp689
a(S'w'
I2
tp690
a(S'p2_tl'
I170
tp691
a(S'w'
I1
tp692
a(S'p2_vo'
I4
tp693
a(S'w'
I3
tp694
a(S'p1_tl'
I28
tp695
a(S'w'
I1
tp696
a(S'p1_ll'
I1
tp697
a(S'w'
I1
tp698
a(S'p1_tl'
I30
tp699
a(S'w'
I1
tp700
a(S'p1_vo'
I4
tp701
a(S'w'
I724
tp702
a(S'p2_tl'
I166
tp703
a(S'w'
I3
tp704
a(S'p1_tl'
I26
tp705
a(S'w'
I731
tp706
a(S'w'
I3
tp707
a(S'w'
I730
tp708
a(S'w'
I3
tp709
a(S'w'
I731
tp710
a(S'w'
I3
tp711
a(S'w'
I731
tp712
a(S'p2_tl'
I170
tp713
a(S'w'
I1
tp714
a(S'p2_vo'
I3
tp715
a(S'w'
I2
tp716
a(S'p1_tl'
I30
tp717
a(S'w'
I1
tp718
a(S'p1_vo'
I3
tp719
a(S'w'
I730
tp720
a(S'w'
I3
tp721
a(S'w'
I731
tp722
a(S'w'
I3
tp723
a(S'w'
I730
tp724
a(S'w'
I3
tp725
a(S'w'
I731
tp726
a(S'p2_tl'
I166
tp727
a(S'w'
I3
tp728
a(S'p1_tl'
I26
tp729
a(S'w'
I731
tp730
a(S'w'
I3
tp731
a(S'w'
I731
tp732
a(S'w'
I1
tp733
a(S'p2_vo'
I2
tp734
a(S'w'
I2
tp735
a(S'w'
I1
tp736
a(S'p1_vo'
I2
tp737
a(S'w'
I730
tp738
a(S'w'
I3
tp739
a(S'w'
I730
tp740
a(S'p2_tl'
I170
tp741
a(S'w'
I3
tp742
a(S'p1_tl'
I30
tp743
a(S'w'
I731
tp744
a(S'w'
I3
tp745
a(S'w'
I731
tp746
a(S'w'
I3
tp747
a(S'w'
I731
tp748
a(S'w'
I3
tp749
a(S'w'
I730
tp750
a(S'p2_tl'
I166
tp751
a(S'w'
I1
tp752
a(S'p2_vo'
I1
tp753
a(S'w'
I2
tp754
a(S'p1_tl'
I26
tp755
a(S'w'
I1
tp756
a(S'p1_vo'
I1
tp757
a(S'w'
I730
tp758
a(S'w'
I3
tp759
a(S'w'
I731
tp760
a(S'w'
I3
tp761
a(S'w'
I732
tp762
a(S'p2_tl'
I141
tp763
a(S'p2_ll'
I1
tp764
a(S'w'
I2
tp765
a(S'p2_tl'
I143
tp766
a(S'w'
I1
tp767
a(S'p2_vo'
I4
tp768
a(S'w'
I3
tp769
a(S'p1_tl'
I225
tp770
a(S'w'
I1
tp771
a(S'p1_ll'
I1
tp772
a(S'p1_th'
I0
tp773
a(S'w'
I1
tp774
a(S'p1_tl'
I227
tp775
a(S'w'
I1
tp776
a(S'p1_vo'
I4
tp777
a(S'w'
I724
tp778
a(S'p2_tl'
I139
tp779
a(S'w'
I3
tp780
a(S'p1_tl'
I223
tp781
a(S'w'
I730
tp782
a(S'w'
I3
tp783
a(S'w'
I731
tp784
a(S'w'
I3
tp785
a(S'w'
I731
tp786
a(S'w'
I3
tp787
a(S'w'
I731
tp788
a(S'p2_tl'
I143
tp789
a(S'w'
I1
tp790
a(S'p2_vo'
I3
tp791
a(S'w'
I2
tp792
a(S'p1_tl'
I227
tp793
a(S'w'
I1
tp794
a(S'p1_vo'
I3
tp795
a(S'w'
I730
tp796
a(S'w'
I3
tp797
a(S'w'
I730
tp798
a(S'w'
I3
tp799
a(S'w'
I731
tp800
a(S'w'
I3
tp801
a(S'w'
I731
tp802
a(S'p2_tl'
I139
tp803
a(S'w'
I3
tp804
a(S'p1_tl'
I223
tp805
a(S'w'
I731
tp806
a(S'w'
I3
tp807
a(S'w'
I731
tp808
a(S'w'
I1
tp809
a(S'p2_vo'
I2
tp810
a(S'w'
I2
tp811
a(S'w'
I1
tp812
a(S'p1_vo'
I2
tp813
a(S'w'
I729
tp814
a(S'w'
I3
tp815
a(S'w'
I731
tp816
a(S'p2_tl'
I143
tp817
a(S'w'
I3
tp818
a(S'p1_tl'
I227
tp819
a(S'w'
I731
tp820
a(S'w'
I3
tp821
a(S'w'
I731
tp822
a(S'w'
I3
tp823
a(S'w'
I731
tp824
a(S'w'
I3
tp825
a(S'w'
I730
tp826
a(S'p2_tl'
I139
tp827
a(S'w'
I1
tp828
a(S'p2_vo'
I1
tp829
a(S'w'
I2
tp830
a(S'p1_tl'
I223
tp831
a(S'w'
I1
tp832
a(S'p1_vo'
I1
tp833
a(S'w'
I730
tp834
a(S'w'
I3
tp835
a(S'w'
I731
tp836
a(S'w'
I3
tp837
a(S'w'
I732
tp838
a(S'p2_tl'
I159
tp839
a(S'p2_ll'
I1
tp840
a(S'w'
I2
tp841
a(S'p2_tl'
I161
tp842
a(S'w'
I1
tp843
a(S'p2_vo'
I4
tp844
a(S'w'
I3
tp845
a(S'p1_tl'
I82
tp846
a(S'w'
I1
tp847
a(S'p1_ll'
I1
tp848
a(S'p1_th'
I1
tp849
a(S'w'
I1
tp850
a(S'p1_tl'
I84
tp851
a(S'w'
I1
tp852
a(S'p1_vo'
I4
tp853
a(S'w'
I4
tp854
a(S'tr_ll'
I1
tp855
a(S'w'
I719
tp856
a(S'p2_tl'
I157
tp857
a(S'w'
I3
tp858
a(S'p1_tl'
I80
tp859
a(S'w'
I731
tp860
a(S'w'
I3
tp861
a(S'w'
I731
tp862
a(S'w'
I3
tp863
a(S'w'
I731
tp864
a(S'w'
I3
tp865
a(S'w'
I731
tp866
a(S'p2_tl'
I161
tp867
a(S'w'
I1
tp868
a(S'p2_vo'
I3
tp869
a(S'w'
I2
tp870
a(S'p1_tl'
I84
tp871
a(S'w'
I1
tp872
a(S'p1_vo'
I3
tp873
a(S'w'
I729
tp874
a(S'w'
I3
tp875
a(S'w'
I731
tp876
a(S'w'
I3
tp877
a(S'w'
I731
tp878
a(S'w'
I3
tp879
a(S'w'
I731
tp880
a(S'p2_tl'
I157
tp881
a(S'w'
I3
tp882
a(S'p1_tl'
I80
tp883
a(S'w'
I731
tp884
a(S'w'
I3
tp885
a(S'w'
I730
tp886
a(S'w'
I1
tp887
a(S'p2_vo'
I2
tp888
a(S'w'
I2
tp889
a(S'w'
I1
tp890
a(S'p1_vo'
I2
tp891
a(S'w'
I730
tp892
a(S'w'
I3
tp893
a(S'w'
I731
tp894
a(S'p2_tl'
I161
tp895
a(S'w'
I3
tp896
a(S'p1_tl'
I84
tp897
a(S'w'
I731
tp898
a(S'w'
I3
tp899
a(S'w'
I731
tp900
a(S'w'
I3
tp901
a(S'w'
I730
tp902
a(S'w'
I3
tp903
a(S'w'
I731
tp904
a(S'p2_tl'
I157
tp905
a(S'w'
I1
tp906
a(S'p2_vo'
I1
tp907
a(S'w'
I2
tp908
a(S'p1_tl'
I80
tp909
a(S'w'
I1
tp910
a(S'p1_vo'
I1
tp911
a(S'w'
I730
tp912
a(S'w'
I3
tp913
a(S'w'
I731
tp914
a(S'w'
I3
tp915
a(S'w'
I732
tp916
a(S'p2_tl'
I168
tp917
a(S'p2_ll'
I1
tp918
a(S'w'
I2
tp919
a(S'p2_tl'
I166
tp920
a(S'w'
I1
tp921
a(S'p2_vo'
I4
tp922
a(S'w'
I3
tp923
a(S'p1_tl'
I28
tp924
a(S'w'
I1
tp925
a(S'p1_ll'
I1
tp926
a(S'w'
I2
tp927
a(S'p1_tl'
I30
tp928
a(S'w'
I1
tp929
a(S'p1_vo'
I4
tp930
a(S'w'
I722
tp931
a(S'p2_tl'
I170
tp932
a(S'w'
I3
tp933
a(S'p1_tl'
I26
tp934
a(S'w'
I731
tp935
a(S'w'
I3
tp936
a(S'w'
I731
tp937
a(S'w'
I3
tp938
a(S'w'
I731
tp939
a(S'w'
I3
tp940
a(S'w'
I730
tp941
a(S'p2_tl'
I166
tp942
a(S'w'
I1
tp943
a(S'p2_vo'
I3
tp944
a(S'w'
I2
tp945
a(S'p1_tl'
I30
tp946
a(S'w'
I1
tp947
a(S'p1_vo'
I3
tp948
a(S'w'
I730
tp949
a(S'w'
I3
tp950
a(S'w'
I731
tp951
a(S'w'
I3
tp952
a(S'w'
I731
tp953
a(S'w'
I3
tp954
a(S'w'
I731
tp955
a(S'p2_tl'
I170
tp956
a(S'w'
I3
tp957
a(S'p1_tl'
I26
tp958
a(S'w'
I730
tp959
a(S'w'
I3
tp960
a(S'w'
I731
tp961
a(S'w'
I1
tp962
a(S'p2_vo'
I2
tp963
a(S'w'
I2
tp964
a(S'w'
I1
tp965
a(S'p1_vo'
I2
tp966
a(S'w'
I730
tp967
a(S'w'
I3
tp968
a(S'w'
I731
tp969
a(S'p2_tl'
I166
tp970
a(S'w'
I3
tp971
a(S'p1_tl'
I30
tp972
a(S'w'
I731
tp973
a(S'w'
I3
tp974
a(S'w'
I730
tp975
a(S'w'
I3
tp976
a(S'w'
I731
tp977
a(S'w'
I3
tp978
a(S'w'
I731
tp979
a(S'p2_tl'
I170
tp980
a(S'w'
I1
tp981
a(S'p2_vo'
I1
tp982
a(S'w'
I2
tp983
a(S'p1_tl'
I26
tp984
a(S'w'
I1
tp985
a(S'p1_vo'
I1
tp986
a(S'w'
I730
tp987
a(S'w'
I3
tp988
a(S'w'
I731
tp989
a(S'w'
I3
tp990
a(S'w'
I730
tp991
a(S'w'
I4
tp992
a(S'p1_tl'
I225
tp993
a(S'p1_ll'
I1
tp994
a(S'p1_th'
I0
tp995
a(S'w'
I2
tp996
a(S'p1_tl'
I227
tp997
a(S'w'
I1
tp998
a(S'p1_vo'
I4
tp999
a(S'w'
I727
tp1000
a(S'p2_tl'
I166
tp1001
a(S'w'
I3
tp1002
a(S'p1_tl'
I223
tp1003
a(S'w'
I731
tp1004
a(S'w'
I3
tp1005
a(S'w'
I731
tp1006
a(S'w'
I1
tp1007
a(S'p2_vo'
I0
tp1008
a(S'w'
I2
tp1009
a(S'w'
I731
tp1010
a(S'w'
I3
tp1011
a(S'w'
I730
tp1012
a(S'p2_tl'
I170
tp1013
a(S'w'
I2
tp1014
a(S'p1_tl'
I227
tp1015
a(S'w'
I1
tp1016
a(S'p1_vo'
I3
tp1017
a(S'w'
I731
tp1018
a(S'w'
I2
tp1019
a(S'w'
I732
tp1020
a(S'w'
I2
tp1021
a(S'w'
I732
tp1022
a(S'w'
I2
tp1023
a(S'w'
I731
tp1024
a(S'p2_tl'
I166
tp1025
a(S'w'
I3
tp1026
a(S'p1_tl'
I223
tp1027
a(S'w'
I731
tp1028
a(S'w'
I3
tp1029
a(S'w'
I731
tp1030
a(S'w'
I3
tp1031
a(S'w'
I1
tp1032
a(S'p1_vo'
I2
tp1033
a(S'w'
I730
tp1034
a(S'w'
I3
tp1035
a(S'w'
I731
tp1036
a(S'p2_tl'
I170
tp1037
a(S'w'
I2
tp1038
a(S'p1_tl'
I227
tp1039
a(S'w'
I731
tp1040
a(S'w'
I2
tp1041
a(S'w'
I732
tp1042
a(S'w'
I2
tp1043
a(S'w'
I732
tp1044
a(S'w'
I2
tp1045
a(S'w'
I732
tp1046
a(S'p2_tl'
I166
tp1047
a(S'w'
I3
tp1048
a(S'p1_tl'
I223
tp1049
a(S'w'
I1
tp1050
a(S'p1_vo'
I1
tp1051
a(S'w'
I730
tp1052
a(S'w'
I3
tp1053
a(S'w'
I730
tp1054
a(S'w'
I3
tp1055
a(S'w'
I733
tp1056
a(S'w'
I4
tp1057
a(S'p1_tl'
I82
tp1058
a(S'p1_ll'
I1
tp1059
a(S'p1_th'
I1
tp1060
a(S'w'
I2
tp1061
a(S'p1_tl'
I84
tp1062
a(S'w'
I1
tp1063
a(S'p1_vo'
I4
tp1064
a(S'w'
I4
tp1065
a(S'tr_ll'
I1
tp1066
a(S'w'
I721
tp1067
a(S'p2_tl'
I170
tp1068
a(S'w'
I2
tp1069
a(S'p1_tl'
I80
tp1070
a(S'w'
I732
tp1071
a(S'w'
I3
tp1072
a(S'w'
I731
tp1073
a(S'w'
I3
tp1074
a(S'w'
I730
tp1075
a(S'w'
I2
tp1076
a(S'w'
I732
tp1077
a(S'p2_tl'
I166
tp1078
a(S'w'
I2
tp1079
a(S'p1_tl'
I84
tp1080
a(S'w'
I2
tp1081
a(S'p1_vo'
I3
tp1082
a(S'w'
I730
tp1083
a(S'w'
I2
tp1084
a(S'w'
I732
tp1085
a(S'w'
I2
tp1086
a(S'w'
I732
tp1087
a(S'w'
I2
tp1088
a(S'w'
I731
tp1089
a(S'p2_tl'
I170
tp1090
a(S'w'
I2
tp1091
a(S'p1_tl'
I80
tp1092
a(S'w'
I732
tp1093
a(S'w'
I2
tp1094
a(S'w'
I732
tp1095
a(S'w'
I2
tp1096
a(S'w'
I1
tp1097
a(S'p1_vo'
I2
tp1098
a(S'w'
I731
tp1099
a(S'w'
I2
tp1100
a(S'w'
I731
tp1101
a(S'p2_tl'
I166
tp1102
a(S'w'
I2
tp1103
a(S'p1_tl'
I84
tp1104
a(S'w'
I732
tp1105
a(S'w'
I2
tp1106
a(S'w'
I732
tp1107
a(S'w'
I2
tp1108
a(S'w'
I732
tp1109
a(S'w'
I2
tp1110
a(S'w'
I732
tp1111
a(S'p2_tl'
I170
tp1112
a(S'w'
I2
tp1113
a(S'p1_tl'
I80
tp1114
a(S'w'
I1
tp1115
a(S'p1_vo'
I1
tp1116
a(S'w'
I730
tp1117
a(S'w'
I3
tp1118
a(S'w'
I731
tp1119
a(S'w'
I2
tp1120
a(S'w'
I732
tp1121
a(S'w'
I3
tp1122
a(S'p1_tl'
I28
tp1123
a(S'w'
I1
tp1124
a(S'p1_ll'
I1
tp1125
a(S'w'
I2
tp1126
a(S'p1_tl'
I30
tp1127
a(S'w'
I1
tp1128
a(S'p1_vo'
I4
tp1129
a(S'w'
I727
tp1130
a(S'p2_tl'
I166
tp1131
a(S'w'
I3
tp1132
a(S'p1_tl'
I26
tp1133
a(S'w'
I731
tp1134
a(S'w'
I3
tp1135
a(S'w'
I730
tp1136
a(S'w'
I3
tp1137
a(S'w'
I731
tp1138
a(S'w'
I3
tp1139
a(S'w'
I731
tp1140
a(S'p2_tl'
I170
tp1141
a(S'w'
I2
tp1142
a(S'p1_tl'
I30
tp1143
a(S'w'
I1
tp1144
a(S'p1_vo'
I3
tp1145
a(S'w'
I731
tp1146
a(S'w'
I2
tp1147
a(S'w'
I732
tp1148
a(S'w'
I2
tp1149
a(S'w'
I731
tp1150
a(S'w'
I2
tp1151
a(S'w'
I732
tp1152
a(S'p2_tl'
I166
tp1153
a(S'w'
I3
tp1154
a(S'p1_tl'
I26
tp1155
a(S'w'
I731
tp1156
a(S'w'
I3
tp1157
a(S'w'
I731
tp1158
a(S'w'
I3
tp1159
a(S'w'
I1
tp1160
a(S'p1_vo'
I2
tp1161
a(S'w'
I730
tp1162
a(S'w'
I3
tp1163
a(S'w'
I730
tp1164
a(S'p2_tl'
I170
tp1165
a(S'w'
I2
tp1166
a(S'p1_tl'
I30
tp1167
a(S'w'
I732
tp1168
a(S'w'
I2
tp1169
a(S'w'
I732
tp1170
a(S'w'
I2
tp1171
a(S'w'
I732
tp1172
a(S'w'
I2
tp1173
a(S'w'
I731
tp1174
a(S'p2_tl'
I166
tp1175
a(S'w'
I3
tp1176
a(S'p1_tl'
I26
tp1177
a(S'w'
I1
tp1178
a(S'p1_vo'
I1
tp1179
a(S'w'
I730
tp1180
a(S'w'
I3
tp1181
a(S'w'
I731
tp1182
a(S'w'
I3
tp1183
a(S'w'
I718
tp1184
a.