(lp1
(S'clock'
p2
I1789773
tp3
a(S'fc_mo'
I0
tp4
a(S'ch_no'
I1
tp5
a(S'ch_tr'
I1
tp6
a(S'ch_p2'
I1
tp7
a(S'ch_p1'
I1
tp8
a(S'w'
I13
tp9
a(S'tr_lr'
I66
tp10
a(S'tr_tl'
I253
tp11
a(S'w'
I1
tp12
a(S'tr_ll'
I24
tp13
a(S'tr_th'
I1
tp14
a(S'w'
I3
tp15
a(S'w'
I1
tp16
a(S'no_ll'
I0
tp17
a(S'w'
I3
tp18
a(S'p1_du'
I1
tp19
a(S'p1_vo'
I3
tp20
a(S'w'
I1
tp21
a(S'p1_tl'
I127
tp22
a(S'p1_ll'
I24
tp23
a(S'w'
I7324
tp24
a(S'p1_tl'
I135
tp25
a(S'p1_ll'
I24
tp26
a(S'w'
I7338
tp27
a(S'p1_tl'
I127
tp28
a(S'p1_ll'
I24
tp29
a(S'w'
I7338
tp30
a(S'p1_tl'
I135
tp31
a(S'p1_ll'
I24
tp32
a(S'w'
I7335
tp33
a(S'tr_ll'
I24
tp34
a(S'w'
I4
tp35
a(S'no_np'
I3
tp36
a(S'no_ll'
I0
tp37
a(S'w'
I4
tp38
a(S'p1_tl'
I170
tp39
a(S'p1_ll'
I24
tp40
a(S'w'
I7333
tp41
a(S'p1_tl'
I180
tp42
a(S'p1_ll'
I24
tp43
a(S'w'
I7338
tp44
a(S'p1_tl'
I170
tp45
a(S'p1_ll'
I24
tp46
a(S'w'
I7338
tp47
a(S'p1_tl'
I180
tp48
a(S'p1_ll'
I24
tp49
a(S'w'
I7335
tp50
a(S'tr_tl'
I27
tp51
a(S'tr_ll'
I24
tp52
a(S'tr_th'
I2
tp53
a(S'w'
I4
tp54
a(S'no_np'
I0
tp55
a(S'no_ll'
I0
tp56
a(S'w'
I4
tp57
a(S'p1_tl'
I214
tp58
a(S'p1_ll'
I24
tp59
a(S'w'
I7333
tp60
a(S'p1_tl'
I180
tp61
a(S'p1_ll'
I24
tp62
a(S'w'
I7338
tp63
a(S'p1_tl'
I214
tp64
a(S'p1_ll'
I24
tp65
a(S'w'
I7338
tp66
a(S'p1_tl'
I227
tp67
a(S'p1_ll'
I24
tp68
a(S'w'
I7335
tp69
a(S'tr_tl'
I253
tp70
a(S'tr_ll'
I24
tp71
a(S'tr_th'
I1
tp72
a(S'w'
I4
tp73
a(S'no_np'
I3
tp74
a(S'no_ll'
I0
tp75
a(S'w'
I4
tp76
a(S'p1_tl'
I254
tp77
a(S'p1_ll'
I24
tp78
a(S'w'
I29342
tp79
a(S'tr_tl'
I0
tp80
a(S'w'
I1
tp81
a(S'tr_ll'
I24
tp82
a(S'tr_th'
I0
tp83
a(S'w'
I3
tp84
a(S'no_np'
I0
tp85
a(S'no_ll'
I0
tp86
a(S'w'
I4
tp87
a(S'p1_tl'
I0
tp88
a(S'w'
I1
tp89
a(S'p1_ll'
I24
tp90
a(S'w'
I31060
tp91
a.