(lp1
(S'clock'
p2
I1789773
tp3
a(S'fc_mo'
I0
tp4
a(S'ch_no'
I1
tp5
a(S'ch_tr'
I1
tp6
a(S'ch_p2'
I1
tp7
a(S'ch_p1'
I1
tp8
a(S'w'
I13
tp9
a(S'tr_lh'
I1
tp10
a(S'tr_lr'
I2
tp11
a(S'tr_tl'
I59
tp12
a(S'w'
I1
tp13
a(S'tr_ll'
I24
tp14
a(S'tr_th'
I2
tp15
a(S'w'
I3
tp16
a(S'w'
I1
tp17
a(S'no_ll'
I0
tp18
a(S'w'
I3
tp19
a(S'p1_du'
I1
tp20
a(S'p1_vo'
I3
tp21
a(S'w'
I1
tp22
a(S'p1_ll'
I24
tp23
a(S'w'
I14659
tp24
a(S'tr_tl'
I224
tp25
a(S'tr_ll'
I24
tp26
a(S'tr_th'
I1
tp27
a(S'w'
I4
tp28
a(S'no_ll'
I0
tp29
a(S'w'
I14672
tp30
a(S'tr_tl'
I125
tp31
a(S'tr_ll'
I24
tp32
a(S'w'
I4
tp33
a(S'no_np'
I3
tp34
a(S'no_ll'
I0
tp35
a(S'w'
I14672
tp36
a(S'tr_tl'
I224
tp37
a(S'tr_ll'
I24
tp38
a(S'w'
I4
tp39
a(S'no_np'
I0
tp40
a(S'no_ll'
I0
tp41
a(S'w'
I14672
tp42
a(S'tr_tl'
I59
tp43
a(S'tr_ll'
I24
tp44
a(S'tr_th'
I2
tp45
a(S'w'
I4
tp46
a(S'no_ll'
I0
tp47
a(S'w'
I14672
tp48
a(S'tr_tl'
I224
tp49
a(S'tr_ll'
I24
tp50
a(S'tr_th'
I1
tp51
a(S'w'
I4
tp52
a(S'no_ll'
I0
tp53
a(S'w'
I4
tp54
a(S'p1_tl'
I191
tp55
a(S'p1_ll'
I24
tp56
a(S'w'
I14668
tp57
a(S'tr_tl'
I125
tp58
a(S'tr_ll'
I24
tp59
a(S'w'
I4
tp60
a(S'no_np'
I3
tp61
a(S'no_ll'
I0
tp62
a(S'w'
I4
tp63
a(S'p1_tl'
I120
tp64
a(S'p1_ll'
I24
tp65
a(S'w'
I14667
tp66
a(S'tr_tl'
I224
tp67
a(S'tr_ll'
I24
tp68
a(S'w'
I4
tp69
a(S'no_np'
I0
tp70
a(S'no_ll'
I0
tp71
a(S'w'
I4
tp72
a(S'p1_tl'
I127
tp73
a(S'p1_ll'
I24
tp74
a(S'w'
I14668
tp75
a(S'tr_tl'
I59
tp76
a(S'tr_ll'
I24
tp77
a(S'tr_th'
I2
tp78
a(S'w'
I4
tp79
a(S'no_ll'
I0
tp80
a(S'w'
I4
tp81
a(S'p1_tl'
I143
tp82
a(S'p1_ll'
I24
tp83
a(S'w'
I14668
tp84
a(S'tr_tl'
I224
tp85
a(S'tr_ll'
I24
tp86
a(S'tr_th'
I1
tp87
a(S'w'
I4
tp88
a(S'no_ll'
I0
tp89
a(S'w'
I14672
tp90
a(S'tr_tl'
I125
tp91
a(S'tr_ll'
I24
tp92
a(S'w'
I4
tp93
a(S'no_np'
I3
tp94
a(S'no_ll'
I0
tp95
a(S'w'
I14672
tp96
a(S'tr_tl'
I224
tp97
a(S'tr_ll'
I24
tp98
a(S'w'
I4
tp99
a(S'no_np'
I0
tp100
a(S'no_ll'
I0
tp101
a(S'w'
I14672
tp102
a(S'tr_tl'
I59
tp103
a(S'tr_ll'
I24
tp104
a(S'tr_th'
I2
tp105
a(S'w'
I4
tp106
a(S'no_ll'
I0
tp107
a(S'w'
I14671
tp108
a(S'tr_tl'
I224
tp109
a(S'tr_ll'
I24
tp110
a(S'tr_th'
I1
tp111
a(S'w'
I4
tp112
a(S'no_ll'
I0
tp113
a(S'w'
I4
tp114
a(S'p1_tl'
I191
tp115
a(S'p1_ll'
I24
tp116
a(S'w'
I14668
tp117
a(S'tr_tl'
I125
tp118
a(S'tr_ll'
I24
tp119
a(S'w'
I4
tp120
a(S'no_np'
I3
tp121
a(S'no_ll'
I0
tp122
a(S'w'
I4
tp123
a(S'p1_tl'
I143
tp124
a(S'p1_ll'
I24
tp125
a(S'w'
I14668
tp126
a(S'tr_tl'
I224
tp127
a(S'tr_ll'
I24
tp128
a(S'w'
I4
tp129
a(S'no_np'
I0
tp130
a(S'no_ll'
I0
tp131
a(S'w'
I4
tp132
a(S'p1_tl'
I160
tp133
a(S'p1_ll'
I24
tp134
a(S'w'
I14668
tp135
a(S'tr_tl'
I59
tp136
a(S'tr_ll'
I24
tp137
a(S'tr_th'
I2
tp138
a(S'w'
I4
tp139
a(S'no_ll'
I0
tp140
a(S'w'
I4
tp141
a(S'p1_ll'
I24
tp142
a(S'w'
I14668
tp143
a(S'tr_tl'
I172
tp144
a(S'tr_ll'
I24
tp145
a(S'tr_th'
I1
tp146
a(S'w'
I4
tp147
a(S'no_ll'
I0
tp148
a(S'w'
I14672
tp149
a(S'tr_tl'
I104
tp150
a(S'tr_ll'
I24
tp151
a(S'w'
I4
tp152
a(S'no_np'
I3
tp153
a(S'no_ll'
I0
tp154
a(S'w'
I4
tp155
a(S'p1_tl'
I180
tp156
a(S'p1_ll'
I24
tp157
a(S'w'
I14667
tp158
a(S'tr_tl'
I172
tp159
a(S'tr_ll'
I24
tp160
a(S'w'
I4
tp161
a(S'no_np'
I0
tp162
a(S'no_ll'
I0
tp163
a(S'w'
I14672
tp164
a(S'tr_tl'
I59
tp165
a(S'tr_ll'
I24
tp166
a(S'tr_th'
I2
tp167
a(S'w'
I4
tp168
a(S'no_ll'
I0
tp169
a(S'w'
I14672
tp170
a(S'tr_tl'
I172
tp171
a(S'tr_ll'
I24
tp172
a(S'tr_th'
I1
tp173
a(S'w'
I4
tp174
a(S'no_ll'
I0
tp175
a(S'w'
I4
tp176
a(S'p1_tl'
I214
tp177
a(S'p1_ll'
I24
tp178
a(S'w'
I14668
tp179
a(S'tr_tl'
I104
tp180
a(S'tr_ll'
I24
tp181
a(S'w'
I4
tp182
a(S'no_np'
I3
tp183
a(S'no_ll'
I0
tp184
a(S'w'
I4
tp185
a(S'p1_tl'
I191
tp186
a(S'p1_ll'
I24
tp187
a(S'w'
I14668
tp188
a(S'tr_tl'
I172
tp189
a(S'tr_ll'
I24
tp190
a(S'w'
I4
tp191
a(S'no_np'
I0
tp192
a(S'no_ll'
I0
tp193
a(S'w'
I4
tp194
a(S'p1_tl'
I180
tp195
a(S'p1_ll'
I24
tp196
a(S'w'
I14667
tp197
a(S'tr_tl'
I129
tp198
a(S'tr_ll'
I24
tp199
a(S'tr_th'
I2
tp200
a(S'w'
I4
tp201
a(S'no_ll'
I0
tp202
a(S'w'
I4
tp203
a(S'p1_tl'
I160
tp204
a(S'p1_ll'
I24
tp205
a(S'w'
I14668
tp206
a(S'tr_tl'
I253
tp207
a(S'tr_ll'
I24
tp208
a(S'tr_th'
I1
tp209
a(S'w'
I4
tp210
a(S'no_ll'
I0
tp211
a(S'w'
I14672
tp212
a(S'tr_tl'
I104
tp213
a(S'tr_ll'
I24
tp214
a(S'w'
I4
tp215
a(S'no_np'
I3
tp216
a(S'no_ll'
I0
tp217
a(S'w'
I14672
tp218
a(S'tr_tl'
I253
tp219
a(S'tr_ll'
I24
tp220
a(S'w'
I4
tp221
a(S'no_np'
I0
tp222
a(S'no_ll'
I0
tp223
a(S'w'
I14672
tp224
a(S'tr_tl'
I129
tp225
a(S'tr_ll'
I24
tp226
a(S'tr_th'
I2
tp227
a(S'w'
I4
tp228
a(S'no_ll'
I0
tp229
a(S'w'
I14672
tp230
a(S'tr_tl'
I253
tp231
a(S'tr_ll'
I24
tp232
a(S'tr_th'
I1
tp233
a(S'w'
I4
tp234
a(S'no_ll'
I0
tp235
a(S'w'
I4
tp236
a(S'p1_tl'
I143
tp237
a(S'p1_ll'
I24
tp238
a(S'w'
I14667
tp239
a(S'tr_tl'
I104
tp240
a(S'tr_ll'
I24
tp241
a(S'w'
I4
tp242
a(S'no_np'
I3
tp243
a(S'no_ll'
I0
tp244
a(S'w'
I4
tp245
a(S'p1_tl'
I120
tp246
a(S'p1_ll'
I24
tp247
a(S'w'
I14668
tp248
a(S'tr_tl'
I253
tp249
a(S'tr_ll'
I24
tp250
a(S'w'
I4
tp251
a(S'no_np'
I0
tp252
a(S'no_ll'
I0
tp253
a(S'w'
I4
tp254
a(S'p1_tl'
I127
tp255
a(S'p1_ll'
I24
tp256
a(S'w'
I14668
tp257
a(S'tr_tl'
I129
tp258
a(S'tr_ll'
I24
tp259
a(S'tr_th'
I2
tp260
a(S'w'
I4
tp261
a(S'no_ll'
I0
tp262
a(S'w'
I4
tp263
a(S'p1_tl'
I180
tp264
a(S'p1_ll'
I24
tp265
a(S'w'
I14668
tp266
a(S'tr_tl'
I224
tp267
a(S'tr_ll'
I24
tp268
a(S'tr_th'
I1
tp269
a(S'w'
I4
tp270
a(S'no_ll'
I0
tp271
a(S'w'
I14672
tp272
a(S'tr_tl'
I125
tp273
a(S'tr_ll'
I24
tp274
a(S'w'
I4
tp275
a(S'no_np'
I3
tp276
a(S'no_ll'
I0
tp277
a(S'w'
I4
tp278
a(S'p1_tl'
I191
tp279
a(S'p1_ll'
I24
tp280
a(S'w'
I14668
tp281
a(S'tr_tl'
I224
tp282
a(S'tr_ll'
I24
tp283
a(S'w'
I4
tp284
a(S'no_np'
I0
tp285
a(S'no_ll'
I0
tp286
a(S'w'
I14671
tp287
a(S'tr_tl'
I129
tp288
a(S'tr_ll'
I24
tp289
a(S'tr_th'
I2
tp290
a(S'w'
I4
tp291
a(S'no_ll'
I0
tp292
a(S'w'
I14672
tp293
a(S'tr_tl'
I224
tp294
a(S'tr_ll'
I24
tp295
a(S'tr_th'
I1
tp296
a(S'w'
I4
tp297
a(S'no_ll'
I0
tp298
a(S'w'
I4
tp299
a(S'p1_ll'
I24
tp300
a(S'w'
I14668
tp301
a(S'tr_tl'
I125
tp302
a(S'tr_ll'
I24
tp303
a(S'w'
I4
tp304
a(S'no_np'
I3
tp305
a(S'no_ll'
I0
tp306
a(S'w'
I4
tp307
a(S'p1_tl'
I180
tp308
a(S'p1_ll'
I24
tp309
a(S'w'
I14668
tp310
a(S'tr_tl'
I224
tp311
a(S'tr_ll'
I24
tp312
a(S'w'
I4
tp313
a(S'no_np'
I0
tp314
a(S'no_ll'
I0
tp315
a(S'w'
I4
tp316
a(S'p1_tl'
I160
tp317
a(S'p1_ll'
I24
tp318
a(S'w'
I14668
tp319
a(S'tr_tl'
I59
tp320
a(S'tr_ll'
I24
tp321
a(S'tr_th'
I2
tp322
a(S'w'
I4
tp323
a(S'no_ll'
I0
tp324
a(S'w'
I4
tp325
a(S'p1_tl'
I143
tp326
a(S'p1_ll'
I24
tp327
a(S'w'
I14668
tp328
a(S'tr_tl'
I224
tp329
a(S'tr_ll'
I24
tp330
a(S'tr_th'
I1
tp331
a(S'w'
I4
tp332
a(S'no_ll'
I0
tp333
a(S'w'
I14671
tp334
a(S'tr_tl'
I104
tp335
a(S'tr_ll'
I24
tp336
a(S'w'
I4
tp337
a(S'no_np'
I3
tp338
a(S'no_ll'
I0
tp339
a(S'w'
I14672
tp340
a(S'tr_tl'
I224
tp341
a(S'tr_ll'
I24
tp342
a(S'w'
I4
tp343
a(S'no_np'
I0
tp344
a(S'no_ll'
I0
tp345
a(S'w'
I14672
tp346
a(S'tr_tl'
I59
tp347
a(S'tr_ll'
I24
tp348
a(S'tr_th'
I2
tp349
a(S'w'
I4
tp350
a(S'no_ll'
I0
tp351
a(S'w'
I14672
tp352
a(S'tr_tl'
I224
tp353
a(S'tr_ll'
I24
tp354
a(S'tr_th'
I1
tp355
a(S'w'
I4
tp356
a(S'no_ll'
I0
tp357
a(S'w'
I4
tp358
a(S'p1_ll'
I24
tp359
a(S'w'
I14668
tp360
a(S'tr_tl'
I104
tp361
a(S'tr_ll'
I24
tp362
a(S'w'
I4
tp363
a(S'no_np'
I3
tp364
a(S'no_ll'
I0
tp365
a(S'w'
I4
tp366
a(S'p1_tl'
I127
tp367
a(S'p1_ll'
I24
tp368
a(S'w'
I14668
tp369
a(S'tr_tl'
I224
tp370
a(S'tr_ll'
I24
tp371
a(S'w'
I4
tp372
a(S'no_np'
I0
tp373
a(S'no_ll'
I0
tp374
a(S'w'
I4
tp375
a(S'p1_tl'
I120
tp376
a(S'p1_ll'
I24
tp377
a(S'w'
I14667
tp378
a(S'tr_tl'
I59
tp379
a(S'tr_ll'
I24
tp380
a(S'tr_th'
I2
tp381
a(S'w'
I4
tp382
a(S'no_ll'
I0
tp383
a(S'w'
I4
tp384
a(S'p1_tl'
I107
tp385
a(S'p1_ll'
I24
tp386
a(S'w'
I14668
tp387
a(S'tr_tl'
I172
tp388
a(S'tr_ll'
I24
tp389
a(S'tr_th'
I1
tp390
a(S'w'
I4
tp391
a(S'no_ll'
I0
tp392
a(S'w'
I14672
tp393
a(S'tr_tl'
I125
tp394
a(S'tr_ll'
I24
tp395
a(S'w'
I4
tp396
a(S'no_np'
I3
tp397
a(S'no_ll'
I0
tp398
a(S'w'
I14672
tp399
a(S'tr_tl'
I172
tp400
a(S'tr_ll'
I24
tp401
a(S'w'
I4
tp402
a(S'no_np'
I0
tp403
a(S'no_ll'
I0
tp404
a(S'w'
I14672
tp405
a(S'tr_tl'
I59
tp406
a(S'tr_ll'
I24
tp407
a(S'tr_th'
I2
tp408
a(S'w'
I4
tp409
a(S'no_ll'
I0
tp410
a(S'w'
I14672
tp411
a(S'tr_tl'
I172
tp412
a(S'tr_ll'
I24
tp413
a(S'tr_th'
I1
tp414
a(S'w'
I4
tp415
a(S'no_ll'
I0
tp416
a(S'w'
I14671
tp417
a(S'tr_tl'
I125
tp418
a(S'tr_ll'
I24
tp419
a(S'w'
I4
tp420
a(S'no_np'
I3
tp421
a(S'no_ll'
I0
tp422
a(S'w'
I14672
tp423
a(S'tr_tl'
I172
tp424
a(S'tr_ll'
I24
tp425
a(S'w'
I4
tp426
a(S'no_np'
I0
tp427
a(S'no_ll'
I0
tp428
a(S'w'
I14672
tp429
a(S'tr_tl'
I129
tp430
a(S'tr_ll'
I24
tp431
a(S'tr_th'
I2
tp432
a(S'w'
I4
tp433
a(S'no_ll'
I0
tp434
a(S'w'
I4
tp435
a(S'p1_tl'
I95
tp436
a(S'p1_ll'
I24
tp437
a(S'w'
I14668
tp438
a(S'tr_tl'
I172
tp439
a(S'tr_ll'
I24
tp440
a(S'tr_th'
I1
tp441
a(S'w'
I4
tp442
a(S'no_ll'
I0
tp443
a(S'w'
I14672
tp444
a(S'tr_tl'
I125
tp445
a(S'tr_ll'
I24
tp446
a(S'w'
I4
tp447
a(S'no_np'
I3
tp448
a(S'no_ll'
I0
tp449
a(S'w'
I14672
tp450
a(S'tr_tl'
I172
tp451
a(S'tr_ll'
I24
tp452
a(S'w'
I4
tp453
a(S'no_np'
I0
tp454
a(S'no_ll'
I0
tp455
a(S'w'
I14671
tp456
a(S'tr_tl'
I129
tp457
a(S'tr_ll'
I24
tp458
a(S'tr_th'
I2
tp459
a(S'w'
I4
tp460
a(S'no_ll'
I0
tp461
a(S'w'
I14672
tp462
a(S'tr_tl'
I172
tp463
a(S'tr_ll'
I24
tp464
a(S'tr_th'
I1
tp465
a(S'w'
I4
tp466
a(S'no_ll'
I0
tp467
a(S'w'
I14672
tp468
a(S'tr_tl'
I125
tp469
a(S'tr_ll'
I24
tp470
a(S'w'
I4
tp471
a(S'no_np'
I3
tp472
a(S'no_ll'
I0
tp473
a(S'w'
I14672
tp474
a(S'tr_tl'
I172
tp475
a(S'tr_ll'
I24
tp476
a(S'w'
I4
tp477
a(S'no_np'
I0
tp478
a(S'no_ll'
I0
tp479
a(S'w'
I14672
tp480
a(S'tr_tl'
I59
tp481
a(S'tr_ll'
I24
tp482
a(S'tr_th'
I2
tp483
a(S'w'
I4
tp484
a(S'no_ll'
I0
tp485
a(S'w'
I4
tp486
a(S'p1_tl'
I113
tp487
a(S'p1_ll'
I24
tp488
a(S'w'
I14668
tp489
a(S'tr_tl'
I197
tp490
a(S'tr_ll'
I24
tp491
a(S'tr_th'
I1
tp492
a(S'w'
I4
tp493
a(S'no_ll'
I0
tp494
a(S'w'
I14671
tp495
a(S'tr_tl'
I125
tp496
a(S'tr_ll'
I24
tp497
a(S'w'
I4
tp498
a(S'no_np'
I3
tp499
a(S'no_ll'
I0
tp500
a(S'w'
I14672
tp501
a(S'tr_tl'
I197
tp502
a(S'tr_ll'
I24
tp503
a(S'w'
I4
tp504
a(S'no_np'
I0
tp505
a(S'no_ll'
I0
tp506
a(S'w'
I4
tp507
a(S'p1_tl'
I191
tp508
a(S'p1_ll'
I24
tp509
a(S'w'
I14668
tp510
a(S'tr_tl'
I59
tp511
a(S'tr_ll'
I24
tp512
a(S'tr_th'
I2
tp513
a(S'w'
I4
tp514
a(S'no_ll'
I0
tp515
a(S'w'
I4
tp516
a(S'p1_tl'
I113
tp517
a(S'p1_ll'
I24
tp518
a(S'w'
I14668
tp519
a(S'tr_tl'
I197
tp520
a(S'tr_ll'
I24
tp521
a(S'tr_th'
I1
tp522
a(S'w'
I4
tp523
a(S'no_ll'
I0
tp524
a(S'w'
I4
tp525
a(S'p1_tl'
I127
tp526
a(S'p1_ll'
I24
tp527
a(S'w'
I14668
tp528
a(S'tr_tl'
I125
tp529
a(S'tr_ll'
I24
tp530
a(S'w'
I4
tp531
a(S'no_np'
I3
tp532
a(S'no_ll'
I0
tp533
a(S'w'
I4
tp534
a(S'p1_tl'
I143
tp535
a(S'p1_ll'
I24
tp536
a(S'w'
I14668
tp537
a(S'tr_tl'
I197
tp538
a(S'tr_ll'
I24
tp539
a(S'w'
I4
tp540
a(S'no_np'
I0
tp541
a(S'no_ll'
I0
tp542
a(S'w'
I14671
tp543
a(S'tr_tl'
I253
tp544
a(S'tr_ll'
I24
tp545
a(S'w'
I4
tp546
a(S'no_ll'
I0
tp547
a(S'w'
I4
tp548
a(S'p1_tl'
I151
tp549
a(S'p1_ll'
I24
tp550
a(S'w'
I14668
tp551
a(S'tr_tl'
I172
tp552
a(S'tr_ll'
I24
tp553
a(S'w'
I4
tp554
a(S'no_ll'
I0
tp555
a(S'w'
I4
tp556
a(S'p1_tl'
I143
tp557
a(S'p1_ll'
I24
tp558
a(S'w'
I14668
tp559
a(S'tr_tl'
I125
tp560
a(S'tr_ll'
I24
tp561
a(S'w'
I4
tp562
a(S'no_np'
I3
tp563
a(S'no_ll'
I0
tp564
a(S'w'
I4
tp565
a(S'p1_tl'
I127
tp566
a(S'p1_ll'
I24
tp567
a(S'w'
I14668
tp568
a(S'tr_tl'
I172
tp569
a(S'tr_ll'
I24
tp570
a(S'w'
I4
tp571
a(S'no_np'
I0
tp572
a(S'no_ll'
I0
tp573
a(S'w'
I14672
tp574
a(S'tr_tl'
I253
tp575
a(S'tr_ll'
I24
tp576
a(S'w'
I4
tp577
a(S'no_ll'
I0
tp578
a(S'w'
I4
tp579
a(S'p1_tl'
I191
tp580
a(S'p1_ll'
I24
tp581
a(S'w'
I14668
tp582
a(S'tr_tl'
I172
tp583
a(S'tr_ll'
I24
tp584
a(S'w'
I4
tp585
a(S'no_ll'
I0
tp586
a(S'w'
I14671
tp587
a(S'tr_tl'
I125
tp588
a(S'tr_ll'
I24
tp589
a(S'w'
I4
tp590
a(S'no_np'
I3
tp591
a(S'no_ll'
I0
tp592
a(S'w'
I14672
tp593
a(S'tr_tl'
I172
tp594
a(S'tr_ll'
I24
tp595
a(S'w'
I4
tp596
a(S'no_np'
I0
tp597
a(S'no_ll'
I0
tp598
a(S'w'
I14672
tp599
a(S'tr_tl'
I59
tp600
a(S'tr_ll'
I24
tp601
a(S'tr_th'
I2
tp602
a(S'w'
I4
tp603
a(S'no_ll'
I0
tp604
a(S'w'
I4
tp605
a(S'p1_tl'
I170
tp606
a(S'p1_ll'
I24
tp607
a(S'w'
I14668
tp608
a(S'tr_tl'
I197
tp609
a(S'tr_ll'
I24
tp610
a(S'tr_th'
I1
tp611
a(S'w'
I4
tp612
a(S'no_ll'
I0
tp613
a(S'w'
I14672
tp614
a(S'tr_tl'
I84
tp615
a(S'tr_ll'
I24
tp616
a(S'w'
I4
tp617
a(S'no_np'
I3
tp618
a(S'no_ll'
I0
tp619
a(S'w'
I14672
tp620
a(S'tr_tl'
I197
tp621
a(S'tr_ll'
I24
tp622
a(S'w'
I4
tp623
a(S'no_np'
I0
tp624
a(S'no_ll'
I0
tp625
a(S'w'
I4
tp626
a(S'p1_tl'
I151
tp627
a(S'p1_ll'
I24
tp628
a(S'w'
I14667
tp629
a(S'tr_tl'
I59
tp630
a(S'tr_ll'
I24
tp631
a(S'tr_th'
I2
tp632
a(S'w'
I4
tp633
a(S'no_ll'
I0
tp634
a(S'w'
I4
tp635
a(S'p1_tl'
I143
tp636
a(S'p1_ll'
I24
tp637
a(S'w'
I14668
tp638
a(S'tr_tl'
I197
tp639
a(S'tr_ll'
I24
tp640
a(S'tr_th'
I1
tp641
a(S'w'
I4
tp642
a(S'no_ll'
I0
tp643
a(S'w'
I4
tp644
a(S'p1_tl'
I170
tp645
a(S'p1_ll'
I24
tp646
a(S'w'
I14668
tp647
a(S'tr_tl'
I84
tp648
a(S'tr_ll'
I24
tp649
a(S'w'
I4
tp650
a(S'no_np'
I3
tp651
a(S'no_ll'
I0
tp652
a(S'w'
I4
tp653
a(S'p1_tl'
I191
tp654
a(S'p1_ll'
I24
tp655
a(S'w'
I14668
tp656
a(S'tr_tl'
I197
tp657
a(S'tr_ll'
I24
tp658
a(S'w'
I4
tp659
a(S'no_np'
I0
tp660
a(S'no_ll'
I0
tp661
a(S'w'
I4
tp662
a(S'p1_tl'
I214
tp663
a(S'p1_ll'
I24
tp664
a(S'w'
I14668
tp665
a(S'tr_tl'
I253
tp666
a(S'tr_ll'
I24
tp667
a(S'w'
I4
tp668
a(S'no_ll'
I0
tp669
a(S'w'
I4
tp670
a(S'p1_tl'
I127
tp671
a(S'p1_ll'
I24
tp672
a(S'w'
I14668
tp673
a(S'tr_tl'
I197
tp674
a(S'tr_ll'
I24
tp675
a(S'w'
I4
tp676
a(S'no_ll'
I0
tp677
a(S'w'
I14671
tp678
a(S'tr_tl'
I84
tp679
a(S'tr_ll'
I24
tp680
a(S'w'
I4
tp681
a(S'no_np'
I3
tp682
a(S'no_ll'
I0
tp683
a(S'w'
I4
tp684
a(S'p1_tl'
I113
tp685
a(S'p1_ll'
I24
tp686
a(S'w'
I14668
tp687
a(S'tr_tl'
I197
tp688
a(S'tr_ll'
I24
tp689
a(S'w'
I4
tp690
a(S'no_np'
I0
tp691
a(S'no_ll'
I0
tp692
a(S'w'
I14672
tp693
a(S'tr_tl'
I253
tp694
a(S'tr_ll'
I24
tp695
a(S'w'
I4
tp696
a(S'no_ll'
I0
tp697
a(S'w'
I14672
tp698
a(S'tr_tl'
I197
tp699
a(S'tr_ll'
I24
tp700
a(S'w'
I4
tp701
a(S'no_ll'
I0
tp702
a(S'w'
I14672
tp703
a(S'tr_tl'
I104
tp704
a(S'tr_ll'
I24
tp705
a(S'w'
I4
tp706
a(S'no_np'
I3
tp707
a(S'no_ll'
I0
tp708
a(S'w'
I14672
tp709
a(S'tr_tl'
I197
tp710
a(S'tr_ll'
I24
tp711
a(S'w'
I4
tp712
a(S'no_np'
I0
tp713
a(S'no_ll'
I0
tp714
a(S'w'
I14671
tp715
a(S'tr_tl'
I59
tp716
a(S'tr_ll'
I24
tp717
a(S'tr_th'
I2
tp718
a(S'w'
I4
tp719
a(S'no_ll'
I0
tp720
a(S'w'
I4
tp721
a(S'p1_tl'
I107
tp722
a(S'p1_ll'
I24
tp723
a(S'w'
I14668
tp724
a(S'tr_tl'
I172
tp725
a(S'tr_ll'
I24
tp726
a(S'tr_th'
I1
tp727
a(S'w'
I4
tp728
a(S'no_ll'
I0
tp729
a(S'w'
I14672
tp730
a(S'tr_tl'
I84
tp731
a(S'tr_ll'
I24
tp732
a(S'w'
I4
tp733
a(S'no_np'
I3
tp734
a(S'no_ll'
I0
tp735
a(S'w'
I14672
tp736
a(S'tr_tl'
I172
tp737
a(S'tr_ll'
I24
tp738
a(S'w'
I4
tp739
a(S'no_np'
I0
tp740
a(S'no_ll'
I0
tp741
a(S'w'
I4
tp742
a(S'p1_ll'
I24
tp743
a(S'w'
I14668
tp744
a(S'tr_tl'
I59
tp745
a(S'tr_ll'
I24
tp746
a(S'tr_th'
I2
tp747
a(S'w'
I4
tp748
a(S'no_ll'
I0
tp749
a(S'w'
I4
tp750
a(S'p1_tl'
I113
tp751
a(S'p1_ll'
I24
tp752
a(S'w'
I14668
tp753
a(S'tr_tl'
I172
tp754
a(S'tr_ll'
I24
tp755
a(S'tr_th'
I1
tp756
a(S'w'
I4
tp757
a(S'no_ll'
I0
tp758
a(S'w'
I4
tp759
a(S'p1_tl'
I127
tp760
a(S'p1_ll'
I24
tp761
a(S'w'
I14667
tp762
a(S'tr_tl'
I84
tp763
a(S'tr_ll'
I24
tp764
a(S'w'
I4
tp765
a(S'no_np'
I3
tp766
a(S'no_ll'
I0
tp767
a(S'w'
I4
tp768
a(S'p1_tl'
I143
tp769
a(S'p1_ll'
I24
tp770
a(S'w'
I14668
tp771
a(S'tr_tl'
I172
tp772
a(S'tr_ll'
I24
tp773
a(S'w'
I4
tp774
a(S'no_np'
I0
tp775
a(S'no_ll'
I0
tp776
a(S'w'
I14672
tp777
a(S'tr_tl'
I93
tp778
a(S'tr_ll'
I24
tp779
a(S'tr_th'
I2
tp780
a(S'w'
I4
tp781
a(S'no_ll'
I0
tp782
a(S'w'
I4
tp783
a(S'p1_tl'
I127
tp784
a(S'p1_ll'
I24
tp785
a(S'w'
I14668
tp786
a(S'tr_tl'
I172
tp787
a(S'tr_ll'
I24
tp788
a(S'tr_th'
I1
tp789
a(S'w'
I4
tp790
a(S'no_ll'
I0
tp791
a(S'w'
I14672
tp792
a(S'tr_tl'
I125
tp793
a(S'tr_ll'
I24
tp794
a(S'w'
I4
tp795
a(S'no_np'
I3
tp796
a(S'no_ll'
I0
tp797
a(S'w'
I14672
tp798
a(S'tr_tl'
I172
tp799
a(S'tr_ll'
I24
tp800
a(S'w'
I4
tp801
a(S'no_np'
I0
tp802
a(S'no_ll'
I0
tp803
a(S'w'
I4
tp804
a(S'p1_ll'
I24
tp805
a(S'w'
I14667
tp806
a(S'tr_tl'
I93
tp807
a(S'tr_ll'
I24
tp808
a(S'tr_th'
I2
tp809
a(S'w'
I4
tp810
a(S'no_ll'
I0
tp811
a(S'w'
I4
tp812
a(S'p1_ll'
I24
tp813
a(S'w'
I14668
tp814
a(S'tr_tl'
I172
tp815
a(S'tr_ll'
I24
tp816
a(S'tr_th'
I1
tp817
a(S'w'
I4
tp818
a(S'no_ll'
I0
tp819
a(S'w'
I4
tp820
a(S'p1_tl'
I191
tp821
a(S'p1_ll'
I24
tp822
a(S'w'
I14668
tp823
a(S'tr_tl'
I125
tp824
a(S'tr_ll'
I24
tp825
a(S'w'
I4
tp826
a(S'no_np'
I3
tp827
a(S'no_ll'
I0
tp828
a(S'w'
I4
tp829
a(S'p1_tl'
I151
tp830
a(S'p1_ll'
I24
tp831
a(S'w'
I14668
tp832
a(S'tr_tl'
I172
tp833
a(S'tr_ll'
I24
tp834
a(S'w'
I4
tp835
a(S'no_np'
I0
tp836
a(S'no_ll'
I0
tp837
a(S'w'
I4
tp838
a(S'p1_tl'
I127
tp839
a(S'p1_ll'
I24
tp840
a(S'w'
I14668
tp841
a(S'tr_tl'
I59
tp842
a(S'tr_ll'
I24
tp843
a(S'tr_th'
I2
tp844
a(S'w'
I4
tp845
a(S'no_ll'
I0
tp846
a(S'w'
I4
tp847
a(S'p1_tl'
I143
tp848
a(S'p1_ll'
I24
tp849
a(S'w'
I14668
tp850
a(S'tr_tl'
I197
tp851
a(S'tr_ll'
I24
tp852
a(S'tr_th'
I1
tp853
a(S'w'
I4
tp854
a(S'no_ll'
I0
tp855
a(S'w'
I14671
tp856
a(S'tr_tl'
I125
tp857
a(S'tr_ll'
I24
tp858
a(S'w'
I4
tp859
a(S'no_np'
I3
tp860
a(S'no_ll'
I0
tp861
a(S'w'
I14672
tp862
a(S'tr_tl'
I197
tp863
a(S'tr_ll'
I24
tp864
a(S'w'
I4
tp865
a(S'no_np'
I0
tp866
a(S'no_ll'
I0
tp867
a(S'w'
I14672
tp868
a(S'tr_tl'
I59
tp869
a(S'tr_ll'
I24
tp870
a(S'tr_th'
I2
tp871
a(S'w'
I4
tp872
a(S'no_ll'
I0
tp873
a(S'w'
I14672
tp874
a(S'tr_tl'
I197
tp875
a(S'tr_ll'
I24
tp876
a(S'tr_th'
I1
tp877
a(S'w'
I4
tp878
a(S'no_ll'
I0
tp879
a(S'w'
I14672
tp880
a(S'tr_tl'
I125
tp881
a(S'tr_ll'
I24
tp882
a(S'w'
I4
tp883
a(S'no_np'
I3
tp884
a(S'no_ll'
I0
tp885
a(S'w'
I14672
tp886
a(S'tr_tl'
I197
tp887
a(S'tr_ll'
I24
tp888
a(S'w'
I4
tp889
a(S'no_np'
I0
tp890
a(S'no_ll'
I0
tp891
a(S'w'
I14671
tp892
a(S'tr_tl'
I93
tp893
a(S'tr_ll'
I24
tp894
a(S'tr_th'
I2
tp895
a(S'w'
I4
tp896
a(S'no_ll'
I0
tp897
a(S'w'
I4
tp898
a(S'p1_tl'
I167
tp899
a(S'p1_ll'
I24
tp900
a(S'p1_th'
I2
tp901
a(S'w'
I734
tp902
a.