(lp1
(S'clock'
p2
I1789773
tp3
a(S'fc_mo'
I0
tp4
a(S'ch_no'
I1
tp5
a(S'ch_tr'
I1
tp6
a(S'ch_p2'
I1
tp7
a(S'ch_p1'
I1
tp8
a(S'w'
I13
tp9
a(S'tr_lr'
I66
tp10
a(S'tr_tl'
I172
tp11
a(S'w'
I1
tp12
a(S'tr_ll'
I24
tp13
a(S'tr_th'
I1
tp14
a(S'w'
I3
tp15
a(S'w'
I1
tp16
a(S'no_ll'
I0
tp17
a(S'w'
I3
tp18
a(S'p1_du'
I1
tp19
a(S'p1_vo'
I3
tp20
a(S'w'
I1
tp21
a(S'p1_tl'
I85
tp22
a(S'p1_ll'
I24
tp23
a(S'w'
I14659
tp24
a(S'tr_tl'
I30
tp25
a(S'tr_ll'
I24
tp26
a(S'w'
I4
tp27
a(S'no_ll'
I0
tp28
a(S'w'
I14672
tp29
a(S'tr_tl'
I214
tp30
a(S'tr_ll'
I24
tp31
a(S'tr_th'
I0
tp32
a(S'w'
I4
tp33
a(S'no_np'
I3
tp34
a(S'no_ll'
I0
tp35
a(S'w'
I14672
tp36
a(S'tr_tl'
I30
tp37
a(S'tr_ll'
I24
tp38
a(S'tr_th'
I1
tp39
a(S'w'
I4
tp40
a(S'no_np'
I0
tp41
a(S'no_ll'
I0
tp42
a(S'w'
I4
tp43
a(S'p1_tl'
I143
tp44
a(S'p1_ll'
I24
tp45
a(S'w'
I14668
tp46
a(S'tr_tl'
I172
tp47
a(S'tr_ll'
I24
tp48
a(S'w'
I4
tp49
a(S'no_ll'
I0
tp50
a(S'w'
I4
tp51
a(S'p1_ll'
I24
tp52
a(S'w'
I14668
tp53
a(S'tr_tl'
I30
tp54
a(S'tr_ll'
I24
tp55
a(S'w'
I4
tp56
a(S'no_ll'
I0
tp57
a(S'w'
I4
tp58
a(S'p1_tl'
I85
tp59
a(S'p1_ll'
I24
tp60
a(S'w'
I14668
tp61
a(S'tr_tl'
I214
tp62
a(S'tr_ll'
I24
tp63
a(S'tr_th'
I0
tp64
a(S'w'
I4
tp65
a(S'no_np'
I3
tp66
a(S'no_ll'
I0
tp67
a(S'w'
I4
tp68
a(S'p1_tl'
I95
tp69
a(S'p1_ll'
I24
tp70
a(S'w'
I14667
tp71
a(S'tr_tl'
I30
tp72
a(S'tr_ll'
I24
tp73
a(S'tr_th'
I1
tp74
a(S'w'
I4
tp75
a(S'no_np'
I0
tp76
a(S'no_ll'
I0
tp77
a(S'w'
I4
tp78
a(S'p1_tl'
I107
tp79
a(S'p1_ll'
I24
tp80
a(S'w'
I14668
tp81
a(S'tr_tl'
I253
tp82
a(S'tr_ll'
I24
tp83
a(S'w'
I4
tp84
a(S'no_ll'
I0
tp85
a(S'w'
I4
tp86
a(S'p1_tl'
I85
tp87
a(S'p1_ll'
I24
tp88
a(S'w'
I14668
tp89
a(S'tr_tl'
I84
tp90
a(S'tr_ll'
I24
tp91
a(S'w'
I4
tp92
a(S'no_ll'
I0
tp93
a(S'w'
I14672
tp94
a(S'tr_tl'
I254
tp95
a(S'tr_ll'
I24
tp96
a(S'tr_th'
I0
tp97
a(S'w'
I4
tp98
a(S'no_np'
I3
tp99
a(S'no_ll'
I0
tp100
a(S'w'
I14672
tp101
a(S'tr_tl'
I84
tp102
a(S'tr_ll'
I24
tp103
a(S'tr_th'
I1
tp104
a(S'w'
I4
tp105
a(S'no_np'
I0
tp106
a(S'no_ll'
I0
tp107
a(S'w'
I4
tp108
a(S'p1_tl'
I95
tp109
a(S'p1_ll'
I24
tp110
a(S'w'
I3664
tp111
a(S'p1_tl'
I85
tp112
a(S'p1_ll'
I24
tp113
a(S'w'
I3669
tp114
a(S'p1_tl'
I95
tp115
a(S'p1_ll'
I24
tp116
a(S'w'
I7335
tp117
a(S'tr_tl'
I253
tp118
a(S'tr_ll'
I24
tp119
a(S'w'
I4
tp120
a(S'no_ll'
I0
tp121
a(S'w'
I4
tp122
a(S'p1_tl'
I107
tp123
a(S'p1_ll'
I24
tp124
a(S'w'
I14667
tp125
a(S'tr_tl'
I84
tp126
a(S'tr_ll'
I24
tp127
a(S'w'
I4
tp128
a(S'no_ll'
I0
tp129
a(S'w'
I14672
tp130
a(S'tr_tl'
I254
tp131
a(S'tr_ll'
I24
tp132
a(S'tr_th'
I0
tp133
a(S'w'
I4
tp134
a(S'no_np'
I3
tp135
a(S'no_ll'
I0
tp136
a(S'w'
I14672
tp137
a(S'tr_tl'
I84
tp138
a(S'tr_ll'
I24
tp139
a(S'tr_th'
I1
tp140
a(S'w'
I4
tp141
a(S'no_np'
I0
tp142
a(S'no_ll'
I0
tp143
a(S'w'
I4
tp144
a(S'p1_tl'
I127
tp145
a(S'p1_ll'
I24
tp146
a(S'w'
I14668
tp147
a(S'tr_tl'
I172
tp148
a(S'tr_ll'
I24
tp149
a(S'w'
I4
tp150
a(S'no_ll'
I0
tp151
a(S'w'
I4
tp152
a(S'p1_tl'
I143
tp153
a(S'p1_ll'
I24
tp154
a(S'w'
I14668
tp155
a(S'tr_tl'
I30
tp156
a(S'tr_ll'
I24
tp157
a(S'w'
I4
tp158
a(S'no_ll'
I0
tp159
a(S'w'
I14672
tp160
a(S'tr_tl'
I214
tp161
a(S'tr_ll'
I24
tp162
a(S'tr_th'
I0
tp163
a(S'w'
I4
tp164
a(S'no_np'
I3
tp165
a(S'no_ll'
I0
tp166
a(S'w'
I14671
tp167
a(S'tr_tl'
I30
tp168
a(S'tr_ll'
I24
tp169
a(S'tr_th'
I1
tp170
a(S'w'
I4
tp171
a(S'no_np'
I0
tp172
a(S'no_ll'
I0
tp173
a(S'w'
I4
tp174
a(S'p1_tl'
I107
tp175
a(S'p1_ll'
I24
tp176
a(S'w'
I14668
tp177
a(S'tr_tl'
I172
tp178
a(S'tr_ll'
I24
tp179
a(S'w'
I4
tp180
a(S'no_ll'
I0
tp181
a(S'w'
I4
tp182
a(S'p1_tl'
I127
tp183
a(S'p1_ll'
I24
tp184
a(S'w'
I14668
tp185
a(S'tr_tl'
I30
tp186
a(S'tr_ll'
I24
tp187
a(S'w'
I4
tp188
a(S'no_ll'
I0
tp189
a(S'w'
I4
tp190
a(S'p1_tl'
I143
tp191
a(S'p1_ll'
I24
tp192
a(S'w'
I14668
tp193
a(S'tr_tl'
I214
tp194
a(S'tr_ll'
I24
tp195
a(S'tr_th'
I0
tp196
a(S'w'
I4
tp197
a(S'no_np'
I3
tp198
a(S'no_ll'
I0
tp199
a(S'w'
I14672
tp200
a(S'tr_tl'
I30
tp201
a(S'tr_ll'
I24
tp202
a(S'tr_th'
I1
tp203
a(S'w'
I4
tp204
a(S'no_np'
I0
tp205
a(S'no_ll'
I0
tp206
a(S'w'
I4
tp207
a(S'p1_tl'
I127
tp208
a(S'p1_ll'
I24
tp209
a(S'w'
I7333
tp210
a(S'p1_tl'
I143
tp211
a(S'p1_ll'
I24
tp212
a(S'w'
I7334
tp213
a(S'tr_tl'
I253
tp214
a(S'tr_ll'
I24
tp215
a(S'w'
I4
tp216
a(S'no_ll'
I0
tp217
a(S'w'
I4
tp218
a(S'p1_tl'
I170
tp219
a(S'p1_ll'
I24
tp220
a(S'w'
I14668
tp221
a(S'tr_tl'
I84
tp222
a(S'tr_ll'
I24
tp223
a(S'w'
I4
tp224
a(S'no_ll'
I0
tp225
a(S'w'
I14672
tp226
a(S'tr_tl'
I254
tp227
a(S'tr_ll'
I24
tp228
a(S'tr_th'
I0
tp229
a(S'w'
I4
tp230
a(S'no_np'
I3
tp231
a(S'no_ll'
I0
tp232
a(S'w'
I14672
tp233
a(S'tr_tl'
I84
tp234
a(S'tr_ll'
I24
tp235
a(S'tr_th'
I1
tp236
a(S'w'
I4
tp237
a(S'no_np'
I0
tp238
a(S'no_ll'
I0
tp239
a(S'w'
I4
tp240
a(S'p1_tl'
I143
tp241
a(S'p1_ll'
I24
tp242
a(S'w'
I14668
tp243
a(S'tr_tl'
I59
tp244
a(S'tr_ll'
I24
tp245
a(S'tr_th'
I2
tp246
a(S'w'
I4
tp247
a(S'no_ll'
I0
tp248
a(S'w'
I4
tp249
a(S'p1_tl'
I191
tp250
a(S'p1_ll'
I24
tp251
a(S'w'
I14668
tp252
a(S'tr_tl'
I125
tp253
a(S'tr_ll'
I24
tp254
a(S'tr_th'
I1
tp255
a(S'w'
I4
tp256
a(S'no_ll'
I0
tp257
a(S'w'
I14671
tp258
a(S'tr_tl'
I30
tp259
a(S'tr_ll'
I24
tp260
a(S'w'
I4
tp261
a(S'no_np'
I3
tp262
a(S'no_ll'
I0
tp263
a(S'w'
I14672
tp264
a(S'tr_tl'
I125
tp265
a(S'tr_ll'
I24
tp266
a(S'w'
I4
tp267
a(S'no_np'
I0
tp268
a(S'no_ll'
I0
tp269
a(S'w'
I14672
tp270
a(S'tr_tl'
I172
tp271
a(S'tr_ll'
I24
tp272
a(S'w'
I4
tp273
a(S'no_ll'
I0
tp274
a(S'w'
I4
tp275
a(S'p1_tl'
I85
tp276
a(S'p1_ll'
I24
tp277
a(S'w'
I14668
tp278
a(S'tr_tl'
I30
tp279
a(S'tr_ll'
I24
tp280
a(S'w'
I4
tp281
a(S'no_ll'
I0
tp282
a(S'w'
I14672
tp283
a(S'tr_tl'
I214
tp284
a(S'tr_ll'
I24
tp285
a(S'tr_th'
I0
tp286
a(S'w'
I4
tp287
a(S'no_np'
I3
tp288
a(S'no_ll'
I0
tp289
a(S'w'
I14672
tp290
a(S'tr_tl'
I30
tp291
a(S'tr_ll'
I24
tp292
a(S'tr_th'
I1
tp293
a(S'w'
I4
tp294
a(S'no_np'
I0
tp295
a(S'no_ll'
I0
tp296
a(S'w'
I4
tp297
a(S'p1_tl'
I143
tp298
a(S'p1_ll'
I24
tp299
a(S'w'
I14667
tp300
a(S'tr_tl'
I172
tp301
a(S'tr_ll'
I24
tp302
a(S'w'
I4
tp303
a(S'no_ll'
I0
tp304
a(S'w'
I4
tp305
a(S'p1_ll'
I24
tp306
a(S'w'
I14668
tp307
a(S'tr_tl'
I30
tp308
a(S'tr_ll'
I24
tp309
a(S'w'
I4
tp310
a(S'no_ll'
I0
tp311
a(S'w'
I4
tp312
a(S'p1_tl'
I85
tp313
a(S'p1_ll'
I24
tp314
a(S'w'
I14668
tp315
a(S'tr_tl'
I214
tp316
a(S'tr_ll'
I24
tp317
a(S'tr_th'
I0
tp318
a(S'w'
I4
tp319
a(S'no_np'
I3
tp320
a(S'no_ll'
I0
tp321
a(S'w'
I4
tp322
a(S'p1_tl'
I95
tp323
a(S'p1_ll'
I24
tp324
a(S'w'
I14668
tp325
a(S'tr_tl'
I30
tp326
a(S'tr_ll'
I24
tp327
a(S'tr_th'
I1
tp328
a(S'w'
I4
tp329
a(S'no_np'
I0
tp330
a(S'no_ll'
I0
tp331
a(S'w'
I4
tp332
a(S'p1_tl'
I107
tp333
a(S'p1_ll'
I24
tp334
a(S'w'
I14668
tp335
a(S'tr_tl'
I253
tp336
a(S'tr_ll'
I24
tp337
a(S'w'
I4
tp338
a(S'no_ll'
I0
tp339
a(S'w'
I4
tp340
a(S'p1_tl'
I85
tp341
a(S'p1_ll'
I24
tp342
a(S'w'
I14668
tp343
a(S'tr_tl'
I84
tp344
a(S'tr_ll'
I24
tp345
a(S'w'
I4
tp346
a(S'no_ll'
I0
tp347
a(S'w'
I14671
tp348
a(S'tr_tl'
I254
tp349
a(S'tr_ll'
I24
tp350
a(S'tr_th'
I0
tp351
a(S'w'
I4
tp352
a(S'no_np'
I3
tp353
a(S'no_ll'
I0
tp354
a(S'w'
I14672
tp355
a(S'tr_tl'
I84
tp356
a(S'tr_ll'
I24
tp357
a(S'tr_th'
I1
tp358
a(S'w'
I4
tp359
a(S'no_np'
I0
tp360
a(S'no_ll'
I0
tp361
a(S'w'
I4
tp362
a(S'p1_tl'
I95
tp363
a(S'p1_ll'
I24
tp364
a(S'w'
I7333
tp365
a(S'p1_tl'
I107
tp366
a(S'p1_ll'
I24
tp367
a(S'w'
I7335
tp368
a(S'tr_tl'
I253
tp369
a(S'tr_ll'
I24
tp370
a(S'w'
I4
tp371
a(S'no_ll'
I0
tp372
a(S'w'
I4
tp373
a(S'p1_tl'
I127
tp374
a(S'p1_ll'
I24
tp375
a(S'w'
I14668
tp376
a(S'tr_tl'
I84
tp377
a(S'tr_ll'
I24
tp378
a(S'w'
I4
tp379
a(S'no_ll'
I0
tp380
a(S'w'
I14672
tp381
a(S'tr_tl'
I254
tp382
a(S'tr_ll'
I24
tp383
a(S'tr_th'
I0
tp384
a(S'w'
I4
tp385
a(S'no_np'
I3
tp386
a(S'no_ll'
I0
tp387
a(S'w'
I14672
tp388
a(S'tr_tl'
I84
tp389
a(S'tr_ll'
I24
tp390
a(S'tr_th'
I1
tp391
a(S'w'
I4
tp392
a(S'no_np'
I0
tp393
a(S'no_ll'
I0
tp394
a(S'w'
I14671
tp395
a(S'tr_tl'
I129
tp396
a(S'tr_ll'
I24
tp397
a(S'tr_th'
I2
tp398
a(S'w'
I4
tp399
a(S'no_ll'
I0
tp400
a(S'w'
I4
tp401
a(S'p1_tl'
I0
tp402
a(S'p1_ll'
I24
tp403
a(S'w'
I14668
tp404
a(S'tr_tl'
I172
tp405
a(S'tr_ll'
I24
tp406
a(S'tr_th'
I1
tp407
a(S'w'
I4
tp408
a(S'no_ll'
I0
tp409
a(S'w'
I14672
tp410
a(S'tr_tl'
I65
tp411
a(S'tr_ll'
I24
tp412
a(S'w'
I4
tp413
a(S'no_np'
I3
tp414
a(S'no_ll'
I0
tp415
a(S'w'
I4
tp416
a(S'p1_tl'
I127
tp417
a(S'p1_ll'
I24
tp418
a(S'w'
I14668
tp419
a(S'tr_tl'
I172
tp420
a(S'tr_ll'
I24
tp421
a(S'w'
I4
tp422
a(S'no_np'
I0
tp423
a(S'no_ll'
I0
tp424
a(S'w'
I4
tp425
a(S'p1_tl'
I107
tp426
a(S'p1_ll'
I24
tp427
a(S'w'
I14668
tp428
a(S'tr_tl'
I59
tp429
a(S'tr_ll'
I24
tp430
a(S'tr_th'
I2
tp431
a(S'w'
I4
tp432
a(S'no_ll'
I0
tp433
a(S'w'
I4
tp434
a(S'p1_tl'
I143
tp435
a(S'p1_ll'
I24
tp436
a(S'w'
I14668
tp437
a(S'tr_tl'
I125
tp438
a(S'tr_ll'
I24
tp439
a(S'tr_th'
I1
tp440
a(S'w'
I4
tp441
a(S'no_ll'
I0
tp442
a(S'w'
I14671
tp443
a(S'tr_tl'
I30
tp444
a(S'tr_ll'
I24
tp445
a(S'w'
I4
tp446
a(S'no_np'
I3
tp447
a(S'no_ll'
I0
tp448
a(S'w'
I14672
tp449
a(S'tr_tl'
I125
tp450
a(S'tr_ll'
I24
tp451
a(S'w'
I4
tp452
a(S'no_np'
I0
tp453
a(S'no_ll'
I0
tp454
a(S'w'
I4
tp455
a(S'p1_tl'
I127
tp456
a(S'p1_ll'
I24
tp457
a(S'w'
I14668
tp458
a(S'tr_tl'
I59
tp459
a(S'tr_ll'
I24
tp460
a(S'tr_th'
I2
tp461
a(S'w'
I4
tp462
a(S'no_ll'
I0
tp463
a(S'w'
I4
tp464
a(S'p1_tl'
I143
tp465
a(S'p1_ll'
I24
tp466
a(S'w'
I14668
tp467
a(S'tr_tl'
I125
tp468
a(S'tr_ll'
I24
tp469
a(S'tr_th'
I1
tp470
a(S'w'
I4
tp471
a(S'no_ll'
I0
tp472
a(S'w'
I14672
tp473
a(S'tr_tl'
I30
tp474
a(S'tr_ll'
I24
tp475
a(S'w'
I4
tp476
a(S'no_np'
I3
tp477
a(S'no_ll'
I0
tp478
a(S'w'
I4
tp479
a(S'p1_tl'
I127
tp480
a(S'p1_ll'
I24
tp481
a(S'w'
I7333
tp482
a(S'p1_tl'
I143
tp483
a(S'p1_ll'
I24
tp484
a(S'w'
I7335
tp485
a(S'tr_tl'
I125
tp486
a(S'tr_ll'
I24
tp487
a(S'w'
I4
tp488
a(S'no_np'
I0
tp489
a(S'no_ll'
I0
tp490
a(S'w'
I4
tp491
a(S'p1_tl'
I170
tp492
a(S'p1_ll'
I24
tp493
a(S'w'
I7333
tp494
a(S'p1_tl'
I191
tp495
a(S'p1_ll'
I24
tp496
a(S'w'
I7334
tp497
a(S'tr_tl'
I172
tp498
a(S'tr_ll'
I24
tp499
a(S'w'
I4
tp500
a(S'no_ll'
I0
tp501
a(S'w'
I4
tp502
a(S'p1_tl'
I214
tp503
a(S'p1_ll'
I24
tp504
a(S'w'
I14668
tp505
a(S'tr_tl'
I30
tp506
a(S'tr_ll'
I24
tp507
a(S'w'
I4
tp508
a(S'no_ll'
I0
tp509
a(S'w'
I14672
tp510
a(S'tr_tl'
I214
tp511
a(S'tr_ll'
I24
tp512
a(S'tr_th'
I0
tp513
a(S'w'
I4
tp514
a(S'no_np'
I3
tp515
a(S'no_ll'
I0
tp516
a(S'w'
I14672
tp517
a(S'tr_tl'
I30
tp518
a(S'tr_ll'
I24
tp519
a(S'tr_th'
I1
tp520
a(S'w'
I4
tp521
a(S'no_np'
I0
tp522
a(S'no_ll'
I0
tp523
a(S'w'
I14672
tp524
a(S'tr_tl'
I253
tp525
a(S'tr_ll'
I24
tp526
a(S'w'
I4
tp527
a(S'no_ll'
I0
tp528
a(S'w'
I4
tp529
a(S'p1_tl'
I107
tp530
a(S'p1_ll'
I24
tp531
a(S'w'
I14668
tp532
a(S'tr_tl'
I84
tp533
a(S'tr_ll'
I24
tp534
a(S'w'
I4
tp535
a(S'no_ll'
I0
tp536
a(S'w'
I14671
tp537
a(S'tr_tl'
I254
tp538
a(S'tr_ll'
I24
tp539
a(S'tr_th'
I0
tp540
a(S'w'
I4
tp541
a(S'no_np'
I3
tp542
a(S'no_ll'
I0
tp543
a(S'w'
I14672
tp544
a(S'tr_tl'
I84
tp545
a(S'tr_ll'
I24
tp546
a(S'tr_th'
I1
tp547
a(S'w'
I4
tp548
a(S'no_np'
I0
tp549
a(S'no_ll'
I0
tp550
a(S'w'
I4
tp551
a(S'p1_tl'
I95
tp552
a(S'p1_ll'
I24
tp553
a(S'w'
I7333
tp554
a(S'p1_tl'
I107
tp555
a(S'p1_ll'
I24
tp556
a(S'w'
I7335
tp557
a(S'tr_tl'
I253
tp558
a(S'tr_ll'
I24
tp559
a(S'w'
I4
tp560
a(S'no_ll'
I0
tp561
a(S'w'
I4
tp562
a(S'p1_tl'
I127
tp563
a(S'p1_ll'
I24
tp564
a(S'w'
I14668
tp565
a(S'tr_tl'
I84
tp566
a(S'tr_ll'
I24
tp567
a(S'w'
I4
tp568
a(S'no_ll'
I0
tp569
a(S'w'
I14672
tp570
a(S'tr_tl'
I254
tp571
a(S'tr_ll'
I24
tp572
a(S'tr_th'
I0
tp573
a(S'w'
I4
tp574
a(S'no_np'
I3
tp575
a(S'no_ll'
I0
tp576
a(S'w'
I4
tp577
a(S'p1_tl'
I107
tp578
a(S'p1_ll'
I24
tp579
a(S'w'
I14668
tp580
a(S'tr_tl'
I84
tp581
a(S'tr_ll'
I24
tp582
a(S'tr_th'
I1
tp583
a(S'w'
I4
tp584
a(S'no_np'
I0
tp585
a(S'no_ll'
I0
tp586
a(S'w'
I14671
tp587
a(S'tr_tl'
I125
tp588
a(S'tr_ll'
I24
tp589
a(S'w'
I4
tp590
a(S'no_ll'
I0
tp591
a(S'w'
I4
tp592
a(S'p1_tl'
I95
tp593
a(S'p1_ll'
I24
tp594
a(S'w'
I14668
tp595
a(S'tr_tl'
I254
tp596
a(S'tr_ll'
I24
tp597
a(S'tr_th'
I0
tp598
a(S'w'
I4
tp599
a(S'no_ll'
I0
tp600
a(S'w'
I14672
tp601
a(S'tr_tl'
I191
tp602
a(S'tr_ll'
I24
tp603
a(S'w'
I4
tp604
a(S'no_np'
I3
tp605
a(S'no_ll'
I0
tp606
a(S'w'
I14672
tp607
a(S'tr_tl'
I254
tp608
a(S'tr_ll'
I24
tp609
a(S'w'
I4
tp610
a(S'no_np'
I0
tp611
a(S'no_ll'
I0
tp612
a(S'w'
I4
tp613
a(S'p1_tl'
I85
tp614
a(S'p1_ll'
I24
tp615
a(S'w'
I14668
tp616
a(S'tr_tl'
I125
tp617
a(S'tr_ll'
I24
tp618
a(S'tr_th'
I1
tp619
a(S'w'
I4
tp620
a(S'no_ll'
I0
tp621
a(S'w'
I4
tp622
a(S'p1_tl'
I95
tp623
a(S'p1_ll'
I24
tp624
a(S'w'
I14668
tp625
a(S'tr_tl'
I254
tp626
a(S'tr_ll'
I24
tp627
a(S'tr_th'
I0
tp628
a(S'w'
I4
tp629
a(S'no_ll'
I0
tp630
a(S'w'
I14671
tp631
a(S'tr_tl'
I191
tp632
a(S'tr_ll'
I24
tp633
a(S'w'
I4
tp634
a(S'no_np'
I3
tp635
a(S'no_ll'
I0
tp636
a(S'w'
I14672
tp637
a(S'tr_tl'
I254
tp638
a(S'tr_ll'
I24
tp639
a(S'w'
I4
tp640
a(S'no_np'
I0
tp641
a(S'no_ll'
I0
tp642
a(S'w'
I14672
tp643
a(S'tr_tl'
I84
tp644
a(S'tr_ll'
I24
tp645
a(S'tr_th'
I1
tp646
a(S'w'
I4
tp647
a(S'no_ll'
I0
tp648
a(S'w'
I4
tp649
a(S'p1_tl'
I0
tp650
a(S'p1_ll'
I24
tp651
a(S'w'
I14668
tp652
a(S'tr_tl'
I227
tp653
a(S'tr_ll'
I24
tp654
a(S'tr_th'
I0
tp655
a(S'w'
I4
tp656
a(S'no_ll'
I0
tp657
a(S'w'
I14672
tp658
a(S'tr_tl'
I170
tp659
a(S'tr_ll'
I24
tp660
a(S'w'
I4
tp661
a(S'no_np'
I3
tp662
a(S'no_ll'
I0
tp663
a(S'w'
I4
tp664
a(S'p1_tl'
I85
tp665
a(S'p1_ll'
I24
tp666
a(S'w'
I14668
tp667
a(S'tr_tl'
I227
tp668
a(S'tr_ll'
I24
tp669
a(S'w'
I4
tp670
a(S'no_np'
I0
tp671
a(S'no_ll'
I0
tp672
a(S'w'
I4
tp673
a(S'p1_tl'
I95
tp674
a(S'p1_ll'
I24
tp675
a(S'w'
I14667
tp676
a(S'tr_tl'
I253
tp677
a(S'tr_ll'
I24
tp678
a(S'tr_th'
I1
tp679
a(S'w'
I4
tp680
a(S'no_ll'
I0
tp681
a(S'w'
I4
tp682
a(S'p1_tl'
I107
tp683
a(S'p1_ll'
I24
tp684
a(S'w'
I14668
tp685
a(S'tr_tl'
I84
tp686
a(S'tr_ll'
I24
tp687
a(S'w'
I4
tp688
a(S'no_ll'
I0
tp689
a(S'w'
I14672
tp690
a(S'tr_tl'
I254
tp691
a(S'tr_ll'
I24
tp692
a(S'tr_th'
I0
tp693
a(S'w'
I4
tp694
a(S'no_np'
I3
tp695
a(S'no_ll'
I0
tp696
a(S'w'
I14672
tp697
a(S'tr_tl'
I84
tp698
a(S'tr_ll'
I24
tp699
a(S'tr_th'
I1
tp700
a(S'w'
I4
tp701
a(S'no_np'
I0
tp702
a(S'no_ll'
I0
tp703
a(S'w'
I4
tp704
a(S'p1_tl'
I95
tp705
a(S'p1_ll'
I24
tp706
a(S'w'
I7333
tp707
a(S'p1_tl'
I107
tp708
a(S'p1_ll'
I24
tp709
a(S'w'
I7335
tp710
a(S'tr_tl'
I253
tp711
a(S'tr_ll'
I24
tp712
a(S'w'
I4
tp713
a(S'no_ll'
I0
tp714
a(S'w'
I4
tp715
a(S'p1_tl'
I127
tp716
a(S'p1_ll'
I24
tp717
a(S'w'
I14668
tp718
a(S'tr_tl'
I84
tp719
a(S'tr_ll'
I24
tp720
a(S'w'
I4
tp721
a(S'no_ll'
I0
tp722
a(S'w'
I14671
tp723
a(S'tr_tl'
I254
tp724
a(S'tr_ll'
I24
tp725
a(S'tr_th'
I0
tp726
a(S'w'
I4
tp727
a(S'no_np'
I3
tp728
a(S'no_ll'
I0
tp729
a(S'w'
I4
tp730
a(S'p1_ll'
I24
tp731
a(S'w'
I14668
tp732
a(S'tr_tl'
I84
tp733
a(S'tr_ll'
I24
tp734
a(S'tr_th'
I1
tp735
a(S'w'
I4
tp736
a(S'no_np'
I0
tp737
a(S'no_ll'
I0
tp738
a(S'w'
I4
tp739
a(S'p1_tl'
I107
tp740
a(S'p1_ll'
I24
tp741
a(S'w'
I14668
tp742
a(S'tr_tl'
I59
tp743
a(S'tr_ll'
I24
tp744
a(S'tr_th'
I2
tp745
a(S'w'
I4
tp746
a(S'no_ll'
I0
tp747
a(S'w'
I4
tp748
a(S'p1_tl'
I95
tp749
a(S'p1_ll'
I24
tp750
a(S'w'
I14668
tp751
a(S'tr_tl'
I125
tp752
a(S'tr_ll'
I24
tp753
a(S'tr_th'
I1
tp754
a(S'w'
I4
tp755
a(S'no_ll'
I0
tp756
a(S'w'
I14672
tp757
a(S'tr_tl'
I30
tp758
a(S'tr_ll'
I24
tp759
a(S'w'
I4
tp760
a(S'no_np'
I3
tp761
a(S'no_ll'
I0
tp762
a(S'w'
I14672
tp763
a(S'tr_tl'
I125
tp764
a(S'tr_ll'
I24
tp765
a(S'w'
I4
tp766
a(S'no_np'
I0
tp767
a(S'no_ll'
I0
tp768
a(S'w'
I14671
tp769
a(S'tr_tl'
I172
tp770
a(S'tr_ll'
I24
tp771
a(S'w'
I4
tp772
a(S'no_ll'
I0
tp773
a(S'w'
I4
tp774
a(S'p1_tl'
I85
tp775
a(S'p1_ll'
I24
tp776
a(S'w'
I14668
tp777
a(S'tr_tl'
I30
tp778
a(S'tr_ll'
I24
tp779
a(S'w'
I4
tp780
a(S'no_ll'
I0
tp781
a(S'w'
I14672
tp782
a(S'tr_tl'
I214
tp783
a(S'tr_ll'
I24
tp784
a(S'tr_th'
I0
tp785
a(S'w'
I4
tp786
a(S'no_np'
I3
tp787
a(S'no_ll'
I0
tp788
a(S'w'
I14672
tp789
a(S'tr_tl'
I30
tp790
a(S'tr_ll'
I24
tp791
a(S'tr_th'
I1
tp792
a(S'w'
I4
tp793
a(S'no_np'
I0
tp794
a(S'no_ll'
I0
tp795
a(S'w'
I4
tp796
a(S'p1_tl'
I143
tp797
a(S'p1_ll'
I24
tp798
a(S'w'
I14668
tp799
a(S'tr_tl'
I172
tp800
a(S'tr_ll'
I24
tp801
a(S'w'
I4
tp802
a(S'no_ll'
I0
tp803
a(S'w'
I4
tp804
a(S'p1_ll'
I24
tp805
a(S'w'
I14668
tp806
a(S'tr_tl'
I30
tp807
a(S'tr_ll'
I24
tp808
a(S'w'
I4
tp809
a(S'no_ll'
I0
tp810
a(S'w'
I4
tp811
a(S'p1_tl'
I85
tp812
a(S'p1_ll'
I24
tp813
a(S'w'
I14667
tp814
a(S'tr_tl'
I214
tp815
a(S'tr_ll'
I24
tp816
a(S'tr_th'
I0
tp817
a(S'w'
I4
tp818
a(S'no_np'
I3
tp819
a(S'no_ll'
I0
tp820
a(S'w'
I4
tp821
a(S'p1_tl'
I95
tp822
a(S'p1_ll'
I24
tp823
a(S'w'
I14668
tp824
a(S'tr_tl'
I30
tp825
a(S'tr_ll'
I24
tp826
a(S'tr_th'
I1
tp827
a(S'w'
I4
tp828
a(S'no_np'
I0
tp829
a(S'no_ll'
I0
tp830
a(S'w'
I4
tp831
a(S'p1_tl'
I107
tp832
a(S'p1_ll'
I24
tp833
a(S'w'
I14668
tp834
a(S'tr_tl'
I253
tp835
a(S'tr_ll'
I24
tp836
a(S'w'
I4
tp837
a(S'no_ll'
I0
tp838
a(S'w'
I4
tp839
a(S'p1_tl'
I85
tp840
a(S'p1_ll'
I24
tp841
a(S'w'
I14668
tp842
a(S'tr_tl'
I84
tp843
a(S'tr_ll'
I24
tp844
a(S'w'
I4
tp845
a(S'no_ll'
I0
tp846
a(S'w'
I14672
tp847
a(S'tr_tl'
I254
tp848
a(S'tr_ll'
I24
tp849
a(S'tr_th'
I0
tp850
a(S'w'
I4
tp851
a(S'no_np'
I3
tp852
a(S'no_ll'
I0
tp853
a(S'w'
I14672
tp854
a(S'tr_tl'
I84
tp855
a(S'tr_ll'
I24
tp856
a(S'tr_th'
I1
tp857
a(S'w'
I4
tp858
a(S'no_np'
I0
tp859
a(S'no_ll'
I0
tp860
a(S'w'
I4
tp861
a(S'p1_tl'
I95
tp862
a(S'p1_ll'
I24
tp863
a(S'w'
I7332
tp864
a(S'p1_tl'
I107
tp865
a(S'p1_ll'
I24
tp866
a(S'w'
I7335
tp867
a(S'tr_tl'
I253
tp868
a(S'tr_ll'
I24
tp869
a(S'w'
I4
tp870
a(S'no_ll'
I0
tp871
a(S'w'
I4
tp872
a(S'p1_tl'
I127
tp873
a(S'p1_ll'
I24
tp874
a(S'w'
I14668
tp875
a(S'tr_tl'
I84
tp876
a(S'tr_ll'
I24
tp877
a(S'w'
I4
tp878
a(S'no_ll'
I0
tp879
a(S'w'
I14672
tp880
a(S'tr_tl'
I254
tp881
a(S'tr_ll'
I24
tp882
a(S'tr_th'
I0
tp883
a(S'w'
I4
tp884
a(S'no_np'
I3
tp885
a(S'no_ll'
I0
tp886
a(S'w'
I14672
tp887
a(S'tr_tl'
I84
tp888
a(S'tr_ll'
I24
tp889
a(S'tr_th'
I1
tp890
a(S'w'
I4
tp891
a(S'no_np'
I0
tp892
a(S'no_ll'
I0
tp893
a(S'w'
I14672
tp894
a(S'tr_tl'
I129
tp895
a(S'tr_ll'
I24
tp896
a(S'tr_th'
I2
tp897
a(S'w'
I4
tp898
a(S'no_ll'
I0
tp899
a(S'w'
I4
tp900
a(S'p1_tl'
I0
tp901
a(S'p1_ll'
I24
tp902
a(S'w'
I14668
tp903
a(S'tr_tl'
I172
tp904
a(S'tr_ll'
I24
tp905
a(S'tr_th'
I1
tp906
a(S'w'
I4
tp907
a(S'no_ll'
I0
tp908
a(S'w'
I14671
tp909
a(S'tr_tl'
I65
tp910
a(S'tr_ll'
I24
tp911
a(S'w'
I4
tp912
a(S'no_np'
I3
tp913
a(S'no_ll'
I0
tp914
a(S'w'
I4
tp915
a(S'p1_tl'
I127
tp916
a(S'p1_ll'
I24
tp917
a(S'w'
I14668
tp918
a(S'tr_tl'
I172
tp919
a(S'tr_ll'
I24
tp920
a(S'w'
I4
tp921
a(S'no_np'
I0
tp922
a(S'no_ll'
I0
tp923
a(S'w'
I4
tp924
a(S'p1_tl'
I107
tp925
a(S'p1_ll'
I24
tp926
a(S'w'
I14668
tp927
a(S'tr_tl'
I59
tp928
a(S'tr_ll'
I24
tp929
a(S'tr_th'
I2
tp930
a(S'w'
I4
tp931
a(S'no_ll'
I0
tp932
a(S'w'
I4
tp933
a(S'p1_tl'
I113
tp934
a(S'p1_ll'
I24
tp935
a(S'w'
I14668
tp936
a(S'tr_tl'
I125
tp937
a(S'tr_ll'
I24
tp938
a(S'tr_th'
I1
tp939
a(S'w'
I4
tp940
a(S'no_ll'
I0
tp941
a(S'w'
I14672
tp942
a(S'tr_tl'
I30
tp943
a(S'tr_ll'
I24
tp944
a(S'w'
I4
tp945
a(S'no_np'
I3
tp946
a(S'no_ll'
I0
tp947
a(S'w'
I14672
tp948
a(S'tr_tl'
I125
tp949
a(S'tr_ll'
I24
tp950
a(S'w'
I4
tp951
a(S'no_np'
I0
tp952
a(S'no_ll'
I0
tp953
a(S'w'
I4
tp954
a(S'p1_tl'
I127
tp955
a(S'p1_ll'
I24
tp956
a(S'w'
I14667
tp957
a(S'tr_tl'
I59
tp958
a(S'tr_ll'
I24
tp959
a(S'tr_th'
I2
tp960
a(S'w'
I4
tp961
a(S'no_ll'
I0
tp962
a(S'w'
I4
tp963
a(S'p1_tl'
I143
tp964
a(S'p1_ll'
I24
tp965
a(S'w'
I14668
tp966
a(S'tr_tl'
I125
tp967
a(S'tr_ll'
I24
tp968
a(S'tr_th'
I1
tp969
a(S'w'
I4
tp970
a(S'no_ll'
I0
tp971
a(S'w'
I14672
tp972
a(S'tr_tl'
I30
tp973
a(S'tr_ll'
I24
tp974
a(S'w'
I4
tp975
a(S'no_np'
I3
tp976
a(S'no_ll'
I0
tp977
a(S'w'
I4
tp978
a(S'p1_tl'
I127
tp979
a(S'p1_ll'
I24
tp980
a(S'w'
I14668
tp981
a(S'tr_tl'
I125
tp982
a(S'tr_ll'
I24
tp983
a(S'w'
I4
tp984
a(S'no_np'
I0
tp985
a(S'no_ll'
I0
tp986
a(S'w'
I4
tp987
a(S'p1_tl'
I113
tp988
a(S'p1_ll'
I24
tp989
a(S'w'
I14668
tp990
a(S'tr_tl'
I172
tp991
a(S'tr_ll'
I24
tp992
a(S'w'
I4
tp993
a(S'no_ll'
I0
tp994
a(S'w'
I4
tp995
a(S'p1_tl'
I107
tp996
a(S'p1_ll'
I24
tp997
a(S'w'
I14668
tp998
a(S'tr_tl'
I30
tp999
a(S'tr_ll'
I24
tp1000
a(S'w'
I4
tp1001
a(S'no_ll'
I0
tp1002
a(S'w'
I14671
tp1003
a(S'tr_tl'
I214
tp1004
a(S'tr_ll'
I24
tp1005
a(S'tr_th'
I0
tp1006
a(S'w'
I4
tp1007
a(S'no_np'
I3
tp1008
a(S'no_ll'
I0
tp1009
a(S'w'
I14672
tp1010
a(S'tr_tl'
I30
tp1011
a(S'tr_ll'
I24
tp1012
a(S'tr_th'
I1
tp1013
a(S'w'
I4
tp1014
a(S'no_np'
I0
tp1015
a(S'no_ll'
I0
tp1016
a(S'w'
I14672
tp1017
a(S'tr_tl'
I0
tp1018
a(S'tr_ll'
I24
tp1019
a(S'tr_th'
I0
tp1020
a(S'w'
I4
tp1021
a(S'no_np'
I4
tp1022
a(S'no_ll'
I0
tp1023
a(S'w'
I4
tp1024
a(S'p1_tl'
I54
tp1025
a(S'p1_ll'
I24
tp1026
a(S'p1_th'
I4
tp1027
a(S'w'
I734
tp1028
a.