(lp1
(S'clock'
p2
I1789772
tp3
a(S'ch_no'
I1
tp4
a(S'ch_tr'
I1
tp5
a(S'ch_p2'
I1
tp6
a(S'ch_p1'
I1
tp7
a(S'w'
I5
tp8
a(S'p1_du'
I2
tp9
a(S'p1_lh'
I1
tp10
a(S'p1_cv'
I1
tp11
a(S'p1_vo'
I15
tp12
a(S'w'
I4
tp13
a(S'w'
I1
tp14
a(S'p1_tl'
I89
tp15
a(S'p1_ll'
I1
tp16
a(S'w'
I5
tp17
a(S'p2_du'
I2
tp18
a(S'p2_lh'
I1
tp19
a(S'p2_cv'
I1
tp20
a(S'p2_vo'
I7
tp21
a(S'w'
I4
tp22
a(S'w'
I1
tp23
a(S'p2_tl'
I95
tp24
a(S'w'
I1
tp25
a(S'p2_ll'
I1
tp26
a(S'w'
I5
tp27
a(S'tr_lh'
I1
tp28
a(S'tr_lr'
I127
tp29
a(S'w'
I5
tp30
a(S'tr_tl'
I46
tp31
a(S'tr_ll'
I1
tp32
a(S'w'
I2
tp33
a(S'no_lh'
I1
tp34
a(S'no_cv'
I1
tp35
a(S'no_np'
I4
tp36
a(S'no_ll'
I1
tp37
a(S'w'
I641
tp38
a(S'w'
I10
tp39
a(S'w'
I12
tp40
a(S'w'
I711
tp41
a(S'w'
I11
tp42
a(S'w'
I12
tp43
a(S'w'
I711
tp44
a(S'w'
I10
tp45
a(S'w'
I10
tp46
a(S'tr_tl'
I44
tp47
a(S'w'
I2
tp48
a(S'w'
I712
tp49
a(S'w'
I10
tp50
a(S'w'
I12
tp51
a(S'w'
I712
tp52
a(S'w'
I10
tp53
a(S'w'
I12
tp54
a(S'w'
I712
tp55
a(S'w'
I10
tp56
a(S'w'
I10
tp57
a(S'tr_tl'
I42
tp58
a(S'w'
I2
tp59
a(S'w'
I711
tp60
a(S'w'
I11
tp61
a(S'w'
I11
tp62
a(S'w'
I711
tp63
a(S'p1_vo'
I7
tp64
a(S'w'
I5
tp65
a(S'w'
I1
tp66
a(S'p1_ll'
I1
tp67
a(S'w'
I5
tp68
a(S'p2_vo'
I15
tp69
a(S'w'
I5
tp70
a(S'p2_ll'
I1
tp71
a(S'w'
I10
tp72
a(S'tr_tl'
I44
tp73
a(S'w'
I2
tp74
a(S'w'
I707
tp75
a(S'w'
I11
tp76
a(S'w'
I11
tp77
a(S'w'
I712
tp78
a(S'w'
I10
tp79
a(S'w'
I12
tp80
a(S'w'
I712
tp81
a(S'w'
I10
tp82
a(S'w'
I10
tp83
a(S'tr_tl'
I46
tp84
a(S'w'
I2
tp85
a(S'w'
I712
tp86
a(S'w'
I10
tp87
a(S'w'
I12
tp88
a(S'w'
I711
tp89
a(S'w'
I11
tp90
a(S'w'
I12
tp91
a(S'w'
I711
tp92
a(S'w'
I10
tp93
a(S'w'
I10
tp94
a(S'tr_tl'
I44
tp95
a(S'w'
I2
tp96
a(S'w'
I712
tp97
a(S'w'
I10
tp98
a(S'w'
I12
tp99
a(S'w'
I711
tp100
a(S'p1_vo'
I13
tp101
a(S'w'
I5
tp102
a(S'p1_ll'
I1
tp103
a(S'w'
I5
tp104
a(S'p2_vo'
I5
tp105
a(S'w'
I5
tp106
a(S'w'
I1
tp107
a(S'p2_ll'
I1
tp108
a(S'w'
I10
tp109
a(S'tr_tl'
I42
tp110
a(S'w'
I2
tp111
a(S'w'
I707
tp112
a(S'w'
I10
tp113
a(S'w'
I12
tp114
a(S'w'
I711
tp115
a(S'w'
I10
tp116
a(S'w'
I12
tp117
a(S'w'
I712
tp118
a(S'w'
I10
tp119
a(S'w'
I10
tp120
a(S'tr_tl'
I44
tp121
a(S'w'
I2
tp122
a(S'w'
I712
tp123
a(S'w'
I10
tp124
a(S'w'
I12
tp125
a(S'w'
I712
tp126
a(S'w'
I10
tp127
a(S'w'
I12
tp128
a(S'w'
I711
tp129
a(S'w'
I11
tp130
a(S'w'
I9
tp131
a(S'tr_tl'
I46
tp132
a(S'w'
I2
tp133
a(S'w'
I712
tp134
a(S'w'
I10
tp135
a(S'w'
I12
tp136
a(S'w'
I711
tp137
a(S'p1_vo'
I5
tp138
a(S'w'
I5
tp139
a(S'w'
I1
tp140
a(S'p1_ll'
I1
tp141
a(S'w'
I5
tp142
a(S'p2_vo'
I13
tp143
a(S'w'
I5
tp144
a(S'p2_ll'
I1
tp145
a(S'w'
I10
tp146
a(S'tr_tl'
I44
tp147
a(S'w'
I2
tp148
a(S'w'
I707
tp149
a(S'w'
I10
tp150
a(S'w'
I12
tp151
a(S'w'
I712
tp152
a(S'w'
I10
tp153
a(S'w'
I12
tp154
a(S'w'
I711
tp155
a(S'w'
I11
tp156
a(S'w'
I10
tp157
a(S'tr_tl'
I42
tp158
a(S'w'
I2
tp159
a(S'w'
I711
tp160
a(S'w'
I11
tp161
a(S'w'
I12
tp162
a(S'w'
I711
tp163
a(S'w'
I11
tp164
a(S'w'
I11
tp165
a(S'w'
I712
tp166
a(S'w'
I10
tp167
a(S'w'
I10
tp168
a(S'tr_tl'
I44
tp169
a(S'w'
I2
tp170
a(S'w'
I712
tp171
a(S'w'
I10
tp172
a(S'w'
I11
tp173
a(S'w'
I747
tp174
a(S'p1_vo'
I11
tp175
a(S'w'
I5
tp176
a(S'w'
I1
tp177
a(S'p1_ll'
I1
tp178
a(S'w'
I5
tp179
a(S'p2_vo'
I3
tp180
a(S'w'
I5
tp181
a(S'p2_ll'
I1
tp182
a(S'w'
I10
tp183
a(S'tr_tl'
I46
tp184
a(S'tr_ll'
I1
tp185
a(S'w'
I2
tp186
a(S'w'
I1
tp187
a(S'no_ll'
I1
tp188
a(S'w'
I670
tp189
a(S'w'
I11
tp190
a(S'w'
I12
tp191
a(S'w'
I711
tp192
a(S'w'
I10
tp193
a(S'w'
I12
tp194
a(S'w'
I712
tp195
a(S'w'
I10
tp196
a(S'w'
I10
tp197
a(S'tr_tl'
I44
tp198
a(S'w'
I2
tp199
a(S'w'
I712
tp200
a(S'w'
I10
tp201
a(S'w'
I12
tp202
a(S'w'
I712
tp203
a(S'w'
I10
tp204
a(S'w'
I12
tp205
a(S'w'
I711
tp206
a(S'w'
I10
tp207
a(S'w'
I10
tp208
a(S'tr_tl'
I42
tp209
a(S'w'
I2
tp210
a(S'w'
I712
tp211
a(S'w'
I10
tp212
a(S'w'
I12
tp213
a(S'w'
I712
tp214
a(S'w'
I10
tp215
a(S'w'
I10
tp216
a(S'tr_tl'
I44
tp217
a(S'w'
I2
tp218
a(S'w'
I712
tp219
a(S'w'
I10
tp220
a(S'w'
I12
tp221
a(S'w'
I711
tp222
a(S'p1_vo'
I3
tp223
a(S'w'
I5
tp224
a(S'p1_ll'
I1
tp225
a(S'w'
I5
tp226
a(S'p2_vo'
I11
tp227
a(S'w'
I5
tp228
a(S'w'
I1
tp229
a(S'p2_ll'
I1
tp230
a(S'w'
I11
tp231
a(S'w'
I708
tp232
a(S'w'
I10
tp233
a(S'w'
I10
tp234
a(S'tr_tl'
I46
tp235
a(S'w'
I2
tp236
a(S'w'
I711
tp237
a(S'w'
I10
tp238
a(S'w'
I12
tp239
a(S'w'
I712
tp240
a(S'w'
I10
tp241
a(S'w'
I12
tp242
a(S'w'
I712
tp243
a(S'w'
I10
tp244
a(S'w'
I10
tp245
a(S'tr_tl'
I44
tp246
a(S'w'
I2
tp247
a(S'w'
I712
tp248
a(S'w'
I10
tp249
a(S'w'
I12
tp250
a(S'w'
I711
tp251
a(S'w'
I10
tp252
a(S'w'
I10
tp253
a(S'tr_tl'
I42
tp254
a(S'w'
I3
tp255
a(S'w'
I711
tp256
a(S'w'
I10
tp257
a(S'w'
I12
tp258
a(S'w'
I712
tp259
a(S'w'
I10
tp260
a(S'w'
I12
tp261
a(S'w'
I711
tp262
a(S'p1_vo'
I9
tp263
a(S'w'
I5
tp264
a(S'p1_ll'
I1
tp265
a(S'w'
I5
tp266
a(S'p2_vo'
I1
tp267
a(S'w'
I5
tp268
a(S'w'
I1
tp269
a(S'p2_ll'
I1
tp270
a(S'w'
I9
tp271
a(S'tr_tl'
I44
tp272
a(S'w'
I2
tp273
a(S'w'
I708
tp274
a(S'w'
I10
tp275
a(S'w'
I12
tp276
a(S'w'
I711
tp277
a(S'w'
I10
tp278
a(S'w'
I12
tp279
a(S'w'
I712
tp280
a(S'w'
I10
tp281
a(S'w'
I10
tp282
a(S'tr_tl'
I46
tp283
a(S'w'
I2
tp284
a(S'w'
I712
tp285
a(S'w'
I10
tp286
a(S'w'
I12
tp287
a(S'w'
I712
tp288
a(S'w'
I10
tp289
a(S'w'
I10
tp290
a(S'tr_tl'
I44
tp291
a(S'w'
I2
tp292
a(S'w'
I712
tp293
a(S'w'
I10
tp294
a(S'w'
I12
tp295
a(S'w'
I711
tp296
a(S'w'
I10
tp297
a(S'w'
I12
tp298
a(S'w'
I712
tp299
a(S'w'
I10
tp300
a(S'w'
I10
tp301
a(S'tr_tl'
I42
tp302
a(S'w'
I2
tp303
a(S'w'
I711
tp304
a(S'p1_vo'
I1
tp305
a(S'w'
I5
tp306
a(S'p1_ll'
I1
tp307
a(S'w'
I6
tp308
a(S'p2_vo'
I9
tp309
a(S'w'
I5
tp310
a(S'p2_ll'
I1
tp311
a(S'w'
I12
tp312
a(S'w'
I707
tp313
a(S'w'
I10
tp314
a(S'w'
I12
tp315
a(S'w'
I712
tp316
a(S'w'
I10
tp317
a(S'w'
I9
tp318
a(S'tr_tl'
I44
tp319
a(S'w'
I2
tp320
a(S'w'
I712
tp321
a(S'w'
I10
tp322
a(S'w'
I12
tp323
a(S'w'
I712
tp324
a(S'w'
I11
tp325
a(S'w'
I9
tp326
a(S'tr_tl'
I46
tp327
a(S'w'
I3
tp328
a(S'w'
I711
tp329
a(S'w'
I10
tp330
a(S'w'
I12
tp331
a(S'w'
I712
tp332
a(S'w'
I10
tp333
a(S'w'
I12
tp334
a(S'w'
I712
tp335
a(S'w'
I10
tp336
a(S'w'
I9
tp337
a(S'tr_tl'
I44
tp338
a(S'w'
I2
tp339
a(S'w'
I712
tp340
a(S'w'
I10
tp341
a(S'w'
I12
tp342
a(S'w'
I712
tp343
a(S'w'
I10
tp344
a(S'w'
I12
tp345
a(S'w'
I747
tp346
a(S'p1_vo'
I7
tp347
a(S'w'
I5
tp348
a(S'p1_ll'
I1
tp349
a(S'w'
I5
tp350
a(S'p2_vo'
I3
tp351
a(S'w'
I5
tp352
a(S'p2_tl'
I59
tp353
a(S'w'
I1
tp354
a(S'p2_ll'
I1
tp355
a(S'w'
I7
tp356
a(S'tr_tl'
I255
tp357
a(S'tr_ll'
I1
tp358
a(S'tr_th'
I7
tp359
a(S'w'
I2
tp360
a(S'no_ll'
I1
tp361
a(S'w'
I674
tp362
a(S'w'
I10
tp363
a(S'w'
I10
tp364
a(S'w'
I714
tp365
a(S'w'
I10
tp366
a(S'w'
I9
tp367
a(S'w'
I714
tp368
a(S'w'
I10
tp369
a(S'w'
I9
tp370
a(S'w'
I715
tp371
a(S'w'
I11
tp372
a(S'w'
I8
tp373
a(S'w'
I715
tp374
a(S'w'
I10
tp375
a(S'w'
I9
tp376
a(S'w'
I715
tp377
a(S'w'
I10
tp378
a(S'w'
I7
tp379
a(S'tr_tl'
I253
tp380
a(S'w'
I2
tp381
a(S'w'
I715
tp382
a(S'w'
I10
tp383
a(S'w'
I9
tp384
a(S'w'
I714
tp385
a(S'w'
I10
tp386
a(S'w'
I7
tp387
a(S'tr_tl'
I255
tp388
a(S'w'
I2
tp389
a(S'w'
I715
tp390
a(S'w'
I10
tp391
a(S'w'
I9
tp392
a(S'w'
I714
tp393
a(S'p1_vo'
I3
tp394
a(S'w'
I5
tp395
a(S'w'
I1
tp396
a(S'p1_ll'
I1
tp397
a(S'w'
I5
tp398
a(S'p2_vo'
I7
tp399
a(S'w'
I5
tp400
a(S'p2_ll'
I1
tp401
a(S'w'
I9
tp402
a(S'w'
I710
tp403
a(S'w'
I10
tp404
a(S'w'
I10
tp405
a(S'w'
I714
tp406
a(S'w'
I10
tp407
a(S'w'
I9
tp408
a(S'w'
I714
tp409
a(S'w'
I10
tp410
a(S'w'
I10
tp411
a(S'w'
I714
tp412
a(S'w'
I11
tp413
a(S'w'
I8
tp414
a(S'w'
I715
tp415
a(S'w'
I10
tp416
a(S'w'
I9
tp417
a(S'w'
I715
tp418
a(S'w'
I10
tp419
a(S'w'
I7
tp420
a(S'tr_tl'
I253
tp421
a(S'w'
I2
tp422
a(S'w'
I715
tp423
a(S'w'
I10
tp424
a(S'w'
I9
tp425
a(S'w'
I714
tp426
a(S'w'
I11
tp427
a(S'w'
I9
tp428
a(S'w'
I714
tp429
a(S'w'
I10
tp430
a(S'w'
I7
tp431
a(S'tr_tl'
I255
tp432
a(S'w'
I2
tp433
a(S'w'
I715
tp434
a(S'w'
I10
tp435
a(S'w'
I9
tp436
a(S'w'
I714
tp437
a(S'p1_vo'
I5
tp438
a(S'w'
I5
tp439
a(S'p1_ll'
I1
tp440
a(S'w'
I5
tp441
a(S'p2_vo'
I1
tp442
a(S'w'
I5
tp443
a(S'w'
I1
tp444
a(S'p2_ll'
I1
tp445
a(S'w'
I8
tp446
a(S'w'
I711
tp447
a(S'w'
I10
tp448
a(S'w'
I9
tp449
a(S'w'
I714
tp450
a(S'w'
I10
tp451
a(S'w'
I10
tp452
a(S'w'
I714
tp453
a(S'w'
I10
tp454
a(S'w'
I9
tp455
a(S'w'
I715
tp456
a(S'w'
I10
tp457
a(S'w'
I9
tp458
a(S'w'
I715
tp459
a(S'w'
I10
tp460
a(S'w'
I9
tp461
a(S'w'
I715
tp462
a(S'w'
I10
tp463
a(S'w'
I7
tp464
a(S'tr_tl'
I253
tp465
a(S'w'
I2
tp466
a(S'w'
I714
tp467
a(S'w'
I11
tp468
a(S'w'
I9
tp469
a(S'w'
I714
tp470
a(S'w'
I10
tp471
a(S'w'
I9
tp472
a(S'w'
I715
tp473
a(S'w'
I10
tp474
a(S'w'
I7
tp475
a(S'tr_tl'
I255
tp476
a(S'w'
I2
tp477
a(S'w'
I715
tp478
a(S'w'
I10
tp479
a(S'w'
I8
tp480
a(S'w'
I715
tp481
a(S'p1_vo'
I1
tp482
a(S'w'
I5
tp483
a(S'p1_ll'
I1
tp484
a(S'w'
I5
tp485
a(S'p2_vo'
I5
tp486
a(S'w'
I5
tp487
a(S'w'
I1
tp488
a(S'p2_ll'
I1
tp489
a(S'w'
I9
tp490
a(S'w'
I710
tp491
a(S'w'
I10
tp492
a(S'w'
I9
tp493
a(S'w'
I714
tp494
a(S'w'
I10
tp495
a(S'w'
I10
tp496
a(S'w'
I714
tp497
a(S'w'
I10
tp498
a(S'w'
I9
tp499
a(S'w'
I715
tp500
a(S'w'
I10
tp501
a(S'w'
I9
tp502
a(S'w'
I715
tp503
a(S'w'
I10
tp504
a(S'w'
I9
tp505
a(S'w'
I714
tp506
a(S'w'
I11
tp507
a(S'w'
I6
tp508
a(S'tr_tl'
I253
tp509
a(S'w'
I3
tp510
a(S'w'
I714
tp511
a(S'w'
I10
tp512
a(S'w'
I9
tp513
a(S'w'
I715
tp514
a(S'w'
I10
tp515
a(S'w'
I7
tp516
a(S'tr_tl'
I255
tp517
a(S'w'
I2
tp518
a(S'w'
I715
tp519
a(S'w'
I10
tp520
a(S'w'
I9
tp521
a(S'w'
I719
tp522
a(S'p1_vo'
I3
tp523
a(S'w'
I5
tp524
a(S'w'
I1
tp525
a(S'p1_ll'
I1
tp526
a(S'w'
I5
tp527
a(S'p2_vo'
I1
tp528
a(S'w'
I5
tp529
a(S'p2_ll'
I1
tp530
a(S'w'
I8
tp531
a(S'tr_ll'
I1
tp532
a(S'w'
I2
tp533
a(S'no_ll'
I1
tp534
a(S'w'
I704
tp535
a(S'w'
I10
tp536
a(S'w'
I9
tp537
a(S'w'
I714
tp538
a(S'w'
I10
tp539
a(S'w'
I10
tp540
a(S'w'
I714
tp541
a(S'w'
I10
tp542
a(S'w'
I9
tp543
a(S'w'
I715
tp544
a(S'w'
I10
tp545
a(S'w'
I9
tp546
a(S'w'
I715
tp547
a(S'w'
I10
tp548
a(S'w'
I9
tp549
a(S'w'
I714
tp550
a(S'w'
I11
tp551
a(S'w'
I7
tp552
a(S'tr_tl'
I253
tp553
a(S'w'
I2
tp554
a(S'w'
I714
tp555
a(S'w'
I10
tp556
a(S'w'
I9
tp557
a(S'w'
I715
tp558
a(S'w'
I10
tp559
a(S'w'
I7
tp560
a(S'tr_tl'
I255
tp561
a(S'w'
I2
tp562
a(S'w'
I715
tp563
a(S'w'
I10
tp564
a(S'w'
I9
tp565
a(S'w'
I714
tp566
a(S'w'
I10
tp567
a(S'w'
I9
tp568
a(S'w'
I715
tp569
a(S'w'
I10
tp570
a(S'w'
I10
tp571
a(S'w'
I713
tp572
a(S'p1_vo'
I1
tp573
a(S'w'
I5
tp574
a(S'w'
I1
tp575
a(S'p1_ll'
I1
tp576
a(S'w'
I5
tp577
a(S'p2_vo'
I3
tp578
a(S'w'
I5
tp579
a(S'p2_ll'
I1
tp580
a(S'w'
I9
tp581
a(S'w'
I710
tp582
a(S'w'
I11
tp583
a(S'w'
I9
tp584
a(S'w'
I714
tp585
a(S'w'
I10
tp586
a(S'w'
I9
tp587
a(S'w'
I715
tp588
a(S'w'
I10
tp589
a(S'w'
I9
tp590
a(S'w'
I715
tp591
a(S'w'
I10
tp592
a(S'w'
I7
tp593
a(S'tr_tl'
I253
tp594
a(S'w'
I2
tp595
a(S'w'
I714
tp596
a(S'w'
I11
tp597
a(S'w'
I9
tp598
a(S'w'
I714
tp599
a(S'w'
I10
tp600
a(S'w'
I9
tp601
a(S'w'
I715
tp602
a(S'w'
I10
tp603
a(S'w'
I7
tp604
a(S'tr_tl'
I255
tp605
a(S'w'
I2
tp606
a(S'w'
I715
tp607
a(S'w'
I10
tp608
a(S'w'
I9
tp609
a(S'w'
I714
tp610
a(S'w'
I11
tp611
a(S'w'
I8
tp612
a(S'w'
I715
tp613
a(S'w'
I10
tp614
a(S'w'
I9
tp615
a(S'w'
I715
tp616
a(S'w'
I10
tp617
a(S'w'
I9
tp618
a(S'w'
I719
tp619
a(S'p1_ll'
I1
tp620
a(S'w'
I5
tp621
a(S'p2_vo'
I1
tp622
a(S'w'
I5
tp623
a(S'w'
I1
tp624
a(S'p2_ll'
I1
tp625
a(S'w'
I9
tp626
a(S'w'
I710
tp627
a(S'w'
I10
tp628
a(S'w'
I9
tp629
a(S'w'
I714
tp630
a(S'w'
I11
tp631
a(S'w'
I8
tp632
a(S'w'
I715
tp633
a(S'w'
I10
tp634
a(S'w'
I7
tp635
a(S'tr_tl'
I253
tp636
a(S'w'
I2
tp637
a(S'w'
I715
tp638
a(S'w'
I11
tp639
a(S'w'
I9
tp640
a(S'w'
I714
tp641
a(S'w'
I10
tp642
a(S'w'
I9
tp643
a(S'w'
I715
tp644
a(S'w'
I10
tp645
a(S'w'
I6
tp646
a(S'tr_tl'
I255
tp647
a(S'w'
I3
tp648
a(S'w'
I715
tp649
a(S'w'
I10
tp650
a(S'w'
I8
tp651
a(S'w'
I715
tp652
a(S'w'
I10
tp653
a(S'w'
I10
tp654
a(S'w'
I714
tp655
a(S'w'
I10
tp656
a(S'w'
I10
tp657
a(S'w'
I714
tp658
a(S'w'
I10
tp659
a(S'w'
I9
tp660
a(S'w'
I715
tp661
a(S'w'
I9
tp662
a(S'w'
I9
tp663
a(S'w'
I709
tp664
a(S'ch_no'
I0
tp665
a(S'ch_tr'
I0
tp666
a(S'ch_p2'
I0
tp667
a(S'ch_p1'
I0
tp668
a.